; Listing generated by Microsoft (R) Optimizing Compiler Version 16.00.30319.01 

	TITLE	D:\Lost Saga For Developer\Youtube\Tutorial\Source\src\LSClient\ioCreateChar.cpp
	.686P
	.XMM
	include listing.inc
	.model	flat

INCLUDELIB MSVCRT
INCLUDELIB OLDNAMES

PUBLIC	?return1@@YAIXZ					; return1
; Function compile flags: /Ogsp
; File d:\lost saga for developer\youtube\tutorial\source\src\lsclient\stdafx.h
;	COMDAT ?return1@@YAIXZ
_TEXT	SEGMENT
?return1@@YAIXZ PROC					; return1, COMDAT

; 17   : 	__forceinline unsigned int return1() { __asm mov eax, 1 };

  00000	b8 01 00 00 00	 mov	 eax, 1
  00005	c3		 ret	 0
?return1@@YAIXZ ENDP					; return1
_TEXT	ENDS
PUBLIC	?return100@@YAIXZ				; return100
; Function compile flags: /Ogsp
;	COMDAT ?return100@@YAIXZ
_TEXT	SEGMENT
?return100@@YAIXZ PROC					; return100, COMDAT

; 25   : 	__forceinline unsigned int return100() { __asm mov eax, 100 };

  00000	b8 64 00 00 00	 mov	 eax, 100		; 00000064H
  00005	c3		 ret	 0
?return100@@YAIXZ ENDP					; return100
_TEXT	ENDS
PUBLIC	??_R0?AVioWeaponItem@@@8			; ioWeaponItem `RTTI Type Descriptor'
PUBLIC	??_R0?AVioHookItem@@@8				; ioHookItem `RTTI Type Descriptor'
PUBLIC	?ToHookItem@@YAPBVioHookItem@@PBVioWeaponItem@@@Z ; ToHookItem
EXTRN	___RTDynamicCast:PROC
EXTRN	??_7type_info@@6B@:QWORD			; type_info::`vftable'
;	COMDAT ??_R0?AVioWeaponItem@@@8
; File d:\lost saga for developer\youtube\tutorial\source\src\lsclient\iohookitem.h
_DATA	SEGMENT
??_R0?AVioWeaponItem@@@8 DD FLAT:??_7type_info@@6B@	; ioWeaponItem `RTTI Type Descriptor'
	DD	00H
	DB	'.?AVioWeaponItem@@', 00H
_DATA	ENDS
;	COMDAT ??_R0?AVioHookItem@@@8
_DATA	SEGMENT
??_R0?AVioHookItem@@@8 DD FLAT:??_7type_info@@6B@	; ioHookItem `RTTI Type Descriptor'
	DD	00H
	DB	'.?AVioHookItem@@', 00H
; Function compile flags: /Ogsp
_DATA	ENDS
;	COMDAT ?ToHookItem@@YAPBVioHookItem@@PBVioWeaponItem@@@Z
_TEXT	SEGMENT
_pWeapon$ = 8						; size = 4
?ToHookItem@@YAPBVioHookItem@@PBVioWeaponItem@@@Z PROC	; ToHookItem, COMDAT

; 130  : {

  00000	55		 push	 ebp
  00001	8b ec		 mov	 ebp, esp
  00003	56		 push	 esi

; 131  : 	if( !pWeapon || pWeapon->GetSubType() != ioWeaponItem::WST_HOOK )

  00004	8b 75 08	 mov	 esi, DWORD PTR _pWeapon$[ebp]
  00007	85 f6		 test	 esi, esi
  00009	74 28		 je	 SHORT $LN1@ToHookItem
  0000b	8b 06		 mov	 eax, DWORD PTR [esi]
  0000d	8b ce		 mov	 ecx, esi
  0000f	ff 90 f0 02 00
	00		 call	 DWORD PTR [eax+752]
  00015	83 f8 02	 cmp	 eax, 2
  00018	75 19		 jne	 SHORT $LN1@ToHookItem

; 133  : 
; 134  : 	return dynamic_cast< const ioHookItem* >( pWeapon );

  0001a	6a 00		 push	 0
  0001c	68 00 00 00 00	 push	 OFFSET ??_R0?AVioHookItem@@@8
  00021	68 00 00 00 00	 push	 OFFSET ??_R0?AVioWeaponItem@@@8
  00026	6a 00		 push	 0
  00028	56		 push	 esi
  00029	e8 00 00 00 00	 call	 ___RTDynamicCast
  0002e	83 c4 14	 add	 esp, 20			; 00000014H
  00031	eb 02		 jmp	 SHORT $LN3@ToHookItem
$LN1@ToHookItem:

; 132  : 		return NULL;

  00033	33 c0		 xor	 eax, eax
$LN3@ToHookItem:
  00035	5e		 pop	 esi

; 135  : }

  00036	5d		 pop	 ebp
  00037	c3		 ret	 0
?ToHookItem@@YAPBVioHookItem@@PBVioWeaponItem@@@Z ENDP	; ToHookItem
_TEXT	ENDS
PUBLIC	?return1000@@YAIXZ				; return1000
; Function compile flags: /Ogsp
; File d:\lost saga for developer\youtube\tutorial\source\src\lsclient\stdafx.h
;	COMDAT ?return1000@@YAIXZ
_TEXT	SEGMENT
?return1000@@YAIXZ PROC					; return1000, COMDAT

; 29   : 	__forceinline unsigned int return1000() { __asm mov eax, 1000 };

  00000	b8 e8 03 00 00	 mov	 eax, 1000		; 000003e8H
  00005	c3		 ret	 0
?return1000@@YAIXZ ENDP					; return1000
_TEXT	ENDS
PUBLIC	??_7bad_alloc@std@@6B@				; std::bad_alloc::`vftable'
PUBLIC	??0bad_alloc@std@@QAE@PBD@Z			; std::bad_alloc::bad_alloc
PUBLIC	??_R4bad_alloc@std@@6B@				; std::bad_alloc::`RTTI Complete Object Locator'
PUBLIC	??_R0?AVbad_alloc@std@@@8			; std::bad_alloc `RTTI Type Descriptor'
PUBLIC	??_R3bad_alloc@std@@8				; std::bad_alloc::`RTTI Class Hierarchy Descriptor'
PUBLIC	??_R2bad_alloc@std@@8				; std::bad_alloc::`RTTI Base Class Array'
PUBLIC	??_R1A@?0A@EA@bad_alloc@std@@8			; std::bad_alloc::`RTTI Base Class Descriptor at (0,-1,0,64)'
PUBLIC	??_R1A@?0A@EA@exception@std@@8			; std::exception::`RTTI Base Class Descriptor at (0,-1,0,64)'
PUBLIC	??_R0?AVexception@std@@@8			; std::exception `RTTI Type Descriptor'
PUBLIC	??_R3exception@std@@8				; std::exception::`RTTI Class Hierarchy Descriptor'
PUBLIC	??_R2exception@std@@8				; std::exception::`RTTI Base Class Array'
EXTRN	__imp_??0exception@std@@QAE@ABQBD@Z:PROC
EXTRN	??_Ebad_alloc@std@@UAEPAXI@Z:PROC		; std::bad_alloc::`vector deleting destructor'
EXTRN	?what@exception@std@@UBEPBDXZ:PROC		; std::exception::what
;	COMDAT ??_R2exception@std@@8
; File c:\program files (x86)\microsoft visual studio 10.0\vc\include\exception
rdata$r	SEGMENT
??_R2exception@std@@8 DD FLAT:??_R1A@?0A@EA@exception@std@@8 ; std::exception::`RTTI Base Class Array'
rdata$r	ENDS
;	COMDAT ??_R3exception@std@@8
rdata$r	SEGMENT
??_R3exception@std@@8 DD 00H				; std::exception::`RTTI Class Hierarchy Descriptor'
	DD	00H
	DD	01H
	DD	FLAT:??_R2exception@std@@8
rdata$r	ENDS
;	COMDAT ??_R0?AVexception@std@@@8
_DATA	SEGMENT
??_R0?AVexception@std@@@8 DD FLAT:??_7type_info@@6B@	; std::exception `RTTI Type Descriptor'
	DD	00H
	DB	'.?AVexception@std@@', 00H
_DATA	ENDS
;	COMDAT ??_R1A@?0A@EA@exception@std@@8
rdata$r	SEGMENT
??_R1A@?0A@EA@exception@std@@8 DD FLAT:??_R0?AVexception@std@@@8 ; std::exception::`RTTI Base Class Descriptor at (0,-1,0,64)'
	DD	00H
	DD	00H
	DD	0ffffffffH
	DD	00H
	DD	040H
	DD	FLAT:??_R3exception@std@@8
rdata$r	ENDS
;	COMDAT ??_R1A@?0A@EA@bad_alloc@std@@8
rdata$r	SEGMENT
??_R1A@?0A@EA@bad_alloc@std@@8 DD FLAT:??_R0?AVbad_alloc@std@@@8 ; std::bad_alloc::`RTTI Base Class Descriptor at (0,-1,0,64)'
	DD	01H
	DD	00H
	DD	0ffffffffH
	DD	00H
	DD	040H
	DD	FLAT:??_R3bad_alloc@std@@8
rdata$r	ENDS
;	COMDAT ??_R2bad_alloc@std@@8
rdata$r	SEGMENT
??_R2bad_alloc@std@@8 DD FLAT:??_R1A@?0A@EA@bad_alloc@std@@8 ; std::bad_alloc::`RTTI Base Class Array'
	DD	FLAT:??_R1A@?0A@EA@exception@std@@8
rdata$r	ENDS
;	COMDAT ??_R3bad_alloc@std@@8
rdata$r	SEGMENT
??_R3bad_alloc@std@@8 DD 00H				; std::bad_alloc::`RTTI Class Hierarchy Descriptor'
	DD	00H
	DD	02H
	DD	FLAT:??_R2bad_alloc@std@@8
rdata$r	ENDS
;	COMDAT ??_R0?AVbad_alloc@std@@@8
_DATA	SEGMENT
??_R0?AVbad_alloc@std@@@8 DD FLAT:??_7type_info@@6B@	; std::bad_alloc `RTTI Type Descriptor'
	DD	00H
	DB	'.?AVbad_alloc@std@@', 00H
_DATA	ENDS
;	COMDAT ??_R4bad_alloc@std@@6B@
rdata$r	SEGMENT
??_R4bad_alloc@std@@6B@ DD 00H				; std::bad_alloc::`RTTI Complete Object Locator'
	DD	00H
	DD	00H
	DD	FLAT:??_R0?AVbad_alloc@std@@@8
	DD	FLAT:??_R3bad_alloc@std@@8
rdata$r	ENDS
;	COMDAT ??_7bad_alloc@std@@6B@
CONST	SEGMENT
??_7bad_alloc@std@@6B@ DD FLAT:??_R4bad_alloc@std@@6B@	; std::bad_alloc::`vftable'
	DD	FLAT:??_Ebad_alloc@std@@UAEPAXI@Z
	DD	FLAT:?what@exception@std@@UBEPBDXZ
; Function compile flags: /Ogsp
CONST	ENDS
;	COMDAT ??0bad_alloc@std@@QAE@PBD@Z
_TEXT	SEGMENT
__Message$ = 8						; size = 4
??0bad_alloc@std@@QAE@PBD@Z PROC			; std::bad_alloc::bad_alloc, COMDAT
; _this$ = ecx

; 345  : 		{	// construct from message string

  00000	55		 push	 ebp
  00001	8b ec		 mov	 ebp, esp
  00003	56		 push	 esi
  00004	8d 45 08	 lea	 eax, DWORD PTR __Message$[ebp]
  00007	50		 push	 eax
  00008	8b f1		 mov	 esi, ecx
  0000a	ff 15 00 00 00
	00		 call	 DWORD PTR __imp_??0exception@std@@QAE@ABQBD@Z
  00010	c7 06 00 00 00
	00		 mov	 DWORD PTR [esi], OFFSET ??_7bad_alloc@std@@6B@

; 346  : 		}

  00016	8b c6		 mov	 eax, esi
  00018	5e		 pop	 esi
  00019	5d		 pop	 ebp
  0001a	c2 04 00	 ret	 4
??0bad_alloc@std@@QAE@PBD@Z ENDP			; std::bad_alloc::bad_alloc
_TEXT	ENDS
PUBLIC	??1bad_alloc@std@@UAE@XZ			; std::bad_alloc::~bad_alloc
EXTRN	__imp_??1exception@std@@UAE@XZ:PROC
; Function compile flags: /Ogsp
;	COMDAT ??1bad_alloc@std@@UAE@XZ
_TEXT	SEGMENT
??1bad_alloc@std@@UAE@XZ PROC				; std::bad_alloc::~bad_alloc, COMDAT
; _this$ = ecx

; 354  : 		{	// destroy the object

  00000	c7 01 00 00 00
	00		 mov	 DWORD PTR [ecx], OFFSET ??_7bad_alloc@std@@6B@

; 355  : 		}

  00006	ff 25 00 00 00
	00		 jmp	 DWORD PTR __imp_??1exception@std@@UAE@XZ
??1bad_alloc@std@@UAE@XZ ENDP				; std::bad_alloc::~bad_alloc
_TEXT	ENDS
EXTRN	??3@YAXPAX@Z:PROC				; operator delete
; Function compile flags: /Ogsp
;	COMDAT ??_Gbad_alloc@std@@UAEPAXI@Z
_TEXT	SEGMENT
___flags$ = 8						; size = 4
??_Gbad_alloc@std@@UAEPAXI@Z PROC			; std::bad_alloc::`scalar deleting destructor', COMDAT
; _this$ = ecx
  00000	55		 push	 ebp
  00001	8b ec		 mov	 ebp, esp
  00003	56		 push	 esi
  00004	8b f1		 mov	 esi, ecx
  00006	c7 06 00 00 00
	00		 mov	 DWORD PTR [esi], OFFSET ??_7bad_alloc@std@@6B@
  0000c	ff 15 00 00 00
	00		 call	 DWORD PTR __imp_??1exception@std@@UAE@XZ
  00012	f6 45 08 01	 test	 BYTE PTR ___flags$[ebp], 1
  00016	74 07		 je	 SHORT $LN1@scalar
  00018	56		 push	 esi
  00019	e8 00 00 00 00	 call	 ??3@YAXPAX@Z		; operator delete
  0001e	59		 pop	 ecx
$LN1@scalar:
  0001f	8b c6		 mov	 eax, esi
  00021	5e		 pop	 esi
  00022	5d		 pop	 ebp
  00023	c2 04 00	 ret	 4
??_Gbad_alloc@std@@UAEPAXI@Z ENDP			; std::bad_alloc::`scalar deleting destructor'
_TEXT	ENDS
PUBLIC	??2@YAPAXIPAX@Z					; operator new
; Function compile flags: /Ogsp
; File c:\program files (x86)\microsoft visual studio 10.0\vc\include\new
;	COMDAT ??2@YAPAXIPAX@Z
_TEXT	SEGMENT
___formal$ = 8						; size = 4
__Where$ = 12						; size = 4
??2@YAPAXIPAX@Z PROC					; operator new, COMDAT

; 56   : 	{	// construct array with placement at _Where

  00000	55		 push	 ebp
  00001	8b ec		 mov	 ebp, esp

; 57   : 	return (_Where);

  00003	8b 45 0c	 mov	 eax, DWORD PTR __Where$[ebp]

; 58   : 	}

  00006	5d		 pop	 ebp
  00007	c3		 ret	 0
??2@YAPAXIPAX@Z ENDP					; operator new
_TEXT	ENDS
PUBLIC	??3@YAXPAX0@Z					; operator delete
; Function compile flags: /Ogsp
;	COMDAT ??3@YAXPAX0@Z
_TEXT	SEGMENT
___formal$ = 8						; size = 4
___formal$ = 12						; size = 4
??3@YAXPAX0@Z PROC					; operator delete, COMDAT

; 62   : 	}

  00000	c3		 ret	 0
??3@YAXPAX0@Z ENDP					; operator delete
_TEXT	ENDS
PUBLIC	?_Adopt@_Iterator_base0@std@@QAEXPBX@Z		; std::_Iterator_base0::_Adopt
; Function compile flags: /Ogsp
; File c:\program files (x86)\microsoft visual studio 10.0\vc\include\xutility
;	COMDAT ?_Adopt@_Iterator_base0@std@@QAEXPBX@Z
_TEXT	SEGMENT
___formal$ = 8						; size = 4
?_Adopt@_Iterator_base0@std@@QAEXPBX@Z PROC		; std::_Iterator_base0::_Adopt, COMDAT
; _this$ = ecx

; 49   : 		}

  00000	c2 04 00	 ret	 4
?_Adopt@_Iterator_base0@std@@QAEXPBX@Z ENDP		; std::_Iterator_base0::_Adopt
_TEXT	ENDS
PUBLIC	??0D3DXQUATERNION@@QAE@XZ			; D3DXQUATERNION::D3DXQUATERNION
; Function compile flags: /Ogsp
; File c:\program files (x86)\microsoft directx sdk (june 2010)\include\d3dx9math.h
;	COMDAT ??0D3DXQUATERNION@@QAE@XZ
_TEXT	SEGMENT
??0D3DXQUATERNION@@QAE@XZ PROC				; D3DXQUATERNION::D3DXQUATERNION, COMDAT
; _this$ = ecx

; 429  :     D3DXQUATERNION() {}

  00000	8b c1		 mov	 eax, ecx
  00002	c3		 ret	 0
??0D3DXQUATERNION@@QAE@XZ ENDP				; D3DXQUATERNION::D3DXQUATERNION
_TEXT	ENDS
PUBLIC	??0D3DXVECTOR3@@QAE@MMM@Z			; D3DXVECTOR3::D3DXVECTOR3
EXTRN	__fltused:DWORD
; Function compile flags: /Ogsp
; File c:\program files (x86)\microsoft directx sdk (june 2010)\include\d3dx9math.inl
;	COMDAT ??0D3DXVECTOR3@@QAE@MMM@Z
_TEXT	SEGMENT
_fx$ = 8						; size = 4
_fy$ = 12						; size = 4
_fz$ = 16						; size = 4
??0D3DXVECTOR3@@QAE@MMM@Z PROC				; D3DXVECTOR3::D3DXVECTOR3, COMDAT
; _this$ = ecx

; 303  : {

  00000	55		 push	 ebp
  00001	8b ec		 mov	 ebp, esp

; 304  :     x = fx;

  00003	f3 0f 10 45 08	 movss	 xmm0, DWORD PTR _fx$[ebp]
  00008	8b c1		 mov	 eax, ecx
  0000a	f3 0f 11 00	 movss	 DWORD PTR [eax], xmm0

; 305  :     y = fy;

  0000e	f3 0f 10 45 0c	 movss	 xmm0, DWORD PTR _fy$[ebp]
  00013	f3 0f 11 40 04	 movss	 DWORD PTR [eax+4], xmm0

; 306  :     z = fz;

  00018	f3 0f 10 45 10	 movss	 xmm0, DWORD PTR _fz$[ebp]
  0001d	f3 0f 11 40 08	 movss	 DWORD PTR [eax+8], xmm0

; 307  : }

  00022	5d		 pop	 ebp
  00023	c2 0c 00	 ret	 12			; 0000000cH
??0D3DXVECTOR3@@QAE@MMM@Z ENDP				; D3DXVECTOR3::D3DXVECTOR3
_TEXT	ENDS
PUBLIC	??1tagCostumeInfo@@QAE@XZ			; tagCostumeInfo::~tagCostumeInfo
EXTRN	__imp_??1ioHashString@@QAE@XZ:PROC
EXTRN	___CxxFrameHandler3:PROC
EXTRN	@__security_check_cookie@4:PROC
EXTRN	__EH_epilog3:PROC
EXTRN	__EH_prolog3:PROC
;	COMDAT xdata$x
xdata$x	SEGMENT
__ehfuncinfo$??1tagCostumeInfo@@QAE@XZ DD 019930522H
	DD	08H
	DD	FLAT:__unwindtable$??1tagCostumeInfo@@QAE@XZ
	DD	2 DUP(00H)
	DD	2 DUP(00H)
	DD	00H
	DD	01H
__unwindtable$??1tagCostumeInfo@@QAE@XZ DD 0ffffffffH
	DD	FLAT:__unwindfunclet$??1tagCostumeInfo@@QAE@XZ$0
	DD	00H
	DD	FLAT:__unwindfunclet$??1tagCostumeInfo@@QAE@XZ$1
	DD	01H
	DD	FLAT:__unwindfunclet$??1tagCostumeInfo@@QAE@XZ$2
	DD	02H
	DD	FLAT:__unwindfunclet$??1tagCostumeInfo@@QAE@XZ$3
	DD	03H
	DD	FLAT:__unwindfunclet$??1tagCostumeInfo@@QAE@XZ$4
	DD	04H
	DD	FLAT:__unwindfunclet$??1tagCostumeInfo@@QAE@XZ$5
	DD	05H
	DD	FLAT:__unwindfunclet$??1tagCostumeInfo@@QAE@XZ$6
	DD	06H
	DD	FLAT:__unwindfunclet$??1tagCostumeInfo@@QAE@XZ$7
; Function compile flags: /Ogsp
xdata$x	ENDS
;	COMDAT ??1tagCostumeInfo@@QAE@XZ
_TEXT	SEGMENT
_this$ = -16						; size = 4
__$EHRec$ = -12						; size = 12
??1tagCostumeInfo@@QAE@XZ PROC				; tagCostumeInfo::~tagCostumeInfo, COMDAT
; _this$ = ecx
  00000	6a 04		 push	 4
  00002	b8 00 00 00 00	 mov	 eax, __ehhandler$??1tagCostumeInfo@@QAE@XZ
  00007	e8 00 00 00 00	 call	 __EH_prolog3
  0000c	8b f9		 mov	 edi, ecx
  0000e	89 7d f0	 mov	 DWORD PTR _this$[ebp], edi
  00011	8b 35 00 00 00
	00		 mov	 esi, DWORD PTR __imp_??1ioHashString@@QAE@XZ
  00017	8d 8f b8 00 00
	00		 lea	 ecx, DWORD PTR [edi+184]
  0001d	c7 45 fc 07 00
	00 00		 mov	 DWORD PTR __$EHRec$[ebp+8], 7
  00024	ff d6		 call	 esi
  00026	8d 8f a8 00 00
	00		 lea	 ecx, DWORD PTR [edi+168]
  0002c	c6 45 fc 06	 mov	 BYTE PTR __$EHRec$[ebp+8], 6
  00030	ff d6		 call	 esi
  00032	8d 8f 94 00 00
	00		 lea	 ecx, DWORD PTR [edi+148]
  00038	c6 45 fc 05	 mov	 BYTE PTR __$EHRec$[ebp+8], 5
  0003c	ff d6		 call	 esi
  0003e	8d 8f 84 00 00
	00		 lea	 ecx, DWORD PTR [edi+132]
  00044	c6 45 fc 04	 mov	 BYTE PTR __$EHRec$[ebp+8], 4
  00048	ff d6		 call	 esi
  0004a	8d 4f 60	 lea	 ecx, DWORD PTR [edi+96]
  0004d	c6 45 fc 03	 mov	 BYTE PTR __$EHRec$[ebp+8], 3
  00051	ff d6		 call	 esi
  00053	8d 4f 50	 lea	 ecx, DWORD PTR [edi+80]
  00056	c6 45 fc 02	 mov	 BYTE PTR __$EHRec$[ebp+8], 2
  0005a	ff d6		 call	 esi
  0005c	8d 4f 38	 lea	 ecx, DWORD PTR [edi+56]
  0005f	c6 45 fc 01	 mov	 BYTE PTR __$EHRec$[ebp+8], 1
  00063	ff d6		 call	 esi
  00065	8d 4f 28	 lea	 ecx, DWORD PTR [edi+40]
  00068	c6 45 fc 00	 mov	 BYTE PTR __$EHRec$[ebp+8], 0
  0006c	ff d6		 call	 esi
  0006e	83 4d fc ff	 or	 DWORD PTR __$EHRec$[ebp+8], -1
  00072	8d 4f 18	 lea	 ecx, DWORD PTR [edi+24]
  00075	ff d6		 call	 esi
  00077	e8 00 00 00 00	 call	 __EH_epilog3
  0007c	c3		 ret	 0
_TEXT	ENDS
;	COMDAT text$x
text$x	SEGMENT
__unwindfunclet$??1tagCostumeInfo@@QAE@XZ$0:
  00000	8b 4d f0	 mov	 ecx, DWORD PTR _this$[ebp]
  00003	83 c1 18	 add	 ecx, 24			; 00000018H
  00006	ff 25 00 00 00
	00		 jmp	 DWORD PTR __imp_??1ioHashString@@QAE@XZ
__unwindfunclet$??1tagCostumeInfo@@QAE@XZ$1:
  0000c	8b 4d f0	 mov	 ecx, DWORD PTR _this$[ebp]
  0000f	83 c1 28	 add	 ecx, 40			; 00000028H
  00012	ff 25 00 00 00
	00		 jmp	 DWORD PTR __imp_??1ioHashString@@QAE@XZ
__unwindfunclet$??1tagCostumeInfo@@QAE@XZ$2:
  00018	8b 4d f0	 mov	 ecx, DWORD PTR _this$[ebp]
  0001b	83 c1 38	 add	 ecx, 56			; 00000038H
  0001e	ff 25 00 00 00
	00		 jmp	 DWORD PTR __imp_??1ioHashString@@QAE@XZ
__unwindfunclet$??1tagCostumeInfo@@QAE@XZ$3:
  00024	8b 4d f0	 mov	 ecx, DWORD PTR _this$[ebp]
  00027	83 c1 50	 add	 ecx, 80			; 00000050H
  0002a	ff 25 00 00 00
	00		 jmp	 DWORD PTR __imp_??1ioHashString@@QAE@XZ
__unwindfunclet$??1tagCostumeInfo@@QAE@XZ$4:
  00030	8b 4d f0	 mov	 ecx, DWORD PTR _this$[ebp]
  00033	83 c1 60	 add	 ecx, 96			; 00000060H
  00036	ff 25 00 00 00
	00		 jmp	 DWORD PTR __imp_??1ioHashString@@QAE@XZ
__unwindfunclet$??1tagCostumeInfo@@QAE@XZ$5:
  0003c	8b 4d f0	 mov	 ecx, DWORD PTR _this$[ebp]
  0003f	81 c1 84 00 00
	00		 add	 ecx, 132		; 00000084H
  00045	ff 25 00 00 00
	00		 jmp	 DWORD PTR __imp_??1ioHashString@@QAE@XZ
__unwindfunclet$??1tagCostumeInfo@@QAE@XZ$6:
  0004b	8b 4d f0	 mov	 ecx, DWORD PTR _this$[ebp]
  0004e	81 c1 94 00 00
	00		 add	 ecx, 148		; 00000094H
  00054	ff 25 00 00 00
	00		 jmp	 DWORD PTR __imp_??1ioHashString@@QAE@XZ
__unwindfunclet$??1tagCostumeInfo@@QAE@XZ$7:
  0005a	8b 4d f0	 mov	 ecx, DWORD PTR _this$[ebp]
  0005d	81 c1 a8 00 00
	00		 add	 ecx, 168		; 000000a8H
  00063	ff 25 00 00 00
	00		 jmp	 DWORD PTR __imp_??1ioHashString@@QAE@XZ
__ehhandler$??1tagCostumeInfo@@QAE@XZ:
  00069	8b 54 24 08	 mov	 edx, DWORD PTR [esp+8]
  0006d	8d 42 0c	 lea	 eax, DWORD PTR [edx+12]
  00070	8b 4a ec	 mov	 ecx, DWORD PTR [edx-20]
  00073	33 c8		 xor	 ecx, eax
  00075	e8 00 00 00 00	 call	 @__security_check_cookie@4
  0007a	b8 00 00 00 00	 mov	 eax, OFFSET __ehfuncinfo$??1tagCostumeInfo@@QAE@XZ
  0007f	e9 00 00 00 00	 jmp	 ___CxxFrameHandler3
text$x	ENDS
??1tagCostumeInfo@@QAE@XZ ENDP				; tagCostumeInfo::~tagCostumeInfo
PUBLIC	?ChangeSkeleton@ioCreateChar@@QAEXABVioHashString@@@Z ; ioCreateChar::ChangeSkeleton
EXTRN	__imp_?SetSkeletonName@ioEntityGroup@@QAEXABVioHashString@@@Z:PROC
EXTRN	__imp_??4ioHashString@@QAEAAV0@ABV0@@Z:PROC
EXTRN	__imp_??8ioHashString@@QBE_NABV0@@Z:PROC
EXTRN	__imp_?IsEmpty@ioHashString@@QBE_NXZ:PROC
; Function compile flags: /Ogsp
; File d:\lost saga for developer\youtube\tutorial\source\src\lsclient\iocreatechar.cpp
;	COMDAT ?ChangeSkeleton@ioCreateChar@@QAEXABVioHashString@@@Z
_TEXT	SEGMENT
_rkSkeleton$ = 8					; size = 4
?ChangeSkeleton@ioCreateChar@@QAEXABVioHashString@@@Z PROC ; ioCreateChar::ChangeSkeleton, COMDAT
; _this$ = ecx

; 473  : {

  00000	55		 push	 ebp
  00001	8b ec		 mov	 ebp, esp
  00003	53		 push	 ebx

; 474  : 	if( rkSkeleton.IsEmpty() ) return;

  00004	8b 5d 08	 mov	 ebx, DWORD PTR _rkSkeleton$[ebp]
  00007	56		 push	 esi
  00008	8b f1		 mov	 esi, ecx
  0000a	8b cb		 mov	 ecx, ebx
  0000c	ff 15 00 00 00
	00		 call	 DWORD PTR __imp_?IsEmpty@ioHashString@@QBE_NXZ
  00012	84 c0		 test	 al, al
  00014	75 3f		 jne	 SHORT $LN2@ChangeSkel

; 475  : 	if( !m_pGrp || !m_pGrp->HasSkeleton() )	return;

  00016	83 7e 04 00	 cmp	 DWORD PTR [esi+4], 0
  0001a	74 39		 je	 SHORT $LN2@ChangeSkel
  0001c	8b 4e 04	 mov	 ecx, DWORD PTR [esi+4]
  0001f	83 c1 54	 add	 ecx, 84			; 00000054H
  00022	8b 01		 mov	 eax, DWORD PTR [ecx]
  00024	ff 50 0c	 call	 DWORD PTR [eax+12]
  00027	84 c0		 test	 al, al
  00029	74 2a		 je	 SHORT $LN2@ChangeSkel

; 476  : 	if( m_szChangeSkeleton == rkSkeleton ) return;

  0002b	57		 push	 edi
  0002c	53		 push	 ebx
  0002d	8d 8e 04 02 00
	00		 lea	 ecx, DWORD PTR [esi+516]
  00033	ff 15 00 00 00
	00		 call	 DWORD PTR __imp_??8ioHashString@@QBE_NABV0@@Z
  00039	84 c0		 test	 al, al
  0003b	75 17		 jne	 SHORT $LN7@ChangeSkel

; 477  : 
; 478  : 	m_szChangeSkeleton = rkSkeleton;

  0003d	53		 push	 ebx
  0003e	8d 8e 04 02 00
	00		 lea	 ecx, DWORD PTR [esi+516]
  00044	ff 15 00 00 00
	00		 call	 DWORD PTR __imp_??4ioHashString@@QAEAAV0@ABV0@@Z

; 479  : 	m_pGrp->SetSkeletonName( rkSkeleton );

  0004a	8b 4e 04	 mov	 ecx, DWORD PTR [esi+4]
  0004d	53		 push	 ebx
  0004e	ff 15 00 00 00
	00		 call	 DWORD PTR __imp_?SetSkeletonName@ioEntityGroup@@QAEXABVioHashString@@@Z
$LN7@ChangeSkel:
  00054	5f		 pop	 edi
$LN2@ChangeSkel:
  00055	5e		 pop	 esi
  00056	5b		 pop	 ebx

; 480  : }

  00057	5d		 pop	 ebp
  00058	c2 04 00	 ret	 4
?ChangeSkeleton@ioCreateChar@@QAEXABVioHashString@@@Z ENDP ; ioCreateChar::ChangeSkeleton
_TEXT	ENDS
PUBLIC	?SetSkinColor@ioCreateChar@@QAEXABU_D3DCOLORVALUE@@0@Z ; ioCreateChar::SetSkinColor
EXTRN	?ChangeSkinColor@Help@@YAXPAVioEntityGroup@@ABU_D3DCOLORVALUE@@1@Z:PROC ; Help::ChangeSkinColor
; Function compile flags: /Ogsp
;	COMDAT ?SetSkinColor@ioCreateChar@@QAEXABU_D3DCOLORVALUE@@0@Z
_TEXT	SEGMENT
_rkSkin$ = 8						; size = 4
_rkOutLine$ = 12					; size = 4
?SetSkinColor@ioCreateChar@@QAEXABU_D3DCOLORVALUE@@0@Z PROC ; ioCreateChar::SetSkinColor, COMDAT
; _this$ = ecx

; 483  : {

  00000	55		 push	 ebp
  00001	8b ec		 mov	 ebp, esp
  00003	56		 push	 esi

; 484  : 	m_SkinColor = rkSkin;

  00004	8b 75 08	 mov	 esi, DWORD PTR _rkSkin$[ebp]
  00007	57		 push	 edi
  00008	8d 41 20	 lea	 eax, DWORD PTR [ecx+32]
  0000b	8b f8		 mov	 edi, eax
  0000d	a5		 movsd
  0000e	a5		 movsd
  0000f	a5		 movsd
  00010	a5		 movsd

; 485  : 	m_SkinOutLineColor = rkOutLine;

  00011	8b 75 0c	 mov	 esi, DWORD PTR _rkOutLine$[ebp]
  00014	8d 51 30	 lea	 edx, DWORD PTR [ecx+48]
  00017	8b fa		 mov	 edi, edx
  00019	a5		 movsd
  0001a	a5		 movsd

; 486  : 	Help::ChangeSkinColor( m_pGrp, m_SkinColor, m_SkinOutLineColor );

  0001b	52		 push	 edx
  0001c	a5		 movsd
  0001d	50		 push	 eax
  0001e	ff 71 04	 push	 DWORD PTR [ecx+4]
  00021	a5		 movsd
  00022	e8 00 00 00 00	 call	 ?ChangeSkinColor@Help@@YAXPAVioEntityGroup@@ABU_D3DCOLORVALUE@@1@Z ; Help::ChangeSkinColor
  00027	83 c4 0c	 add	 esp, 12			; 0000000cH
  0002a	5f		 pop	 edi
  0002b	5e		 pop	 esi

; 487  : }

  0002c	5d		 pop	 ebp
  0002d	c2 08 00	 ret	 8
?SetSkinColor@ioCreateChar@@QAEXABU_D3DCOLORVALUE@@0@Z ENDP ; ioCreateChar::SetSkinColor
_TEXT	ENDS
PUBLIC	?SetHairColor@ioCreateChar@@QAEXABVioHashString@@ABU_D3DCOLORVALUE@@@Z ; ioCreateChar::SetHairColor
EXTRN	?ChangeColorTexAndOutLine@Help@@YAXPAVioEntity@@ABVioHashString@@PBU_D3DCOLORVALUE@@@Z:PROC ; Help::ChangeColorTexAndOutLine
EXTRN	__imp_?GetEntity@ioEntityGroup@@QAEPAVioEntity@@ABVioHashString@@@Z:PROC
; Function compile flags: /Ogsp
;	COMDAT ?SetHairColor@ioCreateChar@@QAEXABVioHashString@@ABU_D3DCOLORVALUE@@@Z
_TEXT	SEGMENT
tv167 = 8						; size = 4
_szHairColorTex$ = 8					; size = 4
_rkOutLIne$ = 12					; size = 4
?SetHairColor@ioCreateChar@@QAEXABVioHashString@@ABU_D3DCOLORVALUE@@@Z PROC ; ioCreateChar::SetHairColor, COMDAT
; _this$ = ecx

; 490  : {

  00000	55		 push	 ebp
  00001	8b ec		 mov	 ebp, esp
  00003	53		 push	 ebx
  00004	8b d9		 mov	 ebx, ecx

; 491  : 	if( !m_pGrp )	return;

  00006	83 7b 04 00	 cmp	 DWORD PTR [ebx+4], 0
  0000a	74 6b		 je	 SHORT $LN5@SetHairCol

; 492  : 
; 493  : 	m_HairColorTex = szHairColorTex;

  0000c	56		 push	 esi
  0000d	57		 push	 edi
  0000e	ff 75 08	 push	 DWORD PTR _szHairColorTex$[ebp]
  00011	8d 4b 40	 lea	 ecx, DWORD PTR [ebx+64]
  00014	ff 15 00 00 00
	00		 call	 DWORD PTR __imp_??4ioHashString@@QAEAAV0@ABV0@@Z

; 494  : 	m_HairOutLineColor = rkOutLIne;

  0001a	8b 75 0c	 mov	 esi, DWORD PTR _rkOutLIne$[ebp]
  0001d	8d 7b 50	 lea	 edi, DWORD PTR [ebx+80]
  00020	89 7d 08	 mov	 DWORD PTR tv167[ebp], edi
  00023	a5		 movsd
  00024	a5		 movsd
  00025	a5		 movsd
  00026	a5		 movsd

; 495  : 
; 496  : 	if( m_HairColorTex.IsEmpty() )	return;

  00027	8d 7b 40	 lea	 edi, DWORD PTR [ebx+64]
  0002a	8b cf		 mov	 ecx, edi
  0002c	ff 15 00 00 00
	00		 call	 DWORD PTR __imp_?IsEmpty@ioHashString@@QBE_NXZ
  00032	84 c0		 test	 al, al
  00034	75 3f		 jne	 SHORT $LN7@SetHairCol

; 497  : 
; 498  : 	ioEntity *pHair = m_pGrp->GetEntity( m_DefaultHairMesh );

  00036	8b 4b 04	 mov	 ecx, DWORD PTR [ebx+4]
  00039	8b 35 00 00 00
	00		 mov	 esi, DWORD PTR __imp_?GetEntity@ioEntityGroup@@QAEPAVioEntity@@ABVioHashString@@@Z
  0003f	8d 83 40 01 00
	00		 lea	 eax, DWORD PTR [ebx+320]
  00045	50		 push	 eax
  00046	ff d6		 call	 esi

; 499  : 	if( !pHair )

  00048	85 c0		 test	 eax, eax
  0004a	75 1c		 jne	 SHORT $LN1@SetHairCol

; 500  : 	{
; 501  : 		pHair = m_pGrp->GetEntity( m_DefaultBindHairMesh );

  0004c	8b 4b 04	 mov	 ecx, DWORD PTR [ebx+4]
  0004f	8d 83 50 01 00
	00		 lea	 eax, DWORD PTR [ebx+336]
  00055	50		 push	 eax
  00056	ff d6		 call	 esi

; 502  : 
; 503  : 		if( !pHair )

  00058	85 c0		 test	 eax, eax
  0005a	75 0c		 jne	 SHORT $LN1@SetHairCol

; 504  : 			pHair = m_pGrp->GetEntity( m_DefaultHalfHairMesh );

  0005c	8b 4b 04	 mov	 ecx, DWORD PTR [ebx+4]
  0005f	8d 83 60 01 00
	00		 lea	 eax, DWORD PTR [ebx+352]
  00065	50		 push	 eax
  00066	ff d6		 call	 esi
$LN1@SetHairCol:

; 505  : 	}
; 506  : 
; 507  : 	Help::ChangeColorTexAndOutLine( pHair, m_HairColorTex, &m_HairOutLineColor );

  00068	ff 75 08	 push	 DWORD PTR tv167[ebp]
  0006b	57		 push	 edi
  0006c	50		 push	 eax
  0006d	e8 00 00 00 00	 call	 ?ChangeColorTexAndOutLine@Help@@YAXPAVioEntity@@ABVioHashString@@PBU_D3DCOLORVALUE@@@Z ; Help::ChangeColorTexAndOutLine
  00072	83 c4 0c	 add	 esp, 12			; 0000000cH
$LN7@SetHairCol:
  00075	5f		 pop	 edi
  00076	5e		 pop	 esi
$LN5@SetHairCol:
  00077	5b		 pop	 ebx

; 508  : }

  00078	5d		 pop	 ebp
  00079	c2 08 00	 ret	 8
?SetHairColor@ioCreateChar@@QAEXABVioHashString@@ABU_D3DCOLORVALUE@@@Z ENDP ; ioCreateChar::SetHairColor
_TEXT	ENDS
PUBLIC	?SetBeardColor@ioCreateChar@@QAEXABVioHashString@@ABU_D3DCOLORVALUE@@@Z ; ioCreateChar::SetBeardColor
; Function compile flags: /Ogsp
;	COMDAT ?SetBeardColor@ioCreateChar@@QAEXABVioHashString@@ABU_D3DCOLORVALUE@@@Z
_TEXT	SEGMENT
_szBeardColorTex$ = 8					; size = 4
_rkOutLine$ = 12					; size = 4
?SetBeardColor@ioCreateChar@@QAEXABVioHashString@@ABU_D3DCOLORVALUE@@@Z PROC ; ioCreateChar::SetBeardColor, COMDAT
; _this$ = ecx

; 511  : {

  00000	55		 push	 ebp
  00001	8b ec		 mov	 ebp, esp
  00003	53		 push	 ebx
  00004	8b d9		 mov	 ebx, ecx

; 512  : 	if( !m_pGrp )	return;

  00006	83 7b 04 00	 cmp	 DWORD PTR [ebx+4], 0
  0000a	74 53		 je	 SHORT $LN1@SetBeardCo

; 513  : 
; 514  : 	m_BeardColorTex = szBeardColorTex;

  0000c	56		 push	 esi
  0000d	57		 push	 edi
  0000e	ff 75 08	 push	 DWORD PTR _szBeardColorTex$[ebp]
  00011	8d 4b 60	 lea	 ecx, DWORD PTR [ebx+96]
  00014	ff 15 00 00 00
	00		 call	 DWORD PTR __imp_??4ioHashString@@QAEAAV0@ABV0@@Z

; 515  : 	m_BeardOutLineColor = rkOutLine;

  0001a	8b 75 0c	 mov	 esi, DWORD PTR _rkOutLine$[ebp]
  0001d	8d 7b 70	 lea	 edi, DWORD PTR [ebx+112]
  00020	a5		 movsd
  00021	a5		 movsd
  00022	a5		 movsd
  00023	a5		 movsd

; 516  : 
; 517  : 	if( m_BeardColorTex.IsEmpty() )	return;

  00024	8d 73 60	 lea	 esi, DWORD PTR [ebx+96]
  00027	8b ce		 mov	 ecx, esi
  00029	ff 15 00 00 00
	00		 call	 DWORD PTR __imp_?IsEmpty@ioHashString@@QBE_NXZ
  0002f	84 c0		 test	 al, al
  00031	75 2a		 jne	 SHORT $LN6@SetBeardCo

; 518  : 
; 519  : 	if( !m_DefaultBeardMesh.IsEmpty() )

  00033	8d bb 80 01 00
	00		 lea	 edi, DWORD PTR [ebx+384]
  00039	8b cf		 mov	 ecx, edi
  0003b	ff 15 00 00 00
	00		 call	 DWORD PTR __imp_?IsEmpty@ioHashString@@QBE_NXZ
  00041	84 c0		 test	 al, al
  00043	75 18		 jne	 SHORT $LN6@SetBeardCo

; 520  : 	{
; 521  : 		Help::ChangeColorTexAndOutLine( m_pGrp->GetEntity( m_DefaultBeardMesh ),
; 522  : 										m_BeardColorTex,
; 523  : 										&m_BeardOutLineColor );

  00045	8b 4b 04	 mov	 ecx, DWORD PTR [ebx+4]
  00048	8d 43 70	 lea	 eax, DWORD PTR [ebx+112]
  0004b	50		 push	 eax
  0004c	56		 push	 esi
  0004d	57		 push	 edi
  0004e	ff 15 00 00 00
	00		 call	 DWORD PTR __imp_?GetEntity@ioEntityGroup@@QAEPAVioEntity@@ABVioHashString@@@Z
  00054	50		 push	 eax
  00055	e8 00 00 00 00	 call	 ?ChangeColorTexAndOutLine@Help@@YAXPAVioEntity@@ABVioHashString@@PBU_D3DCOLORVALUE@@@Z ; Help::ChangeColorTexAndOutLine
  0005a	83 c4 0c	 add	 esp, 12			; 0000000cH
$LN6@SetBeardCo:
  0005d	5f		 pop	 edi
  0005e	5e		 pop	 esi
$LN1@SetBeardCo:
  0005f	5b		 pop	 ebx

; 524  : 	}
; 525  : }

  00060	5d		 pop	 ebp
  00061	c2 08 00	 ret	 8
?SetBeardColor@ioCreateChar@@QAEXABVioHashString@@ABU_D3DCOLORVALUE@@@Z ENDP ; ioCreateChar::SetBeardColor
_TEXT	ENDS
PUBLIC	??_C@_0BK@NIMMICHM@ioCreateChar?3?3GetSlotItem?$AA@ ; `string'
PUBLIC	?GetSlotItem@ioCreateChar@@QAEPBVioItem@@H@Z	; ioCreateChar::GetSlotItem
EXTRN	?GetItemConst@ioItemMaker@@QBEPBVioItem@@KABVioHashString@@@Z:PROC ; ioItemMaker::GetItemConst
EXTRN	?GetSingleton@ioItemMaker@@SAAAV1@XZ:PROC	; ioItemMaker::GetSingleton
EXTRN	__imp_??0ioHashString@@QAE@PBD@Z:PROC
;	COMDAT ??_C@_0BK@NIMMICHM@ioCreateChar?3?3GetSlotItem?$AA@
CONST	SEGMENT
??_C@_0BK@NIMMICHM@ioCreateChar?3?3GetSlotItem?$AA@ DB 'ioCreateChar::Get'
	DB	'SlotItem', 00H				; `string'
CONST	ENDS
;	COMDAT xdata$x
xdata$x	SEGMENT
__unwindtable$?GetSlotItem@ioCreateChar@@QAEPBVioItem@@H@Z DD 0ffffffffH
	DD	FLAT:__unwindfunclet$?GetSlotItem@ioCreateChar@@QAEPBVioItem@@H@Z$0
__ehfuncinfo$?GetSlotItem@ioCreateChar@@QAEPBVioItem@@H@Z DD 019930522H
	DD	01H
	DD	FLAT:__unwindtable$?GetSlotItem@ioCreateChar@@QAEPBVioItem@@H@Z
	DD	2 DUP(00H)
	DD	2 DUP(00H)
	DD	00H
	DD	01H
; Function compile flags: /Ogsp
xdata$x	ENDS
;	COMDAT ?GetSlotItem@ioCreateChar@@QAEPBVioItem@@H@Z
_TEXT	SEGMENT
$T571285 = -28						; size = 16
__$EHRec$ = -12						; size = 12
_iSlot$ = 8						; size = 4
?GetSlotItem@ioCreateChar@@QAEPBVioItem@@H@Z PROC	; ioCreateChar::GetSlotItem, COMDAT
; _this$ = ecx

; 618  : {

  00000	6a 10		 push	 16			; 00000010H
  00002	b8 00 00 00 00	 mov	 eax, __ehhandler$?GetSlotItem@ioCreateChar@@QAEPBVioItem@@H@Z
  00007	e8 00 00 00 00	 call	 __EH_prolog3

; 619  : 	if( !COMPARE( iSlot, 0, MAX_CCS ) )

  0000c	8b 45 08	 mov	 eax, DWORD PTR _iSlot$[ebp]
  0000f	83 f8 03	 cmp	 eax, 3
  00012	77 46		 ja	 SHORT $LN2@GetSlotIte

; 621  : 
; 622  : 	if( m_ItemSlot[iSlot].dwItemCode == 0 )

  00014	6b c0 1c	 imul	 eax, 28			; 0000001cH
  00017	8d b4 08 80 00
	00 00		 lea	 esi, DWORD PTR [eax+ecx+128]
  0001e	83 3e 00	 cmp	 DWORD PTR [esi], 0

; 623  : 		return NULL;

  00021	74 37		 je	 SHORT $LN2@GetSlotIte

; 624  : 
; 625  : 	return g_ItemMaker.GetItemConst( m_ItemSlot[iSlot].dwItemCode, __FUNCTION__ );

  00023	68 00 00 00 00	 push	 OFFSET ??_C@_0BK@NIMMICHM@ioCreateChar?3?3GetSlotItem?$AA@
  00028	8d 4d e4	 lea	 ecx, DWORD PTR $T571285[ebp]
  0002b	ff 15 00 00 00
	00		 call	 DWORD PTR __imp_??0ioHashString@@QAE@PBD@Z
  00031	83 65 fc 00	 and	 DWORD PTR __$EHRec$[ebp+8], 0
  00035	8d 45 e4	 lea	 eax, DWORD PTR $T571285[ebp]
  00038	50		 push	 eax
  00039	ff 36		 push	 DWORD PTR [esi]
  0003b	e8 00 00 00 00	 call	 ?GetSingleton@ioItemMaker@@SAAAV1@XZ ; ioItemMaker::GetSingleton
  00040	8b c8		 mov	 ecx, eax
  00042	e8 00 00 00 00	 call	 ?GetItemConst@ioItemMaker@@QBEPBVioItem@@KABVioHashString@@@Z ; ioItemMaker::GetItemConst
  00047	83 4d fc ff	 or	 DWORD PTR __$EHRec$[ebp+8], -1
  0004b	8d 4d e4	 lea	 ecx, DWORD PTR $T571285[ebp]
  0004e	8b f0		 mov	 esi, eax
  00050	ff 15 00 00 00
	00		 call	 DWORD PTR __imp_??1ioHashString@@QAE@XZ
  00056	8b c6		 mov	 eax, esi
  00058	eb 02		 jmp	 SHORT $LN4@GetSlotIte
$LN2@GetSlotIte:

; 620  : 		return NULL;

  0005a	33 c0		 xor	 eax, eax
$LN4@GetSlotIte:

; 626  : }

  0005c	e8 00 00 00 00	 call	 __EH_epilog3
  00061	c2 04 00	 ret	 4
_TEXT	ENDS
;	COMDAT text$x
text$x	SEGMENT
__unwindfunclet$?GetSlotItem@ioCreateChar@@QAEPBVioItem@@H@Z$0:
  00000	8d 4d e4	 lea	 ecx, DWORD PTR $T571285[ebp]
  00003	ff 25 00 00 00
	00		 jmp	 DWORD PTR __imp_??1ioHashString@@QAE@XZ
__ehhandler$?GetSlotItem@ioCreateChar@@QAEPBVioItem@@H@Z:
  00009	8b 54 24 08	 mov	 edx, DWORD PTR [esp+8]
  0000d	8d 42 0c	 lea	 eax, DWORD PTR [edx+12]
  00010	8b 4a e0	 mov	 ecx, DWORD PTR [edx-32]
  00013	33 c8		 xor	 ecx, eax
  00015	e8 00 00 00 00	 call	 @__security_check_cookie@4
  0001a	b8 00 00 00 00	 mov	 eax, OFFSET __ehfuncinfo$?GetSlotItem@ioCreateChar@@QAEPBVioItem@@H@Z
  0001f	e9 00 00 00 00	 jmp	 ___CxxFrameHandler3
text$x	ENDS
?GetSlotItem@ioCreateChar@@QAEPBVioItem@@H@Z ENDP	; ioCreateChar::GetSlotItem
PUBLIC	??4tagCostumeInfo@@QAEAAU0@ABU0@@Z		; tagCostumeInfo::operator=
; Function compile flags: /Ogsp
;	COMDAT ??4tagCostumeInfo@@QAEAAU0@ABU0@@Z
_TEXT	SEGMENT
___that$ = 8						; size = 4
??4tagCostumeInfo@@QAEAAU0@ABU0@@Z PROC			; tagCostumeInfo::operator=, COMDAT
; _this$ = ecx
  00000	55		 push	 ebp
  00001	8b ec		 mov	 ebp, esp
  00003	8b 45 08	 mov	 eax, DWORD PTR ___that$[ebp]
  00006	53		 push	 ebx
  00007	8b d9		 mov	 ebx, ecx
  00009	8b 08		 mov	 ecx, DWORD PTR [eax]
  0000b	56		 push	 esi
  0000c	57		 push	 edi
  0000d	89 0b		 mov	 DWORD PTR [ebx], ecx
  0000f	8b 48 04	 mov	 ecx, DWORD PTR [eax+4]
  00012	89 4b 04	 mov	 DWORD PTR [ebx+4], ecx
  00015	8d 70 08	 lea	 esi, DWORD PTR [eax+8]
  00018	8d 7b 08	 lea	 edi, DWORD PTR [ebx+8]
  0001b	a5		 movsd
  0001c	a5		 movsd
  0001d	a5		 movsd
  0001e	83 c0 18	 add	 eax, 24			; 00000018H
  00021	a5		 movsd
  00022	8b 3d 00 00 00
	00		 mov	 edi, DWORD PTR __imp_??4ioHashString@@QAEAAV0@ABV0@@Z
  00028	50		 push	 eax
  00029	8d 4b 18	 lea	 ecx, DWORD PTR [ebx+24]
  0002c	ff d7		 call	 edi
  0002e	8b 75 08	 mov	 esi, DWORD PTR ___that$[ebp]
  00031	8d 46 28	 lea	 eax, DWORD PTR [esi+40]
  00034	50		 push	 eax
  00035	8d 4b 28	 lea	 ecx, DWORD PTR [ebx+40]
  00038	ff d7		 call	 edi
  0003a	8d 46 38	 lea	 eax, DWORD PTR [esi+56]
  0003d	50		 push	 eax
  0003e	8d 4b 38	 lea	 ecx, DWORD PTR [ebx+56]
  00041	ff d7		 call	 edi
  00043	8b 46 48	 mov	 eax, DWORD PTR [esi+72]
  00046	89 43 48	 mov	 DWORD PTR [ebx+72], eax
  00049	8b 46 4c	 mov	 eax, DWORD PTR [esi+76]
  0004c	89 43 4c	 mov	 DWORD PTR [ebx+76], eax
  0004f	8d 46 50	 lea	 eax, DWORD PTR [esi+80]
  00052	50		 push	 eax
  00053	8d 4b 50	 lea	 ecx, DWORD PTR [ebx+80]
  00056	ff d7		 call	 edi
  00058	8d 46 60	 lea	 eax, DWORD PTR [esi+96]
  0005b	50		 push	 eax
  0005c	8d 4b 60	 lea	 ecx, DWORD PTR [ebx+96]
  0005f	ff d7		 call	 edi
  00061	8b 46 70	 mov	 eax, DWORD PTR [esi+112]
  00064	89 43 70	 mov	 DWORD PTR [ebx+112], eax
  00067	8b 46 74	 mov	 eax, DWORD PTR [esi+116]
  0006a	89 43 74	 mov	 DWORD PTR [ebx+116], eax
  0006d	8b 46 78	 mov	 eax, DWORD PTR [esi+120]
  00070	89 43 78	 mov	 DWORD PTR [ebx+120], eax
  00073	8b 46 7c	 mov	 eax, DWORD PTR [esi+124]
  00076	89 43 7c	 mov	 DWORD PTR [ebx+124], eax
  00079	8b 86 80 00 00
	00		 mov	 eax, DWORD PTR [esi+128]
  0007f	89 83 80 00 00
	00		 mov	 DWORD PTR [ebx+128], eax
  00085	8d 86 84 00 00
	00		 lea	 eax, DWORD PTR [esi+132]
  0008b	50		 push	 eax
  0008c	8d 8b 84 00 00
	00		 lea	 ecx, DWORD PTR [ebx+132]
  00092	ff d7		 call	 edi
  00094	8d 86 94 00 00
	00		 lea	 eax, DWORD PTR [esi+148]
  0009a	50		 push	 eax
  0009b	8d 8b 94 00 00
	00		 lea	 ecx, DWORD PTR [ebx+148]
  000a1	ff d7		 call	 edi
  000a3	8b 86 a4 00 00
	00		 mov	 eax, DWORD PTR [esi+164]
  000a9	89 83 a4 00 00
	00		 mov	 DWORD PTR [ebx+164], eax
  000af	8d 86 a8 00 00
	00		 lea	 eax, DWORD PTR [esi+168]
  000b5	50		 push	 eax
  000b6	8d 8b a8 00 00
	00		 lea	 ecx, DWORD PTR [ebx+168]
  000bc	ff d7		 call	 edi
  000be	8d 86 b8 00 00
	00		 lea	 eax, DWORD PTR [esi+184]
  000c4	50		 push	 eax
  000c5	8d 8b b8 00 00
	00		 lea	 ecx, DWORD PTR [ebx+184]
  000cb	ff d7		 call	 edi
  000cd	8b 86 c8 00 00
	00		 mov	 eax, DWORD PTR [esi+200]
  000d3	89 83 c8 00 00
	00		 mov	 DWORD PTR [ebx+200], eax
  000d9	8b 86 cc 00 00
	00		 mov	 eax, DWORD PTR [esi+204]
  000df	89 83 cc 00 00
	00		 mov	 DWORD PTR [ebx+204], eax
  000e5	8b 86 d0 00 00
	00		 mov	 eax, DWORD PTR [esi+208]
  000eb	89 83 d0 00 00
	00		 mov	 DWORD PTR [ebx+208], eax
  000f1	8b 86 d4 00 00
	00		 mov	 eax, DWORD PTR [esi+212]
  000f7	89 83 d4 00 00
	00		 mov	 DWORD PTR [ebx+212], eax
  000fd	8b 86 d8 00 00
	00		 mov	 eax, DWORD PTR [esi+216]
  00103	89 83 d8 00 00
	00		 mov	 DWORD PTR [ebx+216], eax
  00109	8b c3		 mov	 eax, ebx
  0010b	5f		 pop	 edi
  0010c	5e		 pop	 esi
  0010d	5b		 pop	 ebx
  0010e	5d		 pop	 ebp
  0010f	c2 04 00	 ret	 4
??4tagCostumeInfo@@QAEAAU0@ABU0@@Z ENDP			; tagCostumeInfo::operator=
_TEXT	ENDS
PUBLIC	?GetEquipedItemCode@ioCreateChar@@QBEKH@Z	; ioCreateChar::GetEquipedItemCode
; Function compile flags: /Ogsp
;	COMDAT ?GetEquipedItemCode@ioCreateChar@@QBEKH@Z
_TEXT	SEGMENT
_iSlot$ = 8						; size = 4
?GetEquipedItemCode@ioCreateChar@@QBEKH@Z PROC		; ioCreateChar::GetEquipedItemCode, COMDAT
; _this$ = ecx

; 1380 : {

  00000	55		 push	 ebp
  00001	8b ec		 mov	 ebp, esp

; 1381 : 	if( COMPARE( iSlot, CCS_WEAPON, MAX_CCS ) )

  00003	8b 45 08	 mov	 eax, DWORD PTR _iSlot$[ebp]
  00006	83 f8 03	 cmp	 eax, 3
  00009	77 0c		 ja	 SHORT $LN1@GetEquiped

; 1382 : 		return m_ItemSlot[iSlot].dwItemCode;

  0000b	6b c0 1c	 imul	 eax, 28			; 0000001cH
  0000e	8b 84 08 80 00
	00 00		 mov	 eax, DWORD PTR [eax+ecx+128]
  00015	eb 02		 jmp	 SHORT $LN2@GetEquiped
$LN1@GetEquiped:

; 1383 : 
; 1384 : 	return 0;

  00017	33 c0		 xor	 eax, eax
$LN2@GetEquiped:

; 1385 : }

  00019	5d		 pop	 ebp
  0001a	c2 04 00	 ret	 4
?GetEquipedItemCode@ioCreateChar@@QBEKH@Z ENDP		; ioCreateChar::GetEquipedItemCode
_TEXT	ENDS
PUBLIC	?GetClassType@ioCreateChar@@QAEHXZ		; ioCreateChar::GetClassType
; Function compile flags: /Ogsp
;	COMDAT ?GetClassType@ioCreateChar@@QAEHXZ
_TEXT	SEGMENT
?GetClassType@ioCreateChar@@QAEHXZ PROC			; ioCreateChar::GetClassType, COMDAT
; _this$ = ecx

; 1389 : 	int iClassType = m_ItemSlot[CCS_WEAPON].dwItemCode % 1000;

  00000	8b 81 80 00 00
	00		 mov	 eax, DWORD PTR [ecx+128]
  00006	33 d2		 xor	 edx, edx
  00008	b9 e8 03 00 00	 mov	 ecx, 1000		; 000003e8H
  0000d	f7 f1		 div	 ecx

; 1390 : 	
; 1391 : 	return iClassType;

  0000f	8b c2		 mov	 eax, edx

; 1392 : }

  00011	c3		 ret	 0
?GetClassType@ioCreateChar@@QAEHXZ ENDP			; ioCreateChar::GetClassType
_TEXT	ENDS
PUBLIC	?UpdateBound@ioCreateChar@@IAEXXZ		; ioCreateChar::UpdateBound
EXTRN	__imp_?SetNull@ioOrientBox@@QAEXXZ:PROC
EXTRN	__imp_?Transform@ioOrientBox@@QAEXABUD3DXVECTOR3@@0ABUD3DXQUATERNION@@@Z:PROC
EXTRN	__imp_?GetCollisionBox@ioEntityGroup@@QBEABVioOrientBox@@XZ:PROC
; Function compile flags: /Ogsp
;	COMDAT ?UpdateBound@ioCreateChar@@IAEXXZ
_TEXT	SEGMENT
tv208 = -4						; size = 4
?UpdateBound@ioCreateChar@@IAEXXZ PROC			; ioCreateChar::UpdateBound, COMDAT
; _this$ = ecx

; 1464 : {

  00000	55		 push	 ebp
  00001	8b ec		 mov	 ebp, esp
  00003	51		 push	 ecx
  00004	53		 push	 ebx
  00005	57		 push	 edi
  00006	8b f9		 mov	 edi, ecx

; 1465 : 	if( m_pGrp && m_pGrp->IsAttached() )

  00008	8b 4f 04	 mov	 ecx, DWORD PTR [edi+4]
  0000b	85 c9		 test	 ecx, ecx
  0000d	74 58		 je	 SHORT $LN3@UpdateBoun
  0000f	8b 01		 mov	 eax, DWORD PTR [ecx]
  00011	ff 50 3c	 call	 DWORD PTR [eax+60]
  00014	84 c0		 test	 al, al
  00016	74 4f		 je	 SHORT $LN3@UpdateBoun

; 1466 : 	{
; 1467 : 		ioSceneNode *pNode = m_pGrp->GetParentSceneNode();

  00018	8b 4f 04	 mov	 ecx, DWORD PTR [edi+4]
  0001b	8b 01		 mov	 eax, DWORD PTR [ecx]
  0001d	ff 50 34	 call	 DWORD PTR [eax+52]
  00020	8b d8		 mov	 ebx, eax

; 1468 : 		if( !pNode )

  00022	85 db		 test	 ebx, ebx
  00024	74 4d		 je	 SHORT $LN1@UpdateBoun

; 1469 : 			return;
; 1470 : 		m_WorldCollisionBox = m_pGrp->GetCollisionBox();

  00026	8b 4f 04	 mov	 ecx, DWORD PTR [edi+4]
  00029	56		 push	 esi
  0002a	ff 15 00 00 00
	00		 call	 DWORD PTR __imp_?GetCollisionBox@ioEntityGroup@@QBEABVioOrientBox@@XZ
  00030	6a 11		 push	 17			; 00000011H
  00032	81 c7 b0 01 00
	00		 add	 edi, 432		; 000001b0H
  00038	8b f0		 mov	 esi, eax
  0003a	59		 pop	 ecx
  0003b	89 7d fc	 mov	 DWORD PTR tv208[ebp], edi
  0003e	f3 a5		 rep movsd

; 1471 : 		m_WorldCollisionBox.Transform( pNode->GetDerivedPosition(),
; 1472 : 									   pNode->GetDerivedScale(),
; 1473 : 									   pNode->GetDerivedOrientation() );

  00040	8b 03		 mov	 eax, DWORD PTR [ebx]
  00042	8b cb		 mov	 ecx, ebx
  00044	ff 50 78	 call	 DWORD PTR [eax+120]
  00047	50		 push	 eax
  00048	8b 03		 mov	 eax, DWORD PTR [ebx]
  0004a	8b cb		 mov	 ecx, ebx
  0004c	ff 90 80 00 00
	00		 call	 DWORD PTR [eax+128]
  00052	50		 push	 eax
  00053	8b 03		 mov	 eax, DWORD PTR [ebx]
  00055	8b cb		 mov	 ecx, ebx
  00057	ff 50 7c	 call	 DWORD PTR [eax+124]
  0005a	8b 4d fc	 mov	 ecx, DWORD PTR tv208[ebp]
  0005d	50		 push	 eax
  0005e	ff 15 00 00 00
	00		 call	 DWORD PTR __imp_?Transform@ioOrientBox@@QAEXABUD3DXVECTOR3@@0ABUD3DXQUATERNION@@@Z
  00064	5e		 pop	 esi

; 1474 : 	}
; 1475 : 	else

  00065	eb 0c		 jmp	 SHORT $LN1@UpdateBoun
$LN3@UpdateBoun:

; 1476 : 	{
; 1477 : 		m_WorldCollisionBox.SetNull();

  00067	8d 8f b0 01 00
	00		 lea	 ecx, DWORD PTR [edi+432]
  0006d	ff 15 00 00 00
	00		 call	 DWORD PTR __imp_?SetNull@ioOrientBox@@QAEXXZ
$LN1@UpdateBoun:
  00073	5f		 pop	 edi
  00074	5b		 pop	 ebx

; 1478 : 	}
; 1479 : }

  00075	c9		 leave
  00076	c3		 ret	 0
?UpdateBound@ioCreateChar@@IAEXXZ ENDP			; ioCreateChar::UpdateBound
_TEXT	ENDS
PUBLIC	?SetPosition@ioCreateChar@@QAEXABUD3DXVECTOR3@@@Z ; ioCreateChar::SetPosition
; Function compile flags: /Ogsp
;	COMDAT ?SetPosition@ioCreateChar@@QAEXABUD3DXVECTOR3@@@Z
_TEXT	SEGMENT
_vPos$ = 8						; size = 4
?SetPosition@ioCreateChar@@QAEXABUD3DXVECTOR3@@@Z PROC	; ioCreateChar::SetPosition, COMDAT
; _this$ = ecx

; 1487 : {

  00000	55		 push	 ebp
  00001	8b ec		 mov	 ebp, esp

; 1488 : 	ioSceneNode *pSNode = m_pGrp->GetParentSceneNode();

  00003	8b 49 04	 mov	 ecx, DWORD PTR [ecx+4]
  00006	8b 01		 mov	 eax, DWORD PTR [ecx]
  00008	ff 50 34	 call	 DWORD PTR [eax+52]

; 1489 : 	if( pSNode )

  0000b	85 c0		 test	 eax, eax
  0000d	74 08		 je	 SHORT $LN1@SetPositio

; 1490 : 	{
; 1491 : 		pSNode->SetPosition( vPos );

  0000f	8b 10		 mov	 edx, DWORD PTR [eax]
  00011	8b c8		 mov	 ecx, eax

; 1492 : 	}
; 1493 : }

  00013	5d		 pop	 ebp

; 1490 : 	{
; 1491 : 		pSNode->SetPosition( vPos );

  00014	ff 62 14	 jmp	 DWORD PTR [edx+20]
$LN1@SetPositio:

; 1492 : 	}
; 1493 : }

  00017	5d		 pop	 ebp
  00018	c2 04 00	 ret	 4
?SetPosition@ioCreateChar@@QAEXABUD3DXVECTOR3@@@Z ENDP	; ioCreateChar::SetPosition
_TEXT	ENDS
PUBLIC	?RotateX@ioCreateChar@@QAEXM@Z			; ioCreateChar::RotateX
; Function compile flags: /Ogsp
;	COMDAT ?RotateX@ioCreateChar@@QAEXM@Z
_TEXT	SEGMENT
_fPitch$ = 8						; size = 4
?RotateX@ioCreateChar@@QAEXM@Z PROC			; ioCreateChar::RotateX, COMDAT
; _this$ = ecx

; 1518 : {

  00000	55		 push	 ebp
  00001	8b ec		 mov	 ebp, esp

; 1519 : 	ioSceneNode *pSNode = m_pGrp->GetParentSceneNode();

  00003	8b 49 04	 mov	 ecx, DWORD PTR [ecx+4]
  00006	8b 01		 mov	 eax, DWORD PTR [ecx]
  00008	ff 50 34	 call	 DWORD PTR [eax+52]

; 1520 : 	if( pSNode )

  0000b	85 c0		 test	 eax, eax
  0000d	74 14		 je	 SHORT $LN1@RotateX

; 1521 : 	{
; 1522 : 		pSNode->PitchX( fPitch );

  0000f	f3 0f 10 45 08	 movss	 xmm0, DWORD PTR _fPitch$[ebp]
  00014	8b 10		 mov	 edx, DWORD PTR [eax]
  00016	6a 01		 push	 1
  00018	51		 push	 ecx
  00019	8b c8		 mov	 ecx, eax
  0001b	f3 0f 11 04 24	 movss	 DWORD PTR [esp], xmm0
  00020	ff 52 44	 call	 DWORD PTR [edx+68]
$LN1@RotateX:

; 1523 : 	}
; 1524 : }

  00023	5d		 pop	 ebp
  00024	c2 04 00	 ret	 4
?RotateX@ioCreateChar@@QAEXM@Z ENDP			; ioCreateChar::RotateX
_TEXT	ENDS
PUBLIC	?RotateY@ioCreateChar@@QAEXM@Z			; ioCreateChar::RotateY
; Function compile flags: /Ogsp
;	COMDAT ?RotateY@ioCreateChar@@QAEXM@Z
_TEXT	SEGMENT
_fYaw$ = 8						; size = 4
?RotateY@ioCreateChar@@QAEXM@Z PROC			; ioCreateChar::RotateY, COMDAT
; _this$ = ecx

; 1527 : {

  00000	55		 push	 ebp
  00001	8b ec		 mov	 ebp, esp

; 1528 : 	ioSceneNode *pSNode = m_pGrp->GetParentSceneNode();

  00003	8b 49 04	 mov	 ecx, DWORD PTR [ecx+4]
  00006	8b 01		 mov	 eax, DWORD PTR [ecx]
  00008	ff 50 34	 call	 DWORD PTR [eax+52]

; 1529 : 	if( pSNode )

  0000b	85 c0		 test	 eax, eax
  0000d	74 14		 je	 SHORT $LN1@RotateY

; 1530 : 	{
; 1531 : 		pSNode->YawY( fYaw );

  0000f	f3 0f 10 45 08	 movss	 xmm0, DWORD PTR _fYaw$[ebp]
  00014	8b 10		 mov	 edx, DWORD PTR [eax]
  00016	6a 01		 push	 1
  00018	51		 push	 ecx
  00019	8b c8		 mov	 ecx, eax
  0001b	f3 0f 11 04 24	 movss	 DWORD PTR [esp], xmm0
  00020	ff 52 48	 call	 DWORD PTR [edx+72]
$LN1@RotateY:

; 1532 : 	}
; 1533 : }

  00023	5d		 pop	 ebp
  00024	c2 04 00	 ret	 4
?RotateY@ioCreateChar@@QAEXM@Z ENDP			; ioCreateChar::RotateY
_TEXT	ENDS
PUBLIC	?SetScale@ioCreateChar@@QAEXABUD3DXVECTOR3@@@Z	; ioCreateChar::SetScale
; Function compile flags: /Ogsp
;	COMDAT ?SetScale@ioCreateChar@@QAEXABUD3DXVECTOR3@@@Z
_TEXT	SEGMENT
_vScale$ = 8						; size = 4
?SetScale@ioCreateChar@@QAEXABUD3DXVECTOR3@@@Z PROC	; ioCreateChar::SetScale, COMDAT
; _this$ = ecx

; 1541 : {

  00000	55		 push	 ebp
  00001	8b ec		 mov	 ebp, esp

; 1542 : 	ioSceneNode *pSNode = m_pGrp->GetParentSceneNode();

  00003	8b 49 04	 mov	 ecx, DWORD PTR [ecx+4]
  00006	8b 01		 mov	 eax, DWORD PTR [ecx]
  00008	ff 50 34	 call	 DWORD PTR [eax+52]

; 1543 : 	if( pSNode )

  0000b	85 c0		 test	 eax, eax
  0000d	74 08		 je	 SHORT $LN1@SetScale

; 1544 : 	{
; 1545 : 		pSNode->SetScale( vScale );

  0000f	8b 10		 mov	 edx, DWORD PTR [eax]
  00011	8b c8		 mov	 ecx, eax

; 1546 : 	}
; 1547 : }

  00013	5d		 pop	 ebp

; 1544 : 	{
; 1545 : 		pSNode->SetScale( vScale );

  00014	ff 62 20	 jmp	 DWORD PTR [edx+32]
$LN1@SetScale:

; 1546 : 	}
; 1547 : }

  00017	5d		 pop	 ebp
  00018	c2 04 00	 ret	 4
?SetScale@ioCreateChar@@QAEXABUD3DXVECTOR3@@@Z ENDP	; ioCreateChar::SetScale
_TEXT	ENDS
PUBLIC	__$ArrayPad$
PUBLIC	?SetScale@ioCreateChar@@QAEXMMM@Z		; ioCreateChar::SetScale
EXTRN	___security_cookie:DWORD
; Function compile flags: /Ogsp
;	COMDAT ?SetScale@ioCreateChar@@QAEXMMM@Z
_TEXT	SEGMENT
$T567539 = -16						; size = 12
__$ArrayPad$ = -4					; size = 4
_fXScale$ = 8						; size = 4
_fYScale$ = 12						; size = 4
_fZScale$ = 16						; size = 4
?SetScale@ioCreateChar@@QAEXMMM@Z PROC			; ioCreateChar::SetScale, COMDAT
; _this$ = ecx

; 1550 : {

  00000	55		 push	 ebp
  00001	8b ec		 mov	 ebp, esp
  00003	83 ec 10	 sub	 esp, 16			; 00000010H
  00006	a1 00 00 00 00	 mov	 eax, DWORD PTR ___security_cookie
  0000b	33 c5		 xor	 eax, ebp
  0000d	89 45 fc	 mov	 DWORD PTR __$ArrayPad$[ebp], eax
  00010	f3 0f 10 45 08	 movss	 xmm0, DWORD PTR _fXScale$[ebp]

; 1551 : 	SetScale( D3DXVECTOR3( fXScale, fYScale, fZScale ) );

  00015	f3 0f 11 45 f0	 movss	 DWORD PTR $T567539[ebp], xmm0
  0001a	f3 0f 10 45 0c	 movss	 xmm0, DWORD PTR _fYScale$[ebp]
  0001f	8d 45 f0	 lea	 eax, DWORD PTR $T567539[ebp]
  00022	f3 0f 11 45 f4	 movss	 DWORD PTR $T567539[ebp+4], xmm0
  00027	f3 0f 10 45 10	 movss	 xmm0, DWORD PTR _fZScale$[ebp]
  0002c	50		 push	 eax
  0002d	f3 0f 11 45 f8	 movss	 DWORD PTR $T567539[ebp+8], xmm0
  00032	e8 00 00 00 00	 call	 ?SetScale@ioCreateChar@@QAEXABUD3DXVECTOR3@@@Z ; ioCreateChar::SetScale

; 1552 : }

  00037	8b 4d fc	 mov	 ecx, DWORD PTR __$ArrayPad$[ebp]
  0003a	33 cd		 xor	 ecx, ebp
  0003c	e8 00 00 00 00	 call	 @__security_check_cookie@4
  00041	c9		 leave
  00042	c2 0c 00	 ret	 12			; 0000000cH
?SetScale@ioCreateChar@@QAEXMMM@Z ENDP			; ioCreateChar::SetScale
_TEXT	ENDS
PUBLIC	__real@3f800000
PUBLIC	?SetActionAni@ioCreateChar@@QAEXABVioHashString@@MM@Z ; ioCreateChar::SetActionAni
EXTRN	__imp_?SetActionAni@ioEntityGroup@@QAE_NABVioHashString@@MMMMMM_N1@Z:PROC
EXTRN	__imp_?ClearAllLoopAni@ioEntityGroup@@QAEXM_N@Z:PROC
EXTRN	__imp_?ClearAllActionAni@ioEntityGroup@@QAEXM_N@Z:PROC
;	COMDAT __real@3f800000
CONST	SEGMENT
__real@3f800000 DD 03f800000r			; 1
; Function compile flags: /Ogsp
CONST	ENDS
;	COMDAT ?SetActionAni@ioCreateChar@@QAEXABVioHashString@@MM@Z
_TEXT	SEGMENT
_szAniName$ = 8						; size = 4
_fFadeIn$ = 12						; size = 4
_fFadeOut$ = 16						; size = 4
?SetActionAni@ioCreateChar@@QAEXABVioHashString@@MM@Z PROC ; ioCreateChar::SetActionAni, COMDAT
; _this$ = ecx

; 1555 : {

  00000	55		 push	 ebp
  00001	8b ec		 mov	 ebp, esp
  00003	56		 push	 esi
  00004	8b f1		 mov	 esi, ecx

; 1556 : 	if( m_pGrp )

  00006	8b 4e 04	 mov	 ecx, DWORD PTR [esi+4]
  00009	85 c9		 test	 ecx, ecx
  0000b	74 70		 je	 SHORT $LN1@SetActionA

; 1557 : 	{
; 1558 : 		m_pGrp->ClearAllActionAni( 0.0f );

  0000d	0f 57 c0	 xorps	 xmm0, xmm0
  00010	6a 00		 push	 0
  00012	51		 push	 ecx
  00013	f3 0f 11 04 24	 movss	 DWORD PTR [esp], xmm0
  00018	ff 15 00 00 00
	00		 call	 DWORD PTR __imp_?ClearAllActionAni@ioEntityGroup@@QAEXM_N@Z

; 1559 : 		m_pGrp->ClearAllLoopAni( 0.0f );

  0001e	0f 57 c0	 xorps	 xmm0, xmm0
  00021	6a 00		 push	 0
  00023	51		 push	 ecx
  00024	8b 4e 04	 mov	 ecx, DWORD PTR [esi+4]
  00027	f3 0f 11 04 24	 movss	 DWORD PTR [esp], xmm0
  0002c	ff 15 00 00 00
	00		 call	 DWORD PTR __imp_?ClearAllLoopAni@ioEntityGroup@@QAEXM_N@Z

; 1560 : 
; 1561 : 		m_pGrp->SetActionAni( szAniName, fFadeIn, fFadeOut );

  00032	0f 57 c0	 xorps	 xmm0, xmm0
  00035	8b 4e 04	 mov	 ecx, DWORD PTR [esi+4]
  00038	6a 01		 push	 1
  0003a	6a 00		 push	 0
  0003c	83 ec 18	 sub	 esp, 24			; 00000018H
  0003f	f3 0f 11 44 24
	14		 movss	 DWORD PTR [esp+20], xmm0
  00045	f3 0f 11 44 24
	10		 movss	 DWORD PTR [esp+16], xmm0
  0004b	f3 0f 10 05 00
	00 00 00	 movss	 xmm0, DWORD PTR __real@3f800000
  00053	f3 0f 11 44 24
	0c		 movss	 DWORD PTR [esp+12], xmm0
  00059	f3 0f 11 44 24
	08		 movss	 DWORD PTR [esp+8], xmm0
  0005f	f3 0f 10 45 10	 movss	 xmm0, DWORD PTR _fFadeOut$[ebp]
  00064	f3 0f 11 44 24
	04		 movss	 DWORD PTR [esp+4], xmm0
  0006a	f3 0f 10 45 0c	 movss	 xmm0, DWORD PTR _fFadeIn$[ebp]
  0006f	f3 0f 11 04 24	 movss	 DWORD PTR [esp], xmm0
  00074	ff 75 08	 push	 DWORD PTR _szAniName$[ebp]
  00077	ff 15 00 00 00
	00		 call	 DWORD PTR __imp_?SetActionAni@ioEntityGroup@@QAE_NABVioHashString@@MMMMMM_N1@Z
$LN1@SetActionA:
  0007d	5e		 pop	 esi

; 1562 : 	}
; 1563 : }

  0007e	5d		 pop	 ebp
  0007f	c2 0c 00	 ret	 12			; 0000000cH
?SetActionAni@ioCreateChar@@QAEXABVioHashString@@MM@Z ENDP ; ioCreateChar::SetActionAni
_TEXT	ENDS
PUBLIC	__real@4f800000
PUBLIC	?SetLoopAni@ioCreateChar@@QAEXABVioHashString@@M@Z ; ioCreateChar::SetLoopAni
EXTRN	__imp_?SetLoopAni@ioEntityGroup@@QAE_NABVioHashString@@MMMM@Z:PROC
;	COMDAT __real@4f800000
; File d:\lost saga for developer\youtube\tutorial\source\src\lsclient\stdafx.h
CONST	SEGMENT
__real@4f800000 DD 04f800000r			; 4.29497e+009
; Function compile flags: /Ogsp
; File d:\lost saga for developer\youtube\tutorial\source\src\lsclient\iocreatechar.cpp
CONST	ENDS
;	COMDAT ?SetLoopAni@ioCreateChar@@QAEXABVioHashString@@M@Z
_TEXT	SEGMENT
_szAniName$ = 8						; size = 4
tv142 = 12						; size = 4
tv140 = 12						; size = 4
tv90 = 12						; size = 4
_fFadeIn$ = 12						; size = 4
?SetLoopAni@ioCreateChar@@QAEXABVioHashString@@M@Z PROC	; ioCreateChar::SetLoopAni, COMDAT
; _this$ = ecx

; 1566 : {

  00000	55		 push	 ebp
  00001	8b ec		 mov	 ebp, esp
  00003	56		 push	 esi
  00004	8b f1		 mov	 esi, ecx

; 1567 : 	if( m_pGrp )

  00006	8b 4e 04	 mov	 ecx, DWORD PTR [esi+4]
  00009	85 c9		 test	 ecx, ecx
  0000b	0f 84 9b 00 00
	00		 je	 $LN1@SetLoopAni

; 1568 : 	{
; 1569 : 		m_pGrp->ClearAllActionAni( 0.0f );

  00011	0f 57 c0	 xorps	 xmm0, xmm0
  00014	6a 00		 push	 0
  00016	51		 push	 ecx
  00017	f3 0f 11 04 24	 movss	 DWORD PTR [esp], xmm0
  0001c	ff 15 00 00 00
	00		 call	 DWORD PTR __imp_?ClearAllActionAni@ioEntityGroup@@QAEXM_N@Z

; 1570 : 		m_pGrp->ClearAllLoopAni( 0.0f );

  00022	0f 57 c0	 xorps	 xmm0, xmm0
  00025	6a 00		 push	 0
  00027	51		 push	 ecx
  00028	8b 4e 04	 mov	 ecx, DWORD PTR [esi+4]
  0002b	f3 0f 11 04 24	 movss	 DWORD PTR [esp], xmm0
  00030	ff 15 00 00 00
	00		 call	 DWORD PTR __imp_?ClearAllLoopAni@ioEntityGroup@@QAEXM_N@Z

; 1571 : 
; 1572 : 		m_pGrp->SetLoopAni( szAniName, fFadeIn );

  00036	0f 57 c0	 xorps	 xmm0, xmm0
  00039	8b 4e 04	 mov	 ecx, DWORD PTR [esi+4]
  0003c	83 ec 10	 sub	 esp, 16			; 00000010H
  0003f	f3 0f 11 44 24
	0c		 movss	 DWORD PTR [esp+12], xmm0
  00045	f3 0f 10 05 00
	00 00 00	 movss	 xmm0, DWORD PTR __real@3f800000
  0004d	f3 0f 11 44 24
	08		 movss	 DWORD PTR [esp+8], xmm0
  00053	f3 0f 11 44 24
	04		 movss	 DWORD PTR [esp+4], xmm0
  00059	f3 0f 10 45 0c	 movss	 xmm0, DWORD PTR _fFadeIn$[ebp]
  0005e	f3 0f 11 04 24	 movss	 DWORD PTR [esp], xmm0
  00063	ff 75 08	 push	 DWORD PTR _szAniName$[ebp]
  00066	ff 15 00 00 00
	00		 call	 DWORD PTR __imp_?SetLoopAni@ioEntityGroup@@QAE_NABVioHashString@@MMMM@Z

; 1573 : 		m_pGrp->Update( FLOAT0001 );

  0006c	b8 01 00 00 00	 mov	 eax, 1
  00071	8b d0		 mov	 edx, eax
  00073	b8 e8 03 00 00	 mov	 eax, 1000		; 000003e8H
  00078	8b 4e 04	 mov	 ecx, DWORD PTR [esi+4]
  0007b	8b 31		 mov	 esi, DWORD PTR [ecx]
  0007d	89 55 0c	 mov	 DWORD PTR tv90[ebp], edx
  00080	db 45 0c	 fild	 DWORD PTR tv90[ebp]
  00083	85 d2		 test	 edx, edx
  00085	79 06		 jns	 SHORT $LN8@SetLoopAni
  00087	d8 05 00 00 00
	00		 fadd	 DWORD PTR __real@4f800000
$LN8@SetLoopAni:
  0008d	89 45 0c	 mov	 DWORD PTR tv140[ebp], eax
  00090	db 45 0c	 fild	 DWORD PTR tv140[ebp]
  00093	85 c0		 test	 eax, eax
  00095	79 06		 jns	 SHORT $LN9@SetLoopAni
  00097	d8 05 00 00 00
	00		 fadd	 DWORD PTR __real@4f800000
$LN9@SetLoopAni:
  0009d	de f9		 fdivp	 ST(1), ST(0)
  0009f	51		 push	 ecx
  000a0	d9 5d 0c	 fstp	 DWORD PTR tv142[ebp]
  000a3	d9 45 0c	 fld	 DWORD PTR tv142[ebp]
  000a6	d9 1c 24	 fstp	 DWORD PTR [esp]
  000a9	ff 56 40	 call	 DWORD PTR [esi+64]
$LN1@SetLoopAni:
  000ac	5e		 pop	 esi

; 1574 : 	}
; 1575 : }

  000ad	5d		 pop	 ebp
  000ae	c2 08 00	 ret	 8
?SetLoopAni@ioCreateChar@@QAEXABVioHashString@@M@Z ENDP	; ioCreateChar::SetLoopAni
_TEXT	ENDS
PUBLIC	?SetLoopAni@ioCreateChar@@IAEXHM@Z		; ioCreateChar::SetLoopAni
EXTRN	__imp_?SetLoopAni@ioEntityGroup@@QAE_NHMMMM@Z:PROC
; Function compile flags: /Ogsp
;	COMDAT ?SetLoopAni@ioCreateChar@@IAEXHM@Z
_TEXT	SEGMENT
_iAniID$ = 8						; size = 4
tv142 = 12						; size = 4
tv140 = 12						; size = 4
tv90 = 12						; size = 4
_fFadeIn$ = 12						; size = 4
?SetLoopAni@ioCreateChar@@IAEXHM@Z PROC			; ioCreateChar::SetLoopAni, COMDAT
; _this$ = ecx

; 1578 : {

  00000	55		 push	 ebp
  00001	8b ec		 mov	 ebp, esp
  00003	56		 push	 esi
  00004	8b f1		 mov	 esi, ecx

; 1579 : 	if( m_pGrp )

  00006	8b 4e 04	 mov	 ecx, DWORD PTR [esi+4]
  00009	85 c9		 test	 ecx, ecx
  0000b	0f 84 9b 00 00
	00		 je	 $LN1@SetLoopAni@2

; 1580 : 	{
; 1581 : 		m_pGrp->ClearAllActionAni( 0.0f );

  00011	0f 57 c0	 xorps	 xmm0, xmm0
  00014	6a 00		 push	 0
  00016	51		 push	 ecx
  00017	f3 0f 11 04 24	 movss	 DWORD PTR [esp], xmm0
  0001c	ff 15 00 00 00
	00		 call	 DWORD PTR __imp_?ClearAllActionAni@ioEntityGroup@@QAEXM_N@Z

; 1582 : 		m_pGrp->ClearAllLoopAni( 0.0f );

  00022	0f 57 c0	 xorps	 xmm0, xmm0
  00025	6a 00		 push	 0
  00027	51		 push	 ecx
  00028	8b 4e 04	 mov	 ecx, DWORD PTR [esi+4]
  0002b	f3 0f 11 04 24	 movss	 DWORD PTR [esp], xmm0
  00030	ff 15 00 00 00
	00		 call	 DWORD PTR __imp_?ClearAllLoopAni@ioEntityGroup@@QAEXM_N@Z

; 1583 : 
; 1584 : 		m_pGrp->SetLoopAni( iAniID, fFadeIn );

  00036	0f 57 c0	 xorps	 xmm0, xmm0
  00039	8b 4e 04	 mov	 ecx, DWORD PTR [esi+4]
  0003c	83 ec 10	 sub	 esp, 16			; 00000010H
  0003f	f3 0f 11 44 24
	0c		 movss	 DWORD PTR [esp+12], xmm0
  00045	f3 0f 10 05 00
	00 00 00	 movss	 xmm0, DWORD PTR __real@3f800000
  0004d	f3 0f 11 44 24
	08		 movss	 DWORD PTR [esp+8], xmm0
  00053	f3 0f 11 44 24
	04		 movss	 DWORD PTR [esp+4], xmm0
  00059	f3 0f 10 45 0c	 movss	 xmm0, DWORD PTR _fFadeIn$[ebp]
  0005e	f3 0f 11 04 24	 movss	 DWORD PTR [esp], xmm0
  00063	ff 75 08	 push	 DWORD PTR _iAniID$[ebp]
  00066	ff 15 00 00 00
	00		 call	 DWORD PTR __imp_?SetLoopAni@ioEntityGroup@@QAE_NHMMMM@Z

; 1585 : 		m_pGrp->Update( FLOAT0001 );

  0006c	b8 01 00 00 00	 mov	 eax, 1
  00071	8b d0		 mov	 edx, eax
  00073	b8 e8 03 00 00	 mov	 eax, 1000		; 000003e8H
  00078	8b 4e 04	 mov	 ecx, DWORD PTR [esi+4]
  0007b	8b 31		 mov	 esi, DWORD PTR [ecx]
  0007d	89 55 0c	 mov	 DWORD PTR tv90[ebp], edx
  00080	db 45 0c	 fild	 DWORD PTR tv90[ebp]
  00083	85 d2		 test	 edx, edx
  00085	79 06		 jns	 SHORT $LN8@SetLoopAni@2
  00087	d8 05 00 00 00
	00		 fadd	 DWORD PTR __real@4f800000
$LN8@SetLoopAni@2:
  0008d	89 45 0c	 mov	 DWORD PTR tv140[ebp], eax
  00090	db 45 0c	 fild	 DWORD PTR tv140[ebp]
  00093	85 c0		 test	 eax, eax
  00095	79 06		 jns	 SHORT $LN9@SetLoopAni@2
  00097	d8 05 00 00 00
	00		 fadd	 DWORD PTR __real@4f800000
$LN9@SetLoopAni@2:
  0009d	de f9		 fdivp	 ST(1), ST(0)
  0009f	51		 push	 ecx
  000a0	d9 5d 0c	 fstp	 DWORD PTR tv142[ebp]
  000a3	d9 45 0c	 fld	 DWORD PTR tv142[ebp]
  000a6	d9 1c 24	 fstp	 DWORD PTR [esp]
  000a9	ff 56 40	 call	 DWORD PTR [esi+64]
$LN1@SetLoopAni@2:
  000ac	5e		 pop	 esi

; 1586 : 	}
; 1587 : }

  000ad	5d		 pop	 ebp
  000ae	c2 08 00	 ret	 8
?SetLoopAni@ioCreateChar@@IAEXHM@Z ENDP			; ioCreateChar::SetLoopAni
_TEXT	ENDS
PUBLIC	?ClearAllAnimations@ioCreateChar@@QAEXXZ	; ioCreateChar::ClearAllAnimations
; Function compile flags: /Ogsp
;	COMDAT ?ClearAllAnimations@ioCreateChar@@QAEXXZ
_TEXT	SEGMENT
?ClearAllAnimations@ioCreateChar@@QAEXXZ PROC		; ioCreateChar::ClearAllAnimations, COMDAT
; _this$ = ecx

; 1590 : {

  00000	56		 push	 esi
  00001	8b f1		 mov	 esi, ecx

; 1591 : 	if( m_pGrp )

  00003	8b 4e 04	 mov	 ecx, DWORD PTR [esi+4]
  00006	85 c9		 test	 ecx, ecx
  00008	74 25		 je	 SHORT $LN1@ClearAllAn

; 1592 : 	{
; 1593 : 		m_pGrp->ClearAllActionAni( 0.0f );

  0000a	0f 57 c0	 xorps	 xmm0, xmm0
  0000d	6a 00		 push	 0
  0000f	51		 push	 ecx
  00010	f3 0f 11 04 24	 movss	 DWORD PTR [esp], xmm0
  00015	ff 15 00 00 00
	00		 call	 DWORD PTR __imp_?ClearAllActionAni@ioEntityGroup@@QAEXM_N@Z

; 1594 : 		m_pGrp->ClearAllLoopAni( 0.0f );

  0001b	0f 57 c0	 xorps	 xmm0, xmm0
  0001e	6a 00		 push	 0
  00020	51		 push	 ecx
  00021	8b 4e 04	 mov	 ecx, DWORD PTR [esi+4]
  00024	f3 0f 11 04 24	 movss	 DWORD PTR [esp], xmm0
  00029	ff 15 00 00 00
	00		 call	 DWORD PTR __imp_?ClearAllLoopAni@ioEntityGroup@@QAEXM_N@Z
$LN1@ClearAllAn:
  0002f	5e		 pop	 esi

; 1595 : 	}
; 1596 : }

  00030	c3		 ret	 0
?ClearAllAnimations@ioCreateChar@@QAEXXZ ENDP		; ioCreateChar::ClearAllAnimations
_TEXT	ENDS
PUBLIC	??_C@_0DP@IIMIDHHE@ioCreateChar?3?3GetRaceDetailType?5@ ; `string'
PUBLIC	?GetRaceDetailType@ioCreateChar@@IBE?AW4RaceDetailType@@XZ ; ioCreateChar::GetRaceDetailType
EXTRN	__imp_?PrintTimeAndLog@CLog@@QAAXHPADZZ:PROC
EXTRN	__imp_?LOG@@3VCLog@@A:BYTE
;	COMDAT ??_C@_0DP@IIMIDHHE@ioCreateChar?3?3GetRaceDetailType?5@
CONST	SEGMENT
??_C@_0DP@IIMIDHHE@ioCreateChar?3?3GetRaceDetailType?5@ DB 'ioCreateChar:'
	DB	':GetRaceDetailType - UnknownType Race:%d, male:%d', 00H ; `string'
; Function compile flags: /Ogsp
CONST	ENDS
;	COMDAT ?GetRaceDetailType@ioCreateChar@@IBE?AW4RaceDetailType@@XZ
_TEXT	SEGMENT
?GetRaceDetailType@ioCreateChar@@IBE?AW4RaceDetailType@@XZ PROC ; ioCreateChar::GetRaceDetailType, COMDAT
; _this$ = ecx

; 1694 : 	switch( m_RaceType )

  00000	8b 41 08	 mov	 eax, DWORD PTR [ecx+8]
  00003	53		 push	 ebx
  00004	8b d0		 mov	 edx, eax
  00006	33 db		 xor	 ebx, ebx
  00008	2b d3		 sub	 edx, ebx
  0000a	74 3f		 je	 SHORT $LN9@GetRaceDet
  0000c	4a		 dec	 edx
  0000d	74 2f		 je	 SHORT $LN6@GetRaceDet
  0000f	4a		 dec	 edx
  00010	74 1f		 je	 SHORT $LN3@GetRaceDet

; 1710 : 			return RDT_DWARF_MAN;
; 1711 : 		else
; 1712 : 			return RDT_DWARF_WOMAN;
; 1713 : 		break;
; 1714 : 	}
; 1715 : 
; 1716 : 	LOG.PrintTimeAndLog( 0, "ioCreateChar::GetRaceDetailType - UnknownType Race:%d, male:%d",
; 1717 : 							m_RaceType, m_bMale );

  00012	0f b6 49 1c	 movzx	 ecx, BYTE PTR [ecx+28]
  00016	51		 push	 ecx
  00017	50		 push	 eax
  00018	68 00 00 00 00	 push	 OFFSET ??_C@_0DP@IIMIDHHE@ioCreateChar?3?3GetRaceDetailType?5@
  0001d	53		 push	 ebx
  0001e	ff 35 00 00 00
	00		 push	 DWORD PTR __imp_?LOG@@3VCLog@@A
  00024	ff 15 00 00 00
	00		 call	 DWORD PTR __imp_?PrintTimeAndLog@CLog@@QAAXHPADZZ
  0002a	83 c4 14	 add	 esp, 20			; 00000014H

; 1718 : 
; 1719 : 	return RDT_HUMAN_MAN;

  0002d	33 c0		 xor	 eax, eax
  0002f	5b		 pop	 ebx

; 1720 : }

  00030	c3		 ret	 0
$LN3@GetRaceDet:

; 1704 : 			return RDT_ELF_MAN;
; 1705 : 		else
; 1706 : 			return RDT_ELF_WOMAN;
; 1707 : 		break;
; 1708 : 	case RT_DWARF:
; 1709 : 		if( m_bMale )

  00031	33 c0		 xor	 eax, eax
  00033	38 59 1c	 cmp	 BYTE PTR [ecx+28], bl
  00036	5b		 pop	 ebx
  00037	0f 94 c0	 sete	 al
  0003a	83 c0 04	 add	 eax, 4

; 1720 : }

  0003d	c3		 ret	 0
$LN6@GetRaceDet:

; 1698 : 			return RDT_HUMAN_MAN;
; 1699 : 		else
; 1700 : 			return RDT_HUMAN_WOMAN;
; 1701 : 		break;
; 1702 : 	case RT_ELF:
; 1703 : 		if( m_bMale )

  0003e	33 c0		 xor	 eax, eax
  00040	38 59 1c	 cmp	 BYTE PTR [ecx+28], bl
  00043	5b		 pop	 ebx
  00044	0f 94 c0	 sete	 al
  00047	83 c0 02	 add	 eax, 2

; 1720 : }

  0004a	c3		 ret	 0
$LN9@GetRaceDet:

; 1695 : 	{
; 1696 : 	case RT_HUMAN:
; 1697 : 		if( m_bMale )

  0004b	33 c0		 xor	 eax, eax
  0004d	38 59 1c	 cmp	 BYTE PTR [ecx+28], bl
  00050	5b		 pop	 ebx
  00051	0f 94 c0	 sete	 al

; 1720 : }

  00054	c3		 ret	 0
?GetRaceDetailType@ioCreateChar@@IBE?AW4RaceDetailType@@XZ ENDP ; ioCreateChar::GetRaceDetailType
; Function compile flags: /Ogsp
; File c:\program files (x86)\microsoft sdks\windows\v7.0a\include\strsafe.h
_TEXT	ENDS
;	COMDAT ?StringValidateDestA@@YGJPBDII@Z
_TEXT	SEGMENT
_cchMax$ = 8						; size = 4
?StringValidateDestA@@YGJPBDII@Z PROC			; StringValidateDestA, COMDAT
; _cchDest$ = ecx

; 8721 : {

  00000	55		 push	 ebp
  00001	8b ec		 mov	 ebp, esp

; 8722 :     HRESULT hr = S_OK;

  00003	33 c0		 xor	 eax, eax

; 8723 : 
; 8724 :     if ((cchDest == 0) || (cchDest > cchMax))

  00005	85 c9		 test	 ecx, ecx
  00007	74 05		 je	 SHORT $LN1@StringVali
  00009	3b 4d 08	 cmp	 ecx, DWORD PTR _cchMax$[ebp]
  0000c	76 05		 jbe	 SHORT $LN2@StringVali
$LN1@StringVali:

; 8725 :     {
; 8726 :         hr = STRSAFE_E_INVALID_PARAMETER;

  0000e	b8 57 00 07 80	 mov	 eax, -2147024809	; 80070057H
$LN2@StringVali:

; 8727 :     }
; 8728 : 
; 8729 :     return hr;
; 8730 : }

  00013	5d		 pop	 ebp
  00014	c2 04 00	 ret	 4
?StringValidateDestA@@YGJPBDII@Z ENDP			; StringValidateDestA
_TEXT	ENDS
PUBLIC	?AttachEffect@ioCreateChar@@QAEPAVioEffect@@ABVioHashString@@PAVioEntityEvent@@@Z ; ioCreateChar::AttachEffect
EXTRN	__imp_?AttachEffect@ioEntityGroup@@QAEPAVioEffect@@ABVioHashString@@PAVioEntityEvent@@ABUD3DXQUATERNION@@ABUD3DXVECTOR3@@_N@Z:PROC
EXTRN	__imp_?QUAT_IDENTITY@ioMath@@2UD3DXQUATERNION@@A:BYTE
EXTRN	__imp_?VEC3_ZERO@ioMath@@2UD3DXVECTOR3@@A:BYTE
; Function compile flags: /Ogsp
; File d:\lost saga for developer\youtube\tutorial\source\src\lsclient\iocreatechar.cpp
;	COMDAT ?AttachEffect@ioCreateChar@@QAEPAVioEffect@@ABVioHashString@@PAVioEntityEvent@@@Z
_TEXT	SEGMENT
_rkEffect$ = 8						; size = 4
_pEntityEventOwner$ = 12				; size = 4
?AttachEffect@ioCreateChar@@QAEPAVioEffect@@ABVioHashString@@PAVioEntityEvent@@@Z PROC ; ioCreateChar::AttachEffect, COMDAT
; _this$ = ecx

; 1724 : {

  00000	55		 push	 ebp
  00001	8b ec		 mov	 ebp, esp
  00003	56		 push	 esi
  00004	8b f1		 mov	 esi, ecx

; 1725 : 	if( !m_pGrp ) return NULL;

  00006	83 7e 04 00	 cmp	 DWORD PTR [esi+4], 0
  0000a	74 2c		 je	 SHORT $LN1@AttachEffe

; 1726 : 
; 1727 : 	if( !rkEffect.IsEmpty() )

  0000c	8b 4d 08	 mov	 ecx, DWORD PTR _rkEffect$[ebp]
  0000f	ff 15 00 00 00
	00		 call	 DWORD PTR __imp_?IsEmpty@ioHashString@@QBE_NXZ
  00015	84 c0		 test	 al, al
  00017	75 1f		 jne	 SHORT $LN1@AttachEffe

; 1728 : 		return m_pGrp->AttachEffect( rkEffect, pEntityEventOwner );

  00019	8b 4e 04	 mov	 ecx, DWORD PTR [esi+4]
  0001c	6a 01		 push	 1
  0001e	ff 35 00 00 00
	00		 push	 DWORD PTR __imp_?VEC3_ZERO@ioMath@@2UD3DXVECTOR3@@A
  00024	ff 35 00 00 00
	00		 push	 DWORD PTR __imp_?QUAT_IDENTITY@ioMath@@2UD3DXQUATERNION@@A
  0002a	ff 75 0c	 push	 DWORD PTR _pEntityEventOwner$[ebp]
  0002d	ff 75 08	 push	 DWORD PTR _rkEffect$[ebp]
  00030	ff 15 00 00 00
	00		 call	 DWORD PTR __imp_?AttachEffect@ioEntityGroup@@QAEPAVioEffect@@ABVioHashString@@PAVioEntityEvent@@ABUD3DXQUATERNION@@ABUD3DXVECTOR3@@_N@Z
  00036	eb 02		 jmp	 SHORT $LN3@AttachEffe
$LN1@AttachEffe:

; 1729 : 
; 1730 : 	return NULL;

  00038	33 c0		 xor	 eax, eax
$LN3@AttachEffe:
  0003a	5e		 pop	 esi

; 1731 : }

  0003b	5d		 pop	 ebp
  0003c	c2 08 00	 ret	 8
?AttachEffect@ioCreateChar@@QAEPAVioEffect@@ABVioHashString@@PAVioEntityEvent@@@Z ENDP ; ioCreateChar::AttachEffect
_TEXT	ENDS
PUBLIC	?EndEffect@ioCreateChar@@QAEXABVioHashString@@_N@Z ; ioCreateChar::EndEffect
EXTRN	__imp_?EndEffect@ioEntityGroup@@QAEXABVioHashString@@_N1@Z:PROC
; Function compile flags: /Ogsp
;	COMDAT ?EndEffect@ioCreateChar@@QAEXABVioHashString@@_N@Z
_TEXT	SEGMENT
_rkEffect$ = 8						; size = 4
_bGrace$ = 12						; size = 1
?EndEffect@ioCreateChar@@QAEXABVioHashString@@_N@Z PROC	; ioCreateChar::EndEffect, COMDAT
; _this$ = ecx

; 1734 : {

  00000	55		 push	 ebp
  00001	8b ec		 mov	 ebp, esp

; 1735 : 	if( !m_pGrp ) return;

  00003	8b 49 04	 mov	 ecx, DWORD PTR [ecx+4]
  00006	85 c9		 test	 ecx, ecx
  00008	74 0e		 je	 SHORT $LN2@EndEffect

; 1736 : 
; 1737 : 	m_pGrp->EndEffect( rkEffect, bGrace );

  0000a	6a 01		 push	 1
  0000c	ff 75 0c	 push	 DWORD PTR _bGrace$[ebp]
  0000f	ff 75 08	 push	 DWORD PTR _rkEffect$[ebp]
  00012	ff 15 00 00 00
	00		 call	 DWORD PTR __imp_?EndEffect@ioEntityGroup@@QAEXABVioHashString@@_N1@Z
$LN2@EndEffect:

; 1738 : }

  00018	5d		 pop	 ebp
  00019	c2 08 00	 ret	 8
?EndEffect@ioCreateChar@@QAEXABVioHashString@@_N@Z ENDP	; ioCreateChar::EndEffect
_TEXT	ENDS
EXTRN	__imp___vsnprintf:PROC
; Function compile flags: /Ogsp
; File c:\program files (x86)\microsoft sdks\windows\v7.0a\include\strsafe.h
;	COMDAT ?StringVPrintfWorkerA@@YGJPADIPAIPBD0@Z
_TEXT	SEGMENT
_pcchNewDestLength$ = 8					; size = 4
_pszFormat$ = 12					; size = 4
_argList$ = 16						; size = 4
?StringVPrintfWorkerA@@YGJPADIPAIPBD0@Z PROC		; StringVPrintfWorkerA, COMDAT
; _pszDest$ = edi
; _cchDest$ = eax

; 9029 : {

  00000	55		 push	 ebp
  00001	8b ec		 mov	 ebp, esp
  00003	53		 push	 ebx
  00004	56		 push	 esi

; 9030 :     HRESULT hr = S_OK;
; 9031 :     int iRet;
; 9032 :     size_t cchMax;
; 9033 :     size_t cchNewDestLength = 0;
; 9034 : 
; 9035 :     // leave the last space for the null terminator
; 9036 :     cchMax = cchDest - 1;
; 9037 : 
; 9038 : #if (STRSAFE_USE_SECURE_CRT == 1) && !defined(STRSAFE_LIB_IMPL)
; 9039 :     iRet = _vsnprintf_s(pszDest, cchDest, cchMax, pszFormat, argList);
; 9040 : #else
; 9041 :     #pragma warning(push)
; 9042 :     #pragma warning(disable: __WARNING_BANNED_API_USAGE)// "STRSAFE not included"
; 9043 :     iRet = _vsnprintf(pszDest, cchMax, pszFormat, argList);

  00005	ff 75 10	 push	 DWORD PTR _argList$[ebp]
  00008	8d 70 ff	 lea	 esi, DWORD PTR [eax-1]
  0000b	ff 75 0c	 push	 DWORD PTR _pszFormat$[ebp]
  0000e	33 db		 xor	 ebx, ebx
  00010	56		 push	 esi
  00011	57		 push	 edi
  00012	ff 15 00 00 00
	00		 call	 DWORD PTR __imp___vsnprintf
  00018	83 c4 10	 add	 esp, 16			; 00000010H

; 9044 :     #pragma warning(pop)
; 9045 : #endif
; 9046 :     // ASSERT((iRet < 0) || (((size_t)iRet) <= cchMax));
; 9047 : 
; 9048 :     if ((iRet < 0) || (((size_t)iRet) > cchMax))

  0001b	85 c0		 test	 eax, eax
  0001d	78 0b		 js	 SHORT $LN5@StringVPri
  0001f	3b c6		 cmp	 eax, esi
  00021	77 07		 ja	 SHORT $LN5@StringVPri

; 9058 :     }
; 9059 :     else if (((size_t)iRet) == cchMax)

  00023	75 0f		 jne	 SHORT $LN2@StringVPri

; 9060 :     {
; 9061 :         // need to null terminate the string
; 9062 :         pszDest += cchMax;
; 9063 :         *pszDest = '\0';

  00025	88 1c 3e	 mov	 BYTE PTR [esi+edi], bl

; 9064 : 
; 9065 :         cchNewDestLength = cchMax;
; 9066 :     }
; 9067 :     else

  00028	eb 08		 jmp	 SHORT $LN9@StringVPri
$LN5@StringVPri:

; 9049 :     {
; 9050 :         // need to null terminate the string
; 9051 :         pszDest += cchMax;
; 9052 :         *pszDest = '\0';

  0002a	88 1c 3e	 mov	 BYTE PTR [esi+edi], bl

; 9055 : 
; 9056 :         // we have truncated pszDest
; 9057 :         hr = STRSAFE_E_INSUFFICIENT_BUFFER;

  0002d	bb 7a 00 07 80	 mov	 ebx, -2147024774	; 8007007aH
$LN9@StringVPri:

; 9053 : 
; 9054 :         cchNewDestLength = cchMax;

  00032	8b c6		 mov	 eax, esi
$LN2@StringVPri:

; 9068 :     {
; 9069 :         cchNewDestLength = (size_t)iRet;
; 9070 :     }
; 9071 : 
; 9072 :     if (pcchNewDestLength)

  00034	8b 4d 08	 mov	 ecx, DWORD PTR _pcchNewDestLength$[ebp]
  00037	85 c9		 test	 ecx, ecx
  00039	74 02		 je	 SHORT $LN1@StringVPri

; 9073 :     {
; 9074 :         *pcchNewDestLength = cchNewDestLength;

  0003b	89 01		 mov	 DWORD PTR [ecx], eax
$LN1@StringVPri:
  0003d	5e		 pop	 esi

; 9075 :     }
; 9076 : 
; 9077 :     return hr;

  0003e	8b c3		 mov	 eax, ebx
  00040	5b		 pop	 ebx

; 9078 : }

  00041	5d		 pop	 ebp
  00042	c2 0c 00	 ret	 12			; 0000000cH
?StringVPrintfWorkerA@@YGJPADIPAIPBD0@Z ENDP		; StringVPrintfWorkerA
_TEXT	ENDS
PUBLIC	?UpdateDefaultFaceTextureName@ioCreateChar@@IAEXXZ ; ioCreateChar::UpdateDefaultFaceTextureName
EXTRN	__imp_?Clear@ioHashString@@QAEXXZ:PROC
EXTRN	__imp_?GetTextureName@ioTextureUnitState@@QBEABVioHashString@@XZ:PROC
EXTRN	__imp_?IsUseLightTexture@ioTextureUnitState@@QBE_NXZ:PROC
EXTRN	__imp_?GetTextureUnitState@ioPass@@QBEPAVioTextureUnitState@@H@Z:PROC
EXTRN	__imp_?GetNumTextureUnitStates@ioPass@@QBEHXZ:PROC
EXTRN	__imp_?GetPass@ioTechnique@@QAEPAVioPass@@H@Z:PROC
EXTRN	__imp_?GetNumPasses@ioTechnique@@QBEHXZ:PROC
EXTRN	__imp_?GetBestTechnique@ioMaterial@@QAEPAVioTechnique@@XZ:PROC
EXTRN	__imp_?GetSubEntity@ioEntity@@QAEPAVioSubEntity@@H@Z:PROC
; Function compile flags: /Ogsp
; File d:\lost saga for developer\youtube\tutorial\source\src\lsclient\iocreatechar.cpp
;	COMDAT ?UpdateDefaultFaceTextureName@ioCreateChar@@IAEXXZ
_TEXT	SEGMENT
_iNumPass$ = -20					; size = 4
_iNumStage$568014 = -16					; size = 4
_pTech$ = -12						; size = 4
_this$ = -8						; size = 4
_iPass$568009 = -4					; size = 4
?UpdateDefaultFaceTextureName@ioCreateChar@@IAEXXZ PROC	; ioCreateChar::UpdateDefaultFaceTextureName, COMDAT
; _this$ = ecx

; 1798 : {

  00000	55		 push	 ebp
  00001	8b ec		 mov	 ebp, esp
  00003	83 ec 14	 sub	 esp, 20			; 00000014H
  00006	53		 push	 ebx
  00007	8b d9		 mov	 ebx, ecx

; 1799 : 	ioEntity *pFace = m_pGrp->GetEntity( m_CurFaceMesh );

  00009	8b 4b 04	 mov	 ecx, DWORD PTR [ebx+4]
  0000c	8d 83 10 01 00
	00		 lea	 eax, DWORD PTR [ebx+272]
  00012	50		 push	 eax
  00013	89 5d f8	 mov	 DWORD PTR _this$[ebp], ebx
  00016	ff 15 00 00 00
	00		 call	 DWORD PTR __imp_?GetEntity@ioEntityGroup@@QAEPAVioEntity@@ABVioHashString@@@Z

; 1800 : 	if( !pFace ) return;

  0001c	85 c0		 test	 eax, eax
  0001e	0f 84 9c 00 00
	00		 je	 $LN9@UpdateDefa

; 1801 : 
; 1802 : 	ioTechnique *pTech = pFace->GetSubEntity(0)->GetMaterial()->GetBestTechnique();

  00024	56		 push	 esi
  00025	57		 push	 edi
  00026	6a 00		 push	 0
  00028	8b c8		 mov	 ecx, eax
  0002a	ff 15 00 00 00
	00		 call	 DWORD PTR __imp_?GetSubEntity@ioEntity@@QAEPAVioSubEntity@@H@Z
  00030	8b 10		 mov	 edx, DWORD PTR [eax]
  00032	8b c8		 mov	 ecx, eax
  00034	ff 12		 call	 DWORD PTR [edx]
  00036	8b c8		 mov	 ecx, eax
  00038	ff 15 00 00 00
	00		 call	 DWORD PTR __imp_?GetBestTechnique@ioMaterial@@QAEPAVioTechnique@@XZ
  0003e	8b c8		 mov	 ecx, eax
  00040	89 4d f4	 mov	 DWORD PTR _pTech$[ebp], ecx

; 1803 : 
; 1804 : 	int iNumPass = pTech->GetNumPasses();

  00043	ff 15 00 00 00
	00		 call	 DWORD PTR __imp_?GetNumPasses@ioTechnique@@QBEHXZ

; 1805 : 	for( int iPass=0 ; iPass<iNumPass ; iPass++ )

  00049	83 65 fc 00	 and	 DWORD PTR _iPass$568009[ebp], 0
  0004d	89 45 ec	 mov	 DWORD PTR _iNumPass$[ebp], eax
  00050	85 c0		 test	 eax, eax
  00052	7e 5e		 jle	 SHORT $LN5@UpdateDefa
$LL16@UpdateDefa:

; 1806 : 	{
; 1807 : 		ioPass *pPass = pTech->GetPass( iPass );

  00054	ff 75 fc	 push	 DWORD PTR _iPass$568009[ebp]
  00057	8b 4d f4	 mov	 ecx, DWORD PTR _pTech$[ebp]
  0005a	ff 15 00 00 00
	00		 call	 DWORD PTR __imp_?GetPass@ioTechnique@@QAEPAVioPass@@H@Z
  00060	8b f0		 mov	 esi, eax

; 1808 : 
; 1809 : 		int iNumStage = pPass->GetNumTextureUnitStates();

  00062	8b ce		 mov	 ecx, esi
  00064	ff 15 00 00 00
	00		 call	 DWORD PTR __imp_?GetNumTextureUnitStates@ioPass@@QBEHXZ

; 1810 : 		for( int iStage=0 ; iStage<iNumStage ; iStage++ )

  0006a	33 ff		 xor	 edi, edi
  0006c	89 45 f0	 mov	 DWORD PTR _iNumStage$568014[ebp], eax
  0006f	85 c0		 test	 eax, eax
  00071	7e 34		 jle	 SHORT $LN6@UpdateDefa
$LL4@UpdateDefa:

; 1811 : 		{
; 1812 : 			ioTextureUnitState *pStage = pPass->GetTextureUnitState( iStage );

  00073	57		 push	 edi
  00074	8b ce		 mov	 ecx, esi
  00076	ff 15 00 00 00
	00		 call	 DWORD PTR __imp_?GetTextureUnitState@ioPass@@QBEPAVioTextureUnitState@@H@Z
  0007c	8b d8		 mov	 ebx, eax

; 1813 : 
; 1814 : 			if( !pStage->IsUseLightTexture() && !pStage->GetTextureName().IsEmpty() )

  0007e	8b cb		 mov	 ecx, ebx
  00080	ff 15 00 00 00
	00		 call	 DWORD PTR __imp_?IsUseLightTexture@ioTextureUnitState@@QBE_NXZ
  00086	84 c0		 test	 al, al
  00088	75 14		 jne	 SHORT $LN3@UpdateDefa
  0008a	8b cb		 mov	 ecx, ebx
  0008c	ff 15 00 00 00
	00		 call	 DWORD PTR __imp_?GetTextureName@ioTextureUnitState@@QBEABVioHashString@@XZ
  00092	8b c8		 mov	 ecx, eax
  00094	ff 15 00 00 00
	00		 call	 DWORD PTR __imp_?IsEmpty@ioHashString@@QBE_NXZ
  0009a	84 c0		 test	 al, al
  0009c	74 25		 je	 SHORT $LN13@UpdateDefa
$LN3@UpdateDefa:

; 1810 : 		for( int iStage=0 ; iStage<iNumStage ; iStage++ )

  0009e	47		 inc	 edi
  0009f	3b 7d f0	 cmp	 edi, DWORD PTR _iNumStage$568014[ebp]
  000a2	7c cf		 jl	 SHORT $LL4@UpdateDefa
  000a4	8b 5d f8	 mov	 ebx, DWORD PTR _this$[ebp]
$LN6@UpdateDefa:

; 1805 : 	for( int iPass=0 ; iPass<iNumPass ; iPass++ )

  000a7	ff 45 fc	 inc	 DWORD PTR _iPass$568009[ebp]
  000aa	8b 45 fc	 mov	 eax, DWORD PTR _iPass$568009[ebp]
  000ad	3b 45 ec	 cmp	 eax, DWORD PTR _iNumPass$[ebp]
  000b0	7c a2		 jl	 SHORT $LL16@UpdateDefa
$LN5@UpdateDefa:

; 1818 : 			}
; 1819 : 		}
; 1820 : 	}
; 1821 : 
; 1822 : 	m_DefaultFaceTexture.Clear();

  000b2	8d 8b f4 01 00
	00		 lea	 ecx, DWORD PTR [ebx+500]
  000b8	ff 15 00 00 00
	00		 call	 DWORD PTR __imp_?Clear@ioHashString@@QAEXXZ
$LN17@UpdateDefa:
  000be	5f		 pop	 edi
  000bf	5e		 pop	 esi
$LN9@UpdateDefa:
  000c0	5b		 pop	 ebx

; 1823 : }

  000c1	c9		 leave
  000c2	c3		 ret	 0
$LN13@UpdateDefa:

; 1815 : 			{
; 1816 : 				m_DefaultFaceTexture = pStage->GetTextureName();

  000c3	8b cb		 mov	 ecx, ebx
  000c5	ff 15 00 00 00
	00		 call	 DWORD PTR __imp_?GetTextureName@ioTextureUnitState@@QBEABVioHashString@@XZ
  000cb	8b 4d f8	 mov	 ecx, DWORD PTR _this$[ebp]
  000ce	50		 push	 eax
  000cf	81 c1 f4 01 00
	00		 add	 ecx, 500		; 000001f4H
  000d5	ff 15 00 00 00
	00		 call	 DWORD PTR __imp_??4ioHashString@@QAEAAV0@ABV0@@Z

; 1817 : 				return;

  000db	eb e1		 jmp	 SHORT $LN17@UpdateDefa
?UpdateDefaultFaceTextureName@ioCreateChar@@IAEXXZ ENDP	; ioCreateChar::UpdateDefaultFaceTextureName
_TEXT	ENDS
PUBLIC	?ChangeFaceTexture@ioCreateChar@@QAEXABVioHashString@@@Z ; ioCreateChar::ChangeFaceTexture
EXTRN	?FaceChangeColorTexAndOutLine@Help@@YAXPAVioEntity@@ABVioHashString@@PBU_D3DCOLORVALUE@@@Z:PROC ; Help::FaceChangeColorTexAndOutLine
; Function compile flags: /Ogsp
;	COMDAT ?ChangeFaceTexture@ioCreateChar@@QAEXABVioHashString@@@Z
_TEXT	SEGMENT
_szNewFaceTexture$ = 8					; size = 4
?ChangeFaceTexture@ioCreateChar@@QAEXABVioHashString@@@Z PROC ; ioCreateChar::ChangeFaceTexture, COMDAT
; _this$ = ecx

; 1826 : {

  00000	55		 push	 ebp
  00001	8b ec		 mov	 ebp, esp

; 1827 : 	Help::FaceChangeColorTexAndOutLine( m_pGrp->GetEntity( m_CurFaceMesh ), szNewFaceTexture );

  00003	6a 00		 push	 0
  00005	ff 75 08	 push	 DWORD PTR _szNewFaceTexture$[ebp]
  00008	8d 81 10 01 00
	00		 lea	 eax, DWORD PTR [ecx+272]
  0000e	8b 49 04	 mov	 ecx, DWORD PTR [ecx+4]
  00011	50		 push	 eax
  00012	ff 15 00 00 00
	00		 call	 DWORD PTR __imp_?GetEntity@ioEntityGroup@@QAEPAVioEntity@@ABVioHashString@@@Z
  00018	50		 push	 eax
  00019	e8 00 00 00 00	 call	 ?FaceChangeColorTexAndOutLine@Help@@YAXPAVioEntity@@ABVioHashString@@PBU_D3DCOLORVALUE@@@Z ; Help::FaceChangeColorTexAndOutLine
  0001e	83 c4 0c	 add	 esp, 12			; 0000000cH

; 1828 : }

  00021	5d		 pop	 ebp
  00022	c2 04 00	 ret	 4
?ChangeFaceTexture@ioCreateChar@@QAEXABVioHashString@@@Z ENDP ; ioCreateChar::ChangeFaceTexture
_TEXT	ENDS
PUBLIC	?RestoreDefaultFace@ioCreateChar@@QAEXXZ	; ioCreateChar::RestoreDefaultFace
; Function compile flags: /Ogsp
;	COMDAT ?RestoreDefaultFace@ioCreateChar@@QAEXXZ
_TEXT	SEGMENT
?RestoreDefaultFace@ioCreateChar@@QAEXXZ PROC		; ioCreateChar::RestoreDefaultFace, COMDAT
; _this$ = ecx

; 1831 : {

  00000	56		 push	 esi
  00001	8b f1		 mov	 esi, ecx

; 1832 : 	if( !m_CurFaceMesh.IsEmpty() )

  00003	8d 8e 10 01 00
	00		 lea	 ecx, DWORD PTR [esi+272]
  00009	ff 15 00 00 00
	00		 call	 DWORD PTR __imp_?IsEmpty@ioHashString@@QBE_NXZ
  0000f	84 c0		 test	 al, al
  00011	75 0e		 jne	 SHORT $LN1@RestoreDef

; 1833 : 	{
; 1834 : 		ChangeFaceTexture( m_DefaultFaceTexture );

  00013	8d 86 f4 01 00
	00		 lea	 eax, DWORD PTR [esi+500]
  00019	50		 push	 eax
  0001a	8b ce		 mov	 ecx, esi
  0001c	e8 00 00 00 00	 call	 ?ChangeFaceTexture@ioCreateChar@@QAEXABVioHashString@@@Z ; ioCreateChar::ChangeFaceTexture
$LN1@RestoreDef:
  00021	5e		 pop	 esi

; 1835 : 	}
; 1836 : }

  00022	c3		 ret	 0
?RestoreDefaultFace@ioCreateChar@@QAEXXZ ENDP		; ioCreateChar::RestoreDefaultFace
_TEXT	ENDS
PUBLIC	?DestroyEntity@ioCreateChar@@QAE_NABVioHashString@@@Z ; ioCreateChar::DestroyEntity
EXTRN	__imp_?DestroyEntity@ioEntityGroup@@QAE_NABVioHashString@@@Z:PROC
; Function compile flags: /Ogsp
;	COMDAT ?DestroyEntity@ioCreateChar@@QAE_NABVioHashString@@@Z
_TEXT	SEGMENT
_szName$ = 8						; size = 4
?DestroyEntity@ioCreateChar@@QAE_NABVioHashString@@@Z PROC ; ioCreateChar::DestroyEntity, COMDAT
; _this$ = ecx

; 1868 : {

  00000	55		 push	 ebp
  00001	8b ec		 mov	 ebp, esp

; 1869 : 	if( m_pGrp )

  00003	8b 49 04	 mov	 ecx, DWORD PTR [ecx+4]
  00006	85 c9		 test	 ecx, ecx
  00008	74 07		 je	 SHORT $LN1@DestroyEnt

; 1873 : }

  0000a	5d		 pop	 ebp

; 1870 : 		return m_pGrp->DestroyEntity( szName );

  0000b	ff 25 00 00 00
	00		 jmp	 DWORD PTR __imp_?DestroyEntity@ioEntityGroup@@QAE_NABVioHashString@@@Z
$LN1@DestroyEnt:

; 1871 : 
; 1872 : 	return false;

  00011	32 c0		 xor	 al, al

; 1873 : }

  00013	5d		 pop	 ebp
  00014	c2 04 00	 ret	 4
?DestroyEntity@ioCreateChar@@QAE_NABVioHashString@@@Z ENDP ; ioCreateChar::DestroyEntity
_TEXT	ENDS
PUBLIC	?DestroyEntity@ioCreateChar@@QAE_NH@Z		; ioCreateChar::DestroyEntity
EXTRN	__imp_?DestroyEntity@ioEntityGroup@@QAE_NH@Z:PROC
; Function compile flags: /Ogsp
;	COMDAT ?DestroyEntity@ioCreateChar@@QAE_NH@Z
_TEXT	SEGMENT
_iIndex$ = 8						; size = 4
?DestroyEntity@ioCreateChar@@QAE_NH@Z PROC		; ioCreateChar::DestroyEntity, COMDAT
; _this$ = ecx

; 1876 : {

  00000	55		 push	 ebp
  00001	8b ec		 mov	 ebp, esp

; 1877 : 	if( m_pGrp )

  00003	8b 49 04	 mov	 ecx, DWORD PTR [ecx+4]
  00006	85 c9		 test	 ecx, ecx
  00008	74 07		 je	 SHORT $LN1@DestroyEnt@2

; 1881 : }

  0000a	5d		 pop	 ebp

; 1878 : 		return m_pGrp->DestroyEntity( iIndex );

  0000b	ff 25 00 00 00
	00		 jmp	 DWORD PTR __imp_?DestroyEntity@ioEntityGroup@@QAE_NH@Z
$LN1@DestroyEnt@2:

; 1879 : 
; 1880 : 	return false;

  00011	32 c0		 xor	 al, al

; 1881 : }

  00013	5d		 pop	 ebp
  00014	c2 04 00	 ret	 4
?DestroyEntity@ioCreateChar@@QAE_NH@Z ENDP		; ioCreateChar::DestroyEntity
_TEXT	ENDS
PUBLIC	??_C@_0BB@LONDJPHL@OutLineThickness?$AA@	; `string'
PUBLIC	?RestoreOutLineThick@ioCreateChar@@QAEXXZ	; ioCreateChar::RestoreOutLineThick
EXTRN	__imp_?AddCustomParameter@ioPass@@QAEXABVioShaderCustomArg@@@Z:PROC
EXTRN	__imp_?GetCustomArg@ioPass@@QAEPAVioShaderCustomArg@@ABVioHashString@@@Z:PROC
EXTRN	__imp_?GetMaterial@ioMaterialManager@@QAEPAVioMaterial@@ABVioHashString@@@Z:PROC
EXTRN	__imp_?GetSingleton@ioMaterialManager@@SAAAV1@XZ:PROC
EXTRN	__imp_?GetMaterialName@ioSubEntity@@QBEABVioHashString@@XZ:PROC
EXTRN	__imp_?GetNumSubEntity@ioEntity@@QBEHXZ:PROC
EXTRN	__imp_?GetEntity@ioEntityGroup@@QAEPAVioEntity@@H@Z:PROC
EXTRN	__imp_?GetPassByShaderGrp@ioTechnique@@QAEPAVioPass@@W4ShaderGroupType@@@Z:PROC
EXTRN	__imp_?GetNumEntities@ioEntityGroup@@QBEHXZ:PROC
;	COMDAT ??_C@_0BB@LONDJPHL@OutLineThickness?$AA@
CONST	SEGMENT
??_C@_0BB@LONDJPHL@OutLineThickness?$AA@ DB 'OutLineThickness', 00H ; `string'
CONST	ENDS
;	COMDAT xdata$x
xdata$x	SEGMENT
__unwindtable$?RestoreOutLineThick@ioCreateChar@@QAEXXZ DD 0ffffffffH
	DD	FLAT:__unwindfunclet$?RestoreOutLineThick@ioCreateChar@@QAEXXZ$0
__ehfuncinfo$?RestoreOutLineThick@ioCreateChar@@QAEXXZ DD 019930522H
	DD	01H
	DD	FLAT:__unwindtable$?RestoreOutLineThick@ioCreateChar@@QAEXXZ
	DD	2 DUP(00H)
	DD	2 DUP(00H)
	DD	00H
	DD	01H
; Function compile flags: /Ogsp
xdata$x	ENDS
;	COMDAT ?RestoreOutLineThick@ioCreateChar@@QAEXXZ
_TEXT	SEGMENT
$T571391 = -52						; size = 16
_iNumEntity$ = -36					; size = 4
_this$ = -32						; size = 4
_iNumSubEntity$568094 = -28				; size = 4
_pEntity$568093 = -24					; size = 4
_i$568089 = -20						; size = 4
_j$568095 = -16						; size = 4
__$EHRec$ = -12						; size = 12
?RestoreOutLineThick@ioCreateChar@@QAEXXZ PROC		; ioCreateChar::RestoreOutLineThick, COMDAT
; _this$ = ecx

; 1912 : {

  00000	6a 28		 push	 40			; 00000028H
  00002	b8 00 00 00 00	 mov	 eax, __ehhandler$?RestoreOutLineThick@ioCreateChar@@QAEXXZ
  00007	e8 00 00 00 00	 call	 __EH_prolog3
  0000c	8b f1		 mov	 esi, ecx
  0000e	89 75 e0	 mov	 DWORD PTR _this$[ebp], esi

; 1913 : 	int iNumEntity = m_pGrp->GetNumEntities();

  00011	8b 4e 04	 mov	 ecx, DWORD PTR [esi+4]
  00014	ff 15 00 00 00
	00		 call	 DWORD PTR __imp_?GetNumEntities@ioEntityGroup@@QBEHXZ

; 1914 : 	for( int i=0 ; i<iNumEntity ; i++ )

  0001a	83 65 ec 00	 and	 DWORD PTR _i$568089[ebp], 0
  0001e	89 45 dc	 mov	 DWORD PTR _iNumEntity$[ebp], eax
  00021	85 c0		 test	 eax, eax
  00023	0f 8e f8 00 00
	00		 jle	 $LN12@RestoreOut
  00029	8b 3d 00 00 00
	00		 mov	 edi, DWORD PTR __imp_?GetPassByShaderGrp@ioTechnique@@QAEPAVioPass@@W4ShaderGroupType@@@Z
$LN14@RestoreOut:

; 1915 : 	{
; 1916 : 		ioEntity *pEntity = m_pGrp->GetEntity( i );

  0002f	ff 75 ec	 push	 DWORD PTR _i$568089[ebp]
  00032	8b 4e 04	 mov	 ecx, DWORD PTR [esi+4]
  00035	ff 15 00 00 00
	00		 call	 DWORD PTR __imp_?GetEntity@ioEntityGroup@@QAEPAVioEntity@@H@Z
  0003b	8b c8		 mov	 ecx, eax
  0003d	89 4d e8	 mov	 DWORD PTR _pEntity$568093[ebp], ecx

; 1917 : 
; 1918 : 		int iNumSubEntity = pEntity->GetNumSubEntity();

  00040	ff 15 00 00 00
	00		 call	 DWORD PTR __imp_?GetNumSubEntity@ioEntity@@QBEHXZ

; 1919 : 		for( int j=0 ; j<iNumSubEntity ; j++ )

  00046	83 65 f0 00	 and	 DWORD PTR _j$568095[ebp], 0
  0004a	89 45 e4	 mov	 DWORD PTR _iNumSubEntity$568094[ebp], eax
  0004d	85 c0		 test	 eax, eax
  0004f	0f 8e bd 00 00
	00		 jle	 $LN13@RestoreOut
$LN11@RestoreOut:

; 1920 : 		{
; 1921 : 			ioSubEntity *pSubEntity = pEntity->GetSubEntity( j );

  00055	ff 75 f0	 push	 DWORD PTR _j$568095[ebp]
  00058	8b 4d e8	 mov	 ecx, DWORD PTR _pEntity$568093[ebp]
  0005b	ff 15 00 00 00
	00		 call	 DWORD PTR __imp_?GetSubEntity@ioEntity@@QAEPAVioSubEntity@@H@Z
  00061	8b f0		 mov	 esi, eax

; 1922 : 			if( !pSubEntity )	continue;

  00063	85 f6		 test	 esi, esi
  00065	0f 84 95 00 00
	00		 je	 $LN10@RestoreOut

; 1923 : 
; 1924 : 			ioTechnique *pCloneTech = NULL;
; 1925 : 			ioMaterial *pClone = pSubEntity->GetMaterial();

  0006b	8b 06		 mov	 eax, DWORD PTR [esi]
  0006d	8b ce		 mov	 ecx, esi
  0006f	33 db		 xor	 ebx, ebx
  00071	ff 10		 call	 DWORD PTR [eax]

; 1926 : 			if( pClone )

  00073	85 c0		 test	 eax, eax
  00075	74 0a		 je	 SHORT $LN7@RestoreOut

; 1927 : 			{
; 1928 : 				pCloneTech = pClone->GetBestTechnique();

  00077	8b c8		 mov	 ecx, eax
  00079	ff 15 00 00 00
	00		 call	 DWORD PTR __imp_?GetBestTechnique@ioMaterial@@QAEPAVioTechnique@@XZ
  0007f	8b d8		 mov	 ebx, eax
$LN7@RestoreOut:

; 1929 : 			}
; 1930 : 
; 1931 : 			ioTechnique *pSrcTech = NULL;
; 1932 : 			ioMaterial *pSrc = ioMaterialManager::GetSingleton().GetMaterial( pSubEntity->GetMaterialName() );

  00081	8b ce		 mov	 ecx, esi
  00083	ff 15 00 00 00
	00		 call	 DWORD PTR __imp_?GetMaterialName@ioSubEntity@@QBEABVioHashString@@XZ
  00089	50		 push	 eax
  0008a	ff 15 00 00 00
	00		 call	 DWORD PTR __imp_?GetSingleton@ioMaterialManager@@SAAAV1@XZ
  00090	8b c8		 mov	 ecx, eax
  00092	ff 15 00 00 00
	00		 call	 DWORD PTR __imp_?GetMaterial@ioMaterialManager@@QAEPAVioMaterial@@ABVioHashString@@@Z

; 1933 : 			if( pSrc )

  00098	85 c0		 test	 eax, eax
  0009a	74 64		 je	 SHORT $LN10@RestoreOut

; 1934 : 			{
; 1935 : 				pSrcTech = pSrc->GetBestTechnique();

  0009c	8b c8		 mov	 ecx, eax
  0009e	ff 15 00 00 00
	00		 call	 DWORD PTR __imp_?GetBestTechnique@ioMaterial@@QAEPAVioTechnique@@XZ
  000a4	8b f0		 mov	 esi, eax

; 1936 : 			}
; 1937 : 
; 1938 : 			if( !pSrcTech || !pCloneTech )

  000a6	85 f6		 test	 esi, esi
  000a8	74 56		 je	 SHORT $LN10@RestoreOut
  000aa	85 db		 test	 ebx, ebx
  000ac	74 52		 je	 SHORT $LN10@RestoreOut

; 1939 : 				continue;
; 1940 : 
; 1941 : 			ioPass *pClonePass = pCloneTech->GetPassByShaderGrp( SGT_OUTLINE );

  000ae	6a 05		 push	 5
  000b0	8b cb		 mov	 ecx, ebx
  000b2	ff d7		 call	 edi

; 1942 : 			ioPass *pSrcPass = pSrcTech->GetPassByShaderGrp( SGT_OUTLINE );

  000b4	6a 05		 push	 5
  000b6	8b ce		 mov	 ecx, esi
  000b8	8b d8		 mov	 ebx, eax
  000ba	ff d7		 call	 edi
  000bc	8b f0		 mov	 esi, eax

; 1943 : 
; 1944 : 			if( !pClonePass || !pSrcPass )

  000be	85 db		 test	 ebx, ebx
  000c0	74 3e		 je	 SHORT $LN10@RestoreOut
  000c2	85 f6		 test	 esi, esi
  000c4	74 3a		 je	 SHORT $LN10@RestoreOut

; 1945 : 				continue;
; 1946 : 
; 1947 : 			ioShaderCustomArg *pArg = pSrcPass->GetCustomArg( "OutLineThickness" );

  000c6	68 00 00 00 00	 push	 OFFSET ??_C@_0BB@LONDJPHL@OutLineThickness?$AA@
  000cb	8d 4d cc	 lea	 ecx, DWORD PTR $T571391[ebp]
  000ce	ff 15 00 00 00
	00		 call	 DWORD PTR __imp_??0ioHashString@@QAE@PBD@Z
  000d4	83 65 fc 00	 and	 DWORD PTR __$EHRec$[ebp+8], 0
  000d8	8d 45 cc	 lea	 eax, DWORD PTR $T571391[ebp]
  000db	50		 push	 eax
  000dc	8b ce		 mov	 ecx, esi
  000de	ff 15 00 00 00
	00		 call	 DWORD PTR __imp_?GetCustomArg@ioPass@@QAEPAVioShaderCustomArg@@ABVioHashString@@@Z
  000e4	83 4d fc ff	 or	 DWORD PTR __$EHRec$[ebp+8], -1
  000e8	8d 4d cc	 lea	 ecx, DWORD PTR $T571391[ebp]
  000eb	8b f0		 mov	 esi, eax
  000ed	ff 15 00 00 00
	00		 call	 DWORD PTR __imp_??1ioHashString@@QAE@XZ

; 1948 : 			if( pArg )

  000f3	85 f6		 test	 esi, esi
  000f5	74 09		 je	 SHORT $LN10@RestoreOut

; 1949 : 			{
; 1950 : 				pClonePass->AddCustomParameter( *pArg );

  000f7	56		 push	 esi
  000f8	8b cb		 mov	 ecx, ebx
  000fa	ff 15 00 00 00
	00		 call	 DWORD PTR __imp_?AddCustomParameter@ioPass@@QAEXABVioShaderCustomArg@@@Z
$LN10@RestoreOut:

; 1919 : 		for( int j=0 ; j<iNumSubEntity ; j++ )

  00100	ff 45 f0	 inc	 DWORD PTR _j$568095[ebp]
  00103	8b 45 f0	 mov	 eax, DWORD PTR _j$568095[ebp]
  00106	3b 45 e4	 cmp	 eax, DWORD PTR _iNumSubEntity$568094[ebp]
  00109	0f 8c 46 ff ff
	ff		 jl	 $LN11@RestoreOut
  0010f	8b 75 e0	 mov	 esi, DWORD PTR _this$[ebp]
$LN13@RestoreOut:

; 1914 : 	for( int i=0 ; i<iNumEntity ; i++ )

  00112	ff 45 ec	 inc	 DWORD PTR _i$568089[ebp]
  00115	8b 45 ec	 mov	 eax, DWORD PTR _i$568089[ebp]
  00118	3b 45 dc	 cmp	 eax, DWORD PTR _iNumEntity$[ebp]
  0011b	0f 8c 0e ff ff
	ff		 jl	 $LN14@RestoreOut
$LN12@RestoreOut:

; 1951 : 			}
; 1952 : 		}
; 1953 : 	}
; 1954 : }

  00121	e8 00 00 00 00	 call	 __EH_epilog3
  00126	c3		 ret	 0
_TEXT	ENDS
;	COMDAT text$x
text$x	SEGMENT
__unwindfunclet$?RestoreOutLineThick@ioCreateChar@@QAEXXZ$0:
  00000	8d 4d cc	 lea	 ecx, DWORD PTR $T571391[ebp]
  00003	ff 25 00 00 00
	00		 jmp	 DWORD PTR __imp_??1ioHashString@@QAE@XZ
__ehhandler$?RestoreOutLineThick@ioCreateChar@@QAEXXZ:
  00009	8b 54 24 08	 mov	 edx, DWORD PTR [esp+8]
  0000d	8d 42 0c	 lea	 eax, DWORD PTR [edx+12]
  00010	8b 4a c8	 mov	 ecx, DWORD PTR [edx-56]
  00013	33 c8		 xor	 ecx, eax
  00015	e8 00 00 00 00	 call	 @__security_check_cookie@4
  0001a	b8 00 00 00 00	 mov	 eax, OFFSET __ehfuncinfo$?RestoreOutLineThick@ioCreateChar@@QAEXXZ
  0001f	e9 00 00 00 00	 jmp	 ___CxxFrameHandler3
text$x	ENDS
?RestoreOutLineThick@ioCreateChar@@QAEXXZ ENDP		; ioCreateChar::RestoreOutLineThick
PUBLIC	?ApplyOutLineByChangedThick@ioCreateChar@@IAEXPAVioEntity@@M@Z ; ioCreateChar::ApplyOutLineByChangedThick
EXTRN	__imp_??1ioShaderCustomArg@@QAE@XZ:PROC
EXTRN	__imp_?SetValue@ioShaderCustomArg@@QAEXM@Z:PROC
EXTRN	__imp_??0ioShaderCustomArg@@QAE@PBD@Z:PROC
;	COMDAT xdata$x
xdata$x	SEGMENT
__unwindtable$?ApplyOutLineByChangedThick@ioCreateChar@@IAEXPAVioEntity@@M@Z DD 0ffffffffH
	DD	FLAT:__unwindfunclet$?ApplyOutLineByChangedThick@ioCreateChar@@IAEXPAVioEntity@@M@Z$0
__ehfuncinfo$?ApplyOutLineByChangedThick@ioCreateChar@@IAEXPAVioEntity@@M@Z DD 019930522H
	DD	01H
	DD	FLAT:__unwindtable$?ApplyOutLineByChangedThick@ioCreateChar@@IAEXPAVioEntity@@M@Z
	DD	2 DUP(00H)
	DD	2 DUP(00H)
	DD	00H
	DD	01H
; Function compile flags: /Ogsp
xdata$x	ENDS
;	COMDAT ?ApplyOutLineByChangedThick@ioCreateChar@@IAEXPAVioEntity@@M@Z
_TEXT	SEGMENT
_kLineThickness$ = -48					; size = 36
__$EHRec$ = -12						; size = 12
_pEntity$ = 8						; size = 4
_fThick$ = 12						; size = 4
?ApplyOutLineByChangedThick@ioCreateChar@@IAEXPAVioEntity@@M@Z PROC ; ioCreateChar::ApplyOutLineByChangedThick, COMDAT
; _this$ = ecx

; 1957 : {

  00000	6a 24		 push	 36			; 00000024H
  00002	b8 00 00 00 00	 mov	 eax, __ehhandler$?ApplyOutLineByChangedThick@ioCreateChar@@IAEXPAVioEntity@@M@Z
  00007	e8 00 00 00 00	 call	 __EH_prolog3

; 1958 : 	if( !pEntity )	return;

  0000c	83 7d 08 00	 cmp	 DWORD PTR _pEntity$[ebp], 0
  00010	0f 84 83 00 00
	00		 je	 $LN8@ApplyOutLi

; 1959 : 
; 1960 : 	ioShaderCustomArg kLineThickness( "OutLineThickness" );

  00016	68 00 00 00 00	 push	 OFFSET ??_C@_0BB@LONDJPHL@OutLineThickness?$AA@
  0001b	8d 4d d0	 lea	 ecx, DWORD PTR _kLineThickness$[ebp]
  0001e	ff 15 00 00 00
	00		 call	 DWORD PTR __imp_??0ioShaderCustomArg@@QAE@PBD@Z

; 1961 : 	kLineThickness.SetValue( fThick );

  00024	f3 0f 10 45 0c	 movss	 xmm0, DWORD PTR _fThick$[ebp]
  00029	83 65 fc 00	 and	 DWORD PTR __$EHRec$[ebp+8], 0
  0002d	51		 push	 ecx
  0002e	8d 4d d0	 lea	 ecx, DWORD PTR _kLineThickness$[ebp]
  00031	f3 0f 11 04 24	 movss	 DWORD PTR [esp], xmm0
  00036	ff 15 00 00 00
	00		 call	 DWORD PTR __imp_?SetValue@ioShaderCustomArg@@QAEXM@Z

; 1962 : 
; 1963 : 	int iNumSubEntity = pEntity->GetNumSubEntity();

  0003c	8b 4d 08	 mov	 ecx, DWORD PTR _pEntity$[ebp]
  0003f	ff 15 00 00 00
	00		 call	 DWORD PTR __imp_?GetNumSubEntity@ioEntity@@QBEHXZ
  00045	8b f8		 mov	 edi, eax

; 1964 : 	for( int j=0 ; j<iNumSubEntity ; j++ )

  00047	33 f6		 xor	 esi, esi
  00049	85 ff		 test	 edi, edi
  0004b	7e 3f		 jle	 SHORT $LN4@ApplyOutLi
$LL6@ApplyOutLi:

; 1965 : 	{
; 1966 : 		ioSubEntity *pSubEntity = pEntity->GetSubEntity( j );

  0004d	8b 4d 08	 mov	 ecx, DWORD PTR _pEntity$[ebp]
  00050	56		 push	 esi
  00051	ff 15 00 00 00
	00		 call	 DWORD PTR __imp_?GetSubEntity@ioEntity@@QAEPAVioSubEntity@@H@Z

; 1967 : 
; 1968 : 		ioMaterial *pMaterial = pSubEntity->GetMaterial();

  00057	8b 10		 mov	 edx, DWORD PTR [eax]
  00059	8b c8		 mov	 ecx, eax
  0005b	ff 12		 call	 DWORD PTR [edx]

; 1969 : 		if( !pMaterial ) continue;

  0005d	85 c0		 test	 eax, eax
  0005f	74 26		 je	 SHORT $LN5@ApplyOutLi

; 1970 : 
; 1971 : 		ioTechnique *pTech = pMaterial->GetBestTechnique();

  00061	8b c8		 mov	 ecx, eax
  00063	ff 15 00 00 00
	00		 call	 DWORD PTR __imp_?GetBestTechnique@ioMaterial@@QAEPAVioTechnique@@XZ

; 1972 : 		if( !pTech ) continue;

  00069	85 c0		 test	 eax, eax
  0006b	74 1a		 je	 SHORT $LN5@ApplyOutLi

; 1973 : 
; 1974 : 		ioPass *pOutLine = pTech->GetPassByShaderGrp( SGT_OUTLINE );

  0006d	6a 05		 push	 5
  0006f	8b c8		 mov	 ecx, eax
  00071	ff 15 00 00 00
	00		 call	 DWORD PTR __imp_?GetPassByShaderGrp@ioTechnique@@QAEPAVioPass@@W4ShaderGroupType@@@Z

; 1975 : 		if( pOutLine )

  00077	85 c0		 test	 eax, eax
  00079	74 0c		 je	 SHORT $LN5@ApplyOutLi

; 1976 : 		{
; 1977 : 			pOutLine->AddCustomParameter( kLineThickness );

  0007b	8d 4d d0	 lea	 ecx, DWORD PTR _kLineThickness$[ebp]
  0007e	51		 push	 ecx
  0007f	8b c8		 mov	 ecx, eax
  00081	ff 15 00 00 00
	00		 call	 DWORD PTR __imp_?AddCustomParameter@ioPass@@QAEXABVioShaderCustomArg@@@Z
$LN5@ApplyOutLi:

; 1964 : 	for( int j=0 ; j<iNumSubEntity ; j++ )

  00087	46		 inc	 esi
  00088	3b f7		 cmp	 esi, edi
  0008a	7c c1		 jl	 SHORT $LL6@ApplyOutLi
$LN4@ApplyOutLi:

; 1978 : 		}
; 1979 : 	}
; 1980 : }

  0008c	83 4d fc ff	 or	 DWORD PTR __$EHRec$[ebp+8], -1
  00090	8d 4d d0	 lea	 ecx, DWORD PTR _kLineThickness$[ebp]
  00093	ff 15 00 00 00
	00		 call	 DWORD PTR __imp_??1ioShaderCustomArg@@QAE@XZ
$LN8@ApplyOutLi:
  00099	e8 00 00 00 00	 call	 __EH_epilog3
  0009e	c2 08 00	 ret	 8
_TEXT	ENDS
;	COMDAT text$x
text$x	SEGMENT
__unwindfunclet$?ApplyOutLineByChangedThick@ioCreateChar@@IAEXPAVioEntity@@M@Z$0:
  00000	8d 4d d0	 lea	 ecx, DWORD PTR _kLineThickness$[ebp]
  00003	ff 25 00 00 00
	00		 jmp	 DWORD PTR __imp_??1ioShaderCustomArg@@QAE@XZ
__ehhandler$?ApplyOutLineByChangedThick@ioCreateChar@@IAEXPAVioEntity@@M@Z:
  00009	8b 54 24 08	 mov	 edx, DWORD PTR [esp+8]
  0000d	8d 42 0c	 lea	 eax, DWORD PTR [edx+12]
  00010	8b 4a cc	 mov	 ecx, DWORD PTR [edx-52]
  00013	33 c8		 xor	 ecx, eax
  00015	e8 00 00 00 00	 call	 @__security_check_cookie@4
  0001a	b8 00 00 00 00	 mov	 eax, OFFSET __ehfuncinfo$?ApplyOutLineByChangedThick@ioCreateChar@@IAEXPAVioEntity@@M@Z
  0001f	e9 00 00 00 00	 jmp	 ___CxxFrameHandler3
text$x	ENDS
?ApplyOutLineByChangedThick@ioCreateChar@@IAEXPAVioEntity@@M@Z ENDP ; ioCreateChar::ApplyOutLineByChangedThick
PUBLIC	?GetWorldPosition@ioCreateChar@@QBE?AUD3DXVECTOR3@@XZ ; ioCreateChar::GetWorldPosition
; Function compile flags: /Ogsp
;	COMDAT ?GetWorldPosition@ioCreateChar@@QBE?AUD3DXVECTOR3@@XZ
_TEXT	SEGMENT
___$ReturnUdt$ = 8					; size = 4
?GetWorldPosition@ioCreateChar@@QBE?AUD3DXVECTOR3@@XZ PROC ; ioCreateChar::GetWorldPosition, COMDAT
; _this$ = ecx

; 1983 : {

  00000	55		 push	 ebp
  00001	8b ec		 mov	 ebp, esp

; 1984 : 	return m_pGrp->GetParentNode()->GetDerivedPosition();

  00003	8b 49 04	 mov	 ecx, DWORD PTR [ecx+4]
  00006	8b 01		 mov	 eax, DWORD PTR [ecx]
  00008	56		 push	 esi
  00009	57		 push	 edi
  0000a	ff 50 30	 call	 DWORD PTR [eax+48]
  0000d	8b 10		 mov	 edx, DWORD PTR [eax]
  0000f	8b c8		 mov	 ecx, eax
  00011	ff 52 7c	 call	 DWORD PTR [edx+124]
  00014	8b f0		 mov	 esi, eax
  00016	8b 45 08	 mov	 eax, DWORD PTR ___$ReturnUdt$[ebp]
  00019	8b f8		 mov	 edi, eax
  0001b	a5		 movsd
  0001c	a5		 movsd
  0001d	a5		 movsd
  0001e	5f		 pop	 edi
  0001f	5e		 pop	 esi

; 1985 : }

  00020	5d		 pop	 ebp
  00021	c2 04 00	 ret	 4
?GetWorldPosition@ioCreateChar@@QBE?AUD3DXVECTOR3@@XZ ENDP ; ioCreateChar::GetWorldPosition
_TEXT	ENDS
PUBLIC	?ShowFaceMesh@ioCreateChar@@QAEX_N@Z		; ioCreateChar::ShowFaceMesh
EXTRN	__imp_?SetEntityVisible@ioEntityGroup@@QAEXABVioHashString@@_N@Z:PROC
; Function compile flags: /Ogsp
;	COMDAT ?ShowFaceMesh@ioCreateChar@@QAEX_N@Z
_TEXT	SEGMENT
_bShow$ = 8						; size = 1
?ShowFaceMesh@ioCreateChar@@QAEX_N@Z PROC		; ioCreateChar::ShowFaceMesh, COMDAT
; _this$ = ecx

; 2063 : {

  00000	55		 push	 ebp
  00001	8b ec		 mov	 ebp, esp
  00003	53		 push	 ebx

; 2064 : 	m_pGrp->SetEntityVisible( m_CurFaceMesh, bShow );

  00004	8b 5d 08	 mov	 ebx, DWORD PTR _bShow$[ebp]
  00007	56		 push	 esi
  00008	57		 push	 edi
  00009	8b 3d 00 00 00
	00		 mov	 edi, DWORD PTR __imp_?SetEntityVisible@ioEntityGroup@@QAEXABVioHashString@@_N@Z
  0000f	8b f1		 mov	 esi, ecx
  00011	8b 4e 04	 mov	 ecx, DWORD PTR [esi+4]
  00014	53		 push	 ebx
  00015	8d 86 10 01 00
	00		 lea	 eax, DWORD PTR [esi+272]
  0001b	50		 push	 eax
  0001c	ff d7		 call	 edi

; 2065 : 
; 2066 : 	m_pGrp->SetEntityVisible( m_DefaultHairMesh, bShow );

  0001e	8b 4e 04	 mov	 ecx, DWORD PTR [esi+4]
  00021	53		 push	 ebx
  00022	8d 86 40 01 00
	00		 lea	 eax, DWORD PTR [esi+320]
  00028	50		 push	 eax
  00029	ff d7		 call	 edi

; 2067 : 	m_pGrp->SetEntityVisible( m_DefaultBindHairMesh, bShow );

  0002b	8b 4e 04	 mov	 ecx, DWORD PTR [esi+4]
  0002e	53		 push	 ebx
  0002f	8d 86 50 01 00
	00		 lea	 eax, DWORD PTR [esi+336]
  00035	50		 push	 eax
  00036	ff d7		 call	 edi

; 2068 : 	m_pGrp->SetEntityVisible( m_DefaultHalfHairMesh, bShow );

  00038	8b 4e 04	 mov	 ecx, DWORD PTR [esi+4]
  0003b	53		 push	 ebx
  0003c	8d 86 60 01 00
	00		 lea	 eax, DWORD PTR [esi+352]
  00042	50		 push	 eax
  00043	ff d7		 call	 edi
  00045	5f		 pop	 edi
  00046	5e		 pop	 esi
  00047	5b		 pop	 ebx

; 2069 : 
; 2070 : 	/*
; 2071 : 	if( bShow )
; 2072 : 		AttachEffect( m_FaceEffect, NULL );
; 2073 : 	else
; 2074 : 		m_pGrp->EndEffect( m_FaceEffect, false );
; 2075 : 	*/
; 2076 : }

  00048	5d		 pop	 ebp
  00049	c2 04 00	 ret	 4
?ShowFaceMesh@ioCreateChar@@QAEX_N@Z ENDP		; ioCreateChar::ShowFaceMesh
_TEXT	ENDS
PUBLIC	?ReleaseEquipEffect@ioCreateChar@@QAEXH@Z	; ioCreateChar::ReleaseEquipEffect
EXTRN	__imp_??0ioHashString@@QAE@ABV0@@Z:PROC
EXTRN	?GetItemEquipEffect@ioItem@@QBEABVioHashString@@_N@Z:PROC ; ioItem::GetItemEquipEffect
;	COMDAT xdata$x
xdata$x	SEGMENT
__unwindtable$?ReleaseEquipEffect@ioCreateChar@@QAEXH@Z DD 0ffffffffH
	DD	FLAT:__unwindfunclet$?ReleaseEquipEffect@ioCreateChar@@QAEXH@Z$0
__ehfuncinfo$?ReleaseEquipEffect@ioCreateChar@@QAEXH@Z DD 019930522H
	DD	01H
	DD	FLAT:__unwindtable$?ReleaseEquipEffect@ioCreateChar@@QAEXH@Z
	DD	2 DUP(00H)
	DD	2 DUP(00H)
	DD	00H
	DD	01H
; Function compile flags: /Ogsp
xdata$x	ENDS
;	COMDAT ?ReleaseEquipEffect@ioCreateChar@@QAEXH@Z
_TEXT	SEGMENT
_szEquipEffect$ = -28					; size = 16
__$EHRec$ = -12						; size = 12
_iSlot$ = 8						; size = 4
?ReleaseEquipEffect@ioCreateChar@@QAEXH@Z PROC		; ioCreateChar::ReleaseEquipEffect, COMDAT
; _this$ = ecx

; 2079 : {

  00000	6a 10		 push	 16			; 00000010H
  00002	b8 00 00 00 00	 mov	 eax, __ehhandler$?ReleaseEquipEffect@ioCreateChar@@QAEXH@Z
  00007	e8 00 00 00 00	 call	 __EH_prolog3
  0000c	8b f1		 mov	 esi, ecx

; 2080 : 	const ioItem *pItem = GetSlotItem( iSlot );

  0000e	ff 75 08	 push	 DWORD PTR _iSlot$[ebp]
  00011	e8 00 00 00 00	 call	 ?GetSlotItem@ioCreateChar@@QAEPBVioItem@@H@Z ; ioCreateChar::GetSlotItem

; 2081 : 	if( !pItem )	return;

  00016	85 c0		 test	 eax, eax
  00018	74 45		 je	 SHORT $LN3@ReleaseEqu

; 2082 : 
; 2083 : 	ioHashString szEquipEffect = pItem->GetItemEquipEffect( m_bMale );

  0001a	0f b6 4e 1c	 movzx	 ecx, BYTE PTR [esi+28]
  0001e	51		 push	 ecx
  0001f	8b c8		 mov	 ecx, eax
  00021	e8 00 00 00 00	 call	 ?GetItemEquipEffect@ioItem@@QBEABVioHashString@@_N@Z ; ioItem::GetItemEquipEffect
  00026	50		 push	 eax
  00027	8d 4d e4	 lea	 ecx, DWORD PTR _szEquipEffect$[ebp]
  0002a	ff 15 00 00 00
	00		 call	 DWORD PTR __imp_??0ioHashString@@QAE@ABV0@@Z
  00030	83 65 fc 00	 and	 DWORD PTR __$EHRec$[ebp+8], 0

; 2084 : 	if( !szEquipEffect.IsEmpty() )

  00034	8d 4d e4	 lea	 ecx, DWORD PTR _szEquipEffect$[ebp]
  00037	ff 15 00 00 00
	00		 call	 DWORD PTR __imp_?IsEmpty@ioHashString@@QBE_NXZ
  0003d	84 c0		 test	 al, al
  0003f	75 11		 jne	 SHORT $LN1@ReleaseEqu

; 2085 : 	{
; 2086 : 		m_pGrp->EndEffect( szEquipEffect, false);

  00041	8b 4e 04	 mov	 ecx, DWORD PTR [esi+4]
  00044	6a 01		 push	 1
  00046	6a 00		 push	 0
  00048	8d 45 e4	 lea	 eax, DWORD PTR _szEquipEffect$[ebp]
  0004b	50		 push	 eax
  0004c	ff 15 00 00 00
	00		 call	 DWORD PTR __imp_?EndEffect@ioEntityGroup@@QAEXABVioHashString@@_N1@Z
$LN1@ReleaseEqu:

; 2087 : 	}
; 2088 : }

  00052	83 4d fc ff	 or	 DWORD PTR __$EHRec$[ebp+8], -1
  00056	8d 4d e4	 lea	 ecx, DWORD PTR _szEquipEffect$[ebp]
  00059	ff 15 00 00 00
	00		 call	 DWORD PTR __imp_??1ioHashString@@QAE@XZ
$LN3@ReleaseEqu:
  0005f	e8 00 00 00 00	 call	 __EH_epilog3
  00064	c2 04 00	 ret	 4
_TEXT	ENDS
;	COMDAT text$x
text$x	SEGMENT
__unwindfunclet$?ReleaseEquipEffect@ioCreateChar@@QAEXH@Z$0:
  00000	8d 4d e4	 lea	 ecx, DWORD PTR _szEquipEffect$[ebp]
  00003	ff 25 00 00 00
	00		 jmp	 DWORD PTR __imp_??1ioHashString@@QAE@XZ
__ehhandler$?ReleaseEquipEffect@ioCreateChar@@QAEXH@Z:
  00009	8b 54 24 08	 mov	 edx, DWORD PTR [esp+8]
  0000d	8d 42 0c	 lea	 eax, DWORD PTR [edx+12]
  00010	8b 4a e0	 mov	 ecx, DWORD PTR [edx-32]
  00013	33 c8		 xor	 ecx, eax
  00015	e8 00 00 00 00	 call	 @__security_check_cookie@4
  0001a	b8 00 00 00 00	 mov	 eax, OFFSET __ehfuncinfo$?ReleaseEquipEffect@ioCreateChar@@QAEXH@Z
  0001f	e9 00 00 00 00	 jmp	 ___CxxFrameHandler3
text$x	ENDS
?ReleaseEquipEffect@ioCreateChar@@QAEXH@Z ENDP		; ioCreateChar::ReleaseEquipEffect
PUBLIC	?SetCostumeSlot@ioCreateChar@@QAEXHH@Z		; ioCreateChar::SetCostumeSlot
EXTRN	?GetCostumeInfo@ioCostumeInfoManager@@QAE_NHAAUtagCostumeInfo@@@Z:PROC ; ioCostumeInfoManager::GetCostumeInfo
EXTRN	?GetSingleton@ioCostumeInfoManager@@SAAAV1@XZ:PROC ; ioCostumeInfoManager::GetSingleton
; Function compile flags: /Ogsp
;	COMDAT ?SetCostumeSlot@ioCreateChar@@QAEXHH@Z
_TEXT	SEGMENT
_nSlot$ = 8						; size = 4
_nCostumeCode$ = 12					; size = 4
?SetCostumeSlot@ioCreateChar@@QAEXHH@Z PROC		; ioCreateChar::SetCostumeSlot, COMDAT
; _this$ = ecx

; 2093 : {

  00000	55		 push	 ebp
  00001	8b ec		 mov	 ebp, esp

; 2094 : 	if( !COMPARE( nSlot, CCS_WEAPON, MAX_CCS ) )

  00003	8b 45 08	 mov	 eax, DWORD PTR _nSlot$[ebp]
  00006	83 f8 03	 cmp	 eax, 3
  00009	77 1d		 ja	 SHORT $LN1@SetCostume

; 2095 : 		return;
; 2096 : 
; 2097 : 	g_CostumeInfoMgr.GetCostumeInfo( nCostumeCode, m_CostumeSlot[nSlot] );

  0000b	69 c0 dc 00 00
	00		 imul	 eax, 220		; 000000dcH
  00011	8d 84 08 38 02
	00 00		 lea	 eax, DWORD PTR [eax+ecx+568]
  00018	50		 push	 eax
  00019	ff 75 0c	 push	 DWORD PTR _nCostumeCode$[ebp]
  0001c	e8 00 00 00 00	 call	 ?GetSingleton@ioCostumeInfoManager@@SAAAV1@XZ ; ioCostumeInfoManager::GetSingleton
  00021	8b c8		 mov	 ecx, eax
  00023	e8 00 00 00 00	 call	 ?GetCostumeInfo@ioCostumeInfoManager@@QAE_NHAAUtagCostumeInfo@@@Z ; ioCostumeInfoManager::GetCostumeInfo
$LN1@SetCostume:

; 2098 : }

  00028	5d		 pop	 ebp
  00029	c2 08 00	 ret	 8
?SetCostumeSlot@ioCreateChar@@QAEXHH@Z ENDP		; ioCreateChar::SetCostumeSlot
_TEXT	ENDS
PUBLIC	?GetCostumeSlot@ioCreateChar@@QAEPBUtagCostumeInfo@@H@Z ; ioCreateChar::GetCostumeSlot
; Function compile flags: /Ogsp
;	COMDAT ?GetCostumeSlot@ioCreateChar@@QAEPBUtagCostumeInfo@@H@Z
_TEXT	SEGMENT
_nSlot$ = 8						; size = 4
?GetCostumeSlot@ioCreateChar@@QAEPBUtagCostumeInfo@@H@Z PROC ; ioCreateChar::GetCostumeSlot, COMDAT
; _this$ = ecx

; 2101 : {

  00000	55		 push	 ebp
  00001	8b ec		 mov	 ebp, esp

; 2102 : 	if( !COMPARE( nSlot, CCS_WEAPON, MAX_CCS ) )

  00003	8b 45 08	 mov	 eax, DWORD PTR _nSlot$[ebp]
  00006	83 f8 03	 cmp	 eax, 3
  00009	77 0f		 ja	 SHORT $LN1@GetCostume

; 2104 : 
; 2105 : 	return &m_CostumeSlot[nSlot];

  0000b	69 c0 dc 00 00
	00		 imul	 eax, 220		; 000000dcH
  00011	8d 84 08 38 02
	00 00		 lea	 eax, DWORD PTR [eax+ecx+568]
  00018	eb 02		 jmp	 SHORT $LN3@GetCostume
$LN1@GetCostume:

; 2103 : 		return NULL;

  0001a	33 c0		 xor	 eax, eax
$LN3@GetCostume:

; 2106 : }

  0001c	5d		 pop	 ebp
  0001d	c2 04 00	 ret	 4
?GetCostumeSlot@ioCreateChar@@QAEPBUtagCostumeInfo@@H@Z ENDP ; ioCreateChar::GetCostumeSlot
_TEXT	ENDS
PUBLIC	?GetCostumeEffect@ioCreateChar@@QAE?AVioHashString@@PBUtagCostumeInfo@@@Z ; ioCreateChar::GetCostumeEffect
EXTRN	__imp_??0ioHashString@@QAE@XZ:PROC
;	COMDAT xdata$x
xdata$x	SEGMENT
__unwindtable$?GetCostumeEffect@ioCreateChar@@QAE?AVioHashString@@PBUtagCostumeInfo@@@Z DD 0ffffffffH
	DD	FLAT:__unwindfunclet$?GetCostumeEffect@ioCreateChar@@QAE?AVioHashString@@PBUtagCostumeInfo@@@Z$1
	DD	00H
	DD	FLAT:__unwindfunclet$?GetCostumeEffect@ioCreateChar@@QAE?AVioHashString@@PBUtagCostumeInfo@@@Z$0
__ehfuncinfo$?GetCostumeEffect@ioCreateChar@@QAE?AVioHashString@@PBUtagCostumeInfo@@@Z DD 019930522H
	DD	02H
	DD	FLAT:__unwindtable$?GetCostumeEffect@ioCreateChar@@QAE?AVioHashString@@PBUtagCostumeInfo@@@Z
	DD	2 DUP(00H)
	DD	2 DUP(00H)
	DD	00H
	DD	01H
; Function compile flags: /Ogsp
xdata$x	ENDS
;	COMDAT ?GetCostumeEffect@ioCreateChar@@QAE?AVioHashString@@PBUtagCostumeInfo@@@Z
_TEXT	SEGMENT
_szEquipEffect$ = -32					; size = 16
$T571440 = -16						; size = 4
__$EHRec$ = -12						; size = 12
___$ReturnUdt$ = 8					; size = 4
_pCostumeInfo$ = 12					; size = 4
?GetCostumeEffect@ioCreateChar@@QAE?AVioHashString@@PBUtagCostumeInfo@@@Z PROC ; ioCreateChar::GetCostumeEffect, COMDAT
; _this$ = ecx

; 2109 : {

  00000	6a 14		 push	 20			; 00000014H
  00002	b8 00 00 00 00	 mov	 eax, __ehhandler$?GetCostumeEffect@ioCreateChar@@QAE?AVioHashString@@PBUtagCostumeInfo@@@Z
  00007	e8 00 00 00 00	 call	 __EH_prolog3
  0000c	8b d9		 mov	 ebx, ecx
  0000e	83 65 f0 00	 and	 DWORD PTR $T571440[ebp], 0

; 2110 : 	ioHashString szEquipEffect;

  00012	8d 4d e0	 lea	 ecx, DWORD PTR _szEquipEffect$[ebp]
  00015	ff 15 00 00 00
	00		 call	 DWORD PTR __imp_??0ioHashString@@QAE@XZ

; 2111 : 	if ( !pCostumeInfo )

  0001b	8b 7d 0c	 mov	 edi, DWORD PTR _pCostumeInfo$[ebp]
  0001e	33 f6		 xor	 esi, esi
  00020	46		 inc	 esi
  00021	89 75 fc	 mov	 DWORD PTR __$EHRec$[ebp+8], esi
  00024	85 ff		 test	 edi, edi
  00026	75 0f		 jne	 SHORT $LN5@GetCostume@2

; 2112 : 		return szEquipEffect;

  00028	8b 4d 08	 mov	 ecx, DWORD PTR ___$ReturnUdt$[ebp]
  0002b	8d 45 e0	 lea	 eax, DWORD PTR _szEquipEffect$[ebp]
  0002e	50		 push	 eax
  0002f	ff 15 00 00 00
	00		 call	 DWORD PTR __imp_??0ioHashString@@QAE@ABV0@@Z
  00035	eb 32		 jmp	 SHORT $LN12@GetCostume@2
$LN5@GetCostume@2:

; 2113 : 
; 2114 : 	if( m_bMale )

  00037	80 7b 1c 00	 cmp	 BYTE PTR [ebx+28], 0
  0003b	74 06		 je	 SHORT $LN4@GetCostume@2
$LN14@GetCostume@2:

; 2115 : 		szEquipEffect = pCostumeInfo->m_szEffect;

  0003d	83 c7 18	 add	 edi, 24			; 00000018H
  00040	57		 push	 edi
  00041	eb 10		 jmp	 SHORT $LN13@GetCostume@2
$LN4@GetCostume@2:

; 2116 : 	else if( pCostumeInfo->m_szEffectHW.IsEmpty() )

  00043	8d 5f 28	 lea	 ebx, DWORD PTR [edi+40]
  00046	8b cb		 mov	 ecx, ebx
  00048	ff 15 00 00 00
	00		 call	 DWORD PTR __imp_?IsEmpty@ioHashString@@QBE_NXZ
  0004e	84 c0		 test	 al, al

; 2117 : 		szEquipEffect = pCostumeInfo->m_szEffect;
; 2118 : 	else

  00050	75 eb		 jne	 SHORT $LN14@GetCostume@2

; 2119 : 		szEquipEffect = pCostumeInfo->m_szEffectHW;

  00052	53		 push	 ebx
$LN13@GetCostume@2:
  00053	8d 4d e0	 lea	 ecx, DWORD PTR _szEquipEffect$[ebp]
  00056	ff 15 00 00 00
	00		 call	 DWORD PTR __imp_??4ioHashString@@QAEAAV0@ABV0@@Z

; 2120 : 
; 2121 : 	return szEquipEffect;

  0005c	8b 4d 08	 mov	 ecx, DWORD PTR ___$ReturnUdt$[ebp]
  0005f	8d 45 e0	 lea	 eax, DWORD PTR _szEquipEffect$[ebp]
  00062	50		 push	 eax
  00063	ff 15 00 00 00
	00		 call	 DWORD PTR __imp_??0ioHashString@@QAE@ABV0@@Z
$LN12@GetCostume@2:
  00069	8d 4d e0	 lea	 ecx, DWORD PTR _szEquipEffect$[ebp]
  0006c	89 75 f0	 mov	 DWORD PTR $T571440[ebp], esi
  0006f	c6 45 fc 00	 mov	 BYTE PTR __$EHRec$[ebp+8], 0
  00073	ff 15 00 00 00
	00		 call	 DWORD PTR __imp_??1ioHashString@@QAE@XZ
  00079	8b 45 08	 mov	 eax, DWORD PTR ___$ReturnUdt$[ebp]

; 2122 : }

  0007c	e8 00 00 00 00	 call	 __EH_epilog3
  00081	c2 08 00	 ret	 8
_TEXT	ENDS
;	COMDAT text$x
text$x	SEGMENT
__unwindfunclet$?GetCostumeEffect@ioCreateChar@@QAE?AVioHashString@@PBUtagCostumeInfo@@@Z$0:
  00000	8d 4d e0	 lea	 ecx, DWORD PTR _szEquipEffect$[ebp]
  00003	ff 25 00 00 00
	00		 jmp	 DWORD PTR __imp_??1ioHashString@@QAE@XZ
__unwindfunclet$?GetCostumeEffect@ioCreateChar@@QAE?AVioHashString@@PBUtagCostumeInfo@@@Z$1:
  00009	8b 45 f0	 mov	 eax, DWORD PTR $T571440[ebp]
  0000c	83 e0 01	 and	 eax, 1
  0000f	0f 84 0d 00 00
	00		 je	 $LN10@GetCostume@2
  00015	83 65 f0 fe	 and	 DWORD PTR $T571440[ebp], -2 ; fffffffeH
  00019	8b 4d 08	 mov	 ecx, DWORD PTR ___$ReturnUdt$[ebp]
  0001c	ff 25 00 00 00
	00		 jmp	 DWORD PTR __imp_??1ioHashString@@QAE@XZ
$LN10@GetCostume@2:
  00022	c3		 ret	 0
__ehhandler$?GetCostumeEffect@ioCreateChar@@QAE?AVioHashString@@PBUtagCostumeInfo@@@Z:
  00023	8b 54 24 08	 mov	 edx, DWORD PTR [esp+8]
  00027	8d 42 0c	 lea	 eax, DWORD PTR [edx+12]
  0002a	8b 4a dc	 mov	 ecx, DWORD PTR [edx-36]
  0002d	33 c8		 xor	 ecx, eax
  0002f	e8 00 00 00 00	 call	 @__security_check_cookie@4
  00034	b8 00 00 00 00	 mov	 eax, OFFSET __ehfuncinfo$?GetCostumeEffect@ioCreateChar@@QAE?AVioHashString@@PBUtagCostumeInfo@@@Z
  00039	e9 00 00 00 00	 jmp	 ___CxxFrameHandler3
text$x	ENDS
?GetCostumeEffect@ioCreateChar@@QAE?AVioHashString@@PBUtagCostumeInfo@@@Z ENDP ; ioCreateChar::GetCostumeEffect
PUBLIC	?size@?$vector@UCustomTexture@@V?$allocator@UCustomTexture@@@std@@@std@@QBEIXZ ; std::vector<CustomTexture,std::allocator<CustomTexture> >::size
; Function compile flags: /Ogsp
; File c:\program files (x86)\microsoft visual studio 10.0\vc\include\vector
;	COMDAT ?size@?$vector@UCustomTexture@@V?$allocator@UCustomTexture@@@std@@@std@@QBEIXZ
_TEXT	SEGMENT
?size@?$vector@UCustomTexture@@V?$allocator@UCustomTexture@@@std@@@std@@QBEIXZ PROC ; std::vector<CustomTexture,std::allocator<CustomTexture> >::size, COMDAT
; _this$ = ecx

; 879  : 		return (this->_Mylast - this->_Myfirst);

  00000	8b 41 04	 mov	 eax, DWORD PTR [ecx+4]
  00003	2b 01		 sub	 eax, DWORD PTR [ecx]
  00005	6a 14		 push	 20			; 00000014H
  00007	99		 cdq
  00008	59		 pop	 ecx
  00009	f7 f9		 idiv	 ecx

; 880  : 		}

  0000b	c3		 ret	 0
?size@?$vector@UCustomTexture@@V?$allocator@UCustomTexture@@@std@@@std@@QBEIXZ ENDP ; std::vector<CustomTexture,std::allocator<CustomTexture> >::size
_TEXT	ENDS
PUBLIC	?empty@?$vector@UCustomTexture@@V?$allocator@UCustomTexture@@@std@@@std@@QBE_NXZ ; std::vector<CustomTexture,std::allocator<CustomTexture> >::empty
; Function compile flags: /Ogsp
;	COMDAT ?empty@?$vector@UCustomTexture@@V?$allocator@UCustomTexture@@@std@@@std@@QBE_NXZ
_TEXT	SEGMENT
?empty@?$vector@UCustomTexture@@V?$allocator@UCustomTexture@@@std@@@std@@QBE_NXZ PROC ; std::vector<CustomTexture,std::allocator<CustomTexture> >::empty, COMDAT
; _this$ = ecx

; 889  : 		return (this->_Myfirst == this->_Mylast);

  00000	8b 01		 mov	 eax, DWORD PTR [ecx]
  00002	2b 41 04	 sub	 eax, DWORD PTR [ecx+4]
  00005	f7 d8		 neg	 eax
  00007	1b c0		 sbb	 eax, eax
  00009	40		 inc	 eax

; 890  : 		}

  0000a	c3		 ret	 0
?empty@?$vector@UCustomTexture@@V?$allocator@UCustomTexture@@@std@@@std@@QBE_NXZ ENDP ; std::vector<CustomTexture,std::allocator<CustomTexture> >::empty
_TEXT	ENDS
PUBLIC	??A?$vector@UCustomTexture@@V?$allocator@UCustomTexture@@@std@@@std@@QAEAAUCustomTexture@@I@Z ; std::vector<CustomTexture,std::allocator<CustomTexture> >::operator[]
; Function compile flags: /Ogsp
;	COMDAT ??A?$vector@UCustomTexture@@V?$allocator@UCustomTexture@@@std@@@std@@QAEAAUCustomTexture@@I@Z
_TEXT	SEGMENT
__Pos$ = 8						; size = 4
??A?$vector@UCustomTexture@@V?$allocator@UCustomTexture@@@std@@@std@@QAEAAUCustomTexture@@I@Z PROC ; std::vector<CustomTexture,std::allocator<CustomTexture> >::operator[], COMDAT
; _this$ = ecx

; 928  : 		{	// subscript mutable sequence

  00000	55		 push	 ebp
  00001	8b ec		 mov	 ebp, esp

; 929  :  #if _ITERATOR_DEBUG_LEVEL == 2
; 930  : 		if (size() <= _Pos)
; 931  : 			{	// report error
; 932  : 			_DEBUG_ERROR("vector subscript out of range");
; 933  : 			_SCL_SECURE_OUT_OF_RANGE;
; 934  : 			}
; 935  : 
; 936  :  #elif _ITERATOR_DEBUG_LEVEL == 1
; 937  : 		_SCL_SECURE_VALIDATE_RANGE(_Pos < size());
; 938  :  #endif /* _ITERATOR_DEBUG_LEVEL */
; 939  : 
; 940  : 		return (*(this->_Myfirst + _Pos));

  00003	8b 45 08	 mov	 eax, DWORD PTR __Pos$[ebp]
  00006	6b c0 14	 imul	 eax, 20			; 00000014H
  00009	03 01		 add	 eax, DWORD PTR [ecx]

; 941  : 		}

  0000b	5d		 pop	 ebp
  0000c	c2 04 00	 ret	 4
??A?$vector@UCustomTexture@@V?$allocator@UCustomTexture@@@std@@@std@@QAEAAUCustomTexture@@I@Z ENDP ; std::vector<CustomTexture,std::allocator<CustomTexture> >::operator[]
_TEXT	ENDS
PUBLIC	?empty@?$list@MV?$allocator@M@std@@@std@@QBE_NXZ ; std::list<float,std::allocator<float> >::empty
; Function compile flags: /Ogsp
; File c:\program files (x86)\microsoft visual studio 10.0\vc\include\list
;	COMDAT ?empty@?$list@MV?$allocator@M@std@@@std@@QBE_NXZ
_TEXT	SEGMENT
?empty@?$list@MV?$allocator@M@std@@@std@@QBE_NXZ PROC	; std::list<float,std::allocator<float> >::empty, COMDAT
; _this$ = ecx

; 887  : 		return (this->_Mysize == 0);

  00000	33 c0		 xor	 eax, eax
  00002	39 41 04	 cmp	 DWORD PTR [ecx+4], eax
  00005	0f 94 c0	 sete	 al

; 888  : 		}

  00008	c3		 ret	 0
?empty@?$list@MV?$allocator@M@std@@@std@@QBE_NXZ ENDP	; std::list<float,std::allocator<float> >::empty
_TEXT	ENDS
PUBLIC	?capacity@?$vector@VioHashString@@V?$allocator@VioHashString@@@std@@@std@@QBEIXZ ; std::vector<ioHashString,std::allocator<ioHashString> >::capacity
; Function compile flags: /Ogsp
; File c:\program files (x86)\microsoft visual studio 10.0\vc\include\vector
;	COMDAT ?capacity@?$vector@VioHashString@@V?$allocator@VioHashString@@@std@@@std@@QBEIXZ
_TEXT	SEGMENT
?capacity@?$vector@VioHashString@@V?$allocator@VioHashString@@@std@@@std@@QBEIXZ PROC ; std::vector<ioHashString,std::allocator<ioHashString> >::capacity, COMDAT
; _this$ = ecx

; 777  : 		return (this->_Myend - this->_Myfirst);

  00000	8b 41 08	 mov	 eax, DWORD PTR [ecx+8]
  00003	2b 01		 sub	 eax, DWORD PTR [ecx]
  00005	c1 f8 04	 sar	 eax, 4

; 778  : 		}

  00008	c3		 ret	 0
?capacity@?$vector@VioHashString@@V?$allocator@VioHashString@@@std@@@std@@QBEIXZ ENDP ; std::vector<ioHashString,std::allocator<ioHashString> >::capacity
_TEXT	ENDS
PUBLIC	?_Inside@?$vector@VioHashString@@V?$allocator@VioHashString@@@std@@@std@@IBE_NPBVioHashString@@@Z ; std::vector<ioHashString,std::allocator<ioHashString> >::_Inside
; Function compile flags: /Ogsp
;	COMDAT ?_Inside@?$vector@VioHashString@@V?$allocator@VioHashString@@@std@@@std@@IBE_NPBVioHashString@@@Z
_TEXT	SEGMENT
__Ptr$ = 8						; size = 4
?_Inside@?$vector@VioHashString@@V?$allocator@VioHashString@@@std@@@std@@IBE_NPBVioHashString@@@Z PROC ; std::vector<ioHashString,std::allocator<ioHashString> >::_Inside, COMDAT
; _this$ = ecx

; 1285 : 		{	// test if _Ptr points inside vector

  00000	55		 push	 ebp
  00001	8b ec		 mov	 ebp, esp

; 1286 : 		return (_Ptr < this->_Mylast && this->_Myfirst <= _Ptr);

  00003	8b 45 08	 mov	 eax, DWORD PTR __Ptr$[ebp]
  00006	3b 41 04	 cmp	 eax, DWORD PTR [ecx+4]
  00009	73 09		 jae	 SHORT $LN3@Inside
  0000b	39 01		 cmp	 DWORD PTR [ecx], eax
  0000d	77 05		 ja	 SHORT $LN3@Inside
  0000f	33 c0		 xor	 eax, eax
  00011	40		 inc	 eax
  00012	eb 02		 jmp	 SHORT $LN4@Inside
$LN3@Inside:
  00014	33 c0		 xor	 eax, eax
$LN4@Inside:

; 1287 : 		}

  00016	5d		 pop	 ebp
  00017	c2 04 00	 ret	 4
?_Inside@?$vector@VioHashString@@V?$allocator@VioHashString@@@std@@@std@@IBE_NPBVioHashString@@@Z ENDP ; std::vector<ioHashString,std::allocator<ioHashString> >::_Inside
_TEXT	ENDS
PUBLIC	?_Orphan_range@?$vector@VioHashString@@V?$allocator@VioHashString@@@std@@@std@@IBEXPAVioHashString@@0@Z ; std::vector<ioHashString,std::allocator<ioHashString> >::_Orphan_range
; Function compile flags: /Ogsp
;	COMDAT ?_Orphan_range@?$vector@VioHashString@@V?$allocator@VioHashString@@@std@@@std@@IBEXPAVioHashString@@0@Z
_TEXT	SEGMENT
___formal$ = 8						; size = 4
___formal$ = 12						; size = 4
?_Orphan_range@?$vector@VioHashString@@V?$allocator@VioHashString@@@std@@@std@@IBEXPAVioHashString@@0@Z PROC ; std::vector<ioHashString,std::allocator<ioHashString> >::_Orphan_range, COMDAT
; _this$ = ecx

; 1454 : 		}

  00000	c2 08 00	 ret	 8
?_Orphan_range@?$vector@VioHashString@@V?$allocator@VioHashString@@@std@@@std@@IBEXPAVioHashString@@0@Z ENDP ; std::vector<ioHashString,std::allocator<ioHashString> >::_Orphan_range
_TEXT	ENDS
PUBLIC	??0?$_Vector_const_iterator@V?$_Vector_val@VioHashString@@V?$allocator@VioHashString@@@std@@@std@@@std@@QAE@XZ ; std::_Vector_const_iterator<std::_Vector_val<ioHashString,std::allocator<ioHashString> > >::_Vector_const_iterator<std::_Vector_val<ioHashString,std::allocator<ioHashString> > >
; Function compile flags: /Ogsp
;	COMDAT ??0?$_Vector_const_iterator@V?$_Vector_val@VioHashString@@V?$allocator@VioHashString@@@std@@@std@@@std@@QAE@XZ
_TEXT	SEGMENT
??0?$_Vector_const_iterator@V?$_Vector_val@VioHashString@@V?$allocator@VioHashString@@@std@@@std@@@std@@QAE@XZ PROC ; std::_Vector_const_iterator<std::_Vector_val<ioHashString,std::allocator<ioHashString> > >::_Vector_const_iterator<std::_Vector_val<ioHashString,std::allocator<ioHashString> > >, COMDAT
; _this$ = ecx

; 40   : 		{	// construct with null pointer

  00000	8b c1		 mov	 eax, ecx
  00002	83 20 00	 and	 DWORD PTR [eax], 0

; 41   : 		}

  00005	c3		 ret	 0
??0?$_Vector_const_iterator@V?$_Vector_val@VioHashString@@V?$allocator@VioHashString@@@std@@@std@@@std@@QAE@XZ ENDP ; std::_Vector_const_iterator<std::_Vector_val<ioHashString,std::allocator<ioHashString> > >::_Vector_const_iterator<std::_Vector_val<ioHashString,std::allocator<ioHashString> > >
_TEXT	ENDS
PUBLIC	?_Nextnode@?$_List_val@MV?$allocator@M@std@@@std@@SAAAPAU_Node@?$_List_nod@MV?$allocator@M@std@@@2@PAU342@@Z ; std::_List_val<float,std::allocator<float> >::_Nextnode
; Function compile flags: /Ogsp
; File c:\program files (x86)\microsoft visual studio 10.0\vc\include\list
;	COMDAT ?_Nextnode@?$_List_val@MV?$allocator@M@std@@@std@@SAAAPAU_Node@?$_List_nod@MV?$allocator@M@std@@@2@PAU342@@Z
_TEXT	SEGMENT
__Pnode$ = 8						; size = 4
?_Nextnode@?$_List_val@MV?$allocator@M@std@@@std@@SAAAPAU_Node@?$_List_nod@MV?$allocator@M@std@@@2@PAU342@@Z PROC ; std::_List_val<float,std::allocator<float> >::_Nextnode, COMDAT

; 560  : 		{	// return reference to successor pointer in node

  00000	55		 push	 ebp
  00001	8b ec		 mov	 ebp, esp

; 561  : 		return ((_Nodepref)(*_Pnode)._Next);

  00003	8b 45 08	 mov	 eax, DWORD PTR __Pnode$[ebp]

; 562  : 		}

  00006	5d		 pop	 ebp
  00007	c3		 ret	 0
?_Nextnode@?$_List_val@MV?$allocator@M@std@@@std@@SAAAPAU_Node@?$_List_nod@MV?$allocator@M@std@@@2@PAU342@@Z ENDP ; std::_List_val<float,std::allocator<float> >::_Nextnode
_TEXT	ENDS
PUBLIC	?_Prevnode@?$_List_val@MV?$allocator@M@std@@@std@@SAAAPAU_Node@?$_List_nod@MV?$allocator@M@std@@@2@PAU342@@Z ; std::_List_val<float,std::allocator<float> >::_Prevnode
; Function compile flags: /Ogsp
;	COMDAT ?_Prevnode@?$_List_val@MV?$allocator@M@std@@@std@@SAAAPAU_Node@?$_List_nod@MV?$allocator@M@std@@@2@PAU342@@Z
_TEXT	SEGMENT
__Pnode$ = 8						; size = 4
?_Prevnode@?$_List_val@MV?$allocator@M@std@@@std@@SAAAPAU_Node@?$_List_nod@MV?$allocator@M@std@@@2@PAU342@@Z PROC ; std::_List_val<float,std::allocator<float> >::_Prevnode, COMDAT

; 565  : 		{	// return reference to predecessor pointer in node

  00000	55		 push	 ebp
  00001	8b ec		 mov	 ebp, esp

; 566  : 		return ((_Nodepref)(*_Pnode)._Prev);

  00003	8b 45 08	 mov	 eax, DWORD PTR __Pnode$[ebp]
  00006	83 c0 04	 add	 eax, 4

; 567  : 		}

  00009	5d		 pop	 ebp
  0000a	c3		 ret	 0
?_Prevnode@?$_List_val@MV?$allocator@M@std@@@std@@SAAAPAU_Node@?$_List_nod@MV?$allocator@M@std@@@2@PAU342@@Z ENDP ; std::_List_val<float,std::allocator<float> >::_Prevnode
_TEXT	ENDS
PUBLIC	?deallocate@?$allocator@U_Node@?$_List_nod@MV?$allocator@M@std@@@std@@@std@@QAEXPAU_Node@?$_List_nod@MV?$allocator@M@std@@@2@I@Z ; std::allocator<std::_List_nod<float,std::allocator<float> >::_Node>::deallocate
; Function compile flags: /Ogsp
; File c:\program files (x86)\microsoft visual studio 10.0\vc\include\xmemory
;	COMDAT ?deallocate@?$allocator@U_Node@?$_List_nod@MV?$allocator@M@std@@@std@@@std@@QAEXPAU_Node@?$_List_nod@MV?$allocator@M@std@@@2@I@Z
_TEXT	SEGMENT
__Ptr$ = 8						; size = 4
___formal$ = 12						; size = 4
?deallocate@?$allocator@U_Node@?$_List_nod@MV?$allocator@M@std@@@std@@@std@@QAEXPAU_Node@?$_List_nod@MV?$allocator@M@std@@@2@I@Z PROC ; std::allocator<std::_List_nod<float,std::allocator<float> >::_Node>::deallocate, COMDAT
; _this$ = ecx

; 181  : 		{	// deallocate object at _Ptr, ignore size

  00000	55		 push	 ebp
  00001	8b ec		 mov	 ebp, esp

; 182  : 		::operator delete(_Ptr);

  00003	ff 75 08	 push	 DWORD PTR __Ptr$[ebp]
  00006	e8 00 00 00 00	 call	 ??3@YAXPAX@Z		; operator delete
  0000b	59		 pop	 ecx

; 183  : 		}

  0000c	5d		 pop	 ebp
  0000d	c2 08 00	 ret	 8
?deallocate@?$allocator@U_Node@?$_List_nod@MV?$allocator@M@std@@@std@@@std@@QAEXPAU_Node@?$_List_nod@MV?$allocator@M@std@@@2@I@Z ENDP ; std::allocator<std::_List_nod<float,std::allocator<float> >::_Node>::deallocate
_TEXT	ENDS
PUBLIC	??0?$_Vector_const_iterator@V?$_Vector_val@UCustomTexture@@V?$allocator@UCustomTexture@@@std@@@std@@@std@@QAE@PAUCustomTexture@@PBU_Container_base0@1@@Z ; std::_Vector_const_iterator<std::_Vector_val<CustomTexture,std::allocator<CustomTexture> > >::_Vector_const_iterator<std::_Vector_val<CustomTexture,std::allocator<CustomTexture> > >
; Function compile flags: /Ogsp
; File c:\program files (x86)\microsoft visual studio 10.0\vc\include\vector
;	COMDAT ??0?$_Vector_const_iterator@V?$_Vector_val@UCustomTexture@@V?$allocator@UCustomTexture@@@std@@@std@@@std@@QAE@PAUCustomTexture@@PBU_Container_base0@1@@Z
_TEXT	SEGMENT
__Parg$ = 8						; size = 4
__Pvector$ = 12						; size = 4
??0?$_Vector_const_iterator@V?$_Vector_val@UCustomTexture@@V?$allocator@UCustomTexture@@@std@@@std@@@std@@QAE@PAUCustomTexture@@PBU_Container_base0@1@@Z PROC ; std::_Vector_const_iterator<std::_Vector_val<CustomTexture,std::allocator<CustomTexture> > >::_Vector_const_iterator<std::_Vector_val<CustomTexture,std::allocator<CustomTexture> > >, COMDAT
; _this$ = ecx

; 45   : 		{	// construct with pointer _Parg

  00000	55		 push	 ebp
  00001	8b ec		 mov	 ebp, esp
  00003	8b c1		 mov	 eax, ecx
  00005	8b 4d 08	 mov	 ecx, DWORD PTR __Parg$[ebp]
  00008	89 08		 mov	 DWORD PTR [eax], ecx

; 46   : 		this->_Adopt(_Pvector);
; 47   : 		}

  0000a	5d		 pop	 ebp
  0000b	c2 08 00	 ret	 8
??0?$_Vector_const_iterator@V?$_Vector_val@UCustomTexture@@V?$allocator@UCustomTexture@@@std@@@std@@@std@@QAE@PAUCustomTexture@@PBU_Container_base0@1@@Z ENDP ; std::_Vector_const_iterator<std::_Vector_val<CustomTexture,std::allocator<CustomTexture> > >::_Vector_const_iterator<std::_Vector_val<CustomTexture,std::allocator<CustomTexture> > >
_TEXT	ENDS
PUBLIC	?_Compat@?$_Vector_const_iterator@V?$_Vector_val@UCustomTexture@@V?$allocator@UCustomTexture@@@std@@@std@@@std@@QBEXABV12@@Z ; std::_Vector_const_iterator<std::_Vector_val<CustomTexture,std::allocator<CustomTexture> > >::_Compat
; Function compile flags: /Ogsp
;	COMDAT ?_Compat@?$_Vector_const_iterator@V?$_Vector_val@UCustomTexture@@V?$allocator@UCustomTexture@@@std@@@std@@@std@@QBEXABV12@@Z
_TEXT	SEGMENT
___formal$ = 8						; size = 4
?_Compat@?$_Vector_const_iterator@V?$_Vector_val@UCustomTexture@@V?$allocator@UCustomTexture@@@std@@@std@@@std@@QBEXABV12@@Z PROC ; std::_Vector_const_iterator<std::_Vector_val<CustomTexture,std::allocator<CustomTexture> > >::_Compat, COMDAT
; _this$ = ecx

; 253  : 		}

  00000	c2 04 00	 ret	 4
?_Compat@?$_Vector_const_iterator@V?$_Vector_val@UCustomTexture@@V?$allocator@UCustomTexture@@@std@@@std@@@std@@QBEXABV12@@Z ENDP ; std::_Vector_const_iterator<std::_Vector_val<CustomTexture,std::allocator<CustomTexture> > >::_Compat
_TEXT	ENDS
PUBLIC	__real@3f91df46a2526c7a
PUBLIC	??$DEGtoRAD@M@@YAMM@Z				; DEGtoRAD<float>
;	COMDAT __real@3f91df46a2526c7a
; File d:\lost saga for developer\youtube\tutorial\source\src\lsclient\veryoftenusedefine.h
CONST	SEGMENT
__real@3f91df46a2526c7a DQ 03f91df46a2526c7ar	; 0.0174533
; Function compile flags: /Ogsp
CONST	ENDS
;	COMDAT ??$DEGtoRAD@M@@YAMM@Z
_TEXT	SEGMENT
tv129 = 8						; size = 4
_val$ = 8						; size = 4
??$DEGtoRAD@M@@YAMM@Z PROC				; DEGtoRAD<float>, COMDAT

; 20   : type  DEGtoRAD (type val) {return (type) (val * 0.0174532925199);}

  00000	55		 push	 ebp
  00001	8b ec		 mov	 ebp, esp
  00003	d9 45 08	 fld	 DWORD PTR _val$[ebp]
  00006	dc 0d 00 00 00
	00		 fmul	 QWORD PTR __real@3f91df46a2526c7a
  0000c	d9 5d 08	 fstp	 DWORD PTR tv129[ebp]
  0000f	d9 45 08	 fld	 DWORD PTR tv129[ebp]
  00012	5d		 pop	 ebp
  00013	c3		 ret	 0
??$DEGtoRAD@M@@YAMM@Z ENDP				; DEGtoRAD<float>
_TEXT	ENDS
PUBLIC	??$addressof@$$CBVioHashString@@@std@@YAPBVioHashString@@ABV1@@Z ; std::addressof<ioHashString const >
; Function compile flags: /Ogsp
; File c:\program files (x86)\microsoft visual studio 10.0\vc\include\xmemory
;	COMDAT ??$addressof@$$CBVioHashString@@@std@@YAPBVioHashString@@ABV1@@Z
_TEXT	SEGMENT
__Val$ = 8						; size = 4
??$addressof@$$CBVioHashString@@@std@@YAPBVioHashString@@ABV1@@Z PROC ; std::addressof<ioHashString const >, COMDAT

; 110  : 	{	// return address of _Val

  00000	55		 push	 ebp
  00001	8b ec		 mov	 ebp, esp

; 111  : 	return ((_Ty *) &(char&)_Val);

  00003	8b 45 08	 mov	 eax, DWORD PTR __Val$[ebp]

; 112  : 	}

  00006	5d		 pop	 ebp
  00007	c3		 ret	 0
??$addressof@$$CBVioHashString@@@std@@YAPBVioHashString@@ABV1@@Z ENDP ; std::addressof<ioHashString const >
_TEXT	ENDS
PUBLIC	??$?0M@?$allocator@U_Node@?$_List_nod@MV?$allocator@M@std@@@std@@@std@@QAE@ABV?$allocator@M@1@@Z ; std::allocator<std::_List_nod<float,std::allocator<float> >::_Node>::allocator<std::_List_nod<float,std::allocator<float> >::_Node><float>
; Function compile flags: /Ogsp
;	COMDAT ??$?0M@?$allocator@U_Node@?$_List_nod@MV?$allocator@M@std@@@std@@@std@@QAE@ABV?$allocator@M@1@@Z
_TEXT	SEGMENT
___formal$ = 8						; size = 4
??$?0M@?$allocator@U_Node@?$_List_nod@MV?$allocator@M@std@@@std@@@std@@QAE@ABV?$allocator@M@1@@Z PROC ; std::allocator<std::_List_nod<float,std::allocator<float> >::_Node>::allocator<std::_List_nod<float,std::allocator<float> >::_Node><float>, COMDAT
; _this$ = ecx

; 170  : 		_ALLOCATOR(const _ALLOCATOR<_Other>&) _THROW0()

  00000	8b c1		 mov	 eax, ecx

; 171  : 		{	// construct from a related allocator (do nothing)
; 172  : 		}

  00002	c2 04 00	 ret	 4
??$?0M@?$allocator@U_Node@?$_List_nod@MV?$allocator@M@std@@@std@@@std@@QAE@ABV?$allocator@M@1@@Z ENDP ; std::allocator<std::_List_nod<float,std::allocator<float> >::_Node>::allocator<std::_List_nod<float,std::allocator<float> >::_Node><float>
_TEXT	ENDS
PUBLIC	__TI2?AVbad_alloc@std@@
PUBLIC	??$_Allocate@U_Node@?$_List_nod@MV?$allocator@M@std@@@std@@@std@@YAPAU_Node@?$_List_nod@MV?$allocator@M@std@@@0@IPAU120@@Z ; std::_Allocate<std::_List_nod<float,std::allocator<float> >::_Node>
PUBLIC	__CTA2?AVbad_alloc@std@@
PUBLIC	__CT??_R0?AVbad_alloc@std@@@8??0bad_alloc@std@@QAE@ABV01@@Z12
PUBLIC	??0bad_alloc@std@@QAE@ABV01@@Z			; std::bad_alloc::bad_alloc
PUBLIC	__CT??_R0?AVexception@std@@@8??0exception@std@@QAE@ABV01@@Z12
EXTRN	??2@YAPAXI@Z:PROC				; operator new
EXTRN	__CxxThrowException@8:PROC
EXTRN	??0exception@std@@QAE@ABV01@@Z:PROC		; std::exception::exception
;	COMDAT __CT??_R0?AVexception@std@@@8??0exception@std@@QAE@ABV01@@Z12
; File c:\program files (x86)\microsoft visual studio 10.0\vc\include\exception
xdata$x	SEGMENT
__CT??_R0?AVexception@std@@@8??0exception@std@@QAE@ABV01@@Z12 DD 00H
	DD	FLAT:??_R0?AVexception@std@@@8
	DD	00H
	DD	0ffffffffH
	ORG $+4
	DD	0cH
	DD	FLAT:??0exception@std@@QAE@ABV01@@Z
xdata$x	ENDS
;	COMDAT __CT??_R0?AVbad_alloc@std@@@8??0bad_alloc@std@@QAE@ABV01@@Z12
xdata$x	SEGMENT
__CT??_R0?AVbad_alloc@std@@@8??0bad_alloc@std@@QAE@ABV01@@Z12 DD 00H
	DD	FLAT:??_R0?AVbad_alloc@std@@@8
	DD	00H
	DD	0ffffffffH
	ORG $+4
	DD	0cH
	DD	FLAT:??0bad_alloc@std@@QAE@ABV01@@Z
xdata$x	ENDS
;	COMDAT __CTA2?AVbad_alloc@std@@
xdata$x	SEGMENT
__CTA2?AVbad_alloc@std@@ DD 02H
	DD	FLAT:__CT??_R0?AVbad_alloc@std@@@8??0bad_alloc@std@@QAE@ABV01@@Z12
	DD	FLAT:__CT??_R0?AVexception@std@@@8??0exception@std@@QAE@ABV01@@Z12
xdata$x	ENDS
;	COMDAT __TI2?AVbad_alloc@std@@
xdata$x	SEGMENT
__TI2?AVbad_alloc@std@@ DD 00H
	DD	FLAT:??1bad_alloc@std@@UAE@XZ
	DD	00H
	DD	FLAT:__CTA2?AVbad_alloc@std@@
; Function compile flags: /Ogsp
; File c:\program files (x86)\microsoft visual studio 10.0\vc\include\xmemory
xdata$x	ENDS
;	COMDAT ??$_Allocate@U_Node@?$_List_nod@MV?$allocator@M@std@@@std@@@std@@YAPAU_Node@?$_List_nod@MV?$allocator@M@std@@@0@IPAU120@@Z
_TEXT	SEGMENT
$T571500 = -12						; size = 12
$T571505 = 8						; size = 4
__Count$ = 8						; size = 4
___formal$ = 12						; size = 4
??$_Allocate@U_Node@?$_List_nod@MV?$allocator@M@std@@@std@@@std@@YAPAU_Node@?$_List_nod@MV?$allocator@M@std@@@0@IPAU120@@Z PROC ; std::_Allocate<std::_List_nod<float,std::allocator<float> >::_Node>, COMDAT

; 30   : 	{	// allocate storage for _Count elements of type _Ty

  00000	55		 push	 ebp
  00001	8b ec		 mov	 ebp, esp

; 31   : 	void *_Ptr = 0;
; 32   : 
; 33   : 	if (_Count <= 0)

  00003	8b 4d 08	 mov	 ecx, DWORD PTR __Count$[ebp]
  00006	83 ec 0c	 sub	 esp, 12			; 0000000cH
  00009	33 c0		 xor	 eax, eax
  0000b	85 c9		 test	 ecx, ecx

; 34   : 		_Count = 0;
; 35   : 	else if (((_SIZT)(-1) / sizeof (_Ty) < _Count)

  0000d	74 3c		 je	 SHORT $LN5@Allocate

; 36   : 		|| (_Ptr = ::operator new(_Count * sizeof (_Ty))) == 0)

  0000f	81 f9 55 55 55
	15		 cmp	 ecx, 357913941		; 15555555H
  00015	77 0e		 ja	 SHORT $LN1@Allocate
  00017	6b c9 0c	 imul	 ecx, 12			; 0000000cH
  0001a	51		 push	 ecx
  0001b	e8 00 00 00 00	 call	 ??2@YAPAXI@Z		; operator new
  00020	59		 pop	 ecx
  00021	85 c0		 test	 eax, eax

; 38   : 
; 39   : 	return ((_Ty _FARQ *)_Ptr);

  00023	75 26		 jne	 SHORT $LN5@Allocate
$LN1@Allocate:

; 37   : 		_THROW_NCEE(bad_alloc, 0);

  00025	83 65 08 00	 and	 DWORD PTR $T571505[ebp], 0
  00029	8d 45 08	 lea	 eax, DWORD PTR $T571505[ebp]
  0002c	50		 push	 eax
  0002d	8d 4d f4	 lea	 ecx, DWORD PTR $T571500[ebp]
  00030	ff 15 00 00 00
	00		 call	 DWORD PTR __imp_??0exception@std@@QAE@ABQBD@Z
  00036	68 00 00 00 00	 push	 OFFSET __TI2?AVbad_alloc@std@@
  0003b	8d 45 f4	 lea	 eax, DWORD PTR $T571500[ebp]
  0003e	50		 push	 eax
  0003f	c7 45 f4 00 00
	00 00		 mov	 DWORD PTR $T571500[ebp], OFFSET ??_7bad_alloc@std@@6B@
  00046	e8 00 00 00 00	 call	 __CxxThrowException@8
$LN10@Allocate:
$LN5@Allocate:

; 40   : 	}

  0004b	c9		 leave
  0004c	c3		 ret	 0
$LN9@Allocate:
??$_Allocate@U_Node@?$_List_nod@MV?$allocator@M@std@@@std@@@std@@YAPAU_Node@?$_List_nod@MV?$allocator@M@std@@@0@IPAU120@@Z ENDP ; std::_Allocate<std::_List_nod<float,std::allocator<float> >::_Node>
_TEXT	ENDS
PUBLIC	??$_Destroy@U_Node@?$_List_nod@MV?$allocator@M@std@@@std@@@std@@YAXPAU_Node@?$_List_nod@MV?$allocator@M@std@@@0@@Z ; std::_Destroy<std::_List_nod<float,std::allocator<float> >::_Node>
; Function compile flags: /Ogsp
;	COMDAT ??$_Destroy@U_Node@?$_List_nod@MV?$allocator@M@std@@@std@@@std@@YAXPAU_Node@?$_List_nod@MV?$allocator@M@std@@@0@@Z
_TEXT	SEGMENT
__Ptr$ = 8						; size = 4
??$_Destroy@U_Node@?$_List_nod@MV?$allocator@M@std@@@std@@@std@@YAXPAU_Node@?$_List_nod@MV?$allocator@M@std@@@0@@Z PROC ; std::_Destroy<std::_List_nod<float,std::allocator<float> >::_Node>, COMDAT

; 63   : 	_Ptr->~_Ty();
; 64   : 	}

  00000	c3		 ret	 0
??$_Destroy@U_Node@?$_List_nod@MV?$allocator@M@std@@@std@@@std@@YAXPAU_Node@?$_List_nod@MV?$allocator@M@std@@@0@@Z ENDP ; std::_Destroy<std::_List_nod<float,std::allocator<float> >::_Node>
_TEXT	ENDS
PUBLIC	??4CustomTexture@@QAEAAU0@ABU0@@Z		; CustomTexture::operator=
; Function compile flags: /Ogsp
;	COMDAT ??4CustomTexture@@QAEAAU0@ABU0@@Z
_TEXT	SEGMENT
___that$ = 8						; size = 4
??4CustomTexture@@QAEAAU0@ABU0@@Z PROC			; CustomTexture::operator=, COMDAT
; _this$ = ecx
  00000	55		 push	 ebp
  00001	8b ec		 mov	 ebp, esp
  00003	8b 45 08	 mov	 eax, DWORD PTR ___that$[ebp]
  00006	56		 push	 esi
  00007	8b f1		 mov	 esi, ecx
  00009	8b 08		 mov	 ecx, DWORD PTR [eax]
  0000b	83 c0 04	 add	 eax, 4
  0000e	89 0e		 mov	 DWORD PTR [esi], ecx
  00010	50		 push	 eax
  00011	8d 4e 04	 lea	 ecx, DWORD PTR [esi+4]
  00014	ff 15 00 00 00
	00		 call	 DWORD PTR __imp_??4ioHashString@@QAEAAV0@ABV0@@Z
  0001a	8b c6		 mov	 eax, esi
  0001c	5e		 pop	 esi
  0001d	5d		 pop	 ebp
  0001e	c2 04 00	 ret	 4
??4CustomTexture@@QAEAAU0@ABU0@@Z ENDP			; CustomTexture::operator=
_TEXT	ENDS
PUBLIC	??$_Val_type@PAVioHashString@@@std@@YAPAVioHashString@@PAV1@@Z ; std::_Val_type<ioHashString *>
; Function compile flags: /Ogsp
; File c:\program files (x86)\microsoft visual studio 10.0\vc\include\xutility
;	COMDAT ??$_Val_type@PAVioHashString@@@std@@YAPAVioHashString@@PAV1@@Z
_TEXT	SEGMENT
___formal$ = 8						; size = 4
??$_Val_type@PAVioHashString@@@std@@YAPAVioHashString@@PAV1@@Z PROC ; std::_Val_type<ioHashString *>, COMDAT

; 790  : 	return (0);

  00000	33 c0		 xor	 eax, eax

; 791  : 	}

  00002	c3		 ret	 0
??$_Val_type@PAVioHashString@@@std@@YAPAVioHashString@@PAV1@@Z ENDP ; std::_Val_type<ioHashString *>
_TEXT	ENDS
PUBLIC	??$move@AAUCustomTexture@@@std@@YA$$QAUCustomTexture@@AAU1@@Z ; std::move<CustomTexture &>
; Function compile flags: /Ogsp
; File c:\program files (x86)\microsoft visual studio 10.0\vc\include\utility
;	COMDAT ??$move@AAUCustomTexture@@@std@@YA$$QAUCustomTexture@@AAU1@@Z
_TEXT	SEGMENT
__Arg$ = 8						; size = 4
??$move@AAUCustomTexture@@@std@@YA$$QAUCustomTexture@@AAU1@@Z PROC ; std::move<CustomTexture &>, COMDAT

; 86   : 	{	// forward _Arg as movable

  00000	55		 push	 ebp
  00001	8b ec		 mov	 ebp, esp

; 87   : 	return ((typename tr1::_Remove_reference<_Ty>::_Type&&)_Arg);

  00003	8b 45 08	 mov	 eax, DWORD PTR __Arg$[ebp]

; 88   : 	}

  00006	5d		 pop	 ebp
  00007	c3		 ret	 0
??$move@AAUCustomTexture@@@std@@YA$$QAUCustomTexture@@AAU1@@Z ENDP ; std::move<CustomTexture &>
_TEXT	ENDS
PUBLIC	??$forward@VioHashString@@@std@@YA$$QAVioHashString@@AAV1@@Z ; std::forward<ioHashString>
; Function compile flags: /Ogsp
;	COMDAT ??$forward@VioHashString@@@std@@YA$$QAVioHashString@@AAV1@@Z
_TEXT	SEGMENT
__Arg$ = 8						; size = 4
??$forward@VioHashString@@@std@@YA$$QAVioHashString@@AAV1@@Z PROC ; std::forward<ioHashString>, COMDAT

; 78   : 	{	// forward _Arg, given explicitly specified type parameter

  00000	55		 push	 ebp
  00001	8b ec		 mov	 ebp, esp

; 79   : 	return ((_Ty&&)_Arg);

  00003	8b 45 08	 mov	 eax, DWORD PTR __Arg$[ebp]

; 80   : 	}

  00006	5d		 pop	 ebp
  00007	c3		 ret	 0
??$forward@VioHashString@@@std@@YA$$QAVioHashString@@AAV1@@Z ENDP ; std::forward<ioHashString>
_TEXT	ENDS
PUBLIC	?_DECSTR@@YAXPADH@Z				; _DECSTR
; Function compile flags: /Ogsp
; File d:\lost saga for developer\youtube\tutorial\source\src\lsclient\stringprotect.h
;	COMDAT ?_DECSTR@@YAXPADH@Z
_TEXT	SEGMENT
_s$ = 8							; size = 4
_l$ = 12						; size = 4
?_DECSTR@@YAXPADH@Z PROC				; _DECSTR, COMDAT

; 40   : __forceinline void _DECSTR(char* s, int l){int i=0,l4=(l-1)/4,*p=(int*)s;s[l-1]=0;for(;i<l4;++i)*(p++)^=0xEAEBECED;for(i=l4*4;i<l-1;++i)s[i]^=0xED-i%4;}

  00000	55		 push	 ebp
  00001	8b ec		 mov	 ebp, esp
  00003	8b 4d 0c	 mov	 ecx, DWORD PTR _l$[ebp]
  00006	56		 push	 esi
  00007	8b 75 08	 mov	 esi, DWORD PTR _s$[ebp]
  0000a	57		 push	 edi
  0000b	8d 79 ff	 lea	 edi, DWORD PTR [ecx-1]
  0000e	8b c7		 mov	 eax, edi
  00010	99		 cdq
  00011	83 e2 03	 and	 edx, 3
  00014	03 c2		 add	 eax, edx
  00016	c1 f8 02	 sar	 eax, 2
  00019	8b d6		 mov	 edx, esi
  0001b	c6 44 0e ff 00	 mov	 BYTE PTR [esi+ecx-1], 0
  00020	85 c0		 test	 eax, eax
  00022	7e 0e		 jle	 SHORT $LN4@DECSTR
  00024	8b c8		 mov	 ecx, eax
$LL6@DECSTR:
  00026	81 32 ed ec eb
	ea		 xor	 DWORD PTR [edx], -353637139 ; eaebecedH
  0002c	83 c2 04	 add	 edx, 4
  0002f	49		 dec	 ecx
  00030	75 f4		 jne	 SHORT $LL6@DECSTR
$LN4@DECSTR:
  00032	c1 e0 02	 shl	 eax, 2
  00035	eb 17		 jmp	 SHORT $LN14@DECSTR
$LL3@DECSTR:
  00037	8b c8		 mov	 ecx, eax
  00039	81 e1 03 00 00
	80		 and	 ecx, -2147483645	; 80000003H
  0003f	79 05		 jns	 SHORT $LN13@DECSTR
  00041	49		 dec	 ecx
  00042	83 c9 fc	 or	 ecx, -4			; fffffffcH
  00045	41		 inc	 ecx
$LN13@DECSTR:
  00046	b2 ed		 mov	 dl, -19			; ffffffedH
  00048	2a d1		 sub	 dl, cl
  0004a	30 14 30	 xor	 BYTE PTR [eax+esi], dl
  0004d	40		 inc	 eax
$LN14@DECSTR:
  0004e	3b c7		 cmp	 eax, edi
  00050	7c e5		 jl	 SHORT $LL3@DECSTR
  00052	5f		 pop	 edi
  00053	5e		 pop	 esi
  00054	5d		 pop	 ebp
  00055	c3		 ret	 0
?_DECSTR@@YAXPADH@Z ENDP				; _DECSTR
_TEXT	ENDS
PUBLIC	?return57@@YAIXZ				; return57
; Function compile flags: /Ogsp
; File d:\lost saga for developer\youtube\tutorial\source\src\lsclient\veryoftenusedefine.h
;	COMDAT ?return57@@YAIXZ
_TEXT	SEGMENT
?return57@@YAIXZ PROC					; return57, COMDAT

; 15   : __forceinline unsigned int return57() { __asm mov eax, 57 };

  00000	b8 39 00 00 00	 mov	 eax, 57			; 00000039H
  00005	c3		 ret	 0
?return57@@YAIXZ ENDP					; return57
_TEXT	ENDS
PUBLIC	?Init@tagCostumeInfo@@QAEXXZ			; tagCostumeInfo::Init
; Function compile flags: /Ogsp
; File d:\lost saga for developer\youtube\tutorial\source\src\lsclient\costumeenumtype.h
;	COMDAT ?Init@tagCostumeInfo@@QAEXXZ
_TEXT	SEGMENT
?Init@tagCostumeInfo@@QAEXXZ PROC			; tagCostumeInfo::Init, COMDAT
; _this$ = ecx

; 111  : 		m_nCostumeCode = 0;
; 112  : 		m_nGradeType = 0;
; 113  : 		m_GlowColor.r = 0.0f;

  00000	0f 57 c0	 xorps	 xmm0, xmm0
  00003	53		 push	 ebx
  00004	56		 push	 esi
  00005	8b f1		 mov	 esi, ecx
  00007	57		 push	 edi

; 114  : 		m_GlowColor.g = 0.0f;
; 115  : 		m_GlowColor.b = 0.0f;
; 116  : 		m_GlowColor.a = 1.0f;
; 117  : 
; 118  : 		m_szEffect.Clear();

  00008	8b 3d 00 00 00
	00		 mov	 edi, DWORD PTR __imp_?Clear@ioHashString@@QAEXXZ
  0000e	33 db		 xor	 ebx, ebx
  00010	f3 0f 11 46 08	 movss	 DWORD PTR [esi+8], xmm0
  00015	f3 0f 11 46 0c	 movss	 DWORD PTR [esi+12], xmm0
  0001a	f3 0f 11 46 10	 movss	 DWORD PTR [esi+16], xmm0
  0001f	f3 0f 10 05 00
	00 00 00	 movss	 xmm0, DWORD PTR __real@3f800000
  00027	8d 4e 18	 lea	 ecx, DWORD PTR [esi+24]
  0002a	89 1e		 mov	 DWORD PTR [esi], ebx
  0002c	89 5e 04	 mov	 DWORD PTR [esi+4], ebx
  0002f	f3 0f 11 46 14	 movss	 DWORD PTR [esi+20], xmm0
  00034	ff d7		 call	 edi

; 119  : 		m_szEffectHW.Clear();

  00036	8d 4e 28	 lea	 ecx, DWORD PTR [esi+40]
  00039	ff d7		 call	 edi

; 120  : 		m_szSpring_Biped.Clear();

  0003b	8d 4e 38	 lea	 ecx, DWORD PTR [esi+56]
  0003e	ff d7		 call	 edi

; 121  : 		
; 122  : 		m_nArmorType = 0;
; 123  : 		m_nArmorSoundType = 0;
; 124  : 		m_szBodyMesh.Clear();

  00040	8d 4e 50	 lea	 ecx, DWORD PTR [esi+80]
  00043	89 5e 48	 mov	 DWORD PTR [esi+72], ebx
  00046	89 5e 4c	 mov	 DWORD PTR [esi+76], ebx
  00049	ff d7		 call	 edi

; 125  : 		m_szHandMesh.Clear();

  0004b	8d 4e 60	 lea	 ecx, DWORD PTR [esi+96]
  0004e	ff d7		 call	 edi

; 126  : 
; 127  : 		m_nInvisibleFaceType = 0;
; 128  : 		m_nFaceHM = 0;
; 129  : 		m_nFaceHW = 0;
; 130  : 
; 131  : 		m_nHairHM = 0;
; 132  : 		m_nHairHW = 0;
; 133  : 		m_szHelmetMesh.Clear();

  00050	8d 8e 84 00 00
	00		 lea	 ecx, DWORD PTR [esi+132]
  00056	89 5e 70	 mov	 DWORD PTR [esi+112], ebx
  00059	89 5e 74	 mov	 DWORD PTR [esi+116], ebx
  0005c	89 5e 78	 mov	 DWORD PTR [esi+120], ebx
  0005f	89 5e 7c	 mov	 DWORD PTR [esi+124], ebx
  00062	89 9e 80 00 00
	00		 mov	 DWORD PTR [esi+128], ebx
  00068	ff d7		 call	 edi

; 134  : 
; 135  : 		m_szCloakMesh.Clear();

  0006a	8d 8e 94 00 00
	00		 lea	 ecx, DWORD PTR [esi+148]
  00070	ff d7		 call	 edi

; 136  : 
; 137  : 		m_pCostumeSpringParam = NULL;
; 138  : 
; 139  : 		m_szName.Clear();

  00072	8d 8e a8 00 00
	00		 lea	 ecx, DWORD PTR [esi+168]
  00078	89 9e a4 00 00
	00		 mov	 DWORD PTR [esi+164], ebx
  0007e	ff d7		 call	 edi

; 140  : 		m_szIconName.Clear();

  00080	8d 8e b8 00 00
	00		 lea	 ecx, DWORD PTR [esi+184]
  00086	ff d7		 call	 edi
  00088	5f		 pop	 edi

; 141  : 
; 142  : 		m_nEnableClass = 0;

  00089	89 9e c8 00 00
	00		 mov	 DWORD PTR [esi+200], ebx

; 143  : 		m_nManual = 0;

  0008f	89 9e cc 00 00
	00		 mov	 DWORD PTR [esi+204], ebx

; 144  : 		m_nDisassembleCode = 0;

  00095	89 9e d0 00 00
	00		 mov	 DWORD PTR [esi+208], ebx

; 145  : 		m_nDisassembleMinCnt = 0;

  0009b	89 9e d4 00 00
	00		 mov	 DWORD PTR [esi+212], ebx

; 146  : 		m_nDisassembleMaxCnt = 0;

  000a1	89 9e d8 00 00
	00		 mov	 DWORD PTR [esi+216], ebx
  000a7	5e		 pop	 esi
  000a8	5b		 pop	 ebx

; 147  : 	}

  000a9	c3		 ret	 0
?Init@tagCostumeInfo@@QAEXXZ ENDP			; tagCostumeInfo::Init
_TEXT	ENDS
PUBLIC	??0tagCostumeInfo@@QAE@XZ			; tagCostumeInfo::tagCostumeInfo
;	COMDAT xdata$x
xdata$x	SEGMENT
__ehfuncinfo$??0tagCostumeInfo@@QAE@XZ DD 019930522H
	DD	09H
	DD	FLAT:__unwindtable$??0tagCostumeInfo@@QAE@XZ
	DD	2 DUP(00H)
	DD	2 DUP(00H)
	DD	00H
	DD	01H
__unwindtable$??0tagCostumeInfo@@QAE@XZ DD 0ffffffffH
	DD	FLAT:__unwindfunclet$??0tagCostumeInfo@@QAE@XZ$0
	DD	00H
	DD	FLAT:__unwindfunclet$??0tagCostumeInfo@@QAE@XZ$1
	DD	01H
	DD	FLAT:__unwindfunclet$??0tagCostumeInfo@@QAE@XZ$2
	DD	02H
	DD	FLAT:__unwindfunclet$??0tagCostumeInfo@@QAE@XZ$3
	DD	03H
	DD	FLAT:__unwindfunclet$??0tagCostumeInfo@@QAE@XZ$4
	DD	04H
	DD	FLAT:__unwindfunclet$??0tagCostumeInfo@@QAE@XZ$5
	DD	05H
	DD	FLAT:__unwindfunclet$??0tagCostumeInfo@@QAE@XZ$6
	DD	06H
	DD	FLAT:__unwindfunclet$??0tagCostumeInfo@@QAE@XZ$7
	DD	07H
	DD	FLAT:__unwindfunclet$??0tagCostumeInfo@@QAE@XZ$8
; Function compile flags: /Ogsp
xdata$x	ENDS
;	COMDAT ??0tagCostumeInfo@@QAE@XZ
_TEXT	SEGMENT
_this$ = -16						; size = 4
__$EHRec$ = -12						; size = 12
??0tagCostumeInfo@@QAE@XZ PROC				; tagCostumeInfo::tagCostumeInfo, COMDAT
; _this$ = ecx

; 149  : 	tagCostumeInfo()

  00000	6a 04		 push	 4
  00002	b8 00 00 00 00	 mov	 eax, __ehhandler$??0tagCostumeInfo@@QAE@XZ
  00007	e8 00 00 00 00	 call	 __EH_prolog3
  0000c	8b f9		 mov	 edi, ecx
  0000e	89 7d f0	 mov	 DWORD PTR _this$[ebp], edi
  00011	8b 35 00 00 00
	00		 mov	 esi, DWORD PTR __imp_??0ioHashString@@QAE@XZ
  00017	8d 4f 18	 lea	 ecx, DWORD PTR [edi+24]
  0001a	ff d6		 call	 esi
  0001c	83 65 fc 00	 and	 DWORD PTR __$EHRec$[ebp+8], 0
  00020	8d 4f 28	 lea	 ecx, DWORD PTR [edi+40]
  00023	ff d6		 call	 esi
  00025	8d 4f 38	 lea	 ecx, DWORD PTR [edi+56]
  00028	c6 45 fc 01	 mov	 BYTE PTR __$EHRec$[ebp+8], 1
  0002c	ff d6		 call	 esi
  0002e	8d 4f 50	 lea	 ecx, DWORD PTR [edi+80]
  00031	c6 45 fc 02	 mov	 BYTE PTR __$EHRec$[ebp+8], 2
  00035	ff d6		 call	 esi
  00037	8d 4f 60	 lea	 ecx, DWORD PTR [edi+96]
  0003a	c6 45 fc 03	 mov	 BYTE PTR __$EHRec$[ebp+8], 3
  0003e	ff d6		 call	 esi
  00040	8d 8f 84 00 00
	00		 lea	 ecx, DWORD PTR [edi+132]
  00046	c6 45 fc 04	 mov	 BYTE PTR __$EHRec$[ebp+8], 4
  0004a	ff d6		 call	 esi
  0004c	8d 8f 94 00 00
	00		 lea	 ecx, DWORD PTR [edi+148]
  00052	c6 45 fc 05	 mov	 BYTE PTR __$EHRec$[ebp+8], 5
  00056	ff d6		 call	 esi
  00058	8d 8f a8 00 00
	00		 lea	 ecx, DWORD PTR [edi+168]
  0005e	c6 45 fc 06	 mov	 BYTE PTR __$EHRec$[ebp+8], 6
  00062	ff d6		 call	 esi
  00064	8d 8f b8 00 00
	00		 lea	 ecx, DWORD PTR [edi+184]
  0006a	c6 45 fc 07	 mov	 BYTE PTR __$EHRec$[ebp+8], 7
  0006e	ff d6		 call	 esi

; 150  : 	{
; 151  : 		Init();

  00070	8b cf		 mov	 ecx, edi
  00072	c6 45 fc 08	 mov	 BYTE PTR __$EHRec$[ebp+8], 8
  00076	e8 00 00 00 00	 call	 ?Init@tagCostumeInfo@@QAEXXZ ; tagCostumeInfo::Init

; 152  : 	}

  0007b	8b c7		 mov	 eax, edi
  0007d	e8 00 00 00 00	 call	 __EH_epilog3
  00082	c3		 ret	 0
_TEXT	ENDS
;	COMDAT text$x
text$x	SEGMENT
__unwindfunclet$??0tagCostumeInfo@@QAE@XZ$0:
  00000	8b 4d f0	 mov	 ecx, DWORD PTR _this$[ebp]
  00003	83 c1 18	 add	 ecx, 24			; 00000018H
  00006	ff 25 00 00 00
	00		 jmp	 DWORD PTR __imp_??1ioHashString@@QAE@XZ
__unwindfunclet$??0tagCostumeInfo@@QAE@XZ$1:
  0000c	8b 4d f0	 mov	 ecx, DWORD PTR _this$[ebp]
  0000f	83 c1 28	 add	 ecx, 40			; 00000028H
  00012	ff 25 00 00 00
	00		 jmp	 DWORD PTR __imp_??1ioHashString@@QAE@XZ
__unwindfunclet$??0tagCostumeInfo@@QAE@XZ$2:
  00018	8b 4d f0	 mov	 ecx, DWORD PTR _this$[ebp]
  0001b	83 c1 38	 add	 ecx, 56			; 00000038H
  0001e	ff 25 00 00 00
	00		 jmp	 DWORD PTR __imp_??1ioHashString@@QAE@XZ
__unwindfunclet$??0tagCostumeInfo@@QAE@XZ$3:
  00024	8b 4d f0	 mov	 ecx, DWORD PTR _this$[ebp]
  00027	83 c1 50	 add	 ecx, 80			; 00000050H
  0002a	ff 25 00 00 00
	00		 jmp	 DWORD PTR __imp_??1ioHashString@@QAE@XZ
__unwindfunclet$??0tagCostumeInfo@@QAE@XZ$4:
  00030	8b 4d f0	 mov	 ecx, DWORD PTR _this$[ebp]
  00033	83 c1 60	 add	 ecx, 96			; 00000060H
  00036	ff 25 00 00 00
	00		 jmp	 DWORD PTR __imp_??1ioHashString@@QAE@XZ
__unwindfunclet$??0tagCostumeInfo@@QAE@XZ$5:
  0003c	8b 4d f0	 mov	 ecx, DWORD PTR _this$[ebp]
  0003f	81 c1 84 00 00
	00		 add	 ecx, 132		; 00000084H
  00045	ff 25 00 00 00
	00		 jmp	 DWORD PTR __imp_??1ioHashString@@QAE@XZ
__unwindfunclet$??0tagCostumeInfo@@QAE@XZ$6:
  0004b	8b 4d f0	 mov	 ecx, DWORD PTR _this$[ebp]
  0004e	81 c1 94 00 00
	00		 add	 ecx, 148		; 00000094H
  00054	ff 25 00 00 00
	00		 jmp	 DWORD PTR __imp_??1ioHashString@@QAE@XZ
__unwindfunclet$??0tagCostumeInfo@@QAE@XZ$7:
  0005a	8b 4d f0	 mov	 ecx, DWORD PTR _this$[ebp]
  0005d	81 c1 a8 00 00
	00		 add	 ecx, 168		; 000000a8H
  00063	ff 25 00 00 00
	00		 jmp	 DWORD PTR __imp_??1ioHashString@@QAE@XZ
__unwindfunclet$??0tagCostumeInfo@@QAE@XZ$8:
  00069	8b 4d f0	 mov	 ecx, DWORD PTR _this$[ebp]
  0006c	81 c1 b8 00 00
	00		 add	 ecx, 184		; 000000b8H
  00072	ff 25 00 00 00
	00		 jmp	 DWORD PTR __imp_??1ioHashString@@QAE@XZ
__ehhandler$??0tagCostumeInfo@@QAE@XZ:
  00078	8b 54 24 08	 mov	 edx, DWORD PTR [esp+8]
  0007c	8d 42 0c	 lea	 eax, DWORD PTR [edx+12]
  0007f	8b 4a ec	 mov	 ecx, DWORD PTR [edx-20]
  00082	33 c8		 xor	 ecx, eax
  00084	e8 00 00 00 00	 call	 @__security_check_cookie@4
  00089	b8 00 00 00 00	 mov	 eax, OFFSET __ehfuncinfo$??0tagCostumeInfo@@QAE@XZ
  0008e	e9 00 00 00 00	 jmp	 ___CxxFrameHandler3
text$x	ENDS
??0tagCostumeInfo@@QAE@XZ ENDP				; tagCostumeInfo::tagCostumeInfo
PUBLIC	?GetItemCode@ioItem@@QBEKXZ			; ioItem::GetItemCode
; Function compile flags: /Ogsp
; File d:\lost saga for developer\youtube\tutorial\source\src\lsclient\ioitem.h
;	COMDAT ?GetItemCode@ioItem@@QBEKXZ
_TEXT	SEGMENT
?GetItemCode@ioItem@@QBEKXZ PROC			; ioItem::GetItemCode, COMDAT
; _this$ = ecx

; 264  : 	inline DWORD GetItemCode() const { return m_dwItemCode; }

  00000	8b 41 38	 mov	 eax, DWORD PTR [ecx+56]
  00003	c3		 ret	 0
?GetItemCode@ioItem@@QBEKXZ ENDP			; ioItem::GetItemCode
_TEXT	ENDS
PUBLIC	?GetWorldCollisionBox@ioCreateChar@@QBEABVioOrientBox@@XZ ; ioCreateChar::GetWorldCollisionBox
; Function compile flags: /Ogsp
; File d:\lost saga for developer\youtube\tutorial\source\src\lsclient\iocreatechar.h
;	COMDAT ?GetWorldCollisionBox@ioCreateChar@@QBEABVioOrientBox@@XZ
_TEXT	SEGMENT
?GetWorldCollisionBox@ioCreateChar@@QBEABVioOrientBox@@XZ PROC ; ioCreateChar::GetWorldCollisionBox, COMDAT
; _this$ = ecx

; 204  : 	inline const ioOrientBox& GetWorldCollisionBox() const { return m_WorldCollisionBox; }

  00000	8d 81 b0 01 00
	00		 lea	 eax, DWORD PTR [ecx+432]
  00006	c3		 ret	 0
?GetWorldCollisionBox@ioCreateChar@@QBEABVioOrientBox@@XZ ENDP ; ioCreateChar::GetWorldCollisionBox
_TEXT	ENDS
PUBLIC	?GetGroup@ioCreateChar@@QBEPAVioEntityGroup@@XZ	; ioCreateChar::GetGroup
; Function compile flags: /Ogsp
;	COMDAT ?GetGroup@ioCreateChar@@QBEPAVioEntityGroup@@XZ
_TEXT	SEGMENT
?GetGroup@ioCreateChar@@QBEPAVioEntityGroup@@XZ PROC	; ioCreateChar::GetGroup, COMDAT
; _this$ = ecx

; 205  : 	inline ioEntityGroup* GetGroup() const { return m_pGrp; }

  00000	8b 41 04	 mov	 eax, DWORD PTR [ecx+4]
  00003	c3		 ret	 0
?GetGroup@ioCreateChar@@QBEPAVioEntityGroup@@XZ ENDP	; ioCreateChar::GetGroup
_TEXT	ENDS
PUBLIC	?IsMale@ioCreateChar@@QBE_NXZ			; ioCreateChar::IsMale
; Function compile flags: /Ogsp
;	COMDAT ?IsMale@ioCreateChar@@QBE_NXZ
_TEXT	SEGMENT
?IsMale@ioCreateChar@@QBE_NXZ PROC			; ioCreateChar::IsMale, COMDAT
; _this$ = ecx

; 209  : 	inline bool IsMale() const { return m_bMale; }

  00000	8a 41 1c	 mov	 al, BYTE PTR [ecx+28]
  00003	c3		 ret	 0
?IsMale@ioCreateChar@@QBE_NXZ ENDP			; ioCreateChar::IsMale
_TEXT	ENDS
PUBLIC	?GetPublicID@ioMyInfo@@QBEABVioHashString@@XZ	; ioMyInfo::GetPublicID
; Function compile flags: /Ogsp
; File d:\lost saga for developer\youtube\tutorial\source\src\lsclient\iomyinfo.h
;	COMDAT ?GetPublicID@ioMyInfo@@QBEABVioHashString@@XZ
_TEXT	SEGMENT
?GetPublicID@ioMyInfo@@QBEABVioHashString@@XZ PROC	; ioMyInfo::GetPublicID, COMDAT
; _this$ = ecx

; 517  : 	const ioHashString& GetPublicID() const { return m_user_data.m_public_id; }    

  00000	8d 41 1c	 lea	 eax, DWORD PTR [ecx+28]
  00003	c3		 ret	 0
?GetPublicID@ioMyInfo@@QBEABVioHashString@@XZ ENDP	; ioMyInfo::GetPublicID
_TEXT	ENDS
PUBLIC	?GetUIMotion@ioWeaponItem@@QBEABVioHashString@@XZ ; ioWeaponItem::GetUIMotion
; Function compile flags: /Ogsp
; File d:\lost saga for developer\youtube\tutorial\source\src\lsclient\ioweaponitem.h
;	COMDAT ?GetUIMotion@ioWeaponItem@@QBEABVioHashString@@XZ
_TEXT	SEGMENT
?GetUIMotion@ioWeaponItem@@QBEABVioHashString@@XZ PROC	; ioWeaponItem::GetUIMotion, COMDAT
; _this$ = ecx

; 266  : 	inline const ioHashString& GetUIMotion() const { return m_UIMotion; }

  00000	8d 81 38 18 00
	00		 lea	 eax, DWORD PTR [ecx+6200]
  00006	c3		 ret	 0
?GetUIMotion@ioWeaponItem@@QBEABVioHashString@@XZ ENDP	; ioWeaponItem::GetUIMotion
_TEXT	ENDS
PUBLIC	??_R0?AVioItem@@@8				; ioItem `RTTI Type Descriptor'
PUBLIC	?ToWeaponItemConst@@YAPBVioWeaponItem@@PBVioItem@@@Z ; ToWeaponItemConst
;	COMDAT ??_R0?AVioItem@@@8
_DATA	SEGMENT
??_R0?AVioItem@@@8 DD FLAT:??_7type_info@@6B@		; ioItem `RTTI Type Descriptor'
	DD	00H
	DB	'.?AVioItem@@', 00H
; Function compile flags: /Ogsp
_DATA	ENDS
;	COMDAT ?ToWeaponItemConst@@YAPBVioWeaponItem@@PBVioItem@@@Z
_TEXT	SEGMENT
_pItem$ = 8						; size = 4
?ToWeaponItemConst@@YAPBVioWeaponItem@@PBVioItem@@@Z PROC ; ToWeaponItemConst, COMDAT

; 311  : {

  00000	55		 push	 ebp
  00001	8b ec		 mov	 ebp, esp
  00003	56		 push	 esi

; 312  : 	if( !pItem || pItem->GetType() != ioItem::IT_WEAPON )

  00004	8b 75 08	 mov	 esi, DWORD PTR _pItem$[ebp]
  00007	85 f6		 test	 esi, esi
  00009	74 25		 je	 SHORT $LN1@ToWeaponIt
  0000b	8b 06		 mov	 eax, DWORD PTR [esi]
  0000d	8b ce		 mov	 ecx, esi
  0000f	ff 50 08	 call	 DWORD PTR [eax+8]
  00012	83 f8 01	 cmp	 eax, 1
  00015	75 19		 jne	 SHORT $LN1@ToWeaponIt

; 314  : 
; 315  : 	return dynamic_cast< const ioWeaponItem* >( pItem );

  00017	6a 00		 push	 0
  00019	68 00 00 00 00	 push	 OFFSET ??_R0?AVioWeaponItem@@@8
  0001e	68 00 00 00 00	 push	 OFFSET ??_R0?AVioItem@@@8
  00023	6a 00		 push	 0
  00025	56		 push	 esi
  00026	e8 00 00 00 00	 call	 ___RTDynamicCast
  0002b	83 c4 14	 add	 esp, 20			; 00000014H
  0002e	eb 02		 jmp	 SHORT $LN3@ToWeaponIt
$LN1@ToWeaponIt:

; 313  : 		return NULL;

  00030	33 c0		 xor	 eax, eax
$LN3@ToWeaponIt:
  00032	5e		 pop	 esi

; 316  : }

  00033	5d		 pop	 ebp
  00034	c3		 ret	 0
?ToWeaponItemConst@@YAPBVioWeaponItem@@PBVioItem@@@Z ENDP ; ToWeaponItemConst
_TEXT	ENDS
PUBLIC	??_R0?AVioArmorItem@@@8				; ioArmorItem `RTTI Type Descriptor'
PUBLIC	?ToArmorItemConst@@YAPBVioArmorItem@@PBVioItem@@@Z ; ToArmorItemConst
;	COMDAT ??_R0?AVioArmorItem@@@8
; File d:\lost saga for developer\youtube\tutorial\source\src\lsclient\ioarmoritem.h
_DATA	SEGMENT
??_R0?AVioArmorItem@@@8 DD FLAT:??_7type_info@@6B@	; ioArmorItem `RTTI Type Descriptor'
	DD	00H
	DB	'.?AVioArmorItem@@', 00H
; Function compile flags: /Ogsp
_DATA	ENDS
;	COMDAT ?ToArmorItemConst@@YAPBVioArmorItem@@PBVioItem@@@Z
_TEXT	SEGMENT
_pItem$ = 8						; size = 4
?ToArmorItemConst@@YAPBVioArmorItem@@PBVioItem@@@Z PROC	; ToArmorItemConst, COMDAT

; 70   : {

  00000	55		 push	 ebp
  00001	8b ec		 mov	 ebp, esp
  00003	56		 push	 esi

; 71   : 	if( !pItem || pItem->GetType() != ioItem::IT_ARMOR )

  00004	8b 75 08	 mov	 esi, DWORD PTR _pItem$[ebp]
  00007	85 f6		 test	 esi, esi
  00009	74 25		 je	 SHORT $LN1@ToArmorIte
  0000b	8b 06		 mov	 eax, DWORD PTR [esi]
  0000d	8b ce		 mov	 ecx, esi
  0000f	ff 50 08	 call	 DWORD PTR [eax+8]
  00012	83 f8 02	 cmp	 eax, 2
  00015	75 19		 jne	 SHORT $LN1@ToArmorIte

; 73   : 
; 74   : 	return dynamic_cast< const ioArmorItem* >( pItem );

  00017	6a 00		 push	 0
  00019	68 00 00 00 00	 push	 OFFSET ??_R0?AVioArmorItem@@@8
  0001e	68 00 00 00 00	 push	 OFFSET ??_R0?AVioItem@@@8
  00023	6a 00		 push	 0
  00025	56		 push	 esi
  00026	e8 00 00 00 00	 call	 ___RTDynamicCast
  0002b	83 c4 14	 add	 esp, 20			; 00000014H
  0002e	eb 02		 jmp	 SHORT $LN3@ToArmorIte
$LN1@ToArmorIte:

; 72   : 		return NULL;

  00030	33 c0		 xor	 eax, eax
$LN3@ToArmorIte:
  00032	5e		 pop	 esi

; 75   : }

  00033	5d		 pop	 ebp
  00034	c3		 ret	 0
?ToArmorItemConst@@YAPBVioArmorItem@@PBVioItem@@@Z ENDP	; ToArmorItemConst
_TEXT	ENDS
PUBLIC	??_R0?AVioHelmetItem@@@8			; ioHelmetItem `RTTI Type Descriptor'
PUBLIC	?ToHelmetItemConst@@YAPBVioHelmetItem@@PBVioItem@@@Z ; ToHelmetItemConst
;	COMDAT ??_R0?AVioHelmetItem@@@8
; File d:\lost saga for developer\youtube\tutorial\source\src\lsclient\iohelmetitem.h
_DATA	SEGMENT
??_R0?AVioHelmetItem@@@8 DD FLAT:??_7type_info@@6B@	; ioHelmetItem `RTTI Type Descriptor'
	DD	00H
	DB	'.?AVioHelmetItem@@', 00H
; Function compile flags: /Ogsp
_DATA	ENDS
;	COMDAT ?ToHelmetItemConst@@YAPBVioHelmetItem@@PBVioItem@@@Z
_TEXT	SEGMENT
_pItem$ = 8						; size = 4
?ToHelmetItemConst@@YAPBVioHelmetItem@@PBVioItem@@@Z PROC ; ToHelmetItemConst, COMDAT

; 124  : {

  00000	55		 push	 ebp
  00001	8b ec		 mov	 ebp, esp
  00003	56		 push	 esi

; 125  : 	if( !pItem || pItem->GetType() != ioItem::IT_HELMET )

  00004	8b 75 08	 mov	 esi, DWORD PTR _pItem$[ebp]
  00007	85 f6		 test	 esi, esi
  00009	74 25		 je	 SHORT $LN1@ToHelmetIt
  0000b	8b 06		 mov	 eax, DWORD PTR [esi]
  0000d	8b ce		 mov	 ecx, esi
  0000f	ff 50 08	 call	 DWORD PTR [eax+8]
  00012	83 f8 03	 cmp	 eax, 3
  00015	75 19		 jne	 SHORT $LN1@ToHelmetIt

; 127  : 
; 128  : 	return dynamic_cast< const ioHelmetItem* >( pItem );

  00017	6a 00		 push	 0
  00019	68 00 00 00 00	 push	 OFFSET ??_R0?AVioHelmetItem@@@8
  0001e	68 00 00 00 00	 push	 OFFSET ??_R0?AVioItem@@@8
  00023	6a 00		 push	 0
  00025	56		 push	 esi
  00026	e8 00 00 00 00	 call	 ___RTDynamicCast
  0002b	83 c4 14	 add	 esp, 20			; 00000014H
  0002e	eb 02		 jmp	 SHORT $LN3@ToHelmetIt
$LN1@ToHelmetIt:

; 126  : 		return NULL;

  00030	33 c0		 xor	 eax, eax
$LN3@ToHelmetIt:
  00032	5e		 pop	 esi

; 129  : }

  00033	5d		 pop	 ebp
  00034	c3		 ret	 0
?ToHelmetItemConst@@YAPBVioHelmetItem@@PBVioItem@@@Z ENDP ; ToHelmetItemConst
_TEXT	ENDS
PUBLIC	??_R0?AVioCloakItem@@@8				; ioCloakItem `RTTI Type Descriptor'
PUBLIC	?ToCloakItemConst@@YAPBVioCloakItem@@PBVioItem@@@Z ; ToCloakItemConst
;	COMDAT ??_R0?AVioCloakItem@@@8
; File d:\lost saga for developer\youtube\tutorial\source\src\lsclient\iocloakitem.h
_DATA	SEGMENT
??_R0?AVioCloakItem@@@8 DD FLAT:??_7type_info@@6B@	; ioCloakItem `RTTI Type Descriptor'
	DD	00H
	DB	'.?AVioCloakItem@@', 00H
; Function compile flags: /Ogsp
_DATA	ENDS
;	COMDAT ?ToCloakItemConst@@YAPBVioCloakItem@@PBVioItem@@@Z
_TEXT	SEGMENT
_pItem$ = 8						; size = 4
?ToCloakItemConst@@YAPBVioCloakItem@@PBVioItem@@@Z PROC	; ToCloakItemConst, COMDAT

; 51   : {

  00000	55		 push	 ebp
  00001	8b ec		 mov	 ebp, esp
  00003	56		 push	 esi

; 52   : 	if( !pItem || pItem->GetType() != ioItem::IT_CLOAK )

  00004	8b 75 08	 mov	 esi, DWORD PTR _pItem$[ebp]
  00007	85 f6		 test	 esi, esi
  00009	74 25		 je	 SHORT $LN1@ToCloakIte
  0000b	8b 06		 mov	 eax, DWORD PTR [esi]
  0000d	8b ce		 mov	 ecx, esi
  0000f	ff 50 08	 call	 DWORD PTR [eax+8]
  00012	83 f8 04	 cmp	 eax, 4
  00015	75 19		 jne	 SHORT $LN1@ToCloakIte

; 54   : 
; 55   : 	return dynamic_cast< const ioCloakItem* >( pItem );

  00017	6a 00		 push	 0
  00019	68 00 00 00 00	 push	 OFFSET ??_R0?AVioCloakItem@@@8
  0001e	68 00 00 00 00	 push	 OFFSET ??_R0?AVioItem@@@8
  00023	6a 00		 push	 0
  00025	56		 push	 esi
  00026	e8 00 00 00 00	 call	 ___RTDynamicCast
  0002b	83 c4 14	 add	 esp, 20			; 00000014H
  0002e	eb 02		 jmp	 SHORT $LN3@ToCloakIte
$LN1@ToCloakIte:

; 53   : 		return NULL;

  00030	33 c0		 xor	 eax, eax
$LN3@ToCloakIte:
  00032	5e		 pop	 esi

; 56   : }

  00033	5d		 pop	 ebp
  00034	c3		 ret	 0
?ToCloakItemConst@@YAPBVioCloakItem@@PBVioItem@@@Z ENDP	; ToCloakItemConst
_TEXT	ENDS
PUBLIC	?size@?$vector@VioHashString@@V?$allocator@VioHashString@@@std@@@std@@QBEIXZ ; std::vector<ioHashString,std::allocator<ioHashString> >::size
; Function compile flags: /Ogsp
; File c:\program files (x86)\microsoft visual studio 10.0\vc\include\vector
;	COMDAT ?size@?$vector@VioHashString@@V?$allocator@VioHashString@@@std@@@std@@QBEIXZ
_TEXT	SEGMENT
?size@?$vector@VioHashString@@V?$allocator@VioHashString@@@std@@@std@@QBEIXZ PROC ; std::vector<ioHashString,std::allocator<ioHashString> >::size, COMDAT
; _this$ = ecx

; 879  : 		return (this->_Mylast - this->_Myfirst);

  00000	8b 41 04	 mov	 eax, DWORD PTR [ecx+4]
  00003	2b 01		 sub	 eax, DWORD PTR [ecx]
  00005	c1 f8 04	 sar	 eax, 4

; 880  : 		}

  00008	c3		 ret	 0
?size@?$vector@VioHashString@@V?$allocator@VioHashString@@@std@@@std@@QBEIXZ ENDP ; std::vector<ioHashString,std::allocator<ioHashString> >::size
_TEXT	ENDS
PUBLIC	??1?$_Vector_val@VioHashString@@V?$allocator@VioHashString@@@std@@@std@@QAE@XZ ; std::_Vector_val<ioHashString,std::allocator<ioHashString> >::~_Vector_val<ioHashString,std::allocator<ioHashString> >
; Function compile flags: /Ogsp
;	COMDAT ??1?$_Vector_val@VioHashString@@V?$allocator@VioHashString@@@std@@@std@@QAE@XZ
_TEXT	SEGMENT
??1?$_Vector_val@VioHashString@@V?$allocator@VioHashString@@@std@@@std@@QAE@XZ PROC ; std::_Vector_val<ioHashString,std::allocator<ioHashString> >::~_Vector_val<ioHashString,std::allocator<ioHashString> >, COMDAT
; _this$ = ecx

; 434  : 		}

  00000	c3		 ret	 0
??1?$_Vector_val@VioHashString@@V?$allocator@VioHashString@@@std@@@std@@QAE@XZ ENDP ; std::_Vector_val<ioHashString,std::allocator<ioHashString> >::~_Vector_val<ioHashString,std::allocator<ioHashString> >
_TEXT	ENDS
PUBLIC	??0?$allocator@VioHashString@@@std@@QAE@XZ	; std::allocator<ioHashString>::allocator<ioHashString>
; Function compile flags: /Ogsp
; File c:\program files (x86)\microsoft visual studio 10.0\vc\include\xmemory
;	COMDAT ??0?$allocator@VioHashString@@@std@@QAE@XZ
_TEXT	SEGMENT
??0?$allocator@VioHashString@@@std@@QAE@XZ PROC		; std::allocator<ioHashString>::allocator<ioHashString>, COMDAT
; _this$ = ecx

; 161  : 	_ALLOCATOR() _THROW0()

  00000	8b c1		 mov	 eax, ecx

; 162  : 		{	// construct default allocator (do nothing)
; 163  : 		}

  00002	c3		 ret	 0
??0?$allocator@VioHashString@@@std@@QAE@XZ ENDP		; std::allocator<ioHashString>::allocator<ioHashString>
_TEXT	ENDS
PUBLIC	??0?$allocator@VioHashString@@@std@@QAE@ABV01@@Z ; std::allocator<ioHashString>::allocator<ioHashString>
; Function compile flags: /Ogsp
;	COMDAT ??0?$allocator@VioHashString@@@std@@QAE@ABV01@@Z
_TEXT	SEGMENT
___formal$ = 8						; size = 4
??0?$allocator@VioHashString@@@std@@QAE@ABV01@@Z PROC	; std::allocator<ioHashString>::allocator<ioHashString>, COMDAT
; _this$ = ecx

; 165  : 	_ALLOCATOR(const _ALLOCATOR<_Ty>&) _THROW0()

  00000	8b c1		 mov	 eax, ecx

; 166  : 		{	// construct by copying (do nothing)
; 167  : 		}

  00002	c2 04 00	 ret	 4
??0?$allocator@VioHashString@@@std@@QAE@ABV01@@Z ENDP	; std::allocator<ioHashString>::allocator<ioHashString>
_TEXT	ENDS
PUBLIC	??0?$allocator@M@std@@QAE@XZ			; std::allocator<float>::allocator<float>
; Function compile flags: /Ogsp
;	COMDAT ??0?$allocator@M@std@@QAE@XZ
_TEXT	SEGMENT
??0?$allocator@M@std@@QAE@XZ PROC			; std::allocator<float>::allocator<float>, COMDAT
; _this$ = ecx

; 161  : 	_ALLOCATOR() _THROW0()

  00000	8b c1		 mov	 eax, ecx

; 162  : 		{	// construct default allocator (do nothing)
; 163  : 		}

  00002	c3		 ret	 0
??0?$allocator@M@std@@QAE@XZ ENDP			; std::allocator<float>::allocator<float>
_TEXT	ENDS
PUBLIC	??1?$_Vector_val@UCustomTexture@@V?$allocator@UCustomTexture@@@std@@@std@@QAE@XZ ; std::_Vector_val<CustomTexture,std::allocator<CustomTexture> >::~_Vector_val<CustomTexture,std::allocator<CustomTexture> >
; Function compile flags: /Ogsp
; File c:\program files (x86)\microsoft visual studio 10.0\vc\include\vector
;	COMDAT ??1?$_Vector_val@UCustomTexture@@V?$allocator@UCustomTexture@@@std@@@std@@QAE@XZ
_TEXT	SEGMENT
??1?$_Vector_val@UCustomTexture@@V?$allocator@UCustomTexture@@@std@@@std@@QAE@XZ PROC ; std::_Vector_val<CustomTexture,std::allocator<CustomTexture> >::~_Vector_val<CustomTexture,std::allocator<CustomTexture> >, COMDAT
; _this$ = ecx

; 434  : 		}

  00000	c3		 ret	 0
??1?$_Vector_val@UCustomTexture@@V?$allocator@UCustomTexture@@@std@@@std@@QAE@XZ ENDP ; std::_Vector_val<CustomTexture,std::allocator<CustomTexture> >::~_Vector_val<CustomTexture,std::allocator<CustomTexture> >
_TEXT	ENDS
PUBLIC	??0?$allocator@UCustomTexture@@@std@@QAE@XZ	; std::allocator<CustomTexture>::allocator<CustomTexture>
; Function compile flags: /Ogsp
; File c:\program files (x86)\microsoft visual studio 10.0\vc\include\xmemory
;	COMDAT ??0?$allocator@UCustomTexture@@@std@@QAE@XZ
_TEXT	SEGMENT
??0?$allocator@UCustomTexture@@@std@@QAE@XZ PROC	; std::allocator<CustomTexture>::allocator<CustomTexture>, COMDAT
; _this$ = ecx

; 161  : 	_ALLOCATOR() _THROW0()

  00000	8b c1		 mov	 eax, ecx

; 162  : 		{	// construct default allocator (do nothing)
; 163  : 		}

  00002	c3		 ret	 0
??0?$allocator@UCustomTexture@@@std@@QAE@XZ ENDP	; std::allocator<CustomTexture>::allocator<CustomTexture>
_TEXT	ENDS
PUBLIC	??_C@_0BD@OLBABOEK@vector?$DMT?$DO?5too?5long?$AA@ ; `string'
PUBLIC	?_Xlen@?$vector@VioHashString@@V?$allocator@VioHashString@@@std@@@std@@IBEXXZ ; std::vector<ioHashString,std::allocator<ioHashString> >::_Xlen
EXTRN	__imp_?_Xlength_error@std@@YAXPBD@Z:PROC
;	COMDAT ??_C@_0BD@OLBABOEK@vector?$DMT?$DO?5too?5long?$AA@
; File c:\program files (x86)\microsoft visual studio 10.0\vc\include\vector
CONST	SEGMENT
??_C@_0BD@OLBABOEK@vector?$DMT?$DO?5too?5long?$AA@ DB 'vector<T> too long'
	DB	00H						; `string'
; Function compile flags: /Ogsp
CONST	ENDS
;	COMDAT ?_Xlen@?$vector@VioHashString@@V?$allocator@VioHashString@@@std@@@std@@IBEXXZ
_TEXT	SEGMENT
?_Xlen@?$vector@VioHashString@@V?$allocator@VioHashString@@@std@@@std@@IBEXXZ PROC ; std::vector<ioHashString,std::allocator<ioHashString> >::_Xlen, COMDAT
; _this$ = ecx

; 1427 : 		_Xlength_error("vector<T> too long");

  00000	68 00 00 00 00	 push	 OFFSET ??_C@_0BD@OLBABOEK@vector?$DMT?$DO?5too?5long?$AA@
  00005	ff 15 00 00 00
	00		 call	 DWORD PTR __imp_?_Xlength_error@std@@YAXPBD@Z
$LN4@Xlen:
$LN3@Xlen:
  0000b	cc		 int	 3
?_Xlen@?$vector@VioHashString@@V?$allocator@VioHashString@@@std@@@std@@IBEXXZ ENDP ; std::vector<ioHashString,std::allocator<ioHashString> >::_Xlen
_TEXT	ENDS
PUBLIC	?deallocate@?$allocator@VioHashString@@@std@@QAEXPAVioHashString@@I@Z ; std::allocator<ioHashString>::deallocate
; Function compile flags: /Ogsp
; File c:\program files (x86)\microsoft visual studio 10.0\vc\include\xmemory
;	COMDAT ?deallocate@?$allocator@VioHashString@@@std@@QAEXPAVioHashString@@I@Z
_TEXT	SEGMENT
__Ptr$ = 8						; size = 4
___formal$ = 12						; size = 4
?deallocate@?$allocator@VioHashString@@@std@@QAEXPAVioHashString@@I@Z PROC ; std::allocator<ioHashString>::deallocate, COMDAT
; _this$ = ecx

; 181  : 		{	// deallocate object at _Ptr, ignore size

  00000	55		 push	 ebp
  00001	8b ec		 mov	 ebp, esp

; 182  : 		::operator delete(_Ptr);

  00003	ff 75 08	 push	 DWORD PTR __Ptr$[ebp]
  00006	e8 00 00 00 00	 call	 ??3@YAXPAX@Z		; operator delete
  0000b	59		 pop	 ecx

; 183  : 		}

  0000c	5d		 pop	 ebp
  0000d	c2 08 00	 ret	 8
?deallocate@?$allocator@VioHashString@@@std@@QAEXPAVioHashString@@I@Z ENDP ; std::allocator<ioHashString>::deallocate
_TEXT	ENDS
PUBLIC	??0?$allocator@M@std@@QAE@ABV01@@Z		; std::allocator<float>::allocator<float>
; Function compile flags: /Ogsp
;	COMDAT ??0?$allocator@M@std@@QAE@ABV01@@Z
_TEXT	SEGMENT
___formal$ = 8						; size = 4
??0?$allocator@M@std@@QAE@ABV01@@Z PROC			; std::allocator<float>::allocator<float>, COMDAT
; _this$ = ecx

; 165  : 	_ALLOCATOR(const _ALLOCATOR<_Ty>&) _THROW0()

  00000	8b c1		 mov	 eax, ecx

; 166  : 		{	// construct by copying (do nothing)
; 167  : 		}

  00002	c2 04 00	 ret	 4
??0?$allocator@M@std@@QAE@ABV01@@Z ENDP			; std::allocator<float>::allocator<float>
_TEXT	ENDS
PUBLIC	??0?$allocator@UCustomTexture@@@std@@QAE@ABV01@@Z ; std::allocator<CustomTexture>::allocator<CustomTexture>
; Function compile flags: /Ogsp
;	COMDAT ??0?$allocator@UCustomTexture@@@std@@QAE@ABV01@@Z
_TEXT	SEGMENT
___formal$ = 8						; size = 4
??0?$allocator@UCustomTexture@@@std@@QAE@ABV01@@Z PROC	; std::allocator<CustomTexture>::allocator<CustomTexture>, COMDAT
; _this$ = ecx

; 165  : 	_ALLOCATOR(const _ALLOCATOR<_Ty>&) _THROW0()

  00000	8b c1		 mov	 eax, ecx

; 166  : 		{	// construct by copying (do nothing)
; 167  : 		}

  00002	c2 04 00	 ret	 4
??0?$allocator@UCustomTexture@@@std@@QAE@ABV01@@Z ENDP	; std::allocator<CustomTexture>::allocator<CustomTexture>
_TEXT	ENDS
PUBLIC	?deallocate@?$allocator@UCustomTexture@@@std@@QAEXPAUCustomTexture@@I@Z ; std::allocator<CustomTexture>::deallocate
; Function compile flags: /Ogsp
;	COMDAT ?deallocate@?$allocator@UCustomTexture@@@std@@QAEXPAUCustomTexture@@I@Z
_TEXT	SEGMENT
__Ptr$ = 8						; size = 4
___formal$ = 12						; size = 4
?deallocate@?$allocator@UCustomTexture@@@std@@QAEXPAUCustomTexture@@I@Z PROC ; std::allocator<CustomTexture>::deallocate, COMDAT
; _this$ = ecx

; 181  : 		{	// deallocate object at _Ptr, ignore size

  00000	55		 push	 ebp
  00001	8b ec		 mov	 ebp, esp

; 182  : 		::operator delete(_Ptr);

  00003	ff 75 08	 push	 DWORD PTR __Ptr$[ebp]
  00006	e8 00 00 00 00	 call	 ??3@YAXPAX@Z		; operator delete
  0000b	59		 pop	 ecx

; 183  : 		}

  0000c	5d		 pop	 ebp
  0000d	c2 08 00	 ret	 8
?deallocate@?$allocator@UCustomTexture@@@std@@QAEXPAUCustomTexture@@I@Z ENDP ; std::allocator<CustomTexture>::deallocate
_TEXT	ENDS
PUBLIC	??0?$_Vector_const_iterator@V?$_Vector_val@VioHashString@@V?$allocator@VioHashString@@@std@@@std@@@std@@QAE@PAVioHashString@@PBU_Container_base0@1@@Z ; std::_Vector_const_iterator<std::_Vector_val<ioHashString,std::allocator<ioHashString> > >::_Vector_const_iterator<std::_Vector_val<ioHashString,std::allocator<ioHashString> > >
; Function compile flags: /Ogsp
; File c:\program files (x86)\microsoft visual studio 10.0\vc\include\vector
;	COMDAT ??0?$_Vector_const_iterator@V?$_Vector_val@VioHashString@@V?$allocator@VioHashString@@@std@@@std@@@std@@QAE@PAVioHashString@@PBU_Container_base0@1@@Z
_TEXT	SEGMENT
__Parg$ = 8						; size = 4
__Pvector$ = 12						; size = 4
??0?$_Vector_const_iterator@V?$_Vector_val@VioHashString@@V?$allocator@VioHashString@@@std@@@std@@@std@@QAE@PAVioHashString@@PBU_Container_base0@1@@Z PROC ; std::_Vector_const_iterator<std::_Vector_val<ioHashString,std::allocator<ioHashString> > >::_Vector_const_iterator<std::_Vector_val<ioHashString,std::allocator<ioHashString> > >, COMDAT
; _this$ = ecx

; 45   : 		{	// construct with pointer _Parg

  00000	55		 push	 ebp
  00001	8b ec		 mov	 ebp, esp
  00003	8b c1		 mov	 eax, ecx
  00005	8b 4d 08	 mov	 ecx, DWORD PTR __Parg$[ebp]
  00008	89 08		 mov	 DWORD PTR [eax], ecx

; 46   : 		this->_Adopt(_Pvector);
; 47   : 		}

  0000a	5d		 pop	 ebp
  0000b	c2 08 00	 ret	 8
??0?$_Vector_const_iterator@V?$_Vector_val@VioHashString@@V?$allocator@VioHashString@@@std@@@std@@@std@@QAE@PAVioHashString@@PBU_Container_base0@1@@Z ENDP ; std::_Vector_const_iterator<std::_Vector_val<ioHashString,std::allocator<ioHashString> > >::_Vector_const_iterator<std::_Vector_val<ioHashString,std::allocator<ioHashString> > >
_TEXT	ENDS
PUBLIC	??0?$_Vector_iterator@V?$_Vector_val@VioHashString@@V?$allocator@VioHashString@@@std@@@std@@@std@@QAE@PAVioHashString@@PBU_Container_base0@1@@Z ; std::_Vector_iterator<std::_Vector_val<ioHashString,std::allocator<ioHashString> > >::_Vector_iterator<std::_Vector_val<ioHashString,std::allocator<ioHashString> > >
; Function compile flags: /Ogsp
;	COMDAT ??0?$_Vector_iterator@V?$_Vector_val@VioHashString@@V?$allocator@VioHashString@@@std@@@std@@@std@@QAE@PAVioHashString@@PBU_Container_base0@1@@Z
_TEXT	SEGMENT
__Parg$ = 8						; size = 4
__Pvector$ = 12						; size = 4
??0?$_Vector_iterator@V?$_Vector_val@VioHashString@@V?$allocator@VioHashString@@@std@@@std@@@std@@QAE@PAVioHashString@@PBU_Container_base0@1@@Z PROC ; std::_Vector_iterator<std::_Vector_val<ioHashString,std::allocator<ioHashString> > >::_Vector_iterator<std::_Vector_val<ioHashString,std::allocator<ioHashString> > >, COMDAT
; _this$ = ecx

; 304  : 		{	// construct with pointer _Parg

  00000	55		 push	 ebp
  00001	8b ec		 mov	 ebp, esp
  00003	8b c1		 mov	 eax, ecx
  00005	8b 4d 08	 mov	 ecx, DWORD PTR __Parg$[ebp]
  00008	89 08		 mov	 DWORD PTR [eax], ecx

; 305  : 		}

  0000a	5d		 pop	 ebp
  0000b	c2 08 00	 ret	 8
??0?$_Vector_iterator@V?$_Vector_val@VioHashString@@V?$allocator@VioHashString@@@std@@@std@@@std@@QAE@PAVioHashString@@PBU_Container_base0@1@@Z ENDP ; std::_Vector_iterator<std::_Vector_val<ioHashString,std::allocator<ioHashString> > >::_Vector_iterator<std::_Vector_val<ioHashString,std::allocator<ioHashString> > >
_TEXT	ENDS
PUBLIC	?max_size@?$allocator@VioHashString@@@std@@QBEIXZ ; std::allocator<ioHashString>::max_size
; Function compile flags: /Ogsp
; File c:\program files (x86)\microsoft visual studio 10.0\vc\include\xmemory
;	COMDAT ?max_size@?$allocator@VioHashString@@@std@@QBEIXZ
_TEXT	SEGMENT
?max_size@?$allocator@VioHashString@@@std@@QBEIXZ PROC	; std::allocator<ioHashString>::max_size, COMDAT
; _this$ = ecx

; 218  : 		_SIZT _Count = (_SIZT)(-1) / sizeof (_Ty);
; 219  : 		return (0 < _Count ? _Count : 1);

  00000	b8 ff ff ff 0f	 mov	 eax, 268435455		; 0fffffffH

; 220  : 		}

  00005	c3		 ret	 0
?max_size@?$allocator@VioHashString@@@std@@QBEIXZ ENDP	; std::allocator<ioHashString>::max_size
_TEXT	ENDS
PUBLIC	?_Compat@?$_Vector_const_iterator@V?$_Vector_val@VioHashString@@V?$allocator@VioHashString@@@std@@@std@@@std@@QBEXABV12@@Z ; std::_Vector_const_iterator<std::_Vector_val<ioHashString,std::allocator<ioHashString> > >::_Compat
; Function compile flags: /Ogsp
; File c:\program files (x86)\microsoft visual studio 10.0\vc\include\vector
;	COMDAT ?_Compat@?$_Vector_const_iterator@V?$_Vector_val@VioHashString@@V?$allocator@VioHashString@@@std@@@std@@@std@@QBEXABV12@@Z
_TEXT	SEGMENT
___formal$ = 8						; size = 4
?_Compat@?$_Vector_const_iterator@V?$_Vector_val@VioHashString@@V?$allocator@VioHashString@@@std@@@std@@@std@@QBEXABV12@@Z PROC ; std::_Vector_const_iterator<std::_Vector_val<ioHashString,std::allocator<ioHashString> > >::_Compat, COMDAT
; _this$ = ecx

; 253  : 		}

  00000	c2 04 00	 ret	 4
?_Compat@?$_Vector_const_iterator@V?$_Vector_val@VioHashString@@V?$allocator@VioHashString@@@std@@@std@@@std@@QBEXABV12@@Z ENDP ; std::_Vector_const_iterator<std::_Vector_val<ioHashString,std::allocator<ioHashString> > >::_Compat
_TEXT	ENDS
PUBLIC	??$_Allocate@VioHashString@@@std@@YAPAVioHashString@@IPAV1@@Z ; std::_Allocate<ioHashString>
; Function compile flags: /Ogsp
; File c:\program files (x86)\microsoft visual studio 10.0\vc\include\xmemory
;	COMDAT ??$_Allocate@VioHashString@@@std@@YAPAVioHashString@@IPAV1@@Z
_TEXT	SEGMENT
$T571638 = -12						; size = 12
$T571642 = 8						; size = 4
__Count$ = 8						; size = 4
___formal$ = 12						; size = 4
??$_Allocate@VioHashString@@@std@@YAPAVioHashString@@IPAV1@@Z PROC ; std::_Allocate<ioHashString>, COMDAT

; 30   : 	{	// allocate storage for _Count elements of type _Ty

  00000	55		 push	 ebp
  00001	8b ec		 mov	 ebp, esp

; 31   : 	void *_Ptr = 0;
; 32   : 
; 33   : 	if (_Count <= 0)

  00003	8b 4d 08	 mov	 ecx, DWORD PTR __Count$[ebp]
  00006	83 ec 0c	 sub	 esp, 12			; 0000000cH
  00009	33 c0		 xor	 eax, eax
  0000b	85 c9		 test	 ecx, ecx

; 34   : 		_Count = 0;
; 35   : 	else if (((_SIZT)(-1) / sizeof (_Ty) < _Count)

  0000d	74 3c		 je	 SHORT $LN5@Allocate@2

; 36   : 		|| (_Ptr = ::operator new(_Count * sizeof (_Ty))) == 0)

  0000f	81 f9 ff ff ff
	0f		 cmp	 ecx, 268435455		; 0fffffffH
  00015	77 0e		 ja	 SHORT $LN1@Allocate@2
  00017	c1 e1 04	 shl	 ecx, 4
  0001a	51		 push	 ecx
  0001b	e8 00 00 00 00	 call	 ??2@YAPAXI@Z		; operator new
  00020	59		 pop	 ecx
  00021	85 c0		 test	 eax, eax

; 38   : 
; 39   : 	return ((_Ty _FARQ *)_Ptr);

  00023	75 26		 jne	 SHORT $LN5@Allocate@2
$LN1@Allocate@2:

; 37   : 		_THROW_NCEE(bad_alloc, 0);

  00025	83 65 08 00	 and	 DWORD PTR $T571642[ebp], 0
  00029	8d 45 08	 lea	 eax, DWORD PTR $T571642[ebp]
  0002c	50		 push	 eax
  0002d	8d 4d f4	 lea	 ecx, DWORD PTR $T571638[ebp]
  00030	ff 15 00 00 00
	00		 call	 DWORD PTR __imp_??0exception@std@@QAE@ABQBD@Z
  00036	68 00 00 00 00	 push	 OFFSET __TI2?AVbad_alloc@std@@
  0003b	8d 45 f4	 lea	 eax, DWORD PTR $T571638[ebp]
  0003e	50		 push	 eax
  0003f	c7 45 f4 00 00
	00 00		 mov	 DWORD PTR $T571638[ebp], OFFSET ??_7bad_alloc@std@@6B@
  00046	e8 00 00 00 00	 call	 __CxxThrowException@8
$LN10@Allocate@2:
$LN5@Allocate@2:

; 40   : 	}

  0004b	c9		 leave
  0004c	c3		 ret	 0
$LN9@Allocate@2:
??$_Allocate@VioHashString@@@std@@YAPAVioHashString@@IPAV1@@Z ENDP ; std::_Allocate<ioHashString>
_TEXT	ENDS
EXTRN	__imp_??0exception@std@@QAE@ABV01@@Z:PROC
; Function compile flags: /Ogsp
;	COMDAT ??0bad_alloc@std@@QAE@ABV01@@Z
_TEXT	SEGMENT
___that$ = 8						; size = 4
??0bad_alloc@std@@QAE@ABV01@@Z PROC			; std::bad_alloc::bad_alloc, COMDAT
; _this$ = ecx
  00000	55		 push	 ebp
  00001	8b ec		 mov	 ebp, esp
  00003	56		 push	 esi
  00004	ff 75 08	 push	 DWORD PTR ___that$[ebp]
  00007	8b f1		 mov	 esi, ecx
  00009	ff 15 00 00 00
	00		 call	 DWORD PTR __imp_??0exception@std@@QAE@ABV01@@Z
  0000f	c7 06 00 00 00
	00		 mov	 DWORD PTR [esi], OFFSET ??_7bad_alloc@std@@6B@
  00015	8b c6		 mov	 eax, esi
  00017	5e		 pop	 esi
  00018	5d		 pop	 ebp
  00019	c2 04 00	 ret	 4
??0bad_alloc@std@@QAE@ABV01@@Z ENDP			; std::bad_alloc::bad_alloc
_TEXT	ENDS
PUBLIC	??$forward@ABVioHashString@@@std@@YAABVioHashString@@ABV1@@Z ; std::forward<ioHashString const &>
; Function compile flags: /Ogsp
; File c:\program files (x86)\microsoft visual studio 10.0\vc\include\utility
;	COMDAT ??$forward@ABVioHashString@@@std@@YAABVioHashString@@ABV1@@Z
_TEXT	SEGMENT
__Arg$ = 8						; size = 4
??$forward@ABVioHashString@@@std@@YAABVioHashString@@ABV1@@Z PROC ; std::forward<ioHashString const &>, COMDAT

; 78   : 	{	// forward _Arg, given explicitly specified type parameter

  00000	55		 push	 ebp
  00001	8b ec		 mov	 ebp, esp

; 79   : 	return ((_Ty&&)_Arg);

  00003	8b 45 08	 mov	 eax, DWORD PTR __Arg$[ebp]

; 80   : 	}

  00006	5d		 pop	 ebp
  00007	c3		 ret	 0
??$forward@ABVioHashString@@@std@@YAABVioHashString@@ABV1@@Z ENDP ; std::forward<ioHashString const &>
_TEXT	ENDS
PUBLIC	??$forward@AAVioHashString@@@std@@YAAAVioHashString@@AAV1@@Z ; std::forward<ioHashString &>
; Function compile flags: /Ogsp
;	COMDAT ??$forward@AAVioHashString@@@std@@YAAAVioHashString@@AAV1@@Z
_TEXT	SEGMENT
__Arg$ = 8						; size = 4
??$forward@AAVioHashString@@@std@@YAAAVioHashString@@AAV1@@Z PROC ; std::forward<ioHashString &>, COMDAT

; 78   : 	{	// forward _Arg, given explicitly specified type parameter

  00000	55		 push	 ebp
  00001	8b ec		 mov	 ebp, esp

; 79   : 	return ((_Ty&&)_Arg);

  00003	8b 45 08	 mov	 eax, DWORD PTR __Arg$[ebp]

; 80   : 	}

  00006	5d		 pop	 ebp
  00007	c3		 ret	 0
??$forward@AAVioHashString@@@std@@YAAAVioHashString@@AAV1@@Z ENDP ; std::forward<ioHashString &>
_TEXT	ENDS
PUBLIC	??$_Ptr_cat@VioHashString@@V1@@std@@YA?AU_Nonscalar_ptr_iterator_tag@0@PAVioHashString@@0@Z ; std::_Ptr_cat<ioHashString,ioHashString>
; Function compile flags: /Ogsp
; File c:\program files (x86)\microsoft visual studio 10.0\vc\include\xutility
;	COMDAT ??$_Ptr_cat@VioHashString@@V1@@std@@YA?AU_Nonscalar_ptr_iterator_tag@0@PAVioHashString@@0@Z
_TEXT	SEGMENT
__Cat$ = -1						; size = 1
___formal$ = 8						; size = 4
___formal$ = 12						; size = 4
??$_Ptr_cat@VioHashString@@V1@@std@@YA?AU_Nonscalar_ptr_iterator_tag@0@PAVioHashString@@0@Z PROC ; std::_Ptr_cat<ioHashString,ioHashString>, COMDAT

; 516  : 	{	// return pointer category from pointers

  00000	55		 push	 ebp
  00001	8b ec		 mov	 ebp, esp
  00003	51		 push	 ecx

; 517  : 	typename _Ptr_cat_helper<_Elem1, _Elem2>::_Type _Cat;
; 518  : 	return (_Cat);

  00004	8a 45 ff	 mov	 al, BYTE PTR __Cat$[ebp]

; 519  : 	}

  00007	c9		 leave
  00008	c3		 ret	 0
??$_Ptr_cat@VioHashString@@V1@@std@@YA?AU_Nonscalar_ptr_iterator_tag@0@PAVioHashString@@0@Z ENDP ; std::_Ptr_cat<ioHashString,ioHashString>
_TEXT	ENDS
PUBLIC	??$_Ptr_cat@UCustomTexture@@U1@@std@@YA?AU_Nonscalar_ptr_iterator_tag@0@PAUCustomTexture@@0@Z ; std::_Ptr_cat<CustomTexture,CustomTexture>
; Function compile flags: /Ogsp
;	COMDAT ??$_Ptr_cat@UCustomTexture@@U1@@std@@YA?AU_Nonscalar_ptr_iterator_tag@0@PAUCustomTexture@@0@Z
_TEXT	SEGMENT
__Cat$ = -1						; size = 1
___formal$ = 8						; size = 4
___formal$ = 12						; size = 4
??$_Ptr_cat@UCustomTexture@@U1@@std@@YA?AU_Nonscalar_ptr_iterator_tag@0@PAUCustomTexture@@0@Z PROC ; std::_Ptr_cat<CustomTexture,CustomTexture>, COMDAT

; 516  : 	{	// return pointer category from pointers

  00000	55		 push	 ebp
  00001	8b ec		 mov	 ebp, esp
  00003	51		 push	 ecx

; 517  : 	typename _Ptr_cat_helper<_Elem1, _Elem2>::_Type _Cat;
; 518  : 	return (_Cat);

  00004	8a 45 ff	 mov	 al, BYTE PTR __Cat$[ebp]

; 519  : 	}

  00007	c9		 leave
  00008	c3		 ret	 0
??$_Ptr_cat@UCustomTexture@@U1@@std@@YA?AU_Nonscalar_ptr_iterator_tag@0@PAUCustomTexture@@0@Z ENDP ; std::_Ptr_cat<CustomTexture,CustomTexture>
_TEXT	ENDS
PUBLIC	??D?$_Vector_const_iterator@V?$_Vector_val@VioHashString@@V?$allocator@VioHashString@@@std@@@std@@@std@@QBEABVioHashString@@XZ ; std::_Vector_const_iterator<std::_Vector_val<ioHashString,std::allocator<ioHashString> > >::operator*
; Function compile flags: /Ogsp
; File c:\program files (x86)\microsoft visual studio 10.0\vc\include\vector
;	COMDAT ??D?$_Vector_const_iterator@V?$_Vector_val@VioHashString@@V?$allocator@VioHashString@@@std@@@std@@@std@@QBEABVioHashString@@XZ
_TEXT	SEGMENT
??D?$_Vector_const_iterator@V?$_Vector_val@VioHashString@@V?$allocator@VioHashString@@@std@@@std@@@std@@QBEABVioHashString@@XZ PROC ; std::_Vector_const_iterator<std::_Vector_val<ioHashString,std::allocator<ioHashString> > >::operator*, COMDAT
; _this$ = ecx

; 64   :  #if _ITERATOR_DEBUG_LEVEL == 2
; 65   : 		if (this->_Getcont() == 0
; 66   : 			|| this->_Ptr == 0
; 67   : 			|| this->_Ptr < ((_Myvec *)this->_Getcont())->_Myfirst
; 68   : 			|| ((_Myvec *)this->_Getcont())->_Mylast <= this->_Ptr)
; 69   : 			{	// report error
; 70   : 			_DEBUG_ERROR("vector iterator not dereferencable");
; 71   : 			_SCL_SECURE_OUT_OF_RANGE;
; 72   : 			}
; 73   : 
; 74   :  #elif _ITERATOR_DEBUG_LEVEL == 1
; 75   : 		_SCL_SECURE_VALIDATE(this->_Getcont() != 0);
; 76   : 		_SCL_SECURE_VALIDATE_RANGE(
; 77   : 			this->_Ptr != 0
; 78   : 			&& ((_Myvec *)this->_Getcont())->_Myfirst <= this->_Ptr
; 79   : 			&& this->_Ptr < ((_Myvec *)this->_Getcont())->_Mylast);
; 80   :  #endif /* _ITERATOR_DEBUG_LEVEL */
; 81   : 
; 82   : 		__analysis_assume(this->_Ptr != 0);
; 83   : 
; 84   : 		return (*this->_Ptr);

  00000	8b 01		 mov	 eax, DWORD PTR [ecx]

; 85   : 		}

  00002	c3		 ret	 0
??D?$_Vector_const_iterator@V?$_Vector_val@VioHashString@@V?$allocator@VioHashString@@@std@@@std@@@std@@QBEABVioHashString@@XZ ENDP ; std::_Vector_const_iterator<std::_Vector_val<ioHashString,std::allocator<ioHashString> > >::operator*
_TEXT	ENDS
PUBLIC	??E?$_Vector_const_iterator@V?$_Vector_val@VioHashString@@V?$allocator@VioHashString@@@std@@@std@@@std@@QAEAAV01@XZ ; std::_Vector_const_iterator<std::_Vector_val<ioHashString,std::allocator<ioHashString> > >::operator++
; Function compile flags: /Ogsp
;	COMDAT ??E?$_Vector_const_iterator@V?$_Vector_val@VioHashString@@V?$allocator@VioHashString@@@std@@@std@@@std@@QAEAAV01@XZ
_TEXT	SEGMENT
??E?$_Vector_const_iterator@V?$_Vector_val@VioHashString@@V?$allocator@VioHashString@@@std@@@std@@@std@@QAEAAV01@XZ PROC ; std::_Vector_const_iterator<std::_Vector_val<ioHashString,std::allocator<ioHashString> > >::operator++, COMDAT
; _this$ = ecx

; 93   : 		{	// preincrement

  00000	8b c1		 mov	 eax, ecx

; 94   :  #if _ITERATOR_DEBUG_LEVEL == 2
; 95   : 		if (this->_Getcont() == 0
; 96   : 			|| this->_Ptr == 0
; 97   : 			|| ((_Myvec *)this->_Getcont())->_Mylast <= this->_Ptr)
; 98   : 			{	// report error
; 99   : 			_DEBUG_ERROR("vector iterator not incrementable");
; 100  : 			_SCL_SECURE_OUT_OF_RANGE;
; 101  : 			}
; 102  : 
; 103  :  #elif _ITERATOR_DEBUG_LEVEL == 1
; 104  : 		_SCL_SECURE_VALIDATE(this->_Getcont() != 0);
; 105  : 		_SCL_SECURE_VALIDATE_RANGE(
; 106  : 			this->_Ptr != 0
; 107  : 			&& this->_Ptr < ((_Myvec *)this->_Getcont())->_Mylast);
; 108  :  #endif /* _ITERATOR_DEBUG_LEVEL */
; 109  : 
; 110  : 		++this->_Ptr;

  00002	83 00 10	 add	 DWORD PTR [eax], 16	; 00000010H

; 111  : 		return (*this);
; 112  : 		}

  00005	c3		 ret	 0
??E?$_Vector_const_iterator@V?$_Vector_val@VioHashString@@V?$allocator@VioHashString@@@std@@@std@@@std@@QAEAAV01@XZ ENDP ; std::_Vector_const_iterator<std::_Vector_val<ioHashString,std::allocator<ioHashString> > >::operator++
_TEXT	ENDS
PUBLIC	??_GioHashString@@QAEPAXI@Z			; ioHashString::`scalar deleting destructor'
; Function compile flags: /Ogsp
;	COMDAT ??_GioHashString@@QAEPAXI@Z
_TEXT	SEGMENT
___flags$ = 8						; size = 4
??_GioHashString@@QAEPAXI@Z PROC			; ioHashString::`scalar deleting destructor', COMDAT
; _this$ = ecx
  00000	55		 push	 ebp
  00001	8b ec		 mov	 ebp, esp
  00003	56		 push	 esi
  00004	8b f1		 mov	 esi, ecx
  00006	ff 15 00 00 00
	00		 call	 DWORD PTR __imp_??1ioHashString@@QAE@XZ
  0000c	f6 45 08 01	 test	 BYTE PTR ___flags$[ebp], 1
  00010	74 07		 je	 SHORT $LN1@scalar@2
  00012	56		 push	 esi
  00013	e8 00 00 00 00	 call	 ??3@YAXPAX@Z		; operator delete
  00018	59		 pop	 ecx
$LN1@scalar@2:
  00019	8b c6		 mov	 eax, esi
  0001b	5e		 pop	 esi
  0001c	5d		 pop	 ebp
  0001d	c2 04 00	 ret	 4
??_GioHashString@@QAEPAXI@Z ENDP			; ioHashString::`scalar deleting destructor'
_TEXT	ENDS
PUBLIC	??1CustomTexture@@QAE@XZ			; CustomTexture::~CustomTexture
; Function compile flags: /Ogsp
;	COMDAT ??1CustomTexture@@QAE@XZ
_TEXT	SEGMENT
??1CustomTexture@@QAE@XZ PROC				; CustomTexture::~CustomTexture, COMDAT
; _this$ = ecx
  00000	83 c1 04	 add	 ecx, 4
  00003	ff 25 00 00 00
	00		 jmp	 DWORD PTR __imp_??1ioHashString@@QAE@XZ
??1CustomTexture@@QAE@XZ ENDP				; CustomTexture::~CustomTexture
_TEXT	ENDS
PUBLIC	??$_Construct@VioHashString@@ABV1@@std@@YAXPAVioHashString@@ABV1@@Z ; std::_Construct<ioHashString,ioHashString const &>
;	COMDAT xdata$x
; File c:\program files (x86)\microsoft visual studio 10.0\vc\include\utility
xdata$x	SEGMENT
__unwindtable$??$_Construct@VioHashString@@ABV1@@std@@YAXPAVioHashString@@ABV1@@Z DD 0ffffffffH
	DD	FLAT:__unwindfunclet$??$_Construct@VioHashString@@ABV1@@std@@YAXPAVioHashString@@ABV1@@Z$0
__ehfuncinfo$??$_Construct@VioHashString@@ABV1@@std@@YAXPAVioHashString@@ABV1@@Z DD 019930522H
	DD	01H
	DD	FLAT:__unwindtable$??$_Construct@VioHashString@@ABV1@@std@@YAXPAVioHashString@@ABV1@@Z
	DD	2 DUP(00H)
	DD	2 DUP(00H)
	DD	00H
	DD	01H
; Function compile flags: /Ogsp
; File c:\program files (x86)\microsoft visual studio 10.0\vc\include\xmemory
xdata$x	ENDS
;	COMDAT ??$_Construct@VioHashString@@ABV1@@std@@YAXPAVioHashString@@ABV1@@Z
_TEXT	SEGMENT
$T571671 = -16						; size = 4
__$EHRec$ = -12						; size = 12
__Vptr$ = 8						; size = 4
__Ptr$ = 8						; size = 4
__Val$ = 12						; size = 4
??$_Construct@VioHashString@@ABV1@@std@@YAXPAVioHashString@@ABV1@@Z PROC ; std::_Construct<ioHashString,ioHashString const &>, COMDAT

; 46   : 	{	// construct object at _Ptr with value _Val

  00000	6a 04		 push	 4
  00002	b8 00 00 00 00	 mov	 eax, __ehhandler$??$_Construct@VioHashString@@ABV1@@std@@YAXPAVioHashString@@ABV1@@Z
  00007	e8 00 00 00 00	 call	 __EH_prolog3

; 47   : 	void _FARQ *_Vptr = _Ptr;

  0000c	8b 4d 08	 mov	 ecx, DWORD PTR __Ptr$[ebp]
  0000f	89 4d 08	 mov	 DWORD PTR __Vptr$[ebp], ecx

; 48   : 	::new (_Vptr) _Ty1(_STD forward<_Ty2>(_Val));

  00012	89 4d f0	 mov	 DWORD PTR $T571671[ebp], ecx
  00015	83 65 fc 00	 and	 DWORD PTR __$EHRec$[ebp+8], 0
  00019	85 c9		 test	 ecx, ecx
  0001b	74 09		 je	 SHORT $LN3@Construct
  0001d	ff 75 0c	 push	 DWORD PTR __Val$[ebp]
  00020	ff 15 00 00 00
	00		 call	 DWORD PTR __imp_??0ioHashString@@QAE@ABV0@@Z
$LN3@Construct:

; 49   : 	}

  00026	e8 00 00 00 00	 call	 __EH_epilog3
  0002b	c3		 ret	 0
_TEXT	ENDS
;	COMDAT text$x
text$x	SEGMENT
__unwindfunclet$??$_Construct@VioHashString@@ABV1@@std@@YAXPAVioHashString@@ABV1@@Z$0:
  00000	ff 75 08	 push	 DWORD PTR __Vptr$[ebp]
  00003	ff 75 f0	 push	 DWORD PTR $T571671[ebp]
  00006	e8 00 00 00 00	 call	 ??3@YAXPAX0@Z		; operator delete
  0000b	59		 pop	 ecx
  0000c	59		 pop	 ecx
  0000d	c3		 ret	 0
__ehhandler$??$_Construct@VioHashString@@ABV1@@std@@YAXPAVioHashString@@ABV1@@Z:
  0000e	8b 54 24 08	 mov	 edx, DWORD PTR [esp+8]
  00012	8d 42 0c	 lea	 eax, DWORD PTR [edx+12]
  00015	8b 4a ec	 mov	 ecx, DWORD PTR [edx-20]
  00018	33 c8		 xor	 ecx, eax
  0001a	e8 00 00 00 00	 call	 @__security_check_cookie@4
  0001f	b8 00 00 00 00	 mov	 eax, OFFSET __ehfuncinfo$??$_Construct@VioHashString@@ABV1@@std@@YAXPAVioHashString@@ABV1@@Z
  00024	e9 00 00 00 00	 jmp	 ___CxxFrameHandler3
text$x	ENDS
??$_Construct@VioHashString@@ABV1@@std@@YAXPAVioHashString@@ABV1@@Z ENDP ; std::_Construct<ioHashString,ioHashString const &>
PUBLIC	?IsCustomItemCheck@ioCreateChar@@QAE_NK@Z	; ioCreateChar::IsCustomItemCheck
; Function compile flags: /Ogsp
; File d:\lost saga for developer\youtube\tutorial\source\src\lsclient\iocreatechar.cpp
;	COMDAT ?IsCustomItemCheck@ioCreateChar@@QAE_NK@Z
_TEXT	SEGMENT
_dwCustomIndex$ = 8					; size = 4
?IsCustomItemCheck@ioCreateChar@@QAE_NK@Z PROC		; ioCreateChar::IsCustomItemCheck, COMDAT
; _this$ = ecx

; 571  : {

  00000	55		 push	 ebp
  00001	8b ec		 mov	 ebp, esp
  00003	8a 51 1c	 mov	 dl, BYTE PTR [ecx+28]
  00006	56		 push	 esi

; 572  : 	for(int i = 0;i < MAX_CCS;i++)

  00007	8d 81 88 00 00
	00		 lea	 eax, DWORD PTR [ecx+136]
  0000d	8b 4d 08	 mov	 ecx, DWORD PTR _dwCustomIndex$[ebp]
  00010	33 f6		 xor	 esi, esi
$LL7@IsCustomIt:

; 573  : 	{
; 574  : 		if( IsMale() )

  00012	84 d2		 test	 dl, dl
  00014	74 05		 je	 SHORT $LN4@IsCustomIt

; 575  : 		{
; 576  : 			if( m_ItemSlot[i].dwItemMaleCustom == dwCustomIndex )

  00016	39 48 fc	 cmp	 DWORD PTR [eax-4], ecx

; 578  : 		}
; 579  : 		else

  00019	eb 02		 jmp	 SHORT $LN16@IsCustomIt
$LN4@IsCustomIt:

; 580  : 		{
; 581  : 			if( m_ItemSlot[i].dwItemFemaleCustom == dwCustomIndex )

  0001b	39 08		 cmp	 DWORD PTR [eax], ecx
$LN16@IsCustomIt:
  0001d	74 10		 je	 SHORT $LN13@IsCustomIt

; 572  : 	for(int i = 0;i < MAX_CCS;i++)

  0001f	46		 inc	 esi
  00020	83 c0 1c	 add	 eax, 28			; 0000001cH
  00023	83 fe 04	 cmp	 esi, 4
  00026	7c ea		 jl	 SHORT $LL7@IsCustomIt

; 582  : 				return true;
; 583  : 		}
; 584  : 	}
; 585  : 	return false;

  00028	32 c0		 xor	 al, al
$LN8@IsCustomIt:
  0002a	5e		 pop	 esi

; 586  : }

  0002b	5d		 pop	 ebp
  0002c	c2 04 00	 ret	 4
$LN13@IsCustomIt:

; 577  : 				return true;

  0002f	b0 01		 mov	 al, 1
  00031	eb f7		 jmp	 SHORT $LN8@IsCustomIt
?IsCustomItemCheck@ioCreateChar@@QAE_NK@Z ENDP		; ioCreateChar::IsCustomItemCheck
_TEXT	ENDS
PUBLIC	??_C@_09CBAOACBL@?$CFd_?$CFd?4lsc?$AA@		; `string'
PUBLIC	?CustomTextureDownLoadComplete@ioCreateChar@@QAEXABVioHashString@@KKH@Z ; ioCreateChar::CustomTextureDownLoadComplete
EXTRN	?CustomEntityGroupTexture@Help@@YAXPAVioEntityGroup@@ABVioHashString@@1H@Z:PROC ; Help::CustomEntityGroupTexture
EXTRN	__imp__sprintf:PROC
EXTRN	__EH_epilog3_GS:PROC
EXTRN	__EH_prolog3_GS:PROC
EXTRN	_memset:PROC
;	COMDAT ??_C@_09CBAOACBL@?$CFd_?$CFd?4lsc?$AA@
CONST	SEGMENT
??_C@_09CBAOACBL@?$CFd_?$CFd?4lsc?$AA@ DB '%d_%d.lsc', 00H ; `string'
CONST	ENDS
;	COMDAT xdata$x
xdata$x	SEGMENT
__unwindtable$?CustomTextureDownLoadComplete@ioCreateChar@@QAEXABVioHashString@@KKH@Z DD 0ffffffffH
	DD	FLAT:__unwindfunclet$?CustomTextureDownLoadComplete@ioCreateChar@@QAEXABVioHashString@@KKH@Z$0
__ehfuncinfo$?CustomTextureDownLoadComplete@ioCreateChar@@QAEXABVioHashString@@KKH@Z DD 019930522H
	DD	01H
	DD	FLAT:__unwindtable$?CustomTextureDownLoadComplete@ioCreateChar@@QAEXABVioHashString@@KKH@Z
	DD	2 DUP(00H)
	DD	2 DUP(00H)
	DD	00H
	DD	01H
; Function compile flags: /Ogsp
xdata$x	ENDS
;	COMDAT ?CustomTextureDownLoadComplete@ioCreateChar@@QAEXABVioHashString@@KKH@Z
_TEXT	SEGMENT
$T571701 = -292						; size = 16
_szSrcName$ = -276					; size = 260
__$EHRec$ = -12						; size = 12
_rkDstTex$ = 8						; size = 4
_dwCustomIndex$ = 12					; size = 4
_dwSubIndex$ = 16					; size = 4
_bCostumeDown$ = 20					; size = 4
?CustomTextureDownLoadComplete@ioCreateChar@@QAEXABVioHashString@@KKH@Z PROC ; ioCreateChar::CustomTextureDownLoadComplete, COMDAT
; _this$ = ecx

; 589  : {

  00000	68 18 01 00 00	 push	 280			; 00000118H
  00005	b8 00 00 00 00	 mov	 eax, __ehhandler$?CustomTextureDownLoadComplete@ioCreateChar@@QAEXABVioHashString@@KKH@Z
  0000a	e8 00 00 00 00	 call	 __EH_prolog3_GS

; 590  : 	if( !IsCustomItemCheck( dwCustomIndex ) ) return;

  0000f	ff 75 0c	 push	 DWORD PTR _dwCustomIndex$[ebp]
  00012	8b 7d 08	 mov	 edi, DWORD PTR _rkDstTex$[ebp]
  00015	8b f1		 mov	 esi, ecx
  00017	e8 00 00 00 00	 call	 ?IsCustomItemCheck@ioCreateChar@@QAE_NK@Z ; ioCreateChar::IsCustomItemCheck
  0001c	84 c0		 test	 al, al
  0001e	74 72		 je	 SHORT $LN2@CustomText

; 591  : 
; 592  : 	//    CustomIndex / SubIndex  .
; 593  : 	char szSrcName[MAX_PATH] = "";

  00020	68 03 01 00 00	 push	 259			; 00000103H
  00025	8d 85 ed fe ff
	ff		 lea	 eax, DWORD PTR _szSrcName$[ebp+1]
  0002b	6a 00		 push	 0
  0002d	50		 push	 eax
  0002e	c6 85 ec fe ff
	ff 00		 mov	 BYTE PTR _szSrcName$[ebp], 0
  00035	e8 00 00 00 00	 call	 _memset

; 594  : #ifdef CUSTOM_COSTUME
; 595  : 	if( bCostumeDown )
; 596  : 		sprintf( szSrcName, "%d_%d_c.lsc", dwCustomIndex, dwSubIndex );
; 597  : 	else
; 598  : 		sprintf( szSrcName, "%d_%d.lsc", dwCustomIndex, dwSubIndex );
; 599  : #else
; 600  : 	sprintf( szSrcName, "%d_%d.lsc", dwCustomIndex, dwSubIndex );

  0003a	ff 75 10	 push	 DWORD PTR _dwSubIndex$[ebp]
  0003d	8d 85 ec fe ff
	ff		 lea	 eax, DWORD PTR _szSrcName$[ebp]
  00043	ff 75 0c	 push	 DWORD PTR _dwCustomIndex$[ebp]
  00046	68 00 00 00 00	 push	 OFFSET ??_C@_09CBAOACBL@?$CFd_?$CFd?4lsc?$AA@
  0004b	50		 push	 eax
  0004c	ff 15 00 00 00
	00		 call	 DWORD PTR __imp__sprintf
  00052	83 c4 1c	 add	 esp, 28			; 0000001cH

; 601  : #endif
; 602  : 
; 603  : 	Help::CustomEntityGroupTexture( m_pGrp, rkDstTex, szSrcName, dwSubIndex );

  00055	8d 85 ec fe ff
	ff		 lea	 eax, DWORD PTR _szSrcName$[ebp]
  0005b	50		 push	 eax
  0005c	8d 8d dc fe ff
	ff		 lea	 ecx, DWORD PTR $T571701[ebp]
  00062	ff 15 00 00 00
	00		 call	 DWORD PTR __imp_??0ioHashString@@QAE@PBD@Z
  00068	ff 75 10	 push	 DWORD PTR _dwSubIndex$[ebp]
  0006b	83 65 fc 00	 and	 DWORD PTR __$EHRec$[ebp+8], 0
  0006f	8d 85 dc fe ff
	ff		 lea	 eax, DWORD PTR $T571701[ebp]
  00075	50		 push	 eax
  00076	57		 push	 edi
  00077	ff 76 04	 push	 DWORD PTR [esi+4]
  0007a	e8 00 00 00 00	 call	 ?CustomEntityGroupTexture@Help@@YAXPAVioEntityGroup@@ABVioHashString@@1H@Z ; Help::CustomEntityGroupTexture
  0007f	83 4d fc ff	 or	 DWORD PTR __$EHRec$[ebp+8], -1
  00083	83 c4 10	 add	 esp, 16			; 00000010H
  00086	8d 8d dc fe ff
	ff		 lea	 ecx, DWORD PTR $T571701[ebp]
  0008c	ff 15 00 00 00
	00		 call	 DWORD PTR __imp_??1ioHashString@@QAE@XZ
$LN2@CustomText:

; 604  : }

  00092	e8 00 00 00 00	 call	 __EH_epilog3_GS
  00097	c2 10 00	 ret	 16			; 00000010H
_TEXT	ENDS
;	COMDAT text$x
text$x	SEGMENT
__unwindfunclet$?CustomTextureDownLoadComplete@ioCreateChar@@QAEXABVioHashString@@KKH@Z$0:
  00000	8d 8d dc fe ff
	ff		 lea	 ecx, DWORD PTR $T571701[ebp]
  00006	ff 25 00 00 00
	00		 jmp	 DWORD PTR __imp_??1ioHashString@@QAE@XZ
__ehhandler$?CustomTextureDownLoadComplete@ioCreateChar@@QAEXABVioHashString@@KKH@Z:
  0000c	8b 54 24 08	 mov	 edx, DWORD PTR [esp+8]
  00010	8d 42 0c	 lea	 eax, DWORD PTR [edx+12]
  00013	8b 8a d8 fe ff
	ff		 mov	 ecx, DWORD PTR [edx-296]
  00019	33 c8		 xor	 ecx, eax
  0001b	e8 00 00 00 00	 call	 @__security_check_cookie@4
  00020	8b 4a fc	 mov	 ecx, DWORD PTR [edx-4]
  00023	33 c8		 xor	 ecx, eax
  00025	e8 00 00 00 00	 call	 @__security_check_cookie@4
  0002a	b8 00 00 00 00	 mov	 eax, OFFSET __ehfuncinfo$?CustomTextureDownLoadComplete@ioCreateChar@@QAEXABVioHashString@@KKH@Z
  0002f	e9 00 00 00 00	 jmp	 ___CxxFrameHandler3
text$x	ENDS
?CustomTextureDownLoadComplete@ioCreateChar@@QAEXABVioHashString@@KKH@Z ENDP ; ioCreateChar::CustomTextureDownLoadComplete
PUBLIC	?EquipSlotEntity@ioCreateChar@@IAEXHPAVioEntity@@H@Z ; ioCreateChar::EquipSlotEntity
EXTRN	?CustomEntityTextureNameCnt@Help@@YAXPAVioEntity@@KAAV?$vector@UCustomTexture@@V?$allocator@UCustomTexture@@@std@@@std@@H@Z:PROC ; Help::CustomEntityTextureNameCnt
; Function compile flags: /Ogsp
;	COMDAT ?EquipSlotEntity@ioCreateChar@@IAEXHPAVioEntity@@H@Z
_TEXT	SEGMENT
_iSlot$ = 8						; size = 4
_pEntity$ = 12						; size = 4
_bCostume$ = 16						; size = 4
?EquipSlotEntity@ioCreateChar@@IAEXHPAVioEntity@@H@Z PROC ; ioCreateChar::EquipSlotEntity, COMDAT
; _this$ = ecx

; 669  : {

  00000	55		 push	 ebp
  00001	8b ec		 mov	 ebp, esp
  00003	53		 push	 ebx

; 670  : 	if( !pEntity ) return;

  00004	33 db		 xor	 ebx, ebx
  00006	56		 push	 esi
  00007	8b f1		 mov	 esi, ecx
  00009	39 5d 0c	 cmp	 DWORD PTR _pEntity$[ebp], ebx
  0000c	74 50		 je	 SHORT $LN3@EquipSlotE

; 671  : #ifndef CUSTOM_COSTUME
; 672  : 	bCostume = false;
; 673  : #endif
; 674  : 	if( COMPARE( iSlot, CCS_WEAPON, MAX_CCS ) )

  0000e	8b 45 08	 mov	 eax, DWORD PTR _iSlot$[ebp]
  00011	83 f8 03	 cmp	 eax, 3
  00014	77 48		 ja	 SHORT $LN3@EquipSlotE

; 675  : 	{
; 676  : 		if( IsMale() && m_ItemSlot[iSlot].dwItemMaleCustom > 0 || !IsMale() && m_ItemSlot[iSlot].dwItemFemaleCustom > 0 )

  00016	8a 4e 1c	 mov	 cl, BYTE PTR [esi+28]
  00019	3a cb		 cmp	 cl, bl
  0001b	74 12		 je	 SHORT $LN13@EquipSlotE
  0001d	8b d0		 mov	 edx, eax
  0001f	6b d2 1c	 imul	 edx, 28			; 0000001cH
  00022	39 9c 32 84 00
	00 00		 cmp	 DWORD PTR [edx+esi+132], ebx
  00029	77 12		 ja	 SHORT $LN2@EquipSlotE
  0002b	3a cb		 cmp	 cl, bl
  0002d	75 2f		 jne	 SHORT $LN3@EquipSlotE
$LN13@EquipSlotE:
  0002f	8b c8		 mov	 ecx, eax
  00031	6b c9 1c	 imul	 ecx, 28			; 0000001cH
  00034	39 9c 31 88 00
	00 00		 cmp	 DWORD PTR [ecx+esi+136], ebx
  0003b	76 21		 jbe	 SHORT $LN3@EquipSlotE
$LN2@EquipSlotE:

; 677  : 		{
; 678  : 			Help::CustomEntityTextureNameCnt( pEntity, 0, m_ItemSlot[iSlot].vCustomTexList );

  0003d	83 c0 05	 add	 eax, 5
  00040	6b c0 1c	 imul	 eax, 28			; 0000001cH
  00043	53		 push	 ebx
  00044	03 c6		 add	 eax, esi
  00046	50		 push	 eax
  00047	53		 push	 ebx
  00048	ff 75 0c	 push	 DWORD PTR _pEntity$[ebp]
  0004b	e8 00 00 00 00	 call	 ?CustomEntityTextureNameCnt@Help@@YAXPAVioEntity@@KAAV?$vector@UCustomTexture@@V?$allocator@UCustomTexture@@@std@@@std@@H@Z ; Help::CustomEntityTextureNameCnt

; 679  : 			AddEntityEvent( pEntity, bCostume );

  00050	8b 06		 mov	 eax, DWORD PTR [esi]
  00052	83 c4 10	 add	 esp, 16			; 00000010H
  00055	53		 push	 ebx
  00056	ff 75 0c	 push	 DWORD PTR _pEntity$[ebp]
  00059	8b ce		 mov	 ecx, esi
  0005b	ff 50 08	 call	 DWORD PTR [eax+8]
$LN3@EquipSlotE:
  0005e	5e		 pop	 esi
  0005f	5b		 pop	 ebx

; 680  : 		}
; 681  : 	}
; 682  : }

  00060	5d		 pop	 ebp
  00061	c2 0c 00	 ret	 12			; 0000000cH
?EquipSlotEntity@ioCreateChar@@IAEXHPAVioEntity@@H@Z ENDP ; ioCreateChar::EquipSlotEntity
_TEXT	ENDS
PUBLIC	?StringCbPrintfA@@YAJPADIPBDZZ			; StringCbPrintfA
; Function compile flags: /Ogsp
; File c:\program files (x86)\microsoft sdks\windows\v7.0a\include\strsafe.h
;	COMDAT ?StringCbPrintfA@@YAJPADIPBDZZ
_TEXT	SEGMENT
_pszDest$ = 8						; size = 4
_cbDest$ = 12						; size = 4
_pszFormat$ = 16					; size = 4
?StringCbPrintfA@@YAJPADIPBDZZ PROC			; StringCbPrintfA, COMDAT

; 4767 : {

  00000	55		 push	 ebp
  00001	8b ec		 mov	 ebp, esp

; 4768 :     HRESULT hr;
; 4769 :     size_t cchDest = cbDest / sizeof(char);
; 4770 : 
; 4771 :     hr = StringValidateDestA(pszDest, cchDest, STRSAFE_MAX_CCH);

  00003	8b 4d 0c	 mov	 ecx, DWORD PTR _cbDest$[ebp]
  00006	33 c0		 xor	 eax, eax
  00008	85 c9		 test	 ecx, ecx
  0000a	74 08		 je	 SHORT $LN4@StringCbPr
  0000c	81 f9 ff ff ff
	7f		 cmp	 ecx, 2147483647		; 7fffffffH
  00012	76 05		 jbe	 SHORT $LN5@StringCbPr
$LN4@StringCbPr:
  00014	b8 57 00 07 80	 mov	 eax, -2147024809	; 80070057H
$LN5@StringCbPr:

; 4772 :     
; 4773 :     if (SUCCEEDED(hr))

  00019	85 c0		 test	 eax, eax
  0001b	78 39		 js	 SHORT $LN1@StringCbPr

; 4774 :     {
; 4775 :         va_list argList;
; 4776 : 
; 4777 :         va_start(argList, pszFormat);
; 4778 : 
; 4779 :         hr = StringVPrintfWorkerA(pszDest,
; 4780 :                                   cchDest,
; 4781 :                                   NULL,
; 4782 :                                   pszFormat,
; 4783 :                                   argList);

  0001d	53		 push	 ebx
  0001e	56		 push	 esi
  0001f	57		 push	 edi
  00020	8b 7d 08	 mov	 edi, DWORD PTR _pszDest$[ebp]
  00023	8d 45 14	 lea	 eax, DWORD PTR _pszFormat$[ebp+4]
  00026	50		 push	 eax
  00027	ff 75 10	 push	 DWORD PTR _pszFormat$[ebp]
  0002a	8d 71 ff	 lea	 esi, DWORD PTR [ecx-1]
  0002d	56		 push	 esi
  0002e	57		 push	 edi
  0002f	33 db		 xor	 ebx, ebx
  00031	ff 15 00 00 00
	00		 call	 DWORD PTR __imp___vsnprintf
  00037	83 c4 10	 add	 esp, 16			; 00000010H
  0003a	85 c0		 test	 eax, eax
  0003c	78 0b		 js	 SHORT $LN12@StringCbPr
  0003e	3b c6		 cmp	 eax, esi
  00040	77 07		 ja	 SHORT $LN12@StringCbPr
  00042	75 0d		 jne	 SHORT $LN9@StringCbPr
  00044	88 1c 3e	 mov	 BYTE PTR [esi+edi], bl
  00047	eb 08		 jmp	 SHORT $LN9@StringCbPr
$LN12@StringCbPr:
  00049	88 1c 3e	 mov	 BYTE PTR [esi+edi], bl
  0004c	bb 7a 00 07 80	 mov	 ebx, -2147024774	; 8007007aH
$LN9@StringCbPr:
  00051	5f		 pop	 edi
  00052	5e		 pop	 esi
  00053	8b c3		 mov	 eax, ebx
  00055	5b		 pop	 ebx
$LN1@StringCbPr:

; 4784 : 
; 4785 :         va_end(argList);
; 4786 :     }
; 4787 : 
; 4788 :     return hr;
; 4789 : }

  00056	5d		 pop	 ebp
  00057	c3		 ret	 0
?StringCbPrintfA@@YAJPADIPBDZZ ENDP			; StringCbPrintfA
_TEXT	ENDS
PUBLIC	_rkMeshName$GSCopy$
PUBLIC	?RemoveEntityInOwner@ioCreateChar@@IAE_NABVioHashString@@_N@Z ; ioCreateChar::RemoveEntityInOwner
EXTRN	__imp_?IsFileExist@ioResourceLoader@@QAE_NPBD_N@Z:PROC
EXTRN	__imp_?GetInstance@ioResourceLoader@@SAAAV1@XZ:PROC
EXTRN	__imp_?c_str@ioHashString@@QBEPBDXZ:PROC
EXTRN	?ConvertName@Help@@YA?AVioHashString@@ABV2@_N@Z:PROC ; Help::ConvertName
;	COMDAT xdata$x
; File d:\lost saga for developer\youtube\tutorial\source\src\lsclient\stringprotect.h
xdata$x	SEGMENT
__unwindtable$?RemoveEntityInOwner@ioCreateChar@@IAE_NABVioHashString@@_N@Z DD 0ffffffffH
	DD	FLAT:__unwindfunclet$?RemoveEntityInOwner@ioCreateChar@@IAE_NABVioHashString@@_N@Z$0
	DD	00H
	DD	FLAT:__unwindfunclet$?RemoveEntityInOwner@ioCreateChar@@IAE_NABVioHashString@@_N@Z$1
	DD	0ffffffffH
	DD	FLAT:__unwindfunclet$?RemoveEntityInOwner@ioCreateChar@@IAE_NABVioHashString@@_N@Z$2
__ehfuncinfo$?RemoveEntityInOwner@ioCreateChar@@IAE_NABVioHashString@@_N@Z DD 019930522H
	DD	03H
	DD	FLAT:__unwindtable$?RemoveEntityInOwner@ioCreateChar@@IAE_NABVioHashString@@_N@Z
	DD	2 DUP(00H)
	DD	2 DUP(00H)
	DD	00H
	DD	01H
; Function compile flags: /Ogsp
; File d:\lost saga for developer\youtube\tutorial\source\src\lsclient\iocreatechar.cpp
xdata$x	ENDS
;	COMDAT ?RemoveEntityInOwner@ioCreateChar@@IAE_NABVioHashString@@_N@Z
_TEXT	SEGMENT
_szNewMeshName$567306 = -324				; size = 16
_rkMeshName$GSCopy$ = -308				; size = 4
_szFullName$567311 = -304				; size = 260
___encStr$567315 = -44					; size = 21
_szNewMeshName$567469 = -36				; size = 16
$T571754 = -36						; size = 16
__$EHRec$ = -12						; size = 12
_rkMeshName$ = 8					; size = 4
_bSex$ = 12						; size = 1
?RemoveEntityInOwner@ioCreateChar@@IAE_NABVioHashString@@_N@Z PROC ; ioCreateChar::RemoveEntityInOwner, COMDAT
; _this$ = ecx

; 1430 : {

  00000	68 38 01 00 00	 push	 312			; 00000138H
  00005	b8 00 00 00 00	 mov	 eax, __ehhandler$?RemoveEntityInOwner@ioCreateChar@@IAE_NABVioHashString@@_N@Z
  0000a	e8 00 00 00 00	 call	 __EH_prolog3_GS
  0000f	8b 7d 08	 mov	 edi, DWORD PTR _rkMeshName$[ebp]
  00012	8b f1		 mov	 esi, ecx

; 1431 : 	if( rkMeshName.IsEmpty() )	return false;

  00014	8b cf		 mov	 ecx, edi

; 1448 : 			}
; 1449 : 			else //   
; 1450 : 			{
; 1451 : 				szNewMeshName = Help::ConvertName( rkMeshName, true );

  00016	89 bd cc fe ff
	ff		 mov	 DWORD PTR _rkMeshName$GSCopy$[ebp], edi
  0001c	ff 15 00 00 00
	00		 call	 DWORD PTR __imp_?IsEmpty@ioHashString@@QBE_NXZ
  00022	84 c0		 test	 al, al
  00024	74 07		 je	 SHORT $LN107@RemoveEnti
$LN129@RemoveEnti:

; 1431 : 	if( rkMeshName.IsEmpty() )	return false;

  00026	32 c0		 xor	 al, al
  00028	e9 52 01 00 00	 jmp	 $LN1@RemoveEnti
$LN107@RemoveEnti:

; 1432 : 	if( !m_pGrp ) return false;

  0002d	33 db		 xor	 ebx, ebx
  0002f	39 5e 04	 cmp	 DWORD PTR [esi+4], ebx
  00032	74 f2		 je	 SHORT $LN129@RemoveEnti

; 1433 : 
; 1434 : 	if( bSex )

  00034	38 5d 0c	 cmp	 BYTE PTR _bSex$[ebp], bl
  00037	0f 84 0e 01 00
	00		 je	 $LN105@RemoveEnti

; 1435 : 	{
; 1436 : 		ioHashString szNewMeshName = Help::ConvertName( rkMeshName, m_bMale );

  0003d	0f b6 46 1c	 movzx	 eax, BYTE PTR [esi+28]
  00041	50		 push	 eax
  00042	8d 85 bc fe ff
	ff		 lea	 eax, DWORD PTR _szNewMeshName$567306[ebp]
  00048	57		 push	 edi
  00049	50		 push	 eax
  0004a	e8 00 00 00 00	 call	 ?ConvertName@Help@@YA?AVioHashString@@ABV2@_N@Z ; Help::ConvertName
  0004f	83 c4 0c	 add	 esp, 12			; 0000000cH

; 1437 : 		if( m_bMale )

  00052	8b 3d 00 00 00
	00		 mov	 edi, DWORD PTR __imp_??1ioHashString@@QAE@XZ
  00058	89 5d fc	 mov	 DWORD PTR __$EHRec$[ebp+8], ebx
  0005b	38 5e 1c	 cmp	 BYTE PTR [esi+28], bl
  0005e	74 23		 je	 SHORT $LN104@RemoveEnti
$LN127@RemoveEnti:

; 1438 : 		{
; 1439 : 			return m_pGrp->DestroyEntity( szNewMeshName );

  00060	8b 4e 04	 mov	 ecx, DWORD PTR [esi+4]
  00063	8d 85 bc fe ff
	ff		 lea	 eax, DWORD PTR _szNewMeshName$567306[ebp]
  00069	50		 push	 eax
  0006a	ff 15 00 00 00
	00		 call	 DWORD PTR __imp_?DestroyEntity@ioEntityGroup@@QAE_NABVioHashString@@@Z
  00070	83 4d fc ff	 or	 DWORD PTR __$EHRec$[ebp+8], -1
  00074	8d 8d bc fe ff
	ff		 lea	 ecx, DWORD PTR _szNewMeshName$567306[ebp]
  0007a	8a d8		 mov	 bl, al
  0007c	ff d7		 call	 edi
  0007e	e9 fa 00 00 00	 jmp	 $LN128@RemoveEnti
$LN104@RemoveEnti:

; 1440 : 		}
; 1441 : 		else
; 1442 : 		{
; 1443 : 			char szFullName[MAX_PATH]="";

  00083	68 03 01 00 00	 push	 259			; 00000103H
  00088	8d 85 d1 fe ff
	ff		 lea	 eax, DWORD PTR _szFullName$567311[ebp+1]
  0008e	53		 push	 ebx
  0008f	50		 push	 eax
  00090	88 9d d0 fe ff
	ff		 mov	 BYTE PTR _szFullName$567311[ebp], bl
  00096	e8 00 00 00 00	 call	 _memset
  0009b	83 c4 0c	 add	 esp, 12			; 0000000cH
  0009e	6a 05		 push	 5

; 1444 : 			StringCbPrintf_e( szFullName, sizeof( szFullName ), "resource\\mesh\\%s.msh" , szNewMeshName.c_str() );

  000a0	c7 45 d4 9f 89
	98 85		 mov	 DWORD PTR ___encStr$567315[ebp], -2053600865 ; 8598899fH
  000a7	c7 45 d8 98 9e
	88 8f		 mov	 DWORD PTR ___encStr$567315[ebp+4], -1886871912 ; 8f889e98H
  000ae	c7 45 dc b1 81
	8e 99		 mov	 DWORD PTR ___encStr$567315[ebp+8], -1718713935 ; 998e81b1H
  000b5	c7 45 e0 85 b0
	ce 99		 mov	 DWORD PTR ___encStr$567315[ebp+12], -1714507643 ; 99ceb085H
  000bc	c7 45 e4 c3 81
	98 82		 mov	 DWORD PTR ___encStr$567315[ebp+16], -2103934525 ; 829881c3H
  000c3	8d 45 d4	 lea	 eax, DWORD PTR ___encStr$567315[ebp]
  000c6	88 5d e8	 mov	 BYTE PTR ___encStr$567315[ebp+20], bl
  000c9	59		 pop	 ecx
$LL118@RemoveEnti:
  000ca	81 30 ed ec eb
	ea		 xor	 DWORD PTR [eax], -353637139 ; eaebecedH
  000d0	83 c0 04	 add	 eax, 4
  000d3	49		 dec	 ecx
  000d4	75 f4		 jne	 SHORT $LL118@RemoveEnti
  000d6	8d 8d bc fe ff
	ff		 lea	 ecx, DWORD PTR _szNewMeshName$567306[ebp]
  000dc	ff 15 00 00 00
	00		 call	 DWORD PTR __imp_?c_str@ioHashString@@QBEPBDXZ
  000e2	50		 push	 eax
  000e3	8d 45 d4	 lea	 eax, DWORD PTR ___encStr$567315[ebp]
  000e6	50		 push	 eax
  000e7	8d 85 d0 fe ff
	ff		 lea	 eax, DWORD PTR _szFullName$567311[ebp]
  000ed	68 04 01 00 00	 push	 260			; 00000104H
  000f2	50		 push	 eax
  000f3	e8 00 00 00 00	 call	 ?StringCbPrintfA@@YAJPADIPBDZZ ; StringCbPrintfA
  000f8	83 c4 10	 add	 esp, 16			; 00000010H

; 1445 : 			if( g_ResourceLoader.IsFileExist( szFullName ) )

  000fb	8d 85 d0 fe ff
	ff		 lea	 eax, DWORD PTR _szFullName$567311[ebp]
  00101	53		 push	 ebx
  00102	50		 push	 eax
  00103	ff 15 00 00 00
	00		 call	 DWORD PTR __imp_?GetInstance@ioResourceLoader@@SAAAV1@XZ
  00109	8b c8		 mov	 ecx, eax
  0010b	ff 15 00 00 00
	00		 call	 DWORD PTR __imp_?IsFileExist@ioResourceLoader@@QAE_NPBD_N@Z
  00111	84 c0		 test	 al, al

; 1446 : 			{
; 1447 : 				return m_pGrp->DestroyEntity( szNewMeshName );

  00113	0f 85 47 ff ff
	ff		 jne	 $LN127@RemoveEnti

; 1448 : 			}
; 1449 : 			else //   
; 1450 : 			{
; 1451 : 				szNewMeshName = Help::ConvertName( rkMeshName, true );

  00119	6a 01		 push	 1
  0011b	ff b5 cc fe ff
	ff		 push	 DWORD PTR _rkMeshName$GSCopy$[ebp]
  00121	8d 45 dc	 lea	 eax, DWORD PTR $T571754[ebp]
  00124	50		 push	 eax
  00125	e8 00 00 00 00	 call	 ?ConvertName@Help@@YA?AVioHashString@@ABV2@_N@Z ; Help::ConvertName
  0012a	83 c4 0c	 add	 esp, 12			; 0000000cH
  0012d	50		 push	 eax
  0012e	8d 8d bc fe ff
	ff		 lea	 ecx, DWORD PTR _szNewMeshName$567306[ebp]
  00134	c6 45 fc 01	 mov	 BYTE PTR __$EHRec$[ebp+8], 1
  00138	ff 15 00 00 00
	00		 call	 DWORD PTR __imp_??4ioHashString@@QAEAAV0@ABV0@@Z
  0013e	8d 4d dc	 lea	 ecx, DWORD PTR $T571754[ebp]
  00141	88 5d fc	 mov	 BYTE PTR __$EHRec$[ebp+8], bl
  00144	ff d7		 call	 edi

; 1452 : 				return m_pGrp->DestroyEntity( szNewMeshName );

  00146	e9 15 ff ff ff	 jmp	 $LN127@RemoveEnti
$LN105@RemoveEnti:

; 1453 : 			}
; 1454 : 		}
; 1455 : 	}
; 1456 : 	else
; 1457 : 	{
; 1458 : 		ioHashString szNewMeshName = Help::ConvertName( rkMeshName, true ); // 

  0014b	6a 01		 push	 1
  0014d	8d 45 dc	 lea	 eax, DWORD PTR _szNewMeshName$567469[ebp]
  00150	57		 push	 edi
  00151	50		 push	 eax
  00152	e8 00 00 00 00	 call	 ?ConvertName@Help@@YA?AVioHashString@@ABV2@_N@Z ; Help::ConvertName
  00157	83 c4 0c	 add	 esp, 12			; 0000000cH

; 1459 : 		return m_pGrp->DestroyEntity( szNewMeshName );

  0015a	8b 4e 04	 mov	 ecx, DWORD PTR [esi+4]
  0015d	8d 45 dc	 lea	 eax, DWORD PTR _szNewMeshName$567469[ebp]
  00160	50		 push	 eax
  00161	c7 45 fc 02 00
	00 00		 mov	 DWORD PTR __$EHRec$[ebp+8], 2
  00168	ff 15 00 00 00
	00		 call	 DWORD PTR __imp_?DestroyEntity@ioEntityGroup@@QAE_NABVioHashString@@@Z
  0016e	83 4d fc ff	 or	 DWORD PTR __$EHRec$[ebp+8], -1
  00172	8d 4d dc	 lea	 ecx, DWORD PTR _szNewMeshName$567469[ebp]
  00175	8a d8		 mov	 bl, al
  00177	ff 15 00 00 00
	00		 call	 DWORD PTR __imp_??1ioHashString@@QAE@XZ
$LN128@RemoveEnti:
  0017d	8a c3		 mov	 al, bl
$LN1@RemoveEnti:

; 1460 : 	}
; 1461 : }

  0017f	e8 00 00 00 00	 call	 __EH_epilog3_GS
  00184	c2 08 00	 ret	 8
_TEXT	ENDS
;	COMDAT text$x
text$x	SEGMENT
__unwindfunclet$?RemoveEntityInOwner@ioCreateChar@@IAE_NABVioHashString@@_N@Z$0:
  00000	8d 8d bc fe ff
	ff		 lea	 ecx, DWORD PTR _szNewMeshName$567306[ebp]
  00006	ff 25 00 00 00
	00		 jmp	 DWORD PTR __imp_??1ioHashString@@QAE@XZ
__unwindfunclet$?RemoveEntityInOwner@ioCreateChar@@IAE_NABVioHashString@@_N@Z$1:
  0000c	8d 4d dc	 lea	 ecx, DWORD PTR $T571754[ebp]
  0000f	ff 25 00 00 00
	00		 jmp	 DWORD PTR __imp_??1ioHashString@@QAE@XZ
__unwindfunclet$?RemoveEntityInOwner@ioCreateChar@@IAE_NABVioHashString@@_N@Z$2:
  00015	8d 4d dc	 lea	 ecx, DWORD PTR _szNewMeshName$567469[ebp]
  00018	ff 25 00 00 00
	00		 jmp	 DWORD PTR __imp_??1ioHashString@@QAE@XZ
__ehhandler$?RemoveEntityInOwner@ioCreateChar@@IAE_NABVioHashString@@_N@Z:
  0001e	8b 54 24 08	 mov	 edx, DWORD PTR [esp+8]
  00022	8d 42 0c	 lea	 eax, DWORD PTR [edx+12]
  00025	8b 8a b8 fe ff
	ff		 mov	 ecx, DWORD PTR [edx-328]
  0002b	33 c8		 xor	 ecx, eax
  0002d	e8 00 00 00 00	 call	 @__security_check_cookie@4
  00032	8b 4a fc	 mov	 ecx, DWORD PTR [edx-4]
  00035	33 c8		 xor	 ecx, eax
  00037	e8 00 00 00 00	 call	 @__security_check_cookie@4
  0003c	b8 00 00 00 00	 mov	 eax, OFFSET __ehfuncinfo$?RemoveEntityInOwner@ioCreateChar@@IAE_NABVioHashString@@_N@Z
  00041	e9 00 00 00 00	 jmp	 ___CxxFrameHandler3
text$x	ENDS
?RemoveEntityInOwner@ioCreateChar@@IAE_NABVioHashString@@_N@Z ENDP ; ioCreateChar::RemoveEntityInOwner
PUBLIC	__$ArrayPad$
PUBLIC	?SetPosition@ioCreateChar@@QAEXMMM@Z		; ioCreateChar::SetPosition
; Function compile flags: /Ogsp
;	COMDAT ?SetPosition@ioCreateChar@@QAEXMMM@Z
_TEXT	SEGMENT
$T567485 = -16						; size = 12
__$ArrayPad$ = -4					; size = 4
_fXPos$ = 8						; size = 4
_fYPos$ = 12						; size = 4
_fZPos$ = 16						; size = 4
?SetPosition@ioCreateChar@@QAEXMMM@Z PROC		; ioCreateChar::SetPosition, COMDAT
; _this$ = ecx

; 1482 : {

  00000	55		 push	 ebp
  00001	8b ec		 mov	 ebp, esp
  00003	83 ec 10	 sub	 esp, 16			; 00000010H
  00006	a1 00 00 00 00	 mov	 eax, DWORD PTR ___security_cookie
  0000b	33 c5		 xor	 eax, ebp
  0000d	89 45 fc	 mov	 DWORD PTR __$ArrayPad$[ebp], eax
  00010	f3 0f 10 45 08	 movss	 xmm0, DWORD PTR _fXPos$[ebp]

; 1483 : 	SetPosition( D3DXVECTOR3( fXPos, fYPos, fZPos ) );

  00015	f3 0f 11 45 f0	 movss	 DWORD PTR $T567485[ebp], xmm0
  0001a	f3 0f 10 45 0c	 movss	 xmm0, DWORD PTR _fYPos$[ebp]
  0001f	8d 45 f0	 lea	 eax, DWORD PTR $T567485[ebp]
  00022	f3 0f 11 45 f4	 movss	 DWORD PTR $T567485[ebp+4], xmm0
  00027	f3 0f 10 45 10	 movss	 xmm0, DWORD PTR _fZPos$[ebp]
  0002c	50		 push	 eax
  0002d	f3 0f 11 45 f8	 movss	 DWORD PTR $T567485[ebp+8], xmm0
  00032	e8 00 00 00 00	 call	 ?SetPosition@ioCreateChar@@QAEXABUD3DXVECTOR3@@@Z ; ioCreateChar::SetPosition

; 1484 : }

  00037	8b 4d fc	 mov	 ecx, DWORD PTR __$ArrayPad$[ebp]
  0003a	33 cd		 xor	 ecx, ebp
  0003c	e8 00 00 00 00	 call	 @__security_check_cookie@4
  00041	c9		 leave
  00042	c2 0c 00	 ret	 12			; 0000000cH
?SetPosition@ioCreateChar@@QAEXMMM@Z ENDP		; ioCreateChar::SetPosition
_TEXT	ENDS
PUBLIC	?SetPitch@ioCreateChar@@QAEXM@Z			; ioCreateChar::SetPitch
EXTRN	_D3DXQuaternionRotationYawPitchRoll@16:PROC
; Function compile flags: /Ogsp
;	COMDAT ?SetPitch@ioCreateChar@@QAEXM@Z
_TEXT	SEGMENT
_qtOrient$567498 = -16					; size = 16
_fPitch$ = 8						; size = 4
?SetPitch@ioCreateChar@@QAEXM@Z PROC			; ioCreateChar::SetPitch, COMDAT
; _this$ = ecx

; 1496 : {

  00000	55		 push	 ebp
  00001	8b ec		 mov	 ebp, esp

; 1497 : 	ioSceneNode *pSNode = m_pGrp->GetParentSceneNode();

  00003	8b 49 04	 mov	 ecx, DWORD PTR [ecx+4]
  00006	8b 01		 mov	 eax, DWORD PTR [ecx]
  00008	83 ec 10	 sub	 esp, 16			; 00000010H
  0000b	56		 push	 esi
  0000c	ff 50 34	 call	 DWORD PTR [eax+52]
  0000f	8b f0		 mov	 esi, eax

; 1498 : 	if( pSNode )

  00011	85 f6		 test	 esi, esi
  00013	74 3f		 je	 SHORT $LN1@SetPitch

; 1499 : 	{
; 1500 : 		D3DXQUATERNION qtOrient;
; 1501 : 		D3DXQuaternionRotationYawPitchRoll( &qtOrient, 0.0f, DEGtoRAD(fPitch), 0.0f );

  00015	f3 0f 10 4d 08	 movss	 xmm1, DWORD PTR _fPitch$[ebp]
  0001a	0f 57 c0	 xorps	 xmm0, xmm0
  0001d	83 ec 0c	 sub	 esp, 12			; 0000000cH
  00020	0f 5a c9	 cvtps2pd xmm1, xmm1
  00023	f2 0f 59 0d 00
	00 00 00	 mulsd	 xmm1, QWORD PTR __real@3f91df46a2526c7a
  0002b	f3 0f 11 44 24
	08		 movss	 DWORD PTR [esp+8], xmm0
  00031	66 0f 5a c9	 cvtpd2ps xmm1, xmm1
  00035	f3 0f 11 4c 24
	04		 movss	 DWORD PTR [esp+4], xmm1
  0003b	8d 45 f0	 lea	 eax, DWORD PTR _qtOrient$567498[ebp]
  0003e	f3 0f 11 04 24	 movss	 DWORD PTR [esp], xmm0
  00043	50		 push	 eax
  00044	e8 00 00 00 00	 call	 _D3DXQuaternionRotationYawPitchRoll@16

; 1502 : 		pSNode->SetOrientation( qtOrient );

  00049	8b 06		 mov	 eax, DWORD PTR [esi]
  0004b	8d 4d f0	 lea	 ecx, DWORD PTR _qtOrient$567498[ebp]
  0004e	51		 push	 ecx
  0004f	8b ce		 mov	 ecx, esi
  00051	ff 50 08	 call	 DWORD PTR [eax+8]
$LN1@SetPitch:
  00054	5e		 pop	 esi

; 1503 : 	}
; 1504 : }

  00055	c9		 leave
  00056	c2 04 00	 ret	 4
?SetPitch@ioCreateChar@@QAEXM@Z ENDP			; ioCreateChar::SetPitch
_TEXT	ENDS
PUBLIC	?SetYaw@ioCreateChar@@QAEXM@Z			; ioCreateChar::SetYaw
; Function compile flags: /Ogsp
;	COMDAT ?SetYaw@ioCreateChar@@QAEXM@Z
_TEXT	SEGMENT
_qtOrient$567509 = -16					; size = 16
_fYaw$ = 8						; size = 4
?SetYaw@ioCreateChar@@QAEXM@Z PROC			; ioCreateChar::SetYaw, COMDAT
; _this$ = ecx

; 1507 : {

  00000	55		 push	 ebp
  00001	8b ec		 mov	 ebp, esp

; 1508 : 	ioSceneNode *pSNode = m_pGrp->GetParentSceneNode();

  00003	8b 49 04	 mov	 ecx, DWORD PTR [ecx+4]
  00006	8b 01		 mov	 eax, DWORD PTR [ecx]
  00008	83 ec 10	 sub	 esp, 16			; 00000010H
  0000b	56		 push	 esi
  0000c	ff 50 34	 call	 DWORD PTR [eax+52]
  0000f	8b f0		 mov	 esi, eax

; 1509 : 	if( pSNode )

  00011	85 f6		 test	 esi, esi
  00013	74 3f		 je	 SHORT $LN1@SetYaw

; 1510 : 	{
; 1511 : 		D3DXQUATERNION qtOrient;
; 1512 : 		D3DXQuaternionRotationYawPitchRoll( &qtOrient, DEGtoRAD( fYaw ), 0.0f, 0.0f );

  00015	0f 57 c0	 xorps	 xmm0, xmm0
  00018	83 ec 0c	 sub	 esp, 12			; 0000000cH
  0001b	f3 0f 11 44 24
	08		 movss	 DWORD PTR [esp+8], xmm0
  00021	f3 0f 11 44 24
	04		 movss	 DWORD PTR [esp+4], xmm0
  00027	f3 0f 10 45 08	 movss	 xmm0, DWORD PTR _fYaw$[ebp]
  0002c	0f 5a c0	 cvtps2pd xmm0, xmm0
  0002f	f2 0f 59 05 00
	00 00 00	 mulsd	 xmm0, QWORD PTR __real@3f91df46a2526c7a
  00037	66 0f 5a c0	 cvtpd2ps xmm0, xmm0
  0003b	8d 45 f0	 lea	 eax, DWORD PTR _qtOrient$567509[ebp]
  0003e	f3 0f 11 04 24	 movss	 DWORD PTR [esp], xmm0
  00043	50		 push	 eax
  00044	e8 00 00 00 00	 call	 _D3DXQuaternionRotationYawPitchRoll@16

; 1513 : 		pSNode->SetOrientation( qtOrient );

  00049	8b 06		 mov	 eax, DWORD PTR [esi]
  0004b	8d 4d f0	 lea	 ecx, DWORD PTR _qtOrient$567509[ebp]
  0004e	51		 push	 ecx
  0004f	8b ce		 mov	 ecx, esi
  00051	ff 50 08	 call	 DWORD PTR [eax+8]
$LN1@SetYaw:
  00054	5e		 pop	 esi

; 1514 : 	}
; 1515 : }

  00055	c9		 leave
  00056	c2 04 00	 ret	 4
?SetYaw@ioCreateChar@@QAEXM@Z ENDP			; ioCreateChar::SetYaw
_TEXT	ENDS
PUBLIC	__$ArrayPad$
PUBLIC	?SetScale@ioCreateChar@@QAEXM@Z			; ioCreateChar::SetScale
; Function compile flags: /Ogsp
;	COMDAT ?SetScale@ioCreateChar@@QAEXM@Z
_TEXT	SEGMENT
$T567526 = -16						; size = 12
__$ArrayPad$ = -4					; size = 4
_fScale$ = 8						; size = 4
?SetScale@ioCreateChar@@QAEXM@Z PROC			; ioCreateChar::SetScale, COMDAT
; _this$ = ecx

; 1536 : {

  00000	55		 push	 ebp
  00001	8b ec		 mov	 ebp, esp
  00003	83 ec 10	 sub	 esp, 16			; 00000010H
  00006	a1 00 00 00 00	 mov	 eax, DWORD PTR ___security_cookie
  0000b	33 c5		 xor	 eax, ebp
  0000d	89 45 fc	 mov	 DWORD PTR __$ArrayPad$[ebp], eax
  00010	f3 0f 10 45 08	 movss	 xmm0, DWORD PTR _fScale$[ebp]

; 1537 : 	SetScale( D3DXVECTOR3( fScale, fScale, fScale ) );

  00015	8d 45 f0	 lea	 eax, DWORD PTR $T567526[ebp]
  00018	50		 push	 eax
  00019	f3 0f 11 45 f0	 movss	 DWORD PTR $T567526[ebp], xmm0
  0001e	f3 0f 11 45 f4	 movss	 DWORD PTR $T567526[ebp+4], xmm0
  00023	f3 0f 11 45 f8	 movss	 DWORD PTR $T567526[ebp+8], xmm0
  00028	e8 00 00 00 00	 call	 ?SetScale@ioCreateChar@@QAEXABUD3DXVECTOR3@@@Z ; ioCreateChar::SetScale

; 1538 : }

  0002d	8b 4d fc	 mov	 ecx, DWORD PTR __$ArrayPad$[ebp]
  00030	33 cd		 xor	 ecx, ebp
  00032	e8 00 00 00 00	 call	 @__security_check_cookie@4
  00037	c9		 leave
  00038	c2 04 00	 ret	 4
?SetScale@ioCreateChar@@QAEXM@Z ENDP			; ioCreateChar::SetScale
_TEXT	ENDS
PUBLIC	??_C@_0CC@LDEKLCOD@ioCreateChar?3?3GetWeaponShopMotio@ ; `string'
PUBLIC	??_C@_00CNPNBAHC@?$AA@				; `string'
PUBLIC	___$ReturnUdt$GSCopy$
PUBLIC	?GetWeaponShopMotion@ioCreateChar@@QAE?AVioHashString@@XZ ; ioCreateChar::GetWeaponShopMotion
EXTRN	?ConvertTailName@Help@@YA?AVioHashString@@ABV2@_N@Z:PROC ; Help::ConvertTailName
;	COMDAT ??_C@_0CC@LDEKLCOD@ioCreateChar?3?3GetWeaponShopMotio@
; File d:\lost saga for developer\youtube\tutorial\source\src\lsclient\ioweaponitem.h
CONST	SEGMENT
??_C@_0CC@LDEKLCOD@ioCreateChar?3?3GetWeaponShopMotio@ DB 'ioCreateChar::'
	DB	'GetWeaponShopMotion', 00H			; `string'
CONST	ENDS
;	COMDAT ??_C@_00CNPNBAHC@?$AA@
CONST	SEGMENT
??_C@_00CNPNBAHC@?$AA@ DB 00H				; `string'
CONST	ENDS
;	COMDAT xdata$x
xdata$x	SEGMENT
__unwindtable$?GetWeaponShopMotion@ioCreateChar@@QAE?AVioHashString@@XZ DD 0ffffffffH
	DD	FLAT:__unwindfunclet$?GetWeaponShopMotion@ioCreateChar@@QAE?AVioHashString@@XZ$1
	DD	0ffffffffH
	DD	FLAT:__unwindfunclet$?GetWeaponShopMotion@ioCreateChar@@QAE?AVioHashString@@XZ$2
	DD	01H
	DD	FLAT:__unwindfunclet$?GetWeaponShopMotion@ioCreateChar@@QAE?AVioHashString@@XZ$3
__ehfuncinfo$?GetWeaponShopMotion@ioCreateChar@@QAE?AVioHashString@@XZ DD 019930522H
	DD	03H
	DD	FLAT:__unwindtable$?GetWeaponShopMotion@ioCreateChar@@QAE?AVioHashString@@XZ
	DD	2 DUP(00H)
	DD	2 DUP(00H)
	DD	00H
	DD	01H
; Function compile flags: /Ogsp
; File d:\lost saga for developer\youtube\tutorial\source\src\lsclient\iocreatechar.cpp
xdata$x	ENDS
;	COMDAT ?GetWeaponShopMotion@ioCreateChar@@QAE?AVioHashString@@XZ
_TEXT	SEGMENT
$T571823 = -344						; size = 16
_szNewAniName$567590 = -328				; size = 16
___$ReturnUdt$GSCopy$ = -312				; size = 4
tv808 = -308						; size = 4
$T571826 = -308						; size = 4
_pItem$ = -308						; size = 4
_szFullName$567593 = -304				; size = 260
___encStr$567597 = -44					; size = 22
$T571824 = -36						; size = 16
__$EHRec$ = -12						; size = 12
___$ReturnUdt$ = 8					; size = 4
?GetWeaponShopMotion@ioCreateChar@@QAE?AVioHashString@@XZ PROC ; ioCreateChar::GetWeaponShopMotion, COMDAT
; _this$ = ecx

; 1616 : {

  00000	68 4c 01 00 00	 push	 332			; 0000014cH
  00005	b8 00 00 00 00	 mov	 eax, __ehhandler$?GetWeaponShopMotion@ioCreateChar@@QAE?AVioHashString@@XZ
  0000a	e8 00 00 00 00	 call	 __EH_prolog3_GS
  0000f	8b 7d 08	 mov	 edi, DWORD PTR ___$ReturnUdt$[ebp]
  00012	33 db		 xor	 ebx, ebx
  00014	8b f1		 mov	 esi, ecx

; 1633 : 			}
; 1634 : 		}
; 1635 : 		return szNewAniName;

  00016	89 bd c8 fe ff
	ff		 mov	 DWORD PTR ___$ReturnUdt$GSCopy$[ebp], edi
  0001c	89 9d cc fe ff
	ff		 mov	 DWORD PTR $T571826[ebp], ebx
  00022	39 5e 04	 cmp	 DWORD PTR [esi+4], ebx
  00025	75 14		 jne	 SHORT $LN103@GetWeaponS

; 1617 : 	if( !m_pGrp ) return "";

  00027	68 00 00 00 00	 push	 OFFSET ??_C@_00CNPNBAHC@?$AA@
  0002c	8b cf		 mov	 ecx, edi
  0002e	ff 15 00 00 00
	00		 call	 DWORD PTR __imp_??0ioHashString@@QAE@PBD@Z
  00034	8b c7		 mov	 eax, edi
  00036	e9 9d 01 00 00	 jmp	 $LN104@GetWeaponS
$LN103@GetWeaponS:

; 1618 : 
; 1619 : 	DWORD dwWeaponCode = GetEquipedItemCode( CCS_WEAPON );

  0003b	8b be 80 00 00
	00		 mov	 edi, DWORD PTR [esi+128]

; 1620 : 
; 1621 : 	const ioItem *pItem = g_ItemMaker.GetItemConst( dwWeaponCode, __FUNCTION__ );

  00041	68 00 00 00 00	 push	 OFFSET ??_C@_0CC@LDEKLCOD@ioCreateChar?3?3GetWeaponShopMotio@
  00046	8d 8d a8 fe ff
	ff		 lea	 ecx, DWORD PTR $T571823[ebp]
  0004c	ff 15 00 00 00
	00		 call	 DWORD PTR __imp_??0ioHashString@@QAE@PBD@Z
  00052	8d 85 a8 fe ff
	ff		 lea	 eax, DWORD PTR $T571823[ebp]
  00058	50		 push	 eax
  00059	57		 push	 edi
  0005a	89 5d fc	 mov	 DWORD PTR __$EHRec$[ebp+8], ebx
  0005d	e8 00 00 00 00	 call	 ?GetSingleton@ioItemMaker@@SAAAV1@XZ ; ioItemMaker::GetSingleton
  00062	8b c8		 mov	 ecx, eax
  00064	e8 00 00 00 00	 call	 ?GetItemConst@ioItemMaker@@QBEPBVioItem@@KABVioHashString@@@Z ; ioItemMaker::GetItemConst
  00069	8b 3d 00 00 00
	00		 mov	 edi, DWORD PTR __imp_??1ioHashString@@QAE@XZ
  0006f	83 4d fc ff	 or	 DWORD PTR __$EHRec$[ebp+8], -1
  00073	8d 8d a8 fe ff
	ff		 lea	 ecx, DWORD PTR $T571823[ebp]
  00079	89 85 cc fe ff
	ff		 mov	 DWORD PTR _pItem$[ebp], eax
  0007f	ff d7		 call	 edi

; 1622 : 	const ioWeaponItem *pWeapon = ToWeaponItemConst( pItem );

  00081	ff b5 cc fe ff
	ff		 push	 DWORD PTR _pItem$[ebp]
  00087	e8 00 00 00 00	 call	 ?ToWeaponItemConst@@YAPBVioWeaponItem@@PBVioItem@@@Z ; ToWeaponItemConst
  0008c	59		 pop	 ecx

; 1623 : 	if( pWeapon && !pWeapon->GetUIMotion().IsEmpty() )

  0008d	3b c3		 cmp	 eax, ebx
  0008f	0f 84 2c 01 00
	00		 je	 $LN102@GetWeaponS
  00095	8d 88 38 18 00
	00		 lea	 ecx, DWORD PTR [eax+6200]
  0009b	89 8d cc fe ff
	ff		 mov	 DWORD PTR tv808[ebp], ecx
  000a1	ff 15 00 00 00
	00		 call	 DWORD PTR __imp_?IsEmpty@ioHashString@@QBE_NXZ
  000a7	84 c0		 test	 al, al
  000a9	0f 85 12 01 00
	00		 jne	 $LN102@GetWeaponS

; 1624 : 	{
; 1625 : 		ioHashString szNewAniName = Help::ConvertTailName( pWeapon->GetUIMotion(), m_bMale );

  000af	0f b6 46 1c	 movzx	 eax, BYTE PTR [esi+28]
  000b3	50		 push	 eax
  000b4	ff b5 cc fe ff
	ff		 push	 DWORD PTR tv808[ebp]
  000ba	8d 85 b8 fe ff
	ff		 lea	 eax, DWORD PTR _szNewAniName$567590[ebp]
  000c0	50		 push	 eax
  000c1	e8 00 00 00 00	 call	 ?ConvertTailName@Help@@YA?AVioHashString@@ABV2@_N@Z ; Help::ConvertTailName
  000c6	83 c4 0c	 add	 esp, 12			; 0000000cH
  000c9	c7 45 fc 01 00
	00 00		 mov	 DWORD PTR __$EHRec$[ebp+8], 1

; 1626 : 		if( !m_bMale )

  000d0	38 5e 1c	 cmp	 BYTE PTR [esi+28], bl
  000d3	0f 85 c7 00 00
	00		 jne	 $LN1@GetWeaponS

; 1627 : 		{
; 1628 : 			char szFullName[MAX_PATH]="";

  000d9	68 03 01 00 00	 push	 259			; 00000103H
  000de	8d 85 d1 fe ff
	ff		 lea	 eax, DWORD PTR _szFullName$567593[ebp+1]
  000e4	53		 push	 ebx
  000e5	50		 push	 eax
  000e6	88 9d d0 fe ff
	ff		 mov	 BYTE PTR _szFullName$567593[ebp], bl
  000ec	e8 00 00 00 00	 call	 _memset
  000f1	83 c4 0c	 add	 esp, 12			; 0000000cH
  000f4	6a 05		 push	 5

; 1629 : 			StringCbPrintf_e( szFullName, sizeof( szFullName ), "resource\\animation\\%s" , szNewAniName.c_str() );

  000f6	c7 45 d4 9f 89
	98 85		 mov	 DWORD PTR ___encStr$567597[ebp], -2053600865 ; 8598899fH
  000fd	c7 45 d8 98 9e
	88 8f		 mov	 DWORD PTR ___encStr$567597[ebp+4], -1886871912 ; 8f889e98H
  00104	c7 45 dc b1 8d
	85 83		 mov	 DWORD PTR ___encStr$567597[ebp+8], -2088399439 ; 83858db1H
  0010b	c7 45 e0 80 8d
	9f 83		 mov	 DWORD PTR ___encStr$567597[ebp+12], -2086695552 ; 839f8d80H
  00112	c7 45 e4 82 82
	b7 cf		 mov	 DWORD PTR ___encStr$567597[ebp+16], -810057086 ; cfb78282H
  00119	8d 45 d4	 lea	 eax, DWORD PTR ___encStr$567597[ebp]
  0011c	66 c7 45 e8 9e
	00		 mov	 WORD PTR ___encStr$567597[ebp+20], 158 ; 0000009eH
  00122	59		 pop	 ecx
$LL123@GetWeaponS:
  00123	81 30 ed ec eb
	ea		 xor	 DWORD PTR [eax], -353637139 ; eaebecedH
  00129	83 c0 04	 add	 eax, 4
  0012c	49		 dec	 ecx
  0012d	75 f4		 jne	 SHORT $LL123@GetWeaponS
  0012f	80 75 e8 ed	 xor	 BYTE PTR ___encStr$567597[ebp+20], -19 ; ffffffedH
  00133	8d 8d b8 fe ff
	ff		 lea	 ecx, DWORD PTR _szNewAniName$567590[ebp]
  00139	ff 15 00 00 00
	00		 call	 DWORD PTR __imp_?c_str@ioHashString@@QBEPBDXZ
  0013f	50		 push	 eax
  00140	8d 45 d4	 lea	 eax, DWORD PTR ___encStr$567597[ebp]
  00143	50		 push	 eax
  00144	8d 85 d0 fe ff
	ff		 lea	 eax, DWORD PTR _szFullName$567593[ebp]
  0014a	68 04 01 00 00	 push	 260			; 00000104H
  0014f	50		 push	 eax
  00150	e8 00 00 00 00	 call	 ?StringCbPrintfA@@YAJPADIPBDZZ ; StringCbPrintfA
  00155	83 c4 10	 add	 esp, 16			; 00000010H

; 1630 : 			if( !g_ResourceLoader.IsFileExist( szFullName ) )

  00158	8d 85 d0 fe ff
	ff		 lea	 eax, DWORD PTR _szFullName$567593[ebp]
  0015e	53		 push	 ebx
  0015f	50		 push	 eax
  00160	ff 15 00 00 00
	00		 call	 DWORD PTR __imp_?GetInstance@ioResourceLoader@@SAAAV1@XZ
  00166	8b c8		 mov	 ecx, eax
  00168	ff 15 00 00 00
	00		 call	 DWORD PTR __imp_?IsFileExist@ioResourceLoader@@QAE_NPBD_N@Z
  0016e	84 c0		 test	 al, al
  00170	75 2e		 jne	 SHORT $LN1@GetWeaponS

; 1631 : 			{
; 1632 : 				szNewAniName = Help::ConvertTailName( pWeapon->GetUIMotion(), true ); // 

  00172	6a 01		 push	 1
  00174	ff b5 cc fe ff
	ff		 push	 DWORD PTR tv808[ebp]
  0017a	8d 45 dc	 lea	 eax, DWORD PTR $T571824[ebp]
  0017d	50		 push	 eax
  0017e	e8 00 00 00 00	 call	 ?ConvertTailName@Help@@YA?AVioHashString@@ABV2@_N@Z ; Help::ConvertTailName
  00183	83 c4 0c	 add	 esp, 12			; 0000000cH
  00186	50		 push	 eax
  00187	8d 8d b8 fe ff
	ff		 lea	 ecx, DWORD PTR _szNewAniName$567590[ebp]
  0018d	c6 45 fc 02	 mov	 BYTE PTR __$EHRec$[ebp+8], 2
  00191	ff 15 00 00 00
	00		 call	 DWORD PTR __imp_??4ioHashString@@QAEAAV0@ABV0@@Z
  00197	8d 4d dc	 lea	 ecx, DWORD PTR $T571824[ebp]
  0019a	c6 45 fc 01	 mov	 BYTE PTR __$EHRec$[ebp+8], 1
  0019e	ff d7		 call	 edi
$LN1@GetWeaponS:

; 1633 : 			}
; 1634 : 		}
; 1635 : 		return szNewAniName;

  001a0	8b 8d c8 fe ff
	ff		 mov	 ecx, DWORD PTR ___$ReturnUdt$GSCopy$[ebp]
  001a6	8d 85 b8 fe ff
	ff		 lea	 eax, DWORD PTR _szNewAniName$567590[ebp]
  001ac	50		 push	 eax
  001ad	ff 15 00 00 00
	00		 call	 DWORD PTR __imp_??0ioHashString@@QAE@ABV0@@Z
  001b3	83 4d fc ff	 or	 DWORD PTR __$EHRec$[ebp+8], -1
  001b7	8d 8d b8 fe ff
	ff		 lea	 ecx, DWORD PTR _szNewAniName$567590[ebp]
  001bd	ff d7		 call	 edi
  001bf	eb 11		 jmp	 SHORT $LN133@GetWeaponS
$LN102@GetWeaponS:

; 1636 : 	}
; 1637 : 
; 1638 : 	return "";

  001c1	8b 8d c8 fe ff
	ff		 mov	 ecx, DWORD PTR ___$ReturnUdt$GSCopy$[ebp]
  001c7	68 00 00 00 00	 push	 OFFSET ??_C@_00CNPNBAHC@?$AA@
  001cc	ff 15 00 00 00
	00		 call	 DWORD PTR __imp_??0ioHashString@@QAE@PBD@Z
$LN133@GetWeaponS:
  001d2	8b 85 c8 fe ff
	ff		 mov	 eax, DWORD PTR ___$ReturnUdt$GSCopy$[ebp]
$LN104@GetWeaponS:

; 1639 : }

  001d8	e8 00 00 00 00	 call	 __EH_epilog3_GS
  001dd	c2 04 00	 ret	 4
_TEXT	ENDS
;	COMDAT text$x
text$x	SEGMENT
__unwindfunclet$?GetWeaponShopMotion@ioCreateChar@@QAE?AVioHashString@@XZ$1:
  00000	8d 8d a8 fe ff
	ff		 lea	 ecx, DWORD PTR $T571823[ebp]
  00006	ff 25 00 00 00
	00		 jmp	 DWORD PTR __imp_??1ioHashString@@QAE@XZ
__unwindfunclet$?GetWeaponShopMotion@ioCreateChar@@QAE?AVioHashString@@XZ$2:
  0000c	8d 8d b8 fe ff
	ff		 lea	 ecx, DWORD PTR _szNewAniName$567590[ebp]
  00012	ff 25 00 00 00
	00		 jmp	 DWORD PTR __imp_??1ioHashString@@QAE@XZ
__unwindfunclet$?GetWeaponShopMotion@ioCreateChar@@QAE?AVioHashString@@XZ$3:
  00018	8d 4d dc	 lea	 ecx, DWORD PTR $T571824[ebp]
  0001b	ff 25 00 00 00
	00		 jmp	 DWORD PTR __imp_??1ioHashString@@QAE@XZ
__ehhandler$?GetWeaponShopMotion@ioCreateChar@@QAE?AVioHashString@@XZ:
  00021	8b 54 24 08	 mov	 edx, DWORD PTR [esp+8]
  00025	8d 42 0c	 lea	 eax, DWORD PTR [edx+12]
  00028	8b 8a a4 fe ff
	ff		 mov	 ecx, DWORD PTR [edx-348]
  0002e	33 c8		 xor	 ecx, eax
  00030	e8 00 00 00 00	 call	 @__security_check_cookie@4
  00035	8b 4a fc	 mov	 ecx, DWORD PTR [edx-4]
  00038	33 c8		 xor	 ecx, eax
  0003a	e8 00 00 00 00	 call	 @__security_check_cookie@4
  0003f	b8 00 00 00 00	 mov	 eax, OFFSET __ehfuncinfo$?GetWeaponShopMotion@ioCreateChar@@QAE?AVioHashString@@XZ
  00044	e9 00 00 00 00	 jmp	 ___CxxFrameHandler3
text$x	ENDS
?GetWeaponShopMotion@ioCreateChar@@QAE?AVioHashString@@XZ ENDP ; ioCreateChar::GetWeaponShopMotion
PUBLIC	?DirectFaceChange@ioCreateChar@@QAEXPBDH@Z	; ioCreateChar::DirectFaceChange
EXTRN	__imp_?GetLoopSec@ioFrameTimer@@QBEKXZ:PROC
EXTRN	__imp_?GetSingleton@ioFrameTimer@@SAAAV1@XZ:PROC
;	COMDAT xdata$x
xdata$x	SEGMENT
__unwindtable$?DirectFaceChange@ioCreateChar@@QAEXPBDH@Z DD 0ffffffffH
	DD	FLAT:__unwindfunclet$?DirectFaceChange@ioCreateChar@@QAEXPBDH@Z$0
__ehfuncinfo$?DirectFaceChange@ioCreateChar@@QAEXPBDH@Z DD 019930522H
	DD	01H
	DD	FLAT:__unwindtable$?DirectFaceChange@ioCreateChar@@QAEXPBDH@Z
	DD	2 DUP(00H)
	DD	2 DUP(00H)
	DD	00H
	DD	01H
; Function compile flags: /Ogsp
xdata$x	ENDS
;	COMDAT ?DirectFaceChange@ioCreateChar@@QAEXPBDH@Z
_TEXT	SEGMENT
$T571871 = -28						; size = 16
__$EHRec$ = -12						; size = 12
_szNewFaceName$ = 8					; size = 4
_iDuration$ = 12					; size = 4
?DirectFaceChange@ioCreateChar@@QAEXPBDH@Z PROC		; ioCreateChar::DirectFaceChange, COMDAT
; _this$ = ecx

; 1741 : {

  00000	6a 10		 push	 16			; 00000010H
  00002	b8 00 00 00 00	 mov	 eax, __ehhandler$?DirectFaceChange@ioCreateChar@@QAEXPBDH@Z
  00007	e8 00 00 00 00	 call	 __EH_prolog3
  0000c	8b f1		 mov	 esi, ecx

; 1742 : 	m_dwFaceChangeTime = FRAMEGETTIME() + iDuration;

  0000e	ff 15 00 00 00
	00		 call	 DWORD PTR __imp_?GetSingleton@ioFrameTimer@@SAAAV1@XZ
  00014	8b c8		 mov	 ecx, eax
  00016	ff 15 00 00 00
	00		 call	 DWORD PTR __imp_?GetLoopSec@ioFrameTimer@@QBEKXZ
  0001c	03 45 0c	 add	 eax, DWORD PTR _iDuration$[ebp]

; 1743 : 
; 1744 : 	//HARDCODE: ioBaseChar  (m_iFaceType)    . ( 1.. )
; 1745 : 	if( !m_DefaultFaceMesh.IsEmpty() )

  0001f	8d 8e f0 00 00
	00		 lea	 ecx, DWORD PTR [esi+240]
  00025	89 86 18 02 00
	00		 mov	 DWORD PTR [esi+536], eax
  0002b	ff 15 00 00 00
	00		 call	 DWORD PTR __imp_?IsEmpty@ioHashString@@QBE_NXZ
  00031	84 c0		 test	 al, al
  00033	75 28		 jne	 SHORT $LN1@DirectFace

; 1746 : 	{
; 1747 : 		ChangeFaceTexture( szNewFaceName );

  00035	ff 75 08	 push	 DWORD PTR _szNewFaceName$[ebp]
  00038	8d 4d e4	 lea	 ecx, DWORD PTR $T571871[ebp]
  0003b	ff 15 00 00 00
	00		 call	 DWORD PTR __imp_??0ioHashString@@QAE@PBD@Z
  00041	83 65 fc 00	 and	 DWORD PTR __$EHRec$[ebp+8], 0
  00045	8d 45 e4	 lea	 eax, DWORD PTR $T571871[ebp]
  00048	50		 push	 eax
  00049	8b ce		 mov	 ecx, esi
  0004b	e8 00 00 00 00	 call	 ?ChangeFaceTexture@ioCreateChar@@QAEXABVioHashString@@@Z ; ioCreateChar::ChangeFaceTexture
  00050	83 4d fc ff	 or	 DWORD PTR __$EHRec$[ebp+8], -1
  00054	8d 4d e4	 lea	 ecx, DWORD PTR $T571871[ebp]
  00057	ff 15 00 00 00
	00		 call	 DWORD PTR __imp_??1ioHashString@@QAE@XZ
$LN1@DirectFace:

; 1748 : 	}
; 1749 : }

  0005d	e8 00 00 00 00	 call	 __EH_epilog3
  00062	c2 08 00	 ret	 8
_TEXT	ENDS
;	COMDAT text$x
text$x	SEGMENT
__unwindfunclet$?DirectFaceChange@ioCreateChar@@QAEXPBDH@Z$0:
  00000	8d 4d e4	 lea	 ecx, DWORD PTR $T571871[ebp]
  00003	ff 25 00 00 00
	00		 jmp	 DWORD PTR __imp_??1ioHashString@@QAE@XZ
__ehhandler$?DirectFaceChange@ioCreateChar@@QAEXPBDH@Z:
  00009	8b 54 24 08	 mov	 edx, DWORD PTR [esp+8]
  0000d	8d 42 0c	 lea	 eax, DWORD PTR [edx+12]
  00010	8b 4a e0	 mov	 ecx, DWORD PTR [edx-32]
  00013	33 c8		 xor	 ecx, eax
  00015	e8 00 00 00 00	 call	 @__security_check_cookie@4
  0001a	b8 00 00 00 00	 mov	 eax, OFFSET __ehfuncinfo$?DirectFaceChange@ioCreateChar@@QAEXPBDH@Z
  0001f	e9 00 00 00 00	 jmp	 ___CxxFrameHandler3
text$x	ENDS
?DirectFaceChange@ioCreateChar@@QAEXPBDH@Z ENDP		; ioCreateChar::DirectFaceChange
PUBLIC	_szTexPostfix$GSCopy$
PUBLIC	?FaceChange@ioCreateChar@@QAEXPBDHABVioHashString@@@Z ; ioCreateChar::FaceChange
EXTRN	?GetFaceChangeName@@YA_NAAVioHashString@@PBD_NH@Z:PROC ; GetFaceChangeName
;	COMDAT xdata$x
; File d:\lost saga for developer\youtube\tutorial\source\src\lsclient\stringprotect.h
xdata$x	SEGMENT
__unwindtable$?FaceChange@ioCreateChar@@QAEXPBDHABVioHashString@@@Z DD 0ffffffffH
	DD	FLAT:__unwindfunclet$?FaceChange@ioCreateChar@@QAEXPBDHABVioHashString@@@Z$0
__ehfuncinfo$?FaceChange@ioCreateChar@@QAEXPBDHABVioHashString@@@Z DD 019930522H
	DD	01H
	DD	FLAT:__unwindtable$?FaceChange@ioCreateChar@@QAEXPBDHABVioHashString@@@Z
	DD	2 DUP(00H)
	DD	2 DUP(00H)
	DD	00H
	DD	01H
; Function compile flags: /Ogsp
; File d:\lost saga for developer\youtube\tutorial\source\src\lsclient\iocreatechar.cpp
xdata$x	ENDS
;	COMDAT ?FaceChange@ioCreateChar@@QAEXPBDHABVioHashString@@@Z
_TEXT	SEGMENT
_szTexPostfix$GSCopy$ = -320				; size = 4
_szNewFaceName$ = -316					; size = 16
_szFullName$567837 = -300				; size = 260
___encStr$567841 = -40					; size = 20
__$EHRec$ = -12						; size = 12
_szTexPostfix$ = 8					; size = 4
_iDuration$ = 12					; size = 4
_szType$ = 16						; size = 4
?FaceChange@ioCreateChar@@QAEXPBDHABVioHashString@@@Z PROC ; ioCreateChar::FaceChange, COMDAT
; _this$ = ecx

; 1752 : {

  00000	68 34 01 00 00	 push	 308			; 00000134H
  00005	b8 00 00 00 00	 mov	 eax, __ehhandler$?FaceChange@ioCreateChar@@QAEXPBDHABVioHashString@@@Z
  0000a	e8 00 00 00 00	 call	 __EH_prolog3_GS
  0000f	8b 7d 08	 mov	 edi, DWORD PTR _szTexPostfix$[ebp]
  00012	8b f1		 mov	 esi, ecx

; 1753 : 	ioHashString szNewFaceName;

  00014	8d 8d c4 fe ff
	ff		 lea	 ecx, DWORD PTR _szNewFaceName$[ebp]

; 1760 : 		StringCbPrintf_e( szFullName, sizeof( szFullName ), "resource\\texture\\%s" , szNewFaceName.c_str() );

  0001a	89 bd c0 fe ff
	ff		 mov	 DWORD PTR _szTexPostfix$GSCopy$[ebp], edi
  00020	ff 15 00 00 00
	00		 call	 DWORD PTR __imp_??0ioHashString@@QAE@XZ
  00026	ff b6 14 02 00
	00		 push	 DWORD PTR [esi+532]
  0002c	0f b6 46 1c	 movzx	 eax, BYTE PTR [esi+28]
  00030	50		 push	 eax
  00031	8d 85 c4 fe ff
	ff		 lea	 eax, DWORD PTR _szNewFaceName$[ebp]
  00037	57		 push	 edi
  00038	33 db		 xor	 ebx, ebx
  0003a	50		 push	 eax
  0003b	89 5d fc	 mov	 DWORD PTR __$EHRec$[ebp+8], ebx
  0003e	e8 00 00 00 00	 call	 ?GetFaceChangeName@@YA_NAAVioHashString@@PBD_NH@Z ; GetFaceChangeName
  00043	83 c4 10	 add	 esp, 16			; 00000010H
  00046	84 c0		 test	 al, al
  00048	0f 84 0d 01 00
	00		 je	 $LN1@FaceChange

; 1754 : 	if( !GetFaceChangeName( szNewFaceName, szTexPostfix, m_bMale, m_iFaceType ) )
; 1755 : 		return;
; 1756 : 
; 1757 : 	if( !m_bMale )

  0004e	38 5e 1c	 cmp	 BYTE PTR [esi+28], bl
  00051	0f 85 cf 00 00
	00		 jne	 $LN2@FaceChange

; 1758 : 	{
; 1759 : 		char szFullName[MAX_PATH]="";

  00057	68 03 01 00 00	 push	 259			; 00000103H
  0005c	8d 85 d5 fe ff
	ff		 lea	 eax, DWORD PTR _szFullName$567837[ebp+1]
  00062	53		 push	 ebx
  00063	50		 push	 eax
  00064	88 9d d4 fe ff
	ff		 mov	 BYTE PTR _szFullName$567837[ebp], bl
  0006a	e8 00 00 00 00	 call	 _memset
  0006f	83 c4 0c	 add	 esp, 12			; 0000000cH
  00072	6a 04		 push	 4

; 1760 : 		StringCbPrintf_e( szFullName, sizeof( szFullName ), "resource\\texture\\%s" , szNewFaceName.c_str() );

  00074	c7 45 d8 9f 89
	98 85		 mov	 DWORD PTR ___encStr$567841[ebp], -2053600865 ; 8598899fH
  0007b	c7 45 dc 98 9e
	88 8f		 mov	 DWORD PTR ___encStr$567841[ebp+4], -1886871912 ; 8f889e98H
  00082	c7 45 e0 b1 98
	8e 92		 mov	 DWORD PTR ___encStr$567841[ebp+8], -1836148559 ; 928e98b1H
  00089	c7 45 e4 99 99
	99 8f		 mov	 DWORD PTR ___encStr$567841[ebp+12], -1885759079 ; 8f999999H
  00090	8d 45 d8	 lea	 eax, DWORD PTR ___encStr$567841[ebp]
  00093	c7 45 e8 b1 c9
	98 00		 mov	 DWORD PTR ___encStr$567841[ebp+16], 10013105 ; 0098c9b1H
  0009a	59		 pop	 ecx
$LL113@FaceChange:
  0009b	81 30 ed ec eb
	ea		 xor	 DWORD PTR [eax], -353637139 ; eaebecedH
  000a1	83 c0 04	 add	 eax, 4
  000a4	49		 dec	 ecx
  000a5	75 f4		 jne	 SHORT $LL113@FaceChange
  000a7	6a 10		 push	 16			; 00000010H
  000a9	5f		 pop	 edi
$LL110@FaceChange:
  000aa	8b c7		 mov	 eax, edi
  000ac	25 03 00 00 80	 and	 eax, -2147483645	; 80000003H
  000b1	79 05		 jns	 SHORT $LN121@FaceChange
  000b3	48		 dec	 eax
  000b4	83 c8 fc	 or	 eax, -4			; fffffffcH
  000b7	40		 inc	 eax
$LN121@FaceChange:
  000b8	b1 ed		 mov	 cl, -19			; ffffffedH
  000ba	2a c8		 sub	 cl, al
  000bc	30 4c 3d d8	 xor	 BYTE PTR ___encStr$567841[ebp+edi], cl
  000c0	47		 inc	 edi
  000c1	83 ff 13	 cmp	 edi, 19			; 00000013H
  000c4	7c e4		 jl	 SHORT $LL110@FaceChange
  000c6	8d 8d c4 fe ff
	ff		 lea	 ecx, DWORD PTR _szNewFaceName$[ebp]
  000cc	ff 15 00 00 00
	00		 call	 DWORD PTR __imp_?c_str@ioHashString@@QBEPBDXZ
  000d2	50		 push	 eax
  000d3	8d 45 d8	 lea	 eax, DWORD PTR ___encStr$567841[ebp]
  000d6	50		 push	 eax
  000d7	8d 85 d4 fe ff
	ff		 lea	 eax, DWORD PTR _szFullName$567837[ebp]
  000dd	68 04 01 00 00	 push	 260			; 00000104H
  000e2	50		 push	 eax
  000e3	e8 00 00 00 00	 call	 ?StringCbPrintfA@@YAJPADIPBDZZ ; StringCbPrintfA
  000e8	83 c4 10	 add	 esp, 16			; 00000010H

; 1761 : 		if( !g_ResourceLoader.IsFileExist( szFullName ) )

  000eb	8d 85 d4 fe ff
	ff		 lea	 eax, DWORD PTR _szFullName$567837[ebp]
  000f1	53		 push	 ebx
  000f2	50		 push	 eax
  000f3	ff 15 00 00 00
	00		 call	 DWORD PTR __imp_?GetInstance@ioResourceLoader@@SAAAV1@XZ
  000f9	8b c8		 mov	 ecx, eax
  000fb	ff 15 00 00 00
	00		 call	 DWORD PTR __imp_?IsFileExist@ioResourceLoader@@QAE_NPBD_N@Z
  00101	84 c0		 test	 al, al
  00103	75 21		 jne	 SHORT $LN2@FaceChange

; 1762 : 		{
; 1763 : 			if( !GetFaceChangeName( szNewFaceName, szTexPostfix, true, m_iFaceType ) ) //  .

  00105	ff b6 14 02 00
	00		 push	 DWORD PTR [esi+532]
  0010b	8d 85 c4 fe ff
	ff		 lea	 eax, DWORD PTR _szNewFaceName$[ebp]
  00111	6a 01		 push	 1
  00113	ff b5 c0 fe ff
	ff		 push	 DWORD PTR _szTexPostfix$GSCopy$[ebp]
  00119	50		 push	 eax
  0011a	e8 00 00 00 00	 call	 ?GetFaceChangeName@@YA_NAAVioHashString@@PBD_NH@Z ; GetFaceChangeName
  0011f	83 c4 10	 add	 esp, 16			; 00000010H
  00122	84 c0		 test	 al, al

; 1764 : 				return;

  00124	74 35		 je	 SHORT $LN1@FaceChange
$LN2@FaceChange:

; 1765 : 		}
; 1766 : 	}
; 1767 : 
; 1768 : 	m_dwFaceChangeTime = FRAMEGETTIME() + iDuration;

  00126	ff 15 00 00 00
	00		 call	 DWORD PTR __imp_?GetSingleton@ioFrameTimer@@SAAAV1@XZ
  0012c	8b c8		 mov	 ecx, eax
  0012e	ff 15 00 00 00
	00		 call	 DWORD PTR __imp_?GetLoopSec@ioFrameTimer@@QBEKXZ
  00134	03 45 0c	 add	 eax, DWORD PTR _iDuration$[ebp]

; 1769 : 
; 1770 : 	//HARDCODE: ioBaseChar  (m_iFaceType)    . ( 1.. )
; 1771 : 	if( !m_CurFaceMesh.IsEmpty() )

  00137	8d 8e 10 01 00
	00		 lea	 ecx, DWORD PTR [esi+272]
  0013d	89 86 18 02 00
	00		 mov	 DWORD PTR [esi+536], eax
  00143	ff 15 00 00 00
	00		 call	 DWORD PTR __imp_?IsEmpty@ioHashString@@QBE_NXZ
  00149	84 c0		 test	 al, al
  0014b	75 0e		 jne	 SHORT $LN1@FaceChange

; 1772 : 	{
; 1773 : 		ChangeFaceTexture( szNewFaceName );

  0014d	8d 85 c4 fe ff
	ff		 lea	 eax, DWORD PTR _szNewFaceName$[ebp]
  00153	50		 push	 eax
  00154	8b ce		 mov	 ecx, esi
  00156	e8 00 00 00 00	 call	 ?ChangeFaceTexture@ioCreateChar@@QAEXABVioHashString@@@Z ; ioCreateChar::ChangeFaceTexture
$LN1@FaceChange:

; 1774 : 	}
; 1775 : }

  0015b	83 4d fc ff	 or	 DWORD PTR __$EHRec$[ebp+8], -1
  0015f	8d 8d c4 fe ff
	ff		 lea	 ecx, DWORD PTR _szNewFaceName$[ebp]
  00165	ff 15 00 00 00
	00		 call	 DWORD PTR __imp_??1ioHashString@@QAE@XZ
  0016b	e8 00 00 00 00	 call	 __EH_epilog3_GS
  00170	c2 0c 00	 ret	 12			; 0000000cH
_TEXT	ENDS
;	COMDAT text$x
text$x	SEGMENT
__unwindfunclet$?FaceChange@ioCreateChar@@QAEXPBDHABVioHashString@@@Z$0:
  00000	8d 8d c4 fe ff
	ff		 lea	 ecx, DWORD PTR _szNewFaceName$[ebp]
  00006	ff 25 00 00 00
	00		 jmp	 DWORD PTR __imp_??1ioHashString@@QAE@XZ
__ehhandler$?FaceChange@ioCreateChar@@QAEXPBDHABVioHashString@@@Z:
  0000c	8b 54 24 08	 mov	 edx, DWORD PTR [esp+8]
  00010	8d 42 0c	 lea	 eax, DWORD PTR [edx+12]
  00013	8b 8a bc fe ff
	ff		 mov	 ecx, DWORD PTR [edx-324]
  00019	33 c8		 xor	 ecx, eax
  0001b	e8 00 00 00 00	 call	 @__security_check_cookie@4
  00020	8b 4a fc	 mov	 ecx, DWORD PTR [edx-4]
  00023	33 c8		 xor	 ecx, eax
  00025	e8 00 00 00 00	 call	 @__security_check_cookie@4
  0002a	b8 00 00 00 00	 mov	 eax, OFFSET __ehfuncinfo$?FaceChange@ioCreateChar@@QAEXPBDHABVioHashString@@@Z
  0002f	e9 00 00 00 00	 jmp	 ___CxxFrameHandler3
text$x	ENDS
?FaceChange@ioCreateChar@@QAEXPBDHABVioHashString@@@Z ENDP ; ioCreateChar::FaceChange
PUBLIC	?StopFaceChange@ioCreateChar@@IAEXXZ		; ioCreateChar::StopFaceChange
; Function compile flags: /Ogsp
;	COMDAT ?StopFaceChange@ioCreateChar@@IAEXXZ
_TEXT	SEGMENT
?StopFaceChange@ioCreateChar@@IAEXXZ PROC		; ioCreateChar::StopFaceChange, COMDAT
; _this$ = ecx

; 1789 : {

  00000	56		 push	 esi

; 1790 : 	if( m_dwFaceChangeTime != 0 )

  00001	8d b1 18 02 00
	00		 lea	 esi, DWORD PTR [ecx+536]
  00007	83 3e 00	 cmp	 DWORD PTR [esi], 0
  0000a	74 08		 je	 SHORT $LN1@StopFaceCh

; 1791 : 	{
; 1792 : 		RestoreDefaultFace();

  0000c	e8 00 00 00 00	 call	 ?RestoreDefaultFace@ioCreateChar@@QAEXXZ ; ioCreateChar::RestoreDefaultFace

; 1793 : 		m_dwFaceChangeTime = 0;

  00011	83 26 00	 and	 DWORD PTR [esi], 0
$LN1@StopFaceCh:
  00014	5e		 pop	 esi

; 1794 : 	}
; 1795 : }

  00015	c3		 ret	 0
?StopFaceChange@ioCreateChar@@IAEXXZ ENDP		; ioCreateChar::StopFaceChange
_TEXT	ENDS
PUBLIC	??_C@_05FONLNAHH@_head?$AA@			; `string'
PUBLIC	?ChangeHairOutLineThick@ioCreateChar@@QAEXM@Z	; ioCreateChar::ChangeHairOutLineThick
EXTRN	__imp__strstr:PROC
EXTRN	__imp_?GetMeshName@ioEntity@@QBEABVioHashString@@XZ:PROC
;	COMDAT ??_C@_05FONLNAHH@_head?$AA@
CONST	SEGMENT
??_C@_05FONLNAHH@_head?$AA@ DB '_head', 00H		; `string'
; Function compile flags: /Ogsp
CONST	ENDS
;	COMDAT ?ChangeHairOutLineThick@ioCreateChar@@QAEXM@Z
_TEXT	SEGMENT
_iNumEntity$ = -4					; size = 4
_fThick$ = 8						; size = 4
?ChangeHairOutLineThick@ioCreateChar@@QAEXM@Z PROC	; ioCreateChar::ChangeHairOutLineThick, COMDAT
; _this$ = ecx

; 1884 : {

  00000	55		 push	 ebp
  00001	8b ec		 mov	 ebp, esp
  00003	51		 push	 ecx
  00004	53		 push	 ebx
  00005	56		 push	 esi
  00006	8b f1		 mov	 esi, ecx

; 1885 : 	int iNumEntity = m_pGrp->GetNumEntities();

  00008	8b 4e 04	 mov	 ecx, DWORD PTR [esi+4]
  0000b	ff 15 00 00 00
	00		 call	 DWORD PTR __imp_?GetNumEntities@ioEntityGroup@@QBEHXZ

; 1886 : 	for( int i=0 ; i<iNumEntity ; i++ )

  00011	33 db		 xor	 ebx, ebx
  00013	89 45 fc	 mov	 DWORD PTR _iNumEntity$[ebp], eax
  00016	85 c0		 test	 eax, eax
  00018	7e 49		 jle	 SHORT $LN2@ChangeHair
  0001a	57		 push	 edi
$LL4@ChangeHair:

; 1887 : 	{
; 1888 : 		ioEntity *pEntity = m_pGrp->GetEntity( i );

  0001b	8b 4e 04	 mov	 ecx, DWORD PTR [esi+4]
  0001e	53		 push	 ebx
  0001f	ff 15 00 00 00
	00		 call	 DWORD PTR __imp_?GetEntity@ioEntityGroup@@QAEPAVioEntity@@H@Z
  00025	8b f8		 mov	 edi, eax

; 1889 : 
; 1890 : 		if( strstr( pEntity->GetMeshName().c_str(), "_head" ) )

  00027	68 00 00 00 00	 push	 OFFSET ??_C@_05FONLNAHH@_head?$AA@
  0002c	8b cf		 mov	 ecx, edi
  0002e	ff 15 00 00 00
	00		 call	 DWORD PTR __imp_?GetMeshName@ioEntity@@QBEABVioHashString@@XZ
  00034	8b c8		 mov	 ecx, eax
  00036	ff 15 00 00 00
	00		 call	 DWORD PTR __imp_?c_str@ioHashString@@QBEPBDXZ
  0003c	50		 push	 eax
  0003d	ff 15 00 00 00
	00		 call	 DWORD PTR __imp__strstr
  00043	59		 pop	 ecx
  00044	59		 pop	 ecx
  00045	85 c0		 test	 eax, eax
  00047	74 13		 je	 SHORT $LN3@ChangeHair

; 1891 : 		{
; 1892 : 			ApplyOutLineByChangedThick( pEntity, fThick );

  00049	f3 0f 10 45 08	 movss	 xmm0, DWORD PTR _fThick$[ebp]
  0004e	51		 push	 ecx
  0004f	f3 0f 11 04 24	 movss	 DWORD PTR [esp], xmm0
  00054	57		 push	 edi
  00055	8b ce		 mov	 ecx, esi
  00057	e8 00 00 00 00	 call	 ?ApplyOutLineByChangedThick@ioCreateChar@@IAEXPAVioEntity@@M@Z ; ioCreateChar::ApplyOutLineByChangedThick
$LN3@ChangeHair:

; 1886 : 	for( int i=0 ; i<iNumEntity ; i++ )

  0005c	43		 inc	 ebx
  0005d	3b 5d fc	 cmp	 ebx, DWORD PTR _iNumEntity$[ebp]
  00060	7c b9		 jl	 SHORT $LL4@ChangeHair
  00062	5f		 pop	 edi
$LN2@ChangeHair:
  00063	5e		 pop	 esi
  00064	5b		 pop	 ebx

; 1893 : 		}
; 1894 : 	}
; 1895 : }

  00065	c9		 leave
  00066	c2 04 00	 ret	 4
?ChangeHairOutLineThick@ioCreateChar@@QAEXM@Z ENDP	; ioCreateChar::ChangeHairOutLineThick
_TEXT	ENDS
PUBLIC	??_C@_05HEBGBMGO@_face?$AA@			; `string'
PUBLIC	?ChangeHeadOutLineThick@ioCreateChar@@QAEXM@Z	; ioCreateChar::ChangeHeadOutLineThick
;	COMDAT ??_C@_05HEBGBMGO@_face?$AA@
CONST	SEGMENT
??_C@_05HEBGBMGO@_face?$AA@ DB '_face', 00H		; `string'
; Function compile flags: /Ogsp
CONST	ENDS
;	COMDAT ?ChangeHeadOutLineThick@ioCreateChar@@QAEXM@Z
_TEXT	SEGMENT
_iNumEntity$ = -4					; size = 4
_fThick$ = 8						; size = 4
?ChangeHeadOutLineThick@ioCreateChar@@QAEXM@Z PROC	; ioCreateChar::ChangeHeadOutLineThick, COMDAT
; _this$ = ecx

; 1898 : {

  00000	55		 push	 ebp
  00001	8b ec		 mov	 ebp, esp
  00003	51		 push	 ecx
  00004	53		 push	 ebx
  00005	56		 push	 esi
  00006	8b f1		 mov	 esi, ecx

; 1899 : 	int iNumEntity = m_pGrp->GetNumEntities();

  00008	8b 4e 04	 mov	 ecx, DWORD PTR [esi+4]
  0000b	ff 15 00 00 00
	00		 call	 DWORD PTR __imp_?GetNumEntities@ioEntityGroup@@QBEHXZ

; 1900 : 	for( int i=0 ; i<iNumEntity ; i++ )

  00011	33 db		 xor	 ebx, ebx
  00013	89 45 fc	 mov	 DWORD PTR _iNumEntity$[ebp], eax
  00016	85 c0		 test	 eax, eax
  00018	7e 49		 jle	 SHORT $LN2@ChangeHead
  0001a	57		 push	 edi
$LL4@ChangeHead:

; 1901 : 	{
; 1902 : 		ioEntity *pEntity = m_pGrp->GetEntity( i );

  0001b	8b 4e 04	 mov	 ecx, DWORD PTR [esi+4]
  0001e	53		 push	 ebx
  0001f	ff 15 00 00 00
	00		 call	 DWORD PTR __imp_?GetEntity@ioEntityGroup@@QAEPAVioEntity@@H@Z
  00025	8b f8		 mov	 edi, eax

; 1903 : 
; 1904 : 		if( strstr( pEntity->GetMeshName().c_str(), "_face" ) )

  00027	68 00 00 00 00	 push	 OFFSET ??_C@_05HEBGBMGO@_face?$AA@
  0002c	8b cf		 mov	 ecx, edi
  0002e	ff 15 00 00 00
	00		 call	 DWORD PTR __imp_?GetMeshName@ioEntity@@QBEABVioHashString@@XZ
  00034	8b c8		 mov	 ecx, eax
  00036	ff 15 00 00 00
	00		 call	 DWORD PTR __imp_?c_str@ioHashString@@QBEPBDXZ
  0003c	50		 push	 eax
  0003d	ff 15 00 00 00
	00		 call	 DWORD PTR __imp__strstr
  00043	59		 pop	 ecx
  00044	59		 pop	 ecx
  00045	85 c0		 test	 eax, eax
  00047	74 13		 je	 SHORT $LN3@ChangeHead

; 1905 : 		{
; 1906 : 			ApplyOutLineByChangedThick( pEntity, fThick );

  00049	f3 0f 10 45 08	 movss	 xmm0, DWORD PTR _fThick$[ebp]
  0004e	51		 push	 ecx
  0004f	f3 0f 11 04 24	 movss	 DWORD PTR [esp], xmm0
  00054	57		 push	 edi
  00055	8b ce		 mov	 ecx, esi
  00057	e8 00 00 00 00	 call	 ?ApplyOutLineByChangedThick@ioCreateChar@@IAEXPAVioEntity@@M@Z ; ioCreateChar::ApplyOutLineByChangedThick
$LN3@ChangeHead:

; 1900 : 	for( int i=0 ; i<iNumEntity ; i++ )

  0005c	43		 inc	 ebx
  0005d	3b 5d fc	 cmp	 ebx, DWORD PTR _iNumEntity$[ebp]
  00060	7c b9		 jl	 SHORT $LL4@ChangeHead
  00062	5f		 pop	 edi
$LN2@ChangeHead:
  00063	5e		 pop	 esi
  00064	5b		 pop	 ebx

; 1907 : 		}
; 1908 : 	}
; 1909 : }

  00065	c9		 leave
  00066	c2 04 00	 ret	 4
?ChangeHeadOutLineThick@ioCreateChar@@QAEXM@Z ENDP	; ioCreateChar::ChangeHeadOutLineThick
_TEXT	ENDS
PUBLIC	?GetMidPositionByRate@ioCreateChar@@QBE?AUD3DXVECTOR3@@M@Z ; ioCreateChar::GetMidPositionByRate
EXTRN	__imp_??1ioOrientBox@@QAE@XZ:PROC
EXTRN	__imp_?GetCenter@ioOrientBox@@QBEABUD3DXVECTOR3@@XZ:PROC
EXTRN	__imp_?GetExtents@ioOrientBox@@QBEMH@Z:PROC
;	COMDAT xdata$x
; File d:\lost saga for developer\youtube\tutorial\source\src\lsclient\iocreatechar.h
xdata$x	SEGMENT
__unwindtable$?GetMidPositionByRate@ioCreateChar@@QBE?AUD3DXVECTOR3@@M@Z DD 0ffffffffH
	DD	FLAT:__unwindfunclet$?GetMidPositionByRate@ioCreateChar@@QBE?AUD3DXVECTOR3@@M@Z$0
__ehfuncinfo$?GetMidPositionByRate@ioCreateChar@@QBE?AUD3DXVECTOR3@@M@Z DD 019930522H
	DD	01H
	DD	FLAT:__unwindtable$?GetMidPositionByRate@ioCreateChar@@QBE?AUD3DXVECTOR3@@M@Z
	DD	2 DUP(00H)
	DD	2 DUP(00H)
	DD	00H
	DD	01H
; Function compile flags: /Ogsp
; File d:\lost saga for developer\youtube\tutorial\source\src\lsclient\iocreatechar.cpp
xdata$x	ENDS
;	COMDAT ?GetMidPositionByRate@ioCreateChar@@QBE?AUD3DXVECTOR3@@M@Z
_TEXT	SEGMENT
tv139 = -96						; size = 8
tv170 = -88						; size = 4
_kBox$ = -84						; size = 68
__$EHRec$ = -12						; size = 12
___$ReturnUdt$ = 8					; size = 4
_fRate$ = 12						; size = 4
?GetMidPositionByRate@ioCreateChar@@QBE?AUD3DXVECTOR3@@M@Z PROC ; ioCreateChar::GetMidPositionByRate, COMDAT
; _this$ = ecx

; 1988 : {

  00000	6a 54		 push	 84			; 00000054H
  00002	b8 00 00 00 00	 mov	 eax, __ehhandler$?GetMidPositionByRate@ioCreateChar@@QBE?AUD3DXVECTOR3@@M@Z
  00007	e8 00 00 00 00	 call	 __EH_prolog3_GS
  0000c	8b 5d 08	 mov	 ebx, DWORD PTR ___$ReturnUdt$[ebp]

; 1989 : 	D3DXVECTOR3 vPos = GetWorldPosition();

  0000f	53		 push	 ebx
  00010	8b f1		 mov	 esi, ecx
  00012	e8 00 00 00 00	 call	 ?GetWorldPosition@ioCreateChar@@QBE?AUD3DXVECTOR3@@XZ ; ioCreateChar::GetWorldPosition

; 1990 : 	ioOrientBox kBox = GetWorldCollisionBox();

  00017	6a 11		 push	 17			; 00000011H
  00019	81 c6 b0 01 00
	00		 add	 esi, 432		; 000001b0H
  0001f	59		 pop	 ecx
  00020	8d 7d ac	 lea	 edi, DWORD PTR _kBox$[ebp]
  00023	f3 a5		 rep movsd
  00025	83 65 fc 00	 and	 DWORD PTR __$EHRec$[ebp+8], 0

; 1991 : 
; 1992 : 	float fMidHeight;
; 1993 : 	fMidHeight = kBox.GetCenter().y + kBox.GetExtents(1) - vPos.y;

  00029	6a 01		 push	 1
  0002b	8d 4d ac	 lea	 ecx, DWORD PTR _kBox$[ebp]
  0002e	ff 15 00 00 00
	00		 call	 DWORD PTR __imp_?GetExtents@ioOrientBox@@QBEMH@Z
  00034	f3 0f 10 43 04	 movss	 xmm0, DWORD PTR [ebx+4]
  00039	dd 5d a0	 fstp	 QWORD PTR tv139[ebp]
  0003c	8d 4d ac	 lea	 ecx, DWORD PTR _kBox$[ebp]
  0003f	f3 0f 11 45 a8	 movss	 DWORD PTR tv170[ebp], xmm0
  00044	ff 15 00 00 00
	00		 call	 DWORD PTR __imp_?GetCenter@ioOrientBox@@QBEABUD3DXVECTOR3@@XZ
  0004a	f3 0f 10 40 04	 movss	 xmm0, DWORD PTR [eax+4]
  0004f	f3 0f 10 4d a8	 movss	 xmm1, DWORD PTR tv170[ebp]

; 1994 : 	fMidHeight = vPos.y + fMidHeight * fRate;
; 1995 : 	vPos.y = fMidHeight;
; 1996 : 
; 1997 : 	return vPos;

  00054	83 4d fc ff	 or	 DWORD PTR __$EHRec$[ebp+8], -1
  00058	0f 5a c0	 cvtps2pd xmm0, xmm0
  0005b	f2 0f 58 45 a0	 addsd	 xmm0, QWORD PTR tv139[ebp]
  00060	0f 5a c9	 cvtps2pd xmm1, xmm1
  00063	f2 0f 5c c1	 subsd	 xmm0, xmm1
  00067	f3 0f 10 4d 0c	 movss	 xmm1, DWORD PTR _fRate$[ebp]
  0006c	66 0f 5a c0	 cvtpd2ps xmm0, xmm0
  00070	f3 0f 5a c0	 cvtss2sd xmm0, xmm0
  00074	0f 5a c9	 cvtps2pd xmm1, xmm1
  00077	f2 0f 59 c1	 mulsd	 xmm0, xmm1
  0007b	f3 0f 10 4d a8	 movss	 xmm1, DWORD PTR tv170[ebp]
  00080	0f 5a c9	 cvtps2pd xmm1, xmm1
  00083	f2 0f 58 c1	 addsd	 xmm0, xmm1
  00087	66 0f 5a c0	 cvtpd2ps xmm0, xmm0
  0008b	8d 4d ac	 lea	 ecx, DWORD PTR _kBox$[ebp]
  0008e	f3 0f 11 43 04	 movss	 DWORD PTR [ebx+4], xmm0
  00093	ff 15 00 00 00
	00		 call	 DWORD PTR __imp_??1ioOrientBox@@QAE@XZ
  00099	8b c3		 mov	 eax, ebx

; 1998 : }

  0009b	e8 00 00 00 00	 call	 __EH_epilog3_GS
  000a0	c2 08 00	 ret	 8
_TEXT	ENDS
;	COMDAT text$x
text$x	SEGMENT
__unwindfunclet$?GetMidPositionByRate@ioCreateChar@@QBE?AUD3DXVECTOR3@@M@Z$0:
  00000	8d 4d ac	 lea	 ecx, DWORD PTR _kBox$[ebp]
  00003	ff 25 00 00 00
	00		 jmp	 DWORD PTR __imp_??1ioOrientBox@@QAE@XZ
__ehhandler$?GetMidPositionByRate@ioCreateChar@@QBE?AUD3DXVECTOR3@@M@Z:
  00009	8b 54 24 08	 mov	 edx, DWORD PTR [esp+8]
  0000d	8d 42 0c	 lea	 eax, DWORD PTR [edx+12]
  00010	8b 4a 9c	 mov	 ecx, DWORD PTR [edx-100]
  00013	33 c8		 xor	 ecx, eax
  00015	e8 00 00 00 00	 call	 @__security_check_cookie@4
  0001a	8b 4a fc	 mov	 ecx, DWORD PTR [edx-4]
  0001d	33 c8		 xor	 ecx, eax
  0001f	e8 00 00 00 00	 call	 @__security_check_cookie@4
  00024	b8 00 00 00 00	 mov	 eax, OFFSET __ehfuncinfo$?GetMidPositionByRate@ioCreateChar@@QBE?AUD3DXVECTOR3@@M@Z
  00029	e9 00 00 00 00	 jmp	 ___CxxFrameHandler3
text$x	ENDS
?GetMidPositionByRate@ioCreateChar@@QBE?AUD3DXVECTOR3@@M@Z ENDP ; ioCreateChar::GetMidPositionByRate
PUBLIC	_this$GSCopy$
PUBLIC	_bMale$GSCopy$
PUBLIC	?GetAnimationIdxAfterConvertName@ioCreateChar@@IBEHABVioHashString@@_N@Z ; ioCreateChar::GetAnimationIdxAfterConvertName
EXTRN	__imp_?GetAnimationIdx@ioEntityGroup@@QAEHABVioHashString@@@Z:PROC
;	COMDAT xdata$x
; File d:\lost saga for developer\youtube\tutorial\source\src\lsclient\stringprotect.h
xdata$x	SEGMENT
__unwindtable$?GetAnimationIdxAfterConvertName@ioCreateChar@@IBEHABVioHashString@@_N@Z DD 0ffffffffH
	DD	FLAT:__unwindfunclet$?GetAnimationIdxAfterConvertName@ioCreateChar@@IBEHABVioHashString@@_N@Z$0
	DD	00H
	DD	FLAT:__unwindfunclet$?GetAnimationIdxAfterConvertName@ioCreateChar@@IBEHABVioHashString@@_N@Z$1
__ehfuncinfo$?GetAnimationIdxAfterConvertName@ioCreateChar@@IBEHABVioHashString@@_N@Z DD 019930522H
	DD	02H
	DD	FLAT:__unwindtable$?GetAnimationIdxAfterConvertName@ioCreateChar@@IBEHABVioHashString@@_N@Z
	DD	2 DUP(00H)
	DD	2 DUP(00H)
	DD	00H
	DD	01H
; Function compile flags: /Ogsp
; File d:\lost saga for developer\youtube\tutorial\source\src\lsclient\iocreatechar.cpp
xdata$x	ENDS
;	COMDAT ?GetAnimationIdxAfterConvertName@ioCreateChar@@IBEHABVioHashString@@_N@Z
_TEXT	SEGMENT
_szNewAniName$ = -328					; size = 16
_this$GSCopy$ = -312					; size = 4
_bMale$GSCopy$ = -308					; size = 1
_szFullName$568166 = -304				; size = 260
___encStr$568170 = -44					; size = 22
$T571937 = -36						; size = 16
__$EHRec$ = -12						; size = 12
_szAniName$ = 8						; size = 4
_bMale$ = 12						; size = 1
?GetAnimationIdxAfterConvertName@ioCreateChar@@IBEHABVioHashString@@_N@Z PROC ; ioCreateChar::GetAnimationIdxAfterConvertName, COMDAT
; _this$ = ecx

; 2012 : {

  00000	68 3c 01 00 00	 push	 316			; 0000013cH
  00005	b8 00 00 00 00	 mov	 eax, __ehhandler$?GetAnimationIdxAfterConvertName@ioCreateChar@@IBEHABVioHashString@@_N@Z
  0000a	e8 00 00 00 00	 call	 __EH_prolog3_GS

; 2020 : 		{
; 2021 : 			szNewAniName = Help::ConvertTailName( szAniName, true ); // 

  0000f	8a 45 0c	 mov	 al, BYTE PTR _bMale$[ebp]
  00012	8b 7d 08	 mov	 edi, DWORD PTR _szAniName$[ebp]
  00015	88 85 cc fe ff
	ff		 mov	 BYTE PTR _bMale$GSCopy$[ebp], al
  0001b	ff b5 cc fe ff
	ff		 push	 DWORD PTR _bMale$GSCopy$[ebp]
  00021	8d 85 b8 fe ff
	ff		 lea	 eax, DWORD PTR _szNewAniName$[ebp]
  00027	57		 push	 edi
  00028	50		 push	 eax
  00029	89 8d c8 fe ff
	ff		 mov	 DWORD PTR _this$GSCopy$[ebp], ecx
  0002f	e8 00 00 00 00	 call	 ?ConvertTailName@Help@@YA?AVioHashString@@ABV2@_N@Z ; Help::ConvertTailName
  00034	83 c4 0c	 add	 esp, 12			; 0000000cH
  00037	8b 35 00 00 00
	00		 mov	 esi, DWORD PTR __imp_??1ioHashString@@QAE@XZ
  0003d	33 db		 xor	 ebx, ebx
  0003f	89 5d fc	 mov	 DWORD PTR __$EHRec$[ebp+8], ebx
  00042	38 9d cc fe ff
	ff		 cmp	 BYTE PTR _bMale$GSCopy$[ebp], bl
  00048	0f 85 c1 00 00
	00		 jne	 $LN1@GetAnimati

; 2013 : 	ioHashString szNewAniName = Help::ConvertTailName( szAniName, bMale );
; 2014 : 
; 2015 : 	if( !bMale )
; 2016 : 	{
; 2017 : 		char szFullName[MAX_PATH]="";

  0004e	68 03 01 00 00	 push	 259			; 00000103H
  00053	8d 85 d1 fe ff
	ff		 lea	 eax, DWORD PTR _szFullName$568166[ebp+1]
  00059	53		 push	 ebx
  0005a	50		 push	 eax
  0005b	88 9d d0 fe ff
	ff		 mov	 BYTE PTR _szFullName$568166[ebp], bl
  00061	e8 00 00 00 00	 call	 _memset
  00066	83 c4 0c	 add	 esp, 12			; 0000000cH
  00069	6a 05		 push	 5

; 2018 : 		StringCbPrintf_e( szFullName, sizeof( szFullName ), "resource\\animation\\%s" , szNewAniName.c_str() );

  0006b	c7 45 d4 9f 89
	98 85		 mov	 DWORD PTR ___encStr$568170[ebp], -2053600865 ; 8598899fH
  00072	c7 45 d8 98 9e
	88 8f		 mov	 DWORD PTR ___encStr$568170[ebp+4], -1886871912 ; 8f889e98H
  00079	c7 45 dc b1 8d
	85 83		 mov	 DWORD PTR ___encStr$568170[ebp+8], -2088399439 ; 83858db1H
  00080	c7 45 e0 80 8d
	9f 83		 mov	 DWORD PTR ___encStr$568170[ebp+12], -2086695552 ; 839f8d80H
  00087	c7 45 e4 82 82
	b7 cf		 mov	 DWORD PTR ___encStr$568170[ebp+16], -810057086 ; cfb78282H
  0008e	8d 45 d4	 lea	 eax, DWORD PTR ___encStr$568170[ebp]
  00091	66 c7 45 e8 9e
	00		 mov	 WORD PTR ___encStr$568170[ebp+20], 158 ; 0000009eH
  00097	59		 pop	 ecx
$LL111@GetAnimati:
  00098	81 30 ed ec eb
	ea		 xor	 DWORD PTR [eax], -353637139 ; eaebecedH
  0009e	83 c0 04	 add	 eax, 4
  000a1	49		 dec	 ecx
  000a2	75 f4		 jne	 SHORT $LL111@GetAnimati
  000a4	80 75 e8 ed	 xor	 BYTE PTR ___encStr$568170[ebp+20], -19 ; ffffffedH
  000a8	8d 8d b8 fe ff
	ff		 lea	 ecx, DWORD PTR _szNewAniName$[ebp]
  000ae	ff 15 00 00 00
	00		 call	 DWORD PTR __imp_?c_str@ioHashString@@QBEPBDXZ
  000b4	50		 push	 eax
  000b5	8d 45 d4	 lea	 eax, DWORD PTR ___encStr$568170[ebp]
  000b8	50		 push	 eax
  000b9	8d 85 d0 fe ff
	ff		 lea	 eax, DWORD PTR _szFullName$568166[ebp]
  000bf	68 04 01 00 00	 push	 260			; 00000104H
  000c4	50		 push	 eax
  000c5	e8 00 00 00 00	 call	 ?StringCbPrintfA@@YAJPADIPBDZZ ; StringCbPrintfA
  000ca	83 c4 10	 add	 esp, 16			; 00000010H

; 2019 : 		if( !g_ResourceLoader.IsFileExist( szFullName ) )

  000cd	8d 85 d0 fe ff
	ff		 lea	 eax, DWORD PTR _szFullName$568166[ebp]
  000d3	53		 push	 ebx
  000d4	50		 push	 eax
  000d5	ff 15 00 00 00
	00		 call	 DWORD PTR __imp_?GetInstance@ioResourceLoader@@SAAAV1@XZ
  000db	8b c8		 mov	 ecx, eax
  000dd	ff 15 00 00 00
	00		 call	 DWORD PTR __imp_?IsFileExist@ioResourceLoader@@QAE_NPBD_N@Z
  000e3	84 c0		 test	 al, al
  000e5	75 28		 jne	 SHORT $LN1@GetAnimati

; 2020 : 		{
; 2021 : 			szNewAniName = Help::ConvertTailName( szAniName, true ); // 

  000e7	6a 01		 push	 1
  000e9	8d 45 dc	 lea	 eax, DWORD PTR $T571937[ebp]
  000ec	57		 push	 edi
  000ed	50		 push	 eax
  000ee	e8 00 00 00 00	 call	 ?ConvertTailName@Help@@YA?AVioHashString@@ABV2@_N@Z ; Help::ConvertTailName
  000f3	83 c4 0c	 add	 esp, 12			; 0000000cH
  000f6	50		 push	 eax
  000f7	8d 8d b8 fe ff
	ff		 lea	 ecx, DWORD PTR _szNewAniName$[ebp]
  000fd	c6 45 fc 01	 mov	 BYTE PTR __$EHRec$[ebp+8], 1
  00101	ff 15 00 00 00
	00		 call	 DWORD PTR __imp_??4ioHashString@@QAEAAV0@ABV0@@Z
  00107	8d 4d dc	 lea	 ecx, DWORD PTR $T571937[ebp]
  0010a	88 5d fc	 mov	 BYTE PTR __$EHRec$[ebp+8], bl
  0010d	ff d6		 call	 esi
$LN1@GetAnimati:

; 2022 : 		}
; 2023 : 	}
; 2024 : 
; 2025 : 	return m_pGrp->GetAnimationIdx( szNewAniName );

  0010f	8d 85 b8 fe ff
	ff		 lea	 eax, DWORD PTR _szNewAniName$[ebp]
  00115	50		 push	 eax
  00116	8b 85 c8 fe ff
	ff		 mov	 eax, DWORD PTR _this$GSCopy$[ebp]
  0011c	8b 48 04	 mov	 ecx, DWORD PTR [eax+4]
  0011f	ff 15 00 00 00
	00		 call	 DWORD PTR __imp_?GetAnimationIdx@ioEntityGroup@@QAEHABVioHashString@@@Z
  00125	83 4d fc ff	 or	 DWORD PTR __$EHRec$[ebp+8], -1
  00129	8d 8d b8 fe ff
	ff		 lea	 ecx, DWORD PTR _szNewAniName$[ebp]
  0012f	8b f8		 mov	 edi, eax
  00131	ff d6		 call	 esi
  00133	8b c7		 mov	 eax, edi

; 2026 : }

  00135	e8 00 00 00 00	 call	 __EH_epilog3_GS
  0013a	c2 08 00	 ret	 8
_TEXT	ENDS
;	COMDAT text$x
text$x	SEGMENT
__unwindfunclet$?GetAnimationIdxAfterConvertName@ioCreateChar@@IBEHABVioHashString@@_N@Z$0:
  00000	8d 8d b8 fe ff
	ff		 lea	 ecx, DWORD PTR _szNewAniName$[ebp]
  00006	ff 25 00 00 00
	00		 jmp	 DWORD PTR __imp_??1ioHashString@@QAE@XZ
__unwindfunclet$?GetAnimationIdxAfterConvertName@ioCreateChar@@IBEHABVioHashString@@_N@Z$1:
  0000c	8d 4d dc	 lea	 ecx, DWORD PTR $T571937[ebp]
  0000f	ff 25 00 00 00
	00		 jmp	 DWORD PTR __imp_??1ioHashString@@QAE@XZ
__ehhandler$?GetAnimationIdxAfterConvertName@ioCreateChar@@IBEHABVioHashString@@_N@Z:
  00015	8b 54 24 08	 mov	 edx, DWORD PTR [esp+8]
  00019	8d 42 0c	 lea	 eax, DWORD PTR [edx+12]
  0001c	8b 8a b4 fe ff
	ff		 mov	 ecx, DWORD PTR [edx-332]
  00022	33 c8		 xor	 ecx, eax
  00024	e8 00 00 00 00	 call	 @__security_check_cookie@4
  00029	8b 4a fc	 mov	 ecx, DWORD PTR [edx-4]
  0002c	33 c8		 xor	 ecx, eax
  0002e	e8 00 00 00 00	 call	 @__security_check_cookie@4
  00033	b8 00 00 00 00	 mov	 eax, OFFSET __ehfuncinfo$?GetAnimationIdxAfterConvertName@ioCreateChar@@IBEHABVioHashString@@_N@Z
  00038	e9 00 00 00 00	 jmp	 ___CxxFrameHandler3
text$x	ENDS
?GetAnimationIdxAfterConvertName@ioCreateChar@@IBEHABVioHashString@@_N@Z ENDP ; ioCreateChar::GetAnimationIdxAfterConvertName
PUBLIC	??0?$_Vector_iterator@V?$_Vector_val@VioHashString@@V?$allocator@VioHashString@@@std@@@std@@@std@@QAE@XZ ; std::_Vector_iterator<std::_Vector_val<ioHashString,std::allocator<ioHashString> > >::_Vector_iterator<std::_Vector_val<ioHashString,std::allocator<ioHashString> > >
; Function compile flags: /Ogsp
; File c:\program files (x86)\microsoft visual studio 10.0\vc\include\vector
;	COMDAT ??0?$_Vector_iterator@V?$_Vector_val@VioHashString@@V?$allocator@VioHashString@@@std@@@std@@@std@@QAE@XZ
_TEXT	SEGMENT
??0?$_Vector_iterator@V?$_Vector_val@VioHashString@@V?$allocator@VioHashString@@@std@@@std@@@std@@QAE@XZ PROC ; std::_Vector_iterator<std::_Vector_val<ioHashString,std::allocator<ioHashString> > >::_Vector_iterator<std::_Vector_val<ioHashString,std::allocator<ioHashString> > >, COMDAT
; _this$ = ecx

; 298  : 	_Vector_iterator()

  00000	8b c1		 mov	 eax, ecx
  00002	83 20 00	 and	 DWORD PTR [eax], 0

; 299  : 		{	// construct with null vector pointer
; 300  : 		}

  00005	c3		 ret	 0
??0?$_Vector_iterator@V?$_Vector_val@VioHashString@@V?$allocator@VioHashString@@@std@@@std@@@std@@QAE@XZ ENDP ; std::_Vector_iterator<std::_Vector_val<ioHashString,std::allocator<ioHashString> > >::_Vector_iterator<std::_Vector_val<ioHashString,std::allocator<ioHashString> > >
_TEXT	ENDS
PUBLIC	??D?$_Vector_iterator@V?$_Vector_val@VioHashString@@V?$allocator@VioHashString@@@std@@@std@@@std@@QBEAAVioHashString@@XZ ; std::_Vector_iterator<std::_Vector_val<ioHashString,std::allocator<ioHashString> > >::operator*
; Function compile flags: /Ogsp
;	COMDAT ??D?$_Vector_iterator@V?$_Vector_val@VioHashString@@V?$allocator@VioHashString@@@std@@@std@@@std@@QBEAAVioHashString@@XZ
_TEXT	SEGMENT
??D?$_Vector_iterator@V?$_Vector_val@VioHashString@@V?$allocator@VioHashString@@@std@@@std@@@std@@QBEAAVioHashString@@XZ PROC ; std::_Vector_iterator<std::_Vector_val<ioHashString,std::allocator<ioHashString> > >::operator*, COMDAT
; _this$ = ecx

; 322  : 		return ((reference)**(_Mybase *)this);

  00000	8b 01		 mov	 eax, DWORD PTR [ecx]

; 323  : 		}

  00002	c3		 ret	 0
??D?$_Vector_iterator@V?$_Vector_val@VioHashString@@V?$allocator@VioHashString@@@std@@@std@@@std@@QBEAAVioHashString@@XZ ENDP ; std::_Vector_iterator<std::_Vector_val<ioHashString,std::allocator<ioHashString> > >::operator*
_TEXT	ENDS
PUBLIC	??E?$_Vector_iterator@V?$_Vector_val@VioHashString@@V?$allocator@VioHashString@@@std@@@std@@@std@@QAEAAV01@XZ ; std::_Vector_iterator<std::_Vector_val<ioHashString,std::allocator<ioHashString> > >::operator++
; Function compile flags: /Ogsp
;	COMDAT ??E?$_Vector_iterator@V?$_Vector_val@VioHashString@@V?$allocator@VioHashString@@@std@@@std@@@std@@QAEAAV01@XZ
_TEXT	SEGMENT
??E?$_Vector_iterator@V?$_Vector_val@VioHashString@@V?$allocator@VioHashString@@@std@@@std@@@std@@QAEAAV01@XZ PROC ; std::_Vector_iterator<std::_Vector_val<ioHashString,std::allocator<ioHashString> > >::operator++, COMDAT
; _this$ = ecx

; 331  : 		{	// preincrement

  00000	8b c1		 mov	 eax, ecx

; 332  : 		++*(_Mybase *)this;

  00002	83 00 10	 add	 DWORD PTR [eax], 16	; 00000010H

; 333  : 		return (*this);
; 334  : 		}

  00005	c3		 ret	 0
??E?$_Vector_iterator@V?$_Vector_val@VioHashString@@V?$allocator@VioHashString@@@std@@@std@@@std@@QAEAAV01@XZ ENDP ; std::_Vector_iterator<std::_Vector_val<ioHashString,std::allocator<ioHashString> > >::operator++
_TEXT	ENDS
PUBLIC	??1?$_List_val@MV?$allocator@M@std@@@std@@QAE@XZ ; std::_List_val<float,std::allocator<float> >::~_List_val<float,std::allocator<float> >
; Function compile flags: /Ogsp
; File c:\program files (x86)\microsoft visual studio 10.0\vc\include\list
;	COMDAT ??1?$_List_val@MV?$allocator@M@std@@@std@@QAE@XZ
_TEXT	SEGMENT
??1?$_List_val@MV?$allocator@M@std@@@std@@QAE@XZ PROC	; std::_List_val<float,std::allocator<float> >::~_List_val<float,std::allocator<float> >, COMDAT
; _this$ = ecx

; 502  : 		this->_Alnod.deallocate(this->_Myhead, 1);

  00000	ff 31		 push	 DWORD PTR [ecx]
  00002	e8 00 00 00 00	 call	 ??3@YAXPAX@Z		; operator delete
  00007	59		 pop	 ecx

; 503  : 		}

  00008	c3		 ret	 0
??1?$_List_val@MV?$allocator@M@std@@@std@@QAE@XZ ENDP	; std::_List_val<float,std::allocator<float> >::~_List_val<float,std::allocator<float> >
_TEXT	ENDS
PUBLIC	??0?$_List_nod@MV?$allocator@M@std@@@std@@QAE@V?$allocator@M@1@@Z ; std::_List_nod<float,std::allocator<float> >::_List_nod<float,std::allocator<float> >
; Function compile flags: /Ogsp
;	COMDAT ??0?$_List_nod@MV?$allocator@M@std@@@std@@QAE@V?$allocator@M@1@@Z
_TEXT	SEGMENT
__Al$ = 8						; size = 1
??0?$_List_nod@MV?$allocator@M@std@@@std@@QAE@V?$allocator@M@1@@Z PROC ; std::_List_nod<float,std::allocator<float> >::_List_nod<float,std::allocator<float> >, COMDAT
; _this$ = ecx

; 438  : 		{	// construct allocators from _Al

  00000	8b c1		 mov	 eax, ecx

; 439  : 		}

  00002	c2 04 00	 ret	 4
??0?$_List_nod@MV?$allocator@M@std@@@std@@QAE@V?$allocator@M@1@@Z ENDP ; std::_List_nod<float,std::allocator<float> >::_List_nod<float,std::allocator<float> >
_TEXT	ENDS
PUBLIC	?allocate@?$allocator@U_Node@?$_List_nod@MV?$allocator@M@std@@@std@@@std@@QAEPAU_Node@?$_List_nod@MV?$allocator@M@std@@@2@I@Z ; std::allocator<std::_List_nod<float,std::allocator<float> >::_Node>::allocate
; Function compile flags: /Ogsp
; File c:\program files (x86)\microsoft visual studio 10.0\vc\include\xmemory
;	COMDAT ?allocate@?$allocator@U_Node@?$_List_nod@MV?$allocator@M@std@@@std@@@std@@QAEPAU_Node@?$_List_nod@MV?$allocator@M@std@@@2@I@Z
_TEXT	SEGMENT
__Count$ = 8						; size = 4
?allocate@?$allocator@U_Node@?$_List_nod@MV?$allocator@M@std@@@std@@@std@@QAEPAU_Node@?$_List_nod@MV?$allocator@M@std@@@2@I@Z PROC ; std::allocator<std::_List_nod<float,std::allocator<float> >::_Node>::allocate, COMDAT
; _this$ = ecx

; 186  : 		{	// allocate array of _Count elements

  00000	55		 push	 ebp
  00001	8b ec		 mov	 ebp, esp

; 187  : 		return (_Allocate(_Count, (pointer)0));

  00003	6a 00		 push	 0
  00005	ff 75 08	 push	 DWORD PTR __Count$[ebp]
  00008	e8 00 00 00 00	 call	 ??$_Allocate@U_Node@?$_List_nod@MV?$allocator@M@std@@@std@@@std@@YAPAU_Node@?$_List_nod@MV?$allocator@M@std@@@0@IPAU120@@Z ; std::_Allocate<std::_List_nod<float,std::allocator<float> >::_Node>
  0000d	59		 pop	 ecx
  0000e	59		 pop	 ecx

; 188  : 		}

  0000f	5d		 pop	 ebp
  00010	c2 04 00	 ret	 4
?allocate@?$allocator@U_Node@?$_List_nod@MV?$allocator@M@std@@@std@@@std@@QAEPAU_Node@?$_List_nod@MV?$allocator@M@std@@@2@I@Z ENDP ; std::allocator<std::_List_nod<float,std::allocator<float> >::_Node>::allocate
_TEXT	ENDS
PUBLIC	??0?$_Vector_iterator@V?$_Vector_val@UCustomTexture@@V?$allocator@UCustomTexture@@@std@@@std@@@std@@QAE@PAUCustomTexture@@PBU_Container_base0@1@@Z ; std::_Vector_iterator<std::_Vector_val<CustomTexture,std::allocator<CustomTexture> > >::_Vector_iterator<std::_Vector_val<CustomTexture,std::allocator<CustomTexture> > >
; Function compile flags: /Ogsp
; File c:\program files (x86)\microsoft visual studio 10.0\vc\include\vector
;	COMDAT ??0?$_Vector_iterator@V?$_Vector_val@UCustomTexture@@V?$allocator@UCustomTexture@@@std@@@std@@@std@@QAE@PAUCustomTexture@@PBU_Container_base0@1@@Z
_TEXT	SEGMENT
__Parg$ = 8						; size = 4
__Pvector$ = 12						; size = 4
??0?$_Vector_iterator@V?$_Vector_val@UCustomTexture@@V?$allocator@UCustomTexture@@@std@@@std@@@std@@QAE@PAUCustomTexture@@PBU_Container_base0@1@@Z PROC ; std::_Vector_iterator<std::_Vector_val<CustomTexture,std::allocator<CustomTexture> > >::_Vector_iterator<std::_Vector_val<CustomTexture,std::allocator<CustomTexture> > >, COMDAT
; _this$ = ecx

; 304  : 		{	// construct with pointer _Parg

  00000	55		 push	 ebp
  00001	8b ec		 mov	 ebp, esp
  00003	8b c1		 mov	 eax, ecx
  00005	8b 4d 08	 mov	 ecx, DWORD PTR __Parg$[ebp]
  00008	89 08		 mov	 DWORD PTR [eax], ecx

; 305  : 		}

  0000a	5d		 pop	 ebp
  0000b	c2 08 00	 ret	 8
??0?$_Vector_iterator@V?$_Vector_val@UCustomTexture@@V?$allocator@UCustomTexture@@@std@@@std@@@std@@QAE@PAUCustomTexture@@PBU_Container_base0@1@@Z ENDP ; std::_Vector_iterator<std::_Vector_val<CustomTexture,std::allocator<CustomTexture> > >::_Vector_iterator<std::_Vector_val<CustomTexture,std::allocator<CustomTexture> > >
_TEXT	ENDS
PUBLIC	??8?$_Vector_const_iterator@V?$_Vector_val@UCustomTexture@@V?$allocator@UCustomTexture@@@std@@@std@@@std@@QBE_NABV01@@Z ; std::_Vector_const_iterator<std::_Vector_val<CustomTexture,std::allocator<CustomTexture> > >::operator==
; Function compile flags: /Ogsp
;	COMDAT ??8?$_Vector_const_iterator@V?$_Vector_val@UCustomTexture@@V?$allocator@UCustomTexture@@@std@@@std@@@std@@QBE_NABV01@@Z
_TEXT	SEGMENT
__Right$ = 8						; size = 4
??8?$_Vector_const_iterator@V?$_Vector_val@UCustomTexture@@V?$allocator@UCustomTexture@@@std@@@std@@@std@@QBE_NABV01@@Z PROC ; std::_Vector_const_iterator<std::_Vector_val<CustomTexture,std::allocator<CustomTexture> > >::operator==, COMDAT
; _this$ = ecx

; 201  : 		{	// test for iterator equality

  00000	55		 push	 ebp
  00001	8b ec		 mov	 ebp, esp

; 202  : 		_Compat(_Right);
; 203  : 		return (this->_Ptr == _Right._Ptr);

  00003	8b 01		 mov	 eax, DWORD PTR [ecx]
  00005	8b 4d 08	 mov	 ecx, DWORD PTR __Right$[ebp]
  00008	2b 01		 sub	 eax, DWORD PTR [ecx]
  0000a	f7 d8		 neg	 eax
  0000c	1b c0		 sbb	 eax, eax
  0000e	40		 inc	 eax

; 204  : 		}

  0000f	5d		 pop	 ebp
  00010	c2 04 00	 ret	 4
??8?$_Vector_const_iterator@V?$_Vector_val@UCustomTexture@@V?$allocator@UCustomTexture@@@std@@@std@@@std@@QBE_NABV01@@Z ENDP ; std::_Vector_const_iterator<std::_Vector_val<CustomTexture,std::allocator<CustomTexture> > >::operator==
_TEXT	ENDS
PUBLIC	??$GetAnimationEventTimeList_e@$0N@@ioEntityGroup@@QAEHHAAY0N@$$CBDAAV?$list@MV?$allocator@M@std@@@std@@@Z ; ioEntityGroup::GetAnimationEventTimeList_e<13>
EXTRN	__imp_?GetAnimationEventTimeList@ioEntityGroup@@QAEHHABVioHashString@@AAV?$list@MV?$allocator@M@std@@@std@@@Z:PROC
;	COMDAT xdata$x
; File d:\lost saga for developer\youtube\tutorial\source\src\lsclient\stringprotect.h
xdata$x	SEGMENT
__unwindtable$??$GetAnimationEventTimeList_e@$0N@@ioEntityGroup@@QAEHHAAY0N@$$CBDAAV?$list@MV?$allocator@M@std@@@std@@@Z DD 0ffffffffH
	DD	FLAT:__unwindfunclet$??$GetAnimationEventTimeList_e@$0N@@ioEntityGroup@@QAEHHAAY0N@$$CBDAAV?$list@MV?$allocator@M@std@@@std@@@Z$0
__ehfuncinfo$??$GetAnimationEventTimeList_e@$0N@@ioEntityGroup@@QAEHHAAY0N@$$CBDAAV?$list@MV?$allocator@M@std@@@std@@@Z DD 019930522H
	DD	01H
	DD	FLAT:__unwindtable$??$GetAnimationEventTimeList_e@$0N@@ioEntityGroup@@QAEHHAAY0N@$$CBDAAV?$list@MV?$allocator@M@std@@@std@@@Z
	DD	2 DUP(00H)
	DD	2 DUP(00H)
	DD	00H
	DD	01H
; Function compile flags: /Ogsp
; File d:\lost saga for developer\youtube\tutorial\source\src\io3dengine\ioentitygroup.h
xdata$x	ENDS
;	COMDAT ??$GetAnimationEventTimeList_e@$0N@@ioEntityGroup@@QAEHHAAY0N@$$CBDAAV?$list@MV?$allocator@M@std@@@std@@@Z
_TEXT	SEGMENT
$T572022 = -52						; size = 16
_szEncEventType$ = -36					; size = 13
__$EHRec$ = -12						; size = 12
_id$ = 8						; size = 4
_szEventType$ = 12					; size = 4
_vTimeList$ = 16					; size = 4
??$GetAnimationEventTimeList_e@$0N@@ioEntityGroup@@QAEHHAAY0N@$$CBDAAV?$list@MV?$allocator@M@std@@@std@@@Z PROC ; ioEntityGroup::GetAnimationEventTimeList_e<13>, COMDAT
; _this$ = ecx

; 406  : 	{

  00000	6a 28		 push	 40			; 00000028H
  00002	b8 00 00 00 00	 mov	 eax, __ehhandler$??$GetAnimationEventTimeList_e@$0N@@ioEntityGroup@@QAEHHAAY0N@$$CBDAAV?$list@MV?$allocator@M@std@@@std@@@Z
  00007	e8 00 00 00 00	 call	 __EH_prolog3_GS
  0000c	8b 45 0c	 mov	 eax, DWORD PTR _szEventType$[ebp]
  0000f	8b 75 10	 mov	 esi, DWORD PTR _vTimeList$[ebp]
  00012	8b f9		 mov	 edi, ecx

; 407  : 		_ENCSTR(szEventType, szEncEventType);

  00014	8a 08		 mov	 cl, BYTE PTR [eax]
  00016	84 c9		 test	 cl, cl
  00018	0f 84 49 01 00
	00		 je	 $LN96@GetAnimati@2
  0001e	80 f1 ed	 xor	 cl, -19			; ffffffedH
  00021	88 4d dc	 mov	 BYTE PTR _szEncEventType$[ebp], cl
  00024	8a 48 01	 mov	 cl, BYTE PTR [eax+1]
  00027	84 c9		 test	 cl, cl
  00029	0f 84 32 01 00
	00		 je	 $LN95@GetAnimati@2
  0002f	80 f1 ec	 xor	 cl, -20			; ffffffecH
  00032	88 4d dd	 mov	 BYTE PTR _szEncEventType$[ebp+1], cl
  00035	8a 48 02	 mov	 cl, BYTE PTR [eax+2]
  00038	84 c9		 test	 cl, cl
  0003a	0f 84 1b 01 00
	00		 je	 $LN94@GetAnimati@2
  00040	b2 eb		 mov	 dl, -21			; ffffffebH
  00042	32 ca		 xor	 cl, dl
  00044	88 4d de	 mov	 BYTE PTR _szEncEventType$[ebp+2], cl
  00047	8a 48 03	 mov	 cl, BYTE PTR [eax+3]
  0004a	84 c9		 test	 cl, cl
  0004c	0f 84 03 01 00
	00		 je	 $LN93@GetAnimati@2
  00052	80 f1 ea	 xor	 cl, -22			; ffffffeaH
  00055	88 4d df	 mov	 BYTE PTR _szEncEventType$[ebp+3], cl
  00058	8a 48 04	 mov	 cl, BYTE PTR [eax+4]
  0005b	84 c9		 test	 cl, cl
  0005d	0f 84 ec 00 00
	00		 je	 $LN92@GetAnimati@2
  00063	80 f1 ed	 xor	 cl, -19			; ffffffedH
  00066	88 4d e0	 mov	 BYTE PTR _szEncEventType$[ebp+4], cl
  00069	8a 48 05	 mov	 cl, BYTE PTR [eax+5]
  0006c	84 c9		 test	 cl, cl
  0006e	0f 84 d5 00 00
	00		 je	 $LN91@GetAnimati@2
  00074	80 f1 ec	 xor	 cl, -20			; ffffffecH
  00077	88 4d e1	 mov	 BYTE PTR _szEncEventType$[ebp+5], cl
  0007a	8a 48 06	 mov	 cl, BYTE PTR [eax+6]
  0007d	84 c9		 test	 cl, cl
  0007f	0f 84 bf 00 00
	00		 je	 $LN90@GetAnimati@2
  00085	32 ca		 xor	 cl, dl
  00087	88 4d e2	 mov	 BYTE PTR _szEncEventType$[ebp+6], cl
  0008a	8a 48 07	 mov	 cl, BYTE PTR [eax+7]
  0008d	84 c9		 test	 cl, cl
  0008f	0f 84 a9 00 00
	00		 je	 $LN89@GetAnimati@2
  00095	80 f1 ea	 xor	 cl, -22			; ffffffeaH
  00098	88 4d e3	 mov	 BYTE PTR _szEncEventType$[ebp+7], cl
  0009b	8a 48 08	 mov	 cl, BYTE PTR [eax+8]
  0009e	84 c9		 test	 cl, cl
  000a0	0f 84 92 00 00
	00		 je	 $LN88@GetAnimati@2
  000a6	80 f1 ed	 xor	 cl, -19			; ffffffedH
  000a9	88 4d e4	 mov	 BYTE PTR _szEncEventType$[ebp+8], cl
  000ac	8a 48 09	 mov	 cl, BYTE PTR [eax+9]
  000af	84 c9		 test	 cl, cl
  000b1	74 7f		 je	 SHORT $LN87@GetAnimati@2
  000b3	80 f1 ec	 xor	 cl, -20			; ffffffecH
  000b6	88 4d e5	 mov	 BYTE PTR _szEncEventType$[ebp+9], cl
  000b9	8a 48 0a	 mov	 cl, BYTE PTR [eax+10]
  000bc	84 c9		 test	 cl, cl
  000be	74 6d		 je	 SHORT $LN86@GetAnimati@2
  000c0	32 ca		 xor	 cl, dl
  000c2	88 4d e6	 mov	 BYTE PTR _szEncEventType$[ebp+10], cl
  000c5	8a 48 0b	 mov	 cl, BYTE PTR [eax+11]
  000c8	84 c9		 test	 cl, cl
  000ca	74 5b		 je	 SHORT $LN85@GetAnimati@2
  000cc	80 f1 ea	 xor	 cl, -22			; ffffffeaH
  000cf	80 78 0c 00	 cmp	 BYTE PTR [eax+12], 0
  000d3	88 4d e7	 mov	 BYTE PTR _szEncEventType$[ebp+11], cl
  000d6	0f 84 8f 00 00
	00		 je	 $LN1@GetAnimati@2
  000dc	8a 48 0d	 mov	 cl, BYTE PTR [eax+13]
  000df	84 c9		 test	 cl, cl
  000e1	74 3e		 je	 SHORT $LN83@GetAnimati@2
  000e3	80 f1 ec	 xor	 cl, -20			; ffffffecH
  000e6	88 4d e9	 mov	 BYTE PTR _szEncEventType$[ebp+13], cl
  000e9	8a 48 0e	 mov	 cl, BYTE PTR [eax+14]
  000ec	84 c9		 test	 cl, cl
  000ee	74 2c		 je	 SHORT $LN82@GetAnimati@2
  000f0	32 ca		 xor	 cl, dl
  000f2	88 4d ea	 mov	 BYTE PTR _szEncEventType$[ebp+14], cl
  000f5	8a 48 0f	 mov	 cl, BYTE PTR [eax+15]
  000f8	84 c9		 test	 cl, cl
  000fa	74 1a		 je	 SHORT $LN81@GetAnimati@2
  000fc	8a 40 10	 mov	 al, BYTE PTR [eax+16]
  000ff	80 f1 ea	 xor	 cl, -22			; ffffffeaH
  00102	88 4d eb	 mov	 BYTE PTR _szEncEventType$[ebp+15], cl
  00105	84 c0		 test	 al, al
  00107	74 07		 je	 SHORT $LN80@GetAnimati@2
  00109	34 ed		 xor	 al, -19			; ffffffedH
  0010b	88 45 ec	 mov	 BYTE PTR _szEncEventType$[ebp+16], al
  0010e	eb 5b		 jmp	 SHORT $LN1@GetAnimati@2
$LN80@GetAnimati@2:
  00110	c6 45 ec ed	 mov	 BYTE PTR _szEncEventType$[ebp+16], -19 ; ffffffedH
  00114	eb 55		 jmp	 SHORT $LN1@GetAnimati@2
$LN81@GetAnimati@2:
  00116	c6 45 eb ea	 mov	 BYTE PTR _szEncEventType$[ebp+15], -22 ; ffffffeaH
  0011a	eb 4f		 jmp	 SHORT $LN1@GetAnimati@2
$LN82@GetAnimati@2:
  0011c	88 55 ea	 mov	 BYTE PTR _szEncEventType$[ebp+14], dl
  0011f	eb 4a		 jmp	 SHORT $LN1@GetAnimati@2
$LN83@GetAnimati@2:
  00121	c6 45 e9 ec	 mov	 BYTE PTR _szEncEventType$[ebp+13], -20 ; ffffffecH
  00125	eb 44		 jmp	 SHORT $LN1@GetAnimati@2
$LN85@GetAnimati@2:
  00127	c6 45 e7 ea	 mov	 BYTE PTR _szEncEventType$[ebp+11], -22 ; ffffffeaH
  0012b	eb 3e		 jmp	 SHORT $LN1@GetAnimati@2
$LN86@GetAnimati@2:
  0012d	88 55 e6	 mov	 BYTE PTR _szEncEventType$[ebp+10], dl
  00130	eb 39		 jmp	 SHORT $LN1@GetAnimati@2
$LN87@GetAnimati@2:
  00132	c6 45 e5 ec	 mov	 BYTE PTR _szEncEventType$[ebp+9], -20 ; ffffffecH
  00136	eb 33		 jmp	 SHORT $LN1@GetAnimati@2
$LN88@GetAnimati@2:
  00138	c6 45 e4 ed	 mov	 BYTE PTR _szEncEventType$[ebp+8], -19 ; ffffffedH
  0013c	eb 2d		 jmp	 SHORT $LN1@GetAnimati@2
$LN89@GetAnimati@2:
  0013e	c6 45 e3 ea	 mov	 BYTE PTR _szEncEventType$[ebp+7], -22 ; ffffffeaH
  00142	eb 27		 jmp	 SHORT $LN1@GetAnimati@2
$LN90@GetAnimati@2:
  00144	88 55 e2	 mov	 BYTE PTR _szEncEventType$[ebp+6], dl
  00147	eb 22		 jmp	 SHORT $LN1@GetAnimati@2
$LN91@GetAnimati@2:
  00149	c6 45 e1 ec	 mov	 BYTE PTR _szEncEventType$[ebp+5], -20 ; ffffffecH
  0014d	eb 1c		 jmp	 SHORT $LN1@GetAnimati@2
$LN92@GetAnimati@2:
  0014f	c6 45 e0 ed	 mov	 BYTE PTR _szEncEventType$[ebp+4], -19 ; ffffffedH
  00153	eb 16		 jmp	 SHORT $LN1@GetAnimati@2
$LN93@GetAnimati@2:
  00155	c6 45 df ea	 mov	 BYTE PTR _szEncEventType$[ebp+3], -22 ; ffffffeaH
  00159	eb 10		 jmp	 SHORT $LN1@GetAnimati@2
$LN94@GetAnimati@2:
  0015b	c6 45 de eb	 mov	 BYTE PTR _szEncEventType$[ebp+2], -21 ; ffffffebH
  0015f	eb 0a		 jmp	 SHORT $LN1@GetAnimati@2
$LN95@GetAnimati@2:
  00161	c6 45 dd ec	 mov	 BYTE PTR _szEncEventType$[ebp+1], -20 ; ffffffecH
  00165	eb 04		 jmp	 SHORT $LN1@GetAnimati@2
$LN96@GetAnimati@2:
  00167	c6 45 dc ed	 mov	 BYTE PTR _szEncEventType$[ebp], -19 ; ffffffedH
$LN1@GetAnimati@2:
  0016b	6a 03		 push	 3
  0016d	8d 45 dc	 lea	 eax, DWORD PTR _szEncEventType$[ebp]
  00170	c6 45 e8 00	 mov	 BYTE PTR _szEncEventType$[ebp+12], 0
  00174	59		 pop	 ecx
$LL105@GetAnimati@2:
  00175	81 30 ed ec eb
	ea		 xor	 DWORD PTR [eax], -353637139 ; eaebecedH
  0017b	83 c0 04	 add	 eax, 4
  0017e	49		 dec	 ecx
  0017f	75 f4		 jne	 SHORT $LL105@GetAnimati@2

; 408  : 		return GetAnimationEventTimeList(id, szEncEventType, vTimeList);

  00181	8d 45 dc	 lea	 eax, DWORD PTR _szEncEventType$[ebp]
  00184	50		 push	 eax
  00185	8d 4d cc	 lea	 ecx, DWORD PTR $T572022[ebp]
  00188	ff 15 00 00 00
	00		 call	 DWORD PTR __imp_??0ioHashString@@QAE@PBD@Z
  0018e	83 65 fc 00	 and	 DWORD PTR __$EHRec$[ebp+8], 0
  00192	56		 push	 esi
  00193	8d 45 cc	 lea	 eax, DWORD PTR $T572022[ebp]
  00196	50		 push	 eax
  00197	ff 75 08	 push	 DWORD PTR _id$[ebp]
  0019a	8b cf		 mov	 ecx, edi
  0019c	ff 15 00 00 00
	00		 call	 DWORD PTR __imp_?GetAnimationEventTimeList@ioEntityGroup@@QAEHHABVioHashString@@AAV?$list@MV?$allocator@M@std@@@std@@@Z
  001a2	83 4d fc ff	 or	 DWORD PTR __$EHRec$[ebp+8], -1
  001a6	8d 4d cc	 lea	 ecx, DWORD PTR $T572022[ebp]
  001a9	8b f0		 mov	 esi, eax
  001ab	ff 15 00 00 00
	00		 call	 DWORD PTR __imp_??1ioHashString@@QAE@XZ
  001b1	8b c6		 mov	 eax, esi

; 409  : 	}

  001b3	e8 00 00 00 00	 call	 __EH_epilog3_GS
  001b8	c2 0c 00	 ret	 12			; 0000000cH
_TEXT	ENDS
;	COMDAT text$x
text$x	SEGMENT
__unwindfunclet$??$GetAnimationEventTimeList_e@$0N@@ioEntityGroup@@QAEHHAAY0N@$$CBDAAV?$list@MV?$allocator@M@std@@@std@@@Z$0:
  00000	8d 4d cc	 lea	 ecx, DWORD PTR $T572022[ebp]
  00003	ff 25 00 00 00
	00		 jmp	 DWORD PTR __imp_??1ioHashString@@QAE@XZ
__ehhandler$??$GetAnimationEventTimeList_e@$0N@@ioEntityGroup@@QAEHHAAY0N@$$CBDAAV?$list@MV?$allocator@M@std@@@std@@@Z:
  00009	8b 54 24 08	 mov	 edx, DWORD PTR [esp+8]
  0000d	8d 42 0c	 lea	 eax, DWORD PTR [edx+12]
  00010	8b 4a c8	 mov	 ecx, DWORD PTR [edx-56]
  00013	33 c8		 xor	 ecx, eax
  00015	e8 00 00 00 00	 call	 @__security_check_cookie@4
  0001a	8b 4a fc	 mov	 ecx, DWORD PTR [edx-4]
  0001d	33 c8		 xor	 ecx, eax
  0001f	e8 00 00 00 00	 call	 @__security_check_cookie@4
  00024	b8 00 00 00 00	 mov	 eax, OFFSET __ehfuncinfo$??$GetAnimationEventTimeList_e@$0N@@ioEntityGroup@@QAEHHAAY0N@$$CBDAAV?$list@MV?$allocator@M@std@@@std@@@Z
  00029	e9 00 00 00 00	 jmp	 ___CxxFrameHandler3
text$x	ENDS
??$GetAnimationEventTimeList_e@$0N@@ioEntityGroup@@QAEHHAAY0N@$$CBDAAV?$list@MV?$allocator@M@std@@@std@@@Z ENDP ; ioEntityGroup::GetAnimationEventTimeList_e<13>
PUBLIC	__real@3fd2ee0d320154cb
PUBLIC	__real@41f0000000000000
PUBLIC	??$RADtoDEG@M@@YAMM@Z				; RADtoDEG<float>
;	COMDAT __real@3fd2ee0d320154cb
; File d:\lost saga for developer\youtube\tutorial\source\src\lsclient\veryoftenusedefine.h
CONST	SEGMENT
__real@3fd2ee0d320154cb DQ 03fd2ee0d320154cbr	; 0.29578
CONST	ENDS
;	COMDAT __real@41f0000000000000
CONST	SEGMENT
__real@41f0000000000000 DQ 041f0000000000000r	; 4.29497e+009
; Function compile flags: /Ogsp
CONST	ENDS
;	COMDAT ??$RADtoDEG@M@@YAMM@Z
_TEXT	SEGMENT
tv130 = -4						; size = 4
tv75 = 8						; size = 4
_val$ = 8						; size = 4
??$RADtoDEG@M@@YAMM@Z PROC				; RADtoDEG<float>, COMDAT

; 18   : type  RADtoDEG (type val) {return (type) (val * (return57() + 0.2957795132)); }

  00000	55		 push	 ebp
  00001	8b ec		 mov	 ebp, esp
  00003	51		 push	 ecx
  00004	b8 39 00 00 00	 mov	 eax, 57			; 00000039H
  00009	89 45 fc	 mov	 DWORD PTR tv130[ebp], eax
  0000c	db 45 fc	 fild	 DWORD PTR tv130[ebp]
  0000f	85 c0		 test	 eax, eax
  00011	79 06		 jns	 SHORT $LN5@RADtoDEG
  00013	dc 05 00 00 00
	00		 fadd	 QWORD PTR __real@41f0000000000000
$LN5@RADtoDEG:
  00019	dc 05 00 00 00
	00		 fadd	 QWORD PTR __real@3fd2ee0d320154cb
  0001f	d8 4d 08	 fmul	 DWORD PTR _val$[ebp]
  00022	d9 5d 08	 fstp	 DWORD PTR tv75[ebp]
  00025	d9 45 08	 fld	 DWORD PTR tv75[ebp]
  00028	c9		 leave
  00029	c3		 ret	 0
??$RADtoDEG@M@@YAMM@Z ENDP				; RADtoDEG<float>
_TEXT	ENDS
PUBLIC	?destroy@?$allocator@U_Node@?$_List_nod@MV?$allocator@M@std@@@std@@@std@@QAEXPAU_Node@?$_List_nod@MV?$allocator@M@std@@@2@@Z ; std::allocator<std::_List_nod<float,std::allocator<float> >::_Node>::destroy
; Function compile flags: /Ogsp
; File c:\program files (x86)\microsoft visual studio 10.0\vc\include\xmemory
;	COMDAT ?destroy@?$allocator@U_Node@?$_List_nod@MV?$allocator@M@std@@@std@@@std@@QAEXPAU_Node@?$_List_nod@MV?$allocator@M@std@@@2@@Z
_TEXT	SEGMENT
__Ptr$ = 8						; size = 4
?destroy@?$allocator@U_Node@?$_List_nod@MV?$allocator@M@std@@@std@@@std@@QAEXPAU_Node@?$_List_nod@MV?$allocator@M@std@@@2@@Z PROC ; std::allocator<std::_List_nod<float,std::allocator<float> >::_Node>::destroy, COMDAT
; _this$ = ecx

; 213  : 		_Destroy(_Ptr);
; 214  : 		}

  00000	c2 04 00	 ret	 4
?destroy@?$allocator@U_Node@?$_List_nod@MV?$allocator@M@std@@@std@@@std@@QAEXPAU_Node@?$_List_nod@MV?$allocator@M@std@@@2@@Z ENDP ; std::allocator<std::_List_nod<float,std::allocator<float> >::_Node>::destroy
_TEXT	ENDS
PUBLIC	??$construct@AAVioHashString@@@?$allocator@VioHashString@@@std@@QAEXPAVioHashString@@AAV2@@Z ; std::allocator<ioHashString>::construct<ioHashString &>
;	COMDAT xdata$x
; File c:\program files (x86)\microsoft visual studio 10.0\vc\include\utility
xdata$x	SEGMENT
__unwindtable$??$construct@AAVioHashString@@@?$allocator@VioHashString@@@std@@QAEXPAVioHashString@@AAV2@@Z DD 0ffffffffH
	DD	FLAT:__unwindfunclet$??$construct@AAVioHashString@@@?$allocator@VioHashString@@@std@@QAEXPAVioHashString@@AAV2@@Z$0
__ehfuncinfo$??$construct@AAVioHashString@@@?$allocator@VioHashString@@@std@@QAEXPAVioHashString@@AAV2@@Z DD 019930522H
	DD	01H
	DD	FLAT:__unwindtable$??$construct@AAVioHashString@@@?$allocator@VioHashString@@@std@@QAEXPAVioHashString@@AAV2@@Z
	DD	2 DUP(00H)
	DD	2 DUP(00H)
	DD	00H
	DD	01H
; Function compile flags: /Ogsp
; File c:\program files (x86)\microsoft visual studio 10.0\vc\include\xmemory
xdata$x	ENDS
;	COMDAT ??$construct@AAVioHashString@@@?$allocator@VioHashString@@@std@@QAEXPAVioHashString@@AAV2@@Z
_TEXT	SEGMENT
$T572069 = -16						; size = 4
__$EHRec$ = -12						; size = 12
__Ptr$ = 8						; size = 4
__Val$ = 12						; size = 4
??$construct@AAVioHashString@@@?$allocator@VioHashString@@@std@@QAEXPAVioHashString@@AAV2@@Z PROC ; std::allocator<ioHashString>::construct<ioHashString &>, COMDAT
; _this$ = ecx

; 206  : 		void construct(pointer _Ptr, _Other&& _Val)

  00000	6a 04		 push	 4
  00002	b8 00 00 00 00	 mov	 eax, __ehhandler$??$construct@AAVioHashString@@@?$allocator@VioHashString@@@std@@QAEXPAVioHashString@@AAV2@@Z
  00007	e8 00 00 00 00	 call	 __EH_prolog3

; 207  : 		{	// construct object at _Ptr with value _Val
; 208  : 		::new ((void _FARQ *)_Ptr) _Ty(_STD forward<_Other>(_Val));

  0000c	8b 4d 08	 mov	 ecx, DWORD PTR __Ptr$[ebp]
  0000f	89 4d f0	 mov	 DWORD PTR $T572069[ebp], ecx
  00012	83 65 fc 00	 and	 DWORD PTR __$EHRec$[ebp+8], 0
  00016	85 c9		 test	 ecx, ecx
  00018	74 09		 je	 SHORT $LN3@construct
  0001a	ff 75 0c	 push	 DWORD PTR __Val$[ebp]
  0001d	ff 15 00 00 00
	00		 call	 DWORD PTR __imp_??0ioHashString@@QAE@ABV0@@Z
$LN3@construct:

; 209  : 		}

  00023	e8 00 00 00 00	 call	 __EH_epilog3
  00028	c2 08 00	 ret	 8
_TEXT	ENDS
;	COMDAT text$x
text$x	SEGMENT
__unwindfunclet$??$construct@AAVioHashString@@@?$allocator@VioHashString@@@std@@QAEXPAVioHashString@@AAV2@@Z$0:
  00000	ff 75 08	 push	 DWORD PTR __Ptr$[ebp]
  00003	ff 75 f0	 push	 DWORD PTR $T572069[ebp]
  00006	e8 00 00 00 00	 call	 ??3@YAXPAX0@Z		; operator delete
  0000b	59		 pop	 ecx
  0000c	59		 pop	 ecx
  0000d	c3		 ret	 0
__ehhandler$??$construct@AAVioHashString@@@?$allocator@VioHashString@@@std@@QAEXPAVioHashString@@AAV2@@Z:
  0000e	8b 54 24 08	 mov	 edx, DWORD PTR [esp+8]
  00012	8d 42 0c	 lea	 eax, DWORD PTR [edx+12]
  00015	8b 4a ec	 mov	 ecx, DWORD PTR [edx-20]
  00018	33 c8		 xor	 ecx, eax
  0001a	e8 00 00 00 00	 call	 @__security_check_cookie@4
  0001f	b8 00 00 00 00	 mov	 eax, OFFSET __ehfuncinfo$??$construct@AAVioHashString@@@?$allocator@VioHashString@@@std@@QAEXPAVioHashString@@AAV2@@Z
  00024	e9 00 00 00 00	 jmp	 ___CxxFrameHandler3
text$x	ENDS
??$construct@AAVioHashString@@@?$allocator@VioHashString@@@std@@QAEXPAVioHashString@@AAV2@@Z ENDP ; std::allocator<ioHashString>::construct<ioHashString &>
PUBLIC	??$_Move@PAUCustomTexture@@PAU1@@std@@YAPAUCustomTexture@@PAU1@00U_Nonscalar_ptr_iterator_tag@0@@Z ; std::_Move<CustomTexture *,CustomTexture *>
; Function compile flags: /Ogsp
; File c:\program files (x86)\microsoft visual studio 10.0\vc\include\xutility
;	COMDAT ??$_Move@PAUCustomTexture@@PAU1@@std@@YAPAUCustomTexture@@PAU1@00U_Nonscalar_ptr_iterator_tag@0@@Z
_TEXT	SEGMENT
__First$ = 8						; size = 4
__Last$ = 12						; size = 4
__Dest$ = 16						; size = 4
___formal$ = 20						; size = 1
??$_Move@PAUCustomTexture@@PAU1@@std@@YAPAUCustomTexture@@PAU1@00U_Nonscalar_ptr_iterator_tag@0@@Z PROC ; std::_Move<CustomTexture *,CustomTexture *>, COMDAT

; 2512 : 	{	// move [_First, _Last) to [_Dest, ...), arbitrary iterators

  00000	55		 push	 ebp
  00001	8b ec		 mov	 ebp, esp
  00003	56		 push	 esi

; 2513 : 	for (; _First != _Last; ++_Dest, ++_First)

  00004	8b 75 08	 mov	 esi, DWORD PTR __First$[ebp]
  00007	57		 push	 edi
  00008	8b 7d 10	 mov	 edi, DWORD PTR __Dest$[ebp]
$LN13@Move:
  0000b	3b 75 0c	 cmp	 esi, DWORD PTR __Last$[ebp]
  0000e	74 19		 je	 SHORT $LN1@Move

; 2514 : 		*_Dest = _STD move(*_First);

  00010	8b 06		 mov	 eax, DWORD PTR [esi]
  00012	89 07		 mov	 DWORD PTR [edi], eax
  00014	8d 46 04	 lea	 eax, DWORD PTR [esi+4]
  00017	50		 push	 eax
  00018	8d 4f 04	 lea	 ecx, DWORD PTR [edi+4]
  0001b	ff 15 00 00 00
	00		 call	 DWORD PTR __imp_??4ioHashString@@QAEAAV0@ABV0@@Z
  00021	83 c7 14	 add	 edi, 20			; 00000014H
  00024	83 c6 14	 add	 esi, 20			; 00000014H
  00027	eb e2		 jmp	 SHORT $LN13@Move
$LN1@Move:

; 2515 : 	return (_Dest);

  00029	8b c7		 mov	 eax, edi
  0002b	5f		 pop	 edi
  0002c	5e		 pop	 esi

; 2516 : 	}

  0002d	5d		 pop	 ebp
  0002e	c3		 ret	 0
??$_Move@PAUCustomTexture@@PAU1@@std@@YAPAUCustomTexture@@PAU1@00U_Nonscalar_ptr_iterator_tag@0@@Z ENDP ; std::_Move<CustomTexture *,CustomTexture *>
_TEXT	ENDS
PUBLIC	?construct@?$allocator@VioHashString@@@std@@QAEXPAVioHashString@@$$QAV3@@Z ; std::allocator<ioHashString>::construct
;	COMDAT xdata$x
; File c:\program files (x86)\microsoft visual studio 10.0\vc\include\utility
xdata$x	SEGMENT
__unwindtable$?construct@?$allocator@VioHashString@@@std@@QAEXPAVioHashString@@$$QAV3@@Z DD 0ffffffffH
	DD	FLAT:__unwindfunclet$?construct@?$allocator@VioHashString@@@std@@QAEXPAVioHashString@@$$QAV3@@Z$0
__ehfuncinfo$?construct@?$allocator@VioHashString@@@std@@QAEXPAVioHashString@@$$QAV3@@Z DD 019930522H
	DD	01H
	DD	FLAT:__unwindtable$?construct@?$allocator@VioHashString@@@std@@QAEXPAVioHashString@@$$QAV3@@Z
	DD	2 DUP(00H)
	DD	2 DUP(00H)
	DD	00H
	DD	01H
; Function compile flags: /Ogsp
; File c:\program files (x86)\microsoft visual studio 10.0\vc\include\xmemory
xdata$x	ENDS
;	COMDAT ?construct@?$allocator@VioHashString@@@std@@QAEXPAVioHashString@@$$QAV3@@Z
_TEXT	SEGMENT
$T572100 = -16						; size = 4
__$EHRec$ = -12						; size = 12
__Ptr$ = 8						; size = 4
__Val$ = 12						; size = 4
?construct@?$allocator@VioHashString@@@std@@QAEXPAVioHashString@@$$QAV3@@Z PROC ; std::allocator<ioHashString>::construct, COMDAT
; _this$ = ecx

; 201  : 		{	// construct object at _Ptr with value _Val

  00000	6a 04		 push	 4
  00002	b8 00 00 00 00	 mov	 eax, __ehhandler$?construct@?$allocator@VioHashString@@@std@@QAEXPAVioHashString@@$$QAV3@@Z
  00007	e8 00 00 00 00	 call	 __EH_prolog3

; 202  : 		::new ((void _FARQ *)_Ptr) _Ty(_STD forward<_Ty>(_Val));

  0000c	8b 4d 08	 mov	 ecx, DWORD PTR __Ptr$[ebp]
  0000f	89 4d f0	 mov	 DWORD PTR $T572100[ebp], ecx
  00012	83 65 fc 00	 and	 DWORD PTR __$EHRec$[ebp+8], 0
  00016	85 c9		 test	 ecx, ecx
  00018	74 09		 je	 SHORT $LN3@construct@2
  0001a	ff 75 0c	 push	 DWORD PTR __Val$[ebp]
  0001d	ff 15 00 00 00
	00		 call	 DWORD PTR __imp_??0ioHashString@@QAE@ABV0@@Z
$LN3@construct@2:

; 203  : 		}

  00023	e8 00 00 00 00	 call	 __EH_epilog3
  00028	c2 08 00	 ret	 8
_TEXT	ENDS
;	COMDAT text$x
text$x	SEGMENT
__unwindfunclet$?construct@?$allocator@VioHashString@@@std@@QAEXPAVioHashString@@$$QAV3@@Z$0:
  00000	ff 75 08	 push	 DWORD PTR __Ptr$[ebp]
  00003	ff 75 f0	 push	 DWORD PTR $T572100[ebp]
  00006	e8 00 00 00 00	 call	 ??3@YAXPAX0@Z		; operator delete
  0000b	59		 pop	 ecx
  0000c	59		 pop	 ecx
  0000d	c3		 ret	 0
__ehhandler$?construct@?$allocator@VioHashString@@@std@@QAEXPAVioHashString@@$$QAV3@@Z:
  0000e	8b 54 24 08	 mov	 edx, DWORD PTR [esp+8]
  00012	8d 42 0c	 lea	 eax, DWORD PTR [edx+12]
  00015	8b 4a ec	 mov	 ecx, DWORD PTR [edx-20]
  00018	33 c8		 xor	 ecx, eax
  0001a	e8 00 00 00 00	 call	 @__security_check_cookie@4
  0001f	b8 00 00 00 00	 mov	 eax, OFFSET __ehfuncinfo$?construct@?$allocator@VioHashString@@@std@@QAEXPAVioHashString@@$$QAV3@@Z
  00024	e9 00 00 00 00	 jmp	 ___CxxFrameHandler3
text$x	ENDS
?construct@?$allocator@VioHashString@@@std@@QAEXPAVioHashString@@$$QAV3@@Z ENDP ; std::allocator<ioHashString>::construct
PUBLIC	?begin@?$vector@VioHashString@@V?$allocator@VioHashString@@@std@@@std@@QAE?AV?$_Vector_iterator@V?$_Vector_val@VioHashString@@V?$allocator@VioHashString@@@std@@@std@@@2@XZ ; std::vector<ioHashString,std::allocator<ioHashString> >::begin
; Function compile flags: /Ogsp
; File c:\program files (x86)\microsoft visual studio 10.0\vc\include\vector
;	COMDAT ?begin@?$vector@VioHashString@@V?$allocator@VioHashString@@@std@@@std@@QAE?AV?$_Vector_iterator@V?$_Vector_val@VioHashString@@V?$allocator@VioHashString@@@std@@@std@@@2@XZ
_TEXT	SEGMENT
___$ReturnUdt$ = 8					; size = 4
?begin@?$vector@VioHashString@@V?$allocator@VioHashString@@@std@@@std@@QAE?AV?$_Vector_iterator@V?$_Vector_val@VioHashString@@V?$allocator@VioHashString@@@std@@@std@@@2@XZ PROC ; std::vector<ioHashString,std::allocator<ioHashString> >::begin, COMDAT
; _this$ = ecx

; 781  : 		{	// return iterator for beginning of mutable sequence

  00000	55		 push	 ebp
  00001	8b ec		 mov	 ebp, esp

; 782  : 		return (iterator(this->_Myfirst, this));

  00003	8b 09		 mov	 ecx, DWORD PTR [ecx]
  00005	8b 45 08	 mov	 eax, DWORD PTR ___$ReturnUdt$[ebp]
  00008	89 08		 mov	 DWORD PTR [eax], ecx

; 783  : 		}

  0000a	5d		 pop	 ebp
  0000b	c2 04 00	 ret	 4
?begin@?$vector@VioHashString@@V?$allocator@VioHashString@@@std@@@std@@QAE?AV?$_Vector_iterator@V?$_Vector_val@VioHashString@@V?$allocator@VioHashString@@@std@@@std@@@2@XZ ENDP ; std::vector<ioHashString,std::allocator<ioHashString> >::begin
_TEXT	ENDS
PUBLIC	?end@?$vector@VioHashString@@V?$allocator@VioHashString@@@std@@@std@@QAE?AV?$_Vector_iterator@V?$_Vector_val@VioHashString@@V?$allocator@VioHashString@@@std@@@std@@@2@XZ ; std::vector<ioHashString,std::allocator<ioHashString> >::end
; Function compile flags: /Ogsp
;	COMDAT ?end@?$vector@VioHashString@@V?$allocator@VioHashString@@@std@@@std@@QAE?AV?$_Vector_iterator@V?$_Vector_val@VioHashString@@V?$allocator@VioHashString@@@std@@@std@@@2@XZ
_TEXT	SEGMENT
___$ReturnUdt$ = 8					; size = 4
?end@?$vector@VioHashString@@V?$allocator@VioHashString@@@std@@@std@@QAE?AV?$_Vector_iterator@V?$_Vector_val@VioHashString@@V?$allocator@VioHashString@@@std@@@std@@@2@XZ PROC ; std::vector<ioHashString,std::allocator<ioHashString> >::end, COMDAT
; _this$ = ecx

; 791  : 		{	// return iterator for end of mutable sequence

  00000	55		 push	 ebp
  00001	8b ec		 mov	 ebp, esp

; 792  : 		return (iterator(this->_Mylast, this));

  00003	8b 49 04	 mov	 ecx, DWORD PTR [ecx+4]
  00006	8b 45 08	 mov	 eax, DWORD PTR ___$ReturnUdt$[ebp]
  00009	89 08		 mov	 DWORD PTR [eax], ecx

; 793  : 		}

  0000b	5d		 pop	 ebp
  0000c	c2 04 00	 ret	 4
?end@?$vector@VioHashString@@V?$allocator@VioHashString@@@std@@@std@@QAE?AV?$_Vector_iterator@V?$_Vector_val@VioHashString@@V?$allocator@VioHashString@@@std@@@std@@@2@XZ ENDP ; std::vector<ioHashString,std::allocator<ioHashString> >::end
_TEXT	ENDS
PUBLIC	??0?$_Vector_val@VioHashString@@V?$allocator@VioHashString@@@std@@@std@@QAE@V?$allocator@VioHashString@@@1@@Z ; std::_Vector_val<ioHashString,std::allocator<ioHashString> >::_Vector_val<ioHashString,std::allocator<ioHashString> >
; Function compile flags: /Ogsp
;	COMDAT ??0?$_Vector_val@VioHashString@@V?$allocator@VioHashString@@@std@@@std@@QAE@V?$allocator@VioHashString@@@1@@Z
_TEXT	SEGMENT
__Al$ = 8						; size = 1
??0?$_Vector_val@VioHashString@@V?$allocator@VioHashString@@@std@@@std@@QAE@V?$allocator@VioHashString@@@1@@Z PROC ; std::_Vector_val<ioHashString,std::allocator<ioHashString> >::_Vector_val<ioHashString,std::allocator<ioHashString> >, COMDAT
; _this$ = ecx

; 426  : 		{	// construct allocator from _Al

  00000	8b c1		 mov	 eax, ecx

; 427  : 		_Myfirst = 0;

  00002	33 c9		 xor	 ecx, ecx
  00004	89 08		 mov	 DWORD PTR [eax], ecx

; 428  : 		_Mylast = 0;

  00006	89 48 04	 mov	 DWORD PTR [eax+4], ecx

; 429  : 		_Myend = 0;

  00009	89 48 08	 mov	 DWORD PTR [eax+8], ecx

; 430  : 		}

  0000c	c2 04 00	 ret	 4
??0?$_Vector_val@VioHashString@@V?$allocator@VioHashString@@@std@@@std@@QAE@V?$allocator@VioHashString@@@1@@Z ENDP ; std::_Vector_val<ioHashString,std::allocator<ioHashString> >::_Vector_val<ioHashString,std::allocator<ioHashString> >
_TEXT	ENDS
PUBLIC	??0?$_Vector_val@UCustomTexture@@V?$allocator@UCustomTexture@@@std@@@std@@QAE@V?$allocator@UCustomTexture@@@1@@Z ; std::_Vector_val<CustomTexture,std::allocator<CustomTexture> >::_Vector_val<CustomTexture,std::allocator<CustomTexture> >
; Function compile flags: /Ogsp
;	COMDAT ??0?$_Vector_val@UCustomTexture@@V?$allocator@UCustomTexture@@@std@@@std@@QAE@V?$allocator@UCustomTexture@@@1@@Z
_TEXT	SEGMENT
__Al$ = 8						; size = 1
??0?$_Vector_val@UCustomTexture@@V?$allocator@UCustomTexture@@@std@@@std@@QAE@V?$allocator@UCustomTexture@@@1@@Z PROC ; std::_Vector_val<CustomTexture,std::allocator<CustomTexture> >::_Vector_val<CustomTexture,std::allocator<CustomTexture> >, COMDAT
; _this$ = ecx

; 426  : 		{	// construct allocator from _Al

  00000	8b c1		 mov	 eax, ecx

; 427  : 		_Myfirst = 0;

  00002	33 c9		 xor	 ecx, ecx
  00004	89 08		 mov	 DWORD PTR [eax], ecx

; 428  : 		_Mylast = 0;

  00006	89 48 04	 mov	 DWORD PTR [eax+4], ecx

; 429  : 		_Myend = 0;

  00009	89 48 08	 mov	 DWORD PTR [eax+8], ecx

; 430  : 		}

  0000c	c2 04 00	 ret	 4
??0?$_Vector_val@UCustomTexture@@V?$allocator@UCustomTexture@@@std@@@std@@QAE@V?$allocator@UCustomTexture@@@1@@Z ENDP ; std::_Vector_val<CustomTexture,std::allocator<CustomTexture> >::_Vector_val<CustomTexture,std::allocator<CustomTexture> >
_TEXT	ENDS
PUBLIC	?max_size@?$vector@VioHashString@@V?$allocator@VioHashString@@@std@@@std@@QBEIXZ ; std::vector<ioHashString,std::allocator<ioHashString> >::max_size
; Function compile flags: /Ogsp
;	COMDAT ?max_size@?$vector@VioHashString@@V?$allocator@VioHashString@@@std@@@std@@QBEIXZ
_TEXT	SEGMENT
?max_size@?$vector@VioHashString@@V?$allocator@VioHashString@@@std@@@std@@QBEIXZ PROC ; std::vector<ioHashString,std::allocator<ioHashString> >::max_size, COMDAT
; _this$ = ecx

; 884  : 		return (this->_Alval.max_size());

  00000	b8 ff ff ff 0f	 mov	 eax, 268435455		; 0fffffffH

; 885  : 		}

  00005	c3		 ret	 0
?max_size@?$vector@VioHashString@@V?$allocator@VioHashString@@@std@@@std@@QBEIXZ ENDP ; std::vector<ioHashString,std::allocator<ioHashString> >::max_size
_TEXT	ENDS
PUBLIC	?allocate@?$allocator@VioHashString@@@std@@QAEPAVioHashString@@I@Z ; std::allocator<ioHashString>::allocate
; Function compile flags: /Ogsp
; File c:\program files (x86)\microsoft visual studio 10.0\vc\include\xmemory
;	COMDAT ?allocate@?$allocator@VioHashString@@@std@@QAEPAVioHashString@@I@Z
_TEXT	SEGMENT
__Count$ = 8						; size = 4
?allocate@?$allocator@VioHashString@@@std@@QAEPAVioHashString@@I@Z PROC ; std::allocator<ioHashString>::allocate, COMDAT
; _this$ = ecx

; 186  : 		{	// allocate array of _Count elements

  00000	55		 push	 ebp
  00001	8b ec		 mov	 ebp, esp

; 187  : 		return (_Allocate(_Count, (pointer)0));

  00003	6a 00		 push	 0
  00005	ff 75 08	 push	 DWORD PTR __Count$[ebp]
  00008	e8 00 00 00 00	 call	 ??$_Allocate@VioHashString@@@std@@YAPAVioHashString@@IPAV1@@Z ; std::_Allocate<ioHashString>
  0000d	59		 pop	 ecx
  0000e	59		 pop	 ecx

; 188  : 		}

  0000f	5d		 pop	 ebp
  00010	c2 04 00	 ret	 4
?allocate@?$allocator@VioHashString@@@std@@QAEPAVioHashString@@I@Z ENDP ; std::allocator<ioHashString>::allocate
_TEXT	ENDS
PUBLIC	??8?$_Vector_const_iterator@V?$_Vector_val@VioHashString@@V?$allocator@VioHashString@@@std@@@std@@@std@@QBE_NABV01@@Z ; std::_Vector_const_iterator<std::_Vector_val<ioHashString,std::allocator<ioHashString> > >::operator==
; Function compile flags: /Ogsp
; File c:\program files (x86)\microsoft visual studio 10.0\vc\include\vector
;	COMDAT ??8?$_Vector_const_iterator@V?$_Vector_val@VioHashString@@V?$allocator@VioHashString@@@std@@@std@@@std@@QBE_NABV01@@Z
_TEXT	SEGMENT
__Right$ = 8						; size = 4
??8?$_Vector_const_iterator@V?$_Vector_val@VioHashString@@V?$allocator@VioHashString@@@std@@@std@@@std@@QBE_NABV01@@Z PROC ; std::_Vector_const_iterator<std::_Vector_val<ioHashString,std::allocator<ioHashString> > >::operator==, COMDAT
; _this$ = ecx

; 201  : 		{	// test for iterator equality

  00000	55		 push	 ebp
  00001	8b ec		 mov	 ebp, esp

; 202  : 		_Compat(_Right);
; 203  : 		return (this->_Ptr == _Right._Ptr);

  00003	8b 01		 mov	 eax, DWORD PTR [ecx]
  00005	8b 4d 08	 mov	 ecx, DWORD PTR __Right$[ebp]
  00008	2b 01		 sub	 eax, DWORD PTR [ecx]
  0000a	f7 d8		 neg	 eax
  0000c	1b c0		 sbb	 eax, eax
  0000e	40		 inc	 eax

; 204  : 		}

  0000f	5d		 pop	 ebp
  00010	c2 04 00	 ret	 4
??8?$_Vector_const_iterator@V?$_Vector_val@VioHashString@@V?$allocator@VioHashString@@@std@@@std@@@std@@QBE_NABV01@@Z ENDP ; std::_Vector_const_iterator<std::_Vector_val<ioHashString,std::allocator<ioHashString> > >::operator==
_TEXT	ENDS
PUBLIC	??$_Destroy@VioHashString@@@std@@YAXPAVioHashString@@@Z ; std::_Destroy<ioHashString>
; Function compile flags: /Ogsp
; File c:\program files (x86)\microsoft visual studio 10.0\vc\include\xmemory
;	COMDAT ??$_Destroy@VioHashString@@@std@@YAXPAVioHashString@@@Z
_TEXT	SEGMENT
__Ptr$ = 8						; size = 4
??$_Destroy@VioHashString@@@std@@YAXPAVioHashString@@@Z PROC ; std::_Destroy<ioHashString>, COMDAT

; 62   : 	{	// destroy object at _Ptr

  00000	55		 push	 ebp
  00001	8b ec		 mov	 ebp, esp

; 63   : 	_Ptr->~_Ty();

  00003	8b 4d 08	 mov	 ecx, DWORD PTR __Ptr$[ebp]

; 64   : 	}

  00006	5d		 pop	 ebp

; 63   : 	_Ptr->~_Ty();

  00007	ff 25 00 00 00
	00		 jmp	 DWORD PTR __imp_??1ioHashString@@QAE@XZ
??$_Destroy@VioHashString@@@std@@YAXPAVioHashString@@@Z ENDP ; std::_Destroy<ioHashString>
_TEXT	ENDS
PUBLIC	??_GCustomTexture@@QAEPAXI@Z			; CustomTexture::`scalar deleting destructor'
; Function compile flags: /Ogsp
;	COMDAT ??_GCustomTexture@@QAEPAXI@Z
_TEXT	SEGMENT
___flags$ = 8						; size = 4
??_GCustomTexture@@QAEPAXI@Z PROC			; CustomTexture::`scalar deleting destructor', COMDAT
; _this$ = ecx
  00000	55		 push	 ebp
  00001	8b ec		 mov	 ebp, esp
  00003	56		 push	 esi
  00004	8b f1		 mov	 esi, ecx
  00006	8d 4e 04	 lea	 ecx, DWORD PTR [esi+4]
  00009	ff 15 00 00 00
	00		 call	 DWORD PTR __imp_??1ioHashString@@QAE@XZ
  0000f	f6 45 08 01	 test	 BYTE PTR ___flags$[ebp], 1
  00013	74 07		 je	 SHORT $LN1@scalar@3
  00015	56		 push	 esi
  00016	e8 00 00 00 00	 call	 ??3@YAXPAX@Z		; operator delete
  0001b	59		 pop	 ecx
$LN1@scalar@3:
  0001c	8b c6		 mov	 eax, esi
  0001e	5e		 pop	 esi
  0001f	5d		 pop	 ebp
  00020	c2 04 00	 ret	 4
??_GCustomTexture@@QAEPAXI@Z ENDP			; CustomTexture::`scalar deleting destructor'
_TEXT	ENDS
PUBLIC	?construct@?$allocator@VioHashString@@@std@@QAEXPAVioHashString@@ABV3@@Z ; std::allocator<ioHashString>::construct
; Function compile flags: /Ogsp
;	COMDAT ?construct@?$allocator@VioHashString@@@std@@QAEXPAVioHashString@@ABV3@@Z
_TEXT	SEGMENT
__Ptr$ = 8						; size = 4
__Val$ = 12						; size = 4
?construct@?$allocator@VioHashString@@@std@@QAEXPAVioHashString@@ABV3@@Z PROC ; std::allocator<ioHashString>::construct, COMDAT
; _this$ = ecx

; 196  : 		{	// construct object at _Ptr with value _Val

  00000	55		 push	 ebp
  00001	8b ec		 mov	 ebp, esp

; 197  : 		_Construct(_Ptr, _Val);

  00003	ff 75 0c	 push	 DWORD PTR __Val$[ebp]
  00006	ff 75 08	 push	 DWORD PTR __Ptr$[ebp]
  00009	e8 00 00 00 00	 call	 ??$_Construct@VioHashString@@ABV1@@std@@YAXPAVioHashString@@ABV1@@Z ; std::_Construct<ioHashString,ioHashString const &>
  0000e	59		 pop	 ecx
  0000f	59		 pop	 ecx

; 198  : 		}

  00010	5d		 pop	 ebp
  00011	c2 08 00	 ret	 8
?construct@?$allocator@VioHashString@@@std@@QAEXPAVioHashString@@ABV3@@Z ENDP ; std::allocator<ioHashString>::construct
_TEXT	ENDS
PUBLIC	__$ArrayPad$
PUBLIC	?Initialize@ioCreateChar@@QAEXW4RaceType@@_N1@Z	; ioCreateChar::Initialize
EXTRN	__imp_??4ioHashString@@QAEAAV0@PBD@Z:PROC
EXTRN	__imp__wsprintfA:PROC
; Function compile flags: /Ogsp
; File d:\lost saga for developer\youtube\tutorial\source\src\lsclient\iocreatechar.cpp
;	COMDAT ?Initialize@ioCreateChar@@QAEXW4RaceType@@_N1@Z
_TEXT	SEGMENT
_szHalfFace$565606 = -564				; size = 260
_szBindHair$565299 = -564				; size = 260
_szFullName$565759 = -304				; size = 260
_szHalfHair$565298 = -304				; size = 260
___encStr$565763 = -44					; size = 21
___encStr$565610 = -16					; size = 8
___encStr$565455 = -16					; size = 7
___encStr$565303 = -16					; size = 7
__$ArrayPad$ = -4					; size = 4
_eType$ = 8						; size = 4
_bMale$ = 12						; size = 1
_bThread$ = 16						; size = 1
?Initialize@ioCreateChar@@QAEXW4RaceType@@_N1@Z PROC	; ioCreateChar::Initialize, COMDAT
; _this$ = ecx

; 113  : {

  00000	55		 push	 ebp
  00001	8b ec		 mov	 ebp, esp
  00003	81 ec 34 02 00
	00		 sub	 esp, 564		; 00000234H
  00009	a1 00 00 00 00	 mov	 eax, DWORD PTR ___security_cookie
  0000e	33 c5		 xor	 eax, ebp
  00010	89 45 fc	 mov	 DWORD PTR __$ArrayPad$[ebp], eax

; 114  : 	m_RaceType = eType;

  00013	8b 45 08	 mov	 eax, DWORD PTR _eType$[ebp]
  00016	56		 push	 esi
  00017	8b f1		 mov	 esi, ecx

; 115  : 	m_bMale = bMale;
; 116  : 	m_bThreadLoading = bThread;
; 117  : 
; 118  : 	if( !m_pGrp )	return;

  00019	8b 4e 04	 mov	 ecx, DWORD PTR [esi+4]
  0001c	89 46 08	 mov	 DWORD PTR [esi+8], eax
  0001f	8a 45 0c	 mov	 al, BYTE PTR _bMale$[ebp]
  00022	88 46 1c	 mov	 BYTE PTR [esi+28], al
  00025	8a 45 10	 mov	 al, BYTE PTR _bThread$[ebp]
  00028	88 46 1d	 mov	 BYTE PTR [esi+29], al
  0002b	85 c9		 test	 ecx, ecx
  0002d	0f 84 08 03 00
	00		 je	 $LN411@Initialize

; 119  : 
; 120  : 	ioEntity *pEntity;
; 121  : 
; 122  : 	pEntity = m_pGrp->GetEntity(0);

  00033	53		 push	 ebx
  00034	8b 1d 00 00 00
	00		 mov	 ebx, DWORD PTR __imp_?GetEntity@ioEntityGroup@@QAEPAVioEntity@@H@Z
  0003a	57		 push	 edi
  0003b	6a 00		 push	 0
  0003d	ff d3		 call	 ebx

; 123  : 	if( pEntity )

  0003f	85 c0		 test	 eax, eax
  00041	74 19		 je	 SHORT $LN409@Initialize

; 124  : 		m_DefaultFaceMesh = pEntity->GetMeshName();

  00043	8b c8		 mov	 ecx, eax
  00045	ff 15 00 00 00
	00		 call	 DWORD PTR __imp_?GetMeshName@ioEntity@@QBEABVioHashString@@XZ
  0004b	8b 3d 00 00 00
	00		 mov	 edi, DWORD PTR __imp_??4ioHashString@@QAEAAV0@ABV0@@Z
  00051	50		 push	 eax
  00052	8d 8e f0 00 00
	00		 lea	 ecx, DWORD PTR [esi+240]
  00058	ff d7		 call	 edi

; 125  : 	else

  0005a	eb 12		 jmp	 SHORT $LN408@Initialize
$LN409@Initialize:

; 126  : 		m_DefaultFaceMesh.Clear();

  0005c	8d 8e f0 00 00
	00		 lea	 ecx, DWORD PTR [esi+240]
  00062	ff 15 00 00 00
	00		 call	 DWORD PTR __imp_?Clear@ioHashString@@QAEXXZ
  00068	8b 3d 00 00 00
	00		 mov	 edi, DWORD PTR __imp_??4ioHashString@@QAEAAV0@ABV0@@Z
$LN408@Initialize:

; 127  : 
; 128  : 	pEntity = m_pGrp->GetEntity(1);

  0006e	8b 4e 04	 mov	 ecx, DWORD PTR [esi+4]
  00071	6a 01		 push	 1
  00073	ff d3		 call	 ebx

; 129  : 	if( pEntity )

  00075	85 c0		 test	 eax, eax
  00077	74 13		 je	 SHORT $LN407@Initialize

; 130  : 		m_DefaultHairMesh = pEntity->GetMeshName();

  00079	8b c8		 mov	 ecx, eax
  0007b	ff 15 00 00 00
	00		 call	 DWORD PTR __imp_?GetMeshName@ioEntity@@QBEABVioHashString@@XZ
  00081	50		 push	 eax
  00082	8d 8e 40 01 00
	00		 lea	 ecx, DWORD PTR [esi+320]
  00088	ff d7		 call	 edi

; 131  : 	else

  0008a	eb 0c		 jmp	 SHORT $LN406@Initialize
$LN407@Initialize:

; 132  : 		m_DefaultHairMesh.Clear();

  0008c	8d 8e 40 01 00
	00		 lea	 ecx, DWORD PTR [esi+320]
  00092	ff 15 00 00 00
	00		 call	 DWORD PTR __imp_?Clear@ioHashString@@QAEXXZ
$LN406@Initialize:

; 133  : 
; 134  : 	pEntity = m_pGrp->GetEntity(2);

  00098	8b 4e 04	 mov	 ecx, DWORD PTR [esi+4]
  0009b	6a 02		 push	 2
  0009d	ff d3		 call	 ebx

; 135  : 	if( pEntity )

  0009f	85 c0		 test	 eax, eax
  000a1	74 13		 je	 SHORT $LN405@Initialize

; 136  : 		m_DefaultUnderwearMesh = pEntity->GetMeshName();

  000a3	8b c8		 mov	 ecx, eax
  000a5	ff 15 00 00 00
	00		 call	 DWORD PTR __imp_?GetMeshName@ioEntity@@QBEABVioHashString@@XZ
  000ab	50		 push	 eax
  000ac	8d 8e 30 01 00
	00		 lea	 ecx, DWORD PTR [esi+304]
  000b2	ff d7		 call	 edi

; 137  : 	else

  000b4	eb 0c		 jmp	 SHORT $LN404@Initialize
$LN405@Initialize:

; 138  : 		m_DefaultUnderwearMesh.Clear();

  000b6	8d 8e 30 01 00
	00		 lea	 ecx, DWORD PTR [esi+304]
  000bc	ff 15 00 00 00
	00		 call	 DWORD PTR __imp_?Clear@ioHashString@@QAEXXZ
$LN404@Initialize:

; 139  : 
; 140  : 	pEntity = m_pGrp->GetEntity(3);

  000c2	8b 4e 04	 mov	 ecx, DWORD PTR [esi+4]
  000c5	6a 03		 push	 3
  000c7	ff d3		 call	 ebx

; 141  : 	if( pEntity )

  000c9	85 c0		 test	 eax, eax
  000cb	74 13		 je	 SHORT $LN403@Initialize

; 142  : 		m_DefaultHandMesh = pEntity->GetMeshName();

  000cd	8b c8		 mov	 ecx, eax
  000cf	ff 15 00 00 00
	00		 call	 DWORD PTR __imp_?GetMeshName@ioEntity@@QBEABVioHashString@@XZ
  000d5	50		 push	 eax
  000d6	8d 8e 70 01 00
	00		 lea	 ecx, DWORD PTR [esi+368]
  000dc	ff d7		 call	 edi

; 143  : 	else

  000de	eb 0c		 jmp	 SHORT $LN402@Initialize
$LN403@Initialize:

; 144  : 		m_DefaultHandMesh.Clear();

  000e0	8d 8e 70 01 00
	00		 lea	 ecx, DWORD PTR [esi+368]
  000e6	ff 15 00 00 00
	00		 call	 DWORD PTR __imp_?Clear@ioHashString@@QAEXXZ
$LN402@Initialize:

; 145  : 
; 146  : 	if( !m_DefaultHairMesh.IsEmpty() )

  000ec	8d 8e 40 01 00
	00		 lea	 ecx, DWORD PTR [esi+320]
  000f2	ff 15 00 00 00
	00		 call	 DWORD PTR __imp_?IsEmpty@ioHashString@@QBE_NXZ
  000f8	8b 1d 00 00 00
	00		 mov	 ebx, DWORD PTR __imp__wsprintfA
  000fe	bf ed ec eb ea	 mov	 edi, -353637139		; eaebecedH
  00103	84 c0		 test	 al, al
  00105	0f 85 ca 00 00
	00		 jne	 $LN401@Initialize

; 147  : 	{
; 148  : 		char szHalfHair[MAX_PATH], szBindHair[MAX_PATH];
; 149  : 		
; 150  : 		wsprintf_e( szHalfHair, "half%s", m_DefaultHairMesh.c_str() );

  0010b	6a 04		 push	 4
  0010d	c7 45 f0 85 8d
	87 8c		 mov	 DWORD PTR ___encStr$565303[ebp], -1937273467 ; 8c878d85H
  00114	31 7d f0	 xor	 DWORD PTR ___encStr$565303[ebp], edi
  00117	66 c7 45 f4 c8
	9f		 mov	 WORD PTR ___encStr$565303[ebp+4], 40904 ; 00009fc8H
  0011d	c6 45 f6 00	 mov	 BYTE PTR ___encStr$565303[ebp+6], 0
  00121	58		 pop	 eax
$LL415@Initialize:
  00122	8b c8		 mov	 ecx, eax
  00124	81 e1 03 00 00
	80		 and	 ecx, -2147483645	; 80000003H
  0012a	79 05		 jns	 SHORT $LN462@Initialize
  0012c	49		 dec	 ecx
  0012d	83 c9 fc	 or	 ecx, -4			; fffffffcH
  00130	41		 inc	 ecx
$LN462@Initialize:
  00131	b2 ed		 mov	 dl, -19			; ffffffedH
  00133	2a d1		 sub	 dl, cl
  00135	30 54 05 f0	 xor	 BYTE PTR ___encStr$565303[ebp+eax], dl
  00139	40		 inc	 eax
  0013a	83 f8 06	 cmp	 eax, 6
  0013d	7c e3		 jl	 SHORT $LL415@Initialize
  0013f	8d 8e 40 01 00
	00		 lea	 ecx, DWORD PTR [esi+320]
  00145	ff 15 00 00 00
	00		 call	 DWORD PTR __imp_?c_str@ioHashString@@QBEPBDXZ
  0014b	50		 push	 eax
  0014c	8d 45 f0	 lea	 eax, DWORD PTR ___encStr$565303[ebp]
  0014f	50		 push	 eax
  00150	8d 85 d0 fe ff
	ff		 lea	 eax, DWORD PTR _szHalfHair$565298[ebp]
  00156	50		 push	 eax
  00157	ff d3		 call	 ebx
  00159	83 c4 0c	 add	 esp, 12			; 0000000cH

; 151  : 		m_DefaultHalfHairMesh = szHalfHair;

  0015c	8d 85 d0 fe ff
	ff		 lea	 eax, DWORD PTR _szHalfHair$565298[ebp]
  00162	50		 push	 eax
  00163	8d 8e 60 01 00
	00		 lea	 ecx, DWORD PTR [esi+352]
  00169	ff 15 00 00 00
	00		 call	 DWORD PTR __imp_??4ioHashString@@QAEAAV0@PBD@Z

; 152  : 
; 153  : 		wsprintf_e( szBindHair, "bind%s", m_DefaultHairMesh.c_str() );

  0016f	6a 04		 push	 4
  00171	c7 45 f0 8f 85
	85 8e		 mov	 DWORD PTR ___encStr$565455[ebp], -1903852145 ; 8e85858fH
  00178	31 7d f0	 xor	 DWORD PTR ___encStr$565455[ebp], edi
  0017b	66 c7 45 f4 c8
	9f		 mov	 WORD PTR ___encStr$565455[ebp+4], 40904 ; 00009fc8H
  00181	c6 45 f6 00	 mov	 BYTE PTR ___encStr$565455[ebp+6], 0
  00185	58		 pop	 eax
$LL423@Initialize:
  00186	8b c8		 mov	 ecx, eax
  00188	81 e1 03 00 00
	80		 and	 ecx, -2147483645	; 80000003H
  0018e	79 05		 jns	 SHORT $LN463@Initialize
  00190	49		 dec	 ecx
  00191	83 c9 fc	 or	 ecx, -4			; fffffffcH
  00194	41		 inc	 ecx
$LN463@Initialize:
  00195	b2 ed		 mov	 dl, -19			; ffffffedH
  00197	2a d1		 sub	 dl, cl
  00199	30 54 05 f0	 xor	 BYTE PTR ___encStr$565455[ebp+eax], dl
  0019d	40		 inc	 eax
  0019e	83 f8 06	 cmp	 eax, 6
  001a1	7c e3		 jl	 SHORT $LL423@Initialize
  001a3	8d 8e 40 01 00
	00		 lea	 ecx, DWORD PTR [esi+320]
  001a9	ff 15 00 00 00
	00		 call	 DWORD PTR __imp_?c_str@ioHashString@@QBEPBDXZ
  001af	50		 push	 eax
  001b0	8d 45 f0	 lea	 eax, DWORD PTR ___encStr$565455[ebp]
  001b3	50		 push	 eax
  001b4	8d 85 cc fd ff
	ff		 lea	 eax, DWORD PTR _szBindHair$565299[ebp]
  001ba	50		 push	 eax
  001bb	ff d3		 call	 ebx
  001bd	83 c4 0c	 add	 esp, 12			; 0000000cH

; 154  : 		m_DefaultBindHairMesh = szBindHair;

  001c0	8d 85 cc fd ff
	ff		 lea	 eax, DWORD PTR _szBindHair$565299[ebp]
  001c6	50		 push	 eax
  001c7	8d 8e 50 01 00
	00		 lea	 ecx, DWORD PTR [esi+336]
  001cd	ff 15 00 00 00
	00		 call	 DWORD PTR __imp_??4ioHashString@@QAEAAV0@PBD@Z

; 155  : 	}
; 156  : 	else

  001d3	eb 18		 jmp	 SHORT $LN202@Initialize
$LN401@Initialize:

; 157  : 	{
; 158  : 		m_DefaultBindHairMesh.Clear();

  001d5	8d 8e 50 01 00
	00		 lea	 ecx, DWORD PTR [esi+336]
  001db	ff 15 00 00 00
	00		 call	 DWORD PTR __imp_?Clear@ioHashString@@QAEXXZ

; 159  : 		m_DefaultHalfHairMesh.Clear();

  001e1	8d 8e 60 01 00
	00		 lea	 ecx, DWORD PTR [esi+352]
  001e7	ff 15 00 00 00
	00		 call	 DWORD PTR __imp_?Clear@ioHashString@@QAEXXZ
$LN202@Initialize:

; 160  : 	}
; 161  : 
; 162  : 
; 163  : 	if( !m_DefaultFaceMesh.IsEmpty() )

  001ed	8d 8e f0 00 00
	00		 lea	 ecx, DWORD PTR [esi+240]
  001f3	ff 15 00 00 00
	00		 call	 DWORD PTR __imp_?IsEmpty@ioHashString@@QBE_NXZ
  001f9	84 c0		 test	 al, al
  001fb	0f 85 1b 01 00
	00		 jne	 $LN201@Initialize

; 164  : 	{
; 165  : 		char szHalfFace[MAX_PATH];
; 166  : 
; 167  : 		wsprintf_e( szHalfFace, "skip_%s", m_DefaultFaceMesh.c_str() );

  00201	6a 04		 push	 4
  00203	c7 45 f0 9e 87
	82 9a		 mov	 DWORD PTR ___encStr$565610[ebp], -1702721634 ; 9a82879eH
  0020a	31 7d f0	 xor	 DWORD PTR ___encStr$565610[ebp], edi
  0020d	c7 45 f4 b2 c9
	98 00		 mov	 DWORD PTR ___encStr$565610[ebp+4], 10013106 ; 0098c9b2H
  00214	58		 pop	 eax
$LL431@Initialize:
  00215	8b c8		 mov	 ecx, eax
  00217	81 e1 03 00 00
	80		 and	 ecx, -2147483645	; 80000003H
  0021d	79 05		 jns	 SHORT $LN464@Initialize
  0021f	49		 dec	 ecx
  00220	83 c9 fc	 or	 ecx, -4			; fffffffcH
  00223	41		 inc	 ecx
$LN464@Initialize:
  00224	b2 ed		 mov	 dl, -19			; ffffffedH
  00226	2a d1		 sub	 dl, cl
  00228	30 54 05 f0	 xor	 BYTE PTR ___encStr$565610[ebp+eax], dl
  0022c	40		 inc	 eax
  0022d	83 f8 07	 cmp	 eax, 7
  00230	7c e3		 jl	 SHORT $LL431@Initialize
  00232	8d 8e f0 00 00
	00		 lea	 ecx, DWORD PTR [esi+240]
  00238	ff 15 00 00 00
	00		 call	 DWORD PTR __imp_?c_str@ioHashString@@QBEPBDXZ
  0023e	50		 push	 eax
  0023f	8d 45 f0	 lea	 eax, DWORD PTR ___encStr$565610[ebp]
  00242	50		 push	 eax
  00243	8d 85 cc fd ff
	ff		 lea	 eax, DWORD PTR _szHalfFace$565606[ebp]
  00249	50		 push	 eax
  0024a	ff d3		 call	 ebx
  0024c	83 c4 0c	 add	 esp, 12			; 0000000cH

; 168  : 		m_SkipFaceMesh = szHalfFace;

  0024f	8d 85 cc fd ff
	ff		 lea	 eax, DWORD PTR _szHalfFace$565606[ebp]
  00255	50		 push	 eax
  00256	8d 8e 00 01 00
	00		 lea	 ecx, DWORD PTR [esi+256]
  0025c	ff 15 00 00 00
	00		 call	 DWORD PTR __imp_??4ioHashString@@QAEAAV0@PBD@Z

; 169  : 
; 170  : 		char szFullName[MAX_PATH]="";

  00262	68 03 01 00 00	 push	 259			; 00000103H
  00267	8d 85 d1 fe ff
	ff		 lea	 eax, DWORD PTR _szFullName$565759[ebp+1]
  0026d	6a 00		 push	 0
  0026f	50		 push	 eax
  00270	c6 85 d0 fe ff
	ff 00		 mov	 BYTE PTR _szFullName$565759[ebp], 0
  00277	e8 00 00 00 00	 call	 _memset
  0027c	83 c4 0c	 add	 esp, 12			; 0000000cH
  0027f	6a 05		 push	 5

; 171  : 		StringCbPrintf_e( szFullName, sizeof( szFullName ), "resource\\mesh\\%s.msh" , m_SkipFaceMesh.c_str() );

  00281	c7 45 d4 9f 89
	98 85		 mov	 DWORD PTR ___encStr$565763[ebp], -2053600865 ; 8598899fH
  00288	c7 45 d8 98 9e
	88 8f		 mov	 DWORD PTR ___encStr$565763[ebp+4], -1886871912 ; 8f889e98H
  0028f	c7 45 dc b1 81
	8e 99		 mov	 DWORD PTR ___encStr$565763[ebp+8], -1718713935 ; 998e81b1H
  00296	c7 45 e0 85 b0
	ce 99		 mov	 DWORD PTR ___encStr$565763[ebp+12], -1714507643 ; 99ceb085H
  0029d	c7 45 e4 c3 81
	98 82		 mov	 DWORD PTR ___encStr$565763[ebp+16], -2103934525 ; 829881c3H
  002a4	8d 45 d4	 lea	 eax, DWORD PTR ___encStr$565763[ebp]
  002a7	c6 45 e8 00	 mov	 BYTE PTR ___encStr$565763[ebp+20], 0
  002ab	59		 pop	 ecx
$LL442@Initialize:
  002ac	31 38		 xor	 DWORD PTR [eax], edi
  002ae	83 c0 04	 add	 eax, 4
  002b1	49		 dec	 ecx
  002b2	75 f8		 jne	 SHORT $LL442@Initialize
  002b4	8d 8e 00 01 00
	00		 lea	 ecx, DWORD PTR [esi+256]
  002ba	ff 15 00 00 00
	00		 call	 DWORD PTR __imp_?c_str@ioHashString@@QBEPBDXZ
  002c0	50		 push	 eax
  002c1	8d 45 d4	 lea	 eax, DWORD PTR ___encStr$565763[ebp]
  002c4	50		 push	 eax
  002c5	8d 85 d0 fe ff
	ff		 lea	 eax, DWORD PTR _szFullName$565759[ebp]
  002cb	68 04 01 00 00	 push	 260			; 00000104H
  002d0	50		 push	 eax
  002d1	e8 00 00 00 00	 call	 ?StringCbPrintfA@@YAJPADIPBDZZ ; StringCbPrintfA
  002d6	83 c4 10	 add	 esp, 16			; 00000010H

; 172  : 		if( !g_ResourceLoader.IsFileExist( szFullName ) )

  002d9	8d 85 d0 fe ff
	ff		 lea	 eax, DWORD PTR _szFullName$565759[ebp]
  002df	6a 00		 push	 0
  002e1	50		 push	 eax
  002e2	ff 15 00 00 00
	00		 call	 DWORD PTR __imp_?GetInstance@ioResourceLoader@@SAAAV1@XZ
  002e8	8b c8		 mov	 ecx, eax
  002ea	ff 15 00 00 00
	00		 call	 DWORD PTR __imp_?IsFileExist@ioResourceLoader@@QAE_NPBD_N@Z
  002f0	84 c0		 test	 al, al
  002f2	75 13		 jne	 SHORT $LN461@Initialize

; 173  : 		{
; 174  : 			// half  
; 175  : 			m_SkipFaceMesh = m_DefaultFaceMesh;

  002f4	8d 86 f0 00 00
	00		 lea	 eax, DWORD PTR [esi+240]
  002fa	50		 push	 eax
  002fb	8d 8e 00 01 00
	00		 lea	 ecx, DWORD PTR [esi+256]
  00301	ff 15 00 00 00
	00		 call	 DWORD PTR __imp_??4ioHashString@@QAEAAV0@ABV0@@Z
$LN461@Initialize:

; 176  : 		}
; 177  : 
; 178  : 		m_CurFaceMesh = m_DefaultFaceMesh;

  00307	8d 86 f0 00 00
	00		 lea	 eax, DWORD PTR [esi+240]
  0030d	50		 push	 eax
  0030e	8d 8e 10 01 00
	00		 lea	 ecx, DWORD PTR [esi+272]
  00314	ff 15 00 00 00
	00		 call	 DWORD PTR __imp_??4ioHashString@@QAEAAV0@ABV0@@Z

; 179  : 	}
; 180  : 	else

  0031a	eb 16		 jmp	 SHORT $LN1@Initialize
$LN201@Initialize:

; 181  : 	{
; 182  : 		m_SkipFaceMesh.Clear();

  0031c	8b 3d 00 00 00
	00		 mov	 edi, DWORD PTR __imp_?Clear@ioHashString@@QAEXXZ
  00322	8d 8e 00 01 00
	00		 lea	 ecx, DWORD PTR [esi+256]
  00328	ff d7		 call	 edi

; 183  : 		m_CurFaceMesh.Clear();

  0032a	8d 8e 10 01 00
	00		 lea	 ecx, DWORD PTR [esi+272]
  00330	ff d7		 call	 edi
$LN1@Initialize:

; 184  : 	}
; 185  : 
; 186  : 	UpdateDefaultFaceTextureName();

  00332	8b ce		 mov	 ecx, esi
  00334	e8 00 00 00 00	 call	 ?UpdateDefaultFaceTextureName@ioCreateChar@@IAEXXZ ; ioCreateChar::UpdateDefaultFaceTextureName
  00339	5f		 pop	 edi
  0033a	5b		 pop	 ebx
$LN411@Initialize:

; 187  : }

  0033b	8b 4d fc	 mov	 ecx, DWORD PTR __$ArrayPad$[ebp]
  0033e	33 cd		 xor	 ecx, ebp
  00340	5e		 pop	 esi
  00341	e8 00 00 00 00	 call	 @__security_check_cookie@4
  00346	c9		 leave
  00347	c2 0c 00	 ret	 12			; 0000000cH
?Initialize@ioCreateChar@@QAEXW4RaceType@@_N1@Z ENDP	; ioCreateChar::Initialize
_TEXT	ENDS
PUBLIC	??_C@_0P@GCFMKHNM@empty_face?4dds?$AA@		; `string'
PUBLIC	?SetMannequins@ioCreateChar@@QAEX_N@Z		; ioCreateChar::SetMannequins
;	COMDAT ??_C@_0P@GCFMKHNM@empty_face?4dds?$AA@
CONST	SEGMENT
??_C@_0P@GCFMKHNM@empty_face?4dds?$AA@ DB 'empty_face.dds', 00H ; `string'
CONST	ENDS
;	COMDAT xdata$x
xdata$x	SEGMENT
__unwindtable$?SetMannequins@ioCreateChar@@QAEX_N@Z DD 0ffffffffH
	DD	FLAT:__unwindfunclet$?SetMannequins@ioCreateChar@@QAEX_N@Z$0
__ehfuncinfo$?SetMannequins@ioCreateChar@@QAEX_N@Z DD 019930522H
	DD	01H
	DD	FLAT:__unwindtable$?SetMannequins@ioCreateChar@@QAEX_N@Z
	DD	2 DUP(00H)
	DD	2 DUP(00H)
	DD	00H
	DD	01H
; Function compile flags: /Ogsp
xdata$x	ENDS
;	COMDAT ?SetMannequins@ioCreateChar@@QAEX_N@Z
_TEXT	SEGMENT
$T572271 = -28						; size = 16
__$EHRec$ = -12						; size = 12
_bSexClass$ = 8						; size = 1
?SetMannequins@ioCreateChar@@QAEX_N@Z PROC		; ioCreateChar::SetMannequins, COMDAT
; _this$ = ecx

; 190  : {

  00000	6a 10		 push	 16			; 00000010H
  00002	b8 00 00 00 00	 mov	 eax, __ehhandler$?SetMannequins@ioCreateChar@@QAEX_N@Z
  00007	e8 00 00 00 00	 call	 __EH_prolog3
  0000c	8b f1		 mov	 esi, ecx

; 191  : 	//  /  /  .
; 192  : 	if( !bSexClass )

  0000e	33 db		 xor	 ebx, ebx
  00010	38 5d 08	 cmp	 BYTE PTR _bSexClass$[ebp], bl
  00013	75 2b		 jne	 SHORT $LN1@SetMannequ

; 193  : 	{
; 194  : 		RemoveEntityInOwner( m_DefaultHairMesh );

  00015	53		 push	 ebx
  00016	8d 86 40 01 00
	00		 lea	 eax, DWORD PTR [esi+320]
  0001c	50		 push	 eax
  0001d	e8 00 00 00 00	 call	 ?RemoveEntityInOwner@ioCreateChar@@IAE_NABVioHashString@@_N@Z ; ioCreateChar::RemoveEntityInOwner

; 195  : 		RemoveEntityInOwner( m_DefaultBindHairMesh );

  00022	53		 push	 ebx
  00023	8d 86 50 01 00
	00		 lea	 eax, DWORD PTR [esi+336]
  00029	50		 push	 eax
  0002a	8b ce		 mov	 ecx, esi
  0002c	e8 00 00 00 00	 call	 ?RemoveEntityInOwner@ioCreateChar@@IAE_NABVioHashString@@_N@Z ; ioCreateChar::RemoveEntityInOwner

; 196  : 		RemoveEntityInOwner( m_DefaultHalfHairMesh );

  00031	53		 push	 ebx
  00032	8d 86 60 01 00
	00		 lea	 eax, DWORD PTR [esi+352]
  00038	50		 push	 eax
  00039	8b ce		 mov	 ecx, esi
  0003b	e8 00 00 00 00	 call	 ?RemoveEntityInOwner@ioCreateChar@@IAE_NABVioHashString@@_N@Z ; ioCreateChar::RemoveEntityInOwner
$LN1@SetMannequ:

; 197  : 	}
; 198  : 	ChangeFaceTexture( "empty_face.dds" );

  00040	68 00 00 00 00	 push	 OFFSET ??_C@_0P@GCFMKHNM@empty_face?4dds?$AA@
  00045	8d 4d e4	 lea	 ecx, DWORD PTR $T572271[ebp]
  00048	ff 15 00 00 00
	00		 call	 DWORD PTR __imp_??0ioHashString@@QAE@PBD@Z
  0004e	8d 45 e4	 lea	 eax, DWORD PTR $T572271[ebp]
  00051	50		 push	 eax
  00052	8b ce		 mov	 ecx, esi
  00054	89 5d fc	 mov	 DWORD PTR __$EHRec$[ebp+8], ebx
  00057	e8 00 00 00 00	 call	 ?ChangeFaceTexture@ioCreateChar@@QAEXABVioHashString@@@Z ; ioCreateChar::ChangeFaceTexture
  0005c	83 4d fc ff	 or	 DWORD PTR __$EHRec$[ebp+8], -1
  00060	8d 4d e4	 lea	 ecx, DWORD PTR $T572271[ebp]
  00063	ff 15 00 00 00
	00		 call	 DWORD PTR __imp_??1ioHashString@@QAE@XZ

; 199  : }

  00069	e8 00 00 00 00	 call	 __EH_epilog3
  0006e	c2 04 00	 ret	 4
_TEXT	ENDS
;	COMDAT text$x
text$x	SEGMENT
__unwindfunclet$?SetMannequins@ioCreateChar@@QAEX_N@Z$0:
  00000	8d 4d e4	 lea	 ecx, DWORD PTR $T572271[ebp]
  00003	ff 25 00 00 00
	00		 jmp	 DWORD PTR __imp_??1ioHashString@@QAE@XZ
__ehhandler$?SetMannequins@ioCreateChar@@QAEX_N@Z:
  00009	8b 54 24 08	 mov	 edx, DWORD PTR [esp+8]
  0000d	8d 42 0c	 lea	 eax, DWORD PTR [edx+12]
  00010	8b 4a e0	 mov	 ecx, DWORD PTR [edx-32]
  00013	33 c8		 xor	 ecx, eax
  00015	e8 00 00 00 00	 call	 @__security_check_cookie@4
  0001a	b8 00 00 00 00	 mov	 eax, OFFSET __ehfuncinfo$?SetMannequins@ioCreateChar@@QAEX_N@Z
  0001f	e9 00 00 00 00	 jmp	 ___CxxFrameHandler3
text$x	ENDS
?SetMannequins@ioCreateChar@@QAEX_N@Z ENDP		; ioCreateChar::SetMannequins
PUBLIC	_rkMeshName$GSCopy$
PUBLIC	?AddEntityToOwner@ioCreateChar@@IAEPAVioEntity@@ABVioHashString@@_N@Z ; ioCreateChar::AddEntityToOwner
EXTRN	__imp_?AddEntity@ioEntityGroup@@QAEPAVioEntity@@ABVioHashString@@_N@Z:PROC
;	COMDAT xdata$x
; File d:\lost saga for developer\youtube\tutorial\source\src\lsclient\stringprotect.h
xdata$x	SEGMENT
__unwindtable$?AddEntityToOwner@ioCreateChar@@IAEPAVioEntity@@ABVioHashString@@_N@Z DD 0ffffffffH
	DD	FLAT:__unwindfunclet$?AddEntityToOwner@ioCreateChar@@IAEPAVioEntity@@ABVioHashString@@_N@Z$0
	DD	00H
	DD	FLAT:__unwindfunclet$?AddEntityToOwner@ioCreateChar@@IAEPAVioEntity@@ABVioHashString@@_N@Z$1
	DD	0ffffffffH
	DD	FLAT:__unwindfunclet$?AddEntityToOwner@ioCreateChar@@IAEPAVioEntity@@ABVioHashString@@_N@Z$2
__ehfuncinfo$?AddEntityToOwner@ioCreateChar@@IAEPAVioEntity@@ABVioHashString@@_N@Z DD 019930522H
	DD	03H
	DD	FLAT:__unwindtable$?AddEntityToOwner@ioCreateChar@@IAEPAVioEntity@@ABVioHashString@@_N@Z
	DD	2 DUP(00H)
	DD	2 DUP(00H)
	DD	00H
	DD	01H
; Function compile flags: /Ogsp
; File d:\lost saga for developer\youtube\tutorial\source\src\lsclient\iocreatechar.cpp
xdata$x	ENDS
;	COMDAT ?AddEntityToOwner@ioCreateChar@@IAEPAVioEntity@@ABVioHashString@@_N@Z
_TEXT	SEGMENT
_szNewMeshName$567132 = -324				; size = 16
_rkMeshName$GSCopy$ = -308				; size = 4
_szFullName$567137 = -304				; size = 260
___encStr$567141 = -44					; size = 21
_szNewMeshName$567295 = -36				; size = 16
$T572284 = -36						; size = 16
__$EHRec$ = -12						; size = 12
_rkMeshName$ = 8					; size = 4
_bSex$ = 12						; size = 1
?AddEntityToOwner@ioCreateChar@@IAEPAVioEntity@@ABVioHashString@@_N@Z PROC ; ioCreateChar::AddEntityToOwner, COMDAT
; _this$ = ecx

; 1395 : {

  00000	68 38 01 00 00	 push	 312			; 00000138H
  00005	b8 00 00 00 00	 mov	 eax, __ehhandler$?AddEntityToOwner@ioCreateChar@@IAEPAVioEntity@@ABVioHashString@@_N@Z
  0000a	e8 00 00 00 00	 call	 __EH_prolog3_GS
  0000f	8b 7d 08	 mov	 edi, DWORD PTR _rkMeshName$[ebp]
  00012	8b f1		 mov	 esi, ecx

; 1396 : 	if( rkMeshName.IsEmpty() )	return NULL;

  00014	8b cf		 mov	 ecx, edi

; 1413 : 			}
; 1414 : 			else //   
; 1415 : 			{
; 1416 : 				szNewMeshName = Help::ConvertName( rkMeshName, true );

  00016	89 bd cc fe ff
	ff		 mov	 DWORD PTR _rkMeshName$GSCopy$[ebp], edi
  0001c	ff 15 00 00 00
	00		 call	 DWORD PTR __imp_?IsEmpty@ioHashString@@QBE_NXZ
  00022	84 c0		 test	 al, al
  00024	74 07		 je	 SHORT $LN107@AddEntityT
$LN129@AddEntityT:

; 1396 : 	if( rkMeshName.IsEmpty() )	return NULL;

  00026	33 c0		 xor	 eax, eax
  00028	e9 5c 01 00 00	 jmp	 $LN108@AddEntityT
$LN107@AddEntityT:

; 1397 : 	if( !m_pGrp ) return NULL;

  0002d	33 db		 xor	 ebx, ebx
  0002f	39 5e 04	 cmp	 DWORD PTR [esi+4], ebx
  00032	74 f2		 je	 SHORT $LN129@AddEntityT

; 1398 : 
; 1399 : 	if( bSex )

  00034	38 5d 0c	 cmp	 BYTE PTR _bSex$[ebp], bl
  00037	0f 84 13 01 00
	00		 je	 $LN105@AddEntityT

; 1400 : 	{
; 1401 : 		ioHashString szNewMeshName = Help::ConvertName( rkMeshName, m_bMale );

  0003d	0f b6 46 1c	 movzx	 eax, BYTE PTR [esi+28]
  00041	50		 push	 eax
  00042	8d 85 bc fe ff
	ff		 lea	 eax, DWORD PTR _szNewMeshName$567132[ebp]
  00048	57		 push	 edi
  00049	50		 push	 eax
  0004a	e8 00 00 00 00	 call	 ?ConvertName@Help@@YA?AVioHashString@@ABV2@_N@Z ; Help::ConvertName
  0004f	83 c4 0c	 add	 esp, 12			; 0000000cH

; 1402 : 		if( m_bMale )

  00052	8b 3d 00 00 00
	00		 mov	 edi, DWORD PTR __imp_??1ioHashString@@QAE@XZ
  00058	89 5d fc	 mov	 DWORD PTR __$EHRec$[ebp+8], ebx
  0005b	38 5e 1c	 cmp	 BYTE PTR [esi+28], bl
  0005e	74 28		 je	 SHORT $LN104@AddEntityT
$LN127@AddEntityT:

; 1403 : 		{
; 1404 : 			return m_pGrp->AddEntity( szNewMeshName, m_bThreadLoading );

  00060	0f b6 46 1d	 movzx	 eax, BYTE PTR [esi+29]
  00064	8b 4e 04	 mov	 ecx, DWORD PTR [esi+4]
  00067	50		 push	 eax
  00068	8d 85 bc fe ff
	ff		 lea	 eax, DWORD PTR _szNewMeshName$567132[ebp]
  0006e	50		 push	 eax
  0006f	ff 15 00 00 00
	00		 call	 DWORD PTR __imp_?AddEntity@ioEntityGroup@@QAEPAVioEntity@@ABVioHashString@@_N@Z
  00075	83 4d fc ff	 or	 DWORD PTR __$EHRec$[ebp+8], -1
  00079	8d 8d bc fe ff
	ff		 lea	 ecx, DWORD PTR _szNewMeshName$567132[ebp]
  0007f	8b f0		 mov	 esi, eax
  00081	ff d7		 call	 edi
  00083	e9 ff 00 00 00	 jmp	 $LN128@AddEntityT
$LN104@AddEntityT:

; 1405 : 		}
; 1406 : 		else
; 1407 : 		{
; 1408 : 			char szFullName[MAX_PATH]="";

  00088	68 03 01 00 00	 push	 259			; 00000103H
  0008d	8d 85 d1 fe ff
	ff		 lea	 eax, DWORD PTR _szFullName$567137[ebp+1]
  00093	53		 push	 ebx
  00094	50		 push	 eax
  00095	88 9d d0 fe ff
	ff		 mov	 BYTE PTR _szFullName$567137[ebp], bl
  0009b	e8 00 00 00 00	 call	 _memset
  000a0	83 c4 0c	 add	 esp, 12			; 0000000cH
  000a3	6a 05		 push	 5

; 1409 : 			StringCbPrintf_e( szFullName, sizeof( szFullName ), "resource\\mesh\\%s.msh" , szNewMeshName.c_str() );

  000a5	c7 45 d4 9f 89
	98 85		 mov	 DWORD PTR ___encStr$567141[ebp], -2053600865 ; 8598899fH
  000ac	c7 45 d8 98 9e
	88 8f		 mov	 DWORD PTR ___encStr$567141[ebp+4], -1886871912 ; 8f889e98H
  000b3	c7 45 dc b1 81
	8e 99		 mov	 DWORD PTR ___encStr$567141[ebp+8], -1718713935 ; 998e81b1H
  000ba	c7 45 e0 85 b0
	ce 99		 mov	 DWORD PTR ___encStr$567141[ebp+12], -1714507643 ; 99ceb085H
  000c1	c7 45 e4 c3 81
	98 82		 mov	 DWORD PTR ___encStr$567141[ebp+16], -2103934525 ; 829881c3H
  000c8	8d 45 d4	 lea	 eax, DWORD PTR ___encStr$567141[ebp]
  000cb	88 5d e8	 mov	 BYTE PTR ___encStr$567141[ebp+20], bl
  000ce	59		 pop	 ecx
$LL118@AddEntityT:
  000cf	81 30 ed ec eb
	ea		 xor	 DWORD PTR [eax], -353637139 ; eaebecedH
  000d5	83 c0 04	 add	 eax, 4
  000d8	49		 dec	 ecx
  000d9	75 f4		 jne	 SHORT $LL118@AddEntityT
  000db	8d 8d bc fe ff
	ff		 lea	 ecx, DWORD PTR _szNewMeshName$567132[ebp]
  000e1	ff 15 00 00 00
	00		 call	 DWORD PTR __imp_?c_str@ioHashString@@QBEPBDXZ
  000e7	50		 push	 eax
  000e8	8d 45 d4	 lea	 eax, DWORD PTR ___encStr$567141[ebp]
  000eb	50		 push	 eax
  000ec	8d 85 d0 fe ff
	ff		 lea	 eax, DWORD PTR _szFullName$567137[ebp]
  000f2	68 04 01 00 00	 push	 260			; 00000104H
  000f7	50		 push	 eax
  000f8	e8 00 00 00 00	 call	 ?StringCbPrintfA@@YAJPADIPBDZZ ; StringCbPrintfA
  000fd	83 c4 10	 add	 esp, 16			; 00000010H

; 1410 : 			if( g_ResourceLoader.IsFileExist( szFullName ) )

  00100	8d 85 d0 fe ff
	ff		 lea	 eax, DWORD PTR _szFullName$567137[ebp]
  00106	53		 push	 ebx
  00107	50		 push	 eax
  00108	ff 15 00 00 00
	00		 call	 DWORD PTR __imp_?GetInstance@ioResourceLoader@@SAAAV1@XZ
  0010e	8b c8		 mov	 ecx, eax
  00110	ff 15 00 00 00
	00		 call	 DWORD PTR __imp_?IsFileExist@ioResourceLoader@@QAE_NPBD_N@Z
  00116	84 c0		 test	 al, al

; 1411 : 			{
; 1412 : 				return m_pGrp->AddEntity( szNewMeshName, m_bThreadLoading );

  00118	0f 85 42 ff ff
	ff		 jne	 $LN127@AddEntityT

; 1413 : 			}
; 1414 : 			else //   
; 1415 : 			{
; 1416 : 				szNewMeshName = Help::ConvertName( rkMeshName, true );

  0011e	6a 01		 push	 1
  00120	ff b5 cc fe ff
	ff		 push	 DWORD PTR _rkMeshName$GSCopy$[ebp]
  00126	8d 45 dc	 lea	 eax, DWORD PTR $T572284[ebp]
  00129	50		 push	 eax
  0012a	e8 00 00 00 00	 call	 ?ConvertName@Help@@YA?AVioHashString@@ABV2@_N@Z ; Help::ConvertName
  0012f	83 c4 0c	 add	 esp, 12			; 0000000cH
  00132	50		 push	 eax
  00133	8d 8d bc fe ff
	ff		 lea	 ecx, DWORD PTR _szNewMeshName$567132[ebp]
  00139	c6 45 fc 01	 mov	 BYTE PTR __$EHRec$[ebp+8], 1
  0013d	ff 15 00 00 00
	00		 call	 DWORD PTR __imp_??4ioHashString@@QAEAAV0@ABV0@@Z
  00143	8d 4d dc	 lea	 ecx, DWORD PTR $T572284[ebp]
  00146	88 5d fc	 mov	 BYTE PTR __$EHRec$[ebp+8], bl
  00149	ff d7		 call	 edi

; 1417 : 				return m_pGrp->AddEntity( szNewMeshName, m_bThreadLoading );

  0014b	e9 10 ff ff ff	 jmp	 $LN127@AddEntityT
$LN105@AddEntityT:

; 1418 : 			}
; 1419 : 		}
; 1420 : 	}
; 1421 : 	else
; 1422 : 	{
; 1423 : 		ioHashString szNewMeshName = Help::ConvertName( rkMeshName, true ); // 

  00150	6a 01		 push	 1
  00152	8d 45 dc	 lea	 eax, DWORD PTR _szNewMeshName$567295[ebp]
  00155	57		 push	 edi
  00156	50		 push	 eax
  00157	e8 00 00 00 00	 call	 ?ConvertName@Help@@YA?AVioHashString@@ABV2@_N@Z ; Help::ConvertName
  0015c	83 c4 0c	 add	 esp, 12			; 0000000cH

; 1424 : 		return m_pGrp->AddEntity( szNewMeshName, m_bThreadLoading );

  0015f	0f b6 46 1d	 movzx	 eax, BYTE PTR [esi+29]
  00163	8b 4e 04	 mov	 ecx, DWORD PTR [esi+4]
  00166	50		 push	 eax
  00167	8d 45 dc	 lea	 eax, DWORD PTR _szNewMeshName$567295[ebp]
  0016a	50		 push	 eax
  0016b	c7 45 fc 02 00
	00 00		 mov	 DWORD PTR __$EHRec$[ebp+8], 2
  00172	ff 15 00 00 00
	00		 call	 DWORD PTR __imp_?AddEntity@ioEntityGroup@@QAEPAVioEntity@@ABVioHashString@@_N@Z
  00178	83 4d fc ff	 or	 DWORD PTR __$EHRec$[ebp+8], -1
  0017c	8d 4d dc	 lea	 ecx, DWORD PTR _szNewMeshName$567295[ebp]
  0017f	8b f0		 mov	 esi, eax
  00181	ff 15 00 00 00
	00		 call	 DWORD PTR __imp_??1ioHashString@@QAE@XZ
$LN128@AddEntityT:
  00187	8b c6		 mov	 eax, esi
$LN108@AddEntityT:

; 1425 : 	}
; 1426 : 	return NULL;
; 1427 : }

  00189	e8 00 00 00 00	 call	 __EH_epilog3_GS
  0018e	c2 08 00	 ret	 8
_TEXT	ENDS
;	COMDAT text$x
text$x	SEGMENT
__unwindfunclet$?AddEntityToOwner@ioCreateChar@@IAEPAVioEntity@@ABVioHashString@@_N@Z$0:
  00000	8d 8d bc fe ff
	ff		 lea	 ecx, DWORD PTR _szNewMeshName$567132[ebp]
  00006	ff 25 00 00 00
	00		 jmp	 DWORD PTR __imp_??1ioHashString@@QAE@XZ
__unwindfunclet$?AddEntityToOwner@ioCreateChar@@IAEPAVioEntity@@ABVioHashString@@_N@Z$1:
  0000c	8d 4d dc	 lea	 ecx, DWORD PTR $T572284[ebp]
  0000f	ff 25 00 00 00
	00		 jmp	 DWORD PTR __imp_??1ioHashString@@QAE@XZ
__unwindfunclet$?AddEntityToOwner@ioCreateChar@@IAEPAVioEntity@@ABVioHashString@@_N@Z$2:
  00015	8d 4d dc	 lea	 ecx, DWORD PTR _szNewMeshName$567295[ebp]
  00018	ff 25 00 00 00
	00		 jmp	 DWORD PTR __imp_??1ioHashString@@QAE@XZ
__ehhandler$?AddEntityToOwner@ioCreateChar@@IAEPAVioEntity@@ABVioHashString@@_N@Z:
  0001e	8b 54 24 08	 mov	 edx, DWORD PTR [esp+8]
  00022	8d 42 0c	 lea	 eax, DWORD PTR [edx+12]
  00025	8b 8a b8 fe ff
	ff		 mov	 ecx, DWORD PTR [edx-328]
  0002b	33 c8		 xor	 ecx, eax
  0002d	e8 00 00 00 00	 call	 @__security_check_cookie@4
  00032	8b 4a fc	 mov	 ecx, DWORD PTR [edx-4]
  00035	33 c8		 xor	 ecx, eax
  00037	e8 00 00 00 00	 call	 @__security_check_cookie@4
  0003c	b8 00 00 00 00	 mov	 eax, OFFSET __ehfuncinfo$?AddEntityToOwner@ioCreateChar@@IAEPAVioEntity@@ABVioHashString@@_N@Z
  00041	e9 00 00 00 00	 jmp	 ___CxxFrameHandler3
text$x	ENDS
?AddEntityToOwner@ioCreateChar@@IAEPAVioEntity@@ABVioHashString@@_N@Z ENDP ; ioCreateChar::AddEntityToOwner
PUBLIC	??_C@_0CC@BNGBPCJP@ioCreateChar?3?3SetWeaponShopMotio@ ; `string'
PUBLIC	?SetWeaponShopMotion@ioCreateChar@@QAE_NXZ	; ioCreateChar::SetWeaponShopMotion
;	COMDAT ??_C@_0CC@BNGBPCJP@ioCreateChar?3?3SetWeaponShopMotio@
; File d:\lost saga for developer\youtube\tutorial\source\src\lsclient\ioweaponitem.h
CONST	SEGMENT
??_C@_0CC@BNGBPCJP@ioCreateChar?3?3SetWeaponShopMotio@ DB 'ioCreateChar::'
	DB	'SetWeaponShopMotion', 00H			; `string'
CONST	ENDS
;	COMDAT xdata$x
xdata$x	SEGMENT
__unwindtable$?SetWeaponShopMotion@ioCreateChar@@QAE_NXZ DD 0ffffffffH
	DD	FLAT:__unwindfunclet$?SetWeaponShopMotion@ioCreateChar@@QAE_NXZ$0
__ehfuncinfo$?SetWeaponShopMotion@ioCreateChar@@QAE_NXZ DD 019930522H
	DD	01H
	DD	FLAT:__unwindtable$?SetWeaponShopMotion@ioCreateChar@@QAE_NXZ
	DD	2 DUP(00H)
	DD	2 DUP(00H)
	DD	00H
	DD	01H
; Function compile flags: /Ogsp
; File d:\lost saga for developer\youtube\tutorial\source\src\lsclient\iocreatechar.cpp
xdata$x	ENDS
;	COMDAT ?SetWeaponShopMotion@ioCreateChar@@QAE_NXZ
_TEXT	SEGMENT
$T572320 = -28						; size = 16
__$EHRec$ = -12						; size = 12
?SetWeaponShopMotion@ioCreateChar@@QAE_NXZ PROC		; ioCreateChar::SetWeaponShopMotion, COMDAT
; _this$ = ecx

; 1599 : {

  00000	6a 10		 push	 16			; 00000010H
  00002	b8 00 00 00 00	 mov	 eax, __ehhandler$?SetWeaponShopMotion@ioCreateChar@@QAE_NXZ
  00007	e8 00 00 00 00	 call	 __EH_prolog3
  0000c	8b f1		 mov	 esi, ecx

; 1600 : 	if( !m_pGrp )	return false;

  0000e	83 7e 04 00	 cmp	 DWORD PTR [esi+4], 0
  00012	74 77		 je	 SHORT $LN1@SetWeaponS

; 1601 : 
; 1602 : 	DWORD dwWeaponCode = GetEquipedItemCode( CCS_WEAPON );

  00014	8b be 80 00 00
	00		 mov	 edi, DWORD PTR [esi+128]

; 1603 : 
; 1604 : 	const ioItem *pItem = g_ItemMaker.GetItemConst( dwWeaponCode, __FUNCTION__ );

  0001a	68 00 00 00 00	 push	 OFFSET ??_C@_0CC@BNGBPCJP@ioCreateChar?3?3SetWeaponShopMotio@
  0001f	8d 4d e4	 lea	 ecx, DWORD PTR $T572320[ebp]
  00022	ff 15 00 00 00
	00		 call	 DWORD PTR __imp_??0ioHashString@@QAE@PBD@Z
  00028	83 65 fc 00	 and	 DWORD PTR __$EHRec$[ebp+8], 0
  0002c	8d 45 e4	 lea	 eax, DWORD PTR $T572320[ebp]
  0002f	50		 push	 eax
  00030	57		 push	 edi
  00031	e8 00 00 00 00	 call	 ?GetSingleton@ioItemMaker@@SAAAV1@XZ ; ioItemMaker::GetSingleton
  00036	8b c8		 mov	 ecx, eax
  00038	e8 00 00 00 00	 call	 ?GetItemConst@ioItemMaker@@QBEPBVioItem@@KABVioHashString@@@Z ; ioItemMaker::GetItemConst
  0003d	83 4d fc ff	 or	 DWORD PTR __$EHRec$[ebp+8], -1
  00041	8d 4d e4	 lea	 ecx, DWORD PTR $T572320[ebp]
  00044	8b f8		 mov	 edi, eax
  00046	ff 15 00 00 00
	00		 call	 DWORD PTR __imp_??1ioHashString@@QAE@XZ

; 1605 : 	const ioWeaponItem *pWeapon = ToWeaponItemConst( pItem );

  0004c	57		 push	 edi
  0004d	e8 00 00 00 00	 call	 ?ToWeaponItemConst@@YAPBVioWeaponItem@@PBVioItem@@@Z ; ToWeaponItemConst
  00052	59		 pop	 ecx

; 1606 : 	if( pWeapon && !pWeapon->GetUIMotion().IsEmpty() )

  00053	85 c0		 test	 eax, eax
  00055	74 34		 je	 SHORT $LN1@SetWeaponS
  00057	8d b8 38 18 00
	00		 lea	 edi, DWORD PTR [eax+6200]
  0005d	8b cf		 mov	 ecx, edi
  0005f	ff 15 00 00 00
	00		 call	 DWORD PTR __imp_?IsEmpty@ioHashString@@QBE_NXZ
  00065	84 c0		 test	 al, al
  00067	75 22		 jne	 SHORT $LN1@SetWeaponS

; 1607 : 	{
; 1608 : 		SetLoopAni( GetAnimationIdxAfterConvertName( pWeapon->GetUIMotion(), m_bMale ) );

  00069	0f b6 46 1c	 movzx	 eax, BYTE PTR [esi+28]
  0006d	0f 57 c0	 xorps	 xmm0, xmm0
  00070	51		 push	 ecx
  00071	f3 0f 11 04 24	 movss	 DWORD PTR [esp], xmm0
  00076	50		 push	 eax
  00077	57		 push	 edi
  00078	8b ce		 mov	 ecx, esi
  0007a	e8 00 00 00 00	 call	 ?GetAnimationIdxAfterConvertName@ioCreateChar@@IBEHABVioHashString@@_N@Z ; ioCreateChar::GetAnimationIdxAfterConvertName
  0007f	50		 push	 eax
  00080	8b ce		 mov	 ecx, esi
  00082	e8 00 00 00 00	 call	 ?SetLoopAni@ioCreateChar@@IAEXHM@Z ; ioCreateChar::SetLoopAni

; 1609 : 		return true;

  00087	b0 01		 mov	 al, 1
  00089	eb 02		 jmp	 SHORT $LN3@SetWeaponS
$LN1@SetWeaponS:

; 1610 : 	}
; 1611 : 
; 1612 : 	return false;

  0008b	32 c0		 xor	 al, al
$LN3@SetWeaponS:

; 1613 : }

  0008d	e8 00 00 00 00	 call	 __EH_epilog3
  00092	c3		 ret	 0
_TEXT	ENDS
;	COMDAT text$x
text$x	SEGMENT
__unwindfunclet$?SetWeaponShopMotion@ioCreateChar@@QAE_NXZ$0:
  00000	8d 4d e4	 lea	 ecx, DWORD PTR $T572320[ebp]
  00003	ff 25 00 00 00
	00		 jmp	 DWORD PTR __imp_??1ioHashString@@QAE@XZ
__ehhandler$?SetWeaponShopMotion@ioCreateChar@@QAE_NXZ:
  00009	8b 54 24 08	 mov	 edx, DWORD PTR [esp+8]
  0000d	8d 42 0c	 lea	 eax, DWORD PTR [edx+12]
  00010	8b 4a e0	 mov	 ecx, DWORD PTR [edx-32]
  00013	33 c8		 xor	 ecx, eax
  00015	e8 00 00 00 00	 call	 @__security_check_cookie@4
  0001a	b8 00 00 00 00	 mov	 eax, OFFSET __ehfuncinfo$?SetWeaponShopMotion@ioCreateChar@@QAE_NXZ
  0001f	e9 00 00 00 00	 jmp	 ___CxxFrameHandler3
text$x	ENDS
?SetWeaponShopMotion@ioCreateChar@@QAE_NXZ ENDP		; ioCreateChar::SetWeaponShopMotion
PUBLIC	??_C@_0CD@MAKFAOLG@ioCreateChar?3?3SetAwardWeaponMoti@ ; `string'
PUBLIC	?SetAwardWeaponMotion@ioCreateChar@@QAEXH@Z	; ioCreateChar::SetAwardWeaponMotion
EXTRN	?GetAwardMotion@ioWeaponItem@@QBEABVioHashString@@H@Z:PROC ; ioWeaponItem::GetAwardMotion
;	COMDAT ??_C@_0CD@MAKFAOLG@ioCreateChar?3?3SetAwardWeaponMoti@
CONST	SEGMENT
??_C@_0CD@MAKFAOLG@ioCreateChar?3?3SetAwardWeaponMoti@ DB 'ioCreateChar::'
	DB	'SetAwardWeaponMotion', 00H			; `string'
CONST	ENDS
;	COMDAT xdata$x
xdata$x	SEGMENT
__unwindtable$?SetAwardWeaponMotion@ioCreateChar@@QAEXH@Z DD 0ffffffffH
	DD	FLAT:__unwindfunclet$?SetAwardWeaponMotion@ioCreateChar@@QAEXH@Z$0
__ehfuncinfo$?SetAwardWeaponMotion@ioCreateChar@@QAEXH@Z DD 019930522H
	DD	01H
	DD	FLAT:__unwindtable$?SetAwardWeaponMotion@ioCreateChar@@QAEXH@Z
	DD	2 DUP(00H)
	DD	2 DUP(00H)
	DD	00H
	DD	01H
; Function compile flags: /Ogsp
xdata$x	ENDS
;	COMDAT ?SetAwardWeaponMotion@ioCreateChar@@QAEXH@Z
_TEXT	SEGMENT
$T572340 = -28						; size = 16
__$EHRec$ = -12						; size = 12
_iAniCode$ = 8						; size = 4
?SetAwardWeaponMotion@ioCreateChar@@QAEXH@Z PROC	; ioCreateChar::SetAwardWeaponMotion, COMDAT
; _this$ = ecx

; 1642 : {

  00000	6a 10		 push	 16			; 00000010H
  00002	b8 00 00 00 00	 mov	 eax, __ehhandler$?SetAwardWeaponMotion@ioCreateChar@@QAEXH@Z
  00007	e8 00 00 00 00	 call	 __EH_prolog3
  0000c	8b f1		 mov	 esi, ecx

; 1643 : 	if( !m_pGrp )	return;

  0000e	83 7e 04 00	 cmp	 DWORD PTR [esi+4], 0
  00012	74 79		 je	 SHORT $LN1@SetAwardWe

; 1644 : 
; 1645 : 	DWORD dwWeaponCode = GetEquipedItemCode( CCS_WEAPON );

  00014	8b be 80 00 00
	00		 mov	 edi, DWORD PTR [esi+128]

; 1646 : 
; 1647 : 	const ioItem *pItem = g_ItemMaker.GetItemConst( dwWeaponCode, __FUNCTION__ );

  0001a	68 00 00 00 00	 push	 OFFSET ??_C@_0CD@MAKFAOLG@ioCreateChar?3?3SetAwardWeaponMoti@
  0001f	8d 4d e4	 lea	 ecx, DWORD PTR $T572340[ebp]
  00022	ff 15 00 00 00
	00		 call	 DWORD PTR __imp_??0ioHashString@@QAE@PBD@Z
  00028	83 65 fc 00	 and	 DWORD PTR __$EHRec$[ebp+8], 0
  0002c	8d 45 e4	 lea	 eax, DWORD PTR $T572340[ebp]
  0002f	50		 push	 eax
  00030	57		 push	 edi
  00031	e8 00 00 00 00	 call	 ?GetSingleton@ioItemMaker@@SAAAV1@XZ ; ioItemMaker::GetSingleton
  00036	8b c8		 mov	 ecx, eax
  00038	e8 00 00 00 00	 call	 ?GetItemConst@ioItemMaker@@QBEPBVioItem@@KABVioHashString@@@Z ; ioItemMaker::GetItemConst
  0003d	83 4d fc ff	 or	 DWORD PTR __$EHRec$[ebp+8], -1
  00041	8d 4d e4	 lea	 ecx, DWORD PTR $T572340[ebp]
  00044	8b f8		 mov	 edi, eax
  00046	ff 15 00 00 00
	00		 call	 DWORD PTR __imp_??1ioHashString@@QAE@XZ

; 1648 : 	const ioWeaponItem *pWeapon = ToWeaponItemConst( pItem );

  0004c	57		 push	 edi
  0004d	e8 00 00 00 00	 call	 ?ToWeaponItemConst@@YAPBVioWeaponItem@@PBVioItem@@@Z ; ToWeaponItemConst
  00052	59		 pop	 ecx

; 1649 : 	if( pWeapon )

  00053	85 c0		 test	 eax, eax
  00055	74 36		 je	 SHORT $LN1@SetAwardWe

; 1650 : 	{
; 1651 : 		const ioHashString& szAniMotion = pWeapon->GetAwardMotion( iAniCode );

  00057	ff 75 08	 push	 DWORD PTR _iAniCode$[ebp]
  0005a	8b c8		 mov	 ecx, eax
  0005c	e8 00 00 00 00	 call	 ?GetAwardMotion@ioWeaponItem@@QBEABVioHashString@@H@Z ; ioWeaponItem::GetAwardMotion
  00061	8b f8		 mov	 edi, eax

; 1652 : 		if( !szAniMotion.IsEmpty() )

  00063	8b cf		 mov	 ecx, edi
  00065	ff 15 00 00 00
	00		 call	 DWORD PTR __imp_?IsEmpty@ioHashString@@QBE_NXZ
  0006b	84 c0		 test	 al, al
  0006d	75 1e		 jne	 SHORT $LN1@SetAwardWe

; 1653 : 			SetLoopAni( GetAnimationIdxAfterConvertName( szAniMotion, m_bMale ) );

  0006f	0f b6 46 1c	 movzx	 eax, BYTE PTR [esi+28]
  00073	0f 57 c0	 xorps	 xmm0, xmm0
  00076	51		 push	 ecx
  00077	f3 0f 11 04 24	 movss	 DWORD PTR [esp], xmm0
  0007c	50		 push	 eax
  0007d	57		 push	 edi
  0007e	8b ce		 mov	 ecx, esi
  00080	e8 00 00 00 00	 call	 ?GetAnimationIdxAfterConvertName@ioCreateChar@@IBEHABVioHashString@@_N@Z ; ioCreateChar::GetAnimationIdxAfterConvertName
  00085	50		 push	 eax
  00086	8b ce		 mov	 ecx, esi
  00088	e8 00 00 00 00	 call	 ?SetLoopAni@ioCreateChar@@IAEXHM@Z ; ioCreateChar::SetLoopAni
$LN1@SetAwardWe:

; 1654 : 		return;
; 1655 : 	}
; 1656 : 
; 1657 : 	return;
; 1658 : }

  0008d	e8 00 00 00 00	 call	 __EH_epilog3
  00092	c2 04 00	 ret	 4
_TEXT	ENDS
;	COMDAT text$x
text$x	SEGMENT
__unwindfunclet$?SetAwardWeaponMotion@ioCreateChar@@QAEXH@Z$0:
  00000	8d 4d e4	 lea	 ecx, DWORD PTR $T572340[ebp]
  00003	ff 25 00 00 00
	00		 jmp	 DWORD PTR __imp_??1ioHashString@@QAE@XZ
__ehhandler$?SetAwardWeaponMotion@ioCreateChar@@QAEXH@Z:
  00009	8b 54 24 08	 mov	 edx, DWORD PTR [esp+8]
  0000d	8d 42 0c	 lea	 eax, DWORD PTR [edx+12]
  00010	8b 4a e0	 mov	 ecx, DWORD PTR [edx-32]
  00013	33 c8		 xor	 ecx, eax
  00015	e8 00 00 00 00	 call	 @__security_check_cookie@4
  0001a	b8 00 00 00 00	 mov	 eax, OFFSET __ehfuncinfo$?SetAwardWeaponMotion@ioCreateChar@@QAEXH@Z
  0001f	e9 00 00 00 00	 jmp	 ___CxxFrameHandler3
text$x	ENDS
?SetAwardWeaponMotion@ioCreateChar@@QAEXH@Z ENDP	; ioCreateChar::SetAwardWeaponMotion
PUBLIC	?CheckFaceChanging@ioCreateChar@@IAEXXZ		; ioCreateChar::CheckFaceChanging
; Function compile flags: /Ogsp
;	COMDAT ?CheckFaceChanging@ioCreateChar@@IAEXXZ
_TEXT	SEGMENT
?CheckFaceChanging@ioCreateChar@@IAEXXZ PROC		; ioCreateChar::CheckFaceChanging, COMDAT
; _this$ = ecx

; 1778 : {

  00000	56		 push	 esi
  00001	57		 push	 edi
  00002	8b f9		 mov	 edi, ecx

; 1779 : 	if( m_dwFaceChangeTime == 0 )

  00004	83 bf 18 02 00
	00 00		 cmp	 DWORD PTR [edi+536], 0
  0000b	74 1f		 je	 SHORT $LN1@CheckFaceC

; 1780 : 		return;
; 1781 : 
; 1782 : 	if( m_dwFaceChangeTime < FRAMEGETTIME() )

  0000d	ff 15 00 00 00
	00		 call	 DWORD PTR __imp_?GetSingleton@ioFrameTimer@@SAAAV1@XZ
  00013	8b c8		 mov	 ecx, eax
  00015	ff 15 00 00 00
	00		 call	 DWORD PTR __imp_?GetLoopSec@ioFrameTimer@@QBEKXZ
  0001b	39 87 18 02 00
	00		 cmp	 DWORD PTR [edi+536], eax
  00021	73 09		 jae	 SHORT $LN1@CheckFaceC

; 1783 : 	{
; 1784 : 		StopFaceChange();

  00023	8b cf		 mov	 ecx, edi
  00025	5f		 pop	 edi
  00026	5e		 pop	 esi
  00027	e9 00 00 00 00	 jmp	 ?StopFaceChange@ioCreateChar@@IAEXXZ ; ioCreateChar::StopFaceChange
$LN1@CheckFaceC:
  0002c	5f		 pop	 edi
  0002d	5e		 pop	 esi

; 1785 : 	}
; 1786 : }

  0002e	c3		 ret	 0
?CheckFaceChanging@ioCreateChar@@IAEXXZ ENDP		; ioCreateChar::CheckFaceChanging
_TEXT	ENDS
PUBLIC	__real@00000000
PUBLIC	?GetYaw@ioCreateChar@@QAEMXZ			; ioCreateChar::GetYaw
EXTRN	__imp_?QuaterToYaw@ioMath@@SAMABUD3DXQUATERNION@@@Z:PROC
;	COMDAT __real@00000000
CONST	SEGMENT
__real@00000000 DD 000000000r			; 0
; Function compile flags: /Ogsp
CONST	ENDS
;	COMDAT ?GetYaw@ioCreateChar@@QAEMXZ
_TEXT	SEGMENT
?GetYaw@ioCreateChar@@QAEMXZ PROC			; ioCreateChar::GetYaw, COMDAT
; _this$ = ecx

; 2002 : 	ioSceneNode *pSNode = m_pGrp->GetParentSceneNode();

  00000	8b 49 04	 mov	 ecx, DWORD PTR [ecx+4]
  00003	8b 01		 mov	 eax, DWORD PTR [ecx]
  00005	ff 50 34	 call	 DWORD PTR [eax+52]

; 2003 : 	if( pSNode )

  00008	85 c0		 test	 eax, eax
  0000a	74 18		 je	 SHORT $LN1@GetYaw

; 2004 : 	{
; 2005 : 		return RADtoDEG( ioMath::QuaterToYaw( pSNode->GetOrientation() ) );

  0000c	8b 10		 mov	 edx, DWORD PTR [eax]
  0000e	8b c8		 mov	 ecx, eax
  00010	ff 52 0c	 call	 DWORD PTR [edx+12]
  00013	50		 push	 eax
  00014	ff 15 00 00 00
	00		 call	 DWORD PTR __imp_?QuaterToYaw@ioMath@@SAMABUD3DXQUATERNION@@@Z
  0001a	d9 1c 24	 fstp	 DWORD PTR [esp]
  0001d	e8 00 00 00 00	 call	 ??$RADtoDEG@M@@YAMM@Z	; RADtoDEG<float>
  00022	59		 pop	 ecx

; 2009 : }

  00023	c3		 ret	 0
$LN1@GetYaw:

; 2006 : 	}
; 2007 : 
; 2008 : 	return 0.0f;

  00024	d9 ee		 fldz

; 2009 : }

  00026	c3		 ret	 0
?GetYaw@ioCreateChar@@QAEMXZ ENDP			; ioCreateChar::GetYaw
_TEXT	ENDS
PUBLIC	?begin@?$vector@UCustomTexture@@V?$allocator@UCustomTexture@@@std@@@std@@QAE?AV?$_Vector_iterator@V?$_Vector_val@UCustomTexture@@V?$allocator@UCustomTexture@@@std@@@std@@@2@XZ ; std::vector<CustomTexture,std::allocator<CustomTexture> >::begin
; Function compile flags: /Ogsp
; File c:\program files (x86)\microsoft visual studio 10.0\vc\include\vector
;	COMDAT ?begin@?$vector@UCustomTexture@@V?$allocator@UCustomTexture@@@std@@@std@@QAE?AV?$_Vector_iterator@V?$_Vector_val@UCustomTexture@@V?$allocator@UCustomTexture@@@std@@@std@@@2@XZ
_TEXT	SEGMENT
___$ReturnUdt$ = 8					; size = 4
?begin@?$vector@UCustomTexture@@V?$allocator@UCustomTexture@@@std@@@std@@QAE?AV?$_Vector_iterator@V?$_Vector_val@UCustomTexture@@V?$allocator@UCustomTexture@@@std@@@std@@@2@XZ PROC ; std::vector<CustomTexture,std::allocator<CustomTexture> >::begin, COMDAT
; _this$ = ecx

; 781  : 		{	// return iterator for beginning of mutable sequence

  00000	55		 push	 ebp
  00001	8b ec		 mov	 ebp, esp

; 782  : 		return (iterator(this->_Myfirst, this));

  00003	8b 09		 mov	 ecx, DWORD PTR [ecx]
  00005	8b 45 08	 mov	 eax, DWORD PTR ___$ReturnUdt$[ebp]
  00008	89 08		 mov	 DWORD PTR [eax], ecx

; 783  : 		}

  0000a	5d		 pop	 ebp
  0000b	c2 04 00	 ret	 4
?begin@?$vector@UCustomTexture@@V?$allocator@UCustomTexture@@@std@@@std@@QAE?AV?$_Vector_iterator@V?$_Vector_val@UCustomTexture@@V?$allocator@UCustomTexture@@@std@@@std@@@2@XZ ENDP ; std::vector<CustomTexture,std::allocator<CustomTexture> >::begin
_TEXT	ENDS
PUBLIC	?end@?$vector@UCustomTexture@@V?$allocator@UCustomTexture@@@std@@@std@@QAE?AV?$_Vector_iterator@V?$_Vector_val@UCustomTexture@@V?$allocator@UCustomTexture@@@std@@@std@@@2@XZ ; std::vector<CustomTexture,std::allocator<CustomTexture> >::end
; Function compile flags: /Ogsp
;	COMDAT ?end@?$vector@UCustomTexture@@V?$allocator@UCustomTexture@@@std@@@std@@QAE?AV?$_Vector_iterator@V?$_Vector_val@UCustomTexture@@V?$allocator@UCustomTexture@@@std@@@std@@@2@XZ
_TEXT	SEGMENT
___$ReturnUdt$ = 8					; size = 4
?end@?$vector@UCustomTexture@@V?$allocator@UCustomTexture@@@std@@@std@@QAE?AV?$_Vector_iterator@V?$_Vector_val@UCustomTexture@@V?$allocator@UCustomTexture@@@std@@@std@@@2@XZ PROC ; std::vector<CustomTexture,std::allocator<CustomTexture> >::end, COMDAT
; _this$ = ecx

; 791  : 		{	// return iterator for end of mutable sequence

  00000	55		 push	 ebp
  00001	8b ec		 mov	 ebp, esp

; 792  : 		return (iterator(this->_Mylast, this));

  00003	8b 49 04	 mov	 ecx, DWORD PTR [ecx+4]
  00006	8b 45 08	 mov	 eax, DWORD PTR ___$ReturnUdt$[ebp]
  00009	89 08		 mov	 DWORD PTR [eax], ecx

; 793  : 		}

  0000b	5d		 pop	 ebp
  0000c	c2 04 00	 ret	 4
?end@?$vector@UCustomTexture@@V?$allocator@UCustomTexture@@@std@@@std@@QAE?AV?$_Vector_iterator@V?$_Vector_val@UCustomTexture@@V?$allocator@UCustomTexture@@@std@@@std@@@2@XZ ENDP ; std::vector<CustomTexture,std::allocator<CustomTexture> >::end
_TEXT	ENDS
PUBLIC	??0?$_List_val@MV?$allocator@M@std@@@std@@QAE@V?$allocator@M@1@@Z ; std::_List_val<float,std::allocator<float> >::_List_val<float,std::allocator<float> >
; Function compile flags: /Ogsp
; File c:\program files (x86)\microsoft visual studio 10.0\vc\include\list
;	COMDAT ??0?$_List_val@MV?$allocator@M@std@@@std@@QAE@V?$allocator@M@1@@Z
_TEXT	SEGMENT
$T572439 = -16						; size = 12
$T572423 = -4						; size = 4
__Al$ = 8						; size = 1
??0?$_List_val@MV?$allocator@M@std@@@std@@QAE@V?$allocator@M@1@@Z PROC ; std::_List_val<float,std::allocator<float> >::_List_val<float,std::allocator<float> >, COMDAT
; _this$ = ecx

; 493  : 		{	// construct base, and allocator from _Al

  00000	55		 push	 ebp
  00001	8b ec		 mov	 ebp, esp
  00003	83 ec 10	 sub	 esp, 16			; 00000010H
  00006	56		 push	 esi
  00007	8b f1		 mov	 esi, ecx

; 494  : 		this->_Mysize = 0;

  00009	83 66 04 00	 and	 DWORD PTR [esi+4], 0

; 495  : 		this->_Myhead = this->_Alnod.allocate(1);

  0000d	6a 0c		 push	 12			; 0000000cH
  0000f	e8 00 00 00 00	 call	 ??2@YAPAXI@Z		; operator new
  00014	59		 pop	 ecx
  00015	85 c0		 test	 eax, eax
  00017	74 10		 je	 SHORT $LN13@List_val
  00019	89 06		 mov	 DWORD PTR [esi], eax

; 496  : 		this->_Nextnode(this->_Myhead) = this->_Myhead;

  0001b	89 00		 mov	 DWORD PTR [eax], eax

; 497  : 		this->_Prevnode(this->_Myhead) = this->_Myhead;

  0001d	8b 06		 mov	 eax, DWORD PTR [esi]
  0001f	89 40 04	 mov	 DWORD PTR [eax+4], eax

; 498  : 		}

  00022	8b c6		 mov	 eax, esi
  00024	5e		 pop	 esi
  00025	c9		 leave
  00026	c2 04 00	 ret	 4

; 495  : 		this->_Myhead = this->_Alnod.allocate(1);

$LN13@List_val:
  00029	83 65 fc 00	 and	 DWORD PTR $T572423[ebp], 0
  0002d	8d 45 fc	 lea	 eax, DWORD PTR $T572423[ebp]
  00030	50		 push	 eax
  00031	8d 4d f0	 lea	 ecx, DWORD PTR $T572439[ebp]
  00034	ff 15 00 00 00
	00		 call	 DWORD PTR __imp_??0exception@std@@QAE@ABQBD@Z
  0003a	68 00 00 00 00	 push	 OFFSET __TI2?AVbad_alloc@std@@
  0003f	8d 45 f0	 lea	 eax, DWORD PTR $T572439[ebp]
  00042	50		 push	 eax
  00043	c7 45 f0 00 00
	00 00		 mov	 DWORD PTR $T572439[ebp], OFFSET ??_7bad_alloc@std@@6B@
  0004a	e8 00 00 00 00	 call	 __CxxThrowException@8
$LN29@List_val:
$LN28@List_val:
  0004f	cc		 int	 3
??0?$_List_val@MV?$allocator@M@std@@@std@@QAE@V?$allocator@M@1@@Z ENDP ; std::_List_val<float,std::allocator<float> >::_List_val<float,std::allocator<float> >
_TEXT	ENDS
PUBLIC	?_Grow_to@?$vector@VioHashString@@V?$allocator@VioHashString@@@std@@@std@@IBEII@Z ; std::vector<ioHashString,std::allocator<ioHashString> >::_Grow_to
; Function compile flags: /Ogsp
; File c:\program files (x86)\microsoft visual studio 10.0\vc\include\vector
;	COMDAT ?_Grow_to@?$vector@VioHashString@@V?$allocator@VioHashString@@@std@@@std@@IBEII@Z
_TEXT	SEGMENT
__Count$ = 8						; size = 4
?_Grow_to@?$vector@VioHashString@@V?$allocator@VioHashString@@@std@@@std@@IBEII@Z PROC ; std::vector<ioHashString,std::allocator<ioHashString> >::_Grow_to, COMDAT
; _this$ = ecx

; 1274 : 		{	// grow by 50% or at least to _Count

  00000	55		 push	 ebp
  00001	8b ec		 mov	 ebp, esp

; 1275 : 		size_type _Capacity = capacity();

  00003	8b 41 08	 mov	 eax, DWORD PTR [ecx+8]
  00006	2b 01		 sub	 eax, DWORD PTR [ecx]

; 1276 : 
; 1277 : 		_Capacity = max_size() - _Capacity / 2 < _Capacity
; 1278 : 			? 0 : _Capacity + _Capacity / 2;	// try to grow by 50%

  00008	ba ff ff ff 0f	 mov	 edx, 268435455		; 0fffffffH
  0000d	c1 f8 04	 sar	 eax, 4
  00010	8b c8		 mov	 ecx, eax
  00012	d1 e9		 shr	 ecx, 1
  00014	2b d1		 sub	 edx, ecx
  00016	3b d0		 cmp	 edx, eax
  00018	73 04		 jae	 SHORT $LN4@Grow_to
  0001a	33 c0		 xor	 eax, eax
  0001c	eb 02		 jmp	 SHORT $LN5@Grow_to
$LN4@Grow_to:
  0001e	03 c1		 add	 eax, ecx
$LN5@Grow_to:

; 1279 : 		if (_Capacity < _Count)

  00020	3b 45 08	 cmp	 eax, DWORD PTR __Count$[ebp]

; 1280 : 			_Capacity = _Count;

  00023	0f 42 45 08	 cmovb	 eax, DWORD PTR __Count$[ebp]

; 1281 : 		return (_Capacity);
; 1282 : 		}

  00027	5d		 pop	 ebp
  00028	c2 04 00	 ret	 4
?_Grow_to@?$vector@VioHashString@@V?$allocator@VioHashString@@@std@@@std@@IBEII@Z ENDP ; std::vector<ioHashString,std::allocator<ioHashString> >::_Grow_to
_TEXT	ENDS
PUBLIC	?_Make_iter@?$vector@UCustomTexture@@V?$allocator@UCustomTexture@@@std@@@std@@QBE?AV?$_Vector_iterator@V?$_Vector_val@UCustomTexture@@V?$allocator@UCustomTexture@@@std@@@std@@@2@V?$_Vector_const_iterator@V?$_Vector_val@UCustomTexture@@V?$allocator@UCustomTexture@@@std@@@std@@@2@@Z ; std::vector<CustomTexture,std::allocator<CustomTexture> >::_Make_iter
; Function compile flags: /Ogsp
;	COMDAT ?_Make_iter@?$vector@UCustomTexture@@V?$allocator@UCustomTexture@@@std@@@std@@QBE?AV?$_Vector_iterator@V?$_Vector_val@UCustomTexture@@V?$allocator@UCustomTexture@@@std@@@std@@@2@V?$_Vector_const_iterator@V?$_Vector_val@UCustomTexture@@V?$allocator@UCustomTexture@@@std@@@std@@@2@@Z
_TEXT	SEGMENT
___$ReturnUdt$ = 8					; size = 4
__Where$ = 12						; size = 4
?_Make_iter@?$vector@UCustomTexture@@V?$allocator@UCustomTexture@@@std@@@std@@QBE?AV?$_Vector_iterator@V?$_Vector_val@UCustomTexture@@V?$allocator@UCustomTexture@@@std@@@std@@@2@V?$_Vector_const_iterator@V?$_Vector_val@UCustomTexture@@V?$allocator@UCustomTexture@@@std@@@std@@@2@@Z PROC ; std::vector<CustomTexture,std::allocator<CustomTexture> >::_Make_iter, COMDAT
; _this$ = ecx

; 801  : 		{	// make iterator from const_iterator

  00000	55		 push	 ebp
  00001	8b ec		 mov	 ebp, esp

; 802  : 		return (iterator(_Where._Ptr, this));

  00003	8b 45 08	 mov	 eax, DWORD PTR ___$ReturnUdt$[ebp]
  00006	8b 4d 0c	 mov	 ecx, DWORD PTR __Where$[ebp]
  00009	89 08		 mov	 DWORD PTR [eax], ecx

; 803  : 		}

  0000b	5d		 pop	 ebp
  0000c	c2 08 00	 ret	 8
?_Make_iter@?$vector@UCustomTexture@@V?$allocator@UCustomTexture@@@std@@@std@@QBE?AV?$_Vector_iterator@V?$_Vector_val@UCustomTexture@@V?$allocator@UCustomTexture@@@std@@@std@@@2@V?$_Vector_const_iterator@V?$_Vector_val@UCustomTexture@@V?$allocator@UCustomTexture@@@std@@@std@@@2@@Z ENDP ; std::vector<CustomTexture,std::allocator<CustomTexture> >::_Make_iter
_TEXT	ENDS
PUBLIC	??9?$_Vector_const_iterator@V?$_Vector_val@UCustomTexture@@V?$allocator@UCustomTexture@@@std@@@std@@@std@@QBE_NABV01@@Z ; std::_Vector_const_iterator<std::_Vector_val<CustomTexture,std::allocator<CustomTexture> > >::operator!=
; Function compile flags: /Ogsp
;	COMDAT ??9?$_Vector_const_iterator@V?$_Vector_val@UCustomTexture@@V?$allocator@UCustomTexture@@@std@@@std@@@std@@QBE_NABV01@@Z
_TEXT	SEGMENT
__Right$ = 8						; size = 4
??9?$_Vector_const_iterator@V?$_Vector_val@UCustomTexture@@V?$allocator@UCustomTexture@@@std@@@std@@@std@@QBE_NABV01@@Z PROC ; std::_Vector_const_iterator<std::_Vector_val<CustomTexture,std::allocator<CustomTexture> > >::operator!=, COMDAT
; _this$ = ecx

; 207  : 		{	// test for iterator inequality

  00000	55		 push	 ebp
  00001	8b ec		 mov	 ebp, esp

; 208  : 		return (!(*this == _Right));

  00003	8b 01		 mov	 eax, DWORD PTR [ecx]
  00005	8b 55 08	 mov	 edx, DWORD PTR __Right$[ebp]
  00008	33 c9		 xor	 ecx, ecx
  0000a	3b 02		 cmp	 eax, DWORD PTR [edx]
  0000c	0f 95 c0	 setne	 al

; 209  : 		}

  0000f	5d		 pop	 ebp
  00010	c2 04 00	 ret	 4
??9?$_Vector_const_iterator@V?$_Vector_val@UCustomTexture@@V?$allocator@UCustomTexture@@@std@@@std@@@std@@QBE_NABV01@@Z ENDP ; std::_Vector_const_iterator<std::_Vector_val<CustomTexture,std::allocator<CustomTexture> > >::operator!=
_TEXT	ENDS
PUBLIC	??$_Cons_val@V?$allocator@VioHashString@@@std@@VioHashString@@AAV3@@std@@YAXAAV?$allocator@VioHashString@@@0@PAVioHashString@@AAV2@@Z ; std::_Cons_val<std::allocator<ioHashString>,ioHashString,ioHashString &>
; Function compile flags: /Ogsp
; File c:\program files (x86)\microsoft visual studio 10.0\vc\include\xmemory
;	COMDAT ??$_Cons_val@V?$allocator@VioHashString@@@std@@VioHashString@@AAV3@@std@@YAXAAV?$allocator@VioHashString@@@0@PAVioHashString@@AAV2@@Z
_TEXT	SEGMENT
__Alval$ = 8						; size = 4
__Pdest$ = 12						; size = 4
__Src$ = 16						; size = 4
??$_Cons_val@V?$allocator@VioHashString@@@std@@VioHashString@@AAV3@@std@@YAXAAV?$allocator@VioHashString@@@0@PAVioHashString@@AAV2@@Z PROC ; std::_Cons_val<std::allocator<ioHashString>,ioHashString,ioHashString &>, COMDAT

; 279  : 	{	// construct using allocator

  00000	55		 push	 ebp
  00001	8b ec		 mov	 ebp, esp

; 280  : 	_Alval.construct(_Pdest, _STD forward<_Ty2>(_Src));

  00003	ff 75 10	 push	 DWORD PTR __Src$[ebp]
  00006	8b 4d 08	 mov	 ecx, DWORD PTR __Alval$[ebp]
  00009	ff 75 0c	 push	 DWORD PTR __Pdest$[ebp]
  0000c	e8 00 00 00 00	 call	 ??$construct@AAVioHashString@@@?$allocator@VioHashString@@@std@@QAEXPAVioHashString@@AAV2@@Z ; std::allocator<ioHashString>::construct<ioHashString &>

; 281  : 	}

  00011	5d		 pop	 ebp
  00012	c3		 ret	 0
??$_Cons_val@V?$allocator@VioHashString@@@std@@VioHashString@@AAV3@@std@@YAXAAV?$allocator@VioHashString@@@0@PAVioHashString@@AAV2@@Z ENDP ; std::_Cons_val<std::allocator<ioHashString>,ioHashString,ioHashString &>
_TEXT	ENDS
PUBLIC	??$_Move@PAUCustomTexture@@PAU1@@std@@YAPAUCustomTexture@@PAU1@00@Z ; std::_Move<CustomTexture *,CustomTexture *>
; Function compile flags: /Ogsp
; File c:\program files (x86)\microsoft visual studio 10.0\vc\include\xutility
;	COMDAT ??$_Move@PAUCustomTexture@@PAU1@@std@@YAPAUCustomTexture@@PAU1@00@Z
_TEXT	SEGMENT
__Cat$572522 = -4					; size = 1
__First$ = 8						; size = 4
__Last$ = 12						; size = 4
__Dest$ = 16						; size = 4
??$_Move@PAUCustomTexture@@PAU1@@std@@YAPAUCustomTexture@@PAU1@00@Z PROC ; std::_Move<CustomTexture *,CustomTexture *>, COMDAT

; 2533 : 	{	// move [_First, _Last) to [_Dest, ...), unchecked

  00000	55		 push	 ebp
  00001	8b ec		 mov	 ebp, esp
  00003	51		 push	 ecx

; 2534 : 	return (_Move(_First, _Last,
; 2535 : 		_Dest, _Ptr_cat(_First, _Dest)));

  00004	ff 75 fc	 push	 DWORD PTR __Cat$572522[ebp]
  00007	ff 75 10	 push	 DWORD PTR __Dest$[ebp]
  0000a	ff 75 0c	 push	 DWORD PTR __Last$[ebp]
  0000d	ff 75 08	 push	 DWORD PTR __First$[ebp]
  00010	e8 00 00 00 00	 call	 ??$_Move@PAUCustomTexture@@PAU1@@std@@YAPAUCustomTexture@@PAU1@00U_Nonscalar_ptr_iterator_tag@0@@Z ; std::_Move<CustomTexture *,CustomTexture *>
  00015	83 c4 10	 add	 esp, 16			; 00000010H

; 2536 : 	}

  00018	c9		 leave
  00019	c3		 ret	 0
??$_Move@PAUCustomTexture@@PAU1@@std@@YAPAUCustomTexture@@PAU1@00@Z ENDP ; std::_Move<CustomTexture *,CustomTexture *>
_TEXT	ENDS
PUBLIC	??$_Dest_val@V?$allocator@U_Node@?$_List_nod@MV?$allocator@M@std@@@std@@@std@@U_Node@?$_List_nod@MV?$allocator@M@std@@@2@@std@@YAXAAV?$allocator@U_Node@?$_List_nod@MV?$allocator@M@std@@@std@@@0@PAU_Node@?$_List_nod@MV?$allocator@M@std@@@0@@Z ; std::_Dest_val<std::allocator<std::_List_nod<float,std::allocator<float> >::_Node>,std::_List_nod<float,std::allocator<float> >::_Node>
; Function compile flags: /Ogsp
; File c:\program files (x86)\microsoft visual studio 10.0\vc\include\xmemory
;	COMDAT ??$_Dest_val@V?$allocator@U_Node@?$_List_nod@MV?$allocator@M@std@@@std@@@std@@U_Node@?$_List_nod@MV?$allocator@M@std@@@2@@std@@YAXAAV?$allocator@U_Node@?$_List_nod@MV?$allocator@M@std@@@std@@@0@PAU_Node@?$_List_nod@MV?$allocator@M@std@@@0@@Z
_TEXT	SEGMENT
__Alval$ = 8						; size = 4
__Pdest$ = 12						; size = 4
??$_Dest_val@V?$allocator@U_Node@?$_List_nod@MV?$allocator@M@std@@@std@@@std@@U_Node@?$_List_nod@MV?$allocator@M@std@@@2@@std@@YAXAAV?$allocator@U_Node@?$_List_nod@MV?$allocator@M@std@@@std@@@0@PAU_Node@?$_List_nod@MV?$allocator@M@std@@@0@@Z PROC ; std::_Dest_val<std::allocator<std::_List_nod<float,std::allocator<float> >::_Node>,std::_List_nod<float,std::allocator<float> >::_Node>, COMDAT

; 287  : 	_Alval.destroy(_Pdest);
; 288  : 	}

  00000	c3		 ret	 0
??$_Dest_val@V?$allocator@U_Node@?$_List_nod@MV?$allocator@M@std@@@std@@@std@@U_Node@?$_List_nod@MV?$allocator@M@std@@@2@@std@@YAXAAV?$allocator@U_Node@?$_List_nod@MV?$allocator@M@std@@@std@@@0@PAU_Node@?$_List_nod@MV?$allocator@M@std@@@0@@Z ENDP ; std::_Dest_val<std::allocator<std::_List_nod<float,std::allocator<float> >::_Node>,std::_List_nod<float,std::allocator<float> >::_Node>
_TEXT	ENDS
PUBLIC	??$_Cons_val@V?$allocator@VioHashString@@@std@@VioHashString@@V3@@std@@YAXAAV?$allocator@VioHashString@@@0@PAVioHashString@@$$QAV2@@Z ; std::_Cons_val<std::allocator<ioHashString>,ioHashString,ioHashString>
; Function compile flags: /Ogsp
;	COMDAT ??$_Cons_val@V?$allocator@VioHashString@@@std@@VioHashString@@V3@@std@@YAXAAV?$allocator@VioHashString@@@0@PAVioHashString@@$$QAV2@@Z
_TEXT	SEGMENT
__Alval$ = 8						; size = 4
__Pdest$ = 12						; size = 4
__Src$ = 16						; size = 4
??$_Cons_val@V?$allocator@VioHashString@@@std@@VioHashString@@V3@@std@@YAXAAV?$allocator@VioHashString@@@0@PAVioHashString@@$$QAV2@@Z PROC ; std::_Cons_val<std::allocator<ioHashString>,ioHashString,ioHashString>, COMDAT

; 279  : 	{	// construct using allocator

  00000	55		 push	 ebp
  00001	8b ec		 mov	 ebp, esp

; 280  : 	_Alval.construct(_Pdest, _STD forward<_Ty2>(_Src));

  00003	ff 75 10	 push	 DWORD PTR __Src$[ebp]
  00006	8b 4d 08	 mov	 ecx, DWORD PTR __Alval$[ebp]
  00009	ff 75 0c	 push	 DWORD PTR __Pdest$[ebp]
  0000c	e8 00 00 00 00	 call	 ?construct@?$allocator@VioHashString@@@std@@QAEXPAVioHashString@@$$QAV3@@Z ; std::allocator<ioHashString>::construct

; 281  : 	}

  00011	5d		 pop	 ebp
  00012	c3		 ret	 0
??$_Cons_val@V?$allocator@VioHashString@@@std@@VioHashString@@V3@@std@@YAXAAV?$allocator@VioHashString@@@0@PAVioHashString@@$$QAV2@@Z ENDP ; std::_Cons_val<std::allocator<ioHashString>,ioHashString,ioHashString>
_TEXT	ENDS
PUBLIC	??0?$vector@VioHashString@@V?$allocator@VioHashString@@@std@@@std@@QAE@XZ ; std::vector<ioHashString,std::allocator<ioHashString> >::vector<ioHashString,std::allocator<ioHashString> >
; Function compile flags: /Ogsp
; File c:\program files (x86)\microsoft visual studio 10.0\vc\include\vector
;	COMDAT ??0?$vector@VioHashString@@V?$allocator@VioHashString@@@std@@@std@@QAE@XZ
_TEXT	SEGMENT
??0?$vector@VioHashString@@V?$allocator@VioHashString@@@std@@@std@@QAE@XZ PROC ; std::vector<ioHashString,std::allocator<ioHashString> >::vector<ioHashString,std::allocator<ioHashString> >, COMDAT
; _this$ = ecx

; 507  : 		{	// construct empty vector

  00000	8b c1		 mov	 eax, ecx
  00002	33 c9		 xor	 ecx, ecx
  00004	89 08		 mov	 DWORD PTR [eax], ecx
  00006	89 48 04	 mov	 DWORD PTR [eax+4], ecx
  00009	89 48 08	 mov	 DWORD PTR [eax+8], ecx

; 508  : 		}

  0000c	c3		 ret	 0
??0?$vector@VioHashString@@V?$allocator@VioHashString@@@std@@@std@@QAE@XZ ENDP ; std::vector<ioHashString,std::allocator<ioHashString> >::vector<ioHashString,std::allocator<ioHashString> >
_TEXT	ENDS
PUBLIC	??0?$vector@UCustomTexture@@V?$allocator@UCustomTexture@@@std@@@std@@QAE@XZ ; std::vector<CustomTexture,std::allocator<CustomTexture> >::vector<CustomTexture,std::allocator<CustomTexture> >
; Function compile flags: /Ogsp
;	COMDAT ??0?$vector@UCustomTexture@@V?$allocator@UCustomTexture@@@std@@@std@@QAE@XZ
_TEXT	SEGMENT
??0?$vector@UCustomTexture@@V?$allocator@UCustomTexture@@@std@@@std@@QAE@XZ PROC ; std::vector<CustomTexture,std::allocator<CustomTexture> >::vector<CustomTexture,std::allocator<CustomTexture> >, COMDAT
; _this$ = ecx

; 507  : 		{	// construct empty vector

  00000	8b c1		 mov	 eax, ecx
  00002	33 c9		 xor	 ecx, ecx
  00004	89 08		 mov	 DWORD PTR [eax], ecx
  00006	89 48 04	 mov	 DWORD PTR [eax+4], ecx
  00009	89 48 08	 mov	 DWORD PTR [eax+8], ecx

; 508  : 		}

  0000c	c3		 ret	 0
??0?$vector@UCustomTexture@@V?$allocator@UCustomTexture@@@std@@@std@@QAE@XZ ENDP ; std::vector<CustomTexture,std::allocator<CustomTexture> >::vector<CustomTexture,std::allocator<CustomTexture> >
_TEXT	ENDS
PUBLIC	??9?$_Vector_const_iterator@V?$_Vector_val@VioHashString@@V?$allocator@VioHashString@@@std@@@std@@@std@@QBE_NABV01@@Z ; std::_Vector_const_iterator<std::_Vector_val<ioHashString,std::allocator<ioHashString> > >::operator!=
; Function compile flags: /Ogsp
;	COMDAT ??9?$_Vector_const_iterator@V?$_Vector_val@VioHashString@@V?$allocator@VioHashString@@@std@@@std@@@std@@QBE_NABV01@@Z
_TEXT	SEGMENT
__Right$ = 8						; size = 4
??9?$_Vector_const_iterator@V?$_Vector_val@VioHashString@@V?$allocator@VioHashString@@@std@@@std@@@std@@QBE_NABV01@@Z PROC ; std::_Vector_const_iterator<std::_Vector_val<ioHashString,std::allocator<ioHashString> > >::operator!=, COMDAT
; _this$ = ecx

; 207  : 		{	// test for iterator inequality

  00000	55		 push	 ebp
  00001	8b ec		 mov	 ebp, esp

; 208  : 		return (!(*this == _Right));

  00003	8b 01		 mov	 eax, DWORD PTR [ecx]
  00005	8b 55 08	 mov	 edx, DWORD PTR __Right$[ebp]
  00008	33 c9		 xor	 ecx, ecx
  0000a	3b 02		 cmp	 eax, DWORD PTR [edx]
  0000c	0f 95 c0	 setne	 al

; 209  : 		}

  0000f	5d		 pop	 ebp
  00010	c2 04 00	 ret	 4
??9?$_Vector_const_iterator@V?$_Vector_val@VioHashString@@V?$allocator@VioHashString@@@std@@@std@@@std@@QBE_NABV01@@Z ENDP ; std::_Vector_const_iterator<std::_Vector_val<ioHashString,std::allocator<ioHashString> > >::operator!=
_TEXT	ENDS
PUBLIC	?destroy@?$allocator@VioHashString@@@std@@QAEXPAVioHashString@@@Z ; std::allocator<ioHashString>::destroy
; Function compile flags: /Ogsp
; File c:\program files (x86)\microsoft visual studio 10.0\vc\include\xmemory
;	COMDAT ?destroy@?$allocator@VioHashString@@@std@@QAEXPAVioHashString@@@Z
_TEXT	SEGMENT
__Ptr$ = 8						; size = 4
?destroy@?$allocator@VioHashString@@@std@@QAEXPAVioHashString@@@Z PROC ; std::allocator<ioHashString>::destroy, COMDAT
; _this$ = ecx

; 212  : 		{	// destroy object at _Ptr

  00000	55		 push	 ebp
  00001	8b ec		 mov	 ebp, esp

; 213  : 		_Destroy(_Ptr);

  00003	8b 4d 08	 mov	 ecx, DWORD PTR __Ptr$[ebp]
  00006	ff 15 00 00 00
	00		 call	 DWORD PTR __imp_??1ioHashString@@QAE@XZ

; 214  : 		}

  0000c	5d		 pop	 ebp
  0000d	c2 04 00	 ret	 4
?destroy@?$allocator@VioHashString@@@std@@QAEXPAVioHashString@@@Z ENDP ; std::allocator<ioHashString>::destroy
_TEXT	ENDS
PUBLIC	??$_Cons_val@V?$allocator@VioHashString@@@std@@VioHashString@@ABV3@@std@@YAXAAV?$allocator@VioHashString@@@0@PAVioHashString@@ABV2@@Z ; std::_Cons_val<std::allocator<ioHashString>,ioHashString,ioHashString const &>
; Function compile flags: /Ogsp
;	COMDAT ??$_Cons_val@V?$allocator@VioHashString@@@std@@VioHashString@@ABV3@@std@@YAXAAV?$allocator@VioHashString@@@0@PAVioHashString@@ABV2@@Z
_TEXT	SEGMENT
__Alval$ = 8						; size = 4
__Pdest$ = 12						; size = 4
__Src$ = 16						; size = 4
??$_Cons_val@V?$allocator@VioHashString@@@std@@VioHashString@@ABV3@@std@@YAXAAV?$allocator@VioHashString@@@0@PAVioHashString@@ABV2@@Z PROC ; std::_Cons_val<std::allocator<ioHashString>,ioHashString,ioHashString const &>, COMDAT

; 279  : 	{	// construct using allocator

  00000	55		 push	 ebp
  00001	8b ec		 mov	 ebp, esp

; 280  : 	_Alval.construct(_Pdest, _STD forward<_Ty2>(_Src));

  00003	ff 75 10	 push	 DWORD PTR __Src$[ebp]
  00006	ff 75 0c	 push	 DWORD PTR __Pdest$[ebp]
  00009	e8 00 00 00 00	 call	 ??$_Construct@VioHashString@@ABV1@@std@@YAXPAVioHashString@@ABV1@@Z ; std::_Construct<ioHashString,ioHashString const &>
  0000e	59		 pop	 ecx
  0000f	59		 pop	 ecx

; 281  : 	}

  00010	5d		 pop	 ebp
  00011	c3		 ret	 0
??$_Cons_val@V?$allocator@VioHashString@@@std@@VioHashString@@ABV3@@std@@YAXAAV?$allocator@VioHashString@@@0@PAVioHashString@@ABV2@@Z ENDP ; std::_Cons_val<std::allocator<ioHashString>,ioHashString,ioHashString const &>
_TEXT	ENDS
PUBLIC	??$_Destroy@UCustomTexture@@@std@@YAXPAUCustomTexture@@@Z ; std::_Destroy<CustomTexture>
; Function compile flags: /Ogsp
;	COMDAT ??$_Destroy@UCustomTexture@@@std@@YAXPAUCustomTexture@@@Z
_TEXT	SEGMENT
__Ptr$ = 8						; size = 4
??$_Destroy@UCustomTexture@@@std@@YAXPAUCustomTexture@@@Z PROC ; std::_Destroy<CustomTexture>, COMDAT

; 62   : 	{	// destroy object at _Ptr

  00000	55		 push	 ebp
  00001	8b ec		 mov	 ebp, esp

; 63   : 	_Ptr->~_Ty();

  00003	8b 4d 08	 mov	 ecx, DWORD PTR __Ptr$[ebp]
  00006	83 c1 04	 add	 ecx, 4

; 64   : 	}

  00009	5d		 pop	 ebp

; 63   : 	_Ptr->~_Ty();

  0000a	ff 25 00 00 00
	00		 jmp	 DWORD PTR __imp_??1ioHashString@@QAE@XZ
??$_Destroy@UCustomTexture@@@std@@YAXPAUCustomTexture@@@Z ENDP ; std::_Destroy<CustomTexture>
_TEXT	ENDS
PUBLIC	?SetDefaultBeard@ioCreateChar@@QAEXABVioHashString@@@Z ; ioCreateChar::SetDefaultBeard
; Function compile flags: /Ogsp
; File d:\lost saga for developer\youtube\tutorial\source\src\lsclient\iocreatechar.cpp
;	COMDAT ?SetDefaultBeard@ioCreateChar@@QAEXABVioHashString@@@Z
_TEXT	SEGMENT
_szBeard$ = 8						; size = 4
?SetDefaultBeard@ioCreateChar@@QAEXABVioHashString@@@Z PROC ; ioCreateChar::SetDefaultBeard, COMDAT
; _this$ = ecx

; 202  : {

  00000	55		 push	 ebp
  00001	8b ec		 mov	 ebp, esp
  00003	56		 push	 esi
  00004	8b f1		 mov	 esi, ecx

; 203  : 	if( szBeard.IsEmpty() )

  00006	8b 4d 08	 mov	 ecx, DWORD PTR _szBeard$[ebp]
  00009	ff 15 00 00 00
	00		 call	 DWORD PTR __imp_?IsEmpty@ioHashString@@QBE_NXZ
  0000f	84 c0		 test	 al, al
  00011	75 45		 jne	 SHORT $LN3@SetDefault

; 204  : 		return;
; 205  : 
; 206  : 	if( m_DefaultBeardMesh == szBeard )

  00013	57		 push	 edi
  00014	ff 75 08	 push	 DWORD PTR _szBeard$[ebp]
  00017	8d be 80 01 00
	00		 lea	 edi, DWORD PTR [esi+384]
  0001d	8b cf		 mov	 ecx, edi
  0001f	ff 15 00 00 00
	00		 call	 DWORD PTR __imp_??8ioHashString@@QBE_NABV0@@Z
  00025	84 c0		 test	 al, al
  00027	75 2e		 jne	 SHORT $LN5@SetDefault

; 207  : 		return;
; 208  : 
; 209  : 	RemoveEntityInOwner( m_DefaultBeardMesh );

  00029	6a 00		 push	 0
  0002b	57		 push	 edi
  0002c	8b ce		 mov	 ecx, esi
  0002e	e8 00 00 00 00	 call	 ?RemoveEntityInOwner@ioCreateChar@@IAE_NABVioHashString@@_N@Z ; ioCreateChar::RemoveEntityInOwner

; 210  : 
; 211  : 	m_DefaultBeardMesh = szBeard;

  00033	ff 75 08	 push	 DWORD PTR _szBeard$[ebp]
  00036	8b cf		 mov	 ecx, edi
  00038	ff 15 00 00 00
	00		 call	 DWORD PTR __imp_??4ioHashString@@QAEAAV0@ABV0@@Z

; 212  : 
; 213  : 	AddEntityToOwner( m_DefaultBeardMesh );

  0003e	6a 00		 push	 0
  00040	57		 push	 edi
  00041	8b ce		 mov	 ecx, esi
  00043	e8 00 00 00 00	 call	 ?AddEntityToOwner@ioCreateChar@@IAEPAVioEntity@@ABVioHashString@@_N@Z ; ioCreateChar::AddEntityToOwner

; 214  : 	SetBeardColor( m_BeardColorTex, m_BeardOutLineColor );

  00048	8d 46 70	 lea	 eax, DWORD PTR [esi+112]
  0004b	50		 push	 eax
  0004c	8d 46 60	 lea	 eax, DWORD PTR [esi+96]
  0004f	50		 push	 eax
  00050	8b ce		 mov	 ecx, esi
  00052	e8 00 00 00 00	 call	 ?SetBeardColor@ioCreateChar@@QAEXABVioHashString@@ABU_D3DCOLORVALUE@@@Z ; ioCreateChar::SetBeardColor
$LN5@SetDefault:
  00057	5f		 pop	 edi
$LN3@SetDefault:
  00058	5e		 pop	 esi

; 215  : }

  00059	5d		 pop	 ebp
  0005a	c2 04 00	 ret	 4
?SetDefaultBeard@ioCreateChar@@QAEXABVioHashString@@@Z ENDP ; ioCreateChar::SetDefaultBeard
_TEXT	ENDS
PUBLIC	_szEffect$GSCopy$
PUBLIC	_szFace$GSCopy$
PUBLIC	__$ArrayPad$
PUBLIC	?SetDefaultFace@ioCreateChar@@QAEXABVioHashString@@0H@Z ; ioCreateChar::SetDefaultFace
EXTRN	?GetInvisibleFaceType@ioHelmetItem@@QBE?AW4InvisibleFaceType@1@XZ:PROC ; ioHelmetItem::GetInvisibleFaceType
EXTRN	?GetChangeFace@ioHelmetItem@@QBE?AW4HelmetFace@1@_N@Z:PROC ; ioHelmetItem::GetChangeFace
; Function compile flags: /Ogsp
;	COMDAT ?SetDefaultFace@ioCreateChar@@QAEXABVioHashString@@0H@Z
_TEXT	SEGMENT
_szFace$GSCopy$ = -584					; size = 4
_szEffect$GSCopy$ = -580				; size = 4
_eInvisibleFaceType$ = -576				; size = 4
_eFaceType$ = -572					; size = 4
_bApply$ = -565						; size = 1
_szHalfFace$ = -564					; size = 260
_szFullName$ = -304					; size = 260
___encStr$566111 = -44					; size = 21
___encStr$565959 = -16					; size = 8
__$ArrayPad$ = -4					; size = 4
_szFace$ = 8						; size = 4
_szEffect$ = 12						; size = 4
_iFaceType$ = 16					; size = 4
?SetDefaultFace@ioCreateChar@@QAEXABVioHashString@@0H@Z PROC ; ioCreateChar::SetDefaultFace, COMDAT
; _this$ = ecx

; 218  : {

  00000	55		 push	 ebp
  00001	8b ec		 mov	 ebp, esp
  00003	81 ec 48 02 00
	00		 sub	 esp, 584		; 00000248H
  00009	a1 00 00 00 00	 mov	 eax, DWORD PTR ___security_cookie
  0000e	33 c5		 xor	 eax, ebp
  00010	89 45 fc	 mov	 DWORD PTR __$ArrayPad$[ebp], eax
  00013	8b 45 0c	 mov	 eax, DWORD PTR _szEffect$[ebp]
  00016	56		 push	 esi
  00017	57		 push	 edi
  00018	8b 7d 08	 mov	 edi, DWORD PTR _szFace$[ebp]
  0001b	8b f1		 mov	 esi, ecx

; 219  : 	if( szFace.IsEmpty() )

  0001d	8b cf		 mov	 ecx, edi

; 232  : 	{
; 233  : 		eFaceType = pHelmet->GetChangeFace( m_bMale );

  0001f	89 bd b8 fd ff
	ff		 mov	 DWORD PTR _szFace$GSCopy$[ebp], edi

; 312  : 		{
; 313  : 		case ioHelmetItem::IFT_ALL:
; 314  : 			ShowFaceMesh( false );

  00025	89 85 bc fd ff
	ff		 mov	 DWORD PTR _szEffect$GSCopy$[ebp], eax
  0002b	ff 15 00 00 00
	00		 call	 DWORD PTR __imp_?IsEmpty@ioHashString@@QBE_NXZ
  00031	84 c0		 test	 al, al
  00033	0f 85 a5 02 00
	00		 jne	 $LN6@SetDefault@2

; 220  : 		return;
; 221  : 
; 222  : 	if( m_DefaultFaceMesh == szFace )

  00039	8d 8e f0 00 00
	00		 lea	 ecx, DWORD PTR [esi+240]
  0003f	57		 push	 edi
  00040	ff 15 00 00 00
	00		 call	 DWORD PTR __imp_??8ioHashString@@QBE_NABV0@@Z
  00046	84 c0		 test	 al, al
  00048	0f 85 90 02 00
	00		 jne	 $LN6@SetDefault@2

; 223  : 		return;
; 224  : 
; 225  : 	ioHelmetItem::HelmetFace eFaceType = ioHelmetItem::HF_NONE;

  0004e	53		 push	 ebx
  0004f	33 db		 xor	 ebx, ebx

; 226  : 	ioHelmetItem::InvisibleFaceType eInvisibleFaceType = ioHelmetItem::IFT_NONE;
; 227  : 	bool bApply = false;
; 228  : 
; 229  : 	const ioItem *pItem = GetSlotItem( CCS_HELMET );

  00051	6a 02		 push	 2
  00053	8b ce		 mov	 ecx, esi
  00055	89 9d c4 fd ff
	ff		 mov	 DWORD PTR _eFaceType$[ebp], ebx
  0005b	89 9d c0 fd ff
	ff		 mov	 DWORD PTR _eInvisibleFaceType$[ebp], ebx
  00061	88 9d cb fd ff
	ff		 mov	 BYTE PTR _bApply$[ebp], bl
  00067	e8 00 00 00 00	 call	 ?GetSlotItem@ioCreateChar@@QAEPBVioItem@@H@Z ; ioCreateChar::GetSlotItem

; 230  : 	const ioHelmetItem *pHelmet = ToHelmetItemConst( pItem );

  0006c	50		 push	 eax
  0006d	e8 00 00 00 00	 call	 ?ToHelmetItemConst@@YAPBVioHelmetItem@@PBVioItem@@@Z ; ToHelmetItemConst
  00072	8b f8		 mov	 edi, eax
  00074	59		 pop	 ecx

; 231  : 	if ( pHelmet )

  00075	3b fb		 cmp	 edi, ebx
  00077	74 26		 je	 SHORT $LN255@SetDefault@2

; 232  : 	{
; 233  : 		eFaceType = pHelmet->GetChangeFace( m_bMale );

  00079	0f b6 46 1c	 movzx	 eax, BYTE PTR [esi+28]
  0007d	50		 push	 eax
  0007e	8b cf		 mov	 ecx, edi
  00080	e8 00 00 00 00	 call	 ?GetChangeFace@ioHelmetItem@@QBE?AW4HelmetFace@1@_N@Z ; ioHelmetItem::GetChangeFace

; 234  : 		eInvisibleFaceType = pHelmet->GetInvisibleFaceType();

  00085	8b cf		 mov	 ecx, edi
  00087	89 85 c4 fd ff
	ff		 mov	 DWORD PTR _eFaceType$[ebp], eax
  0008d	e8 00 00 00 00	 call	 ?GetInvisibleFaceType@ioHelmetItem@@QBE?AW4InvisibleFaceType@1@XZ ; ioHelmetItem::GetInvisibleFaceType
  00092	89 85 c0 fd ff
	ff		 mov	 DWORD PTR _eInvisibleFaceType$[ebp], eax

; 235  : 		bApply = true;

  00098	c6 85 cb fd ff
	ff 01		 mov	 BYTE PTR _bApply$[ebp], 1
$LN255@SetDefault@2:

; 236  : 	}
; 237  : 
; 238  : 	const CostumeInfo &HelmetCostume = m_CostumeSlot[CCS_HELMET];
; 239  : 	if ( HelmetCostume.m_nCostumeCode > 0 )

  0009f	39 9e f0 03 00
	00		 cmp	 DWORD PTR [esi+1008], ebx
  000a5	7e 2c		 jle	 SHORT $LN221@SetDefault@2

; 240  : 	{
; 241  : 		if ( m_bMale )

  000a7	38 5e 1c	 cmp	 BYTE PTR [esi+28], bl
  000aa	74 08		 je	 SHORT $LN220@SetDefault@2

; 242  : 			eFaceType = (ioHelmetItem::HelmetFace)HelmetCostume.m_nFaceHM;

  000ac	8b 8e 64 04 00
	00		 mov	 ecx, DWORD PTR [esi+1124]

; 243  : 		else

  000b2	eb 06		 jmp	 SHORT $LN258@SetDefault@2
$LN220@SetDefault@2:

; 244  : 			eFaceType = (ioHelmetItem::HelmetFace)HelmetCostume.m_nFaceHW;

  000b4	8b 8e 68 04 00
	00		 mov	 ecx, DWORD PTR [esi+1128]
$LN258@SetDefault@2:

; 245  : 
; 246  : 		eInvisibleFaceType = (ioHelmetItem::InvisibleFaceType)HelmetCostume.m_nInvisibleFaceType;

  000ba	8b 86 60 04 00
	00		 mov	 eax, DWORD PTR [esi+1120]
  000c0	89 8d c4 fd ff
	ff		 mov	 DWORD PTR _eFaceType$[ebp], ecx
  000c6	89 85 c0 fd ff
	ff		 mov	 DWORD PTR _eInvisibleFaceType$[ebp], eax

; 247  : 		bApply = true;

  000cc	c6 85 cb fd ff
	ff 01		 mov	 BYTE PTR _bApply$[ebp], 1
$LN221@SetDefault@2:

; 248  : 	}
; 249  : 
; 250  : 	if( bApply )

  000d3	38 9d cb fd ff
	ff		 cmp	 BYTE PTR _bApply$[ebp], bl
  000d9	74 11		 je	 SHORT $LN218@SetDefault@2

; 251  : 	{
; 252  : 		switch( eFaceType )

  000db	8b 85 c4 fd ff
	ff		 mov	 eax, DWORD PTR _eFaceType$[ebp]
  000e1	48		 dec	 eax
  000e2	75 17		 jne	 SHORT $LN214@SetDefault@2

; 253  : 		{
; 254  : 		case ioHelmetItem::HF_HALF_SKIP:
; 255  : 			RemoveEntityInOwner( m_SkipFaceMesh );

  000e4	8d 86 00 01 00
	00		 lea	 eax, DWORD PTR [esi+256]

; 256  : 			break;
; 257  : 		}
; 258  : 	}
; 259  : 	else

  000ea	eb 06		 jmp	 SHORT $LN259@SetDefault@2
$LN218@SetDefault@2:

; 260  : 	{
; 261  : 		RemoveEntityInOwner( m_DefaultFaceMesh );

  000ec	8d 86 f0 00 00
	00		 lea	 eax, DWORD PTR [esi+240]
$LN259@SetDefault@2:
  000f2	53		 push	 ebx
  000f3	50		 push	 eax
  000f4	8b ce		 mov	 ecx, esi
  000f6	e8 00 00 00 00	 call	 ?RemoveEntityInOwner@ioCreateChar@@IAE_NABVioHashString@@_N@Z ; ioCreateChar::RemoveEntityInOwner
$LN214@SetDefault@2:

; 262  : 	}
; 263  : 
; 264  : 	m_pGrp->EndEffect( m_FaceEffect, false );

  000fb	8b 4e 04	 mov	 ecx, DWORD PTR [esi+4]
  000fe	6a 01		 push	 1
  00100	8d 86 20 01 00
	00		 lea	 eax, DWORD PTR [esi+288]
  00106	53		 push	 ebx
  00107	50		 push	 eax
  00108	ff 15 00 00 00
	00		 call	 DWORD PTR __imp_?EndEffect@ioEntityGroup@@QAEXABVioHashString@@_N1@Z

; 265  : 	
; 266  : 	m_DefaultFaceMesh = szFace;

  0010e	ff b5 b8 fd ff
	ff		 push	 DWORD PTR _szFace$GSCopy$[ebp]
  00114	8b 3d 00 00 00
	00		 mov	 edi, DWORD PTR __imp_??4ioHashString@@QAEAAV0@ABV0@@Z
  0011a	8d 8e f0 00 00
	00		 lea	 ecx, DWORD PTR [esi+240]
  00120	ff d7		 call	 edi

; 267  : 	m_iFaceType = iFaceType;

  00122	8b 45 10	 mov	 eax, DWORD PTR _iFaceType$[ebp]

; 268  : 
; 269  : 	char szHalfFace[MAX_PATH];
; 270  : 	wsprintf_e( szHalfFace, "skip_%s", m_DefaultFaceMesh.c_str() );

  00125	6a 04		 push	 4
  00127	89 86 14 02 00
	00		 mov	 DWORD PTR [esi+532], eax
  0012d	c7 45 f0 9e 87
	82 9a		 mov	 DWORD PTR ___encStr$565959[ebp], -1702721634 ; 9a82879eH
  00134	81 75 f0 ed ec
	eb ea		 xor	 DWORD PTR ___encStr$565959[ebp], -353637139 ; eaebecedH
  0013b	c7 45 f4 b2 c9
	98 00		 mov	 DWORD PTR ___encStr$565959[ebp+4], 10013106 ; 0098c9b2H
  00142	58		 pop	 eax
$LL229@SetDefault@2:
  00143	8b c8		 mov	 ecx, eax
  00145	81 e1 03 00 00
	80		 and	 ecx, -2147483645	; 80000003H
  0014b	79 05		 jns	 SHORT $LN257@SetDefault@2
  0014d	49		 dec	 ecx
  0014e	83 c9 fc	 or	 ecx, -4			; fffffffcH
  00151	41		 inc	 ecx
$LN257@SetDefault@2:
  00152	b2 ed		 mov	 dl, -19			; ffffffedH
  00154	2a d1		 sub	 dl, cl
  00156	30 54 05 f0	 xor	 BYTE PTR ___encStr$565959[ebp+eax], dl
  0015a	40		 inc	 eax
  0015b	83 f8 07	 cmp	 eax, 7
  0015e	7c e3		 jl	 SHORT $LL229@SetDefault@2
  00160	8d 8e f0 00 00
	00		 lea	 ecx, DWORD PTR [esi+240]
  00166	ff 15 00 00 00
	00		 call	 DWORD PTR __imp_?c_str@ioHashString@@QBEPBDXZ
  0016c	50		 push	 eax
  0016d	8d 45 f0	 lea	 eax, DWORD PTR ___encStr$565959[ebp]
  00170	50		 push	 eax
  00171	8d 85 cc fd ff
	ff		 lea	 eax, DWORD PTR _szHalfFace$[ebp]
  00177	50		 push	 eax
  00178	ff 15 00 00 00
	00		 call	 DWORD PTR __imp__wsprintfA
  0017e	83 c4 0c	 add	 esp, 12			; 0000000cH

; 271  : 	m_SkipFaceMesh = szHalfFace;

  00181	8d 85 cc fd ff
	ff		 lea	 eax, DWORD PTR _szHalfFace$[ebp]
  00187	8d 8e 00 01 00
	00		 lea	 ecx, DWORD PTR [esi+256]
  0018d	50		 push	 eax
  0018e	ff 15 00 00 00
	00		 call	 DWORD PTR __imp_??4ioHashString@@QAEAAV0@PBD@Z

; 272  : 
; 273  : 	char szFullName[MAX_PATH]="";

  00194	68 03 01 00 00	 push	 259			; 00000103H
  00199	8d 85 d1 fe ff
	ff		 lea	 eax, DWORD PTR _szFullName$[ebp+1]
  0019f	53		 push	 ebx
  001a0	50		 push	 eax
  001a1	88 9d d0 fe ff
	ff		 mov	 BYTE PTR _szFullName$[ebp], bl
  001a7	e8 00 00 00 00	 call	 _memset
  001ac	83 c4 0c	 add	 esp, 12			; 0000000cH
  001af	6a 05		 push	 5

; 274  : 	StringCbPrintf_e( szFullName, sizeof( szFullName ), "resource\\mesh\\%s.msh" , m_SkipFaceMesh.c_str() );

  001b1	c7 45 d4 9f 89
	98 85		 mov	 DWORD PTR ___encStr$566111[ebp], -2053600865 ; 8598899fH
  001b8	c7 45 d8 98 9e
	88 8f		 mov	 DWORD PTR ___encStr$566111[ebp+4], -1886871912 ; 8f889e98H
  001bf	c7 45 dc b1 81
	8e 99		 mov	 DWORD PTR ___encStr$566111[ebp+8], -1718713935 ; 998e81b1H
  001c6	c7 45 e0 85 b0
	ce 99		 mov	 DWORD PTR ___encStr$566111[ebp+12], -1714507643 ; 99ceb085H
  001cd	c7 45 e4 c3 81
	98 82		 mov	 DWORD PTR ___encStr$566111[ebp+16], -2103934525 ; 829881c3H
  001d4	8d 45 d4	 lea	 eax, DWORD PTR ___encStr$566111[ebp]
  001d7	88 5d e8	 mov	 BYTE PTR ___encStr$566111[ebp+20], bl
  001da	59		 pop	 ecx
$LL240@SetDefault@2:
  001db	81 30 ed ec eb
	ea		 xor	 DWORD PTR [eax], -353637139 ; eaebecedH
  001e1	83 c0 04	 add	 eax, 4
  001e4	49		 dec	 ecx
  001e5	75 f4		 jne	 SHORT $LL240@SetDefault@2
  001e7	8d 8e 00 01 00
	00		 lea	 ecx, DWORD PTR [esi+256]
  001ed	ff 15 00 00 00
	00		 call	 DWORD PTR __imp_?c_str@ioHashString@@QBEPBDXZ
  001f3	50		 push	 eax
  001f4	8d 45 d4	 lea	 eax, DWORD PTR ___encStr$566111[ebp]
  001f7	50		 push	 eax
  001f8	8d 85 d0 fe ff
	ff		 lea	 eax, DWORD PTR _szFullName$[ebp]
  001fe	68 04 01 00 00	 push	 260			; 00000104H
  00203	50		 push	 eax
  00204	e8 00 00 00 00	 call	 ?StringCbPrintfA@@YAJPADIPBDZZ ; StringCbPrintfA
  00209	83 c4 10	 add	 esp, 16			; 00000010H

; 275  : 	if( !g_ResourceLoader.IsFileExist( szFullName ) )

  0020c	8d 85 d0 fe ff
	ff		 lea	 eax, DWORD PTR _szFullName$[ebp]
  00212	53		 push	 ebx
  00213	50		 push	 eax
  00214	ff 15 00 00 00
	00		 call	 DWORD PTR __imp_?GetInstance@ioResourceLoader@@SAAAV1@XZ
  0021a	8b c8		 mov	 ecx, eax
  0021c	ff 15 00 00 00
	00		 call	 DWORD PTR __imp_?IsFileExist@ioResourceLoader@@QAE_NPBD_N@Z
  00222	84 c0		 test	 al, al
  00224	75 0f		 jne	 SHORT $LN15@SetDefault@2

; 276  : 	{
; 277  : 		// half  
; 278  : 		m_SkipFaceMesh = m_DefaultFaceMesh;

  00226	8d 86 f0 00 00
	00		 lea	 eax, DWORD PTR [esi+240]
  0022c	50		 push	 eax
  0022d	8d 8e 00 01 00
	00		 lea	 ecx, DWORD PTR [esi+256]
  00233	ff d7		 call	 edi
$LN15@SetDefault@2:

; 279  : 	}
; 280  : 
; 281  : 	if( bApply )

  00235	38 9d cb fd ff
	ff		 cmp	 BYTE PTR _bApply$[ebp], bl
  0023b	74 24		 je	 SHORT $LN14@SetDefault@2

; 282  : 	{
; 283  : 		switch( eFaceType )

  0023d	8b 85 c4 fd ff
	ff		 mov	 eax, DWORD PTR _eFaceType$[ebp]
  00243	2b c3		 sub	 eax, ebx
  00245	74 1a		 je	 SHORT $LN14@SetDefault@2
  00247	48		 dec	 eax
  00248	75 35		 jne	 SHORT $LN9@SetDefault@2

; 284  : 		{
; 285  : 		case ioHelmetItem::HF_NONE:
; 286  : 			AddEntityToOwner( m_DefaultFaceMesh );
; 287  : 			m_CurFaceMesh = m_DefaultFaceMesh;
; 288  : 			break;
; 289  : 		case ioHelmetItem::HF_HALF_SKIP:
; 290  : 			AddEntityToOwner( m_SkipFaceMesh );

  0024a	53		 push	 ebx
  0024b	8d 86 00 01 00
	00		 lea	 eax, DWORD PTR [esi+256]
  00251	50		 push	 eax
  00252	8b ce		 mov	 ecx, esi
  00254	e8 00 00 00 00	 call	 ?AddEntityToOwner@ioCreateChar@@IAEPAVioEntity@@ABVioHashString@@_N@Z ; ioCreateChar::AddEntityToOwner

; 291  : 			m_CurFaceMesh = m_SkipFaceMesh;

  00259	8d 86 00 01 00
	00		 lea	 eax, DWORD PTR [esi+256]

; 292  : 			break;

  0025f	eb 15		 jmp	 SHORT $LN260@SetDefault@2
$LN14@SetDefault@2:

; 293  : 		}
; 294  : 	}
; 295  : 	else
; 296  : 	{
; 297  : 		AddEntityToOwner( m_DefaultFaceMesh );

  00261	53		 push	 ebx
  00262	8d 86 f0 00 00
	00		 lea	 eax, DWORD PTR [esi+240]
  00268	50		 push	 eax
  00269	8b ce		 mov	 ecx, esi
  0026b	e8 00 00 00 00	 call	 ?AddEntityToOwner@ioCreateChar@@IAEPAVioEntity@@ABVioHashString@@_N@Z ; ioCreateChar::AddEntityToOwner

; 298  : 		m_CurFaceMesh = m_DefaultFaceMesh;

  00270	8d 86 f0 00 00
	00		 lea	 eax, DWORD PTR [esi+240]
$LN260@SetDefault@2:
  00276	50		 push	 eax
  00277	8d 8e 10 01 00
	00		 lea	 ecx, DWORD PTR [esi+272]
  0027d	ff d7		 call	 edi
$LN9@SetDefault@2:

; 299  : 	}
; 300  : 
; 301  : 	UpdateDefaultFaceTextureName();

  0027f	8b ce		 mov	 ecx, esi
  00281	e8 00 00 00 00	 call	 ?UpdateDefaultFaceTextureName@ioCreateChar@@IAEXXZ ; ioCreateChar::UpdateDefaultFaceTextureName

; 302  : 
; 303  : 	m_FaceEffect = szEffect;

  00286	ff b5 bc fd ff
	ff		 push	 DWORD PTR _szEffect$GSCopy$[ebp]
  0028c	8d 8e 20 01 00
	00		 lea	 ecx, DWORD PTR [esi+288]
  00292	ff d7		 call	 edi

; 304  : 	AttachEffect( m_FaceEffect, NULL );

  00294	53		 push	 ebx
  00295	8d 86 20 01 00
	00		 lea	 eax, DWORD PTR [esi+288]
  0029b	50		 push	 eax
  0029c	8b ce		 mov	 ecx, esi
  0029e	e8 00 00 00 00	 call	 ?AttachEffect@ioCreateChar@@QAEPAVioEffect@@ABVioHashString@@PAVioEntityEvent@@@Z ; ioCreateChar::AttachEffect

; 305  : 
; 306  : 	SetSkinColor( m_SkinColor, m_SkinOutLineColor );

  002a3	8d 46 30	 lea	 eax, DWORD PTR [esi+48]
  002a6	50		 push	 eax
  002a7	8d 46 20	 lea	 eax, DWORD PTR [esi+32]
  002aa	50		 push	 eax
  002ab	8b ce		 mov	 ecx, esi
  002ad	e8 00 00 00 00	 call	 ?SetSkinColor@ioCreateChar@@QAEXABU_D3DCOLORVALUE@@0@Z ; ioCreateChar::SetSkinColor

; 307  : 
; 308  : 	//
; 309  : 	if( bApply )

  002b2	38 9d cb fd ff
	ff		 cmp	 BYTE PTR _bApply$[ebp], bl
  002b8	74 23		 je	 SHORT $LN256@SetDefault@2

; 310  : 	{
; 311  : 		switch( eInvisibleFaceType )

  002ba	8b 85 c0 fd ff
	ff		 mov	 eax, DWORD PTR _eInvisibleFaceType$[ebp]
  002c0	48		 dec	 eax
  002c1	74 12		 je	 SHORT $LN5@SetDefault@2
  002c3	48		 dec	 eax
  002c4	74 0a		 je	 SHORT $LN4@SetDefault@2
  002c6	48		 dec	 eax
  002c7	75 14		 jne	 SHORT $LN256@SetDefault@2

; 318  : 				ShowFaceMesh( false );
; 319  : 			break;
; 320  : 		case ioHelmetItem::IFT_FEMALE:
; 321  : 			if( !IsMale() )

  002c9	38 5e 1c	 cmp	 BYTE PTR [esi+28], bl
  002cc	75 0f		 jne	 SHORT $LN256@SetDefault@2

; 322  : 				ShowFaceMesh( false );
; 323  : 			break;

  002ce	eb 05		 jmp	 SHORT $LN5@SetDefault@2
$LN4@SetDefault@2:

; 315  : 			break;
; 316  : 		case ioHelmetItem::IFT_MALE:
; 317  : 			if( IsMale() )

  002d0	38 5e 1c	 cmp	 BYTE PTR [esi+28], bl
  002d3	74 08		 je	 SHORT $LN256@SetDefault@2
$LN5@SetDefault@2:

; 312  : 		{
; 313  : 		case ioHelmetItem::IFT_ALL:
; 314  : 			ShowFaceMesh( false );

  002d5	53		 push	 ebx
  002d6	8b ce		 mov	 ecx, esi
  002d8	e8 00 00 00 00	 call	 ?ShowFaceMesh@ioCreateChar@@QAEX_N@Z ; ioCreateChar::ShowFaceMesh
$LN256@SetDefault@2:
  002dd	5b		 pop	 ebx
$LN6@SetDefault@2:

; 324  : 		}
; 325  : 	}
; 326  : }

  002de	8b 4d fc	 mov	 ecx, DWORD PTR __$ArrayPad$[ebp]
  002e1	5f		 pop	 edi
  002e2	33 cd		 xor	 ecx, ebp
  002e4	5e		 pop	 esi
  002e5	e8 00 00 00 00	 call	 @__security_check_cookie@4
  002ea	c9		 leave
  002eb	c2 0c 00	 ret	 12			; 0000000cH
?SetDefaultFace@ioCreateChar@@QAEXABVioHashString@@0H@Z ENDP ; ioCreateChar::SetDefaultFace
_TEXT	ENDS
PUBLIC	_szHair$GSCopy$
PUBLIC	__$ArrayPad$
PUBLIC	?SetDefaultHair@ioCreateChar@@QAEXABVioHashString@@@Z ; ioCreateChar::SetDefaultHair
EXTRN	?GetChangeHair@ioHelmetItem@@QBE?AW4HelmetHair@1@_N@Z:PROC ; ioHelmetItem::GetChangeHair
; Function compile flags: /Ogsp
;	COMDAT ?SetDefaultHair@ioCreateChar@@QAEXABVioHashString@@@Z
_TEXT	SEGMENT
_szHair$GSCopy$ = -552					; size = 4
_eInvisibleFaceType$ = -548				; size = 4
_eHairType$ = -544					; size = 4
_bApply$ = -537						; size = 1
_szHalfHair$ = -536					; size = 260
_szBindHair$ = -276					; size = 260
___encStr$566463 = -16					; size = 7
___encStr$566312 = -16					; size = 7
__$ArrayPad$ = -4					; size = 4
_szHair$ = 8						; size = 4
?SetDefaultHair@ioCreateChar@@QAEXABVioHashString@@@Z PROC ; ioCreateChar::SetDefaultHair, COMDAT
; _this$ = ecx

; 329  : {

  00000	55		 push	 ebp
  00001	8b ec		 mov	 ebp, esp
  00003	81 ec 28 02 00
	00		 sub	 esp, 552		; 00000228H
  00009	a1 00 00 00 00	 mov	 eax, DWORD PTR ___security_cookie
  0000e	33 c5		 xor	 eax, ebp
  00010	89 45 fc	 mov	 DWORD PTR __$ArrayPad$[ebp], eax
  00013	53		 push	 ebx
  00014	56		 push	 esi
  00015	8b 75 08	 mov	 esi, DWORD PTR _szHair$[ebp]
  00018	8b d9		 mov	 ebx, ecx
  0001a	57		 push	 edi

; 330  : 	if( szHair.IsEmpty() )

  0001b	8b ce		 mov	 ecx, esi

; 420  : 		{
; 421  : 		case ioHelmetItem::IFT_ALL:
; 422  : 			ShowFaceMesh( false );

  0001d	89 b5 d8 fd ff
	ff		 mov	 DWORD PTR _szHair$GSCopy$[ebp], esi
  00023	ff 15 00 00 00
	00		 call	 DWORD PTR __imp_?IsEmpty@ioHashString@@QBE_NXZ
  00029	84 c0		 test	 al, al
  0002b	0f 85 47 02 00
	00		 jne	 $LN6@SetDefault@3

; 331  : 		return;
; 332  : 
; 333  : 	if( m_DefaultHairMesh == szHair )

  00031	8d 8b 40 01 00
	00		 lea	 ecx, DWORD PTR [ebx+320]
  00037	56		 push	 esi
  00038	ff 15 00 00 00
	00		 call	 DWORD PTR __imp_??8ioHashString@@QBE_NABV0@@Z
  0003e	84 c0		 test	 al, al
  00040	0f 85 32 02 00
	00		 jne	 $LN6@SetDefault@3

; 334  : 		return;
; 335  : 
; 336  : 	ioHelmetItem::HelmetHair eHairType = ioHelmetItem::HH_NONE;

  00046	83 8d e0 fd ff
	ff ff		 or	 DWORD PTR _eHairType$[ebp], -1

; 337  : 	ioHelmetItem::InvisibleFaceType eInvisibleFaceType = ioHelmetItem::IFT_NONE;

  0004d	33 f6		 xor	 esi, esi

; 338  : 	bool bApply = false;
; 339  : 
; 340  : 	const ioItem *pItem = GetSlotItem( CCS_HELMET );

  0004f	6a 02		 push	 2
  00051	8b cb		 mov	 ecx, ebx
  00053	89 b5 dc fd ff
	ff		 mov	 DWORD PTR _eInvisibleFaceType$[ebp], esi
  00059	c6 85 e7 fd ff
	ff 00		 mov	 BYTE PTR _bApply$[ebp], 0
  00060	e8 00 00 00 00	 call	 ?GetSlotItem@ioCreateChar@@QAEPBVioItem@@H@Z ; ioCreateChar::GetSlotItem

; 341  : 	const ioHelmetItem *pHelmet = ToHelmetItemConst( pItem );	

  00065	50		 push	 eax
  00066	e8 00 00 00 00	 call	 ?ToHelmetItemConst@@YAPBVioHelmetItem@@PBVioItem@@@Z ; ToHelmetItemConst
  0006b	8b f8		 mov	 edi, eax
  0006d	59		 pop	 ecx

; 342  : 	if ( pHelmet )

  0006e	3b fe		 cmp	 edi, esi
  00070	74 26		 je	 SHORT $LN259@SetDefault@3

; 343  : 	{
; 344  : 		eHairType = pHelmet->GetChangeHair( m_bMale );

  00072	0f b6 43 1c	 movzx	 eax, BYTE PTR [ebx+28]
  00076	50		 push	 eax
  00077	8b cf		 mov	 ecx, edi
  00079	e8 00 00 00 00	 call	 ?GetChangeHair@ioHelmetItem@@QBE?AW4HelmetHair@1@_N@Z ; ioHelmetItem::GetChangeHair

; 345  : 		eInvisibleFaceType = pHelmet->GetInvisibleFaceType();

  0007e	8b cf		 mov	 ecx, edi
  00080	89 85 e0 fd ff
	ff		 mov	 DWORD PTR _eHairType$[ebp], eax
  00086	e8 00 00 00 00	 call	 ?GetInvisibleFaceType@ioHelmetItem@@QBE?AW4InvisibleFaceType@1@XZ ; ioHelmetItem::GetInvisibleFaceType
  0008b	89 85 dc fd ff
	ff		 mov	 DWORD PTR _eInvisibleFaceType$[ebp], eax

; 346  : 		bApply = true;

  00091	c6 85 e7 fd ff
	ff 01		 mov	 BYTE PTR _bApply$[ebp], 1
$LN259@SetDefault@3:

; 347  : 	}
; 348  : 
; 349  : 	const CostumeInfo &HelmetCostume = m_CostumeSlot[CCS_HELMET];
; 350  : 	if ( HelmetCostume.m_nCostumeCode > 0 )

  00098	39 b3 f0 03 00
	00		 cmp	 DWORD PTR [ebx+1008], esi
  0009e	7e 2d		 jle	 SHORT $LN225@SetDefault@3

; 351  : 	{
; 352  : 		if ( m_bMale )

  000a0	80 7b 1c 00	 cmp	 BYTE PTR [ebx+28], 0
  000a4	74 08		 je	 SHORT $LN224@SetDefault@3

; 353  : 			eHairType = (ioHelmetItem::HelmetHair)HelmetCostume.m_nHairHM;

  000a6	8b 8b 6c 04 00
	00		 mov	 ecx, DWORD PTR [ebx+1132]

; 354  : 		else

  000ac	eb 06		 jmp	 SHORT $LN262@SetDefault@3
$LN224@SetDefault@3:

; 355  : 			eHairType = (ioHelmetItem::HelmetHair)HelmetCostume.m_nHairHW;

  000ae	8b 8b 70 04 00
	00		 mov	 ecx, DWORD PTR [ebx+1136]
$LN262@SetDefault@3:

; 356  : 
; 357  : 		eInvisibleFaceType = (ioHelmetItem::InvisibleFaceType)HelmetCostume.m_nInvisibleFaceType;

  000b4	8b 83 60 04 00
	00		 mov	 eax, DWORD PTR [ebx+1120]
  000ba	89 8d e0 fd ff
	ff		 mov	 DWORD PTR _eHairType$[ebp], ecx
  000c0	89 85 dc fd ff
	ff		 mov	 DWORD PTR _eInvisibleFaceType$[ebp], eax

; 358  : 		bApply = true;

  000c6	c6 85 e7 fd ff
	ff 01		 mov	 BYTE PTR _bApply$[ebp], 1
$LN225@SetDefault@3:

; 359  : 	}
; 360  : 
; 361  : 	if( bApply )

  000cd	80 bd e7 fd ff
	ff 00		 cmp	 BYTE PTR _bApply$[ebp], 0
  000d4	74 19		 je	 SHORT $LN222@SetDefault@3

; 362  : 	{
; 363  : 		switch( eHairType )

  000d6	8b 85 e0 fd ff
	ff		 mov	 eax, DWORD PTR _eHairType$[ebp]
  000dc	2b c6		 sub	 eax, esi
  000de	0f 84 34 01 00
	00		 je	 $LN219@SetDefault@3
  000e4	48		 dec	 eax
  000e5	48		 dec	 eax
  000e6	0f 84 21 01 00
	00		 je	 $LN217@SetDefault@3
  000ec	48		 dec	 eax
  000ed	75 0f		 jne	 SHORT $LN214@SetDefault@3
$LN222@SetDefault@3:

; 380  : 	{
; 381  : 		RemoveEntityInOwner( m_DefaultHairMesh );

  000ef	8d 83 40 01 00
	00		 lea	 eax, DWORD PTR [ebx+320]
$LN263@SetDefault@3:
  000f5	56		 push	 esi
  000f6	50		 push	 eax
  000f7	8b cb		 mov	 ecx, ebx
  000f9	e8 00 00 00 00	 call	 ?RemoveEntityInOwner@ioCreateChar@@IAE_NABVioHashString@@_N@Z ; ioCreateChar::RemoveEntityInOwner
$LN214@SetDefault@3:

; 382  : 	}
; 383  : 		
; 384  : 	char szHalfHair[MAX_PATH], szBindHair[MAX_PATH];
; 385  : 	wsprintf_e( szHalfHair, "half%s", szHair );

  000fe	6a 04		 push	 4
  00100	c7 45 f0 85 8d
	87 8c		 mov	 DWORD PTR ___encStr$566312[ebp], -1937273467 ; 8c878d85H
  00107	81 75 f0 ed ec
	eb ea		 xor	 DWORD PTR ___encStr$566312[ebp], -353637139 ; eaebecedH
  0010e	66 c7 45 f4 c8
	9f		 mov	 WORD PTR ___encStr$566312[ebp+4], 40904 ; 00009fc8H
  00114	c6 45 f6 00	 mov	 BYTE PTR ___encStr$566312[ebp+6], 0
  00118	5f		 pop	 edi
$LL233@SetDefault@3:
  00119	8b c7		 mov	 eax, edi
  0011b	25 03 00 00 80	 and	 eax, -2147483645	; 80000003H
  00120	79 05		 jns	 SHORT $LN260@SetDefault@3
  00122	48		 dec	 eax
  00123	83 c8 fc	 or	 eax, -4			; fffffffcH
  00126	40		 inc	 eax
$LN260@SetDefault@3:
  00127	b1 ed		 mov	 cl, -19			; ffffffedH
  00129	2a c8		 sub	 cl, al
  0012b	30 4c 3d f0	 xor	 BYTE PTR ___encStr$566312[ebp+edi], cl
  0012f	47		 inc	 edi
  00130	83 ff 06	 cmp	 edi, 6
  00133	7c e4		 jl	 SHORT $LL233@SetDefault@3
  00135	8b b5 d8 fd ff
	ff		 mov	 esi, DWORD PTR _szHair$GSCopy$[ebp]
  0013b	83 ec 10	 sub	 esp, 16			; 00000010H
  0013e	8b fc		 mov	 edi, esp
  00140	a5		 movsd
  00141	a5		 movsd
  00142	8d 45 f0	 lea	 eax, DWORD PTR ___encStr$566312[ebp]
  00145	a5		 movsd
  00146	50		 push	 eax
  00147	8d 85 e8 fd ff
	ff		 lea	 eax, DWORD PTR _szHalfHair$[ebp]
  0014d	50		 push	 eax
  0014e	a5		 movsd
  0014f	ff 15 00 00 00
	00		 call	 DWORD PTR __imp__wsprintfA
  00155	83 c4 18	 add	 esp, 24			; 00000018H

; 386  : 	m_DefaultHalfHairMesh = szHalfHair;

  00158	8d 85 e8 fd ff
	ff		 lea	 eax, DWORD PTR _szHalfHair$[ebp]
  0015e	8d 8b 60 01 00
	00		 lea	 ecx, DWORD PTR [ebx+352]
  00164	50		 push	 eax
  00165	ff 15 00 00 00
	00		 call	 DWORD PTR __imp_??4ioHashString@@QAEAAV0@PBD@Z

; 387  : 	wsprintf_e( szBindHair, "bind%s", szHair );

  0016b	6a 04		 push	 4
  0016d	c7 45 f0 8f 85
	85 8e		 mov	 DWORD PTR ___encStr$566463[ebp], -1903852145 ; 8e85858fH
  00174	81 75 f0 ed ec
	eb ea		 xor	 DWORD PTR ___encStr$566463[ebp], -353637139 ; eaebecedH
  0017b	66 c7 45 f4 c8
	9f		 mov	 WORD PTR ___encStr$566463[ebp+4], 40904 ; 00009fc8H
  00181	c6 45 f6 00	 mov	 BYTE PTR ___encStr$566463[ebp+6], 0
  00185	5e		 pop	 esi
$LL241@SetDefault@3:
  00186	8b c6		 mov	 eax, esi
  00188	25 03 00 00 80	 and	 eax, -2147483645	; 80000003H
  0018d	79 05		 jns	 SHORT $LN261@SetDefault@3
  0018f	48		 dec	 eax
  00190	83 c8 fc	 or	 eax, -4			; fffffffcH
  00193	40		 inc	 eax
$LN261@SetDefault@3:
  00194	b1 ed		 mov	 cl, -19			; ffffffedH
  00196	2a c8		 sub	 cl, al
  00198	30 4c 35 f0	 xor	 BYTE PTR ___encStr$566463[ebp+esi], cl
  0019c	46		 inc	 esi
  0019d	83 fe 06	 cmp	 esi, 6
  001a0	7c e4		 jl	 SHORT $LL241@SetDefault@3
  001a2	8b b5 d8 fd ff
	ff		 mov	 esi, DWORD PTR _szHair$GSCopy$[ebp]
  001a8	83 ec 10	 sub	 esp, 16			; 00000010H
  001ab	8b fc		 mov	 edi, esp
  001ad	a5		 movsd
  001ae	a5		 movsd
  001af	8d 45 f0	 lea	 eax, DWORD PTR ___encStr$566463[ebp]
  001b2	a5		 movsd
  001b3	50		 push	 eax
  001b4	8d 85 ec fe ff
	ff		 lea	 eax, DWORD PTR _szBindHair$[ebp]
  001ba	50		 push	 eax
  001bb	a5		 movsd
  001bc	ff 15 00 00 00
	00		 call	 DWORD PTR __imp__wsprintfA
  001c2	83 c4 18	 add	 esp, 24			; 00000018H

; 388  : 	m_DefaultBindHairMesh = szBindHair;

  001c5	8d 85 ec fe ff
	ff		 lea	 eax, DWORD PTR _szBindHair$[ebp]
  001cb	8d b3 50 01 00
	00		 lea	 esi, DWORD PTR [ebx+336]
  001d1	50		 push	 eax
  001d2	8b ce		 mov	 ecx, esi
  001d4	ff 15 00 00 00
	00		 call	 DWORD PTR __imp_??4ioHashString@@QAEAAV0@PBD@Z

; 389  : 	m_DefaultHairMesh = szHair;

  001da	ff b5 d8 fd ff
	ff		 push	 DWORD PTR _szHair$GSCopy$[ebp]
  001e0	8d bb 40 01 00
	00		 lea	 edi, DWORD PTR [ebx+320]
  001e6	8b cf		 mov	 ecx, edi
  001e8	ff 15 00 00 00
	00		 call	 DWORD PTR __imp_??4ioHashString@@QAEAAV0@ABV0@@Z

; 390  : 
; 391  : 	if( bApply )

  001ee	80 bd e7 fd ff
	ff 00		 cmp	 BYTE PTR _bApply$[ebp], 0
  001f5	74 3a		 je	 SHORT $LN16@SetDefault@3

; 392  : 	{
; 393  : 		switch( eHairType )

  001f7	8b 85 e0 fd ff
	ff		 mov	 eax, DWORD PTR _eHairType$[ebp]
  001fd	33 c9		 xor	 ecx, ecx
  001ff	2b c1		 sub	 eax, ecx
  00201	74 24		 je	 SHORT $LN13@SetDefault@3
  00203	48		 dec	 eax
  00204	48		 dec	 eax
  00205	74 1c		 je	 SHORT $LN11@SetDefault@3
  00207	48		 dec	 eax
  00208	75 31		 jne	 SHORT $LN9@SetDefault@3

; 404  : 		case ioHelmetItem::HH_NO_SKIP:
; 405  : 			AddEntityToOwner( m_DefaultHairMesh );

  0020a	51		 push	 ecx

; 406  : 			break;

  0020b	eb 26		 jmp	 SHORT $LN264@SetDefault@3
$LN217@SetDefault@3:

; 367  : 			break;
; 368  : 		case ioHelmetItem::HH_ALL_SKIP:
; 369  : 			//   .
; 370  : 			break;
; 371  : 		case ioHelmetItem::HH_BIND_SKIP:
; 372  : 			RemoveEntityInOwner( m_DefaultBindHairMesh );

  0020d	8d 83 50 01 00
	00		 lea	 eax, DWORD PTR [ebx+336]

; 373  : 			break;

  00213	e9 dd fe ff ff	 jmp	 $LN263@SetDefault@3
$LN219@SetDefault@3:

; 364  : 		{
; 365  : 		case ioHelmetItem::HH_HALF_SKIP:
; 366  : 			RemoveEntityInOwner( m_DefaultHalfHairMesh );

  00218	8d 83 60 01 00
	00		 lea	 eax, DWORD PTR [ebx+352]

; 374  : 		case ioHelmetItem::HH_NO_SKIP:
; 375  : 			RemoveEntityInOwner( m_DefaultHairMesh );
; 376  : 			break;
; 377  : 		}
; 378  : 	}
; 379  : 	else

  0021e	e9 d2 fe ff ff	 jmp	 $LN263@SetDefault@3
$LN11@SetDefault@3:

; 397  : 			break;
; 398  : 		case ioHelmetItem::HH_ALL_SKIP:
; 399  : 			//   .
; 400  : 			break;
; 401  : 		case ioHelmetItem::HH_BIND_SKIP:
; 402  : 			AddEntityToOwner( m_DefaultBindHairMesh );

  00223	51		 push	 ecx
  00224	56		 push	 esi

; 403  : 			break;

  00225	eb 0d		 jmp	 SHORT $LN265@SetDefault@3
$LN13@SetDefault@3:

; 394  : 		{
; 395  : 		case ioHelmetItem::HH_HALF_SKIP:
; 396  : 			AddEntityToOwner( m_DefaultHalfHairMesh );

  00227	51		 push	 ecx
  00228	8d 83 60 01 00
	00		 lea	 eax, DWORD PTR [ebx+352]
  0022e	50		 push	 eax

; 407  : 		}
; 408  : 	}
; 409  : 	else

  0022f	eb 03		 jmp	 SHORT $LN265@SetDefault@3
$LN16@SetDefault@3:

; 410  : 	{
; 411  : 		AddEntityToOwner( m_DefaultHairMesh );

  00231	6a 00		 push	 0
$LN264@SetDefault@3:
  00233	57		 push	 edi
$LN265@SetDefault@3:
  00234	8b cb		 mov	 ecx, ebx
  00236	e8 00 00 00 00	 call	 ?AddEntityToOwner@ioCreateChar@@IAEPAVioEntity@@ABVioHashString@@_N@Z ; ioCreateChar::AddEntityToOwner
$LN9@SetDefault@3:

; 412  : 	}
; 413  : 	
; 414  : 	SetHairColor( m_HairColorTex, m_HairOutLineColor );

  0023b	8d 43 50	 lea	 eax, DWORD PTR [ebx+80]
  0023e	50		 push	 eax
  0023f	8d 43 40	 lea	 eax, DWORD PTR [ebx+64]
  00242	50		 push	 eax
  00243	8b cb		 mov	 ecx, ebx
  00245	e8 00 00 00 00	 call	 ?SetHairColor@ioCreateChar@@QAEXABVioHashString@@ABU_D3DCOLORVALUE@@@Z ; ioCreateChar::SetHairColor

; 415  : 
; 416  : 	//
; 417  : 	if( bApply )

  0024a	80 bd e7 fd ff
	ff 00		 cmp	 BYTE PTR _bApply$[ebp], 0
  00251	74 25		 je	 SHORT $LN6@SetDefault@3

; 418  : 	{
; 419  : 		switch( eInvisibleFaceType )

  00253	8b 85 dc fd ff
	ff		 mov	 eax, DWORD PTR _eInvisibleFaceType$[ebp]
  00259	48		 dec	 eax
  0025a	74 13		 je	 SHORT $LN5@SetDefault@3
  0025c	48		 dec	 eax
  0025d	74 0a		 je	 SHORT $LN4@SetDefault@3
  0025f	48		 dec	 eax
  00260	75 16		 jne	 SHORT $LN6@SetDefault@3

; 426  : 				ShowFaceMesh( false );
; 427  : 			break;
; 428  : 		case ioHelmetItem::IFT_FEMALE:
; 429  : 			if( !IsMale() )

  00262	38 43 1c	 cmp	 BYTE PTR [ebx+28], al
  00265	75 11		 jne	 SHORT $LN6@SetDefault@3

; 430  : 				ShowFaceMesh( false );
; 431  : 			break;

  00267	eb 06		 jmp	 SHORT $LN5@SetDefault@3
$LN4@SetDefault@3:

; 423  : 			break;
; 424  : 		case ioHelmetItem::IFT_MALE:
; 425  : 			if( IsMale() )

  00269	80 7b 1c 00	 cmp	 BYTE PTR [ebx+28], 0
  0026d	74 09		 je	 SHORT $LN6@SetDefault@3
$LN5@SetDefault@3:

; 420  : 		{
; 421  : 		case ioHelmetItem::IFT_ALL:
; 422  : 			ShowFaceMesh( false );

  0026f	6a 00		 push	 0
  00271	8b cb		 mov	 ecx, ebx
  00273	e8 00 00 00 00	 call	 ?ShowFaceMesh@ioCreateChar@@QAEX_N@Z ; ioCreateChar::ShowFaceMesh
$LN6@SetDefault@3:

; 432  : 		}
; 433  : 	}
; 434  : }

  00278	8b 4d fc	 mov	 ecx, DWORD PTR __$ArrayPad$[ebp]
  0027b	5f		 pop	 edi
  0027c	5e		 pop	 esi
  0027d	33 cd		 xor	 ecx, ebp
  0027f	5b		 pop	 ebx
  00280	e8 00 00 00 00	 call	 @__security_check_cookie@4
  00285	c9		 leave
  00286	c2 04 00	 ret	 4
?SetDefaultHair@ioCreateChar@@QAEXABVioHashString@@@Z ENDP ; ioCreateChar::SetDefaultHair
_TEXT	ENDS
PUBLIC	?SetDefaultAccessory@ioCreateChar@@QAEXABVioHashString@@@Z ; ioCreateChar::SetDefaultAccessory
; Function compile flags: /Ogsp
;	COMDAT ?SetDefaultAccessory@ioCreateChar@@QAEXABVioHashString@@@Z
_TEXT	SEGMENT
_szAccessory$ = 8					; size = 4
?SetDefaultAccessory@ioCreateChar@@QAEXABVioHashString@@@Z PROC ; ioCreateChar::SetDefaultAccessory, COMDAT
; _this$ = ecx

; 437  : {

  00000	55		 push	 ebp
  00001	8b ec		 mov	 ebp, esp
  00003	57		 push	 edi
  00004	8b f9		 mov	 edi, ecx

; 438  : 	if( szAccessory.IsEmpty() )

  00006	8b 4d 08	 mov	 ecx, DWORD PTR _szAccessory$[ebp]
  00009	ff 15 00 00 00
	00		 call	 DWORD PTR __imp_?IsEmpty@ioHashString@@QBE_NXZ
  0000f	84 c0		 test	 al, al
  00011	75 36		 jne	 SHORT $LN3@SetDefault@4

; 439  : 		return;
; 440  : 
; 441  : 	if( m_DefaultAccessoryMesh == szAccessory )

  00013	56		 push	 esi
  00014	ff 75 08	 push	 DWORD PTR _szAccessory$[ebp]
  00017	8d b7 a0 01 00
	00		 lea	 esi, DWORD PTR [edi+416]
  0001d	8b ce		 mov	 ecx, esi
  0001f	ff 15 00 00 00
	00		 call	 DWORD PTR __imp_??8ioHashString@@QBE_NABV0@@Z
  00025	84 c0		 test	 al, al
  00027	75 1f		 jne	 SHORT $LN5@SetDefault@4

; 442  : 		return;
; 443  : 
; 444  : 	RemoveEntityInOwner( m_DefaultAccessoryMesh );

  00029	6a 00		 push	 0
  0002b	56		 push	 esi
  0002c	8b cf		 mov	 ecx, edi
  0002e	e8 00 00 00 00	 call	 ?RemoveEntityInOwner@ioCreateChar@@IAE_NABVioHashString@@_N@Z ; ioCreateChar::RemoveEntityInOwner

; 445  : 
; 446  : 	m_DefaultAccessoryMesh = szAccessory;

  00033	ff 75 08	 push	 DWORD PTR _szAccessory$[ebp]
  00036	8b ce		 mov	 ecx, esi
  00038	ff 15 00 00 00
	00		 call	 DWORD PTR __imp_??4ioHashString@@QAEAAV0@ABV0@@Z

; 447  : 	AddEntityToOwner( m_DefaultAccessoryMesh );

  0003e	6a 00		 push	 0
  00040	56		 push	 esi
  00041	8b cf		 mov	 ecx, edi
  00043	e8 00 00 00 00	 call	 ?AddEntityToOwner@ioCreateChar@@IAEPAVioEntity@@ABVioHashString@@_N@Z ; ioCreateChar::AddEntityToOwner
$LN5@SetDefault@4:
  00048	5e		 pop	 esi
$LN3@SetDefault@4:
  00049	5f		 pop	 edi

; 448  : }

  0004a	5d		 pop	 ebp
  0004b	c2 04 00	 ret	 4
?SetDefaultAccessory@ioCreateChar@@QAEXABVioHashString@@@Z ENDP ; ioCreateChar::SetDefaultAccessory
_TEXT	ENDS
PUBLIC	?SetDefaultUnderwear@ioCreateChar@@QAEXABVioHashString@@@Z ; ioCreateChar::SetDefaultUnderwear
; Function compile flags: /Ogsp
;	COMDAT ?SetDefaultUnderwear@ioCreateChar@@QAEXABVioHashString@@@Z
_TEXT	SEGMENT
_szUnderwear$ = 8					; size = 4
?SetDefaultUnderwear@ioCreateChar@@QAEXABVioHashString@@@Z PROC ; ioCreateChar::SetDefaultUnderwear, COMDAT
; _this$ = ecx

; 451  : {

  00000	55		 push	 ebp
  00001	8b ec		 mov	 ebp, esp
  00003	53		 push	 ebx

; 452  : 	if( szUnderwear.IsEmpty() )

  00004	8b 5d 08	 mov	 ebx, DWORD PTR _szUnderwear$[ebp]
  00007	57		 push	 edi
  00008	8b f9		 mov	 edi, ecx
  0000a	8b cb		 mov	 ecx, ebx
  0000c	ff 15 00 00 00
	00		 call	 DWORD PTR __imp_?IsEmpty@ioHashString@@QBE_NXZ
  00012	84 c0		 test	 al, al
  00014	75 51		 jne	 SHORT $LN4@SetDefault@5

; 453  : 		return;
; 454  : 
; 455  : 	if( m_DefaultUnderwearMesh == szUnderwear )

  00016	56		 push	 esi
  00017	8d b7 30 01 00
	00		 lea	 esi, DWORD PTR [edi+304]
  0001d	53		 push	 ebx
  0001e	8b ce		 mov	 ecx, esi
  00020	ff 15 00 00 00
	00		 call	 DWORD PTR __imp_??8ioHashString@@QBE_NABV0@@Z
  00026	84 c0		 test	 al, al
  00028	75 3c		 jne	 SHORT $LN6@SetDefault@5

; 456  : 		return;
; 457  : 
; 458  : 	const ioItem *pItem = GetSlotItem( CCS_ARMOR );

  0002a	6a 01		 push	 1
  0002c	8b cf		 mov	 ecx, edi
  0002e	e8 00 00 00 00	 call	 ?GetSlotItem@ioCreateChar@@QAEPBVioItem@@H@Z ; ioCreateChar::GetSlotItem

; 459  : 	const ioArmorItem *pArmor = ToArmorItemConst( pItem );

  00033	50		 push	 eax
  00034	e8 00 00 00 00	 call	 ?ToArmorItemConst@@YAPBVioArmorItem@@PBVioItem@@@Z ; ToArmorItemConst
  00039	59		 pop	 ecx

; 460  : 	if( pArmor )

  0003a	85 c0		 test	 eax, eax
  0003c	74 0b		 je	 SHORT $LN1@SetDefault@5

; 461  : 	{
; 462  : 		m_DefaultUnderwearMesh = szUnderwear;

  0003e	53		 push	 ebx
  0003f	8b ce		 mov	 ecx, esi
  00041	ff 15 00 00 00
	00		 call	 DWORD PTR __imp_??4ioHashString@@QAEAAV0@ABV0@@Z

; 463  : 		return;

  00047	eb 1d		 jmp	 SHORT $LN6@SetDefault@5
$LN1@SetDefault@5:

; 464  : 	}
; 465  : 
; 466  : 	RemoveEntityInOwner( m_DefaultUnderwearMesh );

  00049	6a 00		 push	 0
  0004b	56		 push	 esi
  0004c	8b cf		 mov	 ecx, edi
  0004e	e8 00 00 00 00	 call	 ?RemoveEntityInOwner@ioCreateChar@@IAE_NABVioHashString@@_N@Z ; ioCreateChar::RemoveEntityInOwner

; 467  : 
; 468  : 	m_DefaultUnderwearMesh = szUnderwear;

  00053	53		 push	 ebx
  00054	8b ce		 mov	 ecx, esi
  00056	ff 15 00 00 00
	00		 call	 DWORD PTR __imp_??4ioHashString@@QAEAAV0@ABV0@@Z

; 469  : 	AddEntityToOwner( m_DefaultUnderwearMesh );

  0005c	6a 00		 push	 0
  0005e	56		 push	 esi
  0005f	8b cf		 mov	 ecx, edi
  00061	e8 00 00 00 00	 call	 ?AddEntityToOwner@ioCreateChar@@IAEPAVioEntity@@ABVioHashString@@_N@Z ; ioCreateChar::AddEntityToOwner
$LN6@SetDefault@5:
  00066	5e		 pop	 esi
$LN4@SetDefault@5:
  00067	5f		 pop	 edi
  00068	5b		 pop	 ebx

; 470  : }

  00069	5d		 pop	 ebp
  0006a	c2 04 00	 ret	 4
?SetDefaultUnderwear@ioCreateChar@@QAEXABVioHashString@@@Z ENDP ; ioCreateChar::SetDefaultUnderwear
_TEXT	ENDS
PUBLIC	??0?$list@MV?$allocator@M@std@@@std@@QAE@XZ	; std::list<float,std::allocator<float> >::list<float,std::allocator<float> >
; Function compile flags: /Ogsp
; File c:\program files (x86)\microsoft visual studio 10.0\vc\include\list
;	COMDAT ??0?$list@MV?$allocator@M@std@@@std@@QAE@XZ
_TEXT	SEGMENT
$T572736 = -4						; size = 4
$T572731 = -4						; size = 4
??0?$list@MV?$allocator@M@std@@@std@@QAE@XZ PROC	; std::list<float,std::allocator<float> >::list<float,std::allocator<float> >, COMDAT
; _this$ = ecx

; 607  : 		{	// construct empty list

  00000	55		 push	 ebp
  00001	8b ec		 mov	 ebp, esp
  00003	51		 push	 ecx
  00004	56		 push	 esi
  00005	51		 push	 ecx
  00006	89 65 fc	 mov	 DWORD PTR $T572731[ebp], esp
  00009	8b f1		 mov	 esi, ecx
  0000b	89 65 fc	 mov	 DWORD PTR $T572736[ebp], esp
  0000e	e8 00 00 00 00	 call	 ??0?$_List_val@MV?$allocator@M@std@@@std@@QAE@V?$allocator@M@1@@Z ; std::_List_val<float,std::allocator<float> >::_List_val<float,std::allocator<float> >

; 608  : 		}

  00013	8b c6		 mov	 eax, esi
  00015	5e		 pop	 esi
  00016	c9		 leave
  00017	c3		 ret	 0
??0?$list@MV?$allocator@M@std@@@std@@QAE@XZ ENDP	; std::list<float,std::allocator<float> >::list<float,std::allocator<float> >
_TEXT	ENDS
PUBLIC	?clear@?$list@MV?$allocator@M@std@@@std@@QAEXXZ	; std::list<float,std::allocator<float> >::clear
; Function compile flags: /Ogsp
;	COMDAT ?clear@?$list@MV?$allocator@M@std@@@std@@QAEXXZ
_TEXT	SEGMENT
?clear@?$list@MV?$allocator@M@std@@@std@@QAEXXZ PROC	; std::list<float,std::allocator<float> >::clear, COMDAT
; _this$ = ecx

; 1096 : 		{	// erase all

  00000	56		 push	 esi
  00001	8b f1		 mov	 esi, ecx

; 1097 :  #if _ITERATOR_DEBUG_LEVEL == 2
; 1098 : 		this->_Orphan_ptr(*this, 0);
; 1099 :  #endif /* _ITERATOR_DEBUG_LEVEL == 2 */
; 1100 : 
; 1101 : 		_Nodeptr _Pnext;
; 1102 : 		_Nodeptr _Pnode = this->_Nextnode(this->_Myhead);

  00003	8b 06		 mov	 eax, DWORD PTR [esi]
  00005	8b 08		 mov	 ecx, DWORD PTR [eax]

; 1103 : 		this->_Nextnode(this->_Myhead) = this->_Myhead;

  00007	89 00		 mov	 DWORD PTR [eax], eax

; 1104 : 		this->_Prevnode(this->_Myhead) = this->_Myhead;

  00009	8b 06		 mov	 eax, DWORD PTR [esi]
  0000b	89 40 04	 mov	 DWORD PTR [eax+4], eax

; 1105 : 		this->_Mysize = 0;

  0000e	83 66 04 00	 and	 DWORD PTR [esi+4], 0

; 1106 : 
; 1107 : 		for (; _Pnode != this->_Myhead; _Pnode = _Pnext)

  00012	3b 0e		 cmp	 ecx, DWORD PTR [esi]
  00014	74 11		 je	 SHORT $LN1@clear
  00016	57		 push	 edi
$LL3@clear:

; 1108 : 			{	// delete an element
; 1109 : 			_Pnext = this->_Nextnode(_Pnode);

  00017	8b 39		 mov	 edi, DWORD PTR [ecx]

; 1110 : 
; 1111 : 			_Dest_val(this->_Alnod, _Pnode);
; 1112 : 			this->_Alnod.deallocate(_Pnode, 1);

  00019	51		 push	 ecx
  0001a	e8 00 00 00 00	 call	 ??3@YAXPAX@Z		; operator delete
  0001f	59		 pop	 ecx
  00020	8b cf		 mov	 ecx, edi
  00022	3b 3e		 cmp	 edi, DWORD PTR [esi]
  00024	75 f1		 jne	 SHORT $LL3@clear
  00026	5f		 pop	 edi
$LN1@clear:
  00027	5e		 pop	 esi

; 1113 : 			}
; 1114 : 		}

  00028	c3		 ret	 0
?clear@?$list@MV?$allocator@M@std@@@std@@QAEXXZ ENDP	; std::list<float,std::allocator<float> >::clear
_TEXT	ENDS
PUBLIC	??$_Dest_val@V?$allocator@VioHashString@@@std@@VioHashString@@@std@@YAXAAV?$allocator@VioHashString@@@0@PAVioHashString@@@Z ; std::_Dest_val<std::allocator<ioHashString>,ioHashString>
; Function compile flags: /Ogsp
; File c:\program files (x86)\microsoft visual studio 10.0\vc\include\xmemory
;	COMDAT ??$_Dest_val@V?$allocator@VioHashString@@@std@@VioHashString@@@std@@YAXAAV?$allocator@VioHashString@@@0@PAVioHashString@@@Z
_TEXT	SEGMENT
__Alval$ = 8						; size = 4
__Pdest$ = 12						; size = 4
??$_Dest_val@V?$allocator@VioHashString@@@std@@VioHashString@@@std@@YAXAAV?$allocator@VioHashString@@@0@PAVioHashString@@@Z PROC ; std::_Dest_val<std::allocator<ioHashString>,ioHashString>, COMDAT

; 286  : 	{	// destroy using allocator

  00000	55		 push	 ebp
  00001	8b ec		 mov	 ebp, esp

; 287  : 	_Alval.destroy(_Pdest);

  00003	8b 4d 0c	 mov	 ecx, DWORD PTR __Pdest$[ebp]

; 288  : 	}

  00006	5d		 pop	 ebp

; 287  : 	_Alval.destroy(_Pdest);

  00007	ff 25 00 00 00
	00		 jmp	 DWORD PTR __imp_??1ioHashString@@QAE@XZ
??$_Dest_val@V?$allocator@VioHashString@@@std@@VioHashString@@@std@@YAXAAV?$allocator@VioHashString@@@0@PAVioHashString@@@Z ENDP ; std::_Dest_val<std::allocator<ioHashString>,ioHashString>
_TEXT	ENDS
PUBLIC	?destroy@?$allocator@UCustomTexture@@@std@@QAEXPAUCustomTexture@@@Z ; std::allocator<CustomTexture>::destroy
; Function compile flags: /Ogsp
;	COMDAT ?destroy@?$allocator@UCustomTexture@@@std@@QAEXPAUCustomTexture@@@Z
_TEXT	SEGMENT
__Ptr$ = 8						; size = 4
?destroy@?$allocator@UCustomTexture@@@std@@QAEXPAUCustomTexture@@@Z PROC ; std::allocator<CustomTexture>::destroy, COMDAT
; _this$ = ecx

; 212  : 		{	// destroy object at _Ptr

  00000	55		 push	 ebp
  00001	8b ec		 mov	 ebp, esp

; 213  : 		_Destroy(_Ptr);

  00003	8b 4d 08	 mov	 ecx, DWORD PTR __Ptr$[ebp]
  00006	83 c1 04	 add	 ecx, 4
  00009	ff 15 00 00 00
	00		 call	 DWORD PTR __imp_??1ioHashString@@QAE@XZ

; 214  : 		}

  0000f	5d		 pop	 ebp
  00010	c2 04 00	 ret	 4
?destroy@?$allocator@UCustomTexture@@@std@@QAEXPAUCustomTexture@@@Z ENDP ; std::allocator<CustomTexture>::destroy
_TEXT	ENDS
PUBLIC	?_Tidy@?$list@MV?$allocator@M@std@@@std@@QAEXXZ	; std::list<float,std::allocator<float> >::_Tidy
; Function compile flags: /Ogsp
; File c:\program files (x86)\microsoft visual studio 10.0\vc\include\list
;	COMDAT ?_Tidy@?$list@MV?$allocator@M@std@@@std@@QAEXXZ
_TEXT	SEGMENT
?_Tidy@?$list@MV?$allocator@M@std@@@std@@QAEXXZ PROC	; std::list<float,std::allocator<float> >::_Tidy, COMDAT
; _this$ = ecx

; 1497 : 		clear();

  00000	e9 00 00 00 00	 jmp	 ?clear@?$list@MV?$allocator@M@std@@@std@@QAEXXZ ; std::list<float,std::allocator<float> >::clear
?_Tidy@?$list@MV?$allocator@M@std@@@std@@QAEXXZ ENDP	; std::list<float,std::allocator<float> >::_Tidy
_TEXT	ENDS
PUBLIC	??$_Uninit_move@PAVioHashString@@PAV1@V?$allocator@VioHashString@@@std@@V1@@std@@YAPAVioHashString@@PAV1@00AAV?$allocator@VioHashString@@@0@0U_Nonscalar_ptr_iterator_tag@0@@Z ; std::_Uninit_move<ioHashString *,ioHashString *,std::allocator<ioHashString>,ioHashString>
EXTRN	__EH_prolog3_catch:PROC
;	COMDAT xdata$x
; File c:\program files (x86)\microsoft visual studio 10.0\vc\include\vector
xdata$x	SEGMENT
__catchsym$??$_Uninit_move@PAVioHashString@@PAV1@V?$allocator@VioHashString@@@std@@V1@@std@@YAPAVioHashString@@PAV1@00AAV?$allocator@VioHashString@@@0@0U_Nonscalar_ptr_iterator_tag@0@@Z$2 DD 040H
	DD	00H
	DD	00H
	DD	FLAT:__catch$??$_Uninit_move@PAVioHashString@@PAV1@V?$allocator@VioHashString@@@std@@V1@@std@@YAPAVioHashString@@PAV1@00AAV?$allocator@VioHashString@@@0@0U_Nonscalar_ptr_iterator_tag@0@@Z$0
__unwindtable$??$_Uninit_move@PAVioHashString@@PAV1@V?$allocator@VioHashString@@@std@@V1@@std@@YAPAVioHashString@@PAV1@00AAV?$allocator@VioHashString@@@0@0U_Nonscalar_ptr_iterator_tag@0@@Z DD 0ffffffffH
	DD	00H
	DD	0ffffffffH
	DD	00H
__tryblocktable$??$_Uninit_move@PAVioHashString@@PAV1@V?$allocator@VioHashString@@@std@@V1@@std@@YAPAVioHashString@@PAV1@00AAV?$allocator@VioHashString@@@0@0U_Nonscalar_ptr_iterator_tag@0@@Z DD 00H
	DD	00H
	DD	01H
	DD	01H
	DD	FLAT:__catchsym$??$_Uninit_move@PAVioHashString@@PAV1@V?$allocator@VioHashString@@@std@@V1@@std@@YAPAVioHashString@@PAV1@00AAV?$allocator@VioHashString@@@0@0U_Nonscalar_ptr_iterator_tag@0@@Z$2
__ehfuncinfo$??$_Uninit_move@PAVioHashString@@PAV1@V?$allocator@VioHashString@@@std@@V1@@std@@YAPAVioHashString@@PAV1@00AAV?$allocator@VioHashString@@@0@0U_Nonscalar_ptr_iterator_tag@0@@Z DD 019930522H
	DD	02H
	DD	FLAT:__unwindtable$??$_Uninit_move@PAVioHashString@@PAV1@V?$allocator@VioHashString@@@std@@V1@@std@@YAPAVioHashString@@PAV1@00AAV?$allocator@VioHashString@@@0@0U_Nonscalar_ptr_iterator_tag@0@@Z
	DD	01H
	DD	FLAT:__tryblocktable$??$_Uninit_move@PAVioHashString@@PAV1@V?$allocator@VioHashString@@@std@@V1@@std@@YAPAVioHashString@@PAV1@00AAV?$allocator@VioHashString@@@0@0U_Nonscalar_ptr_iterator_tag@0@@Z
	DD	2 DUP(00H)
	DD	00H
	DD	01H
; Function compile flags: /Ogsp
; File c:\program files (x86)\microsoft visual studio 10.0\vc\include\memory
xdata$x	ENDS
;	COMDAT ??$_Uninit_move@PAVioHashString@@PAV1@V?$allocator@VioHashString@@@std@@V1@@std@@YAPAVioHashString@@PAV1@00AAV?$allocator@VioHashString@@@0@0U_Nonscalar_ptr_iterator_tag@0@@Z
_TEXT	SEGMENT
__Next$ = -20						; size = 4
__$EHRec$ = -16						; size = 16
__First$ = 8						; size = 4
__Last$ = 12						; size = 4
__Dest$ = 16						; size = 4
__Al$ = 20						; size = 4
___formal$ = 24						; size = 4
___formal$ = 28						; size = 1
??$_Uninit_move@PAVioHashString@@PAV1@V?$allocator@VioHashString@@@std@@V1@@std@@YAPAVioHashString@@PAV1@00AAV?$allocator@VioHashString@@@0@0U_Nonscalar_ptr_iterator_tag@0@@Z PROC ; std::_Uninit_move<ioHashString *,ioHashString *,std::allocator<ioHashString>,ioHashString>, COMDAT

; 424  : 	{	// move [_First, _Last) to raw _Dest, using _Al, arbitrary type

  00000	6a 08		 push	 8
  00002	b8 00 00 00 00	 mov	 eax, __ehhandler$??$_Uninit_move@PAVioHashString@@PAV1@V?$allocator@VioHashString@@@std@@V1@@std@@YAPAVioHashString@@PAV1@00AAV?$allocator@VioHashString@@@0@0U_Nonscalar_ptr_iterator_tag@0@@Z
  00007	e8 00 00 00 00	 call	 __EH_prolog3_catch

; 425  : 	_DEBUG_RANGE(_First, _Last);
; 426  : 	_DEBUG_POINTER(_Dest);
; 427  : 	_FwdIt _Next = _Dest;

  0000c	8b 45 10	 mov	 eax, DWORD PTR __Dest$[ebp]

; 428  : 
; 429  : 	_TRY_BEGIN

  0000f	83 65 fc 00	 and	 DWORD PTR __$EHRec$[ebp+12], 0
  00013	8b 75 08	 mov	 esi, DWORD PTR __First$[ebp]
  00016	89 45 ec	 mov	 DWORD PTR __Next$[ebp], eax
$LL6@Uninit_mov:

; 430  : 	for (; _First != _Last; ++_Dest, ++_First)

  00019	3b 75 0c	 cmp	 esi, DWORD PTR __Last$[ebp]
  0001c	74 33		 je	 SHORT $LN4@Uninit_mov

; 431  : 		_Cons_val(_Al, _Dest, (_Valty &&)*_First);

  0001e	8b 4d 14	 mov	 ecx, DWORD PTR __Al$[ebp]
  00021	56		 push	 esi
  00022	ff 75 10	 push	 DWORD PTR __Dest$[ebp]
  00025	e8 00 00 00 00	 call	 ?construct@?$allocator@VioHashString@@@std@@QAEXPAVioHashString@@$$QAV3@@Z ; std::allocator<ioHashString>::construct
  0002a	83 45 10 10	 add	 DWORD PTR __Dest$[ebp], 16 ; 00000010H
  0002e	83 c6 10	 add	 esi, 16			; 00000010H
  00031	eb e6		 jmp	 SHORT $LL6@Uninit_mov
__catch$??$_Uninit_move@PAVioHashString@@PAV1@V?$allocator@VioHashString@@@std@@V1@@std@@YAPAVioHashString@@PAV1@00AAV?$allocator@VioHashString@@@0@0U_Nonscalar_ptr_iterator_tag@0@@Z$0:

; 432  : 	_CATCH_ALL
; 433  : 	for (; _Next != _Dest; ++_Next)

  00033	8b 75 ec	 mov	 esi, DWORD PTR __Next$[ebp]
  00036	eb 0b		 jmp	 SHORT $LN33@Uninit_mov
$LL3@Uninit_mov:

; 434  : 		_Dest_val(_Al, _Next);

  00038	8b ce		 mov	 ecx, esi
  0003a	ff 15 00 00 00
	00		 call	 DWORD PTR __imp_??1ioHashString@@QAE@XZ
  00040	83 c6 10	 add	 esi, 16			; 00000010H
$LN33@Uninit_mov:

; 432  : 	_CATCH_ALL
; 433  : 	for (; _Next != _Dest; ++_Next)

  00043	3b 75 10	 cmp	 esi, DWORD PTR __Dest$[ebp]
  00046	75 f0		 jne	 SHORT $LL3@Uninit_mov

; 435  : 	_RERAISE;

  00048	6a 00		 push	 0
  0004a	6a 00		 push	 0
  0004c	e8 00 00 00 00	 call	 __CxxThrowException@8
$LN34@Uninit_mov:
$LN4@Uninit_mov:

; 436  : 	_CATCH_END
; 437  : 	return (_Dest);

  00051	8b 45 10	 mov	 eax, DWORD PTR __Dest$[ebp]

; 438  : 	}

  00054	e8 00 00 00 00	 call	 __EH_epilog3
  00059	c3		 ret	 0
$LN32@Uninit_mov:
_TEXT	ENDS
;	COMDAT text$x
text$x	SEGMENT
__ehhandler$??$_Uninit_move@PAVioHashString@@PAV1@V?$allocator@VioHashString@@@std@@V1@@std@@YAPAVioHashString@@PAV1@00AAV?$allocator@VioHashString@@@0@0U_Nonscalar_ptr_iterator_tag@0@@Z:
  00000	8b 54 24 08	 mov	 edx, DWORD PTR [esp+8]
  00004	8d 42 0c	 lea	 eax, DWORD PTR [edx+12]
  00007	8b 4a e8	 mov	 ecx, DWORD PTR [edx-24]
  0000a	33 c8		 xor	 ecx, eax
  0000c	e8 00 00 00 00	 call	 @__security_check_cookie@4
  00011	b8 00 00 00 00	 mov	 eax, OFFSET __ehfuncinfo$??$_Uninit_move@PAVioHashString@@PAV1@V?$allocator@VioHashString@@@std@@V1@@std@@YAPAVioHashString@@PAV1@00AAV?$allocator@VioHashString@@@0@0U_Nonscalar_ptr_iterator_tag@0@@Z
  00016	e9 00 00 00 00	 jmp	 ___CxxFrameHandler3
text$x	ENDS
??$_Uninit_move@PAVioHashString@@PAV1@V?$allocator@VioHashString@@@std@@V1@@std@@YAPAVioHashString@@PAV1@00AAV?$allocator@VioHashString@@@0@0U_Nonscalar_ptr_iterator_tag@0@@Z ENDP ; std::_Uninit_move<ioHashString *,ioHashString *,std::allocator<ioHashString>,ioHashString>
PUBLIC	??$_Destroy_range@V?$allocator@VioHashString@@@std@@@std@@YAXPAVioHashString@@0AAV?$allocator@VioHashString@@@0@U_Nonscalar_ptr_iterator_tag@0@@Z ; std::_Destroy_range<std::allocator<ioHashString> >
; Function compile flags: /Ogsp
; File c:\program files (x86)\microsoft visual studio 10.0\vc\include\xmemory
;	COMDAT ??$_Destroy_range@V?$allocator@VioHashString@@@std@@@std@@YAXPAVioHashString@@0AAV?$allocator@VioHashString@@@0@U_Nonscalar_ptr_iterator_tag@0@@Z
_TEXT	SEGMENT
__First$ = 8						; size = 4
__Last$ = 12						; size = 4
__Al$ = 16						; size = 4
___formal$ = 20						; size = 1
??$_Destroy_range@V?$allocator@VioHashString@@@std@@@std@@YAXPAVioHashString@@0AAV?$allocator@VioHashString@@@0@U_Nonscalar_ptr_iterator_tag@0@@Z PROC ; std::_Destroy_range<std::allocator<ioHashString> >, COMDAT

; 95   : 	{	// destroy [_First, _Last), arbitrary type

  00000	55		 push	 ebp
  00001	8b ec		 mov	 ebp, esp
  00003	56		 push	 esi

; 96   : 	for (; _First != _Last; ++_First)

  00004	8b 75 08	 mov	 esi, DWORD PTR __First$[ebp]
  00007	eb 0b		 jmp	 SHORT $LN17@Destroy_ra
$LL3@Destroy_ra:

; 97   : 		_Dest_val(_Al, _First);

  00009	8b ce		 mov	 ecx, esi
  0000b	ff 15 00 00 00
	00		 call	 DWORD PTR __imp_??1ioHashString@@QAE@XZ
  00011	83 c6 10	 add	 esi, 16			; 00000010H
$LN17@Destroy_ra:

; 96   : 	for (; _First != _Last; ++_First)

  00014	3b 75 0c	 cmp	 esi, DWORD PTR __Last$[ebp]
  00017	75 f0		 jne	 SHORT $LL3@Destroy_ra
  00019	5e		 pop	 esi

; 98   : 	}

  0001a	5d		 pop	 ebp
  0001b	c3		 ret	 0
??$_Destroy_range@V?$allocator@VioHashString@@@std@@@std@@YAXPAVioHashString@@0AAV?$allocator@VioHashString@@@0@U_Nonscalar_ptr_iterator_tag@0@@Z ENDP ; std::_Destroy_range<std::allocator<ioHashString> >
_TEXT	ENDS
PUBLIC	??$_Dest_val@V?$allocator@UCustomTexture@@@std@@UCustomTexture@@@std@@YAXAAV?$allocator@UCustomTexture@@@0@PAUCustomTexture@@@Z ; std::_Dest_val<std::allocator<CustomTexture>,CustomTexture>
; Function compile flags: /Ogsp
;	COMDAT ??$_Dest_val@V?$allocator@UCustomTexture@@@std@@UCustomTexture@@@std@@YAXAAV?$allocator@UCustomTexture@@@0@PAUCustomTexture@@@Z
_TEXT	SEGMENT
__Alval$ = 8						; size = 4
__Pdest$ = 12						; size = 4
??$_Dest_val@V?$allocator@UCustomTexture@@@std@@UCustomTexture@@@std@@YAXAAV?$allocator@UCustomTexture@@@0@PAUCustomTexture@@@Z PROC ; std::_Dest_val<std::allocator<CustomTexture>,CustomTexture>, COMDAT

; 286  : 	{	// destroy using allocator

  00000	55		 push	 ebp
  00001	8b ec		 mov	 ebp, esp

; 287  : 	_Alval.destroy(_Pdest);

  00003	8b 4d 0c	 mov	 ecx, DWORD PTR __Pdest$[ebp]
  00006	83 c1 04	 add	 ecx, 4

; 288  : 	}

  00009	5d		 pop	 ebp

; 287  : 	_Alval.destroy(_Pdest);

  0000a	ff 25 00 00 00
	00		 jmp	 DWORD PTR __imp_??1ioHashString@@QAE@XZ
??$_Dest_val@V?$allocator@UCustomTexture@@@std@@UCustomTexture@@@std@@YAXAAV?$allocator@UCustomTexture@@@0@PAUCustomTexture@@@Z ENDP ; std::_Dest_val<std::allocator<CustomTexture>,CustomTexture>
_TEXT	ENDS
PUBLIC	??1?$list@MV?$allocator@M@std@@@std@@QAE@XZ	; std::list<float,std::allocator<float> >::~list<float,std::allocator<float> >
; Function compile flags: /Ogsp
; File c:\program files (x86)\microsoft visual studio 10.0\vc\include\list
;	COMDAT ??1?$list@MV?$allocator@M@std@@@std@@QAE@XZ
_TEXT	SEGMENT
??1?$list@MV?$allocator@M@std@@@std@@QAE@XZ PROC	; std::list<float,std::allocator<float> >::~list<float,std::allocator<float> >, COMDAT
; _this$ = ecx

; 769  : 		{	// destroy the object

  00000	56		 push	 esi
  00001	8b f1		 mov	 esi, ecx

; 770  : 		_Tidy();

  00003	e8 00 00 00 00	 call	 ?clear@?$list@MV?$allocator@M@std@@@std@@QAEXXZ ; std::list<float,std::allocator<float> >::clear

; 771  : 		}

  00008	ff 36		 push	 DWORD PTR [esi]
  0000a	e8 00 00 00 00	 call	 ??3@YAXPAX@Z		; operator delete
  0000f	59		 pop	 ecx
  00010	5e		 pop	 esi
  00011	c3		 ret	 0
??1?$list@MV?$allocator@M@std@@@std@@QAE@XZ ENDP	; std::list<float,std::allocator<float> >::~list<float,std::allocator<float> >
_TEXT	ENDS
PUBLIC	??$_Uninitialized_move@PAVioHashString@@PAV1@V?$allocator@VioHashString@@@std@@@std@@YAPAVioHashString@@PAV1@00AAV?$allocator@VioHashString@@@0@@Z ; std::_Uninitialized_move<ioHashString *,ioHashString *,std::allocator<ioHashString> >
; Function compile flags: /Ogsp
; File c:\program files (x86)\microsoft visual studio 10.0\vc\include\memory
;	COMDAT ??$_Uninitialized_move@PAVioHashString@@PAV1@V?$allocator@VioHashString@@@std@@@std@@YAPAVioHashString@@PAV1@00AAV?$allocator@VioHashString@@@0@@Z
_TEXT	SEGMENT
__Cat$572962 = -4					; size = 1
__First$ = 8						; size = 4
__Last$ = 12						; size = 4
__Dest$ = 16						; size = 4
__Al$ = 20						; size = 4
??$_Uninitialized_move@PAVioHashString@@PAV1@V?$allocator@VioHashString@@@std@@@std@@YAPAVioHashString@@PAV1@00AAV?$allocator@VioHashString@@@0@@Z PROC ; std::_Uninitialized_move<ioHashString *,ioHashString *,std::allocator<ioHashString> >, COMDAT

; 469  : 	{	// move [_First, _Last) to raw _Dest, using _Al

  00000	55		 push	 ebp
  00001	8b ec		 mov	 ebp, esp
  00003	51		 push	 ecx

; 470  : 	return (_Uninit_move(_First, _Last, _Dest, _Al,
; 471  : 		_Val_type(_First), _Ptr_cat(_First, _Dest)));

  00004	ff 75 fc	 push	 DWORD PTR __Cat$572962[ebp]
  00007	6a 00		 push	 0
  00009	ff 75 14	 push	 DWORD PTR __Al$[ebp]
  0000c	ff 75 10	 push	 DWORD PTR __Dest$[ebp]
  0000f	ff 75 0c	 push	 DWORD PTR __Last$[ebp]
  00012	ff 75 08	 push	 DWORD PTR __First$[ebp]
  00015	e8 00 00 00 00	 call	 ??$_Uninit_move@PAVioHashString@@PAV1@V?$allocator@VioHashString@@@std@@V1@@std@@YAPAVioHashString@@PAV1@00AAV?$allocator@VioHashString@@@0@0U_Nonscalar_ptr_iterator_tag@0@@Z ; std::_Uninit_move<ioHashString *,ioHashString *,std::allocator<ioHashString>,ioHashString>
  0001a	83 c4 18	 add	 esp, 24			; 00000018H

; 472  : 	}

  0001d	c9		 leave
  0001e	c3		 ret	 0
??$_Uninitialized_move@PAVioHashString@@PAV1@V?$allocator@VioHashString@@@std@@@std@@YAPAVioHashString@@PAV1@00AAV?$allocator@VioHashString@@@0@@Z ENDP ; std::_Uninitialized_move<ioHashString *,ioHashString *,std::allocator<ioHashString> >
_TEXT	ENDS
PUBLIC	??$_Destroy_range@V?$allocator@VioHashString@@@std@@@std@@YAXPAVioHashString@@0AAV?$allocator@VioHashString@@@0@@Z ; std::_Destroy_range<std::allocator<ioHashString> >
; Function compile flags: /Ogsp
; File c:\program files (x86)\microsoft visual studio 10.0\vc\include\xmemory
;	COMDAT ??$_Destroy_range@V?$allocator@VioHashString@@@std@@@std@@YAXPAVioHashString@@0AAV?$allocator@VioHashString@@@0@@Z
_TEXT	SEGMENT
__First$ = 8						; size = 4
__Last$ = 12						; size = 4
__Al$ = 16						; size = 4
??$_Destroy_range@V?$allocator@VioHashString@@@std@@@std@@YAXPAVioHashString@@0AAV?$allocator@VioHashString@@@0@@Z PROC ; std::_Destroy_range<std::allocator<ioHashString> >, COMDAT

; 87   : 	{	// destroy [_First, _Last)

  00000	55		 push	 ebp
  00001	8b ec		 mov	 ebp, esp
  00003	56		 push	 esi

; 88   : 	_Destroy_range(_First, _Last, _Al, _Ptr_cat(_First, _Last));

  00004	8b 75 08	 mov	 esi, DWORD PTR __First$[ebp]
  00007	eb 0b		 jmp	 SHORT $LN21@Destroy_ra@2
$LL7@Destroy_ra@2:
  00009	8b ce		 mov	 ecx, esi
  0000b	ff 15 00 00 00
	00		 call	 DWORD PTR __imp_??1ioHashString@@QAE@XZ
  00011	83 c6 10	 add	 esi, 16			; 00000010H
$LN21@Destroy_ra@2:
  00014	3b 75 0c	 cmp	 esi, DWORD PTR __Last$[ebp]
  00017	75 f0		 jne	 SHORT $LL7@Destroy_ra@2
  00019	5e		 pop	 esi

; 89   : 	}

  0001a	5d		 pop	 ebp
  0001b	c3		 ret	 0
??$_Destroy_range@V?$allocator@VioHashString@@@std@@@std@@YAXPAVioHashString@@0AAV?$allocator@VioHashString@@@0@@Z ENDP ; std::_Destroy_range<std::allocator<ioHashString> >
_TEXT	ENDS
PUBLIC	??$_Destroy_range@V?$allocator@UCustomTexture@@@std@@@std@@YAXPAUCustomTexture@@0AAV?$allocator@UCustomTexture@@@0@U_Nonscalar_ptr_iterator_tag@0@@Z ; std::_Destroy_range<std::allocator<CustomTexture> >
; Function compile flags: /Ogsp
;	COMDAT ??$_Destroy_range@V?$allocator@UCustomTexture@@@std@@@std@@YAXPAUCustomTexture@@0AAV?$allocator@UCustomTexture@@@0@U_Nonscalar_ptr_iterator_tag@0@@Z
_TEXT	SEGMENT
__First$ = 8						; size = 4
__Last$ = 12						; size = 4
__Al$ = 16						; size = 4
___formal$ = 20						; size = 1
??$_Destroy_range@V?$allocator@UCustomTexture@@@std@@@std@@YAXPAUCustomTexture@@0AAV?$allocator@UCustomTexture@@@0@U_Nonscalar_ptr_iterator_tag@0@@Z PROC ; std::_Destroy_range<std::allocator<CustomTexture> >, COMDAT

; 95   : 	{	// destroy [_First, _Last), arbitrary type

  00000	55		 push	 ebp
  00001	8b ec		 mov	 ebp, esp
  00003	56		 push	 esi

; 96   : 	for (; _First != _Last; ++_First)

  00004	8b 75 08	 mov	 esi, DWORD PTR __First$[ebp]
  00007	eb 0c		 jmp	 SHORT $LN20@Destroy_ra@3
$LL3@Destroy_ra@3:

; 97   : 		_Dest_val(_Al, _First);

  00009	8d 4e 04	 lea	 ecx, DWORD PTR [esi+4]
  0000c	ff 15 00 00 00
	00		 call	 DWORD PTR __imp_??1ioHashString@@QAE@XZ
  00012	83 c6 14	 add	 esi, 20			; 00000014H
$LN20@Destroy_ra@3:

; 96   : 	for (; _First != _Last; ++_First)

  00015	3b 75 0c	 cmp	 esi, DWORD PTR __Last$[ebp]
  00018	75 ef		 jne	 SHORT $LL3@Destroy_ra@3
  0001a	5e		 pop	 esi

; 98   : 	}

  0001b	5d		 pop	 ebp
  0001c	c3		 ret	 0
??$_Destroy_range@V?$allocator@UCustomTexture@@@std@@@std@@YAXPAUCustomTexture@@0AAV?$allocator@UCustomTexture@@@0@U_Nonscalar_ptr_iterator_tag@0@@Z ENDP ; std::_Destroy_range<std::allocator<CustomTexture> >
_TEXT	ENDS
PUBLIC	_rkMotion$GSCopy$
PUBLIC	?SetMotionItemAni@ioCreateChar@@QAEXABVioHashString@@@Z ; ioCreateChar::SetMotionItemAni
EXTRN	__imp_?GetAnimationFullTime@ioEntityGroup@@QAEMH@Z:PROC
EXTRN	__imp_?SetActionAni@ioEntityGroup@@QAE_NHMMMMMM_N0@Z:PROC
EXTRN	__imp_?SetPlayActionCurTime@ioEntityGroup@@QAE_NHM@Z:PROC
EXTRN	__ftol2:PROC
;	COMDAT xdata$x
xdata$x	SEGMENT
__unwindtable$?SetMotionItemAni@ioCreateChar@@QAEXABVioHashString@@@Z DD 0ffffffffH
	DD	FLAT:__unwindfunclet$?SetMotionItemAni@ioCreateChar@@QAEXABVioHashString@@@Z$0
	DD	00H
	DD	FLAT:__unwindfunclet$?SetMotionItemAni@ioCreateChar@@QAEXABVioHashString@@@Z$2
__ehfuncinfo$?SetMotionItemAni@ioCreateChar@@QAEXABVioHashString@@@Z DD 019930522H
	DD	02H
	DD	FLAT:__unwindtable$?SetMotionItemAni@ioCreateChar@@QAEXABVioHashString@@@Z
	DD	2 DUP(00H)
	DD	2 DUP(00H)
	DD	00H
	DD	01H
; Function compile flags: /Ogsp
; File d:\lost saga for developer\youtube\tutorial\source\src\lsclient\iocreatechar.cpp
xdata$x	ENDS
;	COMDAT ?SetMotionItemAni@ioCreateChar@@QAEXABVioHashString@@@Z
_TEXT	SEGMENT
$T573125 = -76						; size = 16
_iAniID$ = -60						; size = 4
_cmdJumpAniTimeCnt$ = -56				; size = 12
tv1142 = -44						; size = 4
tv1137 = -44						; size = 4
_rkMotion$GSCopy$ = -44					; size = 4
$T573088 = -44						; size = 4
tv1129 = -40						; size = 4
tv1127 = -40						; size = 4
tv1125 = -40						; size = 4
tv1123 = -40						; size = 4
$T573099 = -40						; size = 4
$T573102 = -40						; size = 4
_szEncEventType$573129 = -36				; size = 13
__$EHRec$ = -12						; size = 12
_rkMotion$ = 8						; size = 4
?SetMotionItemAni@ioCreateChar@@QAEXABVioHashString@@@Z PROC ; ioCreateChar::SetMotionItemAni, COMDAT
; _this$ = ecx

; 1661 : {

  00000	6a 40		 push	 64			; 00000040H
  00002	b8 00 00 00 00	 mov	 eax, __ehhandler$?SetMotionItemAni@ioCreateChar@@QAEXABVioHashString@@@Z
  00007	e8 00 00 00 00	 call	 __EH_prolog3_GS
  0000c	8b 45 08	 mov	 eax, DWORD PTR _rkMotion$[ebp]
  0000f	8b f1		 mov	 esi, ecx

; 1662 : 	if( !m_pGrp ) return;

  00011	8b 4e 04	 mov	 ecx, DWORD PTR [esi+4]
  00014	33 db		 xor	 ebx, ebx

; 1666 : 		return;
; 1667 : 
; 1668 : 	m_MotionItemAniName = rkMotion;

  00016	89 45 d4	 mov	 DWORD PTR _rkMotion$GSCopy$[ebp], eax
  00019	3b cb		 cmp	 ecx, ebx
  0001b	0f 84 e5 01 00
	00		 je	 $LN140@SetMotionI

; 1663 : 
; 1664 : 	int iAniID = m_pGrp->GetAnimationIdx( rkMotion );

  00021	50		 push	 eax
  00022	ff 15 00 00 00
	00		 call	 DWORD PTR __imp_?GetAnimationIdx@ioEntityGroup@@QAEHABVioHashString@@@Z
  00028	8b f8		 mov	 edi, eax
  0002a	89 7d c4	 mov	 DWORD PTR _iAniID$[ebp], edi

; 1665 : 	if( iAniID == -1 )

  0002d	83 ff ff	 cmp	 edi, -1
  00030	0f 84 d0 01 00
	00		 je	 $LN140@SetMotionI

; 1666 : 		return;
; 1667 : 
; 1668 : 	m_MotionItemAniName = rkMotion;

  00036	ff 75 d4	 push	 DWORD PTR _rkMotion$GSCopy$[ebp]
  00039	8d 8e 24 02 00
	00		 lea	 ecx, DWORD PTR [esi+548]
  0003f	ff 15 00 00 00
	00		 call	 DWORD PTR __imp_??4ioHashString@@QAEAAV0@ABV0@@Z

; 1669 : 	m_dwMotionItemAniMaxTime = 0;
; 1670 : 	m_dwMotionItemAniCurTime = 0;
; 1671 : 	m_bMotionItemDelay		 = false;
; 1672 : 
; 1673 : 	m_pGrp->SetPlayActionCurTime( iAniID, 0.0f );

  00045	0f 57 c0	 xorps	 xmm0, xmm0
  00048	51		 push	 ecx
  00049	8b 4e 04	 mov	 ecx, DWORD PTR [esi+4]
  0004c	f3 0f 11 04 24	 movss	 DWORD PTR [esp], xmm0
  00051	57		 push	 edi
  00052	89 9e 1c 02 00
	00		 mov	 DWORD PTR [esi+540], ebx
  00058	89 9e 20 02 00
	00		 mov	 DWORD PTR [esi+544], ebx
  0005e	88 9e 34 02 00
	00		 mov	 BYTE PTR [esi+564], bl
  00064	ff 15 00 00 00
	00		 call	 DWORD PTR __imp_?SetPlayActionCurTime@ioEntityGroup@@QAE_NHM@Z

; 1674 : 	m_pGrp->ClearAllActionAni( FLOAT100 );

  0006a	b8 64 00 00 00	 mov	 eax, 100		; 00000064H
  0006f	89 45 d4	 mov	 DWORD PTR tv1142[ebp], eax
  00072	db 45 d4	 fild	 DWORD PTR tv1142[ebp]
  00075	53		 push	 ebx
  00076	85 c0		 test	 eax, eax
  00078	79 06		 jns	 SHORT $LN147@SetMotionI
  0007a	d8 05 00 00 00
	00		 fadd	 DWORD PTR __real@4f800000
$LN147@SetMotionI:
  00080	51		 push	 ecx
  00081	8b 4e 04	 mov	 ecx, DWORD PTR [esi+4]
  00084	d9 1c 24	 fstp	 DWORD PTR [esp]
  00087	ff 15 00 00 00
	00		 call	 DWORD PTR __imp_?ClearAllActionAni@ioEntityGroup@@QAEXM_N@Z

; 1675 : 	m_pGrp->ClearAllLoopAni( FLOAT100 );

  0008d	b8 64 00 00 00	 mov	 eax, 100		; 00000064H
  00092	89 45 d4	 mov	 DWORD PTR tv1137[ebp], eax
  00095	db 45 d4	 fild	 DWORD PTR tv1137[ebp]
  00098	53		 push	 ebx
  00099	85 c0		 test	 eax, eax
  0009b	79 06		 jns	 SHORT $LN148@SetMotionI
  0009d	d8 05 00 00 00
	00		 fadd	 DWORD PTR __real@4f800000
$LN148@SetMotionI:
  000a3	51		 push	 ecx
  000a4	8b 4e 04	 mov	 ecx, DWORD PTR [esi+4]
  000a7	d9 1c 24	 fstp	 DWORD PTR [esp]
  000aa	ff 15 00 00 00
	00		 call	 DWORD PTR __imp_?ClearAllLoopAni@ioEntityGroup@@QAEXM_N@Z

; 1676 : 	m_pGrp->SetActionAni( iAniID, FLOAT100, FLOAT100, FLOAT1, FLOAT1 );

  000b0	b8 01 00 00 00	 mov	 eax, 1
  000b5	8b c8		 mov	 ecx, eax
  000b7	b8 01 00 00 00	 mov	 eax, 1
  000bc	8b d0		 mov	 edx, eax
  000be	b8 64 00 00 00	 mov	 eax, 100		; 00000064H
  000c3	89 45 d4	 mov	 DWORD PTR $T573088[ebp], eax
  000c6	b8 64 00 00 00	 mov	 eax, 100		; 00000064H
  000cb	0f 57 c0	 xorps	 xmm0, xmm0
  000ce	6a 01		 push	 1
  000d0	53		 push	 ebx
  000d1	83 ec 18	 sub	 esp, 24			; 00000018H
  000d4	89 4d d8	 mov	 DWORD PTR tv1129[ebp], ecx
  000d7	db 45 d8	 fild	 DWORD PTR tv1129[ebp]
  000da	f3 0f 11 44 24
	14		 movss	 DWORD PTR [esp+20], xmm0
  000e0	f3 0f 11 44 24
	10		 movss	 DWORD PTR [esp+16], xmm0
  000e6	85 c9		 test	 ecx, ecx
  000e8	79 06		 jns	 SHORT $LN149@SetMotionI
  000ea	d8 05 00 00 00
	00		 fadd	 DWORD PTR __real@4f800000
$LN149@SetMotionI:
  000f0	89 55 d8	 mov	 DWORD PTR tv1127[ebp], edx
  000f3	d9 5c 24 0c	 fstp	 DWORD PTR [esp+12]
  000f7	db 45 d8	 fild	 DWORD PTR tv1127[ebp]
  000fa	85 d2		 test	 edx, edx
  000fc	79 06		 jns	 SHORT $LN150@SetMotionI
  000fe	d8 05 00 00 00
	00		 fadd	 DWORD PTR __real@4f800000
$LN150@SetMotionI:
  00104	8b 4d d4	 mov	 ecx, DWORD PTR $T573088[ebp]
  00107	d9 5c 24 08	 fstp	 DWORD PTR [esp+8]
  0010b	db 45 d4	 fild	 DWORD PTR $T573088[ebp]
  0010e	85 c9		 test	 ecx, ecx
  00110	79 06		 jns	 SHORT $LN151@SetMotionI
  00112	d8 05 00 00 00
	00		 fadd	 DWORD PTR __real@4f800000
$LN151@SetMotionI:
  00118	89 45 d8	 mov	 DWORD PTR tv1123[ebp], eax
  0011b	d9 5c 24 04	 fstp	 DWORD PTR [esp+4]
  0011f	db 45 d8	 fild	 DWORD PTR tv1123[ebp]
  00122	85 c0		 test	 eax, eax
  00124	79 06		 jns	 SHORT $LN152@SetMotionI
  00126	d8 05 00 00 00
	00		 fadd	 DWORD PTR __real@4f800000
$LN152@SetMotionI:
  0012c	8b 4e 04	 mov	 ecx, DWORD PTR [esi+4]
  0012f	d9 1c 24	 fstp	 DWORD PTR [esp]
  00132	57		 push	 edi
  00133	ff 15 00 00 00
	00		 call	 DWORD PTR __imp_?SetActionAni@ioEntityGroup@@QAE_NHMMMMMM_N0@Z

; 1677 : 
; 1678 : 	std::list<float> cmdJumpAniTimeCnt;

  00139	51		 push	 ecx
  0013a	89 65 d8	 mov	 DWORD PTR $T573102[ebp], esp
  0013d	8d 4d c8	 lea	 ecx, DWORD PTR _cmdJumpAniTimeCnt$[ebp]
  00140	89 65 d8	 mov	 DWORD PTR $T573099[ebp], esp
  00143	e8 00 00 00 00	 call	 ??0?$_List_val@MV?$allocator@M@std@@@std@@QAE@V?$allocator@M@1@@Z ; std::_List_val<float,std::allocator<float> >::_List_val<float,std::allocator<float> >

; 1679 : 	m_pGrp->GetAnimationEventTimeList_e( iAniID, "jump_anitime", cmdJumpAniTimeCnt );

  00148	8b 7e 04	 mov	 edi, DWORD PTR [esi+4]
  0014b	6a 03		 push	 3
  0014d	89 5d fc	 mov	 DWORD PTR __$EHRec$[ebp+8], ebx
  00150	c7 45 dc 87 99
	86 9a		 mov	 DWORD PTR _szEncEventType$573129[ebp], -1702454905 ; 9a869987H
  00157	c7 45 e0 b2 8d
	85 83		 mov	 DWORD PTR _szEncEventType$573129[ebp+4], -2088399438 ; 83858db2H
  0015e	c7 45 e4 99 85
	86 8f		 mov	 DWORD PTR _szEncEventType$573129[ebp+8], -1887009383 ; 8f868599H
  00165	8d 45 dc	 lea	 eax, DWORD PTR _szEncEventType$573129[ebp]
  00168	88 5d e8	 mov	 BYTE PTR _szEncEventType$573129[ebp+12], bl
  0016b	59		 pop	 ecx
$LL129@SetMotionI:
  0016c	81 30 ed ec eb
	ea		 xor	 DWORD PTR [eax], -353637139 ; eaebecedH
  00172	83 c0 04	 add	 eax, 4
  00175	49		 dec	 ecx
  00176	75 f4		 jne	 SHORT $LL129@SetMotionI
  00178	8d 45 dc	 lea	 eax, DWORD PTR _szEncEventType$573129[ebp]
  0017b	50		 push	 eax
  0017c	8d 4d b4	 lea	 ecx, DWORD PTR $T573125[ebp]
  0017f	ff 15 00 00 00
	00		 call	 DWORD PTR __imp_??0ioHashString@@QAE@PBD@Z
  00185	8d 45 c8	 lea	 eax, DWORD PTR _cmdJumpAniTimeCnt$[ebp]
  00188	50		 push	 eax
  00189	8d 45 b4	 lea	 eax, DWORD PTR $T573125[ebp]
  0018c	50		 push	 eax
  0018d	ff 75 c4	 push	 DWORD PTR _iAniID$[ebp]
  00190	8b cf		 mov	 ecx, edi
  00192	c6 45 fc 01	 mov	 BYTE PTR __$EHRec$[ebp+8], 1
  00196	ff 15 00 00 00
	00		 call	 DWORD PTR __imp_?GetAnimationEventTimeList@ioEntityGroup@@QAEHHABVioHashString@@AAV?$list@MV?$allocator@M@std@@@std@@@Z
  0019c	8d 4d b4	 lea	 ecx, DWORD PTR $T573125[ebp]
  0019f	88 5d fc	 mov	 BYTE PTR __$EHRec$[ebp+8], bl
  001a2	ff 15 00 00 00
	00		 call	 DWORD PTR __imp_??1ioHashString@@QAE@XZ

; 1680 : 	if( cmdJumpAniTimeCnt.empty() )

  001a8	39 5d cc	 cmp	 DWORD PTR _cmdJumpAniTimeCnt$[ebp+4], ebx
  001ab	75 2d		 jne	 SHORT $LN2@SetMotionI

; 1681 : 	{
; 1682 : 		m_dwMotionItemAniCurTime  = FRAMEGETTIME();

  001ad	ff 15 00 00 00
	00		 call	 DWORD PTR __imp_?GetSingleton@ioFrameTimer@@SAAAV1@XZ
  001b3	8b c8		 mov	 ecx, eax
  001b5	ff 15 00 00 00
	00		 call	 DWORD PTR __imp_?GetLoopSec@ioFrameTimer@@QBEKXZ

; 1683 : 		m_dwMotionItemAniMaxTime  = m_pGrp->GetAnimationFullTime( iAniID );

  001bb	ff 75 c4	 push	 DWORD PTR _iAniID$[ebp]
  001be	8b 4e 04	 mov	 ecx, DWORD PTR [esi+4]
  001c1	89 86 20 02 00
	00		 mov	 DWORD PTR [esi+544], eax
  001c7	ff 15 00 00 00
	00		 call	 DWORD PTR __imp_?GetAnimationFullTime@ioEntityGroup@@QAEMH@Z
  001cd	e8 00 00 00 00	 call	 __ftol2
  001d2	89 86 1c 02 00
	00		 mov	 DWORD PTR [esi+540], eax

; 1684 : 	}
; 1685 : 	else

  001d8	eb 1b		 jmp	 SHORT $LN1@SetMotionI
$LN2@SetMotionI:

; 1686 : 	{
; 1687 : 		m_dwMotionItemAniCurTime  = FRAMEGETTIME();

  001da	ff 15 00 00 00
	00		 call	 DWORD PTR __imp_?GetSingleton@ioFrameTimer@@SAAAV1@XZ
  001e0	8b c8		 mov	 ecx, eax
  001e2	ff 15 00 00 00
	00		 call	 DWORD PTR __imp_?GetLoopSec@ioFrameTimer@@QBEKXZ

; 1688 : 		m_dwMotionItemAniMaxTime  = INFINITE;

  001e8	83 8e 1c 02 00
	00 ff		 or	 DWORD PTR [esi+540], -1
  001ef	89 86 20 02 00
	00		 mov	 DWORD PTR [esi+544], eax
$LN1@SetMotionI:

; 1689 : 	}
; 1690 : }

  001f5	8d 4d c8	 lea	 ecx, DWORD PTR _cmdJumpAniTimeCnt$[ebp]
  001f8	e8 00 00 00 00	 call	 ?clear@?$list@MV?$allocator@M@std@@@std@@QAEXXZ ; std::list<float,std::allocator<float> >::clear
  001fd	ff 75 c8	 push	 DWORD PTR _cmdJumpAniTimeCnt$[ebp]
  00200	e8 00 00 00 00	 call	 ??3@YAXPAX@Z		; operator delete
  00205	59		 pop	 ecx
$LN140@SetMotionI:
  00206	e8 00 00 00 00	 call	 __EH_epilog3_GS
  0020b	c2 04 00	 ret	 4
_TEXT	ENDS
;	COMDAT text$x
text$x	SEGMENT
__unwindfunclet$?SetMotionItemAni@ioCreateChar@@QAEXABVioHashString@@@Z$0:
  00000	8d 4d c8	 lea	 ecx, DWORD PTR _cmdJumpAniTimeCnt$[ebp]
  00003	e9 00 00 00 00	 jmp	 ??1?$list@MV?$allocator@M@std@@@std@@QAE@XZ ; std::list<float,std::allocator<float> >::~list<float,std::allocator<float> >
__unwindfunclet$?SetMotionItemAni@ioCreateChar@@QAEXABVioHashString@@@Z$2:
  00008	8d 4d b4	 lea	 ecx, DWORD PTR $T573125[ebp]
  0000b	ff 25 00 00 00
	00		 jmp	 DWORD PTR __imp_??1ioHashString@@QAE@XZ
__ehhandler$?SetMotionItemAni@ioCreateChar@@QAEXABVioHashString@@@Z:
  00011	8b 54 24 08	 mov	 edx, DWORD PTR [esp+8]
  00015	8d 42 0c	 lea	 eax, DWORD PTR [edx+12]
  00018	8b 4a b0	 mov	 ecx, DWORD PTR [edx-80]
  0001b	33 c8		 xor	 ecx, eax
  0001d	e8 00 00 00 00	 call	 @__security_check_cookie@4
  00022	8b 4a fc	 mov	 ecx, DWORD PTR [edx-4]
  00025	33 c8		 xor	 ecx, eax
  00027	e8 00 00 00 00	 call	 @__security_check_cookie@4
  0002c	b8 00 00 00 00	 mov	 eax, OFFSET __ehfuncinfo$?SetMotionItemAni@ioCreateChar@@QAEXABVioHashString@@@Z
  00031	e9 00 00 00 00	 jmp	 ___CxxFrameHandler3
text$x	ENDS
?SetMotionItemAni@ioCreateChar@@QAEXABVioHashString@@@Z ENDP ; ioCreateChar::SetMotionItemAni
PUBLIC	??$_Umove@PAVioHashString@@@?$vector@VioHashString@@V?$allocator@VioHashString@@@std@@@std@@IAEPAVioHashString@@PAV2@00@Z ; std::vector<ioHashString,std::allocator<ioHashString> >::_Umove<ioHashString *>
; Function compile flags: /Ogsp
; File c:\program files (x86)\microsoft visual studio 10.0\vc\include\vector
;	COMDAT ??$_Umove@PAVioHashString@@@?$vector@VioHashString@@V?$allocator@VioHashString@@@std@@@std@@IAEPAVioHashString@@PAV2@00@Z
_TEXT	SEGMENT
__First$ = 8						; size = 4
__Last$ = 12						; size = 4
__Ptr$ = 16						; size = 4
??$_Umove@PAVioHashString@@@?$vector@VioHashString@@V?$allocator@VioHashString@@@std@@@std@@IAEPAVioHashString@@PAV2@00@Z PROC ; std::vector<ioHashString,std::allocator<ioHashString> >::_Umove<ioHashString *>, COMDAT
; _this$ = ecx

; 1322 : 		pointer _Umove(_Iter _First, _Iter _Last, pointer _Ptr)

  00000	55		 push	 ebp
  00001	8b ec		 mov	 ebp, esp

; 1323 : 		{	// move initializing [_First, _Last), using allocator
; 1324 : 		return (_Uninitialized_move(_First, _Last,
; 1325 : 			_Ptr, this->_Alval));

  00003	83 c1 0c	 add	 ecx, 12			; 0000000cH
  00006	51		 push	 ecx
  00007	ff 75 10	 push	 DWORD PTR __Ptr$[ebp]
  0000a	ff 75 0c	 push	 DWORD PTR __Last$[ebp]
  0000d	ff 75 08	 push	 DWORD PTR __First$[ebp]
  00010	e8 00 00 00 00	 call	 ??$_Uninitialized_move@PAVioHashString@@PAV1@V?$allocator@VioHashString@@@std@@@std@@YAPAVioHashString@@PAV1@00AAV?$allocator@VioHashString@@@0@@Z ; std::_Uninitialized_move<ioHashString *,ioHashString *,std::allocator<ioHashString> >
  00015	83 c4 10	 add	 esp, 16			; 00000010H

; 1326 : 		}

  00018	5d		 pop	 ebp
  00019	c2 0c 00	 ret	 12			; 0000000cH
??$_Umove@PAVioHashString@@@?$vector@VioHashString@@V?$allocator@VioHashString@@@std@@@std@@IAEPAVioHashString@@PAV2@00@Z ENDP ; std::vector<ioHashString,std::allocator<ioHashString> >::_Umove<ioHashString *>
_TEXT	ENDS
PUBLIC	?_Destroy@?$vector@VioHashString@@V?$allocator@VioHashString@@@std@@@std@@IAEXPAVioHashString@@0@Z ; std::vector<ioHashString,std::allocator<ioHashString> >::_Destroy
; Function compile flags: /Ogsp
;	COMDAT ?_Destroy@?$vector@VioHashString@@V?$allocator@VioHashString@@@std@@@std@@IAEXPAVioHashString@@0@Z
_TEXT	SEGMENT
__First$ = 8						; size = 4
__Last$ = 12						; size = 4
?_Destroy@?$vector@VioHashString@@V?$allocator@VioHashString@@@std@@@std@@IAEXPAVioHashString@@0@Z PROC ; std::vector<ioHashString,std::allocator<ioHashString> >::_Destroy, COMDAT
; _this$ = ecx

; 1269 : 		{	// destroy [_First, _Last) using allocator

  00000	55		 push	 ebp
  00001	8b ec		 mov	 ebp, esp
  00003	56		 push	 esi

; 1270 : 		_Destroy_range(_First, _Last, this->_Alval);

  00004	8b 75 08	 mov	 esi, DWORD PTR __First$[ebp]
  00007	eb 0b		 jmp	 SHORT $LN23@Destroy
$LL9@Destroy:
  00009	8b ce		 mov	 ecx, esi
  0000b	ff 15 00 00 00
	00		 call	 DWORD PTR __imp_??1ioHashString@@QAE@XZ
  00011	83 c6 10	 add	 esi, 16			; 00000010H
$LN23@Destroy:
  00014	3b 75 0c	 cmp	 esi, DWORD PTR __Last$[ebp]
  00017	75 f0		 jne	 SHORT $LL9@Destroy
  00019	5e		 pop	 esi

; 1271 : 		}

  0001a	5d		 pop	 ebp
  0001b	c2 08 00	 ret	 8
?_Destroy@?$vector@VioHashString@@V?$allocator@VioHashString@@@std@@@std@@IAEXPAVioHashString@@0@Z ENDP ; std::vector<ioHashString,std::allocator<ioHashString> >::_Destroy
_TEXT	ENDS
PUBLIC	??$_Destroy_range@V?$allocator@UCustomTexture@@@std@@@std@@YAXPAUCustomTexture@@0AAV?$allocator@UCustomTexture@@@0@@Z ; std::_Destroy_range<std::allocator<CustomTexture> >
; Function compile flags: /Ogsp
; File c:\program files (x86)\microsoft visual studio 10.0\vc\include\xmemory
;	COMDAT ??$_Destroy_range@V?$allocator@UCustomTexture@@@std@@@std@@YAXPAUCustomTexture@@0AAV?$allocator@UCustomTexture@@@0@@Z
_TEXT	SEGMENT
__First$ = 8						; size = 4
__Last$ = 12						; size = 4
__Al$ = 16						; size = 4
??$_Destroy_range@V?$allocator@UCustomTexture@@@std@@@std@@YAXPAUCustomTexture@@0AAV?$allocator@UCustomTexture@@@0@@Z PROC ; std::_Destroy_range<std::allocator<CustomTexture> >, COMDAT

; 87   : 	{	// destroy [_First, _Last)

  00000	55		 push	 ebp
  00001	8b ec		 mov	 ebp, esp
  00003	56		 push	 esi

; 88   : 	_Destroy_range(_First, _Last, _Al, _Ptr_cat(_First, _Last));

  00004	8b 75 08	 mov	 esi, DWORD PTR __First$[ebp]
  00007	eb 0c		 jmp	 SHORT $LN24@Destroy_ra@4
$LL7@Destroy_ra@4:
  00009	8d 4e 04	 lea	 ecx, DWORD PTR [esi+4]
  0000c	ff 15 00 00 00
	00		 call	 DWORD PTR __imp_??1ioHashString@@QAE@XZ
  00012	83 c6 14	 add	 esi, 20			; 00000014H
$LN24@Destroy_ra@4:
  00015	3b 75 0c	 cmp	 esi, DWORD PTR __Last$[ebp]
  00018	75 ef		 jne	 SHORT $LL7@Destroy_ra@4
  0001a	5e		 pop	 esi

; 89   : 	}

  0001b	5d		 pop	 ebp
  0001c	c3		 ret	 0
??$_Destroy_range@V?$allocator@UCustomTexture@@@std@@@std@@YAXPAUCustomTexture@@0AAV?$allocator@UCustomTexture@@@0@@Z ENDP ; std::_Destroy_range<std::allocator<CustomTexture> >
_TEXT	ENDS
PUBLIC	?UpdateMotionItemAni@ioCreateChar@@IAEXXZ	; ioCreateChar::UpdateMotionItemAni
;	COMDAT xdata$x
; File d:\lost saga for developer\youtube\tutorial\source\src\lsclient\stdafx.h
xdata$x	SEGMENT
__unwindtable$?UpdateMotionItemAni@ioCreateChar@@IAEXXZ DD 0ffffffffH
	DD	FLAT:__unwindfunclet$?UpdateMotionItemAni@ioCreateChar@@IAEXXZ$0
__ehfuncinfo$?UpdateMotionItemAni@ioCreateChar@@IAEXXZ DD 019930522H
	DD	01H
	DD	FLAT:__unwindtable$?UpdateMotionItemAni@ioCreateChar@@IAEXXZ
	DD	2 DUP(00H)
	DD	2 DUP(00H)
	DD	00H
	DD	01H
; Function compile flags: /Ogsp
; File d:\lost saga for developer\youtube\tutorial\source\src\lsclient\iocreatechar.cpp
xdata$x	ENDS
;	COMDAT ?UpdateMotionItemAni@ioCreateChar@@IAEXXZ
_TEXT	SEGMENT
tv1641 = -316						; size = 4
tv1636 = -316						; size = 4
$T573476 = -316						; size = 4
tv1628 = -312						; size = 4
tv1626 = -312						; size = 4
tv1624 = -312						; size = 4
tv1622 = -312						; size = 4
_szDealyAni$564964 = -308				; size = 260
___encStr$565123 = -48					; size = 25
___encStr$564969 = -48					; size = 22
$T573427 = -36						; size = 16
__$EHRec$ = -12						; size = 12
?UpdateMotionItemAni@ioCreateChar@@IAEXXZ PROC		; ioCreateChar::UpdateMotionItemAni, COMDAT
; _this$ = ecx

; 78   : {

  00000	68 30 01 00 00	 push	 304			; 00000130H
  00005	b8 00 00 00 00	 mov	 eax, __ehhandler$?UpdateMotionItemAni@ioCreateChar@@IAEXXZ
  0000a	e8 00 00 00 00	 call	 __EH_prolog3_GS
  0000f	8b f1		 mov	 esi, ecx

; 79   : 	if( !m_pGrp ) return;

  00011	33 db		 xor	 ebx, ebx
  00013	39 5e 04	 cmp	 DWORD PTR [esi+4], ebx
  00016	0f 84 43 02 00
	00		 je	 $LN1@UpdateMoti

; 80   : 	if( m_MotionItemAniName.IsEmpty() ) return;

  0001c	8d be 24 02 00
	00		 lea	 edi, DWORD PTR [esi+548]
  00022	8b cf		 mov	 ecx, edi
  00024	ff 15 00 00 00
	00		 call	 DWORD PTR __imp_?IsEmpty@ioHashString@@QBE_NXZ
  0002a	84 c0		 test	 al, al
  0002c	0f 85 2d 02 00
	00		 jne	 $LN1@UpdateMoti

; 81   : 
; 82   : 	if( FRAMEGETTIME() - m_dwMotionItemAniCurTime > m_dwMotionItemAniMaxTime )

  00032	ff 15 00 00 00
	00		 call	 DWORD PTR __imp_?GetSingleton@ioFrameTimer@@SAAAV1@XZ
  00038	8b c8		 mov	 ecx, eax
  0003a	ff 15 00 00 00
	00		 call	 DWORD PTR __imp_?GetLoopSec@ioFrameTimer@@QBEKXZ
  00040	2b 86 20 02 00
	00		 sub	 eax, DWORD PTR [esi+544]
  00046	3b 86 1c 02 00
	00		 cmp	 eax, DWORD PTR [esi+540]
  0004c	0f 86 0d 02 00
	00		 jbe	 $LN1@UpdateMoti

; 83   : 	{
; 84   : 		if( m_bMotionItemDelay )

  00052	38 9e 34 02 00
	00		 cmp	 BYTE PTR [esi+564], bl
  00058	74 0d		 je	 SHORT $LN203@UpdateMoti

; 85   : 		{
; 86   : 			SetMotionItemAni( m_MotionItemAniName );

  0005a	57		 push	 edi
  0005b	8b ce		 mov	 ecx, esi
  0005d	e8 00 00 00 00	 call	 ?SetMotionItemAni@ioCreateChar@@QAEXABVioHashString@@@Z ; ioCreateChar::SetMotionItemAni

; 87   : 		}
; 88   : 		else

  00062	e9 f8 01 00 00	 jmp	 $LN1@UpdateMoti
$LN203@UpdateMoti:

; 89   : 		{
; 90   : 			m_bMotionItemDelay = true;
; 91   : 
; 92   : 			char szDealyAni[MAX_PATH] = "";

  00067	68 03 01 00 00	 push	 259			; 00000103H
  0006c	8d 85 cd fe ff
	ff		 lea	 eax, DWORD PTR _szDealyAni$564964[ebp+1]
  00072	53		 push	 ebx
  00073	50		 push	 eax
  00074	c6 86 34 02 00
	00 01		 mov	 BYTE PTR [esi+564], 1
  0007b	88 9d cc fe ff
	ff		 mov	 BYTE PTR _szDealyAni$564964[ebp], bl
  00081	e8 00 00 00 00	 call	 _memset
  00086	83 c4 0c	 add	 esp, 12			; 0000000cH

; 93   : 			if( IsMale() )
; 94   : 				sprintf_e( szDealyAni, "public_shop_delay.ani" );

  00089	c7 45 d0 9d 99
	89 86		 mov	 DWORD PTR ___encStr$564969[ebp], -2037802595 ; 8689999dH
  00090	c7 45 d4 84 8f
	b4 99		 mov	 DWORD PTR ___encStr$564969[ebp+4], -1716220028 ; 99b48f84H
  00097	c7 45 d8 85 83
	9b b5		 mov	 DWORD PTR ___encStr$564969[ebp+8], -1248099451 ; b59b8385H
  0009e	c7 45 dc 89 89
	87 8b		 mov	 DWORD PTR ___encStr$564969[ebp+12], -1954051703 ; 8b878989H
  000a5	38 5e 1c	 cmp	 BYTE PTR [esi+28], bl
  000a8	74 28		 je	 SHORT $LN100@UpdateMoti
  000aa	6a 05		 push	 5
  000ac	c7 45 e0 94 c2
	8a 84		 mov	 DWORD PTR ___encStr$564969[ebp+16], -2071281004 ; 848ac294H
  000b3	8d 45 d0	 lea	 eax, DWORD PTR ___encStr$564969[ebp]
  000b6	66 c7 45 e4 84
	00		 mov	 WORD PTR ___encStr$564969[ebp+20], 132 ; 00000084H
  000bc	59		 pop	 ecx
$LL217@UpdateMoti:
  000bd	81 30 ed ec eb
	ea		 xor	 DWORD PTR [eax], -353637139 ; eaebecedH
  000c3	83 c0 04	 add	 eax, 4
  000c6	49		 dec	 ecx
  000c7	75 f4		 jne	 SHORT $LL217@UpdateMoti
  000c9	80 75 e4 ed	 xor	 BYTE PTR ___encStr$564969[ebp+20], -19 ; ffffffedH
  000cd	8d 45 d0	 lea	 eax, DWORD PTR ___encStr$564969[ebp]

; 95   : 			else

  000d0	eb 26		 jmp	 SHORT $LN255@UpdateMoti
$LN100@UpdateMoti:

; 96   : 				sprintf_e( szDealyAni, "public_shop_delay_hw.ani" );

  000d2	6a 06		 push	 6
  000d4	c7 45 e0 94 b3
	83 9d		 mov	 DWORD PTR ___encStr$565123[ebp+16], -1652313196 ; 9d83b394H
  000db	c7 45 e4 c3 8d
	85 83		 mov	 DWORD PTR ___encStr$565123[ebp+20], -2088399421 ; 83858dc3H
  000e2	8d 45 d0	 lea	 eax, DWORD PTR ___encStr$565123[ebp]
  000e5	88 5d e8	 mov	 BYTE PTR ___encStr$565123[ebp+24], bl
  000e8	59		 pop	 ecx
$LL225@UpdateMoti:
  000e9	81 30 ed ec eb
	ea		 xor	 DWORD PTR [eax], -353637139 ; eaebecedH
  000ef	83 c0 04	 add	 eax, 4
  000f2	49		 dec	 ecx
  000f3	75 f4		 jne	 SHORT $LL225@UpdateMoti
  000f5	8d 45 d0	 lea	 eax, DWORD PTR ___encStr$565123[ebp]
$LN255@UpdateMoti:
  000f8	50		 push	 eax
  000f9	8d 85 cc fe ff
	ff		 lea	 eax, DWORD PTR _szDealyAni$564964[ebp]
  000ff	50		 push	 eax
  00100	ff 15 00 00 00
	00		 call	 DWORD PTR __imp__sprintf
  00106	59		 pop	 ecx
  00107	59		 pop	 ecx

; 97   : 
; 98   : 			int iAniID = m_pGrp->GetAnimationIdx( szDealyAni );

  00108	8d 85 cc fe ff
	ff		 lea	 eax, DWORD PTR _szDealyAni$564964[ebp]
  0010e	50		 push	 eax
  0010f	8d 4d dc	 lea	 ecx, DWORD PTR $T573427[ebp]
  00112	ff 15 00 00 00
	00		 call	 DWORD PTR __imp_??0ioHashString@@QAE@PBD@Z
  00118	8b 4e 04	 mov	 ecx, DWORD PTR [esi+4]
  0011b	8d 45 dc	 lea	 eax, DWORD PTR $T573427[ebp]
  0011e	50		 push	 eax
  0011f	89 5d fc	 mov	 DWORD PTR __$EHRec$[ebp+8], ebx
  00122	ff 15 00 00 00
	00		 call	 DWORD PTR __imp_?GetAnimationIdx@ioEntityGroup@@QAEHABVioHashString@@@Z
  00128	83 4d fc ff	 or	 DWORD PTR __$EHRec$[ebp+8], -1
  0012c	8d 4d dc	 lea	 ecx, DWORD PTR $T573427[ebp]
  0012f	8b f8		 mov	 edi, eax
  00131	ff 15 00 00 00
	00		 call	 DWORD PTR __imp_??1ioHashString@@QAE@XZ

; 99   : 			if( iAniID != -1 )

  00137	83 ff ff	 cmp	 edi, -1
  0013a	0f 84 1f 01 00
	00		 je	 $LN1@UpdateMoti

; 100  : 			{
; 101  : 				m_pGrp->ClearAllActionAni( FLOAT100 );

  00140	b8 64 00 00 00	 mov	 eax, 100		; 00000064H
  00145	89 85 c4 fe ff
	ff		 mov	 DWORD PTR tv1641[ebp], eax
  0014b	db 85 c4 fe ff
	ff		 fild	 DWORD PTR tv1641[ebp]
  00151	53		 push	 ebx
  00152	85 c0		 test	 eax, eax
  00154	79 06		 jns	 SHORT $LN249@UpdateMoti
  00156	d8 05 00 00 00
	00		 fadd	 DWORD PTR __real@4f800000
$LN249@UpdateMoti:
  0015c	51		 push	 ecx
  0015d	8b 4e 04	 mov	 ecx, DWORD PTR [esi+4]
  00160	d9 1c 24	 fstp	 DWORD PTR [esp]
  00163	ff 15 00 00 00
	00		 call	 DWORD PTR __imp_?ClearAllActionAni@ioEntityGroup@@QAEXM_N@Z

; 102  : 				m_pGrp->ClearAllLoopAni( FLOAT100 );

  00169	b8 64 00 00 00	 mov	 eax, 100		; 00000064H
  0016e	89 85 c4 fe ff
	ff		 mov	 DWORD PTR tv1636[ebp], eax
  00174	db 85 c4 fe ff
	ff		 fild	 DWORD PTR tv1636[ebp]
  0017a	53		 push	 ebx
  0017b	85 c0		 test	 eax, eax
  0017d	79 06		 jns	 SHORT $LN250@UpdateMoti
  0017f	d8 05 00 00 00
	00		 fadd	 DWORD PTR __real@4f800000
$LN250@UpdateMoti:
  00185	51		 push	 ecx
  00186	8b 4e 04	 mov	 ecx, DWORD PTR [esi+4]
  00189	d9 1c 24	 fstp	 DWORD PTR [esp]
  0018c	ff 15 00 00 00
	00		 call	 DWORD PTR __imp_?ClearAllLoopAni@ioEntityGroup@@QAEXM_N@Z

; 103  : 				m_pGrp->SetActionAni( iAniID, FLOAT100, FLOAT100, FLOAT1, FLOAT1 );

  00192	b8 01 00 00 00	 mov	 eax, 1
  00197	8b c8		 mov	 ecx, eax
  00199	b8 01 00 00 00	 mov	 eax, 1
  0019e	8b d0		 mov	 edx, eax
  001a0	b8 64 00 00 00	 mov	 eax, 100		; 00000064H
  001a5	89 85 c4 fe ff
	ff		 mov	 DWORD PTR $T573476[ebp], eax
  001ab	b8 64 00 00 00	 mov	 eax, 100		; 00000064H
  001b0	0f 57 c0	 xorps	 xmm0, xmm0
  001b3	6a 01		 push	 1
  001b5	53		 push	 ebx
  001b6	83 ec 18	 sub	 esp, 24			; 00000018H
  001b9	89 8d c8 fe ff
	ff		 mov	 DWORD PTR tv1628[ebp], ecx
  001bf	db 85 c8 fe ff
	ff		 fild	 DWORD PTR tv1628[ebp]
  001c5	f3 0f 11 44 24
	14		 movss	 DWORD PTR [esp+20], xmm0
  001cb	f3 0f 11 44 24
	10		 movss	 DWORD PTR [esp+16], xmm0
  001d1	85 c9		 test	 ecx, ecx
  001d3	79 06		 jns	 SHORT $LN251@UpdateMoti
  001d5	d8 05 00 00 00
	00		 fadd	 DWORD PTR __real@4f800000
$LN251@UpdateMoti:
  001db	89 95 c8 fe ff
	ff		 mov	 DWORD PTR tv1626[ebp], edx
  001e1	d9 5c 24 0c	 fstp	 DWORD PTR [esp+12]
  001e5	db 85 c8 fe ff
	ff		 fild	 DWORD PTR tv1626[ebp]
  001eb	85 d2		 test	 edx, edx
  001ed	79 06		 jns	 SHORT $LN252@UpdateMoti
  001ef	d8 05 00 00 00
	00		 fadd	 DWORD PTR __real@4f800000
$LN252@UpdateMoti:
  001f5	8b 8d c4 fe ff
	ff		 mov	 ecx, DWORD PTR $T573476[ebp]
  001fb	d9 5c 24 08	 fstp	 DWORD PTR [esp+8]
  001ff	db 85 c4 fe ff
	ff		 fild	 DWORD PTR $T573476[ebp]
  00205	85 c9		 test	 ecx, ecx
  00207	79 06		 jns	 SHORT $LN253@UpdateMoti
  00209	d8 05 00 00 00
	00		 fadd	 DWORD PTR __real@4f800000
$LN253@UpdateMoti:
  0020f	89 85 c8 fe ff
	ff		 mov	 DWORD PTR tv1622[ebp], eax
  00215	d9 5c 24 04	 fstp	 DWORD PTR [esp+4]
  00219	db 85 c8 fe ff
	ff		 fild	 DWORD PTR tv1622[ebp]
  0021f	85 c0		 test	 eax, eax
  00221	79 06		 jns	 SHORT $LN254@UpdateMoti
  00223	d8 05 00 00 00
	00		 fadd	 DWORD PTR __real@4f800000
$LN254@UpdateMoti:
  00229	8b 4e 04	 mov	 ecx, DWORD PTR [esi+4]
  0022c	d9 1c 24	 fstp	 DWORD PTR [esp]
  0022f	57		 push	 edi
  00230	ff 15 00 00 00
	00		 call	 DWORD PTR __imp_?SetActionAni@ioEntityGroup@@QAE_NHMMMMMM_N0@Z

; 104  : 
; 105  : 				m_dwMotionItemAniCurTime  = FRAMEGETTIME();

  00236	ff 15 00 00 00
	00		 call	 DWORD PTR __imp_?GetSingleton@ioFrameTimer@@SAAAV1@XZ
  0023c	8b c8		 mov	 ecx, eax
  0023e	ff 15 00 00 00
	00		 call	 DWORD PTR __imp_?GetLoopSec@ioFrameTimer@@QBEKXZ

; 106  : 				m_dwMotionItemAniMaxTime  = m_pGrp->GetAnimationFullTime( iAniID );

  00244	8b 4e 04	 mov	 ecx, DWORD PTR [esi+4]
  00247	57		 push	 edi
  00248	89 86 20 02 00
	00		 mov	 DWORD PTR [esi+544], eax
  0024e	ff 15 00 00 00
	00		 call	 DWORD PTR __imp_?GetAnimationFullTime@ioEntityGroup@@QAEMH@Z
  00254	e8 00 00 00 00	 call	 __ftol2
  00259	89 86 1c 02 00
	00		 mov	 DWORD PTR [esi+540], eax
$LN1@UpdateMoti:

; 107  : 			}
; 108  : 		}
; 109  : 	}
; 110  : }

  0025f	e8 00 00 00 00	 call	 __EH_epilog3_GS
  00264	c3		 ret	 0
_TEXT	ENDS
;	COMDAT text$x
text$x	SEGMENT
__unwindfunclet$?UpdateMotionItemAni@ioCreateChar@@IAEXXZ$0:
  00000	8d 4d dc	 lea	 ecx, DWORD PTR $T573427[ebp]
  00003	ff 25 00 00 00
	00		 jmp	 DWORD PTR __imp_??1ioHashString@@QAE@XZ
__ehhandler$?UpdateMotionItemAni@ioCreateChar@@IAEXXZ:
  00009	8b 54 24 08	 mov	 edx, DWORD PTR [esp+8]
  0000d	8d 42 0c	 lea	 eax, DWORD PTR [edx+12]
  00010	8b 8a c0 fe ff
	ff		 mov	 ecx, DWORD PTR [edx-320]
  00016	33 c8		 xor	 ecx, eax
  00018	e8 00 00 00 00	 call	 @__security_check_cookie@4
  0001d	8b 4a fc	 mov	 ecx, DWORD PTR [edx-4]
  00020	33 c8		 xor	 ecx, eax
  00022	e8 00 00 00 00	 call	 @__security_check_cookie@4
  00027	b8 00 00 00 00	 mov	 eax, OFFSET __ehfuncinfo$?UpdateMotionItemAni@ioCreateChar@@IAEXXZ
  0002c	e9 00 00 00 00	 jmp	 ___CxxFrameHandler3
text$x	ENDS
?UpdateMotionItemAni@ioCreateChar@@IAEXXZ ENDP		; ioCreateChar::UpdateMotionItemAni
PUBLIC	?reserve@?$vector@VioHashString@@V?$allocator@VioHashString@@@std@@@std@@QAEXI@Z ; std::vector<ioHashString,std::allocator<ioHashString> >::reserve
EXTRN	__imp_?_Orphan_all@_Container_base0@std@@QAEXXZ:PROC
;	COMDAT xdata$x
; File c:\program files (x86)\microsoft visual studio 10.0\vc\include\xmemory
xdata$x	SEGMENT
__catchsym$?reserve@?$vector@VioHashString@@V?$allocator@VioHashString@@@std@@@std@@QAEXI@Z$2 DD 040H
	DD	00H
	DD	00H
	DD	FLAT:__catch$?reserve@?$vector@VioHashString@@V?$allocator@VioHashString@@@std@@@std@@QAEXI@Z$0
__unwindtable$?reserve@?$vector@VioHashString@@V?$allocator@VioHashString@@@std@@@std@@QAEXI@Z DD 0ffffffffH
	DD	00H
	DD	0ffffffffH
	DD	00H
__tryblocktable$?reserve@?$vector@VioHashString@@V?$allocator@VioHashString@@@std@@@std@@QAEXI@Z DD 00H
	DD	00H
	DD	01H
	DD	01H
	DD	FLAT:__catchsym$?reserve@?$vector@VioHashString@@V?$allocator@VioHashString@@@std@@@std@@QAEXI@Z$2
__ehfuncinfo$?reserve@?$vector@VioHashString@@V?$allocator@VioHashString@@@std@@@std@@QAEXI@Z DD 019930522H
	DD	02H
	DD	FLAT:__unwindtable$?reserve@?$vector@VioHashString@@V?$allocator@VioHashString@@@std@@@std@@QAEXI@Z
	DD	01H
	DD	FLAT:__tryblocktable$?reserve@?$vector@VioHashString@@V?$allocator@VioHashString@@@std@@@std@@QAEXI@Z
	DD	2 DUP(00H)
	DD	00H
	DD	01H
; Function compile flags: /Ogsp
; File c:\program files (x86)\microsoft visual studio 10.0\vc\include\vector
xdata$x	ENDS
;	COMDAT ?reserve@?$vector@VioHashString@@V?$allocator@VioHashString@@@std@@@std@@QAEXI@Z
_TEXT	SEGMENT
tv300 = -24						; size = 4
__Ptr$568384 = -20					; size = 4
__$EHRec$ = -16						; size = 16
$T573596 = 8						; size = 4
__Count$ = 8						; size = 4
?reserve@?$vector@VioHashString@@V?$allocator@VioHashString@@@std@@@std@@QAEXI@Z PROC ; std::vector<ioHashString,std::allocator<ioHashString> >::reserve, COMDAT
; _this$ = ecx

; 746  : 		{	// determine new minimum length of allocated storage

  00000	6a 0c		 push	 12			; 0000000cH
  00002	b8 00 00 00 00	 mov	 eax, __ehhandler$?reserve@?$vector@VioHashString@@V?$allocator@VioHashString@@@std@@@std@@QAEXI@Z
  00007	e8 00 00 00 00	 call	 __EH_prolog3_catch
  0000c	8b f1		 mov	 esi, ecx

; 747  : 		if (max_size() < _Count)

  0000e	8b 5d 08	 mov	 ebx, DWORD PTR __Count$[ebp]
  00011	81 fb ff ff ff
	0f		 cmp	 ebx, 268435455		; 0fffffffH
  00017	76 0b		 jbe	 SHORT $LN5@reserve

; 748  : 			_Xlen();	// result too long

  00019	68 00 00 00 00	 push	 OFFSET ??_C@_0BD@OLBABOEK@vector?$DMT?$DO?5too?5long?$AA@
  0001e	ff 15 00 00 00
	00		 call	 DWORD PTR __imp_?_Xlength_error@std@@YAXPBD@Z
$LN59@reserve:
$LN5@reserve:

; 749  : 		else if (capacity() < _Count)

  00024	8b 46 08	 mov	 eax, DWORD PTR [esi+8]
  00027	2b 06		 sub	 eax, DWORD PTR [esi]
  00029	c1 f8 04	 sar	 eax, 4
  0002c	3b c3		 cmp	 eax, ebx
  0002e	73 7a		 jae	 SHORT $LN3@reserve

; 750  : 			{	// not enough room, reallocate
; 751  : 			pointer _Ptr = this->_Alval.allocate(_Count);

  00030	6a 00		 push	 0
  00032	53		 push	 ebx
  00033	e8 00 00 00 00	 call	 ??$_Allocate@VioHashString@@@std@@YAPAVioHashString@@IPAV1@@Z ; std::_Allocate<ioHashString>

; 752  : 
; 753  : 			_TRY_BEGIN
; 754  : 			_Umove(this->_Myfirst, this->_Mylast, _Ptr);

  00038	8b 0e		 mov	 ecx, DWORD PTR [esi]
  0003a	83 65 fc 00	 and	 DWORD PTR __$EHRec$[ebp+12], 0
  0003e	8d 56 0c	 lea	 edx, DWORD PTR [esi+12]
  00041	52		 push	 edx
  00042	89 45 ec	 mov	 DWORD PTR __Ptr$568384[ebp], eax
  00045	ff 75 ec	 push	 DWORD PTR __Ptr$568384[ebp]
  00048	8b 46 04	 mov	 eax, DWORD PTR [esi+4]
  0004b	50		 push	 eax
  0004c	51		 push	 ecx
  0004d	e8 00 00 00 00	 call	 ??$_Uninitialized_move@PAVioHashString@@PAV1@V?$allocator@VioHashString@@@std@@@std@@YAPAVioHashString@@PAV1@00AAV?$allocator@VioHashString@@@0@@Z ; std::_Uninitialized_move<ioHashString *,ioHashString *,std::allocator<ioHashString> >

; 758  : 			_CATCH_END
; 759  : 
; 760  : 			size_type _Size = size();

  00052	8b 4e 04	 mov	 ecx, DWORD PTR [esi+4]
  00055	8b 06		 mov	 eax, DWORD PTR [esi]
  00057	83 4d fc ff	 or	 DWORD PTR __$EHRec$[ebp+12], -1
  0005b	8b f9		 mov	 edi, ecx
  0005d	83 c4 18	 add	 esp, 24			; 00000018H
  00060	2b f8		 sub	 edi, eax
  00062	89 4d e8	 mov	 DWORD PTR tv300[ebp], ecx
  00065	85 c0		 test	 eax, eax
  00067	74 24		 je	 SHORT $LN51@reserve

; 761  : 			if (this->_Myfirst != 0)
; 762  : 				{	// destroy and deallocate old array
; 763  : 				_Destroy(this->_Myfirst, this->_Mylast);

  00069	89 45 08	 mov	 DWORD PTR $T573596[ebp], eax
  0006c	3b c1		 cmp	 eax, ecx
  0006e	74 15		 je	 SHORT $LN37@reserve
$LN39@reserve:
  00070	8b 4d 08	 mov	 ecx, DWORD PTR $T573596[ebp]
  00073	ff 15 00 00 00
	00		 call	 DWORD PTR __imp_??1ioHashString@@QAE@XZ
  00079	83 45 08 10	 add	 DWORD PTR $T573596[ebp], 16 ; 00000010H
  0007d	8b 45 08	 mov	 eax, DWORD PTR $T573596[ebp]
  00080	3b 45 e8	 cmp	 eax, DWORD PTR tv300[ebp]
  00083	75 eb		 jne	 SHORT $LN39@reserve
$LN37@reserve:

; 764  : 				this->_Alval.deallocate(this->_Myfirst,
; 765  : 					this->_Myend - this->_Myfirst);

  00085	ff 36		 push	 DWORD PTR [esi]
  00087	e8 00 00 00 00	 call	 ??3@YAXPAX@Z		; operator delete
  0008c	59		 pop	 ecx
$LN51@reserve:

; 766  : 				}
; 767  : 
; 768  : 			this->_Orphan_all();

  0008d	8b ce		 mov	 ecx, esi
  0008f	ff 15 00 00 00
	00		 call	 DWORD PTR __imp_?_Orphan_all@_Container_base0@std@@QAEXXZ

; 769  : 			this->_Myend = _Ptr + _Count;

  00095	8b 45 ec	 mov	 eax, DWORD PTR __Ptr$568384[ebp]
  00098	c1 e3 04	 shl	 ebx, 4
  0009b	03 d8		 add	 ebx, eax

; 770  : 			this->_Mylast = _Ptr + _Size;

  0009d	83 e7 f0	 and	 edi, -16		; fffffff0H
  000a0	03 f8		 add	 edi, eax
  000a2	89 5e 08	 mov	 DWORD PTR [esi+8], ebx
  000a5	89 7e 04	 mov	 DWORD PTR [esi+4], edi

; 771  : 			this->_Myfirst = _Ptr;

  000a8	89 06		 mov	 DWORD PTR [esi], eax
$LN3@reserve:

; 772  : 			}
; 773  : 		}

  000aa	e8 00 00 00 00	 call	 __EH_epilog3
  000af	c2 04 00	 ret	 4
__catch$?reserve@?$vector@VioHashString@@V?$allocator@VioHashString@@@std@@@std@@QAEXI@Z$0:

; 755  : 			_CATCH_ALL
; 756  : 			this->_Alval.deallocate(_Ptr, _Count);

  000b2	ff 75 ec	 push	 DWORD PTR __Ptr$568384[ebp]
  000b5	e8 00 00 00 00	 call	 ??3@YAXPAX@Z		; operator delete
  000ba	59		 pop	 ecx

; 757  : 			_RERAISE;

  000bb	6a 00		 push	 0
  000bd	6a 00		 push	 0
  000bf	e8 00 00 00 00	 call	 __CxxThrowException@8
$LN60@reserve:
$LN58@reserve:
  000c4	cc		 int	 3
_TEXT	ENDS
;	COMDAT text$x
text$x	SEGMENT
__ehhandler$?reserve@?$vector@VioHashString@@V?$allocator@VioHashString@@@std@@@std@@QAEXI@Z:
  00000	8b 54 24 08	 mov	 edx, DWORD PTR [esp+8]
  00004	8d 42 0c	 lea	 eax, DWORD PTR [edx+12]
  00007	8b 4a e4	 mov	 ecx, DWORD PTR [edx-28]
  0000a	33 c8		 xor	 ecx, eax
  0000c	e8 00 00 00 00	 call	 @__security_check_cookie@4
  00011	b8 00 00 00 00	 mov	 eax, OFFSET __ehfuncinfo$?reserve@?$vector@VioHashString@@V?$allocator@VioHashString@@@std@@@std@@QAEXI@Z
  00016	e9 00 00 00 00	 jmp	 ___CxxFrameHandler3
text$x	ENDS
?reserve@?$vector@VioHashString@@V?$allocator@VioHashString@@@std@@@std@@QAEXI@Z ENDP ; std::vector<ioHashString,std::allocator<ioHashString> >::reserve
PUBLIC	?_Reserve@?$vector@VioHashString@@V?$allocator@VioHashString@@@std@@@std@@IAEXI@Z ; std::vector<ioHashString,std::allocator<ioHashString> >::_Reserve
; Function compile flags: /Ogsp
;	COMDAT ?_Reserve@?$vector@VioHashString@@V?$allocator@VioHashString@@@std@@@std@@IAEXI@Z
_TEXT	SEGMENT
__Count$ = 8						; size = 4
?_Reserve@?$vector@VioHashString@@V?$allocator@VioHashString@@@std@@@std@@IAEXI@Z PROC ; std::vector<ioHashString,std::allocator<ioHashString> >::_Reserve, COMDAT
; _this$ = ecx

; 1290 : 		{	// ensure room for _Count new elements, grow exponentially

  00000	55		 push	 ebp
  00001	8b ec		 mov	 ebp, esp
  00003	56		 push	 esi
  00004	8b f1		 mov	 esi, ecx

; 1291 : 		size_type _Size = size();

  00006	8b 0e		 mov	 ecx, DWORD PTR [esi]
  00008	8b 46 04	 mov	 eax, DWORD PTR [esi+4]
  0000b	2b c1		 sub	 eax, ecx

; 1292 : 		if (max_size() - _Count < _Size)

  0000d	ba ff ff ff 0f	 mov	 edx, 268435455		; 0fffffffH
  00012	2b 55 08	 sub	 edx, DWORD PTR __Count$[ebp]
  00015	c1 f8 04	 sar	 eax, 4
  00018	3b d0		 cmp	 edx, eax
  0001a	73 0b		 jae	 SHORT $LN4@Reserve

; 1293 : 			_Xlen();

  0001c	68 00 00 00 00	 push	 OFFSET ??_C@_0BD@OLBABOEK@vector?$DMT?$DO?5too?5long?$AA@
  00021	ff 15 00 00 00
	00		 call	 DWORD PTR __imp_?_Xlength_error@std@@YAXPBD@Z
$LN21@Reserve:
$LN4@Reserve:

; 1294 : 		else if ((_Size += _Count) <= capacity())

  00027	8b 56 08	 mov	 edx, DWORD PTR [esi+8]
  0002a	03 45 08	 add	 eax, DWORD PTR __Count$[ebp]
  0002d	2b d1		 sub	 edx, ecx
  0002f	c1 fa 04	 sar	 edx, 4
  00032	3b c2		 cmp	 eax, edx
  00034	76 10		 jbe	 SHORT $LN1@Reserve

; 1295 : 			;
; 1296 : 		else
; 1297 : 			reserve(_Grow_to(_Size));

  00036	50		 push	 eax
  00037	8b ce		 mov	 ecx, esi
  00039	e8 00 00 00 00	 call	 ?_Grow_to@?$vector@VioHashString@@V?$allocator@VioHashString@@@std@@@std@@IBEII@Z ; std::vector<ioHashString,std::allocator<ioHashString> >::_Grow_to
  0003e	50		 push	 eax
  0003f	8b ce		 mov	 ecx, esi
  00041	e8 00 00 00 00	 call	 ?reserve@?$vector@VioHashString@@V?$allocator@VioHashString@@@std@@@std@@QAEXI@Z ; std::vector<ioHashString,std::allocator<ioHashString> >::reserve
$LN1@Reserve:
  00046	5e		 pop	 esi

; 1298 : 		}

  00047	5d		 pop	 ebp
  00048	c2 04 00	 ret	 4
$LN20@Reserve:
?_Reserve@?$vector@VioHashString@@V?$allocator@VioHashString@@@std@@@std@@IAEXI@Z ENDP ; std::vector<ioHashString,std::allocator<ioHashString> >::_Reserve
_TEXT	ENDS
PUBLIC	?_Tidy@?$vector@VioHashString@@V?$allocator@VioHashString@@@std@@@std@@IAEXXZ ; std::vector<ioHashString,std::allocator<ioHashString> >::_Tidy
; Function compile flags: /Ogsp
;	COMDAT ?_Tidy@?$vector@VioHashString@@V?$allocator@VioHashString@@@std@@@std@@IAEXXZ
_TEXT	SEGMENT
?_Tidy@?$vector@VioHashString@@V?$allocator@VioHashString@@@std@@@std@@IAEXXZ PROC ; std::vector<ioHashString,std::allocator<ioHashString> >::_Tidy, COMDAT
; _this$ = ecx

; 1301 : 		{	// free all storage

  00000	56		 push	 esi
  00001	8b f1		 mov	 esi, ecx

; 1302 : 		if (this->_Myfirst != 0)

  00003	83 3e 00	 cmp	 DWORD PTR [esi], 0
  00006	74 28		 je	 SHORT $LN24@Tidy

; 1303 : 			{	// something to free, destroy and deallocate it
; 1304 : 			this->_Orphan_all();

  00008	53		 push	 ebx
  00009	57		 push	 edi
  0000a	ff 15 00 00 00
	00		 call	 DWORD PTR __imp_?_Orphan_all@_Container_base0@std@@QAEXXZ

; 1305 : 			_Destroy(this->_Myfirst, this->_Mylast);

  00010	8b 5e 04	 mov	 ebx, DWORD PTR [esi+4]
  00013	8b 3e		 mov	 edi, DWORD PTR [esi]
  00015	eb 0b		 jmp	 SHORT $LN28@Tidy
$LL12@Tidy:
  00017	8b cf		 mov	 ecx, edi
  00019	ff 15 00 00 00
	00		 call	 DWORD PTR __imp_??1ioHashString@@QAE@XZ
  0001f	83 c7 10	 add	 edi, 16			; 00000010H
$LN28@Tidy:
  00022	3b fb		 cmp	 edi, ebx
  00024	75 f1		 jne	 SHORT $LL12@Tidy

; 1306 : 			this->_Alval.deallocate(this->_Myfirst,
; 1307 : 				this->_Myend - this->_Myfirst);

  00026	ff 36		 push	 DWORD PTR [esi]
  00028	e8 00 00 00 00	 call	 ??3@YAXPAX@Z		; operator delete
  0002d	59		 pop	 ecx
  0002e	5f		 pop	 edi
  0002f	5b		 pop	 ebx
$LN24@Tidy:

; 1308 : 			}
; 1309 : 		this->_Myfirst = 0;

  00030	33 c0		 xor	 eax, eax
  00032	89 06		 mov	 DWORD PTR [esi], eax

; 1310 : 		this->_Mylast = 0;

  00034	89 46 04	 mov	 DWORD PTR [esi+4], eax

; 1311 : 		this->_Myend = 0;

  00037	89 46 08	 mov	 DWORD PTR [esi+8], eax
  0003a	5e		 pop	 esi

; 1312 : 		}

  0003b	c3		 ret	 0
?_Tidy@?$vector@VioHashString@@V?$allocator@VioHashString@@@std@@@std@@IAEXXZ ENDP ; std::vector<ioHashString,std::allocator<ioHashString> >::_Tidy
_TEXT	ENDS
PUBLIC	?_Destroy@?$vector@UCustomTexture@@V?$allocator@UCustomTexture@@@std@@@std@@IAEXPAUCustomTexture@@0@Z ; std::vector<CustomTexture,std::allocator<CustomTexture> >::_Destroy
; Function compile flags: /Ogsp
;	COMDAT ?_Destroy@?$vector@UCustomTexture@@V?$allocator@UCustomTexture@@@std@@@std@@IAEXPAUCustomTexture@@0@Z
_TEXT	SEGMENT
__First$ = 8						; size = 4
__Last$ = 12						; size = 4
?_Destroy@?$vector@UCustomTexture@@V?$allocator@UCustomTexture@@@std@@@std@@IAEXPAUCustomTexture@@0@Z PROC ; std::vector<CustomTexture,std::allocator<CustomTexture> >::_Destroy, COMDAT
; _this$ = ecx

; 1269 : 		{	// destroy [_First, _Last) using allocator

  00000	55		 push	 ebp
  00001	8b ec		 mov	 ebp, esp

; 1270 : 		_Destroy_range(_First, _Last, this->_Alval);

  00003	83 c1 0c	 add	 ecx, 12			; 0000000cH
  00006	51		 push	 ecx
  00007	ff 75 0c	 push	 DWORD PTR __Last$[ebp]
  0000a	ff 75 08	 push	 DWORD PTR __First$[ebp]
  0000d	e8 00 00 00 00	 call	 ??$_Destroy_range@V?$allocator@UCustomTexture@@@std@@@std@@YAXPAUCustomTexture@@0AAV?$allocator@UCustomTexture@@@0@@Z ; std::_Destroy_range<std::allocator<CustomTexture> >
  00012	83 c4 0c	 add	 esp, 12			; 0000000cH

; 1271 : 		}

  00015	5d		 pop	 ebp
  00016	c2 08 00	 ret	 8
?_Destroy@?$vector@UCustomTexture@@V?$allocator@UCustomTexture@@@std@@@std@@IAEXPAUCustomTexture@@0@Z ENDP ; std::vector<CustomTexture,std::allocator<CustomTexture> >::_Destroy
_TEXT	ENDS
PUBLIC	?Update@ioCreateChar@@QAEXM@Z			; ioCreateChar::Update
EXTRN	__imp_?UpdateAttachedObjects@ioEntityGroup@@QAEXM@Z:PROC
; Function compile flags: /Ogsp
; File d:\lost saga for developer\youtube\tutorial\source\src\lsclient\iocreatechar.cpp
;	COMDAT ?Update@ioCreateChar@@QAEXM@Z
_TEXT	SEGMENT
tv172 = -4						; size = 4
tv169 = -4						; size = 4
tv163 = -4						; size = 4
tv133 = 8						; size = 4
_fTimePerSec$ = 8					; size = 4
?Update@ioCreateChar@@QAEXM@Z PROC			; ioCreateChar::Update, COMDAT
; _this$ = ecx

; 67   : {

  00000	55		 push	 ebp
  00001	8b ec		 mov	 ebp, esp
  00003	51		 push	 ecx
  00004	56		 push	 esi
  00005	8b f1		 mov	 esi, ecx

; 68   : 	if( !m_pGrp )	return;

  00007	83 7e 04 00	 cmp	 DWORD PTR [esi+4], 0
  0000b	74 6a		 je	 SHORT $LN2@Update

; 69   : 
; 70   : 	m_pGrp->Update( fTimePerSec * FLOAT1000 );

  0000d	b8 e8 03 00 00	 mov	 eax, 1000		; 000003e8H
  00012	8b 4e 04	 mov	 ecx, DWORD PTR [esi+4]
  00015	8b 11		 mov	 edx, DWORD PTR [ecx]
  00017	89 45 fc	 mov	 DWORD PTR tv172[ebp], eax
  0001a	db 45 fc	 fild	 DWORD PTR tv172[ebp]
  0001d	85 c0		 test	 eax, eax
  0001f	79 06		 jns	 SHORT $LN8@Update
  00021	d8 05 00 00 00
	00		 fadd	 DWORD PTR __real@4f800000
$LN8@Update:
  00027	d8 4d 08	 fmul	 DWORD PTR _fTimePerSec$[ebp]
  0002a	51		 push	 ecx
  0002b	d9 5d fc	 fstp	 DWORD PTR tv169[ebp]
  0002e	d9 45 fc	 fld	 DWORD PTR tv169[ebp]
  00031	d9 1c 24	 fstp	 DWORD PTR [esp]
  00034	ff 52 40	 call	 DWORD PTR [edx+64]

; 71   : 	m_pGrp->UpdateAttachedObjects( fTimePerSec * FLOAT1000 );

  00037	b8 e8 03 00 00	 mov	 eax, 1000		; 000003e8H
  0003c	89 45 fc	 mov	 DWORD PTR tv163[ebp], eax
  0003f	db 45 fc	 fild	 DWORD PTR tv163[ebp]
  00042	85 c0		 test	 eax, eax
  00044	79 06		 jns	 SHORT $LN9@Update
  00046	d8 05 00 00 00
	00		 fadd	 DWORD PTR __real@4f800000
$LN9@Update:
  0004c	d8 4d 08	 fmul	 DWORD PTR _fTimePerSec$[ebp]
  0004f	51		 push	 ecx
  00050	8b 4e 04	 mov	 ecx, DWORD PTR [esi+4]
  00053	d9 5d 08	 fstp	 DWORD PTR tv133[ebp]
  00056	d9 45 08	 fld	 DWORD PTR tv133[ebp]
  00059	d9 1c 24	 fstp	 DWORD PTR [esp]
  0005c	ff 15 00 00 00
	00		 call	 DWORD PTR __imp_?UpdateAttachedObjects@ioEntityGroup@@QAEXM@Z

; 72   : 	UpdateMotionItemAni();

  00062	8b ce		 mov	 ecx, esi
  00064	e8 00 00 00 00	 call	 ?UpdateMotionItemAni@ioCreateChar@@IAEXXZ ; ioCreateChar::UpdateMotionItemAni

; 73   : 	CheckFaceChanging();

  00069	8b ce		 mov	 ecx, esi
  0006b	e8 00 00 00 00	 call	 ?CheckFaceChanging@ioCreateChar@@IAEXXZ ; ioCreateChar::CheckFaceChanging

; 74   : 	UpdateBound();

  00070	8b ce		 mov	 ecx, esi
  00072	e8 00 00 00 00	 call	 ?UpdateBound@ioCreateChar@@IAEXXZ ; ioCreateChar::UpdateBound
$LN2@Update:
  00077	5e		 pop	 esi

; 75   : }

  00078	c9		 leave
  00079	c2 04 00	 ret	 4
?Update@ioCreateChar@@QAEXM@Z ENDP			; ioCreateChar::Update
_TEXT	ENDS
PUBLIC	?push_back@?$vector@VioHashString@@V?$allocator@VioHashString@@@std@@@std@@QAEXABVioHashString@@@Z ; std::vector<ioHashString,std::allocator<ioHashString> >::push_back
; Function compile flags: /Ogsp
; File c:\program files (x86)\microsoft visual studio 10.0\vc\include\vector
;	COMDAT ?push_back@?$vector@VioHashString@@V?$allocator@VioHashString@@@std@@@std@@QAEXABVioHashString@@@Z
_TEXT	SEGMENT
__Val$ = 8						; size = 4
?push_back@?$vector@VioHashString@@V?$allocator@VioHashString@@@std@@@std@@QAEXABVioHashString@@@Z PROC ; std::vector<ioHashString,std::allocator<ioHashString> >::push_back, COMDAT
; _this$ = ecx

; 976  : 		{	// insert element at end

  00000	55		 push	 ebp
  00001	8b ec		 mov	 ebp, esp
  00003	56		 push	 esi
  00004	8b f1		 mov	 esi, ecx

; 977  : 		if (_Inside(_STD addressof(_Val)))

  00006	8b 46 04	 mov	 eax, DWORD PTR [esi+4]
  00009	57		 push	 edi
  0000a	8b 7d 08	 mov	 edi, DWORD PTR __Val$[ebp]
  0000d	3b f8		 cmp	 edi, eax
  0000f	73 29		 jae	 SHORT $LN4@push_back
  00011	8b 0e		 mov	 ecx, DWORD PTR [esi]
  00013	3b cf		 cmp	 ecx, edi
  00015	77 23		 ja	 SHORT $LN4@push_back

; 978  : 			{	// push back an element
; 979  : 			size_type _Idx = _STD addressof(_Val) - this->_Myfirst;

  00017	2b f9		 sub	 edi, ecx

; 980  : 			if (this->_Mylast == this->_Myend)

  00019	3b 46 08	 cmp	 eax, DWORD PTR [esi+8]
  0001c	75 09		 jne	 SHORT $LN3@push_back

; 981  : 				_Reserve(1);

  0001e	6a 01		 push	 1
  00020	8b ce		 mov	 ecx, esi
  00022	e8 00 00 00 00	 call	 ?_Reserve@?$vector@VioHashString@@V?$allocator@VioHashString@@@std@@@std@@IAEXI@Z ; std::vector<ioHashString,std::allocator<ioHashString> >::_Reserve
$LN3@push_back:

; 982  : 			_Orphan_range(this->_Mylast, this->_Mylast);
; 983  : 			_Cons_val(this->_Alval,
; 984  : 				this->_Mylast,
; 985  : 				this->_Myfirst[_Idx]);

  00027	83 e7 f0	 and	 edi, -16		; fffffff0H
  0002a	03 3e		 add	 edi, DWORD PTR [esi]
  0002c	8d 4e 0c	 lea	 ecx, DWORD PTR [esi+12]
  0002f	57		 push	 edi
  00030	ff 76 04	 push	 DWORD PTR [esi+4]
  00033	e8 00 00 00 00	 call	 ??$construct@AAVioHashString@@@?$allocator@VioHashString@@@std@@QAEXPAVioHashString@@AAV2@@Z ; std::allocator<ioHashString>::construct<ioHashString &>

; 986  : 			++this->_Mylast;
; 987  : 			}
; 988  : 		else

  00038	eb 19		 jmp	 SHORT $LN30@push_back
$LN4@push_back:

; 989  : 			{	// push back a non-element
; 990  : 			if (this->_Mylast == this->_Myend)

  0003a	3b 46 08	 cmp	 eax, DWORD PTR [esi+8]
  0003d	75 09		 jne	 SHORT $LN1@push_back

; 991  : 				_Reserve(1);

  0003f	6a 01		 push	 1
  00041	8b ce		 mov	 ecx, esi
  00043	e8 00 00 00 00	 call	 ?_Reserve@?$vector@VioHashString@@V?$allocator@VioHashString@@@std@@@std@@IAEXI@Z ; std::vector<ioHashString,std::allocator<ioHashString> >::_Reserve
$LN1@push_back:

; 992  : 			_Orphan_range(this->_Mylast, this->_Mylast);
; 993  : 			_Cons_val(this->_Alval,
; 994  : 				this->_Mylast,
; 995  : 				_Val);

  00048	57		 push	 edi
  00049	ff 76 04	 push	 DWORD PTR [esi+4]
  0004c	e8 00 00 00 00	 call	 ??$_Construct@VioHashString@@ABV1@@std@@YAXPAVioHashString@@ABV1@@Z ; std::_Construct<ioHashString,ioHashString const &>
  00051	59		 pop	 ecx
  00052	59		 pop	 ecx
$LN30@push_back:

; 996  : 			++this->_Mylast;

  00053	83 46 04 10	 add	 DWORD PTR [esi+4], 16	; 00000010H
  00057	5f		 pop	 edi
  00058	5e		 pop	 esi

; 997  : 			}
; 998  : 		}

  00059	5d		 pop	 ebp
  0005a	c2 04 00	 ret	 4
?push_back@?$vector@VioHashString@@V?$allocator@VioHashString@@@std@@@std@@QAEXABVioHashString@@@Z ENDP ; std::vector<ioHashString,std::allocator<ioHashString> >::push_back
_TEXT	ENDS
PUBLIC	?erase@?$vector@UCustomTexture@@V?$allocator@UCustomTexture@@@std@@@std@@QAE?AV?$_Vector_iterator@V?$_Vector_val@UCustomTexture@@V?$allocator@UCustomTexture@@@std@@@std@@@2@V?$_Vector_const_iterator@V?$_Vector_val@UCustomTexture@@V?$allocator@UCustomTexture@@@std@@@std@@@2@0@Z ; std::vector<CustomTexture,std::allocator<CustomTexture> >::erase
; Function compile flags: /Ogsp
;	COMDAT ?erase@?$vector@UCustomTexture@@V?$allocator@UCustomTexture@@@std@@@std@@QAE?AV?$_Vector_iterator@V?$_Vector_val@UCustomTexture@@V?$allocator@UCustomTexture@@@std@@@std@@@2@V?$_Vector_const_iterator@V?$_Vector_val@UCustomTexture@@V?$allocator@UCustomTexture@@@std@@@std@@@2@0@Z
_TEXT	SEGMENT
___$ReturnUdt$ = 8					; size = 4
__First_arg$ = 12					; size = 4
__Cat$573933 = 16					; size = 1
__Last_arg$ = 16					; size = 4
?erase@?$vector@UCustomTexture@@V?$allocator@UCustomTexture@@@std@@@std@@QAE?AV?$_Vector_iterator@V?$_Vector_val@UCustomTexture@@V?$allocator@UCustomTexture@@@std@@@std@@@2@V?$_Vector_const_iterator@V?$_Vector_val@UCustomTexture@@V?$allocator@UCustomTexture@@@std@@@std@@@2@0@Z PROC ; std::vector<CustomTexture,std::allocator<CustomTexture> >::erase, COMDAT
; _this$ = ecx

; 1190 : 		{	// erase [_First, _Last)

  00000	55		 push	 ebp
  00001	8b ec		 mov	 ebp, esp

; 1191 : 		iterator _First = _Make_iter(_First_arg);

  00003	8b 45 0c	 mov	 eax, DWORD PTR __First_arg$[ebp]
  00006	53		 push	 ebx
  00007	8b 5d 08	 mov	 ebx, DWORD PTR ___$ReturnUdt$[ebp]
  0000a	56		 push	 esi
  0000b	8b f1		 mov	 esi, ecx
  0000d	89 03		 mov	 DWORD PTR [ebx], eax

; 1192 : 		iterator _Last = _Make_iter(_Last_arg);
; 1193 : 
; 1194 : 		if (_First != _Last)

  0000f	3b 45 10	 cmp	 eax, DWORD PTR __Last_arg$[ebp]
  00012	74 27		 je	 SHORT $LN1@erase

; 1195 : 			{	// worth doing, copy down over hole
; 1196 :  #if _ITERATOR_DEBUG_LEVEL == 2
; 1197 : 			if (_Last < _First || _VICONT(_First) != this
; 1198 : 				|| _VIPTR(_First) < this->_Myfirst
; 1199 : 				|| this->_Mylast < _VIPTR(_Last))
; 1200 : 				_DEBUG_ERROR("vector erase iterator outside range");
; 1201 : 			pointer _Ptr = _Move(_VIPTR(_Last), this->_Mylast,
; 1202 : 				_VIPTR(_First));
; 1203 : 			_Orphan_range(_VIPTR(_First), this->_Mylast);
; 1204 : 
; 1205 :  #else /* _ITERATOR_DEBUG_LEVEL == 2 */
; 1206 : 			pointer _Ptr = _Move(_VIPTR(_Last), this->_Mylast,
; 1207 : 				_VIPTR(_First));

  00014	8b 4e 04	 mov	 ecx, DWORD PTR [esi+4]
  00017	57		 push	 edi
  00018	ff 75 10	 push	 DWORD PTR __Cat$573933[ebp]
  0001b	50		 push	 eax
  0001c	51		 push	 ecx
  0001d	ff 75 10	 push	 DWORD PTR __Last_arg$[ebp]
  00020	e8 00 00 00 00	 call	 ??$_Move@PAUCustomTexture@@PAU1@@std@@YAPAUCustomTexture@@PAU1@00U_Nonscalar_ptr_iterator_tag@0@@Z ; std::_Move<CustomTexture *,CustomTexture *>
  00025	8b f8		 mov	 edi, eax

; 1208 :  #endif /* _ITERATOR_DEBUG_LEVEL == 2 */
; 1209 : 
; 1210 : 			_Destroy(_Ptr, this->_Mylast);

  00027	8d 46 0c	 lea	 eax, DWORD PTR [esi+12]
  0002a	50		 push	 eax
  0002b	ff 76 04	 push	 DWORD PTR [esi+4]
  0002e	57		 push	 edi
  0002f	e8 00 00 00 00	 call	 ??$_Destroy_range@V?$allocator@UCustomTexture@@@std@@@std@@YAXPAUCustomTexture@@0AAV?$allocator@UCustomTexture@@@0@@Z ; std::_Destroy_range<std::allocator<CustomTexture> >
  00034	83 c4 1c	 add	 esp, 28			; 0000001cH

; 1211 : 			this->_Mylast = _Ptr;

  00037	89 7e 04	 mov	 DWORD PTR [esi+4], edi
  0003a	5f		 pop	 edi
$LN1@erase:

; 1212 : 			}
; 1213 : 		return (_First);

  0003b	5e		 pop	 esi
  0003c	8b c3		 mov	 eax, ebx
  0003e	5b		 pop	 ebx

; 1214 : 		}

  0003f	5d		 pop	 ebp
  00040	c2 0c 00	 ret	 12			; 0000000cH
?erase@?$vector@UCustomTexture@@V?$allocator@UCustomTexture@@@std@@@std@@QAE?AV?$_Vector_iterator@V?$_Vector_val@UCustomTexture@@V?$allocator@UCustomTexture@@@std@@@std@@@2@V?$_Vector_const_iterator@V?$_Vector_val@UCustomTexture@@V?$allocator@UCustomTexture@@@std@@@std@@@2@0@Z ENDP ; std::vector<CustomTexture,std::allocator<CustomTexture> >::erase
_TEXT	ENDS
PUBLIC	??1?$vector@VioHashString@@V?$allocator@VioHashString@@@std@@@std@@QAE@XZ ; std::vector<ioHashString,std::allocator<ioHashString> >::~vector<ioHashString,std::allocator<ioHashString> >
; Function compile flags: /Ogsp
;	COMDAT ??1?$vector@VioHashString@@V?$allocator@VioHashString@@@std@@@std@@QAE@XZ
_TEXT	SEGMENT
??1?$vector@VioHashString@@V?$allocator@VioHashString@@@std@@@std@@QAE@XZ PROC ; std::vector<ioHashString,std::allocator<ioHashString> >::~vector<ioHashString,std::allocator<ioHashString> >, COMDAT
; _this$ = ecx

; 705  : 		_Tidy();

  00000	e9 00 00 00 00	 jmp	 ?_Tidy@?$vector@VioHashString@@V?$allocator@VioHashString@@@std@@@std@@IAEXXZ ; std::vector<ioHashString,std::allocator<ioHashString> >::_Tidy
??1?$vector@VioHashString@@V?$allocator@VioHashString@@@std@@@std@@QAE@XZ ENDP ; std::vector<ioHashString,std::allocator<ioHashString> >::~vector<ioHashString,std::allocator<ioHashString> >
_TEXT	ENDS
PUBLIC	?_Tidy@?$vector@UCustomTexture@@V?$allocator@UCustomTexture@@@std@@@std@@IAEXXZ ; std::vector<CustomTexture,std::allocator<CustomTexture> >::_Tidy
; Function compile flags: /Ogsp
;	COMDAT ?_Tidy@?$vector@UCustomTexture@@V?$allocator@UCustomTexture@@@std@@@std@@IAEXXZ
_TEXT	SEGMENT
?_Tidy@?$vector@UCustomTexture@@V?$allocator@UCustomTexture@@@std@@@std@@IAEXXZ PROC ; std::vector<CustomTexture,std::allocator<CustomTexture> >::_Tidy, COMDAT
; _this$ = ecx

; 1301 : 		{	// free all storage

  00000	56		 push	 esi
  00001	8b f1		 mov	 esi, ecx

; 1302 : 		if (this->_Myfirst != 0)

  00003	83 3e 00	 cmp	 DWORD PTR [esi], 0
  00006	74 1e		 je	 SHORT $LN6@Tidy@2

; 1303 : 			{	// something to free, destroy and deallocate it
; 1304 : 			this->_Orphan_all();

  00008	ff 15 00 00 00
	00		 call	 DWORD PTR __imp_?_Orphan_all@_Container_base0@std@@QAEXXZ

; 1305 : 			_Destroy(this->_Myfirst, this->_Mylast);

  0000e	8d 46 0c	 lea	 eax, DWORD PTR [esi+12]
  00011	50		 push	 eax
  00012	ff 76 04	 push	 DWORD PTR [esi+4]
  00015	ff 36		 push	 DWORD PTR [esi]
  00017	e8 00 00 00 00	 call	 ??$_Destroy_range@V?$allocator@UCustomTexture@@@std@@@std@@YAXPAUCustomTexture@@0AAV?$allocator@UCustomTexture@@@0@@Z ; std::_Destroy_range<std::allocator<CustomTexture> >

; 1306 : 			this->_Alval.deallocate(this->_Myfirst,
; 1307 : 				this->_Myend - this->_Myfirst);

  0001c	ff 36		 push	 DWORD PTR [esi]
  0001e	e8 00 00 00 00	 call	 ??3@YAXPAX@Z		; operator delete
  00023	83 c4 10	 add	 esp, 16			; 00000010H
$LN6@Tidy@2:

; 1308 : 			}
; 1309 : 		this->_Myfirst = 0;

  00026	83 26 00	 and	 DWORD PTR [esi], 0

; 1310 : 		this->_Mylast = 0;

  00029	83 66 04 00	 and	 DWORD PTR [esi+4], 0

; 1311 : 		this->_Myend = 0;

  0002d	83 66 08 00	 and	 DWORD PTR [esi+8], 0
  00031	5e		 pop	 esi

; 1312 : 		}

  00032	c3		 ret	 0
?_Tidy@?$vector@UCustomTexture@@V?$allocator@UCustomTexture@@@std@@@std@@IAEXXZ ENDP ; std::vector<CustomTexture,std::allocator<CustomTexture> >::_Tidy
_TEXT	ENDS
PUBLIC	??_C@_05NKOFAABN@_hand?$AA@			; `string'
PUBLIC	??_C@_05ICHBIGEF@_body?$AA@			; `string'
PUBLIC	?DestroyHandAndBody@ioCreateChar@@QAEXXZ	; ioCreateChar::DestroyHandAndBody
;	COMDAT ??_C@_05NKOFAABN@_hand?$AA@
CONST	SEGMENT
??_C@_05NKOFAABN@_hand?$AA@ DB '_hand', 00H		; `string'
CONST	ENDS
;	COMDAT ??_C@_05ICHBIGEF@_body?$AA@
CONST	SEGMENT
??_C@_05ICHBIGEF@_body?$AA@ DB '_body', 00H		; `string'
CONST	ENDS
;	COMDAT xdata$x
xdata$x	SEGMENT
__unwindtable$?DestroyHandAndBody@ioCreateChar@@QAEXXZ DD 0ffffffffH
	DD	FLAT:__unwindfunclet$?DestroyHandAndBody@ioCreateChar@@QAEXXZ$0
__ehfuncinfo$?DestroyHandAndBody@ioCreateChar@@QAEXXZ DD 019930522H
	DD	01H
	DD	FLAT:__unwindtable$?DestroyHandAndBody@ioCreateChar@@QAEXXZ
	DD	2 DUP(00H)
	DD	2 DUP(00H)
	DD	00H
	DD	01H
; Function compile flags: /Ogsp
; File d:\lost saga for developer\youtube\tutorial\source\src\lsclient\iocreatechar.cpp
xdata$x	ENDS
;	COMDAT ?DestroyHandAndBody@ioCreateChar@@QAEXXZ
_TEXT	SEGMENT
_vNameList$ = -36					; size = 16
_iNumEntity$ = -20					; size = 4
_i$568035 = -16						; size = 4
__$EHRec$ = -12						; size = 12
?DestroyHandAndBody@ioCreateChar@@QAEXXZ PROC		; ioCreateChar::DestroyHandAndBody, COMDAT
; _this$ = ecx

; 1839 : {

  00000	6a 18		 push	 24			; 00000018H
  00002	b8 00 00 00 00	 mov	 eax, __ehhandler$?DestroyHandAndBody@ioCreateChar@@QAEXXZ
  00007	e8 00 00 00 00	 call	 __EH_prolog3
  0000c	8b d9		 mov	 ebx, ecx

; 1840 : 	if( !m_pGrp )	return;

  0000e	8b 4b 04	 mov	 ecx, DWORD PTR [ebx+4]
  00011	33 f6		 xor	 esi, esi
  00013	3b ce		 cmp	 ecx, esi
  00015	0f 84 b5 00 00
	00		 je	 $LN56@DestroyHan

; 1841 : 
; 1842 : 	int iNumEntity = m_pGrp->GetNumEntities();

  0001b	ff 15 00 00 00
	00		 call	 DWORD PTR __imp_?GetNumEntities@ioEntityGroup@@QBEHXZ
  00021	89 45 ec	 mov	 DWORD PTR _iNumEntity$[ebp], eax

; 1843 : 	
; 1844 : 	ioHashStringVec vNameList;

  00024	89 75 dc	 mov	 DWORD PTR _vNameList$[ebp], esi
  00027	89 75 e0	 mov	 DWORD PTR _vNameList$[ebp+4], esi
  0002a	89 75 e4	 mov	 DWORD PTR _vNameList$[ebp+8], esi

; 1845 : 	vNameList.reserve( iNumEntity );

  0002d	50		 push	 eax
  0002e	8d 4d dc	 lea	 ecx, DWORD PTR _vNameList$[ebp]
  00031	89 75 fc	 mov	 DWORD PTR __$EHRec$[ebp+8], esi
  00034	e8 00 00 00 00	 call	 ?reserve@?$vector@VioHashString@@V?$allocator@VioHashString@@@std@@@std@@QAEXI@Z ; std::vector<ioHashString,std::allocator<ioHashString> >::reserve

; 1846 : 
; 1847 : 	for( int i=0 ; i<iNumEntity ; i++ )

  00039	89 75 f0	 mov	 DWORD PTR _i$568035[ebp], esi
  0003c	39 75 ec	 cmp	 DWORD PTR _iNumEntity$[ebp], esi
  0003f	7e 6c		 jle	 SHORT $LN7@DestroyHan
  00041	8b 35 00 00 00
	00		 mov	 esi, DWORD PTR __imp_?GetMeshName@ioEntity@@QBEABVioHashString@@XZ
$LN9@DestroyHan:

; 1848 : 	{
; 1849 : 		ioEntity *pEntity = m_pGrp->GetEntity( i );

  00047	ff 75 f0	 push	 DWORD PTR _i$568035[ebp]
  0004a	8b 4b 04	 mov	 ecx, DWORD PTR [ebx+4]
  0004d	ff 15 00 00 00
	00		 call	 DWORD PTR __imp_?GetEntity@ioEntityGroup@@QAEPAVioEntity@@H@Z
  00053	8b f8		 mov	 edi, eax

; 1850 : 		if( pEntity )

  00055	85 ff		 test	 edi, edi
  00057	74 49		 je	 SHORT $LN8@DestroyHan

; 1851 : 		{
; 1852 : 			if( strstr( pEntity->GetMeshName().c_str(), "_body") ||
; 1853 : 				strstr( pEntity->GetMeshName().c_str(), "_hand") )

  00059	68 00 00 00 00	 push	 OFFSET ??_C@_05ICHBIGEF@_body?$AA@
  0005e	8b cf		 mov	 ecx, edi
  00060	ff d6		 call	 esi
  00062	8b c8		 mov	 ecx, eax
  00064	ff 15 00 00 00
	00		 call	 DWORD PTR __imp_?c_str@ioHashString@@QBEPBDXZ
  0006a	50		 push	 eax
  0006b	ff 15 00 00 00
	00		 call	 DWORD PTR __imp__strstr
  00071	59		 pop	 ecx
  00072	59		 pop	 ecx
  00073	85 c0		 test	 eax, eax
  00075	75 1e		 jne	 SHORT $LN4@DestroyHan
  00077	68 00 00 00 00	 push	 OFFSET ??_C@_05NKOFAABN@_hand?$AA@
  0007c	8b cf		 mov	 ecx, edi
  0007e	ff d6		 call	 esi
  00080	8b c8		 mov	 ecx, eax
  00082	ff 15 00 00 00
	00		 call	 DWORD PTR __imp_?c_str@ioHashString@@QBEPBDXZ
  00088	50		 push	 eax
  00089	ff 15 00 00 00
	00		 call	 DWORD PTR __imp__strstr
  0008f	59		 pop	 ecx
  00090	59		 pop	 ecx
  00091	85 c0		 test	 eax, eax
  00093	74 0d		 je	 SHORT $LN8@DestroyHan
$LN4@DestroyHan:

; 1854 : 			{
; 1855 : 				vNameList.push_back( pEntity->GetMeshName() );

  00095	8b cf		 mov	 ecx, edi
  00097	ff d6		 call	 esi
  00099	50		 push	 eax
  0009a	8d 4d dc	 lea	 ecx, DWORD PTR _vNameList$[ebp]
  0009d	e8 00 00 00 00	 call	 ?push_back@?$vector@VioHashString@@V?$allocator@VioHashString@@@std@@@std@@QAEXABVioHashString@@@Z ; std::vector<ioHashString,std::allocator<ioHashString> >::push_back
$LN8@DestroyHan:

; 1846 : 
; 1847 : 	for( int i=0 ; i<iNumEntity ; i++ )

  000a2	ff 45 f0	 inc	 DWORD PTR _i$568035[ebp]
  000a5	8b 45 f0	 mov	 eax, DWORD PTR _i$568035[ebp]
  000a8	3b 45 ec	 cmp	 eax, DWORD PTR _iNumEntity$[ebp]
  000ab	7c 9a		 jl	 SHORT $LN9@DestroyHan
$LN7@DestroyHan:

; 1856 : 			}			
; 1857 : 		}
; 1858 : 	}
; 1859 : 
; 1860 : 	ioHashStringVec::iterator iter;
; 1861 : 	for( iter=vNameList.begin() ; iter!=vNameList.end() ; ++iter )

  000ad	8b 75 dc	 mov	 esi, DWORD PTR _vNameList$[ebp]
  000b0	eb 0d		 jmp	 SHORT $LN66@DestroyHan
$LL36@DestroyHan:

; 1862 : 	{
; 1863 : 		m_pGrp->DestroyEntity( *iter );

  000b2	8b 4b 04	 mov	 ecx, DWORD PTR [ebx+4]
  000b5	56		 push	 esi
  000b6	ff 15 00 00 00
	00		 call	 DWORD PTR __imp_?DestroyEntity@ioEntityGroup@@QAE_NABVioHashString@@@Z
  000bc	83 c6 10	 add	 esi, 16			; 00000010H
$LN66@DestroyHan:

; 1856 : 			}			
; 1857 : 		}
; 1858 : 	}
; 1859 : 
; 1860 : 	ioHashStringVec::iterator iter;
; 1861 : 	for( iter=vNameList.begin() ; iter!=vNameList.end() ; ++iter )

  000bf	3b 75 e0	 cmp	 esi, DWORD PTR _vNameList$[ebp+4]
  000c2	75 ee		 jne	 SHORT $LL36@DestroyHan

; 1864 : 	}
; 1865 : }

  000c4	83 4d fc ff	 or	 DWORD PTR __$EHRec$[ebp+8], -1
  000c8	8d 4d dc	 lea	 ecx, DWORD PTR _vNameList$[ebp]
  000cb	e8 00 00 00 00	 call	 ?_Tidy@?$vector@VioHashString@@V?$allocator@VioHashString@@@std@@@std@@IAEXXZ ; std::vector<ioHashString,std::allocator<ioHashString> >::_Tidy
$LN56@DestroyHan:
  000d0	e8 00 00 00 00	 call	 __EH_epilog3
  000d5	c3		 ret	 0
_TEXT	ENDS
;	COMDAT text$x
text$x	SEGMENT
__unwindfunclet$?DestroyHandAndBody@ioCreateChar@@QAEXXZ$0:
  00000	8d 4d dc	 lea	 ecx, DWORD PTR _vNameList$[ebp]
  00003	e9 00 00 00 00	 jmp	 ??1?$vector@VioHashString@@V?$allocator@VioHashString@@@std@@@std@@QAE@XZ ; std::vector<ioHashString,std::allocator<ioHashString> >::~vector<ioHashString,std::allocator<ioHashString> >
__ehhandler$?DestroyHandAndBody@ioCreateChar@@QAEXXZ:
  00008	8b 54 24 08	 mov	 edx, DWORD PTR [esp+8]
  0000c	8d 42 0c	 lea	 eax, DWORD PTR [edx+12]
  0000f	8b 4a d8	 mov	 ecx, DWORD PTR [edx-40]
  00012	33 c8		 xor	 ecx, eax
  00014	e8 00 00 00 00	 call	 @__security_check_cookie@4
  00019	b8 00 00 00 00	 mov	 eax, OFFSET __ehfuncinfo$?DestroyHandAndBody@ioCreateChar@@QAEXXZ
  0001e	e9 00 00 00 00	 jmp	 ___CxxFrameHandler3
text$x	ENDS
?DestroyHandAndBody@ioCreateChar@@QAEXXZ ENDP		; ioCreateChar::DestroyHandAndBody
PUBLIC	?clear@?$vector@UCustomTexture@@V?$allocator@UCustomTexture@@@std@@@std@@QAEXXZ ; std::vector<CustomTexture,std::allocator<CustomTexture> >::clear
; Function compile flags: /Ogsp
; File c:\program files (x86)\microsoft visual studio 10.0\vc\include\vector
;	COMDAT ?clear@?$vector@UCustomTexture@@V?$allocator@UCustomTexture@@@std@@@std@@QAEXXZ
_TEXT	SEGMENT
$T574105 = -4						; size = 4
?clear@?$vector@UCustomTexture@@V?$allocator@UCustomTexture@@@std@@@std@@QAEXXZ PROC ; std::vector<CustomTexture,std::allocator<CustomTexture> >::clear, COMDAT
; _this$ = ecx

; 1217 : 		{	// erase all

  00000	55		 push	 ebp
  00001	8b ec		 mov	 ebp, esp
  00003	51		 push	 ecx

; 1218 : 		erase(begin(), end());

  00004	8b 41 04	 mov	 eax, DWORD PTR [ecx+4]
  00007	8b 11		 mov	 edx, DWORD PTR [ecx]
  00009	50		 push	 eax
  0000a	52		 push	 edx
  0000b	8d 45 fc	 lea	 eax, DWORD PTR $T574105[ebp]
  0000e	50		 push	 eax
  0000f	e8 00 00 00 00	 call	 ?erase@?$vector@UCustomTexture@@V?$allocator@UCustomTexture@@@std@@@std@@QAE?AV?$_Vector_iterator@V?$_Vector_val@UCustomTexture@@V?$allocator@UCustomTexture@@@std@@@std@@@2@V?$_Vector_const_iterator@V?$_Vector_val@UCustomTexture@@V?$allocator@UCustomTexture@@@std@@@std@@@2@0@Z ; std::vector<CustomTexture,std::allocator<CustomTexture> >::erase

; 1219 : 		}

  00014	c9		 leave
  00015	c3		 ret	 0
?clear@?$vector@UCustomTexture@@V?$allocator@UCustomTexture@@@std@@@std@@QAEXXZ ENDP ; std::vector<CustomTexture,std::allocator<CustomTexture> >::clear
_TEXT	ENDS
PUBLIC	??1?$vector@UCustomTexture@@V?$allocator@UCustomTexture@@@std@@@std@@QAE@XZ ; std::vector<CustomTexture,std::allocator<CustomTexture> >::~vector<CustomTexture,std::allocator<CustomTexture> >
; Function compile flags: /Ogsp
;	COMDAT ??1?$vector@UCustomTexture@@V?$allocator@UCustomTexture@@@std@@@std@@QAE@XZ
_TEXT	SEGMENT
??1?$vector@UCustomTexture@@V?$allocator@UCustomTexture@@@std@@@std@@QAE@XZ PROC ; std::vector<CustomTexture,std::allocator<CustomTexture> >::~vector<CustomTexture,std::allocator<CustomTexture> >, COMDAT
; _this$ = ecx

; 705  : 		_Tidy();

  00000	e9 00 00 00 00	 jmp	 ?_Tidy@?$vector@UCustomTexture@@V?$allocator@UCustomTexture@@@std@@@std@@IAEXXZ ; std::vector<CustomTexture,std::allocator<CustomTexture> >::_Tidy
??1?$vector@UCustomTexture@@V?$allocator@UCustomTexture@@@std@@@std@@QAE@XZ ENDP ; std::vector<CustomTexture,std::allocator<CustomTexture> >::~vector<CustomTexture,std::allocator<CustomTexture> >
_TEXT	ENDS
PUBLIC	??1EquipItemInfo@ioCreateChar@@QAE@XZ		; ioCreateChar::EquipItemInfo::~EquipItemInfo
; Function compile flags: /Ogsp
;	COMDAT ??1EquipItemInfo@ioCreateChar@@QAE@XZ
_TEXT	SEGMENT
??1EquipItemInfo@ioCreateChar@@QAE@XZ PROC		; ioCreateChar::EquipItemInfo::~EquipItemInfo, COMDAT
; _this$ = ecx
  00000	83 c1 0c	 add	 ecx, 12			; 0000000cH
  00003	e9 00 00 00 00	 jmp	 ?_Tidy@?$vector@UCustomTexture@@V?$allocator@UCustomTexture@@@std@@@std@@IAEXXZ ; std::vector<CustomTexture,std::allocator<CustomTexture> >::_Tidy
??1EquipItemInfo@ioCreateChar@@QAE@XZ ENDP		; ioCreateChar::EquipItemInfo::~EquipItemInfo
_TEXT	ENDS
PUBLIC	??_7ioCreateChar@@6B@				; ioCreateChar::`vftable'
PUBLIC	??1ioCreateChar@@UAE@XZ				; ioCreateChar::~ioCreateChar
PUBLIC	??_R4ioCreateChar@@6B@				; ioCreateChar::`RTTI Complete Object Locator'
PUBLIC	??_R0?AVioCreateChar@@@8			; ioCreateChar `RTTI Type Descriptor'
PUBLIC	??_R3ioCreateChar@@8				; ioCreateChar::`RTTI Class Hierarchy Descriptor'
PUBLIC	??_R2ioCreateChar@@8				; ioCreateChar::`RTTI Base Class Array'
PUBLIC	??_R1A@?0A@EA@ioCreateChar@@8			; ioCreateChar::`RTTI Base Class Descriptor at (0,-1,0,64)'
PUBLIC	??_R1A@?0A@EA@ioEntityEvent@@8			; ioEntityEvent::`RTTI Base Class Descriptor at (0,-1,0,64)'
PUBLIC	??_R0?AVioEntityEvent@@@8			; ioEntityEvent `RTTI Type Descriptor'
PUBLIC	??_R3ioEntityEvent@@8				; ioEntityEvent::`RTTI Class Hierarchy Descriptor'
PUBLIC	??_R2ioEntityEvent@@8				; ioEntityEvent::`RTTI Base Class Array'
PUBLIC	?AddEntityEvent@ioCreateChar@@UAEXPAVioEntity@@H@Z ; ioCreateChar::AddEntityEvent
EXTRN	__imp_??1ioEntityEvent@@UAE@XZ:PROC
EXTRN	??_M@YGXPAXIHP6EX0@Z@Z:PROC			; `eh vector destructor iterator'
EXTRN	__imp_?GetUniqueID@ioNode@@QBEKXZ:PROC
EXTRN	__imp_?GetSceneMgr@ioSceneNode@@QAEPAVioSceneManager@@XZ:PROC
EXTRN	?DestroyUIChar@ioCustomTextureMgr@@QAEXK@Z:PROC	; ioCustomTextureMgr::DestroyUIChar
EXTRN	?GetSingleton@ioCustomTextureMgr@@SAAAV1@XZ:PROC ; ioCustomTextureMgr::GetSingleton
EXTRN	?AddEntityEvent@ioEntityEvent@@UAEXPAVioEntity@@@Z:PROC ; ioEntityEvent::AddEntityEvent
EXTRN	??_EioCreateChar@@UAEPAXI@Z:PROC		; ioCreateChar::`vector deleting destructor'
;	COMDAT ??_R2ioEntityEvent@@8
; File d:\lost saga for developer\youtube\tutorial\source\src\lsclient\iocreatechar.h
rdata$r	SEGMENT
??_R2ioEntityEvent@@8 DD FLAT:??_R1A@?0A@EA@ioEntityEvent@@8 ; ioEntityEvent::`RTTI Base Class Array'
rdata$r	ENDS
;	COMDAT ??_R3ioEntityEvent@@8
rdata$r	SEGMENT
??_R3ioEntityEvent@@8 DD 00H				; ioEntityEvent::`RTTI Class Hierarchy Descriptor'
	DD	00H
	DD	01H
	DD	FLAT:??_R2ioEntityEvent@@8
rdata$r	ENDS
;	COMDAT ??_R0?AVioEntityEvent@@@8
_DATA	SEGMENT
??_R0?AVioEntityEvent@@@8 DD FLAT:??_7type_info@@6B@	; ioEntityEvent `RTTI Type Descriptor'
	DD	00H
	DB	'.?AVioEntityEvent@@', 00H
_DATA	ENDS
;	COMDAT ??_R1A@?0A@EA@ioEntityEvent@@8
rdata$r	SEGMENT
??_R1A@?0A@EA@ioEntityEvent@@8 DD FLAT:??_R0?AVioEntityEvent@@@8 ; ioEntityEvent::`RTTI Base Class Descriptor at (0,-1,0,64)'
	DD	00H
	DD	00H
	DD	0ffffffffH
	DD	00H
	DD	040H
	DD	FLAT:??_R3ioEntityEvent@@8
rdata$r	ENDS
;	COMDAT ??_R1A@?0A@EA@ioCreateChar@@8
rdata$r	SEGMENT
??_R1A@?0A@EA@ioCreateChar@@8 DD FLAT:??_R0?AVioCreateChar@@@8 ; ioCreateChar::`RTTI Base Class Descriptor at (0,-1,0,64)'
	DD	01H
	DD	00H
	DD	0ffffffffH
	DD	00H
	DD	040H
	DD	FLAT:??_R3ioCreateChar@@8
rdata$r	ENDS
;	COMDAT ??_R2ioCreateChar@@8
rdata$r	SEGMENT
??_R2ioCreateChar@@8 DD FLAT:??_R1A@?0A@EA@ioCreateChar@@8 ; ioCreateChar::`RTTI Base Class Array'
	DD	FLAT:??_R1A@?0A@EA@ioEntityEvent@@8
rdata$r	ENDS
;	COMDAT ??_R3ioCreateChar@@8
rdata$r	SEGMENT
??_R3ioCreateChar@@8 DD 00H				; ioCreateChar::`RTTI Class Hierarchy Descriptor'
	DD	00H
	DD	02H
	DD	FLAT:??_R2ioCreateChar@@8
rdata$r	ENDS
;	COMDAT ??_R0?AVioCreateChar@@@8
_DATA	SEGMENT
??_R0?AVioCreateChar@@@8 DD FLAT:??_7type_info@@6B@	; ioCreateChar `RTTI Type Descriptor'
	DD	00H
	DB	'.?AVioCreateChar@@', 00H
_DATA	ENDS
;	COMDAT ??_R4ioCreateChar@@6B@
rdata$r	SEGMENT
??_R4ioCreateChar@@6B@ DD 00H				; ioCreateChar::`RTTI Complete Object Locator'
	DD	00H
	DD	00H
	DD	FLAT:??_R0?AVioCreateChar@@@8
	DD	FLAT:??_R3ioCreateChar@@8
rdata$r	ENDS
;	COMDAT ??_7ioCreateChar@@6B@
CONST	SEGMENT
??_7ioCreateChar@@6B@ DD FLAT:??_R4ioCreateChar@@6B@	; ioCreateChar::`vftable'
	DD	FLAT:?AddEntityEvent@ioEntityEvent@@UAEXPAVioEntity@@@Z
	DD	FLAT:??_EioCreateChar@@UAEPAXI@Z
	DD	FLAT:?AddEntityEvent@ioCreateChar@@UAEXPAVioEntity@@H@Z
CONST	ENDS
;	COMDAT xdata$x
xdata$x	SEGMENT
__ehfuncinfo$??1ioCreateChar@@UAE@XZ DD 019930522H
	DD	016H
	DD	FLAT:__unwindtable$??1ioCreateChar@@UAE@XZ
	DD	2 DUP(00H)
	DD	2 DUP(00H)
	DD	00H
	DD	01H
__unwindtable$??1ioCreateChar@@UAE@XZ DD 0ffffffffH
	DD	FLAT:__unwindfunclet$??1ioCreateChar@@UAE@XZ$0
	DD	00H
	DD	FLAT:__unwindfunclet$??1ioCreateChar@@UAE@XZ$1
	DD	01H
	DD	FLAT:__unwindfunclet$??1ioCreateChar@@UAE@XZ$2
	DD	02H
	DD	FLAT:__unwindfunclet$??1ioCreateChar@@UAE@XZ$3
	DD	03H
	DD	FLAT:__unwindfunclet$??1ioCreateChar@@UAE@XZ$4
	DD	04H
	DD	FLAT:__unwindfunclet$??1ioCreateChar@@UAE@XZ$5
	DD	05H
	DD	FLAT:__unwindfunclet$??1ioCreateChar@@UAE@XZ$6
	DD	06H
	DD	FLAT:__unwindfunclet$??1ioCreateChar@@UAE@XZ$7
	DD	07H
	DD	FLAT:__unwindfunclet$??1ioCreateChar@@UAE@XZ$8
	DD	08H
	DD	FLAT:__unwindfunclet$??1ioCreateChar@@UAE@XZ$9
	DD	09H
	DD	FLAT:__unwindfunclet$??1ioCreateChar@@UAE@XZ$10
	DD	0aH
	DD	FLAT:__unwindfunclet$??1ioCreateChar@@UAE@XZ$11
	DD	0bH
	DD	FLAT:__unwindfunclet$??1ioCreateChar@@UAE@XZ$12
	DD	0cH
	DD	FLAT:__unwindfunclet$??1ioCreateChar@@UAE@XZ$13
	DD	0dH
	DD	FLAT:__unwindfunclet$??1ioCreateChar@@UAE@XZ$14
	DD	0eH
	DD	FLAT:__unwindfunclet$??1ioCreateChar@@UAE@XZ$15
	DD	0fH
	DD	FLAT:__unwindfunclet$??1ioCreateChar@@UAE@XZ$16
	DD	010H
	DD	FLAT:__unwindfunclet$??1ioCreateChar@@UAE@XZ$17
	DD	011H
	DD	FLAT:__unwindfunclet$??1ioCreateChar@@UAE@XZ$18
	DD	012H
	DD	FLAT:__unwindfunclet$??1ioCreateChar@@UAE@XZ$19
	DD	013H
	DD	FLAT:__unwindfunclet$??1ioCreateChar@@UAE@XZ$20
	DD	014H
	DD	FLAT:__unwindfunclet$??1ioCreateChar@@UAE@XZ$21
; Function compile flags: /Ogsp
; File d:\lost saga for developer\youtube\tutorial\source\src\lsclient\iocreatechar.cpp
xdata$x	ENDS
;	COMDAT ??1ioCreateChar@@UAE@XZ
_TEXT	SEGMENT
_this$ = -24						; size = 4
tv291 = -20						; size = 4
_pSceneNode$564945 = -16				; size = 4
__$EHRec$ = -12						; size = 12
??1ioCreateChar@@UAE@XZ PROC				; ioCreateChar::~ioCreateChar, COMDAT
; _this$ = ecx

; 44   : {

  00000	6a 0c		 push	 12			; 0000000cH
  00002	b8 00 00 00 00	 mov	 eax, __ehhandler$??1ioCreateChar@@UAE@XZ
  00007	e8 00 00 00 00	 call	 __EH_prolog3
  0000c	8b f1		 mov	 esi, ecx
  0000e	89 75 e8	 mov	 DWORD PTR _this$[ebp], esi
  00011	c7 06 00 00 00
	00		 mov	 DWORD PTR [esi], OFFSET ??_7ioCreateChar@@6B@

; 45   : 	g_CustomTextureMgr.DestroyUIChar( (DWORD)this );

  00017	56		 push	 esi
  00018	c7 45 fc 15 00
	00 00		 mov	 DWORD PTR __$EHRec$[ebp+8], 21 ; 00000015H
  0001f	e8 00 00 00 00	 call	 ?GetSingleton@ioCustomTextureMgr@@SAAAV1@XZ ; ioCustomTextureMgr::GetSingleton
  00024	8b c8		 mov	 ecx, eax
  00026	e8 00 00 00 00	 call	 ?DestroyUIChar@ioCustomTextureMgr@@QAEXK@Z ; ioCustomTextureMgr::DestroyUIChar

; 46   : 
; 47   : 	ioEntityGroup *pGrp = GetGroup();

  0002b	8b 4e 04	 mov	 ecx, DWORD PTR [esi+4]
  0002e	89 4d ec	 mov	 DWORD PTR tv291[ebp], ecx

; 48   : 	if( m_pGrp )

  00031	85 c9		 test	 ecx, ecx
  00033	74 45		 je	 SHORT $LN1@ioCreateCh

; 49   : 	{
; 50   : 		ioSceneNode *pSceneNode = pGrp->GetParentSceneNode();

  00035	8b 01		 mov	 eax, DWORD PTR [ecx]
  00037	ff 50 34	 call	 DWORD PTR [eax+52]
  0003a	8b f8		 mov	 edi, eax
  0003c	89 7d f0	 mov	 DWORD PTR _pSceneNode$564945[ebp], edi

; 51   : 		if( pSceneNode )

  0003f	85 ff		 test	 edi, edi
  00041	74 37		 je	 SHORT $LN1@ioCreateCh

; 52   : 		{
; 53   : 			pSceneNode->RemoveAndDestroyAllChildren();

  00043	8b 07		 mov	 eax, DWORD PTR [edi]
  00045	8b cf		 mov	 ecx, edi
  00047	ff 90 d0 00 00
	00		 call	 DWORD PTR [eax+208]

; 54   : 
; 55   : 			ioSceneManager *pSceneMgr = pSceneNode->GetSceneMgr();

  0004d	8b cf		 mov	 ecx, edi
  0004f	ff 15 00 00 00
	00		 call	 DWORD PTR __imp_?GetSceneMgr@ioSceneNode@@QAEPAVioSceneManager@@XZ
  00055	8b f8		 mov	 edi, eax

; 56   : 			if( pSceneMgr )

  00057	85 ff		 test	 edi, edi
  00059	74 1f		 je	 SHORT $LN1@ioCreateCh

; 57   : 			{
; 58   : 				pSceneMgr->DestroySceneNode( pSceneNode->GetUniqueID() );

  0005b	8b 4d f0	 mov	 ecx, DWORD PTR _pSceneNode$564945[ebp]
  0005e	8b 1f		 mov	 ebx, DWORD PTR [edi]
  00060	ff 15 00 00 00
	00		 call	 DWORD PTR __imp_?GetUniqueID@ioNode@@QBEKXZ
  00066	50		 push	 eax
  00067	8b cf		 mov	 ecx, edi
  00069	ff 53 24	 call	 DWORD PTR [ebx+36]

; 59   : 				pSceneMgr->DestroyEntityGrp( pGrp );

  0006c	ff 75 ec	 push	 DWORD PTR tv291[ebp]
  0006f	8b 07		 mov	 eax, DWORD PTR [edi]
  00071	8b cf		 mov	 ecx, edi
  00073	ff 50 38	 call	 DWORD PTR [eax+56]

; 60   : 				m_pGrp = NULL;

  00076	83 66 04 00	 and	 DWORD PTR [esi+4], 0
$LN1@ioCreateCh:

; 61   : 			}
; 62   : 		}
; 63   : 	}
; 64   : }

  0007a	68 00 00 00 00	 push	 OFFSET ??1tagCostumeInfo@@QAE@XZ
  0007f	6a 04		 push	 4
  00081	68 dc 00 00 00	 push	 220			; 000000dcH
  00086	8d 86 38 02 00
	00		 lea	 eax, DWORD PTR [esi+568]
  0008c	50		 push	 eax
  0008d	c6 45 fc 14	 mov	 BYTE PTR __$EHRec$[ebp+8], 20 ; 00000014H
  00091	e8 00 00 00 00	 call	 ??_M@YGXPAXIHP6EX0@Z@Z
  00096	8b 3d 00 00 00
	00		 mov	 edi, DWORD PTR __imp_??1ioHashString@@QAE@XZ
  0009c	8d 8e 24 02 00
	00		 lea	 ecx, DWORD PTR [esi+548]
  000a2	c6 45 fc 13	 mov	 BYTE PTR __$EHRec$[ebp+8], 19 ; 00000013H
  000a6	ff d7		 call	 edi
  000a8	8d 8e 04 02 00
	00		 lea	 ecx, DWORD PTR [esi+516]
  000ae	c6 45 fc 12	 mov	 BYTE PTR __$EHRec$[ebp+8], 18 ; 00000012H
  000b2	ff d7		 call	 edi
  000b4	8d 8e f4 01 00
	00		 lea	 ecx, DWORD PTR [esi+500]
  000ba	c6 45 fc 11	 mov	 BYTE PTR __$EHRec$[ebp+8], 17 ; 00000011H
  000be	ff d7		 call	 edi
  000c0	8d 8e b0 01 00
	00		 lea	 ecx, DWORD PTR [esi+432]
  000c6	c6 45 fc 10	 mov	 BYTE PTR __$EHRec$[ebp+8], 16 ; 00000010H
  000ca	ff 15 00 00 00
	00		 call	 DWORD PTR __imp_??1ioOrientBox@@QAE@XZ
  000d0	8d 8e a0 01 00
	00		 lea	 ecx, DWORD PTR [esi+416]
  000d6	c6 45 fc 0f	 mov	 BYTE PTR __$EHRec$[ebp+8], 15 ; 0000000fH
  000da	ff d7		 call	 edi
  000dc	8d 8e 90 01 00
	00		 lea	 ecx, DWORD PTR [esi+400]
  000e2	c6 45 fc 0e	 mov	 BYTE PTR __$EHRec$[ebp+8], 14 ; 0000000eH
  000e6	ff d7		 call	 edi
  000e8	8d 8e 80 01 00
	00		 lea	 ecx, DWORD PTR [esi+384]
  000ee	c6 45 fc 0d	 mov	 BYTE PTR __$EHRec$[ebp+8], 13 ; 0000000dH
  000f2	ff d7		 call	 edi
  000f4	8d 8e 70 01 00
	00		 lea	 ecx, DWORD PTR [esi+368]
  000fa	c6 45 fc 0c	 mov	 BYTE PTR __$EHRec$[ebp+8], 12 ; 0000000cH
  000fe	ff d7		 call	 edi
  00100	8d 8e 60 01 00
	00		 lea	 ecx, DWORD PTR [esi+352]
  00106	c6 45 fc 0b	 mov	 BYTE PTR __$EHRec$[ebp+8], 11 ; 0000000bH
  0010a	ff d7		 call	 edi
  0010c	8d 8e 50 01 00
	00		 lea	 ecx, DWORD PTR [esi+336]
  00112	c6 45 fc 0a	 mov	 BYTE PTR __$EHRec$[ebp+8], 10 ; 0000000aH
  00116	ff d7		 call	 edi
  00118	8d 8e 40 01 00
	00		 lea	 ecx, DWORD PTR [esi+320]
  0011e	c6 45 fc 09	 mov	 BYTE PTR __$EHRec$[ebp+8], 9
  00122	ff d7		 call	 edi
  00124	8d 8e 30 01 00
	00		 lea	 ecx, DWORD PTR [esi+304]
  0012a	c6 45 fc 08	 mov	 BYTE PTR __$EHRec$[ebp+8], 8
  0012e	ff d7		 call	 edi
  00130	8d 8e 20 01 00
	00		 lea	 ecx, DWORD PTR [esi+288]
  00136	c6 45 fc 07	 mov	 BYTE PTR __$EHRec$[ebp+8], 7
  0013a	ff d7		 call	 edi
  0013c	8d 8e 10 01 00
	00		 lea	 ecx, DWORD PTR [esi+272]
  00142	c6 45 fc 06	 mov	 BYTE PTR __$EHRec$[ebp+8], 6
  00146	ff d7		 call	 edi
  00148	8d 8e 00 01 00
	00		 lea	 ecx, DWORD PTR [esi+256]
  0014e	c6 45 fc 05	 mov	 BYTE PTR __$EHRec$[ebp+8], 5
  00152	ff d7		 call	 edi
  00154	8d 8e f0 00 00
	00		 lea	 ecx, DWORD PTR [esi+240]
  0015a	c6 45 fc 04	 mov	 BYTE PTR __$EHRec$[ebp+8], 4
  0015e	ff d7		 call	 edi
  00160	68 00 00 00 00	 push	 OFFSET ??1EquipItemInfo@ioCreateChar@@QAE@XZ
  00165	6a 04		 push	 4
  00167	6a 1c		 push	 28			; 0000001cH
  00169	8d 86 80 00 00
	00		 lea	 eax, DWORD PTR [esi+128]
  0016f	50		 push	 eax
  00170	c6 45 fc 03	 mov	 BYTE PTR __$EHRec$[ebp+8], 3
  00174	e8 00 00 00 00	 call	 ??_M@YGXPAXIHP6EX0@Z@Z
  00179	8d 4e 60	 lea	 ecx, DWORD PTR [esi+96]
  0017c	c6 45 fc 02	 mov	 BYTE PTR __$EHRec$[ebp+8], 2
  00180	ff d7		 call	 edi
  00182	8d 4e 40	 lea	 ecx, DWORD PTR [esi+64]
  00185	c6 45 fc 01	 mov	 BYTE PTR __$EHRec$[ebp+8], 1
  00189	ff d7		 call	 edi
  0018b	8d 4e 0c	 lea	 ecx, DWORD PTR [esi+12]
  0018e	c6 45 fc 00	 mov	 BYTE PTR __$EHRec$[ebp+8], 0
  00192	ff d7		 call	 edi
  00194	83 4d fc ff	 or	 DWORD PTR __$EHRec$[ebp+8], -1
  00198	8b ce		 mov	 ecx, esi
  0019a	ff 15 00 00 00
	00		 call	 DWORD PTR __imp_??1ioEntityEvent@@UAE@XZ
  001a0	e8 00 00 00 00	 call	 __EH_epilog3
  001a5	c3		 ret	 0
_TEXT	ENDS
;	COMDAT text$x
text$x	SEGMENT
__unwindfunclet$??1ioCreateChar@@UAE@XZ$0:
  00000	8b 4d e8	 mov	 ecx, DWORD PTR _this$[ebp]
  00003	ff 25 00 00 00
	00		 jmp	 DWORD PTR __imp_??1ioEntityEvent@@UAE@XZ
__unwindfunclet$??1ioCreateChar@@UAE@XZ$1:
  00009	8b 4d e8	 mov	 ecx, DWORD PTR _this$[ebp]
  0000c	83 c1 0c	 add	 ecx, 12			; 0000000cH
  0000f	ff 25 00 00 00
	00		 jmp	 DWORD PTR __imp_??1ioHashString@@QAE@XZ
__unwindfunclet$??1ioCreateChar@@UAE@XZ$2:
  00015	8b 4d e8	 mov	 ecx, DWORD PTR _this$[ebp]
  00018	83 c1 40	 add	 ecx, 64			; 00000040H
  0001b	ff 25 00 00 00
	00		 jmp	 DWORD PTR __imp_??1ioHashString@@QAE@XZ
__unwindfunclet$??1ioCreateChar@@UAE@XZ$3:
  00021	8b 4d e8	 mov	 ecx, DWORD PTR _this$[ebp]
  00024	83 c1 60	 add	 ecx, 96			; 00000060H
  00027	ff 25 00 00 00
	00		 jmp	 DWORD PTR __imp_??1ioHashString@@QAE@XZ
__unwindfunclet$??1ioCreateChar@@UAE@XZ$4:
  0002d	68 00 00 00 00	 push	 OFFSET ??1EquipItemInfo@ioCreateChar@@QAE@XZ
  00032	6a 04		 push	 4
  00034	6a 1c		 push	 28			; 0000001cH
  00036	8b 45 e8	 mov	 eax, DWORD PTR _this$[ebp]
  00039	05 80 00 00 00	 add	 eax, 128		; 00000080H
  0003e	50		 push	 eax
  0003f	e8 00 00 00 00	 call	 ??_M@YGXPAXIHP6EX0@Z@Z
  00044	c3		 ret	 0
__unwindfunclet$??1ioCreateChar@@UAE@XZ$5:
  00045	8b 4d e8	 mov	 ecx, DWORD PTR _this$[ebp]
  00048	81 c1 f0 00 00
	00		 add	 ecx, 240		; 000000f0H
  0004e	ff 25 00 00 00
	00		 jmp	 DWORD PTR __imp_??1ioHashString@@QAE@XZ
__unwindfunclet$??1ioCreateChar@@UAE@XZ$6:
  00054	8b 4d e8	 mov	 ecx, DWORD PTR _this$[ebp]
  00057	81 c1 00 01 00
	00		 add	 ecx, 256		; 00000100H
  0005d	ff 25 00 00 00
	00		 jmp	 DWORD PTR __imp_??1ioHashString@@QAE@XZ
__unwindfunclet$??1ioCreateChar@@UAE@XZ$7:
  00063	8b 4d e8	 mov	 ecx, DWORD PTR _this$[ebp]
  00066	81 c1 10 01 00
	00		 add	 ecx, 272		; 00000110H
  0006c	ff 25 00 00 00
	00		 jmp	 DWORD PTR __imp_??1ioHashString@@QAE@XZ
__unwindfunclet$??1ioCreateChar@@UAE@XZ$8:
  00072	8b 4d e8	 mov	 ecx, DWORD PTR _this$[ebp]
  00075	81 c1 20 01 00
	00		 add	 ecx, 288		; 00000120H
  0007b	ff 25 00 00 00
	00		 jmp	 DWORD PTR __imp_??1ioHashString@@QAE@XZ
__unwindfunclet$??1ioCreateChar@@UAE@XZ$9:
  00081	8b 4d e8	 mov	 ecx, DWORD PTR _this$[ebp]
  00084	81 c1 30 01 00
	00		 add	 ecx, 304		; 00000130H
  0008a	ff 25 00 00 00
	00		 jmp	 DWORD PTR __imp_??1ioHashString@@QAE@XZ
__unwindfunclet$??1ioCreateChar@@UAE@XZ$10:
  00090	8b 4d e8	 mov	 ecx, DWORD PTR _this$[ebp]
  00093	81 c1 40 01 00
	00		 add	 ecx, 320		; 00000140H
  00099	ff 25 00 00 00
	00		 jmp	 DWORD PTR __imp_??1ioHashString@@QAE@XZ
__unwindfunclet$??1ioCreateChar@@UAE@XZ$11:
  0009f	8b 4d e8	 mov	 ecx, DWORD PTR _this$[ebp]
  000a2	81 c1 50 01 00
	00		 add	 ecx, 336		; 00000150H
  000a8	ff 25 00 00 00
	00		 jmp	 DWORD PTR __imp_??1ioHashString@@QAE@XZ
__unwindfunclet$??1ioCreateChar@@UAE@XZ$12:
  000ae	8b 4d e8	 mov	 ecx, DWORD PTR _this$[ebp]
  000b1	81 c1 60 01 00
	00		 add	 ecx, 352		; 00000160H
  000b7	ff 25 00 00 00
	00		 jmp	 DWORD PTR __imp_??1ioHashString@@QAE@XZ
__unwindfunclet$??1ioCreateChar@@UAE@XZ$13:
  000bd	8b 4d e8	 mov	 ecx, DWORD PTR _this$[ebp]
  000c0	81 c1 70 01 00
	00		 add	 ecx, 368		; 00000170H
  000c6	ff 25 00 00 00
	00		 jmp	 DWORD PTR __imp_??1ioHashString@@QAE@XZ
__unwindfunclet$??1ioCreateChar@@UAE@XZ$14:
  000cc	8b 4d e8	 mov	 ecx, DWORD PTR _this$[ebp]
  000cf	81 c1 80 01 00
	00		 add	 ecx, 384		; 00000180H
  000d5	ff 25 00 00 00
	00		 jmp	 DWORD PTR __imp_??1ioHashString@@QAE@XZ
__unwindfunclet$??1ioCreateChar@@UAE@XZ$15:
  000db	8b 4d e8	 mov	 ecx, DWORD PTR _this$[ebp]
  000de	81 c1 90 01 00
	00		 add	 ecx, 400		; 00000190H
  000e4	ff 25 00 00 00
	00		 jmp	 DWORD PTR __imp_??1ioHashString@@QAE@XZ
__unwindfunclet$??1ioCreateChar@@UAE@XZ$16:
  000ea	8b 4d e8	 mov	 ecx, DWORD PTR _this$[ebp]
  000ed	81 c1 a0 01 00
	00		 add	 ecx, 416		; 000001a0H
  000f3	ff 25 00 00 00
	00		 jmp	 DWORD PTR __imp_??1ioHashString@@QAE@XZ
__unwindfunclet$??1ioCreateChar@@UAE@XZ$17:
  000f9	8b 4d e8	 mov	 ecx, DWORD PTR _this$[ebp]
  000fc	81 c1 b0 01 00
	00		 add	 ecx, 432		; 000001b0H
  00102	ff 25 00 00 00
	00		 jmp	 DWORD PTR __imp_??1ioOrientBox@@QAE@XZ
__unwindfunclet$??1ioCreateChar@@UAE@XZ$18:
  00108	8b 4d e8	 mov	 ecx, DWORD PTR _this$[ebp]
  0010b	81 c1 f4 01 00
	00		 add	 ecx, 500		; 000001f4H
  00111	ff 25 00 00 00
	00		 jmp	 DWORD PTR __imp_??1ioHashString@@QAE@XZ
__unwindfunclet$??1ioCreateChar@@UAE@XZ$19:
  00117	8b 4d e8	 mov	 ecx, DWORD PTR _this$[ebp]
  0011a	81 c1 04 02 00
	00		 add	 ecx, 516		; 00000204H
  00120	ff 25 00 00 00
	00		 jmp	 DWORD PTR __imp_??1ioHashString@@QAE@XZ
__unwindfunclet$??1ioCreateChar@@UAE@XZ$20:
  00126	8b 4d e8	 mov	 ecx, DWORD PTR _this$[ebp]
  00129	81 c1 24 02 00
	00		 add	 ecx, 548		; 00000224H
  0012f	ff 25 00 00 00
	00		 jmp	 DWORD PTR __imp_??1ioHashString@@QAE@XZ
__unwindfunclet$??1ioCreateChar@@UAE@XZ$21:
  00135	68 00 00 00 00	 push	 OFFSET ??1tagCostumeInfo@@QAE@XZ
  0013a	6a 04		 push	 4
  0013c	68 dc 00 00 00	 push	 220			; 000000dcH
  00141	8b 45 e8	 mov	 eax, DWORD PTR _this$[ebp]
  00144	05 38 02 00 00	 add	 eax, 568		; 00000238H
  00149	50		 push	 eax
  0014a	e8 00 00 00 00	 call	 ??_M@YGXPAXIHP6EX0@Z@Z
  0014f	c3		 ret	 0
__ehhandler$??1ioCreateChar@@UAE@XZ:
  00150	8b 54 24 08	 mov	 edx, DWORD PTR [esp+8]
  00154	8d 42 0c	 lea	 eax, DWORD PTR [edx+12]
  00157	8b 4a e4	 mov	 ecx, DWORD PTR [edx-28]
  0015a	33 c8		 xor	 ecx, eax
  0015c	e8 00 00 00 00	 call	 @__security_check_cookie@4
  00161	b8 00 00 00 00	 mov	 eax, OFFSET __ehfuncinfo$??1ioCreateChar@@UAE@XZ
  00166	e9 00 00 00 00	 jmp	 ___CxxFrameHandler3
text$x	ENDS
??1ioCreateChar@@UAE@XZ ENDP				; ioCreateChar::~ioCreateChar
EXTRN	?CustomEntityTexture@Help@@YAXPAVioEntity@@ABVioHashString@@1H@Z:PROC ; Help::CustomEntityTexture
EXTRN	?IsExistenceFile@ioCustomTextureMgr@@QAE_NABVioHashString@@0KKH@Z:PROC ; ioCustomTextureMgr::IsExistenceFile
EXTRN	?GetSingleton@ioMyInfo@@SAAAV1@XZ:PROC		; ioMyInfo::GetSingleton
;	COMDAT xdata$x
; File c:\program files (x86)\microsoft visual studio 10.0\vc\include\vector
xdata$x	SEGMENT
__unwindtable$?AddEntityEvent@ioCreateChar@@UAEXPAVioEntity@@H@Z DD 0ffffffffH
	DD	FLAT:__unwindfunclet$?AddEntityEvent@ioCreateChar@@UAEXPAVioEntity@@H@Z$0
	DD	00H
	DD	FLAT:__unwindfunclet$?AddEntityEvent@ioCreateChar@@UAEXPAVioEntity@@H@Z$1
__ehfuncinfo$?AddEntityEvent@ioCreateChar@@UAEXPAVioEntity@@H@Z DD 019930522H
	DD	02H
	DD	FLAT:__unwindtable$?AddEntityEvent@ioCreateChar@@UAEXPAVioEntity@@H@Z
	DD	2 DUP(00H)
	DD	2 DUP(00H)
	DD	00H
	DD	01H
; Function compile flags: /Ogsp
; File d:\lost saga for developer\youtube\tutorial\source\src\lsclient\iocreatechar.cpp
xdata$x	ENDS
;	COMDAT ?AddEntityEvent@ioCreateChar@@UAEXPAVioEntity@@H@Z
_TEXT	SEGMENT
_kCustomList$566694 = -72				; size = 16
_kOriginalList$566693 = -56				; size = 16
_this$ = -40						; size = 4
tv360 = -36						; size = 4
tv698 = -32						; size = 4
_iOri$566697 = -28					; size = 4
_iCustom$566702 = -24					; size = 4
tv616 = -20						; size = 4
_dwCustomIndex$566688 = -16				; size = 4
__$EHRec$ = -12						; size = 12
_pEntity$ = 8						; size = 4
_bCostume$ = 12						; size = 4
?AddEntityEvent@ioCreateChar@@UAEXPAVioEntity@@H@Z PROC	; ioCreateChar::AddEntityEvent, COMDAT
; _this$ = ecx

; 528  : {

  00000	6a 3c		 push	 60			; 0000003cH
  00002	b8 00 00 00 00	 mov	 eax, __ehhandler$?AddEntityEvent@ioCreateChar@@UAEXPAVioEntity@@H@Z
  00007	e8 00 00 00 00	 call	 __EH_prolog3
  0000c	89 4d d8	 mov	 DWORD PTR _this$[ebp], ecx

; 529  : 	if( !pEntity ) return;

  0000f	33 db		 xor	 ebx, ebx
  00011	39 5d 08	 cmp	 DWORD PTR _pEntity$[ebp], ebx
  00014	0f 84 a5 01 00
	00		 je	 $LN15@AddEntityE

; 530  : 
; 531  : 	for(int i = CCS_WEAPON;i <= CCS_CLOAK;i++)

  0001a	8d b9 84 00 00
	00		 lea	 edi, DWORD PTR [ecx+132]
  00020	89 7d e0	 mov	 DWORD PTR tv698[ebp], edi
  00023	c7 45 dc 04 00
	00 00		 mov	 DWORD PTR tv360[ebp], 4
  0002a	eb 03		 jmp	 SHORT $LN17@AddEntityE
$LL107@AddEntityE:
  0002c	8b 4d d8	 mov	 ecx, DWORD PTR _this$[ebp]
$LN17@AddEntityE:

; 532  : 	{
; 533  : 		EquipItemInfo &rkSlot = m_ItemSlot[i];
; 534  : 
; 535  : 		DWORD dwCustomIndex = 0;
; 536  : 		if( IsMale() && rkSlot.dwItemMaleCustom > 0 )

  0002f	8a 49 1c	 mov	 cl, BYTE PTR [ecx+28]
  00032	89 5d f0	 mov	 DWORD PTR _dwCustomIndex$566688[ebp], ebx
  00035	84 c9		 test	 cl, cl
  00037	74 0d		 je	 SHORT $LN110@AddEntityE
  00039	8b 07		 mov	 eax, DWORD PTR [edi]
  0003b	3b c3		 cmp	 eax, ebx
  0003d	76 03		 jbe	 SHORT $LN14@AddEntityE

; 537  : 			dwCustomIndex = rkSlot.dwItemMaleCustom;

  0003f	89 45 f0	 mov	 DWORD PTR _dwCustomIndex$566688[ebp], eax
$LN14@AddEntityE:

; 538  : 		if( !IsMale() && rkSlot.dwItemFemaleCustom  > 0 )

  00042	84 c9		 test	 cl, cl
  00044	75 0a		 jne	 SHORT $LN13@AddEntityE
$LN110@AddEntityE:
  00046	8b 47 04	 mov	 eax, DWORD PTR [edi+4]
  00049	3b c3		 cmp	 eax, ebx
  0004b	76 03		 jbe	 SHORT $LN13@AddEntityE

; 539  : 			dwCustomIndex = rkSlot.dwItemFemaleCustom;

  0004d	89 45 f0	 mov	 DWORD PTR _dwCustomIndex$566688[ebp], eax
$LN13@AddEntityE:

; 540  : 
; 541  : 		if( dwCustomIndex == 0 ) continue;

  00050	39 5d f0	 cmp	 DWORD PTR _dwCustomIndex$566688[ebp], ebx
  00053	0f 84 57 01 00
	00		 je	 $LN16@AddEntityE

; 542  : 
; 543  : 		if( rkSlot.vCustomTexList.empty() ) continue;

  00059	8b 47 08	 mov	 eax, DWORD PTR [edi+8]
  0005c	3b 47 0c	 cmp	 eax, DWORD PTR [edi+12]
  0005f	0f 84 4b 01 00
	00		 je	 $LN16@AddEntityE

; 544  : 
; 545  : 		CustomTextureList kOriginalList;

  00065	89 5d c8	 mov	 DWORD PTR _kOriginalList$566693[ebp], ebx
  00068	89 5d cc	 mov	 DWORD PTR _kOriginalList$566693[ebp+4], ebx
  0006b	89 5d d0	 mov	 DWORD PTR _kOriginalList$566693[ebp+8], ebx

; 546  : 		Help::CustomEntityTextureNameCnt( pEntity, 0, kOriginalList );

  0006e	53		 push	 ebx
  0006f	8d 45 c8	 lea	 eax, DWORD PTR _kOriginalList$566693[ebp]
  00072	50		 push	 eax
  00073	53		 push	 ebx
  00074	ff 75 08	 push	 DWORD PTR _pEntity$[ebp]
  00077	89 5d fc	 mov	 DWORD PTR __$EHRec$[ebp+8], ebx
  0007a	e8 00 00 00 00	 call	 ?CustomEntityTextureNameCnt@Help@@YAXPAVioEntity@@KAAV?$vector@UCustomTexture@@V?$allocator@UCustomTexture@@@std@@@std@@H@Z ; Help::CustomEntityTextureNameCnt

; 547  : 
; 548  : 		CustomTextureList kCustomList;

  0007f	89 5d b8	 mov	 DWORD PTR _kCustomList$566694[ebp], ebx
  00082	89 5d bc	 mov	 DWORD PTR _kCustomList$566694[ebp+4], ebx
  00085	89 5d c0	 mov	 DWORD PTR _kCustomList$566694[ebp+8], ebx

; 549  : 		Help::CustomEntityTextureNameCnt( pEntity, dwCustomIndex, kCustomList, bCostume );

  00088	ff 75 0c	 push	 DWORD PTR _bCostume$[ebp]
  0008b	8d 45 b8	 lea	 eax, DWORD PTR _kCustomList$566694[ebp]
  0008e	50		 push	 eax
  0008f	ff 75 f0	 push	 DWORD PTR _dwCustomIndex$566688[ebp]
  00092	c6 45 fc 01	 mov	 BYTE PTR __$EHRec$[ebp+8], 1
  00096	ff 75 08	 push	 DWORD PTR _pEntity$[ebp]
  00099	e8 00 00 00 00	 call	 ?CustomEntityTextureNameCnt@Help@@YAXPAVioEntity@@KAAV?$vector@UCustomTexture@@V?$allocator@UCustomTexture@@@std@@@std@@H@Z ; Help::CustomEntityTextureNameCnt

; 550  : 
; 551  : 		if( kOriginalList.size() == 0 ) continue;

  0009e	8b 45 cc	 mov	 eax, DWORD PTR _kOriginalList$566693[ebp+4]
  000a1	2b 45 c8	 sub	 eax, DWORD PTR _kOriginalList$566693[ebp]
  000a4	83 c4 20	 add	 esp, 32			; 00000020H
  000a7	6a 14		 push	 20			; 00000014H
  000a9	99		 cdq
  000aa	59		 pop	 ecx
  000ab	f7 f9		 idiv	 ecx
  000ad	8b c8		 mov	 ecx, eax
  000af	3b cb		 cmp	 ecx, ebx
  000b1	0f 84 e1 00 00
	00		 je	 $LN6@AddEntityE

; 552  : 		if( kOriginalList.size() != kCustomList.size() ) continue;

  000b7	8b 45 bc	 mov	 eax, DWORD PTR _kCustomList$566694[ebp+4]
  000ba	2b 45 b8	 sub	 eax, DWORD PTR _kCustomList$566694[ebp]
  000bd	6a 14		 push	 20			; 00000014H
  000bf	99		 cdq
  000c0	5e		 pop	 esi
  000c1	f7 fe		 idiv	 esi
  000c3	3b c8		 cmp	 ecx, eax
  000c5	0f 85 cd 00 00
	00		 jne	 $LN6@AddEntityE

; 553  : 
; 554  : 		for(int iOri = 0;iOri < (int)kOriginalList.size();iOri++)

  000cb	89 5d e4	 mov	 DWORD PTR _iOri$566697[ebp], ebx
  000ce	3b cb		 cmp	 ecx, ebx
  000d0	0f 8e c2 00 00
	00		 jle	 $LN6@AddEntityE
  000d6	33 f6		 xor	 esi, esi
$LL8@AddEntityE:

; 555  : 		{
; 556  : 			for(int iCustom = 0;iCustom < (int)rkSlot.vCustomTexList.size();iCustom++)

  000d8	8b 4f 08	 mov	 ecx, DWORD PTR [edi+8]
  000db	8b 47 0c	 mov	 eax, DWORD PTR [edi+12]
  000de	2b c1		 sub	 eax, ecx
  000e0	6a 14		 push	 20			; 00000014H
  000e2	89 5d e8	 mov	 DWORD PTR _iCustom$566702[ebp], ebx
  000e5	99		 cdq
  000e6	5b		 pop	 ebx
  000e7	f7 fb		 idiv	 ebx
  000e9	85 c0		 test	 eax, eax
  000eb	0f 8e 8a 00 00
	00		 jle	 $LN7@AddEntityE
  000f1	83 65 ec 00	 and	 DWORD PTR tv616[ebp], 0
$LN5@AddEntityE:

; 557  : 			{
; 558  : 				if( kOriginalList[iOri].m_szTextureName == rkSlot.vCustomTexList[iCustom].m_szTextureName ) //    !     

  000f5	03 4d ec	 add	 ecx, DWORD PTR tv616[ebp]
  000f8	8b 45 c8	 mov	 eax, DWORD PTR _kOriginalList$566693[ebp]
  000fb	83 c1 04	 add	 ecx, 4
  000fe	51		 push	 ecx
  000ff	8d 4c 30 04	 lea	 ecx, DWORD PTR [eax+esi+4]
  00103	ff 15 00 00 00
	00		 call	 DWORD PTR __imp_??8ioHashString@@QBE_NABV0@@Z
  00109	84 c0		 test	 al, al
  0010b	74 50		 je	 SHORT $LN4@AddEntityE

; 559  : 				{
; 560  : 					if( g_CustomTextureMgr.IsExistenceFile( g_MyInfo.GetPublicID(), kOriginalList[iOri].m_szTextureName, dwCustomIndex, kCustomList[iOri].m_dwCustomSeq, bCostume ) )

  0010d	8b 45 b8	 mov	 eax, DWORD PTR _kCustomList$566694[ebp]
  00110	8d 3c 06	 lea	 edi, DWORD PTR [esi+eax]
  00113	8b 45 c8	 mov	 eax, DWORD PTR _kOriginalList$566693[ebp]
  00116	8d 5c 06 04	 lea	 ebx, DWORD PTR [esi+eax+4]
  0011a	e8 00 00 00 00	 call	 ?GetSingleton@ioMyInfo@@SAAAV1@XZ ; ioMyInfo::GetSingleton
  0011f	ff 75 0c	 push	 DWORD PTR _bCostume$[ebp]
  00122	83 c0 1c	 add	 eax, 28			; 0000001cH
  00125	ff 37		 push	 DWORD PTR [edi]
  00127	ff 75 f0	 push	 DWORD PTR _dwCustomIndex$566688[ebp]
  0012a	53		 push	 ebx
  0012b	50		 push	 eax
  0012c	e8 00 00 00 00	 call	 ?GetSingleton@ioCustomTextureMgr@@SAAAV1@XZ ; ioCustomTextureMgr::GetSingleton
  00131	8b c8		 mov	 ecx, eax
  00133	e8 00 00 00 00	 call	 ?IsExistenceFile@ioCustomTextureMgr@@QAE_NABVioHashString@@0KKH@Z ; ioCustomTextureMgr::IsExistenceFile
  00138	84 c0		 test	 al, al
  0013a	74 1e		 je	 SHORT $LN102@AddEntityE

; 561  : 					{
; 562  : 						Help::CustomEntityTexture( pEntity, kOriginalList[iOri].m_szTextureName, kCustomList[iOri].m_szTextureName, kCustomList[iOri].m_dwCustomSeq );

  0013c	8b 45 b8	 mov	 eax, DWORD PTR _kCustomList$566694[ebp]
  0013f	ff 34 06	 push	 DWORD PTR [esi+eax]
  00142	8d 44 06 04	 lea	 eax, DWORD PTR [esi+eax+4]
  00146	50		 push	 eax
  00147	8b 45 c8	 mov	 eax, DWORD PTR _kOriginalList$566693[ebp]
  0014a	8d 44 06 04	 lea	 eax, DWORD PTR [esi+eax+4]
  0014e	50		 push	 eax
  0014f	ff 75 08	 push	 DWORD PTR _pEntity$[ebp]
  00152	e8 00 00 00 00	 call	 ?CustomEntityTexture@Help@@YAXPAVioEntity@@ABVioHashString@@1H@Z ; Help::CustomEntityTexture
  00157	83 c4 10	 add	 esp, 16			; 00000010H
$LN102@AddEntityE:
  0015a	8b 7d e0	 mov	 edi, DWORD PTR tv698[ebp]
$LN4@AddEntityE:

; 555  : 		{
; 556  : 			for(int iCustom = 0;iCustom < (int)rkSlot.vCustomTexList.size();iCustom++)

  0015d	8b 4f 08	 mov	 ecx, DWORD PTR [edi+8]
  00160	8b 47 0c	 mov	 eax, DWORD PTR [edi+12]
  00163	2b c1		 sub	 eax, ecx
  00165	6a 14		 push	 20			; 00000014H
  00167	99		 cdq
  00168	5b		 pop	 ebx
  00169	f7 fb		 idiv	 ebx
  0016b	ff 45 e8	 inc	 DWORD PTR _iCustom$566702[ebp]
  0016e	83 45 ec 14	 add	 DWORD PTR tv616[ebp], 20 ; 00000014H
  00172	39 45 e8	 cmp	 DWORD PTR _iCustom$566702[ebp], eax
  00175	0f 8c 7a ff ff
	ff		 jl	 $LN5@AddEntityE
$LN7@AddEntityE:

; 553  : 
; 554  : 		for(int iOri = 0;iOri < (int)kOriginalList.size();iOri++)

  0017b	8b 45 cc	 mov	 eax, DWORD PTR _kOriginalList$566693[ebp+4]
  0017e	2b 45 c8	 sub	 eax, DWORD PTR _kOriginalList$566693[ebp]
  00181	6a 14		 push	 20			; 00000014H
  00183	99		 cdq
  00184	59		 pop	 ecx
  00185	f7 f9		 idiv	 ecx
  00187	ff 45 e4	 inc	 DWORD PTR _iOri$566697[ebp]
  0018a	83 c6 14	 add	 esi, 20			; 00000014H
  0018d	33 db		 xor	 ebx, ebx
  0018f	39 45 e4	 cmp	 DWORD PTR _iOri$566697[ebp], eax
  00192	0f 8c 40 ff ff
	ff		 jl	 $LL8@AddEntityE
$LN6@AddEntityE:

; 563  : 					}
; 564  : 				}
; 565  : 			}
; 566  : 		}
; 567  : 	}

  00198	8d 4d b8	 lea	 ecx, DWORD PTR _kCustomList$566694[ebp]
  0019b	c6 45 fc 00	 mov	 BYTE PTR __$EHRec$[ebp+8], 0
  0019f	e8 00 00 00 00	 call	 ?_Tidy@?$vector@UCustomTexture@@V?$allocator@UCustomTexture@@@std@@@std@@IAEXXZ ; std::vector<CustomTexture,std::allocator<CustomTexture> >::_Tidy
  001a4	83 4d fc ff	 or	 DWORD PTR __$EHRec$[ebp+8], -1
  001a8	8d 4d c8	 lea	 ecx, DWORD PTR _kOriginalList$566693[ebp]
  001ab	e8 00 00 00 00	 call	 ?_Tidy@?$vector@UCustomTexture@@V?$allocator@UCustomTexture@@@std@@@std@@IAEXXZ ; std::vector<CustomTexture,std::allocator<CustomTexture> >::_Tidy
$LN16@AddEntityE:

; 530  : 
; 531  : 	for(int i = CCS_WEAPON;i <= CCS_CLOAK;i++)

  001b0	83 c7 1c	 add	 edi, 28			; 0000001cH
  001b3	ff 4d dc	 dec	 DWORD PTR tv360[ebp]
  001b6	89 7d e0	 mov	 DWORD PTR tv698[ebp], edi
  001b9	0f 85 6d fe ff
	ff		 jne	 $LL107@AddEntityE
$LN15@AddEntityE:

; 568  : }

  001bf	e8 00 00 00 00	 call	 __EH_epilog3
  001c4	c2 08 00	 ret	 8
_TEXT	ENDS
;	COMDAT text$x
text$x	SEGMENT
__unwindfunclet$?AddEntityEvent@ioCreateChar@@UAEXPAVioEntity@@H@Z$0:
  00000	8d 4d c8	 lea	 ecx, DWORD PTR _kOriginalList$566693[ebp]
  00003	e9 00 00 00 00	 jmp	 ??1?$vector@UCustomTexture@@V?$allocator@UCustomTexture@@@std@@@std@@QAE@XZ ; std::vector<CustomTexture,std::allocator<CustomTexture> >::~vector<CustomTexture,std::allocator<CustomTexture> >
__unwindfunclet$?AddEntityEvent@ioCreateChar@@UAEXPAVioEntity@@H@Z$1:
  00008	8d 4d b8	 lea	 ecx, DWORD PTR _kCustomList$566694[ebp]
  0000b	e9 00 00 00 00	 jmp	 ??1?$vector@UCustomTexture@@V?$allocator@UCustomTexture@@@std@@@std@@QAE@XZ ; std::vector<CustomTexture,std::allocator<CustomTexture> >::~vector<CustomTexture,std::allocator<CustomTexture> >
__ehhandler$?AddEntityEvent@ioCreateChar@@UAEXPAVioEntity@@H@Z:
  00010	8b 54 24 08	 mov	 edx, DWORD PTR [esp+8]
  00014	8d 42 0c	 lea	 eax, DWORD PTR [edx+12]
  00017	8b 4a b4	 mov	 ecx, DWORD PTR [edx-76]
  0001a	33 c8		 xor	 ecx, eax
  0001c	e8 00 00 00 00	 call	 @__security_check_cookie@4
  00021	b8 00 00 00 00	 mov	 eax, OFFSET __ehfuncinfo$?AddEntityEvent@ioCreateChar@@UAEXPAVioEntity@@H@Z
  00026	e9 00 00 00 00	 jmp	 ___CxxFrameHandler3
text$x	ENDS
?AddEntityEvent@ioCreateChar@@UAEXPAVioEntity@@H@Z ENDP	; ioCreateChar::AddEntityEvent
PUBLIC	?EquipSlotData@ioCreateChar@@IAEXHKKK@Z		; ioCreateChar::EquipSlotData
; Function compile flags: /Ogsp
;	COMDAT ?EquipSlotData@ioCreateChar@@IAEXHKKK@Z
_TEXT	SEGMENT
$T574451 = 8						; size = 4
_iSlot$ = 8						; size = 4
_dwItemCode$ = 12					; size = 4
_dwItemMaleCustom$ = 16					; size = 4
_dwItemFemaleCustom$ = 20				; size = 4
?EquipSlotData@ioCreateChar@@IAEXHKKK@Z PROC		; ioCreateChar::EquipSlotData, COMDAT
; _this$ = ecx

; 658  : {

  00000	55		 push	 ebp
  00001	8b ec		 mov	 ebp, esp

; 659  : 	if( COMPARE( iSlot, CCS_WEAPON, MAX_CCS ) )

  00003	8b 55 08	 mov	 edx, DWORD PTR _iSlot$[ebp]
  00006	83 fa 03	 cmp	 edx, 3
  00009	77 3f		 ja	 SHORT $LN4@EquipSlotD

; 660  : 	{
; 661  : 		m_ItemSlot[iSlot].dwItemCode = dwItemCode;

  0000b	8b c2		 mov	 eax, edx
  0000d	6b c0 1c	 imul	 eax, 28			; 0000001cH
  00010	56		 push	 esi
  00011	8b 75 0c	 mov	 esi, DWORD PTR _dwItemCode$[ebp]
  00014	89 b4 08 80 00
	00 00		 mov	 DWORD PTR [eax+ecx+128], esi

; 662  : 		m_ItemSlot[iSlot].dwItemMaleCustom = dwItemMaleCustom;

  0001b	8b 75 10	 mov	 esi, DWORD PTR _dwItemMaleCustom$[ebp]
  0001e	89 b4 08 84 00
	00 00		 mov	 DWORD PTR [eax+ecx+132], esi

; 663  : 		m_ItemSlot[iSlot].dwItemFemaleCustom = dwItemFemaleCustom;

  00025	8b 75 14	 mov	 esi, DWORD PTR _dwItemFemaleCustom$[ebp]
  00028	89 b4 08 88 00
	00 00		 mov	 DWORD PTR [eax+ecx+136], esi

; 664  : 		m_ItemSlot[iSlot].vCustomTexList.clear();

  0002f	8d 42 05	 lea	 eax, DWORD PTR [edx+5]
  00032	6b c0 1c	 imul	 eax, 28			; 0000001cH
  00035	03 c1		 add	 eax, ecx
  00037	8b 48 04	 mov	 ecx, DWORD PTR [eax+4]
  0003a	8b 10		 mov	 edx, DWORD PTR [eax]
  0003c	51		 push	 ecx
  0003d	52		 push	 edx
  0003e	8d 4d 08	 lea	 ecx, DWORD PTR $T574451[ebp]
  00041	51		 push	 ecx
  00042	8b c8		 mov	 ecx, eax
  00044	e8 00 00 00 00	 call	 ?erase@?$vector@UCustomTexture@@V?$allocator@UCustomTexture@@@std@@@std@@QAE?AV?$_Vector_iterator@V?$_Vector_val@UCustomTexture@@V?$allocator@UCustomTexture@@@std@@@std@@@2@V?$_Vector_const_iterator@V?$_Vector_val@UCustomTexture@@V?$allocator@UCustomTexture@@@std@@@std@@@2@0@Z ; std::vector<CustomTexture,std::allocator<CustomTexture> >::erase
  00049	5e		 pop	 esi
$LN4@EquipSlotD:

; 665  : 	}
; 666  : }

  0004a	5d		 pop	 ebp
  0004b	c2 10 00	 ret	 16			; 00000010H
?EquipSlotData@ioCreateChar@@IAEXHKKK@Z ENDP		; ioCreateChar::EquipSlotData
_TEXT	ENDS
PUBLIC	?ReleaseSlotData@ioCreateChar@@IAEXH@Z		; ioCreateChar::ReleaseSlotData
; Function compile flags: /Ogsp
;	COMDAT ?ReleaseSlotData@ioCreateChar@@IAEXH@Z
_TEXT	SEGMENT
$T574532 = 8						; size = 4
_iSlot$ = 8						; size = 4
?ReleaseSlotData@ioCreateChar@@IAEXH@Z PROC		; ioCreateChar::ReleaseSlotData, COMDAT
; _this$ = ecx

; 1010 : {

  00000	55		 push	 ebp
  00001	8b ec		 mov	 ebp, esp

; 1011 : 	if( COMPARE( iSlot, CCS_WEAPON, MAX_CCS ) )

  00003	8b 55 08	 mov	 edx, DWORD PTR _iSlot$[ebp]
  00006	83 fa 03	 cmp	 edx, 3
  00009	77 36		 ja	 SHORT $LN4@ReleaseSlo

; 1012 : 	{
; 1013 : 		m_ItemSlot[iSlot].dwItemCode = 0;

  0000b	8b c2		 mov	 eax, edx
  0000d	6b c0 1c	 imul	 eax, 28			; 0000001cH
  00010	03 c1		 add	 eax, ecx
  00012	83 a0 80 00 00
	00 00		 and	 DWORD PTR [eax+128], 0

; 1014 : 		m_ItemSlot[iSlot].dwItemMaleCustom = m_ItemSlot[iSlot].dwItemFemaleCustom = 0;

  00019	83 a0 88 00 00
	00 00		 and	 DWORD PTR [eax+136], 0
  00020	83 a0 84 00 00
	00 00		 and	 DWORD PTR [eax+132], 0

; 1015 : 		m_ItemSlot[iSlot].vCustomTexList.clear();

  00027	8d 42 05	 lea	 eax, DWORD PTR [edx+5]
  0002a	6b c0 1c	 imul	 eax, 28			; 0000001cH
  0002d	03 c1		 add	 eax, ecx
  0002f	8b 48 04	 mov	 ecx, DWORD PTR [eax+4]
  00032	8b 10		 mov	 edx, DWORD PTR [eax]
  00034	51		 push	 ecx
  00035	52		 push	 edx
  00036	8d 4d 08	 lea	 ecx, DWORD PTR $T574532[ebp]
  00039	51		 push	 ecx
  0003a	8b c8		 mov	 ecx, eax
  0003c	e8 00 00 00 00	 call	 ?erase@?$vector@UCustomTexture@@V?$allocator@UCustomTexture@@@std@@@std@@QAE?AV?$_Vector_iterator@V?$_Vector_val@UCustomTexture@@V?$allocator@UCustomTexture@@@std@@@std@@@2@V?$_Vector_const_iterator@V?$_Vector_val@UCustomTexture@@V?$allocator@UCustomTexture@@@std@@@std@@@2@0@Z ; std::vector<CustomTexture,std::allocator<CustomTexture> >::erase
$LN4@ReleaseSlo:

; 1016 : 	}
; 1017 : }

  00041	5d		 pop	 ebp
  00042	c2 04 00	 ret	 4
?ReleaseSlotData@ioCreateChar@@IAEXH@Z ENDP		; ioCreateChar::ReleaseSlotData
_TEXT	ENDS
PUBLIC	?ReleaseWeaponSlot@ioCreateChar@@IAEXXZ		; ioCreateChar::ReleaseWeaponSlot
;	COMDAT xdata$x
xdata$x	SEGMENT
__unwindtable$?ReleaseWeaponSlot@ioCreateChar@@IAEXXZ DD 0ffffffffH
	DD	FLAT:__unwindfunclet$?ReleaseWeaponSlot@ioCreateChar@@IAEXXZ$0
__ehfuncinfo$?ReleaseWeaponSlot@ioCreateChar@@IAEXXZ DD 019930522H
	DD	01H
	DD	FLAT:__unwindtable$?ReleaseWeaponSlot@ioCreateChar@@IAEXXZ
	DD	2 DUP(00H)
	DD	2 DUP(00H)
	DD	00H
	DD	01H
; Function compile flags: /Ogsp
xdata$x	ENDS
;	COMDAT ?ReleaseWeaponSlot@ioCreateChar@@IAEXXZ
_TEXT	SEGMENT
_szEquipEffect$ = -28					; size = 16
__$EHRec$ = -12						; size = 12
?ReleaseWeaponSlot@ioCreateChar@@IAEXXZ PROC		; ioCreateChar::ReleaseWeaponSlot, COMDAT
; _this$ = ecx

; 1020 : {

  00000	6a 10		 push	 16			; 00000010H
  00002	b8 00 00 00 00	 mov	 eax, __ehhandler$?ReleaseWeaponSlot@ioCreateChar@@IAEXXZ
  00007	e8 00 00 00 00	 call	 __EH_prolog3
  0000c	8b f1		 mov	 esi, ecx

; 1021 : 	const ioItem *pItem = GetSlotItem( CCS_WEAPON );

  0000e	33 db		 xor	 ebx, ebx
  00010	53		 push	 ebx
  00011	e8 00 00 00 00	 call	 ?GetSlotItem@ioCreateChar@@QAEPBVioItem@@H@Z ; ioCreateChar::GetSlotItem
  00016	8b f8		 mov	 edi, eax

; 1022 : 	if( !pItem )	return;

  00018	3b fb		 cmp	 edi, ebx
  0001a	0f 84 87 00 00
	00		 je	 $LN5@ReleaseWea

; 1023 : 
; 1024 : 	ReleaseSlotData( CCS_WEAPON );

  00020	53		 push	 ebx
  00021	8b ce		 mov	 ecx, esi
  00023	e8 00 00 00 00	 call	 ?ReleaseSlotData@ioCreateChar@@IAEXH@Z ; ioCreateChar::ReleaseSlotData

; 1025 : 
; 1026 : 	ioHashString szEquipEffect = pItem->GetItemEquipEffect( m_bMale );

  00028	0f b6 46 1c	 movzx	 eax, BYTE PTR [esi+28]
  0002c	50		 push	 eax
  0002d	8b cf		 mov	 ecx, edi
  0002f	e8 00 00 00 00	 call	 ?GetItemEquipEffect@ioItem@@QBEABVioHashString@@_N@Z ; ioItem::GetItemEquipEffect
  00034	50		 push	 eax
  00035	8d 4d e4	 lea	 ecx, DWORD PTR _szEquipEffect$[ebp]
  00038	ff 15 00 00 00
	00		 call	 DWORD PTR __imp_??0ioHashString@@QAE@ABV0@@Z

; 1027 : 	if( !szEquipEffect.IsEmpty() )

  0003e	8d 4d e4	 lea	 ecx, DWORD PTR _szEquipEffect$[ebp]
  00041	89 5d fc	 mov	 DWORD PTR __$EHRec$[ebp+8], ebx
  00044	ff 15 00 00 00
	00		 call	 DWORD PTR __imp_?IsEmpty@ioHashString@@QBE_NXZ
  0004a	84 c0		 test	 al, al
  0004c	75 10		 jne	 SHORT $LN3@ReleaseWea

; 1028 : 		m_pGrp->EndEffect( szEquipEffect, false);

  0004e	8b 4e 04	 mov	 ecx, DWORD PTR [esi+4]
  00051	6a 01		 push	 1
  00053	53		 push	 ebx
  00054	8d 45 e4	 lea	 eax, DWORD PTR _szEquipEffect$[ebp]
  00057	50		 push	 eax
  00058	ff 15 00 00 00
	00		 call	 DWORD PTR __imp_?EndEffect@ioEntityGroup@@QAEXABVioHashString@@_N1@Z
$LN3@ReleaseWea:

; 1029 : 
; 1030 : 	const ioWeaponItem *pWeapon = ToWeaponItemConst( pItem );

  0005e	57		 push	 edi
  0005f	e8 00 00 00 00	 call	 ?ToWeaponItemConst@@YAPBVioWeaponItem@@PBVioItem@@@Z ; ToWeaponItemConst
  00064	8b f8		 mov	 edi, eax
  00066	59		 pop	 ecx

; 1031 : 	if( pWeapon )

  00067	3b fb		 cmp	 edi, ebx
  00069	74 15		 je	 SHORT $LN2@ReleaseWea

; 1032 : 	{
; 1033 : 		RemoveEntityInOwner( pWeapon->GetEquipMesh(NULL), true );

  0006b	8b 07		 mov	 eax, DWORD PTR [edi]
  0006d	6a 01		 push	 1
  0006f	53		 push	 ebx
  00070	8b cf		 mov	 ecx, edi
  00072	ff 90 e8 02 00
	00		 call	 DWORD PTR [eax+744]
  00078	50		 push	 eax
  00079	8b ce		 mov	 ecx, esi
  0007b	e8 00 00 00 00	 call	 ?RemoveEntityInOwner@ioCreateChar@@IAE_NABVioHashString@@_N@Z ; ioCreateChar::RemoveEntityInOwner
$LN2@ReleaseWea:

; 1034 : 	}
; 1035 : 
; 1036 : 	if( ToHookItem( pWeapon ) )

  00080	57		 push	 edi
  00081	e8 00 00 00 00	 call	 ?ToHookItem@@YAPBVioHookItem@@PBVioWeaponItem@@@Z ; ToHookItem
  00086	59		 pop	 ecx
  00087	85 c0		 test	 eax, eax
  00089	74 0f		 je	 SHORT $LN1@ReleaseWea

; 1037 : 	{
; 1038 : 		AddEntityToOwner( m_DefaultHandMesh );

  0008b	53		 push	 ebx
  0008c	8d 86 70 01 00
	00		 lea	 eax, DWORD PTR [esi+368]
  00092	50		 push	 eax
  00093	8b ce		 mov	 ecx, esi
  00095	e8 00 00 00 00	 call	 ?AddEntityToOwner@ioCreateChar@@IAEPAVioEntity@@ABVioHashString@@_N@Z ; ioCreateChar::AddEntityToOwner
$LN1@ReleaseWea:

; 1039 : 	}
; 1040 : }

  0009a	83 4d fc ff	 or	 DWORD PTR __$EHRec$[ebp+8], -1
  0009e	8d 4d e4	 lea	 ecx, DWORD PTR _szEquipEffect$[ebp]
  000a1	ff 15 00 00 00
	00		 call	 DWORD PTR __imp_??1ioHashString@@QAE@XZ
$LN5@ReleaseWea:
  000a7	e8 00 00 00 00	 call	 __EH_epilog3
  000ac	c3		 ret	 0
_TEXT	ENDS
;	COMDAT text$x
text$x	SEGMENT
__unwindfunclet$?ReleaseWeaponSlot@ioCreateChar@@IAEXXZ$0:
  00000	8d 4d e4	 lea	 ecx, DWORD PTR _szEquipEffect$[ebp]
  00003	ff 25 00 00 00
	00		 jmp	 DWORD PTR __imp_??1ioHashString@@QAE@XZ
__ehhandler$?ReleaseWeaponSlot@ioCreateChar@@IAEXXZ:
  00009	8b 54 24 08	 mov	 edx, DWORD PTR [esp+8]
  0000d	8d 42 0c	 lea	 eax, DWORD PTR [edx+12]
  00010	8b 4a e0	 mov	 ecx, DWORD PTR [edx-32]
  00013	33 c8		 xor	 ecx, eax
  00015	e8 00 00 00 00	 call	 @__security_check_cookie@4
  0001a	b8 00 00 00 00	 mov	 eax, OFFSET __ehfuncinfo$?ReleaseWeaponSlot@ioCreateChar@@IAEXXZ
  0001f	e9 00 00 00 00	 jmp	 ___CxxFrameHandler3
text$x	ENDS
?ReleaseWeaponSlot@ioCreateChar@@IAEXXZ ENDP		; ioCreateChar::ReleaseWeaponSlot
PUBLIC	?ReleaseArmorSlot@ioCreateChar@@IAEX_N@Z	; ioCreateChar::ReleaseArmorSlot
EXTRN	__imp_?RemoveRopeSpringCurve@ioEntityGroup@@QAE_NABVioHashString@@@Z:PROC
EXTRN	?HasSpringRope@ioCloakItem@@QBE_NXZ:PROC	; ioCloakItem::HasSpringRope
EXTRN	?HasSpringRope@ioHelmetItem@@QBE_NXZ:PROC	; ioHelmetItem::HasSpringRope
EXTRN	?GetSpringParam@ioArmorItem@@QBEPBURopeSpringParam@@XZ:PROC ; ioArmorItem::GetSpringParam
EXTRN	?GetSpringBiped@ioArmorItem@@QBEABVioHashString@@XZ:PROC ; ioArmorItem::GetSpringBiped
EXTRN	?HasSpringRope@ioArmorItem@@QBE_NXZ:PROC	; ioArmorItem::HasSpringRope
EXTRN	?GetHandMesh@ioArmorItem@@QBEABVioHashString@@PAVioBaseChar@@@Z:PROC ; ioArmorItem::GetHandMesh
EXTRN	?GetBodyMesh@ioArmorItem@@QBEABVioHashString@@PAVioBaseChar@@@Z:PROC ; ioArmorItem::GetBodyMesh
;	COMDAT xdata$x
xdata$x	SEGMENT
__ehfuncinfo$?ReleaseArmorSlot@ioCreateChar@@IAEX_N@Z DD 019930522H
	DD	05H
	DD	FLAT:__unwindtable$?ReleaseArmorSlot@ioCreateChar@@IAEX_N@Z
	DD	2 DUP(00H)
	DD	2 DUP(00H)
	DD	00H
	DD	01H
__unwindtable$?ReleaseArmorSlot@ioCreateChar@@IAEX_N@Z DD 0ffffffffH
	DD	FLAT:__unwindfunclet$?ReleaseArmorSlot@ioCreateChar@@IAEX_N@Z$0
	DD	00H
	DD	FLAT:__unwindfunclet$?ReleaseArmorSlot@ioCreateChar@@IAEX_N@Z$1
	DD	01H
	DD	FLAT:__unwindfunclet$?ReleaseArmorSlot@ioCreateChar@@IAEX_N@Z$2
	DD	02H
	DD	FLAT:__unwindfunclet$?ReleaseArmorSlot@ioCreateChar@@IAEX_N@Z$3
	DD	02H
	DD	FLAT:__unwindfunclet$?ReleaseArmorSlot@ioCreateChar@@IAEX_N@Z$4
; Function compile flags: /Ogsp
xdata$x	ENDS
;	COMDAT ?ReleaseArmorSlot@ioCreateChar@@IAEX_N@Z
_TEXT	SEGMENT
$T574562 = -104						; size = 16
_szSpringRope$ = -88					; size = 16
_szEquipEffect$ = -72					; size = 16
_szBodyMesh$ = -56					; size = 16
_szHandMesh$ = -40					; size = 16
_pCheckCloak$566987 = -24				; size = 4
_pCheckHelmet$566986 = -20				; size = 4
_pArmor$ = -20						; size = 4
_bCloaktHas$566989 = -13				; size = 1
__$EHRec$ = -12						; size = 12
_pSpringParam$ = 8					; size = 4
_bDefault$ = 8						; size = 1
_bHelmetHas$566988 = 11					; size = 1
?ReleaseArmorSlot@ioCreateChar@@IAEX_N@Z PROC		; ioCreateChar::ReleaseArmorSlot, COMDAT
; _this$ = ecx

; 1043 : {

  00000	6a 5c		 push	 92			; 0000005cH
  00002	b8 00 00 00 00	 mov	 eax, __ehhandler$?ReleaseArmorSlot@ioCreateChar@@IAEX_N@Z
  00007	e8 00 00 00 00	 call	 __EH_prolog3
  0000c	8b f1		 mov	 esi, ecx

; 1044 : 	const CostumeInfo *PreArmorCostume = &m_CostumeSlot[CCS_ARMOR];

  0000e	8d be 14 03 00
	00		 lea	 edi, DWORD PTR [esi+788]

; 1045 : 	if ( !PreArmorCostume )

  00014	85 ff		 test	 edi, edi
  00016	0f 84 c3 02 00
	00		 je	 $LN26@ReleaseArm

; 1046 : 		return;
; 1047 : 
; 1048 : 	const ioArmorItem *pArmor = ToArmorItemConst( GetSlotItem( CCS_ARMOR ) );

  0001c	6a 01		 push	 1
  0001e	e8 00 00 00 00	 call	 ?GetSlotItem@ioCreateChar@@QAEPBVioItem@@H@Z ; ioCreateChar::GetSlotItem
  00023	50		 push	 eax
  00024	e8 00 00 00 00	 call	 ?ToArmorItemConst@@YAPBVioArmorItem@@PBVioItem@@@Z ; ToArmorItemConst
  00029	59		 pop	 ecx

; 1049 : 	ReleaseSlotData( CCS_ARMOR );

  0002a	6a 01		 push	 1
  0002c	8b ce		 mov	 ecx, esi
  0002e	89 45 ec	 mov	 DWORD PTR _pArmor$[ebp], eax
  00031	e8 00 00 00 00	 call	 ?ReleaseSlotData@ioCreateChar@@IAEXH@Z ; ioCreateChar::ReleaseSlotData

; 1050 : 	
; 1051 : 	ioHashString szEquipEffect;

  00036	8b 1d 00 00 00
	00		 mov	 ebx, DWORD PTR __imp_??0ioHashString@@QAE@XZ
  0003c	8d 4d b8	 lea	 ecx, DWORD PTR _szEquipEffect$[ebp]
  0003f	ff d3		 call	 ebx
  00041	83 65 fc 00	 and	 DWORD PTR __$EHRec$[ebp+8], 0

; 1052 : 	ioHashString szBodyMesh;

  00045	8d 4d c8	 lea	 ecx, DWORD PTR _szBodyMesh$[ebp]
  00048	ff d3		 call	 ebx

; 1053 : 	ioHashString szHandMesh;

  0004a	8d 4d d8	 lea	 ecx, DWORD PTR _szHandMesh$[ebp]
  0004d	c6 45 fc 01	 mov	 BYTE PTR __$EHRec$[ebp+8], 1
  00051	ff d3		 call	 ebx

; 1054 : 
; 1055 : 	if ( PreArmorCostume->m_nCostumeCode > 0 )

  00053	83 3f 00	 cmp	 DWORD PTR [edi], 0
  00056	8b 3d 00 00 00
	00		 mov	 edi, DWORD PTR __imp_??4ioHashString@@QAEAAV0@ABV0@@Z
  0005c	c6 45 fc 02	 mov	 BYTE PTR __$EHRec$[ebp+8], 2
  00060	7e 3d		 jle	 SHORT $LN24@ReleaseArm

; 1056 : 	{
; 1057 : 		szEquipEffect = GetCostumeEffect( PreArmorCostume );

  00062	8d 86 14 03 00
	00		 lea	 eax, DWORD PTR [esi+788]
  00068	50		 push	 eax
  00069	8d 45 98	 lea	 eax, DWORD PTR $T574562[ebp]
  0006c	50		 push	 eax
  0006d	8b ce		 mov	 ecx, esi
  0006f	e8 00 00 00 00	 call	 ?GetCostumeEffect@ioCreateChar@@QAE?AVioHashString@@PBUtagCostumeInfo@@@Z ; ioCreateChar::GetCostumeEffect
  00074	50		 push	 eax
  00075	8d 4d b8	 lea	 ecx, DWORD PTR _szEquipEffect$[ebp]
  00078	c6 45 fc 03	 mov	 BYTE PTR __$EHRec$[ebp+8], 3
  0007c	ff d7		 call	 edi
  0007e	8d 4d 98	 lea	 ecx, DWORD PTR $T574562[ebp]
  00081	c6 45 fc 02	 mov	 BYTE PTR __$EHRec$[ebp+8], 2
  00085	ff 15 00 00 00
	00		 call	 DWORD PTR __imp_??1ioHashString@@QAE@XZ

; 1058 : 		szBodyMesh = PreArmorCostume->m_szBodyMesh;

  0008b	8d 86 64 03 00
	00		 lea	 eax, DWORD PTR [esi+868]
  00091	50		 push	 eax
  00092	8d 4d c8	 lea	 ecx, DWORD PTR _szBodyMesh$[ebp]
  00095	ff d7		 call	 edi

; 1059 : 		szHandMesh = PreArmorCostume->m_szHandMesh;

  00097	8d 86 74 03 00
	00		 lea	 eax, DWORD PTR [esi+884]
  0009d	eb 31		 jmp	 SHORT $LN38@ReleaseArm
$LN24@ReleaseArm:

; 1060 : 	}
; 1061 : 	else if ( pArmor )

  0009f	8b 4d ec	 mov	 ecx, DWORD PTR _pArmor$[ebp]
  000a2	85 c9		 test	 ecx, ecx
  000a4	74 30		 je	 SHORT $LN22@ReleaseArm

; 1062 : 	{
; 1063 : 		szEquipEffect = pArmor->GetItemEquipEffect( m_bMale );

  000a6	0f b6 46 1c	 movzx	 eax, BYTE PTR [esi+28]
  000aa	50		 push	 eax
  000ab	e8 00 00 00 00	 call	 ?GetItemEquipEffect@ioItem@@QBEABVioHashString@@_N@Z ; ioItem::GetItemEquipEffect
  000b0	50		 push	 eax
  000b1	8d 4d b8	 lea	 ecx, DWORD PTR _szEquipEffect$[ebp]
  000b4	ff d7		 call	 edi

; 1064 : 		szBodyMesh = pArmor->GetBodyMesh(NULL);

  000b6	8b 4d ec	 mov	 ecx, DWORD PTR _pArmor$[ebp]
  000b9	6a 00		 push	 0
  000bb	e8 00 00 00 00	 call	 ?GetBodyMesh@ioArmorItem@@QBEABVioHashString@@PAVioBaseChar@@@Z ; ioArmorItem::GetBodyMesh
  000c0	50		 push	 eax
  000c1	8d 4d c8	 lea	 ecx, DWORD PTR _szBodyMesh$[ebp]
  000c4	ff d7		 call	 edi

; 1065 : 		szHandMesh = pArmor->GetHandMesh(NULL);

  000c6	8b 4d ec	 mov	 ecx, DWORD PTR _pArmor$[ebp]
  000c9	6a 00		 push	 0
  000cb	e8 00 00 00 00	 call	 ?GetHandMesh@ioArmorItem@@QBEABVioHashString@@PAVioBaseChar@@@Z ; ioArmorItem::GetHandMesh
$LN38@ReleaseArm:
  000d0	50		 push	 eax
  000d1	8d 4d d8	 lea	 ecx, DWORD PTR _szHandMesh$[ebp]
  000d4	ff d7		 call	 edi
$LN22@ReleaseArm:

; 1066 : 	}
; 1067 : 
; 1068 : 	if( !szEquipEffect.IsEmpty() )

  000d6	8d 4d b8	 lea	 ecx, DWORD PTR _szEquipEffect$[ebp]
  000d9	ff 15 00 00 00
	00		 call	 DWORD PTR __imp_?IsEmpty@ioHashString@@QBE_NXZ
  000df	84 c0		 test	 al, al
  000e1	75 1a		 jne	 SHORT $LN21@ReleaseArm

; 1069 : 	{
; 1070 : 		m_pGrp->EndEffect( szEquipEffect, false );

  000e3	8b 4e 04	 mov	 ecx, DWORD PTR [esi+4]
  000e6	6a 01		 push	 1
  000e8	6a 00		 push	 0
  000ea	8d 45 b8	 lea	 eax, DWORD PTR _szEquipEffect$[ebp]
  000ed	50		 push	 eax
  000ee	ff 15 00 00 00
	00		 call	 DWORD PTR __imp_?EndEffect@ioEntityGroup@@QAEXABVioHashString@@_N1@Z

; 1071 : 		szEquipEffect.Clear();

  000f4	8d 4d b8	 lea	 ecx, DWORD PTR _szEquipEffect$[ebp]
  000f7	ff 15 00 00 00
	00		 call	 DWORD PTR __imp_?Clear@ioHashString@@QAEXXZ
$LN21@ReleaseArm:

; 1072 : 	}
; 1073 : 
; 1074 : 	if ( !szBodyMesh.IsEmpty() )

  000fd	8d 4d c8	 lea	 ecx, DWORD PTR _szBodyMesh$[ebp]
  00100	ff 15 00 00 00
	00		 call	 DWORD PTR __imp_?IsEmpty@ioHashString@@QBE_NXZ
  00106	84 c0		 test	 al, al
  00108	75 16		 jne	 SHORT $LN20@ReleaseArm

; 1075 : 	{
; 1076 : 		RemoveEntityInOwner( szBodyMesh, true );

  0010a	6a 01		 push	 1
  0010c	8d 45 c8	 lea	 eax, DWORD PTR _szBodyMesh$[ebp]
  0010f	50		 push	 eax
  00110	8b ce		 mov	 ecx, esi
  00112	e8 00 00 00 00	 call	 ?RemoveEntityInOwner@ioCreateChar@@IAE_NABVioHashString@@_N@Z ; ioCreateChar::RemoveEntityInOwner

; 1077 : 		szBodyMesh.Clear();

  00117	8d 4d c8	 lea	 ecx, DWORD PTR _szBodyMesh$[ebp]
  0011a	ff 15 00 00 00
	00		 call	 DWORD PTR __imp_?Clear@ioHashString@@QAEXXZ
$LN20@ReleaseArm:

; 1078 : 	}
; 1079 : 
; 1080 : 	if ( bDefault )

  00120	80 7d 08 00	 cmp	 BYTE PTR _bDefault$[ebp], 0
  00124	74 10		 je	 SHORT $LN19@ReleaseArm

; 1081 : 		AddEntityToOwner( m_DefaultUnderwearMesh );

  00126	6a 00		 push	 0
  00128	8d 86 30 01 00
	00		 lea	 eax, DWORD PTR [esi+304]
  0012e	50		 push	 eax
  0012f	8b ce		 mov	 ecx, esi
  00131	e8 00 00 00 00	 call	 ?AddEntityToOwner@ioCreateChar@@IAEPAVioEntity@@ABVioHashString@@_N@Z ; ioCreateChar::AddEntityToOwner
$LN19@ReleaseArm:

; 1082 : 
; 1083 : 	const ioWeaponItem *pWeapon = ToWeaponItemConst( GetSlotItem( CCS_WEAPON ) );

  00136	6a 00		 push	 0
  00138	8b ce		 mov	 ecx, esi
  0013a	e8 00 00 00 00	 call	 ?GetSlotItem@ioCreateChar@@QAEPBVioItem@@H@Z ; ioCreateChar::GetSlotItem
  0013f	50		 push	 eax
  00140	e8 00 00 00 00	 call	 ?ToWeaponItemConst@@YAPBVioWeaponItem@@PBVioItem@@@Z ; ToWeaponItemConst

; 1084 : 	if( !ToHookItem( pWeapon ) )

  00145	50		 push	 eax
  00146	e8 00 00 00 00	 call	 ?ToHookItem@@YAPBVioHookItem@@PBVioWeaponItem@@@Z ; ToHookItem
  0014b	59		 pop	 ecx
  0014c	59		 pop	 ecx
  0014d	85 c0		 test	 eax, eax
  0014f	75 37		 jne	 SHORT $LN16@ReleaseArm

; 1085 : 	{
; 1086 : 		if ( bDefault )

  00151	38 45 08	 cmp	 BYTE PTR _bDefault$[ebp], al
  00154	74 0f		 je	 SHORT $LN17@ReleaseArm

; 1087 : 			AddEntityToOwner( m_DefaultHandMesh );

  00156	50		 push	 eax
  00157	8d 86 70 01 00
	00		 lea	 eax, DWORD PTR [esi+368]
  0015d	50		 push	 eax
  0015e	8b ce		 mov	 ecx, esi
  00160	e8 00 00 00 00	 call	 ?AddEntityToOwner@ioCreateChar@@IAEPAVioEntity@@ABVioHashString@@_N@Z ; ioCreateChar::AddEntityToOwner
$LN17@ReleaseArm:

; 1088 : 
; 1089 : 		if ( !szHandMesh.IsEmpty() )

  00165	8d 4d d8	 lea	 ecx, DWORD PTR _szHandMesh$[ebp]
  00168	ff 15 00 00 00
	00		 call	 DWORD PTR __imp_?IsEmpty@ioHashString@@QBE_NXZ
  0016e	84 c0		 test	 al, al
  00170	75 16		 jne	 SHORT $LN16@ReleaseArm

; 1090 : 		{
; 1091 : 			RemoveEntityInOwner( szHandMesh, true );

  00172	6a 01		 push	 1
  00174	8d 45 d8	 lea	 eax, DWORD PTR _szHandMesh$[ebp]
  00177	50		 push	 eax
  00178	8b ce		 mov	 ecx, esi
  0017a	e8 00 00 00 00	 call	 ?RemoveEntityInOwner@ioCreateChar@@IAE_NABVioHashString@@_N@Z ; ioCreateChar::RemoveEntityInOwner

; 1092 : 			szHandMesh.Clear();

  0017f	8d 4d d8	 lea	 ecx, DWORD PTR _szHandMesh$[ebp]
  00182	ff 15 00 00 00
	00		 call	 DWORD PTR __imp_?Clear@ioHashString@@QAEXXZ
$LN16@ReleaseArm:

; 1093 : 		}
; 1094 : 	}
; 1095 : 
; 1096 : 	//  
; 1097 : 	ioHashString szSpringRope;

  00188	8d 4d a8	 lea	 ecx, DWORD PTR _szSpringRope$[ebp]
  0018b	ff d3		 call	 ebx

; 1098 : 	const RopeSpringParam *pSpringParam = NULL;

  0018d	83 65 08 00	 and	 DWORD PTR _pSpringParam$[ebp], 0

; 1099 : 
; 1100 : 	if ( PreArmorCostume->m_nCostumeCode > 0 )

  00191	83 be 14 03 00
	00 00		 cmp	 DWORD PTR [esi+788], 0
  00198	c6 45 fc 04	 mov	 BYTE PTR __$EHRec$[ebp+8], 4
  0019c	7e 14		 jle	 SHORT $LN15@ReleaseArm

; 1101 : 	{
; 1102 : 		szSpringRope = PreArmorCostume->m_szSpring_Biped;

  0019e	8d 86 4c 03 00
	00		 lea	 eax, DWORD PTR [esi+844]
  001a4	50		 push	 eax
  001a5	8d 4d a8	 lea	 ecx, DWORD PTR _szSpringRope$[ebp]
  001a8	ff d7		 call	 edi

; 1103 : 		pSpringParam = PreArmorCostume->m_pCostumeSpringParam;		

  001aa	8b 86 b8 03 00
	00		 mov	 eax, DWORD PTR [esi+952]
  001b0	eb 26		 jmp	 SHORT $LN39@ReleaseArm
$LN15@ReleaseArm:

; 1104 : 	}
; 1105 : 	else if( pArmor && pArmor->HasSpringRope() )

  001b2	8b 5d ec	 mov	 ebx, DWORD PTR _pArmor$[ebp]
  001b5	85 db		 test	 ebx, ebx
  001b7	74 22		 je	 SHORT $LN13@ReleaseArm
  001b9	8b cb		 mov	 ecx, ebx
  001bb	e8 00 00 00 00	 call	 ?HasSpringRope@ioArmorItem@@QBE_NXZ ; ioArmorItem::HasSpringRope
  001c0	84 c0		 test	 al, al
  001c2	74 17		 je	 SHORT $LN13@ReleaseArm

; 1106 : 	{
; 1107 : 		szSpringRope = pArmor->GetSpringBiped();

  001c4	8b cb		 mov	 ecx, ebx
  001c6	e8 00 00 00 00	 call	 ?GetSpringBiped@ioArmorItem@@QBEABVioHashString@@XZ ; ioArmorItem::GetSpringBiped
  001cb	50		 push	 eax
  001cc	8d 4d a8	 lea	 ecx, DWORD PTR _szSpringRope$[ebp]
  001cf	ff d7		 call	 edi

; 1108 : 		pSpringParam = pArmor->GetSpringParam();

  001d1	8b cb		 mov	 ecx, ebx
  001d3	e8 00 00 00 00	 call	 ?GetSpringParam@ioArmorItem@@QBEPBURopeSpringParam@@XZ ; ioArmorItem::GetSpringParam
$LN39@ReleaseArm:
  001d8	89 45 08	 mov	 DWORD PTR _pSpringParam$[ebp], eax
$LN13@ReleaseArm:

; 1109 : 	}
; 1110 : 
; 1111 : 	if ( !szSpringRope.IsEmpty() && pSpringParam )

  001db	8d 4d a8	 lea	 ecx, DWORD PTR _szSpringRope$[ebp]
  001de	ff 15 00 00 00
	00		 call	 DWORD PTR __imp_?IsEmpty@ioHashString@@QBE_NXZ
  001e4	84 c0		 test	 al, al
  001e6	0f 85 c9 00 00
	00		 jne	 $LN1@ReleaseArm
  001ec	83 7d 08 00	 cmp	 DWORD PTR _pSpringParam$[ebp], 0
  001f0	0f 84 bf 00 00
	00		 je	 $LN1@ReleaseArm

; 1112 : 	{
; 1113 : 		const CostumeInfo *pCheckHelmetCostume = &m_CostumeSlot[CCS_HELMET];
; 1114 : 		const CostumeInfo *pCheckCloakCostume = &m_CostumeSlot[CCS_CLOAK];
; 1115 : 
; 1116 : 		const ioHelmetItem *pCheckHelmet = ToHelmetItemConst( GetSlotItem( CCS_HELMET ) );

  001f6	6a 02		 push	 2
  001f8	8b ce		 mov	 ecx, esi
  001fa	8d be f0 03 00
	00		 lea	 edi, DWORD PTR [esi+1008]
  00200	8d 9e cc 04 00
	00		 lea	 ebx, DWORD PTR [esi+1228]
  00206	e8 00 00 00 00	 call	 ?GetSlotItem@ioCreateChar@@QAEPBVioItem@@H@Z ; ioCreateChar::GetSlotItem
  0020b	50		 push	 eax
  0020c	e8 00 00 00 00	 call	 ?ToHelmetItemConst@@YAPBVioHelmetItem@@PBVioItem@@@Z ; ToHelmetItemConst
  00211	59		 pop	 ecx

; 1117 : 		const ioCloakItem *pCheckCloak = ToCloakItemConst( GetSlotItem( CCS_CLOAK ) );

  00212	6a 03		 push	 3
  00214	8b ce		 mov	 ecx, esi
  00216	89 45 ec	 mov	 DWORD PTR _pCheckHelmet$566986[ebp], eax
  00219	e8 00 00 00 00	 call	 ?GetSlotItem@ioCreateChar@@QAEPBVioItem@@H@Z ; ioCreateChar::GetSlotItem
  0021e	50		 push	 eax
  0021f	e8 00 00 00 00	 call	 ?ToCloakItemConst@@YAPBVioCloakItem@@PBVioItem@@@Z ; ToCloakItemConst
  00224	59		 pop	 ecx
  00225	89 45 e8	 mov	 DWORD PTR _pCheckCloak$566987[ebp], eax

; 1118 : 
; 1119 : 		bool bHelmetHas = true;

  00228	c6 45 0b 01	 mov	 BYTE PTR _bHelmetHas$566988[ebp], 1

; 1120 : 		bool bCloaktHas = true;

  0022c	c6 45 f3 01	 mov	 BYTE PTR _bCloaktHas$566989[ebp], 1

; 1121 : 
; 1122 : 		if ( pCheckHelmetCostume && pCheckHelmetCostume->m_nCostumeCode > 0 && 
; 1123 : 			( pCheckHelmetCostume->m_szSpring_Biped.IsEmpty() || !pCheckHelmetCostume->m_pCostumeSpringParam ) )

  00230	85 ff		 test	 edi, edi
  00232	74 1b		 je	 SHORT $LN11@ReleaseArm
  00234	83 3f 00	 cmp	 DWORD PTR [edi], 0
  00237	7e 16		 jle	 SHORT $LN11@ReleaseArm
  00239	8d 4f 38	 lea	 ecx, DWORD PTR [edi+56]
  0023c	ff 15 00 00 00
	00		 call	 DWORD PTR __imp_?IsEmpty@ioHashString@@QBE_NXZ
  00242	84 c0		 test	 al, al
  00244	75 19		 jne	 SHORT $LN7@ReleaseArm
  00246	83 bf a4 00 00
	00 00		 cmp	 DWORD PTR [edi+164], 0

; 1124 : 			bHelmetHas = false;

  0024d	74 10		 je	 SHORT $LN7@ReleaseArm
$LN11@ReleaseArm:

; 1125 : 		else if( !pCheckHelmet || !pCheckHelmet->HasSpringRope() )

  0024f	8b 4d ec	 mov	 ecx, DWORD PTR _pCheckHelmet$566986[ebp]
  00252	85 c9		 test	 ecx, ecx
  00254	74 09		 je	 SHORT $LN7@ReleaseArm
  00256	e8 00 00 00 00	 call	 ?HasSpringRope@ioHelmetItem@@QBE_NXZ ; ioHelmetItem::HasSpringRope
  0025b	84 c0		 test	 al, al
  0025d	75 04		 jne	 SHORT $LN8@ReleaseArm
$LN7@ReleaseArm:

; 1126 : 			bHelmetHas = false;

  0025f	c6 45 0b 00	 mov	 BYTE PTR _bHelmetHas$566988[ebp], 0
$LN8@ReleaseArm:

; 1127 : 
; 1128 : 		if ( pCheckCloakCostume && pCheckCloakCostume->m_nCostumeCode > 0 && 
; 1129 : 			( pCheckCloakCostume->m_szSpring_Biped.IsEmpty() || !pCheckCloakCostume->m_pCostumeSpringParam ) )

  00263	85 db		 test	 ebx, ebx
  00265	74 1b		 je	 SHORT $LN6@ReleaseArm
  00267	83 3b 00	 cmp	 DWORD PTR [ebx], 0
  0026a	7e 16		 jle	 SHORT $LN6@ReleaseArm
  0026c	8d 4b 38	 lea	 ecx, DWORD PTR [ebx+56]
  0026f	ff 15 00 00 00
	00		 call	 DWORD PTR __imp_?IsEmpty@ioHashString@@QBE_NXZ
  00275	84 c0		 test	 al, al
  00277	75 19		 jne	 SHORT $LN2@ReleaseArm
  00279	83 bb a4 00 00
	00 00		 cmp	 DWORD PTR [ebx+164], 0

; 1130 : 			bCloaktHas = false;

  00280	74 10		 je	 SHORT $LN2@ReleaseArm
$LN6@ReleaseArm:

; 1131 : 		else if( !pCheckCloak || !pCheckCloak->HasSpringRope() )

  00282	8b 4d e8	 mov	 ecx, DWORD PTR _pCheckCloak$566987[ebp]
  00285	85 c9		 test	 ecx, ecx
  00287	74 09		 je	 SHORT $LN2@ReleaseArm
  00289	e8 00 00 00 00	 call	 ?HasSpringRope@ioCloakItem@@QBE_NXZ ; ioCloakItem::HasSpringRope
  0028e	84 c0		 test	 al, al
  00290	75 04		 jne	 SHORT $LN3@ReleaseArm
$LN2@ReleaseArm:

; 1132 : 			bCloaktHas = false;

  00292	c6 45 f3 00	 mov	 BYTE PTR _bCloaktHas$566989[ebp], 0
$LN3@ReleaseArm:

; 1133 : 
; 1134 : 		if( m_pGrp && !bHelmetHas && !bCloaktHas )

  00296	8b 76 04	 mov	 esi, DWORD PTR [esi+4]
  00299	85 f6		 test	 esi, esi
  0029b	74 18		 je	 SHORT $LN1@ReleaseArm
  0029d	80 7d 0b 00	 cmp	 BYTE PTR _bHelmetHas$566988[ebp], 0
  002a1	75 12		 jne	 SHORT $LN1@ReleaseArm
  002a3	80 7d f3 00	 cmp	 BYTE PTR _bCloaktHas$566989[ebp], 0
  002a7	75 0c		 jne	 SHORT $LN1@ReleaseArm

; 1135 : 		{
; 1136 : 			m_pGrp->RemoveRopeSpringCurve( szSpringRope );

  002a9	8d 45 a8	 lea	 eax, DWORD PTR _szSpringRope$[ebp]
  002ac	50		 push	 eax
  002ad	8b ce		 mov	 ecx, esi
  002af	ff 15 00 00 00
	00		 call	 DWORD PTR __imp_?RemoveRopeSpringCurve@ioEntityGroup@@QAE_NABVioHashString@@@Z
$LN1@ReleaseArm:

; 1137 : 		}
; 1138 : 	}
; 1139 : }

  002b5	8b 35 00 00 00
	00		 mov	 esi, DWORD PTR __imp_??1ioHashString@@QAE@XZ
  002bb	8d 4d a8	 lea	 ecx, DWORD PTR _szSpringRope$[ebp]
  002be	c6 45 fc 02	 mov	 BYTE PTR __$EHRec$[ebp+8], 2
  002c2	ff d6		 call	 esi
  002c4	8d 4d d8	 lea	 ecx, DWORD PTR _szHandMesh$[ebp]
  002c7	c6 45 fc 01	 mov	 BYTE PTR __$EHRec$[ebp+8], 1
  002cb	ff d6		 call	 esi
  002cd	8d 4d c8	 lea	 ecx, DWORD PTR _szBodyMesh$[ebp]
  002d0	c6 45 fc 00	 mov	 BYTE PTR __$EHRec$[ebp+8], 0
  002d4	ff d6		 call	 esi
  002d6	83 4d fc ff	 or	 DWORD PTR __$EHRec$[ebp+8], -1
  002da	8d 4d b8	 lea	 ecx, DWORD PTR _szEquipEffect$[ebp]
  002dd	ff d6		 call	 esi
$LN26@ReleaseArm:
  002df	e8 00 00 00 00	 call	 __EH_epilog3
  002e4	c2 04 00	 ret	 4
_TEXT	ENDS
;	COMDAT text$x
text$x	SEGMENT
__unwindfunclet$?ReleaseArmorSlot@ioCreateChar@@IAEX_N@Z$0:
  00000	8d 4d b8	 lea	 ecx, DWORD PTR _szEquipEffect$[ebp]
  00003	ff 25 00 00 00
	00		 jmp	 DWORD PTR __imp_??1ioHashString@@QAE@XZ
__unwindfunclet$?ReleaseArmorSlot@ioCreateChar@@IAEX_N@Z$1:
  00009	8d 4d c8	 lea	 ecx, DWORD PTR _szBodyMesh$[ebp]
  0000c	ff 25 00 00 00
	00		 jmp	 DWORD PTR __imp_??1ioHashString@@QAE@XZ
__unwindfunclet$?ReleaseArmorSlot@ioCreateChar@@IAEX_N@Z$2:
  00012	8d 4d d8	 lea	 ecx, DWORD PTR _szHandMesh$[ebp]
  00015	ff 25 00 00 00
	00		 jmp	 DWORD PTR __imp_??1ioHashString@@QAE@XZ
__unwindfunclet$?ReleaseArmorSlot@ioCreateChar@@IAEX_N@Z$3:
  0001b	8d 4d 98	 lea	 ecx, DWORD PTR $T574562[ebp]
  0001e	ff 25 00 00 00
	00		 jmp	 DWORD PTR __imp_??1ioHashString@@QAE@XZ
__unwindfunclet$?ReleaseArmorSlot@ioCreateChar@@IAEX_N@Z$4:
  00024	8d 4d a8	 lea	 ecx, DWORD PTR _szSpringRope$[ebp]
  00027	ff 25 00 00 00
	00		 jmp	 DWORD PTR __imp_??1ioHashString@@QAE@XZ
__ehhandler$?ReleaseArmorSlot@ioCreateChar@@IAEX_N@Z:
  0002d	8b 54 24 08	 mov	 edx, DWORD PTR [esp+8]
  00031	8d 42 0c	 lea	 eax, DWORD PTR [edx+12]
  00034	8b 4a 94	 mov	 ecx, DWORD PTR [edx-108]
  00037	33 c8		 xor	 ecx, eax
  00039	e8 00 00 00 00	 call	 @__security_check_cookie@4
  0003e	b8 00 00 00 00	 mov	 eax, OFFSET __ehfuncinfo$?ReleaseArmorSlot@ioCreateChar@@IAEX_N@Z
  00043	e9 00 00 00 00	 jmp	 ___CxxFrameHandler3
text$x	ENDS
?ReleaseArmorSlot@ioCreateChar@@IAEX_N@Z ENDP		; ioCreateChar::ReleaseArmorSlot
PUBLIC	?ReleaseHelmetSlot@ioCreateChar@@IAEX_N@Z	; ioCreateChar::ReleaseHelmetSlot
EXTRN	?GetSpringParam@ioHelmetItem@@QBEPBURopeSpringParam@@XZ:PROC ; ioHelmetItem::GetSpringParam
EXTRN	?GetSpringBiped@ioHelmetItem@@QBEABVioHashString@@XZ:PROC ; ioHelmetItem::GetSpringBiped
EXTRN	?GetEquipMesh@ioHelmetItem@@QBEABVioHashString@@PAVioBaseChar@@@Z:PROC ; ioHelmetItem::GetEquipMesh
;	COMDAT xdata$x
; File d:\lost saga for developer\youtube\tutorial\source\src\lsclient\iocreatechar.h
xdata$x	SEGMENT
__unwindtable$?ReleaseHelmetSlot@ioCreateChar@@IAEX_N@Z DD 0ffffffffH
	DD	FLAT:__unwindfunclet$?ReleaseHelmetSlot@ioCreateChar@@IAEX_N@Z$0
	DD	00H
	DD	FLAT:__unwindfunclet$?ReleaseHelmetSlot@ioCreateChar@@IAEX_N@Z$1
	DD	01H
	DD	FLAT:__unwindfunclet$?ReleaseHelmetSlot@ioCreateChar@@IAEX_N@Z$2
	DD	01H
	DD	FLAT:__unwindfunclet$?ReleaseHelmetSlot@ioCreateChar@@IAEX_N@Z$3
__ehfuncinfo$?ReleaseHelmetSlot@ioCreateChar@@IAEX_N@Z DD 019930522H
	DD	04H
	DD	FLAT:__unwindtable$?ReleaseHelmetSlot@ioCreateChar@@IAEX_N@Z
	DD	2 DUP(00H)
	DD	2 DUP(00H)
	DD	00H
	DD	01H
; Function compile flags: /Ogsp
; File d:\lost saga for developer\youtube\tutorial\source\src\lsclient\iocreatechar.cpp
xdata$x	ENDS
;	COMDAT ?ReleaseHelmetSlot@ioCreateChar@@IAEX_N@Z
_TEXT	SEGMENT
$T574582 = -96						; size = 16
_szSpringRope$ = -80					; size = 16
_szEquipEffect$ = -64					; size = 16
_szHelmetMesh$ = -48					; size = 16
_eInvisibleFaceType$ = -32				; size = 4
_pCheckArmor$567054 = -28				; size = 4
_eFaceType$ = -28					; size = 4
_pCheckCloak$567055 = -24				; size = 4
_eHairType$ = -24					; size = 4
_pHelmet$ = -20						; size = 4
_bCloaktHas$567057 = -13				; size = 1
__$EHRec$ = -12						; size = 12
_pSpringParam$ = 8					; size = 4
_bDefault$ = 8						; size = 1
_bArmorHas$567056 = 11					; size = 1
?ReleaseHelmetSlot@ioCreateChar@@IAEX_N@Z PROC		; ioCreateChar::ReleaseHelmetSlot, COMDAT
; _this$ = ecx

; 1142 : {

  00000	6a 54		 push	 84			; 00000054H
  00002	b8 00 00 00 00	 mov	 eax, __ehhandler$?ReleaseHelmetSlot@ioCreateChar@@IAEX_N@Z
  00007	e8 00 00 00 00	 call	 __EH_prolog3
  0000c	8b f1		 mov	 esi, ecx

; 1143 : 	const CostumeInfo *PreHelmetCostume = &m_CostumeSlot[CCS_HELMET];

  0000e	8d be f0 03 00
	00		 lea	 edi, DWORD PTR [esi+1008]

; 1144 : 	if ( !PreHelmetCostume )

  00014	85 ff		 test	 edi, edi
  00016	0f 84 73 03 00
	00		 je	 $LN47@ReleaseHel

; 1145 : 		return;
; 1146 : 
; 1147 : 	const ioHelmetItem *pHelmet = ToHelmetItemConst( GetSlotItem( CCS_HELMET ) );

  0001c	6a 02		 push	 2
  0001e	e8 00 00 00 00	 call	 ?GetSlotItem@ioCreateChar@@QAEPBVioItem@@H@Z ; ioCreateChar::GetSlotItem
  00023	50		 push	 eax
  00024	e8 00 00 00 00	 call	 ?ToHelmetItemConst@@YAPBVioHelmetItem@@PBVioItem@@@Z ; ToHelmetItemConst
  00029	59		 pop	 ecx

; 1148 : 	ReleaseSlotData( CCS_HELMET );

  0002a	6a 02		 push	 2
  0002c	8b ce		 mov	 ecx, esi
  0002e	89 45 ec	 mov	 DWORD PTR _pHelmet$[ebp], eax
  00031	e8 00 00 00 00	 call	 ?ReleaseSlotData@ioCreateChar@@IAEXH@Z ; ioCreateChar::ReleaseSlotData

; 1149 : 
; 1150 : 	ioHashString szEquipEffect;

  00036	8b 1d 00 00 00
	00		 mov	 ebx, DWORD PTR __imp_??0ioHashString@@QAE@XZ
  0003c	8d 4d c0	 lea	 ecx, DWORD PTR _szEquipEffect$[ebp]
  0003f	ff d3		 call	 ebx
  00041	83 65 fc 00	 and	 DWORD PTR __$EHRec$[ebp+8], 0

; 1151 : 	ioHashString szHelmetMesh;

  00045	8d 4d d0	 lea	 ecx, DWORD PTR _szHelmetMesh$[ebp]
  00048	ff d3		 call	 ebx

; 1152 : 
; 1153 : 	if ( PreHelmetCostume->m_nCostumeCode > 0 )

  0004a	83 3f 00	 cmp	 DWORD PTR [edi], 0
  0004d	8b 1d 00 00 00
	00		 mov	 ebx, DWORD PTR __imp_??4ioHashString@@QAEAAV0@ABV0@@Z
  00053	c6 45 fc 01	 mov	 BYTE PTR __$EHRec$[ebp+8], 1
  00057	7e 2b		 jle	 SHORT $LN45@ReleaseHel

; 1154 : 	{
; 1155 : 		szEquipEffect = GetCostumeEffect( PreHelmetCostume );

  00059	57		 push	 edi
  0005a	8d 45 a0	 lea	 eax, DWORD PTR $T574582[ebp]
  0005d	50		 push	 eax
  0005e	8b ce		 mov	 ecx, esi
  00060	e8 00 00 00 00	 call	 ?GetCostumeEffect@ioCreateChar@@QAE?AVioHashString@@PBUtagCostumeInfo@@@Z ; ioCreateChar::GetCostumeEffect
  00065	50		 push	 eax
  00066	8d 4d c0	 lea	 ecx, DWORD PTR _szEquipEffect$[ebp]
  00069	c6 45 fc 02	 mov	 BYTE PTR __$EHRec$[ebp+8], 2
  0006d	ff d3		 call	 ebx
  0006f	8d 4d a0	 lea	 ecx, DWORD PTR $T574582[ebp]
  00072	c6 45 fc 01	 mov	 BYTE PTR __$EHRec$[ebp+8], 1
  00076	ff 15 00 00 00
	00		 call	 DWORD PTR __imp_??1ioHashString@@QAE@XZ

; 1156 : 		szHelmetMesh = PreHelmetCostume->m_szHelmetMesh;

  0007c	8d 87 84 00 00
	00		 lea	 eax, DWORD PTR [edi+132]
  00082	eb 21		 jmp	 SHORT $LN63@ReleaseHel
$LN45@ReleaseHel:

; 1157 : 	}
; 1158 : 	else if ( pHelmet )

  00084	8b 4d ec	 mov	 ecx, DWORD PTR _pHelmet$[ebp]
  00087	85 c9		 test	 ecx, ecx
  00089	74 20		 je	 SHORT $LN43@ReleaseHel

; 1159 : 	{
; 1160 : 		szEquipEffect = pHelmet->GetItemEquipEffect( m_bMale );

  0008b	0f b6 46 1c	 movzx	 eax, BYTE PTR [esi+28]
  0008f	50		 push	 eax
  00090	e8 00 00 00 00	 call	 ?GetItemEquipEffect@ioItem@@QBEABVioHashString@@_N@Z ; ioItem::GetItemEquipEffect
  00095	50		 push	 eax
  00096	8d 4d c0	 lea	 ecx, DWORD PTR _szEquipEffect$[ebp]
  00099	ff d3		 call	 ebx

; 1161 : 		szHelmetMesh = pHelmet->GetEquipMesh(NULL);

  0009b	8b 4d ec	 mov	 ecx, DWORD PTR _pHelmet$[ebp]
  0009e	6a 00		 push	 0
  000a0	e8 00 00 00 00	 call	 ?GetEquipMesh@ioHelmetItem@@QBEABVioHashString@@PAVioBaseChar@@@Z ; ioHelmetItem::GetEquipMesh
$LN63@ReleaseHel:
  000a5	50		 push	 eax
  000a6	8d 4d d0	 lea	 ecx, DWORD PTR _szHelmetMesh$[ebp]
  000a9	ff d3		 call	 ebx
$LN43@ReleaseHel:

; 1162 : 	}
; 1163 : 
; 1164 : 	if( !szEquipEffect.IsEmpty() )

  000ab	8d 4d c0	 lea	 ecx, DWORD PTR _szEquipEffect$[ebp]
  000ae	ff 15 00 00 00
	00		 call	 DWORD PTR __imp_?IsEmpty@ioHashString@@QBE_NXZ
  000b4	84 c0		 test	 al, al
  000b6	75 1a		 jne	 SHORT $LN42@ReleaseHel

; 1165 : 	{
; 1166 : 		m_pGrp->EndEffect( szEquipEffect, false );

  000b8	8b 4e 04	 mov	 ecx, DWORD PTR [esi+4]
  000bb	6a 01		 push	 1
  000bd	6a 00		 push	 0
  000bf	8d 45 c0	 lea	 eax, DWORD PTR _szEquipEffect$[ebp]
  000c2	50		 push	 eax
  000c3	ff 15 00 00 00
	00		 call	 DWORD PTR __imp_?EndEffect@ioEntityGroup@@QAEXABVioHashString@@_N1@Z

; 1167 : 		szEquipEffect.Clear();

  000c9	8d 4d c0	 lea	 ecx, DWORD PTR _szEquipEffect$[ebp]
  000cc	ff 15 00 00 00
	00		 call	 DWORD PTR __imp_?Clear@ioHashString@@QAEXXZ
$LN42@ReleaseHel:

; 1168 : 	}
; 1169 : 
; 1170 : 	if ( !szHelmetMesh.IsEmpty() )

  000d2	8d 4d d0	 lea	 ecx, DWORD PTR _szHelmetMesh$[ebp]
  000d5	ff 15 00 00 00
	00		 call	 DWORD PTR __imp_?IsEmpty@ioHashString@@QBE_NXZ
  000db	84 c0		 test	 al, al
  000dd	75 16		 jne	 SHORT $LN41@ReleaseHel

; 1171 : 	{
; 1172 : 		RemoveEntityInOwner( szHelmetMesh, true );

  000df	6a 01		 push	 1
  000e1	8d 45 d0	 lea	 eax, DWORD PTR _szHelmetMesh$[ebp]
  000e4	50		 push	 eax
  000e5	8b ce		 mov	 ecx, esi
  000e7	e8 00 00 00 00	 call	 ?RemoveEntityInOwner@ioCreateChar@@IAE_NABVioHashString@@_N@Z ; ioCreateChar::RemoveEntityInOwner

; 1173 : 		szHelmetMesh.Clear();

  000ec	8d 4d d0	 lea	 ecx, DWORD PTR _szHelmetMesh$[ebp]
  000ef	ff 15 00 00 00
	00		 call	 DWORD PTR __imp_?Clear@ioHashString@@QAEXXZ
$LN41@ReleaseHel:

; 1174 : 	}
; 1175 : 	
; 1176 : 	ioHelmetItem::HelmetHair eHairType = ioHelmetItem::HH_NONE; 

  000f5	83 4d e8 ff	 or	 DWORD PTR _eHairType$[ebp], -1

; 1177 : 	ioHelmetItem::HelmetFace eFaceType = ioHelmetItem::HF_NONE;

  000f9	33 c0		 xor	 eax, eax
  000fb	89 45 e4	 mov	 DWORD PTR _eFaceType$[ebp], eax

; 1178 : 	ioHelmetItem::InvisibleFaceType eInvisibleFaceType = ioHelmetItem::IFT_NONE;

  000fe	89 45 e0	 mov	 DWORD PTR _eInvisibleFaceType$[ebp], eax

; 1179 : 	
; 1180 : 	if ( PreHelmetCostume->m_nCostumeCode > 0 )

  00101	39 07		 cmp	 DWORD PTR [edi], eax
  00103	7e 24		 jle	 SHORT $LN40@ReleaseHel

; 1181 : 	{
; 1182 : 		if ( m_bMale )

  00105	38 46 1c	 cmp	 BYTE PTR [esi+28], al
  00108	74 0b		 je	 SHORT $LN39@ReleaseHel

; 1183 : 		{
; 1184 : 			eHairType = (ioHelmetItem::HelmetHair)PreHelmetCostume->m_nHairHM;

  0010a	8b 47 7c	 mov	 eax, DWORD PTR [edi+124]
  0010d	89 45 e8	 mov	 DWORD PTR _eHairType$[ebp], eax

; 1185 : 			eFaceType = (ioHelmetItem::HelmetFace)PreHelmetCostume->m_nFaceHM;

  00110	8b 47 74	 mov	 eax, DWORD PTR [edi+116]

; 1186 : 		}
; 1187 : 		else

  00113	eb 0c		 jmp	 SHORT $LN64@ReleaseHel
$LN39@ReleaseHel:

; 1188 : 		{
; 1189 : 			eHairType = (ioHelmetItem::HelmetHair)PreHelmetCostume->m_nHairHW;

  00115	8b 87 80 00 00
	00		 mov	 eax, DWORD PTR [edi+128]
  0011b	89 45 e8	 mov	 DWORD PTR _eHairType$[ebp], eax

; 1190 : 			eFaceType = (ioHelmetItem::HelmetFace)PreHelmetCostume->m_nFaceHW;

  0011e	8b 47 78	 mov	 eax, DWORD PTR [edi+120]
$LN64@ReleaseHel:
  00121	89 45 e4	 mov	 DWORD PTR _eFaceType$[ebp], eax

; 1191 : 		}
; 1192 : 
; 1193 : 		eInvisibleFaceType = (ioHelmetItem::InvisibleFaceType)PreHelmetCostume->m_nInvisibleFaceType;

  00124	8b 47 70	 mov	 eax, DWORD PTR [edi+112]
  00127	eb 2c		 jmp	 SHORT $LN65@ReleaseHel
$LN40@ReleaseHel:

; 1194 : 	}
; 1195 : 	else if ( pHelmet )

  00129	8b 4d ec	 mov	 ecx, DWORD PTR _pHelmet$[ebp]
  0012c	3b c8		 cmp	 ecx, eax
  0012e	74 28		 je	 SHORT $LN36@ReleaseHel

; 1196 : 	{
; 1197 : 		eHairType = pHelmet->GetChangeHair( m_bMale );

  00130	0f b6 46 1c	 movzx	 eax, BYTE PTR [esi+28]
  00134	50		 push	 eax
  00135	e8 00 00 00 00	 call	 ?GetChangeHair@ioHelmetItem@@QBE?AW4HelmetHair@1@_N@Z ; ioHelmetItem::GetChangeHair

; 1198 : 		eFaceType = pHelmet->GetChangeFace( m_bMale );

  0013a	8b 4d ec	 mov	 ecx, DWORD PTR _pHelmet$[ebp]
  0013d	89 45 e8	 mov	 DWORD PTR _eHairType$[ebp], eax
  00140	0f b6 46 1c	 movzx	 eax, BYTE PTR [esi+28]
  00144	50		 push	 eax
  00145	e8 00 00 00 00	 call	 ?GetChangeFace@ioHelmetItem@@QBE?AW4HelmetFace@1@_N@Z ; ioHelmetItem::GetChangeFace

; 1199 : 		eInvisibleFaceType = pHelmet->GetInvisibleFaceType();

  0014a	8b 4d ec	 mov	 ecx, DWORD PTR _pHelmet$[ebp]
  0014d	89 45 e4	 mov	 DWORD PTR _eFaceType$[ebp], eax
  00150	e8 00 00 00 00	 call	 ?GetInvisibleFaceType@ioHelmetItem@@QBE?AW4InvisibleFaceType@1@XZ ; ioHelmetItem::GetInvisibleFaceType
$LN65@ReleaseHel:
  00155	89 45 e0	 mov	 DWORD PTR _eInvisibleFaceType$[ebp], eax
$LN36@ReleaseHel:

; 1200 : 	}
; 1201 : 
; 1202 : 	switch( eHairType )

  00158	8b 45 e8	 mov	 eax, DWORD PTR _eHairType$[ebp]
  0015b	33 c9		 xor	 ecx, ecx
  0015d	2b c1		 sub	 eax, ecx
  0015f	74 38		 je	 SHORT $LN33@ReleaseHel
  00161	48		 dec	 eax
  00162	74 1f		 je	 SHORT $LN31@ReleaseHel
  00164	48		 dec	 eax
  00165	75 56		 jne	 SHORT $LN34@ReleaseHel

; 1213 : 	case ioHelmetItem::HH_BIND_SKIP:
; 1214 : 		if ( bDefault )

  00167	38 4d 08	 cmp	 BYTE PTR _bDefault$[ebp], cl
  0016a	74 0f		 je	 SHORT $LN28@ReleaseHel

; 1215 : 			AddEntityToOwner( m_DefaultHairMesh );

  0016c	51		 push	 ecx
  0016d	8d 86 40 01 00
	00		 lea	 eax, DWORD PTR [esi+320]
  00173	50		 push	 eax
  00174	8b ce		 mov	 ecx, esi
  00176	e8 00 00 00 00	 call	 ?AddEntityToOwner@ioCreateChar@@IAEPAVioEntity@@ABVioHashString@@_N@Z ; ioCreateChar::AddEntityToOwner
$LN28@ReleaseHel:

; 1216 : 		RemoveEntityInOwner( m_DefaultBindHairMesh );

  0017b	8d 86 50 01 00
	00		 lea	 eax, DWORD PTR [esi+336]

; 1217 : 		break;

  00181	eb 30		 jmp	 SHORT $LN66@ReleaseHel
$LN31@ReleaseHel:

; 1208 : 		break;
; 1209 : 	case ioHelmetItem::HH_ALL_SKIP:
; 1210 : 		if ( bDefault )

  00183	38 4d 08	 cmp	 BYTE PTR _bDefault$[ebp], cl
  00186	74 35		 je	 SHORT $LN34@ReleaseHel

; 1211 : 			AddEntityToOwner( m_DefaultHairMesh );

  00188	51		 push	 ecx
  00189	8d 86 40 01 00
	00		 lea	 eax, DWORD PTR [esi+320]
  0018f	50		 push	 eax
  00190	8b ce		 mov	 ecx, esi
  00192	e8 00 00 00 00	 call	 ?AddEntityToOwner@ioCreateChar@@IAEPAVioEntity@@ABVioHashString@@_N@Z ; ioCreateChar::AddEntityToOwner

; 1212 : 		break;

  00197	eb 24		 jmp	 SHORT $LN34@ReleaseHel
$LN33@ReleaseHel:

; 1203 : 	{
; 1204 : 	case ioHelmetItem::HH_HALF_SKIP:
; 1205 : 		if ( bDefault )

  00199	38 4d 08	 cmp	 BYTE PTR _bDefault$[ebp], cl
  0019c	74 0f		 je	 SHORT $LN32@ReleaseHel

; 1206 : 			AddEntityToOwner( m_DefaultHairMesh );

  0019e	51		 push	 ecx
  0019f	8d 86 40 01 00
	00		 lea	 eax, DWORD PTR [esi+320]
  001a5	50		 push	 eax
  001a6	8b ce		 mov	 ecx, esi
  001a8	e8 00 00 00 00	 call	 ?AddEntityToOwner@ioCreateChar@@IAEPAVioEntity@@ABVioHashString@@_N@Z ; ioCreateChar::AddEntityToOwner
$LN32@ReleaseHel:

; 1207 : 		RemoveEntityInOwner( m_DefaultHalfHairMesh );

  001ad	8d 86 60 01 00
	00		 lea	 eax, DWORD PTR [esi+352]
$LN66@ReleaseHel:
  001b3	6a 00		 push	 0
  001b5	50		 push	 eax
  001b6	8b ce		 mov	 ecx, esi
  001b8	e8 00 00 00 00	 call	 ?RemoveEntityInOwner@ioCreateChar@@IAE_NABVioHashString@@_N@Z ; ioCreateChar::RemoveEntityInOwner
$LN34@ReleaseHel:

; 1218 : 	case ioHelmetItem::HH_NO_SKIP:
; 1219 : 		break;
; 1220 : 	}
; 1221 : 	
; 1222 : 	switch( eFaceType )

  001bd	8b 45 e4	 mov	 eax, DWORD PTR _eFaceType$[ebp]
  001c0	48		 dec	 eax
  001c1	75 34		 jne	 SHORT $LN23@ReleaseHel

; 1223 : 	{
; 1224 : 	case ioHelmetItem::HF_HALF_SKIP:
; 1225 : 		RemoveEntityInOwner( m_SkipFaceMesh );

  001c3	50		 push	 eax
  001c4	8d 86 00 01 00
	00		 lea	 eax, DWORD PTR [esi+256]
  001ca	50		 push	 eax
  001cb	8b ce		 mov	 ecx, esi
  001cd	e8 00 00 00 00	 call	 ?RemoveEntityInOwner@ioCreateChar@@IAE_NABVioHashString@@_N@Z ; ioCreateChar::RemoveEntityInOwner

; 1226 : 		if ( bDefault )

  001d2	80 7d 08 00	 cmp	 BYTE PTR _bDefault$[ebp], 0
  001d6	74 1f		 je	 SHORT $LN23@ReleaseHel

; 1227 : 		{
; 1228 : 			AddEntityToOwner( m_DefaultFaceMesh );

  001d8	8d 86 f0 00 00
	00		 lea	 eax, DWORD PTR [esi+240]
  001de	6a 00		 push	 0
  001e0	50		 push	 eax
  001e1	8b ce		 mov	 ecx, esi
  001e3	e8 00 00 00 00	 call	 ?AddEntityToOwner@ioCreateChar@@IAEPAVioEntity@@ABVioHashString@@_N@Z ; ioCreateChar::AddEntityToOwner

; 1229 : 			m_CurFaceMesh = m_DefaultFaceMesh;

  001e8	8d 86 f0 00 00
	00		 lea	 eax, DWORD PTR [esi+240]
  001ee	50		 push	 eax
  001ef	8d 8e 10 01 00
	00		 lea	 ecx, DWORD PTR [esi+272]
  001f5	ff d3		 call	 ebx
$LN23@ReleaseHel:

; 1230 : 		}
; 1231 : 		break;
; 1232 : 	}
; 1233 : 
; 1234 : 	SetHairColor( m_HairColorTex, m_HairOutLineColor );

  001f7	8d 46 50	 lea	 eax, DWORD PTR [esi+80]
  001fa	50		 push	 eax
  001fb	8d 46 40	 lea	 eax, DWORD PTR [esi+64]
  001fe	50		 push	 eax
  001ff	8b ce		 mov	 ecx, esi
  00201	e8 00 00 00 00	 call	 ?SetHairColor@ioCreateChar@@QAEXABVioHashString@@ABU_D3DCOLORVALUE@@@Z ; ioCreateChar::SetHairColor

; 1235 : 	SetBeardColor( m_BeardColorTex, m_BeardOutLineColor );

  00206	8d 46 70	 lea	 eax, DWORD PTR [esi+112]
  00209	50		 push	 eax
  0020a	8d 46 60	 lea	 eax, DWORD PTR [esi+96]
  0020d	50		 push	 eax
  0020e	8b ce		 mov	 ecx, esi
  00210	e8 00 00 00 00	 call	 ?SetBeardColor@ioCreateChar@@QAEXABVioHashString@@ABU_D3DCOLORVALUE@@@Z ; ioCreateChar::SetBeardColor

; 1236 : 	SetSkinColor( m_SkinColor, m_SkinOutLineColor );

  00215	8d 46 30	 lea	 eax, DWORD PTR [esi+48]
  00218	50		 push	 eax
  00219	8d 46 20	 lea	 eax, DWORD PTR [esi+32]
  0021c	50		 push	 eax
  0021d	8b ce		 mov	 ecx, esi
  0021f	e8 00 00 00 00	 call	 ?SetSkinColor@ioCreateChar@@QAEXABU_D3DCOLORVALUE@@0@Z ; ioCreateChar::SetSkinColor

; 1237 : 
; 1238 : 	//  
; 1239 : 	ioHashString szSpringRope;

  00224	8d 4d b0	 lea	 ecx, DWORD PTR _szSpringRope$[ebp]
  00227	ff 15 00 00 00
	00		 call	 DWORD PTR __imp_??0ioHashString@@QAE@XZ

; 1240 : 	const RopeSpringParam *pSpringParam = NULL;

  0022d	83 65 08 00	 and	 DWORD PTR _pSpringParam$[ebp], 0

; 1241 : 
; 1242 : 	if ( PreHelmetCostume->m_nCostumeCode > 0 )

  00231	83 3f 00	 cmp	 DWORD PTR [edi], 0
  00234	c6 45 fc 03	 mov	 BYTE PTR __$EHRec$[ebp+8], 3
  00238	7e 11		 jle	 SHORT $LN22@ReleaseHel

; 1243 : 	{
; 1244 : 		szSpringRope = PreHelmetCostume->m_szSpring_Biped;

  0023a	8d 47 38	 lea	 eax, DWORD PTR [edi+56]
  0023d	50		 push	 eax
  0023e	8d 4d b0	 lea	 ecx, DWORD PTR _szSpringRope$[ebp]
  00241	ff d3		 call	 ebx

; 1245 : 		pSpringParam = PreHelmetCostume->m_pCostumeSpringParam;		

  00243	8b 87 a4 00 00
	00		 mov	 eax, DWORD PTR [edi+164]
  00249	eb 26		 jmp	 SHORT $LN67@ReleaseHel
$LN22@ReleaseHel:

; 1246 : 	}
; 1247 : 	else if( pHelmet && pHelmet->HasSpringRope() )

  0024b	8b 7d ec	 mov	 edi, DWORD PTR _pHelmet$[ebp]
  0024e	85 ff		 test	 edi, edi
  00250	74 22		 je	 SHORT $LN20@ReleaseHel
  00252	8b cf		 mov	 ecx, edi
  00254	e8 00 00 00 00	 call	 ?HasSpringRope@ioHelmetItem@@QBE_NXZ ; ioHelmetItem::HasSpringRope
  00259	84 c0		 test	 al, al
  0025b	74 17		 je	 SHORT $LN20@ReleaseHel

; 1248 : 	{
; 1249 : 		szSpringRope = pHelmet->GetSpringBiped();

  0025d	8b cf		 mov	 ecx, edi
  0025f	e8 00 00 00 00	 call	 ?GetSpringBiped@ioHelmetItem@@QBEABVioHashString@@XZ ; ioHelmetItem::GetSpringBiped
  00264	50		 push	 eax
  00265	8d 4d b0	 lea	 ecx, DWORD PTR _szSpringRope$[ebp]
  00268	ff d3		 call	 ebx

; 1250 : 		pSpringParam = pHelmet->GetSpringParam();

  0026a	8b cf		 mov	 ecx, edi
  0026c	e8 00 00 00 00	 call	 ?GetSpringParam@ioHelmetItem@@QBEPBURopeSpringParam@@XZ ; ioHelmetItem::GetSpringParam
$LN67@ReleaseHel:
  00271	89 45 08	 mov	 DWORD PTR _pSpringParam$[ebp], eax
$LN20@ReleaseHel:

; 1251 : 	}
; 1252 : 
; 1253 : 	if ( !szSpringRope.IsEmpty() && pSpringParam )

  00274	8d 4d b0	 lea	 ecx, DWORD PTR _szSpringRope$[ebp]
  00277	ff 15 00 00 00
	00		 call	 DWORD PTR __imp_?IsEmpty@ioHashString@@QBE_NXZ
  0027d	84 c0		 test	 al, al
  0027f	0f 85 c7 00 00
	00		 jne	 $LN8@ReleaseHel
  00285	83 7d 08 00	 cmp	 DWORD PTR _pSpringParam$[ebp], 0
  00289	0f 84 bd 00 00
	00		 je	 $LN8@ReleaseHel

; 1254 : 	{
; 1255 : 		const CostumeInfo *pCheckArmorCostume = &m_CostumeSlot[CCS_ARMOR];
; 1256 : 		const CostumeInfo *pCheckCloakCostume = &m_CostumeSlot[CCS_CLOAK];
; 1257 : 
; 1258 : 		const ioArmorItem *pCheckArmor = ToArmorItemConst( GetSlotItem( CCS_ARMOR ) );

  0028f	6a 01		 push	 1
  00291	8b ce		 mov	 ecx, esi
  00293	8d be 14 03 00
	00		 lea	 edi, DWORD PTR [esi+788]
  00299	8d 9e cc 04 00
	00		 lea	 ebx, DWORD PTR [esi+1228]
  0029f	e8 00 00 00 00	 call	 ?GetSlotItem@ioCreateChar@@QAEPBVioItem@@H@Z ; ioCreateChar::GetSlotItem
  002a4	50		 push	 eax
  002a5	e8 00 00 00 00	 call	 ?ToArmorItemConst@@YAPBVioArmorItem@@PBVioItem@@@Z ; ToArmorItemConst
  002aa	59		 pop	 ecx

; 1259 : 		const ioCloakItem *pCheckCloak = ToCloakItemConst( GetSlotItem( CCS_CLOAK ) );

  002ab	6a 03		 push	 3
  002ad	8b ce		 mov	 ecx, esi
  002af	89 45 e4	 mov	 DWORD PTR _pCheckArmor$567054[ebp], eax
  002b2	e8 00 00 00 00	 call	 ?GetSlotItem@ioCreateChar@@QAEPBVioItem@@H@Z ; ioCreateChar::GetSlotItem
  002b7	50		 push	 eax
  002b8	e8 00 00 00 00	 call	 ?ToCloakItemConst@@YAPBVioCloakItem@@PBVioItem@@@Z ; ToCloakItemConst
  002bd	59		 pop	 ecx
  002be	89 45 e8	 mov	 DWORD PTR _pCheckCloak$567055[ebp], eax

; 1260 : 
; 1261 : 		bool bArmorHas = true;

  002c1	c6 45 0b 01	 mov	 BYTE PTR _bArmorHas$567056[ebp], 1

; 1262 : 		bool bCloaktHas = true;

  002c5	c6 45 f3 01	 mov	 BYTE PTR _bCloaktHas$567057[ebp], 1

; 1263 : 
; 1264 : 		if ( pCheckArmorCostume && pCheckArmorCostume->m_nCostumeCode > 0 && 
; 1265 : 			( pCheckArmorCostume->m_szSpring_Biped.IsEmpty() || !pCheckArmorCostume->m_pCostumeSpringParam ) )

  002c9	85 ff		 test	 edi, edi
  002cb	74 1b		 je	 SHORT $LN18@ReleaseHel
  002cd	83 3f 00	 cmp	 DWORD PTR [edi], 0
  002d0	7e 16		 jle	 SHORT $LN18@ReleaseHel
  002d2	8d 4f 38	 lea	 ecx, DWORD PTR [edi+56]
  002d5	ff 15 00 00 00
	00		 call	 DWORD PTR __imp_?IsEmpty@ioHashString@@QBE_NXZ
  002db	84 c0		 test	 al, al
  002dd	75 19		 jne	 SHORT $LN14@ReleaseHel
  002df	83 bf a4 00 00
	00 00		 cmp	 DWORD PTR [edi+164], 0

; 1266 : 			bArmorHas = false;

  002e6	74 10		 je	 SHORT $LN14@ReleaseHel
$LN18@ReleaseHel:

; 1267 : 		else if( !pCheckArmor || !pCheckArmor->HasSpringRope() )

  002e8	8b 4d e4	 mov	 ecx, DWORD PTR _pCheckArmor$567054[ebp]
  002eb	85 c9		 test	 ecx, ecx
  002ed	74 09		 je	 SHORT $LN14@ReleaseHel
  002ef	e8 00 00 00 00	 call	 ?HasSpringRope@ioArmorItem@@QBE_NXZ ; ioArmorItem::HasSpringRope
  002f4	84 c0		 test	 al, al
  002f6	75 04		 jne	 SHORT $LN15@ReleaseHel
$LN14@ReleaseHel:

; 1268 : 			bArmorHas = false;

  002f8	c6 45 0b 00	 mov	 BYTE PTR _bArmorHas$567056[ebp], 0
$LN15@ReleaseHel:

; 1269 : 
; 1270 : 		if ( pCheckCloakCostume && pCheckCloakCostume->m_nCostumeCode > 0 && 
; 1271 : 			( pCheckCloakCostume->m_szSpring_Biped.IsEmpty() || !pCheckCloakCostume->m_pCostumeSpringParam ) )

  002fc	85 db		 test	 ebx, ebx
  002fe	74 1b		 je	 SHORT $LN13@ReleaseHel
  00300	83 3b 00	 cmp	 DWORD PTR [ebx], 0
  00303	7e 16		 jle	 SHORT $LN13@ReleaseHel
  00305	8d 4b 38	 lea	 ecx, DWORD PTR [ebx+56]
  00308	ff 15 00 00 00
	00		 call	 DWORD PTR __imp_?IsEmpty@ioHashString@@QBE_NXZ
  0030e	84 c0		 test	 al, al
  00310	75 19		 jne	 SHORT $LN9@ReleaseHel
  00312	83 bb a4 00 00
	00 00		 cmp	 DWORD PTR [ebx+164], 0

; 1272 : 			bCloaktHas = false;

  00319	74 10		 je	 SHORT $LN9@ReleaseHel
$LN13@ReleaseHel:

; 1273 : 		else if( !pCheckCloak || !pCheckCloak->HasSpringRope() )

  0031b	8b 4d e8	 mov	 ecx, DWORD PTR _pCheckCloak$567055[ebp]
  0031e	85 c9		 test	 ecx, ecx
  00320	74 09		 je	 SHORT $LN9@ReleaseHel
  00322	e8 00 00 00 00	 call	 ?HasSpringRope@ioCloakItem@@QBE_NXZ ; ioCloakItem::HasSpringRope
  00327	84 c0		 test	 al, al
  00329	75 04		 jne	 SHORT $LN10@ReleaseHel
$LN9@ReleaseHel:

; 1274 : 			bCloaktHas = false;

  0032b	c6 45 f3 00	 mov	 BYTE PTR _bCloaktHas$567057[ebp], 0
$LN10@ReleaseHel:

; 1275 : 
; 1276 : 		if( m_pGrp && !bArmorHas && !bCloaktHas )

  0032f	8b 4e 04	 mov	 ecx, DWORD PTR [esi+4]
  00332	85 c9		 test	 ecx, ecx
  00334	74 16		 je	 SHORT $LN8@ReleaseHel
  00336	80 7d 0b 00	 cmp	 BYTE PTR _bArmorHas$567056[ebp], 0
  0033a	75 10		 jne	 SHORT $LN8@ReleaseHel
  0033c	80 7d f3 00	 cmp	 BYTE PTR _bCloaktHas$567057[ebp], 0
  00340	75 0a		 jne	 SHORT $LN8@ReleaseHel

; 1277 : 		{
; 1278 : 			m_pGrp->RemoveRopeSpringCurve( szSpringRope );

  00342	8d 45 b0	 lea	 eax, DWORD PTR _szSpringRope$[ebp]
  00345	50		 push	 eax
  00346	ff 15 00 00 00
	00		 call	 DWORD PTR __imp_?RemoveRopeSpringCurve@ioEntityGroup@@QAE_NABVioHashString@@@Z
$LN8@ReleaseHel:

; 1279 : 		}
; 1280 : 	}
; 1281 : 	
; 1282 : 	//
; 1283 : 	switch( eInvisibleFaceType )

  0034c	8b 45 e0	 mov	 eax, DWORD PTR _eInvisibleFaceType$[ebp]
  0034f	48		 dec	 eax
  00350	74 13		 je	 SHORT $LN5@ReleaseHel
  00352	48		 dec	 eax
  00353	74 0a		 je	 SHORT $LN4@ReleaseHel
  00355	48		 dec	 eax
  00356	75 16		 jne	 SHORT $LN6@ReleaseHel

; 1290 : 			ShowFaceMesh( true );
; 1291 : 		break;
; 1292 : 	case ioHelmetItem::IFT_FEMALE:
; 1293 : 		if( !IsMale() )

  00358	38 46 1c	 cmp	 BYTE PTR [esi+28], al
  0035b	75 11		 jne	 SHORT $LN6@ReleaseHel

; 1294 : 			ShowFaceMesh( true );
; 1295 : 		break;

  0035d	eb 06		 jmp	 SHORT $LN5@ReleaseHel
$LN4@ReleaseHel:

; 1287 : 		break;
; 1288 : 	case ioHelmetItem::IFT_MALE:
; 1289 : 		if( IsMale() )

  0035f	80 7e 1c 00	 cmp	 BYTE PTR [esi+28], 0
  00363	74 09		 je	 SHORT $LN6@ReleaseHel
$LN5@ReleaseHel:

; 1284 : 	{
; 1285 : 	case ioHelmetItem::IFT_ALL:
; 1286 : 		ShowFaceMesh( true );

  00365	6a 01		 push	 1
  00367	8b ce		 mov	 ecx, esi
  00369	e8 00 00 00 00	 call	 ?ShowFaceMesh@ioCreateChar@@QAEX_N@Z ; ioCreateChar::ShowFaceMesh
$LN6@ReleaseHel:

; 1296 : 	}
; 1297 : }

  0036e	8b 35 00 00 00
	00		 mov	 esi, DWORD PTR __imp_??1ioHashString@@QAE@XZ
  00374	8d 4d b0	 lea	 ecx, DWORD PTR _szSpringRope$[ebp]
  00377	c6 45 fc 01	 mov	 BYTE PTR __$EHRec$[ebp+8], 1
  0037b	ff d6		 call	 esi
  0037d	8d 4d d0	 lea	 ecx, DWORD PTR _szHelmetMesh$[ebp]
  00380	c6 45 fc 00	 mov	 BYTE PTR __$EHRec$[ebp+8], 0
  00384	ff d6		 call	 esi
  00386	83 4d fc ff	 or	 DWORD PTR __$EHRec$[ebp+8], -1
  0038a	8d 4d c0	 lea	 ecx, DWORD PTR _szEquipEffect$[ebp]
  0038d	ff d6		 call	 esi
$LN47@ReleaseHel:
  0038f	e8 00 00 00 00	 call	 __EH_epilog3
  00394	c2 04 00	 ret	 4
_TEXT	ENDS
;	COMDAT text$x
text$x	SEGMENT
__unwindfunclet$?ReleaseHelmetSlot@ioCreateChar@@IAEX_N@Z$0:
  00000	8d 4d c0	 lea	 ecx, DWORD PTR _szEquipEffect$[ebp]
  00003	ff 25 00 00 00
	00		 jmp	 DWORD PTR __imp_??1ioHashString@@QAE@XZ
__unwindfunclet$?ReleaseHelmetSlot@ioCreateChar@@IAEX_N@Z$1:
  00009	8d 4d d0	 lea	 ecx, DWORD PTR _szHelmetMesh$[ebp]
  0000c	ff 25 00 00 00
	00		 jmp	 DWORD PTR __imp_??1ioHashString@@QAE@XZ
__unwindfunclet$?ReleaseHelmetSlot@ioCreateChar@@IAEX_N@Z$2:
  00012	8d 4d a0	 lea	 ecx, DWORD PTR $T574582[ebp]
  00015	ff 25 00 00 00
	00		 jmp	 DWORD PTR __imp_??1ioHashString@@QAE@XZ
__unwindfunclet$?ReleaseHelmetSlot@ioCreateChar@@IAEX_N@Z$3:
  0001b	8d 4d b0	 lea	 ecx, DWORD PTR _szSpringRope$[ebp]
  0001e	ff 25 00 00 00
	00		 jmp	 DWORD PTR __imp_??1ioHashString@@QAE@XZ
__ehhandler$?ReleaseHelmetSlot@ioCreateChar@@IAEX_N@Z:
  00024	8b 54 24 08	 mov	 edx, DWORD PTR [esp+8]
  00028	8d 42 0c	 lea	 eax, DWORD PTR [edx+12]
  0002b	8b 4a 9c	 mov	 ecx, DWORD PTR [edx-100]
  0002e	33 c8		 xor	 ecx, eax
  00030	e8 00 00 00 00	 call	 @__security_check_cookie@4
  00035	b8 00 00 00 00	 mov	 eax, OFFSET __ehfuncinfo$?ReleaseHelmetSlot@ioCreateChar@@IAEX_N@Z
  0003a	e9 00 00 00 00	 jmp	 ___CxxFrameHandler3
text$x	ENDS
?ReleaseHelmetSlot@ioCreateChar@@IAEX_N@Z ENDP		; ioCreateChar::ReleaseHelmetSlot
PUBLIC	?ReleaseCloakSlot@ioCreateChar@@IAEXXZ		; ioCreateChar::ReleaseCloakSlot
EXTRN	?GetSpringParam@ioCloakItem@@QBEPBURopeSpringParam@@XZ:PROC ; ioCloakItem::GetSpringParam
EXTRN	?GetSpringBiped@ioCloakItem@@QBEABVioHashString@@XZ:PROC ; ioCloakItem::GetSpringBiped
EXTRN	?GetEquipMesh@ioCloakItem@@QBEABVioHashString@@PAVioBaseChar@@@Z:PROC ; ioCloakItem::GetEquipMesh
;	COMDAT xdata$x
xdata$x	SEGMENT
__unwindtable$?ReleaseCloakSlot@ioCreateChar@@IAEXXZ DD 0ffffffffH
	DD	FLAT:__unwindfunclet$?ReleaseCloakSlot@ioCreateChar@@IAEXXZ$0
	DD	00H
	DD	FLAT:__unwindfunclet$?ReleaseCloakSlot@ioCreateChar@@IAEXXZ$1
	DD	01H
	DD	FLAT:__unwindfunclet$?ReleaseCloakSlot@ioCreateChar@@IAEXXZ$2
	DD	01H
	DD	FLAT:__unwindfunclet$?ReleaseCloakSlot@ioCreateChar@@IAEXXZ$3
__ehfuncinfo$?ReleaseCloakSlot@ioCreateChar@@IAEXXZ DD 019930522H
	DD	04H
	DD	FLAT:__unwindtable$?ReleaseCloakSlot@ioCreateChar@@IAEXXZ
	DD	2 DUP(00H)
	DD	2 DUP(00H)
	DD	00H
	DD	01H
; Function compile flags: /Ogsp
xdata$x	ENDS
;	COMDAT ?ReleaseCloakSlot@ioCreateChar@@IAEXXZ
_TEXT	SEGMENT
$T574613 = -88						; size = 16
_szSpringRope$ = -72					; size = 16
_szEquipEffect$ = -56					; size = 16
_szCloakMesh$ = -40					; size = 16
_pCheckArmor$567100 = -24				; size = 4
_pSpringParam$ = -24					; size = 4
_pCheckHelmet$567101 = -20				; size = 4
_pCloak$ = -20						; size = 4
_bHelmetHas$567103 = -14				; size = 1
_bArmorHas$567102 = -13					; size = 1
__$EHRec$ = -12						; size = 12
?ReleaseCloakSlot@ioCreateChar@@IAEXXZ PROC		; ioCreateChar::ReleaseCloakSlot, COMDAT
; _this$ = ecx

; 1300 : {

  00000	6a 4c		 push	 76			; 0000004cH
  00002	b8 00 00 00 00	 mov	 eax, __ehhandler$?ReleaseCloakSlot@ioCreateChar@@IAEXXZ
  00007	e8 00 00 00 00	 call	 __EH_prolog3
  0000c	8b f1		 mov	 esi, ecx

; 1301 : 	const CostumeInfo *PreCloakCostume = &m_CostumeSlot[CCS_CLOAK];

  0000e	8d 9e cc 04 00
	00		 lea	 ebx, DWORD PTR [esi+1228]

; 1302 : 	if ( !PreCloakCostume )

  00014	85 db		 test	 ebx, ebx
  00016	0f 84 24 02 00
	00		 je	 $LN22@ReleaseClo

; 1303 : 		return;
; 1304 : 
; 1305 : 	const ioCloakItem *pCloak = ToCloakItemConst( GetSlotItem( CCS_CLOAK ) );

  0001c	6a 03		 push	 3
  0001e	e8 00 00 00 00	 call	 ?GetSlotItem@ioCreateChar@@QAEPBVioItem@@H@Z ; ioCreateChar::GetSlotItem
  00023	50		 push	 eax
  00024	e8 00 00 00 00	 call	 ?ToCloakItemConst@@YAPBVioCloakItem@@PBVioItem@@@Z ; ToCloakItemConst
  00029	59		 pop	 ecx

; 1306 : 	ReleaseSlotData( CCS_CLOAK );

  0002a	6a 03		 push	 3
  0002c	8b ce		 mov	 ecx, esi
  0002e	89 45 ec	 mov	 DWORD PTR _pCloak$[ebp], eax
  00031	e8 00 00 00 00	 call	 ?ReleaseSlotData@ioCreateChar@@IAEXH@Z ; ioCreateChar::ReleaseSlotData

; 1307 : 
; 1308 : 	ioHashString szEquipEffect; 

  00036	8b 3d 00 00 00
	00		 mov	 edi, DWORD PTR __imp_??0ioHashString@@QAE@XZ
  0003c	8d 4d c8	 lea	 ecx, DWORD PTR _szEquipEffect$[ebp]
  0003f	ff d7		 call	 edi
  00041	83 65 fc 00	 and	 DWORD PTR __$EHRec$[ebp+8], 0

; 1309 : 	ioHashString szCloakMesh;

  00045	8d 4d d8	 lea	 ecx, DWORD PTR _szCloakMesh$[ebp]
  00048	ff d7		 call	 edi

; 1310 : 
; 1311 : 	if ( PreCloakCostume->m_nCostumeCode > 0 )

  0004a	83 3b 00	 cmp	 DWORD PTR [ebx], 0
  0004d	8b 3d 00 00 00
	00		 mov	 edi, DWORD PTR __imp_??4ioHashString@@QAEAAV0@ABV0@@Z
  00053	c6 45 fc 01	 mov	 BYTE PTR __$EHRec$[ebp+8], 1
  00057	7e 2b		 jle	 SHORT $LN20@ReleaseClo

; 1312 : 	{
; 1313 : 		szEquipEffect = GetCostumeEffect( PreCloakCostume );

  00059	53		 push	 ebx
  0005a	8d 45 a8	 lea	 eax, DWORD PTR $T574613[ebp]
  0005d	50		 push	 eax
  0005e	8b ce		 mov	 ecx, esi
  00060	e8 00 00 00 00	 call	 ?GetCostumeEffect@ioCreateChar@@QAE?AVioHashString@@PBUtagCostumeInfo@@@Z ; ioCreateChar::GetCostumeEffect
  00065	50		 push	 eax
  00066	8d 4d c8	 lea	 ecx, DWORD PTR _szEquipEffect$[ebp]
  00069	c6 45 fc 02	 mov	 BYTE PTR __$EHRec$[ebp+8], 2
  0006d	ff d7		 call	 edi
  0006f	8d 4d a8	 lea	 ecx, DWORD PTR $T574613[ebp]
  00072	c6 45 fc 01	 mov	 BYTE PTR __$EHRec$[ebp+8], 1
  00076	ff 15 00 00 00
	00		 call	 DWORD PTR __imp_??1ioHashString@@QAE@XZ

; 1314 : 		szCloakMesh = PreCloakCostume->m_szCloakMesh;

  0007c	8d 83 94 00 00
	00		 lea	 eax, DWORD PTR [ebx+148]
  00082	eb 21		 jmp	 SHORT $LN33@ReleaseClo
$LN20@ReleaseClo:

; 1315 : 	}
; 1316 : 	else if ( pCloak )

  00084	8b 4d ec	 mov	 ecx, DWORD PTR _pCloak$[ebp]
  00087	85 c9		 test	 ecx, ecx
  00089	74 20		 je	 SHORT $LN18@ReleaseClo

; 1317 : 	{
; 1318 : 		szEquipEffect = pCloak->GetItemEquipEffect( m_bMale );

  0008b	0f b6 46 1c	 movzx	 eax, BYTE PTR [esi+28]
  0008f	50		 push	 eax
  00090	e8 00 00 00 00	 call	 ?GetItemEquipEffect@ioItem@@QBEABVioHashString@@_N@Z ; ioItem::GetItemEquipEffect
  00095	50		 push	 eax
  00096	8d 4d c8	 lea	 ecx, DWORD PTR _szEquipEffect$[ebp]
  00099	ff d7		 call	 edi

; 1319 : 		szCloakMesh = pCloak->GetEquipMesh(NULL);

  0009b	8b 4d ec	 mov	 ecx, DWORD PTR _pCloak$[ebp]
  0009e	6a 00		 push	 0
  000a0	e8 00 00 00 00	 call	 ?GetEquipMesh@ioCloakItem@@QBEABVioHashString@@PAVioBaseChar@@@Z ; ioCloakItem::GetEquipMesh
$LN33@ReleaseClo:
  000a5	50		 push	 eax
  000a6	8d 4d d8	 lea	 ecx, DWORD PTR _szCloakMesh$[ebp]
  000a9	ff d7		 call	 edi
$LN18@ReleaseClo:

; 1320 : 	}
; 1321 : 
; 1322 : 	if( !szEquipEffect.IsEmpty() )

  000ab	8d 4d c8	 lea	 ecx, DWORD PTR _szEquipEffect$[ebp]
  000ae	ff 15 00 00 00
	00		 call	 DWORD PTR __imp_?IsEmpty@ioHashString@@QBE_NXZ
  000b4	84 c0		 test	 al, al
  000b6	75 1a		 jne	 SHORT $LN17@ReleaseClo

; 1323 : 	{
; 1324 : 		m_pGrp->EndEffect( szEquipEffect, false );

  000b8	8b 4e 04	 mov	 ecx, DWORD PTR [esi+4]
  000bb	6a 01		 push	 1
  000bd	6a 00		 push	 0
  000bf	8d 45 c8	 lea	 eax, DWORD PTR _szEquipEffect$[ebp]
  000c2	50		 push	 eax
  000c3	ff 15 00 00 00
	00		 call	 DWORD PTR __imp_?EndEffect@ioEntityGroup@@QAEXABVioHashString@@_N1@Z

; 1325 : 		szEquipEffect.Clear();

  000c9	8d 4d c8	 lea	 ecx, DWORD PTR _szEquipEffect$[ebp]
  000cc	ff 15 00 00 00
	00		 call	 DWORD PTR __imp_?Clear@ioHashString@@QAEXXZ
$LN17@ReleaseClo:

; 1326 : 	}
; 1327 : 
; 1328 : 	if ( !szCloakMesh.IsEmpty() )

  000d2	8d 4d d8	 lea	 ecx, DWORD PTR _szCloakMesh$[ebp]
  000d5	ff 15 00 00 00
	00		 call	 DWORD PTR __imp_?IsEmpty@ioHashString@@QBE_NXZ
  000db	84 c0		 test	 al, al
  000dd	75 16		 jne	 SHORT $LN16@ReleaseClo

; 1329 : 	{
; 1330 : 		RemoveEntityInOwner( szCloakMesh, true );

  000df	6a 01		 push	 1
  000e1	8d 45 d8	 lea	 eax, DWORD PTR _szCloakMesh$[ebp]
  000e4	50		 push	 eax
  000e5	8b ce		 mov	 ecx, esi
  000e7	e8 00 00 00 00	 call	 ?RemoveEntityInOwner@ioCreateChar@@IAE_NABVioHashString@@_N@Z ; ioCreateChar::RemoveEntityInOwner

; 1331 : 		szCloakMesh.Clear();

  000ec	8d 4d d8	 lea	 ecx, DWORD PTR _szCloakMesh$[ebp]
  000ef	ff 15 00 00 00
	00		 call	 DWORD PTR __imp_?Clear@ioHashString@@QAEXXZ
$LN16@ReleaseClo:

; 1332 : 	}
; 1333 : 
; 1334 : 	//  
; 1335 : 	ioHashString szSpringRope;

  000f5	8d 4d b8	 lea	 ecx, DWORD PTR _szSpringRope$[ebp]
  000f8	ff 15 00 00 00
	00		 call	 DWORD PTR __imp_??0ioHashString@@QAE@XZ

; 1336 : 	const RopeSpringParam *pSpringParam = NULL;

  000fe	83 65 e8 00	 and	 DWORD PTR _pSpringParam$[ebp], 0

; 1337 : 
; 1338 : 	if ( PreCloakCostume->m_nCostumeCode > 0 )

  00102	83 3b 00	 cmp	 DWORD PTR [ebx], 0
  00105	c6 45 fc 03	 mov	 BYTE PTR __$EHRec$[ebp+8], 3
  00109	7e 11		 jle	 SHORT $LN15@ReleaseClo

; 1339 : 	{
; 1340 : 		szSpringRope = PreCloakCostume->m_szSpring_Biped;

  0010b	8d 43 38	 lea	 eax, DWORD PTR [ebx+56]
  0010e	50		 push	 eax
  0010f	8d 4d b8	 lea	 ecx, DWORD PTR _szSpringRope$[ebp]
  00112	ff d7		 call	 edi

; 1341 : 		pSpringParam = PreCloakCostume->m_pCostumeSpringParam;		

  00114	8b 83 a4 00 00
	00		 mov	 eax, DWORD PTR [ebx+164]
  0011a	eb 26		 jmp	 SHORT $LN34@ReleaseClo
$LN15@ReleaseClo:

; 1342 : 	}
; 1343 : 	else if( pCloak && pCloak->HasSpringRope() )

  0011c	8b 5d ec	 mov	 ebx, DWORD PTR _pCloak$[ebp]
  0011f	85 db		 test	 ebx, ebx
  00121	74 22		 je	 SHORT $LN13@ReleaseClo
  00123	8b cb		 mov	 ecx, ebx
  00125	e8 00 00 00 00	 call	 ?HasSpringRope@ioCloakItem@@QBE_NXZ ; ioCloakItem::HasSpringRope
  0012a	84 c0		 test	 al, al
  0012c	74 17		 je	 SHORT $LN13@ReleaseClo

; 1344 : 	{
; 1345 : 		szSpringRope = pCloak->GetSpringBiped();

  0012e	8b cb		 mov	 ecx, ebx
  00130	e8 00 00 00 00	 call	 ?GetSpringBiped@ioCloakItem@@QBEABVioHashString@@XZ ; ioCloakItem::GetSpringBiped
  00135	50		 push	 eax
  00136	8d 4d b8	 lea	 ecx, DWORD PTR _szSpringRope$[ebp]
  00139	ff d7		 call	 edi

; 1346 : 		pSpringParam = pCloak->GetSpringParam();

  0013b	8b cb		 mov	 ecx, ebx
  0013d	e8 00 00 00 00	 call	 ?GetSpringParam@ioCloakItem@@QBEPBURopeSpringParam@@XZ ; ioCloakItem::GetSpringParam
$LN34@ReleaseClo:
  00142	89 45 e8	 mov	 DWORD PTR _pSpringParam$[ebp], eax
$LN13@ReleaseClo:

; 1347 : 	}
; 1348 : 
; 1349 : 	if ( !szSpringRope.IsEmpty() && pSpringParam )

  00145	8d 4d b8	 lea	 ecx, DWORD PTR _szSpringRope$[ebp]
  00148	ff 15 00 00 00
	00		 call	 DWORD PTR __imp_?IsEmpty@ioHashString@@QBE_NXZ
  0014e	84 c0		 test	 al, al
  00150	0f 85 c9 00 00
	00		 jne	 $LN1@ReleaseClo
  00156	83 7d e8 00	 cmp	 DWORD PTR _pSpringParam$[ebp], 0
  0015a	0f 84 bf 00 00
	00		 je	 $LN1@ReleaseClo

; 1350 : 	{
; 1351 : 		const CostumeInfo *pCheckArmorCostume = &m_CostumeSlot[CCS_ARMOR];
; 1352 : 		const CostumeInfo *pCheckHelmetCostume = &m_CostumeSlot[CCS_HELMET];
; 1353 : 
; 1354 : 		const ioArmorItem *pCheckArmor = ToArmorItemConst( GetSlotItem( CCS_ARMOR ) );

  00160	6a 01		 push	 1
  00162	8b ce		 mov	 ecx, esi
  00164	8d be 14 03 00
	00		 lea	 edi, DWORD PTR [esi+788]
  0016a	8d 9e f0 03 00
	00		 lea	 ebx, DWORD PTR [esi+1008]
  00170	e8 00 00 00 00	 call	 ?GetSlotItem@ioCreateChar@@QAEPBVioItem@@H@Z ; ioCreateChar::GetSlotItem
  00175	50		 push	 eax
  00176	e8 00 00 00 00	 call	 ?ToArmorItemConst@@YAPBVioArmorItem@@PBVioItem@@@Z ; ToArmorItemConst
  0017b	59		 pop	 ecx

; 1355 : 		const ioHelmetItem *pCheckHelmet = ToHelmetItemConst( GetSlotItem( CCS_HELMET ) );

  0017c	6a 02		 push	 2
  0017e	8b ce		 mov	 ecx, esi
  00180	89 45 e8	 mov	 DWORD PTR _pCheckArmor$567100[ebp], eax
  00183	e8 00 00 00 00	 call	 ?GetSlotItem@ioCreateChar@@QAEPBVioItem@@H@Z ; ioCreateChar::GetSlotItem
  00188	50		 push	 eax
  00189	e8 00 00 00 00	 call	 ?ToHelmetItemConst@@YAPBVioHelmetItem@@PBVioItem@@@Z ; ToHelmetItemConst
  0018e	59		 pop	 ecx
  0018f	89 45 ec	 mov	 DWORD PTR _pCheckHelmet$567101[ebp], eax

; 1356 : 
; 1357 : 		bool bArmorHas = true;

  00192	c6 45 f3 01	 mov	 BYTE PTR _bArmorHas$567102[ebp], 1

; 1358 : 		bool bHelmetHas = true;

  00196	c6 45 f2 01	 mov	 BYTE PTR _bHelmetHas$567103[ebp], 1

; 1359 : 
; 1360 : 		if ( pCheckArmorCostume && pCheckArmorCostume->m_nCostumeCode > 0 && 
; 1361 : 			( pCheckArmorCostume->m_szSpring_Biped.IsEmpty() || !pCheckArmorCostume->m_pCostumeSpringParam ) )

  0019a	85 ff		 test	 edi, edi
  0019c	74 1b		 je	 SHORT $LN11@ReleaseClo
  0019e	83 3f 00	 cmp	 DWORD PTR [edi], 0
  001a1	7e 16		 jle	 SHORT $LN11@ReleaseClo
  001a3	8d 4f 38	 lea	 ecx, DWORD PTR [edi+56]
  001a6	ff 15 00 00 00
	00		 call	 DWORD PTR __imp_?IsEmpty@ioHashString@@QBE_NXZ
  001ac	84 c0		 test	 al, al
  001ae	75 19		 jne	 SHORT $LN7@ReleaseClo
  001b0	83 bf a4 00 00
	00 00		 cmp	 DWORD PTR [edi+164], 0

; 1362 : 			bArmorHas = false;

  001b7	74 10		 je	 SHORT $LN7@ReleaseClo
$LN11@ReleaseClo:

; 1363 : 		else if( !pCheckArmor || !pCheckArmor->HasSpringRope() )

  001b9	8b 4d e8	 mov	 ecx, DWORD PTR _pCheckArmor$567100[ebp]
  001bc	85 c9		 test	 ecx, ecx
  001be	74 09		 je	 SHORT $LN7@ReleaseClo
  001c0	e8 00 00 00 00	 call	 ?HasSpringRope@ioArmorItem@@QBE_NXZ ; ioArmorItem::HasSpringRope
  001c5	84 c0		 test	 al, al
  001c7	75 04		 jne	 SHORT $LN8@ReleaseClo
$LN7@ReleaseClo:

; 1364 : 			bArmorHas = false;

  001c9	c6 45 f3 00	 mov	 BYTE PTR _bArmorHas$567102[ebp], 0
$LN8@ReleaseClo:

; 1365 : 
; 1366 : 		if ( pCheckHelmetCostume && pCheckHelmetCostume->m_nCostumeCode > 0 && 
; 1367 : 			( pCheckHelmetCostume->m_szSpring_Biped.IsEmpty() || !pCheckHelmetCostume->m_pCostumeSpringParam ) )

  001cd	85 db		 test	 ebx, ebx
  001cf	74 1b		 je	 SHORT $LN6@ReleaseClo
  001d1	83 3b 00	 cmp	 DWORD PTR [ebx], 0
  001d4	7e 16		 jle	 SHORT $LN6@ReleaseClo
  001d6	8d 4b 38	 lea	 ecx, DWORD PTR [ebx+56]
  001d9	ff 15 00 00 00
	00		 call	 DWORD PTR __imp_?IsEmpty@ioHashString@@QBE_NXZ
  001df	84 c0		 test	 al, al
  001e1	75 19		 jne	 SHORT $LN2@ReleaseClo
  001e3	83 bb a4 00 00
	00 00		 cmp	 DWORD PTR [ebx+164], 0

; 1368 : 			bHelmetHas = false;

  001ea	74 10		 je	 SHORT $LN2@ReleaseClo
$LN6@ReleaseClo:

; 1369 : 		else if( !pCheckHelmet || !pCheckHelmet->HasSpringRope() )

  001ec	8b 4d ec	 mov	 ecx, DWORD PTR _pCheckHelmet$567101[ebp]
  001ef	85 c9		 test	 ecx, ecx
  001f1	74 09		 je	 SHORT $LN2@ReleaseClo
  001f3	e8 00 00 00 00	 call	 ?HasSpringRope@ioHelmetItem@@QBE_NXZ ; ioHelmetItem::HasSpringRope
  001f8	84 c0		 test	 al, al
  001fa	75 04		 jne	 SHORT $LN3@ReleaseClo
$LN2@ReleaseClo:

; 1370 : 			bHelmetHas = false;

  001fc	c6 45 f2 00	 mov	 BYTE PTR _bHelmetHas$567103[ebp], 0
$LN3@ReleaseClo:

; 1371 : 
; 1372 : 		if( m_pGrp && !bArmorHas && !bHelmetHas )

  00200	8b 76 04	 mov	 esi, DWORD PTR [esi+4]
  00203	85 f6		 test	 esi, esi
  00205	74 18		 je	 SHORT $LN1@ReleaseClo
  00207	80 7d f3 00	 cmp	 BYTE PTR _bArmorHas$567102[ebp], 0
  0020b	75 12		 jne	 SHORT $LN1@ReleaseClo
  0020d	80 7d f2 00	 cmp	 BYTE PTR _bHelmetHas$567103[ebp], 0
  00211	75 0c		 jne	 SHORT $LN1@ReleaseClo

; 1373 : 		{
; 1374 : 			m_pGrp->RemoveRopeSpringCurve( szSpringRope );

  00213	8d 45 b8	 lea	 eax, DWORD PTR _szSpringRope$[ebp]
  00216	50		 push	 eax
  00217	8b ce		 mov	 ecx, esi
  00219	ff 15 00 00 00
	00		 call	 DWORD PTR __imp_?RemoveRopeSpringCurve@ioEntityGroup@@QAE_NABVioHashString@@@Z
$LN1@ReleaseClo:

; 1375 : 		}
; 1376 : 	}
; 1377 : }

  0021f	8b 35 00 00 00
	00		 mov	 esi, DWORD PTR __imp_??1ioHashString@@QAE@XZ
  00225	8d 4d b8	 lea	 ecx, DWORD PTR _szSpringRope$[ebp]
  00228	c6 45 fc 01	 mov	 BYTE PTR __$EHRec$[ebp+8], 1
  0022c	ff d6		 call	 esi
  0022e	8d 4d d8	 lea	 ecx, DWORD PTR _szCloakMesh$[ebp]
  00231	c6 45 fc 00	 mov	 BYTE PTR __$EHRec$[ebp+8], 0
  00235	ff d6		 call	 esi
  00237	83 4d fc ff	 or	 DWORD PTR __$EHRec$[ebp+8], -1
  0023b	8d 4d c8	 lea	 ecx, DWORD PTR _szEquipEffect$[ebp]
  0023e	ff d6		 call	 esi
$LN22@ReleaseClo:
  00240	e8 00 00 00 00	 call	 __EH_epilog3
  00245	c3		 ret	 0
_TEXT	ENDS
;	COMDAT text$x
text$x	SEGMENT
__unwindfunclet$?ReleaseCloakSlot@ioCreateChar@@IAEXXZ$0:
  00000	8d 4d c8	 lea	 ecx, DWORD PTR _szEquipEffect$[ebp]
  00003	ff 25 00 00 00
	00		 jmp	 DWORD PTR __imp_??1ioHashString@@QAE@XZ
__unwindfunclet$?ReleaseCloakSlot@ioCreateChar@@IAEXXZ$1:
  00009	8d 4d d8	 lea	 ecx, DWORD PTR _szCloakMesh$[ebp]
  0000c	ff 25 00 00 00
	00		 jmp	 DWORD PTR __imp_??1ioHashString@@QAE@XZ
__unwindfunclet$?ReleaseCloakSlot@ioCreateChar@@IAEXXZ$2:
  00012	8d 4d a8	 lea	 ecx, DWORD PTR $T574613[ebp]
  00015	ff 25 00 00 00
	00		 jmp	 DWORD PTR __imp_??1ioHashString@@QAE@XZ
__unwindfunclet$?ReleaseCloakSlot@ioCreateChar@@IAEXXZ$3:
  0001b	8d 4d b8	 lea	 ecx, DWORD PTR _szSpringRope$[ebp]
  0001e	ff 25 00 00 00
	00		 jmp	 DWORD PTR __imp_??1ioHashString@@QAE@XZ
__ehhandler$?ReleaseCloakSlot@ioCreateChar@@IAEXXZ:
  00024	8b 54 24 08	 mov	 edx, DWORD PTR [esp+8]
  00028	8d 42 0c	 lea	 eax, DWORD PTR [edx+12]
  0002b	8b 4a a4	 mov	 ecx, DWORD PTR [edx-92]
  0002e	33 c8		 xor	 ecx, eax
  00030	e8 00 00 00 00	 call	 @__security_check_cookie@4
  00035	b8 00 00 00 00	 mov	 eax, OFFSET __ehfuncinfo$?ReleaseCloakSlot@ioCreateChar@@IAEXXZ
  0003a	e9 00 00 00 00	 jmp	 ___CxxFrameHandler3
text$x	ENDS
?ReleaseCloakSlot@ioCreateChar@@IAEXXZ ENDP		; ioCreateChar::ReleaseCloakSlot
PUBLIC	??0EquipItemInfo@ioCreateChar@@QAE@XZ		; ioCreateChar::EquipItemInfo::EquipItemInfo
; Function compile flags: /Ogsp
; File d:\lost saga for developer\youtube\tutorial\source\src\lsclient\iocreatechar.h
;	COMDAT ??0EquipItemInfo@ioCreateChar@@QAE@XZ
_TEXT	SEGMENT
??0EquipItemInfo@ioCreateChar@@QAE@XZ PROC		; ioCreateChar::EquipItemInfo::EquipItemInfo, COMDAT
; _this$ = ecx

; 45   : 		EquipItemInfo()

  00000	8b c1		 mov	 eax, ecx
  00002	33 c9		 xor	 ecx, ecx
  00004	89 48 0c	 mov	 DWORD PTR [eax+12], ecx
  00007	89 48 10	 mov	 DWORD PTR [eax+16], ecx
  0000a	89 48 14	 mov	 DWORD PTR [eax+20], ecx

; 46   : 		{
; 47   : 			dwItemCode = dwItemMaleCustom = dwItemFemaleCustom = 0;

  0000d	89 48 08	 mov	 DWORD PTR [eax+8], ecx
  00010	89 48 04	 mov	 DWORD PTR [eax+4], ecx
  00013	89 08		 mov	 DWORD PTR [eax], ecx

; 48   : 		}

  00015	c3		 ret	 0
??0EquipItemInfo@ioCreateChar@@QAE@XZ ENDP		; ioCreateChar::EquipItemInfo::EquipItemInfo
_TEXT	ENDS
PUBLIC	??0ioCreateChar@@QAE@PAVioEntityGroup@@@Z	; ioCreateChar::ioCreateChar
EXTRN	?CreateNewUIChar@ioCustomTextureMgr@@QAEXK@Z:PROC ; ioCustomTextureMgr::CreateNewUIChar
EXTRN	__imp_?SetEventParent@ioEntityGroup@@QAEXPAVioEntityEvent@@@Z:PROC
EXTRN	?InitColorValue@Help@@YAXAAU_D3DCOLORVALUE@@MMMM@Z:PROC ; Help::InitColorValue
EXTRN	__imp_??0ioOrientBox@@QAE@XZ:PROC
EXTRN	??_L@YGXPAXIHP6EX0@Z1@Z:PROC			; `eh vector constructor iterator'
EXTRN	__imp_??0ioEntityEvent@@QAE@XZ:PROC
;	COMDAT xdata$x
; File c:\program files (x86)\microsoft visual studio 10.0\vc\include\xutility
xdata$x	SEGMENT
__ehfuncinfo$??0ioCreateChar@@QAE@PAVioEntityGroup@@@Z DD 019930522H
	DD	016H
	DD	FLAT:__unwindtable$??0ioCreateChar@@QAE@PAVioEntityGroup@@@Z
	DD	2 DUP(00H)
	DD	2 DUP(00H)
	DD	00H
	DD	01H
__unwindtable$??0ioCreateChar@@QAE@PAVioEntityGroup@@@Z DD 0ffffffffH
	DD	FLAT:__unwindfunclet$??0ioCreateChar@@QAE@PAVioEntityGroup@@@Z$0
	DD	00H
	DD	FLAT:__unwindfunclet$??0ioCreateChar@@QAE@PAVioEntityGroup@@@Z$1
	DD	01H
	DD	FLAT:__unwindfunclet$??0ioCreateChar@@QAE@PAVioEntityGroup@@@Z$2
	DD	02H
	DD	FLAT:__unwindfunclet$??0ioCreateChar@@QAE@PAVioEntityGroup@@@Z$3
	DD	03H
	DD	FLAT:__unwindfunclet$??0ioCreateChar@@QAE@PAVioEntityGroup@@@Z$4
	DD	04H
	DD	FLAT:__unwindfunclet$??0ioCreateChar@@QAE@PAVioEntityGroup@@@Z$5
	DD	05H
	DD	FLAT:__unwindfunclet$??0ioCreateChar@@QAE@PAVioEntityGroup@@@Z$6
	DD	06H
	DD	FLAT:__unwindfunclet$??0ioCreateChar@@QAE@PAVioEntityGroup@@@Z$7
	DD	07H
	DD	FLAT:__unwindfunclet$??0ioCreateChar@@QAE@PAVioEntityGroup@@@Z$8
	DD	08H
	DD	FLAT:__unwindfunclet$??0ioCreateChar@@QAE@PAVioEntityGroup@@@Z$9
	DD	09H
	DD	FLAT:__unwindfunclet$??0ioCreateChar@@QAE@PAVioEntityGroup@@@Z$10
	DD	0aH
	DD	FLAT:__unwindfunclet$??0ioCreateChar@@QAE@PAVioEntityGroup@@@Z$11
	DD	0bH
	DD	FLAT:__unwindfunclet$??0ioCreateChar@@QAE@PAVioEntityGroup@@@Z$12
	DD	0cH
	DD	FLAT:__unwindfunclet$??0ioCreateChar@@QAE@PAVioEntityGroup@@@Z$13
	DD	0dH
	DD	FLAT:__unwindfunclet$??0ioCreateChar@@QAE@PAVioEntityGroup@@@Z$14
	DD	0eH
	DD	FLAT:__unwindfunclet$??0ioCreateChar@@QAE@PAVioEntityGroup@@@Z$15
	DD	0fH
	DD	FLAT:__unwindfunclet$??0ioCreateChar@@QAE@PAVioEntityGroup@@@Z$16
	DD	010H
	DD	FLAT:__unwindfunclet$??0ioCreateChar@@QAE@PAVioEntityGroup@@@Z$17
	DD	011H
	DD	FLAT:__unwindfunclet$??0ioCreateChar@@QAE@PAVioEntityGroup@@@Z$18
	DD	012H
	DD	FLAT:__unwindfunclet$??0ioCreateChar@@QAE@PAVioEntityGroup@@@Z$19
	DD	013H
	DD	FLAT:__unwindfunclet$??0ioCreateChar@@QAE@PAVioEntityGroup@@@Z$20
	DD	014H
	DD	FLAT:__unwindfunclet$??0ioCreateChar@@QAE@PAVioEntityGroup@@@Z$21
; Function compile flags: /Ogsp
; File d:\lost saga for developer\youtube\tutorial\source\src\lsclient\iocreatechar.cpp
xdata$x	ENDS
;	COMDAT ??0ioCreateChar@@QAE@PAVioEntityGroup@@@Z
_TEXT	SEGMENT
_this$ = -16						; size = 4
__$EHRec$ = -12						; size = 12
tv653 = 8						; size = 4
tv651 = 8						; size = 4
tv649 = 8						; size = 4
tv647 = 8						; size = 4
tv636 = 8						; size = 4
tv624 = 8						; size = 4
$T574769 = 8						; size = 4
_pGrp$ = 8						; size = 4
??0ioCreateChar@@QAE@PAVioEntityGroup@@@Z PROC		; ioCreateChar::ioCreateChar, COMDAT
; _this$ = ecx

; 9    : {

  00000	6a 04		 push	 4
  00002	b8 00 00 00 00	 mov	 eax, __ehhandler$??0ioCreateChar@@QAE@PAVioEntityGroup@@@Z
  00007	e8 00 00 00 00	 call	 __EH_prolog3
  0000c	8b f1		 mov	 esi, ecx
  0000e	89 75 f0	 mov	 DWORD PTR _this$[ebp], esi
  00011	ff 15 00 00 00
	00		 call	 DWORD PTR __imp_??0ioEntityEvent@@QAE@XZ
  00017	8b 3d 00 00 00
	00		 mov	 edi, DWORD PTR __imp_??0ioHashString@@QAE@XZ
  0001d	83 65 fc 00	 and	 DWORD PTR __$EHRec$[ebp+8], 0
  00021	8d 4e 0c	 lea	 ecx, DWORD PTR [esi+12]
  00024	c7 06 00 00 00
	00		 mov	 DWORD PTR [esi], OFFSET ??_7ioCreateChar@@6B@
  0002a	ff d7		 call	 edi
  0002c	8d 4e 40	 lea	 ecx, DWORD PTR [esi+64]
  0002f	c6 45 fc 01	 mov	 BYTE PTR __$EHRec$[ebp+8], 1
  00033	ff d7		 call	 edi
  00035	8d 4e 60	 lea	 ecx, DWORD PTR [esi+96]
  00038	c6 45 fc 02	 mov	 BYTE PTR __$EHRec$[ebp+8], 2
  0003c	ff d7		 call	 edi
  0003e	68 00 00 00 00	 push	 OFFSET ??1EquipItemInfo@ioCreateChar@@QAE@XZ
  00043	68 00 00 00 00	 push	 OFFSET ??0EquipItemInfo@ioCreateChar@@QAE@XZ ; ioCreateChar::EquipItemInfo::EquipItemInfo
  00048	6a 04		 push	 4
  0004a	6a 1c		 push	 28			; 0000001cH
  0004c	8d 9e 80 00 00
	00		 lea	 ebx, DWORD PTR [esi+128]
  00052	53		 push	 ebx
  00053	c6 45 fc 03	 mov	 BYTE PTR __$EHRec$[ebp+8], 3
  00057	e8 00 00 00 00	 call	 ??_L@YGXPAXIHP6EX0@Z1@Z
  0005c	8d 8e f0 00 00
	00		 lea	 ecx, DWORD PTR [esi+240]
  00062	c6 45 fc 04	 mov	 BYTE PTR __$EHRec$[ebp+8], 4
  00066	ff d7		 call	 edi
  00068	8d 8e 00 01 00
	00		 lea	 ecx, DWORD PTR [esi+256]
  0006e	c6 45 fc 05	 mov	 BYTE PTR __$EHRec$[ebp+8], 5
  00072	ff d7		 call	 edi
  00074	8d 8e 10 01 00
	00		 lea	 ecx, DWORD PTR [esi+272]
  0007a	c6 45 fc 06	 mov	 BYTE PTR __$EHRec$[ebp+8], 6
  0007e	ff d7		 call	 edi
  00080	8d 8e 20 01 00
	00		 lea	 ecx, DWORD PTR [esi+288]
  00086	c6 45 fc 07	 mov	 BYTE PTR __$EHRec$[ebp+8], 7
  0008a	ff d7		 call	 edi
  0008c	8d 8e 30 01 00
	00		 lea	 ecx, DWORD PTR [esi+304]
  00092	c6 45 fc 08	 mov	 BYTE PTR __$EHRec$[ebp+8], 8
  00096	ff d7		 call	 edi
  00098	8d 8e 40 01 00
	00		 lea	 ecx, DWORD PTR [esi+320]
  0009e	c6 45 fc 09	 mov	 BYTE PTR __$EHRec$[ebp+8], 9
  000a2	ff d7		 call	 edi
  000a4	8d 8e 50 01 00
	00		 lea	 ecx, DWORD PTR [esi+336]
  000aa	c6 45 fc 0a	 mov	 BYTE PTR __$EHRec$[ebp+8], 10 ; 0000000aH
  000ae	ff d7		 call	 edi
  000b0	8d 8e 60 01 00
	00		 lea	 ecx, DWORD PTR [esi+352]
  000b6	c6 45 fc 0b	 mov	 BYTE PTR __$EHRec$[ebp+8], 11 ; 0000000bH
  000ba	ff d7		 call	 edi
  000bc	8d 8e 70 01 00
	00		 lea	 ecx, DWORD PTR [esi+368]
  000c2	c6 45 fc 0c	 mov	 BYTE PTR __$EHRec$[ebp+8], 12 ; 0000000cH
  000c6	ff d7		 call	 edi
  000c8	8d 8e 80 01 00
	00		 lea	 ecx, DWORD PTR [esi+384]
  000ce	c6 45 fc 0d	 mov	 BYTE PTR __$EHRec$[ebp+8], 13 ; 0000000dH
  000d2	ff d7		 call	 edi
  000d4	8d 8e 90 01 00
	00		 lea	 ecx, DWORD PTR [esi+400]
  000da	c6 45 fc 0e	 mov	 BYTE PTR __$EHRec$[ebp+8], 14 ; 0000000eH
  000de	ff d7		 call	 edi
  000e0	8d 8e a0 01 00
	00		 lea	 ecx, DWORD PTR [esi+416]
  000e6	c6 45 fc 0f	 mov	 BYTE PTR __$EHRec$[ebp+8], 15 ; 0000000fH
  000ea	ff d7		 call	 edi
  000ec	8d 8e b0 01 00
	00		 lea	 ecx, DWORD PTR [esi+432]
  000f2	c6 45 fc 10	 mov	 BYTE PTR __$EHRec$[ebp+8], 16 ; 00000010H
  000f6	ff 15 00 00 00
	00		 call	 DWORD PTR __imp_??0ioOrientBox@@QAE@XZ
  000fc	8d 8e f4 01 00
	00		 lea	 ecx, DWORD PTR [esi+500]
  00102	c6 45 fc 11	 mov	 BYTE PTR __$EHRec$[ebp+8], 17 ; 00000011H
  00106	ff d7		 call	 edi
  00108	8d 8e 04 02 00
	00		 lea	 ecx, DWORD PTR [esi+516]
  0010e	c6 45 fc 12	 mov	 BYTE PTR __$EHRec$[ebp+8], 18 ; 00000012H
  00112	ff d7		 call	 edi
  00114	8d 8e 24 02 00
	00		 lea	 ecx, DWORD PTR [esi+548]
  0011a	c6 45 fc 13	 mov	 BYTE PTR __$EHRec$[ebp+8], 19 ; 00000013H
  0011e	ff d7		 call	 edi
  00120	68 00 00 00 00	 push	 OFFSET ??1tagCostumeInfo@@QAE@XZ
  00125	68 00 00 00 00	 push	 OFFSET ??0tagCostumeInfo@@QAE@XZ ; tagCostumeInfo::tagCostumeInfo
  0012a	6a 04		 push	 4
  0012c	8d 86 38 02 00
	00		 lea	 eax, DWORD PTR [esi+568]
  00132	68 dc 00 00 00	 push	 220			; 000000dcH
  00137	50		 push	 eax
  00138	c6 45 fc 14	 mov	 BYTE PTR __$EHRec$[ebp+8], 20 ; 00000014H
  0013c	e8 00 00 00 00	 call	 ??_L@YGXPAXIHP6EX0@Z1@Z

; 10   : 	m_pGrp = pGrp;

  00141	8b 45 08	 mov	 eax, DWORD PTR _pGrp$[ebp]

; 11   : 	m_RaceType = RT_HUMAN;

  00144	83 66 08 00	 and	 DWORD PTR [esi+8], 0
  00148	c6 45 fc 15	 mov	 BYTE PTR __$EHRec$[ebp+8], 21 ; 00000015H
  0014c	89 46 04	 mov	 DWORD PTR [esi+4], eax

; 12   : 	m_bMale = true;

  0014f	66 c7 46 1c 01
	01		 mov	 WORD PTR [esi+28], 257	; 00000101H

; 13   : 	m_bThreadLoading = true;
; 14   : 
; 15   : 	Help::InitColorValue( m_SkinColor, FLOAT1, FLOAT1, FLOAT1, FLOAT1 );

  00155	b8 01 00 00 00	 mov	 eax, 1
  0015a	8b c8		 mov	 ecx, eax
  0015c	b8 01 00 00 00	 mov	 eax, 1
  00161	8b d0		 mov	 edx, eax
  00163	b8 01 00 00 00	 mov	 eax, 1
  00168	8b f8		 mov	 edi, eax
  0016a	b8 01 00 00 00	 mov	 eax, 1
  0016f	89 4d 08	 mov	 DWORD PTR tv653[ebp], ecx
  00172	db 45 08	 fild	 DWORD PTR tv653[ebp]
  00175	85 c9		 test	 ecx, ecx
  00177	79 06		 jns	 SHORT $LN67@ioCreateCh@2
  00179	d8 05 00 00 00
	00		 fadd	 DWORD PTR __real@4f800000
$LN67@ioCreateCh@2:
  0017f	83 ec 10	 sub	 esp, 16			; 00000010H
  00182	d9 5c 24 0c	 fstp	 DWORD PTR [esp+12]
  00186	89 55 08	 mov	 DWORD PTR tv651[ebp], edx
  00189	db 45 08	 fild	 DWORD PTR tv651[ebp]
  0018c	85 d2		 test	 edx, edx
  0018e	79 06		 jns	 SHORT $LN68@ioCreateCh@2
  00190	d8 05 00 00 00
	00		 fadd	 DWORD PTR __real@4f800000
$LN68@ioCreateCh@2:
  00196	d9 5c 24 08	 fstp	 DWORD PTR [esp+8]
  0019a	89 7d 08	 mov	 DWORD PTR tv649[ebp], edi
  0019d	db 45 08	 fild	 DWORD PTR tv649[ebp]
  001a0	85 ff		 test	 edi, edi
  001a2	79 06		 jns	 SHORT $LN69@ioCreateCh@2
  001a4	d8 05 00 00 00
	00		 fadd	 DWORD PTR __real@4f800000
$LN69@ioCreateCh@2:
  001aa	d9 5c 24 04	 fstp	 DWORD PTR [esp+4]
  001ae	89 45 08	 mov	 DWORD PTR tv647[ebp], eax
  001b1	db 45 08	 fild	 DWORD PTR tv647[ebp]
  001b4	85 c0		 test	 eax, eax
  001b6	79 06		 jns	 SHORT $LN70@ioCreateCh@2
  001b8	d8 05 00 00 00
	00		 fadd	 DWORD PTR __real@4f800000
$LN70@ioCreateCh@2:
  001be	8d 46 20	 lea	 eax, DWORD PTR [esi+32]
  001c1	d9 1c 24	 fstp	 DWORD PTR [esp]
  001c4	50		 push	 eax
  001c5	e8 00 00 00 00	 call	 ?InitColorValue@Help@@YAXAAU_D3DCOLORVALUE@@MMMM@Z ; Help::InitColorValue
  001ca	83 c4 14	 add	 esp, 20			; 00000014H

; 16   : 
; 17   : 	Help::InitColorValue( m_HairOutLineColor, 0.0f, 0.0f, 0.0f, FLOAT1 );

  001cd	b8 01 00 00 00	 mov	 eax, 1
  001d2	89 45 08	 mov	 DWORD PTR tv636[ebp], eax
  001d5	db 45 08	 fild	 DWORD PTR tv636[ebp]
  001d8	85 c0		 test	 eax, eax
  001da	79 06		 jns	 SHORT $LN71@ioCreateCh@2
  001dc	d8 05 00 00 00
	00		 fadd	 DWORD PTR __real@4f800000
$LN71@ioCreateCh@2:
  001e2	0f 57 c0	 xorps	 xmm0, xmm0
  001e5	83 ec 10	 sub	 esp, 16			; 00000010H
  001e8	d9 5c 24 0c	 fstp	 DWORD PTR [esp+12]
  001ec	f3 0f 11 44 24
	08		 movss	 DWORD PTR [esp+8], xmm0
  001f2	f3 0f 11 44 24
	04		 movss	 DWORD PTR [esp+4], xmm0
  001f8	8d 46 50	 lea	 eax, DWORD PTR [esi+80]
  001fb	f3 0f 11 04 24	 movss	 DWORD PTR [esp], xmm0
  00200	50		 push	 eax
  00201	e8 00 00 00 00	 call	 ?InitColorValue@Help@@YAXAAU_D3DCOLORVALUE@@MMMM@Z ; Help::InitColorValue
  00206	83 c4 14	 add	 esp, 20			; 00000014H

; 18   : 	Help::InitColorValue( m_BeardOutLineColor, 0.0f, 0.0f, 0.0f, FLOAT1 );

  00209	b8 01 00 00 00	 mov	 eax, 1
  0020e	89 45 08	 mov	 DWORD PTR tv624[ebp], eax
  00211	db 45 08	 fild	 DWORD PTR tv624[ebp]
  00214	85 c0		 test	 eax, eax
  00216	79 06		 jns	 SHORT $LN72@ioCreateCh@2
  00218	d8 05 00 00 00
	00		 fadd	 DWORD PTR __real@4f800000
$LN72@ioCreateCh@2:
  0021e	0f 57 c0	 xorps	 xmm0, xmm0
  00221	83 ec 10	 sub	 esp, 16			; 00000010H
  00224	d9 5c 24 0c	 fstp	 DWORD PTR [esp+12]
  00228	f3 0f 11 44 24
	08		 movss	 DWORD PTR [esp+8], xmm0
  0022e	f3 0f 11 44 24
	04		 movss	 DWORD PTR [esp+4], xmm0
  00234	8d 46 70	 lea	 eax, DWORD PTR [esi+112]
  00237	f3 0f 11 04 24	 movss	 DWORD PTR [esp], xmm0
  0023c	50		 push	 eax
  0023d	e8 00 00 00 00	 call	 ?InitColorValue@Help@@YAXAAU_D3DCOLORVALUE@@MMMM@Z ; Help::InitColorValue
  00242	83 c4 14	 add	 esp, 20			; 00000014H
  00245	6a 04		 push	 4
  00247	8b fb		 mov	 edi, ebx
  00249	5b		 pop	 ebx
$LL7@ioCreateCh@2:

; 19   : 
; 20   : 	for(int i = 0;i < MAX_CCS;i++)
; 21   : 	{
; 22   : 		m_ItemSlot[i].dwItemCode = 0;

  0024a	33 c0		 xor	 eax, eax
  0024c	89 07		 mov	 DWORD PTR [edi], eax

; 23   : 		m_ItemSlot[i].dwItemMaleCustom = m_ItemSlot[i].dwItemFemaleCustom = 0;

  0024e	89 47 08	 mov	 DWORD PTR [edi+8], eax
  00251	89 47 04	 mov	 DWORD PTR [edi+4], eax

; 24   : 		m_ItemSlot[i].vCustomTexList.clear();

  00254	8b 47 10	 mov	 eax, DWORD PTR [edi+16]
  00257	8d 4f 0c	 lea	 ecx, DWORD PTR [edi+12]
  0025a	8b 11		 mov	 edx, DWORD PTR [ecx]
  0025c	50		 push	 eax
  0025d	52		 push	 edx
  0025e	8d 45 08	 lea	 eax, DWORD PTR $T574769[ebp]
  00261	50		 push	 eax
  00262	e8 00 00 00 00	 call	 ?erase@?$vector@UCustomTexture@@V?$allocator@UCustomTexture@@@std@@@std@@QAE?AV?$_Vector_iterator@V?$_Vector_val@UCustomTexture@@V?$allocator@UCustomTexture@@@std@@@std@@@2@V?$_Vector_const_iterator@V?$_Vector_val@UCustomTexture@@V?$allocator@UCustomTexture@@@std@@@std@@@2@0@Z ; std::vector<CustomTexture,std::allocator<CustomTexture> >::erase
  00267	83 c7 1c	 add	 edi, 28			; 0000001cH
  0026a	4b		 dec	 ebx
  0026b	75 dd		 jne	 SHORT $LL7@ioCreateCh@2

; 25   : 	}
; 26   : 
; 27   : 	m_iFaceType = -1;
; 28   : 	m_dwFaceChangeTime = 0;
; 29   : 
; 30   : 	m_dwMotionItemAniMaxTime = 0;
; 31   : 	m_dwMotionItemAniCurTime = 0;
; 32   : 	m_bMotionItemDelay       = false;
; 33   : 
; 34   : 	if( m_pGrp )

  0026d	8b 4e 04	 mov	 ecx, DWORD PTR [esi+4]
  00270	83 8e 14 02 00
	00 ff		 or	 DWORD PTR [esi+532], -1
  00277	33 c0		 xor	 eax, eax
  00279	89 86 18 02 00
	00		 mov	 DWORD PTR [esi+536], eax
  0027f	89 86 1c 02 00
	00		 mov	 DWORD PTR [esi+540], eax
  00285	89 86 20 02 00
	00		 mov	 DWORD PTR [esi+544], eax
  0028b	88 86 34 02 00
	00		 mov	 BYTE PTR [esi+564], al
  00291	3b c8		 cmp	 ecx, eax
  00293	74 07		 je	 SHORT $LN4@ioCreateCh@2

; 35   : 		m_pGrp->SetEventParent( this );

  00295	56		 push	 esi
  00296	ff 15 00 00 00
	00		 call	 DWORD PTR __imp_?SetEventParent@ioEntityGroup@@QAEXPAVioEntityEvent@@@Z
$LN4@ioCreateCh@2:

; 36   : 
; 37   : 	g_CustomTextureMgr.CreateNewUIChar( (DWORD)this );

  0029c	56		 push	 esi
  0029d	e8 00 00 00 00	 call	 ?GetSingleton@ioCustomTextureMgr@@SAAAV1@XZ ; ioCustomTextureMgr::GetSingleton
  002a2	8b c8		 mov	 ecx, eax
  002a4	e8 00 00 00 00	 call	 ?CreateNewUIChar@ioCustomTextureMgr@@QAEXK@Z ; ioCustomTextureMgr::CreateNewUIChar
  002a9	6a 04		 push	 4
  002ab	8d be 38 02 00
	00		 lea	 edi, DWORD PTR [esi+568]
  002b1	5b		 pop	 ebx
$LL3@ioCreateCh@2:

; 38   : 
; 39   : 	for( int i = 0; i<MAX_CCS; i++ )
; 40   : 		m_CostumeSlot[i].Init();

  002b2	8b cf		 mov	 ecx, edi
  002b4	e8 00 00 00 00	 call	 ?Init@tagCostumeInfo@@QAEXXZ ; tagCostumeInfo::Init
  002b9	81 c7 dc 00 00
	00		 add	 edi, 220		; 000000dcH
  002bf	4b		 dec	 ebx
  002c0	75 f0		 jne	 SHORT $LL3@ioCreateCh@2

; 41   : }

  002c2	8b c6		 mov	 eax, esi
  002c4	e8 00 00 00 00	 call	 __EH_epilog3
  002c9	c2 04 00	 ret	 4
_TEXT	ENDS
;	COMDAT text$x
text$x	SEGMENT
__unwindfunclet$??0ioCreateChar@@QAE@PAVioEntityGroup@@@Z$0:
  00000	8b 4d f0	 mov	 ecx, DWORD PTR _this$[ebp]
  00003	ff 25 00 00 00
	00		 jmp	 DWORD PTR __imp_??1ioEntityEvent@@UAE@XZ
__unwindfunclet$??0ioCreateChar@@QAE@PAVioEntityGroup@@@Z$1:
  00009	8b 4d f0	 mov	 ecx, DWORD PTR _this$[ebp]
  0000c	83 c1 0c	 add	 ecx, 12			; 0000000cH
  0000f	ff 25 00 00 00
	00		 jmp	 DWORD PTR __imp_??1ioHashString@@QAE@XZ
__unwindfunclet$??0ioCreateChar@@QAE@PAVioEntityGroup@@@Z$2:
  00015	8b 4d f0	 mov	 ecx, DWORD PTR _this$[ebp]
  00018	83 c1 40	 add	 ecx, 64			; 00000040H
  0001b	ff 25 00 00 00
	00		 jmp	 DWORD PTR __imp_??1ioHashString@@QAE@XZ
__unwindfunclet$??0ioCreateChar@@QAE@PAVioEntityGroup@@@Z$3:
  00021	8b 4d f0	 mov	 ecx, DWORD PTR _this$[ebp]
  00024	83 c1 60	 add	 ecx, 96			; 00000060H
  00027	ff 25 00 00 00
	00		 jmp	 DWORD PTR __imp_??1ioHashString@@QAE@XZ
__unwindfunclet$??0ioCreateChar@@QAE@PAVioEntityGroup@@@Z$4:
  0002d	68 00 00 00 00	 push	 OFFSET ??1EquipItemInfo@ioCreateChar@@QAE@XZ
  00032	6a 04		 push	 4
  00034	6a 1c		 push	 28			; 0000001cH
  00036	8b 45 f0	 mov	 eax, DWORD PTR _this$[ebp]
  00039	05 80 00 00 00	 add	 eax, 128		; 00000080H
  0003e	50		 push	 eax
  0003f	e8 00 00 00 00	 call	 ??_M@YGXPAXIHP6EX0@Z@Z
  00044	c3		 ret	 0
__unwindfunclet$??0ioCreateChar@@QAE@PAVioEntityGroup@@@Z$5:
  00045	8b 4d f0	 mov	 ecx, DWORD PTR _this$[ebp]
  00048	81 c1 f0 00 00
	00		 add	 ecx, 240		; 000000f0H
  0004e	ff 25 00 00 00
	00		 jmp	 DWORD PTR __imp_??1ioHashString@@QAE@XZ
__unwindfunclet$??0ioCreateChar@@QAE@PAVioEntityGroup@@@Z$6:
  00054	8b 4d f0	 mov	 ecx, DWORD PTR _this$[ebp]
  00057	81 c1 00 01 00
	00		 add	 ecx, 256		; 00000100H
  0005d	ff 25 00 00 00
	00		 jmp	 DWORD PTR __imp_??1ioHashString@@QAE@XZ
__unwindfunclet$??0ioCreateChar@@QAE@PAVioEntityGroup@@@Z$7:
  00063	8b 4d f0	 mov	 ecx, DWORD PTR _this$[ebp]
  00066	81 c1 10 01 00
	00		 add	 ecx, 272		; 00000110H
  0006c	ff 25 00 00 00
	00		 jmp	 DWORD PTR __imp_??1ioHashString@@QAE@XZ
__unwindfunclet$??0ioCreateChar@@QAE@PAVioEntityGroup@@@Z$8:
  00072	8b 4d f0	 mov	 ecx, DWORD PTR _this$[ebp]
  00075	81 c1 20 01 00
	00		 add	 ecx, 288		; 00000120H
  0007b	ff 25 00 00 00
	00		 jmp	 DWORD PTR __imp_??1ioHashString@@QAE@XZ
__unwindfunclet$??0ioCreateChar@@QAE@PAVioEntityGroup@@@Z$9:
  00081	8b 4d f0	 mov	 ecx, DWORD PTR _this$[ebp]
  00084	81 c1 30 01 00
	00		 add	 ecx, 304		; 00000130H
  0008a	ff 25 00 00 00
	00		 jmp	 DWORD PTR __imp_??1ioHashString@@QAE@XZ
__unwindfunclet$??0ioCreateChar@@QAE@PAVioEntityGroup@@@Z$10:
  00090	8b 4d f0	 mov	 ecx, DWORD PTR _this$[ebp]
  00093	81 c1 40 01 00
	00		 add	 ecx, 320		; 00000140H
  00099	ff 25 00 00 00
	00		 jmp	 DWORD PTR __imp_??1ioHashString@@QAE@XZ
__unwindfunclet$??0ioCreateChar@@QAE@PAVioEntityGroup@@@Z$11:
  0009f	8b 4d f0	 mov	 ecx, DWORD PTR _this$[ebp]
  000a2	81 c1 50 01 00
	00		 add	 ecx, 336		; 00000150H
  000a8	ff 25 00 00 00
	00		 jmp	 DWORD PTR __imp_??1ioHashString@@QAE@XZ
__unwindfunclet$??0ioCreateChar@@QAE@PAVioEntityGroup@@@Z$12:
  000ae	8b 4d f0	 mov	 ecx, DWORD PTR _this$[ebp]
  000b1	81 c1 60 01 00
	00		 add	 ecx, 352		; 00000160H
  000b7	ff 25 00 00 00
	00		 jmp	 DWORD PTR __imp_??1ioHashString@@QAE@XZ
__unwindfunclet$??0ioCreateChar@@QAE@PAVioEntityGroup@@@Z$13:
  000bd	8b 4d f0	 mov	 ecx, DWORD PTR _this$[ebp]
  000c0	81 c1 70 01 00
	00		 add	 ecx, 368		; 00000170H
  000c6	ff 25 00 00 00
	00		 jmp	 DWORD PTR __imp_??1ioHashString@@QAE@XZ
__unwindfunclet$??0ioCreateChar@@QAE@PAVioEntityGroup@@@Z$14:
  000cc	8b 4d f0	 mov	 ecx, DWORD PTR _this$[ebp]
  000cf	81 c1 80 01 00
	00		 add	 ecx, 384		; 00000180H
  000d5	ff 25 00 00 00
	00		 jmp	 DWORD PTR __imp_??1ioHashString@@QAE@XZ
__unwindfunclet$??0ioCreateChar@@QAE@PAVioEntityGroup@@@Z$15:
  000db	8b 4d f0	 mov	 ecx, DWORD PTR _this$[ebp]
  000de	81 c1 90 01 00
	00		 add	 ecx, 400		; 00000190H
  000e4	ff 25 00 00 00
	00		 jmp	 DWORD PTR __imp_??1ioHashString@@QAE@XZ
__unwindfunclet$??0ioCreateChar@@QAE@PAVioEntityGroup@@@Z$16:
  000ea	8b 4d f0	 mov	 ecx, DWORD PTR _this$[ebp]
  000ed	81 c1 a0 01 00
	00		 add	 ecx, 416		; 000001a0H
  000f3	ff 25 00 00 00
	00		 jmp	 DWORD PTR __imp_??1ioHashString@@QAE@XZ
__unwindfunclet$??0ioCreateChar@@QAE@PAVioEntityGroup@@@Z$17:
  000f9	8b 4d f0	 mov	 ecx, DWORD PTR _this$[ebp]
  000fc	81 c1 b0 01 00
	00		 add	 ecx, 432		; 000001b0H
  00102	ff 25 00 00 00
	00		 jmp	 DWORD PTR __imp_??1ioOrientBox@@QAE@XZ
__unwindfunclet$??0ioCreateChar@@QAE@PAVioEntityGroup@@@Z$18:
  00108	8b 4d f0	 mov	 ecx, DWORD PTR _this$[ebp]
  0010b	81 c1 f4 01 00
	00		 add	 ecx, 500		; 000001f4H
  00111	ff 25 00 00 00
	00		 jmp	 DWORD PTR __imp_??1ioHashString@@QAE@XZ
__unwindfunclet$??0ioCreateChar@@QAE@PAVioEntityGroup@@@Z$19:
  00117	8b 4d f0	 mov	 ecx, DWORD PTR _this$[ebp]
  0011a	81 c1 04 02 00
	00		 add	 ecx, 516		; 00000204H
  00120	ff 25 00 00 00
	00		 jmp	 DWORD PTR __imp_??1ioHashString@@QAE@XZ
__unwindfunclet$??0ioCreateChar@@QAE@PAVioEntityGroup@@@Z$20:
  00126	8b 4d f0	 mov	 ecx, DWORD PTR _this$[ebp]
  00129	81 c1 24 02 00
	00		 add	 ecx, 548		; 00000224H
  0012f	ff 25 00 00 00
	00		 jmp	 DWORD PTR __imp_??1ioHashString@@QAE@XZ
__unwindfunclet$??0ioCreateChar@@QAE@PAVioEntityGroup@@@Z$21:
  00135	68 00 00 00 00	 push	 OFFSET ??1tagCostumeInfo@@QAE@XZ
  0013a	6a 04		 push	 4
  0013c	68 dc 00 00 00	 push	 220			; 000000dcH
  00141	8b 45 f0	 mov	 eax, DWORD PTR _this$[ebp]
  00144	05 38 02 00 00	 add	 eax, 568		; 00000238H
  00149	50		 push	 eax
  0014a	e8 00 00 00 00	 call	 ??_M@YGXPAXIHP6EX0@Z@Z
  0014f	c3		 ret	 0
__ehhandler$??0ioCreateChar@@QAE@PAVioEntityGroup@@@Z:
  00150	8b 54 24 08	 mov	 edx, DWORD PTR [esp+8]
  00154	8d 42 0c	 lea	 eax, DWORD PTR [edx+12]
  00157	8b 4a ec	 mov	 ecx, DWORD PTR [edx-20]
  0015a	33 c8		 xor	 ecx, eax
  0015c	e8 00 00 00 00	 call	 @__security_check_cookie@4
  00161	b8 00 00 00 00	 mov	 eax, OFFSET __ehfuncinfo$??0ioCreateChar@@QAE@PAVioEntityGroup@@@Z
  00166	e9 00 00 00 00	 jmp	 ___CxxFrameHandler3
text$x	ENDS
??0ioCreateChar@@QAE@PAVioEntityGroup@@@Z ENDP		; ioCreateChar::ioCreateChar
; Function compile flags: /Ogsp
;	COMDAT ??_GioCreateChar@@UAEPAXI@Z
_TEXT	SEGMENT
___flags$ = 8						; size = 4
??_GioCreateChar@@UAEPAXI@Z PROC			; ioCreateChar::`scalar deleting destructor', COMDAT
; _this$ = ecx
  00000	55		 push	 ebp
  00001	8b ec		 mov	 ebp, esp
  00003	56		 push	 esi
  00004	8b f1		 mov	 esi, ecx
  00006	e8 00 00 00 00	 call	 ??1ioCreateChar@@UAE@XZ	; ioCreateChar::~ioCreateChar
  0000b	f6 45 08 01	 test	 BYTE PTR ___flags$[ebp], 1
  0000f	74 07		 je	 SHORT $LN1@scalar@4
  00011	56		 push	 esi
  00012	e8 00 00 00 00	 call	 ??3@YAXPAX@Z		; operator delete
  00017	59		 pop	 ecx
$LN1@scalar@4:
  00018	8b c6		 mov	 eax, esi
  0001a	5e		 pop	 esi
  0001b	5d		 pop	 ebp
  0001c	c2 04 00	 ret	 4
??_GioCreateChar@@UAEPAXI@Z ENDP			; ioCreateChar::`scalar deleting destructor'
_TEXT	ENDS
PUBLIC	_pItem$GSCopy$
PUBLIC	?EquipArmor@ioCreateChar@@IAEXPBVioItem@@KKHH@Z	; ioCreateChar::EquipArmor
EXTRN	__imp_?AddRopeSpringCurve@ioEntityGroup@@QAE_NABVioHashString@@PBURopeSpringParam@@@Z:PROC
EXTRN	?HasHandMesh@ioArmorItem@@QBE_NPAVioBaseChar@@@Z:PROC ; ioArmorItem::HasHandMesh
;	COMDAT xdata$x
; File d:\lost saga for developer\youtube\tutorial\source\src\lsclient\ioitem.h
xdata$x	SEGMENT
__ehfuncinfo$?EquipArmor@ioCreateChar@@IAEXPBVioItem@@KKHH@Z DD 019930522H
	DD	06H
	DD	FLAT:__unwindtable$?EquipArmor@ioCreateChar@@IAEXPBVioItem@@KKHH@Z
	DD	2 DUP(00H)
	DD	2 DUP(00H)
	DD	00H
	DD	01H
__unwindtable$?EquipArmor@ioCreateChar@@IAEXPBVioItem@@KKHH@Z DD 0ffffffffH
	DD	FLAT:__unwindfunclet$?EquipArmor@ioCreateChar@@IAEXPBVioItem@@KKHH@Z$0
	DD	00H
	DD	FLAT:__unwindfunclet$?EquipArmor@ioCreateChar@@IAEXPBVioItem@@KKHH@Z$1
	DD	01H
	DD	FLAT:__unwindfunclet$?EquipArmor@ioCreateChar@@IAEXPBVioItem@@KKHH@Z$2
	DD	02H
	DD	FLAT:__unwindfunclet$?EquipArmor@ioCreateChar@@IAEXPBVioItem@@KKHH@Z$3
	DD	02H
	DD	FLAT:__unwindfunclet$?EquipArmor@ioCreateChar@@IAEXPBVioItem@@KKHH@Z$4
	DD	04H
	DD	FLAT:__unwindfunclet$?EquipArmor@ioCreateChar@@IAEXPBVioItem@@KKHH@Z$5
; Function compile flags: /Ogsp
; File d:\lost saga for developer\youtube\tutorial\source\src\lsclient\iocreatechar.cpp
xdata$x	ENDS
;	COMDAT ?EquipArmor@ioCreateChar@@IAEXPBVioItem@@KKHH@Z
_TEXT	SEGMENT
$T574808 = -324						; size = 16
_szSpringRope$ = -308					; size = 16
_szEquipEffect$ = -292					; size = 16
_szBodyMesh$ = -276					; size = 16
_szHandMesh$ = -260					; size = 16
_bSex$ = -244						; size = 1
_pItem$GSCopy$ = -244					; size = 4
_pArmor$ = -240						; size = 4
_sNewCostume$ = -236					; size = 220
__$EHRec$ = -12						; size = 12
_pItem$ = 8						; size = 4
_dwItemMaleCustom$ = 12					; size = 4
_dwItemFemaleCustom$ = 16				; size = 4
_nCostumeCode$ = 20					; size = 4
_bCostume$ = 24						; size = 4
?EquipArmor@ioCreateChar@@IAEXPBVioItem@@KKHH@Z PROC	; ioCreateChar::EquipArmor, COMDAT
; _this$ = ecx

; 704  : {

  00000	68 38 01 00 00	 push	 312			; 00000138H
  00005	b8 00 00 00 00	 mov	 eax, __ehhandler$?EquipArmor@ioCreateChar@@IAEXPBVioItem@@KKHH@Z
  0000a	e8 00 00 00 00	 call	 __EH_prolog3_GS
  0000f	8b 7d 08	 mov	 edi, DWORD PTR _pItem$[ebp]

; 705  : 	ReleaseArmorSlot( false );

  00012	33 db		 xor	 ebx, ebx
  00014	53		 push	 ebx
  00015	8b f1		 mov	 esi, ecx

; 706  : 	RemoveEntityInOwner( m_DefaultUnderwearMesh );
; 707  : 	RemoveEntityInOwner( m_DefaultHandMesh );
; 708  : 	
; 709  : 	CostumeInfo sNewCostume;
; 710  : 	g_CostumeInfoMgr.GetCostumeInfo( nCostumeCode, sNewCostume );
; 711  : 
; 712  : 	const ioArmorItem *pArmor = ToArmorItemConst( pItem );	

  00017	89 bd 0c ff ff
	ff		 mov	 DWORD PTR _pItem$GSCopy$[ebp], edi
  0001d	e8 00 00 00 00	 call	 ?ReleaseArmorSlot@ioCreateChar@@IAEX_N@Z ; ioCreateChar::ReleaseArmorSlot
  00022	53		 push	 ebx
  00023	8d 86 30 01 00
	00		 lea	 eax, DWORD PTR [esi+304]
  00029	50		 push	 eax
  0002a	8b ce		 mov	 ecx, esi
  0002c	e8 00 00 00 00	 call	 ?RemoveEntityInOwner@ioCreateChar@@IAE_NABVioHashString@@_N@Z ; ioCreateChar::RemoveEntityInOwner
  00031	8d 86 70 01 00
	00		 lea	 eax, DWORD PTR [esi+368]
  00037	53		 push	 ebx
  00038	50		 push	 eax
  00039	8b ce		 mov	 ecx, esi
  0003b	e8 00 00 00 00	 call	 ?RemoveEntityInOwner@ioCreateChar@@IAE_NABVioHashString@@_N@Z ; ioCreateChar::RemoveEntityInOwner
  00040	8d 8d 14 ff ff
	ff		 lea	 ecx, DWORD PTR _sNewCostume$[ebp]
  00046	e8 00 00 00 00	 call	 ??0tagCostumeInfo@@QAE@XZ ; tagCostumeInfo::tagCostumeInfo
  0004b	8d 85 14 ff ff
	ff		 lea	 eax, DWORD PTR _sNewCostume$[ebp]
  00051	50		 push	 eax
  00052	ff 75 14	 push	 DWORD PTR _nCostumeCode$[ebp]
  00055	89 5d fc	 mov	 DWORD PTR __$EHRec$[ebp+8], ebx
  00058	e8 00 00 00 00	 call	 ?GetSingleton@ioCostumeInfoManager@@SAAAV1@XZ ; ioCostumeInfoManager::GetSingleton
  0005d	8b c8		 mov	 ecx, eax
  0005f	e8 00 00 00 00	 call	 ?GetCostumeInfo@ioCostumeInfoManager@@QAE_NHAAUtagCostumeInfo@@@Z ; ioCostumeInfoManager::GetCostumeInfo
  00064	57		 push	 edi
  00065	e8 00 00 00 00	 call	 ?ToArmorItemConst@@YAPBVioArmorItem@@PBVioItem@@@Z ; ToArmorItemConst

; 713  : 
; 714  : 	ioHashString szEquipEffect;

  0006a	8b 3d 00 00 00
	00		 mov	 edi, DWORD PTR __imp_??0ioHashString@@QAE@XZ
  00070	59		 pop	 ecx
  00071	8d 8d dc fe ff
	ff		 lea	 ecx, DWORD PTR _szEquipEffect$[ebp]
  00077	89 85 10 ff ff
	ff		 mov	 DWORD PTR _pArmor$[ebp], eax
  0007d	ff d7		 call	 edi

; 715  : 	ioHashString szBodyMesh;

  0007f	8d 8d ec fe ff
	ff		 lea	 ecx, DWORD PTR _szBodyMesh$[ebp]
  00085	c6 45 fc 01	 mov	 BYTE PTR __$EHRec$[ebp+8], 1
  00089	ff d7		 call	 edi

; 716  : 	
; 717  : 	//  
; 718  : 	if ( sNewCostume.m_nCostumeCode > 0 )

  0008b	39 9d 14 ff ff
	ff		 cmp	 DWORD PTR _sNewCostume$[ebp], ebx
  00091	8b 1d 00 00 00
	00		 mov	 ebx, DWORD PTR __imp_??4ioHashString@@QAEAAV0@ABV0@@Z
  00097	c6 45 fc 02	 mov	 BYTE PTR __$EHRec$[ebp+8], 2
  0009b	7e 3a		 jle	 SHORT $LN15@EquipArmor

; 719  : 	{
; 720  : 		szEquipEffect = GetCostumeEffect( &sNewCostume );

  0009d	8d 85 14 ff ff
	ff		 lea	 eax, DWORD PTR _sNewCostume$[ebp]
  000a3	50		 push	 eax
  000a4	8d 85 bc fe ff
	ff		 lea	 eax, DWORD PTR $T574808[ebp]
  000aa	50		 push	 eax
  000ab	8b ce		 mov	 ecx, esi
  000ad	e8 00 00 00 00	 call	 ?GetCostumeEffect@ioCreateChar@@QAE?AVioHashString@@PBUtagCostumeInfo@@@Z ; ioCreateChar::GetCostumeEffect
  000b2	50		 push	 eax
  000b3	8d 8d dc fe ff
	ff		 lea	 ecx, DWORD PTR _szEquipEffect$[ebp]
  000b9	c6 45 fc 03	 mov	 BYTE PTR __$EHRec$[ebp+8], 3
  000bd	ff d3		 call	 ebx
  000bf	8d 8d bc fe ff
	ff		 lea	 ecx, DWORD PTR $T574808[ebp]
  000c5	c6 45 fc 02	 mov	 BYTE PTR __$EHRec$[ebp+8], 2
  000c9	ff 15 00 00 00
	00		 call	 DWORD PTR __imp_??1ioHashString@@QAE@XZ

; 721  : 		szBodyMesh = sNewCostume.m_szBodyMesh;

  000cf	8d 85 64 ff ff
	ff		 lea	 eax, DWORD PTR _sNewCostume$[ebp+80]
  000d5	eb 2a		 jmp	 SHORT $LN27@EquipArmor
$LN15@EquipArmor:

; 722  : 	}
; 723  : 	else if( pArmor )

  000d7	8b 8d 10 ff ff
	ff		 mov	 ecx, DWORD PTR _pArmor$[ebp]
  000dd	85 c9		 test	 ecx, ecx
  000df	74 29		 je	 SHORT $LN13@EquipArmor

; 724  : 	{
; 725  : 		szEquipEffect = pArmor->GetItemEquipEffect( m_bMale );

  000e1	0f b6 46 1c	 movzx	 eax, BYTE PTR [esi+28]
  000e5	50		 push	 eax
  000e6	e8 00 00 00 00	 call	 ?GetItemEquipEffect@ioItem@@QBEABVioHashString@@_N@Z ; ioItem::GetItemEquipEffect
  000eb	50		 push	 eax
  000ec	8d 8d dc fe ff
	ff		 lea	 ecx, DWORD PTR _szEquipEffect$[ebp]
  000f2	ff d3		 call	 ebx

; 726  : 		szBodyMesh = pArmor->GetBodyMesh(NULL);

  000f4	8b 8d 10 ff ff
	ff		 mov	 ecx, DWORD PTR _pArmor$[ebp]
  000fa	6a 00		 push	 0
  000fc	e8 00 00 00 00	 call	 ?GetBodyMesh@ioArmorItem@@QBEABVioHashString@@PAVioBaseChar@@@Z ; ioArmorItem::GetBodyMesh
$LN27@EquipArmor:
  00101	50		 push	 eax
  00102	8d 8d ec fe ff
	ff		 lea	 ecx, DWORD PTR _szBodyMesh$[ebp]
  00108	ff d3		 call	 ebx
$LN13@EquipArmor:

; 727  : 	}
; 728  : 
; 729  : 	if( !szEquipEffect.IsEmpty() )

  0010a	8d 8d dc fe ff
	ff		 lea	 ecx, DWORD PTR _szEquipEffect$[ebp]
  00110	ff 15 00 00 00
	00		 call	 DWORD PTR __imp_?IsEmpty@ioHashString@@QBE_NXZ
  00116	84 c0		 test	 al, al
  00118	75 1c		 jne	 SHORT $LN12@EquipArmor

; 730  : 	{
; 731  : 		AttachEffect( szEquipEffect, NULL );

  0011a	6a 00		 push	 0
  0011c	8d 85 dc fe ff
	ff		 lea	 eax, DWORD PTR _szEquipEffect$[ebp]
  00122	50		 push	 eax
  00123	8b ce		 mov	 ecx, esi
  00125	e8 00 00 00 00	 call	 ?AttachEffect@ioCreateChar@@QAEPAVioEffect@@ABVioHashString@@PAVioEntityEvent@@@Z ; ioCreateChar::AttachEffect

; 732  : 		szEquipEffect.Clear();

  0012a	8d 8d dc fe ff
	ff		 lea	 ecx, DWORD PTR _szEquipEffect$[ebp]
  00130	ff 15 00 00 00
	00		 call	 DWORD PTR __imp_?Clear@ioHashString@@QAEXXZ
$LN12@EquipArmor:

; 733  : 	}
; 734  : 
; 735  : 	if ( pArmor && !szBodyMesh.IsEmpty() )

  00136	83 bd 10 ff ff
	ff 00		 cmp	 DWORD PTR _pArmor$[ebp], 0
  0013d	74 46		 je	 SHORT $LN11@EquipArmor
  0013f	8d 8d ec fe ff
	ff		 lea	 ecx, DWORD PTR _szBodyMesh$[ebp]
  00145	ff 15 00 00 00
	00		 call	 DWORD PTR __imp_?IsEmpty@ioHashString@@QBE_NXZ
  0014b	84 c0		 test	 al, al
  0014d	75 36		 jne	 SHORT $LN11@EquipArmor

; 736  : 	{
; 737  : 		EquipSlotData( CCS_ARMOR, pItem->GetItemCode(), dwItemMaleCustom, dwItemFemaleCustom );

  0014f	ff 75 10	 push	 DWORD PTR _dwItemFemaleCustom$[ebp]
  00152	8b 85 0c ff ff
	ff		 mov	 eax, DWORD PTR _pItem$GSCopy$[ebp]
  00158	ff 75 0c	 push	 DWORD PTR _dwItemMaleCustom$[ebp]
  0015b	8b 40 38	 mov	 eax, DWORD PTR [eax+56]
  0015e	50		 push	 eax
  0015f	6a 01		 push	 1
  00161	8b ce		 mov	 ecx, esi
  00163	e8 00 00 00 00	 call	 ?EquipSlotData@ioCreateChar@@IAEXHKKK@Z ; ioCreateChar::EquipSlotData

; 738  : 		EquipSlotEntity( CCS_ARMOR, AddEntityToOwner( szBodyMesh, true ), bCostume );

  00168	ff 75 18	 push	 DWORD PTR _bCostume$[ebp]
  0016b	8d 85 ec fe ff
	ff		 lea	 eax, DWORD PTR _szBodyMesh$[ebp]
  00171	6a 01		 push	 1
  00173	50		 push	 eax
  00174	8b ce		 mov	 ecx, esi
  00176	e8 00 00 00 00	 call	 ?AddEntityToOwner@ioCreateChar@@IAEPAVioEntity@@ABVioHashString@@_N@Z ; ioCreateChar::AddEntityToOwner
  0017b	50		 push	 eax
  0017c	6a 01		 push	 1
  0017e	8b ce		 mov	 ecx, esi
  00180	e8 00 00 00 00	 call	 ?EquipSlotEntity@ioCreateChar@@IAEXHPAVioEntity@@H@Z ; ioCreateChar::EquipSlotEntity
$LN11@EquipArmor:

; 739  : 	}
; 740  : 
; 741  : 	szBodyMesh.Clear();

  00185	8d 8d ec fe ff
	ff		 lea	 ecx, DWORD PTR _szBodyMesh$[ebp]
  0018b	ff 15 00 00 00
	00		 call	 DWORD PTR __imp_?Clear@ioHashString@@QAEXXZ

; 742  : 	bool bSex = true;
; 743  : 	
; 744  : 	//
; 745  : 	ioHashString szHandMesh;

  00191	8d 8d fc fe ff
	ff		 lea	 ecx, DWORD PTR _szHandMesh$[ebp]
  00197	c6 85 0c ff ff
	ff 01		 mov	 BYTE PTR _bSex$[ebp], 1
  0019e	ff d7		 call	 edi

; 746  : 	const ioWeaponItem *pWeapon = ToWeaponItemConst( GetSlotItem( CCS_WEAPON ) );

  001a0	6a 00		 push	 0
  001a2	8b ce		 mov	 ecx, esi
  001a4	c6 45 fc 04	 mov	 BYTE PTR __$EHRec$[ebp+8], 4
  001a8	e8 00 00 00 00	 call	 ?GetSlotItem@ioCreateChar@@QAEPBVioItem@@H@Z ; ioCreateChar::GetSlotItem
  001ad	50		 push	 eax
  001ae	e8 00 00 00 00	 call	 ?ToWeaponItemConst@@YAPBVioWeaponItem@@PBVioItem@@@Z ; ToWeaponItemConst

; 747  : 	if( !ToHookItem(pWeapon) )

  001b3	50		 push	 eax
  001b4	e8 00 00 00 00	 call	 ?ToHookItem@@YAPBVioHookItem@@PBVioWeaponItem@@@Z ; ToHookItem
  001b9	59		 pop	 ecx
  001ba	59		 pop	 ecx
  001bb	85 c0		 test	 eax, eax
  001bd	0f 85 9a 00 00
	00		 jne	 $LN10@EquipArmor

; 748  : 	{
; 749  : 		//  
; 750  : 		if ( sNewCostume.m_nCostumeCode > 0 )

  001c3	39 85 14 ff ff
	ff		 cmp	 DWORD PTR _sNewCostume$[ebp], eax
  001c9	7e 08		 jle	 SHORT $LN9@EquipArmor

; 751  : 			szHandMesh = sNewCostume.m_szHandMesh;

  001cb	8d 85 74 ff ff
	ff		 lea	 eax, DWORD PTR _sNewCostume$[ebp+96]
  001d1	eb 1e		 jmp	 SHORT $LN28@EquipArmor
$LN9@EquipArmor:

; 752  : 		else if( pArmor->HasHandMesh(NULL) )

  001d3	8b 8d 10 ff ff
	ff		 mov	 ecx, DWORD PTR _pArmor$[ebp]
  001d9	6a 00		 push	 0
  001db	e8 00 00 00 00	 call	 ?HasHandMesh@ioArmorItem@@QBE_NPAVioBaseChar@@@Z ; ioArmorItem::HasHandMesh
  001e0	84 c0		 test	 al, al
  001e2	74 16		 je	 SHORT $LN7@EquipArmor

; 753  : 			szHandMesh = pArmor->GetHandMesh(NULL);

  001e4	8b 8d 10 ff ff
	ff		 mov	 ecx, DWORD PTR _pArmor$[ebp]
  001ea	6a 00		 push	 0
  001ec	e8 00 00 00 00	 call	 ?GetHandMesh@ioArmorItem@@QBEABVioHashString@@PAVioBaseChar@@@Z ; ioArmorItem::GetHandMesh
$LN28@EquipArmor:
  001f1	50		 push	 eax
  001f2	8d 8d fc fe ff
	ff		 lea	 ecx, DWORD PTR _szHandMesh$[ebp]
  001f8	ff d3		 call	 ebx
$LN7@EquipArmor:

; 754  : 		
; 755  : 		if ( szHandMesh.IsEmpty() )

  001fa	8d 8d fc fe ff
	ff		 lea	 ecx, DWORD PTR _szHandMesh$[ebp]
  00200	ff 15 00 00 00
	00		 call	 DWORD PTR __imp_?IsEmpty@ioHashString@@QBE_NXZ
  00206	84 c0		 test	 al, al
  00208	74 16		 je	 SHORT $LN6@EquipArmor

; 756  : 		{
; 757  : 			szHandMesh = m_DefaultHandMesh;

  0020a	8d 86 70 01 00
	00		 lea	 eax, DWORD PTR [esi+368]
  00210	50		 push	 eax
  00211	8d 8d fc fe ff
	ff		 lea	 ecx, DWORD PTR _szHandMesh$[ebp]
  00217	ff d3		 call	 ebx

; 758  : 			bSex = false;

  00219	c6 85 0c ff ff
	ff 00		 mov	 BYTE PTR _bSex$[ebp], 0
$LN6@EquipArmor:

; 759  : 		}
; 760  : 
; 761  : 		if ( !szHandMesh.IsEmpty() )

  00220	8d 8d fc fe ff
	ff		 lea	 ecx, DWORD PTR _szHandMesh$[ebp]
  00226	ff 15 00 00 00
	00		 call	 DWORD PTR __imp_?IsEmpty@ioHashString@@QBE_NXZ
  0022c	84 c0		 test	 al, al
  0022e	75 21		 jne	 SHORT $LN5@EquipArmor

; 762  : 		{
; 763  : 			EquipSlotEntity( CCS_ARMOR, AddEntityToOwner( szHandMesh, bSex ), bCostume );

  00230	ff 75 18	 push	 DWORD PTR _bCostume$[ebp]
  00233	8d 85 fc fe ff
	ff		 lea	 eax, DWORD PTR _szHandMesh$[ebp]
  00239	ff b5 0c ff ff
	ff		 push	 DWORD PTR _bSex$[ebp]
  0023f	8b ce		 mov	 ecx, esi
  00241	50		 push	 eax
  00242	e8 00 00 00 00	 call	 ?AddEntityToOwner@ioCreateChar@@IAEPAVioEntity@@ABVioHashString@@_N@Z ; ioCreateChar::AddEntityToOwner
  00247	50		 push	 eax
  00248	6a 01		 push	 1
  0024a	8b ce		 mov	 ecx, esi
  0024c	e8 00 00 00 00	 call	 ?EquipSlotEntity@ioCreateChar@@IAEXHPAVioEntity@@H@Z ; ioCreateChar::EquipSlotEntity
$LN5@EquipArmor:

; 764  : 		}
; 765  : 
; 766  : 		szHandMesh.Clear();

  00251	8d 8d fc fe ff
	ff		 lea	 ecx, DWORD PTR _szHandMesh$[ebp]
  00257	ff 15 00 00 00
	00		 call	 DWORD PTR __imp_?Clear@ioHashString@@QAEXXZ
$LN10@EquipArmor:

; 767  : 		bSex = true;
; 768  : 	}
; 769  : 
; 770  : 	ioHashString szSpringRope;

  0025d	8d 8d cc fe ff
	ff		 lea	 ecx, DWORD PTR _szSpringRope$[ebp]
  00263	ff d7		 call	 edi

; 771  : 	const RopeSpringParam *pSpringParam = NULL;

  00265	33 ff		 xor	 edi, edi
  00267	c6 45 fc 05	 mov	 BYTE PTR __$EHRec$[ebp+8], 5

; 772  : 
; 773  : 	if ( sNewCostume.m_nCostumeCode > 0 )

  0026b	39 bd 14 ff ff
	ff		 cmp	 DWORD PTR _sNewCostume$[ebp], edi
  00271	7e 14		 jle	 SHORT $LN4@EquipArmor

; 774  : 	{
; 775  : 		szSpringRope = sNewCostume.m_szSpring_Biped;

  00273	8d 85 4c ff ff
	ff		 lea	 eax, DWORD PTR _sNewCostume$[ebp+56]
  00279	50		 push	 eax
  0027a	8d 8d cc fe ff
	ff		 lea	 ecx, DWORD PTR _szSpringRope$[ebp]
  00280	ff d3		 call	 ebx

; 776  : 		pSpringParam = sNewCostume.m_pCostumeSpringParam;

  00282	8b 7d b8	 mov	 edi, DWORD PTR _sNewCostume$[ebp+164]
  00285	eb 30		 jmp	 SHORT $LN2@EquipArmor
$LN4@EquipArmor:

; 777  : 	}
; 778  : 	else if( pArmor->HasSpringRope() )

  00287	8b 8d 10 ff ff
	ff		 mov	 ecx, DWORD PTR _pArmor$[ebp]
  0028d	e8 00 00 00 00	 call	 ?HasSpringRope@ioArmorItem@@QBE_NXZ ; ioArmorItem::HasSpringRope
  00292	84 c0		 test	 al, al
  00294	74 21		 je	 SHORT $LN2@EquipArmor

; 779  : 	{
; 780  : 		szSpringRope = pArmor->GetSpringBiped();

  00296	8b 8d 10 ff ff
	ff		 mov	 ecx, DWORD PTR _pArmor$[ebp]
  0029c	e8 00 00 00 00	 call	 ?GetSpringBiped@ioArmorItem@@QBEABVioHashString@@XZ ; ioArmorItem::GetSpringBiped
  002a1	50		 push	 eax
  002a2	8d 8d cc fe ff
	ff		 lea	 ecx, DWORD PTR _szSpringRope$[ebp]
  002a8	ff d3		 call	 ebx

; 781  : 		pSpringParam = pArmor->GetSpringParam();

  002aa	8b 8d 10 ff ff
	ff		 mov	 ecx, DWORD PTR _pArmor$[ebp]
  002b0	e8 00 00 00 00	 call	 ?GetSpringParam@ioArmorItem@@QBEPBURopeSpringParam@@XZ ; ioArmorItem::GetSpringParam
  002b5	8b f8		 mov	 edi, eax
$LN2@EquipArmor:

; 782  : 	}
; 783  : 
; 784  : 	if( !szSpringRope.IsEmpty() && pSpringParam && m_pGrp )

  002b7	8d 8d cc fe ff
	ff		 lea	 ecx, DWORD PTR _szSpringRope$[ebp]
  002bd	ff 15 00 00 00
	00		 call	 DWORD PTR __imp_?IsEmpty@ioHashString@@QBE_NXZ
  002c3	84 c0		 test	 al, al
  002c5	75 19		 jne	 SHORT $LN1@EquipArmor
  002c7	85 ff		 test	 edi, edi
  002c9	74 15		 je	 SHORT $LN1@EquipArmor
  002cb	8b 4e 04	 mov	 ecx, DWORD PTR [esi+4]
  002ce	85 c9		 test	 ecx, ecx
  002d0	74 0e		 je	 SHORT $LN1@EquipArmor

; 785  : 		m_pGrp->AddRopeSpringCurve( szSpringRope, pSpringParam );

  002d2	57		 push	 edi
  002d3	8d 85 cc fe ff
	ff		 lea	 eax, DWORD PTR _szSpringRope$[ebp]
  002d9	50		 push	 eax
  002da	ff 15 00 00 00
	00		 call	 DWORD PTR __imp_?AddRopeSpringCurve@ioEntityGroup@@QAE_NABVioHashString@@PBURopeSpringParam@@@Z
$LN1@EquipArmor:

; 786  : 
; 787  : 	SetSkinColor( m_SkinColor, m_SkinOutLineColor );

  002e0	8d 46 30	 lea	 eax, DWORD PTR [esi+48]
  002e3	50		 push	 eax
  002e4	8d 46 20	 lea	 eax, DWORD PTR [esi+32]
  002e7	50		 push	 eax
  002e8	8b ce		 mov	 ecx, esi
  002ea	e8 00 00 00 00	 call	 ?SetSkinColor@ioCreateChar@@QAEXABU_D3DCOLORVALUE@@0@Z ; ioCreateChar::SetSkinColor

; 788  : 
; 789  : 	m_CostumeSlot[CCS_ARMOR] = sNewCostume;

  002ef	8d 85 14 ff ff
	ff		 lea	 eax, DWORD PTR _sNewCostume$[ebp]
  002f5	50		 push	 eax
  002f6	8d 8e 14 03 00
	00		 lea	 ecx, DWORD PTR [esi+788]
  002fc	e8 00 00 00 00	 call	 ??4tagCostumeInfo@@QAEAAU0@ABU0@@Z

; 790  : }

  00301	8b 35 00 00 00
	00		 mov	 esi, DWORD PTR __imp_??1ioHashString@@QAE@XZ
  00307	8d 8d cc fe ff
	ff		 lea	 ecx, DWORD PTR _szSpringRope$[ebp]
  0030d	c6 45 fc 04	 mov	 BYTE PTR __$EHRec$[ebp+8], 4
  00311	ff d6		 call	 esi
  00313	8d 8d fc fe ff
	ff		 lea	 ecx, DWORD PTR _szHandMesh$[ebp]
  00319	c6 45 fc 02	 mov	 BYTE PTR __$EHRec$[ebp+8], 2
  0031d	ff d6		 call	 esi
  0031f	8d 8d ec fe ff
	ff		 lea	 ecx, DWORD PTR _szBodyMesh$[ebp]
  00325	c6 45 fc 01	 mov	 BYTE PTR __$EHRec$[ebp+8], 1
  00329	ff d6		 call	 esi
  0032b	8d 8d dc fe ff
	ff		 lea	 ecx, DWORD PTR _szEquipEffect$[ebp]
  00331	c6 45 fc 00	 mov	 BYTE PTR __$EHRec$[ebp+8], 0
  00335	ff d6		 call	 esi
  00337	83 4d fc ff	 or	 DWORD PTR __$EHRec$[ebp+8], -1
  0033b	8d 8d 14 ff ff
	ff		 lea	 ecx, DWORD PTR _sNewCostume$[ebp]
  00341	e8 00 00 00 00	 call	 ??1tagCostumeInfo@@QAE@XZ
  00346	e8 00 00 00 00	 call	 __EH_epilog3_GS
  0034b	c2 14 00	 ret	 20			; 00000014H
_TEXT	ENDS
;	COMDAT text$x
text$x	SEGMENT
__unwindfunclet$?EquipArmor@ioCreateChar@@IAEXPBVioItem@@KKHH@Z$0:
  00000	8d 8d 14 ff ff
	ff		 lea	 ecx, DWORD PTR _sNewCostume$[ebp]
  00006	e9 00 00 00 00	 jmp	 ??1tagCostumeInfo@@QAE@XZ
__unwindfunclet$?EquipArmor@ioCreateChar@@IAEXPBVioItem@@KKHH@Z$1:
  0000b	8d 8d dc fe ff
	ff		 lea	 ecx, DWORD PTR _szEquipEffect$[ebp]
  00011	ff 25 00 00 00
	00		 jmp	 DWORD PTR __imp_??1ioHashString@@QAE@XZ
__unwindfunclet$?EquipArmor@ioCreateChar@@IAEXPBVioItem@@KKHH@Z$2:
  00017	8d 8d ec fe ff
	ff		 lea	 ecx, DWORD PTR _szBodyMesh$[ebp]
  0001d	ff 25 00 00 00
	00		 jmp	 DWORD PTR __imp_??1ioHashString@@QAE@XZ
__unwindfunclet$?EquipArmor@ioCreateChar@@IAEXPBVioItem@@KKHH@Z$3:
  00023	8d 8d bc fe ff
	ff		 lea	 ecx, DWORD PTR $T574808[ebp]
  00029	ff 25 00 00 00
	00		 jmp	 DWORD PTR __imp_??1ioHashString@@QAE@XZ
__unwindfunclet$?EquipArmor@ioCreateChar@@IAEXPBVioItem@@KKHH@Z$4:
  0002f	8d 8d fc fe ff
	ff		 lea	 ecx, DWORD PTR _szHandMesh$[ebp]
  00035	ff 25 00 00 00
	00		 jmp	 DWORD PTR __imp_??1ioHashString@@QAE@XZ
__unwindfunclet$?EquipArmor@ioCreateChar@@IAEXPBVioItem@@KKHH@Z$5:
  0003b	8d 8d cc fe ff
	ff		 lea	 ecx, DWORD PTR _szSpringRope$[ebp]
  00041	ff 25 00 00 00
	00		 jmp	 DWORD PTR __imp_??1ioHashString@@QAE@XZ
__ehhandler$?EquipArmor@ioCreateChar@@IAEXPBVioItem@@KKHH@Z:
  00047	8b 54 24 08	 mov	 edx, DWORD PTR [esp+8]
  0004b	8d 42 0c	 lea	 eax, DWORD PTR [edx+12]
  0004e	8b 8a b8 fe ff
	ff		 mov	 ecx, DWORD PTR [edx-328]
  00054	33 c8		 xor	 ecx, eax
  00056	e8 00 00 00 00	 call	 @__security_check_cookie@4
  0005b	8b 4a fc	 mov	 ecx, DWORD PTR [edx-4]
  0005e	33 c8		 xor	 ecx, eax
  00060	e8 00 00 00 00	 call	 @__security_check_cookie@4
  00065	b8 00 00 00 00	 mov	 eax, OFFSET __ehfuncinfo$?EquipArmor@ioCreateChar@@IAEXPBVioItem@@KKHH@Z
  0006a	e9 00 00 00 00	 jmp	 ___CxxFrameHandler3
text$x	ENDS
?EquipArmor@ioCreateChar@@IAEXPBVioItem@@KKHH@Z ENDP	; ioCreateChar::EquipArmor
PUBLIC	_pItem$GSCopy$
PUBLIC	?EquipHelmet@ioCreateChar@@IAEXPBVioItem@@KKHH@Z ; ioCreateChar::EquipHelmet
;	COMDAT xdata$x
; File d:\lost saga for developer\youtube\tutorial\source\src\lsclient\ioitem.h
xdata$x	SEGMENT
__ehfuncinfo$?EquipHelmet@ioCreateChar@@IAEXPBVioItem@@KKHH@Z DD 019930522H
	DD	05H
	DD	FLAT:__unwindtable$?EquipHelmet@ioCreateChar@@IAEXPBVioItem@@KKHH@Z
	DD	2 DUP(00H)
	DD	2 DUP(00H)
	DD	00H
	DD	01H
__unwindtable$?EquipHelmet@ioCreateChar@@IAEXPBVioItem@@KKHH@Z DD 0ffffffffH
	DD	FLAT:__unwindfunclet$?EquipHelmet@ioCreateChar@@IAEXPBVioItem@@KKHH@Z$0
	DD	00H
	DD	FLAT:__unwindfunclet$?EquipHelmet@ioCreateChar@@IAEXPBVioItem@@KKHH@Z$1
	DD	01H
	DD	FLAT:__unwindfunclet$?EquipHelmet@ioCreateChar@@IAEXPBVioItem@@KKHH@Z$2
	DD	01H
	DD	FLAT:__unwindfunclet$?EquipHelmet@ioCreateChar@@IAEXPBVioItem@@KKHH@Z$3
	DD	03H
	DD	FLAT:__unwindfunclet$?EquipHelmet@ioCreateChar@@IAEXPBVioItem@@KKHH@Z$4
; Function compile flags: /Ogsp
; File d:\lost saga for developer\youtube\tutorial\source\src\lsclient\iocreatechar.cpp
xdata$x	ENDS
;	COMDAT ?EquipHelmet@ioCreateChar@@IAEXPBVioItem@@KKHH@Z
_TEXT	SEGMENT
$T574832 = -316						; size = 16
_szHelmetMesh$ = -300					; size = 16
_szSpringRope$ = -284					; size = 16
_szEquipEffect$ = -268					; size = 16
_pItem$GSCopy$ = -252					; size = 4
_eInvisibleFaceType$ = -248				; size = 4
_pHelmet$ = -244					; size = 4
_pSpringParam$ = -240					; size = 4
_eNewFace$ = -240					; size = 4
_sNewCostume$ = -236					; size = 220
__$EHRec$ = -12						; size = 12
_pItem$ = 8						; size = 4
_dwItemMaleCustom$ = 12					; size = 4
_dwItemFemaleCustom$ = 16				; size = 4
_nCostumeCode$ = 20					; size = 4
_bCostume$ = 24						; size = 4
?EquipHelmet@ioCreateChar@@IAEXPBVioItem@@KKHH@Z PROC	; ioCreateChar::EquipHelmet, COMDAT
; _this$ = ecx

; 793  : {

  00000	68 30 01 00 00	 push	 304			; 00000130H
  00005	b8 00 00 00 00	 mov	 eax, __ehhandler$?EquipHelmet@ioCreateChar@@IAEXPBVioItem@@KKHH@Z
  0000a	e8 00 00 00 00	 call	 __EH_prolog3_GS
  0000f	8b 7d 08	 mov	 edi, DWORD PTR _pItem$[ebp]

; 794  : 	ReleaseHelmetSlot( false );

  00012	33 db		 xor	 ebx, ebx
  00014	53		 push	 ebx
  00015	8b f1		 mov	 esi, ecx

; 795  : 	RemoveEntityInOwner( m_DefaultHairMesh );
; 796  : 	RemoveEntityInOwner( m_DefaultFaceMesh );
; 797  : 
; 798  : 	CostumeInfo sNewCostume;
; 799  : 	g_CostumeInfoMgr.GetCostumeInfo( nCostumeCode, sNewCostume );
; 800  : 
; 801  : 	const ioHelmetItem *pHelmet = ToHelmetItemConst( pItem );

  00017	89 bd 04 ff ff
	ff		 mov	 DWORD PTR _pItem$GSCopy$[ebp], edi
  0001d	e8 00 00 00 00	 call	 ?ReleaseHelmetSlot@ioCreateChar@@IAEX_N@Z ; ioCreateChar::ReleaseHelmetSlot
  00022	8d 86 40 01 00
	00		 lea	 eax, DWORD PTR [esi+320]
  00028	53		 push	 ebx
  00029	50		 push	 eax
  0002a	8b ce		 mov	 ecx, esi
  0002c	e8 00 00 00 00	 call	 ?RemoveEntityInOwner@ioCreateChar@@IAE_NABVioHashString@@_N@Z ; ioCreateChar::RemoveEntityInOwner
  00031	8d 86 f0 00 00
	00		 lea	 eax, DWORD PTR [esi+240]
  00037	53		 push	 ebx
  00038	50		 push	 eax
  00039	8b ce		 mov	 ecx, esi
  0003b	e8 00 00 00 00	 call	 ?RemoveEntityInOwner@ioCreateChar@@IAE_NABVioHashString@@_N@Z ; ioCreateChar::RemoveEntityInOwner
  00040	8d 8d 14 ff ff
	ff		 lea	 ecx, DWORD PTR _sNewCostume$[ebp]
  00046	e8 00 00 00 00	 call	 ??0tagCostumeInfo@@QAE@XZ ; tagCostumeInfo::tagCostumeInfo
  0004b	8d 85 14 ff ff
	ff		 lea	 eax, DWORD PTR _sNewCostume$[ebp]
  00051	50		 push	 eax
  00052	ff 75 14	 push	 DWORD PTR _nCostumeCode$[ebp]
  00055	89 5d fc	 mov	 DWORD PTR __$EHRec$[ebp+8], ebx
  00058	e8 00 00 00 00	 call	 ?GetSingleton@ioCostumeInfoManager@@SAAAV1@XZ ; ioCostumeInfoManager::GetSingleton
  0005d	8b c8		 mov	 ecx, eax
  0005f	e8 00 00 00 00	 call	 ?GetCostumeInfo@ioCostumeInfoManager@@QAE_NHAAUtagCostumeInfo@@@Z ; ioCostumeInfoManager::GetCostumeInfo
  00064	57		 push	 edi
  00065	e8 00 00 00 00	 call	 ?ToHelmetItemConst@@YAPBVioHelmetItem@@PBVioItem@@@Z ; ToHelmetItemConst
  0006a	59		 pop	 ecx
  0006b	8b c8		 mov	 ecx, eax

; 802  : 	
; 803  : 	ioHelmetItem::HelmetHair eNewHair = ioHelmetItem::HH_NONE; 

  0006d	83 cf ff	 or	 edi, -1
  00070	89 8d 0c ff ff
	ff		 mov	 DWORD PTR _pHelmet$[ebp], ecx

; 804  : 	ioHelmetItem::HelmetFace eNewFace = ioHelmetItem::HF_NONE;

  00076	89 9d 10 ff ff
	ff		 mov	 DWORD PTR _eNewFace$[ebp], ebx

; 805  : 	ioHelmetItem::InvisibleFaceType eInvisibleFaceType = ioHelmetItem::IFT_NONE;

  0007c	89 9d 08 ff ff
	ff		 mov	 DWORD PTR _eInvisibleFaceType$[ebp], ebx

; 806  : 	
; 807  : 	if ( sNewCostume.m_nCostumeCode > 0 )

  00082	39 9d 14 ff ff
	ff		 cmp	 DWORD PTR _sNewCostume$[ebp], ebx
  00088	7e 1e		 jle	 SHORT $LN33@EquipHelme

; 808  : 	{
; 809  : 		if ( m_bMale )

  0008a	38 5e 1c	 cmp	 BYTE PTR [esi+28], bl
  0008d	74 08		 je	 SHORT $LN32@EquipHelme

; 810  : 		{
; 811  : 			eNewHair = (ioHelmetItem::HelmetHair)sNewCostume.m_nHairHM;

  0008f	8b 7d 90	 mov	 edi, DWORD PTR _sNewCostume$[ebp+124]

; 812  : 			eNewFace = (ioHelmetItem::HelmetFace)sNewCostume.m_nFaceHM;

  00092	8b 45 88	 mov	 eax, DWORD PTR _sNewCostume$[ebp+116]

; 813  : 		}
; 814  : 		else

  00095	eb 06		 jmp	 SHORT $LN49@EquipHelme
$LN32@EquipHelme:

; 815  : 		{
; 816  : 			eNewHair = (ioHelmetItem::HelmetHair)sNewCostume.m_nHairHW;

  00097	8b 7d 94	 mov	 edi, DWORD PTR _sNewCostume$[ebp+128]

; 817  : 			eNewFace = (ioHelmetItem::HelmetFace)sNewCostume.m_nFaceHW;

  0009a	8b 45 8c	 mov	 eax, DWORD PTR _sNewCostume$[ebp+120]
$LN49@EquipHelme:
  0009d	89 85 10 ff ff
	ff		 mov	 DWORD PTR _eNewFace$[ebp], eax

; 818  : 		}
; 819  : 
; 820  : 		eInvisibleFaceType = (ioHelmetItem::InvisibleFaceType)sNewCostume.m_nInvisibleFaceType;

  000a3	8b 45 84	 mov	 eax, DWORD PTR _sNewCostume$[ebp+112]
  000a6	eb 31		 jmp	 SHORT $LN50@EquipHelme
$LN33@EquipHelme:

; 821  : 	}
; 822  : 	else if ( pHelmet )

  000a8	3b cb		 cmp	 ecx, ebx
  000aa	74 33		 je	 SHORT $LN29@EquipHelme

; 823  : 	{
; 824  : 		eNewHair = pHelmet->GetChangeHair( m_bMale );

  000ac	0f b6 46 1c	 movzx	 eax, BYTE PTR [esi+28]
  000b0	50		 push	 eax
  000b1	e8 00 00 00 00	 call	 ?GetChangeHair@ioHelmetItem@@QBE?AW4HelmetHair@1@_N@Z ; ioHelmetItem::GetChangeHair

; 825  : 		eNewFace = pHelmet->GetChangeFace( m_bMale );

  000b6	8b 8d 0c ff ff
	ff		 mov	 ecx, DWORD PTR _pHelmet$[ebp]
  000bc	8b f8		 mov	 edi, eax
  000be	0f b6 46 1c	 movzx	 eax, BYTE PTR [esi+28]
  000c2	50		 push	 eax
  000c3	e8 00 00 00 00	 call	 ?GetChangeFace@ioHelmetItem@@QBE?AW4HelmetFace@1@_N@Z ; ioHelmetItem::GetChangeFace

; 826  : 		eInvisibleFaceType = pHelmet->GetInvisibleFaceType();

  000c8	8b 8d 0c ff ff
	ff		 mov	 ecx, DWORD PTR _pHelmet$[ebp]
  000ce	89 85 10 ff ff
	ff		 mov	 DWORD PTR _eNewFace$[ebp], eax
  000d4	e8 00 00 00 00	 call	 ?GetInvisibleFaceType@ioHelmetItem@@QBE?AW4InvisibleFaceType@1@XZ ; ioHelmetItem::GetInvisibleFaceType
$LN50@EquipHelme:
  000d9	89 85 08 ff ff
	ff		 mov	 DWORD PTR _eInvisibleFaceType$[ebp], eax
$LN29@EquipHelme:

; 827  : 	}
; 828  : 
; 829  : 	switch( eNewHair )

  000df	2b fb		 sub	 edi, ebx
  000e1	74 17		 je	 SHORT $LN26@EquipHelme
  000e3	4f		 dec	 edi
  000e4	4f		 dec	 edi
  000e5	74 0b		 je	 SHORT $LN24@EquipHelme
  000e7	4f		 dec	 edi
  000e8	75 1f		 jne	 SHORT $LN27@EquipHelme

; 839  : 	case ioHelmetItem::HH_NO_SKIP:
; 840  : 		AddEntityToOwner( m_DefaultHairMesh );

  000ea	8d 86 40 01 00
	00		 lea	 eax, DWORD PTR [esi+320]

; 841  : 		break;

  000f0	eb 0e		 jmp	 SHORT $LN51@EquipHelme
$LN24@EquipHelme:

; 833  : 		break;
; 834  : 	case ioHelmetItem::HH_ALL_SKIP:
; 835  : 		break;
; 836  : 	case ioHelmetItem::HH_BIND_SKIP:
; 837  : 		AddEntityToOwner( m_DefaultBindHairMesh );

  000f2	8d 86 50 01 00
	00		 lea	 eax, DWORD PTR [esi+336]

; 838  : 		break;

  000f8	eb 06		 jmp	 SHORT $LN51@EquipHelme
$LN26@EquipHelme:

; 830  : 	{
; 831  : 	case ioHelmetItem::HH_HALF_SKIP:
; 832  : 		AddEntityToOwner( m_DefaultHalfHairMesh );

  000fa	8d 86 60 01 00
	00		 lea	 eax, DWORD PTR [esi+352]
$LN51@EquipHelme:
  00100	53		 push	 ebx
  00101	50		 push	 eax
  00102	8b ce		 mov	 ecx, esi
  00104	e8 00 00 00 00	 call	 ?AddEntityToOwner@ioCreateChar@@IAEPAVioEntity@@ABVioHashString@@_N@Z ; ioCreateChar::AddEntityToOwner
$LN27@EquipHelme:

; 842  : 	}
; 843  : 
; 844  : 	switch( eNewFace )

  00109	8b 85 10 ff ff
	ff		 mov	 eax, DWORD PTR _eNewFace$[ebp]
  0010f	2b c3		 sub	 eax, ebx
  00111	8b 3d 00 00 00
	00		 mov	 edi, DWORD PTR __imp_??4ioHashString@@QAEAAV0@ABV0@@Z
  00117	74 1a		 je	 SHORT $LN20@EquipHelme
  00119	48		 dec	 eax
  0011a	75 35		 jne	 SHORT $LN21@EquipHelme

; 849  : 		break;
; 850  : 	case ioHelmetItem::HF_HALF_SKIP:
; 851  : 		AddEntityToOwner( m_SkipFaceMesh );

  0011c	8d 86 00 01 00
	00		 lea	 eax, DWORD PTR [esi+256]
  00122	53		 push	 ebx
  00123	50		 push	 eax
  00124	8b ce		 mov	 ecx, esi
  00126	e8 00 00 00 00	 call	 ?AddEntityToOwner@ioCreateChar@@IAEPAVioEntity@@ABVioHashString@@_N@Z ; ioCreateChar::AddEntityToOwner

; 852  : 		m_CurFaceMesh = m_SkipFaceMesh;

  0012b	8d 86 00 01 00
	00		 lea	 eax, DWORD PTR [esi+256]

; 853  : 		break;

  00131	eb 15		 jmp	 SHORT $LN52@EquipHelme
$LN20@EquipHelme:

; 845  : 	{
; 846  : 	case ioHelmetItem::HF_NONE:
; 847  : 		AddEntityToOwner( m_DefaultFaceMesh );

  00133	53		 push	 ebx
  00134	8d 86 f0 00 00
	00		 lea	 eax, DWORD PTR [esi+240]
  0013a	50		 push	 eax
  0013b	8b ce		 mov	 ecx, esi
  0013d	e8 00 00 00 00	 call	 ?AddEntityToOwner@ioCreateChar@@IAEPAVioEntity@@ABVioHashString@@_N@Z ; ioCreateChar::AddEntityToOwner

; 848  : 		m_CurFaceMesh = m_DefaultFaceMesh;

  00142	8d 86 f0 00 00
	00		 lea	 eax, DWORD PTR [esi+240]
$LN52@EquipHelme:
  00148	50		 push	 eax
  00149	8d 8e 10 01 00
	00		 lea	 ecx, DWORD PTR [esi+272]
  0014f	ff d7		 call	 edi
$LN21@EquipHelme:

; 854  : 	}
; 855  : 
; 856  : 	switch( eInvisibleFaceType )

  00151	8b 85 08 ff ff
	ff		 mov	 eax, DWORD PTR _eInvisibleFaceType$[ebp]
  00157	48		 dec	 eax
  00158	74 12		 je	 SHORT $LN16@EquipHelme
  0015a	48		 dec	 eax
  0015b	74 0a		 je	 SHORT $LN15@EquipHelme
  0015d	48		 dec	 eax
  0015e	75 14		 jne	 SHORT $LN17@EquipHelme

; 863  : 			ShowFaceMesh( false );
; 864  : 		break;
; 865  : 	case ioHelmetItem::IFT_FEMALE:
; 866  : 		if( !IsMale() )

  00160	38 5e 1c	 cmp	 BYTE PTR [esi+28], bl
  00163	75 0f		 jne	 SHORT $LN17@EquipHelme

; 867  : 			ShowFaceMesh( false );
; 868  : 		break;

  00165	eb 05		 jmp	 SHORT $LN16@EquipHelme
$LN15@EquipHelme:

; 860  : 		break;
; 861  : 	case ioHelmetItem::IFT_MALE:
; 862  : 		if( IsMale() )

  00167	38 5e 1c	 cmp	 BYTE PTR [esi+28], bl
  0016a	74 08		 je	 SHORT $LN17@EquipHelme
$LN16@EquipHelme:

; 857  : 	{
; 858  : 	case ioHelmetItem::IFT_ALL:
; 859  : 		ShowFaceMesh( false );

  0016c	53		 push	 ebx
  0016d	8b ce		 mov	 ecx, esi
  0016f	e8 00 00 00 00	 call	 ?ShowFaceMesh@ioCreateChar@@QAEX_N@Z ; ioCreateChar::ShowFaceMesh
$LN17@EquipHelme:

; 869  : 	}
; 870  : 
; 871  : 	ioHashString szEquipEffect;

  00174	8d 8d f4 fe ff
	ff		 lea	 ecx, DWORD PTR _szEquipEffect$[ebp]
  0017a	ff 15 00 00 00
	00		 call	 DWORD PTR __imp_??0ioHashString@@QAE@XZ
  00180	c6 45 fc 01	 mov	 BYTE PTR __$EHRec$[ebp+8], 1

; 872  : 	
; 873  : 	if ( sNewCostume.m_nCostumeCode > 0 )

  00184	39 9d 14 ff ff
	ff		 cmp	 DWORD PTR _sNewCostume$[ebp], ebx
  0018a	7e 34		 jle	 SHORT $LN11@EquipHelme

; 874  : 		szEquipEffect = GetCostumeEffect( &sNewCostume );

  0018c	8d 85 14 ff ff
	ff		 lea	 eax, DWORD PTR _sNewCostume$[ebp]
  00192	50		 push	 eax
  00193	8d 85 c4 fe ff
	ff		 lea	 eax, DWORD PTR $T574832[ebp]
  00199	50		 push	 eax
  0019a	8b ce		 mov	 ecx, esi
  0019c	e8 00 00 00 00	 call	 ?GetCostumeEffect@ioCreateChar@@QAE?AVioHashString@@PBUtagCostumeInfo@@@Z ; ioCreateChar::GetCostumeEffect
  001a1	50		 push	 eax
  001a2	8d 8d f4 fe ff
	ff		 lea	 ecx, DWORD PTR _szEquipEffect$[ebp]
  001a8	c6 45 fc 02	 mov	 BYTE PTR __$EHRec$[ebp+8], 2
  001ac	ff d7		 call	 edi
  001ae	8d 8d c4 fe ff
	ff		 lea	 ecx, DWORD PTR $T574832[ebp]
  001b4	c6 45 fc 01	 mov	 BYTE PTR __$EHRec$[ebp+8], 1
  001b8	ff 15 00 00 00
	00		 call	 DWORD PTR __imp_??1ioHashString@@QAE@XZ
  001be	eb 1d		 jmp	 SHORT $LN9@EquipHelme
$LN11@EquipHelme:

; 875  : 	else if( pHelmet )

  001c0	8b 8d 0c ff ff
	ff		 mov	 ecx, DWORD PTR _pHelmet$[ebp]
  001c6	3b cb		 cmp	 ecx, ebx
  001c8	74 13		 je	 SHORT $LN9@EquipHelme

; 876  : 		szEquipEffect = pHelmet->GetItemEquipEffect( m_bMale );

  001ca	0f b6 46 1c	 movzx	 eax, BYTE PTR [esi+28]
  001ce	50		 push	 eax
  001cf	e8 00 00 00 00	 call	 ?GetItemEquipEffect@ioItem@@QBEABVioHashString@@_N@Z ; ioItem::GetItemEquipEffect
  001d4	50		 push	 eax
  001d5	8d 8d f4 fe ff
	ff		 lea	 ecx, DWORD PTR _szEquipEffect$[ebp]
  001db	ff d7		 call	 edi
$LN9@EquipHelme:

; 877  : 
; 878  : 	if ( !szEquipEffect.IsEmpty() )

  001dd	8d 8d f4 fe ff
	ff		 lea	 ecx, DWORD PTR _szEquipEffect$[ebp]
  001e3	ff 15 00 00 00
	00		 call	 DWORD PTR __imp_?IsEmpty@ioHashString@@QBE_NXZ
  001e9	84 c0		 test	 al, al
  001eb	75 1b		 jne	 SHORT $LN8@EquipHelme

; 879  : 	{
; 880  : 		AttachEffect( szEquipEffect, NULL );

  001ed	53		 push	 ebx
  001ee	8d 85 f4 fe ff
	ff		 lea	 eax, DWORD PTR _szEquipEffect$[ebp]
  001f4	50		 push	 eax
  001f5	8b ce		 mov	 ecx, esi
  001f7	e8 00 00 00 00	 call	 ?AttachEffect@ioCreateChar@@QAEPAVioEffect@@ABVioHashString@@PAVioEntityEvent@@@Z ; ioCreateChar::AttachEffect

; 881  : 		szEquipEffect.Clear();

  001fc	8d 8d f4 fe ff
	ff		 lea	 ecx, DWORD PTR _szEquipEffect$[ebp]
  00202	ff 15 00 00 00
	00		 call	 DWORD PTR __imp_?Clear@ioHashString@@QAEXXZ
$LN8@EquipHelme:

; 882  : 	}
; 883  : 	
; 884  : 	ioHashString szHelmetMesh;

  00208	8d 8d d4 fe ff
	ff		 lea	 ecx, DWORD PTR _szHelmetMesh$[ebp]
  0020e	ff 15 00 00 00
	00		 call	 DWORD PTR __imp_??0ioHashString@@QAE@XZ
  00214	c6 45 fc 03	 mov	 BYTE PTR __$EHRec$[ebp+8], 3

; 885  : 	if ( sNewCostume.m_nCostumeCode > 0 )

  00218	39 9d 14 ff ff
	ff		 cmp	 DWORD PTR _sNewCostume$[ebp], ebx
  0021e	7e 05		 jle	 SHORT $LN7@EquipHelme

; 886  : 		szHelmetMesh = sNewCostume.m_szHelmetMesh;

  00220	8d 45 98	 lea	 eax, DWORD PTR _sNewCostume$[ebp+132]

; 887  : 	else

  00223	eb 0c		 jmp	 SHORT $LN53@EquipHelme
$LN7@EquipHelme:

; 888  : 		szHelmetMesh = pHelmet->GetEquipMesh(NULL);

  00225	8b 8d 0c ff ff
	ff		 mov	 ecx, DWORD PTR _pHelmet$[ebp]
  0022b	53		 push	 ebx
  0022c	e8 00 00 00 00	 call	 ?GetEquipMesh@ioHelmetItem@@QBEABVioHashString@@PAVioBaseChar@@@Z ; ioHelmetItem::GetEquipMesh
$LN53@EquipHelme:
  00231	50		 push	 eax
  00232	8d 8d d4 fe ff
	ff		 lea	 ecx, DWORD PTR _szHelmetMesh$[ebp]
  00238	ff d7		 call	 edi

; 889  : 
; 890  : 	if ( pHelmet && !szHelmetMesh.IsEmpty() )

  0023a	39 9d 0c ff ff
	ff		 cmp	 DWORD PTR _pHelmet$[ebp], ebx
  00240	74 46		 je	 SHORT $LN5@EquipHelme
  00242	8d 8d d4 fe ff
	ff		 lea	 ecx, DWORD PTR _szHelmetMesh$[ebp]
  00248	ff 15 00 00 00
	00		 call	 DWORD PTR __imp_?IsEmpty@ioHashString@@QBE_NXZ
  0024e	84 c0		 test	 al, al
  00250	75 36		 jne	 SHORT $LN5@EquipHelme

; 891  : 	{
; 892  : 		EquipSlotData( CCS_HELMET, pItem->GetItemCode(), dwItemMaleCustom, dwItemFemaleCustom );

  00252	ff 75 10	 push	 DWORD PTR _dwItemFemaleCustom$[ebp]
  00255	8b 85 04 ff ff
	ff		 mov	 eax, DWORD PTR _pItem$GSCopy$[ebp]
  0025b	ff 75 0c	 push	 DWORD PTR _dwItemMaleCustom$[ebp]
  0025e	8b 40 38	 mov	 eax, DWORD PTR [eax+56]
  00261	50		 push	 eax
  00262	6a 02		 push	 2
  00264	8b ce		 mov	 ecx, esi
  00266	e8 00 00 00 00	 call	 ?EquipSlotData@ioCreateChar@@IAEXHKKK@Z ; ioCreateChar::EquipSlotData

; 893  : 		EquipSlotEntity( CCS_HELMET, AddEntityToOwner( szHelmetMesh, true ), bCostume );

  0026b	ff 75 18	 push	 DWORD PTR _bCostume$[ebp]
  0026e	8d 85 d4 fe ff
	ff		 lea	 eax, DWORD PTR _szHelmetMesh$[ebp]
  00274	6a 01		 push	 1
  00276	50		 push	 eax
  00277	8b ce		 mov	 ecx, esi
  00279	e8 00 00 00 00	 call	 ?AddEntityToOwner@ioCreateChar@@IAEPAVioEntity@@ABVioHashString@@_N@Z ; ioCreateChar::AddEntityToOwner
  0027e	50		 push	 eax
  0027f	6a 02		 push	 2
  00281	8b ce		 mov	 ecx, esi
  00283	e8 00 00 00 00	 call	 ?EquipSlotEntity@ioCreateChar@@IAEXHPAVioEntity@@H@Z ; ioCreateChar::EquipSlotEntity
$LN5@EquipHelme:

; 894  : 	}
; 895  : 
; 896  : 	ioHashString szSpringRope;

  00288	8d 8d e4 fe ff
	ff		 lea	 ecx, DWORD PTR _szSpringRope$[ebp]
  0028e	ff 15 00 00 00
	00		 call	 DWORD PTR __imp_??0ioHashString@@QAE@XZ
  00294	c6 45 fc 04	 mov	 BYTE PTR __$EHRec$[ebp+8], 4

; 897  : 	const RopeSpringParam *pSpringParam = NULL;

  00298	89 9d 10 ff ff
	ff		 mov	 DWORD PTR _pSpringParam$[ebp], ebx

; 898  : 
; 899  : 	if ( sNewCostume.m_nCostumeCode > 0 )

  0029e	39 9d 14 ff ff
	ff		 cmp	 DWORD PTR _sNewCostume$[ebp], ebx
  002a4	7e 14		 jle	 SHORT $LN4@EquipHelme

; 900  : 	{
; 901  : 		szSpringRope = sNewCostume.m_szSpring_Biped;

  002a6	8d 85 4c ff ff
	ff		 lea	 eax, DWORD PTR _sNewCostume$[ebp+56]
  002ac	50		 push	 eax
  002ad	8d 8d e4 fe ff
	ff		 lea	 ecx, DWORD PTR _szSpringRope$[ebp]
  002b3	ff d7		 call	 edi

; 902  : 		pSpringParam = sNewCostume.m_pCostumeSpringParam;

  002b5	8b 45 b8	 mov	 eax, DWORD PTR _sNewCostume$[ebp+164]
  002b8	eb 2e		 jmp	 SHORT $LN54@EquipHelme
$LN4@EquipHelme:

; 903  : 	}
; 904  : 	else if( pHelmet->HasSpringRope() )

  002ba	8b 8d 0c ff ff
	ff		 mov	 ecx, DWORD PTR _pHelmet$[ebp]
  002c0	e8 00 00 00 00	 call	 ?HasSpringRope@ioHelmetItem@@QBE_NXZ ; ioHelmetItem::HasSpringRope
  002c5	84 c0		 test	 al, al
  002c7	74 25		 je	 SHORT $LN2@EquipHelme

; 905  : 	{
; 906  : 		szSpringRope = pHelmet->GetSpringBiped();

  002c9	8b 8d 0c ff ff
	ff		 mov	 ecx, DWORD PTR _pHelmet$[ebp]
  002cf	e8 00 00 00 00	 call	 ?GetSpringBiped@ioHelmetItem@@QBEABVioHashString@@XZ ; ioHelmetItem::GetSpringBiped
  002d4	50		 push	 eax
  002d5	8d 8d e4 fe ff
	ff		 lea	 ecx, DWORD PTR _szSpringRope$[ebp]
  002db	ff d7		 call	 edi

; 907  : 		pSpringParam = pHelmet->GetSpringParam();

  002dd	8b 8d 0c ff ff
	ff		 mov	 ecx, DWORD PTR _pHelmet$[ebp]
  002e3	e8 00 00 00 00	 call	 ?GetSpringParam@ioHelmetItem@@QBEPBURopeSpringParam@@XZ ; ioHelmetItem::GetSpringParam
$LN54@EquipHelme:
  002e8	89 85 10 ff ff
	ff		 mov	 DWORD PTR _pSpringParam$[ebp], eax
$LN2@EquipHelme:

; 908  : 	}
; 909  : 
; 910  : 	if( !szSpringRope.IsEmpty() && pSpringParam && m_pGrp )

  002ee	8d 8d e4 fe ff
	ff		 lea	 ecx, DWORD PTR _szSpringRope$[ebp]
  002f4	ff 15 00 00 00
	00		 call	 DWORD PTR __imp_?IsEmpty@ioHashString@@QBE_NXZ
  002fa	84 c0		 test	 al, al
  002fc	75 22		 jne	 SHORT $LN1@EquipHelme
  002fe	39 9d 10 ff ff
	ff		 cmp	 DWORD PTR _pSpringParam$[ebp], ebx
  00304	74 1a		 je	 SHORT $LN1@EquipHelme
  00306	8b 4e 04	 mov	 ecx, DWORD PTR [esi+4]
  00309	3b cb		 cmp	 ecx, ebx
  0030b	74 13		 je	 SHORT $LN1@EquipHelme

; 911  : 		m_pGrp->AddRopeSpringCurve( szSpringRope, pSpringParam );

  0030d	ff b5 10 ff ff
	ff		 push	 DWORD PTR _pSpringParam$[ebp]
  00313	8d 85 e4 fe ff
	ff		 lea	 eax, DWORD PTR _szSpringRope$[ebp]
  00319	50		 push	 eax
  0031a	ff 15 00 00 00
	00		 call	 DWORD PTR __imp_?AddRopeSpringCurve@ioEntityGroup@@QAE_NABVioHashString@@PBURopeSpringParam@@@Z
$LN1@EquipHelme:

; 912  : 
; 913  : 	SetHairColor( m_HairColorTex, m_HairOutLineColor );

  00320	8d 46 50	 lea	 eax, DWORD PTR [esi+80]
  00323	50		 push	 eax
  00324	8d 46 40	 lea	 eax, DWORD PTR [esi+64]
  00327	50		 push	 eax
  00328	8b ce		 mov	 ecx, esi
  0032a	e8 00 00 00 00	 call	 ?SetHairColor@ioCreateChar@@QAEXABVioHashString@@ABU_D3DCOLORVALUE@@@Z ; ioCreateChar::SetHairColor

; 914  : 	SetBeardColor( m_BeardColorTex, m_BeardOutLineColor );

  0032f	8d 46 70	 lea	 eax, DWORD PTR [esi+112]
  00332	50		 push	 eax
  00333	8d 46 60	 lea	 eax, DWORD PTR [esi+96]
  00336	50		 push	 eax
  00337	8b ce		 mov	 ecx, esi
  00339	e8 00 00 00 00	 call	 ?SetBeardColor@ioCreateChar@@QAEXABVioHashString@@ABU_D3DCOLORVALUE@@@Z ; ioCreateChar::SetBeardColor

; 915  : 	SetSkinColor( m_SkinColor, m_SkinOutLineColor );

  0033e	8d 46 30	 lea	 eax, DWORD PTR [esi+48]
  00341	50		 push	 eax
  00342	8d 46 20	 lea	 eax, DWORD PTR [esi+32]
  00345	50		 push	 eax
  00346	8b ce		 mov	 ecx, esi
  00348	e8 00 00 00 00	 call	 ?SetSkinColor@ioCreateChar@@QAEXABU_D3DCOLORVALUE@@0@Z ; ioCreateChar::SetSkinColor

; 916  : 
; 917  : 	m_CostumeSlot[CCS_HELMET] = sNewCostume;

  0034d	8d 85 14 ff ff
	ff		 lea	 eax, DWORD PTR _sNewCostume$[ebp]
  00353	50		 push	 eax
  00354	8d 8e f0 03 00
	00		 lea	 ecx, DWORD PTR [esi+1008]
  0035a	e8 00 00 00 00	 call	 ??4tagCostumeInfo@@QAEAAU0@ABU0@@Z

; 918  : }

  0035f	8b 35 00 00 00
	00		 mov	 esi, DWORD PTR __imp_??1ioHashString@@QAE@XZ
  00365	8d 8d e4 fe ff
	ff		 lea	 ecx, DWORD PTR _szSpringRope$[ebp]
  0036b	c6 45 fc 03	 mov	 BYTE PTR __$EHRec$[ebp+8], 3
  0036f	ff d6		 call	 esi
  00371	8d 8d d4 fe ff
	ff		 lea	 ecx, DWORD PTR _szHelmetMesh$[ebp]
  00377	c6 45 fc 01	 mov	 BYTE PTR __$EHRec$[ebp+8], 1
  0037b	ff d6		 call	 esi
  0037d	8d 8d f4 fe ff
	ff		 lea	 ecx, DWORD PTR _szEquipEffect$[ebp]
  00383	88 5d fc	 mov	 BYTE PTR __$EHRec$[ebp+8], bl
  00386	ff d6		 call	 esi
  00388	83 4d fc ff	 or	 DWORD PTR __$EHRec$[ebp+8], -1
  0038c	8d 8d 14 ff ff
	ff		 lea	 ecx, DWORD PTR _sNewCostume$[ebp]
  00392	e8 00 00 00 00	 call	 ??1tagCostumeInfo@@QAE@XZ
  00397	e8 00 00 00 00	 call	 __EH_epilog3_GS
  0039c	c2 14 00	 ret	 20			; 00000014H
_TEXT	ENDS
;	COMDAT text$x
text$x	SEGMENT
__unwindfunclet$?EquipHelmet@ioCreateChar@@IAEXPBVioItem@@KKHH@Z$0:
  00000	8d 8d 14 ff ff
	ff		 lea	 ecx, DWORD PTR _sNewCostume$[ebp]
  00006	e9 00 00 00 00	 jmp	 ??1tagCostumeInfo@@QAE@XZ
__unwindfunclet$?EquipHelmet@ioCreateChar@@IAEXPBVioItem@@KKHH@Z$1:
  0000b	8d 8d f4 fe ff
	ff		 lea	 ecx, DWORD PTR _szEquipEffect$[ebp]
  00011	ff 25 00 00 00
	00		 jmp	 DWORD PTR __imp_??1ioHashString@@QAE@XZ
__unwindfunclet$?EquipHelmet@ioCreateChar@@IAEXPBVioItem@@KKHH@Z$2:
  00017	8d 8d c4 fe ff
	ff		 lea	 ecx, DWORD PTR $T574832[ebp]
  0001d	ff 25 00 00 00
	00		 jmp	 DWORD PTR __imp_??1ioHashString@@QAE@XZ
__unwindfunclet$?EquipHelmet@ioCreateChar@@IAEXPBVioItem@@KKHH@Z$3:
  00023	8d 8d d4 fe ff
	ff		 lea	 ecx, DWORD PTR _szHelmetMesh$[ebp]
  00029	ff 25 00 00 00
	00		 jmp	 DWORD PTR __imp_??1ioHashString@@QAE@XZ
__unwindfunclet$?EquipHelmet@ioCreateChar@@IAEXPBVioItem@@KKHH@Z$4:
  0002f	8d 8d e4 fe ff
	ff		 lea	 ecx, DWORD PTR _szSpringRope$[ebp]
  00035	ff 25 00 00 00
	00		 jmp	 DWORD PTR __imp_??1ioHashString@@QAE@XZ
__ehhandler$?EquipHelmet@ioCreateChar@@IAEXPBVioItem@@KKHH@Z:
  0003b	8b 54 24 08	 mov	 edx, DWORD PTR [esp+8]
  0003f	8d 42 0c	 lea	 eax, DWORD PTR [edx+12]
  00042	8b 8a c0 fe ff
	ff		 mov	 ecx, DWORD PTR [edx-320]
  00048	33 c8		 xor	 ecx, eax
  0004a	e8 00 00 00 00	 call	 @__security_check_cookie@4
  0004f	8b 4a fc	 mov	 ecx, DWORD PTR [edx-4]
  00052	33 c8		 xor	 ecx, eax
  00054	e8 00 00 00 00	 call	 @__security_check_cookie@4
  00059	b8 00 00 00 00	 mov	 eax, OFFSET __ehfuncinfo$?EquipHelmet@ioCreateChar@@IAEXPBVioItem@@KKHH@Z
  0005e	e9 00 00 00 00	 jmp	 ___CxxFrameHandler3
text$x	ENDS
?EquipHelmet@ioCreateChar@@IAEXPBVioItem@@KKHH@Z ENDP	; ioCreateChar::EquipHelmet
PUBLIC	_pItem$GSCopy$
PUBLIC	?EquipCloak@ioCreateChar@@IAEXPBVioItem@@KKHH@Z	; ioCreateChar::EquipCloak
;	COMDAT xdata$x
; File d:\lost saga for developer\youtube\tutorial\source\src\lsclient\ioitem.h
xdata$x	SEGMENT
__ehfuncinfo$?EquipCloak@ioCreateChar@@IAEXPBVioItem@@KKHH@Z DD 019930522H
	DD	05H
	DD	FLAT:__unwindtable$?EquipCloak@ioCreateChar@@IAEXPBVioItem@@KKHH@Z
	DD	2 DUP(00H)
	DD	2 DUP(00H)
	DD	00H
	DD	01H
__unwindtable$?EquipCloak@ioCreateChar@@IAEXPBVioItem@@KKHH@Z DD 0ffffffffH
	DD	FLAT:__unwindfunclet$?EquipCloak@ioCreateChar@@IAEXPBVioItem@@KKHH@Z$0
	DD	00H
	DD	FLAT:__unwindfunclet$?EquipCloak@ioCreateChar@@IAEXPBVioItem@@KKHH@Z$1
	DD	01H
	DD	FLAT:__unwindfunclet$?EquipCloak@ioCreateChar@@IAEXPBVioItem@@KKHH@Z$2
	DD	02H
	DD	FLAT:__unwindfunclet$?EquipCloak@ioCreateChar@@IAEXPBVioItem@@KKHH@Z$3
	DD	02H
	DD	FLAT:__unwindfunclet$?EquipCloak@ioCreateChar@@IAEXPBVioItem@@KKHH@Z$4
; Function compile flags: /Ogsp
; File d:\lost saga for developer\youtube\tutorial\source\src\lsclient\iocreatechar.cpp
xdata$x	ENDS
;	COMDAT ?EquipCloak@ioCreateChar@@IAEXPBVioItem@@KKHH@Z
_TEXT	SEGMENT
$T574868 = -308						; size = 16
_szCloakMesh$ = -292					; size = 16
_szSpringRope$ = -276					; size = 16
_szEquipEffect$ = -260					; size = 16
_pItem$GSCopy$ = -244					; size = 4
_pCloak$ = -240						; size = 4
_sNewCostume$ = -236					; size = 220
__$EHRec$ = -12						; size = 12
_pItem$ = 8						; size = 4
_dwItemMaleCustom$ = 12					; size = 4
_dwItemFemaleCustom$ = 16				; size = 4
_nCostumeCode$ = 20					; size = 4
_bCostume$ = 24						; size = 4
?EquipCloak@ioCreateChar@@IAEXPBVioItem@@KKHH@Z PROC	; ioCreateChar::EquipCloak, COMDAT
; _this$ = ecx

; 921  : {

  00000	68 28 01 00 00	 push	 296			; 00000128H
  00005	b8 00 00 00 00	 mov	 eax, __ehhandler$?EquipCloak@ioCreateChar@@IAEXPBVioItem@@KKHH@Z
  0000a	e8 00 00 00 00	 call	 __EH_prolog3_GS
  0000f	8b 7d 08	 mov	 edi, DWORD PTR _pItem$[ebp]
  00012	8b f1		 mov	 esi, ecx

; 922  : 	ReleaseCloakSlot();
; 923  : 
; 924  : 	CostumeInfo sNewCostume;
; 925  : 	g_CostumeInfoMgr.GetCostumeInfo( nCostumeCode, sNewCostume );
; 926  : 
; 927  : 	const ioCloakItem *pCloak = ToCloakItemConst( pItem );

  00014	89 bd 0c ff ff
	ff		 mov	 DWORD PTR _pItem$GSCopy$[ebp], edi
  0001a	e8 00 00 00 00	 call	 ?ReleaseCloakSlot@ioCreateChar@@IAEXXZ ; ioCreateChar::ReleaseCloakSlot
  0001f	8d 8d 14 ff ff
	ff		 lea	 ecx, DWORD PTR _sNewCostume$[ebp]
  00025	e8 00 00 00 00	 call	 ??0tagCostumeInfo@@QAE@XZ ; tagCostumeInfo::tagCostumeInfo
  0002a	83 65 fc 00	 and	 DWORD PTR __$EHRec$[ebp+8], 0
  0002e	8d 85 14 ff ff
	ff		 lea	 eax, DWORD PTR _sNewCostume$[ebp]
  00034	50		 push	 eax
  00035	ff 75 14	 push	 DWORD PTR _nCostumeCode$[ebp]
  00038	e8 00 00 00 00	 call	 ?GetSingleton@ioCostumeInfoManager@@SAAAV1@XZ ; ioCostumeInfoManager::GetSingleton
  0003d	8b c8		 mov	 ecx, eax
  0003f	e8 00 00 00 00	 call	 ?GetCostumeInfo@ioCostumeInfoManager@@QAE_NHAAUtagCostumeInfo@@@Z ; ioCostumeInfoManager::GetCostumeInfo
  00044	57		 push	 edi
  00045	e8 00 00 00 00	 call	 ?ToCloakItemConst@@YAPBVioCloakItem@@PBVioItem@@@Z ; ToCloakItemConst

; 928  : 
; 929  : 	ioHashString szEquipEffect;

  0004a	8b 1d 00 00 00
	00		 mov	 ebx, DWORD PTR __imp_??0ioHashString@@QAE@XZ
  00050	59		 pop	 ecx
  00051	8d 8d fc fe ff
	ff		 lea	 ecx, DWORD PTR _szEquipEffect$[ebp]
  00057	89 85 10 ff ff
	ff		 mov	 DWORD PTR _pCloak$[ebp], eax
  0005d	ff d3		 call	 ebx

; 930  : 	ioHashString szCloakMesh;

  0005f	8d 8d dc fe ff
	ff		 lea	 ecx, DWORD PTR _szCloakMesh$[ebp]
  00065	c6 45 fc 01	 mov	 BYTE PTR __$EHRec$[ebp+8], 1
  00069	ff d3		 call	 ebx

; 931  : 
; 932  : 	if ( sNewCostume.m_nCostumeCode > 0 )

  0006b	83 bd 14 ff ff
	ff 00		 cmp	 DWORD PTR _sNewCostume$[ebp], 0
  00072	8b 3d 00 00 00
	00		 mov	 edi, DWORD PTR __imp_??4ioHashString@@QAEAAV0@ABV0@@Z
  00078	c6 45 fc 02	 mov	 BYTE PTR __$EHRec$[ebp+8], 2
  0007c	7e 37		 jle	 SHORT $LN9@EquipCloak

; 933  : 	{
; 934  : 		szEquipEffect = GetCostumeEffect( &sNewCostume );

  0007e	8d 85 14 ff ff
	ff		 lea	 eax, DWORD PTR _sNewCostume$[ebp]
  00084	50		 push	 eax
  00085	8d 85 cc fe ff
	ff		 lea	 eax, DWORD PTR $T574868[ebp]
  0008b	50		 push	 eax
  0008c	8b ce		 mov	 ecx, esi
  0008e	e8 00 00 00 00	 call	 ?GetCostumeEffect@ioCreateChar@@QAE?AVioHashString@@PBUtagCostumeInfo@@@Z ; ioCreateChar::GetCostumeEffect
  00093	50		 push	 eax
  00094	8d 8d fc fe ff
	ff		 lea	 ecx, DWORD PTR _szEquipEffect$[ebp]
  0009a	c6 45 fc 03	 mov	 BYTE PTR __$EHRec$[ebp+8], 3
  0009e	ff d7		 call	 edi
  000a0	8d 8d cc fe ff
	ff		 lea	 ecx, DWORD PTR $T574868[ebp]
  000a6	c6 45 fc 02	 mov	 BYTE PTR __$EHRec$[ebp+8], 2
  000aa	ff 15 00 00 00
	00		 call	 DWORD PTR __imp_??1ioHashString@@QAE@XZ

; 935  : 		szCloakMesh = sNewCostume.m_szCloakMesh;

  000b0	8d 45 a8	 lea	 eax, DWORD PTR _sNewCostume$[ebp+148]
  000b3	eb 2a		 jmp	 SHORT $LN20@EquipCloak
$LN9@EquipCloak:

; 936  : 	}
; 937  : 	else if( pCloak )

  000b5	8b 8d 10 ff ff
	ff		 mov	 ecx, DWORD PTR _pCloak$[ebp]
  000bb	85 c9		 test	 ecx, ecx
  000bd	74 29		 je	 SHORT $LN7@EquipCloak

; 938  : 	{
; 939  : 		szEquipEffect = pCloak->GetItemEquipEffect( m_bMale );

  000bf	0f b6 46 1c	 movzx	 eax, BYTE PTR [esi+28]
  000c3	50		 push	 eax
  000c4	e8 00 00 00 00	 call	 ?GetItemEquipEffect@ioItem@@QBEABVioHashString@@_N@Z ; ioItem::GetItemEquipEffect
  000c9	50		 push	 eax
  000ca	8d 8d fc fe ff
	ff		 lea	 ecx, DWORD PTR _szEquipEffect$[ebp]
  000d0	ff d7		 call	 edi

; 940  : 		szCloakMesh = pCloak->GetEquipMesh(NULL);

  000d2	8b 8d 10 ff ff
	ff		 mov	 ecx, DWORD PTR _pCloak$[ebp]
  000d8	6a 00		 push	 0
  000da	e8 00 00 00 00	 call	 ?GetEquipMesh@ioCloakItem@@QBEABVioHashString@@PAVioBaseChar@@@Z ; ioCloakItem::GetEquipMesh
$LN20@EquipCloak:
  000df	50		 push	 eax
  000e0	8d 8d dc fe ff
	ff		 lea	 ecx, DWORD PTR _szCloakMesh$[ebp]
  000e6	ff d7		 call	 edi
$LN7@EquipCloak:

; 941  : 	}
; 942  : 
; 943  : 	if ( !szEquipEffect.IsEmpty() )

  000e8	8d 8d fc fe ff
	ff		 lea	 ecx, DWORD PTR _szEquipEffect$[ebp]
  000ee	ff 15 00 00 00
	00		 call	 DWORD PTR __imp_?IsEmpty@ioHashString@@QBE_NXZ
  000f4	84 c0		 test	 al, al
  000f6	75 1c		 jne	 SHORT $LN6@EquipCloak

; 944  : 	{
; 945  : 		AttachEffect( szEquipEffect, NULL );

  000f8	6a 00		 push	 0
  000fa	8d 85 fc fe ff
	ff		 lea	 eax, DWORD PTR _szEquipEffect$[ebp]
  00100	50		 push	 eax
  00101	8b ce		 mov	 ecx, esi
  00103	e8 00 00 00 00	 call	 ?AttachEffect@ioCreateChar@@QAEPAVioEffect@@ABVioHashString@@PAVioEntityEvent@@@Z ; ioCreateChar::AttachEffect

; 946  : 		szEquipEffect.Clear();

  00108	8d 8d fc fe ff
	ff		 lea	 ecx, DWORD PTR _szEquipEffect$[ebp]
  0010e	ff 15 00 00 00
	00		 call	 DWORD PTR __imp_?Clear@ioHashString@@QAEXXZ
$LN6@EquipCloak:

; 947  : 	}
; 948  : 
; 949  : 	if ( pCloak && !szCloakMesh.IsEmpty() )

  00114	83 bd 10 ff ff
	ff 00		 cmp	 DWORD PTR _pCloak$[ebp], 0
  0011b	74 46		 je	 SHORT $LN5@EquipCloak
  0011d	8d 8d dc fe ff
	ff		 lea	 ecx, DWORD PTR _szCloakMesh$[ebp]
  00123	ff 15 00 00 00
	00		 call	 DWORD PTR __imp_?IsEmpty@ioHashString@@QBE_NXZ
  00129	84 c0		 test	 al, al
  0012b	75 36		 jne	 SHORT $LN5@EquipCloak

; 950  : 	{
; 951  : 		EquipSlotData( CCS_CLOAK, pItem->GetItemCode(), dwItemMaleCustom, dwItemFemaleCustom );

  0012d	ff 75 10	 push	 DWORD PTR _dwItemFemaleCustom$[ebp]
  00130	8b 85 0c ff ff
	ff		 mov	 eax, DWORD PTR _pItem$GSCopy$[ebp]
  00136	ff 75 0c	 push	 DWORD PTR _dwItemMaleCustom$[ebp]
  00139	8b 40 38	 mov	 eax, DWORD PTR [eax+56]
  0013c	50		 push	 eax
  0013d	6a 03		 push	 3
  0013f	8b ce		 mov	 ecx, esi
  00141	e8 00 00 00 00	 call	 ?EquipSlotData@ioCreateChar@@IAEXHKKK@Z ; ioCreateChar::EquipSlotData

; 952  : 		EquipSlotEntity( CCS_CLOAK, AddEntityToOwner( szCloakMesh, true ), bCostume );

  00146	ff 75 18	 push	 DWORD PTR _bCostume$[ebp]
  00149	8d 85 dc fe ff
	ff		 lea	 eax, DWORD PTR _szCloakMesh$[ebp]
  0014f	6a 01		 push	 1
  00151	50		 push	 eax
  00152	8b ce		 mov	 ecx, esi
  00154	e8 00 00 00 00	 call	 ?AddEntityToOwner@ioCreateChar@@IAEPAVioEntity@@ABVioHashString@@_N@Z ; ioCreateChar::AddEntityToOwner
  00159	50		 push	 eax
  0015a	6a 03		 push	 3
  0015c	8b ce		 mov	 ecx, esi
  0015e	e8 00 00 00 00	 call	 ?EquipSlotEntity@ioCreateChar@@IAEXHPAVioEntity@@H@Z ; ioCreateChar::EquipSlotEntity
$LN5@EquipCloak:

; 953  : 	}
; 954  : 
; 955  : 	ioHashString szSpringRope;

  00163	8d 8d ec fe ff
	ff		 lea	 ecx, DWORD PTR _szSpringRope$[ebp]
  00169	ff d3		 call	 ebx

; 956  : 	const RopeSpringParam *pSpringParam = NULL;

  0016b	33 db		 xor	 ebx, ebx
  0016d	c6 45 fc 04	 mov	 BYTE PTR __$EHRec$[ebp+8], 4

; 957  : 
; 958  : 	if ( sNewCostume.m_nCostumeCode > 0 )

  00171	39 9d 14 ff ff
	ff		 cmp	 DWORD PTR _sNewCostume$[ebp], ebx
  00177	7e 14		 jle	 SHORT $LN4@EquipCloak

; 959  : 	{
; 960  : 		szSpringRope = sNewCostume.m_szSpring_Biped;

  00179	8d 85 4c ff ff
	ff		 lea	 eax, DWORD PTR _sNewCostume$[ebp+56]
  0017f	50		 push	 eax
  00180	8d 8d ec fe ff
	ff		 lea	 ecx, DWORD PTR _szSpringRope$[ebp]
  00186	ff d7		 call	 edi

; 961  : 		pSpringParam = sNewCostume.m_pCostumeSpringParam;

  00188	8b 5d b8	 mov	 ebx, DWORD PTR _sNewCostume$[ebp+164]
  0018b	eb 30		 jmp	 SHORT $LN2@EquipCloak
$LN4@EquipCloak:

; 962  : 	}
; 963  : 	else if( pCloak->HasSpringRope() )

  0018d	8b 8d 10 ff ff
	ff		 mov	 ecx, DWORD PTR _pCloak$[ebp]
  00193	e8 00 00 00 00	 call	 ?HasSpringRope@ioCloakItem@@QBE_NXZ ; ioCloakItem::HasSpringRope
  00198	84 c0		 test	 al, al
  0019a	74 21		 je	 SHORT $LN2@EquipCloak

; 964  : 	{
; 965  : 		szSpringRope = pCloak->GetSpringBiped();

  0019c	8b 8d 10 ff ff
	ff		 mov	 ecx, DWORD PTR _pCloak$[ebp]
  001a2	e8 00 00 00 00	 call	 ?GetSpringBiped@ioCloakItem@@QBEABVioHashString@@XZ ; ioCloakItem::GetSpringBiped
  001a7	50		 push	 eax
  001a8	8d 8d ec fe ff
	ff		 lea	 ecx, DWORD PTR _szSpringRope$[ebp]
  001ae	ff d7		 call	 edi

; 966  : 		pSpringParam = pCloak->GetSpringParam();

  001b0	8b 8d 10 ff ff
	ff		 mov	 ecx, DWORD PTR _pCloak$[ebp]
  001b6	e8 00 00 00 00	 call	 ?GetSpringParam@ioCloakItem@@QBEPBURopeSpringParam@@XZ ; ioCloakItem::GetSpringParam
  001bb	8b d8		 mov	 ebx, eax
$LN2@EquipCloak:

; 967  : 	}
; 968  : 
; 969  : 	if( !szSpringRope.IsEmpty() && pSpringParam && m_pGrp )

  001bd	8d 8d ec fe ff
	ff		 lea	 ecx, DWORD PTR _szSpringRope$[ebp]
  001c3	ff 15 00 00 00
	00		 call	 DWORD PTR __imp_?IsEmpty@ioHashString@@QBE_NXZ
  001c9	84 c0		 test	 al, al
  001cb	75 19		 jne	 SHORT $LN1@EquipCloak
  001cd	85 db		 test	 ebx, ebx
  001cf	74 15		 je	 SHORT $LN1@EquipCloak
  001d1	8b 4e 04	 mov	 ecx, DWORD PTR [esi+4]
  001d4	85 c9		 test	 ecx, ecx
  001d6	74 0e		 je	 SHORT $LN1@EquipCloak

; 970  : 		m_pGrp->AddRopeSpringCurve( szSpringRope, pSpringParam );

  001d8	53		 push	 ebx
  001d9	8d 85 ec fe ff
	ff		 lea	 eax, DWORD PTR _szSpringRope$[ebp]
  001df	50		 push	 eax
  001e0	ff 15 00 00 00
	00		 call	 DWORD PTR __imp_?AddRopeSpringCurve@ioEntityGroup@@QAE_NABVioHashString@@PBURopeSpringParam@@@Z
$LN1@EquipCloak:

; 971  : 
; 972  : 	SetSkinColor( m_SkinColor, m_SkinOutLineColor );

  001e6	8d 46 30	 lea	 eax, DWORD PTR [esi+48]
  001e9	50		 push	 eax
  001ea	8d 46 20	 lea	 eax, DWORD PTR [esi+32]
  001ed	50		 push	 eax
  001ee	8b ce		 mov	 ecx, esi
  001f0	e8 00 00 00 00	 call	 ?SetSkinColor@ioCreateChar@@QAEXABU_D3DCOLORVALUE@@0@Z ; ioCreateChar::SetSkinColor

; 973  : 
; 974  : 	m_CostumeSlot[CCS_CLOAK] = sNewCostume;

  001f5	8d 85 14 ff ff
	ff		 lea	 eax, DWORD PTR _sNewCostume$[ebp]
  001fb	50		 push	 eax
  001fc	8d 8e cc 04 00
	00		 lea	 ecx, DWORD PTR [esi+1228]
  00202	e8 00 00 00 00	 call	 ??4tagCostumeInfo@@QAEAAU0@ABU0@@Z

; 975  : }

  00207	8b 35 00 00 00
	00		 mov	 esi, DWORD PTR __imp_??1ioHashString@@QAE@XZ
  0020d	8d 8d ec fe ff
	ff		 lea	 ecx, DWORD PTR _szSpringRope$[ebp]
  00213	c6 45 fc 02	 mov	 BYTE PTR __$EHRec$[ebp+8], 2
  00217	ff d6		 call	 esi
  00219	8d 8d dc fe ff
	ff		 lea	 ecx, DWORD PTR _szCloakMesh$[ebp]
  0021f	c6 45 fc 01	 mov	 BYTE PTR __$EHRec$[ebp+8], 1
  00223	ff d6		 call	 esi
  00225	8d 8d fc fe ff
	ff		 lea	 ecx, DWORD PTR _szEquipEffect$[ebp]
  0022b	c6 45 fc 00	 mov	 BYTE PTR __$EHRec$[ebp+8], 0
  0022f	ff d6		 call	 esi
  00231	83 4d fc ff	 or	 DWORD PTR __$EHRec$[ebp+8], -1
  00235	8d 8d 14 ff ff
	ff		 lea	 ecx, DWORD PTR _sNewCostume$[ebp]
  0023b	e8 00 00 00 00	 call	 ??1tagCostumeInfo@@QAE@XZ
  00240	e8 00 00 00 00	 call	 __EH_epilog3_GS
  00245	c2 14 00	 ret	 20			; 00000014H
_TEXT	ENDS
;	COMDAT text$x
text$x	SEGMENT
__unwindfunclet$?EquipCloak@ioCreateChar@@IAEXPBVioItem@@KKHH@Z$0:
  00000	8d 8d 14 ff ff
	ff		 lea	 ecx, DWORD PTR _sNewCostume$[ebp]
  00006	e9 00 00 00 00	 jmp	 ??1tagCostumeInfo@@QAE@XZ
__unwindfunclet$?EquipCloak@ioCreateChar@@IAEXPBVioItem@@KKHH@Z$1:
  0000b	8d 8d fc fe ff
	ff		 lea	 ecx, DWORD PTR _szEquipEffect$[ebp]
  00011	ff 25 00 00 00
	00		 jmp	 DWORD PTR __imp_??1ioHashString@@QAE@XZ
__unwindfunclet$?EquipCloak@ioCreateChar@@IAEXPBVioItem@@KKHH@Z$2:
  00017	8d 8d dc fe ff
	ff		 lea	 ecx, DWORD PTR _szCloakMesh$[ebp]
  0001d	ff 25 00 00 00
	00		 jmp	 DWORD PTR __imp_??1ioHashString@@QAE@XZ
__unwindfunclet$?EquipCloak@ioCreateChar@@IAEXPBVioItem@@KKHH@Z$3:
  00023	8d 8d cc fe ff
	ff		 lea	 ecx, DWORD PTR $T574868[ebp]
  00029	ff 25 00 00 00
	00		 jmp	 DWORD PTR __imp_??1ioHashString@@QAE@XZ
__unwindfunclet$?EquipCloak@ioCreateChar@@IAEXPBVioItem@@KKHH@Z$4:
  0002f	8d 8d ec fe ff
	ff		 lea	 ecx, DWORD PTR _szSpringRope$[ebp]
  00035	ff 25 00 00 00
	00		 jmp	 DWORD PTR __imp_??1ioHashString@@QAE@XZ
__ehhandler$?EquipCloak@ioCreateChar@@IAEXPBVioItem@@KKHH@Z:
  0003b	8b 54 24 08	 mov	 edx, DWORD PTR [esp+8]
  0003f	8d 42 0c	 lea	 eax, DWORD PTR [edx+12]
  00042	8b 8a c8 fe ff
	ff		 mov	 ecx, DWORD PTR [edx-312]
  00048	33 c8		 xor	 ecx, eax
  0004a	e8 00 00 00 00	 call	 @__security_check_cookie@4
  0004f	8b 4a fc	 mov	 ecx, DWORD PTR [edx-4]
  00052	33 c8		 xor	 ecx, eax
  00054	e8 00 00 00 00	 call	 @__security_check_cookie@4
  00059	b8 00 00 00 00	 mov	 eax, OFFSET __ehfuncinfo$?EquipCloak@ioCreateChar@@IAEXPBVioItem@@KKHH@Z
  0005e	e9 00 00 00 00	 jmp	 ___CxxFrameHandler3
text$x	ENDS
?EquipCloak@ioCreateChar@@IAEXPBVioItem@@KKHH@Z ENDP	; ioCreateChar::EquipCloak
PUBLIC	?ReleaseItem@ioCreateChar@@QAEXH@Z		; ioCreateChar::ReleaseItem
; Function compile flags: /Ogsp
;	COMDAT ?ReleaseItem@ioCreateChar@@QAEXH@Z
_TEXT	SEGMENT
_iSlot$ = 8						; size = 4
?ReleaseItem@ioCreateChar@@QAEXH@Z PROC			; ioCreateChar::ReleaseItem, COMDAT
; _this$ = ecx

; 989  : {

  00000	55		 push	 ebp
  00001	8b ec		 mov	 ebp, esp

; 990  : 	switch( iSlot )

  00003	8b 45 08	 mov	 eax, DWORD PTR _iSlot$[ebp]
  00006	83 e8 00	 sub	 eax, 0
  00009	56		 push	 esi
  0000a	8b f1		 mov	 esi, ecx
  0000c	74 22		 je	 SHORT $LN4@ReleaseIte
  0000e	48		 dec	 eax
  0000f	74 16		 je	 SHORT $LN3@ReleaseIte
  00011	48		 dec	 eax
  00012	74 0a		 je	 SHORT $LN2@ReleaseIte
  00014	48		 dec	 eax
  00015	75 1e		 jne	 SHORT $LN5@ReleaseIte

; 1001 : 	case 3:
; 1002 : 		ReleaseCloakSlot();

  00017	e8 00 00 00 00	 call	 ?ReleaseCloakSlot@ioCreateChar@@IAEXXZ ; ioCreateChar::ReleaseCloakSlot

; 1003 : 		break;

  0001c	eb 17		 jmp	 SHORT $LN5@ReleaseIte
$LN2@ReleaseIte:

; 998  : 	case 2:
; 999  : 		ReleaseHelmetSlot();

  0001e	6a 01		 push	 1
  00020	e8 00 00 00 00	 call	 ?ReleaseHelmetSlot@ioCreateChar@@IAEX_N@Z ; ioCreateChar::ReleaseHelmetSlot

; 1000 : 		break;

  00025	eb 0e		 jmp	 SHORT $LN5@ReleaseIte
$LN3@ReleaseIte:

; 994  : 		break;
; 995  : 	case 1:
; 996  : 		ReleaseArmorSlot();

  00027	6a 01		 push	 1
  00029	e8 00 00 00 00	 call	 ?ReleaseArmorSlot@ioCreateChar@@IAEX_N@Z ; ioCreateChar::ReleaseArmorSlot

; 997  : 		break;

  0002e	eb 05		 jmp	 SHORT $LN5@ReleaseIte
$LN4@ReleaseIte:

; 991  : 	{
; 992  : 	case 0:
; 993  : 		ReleaseWeaponSlot();

  00030	e8 00 00 00 00	 call	 ?ReleaseWeaponSlot@ioCreateChar@@IAEXXZ ; ioCreateChar::ReleaseWeaponSlot
$LN5@ReleaseIte:

; 1004 : 	}
; 1005 : 	
; 1006 : 	SetSkinColor( m_SkinColor, m_SkinOutLineColor );

  00035	8d 46 30	 lea	 eax, DWORD PTR [esi+48]
  00038	50		 push	 eax
  00039	8d 46 20	 lea	 eax, DWORD PTR [esi+32]
  0003c	50		 push	 eax
  0003d	8b ce		 mov	 ecx, esi
  0003f	e8 00 00 00 00	 call	 ?SetSkinColor@ioCreateChar@@QAEXABU_D3DCOLORVALUE@@0@Z ; ioCreateChar::SetSkinColor
  00044	5e		 pop	 esi

; 1007 : }

  00045	5d		 pop	 ebp
  00046	c2 04 00	 ret	 4
?ReleaseItem@ioCreateChar@@QAEXH@Z ENDP			; ioCreateChar::ReleaseItem
_TEXT	ENDS
PUBLIC	?EquipWeapon@ioCreateChar@@IAEXPBVioItem@@KK@Z	; ioCreateChar::EquipWeapon
; Function compile flags: /Ogsp
;	COMDAT ?EquipWeapon@ioCreateChar@@IAEXPBVioItem@@KK@Z
_TEXT	SEGMENT
_pItem$ = 8						; size = 4
_dwItemMaleCustom$ = 12					; size = 4
_dwItemFemaleCustom$ = 16				; size = 4
?EquipWeapon@ioCreateChar@@IAEXPBVioItem@@KK@Z PROC	; ioCreateChar::EquipWeapon, COMDAT
; _this$ = ecx

; 685  : {

  00000	55		 push	 ebp
  00001	8b ec		 mov	 ebp, esp
  00003	53		 push	 ebx
  00004	56		 push	 esi
  00005	57		 push	 edi
  00006	8b f1		 mov	 esi, ecx

; 686  : 	ReleaseItem( CCS_WEAPON );

  00008	e8 00 00 00 00	 call	 ?ReleaseWeaponSlot@ioCreateChar@@IAEXXZ ; ioCreateChar::ReleaseWeaponSlot
  0000d	8d 46 30	 lea	 eax, DWORD PTR [esi+48]
  00010	50		 push	 eax
  00011	8d 46 20	 lea	 eax, DWORD PTR [esi+32]
  00014	50		 push	 eax
  00015	8b ce		 mov	 ecx, esi
  00017	e8 00 00 00 00	 call	 ?SetSkinColor@ioCreateChar@@QAEXABU_D3DCOLORVALUE@@0@Z ; ioCreateChar::SetSkinColor

; 687  : 
; 688  : 	const ioWeaponItem *pWeapon = ToWeaponItemConst( pItem );

  0001c	ff 75 08	 push	 DWORD PTR _pItem$[ebp]
  0001f	e8 00 00 00 00	 call	 ?ToWeaponItemConst@@YAPBVioWeaponItem@@PBVioItem@@@Z ; ToWeaponItemConst
  00024	8b f8		 mov	 edi, eax

; 689  : 	if( pWeapon )

  00026	33 db		 xor	 ebx, ebx
  00028	59		 pop	 ecx
  00029	3b fb		 cmp	 edi, ebx
  0002b	74 48		 je	 SHORT $LN2@EquipWeapo

; 690  : 	{
; 691  : 		AttachEffect( pWeapon->GetItemEquipEffect( m_bMale ), NULL );

  0002d	0f b6 46 1c	 movzx	 eax, BYTE PTR [esi+28]
  00031	53		 push	 ebx
  00032	50		 push	 eax
  00033	8b cf		 mov	 ecx, edi
  00035	e8 00 00 00 00	 call	 ?GetItemEquipEffect@ioItem@@QBEABVioHashString@@_N@Z ; ioItem::GetItemEquipEffect
  0003a	50		 push	 eax
  0003b	8b ce		 mov	 ecx, esi
  0003d	e8 00 00 00 00	 call	 ?AttachEffect@ioCreateChar@@QAEPAVioEffect@@ABVioHashString@@PAVioEntityEvent@@@Z ; ioCreateChar::AttachEffect

; 692  : 
; 693  : 		EquipSlotData( CCS_WEAPON, pItem->GetItemCode(), dwItemMaleCustom, dwItemFemaleCustom );

  00042	ff 75 10	 push	 DWORD PTR _dwItemFemaleCustom$[ebp]
  00045	8b 45 08	 mov	 eax, DWORD PTR _pItem$[ebp]
  00048	ff 75 0c	 push	 DWORD PTR _dwItemMaleCustom$[ebp]
  0004b	8b ce		 mov	 ecx, esi
  0004d	ff 70 38	 push	 DWORD PTR [eax+56]
  00050	53		 push	 ebx
  00051	e8 00 00 00 00	 call	 ?EquipSlotData@ioCreateChar@@IAEXHKKK@Z ; ioCreateChar::EquipSlotData

; 694  : 		EquipSlotEntity( CCS_WEAPON, AddEntityToOwner( pWeapon->GetEquipMesh(NULL), true ) );

  00056	8b 07		 mov	 eax, DWORD PTR [edi]
  00058	53		 push	 ebx
  00059	6a 01		 push	 1
  0005b	53		 push	 ebx
  0005c	8b cf		 mov	 ecx, edi
  0005e	ff 90 e8 02 00
	00		 call	 DWORD PTR [eax+744]
  00064	50		 push	 eax
  00065	8b ce		 mov	 ecx, esi
  00067	e8 00 00 00 00	 call	 ?AddEntityToOwner@ioCreateChar@@IAEPAVioEntity@@ABVioHashString@@_N@Z ; ioCreateChar::AddEntityToOwner
  0006c	50		 push	 eax
  0006d	53		 push	 ebx
  0006e	8b ce		 mov	 ecx, esi
  00070	e8 00 00 00 00	 call	 ?EquipSlotEntity@ioCreateChar@@IAEXHPAVioEntity@@H@Z ; ioCreateChar::EquipSlotEntity
$LN2@EquipWeapo:

; 695  : 	}
; 696  : 
; 697  : 	if( ToHookItem( pWeapon ) )

  00075	57		 push	 edi
  00076	e8 00 00 00 00	 call	 ?ToHookItem@@YAPBVioHookItem@@PBVioWeaponItem@@@Z ; ToHookItem
  0007b	59		 pop	 ecx
  0007c	85 c0		 test	 eax, eax
  0007e	74 0f		 je	 SHORT $LN1@EquipWeapo

; 698  : 	{
; 699  : 		RemoveEntityInOwner( m_DefaultHandMesh );

  00080	53		 push	 ebx
  00081	8d 86 70 01 00
	00		 lea	 eax, DWORD PTR [esi+368]
  00087	50		 push	 eax
  00088	8b ce		 mov	 ecx, esi
  0008a	e8 00 00 00 00	 call	 ?RemoveEntityInOwner@ioCreateChar@@IAE_NABVioHashString@@_N@Z ; ioCreateChar::RemoveEntityInOwner
$LN1@EquipWeapo:
  0008f	5f		 pop	 edi
  00090	5e		 pop	 esi
  00091	5b		 pop	 ebx

; 700  : 	}
; 701  : }

  00092	5d		 pop	 ebp
  00093	c2 0c 00	 ret	 12			; 0000000cH
?EquipWeapon@ioCreateChar@@IAEXPBVioItem@@KK@Z ENDP	; ioCreateChar::EquipWeapon
_TEXT	ENDS
PUBLIC	?ReleaseAllEquipItems@ioCreateChar@@QAEXXZ	; ioCreateChar::ReleaseAllEquipItems
; Function compile flags: /Ogsp
;	COMDAT ?ReleaseAllEquipItems@ioCreateChar@@QAEXXZ
_TEXT	SEGMENT
?ReleaseAllEquipItems@ioCreateChar@@QAEXXZ PROC		; ioCreateChar::ReleaseAllEquipItems, COMDAT
; _this$ = ecx

; 978  : {

  00000	53		 push	 ebx
  00001	56		 push	 esi
  00002	57		 push	 edi
  00003	8b f9		 mov	 edi, ecx

; 979  : 	for( int i=0 ; i<MAX_CCS ; i++ )

  00005	33 db		 xor	 ebx, ebx
  00007	8d b7 80 00 00
	00		 lea	 esi, DWORD PTR [edi+128]
$LL9@ReleaseAll:

; 980  : 	{
; 981  : 		if( m_ItemSlot[i].dwItemCode != 0 )

  0000d	83 3e 00	 cmp	 DWORD PTR [esi], 0
  00010	74 08		 je	 SHORT $LN3@ReleaseAll

; 982  : 		{
; 983  : 			ReleaseItem( i );

  00012	53		 push	 ebx
  00013	8b cf		 mov	 ecx, edi
  00015	e8 00 00 00 00	 call	 ?ReleaseItem@ioCreateChar@@QAEXH@Z ; ioCreateChar::ReleaseItem
$LN3@ReleaseAll:

; 979  : 	for( int i=0 ; i<MAX_CCS ; i++ )

  0001a	43		 inc	 ebx
  0001b	83 c6 1c	 add	 esi, 28			; 0000001cH
  0001e	83 fb 04	 cmp	 ebx, 4
  00021	7c ea		 jl	 SHORT $LL9@ReleaseAll

; 984  : 		}
; 985  : 	}
; 986  : }

  00023	5f		 pop	 edi
  00024	5e		 pop	 esi
  00025	5b		 pop	 ebx
  00026	c3		 ret	 0
?ReleaseAllEquipItems@ioCreateChar@@QAEXXZ ENDP		; ioCreateChar::ReleaseAllEquipItems
_TEXT	ENDS
PUBLIC	??_C@_0BI@FAMBKBJO@ioCreateChar?3?3EquipItem?$AA@ ; `string'
PUBLIC	?EquipItem@ioCreateChar@@QAEXKKKHH@Z		; ioCreateChar::EquipItem
;	COMDAT ??_C@_0BI@FAMBKBJO@ioCreateChar?3?3EquipItem?$AA@
CONST	SEGMENT
??_C@_0BI@FAMBKBJO@ioCreateChar?3?3EquipItem?$AA@ DB 'ioCreateChar::Equip'
	DB	'Item', 00H					; `string'
CONST	ENDS
;	COMDAT xdata$x
xdata$x	SEGMENT
__unwindtable$?EquipItem@ioCreateChar@@QAEXKKKHH@Z DD 0ffffffffH
	DD	FLAT:__unwindfunclet$?EquipItem@ioCreateChar@@QAEXKKKHH@Z$0
__ehfuncinfo$?EquipItem@ioCreateChar@@QAEXKKKHH@Z DD 019930522H
	DD	01H
	DD	FLAT:__unwindtable$?EquipItem@ioCreateChar@@QAEXKKKHH@Z
	DD	2 DUP(00H)
	DD	2 DUP(00H)
	DD	00H
	DD	01H
; Function compile flags: /Ogsp
xdata$x	ENDS
;	COMDAT ?EquipItem@ioCreateChar@@QAEXKKKHH@Z
_TEXT	SEGMENT
$T574912 = -28						; size = 16
__$EHRec$ = -12						; size = 12
_dwItemCode$ = 8					; size = 4
_dwItemMaleCustom$ = 12					; size = 4
_dwItemFemaleCustom$ = 16				; size = 4
_nCostumCode$ = 20					; size = 4
_bCostume$ = 24						; size = 4
?EquipItem@ioCreateChar@@QAEXKKKHH@Z PROC		; ioCreateChar::EquipItem, COMDAT
; _this$ = ecx

; 629  : {

  00000	6a 10		 push	 16			; 00000010H
  00002	b8 00 00 00 00	 mov	 eax, __ehhandler$?EquipItem@ioCreateChar@@QAEXKKKHH@Z
  00007	e8 00 00 00 00	 call	 __EH_prolog3
  0000c	8b f9		 mov	 edi, ecx

; 630  : #ifndef CUSTOM_COSTUME
; 631  : 		bCostume = false;
; 632  : #endif
; 633  : 	if( dwItemCode == 0 )	return;

  0000e	33 db		 xor	 ebx, ebx
  00010	39 5d 08	 cmp	 DWORD PTR _dwItemCode$[ebp], ebx
  00013	0f 84 a3 00 00
	00		 je	 $LN9@EquipItem

; 634  : 
; 635  : 	const ioItem *pItem = g_ItemMaker.GetItemConst( dwItemCode, __FUNCTION__ );

  00019	68 00 00 00 00	 push	 OFFSET ??_C@_0BI@FAMBKBJO@ioCreateChar?3?3EquipItem?$AA@
  0001e	8d 4d e4	 lea	 ecx, DWORD PTR $T574912[ebp]
  00021	ff 15 00 00 00
	00		 call	 DWORD PTR __imp_??0ioHashString@@QAE@PBD@Z
  00027	8d 45 e4	 lea	 eax, DWORD PTR $T574912[ebp]
  0002a	50		 push	 eax
  0002b	ff 75 08	 push	 DWORD PTR _dwItemCode$[ebp]
  0002e	89 5d fc	 mov	 DWORD PTR __$EHRec$[ebp+8], ebx
  00031	e8 00 00 00 00	 call	 ?GetSingleton@ioItemMaker@@SAAAV1@XZ ; ioItemMaker::GetSingleton
  00036	8b c8		 mov	 ecx, eax
  00038	e8 00 00 00 00	 call	 ?GetItemConst@ioItemMaker@@QBEPBVioItem@@KABVioHashString@@@Z ; ioItemMaker::GetItemConst
  0003d	83 4d fc ff	 or	 DWORD PTR __$EHRec$[ebp+8], -1
  00041	8d 4d e4	 lea	 ecx, DWORD PTR $T574912[ebp]
  00044	8b f0		 mov	 esi, eax
  00046	ff 15 00 00 00
	00		 call	 DWORD PTR __imp_??1ioHashString@@QAE@XZ

; 636  : 	if( !pItem )	return;

  0004c	3b f3		 cmp	 esi, ebx
  0004e	74 6c		 je	 SHORT $LN9@EquipItem

; 637  : 	
; 638  : 	switch( pItem->GetType() )

  00050	8b 06		 mov	 eax, DWORD PTR [esi]
  00052	8b ce		 mov	 ecx, esi
  00054	ff 50 08	 call	 DWORD PTR [eax+8]
  00057	48		 dec	 eax
  00058	74 45		 je	 SHORT $LN4@EquipItem
  0005a	48		 dec	 eax
  0005b	74 2e		 je	 SHORT $LN3@EquipItem
  0005d	48		 dec	 eax
  0005e	74 17		 je	 SHORT $LN2@EquipItem
  00060	48		 dec	 eax
  00061	75 4a		 jne	 SHORT $LN5@EquipItem

; 649  : 	case ioItem::IT_CLOAK:
; 650  : 		EquipCloak( pItem, dwItemMaleCustom, dwItemFemaleCustom, nCostumCode, bCostume );

  00063	53		 push	 ebx
  00064	ff 75 14	 push	 DWORD PTR _nCostumCode$[ebp]
  00067	8b cf		 mov	 ecx, edi
  00069	ff 75 10	 push	 DWORD PTR _dwItemFemaleCustom$[ebp]
  0006c	ff 75 0c	 push	 DWORD PTR _dwItemMaleCustom$[ebp]
  0006f	56		 push	 esi
  00070	e8 00 00 00 00	 call	 ?EquipCloak@ioCreateChar@@IAEXPBVioItem@@KKHH@Z ; ioCreateChar::EquipCloak

; 651  : 		break;

  00075	eb 36		 jmp	 SHORT $LN5@EquipItem
$LN2@EquipItem:

; 646  : 	case ioItem::IT_HELMET:
; 647  : 		EquipHelmet( pItem, dwItemMaleCustom, dwItemFemaleCustom, nCostumCode, bCostume );

  00077	53		 push	 ebx
  00078	ff 75 14	 push	 DWORD PTR _nCostumCode$[ebp]
  0007b	8b cf		 mov	 ecx, edi
  0007d	ff 75 10	 push	 DWORD PTR _dwItemFemaleCustom$[ebp]
  00080	ff 75 0c	 push	 DWORD PTR _dwItemMaleCustom$[ebp]
  00083	56		 push	 esi
  00084	e8 00 00 00 00	 call	 ?EquipHelmet@ioCreateChar@@IAEXPBVioItem@@KKHH@Z ; ioCreateChar::EquipHelmet

; 648  : 		break;

  00089	eb 22		 jmp	 SHORT $LN5@EquipItem
$LN3@EquipItem:

; 642  : 		break;
; 643  : 	case ioItem::IT_ARMOR:
; 644  : 		EquipArmor( pItem, dwItemMaleCustom, dwItemFemaleCustom, nCostumCode, bCostume );

  0008b	53		 push	 ebx
  0008c	ff 75 14	 push	 DWORD PTR _nCostumCode$[ebp]
  0008f	8b cf		 mov	 ecx, edi
  00091	ff 75 10	 push	 DWORD PTR _dwItemFemaleCustom$[ebp]
  00094	ff 75 0c	 push	 DWORD PTR _dwItemMaleCustom$[ebp]
  00097	56		 push	 esi
  00098	e8 00 00 00 00	 call	 ?EquipArmor@ioCreateChar@@IAEXPBVioItem@@KKHH@Z ; ioCreateChar::EquipArmor

; 645  : 		break;

  0009d	eb 0e		 jmp	 SHORT $LN5@EquipItem
$LN4@EquipItem:

; 639  : 	{
; 640  : 	case ioItem::IT_WEAPON:
; 641  : 		EquipWeapon( pItem, dwItemMaleCustom, dwItemFemaleCustom );

  0009f	ff 75 10	 push	 DWORD PTR _dwItemFemaleCustom$[ebp]
  000a2	8b cf		 mov	 ecx, edi
  000a4	ff 75 0c	 push	 DWORD PTR _dwItemMaleCustom$[ebp]
  000a7	56		 push	 esi
  000a8	e8 00 00 00 00	 call	 ?EquipWeapon@ioCreateChar@@IAEXPBVioItem@@KK@Z ; ioCreateChar::EquipWeapon
$LN5@EquipItem:

; 652  : 	}
; 653  : 	
; 654  : 	SetSkinColor( m_SkinColor, m_SkinOutLineColor );

  000ad	8d 47 30	 lea	 eax, DWORD PTR [edi+48]
  000b0	50		 push	 eax
  000b1	8d 47 20	 lea	 eax, DWORD PTR [edi+32]
  000b4	50		 push	 eax
  000b5	8b cf		 mov	 ecx, edi
  000b7	e8 00 00 00 00	 call	 ?SetSkinColor@ioCreateChar@@QAEXABU_D3DCOLORVALUE@@0@Z ; ioCreateChar::SetSkinColor
$LN9@EquipItem:

; 655  : }

  000bc	e8 00 00 00 00	 call	 __EH_epilog3
  000c1	c2 14 00	 ret	 20			; 00000014H
_TEXT	ENDS
;	COMDAT text$x
text$x	SEGMENT
__unwindfunclet$?EquipItem@ioCreateChar@@QAEXKKKHH@Z$0:
  00000	8d 4d e4	 lea	 ecx, DWORD PTR $T574912[ebp]
  00003	ff 25 00 00 00
	00		 jmp	 DWORD PTR __imp_??1ioHashString@@QAE@XZ
__ehhandler$?EquipItem@ioCreateChar@@QAEXKKKHH@Z:
  00009	8b 54 24 08	 mov	 edx, DWORD PTR [esp+8]
  0000d	8d 42 0c	 lea	 eax, DWORD PTR [edx+12]
  00010	8b 4a e0	 mov	 ecx, DWORD PTR [edx-32]
  00013	33 c8		 xor	 ecx, eax
  00015	e8 00 00 00 00	 call	 @__security_check_cookie@4
  0001a	b8 00 00 00 00	 mov	 eax, OFFSET __ehfuncinfo$?EquipItem@ioCreateChar@@QAEXKKKHH@Z
  0001f	e9 00 00 00 00	 jmp	 ___CxxFrameHandler3
text$x	ENDS
?EquipItem@ioCreateChar@@QAEXKKKHH@Z ENDP		; ioCreateChar::EquipItem
PUBLIC	?ReloadEquipItem@ioCreateChar@@QAEXKKK@Z	; ioCreateChar::ReloadEquipItem
;	COMDAT xdata$x
xdata$x	SEGMENT
__unwindtable$?ReloadEquipItem@ioCreateChar@@QAEXKKK@Z DD 0ffffffffH
	DD	FLAT:__unwindfunclet$?ReloadEquipItem@ioCreateChar@@QAEXKKK@Z$0
__ehfuncinfo$?ReloadEquipItem@ioCreateChar@@QAEXKKK@Z DD 019930522H
	DD	01H
	DD	FLAT:__unwindtable$?ReloadEquipItem@ioCreateChar@@QAEXKKK@Z
	DD	2 DUP(00H)
	DD	2 DUP(00H)
	DD	00H
	DD	01H
; Function compile flags: /Ogsp
xdata$x	ENDS
;	COMDAT ?ReloadEquipItem@ioCreateChar@@QAEXKKK@Z
_TEXT	SEGMENT
tv471 = -136						; size = 4
tv402 = -136						; size = 4
_bChangeItem$ = -129					; size = 1
_kItemSlot$ = -128					; size = 112
__$EHRec$ = -12						; size = 12
_dwItemCode$ = 8					; size = 4
_dwMaleCustom$ = 12					; size = 4
_dwFemaleCustom$ = 16					; size = 4
?ReloadEquipItem@ioCreateChar@@QAEXKKK@Z PROC		; ioCreateChar::ReloadEquipItem, COMDAT
; _this$ = ecx

; 2029 : {

  00000	6a 7c		 push	 124			; 0000007cH
  00002	b8 00 00 00 00	 mov	 eax, __ehhandler$?ReloadEquipItem@ioCreateChar@@QAEXKKK@Z
  00007	e8 00 00 00 00	 call	 __EH_prolog3_GS

; 2030 : 	if( dwItemCode == 0 ) return;

  0000c	8b 75 08	 mov	 esi, DWORD PTR _dwItemCode$[ebp]
  0000f	8b f9		 mov	 edi, ecx
  00011	85 f6		 test	 esi, esi
  00013	0f 84 b9 00 00
	00		 je	 $LN11@ReloadEqui

; 2031 : 
; 2032 : 	int i  = 0;
; 2033 : 	bool bChangeItem = false;
; 2034 : 	EquipItemInfo kItemSlot[MAX_CCS];

  00019	bb 00 00 00 00	 mov	 ebx, OFFSET ??1EquipItemInfo@ioCreateChar@@QAE@XZ
  0001e	53		 push	 ebx
  0001f	68 00 00 00 00	 push	 OFFSET ??0EquipItemInfo@ioCreateChar@@QAE@XZ ; ioCreateChar::EquipItemInfo::EquipItemInfo
  00024	6a 04		 push	 4
  00026	6a 1c		 push	 28			; 0000001cH
  00028	8d 45 80	 lea	 eax, DWORD PTR _kItemSlot$[ebp]
  0002b	50		 push	 eax
  0002c	c6 85 7f ff ff
	ff 00		 mov	 BYTE PTR _bChangeItem$[ebp], 0
  00033	e8 00 00 00 00	 call	 ??_L@YGXPAXIHP6EX0@Z1@Z
  00038	83 65 fc 00	 and	 DWORD PTR __$EHRec$[ebp+8], 0
  0003c	8d 45 84	 lea	 eax, DWORD PTR _kItemSlot$[ebp+4]
  0003f	8d 8f 80 00 00
	00		 lea	 ecx, DWORD PTR [edi+128]
  00045	c7 85 78 ff ff
	ff 04 00 00 00	 mov	 DWORD PTR tv402[ebp], 4
$LL9@ReloadEqui:

; 2035 : 	for(i = 0;i < MAX_CCS;i++)
; 2036 : 	{
; 2037 : 		if( m_ItemSlot[i].dwItemCode == dwItemCode )

  0004f	39 31		 cmp	 DWORD PTR [ecx], esi
  00051	75 14		 jne	 SHORT $LN6@ReloadEqui

; 2038 : 		{
; 2039 : 			kItemSlot[i].dwItemCode = dwItemCode;
; 2040 : 			kItemSlot[i].dwItemMaleCustom = dwMaleCustom;

  00053	8b 55 0c	 mov	 edx, DWORD PTR _dwMaleCustom$[ebp]
  00056	89 10		 mov	 DWORD PTR [eax], edx

; 2041 : 			kItemSlot[i].dwItemFemaleCustom = dwFemaleCustom;

  00058	8b 55 10	 mov	 edx, DWORD PTR _dwFemaleCustom$[ebp]
  0005b	89 70 fc	 mov	 DWORD PTR [eax-4], esi

; 2042 : 			bChangeItem = true;

  0005e	c6 85 7f ff ff
	ff 01		 mov	 BYTE PTR _bChangeItem$[ebp], 1

; 2043 : 		}
; 2044 : 		else

  00065	eb 0d		 jmp	 SHORT $LN19@ReloadEqui
$LN6@ReloadEqui:

; 2045 : 		{
; 2046 : 			kItemSlot[i].dwItemCode = m_ItemSlot[i].dwItemCode;

  00067	8b 11		 mov	 edx, DWORD PTR [ecx]
  00069	89 50 fc	 mov	 DWORD PTR [eax-4], edx

; 2047 : 			kItemSlot[i].dwItemMaleCustom = m_ItemSlot[i].dwItemMaleCustom;

  0006c	8b 51 04	 mov	 edx, DWORD PTR [ecx+4]
  0006f	89 10		 mov	 DWORD PTR [eax], edx

; 2048 : 			kItemSlot[i].dwItemFemaleCustom = m_ItemSlot[i].dwItemFemaleCustom;

  00071	8b 51 08	 mov	 edx, DWORD PTR [ecx+8]
$LN19@ReloadEqui:
  00074	89 50 04	 mov	 DWORD PTR [eax+4], edx
  00077	83 c0 1c	 add	 eax, 28			; 0000001cH
  0007a	83 c1 1c	 add	 ecx, 28			; 0000001cH
  0007d	ff 8d 78 ff ff
	ff		 dec	 DWORD PTR tv402[ebp]
  00083	75 ca		 jne	 SHORT $LL9@ReloadEqui

; 2049 : 		}
; 2050 : 	}
; 2051 : 
; 2052 : 	if( bChangeItem )

  00085	80 bd 7f ff ff
	ff 00		 cmp	 BYTE PTR _bChangeItem$[ebp], 0
  0008c	74 32		 je	 SHORT $LN1@ReloadEqui

; 2053 : 	{
; 2054 : 		ReleaseAllEquipItems();

  0008e	8b cf		 mov	 ecx, edi
  00090	e8 00 00 00 00	 call	 ?ReleaseAllEquipItems@ioCreateChar@@QAEXXZ ; ioCreateChar::ReleaseAllEquipItems
  00095	8d 75 84	 lea	 esi, DWORD PTR _kItemSlot$[ebp+4]
  00098	c7 85 78 ff ff
	ff 04 00 00 00	 mov	 DWORD PTR tv471[ebp], 4
$LL3@ReloadEqui:

; 2055 : 		for(i = 0;i < MAX_CCS;i++)
; 2056 : 		{
; 2057 : 			EquipItem( kItemSlot[i].dwItemCode, kItemSlot[i].dwItemMaleCustom, kItemSlot[i].dwItemFemaleCustom );

  000a2	6a 00		 push	 0
  000a4	6a 00		 push	 0
  000a6	ff 76 04	 push	 DWORD PTR [esi+4]
  000a9	8b cf		 mov	 ecx, edi
  000ab	ff 36		 push	 DWORD PTR [esi]
  000ad	ff 76 fc	 push	 DWORD PTR [esi-4]
  000b0	e8 00 00 00 00	 call	 ?EquipItem@ioCreateChar@@QAEXKKKHH@Z ; ioCreateChar::EquipItem
  000b5	83 c6 1c	 add	 esi, 28			; 0000001cH
  000b8	ff 8d 78 ff ff
	ff		 dec	 DWORD PTR tv471[ebp]
  000be	75 e2		 jne	 SHORT $LL3@ReloadEqui
$LN1@ReloadEqui:

; 2058 : 		}
; 2059 : 	}
; 2060 : }

  000c0	83 4d fc ff	 or	 DWORD PTR __$EHRec$[ebp+8], -1
  000c4	53		 push	 ebx
  000c5	6a 04		 push	 4
  000c7	6a 1c		 push	 28			; 0000001cH
  000c9	8d 45 80	 lea	 eax, DWORD PTR _kItemSlot$[ebp]
  000cc	50		 push	 eax
  000cd	e8 00 00 00 00	 call	 ??_M@YGXPAXIHP6EX0@Z@Z
$LN11@ReloadEqui:
  000d2	e8 00 00 00 00	 call	 __EH_epilog3_GS
  000d7	c2 0c 00	 ret	 12			; 0000000cH
_TEXT	ENDS
;	COMDAT text$x
text$x	SEGMENT
__unwindfunclet$?ReloadEquipItem@ioCreateChar@@QAEXKKK@Z$0:
  00000	68 00 00 00 00	 push	 OFFSET ??1EquipItemInfo@ioCreateChar@@QAE@XZ
  00005	6a 04		 push	 4
  00007	6a 1c		 push	 28			; 0000001cH
  00009	8d 45 80	 lea	 eax, DWORD PTR _kItemSlot$[ebp]
  0000c	50		 push	 eax
  0000d	e8 00 00 00 00	 call	 ??_M@YGXPAXIHP6EX0@Z@Z
  00012	c3		 ret	 0
__ehhandler$?ReloadEquipItem@ioCreateChar@@QAEXKKK@Z:
  00013	8b 54 24 08	 mov	 edx, DWORD PTR [esp+8]
  00017	8d 42 0c	 lea	 eax, DWORD PTR [edx+12]
  0001a	8b 8a 74 ff ff
	ff		 mov	 ecx, DWORD PTR [edx-140]
  00020	33 c8		 xor	 ecx, eax
  00022	e8 00 00 00 00	 call	 @__security_check_cookie@4
  00027	8b 4a fc	 mov	 ecx, DWORD PTR [edx-4]
  0002a	33 c8		 xor	 ecx, eax
  0002c	e8 00 00 00 00	 call	 @__security_check_cookie@4
  00031	b8 00 00 00 00	 mov	 eax, OFFSET __ehfuncinfo$?ReloadEquipItem@ioCreateChar@@QAEXKKK@Z
  00036	e9 00 00 00 00	 jmp	 ___CxxFrameHandler3
text$x	ENDS
?ReloadEquipItem@ioCreateChar@@QAEXKKK@Z ENDP		; ioCreateChar::ReloadEquipItem
PUBLIC	?InheritToNewChar@ioCreateChar@@QAEXPAV1@@Z	; ioCreateChar::InheritToNewChar
; Function compile flags: /Ogsp
;	COMDAT ?InheritToNewChar@ioCreateChar@@QAEXPAV1@@Z
_TEXT	SEGMENT
_pNewChar$ = 8						; size = 4
?InheritToNewChar@ioCreateChar@@QAEXPAV1@@Z PROC	; ioCreateChar::InheritToNewChar, COMDAT
; _this$ = ecx

; 607  : {

  00000	55		 push	 ebp
  00001	8b ec		 mov	 ebp, esp
  00003	56		 push	 esi
  00004	57		 push	 edi

; 608  : 	for( int i=0 ; i<MAX_CCS ; i++ )

  00005	6a 04		 push	 4
  00007	8d b1 80 00 00
	00		 lea	 esi, DWORD PTR [ecx+128]
  0000d	5f		 pop	 edi
$LL4@InheritToN:

; 609  : 	{
; 610  : 		if( m_ItemSlot[i].dwItemCode != 0 )

  0000e	8b 06		 mov	 eax, DWORD PTR [esi]
  00010	85 c0		 test	 eax, eax
  00012	74 13		 je	 SHORT $LN3@InheritToN

; 611  : 		{
; 612  : 			pNewChar->EquipItem( m_ItemSlot[i].dwItemCode, m_ItemSlot[i].dwItemMaleCustom, m_ItemSlot[i].dwItemFemaleCustom );

  00014	8b 4d 08	 mov	 ecx, DWORD PTR _pNewChar$[ebp]
  00017	6a 00		 push	 0
  00019	6a 00		 push	 0
  0001b	ff 76 08	 push	 DWORD PTR [esi+8]
  0001e	ff 76 04	 push	 DWORD PTR [esi+4]
  00021	50		 push	 eax
  00022	e8 00 00 00 00	 call	 ?EquipItem@ioCreateChar@@QAEXKKKHH@Z ; ioCreateChar::EquipItem
$LN3@InheritToN:

; 608  : 	for( int i=0 ; i<MAX_CCS ; i++ )

  00027	83 c6 1c	 add	 esi, 28			; 0000001cH
  0002a	4f		 dec	 edi
  0002b	75 e1		 jne	 SHORT $LL4@InheritToN
  0002d	5f		 pop	 edi
  0002e	5e		 pop	 esi

; 613  : 		}
; 614  : 	}
; 615  : }

  0002f	5d		 pop	 ebp
  00030	c2 04 00	 ret	 4
?InheritToNewChar@ioCreateChar@@QAEXPAV1@@Z ENDP	; ioCreateChar::InheritToNewChar
_TEXT	ENDS
END
