; Listing generated by Microsoft (R) Optimizing Compiler Version 16.00.30319.01 

	TITLE	D:\Lost Saga For Developer\Youtube\Tutorial\Source\src\LSClient\ioCrecendoSkill.cpp
	.686P
	.XMM
	include listing.inc
	.model	flat

INCLUDELIB MSVCRT
INCLUDELIB OLDNAMES

PUBLIC	?_EEM_DS@?$deque@UD3DXVECTOR3@@V?$allocator@UD3DXVECTOR3@@@std@@@std@@2HB ; std::deque<D3DXVECTOR3,std::allocator<D3DXVECTOR3> >::_EEM_DS
;	COMDAT ?_EEM_DS@?$deque@UD3DXVECTOR3@@V?$allocator@UD3DXVECTOR3@@@std@@@std@@2HB
CONST	SEGMENT
?_EEM_DS@?$deque@UD3DXVECTOR3@@V?$allocator@UD3DXVECTOR3@@@std@@@std@@2HB DD 01H ; std::deque<D3DXVECTOR3,std::allocator<D3DXVECTOR3> >::_EEM_DS
CONST	ENDS
PUBLIC	?return1@@YAIXZ					; return1
; Function compile flags: /Ogsp
; File d:\lost saga for developer\youtube\tutorial\source\src\lsclient\stdafx.h
;	COMDAT ?return1@@YAIXZ
_TEXT	SEGMENT
?return1@@YAIXZ PROC					; return1, COMDAT

; 17   : 	__forceinline unsigned int return1() { __asm mov eax, 1 };

  00000	b8 01 00 00 00	 mov	 eax, 1
  00005	c3		 ret	 0
?return1@@YAIXZ ENDP					; return1
_TEXT	ENDS
PUBLIC	?return5@@YAIXZ					; return5
; Function compile flags: /Ogsp
;	COMDAT ?return5@@YAIXZ
_TEXT	SEGMENT
?return5@@YAIXZ PROC					; return5, COMDAT

; 18   : 	__forceinline unsigned int return5() { __asm mov eax, 5 };

  00000	b8 05 00 00 00	 mov	 eax, 5
  00005	c3		 ret	 0
?return5@@YAIXZ ENDP					; return5
_TEXT	ENDS
PUBLIC	?return10@@YAIXZ				; return10
; Function compile flags: /Ogsp
;	COMDAT ?return10@@YAIXZ
_TEXT	SEGMENT
?return10@@YAIXZ PROC					; return10, COMDAT

; 21   : 	__forceinline unsigned int return10() { __asm mov eax, 10 };

  00000	b8 0a 00 00 00	 mov	 eax, 10			; 0000000aH
  00005	c3		 ret	 0
?return10@@YAIXZ ENDP					; return10
_TEXT	ENDS
PUBLIC	?return100@@YAIXZ				; return100
; Function compile flags: /Ogsp
;	COMDAT ?return100@@YAIXZ
_TEXT	SEGMENT
?return100@@YAIXZ PROC					; return100, COMDAT

; 25   : 	__forceinline unsigned int return100() { __asm mov eax, 100 };

  00000	b8 64 00 00 00	 mov	 eax, 100		; 00000064H
  00005	c3		 ret	 0
?return100@@YAIXZ ENDP					; return100
_TEXT	ENDS
PUBLIC	?GetCharName@ioBaseChar@@QBEABVioHashString@@XZ	; ioBaseChar::GetCharName
; Function compile flags: /Ogsp
; File d:\lost saga for developer\youtube\tutorial\source\src\lsclient\iobasechar.h
;	COMDAT ?GetCharName@ioBaseChar@@QBEABVioHashString@@XZ
_TEXT	SEGMENT
?GetCharName@ioBaseChar@@QBEABVioHashString@@XZ PROC	; ioBaseChar::GetCharName, COMDAT
; _this$ = ecx

; 2594 : 	inline const ioHashString& GetCharName() const { return m_Name; }

  00000	8d 81 d4 02 00
	00		 lea	 eax, DWORD PTR [ecx+724]
  00006	c3		 ret	 0
?GetCharName@ioBaseChar@@QBEABVioHashString@@XZ ENDP	; ioBaseChar::GetCharName
_TEXT	ENDS
PUBLIC	?GetTargetRot@ioBaseChar@@QBEABUD3DXQUATERNION@@XZ ; ioBaseChar::GetTargetRot
; Function compile flags: /Ogsp
;	COMDAT ?GetTargetRot@ioBaseChar@@QBEABUD3DXQUATERNION@@XZ
_TEXT	SEGMENT
?GetTargetRot@ioBaseChar@@QBEABUD3DXQUATERNION@@XZ PROC	; ioBaseChar::GetTargetRot, COMDAT
; _this$ = ecx

; 2599 : 	inline const D3DXQUATERNION& GetTargetRot() const { return m_qtTargetRot; }

  00000	8d 81 a4 06 00
	00		 lea	 eax, DWORD PTR [ecx+1700]
  00006	c3		 ret	 0
?GetTargetRot@ioBaseChar@@QBEABUD3DXQUATERNION@@XZ ENDP	; ioBaseChar::GetTargetRot
_TEXT	ENDS
PUBLIC	_sqrtf
EXTRN	__fltused:DWORD
EXTRN	__CIsqrt:PROC
; Function compile flags: /Ogsp
; File c:\program files (x86)\microsoft visual studio 10.0\vc\include\math.h
;	COMDAT _sqrtf
_TEXT	SEGMENT
tv69 = 8						; size = 4
__X$ = 8						; size = 4
_sqrtf	PROC						; COMDAT

; 434  :         {return ((float)sqrt((double)_X)); }

  00000	55		 push	 ebp
  00001	8b ec		 mov	 ebp, esp
  00003	d9 45 08	 fld	 DWORD PTR __X$[ebp]
  00006	e8 00 00 00 00	 call	 __CIsqrt
  0000b	d9 5d 08	 fstp	 DWORD PTR tv69[ebp]
  0000e	d9 45 08	 fld	 DWORD PTR tv69[ebp]
  00011	5d		 pop	 ebp
  00012	c3		 ret	 0
_sqrtf	ENDP
_TEXT	ENDS
PUBLIC	?IsLeftKeyRelease@ioBaseChar@@QBE_NXZ		; ioBaseChar::IsLeftKeyRelease
EXTRN	?IsLeftKeyRelease@ioUserKeyInput@@QBE_NXZ:PROC	; ioUserKeyInput::IsLeftKeyRelease
; Function compile flags: /Ogsp
; File d:\lost saga for developer\youtube\tutorial\source\src\lsclient\iobasechar.h
;	COMDAT ?IsLeftKeyRelease@ioBaseChar@@QBE_NXZ
_TEXT	SEGMENT
?IsLeftKeyRelease@ioBaseChar@@QBE_NXZ PROC		; ioBaseChar::IsLeftKeyRelease, COMDAT
; _this$ = ecx

; 3384 : 	bool IsLeftKeyRelease() const { return m_KeyInput.IsLeftKeyRelease(); }

  00000	81 c1 80 0c 00
	00		 add	 ecx, 3200		; 00000c80H
  00006	e9 00 00 00 00	 jmp	 ?IsLeftKeyRelease@ioUserKeyInput@@QBE_NXZ ; ioUserKeyInput::IsLeftKeyRelease
?IsLeftKeyRelease@ioBaseChar@@QBE_NXZ ENDP		; ioBaseChar::IsLeftKeyRelease
_TEXT	ENDS
PUBLIC	?IsRightKeyRelease@ioBaseChar@@QBE_NXZ		; ioBaseChar::IsRightKeyRelease
EXTRN	?IsRightKeyRelease@ioUserKeyInput@@QBE_NXZ:PROC	; ioUserKeyInput::IsRightKeyRelease
; Function compile flags: /Ogsp
;	COMDAT ?IsRightKeyRelease@ioBaseChar@@QBE_NXZ
_TEXT	SEGMENT
?IsRightKeyRelease@ioBaseChar@@QBE_NXZ PROC		; ioBaseChar::IsRightKeyRelease, COMDAT
; _this$ = ecx

; 3385 : 	bool IsRightKeyRelease() const { return m_KeyInput.IsRightKeyRelease(); }

  00000	81 c1 80 0c 00
	00		 add	 ecx, 3200		; 00000c80H
  00006	e9 00 00 00 00	 jmp	 ?IsRightKeyRelease@ioUserKeyInput@@QBE_NXZ ; ioUserKeyInput::IsRightKeyRelease
?IsRightKeyRelease@ioBaseChar@@QBE_NXZ ENDP		; ioBaseChar::IsRightKeyRelease
_TEXT	ENDS
PUBLIC	?IsUpKeyRelease@ioBaseChar@@QBE_NXZ		; ioBaseChar::IsUpKeyRelease
EXTRN	?IsUpKeyRelease@ioUserKeyInput@@QBE_NXZ:PROC	; ioUserKeyInput::IsUpKeyRelease
; Function compile flags: /Ogsp
;	COMDAT ?IsUpKeyRelease@ioBaseChar@@QBE_NXZ
_TEXT	SEGMENT
?IsUpKeyRelease@ioBaseChar@@QBE_NXZ PROC		; ioBaseChar::IsUpKeyRelease, COMDAT
; _this$ = ecx

; 3386 : 	bool IsUpKeyRelease() const { return m_KeyInput.IsUpKeyRelease(); }

  00000	81 c1 80 0c 00
	00		 add	 ecx, 3200		; 00000c80H
  00006	e9 00 00 00 00	 jmp	 ?IsUpKeyRelease@ioUserKeyInput@@QBE_NXZ ; ioUserKeyInput::IsUpKeyRelease
?IsUpKeyRelease@ioBaseChar@@QBE_NXZ ENDP		; ioBaseChar::IsUpKeyRelease
_TEXT	ENDS
PUBLIC	?IsDownKeyRelease@ioBaseChar@@QBE_NXZ		; ioBaseChar::IsDownKeyRelease
EXTRN	?IsDownKeyRelease@ioUserKeyInput@@QBE_NXZ:PROC	; ioUserKeyInput::IsDownKeyRelease
; Function compile flags: /Ogsp
;	COMDAT ?IsDownKeyRelease@ioBaseChar@@QBE_NXZ
_TEXT	SEGMENT
?IsDownKeyRelease@ioBaseChar@@QBE_NXZ PROC		; ioBaseChar::IsDownKeyRelease, COMDAT
; _this$ = ecx

; 3387 : 	bool IsDownKeyRelease() const { return m_KeyInput.IsDownKeyRelease(); }

  00000	81 c1 80 0c 00
	00		 add	 ecx, 3200		; 00000c80H
  00006	e9 00 00 00 00	 jmp	 ?IsDownKeyRelease@ioUserKeyInput@@QBE_NXZ ; ioUserKeyInput::IsDownKeyRelease
?IsDownKeyRelease@ioBaseChar@@QBE_NXZ ENDP		; ioBaseChar::IsDownKeyRelease
_TEXT	ENDS
PUBLIC	?GetCurDirMixKey@ioBaseChar@@QBE?AW4DirMixInput@ioUserKeyInput@@XZ ; ioBaseChar::GetCurDirMixKey
EXTRN	?GetCurDirMixKey@ioUserKeyInput@@QBE?AW4DirMixInput@1@XZ:PROC ; ioUserKeyInput::GetCurDirMixKey
; Function compile flags: /Ogsp
;	COMDAT ?GetCurDirMixKey@ioBaseChar@@QBE?AW4DirMixInput@ioUserKeyInput@@XZ
_TEXT	SEGMENT
?GetCurDirMixKey@ioBaseChar@@QBE?AW4DirMixInput@ioUserKeyInput@@XZ PROC ; ioBaseChar::GetCurDirMixKey, COMDAT
; _this$ = ecx

; 3405 : 	ioUserKeyInput::DirMixInput GetCurDirMixKey() const { return m_KeyInput.GetCurDirMixKey(); }

  00000	81 c1 80 0c 00
	00		 add	 ecx, 3200		; 00000c80H
  00006	e9 00 00 00 00	 jmp	 ?GetCurDirMixKey@ioUserKeyInput@@QBE?AW4DirMixInput@1@XZ ; ioUserKeyInput::GetCurDirMixKey
?GetCurDirMixKey@ioBaseChar@@QBE?AW4DirMixInput@ioUserKeyInput@@XZ ENDP ; ioBaseChar::GetCurDirMixKey
_TEXT	ENDS
PUBLIC	??_7bad_alloc@std@@6B@				; std::bad_alloc::`vftable'
PUBLIC	??0bad_alloc@std@@QAE@PBD@Z			; std::bad_alloc::bad_alloc
PUBLIC	??_R4bad_alloc@std@@6B@				; std::bad_alloc::`RTTI Complete Object Locator'
PUBLIC	??_R0?AVbad_alloc@std@@@8			; std::bad_alloc `RTTI Type Descriptor'
PUBLIC	??_R3bad_alloc@std@@8				; std::bad_alloc::`RTTI Class Hierarchy Descriptor'
PUBLIC	??_R2bad_alloc@std@@8				; std::bad_alloc::`RTTI Base Class Array'
PUBLIC	??_R1A@?0A@EA@bad_alloc@std@@8			; std::bad_alloc::`RTTI Base Class Descriptor at (0,-1,0,64)'
PUBLIC	??_R1A@?0A@EA@exception@std@@8			; std::exception::`RTTI Base Class Descriptor at (0,-1,0,64)'
PUBLIC	??_R0?AVexception@std@@@8			; std::exception `RTTI Type Descriptor'
PUBLIC	??_R3exception@std@@8				; std::exception::`RTTI Class Hierarchy Descriptor'
PUBLIC	??_R2exception@std@@8				; std::exception::`RTTI Base Class Array'
EXTRN	__imp_??0exception@std@@QAE@ABQBD@Z:PROC
EXTRN	??_7type_info@@6B@:QWORD			; type_info::`vftable'
EXTRN	??_Ebad_alloc@std@@UAEPAXI@Z:PROC		; std::bad_alloc::`vector deleting destructor'
EXTRN	?what@exception@std@@UBEPBDXZ:PROC		; std::exception::what
;	COMDAT ??_R2exception@std@@8
; File c:\program files (x86)\microsoft visual studio 10.0\vc\include\exception
rdata$r	SEGMENT
??_R2exception@std@@8 DD FLAT:??_R1A@?0A@EA@exception@std@@8 ; std::exception::`RTTI Base Class Array'
rdata$r	ENDS
;	COMDAT ??_R3exception@std@@8
rdata$r	SEGMENT
??_R3exception@std@@8 DD 00H				; std::exception::`RTTI Class Hierarchy Descriptor'
	DD	00H
	DD	01H
	DD	FLAT:??_R2exception@std@@8
rdata$r	ENDS
;	COMDAT ??_R0?AVexception@std@@@8
_DATA	SEGMENT
??_R0?AVexception@std@@@8 DD FLAT:??_7type_info@@6B@	; std::exception `RTTI Type Descriptor'
	DD	00H
	DB	'.?AVexception@std@@', 00H
_DATA	ENDS
;	COMDAT ??_R1A@?0A@EA@exception@std@@8
rdata$r	SEGMENT
??_R1A@?0A@EA@exception@std@@8 DD FLAT:??_R0?AVexception@std@@@8 ; std::exception::`RTTI Base Class Descriptor at (0,-1,0,64)'
	DD	00H
	DD	00H
	DD	0ffffffffH
	DD	00H
	DD	040H
	DD	FLAT:??_R3exception@std@@8
rdata$r	ENDS
;	COMDAT ??_R1A@?0A@EA@bad_alloc@std@@8
rdata$r	SEGMENT
??_R1A@?0A@EA@bad_alloc@std@@8 DD FLAT:??_R0?AVbad_alloc@std@@@8 ; std::bad_alloc::`RTTI Base Class Descriptor at (0,-1,0,64)'
	DD	01H
	DD	00H
	DD	0ffffffffH
	DD	00H
	DD	040H
	DD	FLAT:??_R3bad_alloc@std@@8
rdata$r	ENDS
;	COMDAT ??_R2bad_alloc@std@@8
rdata$r	SEGMENT
??_R2bad_alloc@std@@8 DD FLAT:??_R1A@?0A@EA@bad_alloc@std@@8 ; std::bad_alloc::`RTTI Base Class Array'
	DD	FLAT:??_R1A@?0A@EA@exception@std@@8
rdata$r	ENDS
;	COMDAT ??_R3bad_alloc@std@@8
rdata$r	SEGMENT
??_R3bad_alloc@std@@8 DD 00H				; std::bad_alloc::`RTTI Class Hierarchy Descriptor'
	DD	00H
	DD	02H
	DD	FLAT:??_R2bad_alloc@std@@8
rdata$r	ENDS
;	COMDAT ??_R0?AVbad_alloc@std@@@8
_DATA	SEGMENT
??_R0?AVbad_alloc@std@@@8 DD FLAT:??_7type_info@@6B@	; std::bad_alloc `RTTI Type Descriptor'
	DD	00H
	DB	'.?AVbad_alloc@std@@', 00H
_DATA	ENDS
;	COMDAT ??_R4bad_alloc@std@@6B@
rdata$r	SEGMENT
??_R4bad_alloc@std@@6B@ DD 00H				; std::bad_alloc::`RTTI Complete Object Locator'
	DD	00H
	DD	00H
	DD	FLAT:??_R0?AVbad_alloc@std@@@8
	DD	FLAT:??_R3bad_alloc@std@@8
rdata$r	ENDS
;	COMDAT ??_7bad_alloc@std@@6B@
CONST	SEGMENT
??_7bad_alloc@std@@6B@ DD FLAT:??_R4bad_alloc@std@@6B@	; std::bad_alloc::`vftable'
	DD	FLAT:??_Ebad_alloc@std@@UAEPAXI@Z
	DD	FLAT:?what@exception@std@@UBEPBDXZ
; Function compile flags: /Ogsp
CONST	ENDS
;	COMDAT ??0bad_alloc@std@@QAE@PBD@Z
_TEXT	SEGMENT
__Message$ = 8						; size = 4
??0bad_alloc@std@@QAE@PBD@Z PROC			; std::bad_alloc::bad_alloc, COMDAT
; _this$ = ecx

; 345  : 		{	// construct from message string

  00000	55		 push	 ebp
  00001	8b ec		 mov	 ebp, esp
  00003	56		 push	 esi
  00004	8d 45 08	 lea	 eax, DWORD PTR __Message$[ebp]
  00007	50		 push	 eax
  00008	8b f1		 mov	 esi, ecx
  0000a	ff 15 00 00 00
	00		 call	 DWORD PTR __imp_??0exception@std@@QAE@ABQBD@Z
  00010	c7 06 00 00 00
	00		 mov	 DWORD PTR [esi], OFFSET ??_7bad_alloc@std@@6B@

; 346  : 		}

  00016	8b c6		 mov	 eax, esi
  00018	5e		 pop	 esi
  00019	5d		 pop	 ebp
  0001a	c2 04 00	 ret	 4
??0bad_alloc@std@@QAE@PBD@Z ENDP			; std::bad_alloc::bad_alloc
_TEXT	ENDS
PUBLIC	??1bad_alloc@std@@UAE@XZ			; std::bad_alloc::~bad_alloc
EXTRN	__imp_??1exception@std@@UAE@XZ:PROC
; Function compile flags: /Ogsp
;	COMDAT ??1bad_alloc@std@@UAE@XZ
_TEXT	SEGMENT
??1bad_alloc@std@@UAE@XZ PROC				; std::bad_alloc::~bad_alloc, COMDAT
; _this$ = ecx

; 354  : 		{	// destroy the object

  00000	c7 01 00 00 00
	00		 mov	 DWORD PTR [ecx], OFFSET ??_7bad_alloc@std@@6B@

; 355  : 		}

  00006	ff 25 00 00 00
	00		 jmp	 DWORD PTR __imp_??1exception@std@@UAE@XZ
??1bad_alloc@std@@UAE@XZ ENDP				; std::bad_alloc::~bad_alloc
_TEXT	ENDS
EXTRN	??3@YAXPAX@Z:PROC				; operator delete
; Function compile flags: /Ogsp
;	COMDAT ??_Gbad_alloc@std@@UAEPAXI@Z
_TEXT	SEGMENT
___flags$ = 8						; size = 4
??_Gbad_alloc@std@@UAEPAXI@Z PROC			; std::bad_alloc::`scalar deleting destructor', COMDAT
; _this$ = ecx
  00000	55		 push	 ebp
  00001	8b ec		 mov	 ebp, esp
  00003	56		 push	 esi
  00004	8b f1		 mov	 esi, ecx
  00006	c7 06 00 00 00
	00		 mov	 DWORD PTR [esi], OFFSET ??_7bad_alloc@std@@6B@
  0000c	ff 15 00 00 00
	00		 call	 DWORD PTR __imp_??1exception@std@@UAE@XZ
  00012	f6 45 08 01	 test	 BYTE PTR ___flags$[ebp], 1
  00016	74 07		 je	 SHORT $LN1@scalar
  00018	56		 push	 esi
  00019	e8 00 00 00 00	 call	 ??3@YAXPAX@Z		; operator delete
  0001e	59		 pop	 ecx
$LN1@scalar:
  0001f	8b c6		 mov	 eax, esi
  00021	5e		 pop	 esi
  00022	5d		 pop	 ebp
  00023	c2 04 00	 ret	 4
??_Gbad_alloc@std@@UAEPAXI@Z ENDP			; std::bad_alloc::`scalar deleting destructor'
_TEXT	ENDS
PUBLIC	??2@YAPAXIPAX@Z					; operator new
; Function compile flags: /Ogsp
; File c:\program files (x86)\microsoft visual studio 10.0\vc\include\new
;	COMDAT ??2@YAPAXIPAX@Z
_TEXT	SEGMENT
___formal$ = 8						; size = 4
__Where$ = 12						; size = 4
??2@YAPAXIPAX@Z PROC					; operator new, COMDAT

; 56   : 	{	// construct array with placement at _Where

  00000	55		 push	 ebp
  00001	8b ec		 mov	 ebp, esp

; 57   : 	return (_Where);

  00003	8b 45 0c	 mov	 eax, DWORD PTR __Where$[ebp]

; 58   : 	}

  00006	5d		 pop	 ebp
  00007	c3		 ret	 0
??2@YAPAXIPAX@Z ENDP					; operator new
_TEXT	ENDS
PUBLIC	??3@YAXPAX0@Z					; operator delete
; Function compile flags: /Ogsp
;	COMDAT ??3@YAXPAX0@Z
_TEXT	SEGMENT
___formal$ = 8						; size = 4
___formal$ = 12						; size = 4
??3@YAXPAX0@Z PROC					; operator delete, COMDAT

; 62   : 	}

  00000	c3		 ret	 0
??3@YAXPAX0@Z ENDP					; operator delete
_TEXT	ENDS
PUBLIC	?GetBaseCharList@ioPlayStage@@QBEABV?$vector@PAVioBaseChar@@V?$allocator@PAVioBaseChar@@@std@@@std@@XZ ; ioPlayStage::GetBaseCharList
; Function compile flags: /Ogsp
; File d:\lost saga for developer\youtube\tutorial\source\src\lsclient\ioplaystage.h
;	COMDAT ?GetBaseCharList@ioPlayStage@@QBEABV?$vector@PAVioBaseChar@@V?$allocator@PAVioBaseChar@@@std@@@std@@XZ
_TEXT	SEGMENT
?GetBaseCharList@ioPlayStage@@QBEABV?$vector@PAVioBaseChar@@V?$allocator@PAVioBaseChar@@@std@@@std@@XZ PROC ; ioPlayStage::GetBaseCharList, COMDAT
; _this$ = ecx

; 755  : 	const BaseCharList& GetBaseCharList() const { return m_BaseCharList; }

  00000	8d 41 2c	 lea	 eax, DWORD PTR [ecx+44]
  00003	c3		 ret	 0
?GetBaseCharList@ioPlayStage@@QBEABV?$vector@PAVioBaseChar@@V?$allocator@PAVioBaseChar@@@std@@@std@@XZ ENDP ; ioPlayStage::GetBaseCharList
_TEXT	ENDS
PUBLIC	?Clear@KeyMapEffect@ioCrecendoSkill@@QAEXXZ	; ioCrecendoSkill::KeyMapEffect::Clear
; Function compile flags: /Ogsp
; File d:\lost saga for developer\youtube\tutorial\source\src\lsclient\iocrecendoskill.h
;	COMDAT ?Clear@KeyMapEffect@ioCrecendoSkill@@QAEXXZ
_TEXT	SEGMENT
?Clear@KeyMapEffect@ioCrecendoSkill@@QAEXXZ PROC	; ioCrecendoSkill::KeyMapEffect::Clear, COMDAT
; _this$ = ecx

; 78   : 			m_MapEffectID = -1;

  00000	83 09 ff	 or	 DWORD PTR [ecx], -1

; 79   : 			m_dwKey = WKS_NONE;

  00003	83 61 04 00	 and	 DWORD PTR [ecx+4], 0

; 80   : 		}

  00007	c3		 ret	 0
?Clear@KeyMapEffect@ioCrecendoSkill@@QAEXXZ ENDP	; ioCrecendoSkill::KeyMapEffect::Clear
_TEXT	ENDS
PUBLIC	?_Adopt@_Iterator_base0@std@@QAEXPBX@Z		; std::_Iterator_base0::_Adopt
; Function compile flags: /Ogsp
; File c:\program files (x86)\microsoft visual studio 10.0\vc\include\xutility
;	COMDAT ?_Adopt@_Iterator_base0@std@@QAEXPBX@Z
_TEXT	SEGMENT
___formal$ = 8						; size = 4
?_Adopt@_Iterator_base0@std@@QAEXPBX@Z PROC		; std::_Iterator_base0::_Adopt, COMDAT
; _this$ = ecx

; 49   : 		}

  00000	c2 04 00	 ret	 4
?_Adopt@_Iterator_base0@std@@QAEXPBX@Z ENDP		; std::_Iterator_base0::_Adopt
_TEXT	ENDS
PUBLIC	?CheckUseItemMesh@ioCrecendoSkill@@UAE_NXZ	; ioCrecendoSkill::CheckUseItemMesh
; Function compile flags: /Ogsp
; File d:\lost saga for developer\youtube\tutorial\source\src\lsclient\iocrecendoskill.cpp
;	COMDAT ?CheckUseItemMesh@ioCrecendoSkill@@UAE_NXZ
_TEXT	SEGMENT
?CheckUseItemMesh@ioCrecendoSkill@@UAE_NXZ PROC		; ioCrecendoSkill::CheckUseItemMesh, COMDAT
; _this$ = ecx

; 179  : 	return m_bUseItemMesh;

  00000	8a 81 08 0f 00
	00		 mov	 al, BYTE PTR [ecx+3848]

; 180  : }

  00006	c3		 ret	 0
?CheckUseItemMesh@ioCrecendoSkill@@UAE_NXZ ENDP		; ioCrecendoSkill::CheckUseItemMesh
_TEXT	ENDS
PUBLIC	?RemoveLastKeyEffect@ioCrecendoSkill@@IAEXPAVioBaseChar@@@Z ; ioCrecendoSkill::RemoveLastKeyEffect
EXTRN	?EndMapEffect@ioBaseChar@@QAEXK_N@Z:PROC	; ioBaseChar::EndMapEffect
; Function compile flags: /Ogsp
;	COMDAT ?RemoveLastKeyEffect@ioCrecendoSkill@@IAEXPAVioBaseChar@@@Z
_TEXT	SEGMENT
_pChar$ = 8						; size = 4
?RemoveLastKeyEffect@ioCrecendoSkill@@IAEXPAVioBaseChar@@@Z PROC ; ioCrecendoSkill::RemoveLastKeyEffect, COMDAT
; _this$ = ecx

; 626  : {

  00000	55		 push	 ebp
  00001	8b ec		 mov	 ebp, esp

; 627  : 	if( pChar )

  00003	83 7d 08 00	 cmp	 DWORD PTR _pChar$[ebp], 0
  00007	74 1b		 je	 SHORT $LN4@RemoveLast

; 628  : 	{
; 629  : 		pChar->EndMapEffect( m_LastKeyMapEffect.m_MapEffectID, false );	

  00009	56		 push	 esi
  0000a	8d b1 8c 11 00
	00		 lea	 esi, DWORD PTR [ecx+4492]
  00010	8b 4d 08	 mov	 ecx, DWORD PTR _pChar$[ebp]
  00013	6a 00		 push	 0
  00015	ff 36		 push	 DWORD PTR [esi]
  00017	e8 00 00 00 00	 call	 ?EndMapEffect@ioBaseChar@@QAEXK_N@Z ; ioBaseChar::EndMapEffect

; 630  : 		m_LastKeyMapEffect.Clear();

  0001c	83 0e ff	 or	 DWORD PTR [esi], -1
  0001f	83 66 04 00	 and	 DWORD PTR [esi+4], 0
  00023	5e		 pop	 esi
$LN4@RemoveLast:

; 631  : 	}
; 632  : }

  00024	5d		 pop	 ebp
  00025	c2 04 00	 ret	 4
?RemoveLastKeyEffect@ioCrecendoSkill@@IAEXPAVioBaseChar@@@Z ENDP ; ioCrecendoSkill::RemoveLastKeyEffect
_TEXT	ENDS
PUBLIC	?GetKey@ioCrecendoSkill@@IAEKPAVioBaseChar@@@Z	; ioCrecendoSkill::GetKey
; Function compile flags: /Ogsp
;	COMDAT ?GetKey@ioCrecendoSkill@@IAEKPAVioBaseChar@@@Z
_TEXT	SEGMENT
_pChar$ = 8						; size = 4
?GetKey@ioCrecendoSkill@@IAEKPAVioBaseChar@@@Z PROC	; ioCrecendoSkill::GetKey, COMDAT
; _this$ = ecx

; 653  : {

  00000	55		 push	 ebp
  00001	8b ec		 mov	 ebp, esp

; 654  : 	if( !pChar )

  00003	8b 45 08	 mov	 eax, DWORD PTR _pChar$[ebp]
  00006	85 c0		 test	 eax, eax
  00008	0f 84 cf 00 00
	00		 je	 $LN9@GetKey
$LN8@GetKey:
  0000e	56		 push	 esi

; 655  : 		return WKS_NONE;
; 656  : 
; 657  : 	if( pChar->IsUpKeyRelease() && !pChar->IsDownKeyRelease() && !pChar->IsLeftKeyRelease() && !pChar->IsRightKeyRelease() )

  0000f	8d b0 80 0c 00
	00		 lea	 esi, DWORD PTR [eax+3200]
  00015	8b ce		 mov	 ecx, esi
  00017	e8 00 00 00 00	 call	 ?IsUpKeyRelease@ioUserKeyInput@@QBE_NXZ ; ioUserKeyInput::IsUpKeyRelease
  0001c	84 c0		 test	 al, al
  0001e	74 29		 je	 SHORT $LN7@GetKey
  00020	8b ce		 mov	 ecx, esi
  00022	e8 00 00 00 00	 call	 ?IsDownKeyRelease@ioUserKeyInput@@QBE_NXZ ; ioUserKeyInput::IsDownKeyRelease
  00027	84 c0		 test	 al, al
  00029	75 1e		 jne	 SHORT $LN7@GetKey
  0002b	8b ce		 mov	 ecx, esi
  0002d	e8 00 00 00 00	 call	 ?IsLeftKeyRelease@ioUserKeyInput@@QBE_NXZ ; ioUserKeyInput::IsLeftKeyRelease
  00032	84 c0		 test	 al, al
  00034	75 13		 jne	 SHORT $LN7@GetKey
  00036	8b ce		 mov	 ecx, esi
  00038	e8 00 00 00 00	 call	 ?IsRightKeyRelease@ioUserKeyInput@@QBE_NXZ ; ioUserKeyInput::IsRightKeyRelease
  0003d	84 c0		 test	 al, al
  0003f	75 08		 jne	 SHORT $LN7@GetKey

; 658  : 	{
; 659  : 		return WKS_UP;

  00041	33 c0		 xor	 eax, eax
  00043	40		 inc	 eax
  00044	e9 93 00 00 00	 jmp	 $LN43@GetKey
$LN7@GetKey:

; 660  : 	}
; 661  : 	else if( !pChar->IsUpKeyRelease() && pChar->IsDownKeyRelease() && !pChar->IsLeftKeyRelease() && !pChar->IsRightKeyRelease() )

  00049	8b ce		 mov	 ecx, esi
  0004b	e8 00 00 00 00	 call	 ?IsUpKeyRelease@ioUserKeyInput@@QBE_NXZ ; ioUserKeyInput::IsUpKeyRelease
  00050	84 c0		 test	 al, al
  00052	75 25		 jne	 SHORT $LN5@GetKey
  00054	8b ce		 mov	 ecx, esi
  00056	e8 00 00 00 00	 call	 ?IsDownKeyRelease@ioUserKeyInput@@QBE_NXZ ; ioUserKeyInput::IsDownKeyRelease
  0005b	84 c0		 test	 al, al
  0005d	74 1a		 je	 SHORT $LN5@GetKey
  0005f	8b ce		 mov	 ecx, esi
  00061	e8 00 00 00 00	 call	 ?IsLeftKeyRelease@ioUserKeyInput@@QBE_NXZ ; ioUserKeyInput::IsLeftKeyRelease
  00066	84 c0		 test	 al, al
  00068	75 0f		 jne	 SHORT $LN5@GetKey
  0006a	8b ce		 mov	 ecx, esi
  0006c	e8 00 00 00 00	 call	 ?IsRightKeyRelease@ioUserKeyInput@@QBE_NXZ ; ioUserKeyInput::IsRightKeyRelease
  00071	84 c0		 test	 al, al
  00073	75 04		 jne	 SHORT $LN5@GetKey

; 662  : 	{
; 663  : 		return WKS_DOWN;

  00075	6a 03		 push	 3
  00077	eb 5e		 jmp	 SHORT $LN44@GetKey
$LN5@GetKey:

; 664  : 	}
; 665  : 	else if( !pChar->IsUpKeyRelease() && !pChar->IsDownKeyRelease() && pChar->IsLeftKeyRelease() && !pChar->IsRightKeyRelease() )

  00079	8b ce		 mov	 ecx, esi
  0007b	e8 00 00 00 00	 call	 ?IsUpKeyRelease@ioUserKeyInput@@QBE_NXZ ; ioUserKeyInput::IsUpKeyRelease
  00080	84 c0		 test	 al, al
  00082	75 25		 jne	 SHORT $LN3@GetKey
  00084	8b ce		 mov	 ecx, esi
  00086	e8 00 00 00 00	 call	 ?IsDownKeyRelease@ioUserKeyInput@@QBE_NXZ ; ioUserKeyInput::IsDownKeyRelease
  0008b	84 c0		 test	 al, al
  0008d	75 1a		 jne	 SHORT $LN3@GetKey
  0008f	8b ce		 mov	 ecx, esi
  00091	e8 00 00 00 00	 call	 ?IsLeftKeyRelease@ioUserKeyInput@@QBE_NXZ ; ioUserKeyInput::IsLeftKeyRelease
  00096	84 c0		 test	 al, al
  00098	74 0f		 je	 SHORT $LN3@GetKey
  0009a	8b ce		 mov	 ecx, esi
  0009c	e8 00 00 00 00	 call	 ?IsRightKeyRelease@ioUserKeyInput@@QBE_NXZ ; ioUserKeyInput::IsRightKeyRelease
  000a1	84 c0		 test	 al, al
  000a3	75 04		 jne	 SHORT $LN3@GetKey

; 666  : 	{
; 667  : 		return WKS_LEFT;

  000a5	6a 04		 push	 4
  000a7	eb 2e		 jmp	 SHORT $LN44@GetKey
$LN3@GetKey:

; 668  : 	}
; 669  : 	else if( !pChar->IsUpKeyRelease() && !pChar->IsDownKeyRelease() && !pChar->IsLeftKeyRelease() && pChar->IsRightKeyRelease() )

  000a9	8b ce		 mov	 ecx, esi
  000ab	e8 00 00 00 00	 call	 ?IsUpKeyRelease@ioUserKeyInput@@QBE_NXZ ; ioUserKeyInput::IsUpKeyRelease
  000b0	84 c0		 test	 al, al
  000b2	75 26		 jne	 SHORT $LN1@GetKey
  000b4	8b ce		 mov	 ecx, esi
  000b6	e8 00 00 00 00	 call	 ?IsDownKeyRelease@ioUserKeyInput@@QBE_NXZ ; ioUserKeyInput::IsDownKeyRelease
  000bb	84 c0		 test	 al, al
  000bd	75 1b		 jne	 SHORT $LN1@GetKey
  000bf	8b ce		 mov	 ecx, esi
  000c1	e8 00 00 00 00	 call	 ?IsLeftKeyRelease@ioUserKeyInput@@QBE_NXZ ; ioUserKeyInput::IsLeftKeyRelease
  000c6	84 c0		 test	 al, al
  000c8	75 10		 jne	 SHORT $LN1@GetKey
  000ca	8b ce		 mov	 ecx, esi
  000cc	e8 00 00 00 00	 call	 ?IsRightKeyRelease@ioUserKeyInput@@QBE_NXZ ; ioUserKeyInput::IsRightKeyRelease
  000d1	84 c0		 test	 al, al
  000d3	74 05		 je	 SHORT $LN1@GetKey

; 670  : 	{
; 671  : 		return WKS_RIGHT;

  000d5	6a 02		 push	 2
$LN44@GetKey:
  000d7	58		 pop	 eax
  000d8	eb 02		 jmp	 SHORT $LN43@GetKey
$LN1@GetKey:

; 672  : 	}
; 673  : 
; 674  : 	return WKS_NONE;

  000da	33 c0		 xor	 eax, eax
$LN43@GetKey:
  000dc	5e		 pop	 esi
$LN9@GetKey:

; 675  : }

  000dd	5d		 pop	 ebp
  000de	c2 04 00	 ret	 4
?GetKey@ioCrecendoSkill@@IAEKPAVioBaseChar@@@Z ENDP	; ioCrecendoSkill::GetKey
_TEXT	ENDS
PUBLIC	?GetMixKey@ioCrecendoSkill@@IAEKPAVioBaseChar@@@Z ; ioCrecendoSkill::GetMixKey
; Function compile flags: /Ogsp
;	COMDAT ?GetMixKey@ioCrecendoSkill@@IAEKPAVioBaseChar@@@Z
_TEXT	SEGMENT
_pChar$ = 8						; size = 4
?GetMixKey@ioCrecendoSkill@@IAEKPAVioBaseChar@@@Z PROC	; ioCrecendoSkill::GetMixKey, COMDAT
; _this$ = ecx

; 678  : {

  00000	55		 push	 ebp
  00001	8b ec		 mov	 ebp, esp

; 679  : 	ioUserKeyInput::DirMixInput eMixKey = pChar->GetCurDirMixKey();	

  00003	8b 4d 08	 mov	 ecx, DWORD PTR _pChar$[ebp]
  00006	81 c1 80 0c 00
	00		 add	 ecx, 3200		; 00000c80H
  0000c	e8 00 00 00 00	 call	 ?GetCurDirMixKey@ioUserKeyInput@@QBE?AW4DirMixInput@1@XZ ; ioUserKeyInput::GetCurDirMixKey

; 680  : 	switch( eMixKey )

  00011	48		 dec	 eax
  00012	74 04		 je	 SHORT $LN1@GetMixKey

; 684  : 	}
; 685  : 
; 686  : 	return WKS_NONE;

  00014	33 c0		 xor	 eax, eax
  00016	eb 03		 jmp	 SHORT $LN4@GetMixKey
$LN1@GetMixKey:

; 681  : 	{
; 682  : 	case ioUserKeyInput::DMI_LEFT_UP_RIGHT:
; 683  : 		return WKS_LAST;

  00018	6a 05		 push	 5
  0001a	58		 pop	 eax
$LN4@GetMixKey:

; 687  : }

  0001b	5d		 pop	 ebp
  0001c	c2 04 00	 ret	 4
?GetMixKey@ioCrecendoSkill@@IAEKPAVioBaseChar@@@Z ENDP	; ioCrecendoSkill::GetMixKey
_TEXT	ENDS
PUBLIC	?ApplyAttributeToWeapon@ioCrecendoSkill@@UAEXPAVioWeapon@@PAVioPlayStage@@@Z ; ioCrecendoSkill::ApplyAttributeToWeapon
EXTRN	?ApplyAttributeToWeapon@ioSkill@@UAEXPAVioWeapon@@PAVioPlayStage@@@Z:PROC ; ioSkill::ApplyAttributeToWeapon
; Function compile flags: /Ogsp
;	COMDAT ?ApplyAttributeToWeapon@ioCrecendoSkill@@UAEXPAVioWeapon@@PAVioPlayStage@@@Z
_TEXT	SEGMENT
_pWeapon$ = 8						; size = 4
_pStage$ = 12						; size = 4
?ApplyAttributeToWeapon@ioCrecendoSkill@@UAEXPAVioWeapon@@PAVioPlayStage@@@Z PROC ; ioCrecendoSkill::ApplyAttributeToWeapon, COMDAT
; _this$ = ecx

; 763  : {

  00000	55		 push	 ebp
  00001	8b ec		 mov	 ebp, esp

; 765  : }

  00003	5d		 pop	 ebp

; 764  : 	ioSkill::ApplyAttributeToWeapon( pWeapon, pStage );

  00004	e9 00 00 00 00	 jmp	 ?ApplyAttributeToWeapon@ioSkill@@UAEXPAVioWeapon@@PAVioPlayStage@@@Z ; ioSkill::ApplyAttributeToWeapon
?ApplyAttributeToWeapon@ioCrecendoSkill@@UAEXPAVioWeapon@@PAVioPlayStage@@@Z ENDP ; ioCrecendoSkill::ApplyAttributeToWeapon
_TEXT	ENDS
PUBLIC	?IsSkillMotionEnd@ioCrecendoSkill@@UBE_NKPAVioBaseChar@@@Z ; ioCrecendoSkill::IsSkillMotionEnd
EXTRN	__imp_?GetLoopSec@ioFrameTimer@@QBEKXZ:PROC
EXTRN	__imp_?GetSingleton@ioFrameTimer@@SAAAV1@XZ:PROC
; Function compile flags: /Ogsp
;	COMDAT ?IsSkillMotionEnd@ioCrecendoSkill@@UBE_NKPAVioBaseChar@@@Z
_TEXT	SEGMENT
_dwActionStop$ = 8					; size = 4
_pOwner$ = 12						; size = 4
?IsSkillMotionEnd@ioCrecendoSkill@@UBE_NKPAVioBaseChar@@@Z PROC ; ioCrecendoSkill::IsSkillMotionEnd, COMDAT
; _this$ = ecx

; 821  : {

  00000	56		 push	 esi
  00001	8b f1		 mov	 esi, ecx

; 822  : 	if( m_dwPreDelayStartTime > 0 )

  00003	83 be 20 02 00
	00 00		 cmp	 DWORD PTR [esi+544], 0
  0000a	76 04		 jbe	 SHORT $LN6@IsSkillMot
$LN3@IsSkillMot:

; 823  : 		return false;

  0000c	32 c0		 xor	 al, al
  0000e	eb 34		 jmp	 SHORT $LN7@IsSkillMot
$LN6@IsSkillMot:

; 824  : 
; 825  : 	switch( m_SkillState )

  00010	8b 86 e4 10 00
	00		 mov	 eax, DWORD PTR [esi+4324]
  00016	85 c0		 test	 eax, eax
  00018	78 28		 js	 SHORT $LN1@IsSkillMot
  0001a	83 f8 01	 cmp	 eax, 1
  0001d	7e ed		 jle	 SHORT $LN3@IsSkillMot
  0001f	83 f8 02	 cmp	 eax, 2
  00022	75 1e		 jne	 SHORT $LN1@IsSkillMot

; 826  : 	{
; 827  : 	case SS_DELAY:
; 828  : 	case SS_LOOP:
; 829  : 		return false;
; 830  : 	case SS_END:
; 831  : 		if( FRAMEGETTIME() < m_dwEndTime + 500 )

  00024	ff 15 00 00 00
	00		 call	 DWORD PTR __imp_?GetSingleton@ioFrameTimer@@SAAAV1@XZ
  0002a	8b c8		 mov	 ecx, eax
  0002c	ff 15 00 00 00
	00		 call	 DWORD PTR __imp_?GetLoopSec@ioFrameTimer@@QBEKXZ
  00032	8b 8e 04 11 00
	00		 mov	 ecx, DWORD PTR [esi+4356]
  00038	81 c1 f4 01 00
	00		 add	 ecx, 500		; 000001f4H
  0003e	3b c1		 cmp	 eax, ecx

; 832  : 		{
; 833  : 			return false;

  00040	72 ca		 jb	 SHORT $LN3@IsSkillMot
$LN1@IsSkillMot:

; 834  : 		}
; 835  : 	}
; 836  : 
; 837  : 	return true;

  00042	b0 01		 mov	 al, 1
$LN7@IsSkillMot:
  00044	5e		 pop	 esi

; 838  : }

  00045	c2 08 00	 ret	 8
?IsSkillMotionEnd@ioCrecendoSkill@@UBE_NKPAVioBaseChar@@@Z ENDP ; ioCrecendoSkill::IsSkillMotionEnd
_TEXT	ENDS
PUBLIC	?IsProtected@ioCrecendoSkill@@UBE_NH@Z		; ioCrecendoSkill::IsProtected
; Function compile flags: /Ogsp
;	COMDAT ?IsProtected@ioCrecendoSkill@@UBE_NH@Z
_TEXT	SEGMENT
_iDefenseBreakType$ = 8					; size = 4
?IsProtected@ioCrecendoSkill@@UBE_NH@Z PROC		; ioCrecendoSkill::IsProtected, COMDAT
; _this$ = ecx

; 841  : {

  00000	55		 push	 ebp
  00001	8b ec		 mov	 ebp, esp
  00003	56		 push	 esi
  00004	8b f1		 mov	 esi, ecx

; 842  : 	if( DBT_NONE != (DefenseBreakType)m_ProtectCancelType )

  00006	8b 86 a4 00 00
	00		 mov	 eax, DWORD PTR [esi+164]
  0000c	85 c0		 test	 eax, eax
  0000e	74 09		 je	 SHORT $LN4@IsProtecte

; 843  : 	{
; 844  : 		if( iDefenseBreakType == m_ProtectCancelType )   // 스킬 무적 파괴

  00010	39 45 08	 cmp	 DWORD PTR _iDefenseBreakType$[ebp], eax
  00013	75 04		 jne	 SHORT $LN4@IsProtecte

; 845  : 			return false;

  00015	32 c0		 xor	 al, al
  00017	eb 30		 jmp	 SHORT $LN1@IsProtecte
$LN4@IsProtecte:

; 846  : 	}
; 847  : 
; 848  : 	if( IsPreDelayProtect() )

  00019	8b 06		 mov	 eax, DWORD PTR [esi]
  0001b	ff 90 2c 01 00
	00		 call	 DWORD PTR [eax+300]
  00021	84 c0		 test	 al, al
  00023	74 0d		 je	 SHORT $LN2@IsProtecte

; 849  : 	{
; 850  : 		if( m_dwPreDelayStartTime != 0 )

  00025	83 be 20 02 00
	00 00		 cmp	 DWORD PTR [esi+544], 0
  0002c	74 04		 je	 SHORT $LN2@IsProtecte

; 851  : 			return true;

  0002e	b0 01		 mov	 al, 1
  00030	eb 17		 jmp	 SHORT $LN1@IsProtecte
$LN2@IsProtecte:

; 852  : 	}
; 853  : 
; 854  : 	DWORD dwCurTime = FRAMEGETTIME();

  00032	ff 15 00 00 00
	00		 call	 DWORD PTR __imp_?GetSingleton@ioFrameTimer@@SAAAV1@XZ
  00038	8b c8		 mov	 ecx, eax
  0003a	ff 15 00 00 00
	00		 call	 DWORD PTR __imp_?GetLoopSec@ioFrameTimer@@QBEKXZ

; 855  : 	if( m_dwCurSkillProtectTime > dwCurTime )

  00040	39 86 0c 11 00
	00		 cmp	 DWORD PTR [esi+4364], eax
  00046	0f 97 c0	 seta	 al
$LN1@IsProtecte:
  00049	5e		 pop	 esi

; 856  : 	{
; 857  : 		return true;
; 858  : 	}
; 859  : 
; 860  : 	return false;
; 861  : }

  0004a	5d		 pop	 ebp
  0004b	c2 04 00	 ret	 4
?IsProtected@ioCrecendoSkill@@UBE_NH@Z ENDP		; ioCrecendoSkill::IsProtected
_TEXT	ENDS
PUBLIC	??D?$_Vector_const_iterator@V?$_Vector_val@UWeaponInfo@@V?$allocator@UWeaponInfo@@@std@@@std@@@std@@QBEABUWeaponInfo@@XZ ; std::_Vector_const_iterator<std::_Vector_val<WeaponInfo,std::allocator<WeaponInfo> > >::operator*
; Function compile flags: /Ogsp
; File c:\program files (x86)\microsoft visual studio 10.0\vc\include\vector
;	COMDAT ??D?$_Vector_const_iterator@V?$_Vector_val@UWeaponInfo@@V?$allocator@UWeaponInfo@@@std@@@std@@@std@@QBEABUWeaponInfo@@XZ
_TEXT	SEGMENT
??D?$_Vector_const_iterator@V?$_Vector_val@UWeaponInfo@@V?$allocator@UWeaponInfo@@@std@@@std@@@std@@QBEABUWeaponInfo@@XZ PROC ; std::_Vector_const_iterator<std::_Vector_val<WeaponInfo,std::allocator<WeaponInfo> > >::operator*, COMDAT
; _this$ = ecx

; 64   :  #if _ITERATOR_DEBUG_LEVEL == 2
; 65   : 		if (this->_Getcont() == 0
; 66   : 			|| this->_Ptr == 0
; 67   : 			|| this->_Ptr < ((_Myvec *)this->_Getcont())->_Myfirst
; 68   : 			|| ((_Myvec *)this->_Getcont())->_Mylast <= this->_Ptr)
; 69   : 			{	// report error
; 70   : 			_DEBUG_ERROR("vector iterator not dereferencable");
; 71   : 			_SCL_SECURE_OUT_OF_RANGE;
; 72   : 			}
; 73   : 
; 74   :  #elif _ITERATOR_DEBUG_LEVEL == 1
; 75   : 		_SCL_SECURE_VALIDATE(this->_Getcont() != 0);
; 76   : 		_SCL_SECURE_VALIDATE_RANGE(
; 77   : 			this->_Ptr != 0
; 78   : 			&& ((_Myvec *)this->_Getcont())->_Myfirst <= this->_Ptr
; 79   : 			&& this->_Ptr < ((_Myvec *)this->_Getcont())->_Mylast);
; 80   :  #endif /* _ITERATOR_DEBUG_LEVEL */
; 81   : 
; 82   : 		__analysis_assume(this->_Ptr != 0);
; 83   : 
; 84   : 		return (*this->_Ptr);

  00000	8b 01		 mov	 eax, DWORD PTR [ecx]

; 85   : 		}

  00002	c3		 ret	 0
??D?$_Vector_const_iterator@V?$_Vector_val@UWeaponInfo@@V?$allocator@UWeaponInfo@@@std@@@std@@@std@@QBEABUWeaponInfo@@XZ ENDP ; std::_Vector_const_iterator<std::_Vector_val<WeaponInfo,std::allocator<WeaponInfo> > >::operator*
_TEXT	ENDS
PUBLIC	??E?$_Vector_const_iterator@V?$_Vector_val@UWeaponInfo@@V?$allocator@UWeaponInfo@@@std@@@std@@@std@@QAEAAV01@XZ ; std::_Vector_const_iterator<std::_Vector_val<WeaponInfo,std::allocator<WeaponInfo> > >::operator++
; Function compile flags: /Ogsp
;	COMDAT ??E?$_Vector_const_iterator@V?$_Vector_val@UWeaponInfo@@V?$allocator@UWeaponInfo@@@std@@@std@@@std@@QAEAAV01@XZ
_TEXT	SEGMENT
??E?$_Vector_const_iterator@V?$_Vector_val@UWeaponInfo@@V?$allocator@UWeaponInfo@@@std@@@std@@@std@@QAEAAV01@XZ PROC ; std::_Vector_const_iterator<std::_Vector_val<WeaponInfo,std::allocator<WeaponInfo> > >::operator++, COMDAT
; _this$ = ecx

; 93   : 		{	// preincrement

  00000	8b c1		 mov	 eax, ecx

; 94   :  #if _ITERATOR_DEBUG_LEVEL == 2
; 95   : 		if (this->_Getcont() == 0
; 96   : 			|| this->_Ptr == 0
; 97   : 			|| ((_Myvec *)this->_Getcont())->_Mylast <= this->_Ptr)
; 98   : 			{	// report error
; 99   : 			_DEBUG_ERROR("vector iterator not incrementable");
; 100  : 			_SCL_SECURE_OUT_OF_RANGE;
; 101  : 			}
; 102  : 
; 103  :  #elif _ITERATOR_DEBUG_LEVEL == 1
; 104  : 		_SCL_SECURE_VALIDATE(this->_Getcont() != 0);
; 105  : 		_SCL_SECURE_VALIDATE_RANGE(
; 106  : 			this->_Ptr != 0
; 107  : 			&& this->_Ptr < ((_Myvec *)this->_Getcont())->_Mylast);
; 108  :  #endif /* _ITERATOR_DEBUG_LEVEL */
; 109  : 
; 110  : 		++this->_Ptr;

  00002	83 00 28	 add	 DWORD PTR [eax], 40	; 00000028H

; 111  : 		return (*this);
; 112  : 		}

  00005	c3		 ret	 0
??E?$_Vector_const_iterator@V?$_Vector_val@UWeaponInfo@@V?$allocator@UWeaponInfo@@@std@@@std@@@std@@QAEAAV01@XZ ENDP ; std::_Vector_const_iterator<std::_Vector_val<WeaponInfo,std::allocator<WeaponInfo> > >::operator++
_TEXT	ENDS
PUBLIC	?size@?$vector@UWaveKey@ioCrecendoSkill@@V?$allocator@UWaveKey@ioCrecendoSkill@@@std@@@std@@QBEIXZ ; std::vector<ioCrecendoSkill::WaveKey,std::allocator<ioCrecendoSkill::WaveKey> >::size
; Function compile flags: /Ogsp
;	COMDAT ?size@?$vector@UWaveKey@ioCrecendoSkill@@V?$allocator@UWaveKey@ioCrecendoSkill@@@std@@@std@@QBEIXZ
_TEXT	SEGMENT
?size@?$vector@UWaveKey@ioCrecendoSkill@@V?$allocator@UWaveKey@ioCrecendoSkill@@@std@@@std@@QBEIXZ PROC ; std::vector<ioCrecendoSkill::WaveKey,std::allocator<ioCrecendoSkill::WaveKey> >::size, COMDAT
; _this$ = ecx

; 879  : 		return (this->_Mylast - this->_Myfirst);

  00000	8b 41 04	 mov	 eax, DWORD PTR [ecx+4]
  00003	2b 01		 sub	 eax, DWORD PTR [ecx]
  00005	6a 6c		 push	 108			; 0000006cH
  00007	99		 cdq
  00008	59		 pop	 ecx
  00009	f7 f9		 idiv	 ecx

; 880  : 		}

  0000b	c3		 ret	 0
?size@?$vector@UWaveKey@ioCrecendoSkill@@V?$allocator@UWaveKey@ioCrecendoSkill@@@std@@@std@@QBEIXZ ENDP ; std::vector<ioCrecendoSkill::WaveKey,std::allocator<ioCrecendoSkill::WaveKey> >::size
_TEXT	ENDS
PUBLIC	??A?$vector@UWaveKey@ioCrecendoSkill@@V?$allocator@UWaveKey@ioCrecendoSkill@@@std@@@std@@QAEAAUWaveKey@ioCrecendoSkill@@I@Z ; std::vector<ioCrecendoSkill::WaveKey,std::allocator<ioCrecendoSkill::WaveKey> >::operator[]
; Function compile flags: /Ogsp
;	COMDAT ??A?$vector@UWaveKey@ioCrecendoSkill@@V?$allocator@UWaveKey@ioCrecendoSkill@@@std@@@std@@QAEAAUWaveKey@ioCrecendoSkill@@I@Z
_TEXT	SEGMENT
__Pos$ = 8						; size = 4
??A?$vector@UWaveKey@ioCrecendoSkill@@V?$allocator@UWaveKey@ioCrecendoSkill@@@std@@@std@@QAEAAUWaveKey@ioCrecendoSkill@@I@Z PROC ; std::vector<ioCrecendoSkill::WaveKey,std::allocator<ioCrecendoSkill::WaveKey> >::operator[], COMDAT
; _this$ = ecx

; 928  : 		{	// subscript mutable sequence

  00000	55		 push	 ebp
  00001	8b ec		 mov	 ebp, esp

; 929  :  #if _ITERATOR_DEBUG_LEVEL == 2
; 930  : 		if (size() <= _Pos)
; 931  : 			{	// report error
; 932  : 			_DEBUG_ERROR("vector subscript out of range");
; 933  : 			_SCL_SECURE_OUT_OF_RANGE;
; 934  : 			}
; 935  : 
; 936  :  #elif _ITERATOR_DEBUG_LEVEL == 1
; 937  : 		_SCL_SECURE_VALIDATE_RANGE(_Pos < size());
; 938  :  #endif /* _ITERATOR_DEBUG_LEVEL */
; 939  : 
; 940  : 		return (*(this->_Myfirst + _Pos));

  00003	8b 45 08	 mov	 eax, DWORD PTR __Pos$[ebp]
  00006	6b c0 6c	 imul	 eax, 108		; 0000006cH
  00009	03 01		 add	 eax, DWORD PTR [ecx]

; 941  : 		}

  0000b	5d		 pop	 ebp
  0000c	c2 04 00	 ret	 4
??A?$vector@UWaveKey@ioCrecendoSkill@@V?$allocator@UWaveKey@ioCrecendoSkill@@@std@@@std@@QAEAAUWaveKey@ioCrecendoSkill@@I@Z ENDP ; std::vector<ioCrecendoSkill::WaveKey,std::allocator<ioCrecendoSkill::WaveKey> >::operator[]
_TEXT	ENDS
PUBLIC	?size@?$vector@UKeyMapEffect@ioCrecendoSkill@@V?$allocator@UKeyMapEffect@ioCrecendoSkill@@@std@@@std@@QBEIXZ ; std::vector<ioCrecendoSkill::KeyMapEffect,std::allocator<ioCrecendoSkill::KeyMapEffect> >::size
; Function compile flags: /Ogsp
;	COMDAT ?size@?$vector@UKeyMapEffect@ioCrecendoSkill@@V?$allocator@UKeyMapEffect@ioCrecendoSkill@@@std@@@std@@QBEIXZ
_TEXT	SEGMENT
?size@?$vector@UKeyMapEffect@ioCrecendoSkill@@V?$allocator@UKeyMapEffect@ioCrecendoSkill@@@std@@@std@@QBEIXZ PROC ; std::vector<ioCrecendoSkill::KeyMapEffect,std::allocator<ioCrecendoSkill::KeyMapEffect> >::size, COMDAT
; _this$ = ecx

; 879  : 		return (this->_Mylast - this->_Myfirst);

  00000	8b 41 04	 mov	 eax, DWORD PTR [ecx+4]
  00003	2b 01		 sub	 eax, DWORD PTR [ecx]
  00005	c1 f8 03	 sar	 eax, 3

; 880  : 		}

  00008	c3		 ret	 0
?size@?$vector@UKeyMapEffect@ioCrecendoSkill@@V?$allocator@UKeyMapEffect@ioCrecendoSkill@@@std@@@std@@QBEIXZ ENDP ; std::vector<ioCrecendoSkill::KeyMapEffect,std::allocator<ioCrecendoSkill::KeyMapEffect> >::size
_TEXT	ENDS
PUBLIC	?empty@?$vector@UKeyMapEffect@ioCrecendoSkill@@V?$allocator@UKeyMapEffect@ioCrecendoSkill@@@std@@@std@@QBE_NXZ ; std::vector<ioCrecendoSkill::KeyMapEffect,std::allocator<ioCrecendoSkill::KeyMapEffect> >::empty
; Function compile flags: /Ogsp
;	COMDAT ?empty@?$vector@UKeyMapEffect@ioCrecendoSkill@@V?$allocator@UKeyMapEffect@ioCrecendoSkill@@@std@@@std@@QBE_NXZ
_TEXT	SEGMENT
?empty@?$vector@UKeyMapEffect@ioCrecendoSkill@@V?$allocator@UKeyMapEffect@ioCrecendoSkill@@@std@@@std@@QBE_NXZ PROC ; std::vector<ioCrecendoSkill::KeyMapEffect,std::allocator<ioCrecendoSkill::KeyMapEffect> >::empty, COMDAT
; _this$ = ecx

; 889  : 		return (this->_Myfirst == this->_Mylast);

  00000	8b 01		 mov	 eax, DWORD PTR [ecx]
  00002	2b 41 04	 sub	 eax, DWORD PTR [ecx+4]
  00005	f7 d8		 neg	 eax
  00007	1b c0		 sbb	 eax, eax
  00009	40		 inc	 eax

; 890  : 		}

  0000a	c3		 ret	 0
?empty@?$vector@UKeyMapEffect@ioCrecendoSkill@@V?$allocator@UKeyMapEffect@ioCrecendoSkill@@@std@@@std@@QBE_NXZ ENDP ; std::vector<ioCrecendoSkill::KeyMapEffect,std::allocator<ioCrecendoSkill::KeyMapEffect> >::empty
_TEXT	ENDS
PUBLIC	??D?$_Vector_const_iterator@V?$_Vector_val@UKeyMapEffect@ioCrecendoSkill@@V?$allocator@UKeyMapEffect@ioCrecendoSkill@@@std@@@std@@@std@@QBEABUKeyMapEffect@ioCrecendoSkill@@XZ ; std::_Vector_const_iterator<std::_Vector_val<ioCrecendoSkill::KeyMapEffect,std::allocator<ioCrecendoSkill::KeyMapEffect> > >::operator*
; Function compile flags: /Ogsp
;	COMDAT ??D?$_Vector_const_iterator@V?$_Vector_val@UKeyMapEffect@ioCrecendoSkill@@V?$allocator@UKeyMapEffect@ioCrecendoSkill@@@std@@@std@@@std@@QBEABUKeyMapEffect@ioCrecendoSkill@@XZ
_TEXT	SEGMENT
??D?$_Vector_const_iterator@V?$_Vector_val@UKeyMapEffect@ioCrecendoSkill@@V?$allocator@UKeyMapEffect@ioCrecendoSkill@@@std@@@std@@@std@@QBEABUKeyMapEffect@ioCrecendoSkill@@XZ PROC ; std::_Vector_const_iterator<std::_Vector_val<ioCrecendoSkill::KeyMapEffect,std::allocator<ioCrecendoSkill::KeyMapEffect> > >::operator*, COMDAT
; _this$ = ecx

; 64   :  #if _ITERATOR_DEBUG_LEVEL == 2
; 65   : 		if (this->_Getcont() == 0
; 66   : 			|| this->_Ptr == 0
; 67   : 			|| this->_Ptr < ((_Myvec *)this->_Getcont())->_Myfirst
; 68   : 			|| ((_Myvec *)this->_Getcont())->_Mylast <= this->_Ptr)
; 69   : 			{	// report error
; 70   : 			_DEBUG_ERROR("vector iterator not dereferencable");
; 71   : 			_SCL_SECURE_OUT_OF_RANGE;
; 72   : 			}
; 73   : 
; 74   :  #elif _ITERATOR_DEBUG_LEVEL == 1
; 75   : 		_SCL_SECURE_VALIDATE(this->_Getcont() != 0);
; 76   : 		_SCL_SECURE_VALIDATE_RANGE(
; 77   : 			this->_Ptr != 0
; 78   : 			&& ((_Myvec *)this->_Getcont())->_Myfirst <= this->_Ptr
; 79   : 			&& this->_Ptr < ((_Myvec *)this->_Getcont())->_Mylast);
; 80   :  #endif /* _ITERATOR_DEBUG_LEVEL */
; 81   : 
; 82   : 		__analysis_assume(this->_Ptr != 0);
; 83   : 
; 84   : 		return (*this->_Ptr);

  00000	8b 01		 mov	 eax, DWORD PTR [ecx]

; 85   : 		}

  00002	c3		 ret	 0
??D?$_Vector_const_iterator@V?$_Vector_val@UKeyMapEffect@ioCrecendoSkill@@V?$allocator@UKeyMapEffect@ioCrecendoSkill@@@std@@@std@@@std@@QBEABUKeyMapEffect@ioCrecendoSkill@@XZ ENDP ; std::_Vector_const_iterator<std::_Vector_val<ioCrecendoSkill::KeyMapEffect,std::allocator<ioCrecendoSkill::KeyMapEffect> > >::operator*
_TEXT	ENDS
PUBLIC	??E?$_Vector_const_iterator@V?$_Vector_val@UKeyMapEffect@ioCrecendoSkill@@V?$allocator@UKeyMapEffect@ioCrecendoSkill@@@std@@@std@@@std@@QAEAAV01@XZ ; std::_Vector_const_iterator<std::_Vector_val<ioCrecendoSkill::KeyMapEffect,std::allocator<ioCrecendoSkill::KeyMapEffect> > >::operator++
; Function compile flags: /Ogsp
;	COMDAT ??E?$_Vector_const_iterator@V?$_Vector_val@UKeyMapEffect@ioCrecendoSkill@@V?$allocator@UKeyMapEffect@ioCrecendoSkill@@@std@@@std@@@std@@QAEAAV01@XZ
_TEXT	SEGMENT
??E?$_Vector_const_iterator@V?$_Vector_val@UKeyMapEffect@ioCrecendoSkill@@V?$allocator@UKeyMapEffect@ioCrecendoSkill@@@std@@@std@@@std@@QAEAAV01@XZ PROC ; std::_Vector_const_iterator<std::_Vector_val<ioCrecendoSkill::KeyMapEffect,std::allocator<ioCrecendoSkill::KeyMapEffect> > >::operator++, COMDAT
; _this$ = ecx

; 93   : 		{	// preincrement

  00000	8b c1		 mov	 eax, ecx

; 94   :  #if _ITERATOR_DEBUG_LEVEL == 2
; 95   : 		if (this->_Getcont() == 0
; 96   : 			|| this->_Ptr == 0
; 97   : 			|| ((_Myvec *)this->_Getcont())->_Mylast <= this->_Ptr)
; 98   : 			{	// report error
; 99   : 			_DEBUG_ERROR("vector iterator not incrementable");
; 100  : 			_SCL_SECURE_OUT_OF_RANGE;
; 101  : 			}
; 102  : 
; 103  :  #elif _ITERATOR_DEBUG_LEVEL == 1
; 104  : 		_SCL_SECURE_VALIDATE(this->_Getcont() != 0);
; 105  : 		_SCL_SECURE_VALIDATE_RANGE(
; 106  : 			this->_Ptr != 0
; 107  : 			&& this->_Ptr < ((_Myvec *)this->_Getcont())->_Mylast);
; 108  :  #endif /* _ITERATOR_DEBUG_LEVEL */
; 109  : 
; 110  : 		++this->_Ptr;

  00002	83 00 08	 add	 DWORD PTR [eax], 8

; 111  : 		return (*this);
; 112  : 		}

  00005	c3		 ret	 0
??E?$_Vector_const_iterator@V?$_Vector_val@UKeyMapEffect@ioCrecendoSkill@@V?$allocator@UKeyMapEffect@ioCrecendoSkill@@@std@@@std@@@std@@QAEAAV01@XZ ENDP ; std::_Vector_const_iterator<std::_Vector_val<ioCrecendoSkill::KeyMapEffect,std::allocator<ioCrecendoSkill::KeyMapEffect> > >::operator++
_TEXT	ENDS
PUBLIC	??D?$_Vector_iterator@V?$_Vector_val@UKeyMapEffect@ioCrecendoSkill@@V?$allocator@UKeyMapEffect@ioCrecendoSkill@@@std@@@std@@@std@@QBEAAUKeyMapEffect@ioCrecendoSkill@@XZ ; std::_Vector_iterator<std::_Vector_val<ioCrecendoSkill::KeyMapEffect,std::allocator<ioCrecendoSkill::KeyMapEffect> > >::operator*
; Function compile flags: /Ogsp
;	COMDAT ??D?$_Vector_iterator@V?$_Vector_val@UKeyMapEffect@ioCrecendoSkill@@V?$allocator@UKeyMapEffect@ioCrecendoSkill@@@std@@@std@@@std@@QBEAAUKeyMapEffect@ioCrecendoSkill@@XZ
_TEXT	SEGMENT
??D?$_Vector_iterator@V?$_Vector_val@UKeyMapEffect@ioCrecendoSkill@@V?$allocator@UKeyMapEffect@ioCrecendoSkill@@@std@@@std@@@std@@QBEAAUKeyMapEffect@ioCrecendoSkill@@XZ PROC ; std::_Vector_iterator<std::_Vector_val<ioCrecendoSkill::KeyMapEffect,std::allocator<ioCrecendoSkill::KeyMapEffect> > >::operator*, COMDAT
; _this$ = ecx

; 322  : 		return ((reference)**(_Mybase *)this);

  00000	8b 01		 mov	 eax, DWORD PTR [ecx]

; 323  : 		}

  00002	c3		 ret	 0
??D?$_Vector_iterator@V?$_Vector_val@UKeyMapEffect@ioCrecendoSkill@@V?$allocator@UKeyMapEffect@ioCrecendoSkill@@@std@@@std@@@std@@QBEAAUKeyMapEffect@ioCrecendoSkill@@XZ ENDP ; std::_Vector_iterator<std::_Vector_val<ioCrecendoSkill::KeyMapEffect,std::allocator<ioCrecendoSkill::KeyMapEffect> > >::operator*
_TEXT	ENDS
PUBLIC	??E?$_Vector_iterator@V?$_Vector_val@UKeyMapEffect@ioCrecendoSkill@@V?$allocator@UKeyMapEffect@ioCrecendoSkill@@@std@@@std@@@std@@QAEAAV01@XZ ; std::_Vector_iterator<std::_Vector_val<ioCrecendoSkill::KeyMapEffect,std::allocator<ioCrecendoSkill::KeyMapEffect> > >::operator++
; Function compile flags: /Ogsp
;	COMDAT ??E?$_Vector_iterator@V?$_Vector_val@UKeyMapEffect@ioCrecendoSkill@@V?$allocator@UKeyMapEffect@ioCrecendoSkill@@@std@@@std@@@std@@QAEAAV01@XZ
_TEXT	SEGMENT
??E?$_Vector_iterator@V?$_Vector_val@UKeyMapEffect@ioCrecendoSkill@@V?$allocator@UKeyMapEffect@ioCrecendoSkill@@@std@@@std@@@std@@QAEAAV01@XZ PROC ; std::_Vector_iterator<std::_Vector_val<ioCrecendoSkill::KeyMapEffect,std::allocator<ioCrecendoSkill::KeyMapEffect> > >::operator++, COMDAT
; _this$ = ecx

; 331  : 		{	// preincrement

  00000	8b c1		 mov	 eax, ecx

; 332  : 		++*(_Mybase *)this;

  00002	83 00 08	 add	 DWORD PTR [eax], 8

; 333  : 		return (*this);
; 334  : 		}

  00005	c3		 ret	 0
??E?$_Vector_iterator@V?$_Vector_val@UKeyMapEffect@ioCrecendoSkill@@V?$allocator@UKeyMapEffect@ioCrecendoSkill@@@std@@@std@@@std@@QAEAAV01@XZ ENDP ; std::_Vector_iterator<std::_Vector_val<ioCrecendoSkill::KeyMapEffect,std::allocator<ioCrecendoSkill::KeyMapEffect> > >::operator++
_TEXT	ENDS
PUBLIC	??D?$_Vector_const_iterator@V?$_Vector_val@UWaveKey@ioCrecendoSkill@@V?$allocator@UWaveKey@ioCrecendoSkill@@@std@@@std@@@std@@QBEABUWaveKey@ioCrecendoSkill@@XZ ; std::_Vector_const_iterator<std::_Vector_val<ioCrecendoSkill::WaveKey,std::allocator<ioCrecendoSkill::WaveKey> > >::operator*
; Function compile flags: /Ogsp
;	COMDAT ??D?$_Vector_const_iterator@V?$_Vector_val@UWaveKey@ioCrecendoSkill@@V?$allocator@UWaveKey@ioCrecendoSkill@@@std@@@std@@@std@@QBEABUWaveKey@ioCrecendoSkill@@XZ
_TEXT	SEGMENT
??D?$_Vector_const_iterator@V?$_Vector_val@UWaveKey@ioCrecendoSkill@@V?$allocator@UWaveKey@ioCrecendoSkill@@@std@@@std@@@std@@QBEABUWaveKey@ioCrecendoSkill@@XZ PROC ; std::_Vector_const_iterator<std::_Vector_val<ioCrecendoSkill::WaveKey,std::allocator<ioCrecendoSkill::WaveKey> > >::operator*, COMDAT
; _this$ = ecx

; 64   :  #if _ITERATOR_DEBUG_LEVEL == 2
; 65   : 		if (this->_Getcont() == 0
; 66   : 			|| this->_Ptr == 0
; 67   : 			|| this->_Ptr < ((_Myvec *)this->_Getcont())->_Myfirst
; 68   : 			|| ((_Myvec *)this->_Getcont())->_Mylast <= this->_Ptr)
; 69   : 			{	// report error
; 70   : 			_DEBUG_ERROR("vector iterator not dereferencable");
; 71   : 			_SCL_SECURE_OUT_OF_RANGE;
; 72   : 			}
; 73   : 
; 74   :  #elif _ITERATOR_DEBUG_LEVEL == 1
; 75   : 		_SCL_SECURE_VALIDATE(this->_Getcont() != 0);
; 76   : 		_SCL_SECURE_VALIDATE_RANGE(
; 77   : 			this->_Ptr != 0
; 78   : 			&& ((_Myvec *)this->_Getcont())->_Myfirst <= this->_Ptr
; 79   : 			&& this->_Ptr < ((_Myvec *)this->_Getcont())->_Mylast);
; 80   :  #endif /* _ITERATOR_DEBUG_LEVEL */
; 81   : 
; 82   : 		__analysis_assume(this->_Ptr != 0);
; 83   : 
; 84   : 		return (*this->_Ptr);

  00000	8b 01		 mov	 eax, DWORD PTR [ecx]

; 85   : 		}

  00002	c3		 ret	 0
??D?$_Vector_const_iterator@V?$_Vector_val@UWaveKey@ioCrecendoSkill@@V?$allocator@UWaveKey@ioCrecendoSkill@@@std@@@std@@@std@@QBEABUWaveKey@ioCrecendoSkill@@XZ ENDP ; std::_Vector_const_iterator<std::_Vector_val<ioCrecendoSkill::WaveKey,std::allocator<ioCrecendoSkill::WaveKey> > >::operator*
_TEXT	ENDS
PUBLIC	??E?$_Vector_const_iterator@V?$_Vector_val@UWaveKey@ioCrecendoSkill@@V?$allocator@UWaveKey@ioCrecendoSkill@@@std@@@std@@@std@@QAEAAV01@XZ ; std::_Vector_const_iterator<std::_Vector_val<ioCrecendoSkill::WaveKey,std::allocator<ioCrecendoSkill::WaveKey> > >::operator++
; Function compile flags: /Ogsp
;	COMDAT ??E?$_Vector_const_iterator@V?$_Vector_val@UWaveKey@ioCrecendoSkill@@V?$allocator@UWaveKey@ioCrecendoSkill@@@std@@@std@@@std@@QAEAAV01@XZ
_TEXT	SEGMENT
??E?$_Vector_const_iterator@V?$_Vector_val@UWaveKey@ioCrecendoSkill@@V?$allocator@UWaveKey@ioCrecendoSkill@@@std@@@std@@@std@@QAEAAV01@XZ PROC ; std::_Vector_const_iterator<std::_Vector_val<ioCrecendoSkill::WaveKey,std::allocator<ioCrecendoSkill::WaveKey> > >::operator++, COMDAT
; _this$ = ecx

; 93   : 		{	// preincrement

  00000	8b c1		 mov	 eax, ecx

; 94   :  #if _ITERATOR_DEBUG_LEVEL == 2
; 95   : 		if (this->_Getcont() == 0
; 96   : 			|| this->_Ptr == 0
; 97   : 			|| ((_Myvec *)this->_Getcont())->_Mylast <= this->_Ptr)
; 98   : 			{	// report error
; 99   : 			_DEBUG_ERROR("vector iterator not incrementable");
; 100  : 			_SCL_SECURE_OUT_OF_RANGE;
; 101  : 			}
; 102  : 
; 103  :  #elif _ITERATOR_DEBUG_LEVEL == 1
; 104  : 		_SCL_SECURE_VALIDATE(this->_Getcont() != 0);
; 105  : 		_SCL_SECURE_VALIDATE_RANGE(
; 106  : 			this->_Ptr != 0
; 107  : 			&& this->_Ptr < ((_Myvec *)this->_Getcont())->_Mylast);
; 108  :  #endif /* _ITERATOR_DEBUG_LEVEL */
; 109  : 
; 110  : 		++this->_Ptr;

  00002	83 00 6c	 add	 DWORD PTR [eax], 108	; 0000006cH

; 111  : 		return (*this);
; 112  : 		}

  00005	c3		 ret	 0
??E?$_Vector_const_iterator@V?$_Vector_val@UWaveKey@ioCrecendoSkill@@V?$allocator@UWaveKey@ioCrecendoSkill@@@std@@@std@@@std@@QAEAAV01@XZ ENDP ; std::_Vector_const_iterator<std::_Vector_val<ioCrecendoSkill::WaveKey,std::allocator<ioCrecendoSkill::WaveKey> > >::operator++
_TEXT	ENDS
PUBLIC	??0?$_Vector_const_iterator@V?$_Vector_val@PAVioBaseChar@@V?$allocator@PAVioBaseChar@@@std@@@std@@@std@@QAE@XZ ; std::_Vector_const_iterator<std::_Vector_val<ioBaseChar *,std::allocator<ioBaseChar *> > >::_Vector_const_iterator<std::_Vector_val<ioBaseChar *,std::allocator<ioBaseChar *> > >
; Function compile flags: /Ogsp
;	COMDAT ??0?$_Vector_const_iterator@V?$_Vector_val@PAVioBaseChar@@V?$allocator@PAVioBaseChar@@@std@@@std@@@std@@QAE@XZ
_TEXT	SEGMENT
??0?$_Vector_const_iterator@V?$_Vector_val@PAVioBaseChar@@V?$allocator@PAVioBaseChar@@@std@@@std@@@std@@QAE@XZ PROC ; std::_Vector_const_iterator<std::_Vector_val<ioBaseChar *,std::allocator<ioBaseChar *> > >::_Vector_const_iterator<std::_Vector_val<ioBaseChar *,std::allocator<ioBaseChar *> > >, COMDAT
; _this$ = ecx

; 40   : 		{	// construct with null pointer

  00000	8b c1		 mov	 eax, ecx
  00002	83 20 00	 and	 DWORD PTR [eax], 0

; 41   : 		}

  00005	c3		 ret	 0
??0?$_Vector_const_iterator@V?$_Vector_val@PAVioBaseChar@@V?$allocator@PAVioBaseChar@@@std@@@std@@@std@@QAE@XZ ENDP ; std::_Vector_const_iterator<std::_Vector_val<ioBaseChar *,std::allocator<ioBaseChar *> > >::_Vector_const_iterator<std::_Vector_val<ioBaseChar *,std::allocator<ioBaseChar *> > >
_TEXT	ENDS
PUBLIC	??D?$_Vector_const_iterator@V?$_Vector_val@PAVioBaseChar@@V?$allocator@PAVioBaseChar@@@std@@@std@@@std@@QBEABQAVioBaseChar@@XZ ; std::_Vector_const_iterator<std::_Vector_val<ioBaseChar *,std::allocator<ioBaseChar *> > >::operator*
; Function compile flags: /Ogsp
;	COMDAT ??D?$_Vector_const_iterator@V?$_Vector_val@PAVioBaseChar@@V?$allocator@PAVioBaseChar@@@std@@@std@@@std@@QBEABQAVioBaseChar@@XZ
_TEXT	SEGMENT
??D?$_Vector_const_iterator@V?$_Vector_val@PAVioBaseChar@@V?$allocator@PAVioBaseChar@@@std@@@std@@@std@@QBEABQAVioBaseChar@@XZ PROC ; std::_Vector_const_iterator<std::_Vector_val<ioBaseChar *,std::allocator<ioBaseChar *> > >::operator*, COMDAT
; _this$ = ecx

; 64   :  #if _ITERATOR_DEBUG_LEVEL == 2
; 65   : 		if (this->_Getcont() == 0
; 66   : 			|| this->_Ptr == 0
; 67   : 			|| this->_Ptr < ((_Myvec *)this->_Getcont())->_Myfirst
; 68   : 			|| ((_Myvec *)this->_Getcont())->_Mylast <= this->_Ptr)
; 69   : 			{	// report error
; 70   : 			_DEBUG_ERROR("vector iterator not dereferencable");
; 71   : 			_SCL_SECURE_OUT_OF_RANGE;
; 72   : 			}
; 73   : 
; 74   :  #elif _ITERATOR_DEBUG_LEVEL == 1
; 75   : 		_SCL_SECURE_VALIDATE(this->_Getcont() != 0);
; 76   : 		_SCL_SECURE_VALIDATE_RANGE(
; 77   : 			this->_Ptr != 0
; 78   : 			&& ((_Myvec *)this->_Getcont())->_Myfirst <= this->_Ptr
; 79   : 			&& this->_Ptr < ((_Myvec *)this->_Getcont())->_Mylast);
; 80   :  #endif /* _ITERATOR_DEBUG_LEVEL */
; 81   : 
; 82   : 		__analysis_assume(this->_Ptr != 0);
; 83   : 
; 84   : 		return (*this->_Ptr);

  00000	8b 01		 mov	 eax, DWORD PTR [ecx]

; 85   : 		}

  00002	c3		 ret	 0
??D?$_Vector_const_iterator@V?$_Vector_val@PAVioBaseChar@@V?$allocator@PAVioBaseChar@@@std@@@std@@@std@@QBEABQAVioBaseChar@@XZ ENDP ; std::_Vector_const_iterator<std::_Vector_val<ioBaseChar *,std::allocator<ioBaseChar *> > >::operator*
_TEXT	ENDS
PUBLIC	??E?$_Vector_const_iterator@V?$_Vector_val@PAVioBaseChar@@V?$allocator@PAVioBaseChar@@@std@@@std@@@std@@QAEAAV01@XZ ; std::_Vector_const_iterator<std::_Vector_val<ioBaseChar *,std::allocator<ioBaseChar *> > >::operator++
; Function compile flags: /Ogsp
;	COMDAT ??E?$_Vector_const_iterator@V?$_Vector_val@PAVioBaseChar@@V?$allocator@PAVioBaseChar@@@std@@@std@@@std@@QAEAAV01@XZ
_TEXT	SEGMENT
??E?$_Vector_const_iterator@V?$_Vector_val@PAVioBaseChar@@V?$allocator@PAVioBaseChar@@@std@@@std@@@std@@QAEAAV01@XZ PROC ; std::_Vector_const_iterator<std::_Vector_val<ioBaseChar *,std::allocator<ioBaseChar *> > >::operator++, COMDAT
; _this$ = ecx

; 93   : 		{	// preincrement

  00000	8b c1		 mov	 eax, ecx

; 94   :  #if _ITERATOR_DEBUG_LEVEL == 2
; 95   : 		if (this->_Getcont() == 0
; 96   : 			|| this->_Ptr == 0
; 97   : 			|| ((_Myvec *)this->_Getcont())->_Mylast <= this->_Ptr)
; 98   : 			{	// report error
; 99   : 			_DEBUG_ERROR("vector iterator not incrementable");
; 100  : 			_SCL_SECURE_OUT_OF_RANGE;
; 101  : 			}
; 102  : 
; 103  :  #elif _ITERATOR_DEBUG_LEVEL == 1
; 104  : 		_SCL_SECURE_VALIDATE(this->_Getcont() != 0);
; 105  : 		_SCL_SECURE_VALIDATE_RANGE(
; 106  : 			this->_Ptr != 0
; 107  : 			&& this->_Ptr < ((_Myvec *)this->_Getcont())->_Mylast);
; 108  :  #endif /* _ITERATOR_DEBUG_LEVEL */
; 109  : 
; 110  : 		++this->_Ptr;

  00002	83 00 04	 add	 DWORD PTR [eax], 4

; 111  : 		return (*this);
; 112  : 		}

  00005	c3		 ret	 0
??E?$_Vector_const_iterator@V?$_Vector_val@PAVioBaseChar@@V?$allocator@PAVioBaseChar@@@std@@@std@@@std@@QAEAAV01@XZ ENDP ; std::_Vector_const_iterator<std::_Vector_val<ioBaseChar *,std::allocator<ioBaseChar *> > >::operator++
_TEXT	ENDS
PUBLIC	?capacity@?$vector@UWaveKey@ioCrecendoSkill@@V?$allocator@UWaveKey@ioCrecendoSkill@@@std@@@std@@QBEIXZ ; std::vector<ioCrecendoSkill::WaveKey,std::allocator<ioCrecendoSkill::WaveKey> >::capacity
; Function compile flags: /Ogsp
;	COMDAT ?capacity@?$vector@UWaveKey@ioCrecendoSkill@@V?$allocator@UWaveKey@ioCrecendoSkill@@@std@@@std@@QBEIXZ
_TEXT	SEGMENT
?capacity@?$vector@UWaveKey@ioCrecendoSkill@@V?$allocator@UWaveKey@ioCrecendoSkill@@@std@@@std@@QBEIXZ PROC ; std::vector<ioCrecendoSkill::WaveKey,std::allocator<ioCrecendoSkill::WaveKey> >::capacity, COMDAT
; _this$ = ecx

; 777  : 		return (this->_Myend - this->_Myfirst);

  00000	8b 41 08	 mov	 eax, DWORD PTR [ecx+8]
  00003	2b 01		 sub	 eax, DWORD PTR [ecx]
  00005	6a 6c		 push	 108			; 0000006cH
  00007	99		 cdq
  00008	59		 pop	 ecx
  00009	f7 f9		 idiv	 ecx

; 778  : 		}

  0000b	c3		 ret	 0
?capacity@?$vector@UWaveKey@ioCrecendoSkill@@V?$allocator@UWaveKey@ioCrecendoSkill@@@std@@@std@@QBEIXZ ENDP ; std::vector<ioCrecendoSkill::WaveKey,std::allocator<ioCrecendoSkill::WaveKey> >::capacity
_TEXT	ENDS
PUBLIC	?_Inside@?$vector@UWaveKey@ioCrecendoSkill@@V?$allocator@UWaveKey@ioCrecendoSkill@@@std@@@std@@IBE_NPBUWaveKey@ioCrecendoSkill@@@Z ; std::vector<ioCrecendoSkill::WaveKey,std::allocator<ioCrecendoSkill::WaveKey> >::_Inside
; Function compile flags: /Ogsp
;	COMDAT ?_Inside@?$vector@UWaveKey@ioCrecendoSkill@@V?$allocator@UWaveKey@ioCrecendoSkill@@@std@@@std@@IBE_NPBUWaveKey@ioCrecendoSkill@@@Z
_TEXT	SEGMENT
__Ptr$ = 8						; size = 4
?_Inside@?$vector@UWaveKey@ioCrecendoSkill@@V?$allocator@UWaveKey@ioCrecendoSkill@@@std@@@std@@IBE_NPBUWaveKey@ioCrecendoSkill@@@Z PROC ; std::vector<ioCrecendoSkill::WaveKey,std::allocator<ioCrecendoSkill::WaveKey> >::_Inside, COMDAT
; _this$ = ecx

; 1285 : 		{	// test if _Ptr points inside vector

  00000	55		 push	 ebp
  00001	8b ec		 mov	 ebp, esp

; 1286 : 		return (_Ptr < this->_Mylast && this->_Myfirst <= _Ptr);

  00003	8b 45 08	 mov	 eax, DWORD PTR __Ptr$[ebp]
  00006	3b 41 04	 cmp	 eax, DWORD PTR [ecx+4]
  00009	73 09		 jae	 SHORT $LN3@Inside
  0000b	39 01		 cmp	 DWORD PTR [ecx], eax
  0000d	77 05		 ja	 SHORT $LN3@Inside
  0000f	33 c0		 xor	 eax, eax
  00011	40		 inc	 eax
  00012	eb 02		 jmp	 SHORT $LN4@Inside
$LN3@Inside:
  00014	33 c0		 xor	 eax, eax
$LN4@Inside:

; 1287 : 		}

  00016	5d		 pop	 ebp
  00017	c2 04 00	 ret	 4
?_Inside@?$vector@UWaveKey@ioCrecendoSkill@@V?$allocator@UWaveKey@ioCrecendoSkill@@@std@@@std@@IBE_NPBUWaveKey@ioCrecendoSkill@@@Z ENDP ; std::vector<ioCrecendoSkill::WaveKey,std::allocator<ioCrecendoSkill::WaveKey> >::_Inside
_TEXT	ENDS
PUBLIC	??_C@_0BD@OLBABOEK@vector?$DMT?$DO?5too?5long?$AA@ ; `string'
PUBLIC	?_Xlen@?$vector@UWaveKey@ioCrecendoSkill@@V?$allocator@UWaveKey@ioCrecendoSkill@@@std@@@std@@IBEXXZ ; std::vector<ioCrecendoSkill::WaveKey,std::allocator<ioCrecendoSkill::WaveKey> >::_Xlen
EXTRN	__imp_?_Xlength_error@std@@YAXPBD@Z:PROC
;	COMDAT ??_C@_0BD@OLBABOEK@vector?$DMT?$DO?5too?5long?$AA@
CONST	SEGMENT
??_C@_0BD@OLBABOEK@vector?$DMT?$DO?5too?5long?$AA@ DB 'vector<T> too long'
	DB	00H						; `string'
; Function compile flags: /Ogsp
CONST	ENDS
;	COMDAT ?_Xlen@?$vector@UWaveKey@ioCrecendoSkill@@V?$allocator@UWaveKey@ioCrecendoSkill@@@std@@@std@@IBEXXZ
_TEXT	SEGMENT
?_Xlen@?$vector@UWaveKey@ioCrecendoSkill@@V?$allocator@UWaveKey@ioCrecendoSkill@@@std@@@std@@IBEXXZ PROC ; std::vector<ioCrecendoSkill::WaveKey,std::allocator<ioCrecendoSkill::WaveKey> >::_Xlen, COMDAT
; _this$ = ecx

; 1427 : 		_Xlength_error("vector<T> too long");

  00000	68 00 00 00 00	 push	 OFFSET ??_C@_0BD@OLBABOEK@vector?$DMT?$DO?5too?5long?$AA@
  00005	ff 15 00 00 00
	00		 call	 DWORD PTR __imp_?_Xlength_error@std@@YAXPBD@Z
$LN4@Xlen:
$LN3@Xlen:
  0000b	cc		 int	 3
?_Xlen@?$vector@UWaveKey@ioCrecendoSkill@@V?$allocator@UWaveKey@ioCrecendoSkill@@@std@@@std@@IBEXXZ ENDP ; std::vector<ioCrecendoSkill::WaveKey,std::allocator<ioCrecendoSkill::WaveKey> >::_Xlen
_TEXT	ENDS
PUBLIC	?_Orphan_range@?$vector@UWaveKey@ioCrecendoSkill@@V?$allocator@UWaveKey@ioCrecendoSkill@@@std@@@std@@IBEXPAUWaveKey@ioCrecendoSkill@@0@Z ; std::vector<ioCrecendoSkill::WaveKey,std::allocator<ioCrecendoSkill::WaveKey> >::_Orphan_range
; Function compile flags: /Ogsp
;	COMDAT ?_Orphan_range@?$vector@UWaveKey@ioCrecendoSkill@@V?$allocator@UWaveKey@ioCrecendoSkill@@@std@@@std@@IBEXPAUWaveKey@ioCrecendoSkill@@0@Z
_TEXT	SEGMENT
___formal$ = 8						; size = 4
___formal$ = 12						; size = 4
?_Orphan_range@?$vector@UWaveKey@ioCrecendoSkill@@V?$allocator@UWaveKey@ioCrecendoSkill@@@std@@@std@@IBEXPAUWaveKey@ioCrecendoSkill@@0@Z PROC ; std::vector<ioCrecendoSkill::WaveKey,std::allocator<ioCrecendoSkill::WaveKey> >::_Orphan_range, COMDAT
; _this$ = ecx

; 1454 : 		}

  00000	c2 08 00	 ret	 8
?_Orphan_range@?$vector@UWaveKey@ioCrecendoSkill@@V?$allocator@UWaveKey@ioCrecendoSkill@@@std@@@std@@IBEXPAUWaveKey@ioCrecendoSkill@@0@Z ENDP ; std::vector<ioCrecendoSkill::WaveKey,std::allocator<ioCrecendoSkill::WaveKey> >::_Orphan_range
_TEXT	ENDS
PUBLIC	??1?$_Vector_val@UWaveKey@ioCrecendoSkill@@V?$allocator@UWaveKey@ioCrecendoSkill@@@std@@@std@@QAE@XZ ; std::_Vector_val<ioCrecendoSkill::WaveKey,std::allocator<ioCrecendoSkill::WaveKey> >::~_Vector_val<ioCrecendoSkill::WaveKey,std::allocator<ioCrecendoSkill::WaveKey> >
; Function compile flags: /Ogsp
;	COMDAT ??1?$_Vector_val@UWaveKey@ioCrecendoSkill@@V?$allocator@UWaveKey@ioCrecendoSkill@@@std@@@std@@QAE@XZ
_TEXT	SEGMENT
??1?$_Vector_val@UWaveKey@ioCrecendoSkill@@V?$allocator@UWaveKey@ioCrecendoSkill@@@std@@@std@@QAE@XZ PROC ; std::_Vector_val<ioCrecendoSkill::WaveKey,std::allocator<ioCrecendoSkill::WaveKey> >::~_Vector_val<ioCrecendoSkill::WaveKey,std::allocator<ioCrecendoSkill::WaveKey> >, COMDAT
; _this$ = ecx

; 434  : 		}

  00000	c3		 ret	 0
??1?$_Vector_val@UWaveKey@ioCrecendoSkill@@V?$allocator@UWaveKey@ioCrecendoSkill@@@std@@@std@@QAE@XZ ENDP ; std::_Vector_val<ioCrecendoSkill::WaveKey,std::allocator<ioCrecendoSkill::WaveKey> >::~_Vector_val<ioCrecendoSkill::WaveKey,std::allocator<ioCrecendoSkill::WaveKey> >
_TEXT	ENDS
PUBLIC	??0?$allocator@UWaveKey@ioCrecendoSkill@@@std@@QAE@XZ ; std::allocator<ioCrecendoSkill::WaveKey>::allocator<ioCrecendoSkill::WaveKey>
; Function compile flags: /Ogsp
; File c:\program files (x86)\microsoft visual studio 10.0\vc\include\xmemory
;	COMDAT ??0?$allocator@UWaveKey@ioCrecendoSkill@@@std@@QAE@XZ
_TEXT	SEGMENT
??0?$allocator@UWaveKey@ioCrecendoSkill@@@std@@QAE@XZ PROC ; std::allocator<ioCrecendoSkill::WaveKey>::allocator<ioCrecendoSkill::WaveKey>, COMDAT
; _this$ = ecx

; 161  : 	_ALLOCATOR() _THROW0()

  00000	8b c1		 mov	 eax, ecx

; 162  : 		{	// construct default allocator (do nothing)
; 163  : 		}

  00002	c3		 ret	 0
??0?$allocator@UWaveKey@ioCrecendoSkill@@@std@@QAE@XZ ENDP ; std::allocator<ioCrecendoSkill::WaveKey>::allocator<ioCrecendoSkill::WaveKey>
_TEXT	ENDS
PUBLIC	??0?$allocator@UWaveKey@ioCrecendoSkill@@@std@@QAE@ABV01@@Z ; std::allocator<ioCrecendoSkill::WaveKey>::allocator<ioCrecendoSkill::WaveKey>
; Function compile flags: /Ogsp
;	COMDAT ??0?$allocator@UWaveKey@ioCrecendoSkill@@@std@@QAE@ABV01@@Z
_TEXT	SEGMENT
___formal$ = 8						; size = 4
??0?$allocator@UWaveKey@ioCrecendoSkill@@@std@@QAE@ABV01@@Z PROC ; std::allocator<ioCrecendoSkill::WaveKey>::allocator<ioCrecendoSkill::WaveKey>, COMDAT
; _this$ = ecx

; 165  : 	_ALLOCATOR(const _ALLOCATOR<_Ty>&) _THROW0()

  00000	8b c1		 mov	 eax, ecx

; 166  : 		{	// construct by copying (do nothing)
; 167  : 		}

  00002	c2 04 00	 ret	 4
??0?$allocator@UWaveKey@ioCrecendoSkill@@@std@@QAE@ABV01@@Z ENDP ; std::allocator<ioCrecendoSkill::WaveKey>::allocator<ioCrecendoSkill::WaveKey>
_TEXT	ENDS
PUBLIC	?deallocate@?$allocator@UWaveKey@ioCrecendoSkill@@@std@@QAEXPAUWaveKey@ioCrecendoSkill@@I@Z ; std::allocator<ioCrecendoSkill::WaveKey>::deallocate
; Function compile flags: /Ogsp
;	COMDAT ?deallocate@?$allocator@UWaveKey@ioCrecendoSkill@@@std@@QAEXPAUWaveKey@ioCrecendoSkill@@I@Z
_TEXT	SEGMENT
__Ptr$ = 8						; size = 4
___formal$ = 12						; size = 4
?deallocate@?$allocator@UWaveKey@ioCrecendoSkill@@@std@@QAEXPAUWaveKey@ioCrecendoSkill@@I@Z PROC ; std::allocator<ioCrecendoSkill::WaveKey>::deallocate, COMDAT
; _this$ = ecx

; 181  : 		{	// deallocate object at _Ptr, ignore size

  00000	55		 push	 ebp
  00001	8b ec		 mov	 ebp, esp

; 182  : 		::operator delete(_Ptr);

  00003	ff 75 08	 push	 DWORD PTR __Ptr$[ebp]
  00006	e8 00 00 00 00	 call	 ??3@YAXPAX@Z		; operator delete
  0000b	59		 pop	 ecx

; 183  : 		}

  0000c	5d		 pop	 ebp
  0000d	c2 08 00	 ret	 8
?deallocate@?$allocator@UWaveKey@ioCrecendoSkill@@@std@@QAEXPAUWaveKey@ioCrecendoSkill@@I@Z ENDP ; std::allocator<ioCrecendoSkill::WaveKey>::deallocate
_TEXT	ENDS
PUBLIC	?_Inside@?$vector@UKeyMapEffect@ioCrecendoSkill@@V?$allocator@UKeyMapEffect@ioCrecendoSkill@@@std@@@std@@IBE_NPBUKeyMapEffect@ioCrecendoSkill@@@Z ; std::vector<ioCrecendoSkill::KeyMapEffect,std::allocator<ioCrecendoSkill::KeyMapEffect> >::_Inside
; Function compile flags: /Ogsp
; File c:\program files (x86)\microsoft visual studio 10.0\vc\include\vector
;	COMDAT ?_Inside@?$vector@UKeyMapEffect@ioCrecendoSkill@@V?$allocator@UKeyMapEffect@ioCrecendoSkill@@@std@@@std@@IBE_NPBUKeyMapEffect@ioCrecendoSkill@@@Z
_TEXT	SEGMENT
__Ptr$ = 8						; size = 4
?_Inside@?$vector@UKeyMapEffect@ioCrecendoSkill@@V?$allocator@UKeyMapEffect@ioCrecendoSkill@@@std@@@std@@IBE_NPBUKeyMapEffect@ioCrecendoSkill@@@Z PROC ; std::vector<ioCrecendoSkill::KeyMapEffect,std::allocator<ioCrecendoSkill::KeyMapEffect> >::_Inside, COMDAT
; _this$ = ecx

; 1285 : 		{	// test if _Ptr points inside vector

  00000	55		 push	 ebp
  00001	8b ec		 mov	 ebp, esp

; 1286 : 		return (_Ptr < this->_Mylast && this->_Myfirst <= _Ptr);

  00003	8b 45 08	 mov	 eax, DWORD PTR __Ptr$[ebp]
  00006	3b 41 04	 cmp	 eax, DWORD PTR [ecx+4]
  00009	73 09		 jae	 SHORT $LN3@Inside@2
  0000b	39 01		 cmp	 DWORD PTR [ecx], eax
  0000d	77 05		 ja	 SHORT $LN3@Inside@2
  0000f	33 c0		 xor	 eax, eax
  00011	40		 inc	 eax
  00012	eb 02		 jmp	 SHORT $LN4@Inside@2
$LN3@Inside@2:
  00014	33 c0		 xor	 eax, eax
$LN4@Inside@2:

; 1287 : 		}

  00016	5d		 pop	 ebp
  00017	c2 04 00	 ret	 4
?_Inside@?$vector@UKeyMapEffect@ioCrecendoSkill@@V?$allocator@UKeyMapEffect@ioCrecendoSkill@@@std@@@std@@IBE_NPBUKeyMapEffect@ioCrecendoSkill@@@Z ENDP ; std::vector<ioCrecendoSkill::KeyMapEffect,std::allocator<ioCrecendoSkill::KeyMapEffect> >::_Inside
_TEXT	ENDS
PUBLIC	?_Orphan_range@?$vector@UKeyMapEffect@ioCrecendoSkill@@V?$allocator@UKeyMapEffect@ioCrecendoSkill@@@std@@@std@@IBEXPAUKeyMapEffect@ioCrecendoSkill@@0@Z ; std::vector<ioCrecendoSkill::KeyMapEffect,std::allocator<ioCrecendoSkill::KeyMapEffect> >::_Orphan_range
; Function compile flags: /Ogsp
;	COMDAT ?_Orphan_range@?$vector@UKeyMapEffect@ioCrecendoSkill@@V?$allocator@UKeyMapEffect@ioCrecendoSkill@@@std@@@std@@IBEXPAUKeyMapEffect@ioCrecendoSkill@@0@Z
_TEXT	SEGMENT
___formal$ = 8						; size = 4
___formal$ = 12						; size = 4
?_Orphan_range@?$vector@UKeyMapEffect@ioCrecendoSkill@@V?$allocator@UKeyMapEffect@ioCrecendoSkill@@@std@@@std@@IBEXPAUKeyMapEffect@ioCrecendoSkill@@0@Z PROC ; std::vector<ioCrecendoSkill::KeyMapEffect,std::allocator<ioCrecendoSkill::KeyMapEffect> >::_Orphan_range, COMDAT
; _this$ = ecx

; 1454 : 		}

  00000	c2 08 00	 ret	 8
?_Orphan_range@?$vector@UKeyMapEffect@ioCrecendoSkill@@V?$allocator@UKeyMapEffect@ioCrecendoSkill@@@std@@@std@@IBEXPAUKeyMapEffect@ioCrecendoSkill@@0@Z ENDP ; std::vector<ioCrecendoSkill::KeyMapEffect,std::allocator<ioCrecendoSkill::KeyMapEffect> >::_Orphan_range
_TEXT	ENDS
PUBLIC	??1?$_Vector_val@UKeyMapEffect@ioCrecendoSkill@@V?$allocator@UKeyMapEffect@ioCrecendoSkill@@@std@@@std@@QAE@XZ ; std::_Vector_val<ioCrecendoSkill::KeyMapEffect,std::allocator<ioCrecendoSkill::KeyMapEffect> >::~_Vector_val<ioCrecendoSkill::KeyMapEffect,std::allocator<ioCrecendoSkill::KeyMapEffect> >
; Function compile flags: /Ogsp
;	COMDAT ??1?$_Vector_val@UKeyMapEffect@ioCrecendoSkill@@V?$allocator@UKeyMapEffect@ioCrecendoSkill@@@std@@@std@@QAE@XZ
_TEXT	SEGMENT
??1?$_Vector_val@UKeyMapEffect@ioCrecendoSkill@@V?$allocator@UKeyMapEffect@ioCrecendoSkill@@@std@@@std@@QAE@XZ PROC ; std::_Vector_val<ioCrecendoSkill::KeyMapEffect,std::allocator<ioCrecendoSkill::KeyMapEffect> >::~_Vector_val<ioCrecendoSkill::KeyMapEffect,std::allocator<ioCrecendoSkill::KeyMapEffect> >, COMDAT
; _this$ = ecx

; 434  : 		}

  00000	c3		 ret	 0
??1?$_Vector_val@UKeyMapEffect@ioCrecendoSkill@@V?$allocator@UKeyMapEffect@ioCrecendoSkill@@@std@@@std@@QAE@XZ ENDP ; std::_Vector_val<ioCrecendoSkill::KeyMapEffect,std::allocator<ioCrecendoSkill::KeyMapEffect> >::~_Vector_val<ioCrecendoSkill::KeyMapEffect,std::allocator<ioCrecendoSkill::KeyMapEffect> >
_TEXT	ENDS
PUBLIC	??0?$allocator@UKeyMapEffect@ioCrecendoSkill@@@std@@QAE@XZ ; std::allocator<ioCrecendoSkill::KeyMapEffect>::allocator<ioCrecendoSkill::KeyMapEffect>
; Function compile flags: /Ogsp
; File c:\program files (x86)\microsoft visual studio 10.0\vc\include\xmemory
;	COMDAT ??0?$allocator@UKeyMapEffect@ioCrecendoSkill@@@std@@QAE@XZ
_TEXT	SEGMENT
??0?$allocator@UKeyMapEffect@ioCrecendoSkill@@@std@@QAE@XZ PROC ; std::allocator<ioCrecendoSkill::KeyMapEffect>::allocator<ioCrecendoSkill::KeyMapEffect>, COMDAT
; _this$ = ecx

; 161  : 	_ALLOCATOR() _THROW0()

  00000	8b c1		 mov	 eax, ecx

; 162  : 		{	// construct default allocator (do nothing)
; 163  : 		}

  00002	c3		 ret	 0
??0?$allocator@UKeyMapEffect@ioCrecendoSkill@@@std@@QAE@XZ ENDP ; std::allocator<ioCrecendoSkill::KeyMapEffect>::allocator<ioCrecendoSkill::KeyMapEffect>
_TEXT	ENDS
PUBLIC	??0?$_Vector_const_iterator@V?$_Vector_val@PAVioBaseChar@@V?$allocator@PAVioBaseChar@@@std@@@std@@@std@@QAE@PAPAVioBaseChar@@PBU_Container_base0@1@@Z ; std::_Vector_const_iterator<std::_Vector_val<ioBaseChar *,std::allocator<ioBaseChar *> > >::_Vector_const_iterator<std::_Vector_val<ioBaseChar *,std::allocator<ioBaseChar *> > >
; Function compile flags: /Ogsp
; File c:\program files (x86)\microsoft visual studio 10.0\vc\include\vector
;	COMDAT ??0?$_Vector_const_iterator@V?$_Vector_val@PAVioBaseChar@@V?$allocator@PAVioBaseChar@@@std@@@std@@@std@@QAE@PAPAVioBaseChar@@PBU_Container_base0@1@@Z
_TEXT	SEGMENT
__Parg$ = 8						; size = 4
__Pvector$ = 12						; size = 4
??0?$_Vector_const_iterator@V?$_Vector_val@PAVioBaseChar@@V?$allocator@PAVioBaseChar@@@std@@@std@@@std@@QAE@PAPAVioBaseChar@@PBU_Container_base0@1@@Z PROC ; std::_Vector_const_iterator<std::_Vector_val<ioBaseChar *,std::allocator<ioBaseChar *> > >::_Vector_const_iterator<std::_Vector_val<ioBaseChar *,std::allocator<ioBaseChar *> > >, COMDAT
; _this$ = ecx

; 45   : 		{	// construct with pointer _Parg

  00000	55		 push	 ebp
  00001	8b ec		 mov	 ebp, esp
  00003	8b c1		 mov	 eax, ecx
  00005	8b 4d 08	 mov	 ecx, DWORD PTR __Parg$[ebp]
  00008	89 08		 mov	 DWORD PTR [eax], ecx

; 46   : 		this->_Adopt(_Pvector);
; 47   : 		}

  0000a	5d		 pop	 ebp
  0000b	c2 08 00	 ret	 8
??0?$_Vector_const_iterator@V?$_Vector_val@PAVioBaseChar@@V?$allocator@PAVioBaseChar@@@std@@@std@@@std@@QAE@PAPAVioBaseChar@@PBU_Container_base0@1@@Z ENDP ; std::_Vector_const_iterator<std::_Vector_val<ioBaseChar *,std::allocator<ioBaseChar *> > >::_Vector_const_iterator<std::_Vector_val<ioBaseChar *,std::allocator<ioBaseChar *> > >
_TEXT	ENDS
PUBLIC	?max_size@?$allocator@UWaveKey@ioCrecendoSkill@@@std@@QBEIXZ ; std::allocator<ioCrecendoSkill::WaveKey>::max_size
; Function compile flags: /Ogsp
; File c:\program files (x86)\microsoft visual studio 10.0\vc\include\xmemory
;	COMDAT ?max_size@?$allocator@UWaveKey@ioCrecendoSkill@@@std@@QBEIXZ
_TEXT	SEGMENT
?max_size@?$allocator@UWaveKey@ioCrecendoSkill@@@std@@QBEIXZ PROC ; std::allocator<ioCrecendoSkill::WaveKey>::max_size, COMDAT
; _this$ = ecx

; 218  : 		_SIZT _Count = (_SIZT)(-1) / sizeof (_Ty);
; 219  : 		return (0 < _Count ? _Count : 1);

  00000	b8 97 d0 5e 02	 mov	 eax, 39768215		; 025ed097H

; 220  : 		}

  00005	c3		 ret	 0
?max_size@?$allocator@UWaveKey@ioCrecendoSkill@@@std@@QBEIXZ ENDP ; std::allocator<ioCrecendoSkill::WaveKey>::max_size
_TEXT	ENDS
PUBLIC	?capacity@?$vector@UKeyMapEffect@ioCrecendoSkill@@V?$allocator@UKeyMapEffect@ioCrecendoSkill@@@std@@@std@@QBEIXZ ; std::vector<ioCrecendoSkill::KeyMapEffect,std::allocator<ioCrecendoSkill::KeyMapEffect> >::capacity
; Function compile flags: /Ogsp
; File c:\program files (x86)\microsoft visual studio 10.0\vc\include\vector
;	COMDAT ?capacity@?$vector@UKeyMapEffect@ioCrecendoSkill@@V?$allocator@UKeyMapEffect@ioCrecendoSkill@@@std@@@std@@QBEIXZ
_TEXT	SEGMENT
?capacity@?$vector@UKeyMapEffect@ioCrecendoSkill@@V?$allocator@UKeyMapEffect@ioCrecendoSkill@@@std@@@std@@QBEIXZ PROC ; std::vector<ioCrecendoSkill::KeyMapEffect,std::allocator<ioCrecendoSkill::KeyMapEffect> >::capacity, COMDAT
; _this$ = ecx

; 777  : 		return (this->_Myend - this->_Myfirst);

  00000	8b 41 08	 mov	 eax, DWORD PTR [ecx+8]
  00003	2b 01		 sub	 eax, DWORD PTR [ecx]
  00005	c1 f8 03	 sar	 eax, 3

; 778  : 		}

  00008	c3		 ret	 0
?capacity@?$vector@UKeyMapEffect@ioCrecendoSkill@@V?$allocator@UKeyMapEffect@ioCrecendoSkill@@@std@@@std@@QBEIXZ ENDP ; std::vector<ioCrecendoSkill::KeyMapEffect,std::allocator<ioCrecendoSkill::KeyMapEffect> >::capacity
_TEXT	ENDS
PUBLIC	?_Xlen@?$vector@UKeyMapEffect@ioCrecendoSkill@@V?$allocator@UKeyMapEffect@ioCrecendoSkill@@@std@@@std@@IBEXXZ ; std::vector<ioCrecendoSkill::KeyMapEffect,std::allocator<ioCrecendoSkill::KeyMapEffect> >::_Xlen
; Function compile flags: /Ogsp
;	COMDAT ?_Xlen@?$vector@UKeyMapEffect@ioCrecendoSkill@@V?$allocator@UKeyMapEffect@ioCrecendoSkill@@@std@@@std@@IBEXXZ
_TEXT	SEGMENT
?_Xlen@?$vector@UKeyMapEffect@ioCrecendoSkill@@V?$allocator@UKeyMapEffect@ioCrecendoSkill@@@std@@@std@@IBEXXZ PROC ; std::vector<ioCrecendoSkill::KeyMapEffect,std::allocator<ioCrecendoSkill::KeyMapEffect> >::_Xlen, COMDAT
; _this$ = ecx

; 1427 : 		_Xlength_error("vector<T> too long");

  00000	68 00 00 00 00	 push	 OFFSET ??_C@_0BD@OLBABOEK@vector?$DMT?$DO?5too?5long?$AA@
  00005	ff 15 00 00 00
	00		 call	 DWORD PTR __imp_?_Xlength_error@std@@YAXPBD@Z
$LN4@Xlen@2:
$LN3@Xlen@2:
  0000b	cc		 int	 3
?_Xlen@?$vector@UKeyMapEffect@ioCrecendoSkill@@V?$allocator@UKeyMapEffect@ioCrecendoSkill@@@std@@@std@@IBEXXZ ENDP ; std::vector<ioCrecendoSkill::KeyMapEffect,std::allocator<ioCrecendoSkill::KeyMapEffect> >::_Xlen
_TEXT	ENDS
PUBLIC	??0?$allocator@UKeyMapEffect@ioCrecendoSkill@@@std@@QAE@ABV01@@Z ; std::allocator<ioCrecendoSkill::KeyMapEffect>::allocator<ioCrecendoSkill::KeyMapEffect>
; Function compile flags: /Ogsp
; File c:\program files (x86)\microsoft visual studio 10.0\vc\include\xmemory
;	COMDAT ??0?$allocator@UKeyMapEffect@ioCrecendoSkill@@@std@@QAE@ABV01@@Z
_TEXT	SEGMENT
___formal$ = 8						; size = 4
??0?$allocator@UKeyMapEffect@ioCrecendoSkill@@@std@@QAE@ABV01@@Z PROC ; std::allocator<ioCrecendoSkill::KeyMapEffect>::allocator<ioCrecendoSkill::KeyMapEffect>, COMDAT
; _this$ = ecx

; 165  : 	_ALLOCATOR(const _ALLOCATOR<_Ty>&) _THROW0()

  00000	8b c1		 mov	 eax, ecx

; 166  : 		{	// construct by copying (do nothing)
; 167  : 		}

  00002	c2 04 00	 ret	 4
??0?$allocator@UKeyMapEffect@ioCrecendoSkill@@@std@@QAE@ABV01@@Z ENDP ; std::allocator<ioCrecendoSkill::KeyMapEffect>::allocator<ioCrecendoSkill::KeyMapEffect>
_TEXT	ENDS
PUBLIC	?deallocate@?$allocator@UKeyMapEffect@ioCrecendoSkill@@@std@@QAEXPAUKeyMapEffect@ioCrecendoSkill@@I@Z ; std::allocator<ioCrecendoSkill::KeyMapEffect>::deallocate
; Function compile flags: /Ogsp
;	COMDAT ?deallocate@?$allocator@UKeyMapEffect@ioCrecendoSkill@@@std@@QAEXPAUKeyMapEffect@ioCrecendoSkill@@I@Z
_TEXT	SEGMENT
__Ptr$ = 8						; size = 4
___formal$ = 12						; size = 4
?deallocate@?$allocator@UKeyMapEffect@ioCrecendoSkill@@@std@@QAEXPAUKeyMapEffect@ioCrecendoSkill@@I@Z PROC ; std::allocator<ioCrecendoSkill::KeyMapEffect>::deallocate, COMDAT
; _this$ = ecx

; 181  : 		{	// deallocate object at _Ptr, ignore size

  00000	55		 push	 ebp
  00001	8b ec		 mov	 ebp, esp

; 182  : 		::operator delete(_Ptr);

  00003	ff 75 08	 push	 DWORD PTR __Ptr$[ebp]
  00006	e8 00 00 00 00	 call	 ??3@YAXPAX@Z		; operator delete
  0000b	59		 pop	 ecx

; 183  : 		}

  0000c	5d		 pop	 ebp
  0000d	c2 08 00	 ret	 8
?deallocate@?$allocator@UKeyMapEffect@ioCrecendoSkill@@@std@@QAEXPAUKeyMapEffect@ioCrecendoSkill@@I@Z ENDP ; std::allocator<ioCrecendoSkill::KeyMapEffect>::deallocate
_TEXT	ENDS
PUBLIC	??0?$_Vector_const_iterator@V?$_Vector_val@UKeyMapEffect@ioCrecendoSkill@@V?$allocator@UKeyMapEffect@ioCrecendoSkill@@@std@@@std@@@std@@QAE@PAUKeyMapEffect@ioCrecendoSkill@@PBU_Container_base0@1@@Z ; std::_Vector_const_iterator<std::_Vector_val<ioCrecendoSkill::KeyMapEffect,std::allocator<ioCrecendoSkill::KeyMapEffect> > >::_Vector_const_iterator<std::_Vector_val<ioCrecendoSkill::KeyMapEffect,std::allocator<ioCrecendoSkill::KeyMapEffect> > >
; Function compile flags: /Ogsp
; File c:\program files (x86)\microsoft visual studio 10.0\vc\include\vector
;	COMDAT ??0?$_Vector_const_iterator@V?$_Vector_val@UKeyMapEffect@ioCrecendoSkill@@V?$allocator@UKeyMapEffect@ioCrecendoSkill@@@std@@@std@@@std@@QAE@PAUKeyMapEffect@ioCrecendoSkill@@PBU_Container_base0@1@@Z
_TEXT	SEGMENT
__Parg$ = 8						; size = 4
__Pvector$ = 12						; size = 4
??0?$_Vector_const_iterator@V?$_Vector_val@UKeyMapEffect@ioCrecendoSkill@@V?$allocator@UKeyMapEffect@ioCrecendoSkill@@@std@@@std@@@std@@QAE@PAUKeyMapEffect@ioCrecendoSkill@@PBU_Container_base0@1@@Z PROC ; std::_Vector_const_iterator<std::_Vector_val<ioCrecendoSkill::KeyMapEffect,std::allocator<ioCrecendoSkill::KeyMapEffect> > >::_Vector_const_iterator<std::_Vector_val<ioCrecendoSkill::KeyMapEffect,std::allocator<ioCrecendoSkill::KeyMapEffect> > >, COMDAT
; _this$ = ecx

; 45   : 		{	// construct with pointer _Parg

  00000	55		 push	 ebp
  00001	8b ec		 mov	 ebp, esp
  00003	8b c1		 mov	 eax, ecx
  00005	8b 4d 08	 mov	 ecx, DWORD PTR __Parg$[ebp]
  00008	89 08		 mov	 DWORD PTR [eax], ecx

; 46   : 		this->_Adopt(_Pvector);
; 47   : 		}

  0000a	5d		 pop	 ebp
  0000b	c2 08 00	 ret	 8
??0?$_Vector_const_iterator@V?$_Vector_val@UKeyMapEffect@ioCrecendoSkill@@V?$allocator@UKeyMapEffect@ioCrecendoSkill@@@std@@@std@@@std@@QAE@PAUKeyMapEffect@ioCrecendoSkill@@PBU_Container_base0@1@@Z ENDP ; std::_Vector_const_iterator<std::_Vector_val<ioCrecendoSkill::KeyMapEffect,std::allocator<ioCrecendoSkill::KeyMapEffect> > >::_Vector_const_iterator<std::_Vector_val<ioCrecendoSkill::KeyMapEffect,std::allocator<ioCrecendoSkill::KeyMapEffect> > >
_TEXT	ENDS
PUBLIC	?_Compat@?$_Vector_const_iterator@V?$_Vector_val@UKeyMapEffect@ioCrecendoSkill@@V?$allocator@UKeyMapEffect@ioCrecendoSkill@@@std@@@std@@@std@@QBEXABV12@@Z ; std::_Vector_const_iterator<std::_Vector_val<ioCrecendoSkill::KeyMapEffect,std::allocator<ioCrecendoSkill::KeyMapEffect> > >::_Compat
; Function compile flags: /Ogsp
;	COMDAT ?_Compat@?$_Vector_const_iterator@V?$_Vector_val@UKeyMapEffect@ioCrecendoSkill@@V?$allocator@UKeyMapEffect@ioCrecendoSkill@@@std@@@std@@@std@@QBEXABV12@@Z
_TEXT	SEGMENT
___formal$ = 8						; size = 4
?_Compat@?$_Vector_const_iterator@V?$_Vector_val@UKeyMapEffect@ioCrecendoSkill@@V?$allocator@UKeyMapEffect@ioCrecendoSkill@@@std@@@std@@@std@@QBEXABV12@@Z PROC ; std::_Vector_const_iterator<std::_Vector_val<ioCrecendoSkill::KeyMapEffect,std::allocator<ioCrecendoSkill::KeyMapEffect> > >::_Compat, COMDAT
; _this$ = ecx

; 253  : 		}

  00000	c2 04 00	 ret	 4
?_Compat@?$_Vector_const_iterator@V?$_Vector_val@UKeyMapEffect@ioCrecendoSkill@@V?$allocator@UKeyMapEffect@ioCrecendoSkill@@@std@@@std@@@std@@QBEXABV12@@Z ENDP ; std::_Vector_const_iterator<std::_Vector_val<ioCrecendoSkill::KeyMapEffect,std::allocator<ioCrecendoSkill::KeyMapEffect> > >::_Compat
_TEXT	ENDS
PUBLIC	??0?$_Vector_const_iterator@V?$_Vector_val@UWaveKey@ioCrecendoSkill@@V?$allocator@UWaveKey@ioCrecendoSkill@@@std@@@std@@@std@@QAE@PAUWaveKey@ioCrecendoSkill@@PBU_Container_base0@1@@Z ; std::_Vector_const_iterator<std::_Vector_val<ioCrecendoSkill::WaveKey,std::allocator<ioCrecendoSkill::WaveKey> > >::_Vector_const_iterator<std::_Vector_val<ioCrecendoSkill::WaveKey,std::allocator<ioCrecendoSkill::WaveKey> > >
; Function compile flags: /Ogsp
;	COMDAT ??0?$_Vector_const_iterator@V?$_Vector_val@UWaveKey@ioCrecendoSkill@@V?$allocator@UWaveKey@ioCrecendoSkill@@@std@@@std@@@std@@QAE@PAUWaveKey@ioCrecendoSkill@@PBU_Container_base0@1@@Z
_TEXT	SEGMENT
__Parg$ = 8						; size = 4
__Pvector$ = 12						; size = 4
??0?$_Vector_const_iterator@V?$_Vector_val@UWaveKey@ioCrecendoSkill@@V?$allocator@UWaveKey@ioCrecendoSkill@@@std@@@std@@@std@@QAE@PAUWaveKey@ioCrecendoSkill@@PBU_Container_base0@1@@Z PROC ; std::_Vector_const_iterator<std::_Vector_val<ioCrecendoSkill::WaveKey,std::allocator<ioCrecendoSkill::WaveKey> > >::_Vector_const_iterator<std::_Vector_val<ioCrecendoSkill::WaveKey,std::allocator<ioCrecendoSkill::WaveKey> > >, COMDAT
; _this$ = ecx

; 45   : 		{	// construct with pointer _Parg

  00000	55		 push	 ebp
  00001	8b ec		 mov	 ebp, esp
  00003	8b c1		 mov	 eax, ecx
  00005	8b 4d 08	 mov	 ecx, DWORD PTR __Parg$[ebp]
  00008	89 08		 mov	 DWORD PTR [eax], ecx

; 46   : 		this->_Adopt(_Pvector);
; 47   : 		}

  0000a	5d		 pop	 ebp
  0000b	c2 08 00	 ret	 8
??0?$_Vector_const_iterator@V?$_Vector_val@UWaveKey@ioCrecendoSkill@@V?$allocator@UWaveKey@ioCrecendoSkill@@@std@@@std@@@std@@QAE@PAUWaveKey@ioCrecendoSkill@@PBU_Container_base0@1@@Z ENDP ; std::_Vector_const_iterator<std::_Vector_val<ioCrecendoSkill::WaveKey,std::allocator<ioCrecendoSkill::WaveKey> > >::_Vector_const_iterator<std::_Vector_val<ioCrecendoSkill::WaveKey,std::allocator<ioCrecendoSkill::WaveKey> > >
_TEXT	ENDS
PUBLIC	?_Compat@?$_Vector_const_iterator@V?$_Vector_val@UWaveKey@ioCrecendoSkill@@V?$allocator@UWaveKey@ioCrecendoSkill@@@std@@@std@@@std@@QBEXABV12@@Z ; std::_Vector_const_iterator<std::_Vector_val<ioCrecendoSkill::WaveKey,std::allocator<ioCrecendoSkill::WaveKey> > >::_Compat
; Function compile flags: /Ogsp
;	COMDAT ?_Compat@?$_Vector_const_iterator@V?$_Vector_val@UWaveKey@ioCrecendoSkill@@V?$allocator@UWaveKey@ioCrecendoSkill@@@std@@@std@@@std@@QBEXABV12@@Z
_TEXT	SEGMENT
___formal$ = 8						; size = 4
?_Compat@?$_Vector_const_iterator@V?$_Vector_val@UWaveKey@ioCrecendoSkill@@V?$allocator@UWaveKey@ioCrecendoSkill@@@std@@@std@@@std@@QBEXABV12@@Z PROC ; std::_Vector_const_iterator<std::_Vector_val<ioCrecendoSkill::WaveKey,std::allocator<ioCrecendoSkill::WaveKey> > >::_Compat, COMDAT
; _this$ = ecx

; 253  : 		}

  00000	c2 04 00	 ret	 4
?_Compat@?$_Vector_const_iterator@V?$_Vector_val@UWaveKey@ioCrecendoSkill@@V?$allocator@UWaveKey@ioCrecendoSkill@@@std@@@std@@@std@@QBEXABV12@@Z ENDP ; std::_Vector_const_iterator<std::_Vector_val<ioCrecendoSkill::WaveKey,std::allocator<ioCrecendoSkill::WaveKey> > >::_Compat
_TEXT	ENDS
PUBLIC	?_Compat@?$_Vector_const_iterator@V?$_Vector_val@PAVioBaseChar@@V?$allocator@PAVioBaseChar@@@std@@@std@@@std@@QBEXABV12@@Z ; std::_Vector_const_iterator<std::_Vector_val<ioBaseChar *,std::allocator<ioBaseChar *> > >::_Compat
; Function compile flags: /Ogsp
;	COMDAT ?_Compat@?$_Vector_const_iterator@V?$_Vector_val@PAVioBaseChar@@V?$allocator@PAVioBaseChar@@@std@@@std@@@std@@QBEXABV12@@Z
_TEXT	SEGMENT
___formal$ = 8						; size = 4
?_Compat@?$_Vector_const_iterator@V?$_Vector_val@PAVioBaseChar@@V?$allocator@PAVioBaseChar@@@std@@@std@@@std@@QBEXABV12@@Z PROC ; std::_Vector_const_iterator<std::_Vector_val<ioBaseChar *,std::allocator<ioBaseChar *> > >::_Compat, COMDAT
; _this$ = ecx

; 253  : 		}

  00000	c2 04 00	 ret	 4
?_Compat@?$_Vector_const_iterator@V?$_Vector_val@PAVioBaseChar@@V?$allocator@PAVioBaseChar@@@std@@@std@@@std@@QBEXABV12@@Z ENDP ; std::_Vector_const_iterator<std::_Vector_val<ioBaseChar *,std::allocator<ioBaseChar *> > >::_Compat
_TEXT	ENDS
PUBLIC	?max_size@?$allocator@UKeyMapEffect@ioCrecendoSkill@@@std@@QBEIXZ ; std::allocator<ioCrecendoSkill::KeyMapEffect>::max_size
; Function compile flags: /Ogsp
; File c:\program files (x86)\microsoft visual studio 10.0\vc\include\xmemory
;	COMDAT ?max_size@?$allocator@UKeyMapEffect@ioCrecendoSkill@@@std@@QBEIXZ
_TEXT	SEGMENT
?max_size@?$allocator@UKeyMapEffect@ioCrecendoSkill@@@std@@QBEIXZ PROC ; std::allocator<ioCrecendoSkill::KeyMapEffect>::max_size, COMDAT
; _this$ = ecx

; 218  : 		_SIZT _Count = (_SIZT)(-1) / sizeof (_Ty);
; 219  : 		return (0 < _Count ? _Count : 1);

  00000	b8 ff ff ff 1f	 mov	 eax, 536870911		; 1fffffffH

; 220  : 		}

  00005	c3		 ret	 0
?max_size@?$allocator@UKeyMapEffect@ioCrecendoSkill@@@std@@QBEIXZ ENDP ; std::allocator<ioCrecendoSkill::KeyMapEffect>::max_size
_TEXT	ENDS
PUBLIC	??0D3DXVECTOR3@@QAE@XZ				; D3DXVECTOR3::D3DXVECTOR3
; Function compile flags: /Ogsp
; File c:\program files (x86)\microsoft directx sdk (june 2010)\include\d3dx9math.h
;	COMDAT ??0D3DXVECTOR3@@QAE@XZ
_TEXT	SEGMENT
??0D3DXVECTOR3@@QAE@XZ PROC				; D3DXVECTOR3::D3DXVECTOR3, COMDAT
; _this$ = ecx

; 165  :     D3DXVECTOR3() {};

  00000	8b c1		 mov	 eax, ecx
  00002	c3		 ret	 0
??0D3DXVECTOR3@@QAE@XZ ENDP				; D3DXVECTOR3::D3DXVECTOR3
_TEXT	ENDS
PUBLIC	??0D3DXVECTOR3@@QAE@MMM@Z			; D3DXVECTOR3::D3DXVECTOR3
; Function compile flags: /Ogsp
; File c:\program files (x86)\microsoft directx sdk (june 2010)\include\d3dx9math.inl
;	COMDAT ??0D3DXVECTOR3@@QAE@MMM@Z
_TEXT	SEGMENT
_fx$ = 8						; size = 4
_fy$ = 12						; size = 4
_fz$ = 16						; size = 4
??0D3DXVECTOR3@@QAE@MMM@Z PROC				; D3DXVECTOR3::D3DXVECTOR3, COMDAT
; _this$ = ecx

; 303  : {

  00000	55		 push	 ebp
  00001	8b ec		 mov	 ebp, esp

; 304  :     x = fx;

  00003	f3 0f 10 45 08	 movss	 xmm0, DWORD PTR _fx$[ebp]
  00008	8b c1		 mov	 eax, ecx
  0000a	f3 0f 11 00	 movss	 DWORD PTR [eax], xmm0

; 305  :     y = fy;

  0000e	f3 0f 10 45 0c	 movss	 xmm0, DWORD PTR _fy$[ebp]
  00013	f3 0f 11 40 04	 movss	 DWORD PTR [eax+4], xmm0

; 306  :     z = fz;

  00018	f3 0f 10 45 10	 movss	 xmm0, DWORD PTR _fz$[ebp]
  0001d	f3 0f 11 40 08	 movss	 DWORD PTR [eax+8], xmm0

; 307  : }

  00022	5d		 pop	 ebp
  00023	c2 0c 00	 ret	 12			; 0000000cH
??0D3DXVECTOR3@@QAE@MMM@Z ENDP				; D3DXVECTOR3::D3DXVECTOR3
_TEXT	ENDS
PUBLIC	??HD3DXVECTOR3@@QBE?AU0@ABU0@@Z			; D3DXVECTOR3::operator+
; Function compile flags: /Ogsp
;	COMDAT ??HD3DXVECTOR3@@QBE?AU0@ABU0@@Z
_TEXT	SEGMENT
___$ReturnUdt$ = 8					; size = 4
_v$ = 12						; size = 4
??HD3DXVECTOR3@@QBE?AU0@ABU0@@Z PROC			; D3DXVECTOR3::operator+, COMDAT
; _this$ = ecx

; 380  : {

  00000	55		 push	 ebp
  00001	8b ec		 mov	 ebp, esp

; 381  :     return D3DXVECTOR3(x + v.x, y + v.y, z + v.z);

  00003	8b 55 0c	 mov	 edx, DWORD PTR _v$[ebp]
  00006	f3 0f 10 02	 movss	 xmm0, DWORD PTR [edx]
  0000a	f3 0f 10 09	 movss	 xmm1, DWORD PTR [ecx]
  0000e	8b 45 08	 mov	 eax, DWORD PTR ___$ReturnUdt$[ebp]
  00011	0f 5a c0	 cvtps2pd xmm0, xmm0
  00014	0f 5a c9	 cvtps2pd xmm1, xmm1
  00017	f2 0f 58 c1	 addsd	 xmm0, xmm1
  0001b	f3 0f 10 49 04	 movss	 xmm1, DWORD PTR [ecx+4]
  00020	66 0f 5a c0	 cvtpd2ps xmm0, xmm0
  00024	f3 0f 11 00	 movss	 DWORD PTR [eax], xmm0
  00028	f3 0f 10 42 04	 movss	 xmm0, DWORD PTR [edx+4]
  0002d	0f 5a c0	 cvtps2pd xmm0, xmm0
  00030	0f 5a c9	 cvtps2pd xmm1, xmm1
  00033	f2 0f 58 c1	 addsd	 xmm0, xmm1
  00037	f3 0f 10 49 08	 movss	 xmm1, DWORD PTR [ecx+8]
  0003c	66 0f 5a c0	 cvtpd2ps xmm0, xmm0
  00040	f3 0f 11 40 04	 movss	 DWORD PTR [eax+4], xmm0
  00045	f3 0f 10 42 08	 movss	 xmm0, DWORD PTR [edx+8]
  0004a	0f 5a c0	 cvtps2pd xmm0, xmm0
  0004d	0f 5a c9	 cvtps2pd xmm1, xmm1
  00050	f2 0f 58 c1	 addsd	 xmm0, xmm1
  00054	66 0f 5a c0	 cvtpd2ps xmm0, xmm0
  00058	f3 0f 11 40 08	 movss	 DWORD PTR [eax+8], xmm0

; 382  : }

  0005d	5d		 pop	 ebp
  0005e	c2 08 00	 ret	 8
??HD3DXVECTOR3@@QBE?AU0@ABU0@@Z ENDP			; D3DXVECTOR3::operator+
_TEXT	ENDS
PUBLIC	??GD3DXVECTOR3@@QBE?AU0@ABU0@@Z			; D3DXVECTOR3::operator-
; Function compile flags: /Ogsp
;	COMDAT ??GD3DXVECTOR3@@QBE?AU0@ABU0@@Z
_TEXT	SEGMENT
___$ReturnUdt$ = 8					; size = 4
_v$ = 12						; size = 4
??GD3DXVECTOR3@@QBE?AU0@ABU0@@Z PROC			; D3DXVECTOR3::operator-, COMDAT
; _this$ = ecx

; 386  : {

  00000	55		 push	 ebp
  00001	8b ec		 mov	 ebp, esp

; 387  :     return D3DXVECTOR3(x - v.x, y - v.y, z - v.z);

  00003	8b 55 0c	 mov	 edx, DWORD PTR _v$[ebp]
  00006	f3 0f 10 01	 movss	 xmm0, DWORD PTR [ecx]
  0000a	f3 0f 10 0a	 movss	 xmm1, DWORD PTR [edx]
  0000e	8b 45 08	 mov	 eax, DWORD PTR ___$ReturnUdt$[ebp]
  00011	0f 5a c0	 cvtps2pd xmm0, xmm0
  00014	0f 5a c9	 cvtps2pd xmm1, xmm1
  00017	f2 0f 5c c1	 subsd	 xmm0, xmm1
  0001b	f3 0f 10 4a 04	 movss	 xmm1, DWORD PTR [edx+4]
  00020	66 0f 5a c0	 cvtpd2ps xmm0, xmm0
  00024	f3 0f 11 00	 movss	 DWORD PTR [eax], xmm0
  00028	f3 0f 10 41 04	 movss	 xmm0, DWORD PTR [ecx+4]
  0002d	0f 5a c0	 cvtps2pd xmm0, xmm0
  00030	0f 5a c9	 cvtps2pd xmm1, xmm1
  00033	f2 0f 5c c1	 subsd	 xmm0, xmm1
  00037	f3 0f 10 4a 08	 movss	 xmm1, DWORD PTR [edx+8]
  0003c	66 0f 5a c0	 cvtpd2ps xmm0, xmm0
  00040	f3 0f 11 40 04	 movss	 DWORD PTR [eax+4], xmm0
  00045	f3 0f 10 41 08	 movss	 xmm0, DWORD PTR [ecx+8]
  0004a	0f 5a c0	 cvtps2pd xmm0, xmm0
  0004d	0f 5a c9	 cvtps2pd xmm1, xmm1
  00050	f2 0f 5c c1	 subsd	 xmm0, xmm1
  00054	66 0f 5a c0	 cvtpd2ps xmm0, xmm0
  00058	f3 0f 11 40 08	 movss	 DWORD PTR [eax+8], xmm0

; 388  : }

  0005d	5d		 pop	 ebp
  0005e	c2 08 00	 ret	 8
??GD3DXVECTOR3@@QBE?AU0@ABU0@@Z ENDP			; D3DXVECTOR3::operator-
_TEXT	ENDS
PUBLIC	??D@YA?AUD3DXVECTOR3@@MABU0@@Z			; operator*
; Function compile flags: /Ogsp
;	COMDAT ??D@YA?AUD3DXVECTOR3@@MABU0@@Z
_TEXT	SEGMENT
___$ReturnUdt$ = 8					; size = 4
_f$ = 12						; size = 4
_v$ = 16						; size = 4
??D@YA?AUD3DXVECTOR3@@MABU0@@Z PROC			; operator*, COMDAT

; 406  : {

  00000	55		 push	 ebp
  00001	8b ec		 mov	 ebp, esp

; 407  :     return D3DXVECTOR3(f * v.x, f * v.y, f * v.z);

  00003	8b 4d 10	 mov	 ecx, DWORD PTR _v$[ebp]
  00006	f3 0f 10 4d 0c	 movss	 xmm1, DWORD PTR _f$[ebp]
  0000b	f3 0f 10 01	 movss	 xmm0, DWORD PTR [ecx]
  0000f	8b 45 08	 mov	 eax, DWORD PTR ___$ReturnUdt$[ebp]
  00012	0f 5a c0	 cvtps2pd xmm0, xmm0
  00015	0f 5a c9	 cvtps2pd xmm1, xmm1
  00018	f2 0f 59 c1	 mulsd	 xmm0, xmm1
  0001c	f3 0f 10 4d 0c	 movss	 xmm1, DWORD PTR _f$[ebp]
  00021	66 0f 5a c0	 cvtpd2ps xmm0, xmm0
  00025	f3 0f 11 00	 movss	 DWORD PTR [eax], xmm0
  00029	f3 0f 10 41 04	 movss	 xmm0, DWORD PTR [ecx+4]
  0002e	0f 5a c0	 cvtps2pd xmm0, xmm0
  00031	0f 5a c9	 cvtps2pd xmm1, xmm1
  00034	f2 0f 59 c1	 mulsd	 xmm0, xmm1
  00038	f3 0f 10 4d 0c	 movss	 xmm1, DWORD PTR _f$[ebp]
  0003d	66 0f 5a c0	 cvtpd2ps xmm0, xmm0
  00041	f3 0f 11 40 04	 movss	 DWORD PTR [eax+4], xmm0
  00046	f3 0f 10 41 08	 movss	 xmm0, DWORD PTR [ecx+8]
  0004b	0f 5a c0	 cvtps2pd xmm0, xmm0
  0004e	0f 5a c9	 cvtps2pd xmm1, xmm1
  00051	f2 0f 59 c1	 mulsd	 xmm0, xmm1
  00055	66 0f 5a c0	 cvtpd2ps xmm0, xmm0
  00059	f3 0f 11 40 08	 movss	 DWORD PTR [eax+8], xmm0

; 408  : }

  0005e	5d		 pop	 ebp
  0005f	c3		 ret	 0
??D@YA?AUD3DXVECTOR3@@MABU0@@Z ENDP			; operator*
_TEXT	ENDS
PUBLIC	?D3DXVec3Length@@YAMPBUD3DXVECTOR3@@@Z		; D3DXVec3Length
; Function compile flags: /Ogsp
;	COMDAT ?D3DXVec3Length@@YAMPBUD3DXVECTOR3@@@Z
_TEXT	SEGMENT
tv169 = 8						; size = 4
tv160 = 8						; size = 4
_pV$ = 8						; size = 4
?D3DXVec3Length@@YAMPBUD3DXVECTOR3@@@Z PROC		; D3DXVec3Length, COMDAT

; 1710 : {

  00000	55		 push	 ebp
  00001	8b ec		 mov	 ebp, esp

; 1711 : #ifdef D3DX_DEBUG
; 1712 :     if(!pV)
; 1713 :         return 0.0f;
; 1714 : #endif
; 1715 : 
; 1716 : #ifdef __cplusplus
; 1717 :     return sqrtf(pV->x * pV->x + pV->y * pV->y + pV->z * pV->z);

  00003	8b 45 08	 mov	 eax, DWORD PTR _pV$[ebp]
  00006	d9 40 04	 fld	 DWORD PTR [eax+4]
  00009	d9 00		 fld	 DWORD PTR [eax]
  0000b	d9 40 08	 fld	 DWORD PTR [eax+8]
  0000e	d9 c1		 fld	 ST(1)
  00010	de ca		 fmulp	 ST(2), ST(0)
  00012	d9 c2		 fld	 ST(2)
  00014	de cb		 fmulp	 ST(3), ST(0)
  00016	d9 c9		 fxch	 ST(1)
  00018	de c2		 faddp	 ST(2), ST(0)
  0001a	d9 c0		 fld	 ST(0)
  0001c	de c9		 fmulp	 ST(1), ST(0)
  0001e	de c1		 faddp	 ST(1), ST(0)
  00020	d9 5d 08	 fstp	 DWORD PTR tv169[ebp]
  00023	d9 45 08	 fld	 DWORD PTR tv169[ebp]
  00026	e8 00 00 00 00	 call	 __CIsqrt
  0002b	d9 5d 08	 fstp	 DWORD PTR tv160[ebp]
  0002e	d9 45 08	 fld	 DWORD PTR tv160[ebp]

; 1718 : #else
; 1719 :     return (FLOAT) sqrt(pV->x * pV->x + pV->y * pV->y + pV->z * pV->z);
; 1720 : #endif
; 1721 : }

  00031	5d		 pop	 ebp
  00032	c3		 ret	 0
?D3DXVec3Length@@YAMPBUD3DXVECTOR3@@@Z ENDP		; D3DXVec3Length
_TEXT	ENDS
PUBLIC	??$addressof@$$CBUWaveKey@ioCrecendoSkill@@@std@@YAPBUWaveKey@ioCrecendoSkill@@ABU12@@Z ; std::addressof<ioCrecendoSkill::WaveKey const >
; Function compile flags: /Ogsp
; File c:\program files (x86)\microsoft visual studio 10.0\vc\include\xmemory
;	COMDAT ??$addressof@$$CBUWaveKey@ioCrecendoSkill@@@std@@YAPBUWaveKey@ioCrecendoSkill@@ABU12@@Z
_TEXT	SEGMENT
__Val$ = 8						; size = 4
??$addressof@$$CBUWaveKey@ioCrecendoSkill@@@std@@YAPBUWaveKey@ioCrecendoSkill@@ABU12@@Z PROC ; std::addressof<ioCrecendoSkill::WaveKey const >, COMDAT

; 110  : 	{	// return address of _Val

  00000	55		 push	 ebp
  00001	8b ec		 mov	 ebp, esp

; 111  : 	return ((_Ty *) &(char&)_Val);

  00003	8b 45 08	 mov	 eax, DWORD PTR __Val$[ebp]

; 112  : 	}

  00006	5d		 pop	 ebp
  00007	c3		 ret	 0
??$addressof@$$CBUWaveKey@ioCrecendoSkill@@@std@@YAPBUWaveKey@ioCrecendoSkill@@ABU12@@Z ENDP ; std::addressof<ioCrecendoSkill::WaveKey const >
_TEXT	ENDS
PUBLIC	??$addressof@$$CBUKeyMapEffect@ioCrecendoSkill@@@std@@YAPBUKeyMapEffect@ioCrecendoSkill@@ABU12@@Z ; std::addressof<ioCrecendoSkill::KeyMapEffect const >
; Function compile flags: /Ogsp
;	COMDAT ??$addressof@$$CBUKeyMapEffect@ioCrecendoSkill@@@std@@YAPBUKeyMapEffect@ioCrecendoSkill@@ABU12@@Z
_TEXT	SEGMENT
__Val$ = 8						; size = 4
??$addressof@$$CBUKeyMapEffect@ioCrecendoSkill@@@std@@YAPBUKeyMapEffect@ioCrecendoSkill@@ABU12@@Z PROC ; std::addressof<ioCrecendoSkill::KeyMapEffect const >, COMDAT

; 110  : 	{	// return address of _Val

  00000	55		 push	 ebp
  00001	8b ec		 mov	 ebp, esp

; 111  : 	return ((_Ty *) &(char&)_Val);

  00003	8b 45 08	 mov	 eax, DWORD PTR __Val$[ebp]

; 112  : 	}

  00006	5d		 pop	 ebp
  00007	c3		 ret	 0
??$addressof@$$CBUKeyMapEffect@ioCrecendoSkill@@@std@@YAPBUKeyMapEffect@ioCrecendoSkill@@ABU12@@Z ENDP ; std::addressof<ioCrecendoSkill::KeyMapEffect const >
_TEXT	ENDS
PUBLIC	__TI2?AVbad_alloc@std@@
PUBLIC	??$_Allocate@UWaveKey@ioCrecendoSkill@@@std@@YAPAUWaveKey@ioCrecendoSkill@@IPAU12@@Z ; std::_Allocate<ioCrecendoSkill::WaveKey>
PUBLIC	__CTA2?AVbad_alloc@std@@
PUBLIC	__CT??_R0?AVbad_alloc@std@@@8??0bad_alloc@std@@QAE@ABV01@@Z12
PUBLIC	??0bad_alloc@std@@QAE@ABV01@@Z			; std::bad_alloc::bad_alloc
PUBLIC	__CT??_R0?AVexception@std@@@8??0exception@std@@QAE@ABV01@@Z12
EXTRN	??2@YAPAXI@Z:PROC				; operator new
EXTRN	__CxxThrowException@8:PROC
EXTRN	??0exception@std@@QAE@ABV01@@Z:PROC		; std::exception::exception
;	COMDAT __CT??_R0?AVexception@std@@@8??0exception@std@@QAE@ABV01@@Z12
; File c:\program files (x86)\microsoft visual studio 10.0\vc\include\exception
xdata$x	SEGMENT
__CT??_R0?AVexception@std@@@8??0exception@std@@QAE@ABV01@@Z12 DD 00H
	DD	FLAT:??_R0?AVexception@std@@@8
	DD	00H
	DD	0ffffffffH
	ORG $+4
	DD	0cH
	DD	FLAT:??0exception@std@@QAE@ABV01@@Z
xdata$x	ENDS
;	COMDAT __CT??_R0?AVbad_alloc@std@@@8??0bad_alloc@std@@QAE@ABV01@@Z12
xdata$x	SEGMENT
__CT??_R0?AVbad_alloc@std@@@8??0bad_alloc@std@@QAE@ABV01@@Z12 DD 00H
	DD	FLAT:??_R0?AVbad_alloc@std@@@8
	DD	00H
	DD	0ffffffffH
	ORG $+4
	DD	0cH
	DD	FLAT:??0bad_alloc@std@@QAE@ABV01@@Z
xdata$x	ENDS
;	COMDAT __CTA2?AVbad_alloc@std@@
xdata$x	SEGMENT
__CTA2?AVbad_alloc@std@@ DD 02H
	DD	FLAT:__CT??_R0?AVbad_alloc@std@@@8??0bad_alloc@std@@QAE@ABV01@@Z12
	DD	FLAT:__CT??_R0?AVexception@std@@@8??0exception@std@@QAE@ABV01@@Z12
xdata$x	ENDS
;	COMDAT __TI2?AVbad_alloc@std@@
xdata$x	SEGMENT
__TI2?AVbad_alloc@std@@ DD 00H
	DD	FLAT:??1bad_alloc@std@@UAE@XZ
	DD	00H
	DD	FLAT:__CTA2?AVbad_alloc@std@@
; Function compile flags: /Ogsp
; File c:\program files (x86)\microsoft visual studio 10.0\vc\include\xmemory
xdata$x	ENDS
;	COMDAT ??$_Allocate@UWaveKey@ioCrecendoSkill@@@std@@YAPAUWaveKey@ioCrecendoSkill@@IPAU12@@Z
_TEXT	SEGMENT
$T538971 = -12						; size = 12
$T538976 = 8						; size = 4
__Count$ = 8						; size = 4
___formal$ = 12						; size = 4
??$_Allocate@UWaveKey@ioCrecendoSkill@@@std@@YAPAUWaveKey@ioCrecendoSkill@@IPAU12@@Z PROC ; std::_Allocate<ioCrecendoSkill::WaveKey>, COMDAT

; 30   : 	{	// allocate storage for _Count elements of type _Ty

  00000	55		 push	 ebp
  00001	8b ec		 mov	 ebp, esp

; 31   : 	void *_Ptr = 0;
; 32   : 
; 33   : 	if (_Count <= 0)

  00003	8b 4d 08	 mov	 ecx, DWORD PTR __Count$[ebp]
  00006	83 ec 0c	 sub	 esp, 12			; 0000000cH
  00009	33 c0		 xor	 eax, eax
  0000b	85 c9		 test	 ecx, ecx

; 34   : 		_Count = 0;
; 35   : 	else if (((_SIZT)(-1) / sizeof (_Ty) < _Count)

  0000d	74 3c		 je	 SHORT $LN5@Allocate

; 36   : 		|| (_Ptr = ::operator new(_Count * sizeof (_Ty))) == 0)

  0000f	81 f9 97 d0 5e
	02		 cmp	 ecx, 39768215		; 025ed097H
  00015	77 0e		 ja	 SHORT $LN1@Allocate
  00017	6b c9 6c	 imul	 ecx, 108		; 0000006cH
  0001a	51		 push	 ecx
  0001b	e8 00 00 00 00	 call	 ??2@YAPAXI@Z		; operator new
  00020	59		 pop	 ecx
  00021	85 c0		 test	 eax, eax

; 38   : 
; 39   : 	return ((_Ty _FARQ *)_Ptr);

  00023	75 26		 jne	 SHORT $LN5@Allocate
$LN1@Allocate:

; 37   : 		_THROW_NCEE(bad_alloc, 0);

  00025	83 65 08 00	 and	 DWORD PTR $T538976[ebp], 0
  00029	8d 45 08	 lea	 eax, DWORD PTR $T538976[ebp]
  0002c	50		 push	 eax
  0002d	8d 4d f4	 lea	 ecx, DWORD PTR $T538971[ebp]
  00030	ff 15 00 00 00
	00		 call	 DWORD PTR __imp_??0exception@std@@QAE@ABQBD@Z
  00036	68 00 00 00 00	 push	 OFFSET __TI2?AVbad_alloc@std@@
  0003b	8d 45 f4	 lea	 eax, DWORD PTR $T538971[ebp]
  0003e	50		 push	 eax
  0003f	c7 45 f4 00 00
	00 00		 mov	 DWORD PTR $T538971[ebp], OFFSET ??_7bad_alloc@std@@6B@
  00046	e8 00 00 00 00	 call	 __CxxThrowException@8
$LN10@Allocate:
$LN5@Allocate:

; 40   : 	}

  0004b	c9		 leave
  0004c	c3		 ret	 0
$LN9@Allocate:
??$_Allocate@UWaveKey@ioCrecendoSkill@@@std@@YAPAUWaveKey@ioCrecendoSkill@@IPAU12@@Z ENDP ; std::_Allocate<ioCrecendoSkill::WaveKey>
_TEXT	ENDS
PUBLIC	??$_Allocate@UKeyMapEffect@ioCrecendoSkill@@@std@@YAPAUKeyMapEffect@ioCrecendoSkill@@IPAU12@@Z ; std::_Allocate<ioCrecendoSkill::KeyMapEffect>
; Function compile flags: /Ogsp
;	COMDAT ??$_Allocate@UKeyMapEffect@ioCrecendoSkill@@@std@@YAPAUKeyMapEffect@ioCrecendoSkill@@IPAU12@@Z
_TEXT	SEGMENT
$T538981 = -12						; size = 12
$T538985 = 8						; size = 4
__Count$ = 8						; size = 4
___formal$ = 12						; size = 4
??$_Allocate@UKeyMapEffect@ioCrecendoSkill@@@std@@YAPAUKeyMapEffect@ioCrecendoSkill@@IPAU12@@Z PROC ; std::_Allocate<ioCrecendoSkill::KeyMapEffect>, COMDAT

; 30   : 	{	// allocate storage for _Count elements of type _Ty

  00000	55		 push	 ebp
  00001	8b ec		 mov	 ebp, esp

; 31   : 	void *_Ptr = 0;
; 32   : 
; 33   : 	if (_Count <= 0)

  00003	8b 4d 08	 mov	 ecx, DWORD PTR __Count$[ebp]
  00006	83 ec 0c	 sub	 esp, 12			; 0000000cH
  00009	33 c0		 xor	 eax, eax
  0000b	85 c9		 test	 ecx, ecx

; 34   : 		_Count = 0;
; 35   : 	else if (((_SIZT)(-1) / sizeof (_Ty) < _Count)

  0000d	74 3e		 je	 SHORT $LN5@Allocate@2

; 36   : 		|| (_Ptr = ::operator new(_Count * sizeof (_Ty))) == 0)

  0000f	81 f9 ff ff ff
	1f		 cmp	 ecx, 536870911		; 1fffffffH
  00015	77 10		 ja	 SHORT $LN1@Allocate@2
  00017	8b c1		 mov	 eax, ecx
  00019	c1 e0 03	 shl	 eax, 3
  0001c	50		 push	 eax
  0001d	e8 00 00 00 00	 call	 ??2@YAPAXI@Z		; operator new
  00022	59		 pop	 ecx
  00023	85 c0		 test	 eax, eax

; 38   : 
; 39   : 	return ((_Ty _FARQ *)_Ptr);

  00025	75 26		 jne	 SHORT $LN5@Allocate@2
$LN1@Allocate@2:

; 37   : 		_THROW_NCEE(bad_alloc, 0);

  00027	83 65 08 00	 and	 DWORD PTR $T538985[ebp], 0
  0002b	8d 45 08	 lea	 eax, DWORD PTR $T538985[ebp]
  0002e	50		 push	 eax
  0002f	8d 4d f4	 lea	 ecx, DWORD PTR $T538981[ebp]
  00032	ff 15 00 00 00
	00		 call	 DWORD PTR __imp_??0exception@std@@QAE@ABQBD@Z
  00038	68 00 00 00 00	 push	 OFFSET __TI2?AVbad_alloc@std@@
  0003d	8d 45 f4	 lea	 eax, DWORD PTR $T538981[ebp]
  00040	50		 push	 eax
  00041	c7 45 f4 00 00
	00 00		 mov	 DWORD PTR $T538981[ebp], OFFSET ??_7bad_alloc@std@@6B@
  00048	e8 00 00 00 00	 call	 __CxxThrowException@8
$LN10@Allocate@2:
$LN5@Allocate@2:

; 40   : 	}

  0004d	c9		 leave
  0004e	c3		 ret	 0
$LN9@Allocate@2:
??$_Allocate@UKeyMapEffect@ioCrecendoSkill@@@std@@YAPAUKeyMapEffect@ioCrecendoSkill@@IPAU12@@Z ENDP ; std::_Allocate<ioCrecendoSkill::KeyMapEffect>
_TEXT	ENDS
PUBLIC	??$forward@AAUKeyMapEffect@ioCrecendoSkill@@@std@@YAAAUKeyMapEffect@ioCrecendoSkill@@AAU12@@Z ; std::forward<ioCrecendoSkill::KeyMapEffect &>
; Function compile flags: /Ogsp
; File c:\program files (x86)\microsoft visual studio 10.0\vc\include\utility
;	COMDAT ??$forward@AAUKeyMapEffect@ioCrecendoSkill@@@std@@YAAAUKeyMapEffect@ioCrecendoSkill@@AAU12@@Z
_TEXT	SEGMENT
__Arg$ = 8						; size = 4
??$forward@AAUKeyMapEffect@ioCrecendoSkill@@@std@@YAAAUKeyMapEffect@ioCrecendoSkill@@AAU12@@Z PROC ; std::forward<ioCrecendoSkill::KeyMapEffect &>, COMDAT

; 78   : 	{	// forward _Arg, given explicitly specified type parameter

  00000	55		 push	 ebp
  00001	8b ec		 mov	 ebp, esp

; 79   : 	return ((_Ty&&)_Arg);

  00003	8b 45 08	 mov	 eax, DWORD PTR __Arg$[ebp]

; 80   : 	}

  00006	5d		 pop	 ebp
  00007	c3		 ret	 0
??$forward@AAUKeyMapEffect@ioCrecendoSkill@@@std@@YAAAUKeyMapEffect@ioCrecendoSkill@@AAU12@@Z ENDP ; std::forward<ioCrecendoSkill::KeyMapEffect &>
_TEXT	ENDS
PUBLIC	??$forward@AAUWaveKey@ioCrecendoSkill@@@std@@YAAAUWaveKey@ioCrecendoSkill@@AAU12@@Z ; std::forward<ioCrecendoSkill::WaveKey &>
; Function compile flags: /Ogsp
;	COMDAT ??$forward@AAUWaveKey@ioCrecendoSkill@@@std@@YAAAUWaveKey@ioCrecendoSkill@@AAU12@@Z
_TEXT	SEGMENT
__Arg$ = 8						; size = 4
??$forward@AAUWaveKey@ioCrecendoSkill@@@std@@YAAAUWaveKey@ioCrecendoSkill@@AAU12@@Z PROC ; std::forward<ioCrecendoSkill::WaveKey &>, COMDAT

; 78   : 	{	// forward _Arg, given explicitly specified type parameter

  00000	55		 push	 ebp
  00001	8b ec		 mov	 ebp, esp

; 79   : 	return ((_Ty&&)_Arg);

  00003	8b 45 08	 mov	 eax, DWORD PTR __Arg$[ebp]

; 80   : 	}

  00006	5d		 pop	 ebp
  00007	c3		 ret	 0
??$forward@AAUWaveKey@ioCrecendoSkill@@@std@@YAAAUWaveKey@ioCrecendoSkill@@AAU12@@Z ENDP ; std::forward<ioCrecendoSkill::WaveKey &>
_TEXT	ENDS
PUBLIC	??$forward@ABUWaveKey@ioCrecendoSkill@@@std@@YAABUWaveKey@ioCrecendoSkill@@ABU12@@Z ; std::forward<ioCrecendoSkill::WaveKey const &>
; Function compile flags: /Ogsp
;	COMDAT ??$forward@ABUWaveKey@ioCrecendoSkill@@@std@@YAABUWaveKey@ioCrecendoSkill@@ABU12@@Z
_TEXT	SEGMENT
__Arg$ = 8						; size = 4
??$forward@ABUWaveKey@ioCrecendoSkill@@@std@@YAABUWaveKey@ioCrecendoSkill@@ABU12@@Z PROC ; std::forward<ioCrecendoSkill::WaveKey const &>, COMDAT

; 78   : 	{	// forward _Arg, given explicitly specified type parameter

  00000	55		 push	 ebp
  00001	8b ec		 mov	 ebp, esp

; 79   : 	return ((_Ty&&)_Arg);

  00003	8b 45 08	 mov	 eax, DWORD PTR __Arg$[ebp]

; 80   : 	}

  00006	5d		 pop	 ebp
  00007	c3		 ret	 0
??$forward@ABUWaveKey@ioCrecendoSkill@@@std@@YAABUWaveKey@ioCrecendoSkill@@ABU12@@Z ENDP ; std::forward<ioCrecendoSkill::WaveKey const &>
_TEXT	ENDS
PUBLIC	??$construct@AAUKeyMapEffect@ioCrecendoSkill@@@?$allocator@UKeyMapEffect@ioCrecendoSkill@@@std@@QAEXPAUKeyMapEffect@ioCrecendoSkill@@AAU23@@Z ; std::allocator<ioCrecendoSkill::KeyMapEffect>::construct<ioCrecendoSkill::KeyMapEffect &>
; Function compile flags: /Ogsp
; File c:\program files (x86)\microsoft visual studio 10.0\vc\include\xmemory
;	COMDAT ??$construct@AAUKeyMapEffect@ioCrecendoSkill@@@?$allocator@UKeyMapEffect@ioCrecendoSkill@@@std@@QAEXPAUKeyMapEffect@ioCrecendoSkill@@AAU23@@Z
_TEXT	SEGMENT
__Ptr$ = 8						; size = 4
__Val$ = 12						; size = 4
??$construct@AAUKeyMapEffect@ioCrecendoSkill@@@?$allocator@UKeyMapEffect@ioCrecendoSkill@@@std@@QAEXPAUKeyMapEffect@ioCrecendoSkill@@AAU23@@Z PROC ; std::allocator<ioCrecendoSkill::KeyMapEffect>::construct<ioCrecendoSkill::KeyMapEffect &>, COMDAT
; _this$ = ecx

; 206  : 		void construct(pointer _Ptr, _Other&& _Val)

  00000	55		 push	 ebp
  00001	8b ec		 mov	 ebp, esp

; 207  : 		{	// construct object at _Ptr with value _Val
; 208  : 		::new ((void _FARQ *)_Ptr) _Ty(_STD forward<_Other>(_Val));

  00003	8b 45 08	 mov	 eax, DWORD PTR __Ptr$[ebp]
  00006	85 c0		 test	 eax, eax
  00008	74 0d		 je	 SHORT $LN3@construct
  0000a	8b 4d 0c	 mov	 ecx, DWORD PTR __Val$[ebp]
  0000d	8b 11		 mov	 edx, DWORD PTR [ecx]
  0000f	89 10		 mov	 DWORD PTR [eax], edx
  00011	8b 49 04	 mov	 ecx, DWORD PTR [ecx+4]
  00014	89 48 04	 mov	 DWORD PTR [eax+4], ecx
$LN3@construct:

; 209  : 		}

  00017	5d		 pop	 ebp
  00018	c2 08 00	 ret	 8
??$construct@AAUKeyMapEffect@ioCrecendoSkill@@@?$allocator@UKeyMapEffect@ioCrecendoSkill@@@std@@QAEXPAUKeyMapEffect@ioCrecendoSkill@@AAU23@@Z ENDP ; std::allocator<ioCrecendoSkill::KeyMapEffect>::construct<ioCrecendoSkill::KeyMapEffect &>
_TEXT	ENDS
PUBLIC	??$forward@ABUKeyMapEffect@ioCrecendoSkill@@@std@@YAABUKeyMapEffect@ioCrecendoSkill@@ABU12@@Z ; std::forward<ioCrecendoSkill::KeyMapEffect const &>
; Function compile flags: /Ogsp
; File c:\program files (x86)\microsoft visual studio 10.0\vc\include\utility
;	COMDAT ??$forward@ABUKeyMapEffect@ioCrecendoSkill@@@std@@YAABUKeyMapEffect@ioCrecendoSkill@@ABU12@@Z
_TEXT	SEGMENT
__Arg$ = 8						; size = 4
??$forward@ABUKeyMapEffect@ioCrecendoSkill@@@std@@YAABUKeyMapEffect@ioCrecendoSkill@@ABU12@@Z PROC ; std::forward<ioCrecendoSkill::KeyMapEffect const &>, COMDAT

; 78   : 	{	// forward _Arg, given explicitly specified type parameter

  00000	55		 push	 ebp
  00001	8b ec		 mov	 ebp, esp

; 79   : 	return ((_Ty&&)_Arg);

  00003	8b 45 08	 mov	 eax, DWORD PTR __Arg$[ebp]

; 80   : 	}

  00006	5d		 pop	 ebp
  00007	c3		 ret	 0
??$forward@ABUKeyMapEffect@ioCrecendoSkill@@@std@@YAABUKeyMapEffect@ioCrecendoSkill@@ABU12@@Z ENDP ; std::forward<ioCrecendoSkill::KeyMapEffect const &>
_TEXT	ENDS
PUBLIC	??$_Ptr_cat@UKeyMapEffect@ioCrecendoSkill@@U12@@std@@YA?AU_Nonscalar_ptr_iterator_tag@0@PAUKeyMapEffect@ioCrecendoSkill@@0@Z ; std::_Ptr_cat<ioCrecendoSkill::KeyMapEffect,ioCrecendoSkill::KeyMapEffect>
; Function compile flags: /Ogsp
; File c:\program files (x86)\microsoft visual studio 10.0\vc\include\xutility
;	COMDAT ??$_Ptr_cat@UKeyMapEffect@ioCrecendoSkill@@U12@@std@@YA?AU_Nonscalar_ptr_iterator_tag@0@PAUKeyMapEffect@ioCrecendoSkill@@0@Z
_TEXT	SEGMENT
__Cat$ = -1						; size = 1
___formal$ = 8						; size = 4
___formal$ = 12						; size = 4
??$_Ptr_cat@UKeyMapEffect@ioCrecendoSkill@@U12@@std@@YA?AU_Nonscalar_ptr_iterator_tag@0@PAUKeyMapEffect@ioCrecendoSkill@@0@Z PROC ; std::_Ptr_cat<ioCrecendoSkill::KeyMapEffect,ioCrecendoSkill::KeyMapEffect>, COMDAT

; 516  : 	{	// return pointer category from pointers

  00000	55		 push	 ebp
  00001	8b ec		 mov	 ebp, esp
  00003	51		 push	 ecx

; 517  : 	typename _Ptr_cat_helper<_Elem1, _Elem2>::_Type _Cat;
; 518  : 	return (_Cat);

  00004	8a 45 ff	 mov	 al, BYTE PTR __Cat$[ebp]

; 519  : 	}

  00007	c9		 leave
  00008	c3		 ret	 0
??$_Ptr_cat@UKeyMapEffect@ioCrecendoSkill@@U12@@std@@YA?AU_Nonscalar_ptr_iterator_tag@0@PAUKeyMapEffect@ioCrecendoSkill@@0@Z ENDP ; std::_Ptr_cat<ioCrecendoSkill::KeyMapEffect,ioCrecendoSkill::KeyMapEffect>
_TEXT	ENDS
PUBLIC	??$_Ptr_cat@UWaveKey@ioCrecendoSkill@@U12@@std@@YA?AU_Nonscalar_ptr_iterator_tag@0@PAUWaveKey@ioCrecendoSkill@@0@Z ; std::_Ptr_cat<ioCrecendoSkill::WaveKey,ioCrecendoSkill::WaveKey>
; Function compile flags: /Ogsp
;	COMDAT ??$_Ptr_cat@UWaveKey@ioCrecendoSkill@@U12@@std@@YA?AU_Nonscalar_ptr_iterator_tag@0@PAUWaveKey@ioCrecendoSkill@@0@Z
_TEXT	SEGMENT
__Cat$ = -1						; size = 1
___formal$ = 8						; size = 4
___formal$ = 12						; size = 4
??$_Ptr_cat@UWaveKey@ioCrecendoSkill@@U12@@std@@YA?AU_Nonscalar_ptr_iterator_tag@0@PAUWaveKey@ioCrecendoSkill@@0@Z PROC ; std::_Ptr_cat<ioCrecendoSkill::WaveKey,ioCrecendoSkill::WaveKey>, COMDAT

; 516  : 	{	// return pointer category from pointers

  00000	55		 push	 ebp
  00001	8b ec		 mov	 ebp, esp
  00003	51		 push	 ecx

; 517  : 	typename _Ptr_cat_helper<_Elem1, _Elem2>::_Type _Cat;
; 518  : 	return (_Cat);

  00004	8a 45 ff	 mov	 al, BYTE PTR __Cat$[ebp]

; 519  : 	}

  00007	c9		 leave
  00008	c3		 ret	 0
??$_Ptr_cat@UWaveKey@ioCrecendoSkill@@U12@@std@@YA?AU_Nonscalar_ptr_iterator_tag@0@PAUWaveKey@ioCrecendoSkill@@0@Z ENDP ; std::_Ptr_cat<ioCrecendoSkill::WaveKey,ioCrecendoSkill::WaveKey>
_TEXT	ENDS
PUBLIC	??$_Construct@UKeyMapEffect@ioCrecendoSkill@@ABU12@@std@@YAXPAUKeyMapEffect@ioCrecendoSkill@@ABU12@@Z ; std::_Construct<ioCrecendoSkill::KeyMapEffect,ioCrecendoSkill::KeyMapEffect const &>
; Function compile flags: /Ogsp
; File c:\program files (x86)\microsoft visual studio 10.0\vc\include\xmemory
;	COMDAT ??$_Construct@UKeyMapEffect@ioCrecendoSkill@@ABU12@@std@@YAXPAUKeyMapEffect@ioCrecendoSkill@@ABU12@@Z
_TEXT	SEGMENT
__Ptr$ = 8						; size = 4
__Val$ = 12						; size = 4
??$_Construct@UKeyMapEffect@ioCrecendoSkill@@ABU12@@std@@YAXPAUKeyMapEffect@ioCrecendoSkill@@ABU12@@Z PROC ; std::_Construct<ioCrecendoSkill::KeyMapEffect,ioCrecendoSkill::KeyMapEffect const &>, COMDAT

; 46   : 	{	// construct object at _Ptr with value _Val

  00000	55		 push	 ebp
  00001	8b ec		 mov	 ebp, esp

; 47   : 	void _FARQ *_Vptr = _Ptr;
; 48   : 	::new (_Vptr) _Ty1(_STD forward<_Ty2>(_Val));

  00003	8b 45 08	 mov	 eax, DWORD PTR __Ptr$[ebp]
  00006	85 c0		 test	 eax, eax
  00008	74 0d		 je	 SHORT $LN3@Construct
  0000a	8b 4d 0c	 mov	 ecx, DWORD PTR __Val$[ebp]
  0000d	8b 11		 mov	 edx, DWORD PTR [ecx]
  0000f	89 10		 mov	 DWORD PTR [eax], edx
  00011	8b 49 04	 mov	 ecx, DWORD PTR [ecx+4]
  00014	89 48 04	 mov	 DWORD PTR [eax+4], ecx
$LN3@Construct:

; 49   : 	}

  00017	5d		 pop	 ebp
  00018	c3		 ret	 0
??$_Construct@UKeyMapEffect@ioCrecendoSkill@@ABU12@@std@@YAXPAUKeyMapEffect@ioCrecendoSkill@@ABU12@@Z ENDP ; std::_Construct<ioCrecendoSkill::KeyMapEffect,ioCrecendoSkill::KeyMapEffect const &>
_TEXT	ENDS
PUBLIC	??Y?$_Vector_const_iterator@V?$_Vector_val@UKeyMapEffect@ioCrecendoSkill@@V?$allocator@UKeyMapEffect@ioCrecendoSkill@@@std@@@std@@@std@@QAEAAV01@H@Z ; std::_Vector_const_iterator<std::_Vector_val<ioCrecendoSkill::KeyMapEffect,std::allocator<ioCrecendoSkill::KeyMapEffect> > >::operator+=
; Function compile flags: /Ogsp
; File c:\program files (x86)\microsoft visual studio 10.0\vc\include\vector
;	COMDAT ??Y?$_Vector_const_iterator@V?$_Vector_val@UKeyMapEffect@ioCrecendoSkill@@V?$allocator@UKeyMapEffect@ioCrecendoSkill@@@std@@@std@@@std@@QAEAAV01@H@Z
_TEXT	SEGMENT
__Off$ = 8						; size = 4
??Y?$_Vector_const_iterator@V?$_Vector_val@UKeyMapEffect@ioCrecendoSkill@@V?$allocator@UKeyMapEffect@ioCrecendoSkill@@@std@@@std@@@std@@QAEAAV01@H@Z PROC ; std::_Vector_const_iterator<std::_Vector_val<ioCrecendoSkill::KeyMapEffect,std::allocator<ioCrecendoSkill::KeyMapEffect> > >::operator+=, COMDAT
; _this$ = ecx

; 151  : 		{	// increment by integer

  00000	55		 push	 ebp
  00001	8b ec		 mov	 ebp, esp
  00003	8b c1		 mov	 eax, ecx

; 152  :  #if _ITERATOR_DEBUG_LEVEL == 2
; 153  : 		if (this->_Getcont() == 0
; 154  : 			|| this->_Ptr + _Off < ((_Myvec *)this->_Getcont())->_Myfirst
; 155  : 			|| ((_Myvec *)this->_Getcont())->_Mylast < this->_Ptr + _Off)
; 156  : 			{	// report error
; 157  : 			_DEBUG_ERROR("vector iterator + offset out of range");
; 158  : 			_SCL_SECURE_OUT_OF_RANGE;
; 159  : 			}
; 160  : 
; 161  :  #elif _ITERATOR_DEBUG_LEVEL == 1
; 162  : 		_SCL_SECURE_VALIDATE(this->_Getcont() != 0);
; 163  : 		_SCL_SECURE_VALIDATE_RANGE(
; 164  : 			((_Myvec *)this->_Getcont())->_Myfirst <= this->_Ptr + _Off
; 165  : 			&& this->_Ptr + _Off <= ((_Myvec *)this->_Getcont())->_Mylast);
; 166  :  #endif /* _ITERATOR_DEBUG_LEVEL */
; 167  : 
; 168  : 		_Ptr += _Off;

  00005	8b 4d 08	 mov	 ecx, DWORD PTR __Off$[ebp]
  00008	c1 e1 03	 shl	 ecx, 3
  0000b	01 08		 add	 DWORD PTR [eax], ecx

; 169  : 		return (*this);
; 170  : 		}

  0000d	5d		 pop	 ebp
  0000e	c2 04 00	 ret	 4
??Y?$_Vector_const_iterator@V?$_Vector_val@UKeyMapEffect@ioCrecendoSkill@@V?$allocator@UKeyMapEffect@ioCrecendoSkill@@@std@@@std@@@std@@QAEAAV01@H@Z ENDP ; std::_Vector_const_iterator<std::_Vector_val<ioCrecendoSkill::KeyMapEffect,std::allocator<ioCrecendoSkill::KeyMapEffect> > >::operator+=
_TEXT	ENDS
PUBLIC	??$_Ptr_cat@V?$_Vector_const_iterator@V?$_Vector_val@UWeaponInfo@@V?$allocator@UWeaponInfo@@@std@@@std@@@std@@PAUWeaponInfo@@@std@@YA?AU_Nonscalar_ptr_iterator_tag@0@AAV?$_Vector_const_iterator@V?$_Vector_val@UWeaponInfo@@V?$allocator@UWeaponInfo@@@std@@@std@@@0@AAPAUWeaponInfo@@@Z ; std::_Ptr_cat<std::_Vector_const_iterator<std::_Vector_val<WeaponInfo,std::allocator<WeaponInfo> > >,WeaponInfo *>
; Function compile flags: /Ogsp
; File c:\program files (x86)\microsoft visual studio 10.0\vc\include\xutility
;	COMDAT ??$_Ptr_cat@V?$_Vector_const_iterator@V?$_Vector_val@UWeaponInfo@@V?$allocator@UWeaponInfo@@@std@@@std@@@std@@PAUWeaponInfo@@@std@@YA?AU_Nonscalar_ptr_iterator_tag@0@AAV?$_Vector_const_iterator@V?$_Vector_val@UWeaponInfo@@V?$allocator@UWeaponInfo@@@std@@@std@@@0@AAPAUWeaponInfo@@@Z
_TEXT	SEGMENT
__Cat$ = -1						; size = 1
___formal$ = 8						; size = 4
___formal$ = 12						; size = 4
??$_Ptr_cat@V?$_Vector_const_iterator@V?$_Vector_val@UWeaponInfo@@V?$allocator@UWeaponInfo@@@std@@@std@@@std@@PAUWeaponInfo@@@std@@YA?AU_Nonscalar_ptr_iterator_tag@0@AAV?$_Vector_const_iterator@V?$_Vector_val@UWeaponInfo@@V?$allocator@UWeaponInfo@@@std@@@std@@@0@AAPAUWeaponInfo@@@Z PROC ; std::_Ptr_cat<std::_Vector_const_iterator<std::_Vector_val<WeaponInfo,std::allocator<WeaponInfo> > >,WeaponInfo *>, COMDAT

; 485  : 	{	// return pointer category from arbitrary arguments

  00000	55		 push	 ebp
  00001	8b ec		 mov	 ebp, esp
  00003	51		 push	 ecx

; 486  : 	_Nonscalar_ptr_iterator_tag _Cat;
; 487  : 	return (_Cat);

  00004	8a 45 ff	 mov	 al, BYTE PTR __Cat$[ebp]

; 488  : 	}

  00007	c9		 leave
  00008	c3		 ret	 0
??$_Ptr_cat@V?$_Vector_const_iterator@V?$_Vector_val@UWeaponInfo@@V?$allocator@UWeaponInfo@@@std@@@std@@@std@@PAUWeaponInfo@@@std@@YA?AU_Nonscalar_ptr_iterator_tag@0@AAV?$_Vector_const_iterator@V?$_Vector_val@UWeaponInfo@@V?$allocator@UWeaponInfo@@@std@@@std@@@0@AAPAUWeaponInfo@@@Z ENDP ; std::_Ptr_cat<std::_Vector_const_iterator<std::_Vector_val<WeaponInfo,std::allocator<WeaponInfo> > >,WeaponInfo *>
_TEXT	ENDS
PUBLIC	??$_Ptr_cat@V?$_Vector_const_iterator@V?$_Vector_val@UForceInfo@@V?$allocator@UForceInfo@@@std@@@std@@@std@@PAUForceInfo@@@std@@YA?AU_Nonscalar_ptr_iterator_tag@0@AAV?$_Vector_const_iterator@V?$_Vector_val@UForceInfo@@V?$allocator@UForceInfo@@@std@@@std@@@0@AAPAUForceInfo@@@Z ; std::_Ptr_cat<std::_Vector_const_iterator<std::_Vector_val<ForceInfo,std::allocator<ForceInfo> > >,ForceInfo *>
; Function compile flags: /Ogsp
;	COMDAT ??$_Ptr_cat@V?$_Vector_const_iterator@V?$_Vector_val@UForceInfo@@V?$allocator@UForceInfo@@@std@@@std@@@std@@PAUForceInfo@@@std@@YA?AU_Nonscalar_ptr_iterator_tag@0@AAV?$_Vector_const_iterator@V?$_Vector_val@UForceInfo@@V?$allocator@UForceInfo@@@std@@@std@@@0@AAPAUForceInfo@@@Z
_TEXT	SEGMENT
__Cat$ = -1						; size = 1
___formal$ = 8						; size = 4
___formal$ = 12						; size = 4
??$_Ptr_cat@V?$_Vector_const_iterator@V?$_Vector_val@UForceInfo@@V?$allocator@UForceInfo@@@std@@@std@@@std@@PAUForceInfo@@@std@@YA?AU_Nonscalar_ptr_iterator_tag@0@AAV?$_Vector_const_iterator@V?$_Vector_val@UForceInfo@@V?$allocator@UForceInfo@@@std@@@std@@@0@AAPAUForceInfo@@@Z PROC ; std::_Ptr_cat<std::_Vector_const_iterator<std::_Vector_val<ForceInfo,std::allocator<ForceInfo> > >,ForceInfo *>, COMDAT

; 485  : 	{	// return pointer category from arbitrary arguments

  00000	55		 push	 ebp
  00001	8b ec		 mov	 ebp, esp
  00003	51		 push	 ecx

; 486  : 	_Nonscalar_ptr_iterator_tag _Cat;
; 487  : 	return (_Cat);

  00004	8a 45 ff	 mov	 al, BYTE PTR __Cat$[ebp]

; 488  : 	}

  00007	c9		 leave
  00008	c3		 ret	 0
??$_Ptr_cat@V?$_Vector_const_iterator@V?$_Vector_val@UForceInfo@@V?$allocator@UForceInfo@@@std@@@std@@@std@@PAUForceInfo@@@std@@YA?AU_Nonscalar_ptr_iterator_tag@0@AAV?$_Vector_const_iterator@V?$_Vector_val@UForceInfo@@V?$allocator@UForceInfo@@@std@@@std@@@0@AAPAUForceInfo@@@Z ENDP ; std::_Ptr_cat<std::_Vector_const_iterator<std::_Vector_val<ForceInfo,std::allocator<ForceInfo> > >,ForceInfo *>
_TEXT	ENDS
PUBLIC	??$_Ptr_cat@V?$_Vector_const_iterator@V?$_Vector_val@UWaveKey@ioCrecendoSkill@@V?$allocator@UWaveKey@ioCrecendoSkill@@@std@@@std@@@std@@PAUWaveKey@ioCrecendoSkill@@@std@@YA?AU_Nonscalar_ptr_iterator_tag@0@AAV?$_Vector_const_iterator@V?$_Vector_val@UWaveKey@ioCrecendoSkill@@V?$allocator@UWaveKey@ioCrecendoSkill@@@std@@@std@@@0@AAPAUWaveKey@ioCrecendoSkill@@@Z ; std::_Ptr_cat<std::_Vector_const_iterator<std::_Vector_val<ioCrecendoSkill::WaveKey,std::allocator<ioCrecendoSkill::WaveKey> > >,ioCrecendoSkill::WaveKey *>
; Function compile flags: /Ogsp
;	COMDAT ??$_Ptr_cat@V?$_Vector_const_iterator@V?$_Vector_val@UWaveKey@ioCrecendoSkill@@V?$allocator@UWaveKey@ioCrecendoSkill@@@std@@@std@@@std@@PAUWaveKey@ioCrecendoSkill@@@std@@YA?AU_Nonscalar_ptr_iterator_tag@0@AAV?$_Vector_const_iterator@V?$_Vector_val@UWaveKey@ioCrecendoSkill@@V?$allocator@UWaveKey@ioCrecendoSkill@@@std@@@std@@@0@AAPAUWaveKey@ioCrecendoSkill@@@Z
_TEXT	SEGMENT
__Cat$ = -1						; size = 1
___formal$ = 8						; size = 4
___formal$ = 12						; size = 4
??$_Ptr_cat@V?$_Vector_const_iterator@V?$_Vector_val@UWaveKey@ioCrecendoSkill@@V?$allocator@UWaveKey@ioCrecendoSkill@@@std@@@std@@@std@@PAUWaveKey@ioCrecendoSkill@@@std@@YA?AU_Nonscalar_ptr_iterator_tag@0@AAV?$_Vector_const_iterator@V?$_Vector_val@UWaveKey@ioCrecendoSkill@@V?$allocator@UWaveKey@ioCrecendoSkill@@@std@@@std@@@0@AAPAUWaveKey@ioCrecendoSkill@@@Z PROC ; std::_Ptr_cat<std::_Vector_const_iterator<std::_Vector_val<ioCrecendoSkill::WaveKey,std::allocator<ioCrecendoSkill::WaveKey> > >,ioCrecendoSkill::WaveKey *>, COMDAT

; 485  : 	{	// return pointer category from arbitrary arguments

  00000	55		 push	 ebp
  00001	8b ec		 mov	 ebp, esp
  00003	51		 push	 ecx

; 486  : 	_Nonscalar_ptr_iterator_tag _Cat;
; 487  : 	return (_Cat);

  00004	8a 45 ff	 mov	 al, BYTE PTR __Cat$[ebp]

; 488  : 	}

  00007	c9		 leave
  00008	c3		 ret	 0
??$_Ptr_cat@V?$_Vector_const_iterator@V?$_Vector_val@UWaveKey@ioCrecendoSkill@@V?$allocator@UWaveKey@ioCrecendoSkill@@@std@@@std@@@std@@PAUWaveKey@ioCrecendoSkill@@@std@@YA?AU_Nonscalar_ptr_iterator_tag@0@AAV?$_Vector_const_iterator@V?$_Vector_val@UWaveKey@ioCrecendoSkill@@V?$allocator@UWaveKey@ioCrecendoSkill@@@std@@@std@@@0@AAPAUWaveKey@ioCrecendoSkill@@@Z ENDP ; std::_Ptr_cat<std::_Vector_const_iterator<std::_Vector_val<ioCrecendoSkill::WaveKey,std::allocator<ioCrecendoSkill::WaveKey> > >,ioCrecendoSkill::WaveKey *>
_TEXT	ENDS
PUBLIC	??$_Val_type@PAUWaveKey@ioCrecendoSkill@@@std@@YAPAUWaveKey@ioCrecendoSkill@@PAU12@@Z ; std::_Val_type<ioCrecendoSkill::WaveKey *>
; Function compile flags: /Ogsp
;	COMDAT ??$_Val_type@PAUWaveKey@ioCrecendoSkill@@@std@@YAPAUWaveKey@ioCrecendoSkill@@PAU12@@Z
_TEXT	SEGMENT
___formal$ = 8						; size = 4
??$_Val_type@PAUWaveKey@ioCrecendoSkill@@@std@@YAPAUWaveKey@ioCrecendoSkill@@PAU12@@Z PROC ; std::_Val_type<ioCrecendoSkill::WaveKey *>, COMDAT

; 790  : 	return (0);

  00000	33 c0		 xor	 eax, eax

; 791  : 	}

  00002	c3		 ret	 0
??$_Val_type@PAUWaveKey@ioCrecendoSkill@@@std@@YAPAUWaveKey@ioCrecendoSkill@@PAU12@@Z ENDP ; std::_Val_type<ioCrecendoSkill::WaveKey *>
_TEXT	ENDS
PUBLIC	??$move@AAUKeyMapEffect@ioCrecendoSkill@@@std@@YA$$QAUKeyMapEffect@ioCrecendoSkill@@AAU12@@Z ; std::move<ioCrecendoSkill::KeyMapEffect &>
; Function compile flags: /Ogsp
; File c:\program files (x86)\microsoft visual studio 10.0\vc\include\utility
;	COMDAT ??$move@AAUKeyMapEffect@ioCrecendoSkill@@@std@@YA$$QAUKeyMapEffect@ioCrecendoSkill@@AAU12@@Z
_TEXT	SEGMENT
__Arg$ = 8						; size = 4
??$move@AAUKeyMapEffect@ioCrecendoSkill@@@std@@YA$$QAUKeyMapEffect@ioCrecendoSkill@@AAU12@@Z PROC ; std::move<ioCrecendoSkill::KeyMapEffect &>, COMDAT

; 86   : 	{	// forward _Arg as movable

  00000	55		 push	 ebp
  00001	8b ec		 mov	 ebp, esp

; 87   : 	return ((typename tr1::_Remove_reference<_Ty>::_Type&&)_Arg);

  00003	8b 45 08	 mov	 eax, DWORD PTR __Arg$[ebp]

; 88   : 	}

  00006	5d		 pop	 ebp
  00007	c3		 ret	 0
??$move@AAUKeyMapEffect@ioCrecendoSkill@@@std@@YA$$QAUKeyMapEffect@ioCrecendoSkill@@AAU12@@Z ENDP ; std::move<ioCrecendoSkill::KeyMapEffect &>
_TEXT	ENDS
PUBLIC	??$_Val_type@PAUKeyMapEffect@ioCrecendoSkill@@@std@@YAPAUKeyMapEffect@ioCrecendoSkill@@PAU12@@Z ; std::_Val_type<ioCrecendoSkill::KeyMapEffect *>
; Function compile flags: /Ogsp
; File c:\program files (x86)\microsoft visual studio 10.0\vc\include\xutility
;	COMDAT ??$_Val_type@PAUKeyMapEffect@ioCrecendoSkill@@@std@@YAPAUKeyMapEffect@ioCrecendoSkill@@PAU12@@Z
_TEXT	SEGMENT
___formal$ = 8						; size = 4
??$_Val_type@PAUKeyMapEffect@ioCrecendoSkill@@@std@@YAPAUKeyMapEffect@ioCrecendoSkill@@PAU12@@Z PROC ; std::_Val_type<ioCrecendoSkill::KeyMapEffect *>, COMDAT

; 790  : 	return (0);

  00000	33 c0		 xor	 eax, eax

; 791  : 	}

  00002	c3		 ret	 0
??$_Val_type@PAUKeyMapEffect@ioCrecendoSkill@@@std@@YAPAUKeyMapEffect@ioCrecendoSkill@@PAU12@@Z ENDP ; std::_Val_type<ioCrecendoSkill::KeyMapEffect *>
_TEXT	ENDS
PUBLIC	??D?$_Vector_const_iterator@V?$_Vector_val@UForceInfo@@V?$allocator@UForceInfo@@@std@@@std@@@std@@QBEABUForceInfo@@XZ ; std::_Vector_const_iterator<std::_Vector_val<ForceInfo,std::allocator<ForceInfo> > >::operator*
; Function compile flags: /Ogsp
; File c:\program files (x86)\microsoft visual studio 10.0\vc\include\vector
;	COMDAT ??D?$_Vector_const_iterator@V?$_Vector_val@UForceInfo@@V?$allocator@UForceInfo@@@std@@@std@@@std@@QBEABUForceInfo@@XZ
_TEXT	SEGMENT
??D?$_Vector_const_iterator@V?$_Vector_val@UForceInfo@@V?$allocator@UForceInfo@@@std@@@std@@@std@@QBEABUForceInfo@@XZ PROC ; std::_Vector_const_iterator<std::_Vector_val<ForceInfo,std::allocator<ForceInfo> > >::operator*, COMDAT
; _this$ = ecx

; 64   :  #if _ITERATOR_DEBUG_LEVEL == 2
; 65   : 		if (this->_Getcont() == 0
; 66   : 			|| this->_Ptr == 0
; 67   : 			|| this->_Ptr < ((_Myvec *)this->_Getcont())->_Myfirst
; 68   : 			|| ((_Myvec *)this->_Getcont())->_Mylast <= this->_Ptr)
; 69   : 			{	// report error
; 70   : 			_DEBUG_ERROR("vector iterator not dereferencable");
; 71   : 			_SCL_SECURE_OUT_OF_RANGE;
; 72   : 			}
; 73   : 
; 74   :  #elif _ITERATOR_DEBUG_LEVEL == 1
; 75   : 		_SCL_SECURE_VALIDATE(this->_Getcont() != 0);
; 76   : 		_SCL_SECURE_VALIDATE_RANGE(
; 77   : 			this->_Ptr != 0
; 78   : 			&& ((_Myvec *)this->_Getcont())->_Myfirst <= this->_Ptr
; 79   : 			&& this->_Ptr < ((_Myvec *)this->_Getcont())->_Mylast);
; 80   :  #endif /* _ITERATOR_DEBUG_LEVEL */
; 81   : 
; 82   : 		__analysis_assume(this->_Ptr != 0);
; 83   : 
; 84   : 		return (*this->_Ptr);

  00000	8b 01		 mov	 eax, DWORD PTR [ecx]

; 85   : 		}

  00002	c3		 ret	 0
??D?$_Vector_const_iterator@V?$_Vector_val@UForceInfo@@V?$allocator@UForceInfo@@@std@@@std@@@std@@QBEABUForceInfo@@XZ ENDP ; std::_Vector_const_iterator<std::_Vector_val<ForceInfo,std::allocator<ForceInfo> > >::operator*
_TEXT	ENDS
PUBLIC	??E?$_Vector_const_iterator@V?$_Vector_val@UForceInfo@@V?$allocator@UForceInfo@@@std@@@std@@@std@@QAEAAV01@XZ ; std::_Vector_const_iterator<std::_Vector_val<ForceInfo,std::allocator<ForceInfo> > >::operator++
; Function compile flags: /Ogsp
;	COMDAT ??E?$_Vector_const_iterator@V?$_Vector_val@UForceInfo@@V?$allocator@UForceInfo@@@std@@@std@@@std@@QAEAAV01@XZ
_TEXT	SEGMENT
??E?$_Vector_const_iterator@V?$_Vector_val@UForceInfo@@V?$allocator@UForceInfo@@@std@@@std@@@std@@QAEAAV01@XZ PROC ; std::_Vector_const_iterator<std::_Vector_val<ForceInfo,std::allocator<ForceInfo> > >::operator++, COMDAT
; _this$ = ecx

; 93   : 		{	// preincrement

  00000	8b c1		 mov	 eax, ecx

; 94   :  #if _ITERATOR_DEBUG_LEVEL == 2
; 95   : 		if (this->_Getcont() == 0
; 96   : 			|| this->_Ptr == 0
; 97   : 			|| ((_Myvec *)this->_Getcont())->_Mylast <= this->_Ptr)
; 98   : 			{	// report error
; 99   : 			_DEBUG_ERROR("vector iterator not incrementable");
; 100  : 			_SCL_SECURE_OUT_OF_RANGE;
; 101  : 			}
; 102  : 
; 103  :  #elif _ITERATOR_DEBUG_LEVEL == 1
; 104  : 		_SCL_SECURE_VALIDATE(this->_Getcont() != 0);
; 105  : 		_SCL_SECURE_VALIDATE_RANGE(
; 106  : 			this->_Ptr != 0
; 107  : 			&& this->_Ptr < ((_Myvec *)this->_Getcont())->_Mylast);
; 108  :  #endif /* _ITERATOR_DEBUG_LEVEL */
; 109  : 
; 110  : 		++this->_Ptr;

  00002	83 00 0c	 add	 DWORD PTR [eax], 12	; 0000000cH

; 111  : 		return (*this);
; 112  : 		}

  00005	c3		 ret	 0
??E?$_Vector_const_iterator@V?$_Vector_val@UForceInfo@@V?$allocator@UForceInfo@@@std@@@std@@@std@@QAEAAV01@XZ ENDP ; std::_Vector_const_iterator<std::_Vector_val<ForceInfo,std::allocator<ForceInfo> > >::operator++
_TEXT	ENDS
PUBLIC	??$_Iter_cat@V?$_Vector_iterator@V?$_Vector_val@UKeyMapEffect@ioCrecendoSkill@@V?$allocator@UKeyMapEffect@ioCrecendoSkill@@@std@@@std@@@std@@@std@@YA?AUrandom_access_iterator_tag@0@ABV?$_Vector_iterator@V?$_Vector_val@UKeyMapEffect@ioCrecendoSkill@@V?$allocator@UKeyMapEffect@ioCrecendoSkill@@@std@@@std@@@0@@Z ; std::_Iter_cat<std::_Vector_iterator<std::_Vector_val<ioCrecendoSkill::KeyMapEffect,std::allocator<ioCrecendoSkill::KeyMapEffect> > > >
; Function compile flags: /Ogsp
; File c:\program files (x86)\microsoft visual studio 10.0\vc\include\xutility
;	COMDAT ??$_Iter_cat@V?$_Vector_iterator@V?$_Vector_val@UKeyMapEffect@ioCrecendoSkill@@V?$allocator@UKeyMapEffect@ioCrecendoSkill@@@std@@@std@@@std@@@std@@YA?AUrandom_access_iterator_tag@0@ABV?$_Vector_iterator@V?$_Vector_val@UKeyMapEffect@ioCrecendoSkill@@V?$allocator@UKeyMapEffect@ioCrecendoSkill@@@std@@@std@@@0@@Z
_TEXT	SEGMENT
___$ReturnUdt$ = 8					; size = 4
___formal$ = 12						; size = 4
??$_Iter_cat@V?$_Vector_iterator@V?$_Vector_val@UKeyMapEffect@ioCrecendoSkill@@V?$allocator@UKeyMapEffect@ioCrecendoSkill@@@std@@@std@@@std@@@std@@YA?AUrandom_access_iterator_tag@0@ABV?$_Vector_iterator@V?$_Vector_val@UKeyMapEffect@ioCrecendoSkill@@V?$allocator@UKeyMapEffect@ioCrecendoSkill@@@std@@@std@@@0@@Z PROC ; std::_Iter_cat<std::_Vector_iterator<std::_Vector_val<ioCrecendoSkill::KeyMapEffect,std::allocator<ioCrecendoSkill::KeyMapEffect> > > >, COMDAT

; 476  : 	{	// return category from iterator argument

  00000	55		 push	 ebp
  00001	8b ec		 mov	 ebp, esp

; 477  : 	typename iterator_traits<_Iter>::iterator_category _Cat;
; 478  : 	return (_Cat);

  00003	8b 45 08	 mov	 eax, DWORD PTR ___$ReturnUdt$[ebp]

; 479  : 	}

  00006	5d		 pop	 ebp
  00007	c3		 ret	 0
??$_Iter_cat@V?$_Vector_iterator@V?$_Vector_val@UKeyMapEffect@ioCrecendoSkill@@V?$allocator@UKeyMapEffect@ioCrecendoSkill@@@std@@@std@@@std@@@std@@YA?AUrandom_access_iterator_tag@0@ABV?$_Vector_iterator@V?$_Vector_val@UKeyMapEffect@ioCrecendoSkill@@V?$allocator@UKeyMapEffect@ioCrecendoSkill@@@std@@@std@@@0@@Z ENDP ; std::_Iter_cat<std::_Vector_iterator<std::_Vector_val<ioCrecendoSkill::KeyMapEffect,std::allocator<ioCrecendoSkill::KeyMapEffect> > > >
_TEXT	ENDS
PUBLIC	??$_Destroy@UKeyMapEffect@ioCrecendoSkill@@@std@@YAXPAUKeyMapEffect@ioCrecendoSkill@@@Z ; std::_Destroy<ioCrecendoSkill::KeyMapEffect>
; Function compile flags: /Ogsp
; File c:\program files (x86)\microsoft visual studio 10.0\vc\include\xmemory
;	COMDAT ??$_Destroy@UKeyMapEffect@ioCrecendoSkill@@@std@@YAXPAUKeyMapEffect@ioCrecendoSkill@@@Z
_TEXT	SEGMENT
__Ptr$ = 8						; size = 4
??$_Destroy@UKeyMapEffect@ioCrecendoSkill@@@std@@YAXPAUKeyMapEffect@ioCrecendoSkill@@@Z PROC ; std::_Destroy<ioCrecendoSkill::KeyMapEffect>, COMDAT

; 63   : 	_Ptr->~_Ty();
; 64   : 	}

  00000	c3		 ret	 0
??$_Destroy@UKeyMapEffect@ioCrecendoSkill@@@std@@YAXPAUKeyMapEffect@ioCrecendoSkill@@@Z ENDP ; std::_Destroy<ioCrecendoSkill::KeyMapEffect>
_TEXT	ENDS
PUBLIC	?_Unchecked@?$_Vector_iterator@V?$_Vector_val@UKeyMapEffect@ioCrecendoSkill@@V?$allocator@UKeyMapEffect@ioCrecendoSkill@@@std@@@std@@@std@@QBEPAUKeyMapEffect@ioCrecendoSkill@@XZ ; std::_Vector_iterator<std::_Vector_val<ioCrecendoSkill::KeyMapEffect,std::allocator<ioCrecendoSkill::KeyMapEffect> > >::_Unchecked
; Function compile flags: /Ogsp
; File c:\program files (x86)\microsoft visual studio 10.0\vc\include\vector
;	COMDAT ?_Unchecked@?$_Vector_iterator@V?$_Vector_val@UKeyMapEffect@ioCrecendoSkill@@V?$allocator@UKeyMapEffect@ioCrecendoSkill@@@std@@@std@@@std@@QBEPAUKeyMapEffect@ioCrecendoSkill@@XZ
_TEXT	SEGMENT
?_Unchecked@?$_Vector_iterator@V?$_Vector_val@UKeyMapEffect@ioCrecendoSkill@@V?$allocator@UKeyMapEffect@ioCrecendoSkill@@@std@@@std@@@std@@QBEPAUKeyMapEffect@ioCrecendoSkill@@XZ PROC ; std::_Vector_iterator<std::_Vector_val<ioCrecendoSkill::KeyMapEffect,std::allocator<ioCrecendoSkill::KeyMapEffect> > >::_Unchecked, COMDAT
; _this$ = ecx

; 317  : 		return (_Unchecked_type(this->_Ptr));

  00000	8b 01		 mov	 eax, DWORD PTR [ecx]

; 318  : 		}

  00002	c3		 ret	 0
?_Unchecked@?$_Vector_iterator@V?$_Vector_val@UKeyMapEffect@ioCrecendoSkill@@V?$allocator@UKeyMapEffect@ioCrecendoSkill@@@std@@@std@@@std@@QBEPAUKeyMapEffect@ioCrecendoSkill@@XZ ENDP ; std::_Vector_iterator<std::_Vector_val<ioCrecendoSkill::KeyMapEffect,std::allocator<ioCrecendoSkill::KeyMapEffect> > >::_Unchecked
_TEXT	ENDS
PUBLIC	??$_Dist_type@PAUKeyMapEffect@ioCrecendoSkill@@@std@@YAPAHPAUKeyMapEffect@ioCrecendoSkill@@@Z ; std::_Dist_type<ioCrecendoSkill::KeyMapEffect *>
; Function compile flags: /Ogsp
; File c:\program files (x86)\microsoft visual studio 10.0\vc\include\xutility
;	COMDAT ??$_Dist_type@PAUKeyMapEffect@ioCrecendoSkill@@@std@@YAPAHPAUKeyMapEffect@ioCrecendoSkill@@@Z
_TEXT	SEGMENT
___formal$ = 8						; size = 4
??$_Dist_type@PAUKeyMapEffect@ioCrecendoSkill@@@std@@YAPAHPAUKeyMapEffect@ioCrecendoSkill@@@Z PROC ; std::_Dist_type<ioCrecendoSkill::KeyMapEffect *>, COMDAT

; 850  : 	return (0);

  00000	33 c0		 xor	 eax, eax

; 851  : 	}

  00002	c3		 ret	 0
??$_Dist_type@PAUKeyMapEffect@ioCrecendoSkill@@@std@@YAPAHPAUKeyMapEffect@ioCrecendoSkill@@@Z ENDP ; std::_Dist_type<ioCrecendoSkill::KeyMapEffect *>
_TEXT	ENDS
PUBLIC	??$forward@ABUWeaponInfo@@@std@@YAABUWeaponInfo@@ABU1@@Z ; std::forward<WeaponInfo const &>
; Function compile flags: /Ogsp
; File c:\program files (x86)\microsoft visual studio 10.0\vc\include\utility
;	COMDAT ??$forward@ABUWeaponInfo@@@std@@YAABUWeaponInfo@@ABU1@@Z
_TEXT	SEGMENT
__Arg$ = 8						; size = 4
??$forward@ABUWeaponInfo@@@std@@YAABUWeaponInfo@@ABU1@@Z PROC ; std::forward<WeaponInfo const &>, COMDAT

; 78   : 	{	// forward _Arg, given explicitly specified type parameter

  00000	55		 push	 ebp
  00001	8b ec		 mov	 ebp, esp

; 79   : 	return ((_Ty&&)_Arg);

  00003	8b 45 08	 mov	 eax, DWORD PTR __Arg$[ebp]

; 80   : 	}

  00006	5d		 pop	 ebp
  00007	c3		 ret	 0
??$forward@ABUWeaponInfo@@@std@@YAABUWeaponInfo@@ABU1@@Z ENDP ; std::forward<WeaponInfo const &>
_TEXT	ENDS
PUBLIC	??$forward@ABUForceInfo@@@std@@YAABUForceInfo@@ABU1@@Z ; std::forward<ForceInfo const &>
; Function compile flags: /Ogsp
;	COMDAT ??$forward@ABUForceInfo@@@std@@YAABUForceInfo@@ABU1@@Z
_TEXT	SEGMENT
__Arg$ = 8						; size = 4
??$forward@ABUForceInfo@@@std@@YAABUForceInfo@@ABU1@@Z PROC ; std::forward<ForceInfo const &>, COMDAT

; 78   : 	{	// forward _Arg, given explicitly specified type parameter

  00000	55		 push	 ebp
  00001	8b ec		 mov	 ebp, esp

; 79   : 	return ((_Ty&&)_Arg);

  00003	8b 45 08	 mov	 eax, DWORD PTR __Arg$[ebp]

; 80   : 	}

  00006	5d		 pop	 ebp
  00007	c3		 ret	 0
??$forward@ABUForceInfo@@@std@@YAABUForceInfo@@ABU1@@Z ENDP ; std::forward<ForceInfo const &>
_TEXT	ENDS
PUBLIC	??$forward@UWaveKey@ioCrecendoSkill@@@std@@YA$$QAUWaveKey@ioCrecendoSkill@@AAU12@@Z ; std::forward<ioCrecendoSkill::WaveKey>
; Function compile flags: /Ogsp
;	COMDAT ??$forward@UWaveKey@ioCrecendoSkill@@@std@@YA$$QAUWaveKey@ioCrecendoSkill@@AAU12@@Z
_TEXT	SEGMENT
__Arg$ = 8						; size = 4
??$forward@UWaveKey@ioCrecendoSkill@@@std@@YA$$QAUWaveKey@ioCrecendoSkill@@AAU12@@Z PROC ; std::forward<ioCrecendoSkill::WaveKey>, COMDAT

; 78   : 	{	// forward _Arg, given explicitly specified type parameter

  00000	55		 push	 ebp
  00001	8b ec		 mov	 ebp, esp

; 79   : 	return ((_Ty&&)_Arg);

  00003	8b 45 08	 mov	 eax, DWORD PTR __Arg$[ebp]

; 80   : 	}

  00006	5d		 pop	 ebp
  00007	c3		 ret	 0
??$forward@UWaveKey@ioCrecendoSkill@@@std@@YA$$QAUWaveKey@ioCrecendoSkill@@AAU12@@Z ENDP ; std::forward<ioCrecendoSkill::WaveKey>
_TEXT	ENDS
PUBLIC	??$forward@UKeyMapEffect@ioCrecendoSkill@@@std@@YA$$QAUKeyMapEffect@ioCrecendoSkill@@AAU12@@Z ; std::forward<ioCrecendoSkill::KeyMapEffect>
; Function compile flags: /Ogsp
;	COMDAT ??$forward@UKeyMapEffect@ioCrecendoSkill@@@std@@YA$$QAUKeyMapEffect@ioCrecendoSkill@@AAU12@@Z
_TEXT	SEGMENT
__Arg$ = 8						; size = 4
??$forward@UKeyMapEffect@ioCrecendoSkill@@@std@@YA$$QAUKeyMapEffect@ioCrecendoSkill@@AAU12@@Z PROC ; std::forward<ioCrecendoSkill::KeyMapEffect>, COMDAT

; 78   : 	{	// forward _Arg, given explicitly specified type parameter

  00000	55		 push	 ebp
  00001	8b ec		 mov	 ebp, esp

; 79   : 	return ((_Ty&&)_Arg);

  00003	8b 45 08	 mov	 eax, DWORD PTR __Arg$[ebp]

; 80   : 	}

  00006	5d		 pop	 ebp
  00007	c3		 ret	 0
??$forward@UKeyMapEffect@ioCrecendoSkill@@@std@@YA$$QAUKeyMapEffect@ioCrecendoSkill@@AAU12@@Z ENDP ; std::forward<ioCrecendoSkill::KeyMapEffect>
_TEXT	ENDS
PUBLIC	??$_Construct@UForceInfo@@ABU1@@std@@YAXPAUForceInfo@@ABU1@@Z ; std::_Construct<ForceInfo,ForceInfo const &>
; Function compile flags: /Ogsp
; File c:\program files (x86)\microsoft visual studio 10.0\vc\include\xmemory
;	COMDAT ??$_Construct@UForceInfo@@ABU1@@std@@YAXPAUForceInfo@@ABU1@@Z
_TEXT	SEGMENT
__Ptr$ = 8						; size = 4
__Val$ = 12						; size = 4
??$_Construct@UForceInfo@@ABU1@@std@@YAXPAUForceInfo@@ABU1@@Z PROC ; std::_Construct<ForceInfo,ForceInfo const &>, COMDAT

; 46   : 	{	// construct object at _Ptr with value _Val

  00000	55		 push	 ebp
  00001	8b ec		 mov	 ebp, esp
  00003	57		 push	 edi

; 47   : 	void _FARQ *_Vptr = _Ptr;
; 48   : 	::new (_Vptr) _Ty1(_STD forward<_Ty2>(_Val));

  00004	8b 7d 08	 mov	 edi, DWORD PTR __Ptr$[ebp]
  00007	85 ff		 test	 edi, edi
  00009	74 08		 je	 SHORT $LN3@Construct@2
  0000b	56		 push	 esi
  0000c	8b 75 0c	 mov	 esi, DWORD PTR __Val$[ebp]
  0000f	a5		 movsd
  00010	a5		 movsd
  00011	a5		 movsd
  00012	5e		 pop	 esi
$LN3@Construct@2:
  00013	5f		 pop	 edi

; 49   : 	}

  00014	5d		 pop	 ebp
  00015	c3		 ret	 0
??$_Construct@UForceInfo@@ABU1@@std@@YAXPAUForceInfo@@ABU1@@Z ENDP ; std::_Construct<ForceInfo,ForceInfo const &>
_TEXT	ENDS
PUBLIC	??G?$_Vector_const_iterator@V?$_Vector_val@UKeyMapEffect@ioCrecendoSkill@@V?$allocator@UKeyMapEffect@ioCrecendoSkill@@@std@@@std@@@std@@QBEHABV01@@Z ; std::_Vector_const_iterator<std::_Vector_val<ioCrecendoSkill::KeyMapEffect,std::allocator<ioCrecendoSkill::KeyMapEffect> > >::operator-
; Function compile flags: /Ogsp
; File c:\program files (x86)\microsoft visual studio 10.0\vc\include\vector
;	COMDAT ??G?$_Vector_const_iterator@V?$_Vector_val@UKeyMapEffect@ioCrecendoSkill@@V?$allocator@UKeyMapEffect@ioCrecendoSkill@@@std@@@std@@@std@@QBEHABV01@@Z
_TEXT	SEGMENT
__Right$ = 8						; size = 4
??G?$_Vector_const_iterator@V?$_Vector_val@UKeyMapEffect@ioCrecendoSkill@@V?$allocator@UKeyMapEffect@ioCrecendoSkill@@@std@@@std@@@std@@QBEHABV01@@Z PROC ; std::_Vector_const_iterator<std::_Vector_val<ioCrecendoSkill::KeyMapEffect,std::allocator<ioCrecendoSkill::KeyMapEffect> > >::operator-, COMDAT
; _this$ = ecx

; 190  : 		{	// return difference of iterators

  00000	55		 push	 ebp
  00001	8b ec		 mov	 ebp, esp

; 191  : 		_Compat(_Right);
; 192  : 		return (this->_Ptr - _Right._Ptr);

  00003	8b 01		 mov	 eax, DWORD PTR [ecx]
  00005	8b 4d 08	 mov	 ecx, DWORD PTR __Right$[ebp]
  00008	2b 01		 sub	 eax, DWORD PTR [ecx]
  0000a	c1 f8 03	 sar	 eax, 3

; 193  : 		}

  0000d	5d		 pop	 ebp
  0000e	c2 04 00	 ret	 4
??G?$_Vector_const_iterator@V?$_Vector_val@UKeyMapEffect@ioCrecendoSkill@@V?$allocator@UKeyMapEffect@ioCrecendoSkill@@@std@@@std@@@std@@QBEHABV01@@Z ENDP ; std::_Vector_const_iterator<std::_Vector_val<ioCrecendoSkill::KeyMapEffect,std::allocator<ioCrecendoSkill::KeyMapEffect> > >::operator-
_TEXT	ENDS
PUBLIC	??$_Move@AAUKeyMapEffect@ioCrecendoSkill@@@std@@YA$$QAUKeyMapEffect@ioCrecendoSkill@@AAU12@@Z ; std::_Move<ioCrecendoSkill::KeyMapEffect &>
; Function compile flags: /Ogsp
; File c:\program files (x86)\microsoft visual studio 10.0\vc\include\utility
;	COMDAT ??$_Move@AAUKeyMapEffect@ioCrecendoSkill@@@std@@YA$$QAUKeyMapEffect@ioCrecendoSkill@@AAU12@@Z
_TEXT	SEGMENT
__Arg$ = 8						; size = 4
??$_Move@AAUKeyMapEffect@ioCrecendoSkill@@@std@@YA$$QAUKeyMapEffect@ioCrecendoSkill@@AAU12@@Z PROC ; std::_Move<ioCrecendoSkill::KeyMapEffect &>, COMDAT

; 94   : 	{	// forward _Arg as movable

  00000	55		 push	 ebp
  00001	8b ec		 mov	 ebp, esp

; 95   : 	return ((typename tr1::_Remove_reference<_Ty>::_Type&&)_Arg);

  00003	8b 45 08	 mov	 eax, DWORD PTR __Arg$[ebp]

; 96   : 	}

  00006	5d		 pop	 ebp
  00007	c3		 ret	 0
??$_Move@AAUKeyMapEffect@ioCrecendoSkill@@@std@@YA$$QAUKeyMapEffect@ioCrecendoSkill@@AAU12@@Z ENDP ; std::_Move<ioCrecendoSkill::KeyMapEffect &>
_TEXT	ENDS
PUBLIC	?_DECSTR@@YAXPADH@Z				; _DECSTR
; Function compile flags: /Ogsp
; File d:\lost saga for developer\youtube\tutorial\source\src\lsclient\stringprotect.h
;	COMDAT ?_DECSTR@@YAXPADH@Z
_TEXT	SEGMENT
_s$ = 8							; size = 4
_l$ = 12						; size = 4
?_DECSTR@@YAXPADH@Z PROC				; _DECSTR, COMDAT

; 40   : __forceinline void _DECSTR(char* s, int l){int i=0,l4=(l-1)/4,*p=(int*)s;s[l-1]=0;for(;i<l4;++i)*(p++)^=0xEAEBECED;for(i=l4*4;i<l-1;++i)s[i]^=0xED-i%4;}

  00000	55		 push	 ebp
  00001	8b ec		 mov	 ebp, esp
  00003	8b 4d 0c	 mov	 ecx, DWORD PTR _l$[ebp]
  00006	56		 push	 esi
  00007	8b 75 08	 mov	 esi, DWORD PTR _s$[ebp]
  0000a	57		 push	 edi
  0000b	8d 79 ff	 lea	 edi, DWORD PTR [ecx-1]
  0000e	8b c7		 mov	 eax, edi
  00010	99		 cdq
  00011	83 e2 03	 and	 edx, 3
  00014	03 c2		 add	 eax, edx
  00016	c1 f8 02	 sar	 eax, 2
  00019	8b d6		 mov	 edx, esi
  0001b	c6 44 0e ff 00	 mov	 BYTE PTR [esi+ecx-1], 0
  00020	85 c0		 test	 eax, eax
  00022	7e 0e		 jle	 SHORT $LN4@DECSTR
  00024	8b c8		 mov	 ecx, eax
$LL6@DECSTR:
  00026	81 32 ed ec eb
	ea		 xor	 DWORD PTR [edx], -353637139 ; eaebecedH
  0002c	83 c2 04	 add	 edx, 4
  0002f	49		 dec	 ecx
  00030	75 f4		 jne	 SHORT $LL6@DECSTR
$LN4@DECSTR:
  00032	c1 e0 02	 shl	 eax, 2
  00035	eb 17		 jmp	 SHORT $LN14@DECSTR
$LL3@DECSTR:
  00037	8b c8		 mov	 ecx, eax
  00039	81 e1 03 00 00
	80		 and	 ecx, -2147483645	; 80000003H
  0003f	79 05		 jns	 SHORT $LN13@DECSTR
  00041	49		 dec	 ecx
  00042	83 c9 fc	 or	 ecx, -4			; fffffffcH
  00045	41		 inc	 ecx
$LN13@DECSTR:
  00046	b2 ed		 mov	 dl, -19			; ffffffedH
  00048	2a d1		 sub	 dl, cl
  0004a	30 14 30	 xor	 BYTE PTR [eax+esi], dl
  0004d	40		 inc	 eax
$LN14@DECSTR:
  0004e	3b c7		 cmp	 eax, edi
  00050	7c e5		 jl	 SHORT $LL3@DECSTR
  00052	5f		 pop	 edi
  00053	5e		 pop	 esi
  00054	5d		 pop	 ebp
  00055	c3		 ret	 0
?_DECSTR@@YAXPADH@Z ENDP				; _DECSTR
_TEXT	ENDS
PUBLIC	?GetGroup@ioGameEntity@@QBEPAVioEntityGroup@@XZ	; ioGameEntity::GetGroup
; Function compile flags: /Ogsp
; File d:\lost saga for developer\youtube\tutorial\source\src\lsclient\iogameentity.h
;	COMDAT ?GetGroup@ioGameEntity@@QBEPAVioEntityGroup@@XZ
_TEXT	SEGMENT
?GetGroup@ioGameEntity@@QBEPAVioEntityGroup@@XZ PROC	; ioGameEntity::GetGroup, COMDAT
; _this$ = ecx

; 166  : 	inline ioEntityGroup* GetGroup() const { return m_pGroup; }

  00000	8b 41 04	 mov	 eax, DWORD PTR [ecx+4]
  00003	c3		 ret	 0
?GetGroup@ioGameEntity@@QBEPAVioEntityGroup@@XZ ENDP	; ioGameEntity::GetGroup
_TEXT	ENDS
PUBLIC	??1WeaponInfo@@QAE@XZ				; WeaponInfo::~WeaponInfo
EXTRN	__imp_??1ioHashString@@QAE@XZ:PROC
; Function compile flags: /Ogsp
;	COMDAT ??1WeaponInfo@@QAE@XZ
_TEXT	SEGMENT
??1WeaponInfo@@QAE@XZ PROC				; WeaponInfo::~WeaponInfo, COMDAT
; _this$ = ecx
  00000	83 c1 08	 add	 ecx, 8
  00003	ff 25 00 00 00
	00		 jmp	 DWORD PTR __imp_??1ioHashString@@QAE@XZ
??1WeaponInfo@@QAE@XZ ENDP				; WeaponInfo::~WeaponInfo
_TEXT	ENDS
PUBLIC	?GetOwnerItem@ioSkill@@QBEPAVioItem@@XZ		; ioSkill::GetOwnerItem
; Function compile flags: /Ogsp
; File d:\lost saga for developer\youtube\tutorial\source\src\lsclient\ioskill.h
;	COMDAT ?GetOwnerItem@ioSkill@@QBEPAVioItem@@XZ
_TEXT	SEGMENT
?GetOwnerItem@ioSkill@@QBEPAVioItem@@XZ PROC		; ioSkill::GetOwnerItem, COMDAT
; _this$ = ecx

; 397  : 	inline ioItem *GetOwnerItem() const { return m_pOwnerItem; }

  00000	8b 81 a4 02 00
	00		 mov	 eax, DWORD PTR [ecx+676]
  00006	c3		 ret	 0
?GetOwnerItem@ioSkill@@QBEPAVioItem@@XZ ENDP		; ioSkill::GetOwnerItem
_TEXT	ENDS
PUBLIC	?GetName@ioSkill@@QBEABVioHashString@@XZ	; ioSkill::GetName
; Function compile flags: /Ogsp
;	COMDAT ?GetName@ioSkill@@QBEABVioHashString@@XZ
_TEXT	SEGMENT
?GetName@ioSkill@@QBEABVioHashString@@XZ PROC		; ioSkill::GetName, COMDAT
; _this$ = ecx

; 414  : 	inline const ioHashString& GetName() const { return m_Name; }

  00000	8d 41 24	 lea	 eax, DWORD PTR [ecx+36]
  00003	c3		 ret	 0
?GetName@ioSkill@@QBEABVioHashString@@XZ ENDP		; ioSkill::GetName
_TEXT	ENDS
PUBLIC	??1?$_Vector_val@UWeaponInfo@@V?$allocator@UWeaponInfo@@@std@@@std@@QAE@XZ ; std::_Vector_val<WeaponInfo,std::allocator<WeaponInfo> >::~_Vector_val<WeaponInfo,std::allocator<WeaponInfo> >
; Function compile flags: /Ogsp
; File c:\program files (x86)\microsoft visual studio 10.0\vc\include\vector
;	COMDAT ??1?$_Vector_val@UWeaponInfo@@V?$allocator@UWeaponInfo@@@std@@@std@@QAE@XZ
_TEXT	SEGMENT
??1?$_Vector_val@UWeaponInfo@@V?$allocator@UWeaponInfo@@@std@@@std@@QAE@XZ PROC ; std::_Vector_val<WeaponInfo,std::allocator<WeaponInfo> >::~_Vector_val<WeaponInfo,std::allocator<WeaponInfo> >, COMDAT
; _this$ = ecx

; 434  : 		}

  00000	c3		 ret	 0
??1?$_Vector_val@UWeaponInfo@@V?$allocator@UWeaponInfo@@@std@@@std@@QAE@XZ ENDP ; std::_Vector_val<WeaponInfo,std::allocator<WeaponInfo> >::~_Vector_val<WeaponInfo,std::allocator<WeaponInfo> >
_TEXT	ENDS
PUBLIC	??0?$allocator@UWeaponInfo@@@std@@QAE@XZ	; std::allocator<WeaponInfo>::allocator<WeaponInfo>
; Function compile flags: /Ogsp
; File c:\program files (x86)\microsoft visual studio 10.0\vc\include\xmemory
;	COMDAT ??0?$allocator@UWeaponInfo@@@std@@QAE@XZ
_TEXT	SEGMENT
??0?$allocator@UWeaponInfo@@@std@@QAE@XZ PROC		; std::allocator<WeaponInfo>::allocator<WeaponInfo>, COMDAT
; _this$ = ecx

; 161  : 	_ALLOCATOR() _THROW0()

  00000	8b c1		 mov	 eax, ecx

; 162  : 		{	// construct default allocator (do nothing)
; 163  : 		}

  00002	c3		 ret	 0
??0?$allocator@UWeaponInfo@@@std@@QAE@XZ ENDP		; std::allocator<WeaponInfo>::allocator<WeaponInfo>
_TEXT	ENDS
PUBLIC	??1?$_Vector_val@UForceInfo@@V?$allocator@UForceInfo@@@std@@@std@@QAE@XZ ; std::_Vector_val<ForceInfo,std::allocator<ForceInfo> >::~_Vector_val<ForceInfo,std::allocator<ForceInfo> >
; Function compile flags: /Ogsp
; File c:\program files (x86)\microsoft visual studio 10.0\vc\include\vector
;	COMDAT ??1?$_Vector_val@UForceInfo@@V?$allocator@UForceInfo@@@std@@@std@@QAE@XZ
_TEXT	SEGMENT
??1?$_Vector_val@UForceInfo@@V?$allocator@UForceInfo@@@std@@@std@@QAE@XZ PROC ; std::_Vector_val<ForceInfo,std::allocator<ForceInfo> >::~_Vector_val<ForceInfo,std::allocator<ForceInfo> >, COMDAT
; _this$ = ecx

; 434  : 		}

  00000	c3		 ret	 0
??1?$_Vector_val@UForceInfo@@V?$allocator@UForceInfo@@@std@@@std@@QAE@XZ ENDP ; std::_Vector_val<ForceInfo,std::allocator<ForceInfo> >::~_Vector_val<ForceInfo,std::allocator<ForceInfo> >
_TEXT	ENDS
PUBLIC	??0?$allocator@UForceInfo@@@std@@QAE@XZ		; std::allocator<ForceInfo>::allocator<ForceInfo>
; Function compile flags: /Ogsp
; File c:\program files (x86)\microsoft visual studio 10.0\vc\include\xmemory
;	COMDAT ??0?$allocator@UForceInfo@@@std@@QAE@XZ
_TEXT	SEGMENT
??0?$allocator@UForceInfo@@@std@@QAE@XZ PROC		; std::allocator<ForceInfo>::allocator<ForceInfo>, COMDAT
; _this$ = ecx

; 161  : 	_ALLOCATOR() _THROW0()

  00000	8b c1		 mov	 eax, ecx

; 162  : 		{	// construct default allocator (do nothing)
; 163  : 		}

  00002	c3		 ret	 0
??0?$allocator@UForceInfo@@@std@@QAE@XZ ENDP		; std::allocator<ForceInfo>::allocator<ForceInfo>
_TEXT	ENDS
PUBLIC	?EncryptValueToPool@?$CEncrypt@K@@AAEXPBD@Z	; CEncrypt<unsigned long>::EncryptValueToPool
EXTRN	?EncryptByte@ccddaabb@@QAEXPBDPADH@Z:PROC	; ccddaabb::EncryptByte
; Function compile flags: /Ogsp
; File d:\lost saga for developer\youtube\tutorial\source\src\lsclient\encryptvalue.h
;	COMDAT ?EncryptValueToPool@?$CEncrypt@K@@AAEXPBD@Z
_TEXT	SEGMENT
_value$ = 8						; size = 4
?EncryptValueToPool@?$CEncrypt@K@@AAEXPBD@Z PROC	; CEncrypt<unsigned long>::EncryptValueToPool, COMDAT
; _this$ = ecx

; 67   : 	{

  00000	55		 push	 ebp
  00001	8b ec		 mov	 ebp, esp

; 68   : 		m_RC5.EncryptByte( value, m_MemPool, max(m_ValueSize, DEFAULT_ENCRYPT) );

  00003	0f b7 41 06	 movzx	 eax, WORD PTR [ecx+6]
  00007	83 f8 04	 cmp	 eax, 4
  0000a	77 03		 ja	 SHORT $LN4@EncryptVal
  0000c	6a 04		 push	 4
  0000e	58		 pop	 eax
$LN4@EncryptVal:
  0000f	50		 push	 eax
  00010	8d 41 1c	 lea	 eax, DWORD PTR [ecx+28]
  00013	50		 push	 eax
  00014	ff 75 08	 push	 DWORD PTR _value$[ebp]
  00017	83 c1 0c	 add	 ecx, 12			; 0000000cH
  0001a	e8 00 00 00 00	 call	 ?EncryptByte@ccddaabb@@QAEXPBDPADH@Z ; ccddaabb::EncryptByte

; 69   : 		
; 70   : 	}

  0001f	5d		 pop	 ebp
  00020	c2 04 00	 ret	 4
?EncryptValueToPool@?$CEncrypt@K@@AAEXPBD@Z ENDP	; CEncrypt<unsigned long>::EncryptValueToPool
_TEXT	ENDS
PUBLIC	?DecryptValueToPool@?$CEncrypt@W4TeamType@@@@QAEXPAW4TeamType@@@Z ; CEncrypt<enum TeamType>::DecryptValueToPool
EXTRN	?DecryptByte@ccddaabb@@QBEXPBDPADH@Z:PROC	; ccddaabb::DecryptByte
; Function compile flags: /Ogsp
;	COMDAT ?DecryptValueToPool@?$CEncrypt@W4TeamType@@@@QAEXPAW4TeamType@@@Z
_TEXT	SEGMENT
_value$ = 8						; size = 4
?DecryptValueToPool@?$CEncrypt@W4TeamType@@@@QAEXPAW4TeamType@@@Z PROC ; CEncrypt<enum TeamType>::DecryptValueToPool, COMDAT
; _this$ = ecx

; 2959 : 	{

  00000	55		 push	 ebp
  00001	8b ec		 mov	 ebp, esp
  00003	56		 push	 esi

; 2960 : 		m_RC5.DecryptByte( m_MemPool, m_TempMem, sizeof(TeamType) );

  00004	8d 71 28	 lea	 esi, DWORD PTR [ecx+40]
  00007	6a 04		 push	 4
  00009	8d 41 1c	 lea	 eax, DWORD PTR [ecx+28]
  0000c	56		 push	 esi
  0000d	50		 push	 eax
  0000e	83 c1 0c	 add	 ecx, 12			; 0000000cH
  00011	e8 00 00 00 00	 call	 ?DecryptByte@ccddaabb@@QBEXPBDPADH@Z ; ccddaabb::DecryptByte

; 2961 : 		*value = *((TeamType*)m_TempMem);

  00016	8b 06		 mov	 eax, DWORD PTR [esi]
  00018	8b 4d 08	 mov	 ecx, DWORD PTR _value$[ebp]
  0001b	89 01		 mov	 DWORD PTR [ecx], eax
  0001d	5e		 pop	 esi

; 2962 : 	}

  0001e	5d		 pop	 ebp
  0001f	c2 04 00	 ret	 4
?DecryptValueToPool@?$CEncrypt@W4TeamType@@@@QAEXPAW4TeamType@@@Z ENDP ; CEncrypt<enum TeamType>::DecryptValueToPool
_TEXT	ENDS
PUBLIC	??0?$allocator@UWeaponInfo@@@std@@QAE@ABV01@@Z	; std::allocator<WeaponInfo>::allocator<WeaponInfo>
; Function compile flags: /Ogsp
; File c:\program files (x86)\microsoft visual studio 10.0\vc\include\xmemory
;	COMDAT ??0?$allocator@UWeaponInfo@@@std@@QAE@ABV01@@Z
_TEXT	SEGMENT
___formal$ = 8						; size = 4
??0?$allocator@UWeaponInfo@@@std@@QAE@ABV01@@Z PROC	; std::allocator<WeaponInfo>::allocator<WeaponInfo>, COMDAT
; _this$ = ecx

; 165  : 	_ALLOCATOR(const _ALLOCATOR<_Ty>&) _THROW0()

  00000	8b c1		 mov	 eax, ecx

; 166  : 		{	// construct by copying (do nothing)
; 167  : 		}

  00002	c2 04 00	 ret	 4
??0?$allocator@UWeaponInfo@@@std@@QAE@ABV01@@Z ENDP	; std::allocator<WeaponInfo>::allocator<WeaponInfo>
_TEXT	ENDS
PUBLIC	?deallocate@?$allocator@UWeaponInfo@@@std@@QAEXPAUWeaponInfo@@I@Z ; std::allocator<WeaponInfo>::deallocate
; Function compile flags: /Ogsp
;	COMDAT ?deallocate@?$allocator@UWeaponInfo@@@std@@QAEXPAUWeaponInfo@@I@Z
_TEXT	SEGMENT
__Ptr$ = 8						; size = 4
___formal$ = 12						; size = 4
?deallocate@?$allocator@UWeaponInfo@@@std@@QAEXPAUWeaponInfo@@I@Z PROC ; std::allocator<WeaponInfo>::deallocate, COMDAT
; _this$ = ecx

; 181  : 		{	// deallocate object at _Ptr, ignore size

  00000	55		 push	 ebp
  00001	8b ec		 mov	 ebp, esp

; 182  : 		::operator delete(_Ptr);

  00003	ff 75 08	 push	 DWORD PTR __Ptr$[ebp]
  00006	e8 00 00 00 00	 call	 ??3@YAXPAX@Z		; operator delete
  0000b	59		 pop	 ecx

; 183  : 		}

  0000c	5d		 pop	 ebp
  0000d	c2 08 00	 ret	 8
?deallocate@?$allocator@UWeaponInfo@@@std@@QAEXPAUWeaponInfo@@I@Z ENDP ; std::allocator<WeaponInfo>::deallocate
_TEXT	ENDS
PUBLIC	??0?$allocator@UForceInfo@@@std@@QAE@ABV01@@Z	; std::allocator<ForceInfo>::allocator<ForceInfo>
; Function compile flags: /Ogsp
;	COMDAT ??0?$allocator@UForceInfo@@@std@@QAE@ABV01@@Z
_TEXT	SEGMENT
___formal$ = 8						; size = 4
??0?$allocator@UForceInfo@@@std@@QAE@ABV01@@Z PROC	; std::allocator<ForceInfo>::allocator<ForceInfo>, COMDAT
; _this$ = ecx

; 165  : 	_ALLOCATOR(const _ALLOCATOR<_Ty>&) _THROW0()

  00000	8b c1		 mov	 eax, ecx

; 166  : 		{	// construct by copying (do nothing)
; 167  : 		}

  00002	c2 04 00	 ret	 4
??0?$allocator@UForceInfo@@@std@@QAE@ABV01@@Z ENDP	; std::allocator<ForceInfo>::allocator<ForceInfo>
_TEXT	ENDS
PUBLIC	?deallocate@?$allocator@UForceInfo@@@std@@QAEXPAUForceInfo@@I@Z ; std::allocator<ForceInfo>::deallocate
; Function compile flags: /Ogsp
;	COMDAT ?deallocate@?$allocator@UForceInfo@@@std@@QAEXPAUForceInfo@@I@Z
_TEXT	SEGMENT
__Ptr$ = 8						; size = 4
___formal$ = 12						; size = 4
?deallocate@?$allocator@UForceInfo@@@std@@QAEXPAUForceInfo@@I@Z PROC ; std::allocator<ForceInfo>::deallocate, COMDAT
; _this$ = ecx

; 181  : 		{	// deallocate object at _Ptr, ignore size

  00000	55		 push	 ebp
  00001	8b ec		 mov	 ebp, esp

; 182  : 		::operator delete(_Ptr);

  00003	ff 75 08	 push	 DWORD PTR __Ptr$[ebp]
  00006	e8 00 00 00 00	 call	 ??3@YAXPAX@Z		; operator delete
  0000b	59		 pop	 ecx

; 183  : 		}

  0000c	5d		 pop	 ebp
  0000d	c2 08 00	 ret	 8
?deallocate@?$allocator@UForceInfo@@@std@@QAEXPAUForceInfo@@I@Z ENDP ; std::allocator<ForceInfo>::deallocate
_TEXT	ENDS
EXTRN	__imp_??0exception@std@@QAE@ABV01@@Z:PROC
; Function compile flags: /Ogsp
;	COMDAT ??0bad_alloc@std@@QAE@ABV01@@Z
_TEXT	SEGMENT
___that$ = 8						; size = 4
??0bad_alloc@std@@QAE@ABV01@@Z PROC			; std::bad_alloc::bad_alloc, COMDAT
; _this$ = ecx
  00000	55		 push	 ebp
  00001	8b ec		 mov	 ebp, esp
  00003	56		 push	 esi
  00004	ff 75 08	 push	 DWORD PTR ___that$[ebp]
  00007	8b f1		 mov	 esi, ecx
  00009	ff 15 00 00 00
	00		 call	 DWORD PTR __imp_??0exception@std@@QAE@ABV01@@Z
  0000f	c7 06 00 00 00
	00		 mov	 DWORD PTR [esi], OFFSET ??_7bad_alloc@std@@6B@
  00015	8b c6		 mov	 eax, esi
  00017	5e		 pop	 esi
  00018	5d		 pop	 ebp
  00019	c2 04 00	 ret	 4
??0bad_alloc@std@@QAE@ABV01@@Z ENDP			; std::bad_alloc::bad_alloc
_TEXT	ENDS
PUBLIC	??$_Ptr_cat@UWeaponInfo@@U1@@std@@YA?AU_Nonscalar_ptr_iterator_tag@0@PAUWeaponInfo@@0@Z ; std::_Ptr_cat<WeaponInfo,WeaponInfo>
; Function compile flags: /Ogsp
; File c:\program files (x86)\microsoft visual studio 10.0\vc\include\xutility
;	COMDAT ??$_Ptr_cat@UWeaponInfo@@U1@@std@@YA?AU_Nonscalar_ptr_iterator_tag@0@PAUWeaponInfo@@0@Z
_TEXT	SEGMENT
__Cat$ = -1						; size = 1
___formal$ = 8						; size = 4
___formal$ = 12						; size = 4
??$_Ptr_cat@UWeaponInfo@@U1@@std@@YA?AU_Nonscalar_ptr_iterator_tag@0@PAUWeaponInfo@@0@Z PROC ; std::_Ptr_cat<WeaponInfo,WeaponInfo>, COMDAT

; 516  : 	{	// return pointer category from pointers

  00000	55		 push	 ebp
  00001	8b ec		 mov	 ebp, esp
  00003	51		 push	 ecx

; 517  : 	typename _Ptr_cat_helper<_Elem1, _Elem2>::_Type _Cat;
; 518  : 	return (_Cat);

  00004	8a 45 ff	 mov	 al, BYTE PTR __Cat$[ebp]

; 519  : 	}

  00007	c9		 leave
  00008	c3		 ret	 0
??$_Ptr_cat@UWeaponInfo@@U1@@std@@YA?AU_Nonscalar_ptr_iterator_tag@0@PAUWeaponInfo@@0@Z ENDP ; std::_Ptr_cat<WeaponInfo,WeaponInfo>
_TEXT	ENDS
PUBLIC	??$_Ptr_cat@UForceInfo@@U1@@std@@YA?AU_Nonscalar_ptr_iterator_tag@0@PAUForceInfo@@0@Z ; std::_Ptr_cat<ForceInfo,ForceInfo>
; Function compile flags: /Ogsp
;	COMDAT ??$_Ptr_cat@UForceInfo@@U1@@std@@YA?AU_Nonscalar_ptr_iterator_tag@0@PAUForceInfo@@0@Z
_TEXT	SEGMENT
__Cat$ = -1						; size = 1
___formal$ = 8						; size = 4
___formal$ = 12						; size = 4
??$_Ptr_cat@UForceInfo@@U1@@std@@YA?AU_Nonscalar_ptr_iterator_tag@0@PAUForceInfo@@0@Z PROC ; std::_Ptr_cat<ForceInfo,ForceInfo>, COMDAT

; 516  : 	{	// return pointer category from pointers

  00000	55		 push	 ebp
  00001	8b ec		 mov	 ebp, esp
  00003	51		 push	 ecx

; 517  : 	typename _Ptr_cat_helper<_Elem1, _Elem2>::_Type _Cat;
; 518  : 	return (_Cat);

  00004	8a 45 ff	 mov	 al, BYTE PTR __Cat$[ebp]

; 519  : 	}

  00007	c9		 leave
  00008	c3		 ret	 0
??$_Ptr_cat@UForceInfo@@U1@@std@@YA?AU_Nonscalar_ptr_iterator_tag@0@PAUForceInfo@@0@Z ENDP ; std::_Ptr_cat<ForceInfo,ForceInfo>
_TEXT	ENDS
PUBLIC	?size@?$vector@UWeaponInfo@@V?$allocator@UWeaponInfo@@@std@@@std@@QBEIXZ ; std::vector<WeaponInfo,std::allocator<WeaponInfo> >::size
; Function compile flags: /Ogsp
; File c:\program files (x86)\microsoft visual studio 10.0\vc\include\vector
;	COMDAT ?size@?$vector@UWeaponInfo@@V?$allocator@UWeaponInfo@@@std@@@std@@QBEIXZ
_TEXT	SEGMENT
?size@?$vector@UWeaponInfo@@V?$allocator@UWeaponInfo@@@std@@@std@@QBEIXZ PROC ; std::vector<WeaponInfo,std::allocator<WeaponInfo> >::size, COMDAT
; _this$ = ecx

; 879  : 		return (this->_Mylast - this->_Myfirst);

  00000	8b 41 04	 mov	 eax, DWORD PTR [ecx+4]
  00003	2b 01		 sub	 eax, DWORD PTR [ecx]
  00005	6a 28		 push	 40			; 00000028H
  00007	99		 cdq
  00008	59		 pop	 ecx
  00009	f7 f9		 idiv	 ecx

; 880  : 		}

  0000b	c3		 ret	 0
?size@?$vector@UWeaponInfo@@V?$allocator@UWeaponInfo@@@std@@@std@@QBEIXZ ENDP ; std::vector<WeaponInfo,std::allocator<WeaponInfo> >::size
_TEXT	ENDS
PUBLIC	?size@?$vector@UForceInfo@@V?$allocator@UForceInfo@@@std@@@std@@QBEIXZ ; std::vector<ForceInfo,std::allocator<ForceInfo> >::size
; Function compile flags: /Ogsp
;	COMDAT ?size@?$vector@UForceInfo@@V?$allocator@UForceInfo@@@std@@@std@@QBEIXZ
_TEXT	SEGMENT
?size@?$vector@UForceInfo@@V?$allocator@UForceInfo@@@std@@@std@@QBEIXZ PROC ; std::vector<ForceInfo,std::allocator<ForceInfo> >::size, COMDAT
; _this$ = ecx

; 879  : 		return (this->_Mylast - this->_Myfirst);

  00000	8b 41 04	 mov	 eax, DWORD PTR [ecx+4]
  00003	2b 01		 sub	 eax, DWORD PTR [ecx]
  00005	6a 0c		 push	 12			; 0000000cH
  00007	99		 cdq
  00008	59		 pop	 ecx
  00009	f7 f9		 idiv	 ecx

; 880  : 		}

  0000b	c3		 ret	 0
?size@?$vector@UForceInfo@@V?$allocator@UForceInfo@@@std@@@std@@QBEIXZ ENDP ; std::vector<ForceInfo,std::allocator<ForceInfo> >::size
_TEXT	ENDS
PUBLIC	?_Xlen@?$vector@UWeaponInfo@@V?$allocator@UWeaponInfo@@@std@@@std@@IBEXXZ ; std::vector<WeaponInfo,std::allocator<WeaponInfo> >::_Xlen
; Function compile flags: /Ogsp
;	COMDAT ?_Xlen@?$vector@UWeaponInfo@@V?$allocator@UWeaponInfo@@@std@@@std@@IBEXXZ
_TEXT	SEGMENT
?_Xlen@?$vector@UWeaponInfo@@V?$allocator@UWeaponInfo@@@std@@@std@@IBEXXZ PROC ; std::vector<WeaponInfo,std::allocator<WeaponInfo> >::_Xlen, COMDAT
; _this$ = ecx

; 1427 : 		_Xlength_error("vector<T> too long");

  00000	68 00 00 00 00	 push	 OFFSET ??_C@_0BD@OLBABOEK@vector?$DMT?$DO?5too?5long?$AA@
  00005	ff 15 00 00 00
	00		 call	 DWORD PTR __imp_?_Xlength_error@std@@YAXPBD@Z
$LN4@Xlen@3:
$LN3@Xlen@3:
  0000b	cc		 int	 3
?_Xlen@?$vector@UWeaponInfo@@V?$allocator@UWeaponInfo@@@std@@@std@@IBEXXZ ENDP ; std::vector<WeaponInfo,std::allocator<WeaponInfo> >::_Xlen
_TEXT	ENDS
PUBLIC	?_Xlen@?$vector@UForceInfo@@V?$allocator@UForceInfo@@@std@@@std@@IBEXXZ ; std::vector<ForceInfo,std::allocator<ForceInfo> >::_Xlen
; Function compile flags: /Ogsp
;	COMDAT ?_Xlen@?$vector@UForceInfo@@V?$allocator@UForceInfo@@@std@@@std@@IBEXXZ
_TEXT	SEGMENT
?_Xlen@?$vector@UForceInfo@@V?$allocator@UForceInfo@@@std@@@std@@IBEXXZ PROC ; std::vector<ForceInfo,std::allocator<ForceInfo> >::_Xlen, COMDAT
; _this$ = ecx

; 1427 : 		_Xlength_error("vector<T> too long");

  00000	68 00 00 00 00	 push	 OFFSET ??_C@_0BD@OLBABOEK@vector?$DMT?$DO?5too?5long?$AA@
  00005	ff 15 00 00 00
	00		 call	 DWORD PTR __imp_?_Xlength_error@std@@YAXPBD@Z
$LN4@Xlen@4:
$LN3@Xlen@4:
  0000b	cc		 int	 3
?_Xlen@?$vector@UForceInfo@@V?$allocator@UForceInfo@@@std@@@std@@IBEXXZ ENDP ; std::vector<ForceInfo,std::allocator<ForceInfo> >::_Xlen
_TEXT	ENDS
PUBLIC	?max_size@?$allocator@UWeaponInfo@@@std@@QBEIXZ	; std::allocator<WeaponInfo>::max_size
; Function compile flags: /Ogsp
; File c:\program files (x86)\microsoft visual studio 10.0\vc\include\xmemory
;	COMDAT ?max_size@?$allocator@UWeaponInfo@@@std@@QBEIXZ
_TEXT	SEGMENT
?max_size@?$allocator@UWeaponInfo@@@std@@QBEIXZ PROC	; std::allocator<WeaponInfo>::max_size, COMDAT
; _this$ = ecx

; 218  : 		_SIZT _Count = (_SIZT)(-1) / sizeof (_Ty);
; 219  : 		return (0 < _Count ? _Count : 1);

  00000	b8 66 66 66 06	 mov	 eax, 107374182		; 06666666H

; 220  : 		}

  00005	c3		 ret	 0
?max_size@?$allocator@UWeaponInfo@@@std@@QBEIXZ ENDP	; std::allocator<WeaponInfo>::max_size
_TEXT	ENDS
PUBLIC	?max_size@?$allocator@UForceInfo@@@std@@QBEIXZ	; std::allocator<ForceInfo>::max_size
; Function compile flags: /Ogsp
;	COMDAT ?max_size@?$allocator@UForceInfo@@@std@@QBEIXZ
_TEXT	SEGMENT
?max_size@?$allocator@UForceInfo@@@std@@QBEIXZ PROC	; std::allocator<ForceInfo>::max_size, COMDAT
; _this$ = ecx

; 218  : 		_SIZT _Count = (_SIZT)(-1) / sizeof (_Ty);
; 219  : 		return (0 < _Count ? _Count : 1);

  00000	b8 55 55 55 15	 mov	 eax, 357913941		; 15555555H

; 220  : 		}

  00005	c3		 ret	 0
?max_size@?$allocator@UForceInfo@@@std@@QBEIXZ ENDP	; std::allocator<ForceInfo>::max_size
_TEXT	ENDS
PUBLIC	??0?$_Vector_const_iterator@V?$_Vector_val@UWeaponInfo@@V?$allocator@UWeaponInfo@@@std@@@std@@@std@@QAE@PAUWeaponInfo@@PBU_Container_base0@1@@Z ; std::_Vector_const_iterator<std::_Vector_val<WeaponInfo,std::allocator<WeaponInfo> > >::_Vector_const_iterator<std::_Vector_val<WeaponInfo,std::allocator<WeaponInfo> > >
; Function compile flags: /Ogsp
; File c:\program files (x86)\microsoft visual studio 10.0\vc\include\vector
;	COMDAT ??0?$_Vector_const_iterator@V?$_Vector_val@UWeaponInfo@@V?$allocator@UWeaponInfo@@@std@@@std@@@std@@QAE@PAUWeaponInfo@@PBU_Container_base0@1@@Z
_TEXT	SEGMENT
__Parg$ = 8						; size = 4
__Pvector$ = 12						; size = 4
??0?$_Vector_const_iterator@V?$_Vector_val@UWeaponInfo@@V?$allocator@UWeaponInfo@@@std@@@std@@@std@@QAE@PAUWeaponInfo@@PBU_Container_base0@1@@Z PROC ; std::_Vector_const_iterator<std::_Vector_val<WeaponInfo,std::allocator<WeaponInfo> > >::_Vector_const_iterator<std::_Vector_val<WeaponInfo,std::allocator<WeaponInfo> > >, COMDAT
; _this$ = ecx

; 45   : 		{	// construct with pointer _Parg

  00000	55		 push	 ebp
  00001	8b ec		 mov	 ebp, esp
  00003	8b c1		 mov	 eax, ecx
  00005	8b 4d 08	 mov	 ecx, DWORD PTR __Parg$[ebp]
  00008	89 08		 mov	 DWORD PTR [eax], ecx

; 46   : 		this->_Adopt(_Pvector);
; 47   : 		}

  0000a	5d		 pop	 ebp
  0000b	c2 08 00	 ret	 8
??0?$_Vector_const_iterator@V?$_Vector_val@UWeaponInfo@@V?$allocator@UWeaponInfo@@@std@@@std@@@std@@QAE@PAUWeaponInfo@@PBU_Container_base0@1@@Z ENDP ; std::_Vector_const_iterator<std::_Vector_val<WeaponInfo,std::allocator<WeaponInfo> > >::_Vector_const_iterator<std::_Vector_val<WeaponInfo,std::allocator<WeaponInfo> > >
_TEXT	ENDS
PUBLIC	??0?$_Vector_const_iterator@V?$_Vector_val@UForceInfo@@V?$allocator@UForceInfo@@@std@@@std@@@std@@QAE@PAUForceInfo@@PBU_Container_base0@1@@Z ; std::_Vector_const_iterator<std::_Vector_val<ForceInfo,std::allocator<ForceInfo> > >::_Vector_const_iterator<std::_Vector_val<ForceInfo,std::allocator<ForceInfo> > >
; Function compile flags: /Ogsp
;	COMDAT ??0?$_Vector_const_iterator@V?$_Vector_val@UForceInfo@@V?$allocator@UForceInfo@@@std@@@std@@@std@@QAE@PAUForceInfo@@PBU_Container_base0@1@@Z
_TEXT	SEGMENT
__Parg$ = 8						; size = 4
__Pvector$ = 12						; size = 4
??0?$_Vector_const_iterator@V?$_Vector_val@UForceInfo@@V?$allocator@UForceInfo@@@std@@@std@@@std@@QAE@PAUForceInfo@@PBU_Container_base0@1@@Z PROC ; std::_Vector_const_iterator<std::_Vector_val<ForceInfo,std::allocator<ForceInfo> > >::_Vector_const_iterator<std::_Vector_val<ForceInfo,std::allocator<ForceInfo> > >, COMDAT
; _this$ = ecx

; 45   : 		{	// construct with pointer _Parg

  00000	55		 push	 ebp
  00001	8b ec		 mov	 ebp, esp
  00003	8b c1		 mov	 eax, ecx
  00005	8b 4d 08	 mov	 ecx, DWORD PTR __Parg$[ebp]
  00008	89 08		 mov	 DWORD PTR [eax], ecx

; 46   : 		this->_Adopt(_Pvector);
; 47   : 		}

  0000a	5d		 pop	 ebp
  0000b	c2 08 00	 ret	 8
??0?$_Vector_const_iterator@V?$_Vector_val@UForceInfo@@V?$allocator@UForceInfo@@@std@@@std@@@std@@QAE@PAUForceInfo@@PBU_Container_base0@1@@Z ENDP ; std::_Vector_const_iterator<std::_Vector_val<ForceInfo,std::allocator<ForceInfo> > >::_Vector_const_iterator<std::_Vector_val<ForceInfo,std::allocator<ForceInfo> > >
_TEXT	ENDS
PUBLIC	?_Compat@?$_Vector_const_iterator@V?$_Vector_val@UWeaponInfo@@V?$allocator@UWeaponInfo@@@std@@@std@@@std@@QBEXABV12@@Z ; std::_Vector_const_iterator<std::_Vector_val<WeaponInfo,std::allocator<WeaponInfo> > >::_Compat
; Function compile flags: /Ogsp
;	COMDAT ?_Compat@?$_Vector_const_iterator@V?$_Vector_val@UWeaponInfo@@V?$allocator@UWeaponInfo@@@std@@@std@@@std@@QBEXABV12@@Z
_TEXT	SEGMENT
___formal$ = 8						; size = 4
?_Compat@?$_Vector_const_iterator@V?$_Vector_val@UWeaponInfo@@V?$allocator@UWeaponInfo@@@std@@@std@@@std@@QBEXABV12@@Z PROC ; std::_Vector_const_iterator<std::_Vector_val<WeaponInfo,std::allocator<WeaponInfo> > >::_Compat, COMDAT
; _this$ = ecx

; 253  : 		}

  00000	c2 04 00	 ret	 4
?_Compat@?$_Vector_const_iterator@V?$_Vector_val@UWeaponInfo@@V?$allocator@UWeaponInfo@@@std@@@std@@@std@@QBEXABV12@@Z ENDP ; std::_Vector_const_iterator<std::_Vector_val<WeaponInfo,std::allocator<WeaponInfo> > >::_Compat
_TEXT	ENDS
PUBLIC	?_Compat@?$_Vector_const_iterator@V?$_Vector_val@UForceInfo@@V?$allocator@UForceInfo@@@std@@@std@@@std@@QBEXABV12@@Z ; std::_Vector_const_iterator<std::_Vector_val<ForceInfo,std::allocator<ForceInfo> > >::_Compat
; Function compile flags: /Ogsp
;	COMDAT ?_Compat@?$_Vector_const_iterator@V?$_Vector_val@UForceInfo@@V?$allocator@UForceInfo@@@std@@@std@@@std@@QBEXABV12@@Z
_TEXT	SEGMENT
___formal$ = 8						; size = 4
?_Compat@?$_Vector_const_iterator@V?$_Vector_val@UForceInfo@@V?$allocator@UForceInfo@@@std@@@std@@@std@@QBEXABV12@@Z PROC ; std::_Vector_const_iterator<std::_Vector_val<ForceInfo,std::allocator<ForceInfo> > >::_Compat, COMDAT
; _this$ = ecx

; 253  : 		}

  00000	c2 04 00	 ret	 4
?_Compat@?$_Vector_const_iterator@V?$_Vector_val@UForceInfo@@V?$allocator@UForceInfo@@@std@@@std@@@std@@QBEXABV12@@Z ENDP ; std::_Vector_const_iterator<std::_Vector_val<ForceInfo,std::allocator<ForceInfo> > >::_Compat
_TEXT	ENDS
PUBLIC	??$_Allocate@UWeaponInfo@@@std@@YAPAUWeaponInfo@@IPAU1@@Z ; std::_Allocate<WeaponInfo>
; Function compile flags: /Ogsp
; File c:\program files (x86)\microsoft visual studio 10.0\vc\include\xmemory
;	COMDAT ??$_Allocate@UWeaponInfo@@@std@@YAPAUWeaponInfo@@IPAU1@@Z
_TEXT	SEGMENT
$T539187 = -12						; size = 12
$T539191 = 8						; size = 4
__Count$ = 8						; size = 4
___formal$ = 12						; size = 4
??$_Allocate@UWeaponInfo@@@std@@YAPAUWeaponInfo@@IPAU1@@Z PROC ; std::_Allocate<WeaponInfo>, COMDAT

; 30   : 	{	// allocate storage for _Count elements of type _Ty

  00000	55		 push	 ebp
  00001	8b ec		 mov	 ebp, esp

; 31   : 	void *_Ptr = 0;
; 32   : 
; 33   : 	if (_Count <= 0)

  00003	8b 4d 08	 mov	 ecx, DWORD PTR __Count$[ebp]
  00006	83 ec 0c	 sub	 esp, 12			; 0000000cH
  00009	33 c0		 xor	 eax, eax
  0000b	85 c9		 test	 ecx, ecx

; 34   : 		_Count = 0;
; 35   : 	else if (((_SIZT)(-1) / sizeof (_Ty) < _Count)

  0000d	74 3c		 je	 SHORT $LN5@Allocate@3

; 36   : 		|| (_Ptr = ::operator new(_Count * sizeof (_Ty))) == 0)

  0000f	81 f9 66 66 66
	06		 cmp	 ecx, 107374182		; 06666666H
  00015	77 0e		 ja	 SHORT $LN1@Allocate@3
  00017	6b c9 28	 imul	 ecx, 40			; 00000028H
  0001a	51		 push	 ecx
  0001b	e8 00 00 00 00	 call	 ??2@YAPAXI@Z		; operator new
  00020	59		 pop	 ecx
  00021	85 c0		 test	 eax, eax

; 38   : 
; 39   : 	return ((_Ty _FARQ *)_Ptr);

  00023	75 26		 jne	 SHORT $LN5@Allocate@3
$LN1@Allocate@3:

; 37   : 		_THROW_NCEE(bad_alloc, 0);

  00025	83 65 08 00	 and	 DWORD PTR $T539191[ebp], 0
  00029	8d 45 08	 lea	 eax, DWORD PTR $T539191[ebp]
  0002c	50		 push	 eax
  0002d	8d 4d f4	 lea	 ecx, DWORD PTR $T539187[ebp]
  00030	ff 15 00 00 00
	00		 call	 DWORD PTR __imp_??0exception@std@@QAE@ABQBD@Z
  00036	68 00 00 00 00	 push	 OFFSET __TI2?AVbad_alloc@std@@
  0003b	8d 45 f4	 lea	 eax, DWORD PTR $T539187[ebp]
  0003e	50		 push	 eax
  0003f	c7 45 f4 00 00
	00 00		 mov	 DWORD PTR $T539187[ebp], OFFSET ??_7bad_alloc@std@@6B@
  00046	e8 00 00 00 00	 call	 __CxxThrowException@8
$LN10@Allocate@3:
$LN5@Allocate@3:

; 40   : 	}

  0004b	c9		 leave
  0004c	c3		 ret	 0
$LN9@Allocate@3:
??$_Allocate@UWeaponInfo@@@std@@YAPAUWeaponInfo@@IPAU1@@Z ENDP ; std::_Allocate<WeaponInfo>
_TEXT	ENDS
PUBLIC	??$_Allocate@UForceInfo@@@std@@YAPAUForceInfo@@IPAU1@@Z ; std::_Allocate<ForceInfo>
; Function compile flags: /Ogsp
;	COMDAT ??$_Allocate@UForceInfo@@@std@@YAPAUForceInfo@@IPAU1@@Z
_TEXT	SEGMENT
$T539196 = -12						; size = 12
$T539200 = 8						; size = 4
__Count$ = 8						; size = 4
___formal$ = 12						; size = 4
??$_Allocate@UForceInfo@@@std@@YAPAUForceInfo@@IPAU1@@Z PROC ; std::_Allocate<ForceInfo>, COMDAT

; 30   : 	{	// allocate storage for _Count elements of type _Ty

  00000	55		 push	 ebp
  00001	8b ec		 mov	 ebp, esp

; 31   : 	void *_Ptr = 0;
; 32   : 
; 33   : 	if (_Count <= 0)

  00003	8b 4d 08	 mov	 ecx, DWORD PTR __Count$[ebp]
  00006	83 ec 0c	 sub	 esp, 12			; 0000000cH
  00009	33 c0		 xor	 eax, eax
  0000b	85 c9		 test	 ecx, ecx

; 34   : 		_Count = 0;
; 35   : 	else if (((_SIZT)(-1) / sizeof (_Ty) < _Count)

  0000d	74 3c		 je	 SHORT $LN5@Allocate@4

; 36   : 		|| (_Ptr = ::operator new(_Count * sizeof (_Ty))) == 0)

  0000f	81 f9 55 55 55
	15		 cmp	 ecx, 357913941		; 15555555H
  00015	77 0e		 ja	 SHORT $LN1@Allocate@4
  00017	6b c9 0c	 imul	 ecx, 12			; 0000000cH
  0001a	51		 push	 ecx
  0001b	e8 00 00 00 00	 call	 ??2@YAPAXI@Z		; operator new
  00020	59		 pop	 ecx
  00021	85 c0		 test	 eax, eax

; 38   : 
; 39   : 	return ((_Ty _FARQ *)_Ptr);

  00023	75 26		 jne	 SHORT $LN5@Allocate@4
$LN1@Allocate@4:

; 37   : 		_THROW_NCEE(bad_alloc, 0);

  00025	83 65 08 00	 and	 DWORD PTR $T539200[ebp], 0
  00029	8d 45 08	 lea	 eax, DWORD PTR $T539200[ebp]
  0002c	50		 push	 eax
  0002d	8d 4d f4	 lea	 ecx, DWORD PTR $T539196[ebp]
  00030	ff 15 00 00 00
	00		 call	 DWORD PTR __imp_??0exception@std@@QAE@ABQBD@Z
  00036	68 00 00 00 00	 push	 OFFSET __TI2?AVbad_alloc@std@@
  0003b	8d 45 f4	 lea	 eax, DWORD PTR $T539196[ebp]
  0003e	50		 push	 eax
  0003f	c7 45 f4 00 00
	00 00		 mov	 DWORD PTR $T539196[ebp], OFFSET ??_7bad_alloc@std@@6B@
  00046	e8 00 00 00 00	 call	 __CxxThrowException@8
$LN10@Allocate@4:
$LN5@Allocate@4:

; 40   : 	}

  0004b	c9		 leave
  0004c	c3		 ret	 0
$LN9@Allocate@4:
??$_Allocate@UForceInfo@@@std@@YAPAUForceInfo@@IPAU1@@Z ENDP ; std::_Allocate<ForceInfo>
_TEXT	ENDS
PUBLIC	??$_Destroy@UForceInfo@@@std@@YAXPAUForceInfo@@@Z ; std::_Destroy<ForceInfo>
; Function compile flags: /Ogsp
;	COMDAT ??$_Destroy@UForceInfo@@@std@@YAXPAUForceInfo@@@Z
_TEXT	SEGMENT
__Ptr$ = 8						; size = 4
??$_Destroy@UForceInfo@@@std@@YAXPAUForceInfo@@@Z PROC	; std::_Destroy<ForceInfo>, COMDAT

; 63   : 	_Ptr->~_Ty();
; 64   : 	}

  00000	c3		 ret	 0
??$_Destroy@UForceInfo@@@std@@YAXPAUForceInfo@@@Z ENDP	; std::_Destroy<ForceInfo>
_TEXT	ENDS
PUBLIC	??_GWeaponInfo@@QAEPAXI@Z			; WeaponInfo::`scalar deleting destructor'
; Function compile flags: /Ogsp
;	COMDAT ??_GWeaponInfo@@QAEPAXI@Z
_TEXT	SEGMENT
___flags$ = 8						; size = 4
??_GWeaponInfo@@QAEPAXI@Z PROC				; WeaponInfo::`scalar deleting destructor', COMDAT
; _this$ = ecx
  00000	55		 push	 ebp
  00001	8b ec		 mov	 ebp, esp
  00003	56		 push	 esi
  00004	8b f1		 mov	 esi, ecx
  00006	8d 4e 08	 lea	 ecx, DWORD PTR [esi+8]
  00009	ff 15 00 00 00
	00		 call	 DWORD PTR __imp_??1ioHashString@@QAE@XZ
  0000f	f6 45 08 01	 test	 BYTE PTR ___flags$[ebp], 1
  00013	74 07		 je	 SHORT $LN1@scalar@2
  00015	56		 push	 esi
  00016	e8 00 00 00 00	 call	 ??3@YAXPAX@Z		; operator delete
  0001b	59		 pop	 ecx
$LN1@scalar@2:
  0001c	8b c6		 mov	 eax, esi
  0001e	5e		 pop	 esi
  0001f	5d		 pop	 ebp
  00020	c2 04 00	 ret	 4
??_GWeaponInfo@@QAEPAXI@Z ENDP				; WeaponInfo::`scalar deleting destructor'
_TEXT	ENDS
PUBLIC	??0WeaponInfo@@QAE@ABU0@@Z			; WeaponInfo::WeaponInfo
EXTRN	__imp_??0ioHashString@@QAE@ABV0@@Z:PROC
; Function compile flags: /Ogsp
;	COMDAT ??0WeaponInfo@@QAE@ABU0@@Z
_TEXT	SEGMENT
___that$ = 8						; size = 4
??0WeaponInfo@@QAE@ABU0@@Z PROC				; WeaponInfo::WeaponInfo, COMDAT
; _this$ = ecx
  00000	55		 push	 ebp
  00001	8b ec		 mov	 ebp, esp
  00003	56		 push	 esi
  00004	57		 push	 edi
  00005	8b 7d 08	 mov	 edi, DWORD PTR ___that$[ebp]
  00008	8b 07		 mov	 eax, DWORD PTR [edi]
  0000a	8b f1		 mov	 esi, ecx
  0000c	89 06		 mov	 DWORD PTR [esi], eax
  0000e	8b 47 04	 mov	 eax, DWORD PTR [edi+4]
  00011	89 46 04	 mov	 DWORD PTR [esi+4], eax
  00014	8d 47 08	 lea	 eax, DWORD PTR [edi+8]
  00017	50		 push	 eax
  00018	8d 4e 08	 lea	 ecx, DWORD PTR [esi+8]
  0001b	ff 15 00 00 00
	00		 call	 DWORD PTR __imp_??0ioHashString@@QAE@ABV0@@Z
  00021	8b 47 18	 mov	 eax, DWORD PTR [edi+24]
  00024	89 46 18	 mov	 DWORD PTR [esi+24], eax
  00027	8b 47 1c	 mov	 eax, DWORD PTR [edi+28]
  0002a	89 46 1c	 mov	 DWORD PTR [esi+28], eax
  0002d	8a 47 20	 mov	 al, BYTE PTR [edi+32]
  00030	88 46 20	 mov	 BYTE PTR [esi+32], al
  00033	8b 47 24	 mov	 eax, DWORD PTR [edi+36]
  00036	89 46 24	 mov	 DWORD PTR [esi+36], eax
  00039	5f		 pop	 edi
  0003a	8b c6		 mov	 eax, esi
  0003c	5e		 pop	 esi
  0003d	5d		 pop	 ebp
  0003e	c2 04 00	 ret	 4
??0WeaponInfo@@QAE@ABU0@@Z ENDP				; WeaponInfo::WeaponInfo
_TEXT	ENDS
PUBLIC	??0KeyMapEffect@ioCrecendoSkill@@QAE@XZ		; ioCrecendoSkill::KeyMapEffect::KeyMapEffect
; Function compile flags: /Ogsp
; File d:\lost saga for developer\youtube\tutorial\source\src\lsclient\iocrecendoskill.h
;	COMDAT ??0KeyMapEffect@ioCrecendoSkill@@QAE@XZ
_TEXT	SEGMENT
??0KeyMapEffect@ioCrecendoSkill@@QAE@XZ PROC		; ioCrecendoSkill::KeyMapEffect::KeyMapEffect, COMDAT
; _this$ = ecx

; 71   : 		KeyMapEffect()

  00000	8b c1		 mov	 eax, ecx

; 72   : 		{
; 73   : 			Clear();

  00002	83 08 ff	 or	 DWORD PTR [eax], -1
  00005	83 60 04 00	 and	 DWORD PTR [eax+4], 0

; 74   : 		}

  00009	c3		 ret	 0
??0KeyMapEffect@ioCrecendoSkill@@QAE@XZ ENDP		; ioCrecendoSkill::KeyMapEffect::KeyMapEffect
_TEXT	ENDS
PUBLIC	__real@00000000
PUBLIC	__real@4f800000
PUBLIC	?SetLoopState@ioCrecendoSkill@@IAEXPAVioBaseChar@@@Z ; ioCrecendoSkill::SetLoopState
EXTRN	__imp_?SetLoopAni@ioEntityGroup@@QAE_NHMMMM@Z:PROC
EXTRN	__imp_?ClearAllActionAni@ioEntityGroup@@QAEXM_N@Z:PROC
EXTRN	__imp_?ClearAllLoopAni@ioEntityGroup@@QAEXM_N@Z:PROC
EXTRN	__imp_?GetAnimationIdx@ioEntityGroup@@QAEHABVioHashString@@@Z:PROC
;	COMDAT __real@00000000
; File d:\lost saga for developer\youtube\tutorial\source\src\lsclient\stdafx.h
CONST	SEGMENT
__real@00000000 DD 000000000r			; 0
CONST	ENDS
;	COMDAT __real@4f800000
CONST	SEGMENT
__real@4f800000 DD 04f800000r			; 4.29497e+009
; Function compile flags: /Ogsp
; File d:\lost saga for developer\youtube\tutorial\source\src\lsclient\iocrecendoskill.cpp
CONST	ENDS
;	COMDAT ?SetLoopState@ioCrecendoSkill@@IAEXPAVioBaseChar@@@Z
_TEXT	SEGMENT
tv175 = -8						; size = 4
tv169 = -8						; size = 4
tv162 = -8						; size = 4
_iAniID$ = -4						; size = 4
tv182 = 8						; size = 4
tv154 = 8						; size = 4
tv150 = 8						; size = 4
tv78 = 8						; size = 4
_fAniRate$ = 8						; size = 4
_pChar$ = 8						; size = 4
?SetLoopState@ioCrecendoSkill@@IAEXPAVioBaseChar@@@Z PROC ; ioCrecendoSkill::SetLoopState, COMDAT
; _this$ = ecx

; 183  : {

  00000	55		 push	 ebp
  00001	8b ec		 mov	 ebp, esp
  00003	51		 push	 ecx
  00004	51		 push	 ecx

; 184  : 	if( !pChar )

  00005	8b 45 08	 mov	 eax, DWORD PTR _pChar$[ebp]
  00008	56		 push	 esi
  00009	8b f1		 mov	 esi, ecx
  0000b	85 c0		 test	 eax, eax
  0000d	0f 84 17 01 00
	00		 je	 $LN3@SetLoopSta

; 185  : 		return;
; 186  : 
; 187  : 	m_SkillState = SS_LOOP;	

  00013	57		 push	 edi
  00014	c7 86 e4 10 00
	00 01 00 00 00	 mov	 DWORD PTR [esi+4324], 1

; 188  : 
; 189  : 	ioEntityGroup *pGrp = pChar->GetGroup();

  0001e	8b 78 04	 mov	 edi, DWORD PTR [eax+4]

; 190  : 
; 191  : 	int iAniID = pGrp->GetAnimationIdx( m_SkillLoopMotion );

  00021	8d 86 e8 10 00
	00		 lea	 eax, DWORD PTR [esi+4328]
  00027	50		 push	 eax
  00028	8b cf		 mov	 ecx, edi
  0002a	ff 15 00 00 00
	00		 call	 DWORD PTR __imp_?GetAnimationIdx@ioEntityGroup@@QAEHABVioHashString@@@Z
  00030	89 45 fc	 mov	 DWORD PTR _iAniID$[ebp], eax

; 192  : 	float fAniRate = FLOAT1;

  00033	b8 01 00 00 00	 mov	 eax, 1
  00038	89 45 08	 mov	 DWORD PTR tv182[ebp], eax
  0003b	db 45 08	 fild	 DWORD PTR tv182[ebp]
  0003e	85 c0		 test	 eax, eax
  00040	79 06		 jns	 SHORT $LN19@SetLoopSta
  00042	d8 05 00 00 00
	00		 fadd	 DWORD PTR __real@4f800000
$LN19@SetLoopSta:

; 193  : 	if( m_SkillLoopMotionRate > 0.0f )

  00048	f3 0f 10 86 f8
	10 00 00	 movss	 xmm0, DWORD PTR [esi+4344]
  00050	d9 5d 08	 fstp	 DWORD PTR _fAniRate$[ebp]
  00053	0f 2f 05 00 00
	00 00		 comiss	 xmm0, DWORD PTR __real@00000000
  0005a	76 05		 jbe	 SHORT $LN1@SetLoopSta

; 194  : 		fAniRate = m_SkillLoopMotionRate;

  0005c	f3 0f 11 45 08	 movss	 DWORD PTR _fAniRate$[ebp], xmm0
$LN1@SetLoopSta:

; 195  : 
; 196  : 	pGrp->ClearAllLoopAni( FLOAT100, true );

  00061	b8 64 00 00 00	 mov	 eax, 100		; 00000064H
  00066	89 45 f8	 mov	 DWORD PTR tv175[ebp], eax
  00069	db 45 f8	 fild	 DWORD PTR tv175[ebp]
  0006c	6a 01		 push	 1
  0006e	85 c0		 test	 eax, eax
  00070	79 06		 jns	 SHORT $LN20@SetLoopSta
  00072	d8 05 00 00 00
	00		 fadd	 DWORD PTR __real@4f800000
$LN20@SetLoopSta:
  00078	51		 push	 ecx
  00079	8b cf		 mov	 ecx, edi
  0007b	d9 1c 24	 fstp	 DWORD PTR [esp]
  0007e	ff 15 00 00 00
	00		 call	 DWORD PTR __imp_?ClearAllLoopAni@ioEntityGroup@@QAEXM_N@Z

; 197  : 	pGrp->ClearAllActionAni( FLOAT100, true );

  00084	b8 64 00 00 00	 mov	 eax, 100		; 00000064H
  00089	89 45 f8	 mov	 DWORD PTR tv169[ebp], eax
  0008c	db 45 f8	 fild	 DWORD PTR tv169[ebp]
  0008f	6a 01		 push	 1
  00091	85 c0		 test	 eax, eax
  00093	79 06		 jns	 SHORT $LN21@SetLoopSta
  00095	d8 05 00 00 00
	00		 fadd	 DWORD PTR __real@4f800000
$LN21@SetLoopSta:
  0009b	51		 push	 ecx
  0009c	8b cf		 mov	 ecx, edi
  0009e	d9 1c 24	 fstp	 DWORD PTR [esp]
  000a1	ff 15 00 00 00
	00		 call	 DWORD PTR __imp_?ClearAllActionAni@ioEntityGroup@@QAEXM_N@Z

; 198  : 	pGrp->SetLoopAni( iAniID, FLOAT100, FLOAT1, FLOAT1/fAniRate );

  000a7	b8 01 00 00 00	 mov	 eax, 1
  000ac	8b c8		 mov	 ecx, eax
  000ae	b8 01 00 00 00	 mov	 eax, 1
  000b3	8b d0		 mov	 edx, eax
  000b5	b8 64 00 00 00	 mov	 eax, 100		; 00000064H
  000ba	0f 57 c0	 xorps	 xmm0, xmm0
  000bd	83 ec 10	 sub	 esp, 16			; 00000010H
  000c0	89 4d f8	 mov	 DWORD PTR tv162[ebp], ecx
  000c3	db 45 f8	 fild	 DWORD PTR tv162[ebp]
  000c6	f3 0f 11 44 24
	0c		 movss	 DWORD PTR [esp+12], xmm0
  000cc	85 c9		 test	 ecx, ecx
  000ce	79 06		 jns	 SHORT $LN22@SetLoopSta
  000d0	d8 05 00 00 00
	00		 fadd	 DWORD PTR __real@4f800000
$LN22@SetLoopSta:
  000d6	d8 75 08	 fdiv	 DWORD PTR _fAniRate$[ebp]
  000d9	d9 5d 08	 fstp	 DWORD PTR tv78[ebp]
  000dc	d9 45 08	 fld	 DWORD PTR tv78[ebp]
  000df	d9 5c 24 08	 fstp	 DWORD PTR [esp+8]
  000e3	89 55 08	 mov	 DWORD PTR tv150[ebp], edx
  000e6	db 45 08	 fild	 DWORD PTR tv150[ebp]
  000e9	85 d2		 test	 edx, edx
  000eb	79 06		 jns	 SHORT $LN23@SetLoopSta
  000ed	d8 05 00 00 00
	00		 fadd	 DWORD PTR __real@4f800000
$LN23@SetLoopSta:
  000f3	89 45 08	 mov	 DWORD PTR tv154[ebp], eax
  000f6	d9 5c 24 04	 fstp	 DWORD PTR [esp+4]
  000fa	db 45 08	 fild	 DWORD PTR tv154[ebp]
  000fd	85 c0		 test	 eax, eax
  000ff	79 06		 jns	 SHORT $LN24@SetLoopSta
  00101	d8 05 00 00 00
	00		 fadd	 DWORD PTR __real@4f800000
$LN24@SetLoopSta:
  00107	d9 1c 24	 fstp	 DWORD PTR [esp]
  0010a	ff 75 fc	 push	 DWORD PTR _iAniID$[ebp]
  0010d	8b cf		 mov	 ecx, edi
  0010f	ff 15 00 00 00
	00		 call	 DWORD PTR __imp_?SetLoopAni@ioEntityGroup@@QAE_NHMMMM@Z

; 199  : 
; 200  : 	m_dwLoopStartTime = FRAMEGETTIME();	

  00115	ff 15 00 00 00
	00		 call	 DWORD PTR __imp_?GetSingleton@ioFrameTimer@@SAAAV1@XZ
  0011b	8b c8		 mov	 ecx, eax
  0011d	ff 15 00 00 00
	00		 call	 DWORD PTR __imp_?GetLoopSec@ioFrameTimer@@QBEKXZ
  00123	89 86 fc 10 00
	00		 mov	 DWORD PTR [esi+4348], eax
  00129	5f		 pop	 edi
$LN3@SetLoopSta:
  0012a	5e		 pop	 esi

; 201  : }

  0012b	c9		 leave
  0012c	c2 04 00	 ret	 4
?SetLoopState@ioCrecendoSkill@@IAEXPAVioBaseChar@@@Z ENDP ; ioCrecendoSkill::SetLoopState
_TEXT	ENDS
PUBLIC	__$ArrayPad$
PUBLIC	?CreateKeyEffect@ioCrecendoSkill@@IAEKPAVioBaseChar@@PAVioPlayStage@@K_N@Z ; ioCrecendoSkill::CreateKeyEffect
EXTRN	?GetUniqueID@ioMapEffect@@QBEKXZ:PROC		; ioMapEffect::GetUniqueID
EXTRN	?CreateMapEffect@ioPlayStage@@QAEPAVioMapEffect@@ABVioHashString@@ABUD3DXVECTOR3@@1@Z:PROC ; ioPlayStage::CreateMapEffect
EXTRN	__imp_?VEC3_ZERO@ioMath@@2UD3DXVECTOR3@@A:BYTE
EXTRN	___security_cookie:DWORD
EXTRN	@__security_check_cookie@4:PROC
; Function compile flags: /Ogsp
;	COMDAT ?CreateKeyEffect@ioCrecendoSkill@@IAEKPAVioBaseChar@@PAVioPlayStage@@K_N@Z
_TEXT	SEGMENT
tv649 = -128						; size = 4
tv646 = -128						; size = 4
tv643 = -128						; size = 4
tv633 = -128						; size = 4
tv630 = -128						; size = 4
tv627 = -128						; size = 4
tv617 = -128						; size = 4
tv614 = -128						; size = 4
tv611 = -128						; size = 4
tv601 = -128						; size = 4
tv598 = -128						; size = 4
tv595 = -128						; size = 4
tv585 = -128						; size = 4
tv582 = -128						; size = 4
tv579 = -128						; size = 4
tv569 = -128						; size = 4
tv566 = -128						; size = 4
tv563 = -128						; size = 4
tv553 = -128						; size = 4
tv550 = -128						; size = 4
tv547 = -128						; size = 4
tv534 = -128						; size = 4
tv531 = -128						; size = 4
tv521 = -128						; size = 4
tv518 = -128						; size = 4
tv515 = -128						; size = 4
tv473 = -128						; size = 4
tv470 = -128						; size = 4
tv467 = -128						; size = 4
tv95 = -128						; size = 4
$T533090 = -124						; size = 12
$T533053 = -112						; size = 12
$T533083 = -100						; size = 12
$T533038 = -88						; size = 12
$T533075 = -76						; size = 12
$T533045 = -64						; size = 12
$T533068 = -52						; size = 12
$T533030 = -40						; size = 12
$T533023 = -28						; size = 12
$T533060 = -16						; size = 12
__$ArrayPad$ = -4					; size = 4
_pChar$ = 8						; size = 4
_pStage$ = 12						; size = 4
_dwCurKey$ = 16						; size = 4
_bFailed$ = 20						; size = 1
?CreateKeyEffect@ioCrecendoSkill@@IAEKPAVioBaseChar@@PAVioPlayStage@@K_N@Z PROC ; ioCrecendoSkill::CreateKeyEffect, COMDAT
; _this$ = ecx

; 482  : {

  00000	55		 push	 ebp
  00001	8b ec		 mov	 ebp, esp
  00003	81 ec 80 00 00
	00		 sub	 esp, 128		; 00000080H
  00009	a1 00 00 00 00	 mov	 eax, DWORD PTR ___security_cookie
  0000e	33 c5		 xor	 eax, ebp
  00010	89 45 fc	 mov	 DWORD PTR __$ArrayPad$[ebp], eax

; 483  : 	switch( dwCurKey )

  00013	8b 45 10	 mov	 eax, DWORD PTR _dwCurKey$[ebp]
  00016	48		 dec	 eax
  00017	56		 push	 esi
  00018	8b d1		 mov	 edx, ecx
  0001a	8b 4d 0c	 mov	 ecx, DWORD PTR _pStage$[ebp]
  0001d	57		 push	 edi
  0001e	0f 84 00 03 00
	00		 je	 $LN25@CreateKeyE
  00024	48		 dec	 eax
  00025	0f 84 42 02 00
	00		 je	 $LN10@CreateKeyE
  0002b	48		 dec	 eax
  0002c	0f 84 81 01 00
	00		 je	 $LN20@CreateKeyE
  00032	48		 dec	 eax
  00033	0f 84 c0 00 00
	00		 je	 $LN15@CreateKeyE
  00039	48		 dec	 eax
  0003a	0f 85 b0 03 00
	00		 jne	 $LN21@CreateKeyE

; 561  : 				}
; 562  : 			}
; 563  : 		}
; 564  : 		break;
; 565  : 	case WKS_LAST:
; 566  : 		{
; 567  : 			if( bFailed )

  00040	38 45 14	 cmp	 BYTE PTR _bFailed$[ebp], al
  00043	74 5a		 je	 SHORT $LN4@CreateKeyE

; 568  : 			{
; 569  : 				ioMapEffect* pMapEffect = pStage->CreateMapEffect( m_szLastKeyFailedEffect, ioMath::VEC3_ZERO, D3DXVECTOR3( FLOAT1, FLOAT1, FLOAT1 ) );

  00045	b8 01 00 00 00	 mov	 eax, 1
  0004a	8b f0		 mov	 esi, eax
  0004c	b8 01 00 00 00	 mov	 eax, 1
  00051	8b f8		 mov	 edi, eax
  00053	b8 01 00 00 00	 mov	 eax, 1
  00058	89 45 80	 mov	 DWORD PTR tv649[ebp], eax
  0005b	db 45 80	 fild	 DWORD PTR tv649[ebp]
  0005e	85 c0		 test	 eax, eax
  00060	79 06		 jns	 SHORT $LN110@CreateKeyE
  00062	d8 05 00 00 00
	00		 fadd	 DWORD PTR __real@4f800000
$LN110@CreateKeyE:
  00068	89 7d 80	 mov	 DWORD PTR tv646[ebp], edi
  0006b	d9 5d 9c	 fstp	 DWORD PTR $T533083[ebp]
  0006e	db 45 80	 fild	 DWORD PTR tv646[ebp]
  00071	85 ff		 test	 edi, edi
  00073	79 06		 jns	 SHORT $LN111@CreateKeyE
  00075	d8 05 00 00 00
	00		 fadd	 DWORD PTR __real@4f800000
$LN111@CreateKeyE:
  0007b	89 75 80	 mov	 DWORD PTR tv643[ebp], esi
  0007e	d9 5d a0	 fstp	 DWORD PTR $T533083[ebp+4]
  00081	db 45 80	 fild	 DWORD PTR tv643[ebp]
  00084	85 f6		 test	 esi, esi
  00086	79 06		 jns	 SHORT $LN112@CreateKeyE
  00088	d8 05 00 00 00
	00		 fadd	 DWORD PTR __real@4f800000
$LN112@CreateKeyE:
  0008e	d9 5d a4	 fstp	 DWORD PTR $T533083[ebp+8]
  00091	8d 45 9c	 lea	 eax, DWORD PTR $T533083[ebp]
  00094	81 c2 34 12 00
	00		 add	 edx, 4660		; 00001234H

; 570  : 				if( pMapEffect )
; 571  : 				{
; 572  : 					return pMapEffect->GetUniqueID();

  0009a	e9 e0 02 00 00	 jmp	 $LN141@CreateKeyE
$LN4@CreateKeyE:

; 573  : 				}
; 574  : 			}
; 575  : 			else
; 576  : 			{
; 577  : 				ioMapEffect* pMapEffect = pStage->CreateMapEffect( m_szLastKeyEffect, ioMath::VEC3_ZERO, D3DXVECTOR3( FLOAT1, FLOAT1, FLOAT1 ) );

  0009f	b8 01 00 00 00	 mov	 eax, 1
  000a4	8b f0		 mov	 esi, eax
  000a6	b8 01 00 00 00	 mov	 eax, 1
  000ab	8b f8		 mov	 edi, eax
  000ad	b8 01 00 00 00	 mov	 eax, 1
  000b2	89 45 80	 mov	 DWORD PTR tv633[ebp], eax
  000b5	db 45 80	 fild	 DWORD PTR tv633[ebp]
  000b8	85 c0		 test	 eax, eax
  000ba	79 06		 jns	 SHORT $LN113@CreateKeyE
  000bc	d8 05 00 00 00
	00		 fadd	 DWORD PTR __real@4f800000
$LN113@CreateKeyE:
  000c2	89 7d 80	 mov	 DWORD PTR tv630[ebp], edi
  000c5	d9 5d 84	 fstp	 DWORD PTR $T533090[ebp]
  000c8	db 45 80	 fild	 DWORD PTR tv630[ebp]
  000cb	85 ff		 test	 edi, edi
  000cd	79 06		 jns	 SHORT $LN114@CreateKeyE
  000cf	d8 05 00 00 00
	00		 fadd	 DWORD PTR __real@4f800000
$LN114@CreateKeyE:
  000d5	89 75 80	 mov	 DWORD PTR tv627[ebp], esi
  000d8	d9 5d 88	 fstp	 DWORD PTR $T533090[ebp+4]
  000db	db 45 80	 fild	 DWORD PTR tv627[ebp]
  000de	85 f6		 test	 esi, esi
  000e0	79 06		 jns	 SHORT $LN115@CreateKeyE
  000e2	d8 05 00 00 00
	00		 fadd	 DWORD PTR __real@4f800000
$LN115@CreateKeyE:
  000e8	d9 5d 8c	 fstp	 DWORD PTR $T533090[ebp+8]
  000eb	8d 45 84	 lea	 eax, DWORD PTR $T533090[ebp]
  000ee	81 c2 e4 11 00
	00		 add	 edx, 4580		; 000011e4H

; 578  : 				if( pMapEffect )
; 579  : 				{
; 580  : 					return pMapEffect->GetUniqueID();

  000f4	e9 86 02 00 00	 jmp	 $LN141@CreateKeyE
$LN15@CreateKeyE:

; 521  : 				}
; 522  : 			}
; 523  : 		}
; 524  : 		break;
; 525  : 	case WKS_LEFT:
; 526  : 		{
; 527  : 			if( bFailed )

  000f9	80 7d 14 00	 cmp	 BYTE PTR _bFailed$[ebp], 0
  000fd	74 5a		 je	 SHORT $LN14@CreateKeyE

; 528  : 			{
; 529  : 				ioMapEffect* pMapEffect = pStage->CreateMapEffect( m_szLeftKeyFailedEffect, ioMath::VEC3_ZERO, D3DXVECTOR3( FLOAT1, FLOAT1, FLOAT1 ) );

  000ff	b8 01 00 00 00	 mov	 eax, 1
  00104	8b f0		 mov	 esi, eax
  00106	b8 01 00 00 00	 mov	 eax, 1
  0010b	8b f8		 mov	 edi, eax
  0010d	b8 01 00 00 00	 mov	 eax, 1
  00112	89 45 80	 mov	 DWORD PTR tv617[ebp], eax
  00115	db 45 80	 fild	 DWORD PTR tv617[ebp]
  00118	85 c0		 test	 eax, eax
  0011a	79 06		 jns	 SHORT $LN116@CreateKeyE
  0011c	d8 05 00 00 00
	00		 fadd	 DWORD PTR __real@4f800000
$LN116@CreateKeyE:
  00122	89 7d 80	 mov	 DWORD PTR tv614[ebp], edi
  00125	d9 5d 90	 fstp	 DWORD PTR $T533053[ebp]
  00128	db 45 80	 fild	 DWORD PTR tv614[ebp]
  0012b	85 ff		 test	 edi, edi
  0012d	79 06		 jns	 SHORT $LN117@CreateKeyE
  0012f	d8 05 00 00 00
	00		 fadd	 DWORD PTR __real@4f800000
$LN117@CreateKeyE:
  00135	89 75 80	 mov	 DWORD PTR tv611[ebp], esi
  00138	d9 5d 94	 fstp	 DWORD PTR $T533053[ebp+4]
  0013b	db 45 80	 fild	 DWORD PTR tv611[ebp]
  0013e	85 f6		 test	 esi, esi
  00140	79 06		 jns	 SHORT $LN118@CreateKeyE
  00142	d8 05 00 00 00
	00		 fadd	 DWORD PTR __real@4f800000
$LN118@CreateKeyE:
  00148	d9 5d 98	 fstp	 DWORD PTR $T533053[ebp+8]
  0014b	8d 45 90	 lea	 eax, DWORD PTR $T533053[ebp]
  0014e	81 c2 14 12 00
	00		 add	 edx, 4628		; 00001214H

; 530  : 				if( pMapEffect )
; 531  : 				{
; 532  : 					return pMapEffect->GetUniqueID();

  00154	e9 26 02 00 00	 jmp	 $LN141@CreateKeyE
$LN14@CreateKeyE:

; 533  : 				}
; 534  : 			}
; 535  : 			else
; 536  : 			{
; 537  : 				ioMapEffect* pMapEffect = pStage->CreateMapEffect( m_szLeftKeyEffect, ioMath::VEC3_ZERO, D3DXVECTOR3( FLOAT1, FLOAT1, FLOAT1 ) );

  00159	b8 01 00 00 00	 mov	 eax, 1
  0015e	8b f0		 mov	 esi, eax
  00160	b8 01 00 00 00	 mov	 eax, 1
  00165	8b f8		 mov	 edi, eax
  00167	b8 01 00 00 00	 mov	 eax, 1
  0016c	89 45 80	 mov	 DWORD PTR tv601[ebp], eax
  0016f	db 45 80	 fild	 DWORD PTR tv601[ebp]
  00172	85 c0		 test	 eax, eax
  00174	79 06		 jns	 SHORT $LN119@CreateKeyE
  00176	d8 05 00 00 00
	00		 fadd	 DWORD PTR __real@4f800000
$LN119@CreateKeyE:
  0017c	89 7d 80	 mov	 DWORD PTR tv598[ebp], edi
  0017f	d9 5d f0	 fstp	 DWORD PTR $T533060[ebp]
  00182	db 45 80	 fild	 DWORD PTR tv598[ebp]
  00185	85 ff		 test	 edi, edi
  00187	79 06		 jns	 SHORT $LN120@CreateKeyE
  00189	d8 05 00 00 00
	00		 fadd	 DWORD PTR __real@4f800000
$LN120@CreateKeyE:
  0018f	89 75 80	 mov	 DWORD PTR tv595[ebp], esi
  00192	d9 5d f4	 fstp	 DWORD PTR $T533060[ebp+4]
  00195	db 45 80	 fild	 DWORD PTR tv595[ebp]
  00198	85 f6		 test	 esi, esi
  0019a	79 06		 jns	 SHORT $LN121@CreateKeyE
  0019c	d8 05 00 00 00
	00		 fadd	 DWORD PTR __real@4f800000
$LN121@CreateKeyE:
  001a2	d9 5d f8	 fstp	 DWORD PTR $T533060[ebp+8]
  001a5	8d 45 f0	 lea	 eax, DWORD PTR $T533060[ebp]
  001a8	81 c2 c4 11 00
	00		 add	 edx, 4548		; 000011c4H

; 538  : 				if( pMapEffect )
; 539  : 				{
; 540  : 					return pMapEffect->GetUniqueID();

  001ae	e9 cc 01 00 00	 jmp	 $LN141@CreateKeyE
$LN20@CreateKeyE:

; 501  : 				}
; 502  : 			}
; 503  : 		}
; 504  : 		break;
; 505  : 	case WKS_DOWN:
; 506  : 		{
; 507  : 			if( bFailed )

  001b3	80 7d 14 00	 cmp	 BYTE PTR _bFailed$[ebp], 0
  001b7	74 5a		 je	 SHORT $LN19@CreateKeyE

; 508  : 			{
; 509  : 				ioMapEffect* pMapEffect = pStage->CreateMapEffect( m_szDownKeyFailedEffect, ioMath::VEC3_ZERO, D3DXVECTOR3( FLOAT1, FLOAT1, FLOAT1 ) );

  001b9	b8 01 00 00 00	 mov	 eax, 1
  001be	8b f0		 mov	 esi, eax
  001c0	b8 01 00 00 00	 mov	 eax, 1
  001c5	8b f8		 mov	 edi, eax
  001c7	b8 01 00 00 00	 mov	 eax, 1
  001cc	89 45 80	 mov	 DWORD PTR tv585[ebp], eax
  001cf	db 45 80	 fild	 DWORD PTR tv585[ebp]
  001d2	85 c0		 test	 eax, eax
  001d4	79 06		 jns	 SHORT $LN122@CreateKeyE
  001d6	d8 05 00 00 00
	00		 fadd	 DWORD PTR __real@4f800000
$LN122@CreateKeyE:
  001dc	89 7d 80	 mov	 DWORD PTR tv582[ebp], edi
  001df	d9 5d a8	 fstp	 DWORD PTR $T533038[ebp]
  001e2	db 45 80	 fild	 DWORD PTR tv582[ebp]
  001e5	85 ff		 test	 edi, edi
  001e7	79 06		 jns	 SHORT $LN123@CreateKeyE
  001e9	d8 05 00 00 00
	00		 fadd	 DWORD PTR __real@4f800000
$LN123@CreateKeyE:
  001ef	89 75 80	 mov	 DWORD PTR tv579[ebp], esi
  001f2	d9 5d ac	 fstp	 DWORD PTR $T533038[ebp+4]
  001f5	db 45 80	 fild	 DWORD PTR tv579[ebp]
  001f8	85 f6		 test	 esi, esi
  001fa	79 06		 jns	 SHORT $LN124@CreateKeyE
  001fc	d8 05 00 00 00
	00		 fadd	 DWORD PTR __real@4f800000
$LN124@CreateKeyE:
  00202	d9 5d b0	 fstp	 DWORD PTR $T533038[ebp+8]
  00205	8d 45 a8	 lea	 eax, DWORD PTR $T533038[ebp]
  00208	81 c2 04 12 00
	00		 add	 edx, 4612		; 00001204H

; 510  : 				if( pMapEffect )
; 511  : 				{
; 512  : 					return pMapEffect->GetUniqueID();

  0020e	e9 6c 01 00 00	 jmp	 $LN141@CreateKeyE
$LN19@CreateKeyE:

; 513  : 				}
; 514  : 			}
; 515  : 			else
; 516  : 			{
; 517  : 				ioMapEffect* pMapEffect = pStage->CreateMapEffect( m_szDownKeyEffect, ioMath::VEC3_ZERO, D3DXVECTOR3( FLOAT1, FLOAT1, FLOAT1 ) );

  00213	b8 01 00 00 00	 mov	 eax, 1
  00218	8b f0		 mov	 esi, eax
  0021a	b8 01 00 00 00	 mov	 eax, 1
  0021f	8b f8		 mov	 edi, eax
  00221	b8 01 00 00 00	 mov	 eax, 1
  00226	89 45 80	 mov	 DWORD PTR tv569[ebp], eax
  00229	db 45 80	 fild	 DWORD PTR tv569[ebp]
  0022c	85 c0		 test	 eax, eax
  0022e	79 06		 jns	 SHORT $LN125@CreateKeyE
  00230	d8 05 00 00 00
	00		 fadd	 DWORD PTR __real@4f800000
$LN125@CreateKeyE:
  00236	89 7d 80	 mov	 DWORD PTR tv566[ebp], edi
  00239	d9 5d c0	 fstp	 DWORD PTR $T533045[ebp]
  0023c	db 45 80	 fild	 DWORD PTR tv566[ebp]
  0023f	85 ff		 test	 edi, edi
  00241	79 06		 jns	 SHORT $LN126@CreateKeyE
  00243	d8 05 00 00 00
	00		 fadd	 DWORD PTR __real@4f800000
$LN126@CreateKeyE:
  00249	89 75 80	 mov	 DWORD PTR tv563[ebp], esi
  0024c	d9 5d c4	 fstp	 DWORD PTR $T533045[ebp+4]
  0024f	db 45 80	 fild	 DWORD PTR tv563[ebp]
  00252	85 f6		 test	 esi, esi
  00254	79 06		 jns	 SHORT $LN127@CreateKeyE
  00256	d8 05 00 00 00
	00		 fadd	 DWORD PTR __real@4f800000
$LN127@CreateKeyE:
  0025c	d9 5d c8	 fstp	 DWORD PTR $T533045[ebp+8]
  0025f	8d 45 c0	 lea	 eax, DWORD PTR $T533045[ebp]
  00262	81 c2 b4 11 00
	00		 add	 edx, 4532		; 000011b4H

; 518  : 				if( pMapEffect )
; 519  : 				{
; 520  : 					return pMapEffect->GetUniqueID();

  00268	e9 12 01 00 00	 jmp	 $LN141@CreateKeyE
$LN10@CreateKeyE:

; 541  : 				}
; 542  : 			}
; 543  : 		}
; 544  : 		break;
; 545  : 	case WKS_RIGHT:
; 546  : 		{
; 547  : 			if( bFailed )

  0026d	80 7d 14 00	 cmp	 BYTE PTR _bFailed$[ebp], 0
  00271	74 5a		 je	 SHORT $LN9@CreateKeyE

; 548  : 			{
; 549  : 				ioMapEffect* pMapEffect = pStage->CreateMapEffect( m_szRightKeyFailedEffect, ioMath::VEC3_ZERO, D3DXVECTOR3( FLOAT1, FLOAT1, FLOAT1 ) );

  00273	b8 01 00 00 00	 mov	 eax, 1
  00278	8b f0		 mov	 esi, eax
  0027a	b8 01 00 00 00	 mov	 eax, 1
  0027f	8b f8		 mov	 edi, eax
  00281	b8 01 00 00 00	 mov	 eax, 1
  00286	89 45 80	 mov	 DWORD PTR tv553[ebp], eax
  00289	db 45 80	 fild	 DWORD PTR tv553[ebp]
  0028c	85 c0		 test	 eax, eax
  0028e	79 06		 jns	 SHORT $LN128@CreateKeyE
  00290	d8 05 00 00 00
	00		 fadd	 DWORD PTR __real@4f800000
$LN128@CreateKeyE:
  00296	89 7d 80	 mov	 DWORD PTR tv550[ebp], edi
  00299	d9 5d cc	 fstp	 DWORD PTR $T533068[ebp]
  0029c	db 45 80	 fild	 DWORD PTR tv550[ebp]
  0029f	85 ff		 test	 edi, edi
  002a1	79 06		 jns	 SHORT $LN129@CreateKeyE
  002a3	d8 05 00 00 00
	00		 fadd	 DWORD PTR __real@4f800000
$LN129@CreateKeyE:
  002a9	89 75 80	 mov	 DWORD PTR tv547[ebp], esi
  002ac	d9 5d d0	 fstp	 DWORD PTR $T533068[ebp+4]
  002af	db 45 80	 fild	 DWORD PTR tv547[ebp]
  002b2	85 f6		 test	 esi, esi
  002b4	79 06		 jns	 SHORT $LN130@CreateKeyE
  002b6	d8 05 00 00 00
	00		 fadd	 DWORD PTR __real@4f800000
$LN130@CreateKeyE:
  002bc	d9 5d d4	 fstp	 DWORD PTR $T533068[ebp+8]
  002bf	8d 45 cc	 lea	 eax, DWORD PTR $T533068[ebp]
  002c2	81 c2 24 12 00
	00		 add	 edx, 4644		; 00001224H

; 550  : 				if( pMapEffect )
; 551  : 				{
; 552  : 					return pMapEffect->GetUniqueID();

  002c8	e9 b2 00 00 00	 jmp	 $LN141@CreateKeyE
$LN9@CreateKeyE:

; 553  : 				}
; 554  : 			}
; 555  : 			else
; 556  : 			{
; 557  : 				ioMapEffect* pMapEffect = pStage->CreateMapEffect( m_szRightKeyEffect, ioMath::VEC3_ZERO, D3DXVECTOR3( FLOAT1, FLOAT1, FLOAT1 ) );

  002cd	b8 01 00 00 00	 mov	 eax, 1
  002d2	8b f0		 mov	 esi, eax
  002d4	b8 01 00 00 00	 mov	 eax, 1
  002d9	8b f8		 mov	 edi, eax
  002db	b8 01 00 00 00	 mov	 eax, 1
  002e0	89 45 80	 mov	 DWORD PTR tv95[ebp], eax
  002e3	db 45 80	 fild	 DWORD PTR tv95[ebp]
  002e6	85 c0		 test	 eax, eax
  002e8	79 06		 jns	 SHORT $LN131@CreateKeyE
  002ea	d8 05 00 00 00
	00		 fadd	 DWORD PTR __real@4f800000
$LN131@CreateKeyE:
  002f0	89 7d 80	 mov	 DWORD PTR tv534[ebp], edi
  002f3	d9 5d b4	 fstp	 DWORD PTR $T533075[ebp]
  002f6	db 45 80	 fild	 DWORD PTR tv534[ebp]
  002f9	85 ff		 test	 edi, edi
  002fb	79 06		 jns	 SHORT $LN132@CreateKeyE
  002fd	d8 05 00 00 00
	00		 fadd	 DWORD PTR __real@4f800000
$LN132@CreateKeyE:
  00303	89 75 80	 mov	 DWORD PTR tv531[ebp], esi
  00306	d9 5d b8	 fstp	 DWORD PTR $T533075[ebp+4]
  00309	db 45 80	 fild	 DWORD PTR tv531[ebp]
  0030c	85 f6		 test	 esi, esi
  0030e	79 06		 jns	 SHORT $LN133@CreateKeyE
  00310	d8 05 00 00 00
	00		 fadd	 DWORD PTR __real@4f800000
$LN133@CreateKeyE:
  00316	d9 5d bc	 fstp	 DWORD PTR $T533075[ebp+8]
  00319	8d 45 b4	 lea	 eax, DWORD PTR $T533075[ebp]
  0031c	81 c2 d4 11 00
	00		 add	 edx, 4564		; 000011d4H

; 558  : 				if( pMapEffect )
; 559  : 				{
; 560  : 					return pMapEffect->GetUniqueID();

  00322	eb 5b		 jmp	 SHORT $LN141@CreateKeyE
$LN25@CreateKeyE:

; 484  : 	{
; 485  : 	case WKS_UP:
; 486  : 		{
; 487  : 			if( bFailed )

  00324	80 7d 14 00	 cmp	 BYTE PTR _bFailed$[ebp], 0
  00328	74 6f		 je	 SHORT $LN24@CreateKeyE

; 488  : 			{
; 489  : 				ioMapEffect* pMapEffect = pStage->CreateMapEffect( m_szUpKeyFailedEffect, ioMath::VEC3_ZERO, D3DXVECTOR3( FLOAT1, FLOAT1, FLOAT1 ) );

  0032a	b8 01 00 00 00	 mov	 eax, 1
  0032f	8b f0		 mov	 esi, eax
  00331	b8 01 00 00 00	 mov	 eax, 1
  00336	8b f8		 mov	 edi, eax
  00338	b8 01 00 00 00	 mov	 eax, 1
  0033d	89 45 80	 mov	 DWORD PTR tv521[ebp], eax
  00340	db 45 80	 fild	 DWORD PTR tv521[ebp]
  00343	85 c0		 test	 eax, eax
  00345	79 06		 jns	 SHORT $LN134@CreateKeyE
  00347	d8 05 00 00 00
	00		 fadd	 DWORD PTR __real@4f800000
$LN134@CreateKeyE:
  0034d	89 7d 80	 mov	 DWORD PTR tv518[ebp], edi
  00350	d9 5d e4	 fstp	 DWORD PTR $T533023[ebp]
  00353	db 45 80	 fild	 DWORD PTR tv518[ebp]
  00356	85 ff		 test	 edi, edi
  00358	79 06		 jns	 SHORT $LN135@CreateKeyE
  0035a	d8 05 00 00 00
	00		 fadd	 DWORD PTR __real@4f800000
$LN135@CreateKeyE:
  00360	89 75 80	 mov	 DWORD PTR tv515[ebp], esi
  00363	d9 5d e8	 fstp	 DWORD PTR $T533023[ebp+4]
  00366	db 45 80	 fild	 DWORD PTR tv515[ebp]
  00369	85 f6		 test	 esi, esi
  0036b	79 06		 jns	 SHORT $LN136@CreateKeyE
  0036d	d8 05 00 00 00
	00		 fadd	 DWORD PTR __real@4f800000
$LN136@CreateKeyE:
  00373	d9 5d ec	 fstp	 DWORD PTR $T533023[ebp+8]
  00376	8d 45 e4	 lea	 eax, DWORD PTR $T533023[ebp]
  00379	81 c2 f4 11 00
	00		 add	 edx, 4596		; 000011f4H
$LN141@CreateKeyE:
  0037f	50		 push	 eax
  00380	ff 35 00 00 00
	00		 push	 DWORD PTR __imp_?VEC3_ZERO@ioMath@@2UD3DXVECTOR3@@A
  00386	52		 push	 edx
  00387	e8 00 00 00 00	 call	 ?CreateMapEffect@ioPlayStage@@QAEPAVioMapEffect@@ABVioHashString@@ABUD3DXVECTOR3@@1@Z ; ioPlayStage::CreateMapEffect

; 490  : 				if( pMapEffect )

  0038c	85 c0		 test	 eax, eax
  0038e	74 60		 je	 SHORT $LN21@CreateKeyE

; 491  : 				{
; 492  : 					return pMapEffect->GetUniqueID();

  00390	8b c8		 mov	 ecx, eax
  00392	e8 00 00 00 00	 call	 ?GetUniqueID@ioMapEffect@@QBEKXZ ; ioMapEffect::GetUniqueID
  00397	eb 5a		 jmp	 SHORT $LN28@CreateKeyE
$LN24@CreateKeyE:

; 493  : 				}
; 494  : 			}
; 495  : 			else
; 496  : 			{
; 497  : 				ioMapEffect* pMapEffect = pStage->CreateMapEffect( m_szUpKeyEffect, ioMath::VEC3_ZERO, D3DXVECTOR3( FLOAT1, FLOAT1, FLOAT1 ) );

  00399	b8 01 00 00 00	 mov	 eax, 1
  0039e	8b f0		 mov	 esi, eax
  003a0	b8 01 00 00 00	 mov	 eax, 1
  003a5	8b f8		 mov	 edi, eax
  003a7	b8 01 00 00 00	 mov	 eax, 1
  003ac	89 45 80	 mov	 DWORD PTR tv473[ebp], eax
  003af	db 45 80	 fild	 DWORD PTR tv473[ebp]
  003b2	85 c0		 test	 eax, eax
  003b4	79 06		 jns	 SHORT $LN137@CreateKeyE
  003b6	d8 05 00 00 00
	00		 fadd	 DWORD PTR __real@4f800000
$LN137@CreateKeyE:
  003bc	89 7d 80	 mov	 DWORD PTR tv470[ebp], edi
  003bf	d9 5d d8	 fstp	 DWORD PTR $T533030[ebp]
  003c2	db 45 80	 fild	 DWORD PTR tv470[ebp]
  003c5	85 ff		 test	 edi, edi
  003c7	79 06		 jns	 SHORT $LN138@CreateKeyE
  003c9	d8 05 00 00 00
	00		 fadd	 DWORD PTR __real@4f800000
$LN138@CreateKeyE:
  003cf	89 75 80	 mov	 DWORD PTR tv467[ebp], esi
  003d2	d9 5d dc	 fstp	 DWORD PTR $T533030[ebp+4]
  003d5	db 45 80	 fild	 DWORD PTR tv467[ebp]
  003d8	85 f6		 test	 esi, esi
  003da	79 06		 jns	 SHORT $LN139@CreateKeyE
  003dc	d8 05 00 00 00
	00		 fadd	 DWORD PTR __real@4f800000
$LN139@CreateKeyE:
  003e2	d9 5d e0	 fstp	 DWORD PTR $T533030[ebp+8]
  003e5	8d 45 d8	 lea	 eax, DWORD PTR $T533030[ebp]
  003e8	81 c2 a4 11 00
	00		 add	 edx, 4516		; 000011a4H

; 498  : 				if( pMapEffect )
; 499  : 				{
; 500  : 					return pMapEffect->GetUniqueID();

  003ee	eb 8f		 jmp	 SHORT $LN141@CreateKeyE
$LN21@CreateKeyE:

; 581  : 				}
; 582  : 			}
; 583  : 		}
; 584  : 		break;
; 585  : 	}
; 586  : 
; 587  : 	return -1;

  003f0	83 c8 ff	 or	 eax, -1
$LN28@CreateKeyE:

; 588  : }

  003f3	8b 4d fc	 mov	 ecx, DWORD PTR __$ArrayPad$[ebp]
  003f6	5f		 pop	 edi
  003f7	33 cd		 xor	 ecx, ebp
  003f9	5e		 pop	 esi
  003fa	e8 00 00 00 00	 call	 @__security_check_cookie@4
  003ff	c9		 leave
  00400	c2 10 00	 ret	 16			; 00000010H
?CreateKeyEffect@ioCrecendoSkill@@IAEKPAVioBaseChar@@PAVioPlayStage@@K_N@Z ENDP ; ioCrecendoSkill::CreateKeyEffect
_TEXT	ENDS
PUBLIC	?begin@?$vector@UWeaponInfo@@V?$allocator@UWeaponInfo@@@std@@@std@@QBE?AV?$_Vector_const_iterator@V?$_Vector_val@UWeaponInfo@@V?$allocator@UWeaponInfo@@@std@@@std@@@2@XZ ; std::vector<WeaponInfo,std::allocator<WeaponInfo> >::begin
; Function compile flags: /Ogsp
; File c:\program files (x86)\microsoft visual studio 10.0\vc\include\vector
;	COMDAT ?begin@?$vector@UWeaponInfo@@V?$allocator@UWeaponInfo@@@std@@@std@@QBE?AV?$_Vector_const_iterator@V?$_Vector_val@UWeaponInfo@@V?$allocator@UWeaponInfo@@@std@@@std@@@2@XZ
_TEXT	SEGMENT
___$ReturnUdt$ = 8					; size = 4
?begin@?$vector@UWeaponInfo@@V?$allocator@UWeaponInfo@@@std@@@std@@QBE?AV?$_Vector_const_iterator@V?$_Vector_val@UWeaponInfo@@V?$allocator@UWeaponInfo@@@std@@@std@@@2@XZ PROC ; std::vector<WeaponInfo,std::allocator<WeaponInfo> >::begin, COMDAT
; _this$ = ecx

; 786  : 		{	// return iterator for beginning of nonmutable sequence

  00000	55		 push	 ebp
  00001	8b ec		 mov	 ebp, esp

; 787  : 		return (const_iterator(this->_Myfirst, this));

  00003	8b 09		 mov	 ecx, DWORD PTR [ecx]
  00005	8b 45 08	 mov	 eax, DWORD PTR ___$ReturnUdt$[ebp]
  00008	89 08		 mov	 DWORD PTR [eax], ecx

; 788  : 		}

  0000a	5d		 pop	 ebp
  0000b	c2 04 00	 ret	 4
?begin@?$vector@UWeaponInfo@@V?$allocator@UWeaponInfo@@@std@@@std@@QBE?AV?$_Vector_const_iterator@V?$_Vector_val@UWeaponInfo@@V?$allocator@UWeaponInfo@@@std@@@std@@@2@XZ ENDP ; std::vector<WeaponInfo,std::allocator<WeaponInfo> >::begin
_TEXT	ENDS
PUBLIC	?end@?$vector@UWeaponInfo@@V?$allocator@UWeaponInfo@@@std@@@std@@QBE?AV?$_Vector_const_iterator@V?$_Vector_val@UWeaponInfo@@V?$allocator@UWeaponInfo@@@std@@@std@@@2@XZ ; std::vector<WeaponInfo,std::allocator<WeaponInfo> >::end
; Function compile flags: /Ogsp
;	COMDAT ?end@?$vector@UWeaponInfo@@V?$allocator@UWeaponInfo@@@std@@@std@@QBE?AV?$_Vector_const_iterator@V?$_Vector_val@UWeaponInfo@@V?$allocator@UWeaponInfo@@@std@@@std@@@2@XZ
_TEXT	SEGMENT
___$ReturnUdt$ = 8					; size = 4
?end@?$vector@UWeaponInfo@@V?$allocator@UWeaponInfo@@@std@@@std@@QBE?AV?$_Vector_const_iterator@V?$_Vector_val@UWeaponInfo@@V?$allocator@UWeaponInfo@@@std@@@std@@@2@XZ PROC ; std::vector<WeaponInfo,std::allocator<WeaponInfo> >::end, COMDAT
; _this$ = ecx

; 796  : 		{	// return iterator for end of nonmutable sequence

  00000	55		 push	 ebp
  00001	8b ec		 mov	 ebp, esp

; 797  : 		return (const_iterator(this->_Mylast, this));

  00003	8b 49 04	 mov	 ecx, DWORD PTR [ecx+4]
  00006	8b 45 08	 mov	 eax, DWORD PTR ___$ReturnUdt$[ebp]
  00009	89 08		 mov	 DWORD PTR [eax], ecx

; 798  : 		}

  0000b	5d		 pop	 ebp
  0000c	c2 04 00	 ret	 4
?end@?$vector@UWeaponInfo@@V?$allocator@UWeaponInfo@@@std@@@std@@QBE?AV?$_Vector_const_iterator@V?$_Vector_val@UWeaponInfo@@V?$allocator@UWeaponInfo@@@std@@@std@@@2@XZ ENDP ; std::vector<WeaponInfo,std::allocator<WeaponInfo> >::end
_TEXT	ENDS
PUBLIC	?begin@?$vector@PAVioBaseChar@@V?$allocator@PAVioBaseChar@@@std@@@std@@QBE?AV?$_Vector_const_iterator@V?$_Vector_val@PAVioBaseChar@@V?$allocator@PAVioBaseChar@@@std@@@std@@@2@XZ ; std::vector<ioBaseChar *,std::allocator<ioBaseChar *> >::begin
; Function compile flags: /Ogsp
;	COMDAT ?begin@?$vector@PAVioBaseChar@@V?$allocator@PAVioBaseChar@@@std@@@std@@QBE?AV?$_Vector_const_iterator@V?$_Vector_val@PAVioBaseChar@@V?$allocator@PAVioBaseChar@@@std@@@std@@@2@XZ
_TEXT	SEGMENT
___$ReturnUdt$ = 8					; size = 4
?begin@?$vector@PAVioBaseChar@@V?$allocator@PAVioBaseChar@@@std@@@std@@QBE?AV?$_Vector_const_iterator@V?$_Vector_val@PAVioBaseChar@@V?$allocator@PAVioBaseChar@@@std@@@std@@@2@XZ PROC ; std::vector<ioBaseChar *,std::allocator<ioBaseChar *> >::begin, COMDAT
; _this$ = ecx

; 786  : 		{	// return iterator for beginning of nonmutable sequence

  00000	55		 push	 ebp
  00001	8b ec		 mov	 ebp, esp

; 787  : 		return (const_iterator(this->_Myfirst, this));

  00003	8b 09		 mov	 ecx, DWORD PTR [ecx]
  00005	8b 45 08	 mov	 eax, DWORD PTR ___$ReturnUdt$[ebp]
  00008	89 08		 mov	 DWORD PTR [eax], ecx

; 788  : 		}

  0000a	5d		 pop	 ebp
  0000b	c2 04 00	 ret	 4
?begin@?$vector@PAVioBaseChar@@V?$allocator@PAVioBaseChar@@@std@@@std@@QBE?AV?$_Vector_const_iterator@V?$_Vector_val@PAVioBaseChar@@V?$allocator@PAVioBaseChar@@@std@@@std@@@2@XZ ENDP ; std::vector<ioBaseChar *,std::allocator<ioBaseChar *> >::begin
_TEXT	ENDS
PUBLIC	?end@?$vector@PAVioBaseChar@@V?$allocator@PAVioBaseChar@@@std@@@std@@QBE?AV?$_Vector_const_iterator@V?$_Vector_val@PAVioBaseChar@@V?$allocator@PAVioBaseChar@@@std@@@std@@@2@XZ ; std::vector<ioBaseChar *,std::allocator<ioBaseChar *> >::end
; Function compile flags: /Ogsp
;	COMDAT ?end@?$vector@PAVioBaseChar@@V?$allocator@PAVioBaseChar@@@std@@@std@@QBE?AV?$_Vector_const_iterator@V?$_Vector_val@PAVioBaseChar@@V?$allocator@PAVioBaseChar@@@std@@@std@@@2@XZ
_TEXT	SEGMENT
___$ReturnUdt$ = 8					; size = 4
?end@?$vector@PAVioBaseChar@@V?$allocator@PAVioBaseChar@@@std@@@std@@QBE?AV?$_Vector_const_iterator@V?$_Vector_val@PAVioBaseChar@@V?$allocator@PAVioBaseChar@@@std@@@std@@@2@XZ PROC ; std::vector<ioBaseChar *,std::allocator<ioBaseChar *> >::end, COMDAT
; _this$ = ecx

; 796  : 		{	// return iterator for end of nonmutable sequence

  00000	55		 push	 ebp
  00001	8b ec		 mov	 ebp, esp

; 797  : 		return (const_iterator(this->_Mylast, this));

  00003	8b 49 04	 mov	 ecx, DWORD PTR [ecx+4]
  00006	8b 45 08	 mov	 eax, DWORD PTR ___$ReturnUdt$[ebp]
  00009	89 08		 mov	 DWORD PTR [eax], ecx

; 798  : 		}

  0000b	5d		 pop	 ebp
  0000c	c2 04 00	 ret	 4
?end@?$vector@PAVioBaseChar@@V?$allocator@PAVioBaseChar@@@std@@@std@@QBE?AV?$_Vector_const_iterator@V?$_Vector_val@PAVioBaseChar@@V?$allocator@PAVioBaseChar@@@std@@@std@@@2@XZ ENDP ; std::vector<ioBaseChar *,std::allocator<ioBaseChar *> >::end
_TEXT	ENDS
PUBLIC	??D?$_Vector_iterator@V?$_Vector_val@UWaveKey@ioCrecendoSkill@@V?$allocator@UWaveKey@ioCrecendoSkill@@@std@@@std@@@std@@QBEAAUWaveKey@ioCrecendoSkill@@XZ ; std::_Vector_iterator<std::_Vector_val<ioCrecendoSkill::WaveKey,std::allocator<ioCrecendoSkill::WaveKey> > >::operator*
; Function compile flags: /Ogsp
;	COMDAT ??D?$_Vector_iterator@V?$_Vector_val@UWaveKey@ioCrecendoSkill@@V?$allocator@UWaveKey@ioCrecendoSkill@@@std@@@std@@@std@@QBEAAUWaveKey@ioCrecendoSkill@@XZ
_TEXT	SEGMENT
??D?$_Vector_iterator@V?$_Vector_val@UWaveKey@ioCrecendoSkill@@V?$allocator@UWaveKey@ioCrecendoSkill@@@std@@@std@@@std@@QBEAAUWaveKey@ioCrecendoSkill@@XZ PROC ; std::_Vector_iterator<std::_Vector_val<ioCrecendoSkill::WaveKey,std::allocator<ioCrecendoSkill::WaveKey> > >::operator*, COMDAT
; _this$ = ecx

; 322  : 		return ((reference)**(_Mybase *)this);

  00000	8b 01		 mov	 eax, DWORD PTR [ecx]

; 323  : 		}

  00002	c3		 ret	 0
??D?$_Vector_iterator@V?$_Vector_val@UWaveKey@ioCrecendoSkill@@V?$allocator@UWaveKey@ioCrecendoSkill@@@std@@@std@@@std@@QBEAAUWaveKey@ioCrecendoSkill@@XZ ENDP ; std::_Vector_iterator<std::_Vector_val<ioCrecendoSkill::WaveKey,std::allocator<ioCrecendoSkill::WaveKey> > >::operator*
_TEXT	ENDS
PUBLIC	??E?$_Vector_iterator@V?$_Vector_val@UWaveKey@ioCrecendoSkill@@V?$allocator@UWaveKey@ioCrecendoSkill@@@std@@@std@@@std@@QAEAAV01@XZ ; std::_Vector_iterator<std::_Vector_val<ioCrecendoSkill::WaveKey,std::allocator<ioCrecendoSkill::WaveKey> > >::operator++
; Function compile flags: /Ogsp
;	COMDAT ??E?$_Vector_iterator@V?$_Vector_val@UWaveKey@ioCrecendoSkill@@V?$allocator@UWaveKey@ioCrecendoSkill@@@std@@@std@@@std@@QAEAAV01@XZ
_TEXT	SEGMENT
??E?$_Vector_iterator@V?$_Vector_val@UWaveKey@ioCrecendoSkill@@V?$allocator@UWaveKey@ioCrecendoSkill@@@std@@@std@@@std@@QAEAAV01@XZ PROC ; std::_Vector_iterator<std::_Vector_val<ioCrecendoSkill::WaveKey,std::allocator<ioCrecendoSkill::WaveKey> > >::operator++, COMDAT
; _this$ = ecx

; 331  : 		{	// preincrement

  00000	8b c1		 mov	 eax, ecx

; 332  : 		++*(_Mybase *)this;

  00002	83 00 6c	 add	 DWORD PTR [eax], 108	; 0000006cH

; 333  : 		return (*this);
; 334  : 		}

  00005	c3		 ret	 0
??E?$_Vector_iterator@V?$_Vector_val@UWaveKey@ioCrecendoSkill@@V?$allocator@UWaveKey@ioCrecendoSkill@@@std@@@std@@@std@@QAEAAV01@XZ ENDP ; std::_Vector_iterator<std::_Vector_val<ioCrecendoSkill::WaveKey,std::allocator<ioCrecendoSkill::WaveKey> > >::operator++
_TEXT	ENDS
PUBLIC	?begin@?$vector@UForceInfo@@V?$allocator@UForceInfo@@@std@@@std@@QBE?AV?$_Vector_const_iterator@V?$_Vector_val@UForceInfo@@V?$allocator@UForceInfo@@@std@@@std@@@2@XZ ; std::vector<ForceInfo,std::allocator<ForceInfo> >::begin
; Function compile flags: /Ogsp
;	COMDAT ?begin@?$vector@UForceInfo@@V?$allocator@UForceInfo@@@std@@@std@@QBE?AV?$_Vector_const_iterator@V?$_Vector_val@UForceInfo@@V?$allocator@UForceInfo@@@std@@@std@@@2@XZ
_TEXT	SEGMENT
___$ReturnUdt$ = 8					; size = 4
?begin@?$vector@UForceInfo@@V?$allocator@UForceInfo@@@std@@@std@@QBE?AV?$_Vector_const_iterator@V?$_Vector_val@UForceInfo@@V?$allocator@UForceInfo@@@std@@@std@@@2@XZ PROC ; std::vector<ForceInfo,std::allocator<ForceInfo> >::begin, COMDAT
; _this$ = ecx

; 786  : 		{	// return iterator for beginning of nonmutable sequence

  00000	55		 push	 ebp
  00001	8b ec		 mov	 ebp, esp

; 787  : 		return (const_iterator(this->_Myfirst, this));

  00003	8b 09		 mov	 ecx, DWORD PTR [ecx]
  00005	8b 45 08	 mov	 eax, DWORD PTR ___$ReturnUdt$[ebp]
  00008	89 08		 mov	 DWORD PTR [eax], ecx

; 788  : 		}

  0000a	5d		 pop	 ebp
  0000b	c2 04 00	 ret	 4
?begin@?$vector@UForceInfo@@V?$allocator@UForceInfo@@@std@@@std@@QBE?AV?$_Vector_const_iterator@V?$_Vector_val@UForceInfo@@V?$allocator@UForceInfo@@@std@@@std@@@2@XZ ENDP ; std::vector<ForceInfo,std::allocator<ForceInfo> >::begin
_TEXT	ENDS
PUBLIC	?end@?$vector@UForceInfo@@V?$allocator@UForceInfo@@@std@@@std@@QBE?AV?$_Vector_const_iterator@V?$_Vector_val@UForceInfo@@V?$allocator@UForceInfo@@@std@@@std@@@2@XZ ; std::vector<ForceInfo,std::allocator<ForceInfo> >::end
; Function compile flags: /Ogsp
;	COMDAT ?end@?$vector@UForceInfo@@V?$allocator@UForceInfo@@@std@@@std@@QBE?AV?$_Vector_const_iterator@V?$_Vector_val@UForceInfo@@V?$allocator@UForceInfo@@@std@@@std@@@2@XZ
_TEXT	SEGMENT
___$ReturnUdt$ = 8					; size = 4
?end@?$vector@UForceInfo@@V?$allocator@UForceInfo@@@std@@@std@@QBE?AV?$_Vector_const_iterator@V?$_Vector_val@UForceInfo@@V?$allocator@UForceInfo@@@std@@@std@@@2@XZ PROC ; std::vector<ForceInfo,std::allocator<ForceInfo> >::end, COMDAT
; _this$ = ecx

; 796  : 		{	// return iterator for end of nonmutable sequence

  00000	55		 push	 ebp
  00001	8b ec		 mov	 ebp, esp

; 797  : 		return (const_iterator(this->_Mylast, this));

  00003	8b 49 04	 mov	 ecx, DWORD PTR [ecx+4]
  00006	8b 45 08	 mov	 eax, DWORD PTR ___$ReturnUdt$[ebp]
  00009	89 08		 mov	 DWORD PTR [eax], ecx

; 798  : 		}

  0000b	5d		 pop	 ebp
  0000c	c2 04 00	 ret	 4
?end@?$vector@UForceInfo@@V?$allocator@UForceInfo@@@std@@@std@@QBE?AV?$_Vector_const_iterator@V?$_Vector_val@UForceInfo@@V?$allocator@UForceInfo@@@std@@@std@@@2@XZ ENDP ; std::vector<ForceInfo,std::allocator<ForceInfo> >::end
_TEXT	ENDS
PUBLIC	?begin@?$vector@UWaveKey@ioCrecendoSkill@@V?$allocator@UWaveKey@ioCrecendoSkill@@@std@@@std@@QBE?AV?$_Vector_const_iterator@V?$_Vector_val@UWaveKey@ioCrecendoSkill@@V?$allocator@UWaveKey@ioCrecendoSkill@@@std@@@std@@@2@XZ ; std::vector<ioCrecendoSkill::WaveKey,std::allocator<ioCrecendoSkill::WaveKey> >::begin
; Function compile flags: /Ogsp
;	COMDAT ?begin@?$vector@UWaveKey@ioCrecendoSkill@@V?$allocator@UWaveKey@ioCrecendoSkill@@@std@@@std@@QBE?AV?$_Vector_const_iterator@V?$_Vector_val@UWaveKey@ioCrecendoSkill@@V?$allocator@UWaveKey@ioCrecendoSkill@@@std@@@std@@@2@XZ
_TEXT	SEGMENT
___$ReturnUdt$ = 8					; size = 4
?begin@?$vector@UWaveKey@ioCrecendoSkill@@V?$allocator@UWaveKey@ioCrecendoSkill@@@std@@@std@@QBE?AV?$_Vector_const_iterator@V?$_Vector_val@UWaveKey@ioCrecendoSkill@@V?$allocator@UWaveKey@ioCrecendoSkill@@@std@@@std@@@2@XZ PROC ; std::vector<ioCrecendoSkill::WaveKey,std::allocator<ioCrecendoSkill::WaveKey> >::begin, COMDAT
; _this$ = ecx

; 786  : 		{	// return iterator for beginning of nonmutable sequence

  00000	55		 push	 ebp
  00001	8b ec		 mov	 ebp, esp

; 787  : 		return (const_iterator(this->_Myfirst, this));

  00003	8b 09		 mov	 ecx, DWORD PTR [ecx]
  00005	8b 45 08	 mov	 eax, DWORD PTR ___$ReturnUdt$[ebp]
  00008	89 08		 mov	 DWORD PTR [eax], ecx

; 788  : 		}

  0000a	5d		 pop	 ebp
  0000b	c2 04 00	 ret	 4
?begin@?$vector@UWaveKey@ioCrecendoSkill@@V?$allocator@UWaveKey@ioCrecendoSkill@@@std@@@std@@QBE?AV?$_Vector_const_iterator@V?$_Vector_val@UWaveKey@ioCrecendoSkill@@V?$allocator@UWaveKey@ioCrecendoSkill@@@std@@@std@@@2@XZ ENDP ; std::vector<ioCrecendoSkill::WaveKey,std::allocator<ioCrecendoSkill::WaveKey> >::begin
_TEXT	ENDS
PUBLIC	?end@?$vector@UWaveKey@ioCrecendoSkill@@V?$allocator@UWaveKey@ioCrecendoSkill@@@std@@@std@@QBE?AV?$_Vector_const_iterator@V?$_Vector_val@UWaveKey@ioCrecendoSkill@@V?$allocator@UWaveKey@ioCrecendoSkill@@@std@@@std@@@2@XZ ; std::vector<ioCrecendoSkill::WaveKey,std::allocator<ioCrecendoSkill::WaveKey> >::end
; Function compile flags: /Ogsp
;	COMDAT ?end@?$vector@UWaveKey@ioCrecendoSkill@@V?$allocator@UWaveKey@ioCrecendoSkill@@@std@@@std@@QBE?AV?$_Vector_const_iterator@V?$_Vector_val@UWaveKey@ioCrecendoSkill@@V?$allocator@UWaveKey@ioCrecendoSkill@@@std@@@std@@@2@XZ
_TEXT	SEGMENT
___$ReturnUdt$ = 8					; size = 4
?end@?$vector@UWaveKey@ioCrecendoSkill@@V?$allocator@UWaveKey@ioCrecendoSkill@@@std@@@std@@QBE?AV?$_Vector_const_iterator@V?$_Vector_val@UWaveKey@ioCrecendoSkill@@V?$allocator@UWaveKey@ioCrecendoSkill@@@std@@@std@@@2@XZ PROC ; std::vector<ioCrecendoSkill::WaveKey,std::allocator<ioCrecendoSkill::WaveKey> >::end, COMDAT
; _this$ = ecx

; 796  : 		{	// return iterator for end of nonmutable sequence

  00000	55		 push	 ebp
  00001	8b ec		 mov	 ebp, esp

; 797  : 		return (const_iterator(this->_Mylast, this));

  00003	8b 49 04	 mov	 ecx, DWORD PTR [ecx+4]
  00006	8b 45 08	 mov	 eax, DWORD PTR ___$ReturnUdt$[ebp]
  00009	89 08		 mov	 DWORD PTR [eax], ecx

; 798  : 		}

  0000b	5d		 pop	 ebp
  0000c	c2 04 00	 ret	 4
?end@?$vector@UWaveKey@ioCrecendoSkill@@V?$allocator@UWaveKey@ioCrecendoSkill@@@std@@@std@@QBE?AV?$_Vector_const_iterator@V?$_Vector_val@UWaveKey@ioCrecendoSkill@@V?$allocator@UWaveKey@ioCrecendoSkill@@@std@@@std@@@2@XZ ENDP ; std::vector<ioCrecendoSkill::WaveKey,std::allocator<ioCrecendoSkill::WaveKey> >::end
_TEXT	ENDS
PUBLIC	?max_size@?$vector@UWaveKey@ioCrecendoSkill@@V?$allocator@UWaveKey@ioCrecendoSkill@@@std@@@std@@QBEIXZ ; std::vector<ioCrecendoSkill::WaveKey,std::allocator<ioCrecendoSkill::WaveKey> >::max_size
; Function compile flags: /Ogsp
;	COMDAT ?max_size@?$vector@UWaveKey@ioCrecendoSkill@@V?$allocator@UWaveKey@ioCrecendoSkill@@@std@@@std@@QBEIXZ
_TEXT	SEGMENT
?max_size@?$vector@UWaveKey@ioCrecendoSkill@@V?$allocator@UWaveKey@ioCrecendoSkill@@@std@@@std@@QBEIXZ PROC ; std::vector<ioCrecendoSkill::WaveKey,std::allocator<ioCrecendoSkill::WaveKey> >::max_size, COMDAT
; _this$ = ecx

; 884  : 		return (this->_Alval.max_size());

  00000	b8 97 d0 5e 02	 mov	 eax, 39768215		; 025ed097H

; 885  : 		}

  00005	c3		 ret	 0
?max_size@?$vector@UWaveKey@ioCrecendoSkill@@V?$allocator@UWaveKey@ioCrecendoSkill@@@std@@@std@@QBEIXZ ENDP ; std::vector<ioCrecendoSkill::WaveKey,std::allocator<ioCrecendoSkill::WaveKey> >::max_size
_TEXT	ENDS
PUBLIC	??0?$_Vector_val@UWaveKey@ioCrecendoSkill@@V?$allocator@UWaveKey@ioCrecendoSkill@@@std@@@std@@QAE@V?$allocator@UWaveKey@ioCrecendoSkill@@@1@@Z ; std::_Vector_val<ioCrecendoSkill::WaveKey,std::allocator<ioCrecendoSkill::WaveKey> >::_Vector_val<ioCrecendoSkill::WaveKey,std::allocator<ioCrecendoSkill::WaveKey> >
; Function compile flags: /Ogsp
;	COMDAT ??0?$_Vector_val@UWaveKey@ioCrecendoSkill@@V?$allocator@UWaveKey@ioCrecendoSkill@@@std@@@std@@QAE@V?$allocator@UWaveKey@ioCrecendoSkill@@@1@@Z
_TEXT	SEGMENT
__Al$ = 8						; size = 1
??0?$_Vector_val@UWaveKey@ioCrecendoSkill@@V?$allocator@UWaveKey@ioCrecendoSkill@@@std@@@std@@QAE@V?$allocator@UWaveKey@ioCrecendoSkill@@@1@@Z PROC ; std::_Vector_val<ioCrecendoSkill::WaveKey,std::allocator<ioCrecendoSkill::WaveKey> >::_Vector_val<ioCrecendoSkill::WaveKey,std::allocator<ioCrecendoSkill::WaveKey> >, COMDAT
; _this$ = ecx

; 426  : 		{	// construct allocator from _Al

  00000	8b c1		 mov	 eax, ecx

; 427  : 		_Myfirst = 0;

  00002	33 c9		 xor	 ecx, ecx
  00004	89 08		 mov	 DWORD PTR [eax], ecx

; 428  : 		_Mylast = 0;

  00006	89 48 04	 mov	 DWORD PTR [eax+4], ecx

; 429  : 		_Myend = 0;

  00009	89 48 08	 mov	 DWORD PTR [eax+8], ecx

; 430  : 		}

  0000c	c2 04 00	 ret	 4
??0?$_Vector_val@UWaveKey@ioCrecendoSkill@@V?$allocator@UWaveKey@ioCrecendoSkill@@@std@@@std@@QAE@V?$allocator@UWaveKey@ioCrecendoSkill@@@1@@Z ENDP ; std::_Vector_val<ioCrecendoSkill::WaveKey,std::allocator<ioCrecendoSkill::WaveKey> >::_Vector_val<ioCrecendoSkill::WaveKey,std::allocator<ioCrecendoSkill::WaveKey> >
_TEXT	ENDS
PUBLIC	?allocate@?$allocator@UWaveKey@ioCrecendoSkill@@@std@@QAEPAUWaveKey@ioCrecendoSkill@@I@Z ; std::allocator<ioCrecendoSkill::WaveKey>::allocate
; Function compile flags: /Ogsp
; File c:\program files (x86)\microsoft visual studio 10.0\vc\include\xmemory
;	COMDAT ?allocate@?$allocator@UWaveKey@ioCrecendoSkill@@@std@@QAEPAUWaveKey@ioCrecendoSkill@@I@Z
_TEXT	SEGMENT
__Count$ = 8						; size = 4
?allocate@?$allocator@UWaveKey@ioCrecendoSkill@@@std@@QAEPAUWaveKey@ioCrecendoSkill@@I@Z PROC ; std::allocator<ioCrecendoSkill::WaveKey>::allocate, COMDAT
; _this$ = ecx

; 186  : 		{	// allocate array of _Count elements

  00000	55		 push	 ebp
  00001	8b ec		 mov	 ebp, esp

; 187  : 		return (_Allocate(_Count, (pointer)0));

  00003	6a 00		 push	 0
  00005	ff 75 08	 push	 DWORD PTR __Count$[ebp]
  00008	e8 00 00 00 00	 call	 ??$_Allocate@UWaveKey@ioCrecendoSkill@@@std@@YAPAUWaveKey@ioCrecendoSkill@@IPAU12@@Z ; std::_Allocate<ioCrecendoSkill::WaveKey>
  0000d	59		 pop	 ecx
  0000e	59		 pop	 ecx

; 188  : 		}

  0000f	5d		 pop	 ebp
  00010	c2 04 00	 ret	 4
?allocate@?$allocator@UWaveKey@ioCrecendoSkill@@@std@@QAEPAUWaveKey@ioCrecendoSkill@@I@Z ENDP ; std::allocator<ioCrecendoSkill::WaveKey>::allocate
_TEXT	ENDS
PUBLIC	??0?$_Vector_val@UKeyMapEffect@ioCrecendoSkill@@V?$allocator@UKeyMapEffect@ioCrecendoSkill@@@std@@@std@@QAE@V?$allocator@UKeyMapEffect@ioCrecendoSkill@@@1@@Z ; std::_Vector_val<ioCrecendoSkill::KeyMapEffect,std::allocator<ioCrecendoSkill::KeyMapEffect> >::_Vector_val<ioCrecendoSkill::KeyMapEffect,std::allocator<ioCrecendoSkill::KeyMapEffect> >
; Function compile flags: /Ogsp
; File c:\program files (x86)\microsoft visual studio 10.0\vc\include\vector
;	COMDAT ??0?$_Vector_val@UKeyMapEffect@ioCrecendoSkill@@V?$allocator@UKeyMapEffect@ioCrecendoSkill@@@std@@@std@@QAE@V?$allocator@UKeyMapEffect@ioCrecendoSkill@@@1@@Z
_TEXT	SEGMENT
__Al$ = 8						; size = 1
??0?$_Vector_val@UKeyMapEffect@ioCrecendoSkill@@V?$allocator@UKeyMapEffect@ioCrecendoSkill@@@std@@@std@@QAE@V?$allocator@UKeyMapEffect@ioCrecendoSkill@@@1@@Z PROC ; std::_Vector_val<ioCrecendoSkill::KeyMapEffect,std::allocator<ioCrecendoSkill::KeyMapEffect> >::_Vector_val<ioCrecendoSkill::KeyMapEffect,std::allocator<ioCrecendoSkill::KeyMapEffect> >, COMDAT
; _this$ = ecx

; 426  : 		{	// construct allocator from _Al

  00000	8b c1		 mov	 eax, ecx

; 427  : 		_Myfirst = 0;

  00002	33 c9		 xor	 ecx, ecx
  00004	89 08		 mov	 DWORD PTR [eax], ecx

; 428  : 		_Mylast = 0;

  00006	89 48 04	 mov	 DWORD PTR [eax+4], ecx

; 429  : 		_Myend = 0;

  00009	89 48 08	 mov	 DWORD PTR [eax+8], ecx

; 430  : 		}

  0000c	c2 04 00	 ret	 4
??0?$_Vector_val@UKeyMapEffect@ioCrecendoSkill@@V?$allocator@UKeyMapEffect@ioCrecendoSkill@@@std@@@std@@QAE@V?$allocator@UKeyMapEffect@ioCrecendoSkill@@@1@@Z ENDP ; std::_Vector_val<ioCrecendoSkill::KeyMapEffect,std::allocator<ioCrecendoSkill::KeyMapEffect> >::_Vector_val<ioCrecendoSkill::KeyMapEffect,std::allocator<ioCrecendoSkill::KeyMapEffect> >
_TEXT	ENDS
PUBLIC	??8?$_Vector_const_iterator@V?$_Vector_val@UKeyMapEffect@ioCrecendoSkill@@V?$allocator@UKeyMapEffect@ioCrecendoSkill@@@std@@@std@@@std@@QBE_NABV01@@Z ; std::_Vector_const_iterator<std::_Vector_val<ioCrecendoSkill::KeyMapEffect,std::allocator<ioCrecendoSkill::KeyMapEffect> > >::operator==
; Function compile flags: /Ogsp
;	COMDAT ??8?$_Vector_const_iterator@V?$_Vector_val@UKeyMapEffect@ioCrecendoSkill@@V?$allocator@UKeyMapEffect@ioCrecendoSkill@@@std@@@std@@@std@@QBE_NABV01@@Z
_TEXT	SEGMENT
__Right$ = 8						; size = 4
??8?$_Vector_const_iterator@V?$_Vector_val@UKeyMapEffect@ioCrecendoSkill@@V?$allocator@UKeyMapEffect@ioCrecendoSkill@@@std@@@std@@@std@@QBE_NABV01@@Z PROC ; std::_Vector_const_iterator<std::_Vector_val<ioCrecendoSkill::KeyMapEffect,std::allocator<ioCrecendoSkill::KeyMapEffect> > >::operator==, COMDAT
; _this$ = ecx

; 201  : 		{	// test for iterator equality

  00000	55		 push	 ebp
  00001	8b ec		 mov	 ebp, esp

; 202  : 		_Compat(_Right);
; 203  : 		return (this->_Ptr == _Right._Ptr);

  00003	8b 01		 mov	 eax, DWORD PTR [ecx]
  00005	8b 4d 08	 mov	 ecx, DWORD PTR __Right$[ebp]
  00008	2b 01		 sub	 eax, DWORD PTR [ecx]
  0000a	f7 d8		 neg	 eax
  0000c	1b c0		 sbb	 eax, eax
  0000e	40		 inc	 eax

; 204  : 		}

  0000f	5d		 pop	 ebp
  00010	c2 04 00	 ret	 4
??8?$_Vector_const_iterator@V?$_Vector_val@UKeyMapEffect@ioCrecendoSkill@@V?$allocator@UKeyMapEffect@ioCrecendoSkill@@@std@@@std@@@std@@QBE_NABV01@@Z ENDP ; std::_Vector_const_iterator<std::_Vector_val<ioCrecendoSkill::KeyMapEffect,std::allocator<ioCrecendoSkill::KeyMapEffect> > >::operator==
_TEXT	ENDS
PUBLIC	??0?$_Vector_iterator@V?$_Vector_val@UKeyMapEffect@ioCrecendoSkill@@V?$allocator@UKeyMapEffect@ioCrecendoSkill@@@std@@@std@@@std@@QAE@PAUKeyMapEffect@ioCrecendoSkill@@PBU_Container_base0@1@@Z ; std::_Vector_iterator<std::_Vector_val<ioCrecendoSkill::KeyMapEffect,std::allocator<ioCrecendoSkill::KeyMapEffect> > >::_Vector_iterator<std::_Vector_val<ioCrecendoSkill::KeyMapEffect,std::allocator<ioCrecendoSkill::KeyMapEffect> > >
; Function compile flags: /Ogsp
;	COMDAT ??0?$_Vector_iterator@V?$_Vector_val@UKeyMapEffect@ioCrecendoSkill@@V?$allocator@UKeyMapEffect@ioCrecendoSkill@@@std@@@std@@@std@@QAE@PAUKeyMapEffect@ioCrecendoSkill@@PBU_Container_base0@1@@Z
_TEXT	SEGMENT
__Parg$ = 8						; size = 4
__Pvector$ = 12						; size = 4
??0?$_Vector_iterator@V?$_Vector_val@UKeyMapEffect@ioCrecendoSkill@@V?$allocator@UKeyMapEffect@ioCrecendoSkill@@@std@@@std@@@std@@QAE@PAUKeyMapEffect@ioCrecendoSkill@@PBU_Container_base0@1@@Z PROC ; std::_Vector_iterator<std::_Vector_val<ioCrecendoSkill::KeyMapEffect,std::allocator<ioCrecendoSkill::KeyMapEffect> > >::_Vector_iterator<std::_Vector_val<ioCrecendoSkill::KeyMapEffect,std::allocator<ioCrecendoSkill::KeyMapEffect> > >, COMDAT
; _this$ = ecx

; 304  : 		{	// construct with pointer _Parg

  00000	55		 push	 ebp
  00001	8b ec		 mov	 ebp, esp
  00003	8b c1		 mov	 eax, ecx
  00005	8b 4d 08	 mov	 ecx, DWORD PTR __Parg$[ebp]
  00008	89 08		 mov	 DWORD PTR [eax], ecx

; 305  : 		}

  0000a	5d		 pop	 ebp
  0000b	c2 08 00	 ret	 8
??0?$_Vector_iterator@V?$_Vector_val@UKeyMapEffect@ioCrecendoSkill@@V?$allocator@UKeyMapEffect@ioCrecendoSkill@@@std@@@std@@@std@@QAE@PAUKeyMapEffect@ioCrecendoSkill@@PBU_Container_base0@1@@Z ENDP ; std::_Vector_iterator<std::_Vector_val<ioCrecendoSkill::KeyMapEffect,std::allocator<ioCrecendoSkill::KeyMapEffect> > >::_Vector_iterator<std::_Vector_val<ioCrecendoSkill::KeyMapEffect,std::allocator<ioCrecendoSkill::KeyMapEffect> > >
_TEXT	ENDS
PUBLIC	??0?$_Vector_iterator@V?$_Vector_val@UWaveKey@ioCrecendoSkill@@V?$allocator@UWaveKey@ioCrecendoSkill@@@std@@@std@@@std@@QAE@PAUWaveKey@ioCrecendoSkill@@PBU_Container_base0@1@@Z ; std::_Vector_iterator<std::_Vector_val<ioCrecendoSkill::WaveKey,std::allocator<ioCrecendoSkill::WaveKey> > >::_Vector_iterator<std::_Vector_val<ioCrecendoSkill::WaveKey,std::allocator<ioCrecendoSkill::WaveKey> > >
; Function compile flags: /Ogsp
;	COMDAT ??0?$_Vector_iterator@V?$_Vector_val@UWaveKey@ioCrecendoSkill@@V?$allocator@UWaveKey@ioCrecendoSkill@@@std@@@std@@@std@@QAE@PAUWaveKey@ioCrecendoSkill@@PBU_Container_base0@1@@Z
_TEXT	SEGMENT
__Parg$ = 8						; size = 4
__Pvector$ = 12						; size = 4
??0?$_Vector_iterator@V?$_Vector_val@UWaveKey@ioCrecendoSkill@@V?$allocator@UWaveKey@ioCrecendoSkill@@@std@@@std@@@std@@QAE@PAUWaveKey@ioCrecendoSkill@@PBU_Container_base0@1@@Z PROC ; std::_Vector_iterator<std::_Vector_val<ioCrecendoSkill::WaveKey,std::allocator<ioCrecendoSkill::WaveKey> > >::_Vector_iterator<std::_Vector_val<ioCrecendoSkill::WaveKey,std::allocator<ioCrecendoSkill::WaveKey> > >, COMDAT
; _this$ = ecx

; 304  : 		{	// construct with pointer _Parg

  00000	55		 push	 ebp
  00001	8b ec		 mov	 ebp, esp
  00003	8b c1		 mov	 eax, ecx
  00005	8b 4d 08	 mov	 ecx, DWORD PTR __Parg$[ebp]
  00008	89 08		 mov	 DWORD PTR [eax], ecx

; 305  : 		}

  0000a	5d		 pop	 ebp
  0000b	c2 08 00	 ret	 8
??0?$_Vector_iterator@V?$_Vector_val@UWaveKey@ioCrecendoSkill@@V?$allocator@UWaveKey@ioCrecendoSkill@@@std@@@std@@@std@@QAE@PAUWaveKey@ioCrecendoSkill@@PBU_Container_base0@1@@Z ENDP ; std::_Vector_iterator<std::_Vector_val<ioCrecendoSkill::WaveKey,std::allocator<ioCrecendoSkill::WaveKey> > >::_Vector_iterator<std::_Vector_val<ioCrecendoSkill::WaveKey,std::allocator<ioCrecendoSkill::WaveKey> > >
_TEXT	ENDS
PUBLIC	??8?$_Vector_const_iterator@V?$_Vector_val@UWaveKey@ioCrecendoSkill@@V?$allocator@UWaveKey@ioCrecendoSkill@@@std@@@std@@@std@@QBE_NABV01@@Z ; std::_Vector_const_iterator<std::_Vector_val<ioCrecendoSkill::WaveKey,std::allocator<ioCrecendoSkill::WaveKey> > >::operator==
; Function compile flags: /Ogsp
;	COMDAT ??8?$_Vector_const_iterator@V?$_Vector_val@UWaveKey@ioCrecendoSkill@@V?$allocator@UWaveKey@ioCrecendoSkill@@@std@@@std@@@std@@QBE_NABV01@@Z
_TEXT	SEGMENT
__Right$ = 8						; size = 4
??8?$_Vector_const_iterator@V?$_Vector_val@UWaveKey@ioCrecendoSkill@@V?$allocator@UWaveKey@ioCrecendoSkill@@@std@@@std@@@std@@QBE_NABV01@@Z PROC ; std::_Vector_const_iterator<std::_Vector_val<ioCrecendoSkill::WaveKey,std::allocator<ioCrecendoSkill::WaveKey> > >::operator==, COMDAT
; _this$ = ecx

; 201  : 		{	// test for iterator equality

  00000	55		 push	 ebp
  00001	8b ec		 mov	 ebp, esp

; 202  : 		_Compat(_Right);
; 203  : 		return (this->_Ptr == _Right._Ptr);

  00003	8b 01		 mov	 eax, DWORD PTR [ecx]
  00005	8b 4d 08	 mov	 ecx, DWORD PTR __Right$[ebp]
  00008	2b 01		 sub	 eax, DWORD PTR [ecx]
  0000a	f7 d8		 neg	 eax
  0000c	1b c0		 sbb	 eax, eax
  0000e	40		 inc	 eax

; 204  : 		}

  0000f	5d		 pop	 ebp
  00010	c2 04 00	 ret	 4
??8?$_Vector_const_iterator@V?$_Vector_val@UWaveKey@ioCrecendoSkill@@V?$allocator@UWaveKey@ioCrecendoSkill@@@std@@@std@@@std@@QBE_NABV01@@Z ENDP ; std::_Vector_const_iterator<std::_Vector_val<ioCrecendoSkill::WaveKey,std::allocator<ioCrecendoSkill::WaveKey> > >::operator==
_TEXT	ENDS
PUBLIC	??8?$_Vector_const_iterator@V?$_Vector_val@PAVioBaseChar@@V?$allocator@PAVioBaseChar@@@std@@@std@@@std@@QBE_NABV01@@Z ; std::_Vector_const_iterator<std::_Vector_val<ioBaseChar *,std::allocator<ioBaseChar *> > >::operator==
; Function compile flags: /Ogsp
;	COMDAT ??8?$_Vector_const_iterator@V?$_Vector_val@PAVioBaseChar@@V?$allocator@PAVioBaseChar@@@std@@@std@@@std@@QBE_NABV01@@Z
_TEXT	SEGMENT
__Right$ = 8						; size = 4
??8?$_Vector_const_iterator@V?$_Vector_val@PAVioBaseChar@@V?$allocator@PAVioBaseChar@@@std@@@std@@@std@@QBE_NABV01@@Z PROC ; std::_Vector_const_iterator<std::_Vector_val<ioBaseChar *,std::allocator<ioBaseChar *> > >::operator==, COMDAT
; _this$ = ecx

; 201  : 		{	// test for iterator equality

  00000	55		 push	 ebp
  00001	8b ec		 mov	 ebp, esp

; 202  : 		_Compat(_Right);
; 203  : 		return (this->_Ptr == _Right._Ptr);

  00003	8b 01		 mov	 eax, DWORD PTR [ecx]
  00005	8b 4d 08	 mov	 ecx, DWORD PTR __Right$[ebp]
  00008	2b 01		 sub	 eax, DWORD PTR [ecx]
  0000a	f7 d8		 neg	 eax
  0000c	1b c0		 sbb	 eax, eax
  0000e	40		 inc	 eax

; 204  : 		}

  0000f	5d		 pop	 ebp
  00010	c2 04 00	 ret	 4
??8?$_Vector_const_iterator@V?$_Vector_val@PAVioBaseChar@@V?$allocator@PAVioBaseChar@@@std@@@std@@@std@@QBE_NABV01@@Z ENDP ; std::_Vector_const_iterator<std::_Vector_val<ioBaseChar *,std::allocator<ioBaseChar *> > >::operator==
_TEXT	ENDS
PUBLIC	?_Grow_to@?$vector@UWaveKey@ioCrecendoSkill@@V?$allocator@UWaveKey@ioCrecendoSkill@@@std@@@std@@IBEII@Z ; std::vector<ioCrecendoSkill::WaveKey,std::allocator<ioCrecendoSkill::WaveKey> >::_Grow_to
; Function compile flags: /Ogsp
;	COMDAT ?_Grow_to@?$vector@UWaveKey@ioCrecendoSkill@@V?$allocator@UWaveKey@ioCrecendoSkill@@@std@@@std@@IBEII@Z
_TEXT	SEGMENT
__Count$ = 8						; size = 4
?_Grow_to@?$vector@UWaveKey@ioCrecendoSkill@@V?$allocator@UWaveKey@ioCrecendoSkill@@@std@@@std@@IBEII@Z PROC ; std::vector<ioCrecendoSkill::WaveKey,std::allocator<ioCrecendoSkill::WaveKey> >::_Grow_to, COMDAT
; _this$ = ecx

; 1274 : 		{	// grow by 50% or at least to _Count

  00000	55		 push	 ebp
  00001	8b ec		 mov	 ebp, esp

; 1275 : 		size_type _Capacity = capacity();

  00003	8b 41 08	 mov	 eax, DWORD PTR [ecx+8]
  00006	2b 01		 sub	 eax, DWORD PTR [ecx]
  00008	6a 6c		 push	 108			; 0000006cH
  0000a	99		 cdq
  0000b	59		 pop	 ecx
  0000c	f7 f9		 idiv	 ecx

; 1276 : 
; 1277 : 		_Capacity = max_size() - _Capacity / 2 < _Capacity
; 1278 : 			? 0 : _Capacity + _Capacity / 2;	// try to grow by 50%

  0000e	ba 97 d0 5e 02	 mov	 edx, 39768215		; 025ed097H
  00013	8b c8		 mov	 ecx, eax
  00015	d1 e9		 shr	 ecx, 1
  00017	2b d1		 sub	 edx, ecx
  00019	3b d0		 cmp	 edx, eax
  0001b	73 04		 jae	 SHORT $LN4@Grow_to
  0001d	33 c0		 xor	 eax, eax
  0001f	eb 02		 jmp	 SHORT $LN5@Grow_to
$LN4@Grow_to:
  00021	03 c1		 add	 eax, ecx
$LN5@Grow_to:

; 1279 : 		if (_Capacity < _Count)

  00023	3b 45 08	 cmp	 eax, DWORD PTR __Count$[ebp]

; 1280 : 			_Capacity = _Count;

  00026	0f 42 45 08	 cmovb	 eax, DWORD PTR __Count$[ebp]

; 1281 : 		return (_Capacity);
; 1282 : 		}

  0002a	5d		 pop	 ebp
  0002b	c2 04 00	 ret	 4
?_Grow_to@?$vector@UWaveKey@ioCrecendoSkill@@V?$allocator@UWaveKey@ioCrecendoSkill@@@std@@@std@@IBEII@Z ENDP ; std::vector<ioCrecendoSkill::WaveKey,std::allocator<ioCrecendoSkill::WaveKey> >::_Grow_to
_TEXT	ENDS
PUBLIC	?max_size@?$vector@UKeyMapEffect@ioCrecendoSkill@@V?$allocator@UKeyMapEffect@ioCrecendoSkill@@@std@@@std@@QBEIXZ ; std::vector<ioCrecendoSkill::KeyMapEffect,std::allocator<ioCrecendoSkill::KeyMapEffect> >::max_size
; Function compile flags: /Ogsp
;	COMDAT ?max_size@?$vector@UKeyMapEffect@ioCrecendoSkill@@V?$allocator@UKeyMapEffect@ioCrecendoSkill@@@std@@@std@@QBEIXZ
_TEXT	SEGMENT
?max_size@?$vector@UKeyMapEffect@ioCrecendoSkill@@V?$allocator@UKeyMapEffect@ioCrecendoSkill@@@std@@@std@@QBEIXZ PROC ; std::vector<ioCrecendoSkill::KeyMapEffect,std::allocator<ioCrecendoSkill::KeyMapEffect> >::max_size, COMDAT
; _this$ = ecx

; 884  : 		return (this->_Alval.max_size());

  00000	b8 ff ff ff 1f	 mov	 eax, 536870911		; 1fffffffH

; 885  : 		}

  00005	c3		 ret	 0
?max_size@?$vector@UKeyMapEffect@ioCrecendoSkill@@V?$allocator@UKeyMapEffect@ioCrecendoSkill@@@std@@@std@@QBEIXZ ENDP ; std::vector<ioCrecendoSkill::KeyMapEffect,std::allocator<ioCrecendoSkill::KeyMapEffect> >::max_size
_TEXT	ENDS
PUBLIC	?_Grow_to@?$vector@UKeyMapEffect@ioCrecendoSkill@@V?$allocator@UKeyMapEffect@ioCrecendoSkill@@@std@@@std@@IBEII@Z ; std::vector<ioCrecendoSkill::KeyMapEffect,std::allocator<ioCrecendoSkill::KeyMapEffect> >::_Grow_to
; Function compile flags: /Ogsp
;	COMDAT ?_Grow_to@?$vector@UKeyMapEffect@ioCrecendoSkill@@V?$allocator@UKeyMapEffect@ioCrecendoSkill@@@std@@@std@@IBEII@Z
_TEXT	SEGMENT
__Count$ = 8						; size = 4
?_Grow_to@?$vector@UKeyMapEffect@ioCrecendoSkill@@V?$allocator@UKeyMapEffect@ioCrecendoSkill@@@std@@@std@@IBEII@Z PROC ; std::vector<ioCrecendoSkill::KeyMapEffect,std::allocator<ioCrecendoSkill::KeyMapEffect> >::_Grow_to, COMDAT
; _this$ = ecx

; 1274 : 		{	// grow by 50% or at least to _Count

  00000	55		 push	 ebp
  00001	8b ec		 mov	 ebp, esp

; 1275 : 		size_type _Capacity = capacity();

  00003	8b 41 08	 mov	 eax, DWORD PTR [ecx+8]
  00006	2b 01		 sub	 eax, DWORD PTR [ecx]

; 1276 : 
; 1277 : 		_Capacity = max_size() - _Capacity / 2 < _Capacity
; 1278 : 			? 0 : _Capacity + _Capacity / 2;	// try to grow by 50%

  00008	ba ff ff ff 1f	 mov	 edx, 536870911		; 1fffffffH
  0000d	c1 f8 03	 sar	 eax, 3
  00010	8b c8		 mov	 ecx, eax
  00012	d1 e9		 shr	 ecx, 1
  00014	2b d1		 sub	 edx, ecx
  00016	3b d0		 cmp	 edx, eax
  00018	73 04		 jae	 SHORT $LN4@Grow_to@2
  0001a	33 c0		 xor	 eax, eax
  0001c	eb 02		 jmp	 SHORT $LN5@Grow_to@2
$LN4@Grow_to@2:
  0001e	03 c1		 add	 eax, ecx
$LN5@Grow_to@2:

; 1279 : 		if (_Capacity < _Count)

  00020	3b 45 08	 cmp	 eax, DWORD PTR __Count$[ebp]

; 1280 : 			_Capacity = _Count;

  00023	0f 42 45 08	 cmovb	 eax, DWORD PTR __Count$[ebp]

; 1281 : 		return (_Capacity);
; 1282 : 		}

  00027	5d		 pop	 ebp
  00028	c2 04 00	 ret	 4
?_Grow_to@?$vector@UKeyMapEffect@ioCrecendoSkill@@V?$allocator@UKeyMapEffect@ioCrecendoSkill@@@std@@@std@@IBEII@Z ENDP ; std::vector<ioCrecendoSkill::KeyMapEffect,std::allocator<ioCrecendoSkill::KeyMapEffect> >::_Grow_to
_TEXT	ENDS
PUBLIC	?allocate@?$allocator@UKeyMapEffect@ioCrecendoSkill@@@std@@QAEPAUKeyMapEffect@ioCrecendoSkill@@I@Z ; std::allocator<ioCrecendoSkill::KeyMapEffect>::allocate
; Function compile flags: /Ogsp
; File c:\program files (x86)\microsoft visual studio 10.0\vc\include\xmemory
;	COMDAT ?allocate@?$allocator@UKeyMapEffect@ioCrecendoSkill@@@std@@QAEPAUKeyMapEffect@ioCrecendoSkill@@I@Z
_TEXT	SEGMENT
__Count$ = 8						; size = 4
?allocate@?$allocator@UKeyMapEffect@ioCrecendoSkill@@@std@@QAEPAUKeyMapEffect@ioCrecendoSkill@@I@Z PROC ; std::allocator<ioCrecendoSkill::KeyMapEffect>::allocate, COMDAT
; _this$ = ecx

; 186  : 		{	// allocate array of _Count elements

  00000	55		 push	 ebp
  00001	8b ec		 mov	 ebp, esp

; 187  : 		return (_Allocate(_Count, (pointer)0));

  00003	6a 00		 push	 0
  00005	ff 75 08	 push	 DWORD PTR __Count$[ebp]
  00008	e8 00 00 00 00	 call	 ??$_Allocate@UKeyMapEffect@ioCrecendoSkill@@@std@@YAPAUKeyMapEffect@ioCrecendoSkill@@IPAU12@@Z ; std::_Allocate<ioCrecendoSkill::KeyMapEffect>
  0000d	59		 pop	 ecx
  0000e	59		 pop	 ecx

; 188  : 		}

  0000f	5d		 pop	 ebp
  00010	c2 04 00	 ret	 4
?allocate@?$allocator@UKeyMapEffect@ioCrecendoSkill@@@std@@QAEPAUKeyMapEffect@ioCrecendoSkill@@I@Z ENDP ; std::allocator<ioCrecendoSkill::KeyMapEffect>::allocate
_TEXT	ENDS
PUBLIC	_this$GSCopy$
PUBLIC	__$ArrayPad$
PUBLIC	??$LoadString_e@$0BC@@ioINILoader@@QAEXAAY0BC@$$CBDAAY00$$CBDPADH@Z ; ioINILoader::LoadString_e<18>
EXTRN	__imp_?LoadStringA@ioINILoader@@QAEXPBD0PADH@Z:PROC
; Function compile flags: /Ogsp
; File d:\lost saga for developer\youtube\tutorial\source\src\io3dengine\ioiniloader.h
;	COMDAT ??$LoadString_e@$0BC@@ioINILoader@@QAEXAAY0BC@$$CBDAAY00$$CBDPADH@Z
_TEXT	SEGMENT
_this$GSCopy$ = -32					; size = 4
__k$ = -28						; size = 18
__$ArrayPad$ = -4					; size = 4
_k$ = 8							; size = 4
_d$ = 12						; size = 4
_b$ = 16						; size = 4
_i$ = 20						; size = 4
??$LoadString_e@$0BC@@ioINILoader@@QAEXAAY0BC@$$CBDAAY00$$CBDPADH@Z PROC ; ioINILoader::LoadString_e<18>, COMDAT
; _this$ = ecx

; 161  : 	{

  00000	55		 push	 ebp
  00001	8b ec		 mov	 ebp, esp
  00003	83 ec 20	 sub	 esp, 32			; 00000020H
  00006	a1 00 00 00 00	 mov	 eax, DWORD PTR ___security_cookie
  0000b	33 c5		 xor	 eax, ebp
  0000d	89 45 fc	 mov	 DWORD PTR __$ArrayPad$[ebp], eax
  00010	8b 45 08	 mov	 eax, DWORD PTR _k$[ebp]

; 162  : 		_ENCSTR(k, _k);

  00013	8a 10		 mov	 dl, BYTE PTR [eax]
  00015	56		 push	 esi
  00016	8b 75 0c	 mov	 esi, DWORD PTR _d$[ebp]
  00019	57		 push	 edi
  0001a	8b 7d 10	 mov	 edi, DWORD PTR _b$[ebp]
  0001d	89 4d e0	 mov	 DWORD PTR _this$GSCopy$[ebp], ecx
  00020	84 d2		 test	 dl, dl
  00022	0f 84 be 01 00
	00		 je	 $LN96@LoadString
  00028	80 f2 ed	 xor	 dl, -19			; ffffffedH
  0002b	88 55 e4	 mov	 BYTE PTR __k$[ebp], dl
  0002e	8a 50 01	 mov	 dl, BYTE PTR [eax+1]
  00031	84 d2		 test	 dl, dl
  00033	0f 84 a7 01 00
	00		 je	 $LN95@LoadString
  00039	80 f2 ec	 xor	 dl, -20			; ffffffecH
  0003c	88 55 e5	 mov	 BYTE PTR __k$[ebp+1], dl
  0003f	8a 50 02	 mov	 dl, BYTE PTR [eax+2]
  00042	84 d2		 test	 dl, dl
  00044	0f 84 90 01 00
	00		 je	 $LN94@LoadString
  0004a	b1 eb		 mov	 cl, -21			; ffffffebH
  0004c	32 d1		 xor	 dl, cl
  0004e	88 55 e6	 mov	 BYTE PTR __k$[ebp+2], dl
  00051	8a 50 03	 mov	 dl, BYTE PTR [eax+3]
  00054	84 d2		 test	 dl, dl
  00056	0f 84 78 01 00
	00		 je	 $LN93@LoadString
  0005c	80 f2 ea	 xor	 dl, -22			; ffffffeaH
  0005f	88 55 e7	 mov	 BYTE PTR __k$[ebp+3], dl
  00062	8a 50 04	 mov	 dl, BYTE PTR [eax+4]
  00065	84 d2		 test	 dl, dl
  00067	0f 84 61 01 00
	00		 je	 $LN92@LoadString
  0006d	80 f2 ed	 xor	 dl, -19			; ffffffedH
  00070	88 55 e8	 mov	 BYTE PTR __k$[ebp+4], dl
  00073	8a 50 05	 mov	 dl, BYTE PTR [eax+5]
  00076	84 d2		 test	 dl, dl
  00078	0f 84 4a 01 00
	00		 je	 $LN91@LoadString
  0007e	80 f2 ec	 xor	 dl, -20			; ffffffecH
  00081	88 55 e9	 mov	 BYTE PTR __k$[ebp+5], dl
  00084	8a 50 06	 mov	 dl, BYTE PTR [eax+6]
  00087	84 d2		 test	 dl, dl
  00089	0f 84 34 01 00
	00		 je	 $LN90@LoadString
  0008f	32 d1		 xor	 dl, cl
  00091	88 55 ea	 mov	 BYTE PTR __k$[ebp+6], dl
  00094	8a 50 07	 mov	 dl, BYTE PTR [eax+7]
  00097	84 d2		 test	 dl, dl
  00099	0f 84 1e 01 00
	00		 je	 $LN89@LoadString
  0009f	80 f2 ea	 xor	 dl, -22			; ffffffeaH
  000a2	88 55 eb	 mov	 BYTE PTR __k$[ebp+7], dl
  000a5	8a 50 08	 mov	 dl, BYTE PTR [eax+8]
  000a8	84 d2		 test	 dl, dl
  000aa	0f 84 07 01 00
	00		 je	 $LN88@LoadString
  000b0	80 f2 ed	 xor	 dl, -19			; ffffffedH
  000b3	88 55 ec	 mov	 BYTE PTR __k$[ebp+8], dl
  000b6	8a 50 09	 mov	 dl, BYTE PTR [eax+9]
  000b9	84 d2		 test	 dl, dl
  000bb	0f 84 f0 00 00
	00		 je	 $LN87@LoadString
  000c1	80 f2 ec	 xor	 dl, -20			; ffffffecH
  000c4	88 55 ed	 mov	 BYTE PTR __k$[ebp+9], dl
  000c7	8a 50 0a	 mov	 dl, BYTE PTR [eax+10]
  000ca	84 d2		 test	 dl, dl
  000cc	0f 84 da 00 00
	00		 je	 $LN86@LoadString
  000d2	32 d1		 xor	 dl, cl
  000d4	88 55 ee	 mov	 BYTE PTR __k$[ebp+10], dl
  000d7	8a 50 0b	 mov	 dl, BYTE PTR [eax+11]
  000da	84 d2		 test	 dl, dl
  000dc	0f 84 c4 00 00
	00		 je	 $LN85@LoadString
  000e2	80 f2 ea	 xor	 dl, -22			; ffffffeaH
  000e5	88 55 ef	 mov	 BYTE PTR __k$[ebp+11], dl
  000e8	8a 50 0c	 mov	 dl, BYTE PTR [eax+12]
  000eb	84 d2		 test	 dl, dl
  000ed	0f 84 ad 00 00
	00		 je	 $LN84@LoadString
  000f3	80 f2 ed	 xor	 dl, -19			; ffffffedH
  000f6	88 55 f0	 mov	 BYTE PTR __k$[ebp+12], dl
  000f9	8a 50 0d	 mov	 dl, BYTE PTR [eax+13]
  000fc	84 d2		 test	 dl, dl
  000fe	0f 84 96 00 00
	00		 je	 $LN83@LoadString
  00104	80 f2 ec	 xor	 dl, -20			; ffffffecH
  00107	88 55 f1	 mov	 BYTE PTR __k$[ebp+13], dl
  0010a	8a 50 0e	 mov	 dl, BYTE PTR [eax+14]
  0010d	84 d2		 test	 dl, dl
  0010f	0f 84 80 00 00
	00		 je	 $LN82@LoadString
  00115	32 d1		 xor	 dl, cl
  00117	88 55 f2	 mov	 BYTE PTR __k$[ebp+14], dl
  0011a	8a 50 0f	 mov	 dl, BYTE PTR [eax+15]
  0011d	84 d2		 test	 dl, dl
  0011f	74 6e		 je	 SHORT $LN81@LoadString
  00121	80 f2 ea	 xor	 dl, -22			; ffffffeaH
  00124	88 55 f3	 mov	 BYTE PTR __k$[ebp+15], dl
  00127	8a 50 10	 mov	 dl, BYTE PTR [eax+16]
  0012a	84 d2		 test	 dl, dl
  0012c	74 5b		 je	 SHORT $LN80@LoadString
  0012e	80 f2 ed	 xor	 dl, -19			; ffffffedH
  00131	80 78 11 00	 cmp	 BYTE PTR [eax+17], 0
  00135	88 55 f4	 mov	 BYTE PTR __k$[ebp+16], dl
  00138	0f 84 ac 00 00
	00		 je	 $LN111@LoadString
  0013e	8a 50 12	 mov	 dl, BYTE PTR [eax+18]
  00141	84 d2		 test	 dl, dl
  00143	74 3f		 je	 SHORT $LN78@LoadString
  00145	32 d1		 xor	 dl, cl
  00147	88 55 f6	 mov	 BYTE PTR __k$[ebp+18], dl
  0014a	8a 50 13	 mov	 dl, BYTE PTR [eax+19]
  0014d	84 d2		 test	 dl, dl
  0014f	74 2d		 je	 SHORT $LN77@LoadString
  00151	80 f2 ea	 xor	 dl, -22			; ffffffeaH
  00154	88 55 f7	 mov	 BYTE PTR __k$[ebp+19], dl
  00157	8a 50 14	 mov	 dl, BYTE PTR [eax+20]
  0015a	84 d2		 test	 dl, dl
  0015c	74 1a		 je	 SHORT $LN76@LoadString
  0015e	8a 40 15	 mov	 al, BYTE PTR [eax+21]
  00161	80 f2 ed	 xor	 dl, -19			; ffffffedH
  00164	88 55 f8	 mov	 BYTE PTR __k$[ebp+20], dl
  00167	84 c0		 test	 al, al
  00169	74 07		 je	 SHORT $LN75@LoadString
  0016b	34 ec		 xor	 al, -20			; ffffffecH
  0016d	88 45 f9	 mov	 BYTE PTR __k$[ebp+21], al
  00170	eb 78		 jmp	 SHORT $LN111@LoadString
$LN75@LoadString:
  00172	c6 45 f9 ec	 mov	 BYTE PTR __k$[ebp+21], -20 ; ffffffecH
  00176	eb 72		 jmp	 SHORT $LN111@LoadString
$LN76@LoadString:
  00178	c6 45 f8 ed	 mov	 BYTE PTR __k$[ebp+20], -19 ; ffffffedH
  0017c	eb 6c		 jmp	 SHORT $LN111@LoadString
$LN77@LoadString:
  0017e	c6 45 f7 ea	 mov	 BYTE PTR __k$[ebp+19], -22 ; ffffffeaH
  00182	eb 66		 jmp	 SHORT $LN111@LoadString
$LN78@LoadString:
  00184	88 4d f6	 mov	 BYTE PTR __k$[ebp+18], cl
  00187	eb 61		 jmp	 SHORT $LN111@LoadString
$LN80@LoadString:
  00189	c6 45 f4 ed	 mov	 BYTE PTR __k$[ebp+16], -19 ; ffffffedH
  0018d	eb 5b		 jmp	 SHORT $LN111@LoadString
$LN81@LoadString:
  0018f	c6 45 f3 ea	 mov	 BYTE PTR __k$[ebp+15], -22 ; ffffffeaH
  00193	eb 55		 jmp	 SHORT $LN111@LoadString
$LN82@LoadString:
  00195	88 4d f2	 mov	 BYTE PTR __k$[ebp+14], cl
  00198	eb 50		 jmp	 SHORT $LN111@LoadString
$LN83@LoadString:
  0019a	c6 45 f1 ec	 mov	 BYTE PTR __k$[ebp+13], -20 ; ffffffecH
  0019e	eb 4a		 jmp	 SHORT $LN111@LoadString
$LN84@LoadString:
  001a0	c6 45 f0 ed	 mov	 BYTE PTR __k$[ebp+12], -19 ; ffffffedH
  001a4	eb 44		 jmp	 SHORT $LN111@LoadString
$LN85@LoadString:
  001a6	c6 45 ef ea	 mov	 BYTE PTR __k$[ebp+11], -22 ; ffffffeaH
  001aa	eb 3e		 jmp	 SHORT $LN111@LoadString
$LN86@LoadString:
  001ac	88 4d ee	 mov	 BYTE PTR __k$[ebp+10], cl
  001af	eb 39		 jmp	 SHORT $LN111@LoadString
$LN87@LoadString:
  001b1	c6 45 ed ec	 mov	 BYTE PTR __k$[ebp+9], -20 ; ffffffecH
  001b5	eb 33		 jmp	 SHORT $LN111@LoadString
$LN88@LoadString:
  001b7	c6 45 ec ed	 mov	 BYTE PTR __k$[ebp+8], -19 ; ffffffedH
  001bb	eb 2d		 jmp	 SHORT $LN111@LoadString
$LN89@LoadString:
  001bd	c6 45 eb ea	 mov	 BYTE PTR __k$[ebp+7], -22 ; ffffffeaH
  001c1	eb 27		 jmp	 SHORT $LN111@LoadString
$LN90@LoadString:
  001c3	88 4d ea	 mov	 BYTE PTR __k$[ebp+6], cl
  001c6	eb 22		 jmp	 SHORT $LN111@LoadString
$LN91@LoadString:
  001c8	c6 45 e9 ec	 mov	 BYTE PTR __k$[ebp+5], -20 ; ffffffecH
  001cc	eb 1c		 jmp	 SHORT $LN111@LoadString
$LN92@LoadString:
  001ce	c6 45 e8 ed	 mov	 BYTE PTR __k$[ebp+4], -19 ; ffffffedH
  001d2	eb 16		 jmp	 SHORT $LN111@LoadString
$LN93@LoadString:
  001d4	c6 45 e7 ea	 mov	 BYTE PTR __k$[ebp+3], -22 ; ffffffeaH
  001d8	eb 10		 jmp	 SHORT $LN111@LoadString
$LN94@LoadString:
  001da	c6 45 e6 eb	 mov	 BYTE PTR __k$[ebp+2], -21 ; ffffffebH
  001de	eb 0a		 jmp	 SHORT $LN111@LoadString
$LN95@LoadString:
  001e0	c6 45 e5 ec	 mov	 BYTE PTR __k$[ebp+1], -20 ; ffffffecH
  001e4	eb 04		 jmp	 SHORT $LN111@LoadString
$LN96@LoadString:
  001e6	c6 45 e4 ed	 mov	 BYTE PTR __k$[ebp], -19	; ffffffedH
$LN111@LoadString:
  001ea	6a 04		 push	 4
  001ec	8d 45 e4	 lea	 eax, DWORD PTR __k$[ebp]
  001ef	c6 45 f5 00	 mov	 BYTE PTR __k$[ebp+17], 0
  001f3	5a		 pop	 edx
$LL104@LoadString:
  001f4	81 30 ed ec eb
	ea		 xor	 DWORD PTR [eax], -353637139 ; eaebecedH
  001fa	83 c0 04	 add	 eax, 4
  001fd	4a		 dec	 edx
  001fe	75 f4		 jne	 SHORT $LL104@LoadString

; 163  : 		LoadString(_k, d, b, i);

  00200	ff 75 14	 push	 DWORD PTR _i$[ebp]
  00203	8b 4d e0	 mov	 ecx, DWORD PTR _this$GSCopy$[ebp]
  00206	80 75 f4 ed	 xor	 BYTE PTR __k$[ebp+16], -19 ; ffffffedH
  0020a	57		 push	 edi
  0020b	56		 push	 esi
  0020c	8d 45 e4	 lea	 eax, DWORD PTR __k$[ebp]
  0020f	50		 push	 eax
  00210	ff 15 00 00 00
	00		 call	 DWORD PTR __imp_?LoadStringA@ioINILoader@@QAEXPBD0PADH@Z

; 164  : 	}

  00216	8b 4d fc	 mov	 ecx, DWORD PTR __$ArrayPad$[ebp]
  00219	5f		 pop	 edi
  0021a	33 cd		 xor	 ecx, ebp
  0021c	5e		 pop	 esi
  0021d	e8 00 00 00 00	 call	 @__security_check_cookie@4
  00222	c9		 leave
  00223	c2 10 00	 ret	 16			; 00000010H
??$LoadString_e@$0BC@@ioINILoader@@QAEXAAY0BC@$$CBDAAY00$$CBDPADH@Z ENDP ; ioINILoader::LoadString_e<18>
_TEXT	ENDS
PUBLIC	__$ArrayPad$
PUBLIC	??$LoadFloat_e@$0BH@@ioINILoader@@QAEMAAY0BH@$$CBDM@Z ; ioINILoader::LoadFloat_e<23>
EXTRN	__imp_?LoadFloat@ioINILoader@@QAEMPBDM@Z:PROC
; Function compile flags: /Ogsp
;	COMDAT ??$LoadFloat_e@$0BH@@ioINILoader@@QAEMAAY0BH@$$CBDM@Z
_TEXT	SEGMENT
__k$ = -32						; size = 23
__$ArrayPad$ = -4					; size = 4
_k$ = 8							; size = 4
_f$ = 12						; size = 4
??$LoadFloat_e@$0BH@@ioINILoader@@QAEMAAY0BH@$$CBDM@Z PROC ; ioINILoader::LoadFloat_e<23>, COMDAT
; _this$ = ecx

; 135  : 	{

  00000	55		 push	 ebp
  00001	8b ec		 mov	 ebp, esp
  00003	83 ec 20	 sub	 esp, 32			; 00000020H
  00006	a1 00 00 00 00	 mov	 eax, DWORD PTR ___security_cookie
  0000b	33 c5		 xor	 eax, ebp
  0000d	89 45 fc	 mov	 DWORD PTR __$ArrayPad$[ebp], eax
  00010	8b 45 08	 mov	 eax, DWORD PTR _k$[ebp]

; 136  : 		_ENCSTR(k, _k);

  00013	8a 10		 mov	 dl, BYTE PTR [eax]
  00015	53		 push	 ebx
  00016	56		 push	 esi
  00017	8b f1		 mov	 esi, ecx
  00019	84 d2		 test	 dl, dl
  0001b	0f 84 2d 02 00
	00		 je	 $LN96@LoadFloat_
  00021	80 f2 ed	 xor	 dl, -19			; ffffffedH
  00024	88 55 e0	 mov	 BYTE PTR __k$[ebp], dl
  00027	8a 50 01	 mov	 dl, BYTE PTR [eax+1]
  0002a	84 d2		 test	 dl, dl
  0002c	0f 84 16 02 00
	00		 je	 $LN95@LoadFloat_
  00032	b1 ec		 mov	 cl, -20			; ffffffecH
  00034	32 d1		 xor	 dl, cl
  00036	88 55 e1	 mov	 BYTE PTR __k$[ebp+1], dl
  00039	8a 50 02	 mov	 dl, BYTE PTR [eax+2]
  0003c	84 d2		 test	 dl, dl
  0003e	0f 84 fe 01 00
	00		 je	 $LN94@LoadFloat_
  00044	80 f2 eb	 xor	 dl, -21			; ffffffebH
  00047	88 55 e2	 mov	 BYTE PTR __k$[ebp+2], dl
  0004a	8a 50 03	 mov	 dl, BYTE PTR [eax+3]
  0004d	84 d2		 test	 dl, dl
  0004f	0f 84 e7 01 00
	00		 je	 $LN93@LoadFloat_
  00055	b3 ea		 mov	 bl, -22			; ffffffeaH
  00057	32 d3		 xor	 dl, bl
  00059	88 55 e3	 mov	 BYTE PTR __k$[ebp+3], dl
  0005c	8a 50 04	 mov	 dl, BYTE PTR [eax+4]
  0005f	84 d2		 test	 dl, dl
  00061	0f 84 cf 01 00
	00		 je	 $LN92@LoadFloat_
  00067	80 f2 ed	 xor	 dl, -19			; ffffffedH
  0006a	88 55 e4	 mov	 BYTE PTR __k$[ebp+4], dl
  0006d	8a 50 05	 mov	 dl, BYTE PTR [eax+5]
  00070	84 d2		 test	 dl, dl
  00072	0f 84 b9 01 00
	00		 je	 $LN91@LoadFloat_
  00078	32 d1		 xor	 dl, cl
  0007a	88 55 e5	 mov	 BYTE PTR __k$[ebp+5], dl
  0007d	8a 50 06	 mov	 dl, BYTE PTR [eax+6]
  00080	84 d2		 test	 dl, dl
  00082	0f 84 a3 01 00
	00		 je	 $LN90@LoadFloat_
  00088	80 f2 eb	 xor	 dl, -21			; ffffffebH
  0008b	88 55 e6	 mov	 BYTE PTR __k$[ebp+6], dl
  0008e	8a 50 07	 mov	 dl, BYTE PTR [eax+7]
  00091	84 d2		 test	 dl, dl
  00093	0f 84 8d 01 00
	00		 je	 $LN89@LoadFloat_
  00099	32 d3		 xor	 dl, bl
  0009b	88 55 e7	 mov	 BYTE PTR __k$[ebp+7], dl
  0009e	8a 50 08	 mov	 dl, BYTE PTR [eax+8]
  000a1	84 d2		 test	 dl, dl
  000a3	0f 84 77 01 00
	00		 je	 $LN88@LoadFloat_
  000a9	80 f2 ed	 xor	 dl, -19			; ffffffedH
  000ac	88 55 e8	 mov	 BYTE PTR __k$[ebp+8], dl
  000af	8a 50 09	 mov	 dl, BYTE PTR [eax+9]
  000b2	84 d2		 test	 dl, dl
  000b4	0f 84 61 01 00
	00		 je	 $LN87@LoadFloat_
  000ba	32 d1		 xor	 dl, cl
  000bc	88 55 e9	 mov	 BYTE PTR __k$[ebp+9], dl
  000bf	8a 50 0a	 mov	 dl, BYTE PTR [eax+10]
  000c2	84 d2		 test	 dl, dl
  000c4	0f 84 4b 01 00
	00		 je	 $LN86@LoadFloat_
  000ca	80 f2 eb	 xor	 dl, -21			; ffffffebH
  000cd	88 55 ea	 mov	 BYTE PTR __k$[ebp+10], dl
  000d0	8a 50 0b	 mov	 dl, BYTE PTR [eax+11]
  000d3	84 d2		 test	 dl, dl
  000d5	0f 84 35 01 00
	00		 je	 $LN85@LoadFloat_
  000db	32 d3		 xor	 dl, bl
  000dd	88 55 eb	 mov	 BYTE PTR __k$[ebp+11], dl
  000e0	8a 50 0c	 mov	 dl, BYTE PTR [eax+12]
  000e3	84 d2		 test	 dl, dl
  000e5	0f 84 1f 01 00
	00		 je	 $LN84@LoadFloat_
  000eb	80 f2 ed	 xor	 dl, -19			; ffffffedH
  000ee	88 55 ec	 mov	 BYTE PTR __k$[ebp+12], dl
  000f1	8a 50 0d	 mov	 dl, BYTE PTR [eax+13]
  000f4	84 d2		 test	 dl, dl
  000f6	0f 84 09 01 00
	00		 je	 $LN83@LoadFloat_
  000fc	32 d1		 xor	 dl, cl
  000fe	88 55 ed	 mov	 BYTE PTR __k$[ebp+13], dl
  00101	8a 50 0e	 mov	 dl, BYTE PTR [eax+14]
  00104	84 d2		 test	 dl, dl
  00106	0f 84 f3 00 00
	00		 je	 $LN82@LoadFloat_
  0010c	80 f2 eb	 xor	 dl, -21			; ffffffebH
  0010f	88 55 ee	 mov	 BYTE PTR __k$[ebp+14], dl
  00112	8a 50 0f	 mov	 dl, BYTE PTR [eax+15]
  00115	84 d2		 test	 dl, dl
  00117	0f 84 dd 00 00
	00		 je	 $LN81@LoadFloat_
  0011d	32 d3		 xor	 dl, bl
  0011f	88 55 ef	 mov	 BYTE PTR __k$[ebp+15], dl
  00122	8a 50 10	 mov	 dl, BYTE PTR [eax+16]
  00125	84 d2		 test	 dl, dl
  00127	0f 84 c7 00 00
	00		 je	 $LN80@LoadFloat_
  0012d	80 f2 ed	 xor	 dl, -19			; ffffffedH
  00130	88 55 f0	 mov	 BYTE PTR __k$[ebp+16], dl
  00133	8a 50 11	 mov	 dl, BYTE PTR [eax+17]
  00136	84 d2		 test	 dl, dl
  00138	0f 84 b1 00 00
	00		 je	 $LN79@LoadFloat_
  0013e	32 d1		 xor	 dl, cl
  00140	88 55 f1	 mov	 BYTE PTR __k$[ebp+17], dl
  00143	8a 50 12	 mov	 dl, BYTE PTR [eax+18]
  00146	84 d2		 test	 dl, dl
  00148	0f 84 9b 00 00
	00		 je	 $LN78@LoadFloat_
  0014e	80 f2 eb	 xor	 dl, -21			; ffffffebH
  00151	88 55 f2	 mov	 BYTE PTR __k$[ebp+18], dl
  00154	8a 50 13	 mov	 dl, BYTE PTR [eax+19]
  00157	84 d2		 test	 dl, dl
  00159	0f 84 85 00 00
	00		 je	 $LN77@LoadFloat_
  0015f	32 d3		 xor	 dl, bl
  00161	88 55 f3	 mov	 BYTE PTR __k$[ebp+19], dl
  00164	8a 50 14	 mov	 dl, BYTE PTR [eax+20]
  00167	84 d2		 test	 dl, dl
  00169	74 73		 je	 SHORT $LN76@LoadFloat_
  0016b	80 f2 ed	 xor	 dl, -19			; ffffffedH
  0016e	88 55 f4	 mov	 BYTE PTR __k$[ebp+20], dl
  00171	8a 50 15	 mov	 dl, BYTE PTR [eax+21]
  00174	84 d2		 test	 dl, dl
  00176	74 61		 je	 SHORT $LN75@LoadFloat_
  00178	32 d1		 xor	 dl, cl
  0017a	80 78 16 00	 cmp	 BYTE PTR [eax+22], 0
  0017e	88 55 f5	 mov	 BYTE PTR __k$[ebp+21], dl
  00181	0f 84 cb 00 00
	00		 je	 $LN1@LoadFloat_
  00187	8a 50 17	 mov	 dl, BYTE PTR [eax+23]
  0018a	84 d2		 test	 dl, dl
  0018c	74 46		 je	 SHORT $LN73@LoadFloat_
  0018e	32 d3		 xor	 dl, bl
  00190	88 55 f7	 mov	 BYTE PTR __k$[ebp+23], dl
  00193	8a 50 18	 mov	 dl, BYTE PTR [eax+24]
  00196	84 d2		 test	 dl, dl
  00198	74 34		 je	 SHORT $LN72@LoadFloat_
  0019a	80 f2 ed	 xor	 dl, -19			; ffffffedH
  0019d	88 55 f8	 mov	 BYTE PTR __k$[ebp+24], dl
  001a0	8a 50 19	 mov	 dl, BYTE PTR [eax+25]
  001a3	84 d2		 test	 dl, dl
  001a5	74 1f		 je	 SHORT $LN71@LoadFloat_
  001a7	8a 40 1a	 mov	 al, BYTE PTR [eax+26]
  001aa	32 d1		 xor	 dl, cl
  001ac	88 55 f9	 mov	 BYTE PTR __k$[ebp+25], dl
  001af	84 c0		 test	 al, al
  001b1	74 0a		 je	 SHORT $LN70@LoadFloat_
  001b3	34 eb		 xor	 al, -21			; ffffffebH
  001b5	88 45 fa	 mov	 BYTE PTR __k$[ebp+26], al
  001b8	e9 95 00 00 00	 jmp	 $LN1@LoadFloat_
$LN70@LoadFloat_:
  001bd	c6 45 fa eb	 mov	 BYTE PTR __k$[ebp+26], -21 ; ffffffebH
  001c1	e9 8c 00 00 00	 jmp	 $LN1@LoadFloat_
$LN71@LoadFloat_:
  001c6	88 4d f9	 mov	 BYTE PTR __k$[ebp+25], cl
  001c9	e9 84 00 00 00	 jmp	 $LN1@LoadFloat_
$LN72@LoadFloat_:
  001ce	c6 45 f8 ed	 mov	 BYTE PTR __k$[ebp+24], -19 ; ffffffedH
  001d2	eb 7e		 jmp	 SHORT $LN1@LoadFloat_
$LN73@LoadFloat_:
  001d4	88 5d f7	 mov	 BYTE PTR __k$[ebp+23], bl
  001d7	eb 79		 jmp	 SHORT $LN1@LoadFloat_
$LN75@LoadFloat_:
  001d9	88 4d f5	 mov	 BYTE PTR __k$[ebp+21], cl
  001dc	eb 74		 jmp	 SHORT $LN1@LoadFloat_
$LN76@LoadFloat_:
  001de	c6 45 f4 ed	 mov	 BYTE PTR __k$[ebp+20], -19 ; ffffffedH
  001e2	eb 6e		 jmp	 SHORT $LN1@LoadFloat_
$LN77@LoadFloat_:
  001e4	88 5d f3	 mov	 BYTE PTR __k$[ebp+19], bl
  001e7	eb 69		 jmp	 SHORT $LN1@LoadFloat_
$LN78@LoadFloat_:
  001e9	c6 45 f2 eb	 mov	 BYTE PTR __k$[ebp+18], -21 ; ffffffebH
  001ed	eb 63		 jmp	 SHORT $LN1@LoadFloat_
$LN79@LoadFloat_:
  001ef	88 4d f1	 mov	 BYTE PTR __k$[ebp+17], cl
  001f2	eb 5e		 jmp	 SHORT $LN1@LoadFloat_
$LN80@LoadFloat_:
  001f4	c6 45 f0 ed	 mov	 BYTE PTR __k$[ebp+16], -19 ; ffffffedH
  001f8	eb 58		 jmp	 SHORT $LN1@LoadFloat_
$LN81@LoadFloat_:
  001fa	88 5d ef	 mov	 BYTE PTR __k$[ebp+15], bl
  001fd	eb 53		 jmp	 SHORT $LN1@LoadFloat_
$LN82@LoadFloat_:
  001ff	c6 45 ee eb	 mov	 BYTE PTR __k$[ebp+14], -21 ; ffffffebH
  00203	eb 4d		 jmp	 SHORT $LN1@LoadFloat_
$LN83@LoadFloat_:
  00205	88 4d ed	 mov	 BYTE PTR __k$[ebp+13], cl
  00208	eb 48		 jmp	 SHORT $LN1@LoadFloat_
$LN84@LoadFloat_:
  0020a	c6 45 ec ed	 mov	 BYTE PTR __k$[ebp+12], -19 ; ffffffedH
  0020e	eb 42		 jmp	 SHORT $LN1@LoadFloat_
$LN85@LoadFloat_:
  00210	88 5d eb	 mov	 BYTE PTR __k$[ebp+11], bl
  00213	eb 3d		 jmp	 SHORT $LN1@LoadFloat_
$LN86@LoadFloat_:
  00215	c6 45 ea eb	 mov	 BYTE PTR __k$[ebp+10], -21 ; ffffffebH
  00219	eb 37		 jmp	 SHORT $LN1@LoadFloat_
$LN87@LoadFloat_:
  0021b	88 4d e9	 mov	 BYTE PTR __k$[ebp+9], cl
  0021e	eb 32		 jmp	 SHORT $LN1@LoadFloat_
$LN88@LoadFloat_:
  00220	c6 45 e8 ed	 mov	 BYTE PTR __k$[ebp+8], -19 ; ffffffedH
  00224	eb 2c		 jmp	 SHORT $LN1@LoadFloat_
$LN89@LoadFloat_:
  00226	88 5d e7	 mov	 BYTE PTR __k$[ebp+7], bl
  00229	eb 27		 jmp	 SHORT $LN1@LoadFloat_
$LN90@LoadFloat_:
  0022b	c6 45 e6 eb	 mov	 BYTE PTR __k$[ebp+6], -21 ; ffffffebH
  0022f	eb 21		 jmp	 SHORT $LN1@LoadFloat_
$LN91@LoadFloat_:
  00231	88 4d e5	 mov	 BYTE PTR __k$[ebp+5], cl
  00234	eb 1c		 jmp	 SHORT $LN1@LoadFloat_
$LN92@LoadFloat_:
  00236	c6 45 e4 ed	 mov	 BYTE PTR __k$[ebp+4], -19 ; ffffffedH
  0023a	eb 16		 jmp	 SHORT $LN1@LoadFloat_
$LN93@LoadFloat_:
  0023c	c6 45 e3 ea	 mov	 BYTE PTR __k$[ebp+3], -22 ; ffffffeaH
  00240	eb 10		 jmp	 SHORT $LN1@LoadFloat_
$LN94@LoadFloat_:
  00242	c6 45 e2 eb	 mov	 BYTE PTR __k$[ebp+2], -21 ; ffffffebH
  00246	eb 0a		 jmp	 SHORT $LN1@LoadFloat_
$LN95@LoadFloat_:
  00248	c6 45 e1 ec	 mov	 BYTE PTR __k$[ebp+1], -20 ; ffffffecH
  0024c	eb 04		 jmp	 SHORT $LN1@LoadFloat_
$LN96@LoadFloat_:
  0024e	c6 45 e0 ed	 mov	 BYTE PTR __k$[ebp], -19	; ffffffedH
$LN1@LoadFloat_:
  00252	6a 05		 push	 5
  00254	8d 45 e0	 lea	 eax, DWORD PTR __k$[ebp]
  00257	c6 45 f6 00	 mov	 BYTE PTR __k$[ebp+22], 0
  0025b	5a		 pop	 edx
$LL104@LoadFloat_:
  0025c	81 30 ed ec eb
	ea		 xor	 DWORD PTR [eax], -353637139 ; eaebecedH
  00262	83 c0 04	 add	 eax, 4
  00265	4a		 dec	 edx
  00266	75 f4		 jne	 SHORT $LL104@LoadFloat_
  00268	6a 14		 push	 20			; 00000014H
  0026a	58		 pop	 eax
$LL101@LoadFloat_:
  0026b	8b c8		 mov	 ecx, eax
  0026d	81 e1 03 00 00
	80		 and	 ecx, -2147483645	; 80000003H
  00273	79 05		 jns	 SHORT $LN111@LoadFloat_
  00275	49		 dec	 ecx
  00276	83 c9 fc	 or	 ecx, -4			; fffffffcH
  00279	41		 inc	 ecx
$LN111@LoadFloat_:
  0027a	b2 ed		 mov	 dl, -19			; ffffffedH
  0027c	2a d1		 sub	 dl, cl
  0027e	30 54 05 e0	 xor	 BYTE PTR __k$[ebp+eax], dl
  00282	40		 inc	 eax
  00283	83 f8 16	 cmp	 eax, 22			; 00000016H
  00286	7c e3		 jl	 SHORT $LL101@LoadFloat_

; 137  : 		return LoadFloat(_k, f);

  00288	f3 0f 10 45 0c	 movss	 xmm0, DWORD PTR _f$[ebp]
  0028d	51		 push	 ecx
  0028e	8d 45 e0	 lea	 eax, DWORD PTR __k$[ebp]
  00291	f3 0f 11 04 24	 movss	 DWORD PTR [esp], xmm0
  00296	50		 push	 eax
  00297	8b ce		 mov	 ecx, esi
  00299	ff 15 00 00 00
	00		 call	 DWORD PTR __imp_?LoadFloat@ioINILoader@@QAEMPBDM@Z

; 138  : 	}

  0029f	8b 4d fc	 mov	 ecx, DWORD PTR __$ArrayPad$[ebp]
  002a2	5e		 pop	 esi
  002a3	33 cd		 xor	 ecx, ebp
  002a5	5b		 pop	 ebx
  002a6	e8 00 00 00 00	 call	 @__security_check_cookie@4
  002ab	c9		 leave
  002ac	c2 08 00	 ret	 8
??$LoadFloat_e@$0BH@@ioINILoader@@QAEMAAY0BH@$$CBDM@Z ENDP ; ioINILoader::LoadFloat_e<23>
_TEXT	ENDS
PUBLIC	_this$GSCopy$
PUBLIC	__$ArrayPad$
PUBLIC	??$LoadString_e@$0O@@ioINILoader@@QAEXAAY0O@$$CBDAAY00$$CBDPADH@Z ; ioINILoader::LoadString_e<14>
; Function compile flags: /Ogsp
;	COMDAT ??$LoadString_e@$0O@@ioINILoader@@QAEXAAY0O@$$CBDAAY00$$CBDPADH@Z
_TEXT	SEGMENT
_this$GSCopy$ = -28					; size = 4
__k$ = -24						; size = 14
__$ArrayPad$ = -4					; size = 4
_k$ = 8							; size = 4
_d$ = 12						; size = 4
_b$ = 16						; size = 4
_i$ = 20						; size = 4
??$LoadString_e@$0O@@ioINILoader@@QAEXAAY0O@$$CBDAAY00$$CBDPADH@Z PROC ; ioINILoader::LoadString_e<14>, COMDAT
; _this$ = ecx

; 161  : 	{

  00000	55		 push	 ebp
  00001	8b ec		 mov	 ebp, esp
  00003	83 ec 1c	 sub	 esp, 28			; 0000001cH
  00006	a1 00 00 00 00	 mov	 eax, DWORD PTR ___security_cookie
  0000b	33 c5		 xor	 eax, ebp
  0000d	89 45 fc	 mov	 DWORD PTR __$ArrayPad$[ebp], eax
  00010	8b 45 08	 mov	 eax, DWORD PTR _k$[ebp]

; 162  : 		_ENCSTR(k, _k);

  00013	8a 10		 mov	 dl, BYTE PTR [eax]
  00015	56		 push	 esi
  00016	8b 75 0c	 mov	 esi, DWORD PTR _d$[ebp]
  00019	57		 push	 edi
  0001a	8b 7d 10	 mov	 edi, DWORD PTR _b$[ebp]
  0001d	89 4d e4	 mov	 DWORD PTR _this$GSCopy$[ebp], ecx
  00020	84 d2		 test	 dl, dl
  00022	0f 84 64 01 00
	00		 je	 $LN96@LoadString@2
  00028	80 f2 ed	 xor	 dl, -19			; ffffffedH
  0002b	88 55 e8	 mov	 BYTE PTR __k$[ebp], dl
  0002e	8a 50 01	 mov	 dl, BYTE PTR [eax+1]
  00031	84 d2		 test	 dl, dl
  00033	0f 84 4d 01 00
	00		 je	 $LN95@LoadString@2
  00039	80 f2 ec	 xor	 dl, -20			; ffffffecH
  0003c	88 55 e9	 mov	 BYTE PTR __k$[ebp+1], dl
  0003f	8a 50 02	 mov	 dl, BYTE PTR [eax+2]
  00042	84 d2		 test	 dl, dl
  00044	0f 84 36 01 00
	00		 je	 $LN94@LoadString@2
  0004a	b1 eb		 mov	 cl, -21			; ffffffebH
  0004c	32 d1		 xor	 dl, cl
  0004e	88 55 ea	 mov	 BYTE PTR __k$[ebp+2], dl
  00051	8a 50 03	 mov	 dl, BYTE PTR [eax+3]
  00054	84 d2		 test	 dl, dl
  00056	0f 84 1e 01 00
	00		 je	 $LN93@LoadString@2
  0005c	80 f2 ea	 xor	 dl, -22			; ffffffeaH
  0005f	88 55 eb	 mov	 BYTE PTR __k$[ebp+3], dl
  00062	8a 50 04	 mov	 dl, BYTE PTR [eax+4]
  00065	84 d2		 test	 dl, dl
  00067	0f 84 07 01 00
	00		 je	 $LN92@LoadString@2
  0006d	80 f2 ed	 xor	 dl, -19			; ffffffedH
  00070	88 55 ec	 mov	 BYTE PTR __k$[ebp+4], dl
  00073	8a 50 05	 mov	 dl, BYTE PTR [eax+5]
  00076	84 d2		 test	 dl, dl
  00078	0f 84 f0 00 00
	00		 je	 $LN91@LoadString@2
  0007e	80 f2 ec	 xor	 dl, -20			; ffffffecH
  00081	88 55 ed	 mov	 BYTE PTR __k$[ebp+5], dl
  00084	8a 50 06	 mov	 dl, BYTE PTR [eax+6]
  00087	84 d2		 test	 dl, dl
  00089	0f 84 da 00 00
	00		 je	 $LN90@LoadString@2
  0008f	32 d1		 xor	 dl, cl
  00091	88 55 ee	 mov	 BYTE PTR __k$[ebp+6], dl
  00094	8a 50 07	 mov	 dl, BYTE PTR [eax+7]
  00097	84 d2		 test	 dl, dl
  00099	0f 84 c4 00 00
	00		 je	 $LN89@LoadString@2
  0009f	80 f2 ea	 xor	 dl, -22			; ffffffeaH
  000a2	88 55 ef	 mov	 BYTE PTR __k$[ebp+7], dl
  000a5	8a 50 08	 mov	 dl, BYTE PTR [eax+8]
  000a8	84 d2		 test	 dl, dl
  000aa	0f 84 ad 00 00
	00		 je	 $LN88@LoadString@2
  000b0	80 f2 ed	 xor	 dl, -19			; ffffffedH
  000b3	88 55 f0	 mov	 BYTE PTR __k$[ebp+8], dl
  000b6	8a 50 09	 mov	 dl, BYTE PTR [eax+9]
  000b9	84 d2		 test	 dl, dl
  000bb	0f 84 96 00 00
	00		 je	 $LN87@LoadString@2
  000c1	80 f2 ec	 xor	 dl, -20			; ffffffecH
  000c4	88 55 f1	 mov	 BYTE PTR __k$[ebp+9], dl
  000c7	8a 50 0a	 mov	 dl, BYTE PTR [eax+10]
  000ca	84 d2		 test	 dl, dl
  000cc	0f 84 80 00 00
	00		 je	 $LN86@LoadString@2
  000d2	32 d1		 xor	 dl, cl
  000d4	88 55 f2	 mov	 BYTE PTR __k$[ebp+10], dl
  000d7	8a 50 0b	 mov	 dl, BYTE PTR [eax+11]
  000da	84 d2		 test	 dl, dl
  000dc	74 6e		 je	 SHORT $LN85@LoadString@2
  000de	80 f2 ea	 xor	 dl, -22			; ffffffeaH
  000e1	88 55 f3	 mov	 BYTE PTR __k$[ebp+11], dl
  000e4	8a 50 0c	 mov	 dl, BYTE PTR [eax+12]
  000e7	84 d2		 test	 dl, dl
  000e9	74 5b		 je	 SHORT $LN84@LoadString@2
  000eb	80 f2 ed	 xor	 dl, -19			; ffffffedH
  000ee	80 78 0d 00	 cmp	 BYTE PTR [eax+13], 0
  000f2	88 55 f4	 mov	 BYTE PTR __k$[ebp+12], dl
  000f5	0f 84 95 00 00
	00		 je	 $LN111@LoadString@2
  000fb	8a 50 0e	 mov	 dl, BYTE PTR [eax+14]
  000fe	84 d2		 test	 dl, dl
  00100	74 3f		 je	 SHORT $LN82@LoadString@2
  00102	32 d1		 xor	 dl, cl
  00104	88 55 f6	 mov	 BYTE PTR __k$[ebp+14], dl
  00107	8a 50 0f	 mov	 dl, BYTE PTR [eax+15]
  0010a	84 d2		 test	 dl, dl
  0010c	74 2d		 je	 SHORT $LN81@LoadString@2
  0010e	80 f2 ea	 xor	 dl, -22			; ffffffeaH
  00111	88 55 f7	 mov	 BYTE PTR __k$[ebp+15], dl
  00114	8a 50 10	 mov	 dl, BYTE PTR [eax+16]
  00117	84 d2		 test	 dl, dl
  00119	74 1a		 je	 SHORT $LN80@LoadString@2
  0011b	8a 40 11	 mov	 al, BYTE PTR [eax+17]
  0011e	80 f2 ed	 xor	 dl, -19			; ffffffedH
  00121	88 55 f8	 mov	 BYTE PTR __k$[ebp+16], dl
  00124	84 c0		 test	 al, al
  00126	74 07		 je	 SHORT $LN79@LoadString@2
  00128	34 ec		 xor	 al, -20			; ffffffecH
  0012a	88 45 f9	 mov	 BYTE PTR __k$[ebp+17], al
  0012d	eb 61		 jmp	 SHORT $LN111@LoadString@2
$LN79@LoadString@2:
  0012f	c6 45 f9 ec	 mov	 BYTE PTR __k$[ebp+17], -20 ; ffffffecH
  00133	eb 5b		 jmp	 SHORT $LN111@LoadString@2
$LN80@LoadString@2:
  00135	c6 45 f8 ed	 mov	 BYTE PTR __k$[ebp+16], -19 ; ffffffedH
  00139	eb 55		 jmp	 SHORT $LN111@LoadString@2
$LN81@LoadString@2:
  0013b	c6 45 f7 ea	 mov	 BYTE PTR __k$[ebp+15], -22 ; ffffffeaH
  0013f	eb 4f		 jmp	 SHORT $LN111@LoadString@2
$LN82@LoadString@2:
  00141	88 4d f6	 mov	 BYTE PTR __k$[ebp+14], cl
  00144	eb 4a		 jmp	 SHORT $LN111@LoadString@2
$LN84@LoadString@2:
  00146	c6 45 f4 ed	 mov	 BYTE PTR __k$[ebp+12], -19 ; ffffffedH
  0014a	eb 44		 jmp	 SHORT $LN111@LoadString@2
$LN85@LoadString@2:
  0014c	c6 45 f3 ea	 mov	 BYTE PTR __k$[ebp+11], -22 ; ffffffeaH
  00150	eb 3e		 jmp	 SHORT $LN111@LoadString@2
$LN86@LoadString@2:
  00152	88 4d f2	 mov	 BYTE PTR __k$[ebp+10], cl
  00155	eb 39		 jmp	 SHORT $LN111@LoadString@2
$LN87@LoadString@2:
  00157	c6 45 f1 ec	 mov	 BYTE PTR __k$[ebp+9], -20 ; ffffffecH
  0015b	eb 33		 jmp	 SHORT $LN111@LoadString@2
$LN88@LoadString@2:
  0015d	c6 45 f0 ed	 mov	 BYTE PTR __k$[ebp+8], -19 ; ffffffedH
  00161	eb 2d		 jmp	 SHORT $LN111@LoadString@2
$LN89@LoadString@2:
  00163	c6 45 ef ea	 mov	 BYTE PTR __k$[ebp+7], -22 ; ffffffeaH
  00167	eb 27		 jmp	 SHORT $LN111@LoadString@2
$LN90@LoadString@2:
  00169	88 4d ee	 mov	 BYTE PTR __k$[ebp+6], cl
  0016c	eb 22		 jmp	 SHORT $LN111@LoadString@2
$LN91@LoadString@2:
  0016e	c6 45 ed ec	 mov	 BYTE PTR __k$[ebp+5], -20 ; ffffffecH
  00172	eb 1c		 jmp	 SHORT $LN111@LoadString@2
$LN92@LoadString@2:
  00174	c6 45 ec ed	 mov	 BYTE PTR __k$[ebp+4], -19 ; ffffffedH
  00178	eb 16		 jmp	 SHORT $LN111@LoadString@2
$LN93@LoadString@2:
  0017a	c6 45 eb ea	 mov	 BYTE PTR __k$[ebp+3], -22 ; ffffffeaH
  0017e	eb 10		 jmp	 SHORT $LN111@LoadString@2
$LN94@LoadString@2:
  00180	c6 45 ea eb	 mov	 BYTE PTR __k$[ebp+2], -21 ; ffffffebH
  00184	eb 0a		 jmp	 SHORT $LN111@LoadString@2
$LN95@LoadString@2:
  00186	c6 45 e9 ec	 mov	 BYTE PTR __k$[ebp+1], -20 ; ffffffecH
  0018a	eb 04		 jmp	 SHORT $LN111@LoadString@2
$LN96@LoadString@2:
  0018c	c6 45 e8 ed	 mov	 BYTE PTR __k$[ebp], -19	; ffffffedH
$LN111@LoadString@2:
  00190	6a 03		 push	 3
  00192	8d 45 e8	 lea	 eax, DWORD PTR __k$[ebp]
  00195	c6 45 f5 00	 mov	 BYTE PTR __k$[ebp+13], 0
  00199	5a		 pop	 edx
$LL104@LoadString@2:
  0019a	81 30 ed ec eb
	ea		 xor	 DWORD PTR [eax], -353637139 ; eaebecedH
  001a0	83 c0 04	 add	 eax, 4
  001a3	4a		 dec	 edx
  001a4	75 f4		 jne	 SHORT $LL104@LoadString@2

; 163  : 		LoadString(_k, d, b, i);

  001a6	ff 75 14	 push	 DWORD PTR _i$[ebp]
  001a9	8b 4d e4	 mov	 ecx, DWORD PTR _this$GSCopy$[ebp]
  001ac	80 75 f4 ed	 xor	 BYTE PTR __k$[ebp+12], -19 ; ffffffedH
  001b0	57		 push	 edi
  001b1	56		 push	 esi
  001b2	8d 45 e8	 lea	 eax, DWORD PTR __k$[ebp]
  001b5	50		 push	 eax
  001b6	ff 15 00 00 00
	00		 call	 DWORD PTR __imp_?LoadStringA@ioINILoader@@QAEXPBD0PADH@Z

; 164  : 	}

  001bc	8b 4d fc	 mov	 ecx, DWORD PTR __$ArrayPad$[ebp]
  001bf	5f		 pop	 edi
  001c0	33 cd		 xor	 ecx, ebp
  001c2	5e		 pop	 esi
  001c3	e8 00 00 00 00	 call	 @__security_check_cookie@4
  001c8	c9		 leave
  001c9	c2 10 00	 ret	 16			; 00000010H
??$LoadString_e@$0O@@ioINILoader@@QAEXAAY0O@$$CBDAAY00$$CBDPADH@Z ENDP ; ioINILoader::LoadString_e<14>
_TEXT	ENDS
PUBLIC	_this$GSCopy$
PUBLIC	__$ArrayPad$
PUBLIC	??$LoadString_e@$0BA@@ioINILoader@@QAEXAAY0BA@$$CBDAAY00$$CBDPADH@Z ; ioINILoader::LoadString_e<16>
; Function compile flags: /Ogsp
;	COMDAT ??$LoadString_e@$0BA@@ioINILoader@@QAEXAAY0BA@$$CBDAAY00$$CBDPADH@Z
_TEXT	SEGMENT
_this$GSCopy$ = -28					; size = 4
__k$ = -24						; size = 16
__$ArrayPad$ = -4					; size = 4
_k$ = 8							; size = 4
_d$ = 12						; size = 4
_b$ = 16						; size = 4
_i$ = 20						; size = 4
??$LoadString_e@$0BA@@ioINILoader@@QAEXAAY0BA@$$CBDAAY00$$CBDPADH@Z PROC ; ioINILoader::LoadString_e<16>, COMDAT
; _this$ = ecx

; 161  : 	{

  00000	55		 push	 ebp
  00001	8b ec		 mov	 ebp, esp
  00003	83 ec 1c	 sub	 esp, 28			; 0000001cH
  00006	a1 00 00 00 00	 mov	 eax, DWORD PTR ___security_cookie
  0000b	33 c5		 xor	 eax, ebp
  0000d	89 45 fc	 mov	 DWORD PTR __$ArrayPad$[ebp], eax
  00010	8b 45 08	 mov	 eax, DWORD PTR _k$[ebp]

; 162  : 		_ENCSTR(k, _k);

  00013	8a 10		 mov	 dl, BYTE PTR [eax]
  00015	56		 push	 esi
  00016	8b 75 0c	 mov	 esi, DWORD PTR _d$[ebp]
  00019	57		 push	 edi
  0001a	8b 7d 10	 mov	 edi, DWORD PTR _b$[ebp]
  0001d	89 4d e4	 mov	 DWORD PTR _this$GSCopy$[ebp], ecx
  00020	84 d2		 test	 dl, dl
  00022	0f 84 8c 01 00
	00		 je	 $LN96@LoadString@3
  00028	80 f2 ed	 xor	 dl, -19			; ffffffedH
  0002b	88 55 e8	 mov	 BYTE PTR __k$[ebp], dl
  0002e	8a 50 01	 mov	 dl, BYTE PTR [eax+1]
  00031	84 d2		 test	 dl, dl
  00033	0f 84 75 01 00
	00		 je	 $LN95@LoadString@3
  00039	80 f2 ec	 xor	 dl, -20			; ffffffecH
  0003c	88 55 e9	 mov	 BYTE PTR __k$[ebp+1], dl
  0003f	8a 50 02	 mov	 dl, BYTE PTR [eax+2]
  00042	84 d2		 test	 dl, dl
  00044	0f 84 5e 01 00
	00		 je	 $LN94@LoadString@3
  0004a	b1 eb		 mov	 cl, -21			; ffffffebH
  0004c	32 d1		 xor	 dl, cl
  0004e	88 55 ea	 mov	 BYTE PTR __k$[ebp+2], dl
  00051	8a 50 03	 mov	 dl, BYTE PTR [eax+3]
  00054	84 d2		 test	 dl, dl
  00056	0f 84 46 01 00
	00		 je	 $LN93@LoadString@3
  0005c	80 f2 ea	 xor	 dl, -22			; ffffffeaH
  0005f	88 55 eb	 mov	 BYTE PTR __k$[ebp+3], dl
  00062	8a 50 04	 mov	 dl, BYTE PTR [eax+4]
  00065	84 d2		 test	 dl, dl
  00067	0f 84 2f 01 00
	00		 je	 $LN92@LoadString@3
  0006d	80 f2 ed	 xor	 dl, -19			; ffffffedH
  00070	88 55 ec	 mov	 BYTE PTR __k$[ebp+4], dl
  00073	8a 50 05	 mov	 dl, BYTE PTR [eax+5]
  00076	84 d2		 test	 dl, dl
  00078	0f 84 18 01 00
	00		 je	 $LN91@LoadString@3
  0007e	80 f2 ec	 xor	 dl, -20			; ffffffecH
  00081	88 55 ed	 mov	 BYTE PTR __k$[ebp+5], dl
  00084	8a 50 06	 mov	 dl, BYTE PTR [eax+6]
  00087	84 d2		 test	 dl, dl
  00089	0f 84 02 01 00
	00		 je	 $LN90@LoadString@3
  0008f	32 d1		 xor	 dl, cl
  00091	88 55 ee	 mov	 BYTE PTR __k$[ebp+6], dl
  00094	8a 50 07	 mov	 dl, BYTE PTR [eax+7]
  00097	84 d2		 test	 dl, dl
  00099	0f 84 ec 00 00
	00		 je	 $LN89@LoadString@3
  0009f	80 f2 ea	 xor	 dl, -22			; ffffffeaH
  000a2	88 55 ef	 mov	 BYTE PTR __k$[ebp+7], dl
  000a5	8a 50 08	 mov	 dl, BYTE PTR [eax+8]
  000a8	84 d2		 test	 dl, dl
  000aa	0f 84 d5 00 00
	00		 je	 $LN88@LoadString@3
  000b0	80 f2 ed	 xor	 dl, -19			; ffffffedH
  000b3	88 55 f0	 mov	 BYTE PTR __k$[ebp+8], dl
  000b6	8a 50 09	 mov	 dl, BYTE PTR [eax+9]
  000b9	84 d2		 test	 dl, dl
  000bb	0f 84 be 00 00
	00		 je	 $LN87@LoadString@3
  000c1	80 f2 ec	 xor	 dl, -20			; ffffffecH
  000c4	88 55 f1	 mov	 BYTE PTR __k$[ebp+9], dl
  000c7	8a 50 0a	 mov	 dl, BYTE PTR [eax+10]
  000ca	84 d2		 test	 dl, dl
  000cc	0f 84 a8 00 00
	00		 je	 $LN86@LoadString@3
  000d2	32 d1		 xor	 dl, cl
  000d4	88 55 f2	 mov	 BYTE PTR __k$[ebp+10], dl
  000d7	8a 50 0b	 mov	 dl, BYTE PTR [eax+11]
  000da	84 d2		 test	 dl, dl
  000dc	0f 84 92 00 00
	00		 je	 $LN85@LoadString@3
  000e2	80 f2 ea	 xor	 dl, -22			; ffffffeaH
  000e5	88 55 f3	 mov	 BYTE PTR __k$[ebp+11], dl
  000e8	8a 50 0c	 mov	 dl, BYTE PTR [eax+12]
  000eb	84 d2		 test	 dl, dl
  000ed	74 7f		 je	 SHORT $LN84@LoadString@3
  000ef	80 f2 ed	 xor	 dl, -19			; ffffffedH
  000f2	88 55 f4	 mov	 BYTE PTR __k$[ebp+12], dl
  000f5	8a 50 0d	 mov	 dl, BYTE PTR [eax+13]
  000f8	84 d2		 test	 dl, dl
  000fa	74 6c		 je	 SHORT $LN83@LoadString@3
  000fc	80 f2 ec	 xor	 dl, -20			; ffffffecH
  000ff	88 55 f5	 mov	 BYTE PTR __k$[ebp+13], dl
  00102	8a 50 0e	 mov	 dl, BYTE PTR [eax+14]
  00105	84 d2		 test	 dl, dl
  00107	74 5a		 je	 SHORT $LN82@LoadString@3
  00109	32 d1		 xor	 dl, cl
  0010b	80 78 0f 00	 cmp	 BYTE PTR [eax+15], 0
  0010f	88 55 f6	 mov	 BYTE PTR __k$[ebp+14], dl
  00112	0f 84 a0 00 00
	00		 je	 $LN111@LoadString@3
  00118	8a 50 10	 mov	 dl, BYTE PTR [eax+16]
  0011b	84 d2		 test	 dl, dl
  0011d	74 3e		 je	 SHORT $LN80@LoadString@3
  0011f	80 f2 ed	 xor	 dl, -19			; ffffffedH
  00122	88 55 f8	 mov	 BYTE PTR __k$[ebp+16], dl
  00125	8a 50 11	 mov	 dl, BYTE PTR [eax+17]
  00128	84 d2		 test	 dl, dl
  0012a	74 2b		 je	 SHORT $LN79@LoadString@3
  0012c	80 f2 ec	 xor	 dl, -20			; ffffffecH
  0012f	88 55 f9	 mov	 BYTE PTR __k$[ebp+17], dl
  00132	8a 50 12	 mov	 dl, BYTE PTR [eax+18]
  00135	84 d2		 test	 dl, dl
  00137	74 19		 je	 SHORT $LN78@LoadString@3
  00139	8a 40 13	 mov	 al, BYTE PTR [eax+19]
  0013c	32 d1		 xor	 dl, cl
  0013e	88 55 fa	 mov	 BYTE PTR __k$[ebp+18], dl
  00141	84 c0		 test	 al, al
  00143	74 07		 je	 SHORT $LN77@LoadString@3
  00145	34 ea		 xor	 al, -22			; ffffffeaH
  00147	88 45 fb	 mov	 BYTE PTR __k$[ebp+19], al
  0014a	eb 6c		 jmp	 SHORT $LN111@LoadString@3
$LN77@LoadString@3:
  0014c	c6 45 fb ea	 mov	 BYTE PTR __k$[ebp+19], -22 ; ffffffeaH
  00150	eb 66		 jmp	 SHORT $LN111@LoadString@3
$LN78@LoadString@3:
  00152	88 4d fa	 mov	 BYTE PTR __k$[ebp+18], cl
  00155	eb 61		 jmp	 SHORT $LN111@LoadString@3
$LN79@LoadString@3:
  00157	c6 45 f9 ec	 mov	 BYTE PTR __k$[ebp+17], -20 ; ffffffecH
  0015b	eb 5b		 jmp	 SHORT $LN111@LoadString@3
$LN80@LoadString@3:
  0015d	c6 45 f8 ed	 mov	 BYTE PTR __k$[ebp+16], -19 ; ffffffedH
  00161	eb 55		 jmp	 SHORT $LN111@LoadString@3
$LN82@LoadString@3:
  00163	88 4d f6	 mov	 BYTE PTR __k$[ebp+14], cl
  00166	eb 50		 jmp	 SHORT $LN111@LoadString@3
$LN83@LoadString@3:
  00168	c6 45 f5 ec	 mov	 BYTE PTR __k$[ebp+13], -20 ; ffffffecH
  0016c	eb 4a		 jmp	 SHORT $LN111@LoadString@3
$LN84@LoadString@3:
  0016e	c6 45 f4 ed	 mov	 BYTE PTR __k$[ebp+12], -19 ; ffffffedH
  00172	eb 44		 jmp	 SHORT $LN111@LoadString@3
$LN85@LoadString@3:
  00174	c6 45 f3 ea	 mov	 BYTE PTR __k$[ebp+11], -22 ; ffffffeaH
  00178	eb 3e		 jmp	 SHORT $LN111@LoadString@3
$LN86@LoadString@3:
  0017a	88 4d f2	 mov	 BYTE PTR __k$[ebp+10], cl
  0017d	eb 39		 jmp	 SHORT $LN111@LoadString@3
$LN87@LoadString@3:
  0017f	c6 45 f1 ec	 mov	 BYTE PTR __k$[ebp+9], -20 ; ffffffecH
  00183	eb 33		 jmp	 SHORT $LN111@LoadString@3
$LN88@LoadString@3:
  00185	c6 45 f0 ed	 mov	 BYTE PTR __k$[ebp+8], -19 ; ffffffedH
  00189	eb 2d		 jmp	 SHORT $LN111@LoadString@3
$LN89@LoadString@3:
  0018b	c6 45 ef ea	 mov	 BYTE PTR __k$[ebp+7], -22 ; ffffffeaH
  0018f	eb 27		 jmp	 SHORT $LN111@LoadString@3
$LN90@LoadString@3:
  00191	88 4d ee	 mov	 BYTE PTR __k$[ebp+6], cl
  00194	eb 22		 jmp	 SHORT $LN111@LoadString@3
$LN91@LoadString@3:
  00196	c6 45 ed ec	 mov	 BYTE PTR __k$[ebp+5], -20 ; ffffffecH
  0019a	eb 1c		 jmp	 SHORT $LN111@LoadString@3
$LN92@LoadString@3:
  0019c	c6 45 ec ed	 mov	 BYTE PTR __k$[ebp+4], -19 ; ffffffedH
  001a0	eb 16		 jmp	 SHORT $LN111@LoadString@3
$LN93@LoadString@3:
  001a2	c6 45 eb ea	 mov	 BYTE PTR __k$[ebp+3], -22 ; ffffffeaH
  001a6	eb 10		 jmp	 SHORT $LN111@LoadString@3
$LN94@LoadString@3:
  001a8	c6 45 ea eb	 mov	 BYTE PTR __k$[ebp+2], -21 ; ffffffebH
  001ac	eb 0a		 jmp	 SHORT $LN111@LoadString@3
$LN95@LoadString@3:
  001ae	c6 45 e9 ec	 mov	 BYTE PTR __k$[ebp+1], -20 ; ffffffecH
  001b2	eb 04		 jmp	 SHORT $LN111@LoadString@3
$LN96@LoadString@3:
  001b4	c6 45 e8 ed	 mov	 BYTE PTR __k$[ebp], -19	; ffffffedH
$LN111@LoadString@3:
  001b8	6a 03		 push	 3
  001ba	8d 45 e8	 lea	 eax, DWORD PTR __k$[ebp]
  001bd	c6 45 f7 00	 mov	 BYTE PTR __k$[ebp+15], 0
  001c1	5a		 pop	 edx
$LL104@LoadString@3:
  001c2	81 30 ed ec eb
	ea		 xor	 DWORD PTR [eax], -353637139 ; eaebecedH
  001c8	83 c0 04	 add	 eax, 4
  001cb	4a		 dec	 edx
  001cc	75 f4		 jne	 SHORT $LL104@LoadString@3
  001ce	6a 0c		 push	 12			; 0000000cH
  001d0	58		 pop	 eax
$LL101@LoadString@3:
  001d1	8b c8		 mov	 ecx, eax
  001d3	81 e1 03 00 00
	80		 and	 ecx, -2147483645	; 80000003H
  001d9	79 05		 jns	 SHORT $LN112@LoadString@3
  001db	49		 dec	 ecx
  001dc	83 c9 fc	 or	 ecx, -4			; fffffffcH
  001df	41		 inc	 ecx
$LN112@LoadString@3:
  001e0	b2 ed		 mov	 dl, -19			; ffffffedH
  001e2	2a d1		 sub	 dl, cl
  001e4	30 54 05 e8	 xor	 BYTE PTR __k$[ebp+eax], dl
  001e8	40		 inc	 eax
  001e9	83 f8 0f	 cmp	 eax, 15			; 0000000fH
  001ec	7c e3		 jl	 SHORT $LL101@LoadString@3

; 163  : 		LoadString(_k, d, b, i);

  001ee	ff 75 14	 push	 DWORD PTR _i$[ebp]
  001f1	8b 4d e4	 mov	 ecx, DWORD PTR _this$GSCopy$[ebp]
  001f4	57		 push	 edi
  001f5	56		 push	 esi
  001f6	8d 45 e8	 lea	 eax, DWORD PTR __k$[ebp]
  001f9	50		 push	 eax
  001fa	ff 15 00 00 00
	00		 call	 DWORD PTR __imp_?LoadStringA@ioINILoader@@QAEXPBD0PADH@Z

; 164  : 	}

  00200	8b 4d fc	 mov	 ecx, DWORD PTR __$ArrayPad$[ebp]
  00203	5f		 pop	 edi
  00204	33 cd		 xor	 ecx, ebp
  00206	5e		 pop	 esi
  00207	e8 00 00 00 00	 call	 @__security_check_cookie@4
  0020c	c9		 leave
  0020d	c2 10 00	 ret	 16			; 00000010H
??$LoadString_e@$0BA@@ioINILoader@@QAEXAAY0BA@$$CBDAAY00$$CBDPADH@Z ENDP ; ioINILoader::LoadString_e<16>
_TEXT	ENDS
PUBLIC	_this$GSCopy$
PUBLIC	__$ArrayPad$
PUBLIC	??$LoadString_e@$0BB@@ioINILoader@@QAEXAAY0BB@$$CBDAAY00$$CBDPADH@Z ; ioINILoader::LoadString_e<17>
; Function compile flags: /Ogsp
;	COMDAT ??$LoadString_e@$0BB@@ioINILoader@@QAEXAAY0BB@$$CBDAAY00$$CBDPADH@Z
_TEXT	SEGMENT
_this$GSCopy$ = -32					; size = 4
__k$ = -28						; size = 17
__$ArrayPad$ = -4					; size = 4
_k$ = 8							; size = 4
_d$ = 12						; size = 4
_b$ = 16						; size = 4
_i$ = 20						; size = 4
??$LoadString_e@$0BB@@ioINILoader@@QAEXAAY0BB@$$CBDAAY00$$CBDPADH@Z PROC ; ioINILoader::LoadString_e<17>, COMDAT
; _this$ = ecx

; 161  : 	{

  00000	55		 push	 ebp
  00001	8b ec		 mov	 ebp, esp
  00003	83 ec 20	 sub	 esp, 32			; 00000020H
  00006	a1 00 00 00 00	 mov	 eax, DWORD PTR ___security_cookie
  0000b	33 c5		 xor	 eax, ebp
  0000d	89 45 fc	 mov	 DWORD PTR __$ArrayPad$[ebp], eax
  00010	8b 45 08	 mov	 eax, DWORD PTR _k$[ebp]

; 162  : 		_ENCSTR(k, _k);

  00013	8a 10		 mov	 dl, BYTE PTR [eax]
  00015	56		 push	 esi
  00016	8b 75 0c	 mov	 esi, DWORD PTR _d$[ebp]
  00019	57		 push	 edi
  0001a	8b 7d 10	 mov	 edi, DWORD PTR _b$[ebp]
  0001d	89 4d e0	 mov	 DWORD PTR _this$GSCopy$[ebp], ecx
  00020	84 d2		 test	 dl, dl
  00022	0f 84 a7 01 00
	00		 je	 $LN96@LoadString@4
  00028	80 f2 ed	 xor	 dl, -19			; ffffffedH
  0002b	88 55 e4	 mov	 BYTE PTR __k$[ebp], dl
  0002e	8a 50 01	 mov	 dl, BYTE PTR [eax+1]
  00031	84 d2		 test	 dl, dl
  00033	0f 84 90 01 00
	00		 je	 $LN95@LoadString@4
  00039	b1 ec		 mov	 cl, -20			; ffffffecH
  0003b	32 d1		 xor	 dl, cl
  0003d	88 55 e5	 mov	 BYTE PTR __k$[ebp+1], dl
  00040	8a 50 02	 mov	 dl, BYTE PTR [eax+2]
  00043	84 d2		 test	 dl, dl
  00045	0f 84 78 01 00
	00		 je	 $LN94@LoadString@4
  0004b	80 f2 eb	 xor	 dl, -21			; ffffffebH
  0004e	88 55 e6	 mov	 BYTE PTR __k$[ebp+2], dl
  00051	8a 50 03	 mov	 dl, BYTE PTR [eax+3]
  00054	84 d2		 test	 dl, dl
  00056	0f 84 61 01 00
	00		 je	 $LN93@LoadString@4
  0005c	80 f2 ea	 xor	 dl, -22			; ffffffeaH
  0005f	88 55 e7	 mov	 BYTE PTR __k$[ebp+3], dl
  00062	8a 50 04	 mov	 dl, BYTE PTR [eax+4]
  00065	84 d2		 test	 dl, dl
  00067	0f 84 4a 01 00
	00		 je	 $LN92@LoadString@4
  0006d	80 f2 ed	 xor	 dl, -19			; ffffffedH
  00070	88 55 e8	 mov	 BYTE PTR __k$[ebp+4], dl
  00073	8a 50 05	 mov	 dl, BYTE PTR [eax+5]
  00076	84 d2		 test	 dl, dl
  00078	0f 84 34 01 00
	00		 je	 $LN91@LoadString@4
  0007e	32 d1		 xor	 dl, cl
  00080	88 55 e9	 mov	 BYTE PTR __k$[ebp+5], dl
  00083	8a 50 06	 mov	 dl, BYTE PTR [eax+6]
  00086	84 d2		 test	 dl, dl
  00088	0f 84 1e 01 00
	00		 je	 $LN90@LoadString@4
  0008e	80 f2 eb	 xor	 dl, -21			; ffffffebH
  00091	88 55 ea	 mov	 BYTE PTR __k$[ebp+6], dl
  00094	8a 50 07	 mov	 dl, BYTE PTR [eax+7]
  00097	84 d2		 test	 dl, dl
  00099	0f 84 07 01 00
	00		 je	 $LN89@LoadString@4
  0009f	80 f2 ea	 xor	 dl, -22			; ffffffeaH
  000a2	88 55 eb	 mov	 BYTE PTR __k$[ebp+7], dl
  000a5	8a 50 08	 mov	 dl, BYTE PTR [eax+8]
  000a8	84 d2		 test	 dl, dl
  000aa	0f 84 f0 00 00
	00		 je	 $LN88@LoadString@4
  000b0	80 f2 ed	 xor	 dl, -19			; ffffffedH
  000b3	88 55 ec	 mov	 BYTE PTR __k$[ebp+8], dl
  000b6	8a 50 09	 mov	 dl, BYTE PTR [eax+9]
  000b9	84 d2		 test	 dl, dl
  000bb	0f 84 da 00 00
	00		 je	 $LN87@LoadString@4
  000c1	32 d1		 xor	 dl, cl
  000c3	88 55 ed	 mov	 BYTE PTR __k$[ebp+9], dl
  000c6	8a 50 0a	 mov	 dl, BYTE PTR [eax+10]
  000c9	84 d2		 test	 dl, dl
  000cb	0f 84 c4 00 00
	00		 je	 $LN86@LoadString@4
  000d1	80 f2 eb	 xor	 dl, -21			; ffffffebH
  000d4	88 55 ee	 mov	 BYTE PTR __k$[ebp+10], dl
  000d7	8a 50 0b	 mov	 dl, BYTE PTR [eax+11]
  000da	84 d2		 test	 dl, dl
  000dc	0f 84 ad 00 00
	00		 je	 $LN85@LoadString@4
  000e2	80 f2 ea	 xor	 dl, -22			; ffffffeaH
  000e5	88 55 ef	 mov	 BYTE PTR __k$[ebp+11], dl
  000e8	8a 50 0c	 mov	 dl, BYTE PTR [eax+12]
  000eb	84 d2		 test	 dl, dl
  000ed	0f 84 96 00 00
	00		 je	 $LN84@LoadString@4
  000f3	80 f2 ed	 xor	 dl, -19			; ffffffedH
  000f6	88 55 f0	 mov	 BYTE PTR __k$[ebp+12], dl
  000f9	8a 50 0d	 mov	 dl, BYTE PTR [eax+13]
  000fc	84 d2		 test	 dl, dl
  000fe	0f 84 80 00 00
	00		 je	 $LN83@LoadString@4
  00104	32 d1		 xor	 dl, cl
  00106	88 55 f1	 mov	 BYTE PTR __k$[ebp+13], dl
  00109	8a 50 0e	 mov	 dl, BYTE PTR [eax+14]
  0010c	84 d2		 test	 dl, dl
  0010e	74 6e		 je	 SHORT $LN82@LoadString@4
  00110	80 f2 eb	 xor	 dl, -21			; ffffffebH
  00113	88 55 f2	 mov	 BYTE PTR __k$[ebp+14], dl
  00116	8a 50 0f	 mov	 dl, BYTE PTR [eax+15]
  00119	84 d2		 test	 dl, dl
  0011b	74 5b		 je	 SHORT $LN81@LoadString@4
  0011d	80 f2 ea	 xor	 dl, -22			; ffffffeaH
  00120	80 78 10 00	 cmp	 BYTE PTR [eax+16], 0
  00124	88 55 f3	 mov	 BYTE PTR __k$[ebp+15], dl
  00127	0f 84 a6 00 00
	00		 je	 $LN111@LoadString@4
  0012d	8a 50 11	 mov	 dl, BYTE PTR [eax+17]
  00130	84 d2		 test	 dl, dl
  00132	74 3f		 je	 SHORT $LN79@LoadString@4
  00134	32 d1		 xor	 dl, cl
  00136	88 55 f5	 mov	 BYTE PTR __k$[ebp+17], dl
  00139	8a 50 12	 mov	 dl, BYTE PTR [eax+18]
  0013c	84 d2		 test	 dl, dl
  0013e	74 2d		 je	 SHORT $LN78@LoadString@4
  00140	80 f2 eb	 xor	 dl, -21			; ffffffebH
  00143	88 55 f6	 mov	 BYTE PTR __k$[ebp+18], dl
  00146	8a 50 13	 mov	 dl, BYTE PTR [eax+19]
  00149	84 d2		 test	 dl, dl
  0014b	74 1a		 je	 SHORT $LN77@LoadString@4
  0014d	8a 40 14	 mov	 al, BYTE PTR [eax+20]
  00150	80 f2 ea	 xor	 dl, -22			; ffffffeaH
  00153	88 55 f7	 mov	 BYTE PTR __k$[ebp+19], dl
  00156	84 c0		 test	 al, al
  00158	74 07		 je	 SHORT $LN76@LoadString@4
  0015a	34 ed		 xor	 al, -19			; ffffffedH
  0015c	88 45 f8	 mov	 BYTE PTR __k$[ebp+20], al
  0015f	eb 72		 jmp	 SHORT $LN111@LoadString@4
$LN76@LoadString@4:
  00161	c6 45 f8 ed	 mov	 BYTE PTR __k$[ebp+20], -19 ; ffffffedH
  00165	eb 6c		 jmp	 SHORT $LN111@LoadString@4
$LN77@LoadString@4:
  00167	c6 45 f7 ea	 mov	 BYTE PTR __k$[ebp+19], -22 ; ffffffeaH
  0016b	eb 66		 jmp	 SHORT $LN111@LoadString@4
$LN78@LoadString@4:
  0016d	c6 45 f6 eb	 mov	 BYTE PTR __k$[ebp+18], -21 ; ffffffebH
  00171	eb 60		 jmp	 SHORT $LN111@LoadString@4
$LN79@LoadString@4:
  00173	88 4d f5	 mov	 BYTE PTR __k$[ebp+17], cl
  00176	eb 5b		 jmp	 SHORT $LN111@LoadString@4
$LN81@LoadString@4:
  00178	c6 45 f3 ea	 mov	 BYTE PTR __k$[ebp+15], -22 ; ffffffeaH
  0017c	eb 55		 jmp	 SHORT $LN111@LoadString@4
$LN82@LoadString@4:
  0017e	c6 45 f2 eb	 mov	 BYTE PTR __k$[ebp+14], -21 ; ffffffebH
  00182	eb 4f		 jmp	 SHORT $LN111@LoadString@4
$LN83@LoadString@4:
  00184	88 4d f1	 mov	 BYTE PTR __k$[ebp+13], cl
  00187	eb 4a		 jmp	 SHORT $LN111@LoadString@4
$LN84@LoadString@4:
  00189	c6 45 f0 ed	 mov	 BYTE PTR __k$[ebp+12], -19 ; ffffffedH
  0018d	eb 44		 jmp	 SHORT $LN111@LoadString@4
$LN85@LoadString@4:
  0018f	c6 45 ef ea	 mov	 BYTE PTR __k$[ebp+11], -22 ; ffffffeaH
  00193	eb 3e		 jmp	 SHORT $LN111@LoadString@4
$LN86@LoadString@4:
  00195	c6 45 ee eb	 mov	 BYTE PTR __k$[ebp+10], -21 ; ffffffebH
  00199	eb 38		 jmp	 SHORT $LN111@LoadString@4
$LN87@LoadString@4:
  0019b	88 4d ed	 mov	 BYTE PTR __k$[ebp+9], cl
  0019e	eb 33		 jmp	 SHORT $LN111@LoadString@4
$LN88@LoadString@4:
  001a0	c6 45 ec ed	 mov	 BYTE PTR __k$[ebp+8], -19 ; ffffffedH
  001a4	eb 2d		 jmp	 SHORT $LN111@LoadString@4
$LN89@LoadString@4:
  001a6	c6 45 eb ea	 mov	 BYTE PTR __k$[ebp+7], -22 ; ffffffeaH
  001aa	eb 27		 jmp	 SHORT $LN111@LoadString@4
$LN90@LoadString@4:
  001ac	c6 45 ea eb	 mov	 BYTE PTR __k$[ebp+6], -21 ; ffffffebH
  001b0	eb 21		 jmp	 SHORT $LN111@LoadString@4
$LN91@LoadString@4:
  001b2	88 4d e9	 mov	 BYTE PTR __k$[ebp+5], cl
  001b5	eb 1c		 jmp	 SHORT $LN111@LoadString@4
$LN92@LoadString@4:
  001b7	c6 45 e8 ed	 mov	 BYTE PTR __k$[ebp+4], -19 ; ffffffedH
  001bb	eb 16		 jmp	 SHORT $LN111@LoadString@4
$LN93@LoadString@4:
  001bd	c6 45 e7 ea	 mov	 BYTE PTR __k$[ebp+3], -22 ; ffffffeaH
  001c1	eb 10		 jmp	 SHORT $LN111@LoadString@4
$LN94@LoadString@4:
  001c3	c6 45 e6 eb	 mov	 BYTE PTR __k$[ebp+2], -21 ; ffffffebH
  001c7	eb 0a		 jmp	 SHORT $LN111@LoadString@4
$LN95@LoadString@4:
  001c9	c6 45 e5 ec	 mov	 BYTE PTR __k$[ebp+1], -20 ; ffffffecH
  001cd	eb 04		 jmp	 SHORT $LN111@LoadString@4
$LN96@LoadString@4:
  001cf	c6 45 e4 ed	 mov	 BYTE PTR __k$[ebp], -19	; ffffffedH
$LN111@LoadString@4:
  001d3	6a 04		 push	 4
  001d5	8d 45 e4	 lea	 eax, DWORD PTR __k$[ebp]
  001d8	c6 45 f4 00	 mov	 BYTE PTR __k$[ebp+16], 0
  001dc	5a		 pop	 edx
$LL104@LoadString@4:
  001dd	81 30 ed ec eb
	ea		 xor	 DWORD PTR [eax], -353637139 ; eaebecedH
  001e3	83 c0 04	 add	 eax, 4
  001e6	4a		 dec	 edx
  001e7	75 f4		 jne	 SHORT $LL104@LoadString@4

; 163  : 		LoadString(_k, d, b, i);

  001e9	ff 75 14	 push	 DWORD PTR _i$[ebp]
  001ec	8b 4d e0	 mov	 ecx, DWORD PTR _this$GSCopy$[ebp]
  001ef	57		 push	 edi
  001f0	56		 push	 esi
  001f1	8d 45 e4	 lea	 eax, DWORD PTR __k$[ebp]
  001f4	50		 push	 eax
  001f5	ff 15 00 00 00
	00		 call	 DWORD PTR __imp_?LoadStringA@ioINILoader@@QAEXPBD0PADH@Z

; 164  : 	}

  001fb	8b 4d fc	 mov	 ecx, DWORD PTR __$ArrayPad$[ebp]
  001fe	5f		 pop	 edi
  001ff	33 cd		 xor	 ecx, ebp
  00201	5e		 pop	 esi
  00202	e8 00 00 00 00	 call	 @__security_check_cookie@4
  00207	c9		 leave
  00208	c2 10 00	 ret	 16			; 00000010H
??$LoadString_e@$0BB@@ioINILoader@@QAEXAAY0BB@$$CBDAAY00$$CBDPADH@Z ENDP ; ioINILoader::LoadString_e<17>
_TEXT	ENDS
PUBLIC	_this$GSCopy$
PUBLIC	__$ArrayPad$
PUBLIC	??$LoadString_e@$0BF@@ioINILoader@@QAEXAAY0BF@$$CBDAAY00$$CBDPADH@Z ; ioINILoader::LoadString_e<21>
; Function compile flags: /Ogsp
;	COMDAT ??$LoadString_e@$0BF@@ioINILoader@@QAEXAAY0BF@$$CBDAAY00$$CBDPADH@Z
_TEXT	SEGMENT
_this$GSCopy$ = -36					; size = 4
__k$ = -32						; size = 21
__$ArrayPad$ = -4					; size = 4
_k$ = 8							; size = 4
_d$ = 12						; size = 4
_b$ = 16						; size = 4
_i$ = 20						; size = 4
??$LoadString_e@$0BF@@ioINILoader@@QAEXAAY0BF@$$CBDAAY00$$CBDPADH@Z PROC ; ioINILoader::LoadString_e<21>, COMDAT
; _this$ = ecx

; 161  : 	{

  00000	55		 push	 ebp
  00001	8b ec		 mov	 ebp, esp
  00003	83 ec 24	 sub	 esp, 36			; 00000024H
  00006	a1 00 00 00 00	 mov	 eax, DWORD PTR ___security_cookie
  0000b	33 c5		 xor	 eax, ebp
  0000d	89 45 fc	 mov	 DWORD PTR __$ArrayPad$[ebp], eax
  00010	8b 45 08	 mov	 eax, DWORD PTR _k$[ebp]

; 162  : 		_ENCSTR(k, _k);

  00013	8a 10		 mov	 dl, BYTE PTR [eax]
  00015	53		 push	 ebx
  00016	56		 push	 esi
  00017	8b 75 0c	 mov	 esi, DWORD PTR _d$[ebp]
  0001a	57		 push	 edi
  0001b	8b 7d 10	 mov	 edi, DWORD PTR _b$[ebp]
  0001e	89 4d dc	 mov	 DWORD PTR _this$GSCopy$[ebp], ecx
  00021	84 d2		 test	 dl, dl
  00023	0f 84 f7 01 00
	00		 je	 $LN96@LoadString@5
  00029	80 f2 ed	 xor	 dl, -19			; ffffffedH
  0002c	88 55 e0	 mov	 BYTE PTR __k$[ebp], dl
  0002f	8a 50 01	 mov	 dl, BYTE PTR [eax+1]
  00032	84 d2		 test	 dl, dl
  00034	0f 84 e0 01 00
	00		 je	 $LN95@LoadString@5
  0003a	b1 ec		 mov	 cl, -20			; ffffffecH
  0003c	32 d1		 xor	 dl, cl
  0003e	88 55 e1	 mov	 BYTE PTR __k$[ebp+1], dl
  00041	8a 50 02	 mov	 dl, BYTE PTR [eax+2]
  00044	84 d2		 test	 dl, dl
  00046	0f 84 c8 01 00
	00		 je	 $LN94@LoadString@5
  0004c	b3 eb		 mov	 bl, -21			; ffffffebH
  0004e	32 d3		 xor	 dl, bl
  00050	88 55 e2	 mov	 BYTE PTR __k$[ebp+2], dl
  00053	8a 50 03	 mov	 dl, BYTE PTR [eax+3]
  00056	84 d2		 test	 dl, dl
  00058	0f 84 b0 01 00
	00		 je	 $LN93@LoadString@5
  0005e	80 f2 ea	 xor	 dl, -22			; ffffffeaH
  00061	88 55 e3	 mov	 BYTE PTR __k$[ebp+3], dl
  00064	8a 50 04	 mov	 dl, BYTE PTR [eax+4]
  00067	84 d2		 test	 dl, dl
  00069	0f 84 99 01 00
	00		 je	 $LN92@LoadString@5
  0006f	80 f2 ed	 xor	 dl, -19			; ffffffedH
  00072	88 55 e4	 mov	 BYTE PTR __k$[ebp+4], dl
  00075	8a 50 05	 mov	 dl, BYTE PTR [eax+5]
  00078	84 d2		 test	 dl, dl
  0007a	0f 84 83 01 00
	00		 je	 $LN91@LoadString@5
  00080	32 d1		 xor	 dl, cl
  00082	88 55 e5	 mov	 BYTE PTR __k$[ebp+5], dl
  00085	8a 50 06	 mov	 dl, BYTE PTR [eax+6]
  00088	84 d2		 test	 dl, dl
  0008a	0f 84 6e 01 00
	00		 je	 $LN90@LoadString@5
  00090	32 d3		 xor	 dl, bl
  00092	88 55 e6	 mov	 BYTE PTR __k$[ebp+6], dl
  00095	8a 50 07	 mov	 dl, BYTE PTR [eax+7]
  00098	84 d2		 test	 dl, dl
  0009a	0f 84 58 01 00
	00		 je	 $LN89@LoadString@5
  000a0	80 f2 ea	 xor	 dl, -22			; ffffffeaH
  000a3	88 55 e7	 mov	 BYTE PTR __k$[ebp+7], dl
  000a6	8a 50 08	 mov	 dl, BYTE PTR [eax+8]
  000a9	84 d2		 test	 dl, dl
  000ab	0f 84 41 01 00
	00		 je	 $LN88@LoadString@5
  000b1	80 f2 ed	 xor	 dl, -19			; ffffffedH
  000b4	88 55 e8	 mov	 BYTE PTR __k$[ebp+8], dl
  000b7	8a 50 09	 mov	 dl, BYTE PTR [eax+9]
  000ba	84 d2		 test	 dl, dl
  000bc	0f 84 2b 01 00
	00		 je	 $LN87@LoadString@5
  000c2	32 d1		 xor	 dl, cl
  000c4	88 55 e9	 mov	 BYTE PTR __k$[ebp+9], dl
  000c7	8a 50 0a	 mov	 dl, BYTE PTR [eax+10]
  000ca	84 d2		 test	 dl, dl
  000cc	0f 84 16 01 00
	00		 je	 $LN86@LoadString@5
  000d2	32 d3		 xor	 dl, bl
  000d4	88 55 ea	 mov	 BYTE PTR __k$[ebp+10], dl
  000d7	8a 50 0b	 mov	 dl, BYTE PTR [eax+11]
  000da	84 d2		 test	 dl, dl
  000dc	0f 84 00 01 00
	00		 je	 $LN85@LoadString@5
  000e2	80 f2 ea	 xor	 dl, -22			; ffffffeaH
  000e5	88 55 eb	 mov	 BYTE PTR __k$[ebp+11], dl
  000e8	8a 50 0c	 mov	 dl, BYTE PTR [eax+12]
  000eb	84 d2		 test	 dl, dl
  000ed	0f 84 e9 00 00
	00		 je	 $LN84@LoadString@5
  000f3	80 f2 ed	 xor	 dl, -19			; ffffffedH
  000f6	88 55 ec	 mov	 BYTE PTR __k$[ebp+12], dl
  000f9	8a 50 0d	 mov	 dl, BYTE PTR [eax+13]
  000fc	84 d2		 test	 dl, dl
  000fe	0f 84 d3 00 00
	00		 je	 $LN83@LoadString@5
  00104	32 d1		 xor	 dl, cl
  00106	88 55 ed	 mov	 BYTE PTR __k$[ebp+13], dl
  00109	8a 50 0e	 mov	 dl, BYTE PTR [eax+14]
  0010c	84 d2		 test	 dl, dl
  0010e	0f 84 be 00 00
	00		 je	 $LN82@LoadString@5
  00114	32 d3		 xor	 dl, bl
  00116	88 55 ee	 mov	 BYTE PTR __k$[ebp+14], dl
  00119	8a 50 0f	 mov	 dl, BYTE PTR [eax+15]
  0011c	84 d2		 test	 dl, dl
  0011e	0f 84 a8 00 00
	00		 je	 $LN81@LoadString@5
  00124	80 f2 ea	 xor	 dl, -22			; ffffffeaH
  00127	88 55 ef	 mov	 BYTE PTR __k$[ebp+15], dl
  0012a	8a 50 10	 mov	 dl, BYTE PTR [eax+16]
  0012d	84 d2		 test	 dl, dl
  0012f	0f 84 91 00 00
	00		 je	 $LN80@LoadString@5
  00135	80 f2 ed	 xor	 dl, -19			; ffffffedH
  00138	88 55 f0	 mov	 BYTE PTR __k$[ebp+16], dl
  0013b	8a 50 11	 mov	 dl, BYTE PTR [eax+17]
  0013e	84 d2		 test	 dl, dl
  00140	74 7f		 je	 SHORT $LN79@LoadString@5
  00142	32 d1		 xor	 dl, cl
  00144	88 55 f1	 mov	 BYTE PTR __k$[ebp+17], dl
  00147	8a 50 12	 mov	 dl, BYTE PTR [eax+18]
  0014a	84 d2		 test	 dl, dl
  0014c	74 6e		 je	 SHORT $LN78@LoadString@5
  0014e	32 d3		 xor	 dl, bl
  00150	88 55 f2	 mov	 BYTE PTR __k$[ebp+18], dl
  00153	8a 50 13	 mov	 dl, BYTE PTR [eax+19]
  00156	84 d2		 test	 dl, dl
  00158	74 5c		 je	 SHORT $LN77@LoadString@5
  0015a	80 f2 ea	 xor	 dl, -22			; ffffffeaH
  0015d	80 78 14 00	 cmp	 BYTE PTR [eax+20], 0
  00161	88 55 f3	 mov	 BYTE PTR __k$[ebp+19], dl
  00164	0f 84 ba 00 00
	00		 je	 $LN111@LoadString@5
  0016a	8a 50 15	 mov	 dl, BYTE PTR [eax+21]
  0016d	84 d2		 test	 dl, dl
  0016f	74 40		 je	 SHORT $LN75@LoadString@5
  00171	32 d1		 xor	 dl, cl
  00173	88 55 f5	 mov	 BYTE PTR __k$[ebp+21], dl
  00176	8a 50 16	 mov	 dl, BYTE PTR [eax+22]
  00179	84 d2		 test	 dl, dl
  0017b	74 2f		 je	 SHORT $LN74@LoadString@5
  0017d	32 d3		 xor	 dl, bl
  0017f	88 55 f6	 mov	 BYTE PTR __k$[ebp+22], dl
  00182	8a 50 17	 mov	 dl, BYTE PTR [eax+23]
  00185	84 d2		 test	 dl, dl
  00187	74 1d		 je	 SHORT $LN73@LoadString@5
  00189	8a 40 18	 mov	 al, BYTE PTR [eax+24]
  0018c	80 f2 ea	 xor	 dl, -22			; ffffffeaH
  0018f	88 55 f7	 mov	 BYTE PTR __k$[ebp+23], dl
  00192	84 c0		 test	 al, al
  00194	74 0a		 je	 SHORT $LN72@LoadString@5
  00196	34 ed		 xor	 al, -19			; ffffffedH
  00198	88 45 f8	 mov	 BYTE PTR __k$[ebp+24], al
  0019b	e9 84 00 00 00	 jmp	 $LN111@LoadString@5
$LN72@LoadString@5:
  001a0	c6 45 f8 ed	 mov	 BYTE PTR __k$[ebp+24], -19 ; ffffffedH
  001a4	eb 7e		 jmp	 SHORT $LN111@LoadString@5
$LN73@LoadString@5:
  001a6	c6 45 f7 ea	 mov	 BYTE PTR __k$[ebp+23], -22 ; ffffffeaH
  001aa	eb 78		 jmp	 SHORT $LN111@LoadString@5
$LN74@LoadString@5:
  001ac	88 5d f6	 mov	 BYTE PTR __k$[ebp+22], bl
  001af	eb 73		 jmp	 SHORT $LN111@LoadString@5
$LN75@LoadString@5:
  001b1	88 4d f5	 mov	 BYTE PTR __k$[ebp+21], cl
  001b4	eb 6e		 jmp	 SHORT $LN111@LoadString@5
$LN77@LoadString@5:
  001b6	c6 45 f3 ea	 mov	 BYTE PTR __k$[ebp+19], -22 ; ffffffeaH
  001ba	eb 68		 jmp	 SHORT $LN111@LoadString@5
$LN78@LoadString@5:
  001bc	88 5d f2	 mov	 BYTE PTR __k$[ebp+18], bl
  001bf	eb 63		 jmp	 SHORT $LN111@LoadString@5
$LN79@LoadString@5:
  001c1	88 4d f1	 mov	 BYTE PTR __k$[ebp+17], cl
  001c4	eb 5e		 jmp	 SHORT $LN111@LoadString@5
$LN80@LoadString@5:
  001c6	c6 45 f0 ed	 mov	 BYTE PTR __k$[ebp+16], -19 ; ffffffedH
  001ca	eb 58		 jmp	 SHORT $LN111@LoadString@5
$LN81@LoadString@5:
  001cc	c6 45 ef ea	 mov	 BYTE PTR __k$[ebp+15], -22 ; ffffffeaH
  001d0	eb 52		 jmp	 SHORT $LN111@LoadString@5
$LN82@LoadString@5:
  001d2	88 5d ee	 mov	 BYTE PTR __k$[ebp+14], bl
  001d5	eb 4d		 jmp	 SHORT $LN111@LoadString@5
$LN83@LoadString@5:
  001d7	88 4d ed	 mov	 BYTE PTR __k$[ebp+13], cl
  001da	eb 48		 jmp	 SHORT $LN111@LoadString@5
$LN84@LoadString@5:
  001dc	c6 45 ec ed	 mov	 BYTE PTR __k$[ebp+12], -19 ; ffffffedH
  001e0	eb 42		 jmp	 SHORT $LN111@LoadString@5
$LN85@LoadString@5:
  001e2	c6 45 eb ea	 mov	 BYTE PTR __k$[ebp+11], -22 ; ffffffeaH
  001e6	eb 3c		 jmp	 SHORT $LN111@LoadString@5
$LN86@LoadString@5:
  001e8	88 5d ea	 mov	 BYTE PTR __k$[ebp+10], bl
  001eb	eb 37		 jmp	 SHORT $LN111@LoadString@5
$LN87@LoadString@5:
  001ed	88 4d e9	 mov	 BYTE PTR __k$[ebp+9], cl
  001f0	eb 32		 jmp	 SHORT $LN111@LoadString@5
$LN88@LoadString@5:
  001f2	c6 45 e8 ed	 mov	 BYTE PTR __k$[ebp+8], -19 ; ffffffedH
  001f6	eb 2c		 jmp	 SHORT $LN111@LoadString@5
$LN89@LoadString@5:
  001f8	c6 45 e7 ea	 mov	 BYTE PTR __k$[ebp+7], -22 ; ffffffeaH
  001fc	eb 26		 jmp	 SHORT $LN111@LoadString@5
$LN90@LoadString@5:
  001fe	88 5d e6	 mov	 BYTE PTR __k$[ebp+6], bl
  00201	eb 21		 jmp	 SHORT $LN111@LoadString@5
$LN91@LoadString@5:
  00203	88 4d e5	 mov	 BYTE PTR __k$[ebp+5], cl
  00206	eb 1c		 jmp	 SHORT $LN111@LoadString@5
$LN92@LoadString@5:
  00208	c6 45 e4 ed	 mov	 BYTE PTR __k$[ebp+4], -19 ; ffffffedH
  0020c	eb 16		 jmp	 SHORT $LN111@LoadString@5
$LN93@LoadString@5:
  0020e	c6 45 e3 ea	 mov	 BYTE PTR __k$[ebp+3], -22 ; ffffffeaH
  00212	eb 10		 jmp	 SHORT $LN111@LoadString@5
$LN94@LoadString@5:
  00214	c6 45 e2 eb	 mov	 BYTE PTR __k$[ebp+2], -21 ; ffffffebH
  00218	eb 0a		 jmp	 SHORT $LN111@LoadString@5
$LN95@LoadString@5:
  0021a	c6 45 e1 ec	 mov	 BYTE PTR __k$[ebp+1], -20 ; ffffffecH
  0021e	eb 04		 jmp	 SHORT $LN111@LoadString@5
$LN96@LoadString@5:
  00220	c6 45 e0 ed	 mov	 BYTE PTR __k$[ebp], -19	; ffffffedH
$LN111@LoadString@5:
  00224	6a 05		 push	 5
  00226	8d 45 e0	 lea	 eax, DWORD PTR __k$[ebp]
  00229	c6 45 f4 00	 mov	 BYTE PTR __k$[ebp+20], 0
  0022d	5a		 pop	 edx
$LL104@LoadString@5:
  0022e	81 30 ed ec eb
	ea		 xor	 DWORD PTR [eax], -353637139 ; eaebecedH
  00234	83 c0 04	 add	 eax, 4
  00237	4a		 dec	 edx
  00238	75 f4		 jne	 SHORT $LL104@LoadString@5

; 163  : 		LoadString(_k, d, b, i);

  0023a	ff 75 14	 push	 DWORD PTR _i$[ebp]
  0023d	8b 4d dc	 mov	 ecx, DWORD PTR _this$GSCopy$[ebp]
  00240	57		 push	 edi
  00241	56		 push	 esi
  00242	8d 45 e0	 lea	 eax, DWORD PTR __k$[ebp]
  00245	50		 push	 eax
  00246	ff 15 00 00 00
	00		 call	 DWORD PTR __imp_?LoadStringA@ioINILoader@@QAEXPBD0PADH@Z

; 164  : 	}

  0024c	8b 4d fc	 mov	 ecx, DWORD PTR __$ArrayPad$[ebp]
  0024f	5f		 pop	 edi
  00250	5e		 pop	 esi
  00251	33 cd		 xor	 ecx, ebp
  00253	5b		 pop	 ebx
  00254	e8 00 00 00 00	 call	 @__security_check_cookie@4
  00259	c9		 leave
  0025a	c2 10 00	 ret	 16			; 00000010H
??$LoadString_e@$0BF@@ioINILoader@@QAEXAAY0BF@$$CBDAAY00$$CBDPADH@Z ENDP ; ioINILoader::LoadString_e<21>
_TEXT	ENDS
PUBLIC	_this$GSCopy$
PUBLIC	__$ArrayPad$
PUBLIC	??$LoadString_e@$0BH@@ioINILoader@@QAEXAAY0BH@$$CBDAAY00$$CBDPADH@Z ; ioINILoader::LoadString_e<23>
; Function compile flags: /Ogsp
;	COMDAT ??$LoadString_e@$0BH@@ioINILoader@@QAEXAAY0BH@$$CBDAAY00$$CBDPADH@Z
_TEXT	SEGMENT
_this$GSCopy$ = -36					; size = 4
__k$ = -32						; size = 23
__$ArrayPad$ = -4					; size = 4
_k$ = 8							; size = 4
_d$ = 12						; size = 4
_b$ = 16						; size = 4
_i$ = 20						; size = 4
??$LoadString_e@$0BH@@ioINILoader@@QAEXAAY0BH@$$CBDAAY00$$CBDPADH@Z PROC ; ioINILoader::LoadString_e<23>, COMDAT
; _this$ = ecx

; 161  : 	{

  00000	55		 push	 ebp
  00001	8b ec		 mov	 ebp, esp
  00003	83 ec 24	 sub	 esp, 36			; 00000024H
  00006	a1 00 00 00 00	 mov	 eax, DWORD PTR ___security_cookie
  0000b	33 c5		 xor	 eax, ebp
  0000d	89 45 fc	 mov	 DWORD PTR __$ArrayPad$[ebp], eax
  00010	8b 45 08	 mov	 eax, DWORD PTR _k$[ebp]

; 162  : 		_ENCSTR(k, _k);

  00013	8a 10		 mov	 dl, BYTE PTR [eax]
  00015	53		 push	 ebx
  00016	56		 push	 esi
  00017	8b 75 0c	 mov	 esi, DWORD PTR _d$[ebp]
  0001a	57		 push	 edi
  0001b	8b 7d 10	 mov	 edi, DWORD PTR _b$[ebp]
  0001e	89 4d dc	 mov	 DWORD PTR _this$GSCopy$[ebp], ecx
  00021	84 d2		 test	 dl, dl
  00023	0f 84 2d 02 00
	00		 je	 $LN96@LoadString@6
  00029	80 f2 ed	 xor	 dl, -19			; ffffffedH
  0002c	88 55 e0	 mov	 BYTE PTR __k$[ebp], dl
  0002f	8a 50 01	 mov	 dl, BYTE PTR [eax+1]
  00032	84 d2		 test	 dl, dl
  00034	0f 84 16 02 00
	00		 je	 $LN95@LoadString@6
  0003a	b1 ec		 mov	 cl, -20			; ffffffecH
  0003c	32 d1		 xor	 dl, cl
  0003e	88 55 e1	 mov	 BYTE PTR __k$[ebp+1], dl
  00041	8a 50 02	 mov	 dl, BYTE PTR [eax+2]
  00044	84 d2		 test	 dl, dl
  00046	0f 84 fe 01 00
	00		 je	 $LN94@LoadString@6
  0004c	80 f2 eb	 xor	 dl, -21			; ffffffebH
  0004f	88 55 e2	 mov	 BYTE PTR __k$[ebp+2], dl
  00052	8a 50 03	 mov	 dl, BYTE PTR [eax+3]
  00055	84 d2		 test	 dl, dl
  00057	0f 84 e7 01 00
	00		 je	 $LN93@LoadString@6
  0005d	b3 ea		 mov	 bl, -22			; ffffffeaH
  0005f	32 d3		 xor	 dl, bl
  00061	88 55 e3	 mov	 BYTE PTR __k$[ebp+3], dl
  00064	8a 50 04	 mov	 dl, BYTE PTR [eax+4]
  00067	84 d2		 test	 dl, dl
  00069	0f 84 cf 01 00
	00		 je	 $LN92@LoadString@6
  0006f	80 f2 ed	 xor	 dl, -19			; ffffffedH
  00072	88 55 e4	 mov	 BYTE PTR __k$[ebp+4], dl
  00075	8a 50 05	 mov	 dl, BYTE PTR [eax+5]
  00078	84 d2		 test	 dl, dl
  0007a	0f 84 b9 01 00
	00		 je	 $LN91@LoadString@6
  00080	32 d1		 xor	 dl, cl
  00082	88 55 e5	 mov	 BYTE PTR __k$[ebp+5], dl
  00085	8a 50 06	 mov	 dl, BYTE PTR [eax+6]
  00088	84 d2		 test	 dl, dl
  0008a	0f 84 a3 01 00
	00		 je	 $LN90@LoadString@6
  00090	80 f2 eb	 xor	 dl, -21			; ffffffebH
  00093	88 55 e6	 mov	 BYTE PTR __k$[ebp+6], dl
  00096	8a 50 07	 mov	 dl, BYTE PTR [eax+7]
  00099	84 d2		 test	 dl, dl
  0009b	0f 84 8d 01 00
	00		 je	 $LN89@LoadString@6
  000a1	32 d3		 xor	 dl, bl
  000a3	88 55 e7	 mov	 BYTE PTR __k$[ebp+7], dl
  000a6	8a 50 08	 mov	 dl, BYTE PTR [eax+8]
  000a9	84 d2		 test	 dl, dl
  000ab	0f 84 77 01 00
	00		 je	 $LN88@LoadString@6
  000b1	80 f2 ed	 xor	 dl, -19			; ffffffedH
  000b4	88 55 e8	 mov	 BYTE PTR __k$[ebp+8], dl
  000b7	8a 50 09	 mov	 dl, BYTE PTR [eax+9]
  000ba	84 d2		 test	 dl, dl
  000bc	0f 84 61 01 00
	00		 je	 $LN87@LoadString@6
  000c2	32 d1		 xor	 dl, cl
  000c4	88 55 e9	 mov	 BYTE PTR __k$[ebp+9], dl
  000c7	8a 50 0a	 mov	 dl, BYTE PTR [eax+10]
  000ca	84 d2		 test	 dl, dl
  000cc	0f 84 4b 01 00
	00		 je	 $LN86@LoadString@6
  000d2	80 f2 eb	 xor	 dl, -21			; ffffffebH
  000d5	88 55 ea	 mov	 BYTE PTR __k$[ebp+10], dl
  000d8	8a 50 0b	 mov	 dl, BYTE PTR [eax+11]
  000db	84 d2		 test	 dl, dl
  000dd	0f 84 35 01 00
	00		 je	 $LN85@LoadString@6
  000e3	32 d3		 xor	 dl, bl
  000e5	88 55 eb	 mov	 BYTE PTR __k$[ebp+11], dl
  000e8	8a 50 0c	 mov	 dl, BYTE PTR [eax+12]
  000eb	84 d2		 test	 dl, dl
  000ed	0f 84 1f 01 00
	00		 je	 $LN84@LoadString@6
  000f3	80 f2 ed	 xor	 dl, -19			; ffffffedH
  000f6	88 55 ec	 mov	 BYTE PTR __k$[ebp+12], dl
  000f9	8a 50 0d	 mov	 dl, BYTE PTR [eax+13]
  000fc	84 d2		 test	 dl, dl
  000fe	0f 84 09 01 00
	00		 je	 $LN83@LoadString@6
  00104	32 d1		 xor	 dl, cl
  00106	88 55 ed	 mov	 BYTE PTR __k$[ebp+13], dl
  00109	8a 50 0e	 mov	 dl, BYTE PTR [eax+14]
  0010c	84 d2		 test	 dl, dl
  0010e	0f 84 f3 00 00
	00		 je	 $LN82@LoadString@6
  00114	80 f2 eb	 xor	 dl, -21			; ffffffebH
  00117	88 55 ee	 mov	 BYTE PTR __k$[ebp+14], dl
  0011a	8a 50 0f	 mov	 dl, BYTE PTR [eax+15]
  0011d	84 d2		 test	 dl, dl
  0011f	0f 84 dd 00 00
	00		 je	 $LN81@LoadString@6
  00125	32 d3		 xor	 dl, bl
  00127	88 55 ef	 mov	 BYTE PTR __k$[ebp+15], dl
  0012a	8a 50 10	 mov	 dl, BYTE PTR [eax+16]
  0012d	84 d2		 test	 dl, dl
  0012f	0f 84 c7 00 00
	00		 je	 $LN80@LoadString@6
  00135	80 f2 ed	 xor	 dl, -19			; ffffffedH
  00138	88 55 f0	 mov	 BYTE PTR __k$[ebp+16], dl
  0013b	8a 50 11	 mov	 dl, BYTE PTR [eax+17]
  0013e	84 d2		 test	 dl, dl
  00140	0f 84 b1 00 00
	00		 je	 $LN79@LoadString@6
  00146	32 d1		 xor	 dl, cl
  00148	88 55 f1	 mov	 BYTE PTR __k$[ebp+17], dl
  0014b	8a 50 12	 mov	 dl, BYTE PTR [eax+18]
  0014e	84 d2		 test	 dl, dl
  00150	0f 84 9b 00 00
	00		 je	 $LN78@LoadString@6
  00156	80 f2 eb	 xor	 dl, -21			; ffffffebH
  00159	88 55 f2	 mov	 BYTE PTR __k$[ebp+18], dl
  0015c	8a 50 13	 mov	 dl, BYTE PTR [eax+19]
  0015f	84 d2		 test	 dl, dl
  00161	0f 84 85 00 00
	00		 je	 $LN77@LoadString@6
  00167	32 d3		 xor	 dl, bl
  00169	88 55 f3	 mov	 BYTE PTR __k$[ebp+19], dl
  0016c	8a 50 14	 mov	 dl, BYTE PTR [eax+20]
  0016f	84 d2		 test	 dl, dl
  00171	74 73		 je	 SHORT $LN76@LoadString@6
  00173	80 f2 ed	 xor	 dl, -19			; ffffffedH
  00176	88 55 f4	 mov	 BYTE PTR __k$[ebp+20], dl
  00179	8a 50 15	 mov	 dl, BYTE PTR [eax+21]
  0017c	84 d2		 test	 dl, dl
  0017e	74 61		 je	 SHORT $LN75@LoadString@6
  00180	32 d1		 xor	 dl, cl
  00182	80 78 16 00	 cmp	 BYTE PTR [eax+22], 0
  00186	88 55 f5	 mov	 BYTE PTR __k$[ebp+21], dl
  00189	0f 84 cb 00 00
	00		 je	 $LN111@LoadString@6
  0018f	8a 50 17	 mov	 dl, BYTE PTR [eax+23]
  00192	84 d2		 test	 dl, dl
  00194	74 46		 je	 SHORT $LN73@LoadString@6
  00196	32 d3		 xor	 dl, bl
  00198	88 55 f7	 mov	 BYTE PTR __k$[ebp+23], dl
  0019b	8a 50 18	 mov	 dl, BYTE PTR [eax+24]
  0019e	84 d2		 test	 dl, dl
  001a0	74 34		 je	 SHORT $LN72@LoadString@6
  001a2	80 f2 ed	 xor	 dl, -19			; ffffffedH
  001a5	88 55 f8	 mov	 BYTE PTR __k$[ebp+24], dl
  001a8	8a 50 19	 mov	 dl, BYTE PTR [eax+25]
  001ab	84 d2		 test	 dl, dl
  001ad	74 1f		 je	 SHORT $LN71@LoadString@6
  001af	8a 40 1a	 mov	 al, BYTE PTR [eax+26]
  001b2	32 d1		 xor	 dl, cl
  001b4	88 55 f9	 mov	 BYTE PTR __k$[ebp+25], dl
  001b7	84 c0		 test	 al, al
  001b9	74 0a		 je	 SHORT $LN70@LoadString@6
  001bb	34 eb		 xor	 al, -21			; ffffffebH
  001bd	88 45 fa	 mov	 BYTE PTR __k$[ebp+26], al
  001c0	e9 95 00 00 00	 jmp	 $LN111@LoadString@6
$LN70@LoadString@6:
  001c5	c6 45 fa eb	 mov	 BYTE PTR __k$[ebp+26], -21 ; ffffffebH
  001c9	e9 8c 00 00 00	 jmp	 $LN111@LoadString@6
$LN71@LoadString@6:
  001ce	88 4d f9	 mov	 BYTE PTR __k$[ebp+25], cl
  001d1	e9 84 00 00 00	 jmp	 $LN111@LoadString@6
$LN72@LoadString@6:
  001d6	c6 45 f8 ed	 mov	 BYTE PTR __k$[ebp+24], -19 ; ffffffedH
  001da	eb 7e		 jmp	 SHORT $LN111@LoadString@6
$LN73@LoadString@6:
  001dc	88 5d f7	 mov	 BYTE PTR __k$[ebp+23], bl
  001df	eb 79		 jmp	 SHORT $LN111@LoadString@6
$LN75@LoadString@6:
  001e1	88 4d f5	 mov	 BYTE PTR __k$[ebp+21], cl
  001e4	eb 74		 jmp	 SHORT $LN111@LoadString@6
$LN76@LoadString@6:
  001e6	c6 45 f4 ed	 mov	 BYTE PTR __k$[ebp+20], -19 ; ffffffedH
  001ea	eb 6e		 jmp	 SHORT $LN111@LoadString@6
$LN77@LoadString@6:
  001ec	88 5d f3	 mov	 BYTE PTR __k$[ebp+19], bl
  001ef	eb 69		 jmp	 SHORT $LN111@LoadString@6
$LN78@LoadString@6:
  001f1	c6 45 f2 eb	 mov	 BYTE PTR __k$[ebp+18], -21 ; ffffffebH
  001f5	eb 63		 jmp	 SHORT $LN111@LoadString@6
$LN79@LoadString@6:
  001f7	88 4d f1	 mov	 BYTE PTR __k$[ebp+17], cl
  001fa	eb 5e		 jmp	 SHORT $LN111@LoadString@6
$LN80@LoadString@6:
  001fc	c6 45 f0 ed	 mov	 BYTE PTR __k$[ebp+16], -19 ; ffffffedH
  00200	eb 58		 jmp	 SHORT $LN111@LoadString@6
$LN81@LoadString@6:
  00202	88 5d ef	 mov	 BYTE PTR __k$[ebp+15], bl
  00205	eb 53		 jmp	 SHORT $LN111@LoadString@6
$LN82@LoadString@6:
  00207	c6 45 ee eb	 mov	 BYTE PTR __k$[ebp+14], -21 ; ffffffebH
  0020b	eb 4d		 jmp	 SHORT $LN111@LoadString@6
$LN83@LoadString@6:
  0020d	88 4d ed	 mov	 BYTE PTR __k$[ebp+13], cl
  00210	eb 48		 jmp	 SHORT $LN111@LoadString@6
$LN84@LoadString@6:
  00212	c6 45 ec ed	 mov	 BYTE PTR __k$[ebp+12], -19 ; ffffffedH
  00216	eb 42		 jmp	 SHORT $LN111@LoadString@6
$LN85@LoadString@6:
  00218	88 5d eb	 mov	 BYTE PTR __k$[ebp+11], bl
  0021b	eb 3d		 jmp	 SHORT $LN111@LoadString@6
$LN86@LoadString@6:
  0021d	c6 45 ea eb	 mov	 BYTE PTR __k$[ebp+10], -21 ; ffffffebH
  00221	eb 37		 jmp	 SHORT $LN111@LoadString@6
$LN87@LoadString@6:
  00223	88 4d e9	 mov	 BYTE PTR __k$[ebp+9], cl
  00226	eb 32		 jmp	 SHORT $LN111@LoadString@6
$LN88@LoadString@6:
  00228	c6 45 e8 ed	 mov	 BYTE PTR __k$[ebp+8], -19 ; ffffffedH
  0022c	eb 2c		 jmp	 SHORT $LN111@LoadString@6
$LN89@LoadString@6:
  0022e	88 5d e7	 mov	 BYTE PTR __k$[ebp+7], bl
  00231	eb 27		 jmp	 SHORT $LN111@LoadString@6
$LN90@LoadString@6:
  00233	c6 45 e6 eb	 mov	 BYTE PTR __k$[ebp+6], -21 ; ffffffebH
  00237	eb 21		 jmp	 SHORT $LN111@LoadString@6
$LN91@LoadString@6:
  00239	88 4d e5	 mov	 BYTE PTR __k$[ebp+5], cl
  0023c	eb 1c		 jmp	 SHORT $LN111@LoadString@6
$LN92@LoadString@6:
  0023e	c6 45 e4 ed	 mov	 BYTE PTR __k$[ebp+4], -19 ; ffffffedH
  00242	eb 16		 jmp	 SHORT $LN111@LoadString@6
$LN93@LoadString@6:
  00244	c6 45 e3 ea	 mov	 BYTE PTR __k$[ebp+3], -22 ; ffffffeaH
  00248	eb 10		 jmp	 SHORT $LN111@LoadString@6
$LN94@LoadString@6:
  0024a	c6 45 e2 eb	 mov	 BYTE PTR __k$[ebp+2], -21 ; ffffffebH
  0024e	eb 0a		 jmp	 SHORT $LN111@LoadString@6
$LN95@LoadString@6:
  00250	c6 45 e1 ec	 mov	 BYTE PTR __k$[ebp+1], -20 ; ffffffecH
  00254	eb 04		 jmp	 SHORT $LN111@LoadString@6
$LN96@LoadString@6:
  00256	c6 45 e0 ed	 mov	 BYTE PTR __k$[ebp], -19	; ffffffedH
$LN111@LoadString@6:
  0025a	6a 05		 push	 5
  0025c	8d 45 e0	 lea	 eax, DWORD PTR __k$[ebp]
  0025f	c6 45 f6 00	 mov	 BYTE PTR __k$[ebp+22], 0
  00263	5a		 pop	 edx
$LL104@LoadString@6:
  00264	81 30 ed ec eb
	ea		 xor	 DWORD PTR [eax], -353637139 ; eaebecedH
  0026a	83 c0 04	 add	 eax, 4
  0026d	4a		 dec	 edx
  0026e	75 f4		 jne	 SHORT $LL104@LoadString@6
  00270	6a 14		 push	 20			; 00000014H
  00272	58		 pop	 eax
$LL101@LoadString@6:
  00273	8b c8		 mov	 ecx, eax
  00275	81 e1 03 00 00
	80		 and	 ecx, -2147483645	; 80000003H
  0027b	79 05		 jns	 SHORT $LN112@LoadString@6
  0027d	49		 dec	 ecx
  0027e	83 c9 fc	 or	 ecx, -4			; fffffffcH
  00281	41		 inc	 ecx
$LN112@LoadString@6:
  00282	b2 ed		 mov	 dl, -19			; ffffffedH
  00284	2a d1		 sub	 dl, cl
  00286	30 54 05 e0	 xor	 BYTE PTR __k$[ebp+eax], dl
  0028a	40		 inc	 eax
  0028b	83 f8 16	 cmp	 eax, 22			; 00000016H
  0028e	7c e3		 jl	 SHORT $LL101@LoadString@6

; 163  : 		LoadString(_k, d, b, i);

  00290	ff 75 14	 push	 DWORD PTR _i$[ebp]
  00293	8b 4d dc	 mov	 ecx, DWORD PTR _this$GSCopy$[ebp]
  00296	57		 push	 edi
  00297	56		 push	 esi
  00298	8d 45 e0	 lea	 eax, DWORD PTR __k$[ebp]
  0029b	50		 push	 eax
  0029c	ff 15 00 00 00
	00		 call	 DWORD PTR __imp_?LoadStringA@ioINILoader@@QAEXPBD0PADH@Z

; 164  : 	}

  002a2	8b 4d fc	 mov	 ecx, DWORD PTR __$ArrayPad$[ebp]
  002a5	5f		 pop	 edi
  002a6	5e		 pop	 esi
  002a7	33 cd		 xor	 ecx, ebp
  002a9	5b		 pop	 ebx
  002aa	e8 00 00 00 00	 call	 @__security_check_cookie@4
  002af	c9		 leave
  002b0	c2 10 00	 ret	 16			; 00000010H
??$LoadString_e@$0BH@@ioINILoader@@QAEXAAY0BH@$$CBDAAY00$$CBDPADH@Z ENDP ; ioINILoader::LoadString_e<23>
_TEXT	ENDS
PUBLIC	_this$GSCopy$
PUBLIC	__$ArrayPad$
PUBLIC	??$LoadString_e@$0BI@@ioINILoader@@QAEXAAY0BI@$$CBDAAY00$$CBDPADH@Z ; ioINILoader::LoadString_e<24>
; Function compile flags: /Ogsp
;	COMDAT ??$LoadString_e@$0BI@@ioINILoader@@QAEXAAY0BI@$$CBDAAY00$$CBDPADH@Z
_TEXT	SEGMENT
_this$GSCopy$ = -36					; size = 4
__k$ = -32						; size = 24
__$ArrayPad$ = -4					; size = 4
_k$ = 8							; size = 4
_d$ = 12						; size = 4
_b$ = 16						; size = 4
_i$ = 20						; size = 4
??$LoadString_e@$0BI@@ioINILoader@@QAEXAAY0BI@$$CBDAAY00$$CBDPADH@Z PROC ; ioINILoader::LoadString_e<24>, COMDAT
; _this$ = ecx

; 161  : 	{

  00000	55		 push	 ebp
  00001	8b ec		 mov	 ebp, esp
  00003	83 ec 24	 sub	 esp, 36			; 00000024H
  00006	a1 00 00 00 00	 mov	 eax, DWORD PTR ___security_cookie
  0000b	33 c5		 xor	 eax, ebp
  0000d	89 45 fc	 mov	 DWORD PTR __$ArrayPad$[ebp], eax
  00010	8b 45 08	 mov	 eax, DWORD PTR _k$[ebp]

; 162  : 		_ENCSTR(k, _k);

  00013	8a 10		 mov	 dl, BYTE PTR [eax]
  00015	53		 push	 ebx
  00016	56		 push	 esi
  00017	8b 75 0c	 mov	 esi, DWORD PTR _d$[ebp]
  0001a	57		 push	 edi
  0001b	8b 7d 10	 mov	 edi, DWORD PTR _b$[ebp]
  0001e	89 4d dc	 mov	 DWORD PTR _this$GSCopy$[ebp], ecx
  00021	84 d2		 test	 dl, dl
  00023	0f 84 45 02 00
	00		 je	 $LN96@LoadString@7
  00029	80 f2 ed	 xor	 dl, -19			; ffffffedH
  0002c	88 55 e0	 mov	 BYTE PTR __k$[ebp], dl
  0002f	8a 50 01	 mov	 dl, BYTE PTR [eax+1]
  00032	84 d2		 test	 dl, dl
  00034	0f 84 2e 02 00
	00		 je	 $LN95@LoadString@7
  0003a	b3 ec		 mov	 bl, -20			; ffffffecH
  0003c	32 d3		 xor	 dl, bl
  0003e	88 55 e1	 mov	 BYTE PTR __k$[ebp+1], dl
  00041	8a 50 02	 mov	 dl, BYTE PTR [eax+2]
  00044	84 d2		 test	 dl, dl
  00046	0f 84 16 02 00
	00		 je	 $LN94@LoadString@7
  0004c	b1 eb		 mov	 cl, -21			; ffffffebH
  0004e	32 d1		 xor	 dl, cl
  00050	88 55 e2	 mov	 BYTE PTR __k$[ebp+2], dl
  00053	8a 50 03	 mov	 dl, BYTE PTR [eax+3]
  00056	84 d2		 test	 dl, dl
  00058	0f 84 fe 01 00
	00		 je	 $LN93@LoadString@7
  0005e	80 f2 ea	 xor	 dl, -22			; ffffffeaH
  00061	88 55 e3	 mov	 BYTE PTR __k$[ebp+3], dl
  00064	8a 50 04	 mov	 dl, BYTE PTR [eax+4]
  00067	84 d2		 test	 dl, dl
  00069	0f 84 e7 01 00
	00		 je	 $LN92@LoadString@7
  0006f	80 f2 ed	 xor	 dl, -19			; ffffffedH
  00072	88 55 e4	 mov	 BYTE PTR __k$[ebp+4], dl
  00075	8a 50 05	 mov	 dl, BYTE PTR [eax+5]
  00078	84 d2		 test	 dl, dl
  0007a	0f 84 d1 01 00
	00		 je	 $LN91@LoadString@7
  00080	32 d3		 xor	 dl, bl
  00082	88 55 e5	 mov	 BYTE PTR __k$[ebp+5], dl
  00085	8a 50 06	 mov	 dl, BYTE PTR [eax+6]
  00088	84 d2		 test	 dl, dl
  0008a	0f 84 bc 01 00
	00		 je	 $LN90@LoadString@7
  00090	32 d1		 xor	 dl, cl
  00092	88 55 e6	 mov	 BYTE PTR __k$[ebp+6], dl
  00095	8a 50 07	 mov	 dl, BYTE PTR [eax+7]
  00098	84 d2		 test	 dl, dl
  0009a	0f 84 a6 01 00
	00		 je	 $LN89@LoadString@7
  000a0	80 f2 ea	 xor	 dl, -22			; ffffffeaH
  000a3	88 55 e7	 mov	 BYTE PTR __k$[ebp+7], dl
  000a6	8a 50 08	 mov	 dl, BYTE PTR [eax+8]
  000a9	84 d2		 test	 dl, dl
  000ab	0f 84 8f 01 00
	00		 je	 $LN88@LoadString@7
  000b1	80 f2 ed	 xor	 dl, -19			; ffffffedH
  000b4	88 55 e8	 mov	 BYTE PTR __k$[ebp+8], dl
  000b7	8a 50 09	 mov	 dl, BYTE PTR [eax+9]
  000ba	84 d2		 test	 dl, dl
  000bc	0f 84 79 01 00
	00		 je	 $LN87@LoadString@7
  000c2	32 d3		 xor	 dl, bl
  000c4	88 55 e9	 mov	 BYTE PTR __k$[ebp+9], dl
  000c7	8a 50 0a	 mov	 dl, BYTE PTR [eax+10]
  000ca	84 d2		 test	 dl, dl
  000cc	0f 84 64 01 00
	00		 je	 $LN86@LoadString@7
  000d2	32 d1		 xor	 dl, cl
  000d4	88 55 ea	 mov	 BYTE PTR __k$[ebp+10], dl
  000d7	8a 50 0b	 mov	 dl, BYTE PTR [eax+11]
  000da	84 d2		 test	 dl, dl
  000dc	0f 84 4e 01 00
	00		 je	 $LN85@LoadString@7
  000e2	80 f2 ea	 xor	 dl, -22			; ffffffeaH
  000e5	88 55 eb	 mov	 BYTE PTR __k$[ebp+11], dl
  000e8	8a 50 0c	 mov	 dl, BYTE PTR [eax+12]
  000eb	84 d2		 test	 dl, dl
  000ed	0f 84 37 01 00
	00		 je	 $LN84@LoadString@7
  000f3	80 f2 ed	 xor	 dl, -19			; ffffffedH
  000f6	88 55 ec	 mov	 BYTE PTR __k$[ebp+12], dl
  000f9	8a 50 0d	 mov	 dl, BYTE PTR [eax+13]
  000fc	84 d2		 test	 dl, dl
  000fe	0f 84 21 01 00
	00		 je	 $LN83@LoadString@7
  00104	32 d3		 xor	 dl, bl
  00106	88 55 ed	 mov	 BYTE PTR __k$[ebp+13], dl
  00109	8a 50 0e	 mov	 dl, BYTE PTR [eax+14]
  0010c	84 d2		 test	 dl, dl
  0010e	0f 84 0c 01 00
	00		 je	 $LN82@LoadString@7
  00114	32 d1		 xor	 dl, cl
  00116	88 55 ee	 mov	 BYTE PTR __k$[ebp+14], dl
  00119	8a 50 0f	 mov	 dl, BYTE PTR [eax+15]
  0011c	84 d2		 test	 dl, dl
  0011e	0f 84 f6 00 00
	00		 je	 $LN81@LoadString@7
  00124	80 f2 ea	 xor	 dl, -22			; ffffffeaH
  00127	88 55 ef	 mov	 BYTE PTR __k$[ebp+15], dl
  0012a	8a 50 10	 mov	 dl, BYTE PTR [eax+16]
  0012d	84 d2		 test	 dl, dl
  0012f	0f 84 df 00 00
	00		 je	 $LN80@LoadString@7
  00135	80 f2 ed	 xor	 dl, -19			; ffffffedH
  00138	88 55 f0	 mov	 BYTE PTR __k$[ebp+16], dl
  0013b	8a 50 11	 mov	 dl, BYTE PTR [eax+17]
  0013e	84 d2		 test	 dl, dl
  00140	0f 84 c9 00 00
	00		 je	 $LN79@LoadString@7
  00146	32 d3		 xor	 dl, bl
  00148	88 55 f1	 mov	 BYTE PTR __k$[ebp+17], dl
  0014b	8a 50 12	 mov	 dl, BYTE PTR [eax+18]
  0014e	84 d2		 test	 dl, dl
  00150	0f 84 b4 00 00
	00		 je	 $LN78@LoadString@7
  00156	32 d1		 xor	 dl, cl
  00158	88 55 f2	 mov	 BYTE PTR __k$[ebp+18], dl
  0015b	8a 50 13	 mov	 dl, BYTE PTR [eax+19]
  0015e	84 d2		 test	 dl, dl
  00160	0f 84 9e 00 00
	00		 je	 $LN77@LoadString@7
  00166	80 f2 ea	 xor	 dl, -22			; ffffffeaH
  00169	88 55 f3	 mov	 BYTE PTR __k$[ebp+19], dl
  0016c	8a 50 14	 mov	 dl, BYTE PTR [eax+20]
  0016f	84 d2		 test	 dl, dl
  00171	0f 84 87 00 00
	00		 je	 $LN76@LoadString@7
  00177	80 f2 ed	 xor	 dl, -19			; ffffffedH
  0017a	88 55 f4	 mov	 BYTE PTR __k$[ebp+20], dl
  0017d	8a 50 15	 mov	 dl, BYTE PTR [eax+21]
  00180	84 d2		 test	 dl, dl
  00182	74 75		 je	 SHORT $LN75@LoadString@7
  00184	32 d3		 xor	 dl, bl
  00186	88 55 f5	 mov	 BYTE PTR __k$[ebp+21], dl
  00189	8a 50 16	 mov	 dl, BYTE PTR [eax+22]
  0018c	84 d2		 test	 dl, dl
  0018e	74 64		 je	 SHORT $LN74@LoadString@7
  00190	32 d1		 xor	 dl, cl
  00192	80 78 17 00	 cmp	 BYTE PTR [eax+23], 0
  00196	88 55 f6	 mov	 BYTE PTR __k$[ebp+22], dl
  00199	0f 84 d3 00 00
	00		 je	 $LN111@LoadString@7
  0019f	8a 50 18	 mov	 dl, BYTE PTR [eax+24]
  001a2	84 d2		 test	 dl, dl
  001a4	74 48		 je	 SHORT $LN72@LoadString@7
  001a6	80 f2 ed	 xor	 dl, -19			; ffffffedH
  001a9	88 55 f8	 mov	 BYTE PTR __k$[ebp+24], dl
  001ac	8a 50 19	 mov	 dl, BYTE PTR [eax+25]
  001af	84 d2		 test	 dl, dl
  001b1	74 33		 je	 SHORT $LN71@LoadString@7
  001b3	32 d3		 xor	 dl, bl
  001b5	88 55 f9	 mov	 BYTE PTR __k$[ebp+25], dl
  001b8	8a 50 1a	 mov	 dl, BYTE PTR [eax+26]
  001bb	84 d2		 test	 dl, dl
  001bd	74 1f		 je	 SHORT $LN70@LoadString@7
  001bf	8a 40 1b	 mov	 al, BYTE PTR [eax+27]
  001c2	32 d1		 xor	 dl, cl
  001c4	88 55 fa	 mov	 BYTE PTR __k$[ebp+26], dl
  001c7	84 c0		 test	 al, al
  001c9	74 0a		 je	 SHORT $LN69@LoadString@7
  001cb	34 ea		 xor	 al, -22			; ffffffeaH
  001cd	88 45 fb	 mov	 BYTE PTR __k$[ebp+27], al
  001d0	e9 9d 00 00 00	 jmp	 $LN111@LoadString@7
$LN69@LoadString@7:
  001d5	c6 45 fb ea	 mov	 BYTE PTR __k$[ebp+27], -22 ; ffffffeaH
  001d9	e9 94 00 00 00	 jmp	 $LN111@LoadString@7
$LN70@LoadString@7:
  001de	88 4d fa	 mov	 BYTE PTR __k$[ebp+26], cl
  001e1	e9 8c 00 00 00	 jmp	 $LN111@LoadString@7
$LN71@LoadString@7:
  001e6	88 5d f9	 mov	 BYTE PTR __k$[ebp+25], bl
  001e9	e9 84 00 00 00	 jmp	 $LN111@LoadString@7
$LN72@LoadString@7:
  001ee	c6 45 f8 ed	 mov	 BYTE PTR __k$[ebp+24], -19 ; ffffffedH
  001f2	eb 7e		 jmp	 SHORT $LN111@LoadString@7
$LN74@LoadString@7:
  001f4	88 4d f6	 mov	 BYTE PTR __k$[ebp+22], cl
  001f7	eb 79		 jmp	 SHORT $LN111@LoadString@7
$LN75@LoadString@7:
  001f9	88 5d f5	 mov	 BYTE PTR __k$[ebp+21], bl
  001fc	eb 74		 jmp	 SHORT $LN111@LoadString@7
$LN76@LoadString@7:
  001fe	c6 45 f4 ed	 mov	 BYTE PTR __k$[ebp+20], -19 ; ffffffedH
  00202	eb 6e		 jmp	 SHORT $LN111@LoadString@7
$LN77@LoadString@7:
  00204	c6 45 f3 ea	 mov	 BYTE PTR __k$[ebp+19], -22 ; ffffffeaH
  00208	eb 68		 jmp	 SHORT $LN111@LoadString@7
$LN78@LoadString@7:
  0020a	88 4d f2	 mov	 BYTE PTR __k$[ebp+18], cl
  0020d	eb 63		 jmp	 SHORT $LN111@LoadString@7
$LN79@LoadString@7:
  0020f	88 5d f1	 mov	 BYTE PTR __k$[ebp+17], bl
  00212	eb 5e		 jmp	 SHORT $LN111@LoadString@7
$LN80@LoadString@7:
  00214	c6 45 f0 ed	 mov	 BYTE PTR __k$[ebp+16], -19 ; ffffffedH
  00218	eb 58		 jmp	 SHORT $LN111@LoadString@7
$LN81@LoadString@7:
  0021a	c6 45 ef ea	 mov	 BYTE PTR __k$[ebp+15], -22 ; ffffffeaH
  0021e	eb 52		 jmp	 SHORT $LN111@LoadString@7
$LN82@LoadString@7:
  00220	88 4d ee	 mov	 BYTE PTR __k$[ebp+14], cl
  00223	eb 4d		 jmp	 SHORT $LN111@LoadString@7
$LN83@LoadString@7:
  00225	88 5d ed	 mov	 BYTE PTR __k$[ebp+13], bl
  00228	eb 48		 jmp	 SHORT $LN111@LoadString@7
$LN84@LoadString@7:
  0022a	c6 45 ec ed	 mov	 BYTE PTR __k$[ebp+12], -19 ; ffffffedH
  0022e	eb 42		 jmp	 SHORT $LN111@LoadString@7
$LN85@LoadString@7:
  00230	c6 45 eb ea	 mov	 BYTE PTR __k$[ebp+11], -22 ; ffffffeaH
  00234	eb 3c		 jmp	 SHORT $LN111@LoadString@7
$LN86@LoadString@7:
  00236	88 4d ea	 mov	 BYTE PTR __k$[ebp+10], cl
  00239	eb 37		 jmp	 SHORT $LN111@LoadString@7
$LN87@LoadString@7:
  0023b	88 5d e9	 mov	 BYTE PTR __k$[ebp+9], bl
  0023e	eb 32		 jmp	 SHORT $LN111@LoadString@7
$LN88@LoadString@7:
  00240	c6 45 e8 ed	 mov	 BYTE PTR __k$[ebp+8], -19 ; ffffffedH
  00244	eb 2c		 jmp	 SHORT $LN111@LoadString@7
$LN89@LoadString@7:
  00246	c6 45 e7 ea	 mov	 BYTE PTR __k$[ebp+7], -22 ; ffffffeaH
  0024a	eb 26		 jmp	 SHORT $LN111@LoadString@7
$LN90@LoadString@7:
  0024c	88 4d e6	 mov	 BYTE PTR __k$[ebp+6], cl
  0024f	eb 21		 jmp	 SHORT $LN111@LoadString@7
$LN91@LoadString@7:
  00251	88 5d e5	 mov	 BYTE PTR __k$[ebp+5], bl
  00254	eb 1c		 jmp	 SHORT $LN111@LoadString@7
$LN92@LoadString@7:
  00256	c6 45 e4 ed	 mov	 BYTE PTR __k$[ebp+4], -19 ; ffffffedH
  0025a	eb 16		 jmp	 SHORT $LN111@LoadString@7
$LN93@LoadString@7:
  0025c	c6 45 e3 ea	 mov	 BYTE PTR __k$[ebp+3], -22 ; ffffffeaH
  00260	eb 10		 jmp	 SHORT $LN111@LoadString@7
$LN94@LoadString@7:
  00262	c6 45 e2 eb	 mov	 BYTE PTR __k$[ebp+2], -21 ; ffffffebH
  00266	eb 0a		 jmp	 SHORT $LN111@LoadString@7
$LN95@LoadString@7:
  00268	c6 45 e1 ec	 mov	 BYTE PTR __k$[ebp+1], -20 ; ffffffecH
  0026c	eb 04		 jmp	 SHORT $LN111@LoadString@7
$LN96@LoadString@7:
  0026e	c6 45 e0 ed	 mov	 BYTE PTR __k$[ebp], -19	; ffffffedH
$LN111@LoadString@7:
  00272	6a 05		 push	 5
  00274	8d 45 e0	 lea	 eax, DWORD PTR __k$[ebp]
  00277	c6 45 f7 00	 mov	 BYTE PTR __k$[ebp+23], 0
  0027b	5a		 pop	 edx
$LL104@LoadString@7:
  0027c	81 30 ed ec eb
	ea		 xor	 DWORD PTR [eax], -353637139 ; eaebecedH
  00282	83 c0 04	 add	 eax, 4
  00285	4a		 dec	 edx
  00286	75 f4		 jne	 SHORT $LL104@LoadString@7
  00288	6a 14		 push	 20			; 00000014H
  0028a	58		 pop	 eax
$LL101@LoadString@7:
  0028b	8b c8		 mov	 ecx, eax
  0028d	81 e1 03 00 00
	80		 and	 ecx, -2147483645	; 80000003H
  00293	79 05		 jns	 SHORT $LN112@LoadString@7
  00295	49		 dec	 ecx
  00296	83 c9 fc	 or	 ecx, -4			; fffffffcH
  00299	41		 inc	 ecx
$LN112@LoadString@7:
  0029a	b2 ed		 mov	 dl, -19			; ffffffedH
  0029c	2a d1		 sub	 dl, cl
  0029e	30 54 05 e0	 xor	 BYTE PTR __k$[ebp+eax], dl
  002a2	40		 inc	 eax
  002a3	83 f8 17	 cmp	 eax, 23			; 00000017H
  002a6	7c e3		 jl	 SHORT $LL101@LoadString@7

; 163  : 		LoadString(_k, d, b, i);

  002a8	ff 75 14	 push	 DWORD PTR _i$[ebp]
  002ab	8b 4d dc	 mov	 ecx, DWORD PTR _this$GSCopy$[ebp]
  002ae	57		 push	 edi
  002af	56		 push	 esi
  002b0	8d 45 e0	 lea	 eax, DWORD PTR __k$[ebp]
  002b3	50		 push	 eax
  002b4	ff 15 00 00 00
	00		 call	 DWORD PTR __imp_?LoadStringA@ioINILoader@@QAEXPBD0PADH@Z

; 164  : 	}

  002ba	8b 4d fc	 mov	 ecx, DWORD PTR __$ArrayPad$[ebp]
  002bd	5f		 pop	 edi
  002be	5e		 pop	 esi
  002bf	33 cd		 xor	 ecx, ebp
  002c1	5b		 pop	 ebx
  002c2	e8 00 00 00 00	 call	 @__security_check_cookie@4
  002c7	c9		 leave
  002c8	c2 10 00	 ret	 16			; 00000010H
??$LoadString_e@$0BI@@ioINILoader@@QAEXAAY0BI@$$CBDAAY00$$CBDPADH@Z ENDP ; ioINILoader::LoadString_e<24>
_TEXT	ENDS
PUBLIC	__$ArrayPad$
PUBLIC	??$LoadFloat_e@$0BB@@ioINILoader@@QAEMAAY0BB@$$CBDM@Z ; ioINILoader::LoadFloat_e<17>
; Function compile flags: /Ogsp
;	COMDAT ??$LoadFloat_e@$0BB@@ioINILoader@@QAEMAAY0BB@$$CBDM@Z
_TEXT	SEGMENT
__k$ = -28						; size = 17
__$ArrayPad$ = -4					; size = 4
_k$ = 8							; size = 4
_f$ = 12						; size = 4
??$LoadFloat_e@$0BB@@ioINILoader@@QAEMAAY0BB@$$CBDM@Z PROC ; ioINILoader::LoadFloat_e<17>, COMDAT
; _this$ = ecx

; 135  : 	{

  00000	55		 push	 ebp
  00001	8b ec		 mov	 ebp, esp
  00003	83 ec 1c	 sub	 esp, 28			; 0000001cH
  00006	a1 00 00 00 00	 mov	 eax, DWORD PTR ___security_cookie
  0000b	33 c5		 xor	 eax, ebp
  0000d	89 45 fc	 mov	 DWORD PTR __$ArrayPad$[ebp], eax
  00010	8b 45 08	 mov	 eax, DWORD PTR _k$[ebp]

; 136  : 		_ENCSTR(k, _k);

  00013	8a 10		 mov	 dl, BYTE PTR [eax]
  00015	56		 push	 esi
  00016	8b f1		 mov	 esi, ecx
  00018	84 d2		 test	 dl, dl
  0001a	0f 84 a7 01 00
	00		 je	 $LN96@LoadFloat_@2
  00020	80 f2 ed	 xor	 dl, -19			; ffffffedH
  00023	88 55 e4	 mov	 BYTE PTR __k$[ebp], dl
  00026	8a 50 01	 mov	 dl, BYTE PTR [eax+1]
  00029	84 d2		 test	 dl, dl
  0002b	0f 84 90 01 00
	00		 je	 $LN95@LoadFloat_@2
  00031	b1 ec		 mov	 cl, -20			; ffffffecH
  00033	32 d1		 xor	 dl, cl
  00035	88 55 e5	 mov	 BYTE PTR __k$[ebp+1], dl
  00038	8a 50 02	 mov	 dl, BYTE PTR [eax+2]
  0003b	84 d2		 test	 dl, dl
  0003d	0f 84 78 01 00
	00		 je	 $LN94@LoadFloat_@2
  00043	80 f2 eb	 xor	 dl, -21			; ffffffebH
  00046	88 55 e6	 mov	 BYTE PTR __k$[ebp+2], dl
  00049	8a 50 03	 mov	 dl, BYTE PTR [eax+3]
  0004c	84 d2		 test	 dl, dl
  0004e	0f 84 61 01 00
	00		 je	 $LN93@LoadFloat_@2
  00054	80 f2 ea	 xor	 dl, -22			; ffffffeaH
  00057	88 55 e7	 mov	 BYTE PTR __k$[ebp+3], dl
  0005a	8a 50 04	 mov	 dl, BYTE PTR [eax+4]
  0005d	84 d2		 test	 dl, dl
  0005f	0f 84 4a 01 00
	00		 je	 $LN92@LoadFloat_@2
  00065	80 f2 ed	 xor	 dl, -19			; ffffffedH
  00068	88 55 e8	 mov	 BYTE PTR __k$[ebp+4], dl
  0006b	8a 50 05	 mov	 dl, BYTE PTR [eax+5]
  0006e	84 d2		 test	 dl, dl
  00070	0f 84 34 01 00
	00		 je	 $LN91@LoadFloat_@2
  00076	32 d1		 xor	 dl, cl
  00078	88 55 e9	 mov	 BYTE PTR __k$[ebp+5], dl
  0007b	8a 50 06	 mov	 dl, BYTE PTR [eax+6]
  0007e	84 d2		 test	 dl, dl
  00080	0f 84 1e 01 00
	00		 je	 $LN90@LoadFloat_@2
  00086	80 f2 eb	 xor	 dl, -21			; ffffffebH
  00089	88 55 ea	 mov	 BYTE PTR __k$[ebp+6], dl
  0008c	8a 50 07	 mov	 dl, BYTE PTR [eax+7]
  0008f	84 d2		 test	 dl, dl
  00091	0f 84 07 01 00
	00		 je	 $LN89@LoadFloat_@2
  00097	80 f2 ea	 xor	 dl, -22			; ffffffeaH
  0009a	88 55 eb	 mov	 BYTE PTR __k$[ebp+7], dl
  0009d	8a 50 08	 mov	 dl, BYTE PTR [eax+8]
  000a0	84 d2		 test	 dl, dl
  000a2	0f 84 f0 00 00
	00		 je	 $LN88@LoadFloat_@2
  000a8	80 f2 ed	 xor	 dl, -19			; ffffffedH
  000ab	88 55 ec	 mov	 BYTE PTR __k$[ebp+8], dl
  000ae	8a 50 09	 mov	 dl, BYTE PTR [eax+9]
  000b1	84 d2		 test	 dl, dl
  000b3	0f 84 da 00 00
	00		 je	 $LN87@LoadFloat_@2
  000b9	32 d1		 xor	 dl, cl
  000bb	88 55 ed	 mov	 BYTE PTR __k$[ebp+9], dl
  000be	8a 50 0a	 mov	 dl, BYTE PTR [eax+10]
  000c1	84 d2		 test	 dl, dl
  000c3	0f 84 c4 00 00
	00		 je	 $LN86@LoadFloat_@2
  000c9	80 f2 eb	 xor	 dl, -21			; ffffffebH
  000cc	88 55 ee	 mov	 BYTE PTR __k$[ebp+10], dl
  000cf	8a 50 0b	 mov	 dl, BYTE PTR [eax+11]
  000d2	84 d2		 test	 dl, dl
  000d4	0f 84 ad 00 00
	00		 je	 $LN85@LoadFloat_@2
  000da	80 f2 ea	 xor	 dl, -22			; ffffffeaH
  000dd	88 55 ef	 mov	 BYTE PTR __k$[ebp+11], dl
  000e0	8a 50 0c	 mov	 dl, BYTE PTR [eax+12]
  000e3	84 d2		 test	 dl, dl
  000e5	0f 84 96 00 00
	00		 je	 $LN84@LoadFloat_@2
  000eb	80 f2 ed	 xor	 dl, -19			; ffffffedH
  000ee	88 55 f0	 mov	 BYTE PTR __k$[ebp+12], dl
  000f1	8a 50 0d	 mov	 dl, BYTE PTR [eax+13]
  000f4	84 d2		 test	 dl, dl
  000f6	0f 84 80 00 00
	00		 je	 $LN83@LoadFloat_@2
  000fc	32 d1		 xor	 dl, cl
  000fe	88 55 f1	 mov	 BYTE PTR __k$[ebp+13], dl
  00101	8a 50 0e	 mov	 dl, BYTE PTR [eax+14]
  00104	84 d2		 test	 dl, dl
  00106	74 6e		 je	 SHORT $LN82@LoadFloat_@2
  00108	80 f2 eb	 xor	 dl, -21			; ffffffebH
  0010b	88 55 f2	 mov	 BYTE PTR __k$[ebp+14], dl
  0010e	8a 50 0f	 mov	 dl, BYTE PTR [eax+15]
  00111	84 d2		 test	 dl, dl
  00113	74 5b		 je	 SHORT $LN81@LoadFloat_@2
  00115	80 f2 ea	 xor	 dl, -22			; ffffffeaH
  00118	80 78 10 00	 cmp	 BYTE PTR [eax+16], 0
  0011c	88 55 f3	 mov	 BYTE PTR __k$[ebp+15], dl
  0011f	0f 84 a6 00 00
	00		 je	 $LN1@LoadFloat_@2
  00125	8a 50 11	 mov	 dl, BYTE PTR [eax+17]
  00128	84 d2		 test	 dl, dl
  0012a	74 3f		 je	 SHORT $LN79@LoadFloat_@2
  0012c	32 d1		 xor	 dl, cl
  0012e	88 55 f5	 mov	 BYTE PTR __k$[ebp+17], dl
  00131	8a 50 12	 mov	 dl, BYTE PTR [eax+18]
  00134	84 d2		 test	 dl, dl
  00136	74 2d		 je	 SHORT $LN78@LoadFloat_@2
  00138	80 f2 eb	 xor	 dl, -21			; ffffffebH
  0013b	88 55 f6	 mov	 BYTE PTR __k$[ebp+18], dl
  0013e	8a 50 13	 mov	 dl, BYTE PTR [eax+19]
  00141	84 d2		 test	 dl, dl
  00143	74 1a		 je	 SHORT $LN77@LoadFloat_@2
  00145	8a 40 14	 mov	 al, BYTE PTR [eax+20]
  00148	80 f2 ea	 xor	 dl, -22			; ffffffeaH
  0014b	88 55 f7	 mov	 BYTE PTR __k$[ebp+19], dl
  0014e	84 c0		 test	 al, al
  00150	74 07		 je	 SHORT $LN76@LoadFloat_@2
  00152	34 ed		 xor	 al, -19			; ffffffedH
  00154	88 45 f8	 mov	 BYTE PTR __k$[ebp+20], al
  00157	eb 72		 jmp	 SHORT $LN1@LoadFloat_@2
$LN76@LoadFloat_@2:
  00159	c6 45 f8 ed	 mov	 BYTE PTR __k$[ebp+20], -19 ; ffffffedH
  0015d	eb 6c		 jmp	 SHORT $LN1@LoadFloat_@2
$LN77@LoadFloat_@2:
  0015f	c6 45 f7 ea	 mov	 BYTE PTR __k$[ebp+19], -22 ; ffffffeaH
  00163	eb 66		 jmp	 SHORT $LN1@LoadFloat_@2
$LN78@LoadFloat_@2:
  00165	c6 45 f6 eb	 mov	 BYTE PTR __k$[ebp+18], -21 ; ffffffebH
  00169	eb 60		 jmp	 SHORT $LN1@LoadFloat_@2
$LN79@LoadFloat_@2:
  0016b	88 4d f5	 mov	 BYTE PTR __k$[ebp+17], cl
  0016e	eb 5b		 jmp	 SHORT $LN1@LoadFloat_@2
$LN81@LoadFloat_@2:
  00170	c6 45 f3 ea	 mov	 BYTE PTR __k$[ebp+15], -22 ; ffffffeaH
  00174	eb 55		 jmp	 SHORT $LN1@LoadFloat_@2
$LN82@LoadFloat_@2:
  00176	c6 45 f2 eb	 mov	 BYTE PTR __k$[ebp+14], -21 ; ffffffebH
  0017a	eb 4f		 jmp	 SHORT $LN1@LoadFloat_@2
$LN83@LoadFloat_@2:
  0017c	88 4d f1	 mov	 BYTE PTR __k$[ebp+13], cl
  0017f	eb 4a		 jmp	 SHORT $LN1@LoadFloat_@2
$LN84@LoadFloat_@2:
  00181	c6 45 f0 ed	 mov	 BYTE PTR __k$[ebp+12], -19 ; ffffffedH
  00185	eb 44		 jmp	 SHORT $LN1@LoadFloat_@2
$LN85@LoadFloat_@2:
  00187	c6 45 ef ea	 mov	 BYTE PTR __k$[ebp+11], -22 ; ffffffeaH
  0018b	eb 3e		 jmp	 SHORT $LN1@LoadFloat_@2
$LN86@LoadFloat_@2:
  0018d	c6 45 ee eb	 mov	 BYTE PTR __k$[ebp+10], -21 ; ffffffebH
  00191	eb 38		 jmp	 SHORT $LN1@LoadFloat_@2
$LN87@LoadFloat_@2:
  00193	88 4d ed	 mov	 BYTE PTR __k$[ebp+9], cl
  00196	eb 33		 jmp	 SHORT $LN1@LoadFloat_@2
$LN88@LoadFloat_@2:
  00198	c6 45 ec ed	 mov	 BYTE PTR __k$[ebp+8], -19 ; ffffffedH
  0019c	eb 2d		 jmp	 SHORT $LN1@LoadFloat_@2
$LN89@LoadFloat_@2:
  0019e	c6 45 eb ea	 mov	 BYTE PTR __k$[ebp+7], -22 ; ffffffeaH
  001a2	eb 27		 jmp	 SHORT $LN1@LoadFloat_@2
$LN90@LoadFloat_@2:
  001a4	c6 45 ea eb	 mov	 BYTE PTR __k$[ebp+6], -21 ; ffffffebH
  001a8	eb 21		 jmp	 SHORT $LN1@LoadFloat_@2
$LN91@LoadFloat_@2:
  001aa	88 4d e9	 mov	 BYTE PTR __k$[ebp+5], cl
  001ad	eb 1c		 jmp	 SHORT $LN1@LoadFloat_@2
$LN92@LoadFloat_@2:
  001af	c6 45 e8 ed	 mov	 BYTE PTR __k$[ebp+4], -19 ; ffffffedH
  001b3	eb 16		 jmp	 SHORT $LN1@LoadFloat_@2
$LN93@LoadFloat_@2:
  001b5	c6 45 e7 ea	 mov	 BYTE PTR __k$[ebp+3], -22 ; ffffffeaH
  001b9	eb 10		 jmp	 SHORT $LN1@LoadFloat_@2
$LN94@LoadFloat_@2:
  001bb	c6 45 e6 eb	 mov	 BYTE PTR __k$[ebp+2], -21 ; ffffffebH
  001bf	eb 0a		 jmp	 SHORT $LN1@LoadFloat_@2
$LN95@LoadFloat_@2:
  001c1	c6 45 e5 ec	 mov	 BYTE PTR __k$[ebp+1], -20 ; ffffffecH
  001c5	eb 04		 jmp	 SHORT $LN1@LoadFloat_@2
$LN96@LoadFloat_@2:
  001c7	c6 45 e4 ed	 mov	 BYTE PTR __k$[ebp], -19	; ffffffedH
$LN1@LoadFloat_@2:
  001cb	6a 04		 push	 4
  001cd	8d 45 e4	 lea	 eax, DWORD PTR __k$[ebp]
  001d0	c6 45 f4 00	 mov	 BYTE PTR __k$[ebp+16], 0
  001d4	5a		 pop	 edx
$LL104@LoadFloat_@2:
  001d5	81 30 ed ec eb
	ea		 xor	 DWORD PTR [eax], -353637139 ; eaebecedH
  001db	83 c0 04	 add	 eax, 4
  001de	4a		 dec	 edx
  001df	75 f4		 jne	 SHORT $LL104@LoadFloat_@2

; 137  : 		return LoadFloat(_k, f);

  001e1	f3 0f 10 45 0c	 movss	 xmm0, DWORD PTR _f$[ebp]
  001e6	51		 push	 ecx
  001e7	8d 45 e4	 lea	 eax, DWORD PTR __k$[ebp]
  001ea	f3 0f 11 04 24	 movss	 DWORD PTR [esp], xmm0
  001ef	50		 push	 eax
  001f0	8b ce		 mov	 ecx, esi
  001f2	ff 15 00 00 00
	00		 call	 DWORD PTR __imp_?LoadFloat@ioINILoader@@QAEMPBDM@Z

; 138  : 	}

  001f8	8b 4d fc	 mov	 ecx, DWORD PTR __$ArrayPad$[ebp]
  001fb	33 cd		 xor	 ecx, ebp
  001fd	5e		 pop	 esi
  001fe	e8 00 00 00 00	 call	 @__security_check_cookie@4
  00203	c9		 leave
  00204	c2 08 00	 ret	 8
??$LoadFloat_e@$0BB@@ioINILoader@@QAEMAAY0BB@$$CBDM@Z ENDP ; ioINILoader::LoadFloat_e<17>
_TEXT	ENDS
PUBLIC	__$ArrayPad$
PUBLIC	??$LoadFloat_e@$0BF@@ioINILoader@@QAEMAAY0BF@$$CBDM@Z ; ioINILoader::LoadFloat_e<21>
; Function compile flags: /Ogsp
;	COMDAT ??$LoadFloat_e@$0BF@@ioINILoader@@QAEMAAY0BF@$$CBDM@Z
_TEXT	SEGMENT
__k$ = -32						; size = 21
__$ArrayPad$ = -4					; size = 4
_k$ = 8							; size = 4
_f$ = 12						; size = 4
??$LoadFloat_e@$0BF@@ioINILoader@@QAEMAAY0BF@$$CBDM@Z PROC ; ioINILoader::LoadFloat_e<21>, COMDAT
; _this$ = ecx

; 135  : 	{

  00000	55		 push	 ebp
  00001	8b ec		 mov	 ebp, esp
  00003	83 ec 20	 sub	 esp, 32			; 00000020H
  00006	a1 00 00 00 00	 mov	 eax, DWORD PTR ___security_cookie
  0000b	33 c5		 xor	 eax, ebp
  0000d	89 45 fc	 mov	 DWORD PTR __$ArrayPad$[ebp], eax
  00010	8b 45 08	 mov	 eax, DWORD PTR _k$[ebp]

; 136  : 		_ENCSTR(k, _k);

  00013	8a 10		 mov	 dl, BYTE PTR [eax]
  00015	53		 push	 ebx
  00016	56		 push	 esi
  00017	8b f1		 mov	 esi, ecx
  00019	84 d2		 test	 dl, dl
  0001b	0f 84 f7 01 00
	00		 je	 $LN96@LoadFloat_@3
  00021	80 f2 ed	 xor	 dl, -19			; ffffffedH
  00024	88 55 e0	 mov	 BYTE PTR __k$[ebp], dl
  00027	8a 50 01	 mov	 dl, BYTE PTR [eax+1]
  0002a	84 d2		 test	 dl, dl
  0002c	0f 84 e0 01 00
	00		 je	 $LN95@LoadFloat_@3
  00032	b1 ec		 mov	 cl, -20			; ffffffecH
  00034	32 d1		 xor	 dl, cl
  00036	88 55 e1	 mov	 BYTE PTR __k$[ebp+1], dl
  00039	8a 50 02	 mov	 dl, BYTE PTR [eax+2]
  0003c	84 d2		 test	 dl, dl
  0003e	0f 84 c8 01 00
	00		 je	 $LN94@LoadFloat_@3
  00044	b3 eb		 mov	 bl, -21			; ffffffebH
  00046	32 d3		 xor	 dl, bl
  00048	88 55 e2	 mov	 BYTE PTR __k$[ebp+2], dl
  0004b	8a 50 03	 mov	 dl, BYTE PTR [eax+3]
  0004e	84 d2		 test	 dl, dl
  00050	0f 84 b0 01 00
	00		 je	 $LN93@LoadFloat_@3
  00056	80 f2 ea	 xor	 dl, -22			; ffffffeaH
  00059	88 55 e3	 mov	 BYTE PTR __k$[ebp+3], dl
  0005c	8a 50 04	 mov	 dl, BYTE PTR [eax+4]
  0005f	84 d2		 test	 dl, dl
  00061	0f 84 99 01 00
	00		 je	 $LN92@LoadFloat_@3
  00067	80 f2 ed	 xor	 dl, -19			; ffffffedH
  0006a	88 55 e4	 mov	 BYTE PTR __k$[ebp+4], dl
  0006d	8a 50 05	 mov	 dl, BYTE PTR [eax+5]
  00070	84 d2		 test	 dl, dl
  00072	0f 84 83 01 00
	00		 je	 $LN91@LoadFloat_@3
  00078	32 d1		 xor	 dl, cl
  0007a	88 55 e5	 mov	 BYTE PTR __k$[ebp+5], dl
  0007d	8a 50 06	 mov	 dl, BYTE PTR [eax+6]
  00080	84 d2		 test	 dl, dl
  00082	0f 84 6e 01 00
	00		 je	 $LN90@LoadFloat_@3
  00088	32 d3		 xor	 dl, bl
  0008a	88 55 e6	 mov	 BYTE PTR __k$[ebp+6], dl
  0008d	8a 50 07	 mov	 dl, BYTE PTR [eax+7]
  00090	84 d2		 test	 dl, dl
  00092	0f 84 58 01 00
	00		 je	 $LN89@LoadFloat_@3
  00098	80 f2 ea	 xor	 dl, -22			; ffffffeaH
  0009b	88 55 e7	 mov	 BYTE PTR __k$[ebp+7], dl
  0009e	8a 50 08	 mov	 dl, BYTE PTR [eax+8]
  000a1	84 d2		 test	 dl, dl
  000a3	0f 84 41 01 00
	00		 je	 $LN88@LoadFloat_@3
  000a9	80 f2 ed	 xor	 dl, -19			; ffffffedH
  000ac	88 55 e8	 mov	 BYTE PTR __k$[ebp+8], dl
  000af	8a 50 09	 mov	 dl, BYTE PTR [eax+9]
  000b2	84 d2		 test	 dl, dl
  000b4	0f 84 2b 01 00
	00		 je	 $LN87@LoadFloat_@3
  000ba	32 d1		 xor	 dl, cl
  000bc	88 55 e9	 mov	 BYTE PTR __k$[ebp+9], dl
  000bf	8a 50 0a	 mov	 dl, BYTE PTR [eax+10]
  000c2	84 d2		 test	 dl, dl
  000c4	0f 84 16 01 00
	00		 je	 $LN86@LoadFloat_@3
  000ca	32 d3		 xor	 dl, bl
  000cc	88 55 ea	 mov	 BYTE PTR __k$[ebp+10], dl
  000cf	8a 50 0b	 mov	 dl, BYTE PTR [eax+11]
  000d2	84 d2		 test	 dl, dl
  000d4	0f 84 00 01 00
	00		 je	 $LN85@LoadFloat_@3
  000da	80 f2 ea	 xor	 dl, -22			; ffffffeaH
  000dd	88 55 eb	 mov	 BYTE PTR __k$[ebp+11], dl
  000e0	8a 50 0c	 mov	 dl, BYTE PTR [eax+12]
  000e3	84 d2		 test	 dl, dl
  000e5	0f 84 e9 00 00
	00		 je	 $LN84@LoadFloat_@3
  000eb	80 f2 ed	 xor	 dl, -19			; ffffffedH
  000ee	88 55 ec	 mov	 BYTE PTR __k$[ebp+12], dl
  000f1	8a 50 0d	 mov	 dl, BYTE PTR [eax+13]
  000f4	84 d2		 test	 dl, dl
  000f6	0f 84 d3 00 00
	00		 je	 $LN83@LoadFloat_@3
  000fc	32 d1		 xor	 dl, cl
  000fe	88 55 ed	 mov	 BYTE PTR __k$[ebp+13], dl
  00101	8a 50 0e	 mov	 dl, BYTE PTR [eax+14]
  00104	84 d2		 test	 dl, dl
  00106	0f 84 be 00 00
	00		 je	 $LN82@LoadFloat_@3
  0010c	32 d3		 xor	 dl, bl
  0010e	88 55 ee	 mov	 BYTE PTR __k$[ebp+14], dl
  00111	8a 50 0f	 mov	 dl, BYTE PTR [eax+15]
  00114	84 d2		 test	 dl, dl
  00116	0f 84 a8 00 00
	00		 je	 $LN81@LoadFloat_@3
  0011c	80 f2 ea	 xor	 dl, -22			; ffffffeaH
  0011f	88 55 ef	 mov	 BYTE PTR __k$[ebp+15], dl
  00122	8a 50 10	 mov	 dl, BYTE PTR [eax+16]
  00125	84 d2		 test	 dl, dl
  00127	0f 84 91 00 00
	00		 je	 $LN80@LoadFloat_@3
  0012d	80 f2 ed	 xor	 dl, -19			; ffffffedH
  00130	88 55 f0	 mov	 BYTE PTR __k$[ebp+16], dl
  00133	8a 50 11	 mov	 dl, BYTE PTR [eax+17]
  00136	84 d2		 test	 dl, dl
  00138	74 7f		 je	 SHORT $LN79@LoadFloat_@3
  0013a	32 d1		 xor	 dl, cl
  0013c	88 55 f1	 mov	 BYTE PTR __k$[ebp+17], dl
  0013f	8a 50 12	 mov	 dl, BYTE PTR [eax+18]
  00142	84 d2		 test	 dl, dl
  00144	74 6e		 je	 SHORT $LN78@LoadFloat_@3
  00146	32 d3		 xor	 dl, bl
  00148	88 55 f2	 mov	 BYTE PTR __k$[ebp+18], dl
  0014b	8a 50 13	 mov	 dl, BYTE PTR [eax+19]
  0014e	84 d2		 test	 dl, dl
  00150	74 5c		 je	 SHORT $LN77@LoadFloat_@3
  00152	80 f2 ea	 xor	 dl, -22			; ffffffeaH
  00155	80 78 14 00	 cmp	 BYTE PTR [eax+20], 0
  00159	88 55 f3	 mov	 BYTE PTR __k$[ebp+19], dl
  0015c	0f 84 ba 00 00
	00		 je	 $LN1@LoadFloat_@3
  00162	8a 50 15	 mov	 dl, BYTE PTR [eax+21]
  00165	84 d2		 test	 dl, dl
  00167	74 40		 je	 SHORT $LN75@LoadFloat_@3
  00169	32 d1		 xor	 dl, cl
  0016b	88 55 f5	 mov	 BYTE PTR __k$[ebp+21], dl
  0016e	8a 50 16	 mov	 dl, BYTE PTR [eax+22]
  00171	84 d2		 test	 dl, dl
  00173	74 2f		 je	 SHORT $LN74@LoadFloat_@3
  00175	32 d3		 xor	 dl, bl
  00177	88 55 f6	 mov	 BYTE PTR __k$[ebp+22], dl
  0017a	8a 50 17	 mov	 dl, BYTE PTR [eax+23]
  0017d	84 d2		 test	 dl, dl
  0017f	74 1d		 je	 SHORT $LN73@LoadFloat_@3
  00181	8a 40 18	 mov	 al, BYTE PTR [eax+24]
  00184	80 f2 ea	 xor	 dl, -22			; ffffffeaH
  00187	88 55 f7	 mov	 BYTE PTR __k$[ebp+23], dl
  0018a	84 c0		 test	 al, al
  0018c	74 0a		 je	 SHORT $LN72@LoadFloat_@3
  0018e	34 ed		 xor	 al, -19			; ffffffedH
  00190	88 45 f8	 mov	 BYTE PTR __k$[ebp+24], al
  00193	e9 84 00 00 00	 jmp	 $LN1@LoadFloat_@3
$LN72@LoadFloat_@3:
  00198	c6 45 f8 ed	 mov	 BYTE PTR __k$[ebp+24], -19 ; ffffffedH
  0019c	eb 7e		 jmp	 SHORT $LN1@LoadFloat_@3
$LN73@LoadFloat_@3:
  0019e	c6 45 f7 ea	 mov	 BYTE PTR __k$[ebp+23], -22 ; ffffffeaH
  001a2	eb 78		 jmp	 SHORT $LN1@LoadFloat_@3
$LN74@LoadFloat_@3:
  001a4	88 5d f6	 mov	 BYTE PTR __k$[ebp+22], bl
  001a7	eb 73		 jmp	 SHORT $LN1@LoadFloat_@3
$LN75@LoadFloat_@3:
  001a9	88 4d f5	 mov	 BYTE PTR __k$[ebp+21], cl
  001ac	eb 6e		 jmp	 SHORT $LN1@LoadFloat_@3
$LN77@LoadFloat_@3:
  001ae	c6 45 f3 ea	 mov	 BYTE PTR __k$[ebp+19], -22 ; ffffffeaH
  001b2	eb 68		 jmp	 SHORT $LN1@LoadFloat_@3
$LN78@LoadFloat_@3:
  001b4	88 5d f2	 mov	 BYTE PTR __k$[ebp+18], bl
  001b7	eb 63		 jmp	 SHORT $LN1@LoadFloat_@3
$LN79@LoadFloat_@3:
  001b9	88 4d f1	 mov	 BYTE PTR __k$[ebp+17], cl
  001bc	eb 5e		 jmp	 SHORT $LN1@LoadFloat_@3
$LN80@LoadFloat_@3:
  001be	c6 45 f0 ed	 mov	 BYTE PTR __k$[ebp+16], -19 ; ffffffedH
  001c2	eb 58		 jmp	 SHORT $LN1@LoadFloat_@3
$LN81@LoadFloat_@3:
  001c4	c6 45 ef ea	 mov	 BYTE PTR __k$[ebp+15], -22 ; ffffffeaH
  001c8	eb 52		 jmp	 SHORT $LN1@LoadFloat_@3
$LN82@LoadFloat_@3:
  001ca	88 5d ee	 mov	 BYTE PTR __k$[ebp+14], bl
  001cd	eb 4d		 jmp	 SHORT $LN1@LoadFloat_@3
$LN83@LoadFloat_@3:
  001cf	88 4d ed	 mov	 BYTE PTR __k$[ebp+13], cl
  001d2	eb 48		 jmp	 SHORT $LN1@LoadFloat_@3
$LN84@LoadFloat_@3:
  001d4	c6 45 ec ed	 mov	 BYTE PTR __k$[ebp+12], -19 ; ffffffedH
  001d8	eb 42		 jmp	 SHORT $LN1@LoadFloat_@3
$LN85@LoadFloat_@3:
  001da	c6 45 eb ea	 mov	 BYTE PTR __k$[ebp+11], -22 ; ffffffeaH
  001de	eb 3c		 jmp	 SHORT $LN1@LoadFloat_@3
$LN86@LoadFloat_@3:
  001e0	88 5d ea	 mov	 BYTE PTR __k$[ebp+10], bl
  001e3	eb 37		 jmp	 SHORT $LN1@LoadFloat_@3
$LN87@LoadFloat_@3:
  001e5	88 4d e9	 mov	 BYTE PTR __k$[ebp+9], cl
  001e8	eb 32		 jmp	 SHORT $LN1@LoadFloat_@3
$LN88@LoadFloat_@3:
  001ea	c6 45 e8 ed	 mov	 BYTE PTR __k$[ebp+8], -19 ; ffffffedH
  001ee	eb 2c		 jmp	 SHORT $LN1@LoadFloat_@3
$LN89@LoadFloat_@3:
  001f0	c6 45 e7 ea	 mov	 BYTE PTR __k$[ebp+7], -22 ; ffffffeaH
  001f4	eb 26		 jmp	 SHORT $LN1@LoadFloat_@3
$LN90@LoadFloat_@3:
  001f6	88 5d e6	 mov	 BYTE PTR __k$[ebp+6], bl
  001f9	eb 21		 jmp	 SHORT $LN1@LoadFloat_@3
$LN91@LoadFloat_@3:
  001fb	88 4d e5	 mov	 BYTE PTR __k$[ebp+5], cl
  001fe	eb 1c		 jmp	 SHORT $LN1@LoadFloat_@3
$LN92@LoadFloat_@3:
  00200	c6 45 e4 ed	 mov	 BYTE PTR __k$[ebp+4], -19 ; ffffffedH
  00204	eb 16		 jmp	 SHORT $LN1@LoadFloat_@3
$LN93@LoadFloat_@3:
  00206	c6 45 e3 ea	 mov	 BYTE PTR __k$[ebp+3], -22 ; ffffffeaH
  0020a	eb 10		 jmp	 SHORT $LN1@LoadFloat_@3
$LN94@LoadFloat_@3:
  0020c	c6 45 e2 eb	 mov	 BYTE PTR __k$[ebp+2], -21 ; ffffffebH
  00210	eb 0a		 jmp	 SHORT $LN1@LoadFloat_@3
$LN95@LoadFloat_@3:
  00212	c6 45 e1 ec	 mov	 BYTE PTR __k$[ebp+1], -20 ; ffffffecH
  00216	eb 04		 jmp	 SHORT $LN1@LoadFloat_@3
$LN96@LoadFloat_@3:
  00218	c6 45 e0 ed	 mov	 BYTE PTR __k$[ebp], -19	; ffffffedH
$LN1@LoadFloat_@3:
  0021c	6a 05		 push	 5
  0021e	8d 45 e0	 lea	 eax, DWORD PTR __k$[ebp]
  00221	c6 45 f4 00	 mov	 BYTE PTR __k$[ebp+20], 0
  00225	5a		 pop	 edx
$LL104@LoadFloat_@3:
  00226	81 30 ed ec eb
	ea		 xor	 DWORD PTR [eax], -353637139 ; eaebecedH
  0022c	83 c0 04	 add	 eax, 4
  0022f	4a		 dec	 edx
  00230	75 f4		 jne	 SHORT $LL104@LoadFloat_@3

; 137  : 		return LoadFloat(_k, f);

  00232	f3 0f 10 45 0c	 movss	 xmm0, DWORD PTR _f$[ebp]
  00237	51		 push	 ecx
  00238	8d 45 e0	 lea	 eax, DWORD PTR __k$[ebp]
  0023b	f3 0f 11 04 24	 movss	 DWORD PTR [esp], xmm0
  00240	50		 push	 eax
  00241	8b ce		 mov	 ecx, esi
  00243	ff 15 00 00 00
	00		 call	 DWORD PTR __imp_?LoadFloat@ioINILoader@@QAEMPBDM@Z

; 138  : 	}

  00249	8b 4d fc	 mov	 ecx, DWORD PTR __$ArrayPad$[ebp]
  0024c	5e		 pop	 esi
  0024d	33 cd		 xor	 ecx, ebp
  0024f	5b		 pop	 ebx
  00250	e8 00 00 00 00	 call	 @__security_check_cookie@4
  00255	c9		 leave
  00256	c2 08 00	 ret	 8
??$LoadFloat_e@$0BF@@ioINILoader@@QAEMAAY0BF@$$CBDM@Z ENDP ; ioINILoader::LoadFloat_e<21>
_TEXT	ENDS
PUBLIC	__$ArrayPad$
PUBLIC	??$LoadFloat_e@$0BG@@ioINILoader@@QAEMAAY0BG@$$CBDM@Z ; ioINILoader::LoadFloat_e<22>
; Function compile flags: /Ogsp
;	COMDAT ??$LoadFloat_e@$0BG@@ioINILoader@@QAEMAAY0BG@$$CBDM@Z
_TEXT	SEGMENT
__k$ = -32						; size = 22
__$ArrayPad$ = -4					; size = 4
_k$ = 8							; size = 4
_f$ = 12						; size = 4
??$LoadFloat_e@$0BG@@ioINILoader@@QAEMAAY0BG@$$CBDM@Z PROC ; ioINILoader::LoadFloat_e<22>, COMDAT
; _this$ = ecx

; 135  : 	{

  00000	55		 push	 ebp
  00001	8b ec		 mov	 ebp, esp
  00003	83 ec 20	 sub	 esp, 32			; 00000020H
  00006	a1 00 00 00 00	 mov	 eax, DWORD PTR ___security_cookie
  0000b	33 c5		 xor	 eax, ebp
  0000d	89 45 fc	 mov	 DWORD PTR __$ArrayPad$[ebp], eax
  00010	8b 45 08	 mov	 eax, DWORD PTR _k$[ebp]

; 136  : 		_ENCSTR(k, _k);

  00013	8a 10		 mov	 dl, BYTE PTR [eax]
  00015	53		 push	 ebx
  00016	56		 push	 esi
  00017	8b f1		 mov	 esi, ecx
  00019	84 d2		 test	 dl, dl
  0001b	0f 84 15 02 00
	00		 je	 $LN96@LoadFloat_@4
  00021	80 f2 ed	 xor	 dl, -19			; ffffffedH
  00024	88 55 e0	 mov	 BYTE PTR __k$[ebp], dl
  00027	8a 50 01	 mov	 dl, BYTE PTR [eax+1]
  0002a	84 d2		 test	 dl, dl
  0002c	0f 84 fe 01 00
	00		 je	 $LN95@LoadFloat_@4
  00032	80 f2 ec	 xor	 dl, -20			; ffffffecH
  00035	88 55 e1	 mov	 BYTE PTR __k$[ebp+1], dl
  00038	8a 50 02	 mov	 dl, BYTE PTR [eax+2]
  0003b	84 d2		 test	 dl, dl
  0003d	0f 84 e7 01 00
	00		 je	 $LN94@LoadFloat_@4
  00043	b1 eb		 mov	 cl, -21			; ffffffebH
  00045	32 d1		 xor	 dl, cl
  00047	88 55 e2	 mov	 BYTE PTR __k$[ebp+2], dl
  0004a	8a 50 03	 mov	 dl, BYTE PTR [eax+3]
  0004d	84 d2		 test	 dl, dl
  0004f	0f 84 cf 01 00
	00		 je	 $LN93@LoadFloat_@4
  00055	b3 ea		 mov	 bl, -22			; ffffffeaH
  00057	32 d3		 xor	 dl, bl
  00059	88 55 e3	 mov	 BYTE PTR __k$[ebp+3], dl
  0005c	8a 50 04	 mov	 dl, BYTE PTR [eax+4]
  0005f	84 d2		 test	 dl, dl
  00061	0f 84 b7 01 00
	00		 je	 $LN92@LoadFloat_@4
  00067	80 f2 ed	 xor	 dl, -19			; ffffffedH
  0006a	88 55 e4	 mov	 BYTE PTR __k$[ebp+4], dl
  0006d	8a 50 05	 mov	 dl, BYTE PTR [eax+5]
  00070	84 d2		 test	 dl, dl
  00072	0f 84 a0 01 00
	00		 je	 $LN91@LoadFloat_@4
  00078	80 f2 ec	 xor	 dl, -20			; ffffffecH
  0007b	88 55 e5	 mov	 BYTE PTR __k$[ebp+5], dl
  0007e	8a 50 06	 mov	 dl, BYTE PTR [eax+6]
  00081	84 d2		 test	 dl, dl
  00083	0f 84 8a 01 00
	00		 je	 $LN90@LoadFloat_@4
  00089	32 d1		 xor	 dl, cl
  0008b	88 55 e6	 mov	 BYTE PTR __k$[ebp+6], dl
  0008e	8a 50 07	 mov	 dl, BYTE PTR [eax+7]
  00091	84 d2		 test	 dl, dl
  00093	0f 84 75 01 00
	00		 je	 $LN89@LoadFloat_@4
  00099	32 d3		 xor	 dl, bl
  0009b	88 55 e7	 mov	 BYTE PTR __k$[ebp+7], dl
  0009e	8a 50 08	 mov	 dl, BYTE PTR [eax+8]
  000a1	84 d2		 test	 dl, dl
  000a3	0f 84 5f 01 00
	00		 je	 $LN88@LoadFloat_@4
  000a9	80 f2 ed	 xor	 dl, -19			; ffffffedH
  000ac	88 55 e8	 mov	 BYTE PTR __k$[ebp+8], dl
  000af	8a 50 09	 mov	 dl, BYTE PTR [eax+9]
  000b2	84 d2		 test	 dl, dl
  000b4	0f 84 48 01 00
	00		 je	 $LN87@LoadFloat_@4
  000ba	80 f2 ec	 xor	 dl, -20			; ffffffecH
  000bd	88 55 e9	 mov	 BYTE PTR __k$[ebp+9], dl
  000c0	8a 50 0a	 mov	 dl, BYTE PTR [eax+10]
  000c3	84 d2		 test	 dl, dl
  000c5	0f 84 32 01 00
	00		 je	 $LN86@LoadFloat_@4
  000cb	32 d1		 xor	 dl, cl
  000cd	88 55 ea	 mov	 BYTE PTR __k$[ebp+10], dl
  000d0	8a 50 0b	 mov	 dl, BYTE PTR [eax+11]
  000d3	84 d2		 test	 dl, dl
  000d5	0f 84 1d 01 00
	00		 je	 $LN85@LoadFloat_@4
  000db	32 d3		 xor	 dl, bl
  000dd	88 55 eb	 mov	 BYTE PTR __k$[ebp+11], dl
  000e0	8a 50 0c	 mov	 dl, BYTE PTR [eax+12]
  000e3	84 d2		 test	 dl, dl
  000e5	0f 84 07 01 00
	00		 je	 $LN84@LoadFloat_@4
  000eb	80 f2 ed	 xor	 dl, -19			; ffffffedH
  000ee	88 55 ec	 mov	 BYTE PTR __k$[ebp+12], dl
  000f1	8a 50 0d	 mov	 dl, BYTE PTR [eax+13]
  000f4	84 d2		 test	 dl, dl
  000f6	0f 84 f0 00 00
	00		 je	 $LN83@LoadFloat_@4
  000fc	80 f2 ec	 xor	 dl, -20			; ffffffecH
  000ff	88 55 ed	 mov	 BYTE PTR __k$[ebp+13], dl
  00102	8a 50 0e	 mov	 dl, BYTE PTR [eax+14]
  00105	84 d2		 test	 dl, dl
  00107	0f 84 da 00 00
	00		 je	 $LN82@LoadFloat_@4
  0010d	32 d1		 xor	 dl, cl
  0010f	88 55 ee	 mov	 BYTE PTR __k$[ebp+14], dl
  00112	8a 50 0f	 mov	 dl, BYTE PTR [eax+15]
  00115	84 d2		 test	 dl, dl
  00117	0f 84 c5 00 00
	00		 je	 $LN81@LoadFloat_@4
  0011d	32 d3		 xor	 dl, bl
  0011f	88 55 ef	 mov	 BYTE PTR __k$[ebp+15], dl
  00122	8a 50 10	 mov	 dl, BYTE PTR [eax+16]
  00125	84 d2		 test	 dl, dl
  00127	0f 84 af 00 00
	00		 je	 $LN80@LoadFloat_@4
  0012d	80 f2 ed	 xor	 dl, -19			; ffffffedH
  00130	88 55 f0	 mov	 BYTE PTR __k$[ebp+16], dl
  00133	8a 50 11	 mov	 dl, BYTE PTR [eax+17]
  00136	84 d2		 test	 dl, dl
  00138	0f 84 98 00 00
	00		 je	 $LN79@LoadFloat_@4
  0013e	80 f2 ec	 xor	 dl, -20			; ffffffecH
  00141	88 55 f1	 mov	 BYTE PTR __k$[ebp+17], dl
  00144	8a 50 12	 mov	 dl, BYTE PTR [eax+18]
  00147	84 d2		 test	 dl, dl
  00149	0f 84 82 00 00
	00		 je	 $LN78@LoadFloat_@4
  0014f	32 d1		 xor	 dl, cl
  00151	88 55 f2	 mov	 BYTE PTR __k$[ebp+18], dl
  00154	8a 50 13	 mov	 dl, BYTE PTR [eax+19]
  00157	84 d2		 test	 dl, dl
  00159	74 71		 je	 SHORT $LN77@LoadFloat_@4
  0015b	32 d3		 xor	 dl, bl
  0015d	88 55 f3	 mov	 BYTE PTR __k$[ebp+19], dl
  00160	8a 50 14	 mov	 dl, BYTE PTR [eax+20]
  00163	84 d2		 test	 dl, dl
  00165	74 5f		 je	 SHORT $LN76@LoadFloat_@4
  00167	80 f2 ed	 xor	 dl, -19			; ffffffedH
  0016a	80 78 15 00	 cmp	 BYTE PTR [eax+21], 0
  0016e	88 55 f4	 mov	 BYTE PTR __k$[ebp+20], dl
  00171	0f 84 c3 00 00
	00		 je	 $LN1@LoadFloat_@4
  00177	8a 50 16	 mov	 dl, BYTE PTR [eax+22]
  0017a	84 d2		 test	 dl, dl
  0017c	74 43		 je	 SHORT $LN74@LoadFloat_@4
  0017e	32 d1		 xor	 dl, cl
  00180	88 55 f6	 mov	 BYTE PTR __k$[ebp+22], dl
  00183	8a 50 17	 mov	 dl, BYTE PTR [eax+23]
  00186	84 d2		 test	 dl, dl
  00188	74 32		 je	 SHORT $LN73@LoadFloat_@4
  0018a	32 d3		 xor	 dl, bl
  0018c	88 55 f7	 mov	 BYTE PTR __k$[ebp+23], dl
  0018f	8a 50 18	 mov	 dl, BYTE PTR [eax+24]
  00192	84 d2		 test	 dl, dl
  00194	74 20		 je	 SHORT $LN72@LoadFloat_@4
  00196	8a 40 19	 mov	 al, BYTE PTR [eax+25]
  00199	80 f2 ed	 xor	 dl, -19			; ffffffedH
  0019c	88 55 f8	 mov	 BYTE PTR __k$[ebp+24], dl
  0019f	84 c0		 test	 al, al
  001a1	74 0a		 je	 SHORT $LN71@LoadFloat_@4
  001a3	34 ec		 xor	 al, -20			; ffffffecH
  001a5	88 45 f9	 mov	 BYTE PTR __k$[ebp+25], al
  001a8	e9 8d 00 00 00	 jmp	 $LN1@LoadFloat_@4
$LN71@LoadFloat_@4:
  001ad	c6 45 f9 ec	 mov	 BYTE PTR __k$[ebp+25], -20 ; ffffffecH
  001b1	e9 84 00 00 00	 jmp	 $LN1@LoadFloat_@4
$LN72@LoadFloat_@4:
  001b6	c6 45 f8 ed	 mov	 BYTE PTR __k$[ebp+24], -19 ; ffffffedH
  001ba	eb 7e		 jmp	 SHORT $LN1@LoadFloat_@4
$LN73@LoadFloat_@4:
  001bc	88 5d f7	 mov	 BYTE PTR __k$[ebp+23], bl
  001bf	eb 79		 jmp	 SHORT $LN1@LoadFloat_@4
$LN74@LoadFloat_@4:
  001c1	88 4d f6	 mov	 BYTE PTR __k$[ebp+22], cl
  001c4	eb 74		 jmp	 SHORT $LN1@LoadFloat_@4
$LN76@LoadFloat_@4:
  001c6	c6 45 f4 ed	 mov	 BYTE PTR __k$[ebp+20], -19 ; ffffffedH
  001ca	eb 6e		 jmp	 SHORT $LN1@LoadFloat_@4
$LN77@LoadFloat_@4:
  001cc	88 5d f3	 mov	 BYTE PTR __k$[ebp+19], bl
  001cf	eb 69		 jmp	 SHORT $LN1@LoadFloat_@4
$LN78@LoadFloat_@4:
  001d1	88 4d f2	 mov	 BYTE PTR __k$[ebp+18], cl
  001d4	eb 64		 jmp	 SHORT $LN1@LoadFloat_@4
$LN79@LoadFloat_@4:
  001d6	c6 45 f1 ec	 mov	 BYTE PTR __k$[ebp+17], -20 ; ffffffecH
  001da	eb 5e		 jmp	 SHORT $LN1@LoadFloat_@4
$LN80@LoadFloat_@4:
  001dc	c6 45 f0 ed	 mov	 BYTE PTR __k$[ebp+16], -19 ; ffffffedH
  001e0	eb 58		 jmp	 SHORT $LN1@LoadFloat_@4
$LN81@LoadFloat_@4:
  001e2	88 5d ef	 mov	 BYTE PTR __k$[ebp+15], bl
  001e5	eb 53		 jmp	 SHORT $LN1@LoadFloat_@4
$LN82@LoadFloat_@4:
  001e7	88 4d ee	 mov	 BYTE PTR __k$[ebp+14], cl
  001ea	eb 4e		 jmp	 SHORT $LN1@LoadFloat_@4
$LN83@LoadFloat_@4:
  001ec	c6 45 ed ec	 mov	 BYTE PTR __k$[ebp+13], -20 ; ffffffecH
  001f0	eb 48		 jmp	 SHORT $LN1@LoadFloat_@4
$LN84@LoadFloat_@4:
  001f2	c6 45 ec ed	 mov	 BYTE PTR __k$[ebp+12], -19 ; ffffffedH
  001f6	eb 42		 jmp	 SHORT $LN1@LoadFloat_@4
$LN85@LoadFloat_@4:
  001f8	88 5d eb	 mov	 BYTE PTR __k$[ebp+11], bl
  001fb	eb 3d		 jmp	 SHORT $LN1@LoadFloat_@4
$LN86@LoadFloat_@4:
  001fd	88 4d ea	 mov	 BYTE PTR __k$[ebp+10], cl
  00200	eb 38		 jmp	 SHORT $LN1@LoadFloat_@4
$LN87@LoadFloat_@4:
  00202	c6 45 e9 ec	 mov	 BYTE PTR __k$[ebp+9], -20 ; ffffffecH
  00206	eb 32		 jmp	 SHORT $LN1@LoadFloat_@4
$LN88@LoadFloat_@4:
  00208	c6 45 e8 ed	 mov	 BYTE PTR __k$[ebp+8], -19 ; ffffffedH
  0020c	eb 2c		 jmp	 SHORT $LN1@LoadFloat_@4
$LN89@LoadFloat_@4:
  0020e	88 5d e7	 mov	 BYTE PTR __k$[ebp+7], bl
  00211	eb 27		 jmp	 SHORT $LN1@LoadFloat_@4
$LN90@LoadFloat_@4:
  00213	88 4d e6	 mov	 BYTE PTR __k$[ebp+6], cl
  00216	eb 22		 jmp	 SHORT $LN1@LoadFloat_@4
$LN91@LoadFloat_@4:
  00218	c6 45 e5 ec	 mov	 BYTE PTR __k$[ebp+5], -20 ; ffffffecH
  0021c	eb 1c		 jmp	 SHORT $LN1@LoadFloat_@4
$LN92@LoadFloat_@4:
  0021e	c6 45 e4 ed	 mov	 BYTE PTR __k$[ebp+4], -19 ; ffffffedH
  00222	eb 16		 jmp	 SHORT $LN1@LoadFloat_@4
$LN93@LoadFloat_@4:
  00224	c6 45 e3 ea	 mov	 BYTE PTR __k$[ebp+3], -22 ; ffffffeaH
  00228	eb 10		 jmp	 SHORT $LN1@LoadFloat_@4
$LN94@LoadFloat_@4:
  0022a	c6 45 e2 eb	 mov	 BYTE PTR __k$[ebp+2], -21 ; ffffffebH
  0022e	eb 0a		 jmp	 SHORT $LN1@LoadFloat_@4
$LN95@LoadFloat_@4:
  00230	c6 45 e1 ec	 mov	 BYTE PTR __k$[ebp+1], -20 ; ffffffecH
  00234	eb 04		 jmp	 SHORT $LN1@LoadFloat_@4
$LN96@LoadFloat_@4:
  00236	c6 45 e0 ed	 mov	 BYTE PTR __k$[ebp], -19	; ffffffedH
$LN1@LoadFloat_@4:
  0023a	6a 05		 push	 5
  0023c	8d 45 e0	 lea	 eax, DWORD PTR __k$[ebp]
  0023f	c6 45 f5 00	 mov	 BYTE PTR __k$[ebp+21], 0
  00243	5a		 pop	 edx
$LL104@LoadFloat_@4:
  00244	81 30 ed ec eb
	ea		 xor	 DWORD PTR [eax], -353637139 ; eaebecedH
  0024a	83 c0 04	 add	 eax, 4
  0024d	4a		 dec	 edx
  0024e	75 f4		 jne	 SHORT $LL104@LoadFloat_@4

; 137  : 		return LoadFloat(_k, f);

  00250	f3 0f 10 45 0c	 movss	 xmm0, DWORD PTR _f$[ebp]
  00255	80 75 f4 ed	 xor	 BYTE PTR __k$[ebp+20], -19 ; ffffffedH
  00259	51		 push	 ecx
  0025a	8d 45 e0	 lea	 eax, DWORD PTR __k$[ebp]
  0025d	f3 0f 11 04 24	 movss	 DWORD PTR [esp], xmm0
  00262	50		 push	 eax
  00263	8b ce		 mov	 ecx, esi
  00265	ff 15 00 00 00
	00		 call	 DWORD PTR __imp_?LoadFloat@ioINILoader@@QAEMPBDM@Z

; 138  : 	}

  0026b	8b 4d fc	 mov	 ecx, DWORD PTR __$ArrayPad$[ebp]
  0026e	5e		 pop	 esi
  0026f	33 cd		 xor	 ecx, ebp
  00271	5b		 pop	 ebx
  00272	e8 00 00 00 00	 call	 @__security_check_cookie@4
  00277	c9		 leave
  00278	c2 08 00	 ret	 8
??$LoadFloat_e@$0BG@@ioINILoader@@QAEMAAY0BG@$$CBDM@Z ENDP ; ioINILoader::LoadFloat_e<22>
_TEXT	ENDS
PUBLIC	__$ArrayPad$
PUBLIC	??$LoadInt_e@$0BE@@ioINILoader@@QAEHAAY0BE@$$CBDH@Z ; ioINILoader::LoadInt_e<20>
EXTRN	__imp_?LoadInt@ioINILoader@@QAEHPBDH@Z:PROC
; Function compile flags: /Ogsp
;	COMDAT ??$LoadInt_e@$0BE@@ioINILoader@@QAEHAAY0BE@$$CBDH@Z
_TEXT	SEGMENT
__k$ = -28						; size = 20
__$ArrayPad$ = -4					; size = 4
_k$ = 8							; size = 4
_i$ = 12						; size = 4
??$LoadInt_e@$0BE@@ioINILoader@@QAEHAAY0BE@$$CBDH@Z PROC ; ioINILoader::LoadInt_e<20>, COMDAT
; _this$ = ecx

; 118  : 	{

  00000	55		 push	 ebp
  00001	8b ec		 mov	 ebp, esp
  00003	83 ec 1c	 sub	 esp, 28			; 0000001cH
  00006	a1 00 00 00 00	 mov	 eax, DWORD PTR ___security_cookie
  0000b	33 c5		 xor	 eax, ebp
  0000d	89 45 fc	 mov	 DWORD PTR __$ArrayPad$[ebp], eax
  00010	8b 45 08	 mov	 eax, DWORD PTR _k$[ebp]

; 119  : 		_ENCSTR(k, _k);

  00013	8a 10		 mov	 dl, BYTE PTR [eax]
  00015	53		 push	 ebx
  00016	56		 push	 esi
  00017	8b f1		 mov	 esi, ecx
  00019	84 d2		 test	 dl, dl
  0001b	0f 84 dd 01 00
	00		 je	 $LN96@LoadInt_e
  00021	80 f2 ed	 xor	 dl, -19			; ffffffedH
  00024	88 55 e4	 mov	 BYTE PTR __k$[ebp], dl
  00027	8a 50 01	 mov	 dl, BYTE PTR [eax+1]
  0002a	84 d2		 test	 dl, dl
  0002c	0f 84 c6 01 00
	00		 je	 $LN95@LoadInt_e
  00032	b3 ec		 mov	 bl, -20			; ffffffecH
  00034	32 d3		 xor	 dl, bl
  00036	88 55 e5	 mov	 BYTE PTR __k$[ebp+1], dl
  00039	8a 50 02	 mov	 dl, BYTE PTR [eax+2]
  0003c	84 d2		 test	 dl, dl
  0003e	0f 84 ae 01 00
	00		 je	 $LN94@LoadInt_e
  00044	b1 eb		 mov	 cl, -21			; ffffffebH
  00046	32 d1		 xor	 dl, cl
  00048	88 55 e6	 mov	 BYTE PTR __k$[ebp+2], dl
  0004b	8a 50 03	 mov	 dl, BYTE PTR [eax+3]
  0004e	84 d2		 test	 dl, dl
  00050	0f 84 96 01 00
	00		 je	 $LN93@LoadInt_e
  00056	80 f2 ea	 xor	 dl, -22			; ffffffeaH
  00059	88 55 e7	 mov	 BYTE PTR __k$[ebp+3], dl
  0005c	8a 50 04	 mov	 dl, BYTE PTR [eax+4]
  0005f	84 d2		 test	 dl, dl
  00061	0f 84 7f 01 00
	00		 je	 $LN92@LoadInt_e
  00067	80 f2 ed	 xor	 dl, -19			; ffffffedH
  0006a	88 55 e8	 mov	 BYTE PTR __k$[ebp+4], dl
  0006d	8a 50 05	 mov	 dl, BYTE PTR [eax+5]
  00070	84 d2		 test	 dl, dl
  00072	0f 84 69 01 00
	00		 je	 $LN91@LoadInt_e
  00078	32 d3		 xor	 dl, bl
  0007a	88 55 e9	 mov	 BYTE PTR __k$[ebp+5], dl
  0007d	8a 50 06	 mov	 dl, BYTE PTR [eax+6]
  00080	84 d2		 test	 dl, dl
  00082	0f 84 54 01 00
	00		 je	 $LN90@LoadInt_e
  00088	32 d1		 xor	 dl, cl
  0008a	88 55 ea	 mov	 BYTE PTR __k$[ebp+6], dl
  0008d	8a 50 07	 mov	 dl, BYTE PTR [eax+7]
  00090	84 d2		 test	 dl, dl
  00092	0f 84 3e 01 00
	00		 je	 $LN89@LoadInt_e
  00098	80 f2 ea	 xor	 dl, -22			; ffffffeaH
  0009b	88 55 eb	 mov	 BYTE PTR __k$[ebp+7], dl
  0009e	8a 50 08	 mov	 dl, BYTE PTR [eax+8]
  000a1	84 d2		 test	 dl, dl
  000a3	0f 84 27 01 00
	00		 je	 $LN88@LoadInt_e
  000a9	80 f2 ed	 xor	 dl, -19			; ffffffedH
  000ac	88 55 ec	 mov	 BYTE PTR __k$[ebp+8], dl
  000af	8a 50 09	 mov	 dl, BYTE PTR [eax+9]
  000b2	84 d2		 test	 dl, dl
  000b4	0f 84 11 01 00
	00		 je	 $LN87@LoadInt_e
  000ba	32 d3		 xor	 dl, bl
  000bc	88 55 ed	 mov	 BYTE PTR __k$[ebp+9], dl
  000bf	8a 50 0a	 mov	 dl, BYTE PTR [eax+10]
  000c2	84 d2		 test	 dl, dl
  000c4	0f 84 fc 00 00
	00		 je	 $LN86@LoadInt_e
  000ca	32 d1		 xor	 dl, cl
  000cc	88 55 ee	 mov	 BYTE PTR __k$[ebp+10], dl
  000cf	8a 50 0b	 mov	 dl, BYTE PTR [eax+11]
  000d2	84 d2		 test	 dl, dl
  000d4	0f 84 e6 00 00
	00		 je	 $LN85@LoadInt_e
  000da	80 f2 ea	 xor	 dl, -22			; ffffffeaH
  000dd	88 55 ef	 mov	 BYTE PTR __k$[ebp+11], dl
  000e0	8a 50 0c	 mov	 dl, BYTE PTR [eax+12]
  000e3	84 d2		 test	 dl, dl
  000e5	0f 84 cf 00 00
	00		 je	 $LN84@LoadInt_e
  000eb	80 f2 ed	 xor	 dl, -19			; ffffffedH
  000ee	88 55 f0	 mov	 BYTE PTR __k$[ebp+12], dl
  000f1	8a 50 0d	 mov	 dl, BYTE PTR [eax+13]
  000f4	84 d2		 test	 dl, dl
  000f6	0f 84 b9 00 00
	00		 je	 $LN83@LoadInt_e
  000fc	32 d3		 xor	 dl, bl
  000fe	88 55 f1	 mov	 BYTE PTR __k$[ebp+13], dl
  00101	8a 50 0e	 mov	 dl, BYTE PTR [eax+14]
  00104	84 d2		 test	 dl, dl
  00106	0f 84 a4 00 00
	00		 je	 $LN82@LoadInt_e
  0010c	32 d1		 xor	 dl, cl
  0010e	88 55 f2	 mov	 BYTE PTR __k$[ebp+14], dl
  00111	8a 50 0f	 mov	 dl, BYTE PTR [eax+15]
  00114	84 d2		 test	 dl, dl
  00116	0f 84 8e 00 00
	00		 je	 $LN81@LoadInt_e
  0011c	80 f2 ea	 xor	 dl, -22			; ffffffeaH
  0011f	88 55 f3	 mov	 BYTE PTR __k$[ebp+15], dl
  00122	8a 50 10	 mov	 dl, BYTE PTR [eax+16]
  00125	84 d2		 test	 dl, dl
  00127	74 7b		 je	 SHORT $LN80@LoadInt_e
  00129	80 f2 ed	 xor	 dl, -19			; ffffffedH
  0012c	88 55 f4	 mov	 BYTE PTR __k$[ebp+16], dl
  0012f	8a 50 11	 mov	 dl, BYTE PTR [eax+17]
  00132	84 d2		 test	 dl, dl
  00134	74 69		 je	 SHORT $LN79@LoadInt_e
  00136	32 d3		 xor	 dl, bl
  00138	88 55 f5	 mov	 BYTE PTR __k$[ebp+17], dl
  0013b	8a 50 12	 mov	 dl, BYTE PTR [eax+18]
  0013e	84 d2		 test	 dl, dl
  00140	74 58		 je	 SHORT $LN78@LoadInt_e
  00142	32 d1		 xor	 dl, cl
  00144	80 78 13 00	 cmp	 BYTE PTR [eax+19], 0
  00148	88 55 f6	 mov	 BYTE PTR __k$[ebp+18], dl
  0014b	0f 84 b1 00 00
	00		 je	 $LN1@LoadInt_e
  00151	8a 50 14	 mov	 dl, BYTE PTR [eax+20]
  00154	84 d2		 test	 dl, dl
  00156	74 3c		 je	 SHORT $LN76@LoadInt_e
  00158	80 f2 ed	 xor	 dl, -19			; ffffffedH
  0015b	88 55 f8	 mov	 BYTE PTR __k$[ebp+20], dl
  0015e	8a 50 15	 mov	 dl, BYTE PTR [eax+21]
  00161	84 d2		 test	 dl, dl
  00163	74 2a		 je	 SHORT $LN75@LoadInt_e
  00165	32 d3		 xor	 dl, bl
  00167	88 55 f9	 mov	 BYTE PTR __k$[ebp+21], dl
  0016a	8a 50 16	 mov	 dl, BYTE PTR [eax+22]
  0016d	84 d2		 test	 dl, dl
  0016f	74 19		 je	 SHORT $LN74@LoadInt_e
  00171	8a 40 17	 mov	 al, BYTE PTR [eax+23]
  00174	32 d1		 xor	 dl, cl
  00176	88 55 fa	 mov	 BYTE PTR __k$[ebp+22], dl
  00179	84 c0		 test	 al, al
  0017b	74 07		 je	 SHORT $LN73@LoadInt_e
  0017d	34 ea		 xor	 al, -22			; ffffffeaH
  0017f	88 45 fb	 mov	 BYTE PTR __k$[ebp+23], al
  00182	eb 7e		 jmp	 SHORT $LN1@LoadInt_e
$LN73@LoadInt_e:
  00184	c6 45 fb ea	 mov	 BYTE PTR __k$[ebp+23], -22 ; ffffffeaH
  00188	eb 78		 jmp	 SHORT $LN1@LoadInt_e
$LN74@LoadInt_e:
  0018a	88 4d fa	 mov	 BYTE PTR __k$[ebp+22], cl
  0018d	eb 73		 jmp	 SHORT $LN1@LoadInt_e
$LN75@LoadInt_e:
  0018f	88 5d f9	 mov	 BYTE PTR __k$[ebp+21], bl
  00192	eb 6e		 jmp	 SHORT $LN1@LoadInt_e
$LN76@LoadInt_e:
  00194	c6 45 f8 ed	 mov	 BYTE PTR __k$[ebp+20], -19 ; ffffffedH
  00198	eb 68		 jmp	 SHORT $LN1@LoadInt_e
$LN78@LoadInt_e:
  0019a	88 4d f6	 mov	 BYTE PTR __k$[ebp+18], cl
  0019d	eb 63		 jmp	 SHORT $LN1@LoadInt_e
$LN79@LoadInt_e:
  0019f	88 5d f5	 mov	 BYTE PTR __k$[ebp+17], bl
  001a2	eb 5e		 jmp	 SHORT $LN1@LoadInt_e
$LN80@LoadInt_e:
  001a4	c6 45 f4 ed	 mov	 BYTE PTR __k$[ebp+16], -19 ; ffffffedH
  001a8	eb 58		 jmp	 SHORT $LN1@LoadInt_e
$LN81@LoadInt_e:
  001aa	c6 45 f3 ea	 mov	 BYTE PTR __k$[ebp+15], -22 ; ffffffeaH
  001ae	eb 52		 jmp	 SHORT $LN1@LoadInt_e
$LN82@LoadInt_e:
  001b0	88 4d f2	 mov	 BYTE PTR __k$[ebp+14], cl
  001b3	eb 4d		 jmp	 SHORT $LN1@LoadInt_e
$LN83@LoadInt_e:
  001b5	88 5d f1	 mov	 BYTE PTR __k$[ebp+13], bl
  001b8	eb 48		 jmp	 SHORT $LN1@LoadInt_e
$LN84@LoadInt_e:
  001ba	c6 45 f0 ed	 mov	 BYTE PTR __k$[ebp+12], -19 ; ffffffedH
  001be	eb 42		 jmp	 SHORT $LN1@LoadInt_e
$LN85@LoadInt_e:
  001c0	c6 45 ef ea	 mov	 BYTE PTR __k$[ebp+11], -22 ; ffffffeaH
  001c4	eb 3c		 jmp	 SHORT $LN1@LoadInt_e
$LN86@LoadInt_e:
  001c6	88 4d ee	 mov	 BYTE PTR __k$[ebp+10], cl
  001c9	eb 37		 jmp	 SHORT $LN1@LoadInt_e
$LN87@LoadInt_e:
  001cb	88 5d ed	 mov	 BYTE PTR __k$[ebp+9], bl
  001ce	eb 32		 jmp	 SHORT $LN1@LoadInt_e
$LN88@LoadInt_e:
  001d0	c6 45 ec ed	 mov	 BYTE PTR __k$[ebp+8], -19 ; ffffffedH
  001d4	eb 2c		 jmp	 SHORT $LN1@LoadInt_e
$LN89@LoadInt_e:
  001d6	c6 45 eb ea	 mov	 BYTE PTR __k$[ebp+7], -22 ; ffffffeaH
  001da	eb 26		 jmp	 SHORT $LN1@LoadInt_e
$LN90@LoadInt_e:
  001dc	88 4d ea	 mov	 BYTE PTR __k$[ebp+6], cl
  001df	eb 21		 jmp	 SHORT $LN1@LoadInt_e
$LN91@LoadInt_e:
  001e1	88 5d e9	 mov	 BYTE PTR __k$[ebp+5], bl
  001e4	eb 1c		 jmp	 SHORT $LN1@LoadInt_e
$LN92@LoadInt_e:
  001e6	c6 45 e8 ed	 mov	 BYTE PTR __k$[ebp+4], -19 ; ffffffedH
  001ea	eb 16		 jmp	 SHORT $LN1@LoadInt_e
$LN93@LoadInt_e:
  001ec	c6 45 e7 ea	 mov	 BYTE PTR __k$[ebp+3], -22 ; ffffffeaH
  001f0	eb 10		 jmp	 SHORT $LN1@LoadInt_e
$LN94@LoadInt_e:
  001f2	c6 45 e6 eb	 mov	 BYTE PTR __k$[ebp+2], -21 ; ffffffebH
  001f6	eb 0a		 jmp	 SHORT $LN1@LoadInt_e
$LN95@LoadInt_e:
  001f8	c6 45 e5 ec	 mov	 BYTE PTR __k$[ebp+1], -20 ; ffffffecH
  001fc	eb 04		 jmp	 SHORT $LN1@LoadInt_e
$LN96@LoadInt_e:
  001fe	c6 45 e4 ed	 mov	 BYTE PTR __k$[ebp], -19	; ffffffedH
$LN1@LoadInt_e:
  00202	6a 04		 push	 4
  00204	8d 45 e4	 lea	 eax, DWORD PTR __k$[ebp]
  00207	c6 45 f7 00	 mov	 BYTE PTR __k$[ebp+19], 0
  0020b	5a		 pop	 edx
$LL104@LoadInt_e:
  0020c	81 30 ed ec eb
	ea		 xor	 DWORD PTR [eax], -353637139 ; eaebecedH
  00212	83 c0 04	 add	 eax, 4
  00215	4a		 dec	 edx
  00216	75 f4		 jne	 SHORT $LL104@LoadInt_e
  00218	6a 10		 push	 16			; 00000010H
  0021a	58		 pop	 eax
$LL101@LoadInt_e:
  0021b	8b c8		 mov	 ecx, eax
  0021d	81 e1 03 00 00
	80		 and	 ecx, -2147483645	; 80000003H
  00223	79 05		 jns	 SHORT $LN111@LoadInt_e
  00225	49		 dec	 ecx
  00226	83 c9 fc	 or	 ecx, -4			; fffffffcH
  00229	41		 inc	 ecx
$LN111@LoadInt_e:
  0022a	b2 ed		 mov	 dl, -19			; ffffffedH
  0022c	2a d1		 sub	 dl, cl
  0022e	30 54 05 e4	 xor	 BYTE PTR __k$[ebp+eax], dl
  00232	40		 inc	 eax
  00233	83 f8 13	 cmp	 eax, 19			; 00000013H
  00236	7c e3		 jl	 SHORT $LL101@LoadInt_e

; 120  : 		return LoadInt(_k, i);

  00238	ff 75 0c	 push	 DWORD PTR _i$[ebp]
  0023b	8d 45 e4	 lea	 eax, DWORD PTR __k$[ebp]
  0023e	50		 push	 eax
  0023f	8b ce		 mov	 ecx, esi
  00241	ff 15 00 00 00
	00		 call	 DWORD PTR __imp_?LoadInt@ioINILoader@@QAEHPBDH@Z

; 121  : 	}

  00247	8b 4d fc	 mov	 ecx, DWORD PTR __$ArrayPad$[ebp]
  0024a	5e		 pop	 esi
  0024b	33 cd		 xor	 ecx, ebp
  0024d	5b		 pop	 ebx
  0024e	e8 00 00 00 00	 call	 @__security_check_cookie@4
  00253	c9		 leave
  00254	c2 08 00	 ret	 8
??$LoadInt_e@$0BE@@ioINILoader@@QAEHAAY0BE@$$CBDH@Z ENDP ; ioINILoader::LoadInt_e<20>
_TEXT	ENDS
PUBLIC	__$ArrayPad$
PUBLIC	??$LoadInt_e@$0BB@@ioINILoader@@QAEHAAY0BB@$$CBDH@Z ; ioINILoader::LoadInt_e<17>
; Function compile flags: /Ogsp
;	COMDAT ??$LoadInt_e@$0BB@@ioINILoader@@QAEHAAY0BB@$$CBDH@Z
_TEXT	SEGMENT
__k$ = -28						; size = 17
__$ArrayPad$ = -4					; size = 4
_k$ = 8							; size = 4
_i$ = 12						; size = 4
??$LoadInt_e@$0BB@@ioINILoader@@QAEHAAY0BB@$$CBDH@Z PROC ; ioINILoader::LoadInt_e<17>, COMDAT
; _this$ = ecx

; 118  : 	{

  00000	55		 push	 ebp
  00001	8b ec		 mov	 ebp, esp
  00003	83 ec 1c	 sub	 esp, 28			; 0000001cH
  00006	a1 00 00 00 00	 mov	 eax, DWORD PTR ___security_cookie
  0000b	33 c5		 xor	 eax, ebp
  0000d	89 45 fc	 mov	 DWORD PTR __$ArrayPad$[ebp], eax
  00010	8b 45 08	 mov	 eax, DWORD PTR _k$[ebp]

; 119  : 		_ENCSTR(k, _k);

  00013	8a 10		 mov	 dl, BYTE PTR [eax]
  00015	56		 push	 esi
  00016	8b f1		 mov	 esi, ecx
  00018	84 d2		 test	 dl, dl
  0001a	0f 84 a7 01 00
	00		 je	 $LN96@LoadInt_e@2
  00020	80 f2 ed	 xor	 dl, -19			; ffffffedH
  00023	88 55 e4	 mov	 BYTE PTR __k$[ebp], dl
  00026	8a 50 01	 mov	 dl, BYTE PTR [eax+1]
  00029	84 d2		 test	 dl, dl
  0002b	0f 84 90 01 00
	00		 je	 $LN95@LoadInt_e@2
  00031	b1 ec		 mov	 cl, -20			; ffffffecH
  00033	32 d1		 xor	 dl, cl
  00035	88 55 e5	 mov	 BYTE PTR __k$[ebp+1], dl
  00038	8a 50 02	 mov	 dl, BYTE PTR [eax+2]
  0003b	84 d2		 test	 dl, dl
  0003d	0f 84 78 01 00
	00		 je	 $LN94@LoadInt_e@2
  00043	80 f2 eb	 xor	 dl, -21			; ffffffebH
  00046	88 55 e6	 mov	 BYTE PTR __k$[ebp+2], dl
  00049	8a 50 03	 mov	 dl, BYTE PTR [eax+3]
  0004c	84 d2		 test	 dl, dl
  0004e	0f 84 61 01 00
	00		 je	 $LN93@LoadInt_e@2
  00054	80 f2 ea	 xor	 dl, -22			; ffffffeaH
  00057	88 55 e7	 mov	 BYTE PTR __k$[ebp+3], dl
  0005a	8a 50 04	 mov	 dl, BYTE PTR [eax+4]
  0005d	84 d2		 test	 dl, dl
  0005f	0f 84 4a 01 00
	00		 je	 $LN92@LoadInt_e@2
  00065	80 f2 ed	 xor	 dl, -19			; ffffffedH
  00068	88 55 e8	 mov	 BYTE PTR __k$[ebp+4], dl
  0006b	8a 50 05	 mov	 dl, BYTE PTR [eax+5]
  0006e	84 d2		 test	 dl, dl
  00070	0f 84 34 01 00
	00		 je	 $LN91@LoadInt_e@2
  00076	32 d1		 xor	 dl, cl
  00078	88 55 e9	 mov	 BYTE PTR __k$[ebp+5], dl
  0007b	8a 50 06	 mov	 dl, BYTE PTR [eax+6]
  0007e	84 d2		 test	 dl, dl
  00080	0f 84 1e 01 00
	00		 je	 $LN90@LoadInt_e@2
  00086	80 f2 eb	 xor	 dl, -21			; ffffffebH
  00089	88 55 ea	 mov	 BYTE PTR __k$[ebp+6], dl
  0008c	8a 50 07	 mov	 dl, BYTE PTR [eax+7]
  0008f	84 d2		 test	 dl, dl
  00091	0f 84 07 01 00
	00		 je	 $LN89@LoadInt_e@2
  00097	80 f2 ea	 xor	 dl, -22			; ffffffeaH
  0009a	88 55 eb	 mov	 BYTE PTR __k$[ebp+7], dl
  0009d	8a 50 08	 mov	 dl, BYTE PTR [eax+8]
  000a0	84 d2		 test	 dl, dl
  000a2	0f 84 f0 00 00
	00		 je	 $LN88@LoadInt_e@2
  000a8	80 f2 ed	 xor	 dl, -19			; ffffffedH
  000ab	88 55 ec	 mov	 BYTE PTR __k$[ebp+8], dl
  000ae	8a 50 09	 mov	 dl, BYTE PTR [eax+9]
  000b1	84 d2		 test	 dl, dl
  000b3	0f 84 da 00 00
	00		 je	 $LN87@LoadInt_e@2
  000b9	32 d1		 xor	 dl, cl
  000bb	88 55 ed	 mov	 BYTE PTR __k$[ebp+9], dl
  000be	8a 50 0a	 mov	 dl, BYTE PTR [eax+10]
  000c1	84 d2		 test	 dl, dl
  000c3	0f 84 c4 00 00
	00		 je	 $LN86@LoadInt_e@2
  000c9	80 f2 eb	 xor	 dl, -21			; ffffffebH
  000cc	88 55 ee	 mov	 BYTE PTR __k$[ebp+10], dl
  000cf	8a 50 0b	 mov	 dl, BYTE PTR [eax+11]
  000d2	84 d2		 test	 dl, dl
  000d4	0f 84 ad 00 00
	00		 je	 $LN85@LoadInt_e@2
  000da	80 f2 ea	 xor	 dl, -22			; ffffffeaH
  000dd	88 55 ef	 mov	 BYTE PTR __k$[ebp+11], dl
  000e0	8a 50 0c	 mov	 dl, BYTE PTR [eax+12]
  000e3	84 d2		 test	 dl, dl
  000e5	0f 84 96 00 00
	00		 je	 $LN84@LoadInt_e@2
  000eb	80 f2 ed	 xor	 dl, -19			; ffffffedH
  000ee	88 55 f0	 mov	 BYTE PTR __k$[ebp+12], dl
  000f1	8a 50 0d	 mov	 dl, BYTE PTR [eax+13]
  000f4	84 d2		 test	 dl, dl
  000f6	0f 84 80 00 00
	00		 je	 $LN83@LoadInt_e@2
  000fc	32 d1		 xor	 dl, cl
  000fe	88 55 f1	 mov	 BYTE PTR __k$[ebp+13], dl
  00101	8a 50 0e	 mov	 dl, BYTE PTR [eax+14]
  00104	84 d2		 test	 dl, dl
  00106	74 6e		 je	 SHORT $LN82@LoadInt_e@2
  00108	80 f2 eb	 xor	 dl, -21			; ffffffebH
  0010b	88 55 f2	 mov	 BYTE PTR __k$[ebp+14], dl
  0010e	8a 50 0f	 mov	 dl, BYTE PTR [eax+15]
  00111	84 d2		 test	 dl, dl
  00113	74 5b		 je	 SHORT $LN81@LoadInt_e@2
  00115	80 f2 ea	 xor	 dl, -22			; ffffffeaH
  00118	80 78 10 00	 cmp	 BYTE PTR [eax+16], 0
  0011c	88 55 f3	 mov	 BYTE PTR __k$[ebp+15], dl
  0011f	0f 84 a6 00 00
	00		 je	 $LN1@LoadInt_e@2
  00125	8a 50 11	 mov	 dl, BYTE PTR [eax+17]
  00128	84 d2		 test	 dl, dl
  0012a	74 3f		 je	 SHORT $LN79@LoadInt_e@2
  0012c	32 d1		 xor	 dl, cl
  0012e	88 55 f5	 mov	 BYTE PTR __k$[ebp+17], dl
  00131	8a 50 12	 mov	 dl, BYTE PTR [eax+18]
  00134	84 d2		 test	 dl, dl
  00136	74 2d		 je	 SHORT $LN78@LoadInt_e@2
  00138	80 f2 eb	 xor	 dl, -21			; ffffffebH
  0013b	88 55 f6	 mov	 BYTE PTR __k$[ebp+18], dl
  0013e	8a 50 13	 mov	 dl, BYTE PTR [eax+19]
  00141	84 d2		 test	 dl, dl
  00143	74 1a		 je	 SHORT $LN77@LoadInt_e@2
  00145	8a 40 14	 mov	 al, BYTE PTR [eax+20]
  00148	80 f2 ea	 xor	 dl, -22			; ffffffeaH
  0014b	88 55 f7	 mov	 BYTE PTR __k$[ebp+19], dl
  0014e	84 c0		 test	 al, al
  00150	74 07		 je	 SHORT $LN76@LoadInt_e@2
  00152	34 ed		 xor	 al, -19			; ffffffedH
  00154	88 45 f8	 mov	 BYTE PTR __k$[ebp+20], al
  00157	eb 72		 jmp	 SHORT $LN1@LoadInt_e@2
$LN76@LoadInt_e@2:
  00159	c6 45 f8 ed	 mov	 BYTE PTR __k$[ebp+20], -19 ; ffffffedH
  0015d	eb 6c		 jmp	 SHORT $LN1@LoadInt_e@2
$LN77@LoadInt_e@2:
  0015f	c6 45 f7 ea	 mov	 BYTE PTR __k$[ebp+19], -22 ; ffffffeaH
  00163	eb 66		 jmp	 SHORT $LN1@LoadInt_e@2
$LN78@LoadInt_e@2:
  00165	c6 45 f6 eb	 mov	 BYTE PTR __k$[ebp+18], -21 ; ffffffebH
  00169	eb 60		 jmp	 SHORT $LN1@LoadInt_e@2
$LN79@LoadInt_e@2:
  0016b	88 4d f5	 mov	 BYTE PTR __k$[ebp+17], cl
  0016e	eb 5b		 jmp	 SHORT $LN1@LoadInt_e@2
$LN81@LoadInt_e@2:
  00170	c6 45 f3 ea	 mov	 BYTE PTR __k$[ebp+15], -22 ; ffffffeaH
  00174	eb 55		 jmp	 SHORT $LN1@LoadInt_e@2
$LN82@LoadInt_e@2:
  00176	c6 45 f2 eb	 mov	 BYTE PTR __k$[ebp+14], -21 ; ffffffebH
  0017a	eb 4f		 jmp	 SHORT $LN1@LoadInt_e@2
$LN83@LoadInt_e@2:
  0017c	88 4d f1	 mov	 BYTE PTR __k$[ebp+13], cl
  0017f	eb 4a		 jmp	 SHORT $LN1@LoadInt_e@2
$LN84@LoadInt_e@2:
  00181	c6 45 f0 ed	 mov	 BYTE PTR __k$[ebp+12], -19 ; ffffffedH
  00185	eb 44		 jmp	 SHORT $LN1@LoadInt_e@2
$LN85@LoadInt_e@2:
  00187	c6 45 ef ea	 mov	 BYTE PTR __k$[ebp+11], -22 ; ffffffeaH
  0018b	eb 3e		 jmp	 SHORT $LN1@LoadInt_e@2
$LN86@LoadInt_e@2:
  0018d	c6 45 ee eb	 mov	 BYTE PTR __k$[ebp+10], -21 ; ffffffebH
  00191	eb 38		 jmp	 SHORT $LN1@LoadInt_e@2
$LN87@LoadInt_e@2:
  00193	88 4d ed	 mov	 BYTE PTR __k$[ebp+9], cl
  00196	eb 33		 jmp	 SHORT $LN1@LoadInt_e@2
$LN88@LoadInt_e@2:
  00198	c6 45 ec ed	 mov	 BYTE PTR __k$[ebp+8], -19 ; ffffffedH
  0019c	eb 2d		 jmp	 SHORT $LN1@LoadInt_e@2
$LN89@LoadInt_e@2:
  0019e	c6 45 eb ea	 mov	 BYTE PTR __k$[ebp+7], -22 ; ffffffeaH
  001a2	eb 27		 jmp	 SHORT $LN1@LoadInt_e@2
$LN90@LoadInt_e@2:
  001a4	c6 45 ea eb	 mov	 BYTE PTR __k$[ebp+6], -21 ; ffffffebH
  001a8	eb 21		 jmp	 SHORT $LN1@LoadInt_e@2
$LN91@LoadInt_e@2:
  001aa	88 4d e9	 mov	 BYTE PTR __k$[ebp+5], cl
  001ad	eb 1c		 jmp	 SHORT $LN1@LoadInt_e@2
$LN92@LoadInt_e@2:
  001af	c6 45 e8 ed	 mov	 BYTE PTR __k$[ebp+4], -19 ; ffffffedH
  001b3	eb 16		 jmp	 SHORT $LN1@LoadInt_e@2
$LN93@LoadInt_e@2:
  001b5	c6 45 e7 ea	 mov	 BYTE PTR __k$[ebp+3], -22 ; ffffffeaH
  001b9	eb 10		 jmp	 SHORT $LN1@LoadInt_e@2
$LN94@LoadInt_e@2:
  001bb	c6 45 e6 eb	 mov	 BYTE PTR __k$[ebp+2], -21 ; ffffffebH
  001bf	eb 0a		 jmp	 SHORT $LN1@LoadInt_e@2
$LN95@LoadInt_e@2:
  001c1	c6 45 e5 ec	 mov	 BYTE PTR __k$[ebp+1], -20 ; ffffffecH
  001c5	eb 04		 jmp	 SHORT $LN1@LoadInt_e@2
$LN96@LoadInt_e@2:
  001c7	c6 45 e4 ed	 mov	 BYTE PTR __k$[ebp], -19	; ffffffedH
$LN1@LoadInt_e@2:
  001cb	6a 04		 push	 4
  001cd	8d 45 e4	 lea	 eax, DWORD PTR __k$[ebp]
  001d0	c6 45 f4 00	 mov	 BYTE PTR __k$[ebp+16], 0
  001d4	5a		 pop	 edx
$LL104@LoadInt_e@2:
  001d5	81 30 ed ec eb
	ea		 xor	 DWORD PTR [eax], -353637139 ; eaebecedH
  001db	83 c0 04	 add	 eax, 4
  001de	4a		 dec	 edx
  001df	75 f4		 jne	 SHORT $LL104@LoadInt_e@2

; 120  : 		return LoadInt(_k, i);

  001e1	ff 75 0c	 push	 DWORD PTR _i$[ebp]
  001e4	8d 45 e4	 lea	 eax, DWORD PTR __k$[ebp]
  001e7	50		 push	 eax
  001e8	8b ce		 mov	 ecx, esi
  001ea	ff 15 00 00 00
	00		 call	 DWORD PTR __imp_?LoadInt@ioINILoader@@QAEHPBDH@Z

; 121  : 	}

  001f0	8b 4d fc	 mov	 ecx, DWORD PTR __$ArrayPad$[ebp]
  001f3	33 cd		 xor	 ecx, ebp
  001f5	5e		 pop	 esi
  001f6	e8 00 00 00 00	 call	 @__security_check_cookie@4
  001fb	c9		 leave
  001fc	c2 08 00	 ret	 8
??$LoadInt_e@$0BB@@ioINILoader@@QAEHAAY0BB@$$CBDH@Z ENDP ; ioINILoader::LoadInt_e<17>
_TEXT	ENDS
PUBLIC	__$ArrayPad$
PUBLIC	??$LoadInt_e@$0BL@@ioINILoader@@QAEHAAY0BL@$$CBDH@Z ; ioINILoader::LoadInt_e<27>
; Function compile flags: /Ogsp
;	COMDAT ??$LoadInt_e@$0BL@@ioINILoader@@QAEHAAY0BL@$$CBDH@Z
_TEXT	SEGMENT
__k$ = -36						; size = 27
__$ArrayPad$ = -4					; size = 4
_k$ = 8							; size = 4
_i$ = 12						; size = 4
??$LoadInt_e@$0BL@@ioINILoader@@QAEHAAY0BL@$$CBDH@Z PROC ; ioINILoader::LoadInt_e<27>, COMDAT
; _this$ = ecx

; 118  : 	{

  00000	55		 push	 ebp
  00001	8b ec		 mov	 ebp, esp
  00003	83 ec 24	 sub	 esp, 36			; 00000024H
  00006	a1 00 00 00 00	 mov	 eax, DWORD PTR ___security_cookie
  0000b	33 c5		 xor	 eax, ebp
  0000d	89 45 fc	 mov	 DWORD PTR __$ArrayPad$[ebp], eax
  00010	8b 45 08	 mov	 eax, DWORD PTR _k$[ebp]

; 119  : 		_ENCSTR(k, _k);

  00013	8a 10		 mov	 dl, BYTE PTR [eax]
  00015	53		 push	 ebx
  00016	56		 push	 esi
  00017	8b f1		 mov	 esi, ecx
  00019	84 d2		 test	 dl, dl
  0001b	0f 84 91 02 00
	00		 je	 $LN96@LoadInt_e@3
  00021	80 f2 ed	 xor	 dl, -19			; ffffffedH
  00024	88 55 dc	 mov	 BYTE PTR __k$[ebp], dl
  00027	8a 50 01	 mov	 dl, BYTE PTR [eax+1]
  0002a	84 d2		 test	 dl, dl
  0002c	0f 84 7a 02 00
	00		 je	 $LN95@LoadInt_e@3
  00032	b1 ec		 mov	 cl, -20			; ffffffecH
  00034	32 d1		 xor	 dl, cl
  00036	88 55 dd	 mov	 BYTE PTR __k$[ebp+1], dl
  00039	8a 50 02	 mov	 dl, BYTE PTR [eax+2]
  0003c	84 d2		 test	 dl, dl
  0003e	0f 84 62 02 00
	00		 je	 $LN94@LoadInt_e@3
  00044	80 f2 eb	 xor	 dl, -21			; ffffffebH
  00047	88 55 de	 mov	 BYTE PTR __k$[ebp+2], dl
  0004a	8a 50 03	 mov	 dl, BYTE PTR [eax+3]
  0004d	84 d2		 test	 dl, dl
  0004f	0f 84 4b 02 00
	00		 je	 $LN93@LoadInt_e@3
  00055	b3 ea		 mov	 bl, -22			; ffffffeaH
  00057	32 d3		 xor	 dl, bl
  00059	88 55 df	 mov	 BYTE PTR __k$[ebp+3], dl
  0005c	8a 50 04	 mov	 dl, BYTE PTR [eax+4]
  0005f	84 d2		 test	 dl, dl
  00061	0f 84 33 02 00
	00		 je	 $LN92@LoadInt_e@3
  00067	80 f2 ed	 xor	 dl, -19			; ffffffedH
  0006a	88 55 e0	 mov	 BYTE PTR __k$[ebp+4], dl
  0006d	8a 50 05	 mov	 dl, BYTE PTR [eax+5]
  00070	84 d2		 test	 dl, dl
  00072	0f 84 1d 02 00
	00		 je	 $LN91@LoadInt_e@3
  00078	32 d1		 xor	 dl, cl
  0007a	88 55 e1	 mov	 BYTE PTR __k$[ebp+5], dl
  0007d	8a 50 06	 mov	 dl, BYTE PTR [eax+6]
  00080	84 d2		 test	 dl, dl
  00082	0f 84 07 02 00
	00		 je	 $LN90@LoadInt_e@3
  00088	80 f2 eb	 xor	 dl, -21			; ffffffebH
  0008b	88 55 e2	 mov	 BYTE PTR __k$[ebp+6], dl
  0008e	8a 50 07	 mov	 dl, BYTE PTR [eax+7]
  00091	84 d2		 test	 dl, dl
  00093	0f 84 f1 01 00
	00		 je	 $LN89@LoadInt_e@3
  00099	32 d3		 xor	 dl, bl
  0009b	88 55 e3	 mov	 BYTE PTR __k$[ebp+7], dl
  0009e	8a 50 08	 mov	 dl, BYTE PTR [eax+8]
  000a1	84 d2		 test	 dl, dl
  000a3	0f 84 db 01 00
	00		 je	 $LN88@LoadInt_e@3
  000a9	80 f2 ed	 xor	 dl, -19			; ffffffedH
  000ac	88 55 e4	 mov	 BYTE PTR __k$[ebp+8], dl
  000af	8a 50 09	 mov	 dl, BYTE PTR [eax+9]
  000b2	84 d2		 test	 dl, dl
  000b4	0f 84 c5 01 00
	00		 je	 $LN87@LoadInt_e@3
  000ba	32 d1		 xor	 dl, cl
  000bc	88 55 e5	 mov	 BYTE PTR __k$[ebp+9], dl
  000bf	8a 50 0a	 mov	 dl, BYTE PTR [eax+10]
  000c2	84 d2		 test	 dl, dl
  000c4	0f 84 af 01 00
	00		 je	 $LN86@LoadInt_e@3
  000ca	80 f2 eb	 xor	 dl, -21			; ffffffebH
  000cd	88 55 e6	 mov	 BYTE PTR __k$[ebp+10], dl
  000d0	8a 50 0b	 mov	 dl, BYTE PTR [eax+11]
  000d3	84 d2		 test	 dl, dl
  000d5	0f 84 99 01 00
	00		 je	 $LN85@LoadInt_e@3
  000db	32 d3		 xor	 dl, bl
  000dd	88 55 e7	 mov	 BYTE PTR __k$[ebp+11], dl
  000e0	8a 50 0c	 mov	 dl, BYTE PTR [eax+12]
  000e3	84 d2		 test	 dl, dl
  000e5	0f 84 83 01 00
	00		 je	 $LN84@LoadInt_e@3
  000eb	80 f2 ed	 xor	 dl, -19			; ffffffedH
  000ee	88 55 e8	 mov	 BYTE PTR __k$[ebp+12], dl
  000f1	8a 50 0d	 mov	 dl, BYTE PTR [eax+13]
  000f4	84 d2		 test	 dl, dl
  000f6	0f 84 6d 01 00
	00		 je	 $LN83@LoadInt_e@3
  000fc	32 d1		 xor	 dl, cl
  000fe	88 55 e9	 mov	 BYTE PTR __k$[ebp+13], dl
  00101	8a 50 0e	 mov	 dl, BYTE PTR [eax+14]
  00104	84 d2		 test	 dl, dl
  00106	0f 84 57 01 00
	00		 je	 $LN82@LoadInt_e@3
  0010c	80 f2 eb	 xor	 dl, -21			; ffffffebH
  0010f	88 55 ea	 mov	 BYTE PTR __k$[ebp+14], dl
  00112	8a 50 0f	 mov	 dl, BYTE PTR [eax+15]
  00115	84 d2		 test	 dl, dl
  00117	0f 84 41 01 00
	00		 je	 $LN81@LoadInt_e@3
  0011d	32 d3		 xor	 dl, bl
  0011f	88 55 eb	 mov	 BYTE PTR __k$[ebp+15], dl
  00122	8a 50 10	 mov	 dl, BYTE PTR [eax+16]
  00125	84 d2		 test	 dl, dl
  00127	0f 84 2b 01 00
	00		 je	 $LN80@LoadInt_e@3
  0012d	80 f2 ed	 xor	 dl, -19			; ffffffedH
  00130	88 55 ec	 mov	 BYTE PTR __k$[ebp+16], dl
  00133	8a 50 11	 mov	 dl, BYTE PTR [eax+17]
  00136	84 d2		 test	 dl, dl
  00138	0f 84 15 01 00
	00		 je	 $LN79@LoadInt_e@3
  0013e	32 d1		 xor	 dl, cl
  00140	88 55 ed	 mov	 BYTE PTR __k$[ebp+17], dl
  00143	8a 50 12	 mov	 dl, BYTE PTR [eax+18]
  00146	84 d2		 test	 dl, dl
  00148	0f 84 ff 00 00
	00		 je	 $LN78@LoadInt_e@3
  0014e	80 f2 eb	 xor	 dl, -21			; ffffffebH
  00151	88 55 ee	 mov	 BYTE PTR __k$[ebp+18], dl
  00154	8a 50 13	 mov	 dl, BYTE PTR [eax+19]
  00157	84 d2		 test	 dl, dl
  00159	0f 84 e9 00 00
	00		 je	 $LN77@LoadInt_e@3
  0015f	32 d3		 xor	 dl, bl
  00161	88 55 ef	 mov	 BYTE PTR __k$[ebp+19], dl
  00164	8a 50 14	 mov	 dl, BYTE PTR [eax+20]
  00167	84 d2		 test	 dl, dl
  00169	0f 84 d3 00 00
	00		 je	 $LN76@LoadInt_e@3
  0016f	80 f2 ed	 xor	 dl, -19			; ffffffedH
  00172	88 55 f0	 mov	 BYTE PTR __k$[ebp+20], dl
  00175	8a 50 15	 mov	 dl, BYTE PTR [eax+21]
  00178	84 d2		 test	 dl, dl
  0017a	0f 84 bd 00 00
	00		 je	 $LN75@LoadInt_e@3
  00180	32 d1		 xor	 dl, cl
  00182	88 55 f1	 mov	 BYTE PTR __k$[ebp+21], dl
  00185	8a 50 16	 mov	 dl, BYTE PTR [eax+22]
  00188	84 d2		 test	 dl, dl
  0018a	0f 84 a7 00 00
	00		 je	 $LN74@LoadInt_e@3
  00190	80 f2 eb	 xor	 dl, -21			; ffffffebH
  00193	88 55 f2	 mov	 BYTE PTR __k$[ebp+22], dl
  00196	8a 50 17	 mov	 dl, BYTE PTR [eax+23]
  00199	84 d2		 test	 dl, dl
  0019b	0f 84 91 00 00
	00		 je	 $LN73@LoadInt_e@3
  001a1	32 d3		 xor	 dl, bl
  001a3	88 55 f3	 mov	 BYTE PTR __k$[ebp+23], dl
  001a6	8a 50 18	 mov	 dl, BYTE PTR [eax+24]
  001a9	84 d2		 test	 dl, dl
  001ab	74 7c		 je	 SHORT $LN72@LoadInt_e@3
  001ad	80 f2 ed	 xor	 dl, -19			; ffffffedH
  001b0	88 55 f4	 mov	 BYTE PTR __k$[ebp+24], dl
  001b3	8a 50 19	 mov	 dl, BYTE PTR [eax+25]
  001b6	84 d2		 test	 dl, dl
  001b8	74 67		 je	 SHORT $LN71@LoadInt_e@3
  001ba	32 d1		 xor	 dl, cl
  001bc	80 78 1a 00	 cmp	 BYTE PTR [eax+26], 0
  001c0	88 55 f5	 mov	 BYTE PTR __k$[ebp+25], dl
  001c3	0f 84 ed 00 00
	00		 je	 $LN1@LoadInt_e@3
  001c9	8a 50 1b	 mov	 dl, BYTE PTR [eax+27]
  001cc	84 d2		 test	 dl, dl
  001ce	74 49		 je	 SHORT $LN69@LoadInt_e@3
  001d0	32 d3		 xor	 dl, bl
  001d2	88 55 f7	 mov	 BYTE PTR __k$[ebp+27], dl
  001d5	8a 50 1c	 mov	 dl, BYTE PTR [eax+28]
  001d8	84 d2		 test	 dl, dl
  001da	74 34		 je	 SHORT $LN68@LoadInt_e@3
  001dc	80 f2 ed	 xor	 dl, -19			; ffffffedH
  001df	88 55 f8	 mov	 BYTE PTR __k$[ebp+28], dl
  001e2	8a 50 1d	 mov	 dl, BYTE PTR [eax+29]
  001e5	84 d2		 test	 dl, dl
  001e7	74 1f		 je	 SHORT $LN67@LoadInt_e@3
  001e9	8a 40 1e	 mov	 al, BYTE PTR [eax+30]
  001ec	32 d1		 xor	 dl, cl
  001ee	88 55 f9	 mov	 BYTE PTR __k$[ebp+29], dl
  001f1	84 c0		 test	 al, al
  001f3	74 0a		 je	 SHORT $LN66@LoadInt_e@3
  001f5	34 eb		 xor	 al, -21			; ffffffebH
  001f7	88 45 fa	 mov	 BYTE PTR __k$[ebp+30], al
  001fa	e9 b7 00 00 00	 jmp	 $LN1@LoadInt_e@3
$LN66@LoadInt_e@3:
  001ff	c6 45 fa eb	 mov	 BYTE PTR __k$[ebp+30], -21 ; ffffffebH
  00203	e9 ae 00 00 00	 jmp	 $LN1@LoadInt_e@3
$LN67@LoadInt_e@3:
  00208	88 4d f9	 mov	 BYTE PTR __k$[ebp+29], cl
  0020b	e9 a6 00 00 00	 jmp	 $LN1@LoadInt_e@3
$LN68@LoadInt_e@3:
  00210	c6 45 f8 ed	 mov	 BYTE PTR __k$[ebp+28], -19 ; ffffffedH
  00214	e9 9d 00 00 00	 jmp	 $LN1@LoadInt_e@3
$LN69@LoadInt_e@3:
  00219	88 5d f7	 mov	 BYTE PTR __k$[ebp+27], bl
  0021c	e9 95 00 00 00	 jmp	 $LN1@LoadInt_e@3
$LN71@LoadInt_e@3:
  00221	88 4d f5	 mov	 BYTE PTR __k$[ebp+25], cl
  00224	e9 8d 00 00 00	 jmp	 $LN1@LoadInt_e@3
$LN72@LoadInt_e@3:
  00229	c6 45 f4 ed	 mov	 BYTE PTR __k$[ebp+24], -19 ; ffffffedH
  0022d	e9 84 00 00 00	 jmp	 $LN1@LoadInt_e@3
$LN73@LoadInt_e@3:
  00232	88 5d f3	 mov	 BYTE PTR __k$[ebp+23], bl
  00235	eb 7f		 jmp	 SHORT $LN1@LoadInt_e@3
$LN74@LoadInt_e@3:
  00237	c6 45 f2 eb	 mov	 BYTE PTR __k$[ebp+22], -21 ; ffffffebH
  0023b	eb 79		 jmp	 SHORT $LN1@LoadInt_e@3
$LN75@LoadInt_e@3:
  0023d	88 4d f1	 mov	 BYTE PTR __k$[ebp+21], cl
  00240	eb 74		 jmp	 SHORT $LN1@LoadInt_e@3
$LN76@LoadInt_e@3:
  00242	c6 45 f0 ed	 mov	 BYTE PTR __k$[ebp+20], -19 ; ffffffedH
  00246	eb 6e		 jmp	 SHORT $LN1@LoadInt_e@3
$LN77@LoadInt_e@3:
  00248	88 5d ef	 mov	 BYTE PTR __k$[ebp+19], bl
  0024b	eb 69		 jmp	 SHORT $LN1@LoadInt_e@3
$LN78@LoadInt_e@3:
  0024d	c6 45 ee eb	 mov	 BYTE PTR __k$[ebp+18], -21 ; ffffffebH
  00251	eb 63		 jmp	 SHORT $LN1@LoadInt_e@3
$LN79@LoadInt_e@3:
  00253	88 4d ed	 mov	 BYTE PTR __k$[ebp+17], cl
  00256	eb 5e		 jmp	 SHORT $LN1@LoadInt_e@3
$LN80@LoadInt_e@3:
  00258	c6 45 ec ed	 mov	 BYTE PTR __k$[ebp+16], -19 ; ffffffedH
  0025c	eb 58		 jmp	 SHORT $LN1@LoadInt_e@3
$LN81@LoadInt_e@3:
  0025e	88 5d eb	 mov	 BYTE PTR __k$[ebp+15], bl
  00261	eb 53		 jmp	 SHORT $LN1@LoadInt_e@3
$LN82@LoadInt_e@3:
  00263	c6 45 ea eb	 mov	 BYTE PTR __k$[ebp+14], -21 ; ffffffebH
  00267	eb 4d		 jmp	 SHORT $LN1@LoadInt_e@3
$LN83@LoadInt_e@3:
  00269	88 4d e9	 mov	 BYTE PTR __k$[ebp+13], cl
  0026c	eb 48		 jmp	 SHORT $LN1@LoadInt_e@3
$LN84@LoadInt_e@3:
  0026e	c6 45 e8 ed	 mov	 BYTE PTR __k$[ebp+12], -19 ; ffffffedH
  00272	eb 42		 jmp	 SHORT $LN1@LoadInt_e@3
$LN85@LoadInt_e@3:
  00274	88 5d e7	 mov	 BYTE PTR __k$[ebp+11], bl
  00277	eb 3d		 jmp	 SHORT $LN1@LoadInt_e@3
$LN86@LoadInt_e@3:
  00279	c6 45 e6 eb	 mov	 BYTE PTR __k$[ebp+10], -21 ; ffffffebH
  0027d	eb 37		 jmp	 SHORT $LN1@LoadInt_e@3
$LN87@LoadInt_e@3:
  0027f	88 4d e5	 mov	 BYTE PTR __k$[ebp+9], cl
  00282	eb 32		 jmp	 SHORT $LN1@LoadInt_e@3
$LN88@LoadInt_e@3:
  00284	c6 45 e4 ed	 mov	 BYTE PTR __k$[ebp+8], -19 ; ffffffedH
  00288	eb 2c		 jmp	 SHORT $LN1@LoadInt_e@3
$LN89@LoadInt_e@3:
  0028a	88 5d e3	 mov	 BYTE PTR __k$[ebp+7], bl
  0028d	eb 27		 jmp	 SHORT $LN1@LoadInt_e@3
$LN90@LoadInt_e@3:
  0028f	c6 45 e2 eb	 mov	 BYTE PTR __k$[ebp+6], -21 ; ffffffebH
  00293	eb 21		 jmp	 SHORT $LN1@LoadInt_e@3
$LN91@LoadInt_e@3:
  00295	88 4d e1	 mov	 BYTE PTR __k$[ebp+5], cl
  00298	eb 1c		 jmp	 SHORT $LN1@LoadInt_e@3
$LN92@LoadInt_e@3:
  0029a	c6 45 e0 ed	 mov	 BYTE PTR __k$[ebp+4], -19 ; ffffffedH
  0029e	eb 16		 jmp	 SHORT $LN1@LoadInt_e@3
$LN93@LoadInt_e@3:
  002a0	c6 45 df ea	 mov	 BYTE PTR __k$[ebp+3], -22 ; ffffffeaH
  002a4	eb 10		 jmp	 SHORT $LN1@LoadInt_e@3
$LN94@LoadInt_e@3:
  002a6	c6 45 de eb	 mov	 BYTE PTR __k$[ebp+2], -21 ; ffffffebH
  002aa	eb 0a		 jmp	 SHORT $LN1@LoadInt_e@3
$LN95@LoadInt_e@3:
  002ac	c6 45 dd ec	 mov	 BYTE PTR __k$[ebp+1], -20 ; ffffffecH
  002b0	eb 04		 jmp	 SHORT $LN1@LoadInt_e@3
$LN96@LoadInt_e@3:
  002b2	c6 45 dc ed	 mov	 BYTE PTR __k$[ebp], -19	; ffffffedH
$LN1@LoadInt_e@3:
  002b6	6a 06		 push	 6
  002b8	8d 45 dc	 lea	 eax, DWORD PTR __k$[ebp]
  002bb	c6 45 f6 00	 mov	 BYTE PTR __k$[ebp+26], 0
  002bf	5a		 pop	 edx
$LL104@LoadInt_e@3:
  002c0	81 30 ed ec eb
	ea		 xor	 DWORD PTR [eax], -353637139 ; eaebecedH
  002c6	83 c0 04	 add	 eax, 4
  002c9	4a		 dec	 edx
  002ca	75 f4		 jne	 SHORT $LL104@LoadInt_e@3
  002cc	6a 18		 push	 24			; 00000018H
  002ce	58		 pop	 eax
$LL101@LoadInt_e@3:
  002cf	8b c8		 mov	 ecx, eax
  002d1	81 e1 03 00 00
	80		 and	 ecx, -2147483645	; 80000003H
  002d7	79 05		 jns	 SHORT $LN111@LoadInt_e@3
  002d9	49		 dec	 ecx
  002da	83 c9 fc	 or	 ecx, -4			; fffffffcH
  002dd	41		 inc	 ecx
$LN111@LoadInt_e@3:
  002de	b2 ed		 mov	 dl, -19			; ffffffedH
  002e0	2a d1		 sub	 dl, cl
  002e2	30 54 05 dc	 xor	 BYTE PTR __k$[ebp+eax], dl
  002e6	40		 inc	 eax
  002e7	83 f8 1a	 cmp	 eax, 26			; 0000001aH
  002ea	7c e3		 jl	 SHORT $LL101@LoadInt_e@3

; 120  : 		return LoadInt(_k, i);

  002ec	ff 75 0c	 push	 DWORD PTR _i$[ebp]
  002ef	8d 45 dc	 lea	 eax, DWORD PTR __k$[ebp]
  002f2	50		 push	 eax
  002f3	8b ce		 mov	 ecx, esi
  002f5	ff 15 00 00 00
	00		 call	 DWORD PTR __imp_?LoadInt@ioINILoader@@QAEHPBDH@Z

; 121  : 	}

  002fb	8b 4d fc	 mov	 ecx, DWORD PTR __$ArrayPad$[ebp]
  002fe	5e		 pop	 esi
  002ff	33 cd		 xor	 ecx, ebp
  00301	5b		 pop	 ebx
  00302	e8 00 00 00 00	 call	 @__security_check_cookie@4
  00307	c9		 leave
  00308	c2 08 00	 ret	 8
??$LoadInt_e@$0BL@@ioINILoader@@QAEHAAY0BL@$$CBDH@Z ENDP ; ioINILoader::LoadInt_e<27>
_TEXT	ENDS
PUBLIC	__$ArrayPad$
PUBLIC	??$LoadInt_e@$0BJ@@ioINILoader@@QAEHAAY0BJ@$$CBDH@Z ; ioINILoader::LoadInt_e<25>
; Function compile flags: /Ogsp
;	COMDAT ??$LoadInt_e@$0BJ@@ioINILoader@@QAEHAAY0BJ@$$CBDH@Z
_TEXT	SEGMENT
__k$ = -36						; size = 25
__$ArrayPad$ = -4					; size = 4
_k$ = 8							; size = 4
_i$ = 12						; size = 4
??$LoadInt_e@$0BJ@@ioINILoader@@QAEHAAY0BJ@$$CBDH@Z PROC ; ioINILoader::LoadInt_e<25>, COMDAT
; _this$ = ecx

; 118  : 	{

  00000	55		 push	 ebp
  00001	8b ec		 mov	 ebp, esp
  00003	83 ec 24	 sub	 esp, 36			; 00000024H
  00006	a1 00 00 00 00	 mov	 eax, DWORD PTR ___security_cookie
  0000b	33 c5		 xor	 eax, ebp
  0000d	89 45 fc	 mov	 DWORD PTR __$ArrayPad$[ebp], eax
  00010	8b 45 08	 mov	 eax, DWORD PTR _k$[ebp]

; 119  : 		_ENCSTR(k, _k);

  00013	8a 10		 mov	 dl, BYTE PTR [eax]
  00015	53		 push	 ebx
  00016	56		 push	 esi
  00017	8b f1		 mov	 esi, ecx
  00019	84 d2		 test	 dl, dl
  0001b	0f 84 5f 02 00
	00		 je	 $LN96@LoadInt_e@4
  00021	80 f2 ed	 xor	 dl, -19			; ffffffedH
  00024	88 55 dc	 mov	 BYTE PTR __k$[ebp], dl
  00027	8a 50 01	 mov	 dl, BYTE PTR [eax+1]
  0002a	84 d2		 test	 dl, dl
  0002c	0f 84 48 02 00
	00		 je	 $LN95@LoadInt_e@4
  00032	b1 ec		 mov	 cl, -20			; ffffffecH
  00034	32 d1		 xor	 dl, cl
  00036	88 55 dd	 mov	 BYTE PTR __k$[ebp+1], dl
  00039	8a 50 02	 mov	 dl, BYTE PTR [eax+2]
  0003c	84 d2		 test	 dl, dl
  0003e	0f 84 30 02 00
	00		 je	 $LN94@LoadInt_e@4
  00044	b3 eb		 mov	 bl, -21			; ffffffebH
  00046	32 d3		 xor	 dl, bl
  00048	88 55 de	 mov	 BYTE PTR __k$[ebp+2], dl
  0004b	8a 50 03	 mov	 dl, BYTE PTR [eax+3]
  0004e	84 d2		 test	 dl, dl
  00050	0f 84 18 02 00
	00		 je	 $LN93@LoadInt_e@4
  00056	80 f2 ea	 xor	 dl, -22			; ffffffeaH
  00059	88 55 df	 mov	 BYTE PTR __k$[ebp+3], dl
  0005c	8a 50 04	 mov	 dl, BYTE PTR [eax+4]
  0005f	84 d2		 test	 dl, dl
  00061	0f 84 01 02 00
	00		 je	 $LN92@LoadInt_e@4
  00067	80 f2 ed	 xor	 dl, -19			; ffffffedH
  0006a	88 55 e0	 mov	 BYTE PTR __k$[ebp+4], dl
  0006d	8a 50 05	 mov	 dl, BYTE PTR [eax+5]
  00070	84 d2		 test	 dl, dl
  00072	0f 84 eb 01 00
	00		 je	 $LN91@LoadInt_e@4
  00078	32 d1		 xor	 dl, cl
  0007a	88 55 e1	 mov	 BYTE PTR __k$[ebp+5], dl
  0007d	8a 50 06	 mov	 dl, BYTE PTR [eax+6]
  00080	84 d2		 test	 dl, dl
  00082	0f 84 d6 01 00
	00		 je	 $LN90@LoadInt_e@4
  00088	32 d3		 xor	 dl, bl
  0008a	88 55 e2	 mov	 BYTE PTR __k$[ebp+6], dl
  0008d	8a 50 07	 mov	 dl, BYTE PTR [eax+7]
  00090	84 d2		 test	 dl, dl
  00092	0f 84 c0 01 00
	00		 je	 $LN89@LoadInt_e@4
  00098	80 f2 ea	 xor	 dl, -22			; ffffffeaH
  0009b	88 55 e3	 mov	 BYTE PTR __k$[ebp+7], dl
  0009e	8a 50 08	 mov	 dl, BYTE PTR [eax+8]
  000a1	84 d2		 test	 dl, dl
  000a3	0f 84 a9 01 00
	00		 je	 $LN88@LoadInt_e@4
  000a9	80 f2 ed	 xor	 dl, -19			; ffffffedH
  000ac	88 55 e4	 mov	 BYTE PTR __k$[ebp+8], dl
  000af	8a 50 09	 mov	 dl, BYTE PTR [eax+9]
  000b2	84 d2		 test	 dl, dl
  000b4	0f 84 93 01 00
	00		 je	 $LN87@LoadInt_e@4
  000ba	32 d1		 xor	 dl, cl
  000bc	88 55 e5	 mov	 BYTE PTR __k$[ebp+9], dl
  000bf	8a 50 0a	 mov	 dl, BYTE PTR [eax+10]
  000c2	84 d2		 test	 dl, dl
  000c4	0f 84 7e 01 00
	00		 je	 $LN86@LoadInt_e@4
  000ca	32 d3		 xor	 dl, bl
  000cc	88 55 e6	 mov	 BYTE PTR __k$[ebp+10], dl
  000cf	8a 50 0b	 mov	 dl, BYTE PTR [eax+11]
  000d2	84 d2		 test	 dl, dl
  000d4	0f 84 68 01 00
	00		 je	 $LN85@LoadInt_e@4
  000da	80 f2 ea	 xor	 dl, -22			; ffffffeaH
  000dd	88 55 e7	 mov	 BYTE PTR __k$[ebp+11], dl
  000e0	8a 50 0c	 mov	 dl, BYTE PTR [eax+12]
  000e3	84 d2		 test	 dl, dl
  000e5	0f 84 51 01 00
	00		 je	 $LN84@LoadInt_e@4
  000eb	80 f2 ed	 xor	 dl, -19			; ffffffedH
  000ee	88 55 e8	 mov	 BYTE PTR __k$[ebp+12], dl
  000f1	8a 50 0d	 mov	 dl, BYTE PTR [eax+13]
  000f4	84 d2		 test	 dl, dl
  000f6	0f 84 3b 01 00
	00		 je	 $LN83@LoadInt_e@4
  000fc	32 d1		 xor	 dl, cl
  000fe	88 55 e9	 mov	 BYTE PTR __k$[ebp+13], dl
  00101	8a 50 0e	 mov	 dl, BYTE PTR [eax+14]
  00104	84 d2		 test	 dl, dl
  00106	0f 84 26 01 00
	00		 je	 $LN82@LoadInt_e@4
  0010c	32 d3		 xor	 dl, bl
  0010e	88 55 ea	 mov	 BYTE PTR __k$[ebp+14], dl
  00111	8a 50 0f	 mov	 dl, BYTE PTR [eax+15]
  00114	84 d2		 test	 dl, dl
  00116	0f 84 10 01 00
	00		 je	 $LN81@LoadInt_e@4
  0011c	80 f2 ea	 xor	 dl, -22			; ffffffeaH
  0011f	88 55 eb	 mov	 BYTE PTR __k$[ebp+15], dl
  00122	8a 50 10	 mov	 dl, BYTE PTR [eax+16]
  00125	84 d2		 test	 dl, dl
  00127	0f 84 f9 00 00
	00		 je	 $LN80@LoadInt_e@4
  0012d	80 f2 ed	 xor	 dl, -19			; ffffffedH
  00130	88 55 ec	 mov	 BYTE PTR __k$[ebp+16], dl
  00133	8a 50 11	 mov	 dl, BYTE PTR [eax+17]
  00136	84 d2		 test	 dl, dl
  00138	0f 84 e3 00 00
	00		 je	 $LN79@LoadInt_e@4
  0013e	32 d1		 xor	 dl, cl
  00140	88 55 ed	 mov	 BYTE PTR __k$[ebp+17], dl
  00143	8a 50 12	 mov	 dl, BYTE PTR [eax+18]
  00146	84 d2		 test	 dl, dl
  00148	0f 84 ce 00 00
	00		 je	 $LN78@LoadInt_e@4
  0014e	32 d3		 xor	 dl, bl
  00150	88 55 ee	 mov	 BYTE PTR __k$[ebp+18], dl
  00153	8a 50 13	 mov	 dl, BYTE PTR [eax+19]
  00156	84 d2		 test	 dl, dl
  00158	0f 84 b8 00 00
	00		 je	 $LN77@LoadInt_e@4
  0015e	80 f2 ea	 xor	 dl, -22			; ffffffeaH
  00161	88 55 ef	 mov	 BYTE PTR __k$[ebp+19], dl
  00164	8a 50 14	 mov	 dl, BYTE PTR [eax+20]
  00167	84 d2		 test	 dl, dl
  00169	0f 84 a1 00 00
	00		 je	 $LN76@LoadInt_e@4
  0016f	80 f2 ed	 xor	 dl, -19			; ffffffedH
  00172	88 55 f0	 mov	 BYTE PTR __k$[ebp+20], dl
  00175	8a 50 15	 mov	 dl, BYTE PTR [eax+21]
  00178	84 d2		 test	 dl, dl
  0017a	0f 84 8b 00 00
	00		 je	 $LN75@LoadInt_e@4
  00180	32 d1		 xor	 dl, cl
  00182	88 55 f1	 mov	 BYTE PTR __k$[ebp+21], dl
  00185	8a 50 16	 mov	 dl, BYTE PTR [eax+22]
  00188	84 d2		 test	 dl, dl
  0018a	74 7a		 je	 SHORT $LN74@LoadInt_e@4
  0018c	32 d3		 xor	 dl, bl
  0018e	88 55 f2	 mov	 BYTE PTR __k$[ebp+22], dl
  00191	8a 50 17	 mov	 dl, BYTE PTR [eax+23]
  00194	84 d2		 test	 dl, dl
  00196	74 68		 je	 SHORT $LN73@LoadInt_e@4
  00198	80 f2 ea	 xor	 dl, -22			; ffffffeaH
  0019b	80 78 18 00	 cmp	 BYTE PTR [eax+24], 0
  0019f	88 55 f3	 mov	 BYTE PTR __k$[ebp+23], dl
  001a2	0f 84 dc 00 00
	00		 je	 $LN1@LoadInt_e@4
  001a8	8a 50 19	 mov	 dl, BYTE PTR [eax+25]
  001ab	84 d2		 test	 dl, dl
  001ad	74 49		 je	 SHORT $LN71@LoadInt_e@4
  001af	32 d1		 xor	 dl, cl
  001b1	88 55 f5	 mov	 BYTE PTR __k$[ebp+25], dl
  001b4	8a 50 1a	 mov	 dl, BYTE PTR [eax+26]
  001b7	84 d2		 test	 dl, dl
  001b9	74 35		 je	 SHORT $LN70@LoadInt_e@4
  001bb	32 d3		 xor	 dl, bl
  001bd	88 55 f6	 mov	 BYTE PTR __k$[ebp+26], dl
  001c0	8a 50 1b	 mov	 dl, BYTE PTR [eax+27]
  001c3	84 d2		 test	 dl, dl
  001c5	74 20		 je	 SHORT $LN69@LoadInt_e@4
  001c7	8a 40 1c	 mov	 al, BYTE PTR [eax+28]
  001ca	80 f2 ea	 xor	 dl, -22			; ffffffeaH
  001cd	88 55 f7	 mov	 BYTE PTR __k$[ebp+27], dl
  001d0	84 c0		 test	 al, al
  001d2	74 0a		 je	 SHORT $LN68@LoadInt_e@4
  001d4	34 ed		 xor	 al, -19			; ffffffedH
  001d6	88 45 f8	 mov	 BYTE PTR __k$[ebp+28], al
  001d9	e9 a6 00 00 00	 jmp	 $LN1@LoadInt_e@4
$LN68@LoadInt_e@4:
  001de	c6 45 f8 ed	 mov	 BYTE PTR __k$[ebp+28], -19 ; ffffffedH
  001e2	e9 9d 00 00 00	 jmp	 $LN1@LoadInt_e@4
$LN69@LoadInt_e@4:
  001e7	c6 45 f7 ea	 mov	 BYTE PTR __k$[ebp+27], -22 ; ffffffeaH
  001eb	e9 94 00 00 00	 jmp	 $LN1@LoadInt_e@4
$LN70@LoadInt_e@4:
  001f0	88 5d f6	 mov	 BYTE PTR __k$[ebp+26], bl
  001f3	e9 8c 00 00 00	 jmp	 $LN1@LoadInt_e@4
$LN71@LoadInt_e@4:
  001f8	88 4d f5	 mov	 BYTE PTR __k$[ebp+25], cl
  001fb	e9 84 00 00 00	 jmp	 $LN1@LoadInt_e@4
$LN73@LoadInt_e@4:
  00200	c6 45 f3 ea	 mov	 BYTE PTR __k$[ebp+23], -22 ; ffffffeaH
  00204	eb 7e		 jmp	 SHORT $LN1@LoadInt_e@4
$LN74@LoadInt_e@4:
  00206	88 5d f2	 mov	 BYTE PTR __k$[ebp+22], bl
  00209	eb 79		 jmp	 SHORT $LN1@LoadInt_e@4
$LN75@LoadInt_e@4:
  0020b	88 4d f1	 mov	 BYTE PTR __k$[ebp+21], cl
  0020e	eb 74		 jmp	 SHORT $LN1@LoadInt_e@4
$LN76@LoadInt_e@4:
  00210	c6 45 f0 ed	 mov	 BYTE PTR __k$[ebp+20], -19 ; ffffffedH
  00214	eb 6e		 jmp	 SHORT $LN1@LoadInt_e@4
$LN77@LoadInt_e@4:
  00216	c6 45 ef ea	 mov	 BYTE PTR __k$[ebp+19], -22 ; ffffffeaH
  0021a	eb 68		 jmp	 SHORT $LN1@LoadInt_e@4
$LN78@LoadInt_e@4:
  0021c	88 5d ee	 mov	 BYTE PTR __k$[ebp+18], bl
  0021f	eb 63		 jmp	 SHORT $LN1@LoadInt_e@4
$LN79@LoadInt_e@4:
  00221	88 4d ed	 mov	 BYTE PTR __k$[ebp+17], cl
  00224	eb 5e		 jmp	 SHORT $LN1@LoadInt_e@4
$LN80@LoadInt_e@4:
  00226	c6 45 ec ed	 mov	 BYTE PTR __k$[ebp+16], -19 ; ffffffedH
  0022a	eb 58		 jmp	 SHORT $LN1@LoadInt_e@4
$LN81@LoadInt_e@4:
  0022c	c6 45 eb ea	 mov	 BYTE PTR __k$[ebp+15], -22 ; ffffffeaH
  00230	eb 52		 jmp	 SHORT $LN1@LoadInt_e@4
$LN82@LoadInt_e@4:
  00232	88 5d ea	 mov	 BYTE PTR __k$[ebp+14], bl
  00235	eb 4d		 jmp	 SHORT $LN1@LoadInt_e@4
$LN83@LoadInt_e@4:
  00237	88 4d e9	 mov	 BYTE PTR __k$[ebp+13], cl
  0023a	eb 48		 jmp	 SHORT $LN1@LoadInt_e@4
$LN84@LoadInt_e@4:
  0023c	c6 45 e8 ed	 mov	 BYTE PTR __k$[ebp+12], -19 ; ffffffedH
  00240	eb 42		 jmp	 SHORT $LN1@LoadInt_e@4
$LN85@LoadInt_e@4:
  00242	c6 45 e7 ea	 mov	 BYTE PTR __k$[ebp+11], -22 ; ffffffeaH
  00246	eb 3c		 jmp	 SHORT $LN1@LoadInt_e@4
$LN86@LoadInt_e@4:
  00248	88 5d e6	 mov	 BYTE PTR __k$[ebp+10], bl
  0024b	eb 37		 jmp	 SHORT $LN1@LoadInt_e@4
$LN87@LoadInt_e@4:
  0024d	88 4d e5	 mov	 BYTE PTR __k$[ebp+9], cl
  00250	eb 32		 jmp	 SHORT $LN1@LoadInt_e@4
$LN88@LoadInt_e@4:
  00252	c6 45 e4 ed	 mov	 BYTE PTR __k$[ebp+8], -19 ; ffffffedH
  00256	eb 2c		 jmp	 SHORT $LN1@LoadInt_e@4
$LN89@LoadInt_e@4:
  00258	c6 45 e3 ea	 mov	 BYTE PTR __k$[ebp+7], -22 ; ffffffeaH
  0025c	eb 26		 jmp	 SHORT $LN1@LoadInt_e@4
$LN90@LoadInt_e@4:
  0025e	88 5d e2	 mov	 BYTE PTR __k$[ebp+6], bl
  00261	eb 21		 jmp	 SHORT $LN1@LoadInt_e@4
$LN91@LoadInt_e@4:
  00263	88 4d e1	 mov	 BYTE PTR __k$[ebp+5], cl
  00266	eb 1c		 jmp	 SHORT $LN1@LoadInt_e@4
$LN92@LoadInt_e@4:
  00268	c6 45 e0 ed	 mov	 BYTE PTR __k$[ebp+4], -19 ; ffffffedH
  0026c	eb 16		 jmp	 SHORT $LN1@LoadInt_e@4
$LN93@LoadInt_e@4:
  0026e	c6 45 df ea	 mov	 BYTE PTR __k$[ebp+3], -22 ; ffffffeaH
  00272	eb 10		 jmp	 SHORT $LN1@LoadInt_e@4
$LN94@LoadInt_e@4:
  00274	c6 45 de eb	 mov	 BYTE PTR __k$[ebp+2], -21 ; ffffffebH
  00278	eb 0a		 jmp	 SHORT $LN1@LoadInt_e@4
$LN95@LoadInt_e@4:
  0027a	c6 45 dd ec	 mov	 BYTE PTR __k$[ebp+1], -20 ; ffffffecH
  0027e	eb 04		 jmp	 SHORT $LN1@LoadInt_e@4
$LN96@LoadInt_e@4:
  00280	c6 45 dc ed	 mov	 BYTE PTR __k$[ebp], -19	; ffffffedH
$LN1@LoadInt_e@4:
  00284	6a 06		 push	 6
  00286	8d 45 dc	 lea	 eax, DWORD PTR __k$[ebp]
  00289	c6 45 f4 00	 mov	 BYTE PTR __k$[ebp+24], 0
  0028d	5a		 pop	 edx
$LL104@LoadInt_e@4:
  0028e	81 30 ed ec eb
	ea		 xor	 DWORD PTR [eax], -353637139 ; eaebecedH
  00294	83 c0 04	 add	 eax, 4
  00297	4a		 dec	 edx
  00298	75 f4		 jne	 SHORT $LL104@LoadInt_e@4

; 120  : 		return LoadInt(_k, i);

  0029a	ff 75 0c	 push	 DWORD PTR _i$[ebp]
  0029d	8d 45 dc	 lea	 eax, DWORD PTR __k$[ebp]
  002a0	50		 push	 eax
  002a1	8b ce		 mov	 ecx, esi
  002a3	ff 15 00 00 00
	00		 call	 DWORD PTR __imp_?LoadInt@ioINILoader@@QAEHPBDH@Z

; 121  : 	}

  002a9	8b 4d fc	 mov	 ecx, DWORD PTR __$ArrayPad$[ebp]
  002ac	5e		 pop	 esi
  002ad	33 cd		 xor	 ecx, ebp
  002af	5b		 pop	 ebx
  002b0	e8 00 00 00 00	 call	 @__security_check_cookie@4
  002b5	c9		 leave
  002b6	c2 08 00	 ret	 8
??$LoadInt_e@$0BJ@@ioINILoader@@QAEHAAY0BJ@$$CBDH@Z ENDP ; ioINILoader::LoadInt_e<25>
_TEXT	ENDS
PUBLIC	__$ArrayPad$
PUBLIC	??$LoadFloat_e@$0BL@@ioINILoader@@QAEMAAY0BL@$$CBDM@Z ; ioINILoader::LoadFloat_e<27>
; Function compile flags: /Ogsp
;	COMDAT ??$LoadFloat_e@$0BL@@ioINILoader@@QAEMAAY0BL@$$CBDM@Z
_TEXT	SEGMENT
__k$ = -36						; size = 27
__$ArrayPad$ = -4					; size = 4
_k$ = 8							; size = 4
_f$ = 12						; size = 4
??$LoadFloat_e@$0BL@@ioINILoader@@QAEMAAY0BL@$$CBDM@Z PROC ; ioINILoader::LoadFloat_e<27>, COMDAT
; _this$ = ecx

; 135  : 	{

  00000	55		 push	 ebp
  00001	8b ec		 mov	 ebp, esp
  00003	83 ec 24	 sub	 esp, 36			; 00000024H
  00006	a1 00 00 00 00	 mov	 eax, DWORD PTR ___security_cookie
  0000b	33 c5		 xor	 eax, ebp
  0000d	89 45 fc	 mov	 DWORD PTR __$ArrayPad$[ebp], eax
  00010	8b 45 08	 mov	 eax, DWORD PTR _k$[ebp]

; 136  : 		_ENCSTR(k, _k);

  00013	8a 10		 mov	 dl, BYTE PTR [eax]
  00015	53		 push	 ebx
  00016	56		 push	 esi
  00017	8b f1		 mov	 esi, ecx
  00019	84 d2		 test	 dl, dl
  0001b	0f 84 91 02 00
	00		 je	 $LN96@LoadFloat_@5
  00021	80 f2 ed	 xor	 dl, -19			; ffffffedH
  00024	88 55 dc	 mov	 BYTE PTR __k$[ebp], dl
  00027	8a 50 01	 mov	 dl, BYTE PTR [eax+1]
  0002a	84 d2		 test	 dl, dl
  0002c	0f 84 7a 02 00
	00		 je	 $LN95@LoadFloat_@5
  00032	b1 ec		 mov	 cl, -20			; ffffffecH
  00034	32 d1		 xor	 dl, cl
  00036	88 55 dd	 mov	 BYTE PTR __k$[ebp+1], dl
  00039	8a 50 02	 mov	 dl, BYTE PTR [eax+2]
  0003c	84 d2		 test	 dl, dl
  0003e	0f 84 62 02 00
	00		 je	 $LN94@LoadFloat_@5
  00044	80 f2 eb	 xor	 dl, -21			; ffffffebH
  00047	88 55 de	 mov	 BYTE PTR __k$[ebp+2], dl
  0004a	8a 50 03	 mov	 dl, BYTE PTR [eax+3]
  0004d	84 d2		 test	 dl, dl
  0004f	0f 84 4b 02 00
	00		 je	 $LN93@LoadFloat_@5
  00055	b3 ea		 mov	 bl, -22			; ffffffeaH
  00057	32 d3		 xor	 dl, bl
  00059	88 55 df	 mov	 BYTE PTR __k$[ebp+3], dl
  0005c	8a 50 04	 mov	 dl, BYTE PTR [eax+4]
  0005f	84 d2		 test	 dl, dl
  00061	0f 84 33 02 00
	00		 je	 $LN92@LoadFloat_@5
  00067	80 f2 ed	 xor	 dl, -19			; ffffffedH
  0006a	88 55 e0	 mov	 BYTE PTR __k$[ebp+4], dl
  0006d	8a 50 05	 mov	 dl, BYTE PTR [eax+5]
  00070	84 d2		 test	 dl, dl
  00072	0f 84 1d 02 00
	00		 je	 $LN91@LoadFloat_@5
  00078	32 d1		 xor	 dl, cl
  0007a	88 55 e1	 mov	 BYTE PTR __k$[ebp+5], dl
  0007d	8a 50 06	 mov	 dl, BYTE PTR [eax+6]
  00080	84 d2		 test	 dl, dl
  00082	0f 84 07 02 00
	00		 je	 $LN90@LoadFloat_@5
  00088	80 f2 eb	 xor	 dl, -21			; ffffffebH
  0008b	88 55 e2	 mov	 BYTE PTR __k$[ebp+6], dl
  0008e	8a 50 07	 mov	 dl, BYTE PTR [eax+7]
  00091	84 d2		 test	 dl, dl
  00093	0f 84 f1 01 00
	00		 je	 $LN89@LoadFloat_@5
  00099	32 d3		 xor	 dl, bl
  0009b	88 55 e3	 mov	 BYTE PTR __k$[ebp+7], dl
  0009e	8a 50 08	 mov	 dl, BYTE PTR [eax+8]
  000a1	84 d2		 test	 dl, dl
  000a3	0f 84 db 01 00
	00		 je	 $LN88@LoadFloat_@5
  000a9	80 f2 ed	 xor	 dl, -19			; ffffffedH
  000ac	88 55 e4	 mov	 BYTE PTR __k$[ebp+8], dl
  000af	8a 50 09	 mov	 dl, BYTE PTR [eax+9]
  000b2	84 d2		 test	 dl, dl
  000b4	0f 84 c5 01 00
	00		 je	 $LN87@LoadFloat_@5
  000ba	32 d1		 xor	 dl, cl
  000bc	88 55 e5	 mov	 BYTE PTR __k$[ebp+9], dl
  000bf	8a 50 0a	 mov	 dl, BYTE PTR [eax+10]
  000c2	84 d2		 test	 dl, dl
  000c4	0f 84 af 01 00
	00		 je	 $LN86@LoadFloat_@5
  000ca	80 f2 eb	 xor	 dl, -21			; ffffffebH
  000cd	88 55 e6	 mov	 BYTE PTR __k$[ebp+10], dl
  000d0	8a 50 0b	 mov	 dl, BYTE PTR [eax+11]
  000d3	84 d2		 test	 dl, dl
  000d5	0f 84 99 01 00
	00		 je	 $LN85@LoadFloat_@5
  000db	32 d3		 xor	 dl, bl
  000dd	88 55 e7	 mov	 BYTE PTR __k$[ebp+11], dl
  000e0	8a 50 0c	 mov	 dl, BYTE PTR [eax+12]
  000e3	84 d2		 test	 dl, dl
  000e5	0f 84 83 01 00
	00		 je	 $LN84@LoadFloat_@5
  000eb	80 f2 ed	 xor	 dl, -19			; ffffffedH
  000ee	88 55 e8	 mov	 BYTE PTR __k$[ebp+12], dl
  000f1	8a 50 0d	 mov	 dl, BYTE PTR [eax+13]
  000f4	84 d2		 test	 dl, dl
  000f6	0f 84 6d 01 00
	00		 je	 $LN83@LoadFloat_@5
  000fc	32 d1		 xor	 dl, cl
  000fe	88 55 e9	 mov	 BYTE PTR __k$[ebp+13], dl
  00101	8a 50 0e	 mov	 dl, BYTE PTR [eax+14]
  00104	84 d2		 test	 dl, dl
  00106	0f 84 57 01 00
	00		 je	 $LN82@LoadFloat_@5
  0010c	80 f2 eb	 xor	 dl, -21			; ffffffebH
  0010f	88 55 ea	 mov	 BYTE PTR __k$[ebp+14], dl
  00112	8a 50 0f	 mov	 dl, BYTE PTR [eax+15]
  00115	84 d2		 test	 dl, dl
  00117	0f 84 41 01 00
	00		 je	 $LN81@LoadFloat_@5
  0011d	32 d3		 xor	 dl, bl
  0011f	88 55 eb	 mov	 BYTE PTR __k$[ebp+15], dl
  00122	8a 50 10	 mov	 dl, BYTE PTR [eax+16]
  00125	84 d2		 test	 dl, dl
  00127	0f 84 2b 01 00
	00		 je	 $LN80@LoadFloat_@5
  0012d	80 f2 ed	 xor	 dl, -19			; ffffffedH
  00130	88 55 ec	 mov	 BYTE PTR __k$[ebp+16], dl
  00133	8a 50 11	 mov	 dl, BYTE PTR [eax+17]
  00136	84 d2		 test	 dl, dl
  00138	0f 84 15 01 00
	00		 je	 $LN79@LoadFloat_@5
  0013e	32 d1		 xor	 dl, cl
  00140	88 55 ed	 mov	 BYTE PTR __k$[ebp+17], dl
  00143	8a 50 12	 mov	 dl, BYTE PTR [eax+18]
  00146	84 d2		 test	 dl, dl
  00148	0f 84 ff 00 00
	00		 je	 $LN78@LoadFloat_@5
  0014e	80 f2 eb	 xor	 dl, -21			; ffffffebH
  00151	88 55 ee	 mov	 BYTE PTR __k$[ebp+18], dl
  00154	8a 50 13	 mov	 dl, BYTE PTR [eax+19]
  00157	84 d2		 test	 dl, dl
  00159	0f 84 e9 00 00
	00		 je	 $LN77@LoadFloat_@5
  0015f	32 d3		 xor	 dl, bl
  00161	88 55 ef	 mov	 BYTE PTR __k$[ebp+19], dl
  00164	8a 50 14	 mov	 dl, BYTE PTR [eax+20]
  00167	84 d2		 test	 dl, dl
  00169	0f 84 d3 00 00
	00		 je	 $LN76@LoadFloat_@5
  0016f	80 f2 ed	 xor	 dl, -19			; ffffffedH
  00172	88 55 f0	 mov	 BYTE PTR __k$[ebp+20], dl
  00175	8a 50 15	 mov	 dl, BYTE PTR [eax+21]
  00178	84 d2		 test	 dl, dl
  0017a	0f 84 bd 00 00
	00		 je	 $LN75@LoadFloat_@5
  00180	32 d1		 xor	 dl, cl
  00182	88 55 f1	 mov	 BYTE PTR __k$[ebp+21], dl
  00185	8a 50 16	 mov	 dl, BYTE PTR [eax+22]
  00188	84 d2		 test	 dl, dl
  0018a	0f 84 a7 00 00
	00		 je	 $LN74@LoadFloat_@5
  00190	80 f2 eb	 xor	 dl, -21			; ffffffebH
  00193	88 55 f2	 mov	 BYTE PTR __k$[ebp+22], dl
  00196	8a 50 17	 mov	 dl, BYTE PTR [eax+23]
  00199	84 d2		 test	 dl, dl
  0019b	0f 84 91 00 00
	00		 je	 $LN73@LoadFloat_@5
  001a1	32 d3		 xor	 dl, bl
  001a3	88 55 f3	 mov	 BYTE PTR __k$[ebp+23], dl
  001a6	8a 50 18	 mov	 dl, BYTE PTR [eax+24]
  001a9	84 d2		 test	 dl, dl
  001ab	74 7c		 je	 SHORT $LN72@LoadFloat_@5
  001ad	80 f2 ed	 xor	 dl, -19			; ffffffedH
  001b0	88 55 f4	 mov	 BYTE PTR __k$[ebp+24], dl
  001b3	8a 50 19	 mov	 dl, BYTE PTR [eax+25]
  001b6	84 d2		 test	 dl, dl
  001b8	74 67		 je	 SHORT $LN71@LoadFloat_@5
  001ba	32 d1		 xor	 dl, cl
  001bc	80 78 1a 00	 cmp	 BYTE PTR [eax+26], 0
  001c0	88 55 f5	 mov	 BYTE PTR __k$[ebp+25], dl
  001c3	0f 84 ed 00 00
	00		 je	 $LN1@LoadFloat_@5
  001c9	8a 50 1b	 mov	 dl, BYTE PTR [eax+27]
  001cc	84 d2		 test	 dl, dl
  001ce	74 49		 je	 SHORT $LN69@LoadFloat_@5
  001d0	32 d3		 xor	 dl, bl
  001d2	88 55 f7	 mov	 BYTE PTR __k$[ebp+27], dl
  001d5	8a 50 1c	 mov	 dl, BYTE PTR [eax+28]
  001d8	84 d2		 test	 dl, dl
  001da	74 34		 je	 SHORT $LN68@LoadFloat_@5
  001dc	80 f2 ed	 xor	 dl, -19			; ffffffedH
  001df	88 55 f8	 mov	 BYTE PTR __k$[ebp+28], dl
  001e2	8a 50 1d	 mov	 dl, BYTE PTR [eax+29]
  001e5	84 d2		 test	 dl, dl
  001e7	74 1f		 je	 SHORT $LN67@LoadFloat_@5
  001e9	8a 40 1e	 mov	 al, BYTE PTR [eax+30]
  001ec	32 d1		 xor	 dl, cl
  001ee	88 55 f9	 mov	 BYTE PTR __k$[ebp+29], dl
  001f1	84 c0		 test	 al, al
  001f3	74 0a		 je	 SHORT $LN66@LoadFloat_@5
  001f5	34 eb		 xor	 al, -21			; ffffffebH
  001f7	88 45 fa	 mov	 BYTE PTR __k$[ebp+30], al
  001fa	e9 b7 00 00 00	 jmp	 $LN1@LoadFloat_@5
$LN66@LoadFloat_@5:
  001ff	c6 45 fa eb	 mov	 BYTE PTR __k$[ebp+30], -21 ; ffffffebH
  00203	e9 ae 00 00 00	 jmp	 $LN1@LoadFloat_@5
$LN67@LoadFloat_@5:
  00208	88 4d f9	 mov	 BYTE PTR __k$[ebp+29], cl
  0020b	e9 a6 00 00 00	 jmp	 $LN1@LoadFloat_@5
$LN68@LoadFloat_@5:
  00210	c6 45 f8 ed	 mov	 BYTE PTR __k$[ebp+28], -19 ; ffffffedH
  00214	e9 9d 00 00 00	 jmp	 $LN1@LoadFloat_@5
$LN69@LoadFloat_@5:
  00219	88 5d f7	 mov	 BYTE PTR __k$[ebp+27], bl
  0021c	e9 95 00 00 00	 jmp	 $LN1@LoadFloat_@5
$LN71@LoadFloat_@5:
  00221	88 4d f5	 mov	 BYTE PTR __k$[ebp+25], cl
  00224	e9 8d 00 00 00	 jmp	 $LN1@LoadFloat_@5
$LN72@LoadFloat_@5:
  00229	c6 45 f4 ed	 mov	 BYTE PTR __k$[ebp+24], -19 ; ffffffedH
  0022d	e9 84 00 00 00	 jmp	 $LN1@LoadFloat_@5
$LN73@LoadFloat_@5:
  00232	88 5d f3	 mov	 BYTE PTR __k$[ebp+23], bl
  00235	eb 7f		 jmp	 SHORT $LN1@LoadFloat_@5
$LN74@LoadFloat_@5:
  00237	c6 45 f2 eb	 mov	 BYTE PTR __k$[ebp+22], -21 ; ffffffebH
  0023b	eb 79		 jmp	 SHORT $LN1@LoadFloat_@5
$LN75@LoadFloat_@5:
  0023d	88 4d f1	 mov	 BYTE PTR __k$[ebp+21], cl
  00240	eb 74		 jmp	 SHORT $LN1@LoadFloat_@5
$LN76@LoadFloat_@5:
  00242	c6 45 f0 ed	 mov	 BYTE PTR __k$[ebp+20], -19 ; ffffffedH
  00246	eb 6e		 jmp	 SHORT $LN1@LoadFloat_@5
$LN77@LoadFloat_@5:
  00248	88 5d ef	 mov	 BYTE PTR __k$[ebp+19], bl
  0024b	eb 69		 jmp	 SHORT $LN1@LoadFloat_@5
$LN78@LoadFloat_@5:
  0024d	c6 45 ee eb	 mov	 BYTE PTR __k$[ebp+18], -21 ; ffffffebH
  00251	eb 63		 jmp	 SHORT $LN1@LoadFloat_@5
$LN79@LoadFloat_@5:
  00253	88 4d ed	 mov	 BYTE PTR __k$[ebp+17], cl
  00256	eb 5e		 jmp	 SHORT $LN1@LoadFloat_@5
$LN80@LoadFloat_@5:
  00258	c6 45 ec ed	 mov	 BYTE PTR __k$[ebp+16], -19 ; ffffffedH
  0025c	eb 58		 jmp	 SHORT $LN1@LoadFloat_@5
$LN81@LoadFloat_@5:
  0025e	88 5d eb	 mov	 BYTE PTR __k$[ebp+15], bl
  00261	eb 53		 jmp	 SHORT $LN1@LoadFloat_@5
$LN82@LoadFloat_@5:
  00263	c6 45 ea eb	 mov	 BYTE PTR __k$[ebp+14], -21 ; ffffffebH
  00267	eb 4d		 jmp	 SHORT $LN1@LoadFloat_@5
$LN83@LoadFloat_@5:
  00269	88 4d e9	 mov	 BYTE PTR __k$[ebp+13], cl
  0026c	eb 48		 jmp	 SHORT $LN1@LoadFloat_@5
$LN84@LoadFloat_@5:
  0026e	c6 45 e8 ed	 mov	 BYTE PTR __k$[ebp+12], -19 ; ffffffedH
  00272	eb 42		 jmp	 SHORT $LN1@LoadFloat_@5
$LN85@LoadFloat_@5:
  00274	88 5d e7	 mov	 BYTE PTR __k$[ebp+11], bl
  00277	eb 3d		 jmp	 SHORT $LN1@LoadFloat_@5
$LN86@LoadFloat_@5:
  00279	c6 45 e6 eb	 mov	 BYTE PTR __k$[ebp+10], -21 ; ffffffebH
  0027d	eb 37		 jmp	 SHORT $LN1@LoadFloat_@5
$LN87@LoadFloat_@5:
  0027f	88 4d e5	 mov	 BYTE PTR __k$[ebp+9], cl
  00282	eb 32		 jmp	 SHORT $LN1@LoadFloat_@5
$LN88@LoadFloat_@5:
  00284	c6 45 e4 ed	 mov	 BYTE PTR __k$[ebp+8], -19 ; ffffffedH
  00288	eb 2c		 jmp	 SHORT $LN1@LoadFloat_@5
$LN89@LoadFloat_@5:
  0028a	88 5d e3	 mov	 BYTE PTR __k$[ebp+7], bl
  0028d	eb 27		 jmp	 SHORT $LN1@LoadFloat_@5
$LN90@LoadFloat_@5:
  0028f	c6 45 e2 eb	 mov	 BYTE PTR __k$[ebp+6], -21 ; ffffffebH
  00293	eb 21		 jmp	 SHORT $LN1@LoadFloat_@5
$LN91@LoadFloat_@5:
  00295	88 4d e1	 mov	 BYTE PTR __k$[ebp+5], cl
  00298	eb 1c		 jmp	 SHORT $LN1@LoadFloat_@5
$LN92@LoadFloat_@5:
  0029a	c6 45 e0 ed	 mov	 BYTE PTR __k$[ebp+4], -19 ; ffffffedH
  0029e	eb 16		 jmp	 SHORT $LN1@LoadFloat_@5
$LN93@LoadFloat_@5:
  002a0	c6 45 df ea	 mov	 BYTE PTR __k$[ebp+3], -22 ; ffffffeaH
  002a4	eb 10		 jmp	 SHORT $LN1@LoadFloat_@5
$LN94@LoadFloat_@5:
  002a6	c6 45 de eb	 mov	 BYTE PTR __k$[ebp+2], -21 ; ffffffebH
  002aa	eb 0a		 jmp	 SHORT $LN1@LoadFloat_@5
$LN95@LoadFloat_@5:
  002ac	c6 45 dd ec	 mov	 BYTE PTR __k$[ebp+1], -20 ; ffffffecH
  002b0	eb 04		 jmp	 SHORT $LN1@LoadFloat_@5
$LN96@LoadFloat_@5:
  002b2	c6 45 dc ed	 mov	 BYTE PTR __k$[ebp], -19	; ffffffedH
$LN1@LoadFloat_@5:
  002b6	6a 06		 push	 6
  002b8	8d 45 dc	 lea	 eax, DWORD PTR __k$[ebp]
  002bb	c6 45 f6 00	 mov	 BYTE PTR __k$[ebp+26], 0
  002bf	5a		 pop	 edx
$LL104@LoadFloat_@5:
  002c0	81 30 ed ec eb
	ea		 xor	 DWORD PTR [eax], -353637139 ; eaebecedH
  002c6	83 c0 04	 add	 eax, 4
  002c9	4a		 dec	 edx
  002ca	75 f4		 jne	 SHORT $LL104@LoadFloat_@5
  002cc	6a 18		 push	 24			; 00000018H
  002ce	58		 pop	 eax
$LL101@LoadFloat_@5:
  002cf	8b c8		 mov	 ecx, eax
  002d1	81 e1 03 00 00
	80		 and	 ecx, -2147483645	; 80000003H
  002d7	79 05		 jns	 SHORT $LN111@LoadFloat_@5
  002d9	49		 dec	 ecx
  002da	83 c9 fc	 or	 ecx, -4			; fffffffcH
  002dd	41		 inc	 ecx
$LN111@LoadFloat_@5:
  002de	b2 ed		 mov	 dl, -19			; ffffffedH
  002e0	2a d1		 sub	 dl, cl
  002e2	30 54 05 dc	 xor	 BYTE PTR __k$[ebp+eax], dl
  002e6	40		 inc	 eax
  002e7	83 f8 1a	 cmp	 eax, 26			; 0000001aH
  002ea	7c e3		 jl	 SHORT $LL101@LoadFloat_@5

; 137  : 		return LoadFloat(_k, f);

  002ec	f3 0f 10 45 0c	 movss	 xmm0, DWORD PTR _f$[ebp]
  002f1	51		 push	 ecx
  002f2	8d 45 dc	 lea	 eax, DWORD PTR __k$[ebp]
  002f5	f3 0f 11 04 24	 movss	 DWORD PTR [esp], xmm0
  002fa	50		 push	 eax
  002fb	8b ce		 mov	 ecx, esi
  002fd	ff 15 00 00 00
	00		 call	 DWORD PTR __imp_?LoadFloat@ioINILoader@@QAEMPBDM@Z

; 138  : 	}

  00303	8b 4d fc	 mov	 ecx, DWORD PTR __$ArrayPad$[ebp]
  00306	5e		 pop	 esi
  00307	33 cd		 xor	 ecx, ebp
  00309	5b		 pop	 ebx
  0030a	e8 00 00 00 00	 call	 @__security_check_cookie@4
  0030f	c9		 leave
  00310	c2 08 00	 ret	 8
??$LoadFloat_e@$0BL@@ioINILoader@@QAEMAAY0BL@$$CBDM@Z ENDP ; ioINILoader::LoadFloat_e<27>
_TEXT	ENDS
PUBLIC	__$ArrayPad$
PUBLIC	??$LoadFloat_e@$0CC@@ioINILoader@@QAEMAAY0CC@$$CBDM@Z ; ioINILoader::LoadFloat_e<34>
; Function compile flags: /Ogsp
;	COMDAT ??$LoadFloat_e@$0CC@@ioINILoader@@QAEMAAY0CC@$$CBDM@Z
_TEXT	SEGMENT
__k$ = -44						; size = 34
__$ArrayPad$ = -4					; size = 4
_k$ = 8							; size = 4
_f$ = 12						; size = 4
??$LoadFloat_e@$0CC@@ioINILoader@@QAEMAAY0CC@$$CBDM@Z PROC ; ioINILoader::LoadFloat_e<34>, COMDAT
; _this$ = ecx

; 135  : 	{

  00000	55		 push	 ebp
  00001	8b ec		 mov	 ebp, esp
  00003	83 ec 2c	 sub	 esp, 44			; 0000002cH
  00006	a1 00 00 00 00	 mov	 eax, DWORD PTR ___security_cookie
  0000b	33 c5		 xor	 eax, ebp
  0000d	89 45 fc	 mov	 DWORD PTR __$ArrayPad$[ebp], eax
  00010	8b 45 08	 mov	 eax, DWORD PTR _k$[ebp]

; 136  : 		_ENCSTR(k, _k);

  00013	8a 10		 mov	 dl, BYTE PTR [eax]
  00015	53		 push	 ebx
  00016	56		 push	 esi
  00017	8b f1		 mov	 esi, ecx
  00019	84 d2		 test	 dl, dl
  0001b	0f 84 41 03 00
	00		 je	 $LN96@LoadFloat_@6
  00021	80 f2 ed	 xor	 dl, -19			; ffffffedH
  00024	88 55 d4	 mov	 BYTE PTR __k$[ebp], dl
  00027	8a 50 01	 mov	 dl, BYTE PTR [eax+1]
  0002a	84 d2		 test	 dl, dl
  0002c	0f 84 2a 03 00
	00		 je	 $LN95@LoadFloat_@6
  00032	80 f2 ec	 xor	 dl, -20			; ffffffecH
  00035	88 55 d5	 mov	 BYTE PTR __k$[ebp+1], dl
  00038	8a 50 02	 mov	 dl, BYTE PTR [eax+2]
  0003b	84 d2		 test	 dl, dl
  0003d	0f 84 13 03 00
	00		 je	 $LN94@LoadFloat_@6
  00043	b1 eb		 mov	 cl, -21			; ffffffebH
  00045	32 d1		 xor	 dl, cl
  00047	88 55 d6	 mov	 BYTE PTR __k$[ebp+2], dl
  0004a	8a 50 03	 mov	 dl, BYTE PTR [eax+3]
  0004d	84 d2		 test	 dl, dl
  0004f	0f 84 fb 02 00
	00		 je	 $LN93@LoadFloat_@6
  00055	b3 ea		 mov	 bl, -22			; ffffffeaH
  00057	32 d3		 xor	 dl, bl
  00059	88 55 d7	 mov	 BYTE PTR __k$[ebp+3], dl
  0005c	8a 50 04	 mov	 dl, BYTE PTR [eax+4]
  0005f	84 d2		 test	 dl, dl
  00061	0f 84 e3 02 00
	00		 je	 $LN92@LoadFloat_@6
  00067	80 f2 ed	 xor	 dl, -19			; ffffffedH
  0006a	88 55 d8	 mov	 BYTE PTR __k$[ebp+4], dl
  0006d	8a 50 05	 mov	 dl, BYTE PTR [eax+5]
  00070	84 d2		 test	 dl, dl
  00072	0f 84 cc 02 00
	00		 je	 $LN91@LoadFloat_@6
  00078	80 f2 ec	 xor	 dl, -20			; ffffffecH
  0007b	88 55 d9	 mov	 BYTE PTR __k$[ebp+5], dl
  0007e	8a 50 06	 mov	 dl, BYTE PTR [eax+6]
  00081	84 d2		 test	 dl, dl
  00083	0f 84 b6 02 00
	00		 je	 $LN90@LoadFloat_@6
  00089	32 d1		 xor	 dl, cl
  0008b	88 55 da	 mov	 BYTE PTR __k$[ebp+6], dl
  0008e	8a 50 07	 mov	 dl, BYTE PTR [eax+7]
  00091	84 d2		 test	 dl, dl
  00093	0f 84 a1 02 00
	00		 je	 $LN89@LoadFloat_@6
  00099	32 d3		 xor	 dl, bl
  0009b	88 55 db	 mov	 BYTE PTR __k$[ebp+7], dl
  0009e	8a 50 08	 mov	 dl, BYTE PTR [eax+8]
  000a1	84 d2		 test	 dl, dl
  000a3	0f 84 8b 02 00
	00		 je	 $LN88@LoadFloat_@6
  000a9	80 f2 ed	 xor	 dl, -19			; ffffffedH
  000ac	88 55 dc	 mov	 BYTE PTR __k$[ebp+8], dl
  000af	8a 50 09	 mov	 dl, BYTE PTR [eax+9]
  000b2	84 d2		 test	 dl, dl
  000b4	0f 84 74 02 00
	00		 je	 $LN87@LoadFloat_@6
  000ba	80 f2 ec	 xor	 dl, -20			; ffffffecH
  000bd	88 55 dd	 mov	 BYTE PTR __k$[ebp+9], dl
  000c0	8a 50 0a	 mov	 dl, BYTE PTR [eax+10]
  000c3	84 d2		 test	 dl, dl
  000c5	0f 84 5e 02 00
	00		 je	 $LN86@LoadFloat_@6
  000cb	32 d1		 xor	 dl, cl
  000cd	88 55 de	 mov	 BYTE PTR __k$[ebp+10], dl
  000d0	8a 50 0b	 mov	 dl, BYTE PTR [eax+11]
  000d3	84 d2		 test	 dl, dl
  000d5	0f 84 49 02 00
	00		 je	 $LN85@LoadFloat_@6
  000db	32 d3		 xor	 dl, bl
  000dd	88 55 df	 mov	 BYTE PTR __k$[ebp+11], dl
  000e0	8a 50 0c	 mov	 dl, BYTE PTR [eax+12]
  000e3	84 d2		 test	 dl, dl
  000e5	0f 84 33 02 00
	00		 je	 $LN84@LoadFloat_@6
  000eb	80 f2 ed	 xor	 dl, -19			; ffffffedH
  000ee	88 55 e0	 mov	 BYTE PTR __k$[ebp+12], dl
  000f1	8a 50 0d	 mov	 dl, BYTE PTR [eax+13]
  000f4	84 d2		 test	 dl, dl
  000f6	0f 84 1c 02 00
	00		 je	 $LN83@LoadFloat_@6
  000fc	80 f2 ec	 xor	 dl, -20			; ffffffecH
  000ff	88 55 e1	 mov	 BYTE PTR __k$[ebp+13], dl
  00102	8a 50 0e	 mov	 dl, BYTE PTR [eax+14]
  00105	84 d2		 test	 dl, dl
  00107	0f 84 06 02 00
	00		 je	 $LN82@LoadFloat_@6
  0010d	32 d1		 xor	 dl, cl
  0010f	88 55 e2	 mov	 BYTE PTR __k$[ebp+14], dl
  00112	8a 50 0f	 mov	 dl, BYTE PTR [eax+15]
  00115	84 d2		 test	 dl, dl
  00117	0f 84 f1 01 00
	00		 je	 $LN81@LoadFloat_@6
  0011d	32 d3		 xor	 dl, bl
  0011f	88 55 e3	 mov	 BYTE PTR __k$[ebp+15], dl
  00122	8a 50 10	 mov	 dl, BYTE PTR [eax+16]
  00125	84 d2		 test	 dl, dl
  00127	0f 84 db 01 00
	00		 je	 $LN80@LoadFloat_@6
  0012d	80 f2 ed	 xor	 dl, -19			; ffffffedH
  00130	88 55 e4	 mov	 BYTE PTR __k$[ebp+16], dl
  00133	8a 50 11	 mov	 dl, BYTE PTR [eax+17]
  00136	84 d2		 test	 dl, dl
  00138	0f 84 c4 01 00
	00		 je	 $LN79@LoadFloat_@6
  0013e	80 f2 ec	 xor	 dl, -20			; ffffffecH
  00141	88 55 e5	 mov	 BYTE PTR __k$[ebp+17], dl
  00144	8a 50 12	 mov	 dl, BYTE PTR [eax+18]
  00147	84 d2		 test	 dl, dl
  00149	0f 84 ae 01 00
	00		 je	 $LN78@LoadFloat_@6
  0014f	32 d1		 xor	 dl, cl
  00151	88 55 e6	 mov	 BYTE PTR __k$[ebp+18], dl
  00154	8a 50 13	 mov	 dl, BYTE PTR [eax+19]
  00157	84 d2		 test	 dl, dl
  00159	0f 84 99 01 00
	00		 je	 $LN77@LoadFloat_@6
  0015f	32 d3		 xor	 dl, bl
  00161	88 55 e7	 mov	 BYTE PTR __k$[ebp+19], dl
  00164	8a 50 14	 mov	 dl, BYTE PTR [eax+20]
  00167	84 d2		 test	 dl, dl
  00169	0f 84 83 01 00
	00		 je	 $LN76@LoadFloat_@6
  0016f	80 f2 ed	 xor	 dl, -19			; ffffffedH
  00172	88 55 e8	 mov	 BYTE PTR __k$[ebp+20], dl
  00175	8a 50 15	 mov	 dl, BYTE PTR [eax+21]
  00178	84 d2		 test	 dl, dl
  0017a	0f 84 6c 01 00
	00		 je	 $LN75@LoadFloat_@6
  00180	80 f2 ec	 xor	 dl, -20			; ffffffecH
  00183	88 55 e9	 mov	 BYTE PTR __k$[ebp+21], dl
  00186	8a 50 16	 mov	 dl, BYTE PTR [eax+22]
  00189	84 d2		 test	 dl, dl
  0018b	0f 84 56 01 00
	00		 je	 $LN74@LoadFloat_@6
  00191	32 d1		 xor	 dl, cl
  00193	88 55 ea	 mov	 BYTE PTR __k$[ebp+22], dl
  00196	8a 50 17	 mov	 dl, BYTE PTR [eax+23]
  00199	84 d2		 test	 dl, dl
  0019b	0f 84 41 01 00
	00		 je	 $LN73@LoadFloat_@6
  001a1	32 d3		 xor	 dl, bl
  001a3	88 55 eb	 mov	 BYTE PTR __k$[ebp+23], dl
  001a6	8a 50 18	 mov	 dl, BYTE PTR [eax+24]
  001a9	84 d2		 test	 dl, dl
  001ab	0f 84 28 01 00
	00		 je	 $LN72@LoadFloat_@6
  001b1	80 f2 ed	 xor	 dl, -19			; ffffffedH
  001b4	88 55 ec	 mov	 BYTE PTR __k$[ebp+24], dl
  001b7	8a 50 19	 mov	 dl, BYTE PTR [eax+25]
  001ba	84 d2		 test	 dl, dl
  001bc	0f 84 0e 01 00
	00		 je	 $LN71@LoadFloat_@6
  001c2	80 f2 ec	 xor	 dl, -20			; ffffffecH
  001c5	88 55 ed	 mov	 BYTE PTR __k$[ebp+25], dl
  001c8	8a 50 1a	 mov	 dl, BYTE PTR [eax+26]
  001cb	84 d2		 test	 dl, dl
  001cd	0f 84 f5 00 00
	00		 je	 $LN70@LoadFloat_@6
  001d3	32 d1		 xor	 dl, cl
  001d5	88 55 ee	 mov	 BYTE PTR __k$[ebp+26], dl
  001d8	8a 50 1b	 mov	 dl, BYTE PTR [eax+27]
  001db	84 d2		 test	 dl, dl
  001dd	0f 84 dd 00 00
	00		 je	 $LN69@LoadFloat_@6
  001e3	32 d3		 xor	 dl, bl
  001e5	88 55 ef	 mov	 BYTE PTR __k$[ebp+27], dl
  001e8	8a 50 1c	 mov	 dl, BYTE PTR [eax+28]
  001eb	84 d2		 test	 dl, dl
  001ed	0f 84 c4 00 00
	00		 je	 $LN68@LoadFloat_@6
  001f3	80 f2 ed	 xor	 dl, -19			; ffffffedH
  001f6	88 55 f0	 mov	 BYTE PTR __k$[ebp+28], dl
  001f9	8a 50 1d	 mov	 dl, BYTE PTR [eax+29]
  001fc	84 d2		 test	 dl, dl
  001fe	0f 84 aa 00 00
	00		 je	 $LN67@LoadFloat_@6
  00204	80 f2 ec	 xor	 dl, -20			; ffffffecH
  00207	88 55 f1	 mov	 BYTE PTR __k$[ebp+29], dl
  0020a	8a 50 1e	 mov	 dl, BYTE PTR [eax+30]
  0020d	84 d2		 test	 dl, dl
  0020f	0f 84 91 00 00
	00		 je	 $LN66@LoadFloat_@6
  00215	32 d1		 xor	 dl, cl
  00217	88 55 f2	 mov	 BYTE PTR __k$[ebp+30], dl
  0021a	8a 50 1f	 mov	 dl, BYTE PTR [eax+31]
  0021d	84 d2		 test	 dl, dl
  0021f	74 7d		 je	 SHORT $LN65@LoadFloat_@6
  00221	32 d3		 xor	 dl, bl
  00223	88 55 f3	 mov	 BYTE PTR __k$[ebp+31], dl
  00226	8a 50 20	 mov	 dl, BYTE PTR [eax+32]
  00229	84 d2		 test	 dl, dl
  0022b	74 68		 je	 SHORT $LN64@LoadFloat_@6
  0022d	80 f2 ed	 xor	 dl, -19			; ffffffedH
  00230	80 78 21 00	 cmp	 BYTE PTR [eax+33], 0
  00234	88 55 f4	 mov	 BYTE PTR __k$[ebp+32], dl
  00237	0f 84 29 01 00
	00		 je	 $LN1@LoadFloat_@6
  0023d	8a 50 22	 mov	 dl, BYTE PTR [eax+34]
  00240	84 d2		 test	 dl, dl
  00242	74 49		 je	 SHORT $LN62@LoadFloat_@6
  00244	32 d1		 xor	 dl, cl
  00246	88 55 f6	 mov	 BYTE PTR __k$[ebp+34], dl
  00249	8a 50 23	 mov	 dl, BYTE PTR [eax+35]
  0024c	84 d2		 test	 dl, dl
  0024e	74 35		 je	 SHORT $LN61@LoadFloat_@6
  00250	32 d3		 xor	 dl, bl
  00252	88 55 f7	 mov	 BYTE PTR __k$[ebp+35], dl
  00255	8a 50 24	 mov	 dl, BYTE PTR [eax+36]
  00258	84 d2		 test	 dl, dl
  0025a	74 20		 je	 SHORT $LN60@LoadFloat_@6
  0025c	8a 40 25	 mov	 al, BYTE PTR [eax+37]
  0025f	80 f2 ed	 xor	 dl, -19			; ffffffedH
  00262	88 55 f8	 mov	 BYTE PTR __k$[ebp+36], dl
  00265	84 c0		 test	 al, al
  00267	74 0a		 je	 SHORT $LN59@LoadFloat_@6
  00269	34 ec		 xor	 al, -20			; ffffffecH
  0026b	88 45 f9	 mov	 BYTE PTR __k$[ebp+37], al
  0026e	e9 f3 00 00 00	 jmp	 $LN1@LoadFloat_@6
$LN59@LoadFloat_@6:
  00273	c6 45 f9 ec	 mov	 BYTE PTR __k$[ebp+37], -20 ; ffffffecH
  00277	e9 ea 00 00 00	 jmp	 $LN1@LoadFloat_@6
$LN60@LoadFloat_@6:
  0027c	c6 45 f8 ed	 mov	 BYTE PTR __k$[ebp+36], -19 ; ffffffedH
  00280	e9 e1 00 00 00	 jmp	 $LN1@LoadFloat_@6
$LN61@LoadFloat_@6:
  00285	88 5d f7	 mov	 BYTE PTR __k$[ebp+35], bl
  00288	e9 d9 00 00 00	 jmp	 $LN1@LoadFloat_@6
$LN62@LoadFloat_@6:
  0028d	88 4d f6	 mov	 BYTE PTR __k$[ebp+34], cl
  00290	e9 d1 00 00 00	 jmp	 $LN1@LoadFloat_@6
$LN64@LoadFloat_@6:
  00295	c6 45 f4 ed	 mov	 BYTE PTR __k$[ebp+32], -19 ; ffffffedH
  00299	e9 c8 00 00 00	 jmp	 $LN1@LoadFloat_@6
$LN65@LoadFloat_@6:
  0029e	88 5d f3	 mov	 BYTE PTR __k$[ebp+31], bl
  002a1	e9 c0 00 00 00	 jmp	 $LN1@LoadFloat_@6
$LN66@LoadFloat_@6:
  002a6	88 4d f2	 mov	 BYTE PTR __k$[ebp+30], cl
  002a9	e9 b8 00 00 00	 jmp	 $LN1@LoadFloat_@6
$LN67@LoadFloat_@6:
  002ae	c6 45 f1 ec	 mov	 BYTE PTR __k$[ebp+29], -20 ; ffffffecH
  002b2	e9 af 00 00 00	 jmp	 $LN1@LoadFloat_@6
$LN68@LoadFloat_@6:
  002b7	c6 45 f0 ed	 mov	 BYTE PTR __k$[ebp+28], -19 ; ffffffedH
  002bb	e9 a6 00 00 00	 jmp	 $LN1@LoadFloat_@6
$LN69@LoadFloat_@6:
  002c0	88 5d ef	 mov	 BYTE PTR __k$[ebp+27], bl
  002c3	e9 9e 00 00 00	 jmp	 $LN1@LoadFloat_@6
$LN70@LoadFloat_@6:
  002c8	88 4d ee	 mov	 BYTE PTR __k$[ebp+26], cl
  002cb	e9 96 00 00 00	 jmp	 $LN1@LoadFloat_@6
$LN71@LoadFloat_@6:
  002d0	c6 45 ed ec	 mov	 BYTE PTR __k$[ebp+25], -20 ; ffffffecH
  002d4	e9 8d 00 00 00	 jmp	 $LN1@LoadFloat_@6
$LN72@LoadFloat_@6:
  002d9	c6 45 ec ed	 mov	 BYTE PTR __k$[ebp+24], -19 ; ffffffedH
  002dd	e9 84 00 00 00	 jmp	 $LN1@LoadFloat_@6
$LN73@LoadFloat_@6:
  002e2	88 5d eb	 mov	 BYTE PTR __k$[ebp+23], bl
  002e5	eb 7f		 jmp	 SHORT $LN1@LoadFloat_@6
$LN74@LoadFloat_@6:
  002e7	88 4d ea	 mov	 BYTE PTR __k$[ebp+22], cl
  002ea	eb 7a		 jmp	 SHORT $LN1@LoadFloat_@6
$LN75@LoadFloat_@6:
  002ec	c6 45 e9 ec	 mov	 BYTE PTR __k$[ebp+21], -20 ; ffffffecH
  002f0	eb 74		 jmp	 SHORT $LN1@LoadFloat_@6
$LN76@LoadFloat_@6:
  002f2	c6 45 e8 ed	 mov	 BYTE PTR __k$[ebp+20], -19 ; ffffffedH
  002f6	eb 6e		 jmp	 SHORT $LN1@LoadFloat_@6
$LN77@LoadFloat_@6:
  002f8	88 5d e7	 mov	 BYTE PTR __k$[ebp+19], bl
  002fb	eb 69		 jmp	 SHORT $LN1@LoadFloat_@6
$LN78@LoadFloat_@6:
  002fd	88 4d e6	 mov	 BYTE PTR __k$[ebp+18], cl
  00300	eb 64		 jmp	 SHORT $LN1@LoadFloat_@6
$LN79@LoadFloat_@6:
  00302	c6 45 e5 ec	 mov	 BYTE PTR __k$[ebp+17], -20 ; ffffffecH
  00306	eb 5e		 jmp	 SHORT $LN1@LoadFloat_@6
$LN80@LoadFloat_@6:
  00308	c6 45 e4 ed	 mov	 BYTE PTR __k$[ebp+16], -19 ; ffffffedH
  0030c	eb 58		 jmp	 SHORT $LN1@LoadFloat_@6
$LN81@LoadFloat_@6:
  0030e	88 5d e3	 mov	 BYTE PTR __k$[ebp+15], bl
  00311	eb 53		 jmp	 SHORT $LN1@LoadFloat_@6
$LN82@LoadFloat_@6:
  00313	88 4d e2	 mov	 BYTE PTR __k$[ebp+14], cl
  00316	eb 4e		 jmp	 SHORT $LN1@LoadFloat_@6
$LN83@LoadFloat_@6:
  00318	c6 45 e1 ec	 mov	 BYTE PTR __k$[ebp+13], -20 ; ffffffecH
  0031c	eb 48		 jmp	 SHORT $LN1@LoadFloat_@6
$LN84@LoadFloat_@6:
  0031e	c6 45 e0 ed	 mov	 BYTE PTR __k$[ebp+12], -19 ; ffffffedH
  00322	eb 42		 jmp	 SHORT $LN1@LoadFloat_@6
$LN85@LoadFloat_@6:
  00324	88 5d df	 mov	 BYTE PTR __k$[ebp+11], bl
  00327	eb 3d		 jmp	 SHORT $LN1@LoadFloat_@6
$LN86@LoadFloat_@6:
  00329	88 4d de	 mov	 BYTE PTR __k$[ebp+10], cl
  0032c	eb 38		 jmp	 SHORT $LN1@LoadFloat_@6
$LN87@LoadFloat_@6:
  0032e	c6 45 dd ec	 mov	 BYTE PTR __k$[ebp+9], -20 ; ffffffecH
  00332	eb 32		 jmp	 SHORT $LN1@LoadFloat_@6
$LN88@LoadFloat_@6:
  00334	c6 45 dc ed	 mov	 BYTE PTR __k$[ebp+8], -19 ; ffffffedH
  00338	eb 2c		 jmp	 SHORT $LN1@LoadFloat_@6
$LN89@LoadFloat_@6:
  0033a	88 5d db	 mov	 BYTE PTR __k$[ebp+7], bl
  0033d	eb 27		 jmp	 SHORT $LN1@LoadFloat_@6
$LN90@LoadFloat_@6:
  0033f	88 4d da	 mov	 BYTE PTR __k$[ebp+6], cl
  00342	eb 22		 jmp	 SHORT $LN1@LoadFloat_@6
$LN91@LoadFloat_@6:
  00344	c6 45 d9 ec	 mov	 BYTE PTR __k$[ebp+5], -20 ; ffffffecH
  00348	eb 1c		 jmp	 SHORT $LN1@LoadFloat_@6
$LN92@LoadFloat_@6:
  0034a	c6 45 d8 ed	 mov	 BYTE PTR __k$[ebp+4], -19 ; ffffffedH
  0034e	eb 16		 jmp	 SHORT $LN1@LoadFloat_@6
$LN93@LoadFloat_@6:
  00350	c6 45 d7 ea	 mov	 BYTE PTR __k$[ebp+3], -22 ; ffffffeaH
  00354	eb 10		 jmp	 SHORT $LN1@LoadFloat_@6
$LN94@LoadFloat_@6:
  00356	c6 45 d6 eb	 mov	 BYTE PTR __k$[ebp+2], -21 ; ffffffebH
  0035a	eb 0a		 jmp	 SHORT $LN1@LoadFloat_@6
$LN95@LoadFloat_@6:
  0035c	c6 45 d5 ec	 mov	 BYTE PTR __k$[ebp+1], -20 ; ffffffecH
  00360	eb 04		 jmp	 SHORT $LN1@LoadFloat_@6
$LN96@LoadFloat_@6:
  00362	c6 45 d4 ed	 mov	 BYTE PTR __k$[ebp], -19	; ffffffedH
$LN1@LoadFloat_@6:
  00366	6a 08		 push	 8
  00368	8d 45 d4	 lea	 eax, DWORD PTR __k$[ebp]
  0036b	c6 45 f5 00	 mov	 BYTE PTR __k$[ebp+33], 0
  0036f	5a		 pop	 edx
$LL104@LoadFloat_@6:
  00370	81 30 ed ec eb
	ea		 xor	 DWORD PTR [eax], -353637139 ; eaebecedH
  00376	83 c0 04	 add	 eax, 4
  00379	4a		 dec	 edx
  0037a	75 f4		 jne	 SHORT $LL104@LoadFloat_@6

; 137  : 		return LoadFloat(_k, f);

  0037c	f3 0f 10 45 0c	 movss	 xmm0, DWORD PTR _f$[ebp]
  00381	80 75 f4 ed	 xor	 BYTE PTR __k$[ebp+32], -19 ; ffffffedH
  00385	51		 push	 ecx
  00386	8d 45 d4	 lea	 eax, DWORD PTR __k$[ebp]
  00389	f3 0f 11 04 24	 movss	 DWORD PTR [esp], xmm0
  0038e	50		 push	 eax
  0038f	8b ce		 mov	 ecx, esi
  00391	ff 15 00 00 00
	00		 call	 DWORD PTR __imp_?LoadFloat@ioINILoader@@QAEMPBDM@Z

; 138  : 	}

  00397	8b 4d fc	 mov	 ecx, DWORD PTR __$ArrayPad$[ebp]
  0039a	5e		 pop	 esi
  0039b	33 cd		 xor	 ecx, ebp
  0039d	5b		 pop	 ebx
  0039e	e8 00 00 00 00	 call	 @__security_check_cookie@4
  003a3	c9		 leave
  003a4	c2 08 00	 ret	 8
??$LoadFloat_e@$0CC@@ioINILoader@@QAEMAAY0CC@$$CBDM@Z ENDP ; ioINILoader::LoadFloat_e<34>
_TEXT	ENDS
PUBLIC	__$ArrayPad$
PUBLIC	??$LoadInt_e@$0BD@@ioINILoader@@QAEHAAY0BD@$$CBDH@Z ; ioINILoader::LoadInt_e<19>
; Function compile flags: /Ogsp
;	COMDAT ??$LoadInt_e@$0BD@@ioINILoader@@QAEHAAY0BD@$$CBDH@Z
_TEXT	SEGMENT
__k$ = -28						; size = 19
__$ArrayPad$ = -4					; size = 4
_k$ = 8							; size = 4
_i$ = 12						; size = 4
??$LoadInt_e@$0BD@@ioINILoader@@QAEHAAY0BD@$$CBDH@Z PROC ; ioINILoader::LoadInt_e<19>, COMDAT
; _this$ = ecx

; 118  : 	{

  00000	55		 push	 ebp
  00001	8b ec		 mov	 ebp, esp
  00003	83 ec 1c	 sub	 esp, 28			; 0000001cH
  00006	a1 00 00 00 00	 mov	 eax, DWORD PTR ___security_cookie
  0000b	33 c5		 xor	 eax, ebp
  0000d	89 45 fc	 mov	 DWORD PTR __$ArrayPad$[ebp], eax
  00010	8b 45 08	 mov	 eax, DWORD PTR _k$[ebp]

; 119  : 		_ENCSTR(k, _k);

  00013	8a 10		 mov	 dl, BYTE PTR [eax]
  00015	56		 push	 esi
  00016	8b f1		 mov	 esi, ecx
  00018	84 d2		 test	 dl, dl
  0001a	0f 84 cf 01 00
	00		 je	 $LN96@LoadInt_e@5
  00020	80 f2 ed	 xor	 dl, -19			; ffffffedH
  00023	88 55 e4	 mov	 BYTE PTR __k$[ebp], dl
  00026	8a 50 01	 mov	 dl, BYTE PTR [eax+1]
  00029	84 d2		 test	 dl, dl
  0002b	0f 84 b8 01 00
	00		 je	 $LN95@LoadInt_e@5
  00031	b1 ec		 mov	 cl, -20			; ffffffecH
  00033	32 d1		 xor	 dl, cl
  00035	88 55 e5	 mov	 BYTE PTR __k$[ebp+1], dl
  00038	8a 50 02	 mov	 dl, BYTE PTR [eax+2]
  0003b	84 d2		 test	 dl, dl
  0003d	0f 84 a0 01 00
	00		 je	 $LN94@LoadInt_e@5
  00043	80 f2 eb	 xor	 dl, -21			; ffffffebH
  00046	88 55 e6	 mov	 BYTE PTR __k$[ebp+2], dl
  00049	8a 50 03	 mov	 dl, BYTE PTR [eax+3]
  0004c	84 d2		 test	 dl, dl
  0004e	0f 84 89 01 00
	00		 je	 $LN93@LoadInt_e@5
  00054	80 f2 ea	 xor	 dl, -22			; ffffffeaH
  00057	88 55 e7	 mov	 BYTE PTR __k$[ebp+3], dl
  0005a	8a 50 04	 mov	 dl, BYTE PTR [eax+4]
  0005d	84 d2		 test	 dl, dl
  0005f	0f 84 72 01 00
	00		 je	 $LN92@LoadInt_e@5
  00065	80 f2 ed	 xor	 dl, -19			; ffffffedH
  00068	88 55 e8	 mov	 BYTE PTR __k$[ebp+4], dl
  0006b	8a 50 05	 mov	 dl, BYTE PTR [eax+5]
  0006e	84 d2		 test	 dl, dl
  00070	0f 84 5c 01 00
	00		 je	 $LN91@LoadInt_e@5
  00076	32 d1		 xor	 dl, cl
  00078	88 55 e9	 mov	 BYTE PTR __k$[ebp+5], dl
  0007b	8a 50 06	 mov	 dl, BYTE PTR [eax+6]
  0007e	84 d2		 test	 dl, dl
  00080	0f 84 46 01 00
	00		 je	 $LN90@LoadInt_e@5
  00086	80 f2 eb	 xor	 dl, -21			; ffffffebH
  00089	88 55 ea	 mov	 BYTE PTR __k$[ebp+6], dl
  0008c	8a 50 07	 mov	 dl, BYTE PTR [eax+7]
  0008f	84 d2		 test	 dl, dl
  00091	0f 84 2f 01 00
	00		 je	 $LN89@LoadInt_e@5
  00097	80 f2 ea	 xor	 dl, -22			; ffffffeaH
  0009a	88 55 eb	 mov	 BYTE PTR __k$[ebp+7], dl
  0009d	8a 50 08	 mov	 dl, BYTE PTR [eax+8]
  000a0	84 d2		 test	 dl, dl
  000a2	0f 84 18 01 00
	00		 je	 $LN88@LoadInt_e@5
  000a8	80 f2 ed	 xor	 dl, -19			; ffffffedH
  000ab	88 55 ec	 mov	 BYTE PTR __k$[ebp+8], dl
  000ae	8a 50 09	 mov	 dl, BYTE PTR [eax+9]
  000b1	84 d2		 test	 dl, dl
  000b3	0f 84 02 01 00
	00		 je	 $LN87@LoadInt_e@5
  000b9	32 d1		 xor	 dl, cl
  000bb	88 55 ed	 mov	 BYTE PTR __k$[ebp+9], dl
  000be	8a 50 0a	 mov	 dl, BYTE PTR [eax+10]
  000c1	84 d2		 test	 dl, dl
  000c3	0f 84 ec 00 00
	00		 je	 $LN86@LoadInt_e@5
  000c9	80 f2 eb	 xor	 dl, -21			; ffffffebH
  000cc	88 55 ee	 mov	 BYTE PTR __k$[ebp+10], dl
  000cf	8a 50 0b	 mov	 dl, BYTE PTR [eax+11]
  000d2	84 d2		 test	 dl, dl
  000d4	0f 84 d5 00 00
	00		 je	 $LN85@LoadInt_e@5
  000da	80 f2 ea	 xor	 dl, -22			; ffffffeaH
  000dd	88 55 ef	 mov	 BYTE PTR __k$[ebp+11], dl
  000e0	8a 50 0c	 mov	 dl, BYTE PTR [eax+12]
  000e3	84 d2		 test	 dl, dl
  000e5	0f 84 be 00 00
	00		 je	 $LN84@LoadInt_e@5
  000eb	80 f2 ed	 xor	 dl, -19			; ffffffedH
  000ee	88 55 f0	 mov	 BYTE PTR __k$[ebp+12], dl
  000f1	8a 50 0d	 mov	 dl, BYTE PTR [eax+13]
  000f4	84 d2		 test	 dl, dl
  000f6	0f 84 a8 00 00
	00		 je	 $LN83@LoadInt_e@5
  000fc	32 d1		 xor	 dl, cl
  000fe	88 55 f1	 mov	 BYTE PTR __k$[ebp+13], dl
  00101	8a 50 0e	 mov	 dl, BYTE PTR [eax+14]
  00104	84 d2		 test	 dl, dl
  00106	0f 84 92 00 00
	00		 je	 $LN82@LoadInt_e@5
  0010c	80 f2 eb	 xor	 dl, -21			; ffffffebH
  0010f	88 55 f2	 mov	 BYTE PTR __k$[ebp+14], dl
  00112	8a 50 0f	 mov	 dl, BYTE PTR [eax+15]
  00115	84 d2		 test	 dl, dl
  00117	74 7f		 je	 SHORT $LN81@LoadInt_e@5
  00119	80 f2 ea	 xor	 dl, -22			; ffffffeaH
  0011c	88 55 f3	 mov	 BYTE PTR __k$[ebp+15], dl
  0011f	8a 50 10	 mov	 dl, BYTE PTR [eax+16]
  00122	84 d2		 test	 dl, dl
  00124	74 6c		 je	 SHORT $LN80@LoadInt_e@5
  00126	80 f2 ed	 xor	 dl, -19			; ffffffedH
  00129	88 55 f4	 mov	 BYTE PTR __k$[ebp+16], dl
  0012c	8a 50 11	 mov	 dl, BYTE PTR [eax+17]
  0012f	84 d2		 test	 dl, dl
  00131	74 5a		 je	 SHORT $LN79@LoadInt_e@5
  00133	32 d1		 xor	 dl, cl
  00135	80 78 12 00	 cmp	 BYTE PTR [eax+18], 0
  00139	88 55 f5	 mov	 BYTE PTR __k$[ebp+17], dl
  0013c	0f 84 b1 00 00
	00		 je	 $LN1@LoadInt_e@5
  00142	8a 50 13	 mov	 dl, BYTE PTR [eax+19]
  00145	84 d2		 test	 dl, dl
  00147	74 3e		 je	 SHORT $LN77@LoadInt_e@5
  00149	80 f2 ea	 xor	 dl, -22			; ffffffeaH
  0014c	88 55 f7	 mov	 BYTE PTR __k$[ebp+19], dl
  0014f	8a 50 14	 mov	 dl, BYTE PTR [eax+20]
  00152	84 d2		 test	 dl, dl
  00154	74 2b		 je	 SHORT $LN76@LoadInt_e@5
  00156	80 f2 ed	 xor	 dl, -19			; ffffffedH
  00159	88 55 f8	 mov	 BYTE PTR __k$[ebp+20], dl
  0015c	8a 50 15	 mov	 dl, BYTE PTR [eax+21]
  0015f	84 d2		 test	 dl, dl
  00161	74 19		 je	 SHORT $LN75@LoadInt_e@5
  00163	8a 40 16	 mov	 al, BYTE PTR [eax+22]
  00166	32 d1		 xor	 dl, cl
  00168	88 55 f9	 mov	 BYTE PTR __k$[ebp+21], dl
  0016b	84 c0		 test	 al, al
  0016d	74 07		 je	 SHORT $LN74@LoadInt_e@5
  0016f	34 eb		 xor	 al, -21			; ffffffebH
  00171	88 45 fa	 mov	 BYTE PTR __k$[ebp+22], al
  00174	eb 7d		 jmp	 SHORT $LN1@LoadInt_e@5
$LN74@LoadInt_e@5:
  00176	c6 45 fa eb	 mov	 BYTE PTR __k$[ebp+22], -21 ; ffffffebH
  0017a	eb 77		 jmp	 SHORT $LN1@LoadInt_e@5
$LN75@LoadInt_e@5:
  0017c	88 4d f9	 mov	 BYTE PTR __k$[ebp+21], cl
  0017f	eb 72		 jmp	 SHORT $LN1@LoadInt_e@5
$LN76@LoadInt_e@5:
  00181	c6 45 f8 ed	 mov	 BYTE PTR __k$[ebp+20], -19 ; ffffffedH
  00185	eb 6c		 jmp	 SHORT $LN1@LoadInt_e@5
$LN77@LoadInt_e@5:
  00187	c6 45 f7 ea	 mov	 BYTE PTR __k$[ebp+19], -22 ; ffffffeaH
  0018b	eb 66		 jmp	 SHORT $LN1@LoadInt_e@5
$LN79@LoadInt_e@5:
  0018d	88 4d f5	 mov	 BYTE PTR __k$[ebp+17], cl
  00190	eb 61		 jmp	 SHORT $LN1@LoadInt_e@5
$LN80@LoadInt_e@5:
  00192	c6 45 f4 ed	 mov	 BYTE PTR __k$[ebp+16], -19 ; ffffffedH
  00196	eb 5b		 jmp	 SHORT $LN1@LoadInt_e@5
$LN81@LoadInt_e@5:
  00198	c6 45 f3 ea	 mov	 BYTE PTR __k$[ebp+15], -22 ; ffffffeaH
  0019c	eb 55		 jmp	 SHORT $LN1@LoadInt_e@5
$LN82@LoadInt_e@5:
  0019e	c6 45 f2 eb	 mov	 BYTE PTR __k$[ebp+14], -21 ; ffffffebH
  001a2	eb 4f		 jmp	 SHORT $LN1@LoadInt_e@5
$LN83@LoadInt_e@5:
  001a4	88 4d f1	 mov	 BYTE PTR __k$[ebp+13], cl
  001a7	eb 4a		 jmp	 SHORT $LN1@LoadInt_e@5
$LN84@LoadInt_e@5:
  001a9	c6 45 f0 ed	 mov	 BYTE PTR __k$[ebp+12], -19 ; ffffffedH
  001ad	eb 44		 jmp	 SHORT $LN1@LoadInt_e@5
$LN85@LoadInt_e@5:
  001af	c6 45 ef ea	 mov	 BYTE PTR __k$[ebp+11], -22 ; ffffffeaH
  001b3	eb 3e		 jmp	 SHORT $LN1@LoadInt_e@5
$LN86@LoadInt_e@5:
  001b5	c6 45 ee eb	 mov	 BYTE PTR __k$[ebp+10], -21 ; ffffffebH
  001b9	eb 38		 jmp	 SHORT $LN1@LoadInt_e@5
$LN87@LoadInt_e@5:
  001bb	88 4d ed	 mov	 BYTE PTR __k$[ebp+9], cl
  001be	eb 33		 jmp	 SHORT $LN1@LoadInt_e@5
$LN88@LoadInt_e@5:
  001c0	c6 45 ec ed	 mov	 BYTE PTR __k$[ebp+8], -19 ; ffffffedH
  001c4	eb 2d		 jmp	 SHORT $LN1@LoadInt_e@5
$LN89@LoadInt_e@5:
  001c6	c6 45 eb ea	 mov	 BYTE PTR __k$[ebp+7], -22 ; ffffffeaH
  001ca	eb 27		 jmp	 SHORT $LN1@LoadInt_e@5
$LN90@LoadInt_e@5:
  001cc	c6 45 ea eb	 mov	 BYTE PTR __k$[ebp+6], -21 ; ffffffebH
  001d0	eb 21		 jmp	 SHORT $LN1@LoadInt_e@5
$LN91@LoadInt_e@5:
  001d2	88 4d e9	 mov	 BYTE PTR __k$[ebp+5], cl
  001d5	eb 1c		 jmp	 SHORT $LN1@LoadInt_e@5
$LN92@LoadInt_e@5:
  001d7	c6 45 e8 ed	 mov	 BYTE PTR __k$[ebp+4], -19 ; ffffffedH
  001db	eb 16		 jmp	 SHORT $LN1@LoadInt_e@5
$LN93@LoadInt_e@5:
  001dd	c6 45 e7 ea	 mov	 BYTE PTR __k$[ebp+3], -22 ; ffffffeaH
  001e1	eb 10		 jmp	 SHORT $LN1@LoadInt_e@5
$LN94@LoadInt_e@5:
  001e3	c6 45 e6 eb	 mov	 BYTE PTR __k$[ebp+2], -21 ; ffffffebH
  001e7	eb 0a		 jmp	 SHORT $LN1@LoadInt_e@5
$LN95@LoadInt_e@5:
  001e9	c6 45 e5 ec	 mov	 BYTE PTR __k$[ebp+1], -20 ; ffffffecH
  001ed	eb 04		 jmp	 SHORT $LN1@LoadInt_e@5
$LN96@LoadInt_e@5:
  001ef	c6 45 e4 ed	 mov	 BYTE PTR __k$[ebp], -19	; ffffffedH
$LN1@LoadInt_e@5:
  001f3	6a 04		 push	 4
  001f5	8d 45 e4	 lea	 eax, DWORD PTR __k$[ebp]
  001f8	c6 45 f6 00	 mov	 BYTE PTR __k$[ebp+18], 0
  001fc	5a		 pop	 edx
$LL104@LoadInt_e@5:
  001fd	81 30 ed ec eb
	ea		 xor	 DWORD PTR [eax], -353637139 ; eaebecedH
  00203	83 c0 04	 add	 eax, 4
  00206	4a		 dec	 edx
  00207	75 f4		 jne	 SHORT $LL104@LoadInt_e@5
  00209	6a 10		 push	 16			; 00000010H
  0020b	58		 pop	 eax
$LL101@LoadInt_e@5:
  0020c	8b c8		 mov	 ecx, eax
  0020e	81 e1 03 00 00
	80		 and	 ecx, -2147483645	; 80000003H
  00214	79 05		 jns	 SHORT $LN111@LoadInt_e@5
  00216	49		 dec	 ecx
  00217	83 c9 fc	 or	 ecx, -4			; fffffffcH
  0021a	41		 inc	 ecx
$LN111@LoadInt_e@5:
  0021b	b2 ed		 mov	 dl, -19			; ffffffedH
  0021d	2a d1		 sub	 dl, cl
  0021f	30 54 05 e4	 xor	 BYTE PTR __k$[ebp+eax], dl
  00223	40		 inc	 eax
  00224	83 f8 12	 cmp	 eax, 18			; 00000012H
  00227	7c e3		 jl	 SHORT $LL101@LoadInt_e@5

; 120  : 		return LoadInt(_k, i);

  00229	ff 75 0c	 push	 DWORD PTR _i$[ebp]
  0022c	8d 45 e4	 lea	 eax, DWORD PTR __k$[ebp]
  0022f	50		 push	 eax
  00230	8b ce		 mov	 ecx, esi
  00232	ff 15 00 00 00
	00		 call	 DWORD PTR __imp_?LoadInt@ioINILoader@@QAEHPBDH@Z

; 121  : 	}

  00238	8b 4d fc	 mov	 ecx, DWORD PTR __$ArrayPad$[ebp]
  0023b	33 cd		 xor	 ecx, ebp
  0023d	5e		 pop	 esi
  0023e	e8 00 00 00 00	 call	 @__security_check_cookie@4
  00243	c9		 leave
  00244	c2 08 00	 ret	 8
??$LoadInt_e@$0BD@@ioINILoader@@QAEHAAY0BD@$$CBDH@Z ENDP ; ioINILoader::LoadInt_e<19>
_TEXT	ENDS
PUBLIC	??$_Cons_val@V?$allocator@UKeyMapEffect@ioCrecendoSkill@@@std@@UKeyMapEffect@ioCrecendoSkill@@AAU34@@std@@YAXAAV?$allocator@UKeyMapEffect@ioCrecendoSkill@@@0@PAUKeyMapEffect@ioCrecendoSkill@@AAU23@@Z ; std::_Cons_val<std::allocator<ioCrecendoSkill::KeyMapEffect>,ioCrecendoSkill::KeyMapEffect,ioCrecendoSkill::KeyMapEffect &>
; Function compile flags: /Ogsp
; File c:\program files (x86)\microsoft visual studio 10.0\vc\include\xmemory
;	COMDAT ??$_Cons_val@V?$allocator@UKeyMapEffect@ioCrecendoSkill@@@std@@UKeyMapEffect@ioCrecendoSkill@@AAU34@@std@@YAXAAV?$allocator@UKeyMapEffect@ioCrecendoSkill@@@0@PAUKeyMapEffect@ioCrecendoSkill@@AAU23@@Z
_TEXT	SEGMENT
__Alval$ = 8						; size = 4
__Pdest$ = 12						; size = 4
__Src$ = 16						; size = 4
??$_Cons_val@V?$allocator@UKeyMapEffect@ioCrecendoSkill@@@std@@UKeyMapEffect@ioCrecendoSkill@@AAU34@@std@@YAXAAV?$allocator@UKeyMapEffect@ioCrecendoSkill@@@0@PAUKeyMapEffect@ioCrecendoSkill@@AAU23@@Z PROC ; std::_Cons_val<std::allocator<ioCrecendoSkill::KeyMapEffect>,ioCrecendoSkill::KeyMapEffect,ioCrecendoSkill::KeyMapEffect &>, COMDAT

; 279  : 	{	// construct using allocator

  00000	55		 push	 ebp
  00001	8b ec		 mov	 ebp, esp

; 280  : 	_Alval.construct(_Pdest, _STD forward<_Ty2>(_Src));

  00003	8b 45 0c	 mov	 eax, DWORD PTR __Pdest$[ebp]
  00006	85 c0		 test	 eax, eax
  00008	74 0d		 je	 SHORT $LN7@Cons_val
  0000a	8b 4d 10	 mov	 ecx, DWORD PTR __Src$[ebp]
  0000d	8b 11		 mov	 edx, DWORD PTR [ecx]
  0000f	89 10		 mov	 DWORD PTR [eax], edx
  00011	8b 49 04	 mov	 ecx, DWORD PTR [ecx+4]
  00014	89 48 04	 mov	 DWORD PTR [eax+4], ecx
$LN7@Cons_val:

; 281  : 	}

  00017	5d		 pop	 ebp
  00018	c3		 ret	 0
??$_Cons_val@V?$allocator@UKeyMapEffect@ioCrecendoSkill@@@std@@UKeyMapEffect@ioCrecendoSkill@@AAU34@@std@@YAXAAV?$allocator@UKeyMapEffect@ioCrecendoSkill@@@0@PAUKeyMapEffect@ioCrecendoSkill@@AAU23@@Z ENDP ; std::_Cons_val<std::allocator<ioCrecendoSkill::KeyMapEffect>,ioCrecendoSkill::KeyMapEffect,ioCrecendoSkill::KeyMapEffect &>
_TEXT	ENDS
PUBLIC	?construct@?$allocator@UKeyMapEffect@ioCrecendoSkill@@@std@@QAEXPAUKeyMapEffect@ioCrecendoSkill@@ABU34@@Z ; std::allocator<ioCrecendoSkill::KeyMapEffect>::construct
; Function compile flags: /Ogsp
;	COMDAT ?construct@?$allocator@UKeyMapEffect@ioCrecendoSkill@@@std@@QAEXPAUKeyMapEffect@ioCrecendoSkill@@ABU34@@Z
_TEXT	SEGMENT
__Ptr$ = 8						; size = 4
__Val$ = 12						; size = 4
?construct@?$allocator@UKeyMapEffect@ioCrecendoSkill@@@std@@QAEXPAUKeyMapEffect@ioCrecendoSkill@@ABU34@@Z PROC ; std::allocator<ioCrecendoSkill::KeyMapEffect>::construct, COMDAT
; _this$ = ecx

; 196  : 		{	// construct object at _Ptr with value _Val

  00000	55		 push	 ebp
  00001	8b ec		 mov	 ebp, esp

; 197  : 		_Construct(_Ptr, _Val);

  00003	8b 45 08	 mov	 eax, DWORD PTR __Ptr$[ebp]
  00006	85 c0		 test	 eax, eax
  00008	74 0d		 je	 SHORT $LN5@construct@2
  0000a	8b 4d 0c	 mov	 ecx, DWORD PTR __Val$[ebp]
  0000d	8b 11		 mov	 edx, DWORD PTR [ecx]
  0000f	89 10		 mov	 DWORD PTR [eax], edx
  00011	8b 49 04	 mov	 ecx, DWORD PTR [ecx+4]
  00014	89 48 04	 mov	 DWORD PTR [eax+4], ecx
$LN5@construct@2:

; 198  : 		}

  00017	5d		 pop	 ebp
  00018	c2 08 00	 ret	 8
?construct@?$allocator@UKeyMapEffect@ioCrecendoSkill@@@std@@QAEXPAUKeyMapEffect@ioCrecendoSkill@@ABU34@@Z ENDP ; std::allocator<ioCrecendoSkill::KeyMapEffect>::construct
_TEXT	ENDS
PUBLIC	??$_Move@PAUKeyMapEffect@ioCrecendoSkill@@PAU12@@std@@YAPAUKeyMapEffect@ioCrecendoSkill@@PAU12@00U_Nonscalar_ptr_iterator_tag@0@@Z ; std::_Move<ioCrecendoSkill::KeyMapEffect *,ioCrecendoSkill::KeyMapEffect *>
; Function compile flags: /Ogsp
; File c:\program files (x86)\microsoft visual studio 10.0\vc\include\xutility
;	COMDAT ??$_Move@PAUKeyMapEffect@ioCrecendoSkill@@PAU12@@std@@YAPAUKeyMapEffect@ioCrecendoSkill@@PAU12@00U_Nonscalar_ptr_iterator_tag@0@@Z
_TEXT	SEGMENT
__First$ = 8						; size = 4
__Last$ = 12						; size = 4
__Dest$ = 16						; size = 4
___formal$ = 20						; size = 1
??$_Move@PAUKeyMapEffect@ioCrecendoSkill@@PAU12@@std@@YAPAUKeyMapEffect@ioCrecendoSkill@@PAU12@00U_Nonscalar_ptr_iterator_tag@0@@Z PROC ; std::_Move<ioCrecendoSkill::KeyMapEffect *,ioCrecendoSkill::KeyMapEffect *>, COMDAT

; 2512 : 	{	// move [_First, _Last) to [_Dest, ...), arbitrary iterators

  00000	55		 push	 ebp
  00001	8b ec		 mov	 ebp, esp

; 2513 : 	for (; _First != _Last; ++_Dest, ++_First)

  00003	8b 4d 08	 mov	 ecx, DWORD PTR __First$[ebp]
  00006	8b 45 10	 mov	 eax, DWORD PTR __Dest$[ebp]
$LN11@Move:
  00009	3b 4d 0c	 cmp	 ecx, DWORD PTR __Last$[ebp]
  0000c	74 12		 je	 SHORT $LN1@Move

; 2514 : 		*_Dest = _STD move(*_First);

  0000e	8b 11		 mov	 edx, DWORD PTR [ecx]
  00010	89 10		 mov	 DWORD PTR [eax], edx
  00012	8b 51 04	 mov	 edx, DWORD PTR [ecx+4]
  00015	89 50 04	 mov	 DWORD PTR [eax+4], edx
  00018	83 c0 08	 add	 eax, 8
  0001b	83 c1 08	 add	 ecx, 8
  0001e	eb e9		 jmp	 SHORT $LN11@Move
$LN1@Move:

; 2515 : 	return (_Dest);
; 2516 : 	}

  00020	5d		 pop	 ebp
  00021	c3		 ret	 0
??$_Move@PAUKeyMapEffect@ioCrecendoSkill@@PAU12@@std@@YAPAUKeyMapEffect@ioCrecendoSkill@@PAU12@00U_Nonscalar_ptr_iterator_tag@0@@Z ENDP ; std::_Move<ioCrecendoSkill::KeyMapEffect *,ioCrecendoSkill::KeyMapEffect *>
_TEXT	ENDS
PUBLIC	??Y?$_Vector_iterator@V?$_Vector_val@UKeyMapEffect@ioCrecendoSkill@@V?$allocator@UKeyMapEffect@ioCrecendoSkill@@@std@@@std@@@std@@QAEAAV01@H@Z ; std::_Vector_iterator<std::_Vector_val<ioCrecendoSkill::KeyMapEffect,std::allocator<ioCrecendoSkill::KeyMapEffect> > >::operator+=
; Function compile flags: /Ogsp
; File c:\program files (x86)\microsoft visual studio 10.0\vc\include\vector
;	COMDAT ??Y?$_Vector_iterator@V?$_Vector_val@UKeyMapEffect@ioCrecendoSkill@@V?$allocator@UKeyMapEffect@ioCrecendoSkill@@@std@@@std@@@std@@QAEAAV01@H@Z
_TEXT	SEGMENT
__Off$ = 8						; size = 4
??Y?$_Vector_iterator@V?$_Vector_val@UKeyMapEffect@ioCrecendoSkill@@V?$allocator@UKeyMapEffect@ioCrecendoSkill@@@std@@@std@@@std@@QAEAAV01@H@Z PROC ; std::_Vector_iterator<std::_Vector_val<ioCrecendoSkill::KeyMapEffect,std::allocator<ioCrecendoSkill::KeyMapEffect> > >::operator+=, COMDAT
; _this$ = ecx

; 357  : 		{	// increment by integer

  00000	55		 push	 ebp
  00001	8b ec		 mov	 ebp, esp
  00003	8b c1		 mov	 eax, ecx

; 358  : 		*(_Mybase *)this += _Off;

  00005	8b 4d 08	 mov	 ecx, DWORD PTR __Off$[ebp]
  00008	c1 e1 03	 shl	 ecx, 3
  0000b	01 08		 add	 DWORD PTR [eax], ecx

; 359  : 		return (*this);
; 360  : 		}

  0000d	5d		 pop	 ebp
  0000e	c2 04 00	 ret	 4
??Y?$_Vector_iterator@V?$_Vector_val@UKeyMapEffect@ioCrecendoSkill@@V?$allocator@UKeyMapEffect@ioCrecendoSkill@@@std@@@std@@@std@@QAEAAV01@H@Z ENDP ; std::_Vector_iterator<std::_Vector_val<ioCrecendoSkill::KeyMapEffect,std::allocator<ioCrecendoSkill::KeyMapEffect> > >::operator+=
_TEXT	ENDS
PUBLIC	??Z?$_Vector_iterator@V?$_Vector_val@UKeyMapEffect@ioCrecendoSkill@@V?$allocator@UKeyMapEffect@ioCrecendoSkill@@@std@@@std@@@std@@QAEAAV01@H@Z ; std::_Vector_iterator<std::_Vector_val<ioCrecendoSkill::KeyMapEffect,std::allocator<ioCrecendoSkill::KeyMapEffect> > >::operator-=
; Function compile flags: /Ogsp
;	COMDAT ??Z?$_Vector_iterator@V?$_Vector_val@UKeyMapEffect@ioCrecendoSkill@@V?$allocator@UKeyMapEffect@ioCrecendoSkill@@@std@@@std@@@std@@QAEAAV01@H@Z
_TEXT	SEGMENT
__Off$ = 8						; size = 4
??Z?$_Vector_iterator@V?$_Vector_val@UKeyMapEffect@ioCrecendoSkill@@V?$allocator@UKeyMapEffect@ioCrecendoSkill@@@std@@@std@@@std@@QAEAAV01@H@Z PROC ; std::_Vector_iterator<std::_Vector_val<ioCrecendoSkill::KeyMapEffect,std::allocator<ioCrecendoSkill::KeyMapEffect> > >::operator-=, COMDAT
; _this$ = ecx

; 369  : 		{	// decrement by integer

  00000	55		 push	 ebp
  00001	8b ec		 mov	 ebp, esp
  00003	8b c1		 mov	 eax, ecx

; 370  : 		return (*this += -_Off);

  00005	8b 4d 08	 mov	 ecx, DWORD PTR __Off$[ebp]
  00008	6b c9 f8	 imul	 ecx, -8			; fffffff8H
  0000b	01 08		 add	 DWORD PTR [eax], ecx

; 371  : 		}

  0000d	5d		 pop	 ebp
  0000e	c2 04 00	 ret	 4
??Z?$_Vector_iterator@V?$_Vector_val@UKeyMapEffect@ioCrecendoSkill@@V?$allocator@UKeyMapEffect@ioCrecendoSkill@@@std@@@std@@@std@@QAEAAV01@H@Z ENDP ; std::_Vector_iterator<std::_Vector_val<ioCrecendoSkill::KeyMapEffect,std::allocator<ioCrecendoSkill::KeyMapEffect> > >::operator-=
_TEXT	ENDS
PUBLIC	?destroy@?$allocator@UKeyMapEffect@ioCrecendoSkill@@@std@@QAEXPAUKeyMapEffect@ioCrecendoSkill@@@Z ; std::allocator<ioCrecendoSkill::KeyMapEffect>::destroy
; Function compile flags: /Ogsp
; File c:\program files (x86)\microsoft visual studio 10.0\vc\include\xmemory
;	COMDAT ?destroy@?$allocator@UKeyMapEffect@ioCrecendoSkill@@@std@@QAEXPAUKeyMapEffect@ioCrecendoSkill@@@Z
_TEXT	SEGMENT
__Ptr$ = 8						; size = 4
?destroy@?$allocator@UKeyMapEffect@ioCrecendoSkill@@@std@@QAEXPAUKeyMapEffect@ioCrecendoSkill@@@Z PROC ; std::allocator<ioCrecendoSkill::KeyMapEffect>::destroy, COMDAT
; _this$ = ecx

; 213  : 		_Destroy(_Ptr);
; 214  : 		}

  00000	c2 04 00	 ret	 4
?destroy@?$allocator@UKeyMapEffect@ioCrecendoSkill@@@std@@QAEXPAUKeyMapEffect@ioCrecendoSkill@@@Z ENDP ; std::allocator<ioCrecendoSkill::KeyMapEffect>::destroy
_TEXT	ENDS
PUBLIC	??$_Unchecked@V?$_Vector_val@UKeyMapEffect@ioCrecendoSkill@@V?$allocator@UKeyMapEffect@ioCrecendoSkill@@@std@@@std@@@std@@YAPAUKeyMapEffect@ioCrecendoSkill@@V?$_Vector_iterator@V?$_Vector_val@UKeyMapEffect@ioCrecendoSkill@@V?$allocator@UKeyMapEffect@ioCrecendoSkill@@@std@@@std@@@0@@Z ; std::_Unchecked<std::_Vector_val<ioCrecendoSkill::KeyMapEffect,std::allocator<ioCrecendoSkill::KeyMapEffect> > >
; Function compile flags: /Ogsp
; File c:\program files (x86)\microsoft visual studio 10.0\vc\include\vector
;	COMDAT ??$_Unchecked@V?$_Vector_val@UKeyMapEffect@ioCrecendoSkill@@V?$allocator@UKeyMapEffect@ioCrecendoSkill@@@std@@@std@@@std@@YAPAUKeyMapEffect@ioCrecendoSkill@@V?$_Vector_iterator@V?$_Vector_val@UKeyMapEffect@ioCrecendoSkill@@V?$allocator@UKeyMapEffect@ioCrecendoSkill@@@std@@@std@@@0@@Z
_TEXT	SEGMENT
__Iter$ = 8						; size = 4
??$_Unchecked@V?$_Vector_val@UKeyMapEffect@ioCrecendoSkill@@V?$allocator@UKeyMapEffect@ioCrecendoSkill@@@std@@@std@@@std@@YAPAUKeyMapEffect@ioCrecendoSkill@@V?$_Vector_iterator@V?$_Vector_val@UKeyMapEffect@ioCrecendoSkill@@V?$allocator@UKeyMapEffect@ioCrecendoSkill@@@std@@@std@@@0@@Z PROC ; std::_Unchecked<std::_Vector_val<ioCrecendoSkill::KeyMapEffect,std::allocator<ioCrecendoSkill::KeyMapEffect> > >, COMDAT

; 393  : 	{	// convert to unchecked

  00000	55		 push	 ebp
  00001	8b ec		 mov	 ebp, esp

; 394  : 	return (_Iter._Unchecked());

  00003	8b 45 08	 mov	 eax, DWORD PTR __Iter$[ebp]

; 395  : 	}

  00006	5d		 pop	 ebp
  00007	c3		 ret	 0
??$_Unchecked@V?$_Vector_val@UKeyMapEffect@ioCrecendoSkill@@V?$allocator@UKeyMapEffect@ioCrecendoSkill@@@std@@@std@@@std@@YAPAUKeyMapEffect@ioCrecendoSkill@@V?$_Vector_iterator@V?$_Vector_val@UKeyMapEffect@ioCrecendoSkill@@V?$allocator@UKeyMapEffect@ioCrecendoSkill@@@std@@@std@@@0@@Z ENDP ; std::_Unchecked<std::_Vector_val<ioCrecendoSkill::KeyMapEffect,std::allocator<ioCrecendoSkill::KeyMapEffect> > >
_TEXT	ENDS
PUBLIC	?construct@?$allocator@UForceInfo@@@std@@QAEXPAUForceInfo@@ABU3@@Z ; std::allocator<ForceInfo>::construct
; Function compile flags: /Ogsp
; File c:\program files (x86)\microsoft visual studio 10.0\vc\include\xmemory
;	COMDAT ?construct@?$allocator@UForceInfo@@@std@@QAEXPAUForceInfo@@ABU3@@Z
_TEXT	SEGMENT
__Ptr$ = 8						; size = 4
__Val$ = 12						; size = 4
?construct@?$allocator@UForceInfo@@@std@@QAEXPAUForceInfo@@ABU3@@Z PROC ; std::allocator<ForceInfo>::construct, COMDAT
; _this$ = ecx

; 196  : 		{	// construct object at _Ptr with value _Val

  00000	55		 push	 ebp
  00001	8b ec		 mov	 ebp, esp
  00003	57		 push	 edi

; 197  : 		_Construct(_Ptr, _Val);

  00004	8b 7d 08	 mov	 edi, DWORD PTR __Ptr$[ebp]
  00007	85 ff		 test	 edi, edi
  00009	74 08		 je	 SHORT $LN5@construct@3
  0000b	56		 push	 esi
  0000c	8b 75 0c	 mov	 esi, DWORD PTR __Val$[ebp]
  0000f	a5		 movsd
  00010	a5		 movsd
  00011	a5		 movsd
  00012	5e		 pop	 esi
$LN5@construct@3:
  00013	5f		 pop	 edi

; 198  : 		}

  00014	5d		 pop	 ebp
  00015	c2 08 00	 ret	 8
?construct@?$allocator@UForceInfo@@@std@@QAEXPAUForceInfo@@ABU3@@Z ENDP ; std::allocator<ForceInfo>::construct
_TEXT	ENDS
PUBLIC	?construct@?$allocator@UKeyMapEffect@ioCrecendoSkill@@@std@@QAEXPAUKeyMapEffect@ioCrecendoSkill@@$$QAU34@@Z ; std::allocator<ioCrecendoSkill::KeyMapEffect>::construct
; Function compile flags: /Ogsp
;	COMDAT ?construct@?$allocator@UKeyMapEffect@ioCrecendoSkill@@@std@@QAEXPAUKeyMapEffect@ioCrecendoSkill@@$$QAU34@@Z
_TEXT	SEGMENT
__Ptr$ = 8						; size = 4
__Val$ = 12						; size = 4
?construct@?$allocator@UKeyMapEffect@ioCrecendoSkill@@@std@@QAEXPAUKeyMapEffect@ioCrecendoSkill@@$$QAU34@@Z PROC ; std::allocator<ioCrecendoSkill::KeyMapEffect>::construct, COMDAT
; _this$ = ecx

; 201  : 		{	// construct object at _Ptr with value _Val

  00000	55		 push	 ebp
  00001	8b ec		 mov	 ebp, esp

; 202  : 		::new ((void _FARQ *)_Ptr) _Ty(_STD forward<_Ty>(_Val));

  00003	8b 45 08	 mov	 eax, DWORD PTR __Ptr$[ebp]
  00006	85 c0		 test	 eax, eax
  00008	74 0d		 je	 SHORT $LN3@construct@4
  0000a	8b 4d 0c	 mov	 ecx, DWORD PTR __Val$[ebp]
  0000d	8b 11		 mov	 edx, DWORD PTR [ecx]
  0000f	89 10		 mov	 DWORD PTR [eax], edx
  00011	8b 49 04	 mov	 ecx, DWORD PTR [ecx+4]
  00014	89 48 04	 mov	 DWORD PTR [eax+4], ecx
$LN3@construct@4:

; 203  : 		}

  00017	5d		 pop	 ebp
  00018	c2 08 00	 ret	 8
?construct@?$allocator@UKeyMapEffect@ioCrecendoSkill@@@std@@QAEXPAUKeyMapEffect@ioCrecendoSkill@@$$QAU34@@Z ENDP ; std::allocator<ioCrecendoSkill::KeyMapEffect>::construct
_TEXT	ENDS
PUBLIC	??$_Advance@V?$_Vector_iterator@V?$_Vector_val@UKeyMapEffect@ioCrecendoSkill@@V?$allocator@UKeyMapEffect@ioCrecendoSkill@@@std@@@std@@@std@@H@std@@YAXAAV?$_Vector_iterator@V?$_Vector_val@UKeyMapEffect@ioCrecendoSkill@@V?$allocator@UKeyMapEffect@ioCrecendoSkill@@@std@@@std@@@0@HUrandom_access_iterator_tag@0@@Z ; std::_Advance<std::_Vector_iterator<std::_Vector_val<ioCrecendoSkill::KeyMapEffect,std::allocator<ioCrecendoSkill::KeyMapEffect> > >,int>
; Function compile flags: /Ogsp
; File c:\program files (x86)\microsoft visual studio 10.0\vc\include\xutility
;	COMDAT ??$_Advance@V?$_Vector_iterator@V?$_Vector_val@UKeyMapEffect@ioCrecendoSkill@@V?$allocator@UKeyMapEffect@ioCrecendoSkill@@@std@@@std@@@std@@H@std@@YAXAAV?$_Vector_iterator@V?$_Vector_val@UKeyMapEffect@ioCrecendoSkill@@V?$allocator@UKeyMapEffect@ioCrecendoSkill@@@std@@@std@@@0@HUrandom_access_iterator_tag@0@@Z
_TEXT	SEGMENT
__Where$ = 8						; size = 4
__Off$ = 12						; size = 4
___formal$ = 16						; size = 1
??$_Advance@V?$_Vector_iterator@V?$_Vector_val@UKeyMapEffect@ioCrecendoSkill@@V?$allocator@UKeyMapEffect@ioCrecendoSkill@@@std@@@std@@@std@@H@std@@YAXAAV?$_Vector_iterator@V?$_Vector_val@UKeyMapEffect@ioCrecendoSkill@@V?$allocator@UKeyMapEffect@ioCrecendoSkill@@@std@@@std@@@0@HUrandom_access_iterator_tag@0@@Z PROC ; std::_Advance<std::_Vector_iterator<std::_Vector_val<ioCrecendoSkill::KeyMapEffect,std::allocator<ioCrecendoSkill::KeyMapEffect> > >,int>, COMDAT

; 840  : 	{	// increment iterator by offset, random-access iterators

  00000	55		 push	 ebp
  00001	8b ec		 mov	 ebp, esp

; 841  : 	_Where += _Off;

  00003	8b 4d 0c	 mov	 ecx, DWORD PTR __Off$[ebp]
  00006	8b 45 08	 mov	 eax, DWORD PTR __Where$[ebp]
  00009	c1 e1 03	 shl	 ecx, 3
  0000c	01 08		 add	 DWORD PTR [eax], ecx

; 842  : 	}

  0000e	5d		 pop	 ebp
  0000f	c3		 ret	 0
??$_Advance@V?$_Vector_iterator@V?$_Vector_val@UKeyMapEffect@ioCrecendoSkill@@V?$allocator@UKeyMapEffect@ioCrecendoSkill@@@std@@@std@@@std@@H@std@@YAXAAV?$_Vector_iterator@V?$_Vector_val@UKeyMapEffect@ioCrecendoSkill@@V?$allocator@UKeyMapEffect@ioCrecendoSkill@@@std@@@std@@@0@HUrandom_access_iterator_tag@0@@Z ENDP ; std::_Advance<std::_Vector_iterator<std::_Vector_val<ioCrecendoSkill::KeyMapEffect,std::allocator<ioCrecendoSkill::KeyMapEffect> > >,int>
_TEXT	ENDS
PUBLIC	??$_Construct@UWeaponInfo@@ABU1@@std@@YAXPAUWeaponInfo@@ABU1@@Z ; std::_Construct<WeaponInfo,WeaponInfo const &>
EXTRN	___CxxFrameHandler3:PROC
EXTRN	__EH_epilog3:PROC
EXTRN	__EH_prolog3:PROC
;	COMDAT xdata$x
; File c:\program files (x86)\microsoft visual studio 10.0\vc\include\utility
xdata$x	SEGMENT
__unwindtable$??$_Construct@UWeaponInfo@@ABU1@@std@@YAXPAUWeaponInfo@@ABU1@@Z DD 0ffffffffH
	DD	FLAT:__unwindfunclet$??$_Construct@UWeaponInfo@@ABU1@@std@@YAXPAUWeaponInfo@@ABU1@@Z$0
__ehfuncinfo$??$_Construct@UWeaponInfo@@ABU1@@std@@YAXPAUWeaponInfo@@ABU1@@Z DD 019930522H
	DD	01H
	DD	FLAT:__unwindtable$??$_Construct@UWeaponInfo@@ABU1@@std@@YAXPAUWeaponInfo@@ABU1@@Z
	DD	2 DUP(00H)
	DD	2 DUP(00H)
	DD	00H
	DD	01H
; Function compile flags: /Ogsp
; File c:\program files (x86)\microsoft visual studio 10.0\vc\include\xmemory
xdata$x	ENDS
;	COMDAT ??$_Construct@UWeaponInfo@@ABU1@@std@@YAXPAUWeaponInfo@@ABU1@@Z
_TEXT	SEGMENT
$T540211 = -16						; size = 4
__$EHRec$ = -12						; size = 12
__Vptr$ = 8						; size = 4
__Ptr$ = 8						; size = 4
__Val$ = 12						; size = 4
??$_Construct@UWeaponInfo@@ABU1@@std@@YAXPAUWeaponInfo@@ABU1@@Z PROC ; std::_Construct<WeaponInfo,WeaponInfo const &>, COMDAT

; 46   : 	{	// construct object at _Ptr with value _Val

  00000	6a 04		 push	 4
  00002	b8 00 00 00 00	 mov	 eax, __ehhandler$??$_Construct@UWeaponInfo@@ABU1@@std@@YAXPAUWeaponInfo@@ABU1@@Z
  00007	e8 00 00 00 00	 call	 __EH_prolog3

; 47   : 	void _FARQ *_Vptr = _Ptr;

  0000c	8b 4d 08	 mov	 ecx, DWORD PTR __Ptr$[ebp]
  0000f	89 4d 08	 mov	 DWORD PTR __Vptr$[ebp], ecx

; 48   : 	::new (_Vptr) _Ty1(_STD forward<_Ty2>(_Val));

  00012	89 4d f0	 mov	 DWORD PTR $T540211[ebp], ecx
  00015	83 65 fc 00	 and	 DWORD PTR __$EHRec$[ebp+8], 0
  00019	85 c9		 test	 ecx, ecx
  0001b	74 08		 je	 SHORT $LN3@Construct@3
  0001d	ff 75 0c	 push	 DWORD PTR __Val$[ebp]
  00020	e8 00 00 00 00	 call	 ??0WeaponInfo@@QAE@ABU0@@Z
$LN3@Construct@3:

; 49   : 	}

  00025	e8 00 00 00 00	 call	 __EH_epilog3
  0002a	c3		 ret	 0
_TEXT	ENDS
;	COMDAT text$x
text$x	SEGMENT
__unwindfunclet$??$_Construct@UWeaponInfo@@ABU1@@std@@YAXPAUWeaponInfo@@ABU1@@Z$0:
  00000	ff 75 08	 push	 DWORD PTR __Vptr$[ebp]
  00003	ff 75 f0	 push	 DWORD PTR $T540211[ebp]
  00006	e8 00 00 00 00	 call	 ??3@YAXPAX0@Z		; operator delete
  0000b	59		 pop	 ecx
  0000c	59		 pop	 ecx
  0000d	c3		 ret	 0
__ehhandler$??$_Construct@UWeaponInfo@@ABU1@@std@@YAXPAUWeaponInfo@@ABU1@@Z:
  0000e	8b 54 24 08	 mov	 edx, DWORD PTR [esp+8]
  00012	8d 42 0c	 lea	 eax, DWORD PTR [edx+12]
  00015	8b 4a ec	 mov	 ecx, DWORD PTR [edx-20]
  00018	33 c8		 xor	 ecx, eax
  0001a	e8 00 00 00 00	 call	 @__security_check_cookie@4
  0001f	b8 00 00 00 00	 mov	 eax, OFFSET __ehfuncinfo$??$_Construct@UWeaponInfo@@ABU1@@std@@YAXPAUWeaponInfo@@ABU1@@Z
  00024	e9 00 00 00 00	 jmp	 ___CxxFrameHandler3
text$x	ENDS
??$_Construct@UWeaponInfo@@ABU1@@std@@YAXPAUWeaponInfo@@ABU1@@Z ENDP ; std::_Construct<WeaponInfo,WeaponInfo const &>
PUBLIC	??G?$_Vector_iterator@V?$_Vector_val@UKeyMapEffect@ioCrecendoSkill@@V?$allocator@UKeyMapEffect@ioCrecendoSkill@@@std@@@std@@@std@@QBEHABV?$_Vector_const_iterator@V?$_Vector_val@UKeyMapEffect@ioCrecendoSkill@@V?$allocator@UKeyMapEffect@ioCrecendoSkill@@@std@@@std@@@1@@Z ; std::_Vector_iterator<std::_Vector_val<ioCrecendoSkill::KeyMapEffect,std::allocator<ioCrecendoSkill::KeyMapEffect> > >::operator-
; Function compile flags: /Ogsp
; File c:\program files (x86)\microsoft visual studio 10.0\vc\include\vector
;	COMDAT ??G?$_Vector_iterator@V?$_Vector_val@UKeyMapEffect@ioCrecendoSkill@@V?$allocator@UKeyMapEffect@ioCrecendoSkill@@@std@@@std@@@std@@QBEHABV?$_Vector_const_iterator@V?$_Vector_val@UKeyMapEffect@ioCrecendoSkill@@V?$allocator@UKeyMapEffect@ioCrecendoSkill@@@std@@@std@@@1@@Z
_TEXT	SEGMENT
__Right$ = 8						; size = 4
??G?$_Vector_iterator@V?$_Vector_val@UKeyMapEffect@ioCrecendoSkill@@V?$allocator@UKeyMapEffect@ioCrecendoSkill@@@std@@@std@@@std@@QBEHABV?$_Vector_const_iterator@V?$_Vector_val@UKeyMapEffect@ioCrecendoSkill@@V?$allocator@UKeyMapEffect@ioCrecendoSkill@@@std@@@std@@@1@@Z PROC ; std::_Vector_iterator<std::_Vector_val<ioCrecendoSkill::KeyMapEffect,std::allocator<ioCrecendoSkill::KeyMapEffect> > >::operator-, COMDAT
; _this$ = ecx

; 380  : 		{	// return difference of iterators

  00000	55		 push	 ebp
  00001	8b ec		 mov	 ebp, esp

; 381  : 		return (*(_Mybase *)this - _Right);

  00003	8b 01		 mov	 eax, DWORD PTR [ecx]
  00005	8b 4d 08	 mov	 ecx, DWORD PTR __Right$[ebp]
  00008	2b 01		 sub	 eax, DWORD PTR [ecx]
  0000a	c1 f8 03	 sar	 eax, 3

; 382  : 		}

  0000d	5d		 pop	 ebp
  0000e	c2 04 00	 ret	 4
??G?$_Vector_iterator@V?$_Vector_val@UKeyMapEffect@ioCrecendoSkill@@V?$allocator@UKeyMapEffect@ioCrecendoSkill@@@std@@@std@@@std@@QBEHABV?$_Vector_const_iterator@V?$_Vector_val@UKeyMapEffect@ioCrecendoSkill@@V?$allocator@UKeyMapEffect@ioCrecendoSkill@@@std@@@std@@@1@@Z ENDP ; std::_Vector_iterator<std::_Vector_val<ioCrecendoSkill::KeyMapEffect,std::allocator<ioCrecendoSkill::KeyMapEffect> > >::operator-
_TEXT	ENDS
PUBLIC	??$swap@UKeyMapEffect@ioCrecendoSkill@@@std@@YAXAAUKeyMapEffect@ioCrecendoSkill@@0@Z ; std::swap<ioCrecendoSkill::KeyMapEffect>
; Function compile flags: /Ogsp
; File c:\program files (x86)\microsoft visual studio 10.0\vc\include\utility
;	COMDAT ??$swap@UKeyMapEffect@ioCrecendoSkill@@@std@@YAXAAUKeyMapEffect@ioCrecendoSkill@@0@Z
_TEXT	SEGMENT
__Left$ = 8						; size = 4
__Right$ = 12						; size = 4
??$swap@UKeyMapEffect@ioCrecendoSkill@@@std@@YAXAAUKeyMapEffect@ioCrecendoSkill@@0@Z PROC ; std::swap<ioCrecendoSkill::KeyMapEffect>, COMDAT

; 101  : 	{	// exchange values stored at _Left and _Right

  00000	55		 push	 ebp
  00001	8b ec		 mov	 ebp, esp

; 102  : 	_Ty _Tmp = _Move(_Left);
; 103  : 	_Left = _Move(_Right);

  00003	8b 4d 0c	 mov	 ecx, DWORD PTR __Right$[ebp]
  00006	8b 45 08	 mov	 eax, DWORD PTR __Left$[ebp]
  00009	8b 10		 mov	 edx, DWORD PTR [eax]
  0000b	56		 push	 esi
  0000c	8b 70 04	 mov	 esi, DWORD PTR [eax+4]
  0000f	57		 push	 edi
  00010	8b 39		 mov	 edi, DWORD PTR [ecx]
  00012	89 38		 mov	 DWORD PTR [eax], edi
  00014	8b 79 04	 mov	 edi, DWORD PTR [ecx+4]
  00017	89 78 04	 mov	 DWORD PTR [eax+4], edi
  0001a	5f		 pop	 edi

; 104  : 	_Right = _Move(_Tmp);

  0001b	89 71 04	 mov	 DWORD PTR [ecx+4], esi
  0001e	89 11		 mov	 DWORD PTR [ecx], edx
  00020	5e		 pop	 esi

; 105  : 	}

  00021	5d		 pop	 ebp
  00022	c3		 ret	 0
??$swap@UKeyMapEffect@ioCrecendoSkill@@@std@@YAXAAUKeyMapEffect@ioCrecendoSkill@@0@Z ENDP ; std::swap<ioCrecendoSkill::KeyMapEffect>
_TEXT	ENDS
PUBLIC	??4?$CEncrypt@K@@QAEKH@Z			; CEncrypt<unsigned long>::operator=
; Function compile flags: /Ogsp
; File d:\lost saga for developer\youtube\tutorial\source\src\lsclient\encryptvalue.h
;	COMDAT ??4?$CEncrypt@K@@QAEKH@Z
_TEXT	SEGMENT
_value$ = 8						; size = 4
_inValue$ = 8						; size = 4
??4?$CEncrypt@K@@QAEKH@Z PROC				; CEncrypt<unsigned long>::operator=, COMDAT
; _this$ = ecx

; 843  : 	{

  00000	55		 push	 ebp
  00001	8b ec		 mov	 ebp, esp

; 844  : 		type value = inValue;

  00003	8b 45 08	 mov	 eax, DWORD PTR _inValue$[ebp]
  00006	89 45 08	 mov	 DWORD PTR _value$[ebp], eax

; 845  : 		EncryptValueToPool((char*)&value);

  00009	8d 45 08	 lea	 eax, DWORD PTR _value$[ebp]
  0000c	50		 push	 eax
  0000d	e8 00 00 00 00	 call	 ?EncryptValueToPool@?$CEncrypt@K@@AAEXPBD@Z ; CEncrypt<unsigned long>::EncryptValueToPool

; 846  : #ifdef _NOTUSE
; 847  : 		m_value = inValue;
; 848  : 		Debug();
; 849  : #endif
; 850  : 		return value;

  00012	8b 45 08	 mov	 eax, DWORD PTR _value$[ebp]

; 851  : 	}

  00015	5d		 pop	 ebp
  00016	c2 04 00	 ret	 4
??4?$CEncrypt@K@@QAEKH@Z ENDP				; CEncrypt<unsigned long>::operator=
_TEXT	ENDS
PUBLIC	??4?$CEncrypt@K@@QAEKK@Z			; CEncrypt<unsigned long>::operator=
; Function compile flags: /Ogsp
;	COMDAT ??4?$CEncrypt@K@@QAEKK@Z
_TEXT	SEGMENT
_value$ = 8						; size = 4
_inValue$ = 8						; size = 4
??4?$CEncrypt@K@@QAEKK@Z PROC				; CEncrypt<unsigned long>::operator=, COMDAT
; _this$ = ecx

; 1262 : 	{

  00000	55		 push	 ebp
  00001	8b ec		 mov	 ebp, esp

; 1263 : 		
; 1264 : 		type value = inValue;

  00003	8b 45 08	 mov	 eax, DWORD PTR _inValue$[ebp]
  00006	89 45 08	 mov	 DWORD PTR _value$[ebp], eax

; 1265 : 		EncryptValueToPool((char*)&value);

  00009	8d 45 08	 lea	 eax, DWORD PTR _value$[ebp]
  0000c	50		 push	 eax
  0000d	e8 00 00 00 00	 call	 ?EncryptValueToPool@?$CEncrypt@K@@AAEXPBD@Z ; CEncrypt<unsigned long>::EncryptValueToPool

; 1266 : #ifdef _NOTUSE
; 1267 : 		m_value = inValue;
; 1268 : 		Debug();
; 1269 : #endif
; 1270 : 		return value;

  00012	8b 45 08	 mov	 eax, DWORD PTR _value$[ebp]

; 1271 : 	}

  00015	5d		 pop	 ebp
  00016	c2 04 00	 ret	 4
??4?$CEncrypt@K@@QAEKK@Z ENDP				; CEncrypt<unsigned long>::operator=
_TEXT	ENDS
PUBLIC	??B?$CEncrypt@W4TeamType@@@@QBE?AW4TeamType@@XZ	; CEncrypt<enum TeamType>::operator enum TeamType
; Function compile flags: /Ogsp
;	COMDAT ??B?$CEncrypt@W4TeamType@@@@QBE?AW4TeamType@@XZ
_TEXT	SEGMENT
_value$ = -4						; size = 4
??B?$CEncrypt@W4TeamType@@@@QBE?AW4TeamType@@XZ PROC	; CEncrypt<enum TeamType>::operator enum TeamType, COMDAT
; _this$ = ecx

; 145  : 	{

  00000	55		 push	 ebp
  00001	8b ec		 mov	 ebp, esp
  00003	51		 push	 ecx

; 146  : 		//UJ 130829, const도 똑같이 하면 된다 --start
; 147  : 		type value;
; 148  : 		CEncrypt<type>* pThis = const_cast<CEncrypt<type>*>(this);
; 149  : 		pThis->DecryptValueToPool(&value);

  00004	8d 45 fc	 lea	 eax, DWORD PTR _value$[ebp]
  00007	50		 push	 eax
  00008	e8 00 00 00 00	 call	 ?DecryptValueToPool@?$CEncrypt@W4TeamType@@@@QAEXPAW4TeamType@@@Z ; CEncrypt<enum TeamType>::DecryptValueToPool

; 150  : 		//// const에서 DecryptValueToPool 사용할 수 없으므로 아래와 같이함.
; 151  :  		//type value;
; 152  : 		//char szTempMem[MAX_ENCRYPT];
; 153  : 		//m_RC5.DecryptByte( m_MemPool, szTempMem, max(m_ValueSize, DEFAULT_ENCRYPT) );
; 154  : 		//memcpy( &value, szTempMem, m_ValueSize );
; 155  : 		//UJ --end
; 156  : 
; 157  : #ifdef _NOTUSE
; 158  : 		Debug();
; 159  : #endif
; 160  : 		return value;

  0000d	8b 45 fc	 mov	 eax, DWORD PTR _value$[ebp]

; 161  : 	}

  00010	c9		 leave
  00011	c3		 ret	 0
??B?$CEncrypt@W4TeamType@@@@QBE?AW4TeamType@@XZ ENDP	; CEncrypt<enum TeamType>::operator enum TeamType
_TEXT	ENDS
PUBLIC	??0?$_Vector_val@UWeaponInfo@@V?$allocator@UWeaponInfo@@@std@@@std@@QAE@V?$allocator@UWeaponInfo@@@1@@Z ; std::_Vector_val<WeaponInfo,std::allocator<WeaponInfo> >::_Vector_val<WeaponInfo,std::allocator<WeaponInfo> >
; Function compile flags: /Ogsp
; File c:\program files (x86)\microsoft visual studio 10.0\vc\include\vector
;	COMDAT ??0?$_Vector_val@UWeaponInfo@@V?$allocator@UWeaponInfo@@@std@@@std@@QAE@V?$allocator@UWeaponInfo@@@1@@Z
_TEXT	SEGMENT
__Al$ = 8						; size = 1
??0?$_Vector_val@UWeaponInfo@@V?$allocator@UWeaponInfo@@@std@@@std@@QAE@V?$allocator@UWeaponInfo@@@1@@Z PROC ; std::_Vector_val<WeaponInfo,std::allocator<WeaponInfo> >::_Vector_val<WeaponInfo,std::allocator<WeaponInfo> >, COMDAT
; _this$ = ecx

; 426  : 		{	// construct allocator from _Al

  00000	8b c1		 mov	 eax, ecx

; 427  : 		_Myfirst = 0;

  00002	33 c9		 xor	 ecx, ecx
  00004	89 08		 mov	 DWORD PTR [eax], ecx

; 428  : 		_Mylast = 0;

  00006	89 48 04	 mov	 DWORD PTR [eax+4], ecx

; 429  : 		_Myend = 0;

  00009	89 48 08	 mov	 DWORD PTR [eax+8], ecx

; 430  : 		}

  0000c	c2 04 00	 ret	 4
??0?$_Vector_val@UWeaponInfo@@V?$allocator@UWeaponInfo@@@std@@@std@@QAE@V?$allocator@UWeaponInfo@@@1@@Z ENDP ; std::_Vector_val<WeaponInfo,std::allocator<WeaponInfo> >::_Vector_val<WeaponInfo,std::allocator<WeaponInfo> >
_TEXT	ENDS
PUBLIC	??0?$_Vector_val@UForceInfo@@V?$allocator@UForceInfo@@@std@@@std@@QAE@V?$allocator@UForceInfo@@@1@@Z ; std::_Vector_val<ForceInfo,std::allocator<ForceInfo> >::_Vector_val<ForceInfo,std::allocator<ForceInfo> >
; Function compile flags: /Ogsp
;	COMDAT ??0?$_Vector_val@UForceInfo@@V?$allocator@UForceInfo@@@std@@@std@@QAE@V?$allocator@UForceInfo@@@1@@Z
_TEXT	SEGMENT
__Al$ = 8						; size = 1
??0?$_Vector_val@UForceInfo@@V?$allocator@UForceInfo@@@std@@@std@@QAE@V?$allocator@UForceInfo@@@1@@Z PROC ; std::_Vector_val<ForceInfo,std::allocator<ForceInfo> >::_Vector_val<ForceInfo,std::allocator<ForceInfo> >, COMDAT
; _this$ = ecx

; 426  : 		{	// construct allocator from _Al

  00000	8b c1		 mov	 eax, ecx

; 427  : 		_Myfirst = 0;

  00002	33 c9		 xor	 ecx, ecx
  00004	89 08		 mov	 DWORD PTR [eax], ecx

; 428  : 		_Mylast = 0;

  00006	89 48 04	 mov	 DWORD PTR [eax+4], ecx

; 429  : 		_Myend = 0;

  00009	89 48 08	 mov	 DWORD PTR [eax+8], ecx

; 430  : 		}

  0000c	c2 04 00	 ret	 4
??0?$_Vector_val@UForceInfo@@V?$allocator@UForceInfo@@@std@@@std@@QAE@V?$allocator@UForceInfo@@@1@@Z ENDP ; std::_Vector_val<ForceInfo,std::allocator<ForceInfo> >::_Vector_val<ForceInfo,std::allocator<ForceInfo> >
_TEXT	ENDS
PUBLIC	?max_size@?$vector@UWeaponInfo@@V?$allocator@UWeaponInfo@@@std@@@std@@QBEIXZ ; std::vector<WeaponInfo,std::allocator<WeaponInfo> >::max_size
; Function compile flags: /Ogsp
;	COMDAT ?max_size@?$vector@UWeaponInfo@@V?$allocator@UWeaponInfo@@@std@@@std@@QBEIXZ
_TEXT	SEGMENT
?max_size@?$vector@UWeaponInfo@@V?$allocator@UWeaponInfo@@@std@@@std@@QBEIXZ PROC ; std::vector<WeaponInfo,std::allocator<WeaponInfo> >::max_size, COMDAT
; _this$ = ecx

; 884  : 		return (this->_Alval.max_size());

  00000	b8 66 66 66 06	 mov	 eax, 107374182		; 06666666H

; 885  : 		}

  00005	c3		 ret	 0
?max_size@?$vector@UWeaponInfo@@V?$allocator@UWeaponInfo@@@std@@@std@@QBEIXZ ENDP ; std::vector<WeaponInfo,std::allocator<WeaponInfo> >::max_size
_TEXT	ENDS
PUBLIC	?allocate@?$allocator@UWeaponInfo@@@std@@QAEPAUWeaponInfo@@I@Z ; std::allocator<WeaponInfo>::allocate
; Function compile flags: /Ogsp
; File c:\program files (x86)\microsoft visual studio 10.0\vc\include\xmemory
;	COMDAT ?allocate@?$allocator@UWeaponInfo@@@std@@QAEPAUWeaponInfo@@I@Z
_TEXT	SEGMENT
__Count$ = 8						; size = 4
?allocate@?$allocator@UWeaponInfo@@@std@@QAEPAUWeaponInfo@@I@Z PROC ; std::allocator<WeaponInfo>::allocate, COMDAT
; _this$ = ecx

; 186  : 		{	// allocate array of _Count elements

  00000	55		 push	 ebp
  00001	8b ec		 mov	 ebp, esp

; 187  : 		return (_Allocate(_Count, (pointer)0));

  00003	6a 00		 push	 0
  00005	ff 75 08	 push	 DWORD PTR __Count$[ebp]
  00008	e8 00 00 00 00	 call	 ??$_Allocate@UWeaponInfo@@@std@@YAPAUWeaponInfo@@IPAU1@@Z ; std::_Allocate<WeaponInfo>
  0000d	59		 pop	 ecx
  0000e	59		 pop	 ecx

; 188  : 		}

  0000f	5d		 pop	 ebp
  00010	c2 04 00	 ret	 4
?allocate@?$allocator@UWeaponInfo@@@std@@QAEPAUWeaponInfo@@I@Z ENDP ; std::allocator<WeaponInfo>::allocate
_TEXT	ENDS
PUBLIC	?max_size@?$vector@UForceInfo@@V?$allocator@UForceInfo@@@std@@@std@@QBEIXZ ; std::vector<ForceInfo,std::allocator<ForceInfo> >::max_size
; Function compile flags: /Ogsp
; File c:\program files (x86)\microsoft visual studio 10.0\vc\include\vector
;	COMDAT ?max_size@?$vector@UForceInfo@@V?$allocator@UForceInfo@@@std@@@std@@QBEIXZ
_TEXT	SEGMENT
?max_size@?$vector@UForceInfo@@V?$allocator@UForceInfo@@@std@@@std@@QBEIXZ PROC ; std::vector<ForceInfo,std::allocator<ForceInfo> >::max_size, COMDAT
; _this$ = ecx

; 884  : 		return (this->_Alval.max_size());

  00000	b8 55 55 55 15	 mov	 eax, 357913941		; 15555555H

; 885  : 		}

  00005	c3		 ret	 0
?max_size@?$vector@UForceInfo@@V?$allocator@UForceInfo@@@std@@@std@@QBEIXZ ENDP ; std::vector<ForceInfo,std::allocator<ForceInfo> >::max_size
_TEXT	ENDS
PUBLIC	?allocate@?$allocator@UForceInfo@@@std@@QAEPAUForceInfo@@I@Z ; std::allocator<ForceInfo>::allocate
; Function compile flags: /Ogsp
; File c:\program files (x86)\microsoft visual studio 10.0\vc\include\xmemory
;	COMDAT ?allocate@?$allocator@UForceInfo@@@std@@QAEPAUForceInfo@@I@Z
_TEXT	SEGMENT
__Count$ = 8						; size = 4
?allocate@?$allocator@UForceInfo@@@std@@QAEPAUForceInfo@@I@Z PROC ; std::allocator<ForceInfo>::allocate, COMDAT
; _this$ = ecx

; 186  : 		{	// allocate array of _Count elements

  00000	55		 push	 ebp
  00001	8b ec		 mov	 ebp, esp

; 187  : 		return (_Allocate(_Count, (pointer)0));

  00003	6a 00		 push	 0
  00005	ff 75 08	 push	 DWORD PTR __Count$[ebp]
  00008	e8 00 00 00 00	 call	 ??$_Allocate@UForceInfo@@@std@@YAPAUForceInfo@@IPAU1@@Z ; std::_Allocate<ForceInfo>
  0000d	59		 pop	 ecx
  0000e	59		 pop	 ecx

; 188  : 		}

  0000f	5d		 pop	 ebp
  00010	c2 04 00	 ret	 4
?allocate@?$allocator@UForceInfo@@@std@@QAEPAUForceInfo@@I@Z ENDP ; std::allocator<ForceInfo>::allocate
_TEXT	ENDS
PUBLIC	??8?$_Vector_const_iterator@V?$_Vector_val@UWeaponInfo@@V?$allocator@UWeaponInfo@@@std@@@std@@@std@@QBE_NABV01@@Z ; std::_Vector_const_iterator<std::_Vector_val<WeaponInfo,std::allocator<WeaponInfo> > >::operator==
; Function compile flags: /Ogsp
; File c:\program files (x86)\microsoft visual studio 10.0\vc\include\vector
;	COMDAT ??8?$_Vector_const_iterator@V?$_Vector_val@UWeaponInfo@@V?$allocator@UWeaponInfo@@@std@@@std@@@std@@QBE_NABV01@@Z
_TEXT	SEGMENT
__Right$ = 8						; size = 4
??8?$_Vector_const_iterator@V?$_Vector_val@UWeaponInfo@@V?$allocator@UWeaponInfo@@@std@@@std@@@std@@QBE_NABV01@@Z PROC ; std::_Vector_const_iterator<std::_Vector_val<WeaponInfo,std::allocator<WeaponInfo> > >::operator==, COMDAT
; _this$ = ecx

; 201  : 		{	// test for iterator equality

  00000	55		 push	 ebp
  00001	8b ec		 mov	 ebp, esp

; 202  : 		_Compat(_Right);
; 203  : 		return (this->_Ptr == _Right._Ptr);

  00003	8b 01		 mov	 eax, DWORD PTR [ecx]
  00005	8b 4d 08	 mov	 ecx, DWORD PTR __Right$[ebp]
  00008	2b 01		 sub	 eax, DWORD PTR [ecx]
  0000a	f7 d8		 neg	 eax
  0000c	1b c0		 sbb	 eax, eax
  0000e	40		 inc	 eax

; 204  : 		}

  0000f	5d		 pop	 ebp
  00010	c2 04 00	 ret	 4
??8?$_Vector_const_iterator@V?$_Vector_val@UWeaponInfo@@V?$allocator@UWeaponInfo@@@std@@@std@@@std@@QBE_NABV01@@Z ENDP ; std::_Vector_const_iterator<std::_Vector_val<WeaponInfo,std::allocator<WeaponInfo> > >::operator==
_TEXT	ENDS
PUBLIC	??8?$_Vector_const_iterator@V?$_Vector_val@UForceInfo@@V?$allocator@UForceInfo@@@std@@@std@@@std@@QBE_NABV01@@Z ; std::_Vector_const_iterator<std::_Vector_val<ForceInfo,std::allocator<ForceInfo> > >::operator==
; Function compile flags: /Ogsp
;	COMDAT ??8?$_Vector_const_iterator@V?$_Vector_val@UForceInfo@@V?$allocator@UForceInfo@@@std@@@std@@@std@@QBE_NABV01@@Z
_TEXT	SEGMENT
__Right$ = 8						; size = 4
??8?$_Vector_const_iterator@V?$_Vector_val@UForceInfo@@V?$allocator@UForceInfo@@@std@@@std@@@std@@QBE_NABV01@@Z PROC ; std::_Vector_const_iterator<std::_Vector_val<ForceInfo,std::allocator<ForceInfo> > >::operator==, COMDAT
; _this$ = ecx

; 201  : 		{	// test for iterator equality

  00000	55		 push	 ebp
  00001	8b ec		 mov	 ebp, esp

; 202  : 		_Compat(_Right);
; 203  : 		return (this->_Ptr == _Right._Ptr);

  00003	8b 01		 mov	 eax, DWORD PTR [ecx]
  00005	8b 4d 08	 mov	 ecx, DWORD PTR __Right$[ebp]
  00008	2b 01		 sub	 eax, DWORD PTR [ecx]
  0000a	f7 d8		 neg	 eax
  0000c	1b c0		 sbb	 eax, eax
  0000e	40		 inc	 eax

; 204  : 		}

  0000f	5d		 pop	 ebp
  00010	c2 04 00	 ret	 4
??8?$_Vector_const_iterator@V?$_Vector_val@UForceInfo@@V?$allocator@UForceInfo@@@std@@@std@@@std@@QBE_NABV01@@Z ENDP ; std::_Vector_const_iterator<std::_Vector_val<ForceInfo,std::allocator<ForceInfo> > >::operator==
_TEXT	ENDS
PUBLIC	?destroy@?$allocator@UForceInfo@@@std@@QAEXPAUForceInfo@@@Z ; std::allocator<ForceInfo>::destroy
; Function compile flags: /Ogsp
; File c:\program files (x86)\microsoft visual studio 10.0\vc\include\xmemory
;	COMDAT ?destroy@?$allocator@UForceInfo@@@std@@QAEXPAUForceInfo@@@Z
_TEXT	SEGMENT
__Ptr$ = 8						; size = 4
?destroy@?$allocator@UForceInfo@@@std@@QAEXPAUForceInfo@@@Z PROC ; std::allocator<ForceInfo>::destroy, COMDAT
; _this$ = ecx

; 213  : 		_Destroy(_Ptr);
; 214  : 		}

  00000	c2 04 00	 ret	 4
?destroy@?$allocator@UForceInfo@@@std@@QAEXPAUForceInfo@@@Z ENDP ; std::allocator<ForceInfo>::destroy
_TEXT	ENDS
PUBLIC	??$_Destroy@UWeaponInfo@@@std@@YAXPAUWeaponInfo@@@Z ; std::_Destroy<WeaponInfo>
; Function compile flags: /Ogsp
;	COMDAT ??$_Destroy@UWeaponInfo@@@std@@YAXPAUWeaponInfo@@@Z
_TEXT	SEGMENT
__Ptr$ = 8						; size = 4
??$_Destroy@UWeaponInfo@@@std@@YAXPAUWeaponInfo@@@Z PROC ; std::_Destroy<WeaponInfo>, COMDAT

; 62   : 	{	// destroy object at _Ptr

  00000	55		 push	 ebp
  00001	8b ec		 mov	 ebp, esp

; 63   : 	_Ptr->~_Ty();

  00003	8b 4d 08	 mov	 ecx, DWORD PTR __Ptr$[ebp]
  00006	83 c1 08	 add	 ecx, 8

; 64   : 	}

  00009	5d		 pop	 ebp

; 63   : 	_Ptr->~_Ty();

  0000a	ff 25 00 00 00
	00		 jmp	 DWORD PTR __imp_??1ioHashString@@QAE@XZ
??$_Destroy@UWeaponInfo@@@std@@YAXPAUWeaponInfo@@@Z ENDP ; std::_Destroy<WeaponInfo>
_TEXT	ENDS
PUBLIC	?ClearData@ioCrecendoSkill@@IAEXXZ		; ioCrecendoSkill::ClearData
; Function compile flags: /Ogsp
; File d:\lost saga for developer\youtube\tutorial\source\src\lsclient\iocrecendoskill.cpp
;	COMDAT ?ClearData@ioCrecendoSkill@@IAEXXZ
_TEXT	SEGMENT
_value$540331 = -4					; size = 4
?ClearData@ioCrecendoSkill@@IAEXXZ PROC			; ioCrecendoSkill::ClearData, COMDAT
; _this$ = ecx

; 137  : {

  00000	55		 push	 ebp
  00001	8b ec		 mov	 ebp, esp
  00003	51		 push	 ecx
  00004	53		 push	 ebx
  00005	56		 push	 esi
  00006	8b f1		 mov	 esi, ecx

; 138  : 	m_SkillState   = SS_DELAY;

  00008	33 db		 xor	 ebx, ebx

; 139  : 	m_bSetHandMesh = false;
; 140  : 
; 141  : 	m_dwSkillStartTime = 0;

  0000a	8d 45 fc	 lea	 eax, DWORD PTR _value$540331[ebp]
  0000d	50		 push	 eax
  0000e	8d 8e 94 0e 00
	00		 lea	 ecx, DWORD PTR [esi+3732]
  00014	89 9e e4 10 00
	00		 mov	 DWORD PTR [esi+4324], ebx
  0001a	88 9e 0a 0f 00
	00		 mov	 BYTE PTR [esi+3850], bl
  00020	89 5d fc	 mov	 DWORD PTR _value$540331[ebp], ebx
  00023	e8 00 00 00 00	 call	 ?EncryptValueToPool@?$CEncrypt@K@@AAEXPBD@Z ; CEncrypt<unsigned long>::EncryptValueToPool

; 142  : 	m_dwLoopStartTime  = 0;

  00028	89 9e fc 10 00
	00		 mov	 DWORD PTR [esi+4348], ebx

; 143  : 	m_dwEndTime        = 0;

  0002e	89 9e 04 11 00
	00		 mov	 DWORD PTR [esi+4356], ebx

; 144  : 
; 145  : 	m_iCurSoundWayIdx  = 0;

  00034	89 9e 54 12 00
	00		 mov	 DWORD PTR [esi+4692], ebx

; 146  : 	m_dwCurSkillProtectTime = 0;

  0003a	89 9e 0c 11 00
	00		 mov	 DWORD PTR [esi+4364], ebx
  00040	5e		 pop	 esi
  00041	5b		 pop	 ebx

; 147  : }

  00042	c9		 leave
  00043	c3		 ret	 0
?ClearData@ioCrecendoSkill@@IAEXXZ ENDP			; ioCrecendoSkill::ClearData
_TEXT	ENDS
PUBLIC	?OnSkillStart@ioCrecendoSkill@@UAE_NPAVioBaseChar@@@Z ; ioCrecendoSkill::OnSkillStart
EXTRN	?ReduceNeedGaugeBySkill@ioBaseChar@@QAEMPAVioSkill@@M@Z:PROC ; ioBaseChar::ReduceNeedGaugeBySkill
EXTRN	?GetNeedGauge@ioSkill@@QAEMABVioHashString@@@Z:PROC ; ioSkill::GetNeedGauge
EXTRN	?ChangeSkillWeaponMesh@ioBaseChar@@QAE_NPAVioSkill@@ABVioHashString@@_N@Z:PROC ; ioBaseChar::ChangeSkillWeaponMesh
EXTRN	__imp_?IsEmpty@ioHashString@@QBE_NXZ:PROC
EXTRN	?ShowWeaponItemMesh@ioBaseChar@@QAEX_N0@Z:PROC	; ioBaseChar::ShowWeaponItemMesh
EXTRN	?OnSkillStart@ioAttackSkill@@UAE_NPAVioBaseChar@@@Z:PROC ; ioAttackSkill::OnSkillStart
; Function compile flags: /Ogsp
;	COMDAT ?OnSkillStart@ioCrecendoSkill@@UAE_NPAVioBaseChar@@@Z
_TEXT	SEGMENT
_value$540337 = -4					; size = 4
_pChar$ = 8						; size = 4
?OnSkillStart@ioCrecendoSkill@@UAE_NPAVioBaseChar@@@Z PROC ; ioCrecendoSkill::OnSkillStart, COMDAT
; _this$ = ecx

; 150  : {

  00000	55		 push	 ebp
  00001	8b ec		 mov	 ebp, esp
  00003	51		 push	 ecx
  00004	53		 push	 ebx
  00005	56		 push	 esi
  00006	57		 push	 edi

; 151  : 	ioAttackSkill::OnSkillStart( pChar );

  00007	ff 75 08	 push	 DWORD PTR _pChar$[ebp]
  0000a	8b f1		 mov	 esi, ecx
  0000c	e8 00 00 00 00	 call	 ?OnSkillStart@ioAttackSkill@@UAE_NPAVioBaseChar@@@Z ; ioAttackSkill::OnSkillStart

; 152  : 
; 153  : 	ClearData();

  00011	8b ce		 mov	 ecx, esi
  00013	e8 00 00 00 00	 call	 ?ClearData@ioCrecendoSkill@@IAEXXZ ; ioCrecendoSkill::ClearData

; 154  : 	
; 155  : 	m_dwSkillStartTime = FRAMEGETTIME();

  00018	8b 1d 00 00 00
	00		 mov	 ebx, DWORD PTR __imp_?GetSingleton@ioFrameTimer@@SAAAV1@XZ
  0001e	ff d3		 call	 ebx
  00020	8b c8		 mov	 ecx, eax
  00022	ff 15 00 00 00
	00		 call	 DWORD PTR __imp_?GetLoopSec@ioFrameTimer@@QBEKXZ
  00028	89 45 fc	 mov	 DWORD PTR _value$540337[ebp], eax
  0002b	8d 45 fc	 lea	 eax, DWORD PTR _value$540337[ebp]
  0002e	50		 push	 eax
  0002f	8d 8e 94 0e 00
	00		 lea	 ecx, DWORD PTR [esi+3732]
  00035	e8 00 00 00 00	 call	 ?EncryptValueToPool@?$CEncrypt@K@@AAEXPBD@Z ; CEncrypt<unsigned long>::EncryptValueToPool

; 156  : 
; 157  : 	// 기본 무기 손에서 제거
; 158  : 	if( m_bUseItemMesh )

  0003a	80 be 08 0f 00
	00 00		 cmp	 BYTE PTR [esi+3848], 0
  00041	74 0c		 je	 SHORT $LN3@OnSkillSta

; 159  : 	{
; 160  : 		pChar->ShowWeaponItemMesh( false );

  00043	8b 4d 08	 mov	 ecx, DWORD PTR _pChar$[ebp]
  00046	6a 00		 push	 0
  00048	6a 00		 push	 0
  0004a	e8 00 00 00 00	 call	 ?ShowWeaponItemMesh@ioBaseChar@@QAEX_N0@Z ; ioBaseChar::ShowWeaponItemMesh
$LN3@OnSkillSta:

; 161  : 	}
; 162  : 
; 163  : 	if( !m_bSetHandMesh && m_bUseItemMesh && !m_HandMesh.IsEmpty() )

  0004f	80 be 0a 0f 00
	00 00		 cmp	 BYTE PTR [esi+3850], 0
  00056	75 34		 jne	 SHORT $LN2@OnSkillSta
  00058	80 be 08 0f 00
	00 00		 cmp	 BYTE PTR [esi+3848], 0
  0005f	74 2b		 je	 SHORT $LN2@OnSkillSta
  00061	8d be f8 0e 00
	00		 lea	 edi, DWORD PTR [esi+3832]
  00067	8b cf		 mov	 ecx, edi
  00069	ff 15 00 00 00
	00		 call	 DWORD PTR __imp_?IsEmpty@ioHashString@@QBE_NXZ
  0006f	84 c0		 test	 al, al
  00071	75 19		 jne	 SHORT $LN2@OnSkillSta

; 164  : 	{
; 165  : 		pChar->ChangeSkillWeaponMesh( this, m_HandMesh, m_bVisibleEquipMesh );

  00073	0f b6 86 09 0f
	00 00		 movzx	 eax, BYTE PTR [esi+3849]
  0007a	8b 4d 08	 mov	 ecx, DWORD PTR _pChar$[ebp]
  0007d	50		 push	 eax
  0007e	57		 push	 edi
  0007f	56		 push	 esi
  00080	e8 00 00 00 00	 call	 ?ChangeSkillWeaponMesh@ioBaseChar@@QAE_NPAVioSkill@@ABVioHashString@@_N@Z ; ioBaseChar::ChangeSkillWeaponMesh

; 166  : 		m_bSetHandMesh = true;

  00085	c6 86 0a 0f 00
	00 01		 mov	 BYTE PTR [esi+3850], 1
$LN2@OnSkillSta:

; 167  : 	}	
; 168  : 	
; 169  : 	if( m_dwSkillProtectTime > 0 )

  0008c	83 be 08 11 00
	00 00		 cmp	 DWORD PTR [esi+4360], 0
  00093	76 16		 jbe	 SHORT $LN1@OnSkillSta

; 170  : 		m_dwCurSkillProtectTime = FRAMEGETTIME() + m_dwSkillProtectTime;

  00095	ff d3		 call	 ebx
  00097	8b c8		 mov	 ecx, eax
  00099	ff 15 00 00 00
	00		 call	 DWORD PTR __imp_?GetLoopSec@ioFrameTimer@@QBEKXZ
  0009f	03 86 08 11 00
	00		 add	 eax, DWORD PTR [esi+4360]
  000a5	89 86 0c 11 00
	00		 mov	 DWORD PTR [esi+4364], eax
$LN1@OnSkillSta:

; 171  : 
; 172  : 	pChar->ReduceNeedGaugeBySkill( this, GetNeedGauge( pChar->GetCharName() ) );

  000ab	8b 7d 08	 mov	 edi, DWORD PTR _pChar$[ebp]
  000ae	8d 87 d4 02 00
	00		 lea	 eax, DWORD PTR [edi+724]
  000b4	50		 push	 eax
  000b5	8b ce		 mov	 ecx, esi
  000b7	e8 00 00 00 00	 call	 ?GetNeedGauge@ioSkill@@QAEMABVioHashString@@@Z ; ioSkill::GetNeedGauge
  000bc	51		 push	 ecx
  000bd	d9 1c 24	 fstp	 DWORD PTR [esp]
  000c0	56		 push	 esi
  000c1	8b cf		 mov	 ecx, edi
  000c3	e8 00 00 00 00	 call	 ?ReduceNeedGaugeBySkill@ioBaseChar@@QAEMPAVioSkill@@M@Z ; ioBaseChar::ReduceNeedGaugeBySkill
  000c8	dd d8		 fstp	 ST(0)
  000ca	5f		 pop	 edi
  000cb	5e		 pop	 esi

; 173  : 
; 174  : 	return true;

  000cc	b0 01		 mov	 al, 1
  000ce	5b		 pop	 ebx

; 175  : }

  000cf	c9		 leave
  000d0	c2 04 00	 ret	 4
?OnSkillStart@ioCrecendoSkill@@UAE_NPAVioBaseChar@@@Z ENDP ; ioCrecendoSkill::OnSkillStart
_TEXT	ENDS
PUBLIC	??0?$vector@UWaveKey@ioCrecendoSkill@@V?$allocator@UWaveKey@ioCrecendoSkill@@@std@@@std@@QAE@XZ ; std::vector<ioCrecendoSkill::WaveKey,std::allocator<ioCrecendoSkill::WaveKey> >::vector<ioCrecendoSkill::WaveKey,std::allocator<ioCrecendoSkill::WaveKey> >
; Function compile flags: /Ogsp
; File c:\program files (x86)\microsoft visual studio 10.0\vc\include\vector
;	COMDAT ??0?$vector@UWaveKey@ioCrecendoSkill@@V?$allocator@UWaveKey@ioCrecendoSkill@@@std@@@std@@QAE@XZ
_TEXT	SEGMENT
??0?$vector@UWaveKey@ioCrecendoSkill@@V?$allocator@UWaveKey@ioCrecendoSkill@@@std@@@std@@QAE@XZ PROC ; std::vector<ioCrecendoSkill::WaveKey,std::allocator<ioCrecendoSkill::WaveKey> >::vector<ioCrecendoSkill::WaveKey,std::allocator<ioCrecendoSkill::WaveKey> >, COMDAT
; _this$ = ecx

; 507  : 		{	// construct empty vector

  00000	8b c1		 mov	 eax, ecx
  00002	33 c9		 xor	 ecx, ecx
  00004	89 08		 mov	 DWORD PTR [eax], ecx
  00006	89 48 04	 mov	 DWORD PTR [eax+4], ecx
  00009	89 48 08	 mov	 DWORD PTR [eax+8], ecx

; 508  : 		}

  0000c	c3		 ret	 0
??0?$vector@UWaveKey@ioCrecendoSkill@@V?$allocator@UWaveKey@ioCrecendoSkill@@@std@@@std@@QAE@XZ ENDP ; std::vector<ioCrecendoSkill::WaveKey,std::allocator<ioCrecendoSkill::WaveKey> >::vector<ioCrecendoSkill::WaveKey,std::allocator<ioCrecendoSkill::WaveKey> >
_TEXT	ENDS
PUBLIC	?begin@?$vector@UWaveKey@ioCrecendoSkill@@V?$allocator@UWaveKey@ioCrecendoSkill@@@std@@@std@@QAE?AV?$_Vector_iterator@V?$_Vector_val@UWaveKey@ioCrecendoSkill@@V?$allocator@UWaveKey@ioCrecendoSkill@@@std@@@std@@@2@XZ ; std::vector<ioCrecendoSkill::WaveKey,std::allocator<ioCrecendoSkill::WaveKey> >::begin
; Function compile flags: /Ogsp
;	COMDAT ?begin@?$vector@UWaveKey@ioCrecendoSkill@@V?$allocator@UWaveKey@ioCrecendoSkill@@@std@@@std@@QAE?AV?$_Vector_iterator@V?$_Vector_val@UWaveKey@ioCrecendoSkill@@V?$allocator@UWaveKey@ioCrecendoSkill@@@std@@@std@@@2@XZ
_TEXT	SEGMENT
___$ReturnUdt$ = 8					; size = 4
?begin@?$vector@UWaveKey@ioCrecendoSkill@@V?$allocator@UWaveKey@ioCrecendoSkill@@@std@@@std@@QAE?AV?$_Vector_iterator@V?$_Vector_val@UWaveKey@ioCrecendoSkill@@V?$allocator@UWaveKey@ioCrecendoSkill@@@std@@@std@@@2@XZ PROC ; std::vector<ioCrecendoSkill::WaveKey,std::allocator<ioCrecendoSkill::WaveKey> >::begin, COMDAT
; _this$ = ecx

; 781  : 		{	// return iterator for beginning of mutable sequence

  00000	55		 push	 ebp
  00001	8b ec		 mov	 ebp, esp

; 782  : 		return (iterator(this->_Myfirst, this));

  00003	8b 09		 mov	 ecx, DWORD PTR [ecx]
  00005	8b 45 08	 mov	 eax, DWORD PTR ___$ReturnUdt$[ebp]
  00008	89 08		 mov	 DWORD PTR [eax], ecx

; 783  : 		}

  0000a	5d		 pop	 ebp
  0000b	c2 04 00	 ret	 4
?begin@?$vector@UWaveKey@ioCrecendoSkill@@V?$allocator@UWaveKey@ioCrecendoSkill@@@std@@@std@@QAE?AV?$_Vector_iterator@V?$_Vector_val@UWaveKey@ioCrecendoSkill@@V?$allocator@UWaveKey@ioCrecendoSkill@@@std@@@std@@@2@XZ ENDP ; std::vector<ioCrecendoSkill::WaveKey,std::allocator<ioCrecendoSkill::WaveKey> >::begin
_TEXT	ENDS
PUBLIC	?end@?$vector@UWaveKey@ioCrecendoSkill@@V?$allocator@UWaveKey@ioCrecendoSkill@@@std@@@std@@QAE?AV?$_Vector_iterator@V?$_Vector_val@UWaveKey@ioCrecendoSkill@@V?$allocator@UWaveKey@ioCrecendoSkill@@@std@@@std@@@2@XZ ; std::vector<ioCrecendoSkill::WaveKey,std::allocator<ioCrecendoSkill::WaveKey> >::end
; Function compile flags: /Ogsp
;	COMDAT ?end@?$vector@UWaveKey@ioCrecendoSkill@@V?$allocator@UWaveKey@ioCrecendoSkill@@@std@@@std@@QAE?AV?$_Vector_iterator@V?$_Vector_val@UWaveKey@ioCrecendoSkill@@V?$allocator@UWaveKey@ioCrecendoSkill@@@std@@@std@@@2@XZ
_TEXT	SEGMENT
___$ReturnUdt$ = 8					; size = 4
?end@?$vector@UWaveKey@ioCrecendoSkill@@V?$allocator@UWaveKey@ioCrecendoSkill@@@std@@@std@@QAE?AV?$_Vector_iterator@V?$_Vector_val@UWaveKey@ioCrecendoSkill@@V?$allocator@UWaveKey@ioCrecendoSkill@@@std@@@std@@@2@XZ PROC ; std::vector<ioCrecendoSkill::WaveKey,std::allocator<ioCrecendoSkill::WaveKey> >::end, COMDAT
; _this$ = ecx

; 791  : 		{	// return iterator for end of mutable sequence

  00000	55		 push	 ebp
  00001	8b ec		 mov	 ebp, esp

; 792  : 		return (iterator(this->_Mylast, this));

  00003	8b 49 04	 mov	 ecx, DWORD PTR [ecx+4]
  00006	8b 45 08	 mov	 eax, DWORD PTR ___$ReturnUdt$[ebp]
  00009	89 08		 mov	 DWORD PTR [eax], ecx

; 793  : 		}

  0000b	5d		 pop	 ebp
  0000c	c2 04 00	 ret	 4
?end@?$vector@UWaveKey@ioCrecendoSkill@@V?$allocator@UWaveKey@ioCrecendoSkill@@@std@@@std@@QAE?AV?$_Vector_iterator@V?$_Vector_val@UWaveKey@ioCrecendoSkill@@V?$allocator@UWaveKey@ioCrecendoSkill@@@std@@@std@@@2@XZ ENDP ; std::vector<ioCrecendoSkill::WaveKey,std::allocator<ioCrecendoSkill::WaveKey> >::end
_TEXT	ENDS
PUBLIC	??0?$vector@UKeyMapEffect@ioCrecendoSkill@@V?$allocator@UKeyMapEffect@ioCrecendoSkill@@@std@@@std@@QAE@XZ ; std::vector<ioCrecendoSkill::KeyMapEffect,std::allocator<ioCrecendoSkill::KeyMapEffect> >::vector<ioCrecendoSkill::KeyMapEffect,std::allocator<ioCrecendoSkill::KeyMapEffect> >
; Function compile flags: /Ogsp
;	COMDAT ??0?$vector@UKeyMapEffect@ioCrecendoSkill@@V?$allocator@UKeyMapEffect@ioCrecendoSkill@@@std@@@std@@QAE@XZ
_TEXT	SEGMENT
??0?$vector@UKeyMapEffect@ioCrecendoSkill@@V?$allocator@UKeyMapEffect@ioCrecendoSkill@@@std@@@std@@QAE@XZ PROC ; std::vector<ioCrecendoSkill::KeyMapEffect,std::allocator<ioCrecendoSkill::KeyMapEffect> >::vector<ioCrecendoSkill::KeyMapEffect,std::allocator<ioCrecendoSkill::KeyMapEffect> >, COMDAT
; _this$ = ecx

; 507  : 		{	// construct empty vector

  00000	8b c1		 mov	 eax, ecx
  00002	33 c9		 xor	 ecx, ecx
  00004	89 08		 mov	 DWORD PTR [eax], ecx
  00006	89 48 04	 mov	 DWORD PTR [eax+4], ecx
  00009	89 48 08	 mov	 DWORD PTR [eax+8], ecx

; 508  : 		}

  0000c	c3		 ret	 0
??0?$vector@UKeyMapEffect@ioCrecendoSkill@@V?$allocator@UKeyMapEffect@ioCrecendoSkill@@@std@@@std@@QAE@XZ ENDP ; std::vector<ioCrecendoSkill::KeyMapEffect,std::allocator<ioCrecendoSkill::KeyMapEffect> >::vector<ioCrecendoSkill::KeyMapEffect,std::allocator<ioCrecendoSkill::KeyMapEffect> >
_TEXT	ENDS
PUBLIC	?begin@?$vector@UKeyMapEffect@ioCrecendoSkill@@V?$allocator@UKeyMapEffect@ioCrecendoSkill@@@std@@@std@@QAE?AV?$_Vector_iterator@V?$_Vector_val@UKeyMapEffect@ioCrecendoSkill@@V?$allocator@UKeyMapEffect@ioCrecendoSkill@@@std@@@std@@@2@XZ ; std::vector<ioCrecendoSkill::KeyMapEffect,std::allocator<ioCrecendoSkill::KeyMapEffect> >::begin
; Function compile flags: /Ogsp
;	COMDAT ?begin@?$vector@UKeyMapEffect@ioCrecendoSkill@@V?$allocator@UKeyMapEffect@ioCrecendoSkill@@@std@@@std@@QAE?AV?$_Vector_iterator@V?$_Vector_val@UKeyMapEffect@ioCrecendoSkill@@V?$allocator@UKeyMapEffect@ioCrecendoSkill@@@std@@@std@@@2@XZ
_TEXT	SEGMENT
___$ReturnUdt$ = 8					; size = 4
?begin@?$vector@UKeyMapEffect@ioCrecendoSkill@@V?$allocator@UKeyMapEffect@ioCrecendoSkill@@@std@@@std@@QAE?AV?$_Vector_iterator@V?$_Vector_val@UKeyMapEffect@ioCrecendoSkill@@V?$allocator@UKeyMapEffect@ioCrecendoSkill@@@std@@@std@@@2@XZ PROC ; std::vector<ioCrecendoSkill::KeyMapEffect,std::allocator<ioCrecendoSkill::KeyMapEffect> >::begin, COMDAT
; _this$ = ecx

; 781  : 		{	// return iterator for beginning of mutable sequence

  00000	55		 push	 ebp
  00001	8b ec		 mov	 ebp, esp

; 782  : 		return (iterator(this->_Myfirst, this));

  00003	8b 09		 mov	 ecx, DWORD PTR [ecx]
  00005	8b 45 08	 mov	 eax, DWORD PTR ___$ReturnUdt$[ebp]
  00008	89 08		 mov	 DWORD PTR [eax], ecx

; 783  : 		}

  0000a	5d		 pop	 ebp
  0000b	c2 04 00	 ret	 4
?begin@?$vector@UKeyMapEffect@ioCrecendoSkill@@V?$allocator@UKeyMapEffect@ioCrecendoSkill@@@std@@@std@@QAE?AV?$_Vector_iterator@V?$_Vector_val@UKeyMapEffect@ioCrecendoSkill@@V?$allocator@UKeyMapEffect@ioCrecendoSkill@@@std@@@std@@@2@XZ ENDP ; std::vector<ioCrecendoSkill::KeyMapEffect,std::allocator<ioCrecendoSkill::KeyMapEffect> >::begin
_TEXT	ENDS
PUBLIC	?end@?$vector@UKeyMapEffect@ioCrecendoSkill@@V?$allocator@UKeyMapEffect@ioCrecendoSkill@@@std@@@std@@QAE?AV?$_Vector_iterator@V?$_Vector_val@UKeyMapEffect@ioCrecendoSkill@@V?$allocator@UKeyMapEffect@ioCrecendoSkill@@@std@@@std@@@2@XZ ; std::vector<ioCrecendoSkill::KeyMapEffect,std::allocator<ioCrecendoSkill::KeyMapEffect> >::end
; Function compile flags: /Ogsp
;	COMDAT ?end@?$vector@UKeyMapEffect@ioCrecendoSkill@@V?$allocator@UKeyMapEffect@ioCrecendoSkill@@@std@@@std@@QAE?AV?$_Vector_iterator@V?$_Vector_val@UKeyMapEffect@ioCrecendoSkill@@V?$allocator@UKeyMapEffect@ioCrecendoSkill@@@std@@@std@@@2@XZ
_TEXT	SEGMENT
___$ReturnUdt$ = 8					; size = 4
?end@?$vector@UKeyMapEffect@ioCrecendoSkill@@V?$allocator@UKeyMapEffect@ioCrecendoSkill@@@std@@@std@@QAE?AV?$_Vector_iterator@V?$_Vector_val@UKeyMapEffect@ioCrecendoSkill@@V?$allocator@UKeyMapEffect@ioCrecendoSkill@@@std@@@std@@@2@XZ PROC ; std::vector<ioCrecendoSkill::KeyMapEffect,std::allocator<ioCrecendoSkill::KeyMapEffect> >::end, COMDAT
; _this$ = ecx

; 791  : 		{	// return iterator for end of mutable sequence

  00000	55		 push	 ebp
  00001	8b ec		 mov	 ebp, esp

; 792  : 		return (iterator(this->_Mylast, this));

  00003	8b 49 04	 mov	 ecx, DWORD PTR [ecx+4]
  00006	8b 45 08	 mov	 eax, DWORD PTR ___$ReturnUdt$[ebp]
  00009	89 08		 mov	 DWORD PTR [eax], ecx

; 793  : 		}

  0000b	5d		 pop	 ebp
  0000c	c2 04 00	 ret	 4
?end@?$vector@UKeyMapEffect@ioCrecendoSkill@@V?$allocator@UKeyMapEffect@ioCrecendoSkill@@@std@@@std@@QAE?AV?$_Vector_iterator@V?$_Vector_val@UKeyMapEffect@ioCrecendoSkill@@V?$allocator@UKeyMapEffect@ioCrecendoSkill@@@std@@@std@@@2@XZ ENDP ; std::vector<ioCrecendoSkill::KeyMapEffect,std::allocator<ioCrecendoSkill::KeyMapEffect> >::end
_TEXT	ENDS
PUBLIC	??9?$_Vector_const_iterator@V?$_Vector_val@UKeyMapEffect@ioCrecendoSkill@@V?$allocator@UKeyMapEffect@ioCrecendoSkill@@@std@@@std@@@std@@QBE_NABV01@@Z ; std::_Vector_const_iterator<std::_Vector_val<ioCrecendoSkill::KeyMapEffect,std::allocator<ioCrecendoSkill::KeyMapEffect> > >::operator!=
; Function compile flags: /Ogsp
;	COMDAT ??9?$_Vector_const_iterator@V?$_Vector_val@UKeyMapEffect@ioCrecendoSkill@@V?$allocator@UKeyMapEffect@ioCrecendoSkill@@@std@@@std@@@std@@QBE_NABV01@@Z
_TEXT	SEGMENT
__Right$ = 8						; size = 4
??9?$_Vector_const_iterator@V?$_Vector_val@UKeyMapEffect@ioCrecendoSkill@@V?$allocator@UKeyMapEffect@ioCrecendoSkill@@@std@@@std@@@std@@QBE_NABV01@@Z PROC ; std::_Vector_const_iterator<std::_Vector_val<ioCrecendoSkill::KeyMapEffect,std::allocator<ioCrecendoSkill::KeyMapEffect> > >::operator!=, COMDAT
; _this$ = ecx

; 207  : 		{	// test for iterator inequality

  00000	55		 push	 ebp
  00001	8b ec		 mov	 ebp, esp

; 208  : 		return (!(*this == _Right));

  00003	8b 01		 mov	 eax, DWORD PTR [ecx]
  00005	8b 55 08	 mov	 edx, DWORD PTR __Right$[ebp]
  00008	33 c9		 xor	 ecx, ecx
  0000a	3b 02		 cmp	 eax, DWORD PTR [edx]
  0000c	0f 95 c0	 setne	 al

; 209  : 		}

  0000f	5d		 pop	 ebp
  00010	c2 04 00	 ret	 4
??9?$_Vector_const_iterator@V?$_Vector_val@UKeyMapEffect@ioCrecendoSkill@@V?$allocator@UKeyMapEffect@ioCrecendoSkill@@@std@@@std@@@std@@QBE_NABV01@@Z ENDP ; std::_Vector_const_iterator<std::_Vector_val<ioCrecendoSkill::KeyMapEffect,std::allocator<ioCrecendoSkill::KeyMapEffect> > >::operator!=
_TEXT	ENDS
PUBLIC	??9?$_Vector_const_iterator@V?$_Vector_val@UWaveKey@ioCrecendoSkill@@V?$allocator@UWaveKey@ioCrecendoSkill@@@std@@@std@@@std@@QBE_NABV01@@Z ; std::_Vector_const_iterator<std::_Vector_val<ioCrecendoSkill::WaveKey,std::allocator<ioCrecendoSkill::WaveKey> > >::operator!=
; Function compile flags: /Ogsp
;	COMDAT ??9?$_Vector_const_iterator@V?$_Vector_val@UWaveKey@ioCrecendoSkill@@V?$allocator@UWaveKey@ioCrecendoSkill@@@std@@@std@@@std@@QBE_NABV01@@Z
_TEXT	SEGMENT
__Right$ = 8						; size = 4
??9?$_Vector_const_iterator@V?$_Vector_val@UWaveKey@ioCrecendoSkill@@V?$allocator@UWaveKey@ioCrecendoSkill@@@std@@@std@@@std@@QBE_NABV01@@Z PROC ; std::_Vector_const_iterator<std::_Vector_val<ioCrecendoSkill::WaveKey,std::allocator<ioCrecendoSkill::WaveKey> > >::operator!=, COMDAT
; _this$ = ecx

; 207  : 		{	// test for iterator inequality

  00000	55		 push	 ebp
  00001	8b ec		 mov	 ebp, esp

; 208  : 		return (!(*this == _Right));

  00003	8b 01		 mov	 eax, DWORD PTR [ecx]
  00005	8b 55 08	 mov	 edx, DWORD PTR __Right$[ebp]
  00008	33 c9		 xor	 ecx, ecx
  0000a	3b 02		 cmp	 eax, DWORD PTR [edx]
  0000c	0f 95 c0	 setne	 al

; 209  : 		}

  0000f	5d		 pop	 ebp
  00010	c2 04 00	 ret	 4
??9?$_Vector_const_iterator@V?$_Vector_val@UWaveKey@ioCrecendoSkill@@V?$allocator@UWaveKey@ioCrecendoSkill@@@std@@@std@@@std@@QBE_NABV01@@Z ENDP ; std::_Vector_const_iterator<std::_Vector_val<ioCrecendoSkill::WaveKey,std::allocator<ioCrecendoSkill::WaveKey> > >::operator!=
_TEXT	ENDS
PUBLIC	??9?$_Vector_const_iterator@V?$_Vector_val@PAVioBaseChar@@V?$allocator@PAVioBaseChar@@@std@@@std@@@std@@QBE_NABV01@@Z ; std::_Vector_const_iterator<std::_Vector_val<ioBaseChar *,std::allocator<ioBaseChar *> > >::operator!=
; Function compile flags: /Ogsp
;	COMDAT ??9?$_Vector_const_iterator@V?$_Vector_val@PAVioBaseChar@@V?$allocator@PAVioBaseChar@@@std@@@std@@@std@@QBE_NABV01@@Z
_TEXT	SEGMENT
__Right$ = 8						; size = 4
??9?$_Vector_const_iterator@V?$_Vector_val@PAVioBaseChar@@V?$allocator@PAVioBaseChar@@@std@@@std@@@std@@QBE_NABV01@@Z PROC ; std::_Vector_const_iterator<std::_Vector_val<ioBaseChar *,std::allocator<ioBaseChar *> > >::operator!=, COMDAT
; _this$ = ecx

; 207  : 		{	// test for iterator inequality

  00000	55		 push	 ebp
  00001	8b ec		 mov	 ebp, esp

; 208  : 		return (!(*this == _Right));

  00003	8b 01		 mov	 eax, DWORD PTR [ecx]
  00005	8b 55 08	 mov	 edx, DWORD PTR __Right$[ebp]
  00008	33 c9		 xor	 ecx, ecx
  0000a	3b 02		 cmp	 eax, DWORD PTR [edx]
  0000c	0f 95 c0	 setne	 al

; 209  : 		}

  0000f	5d		 pop	 ebp
  00010	c2 04 00	 ret	 4
??9?$_Vector_const_iterator@V?$_Vector_val@PAVioBaseChar@@V?$allocator@PAVioBaseChar@@@std@@@std@@@std@@QBE_NABV01@@Z ENDP ; std::_Vector_const_iterator<std::_Vector_val<ioBaseChar *,std::allocator<ioBaseChar *> > >::operator!=
_TEXT	ENDS
PUBLIC	?_Buy@?$vector@UWaveKey@ioCrecendoSkill@@V?$allocator@UWaveKey@ioCrecendoSkill@@@std@@@std@@IAE_NI@Z ; std::vector<ioCrecendoSkill::WaveKey,std::allocator<ioCrecendoSkill::WaveKey> >::_Buy
; Function compile flags: /Ogsp
;	COMDAT ?_Buy@?$vector@UWaveKey@ioCrecendoSkill@@V?$allocator@UWaveKey@ioCrecendoSkill@@@std@@@std@@IAE_NI@Z
_TEXT	SEGMENT
__Capacity$ = 8						; size = 4
?_Buy@?$vector@UWaveKey@ioCrecendoSkill@@V?$allocator@UWaveKey@ioCrecendoSkill@@@std@@@std@@IAE_NI@Z PROC ; std::vector<ioCrecendoSkill::WaveKey,std::allocator<ioCrecendoSkill::WaveKey> >::_Buy, COMDAT
; _this$ = ecx

; 1250 : 		{	// allocate array with _Capacity elements

  00000	55		 push	 ebp
  00001	8b ec		 mov	 ebp, esp
  00003	56		 push	 esi

; 1251 : 		this->_Myfirst = 0;

  00004	33 c0		 xor	 eax, eax
  00006	57		 push	 edi

; 1252 : 		this->_Mylast = 0;
; 1253 : 		this->_Myend = 0;
; 1254 : 
; 1255 : 		if (_Capacity == 0)

  00007	8b 7d 08	 mov	 edi, DWORD PTR __Capacity$[ebp]
  0000a	8b f1		 mov	 esi, ecx
  0000c	89 06		 mov	 DWORD PTR [esi], eax
  0000e	89 46 04	 mov	 DWORD PTR [esi+4], eax
  00011	89 46 08	 mov	 DWORD PTR [esi+8], eax
  00014	3b f8		 cmp	 edi, eax
  00016	75 04		 jne	 SHORT $LN4@Buy

; 1256 : 			return (false);

  00018	32 c0		 xor	 al, al
  0001a	eb 2b		 jmp	 SHORT $LN5@Buy
$LN4@Buy:

; 1257 : 		else if (max_size() < _Capacity)

  0001c	81 ff 97 d0 5e
	02		 cmp	 edi, 39768215		; 025ed097H
  00022	76 0b		 jbe	 SHORT $LN2@Buy

; 1258 : 			_Xlen();	// result too long

  00024	68 00 00 00 00	 push	 OFFSET ??_C@_0BD@OLBABOEK@vector?$DMT?$DO?5too?5long?$AA@
  00029	ff 15 00 00 00
	00		 call	 DWORD PTR __imp_?_Xlength_error@std@@YAXPBD@Z
$LN19@Buy:
$LN2@Buy:

; 1259 : 		else
; 1260 : 			{	// nonempty array, allocate storage
; 1261 : 			this->_Myfirst = this->_Alval.allocate(_Capacity);

  0002f	50		 push	 eax
  00030	57		 push	 edi
  00031	e8 00 00 00 00	 call	 ??$_Allocate@UWaveKey@ioCrecendoSkill@@@std@@YAPAUWaveKey@ioCrecendoSkill@@IPAU12@@Z ; std::_Allocate<ioCrecendoSkill::WaveKey>

; 1262 : 			this->_Mylast = this->_Myfirst;
; 1263 : 			this->_Myend = this->_Myfirst + _Capacity;

  00036	6b ff 6c	 imul	 edi, 108		; 0000006cH
  00039	03 f8		 add	 edi, eax
  0003b	59		 pop	 ecx
  0003c	89 06		 mov	 DWORD PTR [esi], eax
  0003e	89 46 04	 mov	 DWORD PTR [esi+4], eax
  00041	59		 pop	 ecx
  00042	89 7e 08	 mov	 DWORD PTR [esi+8], edi

; 1264 : 			}
; 1265 : 		return (true);

  00045	b0 01		 mov	 al, 1
$LN5@Buy:
  00047	5f		 pop	 edi
  00048	5e		 pop	 esi

; 1266 : 		}

  00049	5d		 pop	 ebp
  0004a	c2 04 00	 ret	 4
$LN18@Buy:
?_Buy@?$vector@UWaveKey@ioCrecendoSkill@@V?$allocator@UWaveKey@ioCrecendoSkill@@@std@@@std@@IAE_NI@Z ENDP ; std::vector<ioCrecendoSkill::WaveKey,std::allocator<ioCrecendoSkill::WaveKey> >::_Buy
_TEXT	ENDS
PUBLIC	?_Make_iter@?$vector@UKeyMapEffect@ioCrecendoSkill@@V?$allocator@UKeyMapEffect@ioCrecendoSkill@@@std@@@std@@QBE?AV?$_Vector_iterator@V?$_Vector_val@UKeyMapEffect@ioCrecendoSkill@@V?$allocator@UKeyMapEffect@ioCrecendoSkill@@@std@@@std@@@2@V?$_Vector_const_iterator@V?$_Vector_val@UKeyMapEffect@ioCrecendoSkill@@V?$allocator@UKeyMapEffect@ioCrecendoSkill@@@std@@@std@@@2@@Z ; std::vector<ioCrecendoSkill::KeyMapEffect,std::allocator<ioCrecendoSkill::KeyMapEffect> >::_Make_iter
; Function compile flags: /Ogsp
;	COMDAT ?_Make_iter@?$vector@UKeyMapEffect@ioCrecendoSkill@@V?$allocator@UKeyMapEffect@ioCrecendoSkill@@@std@@@std@@QBE?AV?$_Vector_iterator@V?$_Vector_val@UKeyMapEffect@ioCrecendoSkill@@V?$allocator@UKeyMapEffect@ioCrecendoSkill@@@std@@@std@@@2@V?$_Vector_const_iterator@V?$_Vector_val@UKeyMapEffect@ioCrecendoSkill@@V?$allocator@UKeyMapEffect@ioCrecendoSkill@@@std@@@std@@@2@@Z
_TEXT	SEGMENT
___$ReturnUdt$ = 8					; size = 4
__Where$ = 12						; size = 4
?_Make_iter@?$vector@UKeyMapEffect@ioCrecendoSkill@@V?$allocator@UKeyMapEffect@ioCrecendoSkill@@@std@@@std@@QBE?AV?$_Vector_iterator@V?$_Vector_val@UKeyMapEffect@ioCrecendoSkill@@V?$allocator@UKeyMapEffect@ioCrecendoSkill@@@std@@@std@@@2@V?$_Vector_const_iterator@V?$_Vector_val@UKeyMapEffect@ioCrecendoSkill@@V?$allocator@UKeyMapEffect@ioCrecendoSkill@@@std@@@std@@@2@@Z PROC ; std::vector<ioCrecendoSkill::KeyMapEffect,std::allocator<ioCrecendoSkill::KeyMapEffect> >::_Make_iter, COMDAT
; _this$ = ecx

; 801  : 		{	// make iterator from const_iterator

  00000	55		 push	 ebp
  00001	8b ec		 mov	 ebp, esp

; 802  : 		return (iterator(_Where._Ptr, this));

  00003	8b 45 08	 mov	 eax, DWORD PTR ___$ReturnUdt$[ebp]
  00006	8b 4d 0c	 mov	 ecx, DWORD PTR __Where$[ebp]
  00009	89 08		 mov	 DWORD PTR [eax], ecx

; 803  : 		}

  0000b	5d		 pop	 ebp
  0000c	c2 08 00	 ret	 8
?_Make_iter@?$vector@UKeyMapEffect@ioCrecendoSkill@@V?$allocator@UKeyMapEffect@ioCrecendoSkill@@@std@@@std@@QBE?AV?$_Vector_iterator@V?$_Vector_val@UKeyMapEffect@ioCrecendoSkill@@V?$allocator@UKeyMapEffect@ioCrecendoSkill@@@std@@@std@@@2@V?$_Vector_const_iterator@V?$_Vector_val@UKeyMapEffect@ioCrecendoSkill@@V?$allocator@UKeyMapEffect@ioCrecendoSkill@@@std@@@std@@@2@@Z ENDP ; std::vector<ioCrecendoSkill::KeyMapEffect,std::allocator<ioCrecendoSkill::KeyMapEffect> >::_Make_iter
_TEXT	ENDS
PUBLIC	??$_Cons_val@V?$allocator@UKeyMapEffect@ioCrecendoSkill@@@std@@UKeyMapEffect@ioCrecendoSkill@@ABU34@@std@@YAXAAV?$allocator@UKeyMapEffect@ioCrecendoSkill@@@0@PAUKeyMapEffect@ioCrecendoSkill@@ABU23@@Z ; std::_Cons_val<std::allocator<ioCrecendoSkill::KeyMapEffect>,ioCrecendoSkill::KeyMapEffect,ioCrecendoSkill::KeyMapEffect const &>
; Function compile flags: /Ogsp
; File c:\program files (x86)\microsoft visual studio 10.0\vc\include\xmemory
;	COMDAT ??$_Cons_val@V?$allocator@UKeyMapEffect@ioCrecendoSkill@@@std@@UKeyMapEffect@ioCrecendoSkill@@ABU34@@std@@YAXAAV?$allocator@UKeyMapEffect@ioCrecendoSkill@@@0@PAUKeyMapEffect@ioCrecendoSkill@@ABU23@@Z
_TEXT	SEGMENT
__Alval$ = 8						; size = 4
__Pdest$ = 12						; size = 4
__Src$ = 16						; size = 4
??$_Cons_val@V?$allocator@UKeyMapEffect@ioCrecendoSkill@@@std@@UKeyMapEffect@ioCrecendoSkill@@ABU34@@std@@YAXAAV?$allocator@UKeyMapEffect@ioCrecendoSkill@@@0@PAUKeyMapEffect@ioCrecendoSkill@@ABU23@@Z PROC ; std::_Cons_val<std::allocator<ioCrecendoSkill::KeyMapEffect>,ioCrecendoSkill::KeyMapEffect,ioCrecendoSkill::KeyMapEffect const &>, COMDAT

; 279  : 	{	// construct using allocator

  00000	55		 push	 ebp
  00001	8b ec		 mov	 ebp, esp

; 280  : 	_Alval.construct(_Pdest, _STD forward<_Ty2>(_Src));

  00003	8b 45 0c	 mov	 eax, DWORD PTR __Pdest$[ebp]
  00006	85 c0		 test	 eax, eax
  00008	74 0d		 je	 SHORT $LN9@Cons_val@2
  0000a	8b 4d 10	 mov	 ecx, DWORD PTR __Src$[ebp]
  0000d	8b 11		 mov	 edx, DWORD PTR [ecx]
  0000f	89 10		 mov	 DWORD PTR [eax], edx
  00011	8b 49 04	 mov	 ecx, DWORD PTR [ecx+4]
  00014	89 48 04	 mov	 DWORD PTR [eax+4], ecx
$LN9@Cons_val@2:

; 281  : 	}

  00017	5d		 pop	 ebp
  00018	c3		 ret	 0
??$_Cons_val@V?$allocator@UKeyMapEffect@ioCrecendoSkill@@@std@@UKeyMapEffect@ioCrecendoSkill@@ABU34@@std@@YAXAAV?$allocator@UKeyMapEffect@ioCrecendoSkill@@@0@PAUKeyMapEffect@ioCrecendoSkill@@ABU23@@Z ENDP ; std::_Cons_val<std::allocator<ioCrecendoSkill::KeyMapEffect>,ioCrecendoSkill::KeyMapEffect,ioCrecendoSkill::KeyMapEffect const &>
_TEXT	ENDS
PUBLIC	??$_Move@PAUKeyMapEffect@ioCrecendoSkill@@PAU12@@std@@YAPAUKeyMapEffect@ioCrecendoSkill@@PAU12@00@Z ; std::_Move<ioCrecendoSkill::KeyMapEffect *,ioCrecendoSkill::KeyMapEffect *>
; Function compile flags: /Ogsp
; File c:\program files (x86)\microsoft visual studio 10.0\vc\include\xutility
;	COMDAT ??$_Move@PAUKeyMapEffect@ioCrecendoSkill@@PAU12@@std@@YAPAUKeyMapEffect@ioCrecendoSkill@@PAU12@00@Z
_TEXT	SEGMENT
__Cat$540568 = -4					; size = 1
__First$ = 8						; size = 4
__Last$ = 12						; size = 4
__Dest$ = 16						; size = 4
??$_Move@PAUKeyMapEffect@ioCrecendoSkill@@PAU12@@std@@YAPAUKeyMapEffect@ioCrecendoSkill@@PAU12@00@Z PROC ; std::_Move<ioCrecendoSkill::KeyMapEffect *,ioCrecendoSkill::KeyMapEffect *>, COMDAT

; 2533 : 	{	// move [_First, _Last) to [_Dest, ...), unchecked

  00000	55		 push	 ebp
  00001	8b ec		 mov	 ebp, esp
  00003	51		 push	 ecx

; 2534 : 	return (_Move(_First, _Last,
; 2535 : 		_Dest, _Ptr_cat(_First, _Dest)));

  00004	ff 75 fc	 push	 DWORD PTR __Cat$540568[ebp]
  00007	ff 75 10	 push	 DWORD PTR __Dest$[ebp]
  0000a	ff 75 0c	 push	 DWORD PTR __Last$[ebp]
  0000d	ff 75 08	 push	 DWORD PTR __First$[ebp]
  00010	e8 00 00 00 00	 call	 ??$_Move@PAUKeyMapEffect@ioCrecendoSkill@@PAU12@@std@@YAPAUKeyMapEffect@ioCrecendoSkill@@PAU12@00U_Nonscalar_ptr_iterator_tag@0@@Z ; std::_Move<ioCrecendoSkill::KeyMapEffect *,ioCrecendoSkill::KeyMapEffect *>
  00015	83 c4 10	 add	 esp, 16			; 00000010H

; 2536 : 	}

  00018	c9		 leave
  00019	c3		 ret	 0
??$_Move@PAUKeyMapEffect@ioCrecendoSkill@@PAU12@@std@@YAPAUKeyMapEffect@ioCrecendoSkill@@PAU12@00@Z ENDP ; std::_Move<ioCrecendoSkill::KeyMapEffect *,ioCrecendoSkill::KeyMapEffect *>
_TEXT	ENDS
PUBLIC	??H?$_Vector_iterator@V?$_Vector_val@UKeyMapEffect@ioCrecendoSkill@@V?$allocator@UKeyMapEffect@ioCrecendoSkill@@@std@@@std@@@std@@QBE?AV01@H@Z ; std::_Vector_iterator<std::_Vector_val<ioCrecendoSkill::KeyMapEffect,std::allocator<ioCrecendoSkill::KeyMapEffect> > >::operator+
; Function compile flags: /Ogsp
; File c:\program files (x86)\microsoft visual studio 10.0\vc\include\vector
;	COMDAT ??H?$_Vector_iterator@V?$_Vector_val@UKeyMapEffect@ioCrecendoSkill@@V?$allocator@UKeyMapEffect@ioCrecendoSkill@@@std@@@std@@@std@@QBE?AV01@H@Z
_TEXT	SEGMENT
___$ReturnUdt$ = 8					; size = 4
__Off$ = 12						; size = 4
??H?$_Vector_iterator@V?$_Vector_val@UKeyMapEffect@ioCrecendoSkill@@V?$allocator@UKeyMapEffect@ioCrecendoSkill@@@std@@@std@@@std@@QBE?AV01@H@Z PROC ; std::_Vector_iterator<std::_Vector_val<ioCrecendoSkill::KeyMapEffect,std::allocator<ioCrecendoSkill::KeyMapEffect> > >::operator+, COMDAT
; _this$ = ecx

; 363  : 		{	// return this + integer

  00000	55		 push	 ebp
  00001	8b ec		 mov	 ebp, esp

; 364  : 		_Myiter _Tmp = *this;
; 365  : 		return (_Tmp += _Off);

  00003	8b 01		 mov	 eax, DWORD PTR [ecx]
  00005	8b 4d 0c	 mov	 ecx, DWORD PTR __Off$[ebp]
  00008	8d 0c c8	 lea	 ecx, DWORD PTR [eax+ecx*8]
  0000b	8b 45 08	 mov	 eax, DWORD PTR ___$ReturnUdt$[ebp]
  0000e	89 08		 mov	 DWORD PTR [eax], ecx

; 366  : 		}

  00010	5d		 pop	 ebp
  00011	c2 08 00	 ret	 8
??H?$_Vector_iterator@V?$_Vector_val@UKeyMapEffect@ioCrecendoSkill@@V?$allocator@UKeyMapEffect@ioCrecendoSkill@@@std@@@std@@@std@@QBE?AV01@H@Z ENDP ; std::_Vector_iterator<std::_Vector_val<ioCrecendoSkill::KeyMapEffect,std::allocator<ioCrecendoSkill::KeyMapEffect> > >::operator+
_TEXT	ENDS
PUBLIC	??G?$_Vector_iterator@V?$_Vector_val@UKeyMapEffect@ioCrecendoSkill@@V?$allocator@UKeyMapEffect@ioCrecendoSkill@@@std@@@std@@@std@@QBE?AV01@H@Z ; std::_Vector_iterator<std::_Vector_val<ioCrecendoSkill::KeyMapEffect,std::allocator<ioCrecendoSkill::KeyMapEffect> > >::operator-
; Function compile flags: /Ogsp
;	COMDAT ??G?$_Vector_iterator@V?$_Vector_val@UKeyMapEffect@ioCrecendoSkill@@V?$allocator@UKeyMapEffect@ioCrecendoSkill@@@std@@@std@@@std@@QBE?AV01@H@Z
_TEXT	SEGMENT
___$ReturnUdt$ = 8					; size = 4
__Off$ = 12						; size = 4
??G?$_Vector_iterator@V?$_Vector_val@UKeyMapEffect@ioCrecendoSkill@@V?$allocator@UKeyMapEffect@ioCrecendoSkill@@@std@@@std@@@std@@QBE?AV01@H@Z PROC ; std::_Vector_iterator<std::_Vector_val<ioCrecendoSkill::KeyMapEffect,std::allocator<ioCrecendoSkill::KeyMapEffect> > >::operator-, COMDAT
; _this$ = ecx

; 374  : 		{	// return this - integer

  00000	55		 push	 ebp
  00001	8b ec		 mov	 ebp, esp

; 375  : 		_Myiter _Tmp = *this;
; 376  : 		return (_Tmp -= _Off);

  00003	8b 45 0c	 mov	 eax, DWORD PTR __Off$[ebp]
  00006	8b 09		 mov	 ecx, DWORD PTR [ecx]
  00008	c1 e0 03	 shl	 eax, 3
  0000b	2b c8		 sub	 ecx, eax
  0000d	8b 45 08	 mov	 eax, DWORD PTR ___$ReturnUdt$[ebp]
  00010	89 08		 mov	 DWORD PTR [eax], ecx

; 377  : 		}

  00012	5d		 pop	 ebp
  00013	c2 08 00	 ret	 8
??G?$_Vector_iterator@V?$_Vector_val@UKeyMapEffect@ioCrecendoSkill@@V?$allocator@UKeyMapEffect@ioCrecendoSkill@@@std@@@std@@@std@@QBE?AV01@H@Z ENDP ; std::_Vector_iterator<std::_Vector_val<ioCrecendoSkill::KeyMapEffect,std::allocator<ioCrecendoSkill::KeyMapEffect> > >::operator-
_TEXT	ENDS
PUBLIC	??$_Dest_val@V?$allocator@UKeyMapEffect@ioCrecendoSkill@@@std@@UKeyMapEffect@ioCrecendoSkill@@@std@@YAXAAV?$allocator@UKeyMapEffect@ioCrecendoSkill@@@0@PAUKeyMapEffect@ioCrecendoSkill@@@Z ; std::_Dest_val<std::allocator<ioCrecendoSkill::KeyMapEffect>,ioCrecendoSkill::KeyMapEffect>
; Function compile flags: /Ogsp
; File c:\program files (x86)\microsoft visual studio 10.0\vc\include\xmemory
;	COMDAT ??$_Dest_val@V?$allocator@UKeyMapEffect@ioCrecendoSkill@@@std@@UKeyMapEffect@ioCrecendoSkill@@@std@@YAXAAV?$allocator@UKeyMapEffect@ioCrecendoSkill@@@0@PAUKeyMapEffect@ioCrecendoSkill@@@Z
_TEXT	SEGMENT
__Alval$ = 8						; size = 4
__Pdest$ = 12						; size = 4
??$_Dest_val@V?$allocator@UKeyMapEffect@ioCrecendoSkill@@@std@@UKeyMapEffect@ioCrecendoSkill@@@std@@YAXAAV?$allocator@UKeyMapEffect@ioCrecendoSkill@@@0@PAUKeyMapEffect@ioCrecendoSkill@@@Z PROC ; std::_Dest_val<std::allocator<ioCrecendoSkill::KeyMapEffect>,ioCrecendoSkill::KeyMapEffect>, COMDAT

; 287  : 	_Alval.destroy(_Pdest);
; 288  : 	}

  00000	c3		 ret	 0
??$_Dest_val@V?$allocator@UKeyMapEffect@ioCrecendoSkill@@@std@@UKeyMapEffect@ioCrecendoSkill@@@std@@YAXAAV?$allocator@UKeyMapEffect@ioCrecendoSkill@@@0@PAUKeyMapEffect@ioCrecendoSkill@@@Z ENDP ; std::_Dest_val<std::allocator<ioCrecendoSkill::KeyMapEffect>,ioCrecendoSkill::KeyMapEffect>
_TEXT	ENDS
PUBLIC	??$advance@V?$_Vector_iterator@V?$_Vector_val@UKeyMapEffect@ioCrecendoSkill@@V?$allocator@UKeyMapEffect@ioCrecendoSkill@@@std@@@std@@@std@@H@std@@YAXAAV?$_Vector_iterator@V?$_Vector_val@UKeyMapEffect@ioCrecendoSkill@@V?$allocator@UKeyMapEffect@ioCrecendoSkill@@@std@@@std@@@0@H@Z ; std::advance<std::_Vector_iterator<std::_Vector_val<ioCrecendoSkill::KeyMapEffect,std::allocator<ioCrecendoSkill::KeyMapEffect> > >,int>
; Function compile flags: /Ogsp
; File c:\program files (x86)\microsoft visual studio 10.0\vc\include\xutility
;	COMDAT ??$advance@V?$_Vector_iterator@V?$_Vector_val@UKeyMapEffect@ioCrecendoSkill@@V?$allocator@UKeyMapEffect@ioCrecendoSkill@@@std@@@std@@@std@@H@std@@YAXAAV?$_Vector_iterator@V?$_Vector_val@UKeyMapEffect@ioCrecendoSkill@@V?$allocator@UKeyMapEffect@ioCrecendoSkill@@@std@@@std@@@0@H@Z
_TEXT	SEGMENT
__Where$ = 8						; size = 4
__Off$ = 12						; size = 4
??$advance@V?$_Vector_iterator@V?$_Vector_val@UKeyMapEffect@ioCrecendoSkill@@V?$allocator@UKeyMapEffect@ioCrecendoSkill@@@std@@@std@@@std@@H@std@@YAXAAV?$_Vector_iterator@V?$_Vector_val@UKeyMapEffect@ioCrecendoSkill@@V?$allocator@UKeyMapEffect@ioCrecendoSkill@@@std@@@std@@@0@H@Z PROC ; std::advance<std::_Vector_iterator<std::_Vector_val<ioCrecendoSkill::KeyMapEffect,std::allocator<ioCrecendoSkill::KeyMapEffect> > >,int>, COMDAT

; 797  : 	{	// increment iterator by offset, arbitrary iterators

  00000	55		 push	 ebp
  00001	8b ec		 mov	 ebp, esp

; 798  : 	_Advance(_Where, _Off, _Iter_cat(_Where));

  00003	8b 4d 0c	 mov	 ecx, DWORD PTR __Off$[ebp]
  00006	8b 45 08	 mov	 eax, DWORD PTR __Where$[ebp]
  00009	c1 e1 03	 shl	 ecx, 3
  0000c	01 08		 add	 DWORD PTR [eax], ecx

; 799  : 	}

  0000e	5d		 pop	 ebp
  0000f	c3		 ret	 0
??$advance@V?$_Vector_iterator@V?$_Vector_val@UKeyMapEffect@ioCrecendoSkill@@V?$allocator@UKeyMapEffect@ioCrecendoSkill@@@std@@@std@@@std@@H@std@@YAXAAV?$_Vector_iterator@V?$_Vector_val@UKeyMapEffect@ioCrecendoSkill@@V?$allocator@UKeyMapEffect@ioCrecendoSkill@@@std@@@std@@@0@H@Z ENDP ; std::advance<std::_Vector_iterator<std::_Vector_val<ioCrecendoSkill::KeyMapEffect,std::allocator<ioCrecendoSkill::KeyMapEffect> > >,int>
_TEXT	ENDS
PUBLIC	??$_Cons_val@V?$allocator@UForceInfo@@@std@@UForceInfo@@ABU3@@std@@YAXAAV?$allocator@UForceInfo@@@0@PAUForceInfo@@ABU2@@Z ; std::_Cons_val<std::allocator<ForceInfo>,ForceInfo,ForceInfo const &>
; Function compile flags: /Ogsp
; File c:\program files (x86)\microsoft visual studio 10.0\vc\include\xmemory
;	COMDAT ??$_Cons_val@V?$allocator@UForceInfo@@@std@@UForceInfo@@ABU3@@std@@YAXAAV?$allocator@UForceInfo@@@0@PAUForceInfo@@ABU2@@Z
_TEXT	SEGMENT
__Alval$ = 8						; size = 4
__Pdest$ = 12						; size = 4
__Src$ = 16						; size = 4
??$_Cons_val@V?$allocator@UForceInfo@@@std@@UForceInfo@@ABU3@@std@@YAXAAV?$allocator@UForceInfo@@@0@PAUForceInfo@@ABU2@@Z PROC ; std::_Cons_val<std::allocator<ForceInfo>,ForceInfo,ForceInfo const &>, COMDAT

; 279  : 	{	// construct using allocator

  00000	55		 push	 ebp
  00001	8b ec		 mov	 ebp, esp
  00003	57		 push	 edi

; 280  : 	_Alval.construct(_Pdest, _STD forward<_Ty2>(_Src));

  00004	8b 7d 0c	 mov	 edi, DWORD PTR __Pdest$[ebp]
  00007	85 ff		 test	 edi, edi
  00009	74 08		 je	 SHORT $LN9@Cons_val@3
  0000b	56		 push	 esi
  0000c	8b 75 10	 mov	 esi, DWORD PTR __Src$[ebp]
  0000f	a5		 movsd
  00010	a5		 movsd
  00011	a5		 movsd
  00012	5e		 pop	 esi
$LN9@Cons_val@3:
  00013	5f		 pop	 edi

; 281  : 	}

  00014	5d		 pop	 ebp
  00015	c3		 ret	 0
??$_Cons_val@V?$allocator@UForceInfo@@@std@@UForceInfo@@ABU3@@std@@YAXAAV?$allocator@UForceInfo@@@0@PAUForceInfo@@ABU2@@Z ENDP ; std::_Cons_val<std::allocator<ForceInfo>,ForceInfo,ForceInfo const &>
_TEXT	ENDS
PUBLIC	??$_Cons_val@V?$allocator@UKeyMapEffect@ioCrecendoSkill@@@std@@UKeyMapEffect@ioCrecendoSkill@@U34@@std@@YAXAAV?$allocator@UKeyMapEffect@ioCrecendoSkill@@@0@PAUKeyMapEffect@ioCrecendoSkill@@$$QAU23@@Z ; std::_Cons_val<std::allocator<ioCrecendoSkill::KeyMapEffect>,ioCrecendoSkill::KeyMapEffect,ioCrecendoSkill::KeyMapEffect>
; Function compile flags: /Ogsp
;	COMDAT ??$_Cons_val@V?$allocator@UKeyMapEffect@ioCrecendoSkill@@@std@@UKeyMapEffect@ioCrecendoSkill@@U34@@std@@YAXAAV?$allocator@UKeyMapEffect@ioCrecendoSkill@@@0@PAUKeyMapEffect@ioCrecendoSkill@@$$QAU23@@Z
_TEXT	SEGMENT
__Alval$ = 8						; size = 4
__Pdest$ = 12						; size = 4
__Src$ = 16						; size = 4
??$_Cons_val@V?$allocator@UKeyMapEffect@ioCrecendoSkill@@@std@@UKeyMapEffect@ioCrecendoSkill@@U34@@std@@YAXAAV?$allocator@UKeyMapEffect@ioCrecendoSkill@@@0@PAUKeyMapEffect@ioCrecendoSkill@@$$QAU23@@Z PROC ; std::_Cons_val<std::allocator<ioCrecendoSkill::KeyMapEffect>,ioCrecendoSkill::KeyMapEffect,ioCrecendoSkill::KeyMapEffect>, COMDAT

; 279  : 	{	// construct using allocator

  00000	55		 push	 ebp
  00001	8b ec		 mov	 ebp, esp

; 280  : 	_Alval.construct(_Pdest, _STD forward<_Ty2>(_Src));

  00003	8b 45 0c	 mov	 eax, DWORD PTR __Pdest$[ebp]
  00006	85 c0		 test	 eax, eax
  00008	74 0d		 je	 SHORT $LN7@Cons_val@4
  0000a	8b 4d 10	 mov	 ecx, DWORD PTR __Src$[ebp]
  0000d	8b 11		 mov	 edx, DWORD PTR [ecx]
  0000f	89 10		 mov	 DWORD PTR [eax], edx
  00011	8b 49 04	 mov	 ecx, DWORD PTR [ecx+4]
  00014	89 48 04	 mov	 DWORD PTR [eax+4], ecx
$LN7@Cons_val@4:

; 281  : 	}

  00017	5d		 pop	 ebp
  00018	c3		 ret	 0
??$_Cons_val@V?$allocator@UKeyMapEffect@ioCrecendoSkill@@@std@@UKeyMapEffect@ioCrecendoSkill@@U34@@std@@YAXAAV?$allocator@UKeyMapEffect@ioCrecendoSkill@@@0@PAUKeyMapEffect@ioCrecendoSkill@@$$QAU23@@Z ENDP ; std::_Cons_val<std::allocator<ioCrecendoSkill::KeyMapEffect>,ioCrecendoSkill::KeyMapEffect,ioCrecendoSkill::KeyMapEffect>
_TEXT	ENDS
PUBLIC	?construct@?$allocator@UWeaponInfo@@@std@@QAEXPAUWeaponInfo@@ABU3@@Z ; std::allocator<WeaponInfo>::construct
; Function compile flags: /Ogsp
;	COMDAT ?construct@?$allocator@UWeaponInfo@@@std@@QAEXPAUWeaponInfo@@ABU3@@Z
_TEXT	SEGMENT
__Ptr$ = 8						; size = 4
__Val$ = 12						; size = 4
?construct@?$allocator@UWeaponInfo@@@std@@QAEXPAUWeaponInfo@@ABU3@@Z PROC ; std::allocator<WeaponInfo>::construct, COMDAT
; _this$ = ecx

; 196  : 		{	// construct object at _Ptr with value _Val

  00000	55		 push	 ebp
  00001	8b ec		 mov	 ebp, esp

; 197  : 		_Construct(_Ptr, _Val);

  00003	ff 75 0c	 push	 DWORD PTR __Val$[ebp]
  00006	ff 75 08	 push	 DWORD PTR __Ptr$[ebp]
  00009	e8 00 00 00 00	 call	 ??$_Construct@UWeaponInfo@@ABU1@@std@@YAXPAUWeaponInfo@@ABU1@@Z ; std::_Construct<WeaponInfo,WeaponInfo const &>
  0000e	59		 pop	 ecx
  0000f	59		 pop	 ecx

; 198  : 		}

  00010	5d		 pop	 ebp
  00011	c2 08 00	 ret	 8
?construct@?$allocator@UWeaponInfo@@@std@@QAEXPAUWeaponInfo@@ABU3@@Z ENDP ; std::allocator<WeaponInfo>::construct
_TEXT	ENDS
PUBLIC	??$_Distance2@V?$_Vector_iterator@V?$_Vector_val@UKeyMapEffect@ioCrecendoSkill@@V?$allocator@UKeyMapEffect@ioCrecendoSkill@@@std@@@std@@@std@@H@std@@YAXV?$_Vector_iterator@V?$_Vector_val@UKeyMapEffect@ioCrecendoSkill@@V?$allocator@UKeyMapEffect@ioCrecendoSkill@@@std@@@std@@@0@0AAHUrandom_access_iterator_tag@0@@Z ; std::_Distance2<std::_Vector_iterator<std::_Vector_val<ioCrecendoSkill::KeyMapEffect,std::allocator<ioCrecendoSkill::KeyMapEffect> > >,int>
; Function compile flags: /Ogsp
; File c:\program files (x86)\microsoft visual studio 10.0\vc\include\xutility
;	COMDAT ??$_Distance2@V?$_Vector_iterator@V?$_Vector_val@UKeyMapEffect@ioCrecendoSkill@@V?$allocator@UKeyMapEffect@ioCrecendoSkill@@@std@@@std@@@std@@H@std@@YAXV?$_Vector_iterator@V?$_Vector_val@UKeyMapEffect@ioCrecendoSkill@@V?$allocator@UKeyMapEffect@ioCrecendoSkill@@@std@@@std@@@0@0AAHUrandom_access_iterator_tag@0@@Z
_TEXT	SEGMENT
__First$ = 8						; size = 4
__Last$ = 12						; size = 4
__Off$ = 16						; size = 4
___formal$ = 20						; size = 1
??$_Distance2@V?$_Vector_iterator@V?$_Vector_val@UKeyMapEffect@ioCrecendoSkill@@V?$allocator@UKeyMapEffect@ioCrecendoSkill@@@std@@@std@@@std@@H@std@@YAXV?$_Vector_iterator@V?$_Vector_val@UKeyMapEffect@ioCrecendoSkill@@V?$allocator@UKeyMapEffect@ioCrecendoSkill@@@std@@@std@@@0@0AAHUrandom_access_iterator_tag@0@@Z PROC ; std::_Distance2<std::_Vector_iterator<std::_Vector_val<ioCrecendoSkill::KeyMapEffect,std::allocator<ioCrecendoSkill::KeyMapEffect> > >,int>, COMDAT

; 885  : 	{	// add to _Off distance between random-access iterators

  00000	55		 push	 ebp
  00001	8b ec		 mov	 ebp, esp

; 886  :  #if _ITERATOR_DEBUG_LEVEL == 2
; 887  : 	if (_First != _Last)
; 888  : 		{	// check for null pointers
; 889  : 		_DEBUG_POINTER(_First);
; 890  : 		_DEBUG_POINTER(_Last);
; 891  : 		}
; 892  :  #endif /* _ITERATOR_DEBUG_LEVEL == 2 */
; 893  : 
; 894  : 	_Off += _Last - _First;

  00003	8b 4d 0c	 mov	 ecx, DWORD PTR __Last$[ebp]
  00006	2b 4d 08	 sub	 ecx, DWORD PTR __First$[ebp]
  00009	8b 45 10	 mov	 eax, DWORD PTR __Off$[ebp]
  0000c	c1 f9 03	 sar	 ecx, 3
  0000f	01 08		 add	 DWORD PTR [eax], ecx

; 895  : 	}

  00011	5d		 pop	 ebp
  00012	c3		 ret	 0
??$_Distance2@V?$_Vector_iterator@V?$_Vector_val@UKeyMapEffect@ioCrecendoSkill@@V?$allocator@UKeyMapEffect@ioCrecendoSkill@@@std@@@std@@@std@@H@std@@YAXV?$_Vector_iterator@V?$_Vector_val@UKeyMapEffect@ioCrecendoSkill@@V?$allocator@UKeyMapEffect@ioCrecendoSkill@@@std@@@std@@@0@0AAHUrandom_access_iterator_tag@0@@Z ENDP ; std::_Distance2<std::_Vector_iterator<std::_Vector_val<ioCrecendoSkill::KeyMapEffect,std::allocator<ioCrecendoSkill::KeyMapEffect> > >,int>
_TEXT	ENDS
PUBLIC	??$iter_swap@PAUKeyMapEffect@ioCrecendoSkill@@PAU12@@std@@YAXPAUKeyMapEffect@ioCrecendoSkill@@0@Z ; std::iter_swap<ioCrecendoSkill::KeyMapEffect *,ioCrecendoSkill::KeyMapEffect *>
; Function compile flags: /Ogsp
;	COMDAT ??$iter_swap@PAUKeyMapEffect@ioCrecendoSkill@@PAU12@@std@@YAXPAUKeyMapEffect@ioCrecendoSkill@@0@Z
_TEXT	SEGMENT
__Left$ = 8						; size = 4
__Right$ = 12						; size = 4
??$iter_swap@PAUKeyMapEffect@ioCrecendoSkill@@PAU12@@std@@YAXPAUKeyMapEffect@ioCrecendoSkill@@0@Z PROC ; std::iter_swap<ioCrecendoSkill::KeyMapEffect *,ioCrecendoSkill::KeyMapEffect *>, COMDAT

; 2133 : 	{	// swap *_Left and *_Right

  00000	55		 push	 ebp
  00001	8b ec		 mov	 ebp, esp

; 2134 : 	swap(*_Left, *_Right);

  00003	8b 4d 0c	 mov	 ecx, DWORD PTR __Right$[ebp]
  00006	8b 45 08	 mov	 eax, DWORD PTR __Left$[ebp]
  00009	8b 10		 mov	 edx, DWORD PTR [eax]
  0000b	56		 push	 esi
  0000c	8b 70 04	 mov	 esi, DWORD PTR [eax+4]
  0000f	57		 push	 edi
  00010	8b 39		 mov	 edi, DWORD PTR [ecx]
  00012	89 38		 mov	 DWORD PTR [eax], edi
  00014	8b 79 04	 mov	 edi, DWORD PTR [ecx+4]
  00017	89 78 04	 mov	 DWORD PTR [eax+4], edi
  0001a	5f		 pop	 edi
  0001b	89 71 04	 mov	 DWORD PTR [ecx+4], esi
  0001e	89 11		 mov	 DWORD PTR [ecx], edx
  00020	5e		 pop	 esi

; 2135 : 	}

  00021	5d		 pop	 ebp
  00022	c3		 ret	 0
??$iter_swap@PAUKeyMapEffect@ioCrecendoSkill@@PAU12@@std@@YAXPAUKeyMapEffect@ioCrecendoSkill@@0@Z ENDP ; std::iter_swap<ioCrecendoSkill::KeyMapEffect *,ioCrecendoSkill::KeyMapEffect *>
_TEXT	ENDS
PUBLIC	?GetTeam@ioPlayEntity@@QBE?AW4TeamType@@XZ	; ioPlayEntity::GetTeam
; Function compile flags: /Ogsp
; File d:\lost saga for developer\youtube\tutorial\source\src\lsclient\ioplayentity.h
;	COMDAT ?GetTeam@ioPlayEntity@@QBE?AW4TeamType@@XZ
_TEXT	SEGMENT
_value$540743 = -4					; size = 4
?GetTeam@ioPlayEntity@@QBE?AW4TeamType@@XZ PROC		; ioPlayEntity::GetTeam, COMDAT
; _this$ = ecx

; 107  : 	inline TeamType GetTeam() const { return m_TeamType; }

  00000	55		 push	 ebp
  00001	8b ec		 mov	 ebp, esp
  00003	51		 push	 ecx
  00004	8d 45 fc	 lea	 eax, DWORD PTR _value$540743[ebp]
  00007	50		 push	 eax
  00008	81 c1 90 00 00
	00		 add	 ecx, 144		; 00000090H
  0000e	e8 00 00 00 00	 call	 ?DecryptValueToPool@?$CEncrypt@W4TeamType@@@@QAEXPAW4TeamType@@@Z ; CEncrypt<enum TeamType>::DecryptValueToPool
  00013	8b 45 fc	 mov	 eax, DWORD PTR _value$540743[ebp]
  00016	c9		 leave
  00017	c3		 ret	 0
?GetTeam@ioPlayEntity@@QBE?AW4TeamType@@XZ ENDP		; ioPlayEntity::GetTeam
_TEXT	ENDS
PUBLIC	??0?$vector@UWeaponInfo@@V?$allocator@UWeaponInfo@@@std@@@std@@QAE@XZ ; std::vector<WeaponInfo,std::allocator<WeaponInfo> >::vector<WeaponInfo,std::allocator<WeaponInfo> >
; Function compile flags: /Ogsp
; File c:\program files (x86)\microsoft visual studio 10.0\vc\include\vector
;	COMDAT ??0?$vector@UWeaponInfo@@V?$allocator@UWeaponInfo@@@std@@@std@@QAE@XZ
_TEXT	SEGMENT
??0?$vector@UWeaponInfo@@V?$allocator@UWeaponInfo@@@std@@@std@@QAE@XZ PROC ; std::vector<WeaponInfo,std::allocator<WeaponInfo> >::vector<WeaponInfo,std::allocator<WeaponInfo> >, COMDAT
; _this$ = ecx

; 507  : 		{	// construct empty vector

  00000	8b c1		 mov	 eax, ecx
  00002	33 c9		 xor	 ecx, ecx
  00004	89 08		 mov	 DWORD PTR [eax], ecx
  00006	89 48 04	 mov	 DWORD PTR [eax+4], ecx
  00009	89 48 08	 mov	 DWORD PTR [eax+8], ecx

; 508  : 		}

  0000c	c3		 ret	 0
??0?$vector@UWeaponInfo@@V?$allocator@UWeaponInfo@@@std@@@std@@QAE@XZ ENDP ; std::vector<WeaponInfo,std::allocator<WeaponInfo> >::vector<WeaponInfo,std::allocator<WeaponInfo> >
_TEXT	ENDS
PUBLIC	??0?$vector@UForceInfo@@V?$allocator@UForceInfo@@@std@@@std@@QAE@XZ ; std::vector<ForceInfo,std::allocator<ForceInfo> >::vector<ForceInfo,std::allocator<ForceInfo> >
; Function compile flags: /Ogsp
;	COMDAT ??0?$vector@UForceInfo@@V?$allocator@UForceInfo@@@std@@@std@@QAE@XZ
_TEXT	SEGMENT
??0?$vector@UForceInfo@@V?$allocator@UForceInfo@@@std@@@std@@QAE@XZ PROC ; std::vector<ForceInfo,std::allocator<ForceInfo> >::vector<ForceInfo,std::allocator<ForceInfo> >, COMDAT
; _this$ = ecx

; 507  : 		{	// construct empty vector

  00000	8b c1		 mov	 eax, ecx
  00002	33 c9		 xor	 ecx, ecx
  00004	89 08		 mov	 DWORD PTR [eax], ecx
  00006	89 48 04	 mov	 DWORD PTR [eax+4], ecx
  00009	89 48 08	 mov	 DWORD PTR [eax+8], ecx

; 508  : 		}

  0000c	c3		 ret	 0
??0?$vector@UForceInfo@@V?$allocator@UForceInfo@@@std@@@std@@QAE@XZ ENDP ; std::vector<ForceInfo,std::allocator<ForceInfo> >::vector<ForceInfo,std::allocator<ForceInfo> >
_TEXT	ENDS
PUBLIC	?_Buy@?$vector@UWeaponInfo@@V?$allocator@UWeaponInfo@@@std@@@std@@IAE_NI@Z ; std::vector<WeaponInfo,std::allocator<WeaponInfo> >::_Buy
; Function compile flags: /Ogsp
;	COMDAT ?_Buy@?$vector@UWeaponInfo@@V?$allocator@UWeaponInfo@@@std@@@std@@IAE_NI@Z
_TEXT	SEGMENT
__Capacity$ = 8						; size = 4
?_Buy@?$vector@UWeaponInfo@@V?$allocator@UWeaponInfo@@@std@@@std@@IAE_NI@Z PROC ; std::vector<WeaponInfo,std::allocator<WeaponInfo> >::_Buy, COMDAT
; _this$ = ecx

; 1250 : 		{	// allocate array with _Capacity elements

  00000	55		 push	 ebp
  00001	8b ec		 mov	 ebp, esp
  00003	56		 push	 esi

; 1251 : 		this->_Myfirst = 0;

  00004	33 c0		 xor	 eax, eax
  00006	57		 push	 edi

; 1252 : 		this->_Mylast = 0;
; 1253 : 		this->_Myend = 0;
; 1254 : 
; 1255 : 		if (_Capacity == 0)

  00007	8b 7d 08	 mov	 edi, DWORD PTR __Capacity$[ebp]
  0000a	8b f1		 mov	 esi, ecx
  0000c	89 06		 mov	 DWORD PTR [esi], eax
  0000e	89 46 04	 mov	 DWORD PTR [esi+4], eax
  00011	89 46 08	 mov	 DWORD PTR [esi+8], eax
  00014	3b f8		 cmp	 edi, eax
  00016	75 04		 jne	 SHORT $LN4@Buy@2

; 1256 : 			return (false);

  00018	32 c0		 xor	 al, al
  0001a	eb 2b		 jmp	 SHORT $LN5@Buy@2
$LN4@Buy@2:

; 1257 : 		else if (max_size() < _Capacity)

  0001c	81 ff 66 66 66
	06		 cmp	 edi, 107374182		; 06666666H
  00022	76 0b		 jbe	 SHORT $LN2@Buy@2

; 1258 : 			_Xlen();	// result too long

  00024	68 00 00 00 00	 push	 OFFSET ??_C@_0BD@OLBABOEK@vector?$DMT?$DO?5too?5long?$AA@
  00029	ff 15 00 00 00
	00		 call	 DWORD PTR __imp_?_Xlength_error@std@@YAXPBD@Z
$LN19@Buy@2:
$LN2@Buy@2:

; 1259 : 		else
; 1260 : 			{	// nonempty array, allocate storage
; 1261 : 			this->_Myfirst = this->_Alval.allocate(_Capacity);

  0002f	50		 push	 eax
  00030	57		 push	 edi
  00031	e8 00 00 00 00	 call	 ??$_Allocate@UWeaponInfo@@@std@@YAPAUWeaponInfo@@IPAU1@@Z ; std::_Allocate<WeaponInfo>

; 1262 : 			this->_Mylast = this->_Myfirst;
; 1263 : 			this->_Myend = this->_Myfirst + _Capacity;

  00036	6b ff 28	 imul	 edi, 40			; 00000028H
  00039	03 f8		 add	 edi, eax
  0003b	59		 pop	 ecx
  0003c	89 06		 mov	 DWORD PTR [esi], eax
  0003e	89 46 04	 mov	 DWORD PTR [esi+4], eax
  00041	59		 pop	 ecx
  00042	89 7e 08	 mov	 DWORD PTR [esi+8], edi

; 1264 : 			}
; 1265 : 		return (true);

  00045	b0 01		 mov	 al, 1
$LN5@Buy@2:
  00047	5f		 pop	 edi
  00048	5e		 pop	 esi

; 1266 : 		}

  00049	5d		 pop	 ebp
  0004a	c2 04 00	 ret	 4
$LN18@Buy@2:
?_Buy@?$vector@UWeaponInfo@@V?$allocator@UWeaponInfo@@@std@@@std@@IAE_NI@Z ENDP ; std::vector<WeaponInfo,std::allocator<WeaponInfo> >::_Buy
_TEXT	ENDS
PUBLIC	?_Buy@?$vector@UForceInfo@@V?$allocator@UForceInfo@@@std@@@std@@IAE_NI@Z ; std::vector<ForceInfo,std::allocator<ForceInfo> >::_Buy
; Function compile flags: /Ogsp
;	COMDAT ?_Buy@?$vector@UForceInfo@@V?$allocator@UForceInfo@@@std@@@std@@IAE_NI@Z
_TEXT	SEGMENT
__Capacity$ = 8						; size = 4
?_Buy@?$vector@UForceInfo@@V?$allocator@UForceInfo@@@std@@@std@@IAE_NI@Z PROC ; std::vector<ForceInfo,std::allocator<ForceInfo> >::_Buy, COMDAT
; _this$ = ecx

; 1250 : 		{	// allocate array with _Capacity elements

  00000	55		 push	 ebp
  00001	8b ec		 mov	 ebp, esp
  00003	56		 push	 esi

; 1251 : 		this->_Myfirst = 0;

  00004	33 c0		 xor	 eax, eax
  00006	57		 push	 edi

; 1252 : 		this->_Mylast = 0;
; 1253 : 		this->_Myend = 0;
; 1254 : 
; 1255 : 		if (_Capacity == 0)

  00007	8b 7d 08	 mov	 edi, DWORD PTR __Capacity$[ebp]
  0000a	8b f1		 mov	 esi, ecx
  0000c	89 06		 mov	 DWORD PTR [esi], eax
  0000e	89 46 04	 mov	 DWORD PTR [esi+4], eax
  00011	89 46 08	 mov	 DWORD PTR [esi+8], eax
  00014	3b f8		 cmp	 edi, eax
  00016	75 04		 jne	 SHORT $LN4@Buy@3

; 1256 : 			return (false);

  00018	32 c0		 xor	 al, al
  0001a	eb 2b		 jmp	 SHORT $LN5@Buy@3
$LN4@Buy@3:

; 1257 : 		else if (max_size() < _Capacity)

  0001c	81 ff 55 55 55
	15		 cmp	 edi, 357913941		; 15555555H
  00022	76 0b		 jbe	 SHORT $LN2@Buy@3

; 1258 : 			_Xlen();	// result too long

  00024	68 00 00 00 00	 push	 OFFSET ??_C@_0BD@OLBABOEK@vector?$DMT?$DO?5too?5long?$AA@
  00029	ff 15 00 00 00
	00		 call	 DWORD PTR __imp_?_Xlength_error@std@@YAXPBD@Z
$LN19@Buy@3:
$LN2@Buy@3:

; 1259 : 		else
; 1260 : 			{	// nonempty array, allocate storage
; 1261 : 			this->_Myfirst = this->_Alval.allocate(_Capacity);

  0002f	50		 push	 eax
  00030	57		 push	 edi
  00031	e8 00 00 00 00	 call	 ??$_Allocate@UForceInfo@@@std@@YAPAUForceInfo@@IPAU1@@Z ; std::_Allocate<ForceInfo>

; 1262 : 			this->_Mylast = this->_Myfirst;
; 1263 : 			this->_Myend = this->_Myfirst + _Capacity;

  00036	6b ff 0c	 imul	 edi, 12			; 0000000cH
  00039	03 f8		 add	 edi, eax
  0003b	59		 pop	 ecx
  0003c	89 06		 mov	 DWORD PTR [esi], eax
  0003e	89 46 04	 mov	 DWORD PTR [esi+4], eax
  00041	59		 pop	 ecx
  00042	89 7e 08	 mov	 DWORD PTR [esi+8], edi

; 1264 : 			}
; 1265 : 		return (true);

  00045	b0 01		 mov	 al, 1
$LN5@Buy@3:
  00047	5f		 pop	 edi
  00048	5e		 pop	 esi

; 1266 : 		}

  00049	5d		 pop	 ebp
  0004a	c2 04 00	 ret	 4
$LN18@Buy@3:
?_Buy@?$vector@UForceInfo@@V?$allocator@UForceInfo@@@std@@@std@@IAE_NI@Z ENDP ; std::vector<ForceInfo,std::allocator<ForceInfo> >::_Buy
_TEXT	ENDS
PUBLIC	??9?$_Vector_const_iterator@V?$_Vector_val@UWeaponInfo@@V?$allocator@UWeaponInfo@@@std@@@std@@@std@@QBE_NABV01@@Z ; std::_Vector_const_iterator<std::_Vector_val<WeaponInfo,std::allocator<WeaponInfo> > >::operator!=
; Function compile flags: /Ogsp
;	COMDAT ??9?$_Vector_const_iterator@V?$_Vector_val@UWeaponInfo@@V?$allocator@UWeaponInfo@@@std@@@std@@@std@@QBE_NABV01@@Z
_TEXT	SEGMENT
__Right$ = 8						; size = 4
??9?$_Vector_const_iterator@V?$_Vector_val@UWeaponInfo@@V?$allocator@UWeaponInfo@@@std@@@std@@@std@@QBE_NABV01@@Z PROC ; std::_Vector_const_iterator<std::_Vector_val<WeaponInfo,std::allocator<WeaponInfo> > >::operator!=, COMDAT
; _this$ = ecx

; 207  : 		{	// test for iterator inequality

  00000	55		 push	 ebp
  00001	8b ec		 mov	 ebp, esp

; 208  : 		return (!(*this == _Right));

  00003	8b 01		 mov	 eax, DWORD PTR [ecx]
  00005	8b 55 08	 mov	 edx, DWORD PTR __Right$[ebp]
  00008	33 c9		 xor	 ecx, ecx
  0000a	3b 02		 cmp	 eax, DWORD PTR [edx]
  0000c	0f 95 c0	 setne	 al

; 209  : 		}

  0000f	5d		 pop	 ebp
  00010	c2 04 00	 ret	 4
??9?$_Vector_const_iterator@V?$_Vector_val@UWeaponInfo@@V?$allocator@UWeaponInfo@@@std@@@std@@@std@@QBE_NABV01@@Z ENDP ; std::_Vector_const_iterator<std::_Vector_val<WeaponInfo,std::allocator<WeaponInfo> > >::operator!=
_TEXT	ENDS
PUBLIC	??9?$_Vector_const_iterator@V?$_Vector_val@UForceInfo@@V?$allocator@UForceInfo@@@std@@@std@@@std@@QBE_NABV01@@Z ; std::_Vector_const_iterator<std::_Vector_val<ForceInfo,std::allocator<ForceInfo> > >::operator!=
; Function compile flags: /Ogsp
;	COMDAT ??9?$_Vector_const_iterator@V?$_Vector_val@UForceInfo@@V?$allocator@UForceInfo@@@std@@@std@@@std@@QBE_NABV01@@Z
_TEXT	SEGMENT
__Right$ = 8						; size = 4
??9?$_Vector_const_iterator@V?$_Vector_val@UForceInfo@@V?$allocator@UForceInfo@@@std@@@std@@@std@@QBE_NABV01@@Z PROC ; std::_Vector_const_iterator<std::_Vector_val<ForceInfo,std::allocator<ForceInfo> > >::operator!=, COMDAT
; _this$ = ecx

; 207  : 		{	// test for iterator inequality

  00000	55		 push	 ebp
  00001	8b ec		 mov	 ebp, esp

; 208  : 		return (!(*this == _Right));

  00003	8b 01		 mov	 eax, DWORD PTR [ecx]
  00005	8b 55 08	 mov	 edx, DWORD PTR __Right$[ebp]
  00008	33 c9		 xor	 ecx, ecx
  0000a	3b 02		 cmp	 eax, DWORD PTR [edx]
  0000c	0f 95 c0	 setne	 al

; 209  : 		}

  0000f	5d		 pop	 ebp
  00010	c2 04 00	 ret	 4
??9?$_Vector_const_iterator@V?$_Vector_val@UForceInfo@@V?$allocator@UForceInfo@@@std@@@std@@@std@@QBE_NABV01@@Z ENDP ; std::_Vector_const_iterator<std::_Vector_val<ForceInfo,std::allocator<ForceInfo> > >::operator!=
_TEXT	ENDS
PUBLIC	??$_Dest_val@V?$allocator@UForceInfo@@@std@@UForceInfo@@@std@@YAXAAV?$allocator@UForceInfo@@@0@PAUForceInfo@@@Z ; std::_Dest_val<std::allocator<ForceInfo>,ForceInfo>
; Function compile flags: /Ogsp
; File c:\program files (x86)\microsoft visual studio 10.0\vc\include\xmemory
;	COMDAT ??$_Dest_val@V?$allocator@UForceInfo@@@std@@UForceInfo@@@std@@YAXAAV?$allocator@UForceInfo@@@0@PAUForceInfo@@@Z
_TEXT	SEGMENT
__Alval$ = 8						; size = 4
__Pdest$ = 12						; size = 4
??$_Dest_val@V?$allocator@UForceInfo@@@std@@UForceInfo@@@std@@YAXAAV?$allocator@UForceInfo@@@0@PAUForceInfo@@@Z PROC ; std::_Dest_val<std::allocator<ForceInfo>,ForceInfo>, COMDAT

; 287  : 	_Alval.destroy(_Pdest);
; 288  : 	}

  00000	c3		 ret	 0
??$_Dest_val@V?$allocator@UForceInfo@@@std@@UForceInfo@@@std@@YAXAAV?$allocator@UForceInfo@@@0@PAUForceInfo@@@Z ENDP ; std::_Dest_val<std::allocator<ForceInfo>,ForceInfo>
_TEXT	ENDS
PUBLIC	?destroy@?$allocator@UWeaponInfo@@@std@@QAEXPAUWeaponInfo@@@Z ; std::allocator<WeaponInfo>::destroy
; Function compile flags: /Ogsp
;	COMDAT ?destroy@?$allocator@UWeaponInfo@@@std@@QAEXPAUWeaponInfo@@@Z
_TEXT	SEGMENT
__Ptr$ = 8						; size = 4
?destroy@?$allocator@UWeaponInfo@@@std@@QAEXPAUWeaponInfo@@@Z PROC ; std::allocator<WeaponInfo>::destroy, COMDAT
; _this$ = ecx

; 212  : 		{	// destroy object at _Ptr

  00000	55		 push	 ebp
  00001	8b ec		 mov	 ebp, esp

; 213  : 		_Destroy(_Ptr);

  00003	8b 4d 08	 mov	 ecx, DWORD PTR __Ptr$[ebp]
  00006	83 c1 08	 add	 ecx, 8
  00009	ff 15 00 00 00
	00		 call	 DWORD PTR __imp_??1ioHashString@@QAE@XZ

; 214  : 		}

  0000f	5d		 pop	 ebp
  00010	c2 04 00	 ret	 4
?destroy@?$allocator@UWeaponInfo@@@std@@QAEXPAUWeaponInfo@@@Z ENDP ; std::allocator<WeaponInfo>::destroy
_TEXT	ENDS
PUBLIC	_pStage$GSCopy$
PUBLIC	__$ArrayPad$
PUBLIC	?ProcessKeyEffect@ioCrecendoSkill@@IAEXPAVioBaseChar@@PAVioPlayStage@@@Z ; ioCrecendoSkill::ProcessKeyEffect
EXTRN	?SetWorldPosition@ioMapEffect@@QAEXABUD3DXVECTOR3@@@Z:PROC ; ioMapEffect::SetWorldPosition
EXTRN	?FindMapEffect@ioPlayStage@@QAEPAVioMapEffect@@K@Z:PROC ; ioPlayStage::FindMapEffect
; Function compile flags: /Ogsp
; File d:\lost saga for developer\youtube\tutorial\source\src\lsclient\iocrecendoskill.cpp
;	COMDAT ?ProcessKeyEffect@ioCrecendoSkill@@IAEXPAVioBaseChar@@PAVioPlayStage@@@Z
_TEXT	SEGMENT
_vPos$ = -36						; size = 12
_pStage$GSCopy$ = -24					; size = 4
tv593 = -20						; size = 4
tv589 = -20						; size = 4
tv585 = -20						; size = 4
tv580 = -20						; size = 4
tv577 = -20						; size = 4
_fWidth$ = -20						; size = 4
_vEffectPos$532809 = -16				; size = 12
_vEffectPos$532806 = -16				; size = 12
__$ArrayPad$ = -4					; size = 4
_pChar$ = 8						; size = 4
_pStage$ = 12						; size = 4
?ProcessKeyEffect@ioCrecendoSkill@@IAEXPAVioBaseChar@@PAVioPlayStage@@@Z PROC ; ioCrecendoSkill::ProcessKeyEffect, COMDAT
; _this$ = ecx

; 367  : {

  00000	55		 push	 ebp
  00001	8b ec		 mov	 ebp, esp
  00003	83 ec 24	 sub	 esp, 36			; 00000024H
  00006	a1 00 00 00 00	 mov	 eax, DWORD PTR ___security_cookie
  0000b	33 c5		 xor	 eax, ebp
  0000d	89 45 fc	 mov	 DWORD PTR __$ArrayPad$[ebp], eax
  00010	8b 45 0c	 mov	 eax, DWORD PTR _pStage$[ebp]
  00013	53		 push	 ebx
  00014	56		 push	 esi
  00015	8b 75 08	 mov	 esi, DWORD PTR _pChar$[ebp]
  00018	8b d9		 mov	 ebx, ecx

; 403  : 	{
; 404  : 		D3DXVECTOR3 vEffectPos( vPos.x, vPos.y + m_fLastEffectYGap, vPos.z );

  0001a	89 45 e8	 mov	 DWORD PTR _pStage$GSCopy$[ebp], eax
  0001d	85 f6		 test	 esi, esi
  0001f	0f 84 cf 01 00
	00		 je	 $LN1@ProcessKey

; 368  : 	if( !pChar )
; 369  : 		return;
; 370  : 
; 371  : 	if( !pStage )

  00025	85 c0		 test	 eax, eax
  00027	0f 84 c7 01 00
	00		 je	 $LN1@ProcessKey

; 372  : 		return;
; 373  : 
; 374  : 	if( !pChar->IsNeedProcess() ) 

  0002d	8b 06		 mov	 eax, DWORD PTR [esi]
  0002f	8b ce		 mov	 ecx, esi
  00031	ff 90 00 01 00
	00		 call	 DWORD PTR [eax+256]
  00037	84 c0		 test	 al, al
  00039	0f 84 b5 01 00
	00		 je	 $LN1@ProcessKey

; 375  : 		return;
; 376  : 
; 377  : 	D3DXVECTOR3 vPos = pChar->GetWorldPosition();

  0003f	8b 06		 mov	 eax, DWORD PTR [esi]
  00041	57		 push	 edi
  00042	8b ce		 mov	 ecx, esi
  00044	ff 50 70	 call	 DWORD PTR [eax+112]

; 378  : 
; 379  : 	float fWidth = m_KeyMapEffectVec.size() * m_fEffectKeyWidth * FLOAT05 + m_KeyMapEffectVec.size()-1 * m_fEffectXGap;

  00047	8b 8b 98 11 00
	00		 mov	 ecx, DWORD PTR [ebx+4504]
  0004d	2b 8b 94 11 00
	00		 sub	 ecx, DWORD PTR [ebx+4500]
  00053	8b f0		 mov	 esi, eax
  00055	8d 7d dc	 lea	 edi, DWORD PTR _vPos$[ebp]
  00058	a5		 movsd
  00059	a5		 movsd
  0005a	a5		 movsd
  0005b	c1 f9 03	 sar	 ecx, 3
  0005e	b8 05 00 00 00	 mov	 eax, 5
  00063	8b d0		 mov	 edx, eax
  00065	b8 0a 00 00 00	 mov	 eax, 10			; 0000000aH
  0006a	8b b3 94 11 00
	00		 mov	 esi, DWORD PTR [ebx+4500]
  00070	89 55 ec	 mov	 DWORD PTR tv593[ebp], edx
  00073	db 45 ec	 fild	 DWORD PTR tv593[ebp]
  00076	85 d2		 test	 edx, edx
  00078	79 06		 jns	 SHORT $LN54@ProcessKey
  0007a	d8 05 00 00 00
	00		 fadd	 DWORD PTR __real@4f800000
$LN54@ProcessKey:
  00080	89 45 ec	 mov	 DWORD PTR tv589[ebp], eax
  00083	db 45 ec	 fild	 DWORD PTR tv589[ebp]
  00086	85 c0		 test	 eax, eax
  00088	79 06		 jns	 SHORT $LN55@ProcessKey
  0008a	d8 05 00 00 00
	00		 fadd	 DWORD PTR __real@4f800000
$LN55@ProcessKey:
  00090	de f9		 fdivp	 ST(1), ST(0)
  00092	d9 5d ec	 fstp	 DWORD PTR tv585[ebp]
  00095	d9 45 ec	 fld	 DWORD PTR tv585[ebp]
  00098	89 4d ec	 mov	 DWORD PTR tv580[ebp], ecx
  0009b	db 45 ec	 fild	 DWORD PTR tv580[ebp]
  0009e	85 c9		 test	 ecx, ecx
  000a0	79 06		 jns	 SHORT $LN56@ProcessKey
  000a2	d8 05 00 00 00
	00		 fadd	 DWORD PTR __real@4f800000
$LN56@ProcessKey:
  000a8	8b 83 98 11 00
	00		 mov	 eax, DWORD PTR [ebx+4504]
  000ae	d8 8b 4c 12 00
	00		 fmul	 DWORD PTR [ebx+4684]
  000b4	2b c6		 sub	 eax, esi
  000b6	c1 f8 03	 sar	 eax, 3
  000b9	89 45 ec	 mov	 DWORD PTR tv577[ebp], eax
  000bc	de c9		 fmulp	 ST(1), ST(0)
  000be	db 45 ec	 fild	 DWORD PTR tv577[ebp]
  000c1	85 c0		 test	 eax, eax
  000c3	79 06		 jns	 SHORT $LN57@ProcessKey
  000c5	d8 05 00 00 00
	00		 fadd	 DWORD PTR __real@4f800000
$LN57@ProcessKey:
  000cb	de c1		 faddp	 ST(1), ST(0)

; 380  : 
; 381  : 	int i = 0;

  000cd	33 ff		 xor	 edi, edi
  000cf	d8 a3 48 12 00
	00		 fsub	 DWORD PTR [ebx+4680]
  000d5	d9 5d ec	 fstp	 DWORD PTR _fWidth$[ebp]
  000d8	e9 b9 00 00 00	 jmp	 $LN58@ProcessKey
$LL8@ProcessKey:

; 383  : 	{
; 384  : 		const KeyMapEffect& rkInfo = *iter;
; 385  : 		if( !COMPARE( rkInfo.m_dwKey, WKS_UP, WKS_MAX ) )

  000dd	8b 46 04	 mov	 eax, DWORD PTR [esi+4]
  000e0	83 f8 01	 cmp	 eax, 1
  000e3	0f 82 a9 00 00
	00		 jb	 $LN7@ProcessKey
  000e9	83 f8 06	 cmp	 eax, 6
  000ec	0f 83 a0 00 00
	00		 jae	 $LN7@ProcessKey

; 386  : 			continue;
; 387  : 
; 388  : 		ioMapEffect* pMapEffect = pStage->FindMapEffect( rkInfo.m_MapEffectID );

  000f2	ff 36		 push	 DWORD PTR [esi]
  000f4	8b 4d e8	 mov	 ecx, DWORD PTR _pStage$GSCopy$[ebp]
  000f7	e8 00 00 00 00	 call	 ?FindMapEffect@ioPlayStage@@QAEPAVioMapEffect@@K@Z ; ioPlayStage::FindMapEffect

; 389  : 		if( pMapEffect )

  000fc	85 c0		 test	 eax, eax
  000fe	0f 84 8e 00 00
	00		 je	 $LN7@ProcessKey

; 390  : 		{
; 391  : 			float fXPos = vPos.x - fWidth + m_fEffectKeyWidth * i;

  00104	f3 0f 10 8b 4c
	12 00 00	 movss	 xmm1, DWORD PTR [ebx+4684]
  0010c	f3 0f 10 55 ec	 movss	 xmm2, DWORD PTR _fWidth$[ebp]
  00111	0f 57 c0	 xorps	 xmm0, xmm0
  00114	f3 0f 2a c7	 cvtsi2ss xmm0, edi
  00118	0f 5a c9	 cvtps2pd xmm1, xmm1
  0011b	0f 5a c0	 cvtps2pd xmm0, xmm0
  0011e	f2 0f 59 c1	 mulsd	 xmm0, xmm1
  00122	f3 0f 10 4d dc	 movss	 xmm1, DWORD PTR _vPos$[ebp]
  00127	0f 5a c9	 cvtps2pd xmm1, xmm1
  0012a	0f 5a d2	 cvtps2pd xmm2, xmm2
  0012d	f2 0f 5c ca	 subsd	 xmm1, xmm2
  00131	f2 0f 58 c1	 addsd	 xmm0, xmm1
  00135	66 0f 5a c0	 cvtpd2ps xmm0, xmm0

; 392  : 			if( i > 0 )

  00139	85 ff		 test	 edi, edi
  0013b	7e 1a		 jle	 SHORT $LN2@ProcessKey

; 393  : 				fXPos += m_fEffectXGap;

  0013d	f3 0f 10 8b 48
	12 00 00	 movss	 xmm1, DWORD PTR [ebx+4680]
  00145	f3 0f 5a c0	 cvtss2sd xmm0, xmm0
  00149	0f 5a c9	 cvtps2pd xmm1, xmm1
  0014c	f2 0f 58 c8	 addsd	 xmm1, xmm0
  00150	0f 57 c0	 xorps	 xmm0, xmm0
  00153	66 0f 5a c1	 cvtpd2ps xmm0, xmm1
$LN2@ProcessKey:

; 394  : 
; 395  : 			D3DXVECTOR3 vEffectPos( fXPos, vPos.y + m_fEffectYGap, vPos.z );

  00157	f3 0f 10 4d e0	 movss	 xmm1, DWORD PTR _vPos$[ebp+4]
  0015c	f3 0f 11 45 f0	 movss	 DWORD PTR _vEffectPos$532806[ebp], xmm0
  00161	f3 0f 10 83 44
	12 00 00	 movss	 xmm0, DWORD PTR [ebx+4676]
  00169	0f 5a c0	 cvtps2pd xmm0, xmm0
  0016c	0f 5a c9	 cvtps2pd xmm1, xmm1
  0016f	f2 0f 58 c1	 addsd	 xmm0, xmm1
  00173	66 0f 5a c0	 cvtpd2ps xmm0, xmm0

; 396  : 			pMapEffect->SetWorldPosition( vEffectPos );

  00177	8d 4d f0	 lea	 ecx, DWORD PTR _vEffectPos$532806[ebp]
  0017a	f3 0f 11 45 f4	 movss	 DWORD PTR _vEffectPos$532806[ebp+4], xmm0
  0017f	f3 0f 10 45 e4	 movss	 xmm0, DWORD PTR _vPos$[ebp+8]
  00184	51		 push	 ecx
  00185	8b c8		 mov	 ecx, eax
  00187	f3 0f 11 45 f8	 movss	 DWORD PTR _vEffectPos$532806[ebp+8], xmm0
  0018c	e8 00 00 00 00	 call	 ?SetWorldPosition@ioMapEffect@@QAEXABUD3DXVECTOR3@@@Z ; ioMapEffect::SetWorldPosition

; 397  : 			++i;

  00191	47		 inc	 edi
$LN7@ProcessKey:

; 382  : 	for( KeyMapEffectVec::const_iterator iter = m_KeyMapEffectVec.begin(); iter != m_KeyMapEffectVec.end(); ++iter, ++i )

  00192	83 c6 08	 add	 esi, 8
  00195	47		 inc	 edi
$LN58@ProcessKey:
  00196	3b b3 98 11 00
	00		 cmp	 esi, DWORD PTR [ebx+4504]
  0019c	0f 85 3b ff ff
	ff		 jne	 $LL8@ProcessKey

; 398  : 		}
; 399  : 	}
; 400  : 
; 401  : 	ioMapEffect* pMapEffect = pStage->FindMapEffect( m_LastKeyMapEffect.m_MapEffectID );

  001a2	ff b3 8c 11 00
	00		 push	 DWORD PTR [ebx+4492]
  001a8	8b 4d e8	 mov	 ecx, DWORD PTR _pStage$GSCopy$[ebp]
  001ab	e8 00 00 00 00	 call	 ?FindMapEffect@ioPlayStage@@QAEPAVioMapEffect@@K@Z ; ioPlayStage::FindMapEffect
  001b0	5f		 pop	 edi

; 402  : 	if( pMapEffect )

  001b1	85 c0		 test	 eax, eax
  001b3	74 3f		 je	 SHORT $LN1@ProcessKey

; 403  : 	{
; 404  : 		D3DXVECTOR3 vEffectPos( vPos.x, vPos.y + m_fLastEffectYGap, vPos.z );

  001b5	f3 0f 10 45 dc	 movss	 xmm0, DWORD PTR _vPos$[ebp]
  001ba	f3 0f 10 4d e0	 movss	 xmm1, DWORD PTR _vPos$[ebp+4]
  001bf	f3 0f 11 45 f0	 movss	 DWORD PTR _vEffectPos$532809[ebp], xmm0
  001c4	f3 0f 10 83 50
	12 00 00	 movss	 xmm0, DWORD PTR [ebx+4688]
  001cc	0f 5a c0	 cvtps2pd xmm0, xmm0
  001cf	0f 5a c9	 cvtps2pd xmm1, xmm1
  001d2	f2 0f 58 c1	 addsd	 xmm0, xmm1
  001d6	66 0f 5a c0	 cvtpd2ps xmm0, xmm0

; 405  : 		pMapEffect->SetWorldPosition( vEffectPos );

  001da	8d 4d f0	 lea	 ecx, DWORD PTR _vEffectPos$532809[ebp]
  001dd	f3 0f 11 45 f4	 movss	 DWORD PTR _vEffectPos$532809[ebp+4], xmm0
  001e2	f3 0f 10 45 e4	 movss	 xmm0, DWORD PTR _vPos$[ebp+8]
  001e7	51		 push	 ecx
  001e8	8b c8		 mov	 ecx, eax
  001ea	f3 0f 11 45 f8	 movss	 DWORD PTR _vEffectPos$532809[ebp+8], xmm0
  001ef	e8 00 00 00 00	 call	 ?SetWorldPosition@ioMapEffect@@QAEXABUD3DXVECTOR3@@@Z ; ioMapEffect::SetWorldPosition
$LN1@ProcessKey:

; 406  : 	}
; 407  : }

  001f4	8b 4d fc	 mov	 ecx, DWORD PTR __$ArrayPad$[ebp]
  001f7	5e		 pop	 esi
  001f8	33 cd		 xor	 ecx, ebp
  001fa	5b		 pop	 ebx
  001fb	e8 00 00 00 00	 call	 @__security_check_cookie@4
  00200	c9		 leave
  00201	c2 08 00	 ret	 8
?ProcessKeyEffect@ioCrecendoSkill@@IAEXPAVioBaseChar@@PAVioPlayStage@@@Z ENDP ; ioCrecendoSkill::ProcessKeyEffect
_TEXT	ENDS
PUBLIC	?CreateKeyRandom@ioCrecendoSkill@@IAEXPAVioBaseChar@@PAVioPlayStage@@@Z ; ioCrecendoSkill::CreateKeyRandom
EXTRN	__imp__rand:PROC
EXTRN	__imp__srand:PROC
EXTRN	__imp__timeGetTime@0:PROC
; Function compile flags: /Ogsp
;	COMDAT ?CreateKeyRandom@ioCrecendoSkill@@IAEXPAVioBaseChar@@PAVioPlayStage@@@Z
_TEXT	SEGMENT
_pChar$ = 8						; size = 4
_pStage$ = 12						; size = 4
?CreateKeyRandom@ioCrecendoSkill@@IAEXPAVioBaseChar@@PAVioPlayStage@@@Z PROC ; ioCrecendoSkill::CreateKeyRandom, COMDAT
; _this$ = ecx

; 410  : {

  00000	55		 push	 ebp
  00001	8b ec		 mov	 ebp, esp
  00003	57		 push	 edi
  00004	8b f9		 mov	 edi, ecx

; 411  : 	 if( !pChar )

  00006	8b 4d 08	 mov	 ecx, DWORD PTR _pChar$[ebp]
  00009	85 c9		 test	 ecx, ecx
  0000b	74 51		 je	 SHORT $LN2@CreateKeyR

; 412  : 		 return;
; 413  : 
; 414  : 	 if( !pStage )

  0000d	83 7d 0c 00	 cmp	 DWORD PTR _pStage$[ebp], 0
  00011	74 4b		 je	 SHORT $LN2@CreateKeyR

; 415  : 		 return;
; 416  : 
; 417  : 	 if( !pChar->IsNeedProcess() ) 

  00013	8b 01		 mov	 eax, DWORD PTR [ecx]
  00015	ff 90 00 01 00
	00		 call	 DWORD PTR [eax+256]
  0001b	84 c0		 test	 al, al
  0001d	74 3f		 je	 SHORT $LN2@CreateKeyR

; 418  : 		 return;
; 419  : 
; 420  : 	 srand( timeGetTime() );

  0001f	56		 push	 esi
  00020	ff 15 00 00 00
	00		 call	 DWORD PTR __imp__timeGetTime@0
  00026	50		 push	 eax
  00027	ff 15 00 00 00
	00		 call	 DWORD PTR __imp__srand

; 421  : 	 for( WaveKeyVec::iterator iter = m_SoundWaveKeyVec.begin(); iter != m_SoundWaveKeyVec.end(); ++iter )

  0002d	8b b7 7c 11 00
	00		 mov	 esi, DWORD PTR [edi+4476]
  00033	59		 pop	 ecx
  00034	eb 1f		 jmp	 SHORT $LN44@CreateKeyR
$LL20@CreateKeyR:

; 422  : 	 {
; 423  : 		 WaveKey& rkKey = *iter;
; 424  : 
; 425  : 		 if( rkKey.m_dwKey == WKS_NONE )		 

  00036	83 7e 08 00	 cmp	 DWORD PTR [esi+8], 0
  0003a	75 16		 jne	 SHORT $LN3@CreateKeyR

; 426  : 			 rkKey.m_dwRandKey = rand() % WKS_LEFT + 1;

  0003c	ff 15 00 00 00
	00		 call	 DWORD PTR __imp__rand
  00042	25 03 00 00 80	 and	 eax, -2147483645	; 80000003H
  00047	79 05		 jns	 SHORT $LN43@CreateKeyR
  00049	48		 dec	 eax
  0004a	83 c8 fc	 or	 eax, -4			; fffffffcH
  0004d	40		 inc	 eax
$LN43@CreateKeyR:
  0004e	40		 inc	 eax
  0004f	89 46 0c	 mov	 DWORD PTR [esi+12], eax
$LN3@CreateKeyR:

; 421  : 	 for( WaveKeyVec::iterator iter = m_SoundWaveKeyVec.begin(); iter != m_SoundWaveKeyVec.end(); ++iter )

  00052	83 c6 6c	 add	 esi, 108		; 0000006cH
$LN44@CreateKeyR:
  00055	3b b7 80 11 00
	00		 cmp	 esi, DWORD PTR [edi+4480]
  0005b	75 d9		 jne	 SHORT $LL20@CreateKeyR
  0005d	5e		 pop	 esi
$LN2@CreateKeyR:
  0005e	5f		 pop	 edi

; 427  : 	 }
; 428  : 
; 429  : #ifdef _DEBUG
; 430  : 	 DWORD dwCurTime = FRAMEGETTIME();
; 431  : 	 LOG.PrintTimeAndLog(0, "--key time table-----------------------------------------------------");
; 432  : 	 for( WaveKeyVec::iterator iter = m_SoundWaveKeyVec.begin(); iter != m_SoundWaveKeyVec.end(); ++iter )
; 433  : 	 {
; 434  : 		 WaveKey& rkKey = *iter;
; 435  : 		 LOG.PrintTimeAndLog(0, "key : %d, start time : %d, end time : %d", rkKey.m_dwKey, rkKey.m_dwStartTime + dwCurTime, rkKey.m_dwEndTime + dwCurTime );		 
; 436  : 	 }
; 437  : 
; 438  : 	 LOG.PrintTimeAndLog(0, " last key : %d, start time : %d, end time : %d", m_LastSoundWaveKey.m_dwKey, m_LastSoundWaveKey.m_dwStartTime + dwCurTime, m_LastSoundWaveKey.m_dwEndTime + dwCurTime );	
; 439  : 	 LOG.PrintTimeAndLog(0, "---------------------------------------------------------------------");
; 440  : #endif
; 441  :  }

  0005f	5d		 pop	 ebp
  00060	c2 08 00	 ret	 8
?CreateKeyRandom@ioCrecendoSkill@@IAEXPAVioBaseChar@@PAVioPlayStage@@@Z ENDP ; ioCrecendoSkill::CreateKeyRandom
_TEXT	ENDS
PUBLIC	?FindTarget@ioCrecendoSkill@@IAEPAVioBaseChar@@PAV2@PAVioPlayStage@@M@Z ; ioCrecendoSkill::FindTarget
EXTRN	?IsEnableTarget@ioBaseChar@@QAE_N_N0@Z:PROC	; ioBaseChar::IsEnableTarget
EXTRN	?IsSystemState@ioBaseChar@@QAE_NXZ:PROC		; ioBaseChar::IsSystemState
; Function compile flags: /Ogsp
;	COMDAT ?FindTarget@ioCrecendoSkill@@IAEPAVioBaseChar@@PAV2@PAVioPlayStage@@M@Z
_TEXT	SEGMENT
_vPos$ = -24						; size = 12
_fNewDistSq$533300 = -12				; size = 4
_value$541170 = -8					; size = 4
_value$541157 = -4					; size = 4
_pChar$ = 8						; size = 4
_pRetTarget$ = 12					; size = 4
_pStage$ = 12						; size = 4
_fTargetRange$ = 16					; size = 4
?FindTarget@ioCrecendoSkill@@IAEPAVioBaseChar@@PAV2@PAVioPlayStage@@M@Z PROC ; ioCrecendoSkill::FindTarget, COMDAT
; _this$ = ecx

; 690  : {

  00000	55		 push	 ebp
  00001	8b ec		 mov	 ebp, esp

; 691  : 	if( !pChar )

  00003	8b 4d 08	 mov	 ecx, DWORD PTR _pChar$[ebp]
  00006	83 ec 18	 sub	 esp, 24			; 00000018H
  00009	85 c9		 test	 ecx, ecx
  0000b	75 07		 jne	 SHORT $LN13@FindTarget

; 692  : 		return NULL;

  0000d	33 c0		 xor	 eax, eax
  0000f	e9 d3 01 00 00	 jmp	 $LN14@FindTarget
$LN13@FindTarget:
  00014	53		 push	 ebx

; 693  : 
; 694  : 	if( !pStage )

  00015	8b 5d 0c	 mov	 ebx, DWORD PTR _pStage$[ebp]
  00018	85 db		 test	 ebx, ebx
  0001a	75 07		 jne	 SHORT $LN12@FindTarget

; 695  : 		return NULL;

  0001c	33 c0		 xor	 eax, eax
  0001e	e9 c3 01 00 00	 jmp	 $LN69@FindTarget
$LN12@FindTarget:

; 696  : 
; 697  : 	const BaseCharList &rkCharList = pStage->GetBaseCharList();
; 698  : 	D3DXVECTOR3 vPos = pChar->GetWorldPosition();

  00023	8b 01		 mov	 eax, DWORD PTR [ecx]
  00025	56		 push	 esi
  00026	57		 push	 edi
  00027	ff 50 70	 call	 DWORD PTR [eax+112]

; 699  : 
; 700  : 	ioBaseChar* pRetTarget = NULL;

  0002a	83 65 0c 00	 and	 DWORD PTR _pRetTarget$[ebp], 0
  0002e	8b f0		 mov	 esi, eax
  00030	8d 7d e8	 lea	 edi, DWORD PTR _vPos$[ebp]
  00033	a5		 movsd
  00034	a5		 movsd
  00035	a5		 movsd

; 701  : 	BaseCharList::const_iterator iter;
; 702  : 	for( iter=rkCharList.begin() ; iter!=rkCharList.end() ; ++iter )

  00036	8b 73 2c	 mov	 esi, DWORD PTR [ebx+44]
  00039	e9 9a 01 00 00	 jmp	 $LN70@FindTarget
$LL26@FindTarget:

; 703  : 	{
; 704  : 		ioBaseChar *pTarget = *iter;

  0003e	8b 3e		 mov	 edi, DWORD PTR [esi]

; 705  : 
; 706  : 		if( pTarget == pChar )

  00040	3b 7d 08	 cmp	 edi, DWORD PTR _pChar$[ebp]
  00043	0f 84 8c 01 00
	00		 je	 $LN10@FindTarget

; 707  : 			continue;
; 708  : 
; 709  : 		if( pTarget->GetTeam() == pChar->GetTeam() )

  00049	8d 45 fc	 lea	 eax, DWORD PTR _value$541157[ebp]
  0004c	50		 push	 eax
  0004d	8d 8f 90 00 00
	00		 lea	 ecx, DWORD PTR [edi+144]
  00053	e8 00 00 00 00	 call	 ?DecryptValueToPool@?$CEncrypt@W4TeamType@@@@QAEXPAW4TeamType@@@Z ; CEncrypt<enum TeamType>::DecryptValueToPool
  00058	8b 4d 08	 mov	 ecx, DWORD PTR _pChar$[ebp]
  0005b	8d 45 f8	 lea	 eax, DWORD PTR _value$541170[ebp]
  0005e	50		 push	 eax
  0005f	81 c1 90 00 00
	00		 add	 ecx, 144		; 00000090H
  00065	e8 00 00 00 00	 call	 ?DecryptValueToPool@?$CEncrypt@W4TeamType@@@@QAEXPAW4TeamType@@@Z ; CEncrypt<enum TeamType>::DecryptValueToPool
  0006a	8b 45 fc	 mov	 eax, DWORD PTR _value$541157[ebp]
  0006d	3b 45 f8	 cmp	 eax, DWORD PTR _value$541170[ebp]
  00070	0f 84 5f 01 00
	00		 je	 $LN10@FindTarget

; 710  : 			continue;
; 711  : 
; 712  : 		if( pTarget->IsSystemState() )

  00076	8b cf		 mov	 ecx, edi
  00078	e8 00 00 00 00	 call	 ?IsSystemState@ioBaseChar@@QAE_NXZ ; ioBaseChar::IsSystemState
  0007d	84 c0		 test	 al, al
  0007f	0f 85 50 01 00
	00		 jne	 $LN10@FindTarget

; 713  : 			continue;
; 714  : 		
; 715  : 		if( !pTarget->IsEnableTarget() ) 

  00085	6a 01		 push	 1
  00087	6a 01		 push	 1
  00089	8b cf		 mov	 ecx, edi
  0008b	e8 00 00 00 00	 call	 ?IsEnableTarget@ioBaseChar@@QAE_N_N0@Z ; ioBaseChar::IsEnableTarget
  00090	84 c0		 test	 al, al
  00092	0f 84 3d 01 00
	00		 je	 $LN10@FindTarget

; 716  : 			continue;
; 717  : 
; 718  : 
; 719  : 		D3DXVECTOR3 vDistNewTarget = vPos - pTarget->GetWorldPosition();

  00098	8b 07		 mov	 eax, DWORD PTR [edi]
  0009a	8b cf		 mov	 ecx, edi
  0009c	ff 50 70	 call	 DWORD PTR [eax+112]
  0009f	f3 0f 10 45 e8	 movss	 xmm0, DWORD PTR _vPos$[ebp]
  000a4	f3 0f 10 08	 movss	 xmm1, DWORD PTR [eax]
  000a8	f3 0f 10 50 04	 movss	 xmm2, DWORD PTR [eax+4]
  000ad	f3 0f 10 58 08	 movss	 xmm3, DWORD PTR [eax+8]
  000b2	0f 5a c0	 cvtps2pd xmm0, xmm0
  000b5	0f 5a c9	 cvtps2pd xmm1, xmm1
  000b8	f2 0f 5c c1	 subsd	 xmm0, xmm1
  000bc	0f 57 c9	 xorps	 xmm1, xmm1
  000bf	f2 0f 5a c8	 cvtsd2ss xmm1, xmm0
  000c3	f3 0f 10 45 ec	 movss	 xmm0, DWORD PTR _vPos$[ebp+4]
  000c8	0f 5a c0	 cvtps2pd xmm0, xmm0
  000cb	0f 5a d2	 cvtps2pd xmm2, xmm2
  000ce	f2 0f 5c c2	 subsd	 xmm0, xmm2
  000d2	f3 0f 10 55 f0	 movss	 xmm2, DWORD PTR _vPos$[ebp+8]
  000d7	f2 0f 5a c0	 cvtsd2ss xmm0, xmm0
  000db	f3 0f 5a c0	 cvtss2sd xmm0, xmm0
  000df	0f 5a d2	 cvtps2pd xmm2, xmm2

; 720  : 		float fNewDistSq = D3DXVec3Length( &vDistNewTarget );

  000e2	f2 0f 59 c0	 mulsd	 xmm0, xmm0
  000e6	0f 5a c9	 cvtps2pd xmm1, xmm1
  000e9	0f 5a db	 cvtps2pd xmm3, xmm3
  000ec	f2 0f 5c d3	 subsd	 xmm2, xmm3
  000f0	f2 0f 59 c9	 mulsd	 xmm1, xmm1
  000f4	f2 0f 58 c8	 addsd	 xmm1, xmm0
  000f8	f2 0f 5a d2	 cvtsd2ss xmm2, xmm2
  000fc	0f 57 c0	 xorps	 xmm0, xmm0
  000ff	f3 0f 5a d2	 cvtss2sd xmm2, xmm2
  00103	f2 0f 59 d2	 mulsd	 xmm2, xmm2
  00107	f2 0f 58 ca	 addsd	 xmm1, xmm2
  0010b	66 0f 5a c1	 cvtpd2ps xmm0, xmm1

; 721  : 		if( fNewDistSq > fTargetRange )

  0010f	f3 0f 10 4d 10	 movss	 xmm1, DWORD PTR _fTargetRange$[ebp]
  00114	0f 5a c0	 cvtps2pd xmm0, xmm0
  00117	f2 0f 51 c0	 sqrtsd	 xmm0, xmm0
  0011b	66 0f 5a c0	 cvtpd2ps xmm0, xmm0
  0011f	f3 0f 11 45 f4	 movss	 DWORD PTR _fNewDistSq$533300[ebp], xmm0
  00124	f3 0f 5a c0	 cvtss2sd xmm0, xmm0
  00128	0f 5a c9	 cvtps2pd xmm1, xmm1
  0012b	66 0f 2f c1	 comisd	 xmm0, xmm1
  0012f	0f 87 a0 00 00
	00		 ja	 $LN10@FindTarget

; 722  : 			continue;
; 723  : 
; 724  : 		if( pRetTarget )

  00135	8b 4d 0c	 mov	 ecx, DWORD PTR _pRetTarget$[ebp]
  00138	85 c9		 test	 ecx, ecx
  0013a	0f 84 92 00 00
	00		 je	 $LN3@FindTarget

; 725  : 		{
; 726  : 			D3DXVECTOR3 vDistOldTarget = vPos - pRetTarget->GetWorldPosition();			

  00140	8b 01		 mov	 eax, DWORD PTR [ecx]
  00142	ff 50 70	 call	 DWORD PTR [eax+112]
  00145	f3 0f 10 45 e8	 movss	 xmm0, DWORD PTR _vPos$[ebp]
  0014a	f3 0f 10 08	 movss	 xmm1, DWORD PTR [eax]
  0014e	f3 0f 10 50 04	 movss	 xmm2, DWORD PTR [eax+4]
  00153	f3 0f 10 58 08	 movss	 xmm3, DWORD PTR [eax+8]
  00158	0f 5a c0	 cvtps2pd xmm0, xmm0
  0015b	0f 5a c9	 cvtps2pd xmm1, xmm1
  0015e	f2 0f 5c c1	 subsd	 xmm0, xmm1
  00162	0f 57 c9	 xorps	 xmm1, xmm1
  00165	f2 0f 5a c8	 cvtsd2ss xmm1, xmm0
  00169	f3 0f 10 45 ec	 movss	 xmm0, DWORD PTR _vPos$[ebp+4]
  0016e	0f 5a c0	 cvtps2pd xmm0, xmm0
  00171	0f 5a d2	 cvtps2pd xmm2, xmm2
  00174	f2 0f 5c c2	 subsd	 xmm0, xmm2
  00178	f3 0f 10 55 f0	 movss	 xmm2, DWORD PTR _vPos$[ebp+8]
  0017d	f2 0f 5a c0	 cvtsd2ss xmm0, xmm0
  00181	f3 0f 5a c0	 cvtss2sd xmm0, xmm0
  00185	0f 5a d2	 cvtps2pd xmm2, xmm2

; 727  : 			float fOldDistSq = D3DXVec3Length( &vDistOldTarget );			

  00188	f2 0f 59 c0	 mulsd	 xmm0, xmm0
  0018c	0f 5a c9	 cvtps2pd xmm1, xmm1
  0018f	0f 5a db	 cvtps2pd xmm3, xmm3
  00192	f2 0f 5c d3	 subsd	 xmm2, xmm3
  00196	f2 0f 59 c9	 mulsd	 xmm1, xmm1
  0019a	f2 0f 58 c8	 addsd	 xmm1, xmm0
  0019e	f2 0f 5a d2	 cvtsd2ss xmm2, xmm2

; 728  : 			if( fOldDistSq > fNewDistSq )

  001a2	0f 57 c0	 xorps	 xmm0, xmm0
  001a5	f3 0f 5a d2	 cvtss2sd xmm2, xmm2
  001a9	f2 0f 59 d2	 mulsd	 xmm2, xmm2
  001ad	f2 0f 58 ca	 addsd	 xmm1, xmm2
  001b1	66 0f 5a c1	 cvtpd2ps xmm0, xmm1
  001b5	f3 0f 10 4d f4	 movss	 xmm1, DWORD PTR _fNewDistSq$533300[ebp]
  001ba	0f 5a c0	 cvtps2pd xmm0, xmm0
  001bd	f2 0f 51 c0	 sqrtsd	 xmm0, xmm0
  001c1	66 0f 5a c0	 cvtpd2ps xmm0, xmm0
  001c5	f3 0f 5a c0	 cvtss2sd xmm0, xmm0
  001c9	0f 5a c9	 cvtps2pd xmm1, xmm1
  001cc	66 0f 2f c1	 comisd	 xmm0, xmm1
  001d0	76 03		 jbe	 SHORT $LN10@FindTarget
$LN3@FindTarget:

; 729  : 			{
; 730  : 				pRetTarget = pTarget;
; 731  : 			}
; 732  : 		}
; 733  : 		else
; 734  : 		{
; 735  : 			pRetTarget =  pTarget;

  001d2	89 7d 0c	 mov	 DWORD PTR _pRetTarget$[ebp], edi
$LN10@FindTarget:

; 701  : 	BaseCharList::const_iterator iter;
; 702  : 	for( iter=rkCharList.begin() ; iter!=rkCharList.end() ; ++iter )

  001d5	83 c6 04	 add	 esi, 4
$LN70@FindTarget:
  001d8	3b 73 30	 cmp	 esi, DWORD PTR [ebx+48]
  001db	0f 85 5d fe ff
	ff		 jne	 $LL26@FindTarget

; 736  : 		}
; 737  : 	}
; 738  : 
; 739  : 	return pRetTarget;

  001e1	8b 45 0c	 mov	 eax, DWORD PTR _pRetTarget$[ebp]
  001e4	5f		 pop	 edi
  001e5	5e		 pop	 esi
$LN69@FindTarget:
  001e6	5b		 pop	 ebx
$LN14@FindTarget:

; 740  : }

  001e7	c9		 leave
  001e8	c2 0c 00	 ret	 12			; 0000000cH
?FindTarget@ioCrecendoSkill@@IAEPAVioBaseChar@@PAV2@PAVioPlayStage@@M@Z ENDP ; ioCrecendoSkill::FindTarget
_TEXT	ENDS
PUBLIC	_vFirePos$GSCopy$
PUBLIC	_this$GSCopy$
PUBLIC	__$ArrayPad$
PUBLIC	?AttackFire@ioCrecendoSkill@@IAEXPAVioBaseChar@@ABUAttackAttribute@@ABUD3DXVECTOR3@@@Z ; ioCrecendoSkill::AttackFire
EXTRN	??1SP2Packet@@UAE@XZ:PROC			; SP2Packet::~SP2Packet
EXTRN	?SendToAllPlayingUser@P2PNetwork@@YAXAAVSP2Packet@@PAVioBaseChar@@@Z:PROC ; P2PNetwork::SendToAllPlayingUser
EXTRN	??6SP2Packet@@QAEAAV0@ABUD3DXVECTOR3@@@Z:PROC	; SP2Packet::operator<<
EXTRN	??6SP2Packet@@QAEAAV0@H@Z:PROC			; SP2Packet::operator<<
EXTRN	??6SP2Packet@@QAEAAV0@ABVioHashString@@@Z:PROC	; SP2Packet::operator<<
EXTRN	??0SP2Packet@@QAE@K@Z:PROC			; SP2Packet::SP2Packet
EXTRN	?SkillFireExplicit@ioBaseChar@@QAEPAVioWeapon@@ABUWeaponInfo@@ABVioHashString@@KABUD3DXVECTOR3@@2@Z:PROC ; ioBaseChar::SkillFireExplicit
EXTRN	?IncreaseWeaponIndexBase@ioBaseChar@@QAEKXZ:PROC ; ioBaseChar::IncreaseWeaponIndexBase
EXTRN	__chkstk:PROC
;	COMDAT xdata$x
; File d:\lost saga for developer\youtube\tutorial\source\src\lsclient\ioskill.h
xdata$x	SEGMENT
__unwindtable$?AttackFire@ioCrecendoSkill@@IAEXPAVioBaseChar@@ABUAttackAttribute@@ABUD3DXVECTOR3@@@Z DD 0ffffffffH
	DD	FLAT:__unwindfunclet$?AttackFire@ioCrecendoSkill@@IAEXPAVioBaseChar@@ABUAttackAttribute@@ABUD3DXVECTOR3@@@Z$0
__ehfuncinfo$?AttackFire@ioCrecendoSkill@@IAEXPAVioBaseChar@@ABUAttackAttribute@@ABUD3DXVECTOR3@@@Z DD 019930522H
	DD	01H
	DD	FLAT:__unwindtable$?AttackFire@ioCrecendoSkill@@IAEXPAVioBaseChar@@ABUAttackAttribute@@ABUD3DXVECTOR3@@@Z
	DD	2 DUP(00H)
	DD	2 DUP(00H)
	DD	00H
	DD	01H
; Function compile flags: /Ogsp
; File d:\lost saga for developer\youtube\tutorial\source\src\lsclient\iocrecendoskill.cpp
xdata$x	ENDS
;	COMDAT ?AttackFire@ioCrecendoSkill@@IAEXPAVioBaseChar@@ABUAttackAttribute@@ABUD3DXVECTOR3@@@Z
_TEXT	SEGMENT
_vFirePos$GSCopy$ = -32816				; size = 4
_this$GSCopy$ = -32812					; size = 4
_kPacket$533322 = -32808				; size = 32792
__$ArrayPad$ = -16					; size = 4
__$EHRec$ = -12						; size = 12
_pChar$ = 8						; size = 4
_Attack$ = 12						; size = 4
_vFirePos$ = 16						; size = 4
?AttackFire@ioCrecendoSkill@@IAEXPAVioBaseChar@@ABUAttackAttribute@@ABUD3DXVECTOR3@@@Z PROC ; ioCrecendoSkill::AttackFire, COMDAT
; _this$ = ecx

; 743  : {

  00000	55		 push	 ebp
  00001	8b ec		 mov	 ebp, esp
  00003	6a ff		 push	 -1
  00005	68 00 00 00 00	 push	 __ehhandler$?AttackFire@ioCrecendoSkill@@IAEXPAVioBaseChar@@ABUAttackAttribute@@ABUD3DXVECTOR3@@@Z
  0000a	64 a1 00 00 00
	00		 mov	 eax, DWORD PTR fs:0
  00010	50		 push	 eax
  00011	b8 24 80 00 00	 mov	 eax, 32804		; 00008024H
  00016	e8 00 00 00 00	 call	 __chkstk
  0001b	a1 00 00 00 00	 mov	 eax, DWORD PTR ___security_cookie
  00020	33 c5		 xor	 eax, ebp
  00022	89 45 f0	 mov	 DWORD PTR __$ArrayPad$[ebp], eax
  00025	53		 push	 ebx
  00026	56		 push	 esi
  00027	57		 push	 edi
  00028	50		 push	 eax
  00029	8d 45 f4	 lea	 eax, DWORD PTR __$EHRec$[ebp]
  0002c	64 a3 00 00 00
	00		 mov	 DWORD PTR fs:0, eax
  00032	8b 7d 0c	 mov	 edi, DWORD PTR _Attack$[ebp]
  00035	8b 45 10	 mov	 eax, DWORD PTR _vFirePos$[ebp]
  00038	8b 75 08	 mov	 esi, DWORD PTR _pChar$[ebp]

; 744  : 	for( WeaponInfoList::const_iterator iter = Attack.m_vWeaponInfoList.begin(); iter != Attack.m_vWeaponInfoList.end(); ++iter )

  0003b	8b 5f 28	 mov	 ebx, DWORD PTR [edi+40]
  0003e	89 8d d4 7f ff
	ff		 mov	 DWORD PTR _this$GSCopy$[ebp], ecx
  00044	89 85 d0 7f ff
	ff		 mov	 DWORD PTR _vFirePos$GSCopy$[ebp], eax
  0004a	e9 dc 00 00 00	 jmp	 $LN39@AttackFire
$LL14@AttackFire:

; 745  : 	{
; 746  : 		DWORD dwCurBaseIndex = pChar->IncreaseWeaponIndexBase();

  0004f	8b ce		 mov	 ecx, esi
  00051	e8 00 00 00 00	 call	 ?IncreaseWeaponIndexBase@ioBaseChar@@QAEKXZ ; ioBaseChar::IncreaseWeaponIndexBase

; 747  : 		pChar->SkillFireExplicit( (*iter),	GetName(), dwCurBaseIndex,	vFirePos );

  00056	ff 35 00 00 00
	00		 push	 DWORD PTR __imp_?VEC3_ZERO@ioMath@@2UD3DXVECTOR3@@A
  0005c	8b ce		 mov	 ecx, esi
  0005e	ff b5 d0 7f ff
	ff		 push	 DWORD PTR _vFirePos$GSCopy$[ebp]
  00064	50		 push	 eax
  00065	8b 85 d4 7f ff
	ff		 mov	 eax, DWORD PTR _this$GSCopy$[ebp]
  0006b	83 c0 24	 add	 eax, 36			; 00000024H
  0006e	50		 push	 eax
  0006f	53		 push	 ebx
  00070	e8 00 00 00 00	 call	 ?SkillFireExplicit@ioBaseChar@@QAEPAVioWeapon@@ABUWeaponInfo@@ABVioHashString@@KABUD3DXVECTOR3@@2@Z ; ioBaseChar::SkillFireExplicit

; 748  : 
; 749  : 		if( pChar->IsNeedProcess() && pChar->IsNeedSendNetwork() )

  00075	8b 06		 mov	 eax, DWORD PTR [esi]
  00077	8b ce		 mov	 ecx, esi
  00079	ff 90 00 01 00
	00		 call	 DWORD PTR [eax+256]
  0007f	84 c0		 test	 al, al
  00081	0f 84 a1 00 00
	00		 je	 $LN3@AttackFire
  00087	8b 06		 mov	 eax, DWORD PTR [esi]
  00089	8b ce		 mov	 ecx, esi
  0008b	ff 90 04 01 00
	00		 call	 DWORD PTR [eax+260]
  00091	84 c0		 test	 al, al
  00093	0f 84 8f 00 00
	00		 je	 $LN3@AttackFire

; 750  : 		{
; 751  : 			SP2Packet kPacket( CUPK_SKILL_EXTRA_INFO );

  00099	68 39 41 00 00	 push	 16697			; 00004139H
  0009e	8d 8d d8 7f ff
	ff		 lea	 ecx, DWORD PTR _kPacket$533322[ebp]
  000a4	e8 00 00 00 00	 call	 ??0SP2Packet@@QAE@K@Z	; SP2Packet::SP2Packet
  000a9	83 65 fc 00	 and	 DWORD PTR __$EHRec$[ebp+8], 0

; 752  : 			kPacket << pChar->GetCharName();

  000ad	8d 86 d4 02 00
	00		 lea	 eax, DWORD PTR [esi+724]
  000b3	50		 push	 eax
  000b4	8d 8d d8 7f ff
	ff		 lea	 ecx, DWORD PTR _kPacket$533322[ebp]
  000ba	e8 00 00 00 00	 call	 ??6SP2Packet@@QAEAAV0@ABVioHashString@@@Z ; SP2Packet::operator<<

; 753  : 			kPacket << GetName();

  000bf	8b 85 d4 7f ff
	ff		 mov	 eax, DWORD PTR _this$GSCopy$[ebp]
  000c5	83 c0 24	 add	 eax, 36			; 00000024H
  000c8	50		 push	 eax
  000c9	8d 8d d8 7f ff
	ff		 lea	 ecx, DWORD PTR _kPacket$533322[ebp]
  000cf	e8 00 00 00 00	 call	 ??6SP2Packet@@QAEAAV0@ABVioHashString@@@Z ; SP2Packet::operator<<

; 754  : 			kPacket << SSC_ATTACK;

  000d4	6a 00		 push	 0
  000d6	8d 8d d8 7f ff
	ff		 lea	 ecx, DWORD PTR _kPacket$533322[ebp]
  000dc	e8 00 00 00 00	 call	 ??6SP2Packet@@QAEAAV0@H@Z ; SP2Packet::operator<<

; 755  : 			kPacket << vFirePos;

  000e1	ff b5 d0 7f ff
	ff		 push	 DWORD PTR _vFirePos$GSCopy$[ebp]
  000e7	8d 8d d8 7f ff
	ff		 lea	 ecx, DWORD PTR _kPacket$533322[ebp]
  000ed	e8 00 00 00 00	 call	 ??6SP2Packet@@QAEAAV0@ABUD3DXVECTOR3@@@Z ; SP2Packet::operator<<

; 756  : 			kPacket << m_iCurSoundWayIdx;

  000f2	8b 85 d4 7f ff
	ff		 mov	 eax, DWORD PTR _this$GSCopy$[ebp]
  000f8	ff b0 54 12 00
	00		 push	 DWORD PTR [eax+4692]
  000fe	8d 8d d8 7f ff
	ff		 lea	 ecx, DWORD PTR _kPacket$533322[ebp]
  00104	e8 00 00 00 00	 call	 ??6SP2Packet@@QAEAAV0@H@Z ; SP2Packet::operator<<

; 757  : 			P2PNetwork::SendToAllPlayingUser( kPacket );

  00109	8d 85 d8 7f ff
	ff		 lea	 eax, DWORD PTR _kPacket$533322[ebp]
  0010f	6a 00		 push	 0
  00111	50		 push	 eax
  00112	e8 00 00 00 00	 call	 ?SendToAllPlayingUser@P2PNetwork@@YAXAAVSP2Packet@@PAVioBaseChar@@@Z ; P2PNetwork::SendToAllPlayingUser

; 758  : 		}

  00117	83 4d fc ff	 or	 DWORD PTR __$EHRec$[ebp+8], -1
  0011b	59		 pop	 ecx
  0011c	59		 pop	 ecx
  0011d	8d 8d d8 7f ff
	ff		 lea	 ecx, DWORD PTR _kPacket$533322[ebp]
  00123	e8 00 00 00 00	 call	 ??1SP2Packet@@UAE@XZ	; SP2Packet::~SP2Packet
$LN3@AttackFire:

; 744  : 	for( WeaponInfoList::const_iterator iter = Attack.m_vWeaponInfoList.begin(); iter != Attack.m_vWeaponInfoList.end(); ++iter )

  00128	83 c3 28	 add	 ebx, 40			; 00000028H
$LN39@AttackFire:
  0012b	3b 5f 2c	 cmp	 ebx, DWORD PTR [edi+44]
  0012e	0f 85 1b ff ff
	ff		 jne	 $LL14@AttackFire

; 759  : 	}
; 760  : }

  00134	8b 4d f4	 mov	 ecx, DWORD PTR __$EHRec$[ebp]
  00137	64 89 0d 00 00
	00 00		 mov	 DWORD PTR fs:0, ecx
  0013e	59		 pop	 ecx
  0013f	5f		 pop	 edi
  00140	5e		 pop	 esi
  00141	5b		 pop	 ebx
  00142	8b 4d f0	 mov	 ecx, DWORD PTR __$ArrayPad$[ebp]
  00145	33 cd		 xor	 ecx, ebp
  00147	e8 00 00 00 00	 call	 @__security_check_cookie@4
  0014c	c9		 leave
  0014d	c2 0c 00	 ret	 12			; 0000000cH
_TEXT	ENDS
;	COMDAT text$x
text$x	SEGMENT
__unwindfunclet$?AttackFire@ioCrecendoSkill@@IAEXPAVioBaseChar@@ABUAttackAttribute@@ABUD3DXVECTOR3@@@Z$0:
  00000	8d 8d d8 7f ff
	ff		 lea	 ecx, DWORD PTR _kPacket$533322[ebp]
  00006	e9 00 00 00 00	 jmp	 ??1SP2Packet@@UAE@XZ	; SP2Packet::~SP2Packet
__ehhandler$?AttackFire@ioCrecendoSkill@@IAEXPAVioBaseChar@@ABUAttackAttribute@@ABUD3DXVECTOR3@@@Z:
  0000b	8b 54 24 08	 mov	 edx, DWORD PTR [esp+8]
  0000f	8d 42 0c	 lea	 eax, DWORD PTR [edx+12]
  00012	8b 8a cc 7f ff
	ff		 mov	 ecx, DWORD PTR [edx-32820]
  00018	33 c8		 xor	 ecx, eax
  0001a	e8 00 00 00 00	 call	 @__security_check_cookie@4
  0001f	8b 4a fc	 mov	 ecx, DWORD PTR [edx-4]
  00022	33 c8		 xor	 ecx, eax
  00024	e8 00 00 00 00	 call	 @__security_check_cookie@4
  00029	b8 00 00 00 00	 mov	 eax, OFFSET __ehfuncinfo$?AttackFire@ioCrecendoSkill@@IAEXPAVioBaseChar@@ABUAttackAttribute@@ABUD3DXVECTOR3@@@Z
  0002e	e9 00 00 00 00	 jmp	 ___CxxFrameHandler3
text$x	ENDS
?AttackFire@ioCrecendoSkill@@IAEXPAVioBaseChar@@ABUAttackAttribute@@ABUD3DXVECTOR3@@@Z ENDP ; ioCrecendoSkill::AttackFire
PUBLIC	??$_Destroy_range@V?$allocator@UKeyMapEffect@ioCrecendoSkill@@@std@@@std@@YAXPAUKeyMapEffect@ioCrecendoSkill@@0AAV?$allocator@UKeyMapEffect@ioCrecendoSkill@@@0@U_Nonscalar_ptr_iterator_tag@0@@Z ; std::_Destroy_range<std::allocator<ioCrecendoSkill::KeyMapEffect> >
; Function compile flags: /Ogsp
; File c:\program files (x86)\microsoft visual studio 10.0\vc\include\xmemory
;	COMDAT ??$_Destroy_range@V?$allocator@UKeyMapEffect@ioCrecendoSkill@@@std@@@std@@YAXPAUKeyMapEffect@ioCrecendoSkill@@0AAV?$allocator@UKeyMapEffect@ioCrecendoSkill@@@0@U_Nonscalar_ptr_iterator_tag@0@@Z
_TEXT	SEGMENT
__First$ = 8						; size = 4
__Last$ = 12						; size = 4
__Al$ = 16						; size = 4
___formal$ = 20						; size = 1
??$_Destroy_range@V?$allocator@UKeyMapEffect@ioCrecendoSkill@@@std@@@std@@YAXPAUKeyMapEffect@ioCrecendoSkill@@0AAV?$allocator@UKeyMapEffect@ioCrecendoSkill@@@0@U_Nonscalar_ptr_iterator_tag@0@@Z PROC ; std::_Destroy_range<std::allocator<ioCrecendoSkill::KeyMapEffect> >, COMDAT

; 96   : 	for (; _First != _Last; ++_First)
; 97   : 		_Dest_val(_Al, _First);
; 98   : 	}

  00000	c3		 ret	 0
??$_Destroy_range@V?$allocator@UKeyMapEffect@ioCrecendoSkill@@@std@@@std@@YAXPAUKeyMapEffect@ioCrecendoSkill@@0AAV?$allocator@UKeyMapEffect@ioCrecendoSkill@@@0@U_Nonscalar_ptr_iterator_tag@0@@Z ENDP ; std::_Destroy_range<std::allocator<ioCrecendoSkill::KeyMapEffect> >
_TEXT	ENDS
PUBLIC	??$_Uninit_copy@V?$_Vector_const_iterator@V?$_Vector_val@UForceInfo@@V?$allocator@UForceInfo@@@std@@@std@@@std@@PAUForceInfo@@V?$allocator@UForceInfo@@@2@@std@@YAPAUForceInfo@@V?$_Vector_const_iterator@V?$_Vector_val@UForceInfo@@V?$allocator@UForceInfo@@@std@@@std@@@0@0PAU1@AAV?$allocator@UForceInfo@@@0@U_Nonscalar_ptr_iterator_tag@0@@Z ; std::_Uninit_copy<std::_Vector_const_iterator<std::_Vector_val<ForceInfo,std::allocator<ForceInfo> > >,ForceInfo *,std::allocator<ForceInfo> >
; Function compile flags: /Ogsp
; File c:\program files (x86)\microsoft visual studio 10.0\vc\include\memory
;	COMDAT ??$_Uninit_copy@V?$_Vector_const_iterator@V?$_Vector_val@UForceInfo@@V?$allocator@UForceInfo@@@std@@@std@@@std@@PAUForceInfo@@V?$allocator@UForceInfo@@@2@@std@@YAPAUForceInfo@@V?$_Vector_const_iterator@V?$_Vector_val@UForceInfo@@V?$allocator@UForceInfo@@@std@@@std@@@0@0PAU1@AAV?$allocator@UForceInfo@@@0@U_Nonscalar_ptr_iterator_tag@0@@Z
_TEXT	SEGMENT
__First$ = 8						; size = 4
__Last$ = 12						; size = 4
__Dest$ = 16						; size = 4
__Al$ = 20						; size = 4
___formal$ = 24						; size = 1
??$_Uninit_copy@V?$_Vector_const_iterator@V?$_Vector_val@UForceInfo@@V?$allocator@UForceInfo@@@std@@@std@@@std@@PAUForceInfo@@V?$allocator@UForceInfo@@@2@@std@@YAPAUForceInfo@@V?$_Vector_const_iterator@V?$_Vector_val@UForceInfo@@V?$allocator@UForceInfo@@@std@@@std@@@0@0PAU1@AAV?$allocator@UForceInfo@@@0@U_Nonscalar_ptr_iterator_tag@0@@Z PROC ; std::_Uninit_copy<std::_Vector_const_iterator<std::_Vector_val<ForceInfo,std::allocator<ForceInfo> > >,ForceInfo *,std::allocator<ForceInfo> >, COMDAT

; 369  : 	{	// copy [_First, _Last) to raw _Dest, using _Al, arbitrary type

  00000	55		 push	 ebp
  00001	8b ec		 mov	 ebp, esp

; 370  : 	_DEBUG_RANGE(_First, _Last);
; 371  : 	_DEBUG_POINTER(_Dest);
; 372  : 	_FwdIt _Next = _Dest;
; 373  : 
; 374  : 	_TRY_BEGIN
; 375  : 	for (; _First != _Last; ++_Dest, ++_First)

  00003	eb 19		 jmp	 SHORT $LN35@Uninit_cop
$LL14@Uninit_cop:

; 376  : 		_Cons_val(_Al, _Dest, *_First);

  00005	ff 75 08	 push	 DWORD PTR __First$[ebp]
  00008	ff 75 10	 push	 DWORD PTR __Dest$[ebp]
  0000b	ff 75 14	 push	 DWORD PTR __Al$[ebp]
  0000e	e8 00 00 00 00	 call	 ??$_Cons_val@V?$allocator@UForceInfo@@@std@@UForceInfo@@ABU3@@std@@YAXAAV?$allocator@UForceInfo@@@0@PAUForceInfo@@ABU2@@Z ; std::_Cons_val<std::allocator<ForceInfo>,ForceInfo,ForceInfo const &>
  00013	83 45 10 0c	 add	 DWORD PTR __Dest$[ebp], 12 ; 0000000cH
  00017	83 c4 0c	 add	 esp, 12			; 0000000cH
  0001a	83 45 08 0c	 add	 DWORD PTR __First$[ebp], 12 ; 0000000cH
$LN35@Uninit_cop:

; 370  : 	_DEBUG_RANGE(_First, _Last);
; 371  : 	_DEBUG_POINTER(_Dest);
; 372  : 	_FwdIt _Next = _Dest;
; 373  : 
; 374  : 	_TRY_BEGIN
; 375  : 	for (; _First != _Last; ++_Dest, ++_First)

  0001e	8b 45 08	 mov	 eax, DWORD PTR __First$[ebp]
  00021	3b 45 0c	 cmp	 eax, DWORD PTR __Last$[ebp]
  00024	75 df		 jne	 SHORT $LL14@Uninit_cop

; 377  : 	_CATCH_ALL
; 378  : 	for (; _Next != _Dest; ++_Next)
; 379  : 		_Dest_val(_Al, _Next);
; 380  : 	_RERAISE;
; 381  : 	_CATCH_END
; 382  : 	return (_Dest);

  00026	8b 45 10	 mov	 eax, DWORD PTR __Dest$[ebp]

; 383  : 	}

  00029	5d		 pop	 ebp
  0002a	c3		 ret	 0
??$_Uninit_copy@V?$_Vector_const_iterator@V?$_Vector_val@UForceInfo@@V?$allocator@UForceInfo@@@std@@@std@@@std@@PAUForceInfo@@V?$allocator@UForceInfo@@@2@@std@@YAPAUForceInfo@@V?$_Vector_const_iterator@V?$_Vector_val@UForceInfo@@V?$allocator@UForceInfo@@@std@@@std@@@0@0PAU1@AAV?$allocator@UForceInfo@@@0@U_Nonscalar_ptr_iterator_tag@0@@Z ENDP ; std::_Uninit_copy<std::_Vector_const_iterator<std::_Vector_val<ForceInfo,std::allocator<ForceInfo> > >,ForceInfo *,std::allocator<ForceInfo> >
_TEXT	ENDS
PUBLIC	??$_Uninit_move@PAUKeyMapEffect@ioCrecendoSkill@@PAU12@V?$allocator@UKeyMapEffect@ioCrecendoSkill@@@std@@U12@@std@@YAPAUKeyMapEffect@ioCrecendoSkill@@PAU12@00AAV?$allocator@UKeyMapEffect@ioCrecendoSkill@@@0@0U_Nonscalar_ptr_iterator_tag@0@@Z ; std::_Uninit_move<ioCrecendoSkill::KeyMapEffect *,ioCrecendoSkill::KeyMapEffect *,std::allocator<ioCrecendoSkill::KeyMapEffect>,ioCrecendoSkill::KeyMapEffect>
; Function compile flags: /Ogsp
;	COMDAT ??$_Uninit_move@PAUKeyMapEffect@ioCrecendoSkill@@PAU12@V?$allocator@UKeyMapEffect@ioCrecendoSkill@@@std@@U12@@std@@YAPAUKeyMapEffect@ioCrecendoSkill@@PAU12@00AAV?$allocator@UKeyMapEffect@ioCrecendoSkill@@@0@0U_Nonscalar_ptr_iterator_tag@0@@Z
_TEXT	SEGMENT
__First$ = 8						; size = 4
__Last$ = 12						; size = 4
__Dest$ = 16						; size = 4
__Al$ = 20						; size = 4
___formal$ = 24						; size = 4
___formal$ = 28						; size = 1
??$_Uninit_move@PAUKeyMapEffect@ioCrecendoSkill@@PAU12@V?$allocator@UKeyMapEffect@ioCrecendoSkill@@@std@@U12@@std@@YAPAUKeyMapEffect@ioCrecendoSkill@@PAU12@00AAV?$allocator@UKeyMapEffect@ioCrecendoSkill@@@0@0U_Nonscalar_ptr_iterator_tag@0@@Z PROC ; std::_Uninit_move<ioCrecendoSkill::KeyMapEffect *,ioCrecendoSkill::KeyMapEffect *,std::allocator<ioCrecendoSkill::KeyMapEffect>,ioCrecendoSkill::KeyMapEffect>, COMDAT

; 424  : 	{	// move [_First, _Last) to raw _Dest, using _Al, arbitrary type

  00000	55		 push	 ebp
  00001	8b ec		 mov	 ebp, esp
  00003	56		 push	 esi

; 425  : 	_DEBUG_RANGE(_First, _Last);
; 426  : 	_DEBUG_POINTER(_Dest);
; 427  : 	_FwdIt _Next = _Dest;
; 428  : 
; 429  : 	_TRY_BEGIN
; 430  : 	for (; _First != _Last; ++_Dest, ++_First)

  00004	8b 75 08	 mov	 esi, DWORD PTR __First$[ebp]
  00007	eb 16		 jmp	 SHORT $LN24@Uninit_mov
$LL6@Uninit_mov:

; 431  : 		_Cons_val(_Al, _Dest, (_Valty &&)*_First);

  00009	56		 push	 esi
  0000a	ff 75 10	 push	 DWORD PTR __Dest$[ebp]
  0000d	ff 75 14	 push	 DWORD PTR __Al$[ebp]
  00010	e8 00 00 00 00	 call	 ??$_Cons_val@V?$allocator@UKeyMapEffect@ioCrecendoSkill@@@std@@UKeyMapEffect@ioCrecendoSkill@@U34@@std@@YAXAAV?$allocator@UKeyMapEffect@ioCrecendoSkill@@@0@PAUKeyMapEffect@ioCrecendoSkill@@$$QAU23@@Z ; std::_Cons_val<std::allocator<ioCrecendoSkill::KeyMapEffect>,ioCrecendoSkill::KeyMapEffect,ioCrecendoSkill::KeyMapEffect>
  00015	83 45 10 08	 add	 DWORD PTR __Dest$[ebp], 8
  00019	83 c4 0c	 add	 esp, 12			; 0000000cH
  0001c	83 c6 08	 add	 esi, 8
$LN24@Uninit_mov:

; 425  : 	_DEBUG_RANGE(_First, _Last);
; 426  : 	_DEBUG_POINTER(_Dest);
; 427  : 	_FwdIt _Next = _Dest;
; 428  : 
; 429  : 	_TRY_BEGIN
; 430  : 	for (; _First != _Last; ++_Dest, ++_First)

  0001f	3b 75 0c	 cmp	 esi, DWORD PTR __Last$[ebp]
  00022	75 e5		 jne	 SHORT $LL6@Uninit_mov

; 432  : 	_CATCH_ALL
; 433  : 	for (; _Next != _Dest; ++_Next)
; 434  : 		_Dest_val(_Al, _Next);
; 435  : 	_RERAISE;
; 436  : 	_CATCH_END
; 437  : 	return (_Dest);

  00024	8b 45 10	 mov	 eax, DWORD PTR __Dest$[ebp]
  00027	5e		 pop	 esi

; 438  : 	}

  00028	5d		 pop	 ebp
  00029	c3		 ret	 0
??$_Uninit_move@PAUKeyMapEffect@ioCrecendoSkill@@PAU12@V?$allocator@UKeyMapEffect@ioCrecendoSkill@@@std@@U12@@std@@YAPAUKeyMapEffect@ioCrecendoSkill@@PAU12@00AAV?$allocator@UKeyMapEffect@ioCrecendoSkill@@@0@0U_Nonscalar_ptr_iterator_tag@0@@Z ENDP ; std::_Uninit_move<ioCrecendoSkill::KeyMapEffect *,ioCrecendoSkill::KeyMapEffect *,std::allocator<ioCrecendoSkill::KeyMapEffect>,ioCrecendoSkill::KeyMapEffect>
_TEXT	ENDS
PUBLIC	??$distance@V?$_Vector_iterator@V?$_Vector_val@UKeyMapEffect@ioCrecendoSkill@@V?$allocator@UKeyMapEffect@ioCrecendoSkill@@@std@@@std@@@std@@@std@@YAHV?$_Vector_iterator@V?$_Vector_val@UKeyMapEffect@ioCrecendoSkill@@V?$allocator@UKeyMapEffect@ioCrecendoSkill@@@std@@@std@@@0@0@Z ; std::distance<std::_Vector_iterator<std::_Vector_val<ioCrecendoSkill::KeyMapEffect,std::allocator<ioCrecendoSkill::KeyMapEffect> > > >
; Function compile flags: /Ogsp
; File c:\program files (x86)\microsoft visual studio 10.0\vc\include\xutility
;	COMDAT ??$distance@V?$_Vector_iterator@V?$_Vector_val@UKeyMapEffect@ioCrecendoSkill@@V?$allocator@UKeyMapEffect@ioCrecendoSkill@@@std@@@std@@@std@@@std@@YAHV?$_Vector_iterator@V?$_Vector_val@UKeyMapEffect@ioCrecendoSkill@@V?$allocator@UKeyMapEffect@ioCrecendoSkill@@@std@@@std@@@0@0@Z
_TEXT	SEGMENT
__First$ = 8						; size = 4
__Last$ = 12						; size = 4
??$distance@V?$_Vector_iterator@V?$_Vector_val@UKeyMapEffect@ioCrecendoSkill@@V?$allocator@UKeyMapEffect@ioCrecendoSkill@@@std@@@std@@@std@@@std@@YAHV?$_Vector_iterator@V?$_Vector_val@UKeyMapEffect@ioCrecendoSkill@@V?$allocator@UKeyMapEffect@ioCrecendoSkill@@@std@@@std@@@0@0@Z PROC ; std::distance<std::_Vector_iterator<std::_Vector_val<ioCrecendoSkill::KeyMapEffect,std::allocator<ioCrecendoSkill::KeyMapEffect> > > >, COMDAT

; 900  : 	{	// return distance between iterators

  00000	55		 push	 ebp
  00001	8b ec		 mov	 ebp, esp

; 901  : 	typename iterator_traits<_InIt>::difference_type _Off = 0;
; 902  : 	_Distance2(_First, _Last, _Off, _Iter_cat(_First));

  00003	8b 45 0c	 mov	 eax, DWORD PTR __Last$[ebp]
  00006	2b 45 08	 sub	 eax, DWORD PTR __First$[ebp]
  00009	c1 f8 03	 sar	 eax, 3

; 903  : 	return (_Off);
; 904  : 	}

  0000c	5d		 pop	 ebp
  0000d	c3		 ret	 0
??$distance@V?$_Vector_iterator@V?$_Vector_val@UKeyMapEffect@ioCrecendoSkill@@V?$allocator@UKeyMapEffect@ioCrecendoSkill@@@std@@@std@@@std@@@std@@YAHV?$_Vector_iterator@V?$_Vector_val@UKeyMapEffect@ioCrecendoSkill@@V?$allocator@UKeyMapEffect@ioCrecendoSkill@@@std@@@std@@@0@0@Z ENDP ; std::distance<std::_Vector_iterator<std::_Vector_val<ioCrecendoSkill::KeyMapEffect,std::allocator<ioCrecendoSkill::KeyMapEffect> > > >
_TEXT	ENDS
PUBLIC	??$_Cons_val@V?$allocator@UWeaponInfo@@@std@@UWeaponInfo@@ABU3@@std@@YAXAAV?$allocator@UWeaponInfo@@@0@PAUWeaponInfo@@ABU2@@Z ; std::_Cons_val<std::allocator<WeaponInfo>,WeaponInfo,WeaponInfo const &>
; Function compile flags: /Ogsp
; File c:\program files (x86)\microsoft visual studio 10.0\vc\include\xmemory
;	COMDAT ??$_Cons_val@V?$allocator@UWeaponInfo@@@std@@UWeaponInfo@@ABU3@@std@@YAXAAV?$allocator@UWeaponInfo@@@0@PAUWeaponInfo@@ABU2@@Z
_TEXT	SEGMENT
__Alval$ = 8						; size = 4
__Pdest$ = 12						; size = 4
__Src$ = 16						; size = 4
??$_Cons_val@V?$allocator@UWeaponInfo@@@std@@UWeaponInfo@@ABU3@@std@@YAXAAV?$allocator@UWeaponInfo@@@0@PAUWeaponInfo@@ABU2@@Z PROC ; std::_Cons_val<std::allocator<WeaponInfo>,WeaponInfo,WeaponInfo const &>, COMDAT

; 279  : 	{	// construct using allocator

  00000	55		 push	 ebp
  00001	8b ec		 mov	 ebp, esp

; 280  : 	_Alval.construct(_Pdest, _STD forward<_Ty2>(_Src));

  00003	ff 75 10	 push	 DWORD PTR __Src$[ebp]
  00006	ff 75 0c	 push	 DWORD PTR __Pdest$[ebp]
  00009	e8 00 00 00 00	 call	 ??$_Construct@UWeaponInfo@@ABU1@@std@@YAXPAUWeaponInfo@@ABU1@@Z ; std::_Construct<WeaponInfo,WeaponInfo const &>
  0000e	59		 pop	 ecx
  0000f	59		 pop	 ecx

; 281  : 	}

  00010	5d		 pop	 ebp
  00011	c3		 ret	 0
??$_Cons_val@V?$allocator@UWeaponInfo@@@std@@UWeaponInfo@@ABU3@@std@@YAXAAV?$allocator@UWeaponInfo@@@0@PAUWeaponInfo@@ABU2@@Z ENDP ; std::_Cons_val<std::allocator<WeaponInfo>,WeaponInfo,WeaponInfo const &>
_TEXT	ENDS
PUBLIC	??$_Rotate@PAUKeyMapEffect@ioCrecendoSkill@@HU12@@std@@YAXPAUKeyMapEffect@ioCrecendoSkill@@00PAH0@Z ; std::_Rotate<ioCrecendoSkill::KeyMapEffect *,int,ioCrecendoSkill::KeyMapEffect>
; Function compile flags: /Ogsp
; File c:\program files (x86)\microsoft visual studio 10.0\vc\include\xutility
;	COMDAT ??$_Rotate@PAUKeyMapEffect@ioCrecendoSkill@@HU12@@std@@YAXPAUKeyMapEffect@ioCrecendoSkill@@00PAH0@Z
_TEXT	SEGMENT
__Count$ = -4						; size = 4
__First$ = 8						; size = 4
tv258 = 12						; size = 4
__Mid$ = 12						; size = 4
__Last$ = 16						; size = 4
___formal$ = 20						; size = 4
___formal$ = 24						; size = 4
??$_Rotate@PAUKeyMapEffect@ioCrecendoSkill@@HU12@@std@@YAXPAUKeyMapEffect@ioCrecendoSkill@@00PAH0@Z PROC ; std::_Rotate<ioCrecendoSkill::KeyMapEffect *,int,ioCrecendoSkill::KeyMapEffect>, COMDAT

; 3256 : 	{	// rotate [_First, _Last), random-access iterators

  00000	55		 push	 ebp
  00001	8b ec		 mov	 ebp, esp
  00003	51		 push	 ecx

; 3257 : 	_Diff _Shift = _Mid - _First;
; 3258 : 	_Diff _Count = _Last - _First;

  00004	8b 4d 10	 mov	 ecx, DWORD PTR __Last$[ebp]
  00007	53		 push	 ebx
  00008	8b 5d 08	 mov	 ebx, DWORD PTR __First$[ebp]
  0000b	56		 push	 esi
  0000c	8b 75 0c	 mov	 esi, DWORD PTR __Mid$[ebp]
  0000f	2b f3		 sub	 esi, ebx
  00011	2b cb		 sub	 ecx, ebx
  00013	c1 fe 03	 sar	 esi, 3
  00016	c1 f9 03	 sar	 ecx, 3
  00019	57		 push	 edi
  0001a	8b c1		 mov	 eax, ecx
  0001c	89 4d fc	 mov	 DWORD PTR __Count$[ebp], ecx

; 3259 : 
; 3260 : 	for (_Diff _Factor = _Shift; _Factor != 0; )

  0001f	8b fe		 mov	 edi, esi
  00021	85 f6		 test	 esi, esi
  00023	74 0e		 je	 SHORT $LN8@Rotate
$LL9@Rotate:

; 3261 : 		{	// find subcycle count as GCD of shift count and length
; 3262 : 		_Diff _Tmp = _Count % _Factor;

  00025	99		 cdq
  00026	f7 ff		 idiv	 edi

; 3263 : 		_Count = _Factor;

  00028	8b c7		 mov	 eax, edi

; 3264 : 		_Factor = _Tmp;

  0002a	8b fa		 mov	 edi, edx
  0002c	85 d2		 test	 edx, edx
  0002e	75 f5		 jne	 SHORT $LL9@Rotate

; 3263 : 		_Count = _Factor;

  00030	89 45 fc	 mov	 DWORD PTR __Count$[ebp], eax
$LN8@Rotate:

; 3265 : 		}
; 3266 : 
; 3267 : 	if (_Count < _Last - _First)

  00033	3b c1		 cmp	 eax, ecx
  00035	7d 5f		 jge	 SHORT $LN4@Rotate

; 3268 : 		for (; 0 < _Count; --_Count)

  00037	85 c0		 test	 eax, eax
  00039	7e 5b		 jle	 SHORT $LN4@Rotate
  0003b	8d 04 c3	 lea	 eax, DWORD PTR [ebx+eax*8]
  0003e	89 45 0c	 mov	 DWORD PTR tv258[ebp], eax
$LL34@Rotate:

; 3269 : 			{	// rotate each subcycle
; 3270 : 			_RanIt _Hole = _First + _Count;
; 3271 : 			_RanIt _Next = _Hole;

  00041	8b 4d 0c	 mov	 ecx, DWORD PTR tv258[ebp]
  00044	8b d1		 mov	 edx, ecx

; 3272 : 			_RanIt _Next1 = _Next + _Shift == _Last ? _First : _Next + _Shift;

  00046	8d 0c f1	 lea	 ecx, DWORD PTR [ecx+esi*8]
  00049	3b 4d 10	 cmp	 ecx, DWORD PTR __Last$[ebp]
  0004c	75 03		 jne	 SHORT $LL12@Rotate
  0004e	8b 4d 08	 mov	 ecx, DWORD PTR __First$[ebp]
$LL12@Rotate:

; 3273 : 			for (; ; )
; 3274 : 				{	// percolate elements back around subcycle
; 3275 : 				iter_swap(_Next, _Next1);

  00051	8b 3a		 mov	 edi, DWORD PTR [edx]
  00053	8b 19		 mov	 ebx, DWORD PTR [ecx]
  00055	8b 42 04	 mov	 eax, DWORD PTR [edx+4]
  00058	89 1a		 mov	 DWORD PTR [edx], ebx
  0005a	8b 59 04	 mov	 ebx, DWORD PTR [ecx+4]
  0005d	89 5a 04	 mov	 DWORD PTR [edx+4], ebx
  00060	89 39		 mov	 DWORD PTR [ecx], edi

; 3276 : 				_Next = _Next1;
; 3277 : 				_Next1 = _Shift < _Last - _Next1 ? _Next1 + _Shift
; 3278 : 					: _First + (_Shift - (_Last - _Next1));

  00062	8b 7d 10	 mov	 edi, DWORD PTR __Last$[ebp]
  00065	2b f9		 sub	 edi, ecx
  00067	c1 ff 03	 sar	 edi, 3
  0006a	89 41 04	 mov	 DWORD PTR [ecx+4], eax
  0006d	8b d1		 mov	 edx, ecx
  0006f	8b c6		 mov	 eax, esi
  00071	3b f7		 cmp	 esi, edi
  00073	7d 07		 jge	 SHORT $LN14@Rotate
  00075	c1 e0 03	 shl	 eax, 3
  00078	03 c8		 add	 ecx, eax
  0007a	eb 08		 jmp	 SHORT $LN15@Rotate
$LN14@Rotate:
  0007c	8b 4d 08	 mov	 ecx, DWORD PTR __First$[ebp]
  0007f	2b c7		 sub	 eax, edi
  00081	8d 0c c1	 lea	 ecx, DWORD PTR [ecx+eax*8]
$LN15@Rotate:

; 3279 : 				if (_Next1 == _Hole)

  00084	3b 4d 0c	 cmp	 ecx, DWORD PTR tv258[ebp]
  00087	75 c8		 jne	 SHORT $LL12@Rotate

; 3268 : 		for (; 0 < _Count; --_Count)

  00089	ff 4d fc	 dec	 DWORD PTR __Count$[ebp]
  0008c	83 6d 0c 08	 sub	 DWORD PTR tv258[ebp], 8
  00090	83 7d fc 00	 cmp	 DWORD PTR __Count$[ebp], 0
  00094	7f ab		 jg	 SHORT $LL34@Rotate
$LN4@Rotate:
  00096	5f		 pop	 edi
  00097	5e		 pop	 esi
  00098	5b		 pop	 ebx

; 3280 : 					break;
; 3281 : 				}
; 3282 : 			}
; 3283 : 	}

  00099	c9		 leave
  0009a	c3		 ret	 0
??$_Rotate@PAUKeyMapEffect@ioCrecendoSkill@@HU12@@std@@YAXPAUKeyMapEffect@ioCrecendoSkill@@00PAH0@Z ENDP ; std::_Rotate<ioCrecendoSkill::KeyMapEffect *,int,ioCrecendoSkill::KeyMapEffect>
_TEXT	ENDS
PUBLIC	??$_Destroy_range@V?$allocator@UForceInfo@@@std@@@std@@YAXPAUForceInfo@@0AAV?$allocator@UForceInfo@@@0@U_Nonscalar_ptr_iterator_tag@0@@Z ; std::_Destroy_range<std::allocator<ForceInfo> >
; Function compile flags: /Ogsp
; File c:\program files (x86)\microsoft visual studio 10.0\vc\include\xmemory
;	COMDAT ??$_Destroy_range@V?$allocator@UForceInfo@@@std@@@std@@YAXPAUForceInfo@@0AAV?$allocator@UForceInfo@@@0@U_Nonscalar_ptr_iterator_tag@0@@Z
_TEXT	SEGMENT
__First$ = 8						; size = 4
__Last$ = 12						; size = 4
__Al$ = 16						; size = 4
___formal$ = 20						; size = 1
??$_Destroy_range@V?$allocator@UForceInfo@@@std@@@std@@YAXPAUForceInfo@@0AAV?$allocator@UForceInfo@@@0@U_Nonscalar_ptr_iterator_tag@0@@Z PROC ; std::_Destroy_range<std::allocator<ForceInfo> >, COMDAT

; 96   : 	for (; _First != _Last; ++_First)
; 97   : 		_Dest_val(_Al, _First);
; 98   : 	}

  00000	c3		 ret	 0
??$_Destroy_range@V?$allocator@UForceInfo@@@std@@@std@@YAXPAUForceInfo@@0AAV?$allocator@UForceInfo@@@0@U_Nonscalar_ptr_iterator_tag@0@@Z ENDP ; std::_Destroy_range<std::allocator<ForceInfo> >
_TEXT	ENDS
PUBLIC	??$_Dest_val@V?$allocator@UWeaponInfo@@@std@@UWeaponInfo@@@std@@YAXAAV?$allocator@UWeaponInfo@@@0@PAUWeaponInfo@@@Z ; std::_Dest_val<std::allocator<WeaponInfo>,WeaponInfo>
; Function compile flags: /Ogsp
;	COMDAT ??$_Dest_val@V?$allocator@UWeaponInfo@@@std@@UWeaponInfo@@@std@@YAXAAV?$allocator@UWeaponInfo@@@0@PAUWeaponInfo@@@Z
_TEXT	SEGMENT
__Alval$ = 8						; size = 4
__Pdest$ = 12						; size = 4
??$_Dest_val@V?$allocator@UWeaponInfo@@@std@@UWeaponInfo@@@std@@YAXAAV?$allocator@UWeaponInfo@@@0@PAUWeaponInfo@@@Z PROC ; std::_Dest_val<std::allocator<WeaponInfo>,WeaponInfo>, COMDAT

; 286  : 	{	// destroy using allocator

  00000	55		 push	 ebp
  00001	8b ec		 mov	 ebp, esp

; 287  : 	_Alval.destroy(_Pdest);

  00003	8b 4d 0c	 mov	 ecx, DWORD PTR __Pdest$[ebp]
  00006	83 c1 08	 add	 ecx, 8

; 288  : 	}

  00009	5d		 pop	 ebp

; 287  : 	_Alval.destroy(_Pdest);

  0000a	ff 25 00 00 00
	00		 jmp	 DWORD PTR __imp_??1ioHashString@@QAE@XZ
??$_Dest_val@V?$allocator@UWeaponInfo@@@std@@UWeaponInfo@@@std@@YAXAAV?$allocator@UWeaponInfo@@@0@PAUWeaponInfo@@@Z ENDP ; std::_Dest_val<std::allocator<WeaponInfo>,WeaponInfo>
_TEXT	ENDS
PUBLIC	??$_Destroy_range@V?$allocator@UKeyMapEffect@ioCrecendoSkill@@@std@@@std@@YAXPAUKeyMapEffect@ioCrecendoSkill@@0AAV?$allocator@UKeyMapEffect@ioCrecendoSkill@@@0@@Z ; std::_Destroy_range<std::allocator<ioCrecendoSkill::KeyMapEffect> >
; Function compile flags: /Ogsp
;	COMDAT ??$_Destroy_range@V?$allocator@UKeyMapEffect@ioCrecendoSkill@@@std@@@std@@YAXPAUKeyMapEffect@ioCrecendoSkill@@0AAV?$allocator@UKeyMapEffect@ioCrecendoSkill@@@0@@Z
_TEXT	SEGMENT
__First$ = 8						; size = 4
__Last$ = 12						; size = 4
__Al$ = 16						; size = 4
??$_Destroy_range@V?$allocator@UKeyMapEffect@ioCrecendoSkill@@@std@@@std@@YAXPAUKeyMapEffect@ioCrecendoSkill@@0AAV?$allocator@UKeyMapEffect@ioCrecendoSkill@@@0@@Z PROC ; std::_Destroy_range<std::allocator<ioCrecendoSkill::KeyMapEffect> >, COMDAT

; 88   : 	_Destroy_range(_First, _Last, _Al, _Ptr_cat(_First, _Last));
; 89   : 	}

  00000	c3		 ret	 0
??$_Destroy_range@V?$allocator@UKeyMapEffect@ioCrecendoSkill@@@std@@@std@@YAXPAUKeyMapEffect@ioCrecendoSkill@@0AAV?$allocator@UKeyMapEffect@ioCrecendoSkill@@@0@@Z ENDP ; std::_Destroy_range<std::allocator<ioCrecendoSkill::KeyMapEffect> >
_TEXT	ENDS
PUBLIC	??$_Uninitialized_copy@V?$_Vector_const_iterator@V?$_Vector_val@UForceInfo@@V?$allocator@UForceInfo@@@std@@@std@@@std@@PAUForceInfo@@V?$allocator@UForceInfo@@@2@@std@@YAPAUForceInfo@@V?$_Vector_const_iterator@V?$_Vector_val@UForceInfo@@V?$allocator@UForceInfo@@@std@@@std@@@0@0PAU1@AAV?$allocator@UForceInfo@@@0@@Z ; std::_Uninitialized_copy<std::_Vector_const_iterator<std::_Vector_val<ForceInfo,std::allocator<ForceInfo> > >,ForceInfo *,std::allocator<ForceInfo> >
; Function compile flags: /Ogsp
; File c:\program files (x86)\microsoft visual studio 10.0\vc\include\memory
;	COMDAT ??$_Uninitialized_copy@V?$_Vector_const_iterator@V?$_Vector_val@UForceInfo@@V?$allocator@UForceInfo@@@std@@@std@@@std@@PAUForceInfo@@V?$allocator@UForceInfo@@@2@@std@@YAPAUForceInfo@@V?$_Vector_const_iterator@V?$_Vector_val@UForceInfo@@V?$allocator@UForceInfo@@@std@@@std@@@0@0PAU1@AAV?$allocator@UForceInfo@@@0@@Z
_TEXT	SEGMENT
__Cat$541581 = -4					; size = 1
__First$ = 8						; size = 4
__Last$ = 12						; size = 4
__Dest$ = 16						; size = 4
__Al$ = 20						; size = 4
??$_Uninitialized_copy@V?$_Vector_const_iterator@V?$_Vector_val@UForceInfo@@V?$allocator@UForceInfo@@@std@@@std@@@std@@PAUForceInfo@@V?$allocator@UForceInfo@@@2@@std@@YAPAUForceInfo@@V?$_Vector_const_iterator@V?$_Vector_val@UForceInfo@@V?$allocator@UForceInfo@@@std@@@std@@@0@0PAU1@AAV?$allocator@UForceInfo@@@0@@Z PROC ; std::_Uninitialized_copy<std::_Vector_const_iterator<std::_Vector_val<ForceInfo,std::allocator<ForceInfo> > >,ForceInfo *,std::allocator<ForceInfo> >, COMDAT

; 412  : 	{	// copy [_First, _Last) to raw _Dest, using _Al

  00000	55		 push	 ebp
  00001	8b ec		 mov	 ebp, esp
  00003	51		 push	 ecx

; 413  : 	return (_Uninit_copy(_First, _Last, _Dest, _Al,
; 414  : 		_Ptr_cat(_First, _Dest)));

  00004	ff 75 fc	 push	 DWORD PTR __Cat$541581[ebp]
  00007	ff 75 14	 push	 DWORD PTR __Al$[ebp]
  0000a	ff 75 10	 push	 DWORD PTR __Dest$[ebp]
  0000d	ff 75 0c	 push	 DWORD PTR __Last$[ebp]
  00010	ff 75 08	 push	 DWORD PTR __First$[ebp]
  00013	e8 00 00 00 00	 call	 ??$_Uninit_copy@V?$_Vector_const_iterator@V?$_Vector_val@UForceInfo@@V?$allocator@UForceInfo@@@std@@@std@@@std@@PAUForceInfo@@V?$allocator@UForceInfo@@@2@@std@@YAPAUForceInfo@@V?$_Vector_const_iterator@V?$_Vector_val@UForceInfo@@V?$allocator@UForceInfo@@@std@@@std@@@0@0PAU1@AAV?$allocator@UForceInfo@@@0@U_Nonscalar_ptr_iterator_tag@0@@Z ; std::_Uninit_copy<std::_Vector_const_iterator<std::_Vector_val<ForceInfo,std::allocator<ForceInfo> > >,ForceInfo *,std::allocator<ForceInfo> >
  00018	83 c4 14	 add	 esp, 20			; 00000014H

; 415  : 	}

  0001b	c9		 leave
  0001c	c3		 ret	 0
??$_Uninitialized_copy@V?$_Vector_const_iterator@V?$_Vector_val@UForceInfo@@V?$allocator@UForceInfo@@@std@@@std@@@std@@PAUForceInfo@@V?$allocator@UForceInfo@@@2@@std@@YAPAUForceInfo@@V?$_Vector_const_iterator@V?$_Vector_val@UForceInfo@@V?$allocator@UForceInfo@@@std@@@std@@@0@0PAU1@AAV?$allocator@UForceInfo@@@0@@Z ENDP ; std::_Uninitialized_copy<std::_Vector_const_iterator<std::_Vector_val<ForceInfo,std::allocator<ForceInfo> > >,ForceInfo *,std::allocator<ForceInfo> >
_TEXT	ENDS
PUBLIC	??$_Uninitialized_move@PAUKeyMapEffect@ioCrecendoSkill@@PAU12@V?$allocator@UKeyMapEffect@ioCrecendoSkill@@@std@@@std@@YAPAUKeyMapEffect@ioCrecendoSkill@@PAU12@00AAV?$allocator@UKeyMapEffect@ioCrecendoSkill@@@0@@Z ; std::_Uninitialized_move<ioCrecendoSkill::KeyMapEffect *,ioCrecendoSkill::KeyMapEffect *,std::allocator<ioCrecendoSkill::KeyMapEffect> >
; Function compile flags: /Ogsp
;	COMDAT ??$_Uninitialized_move@PAUKeyMapEffect@ioCrecendoSkill@@PAU12@V?$allocator@UKeyMapEffect@ioCrecendoSkill@@@std@@@std@@YAPAUKeyMapEffect@ioCrecendoSkill@@PAU12@00AAV?$allocator@UKeyMapEffect@ioCrecendoSkill@@@0@@Z
_TEXT	SEGMENT
__Cat$541588 = -4					; size = 1
__First$ = 8						; size = 4
__Last$ = 12						; size = 4
__Dest$ = 16						; size = 4
__Al$ = 20						; size = 4
??$_Uninitialized_move@PAUKeyMapEffect@ioCrecendoSkill@@PAU12@V?$allocator@UKeyMapEffect@ioCrecendoSkill@@@std@@@std@@YAPAUKeyMapEffect@ioCrecendoSkill@@PAU12@00AAV?$allocator@UKeyMapEffect@ioCrecendoSkill@@@0@@Z PROC ; std::_Uninitialized_move<ioCrecendoSkill::KeyMapEffect *,ioCrecendoSkill::KeyMapEffect *,std::allocator<ioCrecendoSkill::KeyMapEffect> >, COMDAT

; 469  : 	{	// move [_First, _Last) to raw _Dest, using _Al

  00000	55		 push	 ebp
  00001	8b ec		 mov	 ebp, esp
  00003	51		 push	 ecx

; 470  : 	return (_Uninit_move(_First, _Last, _Dest, _Al,
; 471  : 		_Val_type(_First), _Ptr_cat(_First, _Dest)));

  00004	ff 75 fc	 push	 DWORD PTR __Cat$541588[ebp]
  00007	6a 00		 push	 0
  00009	ff 75 14	 push	 DWORD PTR __Al$[ebp]
  0000c	ff 75 10	 push	 DWORD PTR __Dest$[ebp]
  0000f	ff 75 0c	 push	 DWORD PTR __Last$[ebp]
  00012	ff 75 08	 push	 DWORD PTR __First$[ebp]
  00015	e8 00 00 00 00	 call	 ??$_Uninit_move@PAUKeyMapEffect@ioCrecendoSkill@@PAU12@V?$allocator@UKeyMapEffect@ioCrecendoSkill@@@std@@U12@@std@@YAPAUKeyMapEffect@ioCrecendoSkill@@PAU12@00AAV?$allocator@UKeyMapEffect@ioCrecendoSkill@@@0@0U_Nonscalar_ptr_iterator_tag@0@@Z ; std::_Uninit_move<ioCrecendoSkill::KeyMapEffect *,ioCrecendoSkill::KeyMapEffect *,std::allocator<ioCrecendoSkill::KeyMapEffect>,ioCrecendoSkill::KeyMapEffect>
  0001a	83 c4 18	 add	 esp, 24			; 00000018H

; 472  : 	}

  0001d	c9		 leave
  0001e	c3		 ret	 0
??$_Uninitialized_move@PAUKeyMapEffect@ioCrecendoSkill@@PAU12@V?$allocator@UKeyMapEffect@ioCrecendoSkill@@@std@@@std@@YAPAUKeyMapEffect@ioCrecendoSkill@@PAU12@00AAV?$allocator@UKeyMapEffect@ioCrecendoSkill@@@0@@Z ENDP ; std::_Uninitialized_move<ioCrecendoSkill::KeyMapEffect *,ioCrecendoSkill::KeyMapEffect *,std::allocator<ioCrecendoSkill::KeyMapEffect> >
_TEXT	ENDS
PUBLIC	??$_Uninit_copy@V?$_Vector_const_iterator@V?$_Vector_val@UWeaponInfo@@V?$allocator@UWeaponInfo@@@std@@@std@@@std@@PAUWeaponInfo@@V?$allocator@UWeaponInfo@@@2@@std@@YAPAUWeaponInfo@@V?$_Vector_const_iterator@V?$_Vector_val@UWeaponInfo@@V?$allocator@UWeaponInfo@@@std@@@std@@@0@0PAU1@AAV?$allocator@UWeaponInfo@@@0@U_Nonscalar_ptr_iterator_tag@0@@Z ; std::_Uninit_copy<std::_Vector_const_iterator<std::_Vector_val<WeaponInfo,std::allocator<WeaponInfo> > >,WeaponInfo *,std::allocator<WeaponInfo> >
EXTRN	__EH_prolog3_catch:PROC
;	COMDAT xdata$x
; File d:\lost saga for developer\youtube\tutorial\source\src\lsclient\playentityhelpstruct.h
xdata$x	SEGMENT
__catchsym$??$_Uninit_copy@V?$_Vector_const_iterator@V?$_Vector_val@UWeaponInfo@@V?$allocator@UWeaponInfo@@@std@@@std@@@std@@PAUWeaponInfo@@V?$allocator@UWeaponInfo@@@2@@std@@YAPAUWeaponInfo@@V?$_Vector_const_iterator@V?$_Vector_val@UWeaponInfo@@V?$allocator@UWeaponInfo@@@std@@@std@@@0@0PAU1@AAV?$allocator@UWeaponInfo@@@0@U_Nonscalar_ptr_iterator_tag@0@@Z$3 DD 040H
	DD	00H
	DD	00H
	DD	FLAT:__catch$??$_Uninit_copy@V?$_Vector_const_iterator@V?$_Vector_val@UWeaponInfo@@V?$allocator@UWeaponInfo@@@std@@@std@@@std@@PAUWeaponInfo@@V?$allocator@UWeaponInfo@@@2@@std@@YAPAUWeaponInfo@@V?$_Vector_const_iterator@V?$_Vector_val@UWeaponInfo@@V?$allocator@UWeaponInfo@@@std@@@std@@@0@0PAU1@AAV?$allocator@UWeaponInfo@@@0@U_Nonscalar_ptr_iterator_tag@0@@Z$0
__unwindtable$??$_Uninit_copy@V?$_Vector_const_iterator@V?$_Vector_val@UWeaponInfo@@V?$allocator@UWeaponInfo@@@std@@@std@@@std@@PAUWeaponInfo@@V?$allocator@UWeaponInfo@@@2@@std@@YAPAUWeaponInfo@@V?$_Vector_const_iterator@V?$_Vector_val@UWeaponInfo@@V?$allocator@UWeaponInfo@@@std@@@std@@@0@0PAU1@AAV?$allocator@UWeaponInfo@@@0@U_Nonscalar_ptr_iterator_tag@0@@Z DD 0ffffffffH
	DD	00H
	DD	0ffffffffH
	DD	00H
__tryblocktable$??$_Uninit_copy@V?$_Vector_const_iterator@V?$_Vector_val@UWeaponInfo@@V?$allocator@UWeaponInfo@@@std@@@std@@@std@@PAUWeaponInfo@@V?$allocator@UWeaponInfo@@@2@@std@@YAPAUWeaponInfo@@V?$_Vector_const_iterator@V?$_Vector_val@UWeaponInfo@@V?$allocator@UWeaponInfo@@@std@@@std@@@0@0PAU1@AAV?$allocator@UWeaponInfo@@@0@U_Nonscalar_ptr_iterator_tag@0@@Z DD 00H
	DD	00H
	DD	01H
	DD	01H
	DD	FLAT:__catchsym$??$_Uninit_copy@V?$_Vector_const_iterator@V?$_Vector_val@UWeaponInfo@@V?$allocator@UWeaponInfo@@@std@@@std@@@std@@PAUWeaponInfo@@V?$allocator@UWeaponInfo@@@2@@std@@YAPAUWeaponInfo@@V?$_Vector_const_iterator@V?$_Vector_val@UWeaponInfo@@V?$allocator@UWeaponInfo@@@std@@@std@@@0@0PAU1@AAV?$allocator@UWeaponInfo@@@0@U_Nonscalar_ptr_iterator_tag@0@@Z$3
__ehfuncinfo$??$_Uninit_copy@V?$_Vector_const_iterator@V?$_Vector_val@UWeaponInfo@@V?$allocator@UWeaponInfo@@@std@@@std@@@std@@PAUWeaponInfo@@V?$allocator@UWeaponInfo@@@2@@std@@YAPAUWeaponInfo@@V?$_Vector_const_iterator@V?$_Vector_val@UWeaponInfo@@V?$allocator@UWeaponInfo@@@std@@@std@@@0@0PAU1@AAV?$allocator@UWeaponInfo@@@0@U_Nonscalar_ptr_iterator_tag@0@@Z DD 019930522H
	DD	02H
	DD	FLAT:__unwindtable$??$_Uninit_copy@V?$_Vector_const_iterator@V?$_Vector_val@UWeaponInfo@@V?$allocator@UWeaponInfo@@@std@@@std@@@std@@PAUWeaponInfo@@V?$allocator@UWeaponInfo@@@2@@std@@YAPAUWeaponInfo@@V?$_Vector_const_iterator@V?$_Vector_val@UWeaponInfo@@V?$allocator@UWeaponInfo@@@std@@@std@@@0@0PAU1@AAV?$allocator@UWeaponInfo@@@0@U_Nonscalar_ptr_iterator_tag@0@@Z
	DD	01H
	DD	FLAT:__tryblocktable$??$_Uninit_copy@V?$_Vector_const_iterator@V?$_Vector_val@UWeaponInfo@@V?$allocator@UWeaponInfo@@@std@@@std@@@std@@PAUWeaponInfo@@V?$allocator@UWeaponInfo@@@2@@std@@YAPAUWeaponInfo@@V?$_Vector_const_iterator@V?$_Vector_val@UWeaponInfo@@V?$allocator@UWeaponInfo@@@std@@@std@@@0@0PAU1@AAV?$allocator@UWeaponInfo@@@0@U_Nonscalar_ptr_iterator_tag@0@@Z
	DD	2 DUP(00H)
	DD	00H
	DD	01H
; Function compile flags: /Ogsp
; File c:\program files (x86)\microsoft visual studio 10.0\vc\include\memory
xdata$x	ENDS
;	COMDAT ??$_Uninit_copy@V?$_Vector_const_iterator@V?$_Vector_val@UWeaponInfo@@V?$allocator@UWeaponInfo@@@std@@@std@@@std@@PAUWeaponInfo@@V?$allocator@UWeaponInfo@@@2@@std@@YAPAUWeaponInfo@@V?$_Vector_const_iterator@V?$_Vector_val@UWeaponInfo@@V?$allocator@UWeaponInfo@@@std@@@std@@@0@0PAU1@AAV?$allocator@UWeaponInfo@@@0@U_Nonscalar_ptr_iterator_tag@0@@Z
_TEXT	SEGMENT
__Next$ = -20						; size = 4
__$EHRec$ = -16						; size = 16
__First$ = 8						; size = 4
__Last$ = 12						; size = 4
__Dest$ = 16						; size = 4
__Al$ = 20						; size = 4
___formal$ = 24						; size = 1
??$_Uninit_copy@V?$_Vector_const_iterator@V?$_Vector_val@UWeaponInfo@@V?$allocator@UWeaponInfo@@@std@@@std@@@std@@PAUWeaponInfo@@V?$allocator@UWeaponInfo@@@2@@std@@YAPAUWeaponInfo@@V?$_Vector_const_iterator@V?$_Vector_val@UWeaponInfo@@V?$allocator@UWeaponInfo@@@std@@@std@@@0@0PAU1@AAV?$allocator@UWeaponInfo@@@0@U_Nonscalar_ptr_iterator_tag@0@@Z PROC ; std::_Uninit_copy<std::_Vector_const_iterator<std::_Vector_val<WeaponInfo,std::allocator<WeaponInfo> > >,WeaponInfo *,std::allocator<WeaponInfo> >, COMDAT

; 369  : 	{	// copy [_First, _Last) to raw _Dest, using _Al, arbitrary type

  00000	6a 08		 push	 8
  00002	b8 00 00 00 00	 mov	 eax, __ehhandler$??$_Uninit_copy@V?$_Vector_const_iterator@V?$_Vector_val@UWeaponInfo@@V?$allocator@UWeaponInfo@@@std@@@std@@@std@@PAUWeaponInfo@@V?$allocator@UWeaponInfo@@@2@@std@@YAPAUWeaponInfo@@V?$_Vector_const_iterator@V?$_Vector_val@UWeaponInfo@@V?$allocator@UWeaponInfo@@@std@@@std@@@0@0PAU1@AAV?$allocator@UWeaponInfo@@@0@U_Nonscalar_ptr_iterator_tag@0@@Z
  00007	e8 00 00 00 00	 call	 __EH_prolog3_catch

; 370  : 	_DEBUG_RANGE(_First, _Last);
; 371  : 	_DEBUG_POINTER(_Dest);
; 372  : 	_FwdIt _Next = _Dest;

  0000c	8b 45 10	 mov	 eax, DWORD PTR __Dest$[ebp]

; 373  : 
; 374  : 	_TRY_BEGIN

  0000f	83 65 fc 00	 and	 DWORD PTR __$EHRec$[ebp+12], 0
  00013	89 45 ec	 mov	 DWORD PTR __Next$[ebp], eax

; 375  : 	for (; _First != _Last; ++_Dest, ++_First)

$LL14@Uninit_cop@2:
  00016	8b 45 08	 mov	 eax, DWORD PTR __First$[ebp]
  00019	3b 45 0c	 cmp	 eax, DWORD PTR __Last$[ebp]
  0001c	74 34		 je	 SHORT $LN4@Uninit_cop@2

; 376  : 		_Cons_val(_Al, _Dest, *_First);

  0001e	50		 push	 eax
  0001f	ff 75 10	 push	 DWORD PTR __Dest$[ebp]
  00022	e8 00 00 00 00	 call	 ??$_Construct@UWeaponInfo@@ABU1@@std@@YAXPAUWeaponInfo@@ABU1@@Z ; std::_Construct<WeaponInfo,WeaponInfo const &>
  00027	83 45 10 28	 add	 DWORD PTR __Dest$[ebp], 40 ; 00000028H
  0002b	83 45 08 28	 add	 DWORD PTR __First$[ebp], 40 ; 00000028H
  0002f	59		 pop	 ecx
  00030	59		 pop	 ecx
  00031	eb e3		 jmp	 SHORT $LL14@Uninit_cop@2
__catch$??$_Uninit_copy@V?$_Vector_const_iterator@V?$_Vector_val@UWeaponInfo@@V?$allocator@UWeaponInfo@@@std@@@std@@@std@@PAUWeaponInfo@@V?$allocator@UWeaponInfo@@@2@@std@@YAPAUWeaponInfo@@V?$_Vector_const_iterator@V?$_Vector_val@UWeaponInfo@@V?$allocator@UWeaponInfo@@@std@@@std@@@0@0PAU1@AAV?$allocator@UWeaponInfo@@@0@U_Nonscalar_ptr_iterator_tag@0@@Z$0:

; 377  : 	_CATCH_ALL
; 378  : 	for (; _Next != _Dest; ++_Next)

  00033	8b 75 ec	 mov	 esi, DWORD PTR __Next$[ebp]
  00036	eb 0c		 jmp	 SHORT $LN48@Uninit_cop@2
$LL3@Uninit_cop@2:

; 379  : 		_Dest_val(_Al, _Next);

  00038	8d 4e 08	 lea	 ecx, DWORD PTR [esi+8]
  0003b	ff 15 00 00 00
	00		 call	 DWORD PTR __imp_??1ioHashString@@QAE@XZ
  00041	83 c6 28	 add	 esi, 40			; 00000028H
$LN48@Uninit_cop@2:

; 377  : 	_CATCH_ALL
; 378  : 	for (; _Next != _Dest; ++_Next)

  00044	3b 75 10	 cmp	 esi, DWORD PTR __Dest$[ebp]
  00047	75 ef		 jne	 SHORT $LL3@Uninit_cop@2

; 380  : 	_RERAISE;

  00049	6a 00		 push	 0
  0004b	6a 00		 push	 0
  0004d	e8 00 00 00 00	 call	 __CxxThrowException@8
$LN49@Uninit_cop@2:
$LN4@Uninit_cop@2:

; 381  : 	_CATCH_END
; 382  : 	return (_Dest);

  00052	8b 45 10	 mov	 eax, DWORD PTR __Dest$[ebp]

; 383  : 	}

  00055	e8 00 00 00 00	 call	 __EH_epilog3
  0005a	c3		 ret	 0
$LN47@Uninit_cop@2:
_TEXT	ENDS
;	COMDAT text$x
text$x	SEGMENT
__ehhandler$??$_Uninit_copy@V?$_Vector_const_iterator@V?$_Vector_val@UWeaponInfo@@V?$allocator@UWeaponInfo@@@std@@@std@@@std@@PAUWeaponInfo@@V?$allocator@UWeaponInfo@@@2@@std@@YAPAUWeaponInfo@@V?$_Vector_const_iterator@V?$_Vector_val@UWeaponInfo@@V?$allocator@UWeaponInfo@@@std@@@std@@@0@0PAU1@AAV?$allocator@UWeaponInfo@@@0@U_Nonscalar_ptr_iterator_tag@0@@Z:
  00000	8b 54 24 08	 mov	 edx, DWORD PTR [esp+8]
  00004	8d 42 0c	 lea	 eax, DWORD PTR [edx+12]
  00007	8b 4a e8	 mov	 ecx, DWORD PTR [edx-24]
  0000a	33 c8		 xor	 ecx, eax
  0000c	e8 00 00 00 00	 call	 @__security_check_cookie@4
  00011	b8 00 00 00 00	 mov	 eax, OFFSET __ehfuncinfo$??$_Uninit_copy@V?$_Vector_const_iterator@V?$_Vector_val@UWeaponInfo@@V?$allocator@UWeaponInfo@@@std@@@std@@@std@@PAUWeaponInfo@@V?$allocator@UWeaponInfo@@@2@@std@@YAPAUWeaponInfo@@V?$_Vector_const_iterator@V?$_Vector_val@UWeaponInfo@@V?$allocator@UWeaponInfo@@@std@@@std@@@0@0PAU1@AAV?$allocator@UWeaponInfo@@@0@U_Nonscalar_ptr_iterator_tag@0@@Z
  00016	e9 00 00 00 00	 jmp	 ___CxxFrameHandler3
text$x	ENDS
??$_Uninit_copy@V?$_Vector_const_iterator@V?$_Vector_val@UWeaponInfo@@V?$allocator@UWeaponInfo@@@std@@@std@@@std@@PAUWeaponInfo@@V?$allocator@UWeaponInfo@@@2@@std@@YAPAUWeaponInfo@@V?$_Vector_const_iterator@V?$_Vector_val@UWeaponInfo@@V?$allocator@UWeaponInfo@@@std@@@std@@@0@0PAU1@AAV?$allocator@UWeaponInfo@@@0@U_Nonscalar_ptr_iterator_tag@0@@Z ENDP ; std::_Uninit_copy<std::_Vector_const_iterator<std::_Vector_val<WeaponInfo,std::allocator<WeaponInfo> > >,WeaponInfo *,std::allocator<WeaponInfo> >
PUBLIC	??$_Rotate@PAUKeyMapEffect@ioCrecendoSkill@@@std@@YAXPAUKeyMapEffect@ioCrecendoSkill@@00Urandom_access_iterator_tag@0@@Z ; std::_Rotate<ioCrecendoSkill::KeyMapEffect *>
; Function compile flags: /Ogsp
; File c:\program files (x86)\microsoft visual studio 10.0\vc\include\xutility
;	COMDAT ??$_Rotate@PAUKeyMapEffect@ioCrecendoSkill@@@std@@YAXPAUKeyMapEffect@ioCrecendoSkill@@00Urandom_access_iterator_tag@0@@Z
_TEXT	SEGMENT
__First$ = 8						; size = 4
__Mid$ = 12						; size = 4
__Last$ = 16						; size = 4
___formal$ = 20						; size = 1
??$_Rotate@PAUKeyMapEffect@ioCrecendoSkill@@@std@@YAXPAUKeyMapEffect@ioCrecendoSkill@@00Urandom_access_iterator_tag@0@@Z PROC ; std::_Rotate<ioCrecendoSkill::KeyMapEffect *>, COMDAT

; 3288 : 	{	// rotate [_First, _Last), random-access iterators

  00000	55		 push	 ebp
  00001	8b ec		 mov	 ebp, esp

; 3289 : 	_Rotate(_First, _Mid, _Last, _Dist_type(_First), _Val_type(_First));

  00003	6a 00		 push	 0
  00005	6a 00		 push	 0
  00007	ff 75 10	 push	 DWORD PTR __Last$[ebp]
  0000a	ff 75 0c	 push	 DWORD PTR __Mid$[ebp]
  0000d	ff 75 08	 push	 DWORD PTR __First$[ebp]
  00010	e8 00 00 00 00	 call	 ??$_Rotate@PAUKeyMapEffect@ioCrecendoSkill@@HU12@@std@@YAXPAUKeyMapEffect@ioCrecendoSkill@@00PAH0@Z ; std::_Rotate<ioCrecendoSkill::KeyMapEffect *,int,ioCrecendoSkill::KeyMapEffect>
  00015	83 c4 14	 add	 esp, 20			; 00000014H

; 3290 : 	}

  00018	5d		 pop	 ebp
  00019	c3		 ret	 0
??$_Rotate@PAUKeyMapEffect@ioCrecendoSkill@@@std@@YAXPAUKeyMapEffect@ioCrecendoSkill@@00Urandom_access_iterator_tag@0@@Z ENDP ; std::_Rotate<ioCrecendoSkill::KeyMapEffect *>
_TEXT	ENDS
PUBLIC	??$_Destroy_range@V?$allocator@UForceInfo@@@std@@@std@@YAXPAUForceInfo@@0AAV?$allocator@UForceInfo@@@0@@Z ; std::_Destroy_range<std::allocator<ForceInfo> >
; Function compile flags: /Ogsp
; File c:\program files (x86)\microsoft visual studio 10.0\vc\include\xmemory
;	COMDAT ??$_Destroy_range@V?$allocator@UForceInfo@@@std@@@std@@YAXPAUForceInfo@@0AAV?$allocator@UForceInfo@@@0@@Z
_TEXT	SEGMENT
__First$ = 8						; size = 4
__Last$ = 12						; size = 4
__Al$ = 16						; size = 4
??$_Destroy_range@V?$allocator@UForceInfo@@@std@@@std@@YAXPAUForceInfo@@0AAV?$allocator@UForceInfo@@@0@@Z PROC ; std::_Destroy_range<std::allocator<ForceInfo> >, COMDAT

; 88   : 	_Destroy_range(_First, _Last, _Al, _Ptr_cat(_First, _Last));
; 89   : 	}

  00000	c3		 ret	 0
??$_Destroy_range@V?$allocator@UForceInfo@@@std@@@std@@YAXPAUForceInfo@@0AAV?$allocator@UForceInfo@@@0@@Z ENDP ; std::_Destroy_range<std::allocator<ForceInfo> >
_TEXT	ENDS
PUBLIC	??$_Destroy_range@V?$allocator@UWeaponInfo@@@std@@@std@@YAXPAUWeaponInfo@@0AAV?$allocator@UWeaponInfo@@@0@U_Nonscalar_ptr_iterator_tag@0@@Z ; std::_Destroy_range<std::allocator<WeaponInfo> >
; Function compile flags: /Ogsp
;	COMDAT ??$_Destroy_range@V?$allocator@UWeaponInfo@@@std@@@std@@YAXPAUWeaponInfo@@0AAV?$allocator@UWeaponInfo@@@0@U_Nonscalar_ptr_iterator_tag@0@@Z
_TEXT	SEGMENT
__First$ = 8						; size = 4
__Last$ = 12						; size = 4
__Al$ = 16						; size = 4
___formal$ = 20						; size = 1
??$_Destroy_range@V?$allocator@UWeaponInfo@@@std@@@std@@YAXPAUWeaponInfo@@0AAV?$allocator@UWeaponInfo@@@0@U_Nonscalar_ptr_iterator_tag@0@@Z PROC ; std::_Destroy_range<std::allocator<WeaponInfo> >, COMDAT

; 95   : 	{	// destroy [_First, _Last), arbitrary type

  00000	55		 push	 ebp
  00001	8b ec		 mov	 ebp, esp
  00003	56		 push	 esi

; 96   : 	for (; _First != _Last; ++_First)

  00004	8b 75 08	 mov	 esi, DWORD PTR __First$[ebp]
  00007	eb 0c		 jmp	 SHORT $LN20@Destroy_ra
$LL3@Destroy_ra:

; 97   : 		_Dest_val(_Al, _First);

  00009	8d 4e 08	 lea	 ecx, DWORD PTR [esi+8]
  0000c	ff 15 00 00 00
	00		 call	 DWORD PTR __imp_??1ioHashString@@QAE@XZ
  00012	83 c6 28	 add	 esi, 40			; 00000028H
$LN20@Destroy_ra:

; 96   : 	for (; _First != _Last; ++_First)

  00015	3b 75 0c	 cmp	 esi, DWORD PTR __Last$[ebp]
  00018	75 ef		 jne	 SHORT $LL3@Destroy_ra
  0001a	5e		 pop	 esi

; 98   : 	}

  0001b	5d		 pop	 ebp
  0001c	c3		 ret	 0
??$_Destroy_range@V?$allocator@UWeaponInfo@@@std@@@std@@YAXPAUWeaponInfo@@0AAV?$allocator@UWeaponInfo@@@0@U_Nonscalar_ptr_iterator_tag@0@@Z ENDP ; std::_Destroy_range<std::allocator<WeaponInfo> >
_TEXT	ENDS
PUBLIC	?_Destroy@?$vector@UKeyMapEffect@ioCrecendoSkill@@V?$allocator@UKeyMapEffect@ioCrecendoSkill@@@std@@@std@@IAEXPAUKeyMapEffect@ioCrecendoSkill@@0@Z ; std::vector<ioCrecendoSkill::KeyMapEffect,std::allocator<ioCrecendoSkill::KeyMapEffect> >::_Destroy
; Function compile flags: /Ogsp
; File c:\program files (x86)\microsoft visual studio 10.0\vc\include\vector
;	COMDAT ?_Destroy@?$vector@UKeyMapEffect@ioCrecendoSkill@@V?$allocator@UKeyMapEffect@ioCrecendoSkill@@@std@@@std@@IAEXPAUKeyMapEffect@ioCrecendoSkill@@0@Z
_TEXT	SEGMENT
__First$ = 8						; size = 4
__Last$ = 12						; size = 4
?_Destroy@?$vector@UKeyMapEffect@ioCrecendoSkill@@V?$allocator@UKeyMapEffect@ioCrecendoSkill@@@std@@@std@@IAEXPAUKeyMapEffect@ioCrecendoSkill@@0@Z PROC ; std::vector<ioCrecendoSkill::KeyMapEffect,std::allocator<ioCrecendoSkill::KeyMapEffect> >::_Destroy, COMDAT
; _this$ = ecx

; 1270 : 		_Destroy_range(_First, _Last, this->_Alval);
; 1271 : 		}

  00000	c2 08 00	 ret	 8
?_Destroy@?$vector@UKeyMapEffect@ioCrecendoSkill@@V?$allocator@UKeyMapEffect@ioCrecendoSkill@@@std@@@std@@IAEXPAUKeyMapEffect@ioCrecendoSkill@@0@Z ENDP ; std::vector<ioCrecendoSkill::KeyMapEffect,std::allocator<ioCrecendoSkill::KeyMapEffect> >::_Destroy
_TEXT	ENDS
PUBLIC	?_Tidy@?$vector@UKeyMapEffect@ioCrecendoSkill@@V?$allocator@UKeyMapEffect@ioCrecendoSkill@@@std@@@std@@IAEXXZ ; std::vector<ioCrecendoSkill::KeyMapEffect,std::allocator<ioCrecendoSkill::KeyMapEffect> >::_Tidy
EXTRN	__imp_?_Orphan_all@_Container_base0@std@@QAEXXZ:PROC
; Function compile flags: /Ogsp
;	COMDAT ?_Tidy@?$vector@UKeyMapEffect@ioCrecendoSkill@@V?$allocator@UKeyMapEffect@ioCrecendoSkill@@@std@@@std@@IAEXXZ
_TEXT	SEGMENT
?_Tidy@?$vector@UKeyMapEffect@ioCrecendoSkill@@V?$allocator@UKeyMapEffect@ioCrecendoSkill@@@std@@@std@@IAEXXZ PROC ; std::vector<ioCrecendoSkill::KeyMapEffect,std::allocator<ioCrecendoSkill::KeyMapEffect> >::_Tidy, COMDAT
; _this$ = ecx

; 1301 : 		{	// free all storage

  00000	56		 push	 esi
  00001	8b f1		 mov	 esi, ecx

; 1302 : 		if (this->_Myfirst != 0)

  00003	83 3e 00	 cmp	 DWORD PTR [esi], 0
  00006	74 0e		 je	 SHORT $LN21@Tidy

; 1303 : 			{	// something to free, destroy and deallocate it
; 1304 : 			this->_Orphan_all();

  00008	ff 15 00 00 00
	00		 call	 DWORD PTR __imp_?_Orphan_all@_Container_base0@std@@QAEXXZ

; 1305 : 			_Destroy(this->_Myfirst, this->_Mylast);
; 1306 : 			this->_Alval.deallocate(this->_Myfirst,
; 1307 : 				this->_Myend - this->_Myfirst);

  0000e	ff 36		 push	 DWORD PTR [esi]
  00010	e8 00 00 00 00	 call	 ??3@YAXPAX@Z		; operator delete
  00015	59		 pop	 ecx
$LN21@Tidy:

; 1308 : 			}
; 1309 : 		this->_Myfirst = 0;

  00016	83 26 00	 and	 DWORD PTR [esi], 0

; 1310 : 		this->_Mylast = 0;

  00019	83 66 04 00	 and	 DWORD PTR [esi+4], 0

; 1311 : 		this->_Myend = 0;

  0001d	83 66 08 00	 and	 DWORD PTR [esi+8], 0
  00021	5e		 pop	 esi

; 1312 : 		}

  00022	c3		 ret	 0
?_Tidy@?$vector@UKeyMapEffect@ioCrecendoSkill@@V?$allocator@UKeyMapEffect@ioCrecendoSkill@@@std@@@std@@IAEXXZ ENDP ; std::vector<ioCrecendoSkill::KeyMapEffect,std::allocator<ioCrecendoSkill::KeyMapEffect> >::_Tidy
_TEXT	ENDS
PUBLIC	??$_Ucopy@V?$_Vector_const_iterator@V?$_Vector_val@UForceInfo@@V?$allocator@UForceInfo@@@std@@@std@@@std@@@?$vector@UForceInfo@@V?$allocator@UForceInfo@@@std@@@std@@IAEPAUForceInfo@@V?$_Vector_const_iterator@V?$_Vector_val@UForceInfo@@V?$allocator@UForceInfo@@@std@@@std@@@1@0PAU2@@Z ; std::vector<ForceInfo,std::allocator<ForceInfo> >::_Ucopy<std::_Vector_const_iterator<std::_Vector_val<ForceInfo,std::allocator<ForceInfo> > > >
; Function compile flags: /Ogsp
;	COMDAT ??$_Ucopy@V?$_Vector_const_iterator@V?$_Vector_val@UForceInfo@@V?$allocator@UForceInfo@@@std@@@std@@@std@@@?$vector@UForceInfo@@V?$allocator@UForceInfo@@@std@@@std@@IAEPAUForceInfo@@V?$_Vector_const_iterator@V?$_Vector_val@UForceInfo@@V?$allocator@UForceInfo@@@std@@@std@@@1@0PAU2@@Z
_TEXT	SEGMENT
__First$ = 8						; size = 4
__Last$ = 12						; size = 4
__Cat$541929 = 16					; size = 1
__Ptr$ = 16						; size = 4
??$_Ucopy@V?$_Vector_const_iterator@V?$_Vector_val@UForceInfo@@V?$allocator@UForceInfo@@@std@@@std@@@std@@@?$vector@UForceInfo@@V?$allocator@UForceInfo@@@std@@@std@@IAEPAUForceInfo@@V?$_Vector_const_iterator@V?$_Vector_val@UForceInfo@@V?$allocator@UForceInfo@@@std@@@std@@@1@0PAU2@@Z PROC ; std::vector<ForceInfo,std::allocator<ForceInfo> >::_Ucopy<std::_Vector_const_iterator<std::_Vector_val<ForceInfo,std::allocator<ForceInfo> > > >, COMDAT
; _this$ = ecx

; 1315 : 		pointer _Ucopy(_Iter _First, _Iter _Last, pointer _Ptr)

  00000	55		 push	 ebp
  00001	8b ec		 mov	 ebp, esp

; 1316 : 		{	// copy initializing [_First, _Last), using allocator
; 1317 : 		return (_Uninitialized_copy(_First, _Last,
; 1318 : 			_Ptr, this->_Alval));

  00003	ff 75 10	 push	 DWORD PTR __Cat$541929[ebp]
  00006	83 c1 0c	 add	 ecx, 12			; 0000000cH
  00009	51		 push	 ecx
  0000a	ff 75 10	 push	 DWORD PTR __Ptr$[ebp]
  0000d	ff 75 0c	 push	 DWORD PTR __Last$[ebp]
  00010	ff 75 08	 push	 DWORD PTR __First$[ebp]
  00013	e8 00 00 00 00	 call	 ??$_Uninit_copy@V?$_Vector_const_iterator@V?$_Vector_val@UForceInfo@@V?$allocator@UForceInfo@@@std@@@std@@@std@@PAUForceInfo@@V?$allocator@UForceInfo@@@2@@std@@YAPAUForceInfo@@V?$_Vector_const_iterator@V?$_Vector_val@UForceInfo@@V?$allocator@UForceInfo@@@std@@@std@@@0@0PAU1@AAV?$allocator@UForceInfo@@@0@U_Nonscalar_ptr_iterator_tag@0@@Z ; std::_Uninit_copy<std::_Vector_const_iterator<std::_Vector_val<ForceInfo,std::allocator<ForceInfo> > >,ForceInfo *,std::allocator<ForceInfo> >
  00018	83 c4 14	 add	 esp, 20			; 00000014H

; 1319 : 		}

  0001b	5d		 pop	 ebp
  0001c	c2 0c 00	 ret	 12			; 0000000cH
??$_Ucopy@V?$_Vector_const_iterator@V?$_Vector_val@UForceInfo@@V?$allocator@UForceInfo@@@std@@@std@@@std@@@?$vector@UForceInfo@@V?$allocator@UForceInfo@@@std@@@std@@IAEPAUForceInfo@@V?$_Vector_const_iterator@V?$_Vector_val@UForceInfo@@V?$allocator@UForceInfo@@@std@@@std@@@1@0PAU2@@Z ENDP ; std::vector<ForceInfo,std::allocator<ForceInfo> >::_Ucopy<std::_Vector_const_iterator<std::_Vector_val<ForceInfo,std::allocator<ForceInfo> > > >
_TEXT	ENDS
PUBLIC	??$_Umove@PAUKeyMapEffect@ioCrecendoSkill@@@?$vector@UKeyMapEffect@ioCrecendoSkill@@V?$allocator@UKeyMapEffect@ioCrecendoSkill@@@std@@@std@@IAEPAUKeyMapEffect@ioCrecendoSkill@@PAU23@00@Z ; std::vector<ioCrecendoSkill::KeyMapEffect,std::allocator<ioCrecendoSkill::KeyMapEffect> >::_Umove<ioCrecendoSkill::KeyMapEffect *>
; Function compile flags: /Ogsp
;	COMDAT ??$_Umove@PAUKeyMapEffect@ioCrecendoSkill@@@?$vector@UKeyMapEffect@ioCrecendoSkill@@V?$allocator@UKeyMapEffect@ioCrecendoSkill@@@std@@@std@@IAEPAUKeyMapEffect@ioCrecendoSkill@@PAU23@00@Z
_TEXT	SEGMENT
__First$ = 8						; size = 4
__Last$ = 12						; size = 4
__Ptr$ = 16						; size = 4
??$_Umove@PAUKeyMapEffect@ioCrecendoSkill@@@?$vector@UKeyMapEffect@ioCrecendoSkill@@V?$allocator@UKeyMapEffect@ioCrecendoSkill@@@std@@@std@@IAEPAUKeyMapEffect@ioCrecendoSkill@@PAU23@00@Z PROC ; std::vector<ioCrecendoSkill::KeyMapEffect,std::allocator<ioCrecendoSkill::KeyMapEffect> >::_Umove<ioCrecendoSkill::KeyMapEffect *>, COMDAT
; _this$ = ecx

; 1322 : 		pointer _Umove(_Iter _First, _Iter _Last, pointer _Ptr)

  00000	55		 push	 ebp
  00001	8b ec		 mov	 ebp, esp

; 1323 : 		{	// move initializing [_First, _Last), using allocator
; 1324 : 		return (_Uninitialized_move(_First, _Last,
; 1325 : 			_Ptr, this->_Alval));

  00003	83 c1 0c	 add	 ecx, 12			; 0000000cH
  00006	51		 push	 ecx
  00007	ff 75 10	 push	 DWORD PTR __Ptr$[ebp]
  0000a	ff 75 0c	 push	 DWORD PTR __Last$[ebp]
  0000d	ff 75 08	 push	 DWORD PTR __First$[ebp]
  00010	e8 00 00 00 00	 call	 ??$_Uninitialized_move@PAUKeyMapEffect@ioCrecendoSkill@@PAU12@V?$allocator@UKeyMapEffect@ioCrecendoSkill@@@std@@@std@@YAPAUKeyMapEffect@ioCrecendoSkill@@PAU12@00AAV?$allocator@UKeyMapEffect@ioCrecendoSkill@@@0@@Z ; std::_Uninitialized_move<ioCrecendoSkill::KeyMapEffect *,ioCrecendoSkill::KeyMapEffect *,std::allocator<ioCrecendoSkill::KeyMapEffect> >
  00015	83 c4 10	 add	 esp, 16			; 00000010H

; 1326 : 		}

  00018	5d		 pop	 ebp
  00019	c2 0c 00	 ret	 12			; 0000000cH
??$_Umove@PAUKeyMapEffect@ioCrecendoSkill@@@?$vector@UKeyMapEffect@ioCrecendoSkill@@V?$allocator@UKeyMapEffect@ioCrecendoSkill@@@std@@@std@@IAEPAUKeyMapEffect@ioCrecendoSkill@@PAU23@00@Z ENDP ; std::vector<ioCrecendoSkill::KeyMapEffect,std::allocator<ioCrecendoSkill::KeyMapEffect> >::_Umove<ioCrecendoSkill::KeyMapEffect *>
_TEXT	ENDS
PUBLIC	??$_Uninitialized_copy@V?$_Vector_const_iterator@V?$_Vector_val@UWeaponInfo@@V?$allocator@UWeaponInfo@@@std@@@std@@@std@@PAUWeaponInfo@@V?$allocator@UWeaponInfo@@@2@@std@@YAPAUWeaponInfo@@V?$_Vector_const_iterator@V?$_Vector_val@UWeaponInfo@@V?$allocator@UWeaponInfo@@@std@@@std@@@0@0PAU1@AAV?$allocator@UWeaponInfo@@@0@@Z ; std::_Uninitialized_copy<std::_Vector_const_iterator<std::_Vector_val<WeaponInfo,std::allocator<WeaponInfo> > >,WeaponInfo *,std::allocator<WeaponInfo> >
; Function compile flags: /Ogsp
; File c:\program files (x86)\microsoft visual studio 10.0\vc\include\memory
;	COMDAT ??$_Uninitialized_copy@V?$_Vector_const_iterator@V?$_Vector_val@UWeaponInfo@@V?$allocator@UWeaponInfo@@@std@@@std@@@std@@PAUWeaponInfo@@V?$allocator@UWeaponInfo@@@2@@std@@YAPAUWeaponInfo@@V?$_Vector_const_iterator@V?$_Vector_val@UWeaponInfo@@V?$allocator@UWeaponInfo@@@std@@@std@@@0@0PAU1@AAV?$allocator@UWeaponInfo@@@0@@Z
_TEXT	SEGMENT
__Cat$541941 = -4					; size = 1
__First$ = 8						; size = 4
__Last$ = 12						; size = 4
__Dest$ = 16						; size = 4
__Al$ = 20						; size = 4
??$_Uninitialized_copy@V?$_Vector_const_iterator@V?$_Vector_val@UWeaponInfo@@V?$allocator@UWeaponInfo@@@std@@@std@@@std@@PAUWeaponInfo@@V?$allocator@UWeaponInfo@@@2@@std@@YAPAUWeaponInfo@@V?$_Vector_const_iterator@V?$_Vector_val@UWeaponInfo@@V?$allocator@UWeaponInfo@@@std@@@std@@@0@0PAU1@AAV?$allocator@UWeaponInfo@@@0@@Z PROC ; std::_Uninitialized_copy<std::_Vector_const_iterator<std::_Vector_val<WeaponInfo,std::allocator<WeaponInfo> > >,WeaponInfo *,std::allocator<WeaponInfo> >, COMDAT

; 412  : 	{	// copy [_First, _Last) to raw _Dest, using _Al

  00000	55		 push	 ebp
  00001	8b ec		 mov	 ebp, esp
  00003	51		 push	 ecx

; 413  : 	return (_Uninit_copy(_First, _Last, _Dest, _Al,
; 414  : 		_Ptr_cat(_First, _Dest)));

  00004	ff 75 fc	 push	 DWORD PTR __Cat$541941[ebp]
  00007	ff 75 14	 push	 DWORD PTR __Al$[ebp]
  0000a	ff 75 10	 push	 DWORD PTR __Dest$[ebp]
  0000d	ff 75 0c	 push	 DWORD PTR __Last$[ebp]
  00010	ff 75 08	 push	 DWORD PTR __First$[ebp]
  00013	e8 00 00 00 00	 call	 ??$_Uninit_copy@V?$_Vector_const_iterator@V?$_Vector_val@UWeaponInfo@@V?$allocator@UWeaponInfo@@@std@@@std@@@std@@PAUWeaponInfo@@V?$allocator@UWeaponInfo@@@2@@std@@YAPAUWeaponInfo@@V?$_Vector_const_iterator@V?$_Vector_val@UWeaponInfo@@V?$allocator@UWeaponInfo@@@std@@@std@@@0@0PAU1@AAV?$allocator@UWeaponInfo@@@0@U_Nonscalar_ptr_iterator_tag@0@@Z ; std::_Uninit_copy<std::_Vector_const_iterator<std::_Vector_val<WeaponInfo,std::allocator<WeaponInfo> > >,WeaponInfo *,std::allocator<WeaponInfo> >
  00018	83 c4 14	 add	 esp, 20			; 00000014H

; 415  : 	}

  0001b	c9		 leave
  0001c	c3		 ret	 0
??$_Uninitialized_copy@V?$_Vector_const_iterator@V?$_Vector_val@UWeaponInfo@@V?$allocator@UWeaponInfo@@@std@@@std@@@std@@PAUWeaponInfo@@V?$allocator@UWeaponInfo@@@2@@std@@YAPAUWeaponInfo@@V?$_Vector_const_iterator@V?$_Vector_val@UWeaponInfo@@V?$allocator@UWeaponInfo@@@std@@@std@@@0@0PAU1@AAV?$allocator@UWeaponInfo@@@0@@Z ENDP ; std::_Uninitialized_copy<std::_Vector_const_iterator<std::_Vector_val<WeaponInfo,std::allocator<WeaponInfo> > >,WeaponInfo *,std::allocator<WeaponInfo> >
_TEXT	ENDS
PUBLIC	??$rotate@V?$_Vector_iterator@V?$_Vector_val@UKeyMapEffect@ioCrecendoSkill@@V?$allocator@UKeyMapEffect@ioCrecendoSkill@@@std@@@std@@@std@@@std@@YA?AV?$_Vector_iterator@V?$_Vector_val@UKeyMapEffect@ioCrecendoSkill@@V?$allocator@UKeyMapEffect@ioCrecendoSkill@@@std@@@std@@@0@V10@00@Z ; std::rotate<std::_Vector_iterator<std::_Vector_val<ioCrecendoSkill::KeyMapEffect,std::allocator<ioCrecendoSkill::KeyMapEffect> > > >
; Function compile flags: /Ogsp
; File c:\program files (x86)\microsoft visual studio 10.0\vc\include\xutility
;	COMDAT ??$rotate@V?$_Vector_iterator@V?$_Vector_val@UKeyMapEffect@ioCrecendoSkill@@V?$allocator@UKeyMapEffect@ioCrecendoSkill@@@std@@@std@@@std@@@std@@YA?AV?$_Vector_iterator@V?$_Vector_val@UKeyMapEffect@ioCrecendoSkill@@V?$allocator@UKeyMapEffect@ioCrecendoSkill@@@std@@@std@@@0@V10@00@Z
_TEXT	SEGMENT
___$ReturnUdt$ = 8					; size = 4
__First$ = 12						; size = 4
__Mid$ = 16						; size = 4
__Last$ = 20						; size = 4
??$rotate@V?$_Vector_iterator@V?$_Vector_val@UKeyMapEffect@ioCrecendoSkill@@V?$allocator@UKeyMapEffect@ioCrecendoSkill@@@std@@@std@@@std@@@std@@YA?AV?$_Vector_iterator@V?$_Vector_val@UKeyMapEffect@ioCrecendoSkill@@V?$allocator@UKeyMapEffect@ioCrecendoSkill@@@std@@@std@@@0@V10@00@Z PROC ; std::rotate<std::_Vector_iterator<std::_Vector_val<ioCrecendoSkill::KeyMapEffect,std::allocator<ioCrecendoSkill::KeyMapEffect> > > >, COMDAT

; 3294 : 	{	// rotate [_First, _Last)

  00000	55		 push	 ebp
  00001	8b ec		 mov	 ebp, esp

; 3295 : 	_DEBUG_RANGE(_First, _Mid);
; 3296 : 	_DEBUG_RANGE(_Mid, _Last);
; 3297 : 	if (_First != _Mid && _Mid != _Last)

  00003	8b 4d 0c	 mov	 ecx, DWORD PTR __First$[ebp]
  00006	8b 45 10	 mov	 eax, DWORD PTR __Mid$[ebp]
  00009	3b c8		 cmp	 ecx, eax
  0000b	74 25		 je	 SHORT $LN56@rotate
  0000d	3b 45 14	 cmp	 eax, DWORD PTR __Last$[ebp]
  00010	74 20		 je	 SHORT $LN56@rotate

; 3298 : 		{	// rotate and compute new first iterator
; 3299 : 		_Rotate(_Unchecked(_First), _Unchecked(_Mid), _Unchecked(_Last),
; 3300 : 			_Iter_cat(_First));

  00012	6a 00		 push	 0
  00014	6a 00		 push	 0
  00016	ff 75 14	 push	 DWORD PTR __Last$[ebp]
  00019	50		 push	 eax
  0001a	51		 push	 ecx
  0001b	e8 00 00 00 00	 call	 ??$_Rotate@PAUKeyMapEffect@ioCrecendoSkill@@HU12@@std@@YAXPAUKeyMapEffect@ioCrecendoSkill@@00PAH0@Z ; std::_Rotate<ioCrecendoSkill::KeyMapEffect *,int,ioCrecendoSkill::KeyMapEffect>

; 3301 : 		_STD advance(_First, _STD distance(_Mid, _Last));

  00020	8b 45 14	 mov	 eax, DWORD PTR __Last$[ebp]
  00023	2b 45 10	 sub	 eax, DWORD PTR __Mid$[ebp]
  00026	8b 4d 0c	 mov	 ecx, DWORD PTR __First$[ebp]
  00029	83 c4 14	 add	 esp, 20			; 00000014H
  0002c	c1 f8 03	 sar	 eax, 3
  0002f	8d 0c c1	 lea	 ecx, DWORD PTR [ecx+eax*8]
$LN56@rotate:

; 3302 : 		}
; 3303 : 	return (_First);

  00032	8b 45 08	 mov	 eax, DWORD PTR ___$ReturnUdt$[ebp]
  00035	89 08		 mov	 DWORD PTR [eax], ecx

; 3304 : 	}

  00037	5d		 pop	 ebp
  00038	c3		 ret	 0
??$rotate@V?$_Vector_iterator@V?$_Vector_val@UKeyMapEffect@ioCrecendoSkill@@V?$allocator@UKeyMapEffect@ioCrecendoSkill@@@std@@@std@@@std@@@std@@YA?AV?$_Vector_iterator@V?$_Vector_val@UKeyMapEffect@ioCrecendoSkill@@V?$allocator@UKeyMapEffect@ioCrecendoSkill@@@std@@@std@@@0@V10@00@Z ENDP ; std::rotate<std::_Vector_iterator<std::_Vector_val<ioCrecendoSkill::KeyMapEffect,std::allocator<ioCrecendoSkill::KeyMapEffect> > > >
_TEXT	ENDS
PUBLIC	?_Destroy@?$vector@UForceInfo@@V?$allocator@UForceInfo@@@std@@@std@@IAEXPAUForceInfo@@0@Z ; std::vector<ForceInfo,std::allocator<ForceInfo> >::_Destroy
; Function compile flags: /Ogsp
; File c:\program files (x86)\microsoft visual studio 10.0\vc\include\vector
;	COMDAT ?_Destroy@?$vector@UForceInfo@@V?$allocator@UForceInfo@@@std@@@std@@IAEXPAUForceInfo@@0@Z
_TEXT	SEGMENT
__First$ = 8						; size = 4
__Last$ = 12						; size = 4
?_Destroy@?$vector@UForceInfo@@V?$allocator@UForceInfo@@@std@@@std@@IAEXPAUForceInfo@@0@Z PROC ; std::vector<ForceInfo,std::allocator<ForceInfo> >::_Destroy, COMDAT
; _this$ = ecx

; 1270 : 		_Destroy_range(_First, _Last, this->_Alval);
; 1271 : 		}

  00000	c2 08 00	 ret	 8
?_Destroy@?$vector@UForceInfo@@V?$allocator@UForceInfo@@@std@@@std@@IAEXPAUForceInfo@@0@Z ENDP ; std::vector<ForceInfo,std::allocator<ForceInfo> >::_Destroy
_TEXT	ENDS
PUBLIC	??$_Destroy_range@V?$allocator@UWeaponInfo@@@std@@@std@@YAXPAUWeaponInfo@@0AAV?$allocator@UWeaponInfo@@@0@@Z ; std::_Destroy_range<std::allocator<WeaponInfo> >
; Function compile flags: /Ogsp
; File c:\program files (x86)\microsoft visual studio 10.0\vc\include\xmemory
;	COMDAT ??$_Destroy_range@V?$allocator@UWeaponInfo@@@std@@@std@@YAXPAUWeaponInfo@@0AAV?$allocator@UWeaponInfo@@@0@@Z
_TEXT	SEGMENT
__First$ = 8						; size = 4
__Last$ = 12						; size = 4
__Al$ = 16						; size = 4
??$_Destroy_range@V?$allocator@UWeaponInfo@@@std@@@std@@YAXPAUWeaponInfo@@0AAV?$allocator@UWeaponInfo@@@0@@Z PROC ; std::_Destroy_range<std::allocator<WeaponInfo> >, COMDAT

; 87   : 	{	// destroy [_First, _Last)

  00000	55		 push	 ebp
  00001	8b ec		 mov	 ebp, esp
  00003	56		 push	 esi

; 88   : 	_Destroy_range(_First, _Last, _Al, _Ptr_cat(_First, _Last));

  00004	8b 75 08	 mov	 esi, DWORD PTR __First$[ebp]
  00007	eb 0c		 jmp	 SHORT $LN24@Destroy_ra@2
$LL7@Destroy_ra@2:
  00009	8d 4e 08	 lea	 ecx, DWORD PTR [esi+8]
  0000c	ff 15 00 00 00
	00		 call	 DWORD PTR __imp_??1ioHashString@@QAE@XZ
  00012	83 c6 28	 add	 esi, 40			; 00000028H
$LN24@Destroy_ra@2:
  00015	3b 75 0c	 cmp	 esi, DWORD PTR __Last$[ebp]
  00018	75 ef		 jne	 SHORT $LL7@Destroy_ra@2
  0001a	5e		 pop	 esi

; 89   : 	}

  0001b	5d		 pop	 ebp
  0001c	c3		 ret	 0
??$_Destroy_range@V?$allocator@UWeaponInfo@@@std@@@std@@YAXPAUWeaponInfo@@0AAV?$allocator@UWeaponInfo@@@0@@Z ENDP ; std::_Destroy_range<std::allocator<WeaponInfo> >
_TEXT	ENDS
PUBLIC	??1?$vector@UKeyMapEffect@ioCrecendoSkill@@V?$allocator@UKeyMapEffect@ioCrecendoSkill@@@std@@@std@@QAE@XZ ; std::vector<ioCrecendoSkill::KeyMapEffect,std::allocator<ioCrecendoSkill::KeyMapEffect> >::~vector<ioCrecendoSkill::KeyMapEffect,std::allocator<ioCrecendoSkill::KeyMapEffect> >
; Function compile flags: /Ogsp
; File c:\program files (x86)\microsoft visual studio 10.0\vc\include\vector
;	COMDAT ??1?$vector@UKeyMapEffect@ioCrecendoSkill@@V?$allocator@UKeyMapEffect@ioCrecendoSkill@@@std@@@std@@QAE@XZ
_TEXT	SEGMENT
??1?$vector@UKeyMapEffect@ioCrecendoSkill@@V?$allocator@UKeyMapEffect@ioCrecendoSkill@@@std@@@std@@QAE@XZ PROC ; std::vector<ioCrecendoSkill::KeyMapEffect,std::allocator<ioCrecendoSkill::KeyMapEffect> >::~vector<ioCrecendoSkill::KeyMapEffect,std::allocator<ioCrecendoSkill::KeyMapEffect> >, COMDAT
; _this$ = ecx

; 705  : 		_Tidy();

  00000	e9 00 00 00 00	 jmp	 ?_Tidy@?$vector@UKeyMapEffect@ioCrecendoSkill@@V?$allocator@UKeyMapEffect@ioCrecendoSkill@@@std@@@std@@IAEXXZ ; std::vector<ioCrecendoSkill::KeyMapEffect,std::allocator<ioCrecendoSkill::KeyMapEffect> >::_Tidy
??1?$vector@UKeyMapEffect@ioCrecendoSkill@@V?$allocator@UKeyMapEffect@ioCrecendoSkill@@@std@@@std@@QAE@XZ ENDP ; std::vector<ioCrecendoSkill::KeyMapEffect,std::allocator<ioCrecendoSkill::KeyMapEffect> >::~vector<ioCrecendoSkill::KeyMapEffect,std::allocator<ioCrecendoSkill::KeyMapEffect> >
_TEXT	ENDS
PUBLIC	?erase@?$vector@UKeyMapEffect@ioCrecendoSkill@@V?$allocator@UKeyMapEffect@ioCrecendoSkill@@@std@@@std@@QAE?AV?$_Vector_iterator@V?$_Vector_val@UKeyMapEffect@ioCrecendoSkill@@V?$allocator@UKeyMapEffect@ioCrecendoSkill@@@std@@@std@@@2@V?$_Vector_const_iterator@V?$_Vector_val@UKeyMapEffect@ioCrecendoSkill@@V?$allocator@UKeyMapEffect@ioCrecendoSkill@@@std@@@std@@@2@@Z ; std::vector<ioCrecendoSkill::KeyMapEffect,std::allocator<ioCrecendoSkill::KeyMapEffect> >::erase
; Function compile flags: /Ogsp
;	COMDAT ?erase@?$vector@UKeyMapEffect@ioCrecendoSkill@@V?$allocator@UKeyMapEffect@ioCrecendoSkill@@@std@@@std@@QAE?AV?$_Vector_iterator@V?$_Vector_val@UKeyMapEffect@ioCrecendoSkill@@V?$allocator@UKeyMapEffect@ioCrecendoSkill@@@std@@@std@@@2@V?$_Vector_const_iterator@V?$_Vector_val@UKeyMapEffect@ioCrecendoSkill@@V?$allocator@UKeyMapEffect@ioCrecendoSkill@@@std@@@std@@@2@@Z
_TEXT	SEGMENT
___$ReturnUdt$ = 8					; size = 4
__Cat$542249 = 12					; size = 1
__Where$ = 12						; size = 4
?erase@?$vector@UKeyMapEffect@ioCrecendoSkill@@V?$allocator@UKeyMapEffect@ioCrecendoSkill@@@std@@@std@@QAE?AV?$_Vector_iterator@V?$_Vector_val@UKeyMapEffect@ioCrecendoSkill@@V?$allocator@UKeyMapEffect@ioCrecendoSkill@@@std@@@std@@@2@V?$_Vector_const_iterator@V?$_Vector_val@UKeyMapEffect@ioCrecendoSkill@@V?$allocator@UKeyMapEffect@ioCrecendoSkill@@@std@@@std@@@2@@Z PROC ; std::vector<ioCrecendoSkill::KeyMapEffect,std::allocator<ioCrecendoSkill::KeyMapEffect> >::erase, COMDAT
; _this$ = ecx

; 1179 : 		{	// erase element at where

  00000	55		 push	 ebp
  00001	8b ec		 mov	 ebp, esp

; 1180 : 		_Move(_VIPTR(_Where) + 1, this->_Mylast,
; 1181 : 			_VIPTR(_Where));

  00003	8b 45 0c	 mov	 eax, DWORD PTR __Where$[ebp]
  00006	56		 push	 esi
  00007	ff 75 0c	 push	 DWORD PTR __Cat$542249[ebp]
  0000a	8b f1		 mov	 esi, ecx
  0000c	50		 push	 eax
  0000d	ff 76 04	 push	 DWORD PTR [esi+4]
  00010	83 c0 08	 add	 eax, 8
  00013	50		 push	 eax
  00014	e8 00 00 00 00	 call	 ??$_Move@PAUKeyMapEffect@ioCrecendoSkill@@PAU12@@std@@YAPAUKeyMapEffect@ioCrecendoSkill@@PAU12@00U_Nonscalar_ptr_iterator_tag@0@@Z ; std::_Move<ioCrecendoSkill::KeyMapEffect *,ioCrecendoSkill::KeyMapEffect *>

; 1182 : 		_Destroy(this->_Mylast - 1, this->_Mylast);
; 1183 : 		--this->_Mylast;
; 1184 : 		return (_Make_iter(_Where));

  00019	8b 45 08	 mov	 eax, DWORD PTR ___$ReturnUdt$[ebp]
  0001c	8b 4d 0c	 mov	 ecx, DWORD PTR __Where$[ebp]
  0001f	83 c4 10	 add	 esp, 16			; 00000010H
  00022	83 46 04 f8	 add	 DWORD PTR [esi+4], -8	; fffffff8H
  00026	89 08		 mov	 DWORD PTR [eax], ecx
  00028	5e		 pop	 esi

; 1185 : 		}

  00029	5d		 pop	 ebp
  0002a	c2 08 00	 ret	 8
?erase@?$vector@UKeyMapEffect@ioCrecendoSkill@@V?$allocator@UKeyMapEffect@ioCrecendoSkill@@@std@@@std@@QAE?AV?$_Vector_iterator@V?$_Vector_val@UKeyMapEffect@ioCrecendoSkill@@V?$allocator@UKeyMapEffect@ioCrecendoSkill@@@std@@@std@@@2@V?$_Vector_const_iterator@V?$_Vector_val@UKeyMapEffect@ioCrecendoSkill@@V?$allocator@UKeyMapEffect@ioCrecendoSkill@@@std@@@std@@@2@@Z ENDP ; std::vector<ioCrecendoSkill::KeyMapEffect,std::allocator<ioCrecendoSkill::KeyMapEffect> >::erase
_TEXT	ENDS
PUBLIC	?erase@?$vector@UKeyMapEffect@ioCrecendoSkill@@V?$allocator@UKeyMapEffect@ioCrecendoSkill@@@std@@@std@@QAE?AV?$_Vector_iterator@V?$_Vector_val@UKeyMapEffect@ioCrecendoSkill@@V?$allocator@UKeyMapEffect@ioCrecendoSkill@@@std@@@std@@@2@V?$_Vector_const_iterator@V?$_Vector_val@UKeyMapEffect@ioCrecendoSkill@@V?$allocator@UKeyMapEffect@ioCrecendoSkill@@@std@@@std@@@2@0@Z ; std::vector<ioCrecendoSkill::KeyMapEffect,std::allocator<ioCrecendoSkill::KeyMapEffect> >::erase
; Function compile flags: /Ogsp
;	COMDAT ?erase@?$vector@UKeyMapEffect@ioCrecendoSkill@@V?$allocator@UKeyMapEffect@ioCrecendoSkill@@@std@@@std@@QAE?AV?$_Vector_iterator@V?$_Vector_val@UKeyMapEffect@ioCrecendoSkill@@V?$allocator@UKeyMapEffect@ioCrecendoSkill@@@std@@@std@@@2@V?$_Vector_const_iterator@V?$_Vector_val@UKeyMapEffect@ioCrecendoSkill@@V?$allocator@UKeyMapEffect@ioCrecendoSkill@@@std@@@std@@@2@0@Z
_TEXT	SEGMENT
___$ReturnUdt$ = 8					; size = 4
__First_arg$ = 12					; size = 4
__Cat$542424 = 16					; size = 1
__Last_arg$ = 16					; size = 4
?erase@?$vector@UKeyMapEffect@ioCrecendoSkill@@V?$allocator@UKeyMapEffect@ioCrecendoSkill@@@std@@@std@@QAE?AV?$_Vector_iterator@V?$_Vector_val@UKeyMapEffect@ioCrecendoSkill@@V?$allocator@UKeyMapEffect@ioCrecendoSkill@@@std@@@std@@@2@V?$_Vector_const_iterator@V?$_Vector_val@UKeyMapEffect@ioCrecendoSkill@@V?$allocator@UKeyMapEffect@ioCrecendoSkill@@@std@@@std@@@2@0@Z PROC ; std::vector<ioCrecendoSkill::KeyMapEffect,std::allocator<ioCrecendoSkill::KeyMapEffect> >::erase, COMDAT
; _this$ = ecx

; 1190 : 		{	// erase [_First, _Last)

  00000	55		 push	 ebp
  00001	8b ec		 mov	 ebp, esp

; 1191 : 		iterator _First = _Make_iter(_First_arg);

  00003	8b 45 0c	 mov	 eax, DWORD PTR __First_arg$[ebp]
  00006	56		 push	 esi
  00007	57		 push	 edi
  00008	8b 7d 08	 mov	 edi, DWORD PTR ___$ReturnUdt$[ebp]
  0000b	8b f1		 mov	 esi, ecx
  0000d	89 07		 mov	 DWORD PTR [edi], eax

; 1192 : 		iterator _Last = _Make_iter(_Last_arg);
; 1193 : 
; 1194 : 		if (_First != _Last)

  0000f	3b 45 10	 cmp	 eax, DWORD PTR __Last_arg$[ebp]
  00012	74 16		 je	 SHORT $LN1@erase

; 1195 : 			{	// worth doing, copy down over hole
; 1196 :  #if _ITERATOR_DEBUG_LEVEL == 2
; 1197 : 			if (_Last < _First || _VICONT(_First) != this
; 1198 : 				|| _VIPTR(_First) < this->_Myfirst
; 1199 : 				|| this->_Mylast < _VIPTR(_Last))
; 1200 : 				_DEBUG_ERROR("vector erase iterator outside range");
; 1201 : 			pointer _Ptr = _Move(_VIPTR(_Last), this->_Mylast,
; 1202 : 				_VIPTR(_First));
; 1203 : 			_Orphan_range(_VIPTR(_First), this->_Mylast);
; 1204 : 
; 1205 :  #else /* _ITERATOR_DEBUG_LEVEL == 2 */
; 1206 : 			pointer _Ptr = _Move(_VIPTR(_Last), this->_Mylast,
; 1207 : 				_VIPTR(_First));

  00014	ff 75 10	 push	 DWORD PTR __Cat$542424[ebp]
  00017	8b 4e 04	 mov	 ecx, DWORD PTR [esi+4]
  0001a	50		 push	 eax
  0001b	51		 push	 ecx
  0001c	ff 75 10	 push	 DWORD PTR __Last_arg$[ebp]
  0001f	e8 00 00 00 00	 call	 ??$_Move@PAUKeyMapEffect@ioCrecendoSkill@@PAU12@@std@@YAPAUKeyMapEffect@ioCrecendoSkill@@PAU12@00U_Nonscalar_ptr_iterator_tag@0@@Z ; std::_Move<ioCrecendoSkill::KeyMapEffect *,ioCrecendoSkill::KeyMapEffect *>
  00024	83 c4 10	 add	 esp, 16			; 00000010H

; 1208 :  #endif /* _ITERATOR_DEBUG_LEVEL == 2 */
; 1209 : 
; 1210 : 			_Destroy(_Ptr, this->_Mylast);
; 1211 : 			this->_Mylast = _Ptr;

  00027	89 46 04	 mov	 DWORD PTR [esi+4], eax
$LN1@erase:

; 1212 : 			}
; 1213 : 		return (_First);

  0002a	8b c7		 mov	 eax, edi
  0002c	5f		 pop	 edi
  0002d	5e		 pop	 esi

; 1214 : 		}

  0002e	5d		 pop	 ebp
  0002f	c2 0c 00	 ret	 12			; 0000000cH
?erase@?$vector@UKeyMapEffect@ioCrecendoSkill@@V?$allocator@UKeyMapEffect@ioCrecendoSkill@@@std@@@std@@QAE?AV?$_Vector_iterator@V?$_Vector_val@UKeyMapEffect@ioCrecendoSkill@@V?$allocator@UKeyMapEffect@ioCrecendoSkill@@@std@@@std@@@2@V?$_Vector_const_iterator@V?$_Vector_val@UKeyMapEffect@ioCrecendoSkill@@V?$allocator@UKeyMapEffect@ioCrecendoSkill@@@std@@@std@@@2@0@Z ENDP ; std::vector<ioCrecendoSkill::KeyMapEffect,std::allocator<ioCrecendoSkill::KeyMapEffect> >::erase
_TEXT	ENDS
PUBLIC	?reserve@?$vector@UKeyMapEffect@ioCrecendoSkill@@V?$allocator@UKeyMapEffect@ioCrecendoSkill@@@std@@@std@@QAEXI@Z ; std::vector<ioCrecendoSkill::KeyMapEffect,std::allocator<ioCrecendoSkill::KeyMapEffect> >::reserve
;	COMDAT xdata$x
; File c:\program files (x86)\microsoft visual studio 10.0\vc\include\xmemory
xdata$x	SEGMENT
__catchsym$?reserve@?$vector@UKeyMapEffect@ioCrecendoSkill@@V?$allocator@UKeyMapEffect@ioCrecendoSkill@@@std@@@std@@QAEXI@Z$2 DD 040H
	DD	00H
	DD	00H
	DD	FLAT:__catch$?reserve@?$vector@UKeyMapEffect@ioCrecendoSkill@@V?$allocator@UKeyMapEffect@ioCrecendoSkill@@@std@@@std@@QAEXI@Z$0
__unwindtable$?reserve@?$vector@UKeyMapEffect@ioCrecendoSkill@@V?$allocator@UKeyMapEffect@ioCrecendoSkill@@@std@@@std@@QAEXI@Z DD 0ffffffffH
	DD	00H
	DD	0ffffffffH
	DD	00H
__tryblocktable$?reserve@?$vector@UKeyMapEffect@ioCrecendoSkill@@V?$allocator@UKeyMapEffect@ioCrecendoSkill@@@std@@@std@@QAEXI@Z DD 00H
	DD	00H
	DD	01H
	DD	01H
	DD	FLAT:__catchsym$?reserve@?$vector@UKeyMapEffect@ioCrecendoSkill@@V?$allocator@UKeyMapEffect@ioCrecendoSkill@@@std@@@std@@QAEXI@Z$2
__ehfuncinfo$?reserve@?$vector@UKeyMapEffect@ioCrecendoSkill@@V?$allocator@UKeyMapEffect@ioCrecendoSkill@@@std@@@std@@QAEXI@Z DD 019930522H
	DD	02H
	DD	FLAT:__unwindtable$?reserve@?$vector@UKeyMapEffect@ioCrecendoSkill@@V?$allocator@UKeyMapEffect@ioCrecendoSkill@@@std@@@std@@QAEXI@Z
	DD	01H
	DD	FLAT:__tryblocktable$?reserve@?$vector@UKeyMapEffect@ioCrecendoSkill@@V?$allocator@UKeyMapEffect@ioCrecendoSkill@@@std@@@std@@QAEXI@Z
	DD	2 DUP(00H)
	DD	00H
	DD	01H
; Function compile flags: /Ogsp
; File c:\program files (x86)\microsoft visual studio 10.0\vc\include\vector
xdata$x	ENDS
;	COMDAT ?reserve@?$vector@UKeyMapEffect@ioCrecendoSkill@@V?$allocator@UKeyMapEffect@ioCrecendoSkill@@@std@@@std@@QAEXI@Z
_TEXT	SEGMENT
__Ptr$533850 = -20					; size = 4
__$EHRec$ = -16						; size = 16
__Count$ = 8						; size = 4
?reserve@?$vector@UKeyMapEffect@ioCrecendoSkill@@V?$allocator@UKeyMapEffect@ioCrecendoSkill@@@std@@@std@@QAEXI@Z PROC ; std::vector<ioCrecendoSkill::KeyMapEffect,std::allocator<ioCrecendoSkill::KeyMapEffect> >::reserve, COMDAT
; _this$ = ecx

; 746  : 		{	// determine new minimum length of allocated storage

  00000	6a 08		 push	 8
  00002	b8 00 00 00 00	 mov	 eax, __ehhandler$?reserve@?$vector@UKeyMapEffect@ioCrecendoSkill@@V?$allocator@UKeyMapEffect@ioCrecendoSkill@@@std@@@std@@QAEXI@Z
  00007	e8 00 00 00 00	 call	 __EH_prolog3_catch
  0000c	8b f1		 mov	 esi, ecx

; 747  : 		if (max_size() < _Count)

  0000e	81 7d 08 ff ff
	ff 1f		 cmp	 DWORD PTR __Count$[ebp], 536870911 ; 1fffffffH
  00015	76 0b		 jbe	 SHORT $LN5@reserve

; 748  : 			_Xlen();	// result too long

  00017	68 00 00 00 00	 push	 OFFSET ??_C@_0BD@OLBABOEK@vector?$DMT?$DO?5too?5long?$AA@
  0001c	ff 15 00 00 00
	00		 call	 DWORD PTR __imp_?_Xlength_error@std@@YAXPBD@Z
$LN56@reserve:
$LN5@reserve:

; 749  : 		else if (capacity() < _Count)

  00022	8b 46 08	 mov	 eax, DWORD PTR [esi+8]
  00025	2b 06		 sub	 eax, DWORD PTR [esi]
  00027	c1 f8 03	 sar	 eax, 3
  0002a	3b 45 08	 cmp	 eax, DWORD PTR __Count$[ebp]
  0002d	73 65		 jae	 SHORT $LN3@reserve

; 750  : 			{	// not enough room, reallocate
; 751  : 			pointer _Ptr = this->_Alval.allocate(_Count);

  0002f	6a 00		 push	 0
  00031	ff 75 08	 push	 DWORD PTR __Count$[ebp]
  00034	e8 00 00 00 00	 call	 ??$_Allocate@UKeyMapEffect@ioCrecendoSkill@@@std@@YAPAUKeyMapEffect@ioCrecendoSkill@@IPAU12@@Z ; std::_Allocate<ioCrecendoSkill::KeyMapEffect>

; 752  : 
; 753  : 			_TRY_BEGIN
; 754  : 			_Umove(this->_Myfirst, this->_Mylast, _Ptr);

  00039	8b 0e		 mov	 ecx, DWORD PTR [esi]
  0003b	83 65 fc 00	 and	 DWORD PTR __$EHRec$[ebp+12], 0
  0003f	8b d8		 mov	 ebx, eax
  00041	8b 46 04	 mov	 eax, DWORD PTR [esi+4]
  00044	8d 56 0c	 lea	 edx, DWORD PTR [esi+12]
  00047	52		 push	 edx
  00048	53		 push	 ebx
  00049	50		 push	 eax
  0004a	51		 push	 ecx
  0004b	89 5d ec	 mov	 DWORD PTR __Ptr$533850[ebp], ebx
  0004e	e8 00 00 00 00	 call	 ??$_Uninitialized_move@PAUKeyMapEffect@ioCrecendoSkill@@PAU12@V?$allocator@UKeyMapEffect@ioCrecendoSkill@@@std@@@std@@YAPAUKeyMapEffect@ioCrecendoSkill@@PAU12@00AAV?$allocator@UKeyMapEffect@ioCrecendoSkill@@@0@@Z ; std::_Uninitialized_move<ioCrecendoSkill::KeyMapEffect *,ioCrecendoSkill::KeyMapEffect *,std::allocator<ioCrecendoSkill::KeyMapEffect> >

; 758  : 			_CATCH_END
; 759  : 
; 760  : 			size_type _Size = size();

  00053	8b 4e 04	 mov	 ecx, DWORD PTR [esi+4]
  00056	8b 06		 mov	 eax, DWORD PTR [esi]
  00058	83 4d fc ff	 or	 DWORD PTR __$EHRec$[ebp+12], -1
  0005c	8b f9		 mov	 edi, ecx
  0005e	2b f8		 sub	 edi, eax
  00060	83 c4 18	 add	 esp, 24			; 00000018H
  00063	c1 ff 03	 sar	 edi, 3
  00066	85 c0		 test	 eax, eax
  00068	74 11		 je	 SHORT $LN48@reserve

; 761  : 			if (this->_Myfirst != 0)

  0006a	eb 03		 jmp	 SHORT $LN55@reserve

; 762  : 				{	// destroy and deallocate old array
; 763  : 				_Destroy(this->_Myfirst, this->_Mylast);

$LL39@reserve:
  0006c	83 c0 08	 add	 eax, 8
$LN55@reserve:
  0006f	3b c1		 cmp	 eax, ecx
  00071	75 f9		 jne	 SHORT $LL39@reserve

; 764  : 				this->_Alval.deallocate(this->_Myfirst,
; 765  : 					this->_Myend - this->_Myfirst);

  00073	ff 36		 push	 DWORD PTR [esi]
  00075	e8 00 00 00 00	 call	 ??3@YAXPAX@Z		; operator delete
  0007a	59		 pop	 ecx
$LN48@reserve:

; 766  : 				}
; 767  : 
; 768  : 			this->_Orphan_all();

  0007b	8b ce		 mov	 ecx, esi
  0007d	ff 15 00 00 00
	00		 call	 DWORD PTR __imp_?_Orphan_all@_Container_base0@std@@QAEXXZ

; 769  : 			this->_Myend = _Ptr + _Count;

  00083	8b 45 08	 mov	 eax, DWORD PTR __Count$[ebp]
  00086	8d 04 c3	 lea	 eax, DWORD PTR [ebx+eax*8]
  00089	89 46 08	 mov	 DWORD PTR [esi+8], eax

; 770  : 			this->_Mylast = _Ptr + _Size;

  0008c	8d 04 fb	 lea	 eax, DWORD PTR [ebx+edi*8]
  0008f	89 46 04	 mov	 DWORD PTR [esi+4], eax

; 771  : 			this->_Myfirst = _Ptr;

  00092	89 1e		 mov	 DWORD PTR [esi], ebx
$LN3@reserve:

; 772  : 			}
; 773  : 		}

  00094	e8 00 00 00 00	 call	 __EH_epilog3
  00099	c2 04 00	 ret	 4
__catch$?reserve@?$vector@UKeyMapEffect@ioCrecendoSkill@@V?$allocator@UKeyMapEffect@ioCrecendoSkill@@@std@@@std@@QAEXI@Z$0:

; 755  : 			_CATCH_ALL
; 756  : 			this->_Alval.deallocate(_Ptr, _Count);

  0009c	ff 75 ec	 push	 DWORD PTR __Ptr$533850[ebp]
  0009f	e8 00 00 00 00	 call	 ??3@YAXPAX@Z		; operator delete
  000a4	59		 pop	 ecx

; 757  : 			_RERAISE;

  000a5	6a 00		 push	 0
  000a7	6a 00		 push	 0
  000a9	e8 00 00 00 00	 call	 __CxxThrowException@8
$LN57@reserve:
$LN54@reserve:
  000ae	cc		 int	 3
_TEXT	ENDS
;	COMDAT text$x
text$x	SEGMENT
__ehhandler$?reserve@?$vector@UKeyMapEffect@ioCrecendoSkill@@V?$allocator@UKeyMapEffect@ioCrecendoSkill@@@std@@@std@@QAEXI@Z:
  00000	8b 54 24 08	 mov	 edx, DWORD PTR [esp+8]
  00004	8d 42 0c	 lea	 eax, DWORD PTR [edx+12]
  00007	8b 4a e8	 mov	 ecx, DWORD PTR [edx-24]
  0000a	33 c8		 xor	 ecx, eax
  0000c	e8 00 00 00 00	 call	 @__security_check_cookie@4
  00011	b8 00 00 00 00	 mov	 eax, OFFSET __ehfuncinfo$?reserve@?$vector@UKeyMapEffect@ioCrecendoSkill@@V?$allocator@UKeyMapEffect@ioCrecendoSkill@@@std@@@std@@QAEXI@Z
  00016	e9 00 00 00 00	 jmp	 ___CxxFrameHandler3
text$x	ENDS
?reserve@?$vector@UKeyMapEffect@ioCrecendoSkill@@V?$allocator@UKeyMapEffect@ioCrecendoSkill@@@std@@@std@@QAEXI@Z ENDP ; std::vector<ioCrecendoSkill::KeyMapEffect,std::allocator<ioCrecendoSkill::KeyMapEffect> >::reserve
PUBLIC	??$_Ucopy@V?$_Vector_const_iterator@V?$_Vector_val@UWeaponInfo@@V?$allocator@UWeaponInfo@@@std@@@std@@@std@@@?$vector@UWeaponInfo@@V?$allocator@UWeaponInfo@@@std@@@std@@IAEPAUWeaponInfo@@V?$_Vector_const_iterator@V?$_Vector_val@UWeaponInfo@@V?$allocator@UWeaponInfo@@@std@@@std@@@1@0PAU2@@Z ; std::vector<WeaponInfo,std::allocator<WeaponInfo> >::_Ucopy<std::_Vector_const_iterator<std::_Vector_val<WeaponInfo,std::allocator<WeaponInfo> > > >
; Function compile flags: /Ogsp
;	COMDAT ??$_Ucopy@V?$_Vector_const_iterator@V?$_Vector_val@UWeaponInfo@@V?$allocator@UWeaponInfo@@@std@@@std@@@std@@@?$vector@UWeaponInfo@@V?$allocator@UWeaponInfo@@@std@@@std@@IAEPAUWeaponInfo@@V?$_Vector_const_iterator@V?$_Vector_val@UWeaponInfo@@V?$allocator@UWeaponInfo@@@std@@@std@@@1@0PAU2@@Z
_TEXT	SEGMENT
__First$ = 8						; size = 4
__Last$ = 12						; size = 4
__Cat$542647 = 16					; size = 1
__Ptr$ = 16						; size = 4
??$_Ucopy@V?$_Vector_const_iterator@V?$_Vector_val@UWeaponInfo@@V?$allocator@UWeaponInfo@@@std@@@std@@@std@@@?$vector@UWeaponInfo@@V?$allocator@UWeaponInfo@@@std@@@std@@IAEPAUWeaponInfo@@V?$_Vector_const_iterator@V?$_Vector_val@UWeaponInfo@@V?$allocator@UWeaponInfo@@@std@@@std@@@1@0PAU2@@Z PROC ; std::vector<WeaponInfo,std::allocator<WeaponInfo> >::_Ucopy<std::_Vector_const_iterator<std::_Vector_val<WeaponInfo,std::allocator<WeaponInfo> > > >, COMDAT
; _this$ = ecx

; 1315 : 		pointer _Ucopy(_Iter _First, _Iter _Last, pointer _Ptr)

  00000	55		 push	 ebp
  00001	8b ec		 mov	 ebp, esp

; 1316 : 		{	// copy initializing [_First, _Last), using allocator
; 1317 : 		return (_Uninitialized_copy(_First, _Last,
; 1318 : 			_Ptr, this->_Alval));

  00003	ff 75 10	 push	 DWORD PTR __Cat$542647[ebp]
  00006	83 c1 0c	 add	 ecx, 12			; 0000000cH
  00009	51		 push	 ecx
  0000a	ff 75 10	 push	 DWORD PTR __Ptr$[ebp]
  0000d	ff 75 0c	 push	 DWORD PTR __Last$[ebp]
  00010	ff 75 08	 push	 DWORD PTR __First$[ebp]
  00013	e8 00 00 00 00	 call	 ??$_Uninit_copy@V?$_Vector_const_iterator@V?$_Vector_val@UWeaponInfo@@V?$allocator@UWeaponInfo@@@std@@@std@@@std@@PAUWeaponInfo@@V?$allocator@UWeaponInfo@@@2@@std@@YAPAUWeaponInfo@@V?$_Vector_const_iterator@V?$_Vector_val@UWeaponInfo@@V?$allocator@UWeaponInfo@@@std@@@std@@@0@0PAU1@AAV?$allocator@UWeaponInfo@@@0@U_Nonscalar_ptr_iterator_tag@0@@Z ; std::_Uninit_copy<std::_Vector_const_iterator<std::_Vector_val<WeaponInfo,std::allocator<WeaponInfo> > >,WeaponInfo *,std::allocator<WeaponInfo> >
  00018	83 c4 14	 add	 esp, 20			; 00000014H

; 1319 : 		}

  0001b	5d		 pop	 ebp
  0001c	c2 0c 00	 ret	 12			; 0000000cH
??$_Ucopy@V?$_Vector_const_iterator@V?$_Vector_val@UWeaponInfo@@V?$allocator@UWeaponInfo@@@std@@@std@@@std@@@?$vector@UWeaponInfo@@V?$allocator@UWeaponInfo@@@std@@@std@@IAEPAUWeaponInfo@@V?$_Vector_const_iterator@V?$_Vector_val@UWeaponInfo@@V?$allocator@UWeaponInfo@@@std@@@std@@@1@0PAU2@@Z ENDP ; std::vector<WeaponInfo,std::allocator<WeaponInfo> >::_Ucopy<std::_Vector_const_iterator<std::_Vector_val<WeaponInfo,std::allocator<WeaponInfo> > > >
_TEXT	ENDS
PUBLIC	?_Tidy@?$vector@UForceInfo@@V?$allocator@UForceInfo@@@std@@@std@@IAEXXZ ; std::vector<ForceInfo,std::allocator<ForceInfo> >::_Tidy
; Function compile flags: /Ogsp
;	COMDAT ?_Tidy@?$vector@UForceInfo@@V?$allocator@UForceInfo@@@std@@@std@@IAEXXZ
_TEXT	SEGMENT
?_Tidy@?$vector@UForceInfo@@V?$allocator@UForceInfo@@@std@@@std@@IAEXXZ PROC ; std::vector<ForceInfo,std::allocator<ForceInfo> >::_Tidy, COMDAT
; _this$ = ecx

; 1301 : 		{	// free all storage

  00000	56		 push	 esi
  00001	8b f1		 mov	 esi, ecx

; 1302 : 		if (this->_Myfirst != 0)

  00003	83 3e 00	 cmp	 DWORD PTR [esi], 0
  00006	74 0e		 je	 SHORT $LN21@Tidy@2

; 1303 : 			{	// something to free, destroy and deallocate it
; 1304 : 			this->_Orphan_all();

  00008	ff 15 00 00 00
	00		 call	 DWORD PTR __imp_?_Orphan_all@_Container_base0@std@@QAEXXZ

; 1305 : 			_Destroy(this->_Myfirst, this->_Mylast);
; 1306 : 			this->_Alval.deallocate(this->_Myfirst,
; 1307 : 				this->_Myend - this->_Myfirst);

  0000e	ff 36		 push	 DWORD PTR [esi]
  00010	e8 00 00 00 00	 call	 ??3@YAXPAX@Z		; operator delete
  00015	59		 pop	 ecx
$LN21@Tidy@2:

; 1308 : 			}
; 1309 : 		this->_Myfirst = 0;

  00016	83 26 00	 and	 DWORD PTR [esi], 0

; 1310 : 		this->_Mylast = 0;

  00019	83 66 04 00	 and	 DWORD PTR [esi+4], 0

; 1311 : 		this->_Myend = 0;

  0001d	83 66 08 00	 and	 DWORD PTR [esi+8], 0
  00021	5e		 pop	 esi

; 1312 : 		}

  00022	c3		 ret	 0
?_Tidy@?$vector@UForceInfo@@V?$allocator@UForceInfo@@@std@@@std@@IAEXXZ ENDP ; std::vector<ForceInfo,std::allocator<ForceInfo> >::_Tidy
_TEXT	ENDS
PUBLIC	?_Destroy@?$vector@UWeaponInfo@@V?$allocator@UWeaponInfo@@@std@@@std@@IAEXPAUWeaponInfo@@0@Z ; std::vector<WeaponInfo,std::allocator<WeaponInfo> >::_Destroy
; Function compile flags: /Ogsp
;	COMDAT ?_Destroy@?$vector@UWeaponInfo@@V?$allocator@UWeaponInfo@@@std@@@std@@IAEXPAUWeaponInfo@@0@Z
_TEXT	SEGMENT
__First$ = 8						; size = 4
__Last$ = 12						; size = 4
?_Destroy@?$vector@UWeaponInfo@@V?$allocator@UWeaponInfo@@@std@@@std@@IAEXPAUWeaponInfo@@0@Z PROC ; std::vector<WeaponInfo,std::allocator<WeaponInfo> >::_Destroy, COMDAT
; _this$ = ecx

; 1269 : 		{	// destroy [_First, _Last) using allocator

  00000	55		 push	 ebp
  00001	8b ec		 mov	 ebp, esp

; 1270 : 		_Destroy_range(_First, _Last, this->_Alval);

  00003	83 c1 0c	 add	 ecx, 12			; 0000000cH
  00006	51		 push	 ecx
  00007	ff 75 0c	 push	 DWORD PTR __Last$[ebp]
  0000a	ff 75 08	 push	 DWORD PTR __First$[ebp]
  0000d	e8 00 00 00 00	 call	 ??$_Destroy_range@V?$allocator@UWeaponInfo@@@std@@@std@@YAXPAUWeaponInfo@@0AAV?$allocator@UWeaponInfo@@@0@@Z ; std::_Destroy_range<std::allocator<WeaponInfo> >
  00012	83 c4 0c	 add	 esp, 12			; 0000000cH

; 1271 : 		}

  00015	5d		 pop	 ebp
  00016	c2 08 00	 ret	 8
?_Destroy@?$vector@UWeaponInfo@@V?$allocator@UWeaponInfo@@@std@@@std@@IAEXPAUWeaponInfo@@0@Z ENDP ; std::vector<WeaponInfo,std::allocator<WeaponInfo> >::_Destroy
_TEXT	ENDS
PUBLIC	?RemoveKeyEffect@ioCrecendoSkill@@IAEXPAVioBaseChar@@@Z ; ioCrecendoSkill::RemoveKeyEffect
; Function compile flags: /Ogsp
; File d:\lost saga for developer\youtube\tutorial\source\src\lsclient\iocrecendoskill.cpp
;	COMDAT ?RemoveKeyEffect@ioCrecendoSkill@@IAEXPAVioBaseChar@@@Z
_TEXT	SEGMENT
$T542739 = 8						; size = 4
_pChar$ = 8						; size = 4
?RemoveKeyEffect@ioCrecendoSkill@@IAEXPAVioBaseChar@@@Z PROC ; ioCrecendoSkill::RemoveKeyEffect, COMDAT
; _this$ = ecx

; 613  : {

  00000	55		 push	 ebp
  00001	8b ec		 mov	 ebp, esp
  00003	56		 push	 esi

; 614  : 	if( !m_KeyMapEffectVec.empty() )

  00004	8d b1 94 11 00
	00		 lea	 esi, DWORD PTR [ecx+4500]
  0000a	8b 06		 mov	 eax, DWORD PTR [esi]
  0000c	3b 46 04	 cmp	 eax, DWORD PTR [esi+4]
  0000f	74 1d		 je	 SHORT $LN1@RemoveKeyE

; 615  : 	{
; 616  : 		const KeyMapEffect& rkInfo = *m_KeyMapEffectVec.begin();
; 617  : 		if( pChar )

  00011	8b 4d 08	 mov	 ecx, DWORD PTR _pChar$[ebp]
  00014	85 c9		 test	 ecx, ecx
  00016	74 16		 je	 SHORT $LN1@RemoveKeyE

; 618  : 		{
; 619  : 			pChar->EndMapEffect( rkInfo.m_MapEffectID, false );

  00018	6a 00		 push	 0
  0001a	ff 30		 push	 DWORD PTR [eax]
  0001c	e8 00 00 00 00	 call	 ?EndMapEffect@ioBaseChar@@QAEXK_N@Z ; ioBaseChar::EndMapEffect

; 620  : 			m_KeyMapEffectVec.erase( m_KeyMapEffectVec.begin() );

  00021	ff 36		 push	 DWORD PTR [esi]
  00023	8d 45 08	 lea	 eax, DWORD PTR $T542739[ebp]
  00026	50		 push	 eax
  00027	8b ce		 mov	 ecx, esi
  00029	e8 00 00 00 00	 call	 ?erase@?$vector@UKeyMapEffect@ioCrecendoSkill@@V?$allocator@UKeyMapEffect@ioCrecendoSkill@@@std@@@std@@QAE?AV?$_Vector_iterator@V?$_Vector_val@UKeyMapEffect@ioCrecendoSkill@@V?$allocator@UKeyMapEffect@ioCrecendoSkill@@@std@@@std@@@2@V?$_Vector_const_iterator@V?$_Vector_val@UKeyMapEffect@ioCrecendoSkill@@V?$allocator@UKeyMapEffect@ioCrecendoSkill@@@std@@@std@@@2@@Z ; std::vector<ioCrecendoSkill::KeyMapEffect,std::allocator<ioCrecendoSkill::KeyMapEffect> >::erase
$LN1@RemoveKeyE:
  0002e	5e		 pop	 esi

; 621  : 		}
; 622  : 	}
; 623  : }

  0002f	5d		 pop	 ebp
  00030	c2 04 00	 ret	 4
?RemoveKeyEffect@ioCrecendoSkill@@IAEXPAVioBaseChar@@@Z ENDP ; ioCrecendoSkill::RemoveKeyEffect
_TEXT	ENDS
PUBLIC	??0?$vector@UForceInfo@@V?$allocator@UForceInfo@@@std@@@std@@QAE@ABV01@@Z ; std::vector<ForceInfo,std::allocator<ForceInfo> >::vector<ForceInfo,std::allocator<ForceInfo> >
;	COMDAT xdata$x
; File c:\program files (x86)\microsoft visual studio 10.0\vc\include\xutility
xdata$x	SEGMENT
__catchsym$??0?$vector@UForceInfo@@V?$allocator@UForceInfo@@@std@@@std@@QAE@ABV01@@Z$2 DD 040H
	DD	00H
	DD	00H
	DD	FLAT:__catch$??0?$vector@UForceInfo@@V?$allocator@UForceInfo@@@std@@@std@@QAE@ABV01@@Z$0
__unwindtable$??0?$vector@UForceInfo@@V?$allocator@UForceInfo@@@std@@@std@@QAE@ABV01@@Z DD 0ffffffffH
	DD	00H
	DD	0ffffffffH
	DD	00H
__tryblocktable$??0?$vector@UForceInfo@@V?$allocator@UForceInfo@@@std@@@std@@QAE@ABV01@@Z DD 00H
	DD	00H
	DD	01H
	DD	01H
	DD	FLAT:__catchsym$??0?$vector@UForceInfo@@V?$allocator@UForceInfo@@@std@@@std@@QAE@ABV01@@Z$2
__ehfuncinfo$??0?$vector@UForceInfo@@V?$allocator@UForceInfo@@@std@@@std@@QAE@ABV01@@Z DD 019930522H
	DD	02H
	DD	FLAT:__unwindtable$??0?$vector@UForceInfo@@V?$allocator@UForceInfo@@@std@@@std@@QAE@ABV01@@Z
	DD	01H
	DD	FLAT:__tryblocktable$??0?$vector@UForceInfo@@V?$allocator@UForceInfo@@@std@@@std@@QAE@ABV01@@Z
	DD	2 DUP(00H)
	DD	00H
	DD	01H
; Function compile flags: /Ogsp
; File c:\program files (x86)\microsoft visual studio 10.0\vc\include\vector
xdata$x	ENDS
;	COMDAT ??0?$vector@UForceInfo@@V?$allocator@UForceInfo@@@std@@@std@@QAE@ABV01@@Z
_TEXT	SEGMENT
_this$ = -20						; size = 4
__$EHRec$ = -16						; size = 16
__Cat$542880 = 8					; size = 1
__Right$ = 8						; size = 4
??0?$vector@UForceInfo@@V?$allocator@UForceInfo@@@std@@@std@@QAE@ABV01@@Z PROC ; std::vector<ForceInfo,std::allocator<ForceInfo> >::vector<ForceInfo,std::allocator<ForceInfo> >, COMDAT
; _this$ = ecx

; 535  : 		{	// construct by copying _Right

  00000	6a 08		 push	 8
  00002	b8 00 00 00 00	 mov	 eax, __ehhandler$??0?$vector@UForceInfo@@V?$allocator@UForceInfo@@@std@@@std@@QAE@ABV01@@Z
  00007	e8 00 00 00 00	 call	 __EH_prolog3_catch
  0000c	8b f1		 mov	 esi, ecx
  0000e	89 75 ec	 mov	 DWORD PTR _this$[ebp], esi

; 536  : 		if (_Buy(_Right.size()))

  00011	8b 7d 08	 mov	 edi, DWORD PTR __Right$[ebp]
  00014	33 db		 xor	 ebx, ebx
  00016	89 1e		 mov	 DWORD PTR [esi], ebx
  00018	89 5e 04	 mov	 DWORD PTR [esi+4], ebx
  0001b	89 5e 08	 mov	 DWORD PTR [esi+8], ebx
  0001e	8b 47 04	 mov	 eax, DWORD PTR [edi+4]
  00021	2b 07		 sub	 eax, DWORD PTR [edi]
  00023	6a 0c		 push	 12			; 0000000cH
  00025	59		 pop	 ecx
  00026	99		 cdq
  00027	f7 f9		 idiv	 ecx
  00029	8b ce		 mov	 ecx, esi
  0002b	50		 push	 eax
  0002c	e8 00 00 00 00	 call	 ?_Buy@?$vector@UForceInfo@@V?$allocator@UForceInfo@@@std@@@std@@IAE_NI@Z ; std::vector<ForceInfo,std::allocator<ForceInfo> >::_Buy
  00031	84 c0		 test	 al, al
  00033	74 1f		 je	 SHORT $LN7@vector

; 537  : 			_TRY_BEGIN
; 538  : 			this->_Mylast = _Ucopy(_Right.begin(), _Right.end(),
; 539  : 				this->_Myfirst);

  00035	ff 75 08	 push	 DWORD PTR __Cat$542880[ebp]
  00038	8b 0e		 mov	 ecx, DWORD PTR [esi]
  0003a	8b 47 04	 mov	 eax, DWORD PTR [edi+4]
  0003d	8b 3f		 mov	 edi, DWORD PTR [edi]
  0003f	8d 56 0c	 lea	 edx, DWORD PTR [esi+12]
  00042	52		 push	 edx
  00043	51		 push	 ecx
  00044	50		 push	 eax
  00045	57		 push	 edi
  00046	89 5d fc	 mov	 DWORD PTR __$EHRec$[ebp+12], ebx
  00049	e8 00 00 00 00	 call	 ??$_Uninit_copy@V?$_Vector_const_iterator@V?$_Vector_val@UForceInfo@@V?$allocator@UForceInfo@@@std@@@std@@@std@@PAUForceInfo@@V?$allocator@UForceInfo@@@2@@std@@YAPAUForceInfo@@V?$_Vector_const_iterator@V?$_Vector_val@UForceInfo@@V?$allocator@UForceInfo@@@std@@@std@@@0@0PAU1@AAV?$allocator@UForceInfo@@@0@U_Nonscalar_ptr_iterator_tag@0@@Z ; std::_Uninit_copy<std::_Vector_const_iterator<std::_Vector_val<ForceInfo,std::allocator<ForceInfo> > >,ForceInfo *,std::allocator<ForceInfo> >
  0004e	83 c4 14	 add	 esp, 20			; 00000014H
  00051	89 46 04	 mov	 DWORD PTR [esi+4], eax
$LN7@vector:

; 543  : 			_CATCH_END
; 544  : 		}

  00054	8b c6		 mov	 eax, esi
  00056	e8 00 00 00 00	 call	 __EH_epilog3
  0005b	c2 04 00	 ret	 4
__catch$??0?$vector@UForceInfo@@V?$allocator@UForceInfo@@@std@@@std@@QAE@ABV01@@Z$0:

; 540  : 			_CATCH_ALL
; 541  : 			_Tidy();

  0005e	8b 4d ec	 mov	 ecx, DWORD PTR _this$[ebp]
  00061	e8 00 00 00 00	 call	 ?_Tidy@?$vector@UForceInfo@@V?$allocator@UForceInfo@@@std@@@std@@IAEXXZ ; std::vector<ForceInfo,std::allocator<ForceInfo> >::_Tidy

; 542  : 			_RERAISE;

  00066	33 db		 xor	 ebx, ebx
  00068	53		 push	 ebx
  00069	53		 push	 ebx
  0006a	e8 00 00 00 00	 call	 __CxxThrowException@8
$LN38@vector:
$LN37@vector:
  0006f	cc		 int	 3
_TEXT	ENDS
;	COMDAT text$x
text$x	SEGMENT
__ehhandler$??0?$vector@UForceInfo@@V?$allocator@UForceInfo@@@std@@@std@@QAE@ABV01@@Z:
  00000	8b 54 24 08	 mov	 edx, DWORD PTR [esp+8]
  00004	8d 42 0c	 lea	 eax, DWORD PTR [edx+12]
  00007	8b 4a e8	 mov	 ecx, DWORD PTR [edx-24]
  0000a	33 c8		 xor	 ecx, eax
  0000c	e8 00 00 00 00	 call	 @__security_check_cookie@4
  00011	b8 00 00 00 00	 mov	 eax, OFFSET __ehfuncinfo$??0?$vector@UForceInfo@@V?$allocator@UForceInfo@@@std@@@std@@QAE@ABV01@@Z
  00016	e9 00 00 00 00	 jmp	 ___CxxFrameHandler3
text$x	ENDS
??0?$vector@UForceInfo@@V?$allocator@UForceInfo@@@std@@@std@@QAE@ABV01@@Z ENDP ; std::vector<ForceInfo,std::allocator<ForceInfo> >::vector<ForceInfo,std::allocator<ForceInfo> >
PUBLIC	?clear@?$vector@UKeyMapEffect@ioCrecendoSkill@@V?$allocator@UKeyMapEffect@ioCrecendoSkill@@@std@@@std@@QAEXXZ ; std::vector<ioCrecendoSkill::KeyMapEffect,std::allocator<ioCrecendoSkill::KeyMapEffect> >::clear
; Function compile flags: /Ogsp
;	COMDAT ?clear@?$vector@UKeyMapEffect@ioCrecendoSkill@@V?$allocator@UKeyMapEffect@ioCrecendoSkill@@@std@@@std@@QAEXXZ
_TEXT	SEGMENT
$T542903 = -4						; size = 4
?clear@?$vector@UKeyMapEffect@ioCrecendoSkill@@V?$allocator@UKeyMapEffect@ioCrecendoSkill@@@std@@@std@@QAEXXZ PROC ; std::vector<ioCrecendoSkill::KeyMapEffect,std::allocator<ioCrecendoSkill::KeyMapEffect> >::clear, COMDAT
; _this$ = ecx

; 1217 : 		{	// erase all

  00000	55		 push	 ebp
  00001	8b ec		 mov	 ebp, esp
  00003	51		 push	 ecx

; 1218 : 		erase(begin(), end());

  00004	8b 41 04	 mov	 eax, DWORD PTR [ecx+4]
  00007	8b 11		 mov	 edx, DWORD PTR [ecx]
  00009	50		 push	 eax
  0000a	52		 push	 edx
  0000b	8d 45 fc	 lea	 eax, DWORD PTR $T542903[ebp]
  0000e	50		 push	 eax
  0000f	e8 00 00 00 00	 call	 ?erase@?$vector@UKeyMapEffect@ioCrecendoSkill@@V?$allocator@UKeyMapEffect@ioCrecendoSkill@@@std@@@std@@QAE?AV?$_Vector_iterator@V?$_Vector_val@UKeyMapEffect@ioCrecendoSkill@@V?$allocator@UKeyMapEffect@ioCrecendoSkill@@@std@@@std@@@2@V?$_Vector_const_iterator@V?$_Vector_val@UKeyMapEffect@ioCrecendoSkill@@V?$allocator@UKeyMapEffect@ioCrecendoSkill@@@std@@@std@@@2@0@Z ; std::vector<ioCrecendoSkill::KeyMapEffect,std::allocator<ioCrecendoSkill::KeyMapEffect> >::erase

; 1219 : 		}

  00014	c9		 leave
  00015	c3		 ret	 0
?clear@?$vector@UKeyMapEffect@ioCrecendoSkill@@V?$allocator@UKeyMapEffect@ioCrecendoSkill@@@std@@@std@@QAEXXZ ENDP ; std::vector<ioCrecendoSkill::KeyMapEffect,std::allocator<ioCrecendoSkill::KeyMapEffect> >::clear
_TEXT	ENDS
PUBLIC	?_Reserve@?$vector@UKeyMapEffect@ioCrecendoSkill@@V?$allocator@UKeyMapEffect@ioCrecendoSkill@@@std@@@std@@IAEXI@Z ; std::vector<ioCrecendoSkill::KeyMapEffect,std::allocator<ioCrecendoSkill::KeyMapEffect> >::_Reserve
; Function compile flags: /Ogsp
;	COMDAT ?_Reserve@?$vector@UKeyMapEffect@ioCrecendoSkill@@V?$allocator@UKeyMapEffect@ioCrecendoSkill@@@std@@@std@@IAEXI@Z
_TEXT	SEGMENT
__Count$ = 8						; size = 4
?_Reserve@?$vector@UKeyMapEffect@ioCrecendoSkill@@V?$allocator@UKeyMapEffect@ioCrecendoSkill@@@std@@@std@@IAEXI@Z PROC ; std::vector<ioCrecendoSkill::KeyMapEffect,std::allocator<ioCrecendoSkill::KeyMapEffect> >::_Reserve, COMDAT
; _this$ = ecx

; 1290 : 		{	// ensure room for _Count new elements, grow exponentially

  00000	55		 push	 ebp
  00001	8b ec		 mov	 ebp, esp
  00003	56		 push	 esi
  00004	8b f1		 mov	 esi, ecx

; 1291 : 		size_type _Size = size();

  00006	8b 0e		 mov	 ecx, DWORD PTR [esi]
  00008	8b 46 04	 mov	 eax, DWORD PTR [esi+4]
  0000b	2b c1		 sub	 eax, ecx

; 1292 : 		if (max_size() - _Count < _Size)

  0000d	ba ff ff ff 1f	 mov	 edx, 536870911		; 1fffffffH
  00012	2b 55 08	 sub	 edx, DWORD PTR __Count$[ebp]
  00015	c1 f8 03	 sar	 eax, 3
  00018	3b d0		 cmp	 edx, eax
  0001a	73 0b		 jae	 SHORT $LN4@Reserve

; 1293 : 			_Xlen();

  0001c	68 00 00 00 00	 push	 OFFSET ??_C@_0BD@OLBABOEK@vector?$DMT?$DO?5too?5long?$AA@
  00021	ff 15 00 00 00
	00		 call	 DWORD PTR __imp_?_Xlength_error@std@@YAXPBD@Z
$LN21@Reserve:
$LN4@Reserve:

; 1294 : 		else if ((_Size += _Count) <= capacity())

  00027	8b 56 08	 mov	 edx, DWORD PTR [esi+8]
  0002a	03 45 08	 add	 eax, DWORD PTR __Count$[ebp]
  0002d	2b d1		 sub	 edx, ecx
  0002f	c1 fa 03	 sar	 edx, 3
  00032	3b c2		 cmp	 eax, edx
  00034	76 10		 jbe	 SHORT $LN1@Reserve

; 1295 : 			;
; 1296 : 		else
; 1297 : 			reserve(_Grow_to(_Size));

  00036	50		 push	 eax
  00037	8b ce		 mov	 ecx, esi
  00039	e8 00 00 00 00	 call	 ?_Grow_to@?$vector@UKeyMapEffect@ioCrecendoSkill@@V?$allocator@UKeyMapEffect@ioCrecendoSkill@@@std@@@std@@IBEII@Z ; std::vector<ioCrecendoSkill::KeyMapEffect,std::allocator<ioCrecendoSkill::KeyMapEffect> >::_Grow_to
  0003e	50		 push	 eax
  0003f	8b ce		 mov	 ecx, esi
  00041	e8 00 00 00 00	 call	 ?reserve@?$vector@UKeyMapEffect@ioCrecendoSkill@@V?$allocator@UKeyMapEffect@ioCrecendoSkill@@@std@@@std@@QAEXI@Z ; std::vector<ioCrecendoSkill::KeyMapEffect,std::allocator<ioCrecendoSkill::KeyMapEffect> >::reserve
$LN1@Reserve:
  00046	5e		 pop	 esi

; 1298 : 		}

  00047	5d		 pop	 ebp
  00048	c2 04 00	 ret	 4
$LN20@Reserve:
?_Reserve@?$vector@UKeyMapEffect@ioCrecendoSkill@@V?$allocator@UKeyMapEffect@ioCrecendoSkill@@@std@@@std@@IAEXI@Z ENDP ; std::vector<ioCrecendoSkill::KeyMapEffect,std::allocator<ioCrecendoSkill::KeyMapEffect> >::_Reserve
_TEXT	ENDS
PUBLIC	??$emplace_back@AAUKeyMapEffect@ioCrecendoSkill@@@?$vector@UKeyMapEffect@ioCrecendoSkill@@V?$allocator@UKeyMapEffect@ioCrecendoSkill@@@std@@@std@@QAEXAAUKeyMapEffect@ioCrecendoSkill@@@Z ; std::vector<ioCrecendoSkill::KeyMapEffect,std::allocator<ioCrecendoSkill::KeyMapEffect> >::emplace_back<ioCrecendoSkill::KeyMapEffect &>
; Function compile flags: /Ogsp
;	COMDAT ??$emplace_back@AAUKeyMapEffect@ioCrecendoSkill@@@?$vector@UKeyMapEffect@ioCrecendoSkill@@V?$allocator@UKeyMapEffect@ioCrecendoSkill@@@std@@@std@@QAEXAAUKeyMapEffect@ioCrecendoSkill@@@Z
_TEXT	SEGMENT
__Val$ = 8						; size = 4
??$emplace_back@AAUKeyMapEffect@ioCrecendoSkill@@@?$vector@UKeyMapEffect@ioCrecendoSkill@@V?$allocator@UKeyMapEffect@ioCrecendoSkill@@@std@@@std@@QAEXAAUKeyMapEffect@ioCrecendoSkill@@@Z PROC ; std::vector<ioCrecendoSkill::KeyMapEffect,std::allocator<ioCrecendoSkill::KeyMapEffect> >::emplace_back<ioCrecendoSkill::KeyMapEffect &>, COMDAT
; _this$ = ecx

; 661  : 		void emplace_back(_Valty&& _Val)

  00000	55		 push	 ebp
  00001	8b ec		 mov	 ebp, esp
  00003	56		 push	 esi
  00004	8b f1		 mov	 esi, ecx

; 662  : 		{	// insert element at end
; 663  : 		if (this->_Mylast == this->_Myend)

  00006	8b 46 04	 mov	 eax, DWORD PTR [esi+4]
  00009	3b 46 08	 cmp	 eax, DWORD PTR [esi+8]
  0000c	75 07		 jne	 SHORT $LN1@emplace_ba

; 664  : 			_Reserve(1);

  0000e	6a 01		 push	 1
  00010	e8 00 00 00 00	 call	 ?_Reserve@?$vector@UKeyMapEffect@ioCrecendoSkill@@V?$allocator@UKeyMapEffect@ioCrecendoSkill@@@std@@@std@@IAEXI@Z ; std::vector<ioCrecendoSkill::KeyMapEffect,std::allocator<ioCrecendoSkill::KeyMapEffect> >::_Reserve
$LN1@emplace_ba:

; 665  : 		_Orphan_range(this->_Mylast, this->_Mylast);
; 666  : 		_Cons_val(this->_Alval,
; 667  : 			this->_Mylast,
; 668  : 			_STD forward<_Valty>(_Val));

  00015	ff 75 08	 push	 DWORD PTR __Val$[ebp]
  00018	8d 46 0c	 lea	 eax, DWORD PTR [esi+12]
  0001b	ff 76 04	 push	 DWORD PTR [esi+4]
  0001e	50		 push	 eax
  0001f	e8 00 00 00 00	 call	 ??$_Cons_val@V?$allocator@UKeyMapEffect@ioCrecendoSkill@@@std@@UKeyMapEffect@ioCrecendoSkill@@AAU34@@std@@YAXAAV?$allocator@UKeyMapEffect@ioCrecendoSkill@@@0@PAUKeyMapEffect@ioCrecendoSkill@@AAU23@@Z ; std::_Cons_val<std::allocator<ioCrecendoSkill::KeyMapEffect>,ioCrecendoSkill::KeyMapEffect,ioCrecendoSkill::KeyMapEffect &>
  00024	83 c4 0c	 add	 esp, 12			; 0000000cH

; 669  : 		++this->_Mylast;

  00027	83 46 04 08	 add	 DWORD PTR [esi+4], 8
  0002b	5e		 pop	 esi

; 670  : 		}

  0002c	5d		 pop	 ebp
  0002d	c2 04 00	 ret	 4
??$emplace_back@AAUKeyMapEffect@ioCrecendoSkill@@@?$vector@UKeyMapEffect@ioCrecendoSkill@@V?$allocator@UKeyMapEffect@ioCrecendoSkill@@@std@@@std@@QAEXAAUKeyMapEffect@ioCrecendoSkill@@@Z ENDP ; std::vector<ioCrecendoSkill::KeyMapEffect,std::allocator<ioCrecendoSkill::KeyMapEffect> >::emplace_back<ioCrecendoSkill::KeyMapEffect &>
_TEXT	ENDS
PUBLIC	??1?$vector@UForceInfo@@V?$allocator@UForceInfo@@@std@@@std@@QAE@XZ ; std::vector<ForceInfo,std::allocator<ForceInfo> >::~vector<ForceInfo,std::allocator<ForceInfo> >
; Function compile flags: /Ogsp
;	COMDAT ??1?$vector@UForceInfo@@V?$allocator@UForceInfo@@@std@@@std@@QAE@XZ
_TEXT	SEGMENT
??1?$vector@UForceInfo@@V?$allocator@UForceInfo@@@std@@@std@@QAE@XZ PROC ; std::vector<ForceInfo,std::allocator<ForceInfo> >::~vector<ForceInfo,std::allocator<ForceInfo> >, COMDAT
; _this$ = ecx

; 705  : 		_Tidy();

  00000	e9 00 00 00 00	 jmp	 ?_Tidy@?$vector@UForceInfo@@V?$allocator@UForceInfo@@@std@@@std@@IAEXXZ ; std::vector<ForceInfo,std::allocator<ForceInfo> >::_Tidy
??1?$vector@UForceInfo@@V?$allocator@UForceInfo@@@std@@@std@@QAE@XZ ENDP ; std::vector<ForceInfo,std::allocator<ForceInfo> >::~vector<ForceInfo,std::allocator<ForceInfo> >
_TEXT	ENDS
PUBLIC	?_Tidy@?$vector@UWeaponInfo@@V?$allocator@UWeaponInfo@@@std@@@std@@IAEXXZ ; std::vector<WeaponInfo,std::allocator<WeaponInfo> >::_Tidy
; Function compile flags: /Ogsp
;	COMDAT ?_Tidy@?$vector@UWeaponInfo@@V?$allocator@UWeaponInfo@@@std@@@std@@IAEXXZ
_TEXT	SEGMENT
?_Tidy@?$vector@UWeaponInfo@@V?$allocator@UWeaponInfo@@@std@@@std@@IAEXXZ PROC ; std::vector<WeaponInfo,std::allocator<WeaponInfo> >::_Tidy, COMDAT
; _this$ = ecx

; 1301 : 		{	// free all storage

  00000	56		 push	 esi
  00001	8b f1		 mov	 esi, ecx

; 1302 : 		if (this->_Myfirst != 0)

  00003	83 3e 00	 cmp	 DWORD PTR [esi], 0
  00006	74 1e		 je	 SHORT $LN6@Tidy@3

; 1303 : 			{	// something to free, destroy and deallocate it
; 1304 : 			this->_Orphan_all();

  00008	ff 15 00 00 00
	00		 call	 DWORD PTR __imp_?_Orphan_all@_Container_base0@std@@QAEXXZ

; 1305 : 			_Destroy(this->_Myfirst, this->_Mylast);

  0000e	8d 46 0c	 lea	 eax, DWORD PTR [esi+12]
  00011	50		 push	 eax
  00012	ff 76 04	 push	 DWORD PTR [esi+4]
  00015	ff 36		 push	 DWORD PTR [esi]
  00017	e8 00 00 00 00	 call	 ??$_Destroy_range@V?$allocator@UWeaponInfo@@@std@@@std@@YAXPAUWeaponInfo@@0AAV?$allocator@UWeaponInfo@@@0@@Z ; std::_Destroy_range<std::allocator<WeaponInfo> >

; 1306 : 			this->_Alval.deallocate(this->_Myfirst,
; 1307 : 				this->_Myend - this->_Myfirst);

  0001c	ff 36		 push	 DWORD PTR [esi]
  0001e	e8 00 00 00 00	 call	 ??3@YAXPAX@Z		; operator delete
  00023	83 c4 10	 add	 esp, 16			; 00000010H
$LN6@Tidy@3:

; 1308 : 			}
; 1309 : 		this->_Myfirst = 0;

  00026	83 26 00	 and	 DWORD PTR [esi], 0

; 1310 : 		this->_Mylast = 0;

  00029	83 66 04 00	 and	 DWORD PTR [esi+4], 0

; 1311 : 		this->_Myend = 0;

  0002d	83 66 08 00	 and	 DWORD PTR [esi+8], 0
  00031	5e		 pop	 esi

; 1312 : 		}

  00032	c3		 ret	 0
?_Tidy@?$vector@UWeaponInfo@@V?$allocator@UWeaponInfo@@@std@@@std@@IAEXXZ ENDP ; std::vector<WeaponInfo,std::allocator<WeaponInfo> >::_Tidy
_TEXT	ENDS
PUBLIC	?DestroyKeyEffect@ioCrecendoSkill@@IAEXPAVioBaseChar@@@Z ; ioCrecendoSkill::DestroyKeyEffect
; Function compile flags: /Ogsp
; File d:\lost saga for developer\youtube\tutorial\source\src\lsclient\iocrecendoskill.cpp
;	COMDAT ?DestroyKeyEffect@ioCrecendoSkill@@IAEXPAVioBaseChar@@@Z
_TEXT	SEGMENT
$T543158 = -4						; size = 4
_pChar$ = 8						; size = 4
?DestroyKeyEffect@ioCrecendoSkill@@IAEXPAVioBaseChar@@@Z PROC ; ioCrecendoSkill::DestroyKeyEffect, COMDAT
; _this$ = ecx

; 635  : {

  00000	55		 push	 ebp
  00001	8b ec		 mov	 ebp, esp
  00003	51		 push	 ecx
  00004	53		 push	 ebx
  00005	56		 push	 esi
  00006	57		 push	 edi
  00007	8b f9		 mov	 edi, ecx

; 636  : 	KeyMapEffectVec::iterator iter = m_KeyMapEffectVec.begin();

  00009	8b 9f 94 11 00
	00		 mov	 ebx, DWORD PTR [edi+4500]
  0000f	eb 13		 jmp	 SHORT $LN60@DestroyKey

; 637  : 	for( ; iter != m_KeyMapEffectVec.end(); ++iter )

$LL18@DestroyKey:

; 638  : 	{
; 639  : 		KeyMapEffect& rkInfo = *iter;
; 640  : 		if( pChar )

  00011	8b 4d 08	 mov	 ecx, DWORD PTR _pChar$[ebp]
  00014	85 c9		 test	 ecx, ecx
  00016	74 09		 je	 SHORT $LN4@DestroyKey

; 641  : 			pChar->EndMapEffect( rkInfo.m_MapEffectID, false );

  00018	6a 00		 push	 0
  0001a	ff 33		 push	 DWORD PTR [ebx]
  0001c	e8 00 00 00 00	 call	 ?EndMapEffect@ioBaseChar@@QAEXK_N@Z ; ioBaseChar::EndMapEffect
$LN4@DestroyKey:

; 637  : 	for( ; iter != m_KeyMapEffectVec.end(); ++iter )

  00021	83 c3 08	 add	 ebx, 8
$LN60@DestroyKey:
  00024	3b 9f 98 11 00
	00		 cmp	 ebx, DWORD PTR [edi+4504]
  0002a	75 e5		 jne	 SHORT $LL18@DestroyKey

; 642  : 	}
; 643  : 
; 644  : 	m_KeyMapEffectVec.clear();

  0002c	8b 87 98 11 00
	00		 mov	 eax, DWORD PTR [edi+4504]
  00032	8b 8f 94 11 00
	00		 mov	 ecx, DWORD PTR [edi+4500]
  00038	50		 push	 eax
  00039	51		 push	 ecx
  0003a	8d 45 fc	 lea	 eax, DWORD PTR $T543158[ebp]
  0003d	50		 push	 eax
  0003e	8d 8f 94 11 00
	00		 lea	 ecx, DWORD PTR [edi+4500]
  00044	e8 00 00 00 00	 call	 ?erase@?$vector@UKeyMapEffect@ioCrecendoSkill@@V?$allocator@UKeyMapEffect@ioCrecendoSkill@@@std@@@std@@QAE?AV?$_Vector_iterator@V?$_Vector_val@UKeyMapEffect@ioCrecendoSkill@@V?$allocator@UKeyMapEffect@ioCrecendoSkill@@@std@@@std@@@2@V?$_Vector_const_iterator@V?$_Vector_val@UKeyMapEffect@ioCrecendoSkill@@V?$allocator@UKeyMapEffect@ioCrecendoSkill@@@std@@@std@@@2@0@Z ; std::vector<ioCrecendoSkill::KeyMapEffect,std::allocator<ioCrecendoSkill::KeyMapEffect> >::erase

; 645  : 
; 646  : 	if( pChar )

  00049	8b 4d 08	 mov	 ecx, DWORD PTR _pChar$[ebp]
  0004c	85 c9		 test	 ecx, ecx
  0004e	74 0d		 je	 SHORT $LN1@DestroyKey

; 647  : 		pChar->EndMapEffect( m_LastKeyMapEffect.m_MapEffectID, false );

  00050	6a 00		 push	 0
  00052	ff b7 8c 11 00
	00		 push	 DWORD PTR [edi+4492]
  00058	e8 00 00 00 00	 call	 ?EndMapEffect@ioBaseChar@@QAEXK_N@Z ; ioBaseChar::EndMapEffect
$LN1@DestroyKey:

; 648  : 
; 649  : 	m_LastKeyMapEffect.Clear();

  0005d	83 8f 8c 11 00
	00 ff		 or	 DWORD PTR [edi+4492], -1
  00064	83 a7 90 11 00
	00 00		 and	 DWORD PTR [edi+4496], 0
  0006b	5f		 pop	 edi
  0006c	5e		 pop	 esi
  0006d	5b		 pop	 ebx

; 650  : }

  0006e	c9		 leave
  0006f	c2 04 00	 ret	 4
?DestroyKeyEffect@ioCrecendoSkill@@IAEXPAVioBaseChar@@@Z ENDP ; ioCrecendoSkill::DestroyKeyEffect
_TEXT	ENDS
PUBLIC	?OnSkillEnd@ioCrecendoSkill@@UAEXPAVioBaseChar@@@Z ; ioCrecendoSkill::OnSkillEnd
EXTRN	?RestoreSkillWeaponMesh@ioBaseChar@@QAE_NPAVioSkill@@ABVioHashString@@_N2@Z:PROC ; ioBaseChar::RestoreSkillWeaponMesh
EXTRN	?OnSkillEnd@ioAttackSkill@@UAEXPAVioBaseChar@@@Z:PROC ; ioAttackSkill::OnSkillEnd
; Function compile flags: /Ogsp
;	COMDAT ?OnSkillEnd@ioCrecendoSkill@@UAEXPAVioBaseChar@@@Z
_TEXT	SEGMENT
_pChar$ = 8						; size = 4
?OnSkillEnd@ioCrecendoSkill@@UAEXPAVioBaseChar@@@Z PROC	; ioCrecendoSkill::OnSkillEnd, COMDAT
; _this$ = ecx

; 799  : {

  00000	55		 push	 ebp
  00001	8b ec		 mov	 ebp, esp
  00003	53		 push	 ebx

; 800  : 	ioAttackSkill::OnSkillEnd( pChar );

  00004	8b 5d 08	 mov	 ebx, DWORD PTR _pChar$[ebp]
  00007	56		 push	 esi
  00008	57		 push	 edi
  00009	53		 push	 ebx
  0000a	8b f1		 mov	 esi, ecx
  0000c	e8 00 00 00 00	 call	 ?OnSkillEnd@ioAttackSkill@@UAEXPAVioBaseChar@@@Z ; ioAttackSkill::OnSkillEnd

; 801  : 
; 802  : 	if( GetOwnerItem() )

  00011	8b 8e a4 02 00
	00		 mov	 ecx, DWORD PTR [esi+676]
  00017	85 c9		 test	 ecx, ecx
  00019	74 08		 je	 SHORT $LN3@OnSkillEnd

; 803  : 		GetOwnerItem()->ClearCurChargeRateForSkill();

  0001b	8b 01		 mov	 eax, DWORD PTR [ecx]
  0001d	ff 90 84 00 00
	00		 call	 DWORD PTR [eax+132]
$LN3@OnSkillEnd:

; 804  : 
; 805  : 	// 기본무기 장착
; 806  : 	if( m_bUseItemMesh )

  00023	80 be 08 0f 00
	00 00		 cmp	 BYTE PTR [esi+3848], 0
  0002a	74 0b		 je	 SHORT $LN2@OnSkillEnd

; 807  : 	{
; 808  : 		pChar->ShowWeaponItemMesh( true );

  0002c	6a 00		 push	 0
  0002e	6a 01		 push	 1
  00030	8b cb		 mov	 ecx, ebx
  00032	e8 00 00 00 00	 call	 ?ShowWeaponItemMesh@ioBaseChar@@QAEX_N0@Z ; ioBaseChar::ShowWeaponItemMesh
$LN2@OnSkillEnd:

; 809  : 	}
; 810  : 
; 811  : 	if( !m_HandMesh.IsEmpty() )

  00037	8d be f8 0e 00
	00		 lea	 edi, DWORD PTR [esi+3832]
  0003d	8b cf		 mov	 ecx, edi
  0003f	ff 15 00 00 00
	00		 call	 DWORD PTR __imp_?IsEmpty@ioHashString@@QBE_NXZ
  00045	84 c0		 test	 al, al
  00047	75 13		 jne	 SHORT $LN1@OnSkillEnd

; 812  : 	{
; 813  : 		pChar->RestoreSkillWeaponMesh( this, m_HandMesh, m_bVisibleEquipMesh );

  00049	0f b6 86 09 0f
	00 00		 movzx	 eax, BYTE PTR [esi+3849]
  00050	6a 00		 push	 0
  00052	50		 push	 eax
  00053	57		 push	 edi
  00054	56		 push	 esi
  00055	8b cb		 mov	 ecx, ebx
  00057	e8 00 00 00 00	 call	 ?RestoreSkillWeaponMesh@ioBaseChar@@QAE_NPAVioSkill@@ABVioHashString@@_N2@Z ; ioBaseChar::RestoreSkillWeaponMesh
$LN1@OnSkillEnd:

; 814  : 	}
; 815  : 	DestroyKeyEffect( pChar );	

  0005c	53		 push	 ebx
  0005d	8b ce		 mov	 ecx, esi
  0005f	e8 00 00 00 00	 call	 ?DestroyKeyEffect@ioCrecendoSkill@@IAEXPAVioBaseChar@@@Z ; ioCrecendoSkill::DestroyKeyEffect

; 816  : 
; 817  : 	ClearData();

  00064	8b ce		 mov	 ecx, esi
  00066	e8 00 00 00 00	 call	 ?ClearData@ioCrecendoSkill@@IAEXXZ ; ioCrecendoSkill::ClearData
  0006b	5f		 pop	 edi
  0006c	5e		 pop	 esi
  0006d	5b		 pop	 ebx

; 818  : }

  0006e	5d		 pop	 ebp
  0006f	c2 04 00	 ret	 4
?OnSkillEnd@ioCrecendoSkill@@UAEXPAVioBaseChar@@@Z ENDP	; ioCrecendoSkill::OnSkillEnd
_TEXT	ENDS
PUBLIC	??0?$vector@UWeaponInfo@@V?$allocator@UWeaponInfo@@@std@@@std@@QAE@ABV01@@Z ; std::vector<WeaponInfo,std::allocator<WeaponInfo> >::vector<WeaponInfo,std::allocator<WeaponInfo> >
;	COMDAT xdata$x
; File c:\program files (x86)\microsoft visual studio 10.0\vc\include\xutility
xdata$x	SEGMENT
__catchsym$??0?$vector@UWeaponInfo@@V?$allocator@UWeaponInfo@@@std@@@std@@QAE@ABV01@@Z$2 DD 040H
	DD	00H
	DD	00H
	DD	FLAT:__catch$??0?$vector@UWeaponInfo@@V?$allocator@UWeaponInfo@@@std@@@std@@QAE@ABV01@@Z$0
__unwindtable$??0?$vector@UWeaponInfo@@V?$allocator@UWeaponInfo@@@std@@@std@@QAE@ABV01@@Z DD 0ffffffffH
	DD	00H
	DD	0ffffffffH
	DD	00H
__tryblocktable$??0?$vector@UWeaponInfo@@V?$allocator@UWeaponInfo@@@std@@@std@@QAE@ABV01@@Z DD 00H
	DD	00H
	DD	01H
	DD	01H
	DD	FLAT:__catchsym$??0?$vector@UWeaponInfo@@V?$allocator@UWeaponInfo@@@std@@@std@@QAE@ABV01@@Z$2
__ehfuncinfo$??0?$vector@UWeaponInfo@@V?$allocator@UWeaponInfo@@@std@@@std@@QAE@ABV01@@Z DD 019930522H
	DD	02H
	DD	FLAT:__unwindtable$??0?$vector@UWeaponInfo@@V?$allocator@UWeaponInfo@@@std@@@std@@QAE@ABV01@@Z
	DD	01H
	DD	FLAT:__tryblocktable$??0?$vector@UWeaponInfo@@V?$allocator@UWeaponInfo@@@std@@@std@@QAE@ABV01@@Z
	DD	2 DUP(00H)
	DD	00H
	DD	01H
; Function compile flags: /Ogsp
; File c:\program files (x86)\microsoft visual studio 10.0\vc\include\vector
xdata$x	ENDS
;	COMDAT ??0?$vector@UWeaponInfo@@V?$allocator@UWeaponInfo@@@std@@@std@@QAE@ABV01@@Z
_TEXT	SEGMENT
_this$ = -20						; size = 4
__$EHRec$ = -16						; size = 16
__Cat$543271 = 8					; size = 1
__Right$ = 8						; size = 4
??0?$vector@UWeaponInfo@@V?$allocator@UWeaponInfo@@@std@@@std@@QAE@ABV01@@Z PROC ; std::vector<WeaponInfo,std::allocator<WeaponInfo> >::vector<WeaponInfo,std::allocator<WeaponInfo> >, COMDAT
; _this$ = ecx

; 535  : 		{	// construct by copying _Right

  00000	6a 08		 push	 8
  00002	b8 00 00 00 00	 mov	 eax, __ehhandler$??0?$vector@UWeaponInfo@@V?$allocator@UWeaponInfo@@@std@@@std@@QAE@ABV01@@Z
  00007	e8 00 00 00 00	 call	 __EH_prolog3_catch
  0000c	8b f1		 mov	 esi, ecx
  0000e	89 75 ec	 mov	 DWORD PTR _this$[ebp], esi

; 536  : 		if (_Buy(_Right.size()))

  00011	8b 7d 08	 mov	 edi, DWORD PTR __Right$[ebp]
  00014	33 db		 xor	 ebx, ebx
  00016	89 1e		 mov	 DWORD PTR [esi], ebx
  00018	89 5e 04	 mov	 DWORD PTR [esi+4], ebx
  0001b	89 5e 08	 mov	 DWORD PTR [esi+8], ebx
  0001e	8b 47 04	 mov	 eax, DWORD PTR [edi+4]
  00021	2b 07		 sub	 eax, DWORD PTR [edi]
  00023	6a 28		 push	 40			; 00000028H
  00025	59		 pop	 ecx
  00026	99		 cdq
  00027	f7 f9		 idiv	 ecx
  00029	8b ce		 mov	 ecx, esi
  0002b	50		 push	 eax
  0002c	e8 00 00 00 00	 call	 ?_Buy@?$vector@UWeaponInfo@@V?$allocator@UWeaponInfo@@@std@@@std@@IAE_NI@Z ; std::vector<WeaponInfo,std::allocator<WeaponInfo> >::_Buy
  00031	84 c0		 test	 al, al
  00033	74 1f		 je	 SHORT $LN7@vector@2

; 537  : 			_TRY_BEGIN
; 538  : 			this->_Mylast = _Ucopy(_Right.begin(), _Right.end(),
; 539  : 				this->_Myfirst);

  00035	ff 75 08	 push	 DWORD PTR __Cat$543271[ebp]
  00038	8b 0e		 mov	 ecx, DWORD PTR [esi]
  0003a	8b 47 04	 mov	 eax, DWORD PTR [edi+4]
  0003d	8b 3f		 mov	 edi, DWORD PTR [edi]
  0003f	8d 56 0c	 lea	 edx, DWORD PTR [esi+12]
  00042	52		 push	 edx
  00043	51		 push	 ecx
  00044	50		 push	 eax
  00045	57		 push	 edi
  00046	89 5d fc	 mov	 DWORD PTR __$EHRec$[ebp+12], ebx
  00049	e8 00 00 00 00	 call	 ??$_Uninit_copy@V?$_Vector_const_iterator@V?$_Vector_val@UWeaponInfo@@V?$allocator@UWeaponInfo@@@std@@@std@@@std@@PAUWeaponInfo@@V?$allocator@UWeaponInfo@@@2@@std@@YAPAUWeaponInfo@@V?$_Vector_const_iterator@V?$_Vector_val@UWeaponInfo@@V?$allocator@UWeaponInfo@@@std@@@std@@@0@0PAU1@AAV?$allocator@UWeaponInfo@@@0@U_Nonscalar_ptr_iterator_tag@0@@Z ; std::_Uninit_copy<std::_Vector_const_iterator<std::_Vector_val<WeaponInfo,std::allocator<WeaponInfo> > >,WeaponInfo *,std::allocator<WeaponInfo> >
  0004e	83 c4 14	 add	 esp, 20			; 00000014H
  00051	89 46 04	 mov	 DWORD PTR [esi+4], eax
$LN7@vector@2:

; 543  : 			_CATCH_END
; 544  : 		}

  00054	8b c6		 mov	 eax, esi
  00056	e8 00 00 00 00	 call	 __EH_epilog3
  0005b	c2 04 00	 ret	 4
__catch$??0?$vector@UWeaponInfo@@V?$allocator@UWeaponInfo@@@std@@@std@@QAE@ABV01@@Z$0:

; 540  : 			_CATCH_ALL
; 541  : 			_Tidy();

  0005e	8b 4d ec	 mov	 ecx, DWORD PTR _this$[ebp]
  00061	e8 00 00 00 00	 call	 ?_Tidy@?$vector@UWeaponInfo@@V?$allocator@UWeaponInfo@@@std@@@std@@IAEXXZ ; std::vector<WeaponInfo,std::allocator<WeaponInfo> >::_Tidy

; 542  : 			_RERAISE;

  00066	33 db		 xor	 ebx, ebx
  00068	53		 push	 ebx
  00069	53		 push	 ebx
  0006a	e8 00 00 00 00	 call	 __CxxThrowException@8
$LN38@vector@2:
$LN37@vector@2:
  0006f	cc		 int	 3
_TEXT	ENDS
;	COMDAT text$x
text$x	SEGMENT
__ehhandler$??0?$vector@UWeaponInfo@@V?$allocator@UWeaponInfo@@@std@@@std@@QAE@ABV01@@Z:
  00000	8b 54 24 08	 mov	 edx, DWORD PTR [esp+8]
  00004	8d 42 0c	 lea	 eax, DWORD PTR [edx+12]
  00007	8b 4a e8	 mov	 ecx, DWORD PTR [edx-24]
  0000a	33 c8		 xor	 ecx, eax
  0000c	e8 00 00 00 00	 call	 @__security_check_cookie@4
  00011	b8 00 00 00 00	 mov	 eax, OFFSET __ehfuncinfo$??0?$vector@UWeaponInfo@@V?$allocator@UWeaponInfo@@@std@@@std@@QAE@ABV01@@Z
  00016	e9 00 00 00 00	 jmp	 ___CxxFrameHandler3
text$x	ENDS
??0?$vector@UWeaponInfo@@V?$allocator@UWeaponInfo@@@std@@@std@@QAE@ABV01@@Z ENDP ; std::vector<WeaponInfo,std::allocator<WeaponInfo> >::vector<WeaponInfo,std::allocator<WeaponInfo> >
PUBLIC	?push_back@?$vector@UKeyMapEffect@ioCrecendoSkill@@V?$allocator@UKeyMapEffect@ioCrecendoSkill@@@std@@@std@@QAEXABUKeyMapEffect@ioCrecendoSkill@@@Z ; std::vector<ioCrecendoSkill::KeyMapEffect,std::allocator<ioCrecendoSkill::KeyMapEffect> >::push_back
; Function compile flags: /Ogsp
;	COMDAT ?push_back@?$vector@UKeyMapEffect@ioCrecendoSkill@@V?$allocator@UKeyMapEffect@ioCrecendoSkill@@@std@@@std@@QAEXABUKeyMapEffect@ioCrecendoSkill@@@Z
_TEXT	SEGMENT
__Val$ = 8						; size = 4
?push_back@?$vector@UKeyMapEffect@ioCrecendoSkill@@V?$allocator@UKeyMapEffect@ioCrecendoSkill@@@std@@@std@@QAEXABUKeyMapEffect@ioCrecendoSkill@@@Z PROC ; std::vector<ioCrecendoSkill::KeyMapEffect,std::allocator<ioCrecendoSkill::KeyMapEffect> >::push_back, COMDAT
; _this$ = ecx

; 976  : 		{	// insert element at end

  00000	55		 push	 ebp
  00001	8b ec		 mov	 ebp, esp
  00003	56		 push	 esi
  00004	8b f1		 mov	 esi, ecx

; 977  : 		if (_Inside(_STD addressof(_Val)))

  00006	8b 46 04	 mov	 eax, DWORD PTR [esi+4]
  00009	57		 push	 edi
  0000a	8b 7d 08	 mov	 edi, DWORD PTR __Val$[ebp]
  0000d	3b f8		 cmp	 edi, eax
  0000f	73 2d		 jae	 SHORT $LN4@push_back
  00011	8b 0e		 mov	 ecx, DWORD PTR [esi]
  00013	3b cf		 cmp	 ecx, edi
  00015	77 27		 ja	 SHORT $LN4@push_back

; 978  : 			{	// push back an element
; 979  : 			size_type _Idx = _STD addressof(_Val) - this->_Myfirst;

  00017	2b f9		 sub	 edi, ecx
  00019	c1 ff 03	 sar	 edi, 3

; 980  : 			if (this->_Mylast == this->_Myend)

  0001c	3b 46 08	 cmp	 eax, DWORD PTR [esi+8]
  0001f	75 09		 jne	 SHORT $LN3@push_back

; 981  : 				_Reserve(1);

  00021	6a 01		 push	 1
  00023	8b ce		 mov	 ecx, esi
  00025	e8 00 00 00 00	 call	 ?_Reserve@?$vector@UKeyMapEffect@ioCrecendoSkill@@V?$allocator@UKeyMapEffect@ioCrecendoSkill@@@std@@@std@@IAEXI@Z ; std::vector<ioCrecendoSkill::KeyMapEffect,std::allocator<ioCrecendoSkill::KeyMapEffect> >::_Reserve
$LN3@push_back:

; 982  : 			_Orphan_range(this->_Mylast, this->_Mylast);
; 983  : 			_Cons_val(this->_Alval,
; 984  : 				this->_Mylast,
; 985  : 				this->_Myfirst[_Idx]);

  0002a	8b 06		 mov	 eax, DWORD PTR [esi]
  0002c	8d 04 f8	 lea	 eax, DWORD PTR [eax+edi*8]
  0002f	50		 push	 eax
  00030	ff 76 04	 push	 DWORD PTR [esi+4]
  00033	8d 46 0c	 lea	 eax, DWORD PTR [esi+12]
  00036	50		 push	 eax
  00037	e8 00 00 00 00	 call	 ??$_Cons_val@V?$allocator@UKeyMapEffect@ioCrecendoSkill@@@std@@UKeyMapEffect@ioCrecendoSkill@@AAU34@@std@@YAXAAV?$allocator@UKeyMapEffect@ioCrecendoSkill@@@0@PAUKeyMapEffect@ioCrecendoSkill@@AAU23@@Z ; std::_Cons_val<std::allocator<ioCrecendoSkill::KeyMapEffect>,ioCrecendoSkill::KeyMapEffect,ioCrecendoSkill::KeyMapEffect &>

; 986  : 			++this->_Mylast;
; 987  : 			}
; 988  : 		else

  0003c	eb 1b		 jmp	 SHORT $LN20@push_back
$LN4@push_back:

; 989  : 			{	// push back a non-element
; 990  : 			if (this->_Mylast == this->_Myend)

  0003e	3b 46 08	 cmp	 eax, DWORD PTR [esi+8]
  00041	75 09		 jne	 SHORT $LN1@push_back

; 991  : 				_Reserve(1);

  00043	6a 01		 push	 1
  00045	8b ce		 mov	 ecx, esi
  00047	e8 00 00 00 00	 call	 ?_Reserve@?$vector@UKeyMapEffect@ioCrecendoSkill@@V?$allocator@UKeyMapEffect@ioCrecendoSkill@@@std@@@std@@IAEXI@Z ; std::vector<ioCrecendoSkill::KeyMapEffect,std::allocator<ioCrecendoSkill::KeyMapEffect> >::_Reserve
$LN1@push_back:

; 992  : 			_Orphan_range(this->_Mylast, this->_Mylast);
; 993  : 			_Cons_val(this->_Alval,
; 994  : 				this->_Mylast,
; 995  : 				_Val);

  0004c	57		 push	 edi
  0004d	ff 76 04	 push	 DWORD PTR [esi+4]
  00050	8d 46 0c	 lea	 eax, DWORD PTR [esi+12]
  00053	50		 push	 eax
  00054	e8 00 00 00 00	 call	 ??$_Cons_val@V?$allocator@UKeyMapEffect@ioCrecendoSkill@@@std@@UKeyMapEffect@ioCrecendoSkill@@ABU34@@std@@YAXAAV?$allocator@UKeyMapEffect@ioCrecendoSkill@@@0@PAUKeyMapEffect@ioCrecendoSkill@@ABU23@@Z ; std::_Cons_val<std::allocator<ioCrecendoSkill::KeyMapEffect>,ioCrecendoSkill::KeyMapEffect,ioCrecendoSkill::KeyMapEffect const &>
$LN20@push_back:
  00059	83 c4 0c	 add	 esp, 12			; 0000000cH

; 996  : 			++this->_Mylast;

  0005c	83 46 04 08	 add	 DWORD PTR [esi+4], 8
  00060	5f		 pop	 edi
  00061	5e		 pop	 esi

; 997  : 			}
; 998  : 		}

  00062	5d		 pop	 ebp
  00063	c2 04 00	 ret	 4
?push_back@?$vector@UKeyMapEffect@ioCrecendoSkill@@V?$allocator@UKeyMapEffect@ioCrecendoSkill@@@std@@@std@@QAEXABUKeyMapEffect@ioCrecendoSkill@@@Z ENDP ; std::vector<ioCrecendoSkill::KeyMapEffect,std::allocator<ioCrecendoSkill::KeyMapEffect> >::push_back
_TEXT	ENDS
PUBLIC	??$emplace@AAUKeyMapEffect@ioCrecendoSkill@@@?$vector@UKeyMapEffect@ioCrecendoSkill@@V?$allocator@UKeyMapEffect@ioCrecendoSkill@@@std@@@std@@QAE?AV?$_Vector_iterator@V?$_Vector_val@UKeyMapEffect@ioCrecendoSkill@@V?$allocator@UKeyMapEffect@ioCrecendoSkill@@@std@@@std@@@1@V?$_Vector_const_iterator@V?$_Vector_val@UKeyMapEffect@ioCrecendoSkill@@V?$allocator@UKeyMapEffect@ioCrecendoSkill@@@std@@@std@@@1@AAUKeyMapEffect@ioCrecendoSkill@@@Z ; std::vector<ioCrecendoSkill::KeyMapEffect,std::allocator<ioCrecendoSkill::KeyMapEffect> >::emplace<ioCrecendoSkill::KeyMapEffect &>
; Function compile flags: /Ogsp
;	COMDAT ??$emplace@AAUKeyMapEffect@ioCrecendoSkill@@@?$vector@UKeyMapEffect@ioCrecendoSkill@@V?$allocator@UKeyMapEffect@ioCrecendoSkill@@@std@@@std@@QAE?AV?$_Vector_iterator@V?$_Vector_val@UKeyMapEffect@ioCrecendoSkill@@V?$allocator@UKeyMapEffect@ioCrecendoSkill@@@std@@@std@@@1@V?$_Vector_const_iterator@V?$_Vector_val@UKeyMapEffect@ioCrecendoSkill@@V?$allocator@UKeyMapEffect@ioCrecendoSkill@@@std@@@std@@@1@AAUKeyMapEffect@ioCrecendoSkill@@@Z
_TEXT	SEGMENT
___$ReturnUdt$ = 8					; size = 4
__Where$ = 12						; size = 4
$T543318 = 16						; size = 4
__Val$ = 16						; size = 4
??$emplace@AAUKeyMapEffect@ioCrecendoSkill@@@?$vector@UKeyMapEffect@ioCrecendoSkill@@V?$allocator@UKeyMapEffect@ioCrecendoSkill@@@std@@@std@@QAE?AV?$_Vector_iterator@V?$_Vector_val@UKeyMapEffect@ioCrecendoSkill@@V?$allocator@UKeyMapEffect@ioCrecendoSkill@@@std@@@std@@@1@V?$_Vector_const_iterator@V?$_Vector_val@UKeyMapEffect@ioCrecendoSkill@@V?$allocator@UKeyMapEffect@ioCrecendoSkill@@@std@@@std@@@1@AAUKeyMapEffect@ioCrecendoSkill@@@Z PROC ; std::vector<ioCrecendoSkill::KeyMapEffect,std::allocator<ioCrecendoSkill::KeyMapEffect> >::emplace<ioCrecendoSkill::KeyMapEffect &>, COMDAT
; _this$ = ecx

; 679  : 		iterator emplace(const_iterator _Where, _Valty&& _Val)

  00000	55		 push	 ebp
  00001	8b ec		 mov	 ebp, esp
  00003	56		 push	 esi

; 680  : 		{	// insert _Val at _Where
; 681  : 		size_type _Off = _VIPTR(_Where) - this->_Myfirst;

  00004	8b 75 0c	 mov	 esi, DWORD PTR __Where$[ebp]
  00007	57		 push	 edi

; 682  : 
; 683  :  #if _ITERATOR_DEBUG_LEVEL == 2
; 684  : 		if (size() < _Off)
; 685  : 			_DEBUG_ERROR("vector emplace iterator outside range");
; 686  :  #endif /* _ITERATOR_DEBUG_LEVEL == 2 */
; 687  : 
; 688  : 		emplace_back(_STD forward<_Valty>(_Val));

  00008	ff 75 10	 push	 DWORD PTR __Val$[ebp]
  0000b	8b f9		 mov	 edi, ecx
  0000d	2b 37		 sub	 esi, DWORD PTR [edi]
  0000f	e8 00 00 00 00	 call	 ??$emplace_back@AAUKeyMapEffect@ioCrecendoSkill@@@?$vector@UKeyMapEffect@ioCrecendoSkill@@V?$allocator@UKeyMapEffect@ioCrecendoSkill@@@std@@@std@@QAEXAAUKeyMapEffect@ioCrecendoSkill@@@Z ; std::vector<ioCrecendoSkill::KeyMapEffect,std::allocator<ioCrecendoSkill::KeyMapEffect> >::emplace_back<ioCrecendoSkill::KeyMapEffect &>

; 689  : 		_STD rotate(begin() + _Off, end() - 1, end());

  00014	8b 4f 04	 mov	 ecx, DWORD PTR [edi+4]
  00017	8b 07		 mov	 eax, DWORD PTR [edi]
  00019	51		 push	 ecx
  0001a	8d 51 f8	 lea	 edx, DWORD PTR [ecx-8]
  0001d	83 e6 f8	 and	 esi, -8			; fffffff8H
  00020	03 c6		 add	 eax, esi
  00022	52		 push	 edx
  00023	50		 push	 eax
  00024	8d 45 10	 lea	 eax, DWORD PTR $T543318[ebp]
  00027	50		 push	 eax
  00028	e8 00 00 00 00	 call	 ??$rotate@V?$_Vector_iterator@V?$_Vector_val@UKeyMapEffect@ioCrecendoSkill@@V?$allocator@UKeyMapEffect@ioCrecendoSkill@@@std@@@std@@@std@@@std@@YA?AV?$_Vector_iterator@V?$_Vector_val@UKeyMapEffect@ioCrecendoSkill@@V?$allocator@UKeyMapEffect@ioCrecendoSkill@@@std@@@std@@@0@V10@00@Z ; std::rotate<std::_Vector_iterator<std::_Vector_val<ioCrecendoSkill::KeyMapEffect,std::allocator<ioCrecendoSkill::KeyMapEffect> > > >

; 690  : 		return (begin() + _Off);

  0002d	8b 0f		 mov	 ecx, DWORD PTR [edi]
  0002f	8b 45 08	 mov	 eax, DWORD PTR ___$ReturnUdt$[ebp]
  00032	83 c4 10	 add	 esp, 16			; 00000010H
  00035	03 ce		 add	 ecx, esi
  00037	5f		 pop	 edi
  00038	89 08		 mov	 DWORD PTR [eax], ecx
  0003a	5e		 pop	 esi

; 691  : 		}

  0003b	5d		 pop	 ebp
  0003c	c2 0c 00	 ret	 12			; 0000000cH
??$emplace@AAUKeyMapEffect@ioCrecendoSkill@@@?$vector@UKeyMapEffect@ioCrecendoSkill@@V?$allocator@UKeyMapEffect@ioCrecendoSkill@@@std@@@std@@QAE?AV?$_Vector_iterator@V?$_Vector_val@UKeyMapEffect@ioCrecendoSkill@@V?$allocator@UKeyMapEffect@ioCrecendoSkill@@@std@@@std@@@1@V?$_Vector_const_iterator@V?$_Vector_val@UKeyMapEffect@ioCrecendoSkill@@V?$allocator@UKeyMapEffect@ioCrecendoSkill@@@std@@@std@@@1@AAUKeyMapEffect@ioCrecendoSkill@@@Z ENDP ; std::vector<ioCrecendoSkill::KeyMapEffect,std::allocator<ioCrecendoSkill::KeyMapEffect> >::emplace<ioCrecendoSkill::KeyMapEffect &>
_TEXT	ENDS
PUBLIC	??1?$vector@UWeaponInfo@@V?$allocator@UWeaponInfo@@@std@@@std@@QAE@XZ ; std::vector<WeaponInfo,std::allocator<WeaponInfo> >::~vector<WeaponInfo,std::allocator<WeaponInfo> >
; Function compile flags: /Ogsp
;	COMDAT ??1?$vector@UWeaponInfo@@V?$allocator@UWeaponInfo@@@std@@@std@@QAE@XZ
_TEXT	SEGMENT
??1?$vector@UWeaponInfo@@V?$allocator@UWeaponInfo@@@std@@@std@@QAE@XZ PROC ; std::vector<WeaponInfo,std::allocator<WeaponInfo> >::~vector<WeaponInfo,std::allocator<WeaponInfo> >, COMDAT
; _this$ = ecx

; 705  : 		_Tidy();

  00000	e9 00 00 00 00	 jmp	 ?_Tidy@?$vector@UWeaponInfo@@V?$allocator@UWeaponInfo@@@std@@@std@@IAEXXZ ; std::vector<WeaponInfo,std::allocator<WeaponInfo> >::_Tidy
??1?$vector@UWeaponInfo@@V?$allocator@UWeaponInfo@@@std@@@std@@QAE@XZ ENDP ; std::vector<WeaponInfo,std::allocator<WeaponInfo> >::~vector<WeaponInfo,std::allocator<WeaponInfo> >
_TEXT	ENDS
PUBLIC	??0AttackAttribute@@QAE@ABU0@@Z			; AttackAttribute::AttackAttribute
;	COMDAT xdata$x
xdata$x	SEGMENT
__unwindtable$??0AttackAttribute@@QAE@ABU0@@Z DD 0ffffffffH
	DD	FLAT:__unwindfunclet$??0AttackAttribute@@QAE@ABU0@@Z$0
	DD	00H
	DD	FLAT:__unwindfunclet$??0AttackAttribute@@QAE@ABU0@@Z$1
	DD	01H
	DD	FLAT:__unwindfunclet$??0AttackAttribute@@QAE@ABU0@@Z$2
__ehfuncinfo$??0AttackAttribute@@QAE@ABU0@@Z DD 019930522H
	DD	03H
	DD	FLAT:__unwindtable$??0AttackAttribute@@QAE@ABU0@@Z
	DD	2 DUP(00H)
	DD	2 DUP(00H)
	DD	00H
	DD	01H
; Function compile flags: /Ogsp
xdata$x	ENDS
;	COMDAT ??0AttackAttribute@@QAE@ABU0@@Z
_TEXT	SEGMENT
_this$ = -16						; size = 4
__$EHRec$ = -12						; size = 12
___that$ = 8						; size = 4
??0AttackAttribute@@QAE@ABU0@@Z PROC			; AttackAttribute::AttackAttribute, COMDAT
; _this$ = ecx
  00000	6a 04		 push	 4
  00002	b8 00 00 00 00	 mov	 eax, __ehhandler$??0AttackAttribute@@QAE@ABU0@@Z
  00007	e8 00 00 00 00	 call	 __EH_prolog3
  0000c	8b f1		 mov	 esi, ecx
  0000e	89 75 f0	 mov	 DWORD PTR _this$[ebp], esi
  00011	8b 7d 08	 mov	 edi, DWORD PTR ___that$[ebp]
  00014	8b 1d 00 00 00
	00		 mov	 ebx, DWORD PTR __imp_??0ioHashString@@QAE@ABV0@@Z
  0001a	57		 push	 edi
  0001b	ff d3		 call	 ebx
  0001d	d9 47 10	 fld	 DWORD PTR [edi+16]
  00020	83 65 fc 00	 and	 DWORD PTR __$EHRec$[ebp+8], 0
  00024	d9 5e 10	 fstp	 DWORD PTR [esi+16]
  00027	8d 47 14	 lea	 eax, DWORD PTR [edi+20]
  0002a	50		 push	 eax
  0002b	8d 4e 14	 lea	 ecx, DWORD PTR [esi+20]
  0002e	ff d3		 call	 ebx
  00030	d9 47 24	 fld	 DWORD PTR [edi+36]
  00033	8d 47 28	 lea	 eax, DWORD PTR [edi+40]
  00036	d9 5e 24	 fstp	 DWORD PTR [esi+36]
  00039	50		 push	 eax
  0003a	8d 4e 28	 lea	 ecx, DWORD PTR [esi+40]
  0003d	c6 45 fc 01	 mov	 BYTE PTR __$EHRec$[ebp+8], 1
  00041	e8 00 00 00 00	 call	 ??0?$vector@UWeaponInfo@@V?$allocator@UWeaponInfo@@@std@@@std@@QAE@ABV01@@Z ; std::vector<WeaponInfo,std::allocator<WeaponInfo> >::vector<WeaponInfo,std::allocator<WeaponInfo> >
  00046	8d 47 38	 lea	 eax, DWORD PTR [edi+56]
  00049	50		 push	 eax
  0004a	8d 4e 38	 lea	 ecx, DWORD PTR [esi+56]
  0004d	c6 45 fc 02	 mov	 BYTE PTR __$EHRec$[ebp+8], 2
  00051	e8 00 00 00 00	 call	 ??0?$vector@UForceInfo@@V?$allocator@UForceInfo@@@std@@@std@@QAE@ABV01@@Z ; std::vector<ForceInfo,std::allocator<ForceInfo> >::vector<ForceInfo,std::allocator<ForceInfo> >
  00056	8b 47 48	 mov	 eax, DWORD PTR [edi+72]
  00059	89 46 48	 mov	 DWORD PTR [esi+72], eax
  0005c	8b 47 4c	 mov	 eax, DWORD PTR [edi+76]
  0005f	89 46 4c	 mov	 DWORD PTR [esi+76], eax
  00062	8b c6		 mov	 eax, esi
  00064	e8 00 00 00 00	 call	 __EH_epilog3
  00069	c2 04 00	 ret	 4
_TEXT	ENDS
;	COMDAT text$x
text$x	SEGMENT
__unwindfunclet$??0AttackAttribute@@QAE@ABU0@@Z$0:
  00000	8b 4d f0	 mov	 ecx, DWORD PTR _this$[ebp]
  00003	ff 25 00 00 00
	00		 jmp	 DWORD PTR __imp_??1ioHashString@@QAE@XZ
__unwindfunclet$??0AttackAttribute@@QAE@ABU0@@Z$1:
  00009	8b 4d f0	 mov	 ecx, DWORD PTR _this$[ebp]
  0000c	83 c1 14	 add	 ecx, 20			; 00000014H
  0000f	ff 25 00 00 00
	00		 jmp	 DWORD PTR __imp_??1ioHashString@@QAE@XZ
__unwindfunclet$??0AttackAttribute@@QAE@ABU0@@Z$2:
  00015	8b 4d f0	 mov	 ecx, DWORD PTR _this$[ebp]
  00018	83 c1 28	 add	 ecx, 40			; 00000028H
  0001b	e9 00 00 00 00	 jmp	 ??1?$vector@UWeaponInfo@@V?$allocator@UWeaponInfo@@@std@@@std@@QAE@XZ ; std::vector<WeaponInfo,std::allocator<WeaponInfo> >::~vector<WeaponInfo,std::allocator<WeaponInfo> >
__ehhandler$??0AttackAttribute@@QAE@ABU0@@Z:
  00020	8b 54 24 08	 mov	 edx, DWORD PTR [esp+8]
  00024	8d 42 0c	 lea	 eax, DWORD PTR [edx+12]
  00027	8b 4a ec	 mov	 ecx, DWORD PTR [edx-20]
  0002a	33 c8		 xor	 ecx, eax
  0002c	e8 00 00 00 00	 call	 @__security_check_cookie@4
  00031	b8 00 00 00 00	 mov	 eax, OFFSET __ehfuncinfo$??0AttackAttribute@@QAE@ABU0@@Z
  00036	e9 00 00 00 00	 jmp	 ___CxxFrameHandler3
text$x	ENDS
??0AttackAttribute@@QAE@ABU0@@Z ENDP			; AttackAttribute::AttackAttribute
PUBLIC	??$insert@AAUKeyMapEffect@ioCrecendoSkill@@@?$vector@UKeyMapEffect@ioCrecendoSkill@@V?$allocator@UKeyMapEffect@ioCrecendoSkill@@@std@@@std@@QAE?AV?$_Vector_iterator@V?$_Vector_val@UKeyMapEffect@ioCrecendoSkill@@V?$allocator@UKeyMapEffect@ioCrecendoSkill@@@std@@@std@@@1@V?$_Vector_const_iterator@V?$_Vector_val@UKeyMapEffect@ioCrecendoSkill@@V?$allocator@UKeyMapEffect@ioCrecendoSkill@@@std@@@std@@@1@AAUKeyMapEffect@ioCrecendoSkill@@@Z ; std::vector<ioCrecendoSkill::KeyMapEffect,std::allocator<ioCrecendoSkill::KeyMapEffect> >::insert<ioCrecendoSkill::KeyMapEffect &>
; Function compile flags: /Ogsp
;	COMDAT ??$insert@AAUKeyMapEffect@ioCrecendoSkill@@@?$vector@UKeyMapEffect@ioCrecendoSkill@@V?$allocator@UKeyMapEffect@ioCrecendoSkill@@@std@@@std@@QAE?AV?$_Vector_iterator@V?$_Vector_val@UKeyMapEffect@ioCrecendoSkill@@V?$allocator@UKeyMapEffect@ioCrecendoSkill@@@std@@@std@@@1@V?$_Vector_const_iterator@V?$_Vector_val@UKeyMapEffect@ioCrecendoSkill@@V?$allocator@UKeyMapEffect@ioCrecendoSkill@@@std@@@std@@@1@AAUKeyMapEffect@ioCrecendoSkill@@@Z
_TEXT	SEGMENT
___$ReturnUdt$ = 8					; size = 4
__Where$ = 12						; size = 4
__Val$ = 16						; size = 4
??$insert@AAUKeyMapEffect@ioCrecendoSkill@@@?$vector@UKeyMapEffect@ioCrecendoSkill@@V?$allocator@UKeyMapEffect@ioCrecendoSkill@@@std@@@std@@QAE?AV?$_Vector_iterator@V?$_Vector_val@UKeyMapEffect@ioCrecendoSkill@@V?$allocator@UKeyMapEffect@ioCrecendoSkill@@@std@@@std@@@1@V?$_Vector_const_iterator@V?$_Vector_val@UKeyMapEffect@ioCrecendoSkill@@V?$allocator@UKeyMapEffect@ioCrecendoSkill@@@std@@@std@@@1@AAUKeyMapEffect@ioCrecendoSkill@@@Z PROC ; std::vector<ioCrecendoSkill::KeyMapEffect,std::allocator<ioCrecendoSkill::KeyMapEffect> >::insert<ioCrecendoSkill::KeyMapEffect &>, COMDAT
; _this$ = ecx

; 673  : 		iterator insert(const_iterator _Where, _Valty&& _Val)

  00000	55		 push	 ebp
  00001	8b ec		 mov	 ebp, esp

; 674  : 		{	// insert _Val at _Where
; 675  : 		return (emplace(_Where, _STD forward<_Valty>(_Val)));

  00003	ff 75 10	 push	 DWORD PTR __Val$[ebp]
  00006	ff 75 0c	 push	 DWORD PTR __Where$[ebp]
  00009	ff 75 08	 push	 DWORD PTR ___$ReturnUdt$[ebp]
  0000c	e8 00 00 00 00	 call	 ??$emplace@AAUKeyMapEffect@ioCrecendoSkill@@@?$vector@UKeyMapEffect@ioCrecendoSkill@@V?$allocator@UKeyMapEffect@ioCrecendoSkill@@@std@@@std@@QAE?AV?$_Vector_iterator@V?$_Vector_val@UKeyMapEffect@ioCrecendoSkill@@V?$allocator@UKeyMapEffect@ioCrecendoSkill@@@std@@@std@@@1@V?$_Vector_const_iterator@V?$_Vector_val@UKeyMapEffect@ioCrecendoSkill@@V?$allocator@UKeyMapEffect@ioCrecendoSkill@@@std@@@std@@@1@AAUKeyMapEffect@ioCrecendoSkill@@@Z ; std::vector<ioCrecendoSkill::KeyMapEffect,std::allocator<ioCrecendoSkill::KeyMapEffect> >::emplace<ioCrecendoSkill::KeyMapEffect &>
  00011	8b 45 08	 mov	 eax, DWORD PTR ___$ReturnUdt$[ebp]

; 676  : 		}

  00014	5d		 pop	 ebp
  00015	c2 0c 00	 ret	 12			; 0000000cH
??$insert@AAUKeyMapEffect@ioCrecendoSkill@@@?$vector@UKeyMapEffect@ioCrecendoSkill@@V?$allocator@UKeyMapEffect@ioCrecendoSkill@@@std@@@std@@QAE?AV?$_Vector_iterator@V?$_Vector_val@UKeyMapEffect@ioCrecendoSkill@@V?$allocator@UKeyMapEffect@ioCrecendoSkill@@@std@@@std@@@1@V?$_Vector_const_iterator@V?$_Vector_val@UKeyMapEffect@ioCrecendoSkill@@V?$allocator@UKeyMapEffect@ioCrecendoSkill@@@std@@@std@@@1@AAUKeyMapEffect@ioCrecendoSkill@@@Z ENDP ; std::vector<ioCrecendoSkill::KeyMapEffect,std::allocator<ioCrecendoSkill::KeyMapEffect> >::insert<ioCrecendoSkill::KeyMapEffect &>
_TEXT	ENDS
PUBLIC	??0AttackAttribute@@QAE@XZ			; AttackAttribute::AttackAttribute
EXTRN	?Init@AttackAttribute@@QAEXXZ:PROC		; AttackAttribute::Init
EXTRN	__imp_??0ioHashString@@QAE@XZ:PROC
;	COMDAT xdata$x
; File c:\program files (x86)\microsoft visual studio 10.0\vc\include\xmemory
xdata$x	SEGMENT
__unwindtable$??0AttackAttribute@@QAE@XZ DD 0ffffffffH
	DD	FLAT:__unwindfunclet$??0AttackAttribute@@QAE@XZ$0
	DD	00H
	DD	FLAT:__unwindfunclet$??0AttackAttribute@@QAE@XZ$1
	DD	01H
	DD	FLAT:__unwindfunclet$??0AttackAttribute@@QAE@XZ$2
	DD	02H
	DD	FLAT:__unwindfunclet$??0AttackAttribute@@QAE@XZ$3
__ehfuncinfo$??0AttackAttribute@@QAE@XZ DD 019930522H
	DD	04H
	DD	FLAT:__unwindtable$??0AttackAttribute@@QAE@XZ
	DD	2 DUP(00H)
	DD	2 DUP(00H)
	DD	00H
	DD	01H
; Function compile flags: /Ogsp
; File d:\lost saga for developer\youtube\tutorial\source\src\lsclient\ioattackattribute.h
xdata$x	ENDS
;	COMDAT ??0AttackAttribute@@QAE@XZ
_TEXT	SEGMENT
_this$ = -16						; size = 4
__$EHRec$ = -12						; size = 12
??0AttackAttribute@@QAE@XZ PROC				; AttackAttribute::AttackAttribute, COMDAT
; _this$ = ecx

; 107  : 	AttackAttribute()

  00000	6a 04		 push	 4
  00002	b8 00 00 00 00	 mov	 eax, __ehhandler$??0AttackAttribute@@QAE@XZ
  00007	e8 00 00 00 00	 call	 __EH_prolog3
  0000c	8b f1		 mov	 esi, ecx
  0000e	89 75 f0	 mov	 DWORD PTR _this$[ebp], esi
  00011	8b 3d 00 00 00
	00		 mov	 edi, DWORD PTR __imp_??0ioHashString@@QAE@XZ
  00017	ff d7		 call	 edi
  00019	33 db		 xor	 ebx, ebx
  0001b	8d 4e 14	 lea	 ecx, DWORD PTR [esi+20]
  0001e	89 5d fc	 mov	 DWORD PTR __$EHRec$[ebp+8], ebx
  00021	ff d7		 call	 edi
  00023	89 5e 28	 mov	 DWORD PTR [esi+40], ebx
  00026	89 5e 2c	 mov	 DWORD PTR [esi+44], ebx
  00029	89 5e 30	 mov	 DWORD PTR [esi+48], ebx
  0002c	89 5e 38	 mov	 DWORD PTR [esi+56], ebx
  0002f	89 5e 3c	 mov	 DWORD PTR [esi+60], ebx
  00032	89 5e 40	 mov	 DWORD PTR [esi+64], ebx

; 108  : 	{
; 109  : 		Init();

  00035	8b ce		 mov	 ecx, esi
  00037	c6 45 fc 03	 mov	 BYTE PTR __$EHRec$[ebp+8], 3
  0003b	e8 00 00 00 00	 call	 ?Init@AttackAttribute@@QAEXXZ ; AttackAttribute::Init

; 110  : 	}

  00040	8b c6		 mov	 eax, esi
  00042	e8 00 00 00 00	 call	 __EH_epilog3
  00047	c3		 ret	 0
_TEXT	ENDS
;	COMDAT text$x
text$x	SEGMENT
__unwindfunclet$??0AttackAttribute@@QAE@XZ$0:
  00000	8b 4d f0	 mov	 ecx, DWORD PTR _this$[ebp]
  00003	ff 25 00 00 00
	00		 jmp	 DWORD PTR __imp_??1ioHashString@@QAE@XZ
__unwindfunclet$??0AttackAttribute@@QAE@XZ$1:
  00009	8b 4d f0	 mov	 ecx, DWORD PTR _this$[ebp]
  0000c	83 c1 14	 add	 ecx, 20			; 00000014H
  0000f	ff 25 00 00 00
	00		 jmp	 DWORD PTR __imp_??1ioHashString@@QAE@XZ
__unwindfunclet$??0AttackAttribute@@QAE@XZ$2:
  00015	8b 4d f0	 mov	 ecx, DWORD PTR _this$[ebp]
  00018	83 c1 28	 add	 ecx, 40			; 00000028H
  0001b	e9 00 00 00 00	 jmp	 ??1?$vector@UWeaponInfo@@V?$allocator@UWeaponInfo@@@std@@@std@@QAE@XZ ; std::vector<WeaponInfo,std::allocator<WeaponInfo> >::~vector<WeaponInfo,std::allocator<WeaponInfo> >
__unwindfunclet$??0AttackAttribute@@QAE@XZ$3:
  00020	8b 4d f0	 mov	 ecx, DWORD PTR _this$[ebp]
  00023	83 c1 38	 add	 ecx, 56			; 00000038H
  00026	e9 00 00 00 00	 jmp	 ??1?$vector@UForceInfo@@V?$allocator@UForceInfo@@@std@@@std@@QAE@XZ ; std::vector<ForceInfo,std::allocator<ForceInfo> >::~vector<ForceInfo,std::allocator<ForceInfo> >
__ehhandler$??0AttackAttribute@@QAE@XZ:
  0002b	8b 54 24 08	 mov	 edx, DWORD PTR [esp+8]
  0002f	8d 42 0c	 lea	 eax, DWORD PTR [edx+12]
  00032	8b 4a ec	 mov	 ecx, DWORD PTR [edx-20]
  00035	33 c8		 xor	 ecx, eax
  00037	e8 00 00 00 00	 call	 @__security_check_cookie@4
  0003c	b8 00 00 00 00	 mov	 eax, OFFSET __ehfuncinfo$??0AttackAttribute@@QAE@XZ
  00041	e9 00 00 00 00	 jmp	 ___CxxFrameHandler3
text$x	ENDS
??0AttackAttribute@@QAE@XZ ENDP				; AttackAttribute::AttackAttribute
PUBLIC	??1AttackAttribute@@QAE@XZ			; AttackAttribute::~AttackAttribute
;	COMDAT xdata$x
xdata$x	SEGMENT
__unwindtable$??1AttackAttribute@@QAE@XZ DD 0ffffffffH
	DD	FLAT:__unwindfunclet$??1AttackAttribute@@QAE@XZ$0
	DD	00H
	DD	FLAT:__unwindfunclet$??1AttackAttribute@@QAE@XZ$1
	DD	01H
	DD	FLAT:__unwindfunclet$??1AttackAttribute@@QAE@XZ$2
__ehfuncinfo$??1AttackAttribute@@QAE@XZ DD 019930522H
	DD	03H
	DD	FLAT:__unwindtable$??1AttackAttribute@@QAE@XZ
	DD	2 DUP(00H)
	DD	2 DUP(00H)
	DD	00H
	DD	01H
; Function compile flags: /Ogsp
xdata$x	ENDS
;	COMDAT ??1AttackAttribute@@QAE@XZ
_TEXT	SEGMENT
_this$ = -16						; size = 4
__$EHRec$ = -12						; size = 12
??1AttackAttribute@@QAE@XZ PROC				; AttackAttribute::~AttackAttribute, COMDAT
; _this$ = ecx
  00000	6a 04		 push	 4
  00002	b8 00 00 00 00	 mov	 eax, __ehhandler$??1AttackAttribute@@QAE@XZ
  00007	e8 00 00 00 00	 call	 __EH_prolog3
  0000c	8b f1		 mov	 esi, ecx
  0000e	89 75 f0	 mov	 DWORD PTR _this$[ebp], esi
  00011	8d 4e 38	 lea	 ecx, DWORD PTR [esi+56]
  00014	c7 45 fc 02 00
	00 00		 mov	 DWORD PTR __$EHRec$[ebp+8], 2
  0001b	e8 00 00 00 00	 call	 ?_Tidy@?$vector@UForceInfo@@V?$allocator@UForceInfo@@@std@@@std@@IAEXXZ ; std::vector<ForceInfo,std::allocator<ForceInfo> >::_Tidy
  00020	8d 4e 28	 lea	 ecx, DWORD PTR [esi+40]
  00023	c6 45 fc 01	 mov	 BYTE PTR __$EHRec$[ebp+8], 1
  00027	e8 00 00 00 00	 call	 ?_Tidy@?$vector@UWeaponInfo@@V?$allocator@UWeaponInfo@@@std@@@std@@IAEXXZ ; std::vector<WeaponInfo,std::allocator<WeaponInfo> >::_Tidy
  0002c	8b 3d 00 00 00
	00		 mov	 edi, DWORD PTR __imp_??1ioHashString@@QAE@XZ
  00032	8d 4e 14	 lea	 ecx, DWORD PTR [esi+20]
  00035	c6 45 fc 00	 mov	 BYTE PTR __$EHRec$[ebp+8], 0
  00039	ff d7		 call	 edi
  0003b	83 4d fc ff	 or	 DWORD PTR __$EHRec$[ebp+8], -1
  0003f	8b ce		 mov	 ecx, esi
  00041	ff d7		 call	 edi
  00043	e8 00 00 00 00	 call	 __EH_epilog3
  00048	c3		 ret	 0
_TEXT	ENDS
;	COMDAT text$x
text$x	SEGMENT
__unwindfunclet$??1AttackAttribute@@QAE@XZ$0:
  00000	8b 4d f0	 mov	 ecx, DWORD PTR _this$[ebp]
  00003	ff 25 00 00 00
	00		 jmp	 DWORD PTR __imp_??1ioHashString@@QAE@XZ
__unwindfunclet$??1AttackAttribute@@QAE@XZ$1:
  00009	8b 4d f0	 mov	 ecx, DWORD PTR _this$[ebp]
  0000c	83 c1 14	 add	 ecx, 20			; 00000014H
  0000f	ff 25 00 00 00
	00		 jmp	 DWORD PTR __imp_??1ioHashString@@QAE@XZ
__unwindfunclet$??1AttackAttribute@@QAE@XZ$2:
  00015	8b 4d f0	 mov	 ecx, DWORD PTR _this$[ebp]
  00018	83 c1 28	 add	 ecx, 40			; 00000028H
  0001b	e9 00 00 00 00	 jmp	 ??1?$vector@UWeaponInfo@@V?$allocator@UWeaponInfo@@@std@@@std@@QAE@XZ ; std::vector<WeaponInfo,std::allocator<WeaponInfo> >::~vector<WeaponInfo,std::allocator<WeaponInfo> >
__ehhandler$??1AttackAttribute@@QAE@XZ:
  00020	8b 54 24 08	 mov	 edx, DWORD PTR [esp+8]
  00024	8d 42 0c	 lea	 eax, DWORD PTR [edx+12]
  00027	8b 4a ec	 mov	 ecx, DWORD PTR [edx-20]
  0002a	33 c8		 xor	 ecx, eax
  0002c	e8 00 00 00 00	 call	 @__security_check_cookie@4
  00031	b8 00 00 00 00	 mov	 eax, OFFSET __ehfuncinfo$??1AttackAttribute@@QAE@XZ
  00036	e9 00 00 00 00	 jmp	 ___CxxFrameHandler3
text$x	ENDS
??1AttackAttribute@@QAE@XZ ENDP				; AttackAttribute::~AttackAttribute
PUBLIC	??0WaveKey@ioCrecendoSkill@@QAE@XZ		; ioCrecendoSkill::WaveKey::WaveKey
;	COMDAT xdata$x
; File d:\lost saga for developer\youtube\tutorial\source\src\lsclient\iocrecendoskill.h
xdata$x	SEGMENT
__unwindtable$??0WaveKey@ioCrecendoSkill@@QAE@XZ DD 0ffffffffH
	DD	FLAT:__unwindfunclet$??0WaveKey@ioCrecendoSkill@@QAE@XZ$0
__ehfuncinfo$??0WaveKey@ioCrecendoSkill@@QAE@XZ DD 019930522H
	DD	01H
	DD	FLAT:__unwindtable$??0WaveKey@ioCrecendoSkill@@QAE@XZ
	DD	2 DUP(00H)
	DD	2 DUP(00H)
	DD	00H
	DD	01H
; Function compile flags: /Ogsp
xdata$x	ENDS
;	COMDAT ??0WaveKey@ioCrecendoSkill@@QAE@XZ
_TEXT	SEGMENT
_this$ = -16						; size = 4
__$EHRec$ = -12						; size = 12
??0WaveKey@ioCrecendoSkill@@QAE@XZ PROC			; ioCrecendoSkill::WaveKey::WaveKey, COMDAT
; _this$ = ecx

; 51   : 		WaveKey()

  00000	6a 04		 push	 4
  00002	b8 00 00 00 00	 mov	 eax, __ehhandler$??0WaveKey@ioCrecendoSkill@@QAE@XZ
  00007	e8 00 00 00 00	 call	 __EH_prolog3
  0000c	8b f1		 mov	 esi, ecx
  0000e	89 75 f0	 mov	 DWORD PTR _this$[ebp], esi
  00011	8d 4e 10	 lea	 ecx, DWORD PTR [esi+16]
  00014	e8 00 00 00 00	 call	 ??0AttackAttribute@@QAE@XZ ; AttackAttribute::AttackAttribute
  00019	33 c0		 xor	 eax, eax

; 52   : 		{
; 53   : 			m_dwStartTime = 0;
; 54   : 			m_dwEndTime   = 0;
; 55   : 			m_dwKey       = WKS_NONE;
; 56   : 			m_dwRandKey   = WKS_NONE;
; 57   : 
; 58   : 			m_WaveAttack.Init();

  0001b	8d 4e 10	 lea	 ecx, DWORD PTR [esi+16]
  0001e	89 45 fc	 mov	 DWORD PTR __$EHRec$[ebp+8], eax
  00021	89 06		 mov	 DWORD PTR [esi], eax
  00023	89 46 04	 mov	 DWORD PTR [esi+4], eax
  00026	89 46 08	 mov	 DWORD PTR [esi+8], eax
  00029	89 46 0c	 mov	 DWORD PTR [esi+12], eax
  0002c	e8 00 00 00 00	 call	 ?Init@AttackAttribute@@QAEXXZ ; AttackAttribute::Init

; 59   : 			m_fOffset      = 0.0f;

  00031	0f 57 c0	 xorps	 xmm0, xmm0
  00034	f3 0f 11 46 60	 movss	 DWORD PTR [esi+96], xmm0

; 60   : 			m_fNeedGague   = 0.0f;

  00039	f3 0f 11 46 64	 movss	 DWORD PTR [esi+100], xmm0

; 61   : 			m_fTargetRange = 0.0f;

  0003e	f3 0f 11 46 68	 movss	 DWORD PTR [esi+104], xmm0

; 62   : 		}

  00043	8b c6		 mov	 eax, esi
  00045	e8 00 00 00 00	 call	 __EH_epilog3
  0004a	c3		 ret	 0
_TEXT	ENDS
;	COMDAT text$x
text$x	SEGMENT
__unwindfunclet$??0WaveKey@ioCrecendoSkill@@QAE@XZ$0:
  00000	8b 4d f0	 mov	 ecx, DWORD PTR _this$[ebp]
  00003	83 c1 10	 add	 ecx, 16			; 00000010H
  00006	e9 00 00 00 00	 jmp	 ??1AttackAttribute@@QAE@XZ
__ehhandler$??0WaveKey@ioCrecendoSkill@@QAE@XZ:
  0000b	8b 54 24 08	 mov	 edx, DWORD PTR [esp+8]
  0000f	8d 42 0c	 lea	 eax, DWORD PTR [edx+12]
  00012	8b 4a ec	 mov	 ecx, DWORD PTR [edx-20]
  00015	33 c8		 xor	 ecx, eax
  00017	e8 00 00 00 00	 call	 @__security_check_cookie@4
  0001c	b8 00 00 00 00	 mov	 eax, OFFSET __ehfuncinfo$??0WaveKey@ioCrecendoSkill@@QAE@XZ
  00021	e9 00 00 00 00	 jmp	 ___CxxFrameHandler3
text$x	ENDS
??0WaveKey@ioCrecendoSkill@@QAE@XZ ENDP			; ioCrecendoSkill::WaveKey::WaveKey
PUBLIC	??1WaveKey@ioCrecendoSkill@@QAE@XZ		; ioCrecendoSkill::WaveKey::~WaveKey
; Function compile flags: /Ogsp
;	COMDAT ??1WaveKey@ioCrecendoSkill@@QAE@XZ
_TEXT	SEGMENT
??1WaveKey@ioCrecendoSkill@@QAE@XZ PROC			; ioCrecendoSkill::WaveKey::~WaveKey, COMDAT
; _this$ = ecx
  00000	83 c1 10	 add	 ecx, 16			; 00000010H
  00003	e9 00 00 00 00	 jmp	 ??1AttackAttribute@@QAE@XZ
??1WaveKey@ioCrecendoSkill@@QAE@XZ ENDP			; ioCrecendoSkill::WaveKey::~WaveKey
_TEXT	ENDS
PUBLIC	??0WaveKey@ioCrecendoSkill@@QAE@ABU01@@Z	; ioCrecendoSkill::WaveKey::WaveKey
; Function compile flags: /Ogsp
;	COMDAT ??0WaveKey@ioCrecendoSkill@@QAE@ABU01@@Z
_TEXT	SEGMENT
___that$ = 8						; size = 4
??0WaveKey@ioCrecendoSkill@@QAE@ABU01@@Z PROC		; ioCrecendoSkill::WaveKey::WaveKey, COMDAT
; _this$ = ecx
  00000	55		 push	 ebp
  00001	8b ec		 mov	 ebp, esp
  00003	56		 push	 esi
  00004	57		 push	 edi
  00005	8b 7d 08	 mov	 edi, DWORD PTR ___that$[ebp]
  00008	8b 07		 mov	 eax, DWORD PTR [edi]
  0000a	8b f1		 mov	 esi, ecx
  0000c	89 06		 mov	 DWORD PTR [esi], eax
  0000e	8b 47 04	 mov	 eax, DWORD PTR [edi+4]
  00011	89 46 04	 mov	 DWORD PTR [esi+4], eax
  00014	8b 47 08	 mov	 eax, DWORD PTR [edi+8]
  00017	89 46 08	 mov	 DWORD PTR [esi+8], eax
  0001a	8b 47 0c	 mov	 eax, DWORD PTR [edi+12]
  0001d	89 46 0c	 mov	 DWORD PTR [esi+12], eax
  00020	8d 47 10	 lea	 eax, DWORD PTR [edi+16]
  00023	50		 push	 eax
  00024	8d 4e 10	 lea	 ecx, DWORD PTR [esi+16]
  00027	e8 00 00 00 00	 call	 ??0AttackAttribute@@QAE@ABU0@@Z
  0002c	d9 47 60	 fld	 DWORD PTR [edi+96]
  0002f	d9 5e 60	 fstp	 DWORD PTR [esi+96]
  00032	8b c6		 mov	 eax, esi
  00034	d9 47 64	 fld	 DWORD PTR [edi+100]
  00037	d9 5e 64	 fstp	 DWORD PTR [esi+100]
  0003a	d9 47 68	 fld	 DWORD PTR [edi+104]
  0003d	5f		 pop	 edi
  0003e	d9 5e 68	 fstp	 DWORD PTR [esi+104]
  00041	5e		 pop	 esi
  00042	5d		 pop	 ebp
  00043	c2 04 00	 ret	 4
??0WaveKey@ioCrecendoSkill@@QAE@ABU01@@Z ENDP		; ioCrecendoSkill::WaveKey::WaveKey
_TEXT	ENDS
PUBLIC	?CreateKeyEffectByWaveKey@ioCrecendoSkill@@IAEXPAVioBaseChar@@PAVioPlayStage@@@Z ; ioCrecendoSkill::CreateKeyEffectByWaveKey
;	COMDAT xdata$x
xdata$x	SEGMENT
__unwindtable$?CreateKeyEffectByWaveKey@ioCrecendoSkill@@IAEXPAVioBaseChar@@PAVioPlayStage@@@Z DD 0ffffffffH
	DD	FLAT:__unwindfunclet$?CreateKeyEffectByWaveKey@ioCrecendoSkill@@IAEXPAVioBaseChar@@PAVioPlayStage@@@Z$0
__ehfuncinfo$?CreateKeyEffectByWaveKey@ioCrecendoSkill@@IAEXPAVioBaseChar@@PAVioPlayStage@@@Z DD 019930522H
	DD	01H
	DD	FLAT:__unwindtable$?CreateKeyEffectByWaveKey@ioCrecendoSkill@@IAEXPAVioBaseChar@@PAVioPlayStage@@@Z
	DD	2 DUP(00H)
	DD	2 DUP(00H)
	DD	00H
	DD	01H
; Function compile flags: /Ogsp
; File d:\lost saga for developer\youtube\tutorial\source\src\lsclient\iocrecendoskill.cpp
xdata$x	ENDS
;	COMDAT ?CreateKeyEffectByWaveKey@ioCrecendoSkill@@IAEXPAVioBaseChar@@PAVioPlayStage@@@Z
_TEXT	SEGMENT
_rkKey$532998 = -128					; size = 108
_KeyEffect$533003 = -20					; size = 8
__$EHRec$ = -12						; size = 12
_pChar$ = 8						; size = 4
_pStage$ = 12						; size = 4
?CreateKeyEffectByWaveKey@ioCrecendoSkill@@IAEXPAVioBaseChar@@PAVioPlayStage@@@Z PROC ; ioCrecendoSkill::CreateKeyEffectByWaveKey, COMDAT
; _this$ = ecx

; 444  : {

  00000	6a 74		 push	 116			; 00000074H
  00002	b8 00 00 00 00	 mov	 eax, __ehhandler$?CreateKeyEffectByWaveKey@ioCrecendoSkill@@IAEXPAVioBaseChar@@PAVioPlayStage@@@Z
  00007	e8 00 00 00 00	 call	 __EH_prolog3
  0000c	8b f1		 mov	 esi, ecx

; 445  : 	if( !pChar )

  0000e	8b 4d 08	 mov	 ecx, DWORD PTR _pChar$[ebp]
  00011	33 db		 xor	 ebx, ebx
  00013	3b cb		 cmp	 ecx, ebx
  00015	0f 84 ab 00 00
	00		 je	 $LN11@CreateKeyE@2

; 446  : 		return;
; 447  : 
; 448  : 	if( !pStage )

  0001b	39 5d 0c	 cmp	 DWORD PTR _pStage$[ebp], ebx
  0001e	0f 84 a2 00 00
	00		 je	 $LN11@CreateKeyE@2

; 449  : 		return;
; 450  : 
; 451  : 	if( !pChar->IsNeedProcess() ) 

  00024	8b 01		 mov	 eax, DWORD PTR [ecx]
  00026	ff 90 00 01 00
	00		 call	 DWORD PTR [eax+256]
  0002c	84 c0		 test	 al, al
  0002e	0f 84 92 00 00
	00		 je	 $LN11@CreateKeyE@2

; 452  : 		return;
; 453  : 		
; 454  : 	for( WaveKeyVec::const_iterator iter = m_SoundWaveKeyVec.begin(); iter != m_SoundWaveKeyVec.end(); ++iter )

  00034	8b be 7c 11 00
	00		 mov	 edi, DWORD PTR [esi+4476]
  0003a	eb 50		 jmp	 SHORT $LN55@CreateKeyE@2
$LL22@CreateKeyE@2:

; 455  : 	{
; 456  : 		const WaveKey rkKey = *iter;

  0003c	57		 push	 edi
  0003d	8d 4d 80	 lea	 ecx, DWORD PTR _rkKey$532998[ebp]
  00040	e8 00 00 00 00	 call	 ??0WaveKey@ioCrecendoSkill@@QAE@ABU01@@Z

; 457  : 
; 458  : 		DWORD dwCurKey = rkKey.m_dwKey;

  00045	8b 45 88	 mov	 eax, DWORD PTR _rkKey$532998[ebp+8]

; 459  : 		if( dwCurKey == WKS_NONE )

  00048	3b c3		 cmp	 eax, ebx

; 460  : 			dwCurKey = rkKey.m_dwRandKey;

  0004a	0f 44 45 8c	 cmove	 eax, DWORD PTR _rkKey$532998[ebp+12]

; 461  : 
; 462  : 		if( !COMPARE( dwCurKey, WKS_UP, WKS_MAX ) )

  0004e	8d 48 ff	 lea	 ecx, DWORD PTR [eax-1]
  00051	89 5d fc	 mov	 DWORD PTR __$EHRec$[ebp+8], ebx
  00054	83 f9 04	 cmp	 ecx, 4
  00057	77 24		 ja	 SHORT $LN2@CreateKeyE@2

; 464  : 		
; 465  : 		KeyMapEffect KeyEffect;
; 466  : 		KeyEffect.m_dwKey       = dwCurKey;
; 467  : 		KeyEffect.m_MapEffectID = CreateKeyEffect( pChar, pStage, dwCurKey );			

  00059	53		 push	 ebx
  0005a	50		 push	 eax
  0005b	ff 75 0c	 push	 DWORD PTR _pStage$[ebp]
  0005e	8b ce		 mov	 ecx, esi
  00060	ff 75 08	 push	 DWORD PTR _pChar$[ebp]
  00063	89 45 f0	 mov	 DWORD PTR _KeyEffect$533003[ebp+4], eax
  00066	e8 00 00 00 00	 call	 ?CreateKeyEffect@ioCrecendoSkill@@IAEKPAVioBaseChar@@PAVioPlayStage@@K_N@Z ; ioCrecendoSkill::CreateKeyEffect
  0006b	89 45 ec	 mov	 DWORD PTR _KeyEffect$533003[ebp], eax

; 468  : 		m_KeyMapEffectVec.push_back( KeyEffect );

  0006e	8d 45 ec	 lea	 eax, DWORD PTR _KeyEffect$533003[ebp]
  00071	50		 push	 eax
  00072	8d 8e 94 11 00
	00		 lea	 ecx, DWORD PTR [esi+4500]
  00078	e8 00 00 00 00	 call	 ?push_back@?$vector@UKeyMapEffect@ioCrecendoSkill@@V?$allocator@UKeyMapEffect@ioCrecendoSkill@@@std@@@std@@QAEXABUKeyMapEffect@ioCrecendoSkill@@@Z ; std::vector<ioCrecendoSkill::KeyMapEffect,std::allocator<ioCrecendoSkill::KeyMapEffect> >::push_back
$LN2@CreateKeyE@2:

; 463  : 			continue;

  0007d	83 4d fc ff	 or	 DWORD PTR __$EHRec$[ebp+8], -1
  00081	8d 4d 90	 lea	 ecx, DWORD PTR _rkKey$532998[ebp+16]
  00084	e8 00 00 00 00	 call	 ??1AttackAttribute@@QAE@XZ
  00089	83 c7 6c	 add	 edi, 108		; 0000006cH
$LN55@CreateKeyE@2:

; 452  : 		return;
; 453  : 		
; 454  : 	for( WaveKeyVec::const_iterator iter = m_SoundWaveKeyVec.begin(); iter != m_SoundWaveKeyVec.end(); ++iter )

  0008c	3b be 80 11 00
	00		 cmp	 edi, DWORD PTR [esi+4480]
  00092	75 a8		 jne	 SHORT $LL22@CreateKeyE@2

; 469  : 	}
; 470  : 	
; 471  : 	DWORD dwCurKey = m_LastSoundWaveKey.m_dwKey;

  00094	8b 86 18 11 00
	00		 mov	 eax, DWORD PTR [esi+4376]

; 472  : 	if( dwCurKey == WKS_NONE )

  0009a	3b c3		 cmp	 eax, ebx
  0009c	75 06		 jne	 SHORT $LN1@CreateKeyE@2

; 473  : 		dwCurKey = m_LastSoundWaveKey.m_dwRandKey;

  0009e	8b 86 1c 11 00
	00		 mov	 eax, DWORD PTR [esi+4380]
$LN1@CreateKeyE@2:

; 474  : 
; 475  : 	m_LastKeyMapEffect.Clear();

  000a4	83 8e 8c 11 00
	00 ff		 or	 DWORD PTR [esi+4492], -1

; 476  : 	m_LastKeyMapEffect.m_dwKey       = dwCurKey;
; 477  : 	m_LastKeyMapEffect.m_MapEffectID = CreateKeyEffect( pChar, pStage, dwCurKey );

  000ab	53		 push	 ebx
  000ac	50		 push	 eax
  000ad	ff 75 0c	 push	 DWORD PTR _pStage$[ebp]
  000b0	8b ce		 mov	 ecx, esi
  000b2	ff 75 08	 push	 DWORD PTR _pChar$[ebp]
  000b5	89 86 90 11 00
	00		 mov	 DWORD PTR [esi+4496], eax
  000bb	e8 00 00 00 00	 call	 ?CreateKeyEffect@ioCrecendoSkill@@IAEKPAVioBaseChar@@PAVioPlayStage@@K_N@Z ; ioCrecendoSkill::CreateKeyEffect
  000c0	89 86 8c 11 00
	00		 mov	 DWORD PTR [esi+4492], eax
$LN11@CreateKeyE@2:

; 478  : 	
; 479  : }

  000c6	e8 00 00 00 00	 call	 __EH_epilog3
  000cb	c2 08 00	 ret	 8
_TEXT	ENDS
;	COMDAT text$x
text$x	SEGMENT
__unwindfunclet$?CreateKeyEffectByWaveKey@ioCrecendoSkill@@IAEXPAVioBaseChar@@PAVioPlayStage@@@Z$0:
  00000	8d 4d 80	 lea	 ecx, DWORD PTR _rkKey$532998[ebp]
  00003	e9 00 00 00 00	 jmp	 ??1WaveKey@ioCrecendoSkill@@QAE@XZ
__ehhandler$?CreateKeyEffectByWaveKey@ioCrecendoSkill@@IAEXPAVioBaseChar@@PAVioPlayStage@@@Z:
  00008	8b 54 24 08	 mov	 edx, DWORD PTR [esp+8]
  0000c	8d 42 0c	 lea	 eax, DWORD PTR [edx+12]
  0000f	8b 8a 7c ff ff
	ff		 mov	 ecx, DWORD PTR [edx-132]
  00015	33 c8		 xor	 ecx, eax
  00017	e8 00 00 00 00	 call	 @__security_check_cookie@4
  0001c	b8 00 00 00 00	 mov	 eax, OFFSET __ehfuncinfo$?CreateKeyEffectByWaveKey@ioCrecendoSkill@@IAEXPAVioBaseChar@@PAVioPlayStage@@@Z
  00021	e9 00 00 00 00	 jmp	 ___CxxFrameHandler3
text$x	ENDS
?CreateKeyEffectByWaveKey@ioCrecendoSkill@@IAEXPAVioBaseChar@@PAVioPlayStage@@@Z ENDP ; ioCrecendoSkill::CreateKeyEffectByWaveKey
PUBLIC	?ChangeFailedKeyEffect@ioCrecendoSkill@@IAEXPAVioBaseChar@@PAVioPlayStage@@@Z ; ioCrecendoSkill::ChangeFailedKeyEffect
; Function compile flags: /Ogsp
;	COMDAT ?ChangeFailedKeyEffect@ioCrecendoSkill@@IAEXPAVioBaseChar@@PAVioPlayStage@@@Z
_TEXT	SEGMENT
_KeyEffect$533100 = -8					; size = 8
$T543722 = 8						; size = 4
_pChar$ = 8						; size = 4
_pStage$ = 12						; size = 4
?ChangeFailedKeyEffect@ioCrecendoSkill@@IAEXPAVioBaseChar@@PAVioPlayStage@@@Z PROC ; ioCrecendoSkill::ChangeFailedKeyEffect, COMDAT
; _this$ = ecx

; 591  : {

  00000	55		 push	 ebp
  00001	8b ec		 mov	 ebp, esp
  00003	51		 push	 ecx
  00004	51		 push	 ecx
  00005	56		 push	 esi
  00006	8b f1		 mov	 esi, ecx

; 592  : 	if( !m_KeyMapEffectVec.empty() )

  00008	8b 86 94 11 00
	00		 mov	 eax, DWORD PTR [esi+4500]
  0000e	57		 push	 edi
  0000f	3b 86 98 11 00
	00		 cmp	 eax, DWORD PTR [esi+4504]
  00015	74 3d		 je	 SHORT $LN3@ChangeFail

; 593  : 	{
; 594  : 		const KeyMapEffect& rkInfo = *m_KeyMapEffectVec.begin();
; 595  : 		
; 596  : 		KeyMapEffect KeyEffect;
; 597  : 		KeyEffect.m_dwKey       = rkInfo.m_dwKey;

  00017	8b 40 04	 mov	 eax, DWORD PTR [eax+4]

; 598  : 		KeyEffect.m_MapEffectID = CreateKeyEffect( pChar, pStage, KeyEffect.m_dwKey, true );

  0001a	6a 01		 push	 1
  0001c	50		 push	 eax
  0001d	ff 75 0c	 push	 DWORD PTR _pStage$[ebp]
  00020	89 45 fc	 mov	 DWORD PTR _KeyEffect$533100[ebp+4], eax
  00023	ff 75 08	 push	 DWORD PTR _pChar$[ebp]
  00026	e8 00 00 00 00	 call	 ?CreateKeyEffect@ioCrecendoSkill@@IAEKPAVioBaseChar@@PAVioPlayStage@@K_N@Z ; ioCrecendoSkill::CreateKeyEffect

; 599  : 		RemoveKeyEffect( pChar );		

  0002b	ff 75 08	 push	 DWORD PTR _pChar$[ebp]
  0002e	8b ce		 mov	 ecx, esi
  00030	89 45 f8	 mov	 DWORD PTR _KeyEffect$533100[ebp], eax
  00033	e8 00 00 00 00	 call	 ?RemoveKeyEffect@ioCrecendoSkill@@IAEXPAVioBaseChar@@@Z ; ioCrecendoSkill::RemoveKeyEffect

; 600  : 		m_KeyMapEffectVec.insert( m_KeyMapEffectVec.begin(), KeyEffect );		

  00038	8b 86 94 11 00
	00		 mov	 eax, DWORD PTR [esi+4500]
  0003e	8d 4d f8	 lea	 ecx, DWORD PTR _KeyEffect$533100[ebp]
  00041	51		 push	 ecx
  00042	50		 push	 eax
  00043	8d 45 08	 lea	 eax, DWORD PTR $T543722[ebp]
  00046	50		 push	 eax
  00047	8d 8e 94 11 00
	00		 lea	 ecx, DWORD PTR [esi+4500]
  0004d	e8 00 00 00 00	 call	 ??$emplace@AAUKeyMapEffect@ioCrecendoSkill@@@?$vector@UKeyMapEffect@ioCrecendoSkill@@V?$allocator@UKeyMapEffect@ioCrecendoSkill@@@std@@@std@@QAE?AV?$_Vector_iterator@V?$_Vector_val@UKeyMapEffect@ioCrecendoSkill@@V?$allocator@UKeyMapEffect@ioCrecendoSkill@@@std@@@std@@@1@V?$_Vector_const_iterator@V?$_Vector_val@UKeyMapEffect@ioCrecendoSkill@@V?$allocator@UKeyMapEffect@ioCrecendoSkill@@@std@@@std@@@1@AAUKeyMapEffect@ioCrecendoSkill@@@Z ; std::vector<ioCrecendoSkill::KeyMapEffect,std::allocator<ioCrecendoSkill::KeyMapEffect> >::emplace<ioCrecendoSkill::KeyMapEffect &>
  00052	eb 37		 jmp	 SHORT $LN1@ChangeFail
$LN3@ChangeFail:

; 601  : 	}
; 602  : 	else if( m_LastKeyMapEffect.m_MapEffectID != -1 )

  00054	83 be 8c 11 00
	00 ff		 cmp	 DWORD PTR [esi+4492], -1
  0005b	74 2e		 je	 SHORT $LN1@ChangeFail

; 603  : 	{
; 604  : 		KeyMapEffect KeyEffect;
; 605  : 		KeyEffect.m_dwKey       = m_LastKeyMapEffect.m_dwKey;

  0005d	8b be 90 11 00
	00		 mov	 edi, DWORD PTR [esi+4496]
  00063	53		 push	 ebx

; 606  : 		KeyEffect.m_MapEffectID = CreateKeyEffect( pChar, pStage, KeyEffect.m_dwKey, true );

  00064	6a 01		 push	 1
  00066	57		 push	 edi
  00067	ff 75 0c	 push	 DWORD PTR _pStage$[ebp]
  0006a	ff 75 08	 push	 DWORD PTR _pChar$[ebp]
  0006d	e8 00 00 00 00	 call	 ?CreateKeyEffect@ioCrecendoSkill@@IAEKPAVioBaseChar@@PAVioPlayStage@@K_N@Z ; ioCrecendoSkill::CreateKeyEffect

; 607  : 		RemoveLastKeyEffect( pChar );

  00072	ff 75 08	 push	 DWORD PTR _pChar$[ebp]
  00075	8b ce		 mov	 ecx, esi
  00077	8b d8		 mov	 ebx, eax
  00079	e8 00 00 00 00	 call	 ?RemoveLastKeyEffect@ioCrecendoSkill@@IAEXPAVioBaseChar@@@Z ; ioCrecendoSkill::RemoveLastKeyEffect

; 608  : 		m_LastKeyMapEffect = KeyEffect;

  0007e	89 9e 8c 11 00
	00		 mov	 DWORD PTR [esi+4492], ebx
  00084	89 be 90 11 00
	00		 mov	 DWORD PTR [esi+4496], edi
  0008a	5b		 pop	 ebx
$LN1@ChangeFail:
  0008b	5f		 pop	 edi
  0008c	5e		 pop	 esi

; 609  : 	}
; 610  : }

  0008d	c9		 leave
  0008e	c2 08 00	 ret	 8
?ChangeFailedKeyEffect@ioCrecendoSkill@@IAEXPAVioBaseChar@@PAVioPlayStage@@@Z ENDP ; ioCrecendoSkill::ChangeFailedKeyEffect
_TEXT	ENDS
PUBLIC	??$construct@AAUWaveKey@ioCrecendoSkill@@@?$allocator@UWaveKey@ioCrecendoSkill@@@std@@QAEXPAUWaveKey@ioCrecendoSkill@@AAU23@@Z ; std::allocator<ioCrecendoSkill::WaveKey>::construct<ioCrecendoSkill::WaveKey &>
;	COMDAT xdata$x
; File c:\program files (x86)\microsoft visual studio 10.0\vc\include\utility
xdata$x	SEGMENT
__unwindtable$??$construct@AAUWaveKey@ioCrecendoSkill@@@?$allocator@UWaveKey@ioCrecendoSkill@@@std@@QAEXPAUWaveKey@ioCrecendoSkill@@AAU23@@Z DD 0ffffffffH
	DD	FLAT:__unwindfunclet$??$construct@AAUWaveKey@ioCrecendoSkill@@@?$allocator@UWaveKey@ioCrecendoSkill@@@std@@QAEXPAUWaveKey@ioCrecendoSkill@@AAU23@@Z$0
__ehfuncinfo$??$construct@AAUWaveKey@ioCrecendoSkill@@@?$allocator@UWaveKey@ioCrecendoSkill@@@std@@QAEXPAUWaveKey@ioCrecendoSkill@@AAU23@@Z DD 019930522H
	DD	01H
	DD	FLAT:__unwindtable$??$construct@AAUWaveKey@ioCrecendoSkill@@@?$allocator@UWaveKey@ioCrecendoSkill@@@std@@QAEXPAUWaveKey@ioCrecendoSkill@@AAU23@@Z
	DD	2 DUP(00H)
	DD	2 DUP(00H)
	DD	00H
	DD	01H
; Function compile flags: /Ogsp
; File c:\program files (x86)\microsoft visual studio 10.0\vc\include\xmemory
xdata$x	ENDS
;	COMDAT ??$construct@AAUWaveKey@ioCrecendoSkill@@@?$allocator@UWaveKey@ioCrecendoSkill@@@std@@QAEXPAUWaveKey@ioCrecendoSkill@@AAU23@@Z
_TEXT	SEGMENT
$T543812 = -16						; size = 4
__$EHRec$ = -12						; size = 12
__Ptr$ = 8						; size = 4
__Val$ = 12						; size = 4
??$construct@AAUWaveKey@ioCrecendoSkill@@@?$allocator@UWaveKey@ioCrecendoSkill@@@std@@QAEXPAUWaveKey@ioCrecendoSkill@@AAU23@@Z PROC ; std::allocator<ioCrecendoSkill::WaveKey>::construct<ioCrecendoSkill::WaveKey &>, COMDAT
; _this$ = ecx

; 206  : 		void construct(pointer _Ptr, _Other&& _Val)

  00000	6a 04		 push	 4
  00002	b8 00 00 00 00	 mov	 eax, __ehhandler$??$construct@AAUWaveKey@ioCrecendoSkill@@@?$allocator@UWaveKey@ioCrecendoSkill@@@std@@QAEXPAUWaveKey@ioCrecendoSkill@@AAU23@@Z
  00007	e8 00 00 00 00	 call	 __EH_prolog3

; 207  : 		{	// construct object at _Ptr with value _Val
; 208  : 		::new ((void _FARQ *)_Ptr) _Ty(_STD forward<_Other>(_Val));

  0000c	8b 4d 08	 mov	 ecx, DWORD PTR __Ptr$[ebp]
  0000f	89 4d f0	 mov	 DWORD PTR $T543812[ebp], ecx
  00012	83 65 fc 00	 and	 DWORD PTR __$EHRec$[ebp+8], 0
  00016	85 c9		 test	 ecx, ecx
  00018	74 08		 je	 SHORT $LN3@construct@5
  0001a	ff 75 0c	 push	 DWORD PTR __Val$[ebp]
  0001d	e8 00 00 00 00	 call	 ??0WaveKey@ioCrecendoSkill@@QAE@ABU01@@Z
$LN3@construct@5:

; 209  : 		}

  00022	e8 00 00 00 00	 call	 __EH_epilog3
  00027	c2 08 00	 ret	 8
_TEXT	ENDS
;	COMDAT text$x
text$x	SEGMENT
__unwindfunclet$??$construct@AAUWaveKey@ioCrecendoSkill@@@?$allocator@UWaveKey@ioCrecendoSkill@@@std@@QAEXPAUWaveKey@ioCrecendoSkill@@AAU23@@Z$0:
  00000	ff 75 08	 push	 DWORD PTR __Ptr$[ebp]
  00003	ff 75 f0	 push	 DWORD PTR $T543812[ebp]
  00006	e8 00 00 00 00	 call	 ??3@YAXPAX0@Z		; operator delete
  0000b	59		 pop	 ecx
  0000c	59		 pop	 ecx
  0000d	c3		 ret	 0
__ehhandler$??$construct@AAUWaveKey@ioCrecendoSkill@@@?$allocator@UWaveKey@ioCrecendoSkill@@@std@@QAEXPAUWaveKey@ioCrecendoSkill@@AAU23@@Z:
  0000e	8b 54 24 08	 mov	 edx, DWORD PTR [esp+8]
  00012	8d 42 0c	 lea	 eax, DWORD PTR [edx+12]
  00015	8b 4a ec	 mov	 ecx, DWORD PTR [edx-20]
  00018	33 c8		 xor	 ecx, eax
  0001a	e8 00 00 00 00	 call	 @__security_check_cookie@4
  0001f	b8 00 00 00 00	 mov	 eax, OFFSET __ehfuncinfo$??$construct@AAUWaveKey@ioCrecendoSkill@@@?$allocator@UWaveKey@ioCrecendoSkill@@@std@@QAEXPAUWaveKey@ioCrecendoSkill@@AAU23@@Z
  00024	e9 00 00 00 00	 jmp	 ___CxxFrameHandler3
text$x	ENDS
??$construct@AAUWaveKey@ioCrecendoSkill@@@?$allocator@UWaveKey@ioCrecendoSkill@@@std@@QAEXPAUWaveKey@ioCrecendoSkill@@AAU23@@Z ENDP ; std::allocator<ioCrecendoSkill::WaveKey>::construct<ioCrecendoSkill::WaveKey &>
PUBLIC	??$_Construct@UWaveKey@ioCrecendoSkill@@ABU12@@std@@YAXPAUWaveKey@ioCrecendoSkill@@ABU12@@Z ; std::_Construct<ioCrecendoSkill::WaveKey,ioCrecendoSkill::WaveKey const &>
;	COMDAT xdata$x
; File c:\program files (x86)\microsoft visual studio 10.0\vc\include\utility
xdata$x	SEGMENT
__unwindtable$??$_Construct@UWaveKey@ioCrecendoSkill@@ABU12@@std@@YAXPAUWaveKey@ioCrecendoSkill@@ABU12@@Z DD 0ffffffffH
	DD	FLAT:__unwindfunclet$??$_Construct@UWaveKey@ioCrecendoSkill@@ABU12@@std@@YAXPAUWaveKey@ioCrecendoSkill@@ABU12@@Z$0
__ehfuncinfo$??$_Construct@UWaveKey@ioCrecendoSkill@@ABU12@@std@@YAXPAUWaveKey@ioCrecendoSkill@@ABU12@@Z DD 019930522H
	DD	01H
	DD	FLAT:__unwindtable$??$_Construct@UWaveKey@ioCrecendoSkill@@ABU12@@std@@YAXPAUWaveKey@ioCrecendoSkill@@ABU12@@Z
	DD	2 DUP(00H)
	DD	2 DUP(00H)
	DD	00H
	DD	01H
; Function compile flags: /Ogsp
; File c:\program files (x86)\microsoft visual studio 10.0\vc\include\xmemory
xdata$x	ENDS
;	COMDAT ??$_Construct@UWaveKey@ioCrecendoSkill@@ABU12@@std@@YAXPAUWaveKey@ioCrecendoSkill@@ABU12@@Z
_TEXT	SEGMENT
$T543831 = -16						; size = 4
__$EHRec$ = -12						; size = 12
__Vptr$ = 8						; size = 4
__Ptr$ = 8						; size = 4
__Val$ = 12						; size = 4
??$_Construct@UWaveKey@ioCrecendoSkill@@ABU12@@std@@YAXPAUWaveKey@ioCrecendoSkill@@ABU12@@Z PROC ; std::_Construct<ioCrecendoSkill::WaveKey,ioCrecendoSkill::WaveKey const &>, COMDAT

; 46   : 	{	// construct object at _Ptr with value _Val

  00000	6a 04		 push	 4
  00002	b8 00 00 00 00	 mov	 eax, __ehhandler$??$_Construct@UWaveKey@ioCrecendoSkill@@ABU12@@std@@YAXPAUWaveKey@ioCrecendoSkill@@ABU12@@Z
  00007	e8 00 00 00 00	 call	 __EH_prolog3

; 47   : 	void _FARQ *_Vptr = _Ptr;

  0000c	8b 4d 08	 mov	 ecx, DWORD PTR __Ptr$[ebp]
  0000f	89 4d 08	 mov	 DWORD PTR __Vptr$[ebp], ecx

; 48   : 	::new (_Vptr) _Ty1(_STD forward<_Ty2>(_Val));

  00012	89 4d f0	 mov	 DWORD PTR $T543831[ebp], ecx
  00015	83 65 fc 00	 and	 DWORD PTR __$EHRec$[ebp+8], 0
  00019	85 c9		 test	 ecx, ecx
  0001b	74 08		 je	 SHORT $LN3@Construct@4
  0001d	ff 75 0c	 push	 DWORD PTR __Val$[ebp]
  00020	e8 00 00 00 00	 call	 ??0WaveKey@ioCrecendoSkill@@QAE@ABU01@@Z
$LN3@Construct@4:

; 49   : 	}

  00025	e8 00 00 00 00	 call	 __EH_epilog3
  0002a	c3		 ret	 0
_TEXT	ENDS
;	COMDAT text$x
text$x	SEGMENT
__unwindfunclet$??$_Construct@UWaveKey@ioCrecendoSkill@@ABU12@@std@@YAXPAUWaveKey@ioCrecendoSkill@@ABU12@@Z$0:
  00000	ff 75 08	 push	 DWORD PTR __Vptr$[ebp]
  00003	ff 75 f0	 push	 DWORD PTR $T543831[ebp]
  00006	e8 00 00 00 00	 call	 ??3@YAXPAX0@Z		; operator delete
  0000b	59		 pop	 ecx
  0000c	59		 pop	 ecx
  0000d	c3		 ret	 0
__ehhandler$??$_Construct@UWaveKey@ioCrecendoSkill@@ABU12@@std@@YAXPAUWaveKey@ioCrecendoSkill@@ABU12@@Z:
  0000e	8b 54 24 08	 mov	 edx, DWORD PTR [esp+8]
  00012	8d 42 0c	 lea	 eax, DWORD PTR [edx+12]
  00015	8b 4a ec	 mov	 ecx, DWORD PTR [edx-20]
  00018	33 c8		 xor	 ecx, eax
  0001a	e8 00 00 00 00	 call	 @__security_check_cookie@4
  0001f	b8 00 00 00 00	 mov	 eax, OFFSET __ehfuncinfo$??$_Construct@UWaveKey@ioCrecendoSkill@@ABU12@@std@@YAXPAUWaveKey@ioCrecendoSkill@@ABU12@@Z
  00024	e9 00 00 00 00	 jmp	 ___CxxFrameHandler3
text$x	ENDS
??$_Construct@UWaveKey@ioCrecendoSkill@@ABU12@@std@@YAXPAUWaveKey@ioCrecendoSkill@@ABU12@@Z ENDP ; std::_Construct<ioCrecendoSkill::WaveKey,ioCrecendoSkill::WaveKey const &>
PUBLIC	??_GWaveKey@ioCrecendoSkill@@QAEPAXI@Z		; ioCrecendoSkill::WaveKey::`scalar deleting destructor'
; Function compile flags: /Ogsp
;	COMDAT ??_GWaveKey@ioCrecendoSkill@@QAEPAXI@Z
_TEXT	SEGMENT
___flags$ = 8						; size = 4
??_GWaveKey@ioCrecendoSkill@@QAEPAXI@Z PROC		; ioCrecendoSkill::WaveKey::`scalar deleting destructor', COMDAT
; _this$ = ecx
  00000	55		 push	 ebp
  00001	8b ec		 mov	 ebp, esp
  00003	56		 push	 esi
  00004	8b f1		 mov	 esi, ecx
  00006	8d 4e 10	 lea	 ecx, DWORD PTR [esi+16]
  00009	e8 00 00 00 00	 call	 ??1AttackAttribute@@QAE@XZ
  0000e	f6 45 08 01	 test	 BYTE PTR ___flags$[ebp], 1
  00012	74 07		 je	 SHORT $LN1@scalar@3
  00014	56		 push	 esi
  00015	e8 00 00 00 00	 call	 ??3@YAXPAX@Z		; operator delete
  0001a	59		 pop	 ecx
$LN1@scalar@3:
  0001b	8b c6		 mov	 eax, esi
  0001d	5e		 pop	 esi
  0001e	5d		 pop	 ebp
  0001f	c2 04 00	 ret	 4
??_GWaveKey@ioCrecendoSkill@@QAEPAXI@Z ENDP		; ioCrecendoSkill::WaveKey::`scalar deleting destructor'
_TEXT	ENDS
PUBLIC	?construct@?$allocator@UWaveKey@ioCrecendoSkill@@@std@@QAEXPAUWaveKey@ioCrecendoSkill@@$$QAU34@@Z ; std::allocator<ioCrecendoSkill::WaveKey>::construct
;	COMDAT xdata$x
; File c:\program files (x86)\microsoft visual studio 10.0\vc\include\utility
xdata$x	SEGMENT
__unwindtable$?construct@?$allocator@UWaveKey@ioCrecendoSkill@@@std@@QAEXPAUWaveKey@ioCrecendoSkill@@$$QAU34@@Z DD 0ffffffffH
	DD	FLAT:__unwindfunclet$?construct@?$allocator@UWaveKey@ioCrecendoSkill@@@std@@QAEXPAUWaveKey@ioCrecendoSkill@@$$QAU34@@Z$0
__ehfuncinfo$?construct@?$allocator@UWaveKey@ioCrecendoSkill@@@std@@QAEXPAUWaveKey@ioCrecendoSkill@@$$QAU34@@Z DD 019930522H
	DD	01H
	DD	FLAT:__unwindtable$?construct@?$allocator@UWaveKey@ioCrecendoSkill@@@std@@QAEXPAUWaveKey@ioCrecendoSkill@@$$QAU34@@Z
	DD	2 DUP(00H)
	DD	2 DUP(00H)
	DD	00H
	DD	01H
; Function compile flags: /Ogsp
; File c:\program files (x86)\microsoft visual studio 10.0\vc\include\xmemory
xdata$x	ENDS
;	COMDAT ?construct@?$allocator@UWaveKey@ioCrecendoSkill@@@std@@QAEXPAUWaveKey@ioCrecendoSkill@@$$QAU34@@Z
_TEXT	SEGMENT
$T543856 = -16						; size = 4
__$EHRec$ = -12						; size = 12
__Ptr$ = 8						; size = 4
__Val$ = 12						; size = 4
?construct@?$allocator@UWaveKey@ioCrecendoSkill@@@std@@QAEXPAUWaveKey@ioCrecendoSkill@@$$QAU34@@Z PROC ; std::allocator<ioCrecendoSkill::WaveKey>::construct, COMDAT
; _this$ = ecx

; 201  : 		{	// construct object at _Ptr with value _Val

  00000	6a 04		 push	 4
  00002	b8 00 00 00 00	 mov	 eax, __ehhandler$?construct@?$allocator@UWaveKey@ioCrecendoSkill@@@std@@QAEXPAUWaveKey@ioCrecendoSkill@@$$QAU34@@Z
  00007	e8 00 00 00 00	 call	 __EH_prolog3

; 202  : 		::new ((void _FARQ *)_Ptr) _Ty(_STD forward<_Ty>(_Val));

  0000c	8b 4d 08	 mov	 ecx, DWORD PTR __Ptr$[ebp]
  0000f	89 4d f0	 mov	 DWORD PTR $T543856[ebp], ecx
  00012	83 65 fc 00	 and	 DWORD PTR __$EHRec$[ebp+8], 0
  00016	85 c9		 test	 ecx, ecx
  00018	74 08		 je	 SHORT $LN3@construct@6
  0001a	ff 75 0c	 push	 DWORD PTR __Val$[ebp]
  0001d	e8 00 00 00 00	 call	 ??0WaveKey@ioCrecendoSkill@@QAE@ABU01@@Z
$LN3@construct@6:

; 203  : 		}

  00022	e8 00 00 00 00	 call	 __EH_epilog3
  00027	c2 08 00	 ret	 8
_TEXT	ENDS
;	COMDAT text$x
text$x	SEGMENT
__unwindfunclet$?construct@?$allocator@UWaveKey@ioCrecendoSkill@@@std@@QAEXPAUWaveKey@ioCrecendoSkill@@$$QAU34@@Z$0:
  00000	ff 75 08	 push	 DWORD PTR __Ptr$[ebp]
  00003	ff 75 f0	 push	 DWORD PTR $T543856[ebp]
  00006	e8 00 00 00 00	 call	 ??3@YAXPAX0@Z		; operator delete
  0000b	59		 pop	 ecx
  0000c	59		 pop	 ecx
  0000d	c3		 ret	 0
__ehhandler$?construct@?$allocator@UWaveKey@ioCrecendoSkill@@@std@@QAEXPAUWaveKey@ioCrecendoSkill@@$$QAU34@@Z:
  0000e	8b 54 24 08	 mov	 edx, DWORD PTR [esp+8]
  00012	8d 42 0c	 lea	 eax, DWORD PTR [edx+12]
  00015	8b 4a ec	 mov	 ecx, DWORD PTR [edx-20]
  00018	33 c8		 xor	 ecx, eax
  0001a	e8 00 00 00 00	 call	 @__security_check_cookie@4
  0001f	b8 00 00 00 00	 mov	 eax, OFFSET __ehfuncinfo$?construct@?$allocator@UWaveKey@ioCrecendoSkill@@@std@@QAEXPAUWaveKey@ioCrecendoSkill@@$$QAU34@@Z
  00024	e9 00 00 00 00	 jmp	 ___CxxFrameHandler3
text$x	ENDS
?construct@?$allocator@UWaveKey@ioCrecendoSkill@@@std@@QAEXPAUWaveKey@ioCrecendoSkill@@$$QAU34@@Z ENDP ; std::allocator<ioCrecendoSkill::WaveKey>::construct
PUBLIC	__$ArrayPad$
PUBLIC	?SetEndState@ioCrecendoSkill@@IAEXPAVioBaseChar@@PAVioPlayStage@@@Z ; ioCrecendoSkill::SetEndState
EXTRN	?ClearReserveKeyInput@ioBaseChar@@QAEXXZ:PROC	; ioBaseChar::ClearReserveKeyInput
EXTRN	?ClearSkillReserveKey@ioBaseChar@@QAEXXZ:PROC	; ioBaseChar::ClearSkillReserveKey
;	COMDAT xdata$x
; File d:\lost saga for developer\youtube\tutorial\source\src\lsclient\ioskill.h
xdata$x	SEGMENT
__unwindtable$?SetEndState@ioCrecendoSkill@@IAEXPAVioBaseChar@@PAVioPlayStage@@@Z DD 0ffffffffH
	DD	FLAT:__unwindfunclet$?SetEndState@ioCrecendoSkill@@IAEXPAVioBaseChar@@PAVioPlayStage@@@Z$0
__ehfuncinfo$?SetEndState@ioCrecendoSkill@@IAEXPAVioBaseChar@@PAVioPlayStage@@@Z DD 019930522H
	DD	01H
	DD	FLAT:__unwindtable$?SetEndState@ioCrecendoSkill@@IAEXPAVioBaseChar@@PAVioPlayStage@@@Z
	DD	2 DUP(00H)
	DD	2 DUP(00H)
	DD	00H
	DD	01H
; Function compile flags: /Ogsp
; File d:\lost saga for developer\youtube\tutorial\source\src\lsclient\iocrecendoskill.cpp
xdata$x	ENDS
;	COMDAT ?SetEndState@ioCrecendoSkill@@IAEXPAVioBaseChar@@PAVioPlayStage@@@Z
_TEXT	SEGMENT
_kPacket$532573 = -32808				; size = 32792
__$ArrayPad$ = -16					; size = 4
__$EHRec$ = -12						; size = 12
_pChar$ = 8						; size = 4
_pStage$ = 12						; size = 4
?SetEndState@ioCrecendoSkill@@IAEXPAVioBaseChar@@PAVioPlayStage@@@Z PROC ; ioCrecendoSkill::SetEndState, COMDAT
; _this$ = ecx

; 204  : {

  00000	55		 push	 ebp
  00001	8b ec		 mov	 ebp, esp
  00003	6a ff		 push	 -1
  00005	68 00 00 00 00	 push	 __ehhandler$?SetEndState@ioCrecendoSkill@@IAEXPAVioBaseChar@@PAVioPlayStage@@@Z
  0000a	64 a1 00 00 00
	00		 mov	 eax, DWORD PTR fs:0
  00010	50		 push	 eax
  00011	b8 1c 80 00 00	 mov	 eax, 32796		; 0000801cH
  00016	e8 00 00 00 00	 call	 __chkstk
  0001b	a1 00 00 00 00	 mov	 eax, DWORD PTR ___security_cookie
  00020	33 c5		 xor	 eax, ebp
  00022	89 45 f0	 mov	 DWORD PTR __$ArrayPad$[ebp], eax
  00025	53		 push	 ebx
  00026	56		 push	 esi
  00027	57		 push	 edi
  00028	50		 push	 eax
  00029	8d 45 f4	 lea	 eax, DWORD PTR __$EHRec$[ebp]
  0002c	64 a3 00 00 00
	00		 mov	 DWORD PTR fs:0, eax
  00032	8b 75 08	 mov	 esi, DWORD PTR _pChar$[ebp]
  00035	8b 5d 0c	 mov	 ebx, DWORD PTR _pStage$[ebp]
  00038	8b f9		 mov	 edi, ecx

; 205  : 	m_SkillState = SS_END;	
; 206  : 
; 207  : 	pChar->ClearSkillReserveKey();

  0003a	8b ce		 mov	 ecx, esi
  0003c	c7 87 e4 10 00
	00 02 00 00 00	 mov	 DWORD PTR [edi+4324], 2
  00046	e8 00 00 00 00	 call	 ?ClearSkillReserveKey@ioBaseChar@@QAEXXZ ; ioBaseChar::ClearSkillReserveKey

; 208  : 	pChar->ClearReserveKeyInput();

  0004b	8b ce		 mov	 ecx, esi
  0004d	e8 00 00 00 00	 call	 ?ClearReserveKeyInput@ioBaseChar@@QAEXXZ ; ioBaseChar::ClearReserveKeyInput

; 209  : 
; 210  : 	m_dwEndTime = FRAMEGETTIME();

  00052	ff 15 00 00 00
	00		 call	 DWORD PTR __imp_?GetSingleton@ioFrameTimer@@SAAAV1@XZ
  00058	8b c8		 mov	 ecx, eax
  0005a	ff 15 00 00 00
	00		 call	 DWORD PTR __imp_?GetLoopSec@ioFrameTimer@@QBEKXZ

; 211  : 	ChangeFailedKeyEffect( pChar, pStage );

  00060	53		 push	 ebx
  00061	56		 push	 esi
  00062	8b cf		 mov	 ecx, edi
  00064	89 87 04 11 00
	00		 mov	 DWORD PTR [edi+4356], eax
  0006a	e8 00 00 00 00	 call	 ?ChangeFailedKeyEffect@ioCrecendoSkill@@IAEXPAVioBaseChar@@PAVioPlayStage@@@Z ; ioCrecendoSkill::ChangeFailedKeyEffect

; 212  : 
; 213  : #ifdef _DEBUG
; 214  : 	LOG.PrintTimeAndLog(0, "%s - %d", __FUNCTION__, m_dwEndTime );
; 215  : #endif
; 216  : 
; 217  : 	if( pChar->IsNeedProcess() && pChar->IsNeedSendNetwork() )

  0006f	8b 06		 mov	 eax, DWORD PTR [esi]
  00071	8b ce		 mov	 ecx, esi
  00073	ff 90 00 01 00
	00		 call	 DWORD PTR [eax+256]
  00079	84 c0		 test	 al, al
  0007b	74 6f		 je	 SHORT $LN1@SetEndStat
  0007d	8b 06		 mov	 eax, DWORD PTR [esi]
  0007f	8b ce		 mov	 ecx, esi
  00081	ff 90 04 01 00
	00		 call	 DWORD PTR [eax+260]
  00087	84 c0		 test	 al, al
  00089	74 61		 je	 SHORT $LN1@SetEndStat

; 218  : 	{
; 219  : 		SP2Packet kPacket( CUPK_SKILL_EXTRA_INFO );

  0008b	68 39 41 00 00	 push	 16697			; 00004139H
  00090	8d 8d d8 7f ff
	ff		 lea	 ecx, DWORD PTR _kPacket$532573[ebp]
  00096	e8 00 00 00 00	 call	 ??0SP2Packet@@QAE@K@Z	; SP2Packet::SP2Packet
  0009b	83 65 fc 00	 and	 DWORD PTR __$EHRec$[ebp+8], 0

; 220  : 		kPacket << pChar->GetCharName();

  0009f	81 c6 d4 02 00
	00		 add	 esi, 724		; 000002d4H
  000a5	56		 push	 esi
  000a6	8d 8d d8 7f ff
	ff		 lea	 ecx, DWORD PTR _kPacket$532573[ebp]
  000ac	e8 00 00 00 00	 call	 ??6SP2Packet@@QAEAAV0@ABVioHashString@@@Z ; SP2Packet::operator<<

; 221  : 		kPacket << GetName();

  000b1	83 c7 24	 add	 edi, 36			; 00000024H
  000b4	57		 push	 edi
  000b5	8d 8d d8 7f ff
	ff		 lea	 ecx, DWORD PTR _kPacket$532573[ebp]
  000bb	e8 00 00 00 00	 call	 ??6SP2Packet@@QAEAAV0@ABVioHashString@@@Z ; SP2Packet::operator<<

; 222  : 		kPacket << SSC_END;

  000c0	6a 01		 push	 1
  000c2	8d 8d d8 7f ff
	ff		 lea	 ecx, DWORD PTR _kPacket$532573[ebp]
  000c8	e8 00 00 00 00	 call	 ??6SP2Packet@@QAEAAV0@H@Z ; SP2Packet::operator<<

; 223  : 		P2PNetwork::SendToAllPlayingUser( kPacket );

  000cd	8d 85 d8 7f ff
	ff		 lea	 eax, DWORD PTR _kPacket$532573[ebp]
  000d3	6a 00		 push	 0
  000d5	50		 push	 eax
  000d6	e8 00 00 00 00	 call	 ?SendToAllPlayingUser@P2PNetwork@@YAXAAVSP2Packet@@PAVioBaseChar@@@Z ; P2PNetwork::SendToAllPlayingUser

; 224  : 	}

  000db	83 4d fc ff	 or	 DWORD PTR __$EHRec$[ebp+8], -1
  000df	59		 pop	 ecx
  000e0	59		 pop	 ecx
  000e1	8d 8d d8 7f ff
	ff		 lea	 ecx, DWORD PTR _kPacket$532573[ebp]
  000e7	e8 00 00 00 00	 call	 ??1SP2Packet@@UAE@XZ	; SP2Packet::~SP2Packet
$LN1@SetEndStat:

; 225  : }

  000ec	8b 4d f4	 mov	 ecx, DWORD PTR __$EHRec$[ebp]
  000ef	64 89 0d 00 00
	00 00		 mov	 DWORD PTR fs:0, ecx
  000f6	59		 pop	 ecx
  000f7	5f		 pop	 edi
  000f8	5e		 pop	 esi
  000f9	5b		 pop	 ebx
  000fa	8b 4d f0	 mov	 ecx, DWORD PTR __$ArrayPad$[ebp]
  000fd	33 cd		 xor	 ecx, ebp
  000ff	e8 00 00 00 00	 call	 @__security_check_cookie@4
  00104	c9		 leave
  00105	c2 08 00	 ret	 8
_TEXT	ENDS
;	COMDAT text$x
text$x	SEGMENT
__unwindfunclet$?SetEndState@ioCrecendoSkill@@IAEXPAVioBaseChar@@PAVioPlayStage@@@Z$0:
  00000	8d 8d d8 7f ff
	ff		 lea	 ecx, DWORD PTR _kPacket$532573[ebp]
  00006	e9 00 00 00 00	 jmp	 ??1SP2Packet@@UAE@XZ	; SP2Packet::~SP2Packet
__ehhandler$?SetEndState@ioCrecendoSkill@@IAEXPAVioBaseChar@@PAVioPlayStage@@@Z:
  0000b	8b 54 24 08	 mov	 edx, DWORD PTR [esp+8]
  0000f	8d 42 0c	 lea	 eax, DWORD PTR [edx+12]
  00012	8b 8a d4 7f ff
	ff		 mov	 ecx, DWORD PTR [edx-32812]
  00018	33 c8		 xor	 ecx, eax
  0001a	e8 00 00 00 00	 call	 @__security_check_cookie@4
  0001f	8b 4a fc	 mov	 ecx, DWORD PTR [edx-4]
  00022	33 c8		 xor	 ecx, eax
  00024	e8 00 00 00 00	 call	 @__security_check_cookie@4
  00029	b8 00 00 00 00	 mov	 eax, OFFSET __ehfuncinfo$?SetEndState@ioCrecendoSkill@@IAEXPAVioBaseChar@@PAVioPlayStage@@@Z
  0002e	e9 00 00 00 00	 jmp	 ___CxxFrameHandler3
text$x	ENDS
?SetEndState@ioCrecendoSkill@@IAEXPAVioBaseChar@@PAVioPlayStage@@@Z ENDP ; ioCrecendoSkill::SetEndState
PUBLIC	?ProcessKeyInput@ioCrecendoSkill@@IAEXPAVioBaseChar@@PAVioPlayStage@@K@Z ; ioCrecendoSkill::ProcessKeyInput
EXTRN	?ReduceCurSkillGaugeBySkill@ioBaseChar@@QAEMPAVioItem@@M@Z:PROC ; ioBaseChar::ReduceCurSkillGaugeBySkill
; Function compile flags: /Ogsp
;	COMDAT ?ProcessKeyInput@ioCrecendoSkill@@IAEXPAVioBaseChar@@PAVioPlayStage@@K@Z
_TEXT	SEGMENT
_pChar$ = 8						; size = 4
_pStage$ = 12						; size = 4
_dwCurKey$532608 = 16					; size = 4
_dwCurTime$ = 16					; size = 4
?ProcessKeyInput@ioCrecendoSkill@@IAEXPAVioBaseChar@@PAVioPlayStage@@K@Z PROC ; ioCrecendoSkill::ProcessKeyInput, COMDAT
; _this$ = ecx

; 300  : {

  00000	55		 push	 ebp
  00001	8b ec		 mov	 ebp, esp
  00003	53		 push	 ebx
  00004	56		 push	 esi
  00005	57		 push	 edi
  00006	8b f9		 mov	 edi, ecx

; 301  : 	const WaveKey& rkInfo = m_SoundWaveKeyVec[m_iCurSoundWayIdx];

  00008	8b b7 54 12 00
	00		 mov	 esi, DWORD PTR [edi+4692]

; 302  : 	if( m_dwLoopStartTime + rkInfo.m_dwStartTime <= dwCurTime && dwCurTime <= m_dwLoopStartTime + rkInfo.m_dwEndTime )

  0000e	8b 87 fc 10 00
	00		 mov	 eax, DWORD PTR [edi+4348]
  00014	6b f6 6c	 imul	 esi, 108		; 0000006cH
  00017	03 b7 7c 11 00
	00		 add	 esi, DWORD PTR [edi+4476]
  0001d	8b 0e		 mov	 ecx, DWORD PTR [esi]
  0001f	03 c8		 add	 ecx, eax
  00021	3b 4d 10	 cmp	 ecx, DWORD PTR _dwCurTime$[ebp]
  00024	77 76		 ja	 SHORT $LN7@ProcessKey@2
  00026	8b 4e 04	 mov	 ecx, DWORD PTR [esi+4]
  00029	03 c8		 add	 ecx, eax
  0002b	39 4d 10	 cmp	 DWORD PTR _dwCurTime$[ebp], ecx
  0002e	77 6c		 ja	 SHORT $LN7@ProcessKey@2

; 303  : 	{
; 304  : 		if( GetKey( pChar ) == WKS_NONE )

  00030	8b 5d 08	 mov	 ebx, DWORD PTR _pChar$[ebp]
  00033	53		 push	 ebx
  00034	8b cf		 mov	 ecx, edi
  00036	e8 00 00 00 00	 call	 ?GetKey@ioCrecendoSkill@@IAEKPAVioBaseChar@@@Z ; ioCrecendoSkill::GetKey
  0003b	85 c0		 test	 eax, eax
  0003d	74 74		 je	 SHORT $LN1@ProcessKey@2

; 305  : 			return;
; 306  : 
; 307  : 		DWORD dwCurKey = rkInfo.m_dwKey;

  0003f	8b 46 08	 mov	 eax, DWORD PTR [esi+8]
  00042	89 45 10	 mov	 DWORD PTR _dwCurKey$532608[ebp], eax

; 308  : 		if( dwCurKey == WKS_NONE )

  00045	85 c0		 test	 eax, eax
  00047	75 06		 jne	 SHORT $LN5@ProcessKey@2

; 309  : 			dwCurKey = rkInfo.m_dwRandKey;

  00049	8b 46 0c	 mov	 eax, DWORD PTR [esi+12]
  0004c	89 45 10	 mov	 DWORD PTR _dwCurKey$532608[ebp], eax
$LN5@ProcessKey@2:

; 310  : 
; 311  : 		if( GetKey( pChar ) == dwCurKey )

  0004f	53		 push	 ebx
  00050	8b cf		 mov	 ecx, edi
  00052	e8 00 00 00 00	 call	 ?GetKey@ioCrecendoSkill@@IAEKPAVioBaseChar@@@Z ; ioCrecendoSkill::GetKey
  00057	3b 45 10	 cmp	 eax, DWORD PTR _dwCurKey$532608[ebp]
  0005a	75 3a		 jne	 SHORT $LN4@ProcessKey@2

; 312  : 		{
; 313  : 			pChar->ReduceCurSkillGaugeBySkill( NULL, rkInfo.m_fNeedGague );

  0005c	f3 0f 10 46 64	 movss	 xmm0, DWORD PTR [esi+100]
  00061	51		 push	 ecx
  00062	f3 0f 11 04 24	 movss	 DWORD PTR [esp], xmm0
  00067	6a 00		 push	 0
  00069	8b cb		 mov	 ecx, ebx
  0006b	e8 00 00 00 00	 call	 ?ReduceCurSkillGaugeBySkill@ioBaseChar@@QAEMPAVioItem@@M@Z ; ioBaseChar::ReduceCurSkillGaugeBySkill
  00070	dd d8		 fstp	 ST(0)

; 314  : 			RemoveKeyEffect( pChar );

  00072	53		 push	 ebx
  00073	8b cf		 mov	 ecx, edi
  00075	e8 00 00 00 00	 call	 ?RemoveKeyEffect@ioCrecendoSkill@@IAEXPAVioBaseChar@@@Z ; ioCrecendoSkill::RemoveKeyEffect

; 315  : 			AttackFire( pChar, rkInfo.m_WaveAttack, pChar->GetWorldPosition() );

  0007a	8b 03		 mov	 eax, DWORD PTR [ebx]
  0007c	8b cb		 mov	 ecx, ebx
  0007e	ff 50 70	 call	 DWORD PTR [eax+112]
  00081	50		 push	 eax
  00082	83 c6 10	 add	 esi, 16			; 00000010H
  00085	56		 push	 esi
  00086	53		 push	 ebx
  00087	8b cf		 mov	 ecx, edi
  00089	e8 00 00 00 00	 call	 ?AttackFire@ioCrecendoSkill@@IAEXPAVioBaseChar@@ABUAttackAttribute@@ABUD3DXVECTOR3@@@Z ; ioCrecendoSkill::AttackFire

; 316  : 			m_iCurSoundWayIdx++;

  0008e	ff 87 54 12 00
	00		 inc	 DWORD PTR [edi+4692]

; 317  : 		}
; 318  : 		else

  00094	eb 1d		 jmp	 SHORT $LN1@ProcessKey@2
$LN4@ProcessKey@2:

; 319  : 		{			
; 320  : 			SetEndState( pChar, pStage );

  00096	ff 75 0c	 push	 DWORD PTR _pStage$[ebp]
  00099	53		 push	 ebx

; 321  : 		}

  0009a	eb 10		 jmp	 SHORT $LN12@ProcessKey@2
$LN7@ProcessKey@2:

; 322  : 	}
; 323  : 	else if( m_dwLoopStartTime + rkInfo.m_dwEndTime < dwCurTime )

  0009c	8b 4e 04	 mov	 ecx, DWORD PTR [esi+4]
  0009f	03 c8		 add	 ecx, eax
  000a1	3b 4d 10	 cmp	 ecx, DWORD PTR _dwCurTime$[ebp]
  000a4	73 0d		 jae	 SHORT $LN1@ProcessKey@2

; 324  : 	{
; 325  : 		SetEndState( pChar, pStage );

  000a6	ff 75 0c	 push	 DWORD PTR _pStage$[ebp]
  000a9	ff 75 08	 push	 DWORD PTR _pChar$[ebp]
$LN12@ProcessKey@2:
  000ac	8b cf		 mov	 ecx, edi
  000ae	e8 00 00 00 00	 call	 ?SetEndState@ioCrecendoSkill@@IAEXPAVioBaseChar@@PAVioPlayStage@@@Z ; ioCrecendoSkill::SetEndState
$LN1@ProcessKey@2:
  000b3	5f		 pop	 edi
  000b4	5e		 pop	 esi
  000b5	5b		 pop	 ebx

; 326  : 	}
; 327  : }

  000b6	5d		 pop	 ebp
  000b7	c2 0c 00	 ret	 12			; 0000000cH
?ProcessKeyInput@ioCrecendoSkill@@IAEXPAVioBaseChar@@PAVioPlayStage@@K@Z ENDP ; ioCrecendoSkill::ProcessKeyInput
_TEXT	ENDS
PUBLIC	_pStage$GSCopy$
PUBLIC	__$ArrayPad$
PUBLIC	?ProcessLastKeyInput@ioCrecendoSkill@@IAEXPAVioBaseChar@@PAVioPlayStage@@K@Z ; ioCrecendoSkill::ProcessLastKeyInput
EXTRN	__imp_??D@YA?AUD3DXVECTOR3@@ABUD3DXQUATERNION@@ABU0@@Z:PROC
; Function compile flags: /Ogsp
;	COMDAT ?ProcessLastKeyInput@ioCrecendoSkill@@IAEXPAVioBaseChar@@PAVioPlayStage@@K@Z
_TEXT	SEGMENT
tv453 = -48						; size = 4
_pStage$GSCopy$ = -44					; size = 4
_vDir$532628 = -40					; size = 12
_vFirePos$532632 = -28					; size = 12
$T532633 = -16						; size = 12
$T532630 = -16						; size = 12
__$ArrayPad$ = -4					; size = 4
_pChar$ = 8						; size = 4
_pStage$ = 12						; size = 4
_dwCurTime$ = 16					; size = 4
?ProcessLastKeyInput@ioCrecendoSkill@@IAEXPAVioBaseChar@@PAVioPlayStage@@K@Z PROC ; ioCrecendoSkill::ProcessLastKeyInput, COMDAT
; _this$ = ecx

; 330  : {

  00000	55		 push	 ebp
  00001	8b ec		 mov	 ebp, esp
  00003	83 ec 30	 sub	 esp, 48			; 00000030H
  00006	a1 00 00 00 00	 mov	 eax, DWORD PTR ___security_cookie
  0000b	33 c5		 xor	 eax, ebp
  0000d	89 45 fc	 mov	 DWORD PTR __$ArrayPad$[ebp], eax
  00010	8b 45 0c	 mov	 eax, DWORD PTR _pStage$[ebp]
  00013	56		 push	 esi
  00014	8b f1		 mov	 esi, ecx

; 331  : 	if( m_dwLoopStartTime + m_LastSoundWaveKey.m_dwStartTime <= dwCurTime && dwCurTime <= m_dwLoopStartTime + m_LastSoundWaveKey.m_dwEndTime )

  00016	8b 8e 10 11 00
	00		 mov	 ecx, DWORD PTR [esi+4368]

; 339  : 
; 340  : 		if( GetMixKey( pChar ) == dwCurKey )

  0001c	89 45 d4	 mov	 DWORD PTR _pStage$GSCopy$[ebp], eax
  0001f	8b 86 fc 10 00
	00		 mov	 eax, DWORD PTR [esi+4348]
  00025	03 c8		 add	 ecx, eax
  00027	57		 push	 edi
  00028	8b 7d 08	 mov	 edi, DWORD PTR _pChar$[ebp]
  0002b	3b 4d 10	 cmp	 ecx, DWORD PTR _dwCurTime$[ebp]
  0002e	0f 87 ad 01 00
	00		 ja	 $LN1@ProcessLas

; 331  : 	if( m_dwLoopStartTime + m_LastSoundWaveKey.m_dwStartTime <= dwCurTime && dwCurTime <= m_dwLoopStartTime + m_LastSoundWaveKey.m_dwEndTime )

  00034	8b 8e 14 11 00
	00		 mov	 ecx, DWORD PTR [esi+4372]
  0003a	03 c8		 add	 ecx, eax
  0003c	39 4d 10	 cmp	 DWORD PTR _dwCurTime$[ebp], ecx
  0003f	0f 87 9c 01 00
	00		 ja	 $LN1@ProcessLas

; 332  : 	{
; 333  : 		if( GetMixKey( pChar ) == WKS_NONE )

  00045	57		 push	 edi
  00046	8b ce		 mov	 ecx, esi
  00048	e8 00 00 00 00	 call	 ?GetMixKey@ioCrecendoSkill@@IAEKPAVioBaseChar@@@Z ; ioCrecendoSkill::GetMixKey
  0004d	85 c0		 test	 eax, eax
  0004f	0f 84 8c 01 00
	00		 je	 $LN1@ProcessLas

; 334  : 			return;
; 335  : 
; 336  : 		DWORD dwCurKey = m_LastSoundWaveKey.m_dwKey;

  00055	53		 push	 ebx
  00056	8b 9e 18 11 00
	00		 mov	 ebx, DWORD PTR [esi+4376]

; 337  : 		if( dwCurKey == WKS_NONE )

  0005c	85 db		 test	 ebx, ebx
  0005e	75 06		 jne	 SHORT $LN6@ProcessLas

; 338  : 			dwCurKey = m_LastSoundWaveKey.m_dwRandKey;

  00060	8b 9e 1c 11 00
	00		 mov	 ebx, DWORD PTR [esi+4380]
$LN6@ProcessLas:

; 339  : 
; 340  : 		if( GetMixKey( pChar ) == dwCurKey )

  00066	57		 push	 edi
  00067	8b ce		 mov	 ecx, esi
  00069	e8 00 00 00 00	 call	 ?GetMixKey@ioCrecendoSkill@@IAEKPAVioBaseChar@@@Z ; ioCrecendoSkill::GetMixKey
  0006e	3b c3		 cmp	 eax, ebx
  00070	5b		 pop	 ebx
  00071	0f 85 4e 01 00
	00		 jne	 $LN5@ProcessLas

; 341  : 		{
; 342  : 			pChar->ReduceCurSkillGaugeBySkill( NULL, m_LastSoundWaveKey.m_fNeedGague );

  00077	f3 0f 10 86 74
	11 00 00	 movss	 xmm0, DWORD PTR [esi+4468]
  0007f	51		 push	 ecx
  00080	f3 0f 11 04 24	 movss	 DWORD PTR [esp], xmm0
  00085	6a 00		 push	 0
  00087	8b cf		 mov	 ecx, edi
  00089	e8 00 00 00 00	 call	 ?ReduceCurSkillGaugeBySkill@ioBaseChar@@QAEMPAVioItem@@M@Z ; ioBaseChar::ReduceCurSkillGaugeBySkill
  0008e	dd d8		 fstp	 ST(0)

; 343  : 
; 344  : 			ioBaseChar* pTarget = FindTarget( pChar, pStage, m_LastSoundWaveKey.m_fTargetRange );

  00090	f3 0f 10 86 78
	11 00 00	 movss	 xmm0, DWORD PTR [esi+4472]
  00098	51		 push	 ecx
  00099	f3 0f 11 04 24	 movss	 DWORD PTR [esp], xmm0
  0009e	ff 75 d4	 push	 DWORD PTR _pStage$GSCopy$[ebp]
  000a1	8b ce		 mov	 ecx, esi
  000a3	57		 push	 edi
  000a4	e8 00 00 00 00	 call	 ?FindTarget@ioCrecendoSkill@@IAEPAVioBaseChar@@PAV2@PAVioPlayStage@@M@Z ; ioCrecendoSkill::FindTarget

; 345  : 			if( pTarget )

  000a9	85 c0		 test	 eax, eax
  000ab	74 0c		 je	 SHORT $LN4@ProcessLas

; 346  : 			{
; 347  : 				AttackFire( pChar, m_LastSoundWaveKey.m_WaveAttack, pTarget->GetWorldPosition() );

  000ad	8b 10		 mov	 edx, DWORD PTR [eax]
  000af	8b c8		 mov	 ecx, eax
  000b1	ff 52 70	 call	 DWORD PTR [edx+112]

; 348  : 			}
; 349  : 			else

  000b4	e9 f2 00 00 00	 jmp	 $LN26@ProcessLas
$LN4@ProcessLas:

; 350  : 			{
; 351  : 				D3DXVECTOR3 vDir     = pChar->GetTargetRot() * D3DXVECTOR3(0.0f, 0.0f, -FLOAT1);

  000b9	b8 01 00 00 00	 mov	 eax, 1
  000be	0f 57 c0	 xorps	 xmm0, xmm0
  000c1	89 45 d0	 mov	 DWORD PTR tv453[ebp], eax
  000c4	db 45 d0	 fild	 DWORD PTR tv453[ebp]
  000c7	f3 0f 11 45 f0	 movss	 DWORD PTR $T532630[ebp], xmm0
  000cc	f3 0f 11 45 f4	 movss	 DWORD PTR $T532630[ebp+4], xmm0
  000d1	85 c0		 test	 eax, eax
  000d3	79 06		 jns	 SHORT $LN25@ProcessLas
  000d5	d8 05 00 00 00
	00		 fadd	 DWORD PTR __real@4f800000
$LN25@ProcessLas:
  000db	8d 45 f0	 lea	 eax, DWORD PTR $T532630[ebp]
  000de	d9 e0		 fchs
  000e0	50		 push	 eax
  000e1	d9 5d f8	 fstp	 DWORD PTR $T532630[ebp+8]
  000e4	8d 87 a4 06 00
	00		 lea	 eax, DWORD PTR [edi+1700]
  000ea	50		 push	 eax
  000eb	8d 45 d8	 lea	 eax, DWORD PTR _vDir$532628[ebp]
  000ee	50		 push	 eax
  000ef	ff 15 00 00 00
	00		 call	 DWORD PTR __imp_??D@YA?AUD3DXVECTOR3@@ABUD3DXQUATERNION@@ABU0@@Z

; 352  : 				D3DXVECTOR3 vFirePos = pChar->GetWorldPosition() + m_LastSoundWaveKey.m_fOffset * vDir;

  000f5	f3 0f 10 86 70
	11 00 00	 movss	 xmm0, DWORD PTR [esi+4464]
  000fd	f3 0f 10 55 d8	 movss	 xmm2, DWORD PTR _vDir$532628[ebp]
  00102	8b 07		 mov	 eax, DWORD PTR [edi]
  00104	0f 5a c8	 cvtps2pd xmm1, xmm0
  00107	0f 5a d2	 cvtps2pd xmm2, xmm2
  0010a	f2 0f 59 ca	 mulsd	 xmm1, xmm2
  0010e	66 0f 5a c9	 cvtpd2ps xmm1, xmm1
  00112	f3 0f 11 4d f0	 movss	 DWORD PTR $T532633[ebp], xmm1
  00117	f3 0f 10 4d dc	 movss	 xmm1, DWORD PTR _vDir$532628[ebp+4]
  0011c	0f 5a c9	 cvtps2pd xmm1, xmm1
  0011f	0f 5a d0	 cvtps2pd xmm2, xmm0
  00122	f2 0f 59 ca	 mulsd	 xmm1, xmm2
  00126	66 0f 5a c9	 cvtpd2ps xmm1, xmm1
  0012a	f3 0f 11 4d f4	 movss	 DWORD PTR $T532633[ebp+4], xmm1
  0012f	f3 0f 10 4d e0	 movss	 xmm1, DWORD PTR _vDir$532628[ebp+8]
  00134	0f 5a c0	 cvtps2pd xmm0, xmm0
  00137	0f 5a c9	 cvtps2pd xmm1, xmm1
  0013a	f2 0f 59 c8	 mulsd	 xmm1, xmm0
  0013e	0f 57 c0	 xorps	 xmm0, xmm0
  00141	66 0f 5a c1	 cvtpd2ps xmm0, xmm1
  00145	83 c4 0c	 add	 esp, 12			; 0000000cH
  00148	8b cf		 mov	 ecx, edi
  0014a	f3 0f 11 45 f8	 movss	 DWORD PTR $T532633[ebp+8], xmm0
  0014f	ff 50 70	 call	 DWORD PTR [eax+112]
  00152	f3 0f 10 40 04	 movss	 xmm0, DWORD PTR [eax+4]
  00157	f3 0f 10 4d f4	 movss	 xmm1, DWORD PTR $T532633[ebp+4]
  0015c	f3 0f 10 55 f8	 movss	 xmm2, DWORD PTR $T532633[ebp+8]
  00161	f3 0f 10 5d f0	 movss	 xmm3, DWORD PTR $T532633[ebp]
  00166	0f 5a c9	 cvtps2pd xmm1, xmm1
  00169	0f 5a c0	 cvtps2pd xmm0, xmm0
  0016c	f2 0f 58 c1	 addsd	 xmm0, xmm1
  00170	f3 0f 10 48 08	 movss	 xmm1, DWORD PTR [eax+8]
  00175	0f 5a d2	 cvtps2pd xmm2, xmm2
  00178	0f 5a c9	 cvtps2pd xmm1, xmm1
  0017b	f2 0f 58 ca	 addsd	 xmm1, xmm2
  0017f	f3 0f 10 10	 movss	 xmm2, DWORD PTR [eax]
  00183	0f 5a d2	 cvtps2pd xmm2, xmm2
  00186	0f 5a db	 cvtps2pd xmm3, xmm3
  00189	f2 0f 58 d3	 addsd	 xmm2, xmm3
  0018d	66 0f 5a c0	 cvtpd2ps xmm0, xmm0
  00191	66 0f 5a c9	 cvtpd2ps xmm1, xmm1
  00195	66 0f 5a d2	 cvtpd2ps xmm2, xmm2
  00199	f3 0f 11 55 e4	 movss	 DWORD PTR _vFirePos$532632[ebp], xmm2
  0019e	f3 0f 11 45 e8	 movss	 DWORD PTR _vFirePos$532632[ebp+4], xmm0
  001a3	f3 0f 11 4d ec	 movss	 DWORD PTR _vFirePos$532632[ebp+8], xmm1

; 353  : 				AttackFire( pChar, m_LastSoundWaveKey.m_WaveAttack, vFirePos );

  001a8	8d 45 e4	 lea	 eax, DWORD PTR _vFirePos$532632[ebp]
$LN26@ProcessLas:
  001ab	50		 push	 eax
  001ac	8d 86 20 11 00
	00		 lea	 eax, DWORD PTR [esi+4384]
  001b2	50		 push	 eax
  001b3	57		 push	 edi
  001b4	8b ce		 mov	 ecx, esi
  001b6	e8 00 00 00 00	 call	 ?AttackFire@ioCrecendoSkill@@IAEXPAVioBaseChar@@ABUAttackAttribute@@ABUD3DXVECTOR3@@@Z ; ioCrecendoSkill::AttackFire

; 354  : 			}
; 355  : 
; 356  : 			RemoveLastKeyEffect( pChar );

  001bb	57		 push	 edi
  001bc	8b ce		 mov	 ecx, esi
  001be	e8 00 00 00 00	 call	 ?RemoveLastKeyEffect@ioCrecendoSkill@@IAEXPAVioBaseChar@@@Z ; ioCrecendoSkill::RemoveLastKeyEffect

; 357  : 			SetEndState( pChar, pStage );

  001c3	eb 11		 jmp	 SHORT $LN27@ProcessLas
$LN5@ProcessLas:

; 358  : 		}
; 359  : 		else if( m_dwLoopStartTime + m_LastSoundWaveKey.m_dwEndTime < dwCurTime )

  001c5	8b 86 fc 10 00
	00		 mov	 eax, DWORD PTR [esi+4348]
  001cb	03 86 14 11 00
	00		 add	 eax, DWORD PTR [esi+4372]
  001d1	3b 45 10	 cmp	 eax, DWORD PTR _dwCurTime$[ebp]
  001d4	73 0b		 jae	 SHORT $LN1@ProcessLas
$LN27@ProcessLas:

; 360  : 		{			
; 361  : 			SetEndState( pChar, pStage );

  001d6	ff 75 d4	 push	 DWORD PTR _pStage$GSCopy$[ebp]
  001d9	8b ce		 mov	 ecx, esi
  001db	57		 push	 edi
  001dc	e8 00 00 00 00	 call	 ?SetEndState@ioCrecendoSkill@@IAEXPAVioBaseChar@@PAVioPlayStage@@@Z ; ioCrecendoSkill::SetEndState
$LN1@ProcessLas:

; 362  : 		}
; 363  : 	}
; 364  : }

  001e1	8b 4d fc	 mov	 ecx, DWORD PTR __$ArrayPad$[ebp]
  001e4	5f		 pop	 edi
  001e5	33 cd		 xor	 ecx, ebp
  001e7	5e		 pop	 esi
  001e8	e8 00 00 00 00	 call	 @__security_check_cookie@4
  001ed	c9		 leave
  001ee	c2 0c 00	 ret	 12			; 0000000cH
?ProcessLastKeyInput@ioCrecendoSkill@@IAEXPAVioBaseChar@@PAVioPlayStage@@K@Z ENDP ; ioCrecendoSkill::ProcessLastKeyInput
_TEXT	ENDS
PUBLIC	_pStage$GSCopy$
PUBLIC	_pChar$GSCopy$
PUBLIC	__$ArrayPad$
PUBLIC	?ApplyExtraSkillInfo@ioCrecendoSkill@@UAEXPAVioBaseChar@@PAVioPlayStage@@AAVSP2Packet@@@Z ; ioCrecendoSkill::ApplyExtraSkillInfo
EXTRN	??5SP2Packet@@QAEAAV0@AAUD3DXVECTOR3@@@Z:PROC	; SP2Packet::operator>>
EXTRN	??5SP2Packet@@QAEAAV0@AAH@Z:PROC		; SP2Packet::operator>>
; Function compile flags: /Ogsp
;	COMDAT ?ApplyExtraSkillInfo@ioCrecendoSkill@@UAEXPAVioBaseChar@@PAVioPlayStage@@AAVSP2Packet@@@Z
_TEXT	SEGMENT
_pStage$GSCopy$ = -28					; size = 4
_iType$ = -24						; size = 4
_pChar$GSCopy$ = -20					; size = 4
_vFirePos$533341 = -16					; size = 12
__$ArrayPad$ = -4					; size = 4
_pChar$ = 8						; size = 4
_pStage$ = 12						; size = 4
_rkPacket$ = 16						; size = 4
?ApplyExtraSkillInfo@ioCrecendoSkill@@UAEXPAVioBaseChar@@PAVioPlayStage@@AAVSP2Packet@@@Z PROC ; ioCrecendoSkill::ApplyExtraSkillInfo, COMDAT
; _this$ = ecx

; 768  : {

  00000	55		 push	 ebp
  00001	8b ec		 mov	 ebp, esp
  00003	83 ec 1c	 sub	 esp, 28			; 0000001cH
  00006	a1 00 00 00 00	 mov	 eax, DWORD PTR ___security_cookie
  0000b	33 c5		 xor	 eax, ebp
  0000d	89 45 fc	 mov	 DWORD PTR __$ArrayPad$[ebp], eax
  00010	8b 45 0c	 mov	 eax, DWORD PTR _pStage$[ebp]
  00013	53		 push	 ebx
  00014	8b 5d 10	 mov	 ebx, DWORD PTR _rkPacket$[ebp]
  00017	56		 push	 esi
  00018	57		 push	 edi
  00019	8b 7d 08	 mov	 edi, DWORD PTR _pChar$[ebp]
  0001c	8b f1		 mov	 esi, ecx

; 781  : 			{				
; 782  : 				AttackFire( pChar, m_SoundWaveKeyVec[m_iCurSoundWayIdx].m_WaveAttack, vFirePos );

  0001e	89 7d ec	 mov	 DWORD PTR _pChar$GSCopy$[ebp], edi

; 787  : 			}
; 788  : 		}
; 789  : 		break;
; 790  : 	case SSC_END:
; 791  : 		{
; 792  : 			SetEndState( pChar, pStage );

  00021	89 45 e4	 mov	 DWORD PTR _pStage$GSCopy$[ebp], eax
  00024	ff 15 00 00 00
	00		 call	 DWORD PTR __imp_?GetSingleton@ioFrameTimer@@SAAAV1@XZ
  0002a	8b c8		 mov	 ecx, eax
  0002c	ff 15 00 00 00
	00		 call	 DWORD PTR __imp_?GetLoopSec@ioFrameTimer@@QBEKXZ
  00032	8d 45 e8	 lea	 eax, DWORD PTR _iType$[ebp]
  00035	50		 push	 eax
  00036	8b cb		 mov	 ecx, ebx
  00038	e8 00 00 00 00	 call	 ??5SP2Packet@@QAEAAV0@AAH@Z ; SP2Packet::operator>>
  0003d	8b 45 e8	 mov	 eax, DWORD PTR _iType$[ebp]
  00040	83 e8 00	 sub	 eax, 0
  00043	74 10		 je	 SHORT $LN4@ApplyExtra

; 769  : 	DWORD dwCurTime = FRAMEGETTIME();
; 770  : 	int iType;
; 771  : 	rkPacket >> iType;
; 772  : 	switch( iType )

  00045	48		 dec	 eax
  00046	75 5e		 jne	 SHORT $LN2@ApplyExtra

; 787  : 			}
; 788  : 		}
; 789  : 		break;
; 790  : 	case SSC_END:
; 791  : 		{
; 792  : 			SetEndState( pChar, pStage );

  00048	ff 75 e4	 push	 DWORD PTR _pStage$GSCopy$[ebp]
  0004b	8b ce		 mov	 ecx, esi
  0004d	57		 push	 edi
  0004e	e8 00 00 00 00	 call	 ?SetEndState@ioCrecendoSkill@@IAEXPAVioBaseChar@@PAVioPlayStage@@@Z ; ioCrecendoSkill::SetEndState

; 793  : 		}
; 794  : 		break;

  00053	eb 51		 jmp	 SHORT $LN2@ApplyExtra
$LN4@ApplyExtra:

; 773  : 	{
; 774  : 	case SSC_ATTACK:
; 775  : 		{
; 776  : 			D3DXVECTOR3 vFirePos;
; 777  : 			rkPacket >> vFirePos;

  00055	8d 45 f0	 lea	 eax, DWORD PTR _vFirePos$533341[ebp]
  00058	50		 push	 eax
  00059	8b cb		 mov	 ecx, ebx
  0005b	e8 00 00 00 00	 call	 ??5SP2Packet@@QAEAAV0@AAUD3DXVECTOR3@@@Z ; SP2Packet::operator>>

; 778  : 			rkPacket >> m_iCurSoundWayIdx;

  00060	8d be 54 12 00
	00		 lea	 edi, DWORD PTR [esi+4692]
  00066	57		 push	 edi
  00067	8b cb		 mov	 ecx, ebx
  00069	e8 00 00 00 00	 call	 ??5SP2Packet@@QAEAAV0@AAH@Z ; SP2Packet::operator>>

; 779  : 						
; 780  : 			if( m_iCurSoundWayIdx < (int)m_SoundWaveKeyVec.size() )

  0006e	8b 9e 7c 11 00
	00		 mov	 ebx, DWORD PTR [esi+4476]
  00074	8b 86 80 11 00
	00		 mov	 eax, DWORD PTR [esi+4480]
  0007a	8b 0f		 mov	 ecx, DWORD PTR [edi]
  0007c	2b c3		 sub	 eax, ebx
  0007e	6a 6c		 push	 108			; 0000006cH
  00080	99		 cdq
  00081	5f		 pop	 edi
  00082	f7 ff		 idiv	 edi
  00084	3b c8		 cmp	 ecx, eax

; 781  : 			{				
; 782  : 				AttackFire( pChar, m_SoundWaveKeyVec[m_iCurSoundWayIdx].m_WaveAttack, vFirePos );

  00086	8d 45 f0	 lea	 eax, DWORD PTR _vFirePos$533341[ebp]
  00089	50		 push	 eax
  0008a	7d 09		 jge	 SHORT $LN3@ApplyExtra
  0008c	6b c9 6c	 imul	 ecx, 108		; 0000006cH
  0008f	8d 44 19 10	 lea	 eax, DWORD PTR [ecx+ebx+16]

; 783  : 			}
; 784  : 			else

  00093	eb 06		 jmp	 SHORT $LN15@ApplyExtra
$LN3@ApplyExtra:

; 785  : 			{
; 786  : 				AttackFire( pChar, m_LastSoundWaveKey.m_WaveAttack, vFirePos );

  00095	8d 86 20 11 00
	00		 lea	 eax, DWORD PTR [esi+4384]
$LN15@ApplyExtra:
  0009b	50		 push	 eax
  0009c	ff 75 ec	 push	 DWORD PTR _pChar$GSCopy$[ebp]
  0009f	8b ce		 mov	 ecx, esi
  000a1	e8 00 00 00 00	 call	 ?AttackFire@ioCrecendoSkill@@IAEXPAVioBaseChar@@ABUAttackAttribute@@ABUD3DXVECTOR3@@@Z ; ioCrecendoSkill::AttackFire
$LN2@ApplyExtra:

; 795  : 	}
; 796  : }

  000a6	8b 4d fc	 mov	 ecx, DWORD PTR __$ArrayPad$[ebp]
  000a9	5f		 pop	 edi
  000aa	5e		 pop	 esi
  000ab	33 cd		 xor	 ecx, ebp
  000ad	5b		 pop	 ebx
  000ae	e8 00 00 00 00	 call	 @__security_check_cookie@4
  000b3	c9		 leave
  000b4	c2 0c 00	 ret	 12			; 0000000cH
?ApplyExtraSkillInfo@ioCrecendoSkill@@UAEXPAVioBaseChar@@PAVioPlayStage@@AAVSP2Packet@@@Z ENDP ; ioCrecendoSkill::ApplyExtraSkillInfo
_TEXT	ENDS
PUBLIC	??$_Cons_val@V?$allocator@UWaveKey@ioCrecendoSkill@@@std@@UWaveKey@ioCrecendoSkill@@AAU34@@std@@YAXAAV?$allocator@UWaveKey@ioCrecendoSkill@@@0@PAUWaveKey@ioCrecendoSkill@@AAU23@@Z ; std::_Cons_val<std::allocator<ioCrecendoSkill::WaveKey>,ioCrecendoSkill::WaveKey,ioCrecendoSkill::WaveKey &>
;	COMDAT xdata$x
; File c:\program files (x86)\microsoft visual studio 10.0\vc\include\utility
xdata$x	SEGMENT
__unwindtable$??$_Cons_val@V?$allocator@UWaveKey@ioCrecendoSkill@@@std@@UWaveKey@ioCrecendoSkill@@AAU34@@std@@YAXAAV?$allocator@UWaveKey@ioCrecendoSkill@@@0@PAUWaveKey@ioCrecendoSkill@@AAU23@@Z DD 0ffffffffH
	DD	FLAT:__unwindfunclet$??$_Cons_val@V?$allocator@UWaveKey@ioCrecendoSkill@@@std@@UWaveKey@ioCrecendoSkill@@AAU34@@std@@YAXAAV?$allocator@UWaveKey@ioCrecendoSkill@@@0@PAUWaveKey@ioCrecendoSkill@@AAU23@@Z$0
__ehfuncinfo$??$_Cons_val@V?$allocator@UWaveKey@ioCrecendoSkill@@@std@@UWaveKey@ioCrecendoSkill@@AAU34@@std@@YAXAAV?$allocator@UWaveKey@ioCrecendoSkill@@@0@PAUWaveKey@ioCrecendoSkill@@AAU23@@Z DD 019930522H
	DD	01H
	DD	FLAT:__unwindtable$??$_Cons_val@V?$allocator@UWaveKey@ioCrecendoSkill@@@std@@UWaveKey@ioCrecendoSkill@@AAU34@@std@@YAXAAV?$allocator@UWaveKey@ioCrecendoSkill@@@0@PAUWaveKey@ioCrecendoSkill@@AAU23@@Z
	DD	2 DUP(00H)
	DD	2 DUP(00H)
	DD	00H
	DD	01H
; Function compile flags: /Ogsp
; File c:\program files (x86)\microsoft visual studio 10.0\vc\include\xmemory
xdata$x	ENDS
;	COMDAT ??$_Cons_val@V?$allocator@UWaveKey@ioCrecendoSkill@@@std@@UWaveKey@ioCrecendoSkill@@AAU34@@std@@YAXAAV?$allocator@UWaveKey@ioCrecendoSkill@@@0@PAUWaveKey@ioCrecendoSkill@@AAU23@@Z
_TEXT	SEGMENT
$T543977 = -16						; size = 4
__$EHRec$ = -12						; size = 12
__Alval$ = 8						; size = 4
__Pdest$ = 12						; size = 4
__Src$ = 16						; size = 4
??$_Cons_val@V?$allocator@UWaveKey@ioCrecendoSkill@@@std@@UWaveKey@ioCrecendoSkill@@AAU34@@std@@YAXAAV?$allocator@UWaveKey@ioCrecendoSkill@@@0@PAUWaveKey@ioCrecendoSkill@@AAU23@@Z PROC ; std::_Cons_val<std::allocator<ioCrecendoSkill::WaveKey>,ioCrecendoSkill::WaveKey,ioCrecendoSkill::WaveKey &>, COMDAT

; 279  : 	{	// construct using allocator

  00000	6a 04		 push	 4
  00002	b8 00 00 00 00	 mov	 eax, __ehhandler$??$_Cons_val@V?$allocator@UWaveKey@ioCrecendoSkill@@@std@@UWaveKey@ioCrecendoSkill@@AAU34@@std@@YAXAAV?$allocator@UWaveKey@ioCrecendoSkill@@@0@PAUWaveKey@ioCrecendoSkill@@AAU23@@Z
  00007	e8 00 00 00 00	 call	 __EH_prolog3

; 280  : 	_Alval.construct(_Pdest, _STD forward<_Ty2>(_Src));

  0000c	8b 4d 0c	 mov	 ecx, DWORD PTR __Pdest$[ebp]
  0000f	89 4d f0	 mov	 DWORD PTR $T543977[ebp], ecx
  00012	83 65 fc 00	 and	 DWORD PTR __$EHRec$[ebp+8], 0
  00016	85 c9		 test	 ecx, ecx
  00018	74 08		 je	 SHORT $LN7@Cons_val@5
  0001a	ff 75 10	 push	 DWORD PTR __Src$[ebp]
  0001d	e8 00 00 00 00	 call	 ??0WaveKey@ioCrecendoSkill@@QAE@ABU01@@Z
$LN7@Cons_val@5:

; 281  : 	}

  00022	e8 00 00 00 00	 call	 __EH_epilog3
  00027	c3		 ret	 0
_TEXT	ENDS
;	COMDAT text$x
text$x	SEGMENT
__unwindfunclet$??$_Cons_val@V?$allocator@UWaveKey@ioCrecendoSkill@@@std@@UWaveKey@ioCrecendoSkill@@AAU34@@std@@YAXAAV?$allocator@UWaveKey@ioCrecendoSkill@@@0@PAUWaveKey@ioCrecendoSkill@@AAU23@@Z$0:
  00000	ff 75 0c	 push	 DWORD PTR __Pdest$[ebp]
  00003	ff 75 f0	 push	 DWORD PTR $T543977[ebp]
  00006	e8 00 00 00 00	 call	 ??3@YAXPAX0@Z		; operator delete
  0000b	59		 pop	 ecx
  0000c	59		 pop	 ecx
  0000d	c3		 ret	 0
__ehhandler$??$_Cons_val@V?$allocator@UWaveKey@ioCrecendoSkill@@@std@@UWaveKey@ioCrecendoSkill@@AAU34@@std@@YAXAAV?$allocator@UWaveKey@ioCrecendoSkill@@@0@PAUWaveKey@ioCrecendoSkill@@AAU23@@Z:
  0000e	8b 54 24 08	 mov	 edx, DWORD PTR [esp+8]
  00012	8d 42 0c	 lea	 eax, DWORD PTR [edx+12]
  00015	8b 4a ec	 mov	 ecx, DWORD PTR [edx-20]
  00018	33 c8		 xor	 ecx, eax
  0001a	e8 00 00 00 00	 call	 @__security_check_cookie@4
  0001f	b8 00 00 00 00	 mov	 eax, OFFSET __ehfuncinfo$??$_Cons_val@V?$allocator@UWaveKey@ioCrecendoSkill@@@std@@UWaveKey@ioCrecendoSkill@@AAU34@@std@@YAXAAV?$allocator@UWaveKey@ioCrecendoSkill@@@0@PAUWaveKey@ioCrecendoSkill@@AAU23@@Z
  00024	e9 00 00 00 00	 jmp	 ___CxxFrameHandler3
text$x	ENDS
??$_Cons_val@V?$allocator@UWaveKey@ioCrecendoSkill@@@std@@UWaveKey@ioCrecendoSkill@@AAU34@@std@@YAXAAV?$allocator@UWaveKey@ioCrecendoSkill@@@0@PAUWaveKey@ioCrecendoSkill@@AAU23@@Z ENDP ; std::_Cons_val<std::allocator<ioCrecendoSkill::WaveKey>,ioCrecendoSkill::WaveKey,ioCrecendoSkill::WaveKey &>
PUBLIC	?construct@?$allocator@UWaveKey@ioCrecendoSkill@@@std@@QAEXPAUWaveKey@ioCrecendoSkill@@ABU34@@Z ; std::allocator<ioCrecendoSkill::WaveKey>::construct
; Function compile flags: /Ogsp
;	COMDAT ?construct@?$allocator@UWaveKey@ioCrecendoSkill@@@std@@QAEXPAUWaveKey@ioCrecendoSkill@@ABU34@@Z
_TEXT	SEGMENT
__Ptr$ = 8						; size = 4
__Val$ = 12						; size = 4
?construct@?$allocator@UWaveKey@ioCrecendoSkill@@@std@@QAEXPAUWaveKey@ioCrecendoSkill@@ABU34@@Z PROC ; std::allocator<ioCrecendoSkill::WaveKey>::construct, COMDAT
; _this$ = ecx

; 196  : 		{	// construct object at _Ptr with value _Val

  00000	55		 push	 ebp
  00001	8b ec		 mov	 ebp, esp

; 197  : 		_Construct(_Ptr, _Val);

  00003	ff 75 0c	 push	 DWORD PTR __Val$[ebp]
  00006	ff 75 08	 push	 DWORD PTR __Ptr$[ebp]
  00009	e8 00 00 00 00	 call	 ??$_Construct@UWaveKey@ioCrecendoSkill@@ABU12@@std@@YAXPAUWaveKey@ioCrecendoSkill@@ABU12@@Z ; std::_Construct<ioCrecendoSkill::WaveKey,ioCrecendoSkill::WaveKey const &>
  0000e	59		 pop	 ecx
  0000f	59		 pop	 ecx

; 198  : 		}

  00010	5d		 pop	 ebp
  00011	c2 08 00	 ret	 8
?construct@?$allocator@UWaveKey@ioCrecendoSkill@@@std@@QAEXPAUWaveKey@ioCrecendoSkill@@ABU34@@Z ENDP ; std::allocator<ioCrecendoSkill::WaveKey>::construct
_TEXT	ENDS
PUBLIC	??$_Cons_val@V?$allocator@UWaveKey@ioCrecendoSkill@@@std@@UWaveKey@ioCrecendoSkill@@U34@@std@@YAXAAV?$allocator@UWaveKey@ioCrecendoSkill@@@0@PAUWaveKey@ioCrecendoSkill@@$$QAU23@@Z ; std::_Cons_val<std::allocator<ioCrecendoSkill::WaveKey>,ioCrecendoSkill::WaveKey,ioCrecendoSkill::WaveKey>
;	COMDAT xdata$x
; File c:\program files (x86)\microsoft visual studio 10.0\vc\include\utility
xdata$x	SEGMENT
__unwindtable$??$_Cons_val@V?$allocator@UWaveKey@ioCrecendoSkill@@@std@@UWaveKey@ioCrecendoSkill@@U34@@std@@YAXAAV?$allocator@UWaveKey@ioCrecendoSkill@@@0@PAUWaveKey@ioCrecendoSkill@@$$QAU23@@Z DD 0ffffffffH
	DD	FLAT:__unwindfunclet$??$_Cons_val@V?$allocator@UWaveKey@ioCrecendoSkill@@@std@@UWaveKey@ioCrecendoSkill@@U34@@std@@YAXAAV?$allocator@UWaveKey@ioCrecendoSkill@@@0@PAUWaveKey@ioCrecendoSkill@@$$QAU23@@Z$0
__ehfuncinfo$??$_Cons_val@V?$allocator@UWaveKey@ioCrecendoSkill@@@std@@UWaveKey@ioCrecendoSkill@@U34@@std@@YAXAAV?$allocator@UWaveKey@ioCrecendoSkill@@@0@PAUWaveKey@ioCrecendoSkill@@$$QAU23@@Z DD 019930522H
	DD	01H
	DD	FLAT:__unwindtable$??$_Cons_val@V?$allocator@UWaveKey@ioCrecendoSkill@@@std@@UWaveKey@ioCrecendoSkill@@U34@@std@@YAXAAV?$allocator@UWaveKey@ioCrecendoSkill@@@0@PAUWaveKey@ioCrecendoSkill@@$$QAU23@@Z
	DD	2 DUP(00H)
	DD	2 DUP(00H)
	DD	00H
	DD	01H
; Function compile flags: /Ogsp
; File c:\program files (x86)\microsoft visual studio 10.0\vc\include\xmemory
xdata$x	ENDS
;	COMDAT ??$_Cons_val@V?$allocator@UWaveKey@ioCrecendoSkill@@@std@@UWaveKey@ioCrecendoSkill@@U34@@std@@YAXAAV?$allocator@UWaveKey@ioCrecendoSkill@@@0@PAUWaveKey@ioCrecendoSkill@@$$QAU23@@Z
_TEXT	SEGMENT
$T544012 = -16						; size = 4
__$EHRec$ = -12						; size = 12
__Alval$ = 8						; size = 4
__Pdest$ = 12						; size = 4
__Src$ = 16						; size = 4
??$_Cons_val@V?$allocator@UWaveKey@ioCrecendoSkill@@@std@@UWaveKey@ioCrecendoSkill@@U34@@std@@YAXAAV?$allocator@UWaveKey@ioCrecendoSkill@@@0@PAUWaveKey@ioCrecendoSkill@@$$QAU23@@Z PROC ; std::_Cons_val<std::allocator<ioCrecendoSkill::WaveKey>,ioCrecendoSkill::WaveKey,ioCrecendoSkill::WaveKey>, COMDAT

; 279  : 	{	// construct using allocator

  00000	6a 04		 push	 4
  00002	b8 00 00 00 00	 mov	 eax, __ehhandler$??$_Cons_val@V?$allocator@UWaveKey@ioCrecendoSkill@@@std@@UWaveKey@ioCrecendoSkill@@U34@@std@@YAXAAV?$allocator@UWaveKey@ioCrecendoSkill@@@0@PAUWaveKey@ioCrecendoSkill@@$$QAU23@@Z
  00007	e8 00 00 00 00	 call	 __EH_prolog3

; 280  : 	_Alval.construct(_Pdest, _STD forward<_Ty2>(_Src));

  0000c	8b 4d 0c	 mov	 ecx, DWORD PTR __Pdest$[ebp]
  0000f	89 4d f0	 mov	 DWORD PTR $T544012[ebp], ecx
  00012	83 65 fc 00	 and	 DWORD PTR __$EHRec$[ebp+8], 0
  00016	85 c9		 test	 ecx, ecx
  00018	74 08		 je	 SHORT $LN7@Cons_val@6
  0001a	ff 75 10	 push	 DWORD PTR __Src$[ebp]
  0001d	e8 00 00 00 00	 call	 ??0WaveKey@ioCrecendoSkill@@QAE@ABU01@@Z
$LN7@Cons_val@6:

; 281  : 	}

  00022	e8 00 00 00 00	 call	 __EH_epilog3
  00027	c3		 ret	 0
_TEXT	ENDS
;	COMDAT text$x
text$x	SEGMENT
__unwindfunclet$??$_Cons_val@V?$allocator@UWaveKey@ioCrecendoSkill@@@std@@UWaveKey@ioCrecendoSkill@@U34@@std@@YAXAAV?$allocator@UWaveKey@ioCrecendoSkill@@@0@PAUWaveKey@ioCrecendoSkill@@$$QAU23@@Z$0:
  00000	ff 75 0c	 push	 DWORD PTR __Pdest$[ebp]
  00003	ff 75 f0	 push	 DWORD PTR $T544012[ebp]
  00006	e8 00 00 00 00	 call	 ??3@YAXPAX0@Z		; operator delete
  0000b	59		 pop	 ecx
  0000c	59		 pop	 ecx
  0000d	c3		 ret	 0
__ehhandler$??$_Cons_val@V?$allocator@UWaveKey@ioCrecendoSkill@@@std@@UWaveKey@ioCrecendoSkill@@U34@@std@@YAXAAV?$allocator@UWaveKey@ioCrecendoSkill@@@0@PAUWaveKey@ioCrecendoSkill@@$$QAU23@@Z:
  0000e	8b 54 24 08	 mov	 edx, DWORD PTR [esp+8]
  00012	8d 42 0c	 lea	 eax, DWORD PTR [edx+12]
  00015	8b 4a ec	 mov	 ecx, DWORD PTR [edx-20]
  00018	33 c8		 xor	 ecx, eax
  0001a	e8 00 00 00 00	 call	 @__security_check_cookie@4
  0001f	b8 00 00 00 00	 mov	 eax, OFFSET __ehfuncinfo$??$_Cons_val@V?$allocator@UWaveKey@ioCrecendoSkill@@@std@@UWaveKey@ioCrecendoSkill@@U34@@std@@YAXAAV?$allocator@UWaveKey@ioCrecendoSkill@@@0@PAUWaveKey@ioCrecendoSkill@@$$QAU23@@Z
  00024	e9 00 00 00 00	 jmp	 ___CxxFrameHandler3
text$x	ENDS
??$_Cons_val@V?$allocator@UWaveKey@ioCrecendoSkill@@@std@@UWaveKey@ioCrecendoSkill@@U34@@std@@YAXAAV?$allocator@UWaveKey@ioCrecendoSkill@@@0@PAUWaveKey@ioCrecendoSkill@@$$QAU23@@Z ENDP ; std::_Cons_val<std::allocator<ioCrecendoSkill::WaveKey>,ioCrecendoSkill::WaveKey,ioCrecendoSkill::WaveKey>
PUBLIC	??$_Destroy@UWaveKey@ioCrecendoSkill@@@std@@YAXPAUWaveKey@ioCrecendoSkill@@@Z ; std::_Destroy<ioCrecendoSkill::WaveKey>
; Function compile flags: /Ogsp
;	COMDAT ??$_Destroy@UWaveKey@ioCrecendoSkill@@@std@@YAXPAUWaveKey@ioCrecendoSkill@@@Z
_TEXT	SEGMENT
__Ptr$ = 8						; size = 4
??$_Destroy@UWaveKey@ioCrecendoSkill@@@std@@YAXPAUWaveKey@ioCrecendoSkill@@@Z PROC ; std::_Destroy<ioCrecendoSkill::WaveKey>, COMDAT

; 62   : 	{	// destroy object at _Ptr

  00000	55		 push	 ebp
  00001	8b ec		 mov	 ebp, esp

; 63   : 	_Ptr->~_Ty();

  00003	8b 4d 08	 mov	 ecx, DWORD PTR __Ptr$[ebp]
  00006	83 c1 10	 add	 ecx, 16			; 00000010H

; 64   : 	}

  00009	5d		 pop	 ebp

; 63   : 	_Ptr->~_Ty();

  0000a	e9 00 00 00 00	 jmp	 ??1AttackAttribute@@QAE@XZ
??$_Destroy@UWaveKey@ioCrecendoSkill@@@std@@YAXPAUWaveKey@ioCrecendoSkill@@@Z ENDP ; std::_Destroy<ioCrecendoSkill::WaveKey>
_TEXT	ENDS
PUBLIC	?PrcoessLoopState@ioCrecendoSkill@@IAEXPAVioBaseChar@@PAVioPlayStage@@@Z ; ioCrecendoSkill::PrcoessLoopState
; Function compile flags: /Ogsp
; File d:\lost saga for developer\youtube\tutorial\source\src\lsclient\iocrecendoskill.cpp
;	COMDAT ?PrcoessLoopState@ioCrecendoSkill@@IAEXPAVioBaseChar@@PAVioPlayStage@@@Z
_TEXT	SEGMENT
_pChar$ = 8						; size = 4
_pStage$ = 12						; size = 4
?PrcoessLoopState@ioCrecendoSkill@@IAEXPAVioBaseChar@@PAVioPlayStage@@@Z PROC ; ioCrecendoSkill::PrcoessLoopState, COMDAT
; _this$ = ecx

; 277  : {

  00000	55		 push	 ebp
  00001	8b ec		 mov	 ebp, esp
  00003	53		 push	 ebx

; 278  : 	if( !pChar->IsNeedProcess() )

  00004	8b 5d 08	 mov	 ebx, DWORD PTR _pChar$[ebp]
  00007	8b 03		 mov	 eax, DWORD PTR [ebx]
  00009	56		 push	 esi
  0000a	8b f1		 mov	 esi, ecx
  0000c	8b cb		 mov	 ecx, ebx
  0000e	ff 90 00 01 00
	00		 call	 DWORD PTR [eax+256]
  00014	84 c0		 test	 al, al
  00016	74 60		 je	 SHORT $LN1@PrcoessLoo

; 279  : 		return;
; 280  : 
; 281  : 	DWORD dwCurTime = FRAMEGETTIME();

  00018	57		 push	 edi
  00019	ff 15 00 00 00
	00		 call	 DWORD PTR __imp_?GetSingleton@ioFrameTimer@@SAAAV1@XZ
  0001f	8b c8		 mov	 ecx, eax
  00021	ff 15 00 00 00
	00		 call	 DWORD PTR __imp_?GetLoopSec@ioFrameTimer@@QBEKXZ
  00027	8b f8		 mov	 edi, eax

; 282  : 	if( 0 < m_dwLoopStartTime && m_dwLoopStartTime + m_dwLoopDuration < dwCurTime )

  00029	8b 86 fc 10 00
	00		 mov	 eax, DWORD PTR [esi+4348]
  0002f	85 c0		 test	 eax, eax
  00031	74 17		 je	 SHORT $LN3@PrcoessLoo
  00033	8b 8e 00 11 00
	00		 mov	 ecx, DWORD PTR [esi+4352]
  00039	03 c8		 add	 ecx, eax
  0003b	3b cf		 cmp	 ecx, edi
  0003d	73 0b		 jae	 SHORT $LN3@PrcoessLoo

; 283  : 	{		
; 284  : 		SetEndState( pChar, pStage );

  0003f	ff 75 0c	 push	 DWORD PTR _pStage$[ebp]
  00042	8b ce		 mov	 ecx, esi
  00044	53		 push	 ebx
  00045	e8 00 00 00 00	 call	 ?SetEndState@ioCrecendoSkill@@IAEXPAVioBaseChar@@PAVioPlayStage@@@Z ; ioCrecendoSkill::SetEndState
$LN3@PrcoessLoo:

; 285  : 	}
; 286  : 		
; 287  : 	if( m_iCurSoundWayIdx < (int)m_SoundWaveKeyVec.size() )

  0004a	8b 86 80 11 00
	00		 mov	 eax, DWORD PTR [esi+4480]
  00050	2b 86 7c 11 00
	00		 sub	 eax, DWORD PTR [esi+4476]
  00056	6a 6c		 push	 108			; 0000006cH
  00058	59		 pop	 ecx
  00059	99		 cdq
  0005a	f7 f9		 idiv	 ecx

; 288  : 	{
; 289  : 		//일반적인 방향키 입력일 경우
; 290  : 		ProcessKeyInput( pChar, pStage, dwCurTime );

  0005c	57		 push	 edi
  0005d	ff 75 0c	 push	 DWORD PTR _pStage$[ebp]
  00060	8b ce		 mov	 ecx, esi
  00062	53		 push	 ebx
  00063	39 86 54 12 00
	00		 cmp	 DWORD PTR [esi+4692], eax
  00069	7d 07		 jge	 SHORT $LN2@PrcoessLoo
  0006b	e8 00 00 00 00	 call	 ?ProcessKeyInput@ioCrecendoSkill@@IAEXPAVioBaseChar@@PAVioPlayStage@@K@Z ; ioCrecendoSkill::ProcessKeyInput

; 291  : 	}
; 292  : 	else

  00070	eb 05		 jmp	 SHORT $LN9@PrcoessLoo
$LN2@PrcoessLoo:

; 293  : 	{
; 294  : 		//마지막 조합 키 입력 일경우
; 295  : 		ProcessLastKeyInput( pChar, pStage, dwCurTime );

  00072	e8 00 00 00 00	 call	 ?ProcessLastKeyInput@ioCrecendoSkill@@IAEXPAVioBaseChar@@PAVioPlayStage@@K@Z ; ioCrecendoSkill::ProcessLastKeyInput
$LN9@PrcoessLoo:
  00077	5f		 pop	 edi
$LN1@PrcoessLoo:
  00078	5e		 pop	 esi
  00079	5b		 pop	 ebx

; 296  : 	}
; 297  : }

  0007a	5d		 pop	 ebp
  0007b	c2 08 00	 ret	 8
?PrcoessLoopState@ioCrecendoSkill@@IAEXPAVioBaseChar@@PAVioPlayStage@@@Z ENDP ; ioCrecendoSkill::PrcoessLoopState
_TEXT	ENDS
PUBLIC	??$_Cons_val@V?$allocator@UWaveKey@ioCrecendoSkill@@@std@@UWaveKey@ioCrecendoSkill@@ABU34@@std@@YAXAAV?$allocator@UWaveKey@ioCrecendoSkill@@@0@PAUWaveKey@ioCrecendoSkill@@ABU23@@Z ; std::_Cons_val<std::allocator<ioCrecendoSkill::WaveKey>,ioCrecendoSkill::WaveKey,ioCrecendoSkill::WaveKey const &>
; Function compile flags: /Ogsp
; File c:\program files (x86)\microsoft visual studio 10.0\vc\include\xmemory
;	COMDAT ??$_Cons_val@V?$allocator@UWaveKey@ioCrecendoSkill@@@std@@UWaveKey@ioCrecendoSkill@@ABU34@@std@@YAXAAV?$allocator@UWaveKey@ioCrecendoSkill@@@0@PAUWaveKey@ioCrecendoSkill@@ABU23@@Z
_TEXT	SEGMENT
__Alval$ = 8						; size = 4
__Pdest$ = 12						; size = 4
__Src$ = 16						; size = 4
??$_Cons_val@V?$allocator@UWaveKey@ioCrecendoSkill@@@std@@UWaveKey@ioCrecendoSkill@@ABU34@@std@@YAXAAV?$allocator@UWaveKey@ioCrecendoSkill@@@0@PAUWaveKey@ioCrecendoSkill@@ABU23@@Z PROC ; std::_Cons_val<std::allocator<ioCrecendoSkill::WaveKey>,ioCrecendoSkill::WaveKey,ioCrecendoSkill::WaveKey const &>, COMDAT

; 279  : 	{	// construct using allocator

  00000	55		 push	 ebp
  00001	8b ec		 mov	 ebp, esp

; 280  : 	_Alval.construct(_Pdest, _STD forward<_Ty2>(_Src));

  00003	ff 75 10	 push	 DWORD PTR __Src$[ebp]
  00006	ff 75 0c	 push	 DWORD PTR __Pdest$[ebp]
  00009	e8 00 00 00 00	 call	 ??$_Construct@UWaveKey@ioCrecendoSkill@@ABU12@@std@@YAXPAUWaveKey@ioCrecendoSkill@@ABU12@@Z ; std::_Construct<ioCrecendoSkill::WaveKey,ioCrecendoSkill::WaveKey const &>
  0000e	59		 pop	 ecx
  0000f	59		 pop	 ecx

; 281  : 	}

  00010	5d		 pop	 ebp
  00011	c3		 ret	 0
??$_Cons_val@V?$allocator@UWaveKey@ioCrecendoSkill@@@std@@UWaveKey@ioCrecendoSkill@@ABU34@@std@@YAXAAV?$allocator@UWaveKey@ioCrecendoSkill@@@0@PAUWaveKey@ioCrecendoSkill@@ABU23@@Z ENDP ; std::_Cons_val<std::allocator<ioCrecendoSkill::WaveKey>,ioCrecendoSkill::WaveKey,ioCrecendoSkill::WaveKey const &>
_TEXT	ENDS
PUBLIC	?destroy@?$allocator@UWaveKey@ioCrecendoSkill@@@std@@QAEXPAUWaveKey@ioCrecendoSkill@@@Z ; std::allocator<ioCrecendoSkill::WaveKey>::destroy
; Function compile flags: /Ogsp
;	COMDAT ?destroy@?$allocator@UWaveKey@ioCrecendoSkill@@@std@@QAEXPAUWaveKey@ioCrecendoSkill@@@Z
_TEXT	SEGMENT
__Ptr$ = 8						; size = 4
?destroy@?$allocator@UWaveKey@ioCrecendoSkill@@@std@@QAEXPAUWaveKey@ioCrecendoSkill@@@Z PROC ; std::allocator<ioCrecendoSkill::WaveKey>::destroy, COMDAT
; _this$ = ecx

; 212  : 		{	// destroy object at _Ptr

  00000	55		 push	 ebp
  00001	8b ec		 mov	 ebp, esp

; 213  : 		_Destroy(_Ptr);

  00003	8b 4d 08	 mov	 ecx, DWORD PTR __Ptr$[ebp]
  00006	83 c1 10	 add	 ecx, 16			; 00000010H
  00009	e8 00 00 00 00	 call	 ??1AttackAttribute@@QAE@XZ

; 214  : 		}

  0000e	5d		 pop	 ebp
  0000f	c2 04 00	 ret	 4
?destroy@?$allocator@UWaveKey@ioCrecendoSkill@@@std@@QAEXPAUWaveKey@ioCrecendoSkill@@@Z ENDP ; std::allocator<ioCrecendoSkill::WaveKey>::destroy
_TEXT	ENDS
PUBLIC	?OnProcessState@ioCrecendoSkill@@UAEXPAVioBaseChar@@PAVioPlayStage@@@Z ; ioCrecendoSkill::OnProcessState
; Function compile flags: /Ogsp
; File d:\lost saga for developer\youtube\tutorial\source\src\lsclient\iocrecendoskill.cpp
;	COMDAT ?OnProcessState@ioCrecendoSkill@@UAEXPAVioBaseChar@@PAVioPlayStage@@@Z
_TEXT	SEGMENT
_dwPreDelay$ = -4					; size = 4
_pChar$ = 8						; size = 4
_pStage$ = 12						; size = 4
?OnProcessState@ioCrecendoSkill@@UAEXPAVioBaseChar@@PAVioPlayStage@@@Z PROC ; ioCrecendoSkill::OnProcessState, COMDAT
; _this$ = ecx

; 228  : {

  00000	55		 push	 ebp
  00001	8b ec		 mov	 ebp, esp
  00003	51		 push	 ecx
  00004	53		 push	 ebx
  00005	56		 push	 esi
  00006	8b f1		 mov	 esi, ecx

; 229  : 	DWORD dwPreDelay = GetPreDelayTime();

  00008	8b 06		 mov	 eax, DWORD PTR [esi]
  0000a	ff 90 34 01 00
	00		 call	 DWORD PTR [eax+308]

; 230  : 
; 231  : #ifdef _DEBUG
; 232  : 	DWORD dwCurTime = FRAMEGETTIME();
; 233  : 	if( GetKey( pChar ) != WKS_NONE )
; 234  : 	{
; 235  : 		LOG.PrintTimeAndLog(0, "---------------------------------------------------------------------");
; 236  : 		LOG.PrintTimeAndLog(0, "ioCrecendoSkill - Key : %d, Input Time : %d", GetKey( pChar ), dwCurTime );
; 237  : 		LOG.PrintTimeAndLog(0, "---------------------------------------------------------------------");
; 238  : 	}
; 239  : 
; 240  : 	if( GetMixKey( pChar ) != WKS_NONE )
; 241  : 	{
; 242  : 		LOG.PrintTimeAndLog(0, "---------------------------------------------------------------------");
; 243  : 		LOG.PrintTimeAndLog(0, "ioCrecendoSkill - Last Key : %d, Input Time : %d", GetMixKey( pChar ), dwCurTime );
; 244  : 		LOG.PrintTimeAndLog(0, "---------------------------------------------------------------------");
; 245  : 	}
; 246  : 	
; 247  : #endif
; 248  : 
; 249  : 	ProcessKeyEffect( pChar, pStage );

  00010	ff 75 0c	 push	 DWORD PTR _pStage$[ebp]
  00013	8b 5d 08	 mov	 ebx, DWORD PTR _pChar$[ebp]
  00016	53		 push	 ebx
  00017	8b ce		 mov	 ecx, esi
  00019	89 45 fc	 mov	 DWORD PTR _dwPreDelay$[ebp], eax
  0001c	e8 00 00 00 00	 call	 ?ProcessKeyEffect@ioCrecendoSkill@@IAEXPAVioBaseChar@@PAVioPlayStage@@@Z ; ioCrecendoSkill::ProcessKeyEffect

; 250  : 
; 251  : 	switch( m_SkillState )

  00021	8b 86 e4 10 00
	00		 mov	 eax, DWORD PTR [esi+4324]
  00027	83 e8 00	 sub	 eax, 0
  0002a	74 10		 je	 SHORT $LN4@OnProcessS
  0002c	48		 dec	 eax
  0002d	75 5a		 jne	 SHORT $LN3@OnProcessS

; 262  : 		}
; 263  : 		break;
; 264  : 	case SS_LOOP:
; 265  : 		{
; 266  : 			PrcoessLoopState( pChar, pStage );

  0002f	ff 75 0c	 push	 DWORD PTR _pStage$[ebp]
  00032	8b ce		 mov	 ecx, esi
  00034	53		 push	 ebx
  00035	e8 00 00 00 00	 call	 ?PrcoessLoopState@ioCrecendoSkill@@IAEXPAVioBaseChar@@PAVioPlayStage@@@Z ; ioCrecendoSkill::PrcoessLoopState

; 267  : 		}
; 268  : 		break;

  0003a	eb 4d		 jmp	 SHORT $LN3@OnProcessS
$LN4@OnProcessS:
  0003c	57		 push	 edi

; 252  : 	{
; 253  : 	case SS_DELAY:
; 254  : 		if( m_dwPreDelayStartTime + dwPreDelay < FRAMEGETTIME() )

  0003d	ff 15 00 00 00
	00		 call	 DWORD PTR __imp_?GetSingleton@ioFrameTimer@@SAAAV1@XZ
  00043	8b c8		 mov	 ecx, eax
  00045	ff 15 00 00 00
	00		 call	 DWORD PTR __imp_?GetLoopSec@ioFrameTimer@@QBEKXZ
  0004b	8b 8e 20 02 00
	00		 mov	 ecx, DWORD PTR [esi+544]
  00051	03 4d fc	 add	 ecx, DWORD PTR _dwPreDelay$[ebp]
  00054	3b c8		 cmp	 ecx, eax
  00056	73 30		 jae	 SHORT $LN9@OnProcessS

; 255  : 		{
; 256  : 			m_dwPreDelayStartTime = 0;
; 257  : 			EndPreDelayEffect( pChar );

  00058	8b 06		 mov	 eax, DWORD PTR [esi]
  0005a	83 a6 20 02 00
	00 00		 and	 DWORD PTR [esi+544], 0
  00061	53		 push	 ebx
  00062	8b ce		 mov	 ecx, esi
  00064	ff 90 dc 00 00
	00		 call	 DWORD PTR [eax+220]

; 258  : 
; 259  : 			SetLoopState( pChar );

  0006a	53		 push	 ebx
  0006b	8b ce		 mov	 ecx, esi
  0006d	e8 00 00 00 00	 call	 ?SetLoopState@ioCrecendoSkill@@IAEXPAVioBaseChar@@@Z ; ioCrecendoSkill::SetLoopState

; 260  : 			CreateKeyRandom( pChar, pStage );

  00072	ff 75 0c	 push	 DWORD PTR _pStage$[ebp]
  00075	8b ce		 mov	 ecx, esi
  00077	53		 push	 ebx
  00078	e8 00 00 00 00	 call	 ?CreateKeyRandom@ioCrecendoSkill@@IAEXPAVioBaseChar@@PAVioPlayStage@@@Z ; ioCrecendoSkill::CreateKeyRandom

; 261  : 			CreateKeyEffectByWaveKey( pChar, pStage );

  0007d	ff 75 0c	 push	 DWORD PTR _pStage$[ebp]
  00080	8b ce		 mov	 ecx, esi
  00082	53		 push	 ebx
  00083	e8 00 00 00 00	 call	 ?CreateKeyEffectByWaveKey@ioCrecendoSkill@@IAEXPAVioBaseChar@@PAVioPlayStage@@@Z ; ioCrecendoSkill::CreateKeyEffectByWaveKey
$LN9@OnProcessS:
  00088	5f		 pop	 edi
$LN3@OnProcessS:
  00089	5e		 pop	 esi
  0008a	5b		 pop	 ebx

; 269  : 	case SS_END:
; 270  : 		{
; 271  : 		}
; 272  : 		break;
; 273  : 	}
; 274  : }

  0008b	c9		 leave
  0008c	c2 08 00	 ret	 8
?OnProcessState@ioCrecendoSkill@@UAEXPAVioBaseChar@@PAVioPlayStage@@@Z ENDP ; ioCrecendoSkill::OnProcessState
_TEXT	ENDS
PUBLIC	??$_Dest_val@V?$allocator@UWaveKey@ioCrecendoSkill@@@std@@UWaveKey@ioCrecendoSkill@@@std@@YAXAAV?$allocator@UWaveKey@ioCrecendoSkill@@@0@PAUWaveKey@ioCrecendoSkill@@@Z ; std::_Dest_val<std::allocator<ioCrecendoSkill::WaveKey>,ioCrecendoSkill::WaveKey>
; Function compile flags: /Ogsp
; File c:\program files (x86)\microsoft visual studio 10.0\vc\include\xmemory
;	COMDAT ??$_Dest_val@V?$allocator@UWaveKey@ioCrecendoSkill@@@std@@UWaveKey@ioCrecendoSkill@@@std@@YAXAAV?$allocator@UWaveKey@ioCrecendoSkill@@@0@PAUWaveKey@ioCrecendoSkill@@@Z
_TEXT	SEGMENT
__Alval$ = 8						; size = 4
__Pdest$ = 12						; size = 4
??$_Dest_val@V?$allocator@UWaveKey@ioCrecendoSkill@@@std@@UWaveKey@ioCrecendoSkill@@@std@@YAXAAV?$allocator@UWaveKey@ioCrecendoSkill@@@0@PAUWaveKey@ioCrecendoSkill@@@Z PROC ; std::_Dest_val<std::allocator<ioCrecendoSkill::WaveKey>,ioCrecendoSkill::WaveKey>, COMDAT

; 286  : 	{	// destroy using allocator

  00000	55		 push	 ebp
  00001	8b ec		 mov	 ebp, esp

; 287  : 	_Alval.destroy(_Pdest);

  00003	8b 4d 0c	 mov	 ecx, DWORD PTR __Pdest$[ebp]
  00006	83 c1 10	 add	 ecx, 16			; 00000010H

; 288  : 	}

  00009	5d		 pop	 ebp

; 287  : 	_Alval.destroy(_Pdest);

  0000a	e9 00 00 00 00	 jmp	 ??1AttackAttribute@@QAE@XZ
??$_Dest_val@V?$allocator@UWaveKey@ioCrecendoSkill@@@std@@UWaveKey@ioCrecendoSkill@@@std@@YAXAAV?$allocator@UWaveKey@ioCrecendoSkill@@@0@PAUWaveKey@ioCrecendoSkill@@@Z ENDP ; std::_Dest_val<std::allocator<ioCrecendoSkill::WaveKey>,ioCrecendoSkill::WaveKey>
_TEXT	ENDS
PUBLIC	??$_Destroy_range@V?$allocator@UWaveKey@ioCrecendoSkill@@@std@@@std@@YAXPAUWaveKey@ioCrecendoSkill@@0AAV?$allocator@UWaveKey@ioCrecendoSkill@@@0@U_Nonscalar_ptr_iterator_tag@0@@Z ; std::_Destroy_range<std::allocator<ioCrecendoSkill::WaveKey> >
; Function compile flags: /Ogsp
;	COMDAT ??$_Destroy_range@V?$allocator@UWaveKey@ioCrecendoSkill@@@std@@@std@@YAXPAUWaveKey@ioCrecendoSkill@@0AAV?$allocator@UWaveKey@ioCrecendoSkill@@@0@U_Nonscalar_ptr_iterator_tag@0@@Z
_TEXT	SEGMENT
__First$ = 8						; size = 4
__Last$ = 12						; size = 4
__Al$ = 16						; size = 4
___formal$ = 20						; size = 1
??$_Destroy_range@V?$allocator@UWaveKey@ioCrecendoSkill@@@std@@@std@@YAXPAUWaveKey@ioCrecendoSkill@@0AAV?$allocator@UWaveKey@ioCrecendoSkill@@@0@U_Nonscalar_ptr_iterator_tag@0@@Z PROC ; std::_Destroy_range<std::allocator<ioCrecendoSkill::WaveKey> >, COMDAT

; 95   : 	{	// destroy [_First, _Last), arbitrary type

  00000	55		 push	 ebp
  00001	8b ec		 mov	 ebp, esp
  00003	56		 push	 esi

; 96   : 	for (; _First != _Last; ++_First)

  00004	8b 75 08	 mov	 esi, DWORD PTR __First$[ebp]
  00007	eb 0b		 jmp	 SHORT $LN20@Destroy_ra@3
$LL3@Destroy_ra@3:

; 97   : 		_Dest_val(_Al, _First);

  00009	8d 4e 10	 lea	 ecx, DWORD PTR [esi+16]
  0000c	e8 00 00 00 00	 call	 ??1AttackAttribute@@QAE@XZ
  00011	83 c6 6c	 add	 esi, 108		; 0000006cH
$LN20@Destroy_ra@3:

; 96   : 	for (; _First != _Last; ++_First)

  00014	3b 75 0c	 cmp	 esi, DWORD PTR __Last$[ebp]
  00017	75 f0		 jne	 SHORT $LL3@Destroy_ra@3
  00019	5e		 pop	 esi

; 98   : 	}

  0001a	5d		 pop	 ebp
  0001b	c3		 ret	 0
??$_Destroy_range@V?$allocator@UWaveKey@ioCrecendoSkill@@@std@@@std@@YAXPAUWaveKey@ioCrecendoSkill@@0AAV?$allocator@UWaveKey@ioCrecendoSkill@@@0@U_Nonscalar_ptr_iterator_tag@0@@Z ENDP ; std::_Destroy_range<std::allocator<ioCrecendoSkill::WaveKey> >
_TEXT	ENDS
PUBLIC	??$_Uninit_copy@V?$_Vector_const_iterator@V?$_Vector_val@UWaveKey@ioCrecendoSkill@@V?$allocator@UWaveKey@ioCrecendoSkill@@@std@@@std@@@std@@PAUWaveKey@ioCrecendoSkill@@V?$allocator@UWaveKey@ioCrecendoSkill@@@2@@std@@YAPAUWaveKey@ioCrecendoSkill@@V?$_Vector_const_iterator@V?$_Vector_val@UWaveKey@ioCrecendoSkill@@V?$allocator@UWaveKey@ioCrecendoSkill@@@std@@@std@@@0@0PAU12@AAV?$allocator@UWaveKey@ioCrecendoSkill@@@0@U_Nonscalar_ptr_iterator_tag@0@@Z ; std::_Uninit_copy<std::_Vector_const_iterator<std::_Vector_val<ioCrecendoSkill::WaveKey,std::allocator<ioCrecendoSkill::WaveKey> > >,ioCrecendoSkill::WaveKey *,std::allocator<ioCrecendoSkill::WaveKey> >
;	COMDAT xdata$x
; File d:\lost saga for developer\youtube\tutorial\source\src\lsclient\iocrecendoskill.cpp
xdata$x	SEGMENT
__catchsym$??$_Uninit_copy@V?$_Vector_const_iterator@V?$_Vector_val@UWaveKey@ioCrecendoSkill@@V?$allocator@UWaveKey@ioCrecendoSkill@@@std@@@std@@@std@@PAUWaveKey@ioCrecendoSkill@@V?$allocator@UWaveKey@ioCrecendoSkill@@@2@@std@@YAPAUWaveKey@ioCrecendoSkill@@V?$_Vector_const_iterator@V?$_Vector_val@UWaveKey@ioCrecendoSkill@@V?$allocator@UWaveKey@ioCrecendoSkill@@@std@@@std@@@0@0PAU12@AAV?$allocator@UWaveKey@ioCrecendoSkill@@@0@U_Nonscalar_ptr_iterator_tag@0@@Z$3 DD 040H
	DD	00H
	DD	00H
	DD	FLAT:__catch$??$_Uninit_copy@V?$_Vector_const_iterator@V?$_Vector_val@UWaveKey@ioCrecendoSkill@@V?$allocator@UWaveKey@ioCrecendoSkill@@@std@@@std@@@std@@PAUWaveKey@ioCrecendoSkill@@V?$allocator@UWaveKey@ioCrecendoSkill@@@2@@std@@YAPAUWaveKey@ioCrecendoSkill@@V?$_Vector_const_iterator@V?$_Vector_val@UWaveKey@ioCrecendoSkill@@V?$allocator@UWaveKey@ioCrecendoSkill@@@std@@@std@@@0@0PAU12@AAV?$allocator@UWaveKey@ioCrecendoSkill@@@0@U_Nonscalar_ptr_iterator_tag@0@@Z$0
__unwindtable$??$_Uninit_copy@V?$_Vector_const_iterator@V?$_Vector_val@UWaveKey@ioCrecendoSkill@@V?$allocator@UWaveKey@ioCrecendoSkill@@@std@@@std@@@std@@PAUWaveKey@ioCrecendoSkill@@V?$allocator@UWaveKey@ioCrecendoSkill@@@2@@std@@YAPAUWaveKey@ioCrecendoSkill@@V?$_Vector_const_iterator@V?$_Vector_val@UWaveKey@ioCrecendoSkill@@V?$allocator@UWaveKey@ioCrecendoSkill@@@std@@@std@@@0@0PAU12@AAV?$allocator@UWaveKey@ioCrecendoSkill@@@0@U_Nonscalar_ptr_iterator_tag@0@@Z DD 0ffffffffH
	DD	00H
	DD	0ffffffffH
	DD	00H
__tryblocktable$??$_Uninit_copy@V?$_Vector_const_iterator@V?$_Vector_val@UWaveKey@ioCrecendoSkill@@V?$allocator@UWaveKey@ioCrecendoSkill@@@std@@@std@@@std@@PAUWaveKey@ioCrecendoSkill@@V?$allocator@UWaveKey@ioCrecendoSkill@@@2@@std@@YAPAUWaveKey@ioCrecendoSkill@@V?$_Vector_const_iterator@V?$_Vector_val@UWaveKey@ioCrecendoSkill@@V?$allocator@UWaveKey@ioCrecendoSkill@@@std@@@std@@@0@0PAU12@AAV?$allocator@UWaveKey@ioCrecendoSkill@@@0@U_Nonscalar_ptr_iterator_tag@0@@Z DD 00H
	DD	00H
	DD	01H
	DD	01H
	DD	FLAT:__catchsym$??$_Uninit_copy@V?$_Vector_const_iterator@V?$_Vector_val@UWaveKey@ioCrecendoSkill@@V?$allocator@UWaveKey@ioCrecendoSkill@@@std@@@std@@@std@@PAUWaveKey@ioCrecendoSkill@@V?$allocator@UWaveKey@ioCrecendoSkill@@@2@@std@@YAPAUWaveKey@ioCrecendoSkill@@V?$_Vector_const_iterator@V?$_Vector_val@UWaveKey@ioCrecendoSkill@@V?$allocator@UWaveKey@ioCrecendoSkill@@@std@@@std@@@0@0PAU12@AAV?$allocator@UWaveKey@ioCrecendoSkill@@@0@U_Nonscalar_ptr_iterator_tag@0@@Z$3
__ehfuncinfo$??$_Uninit_copy@V?$_Vector_const_iterator@V?$_Vector_val@UWaveKey@ioCrecendoSkill@@V?$allocator@UWaveKey@ioCrecendoSkill@@@std@@@std@@@std@@PAUWaveKey@ioCrecendoSkill@@V?$allocator@UWaveKey@ioCrecendoSkill@@@2@@std@@YAPAUWaveKey@ioCrecendoSkill@@V?$_Vector_const_iterator@V?$_Vector_val@UWaveKey@ioCrecendoSkill@@V?$allocator@UWaveKey@ioCrecendoSkill@@@std@@@std@@@0@0PAU12@AAV?$allocator@UWaveKey@ioCrecendoSkill@@@0@U_Nonscalar_ptr_iterator_tag@0@@Z DD 019930522H
	DD	02H
	DD	FLAT:__unwindtable$??$_Uninit_copy@V?$_Vector_const_iterator@V?$_Vector_val@UWaveKey@ioCrecendoSkill@@V?$allocator@UWaveKey@ioCrecendoSkill@@@std@@@std@@@std@@PAUWaveKey@ioCrecendoSkill@@V?$allocator@UWaveKey@ioCrecendoSkill@@@2@@std@@YAPAUWaveKey@ioCrecendoSkill@@V?$_Vector_const_iterator@V?$_Vector_val@UWaveKey@ioCrecendoSkill@@V?$allocator@UWaveKey@ioCrecendoSkill@@@std@@@std@@@0@0PAU12@AAV?$allocator@UWaveKey@ioCrecendoSkill@@@0@U_Nonscalar_ptr_iterator_tag@0@@Z
	DD	01H
	DD	FLAT:__tryblocktable$??$_Uninit_copy@V?$_Vector_const_iterator@V?$_Vector_val@UWaveKey@ioCrecendoSkill@@V?$allocator@UWaveKey@ioCrecendoSkill@@@std@@@std@@@std@@PAUWaveKey@ioCrecendoSkill@@V?$allocator@UWaveKey@ioCrecendoSkill@@@2@@std@@YAPAUWaveKey@ioCrecendoSkill@@V?$_Vector_const_iterator@V?$_Vector_val@UWaveKey@ioCrecendoSkill@@V?$allocator@UWaveKey@ioCrecendoSkill@@@std@@@std@@@0@0PAU12@AAV?$allocator@UWaveKey@ioCrecendoSkill@@@0@U_Nonscalar_ptr_iterator_tag@0@@Z
	DD	2 DUP(00H)
	DD	00H
	DD	01H
; Function compile flags: /Ogsp
; File c:\program files (x86)\microsoft visual studio 10.0\vc\include\memory
xdata$x	ENDS
;	COMDAT ??$_Uninit_copy@V?$_Vector_const_iterator@V?$_Vector_val@UWaveKey@ioCrecendoSkill@@V?$allocator@UWaveKey@ioCrecendoSkill@@@std@@@std@@@std@@PAUWaveKey@ioCrecendoSkill@@V?$allocator@UWaveKey@ioCrecendoSkill@@@2@@std@@YAPAUWaveKey@ioCrecendoSkill@@V?$_Vector_const_iterator@V?$_Vector_val@UWaveKey@ioCrecendoSkill@@V?$allocator@UWaveKey@ioCrecendoSkill@@@std@@@std@@@0@0PAU12@AAV?$allocator@UWaveKey@ioCrecendoSkill@@@0@U_Nonscalar_ptr_iterator_tag@0@@Z
_TEXT	SEGMENT
__Next$ = -20						; size = 4
__$EHRec$ = -16						; size = 16
__First$ = 8						; size = 4
__Last$ = 12						; size = 4
__Dest$ = 16						; size = 4
__Al$ = 20						; size = 4
___formal$ = 24						; size = 1
??$_Uninit_copy@V?$_Vector_const_iterator@V?$_Vector_val@UWaveKey@ioCrecendoSkill@@V?$allocator@UWaveKey@ioCrecendoSkill@@@std@@@std@@@std@@PAUWaveKey@ioCrecendoSkill@@V?$allocator@UWaveKey@ioCrecendoSkill@@@2@@std@@YAPAUWaveKey@ioCrecendoSkill@@V?$_Vector_const_iterator@V?$_Vector_val@UWaveKey@ioCrecendoSkill@@V?$allocator@UWaveKey@ioCrecendoSkill@@@std@@@std@@@0@0PAU12@AAV?$allocator@UWaveKey@ioCrecendoSkill@@@0@U_Nonscalar_ptr_iterator_tag@0@@Z PROC ; std::_Uninit_copy<std::_Vector_const_iterator<std::_Vector_val<ioCrecendoSkill::WaveKey,std::allocator<ioCrecendoSkill::WaveKey> > >,ioCrecendoSkill::WaveKey *,std::allocator<ioCrecendoSkill::WaveKey> >, COMDAT

; 369  : 	{	// copy [_First, _Last) to raw _Dest, using _Al, arbitrary type

  00000	6a 08		 push	 8
  00002	b8 00 00 00 00	 mov	 eax, __ehhandler$??$_Uninit_copy@V?$_Vector_const_iterator@V?$_Vector_val@UWaveKey@ioCrecendoSkill@@V?$allocator@UWaveKey@ioCrecendoSkill@@@std@@@std@@@std@@PAUWaveKey@ioCrecendoSkill@@V?$allocator@UWaveKey@ioCrecendoSkill@@@2@@std@@YAPAUWaveKey@ioCrecendoSkill@@V?$_Vector_const_iterator@V?$_Vector_val@UWaveKey@ioCrecendoSkill@@V?$allocator@UWaveKey@ioCrecendoSkill@@@std@@@std@@@0@0PAU12@AAV?$allocator@UWaveKey@ioCrecendoSkill@@@0@U_Nonscalar_ptr_iterator_tag@0@@Z
  00007	e8 00 00 00 00	 call	 __EH_prolog3_catch

; 370  : 	_DEBUG_RANGE(_First, _Last);
; 371  : 	_DEBUG_POINTER(_Dest);
; 372  : 	_FwdIt _Next = _Dest;

  0000c	8b 45 10	 mov	 eax, DWORD PTR __Dest$[ebp]

; 373  : 
; 374  : 	_TRY_BEGIN

  0000f	83 65 fc 00	 and	 DWORD PTR __$EHRec$[ebp+12], 0
  00013	89 45 ec	 mov	 DWORD PTR __Next$[ebp], eax

; 375  : 	for (; _First != _Last; ++_Dest, ++_First)

$LL14@Uninit_cop@3:
  00016	8b 45 08	 mov	 eax, DWORD PTR __First$[ebp]
  00019	3b 45 0c	 cmp	 eax, DWORD PTR __Last$[ebp]
  0001c	74 33		 je	 SHORT $LN4@Uninit_cop@3

; 376  : 		_Cons_val(_Al, _Dest, *_First);

  0001e	50		 push	 eax
  0001f	ff 75 10	 push	 DWORD PTR __Dest$[ebp]
  00022	e8 00 00 00 00	 call	 ??$_Construct@UWaveKey@ioCrecendoSkill@@ABU12@@std@@YAXPAUWaveKey@ioCrecendoSkill@@ABU12@@Z ; std::_Construct<ioCrecendoSkill::WaveKey,ioCrecendoSkill::WaveKey const &>
  00027	83 45 10 6c	 add	 DWORD PTR __Dest$[ebp], 108 ; 0000006cH
  0002b	83 45 08 6c	 add	 DWORD PTR __First$[ebp], 108 ; 0000006cH
  0002f	59		 pop	 ecx
  00030	59		 pop	 ecx
  00031	eb e3		 jmp	 SHORT $LL14@Uninit_cop@3
__catch$??$_Uninit_copy@V?$_Vector_const_iterator@V?$_Vector_val@UWaveKey@ioCrecendoSkill@@V?$allocator@UWaveKey@ioCrecendoSkill@@@std@@@std@@@std@@PAUWaveKey@ioCrecendoSkill@@V?$allocator@UWaveKey@ioCrecendoSkill@@@2@@std@@YAPAUWaveKey@ioCrecendoSkill@@V?$_Vector_const_iterator@V?$_Vector_val@UWaveKey@ioCrecendoSkill@@V?$allocator@UWaveKey@ioCrecendoSkill@@@std@@@std@@@0@0PAU12@AAV?$allocator@UWaveKey@ioCrecendoSkill@@@0@U_Nonscalar_ptr_iterator_tag@0@@Z$0:

; 377  : 	_CATCH_ALL
; 378  : 	for (; _Next != _Dest; ++_Next)

  00033	8b 75 ec	 mov	 esi, DWORD PTR __Next$[ebp]
  00036	eb 0b		 jmp	 SHORT $LN48@Uninit_cop@3
$LL3@Uninit_cop@3:

; 379  : 		_Dest_val(_Al, _Next);

  00038	8d 4e 10	 lea	 ecx, DWORD PTR [esi+16]
  0003b	e8 00 00 00 00	 call	 ??1AttackAttribute@@QAE@XZ
  00040	83 c6 6c	 add	 esi, 108		; 0000006cH
$LN48@Uninit_cop@3:

; 377  : 	_CATCH_ALL
; 378  : 	for (; _Next != _Dest; ++_Next)

  00043	3b 75 10	 cmp	 esi, DWORD PTR __Dest$[ebp]
  00046	75 f0		 jne	 SHORT $LL3@Uninit_cop@3

; 380  : 	_RERAISE;

  00048	6a 00		 push	 0
  0004a	6a 00		 push	 0
  0004c	e8 00 00 00 00	 call	 __CxxThrowException@8
$LN49@Uninit_cop@3:
$LN4@Uninit_cop@3:

; 381  : 	_CATCH_END
; 382  : 	return (_Dest);

  00051	8b 45 10	 mov	 eax, DWORD PTR __Dest$[ebp]

; 383  : 	}

  00054	e8 00 00 00 00	 call	 __EH_epilog3
  00059	c3		 ret	 0
$LN47@Uninit_cop@3:
_TEXT	ENDS
;	COMDAT text$x
text$x	SEGMENT
__ehhandler$??$_Uninit_copy@V?$_Vector_const_iterator@V?$_Vector_val@UWaveKey@ioCrecendoSkill@@V?$allocator@UWaveKey@ioCrecendoSkill@@@std@@@std@@@std@@PAUWaveKey@ioCrecendoSkill@@V?$allocator@UWaveKey@ioCrecendoSkill@@@2@@std@@YAPAUWaveKey@ioCrecendoSkill@@V?$_Vector_const_iterator@V?$_Vector_val@UWaveKey@ioCrecendoSkill@@V?$allocator@UWaveKey@ioCrecendoSkill@@@std@@@std@@@0@0PAU12@AAV?$allocator@UWaveKey@ioCrecendoSkill@@@0@U_Nonscalar_ptr_iterator_tag@0@@Z:
  00000	8b 54 24 08	 mov	 edx, DWORD PTR [esp+8]
  00004	8d 42 0c	 lea	 eax, DWORD PTR [edx+12]
  00007	8b 4a e8	 mov	 ecx, DWORD PTR [edx-24]
  0000a	33 c8		 xor	 ecx, eax
  0000c	e8 00 00 00 00	 call	 @__security_check_cookie@4
  00011	b8 00 00 00 00	 mov	 eax, OFFSET __ehfuncinfo$??$_Uninit_copy@V?$_Vector_const_iterator@V?$_Vector_val@UWaveKey@ioCrecendoSkill@@V?$allocator@UWaveKey@ioCrecendoSkill@@@std@@@std@@@std@@PAUWaveKey@ioCrecendoSkill@@V?$allocator@UWaveKey@ioCrecendoSkill@@@2@@std@@YAPAUWaveKey@ioCrecendoSkill@@V?$_Vector_const_iterator@V?$_Vector_val@UWaveKey@ioCrecendoSkill@@V?$allocator@UWaveKey@ioCrecendoSkill@@@std@@@std@@@0@0PAU12@AAV?$allocator@UWaveKey@ioCrecendoSkill@@@0@U_Nonscalar_ptr_iterator_tag@0@@Z
  00016	e9 00 00 00 00	 jmp	 ___CxxFrameHandler3
text$x	ENDS
??$_Uninit_copy@V?$_Vector_const_iterator@V?$_Vector_val@UWaveKey@ioCrecendoSkill@@V?$allocator@UWaveKey@ioCrecendoSkill@@@std@@@std@@@std@@PAUWaveKey@ioCrecendoSkill@@V?$allocator@UWaveKey@ioCrecendoSkill@@@2@@std@@YAPAUWaveKey@ioCrecendoSkill@@V?$_Vector_const_iterator@V?$_Vector_val@UWaveKey@ioCrecendoSkill@@V?$allocator@UWaveKey@ioCrecendoSkill@@@std@@@std@@@0@0PAU12@AAV?$allocator@UWaveKey@ioCrecendoSkill@@@0@U_Nonscalar_ptr_iterator_tag@0@@Z ENDP ; std::_Uninit_copy<std::_Vector_const_iterator<std::_Vector_val<ioCrecendoSkill::WaveKey,std::allocator<ioCrecendoSkill::WaveKey> > >,ioCrecendoSkill::WaveKey *,std::allocator<ioCrecendoSkill::WaveKey> >
PUBLIC	??$_Uninit_move@PAUWaveKey@ioCrecendoSkill@@PAU12@V?$allocator@UWaveKey@ioCrecendoSkill@@@std@@U12@@std@@YAPAUWaveKey@ioCrecendoSkill@@PAU12@00AAV?$allocator@UWaveKey@ioCrecendoSkill@@@0@0U_Nonscalar_ptr_iterator_tag@0@@Z ; std::_Uninit_move<ioCrecendoSkill::WaveKey *,ioCrecendoSkill::WaveKey *,std::allocator<ioCrecendoSkill::WaveKey>,ioCrecendoSkill::WaveKey>
;	COMDAT xdata$x
; File d:\lost saga for developer\youtube\tutorial\source\src\lsclient\iocrecendoskill.cpp
xdata$x	SEGMENT
__catchsym$??$_Uninit_move@PAUWaveKey@ioCrecendoSkill@@PAU12@V?$allocator@UWaveKey@ioCrecendoSkill@@@std@@U12@@std@@YAPAUWaveKey@ioCrecendoSkill@@PAU12@00AAV?$allocator@UWaveKey@ioCrecendoSkill@@@0@0U_Nonscalar_ptr_iterator_tag@0@@Z$3 DD 040H
	DD	00H
	DD	00H
	DD	FLAT:__catch$??$_Uninit_move@PAUWaveKey@ioCrecendoSkill@@PAU12@V?$allocator@UWaveKey@ioCrecendoSkill@@@std@@U12@@std@@YAPAUWaveKey@ioCrecendoSkill@@PAU12@00AAV?$allocator@UWaveKey@ioCrecendoSkill@@@0@0U_Nonscalar_ptr_iterator_tag@0@@Z$0
__unwindtable$??$_Uninit_move@PAUWaveKey@ioCrecendoSkill@@PAU12@V?$allocator@UWaveKey@ioCrecendoSkill@@@std@@U12@@std@@YAPAUWaveKey@ioCrecendoSkill@@PAU12@00AAV?$allocator@UWaveKey@ioCrecendoSkill@@@0@0U_Nonscalar_ptr_iterator_tag@0@@Z DD 0ffffffffH
	DD	00H
	DD	0ffffffffH
	DD	00H
__tryblocktable$??$_Uninit_move@PAUWaveKey@ioCrecendoSkill@@PAU12@V?$allocator@UWaveKey@ioCrecendoSkill@@@std@@U12@@std@@YAPAUWaveKey@ioCrecendoSkill@@PAU12@00AAV?$allocator@UWaveKey@ioCrecendoSkill@@@0@0U_Nonscalar_ptr_iterator_tag@0@@Z DD 00H
	DD	00H
	DD	01H
	DD	01H
	DD	FLAT:__catchsym$??$_Uninit_move@PAUWaveKey@ioCrecendoSkill@@PAU12@V?$allocator@UWaveKey@ioCrecendoSkill@@@std@@U12@@std@@YAPAUWaveKey@ioCrecendoSkill@@PAU12@00AAV?$allocator@UWaveKey@ioCrecendoSkill@@@0@0U_Nonscalar_ptr_iterator_tag@0@@Z$3
__ehfuncinfo$??$_Uninit_move@PAUWaveKey@ioCrecendoSkill@@PAU12@V?$allocator@UWaveKey@ioCrecendoSkill@@@std@@U12@@std@@YAPAUWaveKey@ioCrecendoSkill@@PAU12@00AAV?$allocator@UWaveKey@ioCrecendoSkill@@@0@0U_Nonscalar_ptr_iterator_tag@0@@Z DD 019930522H
	DD	02H
	DD	FLAT:__unwindtable$??$_Uninit_move@PAUWaveKey@ioCrecendoSkill@@PAU12@V?$allocator@UWaveKey@ioCrecendoSkill@@@std@@U12@@std@@YAPAUWaveKey@ioCrecendoSkill@@PAU12@00AAV?$allocator@UWaveKey@ioCrecendoSkill@@@0@0U_Nonscalar_ptr_iterator_tag@0@@Z
	DD	01H
	DD	FLAT:__tryblocktable$??$_Uninit_move@PAUWaveKey@ioCrecendoSkill@@PAU12@V?$allocator@UWaveKey@ioCrecendoSkill@@@std@@U12@@std@@YAPAUWaveKey@ioCrecendoSkill@@PAU12@00AAV?$allocator@UWaveKey@ioCrecendoSkill@@@0@0U_Nonscalar_ptr_iterator_tag@0@@Z
	DD	2 DUP(00H)
	DD	00H
	DD	01H
; Function compile flags: /Ogsp
; File c:\program files (x86)\microsoft visual studio 10.0\vc\include\memory
xdata$x	ENDS
;	COMDAT ??$_Uninit_move@PAUWaveKey@ioCrecendoSkill@@PAU12@V?$allocator@UWaveKey@ioCrecendoSkill@@@std@@U12@@std@@YAPAUWaveKey@ioCrecendoSkill@@PAU12@00AAV?$allocator@UWaveKey@ioCrecendoSkill@@@0@0U_Nonscalar_ptr_iterator_tag@0@@Z
_TEXT	SEGMENT
__Next$ = -20						; size = 4
__$EHRec$ = -16						; size = 16
__First$ = 8						; size = 4
__Last$ = 12						; size = 4
__Dest$ = 16						; size = 4
__Al$ = 20						; size = 4
___formal$ = 24						; size = 4
___formal$ = 28						; size = 1
??$_Uninit_move@PAUWaveKey@ioCrecendoSkill@@PAU12@V?$allocator@UWaveKey@ioCrecendoSkill@@@std@@U12@@std@@YAPAUWaveKey@ioCrecendoSkill@@PAU12@00AAV?$allocator@UWaveKey@ioCrecendoSkill@@@0@0U_Nonscalar_ptr_iterator_tag@0@@Z PROC ; std::_Uninit_move<ioCrecendoSkill::WaveKey *,ioCrecendoSkill::WaveKey *,std::allocator<ioCrecendoSkill::WaveKey>,ioCrecendoSkill::WaveKey>, COMDAT

; 424  : 	{	// move [_First, _Last) to raw _Dest, using _Al, arbitrary type

  00000	6a 08		 push	 8
  00002	b8 00 00 00 00	 mov	 eax, __ehhandler$??$_Uninit_move@PAUWaveKey@ioCrecendoSkill@@PAU12@V?$allocator@UWaveKey@ioCrecendoSkill@@@std@@U12@@std@@YAPAUWaveKey@ioCrecendoSkill@@PAU12@00AAV?$allocator@UWaveKey@ioCrecendoSkill@@@0@0U_Nonscalar_ptr_iterator_tag@0@@Z
  00007	e8 00 00 00 00	 call	 __EH_prolog3_catch

; 425  : 	_DEBUG_RANGE(_First, _Last);
; 426  : 	_DEBUG_POINTER(_Dest);
; 427  : 	_FwdIt _Next = _Dest;

  0000c	8b 45 10	 mov	 eax, DWORD PTR __Dest$[ebp]

; 428  : 
; 429  : 	_TRY_BEGIN

  0000f	83 65 fc 00	 and	 DWORD PTR __$EHRec$[ebp+12], 0
  00013	8b 75 08	 mov	 esi, DWORD PTR __First$[ebp]
  00016	89 45 ec	 mov	 DWORD PTR __Next$[ebp], eax
$LL6@Uninit_mov@2:

; 430  : 	for (; _First != _Last; ++_Dest, ++_First)

  00019	3b 75 0c	 cmp	 esi, DWORD PTR __Last$[ebp]
  0001c	74 36		 je	 SHORT $LN4@Uninit_mov@2

; 431  : 		_Cons_val(_Al, _Dest, (_Valty &&)*_First);

  0001e	56		 push	 esi
  0001f	ff 75 10	 push	 DWORD PTR __Dest$[ebp]
  00022	ff 75 14	 push	 DWORD PTR __Al$[ebp]
  00025	e8 00 00 00 00	 call	 ??$_Cons_val@V?$allocator@UWaveKey@ioCrecendoSkill@@@std@@UWaveKey@ioCrecendoSkill@@U34@@std@@YAXAAV?$allocator@UWaveKey@ioCrecendoSkill@@@0@PAUWaveKey@ioCrecendoSkill@@$$QAU23@@Z ; std::_Cons_val<std::allocator<ioCrecendoSkill::WaveKey>,ioCrecendoSkill::WaveKey,ioCrecendoSkill::WaveKey>
  0002a	83 45 10 6c	 add	 DWORD PTR __Dest$[ebp], 108 ; 0000006cH
  0002e	83 c4 0c	 add	 esp, 12			; 0000000cH
  00031	83 c6 6c	 add	 esi, 108		; 0000006cH
  00034	eb e3		 jmp	 SHORT $LL6@Uninit_mov@2
__catch$??$_Uninit_move@PAUWaveKey@ioCrecendoSkill@@PAU12@V?$allocator@UWaveKey@ioCrecendoSkill@@@std@@U12@@std@@YAPAUWaveKey@ioCrecendoSkill@@PAU12@00AAV?$allocator@UWaveKey@ioCrecendoSkill@@@0@0U_Nonscalar_ptr_iterator_tag@0@@Z$0:

; 432  : 	_CATCH_ALL
; 433  : 	for (; _Next != _Dest; ++_Next)

  00036	8b 75 ec	 mov	 esi, DWORD PTR __Next$[ebp]
  00039	eb 0b		 jmp	 SHORT $LN32@Uninit_mov@2
$LL3@Uninit_mov@2:

; 434  : 		_Dest_val(_Al, _Next);

  0003b	8d 4e 10	 lea	 ecx, DWORD PTR [esi+16]
  0003e	e8 00 00 00 00	 call	 ??1AttackAttribute@@QAE@XZ
  00043	83 c6 6c	 add	 esi, 108		; 0000006cH
$LN32@Uninit_mov@2:

; 432  : 	_CATCH_ALL
; 433  : 	for (; _Next != _Dest; ++_Next)

  00046	3b 75 10	 cmp	 esi, DWORD PTR __Dest$[ebp]
  00049	75 f0		 jne	 SHORT $LL3@Uninit_mov@2

; 435  : 	_RERAISE;

  0004b	6a 00		 push	 0
  0004d	6a 00		 push	 0
  0004f	e8 00 00 00 00	 call	 __CxxThrowException@8
$LN33@Uninit_mov@2:
$LN4@Uninit_mov@2:

; 436  : 	_CATCH_END
; 437  : 	return (_Dest);

  00054	8b 45 10	 mov	 eax, DWORD PTR __Dest$[ebp]

; 438  : 	}

  00057	e8 00 00 00 00	 call	 __EH_epilog3
  0005c	c3		 ret	 0
$LN31@Uninit_mov@2:
_TEXT	ENDS
;	COMDAT text$x
text$x	SEGMENT
__ehhandler$??$_Uninit_move@PAUWaveKey@ioCrecendoSkill@@PAU12@V?$allocator@UWaveKey@ioCrecendoSkill@@@std@@U12@@std@@YAPAUWaveKey@ioCrecendoSkill@@PAU12@00AAV?$allocator@UWaveKey@ioCrecendoSkill@@@0@0U_Nonscalar_ptr_iterator_tag@0@@Z:
  00000	8b 54 24 08	 mov	 edx, DWORD PTR [esp+8]
  00004	8d 42 0c	 lea	 eax, DWORD PTR [edx+12]
  00007	8b 4a e8	 mov	 ecx, DWORD PTR [edx-24]
  0000a	33 c8		 xor	 ecx, eax
  0000c	e8 00 00 00 00	 call	 @__security_check_cookie@4
  00011	b8 00 00 00 00	 mov	 eax, OFFSET __ehfuncinfo$??$_Uninit_move@PAUWaveKey@ioCrecendoSkill@@PAU12@V?$allocator@UWaveKey@ioCrecendoSkill@@@std@@U12@@std@@YAPAUWaveKey@ioCrecendoSkill@@PAU12@00AAV?$allocator@UWaveKey@ioCrecendoSkill@@@0@0U_Nonscalar_ptr_iterator_tag@0@@Z
  00016	e9 00 00 00 00	 jmp	 ___CxxFrameHandler3
text$x	ENDS
??$_Uninit_move@PAUWaveKey@ioCrecendoSkill@@PAU12@V?$allocator@UWaveKey@ioCrecendoSkill@@@std@@U12@@std@@YAPAUWaveKey@ioCrecendoSkill@@PAU12@00AAV?$allocator@UWaveKey@ioCrecendoSkill@@@0@0U_Nonscalar_ptr_iterator_tag@0@@Z ENDP ; std::_Uninit_move<ioCrecendoSkill::WaveKey *,ioCrecendoSkill::WaveKey *,std::allocator<ioCrecendoSkill::WaveKey>,ioCrecendoSkill::WaveKey>
PUBLIC	??$_Destroy_range@V?$allocator@UWaveKey@ioCrecendoSkill@@@std@@@std@@YAXPAUWaveKey@ioCrecendoSkill@@0AAV?$allocator@UWaveKey@ioCrecendoSkill@@@0@@Z ; std::_Destroy_range<std::allocator<ioCrecendoSkill::WaveKey> >
; Function compile flags: /Ogsp
; File c:\program files (x86)\microsoft visual studio 10.0\vc\include\xmemory
;	COMDAT ??$_Destroy_range@V?$allocator@UWaveKey@ioCrecendoSkill@@@std@@@std@@YAXPAUWaveKey@ioCrecendoSkill@@0AAV?$allocator@UWaveKey@ioCrecendoSkill@@@0@@Z
_TEXT	SEGMENT
__First$ = 8						; size = 4
__Last$ = 12						; size = 4
__Al$ = 16						; size = 4
??$_Destroy_range@V?$allocator@UWaveKey@ioCrecendoSkill@@@std@@@std@@YAXPAUWaveKey@ioCrecendoSkill@@0AAV?$allocator@UWaveKey@ioCrecendoSkill@@@0@@Z PROC ; std::_Destroy_range<std::allocator<ioCrecendoSkill::WaveKey> >, COMDAT

; 87   : 	{	// destroy [_First, _Last)

  00000	55		 push	 ebp
  00001	8b ec		 mov	 ebp, esp
  00003	56		 push	 esi

; 88   : 	_Destroy_range(_First, _Last, _Al, _Ptr_cat(_First, _Last));

  00004	8b 75 08	 mov	 esi, DWORD PTR __First$[ebp]
  00007	eb 0b		 jmp	 SHORT $LN24@Destroy_ra@4
$LL7@Destroy_ra@4:
  00009	8d 4e 10	 lea	 ecx, DWORD PTR [esi+16]
  0000c	e8 00 00 00 00	 call	 ??1AttackAttribute@@QAE@XZ
  00011	83 c6 6c	 add	 esi, 108		; 0000006cH
$LN24@Destroy_ra@4:
  00014	3b 75 0c	 cmp	 esi, DWORD PTR __Last$[ebp]
  00017	75 f0		 jne	 SHORT $LL7@Destroy_ra@4
  00019	5e		 pop	 esi

; 89   : 	}

  0001a	5d		 pop	 ebp
  0001b	c3		 ret	 0
??$_Destroy_range@V?$allocator@UWaveKey@ioCrecendoSkill@@@std@@@std@@YAXPAUWaveKey@ioCrecendoSkill@@0AAV?$allocator@UWaveKey@ioCrecendoSkill@@@0@@Z ENDP ; std::_Destroy_range<std::allocator<ioCrecendoSkill::WaveKey> >
_TEXT	ENDS
PUBLIC	??$_Uninitialized_copy@V?$_Vector_const_iterator@V?$_Vector_val@UWaveKey@ioCrecendoSkill@@V?$allocator@UWaveKey@ioCrecendoSkill@@@std@@@std@@@std@@PAUWaveKey@ioCrecendoSkill@@V?$allocator@UWaveKey@ioCrecendoSkill@@@2@@std@@YAPAUWaveKey@ioCrecendoSkill@@V?$_Vector_const_iterator@V?$_Vector_val@UWaveKey@ioCrecendoSkill@@V?$allocator@UWaveKey@ioCrecendoSkill@@@std@@@std@@@0@0PAU12@AAV?$allocator@UWaveKey@ioCrecendoSkill@@@0@@Z ; std::_Uninitialized_copy<std::_Vector_const_iterator<std::_Vector_val<ioCrecendoSkill::WaveKey,std::allocator<ioCrecendoSkill::WaveKey> > >,ioCrecendoSkill::WaveKey *,std::allocator<ioCrecendoSkill::WaveKey> >
; Function compile flags: /Ogsp
; File c:\program files (x86)\microsoft visual studio 10.0\vc\include\memory
;	COMDAT ??$_Uninitialized_copy@V?$_Vector_const_iterator@V?$_Vector_val@UWaveKey@ioCrecendoSkill@@V?$allocator@UWaveKey@ioCrecendoSkill@@@std@@@std@@@std@@PAUWaveKey@ioCrecendoSkill@@V?$allocator@UWaveKey@ioCrecendoSkill@@@2@@std@@YAPAUWaveKey@ioCrecendoSkill@@V?$_Vector_const_iterator@V?$_Vector_val@UWaveKey@ioCrecendoSkill@@V?$allocator@UWaveKey@ioCrecendoSkill@@@std@@@std@@@0@0PAU12@AAV?$allocator@UWaveKey@ioCrecendoSkill@@@0@@Z
_TEXT	SEGMENT
__Cat$544385 = -4					; size = 1
__First$ = 8						; size = 4
__Last$ = 12						; size = 4
__Dest$ = 16						; size = 4
__Al$ = 20						; size = 4
??$_Uninitialized_copy@V?$_Vector_const_iterator@V?$_Vector_val@UWaveKey@ioCrecendoSkill@@V?$allocator@UWaveKey@ioCrecendoSkill@@@std@@@std@@@std@@PAUWaveKey@ioCrecendoSkill@@V?$allocator@UWaveKey@ioCrecendoSkill@@@2@@std@@YAPAUWaveKey@ioCrecendoSkill@@V?$_Vector_const_iterator@V?$_Vector_val@UWaveKey@ioCrecendoSkill@@V?$allocator@UWaveKey@ioCrecendoSkill@@@std@@@std@@@0@0PAU12@AAV?$allocator@UWaveKey@ioCrecendoSkill@@@0@@Z PROC ; std::_Uninitialized_copy<std::_Vector_const_iterator<std::_Vector_val<ioCrecendoSkill::WaveKey,std::allocator<ioCrecendoSkill::WaveKey> > >,ioCrecendoSkill::WaveKey *,std::allocator<ioCrecendoSkill::WaveKey> >, COMDAT

; 412  : 	{	// copy [_First, _Last) to raw _Dest, using _Al

  00000	55		 push	 ebp
  00001	8b ec		 mov	 ebp, esp
  00003	51		 push	 ecx

; 413  : 	return (_Uninit_copy(_First, _Last, _Dest, _Al,
; 414  : 		_Ptr_cat(_First, _Dest)));

  00004	ff 75 fc	 push	 DWORD PTR __Cat$544385[ebp]
  00007	ff 75 14	 push	 DWORD PTR __Al$[ebp]
  0000a	ff 75 10	 push	 DWORD PTR __Dest$[ebp]
  0000d	ff 75 0c	 push	 DWORD PTR __Last$[ebp]
  00010	ff 75 08	 push	 DWORD PTR __First$[ebp]
  00013	e8 00 00 00 00	 call	 ??$_Uninit_copy@V?$_Vector_const_iterator@V?$_Vector_val@UWaveKey@ioCrecendoSkill@@V?$allocator@UWaveKey@ioCrecendoSkill@@@std@@@std@@@std@@PAUWaveKey@ioCrecendoSkill@@V?$allocator@UWaveKey@ioCrecendoSkill@@@2@@std@@YAPAUWaveKey@ioCrecendoSkill@@V?$_Vector_const_iterator@V?$_Vector_val@UWaveKey@ioCrecendoSkill@@V?$allocator@UWaveKey@ioCrecendoSkill@@@std@@@std@@@0@0PAU12@AAV?$allocator@UWaveKey@ioCrecendoSkill@@@0@U_Nonscalar_ptr_iterator_tag@0@@Z ; std::_Uninit_copy<std::_Vector_const_iterator<std::_Vector_val<ioCrecendoSkill::WaveKey,std::allocator<ioCrecendoSkill::WaveKey> > >,ioCrecendoSkill::WaveKey *,std::allocator<ioCrecendoSkill::WaveKey> >
  00018	83 c4 14	 add	 esp, 20			; 00000014H

; 415  : 	}

  0001b	c9		 leave
  0001c	c3		 ret	 0
??$_Uninitialized_copy@V?$_Vector_const_iterator@V?$_Vector_val@UWaveKey@ioCrecendoSkill@@V?$allocator@UWaveKey@ioCrecendoSkill@@@std@@@std@@@std@@PAUWaveKey@ioCrecendoSkill@@V?$allocator@UWaveKey@ioCrecendoSkill@@@2@@std@@YAPAUWaveKey@ioCrecendoSkill@@V?$_Vector_const_iterator@V?$_Vector_val@UWaveKey@ioCrecendoSkill@@V?$allocator@UWaveKey@ioCrecendoSkill@@@std@@@std@@@0@0PAU12@AAV?$allocator@UWaveKey@ioCrecendoSkill@@@0@@Z ENDP ; std::_Uninitialized_copy<std::_Vector_const_iterator<std::_Vector_val<ioCrecendoSkill::WaveKey,std::allocator<ioCrecendoSkill::WaveKey> > >,ioCrecendoSkill::WaveKey *,std::allocator<ioCrecendoSkill::WaveKey> >
_TEXT	ENDS
PUBLIC	??$_Uninitialized_move@PAUWaveKey@ioCrecendoSkill@@PAU12@V?$allocator@UWaveKey@ioCrecendoSkill@@@std@@@std@@YAPAUWaveKey@ioCrecendoSkill@@PAU12@00AAV?$allocator@UWaveKey@ioCrecendoSkill@@@0@@Z ; std::_Uninitialized_move<ioCrecendoSkill::WaveKey *,ioCrecendoSkill::WaveKey *,std::allocator<ioCrecendoSkill::WaveKey> >
; Function compile flags: /Ogsp
;	COMDAT ??$_Uninitialized_move@PAUWaveKey@ioCrecendoSkill@@PAU12@V?$allocator@UWaveKey@ioCrecendoSkill@@@std@@@std@@YAPAUWaveKey@ioCrecendoSkill@@PAU12@00AAV?$allocator@UWaveKey@ioCrecendoSkill@@@0@@Z
_TEXT	SEGMENT
__Cat$544393 = -4					; size = 1
__First$ = 8						; size = 4
__Last$ = 12						; size = 4
__Dest$ = 16						; size = 4
__Al$ = 20						; size = 4
??$_Uninitialized_move@PAUWaveKey@ioCrecendoSkill@@PAU12@V?$allocator@UWaveKey@ioCrecendoSkill@@@std@@@std@@YAPAUWaveKey@ioCrecendoSkill@@PAU12@00AAV?$allocator@UWaveKey@ioCrecendoSkill@@@0@@Z PROC ; std::_Uninitialized_move<ioCrecendoSkill::WaveKey *,ioCrecendoSkill::WaveKey *,std::allocator<ioCrecendoSkill::WaveKey> >, COMDAT

; 469  : 	{	// move [_First, _Last) to raw _Dest, using _Al

  00000	55		 push	 ebp
  00001	8b ec		 mov	 ebp, esp
  00003	51		 push	 ecx

; 470  : 	return (_Uninit_move(_First, _Last, _Dest, _Al,
; 471  : 		_Val_type(_First), _Ptr_cat(_First, _Dest)));

  00004	ff 75 fc	 push	 DWORD PTR __Cat$544393[ebp]
  00007	6a 00		 push	 0
  00009	ff 75 14	 push	 DWORD PTR __Al$[ebp]
  0000c	ff 75 10	 push	 DWORD PTR __Dest$[ebp]
  0000f	ff 75 0c	 push	 DWORD PTR __Last$[ebp]
  00012	ff 75 08	 push	 DWORD PTR __First$[ebp]
  00015	e8 00 00 00 00	 call	 ??$_Uninit_move@PAUWaveKey@ioCrecendoSkill@@PAU12@V?$allocator@UWaveKey@ioCrecendoSkill@@@std@@U12@@std@@YAPAUWaveKey@ioCrecendoSkill@@PAU12@00AAV?$allocator@UWaveKey@ioCrecendoSkill@@@0@0U_Nonscalar_ptr_iterator_tag@0@@Z ; std::_Uninit_move<ioCrecendoSkill::WaveKey *,ioCrecendoSkill::WaveKey *,std::allocator<ioCrecendoSkill::WaveKey>,ioCrecendoSkill::WaveKey>
  0001a	83 c4 18	 add	 esp, 24			; 00000018H

; 472  : 	}

  0001d	c9		 leave
  0001e	c3		 ret	 0
??$_Uninitialized_move@PAUWaveKey@ioCrecendoSkill@@PAU12@V?$allocator@UWaveKey@ioCrecendoSkill@@@std@@@std@@YAPAUWaveKey@ioCrecendoSkill@@PAU12@00AAV?$allocator@UWaveKey@ioCrecendoSkill@@@0@@Z ENDP ; std::_Uninitialized_move<ioCrecendoSkill::WaveKey *,ioCrecendoSkill::WaveKey *,std::allocator<ioCrecendoSkill::WaveKey> >
_TEXT	ENDS
PUBLIC	?_Destroy@?$vector@UWaveKey@ioCrecendoSkill@@V?$allocator@UWaveKey@ioCrecendoSkill@@@std@@@std@@IAEXPAUWaveKey@ioCrecendoSkill@@0@Z ; std::vector<ioCrecendoSkill::WaveKey,std::allocator<ioCrecendoSkill::WaveKey> >::_Destroy
; Function compile flags: /Ogsp
; File c:\program files (x86)\microsoft visual studio 10.0\vc\include\vector
;	COMDAT ?_Destroy@?$vector@UWaveKey@ioCrecendoSkill@@V?$allocator@UWaveKey@ioCrecendoSkill@@@std@@@std@@IAEXPAUWaveKey@ioCrecendoSkill@@0@Z
_TEXT	SEGMENT
__First$ = 8						; size = 4
__Last$ = 12						; size = 4
?_Destroy@?$vector@UWaveKey@ioCrecendoSkill@@V?$allocator@UWaveKey@ioCrecendoSkill@@@std@@@std@@IAEXPAUWaveKey@ioCrecendoSkill@@0@Z PROC ; std::vector<ioCrecendoSkill::WaveKey,std::allocator<ioCrecendoSkill::WaveKey> >::_Destroy, COMDAT
; _this$ = ecx

; 1269 : 		{	// destroy [_First, _Last) using allocator

  00000	55		 push	 ebp
  00001	8b ec		 mov	 ebp, esp
  00003	56		 push	 esi

; 1270 : 		_Destroy_range(_First, _Last, this->_Alval);

  00004	8b 75 08	 mov	 esi, DWORD PTR __First$[ebp]
  00007	eb 0b		 jmp	 SHORT $LN26@Destroy
$LL9@Destroy:
  00009	8d 4e 10	 lea	 ecx, DWORD PTR [esi+16]
  0000c	e8 00 00 00 00	 call	 ??1AttackAttribute@@QAE@XZ
  00011	83 c6 6c	 add	 esi, 108		; 0000006cH
$LN26@Destroy:
  00014	3b 75 0c	 cmp	 esi, DWORD PTR __Last$[ebp]
  00017	75 f0		 jne	 SHORT $LL9@Destroy
  00019	5e		 pop	 esi

; 1271 : 		}

  0001a	5d		 pop	 ebp
  0001b	c2 08 00	 ret	 8
?_Destroy@?$vector@UWaveKey@ioCrecendoSkill@@V?$allocator@UWaveKey@ioCrecendoSkill@@@std@@@std@@IAEXPAUWaveKey@ioCrecendoSkill@@0@Z ENDP ; std::vector<ioCrecendoSkill::WaveKey,std::allocator<ioCrecendoSkill::WaveKey> >::_Destroy
_TEXT	ENDS
PUBLIC	?_Tidy@?$vector@UWaveKey@ioCrecendoSkill@@V?$allocator@UWaveKey@ioCrecendoSkill@@@std@@@std@@IAEXXZ ; std::vector<ioCrecendoSkill::WaveKey,std::allocator<ioCrecendoSkill::WaveKey> >::_Tidy
; Function compile flags: /Ogsp
;	COMDAT ?_Tidy@?$vector@UWaveKey@ioCrecendoSkill@@V?$allocator@UWaveKey@ioCrecendoSkill@@@std@@@std@@IAEXXZ
_TEXT	SEGMENT
?_Tidy@?$vector@UWaveKey@ioCrecendoSkill@@V?$allocator@UWaveKey@ioCrecendoSkill@@@std@@@std@@IAEXXZ PROC ; std::vector<ioCrecendoSkill::WaveKey,std::allocator<ioCrecendoSkill::WaveKey> >::_Tidy, COMDAT
; _this$ = ecx

; 1301 : 		{	// free all storage

  00000	56		 push	 esi
  00001	8b f1		 mov	 esi, ecx

; 1302 : 		if (this->_Myfirst != 0)

  00003	83 3e 00	 cmp	 DWORD PTR [esi], 0
  00006	74 28		 je	 SHORT $LN27@Tidy@4

; 1303 : 			{	// something to free, destroy and deallocate it
; 1304 : 			this->_Orphan_all();

  00008	53		 push	 ebx
  00009	57		 push	 edi
  0000a	ff 15 00 00 00
	00		 call	 DWORD PTR __imp_?_Orphan_all@_Container_base0@std@@QAEXXZ

; 1305 : 			_Destroy(this->_Myfirst, this->_Mylast);

  00010	8b 5e 04	 mov	 ebx, DWORD PTR [esi+4]
  00013	8b 3e		 mov	 edi, DWORD PTR [esi]
  00015	eb 0b		 jmp	 SHORT $LN31@Tidy@4
$LL12@Tidy@4:
  00017	8d 4f 10	 lea	 ecx, DWORD PTR [edi+16]
  0001a	e8 00 00 00 00	 call	 ??1AttackAttribute@@QAE@XZ
  0001f	83 c7 6c	 add	 edi, 108		; 0000006cH
$LN31@Tidy@4:
  00022	3b fb		 cmp	 edi, ebx
  00024	75 f1		 jne	 SHORT $LL12@Tidy@4

; 1306 : 			this->_Alval.deallocate(this->_Myfirst,
; 1307 : 				this->_Myend - this->_Myfirst);

  00026	ff 36		 push	 DWORD PTR [esi]
  00028	e8 00 00 00 00	 call	 ??3@YAXPAX@Z		; operator delete
  0002d	59		 pop	 ecx
  0002e	5f		 pop	 edi
  0002f	5b		 pop	 ebx
$LN27@Tidy@4:

; 1308 : 			}
; 1309 : 		this->_Myfirst = 0;

  00030	33 c0		 xor	 eax, eax
  00032	89 06		 mov	 DWORD PTR [esi], eax

; 1310 : 		this->_Mylast = 0;

  00034	89 46 04	 mov	 DWORD PTR [esi+4], eax

; 1311 : 		this->_Myend = 0;

  00037	89 46 08	 mov	 DWORD PTR [esi+8], eax
  0003a	5e		 pop	 esi

; 1312 : 		}

  0003b	c3		 ret	 0
?_Tidy@?$vector@UWaveKey@ioCrecendoSkill@@V?$allocator@UWaveKey@ioCrecendoSkill@@@std@@@std@@IAEXXZ ENDP ; std::vector<ioCrecendoSkill::WaveKey,std::allocator<ioCrecendoSkill::WaveKey> >::_Tidy
_TEXT	ENDS
PUBLIC	??$_Ucopy@V?$_Vector_const_iterator@V?$_Vector_val@UWaveKey@ioCrecendoSkill@@V?$allocator@UWaveKey@ioCrecendoSkill@@@std@@@std@@@std@@@?$vector@UWaveKey@ioCrecendoSkill@@V?$allocator@UWaveKey@ioCrecendoSkill@@@std@@@std@@IAEPAUWaveKey@ioCrecendoSkill@@V?$_Vector_const_iterator@V?$_Vector_val@UWaveKey@ioCrecendoSkill@@V?$allocator@UWaveKey@ioCrecendoSkill@@@std@@@std@@@1@0PAU23@@Z ; std::vector<ioCrecendoSkill::WaveKey,std::allocator<ioCrecendoSkill::WaveKey> >::_Ucopy<std::_Vector_const_iterator<std::_Vector_val<ioCrecendoSkill::WaveKey,std::allocator<ioCrecendoSkill::WaveKey> > > >
; Function compile flags: /Ogsp
;	COMDAT ??$_Ucopy@V?$_Vector_const_iterator@V?$_Vector_val@UWaveKey@ioCrecendoSkill@@V?$allocator@UWaveKey@ioCrecendoSkill@@@std@@@std@@@std@@@?$vector@UWaveKey@ioCrecendoSkill@@V?$allocator@UWaveKey@ioCrecendoSkill@@@std@@@std@@IAEPAUWaveKey@ioCrecendoSkill@@V?$_Vector_const_iterator@V?$_Vector_val@UWaveKey@ioCrecendoSkill@@V?$allocator@UWaveKey@ioCrecendoSkill@@@std@@@std@@@1@0PAU23@@Z
_TEXT	SEGMENT
__First$ = 8						; size = 4
__Last$ = 12						; size = 4
__Cat$544624 = 16					; size = 1
__Ptr$ = 16						; size = 4
??$_Ucopy@V?$_Vector_const_iterator@V?$_Vector_val@UWaveKey@ioCrecendoSkill@@V?$allocator@UWaveKey@ioCrecendoSkill@@@std@@@std@@@std@@@?$vector@UWaveKey@ioCrecendoSkill@@V?$allocator@UWaveKey@ioCrecendoSkill@@@std@@@std@@IAEPAUWaveKey@ioCrecendoSkill@@V?$_Vector_const_iterator@V?$_Vector_val@UWaveKey@ioCrecendoSkill@@V?$allocator@UWaveKey@ioCrecendoSkill@@@std@@@std@@@1@0PAU23@@Z PROC ; std::vector<ioCrecendoSkill::WaveKey,std::allocator<ioCrecendoSkill::WaveKey> >::_Ucopy<std::_Vector_const_iterator<std::_Vector_val<ioCrecendoSkill::WaveKey,std::allocator<ioCrecendoSkill::WaveKey> > > >, COMDAT
; _this$ = ecx

; 1315 : 		pointer _Ucopy(_Iter _First, _Iter _Last, pointer _Ptr)

  00000	55		 push	 ebp
  00001	8b ec		 mov	 ebp, esp

; 1316 : 		{	// copy initializing [_First, _Last), using allocator
; 1317 : 		return (_Uninitialized_copy(_First, _Last,
; 1318 : 			_Ptr, this->_Alval));

  00003	ff 75 10	 push	 DWORD PTR __Cat$544624[ebp]
  00006	83 c1 0c	 add	 ecx, 12			; 0000000cH
  00009	51		 push	 ecx
  0000a	ff 75 10	 push	 DWORD PTR __Ptr$[ebp]
  0000d	ff 75 0c	 push	 DWORD PTR __Last$[ebp]
  00010	ff 75 08	 push	 DWORD PTR __First$[ebp]
  00013	e8 00 00 00 00	 call	 ??$_Uninit_copy@V?$_Vector_const_iterator@V?$_Vector_val@UWaveKey@ioCrecendoSkill@@V?$allocator@UWaveKey@ioCrecendoSkill@@@std@@@std@@@std@@PAUWaveKey@ioCrecendoSkill@@V?$allocator@UWaveKey@ioCrecendoSkill@@@2@@std@@YAPAUWaveKey@ioCrecendoSkill@@V?$_Vector_const_iterator@V?$_Vector_val@UWaveKey@ioCrecendoSkill@@V?$allocator@UWaveKey@ioCrecendoSkill@@@std@@@std@@@0@0PAU12@AAV?$allocator@UWaveKey@ioCrecendoSkill@@@0@U_Nonscalar_ptr_iterator_tag@0@@Z ; std::_Uninit_copy<std::_Vector_const_iterator<std::_Vector_val<ioCrecendoSkill::WaveKey,std::allocator<ioCrecendoSkill::WaveKey> > >,ioCrecendoSkill::WaveKey *,std::allocator<ioCrecendoSkill::WaveKey> >
  00018	83 c4 14	 add	 esp, 20			; 00000014H

; 1319 : 		}

  0001b	5d		 pop	 ebp
  0001c	c2 0c 00	 ret	 12			; 0000000cH
??$_Ucopy@V?$_Vector_const_iterator@V?$_Vector_val@UWaveKey@ioCrecendoSkill@@V?$allocator@UWaveKey@ioCrecendoSkill@@@std@@@std@@@std@@@?$vector@UWaveKey@ioCrecendoSkill@@V?$allocator@UWaveKey@ioCrecendoSkill@@@std@@@std@@IAEPAUWaveKey@ioCrecendoSkill@@V?$_Vector_const_iterator@V?$_Vector_val@UWaveKey@ioCrecendoSkill@@V?$allocator@UWaveKey@ioCrecendoSkill@@@std@@@std@@@1@0PAU23@@Z ENDP ; std::vector<ioCrecendoSkill::WaveKey,std::allocator<ioCrecendoSkill::WaveKey> >::_Ucopy<std::_Vector_const_iterator<std::_Vector_val<ioCrecendoSkill::WaveKey,std::allocator<ioCrecendoSkill::WaveKey> > > >
_TEXT	ENDS
PUBLIC	??$_Umove@PAUWaveKey@ioCrecendoSkill@@@?$vector@UWaveKey@ioCrecendoSkill@@V?$allocator@UWaveKey@ioCrecendoSkill@@@std@@@std@@IAEPAUWaveKey@ioCrecendoSkill@@PAU23@00@Z ; std::vector<ioCrecendoSkill::WaveKey,std::allocator<ioCrecendoSkill::WaveKey> >::_Umove<ioCrecendoSkill::WaveKey *>
; Function compile flags: /Ogsp
;	COMDAT ??$_Umove@PAUWaveKey@ioCrecendoSkill@@@?$vector@UWaveKey@ioCrecendoSkill@@V?$allocator@UWaveKey@ioCrecendoSkill@@@std@@@std@@IAEPAUWaveKey@ioCrecendoSkill@@PAU23@00@Z
_TEXT	SEGMENT
__First$ = 8						; size = 4
__Last$ = 12						; size = 4
__Ptr$ = 16						; size = 4
??$_Umove@PAUWaveKey@ioCrecendoSkill@@@?$vector@UWaveKey@ioCrecendoSkill@@V?$allocator@UWaveKey@ioCrecendoSkill@@@std@@@std@@IAEPAUWaveKey@ioCrecendoSkill@@PAU23@00@Z PROC ; std::vector<ioCrecendoSkill::WaveKey,std::allocator<ioCrecendoSkill::WaveKey> >::_Umove<ioCrecendoSkill::WaveKey *>, COMDAT
; _this$ = ecx

; 1322 : 		pointer _Umove(_Iter _First, _Iter _Last, pointer _Ptr)

  00000	55		 push	 ebp
  00001	8b ec		 mov	 ebp, esp

; 1323 : 		{	// move initializing [_First, _Last), using allocator
; 1324 : 		return (_Uninitialized_move(_First, _Last,
; 1325 : 			_Ptr, this->_Alval));

  00003	83 c1 0c	 add	 ecx, 12			; 0000000cH
  00006	51		 push	 ecx
  00007	ff 75 10	 push	 DWORD PTR __Ptr$[ebp]
  0000a	ff 75 0c	 push	 DWORD PTR __Last$[ebp]
  0000d	ff 75 08	 push	 DWORD PTR __First$[ebp]
  00010	e8 00 00 00 00	 call	 ??$_Uninitialized_move@PAUWaveKey@ioCrecendoSkill@@PAU12@V?$allocator@UWaveKey@ioCrecendoSkill@@@std@@@std@@YAPAUWaveKey@ioCrecendoSkill@@PAU12@00AAV?$allocator@UWaveKey@ioCrecendoSkill@@@0@@Z ; std::_Uninitialized_move<ioCrecendoSkill::WaveKey *,ioCrecendoSkill::WaveKey *,std::allocator<ioCrecendoSkill::WaveKey> >
  00015	83 c4 10	 add	 esp, 16			; 00000010H

; 1326 : 		}

  00018	5d		 pop	 ebp
  00019	c2 0c 00	 ret	 12			; 0000000cH
??$_Umove@PAUWaveKey@ioCrecendoSkill@@@?$vector@UWaveKey@ioCrecendoSkill@@V?$allocator@UWaveKey@ioCrecendoSkill@@@std@@@std@@IAEPAUWaveKey@ioCrecendoSkill@@PAU23@00@Z ENDP ; std::vector<ioCrecendoSkill::WaveKey,std::allocator<ioCrecendoSkill::WaveKey> >::_Umove<ioCrecendoSkill::WaveKey *>
_TEXT	ENDS
PUBLIC	??0?$vector@UWaveKey@ioCrecendoSkill@@V?$allocator@UWaveKey@ioCrecendoSkill@@@std@@@std@@QAE@ABV01@@Z ; std::vector<ioCrecendoSkill::WaveKey,std::allocator<ioCrecendoSkill::WaveKey> >::vector<ioCrecendoSkill::WaveKey,std::allocator<ioCrecendoSkill::WaveKey> >
;	COMDAT xdata$x
; File c:\program files (x86)\microsoft visual studio 10.0\vc\include\xutility
xdata$x	SEGMENT
__catchsym$??0?$vector@UWaveKey@ioCrecendoSkill@@V?$allocator@UWaveKey@ioCrecendoSkill@@@std@@@std@@QAE@ABV01@@Z$2 DD 040H
	DD	00H
	DD	00H
	DD	FLAT:__catch$??0?$vector@UWaveKey@ioCrecendoSkill@@V?$allocator@UWaveKey@ioCrecendoSkill@@@std@@@std@@QAE@ABV01@@Z$0
__unwindtable$??0?$vector@UWaveKey@ioCrecendoSkill@@V?$allocator@UWaveKey@ioCrecendoSkill@@@std@@@std@@QAE@ABV01@@Z DD 0ffffffffH
	DD	00H
	DD	0ffffffffH
	DD	00H
__tryblocktable$??0?$vector@UWaveKey@ioCrecendoSkill@@V?$allocator@UWaveKey@ioCrecendoSkill@@@std@@@std@@QAE@ABV01@@Z DD 00H
	DD	00H
	DD	01H
	DD	01H
	DD	FLAT:__catchsym$??0?$vector@UWaveKey@ioCrecendoSkill@@V?$allocator@UWaveKey@ioCrecendoSkill@@@std@@@std@@QAE@ABV01@@Z$2
__ehfuncinfo$??0?$vector@UWaveKey@ioCrecendoSkill@@V?$allocator@UWaveKey@ioCrecendoSkill@@@std@@@std@@QAE@ABV01@@Z DD 019930522H
	DD	02H
	DD	FLAT:__unwindtable$??0?$vector@UWaveKey@ioCrecendoSkill@@V?$allocator@UWaveKey@ioCrecendoSkill@@@std@@@std@@QAE@ABV01@@Z
	DD	01H
	DD	FLAT:__tryblocktable$??0?$vector@UWaveKey@ioCrecendoSkill@@V?$allocator@UWaveKey@ioCrecendoSkill@@@std@@@std@@QAE@ABV01@@Z
	DD	2 DUP(00H)
	DD	00H
	DD	01H
; Function compile flags: /Ogsp
; File c:\program files (x86)\microsoft visual studio 10.0\vc\include\vector
xdata$x	ENDS
;	COMDAT ??0?$vector@UWaveKey@ioCrecendoSkill@@V?$allocator@UWaveKey@ioCrecendoSkill@@@std@@@std@@QAE@ABV01@@Z
_TEXT	SEGMENT
_this$ = -20						; size = 4
__$EHRec$ = -16						; size = 16
__Cat$544709 = 8					; size = 1
__Right$ = 8						; size = 4
??0?$vector@UWaveKey@ioCrecendoSkill@@V?$allocator@UWaveKey@ioCrecendoSkill@@@std@@@std@@QAE@ABV01@@Z PROC ; std::vector<ioCrecendoSkill::WaveKey,std::allocator<ioCrecendoSkill::WaveKey> >::vector<ioCrecendoSkill::WaveKey,std::allocator<ioCrecendoSkill::WaveKey> >, COMDAT
; _this$ = ecx

; 535  : 		{	// construct by copying _Right

  00000	6a 08		 push	 8
  00002	b8 00 00 00 00	 mov	 eax, __ehhandler$??0?$vector@UWaveKey@ioCrecendoSkill@@V?$allocator@UWaveKey@ioCrecendoSkill@@@std@@@std@@QAE@ABV01@@Z
  00007	e8 00 00 00 00	 call	 __EH_prolog3_catch
  0000c	8b f1		 mov	 esi, ecx
  0000e	89 75 ec	 mov	 DWORD PTR _this$[ebp], esi

; 536  : 		if (_Buy(_Right.size()))

  00011	8b 7d 08	 mov	 edi, DWORD PTR __Right$[ebp]
  00014	33 db		 xor	 ebx, ebx
  00016	89 1e		 mov	 DWORD PTR [esi], ebx
  00018	89 5e 04	 mov	 DWORD PTR [esi+4], ebx
  0001b	89 5e 08	 mov	 DWORD PTR [esi+8], ebx
  0001e	8b 47 04	 mov	 eax, DWORD PTR [edi+4]
  00021	2b 07		 sub	 eax, DWORD PTR [edi]
  00023	6a 6c		 push	 108			; 0000006cH
  00025	59		 pop	 ecx
  00026	99		 cdq
  00027	f7 f9		 idiv	 ecx
  00029	8b ce		 mov	 ecx, esi
  0002b	50		 push	 eax
  0002c	e8 00 00 00 00	 call	 ?_Buy@?$vector@UWaveKey@ioCrecendoSkill@@V?$allocator@UWaveKey@ioCrecendoSkill@@@std@@@std@@IAE_NI@Z ; std::vector<ioCrecendoSkill::WaveKey,std::allocator<ioCrecendoSkill::WaveKey> >::_Buy
  00031	84 c0		 test	 al, al
  00033	74 1f		 je	 SHORT $LN7@vector@3

; 537  : 			_TRY_BEGIN
; 538  : 			this->_Mylast = _Ucopy(_Right.begin(), _Right.end(),
; 539  : 				this->_Myfirst);

  00035	ff 75 08	 push	 DWORD PTR __Cat$544709[ebp]
  00038	8b 0e		 mov	 ecx, DWORD PTR [esi]
  0003a	8b 47 04	 mov	 eax, DWORD PTR [edi+4]
  0003d	8b 3f		 mov	 edi, DWORD PTR [edi]
  0003f	8d 56 0c	 lea	 edx, DWORD PTR [esi+12]
  00042	52		 push	 edx
  00043	51		 push	 ecx
  00044	50		 push	 eax
  00045	57		 push	 edi
  00046	89 5d fc	 mov	 DWORD PTR __$EHRec$[ebp+12], ebx
  00049	e8 00 00 00 00	 call	 ??$_Uninit_copy@V?$_Vector_const_iterator@V?$_Vector_val@UWaveKey@ioCrecendoSkill@@V?$allocator@UWaveKey@ioCrecendoSkill@@@std@@@std@@@std@@PAUWaveKey@ioCrecendoSkill@@V?$allocator@UWaveKey@ioCrecendoSkill@@@2@@std@@YAPAUWaveKey@ioCrecendoSkill@@V?$_Vector_const_iterator@V?$_Vector_val@UWaveKey@ioCrecendoSkill@@V?$allocator@UWaveKey@ioCrecendoSkill@@@std@@@std@@@0@0PAU12@AAV?$allocator@UWaveKey@ioCrecendoSkill@@@0@U_Nonscalar_ptr_iterator_tag@0@@Z ; std::_Uninit_copy<std::_Vector_const_iterator<std::_Vector_val<ioCrecendoSkill::WaveKey,std::allocator<ioCrecendoSkill::WaveKey> > >,ioCrecendoSkill::WaveKey *,std::allocator<ioCrecendoSkill::WaveKey> >
  0004e	83 c4 14	 add	 esp, 20			; 00000014H
  00051	89 46 04	 mov	 DWORD PTR [esi+4], eax
$LN7@vector@3:

; 543  : 			_CATCH_END
; 544  : 		}

  00054	8b c6		 mov	 eax, esi
  00056	e8 00 00 00 00	 call	 __EH_epilog3
  0005b	c2 04 00	 ret	 4
__catch$??0?$vector@UWaveKey@ioCrecendoSkill@@V?$allocator@UWaveKey@ioCrecendoSkill@@@std@@@std@@QAE@ABV01@@Z$0:

; 540  : 			_CATCH_ALL
; 541  : 			_Tidy();

  0005e	8b 4d ec	 mov	 ecx, DWORD PTR _this$[ebp]
  00061	e8 00 00 00 00	 call	 ?_Tidy@?$vector@UWaveKey@ioCrecendoSkill@@V?$allocator@UWaveKey@ioCrecendoSkill@@@std@@@std@@IAEXXZ ; std::vector<ioCrecendoSkill::WaveKey,std::allocator<ioCrecendoSkill::WaveKey> >::_Tidy

; 542  : 			_RERAISE;

  00066	33 db		 xor	 ebx, ebx
  00068	53		 push	 ebx
  00069	53		 push	 ebx
  0006a	e8 00 00 00 00	 call	 __CxxThrowException@8
$LN38@vector@3:
$LN37@vector@3:
  0006f	cc		 int	 3
_TEXT	ENDS
;	COMDAT text$x
text$x	SEGMENT
__ehhandler$??0?$vector@UWaveKey@ioCrecendoSkill@@V?$allocator@UWaveKey@ioCrecendoSkill@@@std@@@std@@QAE@ABV01@@Z:
  00000	8b 54 24 08	 mov	 edx, DWORD PTR [esp+8]
  00004	8d 42 0c	 lea	 eax, DWORD PTR [edx+12]
  00007	8b 4a e8	 mov	 ecx, DWORD PTR [edx-24]
  0000a	33 c8		 xor	 ecx, eax
  0000c	e8 00 00 00 00	 call	 @__security_check_cookie@4
  00011	b8 00 00 00 00	 mov	 eax, OFFSET __ehfuncinfo$??0?$vector@UWaveKey@ioCrecendoSkill@@V?$allocator@UWaveKey@ioCrecendoSkill@@@std@@@std@@QAE@ABV01@@Z
  00016	e9 00 00 00 00	 jmp	 ___CxxFrameHandler3
text$x	ENDS
??0?$vector@UWaveKey@ioCrecendoSkill@@V?$allocator@UWaveKey@ioCrecendoSkill@@@std@@@std@@QAE@ABV01@@Z ENDP ; std::vector<ioCrecendoSkill::WaveKey,std::allocator<ioCrecendoSkill::WaveKey> >::vector<ioCrecendoSkill::WaveKey,std::allocator<ioCrecendoSkill::WaveKey> >
PUBLIC	??1?$vector@UWaveKey@ioCrecendoSkill@@V?$allocator@UWaveKey@ioCrecendoSkill@@@std@@@std@@QAE@XZ ; std::vector<ioCrecendoSkill::WaveKey,std::allocator<ioCrecendoSkill::WaveKey> >::~vector<ioCrecendoSkill::WaveKey,std::allocator<ioCrecendoSkill::WaveKey> >
; Function compile flags: /Ogsp
;	COMDAT ??1?$vector@UWaveKey@ioCrecendoSkill@@V?$allocator@UWaveKey@ioCrecendoSkill@@@std@@@std@@QAE@XZ
_TEXT	SEGMENT
??1?$vector@UWaveKey@ioCrecendoSkill@@V?$allocator@UWaveKey@ioCrecendoSkill@@@std@@@std@@QAE@XZ PROC ; std::vector<ioCrecendoSkill::WaveKey,std::allocator<ioCrecendoSkill::WaveKey> >::~vector<ioCrecendoSkill::WaveKey,std::allocator<ioCrecendoSkill::WaveKey> >, COMDAT
; _this$ = ecx

; 705  : 		_Tidy();

  00000	e9 00 00 00 00	 jmp	 ?_Tidy@?$vector@UWaveKey@ioCrecendoSkill@@V?$allocator@UWaveKey@ioCrecendoSkill@@@std@@@std@@IAEXXZ ; std::vector<ioCrecendoSkill::WaveKey,std::allocator<ioCrecendoSkill::WaveKey> >::_Tidy
??1?$vector@UWaveKey@ioCrecendoSkill@@V?$allocator@UWaveKey@ioCrecendoSkill@@@std@@@std@@QAE@XZ ENDP ; std::vector<ioCrecendoSkill::WaveKey,std::allocator<ioCrecendoSkill::WaveKey> >::~vector<ioCrecendoSkill::WaveKey,std::allocator<ioCrecendoSkill::WaveKey> >
_TEXT	ENDS
PUBLIC	?reserve@?$vector@UWaveKey@ioCrecendoSkill@@V?$allocator@UWaveKey@ioCrecendoSkill@@@std@@@std@@QAEXI@Z ; std::vector<ioCrecendoSkill::WaveKey,std::allocator<ioCrecendoSkill::WaveKey> >::reserve
;	COMDAT xdata$x
; File c:\program files (x86)\microsoft visual studio 10.0\vc\include\xmemory
xdata$x	SEGMENT
__catchsym$?reserve@?$vector@UWaveKey@ioCrecendoSkill@@V?$allocator@UWaveKey@ioCrecendoSkill@@@std@@@std@@QAEXI@Z$3 DD 040H
	DD	00H
	DD	00H
	DD	FLAT:__catch$?reserve@?$vector@UWaveKey@ioCrecendoSkill@@V?$allocator@UWaveKey@ioCrecendoSkill@@@std@@@std@@QAEXI@Z$0
__unwindtable$?reserve@?$vector@UWaveKey@ioCrecendoSkill@@V?$allocator@UWaveKey@ioCrecendoSkill@@@std@@@std@@QAEXI@Z DD 0ffffffffH
	DD	00H
	DD	0ffffffffH
	DD	00H
__tryblocktable$?reserve@?$vector@UWaveKey@ioCrecendoSkill@@V?$allocator@UWaveKey@ioCrecendoSkill@@@std@@@std@@QAEXI@Z DD 00H
	DD	00H
	DD	01H
	DD	01H
	DD	FLAT:__catchsym$?reserve@?$vector@UWaveKey@ioCrecendoSkill@@V?$allocator@UWaveKey@ioCrecendoSkill@@@std@@@std@@QAEXI@Z$3
__ehfuncinfo$?reserve@?$vector@UWaveKey@ioCrecendoSkill@@V?$allocator@UWaveKey@ioCrecendoSkill@@@std@@@std@@QAEXI@Z DD 019930522H
	DD	02H
	DD	FLAT:__unwindtable$?reserve@?$vector@UWaveKey@ioCrecendoSkill@@V?$allocator@UWaveKey@ioCrecendoSkill@@@std@@@std@@QAEXI@Z
	DD	01H
	DD	FLAT:__tryblocktable$?reserve@?$vector@UWaveKey@ioCrecendoSkill@@V?$allocator@UWaveKey@ioCrecendoSkill@@@std@@@std@@QAEXI@Z
	DD	2 DUP(00H)
	DD	00H
	DD	01H
; Function compile flags: /Ogsp
; File c:\program files (x86)\microsoft visual studio 10.0\vc\include\vector
xdata$x	ENDS
;	COMDAT ?reserve@?$vector@UWaveKey@ioCrecendoSkill@@V?$allocator@UWaveKey@ioCrecendoSkill@@@std@@@std@@QAEXI@Z
_TEXT	SEGMENT
__Ptr$533504 = -24					; size = 4
$T544839 = -20						; size = 4
__$EHRec$ = -16						; size = 16
__Count$ = 8						; size = 4
?reserve@?$vector@UWaveKey@ioCrecendoSkill@@V?$allocator@UWaveKey@ioCrecendoSkill@@@std@@@std@@QAEXI@Z PROC ; std::vector<ioCrecendoSkill::WaveKey,std::allocator<ioCrecendoSkill::WaveKey> >::reserve, COMDAT
; _this$ = ecx

; 746  : 		{	// determine new minimum length of allocated storage

  00000	6a 0c		 push	 12			; 0000000cH
  00002	b8 00 00 00 00	 mov	 eax, __ehhandler$?reserve@?$vector@UWaveKey@ioCrecendoSkill@@V?$allocator@UWaveKey@ioCrecendoSkill@@@std@@@std@@QAEXI@Z
  00007	e8 00 00 00 00	 call	 __EH_prolog3_catch
  0000c	8b f1		 mov	 esi, ecx

; 747  : 		if (max_size() < _Count)

  0000e	81 7d 08 97 d0
	5e 02		 cmp	 DWORD PTR __Count$[ebp], 39768215 ; 025ed097H
  00015	76 0b		 jbe	 SHORT $LN5@reserve@2

; 748  : 			_Xlen();	// result too long

  00017	68 00 00 00 00	 push	 OFFSET ??_C@_0BD@OLBABOEK@vector?$DMT?$DO?5too?5long?$AA@
  0001c	ff 15 00 00 00
	00		 call	 DWORD PTR __imp_?_Xlength_error@std@@YAXPBD@Z
$LN62@reserve@2:
$LN5@reserve@2:

; 749  : 		else if (capacity() < _Count)

  00022	8b 46 08	 mov	 eax, DWORD PTR [esi+8]
  00025	2b 06		 sub	 eax, DWORD PTR [esi]
  00027	6a 6c		 push	 108			; 0000006cH
  00029	99		 cdq
  0002a	59		 pop	 ecx
  0002b	f7 f9		 idiv	 ecx
  0002d	3b 45 08	 cmp	 eax, DWORD PTR __Count$[ebp]
  00030	0f 83 83 00 00
	00		 jae	 $LN3@reserve@2

; 750  : 			{	// not enough room, reallocate
; 751  : 			pointer _Ptr = this->_Alval.allocate(_Count);

  00036	6a 00		 push	 0
  00038	ff 75 08	 push	 DWORD PTR __Count$[ebp]
  0003b	e8 00 00 00 00	 call	 ??$_Allocate@UWaveKey@ioCrecendoSkill@@@std@@YAPAUWaveKey@ioCrecendoSkill@@IPAU12@@Z ; std::_Allocate<ioCrecendoSkill::WaveKey>

; 752  : 
; 753  : 			_TRY_BEGIN
; 754  : 			_Umove(this->_Myfirst, this->_Mylast, _Ptr);

  00040	8b 0e		 mov	 ecx, DWORD PTR [esi]
  00042	83 65 fc 00	 and	 DWORD PTR __$EHRec$[ebp+12], 0
  00046	8d 56 0c	 lea	 edx, DWORD PTR [esi+12]
  00049	52		 push	 edx
  0004a	89 45 e8	 mov	 DWORD PTR __Ptr$533504[ebp], eax
  0004d	ff 75 e8	 push	 DWORD PTR __Ptr$533504[ebp]
  00050	8b 46 04	 mov	 eax, DWORD PTR [esi+4]
  00053	50		 push	 eax
  00054	51		 push	 ecx
  00055	e8 00 00 00 00	 call	 ??$_Uninitialized_move@PAUWaveKey@ioCrecendoSkill@@PAU12@V?$allocator@UWaveKey@ioCrecendoSkill@@@std@@@std@@YAPAUWaveKey@ioCrecendoSkill@@PAU12@00AAV?$allocator@UWaveKey@ioCrecendoSkill@@@0@@Z ; std::_Uninitialized_move<ioCrecendoSkill::WaveKey *,ioCrecendoSkill::WaveKey *,std::allocator<ioCrecendoSkill::WaveKey> >

; 758  : 			_CATCH_END
; 759  : 
; 760  : 			size_type _Size = size();

  0005a	8b 5e 04	 mov	 ebx, DWORD PTR [esi+4]
  0005d	8b 0e		 mov	 ecx, DWORD PTR [esi]
  0005f	83 c4 18	 add	 esp, 24			; 00000018H
  00062	8b c3		 mov	 eax, ebx
  00064	2b c1		 sub	 eax, ecx
  00066	6a 6c		 push	 108			; 0000006cH
  00068	99		 cdq
  00069	5f		 pop	 edi
  0006a	f7 ff		 idiv	 edi
  0006c	83 4d fc ff	 or	 DWORD PTR __$EHRec$[ebp+12], -1
  00070	8b f8		 mov	 edi, eax
  00072	85 c9		 test	 ecx, ecx
  00074	74 23		 je	 SHORT $LN54@reserve@2

; 761  : 			if (this->_Myfirst != 0)
; 762  : 				{	// destroy and deallocate old array
; 763  : 				_Destroy(this->_Myfirst, this->_Mylast);

  00076	89 4d ec	 mov	 DWORD PTR $T544839[ebp], ecx
  00079	3b cb		 cmp	 ecx, ebx
  0007b	74 14		 je	 SHORT $LN37@reserve@2
$LN39@reserve@2:
  0007d	8b 4d ec	 mov	 ecx, DWORD PTR $T544839[ebp]
  00080	83 c1 10	 add	 ecx, 16			; 00000010H
  00083	e8 00 00 00 00	 call	 ??1AttackAttribute@@QAE@XZ
  00088	83 45 ec 6c	 add	 DWORD PTR $T544839[ebp], 108 ; 0000006cH
  0008c	39 5d ec	 cmp	 DWORD PTR $T544839[ebp], ebx
  0008f	75 ec		 jne	 SHORT $LN39@reserve@2
$LN37@reserve@2:

; 764  : 				this->_Alval.deallocate(this->_Myfirst,
; 765  : 					this->_Myend - this->_Myfirst);

  00091	ff 36		 push	 DWORD PTR [esi]
  00093	e8 00 00 00 00	 call	 ??3@YAXPAX@Z		; operator delete
  00098	59		 pop	 ecx
$LN54@reserve@2:

; 766  : 				}
; 767  : 
; 768  : 			this->_Orphan_all();

  00099	8b ce		 mov	 ecx, esi
  0009b	ff 15 00 00 00
	00		 call	 DWORD PTR __imp_?_Orphan_all@_Container_base0@std@@QAEXXZ

; 769  : 			this->_Myend = _Ptr + _Count;
; 770  : 			this->_Mylast = _Ptr + _Size;

  000a1	6b ff 6c	 imul	 edi, 108		; 0000006cH
  000a4	8b 45 08	 mov	 eax, DWORD PTR __Count$[ebp]
  000a7	8b 4d e8	 mov	 ecx, DWORD PTR __Ptr$533504[ebp]
  000aa	6b c0 6c	 imul	 eax, 108		; 0000006cH
  000ad	03 c1		 add	 eax, ecx
  000af	03 f9		 add	 edi, ecx
  000b1	89 46 08	 mov	 DWORD PTR [esi+8], eax
  000b4	89 7e 04	 mov	 DWORD PTR [esi+4], edi

; 771  : 			this->_Myfirst = _Ptr;

  000b7	89 0e		 mov	 DWORD PTR [esi], ecx
$LN3@reserve@2:

; 772  : 			}
; 773  : 		}

  000b9	e8 00 00 00 00	 call	 __EH_epilog3
  000be	c2 04 00	 ret	 4
__catch$?reserve@?$vector@UWaveKey@ioCrecendoSkill@@V?$allocator@UWaveKey@ioCrecendoSkill@@@std@@@std@@QAEXI@Z$0:

; 755  : 			_CATCH_ALL
; 756  : 			this->_Alval.deallocate(_Ptr, _Count);

  000c1	ff 75 e8	 push	 DWORD PTR __Ptr$533504[ebp]
  000c4	e8 00 00 00 00	 call	 ??3@YAXPAX@Z		; operator delete
  000c9	59		 pop	 ecx

; 757  : 			_RERAISE;

  000ca	6a 00		 push	 0
  000cc	6a 00		 push	 0
  000ce	e8 00 00 00 00	 call	 __CxxThrowException@8
$LN63@reserve@2:
$LN61@reserve@2:
  000d3	cc		 int	 3
_TEXT	ENDS
;	COMDAT text$x
text$x	SEGMENT
__ehhandler$?reserve@?$vector@UWaveKey@ioCrecendoSkill@@V?$allocator@UWaveKey@ioCrecendoSkill@@@std@@@std@@QAEXI@Z:
  00000	8b 54 24 08	 mov	 edx, DWORD PTR [esp+8]
  00004	8d 42 0c	 lea	 eax, DWORD PTR [edx+12]
  00007	8b 4a e4	 mov	 ecx, DWORD PTR [edx-28]
  0000a	33 c8		 xor	 ecx, eax
  0000c	e8 00 00 00 00	 call	 @__security_check_cookie@4
  00011	b8 00 00 00 00	 mov	 eax, OFFSET __ehfuncinfo$?reserve@?$vector@UWaveKey@ioCrecendoSkill@@V?$allocator@UWaveKey@ioCrecendoSkill@@@std@@@std@@QAEXI@Z
  00016	e9 00 00 00 00	 jmp	 ___CxxFrameHandler3
text$x	ENDS
?reserve@?$vector@UWaveKey@ioCrecendoSkill@@V?$allocator@UWaveKey@ioCrecendoSkill@@@std@@@std@@QAEXI@Z ENDP ; std::vector<ioCrecendoSkill::WaveKey,std::allocator<ioCrecendoSkill::WaveKey> >::reserve
PUBLIC	?_Reserve@?$vector@UWaveKey@ioCrecendoSkill@@V?$allocator@UWaveKey@ioCrecendoSkill@@@std@@@std@@IAEXI@Z ; std::vector<ioCrecendoSkill::WaveKey,std::allocator<ioCrecendoSkill::WaveKey> >::_Reserve
; Function compile flags: /Ogsp
;	COMDAT ?_Reserve@?$vector@UWaveKey@ioCrecendoSkill@@V?$allocator@UWaveKey@ioCrecendoSkill@@@std@@@std@@IAEXI@Z
_TEXT	SEGMENT
__Count$ = 8						; size = 4
?_Reserve@?$vector@UWaveKey@ioCrecendoSkill@@V?$allocator@UWaveKey@ioCrecendoSkill@@@std@@@std@@IAEXI@Z PROC ; std::vector<ioCrecendoSkill::WaveKey,std::allocator<ioCrecendoSkill::WaveKey> >::_Reserve, COMDAT
; _this$ = ecx

; 1290 : 		{	// ensure room for _Count new elements, grow exponentially

  00000	55		 push	 ebp
  00001	8b ec		 mov	 ebp, esp
  00003	56		 push	 esi
  00004	8b f1		 mov	 esi, ecx

; 1291 : 		size_type _Size = size();

  00006	8b 0e		 mov	 ecx, DWORD PTR [esi]
  00008	8b 46 04	 mov	 eax, DWORD PTR [esi+4]
  0000b	2b c1		 sub	 eax, ecx
  0000d	57		 push	 edi
  0000e	99		 cdq
  0000f	6a 6c		 push	 108			; 0000006cH
  00011	5f		 pop	 edi
  00012	f7 ff		 idiv	 edi
  00014	8b f8		 mov	 edi, eax

; 1292 : 		if (max_size() - _Count < _Size)

  00016	b8 97 d0 5e 02	 mov	 eax, 39768215		; 025ed097H
  0001b	2b 45 08	 sub	 eax, DWORD PTR __Count$[ebp]
  0001e	3b c7		 cmp	 eax, edi
  00020	73 0b		 jae	 SHORT $LN4@Reserve@2

; 1293 : 			_Xlen();

  00022	68 00 00 00 00	 push	 OFFSET ??_C@_0BD@OLBABOEK@vector?$DMT?$DO?5too?5long?$AA@
  00027	ff 15 00 00 00
	00		 call	 DWORD PTR __imp_?_Xlength_error@std@@YAXPBD@Z
$LN21@Reserve@2:
$LN4@Reserve@2:

; 1294 : 		else if ((_Size += _Count) <= capacity())

  0002d	8b 46 08	 mov	 eax, DWORD PTR [esi+8]
  00030	2b c1		 sub	 eax, ecx
  00032	6a 6c		 push	 108			; 0000006cH
  00034	99		 cdq
  00035	59		 pop	 ecx
  00036	f7 f9		 idiv	 ecx
  00038	03 7d 08	 add	 edi, DWORD PTR __Count$[ebp]
  0003b	3b f8		 cmp	 edi, eax
  0003d	76 10		 jbe	 SHORT $LN1@Reserve@2

; 1295 : 			;
; 1296 : 		else
; 1297 : 			reserve(_Grow_to(_Size));

  0003f	57		 push	 edi
  00040	8b ce		 mov	 ecx, esi
  00042	e8 00 00 00 00	 call	 ?_Grow_to@?$vector@UWaveKey@ioCrecendoSkill@@V?$allocator@UWaveKey@ioCrecendoSkill@@@std@@@std@@IBEII@Z ; std::vector<ioCrecendoSkill::WaveKey,std::allocator<ioCrecendoSkill::WaveKey> >::_Grow_to
  00047	50		 push	 eax
  00048	8b ce		 mov	 ecx, esi
  0004a	e8 00 00 00 00	 call	 ?reserve@?$vector@UWaveKey@ioCrecendoSkill@@V?$allocator@UWaveKey@ioCrecendoSkill@@@std@@@std@@QAEXI@Z ; std::vector<ioCrecendoSkill::WaveKey,std::allocator<ioCrecendoSkill::WaveKey> >::reserve
$LN1@Reserve@2:
  0004f	5f		 pop	 edi
  00050	5e		 pop	 esi

; 1298 : 		}

  00051	5d		 pop	 ebp
  00052	c2 04 00	 ret	 4
$LN20@Reserve@2:
?_Reserve@?$vector@UWaveKey@ioCrecendoSkill@@V?$allocator@UWaveKey@ioCrecendoSkill@@@std@@@std@@IAEXI@Z ENDP ; std::vector<ioCrecendoSkill::WaveKey,std::allocator<ioCrecendoSkill::WaveKey> >::_Reserve
_TEXT	ENDS
PUBLIC	??_7ioCrecendoSkill@@6B@			; ioCrecendoSkill::`vftable'
PUBLIC	??0ioCrecendoSkill@@QAE@XZ			; ioCrecendoSkill::ioCrecendoSkill
PUBLIC	??_R4ioCrecendoSkill@@6B@			; ioCrecendoSkill::`RTTI Complete Object Locator'
PUBLIC	??_R0?AVioCrecendoSkill@@@8			; ioCrecendoSkill `RTTI Type Descriptor'
PUBLIC	??_R3ioCrecendoSkill@@8				; ioCrecendoSkill::`RTTI Class Hierarchy Descriptor'
PUBLIC	??_R2ioCrecendoSkill@@8				; ioCrecendoSkill::`RTTI Base Class Array'
PUBLIC	??_R1A@?0A@EA@ioCrecendoSkill@@8		; ioCrecendoSkill::`RTTI Base Class Descriptor at (0,-1,0,64)'
PUBLIC	??_R1A@?0A@EA@ioAttackSkill@@8			; ioAttackSkill::`RTTI Base Class Descriptor at (0,-1,0,64)'
PUBLIC	??_R0?AVioAttackSkill@@@8			; ioAttackSkill `RTTI Type Descriptor'
PUBLIC	??_R3ioAttackSkill@@8				; ioAttackSkill::`RTTI Class Hierarchy Descriptor'
PUBLIC	??_R2ioAttackSkill@@8				; ioAttackSkill::`RTTI Base Class Array'
PUBLIC	??_R1A@?0A@EA@ioSkill@@8			; ioSkill::`RTTI Base Class Descriptor at (0,-1,0,64)'
PUBLIC	??_R0?AVioSkill@@@8				; ioSkill `RTTI Type Descriptor'
PUBLIC	??_R3ioSkill@@8					; ioSkill::`RTTI Class Hierarchy Descriptor'
PUBLIC	??_R2ioSkill@@8					; ioSkill::`RTTI Base Class Array'
PUBLIC	?LoadProperty@ioCrecendoSkill@@UAEXAAVioINILoader@@@Z ; ioCrecendoSkill::LoadProperty
PUBLIC	?Clone@ioCrecendoSkill@@UAEPAVioSkill@@XZ	; ioCrecendoSkill::Clone
PUBLIC	?GetDefenseSkillBreakeType@ioSkill@@UBE?AW4DefenseBreakType@@XZ ; ioSkill::GetDefenseSkillBreakeType
PUBLIC	?GetSkillEndNextJumpAmt@ioSkill@@UBEMXZ		; ioSkill::GetSkillEndNextJumpAmt
PUBLIC	?GetSkillEndNextLandRate@ioSkill@@UBEMXZ	; ioSkill::GetSkillEndNextLandRate
PUBLIC	?GetSkillEndNextJumpMustEnable@ioSkill@@UAE?AW4SkillEndJumpType@@XZ ; ioSkill::GetSkillEndNextJumpMustEnable
PUBLIC	?EnableChangeGrapplingTargetPos@ioSkill@@UBE_NXZ ; ioSkill::EnableChangeGrapplingTargetPos
PUBLIC	?IsInvisibleBottomCircle@ioSkill@@UAE_NPAVioBaseChar@@@Z ; ioSkill::IsInvisibleBottomCircle
PUBLIC	?IsCanJumpingSkill@ioSkill@@UBE_NXZ		; ioSkill::IsCanJumpingSkill
PUBLIC	?IsCanJumpingSkillOnBlowWound@ioSkill@@UBE_NXZ	; ioSkill::IsCanJumpingSkillOnBlowWound
PUBLIC	?IsCanDownSkill@ioSkill@@UBE_NXZ		; ioSkill::IsCanDownSkill
PUBLIC	?IsCanBlowWoundSkill@ioSkill@@UBE_NXZ		; ioSkill::IsCanBlowWoundSkill
PUBLIC	?IsCanWoundSkill@ioSkill@@UBE_NXZ		; ioSkill::IsCanWoundSkill
PUBLIC	?IsUseActiveCnt@ioSkill@@UBE_NXZ		; ioSkill::IsUseActiveCnt
PUBLIC	?GetMaxActiveCnt@ioSkill@@UBEHPAVioBaseChar@@@Z	; ioSkill::GetMaxActiveCnt
PUBLIC	?GetCurActiveCnt@ioSkill@@UBEHPAVioBaseChar@@@Z	; ioSkill::GetCurActiveCnt
EXTRN	??1ioAttackSkill@@UAE@XZ:PROC			; ioAttackSkill::~ioAttackSkill
EXTRN	??0ioAttackSkill@@QAE@XZ:PROC			; ioAttackSkill::ioAttackSkill
EXTRN	?GetTypeID@ioAttackSkill@@UBEHXZ:PROC		; ioAttackSkill::GetTypeID
EXTRN	?IsCanSwitchSkill@ioSkill@@UBE_NXZ:PROC		; ioSkill::IsCanSwitchSkill
EXTRN	?IsCanSemiSwitchSkill@ioSkill@@UBE_NXZ:PROC	; ioSkill::IsCanSemiSwitchSkill
EXTRN	?IsCanCancelBySkill@ioSkill@@UBE_NPAVioBaseChar@@AAH@Z:PROC ; ioSkill::IsCanCancelBySkill
EXTRN	?IsCanUseZeroHP@ioSkill@@UBE_NPAVioBaseChar@@@Z:PROC ; ioSkill::IsCanUseZeroHP
EXTRN	?IsCanUseSkillWithCrown@ioSkill@@UAE_NPAVioBaseChar@@@Z:PROC ; ioSkill::IsCanUseSkillWithCrown
EXTRN	?IsCanUseBoss@ioSkill@@UBE_NPAVioBaseChar@@@Z:PROC ; ioSkill::IsCanUseBoss
EXTRN	?IsCanUseFootball@ioSkill@@UBE_NXZ:PROC		; ioSkill::IsCanUseFootball
EXTRN	?IsCanUseGangSiMode@ioSkill@@UBE_NXZ:PROC	; ioSkill::IsCanUseGangSiMode
EXTRN	?IsCanUseByWeaponType@ioSkill@@UBE_NPAVioBaseChar@@@Z:PROC ; ioSkill::IsCanUseByWeaponType
EXTRN	?IsCanUseThunderBirdHold@ioSkill@@UBE_NPAVioBaseChar@@@Z:PROC ; ioSkill::IsCanUseThunderBirdHold
EXTRN	?IsCanUseLimitHP@ioSkill@@UBE_NPAVioBaseChar@@@Z:PROC ; ioSkill::IsCanUseLimitHP
EXTRN	?IsCanUseSkill@ioAttackSkill@@UAE_NPAVioBaseChar@@_N@Z:PROC ; ioAttackSkill::IsCanUseSkill
EXTRN	?IsOnOffEnable@ioSkill@@UAE_NXZ:PROC		; ioSkill::IsOnOffEnable
EXTRN	?IsCanDefenseStateSkill@ioSkill@@UAE_NXZ:PROC	; ioSkill::IsCanDefenseStateSkill
EXTRN	?SetDefenseStateSkill@ioSkill@@UAEXPAVioBaseChar@@@Z:PROC ; ioSkill::SetDefenseStateSkill
EXTRN	?HasBuff@ioSkill@@UBE_NH@Z:PROC			; ioSkill::HasBuff
EXTRN	?GetBuffType@ioSkill@@UAEHH@Z:PROC		; ioSkill::GetBuffType
EXTRN	?IsEnableReserve@ioSkill@@UBE_NXZ:PROC		; ioSkill::IsEnableReserve
EXTRN	?IsCharSkipState@ioSkill@@UBE?AW4SkillCharColType@@XZ:PROC ; ioSkill::IsCharSkipState
EXTRN	?IsEntityCollisionSkipState@ioSkill@@UBE_NXZ:PROC ; ioSkill::IsEntityCollisionSkipState
EXTRN	?IsEndState@ioSkill@@UBE_NXZ:PROC		; ioSkill::IsEndState
EXTRN	?IsAttackEndState@ioAttackSkill@@UBE_NXZ:PROC	; ioAttackSkill::IsAttackEndState
EXTRN	?IsJumpState@ioSkill@@UBE_NXZ:PROC		; ioSkill::IsJumpState
EXTRN	?IsDownState@ioSkill@@UBE_NXZ:PROC		; ioSkill::IsDownState
EXTRN	?IsNoDropState@ioSkill@@UBE_NXZ:PROC		; ioSkill::IsNoDropState
EXTRN	?IsCanSendControl@ioSkill@@UBE_NXZ:PROC		; ioSkill::IsCanSendControl
EXTRN	?IsSkipState@ioSkill@@UBE_NXZ:PROC		; ioSkill::IsSkipState
EXTRN	?GetSkillMoveRate@ioSkill@@UBEMXZ:PROC		; ioSkill::GetSkillMoveRate
EXTRN	?SetSkillGrapplingState@ioSkill@@UAE_NPAVioBaseChar@@ABVioHashString@@@Z:PROC ; ioSkill::SetSkillGrapplingState
EXTRN	?GetGrapplingTargetPos@ioSkill@@UAE?AUD3DXVECTOR3@@PAVioBaseChar@@0@Z:PROC ; ioSkill::GetGrapplingTargetPos
EXTRN	?GetGrapplingTargetPos@ioSkill@@UAE?AUD3DXVECTOR3@@PAVioBaseChar@@@Z:PROC ; ioSkill::GetGrapplingTargetPos
EXTRN	?GetSkillWoundGrapplingInfo@ioSkill@@UAE?AUGrapplingSkillWoundedInfo@@XZ:PROC ; ioSkill::GetSkillWoundGrapplingInfo
EXTRN	?SetCreateWeaponDependency@ioSkill@@UAEXPAVioBaseChar@@PAVioPlayStage@@@Z:PROC ; ioSkill::SetCreateWeaponDependency
EXTRN	?SetNextSkillState@ioSkill@@UAEXPAVioBaseChar@@PAVioWeapon@@@Z:PROC ; ioSkill::SetNextSkillState
EXTRN	?OnSkillEndByWounded@ioSkill@@UAEXPAVioBaseChar@@@Z:PROC ; ioSkill::OnSkillEndByWounded
EXTRN	?OnProcessNotUseSkill@ioSkill@@UAEXPAVioBaseChar@@PAVioPlayStage@@@Z:PROC ; ioSkill::OnProcessNotUseSkill
EXTRN	?OnSkillItemRelease@ioSkill@@UAEXPAVioBaseChar@@@Z:PROC ; ioSkill::OnSkillItemRelease
EXTRN	?ApplyEquipSlotSkillExtraInfo@ioSkill@@UAEXPAVioBaseChar@@PAVioPlayStage@@AAVSP2Packet@@@Z:PROC ; ioSkill::ApplyEquipSlotSkillExtraInfo
EXTRN	?ApplyExtraPassiveSkillInfo@ioSkill@@UAEXPAVioBaseChar@@PAVioPlayStage@@AAVSP2Packet@@@Z:PROC ; ioSkill::ApplyExtraPassiveSkillInfo
EXTRN	?StartPreDelayEffect@ioAttackSkill@@UAEXPAVioBaseChar@@@Z:PROC ; ioAttackSkill::StartPreDelayEffect
EXTRN	?EndPreDelayEffect@ioAttackSkill@@UAEXPAVioBaseChar@@@Z:PROC ; ioAttackSkill::EndPreDelayEffect
EXTRN	?IsUseAutoTargetValue@ioAttackSkill@@UAE_NXZ:PROC ; ioAttackSkill::IsUseAutoTargetValue
EXTRN	?IsAutoTargetDownState@ioSkill@@UAE_NXZ:PROC	; ioSkill::IsAutoTargetDownState
EXTRN	?CheckUseBuff@ioSkill@@UAE_NPAVioBaseChar@@@Z:PROC ; ioSkill::CheckUseBuff
EXTRN	?CheckUseActiveCount@ioSkill@@UAE_NXZ:PROC	; ioSkill::CheckUseActiveCount
EXTRN	?CheckAniRotate@ioSkill@@UAEXPAVioBaseChar@@@Z:PROC ; ioSkill::CheckAniRotate
EXTRN	?IsEnableDashCheck@ioSkill@@UAE_NPAVioBaseChar@@@Z:PROC ; ioSkill::IsEnableDashCheck
EXTRN	?IsEnableMultiActive@ioSkill@@UAE_NPAVioBaseChar@@@Z:PROC ; ioSkill::IsEnableMultiActive
EXTRN	?GetAutoTargetValue@ioSkill@@UAEXAAM00@Z:PROC	; ioSkill::GetAutoTargetValue
EXTRN	?GetSkillGravityRate@ioSkill@@UAEMXZ:PROC	; ioSkill::GetSkillGravityRate
EXTRN	?GetSkillMotionName@ioSkill@@UBEABVioHashString@@XZ:PROC ; ioSkill::GetSkillMotionName
EXTRN	?HasSkillMotion@ioSkill@@UBE_NXZ:PROC		; ioSkill::HasSkillMotion
EXTRN	?GetSkillMotionRate@ioSkill@@UBEMXZ:PROC	; ioSkill::GetSkillMotionRate
EXTRN	?IsPreDelayProtect@ioSkill@@UBE_NXZ:PROC	; ioSkill::IsPreDelayProtect
EXTRN	?GetPreDelayAniName@ioSkill@@UBEABVioHashString@@XZ:PROC ; ioSkill::GetPreDelayAniName
EXTRN	?GetPreDelayTime@ioSkill@@UBEKXZ:PROC		; ioSkill::GetPreDelayTime
EXTRN	?GetPreDelayOwnerEffect@ioSkill@@UBEABVioHashString@@XZ:PROC ; ioSkill::GetPreDelayOwnerEffect
EXTRN	?GetPreDelayOtherEffect@ioSkill@@UBEABVioHashString@@XZ:PROC ; ioSkill::GetPreDelayOtherEffect
EXTRN	?SetCancelSkill@ioSkill@@UAEXPAVioBaseChar@@@Z:PROC ; ioSkill::SetCancelSkill
EXTRN	?ClearAirJump@ioSkill@@MAEXXZ:PROC		; ioSkill::ClearAirJump
EXTRN	?SetAirJump@ioSkill@@MAEXPAVioBaseChar@@HM@Z:PROC ; ioSkill::SetAirJump
EXTRN	?CheckAirJump@ioSkill@@MAEXPAVioBaseChar@@@Z:PROC ; ioSkill::CheckAirJump
EXTRN	?UseActiveCount@ioSkill@@UAE_NPAVioBaseChar@@@Z:PROC ; ioSkill::UseActiveCount
EXTRN	?GetMaxActiveCount@ioSkill@@UAEHPAVioBaseChar@@@Z:PROC ; ioSkill::GetMaxActiveCount
EXTRN	?GetCurActiveCount@ioSkill@@UAEHPAVioBaseChar@@@Z:PROC ; ioSkill::GetCurActiveCount
EXTRN	?HideHPGauge@ioSkill@@UAE_NXZ:PROC		; ioSkill::HideHPGauge
EXTRN	?SetInfoByApplyWeapon@ioSkill@@UAEXPAVioBaseChar@@0K_N@Z:PROC ; ioSkill::SetInfoByApplyWeapon
EXTRN	?SetCollisionByApplySkill@ioSkill@@UAEXXZ:PROC	; ioSkill::SetCollisionByApplySkill
EXTRN	?SetChargingRateForWeapon@ioSkill@@UAEXPAVioWeapon@@@Z:PROC ; ioSkill::SetChargingRateForWeapon
EXTRN	?CheckExceptionCamera@ioSkill@@UAE_NXZ:PROC	; ioSkill::CheckExceptionCamera
EXTRN	?GetExceptionCameraPos@ioSkill@@UAE?AUD3DXVECTOR3@@PAVioBaseChar@@@Z:PROC ; ioSkill::GetExceptionCameraPos
EXTRN	?IsFixedExceptionCamera@ioSkill@@UAE_NXZ:PROC	; ioSkill::IsFixedExceptionCamera
EXTRN	??_EioCrecendoSkill@@UAEPAXI@Z:PROC		; ioCrecendoSkill::`vector deleting destructor'
EXTRN	?StartPreDelayAnimation@ioAttackSkill@@MAE_NPAVioBaseChar@@@Z:PROC ; ioAttackSkill::StartPreDelayAnimation
EXTRN	?AttackSkillFire@ioAttackSkill@@MAEXPAVioBaseChar@@@Z:PROC ; ioAttackSkill::AttackSkillFire
EXTRN	?GetAttackTimeRate@ioAttackSkill@@MBEMXZ:PROC	; ioAttackSkill::GetAttackTimeRate
EXTRN	?GetAttackEndTimeRate@ioAttackSkill@@MBEMXZ:PROC ; ioAttackSkill::GetAttackEndTimeRate
EXTRN	?LoadNormalAttribute@ioAttackSkill@@MAEXAAVioINILoader@@@Z:PROC ; ioAttackSkill::LoadNormalAttribute
EXTRN	?LoadDownAttribute@ioAttackSkill@@MAEXAAVioINILoader@@@Z:PROC ; ioAttackSkill::LoadDownAttribute
EXTRN	?LoadJumpAttribute@ioAttackSkill@@MAEXAAVioINILoader@@@Z:PROC ; ioAttackSkill::LoadJumpAttribute
EXTRN	?GetAttribute@ioAttackSkill@@UAEAAUAttackAttribute@@XZ:PROC ; ioAttackSkill::GetAttribute
EXTRN	?GetAttributeConst@ioAttackSkill@@UBEABUAttackAttribute@@XZ:PROC ; ioAttackSkill::GetAttributeConst
EXTRN	?IsCanStateEscape@ioAttackSkill@@UBE_NXZ:PROC	; ioAttackSkill::IsCanStateEscape
EXTRN	?IsCanStateEscapeOnStand@ioAttackSkill@@UBE_NPAVioBaseChar@@@Z:PROC ; ioAttackSkill::IsCanStateEscapeOnStand
EXTRN	?IsCanStateEscapeOnAir@ioAttackSkill@@UBE_NPAVioBaseChar@@@Z:PROC ; ioAttackSkill::IsCanStateEscapeOnAir
EXTRN	?IsCanStateEscapeOnDown@ioAttackSkill@@UBE_NPAVioBaseChar@@@Z:PROC ; ioAttackSkill::IsCanStateEscapeOnDown
;	COMDAT ??_R2ioSkill@@8
; File c:\program files (x86)\microsoft visual studio 10.0\vc\include\xmemory
rdata$r	SEGMENT
??_R2ioSkill@@8 DD FLAT:??_R1A@?0A@EA@ioSkill@@8	; ioSkill::`RTTI Base Class Array'
rdata$r	ENDS
;	COMDAT ??_R3ioSkill@@8
rdata$r	SEGMENT
??_R3ioSkill@@8 DD 00H					; ioSkill::`RTTI Class Hierarchy Descriptor'
	DD	00H
	DD	01H
	DD	FLAT:??_R2ioSkill@@8
rdata$r	ENDS
;	COMDAT ??_R0?AVioSkill@@@8
_DATA	SEGMENT
??_R0?AVioSkill@@@8 DD FLAT:??_7type_info@@6B@		; ioSkill `RTTI Type Descriptor'
	DD	00H
	DB	'.?AVioSkill@@', 00H
_DATA	ENDS
;	COMDAT ??_R1A@?0A@EA@ioSkill@@8
rdata$r	SEGMENT
??_R1A@?0A@EA@ioSkill@@8 DD FLAT:??_R0?AVioSkill@@@8	; ioSkill::`RTTI Base Class Descriptor at (0,-1,0,64)'
	DD	00H
	DD	00H
	DD	0ffffffffH
	DD	00H
	DD	040H
	DD	FLAT:??_R3ioSkill@@8
rdata$r	ENDS
;	COMDAT ??_R2ioAttackSkill@@8
rdata$r	SEGMENT
??_R2ioAttackSkill@@8 DD FLAT:??_R1A@?0A@EA@ioAttackSkill@@8 ; ioAttackSkill::`RTTI Base Class Array'
	DD	FLAT:??_R1A@?0A@EA@ioSkill@@8
rdata$r	ENDS
;	COMDAT ??_R3ioAttackSkill@@8
rdata$r	SEGMENT
??_R3ioAttackSkill@@8 DD 00H				; ioAttackSkill::`RTTI Class Hierarchy Descriptor'
	DD	00H
	DD	02H
	DD	FLAT:??_R2ioAttackSkill@@8
rdata$r	ENDS
;	COMDAT ??_R0?AVioAttackSkill@@@8
_DATA	SEGMENT
??_R0?AVioAttackSkill@@@8 DD FLAT:??_7type_info@@6B@	; ioAttackSkill `RTTI Type Descriptor'
	DD	00H
	DB	'.?AVioAttackSkill@@', 00H
_DATA	ENDS
;	COMDAT ??_R1A@?0A@EA@ioAttackSkill@@8
rdata$r	SEGMENT
??_R1A@?0A@EA@ioAttackSkill@@8 DD FLAT:??_R0?AVioAttackSkill@@@8 ; ioAttackSkill::`RTTI Base Class Descriptor at (0,-1,0,64)'
	DD	01H
	DD	00H
	DD	0ffffffffH
	DD	00H
	DD	040H
	DD	FLAT:??_R3ioAttackSkill@@8
rdata$r	ENDS
;	COMDAT ??_R1A@?0A@EA@ioCrecendoSkill@@8
rdata$r	SEGMENT
??_R1A@?0A@EA@ioCrecendoSkill@@8 DD FLAT:??_R0?AVioCrecendoSkill@@@8 ; ioCrecendoSkill::`RTTI Base Class Descriptor at (0,-1,0,64)'
	DD	02H
	DD	00H
	DD	0ffffffffH
	DD	00H
	DD	040H
	DD	FLAT:??_R3ioCrecendoSkill@@8
rdata$r	ENDS
;	COMDAT ??_R2ioCrecendoSkill@@8
rdata$r	SEGMENT
??_R2ioCrecendoSkill@@8 DD FLAT:??_R1A@?0A@EA@ioCrecendoSkill@@8 ; ioCrecendoSkill::`RTTI Base Class Array'
	DD	FLAT:??_R1A@?0A@EA@ioAttackSkill@@8
	DD	FLAT:??_R1A@?0A@EA@ioSkill@@8
rdata$r	ENDS
;	COMDAT ??_R3ioCrecendoSkill@@8
rdata$r	SEGMENT
??_R3ioCrecendoSkill@@8 DD 00H				; ioCrecendoSkill::`RTTI Class Hierarchy Descriptor'
	DD	00H
	DD	03H
	DD	FLAT:??_R2ioCrecendoSkill@@8
rdata$r	ENDS
;	COMDAT ??_R0?AVioCrecendoSkill@@@8
_DATA	SEGMENT
??_R0?AVioCrecendoSkill@@@8 DD FLAT:??_7type_info@@6B@	; ioCrecendoSkill `RTTI Type Descriptor'
	DD	00H
	DB	'.?AVioCrecendoSkill@@', 00H
_DATA	ENDS
;	COMDAT ??_R4ioCrecendoSkill@@6B@
rdata$r	SEGMENT
??_R4ioCrecendoSkill@@6B@ DD 00H			; ioCrecendoSkill::`RTTI Complete Object Locator'
	DD	00H
	DD	00H
	DD	FLAT:??_R0?AVioCrecendoSkill@@@8
	DD	FLAT:??_R3ioCrecendoSkill@@8
rdata$r	ENDS
;	COMDAT ??_7ioCrecendoSkill@@6B@
CONST	SEGMENT
??_7ioCrecendoSkill@@6B@ DD FLAT:??_R4ioCrecendoSkill@@6B@ ; ioCrecendoSkill::`vftable'
	DD	FLAT:?LoadProperty@ioCrecendoSkill@@UAEXAAVioINILoader@@@Z
	DD	FLAT:?Clone@ioCrecendoSkill@@UAEPAVioSkill@@XZ
	DD	FLAT:?GetTypeID@ioAttackSkill@@UBEHXZ
	DD	FLAT:?IsProtected@ioCrecendoSkill@@UBE_NH@Z
	DD	FLAT:?IsCanSwitchSkill@ioSkill@@UBE_NXZ
	DD	FLAT:?IsCanSemiSwitchSkill@ioSkill@@UBE_NXZ
	DD	FLAT:?IsCanCancelBySkill@ioSkill@@UBE_NPAVioBaseChar@@AAH@Z
	DD	FLAT:?IsCanUseZeroHP@ioSkill@@UBE_NPAVioBaseChar@@@Z
	DD	FLAT:?IsCanUseSkillWithCrown@ioSkill@@UAE_NPAVioBaseChar@@@Z
	DD	FLAT:?IsCanUseBoss@ioSkill@@UBE_NPAVioBaseChar@@@Z
	DD	FLAT:?IsCanUseFootball@ioSkill@@UBE_NXZ
	DD	FLAT:?IsCanUseGangSiMode@ioSkill@@UBE_NXZ
	DD	FLAT:?IsCanUseByWeaponType@ioSkill@@UBE_NPAVioBaseChar@@@Z
	DD	FLAT:?IsCanUseThunderBirdHold@ioSkill@@UBE_NPAVioBaseChar@@@Z
	DD	FLAT:?IsCanUseLimitHP@ioSkill@@UBE_NPAVioBaseChar@@@Z
	DD	FLAT:?IsCanUseSkill@ioAttackSkill@@UAE_NPAVioBaseChar@@_N@Z
	DD	FLAT:?IsOnOffEnable@ioSkill@@UAE_NXZ
	DD	FLAT:?IsCanDefenseStateSkill@ioSkill@@UAE_NXZ
	DD	FLAT:?SetDefenseStateSkill@ioSkill@@UAEXPAVioBaseChar@@@Z
	DD	FLAT:?GetDefenseSkillBreakeType@ioSkill@@UBE?AW4DefenseBreakType@@XZ
	DD	FLAT:?HasBuff@ioSkill@@UBE_NH@Z
	DD	FLAT:?GetBuffType@ioSkill@@UAEHH@Z
	DD	FLAT:?IsEnableReserve@ioSkill@@UBE_NXZ
	DD	FLAT:?IsSkillMotionEnd@ioCrecendoSkill@@UBE_NKPAVioBaseChar@@@Z
	DD	FLAT:?IsCharSkipState@ioSkill@@UBE?AW4SkillCharColType@@XZ
	DD	FLAT:?IsEntityCollisionSkipState@ioSkill@@UBE_NXZ
	DD	FLAT:?GetSkillEndNextJumpAmt@ioSkill@@UBEMXZ
	DD	FLAT:?GetSkillEndNextLandRate@ioSkill@@UBEMXZ
	DD	FLAT:?GetSkillEndNextJumpMustEnable@ioSkill@@UAE?AW4SkillEndJumpType@@XZ
	DD	FLAT:?IsEndState@ioSkill@@UBE_NXZ
	DD	FLAT:?IsAttackEndState@ioAttackSkill@@UBE_NXZ
	DD	FLAT:?IsJumpState@ioSkill@@UBE_NXZ
	DD	FLAT:?IsDownState@ioSkill@@UBE_NXZ
	DD	FLAT:?IsNoDropState@ioSkill@@UBE_NXZ
	DD	FLAT:?IsCanSendControl@ioSkill@@UBE_NXZ
	DD	FLAT:?IsSkipState@ioSkill@@UBE_NXZ
	DD	FLAT:?GetSkillMoveRate@ioSkill@@UBEMXZ
	DD	FLAT:?SetSkillGrapplingState@ioSkill@@UAE_NPAVioBaseChar@@ABVioHashString@@@Z
	DD	FLAT:?GetGrapplingTargetPos@ioSkill@@UAE?AUD3DXVECTOR3@@PAVioBaseChar@@0@Z
	DD	FLAT:?GetGrapplingTargetPos@ioSkill@@UAE?AUD3DXVECTOR3@@PAVioBaseChar@@@Z
	DD	FLAT:?EnableChangeGrapplingTargetPos@ioSkill@@UBE_NXZ
	DD	FLAT:?GetSkillWoundGrapplingInfo@ioSkill@@UAE?AUGrapplingSkillWoundedInfo@@XZ
	DD	FLAT:?SetCreateWeaponDependency@ioSkill@@UAEXPAVioBaseChar@@PAVioPlayStage@@@Z
	DD	FLAT:?SetNextSkillState@ioSkill@@UAEXPAVioBaseChar@@PAVioWeapon@@@Z
	DD	FLAT:?OnSkillStart@ioCrecendoSkill@@UAE_NPAVioBaseChar@@@Z
	DD	FLAT:?OnProcessState@ioCrecendoSkill@@UAEXPAVioBaseChar@@PAVioPlayStage@@@Z
	DD	FLAT:?OnSkillEndByWounded@ioSkill@@UAEXPAVioBaseChar@@@Z
	DD	FLAT:?OnSkillEnd@ioCrecendoSkill@@UAEXPAVioBaseChar@@@Z
	DD	FLAT:?OnProcessNotUseSkill@ioSkill@@UAEXPAVioBaseChar@@PAVioPlayStage@@@Z
	DD	FLAT:?OnSkillItemRelease@ioSkill@@UAEXPAVioBaseChar@@@Z
	DD	FLAT:?ApplyAttributeToWeapon@ioCrecendoSkill@@UAEXPAVioWeapon@@PAVioPlayStage@@@Z
	DD	FLAT:?ApplyExtraSkillInfo@ioCrecendoSkill@@UAEXPAVioBaseChar@@PAVioPlayStage@@AAVSP2Packet@@@Z
	DD	FLAT:?ApplyEquipSlotSkillExtraInfo@ioSkill@@UAEXPAVioBaseChar@@PAVioPlayStage@@AAVSP2Packet@@@Z
	DD	FLAT:?ApplyExtraPassiveSkillInfo@ioSkill@@UAEXPAVioBaseChar@@PAVioPlayStage@@AAVSP2Packet@@@Z
	DD	FLAT:?StartPreDelayEffect@ioAttackSkill@@UAEXPAVioBaseChar@@@Z
	DD	FLAT:?EndPreDelayEffect@ioAttackSkill@@UAEXPAVioBaseChar@@@Z
	DD	FLAT:?IsUseAutoTargetValue@ioAttackSkill@@UAE_NXZ
	DD	FLAT:?IsAutoTargetDownState@ioSkill@@UAE_NXZ
	DD	FLAT:?CheckUseBuff@ioSkill@@UAE_NPAVioBaseChar@@@Z
	DD	FLAT:?CheckUseItemMesh@ioCrecendoSkill@@UAE_NXZ
	DD	FLAT:?CheckUseActiveCount@ioSkill@@UAE_NXZ
	DD	FLAT:?CheckAniRotate@ioSkill@@UAEXPAVioBaseChar@@@Z
	DD	FLAT:?IsEnableDashCheck@ioSkill@@UAE_NPAVioBaseChar@@@Z
	DD	FLAT:?IsEnableMultiActive@ioSkill@@UAE_NPAVioBaseChar@@@Z
	DD	FLAT:?IsInvisibleBottomCircle@ioSkill@@UAE_NPAVioBaseChar@@@Z
	DD	FLAT:?GetAutoTargetValue@ioSkill@@UAEXAAM00@Z
	DD	FLAT:?IsCanJumpingSkill@ioSkill@@UBE_NXZ
	DD	FLAT:?IsCanJumpingSkillOnBlowWound@ioSkill@@UBE_NXZ
	DD	FLAT:?IsCanDownSkill@ioSkill@@UBE_NXZ
	DD	FLAT:?IsCanBlowWoundSkill@ioSkill@@UBE_NXZ
	DD	FLAT:?IsCanWoundSkill@ioSkill@@UBE_NXZ
	DD	FLAT:?GetSkillGravityRate@ioSkill@@UAEMXZ
	DD	FLAT:?GetSkillMotionName@ioSkill@@UBEABVioHashString@@XZ
	DD	FLAT:?HasSkillMotion@ioSkill@@UBE_NXZ
	DD	FLAT:?GetSkillMotionRate@ioSkill@@UBEMXZ
	DD	FLAT:?IsPreDelayProtect@ioSkill@@UBE_NXZ
	DD	FLAT:?GetPreDelayAniName@ioSkill@@UBEABVioHashString@@XZ
	DD	FLAT:?GetPreDelayTime@ioSkill@@UBEKXZ
	DD	FLAT:?GetPreDelayOwnerEffect@ioSkill@@UBEABVioHashString@@XZ
	DD	FLAT:?GetPreDelayOtherEffect@ioSkill@@UBEABVioHashString@@XZ
	DD	FLAT:?SetCancelSkill@ioSkill@@UAEXPAVioBaseChar@@@Z
	DD	FLAT:?ClearAirJump@ioSkill@@MAEXXZ
	DD	FLAT:?SetAirJump@ioSkill@@MAEXPAVioBaseChar@@HM@Z
	DD	FLAT:?CheckAirJump@ioSkill@@MAEXPAVioBaseChar@@@Z
	DD	FLAT:?UseActiveCount@ioSkill@@UAE_NPAVioBaseChar@@@Z
	DD	FLAT:?GetMaxActiveCount@ioSkill@@UAEHPAVioBaseChar@@@Z
	DD	FLAT:?GetCurActiveCount@ioSkill@@UAEHPAVioBaseChar@@@Z
	DD	FLAT:?HideHPGauge@ioSkill@@UAE_NXZ
	DD	FLAT:?SetInfoByApplyWeapon@ioSkill@@UAEXPAVioBaseChar@@0K_N@Z
	DD	FLAT:?SetCollisionByApplySkill@ioSkill@@UAEXXZ
	DD	FLAT:?SetChargingRateForWeapon@ioSkill@@UAEXPAVioWeapon@@@Z
	DD	FLAT:?CheckExceptionCamera@ioSkill@@UAE_NXZ
	DD	FLAT:?GetExceptionCameraPos@ioSkill@@UAE?AUD3DXVECTOR3@@PAVioBaseChar@@@Z
	DD	FLAT:?IsFixedExceptionCamera@ioSkill@@UAE_NXZ
	DD	FLAT:?IsUseActiveCnt@ioSkill@@UBE_NXZ
	DD	FLAT:?GetMaxActiveCnt@ioSkill@@UBEHPAVioBaseChar@@@Z
	DD	FLAT:?GetCurActiveCnt@ioSkill@@UBEHPAVioBaseChar@@@Z
	DD	FLAT:??_EioCrecendoSkill@@UAEPAXI@Z
	DD	FLAT:?StartPreDelayAnimation@ioAttackSkill@@MAE_NPAVioBaseChar@@@Z
	DD	FLAT:?AttackSkillFire@ioAttackSkill@@MAEXPAVioBaseChar@@@Z
	DD	FLAT:?GetAttackTimeRate@ioAttackSkill@@MBEMXZ
	DD	FLAT:?GetAttackEndTimeRate@ioAttackSkill@@MBEMXZ
	DD	FLAT:?LoadNormalAttribute@ioAttackSkill@@MAEXAAVioINILoader@@@Z
	DD	FLAT:?LoadDownAttribute@ioAttackSkill@@MAEXAAVioINILoader@@@Z
	DD	FLAT:?LoadJumpAttribute@ioAttackSkill@@MAEXAAVioINILoader@@@Z
	DD	FLAT:?GetAttribute@ioAttackSkill@@UAEAAUAttackAttribute@@XZ
	DD	FLAT:?GetAttributeConst@ioAttackSkill@@UBEABUAttackAttribute@@XZ
	DD	FLAT:?IsCanStateEscape@ioAttackSkill@@UBE_NXZ
	DD	FLAT:?IsCanStateEscapeOnStand@ioAttackSkill@@UBE_NPAVioBaseChar@@@Z
	DD	FLAT:?IsCanStateEscapeOnAir@ioAttackSkill@@UBE_NPAVioBaseChar@@@Z
	DD	FLAT:?IsCanStateEscapeOnDown@ioAttackSkill@@UBE_NPAVioBaseChar@@@Z
CONST	ENDS
;	COMDAT xdata$x
xdata$x	SEGMENT
__ehfuncinfo$??0ioCrecendoSkill@@QAE@XZ DD 019930522H
	DD	0fH
	DD	FLAT:__unwindtable$??0ioCrecendoSkill@@QAE@XZ
	DD	2 DUP(00H)
	DD	2 DUP(00H)
	DD	00H
	DD	01H
__unwindtable$??0ioCrecendoSkill@@QAE@XZ DD 0ffffffffH
	DD	FLAT:__unwindfunclet$??0ioCrecendoSkill@@QAE@XZ$0
	DD	00H
	DD	FLAT:__unwindfunclet$??0ioCrecendoSkill@@QAE@XZ$1
	DD	01H
	DD	FLAT:__unwindfunclet$??0ioCrecendoSkill@@QAE@XZ$2
	DD	02H
	DD	FLAT:__unwindfunclet$??0ioCrecendoSkill@@QAE@XZ$3
	DD	03H
	DD	FLAT:__unwindfunclet$??0ioCrecendoSkill@@QAE@XZ$4
	DD	04H
	DD	FLAT:__unwindfunclet$??0ioCrecendoSkill@@QAE@XZ$5
	DD	05H
	DD	FLAT:__unwindfunclet$??0ioCrecendoSkill@@QAE@XZ$6
	DD	06H
	DD	FLAT:__unwindfunclet$??0ioCrecendoSkill@@QAE@XZ$7
	DD	07H
	DD	FLAT:__unwindfunclet$??0ioCrecendoSkill@@QAE@XZ$8
	DD	08H
	DD	FLAT:__unwindfunclet$??0ioCrecendoSkill@@QAE@XZ$9
	DD	09H
	DD	FLAT:__unwindfunclet$??0ioCrecendoSkill@@QAE@XZ$10
	DD	0aH
	DD	FLAT:__unwindfunclet$??0ioCrecendoSkill@@QAE@XZ$11
	DD	0bH
	DD	FLAT:__unwindfunclet$??0ioCrecendoSkill@@QAE@XZ$12
	DD	0cH
	DD	FLAT:__unwindfunclet$??0ioCrecendoSkill@@QAE@XZ$13
	DD	0dH
	DD	FLAT:__unwindfunclet$??0ioCrecendoSkill@@QAE@XZ$14
; Function compile flags: /Ogsp
; File d:\lost saga for developer\youtube\tutorial\source\src\lsclient\iocrecendoskill.cpp
xdata$x	ENDS
;	COMDAT ??0ioCrecendoSkill@@QAE@XZ
_TEXT	SEGMENT
_this$ = -16						; size = 4
__$EHRec$ = -12						; size = 12
??0ioCrecendoSkill@@QAE@XZ PROC				; ioCrecendoSkill::ioCrecendoSkill, COMDAT
; _this$ = ecx

; 11   : {

  00000	6a 04		 push	 4
  00002	b8 00 00 00 00	 mov	 eax, __ehhandler$??0ioCrecendoSkill@@QAE@XZ
  00007	e8 00 00 00 00	 call	 __EH_prolog3
  0000c	8b f1		 mov	 esi, ecx
  0000e	89 75 f0	 mov	 DWORD PTR _this$[ebp], esi
  00011	e8 00 00 00 00	 call	 ??0ioAttackSkill@@QAE@XZ ; ioAttackSkill::ioAttackSkill
  00016	8b 3d 00 00 00
	00		 mov	 edi, DWORD PTR __imp_??0ioHashString@@QAE@XZ
  0001c	33 db		 xor	 ebx, ebx
  0001e	8d 8e e8 10 00
	00		 lea	 ecx, DWORD PTR [esi+4328]
  00024	89 5d fc	 mov	 DWORD PTR __$EHRec$[ebp+8], ebx
  00027	c7 06 00 00 00
	00		 mov	 DWORD PTR [esi], OFFSET ??_7ioCrecendoSkill@@6B@
  0002d	ff d7		 call	 edi
  0002f	8d 8e 10 11 00
	00		 lea	 ecx, DWORD PTR [esi+4368]
  00035	c6 45 fc 01	 mov	 BYTE PTR __$EHRec$[ebp+8], 1
  00039	e8 00 00 00 00	 call	 ??0WaveKey@ioCrecendoSkill@@QAE@XZ ; ioCrecendoSkill::WaveKey::WaveKey
  0003e	89 9e 7c 11 00
	00		 mov	 DWORD PTR [esi+4476], ebx
  00044	89 9e 80 11 00
	00		 mov	 DWORD PTR [esi+4480], ebx
  0004a	89 9e 84 11 00
	00		 mov	 DWORD PTR [esi+4484], ebx
  00050	83 8e 8c 11 00
	00 ff		 or	 DWORD PTR [esi+4492], -1
  00057	89 9e 90 11 00
	00		 mov	 DWORD PTR [esi+4496], ebx
  0005d	89 9e 94 11 00
	00		 mov	 DWORD PTR [esi+4500], ebx
  00063	89 9e 98 11 00
	00		 mov	 DWORD PTR [esi+4504], ebx
  00069	89 9e 9c 11 00
	00		 mov	 DWORD PTR [esi+4508], ebx
  0006f	8d 8e a4 11 00
	00		 lea	 ecx, DWORD PTR [esi+4516]
  00075	c6 45 fc 04	 mov	 BYTE PTR __$EHRec$[ebp+8], 4
  00079	ff d7		 call	 edi
  0007b	8d 8e b4 11 00
	00		 lea	 ecx, DWORD PTR [esi+4532]
  00081	c6 45 fc 05	 mov	 BYTE PTR __$EHRec$[ebp+8], 5
  00085	ff d7		 call	 edi
  00087	8d 8e c4 11 00
	00		 lea	 ecx, DWORD PTR [esi+4548]
  0008d	c6 45 fc 06	 mov	 BYTE PTR __$EHRec$[ebp+8], 6
  00091	ff d7		 call	 edi
  00093	8d 8e d4 11 00
	00		 lea	 ecx, DWORD PTR [esi+4564]
  00099	c6 45 fc 07	 mov	 BYTE PTR __$EHRec$[ebp+8], 7
  0009d	ff d7		 call	 edi
  0009f	8d 8e e4 11 00
	00		 lea	 ecx, DWORD PTR [esi+4580]
  000a5	c6 45 fc 08	 mov	 BYTE PTR __$EHRec$[ebp+8], 8
  000a9	ff d7		 call	 edi
  000ab	8d 8e f4 11 00
	00		 lea	 ecx, DWORD PTR [esi+4596]
  000b1	c6 45 fc 09	 mov	 BYTE PTR __$EHRec$[ebp+8], 9
  000b5	ff d7		 call	 edi
  000b7	8d 8e 04 12 00
	00		 lea	 ecx, DWORD PTR [esi+4612]
  000bd	c6 45 fc 0a	 mov	 BYTE PTR __$EHRec$[ebp+8], 10 ; 0000000aH
  000c1	ff d7		 call	 edi
  000c3	8d 8e 14 12 00
	00		 lea	 ecx, DWORD PTR [esi+4628]
  000c9	c6 45 fc 0b	 mov	 BYTE PTR __$EHRec$[ebp+8], 11 ; 0000000bH
  000cd	ff d7		 call	 edi
  000cf	8d 8e 24 12 00
	00		 lea	 ecx, DWORD PTR [esi+4644]
  000d5	c6 45 fc 0c	 mov	 BYTE PTR __$EHRec$[ebp+8], 12 ; 0000000cH
  000d9	ff d7		 call	 edi
  000db	8d 8e 34 12 00
	00		 lea	 ecx, DWORD PTR [esi+4660]
  000e1	c6 45 fc 0d	 mov	 BYTE PTR __$EHRec$[ebp+8], 13 ; 0000000dH
  000e5	ff d7		 call	 edi

; 12   : 	ClearData();

  000e7	8b ce		 mov	 ecx, esi
  000e9	c6 45 fc 0e	 mov	 BYTE PTR __$EHRec$[ebp+8], 14 ; 0000000eH
  000ed	e8 00 00 00 00	 call	 ?ClearData@ioCrecendoSkill@@IAEXXZ ; ioCrecendoSkill::ClearData

; 13   : }

  000f2	8b c6		 mov	 eax, esi
  000f4	e8 00 00 00 00	 call	 __EH_epilog3
  000f9	c3		 ret	 0
_TEXT	ENDS
;	COMDAT text$x
text$x	SEGMENT
__unwindfunclet$??0ioCrecendoSkill@@QAE@XZ$0:
  00000	8b 4d f0	 mov	 ecx, DWORD PTR _this$[ebp]
  00003	e9 00 00 00 00	 jmp	 ??1ioAttackSkill@@UAE@XZ ; ioAttackSkill::~ioAttackSkill
__unwindfunclet$??0ioCrecendoSkill@@QAE@XZ$1:
  00008	8b 4d f0	 mov	 ecx, DWORD PTR _this$[ebp]
  0000b	81 c1 e8 10 00
	00		 add	 ecx, 4328		; 000010e8H
  00011	ff 25 00 00 00
	00		 jmp	 DWORD PTR __imp_??1ioHashString@@QAE@XZ
__unwindfunclet$??0ioCrecendoSkill@@QAE@XZ$2:
  00017	8b 4d f0	 mov	 ecx, DWORD PTR _this$[ebp]
  0001a	81 c1 10 11 00
	00		 add	 ecx, 4368		; 00001110H
  00020	e9 00 00 00 00	 jmp	 ??1WaveKey@ioCrecendoSkill@@QAE@XZ
__unwindfunclet$??0ioCrecendoSkill@@QAE@XZ$3:
  00025	8b 4d f0	 mov	 ecx, DWORD PTR _this$[ebp]
  00028	81 c1 7c 11 00
	00		 add	 ecx, 4476		; 0000117cH
  0002e	e9 00 00 00 00	 jmp	 ??1?$vector@UWaveKey@ioCrecendoSkill@@V?$allocator@UWaveKey@ioCrecendoSkill@@@std@@@std@@QAE@XZ ; std::vector<ioCrecendoSkill::WaveKey,std::allocator<ioCrecendoSkill::WaveKey> >::~vector<ioCrecendoSkill::WaveKey,std::allocator<ioCrecendoSkill::WaveKey> >
__unwindfunclet$??0ioCrecendoSkill@@QAE@XZ$4:
  00033	8b 4d f0	 mov	 ecx, DWORD PTR _this$[ebp]
  00036	81 c1 94 11 00
	00		 add	 ecx, 4500		; 00001194H
  0003c	e9 00 00 00 00	 jmp	 ??1?$vector@UKeyMapEffect@ioCrecendoSkill@@V?$allocator@UKeyMapEffect@ioCrecendoSkill@@@std@@@std@@QAE@XZ ; std::vector<ioCrecendoSkill::KeyMapEffect,std::allocator<ioCrecendoSkill::KeyMapEffect> >::~vector<ioCrecendoSkill::KeyMapEffect,std::allocator<ioCrecendoSkill::KeyMapEffect> >
__unwindfunclet$??0ioCrecendoSkill@@QAE@XZ$5:
  00041	8b 4d f0	 mov	 ecx, DWORD PTR _this$[ebp]
  00044	81 c1 a4 11 00
	00		 add	 ecx, 4516		; 000011a4H
  0004a	ff 25 00 00 00
	00		 jmp	 DWORD PTR __imp_??1ioHashString@@QAE@XZ
__unwindfunclet$??0ioCrecendoSkill@@QAE@XZ$6:
  00050	8b 4d f0	 mov	 ecx, DWORD PTR _this$[ebp]
  00053	81 c1 b4 11 00
	00		 add	 ecx, 4532		; 000011b4H
  00059	ff 25 00 00 00
	00		 jmp	 DWORD PTR __imp_??1ioHashString@@QAE@XZ
__unwindfunclet$??0ioCrecendoSkill@@QAE@XZ$7:
  0005f	8b 4d f0	 mov	 ecx, DWORD PTR _this$[ebp]
  00062	81 c1 c4 11 00
	00		 add	 ecx, 4548		; 000011c4H
  00068	ff 25 00 00 00
	00		 jmp	 DWORD PTR __imp_??1ioHashString@@QAE@XZ
__unwindfunclet$??0ioCrecendoSkill@@QAE@XZ$8:
  0006e	8b 4d f0	 mov	 ecx, DWORD PTR _this$[ebp]
  00071	81 c1 d4 11 00
	00		 add	 ecx, 4564		; 000011d4H
  00077	ff 25 00 00 00
	00		 jmp	 DWORD PTR __imp_??1ioHashString@@QAE@XZ
__unwindfunclet$??0ioCrecendoSkill@@QAE@XZ$9:
  0007d	8b 4d f0	 mov	 ecx, DWORD PTR _this$[ebp]
  00080	81 c1 e4 11 00
	00		 add	 ecx, 4580		; 000011e4H
  00086	ff 25 00 00 00
	00		 jmp	 DWORD PTR __imp_??1ioHashString@@QAE@XZ
__unwindfunclet$??0ioCrecendoSkill@@QAE@XZ$10:
  0008c	8b 4d f0	 mov	 ecx, DWORD PTR _this$[ebp]
  0008f	81 c1 f4 11 00
	00		 add	 ecx, 4596		; 000011f4H
  00095	ff 25 00 00 00
	00		 jmp	 DWORD PTR __imp_??1ioHashString@@QAE@XZ
__unwindfunclet$??0ioCrecendoSkill@@QAE@XZ$11:
  0009b	8b 4d f0	 mov	 ecx, DWORD PTR _this$[ebp]
  0009e	81 c1 04 12 00
	00		 add	 ecx, 4612		; 00001204H
  000a4	ff 25 00 00 00
	00		 jmp	 DWORD PTR __imp_??1ioHashString@@QAE@XZ
__unwindfunclet$??0ioCrecendoSkill@@QAE@XZ$12:
  000aa	8b 4d f0	 mov	 ecx, DWORD PTR _this$[ebp]
  000ad	81 c1 14 12 00
	00		 add	 ecx, 4628		; 00001214H
  000b3	ff 25 00 00 00
	00		 jmp	 DWORD PTR __imp_??1ioHashString@@QAE@XZ
__unwindfunclet$??0ioCrecendoSkill@@QAE@XZ$13:
  000b9	8b 4d f0	 mov	 ecx, DWORD PTR _this$[ebp]
  000bc	81 c1 24 12 00
	00		 add	 ecx, 4644		; 00001224H
  000c2	ff 25 00 00 00
	00		 jmp	 DWORD PTR __imp_??1ioHashString@@QAE@XZ
__unwindfunclet$??0ioCrecendoSkill@@QAE@XZ$14:
  000c8	8b 4d f0	 mov	 ecx, DWORD PTR _this$[ebp]
  000cb	81 c1 34 12 00
	00		 add	 ecx, 4660		; 00001234H
  000d1	ff 25 00 00 00
	00		 jmp	 DWORD PTR __imp_??1ioHashString@@QAE@XZ
__ehhandler$??0ioCrecendoSkill@@QAE@XZ:
  000d7	8b 54 24 08	 mov	 edx, DWORD PTR [esp+8]
  000db	8d 42 0c	 lea	 eax, DWORD PTR [edx+12]
  000de	8b 4a ec	 mov	 ecx, DWORD PTR [edx-20]
  000e1	33 c8		 xor	 ecx, eax
  000e3	e8 00 00 00 00	 call	 @__security_check_cookie@4
  000e8	b8 00 00 00 00	 mov	 eax, OFFSET __ehfuncinfo$??0ioCrecendoSkill@@QAE@XZ
  000ed	e9 00 00 00 00	 jmp	 ___CxxFrameHandler3
text$x	ENDS
??0ioCrecendoSkill@@QAE@XZ ENDP				; ioCrecendoSkill::ioCrecendoSkill
; Function compile flags: /Ogsp
; File d:\lost saga for developer\youtube\tutorial\source\src\lsclient\ioskill.h
;	COMDAT ?GetDefenseSkillBreakeType@ioSkill@@UBE?AW4DefenseBreakType@@XZ
_TEXT	SEGMENT
?GetDefenseSkillBreakeType@ioSkill@@UBE?AW4DefenseBreakType@@XZ PROC ; ioSkill::GetDefenseSkillBreakeType, COMDAT
; _this$ = ecx

; 327  : 	virtual DefenseBreakType GetDefenseSkillBreakeType() const { return m_eDefenseSkillBreakType; }

  00000	8b 81 30 0e 00
	00		 mov	 eax, DWORD PTR [ecx+3632]
  00006	c3		 ret	 0
?GetDefenseSkillBreakeType@ioSkill@@UBE?AW4DefenseBreakType@@XZ ENDP ; ioSkill::GetDefenseSkillBreakeType
; Function compile flags: /Ogsp
_TEXT	ENDS
;	COMDAT ?GetSkillEndNextJumpAmt@ioSkill@@UBEMXZ
_TEXT	SEGMENT
?GetSkillEndNextJumpAmt@ioSkill@@UBEMXZ PROC		; ioSkill::GetSkillEndNextJumpAmt, COMDAT
; _this$ = ecx

; 335  : 	virtual float GetSkillEndNextJumpAmt() const { return m_fSkillEndNextJumpAmt; }

  00000	d9 81 4c 05 00
	00		 fld	 DWORD PTR [ecx+1356]
  00006	c3		 ret	 0
?GetSkillEndNextJumpAmt@ioSkill@@UBEMXZ ENDP		; ioSkill::GetSkillEndNextJumpAmt
; Function compile flags: /Ogsp
_TEXT	ENDS
;	COMDAT ?GetSkillEndNextLandRate@ioSkill@@UBEMXZ
_TEXT	SEGMENT
?GetSkillEndNextLandRate@ioSkill@@UBEMXZ PROC		; ioSkill::GetSkillEndNextLandRate, COMDAT
; _this$ = ecx

; 336  : 	virtual float GetSkillEndNextLandRate() const { return m_fSkillEndNextLandRate; }

  00000	d9 81 50 05 00
	00		 fld	 DWORD PTR [ecx+1360]
  00006	c3		 ret	 0
?GetSkillEndNextLandRate@ioSkill@@UBEMXZ ENDP		; ioSkill::GetSkillEndNextLandRate
; Function compile flags: /Ogsp
_TEXT	ENDS
;	COMDAT ?GetSkillEndNextJumpMustEnable@ioSkill@@UAE?AW4SkillEndJumpType@@XZ
_TEXT	SEGMENT
?GetSkillEndNextJumpMustEnable@ioSkill@@UAE?AW4SkillEndJumpType@@XZ PROC ; ioSkill::GetSkillEndNextJumpMustEnable, COMDAT
; _this$ = ecx

; 337  : 	virtual SkillEndJumpType GetSkillEndNextJumpMustEnable(){ return SEJT_DEFAULT; }

  00000	33 c0		 xor	 eax, eax
  00002	c3		 ret	 0
?GetSkillEndNextJumpMustEnable@ioSkill@@UAE?AW4SkillEndJumpType@@XZ ENDP ; ioSkill::GetSkillEndNextJumpMustEnable
; Function compile flags: /Ogsp
_TEXT	ENDS
;	COMDAT ?EnableChangeGrapplingTargetPos@ioSkill@@UBE_NXZ
_TEXT	SEGMENT
?EnableChangeGrapplingTargetPos@ioSkill@@UBE_NXZ PROC	; ioSkill::EnableChangeGrapplingTargetPos, COMDAT
; _this$ = ecx

; 355  : 	virtual bool EnableChangeGrapplingTargetPos() const { return m_bChangeGrapplingTargetPos; }

  00000	8a 81 40 09 00
	00		 mov	 al, BYTE PTR [ecx+2368]
  00006	c3		 ret	 0
?EnableChangeGrapplingTargetPos@ioSkill@@UBE_NXZ ENDP	; ioSkill::EnableChangeGrapplingTargetPos
; Function compile flags: /Ogsp
_TEXT	ENDS
;	COMDAT ?IsInvisibleBottomCircle@ioSkill@@UAE_NPAVioBaseChar@@@Z
_TEXT	SEGMENT
_pChar$ = 8						; size = 4
?IsInvisibleBottomCircle@ioSkill@@UAE_NPAVioBaseChar@@@Z PROC ; ioSkill::IsInvisibleBottomCircle, COMDAT
; _this$ = ecx

; 393  : 	virtual bool IsInvisibleBottomCircle( ioBaseChar *pChar ) { return false; }

  00000	32 c0		 xor	 al, al
  00002	c2 04 00	 ret	 4
?IsInvisibleBottomCircle@ioSkill@@UAE_NPAVioBaseChar@@@Z ENDP ; ioSkill::IsInvisibleBottomCircle
; Function compile flags: /Ogsp
_TEXT	ENDS
;	COMDAT ?IsUseActiveCnt@ioSkill@@UBE_NXZ
_TEXT	SEGMENT
?IsUseActiveCnt@ioSkill@@UBE_NXZ PROC			; ioSkill::IsUseActiveCnt, COMDAT
; _this$ = ecx

; 544  : 	virtual bool IsUseActiveCnt() const { return false; }

  00000	32 c0		 xor	 al, al
  00002	c3		 ret	 0
?IsUseActiveCnt@ioSkill@@UBE_NXZ ENDP			; ioSkill::IsUseActiveCnt
; Function compile flags: /Ogsp
_TEXT	ENDS
;	COMDAT ?GetMaxActiveCnt@ioSkill@@UBEHPAVioBaseChar@@@Z
_TEXT	SEGMENT
_pChar$ = 8						; size = 4
?GetMaxActiveCnt@ioSkill@@UBEHPAVioBaseChar@@@Z PROC	; ioSkill::GetMaxActiveCnt, COMDAT
; _this$ = ecx

; 545  : 	virtual int GetMaxActiveCnt( ioBaseChar *pChar ) const { return 0; }

  00000	33 c0		 xor	 eax, eax
  00002	c2 04 00	 ret	 4
?GetMaxActiveCnt@ioSkill@@UBEHPAVioBaseChar@@@Z ENDP	; ioSkill::GetMaxActiveCnt
; Function compile flags: /Ogsp
_TEXT	ENDS
;	COMDAT ?GetCurActiveCnt@ioSkill@@UBEHPAVioBaseChar@@@Z
_TEXT	SEGMENT
_pChar$ = 8						; size = 4
?GetCurActiveCnt@ioSkill@@UBEHPAVioBaseChar@@@Z PROC	; ioSkill::GetCurActiveCnt, COMDAT
; _this$ = ecx

; 546  : 	virtual int GetCurActiveCnt( ioBaseChar *pChar ) const { return 0; }

  00000	33 c0		 xor	 eax, eax
  00002	c2 04 00	 ret	 4
?GetCurActiveCnt@ioSkill@@UBEHPAVioBaseChar@@@Z ENDP	; ioSkill::GetCurActiveCnt
_TEXT	ENDS
PUBLIC	?DecryptValueToPool@?$CEncrypt@_N@@QAEXPA_N@Z	; CEncrypt<bool>::DecryptValueToPool
; Function compile flags: /Ogsp
; File d:\lost saga for developer\youtube\tutorial\source\src\lsclient\encryptvalue.h
;	COMDAT ?DecryptValueToPool@?$CEncrypt@_N@@QAEXPA_N@Z
_TEXT	SEGMENT
_value$ = 8						; size = 4
?DecryptValueToPool@?$CEncrypt@_N@@QAEXPA_N@Z PROC	; CEncrypt<bool>::DecryptValueToPool, COMDAT
; _this$ = ecx

; 219  : 	{

  00000	55		 push	 ebp
  00001	8b ec		 mov	 ebp, esp
  00003	56		 push	 esi

; 220  : 		m_RC5.DecryptByte( m_MemPool, m_TempMem, 4 );

  00004	8d 71 28	 lea	 esi, DWORD PTR [ecx+40]
  00007	6a 04		 push	 4
  00009	8d 41 1c	 lea	 eax, DWORD PTR [ecx+28]
  0000c	56		 push	 esi
  0000d	50		 push	 eax
  0000e	83 c1 0c	 add	 ecx, 12			; 0000000cH
  00011	e8 00 00 00 00	 call	 ?DecryptByte@ccddaabb@@QBEXPBDPADH@Z ; ccddaabb::DecryptByte

; 221  : 		*value = *((bool*)m_TempMem);

  00016	8a 06		 mov	 al, BYTE PTR [esi]
  00018	8b 4d 08	 mov	 ecx, DWORD PTR _value$[ebp]
  0001b	88 01		 mov	 BYTE PTR [ecx], al
  0001d	5e		 pop	 esi

; 222  : 	}

  0001e	5d		 pop	 ebp
  0001f	c2 04 00	 ret	 4
?DecryptValueToPool@?$CEncrypt@_N@@QAEXPA_N@Z ENDP	; CEncrypt<bool>::DecryptValueToPool
_TEXT	ENDS
PUBLIC	??B?$CEncrypt@_N@@QBE_NXZ			; CEncrypt<bool>::operator bool
; Function compile flags: /Ogsp
;	COMDAT ??B?$CEncrypt@_N@@QBE_NXZ
_TEXT	SEGMENT
_value$ = -1						; size = 1
??B?$CEncrypt@_N@@QBE_NXZ PROC				; CEncrypt<bool>::operator bool, COMDAT
; _this$ = ecx

; 145  : 	{

  00000	55		 push	 ebp
  00001	8b ec		 mov	 ebp, esp
  00003	51		 push	 ecx

; 146  : 		//UJ 130829, const도 똑같이 하면 된다 --start
; 147  : 		type value;
; 148  : 		CEncrypt<type>* pThis = const_cast<CEncrypt<type>*>(this);
; 149  : 		pThis->DecryptValueToPool(&value);

  00004	8d 45 ff	 lea	 eax, DWORD PTR _value$[ebp]
  00007	50		 push	 eax
  00008	e8 00 00 00 00	 call	 ?DecryptValueToPool@?$CEncrypt@_N@@QAEXPA_N@Z ; CEncrypt<bool>::DecryptValueToPool

; 150  : 		//// const에서 DecryptValueToPool 사용할 수 없으므로 아래와 같이함.
; 151  :  		//type value;
; 152  : 		//char szTempMem[MAX_ENCRYPT];
; 153  : 		//m_RC5.DecryptByte( m_MemPool, szTempMem, max(m_ValueSize, DEFAULT_ENCRYPT) );
; 154  : 		//memcpy( &value, szTempMem, m_ValueSize );
; 155  : 		//UJ --end
; 156  : 
; 157  : #ifdef _NOTUSE
; 158  : 		Debug();
; 159  : #endif
; 160  : 		return value;

  0000d	8a 45 ff	 mov	 al, BYTE PTR _value$[ebp]

; 161  : 	}

  00010	c9		 leave
  00011	c3		 ret	 0
??B?$CEncrypt@_N@@QBE_NXZ ENDP				; CEncrypt<bool>::operator bool
; Function compile flags: /Ogsp
; File d:\lost saga for developer\youtube\tutorial\source\src\lsclient\ioskill.h
_TEXT	ENDS
;	COMDAT ?IsCanJumpingSkill@ioSkill@@UBE_NXZ
_TEXT	SEGMENT
_value$545056 = -1					; size = 1
?IsCanJumpingSkill@ioSkill@@UBE_NXZ PROC		; ioSkill::IsCanJumpingSkill, COMDAT
; _this$ = ecx

; 431  : 	virtual bool IsCanJumpingSkill() const { return m_bEnableJumpingSkill; }

  00000	55		 push	 ebp
  00001	8b ec		 mov	 ebp, esp
  00003	51		 push	 ecx
  00004	8d 45 ff	 lea	 eax, DWORD PTR _value$545056[ebp]
  00007	50		 push	 eax
  00008	81 c1 9c 03 00
	00		 add	 ecx, 924		; 0000039cH
  0000e	e8 00 00 00 00	 call	 ?DecryptValueToPool@?$CEncrypt@_N@@QAEXPA_N@Z ; CEncrypt<bool>::DecryptValueToPool
  00013	8a 45 ff	 mov	 al, BYTE PTR _value$545056[ebp]
  00016	c9		 leave
  00017	c3		 ret	 0
?IsCanJumpingSkill@ioSkill@@UBE_NXZ ENDP		; ioSkill::IsCanJumpingSkill
; Function compile flags: /Ogsp
_TEXT	ENDS
;	COMDAT ?IsCanJumpingSkillOnBlowWound@ioSkill@@UBE_NXZ
_TEXT	SEGMENT
_value$545063 = -1					; size = 1
?IsCanJumpingSkillOnBlowWound@ioSkill@@UBE_NXZ PROC	; ioSkill::IsCanJumpingSkillOnBlowWound, COMDAT
; _this$ = ecx

; 432  : 	virtual bool IsCanJumpingSkillOnBlowWound() const { return m_bEnableJumpingSkillOnBlowWound; }

  00000	55		 push	 ebp
  00001	8b ec		 mov	 ebp, esp
  00003	51		 push	 ecx
  00004	8d 45 ff	 lea	 eax, DWORD PTR _value$545063[ebp]
  00007	50		 push	 eax
  00008	81 c1 cc 03 00
	00		 add	 ecx, 972		; 000003ccH
  0000e	e8 00 00 00 00	 call	 ?DecryptValueToPool@?$CEncrypt@_N@@QAEXPA_N@Z ; CEncrypt<bool>::DecryptValueToPool
  00013	8a 45 ff	 mov	 al, BYTE PTR _value$545063[ebp]
  00016	c9		 leave
  00017	c3		 ret	 0
?IsCanJumpingSkillOnBlowWound@ioSkill@@UBE_NXZ ENDP	; ioSkill::IsCanJumpingSkillOnBlowWound
; Function compile flags: /Ogsp
_TEXT	ENDS
;	COMDAT ?IsCanDownSkill@ioSkill@@UBE_NXZ
_TEXT	SEGMENT
_value$545070 = -1					; size = 1
?IsCanDownSkill@ioSkill@@UBE_NXZ PROC			; ioSkill::IsCanDownSkill, COMDAT
; _this$ = ecx

; 437  : 	virtual bool IsCanDownSkill() const { return m_bEnableDownSkill; }

  00000	55		 push	 ebp
  00001	8b ec		 mov	 ebp, esp
  00003	51		 push	 ecx
  00004	8d 45 ff	 lea	 eax, DWORD PTR _value$545070[ebp]
  00007	50		 push	 eax
  00008	81 c1 5c 04 00
	00		 add	 ecx, 1116		; 0000045cH
  0000e	e8 00 00 00 00	 call	 ?DecryptValueToPool@?$CEncrypt@_N@@QAEXPA_N@Z ; CEncrypt<bool>::DecryptValueToPool
  00013	8a 45 ff	 mov	 al, BYTE PTR _value$545070[ebp]
  00016	c9		 leave
  00017	c3		 ret	 0
?IsCanDownSkill@ioSkill@@UBE_NXZ ENDP			; ioSkill::IsCanDownSkill
; Function compile flags: /Ogsp
_TEXT	ENDS
;	COMDAT ?IsCanBlowWoundSkill@ioSkill@@UBE_NXZ
_TEXT	SEGMENT
_value$545077 = -1					; size = 1
?IsCanBlowWoundSkill@ioSkill@@UBE_NXZ PROC		; ioSkill::IsCanBlowWoundSkill, COMDAT
; _this$ = ecx

; 440  : 	virtual bool IsCanBlowWoundSkill() const { return m_bEnableBlowWoundSkill; }

  00000	55		 push	 ebp
  00001	8b ec		 mov	 ebp, esp
  00003	51		 push	 ecx
  00004	8d 45 ff	 lea	 eax, DWORD PTR _value$545077[ebp]
  00007	50		 push	 eax
  00008	81 c1 8c 04 00
	00		 add	 ecx, 1164		; 0000048cH
  0000e	e8 00 00 00 00	 call	 ?DecryptValueToPool@?$CEncrypt@_N@@QAEXPA_N@Z ; CEncrypt<bool>::DecryptValueToPool
  00013	8a 45 ff	 mov	 al, BYTE PTR _value$545077[ebp]
  00016	c9		 leave
  00017	c3		 ret	 0
?IsCanBlowWoundSkill@ioSkill@@UBE_NXZ ENDP		; ioSkill::IsCanBlowWoundSkill
; Function compile flags: /Ogsp
_TEXT	ENDS
;	COMDAT ?IsCanWoundSkill@ioSkill@@UBE_NXZ
_TEXT	SEGMENT
_value$545084 = -1					; size = 1
?IsCanWoundSkill@ioSkill@@UBE_NXZ PROC			; ioSkill::IsCanWoundSkill, COMDAT
; _this$ = ecx

; 446  : 	virtual bool IsCanWoundSkill() const { return m_bEnableWoundSkill; }

  00000	55		 push	 ebp
  00001	8b ec		 mov	 ebp, esp
  00003	51		 push	 ecx
  00004	8d 45 ff	 lea	 eax, DWORD PTR _value$545084[ebp]
  00007	50		 push	 eax
  00008	81 c1 54 05 00
	00		 add	 ecx, 1364		; 00000554H
  0000e	e8 00 00 00 00	 call	 ?DecryptValueToPool@?$CEncrypt@_N@@QAEXPA_N@Z ; CEncrypt<bool>::DecryptValueToPool
  00013	8a 45 ff	 mov	 al, BYTE PTR _value$545084[ebp]
  00016	c9		 leave
  00017	c3		 ret	 0
?IsCanWoundSkill@ioSkill@@UBE_NXZ ENDP			; ioSkill::IsCanWoundSkill
_TEXT	ENDS
PUBLIC	??0ioCrecendoSkill@@QAE@ABV0@@Z			; ioCrecendoSkill::ioCrecendoSkill
EXTRN	??0ioAttackSkill@@QAE@ABV0@@Z:PROC		; ioAttackSkill::ioAttackSkill
;	COMDAT xdata$x
; File c:\program files (x86)\microsoft visual studio 10.0\vc\include\xmemory
xdata$x	SEGMENT
__ehfuncinfo$??0ioCrecendoSkill@@QAE@ABV0@@Z DD 019930522H
	DD	0fH
	DD	FLAT:__unwindtable$??0ioCrecendoSkill@@QAE@ABV0@@Z
	DD	2 DUP(00H)
	DD	2 DUP(00H)
	DD	00H
	DD	01H
__unwindtable$??0ioCrecendoSkill@@QAE@ABV0@@Z DD 0ffffffffH
	DD	FLAT:__unwindfunclet$??0ioCrecendoSkill@@QAE@ABV0@@Z$0
	DD	00H
	DD	FLAT:__unwindfunclet$??0ioCrecendoSkill@@QAE@ABV0@@Z$1
	DD	01H
	DD	FLAT:__unwindfunclet$??0ioCrecendoSkill@@QAE@ABV0@@Z$2
	DD	02H
	DD	FLAT:__unwindfunclet$??0ioCrecendoSkill@@QAE@ABV0@@Z$3
	DD	03H
	DD	FLAT:__unwindfunclet$??0ioCrecendoSkill@@QAE@ABV0@@Z$4
	DD	04H
	DD	FLAT:__unwindfunclet$??0ioCrecendoSkill@@QAE@ABV0@@Z$5
	DD	05H
	DD	FLAT:__unwindfunclet$??0ioCrecendoSkill@@QAE@ABV0@@Z$6
	DD	06H
	DD	FLAT:__unwindfunclet$??0ioCrecendoSkill@@QAE@ABV0@@Z$7
	DD	07H
	DD	FLAT:__unwindfunclet$??0ioCrecendoSkill@@QAE@ABV0@@Z$8
	DD	08H
	DD	FLAT:__unwindfunclet$??0ioCrecendoSkill@@QAE@ABV0@@Z$9
	DD	09H
	DD	FLAT:__unwindfunclet$??0ioCrecendoSkill@@QAE@ABV0@@Z$10
	DD	0aH
	DD	FLAT:__unwindfunclet$??0ioCrecendoSkill@@QAE@ABV0@@Z$11
	DD	0bH
	DD	FLAT:__unwindfunclet$??0ioCrecendoSkill@@QAE@ABV0@@Z$12
	DD	0cH
	DD	FLAT:__unwindfunclet$??0ioCrecendoSkill@@QAE@ABV0@@Z$13
	DD	0dH
	DD	FLAT:__unwindfunclet$??0ioCrecendoSkill@@QAE@ABV0@@Z$14
; Function compile flags: /Ogsp
; File d:\lost saga for developer\youtube\tutorial\source\src\lsclient\iocrecendoskill.cpp
xdata$x	ENDS
;	COMDAT ??0ioCrecendoSkill@@QAE@ABV0@@Z
_TEXT	SEGMENT
_this$ = -16						; size = 4
__$EHRec$ = -12						; size = 12
_rhs$ = 8						; size = 4
??0ioCrecendoSkill@@QAE@ABV0@@Z PROC			; ioCrecendoSkill::ioCrecendoSkill, COMDAT
; _this$ = ecx

; 37   : {

  00000	6a 04		 push	 4
  00002	b8 00 00 00 00	 mov	 eax, __ehhandler$??0ioCrecendoSkill@@QAE@ABV0@@Z
  00007	e8 00 00 00 00	 call	 __EH_prolog3
  0000c	8b f1		 mov	 esi, ecx
  0000e	89 75 f0	 mov	 DWORD PTR _this$[ebp], esi
  00011	8b 7d 08	 mov	 edi, DWORD PTR _rhs$[ebp]
  00014	57		 push	 edi
  00015	e8 00 00 00 00	 call	 ??0ioAttackSkill@@QAE@ABV0@@Z ; ioAttackSkill::ioAttackSkill
  0001a	8b 1d 00 00 00
	00		 mov	 ebx, DWORD PTR __imp_??0ioHashString@@QAE@ABV0@@Z
  00020	83 65 fc 00	 and	 DWORD PTR __$EHRec$[ebp+8], 0
  00024	8d 87 e8 10 00
	00		 lea	 eax, DWORD PTR [edi+4328]
  0002a	50		 push	 eax
  0002b	8d 8e e8 10 00
	00		 lea	 ecx, DWORD PTR [esi+4328]
  00031	c7 06 00 00 00
	00		 mov	 DWORD PTR [esi], OFFSET ??_7ioCrecendoSkill@@6B@
  00037	ff d3		 call	 ebx
  00039	d9 87 f8 10 00
	00		 fld	 DWORD PTR [edi+4344]
  0003f	d9 9e f8 10 00
	00		 fstp	 DWORD PTR [esi+4344]
  00045	8b 87 00 11 00
	00		 mov	 eax, DWORD PTR [edi+4352]
  0004b	89 86 00 11 00
	00		 mov	 DWORD PTR [esi+4352], eax
  00051	8b 87 08 11 00
	00		 mov	 eax, DWORD PTR [edi+4360]
  00057	89 86 08 11 00
	00		 mov	 DWORD PTR [esi+4360], eax
  0005d	8d 87 10 11 00
	00		 lea	 eax, DWORD PTR [edi+4368]
  00063	50		 push	 eax
  00064	8d 8e 10 11 00
	00		 lea	 ecx, DWORD PTR [esi+4368]
  0006a	c6 45 fc 01	 mov	 BYTE PTR __$EHRec$[ebp+8], 1
  0006e	e8 00 00 00 00	 call	 ??0WaveKey@ioCrecendoSkill@@QAE@ABU01@@Z
  00073	8d 87 7c 11 00
	00		 lea	 eax, DWORD PTR [edi+4476]
  00079	50		 push	 eax
  0007a	8d 8e 7c 11 00
	00		 lea	 ecx, DWORD PTR [esi+4476]
  00080	c6 45 fc 02	 mov	 BYTE PTR __$EHRec$[ebp+8], 2
  00084	e8 00 00 00 00	 call	 ??0?$vector@UWaveKey@ioCrecendoSkill@@V?$allocator@UWaveKey@ioCrecendoSkill@@@std@@@std@@QAE@ABV01@@Z ; std::vector<ioCrecendoSkill::WaveKey,std::allocator<ioCrecendoSkill::WaveKey> >::vector<ioCrecendoSkill::WaveKey,std::allocator<ioCrecendoSkill::WaveKey> >
  00089	83 8e 8c 11 00
	00 ff		 or	 DWORD PTR [esi+4492], -1
  00090	33 c9		 xor	 ecx, ecx
  00092	89 8e 90 11 00
	00		 mov	 DWORD PTR [esi+4496], ecx
  00098	89 8e 94 11 00
	00		 mov	 DWORD PTR [esi+4500], ecx
  0009e	89 8e 98 11 00
	00		 mov	 DWORD PTR [esi+4504], ecx
  000a4	89 8e 9c 11 00
	00		 mov	 DWORD PTR [esi+4508], ecx
  000aa	8d 87 a4 11 00
	00		 lea	 eax, DWORD PTR [edi+4516]
  000b0	50		 push	 eax
  000b1	8d 8e a4 11 00
	00		 lea	 ecx, DWORD PTR [esi+4516]
  000b7	c6 45 fc 04	 mov	 BYTE PTR __$EHRec$[ebp+8], 4
  000bb	ff d3		 call	 ebx
  000bd	8d 87 b4 11 00
	00		 lea	 eax, DWORD PTR [edi+4532]
  000c3	50		 push	 eax
  000c4	8d 8e b4 11 00
	00		 lea	 ecx, DWORD PTR [esi+4532]
  000ca	c6 45 fc 05	 mov	 BYTE PTR __$EHRec$[ebp+8], 5
  000ce	ff d3		 call	 ebx
  000d0	8d 87 c4 11 00
	00		 lea	 eax, DWORD PTR [edi+4548]
  000d6	50		 push	 eax
  000d7	8d 8e c4 11 00
	00		 lea	 ecx, DWORD PTR [esi+4548]
  000dd	c6 45 fc 06	 mov	 BYTE PTR __$EHRec$[ebp+8], 6
  000e1	ff d3		 call	 ebx
  000e3	8d 87 d4 11 00
	00		 lea	 eax, DWORD PTR [edi+4564]
  000e9	50		 push	 eax
  000ea	8d 8e d4 11 00
	00		 lea	 ecx, DWORD PTR [esi+4564]
  000f0	c6 45 fc 07	 mov	 BYTE PTR __$EHRec$[ebp+8], 7
  000f4	ff d3		 call	 ebx
  000f6	8d 87 e4 11 00
	00		 lea	 eax, DWORD PTR [edi+4580]
  000fc	50		 push	 eax
  000fd	8d 8e e4 11 00
	00		 lea	 ecx, DWORD PTR [esi+4580]
  00103	c6 45 fc 08	 mov	 BYTE PTR __$EHRec$[ebp+8], 8
  00107	ff d3		 call	 ebx
  00109	8d 87 f4 11 00
	00		 lea	 eax, DWORD PTR [edi+4596]
  0010f	50		 push	 eax
  00110	8d 8e f4 11 00
	00		 lea	 ecx, DWORD PTR [esi+4596]
  00116	c6 45 fc 09	 mov	 BYTE PTR __$EHRec$[ebp+8], 9
  0011a	ff d3		 call	 ebx
  0011c	8d 87 04 12 00
	00		 lea	 eax, DWORD PTR [edi+4612]
  00122	50		 push	 eax
  00123	8d 8e 04 12 00
	00		 lea	 ecx, DWORD PTR [esi+4612]
  00129	c6 45 fc 0a	 mov	 BYTE PTR __$EHRec$[ebp+8], 10 ; 0000000aH
  0012d	ff d3		 call	 ebx
  0012f	c6 45 fc 0b	 mov	 BYTE PTR __$EHRec$[ebp+8], 11 ; 0000000bH
  00133	8d 87 14 12 00
	00		 lea	 eax, DWORD PTR [edi+4628]
  00139	50		 push	 eax
  0013a	8d 8e 14 12 00
	00		 lea	 ecx, DWORD PTR [esi+4628]
  00140	ff d3		 call	 ebx
  00142	8d 87 24 12 00
	00		 lea	 eax, DWORD PTR [edi+4644]
  00148	50		 push	 eax
  00149	8d 8e 24 12 00
	00		 lea	 ecx, DWORD PTR [esi+4644]
  0014f	c6 45 fc 0c	 mov	 BYTE PTR __$EHRec$[ebp+8], 12 ; 0000000cH
  00153	ff d3		 call	 ebx
  00155	8d 87 34 12 00
	00		 lea	 eax, DWORD PTR [edi+4660]
  0015b	50		 push	 eax
  0015c	8d 8e 34 12 00
	00		 lea	 ecx, DWORD PTR [esi+4660]
  00162	c6 45 fc 0d	 mov	 BYTE PTR __$EHRec$[ebp+8], 13 ; 0000000dH
  00166	ff d3		 call	 ebx
  00168	d9 87 44 12 00
	00		 fld	 DWORD PTR [edi+4676]
  0016e	d9 9e 44 12 00
	00		 fstp	 DWORD PTR [esi+4676]

; 38   : 	ClearData();

  00174	8b ce		 mov	 ecx, esi
  00176	d9 87 48 12 00
	00		 fld	 DWORD PTR [edi+4680]
  0017c	c6 45 fc 0e	 mov	 BYTE PTR __$EHRec$[ebp+8], 14 ; 0000000eH
  00180	d9 9e 48 12 00
	00		 fstp	 DWORD PTR [esi+4680]
  00186	d9 87 4c 12 00
	00		 fld	 DWORD PTR [edi+4684]
  0018c	d9 9e 4c 12 00
	00		 fstp	 DWORD PTR [esi+4684]
  00192	d9 87 50 12 00
	00		 fld	 DWORD PTR [edi+4688]
  00198	d9 9e 50 12 00
	00		 fstp	 DWORD PTR [esi+4688]
  0019e	e8 00 00 00 00	 call	 ?ClearData@ioCrecendoSkill@@IAEXXZ ; ioCrecendoSkill::ClearData

; 39   : }

  001a3	8b c6		 mov	 eax, esi
  001a5	e8 00 00 00 00	 call	 __EH_epilog3
  001aa	c2 04 00	 ret	 4
_TEXT	ENDS
;	COMDAT text$x
text$x	SEGMENT
__unwindfunclet$??0ioCrecendoSkill@@QAE@ABV0@@Z$0:
  00000	8b 4d f0	 mov	 ecx, DWORD PTR _this$[ebp]
  00003	e9 00 00 00 00	 jmp	 ??1ioAttackSkill@@UAE@XZ ; ioAttackSkill::~ioAttackSkill
__unwindfunclet$??0ioCrecendoSkill@@QAE@ABV0@@Z$1:
  00008	8b 4d f0	 mov	 ecx, DWORD PTR _this$[ebp]
  0000b	81 c1 e8 10 00
	00		 add	 ecx, 4328		; 000010e8H
  00011	ff 25 00 00 00
	00		 jmp	 DWORD PTR __imp_??1ioHashString@@QAE@XZ
__unwindfunclet$??0ioCrecendoSkill@@QAE@ABV0@@Z$2:
  00017	8b 4d f0	 mov	 ecx, DWORD PTR _this$[ebp]
  0001a	81 c1 10 11 00
	00		 add	 ecx, 4368		; 00001110H
  00020	e9 00 00 00 00	 jmp	 ??1WaveKey@ioCrecendoSkill@@QAE@XZ
__unwindfunclet$??0ioCrecendoSkill@@QAE@ABV0@@Z$3:
  00025	8b 4d f0	 mov	 ecx, DWORD PTR _this$[ebp]
  00028	81 c1 7c 11 00
	00		 add	 ecx, 4476		; 0000117cH
  0002e	e9 00 00 00 00	 jmp	 ??1?$vector@UWaveKey@ioCrecendoSkill@@V?$allocator@UWaveKey@ioCrecendoSkill@@@std@@@std@@QAE@XZ ; std::vector<ioCrecendoSkill::WaveKey,std::allocator<ioCrecendoSkill::WaveKey> >::~vector<ioCrecendoSkill::WaveKey,std::allocator<ioCrecendoSkill::WaveKey> >
__unwindfunclet$??0ioCrecendoSkill@@QAE@ABV0@@Z$4:
  00033	8b 4d f0	 mov	 ecx, DWORD PTR _this$[ebp]
  00036	81 c1 94 11 00
	00		 add	 ecx, 4500		; 00001194H
  0003c	e9 00 00 00 00	 jmp	 ??1?$vector@UKeyMapEffect@ioCrecendoSkill@@V?$allocator@UKeyMapEffect@ioCrecendoSkill@@@std@@@std@@QAE@XZ ; std::vector<ioCrecendoSkill::KeyMapEffect,std::allocator<ioCrecendoSkill::KeyMapEffect> >::~vector<ioCrecendoSkill::KeyMapEffect,std::allocator<ioCrecendoSkill::KeyMapEffect> >
__unwindfunclet$??0ioCrecendoSkill@@QAE@ABV0@@Z$5:
  00041	8b 4d f0	 mov	 ecx, DWORD PTR _this$[ebp]
  00044	81 c1 a4 11 00
	00		 add	 ecx, 4516		; 000011a4H
  0004a	ff 25 00 00 00
	00		 jmp	 DWORD PTR __imp_??1ioHashString@@QAE@XZ
__unwindfunclet$??0ioCrecendoSkill@@QAE@ABV0@@Z$6:
  00050	8b 4d f0	 mov	 ecx, DWORD PTR _this$[ebp]
  00053	81 c1 b4 11 00
	00		 add	 ecx, 4532		; 000011b4H
  00059	ff 25 00 00 00
	00		 jmp	 DWORD PTR __imp_??1ioHashString@@QAE@XZ
__unwindfunclet$??0ioCrecendoSkill@@QAE@ABV0@@Z$7:
  0005f	8b 4d f0	 mov	 ecx, DWORD PTR _this$[ebp]
  00062	81 c1 c4 11 00
	00		 add	 ecx, 4548		; 000011c4H
  00068	ff 25 00 00 00
	00		 jmp	 DWORD PTR __imp_??1ioHashString@@QAE@XZ
__unwindfunclet$??0ioCrecendoSkill@@QAE@ABV0@@Z$8:
  0006e	8b 4d f0	 mov	 ecx, DWORD PTR _this$[ebp]
  00071	81 c1 d4 11 00
	00		 add	 ecx, 4564		; 000011d4H
  00077	ff 25 00 00 00
	00		 jmp	 DWORD PTR __imp_??1ioHashString@@QAE@XZ
__unwindfunclet$??0ioCrecendoSkill@@QAE@ABV0@@Z$9:
  0007d	8b 4d f0	 mov	 ecx, DWORD PTR _this$[ebp]
  00080	81 c1 e4 11 00
	00		 add	 ecx, 4580		; 000011e4H
  00086	ff 25 00 00 00
	00		 jmp	 DWORD PTR __imp_??1ioHashString@@QAE@XZ
__unwindfunclet$??0ioCrecendoSkill@@QAE@ABV0@@Z$10:
  0008c	8b 4d f0	 mov	 ecx, DWORD PTR _this$[ebp]
  0008f	81 c1 f4 11 00
	00		 add	 ecx, 4596		; 000011f4H
  00095	ff 25 00 00 00
	00		 jmp	 DWORD PTR __imp_??1ioHashString@@QAE@XZ
__unwindfunclet$??0ioCrecendoSkill@@QAE@ABV0@@Z$11:
  0009b	8b 4d f0	 mov	 ecx, DWORD PTR _this$[ebp]
  0009e	81 c1 04 12 00
	00		 add	 ecx, 4612		; 00001204H
  000a4	ff 25 00 00 00
	00		 jmp	 DWORD PTR __imp_??1ioHashString@@QAE@XZ
__unwindfunclet$??0ioCrecendoSkill@@QAE@ABV0@@Z$12:
  000aa	8b 4d f0	 mov	 ecx, DWORD PTR _this$[ebp]
  000ad	81 c1 14 12 00
	00		 add	 ecx, 4628		; 00001214H
  000b3	ff 25 00 00 00
	00		 jmp	 DWORD PTR __imp_??1ioHashString@@QAE@XZ
__unwindfunclet$??0ioCrecendoSkill@@QAE@ABV0@@Z$13:
  000b9	8b 4d f0	 mov	 ecx, DWORD PTR _this$[ebp]
  000bc	81 c1 24 12 00
	00		 add	 ecx, 4644		; 00001224H
  000c2	ff 25 00 00 00
	00		 jmp	 DWORD PTR __imp_??1ioHashString@@QAE@XZ
__unwindfunclet$??0ioCrecendoSkill@@QAE@ABV0@@Z$14:
  000c8	8b 4d f0	 mov	 ecx, DWORD PTR _this$[ebp]
  000cb	81 c1 34 12 00
	00		 add	 ecx, 4660		; 00001234H
  000d1	ff 25 00 00 00
	00		 jmp	 DWORD PTR __imp_??1ioHashString@@QAE@XZ
__ehhandler$??0ioCrecendoSkill@@QAE@ABV0@@Z:
  000d7	8b 54 24 08	 mov	 edx, DWORD PTR [esp+8]
  000db	8d 42 0c	 lea	 eax, DWORD PTR [edx+12]
  000de	8b 4a ec	 mov	 ecx, DWORD PTR [edx-20]
  000e1	33 c8		 xor	 ecx, eax
  000e3	e8 00 00 00 00	 call	 @__security_check_cookie@4
  000e8	b8 00 00 00 00	 mov	 eax, OFFSET __ehfuncinfo$??0ioCrecendoSkill@@QAE@ABV0@@Z
  000ed	e9 00 00 00 00	 jmp	 ___CxxFrameHandler3
text$x	ENDS
??0ioCrecendoSkill@@QAE@ABV0@@Z ENDP			; ioCrecendoSkill::ioCrecendoSkill
PUBLIC	??1ioCrecendoSkill@@UAE@XZ			; ioCrecendoSkill::~ioCrecendoSkill
;	COMDAT xdata$x
xdata$x	SEGMENT
__ehfuncinfo$??1ioCrecendoSkill@@UAE@XZ DD 019930522H
	DD	0eH
	DD	FLAT:__unwindtable$??1ioCrecendoSkill@@UAE@XZ
	DD	2 DUP(00H)
	DD	2 DUP(00H)
	DD	00H
	DD	01H
__unwindtable$??1ioCrecendoSkill@@UAE@XZ DD 0ffffffffH
	DD	FLAT:__unwindfunclet$??1ioCrecendoSkill@@UAE@XZ$0
	DD	00H
	DD	FLAT:__unwindfunclet$??1ioCrecendoSkill@@UAE@XZ$1
	DD	01H
	DD	FLAT:__unwindfunclet$??1ioCrecendoSkill@@UAE@XZ$2
	DD	02H
	DD	FLAT:__unwindfunclet$??1ioCrecendoSkill@@UAE@XZ$3
	DD	03H
	DD	FLAT:__unwindfunclet$??1ioCrecendoSkill@@UAE@XZ$4
	DD	04H
	DD	FLAT:__unwindfunclet$??1ioCrecendoSkill@@UAE@XZ$5
	DD	05H
	DD	FLAT:__unwindfunclet$??1ioCrecendoSkill@@UAE@XZ$6
	DD	06H
	DD	FLAT:__unwindfunclet$??1ioCrecendoSkill@@UAE@XZ$7
	DD	07H
	DD	FLAT:__unwindfunclet$??1ioCrecendoSkill@@UAE@XZ$8
	DD	08H
	DD	FLAT:__unwindfunclet$??1ioCrecendoSkill@@UAE@XZ$9
	DD	09H
	DD	FLAT:__unwindfunclet$??1ioCrecendoSkill@@UAE@XZ$10
	DD	0aH
	DD	FLAT:__unwindfunclet$??1ioCrecendoSkill@@UAE@XZ$11
	DD	0bH
	DD	FLAT:__unwindfunclet$??1ioCrecendoSkill@@UAE@XZ$12
	DD	0cH
	DD	FLAT:__unwindfunclet$??1ioCrecendoSkill@@UAE@XZ$13
; Function compile flags: /Ogsp
xdata$x	ENDS
;	COMDAT ??1ioCrecendoSkill@@UAE@XZ
_TEXT	SEGMENT
_this$ = -16						; size = 4
__$EHRec$ = -12						; size = 12
??1ioCrecendoSkill@@UAE@XZ PROC				; ioCrecendoSkill::~ioCrecendoSkill, COMDAT
; _this$ = ecx

; 42   : {

  00000	6a 04		 push	 4
  00002	b8 00 00 00 00	 mov	 eax, __ehhandler$??1ioCrecendoSkill@@UAE@XZ
  00007	e8 00 00 00 00	 call	 __EH_prolog3
  0000c	8b f1		 mov	 esi, ecx
  0000e	89 75 f0	 mov	 DWORD PTR _this$[ebp], esi
  00011	c7 06 00 00 00
	00		 mov	 DWORD PTR [esi], OFFSET ??_7ioCrecendoSkill@@6B@

; 43   : }

  00017	8b 3d 00 00 00
	00		 mov	 edi, DWORD PTR __imp_??1ioHashString@@QAE@XZ
  0001d	8d 8e 34 12 00
	00		 lea	 ecx, DWORD PTR [esi+4660]
  00023	c7 45 fc 0d 00
	00 00		 mov	 DWORD PTR __$EHRec$[ebp+8], 13 ; 0000000dH
  0002a	ff d7		 call	 edi
  0002c	8d 8e 24 12 00
	00		 lea	 ecx, DWORD PTR [esi+4644]
  00032	c6 45 fc 0c	 mov	 BYTE PTR __$EHRec$[ebp+8], 12 ; 0000000cH
  00036	ff d7		 call	 edi
  00038	8d 8e 14 12 00
	00		 lea	 ecx, DWORD PTR [esi+4628]
  0003e	c6 45 fc 0b	 mov	 BYTE PTR __$EHRec$[ebp+8], 11 ; 0000000bH
  00042	ff d7		 call	 edi
  00044	8d 8e 04 12 00
	00		 lea	 ecx, DWORD PTR [esi+4612]
  0004a	c6 45 fc 0a	 mov	 BYTE PTR __$EHRec$[ebp+8], 10 ; 0000000aH
  0004e	ff d7		 call	 edi
  00050	8d 8e f4 11 00
	00		 lea	 ecx, DWORD PTR [esi+4596]
  00056	c6 45 fc 09	 mov	 BYTE PTR __$EHRec$[ebp+8], 9
  0005a	ff d7		 call	 edi
  0005c	8d 8e e4 11 00
	00		 lea	 ecx, DWORD PTR [esi+4580]
  00062	c6 45 fc 08	 mov	 BYTE PTR __$EHRec$[ebp+8], 8
  00066	ff d7		 call	 edi
  00068	8d 8e d4 11 00
	00		 lea	 ecx, DWORD PTR [esi+4564]
  0006e	c6 45 fc 07	 mov	 BYTE PTR __$EHRec$[ebp+8], 7
  00072	ff d7		 call	 edi
  00074	8d 8e c4 11 00
	00		 lea	 ecx, DWORD PTR [esi+4548]
  0007a	c6 45 fc 06	 mov	 BYTE PTR __$EHRec$[ebp+8], 6
  0007e	ff d7		 call	 edi
  00080	8d 8e b4 11 00
	00		 lea	 ecx, DWORD PTR [esi+4532]
  00086	c6 45 fc 05	 mov	 BYTE PTR __$EHRec$[ebp+8], 5
  0008a	ff d7		 call	 edi
  0008c	8d 8e a4 11 00
	00		 lea	 ecx, DWORD PTR [esi+4516]
  00092	c6 45 fc 04	 mov	 BYTE PTR __$EHRec$[ebp+8], 4
  00096	ff d7		 call	 edi
  00098	8d 8e 94 11 00
	00		 lea	 ecx, DWORD PTR [esi+4500]
  0009e	c6 45 fc 03	 mov	 BYTE PTR __$EHRec$[ebp+8], 3
  000a2	e8 00 00 00 00	 call	 ?_Tidy@?$vector@UKeyMapEffect@ioCrecendoSkill@@V?$allocator@UKeyMapEffect@ioCrecendoSkill@@@std@@@std@@IAEXXZ ; std::vector<ioCrecendoSkill::KeyMapEffect,std::allocator<ioCrecendoSkill::KeyMapEffect> >::_Tidy
  000a7	8d 8e 7c 11 00
	00		 lea	 ecx, DWORD PTR [esi+4476]
  000ad	c6 45 fc 02	 mov	 BYTE PTR __$EHRec$[ebp+8], 2
  000b1	e8 00 00 00 00	 call	 ?_Tidy@?$vector@UWaveKey@ioCrecendoSkill@@V?$allocator@UWaveKey@ioCrecendoSkill@@@std@@@std@@IAEXXZ ; std::vector<ioCrecendoSkill::WaveKey,std::allocator<ioCrecendoSkill::WaveKey> >::_Tidy
  000b6	8d 8e 20 11 00
	00		 lea	 ecx, DWORD PTR [esi+4384]
  000bc	c6 45 fc 01	 mov	 BYTE PTR __$EHRec$[ebp+8], 1
  000c0	e8 00 00 00 00	 call	 ??1AttackAttribute@@QAE@XZ
  000c5	8d 8e e8 10 00
	00		 lea	 ecx, DWORD PTR [esi+4328]
  000cb	c6 45 fc 00	 mov	 BYTE PTR __$EHRec$[ebp+8], 0
  000cf	ff d7		 call	 edi
  000d1	83 4d fc ff	 or	 DWORD PTR __$EHRec$[ebp+8], -1
  000d5	8b ce		 mov	 ecx, esi
  000d7	e8 00 00 00 00	 call	 ??1ioAttackSkill@@UAE@XZ ; ioAttackSkill::~ioAttackSkill
  000dc	e8 00 00 00 00	 call	 __EH_epilog3
  000e1	c3		 ret	 0
_TEXT	ENDS
;	COMDAT text$x
text$x	SEGMENT
__unwindfunclet$??1ioCrecendoSkill@@UAE@XZ$0:
  00000	8b 4d f0	 mov	 ecx, DWORD PTR _this$[ebp]
  00003	e9 00 00 00 00	 jmp	 ??1ioAttackSkill@@UAE@XZ ; ioAttackSkill::~ioAttackSkill
__unwindfunclet$??1ioCrecendoSkill@@UAE@XZ$1:
  00008	8b 4d f0	 mov	 ecx, DWORD PTR _this$[ebp]
  0000b	81 c1 e8 10 00
	00		 add	 ecx, 4328		; 000010e8H
  00011	ff 25 00 00 00
	00		 jmp	 DWORD PTR __imp_??1ioHashString@@QAE@XZ
__unwindfunclet$??1ioCrecendoSkill@@UAE@XZ$2:
  00017	8b 4d f0	 mov	 ecx, DWORD PTR _this$[ebp]
  0001a	81 c1 10 11 00
	00		 add	 ecx, 4368		; 00001110H
  00020	e9 00 00 00 00	 jmp	 ??1WaveKey@ioCrecendoSkill@@QAE@XZ
__unwindfunclet$??1ioCrecendoSkill@@UAE@XZ$3:
  00025	8b 4d f0	 mov	 ecx, DWORD PTR _this$[ebp]
  00028	81 c1 7c 11 00
	00		 add	 ecx, 4476		; 0000117cH
  0002e	e9 00 00 00 00	 jmp	 ??1?$vector@UWaveKey@ioCrecendoSkill@@V?$allocator@UWaveKey@ioCrecendoSkill@@@std@@@std@@QAE@XZ ; std::vector<ioCrecendoSkill::WaveKey,std::allocator<ioCrecendoSkill::WaveKey> >::~vector<ioCrecendoSkill::WaveKey,std::allocator<ioCrecendoSkill::WaveKey> >
__unwindfunclet$??1ioCrecendoSkill@@UAE@XZ$4:
  00033	8b 4d f0	 mov	 ecx, DWORD PTR _this$[ebp]
  00036	81 c1 94 11 00
	00		 add	 ecx, 4500		; 00001194H
  0003c	e9 00 00 00 00	 jmp	 ??1?$vector@UKeyMapEffect@ioCrecendoSkill@@V?$allocator@UKeyMapEffect@ioCrecendoSkill@@@std@@@std@@QAE@XZ ; std::vector<ioCrecendoSkill::KeyMapEffect,std::allocator<ioCrecendoSkill::KeyMapEffect> >::~vector<ioCrecendoSkill::KeyMapEffect,std::allocator<ioCrecendoSkill::KeyMapEffect> >
__unwindfunclet$??1ioCrecendoSkill@@UAE@XZ$5:
  00041	8b 4d f0	 mov	 ecx, DWORD PTR _this$[ebp]
  00044	81 c1 a4 11 00
	00		 add	 ecx, 4516		; 000011a4H
  0004a	ff 25 00 00 00
	00		 jmp	 DWORD PTR __imp_??1ioHashString@@QAE@XZ
__unwindfunclet$??1ioCrecendoSkill@@UAE@XZ$6:
  00050	8b 4d f0	 mov	 ecx, DWORD PTR _this$[ebp]
  00053	81 c1 b4 11 00
	00		 add	 ecx, 4532		; 000011b4H
  00059	ff 25 00 00 00
	00		 jmp	 DWORD PTR __imp_??1ioHashString@@QAE@XZ
__unwindfunclet$??1ioCrecendoSkill@@UAE@XZ$7:
  0005f	8b 4d f0	 mov	 ecx, DWORD PTR _this$[ebp]
  00062	81 c1 c4 11 00
	00		 add	 ecx, 4548		; 000011c4H
  00068	ff 25 00 00 00
	00		 jmp	 DWORD PTR __imp_??1ioHashString@@QAE@XZ
__unwindfunclet$??1ioCrecendoSkill@@UAE@XZ$8:
  0006e	8b 4d f0	 mov	 ecx, DWORD PTR _this$[ebp]
  00071	81 c1 d4 11 00
	00		 add	 ecx, 4564		; 000011d4H
  00077	ff 25 00 00 00
	00		 jmp	 DWORD PTR __imp_??1ioHashString@@QAE@XZ
__unwindfunclet$??1ioCrecendoSkill@@UAE@XZ$9:
  0007d	8b 4d f0	 mov	 ecx, DWORD PTR _this$[ebp]
  00080	81 c1 e4 11 00
	00		 add	 ecx, 4580		; 000011e4H
  00086	ff 25 00 00 00
	00		 jmp	 DWORD PTR __imp_??1ioHashString@@QAE@XZ
__unwindfunclet$??1ioCrecendoSkill@@UAE@XZ$10:
  0008c	8b 4d f0	 mov	 ecx, DWORD PTR _this$[ebp]
  0008f	81 c1 f4 11 00
	00		 add	 ecx, 4596		; 000011f4H
  00095	ff 25 00 00 00
	00		 jmp	 DWORD PTR __imp_??1ioHashString@@QAE@XZ
__unwindfunclet$??1ioCrecendoSkill@@UAE@XZ$11:
  0009b	8b 4d f0	 mov	 ecx, DWORD PTR _this$[ebp]
  0009e	81 c1 04 12 00
	00		 add	 ecx, 4612		; 00001204H
  000a4	ff 25 00 00 00
	00		 jmp	 DWORD PTR __imp_??1ioHashString@@QAE@XZ
__unwindfunclet$??1ioCrecendoSkill@@UAE@XZ$12:
  000aa	8b 4d f0	 mov	 ecx, DWORD PTR _this$[ebp]
  000ad	81 c1 14 12 00
	00		 add	 ecx, 4628		; 00001214H
  000b3	ff 25 00 00 00
	00		 jmp	 DWORD PTR __imp_??1ioHashString@@QAE@XZ
__unwindfunclet$??1ioCrecendoSkill@@UAE@XZ$13:
  000b9	8b 4d f0	 mov	 ecx, DWORD PTR _this$[ebp]
  000bc	81 c1 24 12 00
	00		 add	 ecx, 4644		; 00001224H
  000c2	ff 25 00 00 00
	00		 jmp	 DWORD PTR __imp_??1ioHashString@@QAE@XZ
__ehhandler$??1ioCrecendoSkill@@UAE@XZ:
  000c8	8b 54 24 08	 mov	 edx, DWORD PTR [esp+8]
  000cc	8d 42 0c	 lea	 eax, DWORD PTR [edx+12]
  000cf	8b 4a ec	 mov	 ecx, DWORD PTR [edx-20]
  000d2	33 c8		 xor	 ecx, eax
  000d4	e8 00 00 00 00	 call	 @__security_check_cookie@4
  000d9	b8 00 00 00 00	 mov	 eax, OFFSET __ehfuncinfo$??1ioCrecendoSkill@@UAE@XZ
  000de	e9 00 00 00 00	 jmp	 ___CxxFrameHandler3
text$x	ENDS
??1ioCrecendoSkill@@UAE@XZ ENDP				; ioCrecendoSkill::~ioCrecendoSkill
;	COMDAT xdata$x
xdata$x	SEGMENT
__unwindtable$?Clone@ioCrecendoSkill@@UAEPAVioSkill@@XZ DD 0ffffffffH
	DD	FLAT:__unwindfunclet$?Clone@ioCrecendoSkill@@UAEPAVioSkill@@XZ$0
__ehfuncinfo$?Clone@ioCrecendoSkill@@UAEPAVioSkill@@XZ DD 019930522H
	DD	01H
	DD	FLAT:__unwindtable$?Clone@ioCrecendoSkill@@UAEPAVioSkill@@XZ
	DD	2 DUP(00H)
	DD	2 DUP(00H)
	DD	00H
	DD	01H
; Function compile flags: /Ogsp
xdata$x	ENDS
;	COMDAT ?Clone@ioCrecendoSkill@@UAEPAVioSkill@@XZ
_TEXT	SEGMENT
$T545190 = -16						; size = 4
__$EHRec$ = -12						; size = 12
?Clone@ioCrecendoSkill@@UAEPAVioSkill@@XZ PROC		; ioCrecendoSkill::Clone, COMDAT
; _this$ = ecx

; 132  : {

  00000	6a 04		 push	 4
  00002	b8 00 00 00 00	 mov	 eax, __ehhandler$?Clone@ioCrecendoSkill@@UAEPAVioSkill@@XZ
  00007	e8 00 00 00 00	 call	 __EH_prolog3
  0000c	8b f1		 mov	 esi, ecx

; 133  : 	return new ioCrecendoSkill( *this );

  0000e	68 58 12 00 00	 push	 4696			; 00001258H
  00013	e8 00 00 00 00	 call	 ??2@YAPAXI@Z		; operator new
  00018	59		 pop	 ecx
  00019	8b c8		 mov	 ecx, eax
  0001b	89 4d f0	 mov	 DWORD PTR $T545190[ebp], ecx
  0001e	33 c0		 xor	 eax, eax
  00020	89 45 fc	 mov	 DWORD PTR __$EHRec$[ebp+8], eax
  00023	3b c8		 cmp	 ecx, eax
  00025	74 06		 je	 SHORT $LN3@Clone
  00027	56		 push	 esi
  00028	e8 00 00 00 00	 call	 ??0ioCrecendoSkill@@QAE@ABV0@@Z ; ioCrecendoSkill::ioCrecendoSkill
$LN3@Clone:

; 134  : }

  0002d	e8 00 00 00 00	 call	 __EH_epilog3
  00032	c3		 ret	 0
_TEXT	ENDS
;	COMDAT text$x
text$x	SEGMENT
__unwindfunclet$?Clone@ioCrecendoSkill@@UAEPAVioSkill@@XZ$0:
  00000	ff 75 f0	 push	 DWORD PTR $T545190[ebp]
  00003	e8 00 00 00 00	 call	 ??3@YAXPAX@Z		; operator delete
  00008	59		 pop	 ecx
  00009	c3		 ret	 0
__ehhandler$?Clone@ioCrecendoSkill@@UAEPAVioSkill@@XZ:
  0000a	8b 54 24 08	 mov	 edx, DWORD PTR [esp+8]
  0000e	8d 42 0c	 lea	 eax, DWORD PTR [edx+12]
  00011	8b 4a ec	 mov	 ecx, DWORD PTR [edx-20]
  00014	33 c8		 xor	 ecx, eax
  00016	e8 00 00 00 00	 call	 @__security_check_cookie@4
  0001b	b8 00 00 00 00	 mov	 eax, OFFSET __ehfuncinfo$?Clone@ioCrecendoSkill@@UAEPAVioSkill@@XZ
  00020	e9 00 00 00 00	 jmp	 ___CxxFrameHandler3
text$x	ENDS
?Clone@ioCrecendoSkill@@UAEPAVioSkill@@XZ ENDP		; ioCrecendoSkill::Clone
PUBLIC	?push_back@?$vector@UWaveKey@ioCrecendoSkill@@V?$allocator@UWaveKey@ioCrecendoSkill@@@std@@@std@@QAEXABUWaveKey@ioCrecendoSkill@@@Z ; std::vector<ioCrecendoSkill::WaveKey,std::allocator<ioCrecendoSkill::WaveKey> >::push_back
; Function compile flags: /Ogsp
; File c:\program files (x86)\microsoft visual studio 10.0\vc\include\vector
;	COMDAT ?push_back@?$vector@UWaveKey@ioCrecendoSkill@@V?$allocator@UWaveKey@ioCrecendoSkill@@@std@@@std@@QAEXABUWaveKey@ioCrecendoSkill@@@Z
_TEXT	SEGMENT
__Val$ = 8						; size = 4
?push_back@?$vector@UWaveKey@ioCrecendoSkill@@V?$allocator@UWaveKey@ioCrecendoSkill@@@std@@@std@@QAEXABUWaveKey@ioCrecendoSkill@@@Z PROC ; std::vector<ioCrecendoSkill::WaveKey,std::allocator<ioCrecendoSkill::WaveKey> >::push_back, COMDAT
; _this$ = ecx

; 976  : 		{	// insert element at end

  00000	55		 push	 ebp
  00001	8b ec		 mov	 ebp, esp
  00003	56		 push	 esi
  00004	8b f1		 mov	 esi, ecx

; 977  : 		if (_Inside(_STD addressof(_Val)))

  00006	8b 4e 04	 mov	 ecx, DWORD PTR [esi+4]
  00009	57		 push	 edi
  0000a	8b 7d 08	 mov	 edi, DWORD PTR __Val$[ebp]
  0000d	3b f9		 cmp	 edi, ecx
  0000f	73 37		 jae	 SHORT $LN4@push_back@2
  00011	8b 16		 mov	 edx, DWORD PTR [esi]
  00013	3b d7		 cmp	 edx, edi
  00015	77 31		 ja	 SHORT $LN4@push_back@2

; 978  : 			{	// push back an element
; 979  : 			size_type _Idx = _STD addressof(_Val) - this->_Myfirst;

  00017	8b c7		 mov	 eax, edi
  00019	2b c2		 sub	 eax, edx
  0001b	6a 6c		 push	 108			; 0000006cH
  0001d	99		 cdq
  0001e	5f		 pop	 edi
  0001f	f7 ff		 idiv	 edi
  00021	8b f8		 mov	 edi, eax

; 980  : 			if (this->_Mylast == this->_Myend)

  00023	3b 4e 08	 cmp	 ecx, DWORD PTR [esi+8]
  00026	75 09		 jne	 SHORT $LN3@push_back@2

; 981  : 				_Reserve(1);

  00028	6a 01		 push	 1
  0002a	8b ce		 mov	 ecx, esi
  0002c	e8 00 00 00 00	 call	 ?_Reserve@?$vector@UWaveKey@ioCrecendoSkill@@V?$allocator@UWaveKey@ioCrecendoSkill@@@std@@@std@@IAEXI@Z ; std::vector<ioCrecendoSkill::WaveKey,std::allocator<ioCrecendoSkill::WaveKey> >::_Reserve
$LN3@push_back@2:

; 982  : 			_Orphan_range(this->_Mylast, this->_Mylast);
; 983  : 			_Cons_val(this->_Alval,
; 984  : 				this->_Mylast,
; 985  : 				this->_Myfirst[_Idx]);

  00031	6b ff 6c	 imul	 edi, 108		; 0000006cH
  00034	03 3e		 add	 edi, DWORD PTR [esi]
  00036	8d 46 0c	 lea	 eax, DWORD PTR [esi+12]
  00039	57		 push	 edi
  0003a	ff 76 04	 push	 DWORD PTR [esi+4]
  0003d	50		 push	 eax
  0003e	e8 00 00 00 00	 call	 ??$_Cons_val@V?$allocator@UWaveKey@ioCrecendoSkill@@@std@@UWaveKey@ioCrecendoSkill@@AAU34@@std@@YAXAAV?$allocator@UWaveKey@ioCrecendoSkill@@@0@PAUWaveKey@ioCrecendoSkill@@AAU23@@Z ; std::_Cons_val<std::allocator<ioCrecendoSkill::WaveKey>,ioCrecendoSkill::WaveKey,ioCrecendoSkill::WaveKey &>
  00043	83 c4 0c	 add	 esp, 12			; 0000000cH

; 986  : 			++this->_Mylast;
; 987  : 			}
; 988  : 		else

  00046	eb 19		 jmp	 SHORT $LN26@push_back@2
$LN4@push_back@2:

; 989  : 			{	// push back a non-element
; 990  : 			if (this->_Mylast == this->_Myend)

  00048	3b 4e 08	 cmp	 ecx, DWORD PTR [esi+8]
  0004b	75 09		 jne	 SHORT $LN1@push_back@2

; 991  : 				_Reserve(1);

  0004d	6a 01		 push	 1
  0004f	8b ce		 mov	 ecx, esi
  00051	e8 00 00 00 00	 call	 ?_Reserve@?$vector@UWaveKey@ioCrecendoSkill@@V?$allocator@UWaveKey@ioCrecendoSkill@@@std@@@std@@IAEXI@Z ; std::vector<ioCrecendoSkill::WaveKey,std::allocator<ioCrecendoSkill::WaveKey> >::_Reserve
$LN1@push_back@2:

; 992  : 			_Orphan_range(this->_Mylast, this->_Mylast);
; 993  : 			_Cons_val(this->_Alval,
; 994  : 				this->_Mylast,
; 995  : 				_Val);

  00056	57		 push	 edi
  00057	ff 76 04	 push	 DWORD PTR [esi+4]
  0005a	e8 00 00 00 00	 call	 ??$_Construct@UWaveKey@ioCrecendoSkill@@ABU12@@std@@YAXPAUWaveKey@ioCrecendoSkill@@ABU12@@Z ; std::_Construct<ioCrecendoSkill::WaveKey,ioCrecendoSkill::WaveKey const &>
  0005f	59		 pop	 ecx
  00060	59		 pop	 ecx
$LN26@push_back@2:

; 996  : 			++this->_Mylast;

  00061	83 46 04 6c	 add	 DWORD PTR [esi+4], 108	; 0000006cH
  00065	5f		 pop	 edi
  00066	5e		 pop	 esi

; 997  : 			}
; 998  : 		}

  00067	5d		 pop	 ebp
  00068	c2 04 00	 ret	 4
?push_back@?$vector@UWaveKey@ioCrecendoSkill@@V?$allocator@UWaveKey@ioCrecendoSkill@@@std@@@std@@QAEXABUWaveKey@ioCrecendoSkill@@@Z ENDP ; std::vector<ioCrecendoSkill::WaveKey,std::allocator<ioCrecendoSkill::WaveKey> >::push_back
; Function compile flags: /Ogsp
_TEXT	ENDS
;	COMDAT ??_GioCrecendoSkill@@UAEPAXI@Z
_TEXT	SEGMENT
___flags$ = 8						; size = 4
??_GioCrecendoSkill@@UAEPAXI@Z PROC			; ioCrecendoSkill::`scalar deleting destructor', COMDAT
; _this$ = ecx
  00000	55		 push	 ebp
  00001	8b ec		 mov	 ebp, esp
  00003	56		 push	 esi
  00004	8b f1		 mov	 esi, ecx
  00006	e8 00 00 00 00	 call	 ??1ioCrecendoSkill@@UAE@XZ ; ioCrecendoSkill::~ioCrecendoSkill
  0000b	f6 45 08 01	 test	 BYTE PTR ___flags$[ebp], 1
  0000f	74 07		 je	 SHORT $LN1@scalar@4
  00011	56		 push	 esi
  00012	e8 00 00 00 00	 call	 ??3@YAXPAX@Z		; operator delete
  00017	59		 pop	 ecx
$LN1@scalar@4:
  00018	8b c6		 mov	 eax, esi
  0001a	5e		 pop	 esi
  0001b	5d		 pop	 ebp
  0001c	c2 04 00	 ret	 4
??_GioCrecendoSkill@@UAEPAXI@Z ENDP			; ioCrecendoSkill::`scalar deleting destructor'
_TEXT	ENDS
PUBLIC	??_C@_00CNPNBAHC@?$AA@				; `string'
PUBLIC	_rkLoader$GSCopy$
EXTRN	?LoadWeaponInfo@@YAXPBDAAUAttackAttribute@@AAVioINILoader@@@Z:PROC ; LoadWeaponInfo
EXTRN	?LoadForceInfo@@YAXPBDAAUAttackAttribute@@AAVioINILoader@@@Z:PROC ; LoadForceInfo
EXTRN	__imp__sprintf:PROC
EXTRN	__imp_??4ioHashString@@QAEAAV0@ABV0@@Z:PROC
EXTRN	__imp_??4ioHashString@@QAEAAV0@PBD@Z:PROC
EXTRN	?LoadProperty@ioAttackSkill@@UAEXAAVioINILoader@@@Z:PROC ; ioAttackSkill::LoadProperty
EXTRN	__EH_epilog3_GS:PROC
EXTRN	__EH_prolog3_GS:PROC
;	COMDAT ??_C@_00CNPNBAHC@?$AA@
; File d:\lost saga for developer\youtube\tutorial\source\src\lsclient\stringprotect.h
CONST	SEGMENT
??_C@_00CNPNBAHC@?$AA@ DB 00H				; `string'
CONST	ENDS
;	COMDAT xdata$x
xdata$x	SEGMENT
__unwindtable$?LoadProperty@ioCrecendoSkill@@UAEXAAVioINILoader@@@Z DD 0ffffffffH
	DD	FLAT:__unwindfunclet$?LoadProperty@ioCrecendoSkill@@UAEXAAVioINILoader@@@Z$0
__ehfuncinfo$?LoadProperty@ioCrecendoSkill@@UAEXAAVioINILoader@@@Z DD 019930522H
	DD	01H
	DD	FLAT:__unwindtable$?LoadProperty@ioCrecendoSkill@@UAEXAAVioINILoader@@@Z
	DD	2 DUP(00H)
	DD	2 DUP(00H)
	DD	00H
	DD	01H
; Function compile flags: /Ogsp
; File d:\lost saga for developer\youtube\tutorial\source\src\lsclient\iocrecendoskill.cpp
xdata$x	ENDS
;	COMDAT ?LoadProperty@ioCrecendoSkill@@UAEXAAVioINILoader@@@Z
_TEXT	SEGMENT
_WaveInfo$531437 = -1244				; size = 108
tv28792 = -1136						; size = 4
_iWave$531433 = -1136					; size = 4
tv11030 = -1132						; size = 4
_iWaveCount$ = -1132					; size = 4
tv28679 = -1128						; size = 4
_i$545445 = -1128					; size = 4
_rkLoader$GSCopy$ = -1124				; size = 4
_szBuf$ = -1120						; size = 260
__k$545970 = -860					; size = 17
__k$546762 = -836					; size = 17
__k$546137 = -812					; size = 21
__k$547838 = -784					; size = 25
__k$546900 = -752					; size = 17
___encStr$531441 = -728					; size = 17
__k$547025 = -704					; size = 21
__k$547387 = -676					; size = 17
__k$548226 = -652					; size = 34
__k$547713 = -612					; size = 27
__k$548101 = -580					; size = 27
___encStr$531595 = -548					; size = 24
___encStr$532051 = -520					; size = 24
__k$546512 = -492					; size = 24
__k$547976 = -464					; size = 23
__k$545387 = -436					; size = 23
__k$546637 = -408					; size = 23
___encStr$532378 = -380					; size = 23
__k$546387 = -352					; size = 23
__k$546262 = -324					; size = 23
__k$547150 = -296					; size = 22
___encStr$531747 = -268					; size = 22
___encStr$531899 = -240					; size = 20
___encStr$532203 = -216					; size = 20
__k$547371 = -192					; size = 20
__k$547697 = -168					; size = 20
__k$548373 = -144					; size = 19
__k$545258 = -120					; size = 18
__k$546025 = -96					; size = 16
__k$545762 = -76					; size = 16
__k$545637 = -56					; size = 16
__k$545512 = -36					; size = 14
__$EHRec$ = -12						; size = 12
_rkLoader$ = 8						; size = 4
?LoadProperty@ioCrecendoSkill@@UAEXAAVioINILoader@@@Z PROC ; ioCrecendoSkill::LoadProperty, COMDAT
; _this$ = ecx

; 46   : {

  00000	68 d0 04 00 00	 push	 1232			; 000004d0H
  00005	b8 00 00 00 00	 mov	 eax, __ehhandler$?LoadProperty@ioCrecendoSkill@@UAEXAAVioINILoader@@@Z
  0000a	e8 00 00 00 00	 call	 __EH_prolog3_GS
  0000f	8b 45 08	 mov	 eax, DWORD PTR _rkLoader$[ebp]

; 47   : 	ioAttackSkill::LoadProperty( rkLoader );

  00012	50		 push	 eax
  00013	8b f1		 mov	 esi, ecx

; 75   : 	rkLoader.LoadString_e( "last_key_failed_effect", "", szBuf, MAX_PATH );

  00015	89 85 9c fb ff
	ff		 mov	 DWORD PTR _rkLoader$GSCopy$[ebp], eax
  0001b	e8 00 00 00 00	 call	 ?LoadProperty@ioAttackSkill@@UAEXAAVioINILoader@@@Z ; ioAttackSkill::LoadProperty
  00020	6a 04		 push	 4
  00022	c7 45 88 9e 87
	82 86		 mov	 DWORD PTR __k$545258[ebp], -2038265954 ; 8682879eH
  00029	c7 45 8c 81 b3
	87 85		 mov	 DWORD PTR __k$545258[ebp+4], -2054704255 ; 8587b381H
  00030	c7 45 90 82 9c
	b4 87		 mov	 DWORD PTR __k$545258[ebp+8], -2018206590 ; 87b49c82H
  00037	c7 45 94 82 98
	82 85		 mov	 DWORD PTR __k$545258[ebp+12], -2055038846 ; 85829882H
  0003e	8d 45 88	 lea	 eax, DWORD PTR __k$545258[ebp]
  00041	66 c7 45 98 83
	00		 mov	 WORD PTR __k$545258[ebp+16], 131 ; 00000083H
  00047	59		 pop	 ecx
$LL804@LoadProper:

; 48   : 
; 49   : 	char szBuf[MAX_PATH];
; 50   : 	rkLoader.LoadString_e( "skill_loop_motion", "", szBuf, MAX_PATH );

  00048	81 30 ed ec eb
	ea		 xor	 DWORD PTR [eax], -353637139 ; eaebecedH
  0004e	83 c0 04	 add	 eax, 4
  00051	49		 dec	 ecx
  00052	75 f4		 jne	 SHORT $LL804@LoadProper
  00054	8b 8d 9c fb ff
	ff		 mov	 ecx, DWORD PTR _rkLoader$GSCopy$[ebp]
  0005a	8b 3d 00 00 00
	00		 mov	 edi, DWORD PTR __imp_?LoadStringA@ioINILoader@@QAEXPBD0PADH@Z
  00060	80 75 98 ed	 xor	 BYTE PTR __k$545258[ebp+16], -19 ; ffffffedH
  00064	68 04 01 00 00	 push	 260			; 00000104H
  00069	8d 85 a0 fb ff
	ff		 lea	 eax, DWORD PTR _szBuf$[ebp]
  0006f	50		 push	 eax
  00070	68 00 00 00 00	 push	 OFFSET ??_C@_00CNPNBAHC@?$AA@
  00075	8d 45 88	 lea	 eax, DWORD PTR __k$545258[ebp]
  00078	50		 push	 eax
  00079	ff d7		 call	 edi

; 51   : 	m_SkillLoopMotion = szBuf;

  0007b	8b 1d 00 00 00
	00		 mov	 ebx, DWORD PTR __imp_??4ioHashString@@QAEAAV0@PBD@Z
  00081	8d 85 a0 fb ff
	ff		 lea	 eax, DWORD PTR _szBuf$[ebp]
  00087	8d 8e e8 10 00
	00		 lea	 ecx, DWORD PTR [esi+4328]
  0008d	50		 push	 eax
  0008e	ff d3		 call	 ebx

; 52   : 	m_SkillMotionName = m_SkillLoopMotion;

  00090	8d 86 e8 10 00
	00		 lea	 eax, DWORD PTR [esi+4328]
  00096	50		 push	 eax
  00097	8d 8e 90 00 00
	00		 lea	 ecx, DWORD PTR [esi+144]
  0009d	ff 15 00 00 00
	00		 call	 DWORD PTR __imp_??4ioHashString@@QAEAAV0@ABV0@@Z

; 53   : 
; 54   : 	m_SkillLoopMotionRate = rkLoader.LoadFloat_e( "skill_loop_motion_rate", FLOAT1 );

  000a3	b8 01 00 00 00	 mov	 eax, 1
  000a8	6a 05		 push	 5
  000aa	c7 85 4c fe ff
	ff 9e 87 82 86	 mov	 DWORD PTR __k$545387[ebp], -2038265954 ; 8682879eH
  000b4	c7 85 50 fe ff
	ff 81 b3 87 85	 mov	 DWORD PTR __k$545387[ebp+4], -2054704255 ; 8587b381H
  000be	c7 85 54 fe ff
	ff 82 9c b4 87	 mov	 DWORD PTR __k$545387[ebp+8], -2018206590 ; 87b49c82H
  000c8	c7 85 58 fe ff
	ff 82 98 82 85	 mov	 DWORD PTR __k$545387[ebp+12], -2055038846 ; 85829882H
  000d2	c7 85 5c fe ff
	ff 83 b3 99 8b	 mov	 DWORD PTR __k$545387[ebp+16], -1952861309 ; 8b99b383H
  000dc	66 c7 85 60 fe
	ff ff 99 89	 mov	 WORD PTR __k$545387[ebp+20], 35225 ; 00008999H
  000e5	8d 8d 4c fe ff
	ff		 lea	 ecx, DWORD PTR __k$545387[ebp]
  000eb	c6 85 62 fe ff
	ff 00		 mov	 BYTE PTR __k$545387[ebp+22], 0
  000f2	5a		 pop	 edx
$LL912@LoadProper:
  000f3	81 31 ed ec eb
	ea		 xor	 DWORD PTR [ecx], -353637139 ; eaebecedH
  000f9	83 c1 04	 add	 ecx, 4
  000fc	4a		 dec	 edx
  000fd	75 f4		 jne	 SHORT $LL912@LoadProper
  000ff	c7 85 98 fb ff
	ff 14 00 00 00	 mov	 DWORD PTR _i$545445[ebp], 20 ; 00000014H
$LL909@LoadProper:
  00109	8b 8d 98 fb ff
	ff		 mov	 ecx, DWORD PTR _i$545445[ebp]
  0010f	81 e1 03 00 00
	80		 and	 ecx, -2147483645	; 80000003H
  00115	79 05		 jns	 SHORT $LN3545@LoadProper
  00117	49		 dec	 ecx
  00118	83 c9 fc	 or	 ecx, -4			; fffffffcH
  0011b	41		 inc	 ecx
$LN3545@LoadProper:
  0011c	b2 ed		 mov	 dl, -19			; ffffffedH
  0011e	2a d1		 sub	 dl, cl
  00120	8b 8d 98 fb ff
	ff		 mov	 ecx, DWORD PTR _i$545445[ebp]
  00126	30 94 0d 4c fe
	ff ff		 xor	 BYTE PTR __k$545387[ebp+ecx], dl
  0012d	ff 85 98 fb ff
	ff		 inc	 DWORD PTR _i$545445[ebp]
  00133	83 bd 98 fb ff
	ff 16		 cmp	 DWORD PTR _i$545445[ebp], 22 ; 00000016H
  0013a	7c cd		 jl	 SHORT $LL909@LoadProper
  0013c	89 85 90 fb ff
	ff		 mov	 DWORD PTR tv28792[ebp], eax
  00142	db 85 90 fb ff
	ff		 fild	 DWORD PTR tv28792[ebp]
  00148	85 c0		 test	 eax, eax
  0014a	79 06		 jns	 SHORT $LN3546@LoadProper
  0014c	d8 05 00 00 00
	00		 fadd	 DWORD PTR __real@4f800000
$LN3546@LoadProper:
  00152	51		 push	 ecx
  00153	8b 8d 9c fb ff
	ff		 mov	 ecx, DWORD PTR _rkLoader$GSCopy$[ebp]
  00159	d9 1c 24	 fstp	 DWORD PTR [esp]
  0015c	8d 85 4c fe ff
	ff		 lea	 eax, DWORD PTR __k$545387[ebp]
  00162	50		 push	 eax
  00163	ff 15 00 00 00
	00		 call	 DWORD PTR __imp_?LoadFloat@ioINILoader@@QAEMPBDM@Z
  00169	d9 9e f8 10 00
	00		 fstp	 DWORD PTR [esi+4344]
  0016f	6a 03		 push	 3

; 55   : 
; 56   : 	rkLoader.LoadString_e( "up_key_effect", "", szBuf, MAX_PATH );

  00171	c7 45 dc 98 9c
	b4 81		 mov	 DWORD PTR __k$545512[ebp], -2118869864 ; 81b49c98H
  00178	c7 45 e0 88 95
	b4 8f		 mov	 DWORD PTR __k$545512[ebp+4], -1883990648 ; 8fb49588H
  0017f	c7 45 e4 8b 8a
	8e 89		 mov	 DWORD PTR __k$545512[ebp+8], -1987147125 ; 898e8a8bH
  00186	8d 45 dc	 lea	 eax, DWORD PTR __k$545512[ebp]
  00189	66 c7 45 e8 99
	00		 mov	 WORD PTR __k$545512[ebp+12], 153 ; 00000099H
  0018f	59		 pop	 ecx
$LL1018@LoadProper:
  00190	81 30 ed ec eb
	ea		 xor	 DWORD PTR [eax], -353637139 ; eaebecedH
  00196	83 c0 04	 add	 eax, 4
  00199	49		 dec	 ecx
  0019a	75 f4		 jne	 SHORT $LL1018@LoadProper
  0019c	8b 8d 9c fb ff
	ff		 mov	 ecx, DWORD PTR _rkLoader$GSCopy$[ebp]
  001a2	80 75 e8 ed	 xor	 BYTE PTR __k$545512[ebp+12], -19 ; ffffffedH
  001a6	68 04 01 00 00	 push	 260			; 00000104H
  001ab	8d 85 a0 fb ff
	ff		 lea	 eax, DWORD PTR _szBuf$[ebp]
  001b1	50		 push	 eax
  001b2	68 00 00 00 00	 push	 OFFSET ??_C@_00CNPNBAHC@?$AA@
  001b7	8d 45 dc	 lea	 eax, DWORD PTR __k$545512[ebp]
  001ba	50		 push	 eax
  001bb	ff d7		 call	 edi

; 57   : 	m_szUpKeyEffect = szBuf;

  001bd	8d 85 a0 fb ff
	ff		 lea	 eax, DWORD PTR _szBuf$[ebp]
  001c3	50		 push	 eax
  001c4	8d 8e a4 11 00
	00		 lea	 ecx, DWORD PTR [esi+4516]
  001ca	ff d3		 call	 ebx
  001cc	6a 03		 push	 3

; 58   : 	rkLoader.LoadString_e( "down_key_effect", "", szBuf, MAX_PATH );

  001ce	c7 45 c8 89 83
	9c 84		 mov	 DWORD PTR __k$545637[ebp], -2070117495 ; 849c8389H
  001d5	c7 45 cc b2 87
	8e 93		 mov	 DWORD PTR __k$545637[ebp+4], -1819375694 ; 938e87b2H
  001dc	c7 45 d0 b2 89
	8d 8c		 mov	 DWORD PTR __k$545637[ebp+8], -1936881230 ; 8c8d89b2H
  001e3	8d 45 c8	 lea	 eax, DWORD PTR __k$545637[ebp]
  001e6	c7 45 d4 88 8f
	9f 00		 mov	 DWORD PTR __k$545637[ebp+12], 10456968 ; 009f8f88H
  001ed	59		 pop	 ecx
$LL1124@LoadProper:
  001ee	81 30 ed ec eb
	ea		 xor	 DWORD PTR [eax], -353637139 ; eaebecedH
  001f4	83 c0 04	 add	 eax, 4
  001f7	49		 dec	 ecx
  001f8	75 f4		 jne	 SHORT $LL1124@LoadProper
  001fa	6a 0c		 push	 12			; 0000000cH
  001fc	58		 pop	 eax
$LL1121@LoadProper:
  001fd	8b c8		 mov	 ecx, eax
  001ff	81 e1 03 00 00
	80		 and	 ecx, -2147483645	; 80000003H
  00205	79 05		 jns	 SHORT $LN3547@LoadProper
  00207	49		 dec	 ecx
  00208	83 c9 fc	 or	 ecx, -4			; fffffffcH
  0020b	41		 inc	 ecx
$LN3547@LoadProper:
  0020c	b2 ed		 mov	 dl, -19			; ffffffedH
  0020e	2a d1		 sub	 dl, cl
  00210	30 54 05 c8	 xor	 BYTE PTR __k$545637[ebp+eax], dl
  00214	40		 inc	 eax
  00215	83 f8 0f	 cmp	 eax, 15			; 0000000fH
  00218	7c e3		 jl	 SHORT $LL1121@LoadProper
  0021a	8b 8d 9c fb ff
	ff		 mov	 ecx, DWORD PTR _rkLoader$GSCopy$[ebp]
  00220	68 04 01 00 00	 push	 260			; 00000104H
  00225	8d 85 a0 fb ff
	ff		 lea	 eax, DWORD PTR _szBuf$[ebp]
  0022b	50		 push	 eax
  0022c	68 00 00 00 00	 push	 OFFSET ??_C@_00CNPNBAHC@?$AA@
  00231	8d 45 c8	 lea	 eax, DWORD PTR __k$545637[ebp]
  00234	50		 push	 eax
  00235	ff d7		 call	 edi

; 59   : 	m_szDownKeyEffect = szBuf;

  00237	8d 85 a0 fb ff
	ff		 lea	 eax, DWORD PTR _szBuf$[ebp]
  0023d	50		 push	 eax
  0023e	8d 8e b4 11 00
	00		 lea	 ecx, DWORD PTR [esi+4532]
  00244	ff d3		 call	 ebx
  00246	6a 03		 push	 3

; 60   : 	rkLoader.LoadString_e( "left_key_effect", "", szBuf, MAX_PATH );

  00248	c7 45 b4 81 89
	8d 9e		 mov	 DWORD PTR __k$545762[ebp], -1634891391 ; 9e8d8981H
  0024f	c7 45 b8 b2 87
	8e 93		 mov	 DWORD PTR __k$545762[ebp+4], -1819375694 ; 938e87b2H
  00256	c7 45 bc b2 89
	8d 8c		 mov	 DWORD PTR __k$545762[ebp+8], -1936881230 ; 8c8d89b2H
  0025d	8d 45 b4	 lea	 eax, DWORD PTR __k$545762[ebp]
  00260	c7 45 c0 88 8f
	9f 00		 mov	 DWORD PTR __k$545762[ebp+12], 10456968 ; 009f8f88H
  00267	59		 pop	 ecx
$LL1230@LoadProper:
  00268	81 30 ed ec eb
	ea		 xor	 DWORD PTR [eax], -353637139 ; eaebecedH
  0026e	83 c0 04	 add	 eax, 4
  00271	49		 dec	 ecx
  00272	75 f4		 jne	 SHORT $LL1230@LoadProper
  00274	6a 0c		 push	 12			; 0000000cH
  00276	58		 pop	 eax
$LL1227@LoadProper:
  00277	8b c8		 mov	 ecx, eax
  00279	81 e1 03 00 00
	80		 and	 ecx, -2147483645	; 80000003H
  0027f	79 05		 jns	 SHORT $LN3548@LoadProper
  00281	49		 dec	 ecx
  00282	83 c9 fc	 or	 ecx, -4			; fffffffcH
  00285	41		 inc	 ecx
$LN3548@LoadProper:
  00286	b2 ed		 mov	 dl, -19			; ffffffedH
  00288	2a d1		 sub	 dl, cl
  0028a	30 54 05 b4	 xor	 BYTE PTR __k$545762[ebp+eax], dl
  0028e	40		 inc	 eax
  0028f	83 f8 0f	 cmp	 eax, 15			; 0000000fH
  00292	7c e3		 jl	 SHORT $LL1227@LoadProper
  00294	8b 8d 9c fb ff
	ff		 mov	 ecx, DWORD PTR _rkLoader$GSCopy$[ebp]
  0029a	68 04 01 00 00	 push	 260			; 00000104H
  0029f	8d 85 a0 fb ff
	ff		 lea	 eax, DWORD PTR _szBuf$[ebp]
  002a5	50		 push	 eax
  002a6	68 00 00 00 00	 push	 OFFSET ??_C@_00CNPNBAHC@?$AA@
  002ab	8d 45 b4	 lea	 eax, DWORD PTR __k$545762[ebp]
  002ae	50		 push	 eax
  002af	ff d7		 call	 edi

; 61   : 	m_szLeftKeyEffect = szBuf;

  002b1	8d 85 a0 fb ff
	ff		 lea	 eax, DWORD PTR _szBuf$[ebp]
  002b7	50		 push	 eax
  002b8	8d 8e c4 11 00
	00		 lea	 ecx, DWORD PTR [esi+4548]
  002be	ff d3		 call	 ebx
  002c0	6a 04		 push	 4

; 62   : 	rkLoader.LoadString_e( "right_key_effect", "", szBuf, MAX_PATH );

  002c2	c7 85 a4 fc ff
	ff 9f 85 8c 82	 mov	 DWORD PTR __k$545970[ebp], -2104719969 ; 828c859fH
  002cc	c7 85 a8 fc ff
	ff 99 b3 80 8f	 mov	 DWORD PTR __k$545970[ebp+4], -1887390823 ; 8f80b399H
  002d6	c7 85 ac fc ff
	ff 94 b3 8e 8c	 mov	 DWORD PTR __k$545970[ebp+8], -1936804972 ; 8c8eb394H
  002e0	c7 85 b0 fc ff
	ff 8b 89 88 9e	 mov	 DWORD PTR __k$545970[ebp+12], -1635219061 ; 9e88898bH
  002ea	8d 85 a4 fc ff
	ff		 lea	 eax, DWORD PTR __k$545970[ebp]
  002f0	c6 85 b4 fc ff
	ff 00		 mov	 BYTE PTR __k$545970[ebp+16], 0
  002f7	59		 pop	 ecx
$LL1336@LoadProper:
  002f8	81 30 ed ec eb
	ea		 xor	 DWORD PTR [eax], -353637139 ; eaebecedH
  002fe	83 c0 04	 add	 eax, 4
  00301	49		 dec	 ecx
  00302	75 f4		 jne	 SHORT $LL1336@LoadProper
  00304	8b 8d 9c fb ff
	ff		 mov	 ecx, DWORD PTR _rkLoader$GSCopy$[ebp]
  0030a	68 04 01 00 00	 push	 260			; 00000104H
  0030f	8d 85 a0 fb ff
	ff		 lea	 eax, DWORD PTR _szBuf$[ebp]
  00315	50		 push	 eax
  00316	68 00 00 00 00	 push	 OFFSET ??_C@_00CNPNBAHC@?$AA@
  0031b	8d 85 a4 fc ff
	ff		 lea	 eax, DWORD PTR __k$545970[ebp]
  00321	50		 push	 eax
  00322	ff d7		 call	 edi

; 63   : 	m_szRightKeyEffect = szBuf;

  00324	8d 85 a0 fb ff
	ff		 lea	 eax, DWORD PTR _szBuf$[ebp]
  0032a	50		 push	 eax
  0032b	8d 8e d4 11 00
	00		 lea	 ecx, DWORD PTR [esi+4564]
  00331	ff d3		 call	 ebx
  00333	6a 03		 push	 3

; 64   : 	rkLoader.LoadString_e( "last_key_effect", "", szBuf, MAX_PATH );

  00335	c7 45 a0 81 8d
	98 9e		 mov	 DWORD PTR __k$546025[ebp], -1634169471 ; 9e988d81H
  0033c	c7 45 a4 b2 87
	8e 93		 mov	 DWORD PTR __k$546025[ebp+4], -1819375694 ; 938e87b2H
  00343	c7 45 a8 b2 89
	8d 8c		 mov	 DWORD PTR __k$546025[ebp+8], -1936881230 ; 8c8d89b2H
  0034a	8d 45 a0	 lea	 eax, DWORD PTR __k$546025[ebp]
  0034d	c7 45 ac 88 8f
	9f 00		 mov	 DWORD PTR __k$546025[ebp+12], 10456968 ; 009f8f88H
  00354	59		 pop	 ecx
$LL1442@LoadProper:
  00355	81 30 ed ec eb
	ea		 xor	 DWORD PTR [eax], -353637139 ; eaebecedH
  0035b	83 c0 04	 add	 eax, 4
  0035e	49		 dec	 ecx
  0035f	75 f4		 jne	 SHORT $LL1442@LoadProper
  00361	6a 0c		 push	 12			; 0000000cH
  00363	58		 pop	 eax
$LL1439@LoadProper:
  00364	8b c8		 mov	 ecx, eax
  00366	81 e1 03 00 00
	80		 and	 ecx, -2147483645	; 80000003H
  0036c	79 05		 jns	 SHORT $LN3549@LoadProper
  0036e	49		 dec	 ecx
  0036f	83 c9 fc	 or	 ecx, -4			; fffffffcH
  00372	41		 inc	 ecx
$LN3549@LoadProper:
  00373	b2 ed		 mov	 dl, -19			; ffffffedH
  00375	2a d1		 sub	 dl, cl
  00377	30 54 05 a0	 xor	 BYTE PTR __k$546025[ebp+eax], dl
  0037b	40		 inc	 eax
  0037c	83 f8 0f	 cmp	 eax, 15			; 0000000fH
  0037f	7c e3		 jl	 SHORT $LL1439@LoadProper
  00381	8b 8d 9c fb ff
	ff		 mov	 ecx, DWORD PTR _rkLoader$GSCopy$[ebp]
  00387	68 04 01 00 00	 push	 260			; 00000104H
  0038c	8d 85 a0 fb ff
	ff		 lea	 eax, DWORD PTR _szBuf$[ebp]
  00392	50		 push	 eax
  00393	68 00 00 00 00	 push	 OFFSET ??_C@_00CNPNBAHC@?$AA@
  00398	8d 45 a0	 lea	 eax, DWORD PTR __k$546025[ebp]
  0039b	50		 push	 eax
  0039c	ff d7		 call	 edi

; 65   : 	m_szLastKeyEffect = szBuf;

  0039e	8d 85 a0 fb ff
	ff		 lea	 eax, DWORD PTR _szBuf$[ebp]
  003a4	50		 push	 eax
  003a5	8d 8e e4 11 00
	00		 lea	 ecx, DWORD PTR [esi+4580]
  003ab	ff d3		 call	 ebx
  003ad	6a 05		 push	 5

; 66   : 
; 67   : 	rkLoader.LoadString_e( "up_key_failed_effect", "", szBuf, MAX_PATH );

  003af	c7 85 d4 fc ff
	ff 98 9c b4 81	 mov	 DWORD PTR __k$546137[ebp], -2118869864 ; 81b49c98H
  003b9	c7 85 d8 fc ff
	ff 88 95 b4 8c	 mov	 DWORD PTR __k$546137[ebp+4], -1934322296 ; 8cb49588H
  003c3	c7 85 dc fc ff
	ff 8c 85 87 8f	 mov	 DWORD PTR __k$546137[ebp+8], -1886943860 ; 8f87858cH
  003cd	c7 85 e0 fc ff
	ff 89 b3 8e 8c	 mov	 DWORD PTR __k$546137[ebp+12], -1936804983 ; 8c8eb389H
  003d7	c7 85 e4 fc ff
	ff 8b 89 88 9e	 mov	 DWORD PTR __k$546137[ebp+16], -1635219061 ; 9e88898bH
  003e1	8d 85 d4 fc ff
	ff		 lea	 eax, DWORD PTR __k$546137[ebp]
  003e7	c6 85 e8 fc ff
	ff 00		 mov	 BYTE PTR __k$546137[ebp+20], 0
  003ee	59		 pop	 ecx
$LL1548@LoadProper:
  003ef	81 30 ed ec eb
	ea		 xor	 DWORD PTR [eax], -353637139 ; eaebecedH
  003f5	83 c0 04	 add	 eax, 4
  003f8	49		 dec	 ecx
  003f9	75 f4		 jne	 SHORT $LL1548@LoadProper
  003fb	8b 8d 9c fb ff
	ff		 mov	 ecx, DWORD PTR _rkLoader$GSCopy$[ebp]
  00401	68 04 01 00 00	 push	 260			; 00000104H
  00406	8d 85 a0 fb ff
	ff		 lea	 eax, DWORD PTR _szBuf$[ebp]
  0040c	50		 push	 eax
  0040d	68 00 00 00 00	 push	 OFFSET ??_C@_00CNPNBAHC@?$AA@
  00412	8d 85 d4 fc ff
	ff		 lea	 eax, DWORD PTR __k$546137[ebp]
  00418	50		 push	 eax
  00419	ff d7		 call	 edi

; 68   : 	m_szUpKeyFailedEffect = szBuf;

  0041b	8d 85 a0 fb ff
	ff		 lea	 eax, DWORD PTR _szBuf$[ebp]
  00421	50		 push	 eax
  00422	8d 8e f4 11 00
	00		 lea	 ecx, DWORD PTR [esi+4596]
  00428	ff d3		 call	 ebx
  0042a	6a 05		 push	 5

; 69   : 	rkLoader.LoadString_e( "down_key_failed_effect", "", szBuf, MAX_PATH );

  0042c	c7 85 bc fe ff
	ff 89 83 9c 84	 mov	 DWORD PTR __k$546262[ebp], -2070117495 ; 849c8389H
  00436	c7 85 c0 fe ff
	ff b2 87 8e 93	 mov	 DWORD PTR __k$546262[ebp+4], -1819375694 ; 938e87b2H
  00440	c7 85 c4 fe ff
	ff b2 8a 8a 83	 mov	 DWORD PTR __k$546262[ebp+8], -2088072526 ; 838a8ab2H
  0044a	c7 85 c8 fe ff
	ff 81 89 8f b5	 mov	 DWORD PTR __k$546262[ebp+12], -1248884351 ; b58f8981H
  00454	c7 85 cc fe ff
	ff 88 8a 8d 8f	 mov	 DWORD PTR __k$546262[ebp+16], -1886549368 ; 8f8d8a88H
  0045e	66 c7 85 d0 fe
	ff ff 8e 98	 mov	 WORD PTR __k$546262[ebp+20], 39054 ; 0000988eH
  00467	8d 85 bc fe ff
	ff		 lea	 eax, DWORD PTR __k$546262[ebp]
  0046d	c6 85 d2 fe ff
	ff 00		 mov	 BYTE PTR __k$546262[ebp+22], 0
  00474	59		 pop	 ecx
$LL1654@LoadProper:
  00475	81 30 ed ec eb
	ea		 xor	 DWORD PTR [eax], -353637139 ; eaebecedH
  0047b	83 c0 04	 add	 eax, 4
  0047e	49		 dec	 ecx
  0047f	75 f4		 jne	 SHORT $LL1654@LoadProper
  00481	6a 14		 push	 20			; 00000014H
  00483	58		 pop	 eax
$LL1651@LoadProper:
  00484	8b c8		 mov	 ecx, eax
  00486	81 e1 03 00 00
	80		 and	 ecx, -2147483645	; 80000003H
  0048c	79 05		 jns	 SHORT $LN3550@LoadProper
  0048e	49		 dec	 ecx
  0048f	83 c9 fc	 or	 ecx, -4			; fffffffcH
  00492	41		 inc	 ecx
$LN3550@LoadProper:
  00493	b2 ed		 mov	 dl, -19			; ffffffedH
  00495	2a d1		 sub	 dl, cl
  00497	30 94 05 bc fe
	ff ff		 xor	 BYTE PTR __k$546262[ebp+eax], dl
  0049e	40		 inc	 eax
  0049f	83 f8 16	 cmp	 eax, 22			; 00000016H
  004a2	7c e0		 jl	 SHORT $LL1651@LoadProper
  004a4	8b 8d 9c fb ff
	ff		 mov	 ecx, DWORD PTR _rkLoader$GSCopy$[ebp]
  004aa	68 04 01 00 00	 push	 260			; 00000104H
  004af	8d 85 a0 fb ff
	ff		 lea	 eax, DWORD PTR _szBuf$[ebp]
  004b5	50		 push	 eax
  004b6	68 00 00 00 00	 push	 OFFSET ??_C@_00CNPNBAHC@?$AA@
  004bb	8d 85 bc fe ff
	ff		 lea	 eax, DWORD PTR __k$546262[ebp]
  004c1	50		 push	 eax
  004c2	ff d7		 call	 edi

; 70   : 	m_szDownKeyFailedEffect = szBuf;

  004c4	8d 85 a0 fb ff
	ff		 lea	 eax, DWORD PTR _szBuf$[ebp]
  004ca	50		 push	 eax
  004cb	8d 8e 04 12 00
	00		 lea	 ecx, DWORD PTR [esi+4612]
  004d1	ff d3		 call	 ebx
  004d3	6a 05		 push	 5

; 71   : 	rkLoader.LoadString_e( "left_key_failed_effect", "", szBuf, MAX_PATH );

  004d5	c7 85 a0 fe ff
	ff 81 89 8d 9e	 mov	 DWORD PTR __k$546387[ebp], -1634891391 ; 9e8d8981H
  004df	c7 85 a4 fe ff
	ff b2 87 8e 93	 mov	 DWORD PTR __k$546387[ebp+4], -1819375694 ; 938e87b2H
  004e9	c7 85 a8 fe ff
	ff b2 8a 8a 83	 mov	 DWORD PTR __k$546387[ebp+8], -2088072526 ; 838a8ab2H
  004f3	c7 85 ac fe ff
	ff 81 89 8f b5	 mov	 DWORD PTR __k$546387[ebp+12], -1248884351 ; b58f8981H
  004fd	c7 85 b0 fe ff
	ff 88 8a 8d 8f	 mov	 DWORD PTR __k$546387[ebp+16], -1886549368 ; 8f8d8a88H
  00507	66 c7 85 b4 fe
	ff ff 8e 98	 mov	 WORD PTR __k$546387[ebp+20], 39054 ; 0000988eH
  00510	8d 85 a0 fe ff
	ff		 lea	 eax, DWORD PTR __k$546387[ebp]
  00516	c6 85 b6 fe ff
	ff 00		 mov	 BYTE PTR __k$546387[ebp+22], 0
  0051d	59		 pop	 ecx
$LL1760@LoadProper:
  0051e	81 30 ed ec eb
	ea		 xor	 DWORD PTR [eax], -353637139 ; eaebecedH
  00524	83 c0 04	 add	 eax, 4
  00527	49		 dec	 ecx
  00528	75 f4		 jne	 SHORT $LL1760@LoadProper
  0052a	6a 14		 push	 20			; 00000014H
  0052c	58		 pop	 eax
$LL1757@LoadProper:
  0052d	8b c8		 mov	 ecx, eax
  0052f	81 e1 03 00 00
	80		 and	 ecx, -2147483645	; 80000003H
  00535	79 05		 jns	 SHORT $LN3551@LoadProper
  00537	49		 dec	 ecx
  00538	83 c9 fc	 or	 ecx, -4			; fffffffcH
  0053b	41		 inc	 ecx
$LN3551@LoadProper:
  0053c	b2 ed		 mov	 dl, -19			; ffffffedH
  0053e	2a d1		 sub	 dl, cl
  00540	30 94 05 a0 fe
	ff ff		 xor	 BYTE PTR __k$546387[ebp+eax], dl
  00547	40		 inc	 eax
  00548	83 f8 16	 cmp	 eax, 22			; 00000016H
  0054b	7c e0		 jl	 SHORT $LL1757@LoadProper
  0054d	8b 8d 9c fb ff
	ff		 mov	 ecx, DWORD PTR _rkLoader$GSCopy$[ebp]
  00553	68 04 01 00 00	 push	 260			; 00000104H
  00558	8d 85 a0 fb ff
	ff		 lea	 eax, DWORD PTR _szBuf$[ebp]
  0055e	50		 push	 eax
  0055f	68 00 00 00 00	 push	 OFFSET ??_C@_00CNPNBAHC@?$AA@
  00564	8d 85 a0 fe ff
	ff		 lea	 eax, DWORD PTR __k$546387[ebp]
  0056a	50		 push	 eax
  0056b	ff d7		 call	 edi

; 72   : 	m_szLeftKeyFailedEffect = szBuf;

  0056d	8d 85 a0 fb ff
	ff		 lea	 eax, DWORD PTR _szBuf$[ebp]
  00573	50		 push	 eax
  00574	8d 8e 14 12 00
	00		 lea	 ecx, DWORD PTR [esi+4628]
  0057a	ff d3		 call	 ebx
  0057c	6a 05		 push	 5

; 73   : 	rkLoader.LoadString_e( "right_key_failed_effect", "", szBuf, MAX_PATH );

  0057e	c7 85 14 fe ff
	ff 9f 85 8c 82	 mov	 DWORD PTR __k$546512[ebp], -2104719969 ; 828c859fH
  00588	c7 85 18 fe ff
	ff 99 b3 80 8f	 mov	 DWORD PTR __k$546512[ebp+4], -1887390823 ; 8f80b399H
  00592	c7 85 1c fe ff
	ff 94 b3 8d 8b	 mov	 DWORD PTR __k$546512[ebp+8], -1953647724 ; 8b8db394H
  0059c	c7 85 20 fe ff
	ff 84 80 8e 8e	 mov	 DWORD PTR __k$546512[ebp+12], -1903263612 ; 8e8e8084H
  005a6	c7 85 24 fe ff
	ff b2 89 8d 8c	 mov	 DWORD PTR __k$546512[ebp+16], -1936881230 ; 8c8d89b2H
  005b0	8d 85 14 fe ff
	ff		 lea	 eax, DWORD PTR __k$546512[ebp]
  005b6	c7 85 28 fe ff
	ff 88 8f 9f 00	 mov	 DWORD PTR __k$546512[ebp+20], 10456968 ; 009f8f88H
  005c0	59		 pop	 ecx
$LL1866@LoadProper:
  005c1	81 30 ed ec eb
	ea		 xor	 DWORD PTR [eax], -353637139 ; eaebecedH
  005c7	83 c0 04	 add	 eax, 4
  005ca	49		 dec	 ecx
  005cb	75 f4		 jne	 SHORT $LL1866@LoadProper
  005cd	6a 14		 push	 20			; 00000014H
  005cf	58		 pop	 eax
$LL1863@LoadProper:
  005d0	8b c8		 mov	 ecx, eax
  005d2	81 e1 03 00 00
	80		 and	 ecx, -2147483645	; 80000003H
  005d8	79 05		 jns	 SHORT $LN3552@LoadProper
  005da	49		 dec	 ecx
  005db	83 c9 fc	 or	 ecx, -4			; fffffffcH
  005de	41		 inc	 ecx
$LN3552@LoadProper:
  005df	b2 ed		 mov	 dl, -19			; ffffffedH
  005e1	2a d1		 sub	 dl, cl
  005e3	30 94 05 14 fe
	ff ff		 xor	 BYTE PTR __k$546512[ebp+eax], dl
  005ea	40		 inc	 eax
  005eb	83 f8 17	 cmp	 eax, 23			; 00000017H
  005ee	7c e0		 jl	 SHORT $LL1863@LoadProper
  005f0	8b 8d 9c fb ff
	ff		 mov	 ecx, DWORD PTR _rkLoader$GSCopy$[ebp]
  005f6	68 04 01 00 00	 push	 260			; 00000104H
  005fb	8d 85 a0 fb ff
	ff		 lea	 eax, DWORD PTR _szBuf$[ebp]
  00601	50		 push	 eax
  00602	68 00 00 00 00	 push	 OFFSET ??_C@_00CNPNBAHC@?$AA@
  00607	8d 85 14 fe ff
	ff		 lea	 eax, DWORD PTR __k$546512[ebp]
  0060d	50		 push	 eax
  0060e	ff d7		 call	 edi

; 74   : 	m_szRightKeyFailedEffect = szBuf;

  00610	8d 85 a0 fb ff
	ff		 lea	 eax, DWORD PTR _szBuf$[ebp]
  00616	50		 push	 eax
  00617	8d 8e 24 12 00
	00		 lea	 ecx, DWORD PTR [esi+4644]
  0061d	ff d3		 call	 ebx
  0061f	6a 05		 push	 5

; 75   : 	rkLoader.LoadString_e( "last_key_failed_effect", "", szBuf, MAX_PATH );

  00621	c7 85 68 fe ff
	ff 81 8d 98 9e	 mov	 DWORD PTR __k$546637[ebp], -1634169471 ; 9e988d81H
  0062b	c7 85 6c fe ff
	ff b2 87 8e 93	 mov	 DWORD PTR __k$546637[ebp+4], -1819375694 ; 938e87b2H
  00635	c7 85 70 fe ff
	ff b2 8a 8a 83	 mov	 DWORD PTR __k$546637[ebp+8], -2088072526 ; 838a8ab2H
  0063f	c7 85 74 fe ff
	ff 81 89 8f b5	 mov	 DWORD PTR __k$546637[ebp+12], -1248884351 ; b58f8981H
  00649	c7 85 78 fe ff
	ff 88 8a 8d 8f	 mov	 DWORD PTR __k$546637[ebp+16], -1886549368 ; 8f8d8a88H
  00653	66 c7 85 7c fe
	ff ff 8e 98	 mov	 WORD PTR __k$546637[ebp+20], 39054 ; 0000988eH
  0065c	8d 85 68 fe ff
	ff		 lea	 eax, DWORD PTR __k$546637[ebp]
  00662	c6 85 7e fe ff
	ff 00		 mov	 BYTE PTR __k$546637[ebp+22], 0
  00669	59		 pop	 ecx
$LL1972@LoadProper:
  0066a	81 30 ed ec eb
	ea		 xor	 DWORD PTR [eax], -353637139 ; eaebecedH
  00670	83 c0 04	 add	 eax, 4
  00673	49		 dec	 ecx
  00674	75 f4		 jne	 SHORT $LL1972@LoadProper
  00676	6a 14		 push	 20			; 00000014H
  00678	58		 pop	 eax
$LL1969@LoadProper:
  00679	8b c8		 mov	 ecx, eax
  0067b	81 e1 03 00 00
	80		 and	 ecx, -2147483645	; 80000003H
  00681	79 05		 jns	 SHORT $LN3553@LoadProper
  00683	49		 dec	 ecx
  00684	83 c9 fc	 or	 ecx, -4			; fffffffcH
  00687	41		 inc	 ecx
$LN3553@LoadProper:
  00688	b2 ed		 mov	 dl, -19			; ffffffedH
  0068a	2a d1		 sub	 dl, cl
  0068c	30 94 05 68 fe
	ff ff		 xor	 BYTE PTR __k$546637[ebp+eax], dl
  00693	40		 inc	 eax
  00694	83 f8 16	 cmp	 eax, 22			; 00000016H
  00697	7c e0		 jl	 SHORT $LL1969@LoadProper
  00699	8b 8d 9c fb ff
	ff		 mov	 ecx, DWORD PTR _rkLoader$GSCopy$[ebp]
  0069f	68 04 01 00 00	 push	 260			; 00000104H
  006a4	8d 85 a0 fb ff
	ff		 lea	 eax, DWORD PTR _szBuf$[ebp]
  006aa	50		 push	 eax
  006ab	68 00 00 00 00	 push	 OFFSET ??_C@_00CNPNBAHC@?$AA@
  006b0	8d 85 68 fe ff
	ff		 lea	 eax, DWORD PTR __k$546637[ebp]
  006b6	50		 push	 eax
  006b7	ff d7		 call	 edi

; 76   : 	m_szLastKeyFailedEffect = szBuf;

  006b9	8d 85 a0 fb ff
	ff		 lea	 eax, DWORD PTR _szBuf$[ebp]
  006bf	50		 push	 eax
  006c0	8d 8e 34 12 00
	00		 lea	 ecx, DWORD PTR [esi+4660]
  006c6	ff d3		 call	 ebx
  006c8	6a 04		 push	 4
  006ca	59		 pop	 ecx
  006cb	51		 push	 ecx

; 77   : 
; 78   : 	m_fEffectYGap     = rkLoader.LoadFloat_e( "key_effect_y_gap", 0 );

  006cc	c7 85 bc fc ff
	ff 86 89 92 b5	 mov	 DWORD PTR __k$546762[ebp], -1248687738 ; b5928986H
  006d6	c7 85 c0 fc ff
	ff 88 8a 8d 8f	 mov	 DWORD PTR __k$546762[ebp+4], -1886549368 ; 8f8d8a88H
  006e0	c7 85 c4 fc ff
	ff 8e 98 b4 93	 mov	 DWORD PTR __k$546762[ebp+8], -1816881010 ; 93b4988eH
  006ea	c7 85 c8 fc ff
	ff b2 8b 8a 9a	 mov	 DWORD PTR __k$546762[ebp+12], -1702196302 ; 9a8a8bb2H
  006f4	8d 85 bc fc ff
	ff		 lea	 eax, DWORD PTR __k$546762[ebp]
  006fa	c6 85 cc fc ff
	ff 00		 mov	 BYTE PTR __k$546762[ebp+16], 0
  00701	5f		 pop	 edi
  00702	bb ed ec eb ea	 mov	 ebx, -353637139		; eaebecedH
$LL2078@LoadProper:
  00707	31 18		 xor	 DWORD PTR [eax], ebx
  00709	03 c7		 add	 eax, edi
  0070b	49		 dec	 ecx
  0070c	75 f9		 jne	 SHORT $LL2078@LoadProper
  0070e	0f 57 c0	 xorps	 xmm0, xmm0
  00711	51		 push	 ecx
  00712	8b 8d 9c fb ff
	ff		 mov	 ecx, DWORD PTR _rkLoader$GSCopy$[ebp]
  00718	8d 85 bc fc ff
	ff		 lea	 eax, DWORD PTR __k$546762[ebp]
  0071e	f3 0f 11 04 24	 movss	 DWORD PTR [esp], xmm0
  00723	50		 push	 eax
  00724	ff 15 00 00 00
	00		 call	 DWORD PTR __imp_?LoadFloat@ioINILoader@@QAEMPBDM@Z
  0072a	d9 9e 44 12 00
	00		 fstp	 DWORD PTR [esi+4676]

; 79   : 	m_fEffectXGap     = rkLoader.LoadFloat_e( "key_effect_x_gap", 0 );

  00730	c7 85 10 fd ff
	ff 86 89 92 b5	 mov	 DWORD PTR __k$546900[ebp], -1248687738 ; b5928986H
  0073a	c7 85 14 fd ff
	ff 88 8a 8d 8f	 mov	 DWORD PTR __k$546900[ebp+4], -1886549368 ; 8f8d8a88H
  00744	c7 85 18 fd ff
	ff 8e 98 b4 92	 mov	 DWORD PTR __k$546900[ebp+8], -1833658226 ; 92b4988eH
  0074e	c7 85 1c fd ff
	ff b2 8b 8a 9a	 mov	 DWORD PTR __k$546900[ebp+12], -1702196302 ; 9a8a8bb2H
  00758	8d 85 10 fd ff
	ff		 lea	 eax, DWORD PTR __k$546900[ebp]
  0075e	c6 85 20 fd ff
	ff 00		 mov	 BYTE PTR __k$546900[ebp+16], 0
  00765	8b cf		 mov	 ecx, edi
$LL2184@LoadProper:
  00767	31 18		 xor	 DWORD PTR [eax], ebx
  00769	03 c7		 add	 eax, edi
  0076b	49		 dec	 ecx
  0076c	75 f9		 jne	 SHORT $LL2184@LoadProper
  0076e	0f 57 c0	 xorps	 xmm0, xmm0
  00771	51		 push	 ecx
  00772	8b 8d 9c fb ff
	ff		 mov	 ecx, DWORD PTR _rkLoader$GSCopy$[ebp]
  00778	8d 85 10 fd ff
	ff		 lea	 eax, DWORD PTR __k$546900[ebp]
  0077e	f3 0f 11 04 24	 movss	 DWORD PTR [esp], xmm0
  00783	50		 push	 eax
  00784	ff 15 00 00 00
	00		 call	 DWORD PTR __imp_?LoadFloat@ioINILoader@@QAEMPBDM@Z
  0078a	d9 9e 48 12 00
	00		 fstp	 DWORD PTR [esi+4680]
  00790	6a 05		 push	 5

; 80   : 	m_fEffectKeyWidth = rkLoader.LoadFloat_e( "key_effect_key_width", 0 );

  00792	c7 85 40 fd ff
	ff 86 89 92 b5	 mov	 DWORD PTR __k$547025[ebp], -1248687738 ; b5928986H
  0079c	c7 85 44 fd ff
	ff 88 8a 8d 8f	 mov	 DWORD PTR __k$547025[ebp+4], -1886549368 ; 8f8d8a88H
  007a6	c7 85 48 fd ff
	ff 8e 98 b4 81	 mov	 DWORD PTR __k$547025[ebp+8], -2118870898 ; 81b4988eH
  007b0	c7 85 4c fd ff
	ff 88 95 b4 9d	 mov	 DWORD PTR __k$547025[ebp+12], -1649109624 ; 9db49588H
  007ba	c7 85 50 fd ff
	ff 84 88 9f 82	 mov	 DWORD PTR __k$547025[ebp+16], -2103474044 ; 829f8884H
  007c4	8d 85 40 fd ff
	ff		 lea	 eax, DWORD PTR __k$547025[ebp]
  007ca	c6 85 54 fd ff
	ff 00		 mov	 BYTE PTR __k$547025[ebp+20], 0
  007d1	59		 pop	 ecx
$LL2290@LoadProper:
  007d2	31 18		 xor	 DWORD PTR [eax], ebx
  007d4	03 c7		 add	 eax, edi
  007d6	49		 dec	 ecx
  007d7	75 f9		 jne	 SHORT $LL2290@LoadProper
  007d9	0f 57 c0	 xorps	 xmm0, xmm0
  007dc	51		 push	 ecx
  007dd	8b 8d 9c fb ff
	ff		 mov	 ecx, DWORD PTR _rkLoader$GSCopy$[ebp]
  007e3	8d 85 40 fd ff
	ff		 lea	 eax, DWORD PTR __k$547025[ebp]
  007e9	f3 0f 11 04 24	 movss	 DWORD PTR [esp], xmm0
  007ee	50		 push	 eax
  007ef	ff 15 00 00 00
	00		 call	 DWORD PTR __imp_?LoadFloat@ioINILoader@@QAEMPBDM@Z
  007f5	d9 9e 4c 12 00
	00		 fstp	 DWORD PTR [esi+4684]
  007fb	6a 05		 push	 5

; 81   : 
; 82   : 	m_fLastEffectYGap = rkLoader.LoadFloat_e( "last_key_effect_y_gap", 0 );

  007fd	c7 85 d8 fe ff
	ff 81 8d 98 9e	 mov	 DWORD PTR __k$547150[ebp], -1634169471 ; 9e988d81H
  00807	c7 85 dc fe ff
	ff b2 87 8e 93	 mov	 DWORD PTR __k$547150[ebp+4], -1819375694 ; 938e87b2H
  00811	c7 85 e0 fe ff
	ff b2 89 8d 8c	 mov	 DWORD PTR __k$547150[ebp+8], -1936881230 ; 8c8d89b2H
  0081b	c7 85 e4 fe ff
	ff 88 8f 9f b5	 mov	 DWORD PTR __k$547150[ebp+12], -1247834232 ; b59f8f88H
  00825	c7 85 e8 fe ff
	ff 94 b3 8c 8b	 mov	 DWORD PTR __k$547150[ebp+16], -1953713260 ; 8b8cb394H
  0082f	8d 85 d8 fe ff
	ff		 lea	 eax, DWORD PTR __k$547150[ebp]
  00835	66 c7 85 ec fe
	ff ff 9d 00	 mov	 WORD PTR __k$547150[ebp+20], 157 ; 0000009dH
  0083e	59		 pop	 ecx
$LL2396@LoadProper:
  0083f	31 18		 xor	 DWORD PTR [eax], ebx
  00841	03 c7		 add	 eax, edi
  00843	49		 dec	 ecx
  00844	75 f9		 jne	 SHORT $LL2396@LoadProper
  00846	0f 57 c0	 xorps	 xmm0, xmm0
  00849	80 b5 ec fe ff
	ff ed		 xor	 BYTE PTR __k$547150[ebp+20], -19 ; ffffffedH
  00850	51		 push	 ecx
  00851	8b 8d 9c fb ff
	ff		 mov	 ecx, DWORD PTR _rkLoader$GSCopy$[ebp]
  00857	8d 85 d8 fe ff
	ff		 lea	 eax, DWORD PTR __k$547150[ebp]
  0085d	f3 0f 11 04 24	 movss	 DWORD PTR [esp], xmm0
  00862	50		 push	 eax
  00863	ff 15 00 00 00
	00		 call	 DWORD PTR __imp_?LoadFloat@ioINILoader@@QAEMPBDM@Z
  00869	d9 9e 50 12 00
	00		 fstp	 DWORD PTR [esi+4688]

; 83   : 
; 84   : 	m_dwLoopDuration  = rkLoader.LoadInt_e( "skill_loop_duration", 0 );

  0086f	c7 85 40 ff ff
	ff 9e 87 82 86	 mov	 DWORD PTR __k$547371[ebp], -2038265954 ; 8682879eH
  00879	c7 85 44 ff ff
	ff 81 b3 87 85	 mov	 DWORD PTR __k$547371[ebp+4], -2054704255 ; 8587b381H
  00883	c7 85 48 ff ff
	ff 82 9c b4 8e	 mov	 DWORD PTR __k$547371[ebp+8], -1900766078 ; 8eb49c82H
  0088d	c7 85 4c ff ff
	ff 98 9e 8a 9e	 mov	 DWORD PTR __k$547371[ebp+12], -1635082600 ; 9e8a9e98H
  00897	8d 85 40 ff ff
	ff		 lea	 eax, DWORD PTR __k$547371[ebp]
  0089d	c7 85 50 ff ff
	ff 84 83 85 00	 mov	 DWORD PTR __k$547371[ebp+16], 8749956 ; 00858384H
  008a7	8b cf		 mov	 ecx, edi
$LL2502@LoadProper:
  008a9	31 18		 xor	 DWORD PTR [eax], ebx
  008ab	03 c7		 add	 eax, edi
  008ad	49		 dec	 ecx
  008ae	75 f9		 jne	 SHORT $LL2502@LoadProper
  008b0	6a 10		 push	 16			; 00000010H
  008b2	5f		 pop	 edi
$LL2499@LoadProper:
  008b3	8b c7		 mov	 eax, edi
  008b5	25 03 00 00 80	 and	 eax, -2147483645	; 80000003H
  008ba	79 05		 jns	 SHORT $LN3554@LoadProper
  008bc	48		 dec	 eax
  008bd	83 c8 fc	 or	 eax, -4			; fffffffcH
  008c0	40		 inc	 eax
$LN3554@LoadProper:
  008c1	b1 ed		 mov	 cl, -19			; ffffffedH
  008c3	2a c8		 sub	 cl, al
  008c5	30 8c 3d 40 ff
	ff ff		 xor	 BYTE PTR __k$547371[ebp+edi], cl
  008cc	47		 inc	 edi
  008cd	83 ff 13	 cmp	 edi, 19			; 00000013H
  008d0	7c e1		 jl	 SHORT $LL2499@LoadProper
  008d2	8b 8d 9c fb ff
	ff		 mov	 ecx, DWORD PTR _rkLoader$GSCopy$[ebp]
  008d8	8b 3d 00 00 00
	00		 mov	 edi, DWORD PTR __imp_?LoadInt@ioINILoader@@QAEHPBDH@Z
  008de	6a 00		 push	 0
  008e0	8d 85 40 ff ff
	ff		 lea	 eax, DWORD PTR __k$547371[ebp]
  008e6	50		 push	 eax
  008e7	ff d7		 call	 edi
  008e9	89 86 00 11 00
	00		 mov	 DWORD PTR [esi+4352], eax
  008ef	6a 04		 push	 4

; 85   : 
; 86   : 	int iWaveCount = rkLoader.LoadInt_e( "sound_wave_count", 0 );

  008f1	c7 85 5c fd ff
	ff 9e 83 9e 84	 mov	 DWORD PTR __k$547387[ebp], -2069986402 ; 849e839eH
  008fb	c7 85 60 fd ff
	ff 89 b3 9c 8b	 mov	 DWORD PTR __k$547387[ebp+4], -1952664695 ; 8b9cb389H
  00905	c7 85 64 fd ff
	ff 9b 89 b4 89	 mov	 DWORD PTR __k$547387[ebp+8], -1984656997 ; 89b4899bH
  0090f	c7 85 68 fd ff
	ff 82 99 85 9e	 mov	 DWORD PTR __k$547387[ebp+12], -1635411582 ; 9e859982H
  00919	8d 85 5c fd ff
	ff		 lea	 eax, DWORD PTR __k$547387[ebp]
  0091f	c6 85 6c fd ff
	ff 00		 mov	 BYTE PTR __k$547387[ebp+16], 0
  00926	59		 pop	 ecx
$LL2608@LoadProper:
  00927	31 18		 xor	 DWORD PTR [eax], ebx
  00929	83 c0 04	 add	 eax, 4
  0092c	49		 dec	 ecx
  0092d	75 f8		 jne	 SHORT $LL2608@LoadProper
  0092f	51		 push	 ecx
  00930	8b 8d 9c fb ff
	ff		 mov	 ecx, DWORD PTR _rkLoader$GSCopy$[ebp]
  00936	8d 85 5c fd ff
	ff		 lea	 eax, DWORD PTR __k$547387[ebp]
  0093c	50		 push	 eax
  0093d	ff d7		 call	 edi
  0093f	89 85 94 fb ff
	ff		 mov	 DWORD PTR _iWaveCount$[ebp], eax

; 87   : 	if( iWaveCount == 0 )

  00945	85 c0		 test	 eax, eax
  00947	0f 84 cd 08 00
	00		 je	 $LN698@LoadProper

; 88   : 		return;
; 89   : 
; 90   : 	m_SoundWaveKeyVec.reserve( iWaveCount );

  0094d	8d 8e 7c 11 00
	00		 lea	 ecx, DWORD PTR [esi+4476]
  00953	50		 push	 eax
  00954	e8 00 00 00 00	 call	 ?reserve@?$vector@UWaveKey@ioCrecendoSkill@@V?$allocator@UWaveKey@ioCrecendoSkill@@@std@@@std@@QAEXI@Z ; std::vector<ioCrecendoSkill::WaveKey,std::allocator<ioCrecendoSkill::WaveKey> >::reserve

; 91   : 	for( int iWave = 0; iWave < iWaveCount; ++iWave )

  00959	83 a5 90 fb ff
	ff 00		 and	 DWORD PTR _iWave$531433[ebp], 0
  00960	83 bd 94 fb ff
	ff 00		 cmp	 DWORD PTR _iWaveCount$[ebp], 0
  00967	8b 1d 00 00 00
	00		 mov	 ebx, DWORD PTR __imp__sprintf
  0096d	0f 8e 02 04 00
	00		 jle	 $LN694@LoadProper

; 88   : 		return;
; 89   : 
; 90   : 	m_SoundWaveKeyVec.reserve( iWaveCount );

  00973	8b 85 94 fb ff
	ff		 mov	 eax, DWORD PTR _iWaveCount$[ebp]
  00979	c7 85 98 fb ff
	ff 01 00 00 00	 mov	 DWORD PTR tv28679[ebp], 1
  00983	89 85 94 fb ff
	ff		 mov	 DWORD PTR tv11030[ebp], eax

; 91   : 	for( int iWave = 0; iWave < iWaveCount; ++iWave )

  00989	89 85 90 fb ff
	ff		 mov	 DWORD PTR _iWave$531433[ebp], eax
$LL696@LoadProper:

; 92   : 	{
; 93   : 		WaveKey WaveInfo;

  0098f	8d 8d 24 fb ff
	ff		 lea	 ecx, DWORD PTR _WaveInfo$531437[ebp]
  00995	e8 00 00 00 00	 call	 ??0WaveKey@ioCrecendoSkill@@QAE@XZ ; ioCrecendoSkill::WaveKey::WaveKey
  0099a	83 65 fc 00	 and	 DWORD PTR __$EHRec$[ebp+8], 0
  0099e	6a 04		 push	 4

; 94   : 	
; 95   : 		sprintf_e( szBuf, "sound_wave%d_key", iWave + 1 );

  009a0	c7 85 28 fd ff
	ff 9e 83 9e 84	 mov	 DWORD PTR ___encStr$531441[ebp], -2069986402 ; 849e839eH
  009aa	c7 85 2c fd ff
	ff 89 b3 9c 8b	 mov	 DWORD PTR ___encStr$531441[ebp+4], -1952664695 ; 8b9cb389H
  009b4	c7 85 30 fd ff
	ff 9b 89 ce 8e	 mov	 DWORD PTR ___encStr$531441[ebp+8], -1899066981 ; 8ece899bH
  009be	c7 85 34 fd ff
	ff b2 87 8e 93	 mov	 DWORD PTR ___encStr$531441[ebp+12], -1819375694 ; 938e87b2H
  009c8	8d 85 28 fd ff
	ff		 lea	 eax, DWORD PTR ___encStr$531441[ebp]
  009ce	c6 85 38 fd ff
	ff 00		 mov	 BYTE PTR ___encStr$531441[ebp+16], 0
  009d5	59		 pop	 ecx
$LL2616@LoadProper:
  009d6	81 30 ed ec eb
	ea		 xor	 DWORD PTR [eax], -353637139 ; eaebecedH
  009dc	83 c0 04	 add	 eax, 4
  009df	49		 dec	 ecx
  009e0	75 f4		 jne	 SHORT $LL2616@LoadProper
  009e2	ff b5 98 fb ff
	ff		 push	 DWORD PTR tv28679[ebp]
  009e8	8d 85 28 fd ff
	ff		 lea	 eax, DWORD PTR ___encStr$531441[ebp]
  009ee	50		 push	 eax
  009ef	8d 85 a0 fb ff
	ff		 lea	 eax, DWORD PTR _szBuf$[ebp]
  009f5	50		 push	 eax
  009f6	ff d3		 call	 ebx

; 96   : 		WaveInfo.m_dwKey = rkLoader.LoadInt( szBuf, (int)WKS_NONE );

  009f8	8b 8d 9c fb ff
	ff		 mov	 ecx, DWORD PTR _rkLoader$GSCopy$[ebp]
  009fe	83 c4 0c	 add	 esp, 12			; 0000000cH
  00a01	6a 00		 push	 0
  00a03	8d 85 a0 fb ff
	ff		 lea	 eax, DWORD PTR _szBuf$[ebp]
  00a09	50		 push	 eax
  00a0a	ff d7		 call	 edi
  00a0c	6a 05		 push	 5
  00a0e	89 85 2c fb ff
	ff		 mov	 DWORD PTR _WaveInfo$531437[ebp+8], eax

; 97   : 
; 98   : 		sprintf_e( szBuf, "sound_wave%d_start_time", iWave + 1 );

  00a14	c7 85 dc fd ff
	ff 9e 83 9e 84	 mov	 DWORD PTR ___encStr$531595[ebp], -2069986402 ; 849e839eH
  00a1e	c7 85 e0 fd ff
	ff 89 b3 9c 8b	 mov	 DWORD PTR ___encStr$531595[ebp+4], -1952664695 ; 8b9cb389H
  00a28	c7 85 e4 fd ff
	ff 9b 89 ce 8e	 mov	 DWORD PTR ___encStr$531595[ebp+8], -1899066981 ; 8ece899bH
  00a32	c7 85 e8 fd ff
	ff b2 9f 9f 8b	 mov	 DWORD PTR ___encStr$531595[ebp+12], -1952473166 ; 8b9f9fb2H
  00a3c	c7 85 ec fd ff
	ff 9f 98 b4 9e	 mov	 DWORD PTR ___encStr$531595[ebp+16], -1632331617 ; 9eb4989fH
  00a46	8d 85 dc fd ff
	ff		 lea	 eax, DWORD PTR ___encStr$531595[ebp]
  00a4c	c7 85 f0 fd ff
	ff 84 81 8e 00	 mov	 DWORD PTR ___encStr$531595[ebp+20], 9339268 ; 008e8184H
  00a56	59		 pop	 ecx
$LL2624@LoadProper:
  00a57	81 30 ed ec eb
	ea		 xor	 DWORD PTR [eax], -353637139 ; eaebecedH
  00a5d	83 c0 04	 add	 eax, 4
  00a60	49		 dec	 ecx
  00a61	75 f4		 jne	 SHORT $LL2624@LoadProper
  00a63	6a 14		 push	 20			; 00000014H
  00a65	58		 pop	 eax
$LL2621@LoadProper:
  00a66	8b c8		 mov	 ecx, eax
  00a68	81 e1 03 00 00
	80		 and	 ecx, -2147483645	; 80000003H
  00a6e	79 05		 jns	 SHORT $LN3555@LoadProper
  00a70	49		 dec	 ecx
  00a71	83 c9 fc	 or	 ecx, -4			; fffffffcH
  00a74	41		 inc	 ecx
$LN3555@LoadProper:
  00a75	b2 ed		 mov	 dl, -19			; ffffffedH
  00a77	2a d1		 sub	 dl, cl
  00a79	30 94 05 dc fd
	ff ff		 xor	 BYTE PTR ___encStr$531595[ebp+eax], dl
  00a80	40		 inc	 eax
  00a81	83 f8 17	 cmp	 eax, 23			; 00000017H
  00a84	7c e0		 jl	 SHORT $LL2621@LoadProper
  00a86	ff b5 98 fb ff
	ff		 push	 DWORD PTR tv28679[ebp]
  00a8c	8d 85 dc fd ff
	ff		 lea	 eax, DWORD PTR ___encStr$531595[ebp]
  00a92	50		 push	 eax
  00a93	8d 85 a0 fb ff
	ff		 lea	 eax, DWORD PTR _szBuf$[ebp]
  00a99	50		 push	 eax
  00a9a	ff d3		 call	 ebx

; 99   : 		WaveInfo.m_dwStartTime = rkLoader.LoadInt( szBuf, 0 );

  00a9c	8b 8d 9c fb ff
	ff		 mov	 ecx, DWORD PTR _rkLoader$GSCopy$[ebp]
  00aa2	83 c4 0c	 add	 esp, 12			; 0000000cH
  00aa5	6a 00		 push	 0
  00aa7	8d 85 a0 fb ff
	ff		 lea	 eax, DWORD PTR _szBuf$[ebp]
  00aad	50		 push	 eax
  00aae	ff d7		 call	 edi
  00ab0	6a 05		 push	 5
  00ab2	89 85 24 fb ff
	ff		 mov	 DWORD PTR _WaveInfo$531437[ebp], eax

; 100  : 
; 101  : 		sprintf_e( szBuf, "sound_wave%d_end_time",  iWave + 1 );

  00ab8	c7 85 f4 fe ff
	ff 9e 83 9e 84	 mov	 DWORD PTR ___encStr$531747[ebp], -2069986402 ; 849e839eH
  00ac2	c7 85 f8 fe ff
	ff 89 b3 9c 8b	 mov	 DWORD PTR ___encStr$531747[ebp+4], -1952664695 ; 8b9cb389H
  00acc	c7 85 fc fe ff
	ff 9b 89 ce 8e	 mov	 DWORD PTR ___encStr$531747[ebp+8], -1899066981 ; 8ece899bH
  00ad6	c7 85 00 ff ff
	ff b2 89 85 8e	 mov	 DWORD PTR ___encStr$531747[ebp+12], -1903851086 ; 8e8589b2H
  00ae0	c7 85 04 ff ff
	ff b2 98 82 87	 mov	 DWORD PTR ___encStr$531747[ebp+16], -2021484366 ; 878298b2H
  00aea	8d 85 f4 fe ff
	ff		 lea	 eax, DWORD PTR ___encStr$531747[ebp]
  00af0	66 c7 85 08 ff
	ff ff 88 00	 mov	 WORD PTR ___encStr$531747[ebp+20], 136 ; 00000088H
  00af9	59		 pop	 ecx
$LL2632@LoadProper:
  00afa	81 30 ed ec eb
	ea		 xor	 DWORD PTR [eax], -353637139 ; eaebecedH
  00b00	83 c0 04	 add	 eax, 4
  00b03	49		 dec	 ecx
  00b04	75 f4		 jne	 SHORT $LL2632@LoadProper
  00b06	ff b5 98 fb ff
	ff		 push	 DWORD PTR tv28679[ebp]
  00b0c	80 b5 08 ff ff
	ff ed		 xor	 BYTE PTR ___encStr$531747[ebp+20], -19 ; ffffffedH
  00b13	8d 85 f4 fe ff
	ff		 lea	 eax, DWORD PTR ___encStr$531747[ebp]
  00b19	50		 push	 eax
  00b1a	8d 85 a0 fb ff
	ff		 lea	 eax, DWORD PTR _szBuf$[ebp]
  00b20	50		 push	 eax
  00b21	ff d3		 call	 ebx

; 102  : 		WaveInfo.m_dwEndTime = rkLoader.LoadInt( szBuf, 0 );			

  00b23	8b 8d 9c fb ff
	ff		 mov	 ecx, DWORD PTR _rkLoader$GSCopy$[ebp]
  00b29	83 c4 0c	 add	 esp, 12			; 0000000cH
  00b2c	6a 00		 push	 0
  00b2e	8d 85 a0 fb ff
	ff		 lea	 eax, DWORD PTR _szBuf$[ebp]
  00b34	50		 push	 eax
  00b35	ff d7		 call	 edi
  00b37	6a 04		 push	 4
  00b39	89 85 28 fb ff
	ff		 mov	 DWORD PTR _WaveInfo$531437[ebp+4], eax

; 103  : 		
; 104  : 		sprintf_e( szBuf, "sound_wave%d_offset",  iWave + 1 );

  00b3f	c7 85 10 ff ff
	ff 9e 83 9e 84	 mov	 DWORD PTR ___encStr$531899[ebp], -2069986402 ; 849e839eH
  00b49	c7 85 14 ff ff
	ff 89 b3 9c 8b	 mov	 DWORD PTR ___encStr$531899[ebp+4], -1952664695 ; 8b9cb389H
  00b53	c7 85 18 ff ff
	ff 9b 89 ce 8e	 mov	 DWORD PTR ___encStr$531899[ebp+8], -1899066981 ; 8ece899bH
  00b5d	c7 85 1c ff ff
	ff b2 83 8d 8c	 mov	 DWORD PTR ___encStr$531899[ebp+12], -1936882766 ; 8c8d83b2H
  00b67	8d 85 10 ff ff
	ff		 lea	 eax, DWORD PTR ___encStr$531899[ebp]
  00b6d	c7 85 20 ff ff
	ff 9e 89 9f 00	 mov	 DWORD PTR ___encStr$531899[ebp+16], 10455454 ; 009f899eH
  00b77	59		 pop	 ecx
$LL2640@LoadProper:
  00b78	81 30 ed ec eb
	ea		 xor	 DWORD PTR [eax], -353637139 ; eaebecedH
  00b7e	83 c0 04	 add	 eax, 4
  00b81	49		 dec	 ecx
  00b82	75 f4		 jne	 SHORT $LL2640@LoadProper
  00b84	6a 10		 push	 16			; 00000010H
  00b86	58		 pop	 eax
$LL2637@LoadProper:
  00b87	8b c8		 mov	 ecx, eax
  00b89	81 e1 03 00 00
	80		 and	 ecx, -2147483645	; 80000003H
  00b8f	79 05		 jns	 SHORT $LN3556@LoadProper
  00b91	49		 dec	 ecx
  00b92	83 c9 fc	 or	 ecx, -4			; fffffffcH
  00b95	41		 inc	 ecx
$LN3556@LoadProper:
  00b96	b2 ed		 mov	 dl, -19			; ffffffedH
  00b98	2a d1		 sub	 dl, cl
  00b9a	30 94 05 10 ff
	ff ff		 xor	 BYTE PTR ___encStr$531899[ebp+eax], dl
  00ba1	40		 inc	 eax
  00ba2	83 f8 13	 cmp	 eax, 19			; 00000013H
  00ba5	7c e0		 jl	 SHORT $LL2637@LoadProper
  00ba7	ff b5 98 fb ff
	ff		 push	 DWORD PTR tv28679[ebp]
  00bad	8d 85 10 ff ff
	ff		 lea	 eax, DWORD PTR ___encStr$531899[ebp]
  00bb3	50		 push	 eax
  00bb4	8d 85 a0 fb ff
	ff		 lea	 eax, DWORD PTR _szBuf$[ebp]
  00bba	50		 push	 eax
  00bbb	ff d3		 call	 ebx

; 105  : 		WaveInfo.m_fOffset = rkLoader.LoadFloat( szBuf, 0 );

  00bbd	0f 57 c0	 xorps	 xmm0, xmm0
  00bc0	59		 pop	 ecx
  00bc1	59		 pop	 ecx
  00bc2	8b 8d 9c fb ff
	ff		 mov	 ecx, DWORD PTR _rkLoader$GSCopy$[ebp]
  00bc8	8d 85 a0 fb ff
	ff		 lea	 eax, DWORD PTR _szBuf$[ebp]
  00bce	f3 0f 11 04 24	 movss	 DWORD PTR [esp], xmm0
  00bd3	50		 push	 eax
  00bd4	ff 15 00 00 00
	00		 call	 DWORD PTR __imp_?LoadFloat@ioINILoader@@QAEMPBDM@Z
  00bda	d9 9d 84 fb ff
	ff		 fstp	 DWORD PTR _WaveInfo$531437[ebp+96]
  00be0	6a 05		 push	 5

; 106  : 
; 107  : 		sprintf_e( szBuf, "sound_wave%d_need_gauge",  iWave + 1 );		

  00be2	c7 85 f8 fd ff
	ff 9e 83 9e 84	 mov	 DWORD PTR ___encStr$532051[ebp], -2069986402 ; 849e839eH
  00bec	c7 85 fc fd ff
	ff 89 b3 9c 8b	 mov	 DWORD PTR ___encStr$532051[ebp+4], -1952664695 ; 8b9cb389H
  00bf6	c7 85 00 fe ff
	ff 9b 89 ce 8e	 mov	 DWORD PTR ___encStr$532051[ebp+8], -1899066981 ; 8ece899bH
  00c00	c7 85 04 fe ff
	ff b2 82 8e 8f	 mov	 DWORD PTR ___encStr$532051[ebp+12], -1886485838 ; 8f8e82b2H
  00c0a	c7 85 08 fe ff
	ff 89 b3 8c 8b	 mov	 DWORD PTR ___encStr$532051[ebp+16], -1953713271 ; 8b8cb389H
  00c14	8d 85 f8 fd ff
	ff		 lea	 eax, DWORD PTR ___encStr$532051[ebp]
  00c1a	c7 85 0c fe ff
	ff 98 8b 8e 00	 mov	 DWORD PTR ___encStr$532051[ebp+20], 9341848 ; 008e8b98H
  00c24	59		 pop	 ecx
$LL2648@LoadProper:
  00c25	81 30 ed ec eb
	ea		 xor	 DWORD PTR [eax], -353637139 ; eaebecedH
  00c2b	83 c0 04	 add	 eax, 4
  00c2e	49		 dec	 ecx
  00c2f	75 f4		 jne	 SHORT $LL2648@LoadProper
  00c31	6a 14		 push	 20			; 00000014H
  00c33	58		 pop	 eax
$LL2645@LoadProper:
  00c34	8b c8		 mov	 ecx, eax
  00c36	81 e1 03 00 00
	80		 and	 ecx, -2147483645	; 80000003H
  00c3c	79 05		 jns	 SHORT $LN3557@LoadProper
  00c3e	49		 dec	 ecx
  00c3f	83 c9 fc	 or	 ecx, -4			; fffffffcH
  00c42	41		 inc	 ecx
$LN3557@LoadProper:
  00c43	b2 ed		 mov	 dl, -19			; ffffffedH
  00c45	2a d1		 sub	 dl, cl
  00c47	30 94 05 f8 fd
	ff ff		 xor	 BYTE PTR ___encStr$532051[ebp+eax], dl
  00c4e	40		 inc	 eax
  00c4f	83 f8 17	 cmp	 eax, 23			; 00000017H
  00c52	7c e0		 jl	 SHORT $LL2645@LoadProper
  00c54	ff b5 98 fb ff
	ff		 push	 DWORD PTR tv28679[ebp]
  00c5a	8d 85 f8 fd ff
	ff		 lea	 eax, DWORD PTR ___encStr$532051[ebp]
  00c60	50		 push	 eax
  00c61	8d 85 a0 fb ff
	ff		 lea	 eax, DWORD PTR _szBuf$[ebp]
  00c67	50		 push	 eax
  00c68	ff d3		 call	 ebx

; 108  : 		WaveInfo.m_fNeedGague = rkLoader.LoadFloat( szBuf, 0 );

  00c6a	0f 57 c0	 xorps	 xmm0, xmm0
  00c6d	59		 pop	 ecx
  00c6e	59		 pop	 ecx
  00c6f	8b 8d 9c fb ff
	ff		 mov	 ecx, DWORD PTR _rkLoader$GSCopy$[ebp]
  00c75	8d 85 a0 fb ff
	ff		 lea	 eax, DWORD PTR _szBuf$[ebp]
  00c7b	f3 0f 11 04 24	 movss	 DWORD PTR [esp], xmm0
  00c80	50		 push	 eax
  00c81	ff 15 00 00 00
	00		 call	 DWORD PTR __imp_?LoadFloat@ioINILoader@@QAEMPBDM@Z
  00c87	d9 9d 88 fb ff
	ff		 fstp	 DWORD PTR _WaveInfo$531437[ebp+100]
  00c8d	6a 04		 push	 4

; 109  : 
; 110  : 		sprintf_e( szBuf, "sound_wave%d_attack",  iWave + 1 );

  00c8f	c7 85 28 ff ff
	ff 9e 83 9e 84	 mov	 DWORD PTR ___encStr$532203[ebp], -2069986402 ; 849e839eH
  00c99	c7 85 2c ff ff
	ff 89 b3 9c 8b	 mov	 DWORD PTR ___encStr$532203[ebp+4], -1952664695 ; 8b9cb389H
  00ca3	c7 85 30 ff ff
	ff 9b 89 ce 8e	 mov	 DWORD PTR ___encStr$532203[ebp+8], -1899066981 ; 8ece899bH
  00cad	c7 85 34 ff ff
	ff b2 8d 9f 9e	 mov	 DWORD PTR ___encStr$532203[ebp+12], -1633710670 ; 9e9f8db2H
  00cb7	8d 85 28 ff ff
	ff		 lea	 eax, DWORD PTR ___encStr$532203[ebp]
  00cbd	c7 85 38 ff ff
	ff 8c 8f 80 00	 mov	 DWORD PTR ___encStr$532203[ebp+16], 8425356 ; 00808f8cH
  00cc7	59		 pop	 ecx
$LL2656@LoadProper:
  00cc8	81 30 ed ec eb
	ea		 xor	 DWORD PTR [eax], -353637139 ; eaebecedH
  00cce	83 c0 04	 add	 eax, 4
  00cd1	49		 dec	 ecx
  00cd2	75 f4		 jne	 SHORT $LL2656@LoadProper
  00cd4	6a 10		 push	 16			; 00000010H
  00cd6	58		 pop	 eax
$LL2653@LoadProper:
  00cd7	8b c8		 mov	 ecx, eax
  00cd9	81 e1 03 00 00
	80		 and	 ecx, -2147483645	; 80000003H
  00cdf	79 05		 jns	 SHORT $LN3558@LoadProper
  00ce1	49		 dec	 ecx
  00ce2	83 c9 fc	 or	 ecx, -4			; fffffffcH
  00ce5	41		 inc	 ecx
$LN3558@LoadProper:
  00ce6	b2 ed		 mov	 dl, -19			; ffffffedH
  00ce8	2a d1		 sub	 dl, cl
  00cea	30 94 05 28 ff
	ff ff		 xor	 BYTE PTR ___encStr$532203[ebp+eax], dl
  00cf1	40		 inc	 eax
  00cf2	83 f8 13	 cmp	 eax, 19			; 00000013H
  00cf5	7c e0		 jl	 SHORT $LL2653@LoadProper
  00cf7	ff b5 98 fb ff
	ff		 push	 DWORD PTR tv28679[ebp]
  00cfd	8d 85 28 ff ff
	ff		 lea	 eax, DWORD PTR ___encStr$532203[ebp]
  00d03	50		 push	 eax
  00d04	8d 85 a0 fb ff
	ff		 lea	 eax, DWORD PTR _szBuf$[ebp]
  00d0a	50		 push	 eax
  00d0b	ff d3		 call	 ebx

; 111  : 		LoadForceInfo( szBuf,  WaveInfo.m_WaveAttack, rkLoader );

  00d0d	ff b5 9c fb ff
	ff		 push	 DWORD PTR _rkLoader$GSCopy$[ebp]
  00d13	8d 85 34 fb ff
	ff		 lea	 eax, DWORD PTR _WaveInfo$531437[ebp+16]
  00d19	50		 push	 eax
  00d1a	8d 85 a0 fb ff
	ff		 lea	 eax, DWORD PTR _szBuf$[ebp]
  00d20	50		 push	 eax
  00d21	e8 00 00 00 00	 call	 ?LoadForceInfo@@YAXPBDAAUAttackAttribute@@AAVioINILoader@@@Z ; LoadForceInfo

; 112  : 		LoadWeaponInfo( szBuf, WaveInfo.m_WaveAttack, rkLoader );

  00d26	ff b5 9c fb ff
	ff		 push	 DWORD PTR _rkLoader$GSCopy$[ebp]
  00d2c	8d 85 34 fb ff
	ff		 lea	 eax, DWORD PTR _WaveInfo$531437[ebp+16]
  00d32	50		 push	 eax
  00d33	8d 85 a0 fb ff
	ff		 lea	 eax, DWORD PTR _szBuf$[ebp]
  00d39	50		 push	 eax
  00d3a	e8 00 00 00 00	 call	 ?LoadWeaponInfo@@YAXPBDAAUAttackAttribute@@AAVioINILoader@@@Z ; LoadWeaponInfo
  00d3f	83 c4 24	 add	 esp, 36			; 00000024H

; 113  : 		
; 114  : 		m_SoundWaveKeyVec.push_back( WaveInfo );

  00d42	8d 85 24 fb ff
	ff		 lea	 eax, DWORD PTR _WaveInfo$531437[ebp]
  00d48	50		 push	 eax
  00d49	8d 8e 7c 11 00
	00		 lea	 ecx, DWORD PTR [esi+4476]
  00d4f	e8 00 00 00 00	 call	 ?push_back@?$vector@UWaveKey@ioCrecendoSkill@@V?$allocator@UWaveKey@ioCrecendoSkill@@@std@@@std@@QAEXABUWaveKey@ioCrecendoSkill@@@Z ; std::vector<ioCrecendoSkill::WaveKey,std::allocator<ioCrecendoSkill::WaveKey> >::push_back

; 115  : 	}

  00d54	83 4d fc ff	 or	 DWORD PTR __$EHRec$[ebp+8], -1
  00d58	8d 8d 34 fb ff
	ff		 lea	 ecx, DWORD PTR _WaveInfo$531437[ebp+16]
  00d5e	e8 00 00 00 00	 call	 ??1AttackAttribute@@QAE@XZ
  00d63	ff 85 98 fb ff
	ff		 inc	 DWORD PTR tv28679[ebp]
  00d69	ff 8d 94 fb ff
	ff		 dec	 DWORD PTR tv11030[ebp]
  00d6f	0f 85 1a fc ff
	ff		 jne	 $LL696@LoadProper
$LN694@LoadProper:

; 116  : 
; 117  : 	m_LastSoundWaveKey.m_dwKey		  = rkLoader.LoadInt_e( "last_sound_wave_key", (int)WKS_LAST );	

  00d75	6a 04		 push	 4
  00d77	c7 85 58 ff ff
	ff 81 8d 98 9e	 mov	 DWORD PTR __k$547697[ebp], -1634169471 ; 9e988d81H
  00d81	c7 85 5c ff ff
	ff b2 9f 84 9f	 mov	 DWORD PTR __k$547697[ebp+4], -1618698318 ; 9f849fb2H
  00d8b	c7 85 60 ff ff
	ff 83 88 b4 9d	 mov	 DWORD PTR __k$547697[ebp+8], -1649112957 ; 9db48883H
  00d95	c7 85 64 ff ff
	ff 8c 9a 8e b5	 mov	 DWORD PTR __k$547697[ebp+12], -1248945524 ; b58e9a8cH
  00d9f	8d 85 58 ff ff
	ff		 lea	 eax, DWORD PTR __k$547697[ebp]
  00da5	c7 85 68 ff ff
	ff 86 89 92 00	 mov	 DWORD PTR __k$547697[ebp+16], 9603462 ; 00928986H
  00daf	59		 pop	 ecx
$LL2765@LoadProper:
  00db0	81 30 ed ec eb
	ea		 xor	 DWORD PTR [eax], -353637139 ; eaebecedH
  00db6	83 c0 04	 add	 eax, 4
  00db9	49		 dec	 ecx
  00dba	75 f4		 jne	 SHORT $LL2765@LoadProper
  00dbc	6a 10		 push	 16			; 00000010H
  00dbe	58		 pop	 eax
$LL2762@LoadProper:
  00dbf	8b c8		 mov	 ecx, eax
  00dc1	81 e1 03 00 00
	80		 and	 ecx, -2147483645	; 80000003H
  00dc7	79 05		 jns	 SHORT $LN3559@LoadProper
  00dc9	49		 dec	 ecx
  00dca	83 c9 fc	 or	 ecx, -4			; fffffffcH
  00dcd	41		 inc	 ecx
$LN3559@LoadProper:
  00dce	b2 ed		 mov	 dl, -19			; ffffffedH
  00dd0	2a d1		 sub	 dl, cl
  00dd2	30 94 05 58 ff
	ff ff		 xor	 BYTE PTR __k$547697[ebp+eax], dl
  00dd9	40		 inc	 eax
  00dda	83 f8 13	 cmp	 eax, 19			; 00000013H
  00ddd	7c e0		 jl	 SHORT $LL2762@LoadProper
  00ddf	8b 8d 9c fb ff
	ff		 mov	 ecx, DWORD PTR _rkLoader$GSCopy$[ebp]
  00de5	6a 05		 push	 5
  00de7	8d 85 58 ff ff
	ff		 lea	 eax, DWORD PTR __k$547697[ebp]
  00ded	50		 push	 eax
  00dee	ff d7		 call	 edi
  00df0	89 86 18 11 00
	00		 mov	 DWORD PTR [esi+4376], eax
  00df6	6a 06		 push	 6

; 118  : 	m_LastSoundWaveKey.m_dwStartTime  = rkLoader.LoadInt_e( "last_sound_wave_start_time", 0 );

  00df8	c7 85 9c fd ff
	ff 81 8d 98 9e	 mov	 DWORD PTR __k$547713[ebp], -1634169471 ; 9e988d81H
  00e02	c7 85 a0 fd ff
	ff b2 9f 84 9f	 mov	 DWORD PTR __k$547713[ebp+4], -1618698318 ; 9f849fb2H
  00e0c	c7 85 a4 fd ff
	ff 83 88 b4 9d	 mov	 DWORD PTR __k$547713[ebp+8], -1649112957 ; 9db48883H
  00e16	c7 85 a8 fd ff
	ff 8c 9a 8e b5	 mov	 DWORD PTR __k$547713[ebp+12], -1248945524 ; b58e9a8cH
  00e20	c7 85 ac fd ff
	ff 9e 98 8a 98	 mov	 DWORD PTR __k$547713[ebp+16], -1735747426 ; 988a989eH
  00e2a	c7 85 b0 fd ff
	ff 99 b3 9f 83	 mov	 DWORD PTR __k$547713[ebp+20], -2086685799 ; 839fb399H
  00e34	66 c7 85 b4 fd
	ff ff 80 89	 mov	 WORD PTR __k$547713[ebp+24], 35200 ; 00008980H
  00e3d	8d 85 9c fd ff
	ff		 lea	 eax, DWORD PTR __k$547713[ebp]
  00e43	c6 85 b6 fd ff
	ff 00		 mov	 BYTE PTR __k$547713[ebp+26], 0
  00e4a	59		 pop	 ecx
$LL2871@LoadProper:
  00e4b	81 30 ed ec eb
	ea		 xor	 DWORD PTR [eax], -353637139 ; eaebecedH
  00e51	83 c0 04	 add	 eax, 4
  00e54	49		 dec	 ecx
  00e55	75 f4		 jne	 SHORT $LL2871@LoadProper
  00e57	6a 18		 push	 24			; 00000018H
  00e59	58		 pop	 eax
$LL2868@LoadProper:
  00e5a	8b c8		 mov	 ecx, eax
  00e5c	81 e1 03 00 00
	80		 and	 ecx, -2147483645	; 80000003H
  00e62	79 05		 jns	 SHORT $LN3560@LoadProper
  00e64	49		 dec	 ecx
  00e65	83 c9 fc	 or	 ecx, -4			; fffffffcH
  00e68	41		 inc	 ecx
$LN3560@LoadProper:
  00e69	b2 ed		 mov	 dl, -19			; ffffffedH
  00e6b	2a d1		 sub	 dl, cl
  00e6d	30 94 05 9c fd
	ff ff		 xor	 BYTE PTR __k$547713[ebp+eax], dl
  00e74	40		 inc	 eax
  00e75	83 f8 1a	 cmp	 eax, 26			; 0000001aH
  00e78	7c e0		 jl	 SHORT $LL2868@LoadProper
  00e7a	8b 8d 9c fb ff
	ff		 mov	 ecx, DWORD PTR _rkLoader$GSCopy$[ebp]
  00e80	6a 00		 push	 0
  00e82	8d 85 9c fd ff
	ff		 lea	 eax, DWORD PTR __k$547713[ebp]
  00e88	50		 push	 eax
  00e89	ff d7		 call	 edi
  00e8b	89 86 10 11 00
	00		 mov	 DWORD PTR [esi+4368], eax
  00e91	6a 06		 push	 6

; 119  : 	m_LastSoundWaveKey.m_dwEndTime    = rkLoader.LoadInt_e( "last_sound_wave_end_time", 0 );		

  00e93	c7 85 f0 fc ff
	ff 81 8d 98 9e	 mov	 DWORD PTR __k$547838[ebp], -1634169471 ; 9e988d81H
  00e9d	c7 85 f4 fc ff
	ff b2 9f 84 9f	 mov	 DWORD PTR __k$547838[ebp+4], -1618698318 ; 9f849fb2H
  00ea7	c7 85 f8 fc ff
	ff 83 88 b4 9d	 mov	 DWORD PTR __k$547838[ebp+8], -1649112957 ; 9db48883H
  00eb1	c7 85 fc fc ff
	ff 8c 9a 8e b5	 mov	 DWORD PTR __k$547838[ebp+12], -1248945524 ; b58e9a8cH
  00ebb	c7 85 00 fd ff
	ff 88 82 8f b5	 mov	 DWORD PTR __k$547838[ebp+16], -1248886136 ; b58f8288H
  00ec5	c7 85 04 fd ff
	ff 99 85 86 8f	 mov	 DWORD PTR __k$547838[ebp+20], -1887009383 ; 8f868599H
  00ecf	8d 85 f0 fc ff
	ff		 lea	 eax, DWORD PTR __k$547838[ebp]
  00ed5	c6 85 08 fd ff
	ff 00		 mov	 BYTE PTR __k$547838[ebp+24], 0
  00edc	59		 pop	 ecx
$LL2977@LoadProper:
  00edd	81 30 ed ec eb
	ea		 xor	 DWORD PTR [eax], -353637139 ; eaebecedH
  00ee3	83 c0 04	 add	 eax, 4
  00ee6	49		 dec	 ecx
  00ee7	75 f4		 jne	 SHORT $LL2977@LoadProper
  00ee9	51		 push	 ecx
  00eea	8b 8d 9c fb ff
	ff		 mov	 ecx, DWORD PTR _rkLoader$GSCopy$[ebp]
  00ef0	8d 85 f0 fc ff
	ff		 lea	 eax, DWORD PTR __k$547838[ebp]
  00ef6	50		 push	 eax
  00ef7	ff d7		 call	 edi
  00ef9	89 86 14 11 00
	00		 mov	 DWORD PTR [esi+4372], eax
  00eff	6a 05		 push	 5

; 120  : 	m_LastSoundWaveKey.m_fOffset      = rkLoader.LoadFloat_e( "last_sound_wave_offset", 0 );	

  00f01	c7 85 30 fe ff
	ff 81 8d 98 9e	 mov	 DWORD PTR __k$547976[ebp], -1634169471 ; 9e988d81H
  00f0b	c7 85 34 fe ff
	ff b2 9f 84 9f	 mov	 DWORD PTR __k$547976[ebp+4], -1618698318 ; 9f849fb2H
  00f15	c7 85 38 fe ff
	ff 83 88 b4 9d	 mov	 DWORD PTR __k$547976[ebp+8], -1649112957 ; 9db48883H
  00f1f	c7 85 3c fe ff
	ff 8c 9a 8e b5	 mov	 DWORD PTR __k$547976[ebp+12], -1248945524 ; b58e9a8cH
  00f29	c7 85 40 fe ff
	ff 82 8a 8d 99	 mov	 DWORD PTR __k$547976[ebp+16], -1718777214 ; 998d8a82H
  00f33	66 c7 85 44 fe
	ff ff 88 98	 mov	 WORD PTR __k$547976[ebp+20], 39048 ; 00009888H
  00f3c	8d 85 30 fe ff
	ff		 lea	 eax, DWORD PTR __k$547976[ebp]
  00f42	c6 85 46 fe ff
	ff 00		 mov	 BYTE PTR __k$547976[ebp+22], 0
  00f49	59		 pop	 ecx
$LL3083@LoadProper:
  00f4a	81 30 ed ec eb
	ea		 xor	 DWORD PTR [eax], -353637139 ; eaebecedH
  00f50	83 c0 04	 add	 eax, 4
  00f53	49		 dec	 ecx
  00f54	75 f4		 jne	 SHORT $LL3083@LoadProper
  00f56	6a 14		 push	 20			; 00000014H
  00f58	58		 pop	 eax
$LL3080@LoadProper:
  00f59	8b c8		 mov	 ecx, eax
  00f5b	81 e1 03 00 00
	80		 and	 ecx, -2147483645	; 80000003H
  00f61	79 05		 jns	 SHORT $LN3561@LoadProper
  00f63	49		 dec	 ecx
  00f64	83 c9 fc	 or	 ecx, -4			; fffffffcH
  00f67	41		 inc	 ecx
$LN3561@LoadProper:
  00f68	b2 ed		 mov	 dl, -19			; ffffffedH
  00f6a	2a d1		 sub	 dl, cl
  00f6c	30 94 05 30 fe
	ff ff		 xor	 BYTE PTR __k$547976[ebp+eax], dl
  00f73	40		 inc	 eax
  00f74	83 f8 16	 cmp	 eax, 22			; 00000016H
  00f77	7c e0		 jl	 SHORT $LL3080@LoadProper
  00f79	0f 57 c0	 xorps	 xmm0, xmm0
  00f7c	51		 push	 ecx
  00f7d	8b 8d 9c fb ff
	ff		 mov	 ecx, DWORD PTR _rkLoader$GSCopy$[ebp]
  00f83	8d 85 30 fe ff
	ff		 lea	 eax, DWORD PTR __k$547976[ebp]
  00f89	f3 0f 11 04 24	 movss	 DWORD PTR [esp], xmm0
  00f8e	50		 push	 eax
  00f8f	ff 15 00 00 00
	00		 call	 DWORD PTR __imp_?LoadFloat@ioINILoader@@QAEMPBDM@Z
  00f95	d9 9e 70 11 00
	00		 fstp	 DWORD PTR [esi+4464]
  00f9b	6a 06		 push	 6

; 121  : 	m_LastSoundWaveKey.m_fNeedGague   = rkLoader.LoadFloat_e( "last_sound_wave_need_gauge", 0 );

  00f9d	c7 85 bc fd ff
	ff 81 8d 98 9e	 mov	 DWORD PTR __k$548101[ebp], -1634169471 ; 9e988d81H
  00fa7	c7 85 c0 fd ff
	ff b2 9f 84 9f	 mov	 DWORD PTR __k$548101[ebp+4], -1618698318 ; 9f849fb2H
  00fb1	c7 85 c4 fd ff
	ff 83 88 b4 9d	 mov	 DWORD PTR __k$548101[ebp+8], -1649112957 ; 9db48883H
  00fbb	c7 85 c8 fd ff
	ff 8c 9a 8e b5	 mov	 DWORD PTR __k$548101[ebp+12], -1248945524 ; b58e9a8cH
  00fc5	c7 85 cc fd ff
	ff 83 89 8e 8e	 mov	 DWORD PTR __k$548101[ebp+16], -1903261309 ; 8e8e8983H
  00fcf	c7 85 d0 fd ff
	ff b2 8b 8a 9f	 mov	 DWORD PTR __k$548101[ebp+20], -1618310222 ; 9f8a8bb2H
  00fd9	66 c7 85 d4 fd
	ff ff 8a 89	 mov	 WORD PTR __k$548101[ebp+24], 35210 ; 0000898aH
  00fe2	8d 85 bc fd ff
	ff		 lea	 eax, DWORD PTR __k$548101[ebp]
  00fe8	c6 85 d6 fd ff
	ff 00		 mov	 BYTE PTR __k$548101[ebp+26], 0
  00fef	59		 pop	 ecx
$LL3189@LoadProper:
  00ff0	81 30 ed ec eb
	ea		 xor	 DWORD PTR [eax], -353637139 ; eaebecedH
  00ff6	83 c0 04	 add	 eax, 4
  00ff9	49		 dec	 ecx
  00ffa	75 f4		 jne	 SHORT $LL3189@LoadProper
  00ffc	6a 18		 push	 24			; 00000018H
  00ffe	58		 pop	 eax
$LL3186@LoadProper:
  00fff	8b c8		 mov	 ecx, eax
  01001	81 e1 03 00 00
	80		 and	 ecx, -2147483645	; 80000003H
  01007	79 05		 jns	 SHORT $LN3562@LoadProper
  01009	49		 dec	 ecx
  0100a	83 c9 fc	 or	 ecx, -4			; fffffffcH
  0100d	41		 inc	 ecx
$LN3562@LoadProper:
  0100e	b2 ed		 mov	 dl, -19			; ffffffedH
  01010	2a d1		 sub	 dl, cl
  01012	30 94 05 bc fd
	ff ff		 xor	 BYTE PTR __k$548101[ebp+eax], dl
  01019	40		 inc	 eax
  0101a	83 f8 1a	 cmp	 eax, 26			; 0000001aH
  0101d	7c e0		 jl	 SHORT $LL3186@LoadProper
  0101f	0f 57 c0	 xorps	 xmm0, xmm0
  01022	51		 push	 ecx
  01023	8b 8d 9c fb ff
	ff		 mov	 ecx, DWORD PTR _rkLoader$GSCopy$[ebp]
  01029	8d 85 bc fd ff
	ff		 lea	 eax, DWORD PTR __k$548101[ebp]
  0102f	f3 0f 11 04 24	 movss	 DWORD PTR [esp], xmm0
  01034	50		 push	 eax
  01035	ff 15 00 00 00
	00		 call	 DWORD PTR __imp_?LoadFloat@ioINILoader@@QAEMPBDM@Z
  0103b	d9 9e 74 11 00
	00		 fstp	 DWORD PTR [esi+4468]
  01041	6a 08		 push	 8

; 122  : 	m_LastSoundWaveKey.m_fTargetRange = rkLoader.LoadFloat_e( "last_sound_wave_auto_target_range", 0 );

  01043	c7 85 74 fd ff
	ff 81 8d 98 9e	 mov	 DWORD PTR __k$548226[ebp], -1634169471 ; 9e988d81H
  0104d	c7 85 78 fd ff
	ff b2 9f 84 9f	 mov	 DWORD PTR __k$548226[ebp+4], -1618698318 ; 9f849fb2H
  01057	c7 85 7c fd ff
	ff 83 88 b4 9d	 mov	 DWORD PTR __k$548226[ebp+8], -1649112957 ; 9db48883H
  01061	c7 85 80 fd ff
	ff 8c 9a 8e b5	 mov	 DWORD PTR __k$548226[ebp+12], -1248945524 ; b58e9a8cH
  0106b	c7 85 84 fd ff
	ff 8c 99 9f 85	 mov	 DWORD PTR __k$548226[ebp+16], -2053138036 ; 859f998cH
  01075	c7 85 88 fd ff
	ff b2 98 8a 98	 mov	 DWORD PTR __k$548226[ebp+20], -1735747406 ; 988a98b2H
  0107f	c7 85 8c fd ff
	ff 8a 89 9f b5	 mov	 DWORD PTR __k$548226[ebp+24], -1247835766 ; b59f898aH
  01089	c7 85 90 fd ff
	ff 9f 8d 85 8d	 mov	 DWORD PTR __k$548226[ebp+28], -1920627297 ; 8d858d9fH
  01093	8d 85 74 fd ff
	ff		 lea	 eax, DWORD PTR __k$548226[ebp]
  01099	66 c7 85 94 fd
	ff ff 88 00	 mov	 WORD PTR __k$548226[ebp+32], 136 ; 00000088H
  010a2	59		 pop	 ecx
$LL3295@LoadProper:
  010a3	81 30 ed ec eb
	ea		 xor	 DWORD PTR [eax], -353637139 ; eaebecedH
  010a9	83 c0 04	 add	 eax, 4
  010ac	49		 dec	 ecx
  010ad	75 f4		 jne	 SHORT $LL3295@LoadProper
  010af	0f 57 c0	 xorps	 xmm0, xmm0
  010b2	80 b5 94 fd ff
	ff ed		 xor	 BYTE PTR __k$548226[ebp+32], -19 ; ffffffedH
  010b9	51		 push	 ecx
  010ba	8b 8d 9c fb ff
	ff		 mov	 ecx, DWORD PTR _rkLoader$GSCopy$[ebp]
  010c0	8d 85 74 fd ff
	ff		 lea	 eax, DWORD PTR __k$548226[ebp]
  010c6	f3 0f 11 04 24	 movss	 DWORD PTR [esp], xmm0
  010cb	50		 push	 eax
  010cc	ff 15 00 00 00
	00		 call	 DWORD PTR __imp_?LoadFloat@ioINILoader@@QAEMPBDM@Z
  010d2	d9 9e 78 11 00
	00		 fstp	 DWORD PTR [esi+4472]
  010d8	6a 05		 push	 5

; 123  : 
; 124  : 	sprintf_e( szBuf, "last_sound_wave_attack",  iWave + 1 );

  010da	c7 85 84 fe ff
	ff 81 8d 98 9e	 mov	 DWORD PTR ___encStr$532378[ebp], -1634169471 ; 9e988d81H
  010e4	c7 85 88 fe ff
	ff b2 9f 84 9f	 mov	 DWORD PTR ___encStr$532378[ebp+4], -1618698318 ; 9f849fb2H
  010ee	c7 85 8c fe ff
	ff 83 88 b4 9d	 mov	 DWORD PTR ___encStr$532378[ebp+8], -1649112957 ; 9db48883H
  010f8	c7 85 90 fe ff
	ff 8c 9a 8e b5	 mov	 DWORD PTR ___encStr$532378[ebp+12], -1248945524 ; b58e9a8cH
  01102	c7 85 94 fe ff
	ff 8c 98 9f 8b	 mov	 DWORD PTR ___encStr$532378[ebp+16], -1952474996 ; 8b9f988cH
  0110c	66 c7 85 98 fe
	ff ff 8e 87	 mov	 WORD PTR ___encStr$532378[ebp+20], 34702 ; 0000878eH
  01115	8d 85 84 fe ff
	ff		 lea	 eax, DWORD PTR ___encStr$532378[ebp]
  0111b	c6 85 9a fe ff
	ff 00		 mov	 BYTE PTR ___encStr$532378[ebp+22], 0
  01122	59		 pop	 ecx
$LL3303@LoadProper:
  01123	81 30 ed ec eb
	ea		 xor	 DWORD PTR [eax], -353637139 ; eaebecedH
  01129	83 c0 04	 add	 eax, 4
  0112c	49		 dec	 ecx
  0112d	75 f4		 jne	 SHORT $LL3303@LoadProper
  0112f	6a 14		 push	 20			; 00000014H
  01131	58		 pop	 eax
$LL3300@LoadProper:
  01132	8b c8		 mov	 ecx, eax
  01134	81 e1 03 00 00
	80		 and	 ecx, -2147483645	; 80000003H
  0113a	79 05		 jns	 SHORT $LN3563@LoadProper
  0113c	49		 dec	 ecx
  0113d	83 c9 fc	 or	 ecx, -4			; fffffffcH
  01140	41		 inc	 ecx
$LN3563@LoadProper:
  01141	b2 ed		 mov	 dl, -19			; ffffffedH
  01143	2a d1		 sub	 dl, cl
  01145	30 94 05 84 fe
	ff ff		 xor	 BYTE PTR ___encStr$532378[ebp+eax], dl
  0114c	40		 inc	 eax
  0114d	83 f8 16	 cmp	 eax, 22			; 00000016H
  01150	7c e0		 jl	 SHORT $LL3300@LoadProper
  01152	8b 85 90 fb ff
	ff		 mov	 eax, DWORD PTR _iWave$531433[ebp]
  01158	40		 inc	 eax
  01159	50		 push	 eax
  0115a	8d 85 84 fe ff
	ff		 lea	 eax, DWORD PTR ___encStr$532378[ebp]
  01160	50		 push	 eax
  01161	8d 85 a0 fb ff
	ff		 lea	 eax, DWORD PTR _szBuf$[ebp]
  01167	50		 push	 eax
  01168	ff d3		 call	 ebx

; 125  : 	LoadForceInfo( szBuf,  m_LastSoundWaveKey.m_WaveAttack, rkLoader );

  0116a	ff b5 9c fb ff
	ff		 push	 DWORD PTR _rkLoader$GSCopy$[ebp]
  01170	8d 9e 20 11 00
	00		 lea	 ebx, DWORD PTR [esi+4384]
  01176	8d 85 a0 fb ff
	ff		 lea	 eax, DWORD PTR _szBuf$[ebp]
  0117c	53		 push	 ebx
  0117d	50		 push	 eax
  0117e	e8 00 00 00 00	 call	 ?LoadForceInfo@@YAXPBDAAUAttackAttribute@@AAVioINILoader@@@Z ; LoadForceInfo

; 126  : 	LoadWeaponInfo( szBuf, m_LastSoundWaveKey.m_WaveAttack, rkLoader );

  01183	ff b5 9c fb ff
	ff		 push	 DWORD PTR _rkLoader$GSCopy$[ebp]
  01189	8d 85 a0 fb ff
	ff		 lea	 eax, DWORD PTR _szBuf$[ebp]
  0118f	53		 push	 ebx
  01190	50		 push	 eax
  01191	e8 00 00 00 00	 call	 ?LoadWeaponInfo@@YAXPBDAAUAttackAttribute@@AAVioINILoader@@@Z ; LoadWeaponInfo
  01196	83 c4 24	 add	 esp, 36			; 00000024H
  01199	6a 04		 push	 4

; 127  : 
; 128  : 	m_dwSkillProtectTime = rkLoader.LoadInt_e( "skill_protect_time", 0 );

  0119b	c7 85 70 ff ff
	ff 9e 87 82 86	 mov	 DWORD PTR __k$548373[ebp], -2038265954 ; 8682879eH
  011a5	c7 85 74 ff ff
	ff 81 b3 9b 98	 mov	 DWORD PTR __k$548373[ebp+4], -1734626431 ; 989bb381H
  011af	c7 85 78 ff ff
	ff 82 98 8e 89	 mov	 DWORD PTR __k$548373[ebp+8], -1987143550 ; 898e9882H
  011b9	c7 85 7c ff ff
	ff 99 b3 9f 83	 mov	 DWORD PTR __k$548373[ebp+12], -2086685799 ; 839fb399H
  011c3	66 c7 45 80 80
	89		 mov	 WORD PTR __k$548373[ebp+16], 35200 ; 00008980H
  011c9	8d 85 70 ff ff
	ff		 lea	 eax, DWORD PTR __k$548373[ebp]
  011cf	c6 45 82 00	 mov	 BYTE PTR __k$548373[ebp+18], 0
  011d3	59		 pop	 ecx
$LL3409@LoadProper:
  011d4	81 30 ed ec eb
	ea		 xor	 DWORD PTR [eax], -353637139 ; eaebecedH
  011da	83 c0 04	 add	 eax, 4
  011dd	49		 dec	 ecx
  011de	75 f4		 jne	 SHORT $LL3409@LoadProper
  011e0	6a 10		 push	 16			; 00000010H
  011e2	58		 pop	 eax
$LL3406@LoadProper:
  011e3	8b c8		 mov	 ecx, eax
  011e5	81 e1 03 00 00
	80		 and	 ecx, -2147483645	; 80000003H
  011eb	79 05		 jns	 SHORT $LN3564@LoadProper
  011ed	49		 dec	 ecx
  011ee	83 c9 fc	 or	 ecx, -4			; fffffffcH
  011f1	41		 inc	 ecx
$LN3564@LoadProper:
  011f2	b2 ed		 mov	 dl, -19			; ffffffedH
  011f4	2a d1		 sub	 dl, cl
  011f6	30 94 05 70 ff
	ff ff		 xor	 BYTE PTR __k$548373[ebp+eax], dl
  011fd	40		 inc	 eax
  011fe	83 f8 12	 cmp	 eax, 18			; 00000012H
  01201	7c e0		 jl	 SHORT $LL3406@LoadProper
  01203	8b 8d 9c fb ff
	ff		 mov	 ecx, DWORD PTR _rkLoader$GSCopy$[ebp]
  01209	6a 00		 push	 0
  0120b	8d 85 70 ff ff
	ff		 lea	 eax, DWORD PTR __k$548373[ebp]
  01211	50		 push	 eax
  01212	ff d7		 call	 edi
  01214	89 86 08 11 00
	00		 mov	 DWORD PTR [esi+4360], eax
$LN698@LoadProper:

; 129  : }

  0121a	e8 00 00 00 00	 call	 __EH_epilog3_GS
  0121f	c2 04 00	 ret	 4
_TEXT	ENDS
;	COMDAT text$x
text$x	SEGMENT
__unwindfunclet$?LoadProperty@ioCrecendoSkill@@UAEXAAVioINILoader@@@Z$0:
  00000	8d 8d 24 fb ff
	ff		 lea	 ecx, DWORD PTR _WaveInfo$531437[ebp]
  00006	e9 00 00 00 00	 jmp	 ??1WaveKey@ioCrecendoSkill@@QAE@XZ
__ehhandler$?LoadProperty@ioCrecendoSkill@@UAEXAAVioINILoader@@@Z:
  0000b	8b 54 24 08	 mov	 edx, DWORD PTR [esp+8]
  0000f	8d 42 0c	 lea	 eax, DWORD PTR [edx+12]
  00012	8b 8a 20 fb ff
	ff		 mov	 ecx, DWORD PTR [edx-1248]
  00018	33 c8		 xor	 ecx, eax
  0001a	e8 00 00 00 00	 call	 @__security_check_cookie@4
  0001f	8b 4a fc	 mov	 ecx, DWORD PTR [edx-4]
  00022	33 c8		 xor	 ecx, eax
  00024	e8 00 00 00 00	 call	 @__security_check_cookie@4
  00029	b8 00 00 00 00	 mov	 eax, OFFSET __ehfuncinfo$?LoadProperty@ioCrecendoSkill@@UAEXAAVioINILoader@@@Z
  0002e	e9 00 00 00 00	 jmp	 ___CxxFrameHandler3
text$x	ENDS
?LoadProperty@ioCrecendoSkill@@UAEXAAVioINILoader@@@Z ENDP ; ioCrecendoSkill::LoadProperty
END
