; Listing generated by Microsoft (R) Optimizing Compiler Version 16.00.30319.01 

	TITLE	D:\Lost Saga For Developer\Youtube\Tutorial\Source\src\LSClient\ioCrecendoSkill.cpp
	.686P
	.XMM
	include listing.inc
	.model	flat

INCLUDELIB MSVCRT
INCLUDELIB OLDNAMES

PUBLIC	?_EEM_DS@?$deque@UD3DXVECTOR3@@V?$allocator@UD3DXVECTOR3@@@std@@@std@@2HB ; std::deque<D3DXVECTOR3,std::allocator<D3DXVECTOR3> >::_EEM_DS
;	COMDAT ?_EEM_DS@?$deque@UD3DXVECTOR3@@V?$allocator@UD3DXVECTOR3@@@std@@@std@@2HB
CONST	SEGMENT
?_EEM_DS@?$deque@UD3DXVECTOR3@@V?$allocator@UD3DXVECTOR3@@@std@@@std@@2HB DD 01H ; std::deque<D3DXVECTOR3,std::allocator<D3DXVECTOR3> >::_EEM_DS
CONST	ENDS
PUBLIC	?return1@@YAIXZ					; return1
; Function compile flags: /Ogsp
; File d:\lost saga for developer\youtube\tutorial\source\src\lsclient\stdafx.h
;	COMDAT ?return1@@YAIXZ
_TEXT	SEGMENT
?return1@@YAIXZ PROC					; return1, COMDAT

; 17   : 	__forceinline unsigned int return1() { __asm mov eax, 1 };

  00000	b8 01 00 00 00	 mov	 eax, 1
  00005	c3		 ret	 0
?return1@@YAIXZ ENDP					; return1
_TEXT	ENDS
PUBLIC	?return5@@YAIXZ					; return5
; Function compile flags: /Ogsp
;	COMDAT ?return5@@YAIXZ
_TEXT	SEGMENT
?return5@@YAIXZ PROC					; return5, COMDAT

; 18   : 	__forceinline unsigned int return5() { __asm mov eax, 5 };

  00000	b8 05 00 00 00	 mov	 eax, 5
  00005	c3		 ret	 0
?return5@@YAIXZ ENDP					; return5
_TEXT	ENDS
PUBLIC	?return10@@YAIXZ				; return10
; Function compile flags: /Ogsp
;	COMDAT ?return10@@YAIXZ
_TEXT	SEGMENT
?return10@@YAIXZ PROC					; return10, COMDAT

; 21   : 	__forceinline unsigned int return10() { __asm mov eax, 10 };

  00000	b8 0a 00 00 00	 mov	 eax, 10			; 0000000aH
  00005	c3		 ret	 0
?return10@@YAIXZ ENDP					; return10
_TEXT	ENDS
PUBLIC	?return100@@YAIXZ				; return100
; Function compile flags: /Ogsp
;	COMDAT ?return100@@YAIXZ
_TEXT	SEGMENT
?return100@@YAIXZ PROC					; return100, COMDAT

; 25   : 	__forceinline unsigned int return100() { __asm mov eax, 100 };

  00000	b8 64 00 00 00	 mov	 eax, 100		; 00000064H
  00005	c3		 ret	 0
?return100@@YAIXZ ENDP					; return100
_TEXT	ENDS
PUBLIC	?GetCharName@ioBaseChar@@QBEABVioHashString@@XZ	; ioBaseChar::GetCharName
; Function compile flags: /Ogsp
; File d:\lost saga for developer\youtube\tutorial\source\src\lsclient\iobasechar.h
;	COMDAT ?GetCharName@ioBaseChar@@QBEABVioHashString@@XZ
_TEXT	SEGMENT
?GetCharName@ioBaseChar@@QBEABVioHashString@@XZ PROC	; ioBaseChar::GetCharName, COMDAT
; _this$ = ecx

; 2594 : 	inline const ioHashString& GetCharName() const { return m_Name; }

  00000	8d 81 d4 02 00
	00		 lea	 eax, DWORD PTR [ecx+724]
  00006	c3		 ret	 0
?GetCharName@ioBaseChar@@QBEABVioHashString@@XZ ENDP	; ioBaseChar::GetCharName
_TEXT	ENDS
PUBLIC	?GetTargetRot@ioBaseChar@@QBEABUD3DXQUATERNION@@XZ ; ioBaseChar::GetTargetRot
; Function compile flags: /Ogsp
;	COMDAT ?GetTargetRot@ioBaseChar@@QBEABUD3DXQUATERNION@@XZ
_TEXT	SEGMENT
?GetTargetRot@ioBaseChar@@QBEABUD3DXQUATERNION@@XZ PROC	; ioBaseChar::GetTargetRot, COMDAT
; _this$ = ecx

; 2599 : 	inline const D3DXQUATERNION& GetTargetRot() const { return m_qtTargetRot; }

  00000	8d 81 a4 06 00
	00		 lea	 eax, DWORD PTR [ecx+1700]
  00006	c3		 ret	 0
?GetTargetRot@ioBaseChar@@QBEABUD3DXQUATERNION@@XZ ENDP	; ioBaseChar::GetTargetRot
_TEXT	ENDS
PUBLIC	_sqrtf
EXTRN	__fltused:DWORD
EXTRN	__CIsqrt:PROC
; Function compile flags: /Ogsp
; File c:\program files (x86)\microsoft visual studio 10.0\vc\include\math.h
;	COMDAT _sqrtf
_TEXT	SEGMENT
tv69 = 8						; size = 4
__X$ = 8						; size = 4
_sqrtf	PROC						; COMDAT

; 434  :         {return ((float)sqrt((double)_X)); }

  00000	55		 push	 ebp
  00001	8b ec		 mov	 ebp, esp
  00003	d9 45 08	 fld	 DWORD PTR __X$[ebp]
  00006	e8 00 00 00 00	 call	 __CIsqrt
  0000b	d9 5d 08	 fstp	 DWORD PTR tv69[ebp]
  0000e	d9 45 08	 fld	 DWORD PTR tv69[ebp]
  00011	5d		 pop	 ebp
  00012	c3		 ret	 0
_sqrtf	ENDP
_TEXT	ENDS
PUBLIC	?IsLeftKeyRelease@ioBaseChar@@QBE_NXZ		; ioBaseChar::IsLeftKeyRelease
EXTRN	?IsLeftKeyRelease@ioUserKeyInput@@QBE_NXZ:PROC	; ioUserKeyInput::IsLeftKeyRelease
; Function compile flags: /Ogsp
; File d:\lost saga for developer\youtube\tutorial\source\src\lsclient\iobasechar.h
;	COMDAT ?IsLeftKeyRelease@ioBaseChar@@QBE_NXZ
_TEXT	SEGMENT
?IsLeftKeyRelease@ioBaseChar@@QBE_NXZ PROC		; ioBaseChar::IsLeftKeyRelease, COMDAT
; _this$ = ecx

; 3384 : 	bool IsLeftKeyRelease() const { return m_KeyInput.IsLeftKeyRelease(); }

  00000	81 c1 80 0c 00
	00		 add	 ecx, 3200		; 00000c80H
  00006	e9 00 00 00 00	 jmp	 ?IsLeftKeyRelease@ioUserKeyInput@@QBE_NXZ ; ioUserKeyInput::IsLeftKeyRelease
?IsLeftKeyRelease@ioBaseChar@@QBE_NXZ ENDP		; ioBaseChar::IsLeftKeyRelease
_TEXT	ENDS
PUBLIC	?IsRightKeyRelease@ioBaseChar@@QBE_NXZ		; ioBaseChar::IsRightKeyRelease
EXTRN	?IsRightKeyRelease@ioUserKeyInput@@QBE_NXZ:PROC	; ioUserKeyInput::IsRightKeyRelease
; Function compile flags: /Ogsp
;	COMDAT ?IsRightKeyRelease@ioBaseChar@@QBE_NXZ
_TEXT	SEGMENT
?IsRightKeyRelease@ioBaseChar@@QBE_NXZ PROC		; ioBaseChar::IsRightKeyRelease, COMDAT
; _this$ = ecx

; 3385 : 	bool IsRightKeyRelease() const { return m_KeyInput.IsRightKeyRelease(); }

  00000	81 c1 80 0c 00
	00		 add	 ecx, 3200		; 00000c80H
  00006	e9 00 00 00 00	 jmp	 ?IsRightKeyRelease@ioUserKeyInput@@QBE_NXZ ; ioUserKeyInput::IsRightKeyRelease
?IsRightKeyRelease@ioBaseChar@@QBE_NXZ ENDP		; ioBaseChar::IsRightKeyRelease
_TEXT	ENDS
PUBLIC	?IsUpKeyRelease@ioBaseChar@@QBE_NXZ		; ioBaseChar::IsUpKeyRelease
EXTRN	?IsUpKeyRelease@ioUserKeyInput@@QBE_NXZ:PROC	; ioUserKeyInput::IsUpKeyRelease
; Function compile flags: /Ogsp
;	COMDAT ?IsUpKeyRelease@ioBaseChar@@QBE_NXZ
_TEXT	SEGMENT
?IsUpKeyRelease@ioBaseChar@@QBE_NXZ PROC		; ioBaseChar::IsUpKeyRelease, COMDAT
; _this$ = ecx

; 3386 : 	bool IsUpKeyRelease() const { return m_KeyInput.IsUpKeyRelease(); }

  00000	81 c1 80 0c 00
	00		 add	 ecx, 3200		; 00000c80H
  00006	e9 00 00 00 00	 jmp	 ?IsUpKeyRelease@ioUserKeyInput@@QBE_NXZ ; ioUserKeyInput::IsUpKeyRelease
?IsUpKeyRelease@ioBaseChar@@QBE_NXZ ENDP		; ioBaseChar::IsUpKeyRelease
_TEXT	ENDS
PUBLIC	?IsDownKeyRelease@ioBaseChar@@QBE_NXZ		; ioBaseChar::IsDownKeyRelease
EXTRN	?IsDownKeyRelease@ioUserKeyInput@@QBE_NXZ:PROC	; ioUserKeyInput::IsDownKeyRelease
; Function compile flags: /Ogsp
;	COMDAT ?IsDownKeyRelease@ioBaseChar@@QBE_NXZ
_TEXT	SEGMENT
?IsDownKeyRelease@ioBaseChar@@QBE_NXZ PROC		; ioBaseChar::IsDownKeyRelease, COMDAT
; _this$ = ecx

; 3387 : 	bool IsDownKeyRelease() const { return m_KeyInput.IsDownKeyRelease(); }

  00000	81 c1 80 0c 00
	00		 add	 ecx, 3200		; 00000c80H
  00006	e9 00 00 00 00	 jmp	 ?IsDownKeyRelease@ioUserKeyInput@@QBE_NXZ ; ioUserKeyInput::IsDownKeyRelease
?IsDownKeyRelease@ioBaseChar@@QBE_NXZ ENDP		; ioBaseChar::IsDownKeyRelease
_TEXT	ENDS
PUBLIC	?GetCurDirMixKey@ioBaseChar@@QBE?AW4DirMixInput@ioUserKeyInput@@XZ ; ioBaseChar::GetCurDirMixKey
EXTRN	?GetCurDirMixKey@ioUserKeyInput@@QBE?AW4DirMixInput@1@XZ:PROC ; ioUserKeyInput::GetCurDirMixKey
; Function compile flags: /Ogsp
;	COMDAT ?GetCurDirMixKey@ioBaseChar@@QBE?AW4DirMixInput@ioUserKeyInput@@XZ
_TEXT	SEGMENT
?GetCurDirMixKey@ioBaseChar@@QBE?AW4DirMixInput@ioUserKeyInput@@XZ PROC ; ioBaseChar::GetCurDirMixKey, COMDAT
; _this$ = ecx

; 3405 : 	ioUserKeyInput::DirMixInput GetCurDirMixKey() const { return m_KeyInput.GetCurDirMixKey(); }

  00000	81 c1 80 0c 00
	00		 add	 ecx, 3200		; 00000c80H
  00006	e9 00 00 00 00	 jmp	 ?GetCurDirMixKey@ioUserKeyInput@@QBE?AW4DirMixInput@1@XZ ; ioUserKeyInput::GetCurDirMixKey
?GetCurDirMixKey@ioBaseChar@@QBE?AW4DirMixInput@ioUserKeyInput@@XZ ENDP ; ioBaseChar::GetCurDirMixKey
_TEXT	ENDS
PUBLIC	??_7bad_alloc@std@@6B@				; std::bad_alloc::`vftable'
PUBLIC	??0bad_alloc@std@@QAE@PBD@Z			; std::bad_alloc::bad_alloc
PUBLIC	??_R4bad_alloc@std@@6B@				; std::bad_alloc::`RTTI Complete Object Locator'
PUBLIC	??_R0?AVbad_alloc@std@@@8			; std::bad_alloc `RTTI Type Descriptor'
PUBLIC	??_R3bad_alloc@std@@8				; std::bad_alloc::`RTTI Class Hierarchy Descriptor'
PUBLIC	??_R2bad_alloc@std@@8				; std::bad_alloc::`RTTI Base Class Array'
PUBLIC	??_R1A@?0A@EA@bad_alloc@std@@8			; std::bad_alloc::`RTTI Base Class Descriptor at (0,-1,0,64)'
PUBLIC	??_R1A@?0A@EA@exception@std@@8			; std::exception::`RTTI Base Class Descriptor at (0,-1,0,64)'
PUBLIC	??_R0?AVexception@std@@@8			; std::exception `RTTI Type Descriptor'
PUBLIC	??_R3exception@std@@8				; std::exception::`RTTI Class Hierarchy Descriptor'
PUBLIC	??_R2exception@std@@8				; std::exception::`RTTI Base Class Array'
EXTRN	__imp_??0exception@std@@QAE@ABQBD@Z:PROC
EXTRN	??_7type_info@@6B@:QWORD			; type_info::`vftable'
EXTRN	??_Ebad_alloc@std@@UAEPAXI@Z:PROC		; std::bad_alloc::`vector deleting destructor'
EXTRN	?what@exception@std@@UBEPBDXZ:PROC		; std::exception::what
;	COMDAT ??_R2exception@std@@8
; File c:\program files (x86)\microsoft visual studio 10.0\vc\include\exception
rdata$r	SEGMENT
??_R2exception@std@@8 DD FLAT:??_R1A@?0A@EA@exception@std@@8 ; std::exception::`RTTI Base Class Array'
rdata$r	ENDS
;	COMDAT ??_R3exception@std@@8
rdata$r	SEGMENT
??_R3exception@std@@8 DD 00H				; std::exception::`RTTI Class Hierarchy Descriptor'
	DD	00H
	DD	01H
	DD	FLAT:??_R2exception@std@@8
rdata$r	ENDS
;	COMDAT ??_R0?AVexception@std@@@8
_DATA	SEGMENT
??_R0?AVexception@std@@@8 DD FLAT:??_7type_info@@6B@	; std::exception `RTTI Type Descriptor'
	DD	00H
	DB	'.?AVexception@std@@', 00H
_DATA	ENDS
;	COMDAT ??_R1A@?0A@EA@exception@std@@8
rdata$r	SEGMENT
??_R1A@?0A@EA@exception@std@@8 DD FLAT:??_R0?AVexception@std@@@8 ; std::exception::`RTTI Base Class Descriptor at (0,-1,0,64)'
	DD	00H
	DD	00H
	DD	0ffffffffH
	DD	00H
	DD	040H
	DD	FLAT:??_R3exception@std@@8
rdata$r	ENDS
;	COMDAT ??_R1A@?0A@EA@bad_alloc@std@@8
rdata$r	SEGMENT
??_R1A@?0A@EA@bad_alloc@std@@8 DD FLAT:??_R0?AVbad_alloc@std@@@8 ; std::bad_alloc::`RTTI Base Class Descriptor at (0,-1,0,64)'
	DD	01H
	DD	00H
	DD	0ffffffffH
	DD	00H
	DD	040H
	DD	FLAT:??_R3bad_alloc@std@@8
rdata$r	ENDS
;	COMDAT ??_R2bad_alloc@std@@8
rdata$r	SEGMENT
??_R2bad_alloc@std@@8 DD FLAT:??_R1A@?0A@EA@bad_alloc@std@@8 ; std::bad_alloc::`RTTI Base Class Array'
	DD	FLAT:??_R1A@?0A@EA@exception@std@@8
rdata$r	ENDS
;	COMDAT ??_R3bad_alloc@std@@8
rdata$r	SEGMENT
??_R3bad_alloc@std@@8 DD 00H				; std::bad_alloc::`RTTI Class Hierarchy Descriptor'
	DD	00H
	DD	02H
	DD	FLAT:??_R2bad_alloc@std@@8
rdata$r	ENDS
;	COMDAT ??_R0?AVbad_alloc@std@@@8
_DATA	SEGMENT
??_R0?AVbad_alloc@std@@@8 DD FLAT:??_7type_info@@6B@	; std::bad_alloc `RTTI Type Descriptor'
	DD	00H
	DB	'.?AVbad_alloc@std@@', 00H
_DATA	ENDS
;	COMDAT ??_R4bad_alloc@std@@6B@
rdata$r	SEGMENT
??_R4bad_alloc@std@@6B@ DD 00H				; std::bad_alloc::`RTTI Complete Object Locator'
	DD	00H
	DD	00H
	DD	FLAT:??_R0?AVbad_alloc@std@@@8
	DD	FLAT:??_R3bad_alloc@std@@8
rdata$r	ENDS
;	COMDAT ??_7bad_alloc@std@@6B@
CONST	SEGMENT
??_7bad_alloc@std@@6B@ DD FLAT:??_R4bad_alloc@std@@6B@	; std::bad_alloc::`vftable'
	DD	FLAT:??_Ebad_alloc@std@@UAEPAXI@Z
	DD	FLAT:?what@exception@std@@UBEPBDXZ
; Function compile flags: /Ogsp
CONST	ENDS
;	COMDAT ??0bad_alloc@std@@QAE@PBD@Z
_TEXT	SEGMENT
__Message$ = 8						; size = 4
??0bad_alloc@std@@QAE@PBD@Z PROC			; std::bad_alloc::bad_alloc, COMDAT
; _this$ = ecx

; 345  : 		{	// construct from message string

  00000	55		 push	 ebp
  00001	8b ec		 mov	 ebp, esp
  00003	56		 push	 esi
  00004	8d 45 08	 lea	 eax, DWORD PTR __Message$[ebp]
  00007	50		 push	 eax
  00008	8b f1		 mov	 esi, ecx
  0000a	ff 15 00 00 00
	00		 call	 DWORD PTR __imp_??0exception@std@@QAE@ABQBD@Z
  00010	c7 06 00 00 00
	00		 mov	 DWORD PTR [esi], OFFSET ??_7bad_alloc@std@@6B@

; 346  : 		}

  00016	8b c6		 mov	 eax, esi
  00018	5e		 pop	 esi
  00019	5d		 pop	 ebp
  0001a	c2 04 00	 ret	 4
??0bad_alloc@std@@QAE@PBD@Z ENDP			; std::bad_alloc::bad_alloc
_TEXT	ENDS
PUBLIC	??1bad_alloc@std@@UAE@XZ			; std::bad_alloc::~bad_alloc
EXTRN	__imp_??1exception@std@@UAE@XZ:PROC
; Function compile flags: /Ogsp
;	COMDAT ??1bad_alloc@std@@UAE@XZ
_TEXT	SEGMENT
??1bad_alloc@std@@UAE@XZ PROC				; std::bad_alloc::~bad_alloc, COMDAT
; _this$ = ecx

; 354  : 		{	// destroy the object

  00000	c7 01 00 00 00
	00		 mov	 DWORD PTR [ecx], OFFSET ??_7bad_alloc@std@@6B@

; 355  : 		}

  00006	ff 25 00 00 00
	00		 jmp	 DWORD PTR __imp_??1exception@std@@UAE@XZ
??1bad_alloc@std@@UAE@XZ ENDP				; std::bad_alloc::~bad_alloc
_TEXT	ENDS
EXTRN	??3@YAXPAX@Z:PROC				; operator delete
; Function compile flags: /Ogsp
;	COMDAT ??_Gbad_alloc@std@@UAEPAXI@Z
_TEXT	SEGMENT
___flags$ = 8						; size = 4
??_Gbad_alloc@std@@UAEPAXI@Z PROC			; std::bad_alloc::`scalar deleting destructor', COMDAT
; _this$ = ecx
  00000	55		 push	 ebp
  00001	8b ec		 mov	 ebp, esp
  00003	56		 push	 esi
  00004	8b f1		 mov	 esi, ecx
  00006	c7 06 00 00 00
	00		 mov	 DWORD PTR [esi], OFFSET ??_7bad_alloc@std@@6B@
  0000c	ff 15 00 00 00
	00		 call	 DWORD PTR __imp_??1exception@std@@UAE@XZ
  00012	f6 45 08 01	 test	 BYTE PTR ___flags$[ebp], 1
  00016	74 07		 je	 SHORT $LN1@scalar
  00018	56		 push	 esi
  00019	e8 00 00 00 00	 call	 ??3@YAXPAX@Z		; operator delete
  0001e	59		 pop	 ecx
$LN1@scalar:
  0001f	8b c6		 mov	 eax, esi
  00021	5e		 pop	 esi
  00022	5d		 pop	 ebp
  00023	c2 04 00	 ret	 4
??_Gbad_alloc@std@@UAEPAXI@Z ENDP			; std::bad_alloc::`scalar deleting destructor'
_TEXT	ENDS
PUBLIC	??2@YAPAXIPAX@Z					; operator new
; Function compile flags: /Ogsp
; File c:\program files (x86)\microsoft visual studio 10.0\vc\include\new
;	COMDAT ??2@YAPAXIPAX@Z
_TEXT	SEGMENT
___formal$ = 8						; size = 4
__Where$ = 12						; size = 4
??2@YAPAXIPAX@Z PROC					; operator new, COMDAT

; 56   : 	{	// construct array with placement at _Where

  00000	55		 push	 ebp
  00001	8b ec		 mov	 ebp, esp

; 57   : 	return (_Where);

  00003	8b 45 0c	 mov	 eax, DWORD PTR __Where$[ebp]

; 58   : 	}

  00006	5d		 pop	 ebp
  00007	c3		 ret	 0
??2@YAPAXIPAX@Z ENDP					; operator new
_TEXT	ENDS
PUBLIC	??3@YAXPAX0@Z					; operator delete
; Function compile flags: /Ogsp
;	COMDAT ??3@YAXPAX0@Z
_TEXT	SEGMENT
___formal$ = 8						; size = 4
___formal$ = 12						; size = 4
??3@YAXPAX0@Z PROC					; operator delete, COMDAT

; 62   : 	}

  00000	c3		 ret	 0
??3@YAXPAX0@Z ENDP					; operator delete
_TEXT	ENDS
PUBLIC	?GetBaseCharList@ioPlayStage@@QBEABV?$vector@PAVioBaseChar@@V?$allocator@PAVioBaseChar@@@std@@@std@@XZ ; ioPlayStage::GetBaseCharList
; Function compile flags: /Ogsp
; File d:\lost saga for developer\youtube\tutorial\source\src\lsclient\ioplaystage.h
;	COMDAT ?GetBaseCharList@ioPlayStage@@QBEABV?$vector@PAVioBaseChar@@V?$allocator@PAVioBaseChar@@@std@@@std@@XZ
_TEXT	SEGMENT
?GetBaseCharList@ioPlayStage@@QBEABV?$vector@PAVioBaseChar@@V?$allocator@PAVioBaseChar@@@std@@@std@@XZ PROC ; ioPlayStage::GetBaseCharList, COMDAT
; _this$ = ecx

; 755  : 	const BaseCharList& GetBaseCharList() const { return m_BaseCharList; }

  00000	8d 41 2c	 lea	 eax, DWORD PTR [ecx+44]
  00003	c3		 ret	 0
?GetBaseCharList@ioPlayStage@@QBEABV?$vector@PAVioBaseChar@@V?$allocator@PAVioBaseChar@@@std@@@std@@XZ ENDP ; ioPlayStage::GetBaseCharList
_TEXT	ENDS
PUBLIC	?Clear@KeyMapEffect@ioCrecendoSkill@@QAEXXZ	; ioCrecendoSkill::KeyMapEffect::Clear
; Function compile flags: /Ogsp
; File d:\lost saga for developer\youtube\tutorial\source\src\lsclient\iocrecendoskill.h
;	COMDAT ?Clear@KeyMapEffect@ioCrecendoSkill@@QAEXXZ
_TEXT	SEGMENT
?Clear@KeyMapEffect@ioCrecendoSkill@@QAEXXZ PROC	; ioCrecendoSkill::KeyMapEffect::Clear, COMDAT
; _this$ = ecx

; 78   : 			m_MapEffectID = -1;

  00000	83 09 ff	 or	 DWORD PTR [ecx], -1

; 79   : 			m_dwKey = WKS_NONE;

  00003	83 61 04 00	 and	 DWORD PTR [ecx+4], 0

; 80   : 		}

  00007	c3		 ret	 0
?Clear@KeyMapEffect@ioCrecendoSkill@@QAEXXZ ENDP	; ioCrecendoSkill::KeyMapEffect::Clear
_TEXT	ENDS
PUBLIC	?_Adopt@_Iterator_base0@std@@QAEXPBX@Z		; std::_Iterator_base0::_Adopt
; Function compile flags: /Ogsp
; File c:\program files (x86)\microsoft visual studio 10.0\vc\include\xutility
;	COMDAT ?_Adopt@_Iterator_base0@std@@QAEXPBX@Z
_TEXT	SEGMENT
___formal$ = 8						; size = 4
?_Adopt@_Iterator_base0@std@@QAEXPBX@Z PROC		; std::_Iterator_base0::_Adopt, COMDAT
; _this$ = ecx

; 49   : 		}

  00000	c2 04 00	 ret	 4
?_Adopt@_Iterator_base0@std@@QAEXPBX@Z ENDP		; std::_Iterator_base0::_Adopt
_TEXT	ENDS
PUBLIC	?CheckUseItemMesh@ioCrecendoSkill@@UAE_NXZ	; ioCrecendoSkill::CheckUseItemMesh
; Function compile flags: /Ogsp
; File d:\lost saga for developer\youtube\tutorial\source\src\lsclient\iocrecendoskill.cpp
;	COMDAT ?CheckUseItemMesh@ioCrecendoSkill@@UAE_NXZ
_TEXT	SEGMENT
?CheckUseItemMesh@ioCrecendoSkill@@UAE_NXZ PROC		; ioCrecendoSkill::CheckUseItemMesh, COMDAT
; _this$ = ecx

; 179  : 	return m_bUseItemMesh;

  00000	8a 81 08 0f 00
	00		 mov	 al, BYTE PTR [ecx+3848]

; 180  : }

  00006	c3		 ret	 0
?CheckUseItemMesh@ioCrecendoSkill@@UAE_NXZ ENDP		; ioCrecendoSkill::CheckUseItemMesh
_TEXT	ENDS
PUBLIC	?RemoveLastKeyEffect@ioCrecendoSkill@@IAEXPAVioBaseChar@@@Z ; ioCrecendoSkill::RemoveLastKeyEffect
EXTRN	?EndMapEffect@ioBaseChar@@QAEXK_N@Z:PROC	; ioBaseChar::EndMapEffect
; Function compile flags: /Ogsp
;	COMDAT ?RemoveLastKeyEffect@ioCrecendoSkill@@IAEXPAVioBaseChar@@@Z
_TEXT	SEGMENT
_pChar$ = 8						; size = 4
?RemoveLastKeyEffect@ioCrecendoSkill@@IAEXPAVioBaseChar@@@Z PROC ; ioCrecendoSkill::RemoveLastKeyEffect, COMDAT
; _this$ = ecx

; 626  : {

  00000	55		 push	 ebp
  00001	8b ec		 mov	 ebp, esp

; 627  : 	if( pChar )

  00003	83 7d 08 00	 cmp	 DWORD PTR _pChar$[ebp], 0
  00007	74 1b		 je	 SHORT $LN4@RemoveLast

; 628  : 	{
; 629  : 		pChar->EndMapEffect( m_LastKeyMapEffect.m_MapEffectID, false );	

  00009	56		 push	 esi
  0000a	8d b1 8c 11 00
	00		 lea	 esi, DWORD PTR [ecx+4492]
  00010	8b 4d 08	 mov	 ecx, DWORD PTR _pChar$[ebp]
  00013	6a 00		 push	 0
  00015	ff 36		 push	 DWORD PTR [esi]
  00017	e8 00 00 00 00	 call	 ?EndMapEffect@ioBaseChar@@QAEXK_N@Z ; ioBaseChar::EndMapEffect

; 630  : 		m_LastKeyMapEffect.Clear();

  0001c	83 0e ff	 or	 DWORD PTR [esi], -1
  0001f	83 66 04 00	 and	 DWORD PTR [esi+4], 0
  00023	5e		 pop	 esi
$LN4@RemoveLast:

; 631  : 	}
; 632  : }

  00024	5d		 pop	 ebp
  00025	c2 04 00	 ret	 4
?RemoveLastKeyEffect@ioCrecendoSkill@@IAEXPAVioBaseChar@@@Z ENDP ; ioCrecendoSkill::RemoveLastKeyEffect
_TEXT	ENDS
PUBLIC	?GetKey@ioCrecendoSkill@@IAEKPAVioBaseChar@@@Z	; ioCrecendoSkill::GetKey
; Function compile flags: /Ogsp
;	COMDAT ?GetKey@ioCrecendoSkill@@IAEKPAVioBaseChar@@@Z
_TEXT	SEGMENT
_pChar$ = 8						; size = 4
?GetKey@ioCrecendoSkill@@IAEKPAVioBaseChar@@@Z PROC	; ioCrecendoSkill::GetKey, COMDAT
; _this$ = ecx

; 653  : {

  00000	55		 push	 ebp
  00001	8b ec		 mov	 ebp, esp

; 654  : 	if( !pChar )

  00003	8b 45 08	 mov	 eax, DWORD PTR _pChar$[ebp]
  00006	85 c0		 test	 eax, eax
  00008	0f 84 cf 00 00
	00		 je	 $LN9@GetKey
$LN8@GetKey:
  0000e	56		 push	 esi

; 655  : 		return WKS_NONE;
; 656  : 
; 657  : 	if( pChar->IsUpKeyRelease() && !pChar->IsDownKeyRelease() && !pChar->IsLeftKeyRelease() && !pChar->IsRightKeyRelease() )

  0000f	8d b0 80 0c 00
	00		 lea	 esi, DWORD PTR [eax+3200]
  00015	8b ce		 mov	 ecx, esi
  00017	e8 00 00 00 00	 call	 ?IsUpKeyRelease@ioUserKeyInput@@QBE_NXZ ; ioUserKeyInput::IsUpKeyRelease
  0001c	84 c0		 test	 al, al
  0001e	74 29		 je	 SHORT $LN7@GetKey
  00020	8b ce		 mov	 ecx, esi
  00022	e8 00 00 00 00	 call	 ?IsDownKeyRelease@ioUserKeyInput@@QBE_NXZ ; ioUserKeyInput::IsDownKeyRelease
  00027	84 c0		 test	 al, al
  00029	75 1e		 jne	 SHORT $LN7@GetKey
  0002b	8b ce		 mov	 ecx, esi
  0002d	e8 00 00 00 00	 call	 ?IsLeftKeyRelease@ioUserKeyInput@@QBE_NXZ ; ioUserKeyInput::IsLeftKeyRelease
  00032	84 c0		 test	 al, al
  00034	75 13		 jne	 SHORT $LN7@GetKey
  00036	8b ce		 mov	 ecx, esi
  00038	e8 00 00 00 00	 call	 ?IsRightKeyRelease@ioUserKeyInput@@QBE_NXZ ; ioUserKeyInput::IsRightKeyRelease
  0003d	84 c0		 test	 al, al
  0003f	75 08		 jne	 SHORT $LN7@GetKey

; 658  : 	{
; 659  : 		return WKS_UP;

  00041	33 c0		 xor	 eax, eax
  00043	40		 inc	 eax
  00044	e9 93 00 00 00	 jmp	 $LN43@GetKey
$LN7@GetKey:

; 660  : 	}
; 661  : 	else if( !pChar->IsUpKeyRelease() && pChar->IsDownKeyRelease() && !pChar->IsLeftKeyRelease() && !pChar->IsRightKeyRelease() )

  00049	8b ce		 mov	 ecx, esi
  0004b	e8 00 00 00 00	 call	 ?IsUpKeyRelease@ioUserKeyInput@@QBE_NXZ ; ioUserKeyInput::IsUpKeyRelease
  00050	84 c0		 test	 al, al
  00052	75 25		 jne	 SHORT $LN5@GetKey
  00054	8b ce		 mov	 ecx, esi
  00056	e8 00 00 00 00	 call	 ?IsDownKeyRelease@ioUserKeyInput@@QBE_NXZ ; ioUserKeyInput::IsDownKeyRelease
  0005b	84 c0		 test	 al, al
  0005d	74 1a		 je	 SHORT $LN5@GetKey
  0005f	8b ce		 mov	 ecx, esi
  00061	e8 00 00 00 00	 call	 ?IsLeftKeyRelease@ioUserKeyInput@@QBE_NXZ ; ioUserKeyInput::IsLeftKeyRelease
  00066	84 c0		 test	 al, al
  00068	75 0f		 jne	 SHORT $LN5@GetKey
  0006a	8b ce		 mov	 ecx, esi
  0006c	e8 00 00 00 00	 call	 ?IsRightKeyRelease@ioUserKeyInput@@QBE_NXZ ; ioUserKeyInput::IsRightKeyRelease
  00071	84 c0		 test	 al, al
  00073	75 04		 jne	 SHORT $LN5@GetKey

; 662  : 	{
; 663  : 		return WKS_DOWN;

  00075	6a 03		 push	 3
  00077	eb 5e		 jmp	 SHORT $LN44@GetKey
$LN5@GetKey:

; 664  : 	}
; 665  : 	else if( !pChar->IsUpKeyRelease() && !pChar->IsDownKeyRelease() && pChar->IsLeftKeyRelease() && !pChar->IsRightKeyRelease() )

  00079	8b ce		 mov	 ecx, esi
  0007b	e8 00 00 00 00	 call	 ?IsUpKeyRelease@ioUserKeyInput@@QBE_NXZ ; ioUserKeyInput::IsUpKeyRelease
  00080	84 c0		 test	 al, al
  00082	75 25		 jne	 SHORT $LN3@GetKey
  00084	8b ce		 mov	 ecx, esi
  00086	e8 00 00 00 00	 call	 ?IsDownKeyRelease@ioUserKeyInput@@QBE_NXZ ; ioUserKeyInput::IsDownKeyRelease
  0008b	84 c0		 test	 al, al
  0008d	75 1a		 jne	 SHORT $LN3@GetKey
  0008f	8b ce		 mov	 ecx, esi
  00091	e8 00 00 00 00	 call	 ?IsLeftKeyRelease@ioUserKeyInput@@QBE_NXZ ; ioUserKeyInput::IsLeftKeyRelease
  00096	84 c0		 test	 al, al
  00098	74 0f		 je	 SHORT $LN3@GetKey
  0009a	8b ce		 mov	 ecx, esi
  0009c	e8 00 00 00 00	 call	 ?IsRightKeyRelease@ioUserKeyInput@@QBE_NXZ ; ioUserKeyInput::IsRightKeyRelease
  000a1	84 c0		 test	 al, al
  000a3	75 04		 jne	 SHORT $LN3@GetKey

; 666  : 	{
; 667  : 		return WKS_LEFT;

  000a5	6a 04		 push	 4
  000a7	eb 2e		 jmp	 SHORT $LN44@GetKey
$LN3@GetKey:

; 668  : 	}
; 669  : 	else if( !pChar->IsUpKeyRelease() && !pChar->IsDownKeyRelease() && !pChar->IsLeftKeyRelease() && pChar->IsRightKeyRelease() )

  000a9	8b ce		 mov	 ecx, esi
  000ab	e8 00 00 00 00	 call	 ?IsUpKeyRelease@ioUserKeyInput@@QBE_NXZ ; ioUserKeyInput::IsUpKeyRelease
  000b0	84 c0		 test	 al, al
  000b2	75 26		 jne	 SHORT $LN1@GetKey
  000b4	8b ce		 mov	 ecx, esi
  000b6	e8 00 00 00 00	 call	 ?IsDownKeyRelease@ioUserKeyInput@@QBE_NXZ ; ioUserKeyInput::IsDownKeyRelease
  000bb	84 c0		 test	 al, al
  000bd	75 1b		 jne	 SHORT $LN1@GetKey
  000bf	8b ce		 mov	 ecx, esi
  000c1	e8 00 00 00 00	 call	 ?IsLeftKeyRelease@ioUserKeyInput@@QBE_NXZ ; ioUserKeyInput::IsLeftKeyRelease
  000c6	84 c0		 test	 al, al
  000c8	75 10		 jne	 SHORT $LN1@GetKey
  000ca	8b ce		 mov	 ecx, esi
  000cc	e8 00 00 00 00	 call	 ?IsRightKeyRelease@ioUserKeyInput@@QBE_NXZ ; ioUserKeyInput::IsRightKeyRelease
  000d1	84 c0		 test	 al, al
  000d3	74 05		 je	 SHORT $LN1@GetKey

; 670  : 	{
; 671  : 		return WKS_RIGHT;

  000d5	6a 02		 push	 2
$LN44@GetKey:
  000d7	58		 pop	 eax
  000d8	eb 02		 jmp	 SHORT $LN43@GetKey
$LN1@GetKey:

; 672  : 	}
; 673  : 
; 674  : 	return WKS_NONE;

  000da	33 c0		 xor	 eax, eax
$LN43@GetKey:
  000dc	5e		 pop	 esi
$LN9@GetKey:

; 675  : }

  000dd	5d		 pop	 ebp
  000de	c2 04 00	 ret	 4
?GetKey@ioCrecendoSkill@@IAEKPAVioBaseChar@@@Z ENDP	; ioCrecendoSkill::GetKey
_TEXT	ENDS
PUBLIC	?GetMixKey@ioCrecendoSkill@@IAEKPAVioBaseChar@@@Z ; ioCrecendoSkill::GetMixKey
; Function compile flags: /Ogsp
;	COMDAT ?GetMixKey@ioCrecendoSkill@@IAEKPAVioBaseChar@@@Z
_TEXT	SEGMENT
_pChar$ = 8						; size = 4
?GetMixKey@ioCrecendoSkill@@IAEKPAVioBaseChar@@@Z PROC	; ioCrecendoSkill::GetMixKey, COMDAT
; _this$ = ecx

; 678  : {

  00000	55		 push	 ebp
  00001	8b ec		 mov	 ebp, esp

; 679  : 	ioUserKeyInput::DirMixInput eMixKey = pChar->GetCurDirMixKey();	

  00003	8b 4d 08	 mov	 ecx, DWORD PTR _pChar$[ebp]
  00006	81 c1 80 0c 00
	00		 add	 ecx, 3200		; 00000c80H
  0000c	e8 00 00 00 00	 call	 ?GetCurDirMixKey@ioUserKeyInput@@QBE?AW4DirMixInput@1@XZ ; ioUserKeyInput::GetCurDirMixKey

; 680  : 	switch( eMixKey )

  00011	48		 dec	 eax
  00012	74 04		 je	 SHORT $LN1@GetMixKey

; 684  : 	}
; 685  : 
; 686  : 	return WKS_NONE;

  00014	33 c0		 xor	 eax, eax
  00016	eb 03		 jmp	 SHORT $LN4@GetMixKey
$LN1@GetMixKey:

; 681  : 	{
; 682  : 	case ioUserKeyInput::DMI_LEFT_UP_RIGHT:
; 683  : 		return WKS_LAST;

  00018	6a 05		 push	 5
  0001a	58		 pop	 eax
$LN4@GetMixKey:

; 687  : }

  0001b	5d		 pop	 ebp
  0001c	c2 04 00	 ret	 4
?GetMixKey@ioCrecendoSkill@@IAEKPAVioBaseChar@@@Z ENDP	; ioCrecendoSkill::GetMixKey
_TEXT	ENDS
PUBLIC	?ApplyAttributeToWeapon@ioCrecendoSkill@@UAEXPAVioWeapon@@PAVioPlayStage@@@Z ; ioCrecendoSkill::ApplyAttributeToWeapon
EXTRN	?ApplyAttributeToWeapon@ioSkill@@UAEXPAVioWeapon@@PAVioPlayStage@@@Z:PROC ; ioSkill::ApplyAttributeToWeapon
; Function compile flags: /Ogsp
;	COMDAT ?ApplyAttributeToWeapon@ioCrecendoSkill@@UAEXPAVioWeapon@@PAVioPlayStage@@@Z
_TEXT	SEGMENT
_pWeapon$ = 8						; size = 4
_pStage$ = 12						; size = 4
?ApplyAttributeToWeapon@ioCrecendoSkill@@UAEXPAVioWeapon@@PAVioPlayStage@@@Z PROC ; ioCrecendoSkill::ApplyAttributeToWeapon, COMDAT
; _this$ = ecx

; 763  : {

  00000	55		 push	 ebp
  00001	8b ec		 mov	 ebp, esp

; 765  : }

  00003	5d		 pop	 ebp

; 764  : 	ioSkill::ApplyAttributeToWeapon( pWeapon, pStage );

  00004	e9 00 00 00 00	 jmp	 ?ApplyAttributeToWeapon@ioSkill@@UAEXPAVioWeapon@@PAVioPlayStage@@@Z ; ioSkill::ApplyAttributeToWeapon
?ApplyAttributeToWeapon@ioCrecendoSkill@@UAEXPAVioWeapon@@PAVioPlayStage@@@Z ENDP ; ioCrecendoSkill::ApplyAttributeToWeapon
_TEXT	ENDS
PUBLIC	?IsSkillMotionEnd@ioCrecendoSkill@@UBE_NKPAVioBaseChar@@@Z ; ioCrecendoSkill::IsSkillMotionEnd
EXTRN	__imp_?GetLoopSec@ioFrameTimer@@QBEKXZ:PROC
EXTRN	__imp_?GetSingleton@ioFrameTimer@@SAAAV1@XZ:PROC
; Function compile flags: /Ogsp
;	COMDAT ?IsSkillMotionEnd@ioCrecendoSkill@@UBE_NKPAVioBaseChar@@@Z
_TEXT	SEGMENT
_dwActionStop$ = 8					; size = 4
_pOwner$ = 12						; size = 4
?IsSkillMotionEnd@ioCrecendoSkill@@UBE_NKPAVioBaseChar@@@Z PROC ; ioCrecendoSkill::IsSkillMotionEnd, COMDAT
; _this$ = ecx

; 821  : {

  00000	56		 push	 esi
  00001	8b f1		 mov	 esi, ecx

; 822  : 	if( m_dwPreDelayStartTime > 0 )

  00003	83 be 20 02 00
	00 00		 cmp	 DWORD PTR [esi+544], 0
  0000a	76 04		 jbe	 SHORT $LN6@IsSkillMot
$LN3@IsSkillMot:

; 823  : 		return false;

  0000c	32 c0		 xor	 al, al
  0000e	eb 34		 jmp	 SHORT $LN7@IsSkillMot
$LN6@IsSkillMot:

; 824  : 
; 825  : 	switch( m_SkillState )

  00010	8b 86 e4 10 00
	00		 mov	 eax, DWORD PTR [esi+4324]
  00016	85 c0		 test	 eax, eax
  00018	78 28		 js	 SHORT $LN1@IsSkillMot
  0001a	83 f8 01	 cmp	 eax, 1
  0001d	7e ed		 jle	 SHORT $LN3@IsSkillMot
  0001f	83 f8 02	 cmp	 eax, 2
  00022	75 1e		 jne	 SHORT $LN1@IsSkillMot

; 826  : 	{
; 827  : 	case SS_DELAY:
; 828  : 	case SS_LOOP:
; 829  : 		return false;
; 830  : 	case SS_END:
; 831  : 		if( FRAMEGETTIME() < m_dwEndTime + 500 )

  00024	ff 15 00 00 00
	00		 call	 DWORD PTR __imp_?GetSingleton@ioFrameTimer@@SAAAV1@XZ
  0002a	8b c8		 mov	 ecx, eax
  0002c	ff 15 00 00 00
	00		 call	 DWORD PTR __imp_?GetLoopSec@ioFrameTimer@@QBEKXZ
  00032	8b 8e 04 11 00
	00		 mov	 ecx, DWORD PTR [esi+4356]
  00038	81 c1 f4 01 00
	00		 add	 ecx, 500		; 000001f4H
  0003e	3b c1		 cmp	 eax, ecx

; 832  : 		{
; 833  : 			return false;

  00040	72 ca		 jb	 SHORT $LN3@IsSkillMot
$LN1@IsSkillMot:

; 834  : 		}
; 835  : 	}
; 836  : 
; 837  : 	return true;

  00042	b0 01		 mov	 al, 1
$LN7@IsSkillMot:
  00044	5e		 pop	 esi

; 838  : }

  00045	c2 08 00	 ret	 8
?IsSkillMotionEnd@ioCrecendoSkill@@UBE_NKPAVioBaseChar@@@Z ENDP ; ioCrecendoSkill::IsSkillMotionEnd
_TEXT	ENDS
PUBLIC	?IsProtected@ioCrecendoSkill@@UBE_NH@Z		; ioCrecendoSkill::IsProtected
; Function compile flags: /Ogsp
;	COMDAT ?IsProtected@ioCrecendoSkill@@UBE_NH@Z
_TEXT	SEGMENT
_iDefenseBreakType$ = 8					; size = 4
?IsProtected@ioCrecendoSkill@@UBE_NH@Z PROC		; ioCrecendoSkill::IsProtected, COMDAT
; _this$ = ecx

; 841  : {

  00000	55		 push	 ebp
  00001	8b ec		 mov	 ebp, esp
  00003	56		 push	 esi
  00004	8b f1		 mov	 esi, ecx

; 842  : 	if( DBT_NONE != (DefenseBreakType)m_ProtectCancelType )

  00006	8b 86 a4 00 00
	00		 mov	 eax, DWORD PTR [esi+164]
  0000c	85 c0		 test	 eax, eax
  0000e	74 09		 je	 SHORT $LN4@IsProtecte

; 843  : 	{
; 844  : 		if( iDefenseBreakType == m_ProtectCancelType )   // 스킬 무적 파괴

  00010	39 45 08	 cmp	 DWORD PTR _iDefenseBreakType$[ebp], eax
  00013	75 04		 jne	 SHORT $LN4@IsProtecte

; 845  : 			return false;

  00015	32 c0		 xor	 al, al
  00017	eb 30		 jmp	 SHORT $LN1@IsProtecte
$LN4@IsProtecte:

; 846  : 	}
; 847  : 
; 848  : 	if( IsPreDelayProtect() )

  00019	8b 06		 mov	 eax, DWORD PTR [esi]
  0001b	ff 90 2c 01 00
	00		 call	 DWORD PTR [eax+300]
  00021	84 c0		 test	 al, al
  00023	74 0d		 je	 SHORT $LN2@IsProtecte

; 849  : 	{
; 850  : 		if( m_dwPreDelayStartTime != 0 )

  00025	83 be 20 02 00
	00 00		 cmp	 DWORD PTR [esi+544], 0
  0002c	74 04		 je	 SHORT $LN2@IsProtecte

; 851  : 			return true;

  0002e	b0 01		 mov	 al, 1
  00030	eb 17		 jmp	 SHORT $LN1@IsProtecte
$LN2@IsProtecte:

; 852  : 	}
; 853  : 
; 854  : 	DWORD dwCurTime = FRAMEGETTIME();

  00032	ff 15 00 00 00
	00		 call	 DWORD PTR __imp_?GetSingleton@ioFrameTimer@@SAAAV1@XZ
  00038	8b c8		 mov	 ecx, eax
  0003a	ff 15 00 00 00
	00		 call	 DWORD PTR __imp_?GetLoopSec@ioFrameTimer@@QBEKXZ

; 855  : 	if( m_dwCurSkillProtectTime > dwCurTime )

  00040	39 86 0c 11 00
	00		 cmp	 DWORD PTR [esi+4364], eax
  00046	0f 97 c0	 seta	 al
$LN1@IsProtecte:
  00049	5e		 pop	 esi

; 856  : 	{
; 857  : 		return true;
; 858  : 	}
; 859  : 
; 860  : 	return false;
; 861  : }

  0004a	5d		 pop	 ebp
  0004b	c2 04 00	 ret	 4
?IsProtected@ioCrecendoSkill@@UBE_NH@Z ENDP		; ioCrecendoSkill::IsProtected
_TEXT	ENDS
PUBLIC	??D?$_Vector_const_iterator@V?$_Vector_val@UWeaponInfo@@V?$allocator@UWeaponInfo@@@std@@@std@@@std@@QBEABUWeaponInfo@@XZ ; std::_Vector_const_iterator<std::_Vector_val<WeaponInfo,std::allocator<WeaponInfo> > >::operator*
; Function compile flags: /Ogsp
; File c:\program files (x86)\microsoft visual studio 10.0\vc\include\vector
;	COMDAT ??D?$_Vector_const_iterator@V?$_Vector_val@UWeaponInfo@@V?$allocator@UWeaponInfo@@@std@@@std@@@std@@QBEABUWeaponInfo@@XZ
_TEXT	SEGMENT
??D?$_Vector_const_iterator@V?$_Vector_val@UWeaponInfo@@V?$allocator@UWeaponInfo@@@std@@@std@@@std@@QBEABUWeaponInfo@@XZ PROC ; std::_Vector_const_iterator<std::_Vector_val<WeaponInfo,std::allocator<WeaponInfo> > >::operator*, COMDAT
; _this$ = ecx

; 64   :  #if _ITERATOR_DEBUG_LEVEL == 2
; 65   : 		if (this->_Getcont() == 0
; 66   : 			|| this->_Ptr == 0
; 67   : 			|| this->_Ptr < ((_Myvec *)this->_Getcont())->_Myfirst
; 68   : 			|| ((_Myvec *)this->_Getcont())->_Mylast <= this->_Ptr)
; 69   : 			{	// report error
; 70   : 			_DEBUG_ERROR("vector iterator not dereferencable");
; 71   : 			_SCL_SECURE_OUT_OF_RANGE;
; 72   : 			}
; 73   : 
; 74   :  #elif _ITERATOR_DEBUG_LEVEL == 1
; 75   : 		_SCL_SECURE_VALIDATE(this->_Getcont() != 0);
; 76   : 		_SCL_SECURE_VALIDATE_RANGE(
; 77   : 			this->_Ptr != 0
; 78   : 			&& ((_Myvec *)this->_Getcont())->_Myfirst <= this->_Ptr
; 79   : 			&& this->_Ptr < ((_Myvec *)this->_Getcont())->_Mylast);
; 80   :  #endif /* _ITERATOR_DEBUG_LEVEL */
; 81   : 
; 82   : 		__analysis_assume(this->_Ptr != 0);
; 83   : 
; 84   : 		return (*this->_Ptr);

  00000	8b 01		 mov	 eax, DWORD PTR [ecx]

; 85   : 		}

  00002	c3		 ret	 0
??D?$_Vector_const_iterator@V?$_Vector_val@UWeaponInfo@@V?$allocator@UWeaponInfo@@@std@@@std@@@std@@QBEABUWeaponInfo@@XZ ENDP ; std::_Vector_const_iterator<std::_Vector_val<WeaponInfo,std::allocator<WeaponInfo> > >::operator*
_TEXT	ENDS
PUBLIC	??E?$_Vector_const_iterator@V?$_Vector_val@UWeaponInfo@@V?$allocator@UWeaponInfo@@@std@@@std@@@std@@QAEAAV01@XZ ; std::_Vector_const_iterator<std::_Vector_val<WeaponInfo,std::allocator<WeaponInfo> > >::operator++
; Function compile flags: /Ogsp
;	COMDAT ??E?$_Vector_const_iterator@V?$_Vector_val@UWeaponInfo@@V?$allocator@UWeaponInfo@@@std@@@std@@@std@@QAEAAV01@XZ
_TEXT	SEGMENT
??E?$_Vector_const_iterator@V?$_Vector_val@UWeaponInfo@@V?$allocator@UWeaponInfo@@@std@@@std@@@std@@QAEAAV01@XZ PROC ; std::_Vector_const_iterator<std::_Vector_val<WeaponInfo,std::allocator<WeaponInfo> > >::operator++, COMDAT
; _this$ = ecx

; 93   : 		{	// preincrement

  00000	8b c1		 mov	 eax, ecx

; 94   :  #if _ITERATOR_DEBUG_LEVEL == 2
; 95   : 		if (this->_Getcont() == 0
; 96   : 			|| this->_Ptr == 0
; 97   : 			|| ((_Myvec *)this->_Getcont())->_Mylast <= this->_Ptr)
; 98   : 			{	// report error
; 99   : 			_DEBUG_ERROR("vector iterator not incrementable");
; 100  : 			_SCL_SECURE_OUT_OF_RANGE;
; 101  : 			}
; 102  : 
; 103  :  #elif _ITERATOR_DEBUG_LEVEL == 1
; 104  : 		_SCL_SECURE_VALIDATE(this->_Getcont() != 0);
; 105  : 		_SCL_SECURE_VALIDATE_RANGE(
; 106  : 			this->_Ptr != 0
; 107  : 			&& this->_Ptr < ((_Myvec *)this->_Getcont())->_Mylast);
; 108  :  #endif /* _ITERATOR_DEBUG_LEVEL */
; 109  : 
; 110  : 		++this->_Ptr;

  00002	83 00 28	 add	 DWORD PTR [eax], 40	; 00000028H

; 111  : 		return (*this);
; 112  : 		}

  00005	c3		 ret	 0
??E?$_Vector_const_iterator@V?$_Vector_val@UWeaponInfo@@V?$allocator@UWeaponInfo@@@std@@@std@@@std@@QAEAAV01@XZ ENDP ; std::_Vector_const_iterator<std::_Vector_val<WeaponInfo,std::allocator<WeaponInfo> > >::operator++
_TEXT	ENDS
PUBLIC	?size@?$vector@UWaveKey@ioCrecendoSkill@@V?$allocator@UWaveKey@ioCrecendoSkill@@@std@@@std@@QBEIXZ ; std::vector<ioCrecendoSkill::WaveKey,std::allocator<ioCrecendoSkill::WaveKey> >::size
; Function compile flags: /Ogsp
;	COMDAT ?size@?$vector@UWaveKey@ioCrecendoSkill@@V?$allocator@UWaveKey@ioCrecendoSkill@@@std@@@std@@QBEIXZ
_TEXT	SEGMENT
?size@?$vector@UWaveKey@ioCrecendoSkill@@V?$allocator@UWaveKey@ioCrecendoSkill@@@std@@@std@@QBEIXZ PROC ; std::vector<ioCrecendoSkill::WaveKey,std::allocator<ioCrecendoSkill::WaveKey> >::size, COMDAT
; _this$ = ecx

; 879  : 		return (this->_Mylast - this->_Myfirst);

  00000	8b 41 04	 mov	 eax, DWORD PTR [ecx+4]
  00003	2b 01		 sub	 eax, DWORD PTR [ecx]
  00005	6a 6c		 push	 108			; 0000006cH
  00007	99		 cdq
  00008	59		 pop	 ecx
  00009	f7 f9		 idiv	 ecx

; 880  : 		}

  0000b	c3		 ret	 0
?size@?$vector@UWaveKey@ioCrecendoSkill@@V?$allocator@UWaveKey@ioCrecendoSkill@@@std@@@std@@QBEIXZ ENDP ; std::vector<ioCrecendoSkill::WaveKey,std::allocator<ioCrecendoSkill::WaveKey> >::size
_TEXT	ENDS
PUBLIC	??A?$vector@UWaveKey@ioCrecendoSkill@@V?$allocator@UWaveKey@ioCrecendoSkill@@@std@@@std@@QAEAAUWaveKey@ioCrecendoSkill@@I@Z ; std::vector<ioCrecendoSkill::WaveKey,std::allocator<ioCrecendoSkill::WaveKey> >::operator[]
; Function compile flags: /Ogsp
;	COMDAT ??A?$vector@UWaveKey@ioCrecendoSkill@@V?$allocator@UWaveKey@ioCrecendoSkill@@@std@@@std@@QAEAAUWaveKey@ioCrecendoSkill@@I@Z
_TEXT	SEGMENT
__Pos$ = 8						; size = 4
??A?$vector@UWaveKey@ioCrecendoSkill@@V?$allocator@UWaveKey@ioCrecendoSkill@@@std@@@std@@QAEAAUWaveKey@ioCrecendoSkill@@I@Z PROC ; std::vector<ioCrecendoSkill::WaveKey,std::allocator<ioCrecendoSkill::WaveKey> >::operator[], COMDAT
; _this$ = ecx

; 928  : 		{	// subscript mutable sequence

  00000	55		 push	 ebp
  00001	8b ec		 mov	 ebp, esp

; 929  :  #if _ITERATOR_DEBUG_LEVEL == 2
; 930  : 		if (size() <= _Pos)
; 931  : 			{	// report error
; 932  : 			_DEBUG_ERROR("vector subscript out of range");
; 933  : 			_SCL_SECURE_OUT_OF_RANGE;
; 934  : 			}
; 935  : 
; 936  :  #elif _ITERATOR_DEBUG_LEVEL == 1
; 937  : 		_SCL_SECURE_VALIDATE_RANGE(_Pos < size());
; 938  :  #endif /* _ITERATOR_DEBUG_LEVEL */
; 939  : 
; 940  : 		return (*(this->_Myfirst + _Pos));

  00003	8b 45 08	 mov	 eax, DWORD PTR __Pos$[ebp]
  00006	6b c0 6c	 imul	 eax, 108		; 0000006cH
  00009	03 01		 add	 eax, DWORD PTR [ecx]

; 941  : 		}

  0000b	5d		 pop	 ebp
  0000c	c2 04 00	 ret	 4
??A?$vector@UWaveKey@ioCrecendoSkill@@V?$allocator@UWaveKey@ioCrecendoSkill@@@std@@@std@@QAEAAUWaveKey@ioCrecendoSkill@@I@Z ENDP ; std::vector<ioCrecendoSkill::WaveKey,std::allocator<ioCrecendoSkill::WaveKey> >::operator[]
_TEXT	ENDS
PUBLIC	?size@?$vector@UKeyMapEffect@ioCrecendoSkill@@V?$allocator@UKeyMapEffect@ioCrecendoSkill@@@std@@@std@@QBEIXZ ; std::vector<ioCrecendoSkill::KeyMapEffect,std::allocator<ioCrecendoSkill::KeyMapEffect> >::size
; Function compile flags: /Ogsp
;	COMDAT ?size@?$vector@UKeyMapEffect@ioCrecendoSkill@@V?$allocator@UKeyMapEffect@ioCrecendoSkill@@@std@@@std@@QBEIXZ
_TEXT	SEGMENT
?size@?$vector@UKeyMapEffect@ioCrecendoSkill@@V?$allocator@UKeyMapEffect@ioCrecendoSkill@@@std@@@std@@QBEIXZ PROC ; std::vector<ioCrecendoSkill::KeyMapEffect,std::allocator<ioCrecendoSkill::KeyMapEffect> >::size, COMDAT
; _this$ = ecx

; 879  : 		return (this->_Mylast - this->_Myfirst);

  00000	8b 41 04	 mov	 eax, DWORD PTR [ecx+4]
  00003	2b 01		 sub	 eax, DWORD PTR [ecx]
  00005	c1 f8 03	 sar	 eax, 3

; 880  : 		}

  00008	c3		 ret	 0
?size@?$vector@UKeyMapEffect@ioCrecendoSkill@@V?$allocator@UKeyMapEffect@ioCrecendoSkill@@@std@@@std@@QBEIXZ ENDP ; std::vector<ioCrecendoSkill::KeyMapEffect,std::allocator<ioCrecendoSkill::KeyMapEffect> >::size
_TEXT	ENDS
PUBLIC	?empty@?$vector@UKeyMapEffect@ioCrecendoSkill@@V?$allocator@UKeyMapEffect@ioCrecendoSkill@@@std@@@std@@QBE_NXZ ; std::vector<ioCrecendoSkill::KeyMapEffect,std::allocator<ioCrecendoSkill::KeyMapEffect> >::empty
; Function compile flags: /Ogsp
;	COMDAT ?empty@?$vector@UKeyMapEffect@ioCrecendoSkill@@V?$allocator@UKeyMapEffect@ioCrecendoSkill@@@std@@@std@@QBE_NXZ
_TEXT	SEGMENT
?empty@?$vector@UKeyMapEffect@ioCrecendoSkill@@V?$allocator@UKeyMapEffect@ioCrecendoSkill@@@std@@@std@@QBE_NXZ PROC ; std::vector<ioCrecendoSkill::KeyMapEffect,std::allocator<ioCrecendoSkill::KeyMapEffect> >::empty, COMDAT
; _this$ = ecx

; 889  : 		return (this->_Myfirst == this->_Mylast);

  00000	8b 01		 mov	 eax, DWORD PTR [ecx]
  00002	2b 41 04	 sub	 eax, DWORD PTR [ecx+4]
  00005	f7 d8		 neg	 eax
  00007	1b c0		 sbb	 eax, eax
  00009	40		 inc	 eax

; 890  : 		}

  0000a	c3		 ret	 0
?empty@?$vector@UKeyMapEffect@ioCrecendoSkill@@V?$allocator@UKeyMapEffect@ioCrecendoSkill@@@std@@@std@@QBE_NXZ ENDP ; std::vector<ioCrecendoSkill::KeyMapEffect,std::allocator<ioCrecendoSkill::KeyMapEffect> >::empty
_TEXT	ENDS
PUBLIC	??D?$_Vector_const_iterator@V?$_Vector_val@UKeyMapEffect@ioCrecendoSkill@@V?$allocator@UKeyMapEffect@ioCrecendoSkill@@@std@@@std@@@std@@QBEABUKeyMapEffect@ioCrecendoSkill@@XZ ; std::_Vector_const_iterator<std::_Vector_val<ioCrecendoSkill::KeyMapEffect,std::allocator<ioCrecendoSkill::KeyMapEffect> > >::operator*
; Function compile flags: /Ogsp
;	COMDAT ??D?$_Vector_const_iterator@V?$_Vector_val@UKeyMapEffect@ioCrecendoSkill@@V?$allocator@UKeyMapEffect@ioCrecendoSkill@@@std@@@std@@@std@@QBEABUKeyMapEffect@ioCrecendoSkill@@XZ
_TEXT	SEGMENT
??D?$_Vector_const_iterator@V?$_Vector_val@UKeyMapEffect@ioCrecendoSkill@@V?$allocator@UKeyMapEffect@ioCrecendoSkill@@@std@@@std@@@std@@QBEABUKeyMapEffect@ioCrecendoSkill@@XZ PROC ; std::_Vector_const_iterator<std::_Vector_val<ioCrecendoSkill::KeyMapEffect,std::allocator<ioCrecendoSkill::KeyMapEffect> > >::operator*, COMDAT
; _this$ = ecx

; 64   :  #if _ITERATOR_DEBUG_LEVEL == 2
; 65   : 		if (this->_Getcont() == 0
; 66   : 			|| this->_Ptr == 0
; 67   : 			|| this->_Ptr < ((_Myvec *)this->_Getcont())->_Myfirst
; 68   : 			|| ((_Myvec *)this->_Getcont())->_Mylast <= this->_Ptr)
; 69   : 			{	// report error
; 70   : 			_DEBUG_ERROR("vector iterator not dereferencable");
; 71   : 			_SCL_SECURE_OUT_OF_RANGE;
; 72   : 			}
; 73   : 
; 74   :  #elif _ITERATOR_DEBUG_LEVEL == 1
; 75   : 		_SCL_SECURE_VALIDATE(this->_Getcont() != 0);
; 76   : 		_SCL_SECURE_VALIDATE_RANGE(
; 77   : 			this->_Ptr != 0
; 78   : 			&& ((_Myvec *)this->_Getcont())->_Myfirst <= this->_Ptr
; 79   : 			&& this->_Ptr < ((_Myvec *)this->_Getcont())->_Mylast);
; 80   :  #endif /* _ITERATOR_DEBUG_LEVEL */
; 81   : 
; 82   : 		__analysis_assume(this->_Ptr != 0);
; 83   : 
; 84   : 		return (*this->_Ptr);

  00000	8b 01		 mov	 eax, DWORD PTR [ecx]

; 85   : 		}

  00002	c3		 ret	 0
??D?$_Vector_const_iterator@V?$_Vector_val@UKeyMapEffect@ioCrecendoSkill@@V?$allocator@UKeyMapEffect@ioCrecendoSkill@@@std@@@std@@@std@@QBEABUKeyMapEffect@ioCrecendoSkill@@XZ ENDP ; std::_Vector_const_iterator<std::_Vector_val<ioCrecendoSkill::KeyMapEffect,std::allocator<ioCrecendoSkill::KeyMapEffect> > >::operator*
_TEXT	ENDS
PUBLIC	??E?$_Vector_const_iterator@V?$_Vector_val@UKeyMapEffect@ioCrecendoSkill@@V?$allocator@UKeyMapEffect@ioCrecendoSkill@@@std@@@std@@@std@@QAEAAV01@XZ ; std::_Vector_const_iterator<std::_Vector_val<ioCrecendoSkill::KeyMapEffect,std::allocator<ioCrecendoSkill::KeyMapEffect> > >::operator++
; Function compile flags: /Ogsp
;	COMDAT ??E?$_Vector_const_iterator@V?$_Vector_val@UKeyMapEffect@ioCrecendoSkill@@V?$allocator@UKeyMapEffect@ioCrecendoSkill@@@std@@@std@@@std@@QAEAAV01@XZ
_TEXT	SEGMENT
??E?$_Vector_const_iterator@V?$_Vector_val@UKeyMapEffect@ioCrecendoSkill@@V?$allocator@UKeyMapEffect@ioCrecendoSkill@@@std@@@std@@@std@@QAEAAV01@XZ PROC ; std::_Vector_const_iterator<std::_Vector_val<ioCrecendoSkill::KeyMapEffect,std::allocator<ioCrecendoSkill::KeyMapEffect> > >::operator++, COMDAT
; _this$ = ecx

; 93   : 		{	// preincrement

  00000	8b c1		 mov	 eax, ecx

; 94   :  #if _ITERATOR_DEBUG_LEVEL == 2
; 95   : 		if (this->_Getcont() == 0
; 96   : 			|| this->_Ptr == 0
; 97   : 			|| ((_Myvec *)this->_Getcont())->_Mylast <= this->_Ptr)
; 98   : 			{	// report error
; 99   : 			_DEBUG_ERROR("vector iterator not incrementable");
; 100  : 			_SCL_SECURE_OUT_OF_RANGE;
; 101  : 			}
; 102  : 
; 103  :  #elif _ITERATOR_DEBUG_LEVEL == 1
; 104  : 		_SCL_SECURE_VALIDATE(this->_Getcont() != 0);
; 105  : 		_SCL_SECURE_VALIDATE_RANGE(
; 106  : 			this->_Ptr != 0
; 107  : 			&& this->_Ptr < ((_Myvec *)this->_Getcont())->_Mylast);
; 108  :  #endif /* _ITERATOR_DEBUG_LEVEL */
; 109  : 
; 110  : 		++this->_Ptr;

  00002	83 00 08	 add	 DWORD PTR [eax], 8

; 111  : 		return (*this);
; 112  : 		}

  00005	c3		 ret	 0
??E?$_Vector_const_iterator@V?$_Vector_val@UKeyMapEffect@ioCrecendoSkill@@V?$allocator@UKeyMapEffect@ioCrecendoSkill@@@std@@@std@@@std@@QAEAAV01@XZ ENDP ; std::_Vector_const_iterator<std::_Vector_val<ioCrecendoSkill::KeyMapEffect,std::allocator<ioCrecendoSkill::KeyMapEffect> > >::operator++
_TEXT	ENDS
PUBLIC	??D?$_Vector_iterator@V?$_Vector_val@UKeyMapEffect@ioCrecendoSkill@@V?$allocator@UKeyMapEffect@ioCrecendoSkill@@@std@@@std@@@std@@QBEAAUKeyMapEffect@ioCrecendoSkill@@XZ ; std::_Vector_iterator<std::_Vector_val<ioCrecendoSkill::KeyMapEffect,std::allocator<ioCrecendoSkill::KeyMapEffect> > >::operator*
; Function compile flags: /Ogsp
;	COMDAT ??D?$_Vector_iterator@V?$_Vector_val@UKeyMapEffect@ioCrecendoSkill@@V?$allocator@UKeyMapEffect@ioCrecendoSkill@@@std@@@std@@@std@@QBEAAUKeyMapEffect@ioCrecendoSkill@@XZ
_TEXT	SEGMENT
??D?$_Vector_iterator@V?$_Vector_val@UKeyMapEffect@ioCrecendoSkill@@V?$allocator@UKeyMapEffect@ioCrecendoSkill@@@std@@@std@@@std@@QBEAAUKeyMapEffect@ioCrecendoSkill@@XZ PROC ; std::_Vector_iterator<std::_Vector_val<ioCrecendoSkill::KeyMapEffect,std::allocator<ioCrecendoSkill::KeyMapEffect> > >::operator*, COMDAT
; _this$ = ecx

; 322  : 		return ((reference)**(_Mybase *)this);

  00000	8b 01		 mov	 eax, DWORD PTR [ecx]

; 323  : 		}

  00002	c3		 ret	 0
??D?$_Vector_iterator@V?$_Vector_val@UKeyMapEffect@ioCrecendoSkill@@V?$allocator@UKeyMapEffect@ioCrecendoSkill@@@std@@@std@@@std@@QBEAAUKeyMapEffect@ioCrecendoSkill@@XZ ENDP ; std::_Vector_iterator<std::_Vector_val<ioCrecendoSkill::KeyMapEffect,std::allocator<ioCrecendoSkill::KeyMapEffect> > >::operator*
_TEXT	ENDS
PUBLIC	??E?$_Vector_iterator@V?$_Vector_val@UKeyMapEffect@ioCrecendoSkill@@V?$allocator@UKeyMapEffect@ioCrecendoSkill@@@std@@@std@@@std@@QAEAAV01@XZ ; std::_Vector_iterator<std::_Vector_val<ioCrecendoSkill::KeyMapEffect,std::allocator<ioCrecendoSkill::KeyMapEffect> > >::operator++
; Function compile flags: /Ogsp
;	COMDAT ??E?$_Vector_iterator@V?$_Vector_val@UKeyMapEffect@ioCrecendoSkill@@V?$allocator@UKeyMapEffect@ioCrecendoSkill@@@std@@@std@@@std@@QAEAAV01@XZ
_TEXT	SEGMENT
??E?$_Vector_iterator@V?$_Vector_val@UKeyMapEffect@ioCrecendoSkill@@V?$allocator@UKeyMapEffect@ioCrecendoSkill@@@std@@@std@@@std@@QAEAAV01@XZ PROC ; std::_Vector_iterator<std::_Vector_val<ioCrecendoSkill::KeyMapEffect,std::allocator<ioCrecendoSkill::KeyMapEffect> > >::operator++, COMDAT
; _this$ = ecx

; 331  : 		{	// preincrement

  00000	8b c1		 mov	 eax, ecx

; 332  : 		++*(_Mybase *)this;

  00002	83 00 08	 add	 DWORD PTR [eax], 8

; 333  : 		return (*this);
; 334  : 		}

  00005	c3		 ret	 0
??E?$_Vector_iterator@V?$_Vector_val@UKeyMapEffect@ioCrecendoSkill@@V?$allocator@UKeyMapEffect@ioCrecendoSkill@@@std@@@std@@@std@@QAEAAV01@XZ ENDP ; std::_Vector_iterator<std::_Vector_val<ioCrecendoSkill::KeyMapEffect,std::allocator<ioCrecendoSkill::KeyMapEffect> > >::operator++
_TEXT	ENDS
PUBLIC	??D?$_Vector_const_iterator@V?$_Vector_val@UWaveKey@ioCrecendoSkill@@V?$allocator@UWaveKey@ioCrecendoSkill@@@std@@@std@@@std@@QBEABUWaveKey@ioCrecendoSkill@@XZ ; std::_Vector_const_iterator<std::_Vector_val<ioCrecendoSkill::WaveKey,std::allocator<ioCrecendoSkill::WaveKey> > >::operator*
; Function compile flags: /Ogsp
;	COMDAT ??D?$_Vector_const_iterator@V?$_Vector_val@UWaveKey@ioCrecendoSkill@@V?$allocator@UWaveKey@ioCrecendoSkill@@@std@@@std@@@std@@QBEABUWaveKey@ioCrecendoSkill@@XZ
_TEXT	SEGMENT
??D?$_Vector_const_iterator@V?$_Vector_val@UWaveKey@ioCrecendoSkill@@V?$allocator@UWaveKey@ioCrecendoSkill@@@std@@@std@@@std@@QBEABUWaveKey@ioCrecendoSkill@@XZ PROC ; std::_Vector_const_iterator<std::_Vector_val<ioCrecendoSkill::WaveKey,std::allocator<ioCrecendoSkill::WaveKey> > >::operator*, COMDAT
; _this$ = ecx

; 64   :  #if _ITERATOR_DEBUG_LEVEL == 2
; 65   : 		if (this->_Getcont() == 0
; 66   : 			|| this->_Ptr == 0
; 67   : 			|| this->_Ptr < ((_Myvec *)this->_Getcont())->_Myfirst
; 68   : 			|| ((_Myvec *)this->_Getcont())->_Mylast <= this->_Ptr)
; 69   : 			{	// report error
; 70   : 			_DEBUG_ERROR("vector iterator not dereferencable");
; 71   : 			_SCL_SECURE_OUT_OF_RANGE;
; 72   : 			}
; 73   : 
; 74   :  #elif _ITERATOR_DEBUG_LEVEL == 1
; 75   : 		_SCL_SECURE_VALIDATE(this->_Getcont() != 0);
; 76   : 		_SCL_SECURE_VALIDATE_RANGE(
; 77   : 			this->_Ptr != 0
; 78   : 			&& ((_Myvec *)this->_Getcont())->_Myfirst <= this->_Ptr
; 79   : 			&& this->_Ptr < ((_Myvec *)this->_Getcont())->_Mylast);
; 80   :  #endif /* _ITERATOR_DEBUG_LEVEL */
; 81   : 
; 82   : 		__analysis_assume(this->_Ptr != 0);
; 83   : 
; 84   : 		return (*this->_Ptr);

  00000	8b 01		 mov	 eax, DWORD PTR [ecx]

; 85   : 		}

  00002	c3		 ret	 0
??D?$_Vector_const_iterator@V?$_Vector_val@UWaveKey@ioCrecendoSkill@@V?$allocator@UWaveKey@ioCrecendoSkill@@@std@@@std@@@std@@QBEABUWaveKey@ioCrecendoSkill@@XZ ENDP ; std::_Vector_const_iterator<std::_Vector_val<ioCrecendoSkill::WaveKey,std::allocator<ioCrecendoSkill::WaveKey> > >::operator*
_TEXT	ENDS
PUBLIC	??E?$_Vector_const_iterator@V?$_Vector_val@UWaveKey@ioCrecendoSkill@@V?$allocator@UWaveKey@ioCrecendoSkill@@@std@@@std@@@std@@QAEAAV01@XZ ; std::_Vector_const_iterator<std::_Vector_val<ioCrecendoSkill::WaveKey,std::allocator<ioCrecendoSkill::WaveKey> > >::operator++
; Function compile flags: /Ogsp
;	COMDAT ??E?$_Vector_const_iterator@V?$_Vector_val@UWaveKey@ioCrecendoSkill@@V?$allocator@UWaveKey@ioCrecendoSkill@@@std@@@std@@@std@@QAEAAV01@XZ
_TEXT	SEGMENT
??E?$_Vector_const_iterator@V?$_Vector_val@UWaveKey@ioCrecendoSkill@@V?$allocator@UWaveKey@ioCrecendoSkill@@@std@@@std@@@std@@QAEAAV01@XZ PROC ; std::_Vector_const_iterator<std::_Vector_val<ioCrecendoSkill::WaveKey,std::allocator<ioCrecendoSkill::WaveKey> > >::operator++, COMDAT
; _this$ = ecx

; 93   : 		{	// preincrement

  00000	8b c1		 mov	 eax, ecx

; 94   :  #if _ITERATOR_DEBUG_LEVEL == 2
; 95   : 		if (this->_Getcont() == 0
; 96   : 			|| this->_Ptr == 0
; 97   : 			|| ((_Myvec *)this->_Getcont())->_Mylast <= this->_Ptr)
; 98   : 			{	// report error
; 99   : 			_DEBUG_ERROR("vector iterator not incrementable");
; 100  : 			_SCL_SECURE_OUT_OF_RANGE;
; 101  : 			}
; 102  : 
; 103  :  #elif _ITERATOR_DEBUG_LEVEL == 1
; 104  : 		_SCL_SECURE_VALIDATE(this->_Getcont() != 0);
; 105  : 		_SCL_SECURE_VALIDATE_RANGE(
; 106  : 			this->_Ptr != 0
; 107  : 			&& this->_Ptr < ((_Myvec *)this->_Getcont())->_Mylast);
; 108  :  #endif /* _ITERATOR_DEBUG_LEVEL */
; 109  : 
; 110  : 		++this->_Ptr;

  00002	83 00 6c	 add	 DWORD PTR [eax], 108	; 0000006cH

; 111  : 		return (*this);
; 112  : 		}

  00005	c3		 ret	 0
??E?$_Vector_const_iterator@V?$_Vector_val@UWaveKey@ioCrecendoSkill@@V?$allocator@UWaveKey@ioCrecendoSkill@@@std@@@std@@@std@@QAEAAV01@XZ ENDP ; std::_Vector_const_iterator<std::_Vector_val<ioCrecendoSkill::WaveKey,std::allocator<ioCrecendoSkill::WaveKey> > >::operator++
_TEXT	ENDS
PUBLIC	??0?$_Vector_const_iterator@V?$_Vector_val@PAVioBaseChar@@V?$allocator@PAVioBaseChar@@@std@@@std@@@std@@QAE@XZ ; std::_Vector_const_iterator<std::_Vector_val<ioBaseChar *,std::allocator<ioBaseChar *> > >::_Vector_const_iterator<std::_Vector_val<ioBaseChar *,std::allocator<ioBaseChar *> > >
; Function compile flags: /Ogsp
;	COMDAT ??0?$_Vector_const_iterator@V?$_Vector_val@PAVioBaseChar@@V?$allocator@PAVioBaseChar@@@std@@@std@@@std@@QAE@XZ
_TEXT	SEGMENT
??0?$_Vector_const_iterator@V?$_Vector_val@PAVioBaseChar@@V?$allocator@PAVioBaseChar@@@std@@@std@@@std@@QAE@XZ PROC ; std::_Vector_const_iterator<std::_Vector_val<ioBaseChar *,std::allocator<ioBaseChar *> > >::_Vector_const_iterator<std::_Vector_val<ioBaseChar *,std::allocator<ioBaseChar *> > >, COMDAT
; _this$ = ecx

; 40   : 		{	// construct with null pointer

  00000	8b c1		 mov	 eax, ecx
  00002	83 20 00	 and	 DWORD PTR [eax], 0

; 41   : 		}

  00005	c3		 ret	 0
??0?$_Vector_const_iterator@V?$_Vector_val@PAVioBaseChar@@V?$allocator@PAVioBaseChar@@@std@@@std@@@std@@QAE@XZ ENDP ; std::_Vector_const_iterator<std::_Vector_val<ioBaseChar *,std::allocator<ioBaseChar *> > >::_Vector_const_iterator<std::_Vector_val<ioBaseChar *,std::allocator<ioBaseChar *> > >
_TEXT	ENDS
PUBLIC	??D?$_Vector_const_iterator@V?$_Vector_val@PAVioBaseChar@@V?$allocator@PAVioBaseChar@@@std@@@std@@@std@@QBEABQAVioBaseChar@@XZ ; std::_Vector_const_iterator<std::_Vector_val<ioBaseChar *,std::allocator<ioBaseChar *> > >::operator*
; Function compile flags: /Ogsp
;	COMDAT ??D?$_Vector_const_iterator@V?$_Vector_val@PAVioBaseChar@@V?$allocator@PAVioBaseChar@@@std@@@std@@@std@@QBEABQAVioBaseChar@@XZ
_TEXT	SEGMENT
??D?$_Vector_const_iterator@V?$_Vector_val@PAVioBaseChar@@V?$allocator@PAVioBaseChar@@@std@@@std@@@std@@QBEABQAVioBaseChar@@XZ PROC ; std::_Vector_const_iterator<std::_Vector_val<ioBaseChar *,std::allocator<ioBaseChar *> > >::operator*, COMDAT
; _this$ = ecx

; 64   :  #if _ITERATOR_DEBUG_LEVEL == 2
; 65   : 		if (this->_Getcont() == 0
; 66   : 			|| this->_Ptr == 0
; 67   : 			|| this->_Ptr < ((_Myvec *)this->_Getcont())->_Myfirst
; 68   : 			|| ((_Myvec *)this->_Getcont())->_Mylast <= this->_Ptr)
; 69   : 			{	// report error
; 70   : 			_DEBUG_ERROR("vector iterator not dereferencable");
; 71   : 			_SCL_SECURE_OUT_OF_RANGE;
; 72   : 			}
; 73   : 
; 74   :  #elif _ITERATOR_DEBUG_LEVEL == 1
; 75   : 		_SCL_SECURE_VALIDATE(this->_Getcont() != 0);
; 76   : 		_SCL_SECURE_VALIDATE_RANGE(
; 77   : 			this->_Ptr != 0
; 78   : 			&& ((_Myvec *)this->_Getcont())->_Myfirst <= this->_Ptr
; 79   : 			&& this->_Ptr < ((_Myvec *)this->_Getcont())->_Mylast);
; 80   :  #endif /* _ITERATOR_DEBUG_LEVEL */
; 81   : 
; 82   : 		__analysis_assume(this->_Ptr != 0);
; 83   : 
; 84   : 		return (*this->_Ptr);

  00000	8b 01		 mov	 eax, DWORD PTR [ecx]

; 85   : 		}

  00002	c3		 ret	 0
??D?$_Vector_const_iterator@V?$_Vector_val@PAVioBaseChar@@V?$allocator@PAVioBaseChar@@@std@@@std@@@std@@QBEABQAVioBaseChar@@XZ ENDP ; std::_Vector_const_iterator<std::_Vector_val<ioBaseChar *,std::allocator<ioBaseChar *> > >::operator*
_TEXT	ENDS
PUBLIC	??E?$_Vector_const_iterator@V?$_Vector_val@PAVioBaseChar@@V?$allocator@PAVioBaseChar@@@std@@@std@@@std@@QAEAAV01@XZ ; std::_Vector_const_iterator<std::_Vector_val<ioBaseChar *,std::allocator<ioBaseChar *> > >::operator++
; Function compile flags: /Ogsp
;	COMDAT ??E?$_Vector_const_iterator@V?$_Vector_val@PAVioBaseChar@@V?$allocator@PAVioBaseChar@@@std@@@std@@@std@@QAEAAV01@XZ
_TEXT	SEGMENT
??E?$_Vector_const_iterator@V?$_Vector_val@PAVioBaseChar@@V?$allocator@PAVioBaseChar@@@std@@@std@@@std@@QAEAAV01@XZ PROC ; std::_Vector_const_iterator<std::_Vector_val<ioBaseChar *,std::allocator<ioBaseChar *> > >::operator++, COMDAT
; _this$ = ecx

; 93   : 		{	// preincrement

  00000	8b c1		 mov	 eax, ecx

; 94   :  #if _ITERATOR_DEBUG_LEVEL == 2
; 95   : 		if (this->_Getcont() == 0
; 96   : 			|| this->_Ptr == 0
; 97   : 			|| ((_Myvec *)this->_Getcont())->_Mylast <= this->_Ptr)
; 98   : 			{	// report error
; 99   : 			_DEBUG_ERROR("vector iterator not incrementable");
; 100  : 			_SCL_SECURE_OUT_OF_RANGE;
; 101  : 			}
; 102  : 
; 103  :  #elif _ITERATOR_DEBUG_LEVEL == 1
; 104  : 		_SCL_SECURE_VALIDATE(this->_Getcont() != 0);
; 105  : 		_SCL_SECURE_VALIDATE_RANGE(
; 106  : 			this->_Ptr != 0
; 107  : 			&& this->_Ptr < ((_Myvec *)this->_Getcont())->_Mylast);
; 108  :  #endif /* _ITERATOR_DEBUG_LEVEL */
; 109  : 
; 110  : 		++this->_Ptr;

  00002	83 00 04	 add	 DWORD PTR [eax], 4

; 111  : 		return (*this);
; 112  : 		}

  00005	c3		 ret	 0
??E?$_Vector_const_iterator@V?$_Vector_val@PAVioBaseChar@@V?$allocator@PAVioBaseChar@@@std@@@std@@@std@@QAEAAV01@XZ ENDP ; std::_Vector_const_iterator<std::_Vector_val<ioBaseChar *,std::allocator<ioBaseChar *> > >::operator++
_TEXT	ENDS
PUBLIC	?capacity@?$vector@UWaveKey@ioCrecendoSkill@@V?$allocator@UWaveKey@ioCrecendoSkill@@@std@@@std@@QBEIXZ ; std::vector<ioCrecendoSkill::WaveKey,std::allocator<ioCrecendoSkill::WaveKey> >::capacity
; Function compile flags: /Ogsp
;	COMDAT ?capacity@?$vector@UWaveKey@ioCrecendoSkill@@V?$allocator@UWaveKey@ioCrecendoSkill@@@std@@@std@@QBEIXZ
_TEXT	SEGMENT
?capacity@?$vector@UWaveKey@ioCrecendoSkill@@V?$allocator@UWaveKey@ioCrecendoSkill@@@std@@@std@@QBEIXZ PROC ; std::vector<ioCrecendoSkill::WaveKey,std::allocator<ioCrecendoSkill::WaveKey> >::capacity, COMDAT
; _this$ = ecx

; 777  : 		return (this->_Myend - this->_Myfirst);

  00000	8b 41 08	 mov	 eax, DWORD PTR [ecx+8]
  00003	2b 01		 sub	 eax, DWORD PTR [ecx]
  00005	6a 6c		 push	 108			; 0000006cH
  00007	99		 cdq
  00008	59		 pop	 ecx
  00009	f7 f9		 idiv	 ecx

; 778  : 		}

  0000b	c3		 ret	 0
?capacity@?$vector@UWaveKey@ioCrecendoSkill@@V?$allocator@UWaveKey@ioCrecendoSkill@@@std@@@std@@QBEIXZ ENDP ; std::vector<ioCrecendoSkill::WaveKey,std::allocator<ioCrecendoSkill::WaveKey> >::capacity
_TEXT	ENDS
PUBLIC	?_Inside@?$vector@UWaveKey@ioCrecendoSkill@@V?$allocator@UWaveKey@ioCrecendoSkill@@@std@@@std@@IBE_NPBUWaveKey@ioCrecendoSkill@@@Z ; std::vector<ioCrecendoSkill::WaveKey,std::allocator<ioCrecendoSkill::WaveKey> >::_Inside
; Function compile flags: /Ogsp
;	COMDAT ?_Inside@?$vector@UWaveKey@ioCrecendoSkill@@V?$allocator@UWaveKey@ioCrecendoSkill@@@std@@@std@@IBE_NPBUWaveKey@ioCrecendoSkill@@@Z
_TEXT	SEGMENT
__Ptr$ = 8						; size = 4
?_Inside@?$vector@UWaveKey@ioCrecendoSkill@@V?$allocator@UWaveKey@ioCrecendoSkill@@@std@@@std@@IBE_NPBUWaveKey@ioCrecendoSkill@@@Z PROC ; std::vector<ioCrecendoSkill::WaveKey,std::allocator<ioCrecendoSkill::WaveKey> >::_Inside, COMDAT
; _this$ = ecx

; 1285 : 		{	// test if _Ptr points inside vector

  00000	55		 push	 ebp
  00001	8b ec		 mov	 ebp, esp

; 1286 : 		return (_Ptr < this->_Mylast && this->_Myfirst <= _Ptr);

  00003	8b 45 08	 mov	 eax, DWORD PTR __Ptr$[ebp]
  00006	3b 41 04	 cmp	 eax, DWORD PTR [ecx+4]
  00009	73 09		 jae	 SHORT $LN3@Inside
  0000b	39 01		 cmp	 DWORD PTR [ecx], eax
  0000d	77 05		 ja	 SHORT $LN3@Inside
  0000f	33 c0		 xor	 eax, eax
  00011	40		 inc	 eax
  00012	eb 02		 jmp	 SHORT $LN4@Inside
$LN3@Inside:
  00014	33 c0		 xor	 eax, eax
$LN4@Inside:

; 1287 : 		}

  00016	5d		 pop	 ebp
  00017	c2 04 00	 ret	 4
?_Inside@?$vector@UWaveKey@ioCrecendoSkill@@V?$allocator@UWaveKey@ioCrecendoSkill@@@std@@@std@@IBE_NPBUWaveKey@ioCrecendoSkill@@@Z ENDP ; std::vector<ioCrecendoSkill::WaveKey,std::allocator<ioCrecendoSkill::WaveKey> >::_Inside
_TEXT	ENDS
PUBLIC	??_C@_0BD@OLBABOEK@vector?$DMT?$DO?5too?5long?$AA@ ; `string'
PUBLIC	?_Xlen@?$vector@UWaveKey@ioCrecendoSkill@@V?$allocator@UWaveKey@ioCrecendoSkill@@@std@@@std@@IBEXXZ ; std::vector<ioCrecendoSkill::WaveKey,std::allocator<ioCrecendoSkill::WaveKey> >::_Xlen
EXTRN	__imp_?_Xlength_error@std@@YAXPBD@Z:PROC
;	COMDAT ??_C@_0BD@OLBABOEK@vector?$DMT?$DO?5too?5long?$AA@
CONST	SEGMENT
??_C@_0BD@OLBABOEK@vector?$DMT?$DO?5too?5long?$AA@ DB 'vector<T> too long'
	DB	00H						; `string'
; Function compile flags: /Ogsp
CONST	ENDS
;	COMDAT ?_Xlen@?$vector@UWaveKey@ioCrecendoSkill@@V?$allocator@UWaveKey@ioCrecendoSkill@@@std@@@std@@IBEXXZ
_TEXT	SEGMENT
?_Xlen@?$vector@UWaveKey@ioCrecendoSkill@@V?$allocator@UWaveKey@ioCrecendoSkill@@@std@@@std@@IBEXXZ PROC ; std::vector<ioCrecendoSkill::WaveKey,std::allocator<ioCrecendoSkill::WaveKey> >::_Xlen, COMDAT
; _this$ = ecx

; 1427 : 		_Xlength_error("vector<T> too long");

  00000	68 00 00 00 00	 push	 OFFSET ??_C@_0BD@OLBABOEK@vector?$DMT?$DO?5too?5long?$AA@
  00005	ff 15 00 00 00
	00		 call	 DWORD PTR __imp_?_Xlength_error@std@@YAXPBD@Z
$LN4@Xlen:
$LN3@Xlen:
  0000b	cc		 int	 3
?_Xlen@?$vector@UWaveKey@ioCrecendoSkill@@V?$allocator@UWaveKey@ioCrecendoSkill@@@std@@@std@@IBEXXZ ENDP ; std::vector<ioCrecendoSkill::WaveKey,std::allocator<ioCrecendoSkill::WaveKey> >::_Xlen
_TEXT	ENDS
PUBLIC	?_Orphan_range@?$vector@UWaveKey@ioCrecendoSkill@@V?$allocator@UWaveKey@ioCrecendoSkill@@@std@@@std@@IBEXPAUWaveKey@ioCrecendoSkill@@0@Z ; std::vector<ioCrecendoSkill::WaveKey,std::allocator<ioCrecendoSkill::WaveKey> >::_Orphan_range
; Function compile flags: /Ogsp
;	COMDAT ?_Orphan_range@?$vector@UWaveKey@ioCrecendoSkill@@V?$allocator@UWaveKey@ioCrecendoSkill@@@std@@@std@@IBEXPAUWaveKey@ioCrecendoSkill@@0@Z
_TEXT	SEGMENT
___formal$ = 8						; size = 4
___formal$ = 12						; size = 4
?_Orphan_range@?$vector@UWaveKey@ioCrecendoSkill@@V?$allocator@UWaveKey@ioCrecendoSkill@@@std@@@std@@IBEXPAUWaveKey@ioCrecendoSkill@@0@Z PROC ; std::vector<ioCrecendoSkill::WaveKey,std::allocator<ioCrecendoSkill::WaveKey> >::_Orphan_range, COMDAT
; _this$ = ecx

; 1454 : 		}

  00000	c2 08 00	 ret	 8
?_Orphan_range@?$vector@UWaveKey@ioCrecendoSkill@@V?$allocator@UWaveKey@ioCrecendoSkill@@@std@@@std@@IBEXPAUWaveKey@ioCrecendoSkill@@0@Z ENDP ; std::vector<ioCrecendoSkill::WaveKey,std::allocator<ioCrecendoSkill::WaveKey> >::_Orphan_range
_TEXT	ENDS
PUBLIC	??1?$_Vector_val@UWaveKey@ioCrecendoSkill@@V?$allocator@UWaveKey@ioCrecendoSkill@@@std@@@std@@QAE@XZ ; std::_Vector_val<ioCrecendoSkill::WaveKey,std::allocator<ioCrecendoSkill::WaveKey> >::~_Vector_val<ioCrecendoSkill::WaveKey,std::allocator<ioCrecendoSkill::WaveKey> >
; Function compile flags: /Ogsp
;	COMDAT ??1?$_Vector_val@UWaveKey@ioCrecendoSkill@@V?$allocator@UWaveKey@ioCrecendoSkill@@@std@@@std@@QAE@XZ
_TEXT	SEGMENT
??1?$_Vector_val@UWaveKey@ioCrecendoSkill@@V?$allocator@UWaveKey@ioCrecendoSkill@@@std@@@std@@QAE@XZ PROC ; std::_Vector_val<ioCrecendoSkill::WaveKey,std::allocator<ioCrecendoSkill::WaveKey> >::~_Vector_val<ioCrecendoSkill::WaveKey,std::allocator<ioCrecendoSkill::WaveKey> >, COMDAT
; _this$ = ecx

; 434  : 		}

  00000	c3		 ret	 0
??1?$_Vector_val@UWaveKey@ioCrecendoSkill@@V?$allocator@UWaveKey@ioCrecendoSkill@@@std@@@std@@QAE@XZ ENDP ; std::_Vector_val<ioCrecendoSkill::WaveKey,std::allocator<ioCrecendoSkill::WaveKey> >::~_Vector_val<ioCrecendoSkill::WaveKey,std::allocator<ioCrecendoSkill::WaveKey> >
_TEXT	ENDS
PUBLIC	??0?$allocator@UWaveKey@ioCrecendoSkill@@@std@@QAE@XZ ; std::allocator<ioCrecendoSkill::WaveKey>::allocator<ioCrecendoSkill::WaveKey>
; Function compile flags: /Ogsp
; File c:\program files (x86)\microsoft visual studio 10.0\vc\include\xmemory
;	COMDAT ??0?$allocator@UWaveKey@ioCrecendoSkill@@@std@@QAE@XZ
_TEXT	SEGMENT
??0?$allocator@UWaveKey@ioCrecendoSkill@@@std@@QAE@XZ PROC ; std::allocator<ioCrecendoSkill::WaveKey>::allocator<ioCrecendoSkill::WaveKey>, COMDAT
; _this$ = ecx

; 161  : 	_ALLOCATOR() _THROW0()

  00000	8b c1		 mov	 eax, ecx

; 162  : 		{	// construct default allocator (do nothing)
; 163  : 		}

  00002	c3		 ret	 0
??0?$allocator@UWaveKey@ioCrecendoSkill@@@std@@QAE@XZ ENDP ; std::allocator<ioCrecendoSkill::WaveKey>::allocator<ioCrecendoSkill::WaveKey>
_TEXT	ENDS
PUBLIC	??0?$allocator@UWaveKey@ioCrecendoSkill@@@std@@QAE@ABV01@@Z ; std::allocator<ioCrecendoSkill::WaveKey>::allocator<ioCrecendoSkill::WaveKey>
; Function compile flags: /Ogsp
;	COMDAT ??0?$allocator@UWaveKey@ioCrecendoSkill@@@std@@QAE@ABV01@@Z
_TEXT	SEGMENT
___formal$ = 8						; size = 4
??0?$allocator@UWaveKey@ioCrecendoSkill@@@std@@QAE@ABV01@@Z PROC ; std::allocator<ioCrecendoSkill::WaveKey>::allocator<ioCrecendoSkill::WaveKey>, COMDAT
; _this$ = ecx

; 165  : 	_ALLOCATOR(const _ALLOCATOR<_Ty>&) _THROW0()

  00000	8b c1		 mov	 eax, ecx

; 166  : 		{	// construct by copying (do nothing)
; 167  : 		}

  00002	c2 04 00	 ret	 4
??0?$allocator@UWaveKey@ioCrecendoSkill@@@std@@QAE@ABV01@@Z ENDP ; std::allocator<ioCrecendoSkill::WaveKey>::allocator<ioCrecendoSkill::WaveKey>
_TEXT	ENDS
PUBLIC	?deallocate@?$allocator@UWaveKey@ioCrecendoSkill@@@std@@QAEXPAUWaveKey@ioCrecendoSkill@@I@Z ; std::allocator<ioCrecendoSkill::WaveKey>::deallocate
; Function compile flags: /Ogsp
;	COMDAT ?deallocate@?$allocator@UWaveKey@ioCrecendoSkill@@@std@@QAEXPAUWaveKey@ioCrecendoSkill@@I@Z
_TEXT	SEGMENT
__Ptr$ = 8						; size = 4
___formal$ = 12						; size = 4
?deallocate@?$allocator@UWaveKey@ioCrecendoSkill@@@std@@QAEXPAUWaveKey@ioCrecendoSkill@@I@Z PROC ; std::allocator<ioCrecendoSkill::WaveKey>::deallocate, COMDAT
; _this$ = ecx

; 181  : 		{	// deallocate object at _Ptr, ignore size

  00000	55		 push	 ebp
  00001	8b ec		 mov	 ebp, esp

; 182  : 		::operator delete(_Ptr);

  00003	ff 75 08	 push	 DWORD PTR __Ptr$[ebp]
  00006	e8 00 00 00 00	 call	 ??3@YAXPAX@Z		; operator delete
  0000b	59		 pop	 ecx

; 183  : 		}

  0000c	5d		 pop	 ebp
  0000d	c2 08 00	 ret	 8
?deallocate@?$allocator@UWaveKey@ioCrecendoSkill@@@std@@QAEXPAUWaveKey@ioCrecendoSkill@@I@Z ENDP ; std::allocator<ioCrecendoSkill::WaveKey>::deallocate
_TEXT	ENDS
PUBLIC	?_Inside@?$vector@UKeyMapEffect@ioCrecendoSkill@@V?$allocator@UKeyMapEffect@ioCrecendoSkill@@@std@@@std@@IBE_NPBUKeyMapEffect@ioCrecendoSkill@@@Z ; std::vector<ioCrecendoSkill::KeyMapEffect,std::allocator<ioCrecendoSkill::KeyMapEffect> >::_Inside
; Function compile flags: /Ogsp
; File c:\program files (x86)\microsoft visual studio 10.0\vc\include\vector
;	COMDAT ?_Inside@?$vector@UKeyMapEffect@ioCrecendoSkill@@V?$allocator@UKeyMapEffect@ioCrecendoSkill@@@std@@@std@@IBE_NPBUKeyMapEffect@ioCrecendoSkill@@@Z
_TEXT	SEGMENT
__Ptr$ = 8						; size = 4
?_Inside@?$vector@UKeyMapEffect@ioCrecendoSkill@@V?$allocator@UKeyMapEffect@ioCrecendoSkill@@@std@@@std@@IBE_NPBUKeyMapEffect@ioCrecendoSkill@@@Z PROC ; std::vector<ioCrecendoSkill::KeyMapEffect,std::allocator<ioCrecendoSkill::KeyMapEffect> >::_Inside, COMDAT
; _this$ = ecx

; 1285 : 		{	// test if _Ptr points inside vector

  00000	55		 push	 ebp
  00001	8b ec		 mov	 ebp, esp

; 1286 : 		return (_Ptr < this->_Mylast && this->_Myfirst <= _Ptr);

  00003	8b 45 08	 mov	 eax, DWORD PTR __Ptr$[ebp]
  00006	3b 41 04	 cmp	 eax, DWORD PTR [ecx+4]
  00009	73 09		 jae	 SHORT $LN3@Inside@2
  0000b	39 01		 cmp	 DWORD PTR [ecx], eax
  0000d	77 05		 ja	 SHORT $LN3@Inside@2
  0000f	33 c0		 xor	 eax, eax
  00011	40		 inc	 eax
  00012	eb 02		 jmp	 SHORT $LN4@Inside@2
$LN3@Inside@2:
  00014	33 c0		 xor	 eax, eax
$LN4@Inside@2:

; 1287 : 		}

  00016	5d		 pop	 ebp
  00017	c2 04 00	 ret	 4
?_Inside@?$vector@UKeyMapEffect@ioCrecendoSkill@@V?$allocator@UKeyMapEffect@ioCrecendoSkill@@@std@@@std@@IBE_NPBUKeyMapEffect@ioCrecendoSkill@@@Z ENDP ; std::vector<ioCrecendoSkill::KeyMapEffect,std::allocator<ioCrecendoSkill::KeyMapEffect> >::_Inside
_TEXT	ENDS
PUBLIC	?_Orphan_range@?$vector@UKeyMapEffect@ioCrecendoSkill@@V?$allocator@UKeyMapEffect@ioCrecendoSkill@@@std@@@std@@IBEXPAUKeyMapEffect@ioCrecendoSkill@@0@Z ; std::vector<ioCrecendoSkill::KeyMapEffect,std::allocator<ioCrecendoSkill::KeyMapEffect> >::_Orphan_range
; Function compile flags: /Ogsp
;	COMDAT ?_Orphan_range@?$vector@UKeyMapEffect@ioCrecendoSkill@@V?$allocator@UKeyMapEffect@ioCrecendoSkill@@@std@@@std@@IBEXPAUKeyMapEffect@ioCrecendoSkill@@0@Z
_TEXT	SEGMENT
___formal$ = 8						; size = 4
___formal$ = 12						; size = 4
?_Orphan_range@?$vector@UKeyMapEffect@ioCrecendoSkill@@V?$allocator@UKeyMapEffect@ioCrecendoSkill@@@std@@@std@@IBEXPAUKeyMapEffect@ioCrecendoSkill@@0@Z PROC ; std::vector<ioCrecendoSkill::KeyMapEffect,std::allocator<ioCrecendoSkill::KeyMapEffect> >::_Orphan_range, COMDAT
; _this$ = ecx

; 1454 : 		}

  00000	c2 08 00	 ret	 8
?_Orphan_range@?$vector@UKeyMapEffect@ioCrecendoSkill@@V?$allocator@UKeyMapEffect@ioCrecendoSkill@@@std@@@std@@IBEXPAUKeyMapEffect@ioCrecendoSkill@@0@Z ENDP ; std::vector<ioCrecendoSkill::KeyMapEffect,std::allocator<ioCrecendoSkill::KeyMapEffect> >::_Orphan_range
_TEXT	ENDS
PUBLIC	??1?$_Vector_val@UKeyMapEffect@ioCrecendoSkill@@V?$allocator@UKeyMapEffect@ioCrecendoSkill@@@std@@@std@@QAE@XZ ; std::_Vector_val<ioCrecendoSkill::KeyMapEffect,std::allocator<ioCrecendoSkill::KeyMapEffect> >::~_Vector_val<ioCrecendoSkill::KeyMapEffect,std::allocator<ioCrecendoSkill::KeyMapEffect> >
; Function compile flags: /Ogsp
;	COMDAT ??1?$_Vector_val@UKeyMapEffect@ioCrecendoSkill@@V?$allocator@UKeyMapEffect@ioCrecendoSkill@@@std@@@std@@QAE@XZ
_TEXT	SEGMENT
??1?$_Vector_val@UKeyMapEffect@ioCrecendoSkill@@V?$allocator@UKeyMapEffect@ioCrecendoSkill@@@std@@@std@@QAE@XZ PROC ; std::_Vector_val<ioCrecendoSkill::KeyMapEffect,std::allocator<ioCrecendoSkill::KeyMapEffect> >::~_Vector_val<ioCrecendoSkill::KeyMapEffect,std::allocator<ioCrecendoSkill::KeyMapEffect> >, COMDAT
; _this$ = ecx

; 434  : 		}

  00000	c3		 ret	 0
??1?$_Vector_val@UKeyMapEffect@ioCrecendoSkill@@V?$allocator@UKeyMapEffect@ioCrecendoSkill@@@std@@@std@@QAE@XZ ENDP ; std::_Vector_val<ioCrecendoSkill::KeyMapEffect,std::allocator<ioCrecendoSkill::KeyMapEffect> >::~_Vector_val<ioCrecendoSkill::KeyMapEffect,std::allocator<ioCrecendoSkill::KeyMapEffect> >
_TEXT	ENDS
PUBLIC	??0?$allocator@UKeyMapEffect@ioCrecendoSkill@@@std@@QAE@XZ ; std::allocator<ioCrecendoSkill::KeyMapEffect>::allocator<ioCrecendoSkill::KeyMapEffect>
; Function compile flags: /Ogsp
; File c:\program files (x86)\microsoft visual studio 10.0\vc\include\xmemory
;	COMDAT ??0?$allocator@UKeyMapEffect@ioCrecendoSkill@@@std@@QAE@XZ
_TEXT	SEGMENT
??0?$allocator@UKeyMapEffect@ioCrecendoSkill@@@std@@QAE@XZ PROC ; std::allocator<ioCrecendoSkill::KeyMapEffect>::allocator<ioCrecendoSkill::KeyMapEffect>, COMDAT
; _this$ = ecx

; 161  : 	_ALLOCATOR() _THROW0()

  00000	8b c1		 mov	 eax, ecx

; 162  : 		{	// construct default allocator (do nothing)
; 163  : 		}

  00002	c3		 ret	 0
??0?$allocator@UKeyMapEffect@ioCrecendoSkill@@@std@@QAE@XZ ENDP ; std::allocator<ioCrecendoSkill::KeyMapEffect>::allocator<ioCrecendoSkill::KeyMapEffect>
_TEXT	ENDS
PUBLIC	??0?$_Vector_const_iterator@V?$_Vector_val@PAVioBaseChar@@V?$allocator@PAVioBaseChar@@@std@@@std@@@std@@QAE@PAPAVioBaseChar@@PBU_Container_base0@1@@Z ; std::_Vector_const_iterator<std::_Vector_val<ioBaseChar *,std::allocator<ioBaseChar *> > >::_Vector_const_iterator<std::_Vector_val<ioBaseChar *,std::allocator<ioBaseChar *> > >
; Function compile flags: /Ogsp
; File c:\program files (x86)\microsoft visual studio 10.0\vc\include\vector
;	COMDAT ??0?$_Vector_const_iterator@V?$_Vector_val@PAVioBaseChar@@V?$allocator@PAVioBaseChar@@@std@@@std@@@std@@QAE@PAPAVioBaseChar@@PBU_Container_base0@1@@Z
_TEXT	SEGMENT
__Parg$ = 8						; size = 4
__Pvector$ = 12						; size = 4
??0?$_Vector_const_iterator@V?$_Vector_val@PAVioBaseChar@@V?$allocator@PAVioBaseChar@@@std@@@std@@@std@@QAE@PAPAVioBaseChar@@PBU_Container_base0@1@@Z PROC ; std::_Vector_const_iterator<std::_Vector_val<ioBaseChar *,std::allocator<ioBaseChar *> > >::_Vector_const_iterator<std::_Vector_val<ioBaseChar *,std::allocator<ioBaseChar *> > >, COMDAT
; _this$ = ecx

; 45   : 		{	// construct with pointer _Parg

  00000	55		 push	 ebp
  00001	8b ec		 mov	 ebp, esp
  00003	8b c1		 mov	 eax, ecx
  00005	8b 4d 08	 mov	 ecx, DWORD PTR __Parg$[ebp]
  00008	89 08		 mov	 DWORD PTR [eax], ecx

; 46   : 		this->_Adopt(_Pvector);
; 47   : 		}

  0000a	5d		 pop	 ebp
  0000b	c2 08 00	 ret	 8
??0?$_Vector_const_iterator@V?$_Vector_val@PAVioBaseChar@@V?$allocator@PAVioBaseChar@@@std@@@std@@@std@@QAE@PAPAVioBaseChar@@PBU_Container_base0@1@@Z ENDP ; std::_Vector_const_iterator<std::_Vector_val<ioBaseChar *,std::allocator<ioBaseChar *> > >::_Vector_const_iterator<std::_Vector_val<ioBaseChar *,std::allocator<ioBaseChar *> > >
_TEXT	ENDS
PUBLIC	?max_size@?$allocator@UWaveKey@ioCrecendoSkill@@@std@@QBEIXZ ; std::allocator<ioCrecendoSkill::WaveKey>::max_size
; Function compile flags: /Ogsp
; File c:\program files (x86)\microsoft visual studio 10.0\vc\include\xmemory
;	COMDAT ?max_size@?$allocator@UWaveKey@ioCrecendoSkill@@@std@@QBEIXZ
_TEXT	SEGMENT
?max_size@?$allocator@UWaveKey@ioCrecendoSkill@@@std@@QBEIXZ PROC ; std::allocator<ioCrecendoSkill::WaveKey>::max_size, COMDAT
; _this$ = ecx

; 218  : 		_SIZT _Count = (_SIZT)(-1) / sizeof (_Ty);
; 219  : 		return (0 < _Count ? _Count : 1);

  00000	b8 97 d0 5e 02	 mov	 eax, 39768215		; 025ed097H

; 220  : 		}

  00005	c3		 ret	 0
?max_size@?$allocator@UWaveKey@ioCrecendoSkill@@@std@@QBEIXZ ENDP ; std::allocator<ioCrecendoSkill::WaveKey>::max_size
_TEXT	ENDS
PUBLIC	?capacity@?$vector@UKeyMapEffect@ioCrecendoSkill@@V?$allocator@UKeyMapEffect@ioCrecendoSkill@@@std@@@std@@QBEIXZ ; std::vector<ioCrecendoSkill::KeyMapEffect,std::allocator<ioCrecendoSkill::KeyMapEffect> >::capacity
; Function compile flags: /Ogsp
; File c:\program files (x86)\microsoft visual studio 10.0\vc\include\vector
;	COMDAT ?capacity@?$vector@UKeyMapEffect@ioCrecendoSkill@@V?$allocator@UKeyMapEffect@ioCrecendoSkill@@@std@@@std@@QBEIXZ
_TEXT	SEGMENT
?capacity@?$vector@UKeyMapEffect@ioCrecendoSkill@@V?$allocator@UKeyMapEffect@ioCrecendoSkill@@@std@@@std@@QBEIXZ PROC ; std::vector<ioCrecendoSkill::KeyMapEffect,std::allocator<ioCrecendoSkill::KeyMapEffect> >::capacity, COMDAT
; _this$ = ecx

; 777  : 		return (this->_Myend - this->_Myfirst);

  00000	8b 41 08	 mov	 eax, DWORD PTR [ecx+8]
  00003	2b 01		 sub	 eax, DWORD PTR [ecx]
  00005	c1 f8 03	 sar	 eax, 3

; 778  : 		}

  00008	c3		 ret	 0
?capacity@?$vector@UKeyMapEffect@ioCrecendoSkill@@V?$allocator@UKeyMapEffect@ioCrecendoSkill@@@std@@@std@@QBEIXZ ENDP ; std::vector<ioCrecendoSkill::KeyMapEffect,std::allocator<ioCrecendoSkill::KeyMapEffect> >::capacity
_TEXT	ENDS
PUBLIC	?_Xlen@?$vector@UKeyMapEffect@ioCrecendoSkill@@V?$allocator@UKeyMapEffect@ioCrecendoSkill@@@std@@@std@@IBEXXZ ; std::vector<ioCrecendoSkill::KeyMapEffect,std::allocator<ioCrecendoSkill::KeyMapEffect> >::_Xlen
; Function compile flags: /Ogsp
;	COMDAT ?_Xlen@?$vector@UKeyMapEffect@ioCrecendoSkill@@V?$allocator@UKeyMapEffect@ioCrecendoSkill@@@std@@@std@@IBEXXZ
_TEXT	SEGMENT
?_Xlen@?$vector@UKeyMapEffect@ioCrecendoSkill@@V?$allocator@UKeyMapEffect@ioCrecendoSkill@@@std@@@std@@IBEXXZ PROC ; std::vector<ioCrecendoSkill::KeyMapEffect,std::allocator<ioCrecendoSkill::KeyMapEffect> >::_Xlen, COMDAT
; _this$ = ecx

; 1427 : 		_Xlength_error("vector<T> too long");

  00000	68 00 00 00 00	 push	 OFFSET ??_C@_0BD@OLBABOEK@vector?$DMT?$DO?5too?5long?$AA@
  00005	ff 15 00 00 00
	00		 call	 DWORD PTR __imp_?_Xlength_error@std@@YAXPBD@Z
$LN4@Xlen@2:
$LN3@Xlen@2:
  0000b	cc		 int	 3
?_Xlen@?$vector@UKeyMapEffect@ioCrecendoSkill@@V?$allocator@UKeyMapEffect@ioCrecendoSkill@@@std@@@std@@IBEXXZ ENDP ; std::vector<ioCrecendoSkill::KeyMapEffect,std::allocator<ioCrecendoSkill::KeyMapEffect> >::_Xlen
_TEXT	ENDS
PUBLIC	??0?$allocator@UKeyMapEffect@ioCrecendoSkill@@@std@@QAE@ABV01@@Z ; std::allocator<ioCrecendoSkill::KeyMapEffect>::allocator<ioCrecendoSkill::KeyMapEffect>
; Function compile flags: /Ogsp
; File c:\program files (x86)\microsoft visual studio 10.0\vc\include\xmemory
;	COMDAT ??0?$allocator@UKeyMapEffect@ioCrecendoSkill@@@std@@QAE@ABV01@@Z
_TEXT	SEGMENT
___formal$ = 8						; size = 4
??0?$allocator@UKeyMapEffect@ioCrecendoSkill@@@std@@QAE@ABV01@@Z PROC ; std::allocator<ioCrecendoSkill::KeyMapEffect>::allocator<ioCrecendoSkill::KeyMapEffect>, COMDAT
; _this$ = ecx

; 165  : 	_ALLOCATOR(const _ALLOCATOR<_Ty>&) _THROW0()

  00000	8b c1		 mov	 eax, ecx

; 166  : 		{	// construct by copying (do nothing)
; 167  : 		}

  00002	c2 04 00	 ret	 4
??0?$allocator@UKeyMapEffect@ioCrecendoSkill@@@std@@QAE@ABV01@@Z ENDP ; std::allocator<ioCrecendoSkill::KeyMapEffect>::allocator<ioCrecendoSkill::KeyMapEffect>
_TEXT	ENDS
PUBLIC	?deallocate@?$allocator@UKeyMapEffect@ioCrecendoSkill@@@std@@QAEXPAUKeyMapEffect@ioCrecendoSkill@@I@Z ; std::allocator<ioCrecendoSkill::KeyMapEffect>::deallocate
; Function compile flags: /Ogsp
;	COMDAT ?deallocate@?$allocator@UKeyMapEffect@ioCrecendoSkill@@@std@@QAEXPAUKeyMapEffect@ioCrecendoSkill@@I@Z
_TEXT	SEGMENT
__Ptr$ = 8						; size = 4
___formal$ = 12						; size = 4
?deallocate@?$allocator@UKeyMapEffect@ioCrecendoSkill@@@std@@QAEXPAUKeyMapEffect@ioCrecendoSkill@@I@Z PROC ; std::allocator<ioCrecendoSkill::KeyMapEffect>::deallocate, COMDAT
; _this$ = ecx

; 181  : 		{	// deallocate object at _Ptr, ignore size

  00000	55		 push	 ebp
  00001	8b ec		 mov	 ebp, esp

; 182  : 		::operator delete(_Ptr);

  00003	ff 75 08	 push	 DWORD PTR __Ptr$[ebp]
  00006	e8 00 00 00 00	 call	 ??3@YAXPAX@Z		; operator delete
  0000b	59		 pop	 ecx

; 183  : 		}

  0000c	5d		 pop	 ebp
  0000d	c2 08 00	 ret	 8
?deallocate@?$allocator@UKeyMapEffect@ioCrecendoSkill@@@std@@QAEXPAUKeyMapEffect@ioCrecendoSkill@@I@Z ENDP ; std::allocator<ioCrecendoSkill::KeyMapEffect>::deallocate
_TEXT	ENDS
PUBLIC	??0?$_Vector_const_iterator@V?$_Vector_val@UKeyMapEffect@ioCrecendoSkill@@V?$allocator@UKeyMapEffect@ioCrecendoSkill@@@std@@@std@@@std@@QAE@PAUKeyMapEffect@ioCrecendoSkill@@PBU_Container_base0@1@@Z ; std::_Vector_const_iterator<std::_Vector_val<ioCrecendoSkill::KeyMapEffect,std::allocator<ioCrecendoSkill::KeyMapEffect> > >::_Vector_const_iterator<std::_Vector_val<ioCrecendoSkill::KeyMapEffect,std::allocator<ioCrecendoSkill::KeyMapEffect> > >
; Function compile flags: /Ogsp
; File c:\program files (x86)\microsoft visual studio 10.0\vc\include\vector
;	COMDAT ??0?$_Vector_const_iterator@V?$_Vector_val@UKeyMapEffect@ioCrecendoSkill@@V?$allocator@UKeyMapEffect@ioCrecendoSkill@@@std@@@std@@@std@@QAE@PAUKeyMapEffect@ioCrecendoSkill@@PBU_Container_base0@1@@Z
_TEXT	SEGMENT
__Parg$ = 8						; size = 4
__Pvector$ = 12						; size = 4
??0?$_Vector_const_iterator@V?$_Vector_val@UKeyMapEffect@ioCrecendoSkill@@V?$allocator@UKeyMapEffect@ioCrecendoSkill@@@std@@@std@@@std@@QAE@PAUKeyMapEffect@ioCrecendoSkill@@PBU_Container_base0@1@@Z PROC ; std::_Vector_const_iterator<std::_Vector_val<ioCrecendoSkill::KeyMapEffect,std::allocator<ioCrecendoSkill::KeyMapEffect> > >::_Vector_const_iterator<std::_Vector_val<ioCrecendoSkill::KeyMapEffect,std::allocator<ioCrecendoSkill::KeyMapEffect> > >, COMDAT
; _this$ = ecx

; 45   : 		{	// construct with pointer _Parg

  00000	55		 push	 ebp
  00001	8b ec		 mov	 ebp, esp
  00003	8b c1		 mov	 eax, ecx
  00005	8b 4d 08	 mov	 ecx, DWORD PTR __Parg$[ebp]
  00008	89 08		 mov	 DWORD PTR [eax], ecx

; 46   : 		this->_Adopt(_Pvector);
; 47   : 		}

  0000a	5d		 pop	 ebp
  0000b	c2 08 00	 ret	 8
??0?$_Vector_const_iterator@V?$_Vector_val@UKeyMapEffect@ioCrecendoSkill@@V?$allocator@UKeyMapEffect@ioCrecendoSkill@@@std@@@std@@@std@@QAE@PAUKeyMapEffect@ioCrecendoSkill@@PBU_Container_base0@1@@Z ENDP ; std::_Vector_const_iterator<std::_Vector_val<ioCrecendoSkill::KeyMapEffect,std::allocator<ioCrecendoSkill::KeyMapEffect> > >::_Vector_const_iterator<std::_Vector_val<ioCrecendoSkill::KeyMapEffect,std::allocator<ioCrecendoSkill::KeyMapEffect> > >
_TEXT	ENDS
PUBLIC	?_Compat@?$_Vector_const_iterator@V?$_Vector_val@UKeyMapEffect@ioCrecendoSkill@@V?$allocator@UKeyMapEffect@ioCrecendoSkill@@@std@@@std@@@std@@QBEXABV12@@Z ; std::_Vector_const_iterator<std::_Vector_val<ioCrecendoSkill::KeyMapEffect,std::allocator<ioCrecendoSkill::KeyMapEffect> > >::_Compat
; Function compile flags: /Ogsp
;	COMDAT ?_Compat@?$_Vector_const_iterator@V?$_Vector_val@UKeyMapEffect@ioCrecendoSkill@@V?$allocator@UKeyMapEffect@ioCrecendoSkill@@@std@@@std@@@std@@QBEXABV12@@Z
_TEXT	SEGMENT
___formal$ = 8						; size = 4
?_Compat@?$_Vector_const_iterator@V?$_Vector_val@UKeyMapEffect@ioCrecendoSkill@@V?$allocator@UKeyMapEffect@ioCrecendoSkill@@@std@@@std@@@std@@QBEXABV12@@Z PROC ; std::_Vector_const_iterator<std::_Vector_val<ioCrecendoSkill::KeyMapEffect,std::allocator<ioCrecendoSkill::KeyMapEffect> > >::_Compat, COMDAT
; _this$ = ecx

; 253  : 		}

  00000	c2 04 00	 ret	 4
?_Compat@?$_Vector_const_iterator@V?$_Vector_val@UKeyMapEffect@ioCrecendoSkill@@V?$allocator@UKeyMapEffect@ioCrecendoSkill@@@std@@@std@@@std@@QBEXABV12@@Z ENDP ; std::_Vector_const_iterator<std::_Vector_val<ioCrecendoSkill::KeyMapEffect,std::allocator<ioCrecendoSkill::KeyMapEffect> > >::_Compat
_TEXT	ENDS
PUBLIC	??0?$_Vector_const_iterator@V?$_Vector_val@UWaveKey@ioCrecendoSkill@@V?$allocator@UWaveKey@ioCrecendoSkill@@@std@@@std@@@std@@QAE@PAUWaveKey@ioCrecendoSkill@@PBU_Container_base0@1@@Z ; std::_Vector_const_iterator<std::_Vector_val<ioCrecendoSkill::WaveKey,std::allocator<ioCrecendoSkill::WaveKey> > >::_Vector_const_iterator<std::_Vector_val<ioCrecendoSkill::WaveKey,std::allocator<ioCrecendoSkill::WaveKey> > >
; Function compile flags: /Ogsp
;	COMDAT ??0?$_Vector_const_iterator@V?$_Vector_val@UWaveKey@ioCrecendoSkill@@V?$allocator@UWaveKey@ioCrecendoSkill@@@std@@@std@@@std@@QAE@PAUWaveKey@ioCrecendoSkill@@PBU_Container_base0@1@@Z
_TEXT	SEGMENT
__Parg$ = 8						; size = 4
__Pvector$ = 12						; size = 4
??0?$_Vector_const_iterator@V?$_Vector_val@UWaveKey@ioCrecendoSkill@@V?$allocator@UWaveKey@ioCrecendoSkill@@@std@@@std@@@std@@QAE@PAUWaveKey@ioCrecendoSkill@@PBU_Container_base0@1@@Z PROC ; std::_Vector_const_iterator<std::_Vector_val<ioCrecendoSkill::WaveKey,std::allocator<ioCrecendoSkill::WaveKey> > >::_Vector_const_iterator<std::_Vector_val<ioCrecendoSkill::WaveKey,std::allocator<ioCrecendoSkill::WaveKey> > >, COMDAT
; _this$ = ecx

; 45   : 		{	// construct with pointer _Parg

  00000	55		 push	 ebp
  00001	8b ec		 mov	 ebp, esp
  00003	8b c1		 mov	 eax, ecx
  00005	8b 4d 08	 mov	 ecx, DWORD PTR __Parg$[ebp]
  00008	89 08		 mov	 DWORD PTR [eax], ecx

; 46   : 		this->_Adopt(_Pvector);
; 47   : 		}

  0000a	5d		 pop	 ebp
  0000b	c2 08 00	 ret	 8
??0?$_Vector_const_iterator@V?$_Vector_val@UWaveKey@ioCrecendoSkill@@V?$allocator@UWaveKey@ioCrecendoSkill@@@std@@@std@@@std@@QAE@PAUWaveKey@ioCrecendoSkill@@PBU_Container_base0@1@@Z ENDP ; std::_Vector_const_iterator<std::_Vector_val<ioCrecendoSkill::WaveKey,std::allocator<ioCrecendoSkill::WaveKey> > >::_Vector_const_iterator<std::_Vector_val<ioCrecendoSkill::WaveKey,std::allocator<ioCrecendoSkill::WaveKey> > >
_TEXT	ENDS
PUBLIC	?_Compat@?$_Vector_const_iterator@V?$_Vector_val@UWaveKey@ioCrecendoSkill@@V?$allocator@UWaveKey@ioCrecendoSkill@@@std@@@std@@@std@@QBEXABV12@@Z ; std::_Vector_const_iterator<std::_Vector_val<ioCrecendoSkill::WaveKey,std::allocator<ioCrecendoSkill::WaveKey> > >::_Compat
; Function compile flags: /Ogsp
;	COMDAT ?_Compat@?$_Vector_const_iterator@V?$_Vector_val@UWaveKey@ioCrecendoSkill@@V?$allocator@UWaveKey@ioCrecendoSkill@@@std@@@std@@@std@@QBEXABV12@@Z
_TEXT	SEGMENT
___formal$ = 8						; size = 4
?_Compat@?$_Vector_const_iterator@V?$_Vector_val@UWaveKey@ioCrecendoSkill@@V?$allocator@UWaveKey@ioCrecendoSkill@@@std@@@std@@@std@@QBEXABV12@@Z PROC ; std::_Vector_const_iterator<std::_Vector_val<ioCrecendoSkill::WaveKey,std::allocator<ioCrecendoSkill::WaveKey> > >::_Compat, COMDAT
; _this$ = ecx

; 253  : 		}

  00000	c2 04 00	 ret	 4
?_Compat@?$_Vector_const_iterator@V?$_Vector_val@UWaveKey@ioCrecendoSkill@@V?$allocator@UWaveKey@ioCrecendoSkill@@@std@@@std@@@std@@QBEXABV12@@Z ENDP ; std::_Vector_const_iterator<std::_Vector_val<ioCrecendoSkill::WaveKey,std::allocator<ioCrecendoSkill::WaveKey> > >::_Compat
_TEXT	ENDS
PUBLIC	?_Compat@?$_Vector_const_iterator@V?$_Vector_val@PAVioBaseChar@@V?$allocator@PAVioBaseChar@@@std@@@std@@@std@@QBEXABV12@@Z ; std::_Vector_const_iterator<std::_Vector_val<ioBaseChar *,std::allocator<ioBaseChar *> > >::_Compat
; Function compile flags: /Ogsp
;	COMDAT ?_Compat@?$_Vector_const_iterator@V?$_Vector_val@PAVioBaseChar@@V?$allocator@PAVioBaseChar@@@std@@@std@@@std@@QBEXABV12@@Z
_TEXT	SEGMENT
___formal$ = 8						; size = 4
?_Compat@?$_Vector_const_iterator@V?$_Vector_val@PAVioBaseChar@@V?$allocator@PAVioBaseChar@@@std@@@std@@@std@@QBEXABV12@@Z PROC ; std::_Vector_const_iterator<std::_Vector_val<ioBaseChar *,std::allocator<ioBaseChar *> > >::_Compat, COMDAT
; _this$ = ecx

; 253  : 		}

  00000	c2 04 00	 ret	 4
?_Compat@?$_Vector_const_iterator@V?$_Vector_val@PAVioBaseChar@@V?$allocator@PAVioBaseChar@@@std@@@std@@@std@@QBEXABV12@@Z ENDP ; std::_Vector_const_iterator<std::_Vector_val<ioBaseChar *,std::allocator<ioBaseChar *> > >::_Compat
_TEXT	ENDS
PUBLIC	?max_size@?$allocator@UKeyMapEffect@ioCrecendoSkill@@@std@@QBEIXZ ; std::allocator<ioCrecendoSkill::KeyMapEffect>::max_size
; Function compile flags: /Ogsp
; File c:\program files (x86)\microsoft visual studio 10.0\vc\include\xmemory
;	COMDAT ?max_size@?$allocator@UKeyMapEffect@ioCrecendoSkill@@@std@@QBEIXZ
_TEXT	SEGMENT
?max_size@?$allocator@UKeyMapEffect@ioCrecendoSkill@@@std@@QBEIXZ PROC ; std::allocator<ioCrecendoSkill::KeyMapEffect>::max_size, COMDAT
; _this$ = ecx

; 218  : 		_SIZT _Count = (_SIZT)(-1) / sizeof (_Ty);
; 219  : 		return (0 < _Count ? _Count : 1);

  00000	b8 ff ff ff 1f	 mov	 eax, 536870911		; 1fffffffH

; 220  : 		}

  00005	c3		 ret	 0
?max_size@?$allocator@UKeyMapEffect@ioCrecendoSkill@@@std@@QBEIXZ ENDP ; std::allocator<ioCrecendoSkill::KeyMapEffect>::max_size
_TEXT	ENDS
PUBLIC	??0D3DXVECTOR3@@QAE@XZ				; D3DXVECTOR3::D3DXVECTOR3
; Function compile flags: /Ogsp
; File c:\program files (x86)\microsoft directx sdk (june 2010)\include\d3dx9math.h
;	COMDAT ??0D3DXVECTOR3@@QAE@XZ
_TEXT	SEGMENT
??0D3DXVECTOR3@@QAE@XZ PROC				; D3DXVECTOR3::D3DXVECTOR3, COMDAT
; _this$ = ecx

; 165  :     D3DXVECTOR3() {};

  00000	8b c1		 mov	 eax, ecx
  00002	c3		 ret	 0
??0D3DXVECTOR3@@QAE@XZ ENDP				; D3DXVECTOR3::D3DXVECTOR3
_TEXT	ENDS
PUBLIC	??0D3DXVECTOR3@@QAE@MMM@Z			; D3DXVECTOR3::D3DXVECTOR3
; Function compile flags: /Ogsp
; File c:\program files (x86)\microsoft directx sdk (june 2010)\include\d3dx9math.inl
;	COMDAT ??0D3DXVECTOR3@@QAE@MMM@Z
_TEXT	SEGMENT
_fx$ = 8						; size = 4
_fy$ = 12						; size = 4
_fz$ = 16						; size = 4
??0D3DXVECTOR3@@QAE@MMM@Z PROC				; D3DXVECTOR3::D3DXVECTOR3, COMDAT
; _this$ = ecx

; 303  : {

  00000	55		 push	 ebp
  00001	8b ec		 mov	 ebp, esp

; 304  :     x = fx;

  00003	f3 0f 10 45 08	 movss	 xmm0, DWORD PTR _fx$[ebp]
  00008	8b c1		 mov	 eax, ecx
  0000a	f3 0f 11 00	 movss	 DWORD PTR [eax], xmm0

; 305  :     y = fy;

  0000e	f3 0f 10 45 0c	 movss	 xmm0, DWORD PTR _fy$[ebp]
  00013	f3 0f 11 40 04	 movss	 DWORD PTR [eax+4], xmm0

; 306  :     z = fz;

  00018	f3 0f 10 45 10	 movss	 xmm0, DWORD PTR _fz$[ebp]
  0001d	f3 0f 11 40 08	 movss	 DWORD PTR [eax+8], xmm0

; 307  : }

  00022	5d		 pop	 ebp
  00023	c2 0c 00	 ret	 12			; 0000000cH
??0D3DXVECTOR3@@QAE@MMM@Z ENDP				; D3DXVECTOR3::D3DXVECTOR3
_TEXT	ENDS
PUBLIC	??HD3DXVECTOR3@@QBE?AU0@ABU0@@Z			; D3DXVECTOR3::operator+
; Function compile flags: /Ogsp
;	COMDAT ??HD3DXVECTOR3@@QBE?AU0@ABU0@@Z
_TEXT	SEGMENT
___$ReturnUdt$ = 8					; size = 4
_v$ = 12						; size = 4
??HD3DXVECTOR3@@QBE?AU0@ABU0@@Z PROC			; D3DXVECTOR3::operator+, COMDAT
; _this$ = ecx

; 380  : {

  00000	55		 push	 ebp
  00001	8b ec		 mov	 ebp, esp

; 381  :     return D3DXVECTOR3(x + v.x, y + v.y, z + v.z);

  00003	8b 55 0c	 mov	 edx, DWORD PTR _v$[ebp]
  00006	f3 0f 10 02	 movss	 xmm0, DWORD PTR [edx]
  0000a	f3 0f 10 09	 movss	 xmm1, DWORD PTR [ecx]
  0000e	8b 45 08	 mov	 eax, DWORD PTR ___$ReturnUdt$[ebp]
  00011	0f 5a c0	 cvtps2pd xmm0, xmm0
  00014	0f 5a c9	 cvtps2pd xmm1, xmm1
  00017	f2 0f 58 c1	 addsd	 xmm0, xmm1
  0001b	f3 0f 10 49 04	 movss	 xmm1, DWORD PTR [ecx+4]
  00020	66 0f 5a c0	 cvtpd2ps xmm0, xmm0
  00024	f3 0f 11 00	 movss	 DWORD PTR [eax], xmm0
  00028	f3 0f 10 42 04	 movss	 xmm0, DWORD PTR [edx+4]
  0002d	0f 5a c0	 cvtps2pd xmm0, xmm0
  00030	0f 5a c9	 cvtps2pd xmm1, xmm1
  00033	f2 0f 58 c1	 addsd	 xmm0, xmm1
  00037	f3 0f 10 49 08	 movss	 xmm1, DWORD PTR [ecx+8]
  0003c	66 0f 5a c0	 cvtpd2ps xmm0, xmm0
  00040	f3 0f 11 40 04	 movss	 DWORD PTR [eax+4], xmm0
  00045	f3 0f 10 42 08	 movss	 xmm0, DWORD PTR [edx+8]
  0004a	0f 5a c0	 cvtps2pd xmm0, xmm0
  0004d	0f 5a c9	 cvtps2pd xmm1, xmm1
  00050	f2 0f 58 c1	 addsd	 xmm0, xmm1
  00054	66 0f 5a c0	 cvtpd2ps xmm0, xmm0
  00058	f3 0f 11 40 08	 movss	 DWORD PTR [eax+8], xmm0

; 382  : }

  0005d	5d		 pop	 ebp
  0005e	c2 08 00	 ret	 8
??HD3DXVECTOR3@@QBE?AU0@ABU0@@Z ENDP			; D3DXVECTOR3::operator+
_TEXT	ENDS
PUBLIC	??GD3DXVECTOR3@@QBE?AU0@ABU0@@Z			; D3DXVECTOR3::operator-
; Function compile flags: /Ogsp
;	COMDAT ??GD3DXVECTOR3@@QBE?AU0@ABU0@@Z
_TEXT	SEGMENT
___$ReturnUdt$ = 8					; size = 4
_v$ = 12						; size = 4
??GD3DXVECTOR3@@QBE?AU0@ABU0@@Z PROC			; D3DXVECTOR3::operator-, COMDAT
; _this$ = ecx

; 386  : {

  00000	55		 push	 ebp
  00001	8b ec		 mov	 ebp, esp

; 387  :     return D3DXVECTOR3(x - v.x, y - v.y, z - v.z);

  00003	8b 55 0c	 mov	 edx, DWORD PTR _v$[ebp]
  00006	f3 0f 10 01	 movss	 xmm0, DWORD PTR [ecx]
  0000a	f3 0f 10 0a	 movss	 xmm1, DWORD PTR [edx]
  0000e	8b 45 08	 mov	 eax, DWORD PTR ___$ReturnUdt$[ebp]
  00011	0f 5a c0	 cvtps2pd xmm0, xmm0
  00014	0f 5a c9	 cvtps2pd xmm1, xmm1
  00017	f2 0f 5c c1	 subsd	 xmm0, xmm1
  0001b	f3 0f 10 4a 04	 movss	 xmm1, DWORD PTR [edx+4]
  00020	66 0f 5a c0	 cvtpd2ps xmm0, xmm0
  00024	f3 0f 11 00	 movss	 DWORD PTR [eax], xmm0
  00028	f3 0f 10 41 04	 movss	 xmm0, DWORD PTR [ecx+4]
  0002d	0f 5a c0	 cvtps2pd xmm0, xmm0
  00030	0f 5a c9	 cvtps2pd xmm1, xmm1
  00033	f2 0f 5c c1	 subsd	 xmm0, xmm1
  00037	f3 0f 10 4a 08	 movss	 xmm1, DWORD PTR [edx+8]
  0003c	66 0f 5a c0	 cvtpd2ps xmm0, xmm0
  00040	f3 0f 11 40 04	 movss	 DWORD PTR [eax+4], xmm0
  00045	f3 0f 10 41 08	 movss	 xmm0, DWORD PTR [ecx+8]
  0004a	0f 5a c0	 cvtps2pd xmm0, xmm0
  0004d	0f 5a c9	 cvtps2pd xmm1, xmm1
  00050	f2 0f 5c c1	 subsd	 xmm0, xmm1
  00054	66 0f 5a c0	 cvtpd2ps xmm0, xmm0
  00058	f3 0f 11 40 08	 movss	 DWORD PTR [eax+8], xmm0

; 388  : }

  0005d	5d		 pop	 ebp
  0005e	c2 08 00	 ret	 8
??GD3DXVECTOR3@@QBE?AU0@ABU0@@Z ENDP			; D3DXVECTOR3::operator-
_TEXT	ENDS
PUBLIC	??D@YA?AUD3DXVECTOR3@@MABU0@@Z			; operator*
; Function compile flags: /Ogsp
;	COMDAT ??D@YA?AUD3DXVECTOR3@@MABU0@@Z
_TEXT	SEGMENT
___$ReturnUdt$ = 8					; size = 4
_f$ = 12						; size = 4
_v$ = 16						; size = 4
??D@YA?AUD3DXVECTOR3@@MABU0@@Z PROC			; operator*, COMDAT

; 406  : {

  00000	55		 push	 ebp
  00001	8b ec		 mov	 ebp, esp

; 407  :     return D3DXVECTOR3(f * v.x, f * v.y, f * v.z);

  00003	8b 4d 10	 mov	 ecx, DWORD PTR _v$[ebp]
  00006	f3 0f 10 4d 0c	 movss	 xmm1, DWORD PTR _f$[ebp]
  0000b	f3 0f 10 01	 movss	 xmm0, DWORD PTR [ecx]
  0000f	8b 45 08	 mov	 eax, DWORD PTR ___$ReturnUdt$[ebp]
  00012	0f 5a c0	 cvtps2pd xmm0, xmm0
  00015	0f 5a c9	 cvtps2pd xmm1, xmm1
  00018	f2 0f 59 c1	 mulsd	 xmm0, xmm1
  0001c	f3 0f 10 4d 0c	 movss	 xmm1, DWORD PTR _f$[ebp]
  00021	66 0f 5a c0	 cvtpd2ps xmm0, xmm0
  00025	f3 0f 11 00	 movss	 DWORD PTR [eax], xmm0
  00029	f3 0f 10 41 04	 movss	 xmm0, DWORD PTR [ecx+4]
  0002e	0f 5a c0	 cvtps2pd xmm0, xmm0
  00031	0f 5a c9	 cvtps2pd xmm1, xmm1
  00034	f2 0f 59 c1	 mulsd	 xmm0, xmm1
  00038	f3 0f 10 4d 0c	 movss	 xmm1, DWORD PTR _f$[ebp]
  0003d	66 0f 5a c0	 cvtpd2ps xmm0, xmm0
  00041	f3 0f 11 40 04	 movss	 DWORD PTR [eax+4], xmm0
  00046	f3 0f 10 41 08	 movss	 xmm0, DWORD PTR [ecx+8]
  0004b	0f 5a c0	 cvtps2pd xmm0, xmm0
  0004e	0f 5a c9	 cvtps2pd xmm1, xmm1
  00051	f2 0f 59 c1	 mulsd	 xmm0, xmm1
  00055	66 0f 5a c0	 cvtpd2ps xmm0, xmm0
  00059	f3 0f 11 40 08	 movss	 DWORD PTR [eax+8], xmm0

; 408  : }

  0005e	5d		 pop	 ebp
  0005f	c3		 ret	 0
??D@YA?AUD3DXVECTOR3@@MABU0@@Z ENDP			; operator*
_TEXT	ENDS
PUBLIC	?D3DXVec3Length@@YAMPBUD3DXVECTOR3@@@Z		; D3DXVec3Length
; Function compile flags: /Ogsp
;	COMDAT ?D3DXVec3Length@@YAMPBUD3DXVECTOR3@@@Z
_TEXT	SEGMENT
tv169 = 8						; size = 4
tv160 = 8						; size = 4
_pV$ = 8						; size = 4
?D3DXVec3Length@@YAMPBUD3DXVECTOR3@@@Z PROC		; D3DXVec3Length, COMDAT

; 1710 : {

  00000	55		 push	 ebp
  00001	8b ec		 mov	 ebp, esp

; 1711 : #ifdef D3DX_DEBUG
; 1712 :     if(!pV)
; 1713 :         return 0.0f;
; 1714 : #endif
; 1715 : 
; 1716 : #ifdef __cplusplus
; 1717 :     return sqrtf(pV->x * pV->x + pV->y * pV->y + pV->z * pV->z);

  00003	8b 45 08	 mov	 eax, DWORD PTR _pV$[ebp]
  00006	d9 40 04	 fld	 DWORD PTR [eax+4]
  00009	d9 00		 fld	 DWORD PTR [eax]
  0000b	d9 40 08	 fld	 DWORD PTR [eax+8]
  0000e	d9 c1		 fld	 ST(1)
  00010	de ca		 fmulp	 ST(2), ST(0)
  00012	d9 c2		 fld	 ST(2)
  00014	de cb		 fmulp	 ST(3), ST(0)
  00016	d9 c9		 fxch	 ST(1)
  00018	de c2		 faddp	 ST(2), ST(0)
  0001a	d9 c0		 fld	 ST(0)
  0001c	de c9		 fmulp	 ST(1), ST(0)
  0001e	de c1		 faddp	 ST(1), ST(0)
  00020	d9 5d 08	 fstp	 DWORD PTR tv169[ebp]
  00023	d9 45 08	 fld	 DWORD PTR tv169[ebp]
  00026	e8 00 00 00 00	 call	 __CIsqrt
  0002b	d9 5d 08	 fstp	 DWORD PTR tv160[ebp]
  0002e	d9 45 08	 fld	 DWORD PTR tv160[ebp]

; 1718 : #else
; 1719 :     return (FLOAT) sqrt(pV->x * pV->x + pV->y * pV->y + pV->z * pV->z);
; 1720 : #endif
; 1721 : }

  00031	5d		 pop	 ebp
  00032	c3		 ret	 0
?D3DXVec3Length@@YAMPBUD3DXVECTOR3@@@Z ENDP		; D3DXVec3Length
_TEXT	ENDS
PUBLIC	??$addressof@$$CBUWaveKey@ioCrecendoSkill@@@std@@YAPBUWaveKey@ioCrecendoSkill@@ABU12@@Z ; std::addressof<ioCrecendoSkill::WaveKey const >
; Function compile flags: /Ogsp
; File c:\program files (x86)\microsoft visual studio 10.0\vc\include\xmemory
;	COMDAT ??$addressof@$$CBUWaveKey@ioCrecendoSkill@@@std@@YAPBUWaveKey@ioCrecendoSkill@@ABU12@@Z
_TEXT	SEGMENT
__Val$ = 8						; size = 4
??$addressof@$$CBUWaveKey@ioCrecendoSkill@@@std@@YAPBUWaveKey@ioCrecendoSkill@@ABU12@@Z PROC ; std::addressof<ioCrecendoSkill::WaveKey const >, COMDAT

; 110  : 	{	// return address of _Val

  00000	55		 push	 ebp
  00001	8b ec		 mov	 ebp, esp

; 111  : 	return ((_Ty *) &(char&)_Val);

  00003	8b 45 08	 mov	 eax, DWORD PTR __Val$[ebp]

; 112  : 	}

  00006	5d		 pop	 ebp
  00007	c3		 ret	 0
??$addressof@$$CBUWaveKey@ioCrecendoSkill@@@std@@YAPBUWaveKey@ioCrecendoSkill@@ABU12@@Z ENDP ; std::addressof<ioCrecendoSkill::WaveKey const >
_TEXT	ENDS
PUBLIC	??$addressof@$$CBUKeyMapEffect@ioCrecendoSkill@@@std@@YAPBUKeyMapEffect@ioCrecendoSkill@@ABU12@@Z ; std::addressof<ioCrecendoSkill::KeyMapEffect const >
; Function compile flags: /Ogsp
;	COMDAT ??$addressof@$$CBUKeyMapEffect@ioCrecendoSkill@@@std@@YAPBUKeyMapEffect@ioCrecendoSkill@@ABU12@@Z
_TEXT	SEGMENT
__Val$ = 8						; size = 4
??$addressof@$$CBUKeyMapEffect@ioCrecendoSkill@@@std@@YAPBUKeyMapEffect@ioCrecendoSkill@@ABU12@@Z PROC ; std::addressof<ioCrecendoSkill::KeyMapEffect const >, COMDAT

; 110  : 	{	// return address of _Val

  00000	55		 push	 ebp
  00001	8b ec		 mov	 ebp, esp

; 111  : 	return ((_Ty *) &(char&)_Val);

  00003	8b 45 08	 mov	 eax, DWORD PTR __Val$[ebp]

; 112  : 	}

  00006	5d		 pop	 ebp
  00007	c3		 ret	 0
??$addressof@$$CBUKeyMapEffect@ioCrecendoSkill@@@std@@YAPBUKeyMapEffect@ioCrecendoSkill@@ABU12@@Z ENDP ; std::addressof<ioCrecendoSkill::KeyMapEffect const >
_TEXT	ENDS
PUBLIC	__TI2?AVbad_alloc@std@@
PUBLIC	??$_Allocate@UWaveKey@ioCrecendoSkill@@@std@@YAPAUWaveKey@ioCrecendoSkill@@IPAU12@@Z ; std::_Allocate<ioCrecendoSkill::WaveKey>
PUBLIC	__CTA2?AVbad_alloc@std@@
PUBLIC	__CT??_R0?AVbad_alloc@std@@@8??0bad_alloc@std@@QAE@ABV01@@Z12
PUBLIC	??0bad_alloc@std@@QAE@ABV01@@Z			; std::bad_alloc::bad_alloc
PUBLIC	__CT??_R0?AVexception@std@@@8??0exception@std@@QAE@ABV01@@Z12
EXTRN	??2@YAPAXI@Z:PROC				; operator new
EXTRN	__CxxThrowException@8:PROC
EXTRN	??0exception@std@@QAE@ABV01@@Z:PROC		; std::exception::exception
;	COMDAT __CT??_R0?AVexception@std@@@8??0exception@std@@QAE@ABV01@@Z12
; File c:\program files (x86)\microsoft visual studio 10.0\vc\include\exception
xdata$x	SEGMENT
__CT??_R0?AVexception@std@@@8??0exception@std@@QAE@ABV01@@Z12 DD 00H
	DD	FLAT:??_R0?AVexception@std@@@8
	DD	00H
	DD	0ffffffffH
	ORG $+4
	DD	0cH
	DD	FLAT:??0exception@std@@QAE@ABV01@@Z
xdata$x	ENDS
;	COMDAT __CT??_R0?AVbad_alloc@std@@@8??0bad_alloc@std@@QAE@ABV01@@Z12
xdata$x	SEGMENT
__CT??_R0?AVbad_alloc@std@@@8??0bad_alloc@std@@QAE@ABV01@@Z12 DD 00H
	DD	FLAT:??_R0?AVbad_alloc@std@@@8
	DD	00H
	DD	0ffffffffH
	ORG $+4
	DD	0cH
	DD	FLAT:??0bad_alloc@std@@QAE@ABV01@@Z
xdata$x	ENDS
;	COMDAT __CTA2?AVbad_alloc@std@@
xdata$x	SEGMENT
__CTA2?AVbad_alloc@std@@ DD 02H
	DD	FLAT:__CT??_R0?AVbad_alloc@std@@@8??0bad_alloc@std@@QAE@ABV01@@Z12
	DD	FLAT:__CT??_R0?AVexception@std@@@8??0exception@std@@QAE@ABV01@@Z12
xdata$x	ENDS
;	COMDAT __TI2?AVbad_alloc@std@@
xdata$x	SEGMENT
__TI2?AVbad_alloc@std@@ DD 00H
	DD	FLAT:??1bad_alloc@std@@UAE@XZ
	DD	00H
	DD	FLAT:__CTA2?AVbad_alloc@std@@
; Function compile flags: /Ogsp
; File c:\program files (x86)\microsoft visual studio 10.0\vc\include\xmemory
xdata$x	ENDS
;	COMDAT ??$_Allocate@UWaveKey@ioCrecendoSkill@@@std@@YAPAUWaveKey@ioCrecendoSkill@@IPAU12@@Z
_TEXT	SEGMENT
$T538971 = -12						; size = 12
$T538976 = 8						; size = 4
__Count$ = 8						; size = 4
___formal$ = 12						; size = 4
??$_Allocate@UWaveKey@ioCrecendoSkill@@@std@@YAPAUWaveKey@ioCrecendoSkill@@IPAU12@@Z PROC ; std::_Allocate<ioCrecendoSkill::WaveKey>, COMDAT

; 30   : 	{	// allocate storage for _Count elements of type _Ty

  00000	55		 push	 ebp
  00001	8b ec		 mov	 ebp, esp

; 31   : 	void *_Ptr = 0;
; 32   : 
; 33   : 	if (_Count <= 0)

  00003	8b 4d 08	 mov	 ecx, DWORD PTR __Count$[ebp]
  00006	83 ec 0c	 sub	 esp, 12			; 0000000cH
  00009	33 c0		 xor	 eax, eax
  0000b	85 c9		 test	 ecx, ecx

; 34   : 		_Count = 0;
; 35   : 	else if (((_SIZT)(-1) / sizeof (_Ty) < _Count)

  0000d	74 3c		 je	 SHORT $LN5@Allocate

; 36   : 		|| (_Ptr = ::operator new(_Count * sizeof (_Ty))) == 0)

  0000f	81 f9 97 d0 5e
	02		 cmp	 ecx, 39768215		; 025ed097H
  00015	77 0e		 ja	 SHORT $LN1@Allocate
  00017	6b c9 6c	 imul	 ecx, 108		; 0000006cH
  0001a	51		 push	 ecx
  0001b	e8 00 00 00 00	 call	 ??2@YAPAXI@Z		; operator new
  00020	59		 pop	 ecx
  00021	85 c0		 test	 eax, eax

; 38   : 
; 39   : 	return ((_Ty _FARQ *)_Ptr);

  00023	75 26		 jne	 SHORT $LN5@Allocate
$LN1@Allocate:

; 37   : 		_THROW_NCEE(bad_alloc, 0);

  00025	83 65 08 00	 and	 DWORD PTR $T538976[ebp], 0
  00029	8d 45 08	 lea	 eax, DWORD PTR $T538976[ebp]
  0002c	50		 push	 eax
  0002d	8d 4d f4	 lea	 ecx, DWORD PTR $T538971[ebp]
  00030	ff 15 00 00 00
	00		 call	 DWORD PTR __imp_??0exception@std@@QAE@ABQBD@Z
  00036	68 00 00 00 00	 push	 OFFSET __TI2?AVbad_alloc@std@@
  0003b	8d 45 f4	 lea	 eax, DWORD PTR $T538971[ebp]
  0003e	50		 push	 eax
  0003f	c7 45 f4 00 00
	00 00		 mov	 DWORD PTR $T538971[ebp], OFFSET ??_7bad_alloc@std@@6B@
  00046	e8 00 00 00 00	 call	 __CxxThrowException@8
$LN10@Allocate:
$LN5@Allocate:

; 40   : 	}

  0004b	c9		 leave
  0004c	c3		 ret	 0
$LN9@Allocate:
??$_Allocate@UWaveKey@ioCrecendoSkill@@@std@@YAPAUWaveKey@ioCrecendoSkill@@IPAU12@@Z ENDP ; std::_Allocate<ioCrecendoSkill::WaveKey>
_TEXT	ENDS
PUBLIC	??$_Allocate@UKeyMapEffect@ioCrecendoSkill@@@std@@YAPAUKeyMapEffect@ioCrecendoSkill@@IPAU12@@Z ; std::_Allocate<ioCrecendoSkill::KeyMapEffect>
; Function compile flags: /Ogsp
;	COMDAT ??$_Allocate@UKeyMapEffect@ioCrecendoSkill@@@std@@YAPAUKeyMapEffect@ioCrecendoSkill@@IPAU12@@Z
_TEXT	SEGMENT
$T538981 = -12						; size = 12
$T538985 = 8						; size = 4
__Count$ = 8						; size = 4
___formal$ = 12						; size = 4
??$_Allocate@UKeyMapEffect@ioCrecendoSkill@@@std@@YAPAUKeyMapEffect@ioCrecendoSkill@@IPAU12@@Z PROC ; std::_Allocate<ioCrecendoSkill::KeyMapEffect>, COMDAT

; 30   : 	{	// allocate storage for _Count elements of type _Ty

  00000	55		 push	 ebp
  00001	8b ec		 mov	 ebp, esp

; 31   : 	void *_Ptr = 0;
; 32   : 
; 33   : 	if (_Count <= 0)

  00003	8b 4d 08	 mov	 ecx, DWORD PTR __Count$[ebp]
  00006	83 ec 0c	 sub	 esp, 12			; 0000000cH
  00009	33 c0		 xor	 eax, eax
  0000b	85 c9		 test	 ecx, ecx

; 34   : 		_Count = 0;
; 35   : 	else if (((_SIZT)(-1) / sizeof (_Ty) < _Count)

  0000d	74 3e		 je	 SHORT $LN5@Allocate@2

; 36   : 		|| (_Ptr = ::operator new(_Count * sizeof (_Ty))) == 0)

  0000f	81 f9 ff ff ff
	1f		 cmp	 ecx, 536870911		; 1fffffffH
  00015	77 10		 ja	 SHORT $LN1@Allocate@2
  00017	8b c1		 mov	 eax, ecx
  00019	c1 e0 03	 shl	 eax, 3
  0001c	50		 push	 eax
  0001d	e8 00 00 00 00	 call	 ??2@YAPAXI@Z		; operator new
  00022	59		 pop	 ecx
  00023	85 c0		 test	 eax, eax

; 38   : 
; 39   : 	return ((_Ty _FARQ *)_Ptr);

  00025	75 26		 jne	 SHORT $LN5@Allocate@2
$LN1@Allocate@2:

; 37   : 		_THROW_NCEE(bad_alloc, 0);

  00027	83 65 08 00	 and	 DWORD PTR $T538985[ebp], 0
  0002b	8d 45 08	 lea	 eax, DWORD PTR $T538985[ebp]
  0002e	50		 push	 eax
  0002f	8d 4d f4	 lea	 ecx, DWORD PTR $T538981[ebp]
  00032	ff 15 00 00 00
	00		 call	 DWORD PTR __imp_??0exception@std@@QAE@ABQBD@Z
  00038	68 00 00 00 00	 push	 OFFSET __TI2?AVbad_alloc@std@@
  0003d	8d 45 f4	 lea	 eax, DWORD PTR $T538981[ebp]
  00040	50		 push	 eax
  00041	c7 45 f4 00 00
	00 00		 mov	 DWORD PTR $T538981[ebp], OFFSET ??_7bad_alloc@std@@6B@
  00048	e8 00 00 00 00	 call	 __CxxThrowException@8
$LN10@Allocate@2:
$LN5@Allocate@2:

; 40   : 	}

  0004d	c9		 leave
  0004e	c3		 ret	 0
$LN9@Allocate@2:
??$_Allocate@UKeyMapEffect@ioCrecendoSkill@@@std@@YAPAUKeyMapEffect@ioCrecendoSkill@@IPAU12@@Z ENDP ; std::_Allocate<ioCrecendoSkill::KeyMapEffect>
_TEXT	ENDS
PUBLIC	??$forward@AAUKeyMapEffect@ioCrecendoSkill@@@std@@YAAAUKeyMapEffect@ioCrecendoSkill@@AAU12@@Z ; std::forward<ioCrecendoSkill::KeyMapEffect &>
; Function compile flags: /Ogsp
; File c:\program files (x86)\microsoft visual studio 10.0\vc\include\utility
;	COMDAT ??$forward@AAUKeyMapEffect@ioCrecendoSkill@@@std@@YAAAUKeyMapEffect@ioCrecendoSkill@@AAU12@@Z
_TEXT	SEGMENT
__Arg$ = 8						; size = 4
??$forward@AAUKeyMapEffect@ioCrecendoSkill@@@std@@YAAAUKeyMapEffect@ioCrecendoSkill@@AAU12@@Z PROC ; std::forward<ioCrecendoSkill::KeyMapEffect &>, COMDAT

; 78   : 	{	// forward _Arg, given explicitly specified type parameter

  00000	55		 push	 ebp
  00001	8b ec		 mov	 ebp, esp

; 79   : 	return ((_Ty&&)_Arg);

  00003	8b 45 08	 mov	 eax, DWORD PTR __Arg$[ebp]

; 80   : 	}

  00006	5d		 pop	 ebp
  00007	c3		 ret	 0
??$forward@AAUKeyMapEffect@ioCrecendoSkill@@@std@@YAAAUKeyMapEffect@ioCrecendoSkill@@AAU12@@Z ENDP ; std::forward<ioCrecendoSkill::KeyMapEffect &>
_TEXT	ENDS
PUBLIC	??$forward@AAUWaveKey@ioCrecendoSkill@@@std@@YAAAUWaveKey@ioCrecendoSkill@@AAU12@@Z ; std::forward<ioCrecendoSkill::WaveKey &>
; Function compile flags: /Ogsp
;	COMDAT ??$forward@AAUWaveKey@ioCrecendoSkill@@@std@@YAAAUWaveKey@ioCrecendoSkill@@AAU12@@Z
_TEXT	SEGMENT
__Arg$ = 8						; size = 4
??$forward@AAUWaveKey@ioCrecendoSkill@@@std@@YAAAUWaveKey@ioCrecendoSkill@@AAU12@@Z PROC ; std::forward<ioCrecendoSkill::WaveKey &>, COMDAT

; 78   : 	{	// forward _Arg, given explicitly specified type parameter

  00000	55		 push	 ebp
  00001	8b ec		 mov	 ebp, esp

; 79   : 	return ((_Ty&&)_Arg);

  00003	8b 45 08	 mov	 eax, DWORD PTR __Arg$[ebp]

; 80   : 	}

  00006	5d		 pop	 ebp
  00007	c3		 ret	 0
??$forward@AAUWaveKey@ioCrecendoSkill@@@std@@YAAAUWaveKey@ioCrecendoSkill@@AAU12@@Z ENDP ; std::forward<ioCrecendoSkill::WaveKey &>
_TEXT	ENDS
PUBLIC	??$forward@ABUWaveKey@ioCrecendoSkill@@@std@@YAABUWaveKey@ioCrecendoSkill@@ABU12@@Z ; std::forward<ioCrecendoSkill::WaveKey const &>
; Function compile flags: /Ogsp
;	COMDAT ??$forward@ABUWaveKey@ioCrecendoSkill@@@std@@YAABUWaveKey@ioCrecendoSkill@@ABU12@@Z
_TEXT	SEGMENT
__Arg$ = 8						; size = 4
??$forward@ABUWaveKey@ioCrecendoSkill@@@std@@YAABUWaveKey@ioCrecendoSkill@@ABU12@@Z PROC ; std::forward<ioCrecendoSkill::WaveKey const &>, COMDAT

; 78   : 	{	// forward _Arg, given explicitly specified type parameter

  00000	55		 push	 ebp
  00001	8b ec		 mov	 ebp, esp

; 79   : 	return ((_Ty&&)_Arg);

  00003	8b 45 08	 mov	 eax, DWORD PTR __Arg$[ebp]

; 80   : 	}

  00006	5d		 pop	 ebp
  00007	c3		 ret	 0
??$forward@ABUWaveKey@ioCrecendoSkill@@@std@@YAABUWaveKey@ioCrecendoSkill@@ABU12@@Z ENDP ; std::forward<ioCrecendoSkill::WaveKey const &>
_TEXT	ENDS
PUBLIC	??$construct@AAUKeyMapEffect@ioCrecendoSkill@@@?$allocator@UKeyMapEffect@ioCrecendoSkill@@@std@@QAEXPAUKeyMapEffect@ioCrecendoSkill@@AAU23@@Z ; std::allocator<ioCrecendoSkill::KeyMapEffect>::construct<ioCrecendoSkill::KeyMapEffect &>
; Function compile flags: /Ogsp
; File c:\program files (x86)\microsoft visual studio 10.0\vc\include\xmemory
;	COMDAT ??$construct@AAUKeyMapEffect@ioCrecendoSkill@@@?$allocator@UKeyMapEffect@ioCrecendoSkill@@@std@@QAEXPAUKeyMapEffect@ioCrecendoSkill@@AAU23@@Z
_TEXT	SEGMENT
__Ptr$ = 8						; size = 4
__Val$ = 12						; size = 4
??$construct@AAUKeyMapEffect@ioCrecendoSkill@@@?$allocator@UKeyMapEffect@ioCrecendoSkill@@@std@@QAEXPAUKeyMapEffect@ioCrecendoSkill@@AAU23@@Z PROC ; std::allocator<ioCrecendoSkill::KeyMapEffect>::construct<ioCrecendoSkill::KeyMapEffect &>, COMDAT
; _this$ = ecx

; 206  : 		void construct(pointer _Ptr, _Other&& _Val)

  00000	55		 push	 ebp
  00001	8b ec		 mov	 ebp, esp

; 207  : 		{	// construct object at _Ptr with value _Val
; 208  : 		::new ((void _FARQ *)_Ptr) _Ty(_STD forward<_Other>(_Val));

  00003	8b 45 08	 mov	 eax, DWORD PTR __Ptr$[ebp]
  00006	85 c0		 test	 eax, eax
  00008	74 0d		 je	 SHORT $LN3@construct
  0000a	8b 4d 0c	 mov	 ecx, DWORD PTR __Val$[ebp]
  0000d	8b 11		 mov	 edx, DWORD PTR [ecx]
  0000f	89 10		 mov	 DWORD PTR [eax], edx
  00011	8b 49 04	 mov	 ecx, DWORD PTR [ecx+4]
  00014	89 48 04	 mov	 DWORD PTR [eax+4], ecx
$LN3@construct:

; 209  : 		}

  00017	5d		 pop	 ebp
  00018	c2 08 00	 ret	 8
??$construct@AAUKeyMapEffect@ioCrecendoSkill@@@?$allocator@UKeyMapEffect@ioCrecendoSkill@@@std@@QAEXPAUKeyMapEffect@ioCrecendoSkill@@AAU23@@Z ENDP ; std::allocator<ioCrecendoSkill::KeyMapEffect>::construct<ioCrecendoSkill::KeyMapEffect &>
_TEXT	ENDS
PUBLIC	??$forward@ABUKeyMapEffect@ioCrecendoSkill@@@std@@YAABUKeyMapEffect@ioCrecendoSkill@@ABU12@@Z ; std::forward<ioCrecendoSkill::KeyMapEffect const &>
; Function compile flags: /Ogsp
; File c:\program files (x86)\microsoft visual studio 10.0\vc\include\utility
;	COMDAT ??$forward@ABUKeyMapEffect@ioCrecendoSkill@@@std@@YAABUKeyMapEffect@ioCrecendoSkill@@ABU12@@Z
_TEXT	SEGMENT
__Arg$ = 8						; size = 4
??$forward@ABUKeyMapEffect@ioCrecendoSkill@@@std@@YAABUKeyMapEffect@ioCrecendoSkill@@ABU12@@Z PROC ; std::forward<ioCrecendoSkill::KeyMapEffect const &>, COMDAT

; 78   : 	{	// forward _Arg, given explicitly specified type parameter

  00000	55		 push	 ebp
  00001	8b ec		 mov	 ebp, esp

; 79   : 	return ((_Ty&&)_Arg);

  00003	8b 45 08	 mov	 eax, DWORD PTR __Arg$[ebp]

; 80   : 	}

  00006	5d		 pop	 ebp
  00007	c3		 ret	 0
??$forward@ABUKeyMapEffect@ioCrecendoSkill@@@std@@YAABUKeyMapEffect@ioCrecendoSkill@@ABU12@@Z ENDP ; std::forward<ioCrecendoSkill::KeyMapEffect const &>
_TEXT	ENDS
PUBLIC	??$_Ptr_cat@UKeyMapEffect@ioCrecendoSkill@@U12@@std@@YA?AU_Nonscalar_ptr_iterator_tag@0@PAUKeyMapEffect@ioCrecendoSkill@@0@Z ; std::_Ptr_cat<ioCrecendoSkill::KeyMapEffect,ioCrecendoSkill::KeyMapEffect>
; Function compile flags: /Ogsp
; File c:\program files (x86)\microsoft visual studio 10.0\vc\include\xutility
;	COMDAT ??$_Ptr_cat@UKeyMapEffect@ioCrecendoSkill@@U12@@std@@YA?AU_Nonscalar_ptr_iterator_tag@0@PAUKeyMapEffect@ioCrecendoSkill@@0@Z
_TEXT	SEGMENT
__Cat$ = -1						; size = 1
___formal$ = 8						; size = 4
___formal$ = 12						; size = 4
??$_Ptr_cat@UKeyMapEffect@ioCrecendoSkill@@U12@@std@@YA?AU_Nonscalar_ptr_iterator_tag@0@PAUKeyMapEffect@ioCrecendoSkill@@0@Z PROC ; std::_Ptr_cat<ioCrecendoSkill::KeyMapEffect,ioCrecendoSkill::KeyMapEffect>, COMDAT

; 516  : 	{	// return pointer category from pointers

  00000	55		 push	 ebp
  00001	8b ec		 mov	 ebp, esp
  00003	51		 push	 ecx

; 517  : 	typename _Ptr_cat_helper<_Elem1, _Elem2>::_Type _Cat;
; 518  : 	return (_Cat);

  00004	8a 45 ff	 mov	 al, BYTE PTR __Cat$[ebp]

; 519  : 	}

  00007	c9		 leave
  00008	c3		 ret	 0
??$_Ptr_cat@UKeyMapEffect@ioCrecendoSkill@@U12@@std@@YA?AU_Nonscalar_ptr_iterator_tag@0@PAUKeyMapEffect@ioCrecendoSkill@@0@Z ENDP ; std::_Ptr_cat<ioCrecendoSkill::KeyMapEffect,ioCrecendoSkill::KeyMapEffect>
_TEXT	ENDS
PUBLIC	??$_Ptr_cat@UWaveKey@ioCrecendoSkill@@U12@@std@@YA?AU_Nonscalar_ptr_iterator_tag@0@PAUWaveKey@ioCrecendoSkill@@0@Z ; std::_Ptr_cat<ioCrecendoSkill::WaveKey,ioCrecendoSkill::WaveKey>
; Function compile flags: /Ogsp
;	COMDAT ??$_Ptr_cat@UWaveKey@ioCrecendoSkill@@U12@@std@@YA?AU_Nonscalar_ptr_iterator_tag@0@PAUWaveKey@ioCrecendoSkill@@0@Z
_TEXT	SEGMENT
__Cat$ = -1						; size = 1
___formal$ = 8						; size = 4
___formal$ = 12						; size = 4
??$_Ptr_cat@UWaveKey@ioCrecendoSkill@@U12@@std@@YA?AU_Nonscalar_ptr_iterator_tag@0@PAUWaveKey@ioCrecendoSkill@@0@Z PROC ; std::_Ptr_cat<ioCrecendoSkill::WaveKey,ioCrecendoSkill::WaveKey>, COMDAT

; 516  : 	{	// return pointer category from pointers

  00000	55		 push	 ebp
  00001	8b ec		 mov	 ebp, esp
  00003	51		 push	 ecx

; 517  : 	typename _Ptr_cat_helper<_Elem1, _Elem2>::_Type _Cat;
; 518  : 	return (_Cat);

  00004	8a 45 ff	 mov	 al, BYTE PTR __Cat$[ebp]

; 519  : 	}

  00007	c9		 leave
  00008	c3		 ret	 0
??$_Ptr_cat@UWaveKey@ioCrecendoSkill@@U12@@std@@YA?AU_Nonscalar_ptr_iterator_tag@0@PAUWaveKey@ioCrecendoSkill@@0@Z ENDP ; std::_Ptr_cat<ioCrecendoSkill::WaveKey,ioCrecendoSkill::WaveKey>
_TEXT	ENDS
PUBLIC	??$_Construct@UKeyMapEffect@ioCrecendoSkill@@ABU12@@std@@YAXPAUKeyMapEffect@ioCrecendoSkill@@ABU12@@Z ; std::_Construct<ioCrecendoSkill::KeyMapEffect,ioCrecendoSkill::KeyMapEffect const &>
; Function compile flags: /Ogsp
; File c:\program files (x86)\microsoft visual studio 10.0\vc\include\xmemory
;	COMDAT ??$_Construct@UKeyMapEffect@ioCrecendoSkill@@ABU12@@std@@YAXPAUKeyMapEffect@ioCrecendoSkill@@ABU12@@Z
_TEXT	SEGMENT
__Ptr$ = 8						; size = 4
__Val$ = 12						; size = 4
??$_Construct@UKeyMapEffect@ioCrecendoSkill@@ABU12@@std@@YAXPAUKeyMapEffect@ioCrecendoSkill@@ABU12@@Z PROC ; std::_Construct<ioCrecendoSkill::KeyMapEffect,ioCrecendoSkill::KeyMapEffect const &>, COMDAT

; 46   : 	{	// construct object at _Ptr with value _Val

  00000	55		 push	 ebp
  00001	8b ec		 mov	 ebp, esp

; 47   : 	void _FARQ *_Vptr = _Ptr;
; 48   : 	::new (_Vptr) _Ty1(_STD forward<_Ty2>(_Val));

  00003	8b 45 08	 mov	 eax, DWORD PTR __Ptr$[ebp]
  00006	85 c0		 test	 eax, eax
  00008	74 0d		 je	 SHORT $LN3@Construct
  0000a	8b 4d 0c	 mov	 ecx, DWORD PTR __Val$[ebp]
  0000d	8b 11		 mov	 edx, DWORD PTR [ecx]
  0000f	89 10		 mov	 DWORD PTR [eax], edx
  00011	8b 49 04	 mov	 ecx, DWORD PTR [ecx+4]
  00014	89 48 04	 mov	 DWORD PTR [eax+4], ecx
$LN3@Construct:

; 49   : 	}

  00017	5d		 pop	 ebp
  00018	c3		 ret	 0
??$_Construct@UKeyMapEffect@ioCrecendoSkill@@ABU12@@std@@YAXPAUKeyMapEffect@ioCrecendoSkill@@ABU12@@Z ENDP ; std::_Construct<ioCrecendoSkill::KeyMapEffect,ioCrecendoSkill::KeyMapEffect const &>
_TEXT	ENDS
PUBLIC	??Y?$_Vector_const_iterator@V?$_Vector_val@UKeyMapEffect@ioCrecendoSkill@@V?$allocator@UKeyMapEffect@ioCrecendoSkill@@@std@@@std@@@std@@QAEAAV01@H@Z ; std::_Vector_const_iterator<std::_Vector_val<ioCrecendoSkill::KeyMapEffect,std::allocator<ioCrecendoSkill::KeyMapEffect> > >::operator+=
; Function compile flags: /Ogsp
; File c:\program files (x86)\microsoft visual studio 10.0\vc\include\vector
;	COMDAT ??Y?$_Vector_const_iterator@V?$_Vector_val@UKeyMapEffect@ioCrecendoSkill@@V?$allocator@UKeyMapEffect@ioCrecendoSkill@@@std@@@std@@@std@@QAEAAV01@H@Z
_TEXT	SEGMENT
__Off$ = 8						; size = 4
??Y?$_Vector_const_iterator@V?$_Vector_val@UKeyMapEffect@ioCrecendoSkill@@V?$allocator@UKeyMapEffect@ioCrecendoSkill@@@std@@@std@@@std@@QAEAAV01@H@Z PROC ; std::_Vector_const_iterator<std::_Vector_val<ioCrecendoSkill::KeyMapEffect,std::allocator<ioCrecendoSkill::KeyMapEffect> > >::operator+=, COMDAT
; _this$ = ecx

; 151  : 		{	// increment by integer

  00000	55		 push	 ebp
  00001	8b ec		 mov	 ebp, esp
  00003	8b c1		 mov	 eax, ecx

; 152  :  #if _ITERATOR_DEBUG_LEVEL == 2
; 153  : 		if (this->_Getcont() == 0
; 154  : 			|| this->_Ptr + _Off < ((_Myvec *)this->_Getcont())->_Myfirst
; 155  : 			|| ((_Myvec *)this->_Getcont())->_Mylast < this->_Ptr + _Off)
; 156  : 			{	// report error
; 157  : 			_DEBUG_ERROR("vector iterator + offset out of range");
; 158  : 			_SCL_SECURE_OUT_OF_RANGE;
; 159  : 			}
; 160  : 
; 161  :  #elif _ITERATOR_DEBUG_LEVEL == 1
; 162  : 		_SCL_SECURE_VALIDATE(this->_Getcont() != 0);
; 163  : 		_SCL_SECURE_VALIDATE_RANGE(
; 164  : 			((_Myvec *)this->_Getcont())->_Myfirst <= this->_Ptr + _Off
; 165  : 			&& this->_Ptr + _Off <= ((_Myvec *)this->_Getcont())->_Mylast);
; 166  :  #endif /* _ITERATOR_DEBUG_LEVEL */
; 167  : 
; 168  : 		_Ptr += _Off;

  00005	8b 4d 08	 mov	 ecx, DWORD PTR __Off$[ebp]
  00008	c1 e1 03	 shl	 ecx, 3
  0000b	01 08		 add	 DWORD PTR [eax], ecx

; 169  : 		return (*this);
; 170  : 		}

  0000d	5d		 pop	 ebp
  0000e	c2 04 00	 ret	 4
??Y?$_Vector_const_iterator@V?$_Vector_val@UKeyMapEffect@ioCrecendoSkill@@V?$allocator@UKeyMapEffect@ioCrecendoSkill@@@std@@@std@@@std@@QAEAAV01@H@Z ENDP ; std::_Vector_const_iterator<std::_Vector_val<ioCrecendoSkill::KeyMapEffect,std::allocator<ioCrecendoSkill::KeyMapEffect> > >::operator+=
_TEXT	ENDS
PUBLIC	??$_Ptr_cat@V?$_Vector_const_iterator@V?$_Vector_val@UWeaponInfo@@V?$allocator@UWeaponInfo@@@std@@@std@@@std@@PAUWeaponInfo@@@std@@YA?AU_Nonscalar_ptr_iterator_tag@0@AAV?$_Vector_const_iterator@V?$_Vector_val@UWeaponInfo@@V?$allocator@UWeaponInfo@@@std@@@std@@@0@AAPAUWeaponInfo@@@Z ; std::_Ptr_cat<std::_Vector_const_iterator<std::_Vector_val<WeaponInfo,std::allocator<WeaponInfo> > >,WeaponInfo *>
; Function compile flags: /Ogsp
; File c:\program files (x86)\microsoft visual studio 10.0\vc\include\xutility
;	COMDAT ??$_Ptr_cat@V?$_Vector_const_iterator@V?$_Vector_val@UWeaponInfo@@V?$allocator@UWeaponInfo@@@std@@@std@@@std@@PAUWeaponInfo@@@std@@YA?AU_Nonscalar_ptr_iterator_tag@0@AAV?$_Vector_const_iterator@V?$_Vector_val@UWeaponInfo@@V?$allocator@UWeaponInfo@@@std@@@std@@@0@AAPAUWeaponInfo@@@Z
_TEXT	SEGMENT
__Cat$ = -1						; size = 1
___formal$ = 8						; size = 4
___formal$ = 12						; size = 4
??$_Ptr_cat@V?$_Vector_const_iterator@V?$_Vector_val@UWeaponInfo@@V?$allocator@UWeaponInfo@@@std@@@std@@@std@@PAUWeaponInfo@@@std@@YA?AU_Nonscalar_ptr_iterator_tag@0@AAV?$_Vector_const_iterator@V?$_Vector_val@UWeaponInfo@@V?$allocator@UWeaponInfo@@@std@@@std@@@0@AAPAUWeaponInfo@@@Z PROC ; std::_Ptr_cat<std::_Vector_const_iterator<std::_Vector_val<WeaponInfo,std::allocator<WeaponInfo> > >,WeaponInfo *>, COMDAT

; 485  : 	{	// return pointer category from arbitrary arguments

  00000	55		 push	 ebp
  00001	8b ec		 mov	 ebp, esp
  00003	51		 push	 ecx

; 486  : 	_Nonscalar_ptr_iterator_tag _Cat;
; 487  : 	return (_Cat);

  00004	8a 45 ff	 mov	 al, BYTE PTR __Cat$[ebp]

; 488  : 	}

  00007	c9		 leave
  00008	c3		 ret	 0
??$_Ptr_cat@V?$_Vector_const_iterator@V?$_Vector_val@UWeaponInfo@@V?$allocator@UWeaponInfo@@@std@@@std@@@std@@PAUWeaponInfo@@@std@@YA?AU_Nonscalar_ptr_iterator_tag@0@AAV?$_Vector_const_iterator@V?$_Vector_val@UWeaponInfo@@V?$allocator@UWeaponInfo@@@std@@@std@@@0@AAPAUWeaponInfo@@@Z ENDP ; std::_Ptr_cat<std::_Vector_const_iterator<std::_Vector_val<WeaponInfo,std::allocator<WeaponInfo> > >,WeaponInfo *>
_TEXT	ENDS
PUBLIC	??$_Ptr_cat@V?$_Vector_const_iterator@V?$_Vector_val@UForceInfo@@V?$allocator@UForceInfo@@@std@@@std@@@std@@PAUForceInfo@@@std@@YA?AU_Nonscalar_ptr_iterator_tag@0@AAV?$_Vector_const_iterator@V?$_Vector_val@UForceInfo@@V?$allocator@UForceInfo@@@std@@@std@@@0@AAPAUForceInfo@@@Z ; std::_Ptr_cat<std::_Vector_const_iterator<std::_Vector_val<ForceInfo,std::allocator<ForceInfo> > >,ForceInfo *>
; Function compile flags: /Ogsp
;	COMDAT ??$_Ptr_cat@V?$_Vector_const_iterator@V?$_Vector_val@UForceInfo@@V?$allocator@UForceInfo@@@std@@@std@@@std@@PAUForceInfo@@@std@@YA?AU_Nonscalar_ptr_iterator_tag@0@AAV?$_Vector_const_iterator@V?$_Vector_val@UForceInfo@@V?$allocator@UForceInfo@@@std@@@std@@@0@AAPAUForceInfo@@@Z
_TEXT	SEGMENT
__Cat$ = -1						; size = 1
___formal$ = 8						; size = 4
___formal$ = 12						; size = 4
??$_Ptr_cat@V?$_Vector_const_iterator@V?$_Vector_val@UForceInfo@@V?$allocator@UForceInfo@@@std@@@std@@@std@@PAUForceInfo@@@std@@YA?AU_Nonscalar_ptr_iterator_tag@0@AAV?$_Vector_const_iterator@V?$_Vector_val@UForceInfo@@V?$allocator@UForceInfo@@@std@@@std@@@0@AAPAUForceInfo@@@Z PROC ; std::_Ptr_cat<std::_Vector_const_iterator<std::_Vector_val<ForceInfo,std::allocator<ForceInfo> > >,ForceInfo *>, COMDAT

; 485  : 	{	// return pointer category from arbitrary arguments

  00000	55		 push	 ebp
  00001	8b ec		 mov	 ebp, esp
  00003	51		 push	 ecx

; 486  : 	_Nonscalar_ptr_iterator_tag _Cat;
; 487  : 	return (_Cat);

  00004	8a 45 ff	 mov	 al, BYTE PTR __Cat$[ebp]

; 488  : 	}

  00007	c9		 leave
  00008	c3		 ret	 0
??$_Ptr_cat@V?$_Vector_const_iterator@V?$_Vector_val@UForceInfo@@V?$allocator@UForceInfo@@@std@@@std@@@std@@PAUForceInfo@@@std@@YA?AU_Nonscalar_ptr_iterator_tag@0@AAV?$_Vector_const_iterator@V?$_Vector_val@UForceInfo@@V?$allocator@UForceInfo@@@std@@@std@@@0@AAPAUForceInfo@@@Z ENDP ; std::_Ptr_cat<std::_Vector_const_iterator<std::_Vector_val<ForceInfo,std::allocator<ForceInfo> > >,ForceInfo *>
_TEXT	ENDS
PUBLIC	??$_Ptr_cat@V?$_Vector_const_iterator@V?$_Vector_val@UWaveKey@ioCrecendoSkill@@V?$allocator@UWaveKey@ioCrecendoSkill@@@std@@@std@@@std@@PAUWaveKey@ioCrecendoSkill@@@std@@YA?AU_Nonscalar_ptr_iterator_tag@0@AAV?$_Vector_const_iterator@V?$_Vector_val@UWaveKey@ioCrecendoSkill@@V?$allocator@UWaveKey@ioCrecendoSkill@@@std@@@std@@@0@AAPAUWaveKey@ioCrecendoSkill@@@Z ; std::_Ptr_cat<std::_Vector_const_iterator<std::_Vector_val<ioCrecendoSkill::WaveKey,std::allocator<ioCrecendoSkill::WaveKey> > >,ioCrecendoSkill::WaveKey *>
; Function compile flags: /Ogsp
;	COMDAT ??$_Ptr_cat@V?$_Vector_const_iterator@V?$_Vector_val@UWaveKey@ioCrecendoSkill@@V?$allocator@UWaveKey@ioCrecendoSkill@@@std@@@std@@@std@@PAUWaveKey@ioCrecendoSkill@@@std@@YA?AU_Nonscalar_ptr_iterator_tag@0@AAV?$_Vector_const_iterator@V?$_Vector_val@UWaveKey@ioCrecendoSkill@@V?$allocator@UWaveKey@ioCrecendoSkill@@@std@@@std@@@0@AAPAUWaveKey@ioCrecendoSkill@@@Z
_TEXT	SEGMENT
__Cat$ = -1						; size = 1
___formal$ = 8						; size = 4
___formal$ = 12						; size = 4
??$_Ptr_cat@V?$_Vector_const_iterator@V?$_Vector_val@UWaveKey@ioCrecendoSkill@@V?$allocator@UWaveKey@ioCrecendoSkill@@@std@@@std@@@std@@PAUWaveKey@ioCrecendoSkill@@@std@@YA?AU_Nonscalar_ptr_iterator_tag@0@AAV?$_Vector_const_iterator@V?$_Vector_val@UWaveKey@ioCrecendoSkill@@V?$allocator@UWaveKey@ioCrecendoSkill@@@std@@@std@@@0@AAPAUWaveKey@ioCrecendoSkill@@@Z PROC ; std::_Ptr_cat<std::_Vector_const_iterator<std::_Vector_val<ioCrecendoSkill::WaveKey,std::allocator<ioCrecendoSkill::WaveKey> > >,ioCrecendoSkill::WaveKey *>, COMDAT

; 485  : 	{	// return pointer category from arbitrary arguments

  00000	55		 push	 ebp
  00001	8b ec		 mov	 ebp, esp
  00003	51		 push	 ecx

; 486  : 	_Nonscalar_ptr_iterator_tag _Cat;
; 487  : 	return (_Cat);

  00004	8a 45 ff	 mov	 al, BYTE PTR __Cat$[ebp]

; 488  : 	}

  00007	c9		 leave
  00008	c3		 ret	 0
??$_Ptr_cat@V?$_Vector_const_iterator@V?$_Vector_val@UWaveKey@ioCrecendoSkill@@V?$allocator@UWaveKey@ioCrecendoSkill@@@std@@@std@@@std@@PAUWaveKey@ioCrecendoSkill@@@std@@YA?AU_Nonscalar_ptr_iterator_tag@0@AAV?$_Vector_const_iterator@V?$_Vector_val@UWaveKey@ioCrecendoSkill@@V?$allocator@UWaveKey@ioCrecendoSkill@@@std@@@std@@@0@AAPAUWaveKey@ioCrecendoSkill@@@Z ENDP ; std::_Ptr_cat<std::_Vector_const_iterator<std::_Vector_val<ioCrecendoSkill::WaveKey,std::allocator<ioCrecendoSkill::WaveKey> > >,ioCrecendoSkill::WaveKey *>
_TEXT	ENDS
PUBLIC	??$_Val_type@PAUWaveKey@ioCrecendoSkill@@@std@@YAPAUWaveKey@ioCrecendoSkill@@PAU12@@Z ; std::_Val_type<ioCrecendoSkill::WaveKey *>
; Function compile flags: /Ogsp
;	COMDAT ??$_Val_type@PAUWaveKey@ioCrecendoSkill@@@std@@YAPAUWaveKey@ioCrecendoSkill@@PAU12@@Z
_TEXT	SEGMENT
___formal$ = 8						; size = 4
??$_Val_type@PAUWaveKey@ioCrecendoSkill@@@std@@YAPAUWaveKey@ioCrecendoSkill@@PAU12@@Z PROC ; std::_Val_type<ioCrecendoSkill::WaveKey *>, COMDAT

; 790  : 	return (0);

  00000	33 c0		 xor	 eax, eax

; 791  : 	}

  00002	c3		 ret	 0
??$_Val_type@PAUWaveKey@ioCrecendoSkill@@@std@@YAPAUWaveKey@ioCrecendoSkill@@PAU12@@Z ENDP ; std::_Val_type<ioCrecendoSkill::WaveKey *>
_TEXT	ENDS
PUBLIC	??$move@AAUKeyMapEffect@ioCrecendoSkill@@@std@@YA$$QAUKeyMapEffect@ioCrecendoSkill@@AAU12@@Z ; std::move<ioCrecendoSkill::KeyMapEffect &>
; Function compile flags: /Ogsp
; File c:\program files (x86)\microsoft visual studio 10.0\vc\include\utility
;	COMDAT ??$move@AAUKeyMapEffect@ioCrecendoSkill@@@std@@YA$$QAUKeyMapEffect@ioCrecendoSkill@@AAU12@@Z
_TEXT	SEGMENT
__Arg$ = 8						; size = 4
??$move@AAUKeyMapEffect@ioCrecendoSkill@@@std@@YA$$QAUKeyMapEffect@ioCrecendoSkill@@AAU12@@Z PROC ; std::move<ioCrecendoSkill::KeyMapEffect &>, COMDAT

; 86   : 	{	// forward _Arg as movable

  00000	55		 push	 ebp
  00001	8b ec		 mov	 ebp, esp

; 87   : 	return ((typename tr1::_Remove_reference<_Ty>::_Type&&)_Arg);

  00003	8b 45 08	 mov	 eax, DWORD PTR __Arg$[ebp]

; 88   : 	}

  00006	5d		 pop	 ebp
  00007	c3		 ret	 0
??$move@AAUKeyMapEffect@ioCrecendoSkill@@@std@@YA$$QAUKeyMapEffect@ioCrecendoSkill@@AAU12@@Z ENDP ; std::move<ioCrecendoSkill::KeyMapEffect &>
_TEXT	ENDS
PUBLIC	??$_Val_type@PAUKeyMapEffect@ioCrecendoSkill@@@std@@YAPAUKeyMapEffect@ioCrecendoSkill@@PAU12@@Z ; std::_Val_type<ioCrecendoSkill::KeyMapEffect *>
; Function compile flags: /Ogsp
; File c:\program files (x86)\microsoft visual studio 10.0\vc\include\xutility
;	COMDAT ??$_Val_type@PAUKeyMapEffect@ioCrecendoSkill@@@std@@YAPAUKeyMapEffect@ioCrecendoSkill@@PAU12@@Z
_TEXT	SEGMENT
___formal$ = 8						; size = 4
??$_Val_type@PAUKeyMapEffect@ioCrecendoSkill@@@std@@YAPAUKeyMapEffect@ioCrecendoSkill@@PAU12@@Z PROC ; std::_Val_type<ioCrecendoSkill::KeyMapEffect *>, COMDAT

; 790  : 	return (0);

  00000	33 c0		 xor	 eax, eax

; 791  : 	}

  00002	c3		 ret	 0
??$_Val_type@PAUKeyMapEffect@ioCrecendoSkill@@@std@@YAPAUKeyMapEffect@ioCrecendoSkill@@PAU12@@Z ENDP ; std::_Val_type<ioCrecendoSkill::KeyMapEffect *>
_TEXT	ENDS
PUBLIC	??D?$_Vector_const_iterator@V?$_Vector_val@UForceInfo@@V?$allocator@UForceInfo@@@std@@@std@@@std@@QBEABUForceInfo@@XZ ; std::_Vector_const_iterator<std::_Vector_val<ForceInfo,std::allocator<ForceInfo> > >::operator*
; Function compile flags: /Ogsp
; File c:\program files (x86)\microsoft visual studio 10.0\vc\include\vector
;	COMDAT ??D?$_Vector_const_iterator@V?$_Vector_val@UForceInfo@@V?$allocator@UForceInfo@@@std@@@std@@@std@@QBEABUForceInfo@@XZ
_TEXT	SEGMENT
??D?$_Vector_const_iterator@V?$_Vector_val@UForceInfo@@V?$allocator@UForceInfo@@@std@@@std@@@std@@QBEABUForceInfo@@XZ PROC ; std::_Vector_const_iterator<std::_Vector_val<ForceInfo,std::allocator<ForceInfo> > >::operator*, COMDAT
; _this$ = ecx

; 64   :  #if _ITERATOR_DEBUG_LEVEL == 2
; 65   : 		if (this->_Getcont() == 0
; 66   : 			|| this->_Ptr == 0
; 67   : 			|| this->_Ptr < ((_Myvec *)this->_Getcont())->_Myfirst
; 68   : 			|| ((_Myvec *)this->_Getcont())->_Mylast <= this->_Ptr)
; 69   : 			{	// report error
; 70   : 			_DEBUG_ERROR("vector iterator not dereferencable");
; 71   : 			_SCL_SECURE_OUT_OF_RANGE;
; 72   : 			}
; 73   : 
; 74   :  #elif _ITERATOR_DEBUG_LEVEL == 1
; 75   : 		_SCL_SECURE_VALIDATE(this->_Getcont() != 0);
; 76   : 		_SCL_SECURE_VALIDATE_RANGE(
; 77   : 			this->_Ptr != 0
; 78   : 			&& ((_Myvec *)this->_Getcont())->_Myfirst <= this->_Ptr
; 79   : 			&& this->_Ptr < ((_Myvec *)this->_Getcont())->_Mylast);
; 80   :  #endif /* _ITERATOR_DEBUG_LEVEL */
; 81   : 
; 82   : 		__analysis_assume(this->_Ptr != 0);
; 83   : 
; 84   : 		return (*this->_Ptr);

  00000	8b 01		 mov	 eax, DWORD PTR [ecx]

; 85   : 		}

  00002	c3		 ret	 0
??D?$_Vector_const_iterator@V?$_Vector_val@UForceInfo@@V?$allocator@UForceInfo@@@std@@@std@@@std@@QBEABUForceInfo@@XZ ENDP ; std::_Vector_const_iterator<std::_Vector_val<ForceInfo,std::allocator<ForceInfo> > >::operator*
_TEXT	ENDS
PUBLIC	??E?$_Vector_const_iterator@V?$_Vector_val@UForceInfo@@V?$allocator@UForceInfo@@@std@@@std@@@std@@QAEAAV01@XZ ; std::_Vector_const_iterator<std::_Vector_val<ForceInfo,std::allocator<ForceInfo> > >::operator++
; Function compile flags: /Ogsp
;	COMDAT ??E?$_Vector_const_iterator@V?$_Vector_val@UForceInfo@@V?$allocator@UForceInfo@@@std@@@std@@@std@@QAEAAV01@XZ
_TEXT	SEGMENT
??E?$_Vector_const_iterator@V?$_Vector_val@UForceInfo@@V?$allocator@UForceInfo@@@std@@@std@@@std@@QAEAAV01@XZ PROC ; std::_Vector_const_iterator<std::_Vector_val<ForceInfo,std::allocator<ForceInfo> > >::operator++, COMDAT
; _this$ = ecx

; 93   : 		{	// preincrement

  00000	8b c1		 mov	 eax, ecx

; 94   :  #if _ITERATOR_DEBUG_LEVEL == 2
; 95   : 		if (this->_Getcont() == 0
; 96   : 			|| this->_Ptr == 0
; 97   : 			|| ((_Myvec *)this->_Getcont())->_Mylast <= this->_Ptr)
; 98   : 			{	// report error
; 99   : 			_DEBUG_ERROR("vector iterator not incrementable");
; 100  : 			_SCL_SECURE_OUT_OF_RANGE;
; 101  : 			}
; 102  : 
; 103  :  #elif _ITERATOR_DEBUG_LEVEL == 1
; 104  : 		_SCL_SECURE_VALIDATE(this->_Getcont() != 0);
; 105  : 		_SCL_SECURE_VALIDATE_RANGE(
; 106  : 			this->_Ptr != 0
; 107  : 			&& this->_Ptr < ((_Myvec *)this->_Getcont())->_Mylast);
; 108  :  #endif /* _ITERATOR_DEBUG_LEVEL */
; 109  : 
; 110  : 		++this->_Ptr;

  00002	83 00 0c	 add	 DWORD PTR [eax], 12	; 0000000cH

; 111  : 		return (*this);
; 112  : 		}

  00005	c3		 ret	 0
??E?$_Vector_const_iterator@V?$_Vector_val@UForceInfo@@V?$allocator@UForceInfo@@@std@@@std@@@std@@QAEAAV01@XZ ENDP ; std::_Vector_const_iterator<std::_Vector_val<ForceInfo,std::allocator<ForceInfo> > >::operator++
_TEXT	ENDS
PUBLIC	??$_Iter_cat@V?$_Vector_iterator@V?$_Vector_val@UKeyMapEffect@ioCrecendoSkill@@V?$allocator@UKeyMapEffect@ioCrecendoSkill@@@std@@@std@@@std@@@std@@YA?AUrandom_access_iterator_tag@0@ABV?$_Vector_iterator@V?$_Vector_val@UKeyMapEffect@ioCrecendoSkill@@V?$allocator@UKeyMapEffect@ioCrecendoSkill@@@std@@@std@@@0@@Z ; std::_Iter_cat<std::_Vector_iterator<std::_Vector_val<ioCrecendoSkill::KeyMapEffect,std::allocator<ioCrecendoSkill::KeyMapEffect> > > >
; Function compile flags: /Ogsp
; File c:\program files (x86)\microsoft visual studio 10.0\vc\include\xutility
;	COMDAT ??$_Iter_cat@V?$_Vector_iterator@V?$_Vector_val@UKeyMapEffect@ioCrecendoSkill@@V?$allocator@UKeyMapEffect@ioCrecendoSkill@@@std@@@std@@@std@@@std@@YA?AUrandom_access_iterator_tag@0@ABV?$_Vector_iterator@V?$_Vector_val@UKeyMapEffect@ioCrecendoSkill@@V?$allocator@UKeyMapEffect@ioCrecendoSkill@@@std@@@std@@@0@@Z
_TEXT	SEGMENT
___$ReturnUdt$ = 8					; size = 4
___formal$ = 12						; size = 4
??$_Iter_cat@V?$_Vector_iterator@V?$_Vector_val@UKeyMapEffect@ioCrecendoSkill@@V?$allocator@UKeyMapEffect@ioCrecendoSkill@@@std@@@std@@@std@@@std@@YA?AUrandom_access_iterator_tag@0@ABV?$_Vector_iterator@V?$_Vector_val@UKeyMapEffect@ioCrecendoSkill@@V?$allocator@UKeyMapEffect@ioCrecendoSkill@@@std@@@std@@@0@@Z PROC ; std::_Iter_cat<std::_Vector_iterator<std::_Vector_val<ioCrecendoSkill::KeyMapEffect,std::allocator<ioCrecendoSkill::KeyMapEffect> > > >, COMDAT

; 476  : 	{	// return category from iterator argument

  00000	55		 push	 ebp
  00001	8b ec		 mov	 ebp, esp

; 477  : 	typename iterator_traits<_Iter>::iterator_category _Cat;
; 478  : 	return (_Cat);

  00003	8b 45 08	 mov	 eax, DWORD PTR ___$ReturnUdt$[ebp]

; 479  : 	}

  00006	5d		 pop	 ebp
  00007	c3		 ret	 0
??$_Iter_cat@V?$_Vector_iterator@V?$_Vector_val@UKeyMapEffect@ioCrecendoSkill@@V?$allocator@UKeyMapEffect@ioCrecendoSkill@@@std@@@std@@@std@@@std@@YA?AUrandom_access_iterator_tag@0@ABV?$_Vector_iterator@V?$_Vector_val@UKeyMapEffect@ioCrecendoSkill@@V?$allocator@UKeyMapEffect@ioCrecendoSkill@@@std@@@std@@@0@@Z ENDP ; std::_Iter_cat<std::_Vector_iterator<std::_Vector_val<ioCrecendoSkill::KeyMapEffect,std::allocator<ioCrecendoSkill::KeyMapEffect> > > >
_TEXT	ENDS
PUBLIC	??$_Destroy@UKeyMapEffect@ioCrecendoSkill@@@std@@YAXPAUKeyMapEffect@ioCrecendoSkill@@@Z ; std::_Destroy<ioCrecendoSkill::KeyMapEffect>
; Function compile flags: /Ogsp
; File c:\program files (x86)\microsoft visual studio 10.0\vc\include\xmemory
;	COMDAT ??$_Destroy@UKeyMapEffect@ioCrecendoSkill@@@std@@YAXPAUKeyMapEffect@ioCrecendoSkill@@@Z
_TEXT	SEGMENT
__Ptr$ = 8						; size = 4
??$_Destroy@UKeyMapEffect@ioCrecendoSkill@@@std@@YAXPAUKeyMapEffect@ioCrecendoSkill@@@Z PROC ; std::_Destroy<ioCrecendoSkill::KeyMapEffect>, COMDAT

; 63   : 	_Ptr->~_Ty();
; 64   : 	}

  00000	c3		 ret	 0
??$_Destroy@UKeyMapEffect@ioCrecendoSkill@@@std@@YAXPAUKeyMapEffect@ioCrecendoSkill@@@Z ENDP ; std::_Destroy<ioCrecendoSkill::KeyMapEffect>
_TEXT	ENDS
PUBLIC	?_Unchecked@?$_Vector_iterator@V?$_Vector_val@UKeyMapEffect@ioCrecendoSkill@@V?$allocator@UKeyMapEffect@ioCrecendoSkill@@@std@@@std@@@std@@QBEPAUKeyMapEffect@ioCrecendoSkill@@XZ ; std::_Vector_iterator<std::_Vector_val<ioCrecendoSkill::KeyMapEffect,std::allocator<ioCrecendoSkill::KeyMapEffect> > >::_Unchecked
; Function compile flags: /Ogsp
; File c:\program files (x86)\microsoft visual studio 10.0\vc\include\vector
;	COMDAT ?_Unchecked@?$_Vector_iterator@V?$_Vector_val@UKeyMapEffect@ioCrecendoSkill@@V?$allocator@UKeyMapEffect@ioCrecendoSkill@@@std@@@std@@@std@@QBEPAUKeyMapEffect@ioCrecendoSkill@@XZ
_TEXT	SEGMENT
?_Unchecked@?$_Vector_iterator@V?$_Vector_val@UKeyMapEffect@ioCrecendoSkill@@V?$allocator@UKeyMapEffect@ioCrecendoSkill@@@std@@@std@@@std@@QBEPAUKeyMapEffect@ioCrecendoSkill@@XZ PROC ; std::_Vector_iterator<std::_Vector_val<ioCrecendoSkill::KeyMapEffect,std::allocator<ioCrecendoSkill::KeyMapEffect> > >::_Unchecked, COMDAT
; _this$ = ecx

; 317  : 		return (_Unchecked_type(this->_Ptr));

  00000	8b 01		 mov	 eax, DWORD PTR [ecx]

; 318  : 		}

  00002	c3		 ret	 0
?_Unchecked@?$_Vector_iterator@V?$_Vector_val@UKeyMapEffect@ioCrecendoSkill@@V?$allocator@UKeyMapEffect@ioCrecendoSkill@@@std@@@std@@@std@@QBEPAUKeyMapEffect@ioCrecendoSkill@@XZ ENDP ; std::_Vector_iterator<std::_Vector_val<ioCrecendoSkill::KeyMapEffect,std::allocator<ioCrecendoSkill::KeyMapEffect> > >::_Unchecked
_TEXT	ENDS
PUBLIC	??$_Dist_type@PAUKeyMapEffect@ioCrecendoSkill@@@std@@YAPAHPAUKeyMapEffect@ioCrecendoSkill@@@Z ; std::_Dist_type<ioCrecendoSkill::KeyMapEffect *>
; Function compile flags: /Ogsp
; File c:\program files (x86)\microsoft visual studio 10.0\vc\include\xutility
;	COMDAT ??$_Dist_type@PAUKeyMapEffect@ioCrecendoSkill@@@std@@YAPAHPAUKeyMapEffect@ioCrecendoSkill@@@Z
_TEXT	SEGMENT
___formal$ = 8						; size = 4
??$_Dist_type@PAUKeyMapEffect@ioCrecendoSkill@@@std@@YAPAHPAUKeyMapEffect@ioCrecendoSkill@@@Z PROC ; std::_Dist_type<ioCrecendoSkill::KeyMapEffect *>, COMDAT

; 850  : 	return (0);

  00000	33 c0		 xor	 eax, eax

; 851  : 	}

  00002	c3		 ret	 0
??$_Dist_type@PAUKeyMapEffect@ioCrecendoSkill@@@std@@YAPAHPAUKeyMapEffect@ioCrecendoSkill@@@Z ENDP ; std::_Dist_type<ioCrecendoSkill::KeyMapEffect *>
_TEXT	ENDS
PUBLIC	??$forward@ABUWeaponInfo@@@std@@YAABUWeaponInfo@@ABU1@@Z ; std::forward<WeaponInfo const &>
; Function compile flags: /Ogsp
; File c:\program files (x86)\microsoft visual studio 10.0\vc\include\utility
;	COMDAT ??$forward@ABUWeaponInfo@@@std@@YAABUWeaponInfo@@ABU1@@Z
_TEXT	SEGMENT
__Arg$ = 8						; size = 4
??$forward@ABUWeaponInfo@@@std@@YAABUWeaponInfo@@ABU1@@Z PROC ; std::forward<WeaponInfo const &>, COMDAT

; 78   : 	{	// forward _Arg, given explicitly specified type parameter

  00000	55		 push	 ebp
  00001	8b ec		 mov	 ebp, esp

; 79   : 	return ((_Ty&&)_Arg);

  00003	8b 45 08	 mov	 eax, DWORD PTR __Arg$[ebp]

; 80   : 	}

  00006	5d		 pop	 ebp
  00007	c3		 ret	 0
??$forward@ABUWeaponInfo@@@std@@YAABUWeaponInfo@@ABU1@@Z ENDP ; std::forward<WeaponInfo const &>
_TEXT	ENDS
PUBLIC	??$forward@ABUForceInfo@@@std@@YAABUForceInfo@@ABU1@@Z ; std::forward<ForceInfo const &>
; Function compile flags: /Ogsp
;	COMDAT ??$forward@ABUForceInfo@@@std@@YAABUForceInfo@@ABU1@@Z
_TEXT	SEGMENT
__Arg$ = 8						; size = 4
??$forward@ABUForceInfo@@@std@@YAABUForceInfo@@ABU1@@Z PROC ; std::forward<ForceInfo const &>, COMDAT

; 78   : 	{	// forward _Arg, given explicitly specified type parameter

  00000	55		 push	 ebp
  00001	8b ec		 mov	 ebp, esp

; 79   : 	return ((_Ty&&)_Arg);

  00003	8b 45 08	 mov	 eax, DWORD PTR __Arg$[ebp]

; 80   : 	}

  00006	5d		 pop	 ebp
  00007	c3		 ret	 0
??$forward@ABUForceInfo@@@std@@YAABUForceInfo@@ABU1@@Z ENDP ; std::forward<ForceInfo const &>
_TEXT	ENDS
PUBLIC	??$forward@UWaveKey@ioCrecendoSkill@@@std@@YA$$QAUWaveKey@ioCrecendoSkill@@AAU12@@Z ; std::forward<ioCrecendoSkill::WaveKey>
; Function compile flags: /Ogsp
;	COMDAT ??$forward@UWaveKey@ioCrecendoSkill@@@std@@YA$$QAUWaveKey@ioCrecendoSkill@@AAU12@@Z
_TEXT	SEGMENT
__Arg$ = 8						; size = 4
??$forward@UWaveKey@ioCrecendoSkill@@@std@@YA$$QAUWaveKey@ioCrecendoSkill@@AAU12@@Z PROC ; std::forward<ioCrecendoSkill::WaveKey>, COMDAT

; 78   : 	{	// forward _Arg, given explicitly specified type parameter

  00000	55		 push	 ebp
  00001	8b ec		 mov	 ebp, esp

; 79   : 	return ((_Ty&&)_Arg);

  00003	8b 45 08	 mov	 eax, DWORD PTR __Arg$[ebp]

; 80   : 	}

  00006	5d		 pop	 ebp
  00007	c3		 ret	 0
??$forward@UWaveKey@ioCrecendoSkill@@@std@@YA$$QAUWaveKey@ioCrecendoSkill@@AAU12@@Z ENDP ; std::forward<ioCrecendoSkill::WaveKey>
_TEXT	ENDS
PUBLIC	??$forward@UKeyMapEffect@ioCrecendoSkill@@@std@@YA$$QAUKeyMapEffect@ioCrecendoSkill@@AAU12@@Z ; std::forward<ioCrecendoSkill::KeyMapEffect>
; Function compile flags: /Ogsp
;	COMDAT ??$forward@UKeyMapEffect@ioCrecendoSkill@@@std@@YA$$QAUKeyMapEffect@ioCrecendoSkill@@AAU12@@Z
_TEXT	SEGMENT
__Arg$ = 8						; size = 4
??$forward@UKeyMapEffect@ioCrecendoSkill@@@std@@YA$$QAUKeyMapEffect@ioCrecendoSkill@@AAU12@@Z PROC ; std::forward<ioCrecendoSkill::KeyMapEffect>, COMDAT

; 78   : 	{	// forward _Arg, given explicitly specified type parameter

  00000	55		 push	 ebp
  00001	8b ec		 mov	 ebp, esp

; 79   : 	return ((_Ty&&)_Arg);

  00003	8b 45 08	 mov	 eax, DWORD PTR __Arg$[ebp]

; 80   : 	}

  00006	5d		 pop	 ebp
  00007	c3		 ret	 0
??$forward@UKeyMapEffect@ioCrecendoSkill@@@std@@YA$$QAUKeyMapEffect@ioCrecendoSkill@@AAU12@@Z ENDP ; std::forward<ioCrecendoSkill::KeyMapEffect>
_TEXT	ENDS
PUBLIC	??$_Construct@UForceInfo@@ABU1@@std@@YAXPAUForceInfo@@ABU1@@Z ; std::_Construct<ForceInfo,ForceInfo const &>
; Function compile flags: /Ogsp
; File c:\program files (x86)\microsoft visual studio 10.0\vc\include\xmemory
;	COMDAT ??$_Construct@UForceInfo@@ABU1@@std@@YAXPAUForceInfo@@ABU1@@Z
_TEXT	SEGMENT
__Ptr$ = 8						; size = 4
__Val$ = 12						; size = 4
??$_Construct@UForceInfo@@ABU1@@std@@YAXPAUForceInfo@@ABU1@@Z PROC ; std::_Construct<ForceInfo,ForceInfo const &>, COMDAT

; 46   : 	{	// construct object at _Ptr with value _Val

  00000	55		 push	 ebp
  00001	8b ec		 mov	 ebp, esp
  00003	57		 push	 edi

; 47   : 	void _FARQ *_Vptr = _Ptr;
; 48   : 	::new (_Vptr) _Ty1(_STD forward<_Ty2>(_Val));

  00004	8b 7d 08	 mov	 edi, DWORD PTR __Ptr$[ebp]
  00007	85 ff		 test	 edi, edi
  00009	74 08		 je	 SHORT $LN3@Construct@2
  0000b	56		 push	 esi
  0000c	8b 75 0c	 mov	 esi, DWORD PTR __Val$[ebp]
  0000f	a5		 movsd
  00010	a5		 movsd
  00011	a5		 movsd
  00012	5e		 pop	 esi
$LN3@Construct@2:
  00013	5f		 pop	 edi

; 49   : 	}

  00014	5d		 pop	 ebp
  00015	c3		 ret	 0
??$_Construct@UForceInfo@@ABU1@@std@@YAXPAUForceInfo@@ABU1@@Z ENDP ; std::_Construct<ForceInfo,ForceInfo const &>
_TEXT	ENDS
PUBLIC	??G?$_Vector_const_iterator@V?$_Vector_val@UKeyMapEffect@ioCrecendoSkill@@V?$allocator@UKeyMapEffect@ioCrecendoSkill@@@std@@@std@@@std@@QBEHABV01@@Z ; std::_Vector_const_iterator<std::_Vector_val<ioCrecendoSkill::KeyMapEffect,std::allocator<ioCrecendoSkill::KeyMapEffect> > >::operator-
; Function compile flags: /Ogsp
; File c:\program files (x86)\microsoft visual studio 10.0\vc\include\vector
;	COMDAT ??G?$_Vector_const_iterator@V?$_Vector_val@UKeyMapEffect@ioCrecendoSkill@@V?$allocator@UKeyMapEffect@ioCrecendoSkill@@@std@@@std@@@std@@QBEHABV01@@Z
_TEXT	SEGMENT
__Right$ = 8						; size = 4
??G?$_Vector_const_iterator@V?$_Vector_val@UKeyMapEffect@ioCrecendoSkill@@V?$allocator@UKeyMapEffect@ioCrecendoSkill@@@std@@@std@@@std@@QBEHABV01@@Z PROC ; std::_Vector_const_iterator<std::_Vector_val<ioCrecendoSkill::KeyMapEffect,std::allocator<ioCrecendoSkill::KeyMapEffect> > >::operator-, COMDAT
; _this$ = ecx

; 190  : 		{	// return difference of iterators

  00000	55		 push	 ebp
  00001	8b ec		 mov	 ebp, esp

; 191  : 		_Compat(_Right);
; 192  : 		return (this->_Ptr - _Right._Ptr);

  00003	8b 01		 mov	 eax, DWORD PTR [ecx]
  00005	8b 4d 08	 mov	 ecx, DWORD PTR __Right$[ebp]
  00008	2b 01		 sub	 eax, DWORD PTR [ecx]
  0000a	c1 f8 03	 sar	 eax, 3

; 193  : 		}

  0000d	5d		 pop	 ebp
  0000e	c2 04 00	 ret	 4
??G?$_Vector_const_iterator@V?$_Vector_val@UKeyMapEffect@ioCrecendoSkill@@V?$allocator@UKeyMapEffect@ioCrecendoSkill@@@std@@@std@@@std@@QBEHABV01@@Z ENDP ; std::_Vector_const_iterator<std::_Vector_val<ioCrecendoSkill::KeyMapEffect,std::allocator<ioCrecendoSkill::KeyMapEffect> > >::operator-
_TEXT	ENDS
PUBLIC	??$_Move@AAUKeyMapEffect@ioCrecendoSkill@@@std@@YA$$QAUKeyMapEffect@ioCrecendoSkill@@AAU12@@Z ; std::_Move<ioCrecendoSkill::KeyMapEffect &>
; Function compile flags: /Ogsp
; File c:\program files (x86)\microsoft visual studio 10.0\vc\include\utility
;	COMDAT ??$_Move@AAUKeyMapEffect@ioCrecendoSkill@@@std@@YA$$QAUKeyMapEffect@ioCrecendoSkill@@AAU12@@Z
_TEXT	SEGMENT
__Arg$ = 8						; size = 4
??$_Move@AAUKeyMapEffect@ioCrecendoSkill@@@std@@YA$$QAUKeyMapEffect@ioCrecendoSkill@@AAU12@@Z PROC ; std::_Move<ioCrecendoSkill::KeyMapEffect &>, COMDAT

; 94   : 	{	// forward _Arg as movable

  00000	55		 push	 ebp
  00001	8b ec		 mov	 ebp, esp

; 95   : 	return ((typename tr1::_Remove_reference<_Ty>::_Type&&)_Arg);

  00003	8b 45 08	 mov	 eax, DWORD PTR __Arg$[ebp]

; 96   : 	}

  00006	5d		 pop	 ebp
  00007	c3		 ret	 0
??$_Move@AAUKeyMapEffect@ioCrecendoSkill@@@std@@YA$$QAUKeyMapEffect@ioCrecendoSkill@@AAU12@@Z ENDP ; std::_Move<ioCrecendoSkill::KeyMapEffect &>
_TEXT	ENDS
PUBLIC	?_DECSTR@@YAXPADH@Z				; _DECSTR
; Function compile flags: /Ogsp
; File d:\lost saga for developer\youtube\tutorial\source\src\lsclient\stringprotect.h
;	COMDAT ?_DECSTR@@YAXPADH@Z
_TEXT	SEGMENT
_s$ = 8							; size = 4
_l$ = 12						; size = 4
?_DECSTR@@YAXPADH@Z PROC				; _DECSTR, COMDAT

; 40   : __forceinline void _DECSTR(char* s, int l){int i=0,l4=(l-1)/4,*p=(int*)s;s[l-1]=0;for(;i<l4;++i)*(p++)^=0xEAEBECED;for(i=l4*4;i<l-1;++i)s[i]^=0xED-i%4;}

  00000	55		 push	 ebp
  00001	8b ec		 mov	 ebp, esp
  00003	8b 4d 0c	 mov	 ecx, DWORD PTR _l$[ebp]
  00006	56		 push	 esi
  00007	8b 75 08	 mov	 esi, DWORD PTR _s$[ebp]
  0000a	57		 push	 edi
  0000b	8d 79 ff	 lea	 edi, DWORD PTR [ecx-1]
  0000e	8b c7		 mov	 eax, edi
  00010	99		 cdq
  00011	83 e2 03	 and	 edx, 3
  00014	03 c2		 add	 eax, edx
  00016	c1 f8 02	 sar	 eax, 2
  00019	8b d6		 mov	 edx, esi
  0001b	c6 44 0e ff 00	 mov	 BYTE PTR [esi+ecx-1], 0
  00020	85 c0		 test	 eax, eax
  00022	7e 0e		 jle	 SHORT $LN4@DECSTR
  00024	8b c8		 mov	 ecx, eax
$LL6@DECSTR:
  00026	81 32 ed ec eb
	ea		 xor	 DWORD PTR [edx], -353637139 ; eaebecedH
  0002c	83 c2 04	 add	 edx, 4
  0002f	49		 dec	 ecx
  00030	75 f4		 jne	 SHORT $LL6@DECSTR
$LN4@DECSTR:
  00032	c1 e0 02	 shl	 eax, 2
  00035	eb 17		 jmp	 SHORT $LN14@DECSTR
$LL3@DECSTR:
  00037	8b c8		 mov	 ecx, eax
  00039	81 e1 03 00 00
	80		 and	 ecx, -2147483645	; 80000003H
  0003f	79 05		 jns	 SHORT $LN13@DECSTR
  00041	49		 dec	 ecx
  00042	83 c9 fc	 or	 ecx, -4			; fffffffcH
  00045	41		 inc	 ecx
$LN13@DECSTR:
  00046	b2 ed		 mov	 dl, -19			; ffffffedH
  00048	2a d1		 sub	 dl, cl
  0004a	30 14 30	 xor	 BYTE PTR [eax+esi], dl
  0004d	40		 inc	 eax
$LN14@DECSTR:
  0004e	3b c7		 cmp	 eax, edi
  00050	7c e5		 jl	 SHORT $LL3@DECSTR
  00052	5f		 pop	 edi
  00053	5e		 pop	 esi
  00054	5d		 pop	 ebp
  00055	c3		 ret	 0
?_DECSTR@@YAXPADH@Z ENDP				; _DECSTR
_TEXT	ENDS
PUBLIC	?GetGroup@ioGameEntity@@QBEPAVioEntityGroup@@XZ	; ioGameEntity::GetGroup
; Function compile flags: /Ogsp
; File d:\lost saga for developer\youtube\tutorial\source\src\lsclient\iogameentity.h
;	COMDAT ?GetGroup@ioGameEntity@@QBEPAVioEntityGroup@@XZ
_TEXT	SEGMENT
?GetGroup@ioGameEntity@@QBEPAVioEntityGroup@@XZ PROC	; ioGameEntity::GetGroup, COMDAT
; _this$ = ecx

; 166  : 	inline ioEntityGroup* GetGroup() const { return m_pGroup; }

  00000	8b 41 04	 mov	 eax, DWORD PTR [ecx+4]
  00003	c3		 ret	 0
?GetGroup@ioGameEntity@@QBEPAVioEntityGroup@@XZ ENDP	; ioGameEntity::GetGroup
_TEXT	ENDS
PUBLIC	??1WeaponInfo@@QAE@XZ				; WeaponInfo::~WeaponInfo
EXTRN	__imp_??1ioHashString@@QAE@XZ:PROC
; Function compile flags: /Ogsp
;	COMDAT ??1WeaponInfo@@QAE@XZ
_TEXT	SEGMENT
??1WeaponInfo@@QAE@XZ PROC				; WeaponInfo::~WeaponInfo, COMDAT
; _this$ = ecx
  00000	83 c1 08	 add	 ecx, 8
  00003	ff 25 00 00 00
	00		 jmp	 DWORD PTR __imp_??1ioHashString@@QAE@XZ
??1WeaponInfo@@QAE@XZ ENDP				; WeaponInfo::~WeaponInfo
_TEXT	ENDS
PUBLIC	?GetOwnerItem@ioSkill@@QBEPAVioItem@@XZ		; ioSkill::GetOwnerItem
; Function compile flags: /Ogsp
; File d:\lost saga for developer\youtube\tutorial\source\src\lsclient\ioskill.h
;	COMDAT ?GetOwnerItem@ioSkill@@QBEPAVioItem@@XZ
_TEXT	SEGMENT
?GetOwnerItem@ioSkill@@QBEPAVioItem@@XZ PROC		; ioSkill::GetOwnerItem, COMDAT
; _this$ = ecx

; 397  : 	inline ioItem *GetOwnerItem() const { return m_pOwnerItem; }

  00000	8b 81 a4 02 00
	00		 mov	 eax, DWORD PTR [ecx+676]
  00006	c3		 ret	 0
?GetOwnerItem@ioSkill@@QBEPAVioItem@@XZ ENDP		; ioSkill::GetOwnerItem
_TEXT	ENDS
PUBLIC	?GetName@ioSkill@@QBEABVioHashString@@XZ	; ioSkill::GetName
; Function compile flags: /Ogsp
;	COMDAT ?GetName@ioSkill@@QBEABVioHashString@@XZ
_TEXT	SEGMENT
?GetName@ioSkill@@QBEABVioHashString@@XZ PROC		; ioSkill::GetName, COMDAT
; _this$ = ecx

; 414  : 	inline const ioHashString& GetName() const { return m_Name; }

  00000	8d 41 24	 lea	 eax, DWORD PTR [ecx+36]
  00003	c3		 ret	 0
?GetName@ioSkill@@QBEABVioHashString@@XZ ENDP		; ioSkill::GetName
_TEXT	ENDS
PUBLIC	??1?$_Vector_val@UWeaponInfo@@V?$allocator@UWeaponInfo@@@std@@@std@@QAE@XZ ; std::_Vector_val<WeaponInfo,std::allocator<WeaponInfo> >::~_Vector_val<WeaponInfo,std::allocator<WeaponInfo> >
; Function compile flags: /Ogsp
; File c:\program files (x86)\microsoft visual studio 10.0\vc\include\vector
;	COMDAT ??1?$_Vector_val@UWeaponInfo@@V?$allocator@UWeaponInfo@@@std@@@std@@QAE@XZ
_TEXT	SEGMENT
??1?$_Vector_val@UWeaponInfo@@V?$allocator@UWeaponInfo@@@std@@@std@@QAE@XZ PROC ; std::_Vector_val<WeaponInfo,std::allocator<WeaponInfo> >::~_Vector_val<WeaponInfo,std::allocator<WeaponInfo> >, COMDAT
; _this$ = ecx

; 434  : 		}

  00000	c3		 ret	 0
??1?$_Vector_val@UWeaponInfo@@V?$allocator@UWeaponInfo@@@std@@@std@@QAE@XZ ENDP ; std::_Vector_val<WeaponInfo,std::allocator<WeaponInfo> >::~_Vector_val<WeaponInfo,std::allocator<WeaponInfo> >
_TEXT	ENDS
PUBLIC	??0?$allocator@UWeaponInfo@@@std@@QAE@XZ	; std::allocator<WeaponInfo>::allocator<WeaponInfo>
; Function compile flags: /Ogsp
; File c:\program files (x86)\microsoft visual studio 10.0\vc\include\xmemory
;	COMDAT ??0?$allocator@UWeaponInfo@@@std@@QAE@XZ
_TEXT	SEGMENT
??0?$allocator@UWeaponInfo@@@std@@QAE@XZ PROC		; std::allocator<WeaponInfo>::allocator<WeaponInfo>, COMDAT
; _this$ = ecx

; 161  : 	_ALLOCATOR() _THROW0()

  00000	8b c1		 mov	 eax, ecx

; 162  : 		{	// construct default allocator (do nothing)
; 163  : 		}

  00002	c3		 ret	 0
??0?$allocator@UWeaponInfo@@@std@@QAE@XZ ENDP		; std::allocator<WeaponInfo>::allocator<WeaponInfo>
_TEXT	ENDS
PUBLIC	??1?$_Vector_val@UForceInfo@@V?$allocator@UForceInfo@@@std@@@std@@QAE@XZ ; std::_Vector_val<ForceInfo,std::allocator<ForceInfo> >::~_Vector_val<ForceInfo,std::allocator<ForceInfo> >
; Function compile flags: /Ogsp
; File c:\program files (x86)\microsoft visual studio 10.0\vc\include\vector
;	COMDAT ??1?$_Vector_val@UForceInfo@@V?$allocator@UForceInfo@@@std@@@std@@QAE@XZ
_TEXT	SEGMENT
??1?$_Vector_val@UForceInfo@@V?$allocator@UForceInfo@@@std@@@std@@QAE@XZ PROC ; std::_Vector_val<ForceInfo,std::allocator<ForceInfo> >::~_Vector_val<ForceInfo,std::allocator<ForceInfo> >, COMDAT
; _this$ = ecx

; 434  : 		}

  00000	c3		 ret	 0
??1?$_Vector_val@UForceInfo@@V?$allocator@UForceInfo@@@std@@@std@@QAE@XZ ENDP ; std::_Vector_val<ForceInfo,std::allocator<ForceInfo> >::~_Vector_val<ForceInfo,std::allocator<ForceInfo> >
_TEXT	ENDS
PUBLIC	??0?$allocator@UForceInfo@@@std@@QAE@XZ		; std::allocator<ForceInfo>::allocator<ForceInfo>
; Function compile flags: /Ogsp
; File c:\program files (x86)\microsoft visual studio 10.0\vc\include\xmemory
;	COMDAT ??0?$allocator@UForceInfo@@@std@@QAE@XZ
_TEXT	SEGMENT
??0?$allocator@UForceInfo@@@std@@QAE@XZ PROC		; std::allocator<ForceInfo>::allocator<ForceInfo>, COMDAT
; _this$ = ecx

; 161  : 	_ALLOCATOR() _THROW0()

  00000	8b c1		 mov	 eax, ecx

; 162  : 		{	// construct default allocator (do nothing)
; 163  : 		}

  00002	c3		 ret	 0
??0?$allocator@UForceInfo@@@std@@QAE@XZ ENDP		; std::allocator<ForceInfo>::allocator<ForceInfo>
_TEXT	ENDS
PUBLIC	?EncryptValueToPool@?$CEncrypt@K@@AAEXPBD@Z	; CEncrypt<unsigned long>::EncryptValueToPool
EXTRN	?EncryptByte@ccddaabb@@QAEXPBDPADH@Z:PROC	; ccddaabb::EncryptByte
; Function compile flags: /Ogsp
; File d:\lost saga for developer\youtube\tutorial\source\src\lsclient\encryptvalue.h
;	COMDAT ?EncryptValueToPool@?$CEncrypt@K@@AAEXPBD@Z
_TEXT	SEGMENT
_value$ = 8						; size = 4
?EncryptValueToPool@?$CEncrypt@K@@AAEXPBD@Z PROC	; CEncrypt<unsigned long>::EncryptValueToPool, COMDAT
; _this$ = ecx

; 67   : 	{

  00000	55		 push	 ebp
  00001	8b ec		 mov	 ebp, esp

; 68   : 		m_RC5.EncryptByte( value, m_MemPool, max(m_ValueSize, DEFAULT_ENCRYPT) );

  00003	0f b7 41 06	 movzx	 eax, WORD PTR [ecx+6]
  00007	83 f8 04	 cmp	 eax, 4
  0000a	77 03		 ja	 SHORT $LN4@EncryptVal
  0000c	6a 04		 push	 4
  0000e	58		 pop	 eax
$LN4@EncryptVal:
  0000f	50		 push	 eax
  00010	8d 41 1c	 lea	 eax, DWORD PTR [ecx+28]
  00013	50		 push	 eax
  00014	ff 75 08	 push	 DWORD PTR _value$[ebp]
  00017	83 c1 0c	 add	 ecx, 12			; 0000000cH
  0001a	e8 00 00 00 00	 call	 ?EncryptByte@ccddaabb@@QAEXPBDPADH@Z ; ccddaabb::EncryptByte

; 69   : 		
; 70   : 	}

  0001f	5d		 pop	 ebp
  00020	c2 04 00	 ret	 4
?EncryptValueToPool@?$CEncrypt@K@@AAEXPBD@Z ENDP	; CEncrypt<unsigned long>::EncryptValueToPool
_TEXT	ENDS
PUBLIC	?DecryptValueToPool@?$CEncrypt@W4TeamType@@@@QAEXPAW4TeamType@@@Z ; CEncrypt<enum TeamType>::DecryptValueToPool
EXTRN	?DecryptByte@ccddaabb@@QBEXPBDPADH@Z:PROC	; ccddaabb::DecryptByte
; Function compile flags: /Ogsp
;	COMDAT ?DecryptValueToPool@?$CEncrypt@W4TeamType@@@@QAEXPAW4TeamType@@@Z
_TEXT	SEGMENT
_value$ = 8						; size = 4
?DecryptValueToPool@?$CEncrypt@W4TeamType@@@@QAEXPAW4TeamType@@@Z PROC ; CEncrypt<enum TeamType>::DecryptValueToPool, COMDAT
; _this$ = ecx

; 2959 : 	{

  00000	55		 push	 ebp
  00001	8b ec		 mov	 ebp, esp
  00003	56		 push	 esi

; 2960 : 		m_RC5.DecryptByte( m_MemPool, m_TempMem, sizeof(TeamType) );

  00004	8d 71 28	 lea	 esi, DWORD PTR [ecx+40]
  00007	6a 04		 push	 4
  00009	8d 41 1c	 lea	 eax, DWORD PTR [ecx+28]
  0000c	56		 push	 esi
  0000d	50		 push	 eax
  0000e	83 c1 0c	 add	 ecx, 12			; 0000000cH
  00011	e8 00 00 00 00	 call	 ?DecryptByte@ccddaabb@@QBEXPBDPADH@Z ; ccddaabb::DecryptByte

; 2961 : 		*value = *((TeamType*)m_TempMem);

  00016	8b 06		 mov	 eax, DWORD PTR [esi]
  00018	8b 4d 08	 mov	 ecx, DWORD PTR _value$[ebp]
  0001b	89 01		 mov	 DWORD PTR [ecx], eax
  0001d	5e		 pop	 esi

; 2962 : 	}

  0001e	5d		 pop	 ebp
  0001f	c2 04 00	 ret	 4
?DecryptValueToPool@?$CEncrypt@W4TeamType@@@@QAEXPAW4TeamType@@@Z ENDP ; CEncrypt<enum TeamType>::DecryptValueToPool
_TEXT	ENDS
PUBLIC	??0?$allocator@UWeaponInfo@@@std@@QAE@ABV01@@Z	; std::allocator<WeaponInfo>::allocator<WeaponInfo>
; Function compile flags: /Ogsp
; File c:\program files (x86)\microsoft visual studio 10.0\vc\include\xmemory
;	COMDAT ??0?$allocator@UWeaponInfo@@@std@@QAE@ABV01@@Z
_TEXT	SEGMENT
___formal$ = 8						; size = 4
??0?$allocator@UWeaponInfo@@@std@@QAE@ABV01@@Z PROC	; std::allocator<WeaponInfo>::allocator<WeaponInfo>, COMDAT
; _this$ = ecx

; 165  : 	_ALLOCATOR(const _ALLOCATOR<_Ty>&) _THROW0()

  00000	8b c1		 mov	 eax, ecx

; 166  : 		{	// construct by copying (do nothing)
; 167  : 		}

  00002	c2 04 00	 ret	 4
??0?$allocator@UWeaponInfo@@@std@@QAE@ABV01@@Z ENDP	; std::allocator<WeaponInfo>::allocator<WeaponInfo>
_TEXT	ENDS
PUBLIC	?deallocate@?$allocator@UWeaponInfo@@@std@@QAEXPAUWeaponInfo@@I@Z ; std::allocator<WeaponInfo>::deallocate
; Function compile flags: /Ogsp
;	COMDAT ?deallocate@?$allocator@UWeaponInfo@@@std@@QAEXPAUWeaponInfo@@I@Z
_TEXT	SEGMENT
__Ptr$ = 8						; size = 4
___formal$ = 12						; size = 4
?deallocate@?$allocator@UWeaponInfo@@@std@@QAEXPAUWeaponInfo@@I@Z PROC ; std::allocator<WeaponInfo>::deallocate, COMDAT
; _this$ = ecx

; 181  : 		{	// deallocate object at _Ptr, ignore size

  00000	55		 push	 ebp
  00001	8b ec		 mov	 ebp, esp

; 182  : 		::operator delete(_Ptr);

  00003	ff 75 08	 push	 DWORD PTR __Ptr$[ebp]
  00006	e8 00 00 00 00	 call	 ??3@YAXPAX@Z		; operator delete
  0000b	59		 pop	 ecx

; 183  : 		}

  0000c	5d		 pop	 ebp
  0000d	c2 08 00	 ret	 8
?deallocate@?$allocator@UWeaponInfo@@@std@@QAEXPAUWeaponInfo@@I@Z ENDP ; std::allocator<WeaponInfo>::deallocate
_TEXT	ENDS
PUBLIC	??0?$allocator@UForceInfo@@@std@@QAE@ABV01@@Z	; std::allocator<ForceInfo>::allocator<ForceInfo>
; Function compile flags: /Ogsp
;	COMDAT ??0?$allocator@UForceInfo@@@std@@QAE@ABV01@@Z
_TEXT	SEGMENT
___formal$ = 8						; size = 4
??0?$allocator@UForceInfo@@@std@@QAE@ABV01@@Z PROC	; std::allocator<ForceInfo>::allocator<ForceInfo>, COMDAT
; _this$ = ecx

; 165  : 	_ALLOCATOR(const _ALLOCATOR<_Ty>&) _THROW0()

  00000	8b c1		 mov	 eax, ecx

; 166  : 		{	// construct by copying (do nothing)
; 167  : 		}

  00002	c2 04 00	 ret	 4
??0?$allocator@UForceInfo@@@std@@QAE@ABV01@@Z ENDP	; std::allocator<ForceInfo>::allocator<ForceInfo>
_TEXT	ENDS
PUBLIC	?deallocate@?$allocator@UForceInfo@@@std@@QAEXPAUForceInfo@@I@Z ; std::allocator<ForceInfo>::deallocate
; Function compile flags: /Ogsp
;	COMDAT ?deallocate@?$allocator@UForceInfo@@@std@@QAEXPAUForceInfo@@I@Z
_TEXT	SEGMENT
__Ptr$ = 8						; size = 4
___formal$ = 12						; size = 4
?deallocate@?$allocator@UForceInfo@@@std@@QAEXPAUForceInfo@@I@Z PROC ; std::allocator<ForceInfo>::deallocate, COMDAT
; _this$ = ecx

; 181  : 		{	// deallocate object at _Ptr, ignore size

  00000	55		 push	 ebp
  00001	8b ec		 mov	 ebp, esp

; 182  : 		::operator delete(_Ptr);

  00003	ff 75 08	 push	 DWORD PTR __Ptr$[ebp]
  00006	e8 00 00 00 00	 call	 ??3@YAXPAX@Z		; operator delete
  0000b	59		 pop	 ecx

; 183  : 		}

  0000c	5d		 pop	 ebp
  0000d	c2 08 00	 ret	 8
?deallocate@?$allocator@UForceInfo@@@std@@QAEXPAUForceInfo@@I@Z ENDP ; std::allocator<ForceInfo>::deallocate
_TEXT	ENDS
EXTRN	__imp_??0exception@std@@QAE@ABV01@@Z:PROC
; Function compile flags: /Ogsp
;	COMDAT ??0bad_alloc@std@@QAE@ABV01@@Z
_TEXT	SEGMENT
___that$ = 8						; size = 4
??0bad_alloc@std@@QAE@ABV01@@Z PROC			; std::bad_alloc::bad_alloc, COMDAT
; _this$ = ecx
  00000	55		 push	 ebp
  00001	8b ec		 mov	 ebp, esp
  00003	56		 push	 esi
  00004	ff 75 08	 push	 DWORD PTR ___that$[ebp]
  00007	8b f1		 mov	 esi, ecx
  00009	ff 15 00 00 00
	00		 call	 DWORD PTR __imp_??0exception@std@@QAE@ABV01@@Z
  0000f	c7 06 00 00 00
	00		 mov	 DWORD PTR [esi], OFFSET ??_7bad_alloc@std@@6B@
  00015	8b c6		 mov	 eax, esi
  00017	5e		 pop	 esi
  00018	5d		 pop	 ebp
  00019	c2 04 00	 ret	 4
??0bad_alloc@std@@QAE@ABV01@@Z ENDP			; std::bad_alloc::bad_alloc
_TEXT	ENDS
PUBLIC	??$_Ptr_cat@UWeaponInfo@@U1@@std@@YA?AU_Nonscalar_ptr_iterator_tag@0@PAUWeaponInfo@@0@Z ; std::_Ptr_cat<WeaponInfo,WeaponInfo>
; Function compile flags: /Ogsp
; File c:\program files (x86)\microsoft visual studio 10.0\vc\include\xutility
;	COMDAT ??$_Ptr_cat@UWeaponInfo@@U1@@std@@YA?AU_Nonscalar_ptr_iterator_tag@0@PAUWeaponInfo@@0@Z
_TEXT	SEGMENT
__Cat$ = -1						; size = 1
___formal$ = 8						; size = 4
___formal$ = 12						; size = 4
??$_Ptr_cat@UWeaponInfo@@U1@@std@@YA?AU_Nonscalar_ptr_iterator_tag@0@PAUWeaponInfo@@0@Z PROC ; std::_Ptr_cat<WeaponInfo,WeaponInfo>, COMDAT

; 516  : 	{	// return pointer category from pointers

  00000	55		 push	 ebp
  00001	8b ec		 mov	 ebp, esp
  00003	51		 push	 ecx

; 517  : 	typename _Ptr_cat_helper<_Elem1, _Elem2>::_Type _Cat;
; 518  : 	return (_Cat);

  00004	8a 45 ff	 mov	 al, BYTE PTR __Cat$[ebp]

; 519  : 	}

  00007	c9		 leave
  00008	c3		 ret	 0
??$_Ptr_cat@UWeaponInfo@@U1@@std@@YA?AU_Nonscalar_ptr_iterator_tag@0@PAUWeaponInfo@@0@Z ENDP ; std::_Ptr_cat<WeaponInfo,WeaponInfo>
_TEXT	ENDS
PUBLIC	??$_Ptr_cat@UForceInfo@@U1@@std@@YA?AU_Nonscalar_ptr_iterator_tag@0@PAUForceInfo@@0@Z ; std::_Ptr_cat<ForceInfo,ForceInfo>
; Function compile flags: /Ogsp
;	COMDAT ??$_Ptr_cat@UForceInfo@@U1@@std@@YA?AU_Nonscalar_ptr_iterator_tag@0@PAUForceInfo@@0@Z
_TEXT	SEGMENT
__Cat$ = -1						; size = 1
___formal$ = 8						; size = 4
___formal$ = 12						; size = 4
??$_Ptr_cat@UForceInfo@@U1@@std@@YA?AU_Nonscalar_ptr_iterator_tag@0@PAUForceInfo@@0@Z PROC ; std::_Ptr_cat<ForceInfo,ForceInfo>, COMDAT

; 516  : 	{	// return pointer category from pointers

  00000	55		 push	 ebp
  00001	8b ec		 mov	 ebp, esp
  00003	51		 push	 ecx

; 517  : 	typename _Ptr_cat_helper<_Elem1, _Elem2>::_Type _Cat;
; 518  : 	return (_Cat);

  00004	8a 45 ff	 mov	 al, BYTE PTR __Cat$[ebp]

; 519  : 	}

  00007	c9		 leave
  00008	c3		 ret	 0
??$_Ptr_cat@UForceInfo@@U1@@std@@YA?AU_Nonscalar_ptr_iterator_tag@0@PAUForceInfo@@0@Z ENDP ; std::_Ptr_cat<ForceInfo,ForceInfo>
_TEXT	ENDS
PUBLIC	?size@?$vector@UWeaponInfo@@V?$allocator@UWeaponInfo@@@std@@@std@@QBEIXZ ; std::vector<WeaponInfo,std::allocator<WeaponInfo> >::size
; Function compile flags: /Ogsp
; File c:\program files (x86)\microsoft visual studio 10.0\vc\include\vector
;	COMDAT ?size@?$vector@UWeaponInfo@@V?$allocator@UWeaponInfo@@@std@@@std@@QBEIXZ
_TEXT	SEGMENT
?size@?$vector@UWeaponInfo@@V?$allocator@UWeaponInfo@@@std@@@std@@QBEIXZ PROC ; std::vector<WeaponInfo,std::allocator<WeaponInfo> >::size, COMDAT
; _this$ = ecx

; 879  : 		return (this->_Mylast - this->_Myfirst);

  00000	8b 41 04	 mov	 eax, DWORD PTR [ecx+4]
  00003	2b 01		 sub	 eax, DWORD PTR [ecx]
  00005	6a 28		 push	 40			; 00000028H
  00007	99		 cdq
  00008	59		 pop	 ecx
  00009	f7 f9		 idiv	 ecx

; 880  : 		}

  0000b	c3		 ret	 0
?size@?$vector@UWeaponInfo@@V?$allocator@UWeaponInfo@@@std@@@std@@QBEIXZ ENDP ; std::vector<WeaponInfo,std::allocator<WeaponInfo> >::size
_TEXT	ENDS
PUBLIC	?size@?$vector@UForceInfo@@V?$allocator@UForceInfo@@@std@@@std@@QBEIXZ ; std::vector<ForceInfo,std::allocator<ForceInfo> >::size
; Function compile flags: /Ogsp
;	COMDAT ?size@?$vector@UForceInfo@@V?$allocator@UForceInfo@@@std@@@std@@QBEIXZ
_TEXT	SEGMENT
?size@?$vector@UForceInfo@@V?$allocator@UForceInfo@@@std@@@std@@QBEIXZ PROC ; std::vector<ForceInfo,std::allocator<ForceInfo> >::size, COMDAT
; _this$ = ecx

; 879  : 		return (this->_Mylast - this->_Myfirst);

  00000	8b 41 04	 mov	 eax, DWORD PTR [ecx+4]
  00003	2b 01		 sub	 eax, DWORD PTR [ecx]
  00005	6a 0c		 push	 12			; 0000000cH
  00007	99		 cdq
  00008	59		 pop	 ecx
  00009	f7 f9		 idiv	 ecx

; 880  : 		}

  0000b	c3		 ret	 0
?size@?$vector@UForceInfo@@V?$allocator@UForceInfo@@@std@@@std@@QBEIXZ ENDP ; std::vector<ForceInfo,std::allocator<ForceInfo> >::size
_TEXT	ENDS
PUBLIC	?_Xlen@?$vector@UWeaponInfo@@V?$allocator@UWeaponInfo@@@std@@@std@@IBEXXZ ; std::vector<WeaponInfo,std::allocator<WeaponInfo> >::_Xlen
; Function compile flags: /Ogsp
;	COMDAT ?_Xlen@?$vector@UWeaponInfo@@V?$allocator@UWeaponInfo@@@std@@@std@@IBEXXZ
_TEXT	SEGMENT
?_Xlen@?$vector@UWeaponInfo@@V?$allocator@UWeaponInfo@@@std@@@std@@IBEXXZ PROC ; std::vector<WeaponInfo,std::allocator<WeaponInfo> >::_Xlen, COMDAT
; _this$ = ecx

; 1427 : 		_Xlength_error("vector<T> too long");

  00000	68 00 00 00 00	 push	 OFFSET ??_C@_0BD@OLBABOEK@vector?$DMT?$DO?5too?5long?$AA@
  00005	ff 15 00 00 00
	00		 call	 DWORD PTR __imp_?_Xlength_error@std@@YAXPBD@Z
$LN4@Xlen@3:
$LN3@Xlen@3:
  0000b	cc		 int	 3
?_Xlen@?$vector@UWeaponInfo@@V?$allocator@UWeaponInfo@@@std@@@std@@IBEXXZ ENDP ; std::vector<WeaponInfo,std::allocator<WeaponInfo> >::_Xlen
_TEXT	ENDS
PUBLIC	?_Xlen@?$vector@UForceInfo@@V?$allocator@UForceInfo@@@std@@@std@@IBEXXZ ; std::vector<ForceInfo,std::allocator<ForceInfo> >::_Xlen
; Function compile flags: /Ogsp
;	COMDAT ?_Xlen@?$vector@UForceInfo@@V?$allocator@UForceInfo@@@std@@@std@@IBEXXZ
_TEXT	SEGMENT
?_Xlen@?$vector@UForceInfo@@V?$allocator@UForceInfo@@@std@@@std@@IBEXXZ PROC ; std::vector<ForceInfo,std::allocator<ForceInfo> >::_Xlen, COMDAT
; _this$ = ecx

; 1427 : 		_Xlength_error("vector<T> too long");

  00000	68 00 00 00 00	 push	 OFFSET ??_C@_0BD@OLBABOEK@vector?$DMT?$DO?5too?5long?$AA@
  00005	ff 15 00 00 00
	00		 call	 DWORD PTR __imp_?_Xlength_error@std@@YAXPBD@Z
$LN4@Xlen@4:
$LN3@Xlen@4:
  0000b	cc		 int	 3
?_Xlen@?$vector@UForceInfo@@V?$allocator@UForceInfo@@@std@@@std@@IBEXXZ ENDP ; std::vector<ForceInfo,std::allocator<ForceInfo> >::_Xlen
_TEXT	ENDS
PUBLIC	?max_size@?$allocator@UWeaponInfo@@@std@@QBEIXZ	; std::allocator<WeaponInfo>::max_size
; Function compile flags: /Ogsp
; File c:\program files (x86)\microsoft visual studio 10.0\vc\include\xmemory
;	COMDAT ?max_size@?$allocator@UWeaponInfo@@@std@@QBEIXZ
_TEXT	SEGMENT
?max_size@?$allocator@UWeaponInfo@@@std@@QBEIXZ PROC	; std::allocator<WeaponInfo>::max_size, COMDAT
; _this$ = ecx

; 218  : 		_SIZT _Count = (_SIZT)(-1) / sizeof (_Ty);
; 219  : 		return (0 < _Count ? _Count : 1);

  00000	b8 66 66 66 06	 mov	 eax, 107374182		; 06666666H

; 220  : 		}

  00005	c3		 ret	 0
?max_size@?$allocator@UWeaponInfo@@@std@@QBEIXZ ENDP	; std::allocator<WeaponInfo>::max_size
_TEXT	ENDS
PUBLIC	?max_size@?$allocator@UForceInfo@@@std@@QBEIXZ	; std::allocator<ForceInfo>::max_size
; Function compile flags: /Ogsp
;	COMDAT ?max_size@?$allocator@UForceInfo@@@std@@QBEIXZ
_TEXT	SEGMENT
?max_size@?$allocator@UForceInfo@@@std@@QBEIXZ PROC	; std::allocator<ForceInfo>::max_size, COMDAT
; _this$ = ecx

; 218  : 		_SIZT _Count = (_SIZT)(-1) / sizeof (_Ty);
; 219  : 		return (0 < _Count ? _Count : 1);

  00000	b8 55 55 55 15	 mov	 eax, 357913941		; 15555555H

; 220  : 		}

  00005	c3		 ret	 0
?max_size@?$allocator@UForceInfo@@@std@@QBEIXZ ENDP	; std::allocator<ForceInfo>::max_size
_TEXT	ENDS
PUBLIC	??0?$_Vector_const_iterator@V?$_Vector_val@UWeaponInfo@@V?$allocator@UWeaponInfo@@@std@@@std@@@std@@QAE@PAUWeaponInfo@@PBU_Container_base0@1@@Z ; std::_Vector_const_iterator<std::_Vector_val<WeaponInfo,std::allocator<WeaponInfo> > >::_Vector_const_iterator<std::_Vector_val<WeaponInfo,std::allocator<WeaponInfo> > >
; Function compile flags: /Ogsp
; File c:\program files (x86)\microsoft visual studio 10.0\vc\include\vector
;	COMDAT ??0?$_Vector_const_iterator@V?$_Vector_val@UWeaponInfo@@V?$allocator@UWeaponInfo@@@std@@@std@@@std@@QAE@PAUWeaponInfo@@PBU_Container_base0@1@@Z
_TEXT	SEGMENT
__Parg$ = 8						; size = 4
__Pvector$ = 12						; size = 4
??0?$_Vector_const_iterator@V?$_Vector_val@UWeaponInfo@@V?$allocator@UWeaponInfo@@@std@@@std@@@std@@QAE@PAUWeaponInfo@@PBU_Container_base0@1@@Z PROC ; std::_Vector_const_iterator<std::_Vector_val<WeaponInfo,std::allocator<WeaponInfo> > >::_Vector_const_iterator<std::_Vector_val<WeaponInfo,std::allocator<WeaponInfo> > >, COMDAT
; _this$ = ecx

; 45   : 		{	// construct with pointer _Parg

  00000	55		 push	 ebp
  00001	8b ec		 mov	 ebp, esp
  00003	8b c1		 mov	 eax, ecx
  00005	8b 4d 08	 mov	 ecx, DWORD PTR __Parg$[ebp]
  00008	89 08		 mov	 DWORD PTR [eax], ecx

; 46   : 		this->_Adopt(_Pvector);
; 47   : 		}

  0000a	5d		 pop	 ebp
  0000b	c2 08 00	 ret	 8
??0?$_Vector_const_iterator@V?$_Vector_val@UWeaponInfo@@V?$allocator@UWeaponInfo@@@std@@@std@@@std@@QAE@PAUWeaponInfo@@PBU_Container_base0@1@@Z ENDP ; std::_Vector_const_iterator<std::_Vector_val<WeaponInfo,std::allocator<WeaponInfo> > >::_Vector_const_iterator<std::_Vector_val<WeaponInfo,std::allocator<WeaponInfo> > >
_TEXT	ENDS
PUBLIC	??0?$_Vector_const_iterator@V?$_Vector_val@UForceInfo@@V?$allocator@UForceInfo@@@std@@@std@@@std@@QAE@PAUForceInfo@@PBU_Container_base0@1@@Z ; std::_Vector_const_iterator<std::_Vector_val<ForceInfo,std::allocator<ForceInfo> > >::_Vector_const_iterator<std::_Vector_val<ForceInfo,std::allocator<ForceInfo> > >
; Function compile flags: /Ogsp
;	COMDAT ??0?$_Vector_const_iterator@V?$_Vector_val@UForceInfo@@V?$allocator@UForceInfo@@@std@@@std@@@std@@QAE@PAUForceInfo@@PBU_Container_base0@1@@Z
_TEXT	SEGMENT
__Parg$ = 8						; size = 4
__Pvector$ = 12						; size = 4
??0?$_Vector_const_iterator@V?$_Vector_val@UForceInfo@@V?$allocator@UForceInfo@@@std@@@std@@@std@@QAE@PAUForceInfo@@PBU_Container_base0@1@@Z PROC ; std::_Vector_const_iterator<std::_Vector_val<ForceInfo,std::allocator<ForceInfo> > >::_Vector_const_iterator<std::_Vector_val<ForceInfo,std::allocator<ForceInfo> > >, COMDAT
; _this$ = ecx

; 45   : 		{	// construct with pointer _Parg

  00000	55		 push	 ebp
  00001	8b ec		 mov	 ebp, esp
  00003	8b c1		 mov	 eax, ecx
  00005	8b 4d 08	 mov	 ecx, DWORD PTR __Parg$[ebp]
  00008	89 08		 mov	 DWORD PTR [eax], ecx

; 46   : 		this->_Adopt(_Pvector);
; 47   : 		}

  0000a	5d		 pop	 ebp
  0000b	c2 08 00	 ret	 8
??0?$_Vector_const_iterator@V?$_Vector_val@UForceInfo@@V?$allocator@UForceInfo@@@std@@@std@@@std@@QAE@PAUForceInfo@@PBU_Container_base0@1@@Z ENDP ; std::_Vector_const_iterator<std::_Vector_val<ForceInfo,std::allocator<ForceInfo> > >::_Vector_const_iterator<std::_Vector_val<ForceInfo,std::allocator<ForceInfo> > >
_TEXT	ENDS
PUBLIC	?_Compat@?$_Vector_const_iterator@V?$_Vector_val@UWeaponInfo@@V?$allocator@UWeaponInfo@@@std@@@std@@@std@@QBEXABV12@@Z ; std::_Vector_const_iterator<std::_Vector_val<WeaponInfo,std::allocator<WeaponInfo> > >::_Compat
; Function compile flags: /Ogsp
;	COMDAT ?_Compat@?$_Vector_const_iterator@V?$_Vector_val@UWeaponInfo@@V?$allocator@UWeaponInfo@@@std@@@std@@@std@@QBEXABV12@@Z
_TEXT	SEGMENT
___formal$ = 8						; size = 4
?_Compat@?$_Vector_const_iterator@V?$_Vector_val@UWeaponInfo@@V?$allocator@UWeaponInfo@@@std@@@std@@@std@@QBEXABV12@@Z PROC ; std::_Vector_const_iterator<std::_Vector_val<WeaponInfo,std::allocator<WeaponInfo> > >::_Compat, COMDAT
; _this$ = ecx

; 253  : 		}

  00000	c2 04 00	 ret	 4
?_Compat@?$_Vector_const_iterator@V?$_Vector_val@UWeaponInfo@@V?$allocator@UWeaponInfo@@@std@@@std@@@std@@QBEXABV12@@Z ENDP ; std::_Vector_const_iterator<std::_Vector_val<WeaponInfo,std::allocator<WeaponInfo> > >::_Compat
_TEXT	ENDS
PUBLIC	?_Compat@?$_Vector_const_iterator@V?$_Vector_val@UForceInfo@@V?$allocator@UForceInfo@@@std@@@std@@@std@@QBEXABV12@@Z ; std::_Vector_const_iterator<std::_Vector_val<ForceInfo,std::allocator<ForceInfo> > >::_Compat
; Function compile flags: /Ogsp
;	COMDAT ?_Compat@?$_Vector_const_iterator@V?$_Vector_val@UForceInfo@@V?$allocator@UForceInfo@@@std@@@std@@@std@@QBEXABV12@@Z
_TEXT	SEGMENT
___formal$ = 8						; size = 4
?_Compat@?$_Vector_const_iterator@V?$_Vector_val@UForceInfo@@V?$allocator@UForceInfo@@@std@@@std@@@std@@QBEXABV12@@Z PROC ; std::_Vector_const_iterator<std::_Vector_val<ForceInfo,std::allocator<ForceInfo> > >::_Compat, COMDAT
; _this$ = ecx

; 253  : 		}

  00000	c2 04 00	 ret	 4
?_Compat@?$_Vector_const_iterator@V?$_Vector_val@UForceInfo@@V?$allocator@UForceInfo@@@std@@@std@@@std@@QBEXABV12@@Z ENDP ; std::_Vector_const_iterator<std::_Vector_val<ForceInfo,std::allocator<ForceInfo> > >::_Compat
_TEXT	ENDS
PUBLIC	??$_Allocate@UWeaponInfo@@@std@@YAPAUWeaponInfo@@IPAU1@@Z ; std::_Allocate<WeaponInfo>
; Function compile flags: /Ogsp
; File c:\program files (x86)\microsoft visual studio 10.0\vc\include\xmemory
;	COMDAT ??$_Allocate@UWeaponInfo@@@std@@YAPAUWeaponInfo@@IPAU1@@Z
_TEXT	SEGMENT
$T539187 = -12						; size = 12
$T539191 = 8						; size = 4
__Count$ = 8						; size = 4
___formal$ = 12						; size = 4
??$_Allocate@UWeaponInfo@@@std@@YAPAUWeaponInfo@@IPAU1@@Z PROC ; std::_Allocate<WeaponInfo>, COMDAT

; 30   : 	{	// allocate storage for _Count elements of type _Ty

  00000	55		 push	 ebp
  00001	8b ec		 mov	 ebp, esp

; 31   : 	void *_Ptr = 0;
; 32   : 
; 33   : 	if (_Count <= 0)

  00003	8b 4d 08	 mov	 ecx, DWORD PTR __Count$[ebp]
  00006	83 ec 0c	 sub	 esp, 12			; 0000000cH
  00009	33 c0		 xor	 eax, eax
  0000b	85 c9		 test	 ecx, ecx

; 34   : 		_Count = 0;
; 35   : 	else if (((_SIZT)(-1) / sizeof (_Ty) < _Count)

  0000d	74 3c		 je	 SHORT $LN5@Allocate@3

; 36   : 		|| (_Ptr = ::operator new(_Count * sizeof (_Ty))) == 0)

  0000f	81 f9 66 66 66
	06		 cmp	 ecx, 107374182		; 06666666H
  00015	77 0e		 ja	 SHORT $LN1@Allocate@3
  00017	6b c9 28	 imul	 ecx, 40			; 00000028H
  0001a	51		 push	 ecx
  0001b	e8 00 00 00 00	 call	 ??2@YAPAXI@Z		; operator new
  00020	59		 pop	 ecx
  00021	85 c0		 test	 eax, eax

; 38   : 
; 39   : 	return ((_Ty _FARQ *)_Ptr);

  00023	75 26		 jne	 SHORT $LN5@Allocate@3
$LN1@Allocate@3:

; 37   : 		_THROW_NCEE(bad_alloc, 0);

  00025	83 65 08 00	 and	 DWORD PTR $T539191[ebp], 0
  00029	8d 45 08	 lea	 eax, DWORD PTR $T539191[ebp]
  0002c	50		 push	 eax
  0002d	8d 4d f4	 lea	 ecx, DWORD PTR $T539187[ebp]
  00030	ff 15 00 00 00
	00		 call	 DWORD PTR __imp_??0exception@std@@QAE@ABQBD@Z
  00036	68 00 00 00 00	 push	 OFFSET __TI2?AVbad_alloc@std@@
  0003b	8d 45 f4	 lea	 eax, DWORD PTR $T539187[ebp]
  0003e	50		 push	 eax
  0003f	c7 45 f4 00 00
	00 00		 mov	 DWORD PTR $T539187[ebp], OFFSET ??_7bad_alloc@std@@6B@
  00046	e8 00 00 00 00	 call	 __CxxThrowException@8
$LN10@Allocate@3:
$LN5@Allocate@3:

; 40   : 	}

  0004b	c9		 leave
  0004c	c3		 ret	 0
$LN9@Allocate@3:
??$_Allocate@UWeaponInfo@@@std@@YAPAUWeaponInfo@@IPAU1@@Z ENDP ; std::_Allocate<WeaponInfo>
_TEXT	ENDS
PUBLIC	??$_Allocate@UForceInfo@@@std@@YAPAUForceInfo@@IPAU1@@Z ; std::_Allocate<ForceInfo>
; Function compile flags: /Ogsp
;	COMDAT ??$_Allocate@UForceInfo@@@std@@YAPAUForceInfo@@IPAU1@@Z
_TEXT	SEGMENT
$T539196 = -12						; size = 12
$T539200 = 8						; size = 4
__Count$ = 8						; size = 4
___formal$ = 12						; size = 4
??$_Allocate@UForceInfo@@@std@@YAPAUForceInfo@@IPAU1@@Z PROC ; std::_Allocate<ForceInfo>, COMDAT

; 30   : 	{	// allocate storage for _Count elements of type _Ty

  00000	55		 push	 ebp
  00001	8b ec		 mov	 ebp, esp

; 31   : 	void *_Ptr = 0;
; 32   : 
; 33   : 	if (_Count <= 0)

  00003	8b 4d 08	 mov	 ecx, DWORD PTR __Count$[ebp]
  00006	83 ec 0c	 sub	 esp, 12			; 0000000cH
  00009	33 c0		 xor	 eax, eax
  0000b	85 c9		 test	 ecx, ecx

; 34   : 		_Count = 0;
; 35   : 	else if (((_SIZT)(-1) / sizeof (_Ty) < _Count)

  0000d	74 3c		 je	 SHORT $LN5@Allocate@4

; 36   : 		|| (_Ptr = ::operator new(_Count * sizeof (_Ty))) == 0)

  0000f	81 f9 55 55 55
	15		 cmp	 ecx, 357913941		; 15555555H
  00015	77 0e		 ja	 SHORT $LN1@Allocate@4
  00017	6b c9 0c	 imul	 ecx, 12			; 0000000cH
  0001a	51		 push	 ecx
  0001b	e8 00 00 00 00	 call	 ??2@YAPAXI@Z		; operator new
  00020	59		 pop	 ecx
  00021	85 c0		 test	 eax, eax

; 38   : 
; 39   : 	return ((_Ty _FARQ *)_Ptr);

  00023	75 26		 jne	 SHORT $LN5@Allocate@4
$LN1@Allocate@4:

; 37   : 		_THROW_NCEE(bad_alloc, 0);

  00025	83 65 08 00	 and	 DWORD PTR $T539200[ebp], 0
  00029	8d 45 08	 lea	 eax, DWORD PTR $T539200[ebp]
  0002c	50		 push	 eax
  0002d	8d 4d f4	 lea	 ecx, DWORD PTR $T539196[ebp]
  00030	ff 15 00 00 00
	00		 call	 DWORD PTR __imp_??0exception@std@@QAE@ABQBD@Z
  00036	68 00 00 00 00	 push	 OFFSET __TI2?AVbad_alloc@std@@
  0003b	8d 45 f4	 lea	 eax, DWORD PTR $T539196[ebp]
  0003e	50		 push	 eax
  0003f	c7 45 f4 00 00
	00 00		 mov	 DWORD PTR $T539196[ebp], OFFSET ??_7bad_alloc@std@@6B@
  00046	e8 00 00 00 00	 call	 __CxxThrowException@8
$LN10@Allocate@4:
$LN5@Allocate@4:

; 40   : 	}

  0004b	c9		 leave
  0004c	c3		 ret	 0
$LN9@Allocate@4:
??$_Allocate@UForceInfo@@@std@@YAPAUForceInfo@@IPAU1@@Z ENDP ; std::_Allocate<ForceInfo>
_TEXT	ENDS
PUBLIC	??$_Destroy@UForceInfo@@@std@@YAXPAUForceInfo@@@Z ; std::_Destroy<ForceInfo>
; Function compile flags: /Ogsp
;	COMDAT ??$_Destroy@UForceInfo@@@std@@YAXPAUForceInfo@@@Z
_TEXT	SEGMENT
__Ptr$ = 8						; size = 4
??$_Destroy@UForceInfo@@@std@@YAXPAUForceInfo@@@Z PROC	; std::_Destroy<ForceInfo>, COMDAT

; 63   : 	_Ptr->~_Ty();
; 64   : 	}

  00000	c3		 ret	 0
??$_Destroy@UForceInfo@@@std@@YAXPAUForceInfo@@@Z ENDP	; std::_Destroy<ForceInfo>
_TEXT	ENDS
PUBLIC	??_GWeaponInfo@@QAEPAXI@Z			; WeaponInfo::`scalar deleting destructor'
; Function compile flags: /Ogsp
;	COMDAT ??_GWeaponInfo@@QAEPAXI@Z
_TEXT	SEGMENT
___flags$ = 8						; size = 4
??_GWeaponInfo@@QAEPAXI@Z PROC				; WeaponInfo::`scalar deleting destructor', COMDAT
; _this$ = ecx
  00000	55		 push	 ebp
  00001	8b ec		 mov	 ebp, esp
  00003	56		 push	 esi
  00004	8b f1		 mov	 esi, ecx
  00006	8d 4e 08	 lea	 ecx, DWORD PTR [esi+8]
  00009	ff 15 00 00 00
	00		 call	 DWORD PTR __imp_??1ioHashString@@QAE@XZ
  0000f	f6 45 08 01	 test	 BYTE PTR ___flags$[ebp], 1
  00013	74 07		 je	 SHORT $LN1@scalar@2
  00015	56		 push	 esi
  00016	e8 00 00 00 00	 call	 ??3@YAXPAX@Z		; operator delete
  0001b	59		 pop	 ecx
$LN1@scalar@2:
  0001c	8b c6		 mov	 eax, esi
  0001e	5e		 pop	 esi
  0001f	5d		 pop	 ebp
  00020	c2 04 00	 ret	 4
??_GWeaponInfo@@QAEPAXI@Z ENDP				; WeaponInfo::`scalar deleting destructor'
_TEXT	ENDS
PUBLIC	??0WeaponInfo@@QAE@ABU0@@Z			; WeaponInfo::WeaponInfo
EXTRN	__imp_??0ioHashString@@QAE@ABV0@@Z:PROC
; Function compile flags: /Ogsp
;	COMDAT ??0WeaponInfo@@QAE@ABU0@@Z
_TEXT	SEGMENT
___that$ = 8						; size = 4
??0WeaponInfo@@QAE@ABU0@@Z PROC				; WeaponInfo::WeaponInfo, COMDAT
; _this$ = ecx
  00000	55		 push	 ebp
  00001	8b ec		 mov	 ebp, esp
  00003	56		 push	 esi
  00004	57		 push	 edi
  00005	8b 7d 08	 mov	 edi, DWORD PTR ___that$[ebp]
  00008	8b 07		 mov	 eax, DWORD PTR [edi]
  0000a	8b f1		 mov	 esi, ecx
  0000c	89 06		 mov	 DWORD PTR [esi], eax
  0000e	8b 47 04	 mov	 eax, DWORD PTR [edi+4]
  00011	89 46 04	 mov	 DWORD PTR [esi+4], eax
  00014	8d 47 08	 lea	 eax, DWORD PTR [edi+8]
  00017	50		 push	 eax
  00018	8d 4e 08	 lea	 ecx, DWORD PTR [esi+8]
  0001b	ff 15 00 00 00
	00		 call	 DWORD PTR __imp_??0ioHashString@@QAE@ABV0@@Z
  00021	8b 47 18	 mov	 eax, DWORD PTR [edi+24]
  00024	89 46 18	 mov	 DWORD PTR [esi+24], eax
  00027	8b 47 1c	 mov	 eax, DWORD PTR [edi+28]
  0002a	89 46 1c	 mov	 DWORD PTR [esi+28], eax
  0002d	8a 47 20	 mov	 al, BYTE PTR [edi+32]
  00030	88 46 20	 mov	 BYTE PTR [esi+32], al
  00033	8b 47 24	 mov	 eax, DWORD PTR [edi+36]
  00036	89 46 24	 mov	 DWORD PTR [esi+36], eax
  00039	5f		 pop	 edi
  0003a	8b c6		 mov	 eax, esi
  0003c	5e		 pop	 esi
  0003d	5d		 pop	 ebp
  0003e	c2 04 00	 ret	 4
??0WeaponInfo@@QAE@ABU0@@Z ENDP				; WeaponInfo::WeaponInfo
_TEXT	ENDS
PUBLIC	??0KeyMapEffect@ioCrecendoSkill@@QAE@XZ		; ioCrecendoSkill::KeyMapEffect::KeyMapEffect
; Function compile flags: /Ogsp
; File d:\lost saga for developer\youtube\tutorial\source\src\lsclient\iocrecendoskill.h
;	COMDAT ??0KeyMapEffect@ioCrecendoSkill@@QAE@XZ
_TEXT	SEGMENT
??0KeyMapEffect@ioCrecendoSkill@@QAE@XZ PROC		; ioCrecendoSkill::KeyMapEffect::KeyMapEffect, COMDAT
; _this$ = ecx

; 71   : 		KeyMapEffect()

  00000	8b c1		 mov	 eax, ecx

; 72   : 		{
; 73   : 			Clear();

  00002	83 08 ff	 or	 DWORD PTR [eax], -1
  00005	83 60 04 00	 and	 DWORD PTR [eax+4], 0

; 74   : 		}

  00009	c3		 ret	 0
??0KeyMapEffect@ioCrecendoSkill@@QAE@XZ ENDP		; ioCrecendoSkill::KeyMapEffect::KeyMapEffect
_TEXT	ENDS
PUBLIC	__real@00000000
PUBLIC	__real@4f800000
PUBLIC	?SetLoopState@ioCrecendoSkill@@IAEXPAVioBaseChar@@@Z ; ioCrecendoSkill::SetLoopState
EXTRN	__imp_?SetLoopAni@ioEntityGroup@@QAE_NHMMMM@Z:PROC
EXTRN	__imp_?ClearAllActionAni@ioEntityGroup@@QAEXM_N@Z:PROC
EXTRN	__imp_?ClearAllLoopAni@ioEntityGroup@@QAEXM_N@Z:PROC
EXTRN	__imp_?GetAnimationIdx@ioEntityGroup@@QAEHABVioHashString@@@Z:PROC
;	COMDAT __real@00000000
; File d:\lost saga for developer\youtube\tutorial\source\src\lsclient\stdafx.h
CONST	SEGMENT
__real@00000000 DD 000000000r			; 0
CONST	ENDS
;	COMDAT __real@4f800000
CONST	SEGMENT
__real@4f800000 DD 04f800000r			; 4.29497e+009
; Function compile flags: /Ogsp
; File d:\lost saga for developer\youtube\tutorial\source\src\lsclient\iocrecendoskill.cpp
CONST	ENDS
;	COMDAT ?SetLoopState@ioCrecendoSkill@@IAEXPAVioBaseChar@@@Z
_TEXT	SEGMENT
tv175 = -8						; size = 4
tv169 = -8						; size = 4
tv162 = -8						; size = 4
_iAniID$ = -4						; size = 4
tv182 = 8						; size = 4
tv154 = 8						; size = 4
tv150 = 8						; size = 4
tv78 = 8						; size = 4
_fAniRate$ = 8						; size = 4
_pChar$ = 8						; size = 4
?SetLoopState@ioCrecendoSkill@@IAEXPAVioBaseChar@@@Z PROC ; ioCrecendoSkill::SetLoopState, COMDAT
; _this$ = ecx

; 183  : {

  00000	55		 push	 ebp
  00001	8b ec		 mov	 ebp, esp
  00003	51		 push	 ecx
  00004	51		 push	 ecx

; 184  : 	if( !pChar )

  00005	8b 45 08	 mov	 eax, DWORD PTR _pChar$[ebp]
  00008	56		 push	 esi
  00009	8b f1		 mov	 esi, ecx
  0000b	85 c0		 test	 eax, eax
  0000d	0f 84 17 01 00
	00		 je	 $LN3@SetLoopSta

; 185  : 		return;
; 186  : 
; 187  : 	m_SkillState = SS_LOOP;	

  00013	57		 push	 edi
  00014	c7 86 e4 10 00
	00 01 00 00 00	 mov	 DWORD PTR [esi+4324], 1

; 188  : 
; 189  : 	ioEntityGroup *pGrp = pChar->GetGroup();

  0001e	8b 78 04	 mov	 edi, DWORD PTR [eax+4]

; 190  : 
; 191  : 	int iAniID = pGrp->GetAnimationIdx( m_SkillLoopMotion );

  00021	8d 86 e8 10 00
	00		 lea	 eax, DWORD PTR [esi+4328]
  00027	50		 push	 eax
  00028	8b cf		 mov	 ecx, edi
  0002a	ff 15 00 00 00
	00		 call	 DWORD PTR __imp_?GetAnimationIdx@ioEntityGroup@@QAEHABVioHashString@@@Z
  00030	89 45 fc	 mov	 DWORD PTR _iAniID$[ebp], eax

; 192  : 	float fAniRate = FLOAT1;

  00033	b8 01 00 00 00	 mov	 eax, 1
  00038	89 45 08	 mov	 DWORD PTR tv182[ebp], eax
  0003b	db 45 08	 fild	 DWORD PTR tv182[ebp]
  0003e	85 c0		 test	 eax, eax
  00040	79 06		 jns	 SHORT $LN19@SetLoopSta
  00042	d8 05 00 00 00
	00		 fadd	 DWORD PTR __real@4f800000
$LN19@SetLoopSta:

; 193  : 	if( m_SkillLoopMotionRate > 0.0f )

  00048	f3 0f 10 86 f8
	10 00 00	 movss	 xmm0, DWORD PTR [esi+4344]
  00050	d9 5d 08	 fstp	 DWORD PTR _fAniRate$[ebp]
  00053	0f 2f 05 00 00
	00 00		 comiss	 xmm0, DWORD PTR __real@00000000
  0005a	76 05		 jbe	 SHORT $LN1@SetLoopSta

; 194  : 		fAniRate = m_SkillLoopMotionRate;

  0005c	f3 0f 11 45 08	 movss	 DWORD PTR _fAniRate$[ebp], xmm0
$LN1@SetLoopSta:

; 195  : 
; 196  : 	pGrp->ClearAllLoopAni( FLOAT100, true );

  00061	b8 64 00 00 00	 mov	 eax, 100		; 00000064H
  00066	89 45 f8	 mov	 DWORD PTR tv175[ebp], eax
  00069	db 45 f8	 fild	 DWORD PTR tv175[ebp]
  0006c	6a 01		 push	 1
  0006e	85 c0		 test	 eax, eax
  00070	79 06		 jns	 SHORT $LN20@SetLoopSta
  00072	d8 05 00 00 00
	00		 fadd	 DWORD PTR __real@4f800000
$LN20@SetLoopSta:
  00078	51		 push	 ecx
  00079	8b cf		 mov	 ecx, edi
  0007b	d9 1c 24	 fstp	 DWORD PTR [esp]
  0007e	ff 15 00 00 00
	00		 call	 DWORD PTR __imp_?ClearAllLoopAni@ioEntityGroup@@QAEXM_N@Z

; 197  : 	pGrp->ClearAllActionAni( FLOAT100, true );

  00084	b8 64 00 00 00	 mov	 eax, 100		; 00000064H
  00089	89 45 f8	 mov	 DWORD PTR tv169[ebp], eax
  0008c	db 45 f8	 fild	 DWORD PTR tv169[ebp]
  0008f	6a 01		 push	 1
  00091	85 c0		 test	 eax, eax
  00093	79 06		 jns	 SHORT $LN21@SetLoopSta
  00095	d8 05 00 00 00
	00		 fadd	 DWORD PTR __real@4f800000
$LN21@SetLoopSta:
  0009b	51		 push	 ecx
  0009c	8b cf		 mov	 ecx, edi
  0009e	d9 1c 24	 fstp	 DWORD PTR [esp]
  000a1	ff 15 00 00 00
	00		 call	 DWORD PTR __imp_?ClearAllActionAni@ioEntityGroup@@QAEXM_N@Z

; 198  : 	pGrp->SetLoopAni( iAniID, FLOAT100, FLOAT1, FLOAT1/fAniRate );

  000a7	b8 01 00 00 00	 mov	 eax, 1
  000ac	8b c8		 mov	 ecx, eax
  000ae	b8 01 00 00 00	 mov	 eax, 1
  000b3	8b d0		 mov	 edx, eax
  000b5	b8 64 00 00 00	 mov	 eax, 100		; 00000064H
  000ba	0f 57 c0	 xorps	 xmm0, xmm0
  000bd	83 ec 10	 sub	 esp, 16			; 00000010H
  000c0	89 4d f8	 mov	 DWORD PTR tv162[ebp], ecx
  000c3	db 45 f8	 fild	 DWORD PTR tv162[ebp]
  000c6	f3 0f 11 44 24
	0c		 movss	 DWORD PTR [esp+12], xmm0
  000cc	85 c9		 test	 ecx, ecx
  000ce	79 06		 jns	 SHORT $LN22@SetLoopSta
  000d0	d8 05 00 00 00
	00		 fadd	 DWORD PTR __real@4f800000
$LN22@SetLoopSta:
  000d6	d8 75 08	 fdiv	 DWORD PTR _fAniRate$[ebp]
  000d9	d9 5d 08	 fstp	 DWORD PTR tv78[ebp]
  000dc	d9 45 08	 fld	 DWORD PTR tv78[ebp]
  000df	d9 5c 24 08	 fstp	 DWORD PTR [esp+8]
  000e3	89 55 08	 mov	 DWORD PTR tv150[ebp], edx
  000e6	db 45 08	 fild	 DWORD PTR tv150[ebp]
  000e9	85 d2		 test	 edx, edx
  000eb	79 06		 jns	 SHORT $LN23@SetLoopSta
  000ed	d8 05 00 00 00
	00		 fadd	 DWORD PTR __real@4f800000
$LN23@SetLoopSta:
  000f3	89 45 08	 mov	 DWORD PTR tv154[ebp], eax
  000f6	d9 5c 24 04	 fstp	 DWORD PTR [esp+4]
  000fa	db 45 08	 fild	 DWORD PTR tv154[ebp]
  000fd	85 c0		 test	 eax, eax
  000ff	79 06		 jns	 SHORT $LN24@SetLoopSta
  00101	d8 05 00 00 00
	00		 fadd	 DWORD PTR __real@4f800000
$LN24@SetLoopSta:
  00107	d9 1c 24	 fstp	 DWORD PTR [esp]
  0010a	ff 75 fc	 push	 DWORD PTR _iAniID$[ebp]
  0010d	8b cf		 mov	 ecx, edi
  0010f	ff 15 00 00 00
	00		 call	 DWORD PTR __imp_?SetLoopAni@ioEntityGroup@@QAE_NHMMMM@Z

; 199  : 
; 200  : 	m_dwLoopStartTime = FRAMEGETTIME();	

  00115	ff 15 00 00 00
	00		 call	 DWORD PTR __imp_?GetSingleton@ioFrameTimer@@SAAAV1@XZ
  0011b	8b c8		 mov	 ecx, eax
  0011d	ff 15 00 00 00
	00		 call	 DWORD PTR __imp_?GetLoopSec@ioFrameTimer@@QBEKXZ
  00123	89 86 fc 10 00
	00		 mov	 DWORD PTR [esi+4348], eax
  00129	5f		 pop	 edi
$LN3@SetLoopSta:
  0012a	5e		 pop	 esi

; 201  : }

  0012b	c9		 leave
  0012c	c2 04 00	 ret	 4
?SetLoopState@ioCrecendoSkill@@IAEXPAVioBaseChar@@@Z ENDP ; ioCrecendoSkill::SetLoopState
_TEXT	ENDS
PUBLIC	__$ArrayPad$
PUBLIC	?CreateKeyEffect@ioCrecendoSkill@@IAEKPAVioBaseChar@@PAVioPlayStage@@K_N@Z ; ioCrecendoSkill::CreateKeyEffect
EXTRN	?GetUniqueID@ioMapEffect@@QBEKXZ:PROC		; ioMapEffect::GetUniqueID
EXTRN	?CreateMapEffect@ioPlayStage@@QAEPAVioMapEffect@@ABVioHashString@@ABUD3DXVECTOR3@@1@Z:PROC ; ioPlayStage::CreateMapEffect
EXTRN	__imp_?VEC3_ZERO@ioMath@@2UD3DXVECTOR3@@A:BYTE
EXTRN	___security_cookie:DWORD
EXTRN	@__security_check_cookie@4:PROC
; Function compile flags: /Ogsp
;	COMDAT ?CreateKeyEffect@ioCrecendoSkill@@IAEKPAVioBaseChar@@PAVioPlayStage@@K_N@Z
_TEXT	SEGMENT
tv649 = -128						; size = 4
tv646 = -128						; size = 4
tv643 = -128						; size = 4
tv633 = -128						; size = 4
tv630 = -128						; size = 4
tv627 = -128						; size = 4
tv617 = -128						; size = 4
tv614 = -128						; size = 4
tv611 = -128						; size = 4
tv601 = -128						; size = 4
tv598 = -128						; size = 4
tv595 = -128						; size = 4
tv585 = -128						; size = 4
tv582 = -128						; size = 4
tv579 = -128						; size = 4
tv569 = -128						; size = 4
tv566 = -128						; size = 4
tv563 = -128						; size = 4
tv553 = -128						; size = 4
tv550 = -128						; size = 4
tv547 = -128						; size = 4
tv534 = -128						; size = 4
tv531 = -128						; size = 4
tv521 = -128						; size = 4
tv518 = -128						; size = 4
tv515 = -128						; size = 4
tv473 = -128						; size = 4
tv470 = -128						; size = 4
tv467 = -128						; size = 4
tv95 = -128						; size = 4
$T533090 = -124						; size = 12
$T533053 = -112						; size = 12
$T533083 = -100						; size = 12
$T533038 = -88						; size = 12
$T533075 = -76						; size = 12
$T533045 = -64						; size = 12
$T533068 = -52						; size = 12
$T533030 = -40						; size = 12
$T533023 = -28						; size = 12
$T533060 = -16						; size = 12
__$ArrayPad$ = -4					; size = 4
_pChar$ = 8						; size = 4
_pStage$ = 12						; size = 4
_dwCurKey$ = 16						; size = 4
_bFailed$ = 20						; size = 1
?CreateKeyEffect@ioCrecendoSkill@@IAEKPAVioBaseChar@@PAVioPlayStage@@K_N@Z PROC ; ioCrecendoSkill::CreateKeyEffect, COMDAT
; _this$ = ecx

; 482  : {

  00000	55		 push	 ebp
  00001	8b ec		 mov	 ebp, esp
  00003	81 ec 80 00 00
	00		 sub	 esp, 128		; 00000080H
  00009	a1 00 00 00 00	 mov	 eax, DWORD PTR ___security_cookie
  0000e	33 c5		 xor	 eax, ebp
  00010	89 45 fc	 mov	 DWORD PTR __$ArrayPad$[ebp], eax

; 483  : 	switch( dwCurKey )

  00013	8b 45 10	 mov	 eax, DWORD PTR _dwCurKey$[ebp]
  00016	48		 dec	 eax
  00017	56		 push	 esi
  00018	8b d1		 mov	 edx, ecx
  0001a	8b 4d 0c	 mov	 ecx, DWORD PTR _pStage$[ebp]
  0001d	57		 push	 edi
  0001e	0f 84 00 03 00
	00		 je	 $LN25@CreateKeyE
  00024	48		 dec	 eax
  00025	0f 84 42 02 00
	00		 je	 $LN10@CreateKeyE
  0002b	48		 dec	 eax
  0002c	0f 84 81 01 00
	00		 je	 $LN20@CreateKeyE
  00032	48		 dec	 eax
  00033	0f 84 c0 00 00
	00		 je	 $LN15@CreateKeyE
  00039	48		 dec	 eax
  0003a	0f 85 b0 03 00
	00		 jne	 $LN21@CreateKeyE

; 561  : 				}
; 562  : 			}
; 563  : 		}
; 564  : 		break;
; 565  : 	case WKS_LAST:
; 566  : 		{
; 567  : 			if( bFailed )

  00040	38 45 14	 cmp	 BYTE PTR _bFailed$[ebp], al
  00043	74 5a		 je	 SHORT $LN4@CreateKeyE

; 568  : 			{
; 569  : 				ioMapEffect* pMapEffect = pStage->CreateMapEffect( m_szLastKeyFailedEffect, ioMath::VEC3_ZERO, D3DXVECTOR3( FLOAT1, FLOAT1, FLOAT1 ) );

  00045	b8 01 00 00 00	 mov	 eax, 1
  0004a	8b f0		 mov	 esi, eax
  0004c	b8 01 00 00 00	 mov	 eax, 1
  00051	8b f8		 mov	 edi, eax
  00053	b8 01 00 00 00	 mov	 eax, 1
  00058	89 45 80	 mov	 DWORD PTR tv649[ebp], eax
  0005b	db 45 80	 fild	 DWORD PTR tv649[ebp]
  0005e	85 c0		 test	 eax, eax
  00060	79 06		 jns	 SHORT $LN110@CreateKeyE
  00062	d8 05 00 00 00
	00		 fadd	 DWORD PTR __real@4f800000
$LN110@CreateKeyE:
  00068	89 7d 80	 mov	 DWORD PTR tv646[ebp], edi
  0006b	d9 5d 9c	 fstp	 DWORD PTR $T533083[ebp]
  0006e	db 45 80	 fild	 DWORD PTR tv646[ebp]
  00071	85 ff		 test	 edi, edi
  00073	79 06		 jns	 SHORT $LN111@CreateKeyE
  00075	d8 05 00 00 00
	00		 fadd	 DWORD PTR __real@4f800000
$LN111@CreateKeyE:
  0007b	89 75 80	 mov	 DWORD PTR tv643[ebp], esi
  0007e	d9 5d a0	 fstp	 DWORD PTR $T533083[ebp+4]
  00081	db 45 80	 fild	 DWORD PTR tv643[ebp]
  00084	85 f6		 test	 esi, esi
  00086	79 06		 jns	 SHORT $LN112@CreateKeyE
  00088	d8 05 00 00 00
	00		 fadd	 DWORD PTR __real@4f800000
$LN112@CreateKeyE:
  0008e	d9 5d a4	 fstp	 DWORD PTR $T533083[ebp+8]
  00091	8d 45 9c	 lea	 eax, DWORD PTR $T533083[ebp]
  00094	81 c2 34 12 00
	00		 add	 edx, 4660		; 00001234H

; 570  : 				if( pMapEffect )
; 571  : 				{
; 572  : 					return pMapEffect->GetUniqueID();

  0009a	e9 e0 02 00 00	 jmp	 $LN141@CreateKeyE
$LN4@CreateKeyE:

; 573  : 				}
; 574  : 			}
; 575  : 			else
; 576  : 			{
; 577  : 				ioMapEffect* pMapEffect = pStage->CreateMapEffect( m_szLastKeyEffect, ioMath::VEC3_ZERO, D3DXVECTOR3( FLOAT1, FLOAT1, FLOAT1 ) );

  0009f	b8 01 00 00 00	 mov	 eax, 1
  000a4	8b f0		 mov	 esi, eax
  000a6	b8 01 00 00 00	 mov	 eax, 1
  000ab	8b f8		 mov	 edi, eax
  000ad	b8 01 00 00 00	 mov	 eax, 1
  000b2	89 45 80	 mov	 DWORD PTR tv633[ebp], eax
  000b5	db 45 80	 fild	 DWORD PTR tv633[ebp]
  000b8	85 c0		 test	 eax, eax
  000ba	79 06		 jns	 SHORT $LN113@CreateKeyE
  000bc	d8 05 00 00 00
	00		 fadd	 DWORD PTR __real@4f800000
$LN113@CreateKeyE:
  000c2	89 7d 80	 mov	 DWORD PTR tv630[ebp], edi
  000c5	d9 5d 84	 fstp	 DWORD PTR $T533090[ebp]
  000c8	db 45 80	 fild	 DWORD PTR tv630[ebp]
  000cb	85 ff		 test	 edi, edi
  000cd	79 06		 jns	 SHORT $LN114@CreateKeyE
  000cf	d8 05 00 00 00
	00		 fadd	 DWORD PTR __real@4f800000
$LN114@CreateKeyE:
  000d5	89 75 80	 mov	 DWORD PTR tv627[ebp], esi
  000d8	d9 5d 88	 fstp	 DWORD PTR $T533090[ebp+4]
  000db	db 45 80	 fild	 DWORD PTR tv627[ebp]
  000de	85 f6		 test	 esi, esi
  000e0	79 06		 jns	 SHORT $LN115@CreateKeyE
  000e2	d8 05 00 00 00
	00		 fadd	 DWORD PTR __real@4f800000
$LN115@CreateKeyE:
  000e8	d9 5d 8c	 fstp	 DWORD PTR $T533090[ebp+8]
  000eb	8d 45 84	 lea	 eax, DWORD PTR $T533090[ebp]
  000ee	81 c2 e4 11 00
	00		 add	 edx, 4580		; 000011e4H

; 578  : 				if( pMapEffect )
; 579  : 				{
; 580  : 					return pMapEffect->GetUniqueID();

  000f4	e9 86 02 00 00	 jmp	 $LN141@CreateKeyE
$LN15@CreateKeyE:

; 521  : 				}
; 522  : 			}
; 523  : 		}
; 524  : 		break;
; 525  : 	case WKS_LEFT:
; 526  : 		{
; 527  : 			if( bFailed )

  000f9	80 7d 14 00	 cmp	 BYTE PTR _bFailed$[ebp], 0
  000fd	74 5a		 je	 SHORT $LN14@CreateKeyE

; 528  : 			{
; 529  : 				ioMapEffect* pMapEffect = pStage->CreateMapEffect( m_szLeftKeyFailedEffect, ioMath::VEC3_ZERO, D3DXVECTOR3( FLOAT1, FLOAT1, FLOAT1 ) );

  000ff	b8 01 00 00 00	 mov	 eax, 1
  00104	8b f0		 mov	 esi, eax
  00106	b8 01 00 00 00	 mov	 eax, 1
  0010b	8b f8		 mov	 edi, eax
  0010d	b8 01 00 00 00	 mov	 eax, 1
  00112	89 45 80	 mov	 DWORD PTR tv617[ebp], eax
  00115	db 45 80	 fild	 DWORD PTR tv617[ebp]
  00118	85 c0		 test	 eax, eax
  0011a	79 06		 jns	 SHORT $LN116@CreateKeyE
  0011c	d8 05 00 00 00
	00		 fadd	 DWORD PTR __real@4f800000
$LN116@CreateKeyE:
  00122	89 7d 80	 mov	 DWORD PTR tv614[ebp], edi
  00125	d9 5d 90	 fstp	 DWORD PTR $T533053[ebp]
  00128	db 45 80	 fild	 DWORD PTR tv614[ebp]
  0012b	85 ff		 test	 edi, edi
  0012d	79 06		 jns	 SHORT $LN117@CreateKeyE
  0012f	d8 05 00 00 00
	00		 fadd	 DWORD PTR __real@4f800000
$LN117@CreateKeyE:
  00135	89 75 80	 mov	 DWORD PTR tv611[ebp], esi
  00138	d9 5d 94	 fstp	 DWORD PTR $T533053[ebp+4]
  0013b	db 45 80	 fild	 DWORD PTR tv611[ebp]
  0013e	85 f6		 test	 esi, esi
  00140	79 06		 jns	 SHORT $LN118@CreateKeyE
  00142	d8 05 00 00 00
	00		 fadd	 DWORD PTR __real@4f800000
$LN118@CreateKeyE:
  00148	d9 5d 98	 fstp	 DWORD PTR $T533053[ebp+8]
  0014b	8d 45 90	 lea	 eax, DWORD PTR $T533053[ebp]
  0014e	81 c2 14 12 00
	00		 add	 edx, 4628		; 00001214H

; 530  : 				if( pMapEffect )
; 531  : 				{
; 532  : 					return pMapEffect->GetUniqueID();

  00154	e9 26 02 00 00	 jmp	 $LN141@CreateKeyE
$LN14@CreateKeyE:

; 533  : 				}
; 534  : 			}
; 535  : 			else
; 536  : 			{
; 537  : 				ioMapEffect* pMapEffect = pStage->CreateMapEffect( m_szLeftKeyEffect, ioMath::VEC3_ZERO, D3DXVECTOR3( FLOAT1, FLOAT1, FLOAT1 ) );

  00159	b8 01 00 00 00	 mov	 eax, 1
  0015e	8b f0		 mov	 esi, eax
  00160	b8 01 00 00 00	 mov	 eax, 1
  00165	8b f8		 mov	 edi, eax
  00167	b8 01 00 00 00	 mov	 eax, 1
  0016c	89 45 80	 mov	 DWORD PTR tv601[ebp], eax
  0016f	db 45 80	 fild	 DWORD PTR tv601[ebp]
  00172	85 c0		 test	 eax, eax
  00174	79 06		 jns	 SHORT $LN119@CreateKeyE
  00176	d8 05 00 00 00
	00		 fadd	 DWORD PTR __real@4f800000
$LN119@CreateKeyE:
  0017c	89 7d 80	 mov	 DWORD PTR tv598[ebp], edi
  0017f	d9 5d f0	 fstp	 DWORD PTR $T533060[ebp]
  00182	db 45 80	 fild	 DWORD PTR tv598[ebp]
  00185	85 ff		 test	 edi, edi
  00187	79 06		 jns	 SHORT $LN120@CreateKeyE
  00189	d8 05 00 00 00
	00		 fadd	 DWORD PTR __real@4f800000
$LN120@CreateKeyE:
  0018f	89 75 80	 mov	 DWORD PTR tv595[ebp], esi
  00192	d9 5d f4	 fstp	 DWORD PTR $T533060[ebp+4]
  00195	db 45 80	 fild	 DWORD PTR tv595[ebp]
  00198	85 f6		 test	 esi, esi
  0019a	79 06		 jns	 SHORT $LN121@CreateKeyE
  0019c	d8 05 00 00 00
	00		 fadd	 DWORD PTR __real@4f800000
$LN121@CreateKeyE:
  001a2	d9 5d f8	 fstp	 DWORD PTR $T533060[ebp+8]
  001a5	8d 45 f0	 lea	 eax, DWORD PTR $T533060[ebp]
  001a8	81 c2 c4 11 00
	00		 add	 edx, 4548		; 000011c4H

; 538  : 				if( pMapEffect )
; 539  : 				{
; 540  : 					return pMapEffect->GetUniqueID();

  001ae	e9 cc 01 00 00	 jmp	 $LN141@CreateKeyE
$LN20@CreateKeyE:

; 501  : 				}
; 502  : 			}
; 503  : 		}
; 504  : 		break;
; 505  : 	case WKS_DOWN:
; 506  : 		{
; 507  : 			if( bFailed )

  001b3	80 7d 14 00	 cmp	 BYTE PTR _bFailed$[ebp], 0
  001b7	74 5a		 je	 SHORT $LN19@CreateKeyE

; 508  : 			{
; 509  : 				ioMapEffect* pMapEffect = pStage->CreateMapEffect( m_szDownKeyFailedEffect, ioMath::VEC3_ZERO, D3DXVECTOR3( FLOAT1, FLOAT1, FLOAT1 ) );

  001b9	b8 01 00 00 00	 mov	 eax, 1
  001be	8b f0		 mov	 esi, eax
  001c0	b8 01 00 00 00	 mov	 eax, 1
  001c5	8b f8		 mov	 edi, eax
  001c7	b8 01 00 00 00	 mov	 eax, 1
  001cc	89 45 80	 mov	 DWORD PTR tv585[ebp], eax
  001cf	db 45 80	 fild	 DWORD PTR tv585[ebp]
  001d2	85 c0		 test	 eax, eax
  001d4	79 06		 jns	 SHORT $LN122@CreateKeyE
  001d6	d8 05 00 00 00
	00		 fadd	 DWORD PTR __real@4f800000
$LN122@CreateKeyE:
  001dc	89 7d 80	 mov	 DWORD PTR tv582[ebp], edi
  001df	d9 5d a8	 fstp	 DWORD PTR $T533038[ebp]
  001e2	db 45 80	 fild	 DWORD PTR tv582[ebp]
  001e5	85 ff		 test	 edi, edi
  001e7	79 06		 jns	 SHORT $LN123@CreateKeyE
  001e9	d8 05 00 00 00
	00		 fadd	 DWORD PTR __real@4f800000
$LN123@CreateKeyE:
  001ef	89 75 80	 mov	 DWORD PTR tv579[ebp], esi
  001f2	d9 5d ac	 fstp	 DWORD PTR $T533038[ebp+4]
  001f5	db 45 80	 fild	 DWORD PTR tv579[ebp]
  001f8	85 f6		 test	 esi, esi
  001fa	79 06		 jns	 SHORT $LN124@CreateKeyE
  001fc	d8 05 00 00 00
	00		 fadd	 DWORD PTR __real@4f800000
$LN124@CreateKeyE:
  00202	d9 5d b0	 fstp	 DWORD PTR $T533038[ebp+8]
  00205	8d 45 a8	 lea	 eax, DWORD PTR $T533038[ebp]
  00208	81 c2 04 12 00
	00		 add	 edx, 4612		; 00001204H

; 510  : 				if( pMapEffect )
; 511  : 				{
; 512  : 					return pMapEffect->GetUniqueID();

  0020e	e9 6c 01 00 00	 jmp	 $LN141@CreateKeyE
$LN19@CreateKeyE:

; 513  : 				}
; 514  : 			}
; 515  : 			else
; 516  : 			{
; 517  : 				ioMapEffect* pMapEffect = pStage->CreateMapEffect( m_szDownKeyEffect, ioMath::VEC3_ZERO, D3DXVECTOR3( FLOAT1, FLOAT1, FLOAT1 ) );

  00213	b8 01 00 00 00	 mov	 eax, 1
  00218	8b f0		 mov	 esi, eax
  0021a	b8 01 00 00 00	 mov	 eax, 1
  0021f	8b f8		 mov	 edi, eax
  00221	b8 01 00 00 00	 mov	 eax, 1
  00226	89 45 80	 mov	 DWORD PTR tv569[ebp], eax
  00229	db 45 80	 fild	 DWORD PTR tv569[ebp]
  0022c	85 c0		 test	 eax, eax
  0022e	79 06		 jns	 SHORT $LN125@CreateKeyE
  00230	d8 05 00 00 00
	00		 fadd	 DWORD PTR __real@4f800000
$LN125@CreateKeyE:
  00236	89 7d 80	 mov	 DWORD PTR tv566[ebp], edi
  00239	d9 5d c0	 fstp	 DWORD PTR $T533045[ebp]
  0023c	db 45 80	 fild	 DWORD PTR tv566[ebp]
  0023f	85 ff		 test	 edi, edi
  00241	79 06		 jns	 SHORT $LN126@CreateKeyE
  00243	d8 05 00 00 00
	00		 fadd	 DWORD PTR __real@4f800000
$LN126@CreateKeyE:
  00249	89 75 80	 mov	 DWORD PTR tv563[ebp], esi
  0024c	d9 5d c4	 fstp	 DWORD PTR $T533045[ebp+4]
  0024f	db 45 80	 fild	 DWORD PTR tv563[ebp]
  00252	85 f6		 test	 esi, esi
  00254	79 06		 jns	 SHORT $LN127@CreateKeyE
  00256	d8 05 00 00 00
	00		 fadd	 DWORD PTR __real@4f800000
$LN127@CreateKeyE:
  0025c	d9 5d c8	 fstp	 DWORD PTR $T533045[ebp+8]
  0025f	8d 45 c0	 lea	 eax, DWORD PTR $T533045[ebp]
  00262	81 c2 b4 11 00
	00		 add	 edx, 4532		; 000011b4H

; 518  : 				if( pMapEffect )
; 519  : 				{
; 520  : 					return pMapEffect->GetUniqueID();

  00268	e9 12 01 00 00	 jmp	 $LN141@CreateKeyE
$LN10@CreateKeyE:

; 541  : 				}
; 542  : 			}
; 543  : 		}
; 544  : 		break;
; 545  : 	case WKS_RIGHT:
; 546  : 		{
; 547  : 			if( bFailed )

  0026d	80 7d 14 00	 cmp	 BYTE PTR _bFailed$[ebp], 0
  00271	74 5a		 je	 SHORT $LN9@CreateKeyE

; 548  : 			{
; 549  : 				ioMapEffect* pMapEffect = pStage->CreateMapEffect( m_szRightKeyFailedEffect, ioMath::VEC3_ZERO, D3DXVECTOR3( FLOAT1, FLOAT1, FLOAT1 ) );

  00273	b8 01 00 00 00	 mov	 eax, 1
  00278	8b f0		 mov	 esi, eax
  0027a	b8 01 00 00 00	 mov	 eax, 1
  0027f	8b f8		 mov	 edi, eax
  00281	b8 01 00 00 00	 mov	 eax, 1
  00286	89 45 80	 mov	 DWORD PTR tv553[ebp], eax
  00289	db 45 80	 fild	 DWORD PTR tv553[ebp]
  0028c	85 c0		 test	 eax, eax
  0028e	79 06		 jns	 SHORT $LN128@CreateKeyE
  00290	d8 05 00 00 00
	00		 fadd	 DWORD PTR __real@4f800000
$LN128@CreateKeyE:
  00296	89 7d 80	 mov	 DWORD PTR tv550[ebp], edi
  00299	d9 5d cc	 fstp	 DWORD PTR $T533068[ebp]
  0029c	db 45 80	 fild	 DWORD PTR tv550[ebp]
  0029f	85 ff		 test	 edi, edi
  002a1	79 06		 jns	 SHORT $LN129@CreateKeyE
  002a3	d8 05 00 00 00
	00		 fadd	 DWORD PTR __real@4f800000
$LN129@CreateKeyE:
  002a9	89 75 80	 mov	 DWORD PTR tv547[ebp], esi
  002ac	d9 5d d0	 fstp	 DWORD PTR $T533068[ebp+4]
  002af	db 45 80	 fild	 DWORD PTR tv547[ebp]
  002b2	85 f6		 test	 esi, esi
  002b4	79 06		 jns	 SHORT $LN130@CreateKeyE
  002b6	d8 05 00 00 00
	00		 fadd	 DWORD PTR __real@4f800000
$LN130@CreateKeyE:
  002bc	d9 5d d4	 fstp	 DWORD PTR $T533068[ebp+8]
  002bf	8d 45 cc	 lea	 eax, DWORD PTR $T533068[ebp]
  002c2	81 c2 24 12 00
	00		 add	 edx, 4644		; 00001224H

; 550  : 				if( pMapEffect )
; 551  : 				{
; 552  : 					return pMapEffect->GetUniqueID();

  002c8	e9 b2 00 00 00	 jmp	 $LN141@CreateKeyE
$LN9@CreateKeyE:

; 553  : 				}
; 554  : 			}
; 555  : 			else
; 556  : 			{
; 557  : 				ioMapEffect* pMapEffect = pStage->CreateMapEffect( m_szRightKeyEffect, ioMath::VEC3_ZERO, D3DXVECTOR3( FLOAT1, FLOAT1, FLOAT1 ) );

  002cd	b8 01 00 00 00	 mov	 eax, 1
  002d2	8b f0		 mov	 esi, eax
  002d4	b8 01 00 00 00	 mov	 eax, 1
  002d9	8b f8		 mov	 edi, eax
  002db	b8 01 00 00 00	 mov	 eax, 1
  002e0	89 45 80	 mov	 DWORD PTR tv95[ebp], eax
  002e3	db 45 80	 fild	 DWORD PTR tv95[ebp]
  002e6	85 c0		 test	 eax, eax
  002e8	79 06		 jns	 SHORT $LN131@CreateKeyE
  002ea	d8 05 00 00 00
	00		 fadd	 DWORD PTR __real@4f800000
$LN131@CreateKeyE:
  002f0	89 7d 80	 mov	 DWORD PTR tv534[ebp], edi
  002f3	d9 5d b4	 fstp	 DWORD PTR $T533075[ebp]
  002f6	db 45 80	 fild	 DWORD PTR tv534[ebp]
  002f9	85 ff		 test	 edi, edi
  002fb	79 06		 jns	 SHORT $LN132@CreateKeyE
  002fd	d8 05 00 00 00
	00		 fadd	 DWORD PTR __real@4f800000
$LN132@CreateKeyE:
  00303	89 75 80	 mov	 DWORD PTR tv531[ebp], esi
  00306	d9 5d b8	 fstp	 DWORD PTR $T533075[ebp+4]
  00309	db 45 80	 fild	 DWORD PTR tv531[ebp]
  0030c	85 f6		 test	 esi, esi
  0030e	79 06		 jns	 SHORT $LN133@CreateKeyE
  00310	d8 05 00 00 00
	00		 fadd	 DWORD PTR __real@4f800000
$LN133@CreateKeyE:
  00316	d9 5d bc	 fstp	 DWORD PTR $T533075[ebp+8]
  00319	8d 45 b4	 lea	 eax, DWORD PTR $T533075[ebp]
  0031c	81 c2 d4 11 00
	00		 add	 edx, 4564		; 000011d4H

; 558  : 				if( pMapEffect )
; 559  : 				{
; 560  : 					return pMapEffect->GetUniqueID();

  00322	eb 5b		 jmp	 SHORT $LN141@CreateKeyE
$LN25@CreateKeyE:

; 484  : 	{
; 485  : 	case WKS_UP:
; 486  : 		{
; 487  : 			if( bFailed )

  00324	80 7d 14 00	 cmp	 BYTE PTR _bFailed$[ebp], 0
  00328	74 6f		 je	 SHORT $LN24@CreateKeyE

; 488  : 			{
; 489  : 				ioMapEffect* pMapEffect = pStage->CreateMapEffect( m_szUpKeyFailedEffect, ioMath::VEC3_ZERO, D3DXVECTOR3( FLOAT1, FLOAT1, FLOAT1 ) );

  0032a	b8 01 00 00 00	 mov	 eax, 1
  0032f	8b f0		 mov	 esi, eax
  00331	b8 01 00 00 00	 mov	 eax, 1
  00336	8b f8		 mov	 edi, eax
  00338	b8 01 00 00 00	 mov	 eax, 1
  0033d	89 45 80	 mov	 DWORD PTR tv521[ebp], eax
  00340	db 45 80	 fild	 DWORD PTR tv521[ebp]
  00343	85 c0		 test	 eax, eax
  00345	79 06		 jns	 SHORT $LN134@CreateKeyE
  00347	d8 05 00 00 00
	00		 fadd	 DWORD PTR __real@4f800000
$LN134@CreateKeyE:
  0034d	89 7d 80	 mov	 DWORD PTR tv518[ebp], edi
  00350	d9 5d e4	 fstp	 DWORD PTR $T533023[ebp]
  00353	db 45 80	 fild	 DWORD PTR tv518[ebp]
  00356	85 ff		 test	 edi, edi
  00358	79 06		 jns	 SHORT $LN135@CreateKeyE
  0035a	d8 05 00 00 00
	00		 fadd	 DWORD PTR __real@4f800000
$LN135@CreateKeyE:
  00360	89 75 80	 mov	 DWORD PTR tv515[ebp], esi
  00363	d9 5d e8	 fstp	 DWORD PTR $T533023[ebp+4]
  00366	db 45 80	 fild	 DWORD PTR tv515[ebp]
  00369	85 f6		 test	 esi, esi
  0036b	79 06		 jns	 SHORT $LN136@CreateKeyE
  0036d	d8 05 00 00 00
	00		 fadd	 DWORD PTR __real@4f800000
$LN136@CreateKeyE:
  00373	d9 5d ec	 fstp	 DWORD PTR $T533023[ebp+8]
  00376	8d 45 e4	 lea	 eax, DWORD PTR $T533023[ebp]
  00379	81 c2 f4 11 00
	00		 add	 edx, 4596		; 000011f4H
$LN141@CreateKeyE:
  0037f	50		 push	 eax
  00380	ff 35 00 00 00
	00		 push	 DWORD PTR __imp_?VEC3_ZERO@ioMath@@2UD3DXVECTOR3@@A
  00386	52		 push	 edx
  00387	e8 00 00 00 00	 call	 ?CreateMapEffect@ioPlayStage@@QAEPAVioMapEffect@@ABVioHashString@@ABUD3DXVECTOR3@@1@Z ; ioPlayStage::CreateMapEffect

; 490  : 				if( pMapEffect )

  0038c	85 c0		 test	 eax, eax
  0038e	74 60		 je	 SHORT $LN21@CreateKeyE

; 491  : 				{
; 492  : 					return pMapEffect->GetUniqueID();

  00390	8b c8		 mov	 ecx, eax
  00392	e8 00 00 00 00	 call	 ?GetUniqueID@ioMapEffect@@QBEKXZ ; ioMapEffect::GetUniqueID
  00397	eb 5a		 jmp	 SHORT $LN28@CreateKeyE
$LN24@CreateKeyE:

; 493  : 				}
; 494  : 			}
; 495  : 			else
; 496  : 			{
; 497  : 				ioMapEffect* pMapEffect = pStage->CreateMapEffect( m_szUpKeyEffect, ioMath::VEC3_ZERO, D3DXVECTOR3( FLOAT1, FLOAT1, FLOAT1 ) );

  00399	b8 01 00 00 00	 mov	 eax, 1
  0039e	8b f0		 mov	 esi, eax
  003a0	b8 01 00 00 00	 mov	 eax, 1
  003a5	8b f8		 mov	 edi, eax
  003a7	b8 01 00 00 00	 mov	 eax, 1
  003ac	89 45 80	 mov	 DWORD PTR tv473[ebp], eax
  003af	db 45 80	 fild	 DWORD PTR tv473[ebp]
  003b2	85 c0		 test	 eax, eax
  003b4	79 06		 jns	 SHORT $LN137@CreateKeyE
  003b6	d8 05 00 00 00
	00		 fadd	 DWORD PTR __real@4f800000
$LN137@CreateKeyE:
  003bc	89 7d 80	 mov	 DWORD PTR tv470[ebp], edi
  003bf	d9 5d d8	 fstp	 DWORD PTR $T533030[ebp]
  003c2	db 45 80	 fild	 DWORD PTR tv470[ebp]
  003c5	85 ff		 test	 edi, edi
  003c7	79 06		 jns	 SHORT $LN138@CreateKeyE
  003c9	d8 05 00 00 00
	00		 fadd	 DWORD PTR __real@4f800000
$LN138@CreateKeyE:
  003cf	89 75 80	 mov	 DWORD PTR tv467[ebp], esi
  003d2	d9 5d dc	 fstp	 DWORD PTR $T533030[ebp+4]
  003d5	db 45 80	 fild	 DWORD PTR tv467[ebp]
  003d8	85 f6		 test	 esi, esi
  003da	79 06		 jns	 SHORT $LN139@CreateKeyE
  003dc	d8 05 00 00 00
	00		 fadd	 DWORD PTR __real@4f800000
$LN139@CreateKeyE:
  003e2	d9 5d e0	 fstp	 DWORD PTR $T533030[ebp+8]
  003e5	8d 45 d8	 lea	 eax, DWORD PTR $T533030[ebp]
  003e8	81 c2 a4 11 00
	00		 add	 edx, 4516		; 000011a4H

; 498  : 				if( pMapEffect )
; 499  : 				{
; 500  : 					return pMapEffect->GetUniqueID();

  003ee	eb 8f		 jmp	 SHORT $LN141@CreateKeyE
$LN21@CreateKeyE:

; 581  : 				}
; 582  : 			}
; 583  : 		}
; 584  : 		break;
; 585  : 	}
; 586  : 
; 587  : 	return -1;

  003f0	83 c8 ff	 or	 eax, -1
$LN28@CreateKeyE:

; 588  : }

  003f3	8b 4d fc	 mov	 ecx, DWORD PTR __$ArrayPad$[ebp]
  003f6	5f		 pop	 edi
  003f7	33 cd		 xor	 ecx, ebp
  003f9	5e		 pop	 esi
  003fa	e8 00 00 00 00	 call	 @__security_check_cookie@4
  003ff	c9		 leave
  00400	c2 10 00	 ret	 16			; 00000010H
?CreateKeyEffect@ioCrecendoSkill@@IAEKPAVioBaseChar@@PAVioPlayStage@@K_N@Z ENDP ; ioCrecendoSkill::CreateKeyEffect
_TEXT	ENDS
PUBLIC	?begin@?$vector@UWeaponInfo@@V?$allocator@UWeaponInfo@@@std@@@std@@QBE?AV?$_Vector_const_iterator@V?$_Vector_val@UWeaponInfo@@V?$allocator@UWeaponInfo@@@std@@@std@@@2@XZ ; std::vector<WeaponInfo,std::allocator<WeaponInfo> >::begin
; Function compile flags: /Ogsp
; File c:\program files (x86)\microsoft visual studio 10.0\vc\include\vector
;	COMDAT ?begin@?$vector@UWeaponInfo@@V?$allocator@UWeaponInfo@@@std@@@std@@QBE?AV?$_Vector_const_iterator@V?$_Vector_val@UWeaponInfo@@V?$allocator@UWeaponInfo@@@std@@@std@@@2@XZ
_TEXT	SEGMENT
___$ReturnUdt$ = 8					; size = 4
?begin@?$vector@UWeaponInfo@@V?$allocator@UWeaponInfo@@@std@@@std@@QBE?AV?$_Vector_const_iterator@V?$_Vector_val@UWeaponInfo@@V?$allocator@UWeaponInfo@@@std@@@std@@@2@XZ PROC ; std::vector<WeaponInfo,std::allocator<WeaponInfo> >::begin, COMDAT
; _this$ = ecx

; 786  : 		{	// return iterator for beginning of nonmutable sequence

  00000	55		 push	 ebp
  00001	8b ec		 mov	 ebp, esp

; 787  : 		return (const_iterator(this->_Myfirst, this));

  00003	8b 09		 mov	 ecx, DWORD PTR [ecx]
  00005	8b 45 08	 mov	 eax, DWORD PTR ___$ReturnUdt$[ebp]
  00008	89 08		 mov	 DWORD PTR [eax], ecx

; 788  : 		}

  0000a	5d		 pop	 ebp
  0000b	c2 04 00	 ret	 4
?begin@?$vector@UWeaponInfo@@V?$allocator@UWeaponInfo@@@std@@@std@@QBE?AV?$_Vector_const_iterator@V?$_Vector_val@UWeaponInfo@@V?$allocator@UWeaponInfo@@@std@@@std@@@2@XZ ENDP ; std::vector<WeaponInfo,std::allocator<WeaponInfo> >::begin
_TEXT	ENDS
PUBLIC	?end@?$vector@UWeaponInfo@@V?$allocator@UWeaponInfo@@@std@@@std@@QBE?AV?$_Vector_const_iterator@V?$_Vector_val@UWeaponInfo@@V?$allocator@UWeaponInfo@@@std@@@std@@@2@XZ ; std::vector<WeaponInfo,std::allocator<WeaponInfo> >::end
; Function compile flags: /Ogsp
;	COMDAT ?end@?$vector@UWeaponInfo@@V?$allocator@UWeaponInfo@@@std@@@std@@QBE?AV?$_Vector_const_iterator@V?$_Vector_val@UWeaponInfo@@V?$allocator@UWeaponInfo@@@std@@@std@@@2@XZ
_TEXT	SEGMENT
___$ReturnUdt$ = 8					; size = 4
?end@?$vector@UWeaponInfo@@V?$allocator@UWeaponInfo@@@std@@@std@@QBE?AV?$_Vector_const_iterator@V?$_Vector_val@UWeaponInfo@@V?$allocator@UWeaponInfo@@@std@@@std@@@2@XZ PROC ; std::vector<WeaponInfo,std::allocator<WeaponInfo> >::end, COMDAT
; _this$ = ecx

; 796  : 		{	// return iterator for end of nonmutable sequence

  00000	55		 push	 ebp
  00001	8b ec		 mov	 ebp, esp

; 797  : 		return (const_iterator(this->_Mylast, this));

  00003	8b 49 04	 mov	 ecx, DWORD PTR [ecx+4]
  00006	8b 45 08	 mov	 eax, DWORD PTR ___$ReturnUdt$[ebp]
  00009	89 08		 mov	 DWORD PTR [eax], ecx

; 798  : 		}

  0000b	5d		 pop	 ebp
  0000c	c2 04 00	 ret	 4
?end@?$vector@UWeaponInfo@@V?$allocator@UWeaponInfo@@@std@@@std@@QBE?AV?$_Vector_const_iterator@V?$_Vector_val@UWeaponInfo@@V?$allocator@UWeaponInfo@@@std@@@std@@@2@XZ ENDP ; std::vector<WeaponInfo,std::allocator<WeaponInfo> >::end
_TEXT	ENDS
PUBLIC	?begin@?$vector@PAVioBaseChar@@V?$allocator@PAVioBaseChar@@@std@@@std@@QBE?AV?$_Vector_const_iterator@V?$_Vector_val@PAVioBaseChar@@V?$allocator@PAVioBaseChar@@@std@@@std@@@2@XZ ; std::vector<ioBaseChar *,std::allocator<ioBaseChar *> >::begin
; Function compile flags: /Ogsp
;	COMDAT ?begin@?$vector@PAVioBaseChar@@V?$allocator@PAVioBaseChar@@@std@@@std@@QBE?AV?$_Vector_const_iterator@V?$_Vector_val@PAVioBaseChar@@V?$allocator@PAVioBaseChar@@@std@@@std@@@2@XZ
_TEXT	SEGMENT
___$ReturnUdt$ = 8					; size = 4
?begin@?$vector@PAVioBaseChar@@V?$allocator@PAVioBaseChar@@@std@@@std@@QBE?AV?$_Vector_const_iterator@V?$_Vector_val@PAVioBaseChar@@V?$allocator@PAVioBaseChar@@@std@@@std@@@2@XZ PROC ; std::vector<ioBaseChar *,std::allocator<ioBaseChar *> >::begin, COMDAT
; _this$ = ecx

; 786  : 		{	// return iterator for beginning of nonmutable sequence

  00000	55		 push	 ebp
  00001	8b ec		 mov	 ebp, esp

; 787  : 		return (const_iterator(this->_Myfirst, this));

  00003	8b 09		 mov	 ecx, DWORD PTR [ecx]
  00005	8b 45 08	 mov	 eax, DWORD PTR ___$ReturnUdt$[ebp]
  00008	89 08		 mov	 DWORD PTR [eax], ecx

; 788  : 		}

  0000a	5d		 pop	 ebp
  0000b	c2 04 00	 ret	 4
?begin@?$vector@PAVioBaseChar@@V?$allocator@PAVioBaseChar@@@std@@@std@@QBE?AV?$_Vector_const_iterator@V?$_Vector_val@PAVioBaseChar@@V?$allocator@PAVioBaseChar@@@std@@@std@@@2@XZ ENDP ; std::vector<ioBaseChar *,std::allocator<ioBaseChar *> >::begin
_TEXT	ENDS
PUBLIC	?end@?$vector@PAVioBaseChar@@V?$allocator@PAVioBaseChar@@@std@@@std@@QBE?AV?$_Vector_const_iterator@V?$_Vector_val@PAVioBaseChar@@V?$allocator@PAVioBaseChar@@@std@@@std@@@2@XZ ; std::vector<ioBaseChar *,std::allocator<ioBaseChar *> >::end
; Function compile flags: /Ogsp
;	COMDAT ?end@?$vector@PAVioBaseChar@@V?$allocator@PAVioBaseChar@@@std@@@std@@QBE?AV?$_Vector_const_iterator@V?$_Vector_val@PAVioBaseChar@@V?$allocator@PAVioBaseChar@@@std@@@std@@@2@XZ
_TEXT	SEGMENT
___$ReturnUdt$ = 8					; size = 4
?end@?$vector@PAVioBaseChar@@V?$allocator@PAVioBaseChar@@@std@@@std@@QBE?AV?$_Vector_const_iterator@V?$_Vector_val@PAVioBaseChar@@V?$allocator@PAVioBaseChar@@@std@@@std@@@2@XZ PROC ; std::vector<ioBaseChar *,std::allocator<ioBaseChar *> >::end, COMDAT
; _this$ = ecx

; 796  : 		{	// return iterator for end of nonmutable sequence

  00000	55		 push	 ebp
  00001	8b ec		 mov	 ebp, esp

; 797  : 		return (const_iterator(this->_Mylast, this));

  00003	8b 49 04	 mov	 ecx, DWORD PTR [ecx+4]
  00006	8b 45 08	 mov	 eax, DWORD PTR ___$ReturnUdt$[ebp]
  00009	89 08		 mov	 DWORD PTR [eax], ecx

; 798  : 		}

  0000b	5d		 pop	 ebp
  0000c	c2 04 00	 ret	 4
?end@?$vector@PAVioBaseChar@@V?$allocator@PAVioBaseChar@@@std@@@std@@QBE?AV?$_Vector_const_iterator@V?$_Vector_val@PAVioBaseChar@@V?$allocator@PAVioBaseChar@@@std@@@std@@@2@XZ ENDP ; std::vector<ioBaseChar *,std::allocator<ioBaseChar *> >::end
_TEXT	ENDS
PUBLIC	??D?$_Vector_iterator@V?$_Vector_val@UWaveKey@ioCrecendoSkill@@V?$allocator@UWaveKey@ioCrecendoSkill@@@std@@@std@@@std@@QBEAAUWaveKey@ioCrecendoSkill@@XZ ; std::_Vector_iterator<std::_Vector_val<ioCrecendoSkill::WaveKey,std::allocator<ioCrecendoSkill::WaveKey> > >::operator*
; Function compile flags: /Ogsp
;	COMDAT ??D?$_Vector_iterator@V?$_Vector_val@UWaveKey@ioCrecendoSkill@@V?$allocator@UWaveKey@ioCrecendoSkill@@@std@@@std@@@std@@QBEAAUWaveKey@ioCrecendoSkill@@XZ
_TEXT	SEGMENT
??D?$_Vector_iterator@V?$_Vector_val@UWaveKey@ioCrecendoSkill@@V?$allocator@UWaveKey@ioCrecendoSkill@@@std@@@std@@@std@@QBEAAUWaveKey@ioCrecendoSkill@@XZ PROC ; std::_Vector_iterator<std::_Vector_val<ioCrecendoSkill::WaveKey,std::allocator<ioCrecendoSkill::WaveKey> > >::operator*, COMDAT
; _this$ = ecx

; 322  : 		return ((reference)**(_Mybase *)this);

  00000	8b 01		 mov	 eax, DWORD PTR [ecx]

; 323  : 		}

  00002	c3		 ret	 0
??D?$_Vector_iterator@V?$_Vector_val@UWaveKey@ioCrecendoSkill@@V?$allocator@UWaveKey@ioCrecendoSkill@@@std@@@std@@@std@@QBEAAUWaveKey@ioCrecendoSkill@@XZ ENDP ; std::_Vector_iterator<std::_Vector_val<ioCrecendoSkill::WaveKey,std::allocator<ioCrecendoSkill::WaveKey> > >::operator*
_TEXT	ENDS
PUBLIC	??E?$_Vector_iterator@V?$_Vector_val@UWaveKey@ioCrecendoSkill@@V?$allocator@UWaveKey@ioCrecendoSkill@@@std@@@std@@@std@@QAEAAV01@XZ ; std::_Vector_iterator<std::_Vector_val<ioCrecendoSkill::WaveKey,std::allocator<ioCrecendoSkill::WaveKey> > >::operator++
; Function compile flags: /Ogsp
;	COMDAT ??E?$_Vector_iterator@V?$_Vector_val@UWaveKey@ioCrecendoSkill@@V?$allocator@UWaveKey@ioCrecendoSkill@@@std@@@std@@@std@@QAEAAV01@XZ
_TEXT	SEGMENT
??E?$_Vector_iterator@V?$_Vector_val@UWaveKey@ioCrecendoSkill@@V?$allocator@UWaveKey@ioCrecendoSkill@@@std@@@std@@@std@@QAEAAV01@XZ PROC ; std::_Vector_iterator<std::_Vector_val<ioCrecendoSkill::WaveKey,std::allocator<ioCrecendoSkill::WaveKey> > >::operator++, COMDAT
; _this$ = ecx

; 331  : 		{	// preincrement

  00000	8b c1		 mov	 eax, ecx

; 332  : 		++*(_Mybase *)this;

  00002	83 00 6c	 add	 DWORD PTR [eax], 108	; 0000006cH

; 333  : 		return (*this);
; 334  : 		}

  00005	c3		 ret	 0
??E?$_Vector_iterator@V?$_Vector_val@UWaveKey@ioCrecendoSkill@@V?$allocator@UWaveKey@ioCrecendoSkill@@@std@@@std@@@std@@QAEAAV01@XZ ENDP ; std::_Vector_iterator<std::_Vector_val<ioCrecendoSkill::WaveKey,std::allocator<ioCrecendoSkill::WaveKey> > >::operator++
_TEXT	ENDS
PUBLIC	?begin@?$vector@UForceInfo@@V?$allocator@UForceInfo@@@std@@@std@@QBE?AV?$_Vector_const_iterator@V?$_Vector_val@UForceInfo@@V?$allocator@UForceInfo@@@std@@@std@@@2@XZ ; std::vector<ForceInfo,std::allocator<ForceInfo> >::begin
; Function compile flags: /Ogsp
;	COMDAT ?begin@?$vector@UForceInfo@@V?$allocator@UForceInfo@@@std@@@std@@QBE?AV?$_Vector_const_iterator@V?$_Vector_val@UForceInfo@@V?$allocator@UForceInfo@@@std@@@std@@@2@XZ
_TEXT	SEGMENT
___$ReturnUdt$ = 8					; size = 4
?begin@?$vector@UForceInfo@@V?$allocator@UForceInfo@@@std@@@std@@QBE?AV?$_Vector_const_iterator@V?$_Vector_val@UForceInfo@@V?$allocator@UForceInfo@@@std@@@std@@@2@XZ PROC ; std::vector<ForceInfo,std::allocator<ForceInfo> >::begin, COMDAT
; _this$ = ecx

; 786  : 		{	// return iterator for beginning of nonmutable sequence

  00000	55		 push	 ebp
  00001	8b ec		 mov	 ebp, esp

; 787  : 		return (const_iterator(this->_Myfirst, this));

  00003	8b 09		 mov	 ecx, DWORD PTR [ecx]
  00005	8b 45 08	 mov	 eax, DWORD PTR ___$ReturnUdt$[ebp]
  00008	89 08		 mov	 DWORD PTR [eax], ecx

; 788  : 		}

  0000a	5d		 pop	 ebp
  0000b	c2 04 00	 ret	 4
?begin@?$vector@UForceInfo@@V?$allocator@UForceInfo@@@std@@@std@@QBE?AV?$_Vector_const_iterator@V?$_Vector_val@UForceInfo@@V?$allocator@UForceInfo@@@std@@@std@@@2@XZ ENDP ; std::vector<ForceInfo,std::allocator<ForceInfo> >::begin
_TEXT	ENDS
PUBLIC	?end@?$vector@UForceInfo@@V?$allocator@UForceInfo@@@std@@@std@@QBE?AV?$_Vector_const_iterator@V?$_Vector_val@UForceInfo@@V?$allocator@UForceInfo@@@std@@@std@@@2@XZ ; std::vector<ForceInfo,std::allocator<ForceInfo> >::end
; Function compile flags: /Ogsp
;	COMDAT ?end@?$vector@UForceInfo@@V?$allocator@UForceInfo@@@std@@@std@@QBE?AV?$_Vector_const_iterator@V?$_Vector_val@UForceInfo@@V?$allocator@UForceInfo@@@std@@@std@@@2@XZ
_TEXT	SEGMENT
___$ReturnUdt$ = 8					; size = 4
?end@?$vector@UForceInfo@@V?$allocator@UForceInfo@@@std@@@std@@QBE?AV?$_Vector_const_iterator@V?$_Vector_val@UForceInfo@@V?$allocator@UForceInfo@@@std@@@std@@@2@XZ PROC ; std::vector<ForceInfo,std::allocator<ForceInfo> >::end, COMDAT
; _this$ = ecx

; 796  : 		{	// return iterator for end of nonmutable sequence

  00000	55		 push	 ebp
  00001	8b ec		 mov	 ebp, esp

; 797  : 		return (const_iterator(this->_Mylast, this));

  00003	8b 49 04	 mov	 ecx, DWORD PTR [ecx+4]
  00006	8b 45 08	 mov	 eax, DWORD PTR ___$ReturnUdt$[ebp]
  00009	89 08		 mov	 DWORD PTR [eax], ecx

; 798  : 		}

  0000b	5d		 pop	 ebp
  0000c	c2 04 00	 ret	 4
?end@?$vector@UForceInfo@@V?$allocator@UForceInfo@@@std@@@std@@QBE?AV?$_Vector_const_iterator@V?$_Vector_val@UForceInfo@@V?$allocator@UForceInfo@@@std@@@std@@@2@XZ ENDP ; std::vector<ForceInfo,std::allocator<ForceInfo> >::end
_TEXT	ENDS
PUBLIC	?begin@?$vector@UWaveKey@ioCrecendoSkill@@V?$allocator@UWaveKey@ioCrecendoSkill@@@std@@@std@@QBE?AV?$_Vector_const_iterator@V?$_Vector_val@UWaveKey@ioCrecendoSkill@@V?$allocator@UWaveKey@ioCrecendoSkill@@@std@@@std@@@2@XZ ; std::vector<ioCrecendoSkill::WaveKey,std::allocator<ioCrecendoSkill::WaveKey> >::begin
; Function compile flags: /Ogsp
;	COMDAT ?begin@?$vector@UWaveKey@ioCrecendoSkill@@V?$allocator@UWaveKey@ioCrecendoSkill@@@std@@@std@@QBE?AV?$_Vector_const_iterator@V?$_Vector_val@UWaveKey@ioCrecendoSkill@@V?$allocator@UWaveKey@ioCrecendoSkill@@@std@@@std@@@2@XZ
_TEXT	SEGMENT
___$ReturnUdt$ = 8					; size = 4
?begin@?$vector@UWaveKey@ioCrecendoSkill@@V?$allocator@UWaveKey@ioCrecendoSkill@@@std@@@std@@QBE?AV?$_Vector_const_iterator@V?$_Vector_val@UWaveKey@ioCrecendoSkill@@V?$allocator@UWaveKey@ioCrecendoSkill@@@std@@@std@@@2@XZ PROC ; std::vector<ioCrecendoSkill::WaveKey,std::allocator<ioCrecendoSkill::WaveKey> >::begin, COMDAT
; _this$ = ecx

; 786  : 		{	// return iterator for beginning of nonmutable sequence

  00000	55		 push	 ebp
  00001	8b ec		 mov	 ebp, esp

; 787  : 		return (const_iterator(this->_Myfirst, this));

  00003	8b 09		 mov	 ecx, DWORD PTR [ecx]
  00005	8b 45 08	 mov	 eax, DWORD PTR ___$ReturnUdt$[ebp]
  00008	89 08		 mov	 DWORD PTR [eax], ecx

; 788  : 		}

  0000a	5d		 pop	 ebp
  0000b	c2 04 00	 ret	 4
?begin@?$vector@UWaveKey@ioCrecendoSkill@@V?$allocator@UWaveKey@ioCrecendoSkill@@@std@@@std@@QBE?AV?$_Vector_const_iterator@V?$_Vector_val@UWaveKey@ioCrecendoSkill@@V?$allocator@UWaveKey@ioCrecendoSkill@@@std@@@std@@@2@XZ ENDP ; std::vector<ioCrecendoSkill::WaveKey,std::allocator<ioCrecendoSkill::WaveKey> >::begin
_TEXT	ENDS
PUBLIC	?end@?$vector@UWaveKey@ioCrecendoSkill@@V?$allocator@UWaveKey@ioCrecendoSkill@@@std@@@std@@QBE?AV?$_Vector_const_iterator@V?$_Vector_val@UWaveKey@ioCrecendoSkill@@V?$allocator@UWaveKey@ioCrecendoSkill@@@std@@@std@@@2@XZ ; std::vector<ioCrecendoSkill::WaveKey,std::allocator<ioCrecendoSkill::WaveKey> >::end
; Function compile flags: /Ogsp
;	COMDAT ?end@?$vector@UWaveKey@ioCrecendoSkill@@V?$allocator@UWaveKey@ioCrecendoSkill@@@std@@@std@@QBE?AV?$_Vector_const_iterator@V?$_Vector_val@UWaveKey@ioCrecendoSkill@@V?$allocator@UWaveKey@ioCrecendoSkill@@@std@@@std@@@2@XZ
_TEXT	SEGMENT
___$ReturnUdt$ = 8					; size = 4
?end@?$vector@UWaveKey@ioCrecendoSkill@@V?$allocator@UWaveKey@ioCrecendoSkill@@@std@@@std@@QBE?AV?$_Vector_const_iterator@V?$_Vector_val@UWaveKey@ioCrecendoSkill@@V?$allocator@UWaveKey@ioCrecendoSkill@@@std@@@std@@@2@XZ PROC ; std::vector<ioCrecendoSkill::WaveKey,std::allocator<ioCrecendoSkill::WaveKey> >::end, COMDAT
; _this$ = ecx

; 796  : 		{	// return iterator for end of nonmutable sequence

  00000	55		 push	 ebp
  00001	8b ec		 mov	 ebp, esp

; 797  : 		return (const_iterator(this->_Mylast, this));

  00003	8b 49 04	 mov	 ecx, DWORD PTR [ecx+4]
  00006	8b 45 08	 mov	 eax, DWORD PTR ___$ReturnUdt$[ebp]
  00009	89 08		 mov	 DWORD PTR [eax], ecx

; 798  : 		}

  0000b	5d		 pop	 ebp
  0000c	c2 04 00	 ret	 4
?end@?$vector@UWaveKey@ioCrecendoSkill@@V?$allocator@UWaveKey@ioCrecendoSkill@@@std@@@std@@QBE?AV?$_Vector_const_iterator@V?$_Vector_val@UWaveKey@ioCrecendoSkill@@V?$allocator@UWaveKey@ioCrecendoSkill@@@std@@@std@@@2@XZ ENDP ; std::vector<ioCrecendoSkill::WaveKey,std::allocator<ioCrecendoSkill::WaveKey> >::end
_TEXT	ENDS
PUBLIC	?max_size@?$vector@UWaveKey@ioCrecendoSkill@@V?$allocator@UWaveKey@ioCrecendoSkill@@@std@@@std@@QBEIXZ ; std::vector<ioCrecendoSkill::WaveKey,std::allocator<ioCrecendoSkill::WaveKey> >::max_size
; Function compile flags: /Ogsp
;	COMDAT ?max_size@?$vector@UWaveKey@ioCrecendoSkill@@V?$allocator@UWaveKey@ioCrecendoSkill@@@std@@@std@@QBEIXZ
_TEXT	SEGMENT
?max_size@?$vector@UWaveKey@ioCrecendoSkill@@V?$allocator@UWaveKey@ioCrecendoSkill@@@std@@@std@@QBEIXZ PROC ; std::vector<ioCrecendoSkill::WaveKey,std::allocator<ioCrecendoSkill::WaveKey> >::max_size, COMDAT
; _this$ = ecx

; 884  : 		return (this->_Alval.max_size());

  00000	b8 97 d0 5e 02	 mov	 eax, 39768215		; 025ed097H

; 885  : 		}

  00005	c3		 ret	 0
?max_size@?$vector@UWaveKey@ioCrecendoSkill@@V?$allocator@UWaveKey@ioCrecendoSkill@@@std@@@std@@QBEIXZ ENDP ; std::vector<ioCrecendoSkill::WaveKey,std::allocator<ioCrecendoSkill::WaveKey> >::max_size
_TEXT	ENDS
PUBLIC	??0?$_Vector_val@UWaveKey@ioCrecendoSkill@@V?$allocator@UWaveKey@ioCrecendoSkill@@@std@@@std@@QAE@V?$allocator@UWaveKey@ioCrecendoSkill@@@1@@Z ; std::_Vector_val<ioCrecendoSkill::WaveKey,std::allocator<ioCrecendoSkill::WaveKey> >::_Vector_val<ioCrecendoSkill::WaveKey,std::allocator<ioCrecendoSkill::WaveKey> >
; Function compile flags: /Ogsp
;	COMDAT ??0?$_Vector_val@UWaveKey@ioCrecendoSkill@@V?$allocator@UWaveKey@ioCrecendoSkill@@@std@@@std@@QAE@V?$allocator@UWaveKey@ioCrecendoSkill@@@1@@Z
_TEXT	SEGMENT
__Al$ = 8						; size = 1
??0?$_Vector_val@UWaveKey@ioCrecendoSkill@@V?$allocator@UWaveKey@ioCrecendoSkill@@@std@@@std@@QAE@V?$allocator@UWaveKey@ioCrecendoSkill@@@1@@Z PROC ; std::_Vector_val<ioCrecendoSkill::WaveKey,std::allocator<ioCrecendoSkill::WaveKey> >::_Vector_val<ioCrecendoSkill::WaveKey,std::allocator<ioCrecendoSkill::WaveKey> >, COMDAT
; _this$ = ecx

; 426  : 		{	// construct allocator from _Al

  00000	8b c1		 mov	 eax, ecx

; 427  : 		_Myfirst = 0;

  00002	33 c9		 xor	 ecx, ecx
  00004	89 08		 mov	 DWORD PTR [eax], ecx

; 428  : 		_Mylast = 0;

  00006	89 48 04	 mov	 DWORD PTR [eax+4], ecx

; 429  : 		_Myend = 0;

  00009	89 48 08	 mov	 DWORD PTR [eax+8], ecx

; 430  : 		}

  0000c	c2 04 00	 ret	 4
??0?$_Vector_val@UWaveKey@ioCrecendoSkill@@V?$allocator@UWaveKey@ioCrecendoSkill@@@std@@@std@@QAE@V?$allocator@UWaveKey@ioCrecendoSkill@@@1@@Z ENDP ; std::_Vector_val<ioCrecendoSkill::WaveKey,std::allocator<ioCrecendoSkill::WaveKey> >::_Vector_val<ioCrecendoSkill::WaveKey,std::allocator<ioCrecendoSkill::WaveKey> >
_TEXT	ENDS
PUBLIC	?allocate@?$allocator@UWaveKey@ioCrecendoSkill@@@std@@QAEPAUWaveKey@ioCrecendoSkill@@I@Z ; std::allocator<ioCrecendoSkill::WaveKey>::allocate
; Function compile flags: /Ogsp
; File c:\program files (x86)\microsoft visual studio 10.0\vc\include\xmemory
;	COMDAT ?allocate@?$allocator@UWaveKey@ioCrecendoSkill@@@std@@QAEPAUWaveKey@ioCrecendoSkill@@I@Z
_TEXT	SEGMENT
__Count$ = 8						; size = 4
?allocate@?$allocator@UWaveKey@ioCrecendoSkill@@@std@@QAEPAUWaveKey@ioCrecendoSkill@@I@Z PROC ; std::allocator<ioCrecendoSkill::WaveKey>::allocate, COMDAT
; _this$ = ecx

; 186  : 		{	// allocate array of _Count elements

  00000	55		 push	 ebp
  00001	8b ec		 mov	 ebp, esp

; 187  : 		return (_Allocate(_Count, (pointer)0));

  00003	6a 00		 push	 0
  00005	ff 75 08	 push	 DWORD PTR __Count$[ebp]
  00008	e8 00 00 00 00	 call	 ??$_Allocate@UWaveKey@ioCrecendoSkill@@@std@@YAPAUWaveKey@ioCrecendoSkill@@IPAU12@@Z ; std::_Allocate<ioCrecendoSkill::WaveKey>
  0000d	59		 pop	 ecx
  0000e	59		 pop	 ecx

; 188  : 		}

  0000f	5d		 pop	 ebp
  00010	c2 04 00	 ret	 4
?allocate@?$allocator@UWaveKey@ioCrecendoSkill@@@std@@QAEPAUWaveKey@ioCrecendoSkill@@I@Z ENDP ; std::allocator<ioCrecendoSkill::WaveKey>::allocate
_TEXT	ENDS
PUBLIC	??0?$_Vector_val@UKeyMapEffect@ioCrecendoSkill@@V?$allocator@UKeyMapEffect@ioCrecendoSkill@@@std@@@std@@QAE@V?$allocator@UKeyMapEffect@ioCrecendoSkill@@@1@@Z ; std::_Vector_val<ioCrecendoSkill::KeyMapEffect,std::allocator<ioCrecendoSkill::KeyMapEffect> >::_Vector_val<ioCrecendoSkill::KeyMapEffect,std::allocator<ioCrecendoSkill::KeyMapEffect> >
; Function compile flags: /Ogsp
; File c:\program files (x86)\microsoft visual studio 10.0\vc\include\vector
;	COMDAT ??0?$_Vector_val@UKeyMapEffect@ioCrecendoSkill@@V?$allocator@UKeyMapEffect@ioCrecendoSkill@@@std@@@std@@QAE@V?$allocator@UKeyMapEffect@ioCrecendoSkill@@@1@@Z
_TEXT	SEGMENT
__Al$ = 8						; size = 1
??0?$_Vector_val@UKeyMapEffect@ioCrecendoSkill@@V?$allocator@UKeyMapEffect@ioCrecendoSkill@@@std@@@std@@QAE@V?$allocator@UKeyMapEffect@ioCrecendoSkill@@@1@@Z PROC ; std::_Vector_val<ioCrecendoSkill::KeyMapEffect,std::allocator<ioCrecendoSkill::KeyMapEffect> >::_Vector_val<ioCrecendoSkill::KeyMapEffect,std::allocator<ioCrecendoSkill::KeyMapEffect> >, COMDAT
; _this$ = ecx

; 426  : 		{	// construct allocator from _Al

  00000	8b c1		 mov	 eax, ecx

; 427  : 		_Myfirst = 0;

  00002	33 c9		 xor	 ecx, ecx
  00004	89 08		 mov	 DWORD PTR [eax], ecx

; 428  : 		_Mylast = 0;

  00006	89 48 04	 mov	 DWORD PTR [eax+4], ecx

; 429  : 		_Myend = 0;

  00009	89 48 08	 mov	 DWORD PTR [eax+8], ecx

; 430  : 		}

  0000c	c2 04 00	 ret	 4
??0?$_Vector_val@UKeyMapEffect@ioCrecendoSkill@@V?$allocator@UKeyMapEffect@ioCrecendoSkill@@@std@@@std@@QAE@V?$allocator@UKeyMapEffect@ioCrecendoSkill@@@1@@Z ENDP ; std::_Vector_val<ioCrecendoSkill::KeyMapEffect,std::allocator<ioCrecendoSkill::KeyMapEffect> >::_Vector_val<ioCrecendoSkill::KeyMapEffect,std::allocator<ioCrecendoSkill::KeyMapEffect> >
_TEXT	ENDS
PUBLIC	??8?$_Vector_const_iterator@V?$_Vector_val@UKeyMapEffect@ioCrecendoSkill@@V?$allocator@UKeyMapEffect@ioCrecendoSkill@@@std@@@std@@@std@@QBE_NABV01@@Z ; std::_Vector_const_iterator<std::_Vector_val<ioCrecendoSkill::KeyMapEffect,std::allocator<ioCrecendoSkill::KeyMapEffect> > >::operator==
; Function compile flags: /Ogsp
;	COMDAT ??8?$_Vector_const_iterator@V?$_Vector_val@UKeyMapEffect@ioCrecendoSkill@@V?$allocator@UKeyMapEffect@ioCrecendoSkill@@@std@@@std@@@std@@QBE_NABV01@@Z
_TEXT	SEGMENT
__Right$ = 8						; size = 4
??8?$_Vector_const_iterator@V?$_Vector_val@UKeyMapEffect@ioCrecendoSkill@@V?$allocator@UKeyMapEffect@ioCrecendoSkill@@@std@@@std@@@std@@QBE_NABV01@@Z PROC ; std::_Vector_const_iterator<std::_Vector_val<ioCrecendoSkill::KeyMapEffect,std::allocator<ioCrecendoSkill::KeyMapEffect> > >::operator==, COMDAT
; _this$ = ecx

; 201  : 		{	// test for iterator equality

  00000	55		 push	 ebp
  00001	8b ec		 mov	 ebp, esp

; 202  : 		_Compat(_Right);
; 203  : 		return (this->_Ptr == _Right._Ptr);

  00003	8b 01		 mov	 eax, DWORD PTR [ecx]
  00005	8b 4d 08	 mov	 ecx, DWORD PTR __Right$[ebp]
  00008	2b 01		 sub	 eax, DWORD PTR [ecx]
  0000a	f7 d8		 neg	 eax
  0000c	1b c0		 sbb	 eax, eax
  0000e	40		 inc	 eax

; 204  : 		}

  0000f	5d		 pop	 ebp
  00010	c2 04 00	 ret	 4
??8?$_Vector_const_iterator@V?$_Vector_val@UKeyMapEffect@ioCrecendoSkill@@V?$allocator@UKeyMapEffect@ioCrecendoSkill@@@std@@@std@@@std@@QBE_NABV01@@Z ENDP ; std::_Vector_const_iterator<std::_Vector_val<ioCrecendoSkill::KeyMapEffect,std::allocator<ioCrecendoSkill::KeyMapEffect> > >::operator==
_TEXT	ENDS
PUBLIC	??0?$_Vector_iterator@V?$_Vector_val@UKeyMapEffect@ioCrecendoSkill@@V?$allocator@UKeyMapEffect@ioCrecendoSkill@@@std@@@std@@@std@@QAE@PAUKeyMapEffect@ioCrecendoSkill@@PBU_Container_base0@1@@Z ; std::_Vector_iterator<std::_Vector_val<ioCrecendoSkill::KeyMapEffect,std::allocator<ioCrecendoSkill::KeyMapEffect> > >::_Vector_iterator<std::_Vector_val<ioCrecendoSkill::KeyMapEffect,std::allocator<ioCrecendoSkill::KeyMapEffect> > >
; Function compile flags: /Ogsp
;	COMDAT ??0?$_Vector_iterator@V?$_Vector_val@UKeyMapEffect@ioCrecendoSkill@@V?$allocator@UKeyMapEffect@ioCrecendoSkill@@@std@@@std@@@std@@QAE@PAUKeyMapEffect@ioCrecendoSkill@@PBU_Container_base0@1@@Z
_TEXT	SEGMENT
__Parg$ = 8						; size = 4
__Pvector$ = 12						; size = 4
??0?$_Vector_iterator@V?$_Vector_val@UKeyMapEffect@ioCrecendoSkill@@V?$allocator@UKeyMapEffect@ioCrecendoSkill@@@std@@@std@@@std@@QAE@PAUKeyMapEffect@ioCrecendoSkill@@PBU_Container_base0@1@@Z PROC ; std::_Vector_iterator<std::_Vector_val<ioCrecendoSkill::KeyMapEffect,std::allocator<ioCrecendoSkill::KeyMapEffect> > >::_Vector_iterator<std::_Vector_val<ioCrecendoSkill::KeyMapEffect,std::allocator<ioCrecendoSkill::KeyMapEffect> > >, COMDAT
; _this$ = ecx

; 304  : 		{	// construct with pointer _Parg

  00000	55		 push	 ebp
  00001	8b ec		 mov	 ebp, esp
  00003	8b c1		 mov	 eax, ecx
  00005	8b 4d 08	 mov	 ecx, DWORD PTR __Parg$[ebp]
  00008	89 08		 mov	 DWORD PTR [eax], ecx

; 305  : 		}

  0000a	5d		 pop	 ebp
  0000b	c2 08 00	 ret	 8
??0?$_Vector_iterator@V?$_Vector_val@UKeyMapEffect@ioCrecendoSkill@@V?$allocator@UKeyMapEffect@ioCrecendoSkill@@@std@@@std@@@std@@QAE@PAUKeyMapEffect@ioCrecendoSkill@@PBU_Container_base0@1@@Z ENDP ; std::_Vector_iterator<std::_Vector_val<ioCrecendoSkill::KeyMapEffect,std::allocator<ioCrecendoSkill::KeyMapEffect> > >::_Vector_iterator<std::_Vector_val<ioCrecendoSkill::KeyMapEffect,std::allocator<ioCrecendoSkill::KeyMapEffect> > >
_TEXT	ENDS
PUBLIC	??0?$_Vector_iterator@V?$_Vector_val@UWaveKey@ioCrecendoSkill@@V?$allocator@UWaveKey@ioCrecendoSkill@@@std@@@std@@@std@@QAE@PAUWaveKey@ioCrecendoSkill@@PBU_Container_base0@1@@Z ; std::_Vector_iterator<std::_Vector_val<ioCrecendoSkill::WaveKey,std::allocator<ioCrecendoSkill::WaveKey> > >::_Vector_iterator<std::_Vector_val<ioCrecendoSkill::WaveKey,std::allocator<ioCrecendoSkill::WaveKey> > >
; Function compile flags: /Ogsp
;	COMDAT ??0?$_Vector_iterator@V?$_Vector_val@UWaveKey@ioCrecendoSkill@@V?$allocator@UWaveKey@ioCrecendoSkill@@@std@@@std@@@std@@QAE@PAUWaveKey@ioCrecendoSkill@@PBU_Container_base0@1@@Z
_TEXT	SEGMENT
__Parg$ = 8						; size = 4
__Pvector$ = 12						; size = 4
??0?$_Vector_iterator@V?$_Vector_val@UWaveKey@ioCrecendoSkill@@V?$allocator@UWaveKey@ioCrecendoSkill@@@std@@@std@@@std@@QAE@PAUWaveKey@ioCrecendoSkill@@PBU_Container_base0@1@@Z PROC ; std::_Vector_iterator<std::_Vector_val<ioCrecendoSkill::WaveKey,std::allocator<ioCrecendoSkill::WaveKey> > >::_Vector_iterator<std::_Vector_val<ioCrecendoSkill::WaveKey,std::allocator<ioCrecendoSkill::WaveKey> > >, COMDAT
; _this$ = ecx

; 304  : 		{	// construct with pointer _Parg

  00000	55		 push	 ebp
  00001	8b ec		 mov	 ebp, esp
  00003	8b c1		 mov	 eax, ecx
  00005	8b 4d 08	 mov	 ecx, DWORD PTR __Parg$[ebp]
  00008	89 08		 mov	 DWORD PTR [eax], ecx

; 305  : 		}

  0000a	5d		 pop	 ebp
  0000b	c2 08 00	 ret	 8
??0?$_Vector_iterator@V?$_Vector_val@UWaveKey@ioCrecendoSkill@@V?$allocator@UWaveKey@ioCrecendoSkill@@@std@@@std@@@std@@QAE@PAUWaveKey@ioCrecendoSkill@@PBU_Container_base0@1@@Z ENDP ; std::_Vector_iterator<std::_Vector_val<ioCrecendoSkill::WaveKey,std::allocator<ioCrecendoSkill::WaveKey> > >::_Vector_iterator<std::_Vector_val<ioCrecendoSkill::WaveKey,std::allocator<ioCrecendoSkill::WaveKey> > >
_TEXT	ENDS
PUBLIC	??8?$_Vector_const_iterator@V?$_Vector_val@UWaveKey@ioCrecendoSkill@@V?$allocator@UWaveKey@ioCrecendoSkill@@@std@@@std@@@std@@QBE_NABV01@@Z ; std::_Vector_const_iterator<std::_Vector_val<ioCrecendoSkill::WaveKey,std::allocator<ioCrecendoSkill::WaveKey> > >::operator==
; Function compile flags: /Ogsp
;	COMDAT ??8?$_Vector_const_iterator@V?$_Vector_val@UWaveKey@ioCrecendoSkill@@V?$allocator@UWaveKey@ioCrecendoSkill@@@std@@@std@@@std@@QBE_NABV01@@Z
_TEXT	SEGMENT
__Right$ = 8						; size = 4
??8?$_Vector_const_iterator@V?$_Vector_val@UWaveKey@ioCrecendoSkill@@V?$allocator@UWaveKey@ioCrecendoSkill@@@std@@@std@@@std@@QBE_NABV01@@Z PROC ; std::_Vector_const_iterator<std::_Vector_val<ioCrecendoSkill::WaveKey,std::allocator<ioCrecendoSkill::WaveKey> > >::operator==, COMDAT
; _this$ = ecx

; 201  : 		{	// test for iterator equality

  00000	55		 push	 ebp
  00001	8b ec		 mov	 ebp, esp

; 202  : 		_Compat(_Right);
; 203  : 		return (this->_Ptr == _Right._Ptr);

  00003	8b 01		 mov	 eax, DWORD PTR [ecx]
  00005	8b 4d 08	 mov	 ecx, DWORD PTR __Right$[ebp]
  00008	2b 01		 sub	 eax, DWORD PTR [ecx]
  0000a	f7 d8		 neg	 eax
  0000c	1b c0		 sbb	 eax, eax
  0000e	40		 inc	 eax

; 204  : 		}

  0000f	5d		 pop	 ebp
  00010	c2 04 00	 ret	 4
??8?$_Vector_const_iterator@V?$_Vector_val@UWaveKey@ioCrecendoSkill@@V?$allocator@UWaveKey@ioCrecendoSkill@@@std@@@std@@@std@@QBE_NABV01@@Z ENDP ; std::_Vector_const_iterator<std::_Vector_val<ioCrecendoSkill::WaveKey,std::allocator<ioCrecendoSkill::WaveKey> > >::operator==
_TEXT	ENDS
PUBLIC	??8?$_Vector_const_iterator@V?$_Vector_val@PAVioBaseChar@@V?$allocator@PAVioBaseChar@@@std@@@std@@@std@@QBE_NABV01@@Z ; std::_Vector_const_iterator<std::_Vector_val<ioBaseChar *,std::allocator<ioBaseChar *> > >::operator==
; Function compile flags: /Ogsp
;	COMDAT ??8?$_Vector_const_iterator@V?$_Vector_val@PAVioBaseChar@@V?$allocator@PAVioBaseChar@@@std@@@std@@@std@@QBE_NABV01@@Z
_TEXT	SEGMENT
__Right$ = 8						; size = 4
??8?$_Vector_const_iterator@V?$_Vector_val@PAVioBaseChar@@V?$allocator@PAVioBaseChar@@@std@@@std@@@std@@QBE_NABV01@@Z PROC ; std::_Vector_const_iterator<std::_Vector_val<ioBaseChar *,std::allocator<ioBaseChar *> > >::operator==, COMDAT
; _this$ = ecx

; 201  : 		{	// test for iterator equality

  00000	55		 push	 ebp
  00001	8b ec		 mov	 ebp, esp

; 202  : 		_Compat(_Right);
; 203  : 		return (this->_Ptr == _Right._Ptr);

  00003	8b 01		 mov	 eax, DWORD PTR [ecx]
  00005	8b 4d 08	 mov	 ecx, DWORD PTR __Right$[ebp]
  00008	2b 01		 sub	 eax, DWORD PTR [ecx]
  0000a	f7 d8		 neg	 eax
  0000c	1b c0		 sbb	 eax, eax
  0000e	40		 inc	 eax

; 204  : 		}

  0000f	5d		 pop	 ebp
  00010	c2 04 00	 ret	 4
??8?$_Vector_const_iterator@V?$_Vector_val@PAVioBaseChar@@V?$allocator@PAVioBaseChar@@@std@@@std@@@std@@QBE_NABV01@@Z ENDP ; std::_Vector_const_iterator<std::_Vector_val<ioBaseChar *,std::allocator<ioBaseChar *> > >::operator==
_TEXT	ENDS
PUBLIC	?_Grow_to@?$vector@UWaveKey@ioCrecendoSkill@@V?$allocator@UWaveKey@ioCrecendoSkill@@@std@@@std@@IBEII@Z ; std::vector<ioCrecendoSkill::WaveKey,std::allocator<ioCrecendoSkill::WaveKey> >::_Grow_to
; Function compile flags: /Ogsp
;	COMDAT ?_Grow_to@?$vector@UWaveKey@ioCrecendoSkill@@V?$allocator@UWaveKey@ioCrecendoSkill@@@std@@@std@@IBEII@Z
_TEXT	SEGMENT
__Count$ = 8						; size = 4
?_Grow_to@?$vector@UWaveKey@ioCrecendoSkill@@V?$allocator@UWaveKey@ioCrecendoSkill@@@std@@@std@@IBEII@Z PROC ; std::vector<ioCrecendoSkill::WaveKey,std::allocator<ioCrecendoSkill::WaveKey> >::_Grow_to, COMDAT
; _this$ = ecx

; 1274 : 		{	// grow by 50% or at least to _Count

  00000	55		 push	 ebp
  00001	8b ec		 mov	 ebp, esp

; 1275 : 		size_type _Capacity = capacity();

  00003	8b 41 08	 mov	 eax, DWORD PTR [ecx+8]
  00006	2b 01		 sub	 eax, DWORD PTR [ecx]
  00008	6a 6c		 push	 108			; 0000006cH
  0000a	99		 cdq
  0000b	59		 pop	 ecx
  0000c	f7 f9		 idiv	 ecx

; 1276 : 
; 1277 : 		_Capacity = max_size() - _Capacity / 2 < _Capacity
; 1278 : 			? 0 : _Capacity + _Capacity / 2;	// try to grow by 50%

  0000e	ba 97 d0 5e 02	 mov	 edx, 39768215		; 025ed097H
  00013	8b c8		 mov	 ecx, eax
  00015	d1 e9		 shr	 ecx, 1
  00017	2b d1		 sub	 edx, ecx
  00019	3b d0		 cmp	 edx, eax
  0001b	73 04		 jae	 SHORT $LN4@Grow_to
  0001d	33 c0		 xor	 eax, eax
  0001f	eb 02		 jmp	 SHORT $LN5@Grow_to
$LN4@Grow_to:
  00021	03 c1		 add	 eax, ecx
$LN5@Grow_to:

; 1279 : 		if (_Capacity < _Count)

  00023	3b 45 08	 cmp	 eax, DWORD PTR __Count$[ebp]

; 1280 : 			_Capacity = _Count;

  00026	0f 42 45 08	 cmovb	 eax, DWORD PTR __Count$[ebp]

; 1281 : 		return (_Capacity);
; 1282 : 		}

  0002a	5d		 pop	 ebp
  0002b	c2 04 00	 ret	 4
?_Grow_to@?$vector@UWaveKey@ioCrecendoSkill@@V?$allocator@UWaveKey@ioCrecendoSkill@@@std@@@std@@IBEII@Z ENDP ; std::vector<ioCrecendoSkill::WaveKey,std::allocator<ioCrecendoSkill::WaveKey> >::_Grow_to
_TEXT	ENDS
PUBLIC	?max_size@?$vector@UKeyMapEffect@ioCrecendoSkill@@V?$allocator@UKeyMapEffect@ioCrecendoSkill@@@std@@@std@@QBEIXZ ; std::vector<ioCrecendoSkill::KeyMapEffect,std::allocator<ioCrecendoSkill::KeyMapEffect> >::max_size
; Function compile flags: /Ogsp
;	COMDAT ?max_size@?$vector@UKeyMapEffect@ioCrecendoSkill@@V?$allocator@UKeyMapEffect@ioCrecendoSkill@@@std@@@std@@QBEIXZ
_TEXT	SEGMENT
?max_size@?$vector@UKeyMapEffect@ioCrecendoSkill@@V?$allocator@UKeyMapEffect@ioCrecendoSkill@@@std@@@std@@QBEIXZ PROC ; std::vector<ioCrecendoSkill::KeyMapEffect,std::allocator<ioCrecendoSkill::KeyMapEffect> >::max_size, COMDAT
; _this$ = ecx

; 884  : 		return (this->_Alval.max_size());

  00000	b8 ff ff ff 1f	 mov	 eax, 536870911		; 1fffffffH

; 885  : 		}

  00005	c3		 ret	 0
?max_size@?$vector@UKeyMapEffect@ioCrecendoSkill@@V?$allocator@UKeyMapEffect@ioCrecendoSkill@@@std@@@std@@QBEIXZ ENDP ; std::vector<ioCrecendoSkill::KeyMapEffect,std::allocator<ioCrecendoSkill::KeyMapEffect> >::max_size
_TEXT	ENDS
PUBLIC	?_Grow_to@?$vector@UKeyMapEffect@ioCrecendoSkill@@V?$allocator@UKeyMapEffect@ioCrecendoSkill@@@std@@@std@@IBEII@Z ; std::vector<ioCrecendoSkill::KeyMapEffect,std::allocator<ioCrecendoSkill::KeyMapEffect> >::_Grow_to
; Function compile flags: /Ogsp
;	COMDAT ?_Grow_to@?$vector@UKeyMapEffect@ioCrecendoSkill@@V?$allocator@UKeyMapEffect@ioCrecendoSkill@@@std@@@std@@IBEII@Z
_TEXT	SEGMENT
__Count$ = 8						; size = 4
?_Grow_to@?$vector@UKeyMapEffect@ioCrecendoSkill@@V?$allocator@UKeyMapEffect@ioCrecendoSkill@@@std@@@std@@IBEII@Z PROC ; std::vector<ioCrecendoSkill::KeyMapEffect,std::allocator<ioCrecendoSkill::KeyMapEffect> >::_Grow_to, COMDAT
; _this$ = ecx

; 1274 : 		{	// grow by 50% or at least to _Count

  00000	55		 push	 ebp
  00001	8b ec		 mov	 ebp, esp

; 1275 : 		size_type _Capacity = capacity();

  00003	8b 41 08	 mov	 eax, DWORD PTR [ecx+8]
  00006	2b 01		 sub	 eax, DWORD PTR [ecx]

; 1276 : 
; 1277 : 		_Capacity = max_size() - _Capacity / 2 < _Capacity
; 1278 : 			? 0 : _Capacity + _Capacity / 2;	// try to grow by 50%

  00008	ba ff ff ff 1f	 mov	 edx, 536870911		; 1fffffffH
  0000d	c1 f8 03	 sar	 eax, 3
  00010	8b c8		 mov	 ecx, eax
  00012	d1 e9		 shr	 ecx, 1
  00014	2b d1		 sub	 edx, ecx
  00016	3b d0		 cmp	 edx, eax
  00018	73 04		 jae	 SHORT $LN4@Grow_to@2
  0001a	33 c0		 xor	 eax, eax
  0001c	eb 02		 jmp	 SHORT $LN5@Grow_to@2
$LN4@Grow_to@2:
  0001e	03 c1		 add	 eax, ecx
$LN5@Grow_to@2:

; 1279 : 		if (_Capacity < _Count)

  00020	3b 45 08	 cmp	 eax, DWORD PTR __Count$[ebp]

; 1280 : 			_Capacity = _Count;

  00023	0f 42 45 08	 cmovb	 eax, DWORD PTR __Count$[ebp]

; 1281 : 		return (_Capacity);
; 1282 : 		}

  00027	5d		 pop	 ebp
  00028	c2 04 00	 ret	 4
?_Grow_to@?$vector@UKeyMapEffect@ioCrecendoSkill@@V?$allocator@UKeyMapEffect@ioCrecendoSkill@@@std@@@std@@IBEII@Z ENDP ; std::vector<ioCrecendoSkill::KeyMapEffect,std::allocator<ioCrecendoSkill::KeyMapEffect> >::_Grow_to
_TEXT	ENDS
PUBLIC	?allocate@?$allocator@UKeyMapEffect@ioCrecendoSkill@@@std@@QAEPAUKeyMapEffect@ioCrecendoSkill@@I@Z ; std::allocator<ioCrecendoSkill::KeyMapEffect>::allocate
; Function compile flags: /Ogsp
; File c:\program files (x86)\microsoft visual studio 10.0\vc\include\xmemory
;	COMDAT ?allocate@?$allocator@UKeyMapEffect@ioCrecendoSkill@@@std@@QAEPAUKeyMapEffect@ioCrecendoSkill@@I@Z
_TEXT	SEGMENT
__Count$ = 8						; size = 4
?allocate@?$allocator@UKeyMapEffect@ioCrecendoSkill@@@std@@QAEPAUKeyMapEffect@ioCrecendoSkill@@I@Z PROC ; std::allocator<ioCrecendoSkill::KeyMapEffect>::allocate, COMDAT
; _this$ = ecx

; 186  : 		{	// allocate array of _Count elements

  00000	55		 push	 ebp
  00001	8b ec		 mov	 ebp, esp

; 187  : 		return (_Allocate(_Count, (pointer)0));

  00003	6a 00		 push	 0
  00005	ff 75 08	 push	 DWORD PTR __Count$[ebp]
  00008	e8 00 00 00 00	 call	 ??$_Allocate@UKeyMapEffect@ioCrecendoSkill@@@std@@YAPAUKeyMapEffect@ioCrecendoSkill@@IPAU12@@Z ; std::_Allocate<ioCrecendoSkill::KeyMapEffect>
  0000d	59		 pop	 ecx
  0000e	59		 pop	 ecx

; 188  : 		}

  0000f	5d		 pop	 ebp
  00010	c2 04 00	 ret	 4
?allocate@?$allocator@UKeyMapEffect@ioCrecendoSkill@@@std@@QAEPAUKeyMapEffect@ioCrecendoSkill@@I@Z ENDP ; std::allocator<ioCrecendoSkill::KeyMapEffect>::allocate
_TEXT	ENDS
PUBLIC	_this$GSCopy$
PUBLIC	__$ArrayPad$
PUBLIC	??$LoadString_e@$0BC@@ioINILoader@@QAEXAAY0BC@$$CBDAAY00$$CBDPADH@Z ; ioINILoader::LoadString_e<18>
EXTRN	__imp_?LoadStringA@ioINILoader@@QAEXPBD0PADH@Z:PROC
; Function compile flags: /Ogsp
; File d:\lost saga for developer\youtube\tutorial\source\src\io3dengine\ioiniloader.h
;	COMDAT ??$LoadString_e@$0BC@@ioINILoader@@QAEXAAY0BC@$$CBDAAY00$$CBDPADH@Z
_TEXT	SEGMENT
_this$GSCopy$ = -32					; size = 4
__k$ = -28						; size = 18
__$ArrayPad$ = -4					; size = 4
_k$ = 8							; size = 4
_d$ = 12						; size = 4
_b$ = 16						; size = 4
_i$ = 20						; size = 4
??$LoadString_e@$0BC@@ioINILoader@@QAEXAAY0BC@$$CBDAAY00$$CBDPADH@Z PROC ; ioINILoader::LoadString_e<18>, COMDAT
; _this$ = ecx

; 161  : 	{

  00000	55		 push	 ebp
  00001	8b ec		 mov	 ebp, esp
  00003	83 ec 20	 sub	 esp, 32			; 00000020H
  00006	a1 00 00 00 00	 mov	 eax, DWORD PTR ___security_cookie
  0000b	33 c5		 xor	 eax, ebp
  0000d	89 45 fc	 mov	 DWORD PTR __$ArrayPad$[ebp], eax
  00010	8b 45 08	 mov	 eax, DWORD PTR _k$[ebp]

; 162  : 		_ENCSTR(k, _k);

  00013	8a 10		 mov	 dl, BYTE PTR [eax]
  00015	56		 push	 esi
  00016	8b 75 0c	 mov	 esi, DWORD PTR _d$[ebp]
  00019	57		 push	 edi
  0001a	8b 7d 10	 mov	 edi, DWORD PTR _b$[ebp]
  0001d	89 4d e0	 mov	 DWORD PTR _this$GSCopy$[ebp], ecx
  00020	84 d2		 test	 dl, dl
  00022	0f 84 be 01 00
	00		 je	 $LN96@LoadString
  00028	80 f2 ed	 xor	 dl, -19			; ffffffedH
  0002b	88 55 e4	 mov	 BYTE PTR __k$[ebp], dl
  0002e	8a 50 01	 mov	 dl, BYTE PTR [eax+1]
  00031	84 d2		 test	 dl, dl
  00033	0f 84 a7 01 00
	00		 je	 $LN95@LoadString
  00039	80 f2 ec	 xor	 dl, -20			; ffffffecH
  0003c	88 55 e5	 mov	 BYTE PTR __k$[ebp+1], dl
  0003f	8a 50 02	 mov	 dl, BYTE PTR [eax+2]
  00042	84 d2		 test	 dl, dl
  00044	0f 84 90 01 00
	00		 je	 $LN94@LoadString
  0004a	b1 eb		 mov	 cl, -21			; ffffffebH
  0004c	32 d1		 xor	 dl, cl
  0004e	88 55 e6	 mov	 BYTE PTR __k$[ebp+2], dl
  00051	8a 50 03	 mov	 dl, BYTE PTR [eax+3]
  00054	84 d2		 test	 dl, dl
  00056	0f 84 78 01 00
	00		 je	 $LN93@LoadString
  0005c	80 f2 ea	 xor	 dl, -22			; ffffffeaH
  0005f	88 55 e7	 mov	 BYTE PTR __k$[ebp+3], dl
  00062	8a 50 04	 mov	 dl, BYTE PTR [eax+4]
  00065	84 d2		 test	 dl, dl
  00067	0f 84 61 01 00
	00		 je	 $LN92@LoadString
  0006d	80 f2 ed	 xor	 dl, -19			; ffffffedH
  00070	88 55 e8	 mov	 BYTE PTR __k$[ebp+4], dl
  00073	8a 50 05	 mov	 dl, BYTE PTR [eax+5]
  00076	84 d2		 test	 dl, dl
  00078	0f 84 4a 01 00
	00		 je	 $LN91@LoadString
  0007e	80 f2 ec	 xor	 dl, -20			; ffffffecH
  00081	88 55 e9	 mov	 BYTE PTR __k$[ebp+5], dl
  00084	8a 50 06	 mov	 dl, BYTE PTR [eax+6]
  00087	84 d2		 test	 dl, dl
  00089	0f 84 34 01 00
	00		 je	 $LN90@LoadString
  0008f	32 d1		 xor	 dl, cl
  00091	88 55 ea	 mov	 BYTE PTR __k$[ebp+6], dl
  00094	8a 50 07	 mov	 dl, BYTE PTR [eax+7]
  00097	84 d2		 test	 dl, dl
  00099	0f 84 1e 01 00
	00		 je	 $LN89@LoadString
  0009f	80 f2 ea	 xor	 dl, -22			; ffffffeaH
  000a2	88 55 eb	 mov	 BYTE PTR __k$[ebp+7], dl
  000a5	8a 50 08	 mov	 dl, BYTE PTR [eax+8]
  000a8	84 d2		 test	 dl, dl
  000aa	0f 84 07 01 00
	00		 je	 $LN88@LoadString
  000b0	80 f2 ed	 xor	 dl, -19			; ffffffedH
  000b3	88 55 ec	 mov	 BYTE PTR __k$[ebp+8], dl
  000b6	8a 50 09	 mov	 dl, BYTE PTR [eax+9]
  000b9	84 d2		 test	 dl, dl
  000bb	0f 84 f0 00 00
	00		 je	 $LN87@LoadString
  000c1	80 f2 ec	 xor	 dl, -20			; ffffffecH
  000c4	88 55 ed	 mov	 BYTE PTR __k$[ebp+9], dl
  000c7	8a 50 0a	 mov	 dl, BYTE PTR [eax+10]
  000ca	84 d2		 test	 dl, dl
  000cc	0f 84 da 00 00
	00		 je	 $LN86@LoadString
  000d2	32 d1		 xor	 dl, cl
  000d4	88 55 ee	 mov	 BYTE PTR __k$[ebp+10], dl
  000d7	8a 50 0b	 mov	 dl, BYTE PTR [eax+11]
  000da	84 d2		 test	 dl, dl
  000dc	0f 84 c4 00 00
	00		 je	 $LN85@LoadString
  000e2	80 f2 ea	 xor	 dl, -22			; ffffffeaH
  000e5	88 55 ef	 mov	 BYTE PTR __k$[ebp+11], dl
  000e8	8a 50 0c	 mov	 dl, BYTE PTR [eax+12]
  000eb	84 d2		 test	 dl, dl
  000ed	0f 84 ad 00 00
	00		 je	 $LN84@LoadString
  000f3	80 f2 ed	 xor	 dl, -19			; ffffffedH
  000f6	88 55 f0	 mov	 BYTE PTR __k$[ebp+12], dl
  000f9	8a 50 0d	 mov	 dl, BYTE PTR [eax+13]
  000fc	84 d2		 test	 dl, dl
  000fe	0f 84 96 00 00
	00		 je	 $LN83@LoadString
  00104	80 f2 ec	 xor	 dl, -20			; ffffffecH
  00107	88 55 f1	 mov	 BYTE PTR __k$[ebp+13], dl
  0010a	8a 50 0e	 mov	 dl, BYTE PTR [eax+14]
  0010d	84 d2		 test	 dl, dl
  0010f	0f 84 80 00 00
	00		 je	 $LN82@LoadString
  00115	32 d1		 xor	 dl, cl
  00117	88 55 f2	 mov	 BYTE PTR __k$[ebp+14], dl
  0011a	8a 50 0f	 mov	 dl, BYTE PTR [eax+15]
  0011d	84 d2		 test	 dl, dl
  0011f	74 6e		 je	 SHORT $LN81@LoadString
  00121	80 f2 ea	 xor	 dl, -22			; ffffffeaH
  00124	88 55 f3	 mov	 BYTE PTR __k$[ebp+15], dl
  00127	8a 50 10	 mov	 dl, BYTE PTR [eax+16]
  0012a	84 d2		 test	 dl, dl
  0012c	74 5b		 je	 SHORT $LN80@LoadString
  0012e	80 f2 ed	 xor	 dl, -19			; ffffffedH
  00131	80 78 11 00	 cmp	 BYTE PTR [eax+17], 0
  00135	88 55 f4	 mov	 BYTE PTR __k$[ebp+16], dl
  00138	0f 84 ac 00 00
	00		 je	 $LN111@LoadString
  0013e	8a 50 12	 mov	 dl, BYTE PTR [eax+18]
  00141	84 d2		 test	 dl, dl
  00143	74 3f		 je	 SHORT $LN78@LoadString
  00145	32 d1		 xor	 dl, cl
  00147	88 55 f6	 mov	 BYTE PTR __k$[ebp+18], dl
  0014a	8a 50 13	 mov	 dl, BYTE PTR [eax+19]
  0014d	84 d2		 test	 dl, dl
  0014f	74 2d		 je	 SHORT $LN77@LoadString
  00151	80 f2 ea	 xor	 dl, -22			; ffffffeaH
  00154	88 55 f7	 mov	 BYTE PTR __k$[ebp+19], dl
  00157	8a 50 14	 mov	 dl, BYTE PTR [eax+20]
  0015a	84 d2		 test	 dl, dl
  0015c	74 1a		 je	 SHORT $LN76@LoadString
  0015e	8a 40 15	 mov	 al, BYTE PTR [eax+21]
  00161	80 f2 ed	 xor	 dl, -19			; ffffffedH
  00164	88 55 f8	 mov	 BYTE PTR __k$[ebp+20], dl
  00167	84 c0		 test	 al, al
  00169	74 07		 je	 SHORT $LN75@LoadString
  0016b	34 ec		 xor	 al, -20			; ffffffecH
  0016d	88 45 f9	 mov	 BYTE PTR __k$[ebp+21], al
  00170	eb 78		 jmp	 SHORT $LN111@LoadString
$LN75@LoadString:
  00172	c6 45 f9 ec	 mov	 BYTE PTR __k$[ebp+21], -20 ; ffffffecH
  00176	eb 72		 jmp	 SHORT $LN111@LoadString
$LN76@LoadString:
  00178	c6 45 f8 ed	 mov	 BYTE PTR __k$[ebp+20], -19 ; ffffffedH
  0017c	eb 6c		 jmp	 SHORT $LN111@LoadString
$LN77@LoadString:
  0017e	c6 45 f7 ea	 mov	 BYTE PTR __k$[ebp+19], -22 ; ffffffeaH
  00182	eb 66		 jmp	 SHORT $LN111@LoadString
$LN78@LoadString:
  00184	88 4d f6	 mov	 BYTE PTR __k$[ebp+18], cl
  00187	eb 61		 jmp	 SHORT $LN111@LoadString
$LN80@LoadString:
  00189	c6 45 f4 ed	 mov	 BYTE PTR __k$[ebp+16], -19 ; ffffffedH
  0018d	eb 5b		 jmp	 SHORT $LN111@LoadString
$LN81@LoadString:
  0018f	c6 45 f3 ea	 mov	 BYTE PTR __k$[ebp+15], -22 ; ffffffeaH
  00193	eb 55		 jmp	 SHORT $LN111@LoadString
$LN82@LoadString:
  00195	88 4d f2	 mov	 BYTE PTR __k$[ebp+14], cl
  00198	eb 50		 jmp	 SHORT $LN111@LoadString
$LN83@LoadString:
  0019a	c6 45 f1 ec	 mov	 BYTE PTR __k$[ebp+13], -20 ; ffffffecH
  0019e	eb 4a		 jmp	 SHORT $LN111@LoadString
$LN84@LoadString:
  001a0	c6 45 f0 ed	 mov	 BYTE PTR __k$[ebp+12], -19 ; ffffffedH
  001a4	eb 44		 jmp	 SHORT $LN111@LoadString
$LN85@LoadString:
  001a6	c6 45 ef ea	 mov	 BYTE PTR __k$[ebp+11], -22 ; ffffffeaH
  001aa	eb 3e		 jmp	 SHORT $LN111@LoadString
$LN86@LoadString:
  001ac	88 4d ee	 mov	 BYTE PTR __k$[ebp+10], cl
  001af	eb 39		 jmp	 SHORT $LN111@LoadString
$LN87@LoadString:
  001b1	c6 45 ed ec	 mov	 BYTE PTR __k$[ebp+9], -20 ; ffffffecH
  001b5	eb 33		 jmp	 SHORT $LN111@LoadString
$LN88@LoadString:
  001b7	c6 45 ec ed	 mov	 BYTE PTR __k$[ebp+8], -19 ; ffffffedH
  001bb	eb 2d		 jmp	 SHORT $LN111@LoadString
$LN89@LoadString:
  001bd	c6 45 eb ea	 mov	 BYTE PTR __k$[ebp+7], -22 ; ffffffeaH
  001c1	eb 27		 jmp	 SHORT $LN111@LoadString
$LN90@LoadString:
  001c3	88 4d ea	 mov	 BYTE PTR __k$[ebp+6], cl
  001c6	eb 22		 jmp	 SHORT $LN111@LoadString
$LN91@LoadString:
  001c8	c6 45 e9 ec	 mov	 BYTE PTR __k$[ebp+5], -20 ; ffffffecH
  001cc	eb 1c		 jmp	 SHORT $LN111@LoadString
$LN92@LoadString:
  001ce	c6 45 e8 ed	 mov	 BYTE PTR __k$[ebp+4], -19 ; ffffffedH
  001d2	eb 16		 jmp	 SHORT $LN111@LoadString
$LN93@LoadString:
  001d4	c6 45 e7 ea	 mov	 BYTE PTR __k$[ebp+3], -22 ; ffffffeaH
  001d8	eb 10		 jmp	 SHORT $LN111@LoadString
$LN94@LoadString:
  001da	c6 45 e6 eb	 mov	 BYTE PTR __k$[ebp+2], -21 ; ffffffebH
  001de	eb 0a		 jmp	 SHORT $LN111@LoadString
$LN95@LoadString:
  001e0	c6 45 e5 ec	 mov	 BYTE PTR __k$[ebp+1], -20 ; ffffffecH
  001e4	eb 04		 jmp	 SHORT $LN111@LoadString
$LN96@LoadString:
  001e6	c6 45 e4 ed	 mov	 BYTE PTR __k$[ebp], -19	; ffffffedH
$LN111@LoadString:
  001ea	6a 04		 push	 4
  001ec	8d 45 e4	 lea	 eax, DWORD PTR __k$[ebp]
  001ef	c6 45 f5 00	 mov	 BYTE PTR __k$[ebp+17], 0
  001f3	5a		 pop	 edx
$LL104@LoadString:
  001f4	81 30 ed ec eb
	ea		 xor	 DWORD PTR [eax], -353637139 ; eaebecedH
  001fa	83 c0 04	 add	 eax, 4
  001fd	4a		 dec	 edx
  001fe	75 f4		 jne	 SHORT $LL104@LoadString

; 163  : 		LoadString(_k, d, b, i);

  00200	ff 75 14	 push	 DWORD PTR _i$[ebp]
  00203	8b 4d e0	 mov	 ecx, DWORD PTR _this$GSCopy$[ebp]
  00206	80 75 f4 ed	 xor	 BYTE PTR __k$[ebp+16], -19 ; ffffffedH
  0020a	57		 push	 edi
  0020b	56		 push	 esi
  0020c	8d 45 e4	 lea	 eax, DWORD PTR __k$[ebp]
  0020f	50		 push	 eax
  00210	ff 15 00 00 00
	00		 call	 DWORD PTR __imp_?LoadStringA@ioINILoader@@QAEXPBD0PADH@Z

; 164  : 	}

  00216	8b 4d fc	 mov	 ecx, DWORD PTR __$ArrayPad$[ebp]
  00219	5f		 pop	 edi
  0021a	33 cd		 xor	 ecx, ebp
  0021c	5e		 pop	 esi
  0021d	e8 00 00 00 00	 call	 @__security_check_cookie@4
  00222	c9		 leave
  00223	c2 10 00	 ret	 16			; 00000010H
??$LoadString_e@$0BC@@ioINILoader@@QAEXAAY0BC@$$CBDAAY00$$CBDPADH@Z ENDP ; ioINILoader::LoadString_e<18>
_TEXT	ENDS
PUBLIC	__$ArrayPad$
PUBLIC	??$LoadFloat_e@$0BH@@ioINILoader@@QAEMAAY0BH@$$CBDM@Z ; ioINILoader::LoadFloat_e<23>
EXTRN	__imp_?LoadFloat@ioINILoader@@QAEMPBDM@Z:PROC
; Function compile flags: /Ogsp
;	COMDAT ??$LoadFloat_e@$0BH@@ioINILoader@@QAEMAAY0BH@$$CBDM@Z
_TEXT	SEGMENT
__k$ = -32						; size = 23
__$ArrayPad$ = -4					; size = 4
_k$ = 8							; size = 4
_f$ = 12						; size = 4
??$LoadFloat_e@$0BH@@ioINILoader@@QAEMAAY0BH@$$CBDM@Z PROC ; ioINILoader::LoadFloat_e<23>, COMDAT
; _this$ = ecx

; 135  : 	{

  00000	55		 push	 ebp
  00001	8b ec		 mov	 ebp, esp
  00003	83 ec 20	 sub	 esp, 32			; 00000020H
  00006	a1 00 00 00 00	 mov	 eax, DWORD PTR ___security_cookie
  0000b	33 c5		 xor	 eax, ebp
  0000d	89 45 fc	 mov	 DWORD PTR __$ArrayPad$[ebp], eax
  00010	8b 45 08	 mov	 eax, DWORD PTR _k$[ebp]

; 136  : 		_ENCSTR(k, _k);

  00013	8a 10		 mov	 dl, BYTE PTR [eax]
  00015	53		 push	 ebx
  00016	56		 push	 esi
  00017	8b f1		 mov	 esi, ecx
  00019	84 d2		 test	 dl, dl
  0001b	0f 84 2d 02 00
	00		 je	 $LN96@LoadFloat_
  00021	80 f2 ed	 xor	 dl, -19			; ffffffedH
  00024	88 55 e0	 mov	 BYTE PTR __k$[ebp], dl
  00027	8a 50 01	 mov	 dl, BYTE PTR [eax+1]
  0002a	84 d2		 test	 dl, dl
  0002c	0f 84 16 02 00
	00		 je	 $LN95@LoadFloat_
  00032	b1 ec		 mov	 cl, -20			; ffffffecH
  00034	32 d1		 xor	 dl, cl
  00036	88 55 e1	 mov	 BYTE PTR __k$[ebp+1], dl
  00039	8a 50 02	 mov	 dl, BYTE PTR [eax+2]
  0003c	84 d2		 test	 dl, dl
  0003e	0f 84 fe 01 00
	00		 je	 $LN94@LoadFloat_
  00044	80 f2 eb	 xor	 dl, -21			; ffffffebH
  00047	88 55 e2	 mov	 BYTE PTR __k$[ebp+2], dl
  0004a	8a 50 03	 mov	 dl, BYTE PTR [eax+3]
  0004d	84 d2		 test	 dl, dl
  0004f	0f 84 e7 01 00
	00		 je	 $LN93@LoadFloat_
  00055	b3 ea		 mov	 bl, -22			; ffffffeaH
  00057	32 d3		 xor	 dl, bl
  00059	88 55 e3	 mov	 BYTE PTR __k$[ebp+3], dl
  0005c	8a 50 04	 mov	 dl, BYTE PTR [eax+4]
  0005f	84 d2		 test	 dl, dl
  00061	0f 84 cf 01 00
	00		 je	 $LN92@LoadFloat_
  00067	80 f2 ed	 xor	 dl, -19			; ffffffedH
  0006a	88 55 e4	 mov	 BYTE PTR __k$[ebp+4], dl
  0006d	8a 50 05	 mov	 dl, BYTE PTR [eax+5]
  00070	84 d2		 test	 dl, dl
  00072	0f 84 b9 01 00
	00		 je	 $LN91@LoadFloat_
  00078	32 d1		 xor	 dl, cl
  0007a	88 55 e5	 mov	 BYTE PTR __k$[ebp+5], dl
  0007d	8a 50 06	 mov	 dl, BYTE PTR [eax+6]
  00080	84 d2		 test	 dl, dl
  00082	0f 84 a3 01 00
	00		 je	 $LN90@LoadFloat_
  00088	80 f2 eb	 xor	 dl, -21			; ffffffebH
  0008b	88 55 e6	 mov	 BYTE PTR __k$[ebp+6], dl
  0008e	8a 50 07	 mov	 dl, BYTE PTR [eax+7]
  00091	84 d2		 test	 dl, dl
  00093	0f 84 8d 01 00
	00		 je	 $LN89@LoadFloat_
  00099	32 d3		 xor	 dl, bl
  0009b	88 55 e7	 mov	 BYTE PTR __k$[ebp+7], dl
  0009e	8a 50 08	 mov	 dl, BYTE PTR [eax+8]
  000a1	84 d2		 test	 dl, dl
  000a3	0f 84 77 01 00
	00		 je	 $LN88@LoadFloat_
  000a9	80 f2 ed	 xor	 dl, -19			; ffffffedH
  000ac	88 55 e8	 mov	 BYTE PTR __k$[ebp+8], dl
  000af	8a 50 09	 mov	 dl, BYTE PTR [eax+9]
  000b2	84 d2		 test	 dl, dl
  000b4	0f 84 61 01 00
	00		 je	 $LN87@LoadFloat_
  000ba	32 d1		 xor	 dl, cl
  000bc	88 55 e9	 mov	 BYTE PTR __k$[ebp+9], dl
  000bf	8a 50 0a	 mov	 dl, BYTE PTR [eax+10]
  000c2	84 d2		 test	 dl, dl
  000c4	0f 84 4b 01 00
	00		 je	 $LN86@LoadFloat_
  000ca	80 f2 eb	 xor	 dl, -21			; ffffffebH
  000cd	88 55 ea	 mov	 BYTE PTR __k$[ebp+10], dl
  000d0	8a 50 0b	 mov	 dl, BYTE PTR [eax+11]
  000d3	84 d2		 test	 dl, dl
  000d5	0f 84 35 01 00
	00		 je	 $LN85@LoadFloat_
  000db	32 d3		 xor	 dl, bl
  000dd	88 55 eb	 mov	 BYTE PTR __k$[ebp+11], dl
  000e0	8a 50 0c	 mov	 dl, BYTE PTR [eax+12]
  000e3	84 d2		 test	 dl, dl
  000e5	0f 84 1f 01 00
	00		 je	 $LN84@LoadFloat_
  000eb	80 f2 ed	 xor	 dl, -19			; ffffffedH
  000ee	88 55 ec	 mov	 BYTE PTR __k$[ebp+12], dl
  000f1	8a 50 0d	 mov	 dl, BYTE PTR [eax+13]
  000f4	84 d2		 test	 dl, dl
  000f6	0f 84 09 01 00
	00		 je	 $LN83@LoadFloat_
  000fc	32 d1		 xor	 dl, cl
  000fe	88 55 ed	 mov	 BYTE PTR __k$[ebp+13], dl
  00101	8a 50 0e	 mov	 dl, BYTE PTR [eax+14]
  00104	84 d2		 test	 dl, dl
  00106	0f 84 f3 00 00
	00		 je	 $LN82@LoadFloat_
  0010c	80 f2 eb	 xor	 dl, -21			; ffffffebH
  0010f	88 55 ee	 mov	 BYTE PTR __k$[ebp+14], dl
  00112	8a 50 0f	 mov	 dl, BYTE PTR [eax+15]
  00115	84 d2		 test	 dl, dl
  00117	0f 84 dd 00 00
	00		 je	 $LN81@LoadFloat_
  0011d	32 d3		 xor	 dl, bl
  0011f	88 55 ef	 mov	 BYTE PTR __k$[ebp+15], dl
  00122	8a 50 10	 mov	 dl, BYTE PTR [eax+16]
  00125	84 d2		 test	 dl, dl
  00127	0f 84 c7 00 00
	00		 je	 $LN80@LoadFloat_
  0012d	80 f2 ed	 xor	 dl, -19			; ffffffedH
  00130	88 55 f0	 mov	 BYTE PTR __k$[ebp+16], dl
  00133	8a 50 11	 mov	 dl, BYTE PTR [eax+17]
  00136	84 d2		 test	 dl, dl
  00138	0f 84 b1 00 00
	00		 je	 $LN79@LoadFloat_
  0013e	32 d1		 xor	 dl, cl
  00140	88 55 f1	 mov	 BYTE PTR __k$[ebp+17], dl
  00143	8a 50 12	 mov	 dl, BYTE PTR [eax+18]
  00146	84 d2		 test	 dl, dl
  00148	0f 84 9b 00 00
	00		 je	 $LN78@LoadFloat_
  0014e	80 f2 eb	 xor	 dl, -21			; ffffffebH
  00151	88 55 f2	 mov	 BYTE PTR __k$[ebp+18], dl
  00154	8a 50 13	 mov	 dl, BYTE PTR [eax+19]
  00157	84 d2		 test	 dl, dl
  00159	0f 84 85 00 00
	00		 je	 $LN77@LoadFloat_
  0015f	32 d3		 xor	 dl, bl
  00161	88 55 f3	 mov	 BYTE PTR __k$[ebp+19], dl
  00164	8a 50 14	 mov	 dl, BYTE PTR [eax+20]
  00167	84 d2		 test	 dl, dl
  00169	74 73		 je	 SHORT $LN76@LoadFloat_
  0016b	80 f2 ed	 xor	 dl, -19			; ffffffedH
  0016e	88 55 f4	 mov	 BYTE PTR __k$[ebp+20], dl
  00171	8a 50 15	 mov	 dl, BYTE PTR [eax+21]
  00174	84 d2		 test	 dl, dl
  00176	74 61		 je	 SHORT $LN75@LoadFloat_
  00178	32 d1		 xor	 dl, cl
  0017a	80 78 16 00	 cmp	 BYTE PTR [eax+22], 0
  0017e	88 55 f5	 mov	 BYTE PTR __k$[ebp+21], dl
  00181	0f 84 cb 00 00
	00		 je	 $LN1@LoadFloat_
  00187	8a 50 17	 mov	 dl, BYTE PTR [eax+23]
  0018a	84 d2		 test	 dl, dl
  0018c	74 46		 je	 SHORT $LN73@LoadFloat_
  0018e	32 d3		 xor	 dl, bl
  00190	88 55 f7	 mov	 BYTE PTR __k$[ebp+23], dl
  00193	8a 50 18	 mov	 dl, BYTE PTR [eax+24]
  00196	84 d2		 test	 dl, dl
  00198	74 34		 je	 SHORT $LN72@LoadFloat_
  0019a	80 f2 ed	 xor	 dl, -19			; ffffffedH
  0019d	88 55 f8	 mov	 BYTE PTR __k$[ebp+24], dl
  001a0	8a 50 19	 mov	 dl, BYTE PTR [eax+25]
  001a3	84 d2		 test	 dl, dl
  001a5	74 1f		 je	 SHORT $LN71@LoadFloat_
  001a7	8a 40 1a	 mov	 al, BYTE PTR [eax+26]
  001aa	32 d1		 xor	 dl, cl
  001ac	88 55 f9	 mov	 BYTE PTR __k$[ebp+25], dl
  001af	84 c0		 test	 al, al
  001b1	74 0a		 je	 SHORT $LN70@LoadFloat_
  001b3	34 eb		 xor	 al, -21			; ffffffebH
  001b5	88 45 fa	 mov	 BYTE PTR __k$[ebp+26], al
  001b8	e9 95 00 00 00	 jmp	 $LN1@LoadFloat_
$LN70@LoadFloat_:
  001bd	c6 45 fa eb	 mov	 BYTE PTR __k$[ebp+26], -21 ; ffffffebH
  001c1	e9 8c 00 00 00	 jmp	 $LN1@LoadFloat_
$LN71@LoadFloat_:
  001c6	88 4d f9	 mov	 BYTE PTR __k$[ebp+25], cl
  001c9	e9 84 00 00 00	 jmp	 $LN1@LoadFloat_
$LN72@LoadFloat_:
  001ce	c6 45 f8 ed	 mov	 BYTE PTR __k$[ebp+24], -19 ; ffffffedH
  001d2	eb 7e		 jmp	 SHORT $LN1@LoadFloat_
$LN73@LoadFloat_:
  001d4	88 5d f7	 mov	 BYTE PTR __k$[ebp+23], bl
  001d7	eb 79		 jmp	 SHORT $LN1@LoadFloat_
$LN75@LoadFloat_:
  001d9	88 4d f5	 mov	 BYTE PTR __k$[ebp+21], cl
  001dc	eb 74		 jmp	 SHORT $LN1@LoadFloat_
$LN76@LoadFloat_:
  001de	c6 45 f4 ed	 mov	 BYTE PTR __k$[ebp+20], -19 ; ffffffedH
  001e2	eb 6e		 jmp	 SHORT $LN1@LoadFloat_
$LN77@LoadFloat_:
  001e4	88 5d f3	 mov	 BYTE PTR __k$[ebp+19], bl
  001e7	eb 69		 jmp	 SHORT $LN1@LoadFloat_
$LN78@LoadFloat_:
  001e9	c6 45 f2 eb	 mov	 BYTE PTR __k$[ebp+18], -21 ; ffffffebH
  001ed	eb 63		 jmp	 SHORT $LN1@LoadFloat_
$LN79@LoadFloat_:
  001ef	88 4d f1	 mov	 BYTE PTR __k$[ebp+17], cl
  001f2	eb 5e		 jmp	 SHORT $LN1@LoadFloat_
$LN80@LoadFloat_:
  001f4	c6 45 f0 ed	 mov	 BYTE PTR __k$[ebp+16], -19 ; ffffffedH
  001f8	eb 58		 jmp	 SHORT $LN1@LoadFloat_
$LN81@LoadFloat_:
  001fa	88 5d ef	 mov	 BYTE PTR __k$[ebp+15], bl
  001fd	eb 53		 jmp	 SHORT $LN1@LoadFloat_
$LN82@LoadFloat_:
  001ff	c6 45 ee eb	 mov	 BYTE PTR __k$[ebp+14], -21 ; ffffffebH
  00203	eb 4d		 jmp	 SHORT $LN1@LoadFloat_
$LN83@LoadFloat_:
  00205	88 4d ed	 mov	 BYTE PTR __k$[ebp+13], cl
  00208	eb 48		 jmp	 SHORT $LN1@LoadFloat_
$LN84@LoadFloat_:
  0020a	c6 45 ec ed	 mov	 BYTE PTR __k$[ebp+12], -19 ; ffffffedH
  0020e	eb 42		 jmp	 SHORT $LN1@LoadFloat_
$LN85@LoadFloat_:
  00210	88 5d eb	 mov	 BYTE PTR __k$[ebp+11], bl
  00213	eb 3d		 jmp	 SHORT $LN1@LoadFloat_
$LN86@LoadFloat_:
  00215	c6 45 ea eb	 mov	 BYTE PTR __k$[ebp+10], -21 ; ffffffebH
  00219	eb 37		 jmp	 SHORT $LN1@LoadFloat_
$LN87@LoadFloat_:
  0021b	88 4d e9	 mov	 BYTE PTR __k$[ebp+9], cl
  0021e	eb 32		 jmp	 SHORT $LN1@LoadFloat_
$LN88@LoadFloat_:
  00220	c6 45 e8 ed	 mov	 BYTE PTR __k$[ebp+8], -19 ; ffffffedH
  00224	eb 2c		 jmp	 SHORT $LN1@LoadFloat_
$LN89@LoadFloat_:
  00226	88 5d e7	 mov	 BYTE PTR __k$[ebp+7], bl
  00229	eb 27		 jmp	 SHORT $LN1@LoadFloat_
$LN90@LoadFloat_:
  0022b	c6 45 e6 eb	 mov	 BYTE PTR __k$[ebp+6], -21 ; ffffffebH
  0022f	eb 21		 jmp	 SHORT $LN1@LoadFloat_
$LN91@LoadFloat_:
  00231	88 4d e5	 mov	 BYTE PTR __k$[ebp+5], cl
  00234	eb 1c		 jmp	 SHORT $LN1@LoadFloat_
$LN92@LoadFloat_:
  00236	c6 45 e4 ed	 mov	 BYTE PTR __k$[ebp+4], -19 ; ffffffedH
  0023a	eb 16		 jmp	 SHORT $LN1@LoadFloat_
$LN93@LoadFloat_:
  0023c	c6 45 e3 ea	 mov	 BYTE PTR __k$[ebp+3], -22 ; ffffffeaH
  00240	eb 10		 jmp	 SHORT $LN1@LoadFloat_
$LN94@LoadFloat_:
  00242	c6 45 e2 eb	 mov	 BYTE PTR __k$[ebp+2], -21 ; ffffffebH
  00246	eb 0a		 jmp	 SHORT $LN1@LoadFloat_
$LN95@LoadFloat_:
  00248	c6 45 e1 ec	 mov	 BYTE PTR __k$[ebp+1], -20 ; ffffffecH
  0024c	eb 04		 jmp	 SHORT $LN1@LoadFloat_
$LN96@LoadFloat_:
  0024e	c6 45 e0 ed	 mov	 BYTE PTR __k$[ebp], -19	; ffffffedH
$LN1@LoadFloat_:
  00252	6a 05		 push	 5
  00254	8d 45 e0	 lea	 eax, DWORD PTR __k$[ebp]
  00257	c6 45 f6 00	 mov	 BYTE PTR __k$[ebp+22], 0
  0025b	5a		 pop	 edx
$LL104@LoadFloat_:
  0025c	81 30 ed ec eb
	ea		 xor	 DWORD PTR [eax], -353637139 ; eaebecedH
  00262	83 c0 04	 add	 eax, 4
  00265	4a		 dec	 edx
  00266	75 f4		 jne	 SHORT $LL104@LoadFloat_
  00268	6a 14		 push	 20			; 00000014H
  0026a	58		 pop	 eax
$LL101@LoadFloat_:
  0026b	8b c8		 mov	 ecx, eax
  0026d	81 e1 03 00 00
	80		 and	 ecx, -2147483645	; 80000003H
  00273	79 05		 jns	 SHORT $LN111@LoadFloat_
  00275	49		 dec	 ecx
  00276	83 c9 fc	 or	 ecx, -4			; fffffffcH
  00279	41		 inc	 ecx
$LN111@LoadFloat_:
  0027a	b2 ed		 mov	 dl, -19			; ffffffedH
  0027c	2a d1		 sub	 dl, cl
  0027e	30 54 05 e0	 xor	 BYTE PTR __k$[ebp+eax], dl
  00282	40		 inc	 eax
  00283	83 f8 16	 cmp	 eax, 22			; 00000016H
  00286	7c e3		 jl	 SHORT $LL101@LoadFloat_

; 137  : 		return LoadFloat(_k, f);

  00288	f3 0f 10 45 0c	 movss	 xmm0, DWORD PTR _f$[ebp]
  0028d	51		 push	 ecx
  0028e	8d 45 e0	 lea	 eax, DWORD PTR __k$[ebp]
  00291	f3 0f 11 04 24	 movss	 DWORD PTR [esp], xmm0
  00296	50		 push	 eax
  00297	8b ce		 mov	 ecx, esi
  00299	ff 15 00 00 00
	00		 call	 DWORD PTR __imp_?LoadFloat@ioINILoader@@QAEMPBDM@Z

; 138  : 	}

  0029f	8b 4d fc	 mov	 ecx, DWORD PTR __$ArrayPad$[ebp]
  002a2	5e		 pop	 esi
  002a3	33 cd		 xor	 ecx, ebp
  002a5	5b		 pop	 ebx
  002a6	e8 00 00 00 00	 call	 @__security_check_cookie@4
  002ab	c9		 leave
  002ac	c2 08 00	 ret	 8
??$LoadFloat_e@$0BH@@ioINILoader@@QAEMAAY0BH@$$CBDM@Z ENDP ; ioINILoader::LoadFloat_e<23>
_TEXT	ENDS
PUBLIC	_this$GSCopy$
PUBLIC	__$ArrayPad$
PUBLIC	??$LoadString_e@$0O@@ioINILoader@@QAEXAAY0O@$$CBDAAY00$$CBDPADH@Z ; ioINILoader::LoadString_e<14>
; Function compile flags: /Ogsp
;	COMDAT ??$LoadString_e@$0O@@ioINILoader@@QAEXAAY0O@$$CBDAAY00$$CBDPADH@Z
_TEXT	SEGMENT
_this$GSCopy$ = -28					; size = 4
__k$ = -24						; size = 14
__$ArrayPad$ = -4					; size = 4
_k$ = 8							; size = 4
_d$ = 12						; size = 4
_b$ = 16						; size = 4
_i$ = 20						; size = 4
??$LoadString_e@$0O@@ioINILoader@@QAEXAAY0O@$$CBDAAY00$$CBDPADH@Z PROC ; ioINILoader::LoadString_e<14>, COMDAT
; _this$ = ecx

; 161  : 	{

  00000	55		 push	 ebp
  00001	8b ec		 mov	 ebp, esp
  00003	83 ec 1c	 sub	 esp, 28			; 0000001cH
  00006	a1 00 00 00 00	 mov	 eax, DWORD PTR ___security_cookie
  0000b	33 c5		 xor	 eax, ebp
  0000d	89 45 fc	 mov	 DWORD PTR __$ArrayPad$[ebp], eax
  00010	8b 45 08	 mov	 eax, DWORD PTR _k$[ebp]

; 162  : 		_ENCSTR(k, _k);

  00013	8a 10		 mov	 dl, BYTE PTR [eax]
  00015	56		 push	 esi
  00016	8b 75 0c	 mov	 esi, DWORD PTR _d$[ebp]
  00019	57		 push	 edi
  0001a	8b 7d 10	 mov	 edi, DWORD PTR _b$[ebp]
  0001d	89 4d e4	 mov	 DWORD PTR _this$GSCopy$[ebp], ecx
  00020	84 d2		 test	 dl, dl
  00022	0f 84 64 01 00
