; Listing generated by Microsoft (R) Optimizing Compiler Version 16.00.30319.01 

	TITLE	D:\Lost Saga For Developer\Youtube\Tutorial\Source\src\LSClient\ioCreateDummyChar2Buff.cpp
	.686P
	.XMM
	include listing.inc
	.model	flat

INCLUDELIB MSVCRT
INCLUDELIB OLDNAMES

PUBLIC	?_EEM_DS@?$deque@UD3DXVECTOR3@@V?$allocator@UD3DXVECTOR3@@@std@@@std@@2HB ; std::deque<D3DXVECTOR3,std::allocator<D3DXVECTOR3> >::_EEM_DS
;	COMDAT ?_EEM_DS@?$deque@UD3DXVECTOR3@@V?$allocator@UD3DXVECTOR3@@@std@@@std@@2HB
CONST	SEGMENT
?_EEM_DS@?$deque@UD3DXVECTOR3@@V?$allocator@UD3DXVECTOR3@@@std@@@std@@2HB DD 01H ; std::deque<D3DXVECTOR3,std::allocator<D3DXVECTOR3> >::_EEM_DS
CONST	ENDS
PUBLIC	?return1@@YAIXZ					; return1
; Function compile flags: /Ogsp
; File d:\lost saga for developer\youtube\tutorial\source\src\lsclient\stdafx.h
;	COMDAT ?return1@@YAIXZ
_TEXT	SEGMENT
?return1@@YAIXZ PROC					; return1, COMDAT

; 17   : 	__forceinline unsigned int return1() { __asm mov eax, 1 };

  00000	b8 01 00 00 00	 mov	 eax, 1
  00005	c3		 ret	 0
?return1@@YAIXZ ENDP					; return1
_TEXT	ENDS
PUBLIC	?return100@@YAIXZ				; return100
; Function compile flags: /Ogsp
;	COMDAT ?return100@@YAIXZ
_TEXT	SEGMENT
?return100@@YAIXZ PROC					; return100, COMDAT

; 25   : 	__forceinline unsigned int return100() { __asm mov eax, 100 };

  00000	b8 64 00 00 00	 mov	 eax, 100		; 00000064H
  00005	c3		 ret	 0
?return100@@YAIXZ ENDP					; return100
_TEXT	ENDS
PUBLIC	?GetBlowStopMotionState@ioBaseChar@@QBE_NXZ	; ioBaseChar::GetBlowStopMotionState
; Function compile flags: /Ogsp
; File d:\lost saga for developer\youtube\tutorial\source\src\lsclient\iobasechar.h
;	COMDAT ?GetBlowStopMotionState@ioBaseChar@@QBE_NXZ
_TEXT	SEGMENT
?GetBlowStopMotionState@ioBaseChar@@QBE_NXZ PROC	; ioBaseChar::GetBlowStopMotionState, COMDAT
; _this$ = ecx

; 1566 : 	inline bool GetBlowStopMotionState() const { return m_bBlowStopMotion; }

  00000	8a 81 c7 15 00
	00		 mov	 al, BYTE PTR [ecx+5575]
  00006	c3		 ret	 0
?GetBlowStopMotionState@ioBaseChar@@QBE_NXZ ENDP	; ioBaseChar::GetBlowStopMotionState
_TEXT	ENDS
PUBLIC	?GetBlowFrozenState@ioBaseChar@@QBE_NXZ		; ioBaseChar::GetBlowFrozenState
; Function compile flags: /Ogsp
;	COMDAT ?GetBlowFrozenState@ioBaseChar@@QBE_NXZ
_TEXT	SEGMENT
?GetBlowFrozenState@ioBaseChar@@QBE_NXZ PROC		; ioBaseChar::GetBlowFrozenState, COMDAT
; _this$ = ecx

; 1571 : 	inline bool GetBlowFrozenState() const { return m_bBlowFrozenState; }

  00000	8a 81 c5 15 00
	00		 mov	 al, BYTE PTR [ecx+5573]
  00006	c3		 ret	 0
?GetBlowFrozenState@ioBaseChar@@QBE_NXZ ENDP		; ioBaseChar::GetBlowFrozenState
_TEXT	ENDS
PUBLIC	?GetState@ioBaseChar@@QBE?AW4CharState@@XZ	; ioBaseChar::GetState
; Function compile flags: /Ogsp
;	COMDAT ?GetState@ioBaseChar@@QBE?AW4CharState@@XZ
_TEXT	SEGMENT
?GetState@ioBaseChar@@QBE?AW4CharState@@XZ PROC		; ioBaseChar::GetState, COMDAT
; _this$ = ecx

; 2156 : 	inline CharState GetState() const { return m_CharState; }	

  00000	8a 81 10 03 00
	00		 mov	 al, BYTE PTR [ecx+784]
  00006	c3		 ret	 0
?GetState@ioBaseChar@@QBE?AW4CharState@@XZ ENDP		; ioBaseChar::GetState
_TEXT	ENDS
PUBLIC	?GetCharName@ioBaseChar@@QBEABVioHashString@@XZ	; ioBaseChar::GetCharName
; Function compile flags: /Ogsp
;	COMDAT ?GetCharName@ioBaseChar@@QBEABVioHashString@@XZ
_TEXT	SEGMENT
?GetCharName@ioBaseChar@@QBEABVioHashString@@XZ PROC	; ioBaseChar::GetCharName, COMDAT
; _this$ = ecx

; 2594 : 	inline const ioHashString& GetCharName() const { return m_Name; }

  00000	8d 81 d4 02 00
	00		 lea	 eax, DWORD PTR [ecx+724]
  00006	c3		 ret	 0
?GetCharName@ioBaseChar@@QBEABVioHashString@@XZ ENDP	; ioBaseChar::GetCharName
_TEXT	ENDS
PUBLIC	?GetTargetRot@ioBaseChar@@QBEABUD3DXQUATERNION@@XZ ; ioBaseChar::GetTargetRot
; Function compile flags: /Ogsp
;	COMDAT ?GetTargetRot@ioBaseChar@@QBEABUD3DXQUATERNION@@XZ
_TEXT	SEGMENT
?GetTargetRot@ioBaseChar@@QBEABUD3DXQUATERNION@@XZ PROC	; ioBaseChar::GetTargetRot, COMDAT
; _this$ = ecx

; 2599 : 	inline const D3DXQUATERNION& GetTargetRot() const { return m_qtTargetRot; }

  00000	8d 81 a4 06 00
	00		 lea	 eax, DWORD PTR [ecx+1700]
  00006	c3		 ret	 0
?GetTargetRot@ioBaseChar@@QBEABUD3DXQUATERNION@@XZ ENDP	; ioBaseChar::GetTargetRot
_TEXT	ENDS
PUBLIC	??_7bad_alloc@std@@6B@				; std::bad_alloc::`vftable'
PUBLIC	??0bad_alloc@std@@QAE@PBD@Z			; std::bad_alloc::bad_alloc
PUBLIC	??_R4bad_alloc@std@@6B@				; std::bad_alloc::`RTTI Complete Object Locator'
PUBLIC	??_R0?AVbad_alloc@std@@@8			; std::bad_alloc `RTTI Type Descriptor'
PUBLIC	??_R3bad_alloc@std@@8				; std::bad_alloc::`RTTI Class Hierarchy Descriptor'
PUBLIC	??_R2bad_alloc@std@@8				; std::bad_alloc::`RTTI Base Class Array'
PUBLIC	??_R1A@?0A@EA@bad_alloc@std@@8			; std::bad_alloc::`RTTI Base Class Descriptor at (0,-1,0,64)'
PUBLIC	??_R1A@?0A@EA@exception@std@@8			; std::exception::`RTTI Base Class Descriptor at (0,-1,0,64)'
PUBLIC	??_R0?AVexception@std@@@8			; std::exception `RTTI Type Descriptor'
PUBLIC	??_R3exception@std@@8				; std::exception::`RTTI Class Hierarchy Descriptor'
PUBLIC	??_R2exception@std@@8				; std::exception::`RTTI Base Class Array'
EXTRN	__imp_??0exception@std@@QAE@ABQBD@Z:PROC
EXTRN	??_7type_info@@6B@:QWORD			; type_info::`vftable'
EXTRN	??_Ebad_alloc@std@@UAEPAXI@Z:PROC		; std::bad_alloc::`vector deleting destructor'
EXTRN	?what@exception@std@@UBEPBDXZ:PROC		; std::exception::what
;	COMDAT ??_R2exception@std@@8
; File c:\program files (x86)\microsoft visual studio 10.0\vc\include\exception
rdata$r	SEGMENT
??_R2exception@std@@8 DD FLAT:??_R1A@?0A@EA@exception@std@@8 ; std::exception::`RTTI Base Class Array'
rdata$r	ENDS
;	COMDAT ??_R3exception@std@@8
rdata$r	SEGMENT
??_R3exception@std@@8 DD 00H				; std::exception::`RTTI Class Hierarchy Descriptor'
	DD	00H
	DD	01H
	DD	FLAT:??_R2exception@std@@8
rdata$r	ENDS
;	COMDAT ??_R0?AVexception@std@@@8
_DATA	SEGMENT
??_R0?AVexception@std@@@8 DD FLAT:??_7type_info@@6B@	; std::exception `RTTI Type Descriptor'
	DD	00H
	DB	'.?AVexception@std@@', 00H
_DATA	ENDS
;	COMDAT ??_R1A@?0A@EA@exception@std@@8
rdata$r	SEGMENT
??_R1A@?0A@EA@exception@std@@8 DD FLAT:??_R0?AVexception@std@@@8 ; std::exception::`RTTI Base Class Descriptor at (0,-1,0,64)'
	DD	00H
	DD	00H
	DD	0ffffffffH
	DD	00H
	DD	040H
	DD	FLAT:??_R3exception@std@@8
rdata$r	ENDS
;	COMDAT ??_R1A@?0A@EA@bad_alloc@std@@8
rdata$r	SEGMENT
??_R1A@?0A@EA@bad_alloc@std@@8 DD FLAT:??_R0?AVbad_alloc@std@@@8 ; std::bad_alloc::`RTTI Base Class Descriptor at (0,-1,0,64)'
	DD	01H
	DD	00H
	DD	0ffffffffH
	DD	00H
	DD	040H
	DD	FLAT:??_R3bad_alloc@std@@8
rdata$r	ENDS
;	COMDAT ??_R2bad_alloc@std@@8
rdata$r	SEGMENT
??_R2bad_alloc@std@@8 DD FLAT:??_R1A@?0A@EA@bad_alloc@std@@8 ; std::bad_alloc::`RTTI Base Class Array'
	DD	FLAT:??_R1A@?0A@EA@exception@std@@8
rdata$r	ENDS
;	COMDAT ??_R3bad_alloc@std@@8
rdata$r	SEGMENT
??_R3bad_alloc@std@@8 DD 00H				; std::bad_alloc::`RTTI Class Hierarchy Descriptor'
	DD	00H
	DD	02H
	DD	FLAT:??_R2bad_alloc@std@@8
rdata$r	ENDS
;	COMDAT ??_R0?AVbad_alloc@std@@@8
_DATA	SEGMENT
??_R0?AVbad_alloc@std@@@8 DD FLAT:??_7type_info@@6B@	; std::bad_alloc `RTTI Type Descriptor'
	DD	00H
	DB	'.?AVbad_alloc@std@@', 00H
_DATA	ENDS
;	COMDAT ??_R4bad_alloc@std@@6B@
rdata$r	SEGMENT
??_R4bad_alloc@std@@6B@ DD 00H				; std::bad_alloc::`RTTI Complete Object Locator'
	DD	00H
	DD	00H
	DD	FLAT:??_R0?AVbad_alloc@std@@@8
	DD	FLAT:??_R3bad_alloc@std@@8
rdata$r	ENDS
;	COMDAT ??_7bad_alloc@std@@6B@
CONST	SEGMENT
??_7bad_alloc@std@@6B@ DD FLAT:??_R4bad_alloc@std@@6B@	; std::bad_alloc::`vftable'
	DD	FLAT:??_Ebad_alloc@std@@UAEPAXI@Z
	DD	FLAT:?what@exception@std@@UBEPBDXZ
; Function compile flags: /Ogsp
CONST	ENDS
;	COMDAT ??0bad_alloc@std@@QAE@PBD@Z
_TEXT	SEGMENT
__Message$ = 8						; size = 4
??0bad_alloc@std@@QAE@PBD@Z PROC			; std::bad_alloc::bad_alloc, COMDAT
; _this$ = ecx

; 345  : 		{	// construct from message string

  00000	55		 push	 ebp
  00001	8b ec		 mov	 ebp, esp
  00003	56		 push	 esi
  00004	8d 45 08	 lea	 eax, DWORD PTR __Message$[ebp]
  00007	50		 push	 eax
  00008	8b f1		 mov	 esi, ecx
  0000a	ff 15 00 00 00
	00		 call	 DWORD PTR __imp_??0exception@std@@QAE@ABQBD@Z
  00010	c7 06 00 00 00
	00		 mov	 DWORD PTR [esi], OFFSET ??_7bad_alloc@std@@6B@

; 346  : 		}

  00016	8b c6		 mov	 eax, esi
  00018	5e		 pop	 esi
  00019	5d		 pop	 ebp
  0001a	c2 04 00	 ret	 4
??0bad_alloc@std@@QAE@PBD@Z ENDP			; std::bad_alloc::bad_alloc
_TEXT	ENDS
PUBLIC	??1bad_alloc@std@@UAE@XZ			; std::bad_alloc::~bad_alloc
EXTRN	__imp_??1exception@std@@UAE@XZ:PROC
; Function compile flags: /Ogsp
;	COMDAT ??1bad_alloc@std@@UAE@XZ
_TEXT	SEGMENT
??1bad_alloc@std@@UAE@XZ PROC				; std::bad_alloc::~bad_alloc, COMDAT
; _this$ = ecx

; 354  : 		{	// destroy the object

  00000	c7 01 00 00 00
	00		 mov	 DWORD PTR [ecx], OFFSET ??_7bad_alloc@std@@6B@

; 355  : 		}

  00006	ff 25 00 00 00
	00		 jmp	 DWORD PTR __imp_??1exception@std@@UAE@XZ
??1bad_alloc@std@@UAE@XZ ENDP				; std::bad_alloc::~bad_alloc
_TEXT	ENDS
EXTRN	??3@YAXPAX@Z:PROC				; operator delete
; Function compile flags: /Ogsp
;	COMDAT ??_Gbad_alloc@std@@UAEPAXI@Z
_TEXT	SEGMENT
___flags$ = 8						; size = 4
??_Gbad_alloc@std@@UAEPAXI@Z PROC			; std::bad_alloc::`scalar deleting destructor', COMDAT
; _this$ = ecx
  00000	55		 push	 ebp
  00001	8b ec		 mov	 ebp, esp
  00003	56		 push	 esi
  00004	8b f1		 mov	 esi, ecx
  00006	c7 06 00 00 00
	00		 mov	 DWORD PTR [esi], OFFSET ??_7bad_alloc@std@@6B@
  0000c	ff 15 00 00 00
	00		 call	 DWORD PTR __imp_??1exception@std@@UAE@XZ
  00012	f6 45 08 01	 test	 BYTE PTR ___flags$[ebp], 1
  00016	74 07		 je	 SHORT $LN1@scalar
  00018	56		 push	 esi
  00019	e8 00 00 00 00	 call	 ??3@YAXPAX@Z		; operator delete
  0001e	59		 pop	 ecx
$LN1@scalar:
  0001f	8b c6		 mov	 eax, esi
  00021	5e		 pop	 esi
  00022	5d		 pop	 ebp
  00023	c2 04 00	 ret	 4
??_Gbad_alloc@std@@UAEPAXI@Z ENDP			; std::bad_alloc::`scalar deleting destructor'
_TEXT	ENDS
PUBLIC	??2@YAPAXIPAX@Z					; operator new
; Function compile flags: /Ogsp
; File c:\program files (x86)\microsoft visual studio 10.0\vc\include\new
;	COMDAT ??2@YAPAXIPAX@Z
_TEXT	SEGMENT
___formal$ = 8						; size = 4
__Where$ = 12						; size = 4
??2@YAPAXIPAX@Z PROC					; operator new, COMDAT

; 56   : 	{	// construct array with placement at _Where

  00000	55		 push	 ebp
  00001	8b ec		 mov	 ebp, esp

; 57   : 	return (_Where);

  00003	8b 45 0c	 mov	 eax, DWORD PTR __Where$[ebp]

; 58   : 	}

  00006	5d		 pop	 ebp
  00007	c3		 ret	 0
??2@YAPAXIPAX@Z ENDP					; operator new
_TEXT	ENDS
PUBLIC	??3@YAXPAX0@Z					; operator delete
; Function compile flags: /Ogsp
;	COMDAT ??3@YAXPAX0@Z
_TEXT	SEGMENT
___formal$ = 8						; size = 4
___formal$ = 12						; size = 4
??3@YAXPAX0@Z PROC					; operator delete, COMDAT

; 62   : 	}

  00000	c3		 ret	 0
??3@YAXPAX0@Z ENDP					; operator delete
_TEXT	ENDS
PUBLIC	?GetCreator@ioBaseChar@@QAEPAVioPlayStage@@XZ	; ioBaseChar::GetCreator
; Function compile flags: /Ogsp
; File d:\lost saga for developer\youtube\tutorial\source\src\lsclient\iobasechar.h
;	COMDAT ?GetCreator@ioBaseChar@@QAEPAVioPlayStage@@XZ
_TEXT	SEGMENT
?GetCreator@ioBaseChar@@QAEPAVioPlayStage@@XZ PROC	; ioBaseChar::GetCreator, COMDAT
; _this$ = ecx

; 4013 : 	inline ioPlayStage* GetCreator() { return m_pCreator; }

  00000	8b 81 44 03 00
	00		 mov	 eax, DWORD PTR [ecx+836]
  00006	c3		 ret	 0
?GetCreator@ioBaseChar@@QAEPAVioPlayStage@@XZ ENDP	; ioBaseChar::GetCreator
_TEXT	ENDS
PUBLIC	?ApplyStartBuff@ioCreateDummyChar2Buff@@UAE_NPAVioBaseChar@@KK@Z ; ioCreateDummyChar2Buff::ApplyStartBuff
EXTRN	?SetChangeEquipMesh@ioBaseChar@@QAEXABVioHashString@@_N@Z:PROC ; ioBaseChar::SetChangeEquipMesh
EXTRN	?ApplyStartBuff@ioBuff@@UAE_NPAVioBaseChar@@KK@Z:PROC ; ioBuff::ApplyStartBuff
; Function compile flags: /Ogsp
; File d:\lost saga for developer\youtube\tutorial\source\src\lsclient\iocreatedummychar2buff.cpp
;	COMDAT ?ApplyStartBuff@ioCreateDummyChar2Buff@@UAE_NPAVioBaseChar@@KK@Z
_TEXT	SEGMENT
_pOwner$ = 8						; size = 4
_dwGlobalTime$ = 12					; size = 4
_dwGapTime$ = 16					; size = 4
?ApplyStartBuff@ioCreateDummyChar2Buff@@UAE_NPAVioBaseChar@@KK@Z PROC ; ioCreateDummyChar2Buff::ApplyStartBuff, COMDAT
; _this$ = ecx

; 79   : {

  00000	55		 push	 ebp
  00001	8b ec		 mov	 ebp, esp
  00003	56		 push	 esi

; 80   : 	if( !ioBuff::ApplyStartBuff( pOwner, dwGlobalTime, dwGapTime ) )

  00004	ff 75 10	 push	 DWORD PTR _dwGapTime$[ebp]
  00007	8b f1		 mov	 esi, ecx
  00009	ff 75 0c	 push	 DWORD PTR _dwGlobalTime$[ebp]
  0000c	ff 75 08	 push	 DWORD PTR _pOwner$[ebp]
  0000f	e8 00 00 00 00	 call	 ?ApplyStartBuff@ioBuff@@UAE_NPAVioBaseChar@@KK@Z ; ioBuff::ApplyStartBuff
  00014	84 c0		 test	 al, al
  00016	74 3c		 je	 SHORT $LN3@ApplyStart
$LN2@ApplyStart:
  00018	53		 push	 ebx

; 81   : 		return false;
; 82   : 
; 83   : 	if( m_bUseWeaponEquipMesh && pOwner )

  00019	33 db		 xor	 ebx, ebx
  0001b	38 9e 71 09 00
	00		 cmp	 BYTE PTR [esi+2417], bl
  00021	74 16		 je	 SHORT $LN1@ApplyStart
  00023	39 5d 08	 cmp	 DWORD PTR _pOwner$[ebp], ebx
  00026	74 11		 je	 SHORT $LN1@ApplyStart

; 84   : 	{
; 85   : 		pOwner->SetChangeEquipMesh( m_ItemName, true );

  00028	8b 4d 08	 mov	 ecx, DWORD PTR _pOwner$[ebp]
  0002b	6a 01		 push	 1
  0002d	8d 86 44 02 00
	00		 lea	 eax, DWORD PTR [esi+580]
  00033	50		 push	 eax
  00034	e8 00 00 00 00	 call	 ?SetChangeEquipMesh@ioBaseChar@@QAEXABVioHashString@@_N@Z ; ioBaseChar::SetChangeEquipMesh
$LN1@ApplyStart:

; 86   : 	}
; 87   : 
; 88   : 	m_BuffState = BS_READY;

  00039	89 9e 6c 09 00
	00		 mov	 DWORD PTR [esi+2412], ebx

; 89   : 	m_dwMotionEndTime     = 0;

  0003f	89 9e d4 09 00
	00		 mov	 DWORD PTR [esi+2516], ebx

; 90   : 	m_dwFireMotionEndTime = 0;

  00045	89 9e d8 09 00
	00		 mov	 DWORD PTR [esi+2520], ebx

; 91   : 	m_dwCreateTime        = 0;

  0004b	89 9e dc 09 00
	00		 mov	 DWORD PTR [esi+2524], ebx

; 92   : 
; 93   : 	return true;

  00051	b0 01		 mov	 al, 1
  00053	5b		 pop	 ebx
$LN3@ApplyStart:
  00054	5e		 pop	 esi

; 94   : }

  00055	5d		 pop	 ebp
  00056	c2 0c 00	 ret	 12			; 0000000cH
?ApplyStartBuff@ioCreateDummyChar2Buff@@UAE_NPAVioBaseChar@@KK@Z ENDP ; ioCreateDummyChar2Buff::ApplyStartBuff
_TEXT	ENDS
PUBLIC	?CheckRestoreStateCheck@ioCreateDummyChar2Buff@@IAE_NXZ ; ioCreateDummyChar2Buff::CheckRestoreStateCheck
; Function compile flags: /Ogsp
;	COMDAT ?CheckRestoreStateCheck@ioCreateDummyChar2Buff@@IAE_NXZ
_TEXT	SEGMENT
?CheckRestoreStateCheck@ioCreateDummyChar2Buff@@IAE_NXZ PROC ; ioCreateDummyChar2Buff::CheckRestoreStateCheck, COMDAT
; _this$ = ecx

; 213  : 	if( !m_pOwner ) return false;

  00000	8b 81 74 02 00
	00		 mov	 eax, DWORD PTR [ecx+628]
  00006	85 c0		 test	 eax, eax
  00008	75 03		 jne	 SHORT $LN4@CheckResto
  0000a	32 c0		 xor	 al, al

; 218  : 	{
; 219  : 	case CS_DELAY:
; 220  : 	case CS_RUN:
; 221  : 	case CS_DASH:
; 222  : 		return true;
; 223  : 	}
; 224  : 
; 225  : 	return false;
; 226  : }

  0000c	c3		 ret	 0
$LN4@CheckResto:

; 214  : 
; 215  : 	CharState eState = m_pOwner->GetState();

  0000d	8a 80 10 03 00
	00		 mov	 al, BYTE PTR [eax+784]

; 216  : 
; 217  : 	switch( eState )

  00013	b1 02		 mov	 cl, 2
  00015	3a c8		 cmp	 cl, al
  00017	1a c0		 sbb	 al, al
  00019	fe c0		 inc	 al

; 218  : 	{
; 219  : 	case CS_DELAY:
; 220  : 	case CS_RUN:
; 221  : 	case CS_DASH:
; 222  : 		return true;
; 223  : 	}
; 224  : 
; 225  : 	return false;
; 226  : }

  0001b	c3		 ret	 0
?CheckRestoreStateCheck@ioCreateDummyChar2Buff@@IAE_NXZ ENDP ; ioCreateDummyChar2Buff::CheckRestoreStateCheck
_TEXT	ENDS
PUBLIC	?EndBuff@ioCreateDummyChar2Buff@@UAEXXZ		; ioCreateDummyChar2Buff::EndBuff
EXTRN	?EndBuff@ioBuff@@UAEXXZ:PROC			; ioBuff::EndBuff
; Function compile flags: /Ogsp
;	COMDAT ?EndBuff@ioCreateDummyChar2Buff@@UAEXXZ
_TEXT	SEGMENT
?EndBuff@ioCreateDummyChar2Buff@@UAEXXZ PROC		; ioCreateDummyChar2Buff::EndBuff, COMDAT
; _this$ = ecx

; 229  : {

  00000	56		 push	 esi
  00001	8b f1		 mov	 esi, ecx

; 230  : 	if( m_bUseWeaponEquipMesh && m_pOwner )

  00003	80 be 71 09 00
	00 00		 cmp	 BYTE PTR [esi+2417], 0
  0000a	74 18		 je	 SHORT $LN1@EndBuff
  0000c	8b 8e 74 02 00
	00		 mov	 ecx, DWORD PTR [esi+628]
  00012	85 c9		 test	 ecx, ecx
  00014	74 0e		 je	 SHORT $LN1@EndBuff

; 231  : 	{
; 232  : 		m_pOwner->SetChangeEquipMesh( m_ItemName, false );

  00016	6a 00		 push	 0
  00018	8d 86 44 02 00
	00		 lea	 eax, DWORD PTR [esi+580]
  0001e	50		 push	 eax
  0001f	e8 00 00 00 00	 call	 ?SetChangeEquipMesh@ioBaseChar@@QAEXABVioHashString@@_N@Z ; ioBaseChar::SetChangeEquipMesh
$LN1@EndBuff:

; 233  : 	}
; 234  : 
; 235  : 	ioBuff::EndBuff();

  00024	8b ce		 mov	 ecx, esi
  00026	5e		 pop	 esi
  00027	e9 00 00 00 00	 jmp	 ?EndBuff@ioBuff@@UAEXXZ	; ioBuff::EndBuff
?EndBuff@ioCreateDummyChar2Buff@@UAEXXZ ENDP		; ioCreateDummyChar2Buff::EndBuff
_TEXT	ENDS
PUBLIC	?GetBuffInfo@ioCreateDummyChar2Buff@@UAEXAAVSP2Packet@@@Z ; ioCreateDummyChar2Buff::GetBuffInfo
EXTRN	??6SP2Packet@@QAEAAV0@H@Z:PROC			; SP2Packet::operator<<
EXTRN	?GetBuffInfo@ioBuff@@UAEXAAVSP2Packet@@@Z:PROC	; ioBuff::GetBuffInfo
; Function compile flags: /Ogsp
;	COMDAT ?GetBuffInfo@ioCreateDummyChar2Buff@@UAEXAAVSP2Packet@@@Z
_TEXT	SEGMENT
_rkPacket$ = 8						; size = 4
?GetBuffInfo@ioCreateDummyChar2Buff@@UAEXAAVSP2Packet@@@Z PROC ; ioCreateDummyChar2Buff::GetBuffInfo, COMDAT
; _this$ = ecx

; 239  : {

  00000	55		 push	 ebp
  00001	8b ec		 mov	 ebp, esp
  00003	56		 push	 esi

; 240  : 	ioBuff::GetBuffInfo( rkPacket );

  00004	ff 75 08	 push	 DWORD PTR _rkPacket$[ebp]
  00007	8b f1		 mov	 esi, ecx
  00009	e8 00 00 00 00	 call	 ?GetBuffInfo@ioBuff@@UAEXAAVSP2Packet@@@Z ; ioBuff::GetBuffInfo

; 241  : 
; 242  : 	rkPacket << m_iCurActiveCount;

  0000e	ff b6 2c 09 00
	00		 push	 DWORD PTR [esi+2348]
  00014	8b 4d 08	 mov	 ecx, DWORD PTR _rkPacket$[ebp]
  00017	e8 00 00 00 00	 call	 ??6SP2Packet@@QAEAAV0@H@Z ; SP2Packet::operator<<
  0001c	5e		 pop	 esi

; 243  : }

  0001d	5d		 pop	 ebp
  0001e	c2 04 00	 ret	 4
?GetBuffInfo@ioCreateDummyChar2Buff@@UAEXAAVSP2Packet@@@Z ENDP ; ioCreateDummyChar2Buff::GetBuffInfo
_TEXT	ENDS
PUBLIC	?ApplyBuffInfo@ioCreateDummyChar2Buff@@UAEXAAVSP2Packet@@@Z ; ioCreateDummyChar2Buff::ApplyBuffInfo
EXTRN	??5SP2Packet@@QAEAAV0@AAH@Z:PROC		; SP2Packet::operator>>
; Function compile flags: /Ogsp
;	COMDAT ?ApplyBuffInfo@ioCreateDummyChar2Buff@@UAEXAAVSP2Packet@@@Z
_TEXT	SEGMENT
_rkPacket$ = 8						; size = 4
?ApplyBuffInfo@ioCreateDummyChar2Buff@@UAEXAAVSP2Packet@@@Z PROC ; ioCreateDummyChar2Buff::ApplyBuffInfo, COMDAT
; _this$ = ecx

; 246  : {

  00000	55		 push	 ebp
  00001	8b ec		 mov	 ebp, esp

; 247  : 	rkPacket >> m_iCurActiveCount;

  00003	81 c1 2c 09 00
	00		 add	 ecx, 2348		; 0000092cH
  00009	51		 push	 ecx
  0000a	8b 4d 08	 mov	 ecx, DWORD PTR _rkPacket$[ebp]
  0000d	e8 00 00 00 00	 call	 ??5SP2Packet@@QAEAAV0@AAH@Z ; SP2Packet::operator>>

; 248  : }

  00012	5d		 pop	 ebp
  00013	c2 04 00	 ret	 4
?ApplyBuffInfo@ioCreateDummyChar2Buff@@UAEXAAVSP2Packet@@@Z ENDP ; ioCreateDummyChar2Buff::ApplyBuffInfo
_TEXT	ENDS
PUBLIC	?CheckActiveCount@ioCreateDummyChar2Buff@@UAEXXZ ; ioCreateDummyChar2Buff::CheckActiveCount
; Function compile flags: /Ogsp
;	COMDAT ?CheckActiveCount@ioCreateDummyChar2Buff@@UAEXXZ
_TEXT	SEGMENT
?CheckActiveCount@ioCreateDummyChar2Buff@@UAEXXZ PROC	; ioCreateDummyChar2Buff::CheckActiveCount, COMDAT
; _this$ = ecx

; 252  : 	m_iCurActiveCount--;

  00000	8d 81 2c 09 00
	00		 lea	 eax, DWORD PTR [ecx+2348]
  00006	ff 08		 dec	 DWORD PTR [eax]
  00008	8b 08		 mov	 ecx, DWORD PTR [eax]

; 253  : 	m_iCurActiveCount = max( m_iCurActiveCount, 0 );

  0000a	85 c9		 test	 ecx, ecx
  0000c	7f 02		 jg	 SHORT $LN4@CheckActiv
  0000e	33 c9		 xor	 ecx, ecx
$LN4@CheckActiv:
  00010	89 08		 mov	 DWORD PTR [eax], ecx

; 254  : }

  00012	c3		 ret	 0
?CheckActiveCount@ioCreateDummyChar2Buff@@UAEXXZ ENDP	; ioCreateDummyChar2Buff::CheckActiveCount
_TEXT	ENDS
PUBLIC	?SetReadyState@ioCreateDummyChar2Buff@@IAEXPAVioBaseChar@@@Z ; ioCreateDummyChar2Buff::SetReadyState
; Function compile flags: /Ogsp
;	COMDAT ?SetReadyState@ioCreateDummyChar2Buff@@IAEXPAVioBaseChar@@@Z
_TEXT	SEGMENT
_pOwner$ = 8						; size = 4
?SetReadyState@ioCreateDummyChar2Buff@@IAEXPAVioBaseChar@@@Z PROC ; ioCreateDummyChar2Buff::SetReadyState, COMDAT
; _this$ = ecx

; 336  : 	m_BuffState = BS_READY;

  00000	33 c0		 xor	 eax, eax
  00002	89 81 6c 09 00
	00		 mov	 DWORD PTR [ecx+2412], eax

; 337  : 	m_dwFireMotionEndTime = 0;

  00008	89 81 d8 09 00
	00		 mov	 DWORD PTR [ecx+2520], eax

; 338  : 	m_dwMotionEndTime     = 0;

  0000e	89 81 d4 09 00
	00		 mov	 DWORD PTR [ecx+2516], eax

; 339  : 	m_dwCreateTime        = 0;

  00014	89 81 dc 09 00
	00		 mov	 DWORD PTR [ecx+2524], eax

; 340  : }

  0001a	c2 04 00	 ret	 4
?SetReadyState@ioCreateDummyChar2Buff@@IAEXPAVioBaseChar@@@Z ENDP ; ioCreateDummyChar2Buff::SetReadyState
_TEXT	ENDS
PUBLIC	?_Adopt@_Iterator_base0@std@@QAEXPBX@Z		; std::_Iterator_base0::_Adopt
; Function compile flags: /Ogsp
; File c:\program files (x86)\microsoft visual studio 10.0\vc\include\xutility
;	COMDAT ?_Adopt@_Iterator_base0@std@@QAEXPBX@Z
_TEXT	SEGMENT
___formal$ = 8						; size = 4
?_Adopt@_Iterator_base0@std@@QAEXPBX@Z PROC		; std::_Iterator_base0::_Adopt, COMDAT
; _this$ = ecx

; 49   : 		}

  00000	c2 04 00	 ret	 4
?_Adopt@_Iterator_base0@std@@QAEXPBX@Z ENDP		; std::_Iterator_base0::_Adopt
_TEXT	ENDS
PUBLIC	??1tagDummyCharCreateInfo@@QAE@XZ		; tagDummyCharCreateInfo::~tagDummyCharCreateInfo
EXTRN	__imp_??1ioHashString@@QAE@XZ:PROC
; Function compile flags: /Ogsp
;	COMDAT ??1tagDummyCharCreateInfo@@QAE@XZ
_TEXT	SEGMENT
??1tagDummyCharCreateInfo@@QAE@XZ PROC			; tagDummyCharCreateInfo::~tagDummyCharCreateInfo, COMDAT
; _this$ = ecx
  00000	ff 25 00 00 00
	00		 jmp	 DWORD PTR __imp_??1ioHashString@@QAE@XZ
??1tagDummyCharCreateInfo@@QAE@XZ ENDP			; tagDummyCharCreateInfo::~tagDummyCharCreateInfo
_TEXT	ENDS
PUBLIC	?IsProtected@ioCreateDummyChar2Buff@@UAE_NXZ	; ioCreateDummyChar2Buff::IsProtected
EXTRN	__imp_?GetLoopSec@ioFrameTimer@@QBEKXZ:PROC
EXTRN	__imp_?GetSingleton@ioFrameTimer@@SAAAV1@XZ:PROC
; Function compile flags: /Ogsp
; File d:\lost saga for developer\youtube\tutorial\source\src\lsclient\iocreatedummychar2buff.cpp
;	COMDAT ?IsProtected@ioCreateDummyChar2Buff@@UAE_NXZ
_TEXT	SEGMENT
?IsProtected@ioCreateDummyChar2Buff@@UAE_NXZ PROC	; ioCreateDummyChar2Buff::IsProtected, COMDAT
; _this$ = ecx

; 430  : 	if( m_BuffState == BS_CREATE_DUMMY )

  00000	83 b9 6c 09 00
	00 01		 cmp	 DWORD PTR [ecx+2412], 1
  00007	56		 push	 esi
  00008	75 21		 jne	 SHORT $LN1@IsProtecte

; 431  : 	{
; 432  : 		if( m_dwFireMotionEndTime > 0 && m_dwFireMotionEndTime > FRAMEGETTIME() )

  0000a	8d b1 d8 09 00
	00		 lea	 esi, DWORD PTR [ecx+2520]
  00010	83 3e 00	 cmp	 DWORD PTR [esi], 0
  00013	76 16		 jbe	 SHORT $LN1@IsProtecte
  00015	ff 15 00 00 00
	00		 call	 DWORD PTR __imp_?GetSingleton@ioFrameTimer@@SAAAV1@XZ
  0001b	8b c8		 mov	 ecx, eax
  0001d	ff 15 00 00 00
	00		 call	 DWORD PTR __imp_?GetLoopSec@ioFrameTimer@@QBEKXZ
  00023	39 06		 cmp	 DWORD PTR [esi], eax
  00025	76 04		 jbe	 SHORT $LN1@IsProtecte

; 433  : 		{
; 434  : 			return true;

  00027	b0 01		 mov	 al, 1
  00029	5e		 pop	 esi

; 438  : }

  0002a	c3		 ret	 0
$LN1@IsProtecte:

; 435  : 		}
; 436  : 	}
; 437  : 	return false;

  0002b	32 c0		 xor	 al, al
  0002d	5e		 pop	 esi

; 438  : }

  0002e	c3		 ret	 0
?IsProtected@ioCreateDummyChar2Buff@@UAE_NXZ ENDP	; ioCreateDummyChar2Buff::IsProtected
_TEXT	ENDS
PUBLIC	?CheckDontMoveState@ioCreateDummyChar2Buff@@QAE_NXZ ; ioCreateDummyChar2Buff::CheckDontMoveState
; Function compile flags: /Ogsp
;	COMDAT ?CheckDontMoveState@ioCreateDummyChar2Buff@@QAE_NXZ
_TEXT	SEGMENT
?CheckDontMoveState@ioCreateDummyChar2Buff@@QAE_NXZ PROC ; ioCreateDummyChar2Buff::CheckDontMoveState, COMDAT
; _this$ = ecx

; 442  : 	if( m_BuffState == BS_CREATE_DUMMY )

  00000	83 b9 6c 09 00
	00 01		 cmp	 DWORD PTR [ecx+2412], 1
  00007	0f 94 c0	 sete	 al

; 443  : 		return true;
; 444  : 
; 445  : 	return false;
; 446  : }

  0000a	c3		 ret	 0
?CheckDontMoveState@ioCreateDummyChar2Buff@@QAE_NXZ ENDP ; ioCreateDummyChar2Buff::CheckDontMoveState
_TEXT	ENDS
PUBLIC	?size@?$vector@UtagDummyCharLoadInfo@@V?$allocator@UtagDummyCharLoadInfo@@@std@@@std@@QBEIXZ ; std::vector<tagDummyCharLoadInfo,std::allocator<tagDummyCharLoadInfo> >::size
; Function compile flags: /Ogsp
; File c:\program files (x86)\microsoft visual studio 10.0\vc\include\vector
;	COMDAT ?size@?$vector@UtagDummyCharLoadInfo@@V?$allocator@UtagDummyCharLoadInfo@@@std@@@std@@QBEIXZ
_TEXT	SEGMENT
?size@?$vector@UtagDummyCharLoadInfo@@V?$allocator@UtagDummyCharLoadInfo@@@std@@@std@@QBEIXZ PROC ; std::vector<tagDummyCharLoadInfo,std::allocator<tagDummyCharLoadInfo> >::size, COMDAT
; _this$ = ecx

; 879  : 		return (this->_Mylast - this->_Myfirst);

  00000	8b 41 04	 mov	 eax, DWORD PTR [ecx+4]
  00003	2b 01		 sub	 eax, DWORD PTR [ecx]
  00005	6a 1c		 push	 28			; 0000001cH
  00007	99		 cdq
  00008	59		 pop	 ecx
  00009	f7 f9		 idiv	 ecx

; 880  : 		}

  0000b	c3		 ret	 0
?size@?$vector@UtagDummyCharLoadInfo@@V?$allocator@UtagDummyCharLoadInfo@@@std@@@std@@QBEIXZ ENDP ; std::vector<tagDummyCharLoadInfo,std::allocator<tagDummyCharLoadInfo> >::size
_TEXT	ENDS
PUBLIC	?empty@?$vector@UtagDummyCharLoadInfo@@V?$allocator@UtagDummyCharLoadInfo@@@std@@@std@@QBE_NXZ ; std::vector<tagDummyCharLoadInfo,std::allocator<tagDummyCharLoadInfo> >::empty
; Function compile flags: /Ogsp
;	COMDAT ?empty@?$vector@UtagDummyCharLoadInfo@@V?$allocator@UtagDummyCharLoadInfo@@@std@@@std@@QBE_NXZ
_TEXT	SEGMENT
?empty@?$vector@UtagDummyCharLoadInfo@@V?$allocator@UtagDummyCharLoadInfo@@@std@@@std@@QBE_NXZ PROC ; std::vector<tagDummyCharLoadInfo,std::allocator<tagDummyCharLoadInfo> >::empty, COMDAT
; _this$ = ecx

; 889  : 		return (this->_Myfirst == this->_Mylast);

  00000	8b 01		 mov	 eax, DWORD PTR [ecx]
  00002	2b 41 04	 sub	 eax, DWORD PTR [ecx+4]
  00005	f7 d8		 neg	 eax
  00007	1b c0		 sbb	 eax, eax
  00009	40		 inc	 eax

; 890  : 		}

  0000a	c3		 ret	 0
?empty@?$vector@UtagDummyCharLoadInfo@@V?$allocator@UtagDummyCharLoadInfo@@@std@@@std@@QBE_NXZ ENDP ; std::vector<tagDummyCharLoadInfo,std::allocator<tagDummyCharLoadInfo> >::empty
_TEXT	ENDS
PUBLIC	??A?$vector@UtagDummyCharLoadInfo@@V?$allocator@UtagDummyCharLoadInfo@@@std@@@std@@QAEAAUtagDummyCharLoadInfo@@I@Z ; std::vector<tagDummyCharLoadInfo,std::allocator<tagDummyCharLoadInfo> >::operator[]
; Function compile flags: /Ogsp
;	COMDAT ??A?$vector@UtagDummyCharLoadInfo@@V?$allocator@UtagDummyCharLoadInfo@@@std@@@std@@QAEAAUtagDummyCharLoadInfo@@I@Z
_TEXT	SEGMENT
__Pos$ = 8						; size = 4
??A?$vector@UtagDummyCharLoadInfo@@V?$allocator@UtagDummyCharLoadInfo@@@std@@@std@@QAEAAUtagDummyCharLoadInfo@@I@Z PROC ; std::vector<tagDummyCharLoadInfo,std::allocator<tagDummyCharLoadInfo> >::operator[], COMDAT
; _this$ = ecx

; 928  : 		{	// subscript mutable sequence

  00000	55		 push	 ebp
  00001	8b ec		 mov	 ebp, esp

; 929  :  #if _ITERATOR_DEBUG_LEVEL == 2
; 930  : 		if (size() <= _Pos)
; 931  : 			{	// report error
; 932  : 			_DEBUG_ERROR("vector subscript out of range");
; 933  : 			_SCL_SECURE_OUT_OF_RANGE;
; 934  : 			}
; 935  : 
; 936  :  #elif _ITERATOR_DEBUG_LEVEL == 1
; 937  : 		_SCL_SECURE_VALIDATE_RANGE(_Pos < size());
; 938  :  #endif /* _ITERATOR_DEBUG_LEVEL */
; 939  : 
; 940  : 		return (*(this->_Myfirst + _Pos));

  00003	8b 45 08	 mov	 eax, DWORD PTR __Pos$[ebp]
  00006	6b c0 1c	 imul	 eax, 28			; 0000001cH
  00009	03 01		 add	 eax, DWORD PTR [ecx]

; 941  : 		}

  0000b	5d		 pop	 ebp
  0000c	c2 04 00	 ret	 4
??A?$vector@UtagDummyCharLoadInfo@@V?$allocator@UtagDummyCharLoadInfo@@@std@@@std@@QAEAAUtagDummyCharLoadInfo@@I@Z ENDP ; std::vector<tagDummyCharLoadInfo,std::allocator<tagDummyCharLoadInfo> >::operator[]
_TEXT	ENDS
PUBLIC	?size@?$vector@UtagDummyCharCreateInfo@@V?$allocator@UtagDummyCharCreateInfo@@@std@@@std@@QBEIXZ ; std::vector<tagDummyCharCreateInfo,std::allocator<tagDummyCharCreateInfo> >::size
; Function compile flags: /Ogsp
;	COMDAT ?size@?$vector@UtagDummyCharCreateInfo@@V?$allocator@UtagDummyCharCreateInfo@@@std@@@std@@QBEIXZ
_TEXT	SEGMENT
?size@?$vector@UtagDummyCharCreateInfo@@V?$allocator@UtagDummyCharCreateInfo@@@std@@@std@@QBEIXZ PROC ; std::vector<tagDummyCharCreateInfo,std::allocator<tagDummyCharCreateInfo> >::size, COMDAT
; _this$ = ecx

; 879  : 		return (this->_Mylast - this->_Myfirst);

  00000	8b 41 04	 mov	 eax, DWORD PTR [ecx+4]
  00003	2b 01		 sub	 eax, DWORD PTR [ecx]
  00005	6a 24		 push	 36			; 00000024H
  00007	99		 cdq
  00008	59		 pop	 ecx
  00009	f7 f9		 idiv	 ecx

; 880  : 		}

  0000b	c3		 ret	 0
?size@?$vector@UtagDummyCharCreateInfo@@V?$allocator@UtagDummyCharCreateInfo@@@std@@@std@@QBEIXZ ENDP ; std::vector<tagDummyCharCreateInfo,std::allocator<tagDummyCharCreateInfo> >::size
_TEXT	ENDS
PUBLIC	??A?$vector@UtagDummyCharCreateInfo@@V?$allocator@UtagDummyCharCreateInfo@@@std@@@std@@QAEAAUtagDummyCharCreateInfo@@I@Z ; std::vector<tagDummyCharCreateInfo,std::allocator<tagDummyCharCreateInfo> >::operator[]
; Function compile flags: /Ogsp
;	COMDAT ??A?$vector@UtagDummyCharCreateInfo@@V?$allocator@UtagDummyCharCreateInfo@@@std@@@std@@QAEAAUtagDummyCharCreateInfo@@I@Z
_TEXT	SEGMENT
__Pos$ = 8						; size = 4
??A?$vector@UtagDummyCharCreateInfo@@V?$allocator@UtagDummyCharCreateInfo@@@std@@@std@@QAEAAUtagDummyCharCreateInfo@@I@Z PROC ; std::vector<tagDummyCharCreateInfo,std::allocator<tagDummyCharCreateInfo> >::operator[], COMDAT
; _this$ = ecx

; 928  : 		{	// subscript mutable sequence

  00000	55		 push	 ebp
  00001	8b ec		 mov	 ebp, esp

; 929  :  #if _ITERATOR_DEBUG_LEVEL == 2
; 930  : 		if (size() <= _Pos)
; 931  : 			{	// report error
; 932  : 			_DEBUG_ERROR("vector subscript out of range");
; 933  : 			_SCL_SECURE_OUT_OF_RANGE;
; 934  : 			}
; 935  : 
; 936  :  #elif _ITERATOR_DEBUG_LEVEL == 1
; 937  : 		_SCL_SECURE_VALIDATE_RANGE(_Pos < size());
; 938  :  #endif /* _ITERATOR_DEBUG_LEVEL */
; 939  : 
; 940  : 		return (*(this->_Myfirst + _Pos));

  00003	8b 45 08	 mov	 eax, DWORD PTR __Pos$[ebp]
  00006	6b c0 24	 imul	 eax, 36			; 00000024H
  00009	03 01		 add	 eax, DWORD PTR [ecx]

; 941  : 		}

  0000b	5d		 pop	 ebp
  0000c	c2 04 00	 ret	 4
??A?$vector@UtagDummyCharCreateInfo@@V?$allocator@UtagDummyCharCreateInfo@@@std@@@std@@QAEAAUtagDummyCharCreateInfo@@I@Z ENDP ; std::vector<tagDummyCharCreateInfo,std::allocator<tagDummyCharCreateInfo> >::operator[]
_TEXT	ENDS
PUBLIC	?DecryptValueToPool@?$CEncrypt@W4JumpState@@@@QAEXPAW4JumpState@@@Z ; CEncrypt<enum JumpState>::DecryptValueToPool
EXTRN	?DecryptByte@ccddaabb@@QBEXPBDPADH@Z:PROC	; ccddaabb::DecryptByte
; Function compile flags: /Ogsp
; File d:\lost saga for developer\youtube\tutorial\source\src\lsclient\encryptvalue.h
;	COMDAT ?DecryptValueToPool@?$CEncrypt@W4JumpState@@@@QAEXPAW4JumpState@@@Z
_TEXT	SEGMENT
_value$ = 8						; size = 4
?DecryptValueToPool@?$CEncrypt@W4JumpState@@@@QAEXPAW4JumpState@@@Z PROC ; CEncrypt<enum JumpState>::DecryptValueToPool, COMDAT
; _this$ = ecx

; 2317 : 	{

  00000	55		 push	 ebp
  00001	8b ec		 mov	 ebp, esp
  00003	56		 push	 esi

; 2318 : 		m_RC5.DecryptByte( m_MemPool, m_TempMem, sizeof(JumpState) );

  00004	8d 71 28	 lea	 esi, DWORD PTR [ecx+40]
  00007	6a 04		 push	 4
  00009	8d 41 1c	 lea	 eax, DWORD PTR [ecx+28]
  0000c	56		 push	 esi
  0000d	50		 push	 eax
  0000e	83 c1 0c	 add	 ecx, 12			; 0000000cH
  00011	e8 00 00 00 00	 call	 ?DecryptByte@ccddaabb@@QBEXPBDPADH@Z ; ccddaabb::DecryptByte

; 2319 : 		*value = *((JumpState*)m_TempMem);

  00016	8b 06		 mov	 eax, DWORD PTR [esi]
  00018	8b 4d 08	 mov	 ecx, DWORD PTR _value$[ebp]
  0001b	89 01		 mov	 DWORD PTR [ecx], eax
  0001d	5e		 pop	 esi

; 2320 : 	}

  0001e	5d		 pop	 ebp
  0001f	c2 04 00	 ret	 4
?DecryptValueToPool@?$CEncrypt@W4JumpState@@@@QAEXPAW4JumpState@@@Z ENDP ; CEncrypt<enum JumpState>::DecryptValueToPool
_TEXT	ENDS
PUBLIC	?_Inside@?$vector@UtagDummyCharCreateInfo@@V?$allocator@UtagDummyCharCreateInfo@@@std@@@std@@IBE_NPBUtagDummyCharCreateInfo@@@Z ; std::vector<tagDummyCharCreateInfo,std::allocator<tagDummyCharCreateInfo> >::_Inside
; Function compile flags: /Ogsp
; File c:\program files (x86)\microsoft visual studio 10.0\vc\include\vector
;	COMDAT ?_Inside@?$vector@UtagDummyCharCreateInfo@@V?$allocator@UtagDummyCharCreateInfo@@@std@@@std@@IBE_NPBUtagDummyCharCreateInfo@@@Z
_TEXT	SEGMENT
__Ptr$ = 8						; size = 4
?_Inside@?$vector@UtagDummyCharCreateInfo@@V?$allocator@UtagDummyCharCreateInfo@@@std@@@std@@IBE_NPBUtagDummyCharCreateInfo@@@Z PROC ; std::vector<tagDummyCharCreateInfo,std::allocator<tagDummyCharCreateInfo> >::_Inside, COMDAT
; _this$ = ecx

; 1285 : 		{	// test if _Ptr points inside vector

  00000	55		 push	 ebp
  00001	8b ec		 mov	 ebp, esp

; 1286 : 		return (_Ptr < this->_Mylast && this->_Myfirst <= _Ptr);

  00003	8b 45 08	 mov	 eax, DWORD PTR __Ptr$[ebp]
  00006	3b 41 04	 cmp	 eax, DWORD PTR [ecx+4]
  00009	73 09		 jae	 SHORT $LN3@Inside
  0000b	39 01		 cmp	 DWORD PTR [ecx], eax
  0000d	77 05		 ja	 SHORT $LN3@Inside
  0000f	33 c0		 xor	 eax, eax
  00011	40		 inc	 eax
  00012	eb 02		 jmp	 SHORT $LN4@Inside
$LN3@Inside:
  00014	33 c0		 xor	 eax, eax
$LN4@Inside:

; 1287 : 		}

  00016	5d		 pop	 ebp
  00017	c2 04 00	 ret	 4
?_Inside@?$vector@UtagDummyCharCreateInfo@@V?$allocator@UtagDummyCharCreateInfo@@@std@@@std@@IBE_NPBUtagDummyCharCreateInfo@@@Z ENDP ; std::vector<tagDummyCharCreateInfo,std::allocator<tagDummyCharCreateInfo> >::_Inside
_TEXT	ENDS
PUBLIC	?_Orphan_range@?$vector@UtagDummyCharCreateInfo@@V?$allocator@UtagDummyCharCreateInfo@@@std@@@std@@IBEXPAUtagDummyCharCreateInfo@@0@Z ; std::vector<tagDummyCharCreateInfo,std::allocator<tagDummyCharCreateInfo> >::_Orphan_range
; Function compile flags: /Ogsp
;	COMDAT ?_Orphan_range@?$vector@UtagDummyCharCreateInfo@@V?$allocator@UtagDummyCharCreateInfo@@@std@@@std@@IBEXPAUtagDummyCharCreateInfo@@0@Z
_TEXT	SEGMENT
___formal$ = 8						; size = 4
___formal$ = 12						; size = 4
?_Orphan_range@?$vector@UtagDummyCharCreateInfo@@V?$allocator@UtagDummyCharCreateInfo@@@std@@@std@@IBEXPAUtagDummyCharCreateInfo@@0@Z PROC ; std::vector<tagDummyCharCreateInfo,std::allocator<tagDummyCharCreateInfo> >::_Orphan_range, COMDAT
; _this$ = ecx

; 1454 : 		}

  00000	c2 08 00	 ret	 8
?_Orphan_range@?$vector@UtagDummyCharCreateInfo@@V?$allocator@UtagDummyCharCreateInfo@@@std@@@std@@IBEXPAUtagDummyCharCreateInfo@@0@Z ENDP ; std::vector<tagDummyCharCreateInfo,std::allocator<tagDummyCharCreateInfo> >::_Orphan_range
_TEXT	ENDS
PUBLIC	??1?$_Vector_val@UtagDummyCharCreateInfo@@V?$allocator@UtagDummyCharCreateInfo@@@std@@@std@@QAE@XZ ; std::_Vector_val<tagDummyCharCreateInfo,std::allocator<tagDummyCharCreateInfo> >::~_Vector_val<tagDummyCharCreateInfo,std::allocator<tagDummyCharCreateInfo> >
; Function compile flags: /Ogsp
;	COMDAT ??1?$_Vector_val@UtagDummyCharCreateInfo@@V?$allocator@UtagDummyCharCreateInfo@@@std@@@std@@QAE@XZ
_TEXT	SEGMENT
??1?$_Vector_val@UtagDummyCharCreateInfo@@V?$allocator@UtagDummyCharCreateInfo@@@std@@@std@@QAE@XZ PROC ; std::_Vector_val<tagDummyCharCreateInfo,std::allocator<tagDummyCharCreateInfo> >::~_Vector_val<tagDummyCharCreateInfo,std::allocator<tagDummyCharCreateInfo> >, COMDAT
; _this$ = ecx

; 434  : 		}

  00000	c3		 ret	 0
??1?$_Vector_val@UtagDummyCharCreateInfo@@V?$allocator@UtagDummyCharCreateInfo@@@std@@@std@@QAE@XZ ENDP ; std::_Vector_val<tagDummyCharCreateInfo,std::allocator<tagDummyCharCreateInfo> >::~_Vector_val<tagDummyCharCreateInfo,std::allocator<tagDummyCharCreateInfo> >
_TEXT	ENDS
PUBLIC	??0?$allocator@UtagDummyCharCreateInfo@@@std@@QAE@XZ ; std::allocator<tagDummyCharCreateInfo>::allocator<tagDummyCharCreateInfo>
; Function compile flags: /Ogsp
; File c:\program files (x86)\microsoft visual studio 10.0\vc\include\xmemory
;	COMDAT ??0?$allocator@UtagDummyCharCreateInfo@@@std@@QAE@XZ
_TEXT	SEGMENT
??0?$allocator@UtagDummyCharCreateInfo@@@std@@QAE@XZ PROC ; std::allocator<tagDummyCharCreateInfo>::allocator<tagDummyCharCreateInfo>, COMDAT
; _this$ = ecx

; 161  : 	_ALLOCATOR() _THROW0()

  00000	8b c1		 mov	 eax, ecx

; 162  : 		{	// construct default allocator (do nothing)
; 163  : 		}

  00002	c3		 ret	 0
??0?$allocator@UtagDummyCharCreateInfo@@@std@@QAE@XZ ENDP ; std::allocator<tagDummyCharCreateInfo>::allocator<tagDummyCharCreateInfo>
_TEXT	ENDS
PUBLIC	??_C@_0BD@OLBABOEK@vector?$DMT?$DO?5too?5long?$AA@ ; `string'
PUBLIC	?_Xlen@?$vector@UtagDummyCharLoadInfo@@V?$allocator@UtagDummyCharLoadInfo@@@std@@@std@@IBEXXZ ; std::vector<tagDummyCharLoadInfo,std::allocator<tagDummyCharLoadInfo> >::_Xlen
EXTRN	__imp_?_Xlength_error@std@@YAXPBD@Z:PROC
;	COMDAT ??_C@_0BD@OLBABOEK@vector?$DMT?$DO?5too?5long?$AA@
; File c:\program files (x86)\microsoft visual studio 10.0\vc\include\vector
CONST	SEGMENT
??_C@_0BD@OLBABOEK@vector?$DMT?$DO?5too?5long?$AA@ DB 'vector<T> too long'
	DB	00H						; `string'
; Function compile flags: /Ogsp
CONST	ENDS
;	COMDAT ?_Xlen@?$vector@UtagDummyCharLoadInfo@@V?$allocator@UtagDummyCharLoadInfo@@@std@@@std@@IBEXXZ
_TEXT	SEGMENT
?_Xlen@?$vector@UtagDummyCharLoadInfo@@V?$allocator@UtagDummyCharLoadInfo@@@std@@@std@@IBEXXZ PROC ; std::vector<tagDummyCharLoadInfo,std::allocator<tagDummyCharLoadInfo> >::_Xlen, COMDAT
; _this$ = ecx

; 1427 : 		_Xlength_error("vector<T> too long");

  00000	68 00 00 00 00	 push	 OFFSET ??_C@_0BD@OLBABOEK@vector?$DMT?$DO?5too?5long?$AA@
  00005	ff 15 00 00 00
	00		 call	 DWORD PTR __imp_?_Xlength_error@std@@YAXPBD@Z
$LN4@Xlen:
$LN3@Xlen:
  0000b	cc		 int	 3
?_Xlen@?$vector@UtagDummyCharLoadInfo@@V?$allocator@UtagDummyCharLoadInfo@@@std@@@std@@IBEXXZ ENDP ; std::vector<tagDummyCharLoadInfo,std::allocator<tagDummyCharLoadInfo> >::_Xlen
_TEXT	ENDS
PUBLIC	?capacity@?$vector@UtagDummyCharCreateInfo@@V?$allocator@UtagDummyCharCreateInfo@@@std@@@std@@QBEIXZ ; std::vector<tagDummyCharCreateInfo,std::allocator<tagDummyCharCreateInfo> >::capacity
; Function compile flags: /Ogsp
;	COMDAT ?capacity@?$vector@UtagDummyCharCreateInfo@@V?$allocator@UtagDummyCharCreateInfo@@@std@@@std@@QBEIXZ
_TEXT	SEGMENT
?capacity@?$vector@UtagDummyCharCreateInfo@@V?$allocator@UtagDummyCharCreateInfo@@@std@@@std@@QBEIXZ PROC ; std::vector<tagDummyCharCreateInfo,std::allocator<tagDummyCharCreateInfo> >::capacity, COMDAT
; _this$ = ecx

; 777  : 		return (this->_Myend - this->_Myfirst);

  00000	8b 41 08	 mov	 eax, DWORD PTR [ecx+8]
  00003	2b 01		 sub	 eax, DWORD PTR [ecx]
  00005	6a 24		 push	 36			; 00000024H
  00007	99		 cdq
  00008	59		 pop	 ecx
  00009	f7 f9		 idiv	 ecx

; 778  : 		}

  0000b	c3		 ret	 0
?capacity@?$vector@UtagDummyCharCreateInfo@@V?$allocator@UtagDummyCharCreateInfo@@@std@@@std@@QBEIXZ ENDP ; std::vector<tagDummyCharCreateInfo,std::allocator<tagDummyCharCreateInfo> >::capacity
_TEXT	ENDS
PUBLIC	?_Xlen@?$vector@UtagDummyCharCreateInfo@@V?$allocator@UtagDummyCharCreateInfo@@@std@@@std@@IBEXXZ ; std::vector<tagDummyCharCreateInfo,std::allocator<tagDummyCharCreateInfo> >::_Xlen
; Function compile flags: /Ogsp
;	COMDAT ?_Xlen@?$vector@UtagDummyCharCreateInfo@@V?$allocator@UtagDummyCharCreateInfo@@@std@@@std@@IBEXXZ
_TEXT	SEGMENT
?_Xlen@?$vector@UtagDummyCharCreateInfo@@V?$allocator@UtagDummyCharCreateInfo@@@std@@@std@@IBEXXZ PROC ; std::vector<tagDummyCharCreateInfo,std::allocator<tagDummyCharCreateInfo> >::_Xlen, COMDAT
; _this$ = ecx

; 1427 : 		_Xlength_error("vector<T> too long");

  00000	68 00 00 00 00	 push	 OFFSET ??_C@_0BD@OLBABOEK@vector?$DMT?$DO?5too?5long?$AA@
  00005	ff 15 00 00 00
	00		 call	 DWORD PTR __imp_?_Xlength_error@std@@YAXPBD@Z
$LN4@Xlen@2:
$LN3@Xlen@2:
  0000b	cc		 int	 3
?_Xlen@?$vector@UtagDummyCharCreateInfo@@V?$allocator@UtagDummyCharCreateInfo@@@std@@@std@@IBEXXZ ENDP ; std::vector<tagDummyCharCreateInfo,std::allocator<tagDummyCharCreateInfo> >::_Xlen
_TEXT	ENDS
PUBLIC	??0?$allocator@UtagDummyCharCreateInfo@@@std@@QAE@ABV01@@Z ; std::allocator<tagDummyCharCreateInfo>::allocator<tagDummyCharCreateInfo>
; Function compile flags: /Ogsp
; File c:\program files (x86)\microsoft visual studio 10.0\vc\include\xmemory
;	COMDAT ??0?$allocator@UtagDummyCharCreateInfo@@@std@@QAE@ABV01@@Z
_TEXT	SEGMENT
___formal$ = 8						; size = 4
??0?$allocator@UtagDummyCharCreateInfo@@@std@@QAE@ABV01@@Z PROC ; std::allocator<tagDummyCharCreateInfo>::allocator<tagDummyCharCreateInfo>, COMDAT
; _this$ = ecx

; 165  : 	_ALLOCATOR(const _ALLOCATOR<_Ty>&) _THROW0()

  00000	8b c1		 mov	 eax, ecx

; 166  : 		{	// construct by copying (do nothing)
; 167  : 		}

  00002	c2 04 00	 ret	 4
??0?$allocator@UtagDummyCharCreateInfo@@@std@@QAE@ABV01@@Z ENDP ; std::allocator<tagDummyCharCreateInfo>::allocator<tagDummyCharCreateInfo>
_TEXT	ENDS
PUBLIC	?deallocate@?$allocator@UtagDummyCharCreateInfo@@@std@@QAEXPAUtagDummyCharCreateInfo@@I@Z ; std::allocator<tagDummyCharCreateInfo>::deallocate
; Function compile flags: /Ogsp
;	COMDAT ?deallocate@?$allocator@UtagDummyCharCreateInfo@@@std@@QAEXPAUtagDummyCharCreateInfo@@I@Z
_TEXT	SEGMENT
__Ptr$ = 8						; size = 4
___formal$ = 12						; size = 4
?deallocate@?$allocator@UtagDummyCharCreateInfo@@@std@@QAEXPAUtagDummyCharCreateInfo@@I@Z PROC ; std::allocator<tagDummyCharCreateInfo>::deallocate, COMDAT
; _this$ = ecx

; 181  : 		{	// deallocate object at _Ptr, ignore size

  00000	55		 push	 ebp
  00001	8b ec		 mov	 ebp, esp

; 182  : 		::operator delete(_Ptr);

  00003	ff 75 08	 push	 DWORD PTR __Ptr$[ebp]
  00006	e8 00 00 00 00	 call	 ??3@YAXPAX@Z		; operator delete
  0000b	59		 pop	 ecx

; 183  : 		}

  0000c	5d		 pop	 ebp
  0000d	c2 08 00	 ret	 8
?deallocate@?$allocator@UtagDummyCharCreateInfo@@@std@@QAEXPAUtagDummyCharCreateInfo@@I@Z ENDP ; std::allocator<tagDummyCharCreateInfo>::deallocate
_TEXT	ENDS
PUBLIC	?max_size@?$allocator@UtagDummyCharLoadInfo@@@std@@QBEIXZ ; std::allocator<tagDummyCharLoadInfo>::max_size
; Function compile flags: /Ogsp
;	COMDAT ?max_size@?$allocator@UtagDummyCharLoadInfo@@@std@@QBEIXZ
_TEXT	SEGMENT
?max_size@?$allocator@UtagDummyCharLoadInfo@@@std@@QBEIXZ PROC ; std::allocator<tagDummyCharLoadInfo>::max_size, COMDAT
; _this$ = ecx

; 218  : 		_SIZT _Count = (_SIZT)(-1) / sizeof (_Ty);
; 219  : 		return (0 < _Count ? _Count : 1);

  00000	b8 49 92 24 09	 mov	 eax, 153391689		; 09249249H

; 220  : 		}

  00005	c3		 ret	 0
?max_size@?$allocator@UtagDummyCharLoadInfo@@@std@@QBEIXZ ENDP ; std::allocator<tagDummyCharLoadInfo>::max_size
_TEXT	ENDS
PUBLIC	?max_size@?$allocator@UtagDummyCharCreateInfo@@@std@@QBEIXZ ; std::allocator<tagDummyCharCreateInfo>::max_size
; Function compile flags: /Ogsp
;	COMDAT ?max_size@?$allocator@UtagDummyCharCreateInfo@@@std@@QBEIXZ
_TEXT	SEGMENT
?max_size@?$allocator@UtagDummyCharCreateInfo@@@std@@QBEIXZ PROC ; std::allocator<tagDummyCharCreateInfo>::max_size, COMDAT
; _this$ = ecx

; 218  : 		_SIZT _Count = (_SIZT)(-1) / sizeof (_Ty);
; 219  : 		return (0 < _Count ? _Count : 1);

  00000	b8 c7 71 1c 07	 mov	 eax, 119304647		; 071c71c7H

; 220  : 		}

  00005	c3		 ret	 0
?max_size@?$allocator@UtagDummyCharCreateInfo@@@std@@QBEIXZ ENDP ; std::allocator<tagDummyCharCreateInfo>::max_size
_TEXT	ENDS
PUBLIC	??0?$_Vector_const_iterator@V?$_Vector_val@UtagDummyCharCreateInfo@@V?$allocator@UtagDummyCharCreateInfo@@@std@@@std@@@std@@QAE@PAUtagDummyCharCreateInfo@@PBU_Container_base0@1@@Z ; std::_Vector_const_iterator<std::_Vector_val<tagDummyCharCreateInfo,std::allocator<tagDummyCharCreateInfo> > >::_Vector_const_iterator<std::_Vector_val<tagDummyCharCreateInfo,std::allocator<tagDummyCharCreateInfo> > >
; Function compile flags: /Ogsp
; File c:\program files (x86)\microsoft visual studio 10.0\vc\include\vector
;	COMDAT ??0?$_Vector_const_iterator@V?$_Vector_val@UtagDummyCharCreateInfo@@V?$allocator@UtagDummyCharCreateInfo@@@std@@@std@@@std@@QAE@PAUtagDummyCharCreateInfo@@PBU_Container_base0@1@@Z
_TEXT	SEGMENT
__Parg$ = 8						; size = 4
__Pvector$ = 12						; size = 4
??0?$_Vector_const_iterator@V?$_Vector_val@UtagDummyCharCreateInfo@@V?$allocator@UtagDummyCharCreateInfo@@@std@@@std@@@std@@QAE@PAUtagDummyCharCreateInfo@@PBU_Container_base0@1@@Z PROC ; std::_Vector_const_iterator<std::_Vector_val<tagDummyCharCreateInfo,std::allocator<tagDummyCharCreateInfo> > >::_Vector_const_iterator<std::_Vector_val<tagDummyCharCreateInfo,std::allocator<tagDummyCharCreateInfo> > >, COMDAT
; _this$ = ecx

; 45   : 		{	// construct with pointer _Parg

  00000	55		 push	 ebp
  00001	8b ec		 mov	 ebp, esp
  00003	8b c1		 mov	 eax, ecx
  00005	8b 4d 08	 mov	 ecx, DWORD PTR __Parg$[ebp]
  00008	89 08		 mov	 DWORD PTR [eax], ecx

; 46   : 		this->_Adopt(_Pvector);
; 47   : 		}

  0000a	5d		 pop	 ebp
  0000b	c2 08 00	 ret	 8
??0?$_Vector_const_iterator@V?$_Vector_val@UtagDummyCharCreateInfo@@V?$allocator@UtagDummyCharCreateInfo@@@std@@@std@@@std@@QAE@PAUtagDummyCharCreateInfo@@PBU_Container_base0@1@@Z ENDP ; std::_Vector_const_iterator<std::_Vector_val<tagDummyCharCreateInfo,std::allocator<tagDummyCharCreateInfo> > >::_Vector_const_iterator<std::_Vector_val<tagDummyCharCreateInfo,std::allocator<tagDummyCharCreateInfo> > >
_TEXT	ENDS
PUBLIC	?_Compat@?$_Vector_const_iterator@V?$_Vector_val@UtagDummyCharCreateInfo@@V?$allocator@UtagDummyCharCreateInfo@@@std@@@std@@@std@@QBEXABV12@@Z ; std::_Vector_const_iterator<std::_Vector_val<tagDummyCharCreateInfo,std::allocator<tagDummyCharCreateInfo> > >::_Compat
; Function compile flags: /Ogsp
;	COMDAT ?_Compat@?$_Vector_const_iterator@V?$_Vector_val@UtagDummyCharCreateInfo@@V?$allocator@UtagDummyCharCreateInfo@@@std@@@std@@@std@@QBEXABV12@@Z
_TEXT	SEGMENT
___formal$ = 8						; size = 4
?_Compat@?$_Vector_const_iterator@V?$_Vector_val@UtagDummyCharCreateInfo@@V?$allocator@UtagDummyCharCreateInfo@@@std@@@std@@@std@@QBEXABV12@@Z PROC ; std::_Vector_const_iterator<std::_Vector_val<tagDummyCharCreateInfo,std::allocator<tagDummyCharCreateInfo> > >::_Compat, COMDAT
; _this$ = ecx

; 253  : 		}

  00000	c2 04 00	 ret	 4
?_Compat@?$_Vector_const_iterator@V?$_Vector_val@UtagDummyCharCreateInfo@@V?$allocator@UtagDummyCharCreateInfo@@@std@@@std@@@std@@QBEXABV12@@Z ENDP ; std::_Vector_const_iterator<std::_Vector_val<tagDummyCharCreateInfo,std::allocator<tagDummyCharCreateInfo> > >::_Compat
_TEXT	ENDS
PUBLIC	??$addressof@$$CBUtagDummyCharCreateInfo@@@std@@YAPBUtagDummyCharCreateInfo@@ABU1@@Z ; std::addressof<tagDummyCharCreateInfo const >
; Function compile flags: /Ogsp
; File c:\program files (x86)\microsoft visual studio 10.0\vc\include\xmemory
;	COMDAT ??$addressof@$$CBUtagDummyCharCreateInfo@@@std@@YAPBUtagDummyCharCreateInfo@@ABU1@@Z
_TEXT	SEGMENT
__Val$ = 8						; size = 4
??$addressof@$$CBUtagDummyCharCreateInfo@@@std@@YAPBUtagDummyCharCreateInfo@@ABU1@@Z PROC ; std::addressof<tagDummyCharCreateInfo const >, COMDAT

; 110  : 	{	// return address of _Val

  00000	55		 push	 ebp
  00001	8b ec		 mov	 ebp, esp

; 111  : 	return ((_Ty *) &(char&)_Val);

  00003	8b 45 08	 mov	 eax, DWORD PTR __Val$[ebp]

; 112  : 	}

  00006	5d		 pop	 ebp
  00007	c3		 ret	 0
??$addressof@$$CBUtagDummyCharCreateInfo@@@std@@YAPBUtagDummyCharCreateInfo@@ABU1@@Z ENDP ; std::addressof<tagDummyCharCreateInfo const >
_TEXT	ENDS
PUBLIC	__TI2?AVbad_alloc@std@@
PUBLIC	??$_Allocate@UtagDummyCharLoadInfo@@@std@@YAPAUtagDummyCharLoadInfo@@IPAU1@@Z ; std::_Allocate<tagDummyCharLoadInfo>
PUBLIC	__CTA2?AVbad_alloc@std@@
PUBLIC	__CT??_R0?AVbad_alloc@std@@@8??0bad_alloc@std@@QAE@ABV01@@Z12
PUBLIC	??0bad_alloc@std@@QAE@ABV01@@Z			; std::bad_alloc::bad_alloc
PUBLIC	__CT??_R0?AVexception@std@@@8??0exception@std@@QAE@ABV01@@Z12
EXTRN	??2@YAPAXI@Z:PROC				; operator new
EXTRN	__CxxThrowException@8:PROC
EXTRN	??0exception@std@@QAE@ABV01@@Z:PROC		; std::exception::exception
;	COMDAT __CT??_R0?AVexception@std@@@8??0exception@std@@QAE@ABV01@@Z12
; File c:\program files (x86)\microsoft visual studio 10.0\vc\include\exception
xdata$x	SEGMENT
__CT??_R0?AVexception@std@@@8??0exception@std@@QAE@ABV01@@Z12 DD 00H
	DD	FLAT:??_R0?AVexception@std@@@8
	DD	00H
	DD	0ffffffffH
	ORG $+4
	DD	0cH
	DD	FLAT:??0exception@std@@QAE@ABV01@@Z
xdata$x	ENDS
;	COMDAT __CT??_R0?AVbad_alloc@std@@@8??0bad_alloc@std@@QAE@ABV01@@Z12
xdata$x	SEGMENT
__CT??_R0?AVbad_alloc@std@@@8??0bad_alloc@std@@QAE@ABV01@@Z12 DD 00H
	DD	FLAT:??_R0?AVbad_alloc@std@@@8
	DD	00H
	DD	0ffffffffH
	ORG $+4
	DD	0cH
	DD	FLAT:??0bad_alloc@std@@QAE@ABV01@@Z
xdata$x	ENDS
;	COMDAT __CTA2?AVbad_alloc@std@@
xdata$x	SEGMENT
__CTA2?AVbad_alloc@std@@ DD 02H
	DD	FLAT:__CT??_R0?AVbad_alloc@std@@@8??0bad_alloc@std@@QAE@ABV01@@Z12
	DD	FLAT:__CT??_R0?AVexception@std@@@8??0exception@std@@QAE@ABV01@@Z12
xdata$x	ENDS
;	COMDAT __TI2?AVbad_alloc@std@@
xdata$x	SEGMENT
__TI2?AVbad_alloc@std@@ DD 00H
	DD	FLAT:??1bad_alloc@std@@UAE@XZ
	DD	00H
	DD	FLAT:__CTA2?AVbad_alloc@std@@
; Function compile flags: /Ogsp
; File c:\program files (x86)\microsoft visual studio 10.0\vc\include\xmemory
xdata$x	ENDS
;	COMDAT ??$_Allocate@UtagDummyCharLoadInfo@@@std@@YAPAUtagDummyCharLoadInfo@@IPAU1@@Z
_TEXT	SEGMENT
$T533710 = -12						; size = 12
$T533715 = 8						; size = 4
__Count$ = 8						; size = 4
___formal$ = 12						; size = 4
??$_Allocate@UtagDummyCharLoadInfo@@@std@@YAPAUtagDummyCharLoadInfo@@IPAU1@@Z PROC ; std::_Allocate<tagDummyCharLoadInfo>, COMDAT

; 30   : 	{	// allocate storage for _Count elements of type _Ty

  00000	55		 push	 ebp
  00001	8b ec		 mov	 ebp, esp

; 31   : 	void *_Ptr = 0;
; 32   : 
; 33   : 	if (_Count <= 0)

  00003	8b 4d 08	 mov	 ecx, DWORD PTR __Count$[ebp]
  00006	83 ec 0c	 sub	 esp, 12			; 0000000cH
  00009	33 c0		 xor	 eax, eax
  0000b	85 c9		 test	 ecx, ecx

; 34   : 		_Count = 0;
; 35   : 	else if (((_SIZT)(-1) / sizeof (_Ty) < _Count)

  0000d	74 3c		 je	 SHORT $LN5@Allocate

; 36   : 		|| (_Ptr = ::operator new(_Count * sizeof (_Ty))) == 0)

  0000f	81 f9 49 92 24
	09		 cmp	 ecx, 153391689		; 09249249H
  00015	77 0e		 ja	 SHORT $LN1@Allocate
  00017	6b c9 1c	 imul	 ecx, 28			; 0000001cH
  0001a	51		 push	 ecx
  0001b	e8 00 00 00 00	 call	 ??2@YAPAXI@Z		; operator new
  00020	59		 pop	 ecx
  00021	85 c0		 test	 eax, eax

; 38   : 
; 39   : 	return ((_Ty _FARQ *)_Ptr);

  00023	75 26		 jne	 SHORT $LN5@Allocate
$LN1@Allocate:

; 37   : 		_THROW_NCEE(bad_alloc, 0);

  00025	83 65 08 00	 and	 DWORD PTR $T533715[ebp], 0
  00029	8d 45 08	 lea	 eax, DWORD PTR $T533715[ebp]
  0002c	50		 push	 eax
  0002d	8d 4d f4	 lea	 ecx, DWORD PTR $T533710[ebp]
  00030	ff 15 00 00 00
	00		 call	 DWORD PTR __imp_??0exception@std@@QAE@ABQBD@Z
  00036	68 00 00 00 00	 push	 OFFSET __TI2?AVbad_alloc@std@@
  0003b	8d 45 f4	 lea	 eax, DWORD PTR $T533710[ebp]
  0003e	50		 push	 eax
  0003f	c7 45 f4 00 00
	00 00		 mov	 DWORD PTR $T533710[ebp], OFFSET ??_7bad_alloc@std@@6B@
  00046	e8 00 00 00 00	 call	 __CxxThrowException@8
$LN10@Allocate:
$LN5@Allocate:

; 40   : 	}

  0004b	c9		 leave
  0004c	c3		 ret	 0
$LN9@Allocate:
??$_Allocate@UtagDummyCharLoadInfo@@@std@@YAPAUtagDummyCharLoadInfo@@IPAU1@@Z ENDP ; std::_Allocate<tagDummyCharLoadInfo>
_TEXT	ENDS
PUBLIC	??$_Allocate@UtagDummyCharCreateInfo@@@std@@YAPAUtagDummyCharCreateInfo@@IPAU1@@Z ; std::_Allocate<tagDummyCharCreateInfo>
; Function compile flags: /Ogsp
;	COMDAT ??$_Allocate@UtagDummyCharCreateInfo@@@std@@YAPAUtagDummyCharCreateInfo@@IPAU1@@Z
_TEXT	SEGMENT
$T533720 = -12						; size = 12
$T533724 = 8						; size = 4
__Count$ = 8						; size = 4
___formal$ = 12						; size = 4
??$_Allocate@UtagDummyCharCreateInfo@@@std@@YAPAUtagDummyCharCreateInfo@@IPAU1@@Z PROC ; std::_Allocate<tagDummyCharCreateInfo>, COMDAT

; 30   : 	{	// allocate storage for _Count elements of type _Ty

  00000	55		 push	 ebp
  00001	8b ec		 mov	 ebp, esp

; 31   : 	void *_Ptr = 0;
; 32   : 
; 33   : 	if (_Count <= 0)

  00003	8b 4d 08	 mov	 ecx, DWORD PTR __Count$[ebp]
  00006	83 ec 0c	 sub	 esp, 12			; 0000000cH
  00009	33 c0		 xor	 eax, eax
  0000b	85 c9		 test	 ecx, ecx

; 34   : 		_Count = 0;
; 35   : 	else if (((_SIZT)(-1) / sizeof (_Ty) < _Count)

  0000d	74 3c		 je	 SHORT $LN5@Allocate@2

; 36   : 		|| (_Ptr = ::operator new(_Count * sizeof (_Ty))) == 0)

  0000f	81 f9 c7 71 1c
	07		 cmp	 ecx, 119304647		; 071c71c7H
  00015	77 0e		 ja	 SHORT $LN1@Allocate@2
  00017	6b c9 24	 imul	 ecx, 36			; 00000024H
  0001a	51		 push	 ecx
  0001b	e8 00 00 00 00	 call	 ??2@YAPAXI@Z		; operator new
  00020	59		 pop	 ecx
  00021	85 c0		 test	 eax, eax

; 38   : 
; 39   : 	return ((_Ty _FARQ *)_Ptr);

  00023	75 26		 jne	 SHORT $LN5@Allocate@2
$LN1@Allocate@2:

; 37   : 		_THROW_NCEE(bad_alloc, 0);

  00025	83 65 08 00	 and	 DWORD PTR $T533724[ebp], 0
  00029	8d 45 08	 lea	 eax, DWORD PTR $T533724[ebp]
  0002c	50		 push	 eax
  0002d	8d 4d f4	 lea	 ecx, DWORD PTR $T533720[ebp]
  00030	ff 15 00 00 00
	00		 call	 DWORD PTR __imp_??0exception@std@@QAE@ABQBD@Z
  00036	68 00 00 00 00	 push	 OFFSET __TI2?AVbad_alloc@std@@
  0003b	8d 45 f4	 lea	 eax, DWORD PTR $T533720[ebp]
  0003e	50		 push	 eax
  0003f	c7 45 f4 00 00
	00 00		 mov	 DWORD PTR $T533720[ebp], OFFSET ??_7bad_alloc@std@@6B@
  00046	e8 00 00 00 00	 call	 __CxxThrowException@8
$LN10@Allocate@2:
$LN5@Allocate@2:

; 40   : 	}

  0004b	c9		 leave
  0004c	c3		 ret	 0
$LN9@Allocate@2:
??$_Allocate@UtagDummyCharCreateInfo@@@std@@YAPAUtagDummyCharCreateInfo@@IPAU1@@Z ENDP ; std::_Allocate<tagDummyCharCreateInfo>
_TEXT	ENDS
PUBLIC	??$forward@AAUtagDummyCharCreateInfo@@@std@@YAAAUtagDummyCharCreateInfo@@AAU1@@Z ; std::forward<tagDummyCharCreateInfo &>
; Function compile flags: /Ogsp
; File c:\program files (x86)\microsoft visual studio 10.0\vc\include\utility
;	COMDAT ??$forward@AAUtagDummyCharCreateInfo@@@std@@YAAAUtagDummyCharCreateInfo@@AAU1@@Z
_TEXT	SEGMENT
__Arg$ = 8						; size = 4
??$forward@AAUtagDummyCharCreateInfo@@@std@@YAAAUtagDummyCharCreateInfo@@AAU1@@Z PROC ; std::forward<tagDummyCharCreateInfo &>, COMDAT

; 78   : 	{	// forward _Arg, given explicitly specified type parameter

  00000	55		 push	 ebp
  00001	8b ec		 mov	 ebp, esp

; 79   : 	return ((_Ty&&)_Arg);

  00003	8b 45 08	 mov	 eax, DWORD PTR __Arg$[ebp]

; 80   : 	}

  00006	5d		 pop	 ebp
  00007	c3		 ret	 0
??$forward@AAUtagDummyCharCreateInfo@@@std@@YAAAUtagDummyCharCreateInfo@@AAU1@@Z ENDP ; std::forward<tagDummyCharCreateInfo &>
_TEXT	ENDS
PUBLIC	??$forward@ABUtagDummyCharCreateInfo@@@std@@YAABUtagDummyCharCreateInfo@@ABU1@@Z ; std::forward<tagDummyCharCreateInfo const &>
; Function compile flags: /Ogsp
;	COMDAT ??$forward@ABUtagDummyCharCreateInfo@@@std@@YAABUtagDummyCharCreateInfo@@ABU1@@Z
_TEXT	SEGMENT
__Arg$ = 8						; size = 4
??$forward@ABUtagDummyCharCreateInfo@@@std@@YAABUtagDummyCharCreateInfo@@ABU1@@Z PROC ; std::forward<tagDummyCharCreateInfo const &>, COMDAT

; 78   : 	{	// forward _Arg, given explicitly specified type parameter

  00000	55		 push	 ebp
  00001	8b ec		 mov	 ebp, esp

; 79   : 	return ((_Ty&&)_Arg);

  00003	8b 45 08	 mov	 eax, DWORD PTR __Arg$[ebp]

; 80   : 	}

  00006	5d		 pop	 ebp
  00007	c3		 ret	 0
??$forward@ABUtagDummyCharCreateInfo@@@std@@YAABUtagDummyCharCreateInfo@@ABU1@@Z ENDP ; std::forward<tagDummyCharCreateInfo const &>
_TEXT	ENDS
PUBLIC	??$_Ptr_cat@UtagDummyCharCreateInfo@@U1@@std@@YA?AU_Nonscalar_ptr_iterator_tag@0@PAUtagDummyCharCreateInfo@@0@Z ; std::_Ptr_cat<tagDummyCharCreateInfo,tagDummyCharCreateInfo>
; Function compile flags: /Ogsp
; File c:\program files (x86)\microsoft visual studio 10.0\vc\include\xutility
;	COMDAT ??$_Ptr_cat@UtagDummyCharCreateInfo@@U1@@std@@YA?AU_Nonscalar_ptr_iterator_tag@0@PAUtagDummyCharCreateInfo@@0@Z
_TEXT	SEGMENT
__Cat$ = -1						; size = 1
___formal$ = 8						; size = 4
___formal$ = 12						; size = 4
??$_Ptr_cat@UtagDummyCharCreateInfo@@U1@@std@@YA?AU_Nonscalar_ptr_iterator_tag@0@PAUtagDummyCharCreateInfo@@0@Z PROC ; std::_Ptr_cat<tagDummyCharCreateInfo,tagDummyCharCreateInfo>, COMDAT

; 516  : 	{	// return pointer category from pointers

  00000	55		 push	 ebp
  00001	8b ec		 mov	 ebp, esp
  00003	51		 push	 ecx

; 517  : 	typename _Ptr_cat_helper<_Elem1, _Elem2>::_Type _Cat;
; 518  : 	return (_Cat);

  00004	8a 45 ff	 mov	 al, BYTE PTR __Cat$[ebp]

; 519  : 	}

  00007	c9		 leave
  00008	c3		 ret	 0
??$_Ptr_cat@UtagDummyCharCreateInfo@@U1@@std@@YA?AU_Nonscalar_ptr_iterator_tag@0@PAUtagDummyCharCreateInfo@@0@Z ENDP ; std::_Ptr_cat<tagDummyCharCreateInfo,tagDummyCharCreateInfo>
_TEXT	ENDS
PUBLIC	??0tagDummyCharCreateInfo@@QAE@ABU0@@Z		; tagDummyCharCreateInfo::tagDummyCharCreateInfo
EXTRN	__imp_??0ioHashString@@QAE@ABV0@@Z:PROC
EXTRN	__fltused:DWORD
; Function compile flags: /Ogsp
;	COMDAT ??0tagDummyCharCreateInfo@@QAE@ABU0@@Z
_TEXT	SEGMENT
___that$ = 8						; size = 4
??0tagDummyCharCreateInfo@@QAE@ABU0@@Z PROC		; tagDummyCharCreateInfo::tagDummyCharCreateInfo, COMDAT
; _this$ = ecx
  00000	55		 push	 ebp
  00001	8b ec		 mov	 ebp, esp
  00003	53		 push	 ebx
  00004	56		 push	 esi
  00005	8b 75 08	 mov	 esi, DWORD PTR ___that$[ebp]
  00008	57		 push	 edi
  00009	56		 push	 esi
  0000a	8b d9		 mov	 ebx, ecx
  0000c	ff 15 00 00 00
	00		 call	 DWORD PTR __imp_??0ioHashString@@QAE@ABV0@@Z
  00012	8b 46 10	 mov	 eax, DWORD PTR [esi+16]
  00015	89 43 10	 mov	 DWORD PTR [ebx+16], eax
  00018	d9 46 14	 fld	 DWORD PTR [esi+20]
  0001b	83 c6 18	 add	 esi, 24			; 00000018H
  0001e	d9 5b 14	 fstp	 DWORD PTR [ebx+20]
  00021	8d 7b 18	 lea	 edi, DWORD PTR [ebx+24]
  00024	a5		 movsd
  00025	a5		 movsd
  00026	a5		 movsd
  00027	5f		 pop	 edi
  00028	5e		 pop	 esi
  00029	8b c3		 mov	 eax, ebx
  0002b	5b		 pop	 ebx
  0002c	5d		 pop	 ebp
  0002d	c2 04 00	 ret	 4
??0tagDummyCharCreateInfo@@QAE@ABU0@@Z ENDP		; tagDummyCharCreateInfo::tagDummyCharCreateInfo
_TEXT	ENDS
PUBLIC	??4tagDummyCharCreateInfo@@QAEAAU0@ABU0@@Z	; tagDummyCharCreateInfo::operator=
EXTRN	__imp_??4ioHashString@@QAEAAV0@ABV0@@Z:PROC
; Function compile flags: /Ogsp
;	COMDAT ??4tagDummyCharCreateInfo@@QAEAAU0@ABU0@@Z
_TEXT	SEGMENT
___that$ = 8						; size = 4
??4tagDummyCharCreateInfo@@QAEAAU0@ABU0@@Z PROC		; tagDummyCharCreateInfo::operator=, COMDAT
; _this$ = ecx
  00000	55		 push	 ebp
  00001	8b ec		 mov	 ebp, esp
  00003	53		 push	 ebx
  00004	56		 push	 esi
  00005	8b 75 08	 mov	 esi, DWORD PTR ___that$[ebp]
  00008	57		 push	 edi
  00009	56		 push	 esi
  0000a	8b d9		 mov	 ebx, ecx
  0000c	ff 15 00 00 00
	00		 call	 DWORD PTR __imp_??4ioHashString@@QAEAAV0@ABV0@@Z
  00012	8b 46 10	 mov	 eax, DWORD PTR [esi+16]
  00015	89 43 10	 mov	 DWORD PTR [ebx+16], eax
  00018	d9 46 14	 fld	 DWORD PTR [esi+20]
  0001b	83 c6 18	 add	 esi, 24			; 00000018H
  0001e	d9 5b 14	 fstp	 DWORD PTR [ebx+20]
  00021	8d 7b 18	 lea	 edi, DWORD PTR [ebx+24]
  00024	a5		 movsd
  00025	a5		 movsd
  00026	a5		 movsd
  00027	5f		 pop	 edi
  00028	5e		 pop	 esi
  00029	8b c3		 mov	 eax, ebx
  0002b	5b		 pop	 ebx
  0002c	5d		 pop	 ebp
  0002d	c2 04 00	 ret	 4
??4tagDummyCharCreateInfo@@QAEAAU0@ABU0@@Z ENDP		; tagDummyCharCreateInfo::operator=
_TEXT	ENDS
PUBLIC	??$_Ptr_cat@V?$_Vector_const_iterator@V?$_Vector_val@UtagDummyCharLoadInfo@@V?$allocator@UtagDummyCharLoadInfo@@@std@@@std@@@std@@PAUtagDummyCharLoadInfo@@@std@@YA?AU_Nonscalar_ptr_iterator_tag@0@AAV?$_Vector_const_iterator@V?$_Vector_val@UtagDummyCharLoadInfo@@V?$allocator@UtagDummyCharLoadInfo@@@std@@@std@@@0@AAPAUtagDummyCharLoadInfo@@@Z ; std::_Ptr_cat<std::_Vector_const_iterator<std::_Vector_val<tagDummyCharLoadInfo,std::allocator<tagDummyCharLoadInfo> > >,tagDummyCharLoadInfo *>
; Function compile flags: /Ogsp
;	COMDAT ??$_Ptr_cat@V?$_Vector_const_iterator@V?$_Vector_val@UtagDummyCharLoadInfo@@V?$allocator@UtagDummyCharLoadInfo@@@std@@@std@@@std@@PAUtagDummyCharLoadInfo@@@std@@YA?AU_Nonscalar_ptr_iterator_tag@0@AAV?$_Vector_const_iterator@V?$_Vector_val@UtagDummyCharLoadInfo@@V?$allocator@UtagDummyCharLoadInfo@@@std@@@std@@@0@AAPAUtagDummyCharLoadInfo@@@Z
_TEXT	SEGMENT
__Cat$ = -1						; size = 1
___formal$ = 8						; size = 4
___formal$ = 12						; size = 4
??$_Ptr_cat@V?$_Vector_const_iterator@V?$_Vector_val@UtagDummyCharLoadInfo@@V?$allocator@UtagDummyCharLoadInfo@@@std@@@std@@@std@@PAUtagDummyCharLoadInfo@@@std@@YA?AU_Nonscalar_ptr_iterator_tag@0@AAV?$_Vector_const_iterator@V?$_Vector_val@UtagDummyCharLoadInfo@@V?$allocator@UtagDummyCharLoadInfo@@@std@@@std@@@0@AAPAUtagDummyCharLoadInfo@@@Z PROC ; std::_Ptr_cat<std::_Vector_const_iterator<std::_Vector_val<tagDummyCharLoadInfo,std::allocator<tagDummyCharLoadInfo> > >,tagDummyCharLoadInfo *>, COMDAT

; 485  : 	{	// return pointer category from arbitrary arguments

  00000	55		 push	 ebp
  00001	8b ec		 mov	 ebp, esp
  00003	51		 push	 ecx

; 486  : 	_Nonscalar_ptr_iterator_tag _Cat;
; 487  : 	return (_Cat);

  00004	8a 45 ff	 mov	 al, BYTE PTR __Cat$[ebp]

; 488  : 	}

  00007	c9		 leave
  00008	c3		 ret	 0
??$_Ptr_cat@V?$_Vector_const_iterator@V?$_Vector_val@UtagDummyCharLoadInfo@@V?$allocator@UtagDummyCharLoadInfo@@@std@@@std@@@std@@PAUtagDummyCharLoadInfo@@@std@@YA?AU_Nonscalar_ptr_iterator_tag@0@AAV?$_Vector_const_iterator@V?$_Vector_val@UtagDummyCharLoadInfo@@V?$allocator@UtagDummyCharLoadInfo@@@std@@@std@@@0@AAPAUtagDummyCharLoadInfo@@@Z ENDP ; std::_Ptr_cat<std::_Vector_const_iterator<std::_Vector_val<tagDummyCharLoadInfo,std::allocator<tagDummyCharLoadInfo> > >,tagDummyCharLoadInfo *>
_TEXT	ENDS
PUBLIC	??$move@AAUtagDummyCharCreateInfo@@@std@@YA$$QAUtagDummyCharCreateInfo@@AAU1@@Z ; std::move<tagDummyCharCreateInfo &>
; Function compile flags: /Ogsp
; File c:\program files (x86)\microsoft visual studio 10.0\vc\include\utility
;	COMDAT ??$move@AAUtagDummyCharCreateInfo@@@std@@YA$$QAUtagDummyCharCreateInfo@@AAU1@@Z
_TEXT	SEGMENT
__Arg$ = 8						; size = 4
??$move@AAUtagDummyCharCreateInfo@@@std@@YA$$QAUtagDummyCharCreateInfo@@AAU1@@Z PROC ; std::move<tagDummyCharCreateInfo &>, COMDAT

; 86   : 	{	// forward _Arg as movable

  00000	55		 push	 ebp
  00001	8b ec		 mov	 ebp, esp

; 87   : 	return ((typename tr1::_Remove_reference<_Ty>::_Type&&)_Arg);

  00003	8b 45 08	 mov	 eax, DWORD PTR __Arg$[ebp]

; 88   : 	}

  00006	5d		 pop	 ebp
  00007	c3		 ret	 0
??$move@AAUtagDummyCharCreateInfo@@@std@@YA$$QAUtagDummyCharCreateInfo@@AAU1@@Z ENDP ; std::move<tagDummyCharCreateInfo &>
_TEXT	ENDS
PUBLIC	??$_Val_type@PAUtagDummyCharCreateInfo@@@std@@YAPAUtagDummyCharCreateInfo@@PAU1@@Z ; std::_Val_type<tagDummyCharCreateInfo *>
; Function compile flags: /Ogsp
; File c:\program files (x86)\microsoft visual studio 10.0\vc\include\xutility
;	COMDAT ??$_Val_type@PAUtagDummyCharCreateInfo@@@std@@YAPAUtagDummyCharCreateInfo@@PAU1@@Z
_TEXT	SEGMENT
___formal$ = 8						; size = 4
??$_Val_type@PAUtagDummyCharCreateInfo@@@std@@YAPAUtagDummyCharCreateInfo@@PAU1@@Z PROC ; std::_Val_type<tagDummyCharCreateInfo *>, COMDAT

; 790  : 	return (0);

  00000	33 c0		 xor	 eax, eax

; 791  : 	}

  00002	c3		 ret	 0
??$_Val_type@PAUtagDummyCharCreateInfo@@@std@@YAPAUtagDummyCharCreateInfo@@PAU1@@Z ENDP ; std::_Val_type<tagDummyCharCreateInfo *>
_TEXT	ENDS
PUBLIC	??D?$_Vector_const_iterator@V?$_Vector_val@UtagDummyCharLoadInfo@@V?$allocator@UtagDummyCharLoadInfo@@@std@@@std@@@std@@QBEABUtagDummyCharLoadInfo@@XZ ; std::_Vector_const_iterator<std::_Vector_val<tagDummyCharLoadInfo,std::allocator<tagDummyCharLoadInfo> > >::operator*
; Function compile flags: /Ogsp
; File c:\program files (x86)\microsoft visual studio 10.0\vc\include\vector
;	COMDAT ??D?$_Vector_const_iterator@V?$_Vector_val@UtagDummyCharLoadInfo@@V?$allocator@UtagDummyCharLoadInfo@@@std@@@std@@@std@@QBEABUtagDummyCharLoadInfo@@XZ
_TEXT	SEGMENT
??D?$_Vector_const_iterator@V?$_Vector_val@UtagDummyCharLoadInfo@@V?$allocator@UtagDummyCharLoadInfo@@@std@@@std@@@std@@QBEABUtagDummyCharLoadInfo@@XZ PROC ; std::_Vector_const_iterator<std::_Vector_val<tagDummyCharLoadInfo,std::allocator<tagDummyCharLoadInfo> > >::operator*, COMDAT
; _this$ = ecx

; 64   :  #if _ITERATOR_DEBUG_LEVEL == 2
; 65   : 		if (this->_Getcont() == 0
; 66   : 			|| this->_Ptr == 0
; 67   : 			|| this->_Ptr < ((_Myvec *)this->_Getcont())->_Myfirst
; 68   : 			|| ((_Myvec *)this->_Getcont())->_Mylast <= this->_Ptr)
; 69   : 			{	// report error
; 70   : 			_DEBUG_ERROR("vector iterator not dereferencable");
; 71   : 			_SCL_SECURE_OUT_OF_RANGE;
; 72   : 			}
; 73   : 
; 74   :  #elif _ITERATOR_DEBUG_LEVEL == 1
; 75   : 		_SCL_SECURE_VALIDATE(this->_Getcont() != 0);
; 76   : 		_SCL_SECURE_VALIDATE_RANGE(
; 77   : 			this->_Ptr != 0
; 78   : 			&& ((_Myvec *)this->_Getcont())->_Myfirst <= this->_Ptr
; 79   : 			&& this->_Ptr < ((_Myvec *)this->_Getcont())->_Mylast);
; 80   :  #endif /* _ITERATOR_DEBUG_LEVEL */
; 81   : 
; 82   : 		__analysis_assume(this->_Ptr != 0);
; 83   : 
; 84   : 		return (*this->_Ptr);

  00000	8b 01		 mov	 eax, DWORD PTR [ecx]

; 85   : 		}

  00002	c3		 ret	 0
??D?$_Vector_const_iterator@V?$_Vector_val@UtagDummyCharLoadInfo@@V?$allocator@UtagDummyCharLoadInfo@@@std@@@std@@@std@@QBEABUtagDummyCharLoadInfo@@XZ ENDP ; std::_Vector_const_iterator<std::_Vector_val<tagDummyCharLoadInfo,std::allocator<tagDummyCharLoadInfo> > >::operator*
_TEXT	ENDS
PUBLIC	??E?$_Vector_const_iterator@V?$_Vector_val@UtagDummyCharLoadInfo@@V?$allocator@UtagDummyCharLoadInfo@@@std@@@std@@@std@@QAEAAV01@XZ ; std::_Vector_const_iterator<std::_Vector_val<tagDummyCharLoadInfo,std::allocator<tagDummyCharLoadInfo> > >::operator++
; Function compile flags: /Ogsp
;	COMDAT ??E?$_Vector_const_iterator@V?$_Vector_val@UtagDummyCharLoadInfo@@V?$allocator@UtagDummyCharLoadInfo@@@std@@@std@@@std@@QAEAAV01@XZ
_TEXT	SEGMENT
??E?$_Vector_const_iterator@V?$_Vector_val@UtagDummyCharLoadInfo@@V?$allocator@UtagDummyCharLoadInfo@@@std@@@std@@@std@@QAEAAV01@XZ PROC ; std::_Vector_const_iterator<std::_Vector_val<tagDummyCharLoadInfo,std::allocator<tagDummyCharLoadInfo> > >::operator++, COMDAT
; _this$ = ecx

; 93   : 		{	// preincrement

  00000	8b c1		 mov	 eax, ecx

; 94   :  #if _ITERATOR_DEBUG_LEVEL == 2
; 95   : 		if (this->_Getcont() == 0
; 96   : 			|| this->_Ptr == 0
; 97   : 			|| ((_Myvec *)this->_Getcont())->_Mylast <= this->_Ptr)
; 98   : 			{	// report error
; 99   : 			_DEBUG_ERROR("vector iterator not incrementable");
; 100  : 			_SCL_SECURE_OUT_OF_RANGE;
; 101  : 			}
; 102  : 
; 103  :  #elif _ITERATOR_DEBUG_LEVEL == 1
; 104  : 		_SCL_SECURE_VALIDATE(this->_Getcont() != 0);
; 105  : 		_SCL_SECURE_VALIDATE_RANGE(
; 106  : 			this->_Ptr != 0
; 107  : 			&& this->_Ptr < ((_Myvec *)this->_Getcont())->_Mylast);
; 108  :  #endif /* _ITERATOR_DEBUG_LEVEL */
; 109  : 
; 110  : 		++this->_Ptr;

  00002	83 00 1c	 add	 DWORD PTR [eax], 28	; 0000001cH

; 111  : 		return (*this);
; 112  : 		}

  00005	c3		 ret	 0
??E?$_Vector_const_iterator@V?$_Vector_val@UtagDummyCharLoadInfo@@V?$allocator@UtagDummyCharLoadInfo@@@std@@@std@@@std@@QAEAAV01@XZ ENDP ; std::_Vector_const_iterator<std::_Vector_val<tagDummyCharLoadInfo,std::allocator<tagDummyCharLoadInfo> > >::operator++
_TEXT	ENDS
PUBLIC	??_GtagDummyCharCreateInfo@@QAEPAXI@Z		; tagDummyCharCreateInfo::`scalar deleting destructor'
; Function compile flags: /Ogsp
;	COMDAT ??_GtagDummyCharCreateInfo@@QAEPAXI@Z
_TEXT	SEGMENT
___flags$ = 8						; size = 4
??_GtagDummyCharCreateInfo@@QAEPAXI@Z PROC		; tagDummyCharCreateInfo::`scalar deleting destructor', COMDAT
; _this$ = ecx
  00000	55		 push	 ebp
  00001	8b ec		 mov	 ebp, esp
  00003	56		 push	 esi
  00004	8b f1		 mov	 esi, ecx
  00006	ff 15 00 00 00
	00		 call	 DWORD PTR __imp_??1ioHashString@@QAE@XZ
  0000c	f6 45 08 01	 test	 BYTE PTR ___flags$[ebp], 1
  00010	74 07		 je	 SHORT $LN1@scalar@2
  00012	56		 push	 esi
  00013	e8 00 00 00 00	 call	 ??3@YAXPAX@Z		; operator delete
  00018	59		 pop	 ecx
$LN1@scalar@2:
  00019	8b c6		 mov	 eax, esi
  0001b	5e		 pop	 esi
  0001c	5d		 pop	 ebp
  0001d	c2 04 00	 ret	 4
??_GtagDummyCharCreateInfo@@QAEPAXI@Z ENDP		; tagDummyCharCreateInfo::`scalar deleting destructor'
_TEXT	ENDS
PUBLIC	??$forward@ABUtagDummyCharLoadInfo@@@std@@YAABUtagDummyCharLoadInfo@@ABU1@@Z ; std::forward<tagDummyCharLoadInfo const &>
; Function compile flags: /Ogsp
; File c:\program files (x86)\microsoft visual studio 10.0\vc\include\utility
;	COMDAT ??$forward@ABUtagDummyCharLoadInfo@@@std@@YAABUtagDummyCharLoadInfo@@ABU1@@Z
_TEXT	SEGMENT
__Arg$ = 8						; size = 4
??$forward@ABUtagDummyCharLoadInfo@@@std@@YAABUtagDummyCharLoadInfo@@ABU1@@Z PROC ; std::forward<tagDummyCharLoadInfo const &>, COMDAT

; 78   : 	{	// forward _Arg, given explicitly specified type parameter

  00000	55		 push	 ebp
  00001	8b ec		 mov	 ebp, esp

; 79   : 	return ((_Ty&&)_Arg);

  00003	8b 45 08	 mov	 eax, DWORD PTR __Arg$[ebp]

; 80   : 	}

  00006	5d		 pop	 ebp
  00007	c3		 ret	 0
??$forward@ABUtagDummyCharLoadInfo@@@std@@YAABUtagDummyCharLoadInfo@@ABU1@@Z ENDP ; std::forward<tagDummyCharLoadInfo const &>
_TEXT	ENDS
PUBLIC	??$forward@UtagDummyCharCreateInfo@@@std@@YA$$QAUtagDummyCharCreateInfo@@AAU1@@Z ; std::forward<tagDummyCharCreateInfo>
; Function compile flags: /Ogsp
;	COMDAT ??$forward@UtagDummyCharCreateInfo@@@std@@YA$$QAUtagDummyCharCreateInfo@@AAU1@@Z
_TEXT	SEGMENT
__Arg$ = 8						; size = 4
??$forward@UtagDummyCharCreateInfo@@@std@@YA$$QAUtagDummyCharCreateInfo@@AAU1@@Z PROC ; std::forward<tagDummyCharCreateInfo>, COMDAT

; 78   : 	{	// forward _Arg, given explicitly specified type parameter

  00000	55		 push	 ebp
  00001	8b ec		 mov	 ebp, esp

; 79   : 	return ((_Ty&&)_Arg);

  00003	8b 45 08	 mov	 eax, DWORD PTR __Arg$[ebp]

; 80   : 	}

  00006	5d		 pop	 ebp
  00007	c3		 ret	 0
??$forward@UtagDummyCharCreateInfo@@@std@@YA$$QAUtagDummyCharCreateInfo@@AAU1@@Z ENDP ; std::forward<tagDummyCharCreateInfo>
_TEXT	ENDS
PUBLIC	??0tagDummyCharLoadInfo@@QAE@ABU0@@Z		; tagDummyCharLoadInfo::tagDummyCharLoadInfo
; Function compile flags: /Ogsp
;	COMDAT ??0tagDummyCharLoadInfo@@QAE@ABU0@@Z
_TEXT	SEGMENT
___that$ = 8						; size = 4
??0tagDummyCharLoadInfo@@QAE@ABU0@@Z PROC		; tagDummyCharLoadInfo::tagDummyCharLoadInfo, COMDAT
; _this$ = ecx
  00000	55		 push	 ebp
  00001	8b ec		 mov	 ebp, esp
  00003	56		 push	 esi
  00004	57		 push	 edi
  00005	8b 7d 08	 mov	 edi, DWORD PTR ___that$[ebp]
  00008	57		 push	 edi
  00009	8b f1		 mov	 esi, ecx
  0000b	ff 15 00 00 00
	00		 call	 DWORD PTR __imp_??0ioHashString@@QAE@ABV0@@Z
  00011	d9 47 10	 fld	 DWORD PTR [edi+16]
  00014	d9 5e 10	 fstp	 DWORD PTR [esi+16]
  00017	8b c6		 mov	 eax, esi
  00019	d9 47 14	 fld	 DWORD PTR [edi+20]
  0001c	d9 5e 14	 fstp	 DWORD PTR [esi+20]
  0001f	d9 47 18	 fld	 DWORD PTR [edi+24]
  00022	5f		 pop	 edi
  00023	d9 5e 18	 fstp	 DWORD PTR [esi+24]
  00026	5e		 pop	 esi
  00027	5d		 pop	 ebp
  00028	c2 04 00	 ret	 4
??0tagDummyCharLoadInfo@@QAE@ABU0@@Z ENDP		; tagDummyCharLoadInfo::tagDummyCharLoadInfo
_TEXT	ENDS
PUBLIC	??0D3DXVECTOR3@@QAE@XZ				; D3DXVECTOR3::D3DXVECTOR3
; Function compile flags: /Ogsp
; File c:\program files (x86)\microsoft directx sdk (june 2010)\include\d3dx9math.h
;	COMDAT ??0D3DXVECTOR3@@QAE@XZ
_TEXT	SEGMENT
??0D3DXVECTOR3@@QAE@XZ PROC				; D3DXVECTOR3::D3DXVECTOR3, COMDAT
; _this$ = ecx

; 165  :     D3DXVECTOR3() {};

  00000	8b c1		 mov	 eax, ecx
  00002	c3		 ret	 0
??0D3DXVECTOR3@@QAE@XZ ENDP				; D3DXVECTOR3::D3DXVECTOR3
_TEXT	ENDS
PUBLIC	??0D3DXVECTOR3@@QAE@MMM@Z			; D3DXVECTOR3::D3DXVECTOR3
; Function compile flags: /Ogsp
; File c:\program files (x86)\microsoft directx sdk (june 2010)\include\d3dx9math.inl
;	COMDAT ??0D3DXVECTOR3@@QAE@MMM@Z
_TEXT	SEGMENT
_fx$ = 8						; size = 4
_fy$ = 12						; size = 4
_fz$ = 16						; size = 4
??0D3DXVECTOR3@@QAE@MMM@Z PROC				; D3DXVECTOR3::D3DXVECTOR3, COMDAT
; _this$ = ecx

; 303  : {

  00000	55		 push	 ebp
  00001	8b ec		 mov	 ebp, esp

; 304  :     x = fx;

  00003	f3 0f 10 45 08	 movss	 xmm0, DWORD PTR _fx$[ebp]
  00008	8b c1		 mov	 eax, ecx
  0000a	f3 0f 11 00	 movss	 DWORD PTR [eax], xmm0

; 305  :     y = fy;

  0000e	f3 0f 10 45 0c	 movss	 xmm0, DWORD PTR _fy$[ebp]
  00013	f3 0f 11 40 04	 movss	 DWORD PTR [eax+4], xmm0

; 306  :     z = fz;

  00018	f3 0f 10 45 10	 movss	 xmm0, DWORD PTR _fz$[ebp]
  0001d	f3 0f 11 40 08	 movss	 DWORD PTR [eax+8], xmm0

; 307  : }

  00022	5d		 pop	 ebp
  00023	c2 0c 00	 ret	 12			; 0000000cH
??0D3DXVECTOR3@@QAE@MMM@Z ENDP				; D3DXVECTOR3::D3DXVECTOR3
_TEXT	ENDS
PUBLIC	??YD3DXVECTOR3@@QAEAAU0@ABU0@@Z			; D3DXVECTOR3::operator+=
; Function compile flags: /Ogsp
;	COMDAT ??YD3DXVECTOR3@@QAEAAU0@ABU0@@Z
_TEXT	SEGMENT
_v$ = 8							; size = 4
??YD3DXVECTOR3@@QAEAAU0@ABU0@@Z PROC			; D3DXVECTOR3::operator+=, COMDAT
; _this$ = ecx

; 327  : {

  00000	55		 push	 ebp
  00001	8b ec		 mov	 ebp, esp
  00003	8b c1		 mov	 eax, ecx

; 328  :     x += v.x;

  00005	8b 4d 08	 mov	 ecx, DWORD PTR _v$[ebp]
  00008	f3 0f 10 01	 movss	 xmm0, DWORD PTR [ecx]
  0000c	f3 0f 10 08	 movss	 xmm1, DWORD PTR [eax]
  00010	0f 5a c0	 cvtps2pd xmm0, xmm0
  00013	0f 5a c9	 cvtps2pd xmm1, xmm1
  00016	f2 0f 58 c1	 addsd	 xmm0, xmm1

; 329  :     y += v.y;

  0001a	f3 0f 10 48 04	 movss	 xmm1, DWORD PTR [eax+4]
  0001f	66 0f 5a c0	 cvtpd2ps xmm0, xmm0
  00023	f3 0f 11 00	 movss	 DWORD PTR [eax], xmm0
  00027	f3 0f 10 41 04	 movss	 xmm0, DWORD PTR [ecx+4]
  0002c	0f 5a c0	 cvtps2pd xmm0, xmm0
  0002f	0f 5a c9	 cvtps2pd xmm1, xmm1
  00032	f2 0f 58 c1	 addsd	 xmm0, xmm1

; 330  :     z += v.z;

  00036	f3 0f 10 48 08	 movss	 xmm1, DWORD PTR [eax+8]
  0003b	66 0f 5a c0	 cvtpd2ps xmm0, xmm0
  0003f	f3 0f 11 40 04	 movss	 DWORD PTR [eax+4], xmm0
  00044	f3 0f 10 41 08	 movss	 xmm0, DWORD PTR [ecx+8]
  00049	0f 5a c0	 cvtps2pd xmm0, xmm0
  0004c	0f 5a c9	 cvtps2pd xmm1, xmm1
  0004f	f2 0f 58 c1	 addsd	 xmm0, xmm1
  00053	66 0f 5a c0	 cvtpd2ps xmm0, xmm0
  00057	f3 0f 11 40 08	 movss	 DWORD PTR [eax+8], xmm0

; 331  :     return *this;
; 332  : }

  0005c	5d		 pop	 ebp
  0005d	c2 04 00	 ret	 4
??YD3DXVECTOR3@@QAEAAU0@ABU0@@Z ENDP			; D3DXVECTOR3::operator+=
_TEXT	ENDS
PUBLIC	??HD3DXVECTOR3@@QBE?AU0@ABU0@@Z			; D3DXVECTOR3::operator+
; Function compile flags: /Ogsp
;	COMDAT ??HD3DXVECTOR3@@QBE?AU0@ABU0@@Z
_TEXT	SEGMENT
___$ReturnUdt$ = 8					; size = 4
_v$ = 12						; size = 4
??HD3DXVECTOR3@@QBE?AU0@ABU0@@Z PROC			; D3DXVECTOR3::operator+, COMDAT
; _this$ = ecx

; 380  : {

  00000	55		 push	 ebp
  00001	8b ec		 mov	 ebp, esp

; 381  :     return D3DXVECTOR3(x + v.x, y + v.y, z + v.z);

  00003	8b 55 0c	 mov	 edx, DWORD PTR _v$[ebp]
  00006	f3 0f 10 02	 movss	 xmm0, DWORD PTR [edx]
  0000a	f3 0f 10 09	 movss	 xmm1, DWORD PTR [ecx]
  0000e	8b 45 08	 mov	 eax, DWORD PTR ___$ReturnUdt$[ebp]
  00011	0f 5a c0	 cvtps2pd xmm0, xmm0
  00014	0f 5a c9	 cvtps2pd xmm1, xmm1
  00017	f2 0f 58 c1	 addsd	 xmm0, xmm1
  0001b	f3 0f 10 49 04	 movss	 xmm1, DWORD PTR [ecx+4]
  00020	66 0f 5a c0	 cvtpd2ps xmm0, xmm0
  00024	f3 0f 11 00	 movss	 DWORD PTR [eax], xmm0
  00028	f3 0f 10 42 04	 movss	 xmm0, DWORD PTR [edx+4]
  0002d	0f 5a c0	 cvtps2pd xmm0, xmm0
  00030	0f 5a c9	 cvtps2pd xmm1, xmm1
  00033	f2 0f 58 c1	 addsd	 xmm0, xmm1
  00037	f3 0f 10 49 08	 movss	 xmm1, DWORD PTR [ecx+8]
  0003c	66 0f 5a c0	 cvtpd2ps xmm0, xmm0
  00040	f3 0f 11 40 04	 movss	 DWORD PTR [eax+4], xmm0
  00045	f3 0f 10 42 08	 movss	 xmm0, DWORD PTR [edx+8]
  0004a	0f 5a c0	 cvtps2pd xmm0, xmm0
  0004d	0f 5a c9	 cvtps2pd xmm1, xmm1
  00050	f2 0f 58 c1	 addsd	 xmm0, xmm1
  00054	66 0f 5a c0	 cvtpd2ps xmm0, xmm0
  00058	f3 0f 11 40 08	 movss	 DWORD PTR [eax+8], xmm0

; 382  : }

  0005d	5d		 pop	 ebp
  0005e	c2 08 00	 ret	 8
??HD3DXVECTOR3@@QBE?AU0@ABU0@@Z ENDP			; D3DXVECTOR3::operator+
_TEXT	ENDS
PUBLIC	??D@YA?AUD3DXVECTOR3@@MABU0@@Z			; operator*
; Function compile flags: /Ogsp
;	COMDAT ??D@YA?AUD3DXVECTOR3@@MABU0@@Z
_TEXT	SEGMENT
___$ReturnUdt$ = 8					; size = 4
_f$ = 12						; size = 4
_v$ = 16						; size = 4
??D@YA?AUD3DXVECTOR3@@MABU0@@Z PROC			; operator*, COMDAT

; 406  : {

  00000	55		 push	 ebp
  00001	8b ec		 mov	 ebp, esp

; 407  :     return D3DXVECTOR3(f * v.x, f * v.y, f * v.z);

  00003	8b 4d 10	 mov	 ecx, DWORD PTR _v$[ebp]
  00006	f3 0f 10 4d 0c	 movss	 xmm1, DWORD PTR _f$[ebp]
  0000b	f3 0f 10 01	 movss	 xmm0, DWORD PTR [ecx]
  0000f	8b 45 08	 mov	 eax, DWORD PTR ___$ReturnUdt$[ebp]
  00012	0f 5a c0	 cvtps2pd xmm0, xmm0
  00015	0f 5a c9	 cvtps2pd xmm1, xmm1
  00018	f2 0f 59 c1	 mulsd	 xmm0, xmm1
  0001c	f3 0f 10 4d 0c	 movss	 xmm1, DWORD PTR _f$[ebp]
  00021	66 0f 5a c0	 cvtpd2ps xmm0, xmm0
  00025	f3 0f 11 00	 movss	 DWORD PTR [eax], xmm0
  00029	f3 0f 10 41 04	 movss	 xmm0, DWORD PTR [ecx+4]
  0002e	0f 5a c0	 cvtps2pd xmm0, xmm0
  00031	0f 5a c9	 cvtps2pd xmm1, xmm1
  00034	f2 0f 59 c1	 mulsd	 xmm0, xmm1
  00038	f3 0f 10 4d 0c	 movss	 xmm1, DWORD PTR _f$[ebp]
  0003d	66 0f 5a c0	 cvtpd2ps xmm0, xmm0
  00041	f3 0f 11 40 04	 movss	 DWORD PTR [eax+4], xmm0
  00046	f3 0f 10 41 08	 movss	 xmm0, DWORD PTR [ecx+8]
  0004b	0f 5a c0	 cvtps2pd xmm0, xmm0
  0004e	0f 5a c9	 cvtps2pd xmm1, xmm1
  00051	f2 0f 59 c1	 mulsd	 xmm0, xmm1
  00055	66 0f 5a c0	 cvtpd2ps xmm0, xmm0
  00059	f3 0f 11 40 08	 movss	 DWORD PTR [eax+8], xmm0

; 408  : }

  0005e	5d		 pop	 ebp
  0005f	c3		 ret	 0
??D@YA?AUD3DXVECTOR3@@MABU0@@Z ENDP			; operator*
_TEXT	ENDS
PUBLIC	?D3DXVec3Cross@@YAPAUD3DXVECTOR3@@PAU1@PBU1@1@Z	; D3DXVec3Cross
; Function compile flags: /Ogsp
;	COMDAT ?D3DXVec3Cross@@YAPAUD3DXVECTOR3@@PAU1@PBU1@1@Z
_TEXT	SEGMENT
_v$ = -12						; size = 12
_pOut$ = 8						; size = 4
_pV1$ = 12						; size = 4
_pV2$ = 16						; size = 4
?D3DXVec3Cross@@YAPAUD3DXVECTOR3@@PAU1@PBU1@1@Z PROC	; D3DXVec3Cross, COMDAT

; 1747 : {

  00000	55		 push	 ebp
  00001	8b ec		 mov	 ebp, esp
  00003	83 ec 0c	 sub	 esp, 12			; 0000000cH

; 1757 :     v.z = pV1->x * pV2->y - pV1->y * pV2->x;
; 1758 : 
; 1759 :     *pOut = v;

  00006	56		 push	 esi
  00007	57		 push	 edi

; 1748 :     D3DXVECTOR3 v;
; 1749 : 
; 1750 : #ifdef D3DX_DEBUG
; 1751 :     if(!pOut || !pV1 || !pV2)
; 1752 :         return NULL;
; 1753 : #endif
; 1754 : 
; 1755 :     v.x = pV1->y * pV2->z - pV1->z * pV2->y;

  00008	8b 45 0c	 mov	 eax, DWORD PTR _pV1$[ebp]
  0000b	f3 0f 10 40 04	 movss	 xmm0, DWORD PTR [eax+4]
  00010	f3 0f 10 50 08	 movss	 xmm2, DWORD PTR [eax+8]
  00015	8b 4d 10	 mov	 ecx, DWORD PTR _pV2$[ebp]
  00018	f3 0f 10 49 08	 movss	 xmm1, DWORD PTR [ecx+8]
  0001d	f3 0f 10 59 04	 movss	 xmm3, DWORD PTR [ecx+4]
  00022	0f 5a e8	 cvtps2pd xmm5, xmm0
  00025	0f 5a e1	 cvtps2pd xmm4, xmm1
  00028	0f 5a f2	 cvtps2pd xmm6, xmm2
  0002b	f2 0f 59 e5	 mulsd	 xmm4, xmm5

; 1756 :     v.y = pV1->z * pV2->x - pV1->x * pV2->z;

  0002f	0f 5a d2	 cvtps2pd xmm2, xmm2
  00032	0f 5a c9	 cvtps2pd xmm1, xmm1
  00035	0f 5a eb	 cvtps2pd xmm5, xmm3
  00038	f2 0f 59 ee	 mulsd	 xmm5, xmm6
  0003c	f2 0f 5c e5	 subsd	 xmm4, xmm5
  00040	f3 0f 10 28	 movss	 xmm5, DWORD PTR [eax]

; 1757 :     v.z = pV1->x * pV2->y - pV1->y * pV2->x;
; 1758 : 
; 1759 :     *pOut = v;

  00044	8b 45 08	 mov	 eax, DWORD PTR _pOut$[ebp]
  00047	66 0f 5a e4	 cvtpd2ps xmm4, xmm4
  0004b	f3 0f 11 65 f4	 movss	 DWORD PTR _v$[ebp], xmm4
  00050	f3 0f 10 21	 movss	 xmm4, DWORD PTR [ecx]
  00054	0f 5a f4	 cvtps2pd xmm6, xmm4
  00057	f2 0f 59 f2	 mulsd	 xmm6, xmm2
  0005b	0f 5a d5	 cvtps2pd xmm2, xmm5
  0005e	f2 0f 59 d1	 mulsd	 xmm2, xmm1
  00062	f2 0f 5c f2	 subsd	 xmm6, xmm2
  00066	66 0f 5a ce	 cvtpd2ps xmm1, xmm6
  0006a	f3 0f 11 4d f8	 movss	 DWORD PTR _v$[ebp+4], xmm1
  0006f	0f 5a c0	 cvtps2pd xmm0, xmm0
  00072	0f 5a d3	 cvtps2pd xmm2, xmm3
  00075	0f 5a cd	 cvtps2pd xmm1, xmm5
  00078	f2 0f 59 ca	 mulsd	 xmm1, xmm2
  0007c	8d 75 f4	 lea	 esi, DWORD PTR _v$[ebp]
  0007f	8b f8		 mov	 edi, eax
  00081	0f 5a d4	 cvtps2pd xmm2, xmm4
  00084	f2 0f 59 d0	 mulsd	 xmm2, xmm0
  00088	f2 0f 5c ca	 subsd	 xmm1, xmm2
  0008c	66 0f 5a c1	 cvtpd2ps xmm0, xmm1
  00090	f3 0f 11 45 fc	 movss	 DWORD PTR _v$[ebp+8], xmm0
  00095	a5		 movsd
  00096	a5		 movsd
  00097	a5		 movsd
  00098	5f		 pop	 edi
  00099	5e		 pop	 esi

; 1760 :     return pOut;
; 1761 : }

  0009a	c9		 leave
  0009b	c3		 ret	 0
?D3DXVec3Cross@@YAPAUD3DXVECTOR3@@PAU1@PBU1@1@Z ENDP	; D3DXVec3Cross
_TEXT	ENDS
PUBLIC	?_DECSTR@@YAXPADH@Z				; _DECSTR
; Function compile flags: /Ogsp
; File d:\lost saga for developer\youtube\tutorial\source\src\lsclient\stringprotect.h
;	COMDAT ?_DECSTR@@YAXPADH@Z
_TEXT	SEGMENT
_s$ = 8							; size = 4
_l$ = 12						; size = 4
?_DECSTR@@YAXPADH@Z PROC				; _DECSTR, COMDAT

; 40   : __forceinline void _DECSTR(char* s, int l){int i=0,l4=(l-1)/4,*p=(int*)s;s[l-1]=0;for(;i<l4;++i)*(p++)^=0xEAEBECED;for(i=l4*4;i<l-1;++i)s[i]^=0xED-i%4;}

  00000	55		 push	 ebp
  00001	8b ec		 mov	 ebp, esp
  00003	8b 4d 0c	 mov	 ecx, DWORD PTR _l$[ebp]
  00006	56		 push	 esi
  00007	8b 75 08	 mov	 esi, DWORD PTR _s$[ebp]
  0000a	57		 push	 edi
  0000b	8d 79 ff	 lea	 edi, DWORD PTR [ecx-1]
  0000e	8b c7		 mov	 eax, edi
  00010	99		 cdq
  00011	83 e2 03	 and	 edx, 3
  00014	03 c2		 add	 eax, edx
  00016	c1 f8 02	 sar	 eax, 2
  00019	8b d6		 mov	 edx, esi
  0001b	c6 44 0e ff 00	 mov	 BYTE PTR [esi+ecx-1], 0
  00020	85 c0		 test	 eax, eax
  00022	7e 0e		 jle	 SHORT $LN4@DECSTR
  00024	8b c8		 mov	 ecx, eax
$LL6@DECSTR:
  00026	81 32 ed ec eb
	ea		 xor	 DWORD PTR [edx], -353637139 ; eaebecedH
  0002c	83 c2 04	 add	 edx, 4
  0002f	49		 dec	 ecx
  00030	75 f4		 jne	 SHORT $LL6@DECSTR
$LN4@DECSTR:
  00032	c1 e0 02	 shl	 eax, 2
  00035	eb 17		 jmp	 SHORT $LN14@DECSTR
$LL3@DECSTR:
  00037	8b c8		 mov	 ecx, eax
  00039	81 e1 03 00 00
	80		 and	 ecx, -2147483645	; 80000003H
  0003f	79 05		 jns	 SHORT $LN13@DECSTR
  00041	49		 dec	 ecx
  00042	83 c9 fc	 or	 ecx, -4			; fffffffcH
  00045	41		 inc	 ecx
$LN13@DECSTR:
  00046	b2 ed		 mov	 dl, -19			; ffffffedH
  00048	2a d1		 sub	 dl, cl
  0004a	30 14 30	 xor	 BYTE PTR [eax+esi], dl
  0004d	40		 inc	 eax
$LN14@DECSTR:
  0004e	3b c7		 cmp	 eax, edi
  00050	7c e5		 jl	 SHORT $LL3@DECSTR
  00052	5f		 pop	 edi
  00053	5e		 pop	 esi
  00054	5d		 pop	 ebp
  00055	c3		 ret	 0
?_DECSTR@@YAXPADH@Z ENDP				; _DECSTR
_TEXT	ENDS
PUBLIC	?GetGroup@ioGameEntity@@QBEPAVioEntityGroup@@XZ	; ioGameEntity::GetGroup
; Function compile flags: /Ogsp
; File d:\lost saga for developer\youtube\tutorial\source\src\lsclient\iogameentity.h
;	COMDAT ?GetGroup@ioGameEntity@@QBEPAVioEntityGroup@@XZ
_TEXT	SEGMENT
?GetGroup@ioGameEntity@@QBEPAVioEntityGroup@@XZ PROC	; ioGameEntity::GetGroup, COMDAT
; _this$ = ecx

; 166  : 	inline ioEntityGroup* GetGroup() const { return m_pGroup; }

  00000	8b 41 04	 mov	 eax, DWORD PTR [ecx+4]
  00003	c3		 ret	 0
?GetGroup@ioGameEntity@@QBEPAVioEntityGroup@@XZ ENDP	; ioGameEntity::GetGroup
_TEXT	ENDS
PUBLIC	?Init@tagDummyCharCreateInfo@@QAEXXZ		; tagDummyCharCreateInfo::Init
; Function compile flags: /Ogsp
; File d:\lost saga for developer\youtube\tutorial\source\src\lsclient\playentityhelpstruct.h
;	COMDAT ?Init@tagDummyCharCreateInfo@@QAEXXZ
_TEXT	SEGMENT
$T283620 = -12						; size = 12
?Init@tagDummyCharCreateInfo@@QAEXXZ PROC		; tagDummyCharCreateInfo::Init, COMDAT
; _this$ = ecx

; 1456 : 	{

  00000	55		 push	 ebp
  00001	8b ec		 mov	 ebp, esp
  00003	83 ec 0c	 sub	 esp, 12			; 0000000cH

; 1457 : 		m_iDummyCharIdx = 0;
; 1458 : 		m_fDummyCharStartAngle = 0.0f;

  00006	0f 57 c0	 xorps	 xmm0, xmm0
  00009	83 61 10 00	 and	 DWORD PTR [ecx+16], 0
  0000d	56		 push	 esi
  0000e	57		 push	 edi

; 1459 : 
; 1460 : 		m_vTargetPos = D3DXVECTOR3( 0.0f, 0.0f, 0.0f );

  0000f	f3 0f 11 45 f4	 movss	 DWORD PTR $T283620[ebp], xmm0
  00014	f3 0f 11 45 f8	 movss	 DWORD PTR $T283620[ebp+4], xmm0
  00019	f3 0f 11 45 fc	 movss	 DWORD PTR $T283620[ebp+8], xmm0
  0001e	8d 79 18	 lea	 edi, DWORD PTR [ecx+24]
  00021	8d 75 f4	 lea	 esi, DWORD PTR $T283620[ebp]
  00024	a5		 movsd
  00025	a5		 movsd
  00026	a5		 movsd
  00027	5f		 pop	 edi
  00028	f3 0f 11 41 14	 movss	 DWORD PTR [ecx+20], xmm0
  0002d	5e		 pop	 esi

; 1461 : 	}

  0002e	c9		 leave
  0002f	c3		 ret	 0
?Init@tagDummyCharCreateInfo@@QAEXXZ ENDP		; tagDummyCharCreateInfo::Init
_TEXT	ENDS
PUBLIC	?GetName@ioBuff@@QBEABVioHashString@@XZ		; ioBuff::GetName
; Function compile flags: /Ogsp
; File d:\lost saga for developer\youtube\tutorial\source\src\lsclient\iobuff.h
;	COMDAT ?GetName@ioBuff@@QBEABVioHashString@@XZ
_TEXT	SEGMENT
?GetName@ioBuff@@QBEABVioHashString@@XZ PROC		; ioBuff::GetName, COMDAT
; _this$ = ecx

; 440  : 	inline const ioHashString& GetName() const { return m_Name; }

  00000	8d 81 34 02 00
	00		 lea	 eax, DWORD PTR [ecx+564]
  00006	c3		 ret	 0
?GetName@ioBuff@@QBEABVioHashString@@XZ ENDP		; ioBuff::GetName
_TEXT	ENDS
PUBLIC	?size@?$vector@VioHashString@@V?$allocator@VioHashString@@@std@@@std@@QBEIXZ ; std::vector<ioHashString,std::allocator<ioHashString> >::size
; Function compile flags: /Ogsp
; File c:\program files (x86)\microsoft visual studio 10.0\vc\include\vector
;	COMDAT ?size@?$vector@VioHashString@@V?$allocator@VioHashString@@@std@@@std@@QBEIXZ
_TEXT	SEGMENT
?size@?$vector@VioHashString@@V?$allocator@VioHashString@@@std@@@std@@QBEIXZ PROC ; std::vector<ioHashString,std::allocator<ioHashString> >::size, COMDAT
; _this$ = ecx

; 879  : 		return (this->_Mylast - this->_Myfirst);

  00000	8b 41 04	 mov	 eax, DWORD PTR [ecx+4]
  00003	2b 01		 sub	 eax, DWORD PTR [ecx]
  00005	c1 f8 04	 sar	 eax, 4

; 880  : 		}

  00008	c3		 ret	 0
?size@?$vector@VioHashString@@V?$allocator@VioHashString@@@std@@@std@@QBEIXZ ENDP ; std::vector<ioHashString,std::allocator<ioHashString> >::size
_TEXT	ENDS
PUBLIC	??_7?$CEncrypt@M@@6B@				; CEncrypt<float>::`vftable'
PUBLIC	??1?$CEncrypt@M@@UAE@XZ				; CEncrypt<float>::~CEncrypt<float>
PUBLIC	??_R4?$CEncrypt@M@@6B@				; CEncrypt<float>::`RTTI Complete Object Locator'
PUBLIC	??_R0?AV?$CEncrypt@M@@@8			; CEncrypt<float> `RTTI Type Descriptor'
PUBLIC	??_R3?$CEncrypt@M@@8				; CEncrypt<float>::`RTTI Class Hierarchy Descriptor'
PUBLIC	??_R2?$CEncrypt@M@@8				; CEncrypt<float>::`RTTI Base Class Array'
PUBLIC	??_R1A@?0A@EA@?$CEncrypt@M@@8			; CEncrypt<float>::`RTTI Base Class Descriptor at (0,-1,0,64)'
EXTRN	??1ccddaabb@@UAE@XZ:PROC			; ccddaabb::~ccddaabb
EXTRN	??_E?$CEncrypt@M@@UAEPAXI@Z:PROC		; CEncrypt<float>::`vector deleting destructor'
;	COMDAT ??_R1A@?0A@EA@?$CEncrypt@M@@8
; File d:\lost saga for developer\youtube\tutorial\source\src\lsclient\encryptvalue.h
rdata$r	SEGMENT
??_R1A@?0A@EA@?$CEncrypt@M@@8 DD FLAT:??_R0?AV?$CEncrypt@M@@@8 ; CEncrypt<float>::`RTTI Base Class Descriptor at (0,-1,0,64)'
	DD	00H
	DD	00H
	DD	0ffffffffH
	DD	00H
	DD	040H
	DD	FLAT:??_R3?$CEncrypt@M@@8
rdata$r	ENDS
;	COMDAT ??_R2?$CEncrypt@M@@8
rdata$r	SEGMENT
??_R2?$CEncrypt@M@@8 DD FLAT:??_R1A@?0A@EA@?$CEncrypt@M@@8 ; CEncrypt<float>::`RTTI Base Class Array'
rdata$r	ENDS
;	COMDAT ??_R3?$CEncrypt@M@@8
rdata$r	SEGMENT
??_R3?$CEncrypt@M@@8 DD 00H				; CEncrypt<float>::`RTTI Class Hierarchy Descriptor'
	DD	00H
	DD	01H
	DD	FLAT:??_R2?$CEncrypt@M@@8
rdata$r	ENDS
;	COMDAT ??_R0?AV?$CEncrypt@M@@@8
_DATA	SEGMENT
??_R0?AV?$CEncrypt@M@@@8 DD FLAT:??_7type_info@@6B@	; CEncrypt<float> `RTTI Type Descriptor'
	DD	00H
	DB	'.?AV?$CEncrypt@M@@', 00H
_DATA	ENDS
;	COMDAT ??_R4?$CEncrypt@M@@6B@
rdata$r	SEGMENT
??_R4?$CEncrypt@M@@6B@ DD 00H				; CEncrypt<float>::`RTTI Complete Object Locator'
	DD	00H
	DD	00H
	DD	FLAT:??_R0?AV?$CEncrypt@M@@@8
	DD	FLAT:??_R3?$CEncrypt@M@@8
rdata$r	ENDS
;	COMDAT ??_7?$CEncrypt@M@@6B@
CONST	SEGMENT
??_7?$CEncrypt@M@@6B@ DD FLAT:??_R4?$CEncrypt@M@@6B@	; CEncrypt<float>::`vftable'
	DD	FLAT:??_E?$CEncrypt@M@@UAEPAXI@Z
; Function compile flags: /Ogsp
CONST	ENDS
;	COMDAT ??1?$CEncrypt@M@@UAE@XZ
_TEXT	SEGMENT
??1?$CEncrypt@M@@UAE@XZ PROC				; CEncrypt<float>::~CEncrypt<float>, COMDAT
; _this$ = ecx

; 127  : 	{

  00000	c7 01 00 00 00
	00		 mov	 DWORD PTR [ecx], OFFSET ??_7?$CEncrypt@M@@6B@

; 128  : 	}

  00006	83 c1 0c	 add	 ecx, 12			; 0000000cH
  00009	e9 00 00 00 00	 jmp	 ??1ccddaabb@@UAE@XZ	; ccddaabb::~ccddaabb
??1?$CEncrypt@M@@UAE@XZ ENDP				; CEncrypt<float>::~CEncrypt<float>
; Function compile flags: /Ogsp
_TEXT	ENDS
;	COMDAT ??_G?$CEncrypt@M@@UAEPAXI@Z
_TEXT	SEGMENT
___flags$ = 8						; size = 4
??_G?$CEncrypt@M@@UAEPAXI@Z PROC			; CEncrypt<float>::`scalar deleting destructor', COMDAT
; _this$ = ecx
  00000	55		 push	 ebp
  00001	8b ec		 mov	 ebp, esp
  00003	56		 push	 esi
  00004	8b f1		 mov	 esi, ecx
  00006	8d 4e 0c	 lea	 ecx, DWORD PTR [esi+12]
  00009	c7 06 00 00 00
	00		 mov	 DWORD PTR [esi], OFFSET ??_7?$CEncrypt@M@@6B@
  0000f	e8 00 00 00 00	 call	 ??1ccddaabb@@UAE@XZ	; ccddaabb::~ccddaabb
  00014	f6 45 08 01	 test	 BYTE PTR ___flags$[ebp], 1
  00018	74 07		 je	 SHORT $LN1@scalar@3
  0001a	56		 push	 esi
  0001b	e8 00 00 00 00	 call	 ??3@YAXPAX@Z		; operator delete
  00020	59		 pop	 ecx
$LN1@scalar@3:
  00021	8b c6		 mov	 eax, esi
  00023	5e		 pop	 esi
  00024	5d		 pop	 ebp
  00025	c2 04 00	 ret	 4
??_G?$CEncrypt@M@@UAEPAXI@Z ENDP			; CEncrypt<float>::`scalar deleting destructor'
_TEXT	ENDS
PUBLIC	??1?$_Vector_val@VioHashString@@V?$allocator@VioHashString@@@std@@@std@@QAE@XZ ; std::_Vector_val<ioHashString,std::allocator<ioHashString> >::~_Vector_val<ioHashString,std::allocator<ioHashString> >
; Function compile flags: /Ogsp
; File c:\program files (x86)\microsoft visual studio 10.0\vc\include\vector
;	COMDAT ??1?$_Vector_val@VioHashString@@V?$allocator@VioHashString@@@std@@@std@@QAE@XZ
_TEXT	SEGMENT
??1?$_Vector_val@VioHashString@@V?$allocator@VioHashString@@@std@@@std@@QAE@XZ PROC ; std::_Vector_val<ioHashString,std::allocator<ioHashString> >::~_Vector_val<ioHashString,std::allocator<ioHashString> >, COMDAT
; _this$ = ecx

; 434  : 		}

  00000	c3		 ret	 0
??1?$_Vector_val@VioHashString@@V?$allocator@VioHashString@@@std@@@std@@QAE@XZ ENDP ; std::_Vector_val<ioHashString,std::allocator<ioHashString> >::~_Vector_val<ioHashString,std::allocator<ioHashString> >
_TEXT	ENDS
PUBLIC	??0?$allocator@VioHashString@@@std@@QAE@XZ	; std::allocator<ioHashString>::allocator<ioHashString>
; Function compile flags: /Ogsp
; File c:\program files (x86)\microsoft visual studio 10.0\vc\include\xmemory
;	COMDAT ??0?$allocator@VioHashString@@@std@@QAE@XZ
_TEXT	SEGMENT
??0?$allocator@VioHashString@@@std@@QAE@XZ PROC		; std::allocator<ioHashString>::allocator<ioHashString>, COMDAT
; _this$ = ecx

; 161  : 	_ALLOCATOR() _THROW0()

  00000	8b c1		 mov	 eax, ecx

; 162  : 		{	// construct default allocator (do nothing)
; 163  : 		}

  00002	c3		 ret	 0
??0?$allocator@VioHashString@@@std@@QAE@XZ ENDP		; std::allocator<ioHashString>::allocator<ioHashString>
_TEXT	ENDS
PUBLIC	??0?$allocator@VioHashString@@@std@@QAE@ABV01@@Z ; std::allocator<ioHashString>::allocator<ioHashString>
; Function compile flags: /Ogsp
;	COMDAT ??0?$allocator@VioHashString@@@std@@QAE@ABV01@@Z
_TEXT	SEGMENT
___formal$ = 8						; size = 4
??0?$allocator@VioHashString@@@std@@QAE@ABV01@@Z PROC	; std::allocator<ioHashString>::allocator<ioHashString>, COMDAT
; _this$ = ecx

; 165  : 	_ALLOCATOR(const _ALLOCATOR<_Ty>&) _THROW0()

  00000	8b c1		 mov	 eax, ecx

; 166  : 		{	// construct by copying (do nothing)
; 167  : 		}

  00002	c2 04 00	 ret	 4
??0?$allocator@VioHashString@@@std@@QAE@ABV01@@Z ENDP	; std::allocator<ioHashString>::allocator<ioHashString>
_TEXT	ENDS
PUBLIC	?EncryptValueToPool@?$CEncrypt@M@@AAEXPBD@Z	; CEncrypt<float>::EncryptValueToPool
EXTRN	?EncryptByte@ccddaabb@@QAEXPBDPADH@Z:PROC	; ccddaabb::EncryptByte
; Function compile flags: /Ogsp
; File d:\lost saga for developer\youtube\tutorial\source\src\lsclient\encryptvalue.h
;	COMDAT ?EncryptValueToPool@?$CEncrypt@M@@AAEXPBD@Z
_TEXT	SEGMENT
_value$ = 8						; size = 4
?EncryptValueToPool@?$CEncrypt@M@@AAEXPBD@Z PROC	; CEncrypt<float>::EncryptValueToPool, COMDAT
; _this$ = ecx

; 67   : 	{

  00000	55		 push	 ebp
  00001	8b ec		 mov	 ebp, esp

; 68   : 		m_RC5.EncryptByte( value, m_MemPool, max(m_ValueSize, DEFAULT_ENCRYPT) );

  00003	0f b7 41 06	 movzx	 eax, WORD PTR [ecx+6]
  00007	83 f8 04	 cmp	 eax, 4
  0000a	77 03		 ja	 SHORT $LN4@EncryptVal
  0000c	6a 04		 push	 4
  0000e	58		 pop	 eax
$LN4@EncryptVal:
  0000f	50		 push	 eax
  00010	8d 41 1c	 lea	 eax, DWORD PTR [ecx+28]
  00013	50		 push	 eax
  00014	ff 75 08	 push	 DWORD PTR _value$[ebp]
  00017	83 c1 0c	 add	 ecx, 12			; 0000000cH
  0001a	e8 00 00 00 00	 call	 ?EncryptByte@ccddaabb@@QAEXPBDPADH@Z ; ccddaabb::EncryptByte

; 69   : 		
; 70   : 	}

  0001f	5d		 pop	 ebp
  00020	c2 04 00	 ret	 4
?EncryptValueToPool@?$CEncrypt@M@@AAEXPBD@Z ENDP	; CEncrypt<float>::EncryptValueToPool
_TEXT	ENDS
PUBLIC	?Init@?$CEncrypt@M@@AAEXXZ			; CEncrypt<float>::Init
EXTRN	?Setup@ccddaabb@@QAEXPBDHH@Z:PROC		; ccddaabb::Setup
EXTRN	__imp__rand:PROC
EXTRN	__imp__timeGetTime@0:PROC
EXTRN	__imp__GetCurrentProcessId@0:PROC
; Function compile flags: /Ogsp
;	COMDAT ?Init@?$CEncrypt@M@@AAEXXZ
_TEXT	SEGMENT
_pid$ = -8						; size = 4
_tick$ = -4						; size = 4
?Init@?$CEncrypt@M@@AAEXXZ PROC				; CEncrypt<float>::Init, COMDAT
; _this$ = ecx

; 73   : 	{

  00000	55		 push	 ebp
  00001	8b ec		 mov	 ebp, esp
  00003	51		 push	 ecx
  00004	51		 push	 ecx
  00005	53		 push	 ebx
  00006	56		 push	 esi
  00007	57		 push	 edi
  00008	8b f1		 mov	 esi, ecx

; 74   : 		DWORD pid = GetCurrentProcessId();

  0000a	ff 15 00 00 00
	00		 call	 DWORD PTR __imp__GetCurrentProcessId@0
  00010	89 45 f8	 mov	 DWORD PTR _pid$[ebp], eax

; 75   : 		DWORD tick = timeGetTime();

  00013	ff 15 00 00 00
	00		 call	 DWORD PTR __imp__timeGetTime@0

; 76   : 		m_ValueSize    = sizeof(type);
; 77   : 		m_MemPoolPos   = (unsigned short)( rand()+pid+tick )%(MAX_MEM_POOL-m_ValueSize);

  00019	8b 3d 00 00 00
	00		 mov	 edi, DWORD PTR __imp__rand
  0001f	89 45 fc	 mov	 DWORD PTR _tick$[ebp], eax
  00022	6a 04		 push	 4
  00024	58		 pop	 eax
  00025	66 89 46 06	 mov	 WORD PTR [esi+6], ax
  00029	ff d7		 call	 edi
  0002b	03 45 f8	 add	 eax, DWORD PTR _pid$[ebp]
  0002e	0f b7 4e 06	 movzx	 ecx, WORD PTR [esi+6]
  00032	03 45 fc	 add	 eax, DWORD PTR _tick$[ebp]
  00035	6a 0c		 push	 12			; 0000000cH
  00037	0f b7 c0	 movzx	 eax, ax
  0003a	5b		 pop	 ebx
  0003b	99		 cdq
  0003c	2b d9		 sub	 ebx, ecx
  0003e	f7 fb		 idiv	 ebx
  00040	66 89 56 04	 mov	 WORD PTR [esi+4], dx

; 78   : 		m_EncryptSeed  = (char)( rand()+pid+tick )%256;

  00044	ff d7		 call	 edi
  00046	02 45 f8	 add	 al, BYTE PTR _pid$[ebp]
  00049	02 45 fc	 add	 al, BYTE PTR _tick$[ebp]
  0004c	0f be c0	 movsx	 eax, al
  0004f	25 ff 00 00 80	 and	 eax, -2147483393	; 800000ffH
  00054	79 07		 jns	 SHORT $LN8@Init
  00056	48		 dec	 eax
  00057	0d 00 ff ff ff	 or	 eax, -256		; ffffff00H
  0005c	40		 inc	 eax
$LN8@Init:
  0005d	88 46 08	 mov	 BYTE PTR [esi+8], al

; 79   : 
; 80   : 		for (int i = 0; i < MAX_MEM_POOL ; i++)

  00060	33 db		 xor	 ebx, ebx
$LL3@Init:

; 81   : 			m_MemPool[i] = (char)( rand()+pid+tick )%256; // 

  00062	ff d7		 call	 edi
  00064	02 45 f8	 add	 al, BYTE PTR _pid$[ebp]
  00067	02 45 fc	 add	 al, BYTE PTR _tick$[ebp]
  0006a	0f be c0	 movsx	 eax, al
  0006d	25 ff 00 00 80	 and	 eax, -2147483393	; 800000ffH
  00072	79 07		 jns	 SHORT $LN9@Init
  00074	48		 dec	 eax
  00075	0d 00 ff ff ff	 or	 eax, -256		; ffffff00H
  0007a	40		 inc	 eax
$LN9@Init:
  0007b	88 44 1e 1c	 mov	 BYTE PTR [esi+ebx+28], al
  0007f	43		 inc	 ebx
  00080	83 fb 0c	 cmp	 ebx, 12			; 0000000cH
  00083	7c dd		 jl	 SHORT $LL3@Init

; 82   : 
; 83   : 		//UJ 130913, : szKey  
; 84   : 		//char szKey[ccddaabb::KEY_SIZE];//="";
; 85   : 		//for (int i = 0; i < ccddaabb::KEY_SIZE  ; i++)
; 86   : 		//	szKey[i] = (char)( rand()+pid+tick )%256; // 
; 87   : 		m_RC5.Setup( NULL, pid, tick );

  00085	ff 75 fc	 push	 DWORD PTR _tick$[ebp]
  00088	8d 4e 0c	 lea	 ecx, DWORD PTR [esi+12]
  0008b	ff 75 f8	 push	 DWORD PTR _pid$[ebp]
  0008e	6a 00		 push	 0
  00090	e8 00 00 00 00	 call	 ?Setup@ccddaabb@@QAEXPBDHH@Z ; ccddaabb::Setup
  00095	5f		 pop	 edi
  00096	5e		 pop	 esi
  00097	5b		 pop	 ebx

; 88   : 
; 89   : #ifdef _NOTUSE
; 90   : 		m_value        = 0;
; 91   : 		EncryptValueToPool((char*)&m_value);
; 92   : 		Debug();
; 93   : #endif
; 94   : 	}

  00098	c9		 leave
  00099	c3		 ret	 0
?Init@?$CEncrypt@M@@AAEXXZ ENDP				; CEncrypt<float>::Init
_TEXT	ENDS
PUBLIC	?DecryptValueToPool@?$CEncrypt@M@@QAEXPAM@Z	; CEncrypt<float>::DecryptValueToPool
; Function compile flags: /Ogsp
;	COMDAT ?DecryptValueToPool@?$CEncrypt@M@@QAEXPAM@Z
_TEXT	SEGMENT
_value$ = 8						; size = 4
?DecryptValueToPool@?$CEncrypt@M@@QAEXPAM@Z PROC	; CEncrypt<float>::DecryptValueToPool, COMDAT
; _this$ = ecx

; 1648 : 	{

  00000	55		 push	 ebp
  00001	8b ec		 mov	 ebp, esp
  00003	56		 push	 esi

; 1649 : 		m_RC5.DecryptByte( m_MemPool, m_TempMem, 4 );

  00004	8d 71 28	 lea	 esi, DWORD PTR [ecx+40]
  00007	6a 04		 push	 4
  00009	8d 41 1c	 lea	 eax, DWORD PTR [ecx+28]
  0000c	56		 push	 esi
  0000d	50		 push	 eax
  0000e	83 c1 0c	 add	 ecx, 12			; 0000000cH
  00011	e8 00 00 00 00	 call	 ?DecryptByte@ccddaabb@@QBEXPBDPADH@Z ; ccddaabb::DecryptByte

; 1650 : 		*value = *((float*)m_TempMem);

  00016	d9 06		 fld	 DWORD PTR [esi]
  00018	8b 45 08	 mov	 eax, DWORD PTR _value$[ebp]
  0001b	d9 18		 fstp	 DWORD PTR [eax]
  0001d	5e		 pop	 esi

; 1651 : 	}

  0001e	5d		 pop	 ebp
  0001f	c2 04 00	 ret	 4
?DecryptValueToPool@?$CEncrypt@M@@QAEXPAM@Z ENDP	; CEncrypt<float>::DecryptValueToPool
_TEXT	ENDS
PUBLIC	?DecryptValueToPool@?$CEncrypt@K@@QAEXPAK@Z	; CEncrypt<unsigned long>::DecryptValueToPool
; Function compile flags: /Ogsp
;	COMDAT ?DecryptValueToPool@?$CEncrypt@K@@QAEXPAK@Z
_TEXT	SEGMENT
_value$ = 8						; size = 4
?DecryptValueToPool@?$CEncrypt@K@@QAEXPAK@Z PROC	; CEncrypt<unsigned long>::DecryptValueToPool, COMDAT
; _this$ = ecx

; 1256 : 	{

  00000	55		 push	 ebp
  00001	8b ec		 mov	 ebp, esp
  00003	56		 push	 esi

; 1257 : 		m_RC5.DecryptByte( m_MemPool, m_TempMem, 4 );

  00004	8d 71 28	 lea	 esi, DWORD PTR [ecx+40]
  00007	6a 04		 push	 4
  00009	8d 41 1c	 lea	 eax, DWORD PTR [ecx+28]
  0000c	56		 push	 esi
  0000d	50		 push	 eax
  0000e	83 c1 0c	 add	 ecx, 12			; 0000000cH
  00011	e8 00 00 00 00	 call	 ?DecryptByte@ccddaabb@@QBEXPBDPADH@Z ; ccddaabb::DecryptByte

; 1258 : 		*value = *((DWORD*)m_TempMem);

  00016	8b 06		 mov	 eax, DWORD PTR [esi]
  00018	8b 4d 08	 mov	 ecx, DWORD PTR _value$[ebp]
  0001b	89 01		 mov	 DWORD PTR [ecx], eax
  0001d	5e		 pop	 esi

; 1259 : 	}

  0001e	5d		 pop	 ebp
  0001f	c2 04 00	 ret	 4
?DecryptValueToPool@?$CEncrypt@K@@QAEXPAK@Z ENDP	; CEncrypt<unsigned long>::DecryptValueToPool
_TEXT	ENDS
PUBLIC	?DecryptValueToPool@?$CEncrypt@_N@@QAEXPA_N@Z	; CEncrypt<bool>::DecryptValueToPool
; Function compile flags: /Ogsp
;	COMDAT ?DecryptValueToPool@?$CEncrypt@_N@@QAEXPA_N@Z
_TEXT	SEGMENT
_value$ = 8						; size = 4
?DecryptValueToPool@?$CEncrypt@_N@@QAEXPA_N@Z PROC	; CEncrypt<bool>::DecryptValueToPool, COMDAT
; _this$ = ecx

; 219  : 	{

  00000	55		 push	 ebp
  00001	8b ec		 mov	 ebp, esp
  00003	56		 push	 esi

; 220  : 		m_RC5.DecryptByte( m_MemPool, m_TempMem, 4 );

  00004	8d 71 28	 lea	 esi, DWORD PTR [ecx+40]
  00007	6a 04		 push	 4
  00009	8d 41 1c	 lea	 eax, DWORD PTR [ecx+28]
  0000c	56		 push	 esi
  0000d	50		 push	 eax
  0000e	83 c1 0c	 add	 ecx, 12			; 0000000cH
  00011	e8 00 00 00 00	 call	 ?DecryptByte@ccddaabb@@QBEXPBDPADH@Z ; ccddaabb::DecryptByte

; 221  : 		*value = *((bool*)m_TempMem);

  00016	8a 06		 mov	 al, BYTE PTR [esi]
  00018	8b 4d 08	 mov	 ecx, DWORD PTR _value$[ebp]
  0001b	88 01		 mov	 BYTE PTR [ecx], al
  0001d	5e		 pop	 esi

; 222  : 	}

  0001e	5d		 pop	 ebp
  0001f	c2 04 00	 ret	 4
?DecryptValueToPool@?$CEncrypt@_N@@QAEXPA_N@Z ENDP	; CEncrypt<bool>::DecryptValueToPool
_TEXT	ENDS
PUBLIC	?DecryptValueToPool@?$CEncrypt@H@@QAEXPAH@Z	; CEncrypt<int>::DecryptValueToPool
; Function compile flags: /Ogsp
;	COMDAT ?DecryptValueToPool@?$CEncrypt@H@@QAEXPAH@Z
_TEXT	SEGMENT
_value$ = 8						; size = 4
?DecryptValueToPool@?$CEncrypt@H@@QAEXPAH@Z PROC	; CEncrypt<int>::DecryptValueToPool, COMDAT
; _this$ = ecx

; 837  : 	{

  00000	55		 push	 ebp
  00001	8b ec		 mov	 ebp, esp
  00003	56		 push	 esi

; 838  : 		m_RC5.DecryptByte( m_MemPool, m_TempMem, 4 );

  00004	8d 71 28	 lea	 esi, DWORD PTR [ecx+40]
  00007	6a 04		 push	 4
  00009	8d 41 1c	 lea	 eax, DWORD PTR [ecx+28]
  0000c	56		 push	 esi
  0000d	50		 push	 eax
  0000e	83 c1 0c	 add	 ecx, 12			; 0000000cH
  00011	e8 00 00 00 00	 call	 ?DecryptByte@ccddaabb@@QBEXPBDPADH@Z ; ccddaabb::DecryptByte

; 839  : 		*value = *((int*)m_TempMem);

  00016	8b 06		 mov	 eax, DWORD PTR [esi]
  00018	8b 4d 08	 mov	 ecx, DWORD PTR _value$[ebp]
  0001b	89 01		 mov	 DWORD PTR [ecx], eax
  0001d	5e		 pop	 esi

; 840  : 	}

  0001e	5d		 pop	 ebp
  0001f	c2 04 00	 ret	 4
?DecryptValueToPool@?$CEncrypt@H@@QAEXPAH@Z ENDP	; CEncrypt<int>::DecryptValueToPool
_TEXT	ENDS
PUBLIC	??1?$_Vector_val@UtagDummyCharLoadInfo@@V?$allocator@UtagDummyCharLoadInfo@@@std@@@std@@QAE@XZ ; std::_Vector_val<tagDummyCharLoadInfo,std::allocator<tagDummyCharLoadInfo> >::~_Vector_val<tagDummyCharLoadInfo,std::allocator<tagDummyCharLoadInfo> >
; Function compile flags: /Ogsp
; File c:\program files (x86)\microsoft visual studio 10.0\vc\include\vector
;	COMDAT ??1?$_Vector_val@UtagDummyCharLoadInfo@@V?$allocator@UtagDummyCharLoadInfo@@@std@@@std@@QAE@XZ
_TEXT	SEGMENT
??1?$_Vector_val@UtagDummyCharLoadInfo@@V?$allocator@UtagDummyCharLoadInfo@@@std@@@std@@QAE@XZ PROC ; std::_Vector_val<tagDummyCharLoadInfo,std::allocator<tagDummyCharLoadInfo> >::~_Vector_val<tagDummyCharLoadInfo,std::allocator<tagDummyCharLoadInfo> >, COMDAT
; _this$ = ecx

; 434  : 		}

  00000	c3		 ret	 0
??1?$_Vector_val@UtagDummyCharLoadInfo@@V?$allocator@UtagDummyCharLoadInfo@@@std@@@std@@QAE@XZ ENDP ; std::_Vector_val<tagDummyCharLoadInfo,std::allocator<tagDummyCharLoadInfo> >::~_Vector_val<tagDummyCharLoadInfo,std::allocator<tagDummyCharLoadInfo> >
_TEXT	ENDS
PUBLIC	??0?$allocator@UtagDummyCharLoadInfo@@@std@@QAE@XZ ; std::allocator<tagDummyCharLoadInfo>::allocator<tagDummyCharLoadInfo>
; Function compile flags: /Ogsp
; File c:\program files (x86)\microsoft visual studio 10.0\vc\include\xmemory
;	COMDAT ??0?$allocator@UtagDummyCharLoadInfo@@@std@@QAE@XZ
_TEXT	SEGMENT
??0?$allocator@UtagDummyCharLoadInfo@@@std@@QAE@XZ PROC	; std::allocator<tagDummyCharLoadInfo>::allocator<tagDummyCharLoadInfo>, COMDAT
; _this$ = ecx

; 161  : 	_ALLOCATOR() _THROW0()

  00000	8b c1		 mov	 eax, ecx

; 162  : 		{	// construct default allocator (do nothing)
; 163  : 		}

  00002	c3		 ret	 0
??0?$allocator@UtagDummyCharLoadInfo@@@std@@QAE@XZ ENDP	; std::allocator<tagDummyCharLoadInfo>::allocator<tagDummyCharLoadInfo>
_TEXT	ENDS
PUBLIC	?_Xlen@?$vector@VioHashString@@V?$allocator@VioHashString@@@std@@@std@@IBEXXZ ; std::vector<ioHashString,std::allocator<ioHashString> >::_Xlen
; Function compile flags: /Ogsp
; File c:\program files (x86)\microsoft visual studio 10.0\vc\include\vector
;	COMDAT ?_Xlen@?$vector@VioHashString@@V?$allocator@VioHashString@@@std@@@std@@IBEXXZ
_TEXT	SEGMENT
?_Xlen@?$vector@VioHashString@@V?$allocator@VioHashString@@@std@@@std@@IBEXXZ PROC ; std::vector<ioHashString,std::allocator<ioHashString> >::_Xlen, COMDAT
; _this$ = ecx

; 1427 : 		_Xlength_error("vector<T> too long");

  00000	68 00 00 00 00	 push	 OFFSET ??_C@_0BD@OLBABOEK@vector?$DMT?$DO?5too?5long?$AA@
  00005	ff 15 00 00 00
	00		 call	 DWORD PTR __imp_?_Xlength_error@std@@YAXPBD@Z
$LN4@Xlen@3:
$LN3@Xlen@3:
  0000b	cc		 int	 3
?_Xlen@?$vector@VioHashString@@V?$allocator@VioHashString@@@std@@@std@@IBEXXZ ENDP ; std::vector<ioHashString,std::allocator<ioHashString> >::_Xlen
_TEXT	ENDS
PUBLIC	?deallocate@?$allocator@VioHashString@@@std@@QAEXPAVioHashString@@I@Z ; std::allocator<ioHashString>::deallocate
; Function compile flags: /Ogsp
; File c:\program files (x86)\microsoft visual studio 10.0\vc\include\xmemory
;	COMDAT ?deallocate@?$allocator@VioHashString@@@std@@QAEXPAVioHashString@@I@Z
_TEXT	SEGMENT
__Ptr$ = 8						; size = 4
___formal$ = 12						; size = 4
?deallocate@?$allocator@VioHashString@@@std@@QAEXPAVioHashString@@I@Z PROC ; std::allocator<ioHashString>::deallocate, COMDAT
; _this$ = ecx

; 181  : 		{	// deallocate object at _Ptr, ignore size

  00000	55		 push	 ebp
  00001	8b ec		 mov	 ebp, esp

; 182  : 		::operator delete(_Ptr);

  00003	ff 75 08	 push	 DWORD PTR __Ptr$[ebp]
  00006	e8 00 00 00 00	 call	 ??3@YAXPAX@Z		; operator delete
  0000b	59		 pop	 ecx

; 183  : 		}

  0000c	5d		 pop	 ebp
  0000d	c2 08 00	 ret	 8
?deallocate@?$allocator@VioHashString@@@std@@QAEXPAVioHashString@@I@Z ENDP ; std::allocator<ioHashString>::deallocate
_TEXT	ENDS
PUBLIC	??0?$allocator@UtagDummyCharLoadInfo@@@std@@QAE@ABV01@@Z ; std::allocator<tagDummyCharLoadInfo>::allocator<tagDummyCharLoadInfo>
; Function compile flags: /Ogsp
;	COMDAT ??0?$allocator@UtagDummyCharLoadInfo@@@std@@QAE@ABV01@@Z
_TEXT	SEGMENT
___formal$ = 8						; size = 4
??0?$allocator@UtagDummyCharLoadInfo@@@std@@QAE@ABV01@@Z PROC ; std::allocator<tagDummyCharLoadInfo>::allocator<tagDummyCharLoadInfo>, COMDAT
; _this$ = ecx

; 165  : 	_ALLOCATOR(const _ALLOCATOR<_Ty>&) _THROW0()

  00000	8b c1		 mov	 eax, ecx

; 166  : 		{	// construct by copying (do nothing)
; 167  : 		}

  00002	c2 04 00	 ret	 4
??0?$allocator@UtagDummyCharLoadInfo@@@std@@QAE@ABV01@@Z ENDP ; std::allocator<tagDummyCharLoadInfo>::allocator<tagDummyCharLoadInfo>
_TEXT	ENDS
PUBLIC	?deallocate@?$allocator@UtagDummyCharLoadInfo@@@std@@QAEXPAUtagDummyCharLoadInfo@@I@Z ; std::allocator<tagDummyCharLoadInfo>::deallocate
; Function compile flags: /Ogsp
;	COMDAT ?deallocate@?$allocator@UtagDummyCharLoadInfo@@@std@@QAEXPAUtagDummyCharLoadInfo@@I@Z
_TEXT	SEGMENT
__Ptr$ = 8						; size = 4
___formal$ = 12						; size = 4
?deallocate@?$allocator@UtagDummyCharLoadInfo@@@std@@QAEXPAUtagDummyCharLoadInfo@@I@Z PROC ; std::allocator<tagDummyCharLoadInfo>::deallocate, COMDAT
; _this$ = ecx

; 181  : 		{	// deallocate object at _Ptr, ignore size

  00000	55		 push	 ebp
  00001	8b ec		 mov	 ebp, esp

; 182  : 		::operator delete(_Ptr);

  00003	ff 75 08	 push	 DWORD PTR __Ptr$[ebp]
  00006	e8 00 00 00 00	 call	 ??3@YAXPAX@Z		; operator delete
  0000b	59		 pop	 ecx

; 183  : 		}

  0000c	5d		 pop	 ebp
  0000d	c2 08 00	 ret	 8
?deallocate@?$allocator@UtagDummyCharLoadInfo@@@std@@QAEXPAUtagDummyCharLoadInfo@@I@Z ENDP ; std::allocator<tagDummyCharLoadInfo>::deallocate
_TEXT	ENDS
PUBLIC	??0?$_Vector_const_iterator@V?$_Vector_val@VioHashString@@V?$allocator@VioHashString@@@std@@@std@@@std@@QAE@PAVioHashString@@PBU_Container_base0@1@@Z ; std::_Vector_const_iterator<std::_Vector_val<ioHashString,std::allocator<ioHashString> > >::_Vector_const_iterator<std::_Vector_val<ioHashString,std::allocator<ioHashString> > >
; Function compile flags: /Ogsp
; File c:\program files (x86)\microsoft visual studio 10.0\vc\include\vector
;	COMDAT ??0?$_Vector_const_iterator@V?$_Vector_val@VioHashString@@V?$allocator@VioHashString@@@std@@@std@@@std@@QAE@PAVioHashString@@PBU_Container_base0@1@@Z
_TEXT	SEGMENT
__Parg$ = 8						; size = 4
__Pvector$ = 12						; size = 4
??0?$_Vector_const_iterator@V?$_Vector_val@VioHashString@@V?$allocator@VioHashString@@@std@@@std@@@std@@QAE@PAVioHashString@@PBU_Container_base0@1@@Z PROC ; std::_Vector_const_iterator<std::_Vector_val<ioHashString,std::allocator<ioHashString> > >::_Vector_const_iterator<std::_Vector_val<ioHashString,std::allocator<ioHashString> > >, COMDAT
; _this$ = ecx

; 45   : 		{	// construct with pointer _Parg

  00000	55		 push	 ebp
  00001	8b ec		 mov	 ebp, esp
  00003	8b c1		 mov	 eax, ecx
  00005	8b 4d 08	 mov	 ecx, DWORD PTR __Parg$[ebp]
  00008	89 08		 mov	 DWORD PTR [eax], ecx

; 46   : 		this->_Adopt(_Pvector);
; 47   : 		}

  0000a	5d		 pop	 ebp
  0000b	c2 08 00	 ret	 8
??0?$_Vector_const_iterator@V?$_Vector_val@VioHashString@@V?$allocator@VioHashString@@@std@@@std@@@std@@QAE@PAVioHashString@@PBU_Container_base0@1@@Z ENDP ; std::_Vector_const_iterator<std::_Vector_val<ioHashString,std::allocator<ioHashString> > >::_Vector_const_iterator<std::_Vector_val<ioHashString,std::allocator<ioHashString> > >
_TEXT	ENDS
PUBLIC	??0?$_Vector_iterator@V?$_Vector_val@VioHashString@@V?$allocator@VioHashString@@@std@@@std@@@std@@QAE@PAVioHashString@@PBU_Container_base0@1@@Z ; std::_Vector_iterator<std::_Vector_val<ioHashString,std::allocator<ioHashString> > >::_Vector_iterator<std::_Vector_val<ioHashString,std::allocator<ioHashString> > >
; Function compile flags: /Ogsp
;	COMDAT ??0?$_Vector_iterator@V?$_Vector_val@VioHashString@@V?$allocator@VioHashString@@@std@@@std@@@std@@QAE@PAVioHashString@@PBU_Container_base0@1@@Z
_TEXT	SEGMENT
__Parg$ = 8						; size = 4
__Pvector$ = 12						; size = 4
??0?$_Vector_iterator@V?$_Vector_val@VioHashString@@V?$allocator@VioHashString@@@std@@@std@@@std@@QAE@PAVioHashString@@PBU_Container_base0@1@@Z PROC ; std::_Vector_iterator<std::_Vector_val<ioHashString,std::allocator<ioHashString> > >::_Vector_iterator<std::_Vector_val<ioHashString,std::allocator<ioHashString> > >, COMDAT
; _this$ = ecx

; 304  : 		{	// construct with pointer _Parg

  00000	55		 push	 ebp
  00001	8b ec		 mov	 ebp, esp
  00003	8b c1		 mov	 eax, ecx
  00005	8b 4d 08	 mov	 ecx, DWORD PTR __Parg$[ebp]
  00008	89 08		 mov	 DWORD PTR [eax], ecx

; 305  : 		}

  0000a	5d		 pop	 ebp
  0000b	c2 08 00	 ret	 8
??0?$_Vector_iterator@V?$_Vector_val@VioHashString@@V?$allocator@VioHashString@@@std@@@std@@@std@@QAE@PAVioHashString@@PBU_Container_base0@1@@Z ENDP ; std::_Vector_iterator<std::_Vector_val<ioHashString,std::allocator<ioHashString> > >::_Vector_iterator<std::_Vector_val<ioHashString,std::allocator<ioHashString> > >
_TEXT	ENDS
PUBLIC	?max_size@?$allocator@VioHashString@@@std@@QBEIXZ ; std::allocator<ioHashString>::max_size
; Function compile flags: /Ogsp
; File c:\program files (x86)\microsoft visual studio 10.0\vc\include\xmemory
;	COMDAT ?max_size@?$allocator@VioHashString@@@std@@QBEIXZ
_TEXT	SEGMENT
?max_size@?$allocator@VioHashString@@@std@@QBEIXZ PROC	; std::allocator<ioHashString>::max_size, COMDAT
; _this$ = ecx

; 218  : 		_SIZT _Count = (_SIZT)(-1) / sizeof (_Ty);
; 219  : 		return (0 < _Count ? _Count : 1);

  00000	b8 ff ff ff 0f	 mov	 eax, 268435455		; 0fffffffH

; 220  : 		}

  00005	c3		 ret	 0
?max_size@?$allocator@VioHashString@@@std@@QBEIXZ ENDP	; std::allocator<ioHashString>::max_size
_TEXT	ENDS
PUBLIC	??0?$_Vector_const_iterator@V?$_Vector_val@UtagDummyCharLoadInfo@@V?$allocator@UtagDummyCharLoadInfo@@@std@@@std@@@std@@QAE@PAUtagDummyCharLoadInfo@@PBU_Container_base0@1@@Z ; std::_Vector_const_iterator<std::_Vector_val<tagDummyCharLoadInfo,std::allocator<tagDummyCharLoadInfo> > >::_Vector_const_iterator<std::_Vector_val<tagDummyCharLoadInfo,std::allocator<tagDummyCharLoadInfo> > >
; Function compile flags: /Ogsp
; File c:\program files (x86)\microsoft visual studio 10.0\vc\include\vector
;	COMDAT ??0?$_Vector_const_iterator@V?$_Vector_val@UtagDummyCharLoadInfo@@V?$allocator@UtagDummyCharLoadInfo@@@std@@@std@@@std@@QAE@PAUtagDummyCharLoadInfo@@PBU_Container_base0@1@@Z
_TEXT	SEGMENT
__Parg$ = 8						; size = 4
__Pvector$ = 12						; size = 4
??0?$_Vector_const_iterator@V?$_Vector_val@UtagDummyCharLoadInfo@@V?$allocator@UtagDummyCharLoadInfo@@@std@@@std@@@std@@QAE@PAUtagDummyCharLoadInfo@@PBU_Container_base0@1@@Z PROC ; std::_Vector_const_iterator<std::_Vector_val<tagDummyCharLoadInfo,std::allocator<tagDummyCharLoadInfo> > >::_Vector_const_iterator<std::_Vector_val<tagDummyCharLoadInfo,std::allocator<tagDummyCharLoadInfo> > >, COMDAT
; _this$ = ecx

; 45   : 		{	// construct with pointer _Parg

  00000	55		 push	 ebp
  00001	8b ec		 mov	 ebp, esp
  00003	8b c1		 mov	 eax, ecx
  00005	8b 4d 08	 mov	 ecx, DWORD PTR __Parg$[ebp]
  00008	89 08		 mov	 DWORD PTR [eax], ecx

; 46   : 		this->_Adopt(_Pvector);
; 47   : 		}

  0000a	5d		 pop	 ebp
  0000b	c2 08 00	 ret	 8
??0?$_Vector_const_iterator@V?$_Vector_val@UtagDummyCharLoadInfo@@V?$allocator@UtagDummyCharLoadInfo@@@std@@@std@@@std@@QAE@PAUtagDummyCharLoadInfo@@PBU_Container_base0@1@@Z ENDP ; std::_Vector_const_iterator<std::_Vector_val<tagDummyCharLoadInfo,std::allocator<tagDummyCharLoadInfo> > >::_Vector_const_iterator<std::_Vector_val<tagDummyCharLoadInfo,std::allocator<tagDummyCharLoadInfo> > >
_TEXT	ENDS
PUBLIC	?_Compat@?$_Vector_const_iterator@V?$_Vector_val@VioHashString@@V?$allocator@VioHashString@@@std@@@std@@@std@@QBEXABV12@@Z ; std::_Vector_const_iterator<std::_Vector_val<ioHashString,std::allocator<ioHashString> > >::_Compat
; Function compile flags: /Ogsp
;	COMDAT ?_Compat@?$_Vector_const_iterator@V?$_Vector_val@VioHashString@@V?$allocator@VioHashString@@@std@@@std@@@std@@QBEXABV12@@Z
_TEXT	SEGMENT
___formal$ = 8						; size = 4
?_Compat@?$_Vector_const_iterator@V?$_Vector_val@VioHashString@@V?$allocator@VioHashString@@@std@@@std@@@std@@QBEXABV12@@Z PROC ; std::_Vector_const_iterator<std::_Vector_val<ioHashString,std::allocator<ioHashString> > >::_Compat, COMDAT
; _this$ = ecx

; 253  : 		}

  00000	c2 04 00	 ret	 4
?_Compat@?$_Vector_const_iterator@V?$_Vector_val@VioHashString@@V?$allocator@VioHashString@@@std@@@std@@@std@@QBEXABV12@@Z ENDP ; std::_Vector_const_iterator<std::_Vector_val<ioHashString,std::allocator<ioHashString> > >::_Compat
_TEXT	ENDS
PUBLIC	?_Compat@?$_Vector_const_iterator@V?$_Vector_val@UtagDummyCharLoadInfo@@V?$allocator@UtagDummyCharLoadInfo@@@std@@@std@@@std@@QBEXABV12@@Z ; std::_Vector_const_iterator<std::_Vector_val<tagDummyCharLoadInfo,std::allocator<tagDummyCharLoadInfo> > >::_Compat
; Function compile flags: /Ogsp
;	COMDAT ?_Compat@?$_Vector_const_iterator@V?$_Vector_val@UtagDummyCharLoadInfo@@V?$allocator@UtagDummyCharLoadInfo@@@std@@@std@@@std@@QBEXABV12@@Z
_TEXT	SEGMENT
___formal$ = 8						; size = 4
?_Compat@?$_Vector_const_iterator@V?$_Vector_val@UtagDummyCharLoadInfo@@V?$allocator@UtagDummyCharLoadInfo@@@std@@@std@@@std@@QBEXABV12@@Z PROC ; std::_Vector_const_iterator<std::_Vector_val<tagDummyCharLoadInfo,std::allocator<tagDummyCharLoadInfo> > >::_Compat, COMDAT
; _this$ = ecx

; 253  : 		}

  00000	c2 04 00	 ret	 4
?_Compat@?$_Vector_const_iterator@V?$_Vector_val@UtagDummyCharLoadInfo@@V?$allocator@UtagDummyCharLoadInfo@@@std@@@std@@@std@@QBEXABV12@@Z ENDP ; std::_Vector_const_iterator<std::_Vector_val<tagDummyCharLoadInfo,std::allocator<tagDummyCharLoadInfo> > >::_Compat
_TEXT	ENDS
PUBLIC	??$_Allocate@VioHashString@@@std@@YAPAVioHashString@@IPAV1@@Z ; std::_Allocate<ioHashString>
; Function compile flags: /Ogsp
; File c:\program files (x86)\microsoft visual studio 10.0\vc\include\xmemory
;	COMDAT ??$_Allocate@VioHashString@@@std@@YAPAVioHashString@@IPAV1@@Z
_TEXT	SEGMENT
$T533908 = -12						; size = 12
$T533912 = 8						; size = 4
__Count$ = 8						; size = 4
___formal$ = 12						; size = 4
??$_Allocate@VioHashString@@@std@@YAPAVioHashString@@IPAV1@@Z PROC ; std::_Allocate<ioHashString>, COMDAT

; 30   : 	{	// allocate storage for _Count elements of type _Ty

  00000	55		 push	 ebp
  00001	8b ec		 mov	 ebp, esp

; 31   : 	void *_Ptr = 0;
; 32   : 
; 33   : 	if (_Count <= 0)

  00003	8b 4d 08	 mov	 ecx, DWORD PTR __Count$[ebp]
  00006	83 ec 0c	 sub	 esp, 12			; 0000000cH
  00009	33 c0		 xor	 eax, eax
  0000b	85 c9		 test	 ecx, ecx

; 34   : 		_Count = 0;
; 35   : 	else if (((_SIZT)(-1) / sizeof (_Ty) < _Count)

  0000d	74 3c		 je	 SHORT $LN5@Allocate@3

; 36   : 		|| (_Ptr = ::operator new(_Count * sizeof (_Ty))) == 0)

  0000f	81 f9 ff ff ff
	0f		 cmp	 ecx, 268435455		; 0fffffffH
  00015	77 0e		 ja	 SHORT $LN1@Allocate@3
  00017	c1 e1 04	 shl	 ecx, 4
  0001a	51		 push	 ecx
  0001b	e8 00 00 00 00	 call	 ??2@YAPAXI@Z		; operator new
  00020	59		 pop	 ecx
  00021	85 c0		 test	 eax, eax

; 38   : 
; 39   : 	return ((_Ty _FARQ *)_Ptr);

  00023	75 26		 jne	 SHORT $LN5@Allocate@3
$LN1@Allocate@3:

; 37   : 		_THROW_NCEE(bad_alloc, 0);

  00025	83 65 08 00	 and	 DWORD PTR $T533912[ebp], 0
  00029	8d 45 08	 lea	 eax, DWORD PTR $T533912[ebp]
  0002c	50		 push	 eax
  0002d	8d 4d f4	 lea	 ecx, DWORD PTR $T533908[ebp]
  00030	ff 15 00 00 00
	00		 call	 DWORD PTR __imp_??0exception@std@@QAE@ABQBD@Z
  00036	68 00 00 00 00	 push	 OFFSET __TI2?AVbad_alloc@std@@
  0003b	8d 45 f4	 lea	 eax, DWORD PTR $T533908[ebp]
  0003e	50		 push	 eax
  0003f	c7 45 f4 00 00
	00 00		 mov	 DWORD PTR $T533908[ebp], OFFSET ??_7bad_alloc@std@@6B@
  00046	e8 00 00 00 00	 call	 __CxxThrowException@8
$LN10@Allocate@3:
$LN5@Allocate@3:

; 40   : 	}

  0004b	c9		 leave
  0004c	c3		 ret	 0
$LN9@Allocate@3:
??$_Allocate@VioHashString@@@std@@YAPAVioHashString@@IPAV1@@Z ENDP ; std::_Allocate<ioHashString>
_TEXT	ENDS
EXTRN	__imp_??0exception@std@@QAE@ABV01@@Z:PROC
; Function compile flags: /Ogsp
;	COMDAT ??0bad_alloc@std@@QAE@ABV01@@Z
_TEXT	SEGMENT
___that$ = 8						; size = 4
??0bad_alloc@std@@QAE@ABV01@@Z PROC			; std::bad_alloc::bad_alloc, COMDAT
; _this$ = ecx
  00000	55		 push	 ebp
  00001	8b ec		 mov	 ebp, esp
  00003	56		 push	 esi
  00004	ff 75 08	 push	 DWORD PTR ___that$[ebp]
  00007	8b f1		 mov	 esi, ecx
  00009	ff 15 00 00 00
	00		 call	 DWORD PTR __imp_??0exception@std@@QAE@ABV01@@Z
  0000f	c7 06 00 00 00
	00		 mov	 DWORD PTR [esi], OFFSET ??_7bad_alloc@std@@6B@
  00015	8b c6		 mov	 eax, esi
  00017	5e		 pop	 esi
  00018	5d		 pop	 ebp
  00019	c2 04 00	 ret	 4
??0bad_alloc@std@@QAE@ABV01@@Z ENDP			; std::bad_alloc::bad_alloc
_TEXT	ENDS
PUBLIC	??$forward@ABVioHashString@@@std@@YAABVioHashString@@ABV1@@Z ; std::forward<ioHashString const &>
; Function compile flags: /Ogsp
; File c:\program files (x86)\microsoft visual studio 10.0\vc\include\utility
;	COMDAT ??$forward@ABVioHashString@@@std@@YAABVioHashString@@ABV1@@Z
_TEXT	SEGMENT
__Arg$ = 8						; size = 4
??$forward@ABVioHashString@@@std@@YAABVioHashString@@ABV1@@Z PROC ; std::forward<ioHashString const &>, COMDAT

; 78   : 	{	// forward _Arg, given explicitly specified type parameter

  00000	55		 push	 ebp
  00001	8b ec		 mov	 ebp, esp

; 79   : 	return ((_Ty&&)_Arg);

  00003	8b 45 08	 mov	 eax, DWORD PTR __Arg$[ebp]

; 80   : 	}

  00006	5d		 pop	 ebp
  00007	c3		 ret	 0
??$forward@ABVioHashString@@@std@@YAABVioHashString@@ABV1@@Z ENDP ; std::forward<ioHashString const &>
_TEXT	ENDS
PUBLIC	??$_Ptr_cat@VioHashString@@V1@@std@@YA?AU_Nonscalar_ptr_iterator_tag@0@PAVioHashString@@0@Z ; std::_Ptr_cat<ioHashString,ioHashString>
; Function compile flags: /Ogsp
; File c:\program files (x86)\microsoft visual studio 10.0\vc\include\xutility
;	COMDAT ??$_Ptr_cat@VioHashString@@V1@@std@@YA?AU_Nonscalar_ptr_iterator_tag@0@PAVioHashString@@0@Z
_TEXT	SEGMENT
__Cat$ = -1						; size = 1
___formal$ = 8						; size = 4
___formal$ = 12						; size = 4
??$_Ptr_cat@VioHashString@@V1@@std@@YA?AU_Nonscalar_ptr_iterator_tag@0@PAVioHashString@@0@Z PROC ; std::_Ptr_cat<ioHashString,ioHashString>, COMDAT

; 516  : 	{	// return pointer category from pointers

  00000	55		 push	 ebp
  00001	8b ec		 mov	 ebp, esp
  00003	51		 push	 ecx

; 517  : 	typename _Ptr_cat_helper<_Elem1, _Elem2>::_Type _Cat;
; 518  : 	return (_Cat);

  00004	8a 45 ff	 mov	 al, BYTE PTR __Cat$[ebp]

; 519  : 	}

  00007	c9		 leave
  00008	c3		 ret	 0
??$_Ptr_cat@VioHashString@@V1@@std@@YA?AU_Nonscalar_ptr_iterator_tag@0@PAVioHashString@@0@Z ENDP ; std::_Ptr_cat<ioHashString,ioHashString>
_TEXT	ENDS
PUBLIC	??$_Ptr_cat@UtagDummyCharLoadInfo@@U1@@std@@YA?AU_Nonscalar_ptr_iterator_tag@0@PAUtagDummyCharLoadInfo@@0@Z ; std::_Ptr_cat<tagDummyCharLoadInfo,tagDummyCharLoadInfo>
; Function compile flags: /Ogsp
;	COMDAT ??$_Ptr_cat@UtagDummyCharLoadInfo@@U1@@std@@YA?AU_Nonscalar_ptr_iterator_tag@0@PAUtagDummyCharLoadInfo@@0@Z
_TEXT	SEGMENT
__Cat$ = -1						; size = 1
___formal$ = 8						; size = 4
___formal$ = 12						; size = 4
??$_Ptr_cat@UtagDummyCharLoadInfo@@U1@@std@@YA?AU_Nonscalar_ptr_iterator_tag@0@PAUtagDummyCharLoadInfo@@0@Z PROC ; std::_Ptr_cat<tagDummyCharLoadInfo,tagDummyCharLoadInfo>, COMDAT

; 516  : 	{	// return pointer category from pointers

  00000	55		 push	 ebp
  00001	8b ec		 mov	 ebp, esp
  00003	51		 push	 ecx

; 517  : 	typename _Ptr_cat_helper<_Elem1, _Elem2>::_Type _Cat;
; 518  : 	return (_Cat);

  00004	8a 45 ff	 mov	 al, BYTE PTR __Cat$[ebp]

; 519  : 	}

  00007	c9		 leave
  00008	c3		 ret	 0
??$_Ptr_cat@UtagDummyCharLoadInfo@@U1@@std@@YA?AU_Nonscalar_ptr_iterator_tag@0@PAUtagDummyCharLoadInfo@@0@Z ENDP ; std::_Ptr_cat<tagDummyCharLoadInfo,tagDummyCharLoadInfo>
_TEXT	ENDS
PUBLIC	??4tagDummyCharLoadInfo@@QAEAAU0@ABU0@@Z	; tagDummyCharLoadInfo::operator=
; Function compile flags: /Ogsp
;	COMDAT ??4tagDummyCharLoadInfo@@QAEAAU0@ABU0@@Z
_TEXT	SEGMENT
___that$ = 8						; size = 4
??4tagDummyCharLoadInfo@@QAEAAU0@ABU0@@Z PROC		; tagDummyCharLoadInfo::operator=, COMDAT
; _this$ = ecx
  00000	55		 push	 ebp
  00001	8b ec		 mov	 ebp, esp
  00003	56		 push	 esi
  00004	57		 push	 edi
  00005	8b 7d 08	 mov	 edi, DWORD PTR ___that$[ebp]
  00008	57		 push	 edi
  00009	8b f1		 mov	 esi, ecx
  0000b	ff 15 00 00 00
	00		 call	 DWORD PTR __imp_??4ioHashString@@QAEAAV0@ABV0@@Z
  00011	d9 47 10	 fld	 DWORD PTR [edi+16]
  00014	d9 5e 10	 fstp	 DWORD PTR [esi+16]
  00017	8b c6		 mov	 eax, esi
  00019	d9 47 14	 fld	 DWORD PTR [edi+20]
  0001c	d9 5e 14	 fstp	 DWORD PTR [esi+20]
  0001f	d9 47 18	 fld	 DWORD PTR [edi+24]
  00022	5f		 pop	 edi
  00023	d9 5e 18	 fstp	 DWORD PTR [esi+24]
  00026	5e		 pop	 esi
  00027	5d		 pop	 ebp
  00028	c2 04 00	 ret	 4
??4tagDummyCharLoadInfo@@QAEAAU0@ABU0@@Z ENDP		; tagDummyCharLoadInfo::operator=
_TEXT	ENDS
PUBLIC	??$_Ptr_cat@V?$_Vector_const_iterator@V?$_Vector_val@VioHashString@@V?$allocator@VioHashString@@@std@@@std@@@std@@PAVioHashString@@@std@@YA?AU_Nonscalar_ptr_iterator_tag@0@AAV?$_Vector_const_iterator@V?$_Vector_val@VioHashString@@V?$allocator@VioHashString@@@std@@@std@@@0@AAPAVioHashString@@@Z ; std::_Ptr_cat<std::_Vector_const_iterator<std::_Vector_val<ioHashString,std::allocator<ioHashString> > >,ioHashString *>
; Function compile flags: /Ogsp
;	COMDAT ??$_Ptr_cat@V?$_Vector_const_iterator@V?$_Vector_val@VioHashString@@V?$allocator@VioHashString@@@std@@@std@@@std@@PAVioHashString@@@std@@YA?AU_Nonscalar_ptr_iterator_tag@0@AAV?$_Vector_const_iterator@V?$_Vector_val@VioHashString@@V?$allocator@VioHashString@@@std@@@std@@@0@AAPAVioHashString@@@Z
_TEXT	SEGMENT
__Cat$ = -1						; size = 1
___formal$ = 8						; size = 4
___formal$ = 12						; size = 4
??$_Ptr_cat@V?$_Vector_const_iterator@V?$_Vector_val@VioHashString@@V?$allocator@VioHashString@@@std@@@std@@@std@@PAVioHashString@@@std@@YA?AU_Nonscalar_ptr_iterator_tag@0@AAV?$_Vector_const_iterator@V?$_Vector_val@VioHashString@@V?$allocator@VioHashString@@@std@@@std@@@0@AAPAVioHashString@@@Z PROC ; std::_Ptr_cat<std::_Vector_const_iterator<std::_Vector_val<ioHashString,std::allocator<ioHashString> > >,ioHashString *>, COMDAT

; 485  : 	{	// return pointer category from arbitrary arguments

  00000	55		 push	 ebp
  00001	8b ec		 mov	 ebp, esp
  00003	51		 push	 ecx

; 486  : 	_Nonscalar_ptr_iterator_tag _Cat;
; 487  : 	return (_Cat);

  00004	8a 45 ff	 mov	 al, BYTE PTR __Cat$[ebp]

; 488  : 	}

  00007	c9		 leave
  00008	c3		 ret	 0
??$_Ptr_cat@V?$_Vector_const_iterator@V?$_Vector_val@VioHashString@@V?$allocator@VioHashString@@@std@@@std@@@std@@PAVioHashString@@@std@@YA?AU_Nonscalar_ptr_iterator_tag@0@AAV?$_Vector_const_iterator@V?$_Vector_val@VioHashString@@V?$allocator@VioHashString@@@std@@@std@@@0@AAPAVioHashString@@@Z ENDP ; std::_Ptr_cat<std::_Vector_const_iterator<std::_Vector_val<ioHashString,std::allocator<ioHashString> > >,ioHashString *>
_TEXT	ENDS
PUBLIC	??$move@AAVioHashString@@@std@@YA$$QAVioHashString@@AAV1@@Z ; std::move<ioHashString &>
; Function compile flags: /Ogsp
; File c:\program files (x86)\microsoft visual studio 10.0\vc\include\utility
;	COMDAT ??$move@AAVioHashString@@@std@@YA$$QAVioHashString@@AAV1@@Z
_TEXT	SEGMENT
__Arg$ = 8						; size = 4
??$move@AAVioHashString@@@std@@YA$$QAVioHashString@@AAV1@@Z PROC ; std::move<ioHashString &>, COMDAT

; 86   : 	{	// forward _Arg as movable

  00000	55		 push	 ebp
  00001	8b ec		 mov	 ebp, esp

; 87   : 	return ((typename tr1::_Remove_reference<_Ty>::_Type&&)_Arg);

  00003	8b 45 08	 mov	 eax, DWORD PTR __Arg$[ebp]

; 88   : 	}

  00006	5d		 pop	 ebp
  00007	c3		 ret	 0
??$move@AAVioHashString@@@std@@YA$$QAVioHashString@@AAV1@@Z ENDP ; std::move<ioHashString &>
_TEXT	ENDS
PUBLIC	??$move@AAUtagDummyCharLoadInfo@@@std@@YA$$QAUtagDummyCharLoadInfo@@AAU1@@Z ; std::move<tagDummyCharLoadInfo &>
; Function compile flags: /Ogsp
;	COMDAT ??$move@AAUtagDummyCharLoadInfo@@@std@@YA$$QAUtagDummyCharLoadInfo@@AAU1@@Z
_TEXT	SEGMENT
__Arg$ = 8						; size = 4
??$move@AAUtagDummyCharLoadInfo@@@std@@YA$$QAUtagDummyCharLoadInfo@@AAU1@@Z PROC ; std::move<tagDummyCharLoadInfo &>, COMDAT

; 86   : 	{	// forward _Arg as movable

  00000	55		 push	 ebp
  00001	8b ec		 mov	 ebp, esp

; 87   : 	return ((typename tr1::_Remove_reference<_Ty>::_Type&&)_Arg);

  00003	8b 45 08	 mov	 eax, DWORD PTR __Arg$[ebp]

; 88   : 	}

  00006	5d		 pop	 ebp
  00007	c3		 ret	 0
??$move@AAUtagDummyCharLoadInfo@@@std@@YA$$QAUtagDummyCharLoadInfo@@AAU1@@Z ENDP ; std::move<tagDummyCharLoadInfo &>
_TEXT	ENDS
PUBLIC	??D?$_Vector_const_iterator@V?$_Vector_val@VioHashString@@V?$allocator@VioHashString@@@std@@@std@@@std@@QBEABVioHashString@@XZ ; std::_Vector_const_iterator<std::_Vector_val<ioHashString,std::allocator<ioHashString> > >::operator*
; Function compile flags: /Ogsp
; File c:\program files (x86)\microsoft visual studio 10.0\vc\include\vector
;	COMDAT ??D?$_Vector_const_iterator@V?$_Vector_val@VioHashString@@V?$allocator@VioHashString@@@std@@@std@@@std@@QBEABVioHashString@@XZ
_TEXT	SEGMENT
??D?$_Vector_const_iterator@V?$_Vector_val@VioHashString@@V?$allocator@VioHashString@@@std@@@std@@@std@@QBEABVioHashString@@XZ PROC ; std::_Vector_const_iterator<std::_Vector_val<ioHashString,std::allocator<ioHashString> > >::operator*, COMDAT
; _this$ = ecx

; 64   :  #if _ITERATOR_DEBUG_LEVEL == 2
; 65   : 		if (this->_Getcont() == 0
; 66   : 			|| this->_Ptr == 0
; 67   : 			|| this->_Ptr < ((_Myvec *)this->_Getcont())->_Myfirst
; 68   : 			|| ((_Myvec *)this->_Getcont())->_Mylast <= this->_Ptr)
; 69   : 			{	// report error
; 70   : 			_DEBUG_ERROR("vector iterator not dereferencable");
; 71   : 			_SCL_SECURE_OUT_OF_RANGE;
; 72   : 			}
; 73   : 
; 74   :  #elif _ITERATOR_DEBUG_LEVEL == 1
; 75   : 		_SCL_SECURE_VALIDATE(this->_Getcont() != 0);
; 76   : 		_SCL_SECURE_VALIDATE_RANGE(
; 77   : 			this->_Ptr != 0
; 78   : 			&& ((_Myvec *)this->_Getcont())->_Myfirst <= this->_Ptr
; 79   : 			&& this->_Ptr < ((_Myvec *)this->_Getcont())->_Mylast);
; 80   :  #endif /* _ITERATOR_DEBUG_LEVEL */
; 81   : 
; 82   : 		__analysis_assume(this->_Ptr != 0);
; 83   : 
; 84   : 		return (*this->_Ptr);

  00000	8b 01		 mov	 eax, DWORD PTR [ecx]

; 85   : 		}

  00002	c3		 ret	 0
??D?$_Vector_const_iterator@V?$_Vector_val@VioHashString@@V?$allocator@VioHashString@@@std@@@std@@@std@@QBEABVioHashString@@XZ ENDP ; std::_Vector_const_iterator<std::_Vector_val<ioHashString,std::allocator<ioHashString> > >::operator*
_TEXT	ENDS
PUBLIC	??E?$_Vector_const_iterator@V?$_Vector_val@VioHashString@@V?$allocator@VioHashString@@@std@@@std@@@std@@QAEAAV01@XZ ; std::_Vector_const_iterator<std::_Vector_val<ioHashString,std::allocator<ioHashString> > >::operator++
; Function compile flags: /Ogsp
;	COMDAT ??E?$_Vector_const_iterator@V?$_Vector_val@VioHashString@@V?$allocator@VioHashString@@@std@@@std@@@std@@QAEAAV01@XZ
_TEXT	SEGMENT
??E?$_Vector_const_iterator@V?$_Vector_val@VioHashString@@V?$allocator@VioHashString@@@std@@@std@@@std@@QAEAAV01@XZ PROC ; std::_Vector_const_iterator<std::_Vector_val<ioHashString,std::allocator<ioHashString> > >::operator++, COMDAT
; _this$ = ecx

; 93   : 		{	// preincrement

  00000	8b c1		 mov	 eax, ecx

; 94   :  #if _ITERATOR_DEBUG_LEVEL == 2
; 95   : 		if (this->_Getcont() == 0
; 96   : 			|| this->_Ptr == 0
; 97   : 			|| ((_Myvec *)this->_Getcont())->_Mylast <= this->_Ptr)
; 98   : 			{	// report error
; 99   : 			_DEBUG_ERROR("vector iterator not incrementable");
; 100  : 			_SCL_SECURE_OUT_OF_RANGE;
; 101  : 			}
; 102  : 
; 103  :  #elif _ITERATOR_DEBUG_LEVEL == 1
; 104  : 		_SCL_SECURE_VALIDATE(this->_Getcont() != 0);
; 105  : 		_SCL_SECURE_VALIDATE_RANGE(
; 106  : 			this->_Ptr != 0
; 107  : 			&& this->_Ptr < ((_Myvec *)this->_Getcont())->_Mylast);
; 108  :  #endif /* _ITERATOR_DEBUG_LEVEL */
; 109  : 
; 110  : 		++this->_Ptr;

  00002	83 00 10	 add	 DWORD PTR [eax], 16	; 00000010H

; 111  : 		return (*this);
; 112  : 		}

  00005	c3		 ret	 0
??E?$_Vector_const_iterator@V?$_Vector_val@VioHashString@@V?$allocator@VioHashString@@@std@@@std@@@std@@QAEAAV01@XZ ENDP ; std::_Vector_const_iterator<std::_Vector_val<ioHashString,std::allocator<ioHashString> > >::operator++
_TEXT	ENDS
PUBLIC	??_GioHashString@@QAEPAXI@Z			; ioHashString::`scalar deleting destructor'
; Function compile flags: /Ogsp
;	COMDAT ??_GioHashString@@QAEPAXI@Z
_TEXT	SEGMENT
___flags$ = 8						; size = 4
??_GioHashString@@QAEPAXI@Z PROC			; ioHashString::`scalar deleting destructor', COMDAT
; _this$ = ecx
  00000	55		 push	 ebp
  00001	8b ec		 mov	 ebp, esp
  00003	56		 push	 esi
  00004	8b f1		 mov	 esi, ecx
  00006	ff 15 00 00 00
	00		 call	 DWORD PTR __imp_??1ioHashString@@QAE@XZ
  0000c	f6 45 08 01	 test	 BYTE PTR ___flags$[ebp], 1
  00010	74 07		 je	 SHORT $LN1@scalar@4
  00012	56		 push	 esi
  00013	e8 00 00 00 00	 call	 ??3@YAXPAX@Z		; operator delete
  00018	59		 pop	 ecx
$LN1@scalar@4:
  00019	8b c6		 mov	 eax, esi
  0001b	5e		 pop	 esi
  0001c	5d		 pop	 ebp
  0001d	c2 04 00	 ret	 4
??_GioHashString@@QAEPAXI@Z ENDP			; ioHashString::`scalar deleting destructor'
_TEXT	ENDS
PUBLIC	??1tagDummyCharLoadInfo@@QAE@XZ			; tagDummyCharLoadInfo::~tagDummyCharLoadInfo
; Function compile flags: /Ogsp
;	COMDAT ??1tagDummyCharLoadInfo@@QAE@XZ
_TEXT	SEGMENT
??1tagDummyCharLoadInfo@@QAE@XZ PROC			; tagDummyCharLoadInfo::~tagDummyCharLoadInfo, COMDAT
; _this$ = ecx
  00000	ff 25 00 00 00
	00		 jmp	 DWORD PTR __imp_??1ioHashString@@QAE@XZ
??1tagDummyCharLoadInfo@@QAE@XZ ENDP			; tagDummyCharLoadInfo::~tagDummyCharLoadInfo
_TEXT	ENDS
PUBLIC	??$_Construct@VioHashString@@ABV1@@std@@YAXPAVioHashString@@ABV1@@Z ; std::_Construct<ioHashString,ioHashString const &>
EXTRN	___CxxFrameHandler3:PROC
EXTRN	@__security_check_cookie@4:PROC
EXTRN	__EH_epilog3:PROC
EXTRN	__EH_prolog3:PROC
;	COMDAT xdata$x
; File c:\program files (x86)\microsoft visual studio 10.0\vc\include\utility
xdata$x	SEGMENT
__unwindtable$??$_Construct@VioHashString@@ABV1@@std@@YAXPAVioHashString@@ABV1@@Z DD 0ffffffffH
	DD	FLAT:__unwindfunclet$??$_Construct@VioHashString@@ABV1@@std@@YAXPAVioHashString@@ABV1@@Z$0
__ehfuncinfo$??$_Construct@VioHashString@@ABV1@@std@@YAXPAVioHashString@@ABV1@@Z DD 019930522H
	DD	01H
	DD	FLAT:__unwindtable$??$_Construct@VioHashString@@ABV1@@std@@YAXPAVioHashString@@ABV1@@Z
	DD	2 DUP(00H)
	DD	2 DUP(00H)
	DD	00H
	DD	01H
; Function compile flags: /Ogsp
; File c:\program files (x86)\microsoft visual studio 10.0\vc\include\xmemory
xdata$x	ENDS
;	COMDAT ??$_Construct@VioHashString@@ABV1@@std@@YAXPAVioHashString@@ABV1@@Z
_TEXT	SEGMENT
$T533947 = -16						; size = 4
__$EHRec$ = -12						; size = 12
__Vptr$ = 8						; size = 4
__Ptr$ = 8						; size = 4
__Val$ = 12						; size = 4
??$_Construct@VioHashString@@ABV1@@std@@YAXPAVioHashString@@ABV1@@Z PROC ; std::_Construct<ioHashString,ioHashString const &>, COMDAT

; 46   : 	{	// construct object at _Ptr with value _Val

  00000	6a 04		 push	 4
  00002	b8 00 00 00 00	 mov	 eax, __ehhandler$??$_Construct@VioHashString@@ABV1@@std@@YAXPAVioHashString@@ABV1@@Z
  00007	e8 00 00 00 00	 call	 __EH_prolog3

; 47   : 	void _FARQ *_Vptr = _Ptr;

  0000c	8b 4d 08	 mov	 ecx, DWORD PTR __Ptr$[ebp]
  0000f	89 4d 08	 mov	 DWORD PTR __Vptr$[ebp], ecx

; 48   : 	::new (_Vptr) _Ty1(_STD forward<_Ty2>(_Val));

  00012	89 4d f0	 mov	 DWORD PTR $T533947[ebp], ecx
  00015	83 65 fc 00	 and	 DWORD PTR __$EHRec$[ebp+8], 0
  00019	85 c9		 test	 ecx, ecx
  0001b	74 09		 je	 SHORT $LN3@Construct
  0001d	ff 75 0c	 push	 DWORD PTR __Val$[ebp]
  00020	ff 15 00 00 00
	00		 call	 DWORD PTR __imp_??0ioHashString@@QAE@ABV0@@Z
$LN3@Construct:

; 49   : 	}

  00026	e8 00 00 00 00	 call	 __EH_epilog3
  0002b	c3		 ret	 0
_TEXT	ENDS
;	COMDAT text$x
text$x	SEGMENT
__unwindfunclet$??$_Construct@VioHashString@@ABV1@@std@@YAXPAVioHashString@@ABV1@@Z$0:
  00000	ff 75 08	 push	 DWORD PTR __Vptr$[ebp]
  00003	ff 75 f0	 push	 DWORD PTR $T533947[ebp]
  00006	e8 00 00 00 00	 call	 ??3@YAXPAX0@Z		; operator delete
  0000b	59		 pop	 ecx
  0000c	59		 pop	 ecx
  0000d	c3		 ret	 0
__ehhandler$??$_Construct@VioHashString@@ABV1@@std@@YAXPAVioHashString@@ABV1@@Z:
  0000e	8b 54 24 08	 mov	 edx, DWORD PTR [esp+8]
  00012	8d 42 0c	 lea	 eax, DWORD PTR [edx+12]
  00015	8b 4a ec	 mov	 ecx, DWORD PTR [edx-20]
  00018	33 c8		 xor	 ecx, eax
  0001a	e8 00 00 00 00	 call	 @__security_check_cookie@4
  0001f	b8 00 00 00 00	 mov	 eax, OFFSET __ehfuncinfo$??$_Construct@VioHashString@@ABV1@@std@@YAXPAVioHashString@@ABV1@@Z
  00024	e9 00 00 00 00	 jmp	 ___CxxFrameHandler3
text$x	ENDS
??$_Construct@VioHashString@@ABV1@@std@@YAXPAVioHashString@@ABV1@@Z ENDP ; std::_Construct<ioHashString,ioHashString const &>
PUBLIC	?ApplyExtraBuffInfo@ioCreateDummyChar2Buff@@UAEXAAVSP2Packet@@@Z ; ioCreateDummyChar2Buff::ApplyExtraBuffInfo
EXTRN	?CreateDummyChar@ioPlayStage@@QAEPAVioDummyChar@@ABVioHashString@@H0ABUD3DXVECTOR3@@MK_N@Z:PROC ; ioPlayStage::CreateDummyChar
EXTRN	??5SP2Packet@@QAEAAV0@AAM@Z:PROC		; SP2Packet::operator>>
EXTRN	??5SP2Packet@@QAEAAV0@AAUD3DXVECTOR3@@@Z:PROC	; SP2Packet::operator>>
EXTRN	??5SP2Packet@@QAEAAV0@AAVioHashString@@@Z:PROC	; SP2Packet::operator>>
EXTRN	__imp_??0ioHashString@@QAE@XZ:PROC
EXTRN	?GetOwner@ioBuff@@QAEPAVioBaseChar@@XZ:PROC	; ioBuff::GetOwner
EXTRN	__EH_epilog3_GS:PROC
EXTRN	__EH_prolog3_GS:PROC
;	COMDAT xdata$x
; File d:\lost saga for developer\youtube\tutorial\source\src\lsclient\iobasechar.h
xdata$x	SEGMENT
__unwindtable$?ApplyExtraBuffInfo@ioCreateDummyChar2Buff@@UAEXAAVSP2Packet@@@Z DD 0ffffffffH
	DD	FLAT:__unwindfunclet$?ApplyExtraBuffInfo@ioCreateDummyChar2Buff@@UAEXAAVSP2Packet@@@Z$0
__ehfuncinfo$?ApplyExtraBuffInfo@ioCreateDummyChar2Buff@@UAEXAAVSP2Packet@@@Z DD 019930522H
	DD	01H
	DD	FLAT:__unwindtable$?ApplyExtraBuffInfo@ioCreateDummyChar2Buff@@UAEXAAVSP2Packet@@@Z
	DD	2 DUP(00H)
	DD	2 DUP(00H)
	DD	00H
	DD	01H
; Function compile flags: /Ogsp
; File d:\lost saga for developer\youtube\tutorial\source\src\lsclient\iocreatedummychar2buff.cpp
xdata$x	ENDS
;	COMDAT ?ApplyExtraBuffInfo@ioCreateDummyChar2Buff@@UAEXAAVSP2Packet@@@Z
_TEXT	SEGMENT
_szDummyCharName$530677 = -64				; size = 16
_fAngle$530679 = -48					; size = 4
tv166 = -44						; size = 4
_pStage$ = -40						; size = 4
_iCurIndex$530676 = -36					; size = 4
_iSize$ = -32						; size = 4
_vPos$530678 = -28					; size = 12
__$EHRec$ = -12						; size = 12
_rkPacket$ = 8						; size = 4
?ApplyExtraBuffInfo@ioCreateDummyChar2Buff@@UAEXAAVSP2Packet@@@Z PROC ; ioCreateDummyChar2Buff::ApplyExtraBuffInfo, COMDAT
; _this$ = ecx

; 257  : {

  00000	6a 34		 push	 52			; 00000034H
  00002	b8 00 00 00 00	 mov	 eax, __ehhandler$?ApplyExtraBuffInfo@ioCreateDummyChar2Buff@@UAEXAAVSP2Packet@@@Z
  00007	e8 00 00 00 00	 call	 __EH_prolog3_GS
  0000c	8b 75 08	 mov	 esi, DWORD PTR _rkPacket$[ebp]

; 258  : 	ioBaseChar *pOwner = GetOwner();

  0000f	e8 00 00 00 00	 call	 ?GetOwner@ioBuff@@QAEPAVioBaseChar@@XZ ; ioBuff::GetOwner
  00014	8b d8		 mov	 ebx, eax

; 259  : 	if( !pOwner )

  00016	85 db		 test	 ebx, ebx
  00018	0f 84 9c 00 00
	00		 je	 $LN1@ApplyExtra

; 260  : 		return;
; 261  : 
; 262  : 	ioPlayStage *pStage = pOwner->GetCreator();

  0001e	8b 83 44 03 00
	00		 mov	 eax, DWORD PTR [ebx+836]
  00024	89 45 d8	 mov	 DWORD PTR _pStage$[ebp], eax

; 263  : 	if( !pStage )

  00027	85 c0		 test	 eax, eax
  00029	0f 84 8b 00 00
	00		 je	 $LN1@ApplyExtra

; 264  : 		return;
; 265  : 
; 266  : 	int iSize;
; 267  : 	rkPacket >> iSize;

  0002f	8d 45 e0	 lea	 eax, DWORD PTR _iSize$[ebp]
  00032	50		 push	 eax
  00033	8b ce		 mov	 ecx, esi
  00035	e8 00 00 00 00	 call	 ??5SP2Packet@@QAEAAV0@AAH@Z ; SP2Packet::operator>>

; 268  : 	for( int i=0; i<iSize; ++i )

  0003a	33 ff		 xor	 edi, edi
  0003c	39 7d e0	 cmp	 DWORD PTR _iSize$[ebp], edi
  0003f	7e 79		 jle	 SHORT $LN1@ApplyExtra

; 269  : 	{
; 270  : 		int iCurIndex;
; 271  : 		ioHashString szDummyCharName;

  00041	81 c3 d4 02 00
	00		 add	 ebx, 724		; 000002d4H
  00047	89 5d d4	 mov	 DWORD PTR tv166[ebp], ebx
$LL3@ApplyExtra:
  0004a	8d 4d c0	 lea	 ecx, DWORD PTR _szDummyCharName$530677[ebp]
  0004d	ff 15 00 00 00
	00		 call	 DWORD PTR __imp_??0ioHashString@@QAE@XZ

; 272  : 		D3DXVECTOR3 vPos;
; 273  : 		float fAngle;
; 274  : 		rkPacket >> szDummyCharName;

  00053	8d 45 c0	 lea	 eax, DWORD PTR _szDummyCharName$530677[ebp]
  00056	33 db		 xor	 ebx, ebx
  00058	50		 push	 eax
  00059	8b ce		 mov	 ecx, esi
  0005b	89 5d fc	 mov	 DWORD PTR __$EHRec$[ebp+8], ebx
  0005e	e8 00 00 00 00	 call	 ??5SP2Packet@@QAEAAV0@AAVioHashString@@@Z ; SP2Packet::operator>>

; 275  : 		rkPacket >> iCurIndex;

  00063	8d 45 dc	 lea	 eax, DWORD PTR _iCurIndex$530676[ebp]
  00066	50		 push	 eax
  00067	8b ce		 mov	 ecx, esi
  00069	e8 00 00 00 00	 call	 ??5SP2Packet@@QAEAAV0@AAH@Z ; SP2Packet::operator>>

; 276  : 		rkPacket >> vPos;

  0006e	8d 45 e4	 lea	 eax, DWORD PTR _vPos$530678[ebp]
  00071	50		 push	 eax
  00072	8b ce		 mov	 ecx, esi
  00074	e8 00 00 00 00	 call	 ??5SP2Packet@@QAEAAV0@AAUD3DXVECTOR3@@@Z ; SP2Packet::operator>>

; 277  : 		rkPacket >> fAngle;

  00079	8d 45 d0	 lea	 eax, DWORD PTR _fAngle$530679[ebp]
  0007c	50		 push	 eax
  0007d	8b ce		 mov	 ecx, esi
  0007f	e8 00 00 00 00	 call	 ??5SP2Packet@@QAEAAV0@AAM@Z ; SP2Packet::operator>>

; 278  : 
; 279  : 		ioDummyChar *pDummy = pStage->CreateDummyChar( szDummyCharName, iCurIndex,
; 280  : 													   pOwner->GetCharName(),
; 281  : 													   vPos, fAngle,
; 282  : 													   0, false );

  00084	f3 0f 10 45 d0	 movss	 xmm0, DWORD PTR _fAngle$530679[ebp]
  00089	53		 push	 ebx
  0008a	53		 push	 ebx
  0008b	51		 push	 ecx
  0008c	8b 4d d8	 mov	 ecx, DWORD PTR _pStage$[ebp]
  0008f	f3 0f 11 04 24	 movss	 DWORD PTR [esp], xmm0
  00094	8d 45 e4	 lea	 eax, DWORD PTR _vPos$530678[ebp]
  00097	50		 push	 eax
  00098	ff 75 d4	 push	 DWORD PTR tv166[ebp]
  0009b	8d 45 c0	 lea	 eax, DWORD PTR _szDummyCharName$530677[ebp]
  0009e	ff 75 dc	 push	 DWORD PTR _iCurIndex$530676[ebp]
  000a1	50		 push	 eax
  000a2	e8 00 00 00 00	 call	 ?CreateDummyChar@ioPlayStage@@QAEPAVioDummyChar@@ABVioHashString@@H0ABUD3DXVECTOR3@@MK_N@Z ; ioPlayStage::CreateDummyChar

; 283  : 	}

  000a7	83 4d fc ff	 or	 DWORD PTR __$EHRec$[ebp+8], -1
  000ab	8d 4d c0	 lea	 ecx, DWORD PTR _szDummyCharName$530677[ebp]
  000ae	ff 15 00 00 00
	00		 call	 DWORD PTR __imp_??1ioHashString@@QAE@XZ
  000b4	47		 inc	 edi
  000b5	3b 7d e0	 cmp	 edi, DWORD PTR _iSize$[ebp]
  000b8	7c 90		 jl	 SHORT $LL3@ApplyExtra
$LN1@ApplyExtra:

; 284  : }

  000ba	e8 00 00 00 00	 call	 __EH_epilog3_GS
  000bf	c2 04 00	 ret	 4
_TEXT	ENDS
;	COMDAT text$x
text$x	SEGMENT
__unwindfunclet$?ApplyExtraBuffInfo@ioCreateDummyChar2Buff@@UAEXAAVSP2Packet@@@Z$0:
  00000	8d 4d c0	 lea	 ecx, DWORD PTR _szDummyCharName$530677[ebp]
  00003	ff 25 00 00 00
	00		 jmp	 DWORD PTR __imp_??1ioHashString@@QAE@XZ
__ehhandler$?ApplyExtraBuffInfo@ioCreateDummyChar2Buff@@UAEXAAVSP2Packet@@@Z:
  00009	8b 54 24 08	 mov	 edx, DWORD PTR [esp+8]
  0000d	8d 42 0c	 lea	 eax, DWORD PTR [edx+12]
  00010	8b 4a bc	 mov	 ecx, DWORD PTR [edx-68]
  00013	33 c8		 xor	 ecx, eax
  00015	e8 00 00 00 00	 call	 @__security_check_cookie@4
  0001a	8b 4a fc	 mov	 ecx, DWORD PTR [edx-4]
  0001d	33 c8		 xor	 ecx, eax
  0001f	e8 00 00 00 00	 call	 @__security_check_cookie@4
  00024	b8 00 00 00 00	 mov	 eax, OFFSET __ehfuncinfo$?ApplyExtraBuffInfo@ioCreateDummyChar2Buff@@UAEXAAVSP2Packet@@@Z
  00029	e9 00 00 00 00	 jmp	 ___CxxFrameHandler3
text$x	ENDS
?ApplyExtraBuffInfo@ioCreateDummyChar2Buff@@UAEXAAVSP2Packet@@@Z ENDP ; ioCreateDummyChar2Buff::ApplyExtraBuffInfo
PUBLIC	??N?$CEncrypt@K@@QAE_NABK@Z			; CEncrypt<unsigned long>::operator<=
; Function compile flags: /Ogsp
; File d:\lost saga for developer\youtube\tutorial\source\src\lsclient\encryptvalue.h
;	COMDAT ??N?$CEncrypt@K@@QAE_NABK@Z
_TEXT	SEGMENT
_value$ = -4						; size = 4
_inValue$ = 8						; size = 4
??N?$CEncrypt@K@@QAE_NABK@Z PROC			; CEncrypt<unsigned long>::operator<=, COMDAT
; _this$ = ecx

; 1431 : 	{

  00000	55		 push	 ebp
  00001	8b ec		 mov	 ebp, esp
  00003	51		 push	 ecx

; 1432 : 		
; 1433 : 		type value;
; 1434 : 		DecryptValueToPool(&value);

  00004	8d 45 fc	 lea	 eax, DWORD PTR _value$[ebp]
  00007	50		 push	 eax
  00008	e8 00 00 00 00	 call	 ?DecryptValueToPool@?$CEncrypt@K@@QAEXPAK@Z ; CEncrypt<unsigned long>::DecryptValueToPool

; 1435 : #ifdef _NOTUSE
; 1436 : 		Debug();
; 1437 : #endif
; 1438 : 		return (value <= inValue);

  0000d	8b 45 08	 mov	 eax, DWORD PTR _inValue$[ebp]
  00010	8b 00		 mov	 eax, DWORD PTR [eax]
  00012	3b 45 fc	 cmp	 eax, DWORD PTR _value$[ebp]
  00015	1b c0		 sbb	 eax, eax
  00017	40		 inc	 eax

; 1439 : 	}		

  00018	c9		 leave
  00019	c2 04 00	 ret	 4
??N?$CEncrypt@K@@QAE_NABK@Z ENDP			; CEncrypt<unsigned long>::operator<=
_TEXT	ENDS
PUBLIC	??B?$CEncrypt@W4JumpState@@@@QBE?AW4JumpState@@XZ ; CEncrypt<enum JumpState>::operator enum JumpState
; Function compile flags: /Ogsp
;	COMDAT ??B?$CEncrypt@W4JumpState@@@@QBE?AW4JumpState@@XZ
_TEXT	SEGMENT
_value$ = -4						; size = 4
??B?$CEncrypt@W4JumpState@@@@QBE?AW4JumpState@@XZ PROC	; CEncrypt<enum JumpState>::operator enum JumpState, COMDAT
; _this$ = ecx

; 145  : 	{

  00000	55		 push	 ebp
  00001	8b ec		 mov	 ebp, esp
  00003	51		 push	 ecx

; 146  : 		//UJ 130829, const    --start
; 147  : 		type value;
; 148  : 		CEncrypt<type>* pThis = const_cast<CEncrypt<type>*>(this);
; 149  : 		pThis->DecryptValueToPool(&value);

  00004	8d 45 fc	 lea	 eax, DWORD PTR _value$[ebp]
  00007	50		 push	 eax
  00008	e8 00 00 00 00	 call	 ?DecryptValueToPool@?$CEncrypt@W4JumpState@@@@QAEXPAW4JumpState@@@Z ; CEncrypt<enum JumpState>::DecryptValueToPool

; 150  : 		//// const DecryptValueToPool     .
; 151  :  		//type value;
; 152  : 		//char szTempMem[MAX_ENCRYPT];
; 153  : 		//m_RC5.DecryptByte( m_MemPool, szTempMem, max(m_ValueSize, DEFAULT_ENCRYPT) );
; 154  : 		//memcpy( &value, szTempMem, m_ValueSize );
; 155  : 		//UJ --end
; 156  : 
; 157  : #ifdef _NOTUSE
; 158  : 		Debug();
; 159  : #endif
; 160  : 		return value;

  0000d	8b 45 fc	 mov	 eax, DWORD PTR _value$[ebp]

; 161  : 	}

  00010	c9		 leave
  00011	c3		 ret	 0
??B?$CEncrypt@W4JumpState@@@@QBE?AW4JumpState@@XZ ENDP	; CEncrypt<enum JumpState>::operator enum JumpState
_TEXT	ENDS
PUBLIC	?begin@?$vector@UtagDummyCharLoadInfo@@V?$allocator@UtagDummyCharLoadInfo@@@std@@@std@@QBE?AV?$_Vector_const_iterator@V?$_Vector_val@UtagDummyCharLoadInfo@@V?$allocator@UtagDummyCharLoadInfo@@@std@@@std@@@2@XZ ; std::vector<tagDummyCharLoadInfo,std::allocator<tagDummyCharLoadInfo> >::begin
; Function compile flags: /Ogsp
; File c:\program files (x86)\microsoft visual studio 10.0\vc\include\vector
;	COMDAT ?begin@?$vector@UtagDummyCharLoadInfo@@V?$allocator@UtagDummyCharLoadInfo@@@std@@@std@@QBE?AV?$_Vector_const_iterator@V?$_Vector_val@UtagDummyCharLoadInfo@@V?$allocator@UtagDummyCharLoadInfo@@@std@@@std@@@2@XZ
_TEXT	SEGMENT
___$ReturnUdt$ = 8					; size = 4
?begin@?$vector@UtagDummyCharLoadInfo@@V?$allocator@UtagDummyCharLoadInfo@@@std@@@std@@QBE?AV?$_Vector_const_iterator@V?$_Vector_val@UtagDummyCharLoadInfo@@V?$allocator@UtagDummyCharLoadInfo@@@std@@@std@@@2@XZ PROC ; std::vector<tagDummyCharLoadInfo,std::allocator<tagDummyCharLoadInfo> >::begin, COMDAT
; _this$ = ecx

; 786  : 		{	// return iterator for beginning of nonmutable sequence

  00000	55		 push	 ebp
  00001	8b ec		 mov	 ebp, esp

; 787  : 		return (const_iterator(this->_Myfirst, this));

  00003	8b 09		 mov	 ecx, DWORD PTR [ecx]
  00005	8b 45 08	 mov	 eax, DWORD PTR ___$ReturnUdt$[ebp]
  00008	89 08		 mov	 DWORD PTR [eax], ecx

; 788  : 		}

  0000a	5d		 pop	 ebp
  0000b	c2 04 00	 ret	 4
?begin@?$vector@UtagDummyCharLoadInfo@@V?$allocator@UtagDummyCharLoadInfo@@@std@@@std@@QBE?AV?$_Vector_const_iterator@V?$_Vector_val@UtagDummyCharLoadInfo@@V?$allocator@UtagDummyCharLoadInfo@@@std@@@std@@@2@XZ ENDP ; std::vector<tagDummyCharLoadInfo,std::allocator<tagDummyCharLoadInfo> >::begin
_TEXT	ENDS
PUBLIC	?end@?$vector@UtagDummyCharLoadInfo@@V?$allocator@UtagDummyCharLoadInfo@@@std@@@std@@QBE?AV?$_Vector_const_iterator@V?$_Vector_val@UtagDummyCharLoadInfo@@V?$allocator@UtagDummyCharLoadInfo@@@std@@@std@@@2@XZ ; std::vector<tagDummyCharLoadInfo,std::allocator<tagDummyCharLoadInfo> >::end
; Function compile flags: /Ogsp
;	COMDAT ?end@?$vector@UtagDummyCharLoadInfo@@V?$allocator@UtagDummyCharLoadInfo@@@std@@@std@@QBE?AV?$_Vector_const_iterator@V?$_Vector_val@UtagDummyCharLoadInfo@@V?$allocator@UtagDummyCharLoadInfo@@@std@@@std@@@2@XZ
_TEXT	SEGMENT
___$ReturnUdt$ = 8					; size = 4
?end@?$vector@UtagDummyCharLoadInfo@@V?$allocator@UtagDummyCharLoadInfo@@@std@@@std@@QBE?AV?$_Vector_const_iterator@V?$_Vector_val@UtagDummyCharLoadInfo@@V?$allocator@UtagDummyCharLoadInfo@@@std@@@std@@@2@XZ PROC ; std::vector<tagDummyCharLoadInfo,std::allocator<tagDummyCharLoadInfo> >::end, COMDAT
; _this$ = ecx

; 796  : 		{	// return iterator for end of nonmutable sequence

  00000	55		 push	 ebp
  00001	8b ec		 mov	 ebp, esp

; 797  : 		return (const_iterator(this->_Mylast, this));

  00003	8b 49 04	 mov	 ecx, DWORD PTR [ecx+4]
  00006	8b 45 08	 mov	 eax, DWORD PTR ___$ReturnUdt$[ebp]
  00009	89 08		 mov	 DWORD PTR [eax], ecx

; 798  : 		}

  0000b	5d		 pop	 ebp
  0000c	c2 04 00	 ret	 4
?end@?$vector@UtagDummyCharLoadInfo@@V?$allocator@UtagDummyCharLoadInfo@@@std@@@std@@QBE?AV?$_Vector_const_iterator@V?$_Vector_val@UtagDummyCharLoadInfo@@V?$allocator@UtagDummyCharLoadInfo@@@std@@@std@@@2@XZ ENDP ; std::vector<tagDummyCharLoadInfo,std::allocator<tagDummyCharLoadInfo> >::end
_TEXT	ENDS
PUBLIC	??0?$_Vector_val@UtagDummyCharCreateInfo@@V?$allocator@UtagDummyCharCreateInfo@@@std@@@std@@QAE@V?$allocator@UtagDummyCharCreateInfo@@@1@@Z ; std::_Vector_val<tagDummyCharCreateInfo,std::allocator<tagDummyCharCreateInfo> >::_Vector_val<tagDummyCharCreateInfo,std::allocator<tagDummyCharCreateInfo> >
; Function compile flags: /Ogsp
;	COMDAT ??0?$_Vector_val@UtagDummyCharCreateInfo@@V?$allocator@UtagDummyCharCreateInfo@@@std@@@std@@QAE@V?$allocator@UtagDummyCharCreateInfo@@@1@@Z
_TEXT	SEGMENT
__Al$ = 8						; size = 1
??0?$_Vector_val@UtagDummyCharCreateInfo@@V?$allocator@UtagDummyCharCreateInfo@@@std@@@std@@QAE@V?$allocator@UtagDummyCharCreateInfo@@@1@@Z PROC ; std::_Vector_val<tagDummyCharCreateInfo,std::allocator<tagDummyCharCreateInfo> >::_Vector_val<tagDummyCharCreateInfo,std::allocator<tagDummyCharCreateInfo> >, COMDAT
; _this$ = ecx

; 426  : 		{	// construct allocator from _Al

  00000	8b c1		 mov	 eax, ecx

; 427  : 		_Myfirst = 0;

  00002	33 c9		 xor	 ecx, ecx
  00004	89 08		 mov	 DWORD PTR [eax], ecx

; 428  : 		_Mylast = 0;

  00006	89 48 04	 mov	 DWORD PTR [eax+4], ecx

; 429  : 		_Myend = 0;

  00009	89 48 08	 mov	 DWORD PTR [eax+8], ecx

; 430  : 		}

  0000c	c2 04 00	 ret	 4
??0?$_Vector_val@UtagDummyCharCreateInfo@@V?$allocator@UtagDummyCharCreateInfo@@@std@@@std@@QAE@V?$allocator@UtagDummyCharCreateInfo@@@1@@Z ENDP ; std::_Vector_val<tagDummyCharCreateInfo,std::allocator<tagDummyCharCreateInfo> >::_Vector_val<tagDummyCharCreateInfo,std::allocator<tagDummyCharCreateInfo> >
_TEXT	ENDS
PUBLIC	?max_size@?$vector@UtagDummyCharLoadInfo@@V?$allocator@UtagDummyCharLoadInfo@@@std@@@std@@QBEIXZ ; std::vector<tagDummyCharLoadInfo,std::allocator<tagDummyCharLoadInfo> >::max_size
; Function compile flags: /Ogsp
;	COMDAT ?max_size@?$vector@UtagDummyCharLoadInfo@@V?$allocator@UtagDummyCharLoadInfo@@@std@@@std@@QBEIXZ
_TEXT	SEGMENT
?max_size@?$vector@UtagDummyCharLoadInfo@@V?$allocator@UtagDummyCharLoadInfo@@@std@@@std@@QBEIXZ PROC ; std::vector<tagDummyCharLoadInfo,std::allocator<tagDummyCharLoadInfo> >::max_size, COMDAT
; _this$ = ecx

; 884  : 		return (this->_Alval.max_size());

  00000	b8 49 92 24 09	 mov	 eax, 153391689		; 09249249H

; 885  : 		}

  00005	c3		 ret	 0
?max_size@?$vector@UtagDummyCharLoadInfo@@V?$allocator@UtagDummyCharLoadInfo@@@std@@@std@@QBEIXZ ENDP ; std::vector<tagDummyCharLoadInfo,std::allocator<tagDummyCharLoadInfo> >::max_size
_TEXT	ENDS
PUBLIC	?allocate@?$allocator@UtagDummyCharLoadInfo@@@std@@QAEPAUtagDummyCharLoadInfo@@I@Z ; std::allocator<tagDummyCharLoadInfo>::allocate
; Function compile flags: /Ogsp
; File c:\program files (x86)\microsoft visual studio 10.0\vc\include\xmemory
;	COMDAT ?allocate@?$allocator@UtagDummyCharLoadInfo@@@std@@QAEPAUtagDummyCharLoadInfo@@I@Z
_TEXT	SEGMENT
__Count$ = 8						; size = 4
?allocate@?$allocator@UtagDummyCharLoadInfo@@@std@@QAEPAUtagDummyCharLoadInfo@@I@Z PROC ; std::allocator<tagDummyCharLoadInfo>::allocate, COMDAT
; _this$ = ecx

; 186  : 		{	// allocate array of _Count elements

  00000	55		 push	 ebp
  00001	8b ec		 mov	 ebp, esp

; 187  : 		return (_Allocate(_Count, (pointer)0));

  00003	6a 00		 push	 0
  00005	ff 75 08	 push	 DWORD PTR __Count$[ebp]
  00008	e8 00 00 00 00	 call	 ??$_Allocate@UtagDummyCharLoadInfo@@@std@@YAPAUtagDummyCharLoadInfo@@IPAU1@@Z ; std::_Allocate<tagDummyCharLoadInfo>
  0000d	59		 pop	 ecx
  0000e	59		 pop	 ecx

; 188  : 		}

  0000f	5d		 pop	 ebp
  00010	c2 04 00	 ret	 4
?allocate@?$allocator@UtagDummyCharLoadInfo@@@std@@QAEPAUtagDummyCharLoadInfo@@I@Z ENDP ; std::allocator<tagDummyCharLoadInfo>::allocate
_TEXT	ENDS
PUBLIC	?max_size@?$vector@UtagDummyCharCreateInfo@@V?$allocator@UtagDummyCharCreateInfo@@@std@@@std@@QBEIXZ ; std::vector<tagDummyCharCreateInfo,std::allocator<tagDummyCharCreateInfo> >::max_size
; Function compile flags: /Ogsp
; File c:\program files (x86)\microsoft visual studio 10.0\vc\include\vector
;	COMDAT ?max_size@?$vector@UtagDummyCharCreateInfo@@V?$allocator@UtagDummyCharCreateInfo@@@std@@@std@@QBEIXZ
_TEXT	SEGMENT
?max_size@?$vector@UtagDummyCharCreateInfo@@V?$allocator@UtagDummyCharCreateInfo@@@std@@@std@@QBEIXZ PROC ; std::vector<tagDummyCharCreateInfo,std::allocator<tagDummyCharCreateInfo> >::max_size, COMDAT
; _this$ = ecx

; 884  : 		return (this->_Alval.max_size());

  00000	b8 c7 71 1c 07	 mov	 eax, 119304647		; 071c71c7H

; 885  : 		}

  00005	c3		 ret	 0
?max_size@?$vector@UtagDummyCharCreateInfo@@V?$allocator@UtagDummyCharCreateInfo@@@std@@@std@@QBEIXZ ENDP ; std::vector<tagDummyCharCreateInfo,std::allocator<tagDummyCharCreateInfo> >::max_size
_TEXT	ENDS
PUBLIC	?_Grow_to@?$vector@UtagDummyCharCreateInfo@@V?$allocator@UtagDummyCharCreateInfo@@@std@@@std@@IBEII@Z ; std::vector<tagDummyCharCreateInfo,std::allocator<tagDummyCharCreateInfo> >::_Grow_to
; Function compile flags: /Ogsp
;	COMDAT ?_Grow_to@?$vector@UtagDummyCharCreateInfo@@V?$allocator@UtagDummyCharCreateInfo@@@std@@@std@@IBEII@Z
_TEXT	SEGMENT
__Count$ = 8						; size = 4
?_Grow_to@?$vector@UtagDummyCharCreateInfo@@V?$allocator@UtagDummyCharCreateInfo@@@std@@@std@@IBEII@Z PROC ; std::vector<tagDummyCharCreateInfo,std::allocator<tagDummyCharCreateInfo> >::_Grow_to, COMDAT
; _this$ = ecx

; 1274 : 		{	// grow by 50% or at least to _Count

  00000	55		 push	 ebp
  00001	8b ec		 mov	 ebp, esp

; 1275 : 		size_type _Capacity = capacity();

  00003	8b 41 08	 mov	 eax, DWORD PTR [ecx+8]
  00006	2b 01		 sub	 eax, DWORD PTR [ecx]
  00008	6a 24		 push	 36			; 00000024H
  0000a	99		 cdq
  0000b	59		 pop	 ecx
  0000c	f7 f9		 idiv	 ecx

; 1276 : 
; 1277 : 		_Capacity = max_size() - _Capacity / 2 < _Capacity
; 1278 : 			? 0 : _Capacity + _Capacity / 2;	// try to grow by 50%

  0000e	ba c7 71 1c 07	 mov	 edx, 119304647		; 071c71c7H
  00013	8b c8		 mov	 ecx, eax
  00015	d1 e9		 shr	 ecx, 1
  00017	2b d1		 sub	 edx, ecx
  00019	3b d0		 cmp	 edx, eax
  0001b	73 04		 jae	 SHORT $LN4@Grow_to
  0001d	33 c0		 xor	 eax, eax
  0001f	eb 02		 jmp	 SHORT $LN5@Grow_to
$LN4@Grow_to:
  00021	03 c1		 add	 eax, ecx
$LN5@Grow_to:

; 1279 : 		if (_Capacity < _Count)

  00023	3b 45 08	 cmp	 eax, DWORD PTR __Count$[ebp]

; 1280 : 			_Capacity = _Count;

  00026	0f 42 45 08	 cmovb	 eax, DWORD PTR __Count$[ebp]

; 1281 : 		return (_Capacity);
; 1282 : 		}

  0002a	5d		 pop	 ebp
  0002b	c2 04 00	 ret	 4
?_Grow_to@?$vector@UtagDummyCharCreateInfo@@V?$allocator@UtagDummyCharCreateInfo@@@std@@@std@@IBEII@Z ENDP ; std::vector<tagDummyCharCreateInfo,std::allocator<tagDummyCharCreateInfo> >::_Grow_to
_TEXT	ENDS
PUBLIC	??0?$_Vector_iterator@V?$_Vector_val@UtagDummyCharCreateInfo@@V?$allocator@UtagDummyCharCreateInfo@@@std@@@std@@@std@@QAE@PAUtagDummyCharCreateInfo@@PBU_Container_base0@1@@Z ; std::_Vector_iterator<std::_Vector_val<tagDummyCharCreateInfo,std::allocator<tagDummyCharCreateInfo> > >::_Vector_iterator<std::_Vector_val<tagDummyCharCreateInfo,std::allocator<tagDummyCharCreateInfo> > >
; Function compile flags: /Ogsp
;	COMDAT ??0?$_Vector_iterator@V?$_Vector_val@UtagDummyCharCreateInfo@@V?$allocator@UtagDummyCharCreateInfo@@@std@@@std@@@std@@QAE@PAUtagDummyCharCreateInfo@@PBU_Container_base0@1@@Z
_TEXT	SEGMENT
__Parg$ = 8						; size = 4
__Pvector$ = 12						; size = 4
??0?$_Vector_iterator@V?$_Vector_val@UtagDummyCharCreateInfo@@V?$allocator@UtagDummyCharCreateInfo@@@std@@@std@@@std@@QAE@PAUtagDummyCharCreateInfo@@PBU_Container_base0@1@@Z PROC ; std::_Vector_iterator<std::_Vector_val<tagDummyCharCreateInfo,std::allocator<tagDummyCharCreateInfo> > >::_Vector_iterator<std::_Vector_val<tagDummyCharCreateInfo,std::allocator<tagDummyCharCreateInfo> > >, COMDAT
; _this$ = ecx

; 304  : 		{	// construct with pointer _Parg

  00000	55		 push	 ebp
  00001	8b ec		 mov	 ebp, esp
  00003	8b c1		 mov	 eax, ecx
  00005	8b 4d 08	 mov	 ecx, DWORD PTR __Parg$[ebp]
  00008	89 08		 mov	 DWORD PTR [eax], ecx

; 305  : 		}

  0000a	5d		 pop	 ebp
  0000b	c2 08 00	 ret	 8
??0?$_Vector_iterator@V?$_Vector_val@UtagDummyCharCreateInfo@@V?$allocator@UtagDummyCharCreateInfo@@@std@@@std@@@std@@QAE@PAUtagDummyCharCreateInfo@@PBU_Container_base0@1@@Z ENDP ; std::_Vector_iterator<std::_Vector_val<tagDummyCharCreateInfo,std::allocator<tagDummyCharCreateInfo> > >::_Vector_iterator<std::_Vector_val<tagDummyCharCreateInfo,std::allocator<tagDummyCharCreateInfo> > >
_TEXT	ENDS
PUBLIC	?allocate@?$allocator@UtagDummyCharCreateInfo@@@std@@QAEPAUtagDummyCharCreateInfo@@I@Z ; std::allocator<tagDummyCharCreateInfo>::allocate
; Function compile flags: /Ogsp
; File c:\program files (x86)\microsoft visual studio 10.0\vc\include\xmemory
;	COMDAT ?allocate@?$allocator@UtagDummyCharCreateInfo@@@std@@QAEPAUtagDummyCharCreateInfo@@I@Z
_TEXT	SEGMENT
__Count$ = 8						; size = 4
?allocate@?$allocator@UtagDummyCharCreateInfo@@@std@@QAEPAUtagDummyCharCreateInfo@@I@Z PROC ; std::allocator<tagDummyCharCreateInfo>::allocate, COMDAT
; _this$ = ecx

; 186  : 		{	// allocate array of _Count elements

  00000	55		 push	 ebp
  00001	8b ec		 mov	 ebp, esp

; 187  : 		return (_Allocate(_Count, (pointer)0));

  00003	6a 00		 push	 0
  00005	ff 75 08	 push	 DWORD PTR __Count$[ebp]
  00008	e8 00 00 00 00	 call	 ??$_Allocate@UtagDummyCharCreateInfo@@@std@@YAPAUtagDummyCharCreateInfo@@IPAU1@@Z ; std::_Allocate<tagDummyCharCreateInfo>
  0000d	59		 pop	 ecx
  0000e	59		 pop	 ecx

; 188  : 		}

  0000f	5d		 pop	 ebp
  00010	c2 04 00	 ret	 4
?allocate@?$allocator@UtagDummyCharCreateInfo@@@std@@QAEPAUtagDummyCharCreateInfo@@I@Z ENDP ; std::allocator<tagDummyCharCreateInfo>::allocate
_TEXT	ENDS
PUBLIC	??8?$_Vector_const_iterator@V?$_Vector_val@UtagDummyCharCreateInfo@@V?$allocator@UtagDummyCharCreateInfo@@@std@@@std@@@std@@QBE_NABV01@@Z ; std::_Vector_const_iterator<std::_Vector_val<tagDummyCharCreateInfo,std::allocator<tagDummyCharCreateInfo> > >::operator==
; Function compile flags: /Ogsp
; File c:\program files (x86)\microsoft visual studio 10.0\vc\include\vector
;	COMDAT ??8?$_Vector_const_iterator@V?$_Vector_val@UtagDummyCharCreateInfo@@V?$allocator@UtagDummyCharCreateInfo@@@std@@@std@@@std@@QBE_NABV01@@Z
_TEXT	SEGMENT
__Right$ = 8						; size = 4
??8?$_Vector_const_iterator@V?$_Vector_val@UtagDummyCharCreateInfo@@V?$allocator@UtagDummyCharCreateInfo@@@std@@@std@@@std@@QBE_NABV01@@Z PROC ; std::_Vector_const_iterator<std::_Vector_val<tagDummyCharCreateInfo,std::allocator<tagDummyCharCreateInfo> > >::operator==, COMDAT
; _this$ = ecx

; 201  : 		{	// test for iterator equality

  00000	55		 push	 ebp
  00001	8b ec		 mov	 ebp, esp

; 202  : 		_Compat(_Right);
; 203  : 		return (this->_Ptr == _Right._Ptr);

  00003	8b 01		 mov	 eax, DWORD PTR [ecx]
  00005	8b 4d 08	 mov	 ecx, DWORD PTR __Right$[ebp]
  00008	2b 01		 sub	 eax, DWORD PTR [ecx]
  0000a	f7 d8		 neg	 eax
  0000c	1b c0		 sbb	 eax, eax
  0000e	40		 inc	 eax

; 204  : 		}

  0000f	5d		 pop	 ebp
  00010	c2 04 00	 ret	 4
??8?$_Vector_const_iterator@V?$_Vector_val@UtagDummyCharCreateInfo@@V?$allocator@UtagDummyCharCreateInfo@@@std@@@std@@@std@@QBE_NABV01@@Z ENDP ; std::_Vector_const_iterator<std::_Vector_val<tagDummyCharCreateInfo,std::allocator<tagDummyCharCreateInfo> > >::operator==
_TEXT	ENDS
PUBLIC	__$ArrayPad$
PUBLIC	??$LoadBool_e@$0BD@@ioINILoader@@QAE_NAAY0BD@$$CBD_N@Z ; ioINILoader::LoadBool_e<19>
EXTRN	__imp_?LoadBool@ioINILoader@@QAE_NPBD_N@Z:PROC
EXTRN	___security_cookie:DWORD
; Function compile flags: /Ogsp
; File d:\lost saga for developer\youtube\tutorial\source\src\io3dengine\ioiniloader.h
;	COMDAT ??$LoadBool_e@$0BD@@ioINILoader@@QAE_NAAY0BD@$$CBD_N@Z
_TEXT	SEGMENT
__k$ = -28						; size = 19
__$ArrayPad$ = -4					; size = 4
_k$ = 8							; size = 4
_b$ = 12						; size = 1
??$LoadBool_e@$0BD@@ioINILoader@@QAE_NAAY0BD@$$CBD_N@Z PROC ; ioINILoader::LoadBool_e<19>, COMDAT
; _this$ = ecx

; 101  : 	{

  00000	55		 push	 ebp
  00001	8b ec		 mov	 ebp, esp
  00003	83 ec 1c	 sub	 esp, 28			; 0000001cH
  00006	a1 00 00 00 00	 mov	 eax, DWORD PTR ___security_cookie
  0000b	33 c5		 xor	 eax, ebp
  0000d	89 45 fc	 mov	 DWORD PTR __$ArrayPad$[ebp], eax
  00010	8b 45 08	 mov	 eax, DWORD PTR _k$[ebp]

; 102  : 		_ENCSTR(k, _k);

  00013	8a 10		 mov	 dl, BYTE PTR [eax]
  00015	56		 push	 esi
  00016	8b f1		 mov	 esi, ecx
  00018	84 d2		 test	 dl, dl
  0001a	0f 84 cf 01 00
	00		 je	 $LN96@LoadBool_e
  00020	80 f2 ed	 xor	 dl, -19			; ffffffedH
  00023	88 55 e4	 mov	 BYTE PTR __k$[ebp], dl
  00026	8a 50 01	 mov	 dl, BYTE PTR [eax+1]
  00029	84 d2		 test	 dl, dl
  0002b	0f 84 b8 01 00
	00		 je	 $LN95@LoadBool_e
  00031	b1 ec		 mov	 cl, -20			; ffffffecH
  00033	32 d1		 xor	 dl, cl
  00035	88 55 e5	 mov	 BYTE PTR __k$[ebp+1], dl
  00038	8a 50 02	 mov	 dl, BYTE PTR [eax+2]
  0003b	84 d2		 test	 dl, dl
  0003d	0f 84 a0 01 00
	00		 je	 $LN94@LoadBool_e
  00043	80 f2 eb	 xor	 dl, -21			; ffffffebH
  00046	88 55 e6	 mov	 BYTE PTR __k$[ebp+2], dl
  00049	8a 50 03	 mov	 dl, BYTE PTR [eax+3]
  0004c	84 d2		 test	 dl, dl
  0004e	0f 84 89 01 00
	00		 je	 $LN93@LoadBool_e
  00054	80 f2 ea	 xor	 dl, -22			; ffffffeaH
  00057	88 55 e7	 mov	 BYTE PTR __k$[ebp+3], dl
  0005a	8a 50 04	 mov	 dl, BYTE PTR [eax+4]
  0005d	84 d2		 test	 dl, dl
  0005f	0f 84 72 01 00
	00		 je	 $LN92@LoadBool_e
  00065	80 f2 ed	 xor	 dl, -19			; ffffffedH
  00068	88 55 e8	 mov	 BYTE PTR __k$[ebp+4], dl
  0006b	8a 50 05	 mov	 dl, BYTE PTR [eax+5]
  0006e	84 d2		 test	 dl, dl
  00070	0f 84 5c 01 00
	00		 je	 $LN91@LoadBool_e
  00076	32 d1		 xor	 dl, cl
  00078	88 55 e9	 mov	 BYTE PTR __k$[ebp+5], dl
  0007b	8a 50 06	 mov	 dl, BYTE PTR [eax+6]
  0007e	84 d2		 test	 dl, dl
  00080	0f 84 46 01 00
	00		 je	 $LN90@LoadBool_e
  00086	80 f2 eb	 xor	 dl, -21			; ffffffebH
  00089	88 55 ea	 mov	 BYTE PTR __k$[ebp+6], dl
  0008c	8a 50 07	 mov	 dl, BYTE PTR [eax+7]
  0008f	84 d2		 test	 dl, dl
  00091	0f 84 2f 01 00
	00		 je	 $LN89@LoadBool_e
  00097	80 f2 ea	 xor	 dl, -22			; ffffffeaH
  0009a	88 55 eb	 mov	 BYTE PTR __k$[ebp+7], dl
  0009d	8a 50 08	 mov	 dl, BYTE PTR [eax+8]
  000a0	84 d2		 test	 dl, dl
  000a2	0f 84 18 01 00
	00		 je	 $LN88@LoadBool_e
  000a8	80 f2 ed	 xor	 dl, -19			; ffffffedH
  000ab	88 55 ec	 mov	 BYTE PTR __k$[ebp+8], dl
  000ae	8a 50 09	 mov	 dl, BYTE PTR [eax+9]
  000b1	84 d2		 test	 dl, dl
  000b3	0f 84 02 01 00
	00		 je	 $LN87@LoadBool_e
  000b9	32 d1		 xor	 dl, cl
  000bb	88 55 ed	 mov	 BYTE PTR __k$[ebp+9], dl
  000be	8a 50 0a	 mov	 dl, BYTE PTR [eax+10]
  000c1	84 d2		 test	 dl, dl
  000c3	0f 84 ec 00 00
	00		 je	 $LN86@LoadBool_e
  000c9	80 f2 eb	 xor	 dl, -21			; ffffffebH
  000cc	88 55 ee	 mov	 BYTE PTR __k$[ebp+10], dl
  000cf	8a 50 0b	 mov	 dl, BYTE PTR [eax+11]
  000d2	84 d2		 test	 dl, dl
  000d4	0f 84 d5 00 00
	00		 je	 $LN85@LoadBool_e
  000da	80 f2 ea	 xor	 dl, -22			; ffffffeaH
  000dd	88 55 ef	 mov	 BYTE PTR __k$[ebp+11], dl
  000e0	8a 50 0c	 mov	 dl, BYTE PTR [eax+12]
  000e3	84 d2		 test	 dl, dl
  000e5	0f 84 be 00 00
	00		 je	 $LN84@LoadBool_e
  000eb	80 f2 ed	 xor	 dl, -19			; ffffffedH
  000ee	88 55 f0	 mov	 BYTE PTR __k$[ebp+12], dl
  000f1	8a 50 0d	 mov	 dl, BYTE PTR [eax+13]
  000f4	84 d2		 test	 dl, dl
  000f6	0f 84 a8 00 00
	00		 je	 $LN83@LoadBool_e
  000fc	32 d1		 xor	 dl, cl
  000fe	88 55 f1	 mov	 BYTE PTR __k$[ebp+13], dl
  00101	8a 50 0e	 mov	 dl, BYTE PTR [eax+14]
  00104	84 d2		 test	 dl, dl
  00106	0f 84 92 00 00
	00		 je	 $LN82@LoadBool_e
  0010c	80 f2 eb	 xor	 dl, -21			; ffffffebH
  0010f	88 55 f2	 mov	 BYTE PTR __k$[ebp+14], dl
  00112	8a 50 0f	 mov	 dl, BYTE PTR [eax+15]
  00115	84 d2		 test	 dl, dl
  00117	74 7f		 je	 SHORT $LN81@LoadBool_e
  00119	80 f2 ea	 xor	 dl, -22			; ffffffeaH
  0011c	88 55 f3	 mov	 BYTE PTR __k$[ebp+15], dl
  0011f	8a 50 10	 mov	 dl, BYTE PTR [eax+16]
  00122	84 d2		 test	 dl, dl
  00124	74 6c		 je	 SHORT $LN80@LoadBool_e
  00126	80 f2 ed	 xor	 dl, -19			; ffffffedH
  00129	88 55 f4	 mov	 BYTE PTR __k$[ebp+16], dl
  0012c	8a 50 11	 mov	 dl, BYTE PTR [eax+17]
  0012f	84 d2		 test	 dl, dl
  00131	74 5a		 je	 SHORT $LN79@LoadBool_e
  00133	32 d1		 xor	 dl, cl
  00135	80 78 12 00	 cmp	 BYTE PTR [eax+18], 0
  00139	88 55 f5	 mov	 BYTE PTR __k$[ebp+17], dl
  0013c	0f 84 b1 00 00
	00		 je	 $LN1@LoadBool_e
  00142	8a 50 13	 mov	 dl, BYTE PTR [eax+19]
  00145	84 d2		 test	 dl, dl
  00147	74 3e		 je	 SHORT $LN77@LoadBool_e
  00149	80 f2 ea	 xor	 dl, -22			; ffffffeaH
  0014c	88 55 f7	 mov	 BYTE PTR __k$[ebp+19], dl
  0014f	8a 50 14	 mov	 dl, BYTE PTR [eax+20]
  00152	84 d2		 test	 dl, dl
  00154	74 2b		 je	 SHORT $LN76@LoadBool_e
  00156	80 f2 ed	 xor	 dl, -19			; ffffffedH
  00159	88 55 f8	 mov	 BYTE PTR __k$[ebp+20], dl
  0015c	8a 50 15	 mov	 dl, BYTE PTR [eax+21]
  0015f	84 d2		 test	 dl, dl
  00161	74 19		 je	 SHORT $LN75@LoadBool_e
  00163	8a 40 16	 mov	 al, BYTE PTR [eax+22]
  00166	32 d1		 xor	 dl, cl
  00168	88 55 f9	 mov	 BYTE PTR __k$[ebp+21], dl
  0016b	84 c0		 test	 al, al
  0016d	74 07		 je	 SHORT $LN74@LoadBool_e
  0016f	34 eb		 xor	 al, -21			; ffffffebH
  00171	88 45 fa	 mov	 BYTE PTR __k$[ebp+22], al
  00174	eb 7d		 jmp	 SHORT $LN1@LoadBool_e
$LN74@LoadBool_e:
  00176	c6 45 fa eb	 mov	 BYTE PTR __k$[ebp+22], -21 ; ffffffebH
  0017a	eb 77		 jmp	 SHORT $LN1@LoadBool_e
$LN75@LoadBool_e:
  0017c	88 4d f9	 mov	 BYTE PTR __k$[ebp+21], cl
  0017f	eb 72		 jmp	 SHORT $LN1@LoadBool_e
$LN76@LoadBool_e:
  00181	c6 45 f8 ed	 mov	 BYTE PTR __k$[ebp+20], -19 ; ffffffedH
  00185	eb 6c		 jmp	 SHORT $LN1@LoadBool_e
$LN77@LoadBool_e:
  00187	c6 45 f7 ea	 mov	 BYTE PTR __k$[ebp+19], -22 ; ffffffeaH
  0018b	eb 66		 jmp	 SHORT $LN1@LoadBool_e
$LN79@LoadBool_e:
  0018d	88 4d f5	 mov	 BYTE PTR __k$[ebp+17], cl
  00190	eb 61		 jmp	 SHORT $LN1@LoadBool_e
$LN80@LoadBool_e:
  00192	c6 45 f4 ed	 mov	 BYTE PTR __k$[ebp+16], -19 ; ffffffedH
  00196	eb 5b		 jmp	 SHORT $LN1@LoadBool_e
$LN81@LoadBool_e:
  00198	c6 45 f3 ea	 mov	 BYTE PTR __k$[ebp+15], -22 ; ffffffeaH
  0019c	eb 55		 jmp	 SHORT $LN1@LoadBool_e
$LN82@LoadBool_e:
  0019e	c6 45 f2 eb	 mov	 BYTE PTR __k$[ebp+14], -21 ; ffffffebH
  001a2	eb 4f		 jmp	 SHORT $LN1@LoadBool_e
$LN83@LoadBool_e:
  001a4	88 4d f1	 mov	 BYTE PTR __k$[ebp+13], cl
  001a7	eb 4a		 jmp	 SHORT $LN1@LoadBool_e
$LN84@LoadBool_e:
  001a9	c6 45 f0 ed	 mov	 BYTE PTR __k$[ebp+12], -19 ; ffffffedH
  001ad	eb 44		 jmp	 SHORT $LN1@LoadBool_e
$LN85@LoadBool_e:
  001af	c6 45 ef ea	 mov	 BYTE PTR __k$[ebp+11], -22 ; ffffffeaH
  001b3	eb 3e		 jmp	 SHORT $LN1@LoadBool_e
$LN86@LoadBool_e:
  001b5	c6 45 ee eb	 mov	 BYTE PTR __k$[ebp+10], -21 ; ffffffebH
  001b9	eb 38		 jmp	 SHORT $LN1@LoadBool_e
$LN87@LoadBool_e:
  001bb	88 4d ed	 mov	 BYTE PTR __k$[ebp+9], cl
  001be	eb 33		 jmp	 SHORT $LN1@LoadBool_e
$LN88@LoadBool_e:
  001c0	c6 45 ec ed	 mov	 BYTE PTR __k$[ebp+8], -19 ; ffffffedH
  001c4	eb 2d		 jmp	 SHORT $LN1@LoadBool_e
$LN89@LoadBool_e:
  001c6	c6 45 eb ea	 mov	 BYTE PTR __k$[ebp+7], -22 ; ffffffeaH
  001ca	eb 27		 jmp	 SHORT $LN1@LoadBool_e
$LN90@LoadBool_e:
  001cc	c6 45 ea eb	 mov	 BYTE PTR __k$[ebp+6], -21 ; ffffffebH
  001d0	eb 21		 jmp	 SHORT $LN1@LoadBool_e
$LN91@LoadBool_e:
  001d2	88 4d e9	 mov	 BYTE PTR __k$[ebp+5], cl
  001d5	eb 1c		 jmp	 SHORT $LN1@LoadBool_e
$LN92@LoadBool_e:
  001d7	c6 45 e8 ed	 mov	 BYTE PTR __k$[ebp+4], -19 ; ffffffedH
  001db	eb 16		 jmp	 SHORT $LN1@LoadBool_e
$LN93@LoadBool_e:
  001dd	c6 45 e7 ea	 mov	 BYTE PTR __k$[ebp+3], -22 ; ffffffeaH
  001e1	eb 10		 jmp	 SHORT $LN1@LoadBool_e
$LN94@LoadBool_e:
  001e3	c6 45 e6 eb	 mov	 BYTE PTR __k$[ebp+2], -21 ; ffffffebH
  001e7	eb 0a		 jmp	 SHORT $LN1@LoadBool_e
$LN95@LoadBool_e:
  001e9	c6 45 e5 ec	 mov	 BYTE PTR __k$[ebp+1], -20 ; ffffffecH
  001ed	eb 04		 jmp	 SHORT $LN1@LoadBool_e
$LN96@LoadBool_e:
  001ef	c6 45 e4 ed	 mov	 BYTE PTR __k$[ebp], -19	; ffffffedH
$LN1@LoadBool_e:
  001f3	6a 04		 push	 4
  001f5	8d 45 e4	 lea	 eax, DWORD PTR __k$[ebp]
  001f8	c6 45 f6 00	 mov	 BYTE PTR __k$[ebp+18], 0
  001fc	5a		 pop	 edx
$LL104@LoadBool_e:
  001fd	81 30 ed ec eb
	ea		 xor	 DWORD PTR [eax], -353637139 ; eaebecedH
  00203	83 c0 04	 add	 eax, 4
  00206	4a		 dec	 edx
  00207	75 f4		 jne	 SHORT $LL104@LoadBool_e
  00209	6a 10		 push	 16			; 00000010H
  0020b	58		 pop	 eax
$LL101@LoadBool_e:
  0020c	8b c8		 mov	 ecx, eax
  0020e	81 e1 03 00 00
	80		 and	 ecx, -2147483645	; 80000003H
  00214	79 05		 jns	 SHORT $LN111@LoadBool_e
  00216	49		 dec	 ecx
  00217	83 c9 fc	 or	 ecx, -4			; fffffffcH
  0021a	41		 inc	 ecx
$LN111@LoadBool_e:
  0021b	b2 ed		 mov	 dl, -19			; ffffffedH
  0021d	2a d1		 sub	 dl, cl
  0021f	30 54 05 e4	 xor	 BYTE PTR __k$[ebp+eax], dl
  00223	40		 inc	 eax
  00224	83 f8 12	 cmp	 eax, 18			; 00000012H
  00227	7c e3		 jl	 SHORT $LL101@LoadBool_e

; 103  : 		return LoadBool(_k, b);

  00229	ff 75 0c	 push	 DWORD PTR _b$[ebp]
  0022c	8d 45 e4	 lea	 eax, DWORD PTR __k$[ebp]
  0022f	50		 push	 eax
  00230	8b ce		 mov	 ecx, esi
  00232	ff 15 00 00 00
	00		 call	 DWORD PTR __imp_?LoadBool@ioINILoader@@QAE_NPBD_N@Z

; 104  : 	}

  00238	8b 4d fc	 mov	 ecx, DWORD PTR __$ArrayPad$[ebp]
  0023b	33 cd		 xor	 ecx, ebp
  0023d	5e		 pop	 esi
  0023e	e8 00 00 00 00	 call	 @__security_check_cookie@4
  00243	c9		 leave
  00244	c2 08 00	 ret	 8
??$LoadBool_e@$0BD@@ioINILoader@@QAE_NAAY0BD@$$CBD_N@Z ENDP ; ioINILoader::LoadBool_e<19>
_TEXT	ENDS
PUBLIC	__$ArrayPad$
PUBLIC	??$LoadBool_e@$0BG@@ioINILoader@@QAE_NAAY0BG@$$CBD_N@Z ; ioINILoader::LoadBool_e<22>
; Function compile flags: /Ogsp
;	COMDAT ??$LoadBool_e@$0BG@@ioINILoader@@QAE_NAAY0BG@$$CBD_N@Z
_TEXT	SEGMENT
__k$ = -32						; size = 22
__$ArrayPad$ = -4					; size = 4
_k$ = 8							; size = 4
_b$ = 12						; size = 1
??$LoadBool_e@$0BG@@ioINILoader@@QAE_NAAY0BG@$$CBD_N@Z PROC ; ioINILoader::LoadBool_e<22>, COMDAT
; _this$ = ecx

; 101  : 	{

  00000	55		 push	 ebp
  00001	8b ec		 mov	 ebp, esp
  00003	83 ec 20	 sub	 esp, 32			; 00000020H
  00006	a1 00 00 00 00	 mov	 eax, DWORD PTR ___security_cookie
  0000b	33 c5		 xor	 eax, ebp
  0000d	89 45 fc	 mov	 DWORD PTR __$ArrayPad$[ebp], eax
  00010	8b 45 08	 mov	 eax, DWORD PTR _k$[ebp]

; 102  : 		_ENCSTR(k, _k);

  00013	8a 10		 mov	 dl, BYTE PTR [eax]
  00015	53		 push	 ebx
  00016	56		 push	 esi
  00017	8b f1		 mov	 esi, ecx
  00019	84 d2		 test	 dl, dl
  0001b	0f 84 15 02 00
	00		 je	 $LN96@LoadBool_e@2
  00021	80 f2 ed	 xor	 dl, -19			; ffffffedH
  00024	88 55 e0	 mov	 BYTE PTR __k$[ebp], dl
  00027	8a 50 01	 mov	 dl, BYTE PTR [eax+1]
  0002a	84 d2		 test	 dl, dl
  0002c	0f 84 fe 01 00
	00		 je	 $LN95@LoadBool_e@2
  00032	80 f2 ec	 xor	 dl, -20			; ffffffecH
  00035	88 55 e1	 mov	 BYTE PTR __k$[ebp+1], dl
  00038	8a 50 02	 mov	 dl, BYTE PTR [eax+2]
  0003b	84 d2		 test	 dl, dl
  0003d	0f 84 e7 01 00
	00		 je	 $LN94@LoadBool_e@2
  00043	b1 eb		 mov	 cl, -21			; ffffffebH
  00045	32 d1		 xor	 dl, cl
  00047	88 55 e2	 mov	 BYTE PTR __k$[ebp+2], dl
  0004a	8a 50 03	 mov	 dl, BYTE PTR [eax+3]
  0004d	84 d2		 test	 dl, dl
  0004f	0f 84 cf 01 00
	00		 je	 $LN93@LoadBool_e@2
  00055	b3 ea		 mov	 bl, -22			; ffffffeaH
  00057	32 d3		 xor	 dl, bl
  00059	88 55 e3	 mov	 BYTE PTR __k$[ebp+3], dl
  0005c	8a 50 04	 mov	 dl, BYTE PTR [eax+4]
  0005f	84 d2		 test	 dl, dl
  00061	0f 84 b7 01 00
	00		 je	 $LN92@LoadBool_e@2
  00067	80 f2 ed	 xor	 dl, -19			; ffffffedH
  0006a	88 55 e4	 mov	 BYTE PTR __k$[ebp+4], dl
  0006d	8a 50 05	 mov	 dl, BYTE PTR [eax+5]
  00070	84 d2		 test	 dl, dl
  00072	0f 84 a0 01 00
	00		 je	 $LN91@LoadBool_e@2
  00078	80 f2 ec	 xor	 dl, -20			; ffffffecH
  0007b	88 55 e5	 mov	 BYTE PTR __k$[ebp+5], dl
  0007e	8a 50 06	 mov	 dl, BYTE PTR [eax+6]
  00081	84 d2		 test	 dl, dl
  00083	0f 84 8a 01 00
	00		 je	 $LN90@LoadBool_e@2
  00089	32 d1		 xor	 dl, cl
  0008b	88 55 e6	 mov	 BYTE PTR __k$[ebp+6], dl
  0008e	8a 50 07	 mov	 dl, BYTE PTR [eax+7]
  00091	84 d2		 test	 dl, dl
  00093	0f 84 75 01 00
	00		 je	 $LN89@LoadBool_e@2
  00099	32 d3		 xor	 dl, bl
  0009b	88 55 e7	 mov	 BYTE PTR __k$[ebp+7], dl
  0009e	8a 50 08	 mov	 dl, BYTE PTR [eax+8]
  000a1	84 d2		 test	 dl, dl
  000a3	0f 84 5f 01 00
	00		 je	 $LN88@LoadBool_e@2
  000a9	80 f2 ed	 xor	 dl, -19			; ffffffedH
  000ac	88 55 e8	 mov	 BYTE PTR __k$[ebp+8], dl
  000af	8a 50 09	 mov	 dl, BYTE PTR [eax+9]
  000b2	84 d2		 test	 dl, dl
  000b4	0f 84 48 01 00
	00		 je	 $LN87@LoadBool_e@2
  000ba	80 f2 ec	 xor	 dl, -20			; ffffffecH
  000bd	88 55 e9	 mov	 BYTE PTR __k$[ebp+9], dl
  000c0	8a 50 0a	 mov	 dl, BYTE PTR [eax+10]
  000c3	84 d2		 test	 dl, dl
  000c5	0f 84 32 01 00
	00		 je	 $LN86@LoadBool_e@2
  000cb	32 d1		 xor	 dl, cl
  000cd	88 55 ea	 mov	 BYTE PTR __k$[ebp+10], dl
  000d0	8a 50 0b	 mov	 dl, BYTE PTR [eax+11]
  000d3	84 d2		 test	 dl, dl
  000d5	0f 84 1d 01 00
	00		 je	 $LN85@LoadBool_e@2
  000db	32 d3		 xor	 dl, bl
  000dd	88 55 eb	 mov	 BYTE PTR __k$[ebp+11], dl
  000e0	8a 50 0c	 mov	 dl, BYTE PTR [eax+12]
  000e3	84 d2		 test	 dl, dl
  000e5	0f 84 07 01 00
	00		 je	 $LN84@LoadBool_e@2
  000eb	80 f2 ed	 xor	 dl, -19			; ffffffedH
  000ee	88 55 ec	 mov	 BYTE PTR __k$[ebp+12], dl
  000f1	8a 50 0d	 mov	 dl, BYTE PTR [eax+13]
  000f4	84 d2		 test	 dl, dl
  000f6	0f 84 f0 00 00
	00		 je	 $LN83@LoadBool_e@2
  000fc	80 f2 ec	 xor	 dl, -20			; ffffffecH
  000ff	88 55 ed	 mov	 BYTE PTR __k$[ebp+13], dl
  00102	8a 50 0e	 mov	 dl, BYTE PTR [eax+14]
  00105	84 d2		 test	 dl, dl
  00107	0f 84 da 00 00
	00		 je	 $LN82@LoadBool_e@2
  0010d	32 d1		 xor	 dl, cl
  0010f	88 55 ee	 mov	 BYTE PTR __k$[ebp+14], dl
  00112	8a 50 0f	 mov	 dl, BYTE PTR [eax+15]
  00115	84 d2		 test	 dl, dl
  00117	0f 84 c5 00 00
	00		 je	 $LN81@LoadBool_e@2
  0011d	32 d3		 xor	 dl, bl
  0011f	88 55 ef	 mov	 BYTE PTR __k$[ebp+15], dl
  00122	8a 50 10	 mov	 dl, BYTE PTR [eax+16]
  00125	84 d2		 test	 dl, dl
  00127	0f 84 af 00 00
	00		 je	 $LN80@LoadBool_e@2
  0012d	80 f2 ed	 xor	 dl, -19			; ffffffedH
  00130	88 55 f0	 mov	 BYTE PTR __k$[ebp+16], dl
  00133	8a 50 11	 mov	 dl, BYTE PTR [eax+17]
  00136	84 d2		 test	 dl, dl
  00138	0f 84 98 00 00
	00		 je	 $LN79@LoadBool_e@2
  0013e	80 f2 ec	 xor	 dl, -20			; ffffffecH
  00141	88 55 f1	 mov	 BYTE PTR __k$[ebp+17], dl
  00144	8a 50 12	 mov	 dl, BYTE PTR [eax+18]
  00147	84 d2		 test	 dl, dl
  00149	0f 84 82 00 00
	00		 je	 $LN78@LoadBool_e@2
  0014f	32 d1		 xor	 dl, cl
  00151	88 55 f2	 mov	 BYTE PTR __k$[ebp+18], dl
  00154	8a 50 13	 mov	 dl, BYTE PTR [eax+19]
  00157	84 d2		 test	 dl, dl
  00159	74 71		 je	 SHORT $LN77@LoadBool_e@2
  0015b	32 d3		 xor	 dl, bl
  0015d	88 55 f3	 mov	 BYTE PTR __k$[ebp+19], dl
  00160	8a 50 14	 mov	 dl, BYTE PTR [eax+20]
  00163	84 d2		 test	 dl, dl
  00165	74 5f		 je	 SHORT $LN76@LoadBool_e@2
  00167	80 f2 ed	 xor	 dl, -19			; ffffffedH
  0016a	80 78 15 00	 cmp	 BYTE PTR [eax+21], 0
  0016e	88 55 f4	 mov	 BYTE PTR __k$[ebp+20], dl
  00171	0f 84 c3 00 00
	00		 je	 $LN1@LoadBool_e@2
  00177	8a 50 16	 mov	 dl, BYTE PTR [eax+22]
  0017a	84 d2		 test	 dl, dl
  0017c	74 43		 je	 SHORT $LN74@LoadBool_e@2
  0017e	32 d1		 xor	 dl, cl
  00180	88 55 f6	 mov	 BYTE PTR __k$[ebp+22], dl
  00183	8a 50 17	 mov	 dl, BYTE PTR [eax+23]
  00186	84 d2		 test	 dl, dl
  00188	74 32		 je	 SHORT $LN73@LoadBool_e@2
  0018a	32 d3		 xor	 dl, bl
  0018c	88 55 f7	 mov	 BYTE PTR __k$[ebp+23], dl
  0018f	8a 50 18	 mov	 dl, BYTE PTR [eax+24]
  00192	84 d2		 test	 dl, dl
  00194	74 20		 je	 SHORT $LN72@LoadBool_e@2
  00196	8a 40 19	 mov	 al, BYTE PTR [eax+25]
  00199	80 f2 ed	 xor	 dl, -19			; ffffffedH
  0019c	88 55 f8	 mov	 BYTE PTR __k$[ebp+24], dl
  0019f	84 c0		 test	 al, al
  001a1	74 0a		 je	 SHORT $LN71@LoadBool_e@2
  001a3	34 ec		 xor	 al, -20			; ffffffecH
  001a5	88 45 f9	 mov	 BYTE PTR __k$[ebp+25], al
  001a8	e9 8d 00 00 00	 jmp	 $LN1@LoadBool_e@2
$LN71@LoadBool_e@2:
  001ad	c6 45 f9 ec	 mov	 BYTE PTR __k$[ebp+25], -20 ; ffffffecH
  001b1	e9 84 00 00 00	 jmp	 $LN1@LoadBool_e@2
$LN72@LoadBool_e@2:
  001b6	c6 45 f8 ed	 mov	 BYTE PTR __k$[ebp+24], -19 ; ffffffedH
  001ba	eb 7e		 jmp	 SHORT $LN1@LoadBool_e@2
$LN73@LoadBool_e@2:
  001bc	88 5d f7	 mov	 BYTE PTR __k$[ebp+23], bl
  001bf	eb 79		 jmp	 SHORT $LN1@LoadBool_e@2
$LN74@LoadBool_e@2:
  001c1	88 4d f6	 mov	 BYTE PTR __k$[ebp+22], cl
  001c4	eb 74		 jmp	 SHORT $LN1@LoadBool_e@2
$LN76@LoadBool_e@2:
  001c6	c6 45 f4 ed	 mov	 BYTE PTR __k$[ebp+20], -19 ; ffffffedH
  001ca	eb 6e		 jmp	 SHORT $LN1@LoadBool_e@2
$LN77@LoadBool_e@2:
  001cc	88 5d f3	 mov	 BYTE PTR __k$[ebp+19], bl
  001cf	eb 69		 jmp	 SHORT $LN1@LoadBool_e@2
$LN78@LoadBool_e@2:
  001d1	88 4d f2	 mov	 BYTE PTR __k$[ebp+18], cl
  001d4	eb 64		 jmp	 SHORT $LN1@LoadBool_e@2
$LN79@LoadBool_e@2:
  001d6	c6 45 f1 ec	 mov	 BYTE PTR __k$[ebp+17], -20 ; ffffffecH
  001da	eb 5e		 jmp	 SHORT $LN1@LoadBool_e@2
$LN80@LoadBool_e@2:
  001dc	c6 45 f0 ed	 mov	 BYTE PTR __k$[ebp+16], -19 ; ffffffedH
  001e0	eb 58		 jmp	 SHORT $LN1@LoadBool_e@2
$LN81@LoadBool_e@2:
  001e2	88 5d ef	 mov	 BYTE PTR __k$[ebp+15], bl
  001e5	eb 53		 jmp	 SHORT $LN1@LoadBool_e@2
$LN82@LoadBool_e@2:
  001e7	88 4d ee	 mov	 BYTE PTR __k$[ebp+14], cl
  001ea	eb 4e		 jmp	 SHORT $LN1@LoadBool_e@2
$LN83@LoadBool_e@2:
  001ec	c6 45 ed ec	 mov	 BYTE PTR __k$[ebp+13], -20 ; ffffffecH
  001f0	eb 48		 jmp	 SHORT $LN1@LoadBool_e@2
$LN84@LoadBool_e@2:
  001f2	c6 45 ec ed	 mov	 BYTE PTR __k$[ebp+12], -19 ; ffffffedH
  001f6	eb 42		 jmp	 SHORT $LN1@LoadBool_e@2
$LN85@LoadBool_e@2:
  001f8	88 5d eb	 mov	 BYTE PTR __k$[ebp+11], bl
  001fb	eb 3d		 jmp	 SHORT $LN1@LoadBool_e@2
$LN86@LoadBool_e@2:
  001fd	88 4d ea	 mov	 BYTE PTR __k$[ebp+10], cl
  00200	eb 38		 jmp	 SHORT $LN1@LoadBool_e@2
$LN87@LoadBool_e@2:
  00202	c6 45 e9 ec	 mov	 BYTE PTR __k$[ebp+9], -20 ; ffffffecH
  00206	eb 32		 jmp	 SHORT $LN1@LoadBool_e@2
$LN88@LoadBool_e@2:
  00208	c6 45 e8 ed	 mov	 BYTE PTR __k$[ebp+8], -19 ; ffffffedH
  0020c	eb 2c		 jmp	 SHORT $LN1@LoadBool_e@2
$LN89@LoadBool_e@2:
  0020e	88 5d e7	 mov	 BYTE PTR __k$[ebp+7], bl
  00211	eb 27		 jmp	 SHORT $LN1@LoadBool_e@2
$LN90@LoadBool_e@2:
  00213	88 4d e6	 mov	 BYTE PTR __k$[ebp+6], cl
  00216	eb 22		 jmp	 SHORT $LN1@LoadBool_e@2
$LN91@LoadBool_e@2:
  00218	c6 45 e5 ec	 mov	 BYTE PTR __k$[ebp+5], -20 ; ffffffecH
  0021c	eb 1c		 jmp	 SHORT $LN1@LoadBool_e@2
$LN92@LoadBool_e@2:
  0021e	c6 45 e4 ed	 mov	 BYTE PTR __k$[ebp+4], -19 ; ffffffedH
  00222	eb 16		 jmp	 SHORT $LN1@LoadBool_e@2
$LN93@LoadBool_e@2:
  00224	c6 45 e3 ea	 mov	 BYTE PTR __k$[ebp+3], -22 ; ffffffeaH
  00228	eb 10		 jmp	 SHORT $LN1@LoadBool_e@2
$LN94@LoadBool_e@2:
  0022a	c6 45 e2 eb	 mov	 BYTE PTR __k$[ebp+2], -21 ; ffffffebH
  0022e	eb 0a		 jmp	 SHORT $LN1@LoadBool_e@2
$LN95@LoadBool_e@2:
  00230	c6 45 e1 ec	 mov	 BYTE PTR __k$[ebp+1], -20 ; ffffffecH
  00234	eb 04		 jmp	 SHORT $LN1@LoadBool_e@2
$LN96@LoadBool_e@2:
  00236	c6 45 e0 ed	 mov	 BYTE PTR __k$[ebp], -19	; ffffffedH
$LN1@LoadBool_e@2:
  0023a	6a 05		 push	 5
  0023c	8d 45 e0	 lea	 eax, DWORD PTR __k$[ebp]
  0023f	c6 45 f5 00	 mov	 BYTE PTR __k$[ebp+21], 0
  00243	5a		 pop	 edx
$LL104@LoadBool_e@2:
  00244	81 30 ed ec eb
	ea		 xor	 DWORD PTR [eax], -353637139 ; eaebecedH
  0024a	83 c0 04	 add	 eax, 4
  0024d	4a		 dec	 edx
  0024e	75 f4		 jne	 SHORT $LL104@LoadBool_e@2

; 103  : 		return LoadBool(_k, b);

  00250	ff 75 0c	 push	 DWORD PTR _b$[ebp]
  00253	80 75 f4 ed	 xor	 BYTE PTR __k$[ebp+20], -19 ; ffffffedH
  00257	8d 45 e0	 lea	 eax, DWORD PTR __k$[ebp]
  0025a	50		 push	 eax
  0025b	8b ce		 mov	 ecx, esi
  0025d	ff 15 00 00 00
	00		 call	 DWORD PTR __imp_?LoadBool@ioINILoader@@QAE_NPBD_N@Z

; 104  : 	}

  00263	8b 4d fc	 mov	 ecx, DWORD PTR __$ArrayPad$[ebp]
  00266	5e		 pop	 esi
  00267	33 cd		 xor	 ecx, ebp
  00269	5b		 pop	 ebx
  0026a	e8 00 00 00 00	 call	 @__security_check_cookie@4
  0026f	c9		 leave
  00270	c2 08 00	 ret	 8
??$LoadBool_e@$0BG@@ioINILoader@@QAE_NAAY0BG@$$CBD_N@Z ENDP ; ioINILoader::LoadBool_e<22>
_TEXT	ENDS
PUBLIC	_this$GSCopy$
PUBLIC	__$ArrayPad$
PUBLIC	??$LoadString_e@$0BB@@ioINILoader@@QAEXAAY0BB@$$CBDAAY00$$CBDPADH@Z ; ioINILoader::LoadString_e<17>
EXTRN	__imp_?LoadStringA@ioINILoader@@QAEXPBD0PADH@Z:PROC
; Function compile flags: /Ogsp
;	COMDAT ??$LoadString_e@$0BB@@ioINILoader@@QAEXAAY0BB@$$CBDAAY00$$CBDPADH@Z
_TEXT	SEGMENT
_this$GSCopy$ = -32					; size = 4
__k$ = -28						; size = 17
__$ArrayPad$ = -4					; size = 4
_k$ = 8							; size = 4
_d$ = 12						; size = 4
_b$ = 16						; size = 4
_i$ = 20						; size = 4
??$LoadString_e@$0BB@@ioINILoader@@QAEXAAY0BB@$$CBDAAY00$$CBDPADH@Z PROC ; ioINILoader::LoadString_e<17>, COMDAT
; _this$ = ecx

; 161  : 	{

  00000	55		 push	 ebp
  00001	8b ec		 mov	 ebp, esp
  00003	83 ec 20	 sub	 esp, 32			; 00000020H
  00006	a1 00 00 00 00	 mov	 eax, DWORD PTR ___security_cookie
  0000b	33 c5		 xor	 eax, ebp
  0000d	89 45 fc	 mov	 DWORD PTR __$ArrayPad$[ebp], eax
  00010	8b 45 08	 mov	 eax, DWORD PTR _k$[ebp]

; 162  : 		_ENCSTR(k, _k);

  00013	8a 10		 mov	 dl, BYTE PTR [eax]
  00015	56		 push	 esi
  00016	8b 75 0c	 mov	 esi, DWORD PTR _d$[ebp]
  00019	57		 push	 edi
  0001a	8b 7d 10	 mov	 edi, DWORD PTR _b$[ebp]
  0001d	89 4d e0	 mov	 DWORD PTR _this$GSCopy$[ebp], ecx
  00020	84 d2		 test	 dl, dl
  00022	0f 84 a7 01 00
	00		 je	 $LN96@LoadString
  00028	80 f2 ed	 xor	 dl, -19			; ffffffedH
  0002b	88 55 e4	 mov	 BYTE PTR __k$[ebp], dl
  0002e	8a 50 01	 mov	 dl, BYTE PTR [eax+1]
  00031	84 d2		 test	 dl, dl
  00033	0f 84 90 01 00
	00		 je	 $LN95@LoadString
  00039	b1 ec		 mov	 cl, -20			; ffffffecH
  0003b	32 d1		 xor	 dl, cl
  0003d	88 55 e5	 mov	 BYTE PTR __k$[ebp+1], dl
  00040	8a 50 02	 mov	 dl, BYTE PTR [eax+2]
  00043	84 d2		 test	 dl, dl
  00045	0f 84 78 01 00
	00		 je	 $LN94@LoadString
  0004b	80 f2 eb	 xor	 dl, -21			; ffffffebH
  0004e	88 55 e6	 mov	 BYTE PTR __k$[ebp+2], dl
  00051	8a 50 03	 mov	 dl, BYTE PTR [eax+3]
  00054	84 d2		 test	 dl, dl
  00056	0f 84 61 01 00
	00		 je	 $LN93@LoadString
  0005c	80 f2 ea	 xor	 dl, -22			; ffffffeaH
  0005f	88 55 e7	 mov	 BYTE PTR __k$[ebp+3], dl
  00062	8a 50 04	 mov	 dl, BYTE PTR [eax+4]
  00065	84 d2		 test	 dl, dl
  00067	0f 84 4a 01 00
	00		 je	 $LN92@LoadString
  0006d	80 f2 ed	 xor	 dl, -19			; ffffffedH
  00070	88 55 e8	 mov	 BYTE PTR __k$[ebp+4], dl
  00073	8a 50 05	 mov	 dl, BYTE PTR [eax+5]
  00076	84 d2		 test	 dl, dl
  00078	0f 84 34 01 00
	00		 je	 $LN91@LoadString
  0007e	32 d1		 xor	 dl, cl
  00080	88 55 e9	 mov	 BYTE PTR __k$[ebp+5], dl
  00083	8a 50 06	 mov	 dl, BYTE PTR [eax+6]
  00086	84 d2		 test	 dl, dl
  00088	0f 84 1e 01 00
	00		 je	 $LN90@LoadString
  0008e	80 f2 eb	 xor	 dl, -21			; ffffffebH
  00091	88 55 ea	 mov	 BYTE PTR __k$[ebp+6], dl
  00094	8a 50 07	 mov	 dl, BYTE PTR [eax+7]
  00097	84 d2		 test	 dl, dl
  00099	0f 84 07 01 00
	00		 je	 $LN89@LoadString
  0009f	80 f2 ea	 xor	 dl, -22			; ffffffeaH
  000a2	88 55 eb	 mov	 BYTE PTR __k$[ebp+7], dl
  000a5	8a 50 08	 mov	 dl, BYTE PTR [eax+8]
  000a8	84 d2		 test	 dl, dl
  000aa	0f 84 f0 00 00
	00		 je	 $LN88@LoadString
  000b0	80 f2 ed	 xor	 dl, -19			; ffffffedH
  000b3	88 55 ec	 mov	 BYTE PTR __k$[ebp+8], dl
  000b6	8a 50 09	 mov	 dl, BYTE PTR [eax+9]
  000b9	84 d2		 test	 dl, dl
  000bb	0f 84 da 00 00
	00		 je	 $LN87@LoadString
  000c1	32 d1		 xor	 dl, cl
  000c3	88 55 ed	 mov	 BYTE PTR __k$[ebp+9], dl
  000c6	8a 50 0a	 mov	 dl, BYTE PTR [eax+10]
  000c9	84 d2		 test	 dl, dl
  000cb	0f 84 c4 00 00
	00		 je	 $LN86@LoadString
  000d1	80 f2 eb	 xor	 dl, -21			; ffffffebH
  000d4	88 55 ee	 mov	 BYTE PTR __k$[ebp+10], dl
  000d7	8a 50 0b	 mov	 dl, BYTE PTR [eax+11]
  000da	84 d2		 test	 dl, dl
  000dc	0f 84 ad 00 00
	00		 je	 $LN85@LoadString
  000e2	80 f2 ea	 xor	 dl, -22			; ffffffeaH
  000e5	88 55 ef	 mov	 BYTE PTR __k$[ebp+11], dl
  000e8	8a 50 0c	 mov	 dl, BYTE PTR [eax+12]
  000eb	84 d2		 test	 dl, dl
  000ed	0f 84 96 00 00
	00		 je	 $LN84@LoadString
  000f3	80 f2 ed	 xor	 dl, -19			; ffffffedH
  000f6	88 55 f0	 mov	 BYTE PTR __k$[ebp+12], dl
  000f9	8a 50 0d	 mov	 dl, BYTE PTR [eax+13]
  000fc	84 d2		 test	 dl, dl
  000fe	0f 84 80 00 00
	00		 je	 $LN83@LoadString
  00104	32 d1		 xor	 dl, cl
  00106	88 55 f1	 mov	 BYTE PTR __k$[ebp+13], dl
  00109	8a 50 0e	 mov	 dl, BYTE PTR [eax+14]
  0010c	84 d2		 test	 dl, dl
  0010e	74 6e		 je	 SHORT $LN82@LoadString
  00110	80 f2 eb	 xor	 dl, -21			; ffffffebH
  00113	88 55 f2	 mov	 BYTE PTR __k$[ebp+14], dl
  00116	8a 50 0f	 mov	 dl, BYTE PTR [eax+15]
  00119	84 d2		 test	 dl, dl
  0011b	74 5b		 je	 SHORT $LN81@LoadString
  0011d	80 f2 ea	 xor	 dl, -22			; ffffffeaH
  00120	80 78 10 00	 cmp	 BYTE PTR [eax+16], 0
  00124	88 55 f3	 mov	 BYTE PTR __k$[ebp+15], dl
  00127	0f 84 a6 00 00
	00		 je	 $LN111@LoadString
  0012d	8a 50 11	 mov	 dl, BYTE PTR [eax+17]
  00130	84 d2		 test	 dl, dl
  00132	74 3f		 je	 SHORT $LN79@LoadString
  00134	32 d1		 xor	 dl, cl
  00136	88 55 f5	 mov	 BYTE PTR __k$[ebp+17], dl
  00139	8a 50 12	 mov	 dl, BYTE PTR [eax+18]
  0013c	84 d2		 test	 dl, dl
  0013e	74 2d		 je	 SHORT $LN78@LoadString
  00140	80 f2 eb	 xor	 dl, -21			; ffffffebH
  00143	88 55 f6	 mov	 BYTE PTR __k$[ebp+18], dl
  00146	8a 50 13	 mov	 dl, BYTE PTR [eax+19]
  00149	84 d2		 test	 dl, dl
  0014b	74 1a		 je	 SHORT $LN77@LoadString
  0014d	8a 40 14	 mov	 al, BYTE PTR [eax+20]
  00150	80 f2 ea	 xor	 dl, -22			; ffffffeaH
  00153	88 55 f7	 mov	 BYTE PTR __k$[ebp+19], dl
  00156	84 c0		 test	 al, al
  00158	74 07		 je	 SHORT $LN76@LoadString
  0015a	34 ed		 xor	 al, -19			; ffffffedH
  0015c	88 45 f8	 mov	 BYTE PTR __k$[ebp+20], al
  0015f	eb 72		 jmp	 SHORT $LN111@LoadString
$LN76@LoadString:
  00161	c6 45 f8 ed	 mov	 BYTE PTR __k$[ebp+20], -19 ; ffffffedH
  00165	eb 6c		 jmp	 SHORT $LN111@LoadString
$LN77@LoadString:
  00167	c6 45 f7 ea	 mov	 BYTE PTR __k$[ebp+19], -22 ; ffffffeaH
  0016b	eb 66		 jmp	 SHORT $LN111@LoadString
$LN78@LoadString:
  0016d	c6 45 f6 eb	 mov	 BYTE PTR __k$[ebp+18], -21 ; ffffffebH
  00171	eb 60		 jmp	 SHORT $LN111@LoadString
$LN79@LoadString:
  00173	88 4d f5	 mov	 BYTE PTR __k$[ebp+17], cl
  00176	eb 5b		 jmp	 SHORT $LN111@LoadString
$LN81@LoadString:
  00178	c6 45 f3 ea	 mov	 BYTE PTR __k$[ebp+15], -22 ; ffffffeaH
  0017c	eb 55		 jmp	 SHORT $LN111@LoadString
$LN82@LoadString:
  0017e	c6 45 f2 eb	 mov	 BYTE PTR __k$[ebp+14], -21 ; ffffffebH
  00182	eb 4f		 jmp	 SHORT $LN111@LoadString
$LN83@LoadString:
  00184	88 4d f1	 mov	 BYTE PTR __k$[ebp+13], cl
  00187	eb 4a		 jmp	 SHORT $LN111@LoadString
$LN84@LoadString:
  00189	c6 45 f0 ed	 mov	 BYTE PTR __k$[ebp+12], -19 ; ffffffedH
  0018d	eb 44		 jmp	 SHORT $LN111@LoadString
$LN85@LoadString:
  0018f	c6 45 ef ea	 mov	 BYTE PTR __k$[ebp+11], -22 ; ffffffeaH
  00193	eb 3e		 jmp	 SHORT $LN111@LoadString
$LN86@LoadString:
  00195	c6 45 ee eb	 mov	 BYTE PTR __k$[ebp+10], -21 ; ffffffebH
  00199	eb 38		 jmp	 SHORT $LN111@LoadString
$LN87@LoadString:
  0019b	88 4d ed	 mov	 BYTE PTR __k$[ebp+9], cl
  0019e	eb 33		 jmp	 SHORT $LN111@LoadString
$LN88@LoadString:
  001a0	c6 45 ec ed	 mov	 BYTE PTR __k$[ebp+8], -19 ; ffffffedH
  001a4	eb 2d		 jmp	 SHORT $LN111@LoadString
$LN89@LoadString:
  001a6	c6 45 eb ea	 mov	 BYTE PTR __k$[ebp+7], -22 ; ffffffeaH
  001aa	eb 27		 jmp	 SHORT $LN111@LoadString
$LN90@LoadString:
  001ac	c6 45 ea eb	 mov	 BYTE PTR __k$[ebp+6], -21 ; ffffffebH
  001b0	eb 21		 jmp	 SHORT $LN111@LoadString
$LN91@LoadString:
  001b2	88 4d e9	 mov	 BYTE PTR __k$[ebp+5], cl
  001b5	eb 1c		 jmp	 SHORT $LN111@LoadString
$LN92@LoadString:
  001b7	c6 45 e8 ed	 mov	 BYTE PTR __k$[ebp+4], -19 ; ffffffedH
  001bb	eb 16		 jmp	 SHORT $LN111@LoadString
$LN93@LoadString:
  001bd	c6 45 e7 ea	 mov	 BYTE PTR __k$[ebp+3], -22 ; ffffffeaH
  001c1	eb 10		 jmp	 SHORT $LN111@LoadString
$LN94@LoadString:
  001c3	c6 45 e6 eb	 mov	 BYTE PTR __k$[ebp+2], -21 ; ffffffebH
  001c7	eb 0a		 jmp	 SHORT $LN111@LoadString
$LN95@LoadString:
  001c9	c6 45 e5 ec	 mov	 BYTE PTR __k$[ebp+1], -20 ; ffffffecH
  001cd	eb 04		 jmp	 SHORT $LN111@LoadString
$LN96@LoadString:
  001cf	c6 45 e4 ed	 mov	 BYTE PTR __k$[ebp], -19	; ffffffedH
$LN111@LoadString:
  001d3	6a 04		 push	 4
  001d5	8d 45 e4	 lea	 eax, DWORD PTR __k$[ebp]
  001d8	c6 45 f4 00	 mov	 BYTE PTR __k$[ebp+16], 0
  001dc	5a		 pop	 edx
$LL104@LoadString:
  001dd	81 30 ed ec eb
	ea		 xor	 DWORD PTR [eax], -353637139 ; eaebecedH
  001e3	83 c0 04	 add	 eax, 4
  001e6	4a		 dec	 edx
  001e7	75 f4		 jne	 SHORT $LL104@LoadString

; 163  : 		LoadString(_k, d, b, i);

  001e9	ff 75 14	 push	 DWORD PTR _i$[ebp]
  001ec	8b 4d e0	 mov	 ecx, DWORD PTR _this$GSCopy$[ebp]
  001ef	57		 push	 edi
  001f0	56		 push	 esi
  001f1	8d 45 e4	 lea	 eax, DWORD PTR __k$[ebp]
  001f4	50		 push	 eax
  001f5	ff 15 00 00 00
	00		 call	 DWORD PTR __imp_?LoadStringA@ioINILoader@@QAEXPBD0PADH@Z

; 164  : 	}

  001fb	8b 4d fc	 mov	 ecx, DWORD PTR __$ArrayPad$[ebp]
  001fe	5f		 pop	 edi
  001ff	33 cd		 xor	 ecx, ebp
  00201	5e		 pop	 esi
  00202	e8 00 00 00 00	 call	 @__security_check_cookie@4
  00207	c9		 leave
  00208	c2 10 00	 ret	 16			; 00000010H
??$LoadString_e@$0BB@@ioINILoader@@QAEXAAY0BB@$$CBDAAY00$$CBDPADH@Z ENDP ; ioINILoader::LoadString_e<17>
_TEXT	ENDS
PUBLIC	__$ArrayPad$
PUBLIC	??$LoadFloat_e@$0BA@@ioINILoader@@QAEMAAY0BA@$$CBDM@Z ; ioINILoader::LoadFloat_e<16>
EXTRN	__imp_?LoadFloat@ioINILoader@@QAEMPBDM@Z:PROC
; Function compile flags: /Ogsp
;	COMDAT ??$LoadFloat_e@$0BA@@ioINILoader@@QAEMAAY0BA@$$CBDM@Z
_TEXT	SEGMENT
__k$ = -24						; size = 16
__$ArrayPad$ = -4					; size = 4
_k$ = 8							; size = 4
_f$ = 12						; size = 4
??$LoadFloat_e@$0BA@@ioINILoader@@QAEMAAY0BA@$$CBDM@Z PROC ; ioINILoader::LoadFloat_e<16>, COMDAT
; _this$ = ecx

; 135  : 	{

  00000	55		 push	 ebp
  00001	8b ec		 mov	 ebp, esp
  00003	83 ec 18	 sub	 esp, 24			; 00000018H
  00006	a1 00 00 00 00	 mov	 eax, DWORD PTR ___security_cookie
  0000b	33 c5		 xor	 eax, ebp
  0000d	89 45 fc	 mov	 DWORD PTR __$ArrayPad$[ebp], eax
  00010	8b 45 08	 mov	 eax, DWORD PTR _k$[ebp]

; 136  : 		_ENCSTR(k, _k);

  00013	8a 10		 mov	 dl, BYTE PTR [eax]
  00015	56		 push	 esi
  00016	8b f1		 mov	 esi, ecx
  00018	84 d2		 test	 dl, dl
  0001a	0f 84 8c 01 00
	00		 je	 $LN96@LoadFloat_
  00020	80 f2 ed	 xor	 dl, -19			; ffffffedH
  00023	88 55 e8	 mov	 BYTE PTR __k$[ebp], dl
  00026	8a 50 01	 mov	 dl, BYTE PTR [eax+1]
  00029	84 d2		 test	 dl, dl
  0002b	0f 84 75 01 00
	00		 je	 $LN95@LoadFloat_
  00031	80 f2 ec	 xor	 dl, -20			; ffffffecH
  00034	88 55 e9	 mov	 BYTE PTR __k$[ebp+1], dl
  00037	8a 50 02	 mov	 dl, BYTE PTR [eax+2]
  0003a	84 d2		 test	 dl, dl
  0003c	0f 84 5e 01 00
	00		 je	 $LN94@LoadFloat_
  00042	b1 eb		 mov	 cl, -21			; ffffffebH
  00044	32 d1		 xor	 dl, cl
  00046	88 55 ea	 mov	 BYTE PTR __k$[ebp+2], dl
  00049	8a 50 03	 mov	 dl, BYTE PTR [eax+3]
  0004c	84 d2		 test	 dl, dl
  0004e	0f 84 46 01 00
	00		 je	 $LN93@LoadFloat_
  00054	80 f2 ea	 xor	 dl, -22			; ffffffeaH
  00057	88 55 eb	 mov	 BYTE PTR __k$[ebp+3], dl
  0005a	8a 50 04	 mov	 dl, BYTE PTR [eax+4]
  0005d	84 d2		 test	 dl, dl
  0005f	0f 84 2f 01 00
	00		 je	 $LN92@LoadFloat_
  00065	80 f2 ed	 xor	 dl, -19			; ffffffedH
  00068	88 55 ec	 mov	 BYTE PTR __k$[ebp+4], dl
  0006b	8a 50 05	 mov	 dl, BYTE PTR [eax+5]
  0006e	84 d2		 test	 dl, dl
  00070	0f 84 18 01 00
	00		 je	 $LN91@LoadFloat_
  00076	80 f2 ec	 xor	 dl, -20			; ffffffecH
  00079	88 55 ed	 mov	 BYTE PTR __k$[ebp+5], dl
  0007c	8a 50 06	 mov	 dl, BYTE PTR [eax+6]
  0007f	84 d2		 test	 dl, dl
  00081	0f 84 02 01 00
	00		 je	 $LN90@LoadFloat_
  00087	32 d1		 xor	 dl, cl
  00089	88 55 ee	 mov	 BYTE PTR __k$[ebp+6], dl
  0008c	8a 50 07	 mov	 dl, BYTE PTR [eax+7]
  0008f	84 d2		 test	 dl, dl
  00091	0f 84 ec 00 00
	00		 je	 $LN89@LoadFloat_
  00097	80 f2 ea	 xor	 dl, -22			; ffffffeaH
  0009a	88 55 ef	 mov	 BYTE PTR __k$[ebp+7], dl
  0009d	8a 50 08	 mov	 dl, BYTE PTR [eax+8]
  000a0	84 d2		 test	 dl, dl
  000a2	0f 84 d5 00 00
	00		 je	 $LN88@LoadFloat_
  000a8	80 f2 ed	 xor	 dl, -19			; ffffffedH
  000ab	88 55 f0	 mov	 BYTE PTR __k$[ebp+8], dl
  000ae	8a 50 09	 mov	 dl, BYTE PTR [eax+9]
  000b1	84 d2		 test	 dl, dl
  000b3	0f 84 be 00 00
	00		 je	 $LN87@LoadFloat_
  000b9	80 f2 ec	 xor	 dl, -20			; ffffffecH
  000bc	88 55 f1	 mov	 BYTE PTR __k$[ebp+9], dl
  000bf	8a 50 0a	 mov	 dl, BYTE PTR [eax+10]
  000c2	84 d2		 test	 dl, dl
  000c4	0f 84 a8 00 00
	00		 je	 $LN86@LoadFloat_
  000ca	32 d1		 xor	 dl, cl
  000cc	88 55 f2	 mov	 BYTE PTR __k$[ebp+10], dl
  000cf	8a 50 0b	 mov	 dl, BYTE PTR [eax+11]
  000d2	84 d2		 test	 dl, dl
  000d4	0f 84 92 00 00
	00		 je	 $LN85@LoadFloat_
  000da	80 f2 ea	 xor	 dl, -22			; ffffffeaH
  000dd	88 55 f3	 mov	 BYTE PTR __k$[ebp+11], dl
  000e0	8a 50 0c	 mov	 dl, BYTE PTR [eax+12]
  000e3	84 d2		 test	 dl, dl
  000e5	74 7f		 je	 SHORT $LN84@LoadFloat_
  000e7	80 f2 ed	 xor	 dl, -19			; ffffffedH
  000ea	88 55 f4	 mov	 BYTE PTR __k$[ebp+12], dl
  000ed	8a 50 0d	 mov	 dl, BYTE PTR [eax+13]
  000f0	84 d2		 test	 dl, dl
  000f2	74 6c		 je	 SHORT $LN83@LoadFloat_
  000f4	80 f2 ec	 xor	 dl, -20			; ffffffecH
  000f7	88 55 f5	 mov	 BYTE PTR __k$[ebp+13], dl
  000fa	8a 50 0e	 mov	 dl, BYTE PTR [eax+14]
  000fd	84 d2		 test	 dl, dl
  000ff	74 5a		 je	 SHORT $LN82@LoadFloat_
  00101	32 d1		 xor	 dl, cl
  00103	80 78 0f 00	 cmp	 BYTE PTR [eax+15], 0
  00107	88 55 f6	 mov	 BYTE PTR __k$[ebp+14], dl
  0010a	0f 84 a0 00 00
	00		 je	 $LN1@LoadFloat_
  00110	8a 50 10	 mov	 dl, BYTE PTR [eax+16]
  00113	84 d2		 test	 dl, dl
  00115	74 3e		 je	 SHORT $LN80@LoadFloat_
  00117	80 f2 ed	 xor	 dl, -19			; ffffffedH
  0011a	88 55 f8	 mov	 BYTE PTR __k$[ebp+16], dl
  0011d	8a 50 11	 mov	 dl, BYTE PTR [eax+17]
  00120	84 d2		 test	 dl, dl
  00122	74 2b		 je	 SHORT $LN79@LoadFloat_
  00124	80 f2 ec	 xor	 dl, -20			; ffffffecH
  00127	88 55 f9	 mov	 BYTE PTR __k$[ebp+17], dl
  0012a	8a 50 12	 mov	 dl, BYTE PTR [eax+18]
  0012d	84 d2		 test	 dl, dl
  0012f	74 19		 je	 SHORT $LN78@LoadFloat_
  00131	8a 40 13	 mov	 al, BYTE PTR [eax+19]
  00134	32 d1		 xor	 dl, cl
  00136	88 55 fa	 mov	 BYTE PTR __k$[ebp+18], dl
  00139	84 c0		 test	 al, al
  0013b	74 07		 je	 SHORT $LN77@LoadFloat_
  0013d	34 ea		 xor	 al, -22			; ffffffeaH
  0013f	88 45 fb	 mov	 BYTE PTR __k$[ebp+19], al
  00142	eb 6c		 jmp	 SHORT $LN1@LoadFloat_
$LN77@LoadFloat_:
  00144	c6 45 fb ea	 mov	 BYTE PTR __k$[ebp+19], -22 ; ffffffeaH
  00148	eb 66		 jmp	 SHORT $LN1@LoadFloat_
$LN78@LoadFloat_:
  0014a	88 4d fa	 mov	 BYTE PTR __k$[ebp+18], cl
  0014d	eb 61		 jmp	 SHORT $LN1@LoadFloat_
$LN79@LoadFloat_:
  0014f	c6 45 f9 ec	 mov	 BYTE PTR __k$[ebp+17], -20 ; ffffffecH
  00153	eb 5b		 jmp	 SHORT $LN1@LoadFloat_
$LN80@LoadFloat_:
  00155	c6 45 f8 ed	 mov	 BYTE PTR __k$[ebp+16], -19 ; ffffffedH
  00159	eb 55		 jmp	 SHORT $LN1@LoadFloat_
$LN82@LoadFloat_:
  0015b	88 4d f6	 mov	 BYTE PTR __k$[ebp+14], cl
  0015e	eb 50		 jmp	 SHORT $LN1@LoadFloat_
$LN83@LoadFloat_:
  00160	c6 45 f5 ec	 mov	 BYTE PTR __k$[ebp+13], -20 ; ffffffecH
  00164	eb 4a		 jmp	 SHORT $LN1@LoadFloat_
$LN84@LoadFloat_:
  00166	c6 45 f4 ed	 mov	 BYTE PTR __k$[ebp+12], -19 ; ffffffedH
  0016a	eb 44		 jmp	 SHORT $LN1@LoadFloat_
$LN85@LoadFloat_:
  0016c	c6 45 f3 ea	 mov	 BYTE PTR __k$[ebp+11], -22 ; ffffffeaH
  00170	eb 3e		 jmp	 SHORT $LN1@LoadFloat_
$LN86@LoadFloat_:
  00172	88 4d f2	 mov	 BYTE PTR __k$[ebp+10], cl
  00175	eb 39		 jmp	 SHORT $LN1@LoadFloat_
$LN87@LoadFloat_:
  00177	c6 45 f1 ec	 mov	 BYTE PTR __k$[ebp+9], -20 ; ffffffecH
  0017b	eb 33		 jmp	 SHORT $LN1@LoadFloat_
$LN88@LoadFloat_:
  0017d	c6 45 f0 ed	 mov	 BYTE PTR __k$[ebp+8], -19 ; ffffffedH
  00181	eb 2d		 jmp	 SHORT $LN1@LoadFloat_
$LN89@LoadFloat_:
  00183	c6 45 ef ea	 mov	 BYTE PTR __k$[ebp+7], -22 ; ffffffeaH
  00187	eb 27		 jmp	 SHORT $LN1@LoadFloat_
$LN90@LoadFloat_:
  00189	88 4d ee	 mov	 BYTE PTR __k$[ebp+6], cl
  0018c	eb 22		 jmp	 SHORT $LN1@LoadFloat_
$LN91@LoadFloat_:
  0018e	c6 45 ed ec	 mov	 BYTE PTR __k$[ebp+5], -20 ; ffffffecH
  00192	eb 1c		 jmp	 SHORT $LN1@LoadFloat_
$LN92@LoadFloat_:
  00194	c6 45 ec ed	 mov	 BYTE PTR __k$[ebp+4], -19 ; ffffffedH
  00198	eb 16		 jmp	 SHORT $LN1@LoadFloat_
$LN93@LoadFloat_:
  0019a	c6 45 eb ea	 mov	 BYTE PTR __k$[ebp+3], -22 ; ffffffeaH
  0019e	eb 10		 jmp	 SHORT $LN1@LoadFloat_
$LN94@LoadFloat_:
  001a0	c6 45 ea eb	 mov	 BYTE PTR __k$[ebp+2], -21 ; ffffffebH
  001a4	eb 0a		 jmp	 SHORT $LN1@LoadFloat_
$LN95@LoadFloat_:
  001a6	c6 45 e9 ec	 mov	 BYTE PTR __k$[ebp+1], -20 ; ffffffecH
  001aa	eb 04		 jmp	 SHORT $LN1@LoadFloat_
$LN96@LoadFloat_:
  001ac	c6 45 e8 ed	 mov	 BYTE PTR __k$[ebp], -19	; ffffffedH
$LN1@LoadFloat_:
  001b0	6a 03		 push	 3
  001b2	8d 45 e8	 lea	 eax, DWORD PTR __k$[ebp]
  001b5	c6 45 f7 00	 mov	 BYTE PTR __k$[ebp+15], 0
  001b9	5a		 pop	 edx
$LL104@LoadFloat_:
  001ba	81 30 ed ec eb
	ea		 xor	 DWORD PTR [eax], -353637139 ; eaebecedH
  001c0	83 c0 04	 add	 eax, 4
  001c3	4a		 dec	 edx
  001c4	75 f4		 jne	 SHORT $LL104@LoadFloat_
  001c6	6a 0c		 push	 12			; 0000000cH
  001c8	58		 pop	 eax
$LL101@LoadFloat_:
  001c9	8b c8		 mov	 ecx, eax
  001cb	81 e1 03 00 00
	80		 and	 ecx, -2147483645	; 80000003H
  001d1	79 05		 jns	 SHORT $LN111@LoadFloat_
  001d3	49		 dec	 ecx
  001d4	83 c9 fc	 or	 ecx, -4			; fffffffcH
  001d7	41		 inc	 ecx
$LN111@LoadFloat_:
  001d8	b2 ed		 mov	 dl, -19			; ffffffedH
  001da	2a d1		 sub	 dl, cl
  001dc	30 54 05 e8	 xor	 BYTE PTR __k$[ebp+eax], dl
  001e0	40		 inc	 eax
  001e1	83 f8 0f	 cmp	 eax, 15			; 0000000fH
  001e4	7c e3		 jl	 SHORT $LL101@LoadFloat_

; 137  : 		return LoadFloat(_k, f);

  001e6	f3 0f 10 45 0c	 movss	 xmm0, DWORD PTR _f$[ebp]
  001eb	51		 push	 ecx
  001ec	8d 45 e8	 lea	 eax, DWORD PTR __k$[ebp]
  001ef	f3 0f 11 04 24	 movss	 DWORD PTR [esp], xmm0
  001f4	50		 push	 eax
  001f5	8b ce		 mov	 ecx, esi
  001f7	ff 15 00 00 00
	00		 call	 DWORD PTR __imp_?LoadFloat@ioINILoader@@QAEMPBDM@Z

; 138  : 	}

  001fd	8b 4d fc	 mov	 ecx, DWORD PTR __$ArrayPad$[ebp]
  00200	33 cd		 xor	 ecx, ebp
  00202	5e		 pop	 esi
  00203	e8 00 00 00 00	 call	 @__security_check_cookie@4
  00208	c9		 leave
  00209	c2 08 00	 ret	 8
??$LoadFloat_e@$0BA@@ioINILoader@@QAEMAAY0BA@$$CBDM@Z ENDP ; ioINILoader::LoadFloat_e<16>
_TEXT	ENDS
PUBLIC	??$GetAnimationEventTime_e@$06@ioEntityGroup@@QAEMHAAY06$$CBD@Z ; ioEntityGroup::GetAnimationEventTime_e<7>
EXTRN	__imp_?GetAnimationEventTime@ioEntityGroup@@QAEMHABVioHashString@@@Z:PROC
EXTRN	__imp_??0ioHashString@@QAE@PBD@Z:PROC
;	COMDAT xdata$x
; File d:\lost saga for developer\youtube\tutorial\source\src\lsclient\stringprotect.h
xdata$x	SEGMENT
__unwindtable$??$GetAnimationEventTime_e@$06@ioEntityGroup@@QAEMHAAY06$$CBD@Z DD 0ffffffffH
	DD	FLAT:__unwindfunclet$??$GetAnimationEventTime_e@$06@ioEntityGroup@@QAEMHAAY06$$CBD@Z$0
__ehfuncinfo$??$GetAnimationEventTime_e@$06@ioEntityGroup@@QAEMHAAY06$$CBD@Z DD 019930522H
	DD	01H
	DD	FLAT:__unwindtable$??$GetAnimationEventTime_e@$06@ioEntityGroup@@QAEMHAAY06$$CBD@Z
	DD	2 DUP(00H)
	DD	2 DUP(00H)
	DD	00H
	DD	01H
; Function compile flags: /Ogsp
; File d:\lost saga for developer\youtube\tutorial\source\src\io3dengine\ioentitygroup.h
xdata$x	ENDS
;	COMDAT ??$GetAnimationEventTime_e@$06@ioEntityGroup@@QAEMHAAY06$$CBD@Z
_TEXT	SEGMENT
$T534184 = -48						; size = 16
$T534183 = -32						; size = 4
_szEncEventType$ = -28					; size = 7
__$EHRec$ = -12						; size = 12
_id$ = 8						; size = 4
_szEventType$ = 12					; size = 4
??$GetAnimationEventTime_e@$06@ioEntityGroup@@QAEMHAAY06$$CBD@Z PROC ; ioEntityGroup::GetAnimationEventTime_e<7>, COMDAT
; _this$ = ecx

; 414  : 	{

  00000	6a 24		 push	 36			; 00000024H
  00002	b8 00 00 00 00	 mov	 eax, __ehhandler$??$GetAnimationEventTime_e@$06@ioEntityGroup@@QAEMHAAY06$$CBD@Z
  00007	e8 00 00 00 00	 call	 __EH_prolog3_GS
  0000c	8b 45 0c	 mov	 eax, DWORD PTR _szEventType$[ebp]
  0000f	8b f1		 mov	 esi, ecx

; 415  : 		_ENCSTR(szEventType, szEncEventType);

  00011	8a 08		 mov	 cl, BYTE PTR [eax]
  00013	84 c9		 test	 cl, cl
  00015	0f 84 c0 00 00
	00		 je	 $LN96@GetAnimati
  0001b	80 f1 ed	 xor	 cl, -19			; ffffffedH
  0001e	88 4d e4	 mov	 BYTE PTR _szEncEventType$[ebp], cl
  00021	8a 48 01	 mov	 cl, BYTE PTR [eax+1]
  00024	84 c9		 test	 cl, cl
  00026	0f 84 a9 00 00
	00		 je	 $LN95@GetAnimati
  0002c	80 f1 ec	 xor	 cl, -20			; ffffffecH
  0002f	88 4d e5	 mov	 BYTE PTR _szEncEventType$[ebp+1], cl
  00032	8a 48 02	 mov	 cl, BYTE PTR [eax+2]
  00035	84 c9		 test	 cl, cl
  00037	0f 84 92 00 00
	00		 je	 $LN94@GetAnimati
  0003d	80 f1 eb	 xor	 cl, -21			; ffffffebH
  00040	88 4d e6	 mov	 BYTE PTR _szEncEventType$[ebp+2], cl
  00043	8a 48 03	 mov	 cl, BYTE PTR [eax+3]
  00046	84 c9		 test	 cl, cl
  00048	74 7f		 je	 SHORT $LN93@GetAnimati
  0004a	80 f1 ea	 xor	 cl, -22			; ffffffeaH
  0004d	88 4d e7	 mov	 BYTE PTR _szEncEventType$[ebp+3], cl
  00050	8a 48 04	 mov	 cl, BYTE PTR [eax+4]
  00053	84 c9		 test	 cl, cl
  00055	74 6c		 je	 SHORT $LN92@GetAnimati
  00057	80 f1 ed	 xor	 cl, -19			; ffffffedH
  0005a	88 4d e8	 mov	 BYTE PTR _szEncEventType$[ebp+4], cl
  0005d	8a 48 05	 mov	 cl, BYTE PTR [eax+5]
  00060	84 c9		 test	 cl, cl
  00062	74 59		 je	 SHORT $LN91@GetAnimati
  00064	80 f1 ec	 xor	 cl, -20			; ffffffecH
  00067	80 78 06 00	 cmp	 BYTE PTR [eax+6], 0
  0006b	88 4d e9	 mov	 BYTE PTR _szEncEventType$[ebp+5], cl
  0006e	74 6f		 je	 SHORT $LN1@GetAnimati
  00070	8a 48 07	 mov	 cl, BYTE PTR [eax+7]
  00073	84 c9		 test	 cl, cl
  00075	74 40		 je	 SHORT $LN89@GetAnimati
  00077	80 f1 ea	 xor	 cl, -22			; ffffffeaH
  0007a	88 4d eb	 mov	 BYTE PTR _szEncEventType$[ebp+7], cl
  0007d	8a 48 08	 mov	 cl, BYTE PTR [eax+8]
  00080	84 c9		 test	 cl, cl
  00082	74 2d		 je	 SHORT $LN88@GetAnimati
  00084	80 f1 ed	 xor	 cl, -19			; ffffffedH
  00087	88 4d ec	 mov	 BYTE PTR _szEncEventType$[ebp+8], cl
  0008a	8a 48 09	 mov	 cl, BYTE PTR [eax+9]
  0008d	84 c9		 test	 cl, cl
  0008f	74 1a		 je	 SHORT $LN87@GetAnimati
  00091	8a 40 0a	 mov	 al, BYTE PTR [eax+10]
  00094	80 f1 ec	 xor	 cl, -20			; ffffffecH
  00097	88 4d ed	 mov	 BYTE PTR _szEncEventType$[ebp+9], cl
  0009a	84 c0		 test	 al, al
  0009c	74 07		 je	 SHORT $LN86@GetAnimati
  0009e	34 eb		 xor	 al, -21			; ffffffebH
  000a0	88 45 ee	 mov	 BYTE PTR _szEncEventType$[ebp+10], al
  000a3	eb 3a		 jmp	 SHORT $LN1@GetAnimati
$LN86@GetAnimati:
  000a5	c6 45 ee eb	 mov	 BYTE PTR _szEncEventType$[ebp+10], -21 ; ffffffebH
  000a9	eb 34		 jmp	 SHORT $LN1@GetAnimati
$LN87@GetAnimati:
  000ab	c6 45 ed ec	 mov	 BYTE PTR _szEncEventType$[ebp+9], -20 ; ffffffecH
  000af	eb 2e		 jmp	 SHORT $LN1@GetAnimati
$LN88@GetAnimati:
  000b1	c6 45 ec ed	 mov	 BYTE PTR _szEncEventType$[ebp+8], -19 ; ffffffedH
  000b5	eb 28		 jmp	 SHORT $LN1@GetAnimati
$LN89@GetAnimati:
  000b7	c6 45 eb ea	 mov	 BYTE PTR _szEncEventType$[ebp+7], -22 ; ffffffeaH
  000bb	eb 22		 jmp	 SHORT $LN1@GetAnimati
$LN91@GetAnimati:
  000bd	c6 45 e9 ec	 mov	 BYTE PTR _szEncEventType$[ebp+5], -20 ; ffffffecH
  000c1	eb 1c		 jmp	 SHORT $LN1@GetAnimati
$LN92@GetAnimati:
  000c3	c6 45 e8 ed	 mov	 BYTE PTR _szEncEventType$[ebp+4], -19 ; ffffffedH
  000c7	eb 16		 jmp	 SHORT $LN1@GetAnimati
$LN93@GetAnimati:
  000c9	c6 45 e7 ea	 mov	 BYTE PTR _szEncEventType$[ebp+3], -22 ; ffffffeaH
  000cd	eb 10		 jmp	 SHORT $LN1@GetAnimati
$LN94@GetAnimati:
  000cf	c6 45 e6 eb	 mov	 BYTE PTR _szEncEventType$[ebp+2], -21 ; ffffffebH
  000d3	eb 0a		 jmp	 SHORT $LN1@GetAnimati
$LN95@GetAnimati:
  000d5	c6 45 e5 ec	 mov	 BYTE PTR _szEncEventType$[ebp+1], -20 ; ffffffecH
  000d9	eb 04		 jmp	 SHORT $LN1@GetAnimati
$LN96@GetAnimati:
  000db	c6 45 e4 ed	 mov	 BYTE PTR _szEncEventType$[ebp], -19 ; ffffffedH
$LN1@GetAnimati:
  000df	81 75 e4 ed ec
	eb ea		 xor	 DWORD PTR _szEncEventType$[ebp], -353637139 ; eaebecedH
  000e6	6a 04		 push	 4
  000e8	c6 45 ea 00	 mov	 BYTE PTR _szEncEventType$[ebp+6], 0
  000ec	58		 pop	 eax
$LL102@GetAnimati:
  000ed	8b c8		 mov	 ecx, eax
  000ef	81 e1 03 00 00
	80		 and	 ecx, -2147483645	; 80000003H
  000f5	79 05		 jns	 SHORT $LN113@GetAnimati
  000f7	49		 dec	 ecx
  000f8	83 c9 fc	 or	 ecx, -4			; fffffffcH
  000fb	41		 inc	 ecx
$LN113@GetAnimati:
  000fc	b2 ed		 mov	 dl, -19			; ffffffedH
  000fe	2a d1		 sub	 dl, cl
  00100	30 54 05 e4	 xor	 BYTE PTR _szEncEventType$[ebp+eax], dl
  00104	40		 inc	 eax
  00105	83 f8 06	 cmp	 eax, 6
  00108	7c e3		 jl	 SHORT $LL102@GetAnimati

; 416  : 		return GetAnimationEventTime(id, szEncEventType);

  0010a	8d 45 e4	 lea	 eax, DWORD PTR _szEncEventType$[ebp]
  0010d	50		 push	 eax
  0010e	8d 4d d0	 lea	 ecx, DWORD PTR $T534184[ebp]
  00111	ff 15 00 00 00
	00		 call	 DWORD PTR __imp_??0ioHashString@@QAE@PBD@Z
  00117	83 65 fc 00	 and	 DWORD PTR __$EHRec$[ebp+8], 0
  0011b	8d 45 d0	 lea	 eax, DWORD PTR $T534184[ebp]
  0011e	50		 push	 eax
  0011f	ff 75 08	 push	 DWORD PTR _id$[ebp]
  00122	8b ce		 mov	 ecx, esi
  00124	ff 15 00 00 00
	00		 call	 DWORD PTR __imp_?GetAnimationEventTime@ioEntityGroup@@QAEMHABVioHashString@@@Z
  0012a	d9 5d e0	 fstp	 DWORD PTR $T534183[ebp]
  0012d	83 4d fc ff	 or	 DWORD PTR __$EHRec$[ebp+8], -1
  00131	8d 4d d0	 lea	 ecx, DWORD PTR $T534184[ebp]
  00134	ff 15 00 00 00
	00		 call	 DWORD PTR __imp_??1ioHashString@@QAE@XZ
  0013a	d9 45 e0	 fld	 DWORD PTR $T534183[ebp]

; 417  : 	}

  0013d	e8 00 00 00 00	 call	 __EH_epilog3_GS
  00142	c2 08 00	 ret	 8
_TEXT	ENDS
;	COMDAT text$x
text$x	SEGMENT
__unwindfunclet$??$GetAnimationEventTime_e@$06@ioEntityGroup@@QAEMHAAY06$$CBD@Z$0:
  00000	8d 4d d0	 lea	 ecx, DWORD PTR $T534184[ebp]
  00003	ff 25 00 00 00
	00		 jmp	 DWORD PTR __imp_??1ioHashString@@QAE@XZ
__ehhandler$??$GetAnimationEventTime_e@$06@ioEntityGroup@@QAEMHAAY06$$CBD@Z:
  00009	8b 54 24 08	 mov	 edx, DWORD PTR [esp+8]
  0000d	8d 42 0c	 lea	 eax, DWORD PTR [edx+12]
  00010	8b 4a cc	 mov	 ecx, DWORD PTR [edx-52]
  00013	33 c8		 xor	 ecx, eax
  00015	e8 00 00 00 00	 call	 @__security_check_cookie@4
  0001a	8b 4a fc	 mov	 ecx, DWORD PTR [edx-4]
  0001d	33 c8		 xor	 ecx, eax
  0001f	e8 00 00 00 00	 call	 @__security_check_cookie@4
  00024	b8 00 00 00 00	 mov	 eax, OFFSET __ehfuncinfo$??$GetAnimationEventTime_e@$06@ioEntityGroup@@QAEMHAAY06$$CBD@Z
  00029	e9 00 00 00 00	 jmp	 ___CxxFrameHandler3
text$x	ENDS
??$GetAnimationEventTime_e@$06@ioEntityGroup@@QAEMHAAY06$$CBD@Z ENDP ; ioEntityGroup::GetAnimationEventTime_e<7>
PUBLIC	??$GetAnimationEventTime_e@$0N@@ioEntityGroup@@QAEMHAAY0N@$$CBD@Z ; ioEntityGroup::GetAnimationEventTime_e<13>
;	COMDAT xdata$x
; File d:\lost saga for developer\youtube\tutorial\source\src\lsclient\stringprotect.h
xdata$x	SEGMENT
__unwindtable$??$GetAnimationEventTime_e@$0N@@ioEntityGroup@@QAEMHAAY0N@$$CBD@Z DD 0ffffffffH
	DD	FLAT:__unwindfunclet$??$GetAnimationEventTime_e@$0N@@ioEntityGroup@@QAEMHAAY0N@$$CBD@Z$0
__ehfuncinfo$??$GetAnimationEventTime_e@$0N@@ioEntityGroup@@QAEMHAAY0N@$$CBD@Z DD 019930522H
	DD	01H
	DD	FLAT:__unwindtable$??$GetAnimationEventTime_e@$0N@@ioEntityGroup@@QAEMHAAY0N@$$CBD@Z
	DD	2 DUP(00H)
	DD	2 DUP(00H)
	DD	00H
	DD	01H
; Function compile flags: /Ogsp
; File d:\lost saga for developer\youtube\tutorial\source\src\io3dengine\ioentitygroup.h
xdata$x	ENDS
;	COMDAT ??$GetAnimationEventTime_e@$0N@@ioEntityGroup@@QAEMHAAY0N@$$CBD@Z
_TEXT	SEGMENT
$T534215 = -56						; size = 16
$T534214 = -40						; size = 4
_szEncEventType$ = -36					; size = 13
__$EHRec$ = -12						; size = 12
_id$ = 8						; size = 4
_szEventType$ = 12					; size = 4
??$GetAnimationEventTime_e@$0N@@ioEntityGroup@@QAEMHAAY0N@$$CBD@Z PROC ; ioEntityGroup::GetAnimationEventTime_e<13>, COMDAT
; _this$ = ecx

; 414  : 	{

  00000	6a 2c		 push	 44			; 0000002cH
  00002	b8 00 00 00 00	 mov	 eax, __ehhandler$??$GetAnimationEventTime_e@$0N@@ioEntityGroup@@QAEMHAAY0N@$$CBD@Z
  00007	e8 00 00 00 00	 call	 __EH_prolog3_GS
  0000c	8b 45 0c	 mov	 eax, DWORD PTR _szEventType$[ebp]
  0000f	8b f1		 mov	 esi, ecx

; 415  : 		_ENCSTR(szEventType, szEncEventType);

  00011	8a 08		 mov	 cl, BYTE PTR [eax]
  00013	84 c9		 test	 cl, cl
  00015	0f 84 49 01 00
	00		 je	 $LN96@GetAnimati@2
  0001b	80 f1 ed	 xor	 cl, -19			; ffffffedH
  0001e	88 4d dc	 mov	 BYTE PTR _szEncEventType$[ebp], cl
  00021	8a 48 01	 mov	 cl, BYTE PTR [eax+1]
  00024	84 c9		 test	 cl, cl
  00026	0f 84 32 01 00
	00		 je	 $LN95@GetAnimati@2
  0002c	80 f1 ec	 xor	 cl, -20			; ffffffecH
  0002f	88 4d dd	 mov	 BYTE PTR _szEncEventType$[ebp+1], cl
  00032	8a 48 02	 mov	 cl, BYTE PTR [eax+2]
  00035	84 c9		 test	 cl, cl
  00037	0f 84 1b 01 00
	00		 je	 $LN94@GetAnimati@2
  0003d	b2 eb		 mov	 dl, -21			; ffffffebH
  0003f	32 ca		 xor	 cl, dl
  00041	88 4d de	 mov	 BYTE PTR _szEncEventType$[ebp+2], cl
  00044	8a 48 03	 mov	 cl, BYTE PTR [eax+3]
  00047	84 c9		 test	 cl, cl
  00049	0f 84 03 01 00
	00		 je	 $LN93@GetAnimati@2
  0004f	80 f1 ea	 xor	 cl, -22			; ffffffeaH
  00052	88 4d df	 mov	 BYTE PTR _szEncEventType$[ebp+3], cl
  00055	8a 48 04	 mov	 cl, BYTE PTR [eax+4]
  00058	84 c9		 test	 cl, cl
  0005a	0f 84 ec 00 00
	00		 je	 $LN92@GetAnimati@2
  00060	80 f1 ed	 xor	 cl, -19			; ffffffedH
  00063	88 4d e0	 mov	 BYTE PTR _szEncEventType$[ebp+4], cl
  00066	8a 48 05	 mov	 cl, BYTE PTR [eax+5]
  00069	84 c9		 test	 cl, cl
  0006b	0f 84 d5 00 00
	00		 je	 $LN91@GetAnimati@2
  00071	80 f1 ec	 xor	 cl, -20			; ffffffecH
  00074	88 4d e1	 mov	 BYTE PTR _szEncEventType$[ebp+5], cl
  00077	8a 48 06	 mov	 cl, BYTE PTR [eax+6]
  0007a	84 c9		 test	 cl, cl
  0007c	0f 84 bf 00 00
	00		 je	 $LN90@GetAnimati@2
  00082	32 ca		 xor	 cl, dl
  00084	88 4d e2	 mov	 BYTE PTR _szEncEventType$[ebp+6], cl
  00087	8a 48 07	 mov	 cl, BYTE PTR [eax+7]
  0008a	84 c9		 test	 cl, cl
  0008c	0f 84 a9 00 00
	00		 je	 $LN89@GetAnimati@2
  00092	80 f1 ea	 xor	 cl, -22			; ffffffeaH
  00095	88 4d e3	 mov	 BYTE PTR _szEncEventType$[ebp+7], cl
  00098	8a 48 08	 mov	 cl, BYTE PTR [eax+8]
  0009b	84 c9		 test	 cl, cl
  0009d	0f 84 92 00 00
	00		 je	 $LN88@GetAnimati@2
  000a3	80 f1 ed	 xor	 cl, -19			; ffffffedH
  000a6	88 4d e4	 mov	 BYTE PTR _szEncEventType$[ebp+8], cl
  000a9	8a 48 09	 mov	 cl, BYTE PTR [eax+9]
  000ac	84 c9		 test	 cl, cl
  000ae	74 7f		 je	 SHORT $LN87@GetAnimati@2
  000b0	80 f1 ec	 xor	 cl, -20			; ffffffecH
  000b3	88 4d e5	 mov	 BYTE PTR _szEncEventType$[ebp+9], cl
  000b6	8a 48 0a	 mov	 cl, BYTE PTR [eax+10]
  000b9	84 c9		 test	 cl, cl
  000bb	74 6d		 je	 SHORT $LN86@GetAnimati@2
  000bd	32 ca		 xor	 cl, dl
  000bf	88 4d e6	 mov	 BYTE PTR _szEncEventType$[ebp+10], cl
  000c2	8a 48 0b	 mov	 cl, BYTE PTR [eax+11]
  000c5	84 c9		 test	 cl, cl
  000c7	74 5b		 je	 SHORT $LN85@GetAnimati@2
  000c9	80 f1 ea	 xor	 cl, -22			; ffffffeaH
  000cc	80 78 0c 00	 cmp	 BYTE PTR [eax+12], 0
  000d0	88 4d e7	 mov	 BYTE PTR _szEncEventType$[ebp+11], cl
  000d3	0f 84 8f 00 00
	00		 je	 $LN1@GetAnimati@2
  000d9	8a 48 0d	 mov	 cl, BYTE PTR [eax+13]
  000dc	84 c9		 test	 cl, cl
  000de	74 3e		 je	 SHORT $LN83@GetAnimati@2
  000e0	80 f1 ec	 xor	 cl, -20			; ffffffecH
  000e3	88 4d e9	 mov	 BYTE PTR _szEncEventType$[ebp+13], cl
  000e6	8a 48 0e	 mov	 cl, BYTE PTR [eax+14]
  000e9	84 c9		 test	 cl, cl
  000eb	74 2c		 je	 SHORT $LN82@GetAnimati@2
  000ed	32 ca		 xor	 cl, dl
  000ef	88 4d ea	 mov	 BYTE PTR _szEncEventType$[ebp+14], cl
  000f2	8a 48 0f	 mov	 cl, BYTE PTR [eax+15]
  000f5	84 c9		 test	 cl, cl
  000f7	74 1a		 je	 SHORT $LN81@GetAnimati@2
  000f9	8a 40 10	 mov	 al, BYTE PTR [eax+16]
  000fc	80 f1 ea	 xor	 cl, -22			; ffffffeaH
  000ff	88 4d eb	 mov	 BYTE PTR _szEncEventType$[ebp+15], cl
  00102	84 c0		 test	 al, al
  00104	74 07		 je	 SHORT $LN80@GetAnimati@2
  00106	34 ed		 xor	 al, -19			; ffffffedH
  00108	88 45 ec	 mov	 BYTE PTR _szEncEventType$[ebp+16], al
  0010b	eb 5b		 jmp	 SHORT $LN1@GetAnimati@2
$LN80@GetAnimati@2:
  0010d	c6 45 ec ed	 mov	 BYTE PTR _szEncEventType$[ebp+16], -19 ; ffffffedH
  00111	eb 55		 jmp	 SHORT $LN1@GetAnimati@2
$LN81@GetAnimati@2:
  00113	c6 45 eb ea	 mov	 BYTE PTR _szEncEventType$[ebp+15], -22 ; ffffffeaH
  00117	eb 4f		 jmp	 SHORT $LN1@GetAnimati@2
$LN82@GetAnimati@2:
  00119	88 55 ea	 mov	 BYTE PTR _szEncEventType$[ebp+14], dl
  0011c	eb 4a		 jmp	 SHORT $LN1@GetAnimati@2
$LN83@GetAnimati@2:
  0011e	c6 45 e9 ec	 mov	 BYTE PTR _szEncEventType$[ebp+13], -20 ; ffffffecH
  00122	eb 44		 jmp	 SHORT $LN1@GetAnimati@2
$LN85@GetAnimati@2:
  00124	c6 45 e7 ea	 mov	 BYTE PTR _szEncEventType$[ebp+11], -22 ; ffffffeaH
  00128	eb 3e		 jmp	 SHORT $LN1@GetAnimati@2
$LN86@GetAnimati@2:
  0012a	88 55 e6	 mov	 BYTE PTR _szEncEventType$[ebp+10], dl
  0012d	eb 39		 jmp	 SHORT $LN1@GetAnimati@2
$LN87@GetAnimati@2:
  0012f	c6 45 e5 ec	 mov	 BYTE PTR _szEncEventType$[ebp+9], -20 ; ffffffecH
  00133	eb 33		 jmp	 SHORT $LN1@GetAnimati@2
$LN88@GetAnimati@2:
  00135	c6 45 e4 ed	 mov	 BYTE PTR _szEncEventType$[ebp+8], -19 ; ffffffedH
  00139	eb 2d		 jmp	 SHORT $LN1@GetAnimati@2
$LN89@GetAnimati@2:
  0013b	c6 45 e3 ea	 mov	 BYTE PTR _szEncEventType$[ebp+7], -22 ; ffffffeaH
  0013f	eb 27		 jmp	 SHORT $LN1@GetAnimati@2
$LN90@GetAnimati@2:
  00141	88 55 e2	 mov	 BYTE PTR _szEncEventType$[ebp+6], dl
  00144	eb 22		 jmp	 SHORT $LN1@GetAnimati@2
$LN91@GetAnimati@2:
  00146	c6 45 e1 ec	 mov	 BYTE PTR _szEncEventType$[ebp+5], -20 ; ffffffecH
  0014a	eb 1c		 jmp	 SHORT $LN1@GetAnimati@2
$LN92@GetAnimati@2:
  0014c	c6 45 e0 ed	 mov	 BYTE PTR _szEncEventType$[ebp+4], -19 ; ffffffedH
  00150	eb 16		 jmp	 SHORT $LN1@GetAnimati@2
$LN93@GetAnimati@2:
  00152	c6 45 df ea	 mov	 BYTE PTR _szEncEventType$[ebp+3], -22 ; ffffffeaH
  00156	eb 10		 jmp	 SHORT $LN1@GetAnimati@2
$LN94@GetAnimati@2:
  00158	c6 45 de eb	 mov	 BYTE PTR _szEncEventType$[ebp+2], -21 ; ffffffebH
  0015c	eb 0a		 jmp	 SHORT $LN1@GetAnimati@2
$LN95@GetAnimati@2:
  0015e	c6 45 dd ec	 mov	 BYTE PTR _szEncEventType$[ebp+1], -20 ; ffffffecH
  00162	eb 04		 jmp	 SHORT $LN1@GetAnimati@2
$LN96@GetAnimati@2:
  00164	c6 45 dc ed	 mov	 BYTE PTR _szEncEventType$[ebp], -19 ; ffffffedH
$LN1@GetAnimati@2:
  00168	6a 03		 push	 3
  0016a	8d 45 dc	 lea	 eax, DWORD PTR _szEncEventType$[ebp]
  0016d	c6 45 e8 00	 mov	 BYTE PTR _szEncEventType$[ebp+12], 0
  00171	59		 pop	 ecx
$LL105@GetAnimati@2:
  00172	81 30 ed ec eb
	ea		 xor	 DWORD PTR [eax], -353637139 ; eaebecedH
  00178	83 c0 04	 add	 eax, 4
  0017b	49		 dec	 ecx
  0017c	75 f4		 jne	 SHORT $LL105@GetAnimati@2

; 416  : 		return GetAnimationEventTime(id, szEncEventType);

  0017e	8d 45 dc	 lea	 eax, DWORD PTR _szEncEventType$[ebp]
  00181	50		 push	 eax
  00182	8d 4d c8	 lea	 ecx, DWORD PTR $T534215[ebp]
  00185	ff 15 00 00 00
	00		 call	 DWORD PTR __imp_??0ioHashString@@QAE@PBD@Z
  0018b	83 65 fc 00	 and	 DWORD PTR __$EHRec$[ebp+8], 0
  0018f	8d 45 c8	 lea	 eax, DWORD PTR $T534215[ebp]
  00192	50		 push	 eax
  00193	ff 75 08	 push	 DWORD PTR _id$[ebp]
  00196	8b ce		 mov	 ecx, esi
  00198	ff 15 00 00 00
	00		 call	 DWORD PTR __imp_?GetAnimationEventTime@ioEntityGroup@@QAEMHABVioHashString@@@Z
  0019e	d9 5d d8	 fstp	 DWORD PTR $T534214[ebp]
  001a1	83 4d fc ff	 or	 DWORD PTR __$EHRec$[ebp+8], -1
  001a5	8d 4d c8	 lea	 ecx, DWORD PTR $T534215[ebp]
  001a8	ff 15 00 00 00
	00		 call	 DWORD PTR __imp_??1ioHashString@@QAE@XZ
  001ae	d9 45 d8	 fld	 DWORD PTR $T534214[ebp]

; 417  : 	}

  001b1	e8 00 00 00 00	 call	 __EH_epilog3_GS
  001b6	c2 08 00	 ret	 8
_TEXT	ENDS
;	COMDAT text$x
text$x	SEGMENT
__unwindfunclet$??$GetAnimationEventTime_e@$0N@@ioEntityGroup@@QAEMHAAY0N@$$CBD@Z$0:
  00000	8d 4d c8	 lea	 ecx, DWORD PTR $T534215[ebp]
  00003	ff 25 00 00 00
	00		 jmp	 DWORD PTR __imp_??1ioHashString@@QAE@XZ
__ehhandler$??$GetAnimationEventTime_e@$0N@@ioEntityGroup@@QAEMHAAY0N@$$CBD@Z:
  00009	8b 54 24 08	 mov	 edx, DWORD PTR [esp+8]
  0000d	8d 42 0c	 lea	 eax, DWORD PTR [edx+12]
  00010	8b 4a c4	 mov	 ecx, DWORD PTR [edx-60]
  00013	33 c8		 xor	 ecx, eax
  00015	e8 00 00 00 00	 call	 @__security_check_cookie@4
  0001a	8b 4a fc	 mov	 ecx, DWORD PTR [edx-4]
  0001d	33 c8		 xor	 ecx, eax
  0001f	e8 00 00 00 00	 call	 @__security_check_cookie@4
  00024	b8 00 00 00 00	 mov	 eax, OFFSET __ehfuncinfo$??$GetAnimationEventTime_e@$0N@@ioEntityGroup@@QAEMHAAY0N@$$CBD@Z
  00029	e9 00 00 00 00	 jmp	 ___CxxFrameHandler3
text$x	ENDS
??$GetAnimationEventTime_e@$0N@@ioEntityGroup@@QAEMHAAY0N@$$CBD@Z ENDP ; ioEntityGroup::GetAnimationEventTime_e<13>
PUBLIC	??$construct@AAUtagDummyCharCreateInfo@@@?$allocator@UtagDummyCharCreateInfo@@@std@@QAEXPAUtagDummyCharCreateInfo@@AAU2@@Z ; std::allocator<tagDummyCharCreateInfo>::construct<tagDummyCharCreateInfo &>
;	COMDAT xdata$x
; File c:\program files (x86)\microsoft visual studio 10.0\vc\include\utility
xdata$x	SEGMENT
__unwindtable$??$construct@AAUtagDummyCharCreateInfo@@@?$allocator@UtagDummyCharCreateInfo@@@std@@QAEXPAUtagDummyCharCreateInfo@@AAU2@@Z DD 0ffffffffH
	DD	FLAT:__unwindfunclet$??$construct@AAUtagDummyCharCreateInfo@@@?$allocator@UtagDummyCharCreateInfo@@@std@@QAEXPAUtagDummyCharCreateInfo@@AAU2@@Z$0
__ehfuncinfo$??$construct@AAUtagDummyCharCreateInfo@@@?$allocator@UtagDummyCharCreateInfo@@@std@@QAEXPAUtagDummyCharCreateInfo@@AAU2@@Z DD 019930522H
	DD	01H
	DD	FLAT:__unwindtable$??$construct@AAUtagDummyCharCreateInfo@@@?$allocator@UtagDummyCharCreateInfo@@@std@@QAEXPAUtagDummyCharCreateInfo@@AAU2@@Z
	DD	2 DUP(00H)
	DD	2 DUP(00H)
	DD	00H
	DD	01H
; Function compile flags: /Ogsp
; File c:\program files (x86)\microsoft visual studio 10.0\vc\include\xmemory
xdata$x	ENDS
;	COMDAT ??$construct@AAUtagDummyCharCreateInfo@@@?$allocator@UtagDummyCharCreateInfo@@@std@@QAEXPAUtagDummyCharCreateInfo@@AAU2@@Z
_TEXT	SEGMENT
$T534244 = -16						; size = 4
__$EHRec$ = -12						; size = 12
__Ptr$ = 8						; size = 4
__Val$ = 12						; size = 4
??$construct@AAUtagDummyCharCreateInfo@@@?$allocator@UtagDummyCharCreateInfo@@@std@@QAEXPAUtagDummyCharCreateInfo@@AAU2@@Z PROC ; std::allocator<tagDummyCharCreateInfo>::construct<tagDummyCharCreateInfo &>, COMDAT
; _this$ = ecx

; 206  : 		void construct(pointer _Ptr, _Other&& _Val)

  00000	6a 04		 push	 4
  00002	b8 00 00 00 00	 mov	 eax, __ehhandler$??$construct@AAUtagDummyCharCreateInfo@@@?$allocator@UtagDummyCharCreateInfo@@@std@@QAEXPAUtagDummyCharCreateInfo@@AAU2@@Z
  00007	e8 00 00 00 00	 call	 __EH_prolog3

; 207  : 		{	// construct object at _Ptr with value _Val
; 208  : 		::new ((void _FARQ *)_Ptr) _Ty(_STD forward<_Other>(_Val));

  0000c	8b 4d 08	 mov	 ecx, DWORD PTR __Ptr$[ebp]
  0000f	89 4d f0	 mov	 DWORD PTR $T534244[ebp], ecx
  00012	83 65 fc 00	 and	 DWORD PTR __$EHRec$[ebp+8], 0
  00016	85 c9		 test	 ecx, ecx
  00018	74 08		 je	 SHORT $LN3@construct
  0001a	ff 75 0c	 push	 DWORD PTR __Val$[ebp]
  0001d	e8 00 00 00 00	 call	 ??0tagDummyCharCreateInfo@@QAE@ABU0@@Z
$LN3@construct:

; 209  : 		}

  00022	e8 00 00 00 00	 call	 __EH_epilog3
  00027	c2 08 00	 ret	 8
_TEXT	ENDS
;	COMDAT text$x
text$x	SEGMENT
__unwindfunclet$??$construct@AAUtagDummyCharCreateInfo@@@?$allocator@UtagDummyCharCreateInfo@@@std@@QAEXPAUtagDummyCharCreateInfo@@AAU2@@Z$0:
  00000	ff 75 08	 push	 DWORD PTR __Ptr$[ebp]
  00003	ff 75 f0	 push	 DWORD PTR $T534244[ebp]
  00006	e8 00 00 00 00	 call	 ??3@YAXPAX0@Z		; operator delete
  0000b	59		 pop	 ecx
  0000c	59		 pop	 ecx
  0000d	c3		 ret	 0
__ehhandler$??$construct@AAUtagDummyCharCreateInfo@@@?$allocator@UtagDummyCharCreateInfo@@@std@@QAEXPAUtagDummyCharCreateInfo@@AAU2@@Z:
  0000e	8b 54 24 08	 mov	 edx, DWORD PTR [esp+8]
  00012	8d 42 0c	 lea	 eax, DWORD PTR [edx+12]
  00015	8b 4a ec	 mov	 ecx, DWORD PTR [edx-20]
  00018	33 c8		 xor	 ecx, eax
  0001a	e8 00 00 00 00	 call	 @__security_check_cookie@4
  0001f	b8 00 00 00 00	 mov	 eax, OFFSET __ehfuncinfo$??$construct@AAUtagDummyCharCreateInfo@@@?$allocator@UtagDummyCharCreateInfo@@@std@@QAEXPAUtagDummyCharCreateInfo@@AAU2@@Z
  00024	e9 00 00 00 00	 jmp	 ___CxxFrameHandler3
text$x	ENDS
??$construct@AAUtagDummyCharCreateInfo@@@?$allocator@UtagDummyCharCreateInfo@@@std@@QAEXPAUtagDummyCharCreateInfo@@AAU2@@Z ENDP ; std::allocator<tagDummyCharCreateInfo>::construct<tagDummyCharCreateInfo &>
PUBLIC	??$_Move@PAUtagDummyCharCreateInfo@@PAU1@@std@@YAPAUtagDummyCharCreateInfo@@PAU1@00U_Nonscalar_ptr_iterator_tag@0@@Z ; std::_Move<tagDummyCharCreateInfo *,tagDummyCharCreateInfo *>
; Function compile flags: /Ogsp
; File c:\program files (x86)\microsoft visual studio 10.0\vc\include\xutility
;	COMDAT ??$_Move@PAUtagDummyCharCreateInfo@@PAU1@@std@@YAPAUtagDummyCharCreateInfo@@PAU1@00U_Nonscalar_ptr_iterator_tag@0@@Z
_TEXT	SEGMENT
__First$ = 8						; size = 4
__Last$ = 12						; size = 4
__Dest$ = 16						; size = 4
___formal$ = 20						; size = 1
??$_Move@PAUtagDummyCharCreateInfo@@PAU1@@std@@YAPAUtagDummyCharCreateInfo@@PAU1@00U_Nonscalar_ptr_iterator_tag@0@@Z PROC ; std::_Move<tagDummyCharCreateInfo *,tagDummyCharCreateInfo *>, COMDAT

; 2512 : 	{	// move [_First, _Last) to [_Dest, ...), arbitrary iterators

  00000	55		 push	 ebp
  00001	8b ec		 mov	 ebp, esp
  00003	56		 push	 esi

; 2513 : 	for (; _First != _Last; ++_Dest, ++_First)

  00004	8b 75 08	 mov	 esi, DWORD PTR __First$[ebp]
  00007	eb 10		 jmp	 SHORT $LN11@Move
$LL3@Move:

; 2514 : 		*_Dest = _STD move(*_First);

  00009	8b 4d 10	 mov	 ecx, DWORD PTR __Dest$[ebp]
  0000c	56		 push	 esi
  0000d	e8 00 00 00 00	 call	 ??4tagDummyCharCreateInfo@@QAEAAU0@ABU0@@Z
  00012	83 45 10 24	 add	 DWORD PTR __Dest$[ebp], 36 ; 00000024H
  00016	83 c6 24	 add	 esi, 36			; 00000024H
$LN11@Move:

; 2513 : 	for (; _First != _Last; ++_Dest, ++_First)

  00019	3b 75 0c	 cmp	 esi, DWORD PTR __Last$[ebp]
  0001c	75 eb		 jne	 SHORT $LL3@Move

; 2515 : 	return (_Dest);

  0001e	8b 45 10	 mov	 eax, DWORD PTR __Dest$[ebp]
  00021	5e		 pop	 esi

; 2516 : 	}

  00022	5d		 pop	 ebp
  00023	c3		 ret	 0
??$_Move@PAUtagDummyCharCreateInfo@@PAU1@@std@@YAPAUtagDummyCharCreateInfo@@PAU1@00U_Nonscalar_ptr_iterator_tag@0@@Z ENDP ; std::_Move<tagDummyCharCreateInfo *,tagDummyCharCreateInfo *>
_TEXT	ENDS
PUBLIC	??$_Construct@UtagDummyCharCreateInfo@@ABU1@@std@@YAXPAUtagDummyCharCreateInfo@@ABU1@@Z ; std::_Construct<tagDummyCharCreateInfo,tagDummyCharCreateInfo const &>
;	COMDAT xdata$x
; File c:\program files (x86)\microsoft visual studio 10.0\vc\include\utility
xdata$x	SEGMENT
__unwindtable$??$_Construct@UtagDummyCharCreateInfo@@ABU1@@std@@YAXPAUtagDummyCharCreateInfo@@ABU1@@Z DD 0ffffffffH
	DD	FLAT:__unwindfunclet$??$_Construct@UtagDummyCharCreateInfo@@ABU1@@std@@YAXPAUtagDummyCharCreateInfo@@ABU1@@Z$0
__ehfuncinfo$??$_Construct@UtagDummyCharCreateInfo@@ABU1@@std@@YAXPAUtagDummyCharCreateInfo@@ABU1@@Z DD 019930522H
	DD	01H
	DD	FLAT:__unwindtable$??$_Construct@UtagDummyCharCreateInfo@@ABU1@@std@@YAXPAUtagDummyCharCreateInfo@@ABU1@@Z
	DD	2 DUP(00H)
	DD	2 DUP(00H)
	DD	00H
	DD	01H
; Function compile flags: /Ogsp
; File c:\program files (x86)\microsoft visual studio 10.0\vc\include\xmemory
xdata$x	ENDS
;	COMDAT ??$_Construct@UtagDummyCharCreateInfo@@ABU1@@std@@YAXPAUtagDummyCharCreateInfo@@ABU1@@Z
_TEXT	SEGMENT
$T534272 = -16						; size = 4
__$EHRec$ = -12						; size = 12
__Vptr$ = 8						; size = 4
__Ptr$ = 8						; size = 4
__Val$ = 12						; size = 4
??$_Construct@UtagDummyCharCreateInfo@@ABU1@@std@@YAXPAUtagDummyCharCreateInfo@@ABU1@@Z PROC ; std::_Construct<tagDummyCharCreateInfo,tagDummyCharCreateInfo const &>, COMDAT

; 46   : 	{	// construct object at _Ptr with value _Val

  00000	6a 04		 push	 4
  00002	b8 00 00 00 00	 mov	 eax, __ehhandler$??$_Construct@UtagDummyCharCreateInfo@@ABU1@@std@@YAXPAUtagDummyCharCreateInfo@@ABU1@@Z
  00007	e8 00 00 00 00	 call	 __EH_prolog3

; 47   : 	void _FARQ *_Vptr = _Ptr;

  0000c	8b 4d 08	 mov	 ecx, DWORD PTR __Ptr$[ebp]
  0000f	89 4d 08	 mov	 DWORD PTR __Vptr$[ebp], ecx

; 48   : 	::new (_Vptr) _Ty1(_STD forward<_Ty2>(_Val));

  00012	89 4d f0	 mov	 DWORD PTR $T534272[ebp], ecx
  00015	83 65 fc 00	 and	 DWORD PTR __$EHRec$[ebp+8], 0
  00019	85 c9		 test	 ecx, ecx
  0001b	74 08		 je	 SHORT $LN3@Construct@2
  0001d	ff 75 0c	 push	 DWORD PTR __Val$[ebp]
  00020	e8 00 00 00 00	 call	 ??0tagDummyCharCreateInfo@@QAE@ABU0@@Z
$LN3@Construct@2:

; 49   : 	}

  00025	e8 00 00 00 00	 call	 __EH_epilog3
  0002a	c3		 ret	 0
_TEXT	ENDS
;	COMDAT text$x
text$x	SEGMENT
__unwindfunclet$??$_Construct@UtagDummyCharCreateInfo@@ABU1@@std@@YAXPAUtagDummyCharCreateInfo@@ABU1@@Z$0:
  00000	ff 75 08	 push	 DWORD PTR __Vptr$[ebp]
  00003	ff 75 f0	 push	 DWORD PTR $T534272[ebp]
  00006	e8 00 00 00 00	 call	 ??3@YAXPAX0@Z		; operator delete
  0000b	59		 pop	 ecx
  0000c	59		 pop	 ecx
  0000d	c3		 ret	 0
__ehhandler$??$_Construct@UtagDummyCharCreateInfo@@ABU1@@std@@YAXPAUtagDummyCharCreateInfo@@ABU1@@Z:
  0000e	8b 54 24 08	 mov	 edx, DWORD PTR [esp+8]
  00012	8d 42 0c	 lea	 eax, DWORD PTR [edx+12]
  00015	8b 4a ec	 mov	 ecx, DWORD PTR [edx-20]
  00018	33 c8		 xor	 ecx, eax
  0001a	e8 00 00 00 00	 call	 @__security_check_cookie@4
  0001f	b8 00 00 00 00	 mov	 eax, OFFSET __ehfuncinfo$??$_Construct@UtagDummyCharCreateInfo@@ABU1@@std@@YAXPAUtagDummyCharCreateInfo@@ABU1@@Z
  00024	e9 00 00 00 00	 jmp	 ___CxxFrameHandler3
text$x	ENDS
??$_Construct@UtagDummyCharCreateInfo@@ABU1@@std@@YAXPAUtagDummyCharCreateInfo@@ABU1@@Z ENDP ; std::_Construct<tagDummyCharCreateInfo,tagDummyCharCreateInfo const &>
PUBLIC	??$_Destroy@UtagDummyCharCreateInfo@@@std@@YAXPAUtagDummyCharCreateInfo@@@Z ; std::_Destroy<tagDummyCharCreateInfo>
; Function compile flags: /Ogsp
;	COMDAT ??$_Destroy@UtagDummyCharCreateInfo@@@std@@YAXPAUtagDummyCharCreateInfo@@@Z
_TEXT	SEGMENT
__Ptr$ = 8						; size = 4
??$_Destroy@UtagDummyCharCreateInfo@@@std@@YAXPAUtagDummyCharCreateInfo@@@Z PROC ; std::_Destroy<tagDummyCharCreateInfo>, COMDAT

; 62   : 	{	// destroy object at _Ptr

  00000	55		 push	 ebp
  00001	8b ec		 mov	 ebp, esp

; 63   : 	_Ptr->~_Ty();

  00003	8b 4d 08	 mov	 ecx, DWORD PTR __Ptr$[ebp]

; 64   : 	}

  00006	5d		 pop	 ebp

; 63   : 	_Ptr->~_Ty();

  00007	ff 25 00 00 00
	00		 jmp	 DWORD PTR __imp_??1ioHashString@@QAE@XZ
??$_Destroy@UtagDummyCharCreateInfo@@@std@@YAXPAUtagDummyCharCreateInfo@@@Z ENDP ; std::_Destroy<tagDummyCharCreateInfo>
_TEXT	ENDS
PUBLIC	?construct@?$allocator@UtagDummyCharCreateInfo@@@std@@QAEXPAUtagDummyCharCreateInfo@@$$QAU3@@Z ; std::allocator<tagDummyCharCreateInfo>::construct
;	COMDAT xdata$x
; File c:\program files (x86)\microsoft visual studio 10.0\vc\include\utility
xdata$x	SEGMENT
__unwindtable$?construct@?$allocator@UtagDummyCharCreateInfo@@@std@@QAEXPAUtagDummyCharCreateInfo@@$$QAU3@@Z DD 0ffffffffH
	DD	FLAT:__unwindfunclet$?construct@?$allocator@UtagDummyCharCreateInfo@@@std@@QAEXPAUtagDummyCharCreateInfo@@$$QAU3@@Z$0
__ehfuncinfo$?construct@?$allocator@UtagDummyCharCreateInfo@@@std@@QAEXPAUtagDummyCharCreateInfo@@$$QAU3@@Z DD 019930522H
	DD	01H
	DD	FLAT:__unwindtable$?construct@?$allocator@UtagDummyCharCreateInfo@@@std@@QAEXPAUtagDummyCharCreateInfo@@$$QAU3@@Z
	DD	2 DUP(00H)
	DD	2 DUP(00H)
	DD	00H
	DD	01H
; Function compile flags: /Ogsp
; File c:\program files (x86)\microsoft visual studio 10.0\vc\include\xmemory
xdata$x	ENDS
;	COMDAT ?construct@?$allocator@UtagDummyCharCreateInfo@@@std@@QAEXPAUtagDummyCharCreateInfo@@$$QAU3@@Z
_TEXT	SEGMENT
$T534304 = -16						; size = 4
__$EHRec$ = -12						; size = 12
__Ptr$ = 8						; size = 4
__Val$ = 12						; size = 4
?construct@?$allocator@UtagDummyCharCreateInfo@@@std@@QAEXPAUtagDummyCharCreateInfo@@$$QAU3@@Z PROC ; std::allocator<tagDummyCharCreateInfo>::construct, COMDAT
; _this$ = ecx

; 201  : 		{	// construct object at _Ptr with value _Val

  00000	6a 04		 push	 4
  00002	b8 00 00 00 00	 mov	 eax, __ehhandler$?construct@?$allocator@UtagDummyCharCreateInfo@@@std@@QAEXPAUtagDummyCharCreateInfo@@$$QAU3@@Z
  00007	e8 00 00 00 00	 call	 __EH_prolog3

; 202  : 		::new ((void _FARQ *)_Ptr) _Ty(_STD forward<_Ty>(_Val));

  0000c	8b 4d 08	 mov	 ecx, DWORD PTR __Ptr$[ebp]
  0000f	89 4d f0	 mov	 DWORD PTR $T534304[ebp], ecx
  00012	83 65 fc 00	 and	 DWORD PTR __$EHRec$[ebp+8], 0
  00016	85 c9		 test	 ecx, ecx
  00018	74 08		 je	 SHORT $LN3@construct@2
  0001a	ff 75 0c	 push	 DWORD PTR __Val$[ebp]
  0001d	e8 00 00 00 00	 call	 ??0tagDummyCharCreateInfo@@QAE@ABU0@@Z
$LN3@construct@2:

; 203  : 		}

  00022	e8 00 00 00 00	 call	 __EH_epilog3
  00027	c2 08 00	 ret	 8
_TEXT	ENDS
;	COMDAT text$x
text$x	SEGMENT
__unwindfunclet$?construct@?$allocator@UtagDummyCharCreateInfo@@@std@@QAEXPAUtagDummyCharCreateInfo@@$$QAU3@@Z$0:
  00000	ff 75 08	 push	 DWORD PTR __Ptr$[ebp]
  00003	ff 75 f0	 push	 DWORD PTR $T534304[ebp]
  00006	e8 00 00 00 00	 call	 ??3@YAXPAX0@Z		; operator delete
  0000b	59		 pop	 ecx
  0000c	59		 pop	 ecx
  0000d	c3		 ret	 0
__ehhandler$?construct@?$allocator@UtagDummyCharCreateInfo@@@std@@QAEXPAUtagDummyCharCreateInfo@@$$QAU3@@Z:
  0000e	8b 54 24 08	 mov	 edx, DWORD PTR [esp+8]
  00012	8d 42 0c	 lea	 eax, DWORD PTR [edx+12]
  00015	8b 4a ec	 mov	 ecx, DWORD PTR [edx-20]
  00018	33 c8		 xor	 ecx, eax
  0001a	e8 00 00 00 00	 call	 @__security_check_cookie@4
  0001f	b8 00 00 00 00	 mov	 eax, OFFSET __ehfuncinfo$?construct@?$allocator@UtagDummyCharCreateInfo@@@std@@QAEXPAUtagDummyCharCreateInfo@@$$QAU3@@Z
  00024	e9 00 00 00 00	 jmp	 ___CxxFrameHandler3
text$x	ENDS
?construct@?$allocator@UtagDummyCharCreateInfo@@@std@@QAEXPAUtagDummyCharCreateInfo@@$$QAU3@@Z ENDP ; std::allocator<tagDummyCharCreateInfo>::construct
PUBLIC	??$_Construct@UtagDummyCharLoadInfo@@ABU1@@std@@YAXPAUtagDummyCharLoadInfo@@ABU1@@Z ; std::_Construct<tagDummyCharLoadInfo,tagDummyCharLoadInfo const &>
;	COMDAT xdata$x
; File c:\program files (x86)\microsoft visual studio 10.0\vc\include\utility
xdata$x	SEGMENT
__unwindtable$??$_Construct@UtagDummyCharLoadInfo@@ABU1@@std@@YAXPAUtagDummyCharLoadInfo@@ABU1@@Z DD 0ffffffffH
	DD	FLAT:__unwindfunclet$??$_Construct@UtagDummyCharLoadInfo@@ABU1@@std@@YAXPAUtagDummyCharLoadInfo@@ABU1@@Z$0
__ehfuncinfo$??$_Construct@UtagDummyCharLoadInfo@@ABU1@@std@@YAXPAUtagDummyCharLoadInfo@@ABU1@@Z DD 019930522H
	DD	01H
	DD	FLAT:__unwindtable$??$_Construct@UtagDummyCharLoadInfo@@ABU1@@std@@YAXPAUtagDummyCharLoadInfo@@ABU1@@Z
	DD	2 DUP(00H)
	DD	2 DUP(00H)
	DD	00H
	DD	01H
; Function compile flags: /Ogsp
; File c:\program files (x86)\microsoft visual studio 10.0\vc\include\xmemory
xdata$x	ENDS
;	COMDAT ??$_Construct@UtagDummyCharLoadInfo@@ABU1@@std@@YAXPAUtagDummyCharLoadInfo@@ABU1@@Z
_TEXT	SEGMENT
$T534323 = -16						; size = 4
__$EHRec$ = -12						; size = 12
__Vptr$ = 8						; size = 4
__Ptr$ = 8						; size = 4
__Val$ = 12						; size = 4
??$_Construct@UtagDummyCharLoadInfo@@ABU1@@std@@YAXPAUtagDummyCharLoadInfo@@ABU1@@Z PROC ; std::_Construct<tagDummyCharLoadInfo,tagDummyCharLoadInfo const &>, COMDAT

; 46   : 	{	// construct object at _Ptr with value _Val

  00000	6a 04		 push	 4
  00002	b8 00 00 00 00	 mov	 eax, __ehhandler$??$_Construct@UtagDummyCharLoadInfo@@ABU1@@std@@YAXPAUtagDummyCharLoadInfo@@ABU1@@Z
  00007	e8 00 00 00 00	 call	 __EH_prolog3

; 47   : 	void _FARQ *_Vptr = _Ptr;

  0000c	8b 4d 08	 mov	 ecx, DWORD PTR __Ptr$[ebp]
  0000f	89 4d 08	 mov	 DWORD PTR __Vptr$[ebp], ecx

; 48   : 	::new (_Vptr) _Ty1(_STD forward<_Ty2>(_Val));

  00012	89 4d f0	 mov	 DWORD PTR $T534323[ebp], ecx
  00015	83 65 fc 00	 and	 DWORD PTR __$EHRec$[ebp+8], 0
  00019	85 c9		 test	 ecx, ecx
  0001b	74 08		 je	 SHORT $LN3@Construct@3
  0001d	ff 75 0c	 push	 DWORD PTR __Val$[ebp]
  00020	e8 00 00 00 00	 call	 ??0tagDummyCharLoadInfo@@QAE@ABU0@@Z
$LN3@Construct@3:

; 49   : 	}

  00025	e8 00 00 00 00	 call	 __EH_epilog3
  0002a	c3		 ret	 0
_TEXT	ENDS
;	COMDAT text$x
text$x	SEGMENT
__unwindfunclet$??$_Construct@UtagDummyCharLoadInfo@@ABU1@@std@@YAXPAUtagDummyCharLoadInfo@@ABU1@@Z$0:
  00000	ff 75 08	 push	 DWORD PTR __Vptr$[ebp]
  00003	ff 75 f0	 push	 DWORD PTR $T534323[ebp]
  00006	e8 00 00 00 00	 call	 ??3@YAXPAX0@Z		; operator delete
  0000b	59		 pop	 ecx
  0000c	59		 pop	 ecx
  0000d	c3		 ret	 0
__ehhandler$??$_Construct@UtagDummyCharLoadInfo@@ABU1@@std@@YAXPAUtagDummyCharLoadInfo@@ABU1@@Z:
  0000e	8b 54 24 08	 mov	 edx, DWORD PTR [esp+8]
  00012	8d 42 0c	 lea	 eax, DWORD PTR [edx+12]
  00015	8b 4a ec	 mov	 ecx, DWORD PTR [edx-20]
  00018	33 c8		 xor	 ecx, eax
  0001a	e8 00 00 00 00	 call	 @__security_check_cookie@4
  0001f	b8 00 00 00 00	 mov	 eax, OFFSET __ehfuncinfo$??$_Construct@UtagDummyCharLoadInfo@@ABU1@@std@@YAXPAUtagDummyCharLoadInfo@@ABU1@@Z
  00024	e9 00 00 00 00	 jmp	 ___CxxFrameHandler3
text$x	ENDS
??$_Construct@UtagDummyCharLoadInfo@@ABU1@@std@@YAXPAUtagDummyCharLoadInfo@@ABU1@@Z ENDP ; std::_Construct<tagDummyCharLoadInfo,tagDummyCharLoadInfo const &>
PUBLIC	??0tagDummyCharCreateInfo@@QAE@XZ		; tagDummyCharCreateInfo::tagDummyCharCreateInfo
; Function compile flags: /Ogsp
; File d:\lost saga for developer\youtube\tutorial\source\src\lsclient\playentityhelpstruct.h
;	COMDAT ??0tagDummyCharCreateInfo@@QAE@XZ
_TEXT	SEGMENT
$T534355 = -12						; size = 12
??0tagDummyCharCreateInfo@@QAE@XZ PROC			; tagDummyCharCreateInfo::tagDummyCharCreateInfo, COMDAT
; _this$ = ecx

; 1450 : 	tagDummyCharCreateInfo()

  00000	55		 push	 ebp
  00001	8b ec		 mov	 ebp, esp
  00003	83 ec 0c	 sub	 esp, 12			; 0000000cH
  00006	53		 push	 ebx
  00007	56		 push	 esi
  00008	57		 push	 edi
  00009	8b d9		 mov	 ebx, ecx
  0000b	ff 15 00 00 00
	00		 call	 DWORD PTR __imp_??0ioHashString@@QAE@XZ

; 1451 : 	{
; 1452 : 		Init();

  00011	0f 57 c0	 xorps	 xmm0, xmm0
  00014	83 63 10 00	 and	 DWORD PTR [ebx+16], 0
  00018	f3 0f 11 45 f4	 movss	 DWORD PTR $T534355[ebp], xmm0
  0001d	f3 0f 11 45 f8	 movss	 DWORD PTR $T534355[ebp+4], xmm0
  00022	f3 0f 11 45 fc	 movss	 DWORD PTR $T534355[ebp+8], xmm0
  00027	8d 7b 18	 lea	 edi, DWORD PTR [ebx+24]
  0002a	8d 75 f4	 lea	 esi, DWORD PTR $T534355[ebp]
  0002d	a5		 movsd
  0002e	a5		 movsd
  0002f	a5		 movsd
  00030	5f		 pop	 edi
  00031	5e		 pop	 esi
  00032	f3 0f 11 43 14	 movss	 DWORD PTR [ebx+20], xmm0

; 1453 : 	}

  00037	8b c3		 mov	 eax, ebx
  00039	5b		 pop	 ebx
  0003a	c9		 leave
  0003b	c3		 ret	 0
??0tagDummyCharCreateInfo@@QAE@XZ ENDP			; tagDummyCharCreateInfo::tagDummyCharCreateInfo
_TEXT	ENDS
PUBLIC	??0?$CEncrypt@M@@QAE@XZ				; CEncrypt<float>::CEncrypt<float>
EXTRN	??0ccddaabb@@QAE@XZ:PROC			; ccddaabb::ccddaabb
;	COMDAT xdata$x
; File d:\lost saga for developer\youtube\tutorial\source\src\lsclient\encryptvalue.h
xdata$x	SEGMENT
__unwindtable$??0?$CEncrypt@M@@QAE@XZ DD 0ffffffffH
	DD	FLAT:__unwindfunclet$??0?$CEncrypt@M@@QAE@XZ$0
__ehfuncinfo$??0?$CEncrypt@M@@QAE@XZ DD 019930522H
	DD	01H
	DD	FLAT:__unwindtable$??0?$CEncrypt@M@@QAE@XZ
	DD	2 DUP(00H)
	DD	2 DUP(00H)
	DD	00H
	DD	01H
; Function compile flags: /Ogsp
xdata$x	ENDS
;	COMDAT ??0?$CEncrypt@M@@QAE@XZ
_TEXT	SEGMENT
_this$ = -16						; size = 4
__$EHRec$ = -12						; size = 12
??0?$CEncrypt@M@@QAE@XZ PROC				; CEncrypt<float>::CEncrypt<float>, COMDAT
; _this$ = ecx

; 109  : 	CEncrypt()

  00000	6a 04		 push	 4
  00002	b8 00 00 00 00	 mov	 eax, __ehhandler$??0?$CEncrypt@M@@QAE@XZ
  00007	e8 00 00 00 00	 call	 __EH_prolog3
  0000c	8b f1		 mov	 esi, ecx
  0000e	89 75 f0	 mov	 DWORD PTR _this$[ebp], esi
  00011	8d 4e 0c	 lea	 ecx, DWORD PTR [esi+12]
  00014	c7 06 00 00 00
	00		 mov	 DWORD PTR [esi], OFFSET ??_7?$CEncrypt@M@@6B@
  0001a	e8 00 00 00 00	 call	 ??0ccddaabb@@QAE@XZ	; ccddaabb::ccddaabb
  0001f	83 65 fc 00	 and	 DWORD PTR __$EHRec$[ebp+8], 0

; 110  : 	{
; 111  : 		Init();

  00023	8b ce		 mov	 ecx, esi
  00025	e8 00 00 00 00	 call	 ?Init@?$CEncrypt@M@@AAEXXZ ; CEncrypt<float>::Init

; 112  : 	}

  0002a	8b c6		 mov	 eax, esi
  0002c	e8 00 00 00 00	 call	 __EH_epilog3
  00031	c3		 ret	 0
_TEXT	ENDS
;	COMDAT text$x
text$x	SEGMENT
__unwindfunclet$??0?$CEncrypt@M@@QAE@XZ$0:
  00000	8b 4d f0	 mov	 ecx, DWORD PTR _this$[ebp]
  00003	83 c1 0c	 add	 ecx, 12			; 0000000cH
  00006	e9 00 00 00 00	 jmp	 ??1ccddaabb@@UAE@XZ	; ccddaabb::~ccddaabb
__ehhandler$??0?$CEncrypt@M@@QAE@XZ:
  0000b	8b 54 24 08	 mov	 edx, DWORD PTR [esp+8]
  0000f	8d 42 0c	 lea	 eax, DWORD PTR [edx+12]
  00012	8b 4a ec	 mov	 ecx, DWORD PTR [edx-20]
  00015	33 c8		 xor	 ecx, eax
  00017	e8 00 00 00 00	 call	 @__security_check_cookie@4
  0001c	b8 00 00 00 00	 mov	 eax, OFFSET __ehfuncinfo$??0?$CEncrypt@M@@QAE@XZ
  00021	e9 00 00 00 00	 jmp	 ___CxxFrameHandler3
text$x	ENDS
??0?$CEncrypt@M@@QAE@XZ ENDP				; CEncrypt<float>::CEncrypt<float>
PUBLIC	??B?$CEncrypt@M@@QAEMXZ				; CEncrypt<float>::operator float
; Function compile flags: /Ogsp
;	COMDAT ??B?$CEncrypt@M@@QAEMXZ
_TEXT	SEGMENT
_value$ = -4						; size = 4
??B?$CEncrypt@M@@QAEMXZ PROC				; CEncrypt<float>::operator float, COMDAT
; _this$ = ecx

; 134  : 	{

  00000	55		 push	 ebp
  00001	8b ec		 mov	 ebp, esp
  00003	51		 push	 ecx

; 135  : 		type value;
; 136  : 		DecryptValueToPool(&value);

  00004	8d 45 fc	 lea	 eax, DWORD PTR _value$[ebp]
  00007	50		 push	 eax
  00008	e8 00 00 00 00	 call	 ?DecryptValueToPool@?$CEncrypt@M@@QAEXPAM@Z ; CEncrypt<float>::DecryptValueToPool

; 137  : 
; 138  : #ifdef _NOTUSE
; 139  : 		Debug();
; 140  : #endif
; 141  : 		return value;

  0000d	d9 45 fc	 fld	 DWORD PTR _value$[ebp]

; 142  : 	}

  00010	c9		 leave
  00011	c3		 ret	 0
??B?$CEncrypt@M@@QAEMXZ ENDP				; CEncrypt<float>::operator float
_TEXT	ENDS
PUBLIC	??B?$CEncrypt@M@@QBEMXZ				; CEncrypt<float>::operator float
; Function compile flags: /Ogsp
;	COMDAT ??B?$CEncrypt@M@@QBEMXZ
_TEXT	SEGMENT
_value$ = -4						; size = 4
??B?$CEncrypt@M@@QBEMXZ PROC				; CEncrypt<float>::operator float, COMDAT
; _this$ = ecx

; 145  : 	{

  00000	55		 push	 ebp
  00001	8b ec		 mov	 ebp, esp
  00003	51		 push	 ecx

; 146  : 		//UJ 130829, const    --start
; 147  : 		type value;
; 148  : 		CEncrypt<type>* pThis = const_cast<CEncrypt<type>*>(this);
; 149  : 		pThis->DecryptValueToPool(&value);

  00004	8d 45 fc	 lea	 eax, DWORD PTR _value$[ebp]
  00007	50		 push	 eax
  00008	e8 00 00 00 00	 call	 ?DecryptValueToPool@?$CEncrypt@M@@QAEXPAM@Z ; CEncrypt<float>::DecryptValueToPool

; 150  : 		//// const DecryptValueToPool     .
; 151  :  		//type value;
; 152  : 		//char szTempMem[MAX_ENCRYPT];
; 153  : 		//m_RC5.DecryptByte( m_MemPool, szTempMem, max(m_ValueSize, DEFAULT_ENCRYPT) );
; 154  : 		//memcpy( &value, szTempMem, m_ValueSize );
; 155  : 		//UJ --end
; 156  : 
; 157  : #ifdef _NOTUSE
; 158  : 		Debug();
; 159  : #endif
; 160  : 		return value;

  0000d	d9 45 fc	 fld	 DWORD PTR _value$[ebp]

; 161  : 	}

  00010	c9		 leave
  00011	c3		 ret	 0
??B?$CEncrypt@M@@QBEMXZ ENDP				; CEncrypt<float>::operator float
_TEXT	ENDS
PUBLIC	??4?$CEncrypt@M@@QAEMM@Z			; CEncrypt<float>::operator=
; Function compile flags: /Ogsp
;	COMDAT ??4?$CEncrypt@M@@QAEMM@Z
_TEXT	SEGMENT
_value$ = 8						; size = 4
_inValue$ = 8						; size = 4
??4?$CEncrypt@M@@QAEMM@Z PROC				; CEncrypt<float>::operator=, COMDAT
; _this$ = ecx

; 1654 : 	{	

  00000	55		 push	 ebp
  00001	8b ec		 mov	 ebp, esp

; 1655 : 		type value = inValue;

  00003	d9 45 08	 fld	 DWORD PTR _inValue$[ebp]

; 1656 : 		EncryptValueToPool((char*)&value);

  00006	8d 45 08	 lea	 eax, DWORD PTR _value$[ebp]
  00009	50		 push	 eax
  0000a	d9 5d 08	 fstp	 DWORD PTR _value$[ebp]
  0000d	e8 00 00 00 00	 call	 ?EncryptValueToPool@?$CEncrypt@M@@AAEXPBD@Z ; CEncrypt<float>::EncryptValueToPool

; 1657 : #ifdef _NOTUSE
; 1658 : 		m_value = inValue;
; 1659 : 		Debug();
; 1660 : #endif
; 1661 : 		return value;

  00012	d9 45 08	 fld	 DWORD PTR _value$[ebp]

; 1662 : 	}

  00015	5d		 pop	 ebp
  00016	c2 04 00	 ret	 4
??4?$CEncrypt@M@@QAEMM@Z ENDP				; CEncrypt<float>::operator=
_TEXT	ENDS
PUBLIC	??B?$CEncrypt@_N@@QAE_NXZ			; CEncrypt<bool>::operator bool
; Function compile flags: /Ogsp
;	COMDAT ??B?$CEncrypt@_N@@QAE_NXZ
_TEXT	SEGMENT
_value$ = -1						; size = 1
??B?$CEncrypt@_N@@QAE_NXZ PROC				; CEncrypt<bool>::operator bool, COMDAT
; _this$ = ecx

; 134  : 	{

  00000	55		 push	 ebp
  00001	8b ec		 mov	 ebp, esp
  00003	51		 push	 ecx

; 135  : 		type value;
; 136  : 		DecryptValueToPool(&value);

  00004	8d 45 ff	 lea	 eax, DWORD PTR _value$[ebp]
  00007	50		 push	 eax
  00008	e8 00 00 00 00	 call	 ?DecryptValueToPool@?$CEncrypt@_N@@QAEXPA_N@Z ; CEncrypt<bool>::DecryptValueToPool

; 137  : 
; 138  : #ifdef _NOTUSE
; 139  : 		Debug();
; 140  : #endif
; 141  : 		return value;

  0000d	8a 45 ff	 mov	 al, BYTE PTR _value$[ebp]

; 142  : 	}

  00010	c9		 leave
  00011	c3		 ret	 0
??B?$CEncrypt@_N@@QAE_NXZ ENDP				; CEncrypt<bool>::operator bool
_TEXT	ENDS
PUBLIC	??B?$CEncrypt@H@@QAEHXZ				; CEncrypt<int>::operator int
; Function compile flags: /Ogsp
;	COMDAT ??B?$CEncrypt@H@@QAEHXZ
_TEXT	SEGMENT
_value$ = -4						; size = 4
??B?$CEncrypt@H@@QAEHXZ PROC				; CEncrypt<int>::operator int, COMDAT
; _this$ = ecx

; 134  : 	{

  00000	55		 push	 ebp
  00001	8b ec		 mov	 ebp, esp
  00003	51		 push	 ecx

; 135  : 		type value;
; 136  : 		DecryptValueToPool(&value);

  00004	8d 45 fc	 lea	 eax, DWORD PTR _value$[ebp]
  00007	50		 push	 eax
  00008	e8 00 00 00 00	 call	 ?DecryptValueToPool@?$CEncrypt@H@@QAEXPAH@Z ; CEncrypt<int>::DecryptValueToPool

; 137  : 
; 138  : #ifdef _NOTUSE
; 139  : 		Debug();
; 140  : #endif
; 141  : 		return value;

  0000d	8b 45 fc	 mov	 eax, DWORD PTR _value$[ebp]

; 142  : 	}

  00010	c9		 leave
  00011	c3		 ret	 0
??B?$CEncrypt@H@@QAEHXZ ENDP				; CEncrypt<int>::operator int
_TEXT	ENDS
PUBLIC	?begin@?$vector@VioHashString@@V?$allocator@VioHashString@@@std@@@std@@QAE?AV?$_Vector_iterator@V?$_Vector_val@VioHashString@@V?$allocator@VioHashString@@@std@@@std@@@2@XZ ; std::vector<ioHashString,std::allocator<ioHashString> >::begin
; Function compile flags: /Ogsp
; File c:\program files (x86)\microsoft visual studio 10.0\vc\include\vector
;	COMDAT ?begin@?$vector@VioHashString@@V?$allocator@VioHashString@@@std@@@std@@QAE?AV?$_Vector_iterator@V?$_Vector_val@VioHashString@@V?$allocator@VioHashString@@@std@@@std@@@2@XZ
_TEXT	SEGMENT
___$ReturnUdt$ = 8					; size = 4
?begin@?$vector@VioHashString@@V?$allocator@VioHashString@@@std@@@std@@QAE?AV?$_Vector_iterator@V?$_Vector_val@VioHashString@@V?$allocator@VioHashString@@@std@@@std@@@2@XZ PROC ; std::vector<ioHashString,std::allocator<ioHashString> >::begin, COMDAT
; _this$ = ecx

; 781  : 		{	// return iterator for beginning of mutable sequence

  00000	55		 push	 ebp
  00001	8b ec		 mov	 ebp, esp

; 782  : 		return (iterator(this->_Myfirst, this));

  00003	8b 09		 mov	 ecx, DWORD PTR [ecx]
  00005	8b 45 08	 mov	 eax, DWORD PTR ___$ReturnUdt$[ebp]
  00008	89 08		 mov	 DWORD PTR [eax], ecx

; 783  : 		}

  0000a	5d		 pop	 ebp
  0000b	c2 04 00	 ret	 4
?begin@?$vector@VioHashString@@V?$allocator@VioHashString@@@std@@@std@@QAE?AV?$_Vector_iterator@V?$_Vector_val@VioHashString@@V?$allocator@VioHashString@@@std@@@std@@@2@XZ ENDP ; std::vector<ioHashString,std::allocator<ioHashString> >::begin
_TEXT	ENDS
PUBLIC	?begin@?$vector@VioHashString@@V?$allocator@VioHashString@@@std@@@std@@QBE?AV?$_Vector_const_iterator@V?$_Vector_val@VioHashString@@V?$allocator@VioHashString@@@std@@@std@@@2@XZ ; std::vector<ioHashString,std::allocator<ioHashString> >::begin
; Function compile flags: /Ogsp
;	COMDAT ?begin@?$vector@VioHashString@@V?$allocator@VioHashString@@@std@@@std@@QBE?AV?$_Vector_const_iterator@V?$_Vector_val@VioHashString@@V?$allocator@VioHashString@@@std@@@std@@@2@XZ
_TEXT	SEGMENT
___$ReturnUdt$ = 8					; size = 4
?begin@?$vector@VioHashString@@V?$allocator@VioHashString@@@std@@@std@@QBE?AV?$_Vector_const_iterator@V?$_Vector_val@VioHashString@@V?$allocator@VioHashString@@@std@@@std@@@2@XZ PROC ; std::vector<ioHashString,std::allocator<ioHashString> >::begin, COMDAT
; _this$ = ecx

; 786  : 		{	// return iterator for beginning of nonmutable sequence

  00000	55		 push	 ebp
  00001	8b ec		 mov	 ebp, esp

; 787  : 		return (const_iterator(this->_Myfirst, this));

  00003	8b 09		 mov	 ecx, DWORD PTR [ecx]
  00005	8b 45 08	 mov	 eax, DWORD PTR ___$ReturnUdt$[ebp]
  00008	89 08		 mov	 DWORD PTR [eax], ecx

; 788  : 		}

  0000a	5d		 pop	 ebp
  0000b	c2 04 00	 ret	 4
?begin@?$vector@VioHashString@@V?$allocator@VioHashString@@@std@@@std@@QBE?AV?$_Vector_const_iterator@V?$_Vector_val@VioHashString@@V?$allocator@VioHashString@@@std@@@std@@@2@XZ ENDP ; std::vector<ioHashString,std::allocator<ioHashString> >::begin
_TEXT	ENDS
PUBLIC	?end@?$vector@VioHashString@@V?$allocator@VioHashString@@@std@@@std@@QAE?AV?$_Vector_iterator@V?$_Vector_val@VioHashString@@V?$allocator@VioHashString@@@std@@@std@@@2@XZ ; std::vector<ioHashString,std::allocator<ioHashString> >::end
; Function compile flags: /Ogsp
;	COMDAT ?end@?$vector@VioHashString@@V?$allocator@VioHashString@@@std@@@std@@QAE?AV?$_Vector_iterator@V?$_Vector_val@VioHashString@@V?$allocator@VioHashString@@@std@@@std@@@2@XZ
_TEXT	SEGMENT
___$ReturnUdt$ = 8					; size = 4
?end@?$vector@VioHashString@@V?$allocator@VioHashString@@@std@@@std@@QAE?AV?$_Vector_iterator@V?$_Vector_val@VioHashString@@V?$allocator@VioHashString@@@std@@@std@@@2@XZ PROC ; std::vector<ioHashString,std::allocator<ioHashString> >::end, COMDAT
; _this$ = ecx

; 791  : 		{	// return iterator for end of mutable sequence

  00000	55		 push	 ebp
  00001	8b ec		 mov	 ebp, esp

; 792  : 		return (iterator(this->_Mylast, this));

  00003	8b 49 04	 mov	 ecx, DWORD PTR [ecx+4]
  00006	8b 45 08	 mov	 eax, DWORD PTR ___$ReturnUdt$[ebp]
  00009	89 08		 mov	 DWORD PTR [eax], ecx

; 793  : 		}

  0000b	5d		 pop	 ebp
  0000c	c2 04 00	 ret	 4
?end@?$vector@VioHashString@@V?$allocator@VioHashString@@@std@@@std@@QAE?AV?$_Vector_iterator@V?$_Vector_val@VioHashString@@V?$allocator@VioHashString@@@std@@@std@@@2@XZ ENDP ; std::vector<ioHashString,std::allocator<ioHashString> >::end
_TEXT	ENDS
PUBLIC	?end@?$vector@VioHashString@@V?$allocator@VioHashString@@@std@@@std@@QBE?AV?$_Vector_const_iterator@V?$_Vector_val@VioHashString@@V?$allocator@VioHashString@@@std@@@std@@@2@XZ ; std::vector<ioHashString,std::allocator<ioHashString> >::end
; Function compile flags: /Ogsp
;	COMDAT ?end@?$vector@VioHashString@@V?$allocator@VioHashString@@@std@@@std@@QBE?AV?$_Vector_const_iterator@V?$_Vector_val@VioHashString@@V?$allocator@VioHashString@@@std@@@std@@@2@XZ
_TEXT	SEGMENT
___$ReturnUdt$ = 8					; size = 4
?end@?$vector@VioHashString@@V?$allocator@VioHashString@@@std@@@std@@QBE?AV?$_Vector_const_iterator@V?$_Vector_val@VioHashString@@V?$allocator@VioHashString@@@std@@@std@@@2@XZ PROC ; std::vector<ioHashString,std::allocator<ioHashString> >::end, COMDAT
; _this$ = ecx

; 796  : 		{	// return iterator for end of nonmutable sequence

  00000	55		 push	 ebp
  00001	8b ec		 mov	 ebp, esp

; 797  : 		return (const_iterator(this->_Mylast, this));

  00003	8b 49 04	 mov	 ecx, DWORD PTR [ecx+4]
  00006	8b 45 08	 mov	 eax, DWORD PTR ___$ReturnUdt$[ebp]
  00009	89 08		 mov	 DWORD PTR [eax], ecx

; 798  : 		}

  0000b	5d		 pop	 ebp
  0000c	c2 04 00	 ret	 4
?end@?$vector@VioHashString@@V?$allocator@VioHashString@@@std@@@std@@QBE?AV?$_Vector_const_iterator@V?$_Vector_val@VioHashString@@V?$allocator@VioHashString@@@std@@@std@@@2@XZ ENDP ; std::vector<ioHashString,std::allocator<ioHashString> >::end
_TEXT	ENDS
PUBLIC	??0?$_Vector_val@VioHashString@@V?$allocator@VioHashString@@@std@@@std@@QAE@V?$allocator@VioHashString@@@1@@Z ; std::_Vector_val<ioHashString,std::allocator<ioHashString> >::_Vector_val<ioHashString,std::allocator<ioHashString> >
; Function compile flags: /Ogsp
;	COMDAT ??0?$_Vector_val@VioHashString@@V?$allocator@VioHashString@@@std@@@std@@QAE@V?$allocator@VioHashString@@@1@@Z
_TEXT	SEGMENT
__Al$ = 8						; size = 1
??0?$_Vector_val@VioHashString@@V?$allocator@VioHashString@@@std@@@std@@QAE@V?$allocator@VioHashString@@@1@@Z PROC ; std::_Vector_val<ioHashString,std::allocator<ioHashString> >::_Vector_val<ioHashString,std::allocator<ioHashString> >, COMDAT
; _this$ = ecx

; 426  : 		{	// construct allocator from _Al

  00000	8b c1		 mov	 eax, ecx

; 427  : 		_Myfirst = 0;

  00002	33 c9		 xor	 ecx, ecx
  00004	89 08		 mov	 DWORD PTR [eax], ecx

; 428  : 		_Mylast = 0;

  00006	89 48 04	 mov	 DWORD PTR [eax+4], ecx

; 429  : 		_Myend = 0;

  00009	89 48 08	 mov	 DWORD PTR [eax+8], ecx

; 430  : 		}

  0000c	c2 04 00	 ret	 4
??0?$_Vector_val@VioHashString@@V?$allocator@VioHashString@@@std@@@std@@QAE@V?$allocator@VioHashString@@@1@@Z ENDP ; std::_Vector_val<ioHashString,std::allocator<ioHashString> >::_Vector_val<ioHashString,std::allocator<ioHashString> >
_TEXT	ENDS
PUBLIC	??0?$_Vector_val@UtagDummyCharLoadInfo@@V?$allocator@UtagDummyCharLoadInfo@@@std@@@std@@QAE@V?$allocator@UtagDummyCharLoadInfo@@@1@@Z ; std::_Vector_val<tagDummyCharLoadInfo,std::allocator<tagDummyCharLoadInfo> >::_Vector_val<tagDummyCharLoadInfo,std::allocator<tagDummyCharLoadInfo> >
; Function compile flags: /Ogsp
;	COMDAT ??0?$_Vector_val@UtagDummyCharLoadInfo@@V?$allocator@UtagDummyCharLoadInfo@@@std@@@std@@QAE@V?$allocator@UtagDummyCharLoadInfo@@@1@@Z
_TEXT	SEGMENT
__Al$ = 8						; size = 1
??0?$_Vector_val@UtagDummyCharLoadInfo@@V?$allocator@UtagDummyCharLoadInfo@@@std@@@std@@QAE@V?$allocator@UtagDummyCharLoadInfo@@@1@@Z PROC ; std::_Vector_val<tagDummyCharLoadInfo,std::allocator<tagDummyCharLoadInfo> >::_Vector_val<tagDummyCharLoadInfo,std::allocator<tagDummyCharLoadInfo> >, COMDAT
; _this$ = ecx

; 426  : 		{	// construct allocator from _Al

  00000	8b c1		 mov	 eax, ecx

; 427  : 		_Myfirst = 0;

  00002	33 c9		 xor	 ecx, ecx
  00004	89 08		 mov	 DWORD PTR [eax], ecx

; 428  : 		_Mylast = 0;

  00006	89 48 04	 mov	 DWORD PTR [eax+4], ecx

; 429  : 		_Myend = 0;

  00009	89 48 08	 mov	 DWORD PTR [eax+8], ecx

; 430  : 		}

  0000c	c2 04 00	 ret	 4
??0?$_Vector_val@UtagDummyCharLoadInfo@@V?$allocator@UtagDummyCharLoadInfo@@@std@@@std@@QAE@V?$allocator@UtagDummyCharLoadInfo@@@1@@Z ENDP ; std::_Vector_val<tagDummyCharLoadInfo,std::allocator<tagDummyCharLoadInfo> >::_Vector_val<tagDummyCharLoadInfo,std::allocator<tagDummyCharLoadInfo> >
_TEXT	ENDS
PUBLIC	?_Make_iter@?$vector@VioHashString@@V?$allocator@VioHashString@@@std@@@std@@QBE?AV?$_Vector_iterator@V?$_Vector_val@VioHashString@@V?$allocator@VioHashString@@@std@@@std@@@2@V?$_Vector_const_iterator@V?$_Vector_val@VioHashString@@V?$allocator@VioHashString@@@std@@@std@@@2@@Z ; std::vector<ioHashString,std::allocator<ioHashString> >::_Make_iter
; Function compile flags: /Ogsp
;	COMDAT ?_Make_iter@?$vector@VioHashString@@V?$allocator@VioHashString@@@std@@@std@@QBE?AV?$_Vector_iterator@V?$_Vector_val@VioHashString@@V?$allocator@VioHashString@@@std@@@std@@@2@V?$_Vector_const_iterator@V?$_Vector_val@VioHashString@@V?$allocator@VioHashString@@@std@@@std@@@2@@Z
_TEXT	SEGMENT
___$ReturnUdt$ = 8					; size = 4
__Where$ = 12						; size = 4
?_Make_iter@?$vector@VioHashString@@V?$allocator@VioHashString@@@std@@@std@@QBE?AV?$_Vector_iterator@V?$_Vector_val@VioHashString@@V?$allocator@VioHashString@@@std@@@std@@@2@V?$_Vector_const_iterator@V?$_Vector_val@VioHashString@@V?$allocator@VioHashString@@@std@@@std@@@2@@Z PROC ; std::vector<ioHashString,std::allocator<ioHashString> >::_Make_iter, COMDAT
; _this$ = ecx

; 801  : 		{	// make iterator from const_iterator

  00000	55		 push	 ebp
  00001	8b ec		 mov	 ebp, esp

; 802  : 		return (iterator(_Where._Ptr, this));

  00003	8b 45 08	 mov	 eax, DWORD PTR ___$ReturnUdt$[ebp]
  00006	8b 4d 0c	 mov	 ecx, DWORD PTR __Where$[ebp]
  00009	89 08		 mov	 DWORD PTR [eax], ecx

; 803  : 		}

  0000b	5d		 pop	 ebp
  0000c	c2 08 00	 ret	 8
?_Make_iter@?$vector@VioHashString@@V?$allocator@VioHashString@@@std@@@std@@QBE?AV?$_Vector_iterator@V?$_Vector_val@VioHashString@@V?$allocator@VioHashString@@@std@@@std@@@2@V?$_Vector_const_iterator@V?$_Vector_val@VioHashString@@V?$allocator@VioHashString@@@std@@@std@@@2@@Z ENDP ; std::vector<ioHashString,std::allocator<ioHashString> >::_Make_iter
_TEXT	ENDS
PUBLIC	?max_size@?$vector@VioHashString@@V?$allocator@VioHashString@@@std@@@std@@QBEIXZ ; std::vector<ioHashString,std::allocator<ioHashString> >::max_size
; Function compile flags: /Ogsp
;	COMDAT ?max_size@?$vector@VioHashString@@V?$allocator@VioHashString@@@std@@@std@@QBEIXZ
_TEXT	SEGMENT
?max_size@?$vector@VioHashString@@V?$allocator@VioHashString@@@std@@@std@@QBEIXZ PROC ; std::vector<ioHashString,std::allocator<ioHashString> >::max_size, COMDAT
; _this$ = ecx

; 884  : 		return (this->_Alval.max_size());

  00000	b8 ff ff ff 0f	 mov	 eax, 268435455		; 0fffffffH

; 885  : 		}

  00005	c3		 ret	 0
?max_size@?$vector@VioHashString@@V?$allocator@VioHashString@@@std@@@std@@QBEIXZ ENDP ; std::vector<ioHashString,std::allocator<ioHashString> >::max_size
_TEXT	ENDS
PUBLIC	?allocate@?$allocator@VioHashString@@@std@@QAEPAVioHashString@@I@Z ; std::allocator<ioHashString>::allocate
; Function compile flags: /Ogsp
; File c:\program files (x86)\microsoft visual studio 10.0\vc\include\xmemory
;	COMDAT ?allocate@?$allocator@VioHashString@@@std@@QAEPAVioHashString@@I@Z
_TEXT	SEGMENT
__Count$ = 8						; size = 4
?allocate@?$allocator@VioHashString@@@std@@QAEPAVioHashString@@I@Z PROC ; std::allocator<ioHashString>::allocate, COMDAT
; _this$ = ecx

; 186  : 		{	// allocate array of _Count elements

  00000	55		 push	 ebp
  00001	8b ec		 mov	 ebp, esp

; 187  : 		return (_Allocate(_Count, (pointer)0));

  00003	6a 00		 push	 0
  00005	ff 75 08	 push	 DWORD PTR __Count$[ebp]
  00008	e8 00 00 00 00	 call	 ??$_Allocate@VioHashString@@@std@@YAPAVioHashString@@IPAV1@@Z ; std::_Allocate<ioHashString>
  0000d	59		 pop	 ecx
  0000e	59		 pop	 ecx

; 188  : 		}

  0000f	5d		 pop	 ebp
  00010	c2 04 00	 ret	 4
?allocate@?$allocator@VioHashString@@@std@@QAEPAVioHashString@@I@Z ENDP ; std::allocator<ioHashString>::allocate
_TEXT	ENDS
PUBLIC	??0?$_Vector_iterator@V?$_Vector_val@UtagDummyCharLoadInfo@@V?$allocator@UtagDummyCharLoadInfo@@@std@@@std@@@std@@QAE@PAUtagDummyCharLoadInfo@@PBU_Container_base0@1@@Z ; std::_Vector_iterator<std::_Vector_val<tagDummyCharLoadInfo,std::allocator<tagDummyCharLoadInfo> > >::_Vector_iterator<std::_Vector_val<tagDummyCharLoadInfo,std::allocator<tagDummyCharLoadInfo> > >
; Function compile flags: /Ogsp
; File c:\program files (x86)\microsoft visual studio 10.0\vc\include\vector
;	COMDAT ??0?$_Vector_iterator@V?$_Vector_val@UtagDummyCharLoadInfo@@V?$allocator@UtagDummyCharLoadInfo@@@std@@@std@@@std@@QAE@PAUtagDummyCharLoadInfo@@PBU_Container_base0@1@@Z
_TEXT	SEGMENT
__Parg$ = 8						; size = 4
__Pvector$ = 12						; size = 4
??0?$_Vector_iterator@V?$_Vector_val@UtagDummyCharLoadInfo@@V?$allocator@UtagDummyCharLoadInfo@@@std@@@std@@@std@@QAE@PAUtagDummyCharLoadInfo@@PBU_Container_base0@1@@Z PROC ; std::_Vector_iterator<std::_Vector_val<tagDummyCharLoadInfo,std::allocator<tagDummyCharLoadInfo> > >::_Vector_iterator<std::_Vector_val<tagDummyCharLoadInfo,std::allocator<tagDummyCharLoadInfo> > >, COMDAT
; _this$ = ecx

; 304  : 		{	// construct with pointer _Parg

  00000	55		 push	 ebp
  00001	8b ec		 mov	 ebp, esp
  00003	8b c1		 mov	 eax, ecx
  00005	8b 4d 08	 mov	 ecx, DWORD PTR __Parg$[ebp]
  00008	89 08		 mov	 DWORD PTR [eax], ecx

; 305  : 		}

  0000a	5d		 pop	 ebp
  0000b	c2 08 00	 ret	 8
??0?$_Vector_iterator@V?$_Vector_val@UtagDummyCharLoadInfo@@V?$allocator@UtagDummyCharLoadInfo@@@std@@@std@@@std@@QAE@PAUtagDummyCharLoadInfo@@PBU_Container_base0@1@@Z ENDP ; std::_Vector_iterator<std::_Vector_val<tagDummyCharLoadInfo,std::allocator<tagDummyCharLoadInfo> > >::_Vector_iterator<std::_Vector_val<tagDummyCharLoadInfo,std::allocator<tagDummyCharLoadInfo> > >
_TEXT	ENDS
PUBLIC	??8?$_Vector_const_iterator@V?$_Vector_val@VioHashString@@V?$allocator@VioHashString@@@std@@@std@@@std@@QBE_NABV01@@Z ; std::_Vector_const_iterator<std::_Vector_val<ioHashString,std::allocator<ioHashString> > >::operator==
; Function compile flags: /Ogsp
;	COMDAT ??8?$_Vector_const_iterator@V?$_Vector_val@VioHashString@@V?$allocator@VioHashString@@@std@@@std@@@std@@QBE_NABV01@@Z
_TEXT	SEGMENT
__Right$ = 8						; size = 4
??8?$_Vector_const_iterator@V?$_Vector_val@VioHashString@@V?$allocator@VioHashString@@@std@@@std@@@std@@QBE_NABV01@@Z PROC ; std::_Vector_const_iterator<std::_Vector_val<ioHashString,std::allocator<ioHashString> > >::operator==, COMDAT
; _this$ = ecx

; 201  : 		{	// test for iterator equality

  00000	55		 push	 ebp
  00001	8b ec		 mov	 ebp, esp

; 202  : 		_Compat(_Right);
; 203  : 		return (this->_Ptr == _Right._Ptr);

  00003	8b 01		 mov	 eax, DWORD PTR [ecx]
  00005	8b 4d 08	 mov	 ecx, DWORD PTR __Right$[ebp]
  00008	2b 01		 sub	 eax, DWORD PTR [ecx]
  0000a	f7 d8		 neg	 eax
  0000c	1b c0		 sbb	 eax, eax
  0000e	40		 inc	 eax

; 204  : 		}

  0000f	5d		 pop	 ebp
  00010	c2 04 00	 ret	 4
??8?$_Vector_const_iterator@V?$_Vector_val@VioHashString@@V?$allocator@VioHashString@@@std@@@std@@@std@@QBE_NABV01@@Z ENDP ; std::_Vector_const_iterator<std::_Vector_val<ioHashString,std::allocator<ioHashString> > >::operator==
_TEXT	ENDS
PUBLIC	??8?$_Vector_const_iterator@V?$_Vector_val@UtagDummyCharLoadInfo@@V?$allocator@UtagDummyCharLoadInfo@@@std@@@std@@@std@@QBE_NABV01@@Z ; std::_Vector_const_iterator<std::_Vector_val<tagDummyCharLoadInfo,std::allocator<tagDummyCharLoadInfo> > >::operator==
; Function compile flags: /Ogsp
;	COMDAT ??8?$_Vector_const_iterator@V?$_Vector_val@UtagDummyCharLoadInfo@@V?$allocator@UtagDummyCharLoadInfo@@@std@@@std@@@std@@QBE_NABV01@@Z
_TEXT	SEGMENT
__Right$ = 8						; size = 4
??8?$_Vector_const_iterator@V?$_Vector_val@UtagDummyCharLoadInfo@@V?$allocator@UtagDummyCharLoadInfo@@@std@@@std@@@std@@QBE_NABV01@@Z PROC ; std::_Vector_const_iterator<std::_Vector_val<tagDummyCharLoadInfo,std::allocator<tagDummyCharLoadInfo> > >::operator==, COMDAT
; _this$ = ecx

; 201  : 		{	// test for iterator equality

  00000	55		 push	 ebp
  00001	8b ec		 mov	 ebp, esp

; 202  : 		_Compat(_Right);
; 203  : 		return (this->_Ptr == _Right._Ptr);

  00003	8b 01		 mov	 eax, DWORD PTR [ecx]
  00005	8b 4d 08	 mov	 ecx, DWORD PTR __Right$[ebp]
  00008	2b 01		 sub	 eax, DWORD PTR [ecx]
  0000a	f7 d8		 neg	 eax
  0000c	1b c0		 sbb	 eax, eax
  0000e	40		 inc	 eax

; 204  : 		}

  0000f	5d		 pop	 ebp
  00010	c2 04 00	 ret	 4
??8?$_Vector_const_iterator@V?$_Vector_val@UtagDummyCharLoadInfo@@V?$allocator@UtagDummyCharLoadInfo@@@std@@@std@@@std@@QBE_NABV01@@Z ENDP ; std::_Vector_const_iterator<std::_Vector_val<tagDummyCharLoadInfo,std::allocator<tagDummyCharLoadInfo> > >::operator==
_TEXT	ENDS
PUBLIC	??$_Move@PAVioHashString@@PAV1@@std@@YAPAVioHashString@@PAV1@00U_Nonscalar_ptr_iterator_tag@0@@Z ; std::_Move<ioHashString *,ioHashString *>
; Function compile flags: /Ogsp
; File c:\program files (x86)\microsoft visual studio 10.0\vc\include\xutility
;	COMDAT ??$_Move@PAVioHashString@@PAV1@@std@@YAPAVioHashString@@PAV1@00U_Nonscalar_ptr_iterator_tag@0@@Z
_TEXT	SEGMENT
__First$ = 8						; size = 4
__Last$ = 12						; size = 4
__Dest$ = 16						; size = 4
___formal$ = 20						; size = 1
??$_Move@PAVioHashString@@PAV1@@std@@YAPAVioHashString@@PAV1@00U_Nonscalar_ptr_iterator_tag@0@@Z PROC ; std::_Move<ioHashString *,ioHashString *>, COMDAT

; 2512 : 	{	// move [_First, _Last) to [_Dest, ...), arbitrary iterators

  00000	55		 push	 ebp
  00001	8b ec		 mov	 ebp, esp
  00003	56		 push	 esi

; 2513 : 	for (; _First != _Last; ++_Dest, ++_First)

  00004	8b 75 08	 mov	 esi, DWORD PTR __First$[ebp]
  00007	eb 11		 jmp	 SHORT $LN11@Move@2
$LL3@Move@2:

; 2514 : 		*_Dest = _STD move(*_First);

  00009	8b 4d 10	 mov	 ecx, DWORD PTR __Dest$[ebp]
  0000c	56		 push	 esi
  0000d	ff 15 00 00 00
	00		 call	 DWORD PTR __imp_??4ioHashString@@QAEAAV0@ABV0@@Z
  00013	83 45 10 10	 add	 DWORD PTR __Dest$[ebp], 16 ; 00000010H
  00017	83 c6 10	 add	 esi, 16			; 00000010H
$LN11@Move@2:

; 2513 : 	for (; _First != _Last; ++_Dest, ++_First)

  0001a	3b 75 0c	 cmp	 esi, DWORD PTR __Last$[ebp]
  0001d	75 ea		 jne	 SHORT $LL3@Move@2

; 2515 : 	return (_Dest);

  0001f	8b 45 10	 mov	 eax, DWORD PTR __Dest$[ebp]
  00022	5e		 pop	 esi

; 2516 : 	}

  00023	5d		 pop	 ebp
  00024	c3		 ret	 0
??$_Move@PAVioHashString@@PAV1@@std@@YAPAVioHashString@@PAV1@00U_Nonscalar_ptr_iterator_tag@0@@Z ENDP ; std::_Move<ioHashString *,ioHashString *>
_TEXT	ENDS
PUBLIC	??$_Move@PAUtagDummyCharLoadInfo@@PAU1@@std@@YAPAUtagDummyCharLoadInfo@@PAU1@00U_Nonscalar_ptr_iterator_tag@0@@Z ; std::_Move<tagDummyCharLoadInfo *,tagDummyCharLoadInfo *>
; Function compile flags: /Ogsp
;	COMDAT ??$_Move@PAUtagDummyCharLoadInfo@@PAU1@@std@@YAPAUtagDummyCharLoadInfo@@PAU1@00U_Nonscalar_ptr_iterator_tag@0@@Z
_TEXT	SEGMENT
__First$ = 8						; size = 4
__Last$ = 12						; size = 4
__Dest$ = 16						; size = 4
___formal$ = 20						; size = 1
??$_Move@PAUtagDummyCharLoadInfo@@PAU1@@std@@YAPAUtagDummyCharLoadInfo@@PAU1@00U_Nonscalar_ptr_iterator_tag@0@@Z PROC ; std::_Move<tagDummyCharLoadInfo *,tagDummyCharLoadInfo *>, COMDAT

; 2512 : 	{	// move [_First, _Last) to [_Dest, ...), arbitrary iterators

  00000	55		 push	 ebp
  00001	8b ec		 mov	 ebp, esp
  00003	56		 push	 esi

; 2513 : 	for (; _First != _Last; ++_Dest, ++_First)

  00004	8b 75 08	 mov	 esi, DWORD PTR __First$[ebp]
  00007	eb 10		 jmp	 SHORT $LN11@Move@3
$LL3@Move@3:

; 2514 : 		*_Dest = _STD move(*_First);

  00009	8b 4d 10	 mov	 ecx, DWORD PTR __Dest$[ebp]
  0000c	56		 push	 esi
  0000d	e8 00 00 00 00	 call	 ??4tagDummyCharLoadInfo@@QAEAAU0@ABU0@@Z
  00012	83 45 10 1c	 add	 DWORD PTR __Dest$[ebp], 28 ; 0000001cH
  00016	83 c6 1c	 add	 esi, 28			; 0000001cH
$LN11@Move@3:

; 2513 : 	for (; _First != _Last; ++_Dest, ++_First)

  00019	3b 75 0c	 cmp	 esi, DWORD PTR __Last$[ebp]
  0001c	75 eb		 jne	 SHORT $LL3@Move@3

; 2515 : 	return (_Dest);

  0001e	8b 45 10	 mov	 eax, DWORD PTR __Dest$[ebp]
  00021	5e		 pop	 esi

; 2516 : 	}

  00022	5d		 pop	 ebp
  00023	c3		 ret	 0
??$_Move@PAUtagDummyCharLoadInfo@@PAU1@@std@@YAPAUtagDummyCharLoadInfo@@PAU1@00U_Nonscalar_ptr_iterator_tag@0@@Z ENDP ; std::_Move<tagDummyCharLoadInfo *,tagDummyCharLoadInfo *>
_TEXT	ENDS
PUBLIC	??$_Destroy@VioHashString@@@std@@YAXPAVioHashString@@@Z ; std::_Destroy<ioHashString>
; Function compile flags: /Ogsp
; File c:\program files (x86)\microsoft visual studio 10.0\vc\include\xmemory
;	COMDAT ??$_Destroy@VioHashString@@@std@@YAXPAVioHashString@@@Z
_TEXT	SEGMENT
__Ptr$ = 8						; size = 4
??$_Destroy@VioHashString@@@std@@YAXPAVioHashString@@@Z PROC ; std::_Destroy<ioHashString>, COMDAT

; 62   : 	{	// destroy object at _Ptr

  00000	55		 push	 ebp
  00001	8b ec		 mov	 ebp, esp

; 63   : 	_Ptr->~_Ty();

  00003	8b 4d 08	 mov	 ecx, DWORD PTR __Ptr$[ebp]

; 64   : 	}

  00006	5d		 pop	 ebp

; 63   : 	_Ptr->~_Ty();

  00007	ff 25 00 00 00
	00		 jmp	 DWORD PTR __imp_??1ioHashString@@QAE@XZ
??$_Destroy@VioHashString@@@std@@YAXPAVioHashString@@@Z ENDP ; std::_Destroy<ioHashString>
_TEXT	ENDS
PUBLIC	??_GtagDummyCharLoadInfo@@QAEPAXI@Z		; tagDummyCharLoadInfo::`scalar deleting destructor'
; Function compile flags: /Ogsp
;	COMDAT ??_GtagDummyCharLoadInfo@@QAEPAXI@Z
_TEXT	SEGMENT
___flags$ = 8						; size = 4
??_GtagDummyCharLoadInfo@@QAEPAXI@Z PROC		; tagDummyCharLoadInfo::`scalar deleting destructor', COMDAT
; _this$ = ecx
  00000	55		 push	 ebp
  00001	8b ec		 mov	 ebp, esp
  00003	56		 push	 esi
  00004	8b f1		 mov	 esi, ecx
  00006	ff 15 00 00 00
	00		 call	 DWORD PTR __imp_??1ioHashString@@QAE@XZ
  0000c	f6 45 08 01	 test	 BYTE PTR ___flags$[ebp], 1
  00010	74 07		 je	 SHORT $LN1@scalar@5
  00012	56		 push	 esi
  00013	e8 00 00 00 00	 call	 ??3@YAXPAX@Z		; operator delete
  00018	59		 pop	 ecx
$LN1@scalar@5:
  00019	8b c6		 mov	 eax, esi
  0001b	5e		 pop	 esi
  0001c	5d		 pop	 ebp
  0001d	c2 04 00	 ret	 4
??_GtagDummyCharLoadInfo@@QAEPAXI@Z ENDP		; tagDummyCharLoadInfo::`scalar deleting destructor'
_TEXT	ENDS
PUBLIC	?construct@?$allocator@VioHashString@@@std@@QAEXPAVioHashString@@ABV3@@Z ; std::allocator<ioHashString>::construct
; Function compile flags: /Ogsp
;	COMDAT ?construct@?$allocator@VioHashString@@@std@@QAEXPAVioHashString@@ABV3@@Z
_TEXT	SEGMENT
__Ptr$ = 8						; size = 4
__Val$ = 12						; size = 4
?construct@?$allocator@VioHashString@@@std@@QAEXPAVioHashString@@ABV3@@Z PROC ; std::allocator<ioHashString>::construct, COMDAT
; _this$ = ecx

; 196  : 		{	// construct object at _Ptr with value _Val

  00000	55		 push	 ebp
  00001	8b ec		 mov	 ebp, esp

; 197  : 		_Construct(_Ptr, _Val);

  00003	ff 75 0c	 push	 DWORD PTR __Val$[ebp]
  00006	ff 75 08	 push	 DWORD PTR __Ptr$[ebp]
  00009	e8 00 00 00 00	 call	 ??$_Construct@VioHashString@@ABV1@@std@@YAXPAVioHashString@@ABV1@@Z ; std::_Construct<ioHashString,ioHashString const &>
  0000e	59		 pop	 ecx
  0000f	59		 pop	 ecx

; 198  : 		}

  00010	5d		 pop	 ebp
  00011	c2 08 00	 ret	 8
?construct@?$allocator@VioHashString@@@std@@QAEXPAVioHashString@@ABV3@@Z ENDP ; std::allocator<ioHashString>::construct
_TEXT	ENDS
PUBLIC	?GetJumpState@ioBaseChar@@QBE?AW4JumpState@@XZ	; ioBaseChar::GetJumpState
; Function compile flags: /Ogsp
; File d:\lost saga for developer\youtube\tutorial\source\src\lsclient\iobasechar.h
;	COMDAT ?GetJumpState@ioBaseChar@@QBE?AW4JumpState@@XZ
_TEXT	SEGMENT
_value$534533 = -4					; size = 4
?GetJumpState@ioBaseChar@@QBE?AW4JumpState@@XZ PROC	; ioBaseChar::GetJumpState, COMDAT
; _this$ = ecx

; 2158 : 	inline JumpState GetJumpState() const { return m_JumpState; }

  00000	55		 push	 ebp
  00001	8b ec		 mov	 ebp, esp
  00003	51		 push	 ecx
  00004	8d 45 fc	 lea	 eax, DWORD PTR _value$534533[ebp]
  00007	50		 push	 eax
  00008	81 c1 40 0e 00
	00		 add	 ecx, 3648		; 00000e40H
  0000e	e8 00 00 00 00	 call	 ?DecryptValueToPool@?$CEncrypt@W4JumpState@@@@QAEXPAW4JumpState@@@Z ; CEncrypt<enum JumpState>::DecryptValueToPool
  00013	8b 45 fc	 mov	 eax, DWORD PTR _value$534533[ebp]
  00016	c9		 leave
  00017	c3		 ret	 0
?GetJumpState@ioBaseChar@@QBE?AW4JumpState@@XZ ENDP	; ioBaseChar::GetJumpState
_TEXT	ENDS
PUBLIC	?StartBuff@ioCreateDummyChar2Buff@@UAEXPAVioBaseChar@@@Z ; ioCreateDummyChar2Buff::StartBuff
EXTRN	?StartBuff@ioBuff@@UAEXPAVioBaseChar@@@Z:PROC	; ioBuff::StartBuff
; Function compile flags: /Ogsp
; File d:\lost saga for developer\youtube\tutorial\source\src\lsclient\iocreatedummychar2buff.cpp
;	COMDAT ?StartBuff@ioCreateDummyChar2Buff@@UAEXPAVioBaseChar@@@Z
_TEXT	SEGMENT
_value$534540 = 8					; size = 4
_pOwner$ = 8						; size = 4
?StartBuff@ioCreateDummyChar2Buff@@UAEXPAVioBaseChar@@@Z PROC ; ioCreateDummyChar2Buff::StartBuff, COMDAT
; _this$ = ecx

; 63   : {

  00000	55		 push	 ebp
  00001	8b ec		 mov	 ebp, esp
  00003	53		 push	 ebx
  00004	56		 push	 esi

; 64   : 	ioBuff::StartBuff( pOwner );

  00005	ff 75 08	 push	 DWORD PTR _pOwner$[ebp]
  00008	8b f1		 mov	 esi, ecx
  0000a	e8 00 00 00 00	 call	 ?StartBuff@ioBuff@@UAEXPAVioBaseChar@@@Z ; ioBuff::StartBuff

; 65   : 
; 66   : 	if( m_bUseWeaponEquipMesh && pOwner )

  0000f	33 db		 xor	 ebx, ebx
  00011	38 9e 71 09 00
	00		 cmp	 BYTE PTR [esi+2417], bl
  00017	74 16		 je	 SHORT $LN1@StartBuff
  00019	39 5d 08	 cmp	 DWORD PTR _pOwner$[ebp], ebx
  0001c	74 11		 je	 SHORT $LN1@StartBuff

; 67   : 	{
; 68   : 		pOwner->SetChangeEquipMesh( m_ItemName, true );

  0001e	8b 4d 08	 mov	 ecx, DWORD PTR _pOwner$[ebp]
  00021	6a 01		 push	 1
  00023	8d 86 44 02 00
	00		 lea	 eax, DWORD PTR [esi+580]
  00029	50		 push	 eax
  0002a	e8 00 00 00 00	 call	 ?SetChangeEquipMesh@ioBaseChar@@QAEXABVioHashString@@_N@Z ; ioBaseChar::SetChangeEquipMesh
$LN1@StartBuff:

; 69   : 	}
; 70   : 
; 71   : 	m_BuffState = BS_READY;
; 72   : 	m_dwMotionEndTime     = 0;
; 73   : 	m_dwFireMotionEndTime = 0;
; 74   : 	m_dwCreateTime        = 0;
; 75   : 	m_iCurActiveCount     = m_iMaxActiveCount;;

  0002f	8d 45 08	 lea	 eax, DWORD PTR _value$534540[ebp]
  00032	50		 push	 eax
  00033	8d 8e fc 08 00
	00		 lea	 ecx, DWORD PTR [esi+2300]
  00039	89 9e 6c 09 00
	00		 mov	 DWORD PTR [esi+2412], ebx
  0003f	89 9e d4 09 00
	00		 mov	 DWORD PTR [esi+2516], ebx
  00045	89 9e d8 09 00
	00		 mov	 DWORD PTR [esi+2520], ebx
  0004b	89 9e dc 09 00
	00		 mov	 DWORD PTR [esi+2524], ebx
  00051	e8 00 00 00 00	 call	 ?DecryptValueToPool@?$CEncrypt@H@@QAEXPAH@Z ; CEncrypt<int>::DecryptValueToPool
  00056	8b 45 08	 mov	 eax, DWORD PTR _value$534540[ebp]
  00059	89 86 2c 09 00
	00		 mov	 DWORD PTR [esi+2348], eax
  0005f	5e		 pop	 esi
  00060	5b		 pop	 ebx

; 76   : }

  00061	5d		 pop	 ebp
  00062	c2 04 00	 ret	 4
?StartBuff@ioCreateDummyChar2Buff@@UAEXPAVioBaseChar@@@Z ENDP ; ioCreateDummyChar2Buff::StartBuff
_TEXT	ENDS
PUBLIC	?CheckOwnerStateCheck@ioCreateDummyChar2Buff@@IAE_NXZ ; ioCreateDummyChar2Buff::CheckOwnerStateCheck
EXTRN	?SetState@ioBaseChar@@QAEXH_N@Z:PROC		; ioBaseChar::SetState
EXTRN	?IsApplyDownState@ioBaseChar@@QAE_N_N@Z:PROC	; ioBaseChar::IsApplyDownState
EXTRN	?SetReserveEndBuff@ioBuff@@QAEXXZ:PROC		; ioBuff::SetReserveEndBuff
EXTRN	?CheckUseBuffSkill@ioBaseChar@@QAEXABVioHashString@@_N@Z:PROC ; ioBaseChar::CheckUseBuffSkill
EXTRN	?IsFloatingState@ioBaseChar@@QBE_NXZ:PROC	; ioBaseChar::IsFloatingState
; Function compile flags: /Ogsp
;	COMDAT ?CheckOwnerStateCheck@ioCreateDummyChar2Buff@@IAE_NXZ
_TEXT	SEGMENT
_value$534561 = -1					; size = 1
?CheckOwnerStateCheck@ioCreateDummyChar2Buff@@IAE_NXZ PROC ; ioCreateDummyChar2Buff::CheckOwnerStateCheck, COMDAT
; _this$ = ecx

; 152  : {

  00000	55		 push	 ebp
  00001	8b ec		 mov	 ebp, esp
  00003	51		 push	 ecx
  00004	56		 push	 esi
  00005	8b f1		 mov	 esi, ecx

; 153  : 	if( !m_pOwner ) return false;

  00007	8b 8e 74 02 00
	00		 mov	 ecx, DWORD PTR [esi+628]
  0000d	85 c9		 test	 ecx, ecx
  0000f	75 07		 jne	 SHORT $LN26@CheckOwner
  00011	32 c0		 xor	 al, al
  00013	e9 cd 00 00 00	 jmp	 $LN27@CheckOwner
$LN26@CheckOwner:

; 154  : 
; 155  : 	CharState eState = m_pOwner->GetState();
; 156  : 
; 157  : 	bool bDown = false;
; 158  : 	if( m_bDisableDownState )

  00018	80 be 70 09 00
	00 00		 cmp	 BYTE PTR [esi+2416], 0
  0001f	53		 push	 ebx
  00020	8a 99 10 03 00
	00		 mov	 bl, BYTE PTR [ecx+784]
  00026	74 1f		 je	 SHORT $LN11@CheckOwner

; 159  : 	{
; 160  : 		if( eState == CS_FROZEN && m_pOwner->GetBlowFrozenState() )

  00028	80 fb 17	 cmp	 bl, 23			; 00000017H
  0002b	75 0c		 jne	 SHORT $LN24@CheckOwner
  0002d	80 b9 c5 15 00
	00 00		 cmp	 BYTE PTR [ecx+5573], 0

; 161  : 			bDown = true;

  00034	e9 85 00 00 00	 jmp	 $LN42@CheckOwner
$LN24@CheckOwner:

; 162  : 		else if( eState == CS_BLOW_WOUNDED && !m_pOwner->IsFloatingState() )

  00039	80 fb 0c	 cmp	 bl, 12			; 0000000cH
  0003c	75 55		 jne	 SHORT $LN22@CheckOwner
$LN44@CheckOwner:
  0003e	e8 00 00 00 00	 call	 ?IsFloatingState@ioBaseChar@@QBE_NXZ ; ioBaseChar::IsFloatingState
  00043	84 c0		 test	 al, al
  00045	74 79		 je	 SHORT $LN12@CheckOwner
$LN11@CheckOwner:

; 185  : 		}
; 186  : 	}
; 187  : 
; 188  : 	bool bWound = false;
; 189  : 	if( m_bEnableWoundCancel )

  00047	8d 45 ff	 lea	 eax, DWORD PTR _value$534561[ebp]
  0004a	50		 push	 eax
  0004b	8d 8e a8 06 00
	00		 lea	 ecx, DWORD PTR [esi+1704]
  00051	e8 00 00 00 00	 call	 ?DecryptValueToPool@?$CEncrypt@_N@@QAEXPA_N@Z ; CEncrypt<bool>::DecryptValueToPool
  00056	80 7d ff 00	 cmp	 BYTE PTR _value$534561[ebp], 0
  0005a	0f 84 82 00 00
	00		 je	 $LN1@CheckOwner

; 190  : 	{
; 191  : 		if( eState == CS_BLOW_WOUNDED )

  00060	80 fb 0c	 cmp	 bl, 12			; 0000000cH

; 192  : 			bWound = true;

  00063	74 0f		 je	 SHORT $LN2@CheckOwner

; 193  : 		else if( eState == CS_BOUND_BLOW_WOUNDED )

  00065	80 fb 31	 cmp	 bl, 49			; 00000031H

; 194  : 			bWound = true;

  00068	74 0a		 je	 SHORT $LN2@CheckOwner

; 195  : 		else if( eState == CS_WOUNDED )

  0006a	80 fb 0b	 cmp	 bl, 11			; 0000000bH

; 196  : 			bWound = true;

  0006d	74 05		 je	 SHORT $LN2@CheckOwner

; 197  : 		else if( eState == CS_ETC_STATE )

  0006f	80 fb 0f	 cmp	 bl, 15			; 0000000fH
  00072	75 6e		 jne	 SHORT $LN1@CheckOwner
$LN2@CheckOwner:

; 198  : 			bWound = true;
; 199  : 
; 200  : 		if( bWound )
; 201  : 		{
; 202  : 			m_pOwner->CheckUseBuffSkill( m_Name, false );

  00074	8b 8e 74 02 00
	00		 mov	 ecx, DWORD PTR [esi+628]
  0007a	6a 00		 push	 0
  0007c	8d 86 34 02 00
	00		 lea	 eax, DWORD PTR [esi+564]
  00082	50		 push	 eax
  00083	e8 00 00 00 00	 call	 ?CheckUseBuffSkill@ioBaseChar@@QAEXABVioHashString@@_N@Z ; ioBaseChar::CheckUseBuffSkill

; 203  : 			SetReserveEndBuff();

  00088	8b ce		 mov	 ecx, esi
  0008a	e8 00 00 00 00	 call	 ?SetReserveEndBuff@ioBuff@@QAEXXZ ; ioBuff::SetReserveEndBuff

; 204  : 			return true;

  0008f	b0 01		 mov	 al, 1
  00091	eb 51		 jmp	 SHORT $LN41@CheckOwner
$LN22@CheckOwner:

; 163  : 			bDown = true;
; 164  : 		else if( eState == CS_BOUND_BLOW_WOUNDED && !m_pOwner->IsFloatingState() )

  00093	80 fb 31	 cmp	 bl, 49			; 00000031H

; 165  : 			bDown = true;

  00096	74 a6		 je	 SHORT $LN44@CheckOwner

; 166  : 		else if( eState == CS_ETC_STATE && m_pOwner->IsApplyDownState(false) )

  00098	80 fb 0f	 cmp	 bl, 15			; 0000000fH
  0009b	75 0b		 jne	 SHORT $LN18@CheckOwner
  0009d	6a 00		 push	 0
  0009f	e8 00 00 00 00	 call	 ?IsApplyDownState@ioBaseChar@@QAE_N_N@Z ; ioBaseChar::IsApplyDownState
  000a4	84 c0		 test	 al, al

; 167  : 			bDown = true;

  000a6	eb 16		 jmp	 SHORT $LN42@CheckOwner
$LN18@CheckOwner:

; 168  : 		else if( eState == CS_STOP_MOTION && m_pOwner->GetBlowStopMotionState() )

  000a8	80 fb 26	 cmp	 bl, 38			; 00000026H

; 169  : 			bDown = true;

  000ab	74 0a		 je	 SHORT $LN43@CheckOwner

; 170  : 		else if( eState == CS_DROP_ZONE_DOWN )

  000ad	80 fb 10	 cmp	 bl, 16			; 00000010H

; 171  : 			bDown = true;

  000b0	74 0e		 je	 SHORT $LN12@CheckOwner

; 172  : 		else if( eState == CS_ICE_STATE && m_pOwner->GetBlowStopMotionState() )

  000b2	80 fb 3b	 cmp	 bl, 59			; 0000003bH
  000b5	75 90		 jne	 SHORT $LN11@CheckOwner
$LN43@CheckOwner:
  000b7	80 b9 c7 15 00
	00 00		 cmp	 BYTE PTR [ecx+5575], 0
$LN42@CheckOwner:
  000be	74 87		 je	 SHORT $LN11@CheckOwner
$LN12@CheckOwner:

; 173  : 			bDown = true;
; 174  : 
; 175  : 		if( bDown )
; 176  : 		{
; 177  : 			if( CheckRestoreStateCheck() )

  000c0	8b ce		 mov	 ecx, esi
  000c2	e8 00 00 00 00	 call	 ?CheckRestoreStateCheck@ioCreateDummyChar2Buff@@IAE_NXZ ; ioCreateDummyChar2Buff::CheckRestoreStateCheck
  000c7	84 c0		 test	 al, al
  000c9	74 a9		 je	 SHORT $LN2@CheckOwner

; 178  : 			{
; 179  : 				m_pOwner->SetState( CS_DELAY, m_bSendDelayNetWork );

  000cb	0f b6 86 f9 08
	00 00		 movzx	 eax, BYTE PTR [esi+2297]
  000d2	8b 8e 74 02 00
	00		 mov	 ecx, DWORD PTR [esi+628]
  000d8	50		 push	 eax
  000d9	6a 00		 push	 0
  000db	e8 00 00 00 00	 call	 ?SetState@ioBaseChar@@QAEXH_N@Z ; ioBaseChar::SetState

; 180  : 			}
; 181  : 
; 182  : 			m_pOwner->CheckUseBuffSkill( m_Name, false );
; 183  : 			SetReserveEndBuff();
; 184  : 			return true;

  000e0	eb 92		 jmp	 SHORT $LN2@CheckOwner
$LN1@CheckOwner:

; 205  : 		}
; 206  : 	}
; 207  : 
; 208  : 	return false;

  000e2	32 c0		 xor	 al, al
$LN41@CheckOwner:
  000e4	5b		 pop	 ebx
$LN27@CheckOwner:
  000e5	5e		 pop	 esi

; 209  : }

  000e6	c9		 leave
  000e7	c3		 ret	 0
?CheckOwnerStateCheck@ioCreateDummyChar2Buff@@IAE_NXZ ENDP ; ioCreateDummyChar2Buff::CheckOwnerStateCheck
_TEXT	ENDS
PUBLIC	__real@41f0000000000000
PUBLIC	__real@4f800000
PUBLIC	?SetCreateDummyState@ioCreateDummyChar2Buff@@IAEXPAVioBaseChar@@@Z ; ioCreateDummyChar2Buff::SetCreateDummyState
EXTRN	__imp_?GetAnimationFullTime@ioEntityGroup@@QAEMH@Z:PROC
EXTRN	__imp_?SetActionAni@ioEntityGroup@@QAE_NHMMMMMM_N0@Z:PROC
EXTRN	__imp_?ClearAllLoopAni@ioEntityGroup@@QAEXM_N@Z:PROC
EXTRN	__imp_?ClearAllActionAni@ioEntityGroup@@QAEXM_N@Z:PROC
EXTRN	__imp_?GetAnimationIdx@ioEntityGroup@@QAEHABVioHashString@@@Z:PROC
EXTRN	__ftol2:PROC
;	COMDAT __real@41f0000000000000
; File d:\lost saga for developer\youtube\tutorial\source\src\lsclient\encryptvalue.h
CONST	SEGMENT
__real@41f0000000000000 DQ 041f0000000000000r	; 4.29497e+009
CONST	ENDS
;	COMDAT __real@4f800000
CONST	SEGMENT
__real@4f800000 DD 04f800000r			; 4.29497e+009
CONST	ENDS
;	COMDAT xdata$x
xdata$x	SEGMENT
__unwindtable$?SetCreateDummyState@ioCreateDummyChar2Buff@@IAEXPAVioBaseChar@@@Z DD 0ffffffffH
	DD	FLAT:__unwindfunclet$?SetCreateDummyState@ioCreateDummyChar2Buff@@IAEXPAVioBaseChar@@@Z$0
	DD	0ffffffffH
	DD	FLAT:__unwindfunclet$?SetCreateDummyState@ioCreateDummyChar2Buff@@IAEXPAVioBaseChar@@@Z$1
__ehfuncinfo$?SetCreateDummyState@ioCreateDummyChar2Buff@@IAEXPAVioBaseChar@@@Z DD 019930522H
	DD	02H
	DD	FLAT:__unwindtable$?SetCreateDummyState@ioCreateDummyChar2Buff@@IAEXPAVioBaseChar@@@Z
	DD	2 DUP(00H)
	DD	2 DUP(00H)
	DD	00H
	DD	01H
; Function compile flags: /Ogsp
; File d:\lost saga for developer\youtube\tutorial\source\src\lsclient\iocreatedummychar2buff.cpp
xdata$x	ENDS
;	COMDAT ?SetCreateDummyState@ioCreateDummyChar2Buff@@IAEXPAVioBaseChar@@@Z
_TEXT	SEGMENT
$T534622 = -100						; size = 16
$T534762 = -84						; size = 16
tv1673 = -68						; size = 4
_pGrp$ = -64						; size = 4
_iAniID$530715 = -60					; size = 4
tv1980 = -56						; size = 4
_value$534874 = -56					; size = 4
_value$534735 = -56					; size = 4
$T534584 = -56						; size = 4
tv1994 = -52						; size = 4
tv1989 = -52						; size = 4
tv1977 = -52						; size = 4
tv1975 = -52						; size = 4
tv1973 = -52						; size = 4
tv1971 = -52						; size = 4
tv1946 = -52						; size = 4
tv1936 = -52						; size = 4
tv1925 = -52						; size = 4
$T534761 = -52						; size = 4
$T534621 = -52						; size = 4
_value$534739 = -52					; size = 4
_value$534588 = -52					; size = 4
_szEncEventType$534775 = -48				; size = 13
_szEncEventType$534635 = -28				; size = 7
__$EHRec$ = -12						; size = 12
_pOwner$ = 8						; size = 4
?SetCreateDummyState@ioCreateDummyChar2Buff@@IAEXPAVioBaseChar@@@Z PROC ; ioCreateDummyChar2Buff::SetCreateDummyState, COMDAT
; _this$ = ecx

; 343  : {

  00000	6a 58		 push	 88			; 00000058H
  00002	b8 00 00 00 00	 mov	 eax, __ehhandler$?SetCreateDummyState@ioCreateDummyChar2Buff@@IAEXPAVioBaseChar@@@Z
  00007	e8 00 00 00 00	 call	 __EH_prolog3_GS
  0000c	8b 45 08	 mov	 eax, DWORD PTR _pOwner$[ebp]

; 344  : 	m_BuffState = BS_CREATE_DUMMY;

  0000f	33 db		 xor	 ebx, ebx
  00011	43		 inc	 ebx
  00012	8b f1		 mov	 esi, ecx
  00014	89 9e 6c 09 00
	00		 mov	 DWORD PTR [esi+2412], ebx

; 345  : 
; 346  : 	ioEntityGroup *pGrp = pOwner->GetGroup();

  0001a	8b 78 04	 mov	 edi, DWORD PTR [eax+4]
  0001d	89 7d c0	 mov	 DWORD PTR _pGrp$[ebp], edi

; 347  : 	if( pGrp )

  00020	85 ff		 test	 edi, edi
  00022	0f 84 8b 02 00
	00		 je	 $LN1@SetCreateD

; 348  : 	{
; 349  : 		int iAniID = pGrp->GetAnimationIdx( m_szActionAnimation );

  00028	8d 86 74 09 00
	00		 lea	 eax, DWORD PTR [esi+2420]
  0002e	50		 push	 eax
  0002f	8b cf		 mov	 ecx, edi
  00031	ff 15 00 00 00
	00		 call	 DWORD PTR __imp_?GetAnimationIdx@ioEntityGroup@@QAEHABVioHashString@@@Z
  00037	89 45 c4	 mov	 DWORD PTR _iAniID$530715[ebp], eax

; 350  : 		pGrp->ClearAllActionAni( FLOAT100, true );

  0003a	b8 64 00 00 00	 mov	 eax, 100		; 00000064H
  0003f	89 45 cc	 mov	 DWORD PTR tv1994[ebp], eax
  00042	db 45 cc	 fild	 DWORD PTR tv1994[ebp]
  00045	53		 push	 ebx
  00046	85 c0		 test	 eax, eax
  00048	79 06		 jns	 SHORT $LN249@SetCreateD
  0004a	d8 05 00 00 00
	00		 fadd	 DWORD PTR __real@4f800000
$LN249@SetCreateD:
  00050	51		 push	 ecx
  00051	8b cf		 mov	 ecx, edi
  00053	d9 1c 24	 fstp	 DWORD PTR [esp]
  00056	ff 15 00 00 00
	00		 call	 DWORD PTR __imp_?ClearAllActionAni@ioEntityGroup@@QAEXM_N@Z

; 351  : 		pGrp->ClearAllLoopAni( FLOAT100, true );

  0005c	b8 64 00 00 00	 mov	 eax, 100		; 00000064H
  00061	89 45 cc	 mov	 DWORD PTR tv1989[ebp], eax
  00064	db 45 cc	 fild	 DWORD PTR tv1989[ebp]
  00067	53		 push	 ebx
  00068	85 c0		 test	 eax, eax
  0006a	79 06		 jns	 SHORT $LN250@SetCreateD
  0006c	d8 05 00 00 00
	00		 fadd	 DWORD PTR __real@4f800000
$LN250@SetCreateD:
  00072	51		 push	 ecx
  00073	8b cf		 mov	 ecx, edi
  00075	d9 1c 24	 fstp	 DWORD PTR [esp]
  00078	ff 15 00 00 00
	00		 call	 DWORD PTR __imp_?ClearAllLoopAni@ioEntityGroup@@QAEXM_N@Z

; 352  : 		pGrp->SetActionAni( iAniID, FLOAT100, FLOAT100, FLOAT1, FLOAT1/m_fActionAniRate );

  0007e	b8 01 00 00 00	 mov	 eax, 1
  00083	89 45 c8	 mov	 DWORD PTR $T534584[ebp], eax
  00086	8d 45 cc	 lea	 eax, DWORD PTR _value$534588[ebp]
  00089	8d 8e 84 09 00
	00		 lea	 ecx, DWORD PTR [esi+2436]
  0008f	50		 push	 eax
  00090	89 4d bc	 mov	 DWORD PTR tv1673[ebp], ecx
  00093	e8 00 00 00 00	 call	 ?DecryptValueToPool@?$CEncrypt@M@@QAEXPAM@Z ; CEncrypt<float>::DecryptValueToPool
  00098	b8 01 00 00 00	 mov	 eax, 1
  0009d	8b c8		 mov	 ecx, eax
  0009f	b8 64 00 00 00	 mov	 eax, 100		; 00000064H
  000a4	8b d0		 mov	 edx, eax
  000a6	b8 64 00 00 00	 mov	 eax, 100		; 00000064H
  000ab	db 45 c8	 fild	 DWORD PTR $T534584[ebp]
  000ae	0f 57 c0	 xorps	 xmm0, xmm0
  000b1	53		 push	 ebx
  000b2	8b 5d c8	 mov	 ebx, DWORD PTR $T534584[ebp]
  000b5	6a 00		 push	 0
  000b7	83 ec 18	 sub	 esp, 24			; 00000018H
  000ba	f3 0f 11 44 24
	14		 movss	 DWORD PTR [esp+20], xmm0
  000c0	f3 0f 11 44 24
	10		 movss	 DWORD PTR [esp+16], xmm0
  000c6	85 db		 test	 ebx, ebx
  000c8	79 06		 jns	 SHORT $LN251@SetCreateD
  000ca	d8 05 00 00 00
	00		 fadd	 DWORD PTR __real@4f800000
$LN251@SetCreateD:
  000d0	d8 75 cc	 fdiv	 DWORD PTR _value$534588[ebp]
  000d3	d9 5d cc	 fstp	 DWORD PTR tv1977[ebp]
  000d6	d9 45 cc	 fld	 DWORD PTR tv1977[ebp]
  000d9	d9 5c 24 0c	 fstp	 DWORD PTR [esp+12]
  000dd	89 4d cc	 mov	 DWORD PTR tv1975[ebp], ecx
  000e0	db 45 cc	 fild	 DWORD PTR tv1975[ebp]
  000e3	85 c9		 test	 ecx, ecx
  000e5	79 06		 jns	 SHORT $LN252@SetCreateD
  000e7	d8 05 00 00 00
	00		 fadd	 DWORD PTR __real@4f800000
$LN252@SetCreateD:
  000ed	d9 5c 24 08	 fstp	 DWORD PTR [esp+8]
  000f1	89 55 cc	 mov	 DWORD PTR tv1973[ebp], edx
  000f4	db 45 cc	 fild	 DWORD PTR tv1973[ebp]
  000f7	85 d2		 test	 edx, edx
  000f9	79 06		 jns	 SHORT $LN253@SetCreateD
  000fb	d8 05 00 00 00
	00		 fadd	 DWORD PTR __real@4f800000
$LN253@SetCreateD:
  00101	d9 5c 24 04	 fstp	 DWORD PTR [esp+4]
  00105	89 45 cc	 mov	 DWORD PTR tv1971[ebp], eax
  00108	db 45 cc	 fild	 DWORD PTR tv1971[ebp]
  0010b	85 c0		 test	 eax, eax
  0010d	79 06		 jns	 SHORT $LN254@SetCreateD
  0010f	d8 05 00 00 00
	00		 fadd	 DWORD PTR __real@4f800000
$LN254@SetCreateD:
  00115	d9 1c 24	 fstp	 DWORD PTR [esp]
  00118	ff 75 c4	 push	 DWORD PTR _iAniID$530715[ebp]
  0011b	8b cf		 mov	 ecx, edi
  0011d	ff 15 00 00 00
	00		 call	 DWORD PTR __imp_?SetActionAni@ioEntityGroup@@QAE_NHMMMMMM_N0@Z

; 353  : 
; 354  : 		m_dwCreateTime = m_dwMotionEndTime = m_dwFireMotionEndTime = FRAMEGETTIME();

  00123	ff 15 00 00 00
	00		 call	 DWORD PTR __imp_?GetSingleton@ioFrameTimer@@SAAAV1@XZ
  00129	8b c8		 mov	 ecx, eax
  0012b	ff 15 00 00 00
	00		 call	 DWORD PTR __imp_?GetLoopSec@ioFrameTimer@@QBEKXZ

; 355  : 		m_dwCreateTime += pGrp->GetAnimationEventTime_e( iAniID, "fire_s" ) * m_fActionAniRate;

  00131	6a 04		 push	 4
  00133	89 86 d8 09 00
	00		 mov	 DWORD PTR [esi+2520], eax
  00139	89 86 d4 09 00
	00		 mov	 DWORD PTR [esi+2516], eax
  0013f	89 86 dc 09 00
	00		 mov	 DWORD PTR [esi+2524], eax
  00145	c7 45 e4 8b 85
	99 8f		 mov	 DWORD PTR _szEncEventType$534635[ebp], -1885764213 ; 8f99858bH
  0014c	81 75 e4 ed ec
	eb ea		 xor	 DWORD PTR _szEncEventType$534635[ebp], -353637139 ; eaebecedH
  00153	66 c7 45 e8 b2
	9f		 mov	 WORD PTR _szEncEventType$534635[ebp+4], 40882 ; 00009fb2H
  00159	c6 45 ea 00	 mov	 BYTE PTR _szEncEventType$534635[ebp+6], 0
  0015d	58		 pop	 eax
$LL121@SetCreateD:
  0015e	8b c8		 mov	 ecx, eax
  00160	81 e1 03 00 00
	80		 and	 ecx, -2147483645	; 80000003H
  00166	79 05		 jns	 SHORT $LN255@SetCreateD
  00168	49		 dec	 ecx
  00169	83 c9 fc	 or	 ecx, -4			; fffffffcH
  0016c	41		 inc	 ecx
$LN255@SetCreateD:
  0016d	b2 ed		 mov	 dl, -19			; ffffffedH
  0016f	2a d1		 sub	 dl, cl
  00171	30 54 05 e4	 xor	 BYTE PTR _szEncEventType$534635[ebp+eax], dl
  00175	40		 inc	 eax
  00176	83 f8 06	 cmp	 eax, 6
  00179	7c e3		 jl	 SHORT $LL121@SetCreateD
  0017b	8d 45 e4	 lea	 eax, DWORD PTR _szEncEventType$534635[ebp]
  0017e	50		 push	 eax
  0017f	8d 4d 9c	 lea	 ecx, DWORD PTR $T534622[ebp]
  00182	ff 15 00 00 00
	00		 call	 DWORD PTR __imp_??0ioHashString@@QAE@PBD@Z
  00188	8b 4d c0	 mov	 ecx, DWORD PTR _pGrp$[ebp]
  0018b	83 65 fc 00	 and	 DWORD PTR __$EHRec$[ebp+8], 0
  0018f	8d 45 9c	 lea	 eax, DWORD PTR $T534622[ebp]
  00192	50		 push	 eax
  00193	ff 75 c4	 push	 DWORD PTR _iAniID$530715[ebp]
  00196	ff 15 00 00 00
	00		 call	 DWORD PTR __imp_?GetAnimationEventTime@ioEntityGroup@@QAEMHABVioHashString@@@Z
  0019c	d9 5d cc	 fstp	 DWORD PTR $T534621[ebp]
  0019f	83 4d fc ff	 or	 DWORD PTR __$EHRec$[ebp+8], -1
  001a3	8d 4d 9c	 lea	 ecx, DWORD PTR $T534622[ebp]
  001a6	ff 15 00 00 00
	00		 call	 DWORD PTR __imp_??1ioHashString@@QAE@XZ
  001ac	8b 4d bc	 mov	 ecx, DWORD PTR tv1673[ebp]
  001af	8d 45 c8	 lea	 eax, DWORD PTR _value$534735[ebp]
  001b2	50		 push	 eax
  001b3	e8 00 00 00 00	 call	 ?DecryptValueToPool@?$CEncrypt@M@@QAEXPAM@Z ; CEncrypt<float>::DecryptValueToPool
  001b8	d9 45 cc	 fld	 DWORD PTR $T534621[ebp]
  001bb	8b 86 dc 09 00
	00		 mov	 eax, DWORD PTR [esi+2524]
  001c1	d8 4d c8	 fmul	 DWORD PTR _value$534735[ebp]
  001c4	db 86 dc 09 00
	00		 fild	 DWORD PTR [esi+2524]
  001ca	85 c0		 test	 eax, eax
  001cc	79 06		 jns	 SHORT $LN256@SetCreateD
  001ce	dc 05 00 00 00
	00		 fadd	 QWORD PTR __real@41f0000000000000
$LN256@SetCreateD:
  001d4	de c1		 faddp	 ST(1), ST(0)
  001d6	e8 00 00 00 00	 call	 __ftol2

; 356  : 		m_dwMotionEndTime  += pGrp->GetAnimationFullTime( iAniID ) * m_fActionAniRate;

  001db	8b 4d bc	 mov	 ecx, DWORD PTR tv1673[ebp]
  001de	89 86 dc 09 00
	00		 mov	 DWORD PTR [esi+2524], eax
  001e4	8d 45 cc	 lea	 eax, DWORD PTR _value$534739[ebp]
  001e7	50		 push	 eax
  001e8	e8 00 00 00 00	 call	 ?DecryptValueToPool@?$CEncrypt@M@@QAEXPAM@Z ; CEncrypt<float>::DecryptValueToPool
  001ed	ff 75 c4	 push	 DWORD PTR _iAniID$530715[ebp]
  001f0	8b 4d c0	 mov	 ecx, DWORD PTR _pGrp$[ebp]
  001f3	ff 15 00 00 00
	00		 call	 DWORD PTR __imp_?GetAnimationFullTime@ioEntityGroup@@QAEMH@Z
  001f9	d8 4d cc	 fmul	 DWORD PTR _value$534739[ebp]
  001fc	8b 86 d4 09 00
	00		 mov	 eax, DWORD PTR [esi+2516]
  00202	db 86 d4 09 00
	00		 fild	 DWORD PTR [esi+2516]
  00208	85 c0		 test	 eax, eax
  0020a	79 06		 jns	 SHORT $LN257@SetCreateD
  0020c	dc 05 00 00 00
	00		 fadd	 QWORD PTR __real@41f0000000000000
$LN257@SetCreateD:
  00212	de c1		 faddp	 ST(1), ST(0)
  00214	e8 00 00 00 00	 call	 __ftol2
  00219	6a 03		 push	 3
  0021b	89 86 d4 09 00
	00		 mov	 DWORD PTR [esi+2516], eax

; 357  : 		m_dwFireMotionEndTime += pGrp->GetAnimationEventTime_e( iAniID, "firemotion_e" ) * m_fActionAniRate;

  00221	c7 45 d0 8b 85
	99 8f		 mov	 DWORD PTR _szEncEventType$534775[ebp], -1885764213 ; 8f99858bH
  00228	c7 45 d4 80 83
	9f 83		 mov	 DWORD PTR _szEncEventType$534775[ebp+4], -2086698112 ; 839f8380H
  0022f	c7 45 d8 82 82
	b4 8f		 mov	 DWORD PTR _szEncEventType$534775[ebp+8], -1883995518 ; 8fb48282H
  00236	8d 45 d0	 lea	 eax, DWORD PTR _szEncEventType$534775[ebp]
  00239	c6 45 dc 00	 mov	 BYTE PTR _szEncEventType$534775[ebp+12], 0
  0023d	59		 pop	 ecx
$LL235@SetCreateD:
  0023e	81 30 ed ec eb
	ea		 xor	 DWORD PTR [eax], -353637139 ; eaebecedH
  00244	83 c0 04	 add	 eax, 4
  00247	49		 dec	 ecx
  00248	75 f4		 jne	 SHORT $LL235@SetCreateD
  0024a	8d 45 d0	 lea	 eax, DWORD PTR _szEncEventType$534775[ebp]
  0024d	50		 push	 eax
  0024e	8d 4d ac	 lea	 ecx, DWORD PTR $T534762[ebp]
  00251	ff 15 00 00 00
	00		 call	 DWORD PTR __imp_??0ioHashString@@QAE@PBD@Z
  00257	8b 4d c0	 mov	 ecx, DWORD PTR _pGrp$[ebp]
  0025a	8d 45 ac	 lea	 eax, DWORD PTR $T534762[ebp]
  0025d	50		 push	 eax
  0025e	ff 75 c4	 push	 DWORD PTR _iAniID$530715[ebp]
  00261	c7 45 fc 01 00
	00 00		 mov	 DWORD PTR __$EHRec$[ebp+8], 1
  00268	ff 15 00 00 00
	00		 call	 DWORD PTR __imp_?GetAnimationEventTime@ioEntityGroup@@QAEMHABVioHashString@@@Z
  0026e	d9 5d cc	 fstp	 DWORD PTR $T534761[ebp]
  00271	83 4d fc ff	 or	 DWORD PTR __$EHRec$[ebp+8], -1
  00275	8d 4d ac	 lea	 ecx, DWORD PTR $T534762[ebp]
  00278	ff 15 00 00 00
	00		 call	 DWORD PTR __imp_??1ioHashString@@QAE@XZ
  0027e	8b 4d bc	 mov	 ecx, DWORD PTR tv1673[ebp]
  00281	8d 45 c8	 lea	 eax, DWORD PTR _value$534874[ebp]
  00284	50		 push	 eax
  00285	e8 00 00 00 00	 call	 ?DecryptValueToPool@?$CEncrypt@M@@QAEXPAM@Z ; CEncrypt<float>::DecryptValueToPool
  0028a	d9 45 cc	 fld	 DWORD PTR $T534761[ebp]
  0028d	8b 86 d8 09 00
	00		 mov	 eax, DWORD PTR [esi+2520]
  00293	d8 4d c8	 fmul	 DWORD PTR _value$534874[ebp]
  00296	db 86 d8 09 00
	00		 fild	 DWORD PTR [esi+2520]
  0029c	85 c0		 test	 eax, eax
  0029e	79 06		 jns	 SHORT $LN258@SetCreateD
  002a0	dc 05 00 00 00
	00		 fadd	 QWORD PTR __real@41f0000000000000
$LN258@SetCreateD:
  002a6	de c1		 faddp	 ST(1), ST(0)
  002a8	e8 00 00 00 00	 call	 __ftol2
  002ad	89 86 d8 09 00
	00		 mov	 DWORD PTR [esi+2520], eax
$LN1@SetCreateD:

; 358  : 	}
; 359  : }

  002b3	e8 00 00 00 00	 call	 __EH_epilog3_GS
  002b8	c2 04 00	 ret	 4
_TEXT	ENDS
;	COMDAT text$x
text$x	SEGMENT
__unwindfunclet$?SetCreateDummyState@ioCreateDummyChar2Buff@@IAEXPAVioBaseChar@@@Z$0:
  00000	8d 4d 9c	 lea	 ecx, DWORD PTR $T534622[ebp]
  00003	ff 25 00 00 00
	00		 jmp	 DWORD PTR __imp_??1ioHashString@@QAE@XZ
__unwindfunclet$?SetCreateDummyState@ioCreateDummyChar2Buff@@IAEXPAVioBaseChar@@@Z$1:
  00009	8d 4d ac	 lea	 ecx, DWORD PTR $T534762[ebp]
  0000c	ff 25 00 00 00
	00		 jmp	 DWORD PTR __imp_??1ioHashString@@QAE@XZ
__ehhandler$?SetCreateDummyState@ioCreateDummyChar2Buff@@IAEXPAVioBaseChar@@@Z:
  00012	8b 54 24 08	 mov	 edx, DWORD PTR [esp+8]
  00016	8d 42 0c	 lea	 eax, DWORD PTR [edx+12]
  00019	8b 4a 98	 mov	 ecx, DWORD PTR [edx-104]
  0001c	33 c8		 xor	 ecx, eax
  0001e	e8 00 00 00 00	 call	 @__security_check_cookie@4
  00023	8b 4a fc	 mov	 ecx, DWORD PTR [edx-4]
  00026	33 c8		 xor	 ecx, eax
  00028	e8 00 00 00 00	 call	 @__security_check_cookie@4
  0002d	b8 00 00 00 00	 mov	 eax, OFFSET __ehfuncinfo$?SetCreateDummyState@ioCreateDummyChar2Buff@@IAEXPAVioBaseChar@@@Z
  00032	e9 00 00 00 00	 jmp	 ___CxxFrameHandler3
text$x	ENDS
?SetCreateDummyState@ioCreateDummyChar2Buff@@IAEXPAVioBaseChar@@@Z ENDP ; ioCreateDummyChar2Buff::SetCreateDummyState
PUBLIC	??0?$vector@UtagDummyCharCreateInfo@@V?$allocator@UtagDummyCharCreateInfo@@@std@@@std@@QAE@XZ ; std::vector<tagDummyCharCreateInfo,std::allocator<tagDummyCharCreateInfo> >::vector<tagDummyCharCreateInfo,std::allocator<tagDummyCharCreateInfo> >
; Function compile flags: /Ogsp
; File c:\program files (x86)\microsoft visual studio 10.0\vc\include\vector
;	COMDAT ??0?$vector@UtagDummyCharCreateInfo@@V?$allocator@UtagDummyCharCreateInfo@@@std@@@std@@QAE@XZ
_TEXT	SEGMENT
??0?$vector@UtagDummyCharCreateInfo@@V?$allocator@UtagDummyCharCreateInfo@@@std@@@std@@QAE@XZ PROC ; std::vector<tagDummyCharCreateInfo,std::allocator<tagDummyCharCreateInfo> >::vector<tagDummyCharCreateInfo,std::allocator<tagDummyCharCreateInfo> >, COMDAT
; _this$ = ecx

; 507  : 		{	// construct empty vector

  00000	8b c1		 mov	 eax, ecx
  00002	33 c9		 xor	 ecx, ecx
  00004	89 08		 mov	 DWORD PTR [eax], ecx
  00006	89 48 04	 mov	 DWORD PTR [eax+4], ecx
  00009	89 48 08	 mov	 DWORD PTR [eax+8], ecx

; 508  : 		}

  0000c	c3		 ret	 0
??0?$vector@UtagDummyCharCreateInfo@@V?$allocator@UtagDummyCharCreateInfo@@@std@@@std@@QAE@XZ ENDP ; std::vector<tagDummyCharCreateInfo,std::allocator<tagDummyCharCreateInfo> >::vector<tagDummyCharCreateInfo,std::allocator<tagDummyCharCreateInfo> >
_TEXT	ENDS
PUBLIC	?_Buy@?$vector@UtagDummyCharLoadInfo@@V?$allocator@UtagDummyCharLoadInfo@@@std@@@std@@IAE_NI@Z ; std::vector<tagDummyCharLoadInfo,std::allocator<tagDummyCharLoadInfo> >::_Buy
; Function compile flags: /Ogsp
;	COMDAT ?_Buy@?$vector@UtagDummyCharLoadInfo@@V?$allocator@UtagDummyCharLoadInfo@@@std@@@std@@IAE_NI@Z
_TEXT	SEGMENT
__Capacity$ = 8						; size = 4
?_Buy@?$vector@UtagDummyCharLoadInfo@@V?$allocator@UtagDummyCharLoadInfo@@@std@@@std@@IAE_NI@Z PROC ; std::vector<tagDummyCharLoadInfo,std::allocator<tagDummyCharLoadInfo> >::_Buy, COMDAT
; _this$ = ecx

; 1250 : 		{	// allocate array with _Capacity elements

  00000	55		 push	 ebp
  00001	8b ec		 mov	 ebp, esp
  00003	56		 push	 esi

; 1251 : 		this->_Myfirst = 0;

  00004	33 c0		 xor	 eax, eax
  00006	57		 push	 edi

; 1252 : 		this->_Mylast = 0;
; 1253 : 		this->_Myend = 0;
; 1254 : 
; 1255 : 		if (_Capacity == 0)

  00007	8b 7d 08	 mov	 edi, DWORD PTR __Capacity$[ebp]
  0000a	8b f1		 mov	 esi, ecx
  0000c	89 06		 mov	 DWORD PTR [esi], eax
  0000e	89 46 04	 mov	 DWORD PTR [esi+4], eax
  00011	89 46 08	 mov	 DWORD PTR [esi+8], eax
  00014	3b f8		 cmp	 edi, eax
  00016	75 04		 jne	 SHORT $LN4@Buy

; 1256 : 			return (false);

  00018	32 c0		 xor	 al, al
  0001a	eb 2b		 jmp	 SHORT $LN5@Buy
$LN4@Buy:

; 1257 : 		else if (max_size() < _Capacity)

  0001c	81 ff 49 92 24
	09		 cmp	 edi, 153391689		; 09249249H
  00022	76 0b		 jbe	 SHORT $LN2@Buy

; 1258 : 			_Xlen();	// result too long

  00024	68 00 00 00 00	 push	 OFFSET ??_C@_0BD@OLBABOEK@vector?$DMT?$DO?5too?5long?$AA@
  00029	ff 15 00 00 00
	00		 call	 DWORD PTR __imp_?_Xlength_error@std@@YAXPBD@Z
$LN19@Buy:
$LN2@Buy:

; 1259 : 		else
; 1260 : 			{	// nonempty array, allocate storage
; 1261 : 			this->_Myfirst = this->_Alval.allocate(_Capacity);

  0002f	50		 push	 eax
  00030	57		 push	 edi
  00031	e8 00 00 00 00	 call	 ??$_Allocate@UtagDummyCharLoadInfo@@@std@@YAPAUtagDummyCharLoadInfo@@IPAU1@@Z ; std::_Allocate<tagDummyCharLoadInfo>

; 1262 : 			this->_Mylast = this->_Myfirst;
; 1263 : 			this->_Myend = this->_Myfirst + _Capacity;

  00036	6b ff 1c	 imul	 edi, 28			; 0000001cH
  00039	03 f8		 add	 edi, eax
  0003b	59		 pop	 ecx
  0003c	89 06		 mov	 DWORD PTR [esi], eax
  0003e	89 46 04	 mov	 DWORD PTR [esi+4], eax
  00041	59		 pop	 ecx
  00042	89 7e 08	 mov	 DWORD PTR [esi+8], edi

; 1264 : 			}
; 1265 : 		return (true);

  00045	b0 01		 mov	 al, 1
$LN5@Buy:
  00047	5f		 pop	 edi
  00048	5e		 pop	 esi

; 1266 : 		}

  00049	5d		 pop	 ebp
  0004a	c2 04 00	 ret	 4
$LN18@Buy:
?_Buy@?$vector@UtagDummyCharLoadInfo@@V?$allocator@UtagDummyCharLoadInfo@@@std@@@std@@IAE_NI@Z ENDP ; std::vector<tagDummyCharLoadInfo,std::allocator<tagDummyCharLoadInfo> >::_Buy
_TEXT	ENDS
PUBLIC	?begin@?$vector@UtagDummyCharCreateInfo@@V?$allocator@UtagDummyCharCreateInfo@@@std@@@std@@QAE?AV?$_Vector_iterator@V?$_Vector_val@UtagDummyCharCreateInfo@@V?$allocator@UtagDummyCharCreateInfo@@@std@@@std@@@2@XZ ; std::vector<tagDummyCharCreateInfo,std::allocator<tagDummyCharCreateInfo> >::begin
; Function compile flags: /Ogsp
;	COMDAT ?begin@?$vector@UtagDummyCharCreateInfo@@V?$allocator@UtagDummyCharCreateInfo@@@std@@@std@@QAE?AV?$_Vector_iterator@V?$_Vector_val@UtagDummyCharCreateInfo@@V?$allocator@UtagDummyCharCreateInfo@@@std@@@std@@@2@XZ
_TEXT	SEGMENT
___$ReturnUdt$ = 8					; size = 4
?begin@?$vector@UtagDummyCharCreateInfo@@V?$allocator@UtagDummyCharCreateInfo@@@std@@@std@@QAE?AV?$_Vector_iterator@V?$_Vector_val@UtagDummyCharCreateInfo@@V?$allocator@UtagDummyCharCreateInfo@@@std@@@std@@@2@XZ PROC ; std::vector<tagDummyCharCreateInfo,std::allocator<tagDummyCharCreateInfo> >::begin, COMDAT
; _this$ = ecx

; 781  : 		{	// return iterator for beginning of mutable sequence

  00000	55		 push	 ebp
  00001	8b ec		 mov	 ebp, esp

; 782  : 		return (iterator(this->_Myfirst, this));

  00003	8b 09		 mov	 ecx, DWORD PTR [ecx]
  00005	8b 45 08	 mov	 eax, DWORD PTR ___$ReturnUdt$[ebp]
  00008	89 08		 mov	 DWORD PTR [eax], ecx

; 783  : 		}

  0000a	5d		 pop	 ebp
  0000b	c2 04 00	 ret	 4
?begin@?$vector@UtagDummyCharCreateInfo@@V?$allocator@UtagDummyCharCreateInfo@@@std@@@std@@QAE?AV?$_Vector_iterator@V?$_Vector_val@UtagDummyCharCreateInfo@@V?$allocator@UtagDummyCharCreateInfo@@@std@@@std@@@2@XZ ENDP ; std::vector<tagDummyCharCreateInfo,std::allocator<tagDummyCharCreateInfo> >::begin
_TEXT	ENDS
PUBLIC	?end@?$vector@UtagDummyCharCreateInfo@@V?$allocator@UtagDummyCharCreateInfo@@@std@@@std@@QAE?AV?$_Vector_iterator@V?$_Vector_val@UtagDummyCharCreateInfo@@V?$allocator@UtagDummyCharCreateInfo@@@std@@@std@@@2@XZ ; std::vector<tagDummyCharCreateInfo,std::allocator<tagDummyCharCreateInfo> >::end
; Function compile flags: /Ogsp
;	COMDAT ?end@?$vector@UtagDummyCharCreateInfo@@V?$allocator@UtagDummyCharCreateInfo@@@std@@@std@@QAE?AV?$_Vector_iterator@V?$_Vector_val@UtagDummyCharCreateInfo@@V?$allocator@UtagDummyCharCreateInfo@@@std@@@std@@@2@XZ
_TEXT	SEGMENT
___$ReturnUdt$ = 8					; size = 4
?end@?$vector@UtagDummyCharCreateInfo@@V?$allocator@UtagDummyCharCreateInfo@@@std@@@std@@QAE?AV?$_Vector_iterator@V?$_Vector_val@UtagDummyCharCreateInfo@@V?$allocator@UtagDummyCharCreateInfo@@@std@@@std@@@2@XZ PROC ; std::vector<tagDummyCharCreateInfo,std::allocator<tagDummyCharCreateInfo> >::end, COMDAT
; _this$ = ecx

; 791  : 		{	// return iterator for end of mutable sequence

  00000	55		 push	 ebp
  00001	8b ec		 mov	 ebp, esp

; 792  : 		return (iterator(this->_Mylast, this));

  00003	8b 49 04	 mov	 ecx, DWORD PTR [ecx+4]
  00006	8b 45 08	 mov	 eax, DWORD PTR ___$ReturnUdt$[ebp]
  00009	89 08		 mov	 DWORD PTR [eax], ecx

; 793  : 		}

  0000b	5d		 pop	 ebp
  0000c	c2 04 00	 ret	 4
?end@?$vector@UtagDummyCharCreateInfo@@V?$allocator@UtagDummyCharCreateInfo@@@std@@@std@@QAE?AV?$_Vector_iterator@V?$_Vector_val@UtagDummyCharCreateInfo@@V?$allocator@UtagDummyCharCreateInfo@@@std@@@std@@@2@XZ ENDP ; std::vector<tagDummyCharCreateInfo,std::allocator<tagDummyCharCreateInfo> >::end
_TEXT	ENDS
PUBLIC	?_Make_iter@?$vector@UtagDummyCharCreateInfo@@V?$allocator@UtagDummyCharCreateInfo@@@std@@@std@@QBE?AV?$_Vector_iterator@V?$_Vector_val@UtagDummyCharCreateInfo@@V?$allocator@UtagDummyCharCreateInfo@@@std@@@std@@@2@V?$_Vector_const_iterator@V?$_Vector_val@UtagDummyCharCreateInfo@@V?$allocator@UtagDummyCharCreateInfo@@@std@@@std@@@2@@Z ; std::vector<tagDummyCharCreateInfo,std::allocator<tagDummyCharCreateInfo> >::_Make_iter
; Function compile flags: /Ogsp
;	COMDAT ?_Make_iter@?$vector@UtagDummyCharCreateInfo@@V?$allocator@UtagDummyCharCreateInfo@@@std@@@std@@QBE?AV?$_Vector_iterator@V?$_Vector_val@UtagDummyCharCreateInfo@@V?$allocator@UtagDummyCharCreateInfo@@@std@@@std@@@2@V?$_Vector_const_iterator@V?$_Vector_val@UtagDummyCharCreateInfo@@V?$allocator@UtagDummyCharCreateInfo@@@std@@@std@@@2@@Z
_TEXT	SEGMENT
___$ReturnUdt$ = 8					; size = 4
__Where$ = 12						; size = 4
?_Make_iter@?$vector@UtagDummyCharCreateInfo@@V?$allocator@UtagDummyCharCreateInfo@@@std@@@std@@QBE?AV?$_Vector_iterator@V?$_Vector_val@UtagDummyCharCreateInfo@@V?$allocator@UtagDummyCharCreateInfo@@@std@@@std@@@2@V?$_Vector_const_iterator@V?$_Vector_val@UtagDummyCharCreateInfo@@V?$allocator@UtagDummyCharCreateInfo@@@std@@@std@@@2@@Z PROC ; std::vector<tagDummyCharCreateInfo,std::allocator<tagDummyCharCreateInfo> >::_Make_iter, COMDAT
; _this$ = ecx

; 801  : 		{	// make iterator from const_iterator

  00000	55		 push	 ebp
  00001	8b ec		 mov	 ebp, esp

; 802  : 		return (iterator(_Where._Ptr, this));

  00003	8b 45 08	 mov	 eax, DWORD PTR ___$ReturnUdt$[ebp]
  00006	8b 4d 0c	 mov	 ecx, DWORD PTR __Where$[ebp]
  00009	89 08		 mov	 DWORD PTR [eax], ecx

; 803  : 		}

  0000b	5d		 pop	 ebp
  0000c	c2 08 00	 ret	 8
?_Make_iter@?$vector@UtagDummyCharCreateInfo@@V?$allocator@UtagDummyCharCreateInfo@@@std@@@std@@QBE?AV?$_Vector_iterator@V?$_Vector_val@UtagDummyCharCreateInfo@@V?$allocator@UtagDummyCharCreateInfo@@@std@@@std@@@2@V?$_Vector_const_iterator@V?$_Vector_val@UtagDummyCharCreateInfo@@V?$allocator@UtagDummyCharCreateInfo@@@std@@@std@@@2@@Z ENDP ; std::vector<tagDummyCharCreateInfo,std::allocator<tagDummyCharCreateInfo> >::_Make_iter
_TEXT	ENDS
PUBLIC	??9?$_Vector_const_iterator@V?$_Vector_val@UtagDummyCharCreateInfo@@V?$allocator@UtagDummyCharCreateInfo@@@std@@@std@@@std@@QBE_NABV01@@Z ; std::_Vector_const_iterator<std::_Vector_val<tagDummyCharCreateInfo,std::allocator<tagDummyCharCreateInfo> > >::operator!=
; Function compile flags: /Ogsp
;	COMDAT ??9?$_Vector_const_iterator@V?$_Vector_val@UtagDummyCharCreateInfo@@V?$allocator@UtagDummyCharCreateInfo@@@std@@@std@@@std@@QBE_NABV01@@Z
_TEXT	SEGMENT
__Right$ = 8						; size = 4
??9?$_Vector_const_iterator@V?$_Vector_val@UtagDummyCharCreateInfo@@V?$allocator@UtagDummyCharCreateInfo@@@std@@@std@@@std@@QBE_NABV01@@Z PROC ; std::_Vector_const_iterator<std::_Vector_val<tagDummyCharCreateInfo,std::allocator<tagDummyCharCreateInfo> > >::operator!=, COMDAT
; _this$ = ecx

; 207  : 		{	// test for iterator inequality

  00000	55		 push	 ebp
  00001	8b ec		 mov	 ebp, esp

; 208  : 		return (!(*this == _Right));

  00003	8b 01		 mov	 eax, DWORD PTR [ecx]
  00005	8b 55 08	 mov	 edx, DWORD PTR __Right$[ebp]
  00008	33 c9		 xor	 ecx, ecx
  0000a	3b 02		 cmp	 eax, DWORD PTR [edx]
  0000c	0f 95 c0	 setne	 al

; 209  : 		}

  0000f	5d		 pop	 ebp
  00010	c2 04 00	 ret	 4
??9?$_Vector_const_iterator@V?$_Vector_val@UtagDummyCharCreateInfo@@V?$allocator@UtagDummyCharCreateInfo@@@std@@@std@@@std@@QBE_NABV01@@Z ENDP ; std::_Vector_const_iterator<std::_Vector_val<tagDummyCharCreateInfo,std::allocator<tagDummyCharCreateInfo> > >::operator!=
_TEXT	ENDS
PUBLIC	??$_Cons_val@V?$allocator@UtagDummyCharCreateInfo@@@std@@UtagDummyCharCreateInfo@@AAU3@@std@@YAXAAV?$allocator@UtagDummyCharCreateInfo@@@0@PAUtagDummyCharCreateInfo@@AAU2@@Z ; std::_Cons_val<std::allocator<tagDummyCharCreateInfo>,tagDummyCharCreateInfo,tagDummyCharCreateInfo &>
;	COMDAT xdata$x
; File c:\program files (x86)\microsoft visual studio 10.0\vc\include\utility
xdata$x	SEGMENT
__unwindtable$??$_Cons_val@V?$allocator@UtagDummyCharCreateInfo@@@std@@UtagDummyCharCreateInfo@@AAU3@@std@@YAXAAV?$allocator@UtagDummyCharCreateInfo@@@0@PAUtagDummyCharCreateInfo@@AAU2@@Z DD 0ffffffffH
	DD	FLAT:__unwindfunclet$??$_Cons_val@V?$allocator@UtagDummyCharCreateInfo@@@std@@UtagDummyCharCreateInfo@@AAU3@@std@@YAXAAV?$allocator@UtagDummyCharCreateInfo@@@0@PAUtagDummyCharCreateInfo@@AAU2@@Z$0
__ehfuncinfo$??$_Cons_val@V?$allocator@UtagDummyCharCreateInfo@@@std@@UtagDummyCharCreateInfo@@AAU3@@std@@YAXAAV?$allocator@UtagDummyCharCreateInfo@@@0@PAUtagDummyCharCreateInfo@@AAU2@@Z DD 019930522H
	DD	01H
	DD	FLAT:__unwindtable$??$_Cons_val@V?$allocator@UtagDummyCharCreateInfo@@@std@@UtagDummyCharCreateInfo@@AAU3@@std@@YAXAAV?$allocator@UtagDummyCharCreateInfo@@@0@PAUtagDummyCharCreateInfo@@AAU2@@Z
	DD	2 DUP(00H)
	DD	2 DUP(00H)
	DD	00H
	DD	01H
; Function compile flags: /Ogsp
; File c:\program files (x86)\microsoft visual studio 10.0\vc\include\xmemory
xdata$x	ENDS
;	COMDAT ??$_Cons_val@V?$allocator@UtagDummyCharCreateInfo@@@std@@UtagDummyCharCreateInfo@@AAU3@@std@@YAXAAV?$allocator@UtagDummyCharCreateInfo@@@0@PAUtagDummyCharCreateInfo@@AAU2@@Z
_TEXT	SEGMENT
$T535033 = -16						; size = 4
__$EHRec$ = -12						; size = 12
__Alval$ = 8						; size = 4
__Pdest$ = 12						; size = 4
__Src$ = 16						; size = 4
??$_Cons_val@V?$allocator@UtagDummyCharCreateInfo@@@std@@UtagDummyCharCreateInfo@@AAU3@@std@@YAXAAV?$allocator@UtagDummyCharCreateInfo@@@0@PAUtagDummyCharCreateInfo@@AAU2@@Z PROC ; std::_Cons_val<std::allocator<tagDummyCharCreateInfo>,tagDummyCharCreateInfo,tagDummyCharCreateInfo &>, COMDAT

; 279  : 	{	// construct using allocator

  00000	6a 04		 push	 4
  00002	b8 00 00 00 00	 mov	 eax, __ehhandler$??$_Cons_val@V?$allocator@UtagDummyCharCreateInfo@@@std@@UtagDummyCharCreateInfo@@AAU3@@std@@YAXAAV?$allocator@UtagDummyCharCreateInfo@@@0@PAUtagDummyCharCreateInfo@@AAU2@@Z
  00007	e8 00 00 00 00	 call	 __EH_prolog3

; 280  : 	_Alval.construct(_Pdest, _STD forward<_Ty2>(_Src));

  0000c	8b 4d 0c	 mov	 ecx, DWORD PTR __Pdest$[ebp]
  0000f	89 4d f0	 mov	 DWORD PTR $T535033[ebp], ecx
  00012	83 65 fc 00	 and	 DWORD PTR __$EHRec$[ebp+8], 0
  00016	85 c9		 test	 ecx, ecx
  00018	74 08		 je	 SHORT $LN7@Cons_val
  0001a	ff 75 10	 push	 DWORD PTR __Src$[ebp]
  0001d	e8 00 00 00 00	 call	 ??0tagDummyCharCreateInfo@@QAE@ABU0@@Z
$LN7@Cons_val:

; 281  : 	}

  00022	e8 00 00 00 00	 call	 __EH_epilog3
  00027	c3		 ret	 0
_TEXT	ENDS
;	COMDAT text$x
text$x	SEGMENT
__unwindfunclet$??$_Cons_val@V?$allocator@UtagDummyCharCreateInfo@@@std@@UtagDummyCharCreateInfo@@AAU3@@std@@YAXAAV?$allocator@UtagDummyCharCreateInfo@@@0@PAUtagDummyCharCreateInfo@@AAU2@@Z$0:
  00000	ff 75 0c	 push	 DWORD PTR __Pdest$[ebp]
  00003	ff 75 f0	 push	 DWORD PTR $T535033[ebp]
  00006	e8 00 00 00 00	 call	 ??3@YAXPAX0@Z		; operator delete
  0000b	59		 pop	 ecx
  0000c	59		 pop	 ecx
  0000d	c3		 ret	 0
__ehhandler$??$_Cons_val@V?$allocator@UtagDummyCharCreateInfo@@@std@@UtagDummyCharCreateInfo@@AAU3@@std@@YAXAAV?$allocator@UtagDummyCharCreateInfo@@@0@PAUtagDummyCharCreateInfo@@AAU2@@Z:
  0000e	8b 54 24 08	 mov	 edx, DWORD PTR [esp+8]
  00012	8d 42 0c	 lea	 eax, DWORD PTR [edx+12]
  00015	8b 4a ec	 mov	 ecx, DWORD PTR [edx-20]
  00018	33 c8		 xor	 ecx, eax
  0001a	e8 00 00 00 00	 call	 @__security_check_cookie@4
  0001f	b8 00 00 00 00	 mov	 eax, OFFSET __ehfuncinfo$??$_Cons_val@V?$allocator@UtagDummyCharCreateInfo@@@std@@UtagDummyCharCreateInfo@@AAU3@@std@@YAXAAV?$allocator@UtagDummyCharCreateInfo@@@0@PAUtagDummyCharCreateInfo@@AAU2@@Z
  00024	e9 00 00 00 00	 jmp	 ___CxxFrameHandler3
text$x	ENDS
??$_Cons_val@V?$allocator@UtagDummyCharCreateInfo@@@std@@UtagDummyCharCreateInfo@@AAU3@@std@@YAXAAV?$allocator@UtagDummyCharCreateInfo@@@0@PAUtagDummyCharCreateInfo@@AAU2@@Z ENDP ; std::_Cons_val<std::allocator<tagDummyCharCreateInfo>,tagDummyCharCreateInfo,tagDummyCharCreateInfo &>
PUBLIC	??$_Move@PAUtagDummyCharCreateInfo@@PAU1@@std@@YAPAUtagDummyCharCreateInfo@@PAU1@00@Z ; std::_Move<tagDummyCharCreateInfo *,tagDummyCharCreateInfo *>
; Function compile flags: /Ogsp
; File c:\program files (x86)\microsoft visual studio 10.0\vc\include\xutility
;	COMDAT ??$_Move@PAUtagDummyCharCreateInfo@@PAU1@@std@@YAPAUtagDummyCharCreateInfo@@PAU1@00@Z
_TEXT	SEGMENT
__Cat$535051 = -4					; size = 1
__First$ = 8						; size = 4
__Last$ = 12						; size = 4
__Dest$ = 16						; size = 4
??$_Move@PAUtagDummyCharCreateInfo@@PAU1@@std@@YAPAUtagDummyCharCreateInfo@@PAU1@00@Z PROC ; std::_Move<tagDummyCharCreateInfo *,tagDummyCharCreateInfo *>, COMDAT

; 2533 : 	{	// move [_First, _Last) to [_Dest, ...), unchecked

  00000	55		 push	 ebp
  00001	8b ec		 mov	 ebp, esp
  00003	51		 push	 ecx

; 2534 : 	return (_Move(_First, _Last,
; 2535 : 		_Dest, _Ptr_cat(_First, _Dest)));

  00004	ff 75 fc	 push	 DWORD PTR __Cat$535051[ebp]
  00007	ff 75 10	 push	 DWORD PTR __Dest$[ebp]
  0000a	ff 75 0c	 push	 DWORD PTR __Last$[ebp]
  0000d	ff 75 08	 push	 DWORD PTR __First$[ebp]
  00010	e8 00 00 00 00	 call	 ??$_Move@PAUtagDummyCharCreateInfo@@PAU1@@std@@YAPAUtagDummyCharCreateInfo@@PAU1@00U_Nonscalar_ptr_iterator_tag@0@@Z ; std::_Move<tagDummyCharCreateInfo *,tagDummyCharCreateInfo *>
  00015	83 c4 10	 add	 esp, 16			; 00000010H

; 2536 : 	}

  00018	c9		 leave
  00019	c3		 ret	 0
??$_Move@PAUtagDummyCharCreateInfo@@PAU1@@std@@YAPAUtagDummyCharCreateInfo@@PAU1@00@Z ENDP ; std::_Move<tagDummyCharCreateInfo *,tagDummyCharCreateInfo *>
_TEXT	ENDS
PUBLIC	?construct@?$allocator@UtagDummyCharCreateInfo@@@std@@QAEXPAUtagDummyCharCreateInfo@@ABU3@@Z ; std::allocator<tagDummyCharCreateInfo>::construct
; Function compile flags: /Ogsp
; File c:\program files (x86)\microsoft visual studio 10.0\vc\include\xmemory
;	COMDAT ?construct@?$allocator@UtagDummyCharCreateInfo@@@std@@QAEXPAUtagDummyCharCreateInfo@@ABU3@@Z
_TEXT	SEGMENT
__Ptr$ = 8						; size = 4
__Val$ = 12						; size = 4
?construct@?$allocator@UtagDummyCharCreateInfo@@@std@@QAEXPAUtagDummyCharCreateInfo@@ABU3@@Z PROC ; std::allocator<tagDummyCharCreateInfo>::construct, COMDAT
; _this$ = ecx

; 196  : 		{	// construct object at _Ptr with value _Val

  00000	55		 push	 ebp
  00001	8b ec		 mov	 ebp, esp

; 197  : 		_Construct(_Ptr, _Val);

  00003	ff 75 0c	 push	 DWORD PTR __Val$[ebp]
  00006	ff 75 08	 push	 DWORD PTR __Ptr$[ebp]
  00009	e8 00 00 00 00	 call	 ??$_Construct@UtagDummyCharCreateInfo@@ABU1@@std@@YAXPAUtagDummyCharCreateInfo@@ABU1@@Z ; std::_Construct<tagDummyCharCreateInfo,tagDummyCharCreateInfo const &>
  0000e	59		 pop	 ecx
  0000f	59		 pop	 ecx

; 198  : 		}

  00010	5d		 pop	 ebp
  00011	c2 08 00	 ret	 8
?construct@?$allocator@UtagDummyCharCreateInfo@@@std@@QAEXPAUtagDummyCharCreateInfo@@ABU3@@Z ENDP ; std::allocator<tagDummyCharCreateInfo>::construct
_TEXT	ENDS
PUBLIC	?destroy@?$allocator@UtagDummyCharCreateInfo@@@std@@QAEXPAUtagDummyCharCreateInfo@@@Z ; std::allocator<tagDummyCharCreateInfo>::destroy
; Function compile flags: /Ogsp
;	COMDAT ?destroy@?$allocator@UtagDummyCharCreateInfo@@@std@@QAEXPAUtagDummyCharCreateInfo@@@Z
_TEXT	SEGMENT
__Ptr$ = 8						; size = 4
?destroy@?$allocator@UtagDummyCharCreateInfo@@@std@@QAEXPAUtagDummyCharCreateInfo@@@Z PROC ; std::allocator<tagDummyCharCreateInfo>::destroy, COMDAT
; _this$ = ecx

; 212  : 		{	// destroy object at _Ptr

  00000	55		 push	 ebp
  00001	8b ec		 mov	 ebp, esp

; 213  : 		_Destroy(_Ptr);

  00003	8b 4d 08	 mov	 ecx, DWORD PTR __Ptr$[ebp]
  00006	ff 15 00 00 00
	00		 call	 DWORD PTR __imp_??1ioHashString@@QAE@XZ

; 214  : 		}

  0000c	5d		 pop	 ebp
  0000d	c2 04 00	 ret	 4
?destroy@?$allocator@UtagDummyCharCreateInfo@@@std@@QAEXPAUtagDummyCharCreateInfo@@@Z ENDP ; std::allocator<tagDummyCharCreateInfo>::destroy
_TEXT	ENDS
PUBLIC	??$_Cons_val@V?$allocator@UtagDummyCharCreateInfo@@@std@@UtagDummyCharCreateInfo@@U3@@std@@YAXAAV?$allocator@UtagDummyCharCreateInfo@@@0@PAUtagDummyCharCreateInfo@@$$QAU2@@Z ; std::_Cons_val<std::allocator<tagDummyCharCreateInfo>,tagDummyCharCreateInfo,tagDummyCharCreateInfo>
;	COMDAT xdata$x
; File c:\program files (x86)\microsoft visual studio 10.0\vc\include\utility
xdata$x	SEGMENT
__unwindtable$??$_Cons_val@V?$allocator@UtagDummyCharCreateInfo@@@std@@UtagDummyCharCreateInfo@@U3@@std@@YAXAAV?$allocator@UtagDummyCharCreateInfo@@@0@PAUtagDummyCharCreateInfo@@$$QAU2@@Z DD 0ffffffffH
	DD	FLAT:__unwindfunclet$??$_Cons_val@V?$allocator@UtagDummyCharCreateInfo@@@std@@UtagDummyCharCreateInfo@@U3@@std@@YAXAAV?$allocator@UtagDummyCharCreateInfo@@@0@PAUtagDummyCharCreateInfo@@$$QAU2@@Z$0
__ehfuncinfo$??$_Cons_val@V?$allocator@UtagDummyCharCreateInfo@@@std@@UtagDummyCharCreateInfo@@U3@@std@@YAXAAV?$allocator@UtagDummyCharCreateInfo@@@0@PAUtagDummyCharCreateInfo@@$$QAU2@@Z DD 019930522H
	DD	01H
	DD	FLAT:__unwindtable$??$_Cons_val@V?$allocator@UtagDummyCharCreateInfo@@@std@@UtagDummyCharCreateInfo@@U3@@std@@YAXAAV?$allocator@UtagDummyCharCreateInfo@@@0@PAUtagDummyCharCreateInfo@@$$QAU2@@Z
	DD	2 DUP(00H)
	DD	2 DUP(00H)
	DD	00H
	DD	01H
; Function compile flags: /Ogsp
; File c:\program files (x86)\microsoft visual studio 10.0\vc\include\xmemory
xdata$x	ENDS
;	COMDAT ??$_Cons_val@V?$allocator@UtagDummyCharCreateInfo@@@std@@UtagDummyCharCreateInfo@@U3@@std@@YAXAAV?$allocator@UtagDummyCharCreateInfo@@@0@PAUtagDummyCharCreateInfo@@$$QAU2@@Z
_TEXT	SEGMENT
$T535094 = -16						; size = 4
__$EHRec$ = -12						; size = 12
__Alval$ = 8						; size = 4
__Pdest$ = 12						; size = 4
__Src$ = 16						; size = 4
??$_Cons_val@V?$allocator@UtagDummyCharCreateInfo@@@std@@UtagDummyCharCreateInfo@@U3@@std@@YAXAAV?$allocator@UtagDummyCharCreateInfo@@@0@PAUtagDummyCharCreateInfo@@$$QAU2@@Z PROC ; std::_Cons_val<std::allocator<tagDummyCharCreateInfo>,tagDummyCharCreateInfo,tagDummyCharCreateInfo>, COMDAT

; 279  : 	{	// construct using allocator

  00000	6a 04		 push	 4
  00002	b8 00 00 00 00	 mov	 eax, __ehhandler$??$_Cons_val@V?$allocator@UtagDummyCharCreateInfo@@@std@@UtagDummyCharCreateInfo@@U3@@std@@YAXAAV?$allocator@UtagDummyCharCreateInfo@@@0@PAUtagDummyCharCreateInfo@@$$QAU2@@Z
  00007	e8 00 00 00 00	 call	 __EH_prolog3

; 280  : 	_Alval.construct(_Pdest, _STD forward<_Ty2>(_Src));

  0000c	8b 4d 0c	 mov	 ecx, DWORD PTR __Pdest$[ebp]
  0000f	89 4d f0	 mov	 DWORD PTR $T535094[ebp], ecx
  00012	83 65 fc 00	 and	 DWORD PTR __$EHRec$[ebp+8], 0
  00016	85 c9		 test	 ecx, ecx
  00018	74 08		 je	 SHORT $LN7@Cons_val@2
  0001a	ff 75 10	 push	 DWORD PTR __Src$[ebp]
  0001d	e8 00 00 00 00	 call	 ??0tagDummyCharCreateInfo@@QAE@ABU0@@Z
$LN7@Cons_val@2:

; 281  : 	}

  00022	e8 00 00 00 00	 call	 __EH_epilog3
  00027	c3		 ret	 0
_TEXT	ENDS
;	COMDAT text$x
text$x	SEGMENT
__unwindfunclet$??$_Cons_val@V?$allocator@UtagDummyCharCreateInfo@@@std@@UtagDummyCharCreateInfo@@U3@@std@@YAXAAV?$allocator@UtagDummyCharCreateInfo@@@0@PAUtagDummyCharCreateInfo@@$$QAU2@@Z$0:
  00000	ff 75 0c	 push	 DWORD PTR __Pdest$[ebp]
  00003	ff 75 f0	 push	 DWORD PTR $T535094[ebp]
  00006	e8 00 00 00 00	 call	 ??3@YAXPAX0@Z		; operator delete
  0000b	59		 pop	 ecx
  0000c	59		 pop	 ecx
  0000d	c3		 ret	 0
__ehhandler$??$_Cons_val@V?$allocator@UtagDummyCharCreateInfo@@@std@@UtagDummyCharCreateInfo@@U3@@std@@YAXAAV?$allocator@UtagDummyCharCreateInfo@@@0@PAUtagDummyCharCreateInfo@@$$QAU2@@Z:
  0000e	8b 54 24 08	 mov	 edx, DWORD PTR [esp+8]
  00012	8d 42 0c	 lea	 eax, DWORD PTR [edx+12]
  00015	8b 4a ec	 mov	 ecx, DWORD PTR [edx-20]
  00018	33 c8		 xor	 ecx, eax
  0001a	e8 00 00 00 00	 call	 @__security_check_cookie@4
  0001f	b8 00 00 00 00	 mov	 eax, OFFSET __ehfuncinfo$??$_Cons_val@V?$allocator@UtagDummyCharCreateInfo@@@std@@UtagDummyCharCreateInfo@@U3@@std@@YAXAAV?$allocator@UtagDummyCharCreateInfo@@@0@PAUtagDummyCharCreateInfo@@$$QAU2@@Z
  00024	e9 00 00 00 00	 jmp	 ___CxxFrameHandler3
text$x	ENDS
??$_Cons_val@V?$allocator@UtagDummyCharCreateInfo@@@std@@UtagDummyCharCreateInfo@@U3@@std@@YAXAAV?$allocator@UtagDummyCharCreateInfo@@@0@PAUtagDummyCharCreateInfo@@$$QAU2@@Z ENDP ; std::_Cons_val<std::allocator<tagDummyCharCreateInfo>,tagDummyCharCreateInfo,tagDummyCharCreateInfo>
PUBLIC	?construct@?$allocator@UtagDummyCharLoadInfo@@@std@@QAEXPAUtagDummyCharLoadInfo@@ABU3@@Z ; std::allocator<tagDummyCharLoadInfo>::construct
; Function compile flags: /Ogsp
;	COMDAT ?construct@?$allocator@UtagDummyCharLoadInfo@@@std@@QAEXPAUtagDummyCharLoadInfo@@ABU3@@Z
_TEXT	SEGMENT
__Ptr$ = 8						; size = 4
__Val$ = 12						; size = 4
?construct@?$allocator@UtagDummyCharLoadInfo@@@std@@QAEXPAUtagDummyCharLoadInfo@@ABU3@@Z PROC ; std::allocator<tagDummyCharLoadInfo>::construct, COMDAT
; _this$ = ecx

; 196  : 		{	// construct object at _Ptr with value _Val

  00000	55		 push	 ebp
  00001	8b ec		 mov	 ebp, esp

; 197  : 		_Construct(_Ptr, _Val);

  00003	ff 75 0c	 push	 DWORD PTR __Val$[ebp]
  00006	ff 75 08	 push	 DWORD PTR __Ptr$[ebp]
  00009	e8 00 00 00 00	 call	 ??$_Construct@UtagDummyCharLoadInfo@@ABU1@@std@@YAXPAUtagDummyCharLoadInfo@@ABU1@@Z ; std::_Construct<tagDummyCharLoadInfo,tagDummyCharLoadInfo const &>
  0000e	59		 pop	 ecx
  0000f	59		 pop	 ecx

; 198  : 		}

  00010	5d		 pop	 ebp
  00011	c2 08 00	 ret	 8
?construct@?$allocator@UtagDummyCharLoadInfo@@@std@@QAEXPAUtagDummyCharLoadInfo@@ABU3@@Z ENDP ; std::allocator<tagDummyCharLoadInfo>::construct
_TEXT	ENDS
PUBLIC	??0?$vector@VioHashString@@V?$allocator@VioHashString@@@std@@@std@@QAE@XZ ; std::vector<ioHashString,std::allocator<ioHashString> >::vector<ioHashString,std::allocator<ioHashString> >
; Function compile flags: /Ogsp
; File c:\program files (x86)\microsoft visual studio 10.0\vc\include\vector
;	COMDAT ??0?$vector@VioHashString@@V?$allocator@VioHashString@@@std@@@std@@QAE@XZ
_TEXT	SEGMENT
??0?$vector@VioHashString@@V?$allocator@VioHashString@@@std@@@std@@QAE@XZ PROC ; std::vector<ioHashString,std::allocator<ioHashString> >::vector<ioHashString,std::allocator<ioHashString> >, COMDAT
; _this$ = ecx

; 507  : 		{	// construct empty vector

  00000	8b c1		 mov	 eax, ecx
  00002	33 c9		 xor	 ecx, ecx
  00004	89 08		 mov	 DWORD PTR [eax], ecx
  00006	89 48 04	 mov	 DWORD PTR [eax+4], ecx
  00009	89 48 08	 mov	 DWORD PTR [eax+8], ecx

; 508  : 		}

  0000c	c3		 ret	 0
??0?$vector@VioHashString@@V?$allocator@VioHashString@@@std@@@std@@QAE@XZ ENDP ; std::vector<ioHashString,std::allocator<ioHashString> >::vector<ioHashString,std::allocator<ioHashString> >
_TEXT	ENDS
PUBLIC	??0?$CEncrypt@M@@QAE@ABV0@@Z			; CEncrypt<float>::CEncrypt<float>
;	COMDAT xdata$x
; File d:\lost saga for developer\youtube\tutorial\source\src\lsclient\encryptvalue.h
xdata$x	SEGMENT
__unwindtable$??0?$CEncrypt@M@@QAE@ABV0@@Z DD 0ffffffffH
	DD	FLAT:__unwindfunclet$??0?$CEncrypt@M@@QAE@ABV0@@Z$0
__ehfuncinfo$??0?$CEncrypt@M@@QAE@ABV0@@Z DD 019930522H
	DD	01H
	DD	FLAT:__unwindtable$??0?$CEncrypt@M@@QAE@ABV0@@Z
	DD	2 DUP(00H)
	DD	2 DUP(00H)
	DD	00H
	DD	01H
; Function compile flags: /Ogsp
xdata$x	ENDS
;	COMDAT ??0?$CEncrypt@M@@QAE@ABV0@@Z
_TEXT	SEGMENT
_this$ = -16						; size = 4
__$EHRec$ = -12						; size = 12
_value$535138 = 8					; size = 4
_value$535133 = 8					; size = 4
_inValue$ = 8						; size = 4
??0?$CEncrypt@M@@QAE@ABV0@@Z PROC			; CEncrypt<float>::CEncrypt<float>, COMDAT
; _this$ = ecx

; 120  : 	CEncrypt( const CEncrypt<type> &inValue )   //     

  00000	6a 04		 push	 4
  00002	b8 00 00 00 00	 mov	 eax, __ehhandler$??0?$CEncrypt@M@@QAE@ABV0@@Z
  00007	e8 00 00 00 00	 call	 __EH_prolog3
  0000c	8b f1		 mov	 esi, ecx
  0000e	89 75 f0	 mov	 DWORD PTR _this$[ebp], esi
  00011	8d 4e 0c	 lea	 ecx, DWORD PTR [esi+12]
  00014	c7 06 00 00 00
	00		 mov	 DWORD PTR [esi], OFFSET ??_7?$CEncrypt@M@@6B@
  0001a	e8 00 00 00 00	 call	 ??0ccddaabb@@QAE@XZ	; ccddaabb::ccddaabb
  0001f	83 65 fc 00	 and	 DWORD PTR __$EHRec$[ebp+8], 0

; 121  : 	{
; 122  : 		Init();

  00023	8b ce		 mov	 ecx, esi
  00025	e8 00 00 00 00	 call	 ?Init@?$CEncrypt@M@@AAEXXZ ; CEncrypt<float>::Init

; 123  : 		*this = inValue;

  0002a	8b 4d 08	 mov	 ecx, DWORD PTR _inValue$[ebp]
  0002d	8d 45 08	 lea	 eax, DWORD PTR _value$535133[ebp]
  00030	50		 push	 eax
  00031	e8 00 00 00 00	 call	 ?DecryptValueToPool@?$CEncrypt@M@@QAEXPAM@Z ; CEncrypt<float>::DecryptValueToPool
  00036	f3 0f 10 45 08	 movss	 xmm0, DWORD PTR _value$535133[ebp]
  0003b	8d 45 08	 lea	 eax, DWORD PTR _value$535138[ebp]
  0003e	50		 push	 eax
  0003f	8b ce		 mov	 ecx, esi
  00041	f3 0f 11 45 08	 movss	 DWORD PTR _value$535138[ebp], xmm0
  00046	e8 00 00 00 00	 call	 ?EncryptValueToPool@?$CEncrypt@M@@AAEXPBD@Z ; CEncrypt<float>::EncryptValueToPool

; 124  : 	}

  0004b	8b c6		 mov	 eax, esi
  0004d	e8 00 00 00 00	 call	 __EH_epilog3
  00052	c2 04 00	 ret	 4
_TEXT	ENDS
;	COMDAT text$x
text$x	SEGMENT
__unwindfunclet$??0?$CEncrypt@M@@QAE@ABV0@@Z$0:
  00000	8b 4d f0	 mov	 ecx, DWORD PTR _this$[ebp]
  00003	83 c1 0c	 add	 ecx, 12			; 0000000cH
  00006	e9 00 00 00 00	 jmp	 ??1ccddaabb@@UAE@XZ	; ccddaabb::~ccddaabb
__ehhandler$??0?$CEncrypt@M@@QAE@ABV0@@Z:
  0000b	8b 54 24 08	 mov	 edx, DWORD PTR [esp+8]
  0000f	8d 42 0c	 lea	 eax, DWORD PTR [edx+12]
  00012	8b 4a ec	 mov	 ecx, DWORD PTR [edx-20]
  00015	33 c8		 xor	 ecx, eax
  00017	e8 00 00 00 00	 call	 @__security_check_cookie@4
  0001c	b8 00 00 00 00	 mov	 eax, OFFSET __ehfuncinfo$??0?$CEncrypt@M@@QAE@ABV0@@Z
  00021	e9 00 00 00 00	 jmp	 ___CxxFrameHandler3
text$x	ENDS
??0?$CEncrypt@M@@QAE@ABV0@@Z ENDP			; CEncrypt<float>::CEncrypt<float>
PUBLIC	??0?$vector@UtagDummyCharLoadInfo@@V?$allocator@UtagDummyCharLoadInfo@@@std@@@std@@QAE@XZ ; std::vector<tagDummyCharLoadInfo,std::allocator<tagDummyCharLoadInfo> >::vector<tagDummyCharLoadInfo,std::allocator<tagDummyCharLoadInfo> >
; Function compile flags: /Ogsp
; File c:\program files (x86)\microsoft visual studio 10.0\vc\include\vector
;	COMDAT ??0?$vector@UtagDummyCharLoadInfo@@V?$allocator@UtagDummyCharLoadInfo@@@std@@@std@@QAE@XZ
_TEXT	SEGMENT
??0?$vector@UtagDummyCharLoadInfo@@V?$allocator@UtagDummyCharLoadInfo@@@std@@@std@@QAE@XZ PROC ; std::vector<tagDummyCharLoadInfo,std::allocator<tagDummyCharLoadInfo> >::vector<tagDummyCharLoadInfo,std::allocator<tagDummyCharLoadInfo> >, COMDAT
; _this$ = ecx

; 507  : 		{	// construct empty vector

  00000	8b c1		 mov	 eax, ecx
  00002	33 c9		 xor	 ecx, ecx
  00004	89 08		 mov	 DWORD PTR [eax], ecx
  00006	89 48 04	 mov	 DWORD PTR [eax+4], ecx
  00009	89 48 08	 mov	 DWORD PTR [eax+8], ecx

; 508  : 		}

  0000c	c3		 ret	 0
??0?$vector@UtagDummyCharLoadInfo@@V?$allocator@UtagDummyCharLoadInfo@@@std@@@std@@QAE@XZ ENDP ; std::vector<tagDummyCharLoadInfo,std::allocator<tagDummyCharLoadInfo> >::vector<tagDummyCharLoadInfo,std::allocator<tagDummyCharLoadInfo> >
_TEXT	ENDS
PUBLIC	?_Buy@?$vector@VioHashString@@V?$allocator@VioHashString@@@std@@@std@@IAE_NI@Z ; std::vector<ioHashString,std::allocator<ioHashString> >::_Buy
; Function compile flags: /Ogsp
;	COMDAT ?_Buy@?$vector@VioHashString@@V?$allocator@VioHashString@@@std@@@std@@IAE_NI@Z
_TEXT	SEGMENT
__Capacity$ = 8						; size = 4
?_Buy@?$vector@VioHashString@@V?$allocator@VioHashString@@@std@@@std@@IAE_NI@Z PROC ; std::vector<ioHashString,std::allocator<ioHashString> >::_Buy, COMDAT
; _this$ = ecx

; 1250 : 		{	// allocate array with _Capacity elements

  00000	55		 push	 ebp
  00001	8b ec		 mov	 ebp, esp
  00003	56		 push	 esi

; 1251 : 		this->_Myfirst = 0;

  00004	33 c0		 xor	 eax, eax
  00006	57		 push	 edi

; 1252 : 		this->_Mylast = 0;
; 1253 : 		this->_Myend = 0;
; 1254 : 
; 1255 : 		if (_Capacity == 0)

  00007	8b 7d 08	 mov	 edi, DWORD PTR __Capacity$[ebp]
  0000a	8b f1		 mov	 esi, ecx
  0000c	89 06		 mov	 DWORD PTR [esi], eax
  0000e	89 46 04	 mov	 DWORD PTR [esi+4], eax
  00011	89 46 08	 mov	 DWORD PTR [esi+8], eax
  00014	3b f8		 cmp	 edi, eax
  00016	75 04		 jne	 SHORT $LN4@Buy@2

; 1256 : 			return (false);

  00018	32 c0		 xor	 al, al
  0001a	eb 2b		 jmp	 SHORT $LN5@Buy@2
$LN4@Buy@2:

; 1257 : 		else if (max_size() < _Capacity)

  0001c	81 ff ff ff ff
	0f		 cmp	 edi, 268435455		; 0fffffffH
  00022	76 0b		 jbe	 SHORT $LN2@Buy@2

; 1258 : 			_Xlen();	// result too long

  00024	68 00 00 00 00	 push	 OFFSET ??_C@_0BD@OLBABOEK@vector?$DMT?$DO?5too?5long?$AA@
  00029	ff 15 00 00 00
	00		 call	 DWORD PTR __imp_?_Xlength_error@std@@YAXPBD@Z
$LN19@Buy@2:
$LN2@Buy@2:

; 1259 : 		else
; 1260 : 			{	// nonempty array, allocate storage
; 1261 : 			this->_Myfirst = this->_Alval.allocate(_Capacity);

  0002f	50		 push	 eax
  00030	57		 push	 edi
  00031	e8 00 00 00 00	 call	 ??$_Allocate@VioHashString@@@std@@YAPAVioHashString@@IPAV1@@Z ; std::_Allocate<ioHashString>

; 1262 : 			this->_Mylast = this->_Myfirst;
; 1263 : 			this->_Myend = this->_Myfirst + _Capacity;

  00036	c1 e7 04	 shl	 edi, 4
  00039	03 f8		 add	 edi, eax
  0003b	59		 pop	 ecx
  0003c	89 06		 mov	 DWORD PTR [esi], eax
  0003e	89 46 04	 mov	 DWORD PTR [esi+4], eax
  00041	59		 pop	 ecx
  00042	89 7e 08	 mov	 DWORD PTR [esi+8], edi

; 1264 : 			}
; 1265 : 		return (true);

  00045	b0 01		 mov	 al, 1
$LN5@Buy@2:
  00047	5f		 pop	 edi
  00048	5e		 pop	 esi

; 1266 : 		}

  00049	5d		 pop	 ebp
  0004a	c2 04 00	 ret	 4
$LN18@Buy@2:
?_Buy@?$vector@VioHashString@@V?$allocator@VioHashString@@@std@@@std@@IAE_NI@Z ENDP ; std::vector<ioHashString,std::allocator<ioHashString> >::_Buy
_TEXT	ENDS
PUBLIC	?begin@?$vector@UtagDummyCharLoadInfo@@V?$allocator@UtagDummyCharLoadInfo@@@std@@@std@@QAE?AV?$_Vector_iterator@V?$_Vector_val@UtagDummyCharLoadInfo@@V?$allocator@UtagDummyCharLoadInfo@@@std@@@std@@@2@XZ ; std::vector<tagDummyCharLoadInfo,std::allocator<tagDummyCharLoadInfo> >::begin
; Function compile flags: /Ogsp
;	COMDAT ?begin@?$vector@UtagDummyCharLoadInfo@@V?$allocator@UtagDummyCharLoadInfo@@@std@@@std@@QAE?AV?$_Vector_iterator@V?$_Vector_val@UtagDummyCharLoadInfo@@V?$allocator@UtagDummyCharLoadInfo@@@std@@@std@@@2@XZ
_TEXT	SEGMENT
___$ReturnUdt$ = 8					; size = 4
?begin@?$vector@UtagDummyCharLoadInfo@@V?$allocator@UtagDummyCharLoadInfo@@@std@@@std@@QAE?AV?$_Vector_iterator@V?$_Vector_val@UtagDummyCharLoadInfo@@V?$allocator@UtagDummyCharLoadInfo@@@std@@@std@@@2@XZ PROC ; std::vector<tagDummyCharLoadInfo,std::allocator<tagDummyCharLoadInfo> >::begin, COMDAT
; _this$ = ecx

; 781  : 		{	// return iterator for beginning of mutable sequence

  00000	55		 push	 ebp
  00001	8b ec		 mov	 ebp, esp

; 782  : 		return (iterator(this->_Myfirst, this));

  00003	8b 09		 mov	 ecx, DWORD PTR [ecx]
  00005	8b 45 08	 mov	 eax, DWORD PTR ___$ReturnUdt$[ebp]
  00008	89 08		 mov	 DWORD PTR [eax], ecx

; 783  : 		}

  0000a	5d		 pop	 ebp
  0000b	c2 04 00	 ret	 4
?begin@?$vector@UtagDummyCharLoadInfo@@V?$allocator@UtagDummyCharLoadInfo@@@std@@@std@@QAE?AV?$_Vector_iterator@V?$_Vector_val@UtagDummyCharLoadInfo@@V?$allocator@UtagDummyCharLoadInfo@@@std@@@std@@@2@XZ ENDP ; std::vector<tagDummyCharLoadInfo,std::allocator<tagDummyCharLoadInfo> >::begin
_TEXT	ENDS
PUBLIC	?end@?$vector@UtagDummyCharLoadInfo@@V?$allocator@UtagDummyCharLoadInfo@@@std@@@std@@QAE?AV?$_Vector_iterator@V?$_Vector_val@UtagDummyCharLoadInfo@@V?$allocator@UtagDummyCharLoadInfo@@@std@@@std@@@2@XZ ; std::vector<tagDummyCharLoadInfo,std::allocator<tagDummyCharLoadInfo> >::end
; Function compile flags: /Ogsp
;	COMDAT ?end@?$vector@UtagDummyCharLoadInfo@@V?$allocator@UtagDummyCharLoadInfo@@@std@@@std@@QAE?AV?$_Vector_iterator@V?$_Vector_val@UtagDummyCharLoadInfo@@V?$allocator@UtagDummyCharLoadInfo@@@std@@@std@@@2@XZ
_TEXT	SEGMENT
___$ReturnUdt$ = 8					; size = 4
?end@?$vector@UtagDummyCharLoadInfo@@V?$allocator@UtagDummyCharLoadInfo@@@std@@@std@@QAE?AV?$_Vector_iterator@V?$_Vector_val@UtagDummyCharLoadInfo@@V?$allocator@UtagDummyCharLoadInfo@@@std@@@std@@@2@XZ PROC ; std::vector<tagDummyCharLoadInfo,std::allocator<tagDummyCharLoadInfo> >::end, COMDAT
; _this$ = ecx

; 791  : 		{	// return iterator for end of mutable sequence

  00000	55		 push	 ebp
  00001	8b ec		 mov	 ebp, esp

; 792  : 		return (iterator(this->_Mylast, this));

  00003	8b 49 04	 mov	 ecx, DWORD PTR [ecx+4]
  00006	8b 45 08	 mov	 eax, DWORD PTR ___$ReturnUdt$[ebp]
  00009	89 08		 mov	 DWORD PTR [eax], ecx

; 793  : 		}

  0000b	5d		 pop	 ebp
  0000c	c2 04 00	 ret	 4
?end@?$vector@UtagDummyCharLoadInfo@@V?$allocator@UtagDummyCharLoadInfo@@@std@@@std@@QAE?AV?$_Vector_iterator@V?$_Vector_val@UtagDummyCharLoadInfo@@V?$allocator@UtagDummyCharLoadInfo@@@std@@@std@@@2@XZ ENDP ; std::vector<tagDummyCharLoadInfo,std::allocator<tagDummyCharLoadInfo> >::end
_TEXT	ENDS
PUBLIC	?_Make_iter@?$vector@UtagDummyCharLoadInfo@@V?$allocator@UtagDummyCharLoadInfo@@@std@@@std@@QBE?AV?$_Vector_iterator@V?$_Vector_val@UtagDummyCharLoadInfo@@V?$allocator@UtagDummyCharLoadInfo@@@std@@@std@@@2@V?$_Vector_const_iterator@V?$_Vector_val@UtagDummyCharLoadInfo@@V?$allocator@UtagDummyCharLoadInfo@@@std@@@std@@@2@@Z ; std::vector<tagDummyCharLoadInfo,std::allocator<tagDummyCharLoadInfo> >::_Make_iter
; Function compile flags: /Ogsp
;	COMDAT ?_Make_iter@?$vector@UtagDummyCharLoadInfo@@V?$allocator@UtagDummyCharLoadInfo@@@std@@@std@@QBE?AV?$_Vector_iterator@V?$_Vector_val@UtagDummyCharLoadInfo@@V?$allocator@UtagDummyCharLoadInfo@@@std@@@std@@@2@V?$_Vector_const_iterator@V?$_Vector_val@UtagDummyCharLoadInfo@@V?$allocator@UtagDummyCharLoadInfo@@@std@@@std@@@2@@Z
_TEXT	SEGMENT
___$ReturnUdt$ = 8					; size = 4
__Where$ = 12						; size = 4
?_Make_iter@?$vector@UtagDummyCharLoadInfo@@V?$allocator@UtagDummyCharLoadInfo@@@std@@@std@@QBE?AV?$_Vector_iterator@V?$_Vector_val@UtagDummyCharLoadInfo@@V?$allocator@UtagDummyCharLoadInfo@@@std@@@std@@@2@V?$_Vector_const_iterator@V?$_Vector_val@UtagDummyCharLoadInfo@@V?$allocator@UtagDummyCharLoadInfo@@@std@@@std@@@2@@Z PROC ; std::vector<tagDummyCharLoadInfo,std::allocator<tagDummyCharLoadInfo> >::_Make_iter, COMDAT
; _this$ = ecx

; 801  : 		{	// make iterator from const_iterator

  00000	55		 push	 ebp
  00001	8b ec		 mov	 ebp, esp

; 802  : 		return (iterator(_Where._Ptr, this));

  00003	8b 45 08	 mov	 eax, DWORD PTR ___$ReturnUdt$[ebp]
  00006	8b 4d 0c	 mov	 ecx, DWORD PTR __Where$[ebp]
  00009	89 08		 mov	 DWORD PTR [eax], ecx

; 803  : 		}

  0000b	5d		 pop	 ebp
  0000c	c2 08 00	 ret	 8
?_Make_iter@?$vector@UtagDummyCharLoadInfo@@V?$allocator@UtagDummyCharLoadInfo@@@std@@@std@@QBE?AV?$_Vector_iterator@V?$_Vector_val@UtagDummyCharLoadInfo@@V?$allocator@UtagDummyCharLoadInfo@@@std@@@std@@@2@V?$_Vector_const_iterator@V?$_Vector_val@UtagDummyCharLoadInfo@@V?$allocator@UtagDummyCharLoadInfo@@@std@@@std@@@2@@Z ENDP ; std::vector<tagDummyCharLoadInfo,std::allocator<tagDummyCharLoadInfo> >::_Make_iter
_TEXT	ENDS
PUBLIC	??9?$_Vector_const_iterator@V?$_Vector_val@VioHashString@@V?$allocator@VioHashString@@@std@@@std@@@std@@QBE_NABV01@@Z ; std::_Vector_const_iterator<std::_Vector_val<ioHashString,std::allocator<ioHashString> > >::operator!=
; Function compile flags: /Ogsp
;	COMDAT ??9?$_Vector_const_iterator@V?$_Vector_val@VioHashString@@V?$allocator@VioHashString@@@std@@@std@@@std@@QBE_NABV01@@Z
_TEXT	SEGMENT
__Right$ = 8						; size = 4
??9?$_Vector_const_iterator@V?$_Vector_val@VioHashString@@V?$allocator@VioHashString@@@std@@@std@@@std@@QBE_NABV01@@Z PROC ; std::_Vector_const_iterator<std::_Vector_val<ioHashString,std::allocator<ioHashString> > >::operator!=, COMDAT
; _this$ = ecx

; 207  : 		{	// test for iterator inequality

  00000	55		 push	 ebp
  00001	8b ec		 mov	 ebp, esp

; 208  : 		return (!(*this == _Right));

  00003	8b 01		 mov	 eax, DWORD PTR [ecx]
  00005	8b 55 08	 mov	 edx, DWORD PTR __Right$[ebp]
  00008	33 c9		 xor	 ecx, ecx
  0000a	3b 02		 cmp	 eax, DWORD PTR [edx]
  0000c	0f 95 c0	 setne	 al

; 209  : 		}

  0000f	5d		 pop	 ebp
  00010	c2 04 00	 ret	 4
??9?$_Vector_const_iterator@V?$_Vector_val@VioHashString@@V?$allocator@VioHashString@@@std@@@std@@@std@@QBE_NABV01@@Z ENDP ; std::_Vector_const_iterator<std::_Vector_val<ioHashString,std::allocator<ioHashString> > >::operator!=
_TEXT	ENDS
PUBLIC	??9?$_Vector_const_iterator@V?$_Vector_val@UtagDummyCharLoadInfo@@V?$allocator@UtagDummyCharLoadInfo@@@std@@@std@@@std@@QBE_NABV01@@Z ; std::_Vector_const_iterator<std::_Vector_val<tagDummyCharLoadInfo,std::allocator<tagDummyCharLoadInfo> > >::operator!=
; Function compile flags: /Ogsp
;	COMDAT ??9?$_Vector_const_iterator@V?$_Vector_val@UtagDummyCharLoadInfo@@V?$allocator@UtagDummyCharLoadInfo@@@std@@@std@@@std@@QBE_NABV01@@Z
_TEXT	SEGMENT
__Right$ = 8						; size = 4
??9?$_Vector_const_iterator@V?$_Vector_val@UtagDummyCharLoadInfo@@V?$allocator@UtagDummyCharLoadInfo@@@std@@@std@@@std@@QBE_NABV01@@Z PROC ; std::_Vector_const_iterator<std::_Vector_val<tagDummyCharLoadInfo,std::allocator<tagDummyCharLoadInfo> > >::operator!=, COMDAT
; _this$ = ecx

; 207  : 		{	// test for iterator inequality

  00000	55		 push	 ebp
  00001	8b ec		 mov	 ebp, esp

; 208  : 		return (!(*this == _Right));

  00003	8b 01		 mov	 eax, DWORD PTR [ecx]
  00005	8b 55 08	 mov	 edx, DWORD PTR __Right$[ebp]
  00008	33 c9		 xor	 ecx, ecx
  0000a	3b 02		 cmp	 eax, DWORD PTR [edx]
  0000c	0f 95 c0	 setne	 al

; 209  : 		}

  0000f	5d		 pop	 ebp
  00010	c2 04 00	 ret	 4
??9?$_Vector_const_iterator@V?$_Vector_val@UtagDummyCharLoadInfo@@V?$allocator@UtagDummyCharLoadInfo@@@std@@@std@@@std@@QBE_NABV01@@Z ENDP ; std::_Vector_const_iterator<std::_Vector_val<tagDummyCharLoadInfo,std::allocator<tagDummyCharLoadInfo> > >::operator!=
_TEXT	ENDS
PUBLIC	??$_Move@PAVioHashString@@PAV1@@std@@YAPAVioHashString@@PAV1@00@Z ; std::_Move<ioHashString *,ioHashString *>
; Function compile flags: /Ogsp
; File c:\program files (x86)\microsoft visual studio 10.0\vc\include\xutility
;	COMDAT ??$_Move@PAVioHashString@@PAV1@@std@@YAPAVioHashString@@PAV1@00@Z
_TEXT	SEGMENT
__Cat$535268 = -4					; size = 1
__First$ = 8						; size = 4
__Last$ = 12						; size = 4
__Dest$ = 16						; size = 4
??$_Move@PAVioHashString@@PAV1@@std@@YAPAVioHashString@@PAV1@00@Z PROC ; std::_Move<ioHashString *,ioHashString *>, COMDAT

; 2533 : 	{	// move [_First, _Last) to [_Dest, ...), unchecked

  00000	55		 push	 ebp
  00001	8b ec		 mov	 ebp, esp
  00003	51		 push	 ecx

; 2534 : 	return (_Move(_First, _Last,
; 2535 : 		_Dest, _Ptr_cat(_First, _Dest)));

  00004	ff 75 fc	 push	 DWORD PTR __Cat$535268[ebp]
  00007	ff 75 10	 push	 DWORD PTR __Dest$[ebp]
  0000a	ff 75 0c	 push	 DWORD PTR __Last$[ebp]
  0000d	ff 75 08	 push	 DWORD PTR __First$[ebp]
  00010	e8 00 00 00 00	 call	 ??$_Move@PAVioHashString@@PAV1@@std@@YAPAVioHashString@@PAV1@00U_Nonscalar_ptr_iterator_tag@0@@Z ; std::_Move<ioHashString *,ioHashString *>
  00015	83 c4 10	 add	 esp, 16			; 00000010H

; 2536 : 	}

  00018	c9		 leave
  00019	c3		 ret	 0
??$_Move@PAVioHashString@@PAV1@@std@@YAPAVioHashString@@PAV1@00@Z ENDP ; std::_Move<ioHashString *,ioHashString *>
_TEXT	ENDS
PUBLIC	??$_Move@PAUtagDummyCharLoadInfo@@PAU1@@std@@YAPAUtagDummyCharLoadInfo@@PAU1@00@Z ; std::_Move<tagDummyCharLoadInfo *,tagDummyCharLoadInfo *>
; Function compile flags: /Ogsp
;	COMDAT ??$_Move@PAUtagDummyCharLoadInfo@@PAU1@@std@@YAPAUtagDummyCharLoadInfo@@PAU1@00@Z
_TEXT	SEGMENT
__Cat$535275 = -4					; size = 1
__First$ = 8						; size = 4
__Last$ = 12						; size = 4
__Dest$ = 16						; size = 4
??$_Move@PAUtagDummyCharLoadInfo@@PAU1@@std@@YAPAUtagDummyCharLoadInfo@@PAU1@00@Z PROC ; std::_Move<tagDummyCharLoadInfo *,tagDummyCharLoadInfo *>, COMDAT

; 2533 : 	{	// move [_First, _Last) to [_Dest, ...), unchecked

  00000	55		 push	 ebp
  00001	8b ec		 mov	 ebp, esp
  00003	51		 push	 ecx

; 2534 : 	return (_Move(_First, _Last,
; 2535 : 		_Dest, _Ptr_cat(_First, _Dest)));

  00004	ff 75 fc	 push	 DWORD PTR __Cat$535275[ebp]
  00007	ff 75 10	 push	 DWORD PTR __Dest$[ebp]
  0000a	ff 75 0c	 push	 DWORD PTR __Last$[ebp]
  0000d	ff 75 08	 push	 DWORD PTR __First$[ebp]
  00010	e8 00 00 00 00	 call	 ??$_Move@PAUtagDummyCharLoadInfo@@PAU1@@std@@YAPAUtagDummyCharLoadInfo@@PAU1@00U_Nonscalar_ptr_iterator_tag@0@@Z ; std::_Move<tagDummyCharLoadInfo *,tagDummyCharLoadInfo *>
  00015	83 c4 10	 add	 esp, 16			; 00000010H

; 2536 : 	}

  00018	c9		 leave
  00019	c3		 ret	 0
??$_Move@PAUtagDummyCharLoadInfo@@PAU1@@std@@YAPAUtagDummyCharLoadInfo@@PAU1@00@Z ENDP ; std::_Move<tagDummyCharLoadInfo *,tagDummyCharLoadInfo *>
_TEXT	ENDS
PUBLIC	?destroy@?$allocator@VioHashString@@@std@@QAEXPAVioHashString@@@Z ; std::allocator<ioHashString>::destroy
; Function compile flags: /Ogsp
; File c:\program files (x86)\microsoft visual studio 10.0\vc\include\xmemory
;	COMDAT ?destroy@?$allocator@VioHashString@@@std@@QAEXPAVioHashString@@@Z
_TEXT	SEGMENT
__Ptr$ = 8						; size = 4
?destroy@?$allocator@VioHashString@@@std@@QAEXPAVioHashString@@@Z PROC ; std::allocator<ioHashString>::destroy, COMDAT
; _this$ = ecx

; 212  : 		{	// destroy object at _Ptr

  00000	55		 push	 ebp
  00001	8b ec		 mov	 ebp, esp

; 213  : 		_Destroy(_Ptr);

  00003	8b 4d 08	 mov	 ecx, DWORD PTR __Ptr$[ebp]
  00006	ff 15 00 00 00
	00		 call	 DWORD PTR __imp_??1ioHashString@@QAE@XZ

; 214  : 		}

  0000c	5d		 pop	 ebp
  0000d	c2 04 00	 ret	 4
?destroy@?$allocator@VioHashString@@@std@@QAEXPAVioHashString@@@Z ENDP ; std::allocator<ioHashString>::destroy
_TEXT	ENDS
PUBLIC	??$_Cons_val@V?$allocator@VioHashString@@@std@@VioHashString@@ABV3@@std@@YAXAAV?$allocator@VioHashString@@@0@PAVioHashString@@ABV2@@Z ; std::_Cons_val<std::allocator<ioHashString>,ioHashString,ioHashString const &>
; Function compile flags: /Ogsp
;	COMDAT ??$_Cons_val@V?$allocator@VioHashString@@@std@@VioHashString@@ABV3@@std@@YAXAAV?$allocator@VioHashString@@@0@PAVioHashString@@ABV2@@Z
_TEXT	SEGMENT
__Alval$ = 8						; size = 4
__Pdest$ = 12						; size = 4
__Src$ = 16						; size = 4
??$_Cons_val@V?$allocator@VioHashString@@@std@@VioHashString@@ABV3@@std@@YAXAAV?$allocator@VioHashString@@@0@PAVioHashString@@ABV2@@Z PROC ; std::_Cons_val<std::allocator<ioHashString>,ioHashString,ioHashString const &>, COMDAT

; 279  : 	{	// construct using allocator

  00000	55		 push	 ebp
  00001	8b ec		 mov	 ebp, esp

; 280  : 	_Alval.construct(_Pdest, _STD forward<_Ty2>(_Src));

  00003	ff 75 10	 push	 DWORD PTR __Src$[ebp]
  00006	ff 75 0c	 push	 DWORD PTR __Pdest$[ebp]
  00009	e8 00 00 00 00	 call	 ??$_Construct@VioHashString@@ABV1@@std@@YAXPAVioHashString@@ABV1@@Z ; std::_Construct<ioHashString,ioHashString const &>
  0000e	59		 pop	 ecx
  0000f	59		 pop	 ecx

; 281  : 	}

  00010	5d		 pop	 ebp
  00011	c3		 ret	 0
??$_Cons_val@V?$allocator@VioHashString@@@std@@VioHashString@@ABV3@@std@@YAXAAV?$allocator@VioHashString@@@0@PAVioHashString@@ABV2@@Z ENDP ; std::_Cons_val<std::allocator<ioHashString>,ioHashString,ioHashString const &>
_TEXT	ENDS
PUBLIC	??$_Destroy@UtagDummyCharLoadInfo@@@std@@YAXPAUtagDummyCharLoadInfo@@@Z ; std::_Destroy<tagDummyCharLoadInfo>
; Function compile flags: /Ogsp
;	COMDAT ??$_Destroy@UtagDummyCharLoadInfo@@@std@@YAXPAUtagDummyCharLoadInfo@@@Z
_TEXT	SEGMENT
__Ptr$ = 8						; size = 4
??$_Destroy@UtagDummyCharLoadInfo@@@std@@YAXPAUtagDummyCharLoadInfo@@@Z PROC ; std::_Destroy<tagDummyCharLoadInfo>, COMDAT

; 62   : 	{	// destroy object at _Ptr

  00000	55		 push	 ebp
  00001	8b ec		 mov	 ebp, esp

; 63   : 	_Ptr->~_Ty();

  00003	8b 4d 08	 mov	 ecx, DWORD PTR __Ptr$[ebp]

; 64   : 	}

  00006	5d		 pop	 ebp

; 63   : 	_Ptr->~_Ty();

  00007	ff 25 00 00 00
	00		 jmp	 DWORD PTR __imp_??1ioHashString@@QAE@XZ
??$_Destroy@UtagDummyCharLoadInfo@@@std@@YAXPAUtagDummyCharLoadInfo@@@Z ENDP ; std::_Destroy<tagDummyCharLoadInfo>
_TEXT	ENDS
PUBLIC	?ProcessReadyState@ioCreateDummyChar2Buff@@IAEXPAVioBaseChar@@@Z ; ioCreateDummyChar2Buff::ProcessReadyState
EXTRN	?IsAttackKey@ioBaseChar@@QBE_NXZ:PROC		; ioBaseChar::IsAttackKey
; Function compile flags: /Ogsp
; File d:\lost saga for developer\youtube\tutorial\source\src\lsclient\iocreatedummychar2buff.cpp
;	COMDAT ?ProcessReadyState@ioCreateDummyChar2Buff@@IAEXPAVioBaseChar@@@Z
_TEXT	SEGMENT
_pOwner$ = 8						; size = 4
?ProcessReadyState@ioCreateDummyChar2Buff@@IAEXPAVioBaseChar@@@Z PROC ; ioCreateDummyChar2Buff::ProcessReadyState, COMDAT
; _this$ = ecx

; 310  : {

  00000	55		 push	 ebp
  00001	8b ec		 mov	 ebp, esp
  00003	56		 push	 esi
  00004	8b f1		 mov	 esi, ecx

; 311  : 	if( pOwner->IsAttackKey() )

  00006	8b 4d 08	 mov	 ecx, DWORD PTR _pOwner$[ebp]
  00009	e8 00 00 00 00	 call	 ?IsAttackKey@ioBaseChar@@QBE_NXZ ; ioBaseChar::IsAttackKey
  0000e	84 c0		 test	 al, al
  00010	74 11		 je	 SHORT $LN1@ProcessRea

; 312  : 	{
; 313  : 		SetCreateDummyState( pOwner );

  00012	ff 75 08	 push	 DWORD PTR _pOwner$[ebp]
  00015	8b ce		 mov	 ecx, esi
  00017	e8 00 00 00 00	 call	 ?SetCreateDummyState@ioCreateDummyChar2Buff@@IAEXPAVioBaseChar@@@Z ; ioCreateDummyChar2Buff::SetCreateDummyState

; 314  : 		CheckActiveCount();

  0001c	8b 06		 mov	 eax, DWORD PTR [esi]
  0001e	8b ce		 mov	 ecx, esi
  00020	ff 50 58	 call	 DWORD PTR [eax+88]
$LN1@ProcessRea:
  00023	5e		 pop	 esi

; 315  : 	}
; 316  : }

  00024	5d		 pop	 ebp
  00025	c2 04 00	 ret	 4
?ProcessReadyState@ioCreateDummyChar2Buff@@IAEXPAVioBaseChar@@@Z ENDP ; ioCreateDummyChar2Buff::ProcessReadyState
_TEXT	ENDS
PUBLIC	??$_Cons_val@V?$allocator@UtagDummyCharCreateInfo@@@std@@UtagDummyCharCreateInfo@@ABU3@@std@@YAXAAV?$allocator@UtagDummyCharCreateInfo@@@0@PAUtagDummyCharCreateInfo@@ABU2@@Z ; std::_Cons_val<std::allocator<tagDummyCharCreateInfo>,tagDummyCharCreateInfo,tagDummyCharCreateInfo const &>
; Function compile flags: /Ogsp
; File c:\program files (x86)\microsoft visual studio 10.0\vc\include\xmemory
;	COMDAT ??$_Cons_val@V?$allocator@UtagDummyCharCreateInfo@@@std@@UtagDummyCharCreateInfo@@ABU3@@std@@YAXAAV?$allocator@UtagDummyCharCreateInfo@@@0@PAUtagDummyCharCreateInfo@@ABU2@@Z
_TEXT	SEGMENT
__Alval$ = 8						; size = 4
__Pdest$ = 12						; size = 4
__Src$ = 16						; size = 4
??$_Cons_val@V?$allocator@UtagDummyCharCreateInfo@@@std@@UtagDummyCharCreateInfo@@ABU3@@std@@YAXAAV?$allocator@UtagDummyCharCreateInfo@@@0@PAUtagDummyCharCreateInfo@@ABU2@@Z PROC ; std::_Cons_val<std::allocator<tagDummyCharCreateInfo>,tagDummyCharCreateInfo,tagDummyCharCreateInfo const &>, COMDAT

; 279  : 	{	// construct using allocator

  00000	55		 push	 ebp
  00001	8b ec		 mov	 ebp, esp

; 280  : 	_Alval.construct(_Pdest, _STD forward<_Ty2>(_Src));

  00003	ff 75 10	 push	 DWORD PTR __Src$[ebp]
  00006	ff 75 0c	 push	 DWORD PTR __Pdest$[ebp]
  00009	e8 00 00 00 00	 call	 ??$_Construct@UtagDummyCharCreateInfo@@ABU1@@std@@YAXPAUtagDummyCharCreateInfo@@ABU1@@Z ; std::_Construct<tagDummyCharCreateInfo,tagDummyCharCreateInfo const &>
  0000e	59		 pop	 ecx
  0000f	59		 pop	 ecx

; 281  : 	}

  00010	5d		 pop	 ebp
  00011	c3		 ret	 0
??$_Cons_val@V?$allocator@UtagDummyCharCreateInfo@@@std@@UtagDummyCharCreateInfo@@ABU3@@std@@YAXAAV?$allocator@UtagDummyCharCreateInfo@@@0@PAUtagDummyCharCreateInfo@@ABU2@@Z ENDP ; std::_Cons_val<std::allocator<tagDummyCharCreateInfo>,tagDummyCharCreateInfo,tagDummyCharCreateInfo const &>
_TEXT	ENDS
PUBLIC	??$_Dest_val@V?$allocator@UtagDummyCharCreateInfo@@@std@@UtagDummyCharCreateInfo@@@std@@YAXAAV?$allocator@UtagDummyCharCreateInfo@@@0@PAUtagDummyCharCreateInfo@@@Z ; std::_Dest_val<std::allocator<tagDummyCharCreateInfo>,tagDummyCharCreateInfo>
; Function compile flags: /Ogsp
;	COMDAT ??$_Dest_val@V?$allocator@UtagDummyCharCreateInfo@@@std@@UtagDummyCharCreateInfo@@@std@@YAXAAV?$allocator@UtagDummyCharCreateInfo@@@0@PAUtagDummyCharCreateInfo@@@Z
_TEXT	SEGMENT
__Alval$ = 8						; size = 4
__Pdest$ = 12						; size = 4
??$_Dest_val@V?$allocator@UtagDummyCharCreateInfo@@@std@@UtagDummyCharCreateInfo@@@std@@YAXAAV?$allocator@UtagDummyCharCreateInfo@@@0@PAUtagDummyCharCreateInfo@@@Z PROC ; std::_Dest_val<std::allocator<tagDummyCharCreateInfo>,tagDummyCharCreateInfo>, COMDAT

; 286  : 	{	// destroy using allocator

  00000	55		 push	 ebp
  00001	8b ec		 mov	 ebp, esp

; 287  : 	_Alval.destroy(_Pdest);

  00003	8b 4d 0c	 mov	 ecx, DWORD PTR __Pdest$[ebp]

; 288  : 	}

  00006	5d		 pop	 ebp

; 287  : 	_Alval.destroy(_Pdest);

  00007	ff 25 00 00 00
	00		 jmp	 DWORD PTR __imp_??1ioHashString@@QAE@XZ
??$_Dest_val@V?$allocator@UtagDummyCharCreateInfo@@@std@@UtagDummyCharCreateInfo@@@std@@YAXAAV?$allocator@UtagDummyCharCreateInfo@@@0@PAUtagDummyCharCreateInfo@@@Z ENDP ; std::_Dest_val<std::allocator<tagDummyCharCreateInfo>,tagDummyCharCreateInfo>
_TEXT	ENDS
PUBLIC	??$_Cons_val@V?$allocator@UtagDummyCharLoadInfo@@@std@@UtagDummyCharLoadInfo@@ABU3@@std@@YAXAAV?$allocator@UtagDummyCharLoadInfo@@@0@PAUtagDummyCharLoadInfo@@ABU2@@Z ; std::_Cons_val<std::allocator<tagDummyCharLoadInfo>,tagDummyCharLoadInfo,tagDummyCharLoadInfo const &>
; Function compile flags: /Ogsp
;	COMDAT ??$_Cons_val@V?$allocator@UtagDummyCharLoadInfo@@@std@@UtagDummyCharLoadInfo@@ABU3@@std@@YAXAAV?$allocator@UtagDummyCharLoadInfo@@@0@PAUtagDummyCharLoadInfo@@ABU2@@Z
_TEXT	SEGMENT
__Alval$ = 8						; size = 4
__Pdest$ = 12						; size = 4
__Src$ = 16						; size = 4
??$_Cons_val@V?$allocator@UtagDummyCharLoadInfo@@@std@@UtagDummyCharLoadInfo@@ABU3@@std@@YAXAAV?$allocator@UtagDummyCharLoadInfo@@@0@PAUtagDummyCharLoadInfo@@ABU2@@Z PROC ; std::_Cons_val<std::allocator<tagDummyCharLoadInfo>,tagDummyCharLoadInfo,tagDummyCharLoadInfo const &>, COMDAT

; 279  : 	{	// construct using allocator

  00000	55		 push	 ebp
  00001	8b ec		 mov	 ebp, esp

; 280  : 	_Alval.construct(_Pdest, _STD forward<_Ty2>(_Src));

  00003	ff 75 10	 push	 DWORD PTR __Src$[ebp]
  00006	ff 75 0c	 push	 DWORD PTR __Pdest$[ebp]
  00009	e8 00 00 00 00	 call	 ??$_Construct@UtagDummyCharLoadInfo@@ABU1@@std@@YAXPAUtagDummyCharLoadInfo@@ABU1@@Z ; std::_Construct<tagDummyCharLoadInfo,tagDummyCharLoadInfo const &>
  0000e	59		 pop	 ecx
  0000f	59		 pop	 ecx

; 281  : 	}

  00010	5d		 pop	 ebp
  00011	c3		 ret	 0
??$_Cons_val@V?$allocator@UtagDummyCharLoadInfo@@@std@@UtagDummyCharLoadInfo@@ABU3@@std@@YAXAAV?$allocator@UtagDummyCharLoadInfo@@@0@PAUtagDummyCharLoadInfo@@ABU2@@Z ENDP ; std::_Cons_val<std::allocator<tagDummyCharLoadInfo>,tagDummyCharLoadInfo,tagDummyCharLoadInfo const &>
_TEXT	ENDS
PUBLIC	??$_Dest_val@V?$allocator@VioHashString@@@std@@VioHashString@@@std@@YAXAAV?$allocator@VioHashString@@@0@PAVioHashString@@@Z ; std::_Dest_val<std::allocator<ioHashString>,ioHashString>
; Function compile flags: /Ogsp
;	COMDAT ??$_Dest_val@V?$allocator@VioHashString@@@std@@VioHashString@@@std@@YAXAAV?$allocator@VioHashString@@@0@PAVioHashString@@@Z
_TEXT	SEGMENT
__Alval$ = 8						; size = 4
__Pdest$ = 12						; size = 4
??$_Dest_val@V?$allocator@VioHashString@@@std@@VioHashString@@@std@@YAXAAV?$allocator@VioHashString@@@0@PAVioHashString@@@Z PROC ; std::_Dest_val<std::allocator<ioHashString>,ioHashString>, COMDAT

; 286  : 	{	// destroy using allocator

  00000	55		 push	 ebp
  00001	8b ec		 mov	 ebp, esp

; 287  : 	_Alval.destroy(_Pdest);

  00003	8b 4d 0c	 mov	 ecx, DWORD PTR __Pdest$[ebp]

; 288  : 	}

  00006	5d		 pop	 ebp

; 287  : 	_Alval.destroy(_Pdest);

  00007	ff 25 00 00 00
	00		 jmp	 DWORD PTR __imp_??1ioHashString@@QAE@XZ
??$_Dest_val@V?$allocator@VioHashString@@@std@@VioHashString@@@std@@YAXAAV?$allocator@VioHashString@@@0@PAVioHashString@@@Z ENDP ; std::_Dest_val<std::allocator<ioHashString>,ioHashString>
_TEXT	ENDS
PUBLIC	?destroy@?$allocator@UtagDummyCharLoadInfo@@@std@@QAEXPAUtagDummyCharLoadInfo@@@Z ; std::allocator<tagDummyCharLoadInfo>::destroy
; Function compile flags: /Ogsp
;	COMDAT ?destroy@?$allocator@UtagDummyCharLoadInfo@@@std@@QAEXPAUtagDummyCharLoadInfo@@@Z
_TEXT	SEGMENT
__Ptr$ = 8						; size = 4
?destroy@?$allocator@UtagDummyCharLoadInfo@@@std@@QAEXPAUtagDummyCharLoadInfo@@@Z PROC ; std::allocator<tagDummyCharLoadInfo>::destroy, COMDAT
; _this$ = ecx

; 212  : 		{	// destroy object at _Ptr

  00000	55		 push	 ebp
  00001	8b ec		 mov	 ebp, esp

; 213  : 		_Destroy(_Ptr);

  00003	8b 4d 08	 mov	 ecx, DWORD PTR __Ptr$[ebp]
  00006	ff 15 00 00 00
	00		 call	 DWORD PTR __imp_??1ioHashString@@QAE@XZ

; 214  : 		}

  0000c	5d		 pop	 ebp
  0000d	c2 04 00	 ret	 4
?destroy@?$allocator@UtagDummyCharLoadInfo@@@std@@QAEXPAUtagDummyCharLoadInfo@@@Z ENDP ; std::allocator<tagDummyCharLoadInfo>::destroy
_TEXT	ENDS
PUBLIC	??$_Destroy_range@V?$allocator@UtagDummyCharCreateInfo@@@std@@@std@@YAXPAUtagDummyCharCreateInfo@@0AAV?$allocator@UtagDummyCharCreateInfo@@@0@U_Nonscalar_ptr_iterator_tag@0@@Z ; std::_Destroy_range<std::allocator<tagDummyCharCreateInfo> >
; Function compile flags: /Ogsp
;	COMDAT ??$_Destroy_range@V?$allocator@UtagDummyCharCreateInfo@@@std@@@std@@YAXPAUtagDummyCharCreateInfo@@0AAV?$allocator@UtagDummyCharCreateInfo@@@0@U_Nonscalar_ptr_iterator_tag@0@@Z
_TEXT	SEGMENT
__First$ = 8						; size = 4
__Last$ = 12						; size = 4
__Al$ = 16						; size = 4
___formal$ = 20						; size = 1
??$_Destroy_range@V?$allocator@UtagDummyCharCreateInfo@@@std@@@std@@YAXPAUtagDummyCharCreateInfo@@0AAV?$allocator@UtagDummyCharCreateInfo@@@0@U_Nonscalar_ptr_iterator_tag@0@@Z PROC ; std::_Destroy_range<std::allocator<tagDummyCharCreateInfo> >, COMDAT

; 95   : 	{	// destroy [_First, _Last), arbitrary type

  00000	55		 push	 ebp
  00001	8b ec		 mov	 ebp, esp
  00003	56		 push	 esi

; 96   : 	for (; _First != _Last; ++_First)

  00004	8b 75 08	 mov	 esi, DWORD PTR __First$[ebp]
  00007	eb 0b		 jmp	 SHORT $LN20@Destroy_ra
$LL3@Destroy_ra:

; 97   : 		_Dest_val(_Al, _First);

  00009	8b ce		 mov	 ecx, esi
  0000b	ff 15 00 00 00
	00		 call	 DWORD PTR __imp_??1ioHashString@@QAE@XZ
  00011	83 c6 24	 add	 esi, 36			; 00000024H
$LN20@Destroy_ra:

; 96   : 	for (; _First != _Last; ++_First)

  00014	3b 75 0c	 cmp	 esi, DWORD PTR __Last$[ebp]
  00017	75 f0		 jne	 SHORT $LL3@Destroy_ra
  00019	5e		 pop	 esi

; 98   : 	}

  0001a	5d		 pop	 ebp
  0001b	c3		 ret	 0
??$_Destroy_range@V?$allocator@UtagDummyCharCreateInfo@@@std@@@std@@YAXPAUtagDummyCharCreateInfo@@0AAV?$allocator@UtagDummyCharCreateInfo@@@0@U_Nonscalar_ptr_iterator_tag@0@@Z ENDP ; std::_Destroy_range<std::allocator<tagDummyCharCreateInfo> >
_TEXT	ENDS
PUBLIC	??$_Uninit_move@PAUtagDummyCharCreateInfo@@PAU1@V?$allocator@UtagDummyCharCreateInfo@@@std@@U1@@std@@YAPAUtagDummyCharCreateInfo@@PAU1@00AAV?$allocator@UtagDummyCharCreateInfo@@@0@0U_Nonscalar_ptr_iterator_tag@0@@Z ; std::_Uninit_move<tagDummyCharCreateInfo *,tagDummyCharCreateInfo *,std::allocator<tagDummyCharCreateInfo>,tagDummyCharCreateInfo>
EXTRN	__EH_prolog3_catch:PROC
;	COMDAT xdata$x
; File d:\lost saga for developer\youtube\tutorial\source\src\lsclient\iocreatedummychar2buff.cpp
xdata$x	SEGMENT
__catchsym$??$_Uninit_move@PAUtagDummyCharCreateInfo@@PAU1@V?$allocator@UtagDummyCharCreateInfo@@@std@@U1@@std@@YAPAUtagDummyCharCreateInfo@@PAU1@00AAV?$allocator@UtagDummyCharCreateInfo@@@0@0U_Nonscalar_ptr_iterator_tag@0@@Z$3 DD 040H
	DD	00H
	DD	00H
	DD	FLAT:__catch$??$_Uninit_move@PAUtagDummyCharCreateInfo@@PAU1@V?$allocator@UtagDummyCharCreateInfo@@@std@@U1@@std@@YAPAUtagDummyCharCreateInfo@@PAU1@00AAV?$allocator@UtagDummyCharCreateInfo@@@0@0U_Nonscalar_ptr_iterator_tag@0@@Z$0
__unwindtable$??$_Uninit_move@PAUtagDummyCharCreateInfo@@PAU1@V?$allocator@UtagDummyCharCreateInfo@@@std@@U1@@std@@YAPAUtagDummyCharCreateInfo@@PAU1@00AAV?$allocator@UtagDummyCharCreateInfo@@@0@0U_Nonscalar_ptr_iterator_tag@0@@Z DD 0ffffffffH
	DD	00H
	DD	0ffffffffH
	DD	00H
__tryblocktable$??$_Uninit_move@PAUtagDummyCharCreateInfo@@PAU1@V?$allocator@UtagDummyCharCreateInfo@@@std@@U1@@std@@YAPAUtagDummyCharCreateInfo@@PAU1@00AAV?$allocator@UtagDummyCharCreateInfo@@@0@0U_Nonscalar_ptr_iterator_tag@0@@Z DD 00H
	DD	00H
	DD	01H
	DD	01H
	DD	FLAT:__catchsym$??$_Uninit_move@PAUtagDummyCharCreateInfo@@PAU1@V?$allocator@UtagDummyCharCreateInfo@@@std@@U1@@std@@YAPAUtagDummyCharCreateInfo@@PAU1@00AAV?$allocator@UtagDummyCharCreateInfo@@@0@0U_Nonscalar_ptr_iterator_tag@0@@Z$3
__ehfuncinfo$??$_Uninit_move@PAUtagDummyCharCreateInfo@@PAU1@V?$allocator@UtagDummyCharCreateInfo@@@std@@U1@@std@@YAPAUtagDummyCharCreateInfo@@PAU1@00AAV?$allocator@UtagDummyCharCreateInfo@@@0@0U_Nonscalar_ptr_iterator_tag@0@@Z DD 019930522H
	DD	02H
	DD	FLAT:__unwindtable$??$_Uninit_move@PAUtagDummyCharCreateInfo@@PAU1@V?$allocator@UtagDummyCharCreateInfo@@@std@@U1@@std@@YAPAUtagDummyCharCreateInfo@@PAU1@00AAV?$allocator@UtagDummyCharCreateInfo@@@0@0U_Nonscalar_ptr_iterator_tag@0@@Z
	DD	01H
	DD	FLAT:__tryblocktable$??$_Uninit_move@PAUtagDummyCharCreateInfo@@PAU1@V?$allocator@UtagDummyCharCreateInfo@@@std@@U1@@std@@YAPAUtagDummyCharCreateInfo@@PAU1@00AAV?$allocator@UtagDummyCharCreateInfo@@@0@0U_Nonscalar_ptr_iterator_tag@0@@Z
	DD	2 DUP(00H)
	DD	00H
	DD	01H
; Function compile flags: /Ogsp
; File c:\program files (x86)\microsoft visual studio 10.0\vc\include\memory
xdata$x	ENDS
;	COMDAT ??$_Uninit_move@PAUtagDummyCharCreateInfo@@PAU1@V?$allocator@UtagDummyCharCreateInfo@@@std@@U1@@std@@YAPAUtagDummyCharCreateInfo@@PAU1@00AAV?$allocator@UtagDummyCharCreateInfo@@@0@0U_Nonscalar_ptr_iterator_tag@0@@Z
_TEXT	SEGMENT
__Next$ = -20						; size = 4
__$EHRec$ = -16						; size = 16
__First$ = 8						; size = 4
__Last$ = 12						; size = 4
__Dest$ = 16						; size = 4
__Al$ = 20						; size = 4
___formal$ = 24						; size = 4
___formal$ = 28						; size = 1
??$_Uninit_move@PAUtagDummyCharCreateInfo@@PAU1@V?$allocator@UtagDummyCharCreateInfo@@@std@@U1@@std@@YAPAUtagDummyCharCreateInfo@@PAU1@00AAV?$allocator@UtagDummyCharCreateInfo@@@0@0U_Nonscalar_ptr_iterator_tag@0@@Z PROC ; std::_Uninit_move<tagDummyCharCreateInfo *,tagDummyCharCreateInfo *,std::allocator<tagDummyCharCreateInfo>,tagDummyCharCreateInfo>, COMDAT

; 424  : 	{	// move [_First, _Last) to raw _Dest, using _Al, arbitrary type

  00000	6a 08		 push	 8
  00002	b8 00 00 00 00	 mov	 eax, __ehhandler$??$_Uninit_move@PAUtagDummyCharCreateInfo@@PAU1@V?$allocator@UtagDummyCharCreateInfo@@@std@@U1@@std@@YAPAUtagDummyCharCreateInfo@@PAU1@00AAV?$allocator@UtagDummyCharCreateInfo@@@0@0U_Nonscalar_ptr_iterator_tag@0@@Z
  00007	e8 00 00 00 00	 call	 __EH_prolog3_catch

; 425  : 	_DEBUG_RANGE(_First, _Last);
; 426  : 	_DEBUG_POINTER(_Dest);
; 427  : 	_FwdIt _Next = _Dest;

  0000c	8b 45 10	 mov	 eax, DWORD PTR __Dest$[ebp]

; 428  : 
; 429  : 	_TRY_BEGIN

  0000f	83 65 fc 00	 and	 DWORD PTR __$EHRec$[ebp+12], 0
  00013	8b 75 08	 mov	 esi, DWORD PTR __First$[ebp]
  00016	89 45 ec	 mov	 DWORD PTR __Next$[ebp], eax
$LL6@Uninit_mov:

; 430  : 	for (; _First != _Last; ++_Dest, ++_First)

  00019	3b 75 0c	 cmp	 esi, DWORD PTR __Last$[ebp]
  0001c	74 36		 je	 SHORT $LN4@Uninit_mov

; 431  : 		_Cons_val(_Al, _Dest, (_Valty &&)*_First);

  0001e	56		 push	 esi
  0001f	ff 75 10	 push	 DWORD PTR __Dest$[ebp]
  00022	ff 75 14	 push	 DWORD PTR __Al$[ebp]
  00025	e8 00 00 00 00	 call	 ??$_Cons_val@V?$allocator@UtagDummyCharCreateInfo@@@std@@UtagDummyCharCreateInfo@@U3@@std@@YAXAAV?$allocator@UtagDummyCharCreateInfo@@@0@PAUtagDummyCharCreateInfo@@$$QAU2@@Z ; std::_Cons_val<std::allocator<tagDummyCharCreateInfo>,tagDummyCharCreateInfo,tagDummyCharCreateInfo>
  0002a	83 45 10 24	 add	 DWORD PTR __Dest$[ebp], 36 ; 00000024H
  0002e	83 c4 0c	 add	 esp, 12			; 0000000cH
  00031	83 c6 24	 add	 esi, 36			; 00000024H
  00034	eb e3		 jmp	 SHORT $LL6@Uninit_mov
__catch$??$_Uninit_move@PAUtagDummyCharCreateInfo@@PAU1@V?$allocator@UtagDummyCharCreateInfo@@@std@@U1@@std@@YAPAUtagDummyCharCreateInfo@@PAU1@00AAV?$allocator@UtagDummyCharCreateInfo@@@0@0U_Nonscalar_ptr_iterator_tag@0@@Z$0:

; 432  : 	_CATCH_ALL
; 433  : 	for (; _Next != _Dest; ++_Next)

  00036	8b 75 ec	 mov	 esi, DWORD PTR __Next$[ebp]
  00039	eb 0b		 jmp	 SHORT $LN32@Uninit_mov
$LL3@Uninit_mov:

; 434  : 		_Dest_val(_Al, _Next);

  0003b	8b ce		 mov	 ecx, esi
  0003d	ff 15 00 00 00
	00		 call	 DWORD PTR __imp_??1ioHashString@@QAE@XZ
  00043	83 c6 24	 add	 esi, 36			; 00000024H
$LN32@Uninit_mov:

; 432  : 	_CATCH_ALL
; 433  : 	for (; _Next != _Dest; ++_Next)

  00046	3b 75 10	 cmp	 esi, DWORD PTR __Dest$[ebp]
  00049	75 f0		 jne	 SHORT $LL3@Uninit_mov

; 435  : 	_RERAISE;

  0004b	6a 00		 push	 0
  0004d	6a 00		 push	 0
  0004f	e8 00 00 00 00	 call	 __CxxThrowException@8
$LN33@Uninit_mov:
$LN4@Uninit_mov:

; 436  : 	_CATCH_END
; 437  : 	return (_Dest);

  00054	8b 45 10	 mov	 eax, DWORD PTR __Dest$[ebp]

; 438  : 	}

  00057	e8 00 00 00 00	 call	 __EH_epilog3
  0005c	c3		 ret	 0
$LN31@Uninit_mov:
_TEXT	ENDS
;	COMDAT text$x
text$x	SEGMENT
__ehhandler$??$_Uninit_move@PAUtagDummyCharCreateInfo@@PAU1@V?$allocator@UtagDummyCharCreateInfo@@@std@@U1@@std@@YAPAUtagDummyCharCreateInfo@@PAU1@00AAV?$allocator@UtagDummyCharCreateInfo@@@0@0U_Nonscalar_ptr_iterator_tag@0@@Z:
  00000	8b 54 24 08	 mov	 edx, DWORD PTR [esp+8]
  00004	8d 42 0c	 lea	 eax, DWORD PTR [edx+12]
  00007	8b 4a e8	 mov	 ecx, DWORD PTR [edx-24]
  0000a	33 c8		 xor	 ecx, eax
  0000c	e8 00 00 00 00	 call	 @__security_check_cookie@4
  00011	b8 00 00 00 00	 mov	 eax, OFFSET __ehfuncinfo$??$_Uninit_move@PAUtagDummyCharCreateInfo@@PAU1@V?$allocator@UtagDummyCharCreateInfo@@@std@@U1@@std@@YAPAUtagDummyCharCreateInfo@@PAU1@00AAV?$allocator@UtagDummyCharCreateInfo@@@0@0U_Nonscalar_ptr_iterator_tag@0@@Z
  00016	e9 00 00 00 00	 jmp	 ___CxxFrameHandler3
text$x	ENDS
??$_Uninit_move@PAUtagDummyCharCreateInfo@@PAU1@V?$allocator@UtagDummyCharCreateInfo@@@std@@U1@@std@@YAPAUtagDummyCharCreateInfo@@PAU1@00AAV?$allocator@UtagDummyCharCreateInfo@@@0@0U_Nonscalar_ptr_iterator_tag@0@@Z ENDP ; std::_Uninit_move<tagDummyCharCreateInfo *,tagDummyCharCreateInfo *,std::allocator<tagDummyCharCreateInfo>,tagDummyCharCreateInfo>
PUBLIC	??$_Destroy_range@V?$allocator@VioHashString@@@std@@@std@@YAXPAVioHashString@@0AAV?$allocator@VioHashString@@@0@U_Nonscalar_ptr_iterator_tag@0@@Z ; std::_Destroy_range<std::allocator<ioHashString> >
; Function compile flags: /Ogsp
; File c:\program files (x86)\microsoft visual studio 10.0\vc\include\xmemory
;	COMDAT ??$_Destroy_range@V?$allocator@VioHashString@@@std@@@std@@YAXPAVioHashString@@0AAV?$allocator@VioHashString@@@0@U_Nonscalar_ptr_iterator_tag@0@@Z
_TEXT	SEGMENT
__First$ = 8						; size = 4
__Last$ = 12						; size = 4
__Al$ = 16						; size = 4
___formal$ = 20						; size = 1
??$_Destroy_range@V?$allocator@VioHashString@@@std@@@std@@YAXPAVioHashString@@0AAV?$allocator@VioHashString@@@0@U_Nonscalar_ptr_iterator_tag@0@@Z PROC ; std::_Destroy_range<std::allocator<ioHashString> >, COMDAT

; 95   : 	{	// destroy [_First, _Last), arbitrary type

  00000	55		 push	 ebp
  00001	8b ec		 mov	 ebp, esp
  00003	56		 push	 esi

; 96   : 	for (; _First != _Last; ++_First)

  00004	8b 75 08	 mov	 esi, DWORD PTR __First$[ebp]
  00007	eb 0b		 jmp	 SHORT $LN17@Destroy_ra@2
$LL3@Destroy_ra@2:

; 97   : 		_Dest_val(_Al, _First);

  00009	8b ce		 mov	 ecx, esi
  0000b	ff 15 00 00 00
	00		 call	 DWORD PTR __imp_??1ioHashString@@QAE@XZ
  00011	83 c6 10	 add	 esi, 16			; 00000010H
$LN17@Destroy_ra@2:

; 96   : 	for (; _First != _Last; ++_First)

  00014	3b 75 0c	 cmp	 esi, DWORD PTR __Last$[ebp]
  00017	75 f0		 jne	 SHORT $LL3@Destroy_ra@2
  00019	5e		 pop	 esi

; 98   : 	}

  0001a	5d		 pop	 ebp
  0001b	c3		 ret	 0
??$_Destroy_range@V?$allocator@VioHashString@@@std@@@std@@YAXPAVioHashString@@0AAV?$allocator@VioHashString@@@0@U_Nonscalar_ptr_iterator_tag@0@@Z ENDP ; std::_Destroy_range<std::allocator<ioHashString> >
_TEXT	ENDS
PUBLIC	??$_Uninit_copy@V?$_Vector_const_iterator@V?$_Vector_val@VioHashString@@V?$allocator@VioHashString@@@std@@@std@@@std@@PAVioHashString@@V?$allocator@VioHashString@@@2@@std@@YAPAVioHashString@@V?$_Vector_const_iterator@V?$_Vector_val@VioHashString@@V?$allocator@VioHashString@@@std@@@std@@@0@0PAV1@AAV?$allocator@VioHashString@@@0@U_Nonscalar_ptr_iterator_tag@0@@Z ; std::_Uninit_copy<std::_Vector_const_iterator<std::_Vector_val<ioHashString,std::allocator<ioHashString> > >,ioHashString *,std::allocator<ioHashString> >
;	COMDAT xdata$x
; File c:\program files (x86)\microsoft visual studio 10.0\vc\include\vector
xdata$x	SEGMENT
__catchsym$??$_Uninit_copy@V?$_Vector_const_iterator@V?$_Vector_val@VioHashString@@V?$allocator@VioHashString@@@std@@@std@@@std@@PAVioHashString@@V?$allocator@VioHashString@@@2@@std@@YAPAVioHashString@@V?$_Vector_const_iterator@V?$_Vector_val@VioHashString@@V?$allocator@VioHashString@@@std@@@std@@@0@0PAV1@AAV?$allocator@VioHashString@@@0@U_Nonscalar_ptr_iterator_tag@0@@Z$2 DD 040H
	DD	00H
	DD	00H
	DD	FLAT:__catch$??$_Uninit_copy@V?$_Vector_const_iterator@V?$_Vector_val@VioHashString@@V?$allocator@VioHashString@@@std@@@std@@@std@@PAVioHashString@@V?$allocator@VioHashString@@@2@@std@@YAPAVioHashString@@V?$_Vector_const_iterator@V?$_Vector_val@VioHashString@@V?$allocator@VioHashString@@@std@@@std@@@0@0PAV1@AAV?$allocator@VioHashString@@@0@U_Nonscalar_ptr_iterator_tag@0@@Z$0
__unwindtable$??$_Uninit_copy@V?$_Vector_const_iterator@V?$_Vector_val@VioHashString@@V?$allocator@VioHashString@@@std@@@std@@@std@@PAVioHashString@@V?$allocator@VioHashString@@@2@@std@@YAPAVioHashString@@V?$_Vector_const_iterator@V?$_Vector_val@VioHashString@@V?$allocator@VioHashString@@@std@@@std@@@0@0PAV1@AAV?$allocator@VioHashString@@@0@U_Nonscalar_ptr_iterator_tag@0@@Z DD 0ffffffffH
	DD	00H
	DD	0ffffffffH
	DD	00H
__tryblocktable$??$_Uninit_copy@V?$_Vector_const_iterator@V?$_Vector_val@VioHashString@@V?$allocator@VioHashString@@@std@@@std@@@std@@PAVioHashString@@V?$allocator@VioHashString@@@2@@std@@YAPAVioHashString@@V?$_Vector_const_iterator@V?$_Vector_val@VioHashString@@V?$allocator@VioHashString@@@std@@@std@@@0@0PAV1@AAV?$allocator@VioHashString@@@0@U_Nonscalar_ptr_iterator_tag@0@@Z DD 00H
	DD	00H
	DD	01H
	DD	01H
	DD	FLAT:__catchsym$??$_Uninit_copy@V?$_Vector_const_iterator@V?$_Vector_val@VioHashString@@V?$allocator@VioHashString@@@std@@@std@@@std@@PAVioHashString@@V?$allocator@VioHashString@@@2@@std@@YAPAVioHashString@@V?$_Vector_const_iterator@V?$_Vector_val@VioHashString@@V?$allocator@VioHashString@@@std@@@std@@@0@0PAV1@AAV?$allocator@VioHashString@@@0@U_Nonscalar_ptr_iterator_tag@0@@Z$2
__ehfuncinfo$??$_Uninit_copy@V?$_Vector_const_iterator@V?$_Vector_val@VioHashString@@V?$allocator@VioHashString@@@std@@@std@@@std@@PAVioHashString@@V?$allocator@VioHashString@@@2@@std@@YAPAVioHashString@@V?$_Vector_const_iterator@V?$_Vector_val@VioHashString@@V?$allocator@VioHashString@@@std@@@std@@@0@0PAV1@AAV?$allocator@VioHashString@@@0@U_Nonscalar_ptr_iterator_tag@0@@Z DD 019930522H
	DD	02H
	DD	FLAT:__unwindtable$??$_Uninit_copy@V?$_Vector_const_iterator@V?$_Vector_val@VioHashString@@V?$allocator@VioHashString@@@std@@@std@@@std@@PAVioHashString@@V?$allocator@VioHashString@@@2@@std@@YAPAVioHashString@@V?$_Vector_const_iterator@V?$_Vector_val@VioHashString@@V?$allocator@VioHashString@@@std@@@std@@@0@0PAV1@AAV?$allocator@VioHashString@@@0@U_Nonscalar_ptr_iterator_tag@0@@Z
	DD	01H
	DD	FLAT:__tryblocktable$??$_Uninit_copy@V?$_Vector_const_iterator@V?$_Vector_val@VioHashString@@V?$allocator@VioHashString@@@std@@@std@@@std@@PAVioHashString@@V?$allocator@VioHashString@@@2@@std@@YAPAVioHashString@@V?$_Vector_const_iterator@V?$_Vector_val@VioHashString@@V?$allocator@VioHashString@@@std@@@std@@@0@0PAV1@AAV?$allocator@VioHashString@@@0@U_Nonscalar_ptr_iterator_tag@0@@Z
	DD	2 DUP(00H)
	DD	00H
	DD	01H
; Function compile flags: /Ogsp
; File c:\program files (x86)\microsoft visual studio 10.0\vc\include\memory
xdata$x	ENDS
;	COMDAT ??$_Uninit_copy@V?$_Vector_const_iterator@V?$_Vector_val@VioHashString@@V?$allocator@VioHashString@@@std@@@std@@@std@@PAVioHashString@@V?$allocator@VioHashString@@@2@@std@@YAPAVioHashString@@V?$_Vector_const_iterator@V?$_Vector_val@VioHashString@@V?$allocator@VioHashString@@@std@@@std@@@0@0PAV1@AAV?$allocator@VioHashString@@@0@U_Nonscalar_ptr_iterator_tag@0@@Z
_TEXT	SEGMENT
__Next$ = -20						; size = 4
__$EHRec$ = -16						; size = 16
__First$ = 8						; size = 4
__Last$ = 12						; size = 4
__Dest$ = 16						; size = 4
__Al$ = 20						; size = 4
___formal$ = 24						; size = 1
??$_Uninit_copy@V?$_Vector_const_iterator@V?$_Vector_val@VioHashString@@V?$allocator@VioHashString@@@std@@@std@@@std@@PAVioHashString@@V?$allocator@VioHashString@@@2@@std@@YAPAVioHashString@@V?$_Vector_const_iterator@V?$_Vector_val@VioHashString@@V?$allocator@VioHashString@@@std@@@std@@@0@0PAV1@AAV?$allocator@VioHashString@@@0@U_Nonscalar_ptr_iterator_tag@0@@Z PROC ; std::_Uninit_copy<std::_Vector_const_iterator<std::_Vector_val<ioHashString,std::allocator<ioHashString> > >,ioHashString *,std::allocator<ioHashString> >, COMDAT

; 369  : 	{	// copy [_First, _Last) to raw _Dest, using _Al, arbitrary type

  00000	6a 08		 push	 8
  00002	b8 00 00 00 00	 mov	 eax, __ehhandler$??$_Uninit_copy@V?$_Vector_const_iterator@V?$_Vector_val@VioHashString@@V?$allocator@VioHashString@@@std@@@std@@@std@@PAVioHashString@@V?$allocator@VioHashString@@@2@@std@@YAPAVioHashString@@V?$_Vector_const_iterator@V?$_Vector_val@VioHashString@@V?$allocator@VioHashString@@@std@@@std@@@0@0PAV1@AAV?$allocator@VioHashString@@@0@U_Nonscalar_ptr_iterator_tag@0@@Z
  00007	e8 00 00 00 00	 call	 __EH_prolog3_catch

; 370  : 	_DEBUG_RANGE(_First, _Last);
; 371  : 	_DEBUG_POINTER(_Dest);
; 372  : 	_FwdIt _Next = _Dest;

  0000c	8b 45 10	 mov	 eax, DWORD PTR __Dest$[ebp]

; 373  : 
; 374  : 	_TRY_BEGIN

  0000f	83 65 fc 00	 and	 DWORD PTR __$EHRec$[ebp+12], 0
  00013	89 45 ec	 mov	 DWORD PTR __Next$[ebp], eax

; 375  : 	for (; _First != _Last; ++_Dest, ++_First)

$LL14@Uninit_cop:
  00016	8b 45 08	 mov	 eax, DWORD PTR __First$[ebp]
  00019	3b 45 0c	 cmp	 eax, DWORD PTR __Last$[ebp]
  0001c	74 33		 je	 SHORT $LN4@Uninit_cop

; 376  : 		_Cons_val(_Al, _Dest, *_First);

  0001e	50		 push	 eax
  0001f	ff 75 10	 push	 DWORD PTR __Dest$[ebp]
  00022	e8 00 00 00 00	 call	 ??$_Construct@VioHashString@@ABV1@@std@@YAXPAVioHashString@@ABV1@@Z ; std::_Construct<ioHashString,ioHashString const &>
  00027	83 45 10 10	 add	 DWORD PTR __Dest$[ebp], 16 ; 00000010H
  0002b	83 45 08 10	 add	 DWORD PTR __First$[ebp], 16 ; 00000010H
  0002f	59		 pop	 ecx
  00030	59		 pop	 ecx
  00031	eb e3		 jmp	 SHORT $LL14@Uninit_cop
__catch$??$_Uninit_copy@V?$_Vector_const_iterator@V?$_Vector_val@VioHashString@@V?$allocator@VioHashString@@@std@@@std@@@std@@PAVioHashString@@V?$allocator@VioHashString@@@2@@std@@YAPAVioHashString@@V?$_Vector_const_iterator@V?$_Vector_val@VioHashString@@V?$allocator@VioHashString@@@std@@@std@@@0@0PAV1@AAV?$allocator@VioHashString@@@0@U_Nonscalar_ptr_iterator_tag@0@@Z$0:

; 377  : 	_CATCH_ALL
; 378  : 	for (; _Next != _Dest; ++_Next)

  00033	8b 75 ec	 mov	 esi, DWORD PTR __Next$[ebp]
  00036	eb 0b		 jmp	 SHORT $LN45@Uninit_cop
$LL3@Uninit_cop:

; 379  : 		_Dest_val(_Al, _Next);

  00038	8b ce		 mov	 ecx, esi
  0003a	ff 15 00 00 00
	00		 call	 DWORD PTR __imp_??1ioHashString@@QAE@XZ
  00040	83 c6 10	 add	 esi, 16			; 00000010H
$LN45@Uninit_cop:

; 377  : 	_CATCH_ALL
; 378  : 	for (; _Next != _Dest; ++_Next)

  00043	3b 75 10	 cmp	 esi, DWORD PTR __Dest$[ebp]
  00046	75 f0		 jne	 SHORT $LL3@Uninit_cop

; 380  : 	_RERAISE;

  00048	6a 00		 push	 0
  0004a	6a 00		 push	 0
  0004c	e8 00 00 00 00	 call	 __CxxThrowException@8
$LN46@Uninit_cop:
$LN4@Uninit_cop:

; 381  : 	_CATCH_END
; 382  : 	return (_Dest);

  00051	8b 45 10	 mov	 eax, DWORD PTR __Dest$[ebp]

; 383  : 	}

  00054	e8 00 00 00 00	 call	 __EH_epilog3
  00059	c3		 ret	 0
$LN44@Uninit_cop:
_TEXT	ENDS
;	COMDAT text$x
text$x	SEGMENT
__ehhandler$??$_Uninit_copy@V?$_Vector_const_iterator@V?$_Vector_val@VioHashString@@V?$allocator@VioHashString@@@std@@@std@@@std@@PAVioHashString@@V?$allocator@VioHashString@@@2@@std@@YAPAVioHashString@@V?$_Vector_const_iterator@V?$_Vector_val@VioHashString@@V?$allocator@VioHashString@@@std@@@std@@@0@0PAV1@AAV?$allocator@VioHashString@@@0@U_Nonscalar_ptr_iterator_tag@0@@Z:
  00000	8b 54 24 08	 mov	 edx, DWORD PTR [esp+8]
  00004	8d 42 0c	 lea	 eax, DWORD PTR [edx+12]
  00007	8b 4a e8	 mov	 ecx, DWORD PTR [edx-24]
  0000a	33 c8		 xor	 ecx, eax
  0000c	e8 00 00 00 00	 call	 @__security_check_cookie@4
  00011	b8 00 00 00 00	 mov	 eax, OFFSET __ehfuncinfo$??$_Uninit_copy@V?$_Vector_const_iterator@V?$_Vector_val@VioHashString@@V?$allocator@VioHashString@@@std@@@std@@@std@@PAVioHashString@@V?$allocator@VioHashString@@@2@@std@@YAPAVioHashString@@V?$_Vector_const_iterator@V?$_Vector_val@VioHashString@@V?$allocator@VioHashString@@@std@@@std@@@0@0PAV1@AAV?$allocator@VioHashString@@@0@U_Nonscalar_ptr_iterator_tag@0@@Z
  00016	e9 00 00 00 00	 jmp	 ___CxxFrameHandler3
text$x	ENDS
??$_Uninit_copy@V?$_Vector_const_iterator@V?$_Vector_val@VioHashString@@V?$allocator@VioHashString@@@std@@@std@@@std@@PAVioHashString@@V?$allocator@VioHashString@@@2@@std@@YAPAVioHashString@@V?$_Vector_const_iterator@V?$_Vector_val@VioHashString@@V?$allocator@VioHashString@@@std@@@std@@@0@0PAV1@AAV?$allocator@VioHashString@@@0@U_Nonscalar_ptr_iterator_tag@0@@Z ENDP ; std::_Uninit_copy<std::_Vector_const_iterator<std::_Vector_val<ioHashString,std::allocator<ioHashString> > >,ioHashString *,std::allocator<ioHashString> >
PUBLIC	??$_Dest_val@V?$allocator@UtagDummyCharLoadInfo@@@std@@UtagDummyCharLoadInfo@@@std@@YAXAAV?$allocator@UtagDummyCharLoadInfo@@@0@PAUtagDummyCharLoadInfo@@@Z ; std::_Dest_val<std::allocator<tagDummyCharLoadInfo>,tagDummyCharLoadInfo>
; Function compile flags: /Ogsp
; File c:\program files (x86)\microsoft visual studio 10.0\vc\include\xmemory
;	COMDAT ??$_Dest_val@V?$allocator@UtagDummyCharLoadInfo@@@std@@UtagDummyCharLoadInfo@@@std@@YAXAAV?$allocator@UtagDummyCharLoadInfo@@@0@PAUtagDummyCharLoadInfo@@@Z
_TEXT	SEGMENT
__Alval$ = 8						; size = 4
__Pdest$ = 12						; size = 4
??$_Dest_val@V?$allocator@UtagDummyCharLoadInfo@@@std@@UtagDummyCharLoadInfo@@@std@@YAXAAV?$allocator@UtagDummyCharLoadInfo@@@0@PAUtagDummyCharLoadInfo@@@Z PROC ; std::_Dest_val<std::allocator<tagDummyCharLoadInfo>,tagDummyCharLoadInfo>, COMDAT

; 286  : 	{	// destroy using allocator

  00000	55		 push	 ebp
  00001	8b ec		 mov	 ebp, esp

; 287  : 	_Alval.destroy(_Pdest);

  00003	8b 4d 0c	 mov	 ecx, DWORD PTR __Pdest$[ebp]

; 288  : 	}

  00006	5d		 pop	 ebp

; 287  : 	_Alval.destroy(_Pdest);

  00007	ff 25 00 00 00
	00		 jmp	 DWORD PTR __imp_??1ioHashString@@QAE@XZ
??$_Dest_val@V?$allocator@UtagDummyCharLoadInfo@@@std@@UtagDummyCharLoadInfo@@@std@@YAXAAV?$allocator@UtagDummyCharLoadInfo@@@0@PAUtagDummyCharLoadInfo@@@Z ENDP ; std::_Dest_val<std::allocator<tagDummyCharLoadInfo>,tagDummyCharLoadInfo>
_TEXT	ENDS
PUBLIC	??$_Destroy_range@V?$allocator@UtagDummyCharCreateInfo@@@std@@@std@@YAXPAUtagDummyCharCreateInfo@@0AAV?$allocator@UtagDummyCharCreateInfo@@@0@@Z ; std::_Destroy_range<std::allocator<tagDummyCharCreateInfo> >
; Function compile flags: /Ogsp
;	COMDAT ??$_Destroy_range@V?$allocator@UtagDummyCharCreateInfo@@@std@@@std@@YAXPAUtagDummyCharCreateInfo@@0AAV?$allocator@UtagDummyCharCreateInfo@@@0@@Z
_TEXT	SEGMENT
__First$ = 8						; size = 4
__Last$ = 12						; size = 4
__Al$ = 16						; size = 4
??$_Destroy_range@V?$allocator@UtagDummyCharCreateInfo@@@std@@@std@@YAXPAUtagDummyCharCreateInfo@@0AAV?$allocator@UtagDummyCharCreateInfo@@@0@@Z PROC ; std::_Destroy_range<std::allocator<tagDummyCharCreateInfo> >, COMDAT

; 87   : 	{	// destroy [_First, _Last)

  00000	55		 push	 ebp
  00001	8b ec		 mov	 ebp, esp
  00003	56		 push	 esi

; 88   : 	_Destroy_range(_First, _Last, _Al, _Ptr_cat(_First, _Last));

  00004	8b 75 08	 mov	 esi, DWORD PTR __First$[ebp]
  00007	eb 0b		 jmp	 SHORT $LN24@Destroy_ra@3
$LL7@Destroy_ra@3:
  00009	8b ce		 mov	 ecx, esi
  0000b	ff 15 00 00 00
	00		 call	 DWORD PTR __imp_??1ioHashString@@QAE@XZ
  00011	83 c6 24	 add	 esi, 36			; 00000024H
$LN24@Destroy_ra@3:
  00014	3b 75 0c	 cmp	 esi, DWORD PTR __Last$[ebp]
  00017	75 f0		 jne	 SHORT $LL7@Destroy_ra@3
  00019	5e		 pop	 esi

; 89   : 	}

  0001a	5d		 pop	 ebp
  0001b	c3		 ret	 0
??$_Destroy_range@V?$allocator@UtagDummyCharCreateInfo@@@std@@@std@@YAXPAUtagDummyCharCreateInfo@@0AAV?$allocator@UtagDummyCharCreateInfo@@@0@@Z ENDP ; std::_Destroy_range<std::allocator<tagDummyCharCreateInfo> >
_TEXT	ENDS
PUBLIC	??$_Uninitialized_move@PAUtagDummyCharCreateInfo@@PAU1@V?$allocator@UtagDummyCharCreateInfo@@@std@@@std@@YAPAUtagDummyCharCreateInfo@@PAU1@00AAV?$allocator@UtagDummyCharCreateInfo@@@0@@Z ; std::_Uninitialized_move<tagDummyCharCreateInfo *,tagDummyCharCreateInfo *,std::allocator<tagDummyCharCreateInfo> >
; Function compile flags: /Ogsp
; File c:\program files (x86)\microsoft visual studio 10.0\vc\include\memory
;	COMDAT ??$_Uninitialized_move@PAUtagDummyCharCreateInfo@@PAU1@V?$allocator@UtagDummyCharCreateInfo@@@std@@@std@@YAPAUtagDummyCharCreateInfo@@PAU1@00AAV?$allocator@UtagDummyCharCreateInfo@@@0@@Z
_TEXT	SEGMENT
__Cat$535729 = -4					; size = 1
__First$ = 8						; size = 4
__Last$ = 12						; size = 4
__Dest$ = 16						; size = 4
__Al$ = 20						; size = 4
??$_Uninitialized_move@PAUtagDummyCharCreateInfo@@PAU1@V?$allocator@UtagDummyCharCreateInfo@@@std@@@std@@YAPAUtagDummyCharCreateInfo@@PAU1@00AAV?$allocator@UtagDummyCharCreateInfo@@@0@@Z PROC ; std::_Uninitialized_move<tagDummyCharCreateInfo *,tagDummyCharCreateInfo *,std::allocator<tagDummyCharCreateInfo> >, COMDAT

; 469  : 	{	// move [_First, _Last) to raw _Dest, using _Al

  00000	55		 push	 ebp
  00001	8b ec		 mov	 ebp, esp
  00003	51		 push	 ecx

; 470  : 	return (_Uninit_move(_First, _Last, _Dest, _Al,
; 471  : 		_Val_type(_First), _Ptr_cat(_First, _Dest)));

  00004	ff 75 fc	 push	 DWORD PTR __Cat$535729[ebp]
  00007	6a 00		 push	 0
  00009	ff 75 14	 push	 DWORD PTR __Al$[ebp]
  0000c	ff 75 10	 push	 DWORD PTR __Dest$[ebp]
  0000f	ff 75 0c	 push	 DWORD PTR __Last$[ebp]
  00012	ff 75 08	 push	 DWORD PTR __First$[ebp]
  00015	e8 00 00 00 00	 call	 ??$_Uninit_move@PAUtagDummyCharCreateInfo@@PAU1@V?$allocator@UtagDummyCharCreateInfo@@@std@@U1@@std@@YAPAUtagDummyCharCreateInfo@@PAU1@00AAV?$allocator@UtagDummyCharCreateInfo@@@0@0U_Nonscalar_ptr_iterator_tag@0@@Z ; std::_Uninit_move<tagDummyCharCreateInfo *,tagDummyCharCreateInfo *,std::allocator<tagDummyCharCreateInfo>,tagDummyCharCreateInfo>
  0001a	83 c4 18	 add	 esp, 24			; 00000018H

; 472  : 	}

  0001d	c9		 leave
  0001e	c3		 ret	 0
??$_Uninitialized_move@PAUtagDummyCharCreateInfo@@PAU1@V?$allocator@UtagDummyCharCreateInfo@@@std@@@std@@YAPAUtagDummyCharCreateInfo@@PAU1@00AAV?$allocator@UtagDummyCharCreateInfo@@@0@@Z ENDP ; std::_Uninitialized_move<tagDummyCharCreateInfo *,tagDummyCharCreateInfo *,std::allocator<tagDummyCharCreateInfo> >
_TEXT	ENDS
PUBLIC	??$_Uninit_copy@V?$_Vector_const_iterator@V?$_Vector_val@UtagDummyCharLoadInfo@@V?$allocator@UtagDummyCharLoadInfo@@@std@@@std@@@std@@PAUtagDummyCharLoadInfo@@V?$allocator@UtagDummyCharLoadInfo@@@2@@std@@YAPAUtagDummyCharLoadInfo@@V?$_Vector_const_iterator@V?$_Vector_val@UtagDummyCharLoadInfo@@V?$allocator@UtagDummyCharLoadInfo@@@std@@@std@@@0@0PAU1@AAV?$allocator@UtagDummyCharLoadInfo@@@0@U_Nonscalar_ptr_iterator_tag@0@@Z ; std::_Uninit_copy<std::_Vector_const_iterator<std::_Vector_val<tagDummyCharLoadInfo,std::allocator<tagDummyCharLoadInfo> > >,tagDummyCharLoadInfo *,std::allocator<tagDummyCharLoadInfo> >
;	COMDAT xdata$x
; File c:\program files (x86)\microsoft visual studio 10.0\vc\include\vector
xdata$x	SEGMENT
__catchsym$??$_Uninit_copy@V?$_Vector_const_iterator@V?$_Vector_val@UtagDummyCharLoadInfo@@V?$allocator@UtagDummyCharLoadInfo@@@std@@@std@@@std@@PAUtagDummyCharLoadInfo@@V?$allocator@UtagDummyCharLoadInfo@@@2@@std@@YAPAUtagDummyCharLoadInfo@@V?$_Vector_const_iterator@V?$_Vector_val@UtagDummyCharLoadInfo@@V?$allocator@UtagDummyCharLoadInfo@@@std@@@std@@@0@0PAU1@AAV?$allocator@UtagDummyCharLoadInfo@@@0@U_Nonscalar_ptr_iterator_tag@0@@Z$3 DD 040H
	DD	00H
	DD	00H
	DD	FLAT:__catch$??$_Uninit_copy@V?$_Vector_const_iterator@V?$_Vector_val@UtagDummyCharLoadInfo@@V?$allocator@UtagDummyCharLoadInfo@@@std@@@std@@@std@@PAUtagDummyCharLoadInfo@@V?$allocator@UtagDummyCharLoadInfo@@@2@@std@@YAPAUtagDummyCharLoadInfo@@V?$_Vector_const_iterator@V?$_Vector_val@UtagDummyCharLoadInfo@@V?$allocator@UtagDummyCharLoadInfo@@@std@@@std@@@0@0PAU1@AAV?$allocator@UtagDummyCharLoadInfo@@@0@U_Nonscalar_ptr_iterator_tag@0@@Z$0
__unwindtable$??$_Uninit_copy@V?$_Vector_const_iterator@V?$_Vector_val@UtagDummyCharLoadInfo@@V?$allocator@UtagDummyCharLoadInfo@@@std@@@std@@@std@@PAUtagDummyCharLoadInfo@@V?$allocator@UtagDummyCharLoadInfo@@@2@@std@@YAPAUtagDummyCharLoadInfo@@V?$_Vector_const_iterator@V?$_Vector_val@UtagDummyCharLoadInfo@@V?$allocator@UtagDummyCharLoadInfo@@@std@@@std@@@0@0PAU1@AAV?$allocator@UtagDummyCharLoadInfo@@@0@U_Nonscalar_ptr_iterator_tag@0@@Z DD 0ffffffffH
	DD	00H
	DD	0ffffffffH
	DD	00H
__tryblocktable$??$_Uninit_copy@V?$_Vector_const_iterator@V?$_Vector_val@UtagDummyCharLoadInfo@@V?$allocator@UtagDummyCharLoadInfo@@@std@@@std@@@std@@PAUtagDummyCharLoadInfo@@V?$allocator@UtagDummyCharLoadInfo@@@2@@std@@YAPAUtagDummyCharLoadInfo@@V?$_Vector_const_iterator@V?$_Vector_val@UtagDummyCharLoadInfo@@V?$allocator@UtagDummyCharLoadInfo@@@std@@@std@@@0@0PAU1@AAV?$allocator@UtagDummyCharLoadInfo@@@0@U_Nonscalar_ptr_iterator_tag@0@@Z DD 00H
	DD	00H
	DD	01H
	DD	01H
	DD	FLAT:__catchsym$??$_Uninit_copy@V?$_Vector_const_iterator@V?$_Vector_val@UtagDummyCharLoadInfo@@V?$allocator@UtagDummyCharLoadInfo@@@std@@@std@@@std@@PAUtagDummyCharLoadInfo@@V?$allocator@UtagDummyCharLoadInfo@@@2@@std@@YAPAUtagDummyCharLoadInfo@@V?$_Vector_const_iterator@V?$_Vector_val@UtagDummyCharLoadInfo@@V?$allocator@UtagDummyCharLoadInfo@@@std@@@std@@@0@0PAU1@AAV?$allocator@UtagDummyCharLoadInfo@@@0@U_Nonscalar_ptr_iterator_tag@0@@Z$3
__ehfuncinfo$??$_Uninit_copy@V?$_Vector_const_iterator@V?$_Vector_val@UtagDummyCharLoadInfo@@V?$allocator@UtagDummyCharLoadInfo@@@std@@@std@@@std@@PAUtagDummyCharLoadInfo@@V?$allocator@UtagDummyCharLoadInfo@@@2@@std@@YAPAUtagDummyCharLoadInfo@@V?$_Vector_const_iterator@V?$_Vector_val@UtagDummyCharLoadInfo@@V?$allocator@UtagDummyCharLoadInfo@@@std@@@std@@@0@0PAU1@AAV?$allocator@UtagDummyCharLoadInfo@@@0@U_Nonscalar_ptr_iterator_tag@0@@Z DD 019930522H
	DD	02H
	DD	FLAT:__unwindtable$??$_Uninit_copy@V?$_Vector_const_iterator@V?$_Vector_val@UtagDummyCharLoadInfo@@V?$allocator@UtagDummyCharLoadInfo@@@std@@@std@@@std@@PAUtagDummyCharLoadInfo@@V?$allocator@UtagDummyCharLoadInfo@@@2@@std@@YAPAUtagDummyCharLoadInfo@@V?$_Vector_const_iterator@V?$_Vector_val@UtagDummyCharLoadInfo@@V?$allocator@UtagDummyCharLoadInfo@@@std@@@std@@@0@0PAU1@AAV?$allocator@UtagDummyCharLoadInfo@@@0@U_Nonscalar_ptr_iterator_tag@0@@Z
	DD	01H
	DD	FLAT:__tryblocktable$??$_Uninit_copy@V?$_Vector_const_iterator@V?$_Vector_val@UtagDummyCharLoadInfo@@V?$allocator@UtagDummyCharLoadInfo@@@std@@@std@@@std@@PAUtagDummyCharLoadInfo@@V?$allocator@UtagDummyCharLoadInfo@@@2@@std@@YAPAUtagDummyCharLoadInfo@@V?$_Vector_const_iterator@V?$_Vector_val@UtagDummyCharLoadInfo@@V?$allocator@UtagDummyCharLoadInfo@@@std@@@std@@@0@0PAU1@AAV?$allocator@UtagDummyCharLoadInfo@@@0@U_Nonscalar_ptr_iterator_tag@0@@Z
	DD	2 DUP(00H)
	DD	00H
	DD	01H
; Function compile flags: /Ogsp
; File c:\program files (x86)\microsoft visual studio 10.0\vc\include\memory
xdata$x	ENDS
;	COMDAT ??$_Uninit_copy@V?$_Vector_const_iterator@V?$_Vector_val@UtagDummyCharLoadInfo@@V?$allocator@UtagDummyCharLoadInfo@@@std@@@std@@@std@@PAUtagDummyCharLoadInfo@@V?$allocator@UtagDummyCharLoadInfo@@@2@@std@@YAPAUtagDummyCharLoadInfo@@V?$_Vector_const_iterator@V?$_Vector_val@UtagDummyCharLoadInfo@@V?$allocator@UtagDummyCharLoadInfo@@@std@@@std@@@0@0PAU1@AAV?$allocator@UtagDummyCharLoadInfo@@@0@U_Nonscalar_ptr_iterator_tag@0@@Z
_TEXT	SEGMENT
__Next$ = -20						; size = 4
__$EHRec$ = -16						; size = 16
__First$ = 8						; size = 4
__Last$ = 12						; size = 4
__Dest$ = 16						; size = 4
__Al$ = 20						; size = 4
___formal$ = 24						; size = 1
??$_Uninit_copy@V?$_Vector_const_iterator@V?$_Vector_val@UtagDummyCharLoadInfo@@V?$allocator@UtagDummyCharLoadInfo@@@std@@@std@@@std@@PAUtagDummyCharLoadInfo@@V?$allocator@UtagDummyCharLoadInfo@@@2@@std@@YAPAUtagDummyCharLoadInfo@@V?$_Vector_const_iterator@V?$_Vector_val@UtagDummyCharLoadInfo@@V?$allocator@UtagDummyCharLoadInfo@@@std@@@std@@@0@0PAU1@AAV?$allocator@UtagDummyCharLoadInfo@@@0@U_Nonscalar_ptr_iterator_tag@0@@Z PROC ; std::_Uninit_copy<std::_Vector_const_iterator<std::_Vector_val<tagDummyCharLoadInfo,std::allocator<tagDummyCharLoadInfo> > >,tagDummyCharLoadInfo *,std::allocator<tagDummyCharLoadInfo> >, COMDAT

; 369  : 	{	// copy [_First, _Last) to raw _Dest, using _Al, arbitrary type

  00000	6a 08		 push	 8
  00002	b8 00 00 00 00	 mov	 eax, __ehhandler$??$_Uninit_copy@V?$_Vector_const_iterator@V?$_Vector_val@UtagDummyCharLoadInfo@@V?$allocator@UtagDummyCharLoadInfo@@@std@@@std@@@std@@PAUtagDummyCharLoadInfo@@V?$allocator@UtagDummyCharLoadInfo@@@2@@std@@YAPAUtagDummyCharLoadInfo@@V?$_Vector_const_iterator@V?$_Vector_val@UtagDummyCharLoadInfo@@V?$allocator@UtagDummyCharLoadInfo@@@std@@@std@@@0@0PAU1@AAV?$allocator@UtagDummyCharLoadInfo@@@0@U_Nonscalar_ptr_iterator_tag@0@@Z
  00007	e8 00 00 00 00	 call	 __EH_prolog3_catch

; 370  : 	_DEBUG_RANGE(_First, _Last);
; 371  : 	_DEBUG_POINTER(_Dest);
; 372  : 	_FwdIt _Next = _Dest;

  0000c	8b 45 10	 mov	 eax, DWORD PTR __Dest$[ebp]

; 373  : 
; 374  : 	_TRY_BEGIN

  0000f	83 65 fc 00	 and	 DWORD PTR __$EHRec$[ebp+12], 0
  00013	89 45 ec	 mov	 DWORD PTR __Next$[ebp], eax

; 375  : 	for (; _First != _Last; ++_Dest, ++_First)

$LL14@Uninit_cop@2:
  00016	8b 45 08	 mov	 eax, DWORD PTR __First$[ebp]
  00019	3b 45 0c	 cmp	 eax, DWORD PTR __Last$[ebp]
  0001c	74 33		 je	 SHORT $LN4@Uninit_cop@2

; 376  : 		_Cons_val(_Al, _Dest, *_First);

  0001e	50		 push	 eax
  0001f	ff 75 10	 push	 DWORD PTR __Dest$[ebp]
  00022	e8 00 00 00 00	 call	 ??$_Construct@UtagDummyCharLoadInfo@@ABU1@@std@@YAXPAUtagDummyCharLoadInfo@@ABU1@@Z ; std::_Construct<tagDummyCharLoadInfo,tagDummyCharLoadInfo const &>
  00027	83 45 10 1c	 add	 DWORD PTR __Dest$[ebp], 28 ; 0000001cH
  0002b	83 45 08 1c	 add	 DWORD PTR __First$[ebp], 28 ; 0000001cH
  0002f	59		 pop	 ecx
  00030	59		 pop	 ecx
  00031	eb e3		 jmp	 SHORT $LL14@Uninit_cop@2
__catch$??$_Uninit_copy@V?$_Vector_const_iterator@V?$_Vector_val@UtagDummyCharLoadInfo@@V?$allocator@UtagDummyCharLoadInfo@@@std@@@std@@@std@@PAUtagDummyCharLoadInfo@@V?$allocator@UtagDummyCharLoadInfo@@@2@@std@@YAPAUtagDummyCharLoadInfo@@V?$_Vector_const_iterator@V?$_Vector_val@UtagDummyCharLoadInfo@@V?$allocator@UtagDummyCharLoadInfo@@@std@@@std@@@0@0PAU1@AAV?$allocator@UtagDummyCharLoadInfo@@@0@U_Nonscalar_ptr_iterator_tag@0@@Z$0:

; 377  : 	_CATCH_ALL
; 378  : 	for (; _Next != _Dest; ++_Next)

  00033	8b 75 ec	 mov	 esi, DWORD PTR __Next$[ebp]
  00036	eb 0b		 jmp	 SHORT $LN48@Uninit_cop@2
$LL3@Uninit_cop@2:

; 379  : 		_Dest_val(_Al, _Next);

  00038	8b ce		 mov	 ecx, esi
  0003a	ff 15 00 00 00
	00		 call	 DWORD PTR __imp_??1ioHashString@@QAE@XZ
  00040	83 c6 1c	 add	 esi, 28			; 0000001cH
$LN48@Uninit_cop@2:

; 377  : 	_CATCH_ALL
; 378  : 	for (; _Next != _Dest; ++_Next)

  00043	3b 75 10	 cmp	 esi, DWORD PTR __Dest$[ebp]
  00046	75 f0		 jne	 SHORT $LL3@Uninit_cop@2

; 380  : 	_RERAISE;

  00048	6a 00		 push	 0
  0004a	6a 00		 push	 0
  0004c	e8 00 00 00 00	 call	 __CxxThrowException@8
$LN49@Uninit_cop@2:
$LN4@Uninit_cop@2:

; 381  : 	_CATCH_END
; 382  : 	return (_Dest);

  00051	8b 45 10	 mov	 eax, DWORD PTR __Dest$[ebp]

; 383  : 	}

  00054	e8 00 00 00 00	 call	 __EH_epilog3
  00059	c3		 ret	 0
$LN47@Uninit_cop@2:
_TEXT	ENDS
;	COMDAT text$x
text$x	SEGMENT
__ehhandler$??$_Uninit_copy@V?$_Vector_const_iterator@V?$_Vector_val@UtagDummyCharLoadInfo@@V?$allocator@UtagDummyCharLoadInfo@@@std@@@std@@@std@@PAUtagDummyCharLoadInfo@@V?$allocator@UtagDummyCharLoadInfo@@@2@@std@@YAPAUtagDummyCharLoadInfo@@V?$_Vector_const_iterator@V?$_Vector_val@UtagDummyCharLoadInfo@@V?$allocator@UtagDummyCharLoadInfo@@@std@@@std@@@0@0PAU1@AAV?$allocator@UtagDummyCharLoadInfo@@@0@U_Nonscalar_ptr_iterator_tag@0@@Z:
  00000	8b 54 24 08	 mov	 edx, DWORD PTR [esp+8]
  00004	8d 42 0c	 lea	 eax, DWORD PTR [edx+12]
  00007	8b 4a e8	 mov	 ecx, DWORD PTR [edx-24]
  0000a	33 c8		 xor	 ecx, eax
  0000c	e8 00 00 00 00	 call	 @__security_check_cookie@4
  00011	b8 00 00 00 00	 mov	 eax, OFFSET __ehfuncinfo$??$_Uninit_copy@V?$_Vector_const_iterator@V?$_Vector_val@UtagDummyCharLoadInfo@@V?$allocator@UtagDummyCharLoadInfo@@@std@@@std@@@std@@PAUtagDummyCharLoadInfo@@V?$allocator@UtagDummyCharLoadInfo@@@2@@std@@YAPAUtagDummyCharLoadInfo@@V?$_Vector_const_iterator@V?$_Vector_val@UtagDummyCharLoadInfo@@V?$allocator@UtagDummyCharLoadInfo@@@std@@@std@@@0@0PAU1@AAV?$allocator@UtagDummyCharLoadInfo@@@0@U_Nonscalar_ptr_iterator_tag@0@@Z
  00016	e9 00 00 00 00	 jmp	 ___CxxFrameHandler3
text$x	ENDS
??$_Uninit_copy@V?$_Vector_const_iterator@V?$_Vector_val@UtagDummyCharLoadInfo@@V?$allocator@UtagDummyCharLoadInfo@@@std@@@std@@@std@@PAUtagDummyCharLoadInfo@@V?$allocator@UtagDummyCharLoadInfo@@@2@@std@@YAPAUtagDummyCharLoadInfo@@V?$_Vector_const_iterator@V?$_Vector_val@UtagDummyCharLoadInfo@@V?$allocator@UtagDummyCharLoadInfo@@@std@@@std@@@0@0PAU1@AAV?$allocator@UtagDummyCharLoadInfo@@@0@U_Nonscalar_ptr_iterator_tag@0@@Z ENDP ; std::_Uninit_copy<std::_Vector_const_iterator<std::_Vector_val<tagDummyCharLoadInfo,std::allocator<tagDummyCharLoadInfo> > >,tagDummyCharLoadInfo *,std::allocator<tagDummyCharLoadInfo> >
PUBLIC	??$_Destroy_range@V?$allocator@VioHashString@@@std@@@std@@YAXPAVioHashString@@0AAV?$allocator@VioHashString@@@0@@Z ; std::_Destroy_range<std::allocator<ioHashString> >
; Function compile flags: /Ogsp
; File c:\program files (x86)\microsoft visual studio 10.0\vc\include\xmemory
;	COMDAT ??$_Destroy_range@V?$allocator@VioHashString@@@std@@@std@@YAXPAVioHashString@@0AAV?$allocator@VioHashString@@@0@@Z
_TEXT	SEGMENT
__First$ = 8						; size = 4
__Last$ = 12						; size = 4
__Al$ = 16						; size = 4
??$_Destroy_range@V?$allocator@VioHashString@@@std@@@std@@YAXPAVioHashString@@0AAV?$allocator@VioHashString@@@0@@Z PROC ; std::_Destroy_range<std::allocator<ioHashString> >, COMDAT

; 87   : 	{	// destroy [_First, _Last)

  00000	55		 push	 ebp
  00001	8b ec		 mov	 ebp, esp
  00003	56		 push	 esi

; 88   : 	_Destroy_range(_First, _Last, _Al, _Ptr_cat(_First, _Last));

  00004	8b 75 08	 mov	 esi, DWORD PTR __First$[ebp]
  00007	eb 0b		 jmp	 SHORT $LN21@Destroy_ra@4
$LL7@Destroy_ra@4:
  00009	8b ce		 mov	 ecx, esi
  0000b	ff 15 00 00 00
	00		 call	 DWORD PTR __imp_??1ioHashString@@QAE@XZ
  00011	83 c6 10	 add	 esi, 16			; 00000010H
$LN21@Destroy_ra@4:
  00014	3b 75 0c	 cmp	 esi, DWORD PTR __Last$[ebp]
  00017	75 f0		 jne	 SHORT $LL7@Destroy_ra@4
  00019	5e		 pop	 esi

; 89   : 	}

  0001a	5d		 pop	 ebp
  0001b	c3		 ret	 0
??$_Destroy_range@V?$allocator@VioHashString@@@std@@@std@@YAXPAVioHashString@@0AAV?$allocator@VioHashString@@@0@@Z ENDP ; std::_Destroy_range<std::allocator<ioHashString> >
_TEXT	ENDS
PUBLIC	??$_Uninitialized_copy@V?$_Vector_const_iterator@V?$_Vector_val@VioHashString@@V?$allocator@VioHashString@@@std@@@std@@@std@@PAVioHashString@@V?$allocator@VioHashString@@@2@@std@@YAPAVioHashString@@V?$_Vector_const_iterator@V?$_Vector_val@VioHashString@@V?$allocator@VioHashString@@@std@@@std@@@0@0PAV1@AAV?$allocator@VioHashString@@@0@@Z ; std::_Uninitialized_copy<std::_Vector_const_iterator<std::_Vector_val<ioHashString,std::allocator<ioHashString> > >,ioHashString *,std::allocator<ioHashString> >
; Function compile flags: /Ogsp
; File c:\program files (x86)\microsoft visual studio 10.0\vc\include\memory
;	COMDAT ??$_Uninitialized_copy@V?$_Vector_const_iterator@V?$_Vector_val@VioHashString@@V?$allocator@VioHashString@@@std@@@std@@@std@@PAVioHashString@@V?$allocator@VioHashString@@@2@@std@@YAPAVioHashString@@V?$_Vector_const_iterator@V?$_Vector_val@VioHashString@@V?$allocator@VioHashString@@@std@@@std@@@0@0PAV1@AAV?$allocator@VioHashString@@@0@@Z
_TEXT	SEGMENT
__Cat$535888 = -4					; size = 1
__First$ = 8						; size = 4
__Last$ = 12						; size = 4
__Dest$ = 16						; size = 4
__Al$ = 20						; size = 4
??$_Uninitialized_copy@V?$_Vector_const_iterator@V?$_Vector_val@VioHashString@@V?$allocator@VioHashString@@@std@@@std@@@std@@PAVioHashString@@V?$allocator@VioHashString@@@2@@std@@YAPAVioHashString@@V?$_Vector_const_iterator@V?$_Vector_val@VioHashString@@V?$allocator@VioHashString@@@std@@@std@@@0@0PAV1@AAV?$allocator@VioHashString@@@0@@Z PROC ; std::_Uninitialized_copy<std::_Vector_const_iterator<std::_Vector_val<ioHashString,std::allocator<ioHashString> > >,ioHashString *,std::allocator<ioHashString> >, COMDAT

; 412  : 	{	// copy [_First, _Last) to raw _Dest, using _Al

  00000	55		 push	 ebp
  00001	8b ec		 mov	 ebp, esp
  00003	51		 push	 ecx

; 413  : 	return (_Uninit_copy(_First, _Last, _Dest, _Al,
; 414  : 		_Ptr_cat(_First, _Dest)));

  00004	ff 75 fc	 push	 DWORD PTR __Cat$535888[ebp]
  00007	ff 75 14	 push	 DWORD PTR __Al$[ebp]
  0000a	ff 75 10	 push	 DWORD PTR __Dest$[ebp]
  0000d	ff 75 0c	 push	 DWORD PTR __Last$[ebp]
  00010	ff 75 08	 push	 DWORD PTR __First$[ebp]
  00013	e8 00 00 00 00	 call	 ??$_Uninit_copy@V?$_Vector_const_iterator@V?$_Vector_val@VioHashString@@V?$allocator@VioHashString@@@std@@@std@@@std@@PAVioHashString@@V?$allocator@VioHashString@@@2@@std@@YAPAVioHashString@@V?$_Vector_const_iterator@V?$_Vector_val@VioHashString@@V?$allocator@VioHashString@@@std@@@std@@@0@0PAV1@AAV?$allocator@VioHashString@@@0@U_Nonscalar_ptr_iterator_tag@0@@Z ; std::_Uninit_copy<std::_Vector_const_iterator<std::_Vector_val<ioHashString,std::allocator<ioHashString> > >,ioHashString *,std::allocator<ioHashString> >
  00018	83 c4 14	 add	 esp, 20			; 00000014H

; 415  : 	}

  0001b	c9		 leave
  0001c	c3		 ret	 0
??$_Uninitialized_copy@V?$_Vector_const_iterator@V?$_Vector_val@VioHashString@@V?$allocator@VioHashString@@@std@@@std@@@std@@PAVioHashString@@V?$allocator@VioHashString@@@2@@std@@YAPAVioHashString@@V?$_Vector_const_iterator@V?$_Vector_val@VioHashString@@V?$allocator@VioHashString@@@std@@@std@@@0@0PAV1@AAV?$allocator@VioHashString@@@0@@Z ENDP ; std::_Uninitialized_copy<std::_Vector_const_iterator<std::_Vector_val<ioHashString,std::allocator<ioHashString> > >,ioHashString *,std::allocator<ioHashString> >
_TEXT	ENDS
PUBLIC	??$_Destroy_range@V?$allocator@UtagDummyCharLoadInfo@@@std@@@std@@YAXPAUtagDummyCharLoadInfo@@0AAV?$allocator@UtagDummyCharLoadInfo@@@0@U_Nonscalar_ptr_iterator_tag@0@@Z ; std::_Destroy_range<std::allocator<tagDummyCharLoadInfo> >
; Function compile flags: /Ogsp
; File c:\program files (x86)\microsoft visual studio 10.0\vc\include\xmemory
;	COMDAT ??$_Destroy_range@V?$allocator@UtagDummyCharLoadInfo@@@std@@@std@@YAXPAUtagDummyCharLoadInfo@@0AAV?$allocator@UtagDummyCharLoadInfo@@@0@U_Nonscalar_ptr_iterator_tag@0@@Z
_TEXT	SEGMENT
__First$ = 8						; size = 4
__Last$ = 12						; size = 4
__Al$ = 16						; size = 4
___formal$ = 20						; size = 1
??$_Destroy_range@V?$allocator@UtagDummyCharLoadInfo@@@std@@@std@@YAXPAUtagDummyCharLoadInfo@@0AAV?$allocator@UtagDummyCharLoadInfo@@@0@U_Nonscalar_ptr_iterator_tag@0@@Z PROC ; std::_Destroy_range<std::allocator<tagDummyCharLoadInfo> >, COMDAT

; 95   : 	{	// destroy [_First, _Last), arbitrary type

  00000	55		 push	 ebp
  00001	8b ec		 mov	 ebp, esp
  00003	56		 push	 esi

; 96   : 	for (; _First != _Last; ++_First)

  00004	8b 75 08	 mov	 esi, DWORD PTR __First$[ebp]
  00007	eb 0b		 jmp	 SHORT $LN20@Destroy_ra@5
$LL3@Destroy_ra@5:

; 97   : 		_Dest_val(_Al, _First);

  00009	8b ce		 mov	 ecx, esi
  0000b	ff 15 00 00 00
	00		 call	 DWORD PTR __imp_??1ioHashString@@QAE@XZ
  00011	83 c6 1c	 add	 esi, 28			; 0000001cH
$LN20@Destroy_ra@5:

; 96   : 	for (; _First != _Last; ++_First)

  00014	3b 75 0c	 cmp	 esi, DWORD PTR __Last$[ebp]
  00017	75 f0		 jne	 SHORT $LL3@Destroy_ra@5
  00019	5e		 pop	 esi

; 98   : 	}

  0001a	5d		 pop	 ebp
  0001b	c3		 ret	 0
??$_Destroy_range@V?$allocator@UtagDummyCharLoadInfo@@@std@@@std@@YAXPAUtagDummyCharLoadInfo@@0AAV?$allocator@UtagDummyCharLoadInfo@@@0@U_Nonscalar_ptr_iterator_tag@0@@Z ENDP ; std::_Destroy_range<std::allocator<tagDummyCharLoadInfo> >
_TEXT	ENDS
PUBLIC	?_Destroy@?$vector@UtagDummyCharCreateInfo@@V?$allocator@UtagDummyCharCreateInfo@@@std@@@std@@IAEXPAUtagDummyCharCreateInfo@@0@Z ; std::vector<tagDummyCharCreateInfo,std::allocator<tagDummyCharCreateInfo> >::_Destroy
; Function compile flags: /Ogsp
; File c:\program files (x86)\microsoft visual studio 10.0\vc\include\vector
;	COMDAT ?_Destroy@?$vector@UtagDummyCharCreateInfo@@V?$allocator@UtagDummyCharCreateInfo@@@std@@@std@@IAEXPAUtagDummyCharCreateInfo@@0@Z
_TEXT	SEGMENT
__First$ = 8						; size = 4
__Last$ = 12						; size = 4
?_Destroy@?$vector@UtagDummyCharCreateInfo@@V?$allocator@UtagDummyCharCreateInfo@@@std@@@std@@IAEXPAUtagDummyCharCreateInfo@@0@Z PROC ; std::vector<tagDummyCharCreateInfo,std::allocator<tagDummyCharCreateInfo> >::_Destroy, COMDAT
; _this$ = ecx

; 1269 : 		{	// destroy [_First, _Last) using allocator

  00000	55		 push	 ebp
  00001	8b ec		 mov	 ebp, esp
  00003	56		 push	 esi

; 1270 : 		_Destroy_range(_First, _Last, this->_Alval);

  00004	8b 75 08	 mov	 esi, DWORD PTR __First$[ebp]
  00007	eb 0b		 jmp	 SHORT $LN26@Destroy
$LL9@Destroy:
  00009	8b ce		 mov	 ecx, esi
  0000b	ff 15 00 00 00
	00		 call	 DWORD PTR __imp_??1ioHashString@@QAE@XZ
  00011	83 c6 24	 add	 esi, 36			; 00000024H
$LN26@Destroy:
  00014	3b 75 0c	 cmp	 esi, DWORD PTR __Last$[ebp]
  00017	75 f0		 jne	 SHORT $LL9@Destroy
  00019	5e		 pop	 esi

; 1271 : 		}

  0001a	5d		 pop	 ebp
  0001b	c2 08 00	 ret	 8
?_Destroy@?$vector@UtagDummyCharCreateInfo@@V?$allocator@UtagDummyCharCreateInfo@@@std@@@std@@IAEXPAUtagDummyCharCreateInfo@@0@Z ENDP ; std::vector<tagDummyCharCreateInfo,std::allocator<tagDummyCharCreateInfo> >::_Destroy
_TEXT	ENDS
PUBLIC	??$_Umove@PAUtagDummyCharCreateInfo@@@?$vector@UtagDummyCharCreateInfo@@V?$allocator@UtagDummyCharCreateInfo@@@std@@@std@@IAEPAUtagDummyCharCreateInfo@@PAU2@00@Z ; std::vector<tagDummyCharCreateInfo,std::allocator<tagDummyCharCreateInfo> >::_Umove<tagDummyCharCreateInfo *>
; Function compile flags: /Ogsp
;	COMDAT ??$_Umove@PAUtagDummyCharCreateInfo@@@?$vector@UtagDummyCharCreateInfo@@V?$allocator@UtagDummyCharCreateInfo@@@std@@@std@@IAEPAUtagDummyCharCreateInfo@@PAU2@00@Z
_TEXT	SEGMENT
__First$ = 8						; size = 4
__Last$ = 12						; size = 4
__Ptr$ = 16						; size = 4
??$_Umove@PAUtagDummyCharCreateInfo@@@?$vector@UtagDummyCharCreateInfo@@V?$allocator@UtagDummyCharCreateInfo@@@std@@@std@@IAEPAUtagDummyCharCreateInfo@@PAU2@00@Z PROC ; std::vector<tagDummyCharCreateInfo,std::allocator<tagDummyCharCreateInfo> >::_Umove<tagDummyCharCreateInfo *>, COMDAT
; _this$ = ecx

; 1322 : 		pointer _Umove(_Iter _First, _Iter _Last, pointer _Ptr)

  00000	55		 push	 ebp
  00001	8b ec		 mov	 ebp, esp

; 1323 : 		{	// move initializing [_First, _Last), using allocator
; 1324 : 		return (_Uninitialized_move(_First, _Last,
; 1325 : 			_Ptr, this->_Alval));

  00003	83 c1 0c	 add	 ecx, 12			; 0000000cH
  00006	51		 push	 ecx
  00007	ff 75 10	 push	 DWORD PTR __Ptr$[ebp]
  0000a	ff 75 0c	 push	 DWORD PTR __Last$[ebp]
  0000d	ff 75 08	 push	 DWORD PTR __First$[ebp]
  00010	e8 00 00 00 00	 call	 ??$_Uninitialized_move@PAUtagDummyCharCreateInfo@@PAU1@V?$allocator@UtagDummyCharCreateInfo@@@std@@@std@@YAPAUtagDummyCharCreateInfo@@PAU1@00AAV?$allocator@UtagDummyCharCreateInfo@@@0@@Z ; std::_Uninitialized_move<tagDummyCharCreateInfo *,tagDummyCharCreateInfo *,std::allocator<tagDummyCharCreateInfo> >
  00015	83 c4 10	 add	 esp, 16			; 00000010H

; 1326 : 		}

  00018	5d		 pop	 ebp
  00019	c2 0c 00	 ret	 12			; 0000000cH
??$_Umove@PAUtagDummyCharCreateInfo@@@?$vector@UtagDummyCharCreateInfo@@V?$allocator@UtagDummyCharCreateInfo@@@std@@@std@@IAEPAUtagDummyCharCreateInfo@@PAU2@00@Z ENDP ; std::vector<tagDummyCharCreateInfo,std::allocator<tagDummyCharCreateInfo> >::_Umove<tagDummyCharCreateInfo *>
_TEXT	ENDS
PUBLIC	??$_Uninitialized_copy@V?$_Vector_const_iterator@V?$_Vector_val@UtagDummyCharLoadInfo@@V?$allocator@UtagDummyCharLoadInfo@@@std@@@std@@@std@@PAUtagDummyCharLoadInfo@@V?$allocator@UtagDummyCharLoadInfo@@@2@@std@@YAPAUtagDummyCharLoadInfo@@V?$_Vector_const_iterator@V?$_Vector_val@UtagDummyCharLoadInfo@@V?$allocator@UtagDummyCharLoadInfo@@@std@@@std@@@0@0PAU1@AAV?$allocator@UtagDummyCharLoadInfo@@@0@@Z ; std::_Uninitialized_copy<std::_Vector_const_iterator<std::_Vector_val<tagDummyCharLoadInfo,std::allocator<tagDummyCharLoadInfo> > >,tagDummyCharLoadInfo *,std::allocator<tagDummyCharLoadInfo> >
; Function compile flags: /Ogsp
; File c:\program files (x86)\microsoft visual studio 10.0\vc\include\memory
;	COMDAT ??$_Uninitialized_copy@V?$_Vector_const_iterator@V?$_Vector_val@UtagDummyCharLoadInfo@@V?$allocator@UtagDummyCharLoadInfo@@@std@@@std@@@std@@PAUtagDummyCharLoadInfo@@V?$allocator@UtagDummyCharLoadInfo@@@2@@std@@YAPAUtagDummyCharLoadInfo@@V?$_Vector_const_iterator@V?$_Vector_val@UtagDummyCharLoadInfo@@V?$allocator@UtagDummyCharLoadInfo@@@std@@@std@@@0@0PAU1@AAV?$allocator@UtagDummyCharLoadInfo@@@0@@Z
_TEXT	SEGMENT
__Cat$536033 = -4					; size = 1
__First$ = 8						; size = 4
__Last$ = 12						; size = 4
__Dest$ = 16						; size = 4
__Al$ = 20						; size = 4
??$_Uninitialized_copy@V?$_Vector_const_iterator@V?$_Vector_val@UtagDummyCharLoadInfo@@V?$allocator@UtagDummyCharLoadInfo@@@std@@@std@@@std@@PAUtagDummyCharLoadInfo@@V?$allocator@UtagDummyCharLoadInfo@@@2@@std@@YAPAUtagDummyCharLoadInfo@@V?$_Vector_const_iterator@V?$_Vector_val@UtagDummyCharLoadInfo@@V?$allocator@UtagDummyCharLoadInfo@@@std@@@std@@@0@0PAU1@AAV?$allocator@UtagDummyCharLoadInfo@@@0@@Z PROC ; std::_Uninitialized_copy<std::_Vector_const_iterator<std::_Vector_val<tagDummyCharLoadInfo,std::allocator<tagDummyCharLoadInfo> > >,tagDummyCharLoadInfo *,std::allocator<tagDummyCharLoadInfo> >, COMDAT

; 412  : 	{	// copy [_First, _Last) to raw _Dest, using _Al

  00000	55		 push	 ebp
  00001	8b ec		 mov	 ebp, esp
  00003	51		 push	 ecx

; 413  : 	return (_Uninit_copy(_First, _Last, _Dest, _Al,
; 414  : 		_Ptr_cat(_First, _Dest)));

  00004	ff 75 fc	 push	 DWORD PTR __Cat$536033[ebp]
  00007	ff 75 14	 push	 DWORD PTR __Al$[ebp]
  0000a	ff 75 10	 push	 DWORD PTR __Dest$[ebp]
  0000d	ff 75 0c	 push	 DWORD PTR __Last$[ebp]
  00010	ff 75 08	 push	 DWORD PTR __First$[ebp]
  00013	e8 00 00 00 00	 call	 ??$_Uninit_copy@V?$_Vector_const_iterator@V?$_Vector_val@UtagDummyCharLoadInfo@@V?$allocator@UtagDummyCharLoadInfo@@@std@@@std@@@std@@PAUtagDummyCharLoadInfo@@V?$allocator@UtagDummyCharLoadInfo@@@2@@std@@YAPAUtagDummyCharLoadInfo@@V?$_Vector_const_iterator@V?$_Vector_val@UtagDummyCharLoadInfo@@V?$allocator@UtagDummyCharLoadInfo@@@std@@@std@@@0@0PAU1@AAV?$allocator@UtagDummyCharLoadInfo@@@0@U_Nonscalar_ptr_iterator_tag@0@@Z ; std::_Uninit_copy<std::_Vector_const_iterator<std::_Vector_val<tagDummyCharLoadInfo,std::allocator<tagDummyCharLoadInfo> > >,tagDummyCharLoadInfo *,std::allocator<tagDummyCharLoadInfo> >
  00018	83 c4 14	 add	 esp, 20			; 00000014H

; 415  : 	}

  0001b	c9		 leave
  0001c	c3		 ret	 0
??$_Uninitialized_copy@V?$_Vector_const_iterator@V?$_Vector_val@UtagDummyCharLoadInfo@@V?$allocator@UtagDummyCharLoadInfo@@@std@@@std@@@std@@PAUtagDummyCharLoadInfo@@V?$allocator@UtagDummyCharLoadInfo@@@2@@std@@YAPAUtagDummyCharLoadInfo@@V?$_Vector_const_iterator@V?$_Vector_val@UtagDummyCharLoadInfo@@V?$allocator@UtagDummyCharLoadInfo@@@std@@@std@@@0@0PAU1@AAV?$allocator@UtagDummyCharLoadInfo@@@0@@Z ENDP ; std::_Uninitialized_copy<std::_Vector_const_iterator<std::_Vector_val<tagDummyCharLoadInfo,std::allocator<tagDummyCharLoadInfo> > >,tagDummyCharLoadInfo *,std::allocator<tagDummyCharLoadInfo> >
_TEXT	ENDS
PUBLIC	?_Destroy@?$vector@VioHashString@@V?$allocator@VioHashString@@@std@@@std@@IAEXPAVioHashString@@0@Z ; std::vector<ioHashString,std::allocator<ioHashString> >::_Destroy
; Function compile flags: /Ogsp
; File c:\program files (x86)\microsoft visual studio 10.0\vc\include\vector
;	COMDAT ?_Destroy@?$vector@VioHashString@@V?$allocator@VioHashString@@@std@@@std@@IAEXPAVioHashString@@0@Z
_TEXT	SEGMENT
__First$ = 8						; size = 4
__Last$ = 12						; size = 4
?_Destroy@?$vector@VioHashString@@V?$allocator@VioHashString@@@std@@@std@@IAEXPAVioHashString@@0@Z PROC ; std::vector<ioHashString,std::allocator<ioHashString> >::_Destroy, COMDAT
; _this$ = ecx

; 1269 : 		{	// destroy [_First, _Last) using allocator

  00000	55		 push	 ebp
  00001	8b ec		 mov	 ebp, esp
  00003	56		 push	 esi

; 1270 : 		_Destroy_range(_First, _Last, this->_Alval);

  00004	8b 75 08	 mov	 esi, DWORD PTR __First$[ebp]
  00007	eb 0b		 jmp	 SHORT $LN23@Destroy@2
$LL9@Destroy@2:
  00009	8b ce		 mov	 ecx, esi
  0000b	ff 15 00 00 00
	00		 call	 DWORD PTR __imp_??1ioHashString@@QAE@XZ
  00011	83 c6 10	 add	 esi, 16			; 00000010H
$LN23@Destroy@2:
  00014	3b 75 0c	 cmp	 esi, DWORD PTR __Last$[ebp]
  00017	75 f0		 jne	 SHORT $LL9@Destroy@2
  00019	5e		 pop	 esi

; 1271 : 		}

  0001a	5d		 pop	 ebp
  0001b	c2 08 00	 ret	 8
?_Destroy@?$vector@VioHashString@@V?$allocator@VioHashString@@@std@@@std@@IAEXPAVioHashString@@0@Z ENDP ; std::vector<ioHashString,std::allocator<ioHashString> >::_Destroy
_TEXT	ENDS
PUBLIC	??$_Ucopy@V?$_Vector_const_iterator@V?$_Vector_val@VioHashString@@V?$allocator@VioHashString@@@std@@@std@@@std@@@?$vector@VioHashString@@V?$allocator@VioHashString@@@std@@@std@@IAEPAVioHashString@@V?$_Vector_const_iterator@V?$_Vector_val@VioHashString@@V?$allocator@VioHashString@@@std@@@std@@@1@0PAV2@@Z ; std::vector<ioHashString,std::allocator<ioHashString> >::_Ucopy<std::_Vector_const_iterator<std::_Vector_val<ioHashString,std::allocator<ioHashString> > > >
; Function compile flags: /Ogsp
;	COMDAT ??$_Ucopy@V?$_Vector_const_iterator@V?$_Vector_val@VioHashString@@V?$allocator@VioHashString@@@std@@@std@@@std@@@?$vector@VioHashString@@V?$allocator@VioHashString@@@std@@@std@@IAEPAVioHashString@@V?$_Vector_const_iterator@V?$_Vector_val@VioHashString@@V?$allocator@VioHashString@@@std@@@std@@@1@0PAV2@@Z
_TEXT	SEGMENT
__First$ = 8						; size = 4
__Last$ = 12						; size = 4
__Cat$536122 = 16					; size = 1
__Ptr$ = 16						; size = 4
??$_Ucopy@V?$_Vector_const_iterator@V?$_Vector_val@VioHashString@@V?$allocator@VioHashString@@@std@@@std@@@std@@@?$vector@VioHashString@@V?$allocator@VioHashString@@@std@@@std@@IAEPAVioHashString@@V?$_Vector_const_iterator@V?$_Vector_val@VioHashString@@V?$allocator@VioHashString@@@std@@@std@@@1@0PAV2@@Z PROC ; std::vector<ioHashString,std::allocator<ioHashString> >::_Ucopy<std::_Vector_const_iterator<std::_Vector_val<ioHashString,std::allocator<ioHashString> > > >, COMDAT
; _this$ = ecx

; 1315 : 		pointer _Ucopy(_Iter _First, _Iter _Last, pointer _Ptr)

  00000	55		 push	 ebp
  00001	8b ec		 mov	 ebp, esp

; 1316 : 		{	// copy initializing [_First, _Last), using allocator
; 1317 : 		return (_Uninitialized_copy(_First, _Last,
; 1318 : 			_Ptr, this->_Alval));

  00003	ff 75 10	 push	 DWORD PTR __Cat$536122[ebp]
  00006	83 c1 0c	 add	 ecx, 12			; 0000000cH
  00009	51		 push	 ecx
  0000a	ff 75 10	 push	 DWORD PTR __Ptr$[ebp]
  0000d	ff 75 0c	 push	 DWORD PTR __Last$[ebp]
  00010	ff 75 08	 push	 DWORD PTR __First$[ebp]
  00013	e8 00 00 00 00	 call	 ??$_Uninit_copy@V?$_Vector_const_iterator@V?$_Vector_val@VioHashString@@V?$allocator@VioHashString@@@std@@@std@@@std@@PAVioHashString@@V?$allocator@VioHashString@@@2@@std@@YAPAVioHashString@@V?$_Vector_const_iterator@V?$_Vector_val@VioHashString@@V?$allocator@VioHashString@@@std@@@std@@@0@0PAV1@AAV?$allocator@VioHashString@@@0@U_Nonscalar_ptr_iterator_tag@0@@Z ; std::_Uninit_copy<std::_Vector_const_iterator<std::_Vector_val<ioHashString,std::allocator<ioHashString> > >,ioHashString *,std::allocator<ioHashString> >
  00018	83 c4 14	 add	 esp, 20			; 00000014H

; 1319 : 		}

  0001b	5d		 pop	 ebp
  0001c	c2 0c 00	 ret	 12			; 0000000cH
??$_Ucopy@V?$_Vector_const_iterator@V?$_Vector_val@VioHashString@@V?$allocator@VioHashString@@@std@@@std@@@std@@@?$vector@VioHashString@@V?$allocator@VioHashString@@@std@@@std@@IAEPAVioHashString@@V?$_Vector_const_iterator@V?$_Vector_val@VioHashString@@V?$allocator@VioHashString@@@std@@@std@@@1@0PAV2@@Z ENDP ; std::vector<ioHashString,std::allocator<ioHashString> >::_Ucopy<std::_Vector_const_iterator<std::_Vector_val<ioHashString,std::allocator<ioHashString> > > >
_TEXT	ENDS
PUBLIC	??$_Destroy_range@V?$allocator@UtagDummyCharLoadInfo@@@std@@@std@@YAXPAUtagDummyCharLoadInfo@@0AAV?$allocator@UtagDummyCharLoadInfo@@@0@@Z ; std::_Destroy_range<std::allocator<tagDummyCharLoadInfo> >
; Function compile flags: /Ogsp
; File c:\program files (x86)\microsoft visual studio 10.0\vc\include\xmemory
;	COMDAT ??$_Destroy_range@V?$allocator@UtagDummyCharLoadInfo@@@std@@@std@@YAXPAUtagDummyCharLoadInfo@@0AAV?$allocator@UtagDummyCharLoadInfo@@@0@@Z
_TEXT	SEGMENT
__First$ = 8						; size = 4
__Last$ = 12						; size = 4
__Al$ = 16						; size = 4
??$_Destroy_range@V?$allocator@UtagDummyCharLoadInfo@@@std@@@std@@YAXPAUtagDummyCharLoadInfo@@0AAV?$allocator@UtagDummyCharLoadInfo@@@0@@Z PROC ; std::_Destroy_range<std::allocator<tagDummyCharLoadInfo> >, COMDAT

; 87   : 	{	// destroy [_First, _Last)

  00000	55		 push	 ebp
  00001	8b ec		 mov	 ebp, esp
  00003	56		 push	 esi

; 88   : 	_Destroy_range(_First, _Last, _Al, _Ptr_cat(_First, _Last));

  00004	8b 75 08	 mov	 esi, DWORD PTR __First$[ebp]
  00007	eb 0b		 jmp	 SHORT $LN24@Destroy_ra@6
$LL7@Destroy_ra@6:
  00009	8b ce		 mov	 ecx, esi
  0000b	ff 15 00 00 00
	00		 call	 DWORD PTR __imp_??1ioHashString@@QAE@XZ
  00011	83 c6 1c	 add	 esi, 28			; 0000001cH
$LN24@Destroy_ra@6:
  00014	3b 75 0c	 cmp	 esi, DWORD PTR __Last$[ebp]
  00017	75 f0		 jne	 SHORT $LL7@Destroy_ra@6
  00019	5e		 pop	 esi

; 89   : 	}

  0001a	5d		 pop	 ebp
  0001b	c3		 ret	 0
??$_Destroy_range@V?$allocator@UtagDummyCharLoadInfo@@@std@@@std@@YAXPAUtagDummyCharLoadInfo@@0AAV?$allocator@UtagDummyCharLoadInfo@@@0@@Z ENDP ; std::_Destroy_range<std::allocator<tagDummyCharLoadInfo> >
_TEXT	ENDS
PUBLIC	?erase@?$vector@UtagDummyCharCreateInfo@@V?$allocator@UtagDummyCharCreateInfo@@@std@@@std@@QAE?AV?$_Vector_iterator@V?$_Vector_val@UtagDummyCharCreateInfo@@V?$allocator@UtagDummyCharCreateInfo@@@std@@@std@@@2@V?$_Vector_const_iterator@V?$_Vector_val@UtagDummyCharCreateInfo@@V?$allocator@UtagDummyCharCreateInfo@@@std@@@std@@@2@0@Z ; std::vector<tagDummyCharCreateInfo,std::allocator<tagDummyCharCreateInfo> >::erase
; Function compile flags: /Ogsp
; File c:\program files (x86)\microsoft visual studio 10.0\vc\include\vector
;	COMDAT ?erase@?$vector@UtagDummyCharCreateInfo@@V?$allocator@UtagDummyCharCreateInfo@@@std@@@std@@QAE?AV?$_Vector_iterator@V?$_Vector_val@UtagDummyCharCreateInfo@@V?$allocator@UtagDummyCharCreateInfo@@@std@@@std@@@2@V?$_Vector_const_iterator@V?$_Vector_val@UtagDummyCharCreateInfo@@V?$allocator@UtagDummyCharCreateInfo@@@std@@@std@@@2@0@Z
_TEXT	SEGMENT
$T536338 = -4						; size = 4
___$ReturnUdt$ = 8					; size = 4
__First_arg$ = 12					; size = 4
__Cat$536269 = 16					; size = 1
__Last_arg$ = 16					; size = 4
?erase@?$vector@UtagDummyCharCreateInfo@@V?$allocator@UtagDummyCharCreateInfo@@@std@@@std@@QAE?AV?$_Vector_iterator@V?$_Vector_val@UtagDummyCharCreateInfo@@V?$allocator@UtagDummyCharCreateInfo@@@std@@@std@@@2@V?$_Vector_const_iterator@V?$_Vector_val@UtagDummyCharCreateInfo@@V?$allocator@UtagDummyCharCreateInfo@@@std@@@std@@@2@0@Z PROC ; std::vector<tagDummyCharCreateInfo,std::allocator<tagDummyCharCreateInfo> >::erase, COMDAT
; _this$ = ecx

; 1190 : 		{	// erase [_First, _Last)

  00000	55		 push	 ebp
  00001	8b ec		 mov	 ebp, esp
  00003	51		 push	 ecx

; 1191 : 		iterator _First = _Make_iter(_First_arg);

  00004	8b 45 08	 mov	 eax, DWORD PTR ___$ReturnUdt$[ebp]
  00007	56		 push	 esi
  00008	8b f1		 mov	 esi, ecx
  0000a	8b 4d 0c	 mov	 ecx, DWORD PTR __First_arg$[ebp]
  0000d	89 08		 mov	 DWORD PTR [eax], ecx

; 1192 : 		iterator _Last = _Make_iter(_Last_arg);
; 1193 : 
; 1194 : 		if (_First != _Last)

  0000f	3b 4d 10	 cmp	 ecx, DWORD PTR __Last_arg$[ebp]
  00012	74 38		 je	 SHORT $LN1@erase

; 1195 : 			{	// worth doing, copy down over hole
; 1196 :  #if _ITERATOR_DEBUG_LEVEL == 2
; 1197 : 			if (_Last < _First || _VICONT(_First) != this
; 1198 : 				|| _VIPTR(_First) < this->_Myfirst
; 1199 : 				|| this->_Mylast < _VIPTR(_Last))
; 1200 : 				_DEBUG_ERROR("vector erase iterator outside range");
; 1201 : 			pointer _Ptr = _Move(_VIPTR(_Last), this->_Mylast,
; 1202 : 				_VIPTR(_First));
; 1203 : 			_Orphan_range(_VIPTR(_First), this->_Mylast);
; 1204 : 
; 1205 :  #else /* _ITERATOR_DEBUG_LEVEL == 2 */
; 1206 : 			pointer _Ptr = _Move(_VIPTR(_Last), this->_Mylast,
; 1207 : 				_VIPTR(_First));

  00014	8b 46 04	 mov	 eax, DWORD PTR [esi+4]
  00017	53		 push	 ebx
  00018	57		 push	 edi
  00019	ff 75 10	 push	 DWORD PTR __Cat$536269[ebp]
  0001c	51		 push	 ecx
  0001d	50		 push	 eax
  0001e	ff 75 10	 push	 DWORD PTR __Last_arg$[ebp]
  00021	e8 00 00 00 00	 call	 ??$_Move@PAUtagDummyCharCreateInfo@@PAU1@@std@@YAPAUtagDummyCharCreateInfo@@PAU1@00U_Nonscalar_ptr_iterator_tag@0@@Z ; std::_Move<tagDummyCharCreateInfo *,tagDummyCharCreateInfo *>

; 1208 :  #endif /* _ITERATOR_DEBUG_LEVEL == 2 */
; 1209 : 
; 1210 : 			_Destroy(_Ptr, this->_Mylast);

  00026	8b 7e 04	 mov	 edi, DWORD PTR [esi+4]
  00029	8b d8		 mov	 ebx, eax
  0002b	83 c4 10	 add	 esp, 16			; 00000010H
  0002e	89 5d fc	 mov	 DWORD PTR $T536338[ebp], ebx
  00031	3b df		 cmp	 ebx, edi
  00033	74 12		 je	 SHORT $LN36@erase
$LL55@erase:
  00035	8b 4d fc	 mov	 ecx, DWORD PTR $T536338[ebp]
  00038	ff 15 00 00 00
	00		 call	 DWORD PTR __imp_??1ioHashString@@QAE@XZ
  0003e	83 45 fc 24	 add	 DWORD PTR $T536338[ebp], 36 ; 00000024H
  00042	39 7d fc	 cmp	 DWORD PTR $T536338[ebp], edi
  00045	75 ee		 jne	 SHORT $LL55@erase
$LN36@erase:

; 1211 : 			this->_Mylast = _Ptr;

  00047	5f		 pop	 edi
  00048	89 5e 04	 mov	 DWORD PTR [esi+4], ebx
  0004b	5b		 pop	 ebx
$LN1@erase:

; 1212 : 			}
; 1213 : 		return (_First);

  0004c	8b 45 08	 mov	 eax, DWORD PTR ___$ReturnUdt$[ebp]
  0004f	5e		 pop	 esi

; 1214 : 		}

  00050	c9		 leave
  00051	c2 0c 00	 ret	 12			; 0000000cH
?erase@?$vector@UtagDummyCharCreateInfo@@V?$allocator@UtagDummyCharCreateInfo@@@std@@@std@@QAE?AV?$_Vector_iterator@V?$_Vector_val@UtagDummyCharCreateInfo@@V?$allocator@UtagDummyCharCreateInfo@@@std@@@std@@@2@V?$_Vector_const_iterator@V?$_Vector_val@UtagDummyCharCreateInfo@@V?$allocator@UtagDummyCharCreateInfo@@@std@@@std@@@2@0@Z ENDP ; std::vector<tagDummyCharCreateInfo,std::allocator<tagDummyCharCreateInfo> >::erase
_TEXT	ENDS
PUBLIC	?_Tidy@?$vector@UtagDummyCharCreateInfo@@V?$allocator@UtagDummyCharCreateInfo@@@std@@@std@@IAEXXZ ; std::vector<tagDummyCharCreateInfo,std::allocator<tagDummyCharCreateInfo> >::_Tidy
EXTRN	__imp_?_Orphan_all@_Container_base0@std@@QAEXXZ:PROC
; Function compile flags: /Ogsp
;	COMDAT ?_Tidy@?$vector@UtagDummyCharCreateInfo@@V?$allocator@UtagDummyCharCreateInfo@@@std@@@std@@IAEXXZ
_TEXT	SEGMENT
?_Tidy@?$vector@UtagDummyCharCreateInfo@@V?$allocator@UtagDummyCharCreateInfo@@@std@@@std@@IAEXXZ PROC ; std::vector<tagDummyCharCreateInfo,std::allocator<tagDummyCharCreateInfo> >::_Tidy, COMDAT
; _this$ = ecx

; 1301 : 		{	// free all storage

  00000	56		 push	 esi
  00001	8b f1		 mov	 esi, ecx

; 1302 : 		if (this->_Myfirst != 0)

  00003	83 3e 00	 cmp	 DWORD PTR [esi], 0
  00006	74 28		 je	 SHORT $LN27@Tidy

; 1303 : 			{	// something to free, destroy and deallocate it
; 1304 : 			this->_Orphan_all();

  00008	53		 push	 ebx
  00009	57		 push	 edi
  0000a	ff 15 00 00 00
	00		 call	 DWORD PTR __imp_?_Orphan_all@_Container_base0@std@@QAEXXZ

; 1305 : 			_Destroy(this->_Myfirst, this->_Mylast);

  00010	8b 5e 04	 mov	 ebx, DWORD PTR [esi+4]
  00013	8b 3e		 mov	 edi, DWORD PTR [esi]
  00015	eb 0b		 jmp	 SHORT $LN31@Tidy
$LL12@Tidy:
  00017	8b cf		 mov	 ecx, edi
  00019	ff 15 00 00 00
	00		 call	 DWORD PTR __imp_??1ioHashString@@QAE@XZ
  0001f	83 c7 24	 add	 edi, 36			; 00000024H
$LN31@Tidy:
  00022	3b fb		 cmp	 edi, ebx
  00024	75 f1		 jne	 SHORT $LL12@Tidy

; 1306 : 			this->_Alval.deallocate(this->_Myfirst,
; 1307 : 				this->_Myend - this->_Myfirst);

  00026	ff 36		 push	 DWORD PTR [esi]
  00028	e8 00 00 00 00	 call	 ??3@YAXPAX@Z		; operator delete
  0002d	59		 pop	 ecx
  0002e	5f		 pop	 edi
  0002f	5b		 pop	 ebx
$LN27@Tidy:

; 1308 : 			}
; 1309 : 		this->_Myfirst = 0;

  00030	33 c0		 xor	 eax, eax
  00032	89 06		 mov	 DWORD PTR [esi], eax

; 1310 : 		this->_Mylast = 0;

  00034	89 46 04	 mov	 DWORD PTR [esi+4], eax

; 1311 : 		this->_Myend = 0;

  00037	89 46 08	 mov	 DWORD PTR [esi+8], eax
  0003a	5e		 pop	 esi

; 1312 : 		}

  0003b	c3		 ret	 0
?_Tidy@?$vector@UtagDummyCharCreateInfo@@V?$allocator@UtagDummyCharCreateInfo@@@std@@@std@@IAEXXZ ENDP ; std::vector<tagDummyCharCreateInfo,std::allocator<tagDummyCharCreateInfo> >::_Tidy
_TEXT	ENDS
PUBLIC	?reserve@?$vector@UtagDummyCharCreateInfo@@V?$allocator@UtagDummyCharCreateInfo@@@std@@@std@@QAEXI@Z ; std::vector<tagDummyCharCreateInfo,std::allocator<tagDummyCharCreateInfo> >::reserve
;	COMDAT xdata$x
; File c:\program files (x86)\microsoft visual studio 10.0\vc\include\xmemory
xdata$x	SEGMENT
__catchsym$?reserve@?$vector@UtagDummyCharCreateInfo@@V?$allocator@UtagDummyCharCreateInfo@@@std@@@std@@QAEXI@Z$3 DD 040H
	DD	00H
	DD	00H
	DD	FLAT:__catch$?reserve@?$vector@UtagDummyCharCreateInfo@@V?$allocator@UtagDummyCharCreateInfo@@@std@@@std@@QAEXI@Z$0
__unwindtable$?reserve@?$vector@UtagDummyCharCreateInfo@@V?$allocator@UtagDummyCharCreateInfo@@@std@@@std@@QAEXI@Z DD 0ffffffffH
	DD	00H
	DD	0ffffffffH
	DD	00H
__tryblocktable$?reserve@?$vector@UtagDummyCharCreateInfo@@V?$allocator@UtagDummyCharCreateInfo@@@std@@@std@@QAEXI@Z DD 00H
	DD	00H
	DD	01H
	DD	01H
	DD	FLAT:__catchsym$?reserve@?$vector@UtagDummyCharCreateInfo@@V?$allocator@UtagDummyCharCreateInfo@@@std@@@std@@QAEXI@Z$3
__ehfuncinfo$?reserve@?$vector@UtagDummyCharCreateInfo@@V?$allocator@UtagDummyCharCreateInfo@@@std@@@std@@QAEXI@Z DD 019930522H
	DD	02H
	DD	FLAT:__unwindtable$?reserve@?$vector@UtagDummyCharCreateInfo@@V?$allocator@UtagDummyCharCreateInfo@@@std@@@std@@QAEXI@Z
	DD	01H
	DD	FLAT:__tryblocktable$?reserve@?$vector@UtagDummyCharCreateInfo@@V?$allocator@UtagDummyCharCreateInfo@@@std@@@std@@QAEXI@Z
	DD	2 DUP(00H)
	DD	00H
	DD	01H
; Function compile flags: /Ogsp
; File c:\program files (x86)\microsoft visual studio 10.0\vc\include\vector
xdata$x	ENDS
;	COMDAT ?reserve@?$vector@UtagDummyCharCreateInfo@@V?$allocator@UtagDummyCharCreateInfo@@@std@@@std@@QAEXI@Z
_TEXT	SEGMENT
__Ptr$531501 = -24					; size = 4
$T536620 = -20						; size = 4
__$EHRec$ = -16						; size = 16
__Count$ = 8						; size = 4
?reserve@?$vector@UtagDummyCharCreateInfo@@V?$allocator@UtagDummyCharCreateInfo@@@std@@@std@@QAEXI@Z PROC ; std::vector<tagDummyCharCreateInfo,std::allocator<tagDummyCharCreateInfo> >::reserve, COMDAT
; _this$ = ecx

; 746  : 		{	// determine new minimum length of allocated storage

  00000	6a 0c		 push	 12			; 0000000cH
  00002	b8 00 00 00 00	 mov	 eax, __ehhandler$?reserve@?$vector@UtagDummyCharCreateInfo@@V?$allocator@UtagDummyCharCreateInfo@@@std@@@std@@QAEXI@Z
  00007	e8 00 00 00 00	 call	 __EH_prolog3_catch
  0000c	8b f1		 mov	 esi, ecx

; 747  : 		if (max_size() < _Count)

  0000e	81 7d 08 c7 71
	1c 07		 cmp	 DWORD PTR __Count$[ebp], 119304647 ; 071c71c7H
  00015	76 0b		 jbe	 SHORT $LN5@reserve

; 748  : 			_Xlen();	// result too long

  00017	68 00 00 00 00	 push	 OFFSET ??_C@_0BD@OLBABOEK@vector?$DMT?$DO?5too?5long?$AA@
  0001c	ff 15 00 00 00
	00		 call	 DWORD PTR __imp_?_Xlength_error@std@@YAXPBD@Z
$LN62@reserve:
$LN5@reserve:

; 749  : 		else if (capacity() < _Count)

  00022	8b 46 08	 mov	 eax, DWORD PTR [esi+8]
  00025	2b 06		 sub	 eax, DWORD PTR [esi]
  00027	6a 24		 push	 36			; 00000024H
  00029	99		 cdq
  0002a	59		 pop	 ecx
  0002b	f7 f9		 idiv	 ecx
  0002d	3b 45 08	 cmp	 eax, DWORD PTR __Count$[ebp]
  00030	0f 83 81 00 00
	00		 jae	 $LN3@reserve

; 750  : 			{	// not enough room, reallocate
; 751  : 			pointer _Ptr = this->_Alval.allocate(_Count);

  00036	6a 00		 push	 0
  00038	ff 75 08	 push	 DWORD PTR __Count$[ebp]
  0003b	e8 00 00 00 00	 call	 ??$_Allocate@UtagDummyCharCreateInfo@@@std@@YAPAUtagDummyCharCreateInfo@@IPAU1@@Z ; std::_Allocate<tagDummyCharCreateInfo>

; 752  : 
; 753  : 			_TRY_BEGIN
; 754  : 			_Umove(this->_Myfirst, this->_Mylast, _Ptr);

  00040	8b 0e		 mov	 ecx, DWORD PTR [esi]
  00042	83 65 fc 00	 and	 DWORD PTR __$EHRec$[ebp+12], 0
  00046	8d 56 0c	 lea	 edx, DWORD PTR [esi+12]
  00049	52		 push	 edx
  0004a	89 45 e8	 mov	 DWORD PTR __Ptr$531501[ebp], eax
  0004d	ff 75 e8	 push	 DWORD PTR __Ptr$531501[ebp]
  00050	8b 46 04	 mov	 eax, DWORD PTR [esi+4]
  00053	50		 push	 eax
  00054	51		 push	 ecx
  00055	e8 00 00 00 00	 call	 ??$_Uninitialized_move@PAUtagDummyCharCreateInfo@@PAU1@V?$allocator@UtagDummyCharCreateInfo@@@std@@@std@@YAPAUtagDummyCharCreateInfo@@PAU1@00AAV?$allocator@UtagDummyCharCreateInfo@@@0@@Z ; std::_Uninitialized_move<tagDummyCharCreateInfo *,tagDummyCharCreateInfo *,std::allocator<tagDummyCharCreateInfo> >

; 758  : 			_CATCH_END
; 759  : 
; 760  : 			size_type _Size = size();

  0005a	8b 5e 04	 mov	 ebx, DWORD PTR [esi+4]
  0005d	8b 0e		 mov	 ecx, DWORD PTR [esi]
  0005f	83 c4 18	 add	 esp, 24			; 00000018H
  00062	8b c3		 mov	 eax, ebx
  00064	2b c1		 sub	 eax, ecx
  00066	6a 24		 push	 36			; 00000024H
  00068	99		 cdq
  00069	5f		 pop	 edi
  0006a	f7 ff		 idiv	 edi
  0006c	83 4d fc ff	 or	 DWORD PTR __$EHRec$[ebp+12], -1
  00070	8b f8		 mov	 edi, eax
  00072	85 c9		 test	 ecx, ecx
  00074	74 21		 je	 SHORT $LN54@reserve

; 761  : 			if (this->_Myfirst != 0)
; 762  : 				{	// destroy and deallocate old array
; 763  : 				_Destroy(this->_Myfirst, this->_Mylast);

  00076	89 4d ec	 mov	 DWORD PTR $T536620[ebp], ecx
  00079	3b cb		 cmp	 ecx, ebx
  0007b	74 12		 je	 SHORT $LN37@reserve
$LN39@reserve:
  0007d	8b 4d ec	 mov	 ecx, DWORD PTR $T536620[ebp]
  00080	ff 15 00 00 00
	00		 call	 DWORD PTR __imp_??1ioHashString@@QAE@XZ
  00086	83 45 ec 24	 add	 DWORD PTR $T536620[ebp], 36 ; 00000024H
  0008a	39 5d ec	 cmp	 DWORD PTR $T536620[ebp], ebx
  0008d	75 ee		 jne	 SHORT $LN39@reserve
$LN37@reserve:

; 764  : 				this->_Alval.deallocate(this->_Myfirst,
; 765  : 					this->_Myend - this->_Myfirst);

  0008f	ff 36		 push	 DWORD PTR [esi]
  00091	e8 00 00 00 00	 call	 ??3@YAXPAX@Z		; operator delete
  00096	59		 pop	 ecx
$LN54@reserve:

; 766  : 				}
; 767  : 
; 768  : 			this->_Orphan_all();

  00097	8b ce		 mov	 ecx, esi
  00099	ff 15 00 00 00
	00		 call	 DWORD PTR __imp_?_Orphan_all@_Container_base0@std@@QAEXXZ

; 769  : 			this->_Myend = _Ptr + _Count;
; 770  : 			this->_Mylast = _Ptr + _Size;

  0009f	6b ff 24	 imul	 edi, 36			; 00000024H
  000a2	8b 45 08	 mov	 eax, DWORD PTR __Count$[ebp]
  000a5	8b 4d e8	 mov	 ecx, DWORD PTR __Ptr$531501[ebp]
  000a8	6b c0 24	 imul	 eax, 36			; 00000024H
  000ab	03 c1		 add	 eax, ecx
  000ad	03 f9		 add	 edi, ecx
  000af	89 46 08	 mov	 DWORD PTR [esi+8], eax
  000b2	89 7e 04	 mov	 DWORD PTR [esi+4], edi

; 771  : 			this->_Myfirst = _Ptr;

  000b5	89 0e		 mov	 DWORD PTR [esi], ecx
$LN3@reserve:

; 772  : 			}
; 773  : 		}

  000b7	e8 00 00 00 00	 call	 __EH_epilog3
  000bc	c2 04 00	 ret	 4
__catch$?reserve@?$vector@UtagDummyCharCreateInfo@@V?$allocator@UtagDummyCharCreateInfo@@@std@@@std@@QAEXI@Z$0:

; 755  : 			_CATCH_ALL
; 756  : 			this->_Alval.deallocate(_Ptr, _Count);

  000bf	ff 75 e8	 push	 DWORD PTR __Ptr$531501[ebp]
  000c2	e8 00 00 00 00	 call	 ??3@YAXPAX@Z		; operator delete
  000c7	59		 pop	 ecx

; 757  : 			_RERAISE;

  000c8	6a 00		 push	 0
  000ca	6a 00		 push	 0
  000cc	e8 00 00 00 00	 call	 __CxxThrowException@8
$LN63@reserve:
$LN61@reserve:
  000d1	cc		 int	 3
_TEXT	ENDS
;	COMDAT text$x
text$x	SEGMENT
__ehhandler$?reserve@?$vector@UtagDummyCharCreateInfo@@V?$allocator@UtagDummyCharCreateInfo@@@std@@@std@@QAEXI@Z:
  00000	8b 54 24 08	 mov	 edx, DWORD PTR [esp+8]
  00004	8d 42 0c	 lea	 eax, DWORD PTR [edx+12]
  00007	8b 4a e4	 mov	 ecx, DWORD PTR [edx-28]
  0000a	33 c8		 xor	 ecx, eax
  0000c	e8 00 00 00 00	 call	 @__security_check_cookie@4
  00011	b8 00 00 00 00	 mov	 eax, OFFSET __ehfuncinfo$?reserve@?$vector@UtagDummyCharCreateInfo@@V?$allocator@UtagDummyCharCreateInfo@@@std@@@std@@QAEXI@Z
  00016	e9 00 00 00 00	 jmp	 ___CxxFrameHandler3
text$x	ENDS
?reserve@?$vector@UtagDummyCharCreateInfo@@V?$allocator@UtagDummyCharCreateInfo@@@std@@@std@@QAEXI@Z ENDP ; std::vector<tagDummyCharCreateInfo,std::allocator<tagDummyCharCreateInfo> >::reserve
PUBLIC	??$_Ucopy@V?$_Vector_const_iterator@V?$_Vector_val@UtagDummyCharLoadInfo@@V?$allocator@UtagDummyCharLoadInfo@@@std@@@std@@@std@@@?$vector@UtagDummyCharLoadInfo@@V?$allocator@UtagDummyCharLoadInfo@@@std@@@std@@IAEPAUtagDummyCharLoadInfo@@V?$_Vector_const_iterator@V?$_Vector_val@UtagDummyCharLoadInfo@@V?$allocator@UtagDummyCharLoadInfo@@@std@@@std@@@1@0PAU2@@Z ; std::vector<tagDummyCharLoadInfo,std::allocator<tagDummyCharLoadInfo> >::_Ucopy<std::_Vector_const_iterator<std::_Vector_val<tagDummyCharLoadInfo,std::allocator<tagDummyCharLoadInfo> > > >
; Function compile flags: /Ogsp
;	COMDAT ??$_Ucopy@V?$_Vector_const_iterator@V?$_Vector_val@UtagDummyCharLoadInfo@@V?$allocator@UtagDummyCharLoadInfo@@@std@@@std@@@std@@@?$vector@UtagDummyCharLoadInfo@@V?$allocator@UtagDummyCharLoadInfo@@@std@@@std@@IAEPAUtagDummyCharLoadInfo@@V?$_Vector_const_iterator@V?$_Vector_val@UtagDummyCharLoadInfo@@V?$allocator@UtagDummyCharLoadInfo@@@std@@@std@@@1@0PAU2@@Z
_TEXT	SEGMENT
__First$ = 8						; size = 4
__Last$ = 12						; size = 4
__Cat$536701 = 16					; size = 1
__Ptr$ = 16						; size = 4
??$_Ucopy@V?$_Vector_const_iterator@V?$_Vector_val@UtagDummyCharLoadInfo@@V?$allocator@UtagDummyCharLoadInfo@@@std@@@std@@@std@@@?$vector@UtagDummyCharLoadInfo@@V?$allocator@UtagDummyCharLoadInfo@@@std@@@std@@IAEPAUtagDummyCharLoadInfo@@V?$_Vector_const_iterator@V?$_Vector_val@UtagDummyCharLoadInfo@@V?$allocator@UtagDummyCharLoadInfo@@@std@@@std@@@1@0PAU2@@Z PROC ; std::vector<tagDummyCharLoadInfo,std::allocator<tagDummyCharLoadInfo> >::_Ucopy<std::_Vector_const_iterator<std::_Vector_val<tagDummyCharLoadInfo,std::allocator<tagDummyCharLoadInfo> > > >, COMDAT
; _this$ = ecx

; 1315 : 		pointer _Ucopy(_Iter _First, _Iter _Last, pointer _Ptr)

  00000	55		 push	 ebp
  00001	8b ec		 mov	 ebp, esp

; 1316 : 		{	// copy initializing [_First, _Last), using allocator
; 1317 : 		return (_Uninitialized_copy(_First, _Last,
; 1318 : 			_Ptr, this->_Alval));

  00003	ff 75 10	 push	 DWORD PTR __Cat$536701[ebp]
  00006	83 c1 0c	 add	 ecx, 12			; 0000000cH
  00009	51		 push	 ecx
  0000a	ff 75 10	 push	 DWORD PTR __Ptr$[ebp]
  0000d	ff 75 0c	 push	 DWORD PTR __Last$[ebp]
  00010	ff 75 08	 push	 DWORD PTR __First$[ebp]
  00013	e8 00 00 00 00	 call	 ??$_Uninit_copy@V?$_Vector_const_iterator@V?$_Vector_val@UtagDummyCharLoadInfo@@V?$allocator@UtagDummyCharLoadInfo@@@std@@@std@@@std@@PAUtagDummyCharLoadInfo@@V?$allocator@UtagDummyCharLoadInfo@@@2@@std@@YAPAUtagDummyCharLoadInfo@@V?$_Vector_const_iterator@V?$_Vector_val@UtagDummyCharLoadInfo@@V?$allocator@UtagDummyCharLoadInfo@@@std@@@std@@@0@0PAU1@AAV?$allocator@UtagDummyCharLoadInfo@@@0@U_Nonscalar_ptr_iterator_tag@0@@Z ; std::_Uninit_copy<std::_Vector_const_iterator<std::_Vector_val<tagDummyCharLoadInfo,std::allocator<tagDummyCharLoadInfo> > >,tagDummyCharLoadInfo *,std::allocator<tagDummyCharLoadInfo> >
  00018	83 c4 14	 add	 esp, 20			; 00000014H

; 1319 : 		}

  0001b	5d		 pop	 ebp
  0001c	c2 0c 00	 ret	 12			; 0000000cH
??$_Ucopy@V?$_Vector_const_iterator@V?$_Vector_val@UtagDummyCharLoadInfo@@V?$allocator@UtagDummyCharLoadInfo@@@std@@@std@@@std@@@?$vector@UtagDummyCharLoadInfo@@V?$allocator@UtagDummyCharLoadInfo@@@std@@@std@@IAEPAUtagDummyCharLoadInfo@@V?$_Vector_const_iterator@V?$_Vector_val@UtagDummyCharLoadInfo@@V?$allocator@UtagDummyCharLoadInfo@@@std@@@std@@@1@0PAU2@@Z ENDP ; std::vector<tagDummyCharLoadInfo,std::allocator<tagDummyCharLoadInfo> >::_Ucopy<std::_Vector_const_iterator<std::_Vector_val<tagDummyCharLoadInfo,std::allocator<tagDummyCharLoadInfo> > > >
_TEXT	ENDS
PUBLIC	?erase@?$vector@VioHashString@@V?$allocator@VioHashString@@@std@@@std@@QAE?AV?$_Vector_iterator@V?$_Vector_val@VioHashString@@V?$allocator@VioHashString@@@std@@@std@@@2@V?$_Vector_const_iterator@V?$_Vector_val@VioHashString@@V?$allocator@VioHashString@@@std@@@std@@@2@0@Z ; std::vector<ioHashString,std::allocator<ioHashString> >::erase
; Function compile flags: /Ogsp
;	COMDAT ?erase@?$vector@VioHashString@@V?$allocator@VioHashString@@@std@@@std@@QAE?AV?$_Vector_iterator@V?$_Vector_val@VioHashString@@V?$allocator@VioHashString@@@std@@@std@@@2@V?$_Vector_const_iterator@V?$_Vector_val@VioHashString@@V?$allocator@VioHashString@@@std@@@std@@@2@0@Z
_TEXT	SEGMENT
$T536835 = -4						; size = 4
___$ReturnUdt$ = 8					; size = 4
__First_arg$ = 12					; size = 4
__Cat$536780 = 16					; size = 1
__Last_arg$ = 16					; size = 4
?erase@?$vector@VioHashString@@V?$allocator@VioHashString@@@std@@@std@@QAE?AV?$_Vector_iterator@V?$_Vector_val@VioHashString@@V?$allocator@VioHashString@@@std@@@std@@@2@V?$_Vector_const_iterator@V?$_Vector_val@VioHashString@@V?$allocator@VioHashString@@@std@@@std@@@2@0@Z PROC ; std::vector<ioHashString,std::allocator<ioHashString> >::erase, COMDAT
; _this$ = ecx

; 1190 : 		{	// erase [_First, _Last)

  00000	55		 push	 ebp
  00001	8b ec		 mov	 ebp, esp
  00003	51		 push	 ecx

; 1191 : 		iterator _First = _Make_iter(_First_arg);

  00004	8b 45 08	 mov	 eax, DWORD PTR ___$ReturnUdt$[ebp]
  00007	56		 push	 esi
  00008	8b f1		 mov	 esi, ecx
  0000a	8b 4d 0c	 mov	 ecx, DWORD PTR __First_arg$[ebp]
  0000d	89 08		 mov	 DWORD PTR [eax], ecx

; 1192 : 		iterator _Last = _Make_iter(_Last_arg);
; 1193 : 
; 1194 : 		if (_First != _Last)

  0000f	3b 4d 10	 cmp	 ecx, DWORD PTR __Last_arg$[ebp]
  00012	74 38		 je	 SHORT $LN1@erase@2

; 1195 : 			{	// worth doing, copy down over hole
; 1196 :  #if _ITERATOR_DEBUG_LEVEL == 2
; 1197 : 			if (_Last < _First || _VICONT(_First) != this
; 1198 : 				|| _VIPTR(_First) < this->_Myfirst
; 1199 : 				|| this->_Mylast < _VIPTR(_Last))
; 1200 : 				_DEBUG_ERROR("vector erase iterator outside range");
; 1201 : 			pointer _Ptr = _Move(_VIPTR(_Last), this->_Mylast,
; 1202 : 				_VIPTR(_First));
; 1203 : 			_Orphan_range(_VIPTR(_First), this->_Mylast);
; 1204 : 
; 1205 :  #else /* _ITERATOR_DEBUG_LEVEL == 2 */
; 1206 : 			pointer _Ptr = _Move(_VIPTR(_Last), this->_Mylast,
; 1207 : 				_VIPTR(_First));

  00014	8b 46 04	 mov	 eax, DWORD PTR [esi+4]
  00017	53		 push	 ebx
  00018	57		 push	 edi
  00019	ff 75 10	 push	 DWORD PTR __Cat$536780[ebp]
  0001c	51		 push	 ecx
  0001d	50		 push	 eax
  0001e	ff 75 10	 push	 DWORD PTR __Last_arg$[ebp]
  00021	e8 00 00 00 00	 call	 ??$_Move@PAVioHashString@@PAV1@@std@@YAPAVioHashString@@PAV1@00U_Nonscalar_ptr_iterator_tag@0@@Z ; std::_Move<ioHashString *,ioHashString *>

; 1208 :  #endif /* _ITERATOR_DEBUG_LEVEL == 2 */
; 1209 : 
; 1210 : 			_Destroy(_Ptr, this->_Mylast);

  00026	8b 7e 04	 mov	 edi, DWORD PTR [esi+4]
  00029	8b d8		 mov	 ebx, eax
  0002b	83 c4 10	 add	 esp, 16			; 00000010H
  0002e	89 5d fc	 mov	 DWORD PTR $T536835[ebp], ebx
  00031	3b df		 cmp	 ebx, edi
  00033	74 12		 je	 SHORT $LN36@erase@2
$LL52@erase@2:
  00035	8b 4d fc	 mov	 ecx, DWORD PTR $T536835[ebp]
  00038	ff 15 00 00 00
	00		 call	 DWORD PTR __imp_??1ioHashString@@QAE@XZ
  0003e	83 45 fc 10	 add	 DWORD PTR $T536835[ebp], 16 ; 00000010H
  00042	39 7d fc	 cmp	 DWORD PTR $T536835[ebp], edi
  00045	75 ee		 jne	 SHORT $LL52@erase@2
$LN36@erase@2:

; 1211 : 			this->_Mylast = _Ptr;

  00047	5f		 pop	 edi
  00048	89 5e 04	 mov	 DWORD PTR [esi+4], ebx
  0004b	5b		 pop	 ebx
$LN1@erase@2:

; 1212 : 			}
; 1213 : 		return (_First);

  0004c	8b 45 08	 mov	 eax, DWORD PTR ___$ReturnUdt$[ebp]
  0004f	5e		 pop	 esi

; 1214 : 		}

  00050	c9		 leave
  00051	c2 0c 00	 ret	 12			; 0000000cH
?erase@?$vector@VioHashString@@V?$allocator@VioHashString@@@std@@@std@@QAE?AV?$_Vector_iterator@V?$_Vector_val@VioHashString@@V?$allocator@VioHashString@@@std@@@std@@@2@V?$_Vector_const_iterator@V?$_Vector_val@VioHashString@@V?$allocator@VioHashString@@@std@@@std@@@2@0@Z ENDP ; std::vector<ioHashString,std::allocator<ioHashString> >::erase
_TEXT	ENDS
PUBLIC	?_Tidy@?$vector@VioHashString@@V?$allocator@VioHashString@@@std@@@std@@IAEXXZ ; std::vector<ioHashString,std::allocator<ioHashString> >::_Tidy
; Function compile flags: /Ogsp
;	COMDAT ?_Tidy@?$vector@VioHashString@@V?$allocator@VioHashString@@@std@@@std@@IAEXXZ
_TEXT	SEGMENT
?_Tidy@?$vector@VioHashString@@V?$allocator@VioHashString@@@std@@@std@@IAEXXZ PROC ; std::vector<ioHashString,std::allocator<ioHashString> >::_Tidy, COMDAT
; _this$ = ecx

; 1301 : 		{	// free all storage

  00000	56		 push	 esi
  00001	8b f1		 mov	 esi, ecx

; 1302 : 		if (this->_Myfirst != 0)

  00003	83 3e 00	 cmp	 DWORD PTR [esi], 0
  00006	74 28		 je	 SHORT $LN24@Tidy@2

; 1303 : 			{	// something to free, destroy and deallocate it
; 1304 : 			this->_Orphan_all();

  00008	53		 push	 ebx
  00009	57		 push	 edi
  0000a	ff 15 00 00 00
	00		 call	 DWORD PTR __imp_?_Orphan_all@_Container_base0@std@@QAEXXZ

; 1305 : 			_Destroy(this->_Myfirst, this->_Mylast);

  00010	8b 5e 04	 mov	 ebx, DWORD PTR [esi+4]
  00013	8b 3e		 mov	 edi, DWORD PTR [esi]
  00015	eb 0b		 jmp	 SHORT $LN28@Tidy@2
$LL12@Tidy@2:
  00017	8b cf		 mov	 ecx, edi
  00019	ff 15 00 00 00
	00		 call	 DWORD PTR __imp_??1ioHashString@@QAE@XZ
  0001f	83 c7 10	 add	 edi, 16			; 00000010H
$LN28@Tidy@2:
  00022	3b fb		 cmp	 edi, ebx
  00024	75 f1		 jne	 SHORT $LL12@Tidy@2

; 1306 : 			this->_Alval.deallocate(this->_Myfirst,
; 1307 : 				this->_Myend - this->_Myfirst);

  00026	ff 36		 push	 DWORD PTR [esi]
  00028	e8 00 00 00 00	 call	 ??3@YAXPAX@Z		; operator delete
  0002d	59		 pop	 ecx
  0002e	5f		 pop	 edi
  0002f	5b		 pop	 ebx
$LN24@Tidy@2:

; 1308 : 			}
; 1309 : 		this->_Myfirst = 0;

  00030	33 c0		 xor	 eax, eax
  00032	89 06		 mov	 DWORD PTR [esi], eax

; 1310 : 		this->_Mylast = 0;

  00034	89 46 04	 mov	 DWORD PTR [esi+4], eax

; 1311 : 		this->_Myend = 0;

  00037	89 46 08	 mov	 DWORD PTR [esi+8], eax
  0003a	5e		 pop	 esi

; 1312 : 		}

  0003b	c3		 ret	 0
?_Tidy@?$vector@VioHashString@@V?$allocator@VioHashString@@@std@@@std@@IAEXXZ ENDP ; std::vector<ioHashString,std::allocator<ioHashString> >::_Tidy
_TEXT	ENDS
PUBLIC	?_Destroy@?$vector@UtagDummyCharLoadInfo@@V?$allocator@UtagDummyCharLoadInfo@@@std@@@std@@IAEXPAUtagDummyCharLoadInfo@@0@Z ; std::vector<tagDummyCharLoadInfo,std::allocator<tagDummyCharLoadInfo> >::_Destroy
; Function compile flags: /Ogsp
;	COMDAT ?_Destroy@?$vector@UtagDummyCharLoadInfo@@V?$allocator@UtagDummyCharLoadInfo@@@std@@@std@@IAEXPAUtagDummyCharLoadInfo@@0@Z
_TEXT	SEGMENT
__First$ = 8						; size = 4
__Last$ = 12						; size = 4
?_Destroy@?$vector@UtagDummyCharLoadInfo@@V?$allocator@UtagDummyCharLoadInfo@@@std@@@std@@IAEXPAUtagDummyCharLoadInfo@@0@Z PROC ; std::vector<tagDummyCharLoadInfo,std::allocator<tagDummyCharLoadInfo> >::_Destroy, COMDAT
; _this$ = ecx

; 1269 : 		{	// destroy [_First, _Last) using allocator

  00000	55		 push	 ebp
  00001	8b ec		 mov	 ebp, esp
  00003	56		 push	 esi

; 1270 : 		_Destroy_range(_First, _Last, this->_Alval);

  00004	8b 75 08	 mov	 esi, DWORD PTR __First$[ebp]
  00007	eb 0b		 jmp	 SHORT $LN26@Destroy@3
$LL9@Destroy@3:
  00009	8b ce		 mov	 ecx, esi
  0000b	ff 15 00 00 00
	00		 call	 DWORD PTR __imp_??1ioHashString@@QAE@XZ
  00011	83 c6 1c	 add	 esi, 28			; 0000001cH
$LN26@Destroy@3:
  00014	3b 75 0c	 cmp	 esi, DWORD PTR __Last$[ebp]
  00017	75 f0		 jne	 SHORT $LL9@Destroy@3
  00019	5e		 pop	 esi

; 1271 : 		}

  0001a	5d		 pop	 ebp
  0001b	c2 08 00	 ret	 8
?_Destroy@?$vector@UtagDummyCharLoadInfo@@V?$allocator@UtagDummyCharLoadInfo@@@std@@@std@@IAEXPAUtagDummyCharLoadInfo@@0@Z ENDP ; std::vector<tagDummyCharLoadInfo,std::allocator<tagDummyCharLoadInfo> >::_Destroy
_TEXT	ENDS
PUBLIC	??1?$vector@UtagDummyCharCreateInfo@@V?$allocator@UtagDummyCharCreateInfo@@@std@@@std@@QAE@XZ ; std::vector<tagDummyCharCreateInfo,std::allocator<tagDummyCharCreateInfo> >::~vector<tagDummyCharCreateInfo,std::allocator<tagDummyCharCreateInfo> >
; Function compile flags: /Ogsp
;	COMDAT ??1?$vector@UtagDummyCharCreateInfo@@V?$allocator@UtagDummyCharCreateInfo@@@std@@@std@@QAE@XZ
_TEXT	SEGMENT
??1?$vector@UtagDummyCharCreateInfo@@V?$allocator@UtagDummyCharCreateInfo@@@std@@@std@@QAE@XZ PROC ; std::vector<tagDummyCharCreateInfo,std::allocator<tagDummyCharCreateInfo> >::~vector<tagDummyCharCreateInfo,std::allocator<tagDummyCharCreateInfo> >, COMDAT
; _this$ = ecx

; 705  : 		_Tidy();

  00000	e9 00 00 00 00	 jmp	 ?_Tidy@?$vector@UtagDummyCharCreateInfo@@V?$allocator@UtagDummyCharCreateInfo@@@std@@@std@@IAEXXZ ; std::vector<tagDummyCharCreateInfo,std::allocator<tagDummyCharCreateInfo> >::_Tidy
??1?$vector@UtagDummyCharCreateInfo@@V?$allocator@UtagDummyCharCreateInfo@@@std@@@std@@QAE@XZ ENDP ; std::vector<tagDummyCharCreateInfo,std::allocator<tagDummyCharCreateInfo> >::~vector<tagDummyCharCreateInfo,std::allocator<tagDummyCharCreateInfo> >
_TEXT	ENDS
PUBLIC	?clear@?$vector@UtagDummyCharCreateInfo@@V?$allocator@UtagDummyCharCreateInfo@@@std@@@std@@QAEXXZ ; std::vector<tagDummyCharCreateInfo,std::allocator<tagDummyCharCreateInfo> >::clear
; Function compile flags: /Ogsp
;	COMDAT ?clear@?$vector@UtagDummyCharCreateInfo@@V?$allocator@UtagDummyCharCreateInfo@@@std@@@std@@QAEXXZ
_TEXT	SEGMENT
$T537092 = -4						; size = 4
?clear@?$vector@UtagDummyCharCreateInfo@@V?$allocator@UtagDummyCharCreateInfo@@@std@@@std@@QAEXXZ PROC ; std::vector<tagDummyCharCreateInfo,std::allocator<tagDummyCharCreateInfo> >::clear, COMDAT
; _this$ = ecx

; 1217 : 		{	// erase all

  00000	55		 push	 ebp
  00001	8b ec		 mov	 ebp, esp
  00003	51		 push	 ecx

; 1218 : 		erase(begin(), end());

  00004	8b 41 04	 mov	 eax, DWORD PTR [ecx+4]
  00007	8b 11		 mov	 edx, DWORD PTR [ecx]
  00009	50		 push	 eax
  0000a	52		 push	 edx
  0000b	8d 45 fc	 lea	 eax, DWORD PTR $T537092[ebp]
  0000e	50		 push	 eax
  0000f	e8 00 00 00 00	 call	 ?erase@?$vector@UtagDummyCharCreateInfo@@V?$allocator@UtagDummyCharCreateInfo@@@std@@@std@@QAE?AV?$_Vector_iterator@V?$_Vector_val@UtagDummyCharCreateInfo@@V?$allocator@UtagDummyCharCreateInfo@@@std@@@std@@@2@V?$_Vector_const_iterator@V?$_Vector_val@UtagDummyCharCreateInfo@@V?$allocator@UtagDummyCharCreateInfo@@@std@@@std@@@2@0@Z ; std::vector<tagDummyCharCreateInfo,std::allocator<tagDummyCharCreateInfo> >::erase

; 1219 : 		}

  00014	c9		 leave
  00015	c3		 ret	 0
?clear@?$vector@UtagDummyCharCreateInfo@@V?$allocator@UtagDummyCharCreateInfo@@@std@@@std@@QAEXXZ ENDP ; std::vector<tagDummyCharCreateInfo,std::allocator<tagDummyCharCreateInfo> >::clear
_TEXT	ENDS
PUBLIC	?_Reserve@?$vector@UtagDummyCharCreateInfo@@V?$allocator@UtagDummyCharCreateInfo@@@std@@@std@@IAEXI@Z ; std::vector<tagDummyCharCreateInfo,std::allocator<tagDummyCharCreateInfo> >::_Reserve
; Function compile flags: /Ogsp
;	COMDAT ?_Reserve@?$vector@UtagDummyCharCreateInfo@@V?$allocator@UtagDummyCharCreateInfo@@@std@@@std@@IAEXI@Z
_TEXT	SEGMENT
__Count$ = 8						; size = 4
?_Reserve@?$vector@UtagDummyCharCreateInfo@@V?$allocator@UtagDummyCharCreateInfo@@@std@@@std@@IAEXI@Z PROC ; std::vector<tagDummyCharCreateInfo,std::allocator<tagDummyCharCreateInfo> >::_Reserve, COMDAT
; _this$ = ecx

; 1290 : 		{	// ensure room for _Count new elements, grow exponentially

  00000	55		 push	 ebp
  00001	8b ec		 mov	 ebp, esp
  00003	56		 push	 esi
  00004	8b f1		 mov	 esi, ecx

; 1291 : 		size_type _Size = size();

  00006	8b 0e		 mov	 ecx, DWORD PTR [esi]
  00008	8b 46 04	 mov	 eax, DWORD PTR [esi+4]
  0000b	2b c1		 sub	 eax, ecx
  0000d	57		 push	 edi
  0000e	99		 cdq
  0000f	6a 24		 push	 36			; 00000024H
  00011	5f		 pop	 edi
  00012	f7 ff		 idiv	 edi
  00014	8b f8		 mov	 edi, eax

; 1292 : 		if (max_size() - _Count < _Size)

  00016	b8 c7 71 1c 07	 mov	 eax, 119304647		; 071c71c7H
  0001b	2b 45 08	 sub	 eax, DWORD PTR __Count$[ebp]
  0001e	3b c7		 cmp	 eax, edi
  00020	73 0b		 jae	 SHORT $LN4@Reserve

; 1293 : 			_Xlen();

  00022	68 00 00 00 00	 push	 OFFSET ??_C@_0BD@OLBABOEK@vector?$DMT?$DO?5too?5long?$AA@
  00027	ff 15 00 00 00
	00		 call	 DWORD PTR __imp_?_Xlength_error@std@@YAXPBD@Z
$LN21@Reserve:
$LN4@Reserve:

; 1294 : 		else if ((_Size += _Count) <= capacity())

  0002d	8b 46 08	 mov	 eax, DWORD PTR [esi+8]
  00030	2b c1		 sub	 eax, ecx
  00032	6a 24		 push	 36			; 00000024H
  00034	99		 cdq
  00035	59		 pop	 ecx
  00036	f7 f9		 idiv	 ecx
  00038	03 7d 08	 add	 edi, DWORD PTR __Count$[ebp]
  0003b	3b f8		 cmp	 edi, eax
  0003d	76 10		 jbe	 SHORT $LN1@Reserve

; 1295 : 			;
; 1296 : 		else
; 1297 : 			reserve(_Grow_to(_Size));

  0003f	57		 push	 edi
  00040	8b ce		 mov	 ecx, esi
  00042	e8 00 00 00 00	 call	 ?_Grow_to@?$vector@UtagDummyCharCreateInfo@@V?$allocator@UtagDummyCharCreateInfo@@@std@@@std@@IBEII@Z ; std::vector<tagDummyCharCreateInfo,std::allocator<tagDummyCharCreateInfo> >::_Grow_to
  00047	50		 push	 eax
  00048	8b ce		 mov	 ecx, esi
  0004a	e8 00 00 00 00	 call	 ?reserve@?$vector@UtagDummyCharCreateInfo@@V?$allocator@UtagDummyCharCreateInfo@@@std@@@std@@QAEXI@Z ; std::vector<tagDummyCharCreateInfo,std::allocator<tagDummyCharCreateInfo> >::reserve
$LN1@Reserve:
  0004f	5f		 pop	 edi
  00050	5e		 pop	 esi

; 1298 : 		}

  00051	5d		 pop	 ebp
  00052	c2 04 00	 ret	 4
$LN20@Reserve:
?_Reserve@?$vector@UtagDummyCharCreateInfo@@V?$allocator@UtagDummyCharCreateInfo@@@std@@@std@@IAEXI@Z ENDP ; std::vector<tagDummyCharCreateInfo,std::allocator<tagDummyCharCreateInfo> >::_Reserve
_TEXT	ENDS
PUBLIC	??0?$vector@VioHashString@@V?$allocator@VioHashString@@@std@@@std@@QAE@ABV01@@Z ; std::vector<ioHashString,std::allocator<ioHashString> >::vector<ioHashString,std::allocator<ioHashString> >
;	COMDAT xdata$x
; File c:\program files (x86)\microsoft visual studio 10.0\vc\include\xutility
xdata$x	SEGMENT
__catchsym$??0?$vector@VioHashString@@V?$allocator@VioHashString@@@std@@@std@@QAE@ABV01@@Z$2 DD 040H
	DD	00H
	DD	00H
	DD	FLAT:__catch$??0?$vector@VioHashString@@V?$allocator@VioHashString@@@std@@@std@@QAE@ABV01@@Z$0
__unwindtable$??0?$vector@VioHashString@@V?$allocator@VioHashString@@@std@@@std@@QAE@ABV01@@Z DD 0ffffffffH
	DD	00H
	DD	0ffffffffH
	DD	00H
__tryblocktable$??0?$vector@VioHashString@@V?$allocator@VioHashString@@@std@@@std@@QAE@ABV01@@Z DD 00H
	DD	00H
	DD	01H
	DD	01H
	DD	FLAT:__catchsym$??0?$vector@VioHashString@@V?$allocator@VioHashString@@@std@@@std@@QAE@ABV01@@Z$2
__ehfuncinfo$??0?$vector@VioHashString@@V?$allocator@VioHashString@@@std@@@std@@QAE@ABV01@@Z DD 019930522H
	DD	02H
	DD	FLAT:__unwindtable$??0?$vector@VioHashString@@V?$allocator@VioHashString@@@std@@@std@@QAE@ABV01@@Z
	DD	01H
	DD	FLAT:__tryblocktable$??0?$vector@VioHashString@@V?$allocator@VioHashString@@@std@@@std@@QAE@ABV01@@Z
	DD	2 DUP(00H)
	DD	00H
	DD	01H
; Function compile flags: /Ogsp
; File c:\program files (x86)\microsoft visual studio 10.0\vc\include\vector
xdata$x	ENDS
;	COMDAT ??0?$vector@VioHashString@@V?$allocator@VioHashString@@@std@@@std@@QAE@ABV01@@Z
_TEXT	SEGMENT
_this$ = -20						; size = 4
__$EHRec$ = -16						; size = 16
__Cat$537251 = 8					; size = 1
__Right$ = 8						; size = 4
??0?$vector@VioHashString@@V?$allocator@VioHashString@@@std@@@std@@QAE@ABV01@@Z PROC ; std::vector<ioHashString,std::allocator<ioHashString> >::vector<ioHashString,std::allocator<ioHashString> >, COMDAT
; _this$ = ecx

; 535  : 		{	// construct by copying _Right

  00000	6a 08		 push	 8
  00002	b8 00 00 00 00	 mov	 eax, __ehhandler$??0?$vector@VioHashString@@V?$allocator@VioHashString@@@std@@@std@@QAE@ABV01@@Z
  00007	e8 00 00 00 00	 call	 __EH_prolog3_catch
  0000c	8b f1		 mov	 esi, ecx
  0000e	89 75 ec	 mov	 DWORD PTR _this$[ebp], esi

; 536  : 		if (_Buy(_Right.size()))

  00011	8b 7d 08	 mov	 edi, DWORD PTR __Right$[ebp]
  00014	33 db		 xor	 ebx, ebx
  00016	89 1e		 mov	 DWORD PTR [esi], ebx
  00018	89 5e 04	 mov	 DWORD PTR [esi+4], ebx
  0001b	89 5e 08	 mov	 DWORD PTR [esi+8], ebx
  0001e	8b 47 04	 mov	 eax, DWORD PTR [edi+4]
  00021	2b 07		 sub	 eax, DWORD PTR [edi]
  00023	c1 f8 04	 sar	 eax, 4
  00026	50		 push	 eax
  00027	e8 00 00 00 00	 call	 ?_Buy@?$vector@VioHashString@@V?$allocator@VioHashString@@@std@@@std@@IAE_NI@Z ; std::vector<ioHashString,std::allocator<ioHashString> >::_Buy
  0002c	84 c0		 test	 al, al
  0002e	74 1f		 je	 SHORT $LN7@vector

; 537  : 			_TRY_BEGIN
; 538  : 			this->_Mylast = _Ucopy(_Right.begin(), _Right.end(),
; 539  : 				this->_Myfirst);

  00030	ff 75 08	 push	 DWORD PTR __Cat$537251[ebp]
  00033	8b 0e		 mov	 ecx, DWORD PTR [esi]
  00035	8b 47 04	 mov	 eax, DWORD PTR [edi+4]
  00038	8b 3f		 mov	 edi, DWORD PTR [edi]
  0003a	8d 56 0c	 lea	 edx, DWORD PTR [esi+12]
  0003d	52		 push	 edx
  0003e	51		 push	 ecx
  0003f	50		 push	 eax
  00040	57		 push	 edi
  00041	89 5d fc	 mov	 DWORD PTR __$EHRec$[ebp+12], ebx
  00044	e8 00 00 00 00	 call	 ??$_Uninit_copy@V?$_Vector_const_iterator@V?$_Vector_val@VioHashString@@V?$allocator@VioHashString@@@std@@@std@@@std@@PAVioHashString@@V?$allocator@VioHashString@@@2@@std@@YAPAVioHashString@@V?$_Vector_const_iterator@V?$_Vector_val@VioHashString@@V?$allocator@VioHashString@@@std@@@std@@@0@0PAV1@AAV?$allocator@VioHashString@@@0@U_Nonscalar_ptr_iterator_tag@0@@Z ; std::_Uninit_copy<std::_Vector_const_iterator<std::_Vector_val<ioHashString,std::allocator<ioHashString> > >,ioHashString *,std::allocator<ioHashString> >
  00049	83 c4 14	 add	 esp, 20			; 00000014H
  0004c	89 46 04	 mov	 DWORD PTR [esi+4], eax
$LN7@vector:

; 543  : 			_CATCH_END
; 544  : 		}

  0004f	8b c6		 mov	 eax, esi
  00051	e8 00 00 00 00	 call	 __EH_epilog3
  00056	c2 04 00	 ret	 4
__catch$??0?$vector@VioHashString@@V?$allocator@VioHashString@@@std@@@std@@QAE@ABV01@@Z$0:

; 540  : 			_CATCH_ALL
; 541  : 			_Tidy();

  00059	8b 4d ec	 mov	 ecx, DWORD PTR _this$[ebp]
  0005c	e8 00 00 00 00	 call	 ?_Tidy@?$vector@VioHashString@@V?$allocator@VioHashString@@@std@@@std@@IAEXXZ ; std::vector<ioHashString,std::allocator<ioHashString> >::_Tidy

; 542  : 			_RERAISE;

  00061	33 db		 xor	 ebx, ebx
  00063	53		 push	 ebx
  00064	53		 push	 ebx
  00065	e8 00 00 00 00	 call	 __CxxThrowException@8
$LN38@vector:
$LN37@vector:
  0006a	cc		 int	 3
_TEXT	ENDS
;	COMDAT text$x
text$x	SEGMENT
__ehhandler$??0?$vector@VioHashString@@V?$allocator@VioHashString@@@std@@@std@@QAE@ABV01@@Z:
  00000	8b 54 24 08	 mov	 edx, DWORD PTR [esp+8]
  00004	8d 42 0c	 lea	 eax, DWORD PTR [edx+12]
  00007	8b 4a e8	 mov	 ecx, DWORD PTR [edx-24]
  0000a	33 c8		 xor	 ecx, eax
  0000c	e8 00 00 00 00	 call	 @__security_check_cookie@4
  00011	b8 00 00 00 00	 mov	 eax, OFFSET __ehfuncinfo$??0?$vector@VioHashString@@V?$allocator@VioHashString@@@std@@@std@@QAE@ABV01@@Z
  00016	e9 00 00 00 00	 jmp	 ___CxxFrameHandler3
text$x	ENDS
??0?$vector@VioHashString@@V?$allocator@VioHashString@@@std@@@std@@QAE@ABV01@@Z ENDP ; std::vector<ioHashString,std::allocator<ioHashString> >::vector<ioHashString,std::allocator<ioHashString> >
PUBLIC	??1?$vector@VioHashString@@V?$allocator@VioHashString@@@std@@@std@@QAE@XZ ; std::vector<ioHashString,std::allocator<ioHashString> >::~vector<ioHashString,std::allocator<ioHashString> >
; Function compile flags: /Ogsp
;	COMDAT ??1?$vector@VioHashString@@V?$allocator@VioHashString@@@std@@@std@@QAE@XZ
_TEXT	SEGMENT
??1?$vector@VioHashString@@V?$allocator@VioHashString@@@std@@@std@@QAE@XZ PROC ; std::vector<ioHashString,std::allocator<ioHashString> >::~vector<ioHashString,std::allocator<ioHashString> >, COMDAT
; _this$ = ecx

; 705  : 		_Tidy();

  00000	e9 00 00 00 00	 jmp	 ?_Tidy@?$vector@VioHashString@@V?$allocator@VioHashString@@@std@@@std@@IAEXXZ ; std::vector<ioHashString,std::allocator<ioHashString> >::_Tidy
??1?$vector@VioHashString@@V?$allocator@VioHashString@@@std@@@std@@QAE@XZ ENDP ; std::vector<ioHashString,std::allocator<ioHashString> >::~vector<ioHashString,std::allocator<ioHashString> >
_TEXT	ENDS
PUBLIC	?clear@?$vector@VioHashString@@V?$allocator@VioHashString@@@std@@@std@@QAEXXZ ; std::vector<ioHashString,std::allocator<ioHashString> >::clear
; Function compile flags: /Ogsp
;	COMDAT ?clear@?$vector@VioHashString@@V?$allocator@VioHashString@@@std@@@std@@QAEXXZ
_TEXT	SEGMENT
$T537281 = -4						; size = 4
?clear@?$vector@VioHashString@@V?$allocator@VioHashString@@@std@@@std@@QAEXXZ PROC ; std::vector<ioHashString,std::allocator<ioHashString> >::clear, COMDAT
; _this$ = ecx

; 1217 : 		{	// erase all

  00000	55		 push	 ebp
  00001	8b ec		 mov	 ebp, esp
  00003	51		 push	 ecx

; 1218 : 		erase(begin(), end());

  00004	8b 41 04	 mov	 eax, DWORD PTR [ecx+4]
  00007	8b 11		 mov	 edx, DWORD PTR [ecx]
  00009	50		 push	 eax
  0000a	52		 push	 edx
  0000b	8d 45 fc	 lea	 eax, DWORD PTR $T537281[ebp]
  0000e	50		 push	 eax
  0000f	e8 00 00 00 00	 call	 ?erase@?$vector@VioHashString@@V?$allocator@VioHashString@@@std@@@std@@QAE?AV?$_Vector_iterator@V?$_Vector_val@VioHashString@@V?$allocator@VioHashString@@@std@@@std@@@2@V?$_Vector_const_iterator@V?$_Vector_val@VioHashString@@V?$allocator@VioHashString@@@std@@@std@@@2@0@Z ; std::vector<ioHashString,std::allocator<ioHashString> >::erase

; 1219 : 		}

  00014	c9		 leave
  00015	c3		 ret	 0
?clear@?$vector@VioHashString@@V?$allocator@VioHashString@@@std@@@std@@QAEXXZ ENDP ; std::vector<ioHashString,std::allocator<ioHashString> >::clear
_TEXT	ENDS
PUBLIC	?erase@?$vector@UtagDummyCharLoadInfo@@V?$allocator@UtagDummyCharLoadInfo@@@std@@@std@@QAE?AV?$_Vector_iterator@V?$_Vector_val@UtagDummyCharLoadInfo@@V?$allocator@UtagDummyCharLoadInfo@@@std@@@std@@@2@V?$_Vector_const_iterator@V?$_Vector_val@UtagDummyCharLoadInfo@@V?$allocator@UtagDummyCharLoadInfo@@@std@@@std@@@2@0@Z ; std::vector<tagDummyCharLoadInfo,std::allocator<tagDummyCharLoadInfo> >::erase
; Function compile flags: /Ogsp
;	COMDAT ?erase@?$vector@UtagDummyCharLoadInfo@@V?$allocator@UtagDummyCharLoadInfo@@@std@@@std@@QAE?AV?$_Vector_iterator@V?$_Vector_val@UtagDummyCharLoadInfo@@V?$allocator@UtagDummyCharLoadInfo@@@std@@@std@@@2@V?$_Vector_const_iterator@V?$_Vector_val@UtagDummyCharLoadInfo@@V?$allocator@UtagDummyCharLoadInfo@@@std@@@std@@@2@0@Z
_TEXT	SEGMENT
$T537476 = -4						; size = 4
___$ReturnUdt$ = 8					; size = 4
__First_arg$ = 12					; size = 4
__Cat$537407 = 16					; size = 1
__Last_arg$ = 16					; size = 4
?erase@?$vector@UtagDummyCharLoadInfo@@V?$allocator@UtagDummyCharLoadInfo@@@std@@@std@@QAE?AV?$_Vector_iterator@V?$_Vector_val@UtagDummyCharLoadInfo@@V?$allocator@UtagDummyCharLoadInfo@@@std@@@std@@@2@V?$_Vector_const_iterator@V?$_Vector_val@UtagDummyCharLoadInfo@@V?$allocator@UtagDummyCharLoadInfo@@@std@@@std@@@2@0@Z PROC ; std::vector<tagDummyCharLoadInfo,std::allocator<tagDummyCharLoadInfo> >::erase, COMDAT
; _this$ = ecx

; 1190 : 		{	// erase [_First, _Last)

  00000	55		 push	 ebp
  00001	8b ec		 mov	 ebp, esp
  00003	51		 push	 ecx

; 1191 : 		iterator _First = _Make_iter(_First_arg);

  00004	8b 45 08	 mov	 eax, DWORD PTR ___$ReturnUdt$[ebp]
  00007	56		 push	 esi
  00008	8b f1		 mov	 esi, ecx
  0000a	8b 4d 0c	 mov	 ecx, DWORD PTR __First_arg$[ebp]
  0000d	89 08		 mov	 DWORD PTR [eax], ecx

; 1192 : 		iterator _Last = _Make_iter(_Last_arg);
; 1193 : 
; 1194 : 		if (_First != _Last)

  0000f	3b 4d 10	 cmp	 ecx, DWORD PTR __Last_arg$[ebp]
  00012	74 38		 je	 SHORT $LN1@erase@3

; 1195 : 			{	// worth doing, copy down over hole
; 1196 :  #if _ITERATOR_DEBUG_LEVEL == 2
; 1197 : 			if (_Last < _First || _VICONT(_First) != this
; 1198 : 				|| _VIPTR(_First) < this->_Myfirst
; 1199 : 				|| this->_Mylast < _VIPTR(_Last))
; 1200 : 				_DEBUG_ERROR("vector erase iterator outside range");
; 1201 : 			pointer _Ptr = _Move(_VIPTR(_Last), this->_Mylast,
; 1202 : 				_VIPTR(_First));
; 1203 : 			_Orphan_range(_VIPTR(_First), this->_Mylast);
; 1204 : 
; 1205 :  #else /* _ITERATOR_DEBUG_LEVEL == 2 */
; 1206 : 			pointer _Ptr = _Move(_VIPTR(_Last), this->_Mylast,
; 1207 : 				_VIPTR(_First));

  00014	8b 46 04	 mov	 eax, DWORD PTR [esi+4]
  00017	53		 push	 ebx
  00018	57		 push	 edi
  00019	ff 75 10	 push	 DWORD PTR __Cat$537407[ebp]
  0001c	51		 push	 ecx
  0001d	50		 push	 eax
  0001e	ff 75 10	 push	 DWORD PTR __Last_arg$[ebp]
  00021	e8 00 00 00 00	 call	 ??$_Move@PAUtagDummyCharLoadInfo@@PAU1@@std@@YAPAUtagDummyCharLoadInfo@@PAU1@00U_Nonscalar_ptr_iterator_tag@0@@Z ; std::_Move<tagDummyCharLoadInfo *,tagDummyCharLoadInfo *>

; 1208 :  #endif /* _ITERATOR_DEBUG_LEVEL == 2 */
; 1209 : 
; 1210 : 			_Destroy(_Ptr, this->_Mylast);

  00026	8b 7e 04	 mov	 edi, DWORD PTR [esi+4]
  00029	8b d8		 mov	 ebx, eax
  0002b	83 c4 10	 add	 esp, 16			; 00000010H
  0002e	89 5d fc	 mov	 DWORD PTR $T537476[ebp], ebx
  00031	3b df		 cmp	 ebx, edi
  00033	74 12		 je	 SHORT $LN36@erase@3
$LL55@erase@3:
  00035	8b 4d fc	 mov	 ecx, DWORD PTR $T537476[ebp]
  00038	ff 15 00 00 00
	00		 call	 DWORD PTR __imp_??1ioHashString@@QAE@XZ
  0003e	83 45 fc 1c	 add	 DWORD PTR $T537476[ebp], 28 ; 0000001cH
  00042	39 7d fc	 cmp	 DWORD PTR $T537476[ebp], edi
  00045	75 ee		 jne	 SHORT $LL55@erase@3
$LN36@erase@3:

; 1211 : 			this->_Mylast = _Ptr;

  00047	5f		 pop	 edi
  00048	89 5e 04	 mov	 DWORD PTR [esi+4], ebx
  0004b	5b		 pop	 ebx
$LN1@erase@3:

; 1212 : 			}
; 1213 : 		return (_First);

  0004c	8b 45 08	 mov	 eax, DWORD PTR ___$ReturnUdt$[ebp]
  0004f	5e		 pop	 esi

; 1214 : 		}

  00050	c9		 leave
  00051	c2 0c 00	 ret	 12			; 0000000cH
?erase@?$vector@UtagDummyCharLoadInfo@@V?$allocator@UtagDummyCharLoadInfo@@@std@@@std@@QAE?AV?$_Vector_iterator@V?$_Vector_val@UtagDummyCharLoadInfo@@V?$allocator@UtagDummyCharLoadInfo@@@std@@@std@@@2@V?$_Vector_const_iterator@V?$_Vector_val@UtagDummyCharLoadInfo@@V?$allocator@UtagDummyCharLoadInfo@@@std@@@std@@@2@0@Z ENDP ; std::vector<tagDummyCharLoadInfo,std::allocator<tagDummyCharLoadInfo> >::erase
_TEXT	ENDS
PUBLIC	?_Tidy@?$vector@UtagDummyCharLoadInfo@@V?$allocator@UtagDummyCharLoadInfo@@@std@@@std@@IAEXXZ ; std::vector<tagDummyCharLoadInfo,std::allocator<tagDummyCharLoadInfo> >::_Tidy
; Function compile flags: /Ogsp
;	COMDAT ?_Tidy@?$vector@UtagDummyCharLoadInfo@@V?$allocator@UtagDummyCharLoadInfo@@@std@@@std@@IAEXXZ
_TEXT	SEGMENT
?_Tidy@?$vector@UtagDummyCharLoadInfo@@V?$allocator@UtagDummyCharLoadInfo@@@std@@@std@@IAEXXZ PROC ; std::vector<tagDummyCharLoadInfo,std::allocator<tagDummyCharLoadInfo> >::_Tidy, COMDAT
; _this$ = ecx

; 1301 : 		{	// free all storage

  00000	56		 push	 esi
  00001	8b f1		 mov	 esi, ecx

; 1302 : 		if (this->_Myfirst != 0)

  00003	83 3e 00	 cmp	 DWORD PTR [esi], 0
  00006	74 28		 je	 SHORT $LN27@Tidy@3

; 1303 : 			{	// something to free, destroy and deallocate it
; 1304 : 			this->_Orphan_all();

  00008	53		 push	 ebx
  00009	57		 push	 edi
  0000a	ff 15 00 00 00
	00		 call	 DWORD PTR __imp_?_Orphan_all@_Container_base0@std@@QAEXXZ

; 1305 : 			_Destroy(this->_Myfirst, this->_Mylast);

  00010	8b 5e 04	 mov	 ebx, DWORD PTR [esi+4]
  00013	8b 3e		 mov	 edi, DWORD PTR [esi]
  00015	eb 0b		 jmp	 SHORT $LN31@Tidy@3
$LL12@Tidy@3:
  00017	8b cf		 mov	 ecx, edi
  00019	ff 15 00 00 00
	00		 call	 DWORD PTR __imp_??1ioHashString@@QAE@XZ
  0001f	83 c7 1c	 add	 edi, 28			; 0000001cH
$LN31@Tidy@3:
  00022	3b fb		 cmp	 edi, ebx
  00024	75 f1		 jne	 SHORT $LL12@Tidy@3

; 1306 : 			this->_Alval.deallocate(this->_Myfirst,
; 1307 : 				this->_Myend - this->_Myfirst);

  00026	ff 36		 push	 DWORD PTR [esi]
  00028	e8 00 00 00 00	 call	 ??3@YAXPAX@Z		; operator delete
  0002d	59		 pop	 ecx
  0002e	5f		 pop	 edi
  0002f	5b		 pop	 ebx
$LN27@Tidy@3:

; 1308 : 			}
; 1309 : 		this->_Myfirst = 0;

  00030	33 c0		 xor	 eax, eax
  00032	89 06		 mov	 DWORD PTR [esi], eax

; 1310 : 		this->_Mylast = 0;

  00034	89 46 04	 mov	 DWORD PTR [esi+4], eax

; 1311 : 		this->_Myend = 0;

  00037	89 46 08	 mov	 DWORD PTR [esi+8], eax
  0003a	5e		 pop	 esi

; 1312 : 		}

  0003b	c3		 ret	 0
?_Tidy@?$vector@UtagDummyCharLoadInfo@@V?$allocator@UtagDummyCharLoadInfo@@@std@@@std@@IAEXXZ ENDP ; std::vector<tagDummyCharLoadInfo,std::allocator<tagDummyCharLoadInfo> >::_Tidy
_TEXT	ENDS
PUBLIC	??0?$vector@UtagDummyCharLoadInfo@@V?$allocator@UtagDummyCharLoadInfo@@@std@@@std@@QAE@ABV01@@Z ; std::vector<tagDummyCharLoadInfo,std::allocator<tagDummyCharLoadInfo> >::vector<tagDummyCharLoadInfo,std::allocator<tagDummyCharLoadInfo> >
;	COMDAT xdata$x
; File c:\program files (x86)\microsoft visual studio 10.0\vc\include\xutility
xdata$x	SEGMENT
__catchsym$??0?$vector@UtagDummyCharLoadInfo@@V?$allocator@UtagDummyCharLoadInfo@@@std@@@std@@QAE@ABV01@@Z$2 DD 040H
	DD	00H
	DD	00H
	DD	FLAT:__catch$??0?$vector@UtagDummyCharLoadInfo@@V?$allocator@UtagDummyCharLoadInfo@@@std@@@std@@QAE@ABV01@@Z$0
__unwindtable$??0?$vector@UtagDummyCharLoadInfo@@V?$allocator@UtagDummyCharLoadInfo@@@std@@@std@@QAE@ABV01@@Z DD 0ffffffffH
	DD	00H
	DD	0ffffffffH
	DD	00H
__tryblocktable$??0?$vector@UtagDummyCharLoadInfo@@V?$allocator@UtagDummyCharLoadInfo@@@std@@@std@@QAE@ABV01@@Z DD 00H
	DD	00H
	DD	01H
	DD	01H
	DD	FLAT:__catchsym$??0?$vector@UtagDummyCharLoadInfo@@V?$allocator@UtagDummyCharLoadInfo@@@std@@@std@@QAE@ABV01@@Z$2
__ehfuncinfo$??0?$vector@UtagDummyCharLoadInfo@@V?$allocator@UtagDummyCharLoadInfo@@@std@@@std@@QAE@ABV01@@Z DD 019930522H
	DD	02H
	DD	FLAT:__unwindtable$??0?$vector@UtagDummyCharLoadInfo@@V?$allocator@UtagDummyCharLoadInfo@@@std@@@std@@QAE@ABV01@@Z
	DD	01H
	DD	FLAT:__tryblocktable$??0?$vector@UtagDummyCharLoadInfo@@V?$allocator@UtagDummyCharLoadInfo@@@std@@@std@@QAE@ABV01@@Z
	DD	2 DUP(00H)
	DD	00H
	DD	01H
; Function compile flags: /Ogsp
; File c:\program files (x86)\microsoft visual studio 10.0\vc\include\vector
xdata$x	ENDS
;	COMDAT ??0?$vector@UtagDummyCharLoadInfo@@V?$allocator@UtagDummyCharLoadInfo@@@std@@@std@@QAE@ABV01@@Z
_TEXT	SEGMENT
_this$ = -20						; size = 4
__$EHRec$ = -16						; size = 16
__Cat$537730 = 8					; size = 1
__Right$ = 8						; size = 4
??0?$vector@UtagDummyCharLoadInfo@@V?$allocator@UtagDummyCharLoadInfo@@@std@@@std@@QAE@ABV01@@Z PROC ; std::vector<tagDummyCharLoadInfo,std::allocator<tagDummyCharLoadInfo> >::vector<tagDummyCharLoadInfo,std::allocator<tagDummyCharLoadInfo> >, COMDAT
; _this$ = ecx

; 535  : 		{	// construct by copying _Right

  00000	6a 08		 push	 8
  00002	b8 00 00 00 00	 mov	 eax, __ehhandler$??0?$vector@UtagDummyCharLoadInfo@@V?$allocator@UtagDummyCharLoadInfo@@@std@@@std@@QAE@ABV01@@Z
  00007	e8 00 00 00 00	 call	 __EH_prolog3_catch
  0000c	8b f1		 mov	 esi, ecx
  0000e	89 75 ec	 mov	 DWORD PTR _this$[ebp], esi

; 536  : 		if (_Buy(_Right.size()))

  00011	8b 7d 08	 mov	 edi, DWORD PTR __Right$[ebp]
  00014	33 db		 xor	 ebx, ebx
  00016	89 1e		 mov	 DWORD PTR [esi], ebx
  00018	89 5e 04	 mov	 DWORD PTR [esi+4], ebx
  0001b	89 5e 08	 mov	 DWORD PTR [esi+8], ebx
  0001e	8b 47 04	 mov	 eax, DWORD PTR [edi+4]
  00021	2b 07		 sub	 eax, DWORD PTR [edi]
  00023	6a 1c		 push	 28			; 0000001cH
  00025	59		 pop	 ecx
  00026	99		 cdq
  00027	f7 f9		 idiv	 ecx
  00029	8b ce		 mov	 ecx, esi
  0002b	50		 push	 eax
  0002c	e8 00 00 00 00	 call	 ?_Buy@?$vector@UtagDummyCharLoadInfo@@V?$allocator@UtagDummyCharLoadInfo@@@std@@@std@@IAE_NI@Z ; std::vector<tagDummyCharLoadInfo,std::allocator<tagDummyCharLoadInfo> >::_Buy
  00031	84 c0		 test	 al, al
  00033	74 1f		 je	 SHORT $LN7@vector@2

; 537  : 			_TRY_BEGIN
; 538  : 			this->_Mylast = _Ucopy(_Right.begin(), _Right.end(),
; 539  : 				this->_Myfirst);

  00035	ff 75 08	 push	 DWORD PTR __Cat$537730[ebp]
  00038	8b 0e		 mov	 ecx, DWORD PTR [esi]
  0003a	8b 47 04	 mov	 eax, DWORD PTR [edi+4]
  0003d	8b 3f		 mov	 edi, DWORD PTR [edi]
  0003f	8d 56 0c	 lea	 edx, DWORD PTR [esi+12]
  00042	52		 push	 edx
  00043	51		 push	 ecx
  00044	50		 push	 eax
  00045	57		 push	 edi
  00046	89 5d fc	 mov	 DWORD PTR __$EHRec$[ebp+12], ebx
  00049	e8 00 00 00 00	 call	 ??$_Uninit_copy@V?$_Vector_const_iterator@V?$_Vector_val@UtagDummyCharLoadInfo@@V?$allocator@UtagDummyCharLoadInfo@@@std@@@std@@@std@@PAUtagDummyCharLoadInfo@@V?$allocator@UtagDummyCharLoadInfo@@@2@@std@@YAPAUtagDummyCharLoadInfo@@V?$_Vector_const_iterator@V?$_Vector_val@UtagDummyCharLoadInfo@@V?$allocator@UtagDummyCharLoadInfo@@@std@@@std@@@0@0PAU1@AAV?$allocator@UtagDummyCharLoadInfo@@@0@U_Nonscalar_ptr_iterator_tag@0@@Z ; std::_Uninit_copy<std::_Vector_const_iterator<std::_Vector_val<tagDummyCharLoadInfo,std::allocator<tagDummyCharLoadInfo> > >,tagDummyCharLoadInfo *,std::allocator<tagDummyCharLoadInfo> >
  0004e	83 c4 14	 add	 esp, 20			; 00000014H
  00051	89 46 04	 mov	 DWORD PTR [esi+4], eax
$LN7@vector@2:

; 543  : 			_CATCH_END
; 544  : 		}

  00054	8b c6		 mov	 eax, esi
  00056	e8 00 00 00 00	 call	 __EH_epilog3
  0005b	c2 04 00	 ret	 4
__catch$??0?$vector@UtagDummyCharLoadInfo@@V?$allocator@UtagDummyCharLoadInfo@@@std@@@std@@QAE@ABV01@@Z$0:

; 540  : 			_CATCH_ALL
; 541  : 			_Tidy();

  0005e	8b 4d ec	 mov	 ecx, DWORD PTR _this$[ebp]
  00061	e8 00 00 00 00	 call	 ?_Tidy@?$vector@UtagDummyCharLoadInfo@@V?$allocator@UtagDummyCharLoadInfo@@@std@@@std@@IAEXXZ ; std::vector<tagDummyCharLoadInfo,std::allocator<tagDummyCharLoadInfo> >::_Tidy

; 542  : 			_RERAISE;

  00066	33 db		 xor	 ebx, ebx
  00068	53		 push	 ebx
  00069	53		 push	 ebx
  0006a	e8 00 00 00 00	 call	 __CxxThrowException@8
$LN38@vector@2:
$LN37@vector@2:
  0006f	cc		 int	 3
_TEXT	ENDS
;	COMDAT text$x
text$x	SEGMENT
__ehhandler$??0?$vector@UtagDummyCharLoadInfo@@V?$allocator@UtagDummyCharLoadInfo@@@std@@@std@@QAE@ABV01@@Z:
  00000	8b 54 24 08	 mov	 edx, DWORD PTR [esp+8]
  00004	8d 42 0c	 lea	 eax, DWORD PTR [edx+12]
  00007	8b 4a e8	 mov	 ecx, DWORD PTR [edx-24]
  0000a	33 c8		 xor	 ecx, eax
  0000c	e8 00 00 00 00	 call	 @__security_check_cookie@4
  00011	b8 00 00 00 00	 mov	 eax, OFFSET __ehfuncinfo$??0?$vector@UtagDummyCharLoadInfo@@V?$allocator@UtagDummyCharLoadInfo@@@std@@@std@@QAE@ABV01@@Z
  00016	e9 00 00 00 00	 jmp	 ___CxxFrameHandler3
text$x	ENDS
??0?$vector@UtagDummyCharLoadInfo@@V?$allocator@UtagDummyCharLoadInfo@@@std@@@std@@QAE@ABV01@@Z ENDP ; std::vector<tagDummyCharLoadInfo,std::allocator<tagDummyCharLoadInfo> >::vector<tagDummyCharLoadInfo,std::allocator<tagDummyCharLoadInfo> >
PUBLIC	?push_back@?$vector@UtagDummyCharCreateInfo@@V?$allocator@UtagDummyCharCreateInfo@@@std@@@std@@QAEXABUtagDummyCharCreateInfo@@@Z ; std::vector<tagDummyCharCreateInfo,std::allocator<tagDummyCharCreateInfo> >::push_back
; Function compile flags: /Ogsp
;	COMDAT ?push_back@?$vector@UtagDummyCharCreateInfo@@V?$allocator@UtagDummyCharCreateInfo@@@std@@@std@@QAEXABUtagDummyCharCreateInfo@@@Z
_TEXT	SEGMENT
__Val$ = 8						; size = 4
?push_back@?$vector@UtagDummyCharCreateInfo@@V?$allocator@UtagDummyCharCreateInfo@@@std@@@std@@QAEXABUtagDummyCharCreateInfo@@@Z PROC ; std::vector<tagDummyCharCreateInfo,std::allocator<tagDummyCharCreateInfo> >::push_back, COMDAT
; _this$ = ecx

; 976  : 		{	// insert element at end

  00000	55		 push	 ebp
  00001	8b ec		 mov	 ebp, esp
  00003	56		 push	 esi
  00004	8b f1		 mov	 esi, ecx

; 977  : 		if (_Inside(_STD addressof(_Val)))

  00006	8b 4e 04	 mov	 ecx, DWORD PTR [esi+4]
  00009	57		 push	 edi
  0000a	8b 7d 08	 mov	 edi, DWORD PTR __Val$[ebp]
  0000d	3b f9		 cmp	 edi, ecx
  0000f	73 37		 jae	 SHORT $LN4@push_back
  00011	8b 16		 mov	 edx, DWORD PTR [esi]
  00013	3b d7		 cmp	 edx, edi
  00015	77 31		 ja	 SHORT $LN4@push_back

; 978  : 			{	// push back an element
; 979  : 			size_type _Idx = _STD addressof(_Val) - this->_Myfirst;

  00017	8b c7		 mov	 eax, edi
  00019	2b c2		 sub	 eax, edx
  0001b	6a 24		 push	 36			; 00000024H
  0001d	99		 cdq
  0001e	5f		 pop	 edi
  0001f	f7 ff		 idiv	 edi
  00021	8b f8		 mov	 edi, eax

; 980  : 			if (this->_Mylast == this->_Myend)

  00023	3b 4e 08	 cmp	 ecx, DWORD PTR [esi+8]
  00026	75 09		 jne	 SHORT $LN3@push_back

; 981  : 				_Reserve(1);

  00028	6a 01		 push	 1
  0002a	8b ce		 mov	 ecx, esi
  0002c	e8 00 00 00 00	 call	 ?_Reserve@?$vector@UtagDummyCharCreateInfo@@V?$allocator@UtagDummyCharCreateInfo@@@std@@@std@@IAEXI@Z ; std::vector<tagDummyCharCreateInfo,std::allocator<tagDummyCharCreateInfo> >::_Reserve
$LN3@push_back:

; 982  : 			_Orphan_range(this->_Mylast, this->_Mylast);
; 983  : 			_Cons_val(this->_Alval,
; 984  : 				this->_Mylast,
; 985  : 				this->_Myfirst[_Idx]);

  00031	6b ff 24	 imul	 edi, 36			; 00000024H
  00034	03 3e		 add	 edi, DWORD PTR [esi]
  00036	8d 46 0c	 lea	 eax, DWORD PTR [esi+12]
  00039	57		 push	 edi
  0003a	ff 76 04	 push	 DWORD PTR [esi+4]
  0003d	50		 push	 eax
  0003e	e8 00 00 00 00	 call	 ??$_Cons_val@V?$allocator@UtagDummyCharCreateInfo@@@std@@UtagDummyCharCreateInfo@@AAU3@@std@@YAXAAV?$allocator@UtagDummyCharCreateInfo@@@0@PAUtagDummyCharCreateInfo@@AAU2@@Z ; std::_Cons_val<std::allocator<tagDummyCharCreateInfo>,tagDummyCharCreateInfo,tagDummyCharCreateInfo &>
  00043	83 c4 0c	 add	 esp, 12			; 0000000cH

; 986  : 			++this->_Mylast;
; 987  : 			}
; 988  : 		else

  00046	eb 19		 jmp	 SHORT $LN26@push_back
$LN4@push_back:

; 989  : 			{	// push back a non-element
; 990  : 			if (this->_Mylast == this->_Myend)

  00048	3b 4e 08	 cmp	 ecx, DWORD PTR [esi+8]
  0004b	75 09		 jne	 SHORT $LN1@push_back

; 991  : 				_Reserve(1);

  0004d	6a 01		 push	 1
  0004f	8b ce		 mov	 ecx, esi
  00051	e8 00 00 00 00	 call	 ?_Reserve@?$vector@UtagDummyCharCreateInfo@@V?$allocator@UtagDummyCharCreateInfo@@@std@@@std@@IAEXI@Z ; std::vector<tagDummyCharCreateInfo,std::allocator<tagDummyCharCreateInfo> >::_Reserve
$LN1@push_back:

; 992  : 			_Orphan_range(this->_Mylast, this->_Mylast);
; 993  : 			_Cons_val(this->_Alval,
; 994  : 				this->_Mylast,
; 995  : 				_Val);

  00056	57		 push	 edi
  00057	ff 76 04	 push	 DWORD PTR [esi+4]
  0005a	e8 00 00 00 00	 call	 ??$_Construct@UtagDummyCharCreateInfo@@ABU1@@std@@YAXPAUtagDummyCharCreateInfo@@ABU1@@Z ; std::_Construct<tagDummyCharCreateInfo,tagDummyCharCreateInfo const &>
  0005f	59		 pop	 ecx
  00060	59		 pop	 ecx
$LN26@push_back:

; 996  : 			++this->_Mylast;

  00061	83 46 04 24	 add	 DWORD PTR [esi+4], 36	; 00000024H
  00065	5f		 pop	 edi
  00066	5e		 pop	 esi

; 997  : 			}
; 998  : 		}

  00067	5d		 pop	 ebp
  00068	c2 04 00	 ret	 4
?push_back@?$vector@UtagDummyCharCreateInfo@@V?$allocator@UtagDummyCharCreateInfo@@@std@@@std@@QAEXABUtagDummyCharCreateInfo@@@Z ENDP ; std::vector<tagDummyCharCreateInfo,std::allocator<tagDummyCharCreateInfo> >::push_back
_TEXT	ENDS
PUBLIC	??1?$vector@UtagDummyCharLoadInfo@@V?$allocator@UtagDummyCharLoadInfo@@@std@@@std@@QAE@XZ ; std::vector<tagDummyCharLoadInfo,std::allocator<tagDummyCharLoadInfo> >::~vector<tagDummyCharLoadInfo,std::allocator<tagDummyCharLoadInfo> >
; Function compile flags: /Ogsp
;	COMDAT ??1?$vector@UtagDummyCharLoadInfo@@V?$allocator@UtagDummyCharLoadInfo@@@std@@@std@@QAE@XZ
_TEXT	SEGMENT
??1?$vector@UtagDummyCharLoadInfo@@V?$allocator@UtagDummyCharLoadInfo@@@std@@@std@@QAE@XZ PROC ; std::vector<tagDummyCharLoadInfo,std::allocator<tagDummyCharLoadInfo> >::~vector<tagDummyCharLoadInfo,std::allocator<tagDummyCharLoadInfo> >, COMDAT
; _this$ = ecx

; 705  : 		_Tidy();

  00000	e9 00 00 00 00	 jmp	 ?_Tidy@?$vector@UtagDummyCharLoadInfo@@V?$allocator@UtagDummyCharLoadInfo@@@std@@@std@@IAEXXZ ; std::vector<tagDummyCharLoadInfo,std::allocator<tagDummyCharLoadInfo> >::_Tidy
??1?$vector@UtagDummyCharLoadInfo@@V?$allocator@UtagDummyCharLoadInfo@@@std@@@std@@QAE@XZ ENDP ; std::vector<tagDummyCharLoadInfo,std::allocator<tagDummyCharLoadInfo> >::~vector<tagDummyCharLoadInfo,std::allocator<tagDummyCharLoadInfo> >
_TEXT	ENDS
PUBLIC	?clear@?$vector@UtagDummyCharLoadInfo@@V?$allocator@UtagDummyCharLoadInfo@@@std@@@std@@QAEXXZ ; std::vector<tagDummyCharLoadInfo,std::allocator<tagDummyCharLoadInfo> >::clear
; Function compile flags: /Ogsp
;	COMDAT ?clear@?$vector@UtagDummyCharLoadInfo@@V?$allocator@UtagDummyCharLoadInfo@@@std@@@std@@QAEXXZ
_TEXT	SEGMENT
$T537796 = -4						; size = 4
?clear@?$vector@UtagDummyCharLoadInfo@@V?$allocator@UtagDummyCharLoadInfo@@@std@@@std@@QAEXXZ PROC ; std::vector<tagDummyCharLoadInfo,std::allocator<tagDummyCharLoadInfo> >::clear, COMDAT
; _this$ = ecx

; 1217 : 		{	// erase all

  00000	55		 push	 ebp
  00001	8b ec		 mov	 ebp, esp
  00003	51		 push	 ecx

; 1218 : 		erase(begin(), end());

  00004	8b 41 04	 mov	 eax, DWORD PTR [ecx+4]
  00007	8b 11		 mov	 edx, DWORD PTR [ecx]
  00009	50		 push	 eax
  0000a	52		 push	 edx
  0000b	8d 45 fc	 lea	 eax, DWORD PTR $T537796[ebp]
  0000e	50		 push	 eax
  0000f	e8 00 00 00 00	 call	 ?erase@?$vector@UtagDummyCharLoadInfo@@V?$allocator@UtagDummyCharLoadInfo@@@std@@@std@@QAE?AV?$_Vector_iterator@V?$_Vector_val@UtagDummyCharLoadInfo@@V?$allocator@UtagDummyCharLoadInfo@@@std@@@std@@@2@V?$_Vector_const_iterator@V?$_Vector_val@UtagDummyCharLoadInfo@@V?$allocator@UtagDummyCharLoadInfo@@@std@@@std@@@2@0@Z ; std::vector<tagDummyCharLoadInfo,std::allocator<tagDummyCharLoadInfo> >::erase

; 1219 : 		}

  00014	c9		 leave
  00015	c3		 ret	 0
?clear@?$vector@UtagDummyCharLoadInfo@@V?$allocator@UtagDummyCharLoadInfo@@@std@@@std@@QAEXXZ ENDP ; std::vector<tagDummyCharLoadInfo,std::allocator<tagDummyCharLoadInfo> >::clear
_TEXT	ENDS
PUBLIC	??_7ioCreateDummyChar2Buff@@6B@			; ioCreateDummyChar2Buff::`vftable'
PUBLIC	??0ioCreateDummyChar2Buff@@QAE@XZ		; ioCreateDummyChar2Buff::ioCreateDummyChar2Buff
PUBLIC	??_R4ioCreateDummyChar2Buff@@6B@		; ioCreateDummyChar2Buff::`RTTI Complete Object Locator'
PUBLIC	??_R0?AVioCreateDummyChar2Buff@@@8		; ioCreateDummyChar2Buff `RTTI Type Descriptor'
PUBLIC	??_R3ioCreateDummyChar2Buff@@8			; ioCreateDummyChar2Buff::`RTTI Class Hierarchy Descriptor'
PUBLIC	??_R2ioCreateDummyChar2Buff@@8			; ioCreateDummyChar2Buff::`RTTI Base Class Array'
PUBLIC	??_R1A@?0A@EA@ioCreateDummyChar2Buff@@8		; ioCreateDummyChar2Buff::`RTTI Base Class Descriptor at (0,-1,0,64)'
PUBLIC	??_R1A@?0A@EA@ioBuff@@8				; ioBuff::`RTTI Base Class Descriptor at (0,-1,0,64)'
PUBLIC	??_R0?AVioBuff@@@8				; ioBuff `RTTI Type Descriptor'
PUBLIC	??_R3ioBuff@@8					; ioBuff::`RTTI Class Hierarchy Descriptor'
PUBLIC	??_R2ioBuff@@8					; ioBuff::`RTTI Base Class Array'
PUBLIC	?LoadProperty@ioCreateDummyChar2Buff@@UAEXAAVioINILoader@@@Z ; ioCreateDummyChar2Buff::LoadProperty
PUBLIC	?Clone@ioCreateDummyChar2Buff@@UAEPAVioBuff@@XZ	; ioCreateDummyChar2Buff::Clone
PUBLIC	?ProcessBuff@ioCreateDummyChar2Buff@@UAEXM@Z	; ioCreateDummyChar2Buff::ProcessBuff
PUBLIC	?IsWaitSelfRemove@ioBuff@@UAE_NXZ		; ioBuff::IsWaitSelfRemove
EXTRN	??1ioBuff@@UAE@XZ:PROC				; ioBuff::~ioBuff
EXTRN	??0ioBuff@@QAE@XZ:PROC				; ioBuff::ioBuff
EXTRN	?StartBuffWithAniTime@ioBuff@@UAEXPAVioBaseChar@@K@Z:PROC ; ioBuff::StartBuffWithAniTime
EXTRN	?CancelBuff@ioBuff@@UAEXXZ:PROC			; ioBuff::CancelBuff
EXTRN	?AccumulateBuff@ioBuff@@UAEXXZ:PROC		; ioBuff::AccumulateBuff
EXTRN	?IsLiveButStopped@ioBuff@@UBE_NXZ:PROC		; ioBuff::IsLiveButStopped
EXTRN	?IsCanJumpAttack@ioBuff@@UBE_NXZ:PROC		; ioBuff::IsCanJumpAttack
EXTRN	?SetAction@ioBuff@@MAEXXZ:PROC			; ioBuff::SetAction
EXTRN	?ProcessDelay@ioBuff@@MAEXM@Z:PROC		; ioBuff::ProcessDelay
EXTRN	?SetExtraDurationByGrowth@ioBuff@@UAEXM@Z:PROC	; ioBuff::SetExtraDurationByGrowth
EXTRN	?SetWeaponIndex@ioBuff@@UAEXK@Z:PROC		; ioBuff::SetWeaponIndex
EXTRN	?OnReduceGauge@ioBuff@@UBE_NXZ:PROC		; ioBuff::OnReduceGauge
EXTRN	?IsCharCollisionSkip@ioBuff@@UBE_NXZ:PROC	; ioBuff::IsCharCollisionSkip
EXTRN	?IsCollisionAvailableWeapon@ioBuff@@UBE_NXZ:PROC ; ioBuff::IsCollisionAvailableWeapon
EXTRN	?IsProtected@ioBuff@@UBE_NXZ:PROC		; ioBuff::IsProtected
EXTRN	?UseActiveCount@ioBuff@@UBE_NXZ:PROC		; ioBuff::UseActiveCount
EXTRN	?CheckRemoveEquipSkillBuff@ioBuff@@UAEX_N@Z:PROC ; ioBuff::CheckRemoveEquipSkillBuff
EXTRN	?SetBuffGrapplingState@ioBuff@@UAE_NPAVioBaseChar@@ABVioHashString@@@Z:PROC ; ioBuff::SetBuffGrapplingState
EXTRN	?GetGrapplingTargetPos@ioBuff@@UAE?AUD3DXVECTOR3@@PAVioBaseChar@@@Z:PROC ; ioBuff::GetGrapplingTargetPos
EXTRN	??_EioCreateDummyChar2Buff@@UAEPAXI@Z:PROC	; ioCreateDummyChar2Buff::`vector deleting destructor'
;	COMDAT ??_R2ioBuff@@8
; File c:\program files (x86)\microsoft visual studio 10.0\vc\include\xmemory
rdata$r	SEGMENT
??_R2ioBuff@@8 DD FLAT:??_R1A@?0A@EA@ioBuff@@8		; ioBuff::`RTTI Base Class Array'
rdata$r	ENDS
;	COMDAT ??_R3ioBuff@@8
rdata$r	SEGMENT
??_R3ioBuff@@8 DD 00H					; ioBuff::`RTTI Class Hierarchy Descriptor'
	DD	00H
	DD	01H
	DD	FLAT:??_R2ioBuff@@8
rdata$r	ENDS
;	COMDAT ??_R0?AVioBuff@@@8
_DATA	SEGMENT
??_R0?AVioBuff@@@8 DD FLAT:??_7type_info@@6B@		; ioBuff `RTTI Type Descriptor'
	DD	00H
	DB	'.?AVioBuff@@', 00H
_DATA	ENDS
;	COMDAT ??_R1A@?0A@EA@ioBuff@@8
rdata$r	SEGMENT
??_R1A@?0A@EA@ioBuff@@8 DD FLAT:??_R0?AVioBuff@@@8	; ioBuff::`RTTI Base Class Descriptor at (0,-1,0,64)'
	DD	00H
	DD	00H
	DD	0ffffffffH
	DD	00H
	DD	040H
	DD	FLAT:??_R3ioBuff@@8
rdata$r	ENDS
;	COMDAT ??_R1A@?0A@EA@ioCreateDummyChar2Buff@@8
rdata$r	SEGMENT
??_R1A@?0A@EA@ioCreateDummyChar2Buff@@8 DD FLAT:??_R0?AVioCreateDummyChar2Buff@@@8 ; ioCreateDummyChar2Buff::`RTTI Base Class Descriptor at (0,-1,0,64)'
	DD	01H
	DD	00H
	DD	0ffffffffH
	DD	00H
	DD	040H
	DD	FLAT:??_R3ioCreateDummyChar2Buff@@8
rdata$r	ENDS
;	COMDAT ??_R2ioCreateDummyChar2Buff@@8
rdata$r	SEGMENT
??_R2ioCreateDummyChar2Buff@@8 DD FLAT:??_R1A@?0A@EA@ioCreateDummyChar2Buff@@8 ; ioCreateDummyChar2Buff::`RTTI Base Class Array'
	DD	FLAT:??_R1A@?0A@EA@ioBuff@@8
rdata$r	ENDS
;	COMDAT ??_R3ioCreateDummyChar2Buff@@8
rdata$r	SEGMENT
??_R3ioCreateDummyChar2Buff@@8 DD 00H			; ioCreateDummyChar2Buff::`RTTI Class Hierarchy Descriptor'
	DD	00H
	DD	02H
	DD	FLAT:??_R2ioCreateDummyChar2Buff@@8
rdata$r	ENDS
;	COMDAT ??_R0?AVioCreateDummyChar2Buff@@@8
_DATA	SEGMENT
??_R0?AVioCreateDummyChar2Buff@@@8 DD FLAT:??_7type_info@@6B@ ; ioCreateDummyChar2Buff `RTTI Type Descriptor'
	DD	00H
	DB	'.?AVioCreateDummyChar2Buff@@', 00H
_DATA	ENDS
;	COMDAT ??_R4ioCreateDummyChar2Buff@@6B@
rdata$r	SEGMENT
??_R4ioCreateDummyChar2Buff@@6B@ DD 00H			; ioCreateDummyChar2Buff::`RTTI Complete Object Locator'
	DD	00H
	DD	00H
	DD	FLAT:??_R0?AVioCreateDummyChar2Buff@@@8
	DD	FLAT:??_R3ioCreateDummyChar2Buff@@8
rdata$r	ENDS
;	COMDAT ??_7ioCreateDummyChar2Buff@@6B@
CONST	SEGMENT
??_7ioCreateDummyChar2Buff@@6B@ DD FLAT:??_R4ioCreateDummyChar2Buff@@6B@ ; ioCreateDummyChar2Buff::`vftable'
	DD	FLAT:?LoadProperty@ioCreateDummyChar2Buff@@UAEXAAVioINILoader@@@Z
	DD	FLAT:?Clone@ioCreateDummyChar2Buff@@UAEPAVioBuff@@XZ
	DD	FLAT:?StartBuff@ioCreateDummyChar2Buff@@UAEXPAVioBaseChar@@@Z
	DD	FLAT:?StartBuffWithAniTime@ioBuff@@UAEXPAVioBaseChar@@K@Z
	DD	FLAT:?ApplyStartBuff@ioCreateDummyChar2Buff@@UAE_NPAVioBaseChar@@KK@Z
	DD	FLAT:?ProcessBuff@ioCreateDummyChar2Buff@@UAEXM@Z
	DD	FLAT:?EndBuff@ioCreateDummyChar2Buff@@UAEXXZ
	DD	FLAT:?CancelBuff@ioBuff@@UAEXXZ
	DD	FLAT:?GetBuffInfo@ioCreateDummyChar2Buff@@UAEXAAVSP2Packet@@@Z
	DD	FLAT:?ApplyBuffInfo@ioCreateDummyChar2Buff@@UAEXAAVSP2Packet@@@Z
	DD	FLAT:?AccumulateBuff@ioBuff@@UAEXXZ
	DD	FLAT:?IsLiveButStopped@ioBuff@@UBE_NXZ
	DD	FLAT:?IsCanJumpAttack@ioBuff@@UBE_NXZ
	DD	FLAT:?SetAction@ioBuff@@MAEXXZ
	DD	FLAT:?ProcessDelay@ioBuff@@MAEXM@Z
	DD	FLAT:?SetExtraDurationByGrowth@ioBuff@@UAEXM@Z
	DD	FLAT:?SetWeaponIndex@ioBuff@@UAEXK@Z
	DD	FLAT:?OnReduceGauge@ioBuff@@UBE_NXZ
	DD	FLAT:?IsCharCollisionSkip@ioBuff@@UBE_NXZ
	DD	FLAT:?IsCollisionAvailableWeapon@ioBuff@@UBE_NXZ
	DD	FLAT:?IsProtected@ioBuff@@UBE_NXZ
	DD	FLAT:?UseActiveCount@ioBuff@@UBE_NXZ
	DD	FLAT:?CheckActiveCount@ioCreateDummyChar2Buff@@UAEXXZ
	DD	FLAT:?CheckRemoveEquipSkillBuff@ioBuff@@UAEX_N@Z
	DD	FLAT:?ApplyExtraBuffInfo@ioCreateDummyChar2Buff@@UAEXAAVSP2Packet@@@Z
	DD	FLAT:?SetBuffGrapplingState@ioBuff@@UAE_NPAVioBaseChar@@ABVioHashString@@@Z
	DD	FLAT:?GetGrapplingTargetPos@ioBuff@@UAE?AUD3DXVECTOR3@@PAVioBaseChar@@@Z
	DD	FLAT:?IsWaitSelfRemove@ioBuff@@UAE_NXZ
	DD	FLAT:??_EioCreateDummyChar2Buff@@UAEPAXI@Z
	DD	FLAT:?IsProtected@ioCreateDummyChar2Buff@@UAE_NXZ
CONST	ENDS
;	COMDAT xdata$x
xdata$x	SEGMENT
__unwindtable$??0ioCreateDummyChar2Buff@@QAE@XZ DD 0ffffffffH
	DD	FLAT:__unwindfunclet$??0ioCreateDummyChar2Buff@@QAE@XZ$0
	DD	00H
	DD	FLAT:__unwindfunclet$??0ioCreateDummyChar2Buff@@QAE@XZ$1
__ehfuncinfo$??0ioCreateDummyChar2Buff@@QAE@XZ DD 019930522H
	DD	02H
	DD	FLAT:__unwindtable$??0ioCreateDummyChar2Buff@@QAE@XZ
	DD	2 DUP(00H)
	DD	2 DUP(00H)
	DD	00H
	DD	01H
; Function compile flags: /Ogsp
; File d:\lost saga for developer\youtube\tutorial\source\src\lsclient\iocreatedummychar2buff.cpp
xdata$x	ENDS
;	COMDAT ??0ioCreateDummyChar2Buff@@QAE@XZ
_TEXT	SEGMENT
_this$ = -16						; size = 4
__$EHRec$ = -12						; size = 12
??0ioCreateDummyChar2Buff@@QAE@XZ PROC			; ioCreateDummyChar2Buff::ioCreateDummyChar2Buff, COMDAT
; _this$ = ecx

; 12   : {

  00000	6a 04		 push	 4
  00002	b8 00 00 00 00	 mov	 eax, __ehhandler$??0ioCreateDummyChar2Buff@@QAE@XZ
  00007	e8 00 00 00 00	 call	 __EH_prolog3
  0000c	8b f1		 mov	 esi, ecx
  0000e	89 75 f0	 mov	 DWORD PTR _this$[ebp], esi
  00011	e8 00 00 00 00	 call	 ??0ioBuff@@QAE@XZ	; ioBuff::ioBuff
  00016	33 ff		 xor	 edi, edi
  00018	8d 8e 74 09 00
	00		 lea	 ecx, DWORD PTR [esi+2420]
  0001e	89 7d fc	 mov	 DWORD PTR __$EHRec$[ebp+8], edi
  00021	c7 06 00 00 00
	00		 mov	 DWORD PTR [esi], OFFSET ??_7ioCreateDummyChar2Buff@@6B@
  00027	ff 15 00 00 00
	00		 call	 DWORD PTR __imp_??0ioHashString@@QAE@XZ
  0002d	8d 8e 84 09 00
	00		 lea	 ecx, DWORD PTR [esi+2436]
  00033	c6 45 fc 01	 mov	 BYTE PTR __$EHRec$[ebp+8], 1
  00037	e8 00 00 00 00	 call	 ??0?$CEncrypt@M@@QAE@XZ	; CEncrypt<float>::CEncrypt<float>
  0003c	89 be b4 09 00
	00		 mov	 DWORD PTR [esi+2484], edi
  00042	89 be b8 09 00
	00		 mov	 DWORD PTR [esi+2488], edi
  00048	89 be bc 09 00
	00		 mov	 DWORD PTR [esi+2492], edi
  0004e	89 be c4 09 00
	00		 mov	 DWORD PTR [esi+2500], edi
  00054	89 be c8 09 00
	00		 mov	 DWORD PTR [esi+2504], edi
  0005a	89 be cc 09 00
	00		 mov	 DWORD PTR [esi+2508], edi

; 13   : 	m_dwMotionEndTime     = 0;

  00060	89 be d4 09 00
	00		 mov	 DWORD PTR [esi+2516], edi

; 14   : 	m_dwFireMotionEndTime = 0;

  00066	89 be d8 09 00
	00		 mov	 DWORD PTR [esi+2520], edi

; 15   : 	m_dwCreateTime        = 0;

  0006c	89 be dc 09 00
	00		 mov	 DWORD PTR [esi+2524], edi

; 16   : 	m_iCurActiveCount     = 0;

  00072	89 be 2c 09 00
	00		 mov	 DWORD PTR [esi+2348], edi

; 17   : }

  00078	8b c6		 mov	 eax, esi
  0007a	e8 00 00 00 00	 call	 __EH_epilog3
  0007f	c3		 ret	 0
_TEXT	ENDS
;	COMDAT text$x
text$x	SEGMENT
__unwindfunclet$??0ioCreateDummyChar2Buff@@QAE@XZ$0:
  00000	8b 4d f0	 mov	 ecx, DWORD PTR _this$[ebp]
  00003	e9 00 00 00 00	 jmp	 ??1ioBuff@@UAE@XZ	; ioBuff::~ioBuff
__unwindfunclet$??0ioCreateDummyChar2Buff@@QAE@XZ$1:
  00008	8b 4d f0	 mov	 ecx, DWORD PTR _this$[ebp]
  0000b	81 c1 74 09 00
	00		 add	 ecx, 2420		; 00000974H
  00011	ff 25 00 00 00
	00		 jmp	 DWORD PTR __imp_??1ioHashString@@QAE@XZ
__ehhandler$??0ioCreateDummyChar2Buff@@QAE@XZ:
  00017	8b 54 24 08	 mov	 edx, DWORD PTR [esp+8]
  0001b	8d 42 0c	 lea	 eax, DWORD PTR [edx+12]
  0001e	8b 4a ec	 mov	 ecx, DWORD PTR [edx-20]
  00021	33 c8		 xor	 ecx, eax
  00023	e8 00 00 00 00	 call	 @__security_check_cookie@4
  00028	b8 00 00 00 00	 mov	 eax, OFFSET __ehfuncinfo$??0ioCreateDummyChar2Buff@@QAE@XZ
  0002d	e9 00 00 00 00	 jmp	 ___CxxFrameHandler3
text$x	ENDS
??0ioCreateDummyChar2Buff@@QAE@XZ ENDP			; ioCreateDummyChar2Buff::ioCreateDummyChar2Buff
; Function compile flags: /Ogsp
; File d:\lost saga for developer\youtube\tutorial\source\src\lsclient\iobuff.h
;	COMDAT ?IsWaitSelfRemove@ioBuff@@UAE_NXZ
_TEXT	SEGMENT
?IsWaitSelfRemove@ioBuff@@UAE_NXZ PROC			; ioBuff::IsWaitSelfRemove, COMDAT
; _this$ = ecx

; 519  : 	virtual bool IsWaitSelfRemove() { return m_bWaitSelfRemove; }

  00000	8a 81 65 09 00
	00		 mov	 al, BYTE PTR [ecx+2405]
  00006	c3		 ret	 0
?IsWaitSelfRemove@ioBuff@@UAE_NXZ ENDP			; ioBuff::IsWaitSelfRemove
_TEXT	ENDS
PUBLIC	??0ioCreateDummyChar2Buff@@QAE@ABV0@@Z		; ioCreateDummyChar2Buff::ioCreateDummyChar2Buff
EXTRN	??0ioBuff@@QAE@ABV0@@Z:PROC			; ioBuff::ioBuff
;	COMDAT xdata$x
; File d:\lost saga for developer\youtube\tutorial\source\src\lsclient\iocreatedummychar2buff.cpp
xdata$x	SEGMENT
__unwindtable$??0ioCreateDummyChar2Buff@@QAE@ABV0@@Z DD 0ffffffffH
	DD	FLAT:__unwindfunclet$??0ioCreateDummyChar2Buff@@QAE@ABV0@@Z$0
	DD	00H
	DD	FLAT:__unwindfunclet$??0ioCreateDummyChar2Buff@@QAE@ABV0@@Z$1
	DD	01H
	DD	FLAT:__unwindfunclet$??0ioCreateDummyChar2Buff@@QAE@ABV0@@Z$2
	DD	02H
	DD	FLAT:__unwindfunclet$??0ioCreateDummyChar2Buff@@QAE@ABV0@@Z$3
__ehfuncinfo$??0ioCreateDummyChar2Buff@@QAE@ABV0@@Z DD 019930522H
	DD	04H
	DD	FLAT:__unwindtable$??0ioCreateDummyChar2Buff@@QAE@ABV0@@Z
	DD	2 DUP(00H)
	DD	2 DUP(00H)
	DD	00H
	DD	01H
; Function compile flags: /Ogsp
xdata$x	ENDS
;	COMDAT ??0ioCreateDummyChar2Buff@@QAE@ABV0@@Z
_TEXT	SEGMENT
_this$ = -16						; size = 4
__$EHRec$ = -12						; size = 12
_rhs$ = 8						; size = 4
??0ioCreateDummyChar2Buff@@QAE@ABV0@@Z PROC		; ioCreateDummyChar2Buff::ioCreateDummyChar2Buff, COMDAT
; _this$ = ecx

; 27   : {

  00000	6a 04		 push	 4
  00002	b8 00 00 00 00	 mov	 eax, __ehhandler$??0ioCreateDummyChar2Buff@@QAE@ABV0@@Z
  00007	e8 00 00 00 00	 call	 __EH_prolog3
  0000c	8b f1		 mov	 esi, ecx
  0000e	89 75 f0	 mov	 DWORD PTR _this$[ebp], esi
  00011	8b 7d 08	 mov	 edi, DWORD PTR _rhs$[ebp]
  00014	57		 push	 edi
  00015	e8 00 00 00 00	 call	 ??0ioBuff@@QAE@ABV0@@Z	; ioBuff::ioBuff
  0001a	c7 06 00 00 00
	00		 mov	 DWORD PTR [esi], OFFSET ??_7ioCreateDummyChar2Buff@@6B@
  00020	8a 87 70 09 00
	00		 mov	 al, BYTE PTR [edi+2416]
  00026	88 86 70 09 00
	00		 mov	 BYTE PTR [esi+2416], al
  0002c	8a 87 71 09 00
	00		 mov	 al, BYTE PTR [edi+2417]
  00032	88 86 71 09 00
	00		 mov	 BYTE PTR [esi+2417], al
  00038	8d 87 74 09 00
	00		 lea	 eax, DWORD PTR [edi+2420]
  0003e	33 db		 xor	 ebx, ebx
  00040	50		 push	 eax
  00041	8d 8e 74 09 00
	00		 lea	 ecx, DWORD PTR [esi+2420]
  00047	89 5d fc	 mov	 DWORD PTR __$EHRec$[ebp+8], ebx
  0004a	ff 15 00 00 00
	00		 call	 DWORD PTR __imp_??0ioHashString@@QAE@ABV0@@Z
  00050	8d 87 84 09 00
	00		 lea	 eax, DWORD PTR [edi+2436]
  00056	50		 push	 eax
  00057	8d 8e 84 09 00
	00		 lea	 ecx, DWORD PTR [esi+2436]
  0005d	c6 45 fc 01	 mov	 BYTE PTR __$EHRec$[ebp+8], 1
  00061	e8 00 00 00 00	 call	 ??0?$CEncrypt@M@@QAE@ABV0@@Z ; CEncrypt<float>::CEncrypt<float>
  00066	8d 87 b4 09 00
	00		 lea	 eax, DWORD PTR [edi+2484]
  0006c	50		 push	 eax
  0006d	8d 8e b4 09 00
	00		 lea	 ecx, DWORD PTR [esi+2484]
  00073	c6 45 fc 02	 mov	 BYTE PTR __$EHRec$[ebp+8], 2
  00077	e8 00 00 00 00	 call	 ??0?$vector@UtagDummyCharLoadInfo@@V?$allocator@UtagDummyCharLoadInfo@@@std@@@std@@QAE@ABV01@@Z ; std::vector<tagDummyCharLoadInfo,std::allocator<tagDummyCharLoadInfo> >::vector<tagDummyCharLoadInfo,std::allocator<tagDummyCharLoadInfo> >
  0007c	81 c7 c4 09 00
	00		 add	 edi, 2500		; 000009c4H
  00082	57		 push	 edi
  00083	8d 8e c4 09 00
	00		 lea	 ecx, DWORD PTR [esi+2500]
  00089	c6 45 fc 03	 mov	 BYTE PTR __$EHRec$[ebp+8], 3
  0008d	e8 00 00 00 00	 call	 ??0?$vector@VioHashString@@V?$allocator@VioHashString@@@std@@@std@@QAE@ABV01@@Z ; std::vector<ioHashString,std::allocator<ioHashString> >::vector<ioHashString,std::allocator<ioHashString> >

; 28   : 	m_dwMotionEndTime     = 0;

  00092	89 9e d4 09 00
	00		 mov	 DWORD PTR [esi+2516], ebx

; 29   : 	m_dwFireMotionEndTime = 0;

  00098	89 9e d8 09 00
	00		 mov	 DWORD PTR [esi+2520], ebx

; 30   : 	m_dwCreateTime        = 0;

  0009e	89 9e dc 09 00
	00		 mov	 DWORD PTR [esi+2524], ebx

; 31   : 	m_iCurActiveCount     = 0;

  000a4	89 9e 2c 09 00
	00		 mov	 DWORD PTR [esi+2348], ebx

; 32   : }

  000aa	8b c6		 mov	 eax, esi
  000ac	e8 00 00 00 00	 call	 __EH_epilog3
  000b1	c2 04 00	 ret	 4
_TEXT	ENDS
;	COMDAT text$x
text$x	SEGMENT
__unwindfunclet$??0ioCreateDummyChar2Buff@@QAE@ABV0@@Z$0:
  00000	8b 4d f0	 mov	 ecx, DWORD PTR _this$[ebp]
  00003	e9 00 00 00 00	 jmp	 ??1ioBuff@@UAE@XZ	; ioBuff::~ioBuff
__unwindfunclet$??0ioCreateDummyChar2Buff@@QAE@ABV0@@Z$1:
  00008	8b 4d f0	 mov	 ecx, DWORD PTR _this$[ebp]
  0000b	81 c1 74 09 00
	00		 add	 ecx, 2420		; 00000974H
  00011	ff 25 00 00 00
	00		 jmp	 DWORD PTR __imp_??1ioHashString@@QAE@XZ
__unwindfunclet$??0ioCreateDummyChar2Buff@@QAE@ABV0@@Z$2:
  00017	8b 4d f0	 mov	 ecx, DWORD PTR _this$[ebp]
  0001a	81 c1 84 09 00
	00		 add	 ecx, 2436		; 00000984H
  00020	e9 00 00 00 00	 jmp	 ??1?$CEncrypt@M@@UAE@XZ	; CEncrypt<float>::~CEncrypt<float>
__unwindfunclet$??0ioCreateDummyChar2Buff@@QAE@ABV0@@Z$3:
  00025	8b 4d f0	 mov	 ecx, DWORD PTR _this$[ebp]
  00028	81 c1 b4 09 00
	00		 add	 ecx, 2484		; 000009b4H
  0002e	e9 00 00 00 00	 jmp	 ??1?$vector@UtagDummyCharLoadInfo@@V?$allocator@UtagDummyCharLoadInfo@@@std@@@std@@QAE@XZ ; std::vector<tagDummyCharLoadInfo,std::allocator<tagDummyCharLoadInfo> >::~vector<tagDummyCharLoadInfo,std::allocator<tagDummyCharLoadInfo> >
__ehhandler$??0ioCreateDummyChar2Buff@@QAE@ABV0@@Z:
  00033	8b 54 24 08	 mov	 edx, DWORD PTR [esp+8]
  00037	8d 42 0c	 lea	 eax, DWORD PTR [edx+12]
  0003a	8b 4a ec	 mov	 ecx, DWORD PTR [edx-20]
  0003d	33 c8		 xor	 ecx, eax
  0003f	e8 00 00 00 00	 call	 @__security_check_cookie@4
  00044	b8 00 00 00 00	 mov	 eax, OFFSET __ehfuncinfo$??0ioCreateDummyChar2Buff@@QAE@ABV0@@Z
  00049	e9 00 00 00 00	 jmp	 ___CxxFrameHandler3
text$x	ENDS
??0ioCreateDummyChar2Buff@@QAE@ABV0@@Z ENDP		; ioCreateDummyChar2Buff::ioCreateDummyChar2Buff
PUBLIC	??1ioCreateDummyChar2Buff@@UAE@XZ		; ioCreateDummyChar2Buff::~ioCreateDummyChar2Buff
;	COMDAT xdata$x
; File d:\lost saga for developer\youtube\tutorial\source\src\lsclient\encryptvalue.h
xdata$x	SEGMENT
__unwindtable$??1ioCreateDummyChar2Buff@@UAE@XZ DD 0ffffffffH
	DD	FLAT:__unwindfunclet$??1ioCreateDummyChar2Buff@@UAE@XZ$0
	DD	00H
	DD	FLAT:__unwindfunclet$??1ioCreateDummyChar2Buff@@UAE@XZ$1
	DD	01H
	DD	FLAT:__unwindfunclet$??1ioCreateDummyChar2Buff@@UAE@XZ$2
	DD	02H
	DD	FLAT:__unwindfunclet$??1ioCreateDummyChar2Buff@@UAE@XZ$3
__ehfuncinfo$??1ioCreateDummyChar2Buff@@UAE@XZ DD 019930522H
	DD	04H
	DD	FLAT:__unwindtable$??1ioCreateDummyChar2Buff@@UAE@XZ
	DD	2 DUP(00H)
	DD	2 DUP(00H)
	DD	00H
	DD	01H
; Function compile flags: /Ogsp
; File d:\lost saga for developer\youtube\tutorial\source\src\lsclient\iocreatedummychar2buff.cpp
xdata$x	ENDS
;	COMDAT ??1ioCreateDummyChar2Buff@@UAE@XZ
_TEXT	SEGMENT
_this$ = -16						; size = 4
__$EHRec$ = -12						; size = 12
??1ioCreateDummyChar2Buff@@UAE@XZ PROC			; ioCreateDummyChar2Buff::~ioCreateDummyChar2Buff, COMDAT
; _this$ = ecx

; 35   : {

  00000	6a 04		 push	 4
  00002	b8 00 00 00 00	 mov	 eax, __ehhandler$??1ioCreateDummyChar2Buff@@UAE@XZ
  00007	e8 00 00 00 00	 call	 __EH_prolog3
  0000c	8b f1		 mov	 esi, ecx
  0000e	89 75 f0	 mov	 DWORD PTR _this$[ebp], esi
  00011	c7 06 00 00 00
	00		 mov	 DWORD PTR [esi], OFFSET ??_7ioCreateDummyChar2Buff@@6B@

; 36   : }

  00017	8d 8e c4 09 00
	00		 lea	 ecx, DWORD PTR [esi+2500]
  0001d	c7 45 fc 03 00
	00 00		 mov	 DWORD PTR __$EHRec$[ebp+8], 3
  00024	e8 00 00 00 00	 call	 ?_Tidy@?$vector@VioHashString@@V?$allocator@VioHashString@@@std@@@std@@IAEXXZ ; std::vector<ioHashString,std::allocator<ioHashString> >::_Tidy
  00029	8d 8e b4 09 00
	00		 lea	 ecx, DWORD PTR [esi+2484]
  0002f	c6 45 fc 02	 mov	 BYTE PTR __$EHRec$[ebp+8], 2
  00033	e8 00 00 00 00	 call	 ?_Tidy@?$vector@UtagDummyCharLoadInfo@@V?$allocator@UtagDummyCharLoadInfo@@@std@@@std@@IAEXXZ ; std::vector<tagDummyCharLoadInfo,std::allocator<tagDummyCharLoadInfo> >::_Tidy
  00038	8d 8e 90 09 00
	00		 lea	 ecx, DWORD PTR [esi+2448]
  0003e	c6 45 fc 01	 mov	 BYTE PTR __$EHRec$[ebp+8], 1
  00042	c7 86 84 09 00
	00 00 00 00 00	 mov	 DWORD PTR [esi+2436], OFFSET ??_7?$CEncrypt@M@@6B@
  0004c	e8 00 00 00 00	 call	 ??1ccddaabb@@UAE@XZ	; ccddaabb::~ccddaabb
  00051	8d 8e 74 09 00
	00		 lea	 ecx, DWORD PTR [esi+2420]
  00057	c6 45 fc 00	 mov	 BYTE PTR __$EHRec$[ebp+8], 0
  0005b	ff 15 00 00 00
	00		 call	 DWORD PTR __imp_??1ioHashString@@QAE@XZ
  00061	83 4d fc ff	 or	 DWORD PTR __$EHRec$[ebp+8], -1
  00065	8b ce		 mov	 ecx, esi
  00067	e8 00 00 00 00	 call	 ??1ioBuff@@UAE@XZ	; ioBuff::~ioBuff
  0006c	e8 00 00 00 00	 call	 __EH_epilog3
  00071	c3		 ret	 0
_TEXT	ENDS
;	COMDAT text$x
text$x	SEGMENT
__unwindfunclet$??1ioCreateDummyChar2Buff@@UAE@XZ$0:
  00000	8b 4d f0	 mov	 ecx, DWORD PTR _this$[ebp]
  00003	e9 00 00 00 00	 jmp	 ??1ioBuff@@UAE@XZ	; ioBuff::~ioBuff
__unwindfunclet$??1ioCreateDummyChar2Buff@@UAE@XZ$1:
  00008	8b 4d f0	 mov	 ecx, DWORD PTR _this$[ebp]
  0000b	81 c1 74 09 00
	00		 add	 ecx, 2420		; 00000974H
  00011	ff 25 00 00 00
	00		 jmp	 DWORD PTR __imp_??1ioHashString@@QAE@XZ
__unwindfunclet$??1ioCreateDummyChar2Buff@@UAE@XZ$2:
  00017	8b 4d f0	 mov	 ecx, DWORD PTR _this$[ebp]
  0001a	81 c1 84 09 00
	00		 add	 ecx, 2436		; 00000984H
  00020	e9 00 00 00 00	 jmp	 ??1?$CEncrypt@M@@UAE@XZ	; CEncrypt<float>::~CEncrypt<float>
__unwindfunclet$??1ioCreateDummyChar2Buff@@UAE@XZ$3:
  00025	8b 4d f0	 mov	 ecx, DWORD PTR _this$[ebp]
  00028	81 c1 b4 09 00
	00		 add	 ecx, 2484		; 000009b4H
  0002e	e9 00 00 00 00	 jmp	 ??1?$vector@UtagDummyCharLoadInfo@@V?$allocator@UtagDummyCharLoadInfo@@@std@@@std@@QAE@XZ ; std::vector<tagDummyCharLoadInfo,std::allocator<tagDummyCharLoadInfo> >::~vector<tagDummyCharLoadInfo,std::allocator<tagDummyCharLoadInfo> >
__ehhandler$??1ioCreateDummyChar2Buff@@UAE@XZ:
  00033	8b 54 24 08	 mov	 edx, DWORD PTR [esp+8]
  00037	8d 42 0c	 lea	 eax, DWORD PTR [edx+12]
  0003a	8b 4a ec	 mov	 ecx, DWORD PTR [edx-20]
  0003d	33 c8		 xor	 ecx, eax
  0003f	e8 00 00 00 00	 call	 @__security_check_cookie@4
  00044	b8 00 00 00 00	 mov	 eax, OFFSET __ehfuncinfo$??1ioCreateDummyChar2Buff@@UAE@XZ
  00049	e9 00 00 00 00	 jmp	 ___CxxFrameHandler3
text$x	ENDS
??1ioCreateDummyChar2Buff@@UAE@XZ ENDP			; ioCreateDummyChar2Buff::~ioCreateDummyChar2Buff
PUBLIC	??_C@_00CNPNBAHC@?$AA@				; `string'
PUBLIC	__$ArrayPad$
EXTRN	?LoadDummyCharCreateDestroyInfo@Help@@YAXAAVioINILoader@@AAV?$vector@UtagDummyCharLoadInfo@@V?$allocator@UtagDummyCharLoadInfo@@@std@@@std@@AAV?$vector@VioHashString@@V?$allocator@VioHashString@@@std@@@4@@Z:PROC ; Help::LoadDummyCharCreateDestroyInfo
EXTRN	__imp_??4ioHashString@@QAEAAV0@PBD@Z:PROC
EXTRN	?LoadProperty@ioBuff@@UAEXAAVioINILoader@@@Z:PROC ; ioBuff::LoadProperty
;	COMDAT ??_C@_00CNPNBAHC@?$AA@
; File c:\program files (x86)\microsoft visual studio 10.0\vc\include\xutility
CONST	SEGMENT
??_C@_00CNPNBAHC@?$AA@ DB 00H				; `string'
; Function compile flags: /Ogsp
; File d:\lost saga for developer\youtube\tutorial\source\src\lsclient\iocreatedummychar2buff.cpp
CONST	ENDS
;	COMDAT ?LoadProperty@ioCreateDummyChar2Buff@@UAEXAAVioINILoader@@@Z
_TEXT	SEGMENT
tv3996 = -296						; size = 4
$T538614 = -296						; size = 4
$T538534 = -296						; size = 4
_value$538469 = -296					; size = 4
_szBuf$ = -292						; size = 260
__k$538103 = -32					; size = 22
__k$537978 = -32					; size = 19
__k$538357 = -28					; size = 16
__k$538228 = -28					; size = 17
__$ArrayPad$ = -4					; size = 4
_rkLoader$ = 8						; size = 4
?LoadProperty@ioCreateDummyChar2Buff@@UAEXAAVioINILoader@@@Z PROC ; ioCreateDummyChar2Buff::LoadProperty, COMDAT
; _this$ = ecx

; 39   : {

  00000	55		 push	 ebp
  00001	8b ec		 mov	 ebp, esp
  00003	81 ec 28 01 00
	00		 sub	 esp, 296		; 00000128H
  00009	a1 00 00 00 00	 mov	 eax, DWORD PTR ___security_cookie
  0000e	33 c5		 xor	 eax, ebp
  00010	89 45 fc	 mov	 DWORD PTR __$ArrayPad$[ebp], eax
  00013	53		 push	 ebx
  00014	8b 5d 08	 mov	 ebx, DWORD PTR _rkLoader$[ebp]
  00017	56		 push	 esi
  00018	57		 push	 edi

; 40   : 	ioBuff::LoadProperty( rkLoader );

  00019	53		 push	 ebx
  0001a	8b f1		 mov	 esi, ecx
  0001c	e8 00 00 00 00	 call	 ?LoadProperty@ioBuff@@UAEXAAVioINILoader@@@Z ; ioBuff::LoadProperty

; 41   : 
; 42   : 	m_bDisableDownState  = rkLoader.LoadBool_e( "disable_down_state", false );

  00021	6a 04		 push	 4
  00023	c7 45 e0 89 85
	98 8b		 mov	 DWORD PTR __k$537978[ebp], -1952938615 ; 8b988589H
  0002a	c7 45 e4 8f 80
	8e b5		 mov	 DWORD PTR __k$537978[ebp+4], -1248952177 ; b58e808fH
  00031	c7 45 e8 89 83
	9c 84		 mov	 DWORD PTR __k$537978[ebp+8], -2070117495 ; 849c8389H
  00038	c7 45 ec b2 9f
	9f 8b		 mov	 DWORD PTR __k$537978[ebp+12], -1952473166 ; 8b9f9fb2H
  0003f	66 c7 45 f0 99
	89		 mov	 WORD PTR __k$537978[ebp+16], 35225 ; 00008999H
  00045	8d 45 e0	 lea	 eax, DWORD PTR __k$537978[ebp]
  00048	c6 45 f2 00	 mov	 BYTE PTR __k$537978[ebp+18], 0
  0004c	59		 pop	 ecx
$LL106@LoadProper:
  0004d	81 30 ed ec eb
	ea		 xor	 DWORD PTR [eax], -353637139 ; eaebecedH
  00053	83 c0 04	 add	 eax, 4
  00056	49		 dec	 ecx
  00057	75 f4		 jne	 SHORT $LL106@LoadProper
  00059	6a 10		 push	 16			; 00000010H
  0005b	5f		 pop	 edi
$LL103@LoadProper:
  0005c	8b c7		 mov	 eax, edi
  0005e	25 03 00 00 80	 and	 eax, -2147483645	; 80000003H
  00063	79 05		 jns	 SHORT $LN483@LoadProper
  00065	48		 dec	 eax
  00066	83 c8 fc	 or	 eax, -4			; fffffffcH
  00069	40		 inc	 eax
$LN483@LoadProper:
  0006a	b1 ed		 mov	 cl, -19			; ffffffedH
  0006c	2a c8		 sub	 cl, al
  0006e	30 4c 3d e0	 xor	 BYTE PTR __k$537978[ebp+edi], cl
  00072	47		 inc	 edi
  00073	83 ff 12	 cmp	 edi, 18			; 00000012H
  00076	7c e4		 jl	 SHORT $LL103@LoadProper
  00078	8b 3d 00 00 00
	00		 mov	 edi, DWORD PTR __imp_?LoadBool@ioINILoader@@QAE_NPBD_N@Z
  0007e	6a 00		 push	 0
  00080	8d 45 e0	 lea	 eax, DWORD PTR __k$537978[ebp]
  00083	50		 push	 eax
  00084	8b cb		 mov	 ecx, ebx
  00086	ff d7		 call	 edi
  00088	6a 05		 push	 5
  0008a	88 86 70 09 00
	00		 mov	 BYTE PTR [esi+2416], al

; 43   : 	m_bUseWeaponEquipMesh = rkLoader.LoadBool_e( "use_weapon_equip_mesh", false );

  00090	c7 45 e0 98 9f
	8e b5		 mov	 DWORD PTR __k$538103[ebp], -1248944232 ; b58e9f98H
  00097	c7 45 e4 9a 89
	8a 9a		 mov	 DWORD PTR __k$538103[ebp+4], -1702196838 ; 9a8a899aH
  0009e	c7 45 e8 82 82
	b4 8f		 mov	 DWORD PTR __k$538103[ebp+8], -1883995518 ; 8fb48282H
  000a5	c7 45 ec 9c 99
	82 9a		 mov	 DWORD PTR __k$538103[ebp+12], -1702717028 ; 9a82999cH
  000ac	c7 45 f0 b2 81
	8e 99		 mov	 DWORD PTR __k$538103[ebp+16], -1718713934 ; 998e81b2H
  000b3	8d 45 e0	 lea	 eax, DWORD PTR __k$538103[ebp]
  000b6	66 c7 45 f4 85
	00		 mov	 WORD PTR __k$538103[ebp+20], 133 ; 00000085H
  000bc	59		 pop	 ecx
$LL212@LoadProper:
  000bd	81 30 ed ec eb
	ea		 xor	 DWORD PTR [eax], -353637139 ; eaebecedH
  000c3	83 c0 04	 add	 eax, 4
  000c6	49		 dec	 ecx
  000c7	75 f4		 jne	 SHORT $LL212@LoadProper
  000c9	80 75 f4 ed	 xor	 BYTE PTR __k$538103[ebp+20], -19 ; ffffffedH
  000cd	51		 push	 ecx
  000ce	8d 45 e0	 lea	 eax, DWORD PTR __k$538103[ebp]
  000d1	50		 push	 eax
  000d2	8b cb		 mov	 ecx, ebx
  000d4	ff d7		 call	 edi
  000d6	6a 04		 push	 4
  000d8	88 86 71 09 00
	00		 mov	 BYTE PTR [esi+2417], al

; 44   : 
; 45   : 	char szBuf[MAX_PATH];
; 46   : 	rkLoader.LoadString_e( "action_animation", "", szBuf, MAX_PATH );

  000de	c7 45 e4 8c 8f
	9f 83		 mov	 DWORD PTR __k$538228[ebp], -2086695028 ; 839f8f8cH
  000e5	c7 45 e8 82 82
	b4 8b		 mov	 DWORD PTR __k$538228[ebp+4], -1951104382 ; 8bb48282H
  000ec	c7 45 ec 83 85
	86 8b		 mov	 DWORD PTR __k$538228[ebp+8], -1954118269 ; 8b868583H
  000f3	c7 45 f0 99 85
	84 84		 mov	 DWORD PTR __k$538228[ebp+12], -2071689831 ; 84848599H
  000fa	8d 45 e4	 lea	 eax, DWORD PTR __k$538228[ebp]
  000fd	c6 45 f4 00	 mov	 BYTE PTR __k$538228[ebp+16], 0
  00101	59		 pop	 ecx
$LL318@LoadProper:
  00102	81 30 ed ec eb
	ea		 xor	 DWORD PTR [eax], -353637139 ; eaebecedH
  00108	83 c0 04	 add	 eax, 4
  0010b	49		 dec	 ecx
  0010c	75 f4		 jne	 SHORT $LL318@LoadProper
  0010e	68 04 01 00 00	 push	 260			; 00000104H
  00113	8d 85 dc fe ff
	ff		 lea	 eax, DWORD PTR _szBuf$[ebp]
  00119	50		 push	 eax
  0011a	68 00 00 00 00	 push	 OFFSET ??_C@_00CNPNBAHC@?$AA@
  0011f	8d 45 e4	 lea	 eax, DWORD PTR __k$538228[ebp]
  00122	50		 push	 eax
  00123	8b cb		 mov	 ecx, ebx
  00125	ff 15 00 00 00
	00		 call	 DWORD PTR __imp_?LoadStringA@ioINILoader@@QAEXPBD0PADH@Z

; 47   : 	m_szActionAnimation = szBuf;

  0012b	8d 85 dc fe ff
	ff		 lea	 eax, DWORD PTR _szBuf$[ebp]
  00131	50		 push	 eax
  00132	8d 8e 74 09 00
	00		 lea	 ecx, DWORD PTR [esi+2420]
  00138	ff 15 00 00 00
	00		 call	 DWORD PTR __imp_??4ioHashString@@QAEAAV0@PBD@Z

; 48   : 	m_fActionAniRate = rkLoader.LoadFloat_e( "action_ani_rate", FLOAT1 );

  0013e	b8 01 00 00 00	 mov	 eax, 1
  00143	6a 03		 push	 3
  00145	c7 45 e4 8c 8f
	9f 83		 mov	 DWORD PTR __k$538357[ebp], -2086695028 ; 839f8f8cH
  0014c	c7 45 e8 82 82
	b4 8b		 mov	 DWORD PTR __k$538357[ebp+4], -1951104382 ; 8bb48282H
  00153	c7 45 ec 83 85
	b4 98		 mov	 DWORD PTR __k$538357[ebp+8], -1732999805 ; 98b48583H
  0015a	8d 4d e4	 lea	 ecx, DWORD PTR __k$538357[ebp]
  0015d	c7 45 f0 8c 98
	8e 00		 mov	 DWORD PTR __k$538357[ebp+12], 9345164 ; 008e988cH
  00164	5a		 pop	 edx
$LL426@LoadProper:
  00165	81 31 ed ec eb
	ea		 xor	 DWORD PTR [ecx], -353637139 ; eaebecedH
  0016b	83 c1 04	 add	 ecx, 4
  0016e	4a		 dec	 edx
  0016f	75 f4		 jne	 SHORT $LL426@LoadProper
  00171	6a 0c		 push	 12			; 0000000cH
  00173	5f		 pop	 edi
$LL423@LoadProper:
  00174	8b cf		 mov	 ecx, edi
  00176	81 e1 03 00 00
	80		 and	 ecx, -2147483645	; 80000003H
  0017c	79 05		 jns	 SHORT $LN484@LoadProper
  0017e	49		 dec	 ecx
  0017f	83 c9 fc	 or	 ecx, -4			; fffffffcH
  00182	41		 inc	 ecx
$LN484@LoadProper:
  00183	b2 ed		 mov	 dl, -19			; ffffffedH
  00185	2a d1		 sub	 dl, cl
  00187	30 54 3d e4	 xor	 BYTE PTR __k$538357[ebp+edi], dl
  0018b	47		 inc	 edi
  0018c	83 ff 0f	 cmp	 edi, 15			; 0000000fH
  0018f	7c e3		 jl	 SHORT $LL423@LoadProper
  00191	89 85 d8 fe ff
	ff		 mov	 DWORD PTR tv3996[ebp], eax
  00197	db 85 d8 fe ff
	ff		 fild	 DWORD PTR tv3996[ebp]
  0019d	85 c0		 test	 eax, eax
  0019f	79 06		 jns	 SHORT $LN485@LoadProper
  001a1	d8 05 00 00 00
	00		 fadd	 DWORD PTR __real@4f800000
$LN485@LoadProper:
  001a7	51		 push	 ecx
  001a8	8d 45 e4	 lea	 eax, DWORD PTR __k$538357[ebp]
  001ab	d9 1c 24	 fstp	 DWORD PTR [esp]
  001ae	50		 push	 eax
  001af	8b cb		 mov	 ecx, ebx
  001b1	ff 15 00 00 00
	00		 call	 DWORD PTR __imp_?LoadFloat@ioINILoader@@QAEMPBDM@Z
  001b7	d9 9d d8 fe ff
	ff		 fstp	 DWORD PTR _value$538469[ebp]
  001bd	8d 85 d8 fe ff
	ff		 lea	 eax, DWORD PTR _value$538469[ebp]
  001c3	50		 push	 eax
  001c4	8d 8e 84 09 00
	00		 lea	 ecx, DWORD PTR [esi+2436]
  001ca	e8 00 00 00 00	 call	 ?EncryptValueToPool@?$CEncrypt@M@@AAEXPBD@Z ; CEncrypt<float>::EncryptValueToPool

; 49   : 
; 50   : 	//
; 51   : 	m_DummyCharList.clear();

  001cf	8d be b4 09 00
	00		 lea	 edi, DWORD PTR [esi+2484]
  001d5	8b 47 04	 mov	 eax, DWORD PTR [edi+4]
  001d8	8b 0f		 mov	 ecx, DWORD PTR [edi]
  001da	50		 push	 eax
  001db	51		 push	 ecx
  001dc	8d 85 d8 fe ff
	ff		 lea	 eax, DWORD PTR $T538534[ebp]
  001e2	50		 push	 eax
  001e3	8b cf		 mov	 ecx, edi
  001e5	e8 00 00 00 00	 call	 ?erase@?$vector@UtagDummyCharLoadInfo@@V?$allocator@UtagDummyCharLoadInfo@@@std@@@std@@QAE?AV?$_Vector_iterator@V?$_Vector_val@UtagDummyCharLoadInfo@@V?$allocator@UtagDummyCharLoadInfo@@@std@@@std@@@2@V?$_Vector_const_iterator@V?$_Vector_val@UtagDummyCharLoadInfo@@V?$allocator@UtagDummyCharLoadInfo@@@std@@@std@@@2@0@Z ; std::vector<tagDummyCharLoadInfo,std::allocator<tagDummyCharLoadInfo> >::erase

; 52   : 	m_vDestroyDummyCharList.clear();

  001ea	8b 86 c8 09 00
	00		 mov	 eax, DWORD PTR [esi+2504]
  001f0	81 c6 c4 09 00
	00		 add	 esi, 2500		; 000009c4H
  001f6	8b 0e		 mov	 ecx, DWORD PTR [esi]
  001f8	50		 push	 eax
  001f9	51		 push	 ecx
  001fa	8d 85 d8 fe ff
	ff		 lea	 eax, DWORD PTR $T538614[ebp]
  00200	50		 push	 eax
  00201	8b ce		 mov	 ecx, esi
  00203	e8 00 00 00 00	 call	 ?erase@?$vector@VioHashString@@V?$allocator@VioHashString@@@std@@@std@@QAE?AV?$_Vector_iterator@V?$_Vector_val@VioHashString@@V?$allocator@VioHashString@@@std@@@std@@@2@V?$_Vector_const_iterator@V?$_Vector_val@VioHashString@@V?$allocator@VioHashString@@@std@@@std@@@2@0@Z ; std::vector<ioHashString,std::allocator<ioHashString> >::erase

; 53   : 
; 54   : 	Help::LoadDummyCharCreateDestroyInfo( rkLoader, m_DummyCharList, m_vDestroyDummyCharList );

  00208	56		 push	 esi
  00209	57		 push	 edi
  0020a	53		 push	 ebx
  0020b	e8 00 00 00 00	 call	 ?LoadDummyCharCreateDestroyInfo@Help@@YAXAAVioINILoader@@AAV?$vector@UtagDummyCharLoadInfo@@V?$allocator@UtagDummyCharLoadInfo@@@std@@@std@@AAV?$vector@VioHashString@@V?$allocator@VioHashString@@@std@@@4@@Z ; Help::LoadDummyCharCreateDestroyInfo

; 55   : }

  00210	8b 4d fc	 mov	 ecx, DWORD PTR __$ArrayPad$[ebp]
  00213	83 c4 0c	 add	 esp, 12			; 0000000cH
  00216	5f		 pop	 edi
  00217	5e		 pop	 esi
  00218	33 cd		 xor	 ecx, ebp
  0021a	5b		 pop	 ebx
  0021b	e8 00 00 00 00	 call	 @__security_check_cookie@4
  00220	c9		 leave
  00221	c2 04 00	 ret	 4
?LoadProperty@ioCreateDummyChar2Buff@@UAEXAAVioINILoader@@@Z ENDP ; ioCreateDummyChar2Buff::LoadProperty
_TEXT	ENDS
;	COMDAT xdata$x
xdata$x	SEGMENT
__unwindtable$?Clone@ioCreateDummyChar2Buff@@UAEPAVioBuff@@XZ DD 0ffffffffH
	DD	FLAT:__unwindfunclet$?Clone@ioCreateDummyChar2Buff@@UAEPAVioBuff@@XZ$0
__ehfuncinfo$?Clone@ioCreateDummyChar2Buff@@UAEPAVioBuff@@XZ DD 019930522H
	DD	01H
	DD	FLAT:__unwindtable$?Clone@ioCreateDummyChar2Buff@@UAEPAVioBuff@@XZ
	DD	2 DUP(00H)
	DD	2 DUP(00H)
	DD	00H
	DD	01H
; Function compile flags: /Ogsp
xdata$x	ENDS
;	COMDAT ?Clone@ioCreateDummyChar2Buff@@UAEPAVioBuff@@XZ
_TEXT	SEGMENT
$T538656 = -16						; size = 4
__$EHRec$ = -12						; size = 12
?Clone@ioCreateDummyChar2Buff@@UAEPAVioBuff@@XZ PROC	; ioCreateDummyChar2Buff::Clone, COMDAT
; _this$ = ecx

; 58   : {

  00000	6a 04		 push	 4
  00002	b8 00 00 00 00	 mov	 eax, __ehhandler$?Clone@ioCreateDummyChar2Buff@@UAEPAVioBuff@@XZ
  00007	e8 00 00 00 00	 call	 __EH_prolog3
  0000c	8b f1		 mov	 esi, ecx

; 59   : 	return new ioCreateDummyChar2Buff( *this );

  0000e	68 e0 09 00 00	 push	 2528			; 000009e0H
  00013	e8 00 00 00 00	 call	 ??2@YAPAXI@Z		; operator new
  00018	59		 pop	 ecx
  00019	8b c8		 mov	 ecx, eax
  0001b	89 4d f0	 mov	 DWORD PTR $T538656[ebp], ecx
  0001e	33 c0		 xor	 eax, eax
  00020	89 45 fc	 mov	 DWORD PTR __$EHRec$[ebp+8], eax
  00023	3b c8		 cmp	 ecx, eax
  00025	74 06		 je	 SHORT $LN3@Clone
  00027	56		 push	 esi
  00028	e8 00 00 00 00	 call	 ??0ioCreateDummyChar2Buff@@QAE@ABV0@@Z ; ioCreateDummyChar2Buff::ioCreateDummyChar2Buff
$LN3@Clone:

; 60   : }

  0002d	e8 00 00 00 00	 call	 __EH_epilog3
  00032	c3		 ret	 0
_TEXT	ENDS
;	COMDAT text$x
text$x	SEGMENT
__unwindfunclet$?Clone@ioCreateDummyChar2Buff@@UAEPAVioBuff@@XZ$0:
  00000	ff 75 f0	 push	 DWORD PTR $T538656[ebp]
  00003	e8 00 00 00 00	 call	 ??3@YAXPAX@Z		; operator delete
  00008	59		 pop	 ecx
  00009	c3		 ret	 0
__ehhandler$?Clone@ioCreateDummyChar2Buff@@UAEPAVioBuff@@XZ:
  0000a	8b 54 24 08	 mov	 edx, DWORD PTR [esp+8]
  0000e	8d 42 0c	 lea	 eax, DWORD PTR [edx+12]
  00011	8b 4a ec	 mov	 ecx, DWORD PTR [edx-20]
  00014	33 c8		 xor	 ecx, eax
  00016	e8 00 00 00 00	 call	 @__security_check_cookie@4
  0001b	b8 00 00 00 00	 mov	 eax, OFFSET __ehfuncinfo$?Clone@ioCreateDummyChar2Buff@@UAEPAVioBuff@@XZ
  00020	e9 00 00 00 00	 jmp	 ___CxxFrameHandler3
text$x	ENDS
?Clone@ioCreateDummyChar2Buff@@UAEPAVioBuff@@XZ ENDP	; ioCreateDummyChar2Buff::Clone
PUBLIC	_pOwner$GSCopy$
PUBLIC	__$ArrayPad$
PUBLIC	?CreateDummyChar@ioCreateDummyChar2Buff@@IAEXPAVioBaseChar@@@Z ; ioCreateDummyChar2Buff::CreateDummyChar
EXTRN	??1SP2Packet@@UAE@XZ:PROC			; SP2Packet::~SP2Packet
EXTRN	?SendToAllPlayingUser@P2PNetwork@@YAXAAVSP2Packet@@PAVioBaseChar@@@Z:PROC ; P2PNetwork::SendToAllPlayingUser
EXTRN	??6SP2Packet@@QAEAAV0@M@Z:PROC			; SP2Packet::operator<<
EXTRN	??6SP2Packet@@QAEAAV0@ABUD3DXVECTOR3@@@Z:PROC	; SP2Packet::operator<<
EXTRN	??6SP2Packet@@QAEAAV0@ABVioHashString@@@Z:PROC	; SP2Packet::operator<<
EXTRN	??0SP2Packet@@QAE@K@Z:PROC			; SP2Packet::SP2Packet
EXTRN	?GetCurLocalIndex@ioDummyCharManager@@QAEHXZ:PROC ; ioDummyCharManager::GetCurLocalIndex
EXTRN	__imp_?UNIT_Y@ioMath@@2UD3DXVECTOR3@@A:BYTE
EXTRN	_D3DXVec3Normalize@8:PROC
EXTRN	__imp_??D@YA?AUD3DXVECTOR3@@ABUD3DXQUATERNION@@ABU0@@Z:PROC
EXTRN	?DestroyDummyCharByNameList@ioDummyCharManager@@QAEXPAVioBaseChar@@AAV?$vector@VioHashString@@V?$allocator@VioHashString@@@std@@@std@@@Z:PROC ; ioDummyCharManager::DestroyDummyCharByNameList
EXTRN	?GetSingleton@ioDummyCharManager@@SAAAV1@XZ:PROC ; ioDummyCharManager::GetSingleton
EXTRN	__chkstk:PROC
;	COMDAT xdata$x
; File c:\program files (x86)\microsoft visual studio 10.0\vc\include\vector
xdata$x	SEGMENT
__unwindtable$?CreateDummyChar@ioCreateDummyChar2Buff@@IAEXPAVioBaseChar@@@Z DD 0ffffffffH
	DD	FLAT:__unwindfunclet$?CreateDummyChar@ioCreateDummyChar2Buff@@IAEXPAVioBaseChar@@@Z$0
	DD	00H
	DD	FLAT:__unwindfunclet$?CreateDummyChar@ioCreateDummyChar2Buff@@IAEXPAVioBaseChar@@@Z$1
	DD	01H
	DD	FLAT:__unwindfunclet$?CreateDummyChar@ioCreateDummyChar2Buff@@IAEXPAVioBaseChar@@@Z$2
	DD	00H
	DD	FLAT:__unwindfunclet$?CreateDummyChar@ioCreateDummyChar2Buff@@IAEXPAVioBaseChar@@@Z$3
__ehfuncinfo$?CreateDummyChar@ioCreateDummyChar2Buff@@IAEXPAVioBaseChar@@@Z DD 019930522H
	DD	04H
	DD	FLAT:__unwindtable$?CreateDummyChar@ioCreateDummyChar2Buff@@IAEXPAVioBaseChar@@@Z
	DD	2 DUP(00H)
	DD	2 DUP(00H)
	DD	00H
	DD	01H
; Function compile flags: /Ogsp
; File d:\lost saga for developer\youtube\tutorial\source\src\lsclient\iocreatedummychar2buff.cpp
xdata$x	ENDS
;	COMDAT ?CreateDummyChar@ioCreateDummyChar2Buff@@IAEXPAVioBaseChar@@@Z
_TEXT	SEGMENT
_szDummyCharName$531070 = -32948			; size = 16
$T538829 = -32932					; size = 4
$T538828 = -32928					; size = 4
_pStage$ = -32924					; size = 4
_fStartAngle$531074 = -32920				; size = 4
tv735 = -32916						; size = 4
_vCreateDummyList$ = -32912				; size = 16
_fSideOffset$531073 = -32896				; size = 4
_pOwner$GSCopy$ = -32892				; size = 4
tv1140 = -32888						; size = 4
$T538827 = -32888					; size = 4
$T538764 = -32888					; size = 4
tv1150 = -32884						; size = 4
_kPacket$ = -32880					; size = 32792
_kInfo$531080 = -88					; size = 36
_vSideDir$ = -52					; size = 12
_vDir$ = -40						; size = 12
_v$538805 = -28						; size = 12
_vTargetPos$531075 = -28				; size = 12
$T531062 = -28						; size = 12
__$ArrayPad$ = -16					; size = 4
__$EHRec$ = -12						; size = 12
_pOwner$ = 8						; size = 4
?CreateDummyChar@ioCreateDummyChar2Buff@@IAEXPAVioBaseChar@@@Z PROC ; ioCreateDummyChar2Buff::CreateDummyChar, COMDAT
; _this$ = ecx

; 362  : {

  00000	55		 push	 ebp
  00001	8b ec		 mov	 ebp, esp
  00003	6a ff		 push	 -1
  00005	68 00 00 00 00	 push	 __ehhandler$?CreateDummyChar@ioCreateDummyChar2Buff@@IAEXPAVioBaseChar@@@Z
  0000a	64 a1 00 00 00
	00		 mov	 eax, DWORD PTR fs:0
  00010	50		 push	 eax
  00011	b8 a8 80 00 00	 mov	 eax, 32936		; 000080a8H
  00016	e8 00 00 00 00	 call	 __chkstk
  0001b	a1 00 00 00 00	 mov	 eax, DWORD PTR ___security_cookie
  00020	33 c5		 xor	 eax, ebp
  00022	89 45 f0	 mov	 DWORD PTR __$ArrayPad$[ebp], eax
  00025	53		 push	 ebx
  00026	56		 push	 esi
  00027	57		 push	 edi
  00028	50		 push	 eax
  00029	8d 45 f4	 lea	 eax, DWORD PTR __$EHRec$[ebp]
  0002c	64 a3 00 00 00
	00		 mov	 DWORD PTR fs:0, eax
  00032	8b 75 08	 mov	 esi, DWORD PTR _pOwner$[ebp]

; 363  : 	if( !pOwner ) return;

  00035	33 ff		 xor	 edi, edi
  00037	8b d9		 mov	 ebx, ecx

; 409  : 
; 410  : 	int iCreateCnt = vCreateDummyList.size();

  00039	89 b5 84 7f ff
	ff		 mov	 DWORD PTR _pOwner$GSCopy$[ebp], esi
  0003f	3b f7		 cmp	 esi, edi
  00041	0f 84 dd 04 00
	00		 je	 $LN103@CreateDumm

; 364  : 	ioPlayStage *pStage = pOwner->GetCreator();

  00047	8b 86 44 03 00
	00		 mov	 eax, DWORD PTR [esi+836]
  0004d	89 85 64 7f ff
	ff		 mov	 DWORD PTR _pStage$[ebp], eax

; 365  : 	if( !pStage ) return;

  00053	3b c7		 cmp	 eax, edi
  00055	0f 84 c9 04 00
	00		 je	 $LN103@CreateDumm

; 366  : 	if( !pOwner->IsNeedProcess() )

  0005b	8b 06		 mov	 eax, DWORD PTR [esi]
  0005d	8b ce		 mov	 ecx, esi
  0005f	ff 90 00 01 00
	00		 call	 DWORD PTR [eax+256]
  00065	84 c0		 test	 al, al
  00067	0f 84 b7 04 00
	00		 je	 $LN103@CreateDumm

; 367  : 		return;
; 368  : 	if( m_DummyCharList.empty() )

  0006d	8b 83 b4 09 00
	00		 mov	 eax, DWORD PTR [ebx+2484]
  00073	3b 83 b8 09 00
	00		 cmp	 eax, DWORD PTR [ebx+2488]
  00079	0f 84 a5 04 00
	00		 je	 $LN103@CreateDumm

; 369  : 		return;
; 370  : 
; 371  : 	g_DummyCharMgr.DestroyDummyCharByNameList( pOwner, m_vDestroyDummyCharList );

  0007f	8d 83 c4 09 00
	00		 lea	 eax, DWORD PTR [ebx+2500]
  00085	50		 push	 eax
  00086	56		 push	 esi
  00087	e8 00 00 00 00	 call	 ?GetSingleton@ioDummyCharManager@@SAAAV1@XZ ; ioDummyCharManager::GetSingleton
  0008c	8b c8		 mov	 ecx, eax
  0008e	e8 00 00 00 00	 call	 ?DestroyDummyCharByNameList@ioDummyCharManager@@QAEXPAVioBaseChar@@AAV?$vector@VioHashString@@V?$allocator@VioHashString@@@std@@@std@@@Z ; ioDummyCharManager::DestroyDummyCharByNameList

; 372  : 
; 373  : 	vDummyCharCreateInfoList vCreateDummyList;

  00093	89 bd 70 7f ff
	ff		 mov	 DWORD PTR _vCreateDummyList$[ebp], edi
  00099	89 bd 74 7f ff
	ff		 mov	 DWORD PTR _vCreateDummyList$[ebp+4], edi
  0009f	89 bd 78 7f ff
	ff		 mov	 DWORD PTR _vCreateDummyList$[ebp+8], edi

; 374  : 	vCreateDummyList.clear();

  000a5	33 c0		 xor	 eax, eax
  000a7	50		 push	 eax
  000a8	57		 push	 edi
  000a9	8d 85 88 7f ff
	ff		 lea	 eax, DWORD PTR $T538764[ebp]
  000af	50		 push	 eax
  000b0	8d 8d 70 7f ff
	ff		 lea	 ecx, DWORD PTR _vCreateDummyList$[ebp]
  000b6	89 7d fc	 mov	 DWORD PTR __$EHRec$[ebp+8], edi
  000b9	e8 00 00 00 00	 call	 ?erase@?$vector@UtagDummyCharCreateInfo@@V?$allocator@UtagDummyCharCreateInfo@@@std@@@std@@QAE?AV?$_Vector_iterator@V?$_Vector_val@UtagDummyCharCreateInfo@@V?$allocator@UtagDummyCharCreateInfo@@@std@@@std@@@2@V?$_Vector_const_iterator@V?$_Vector_val@UtagDummyCharCreateInfo@@V?$allocator@UtagDummyCharCreateInfo@@@std@@@std@@@2@0@Z ; std::vector<tagDummyCharCreateInfo,std::allocator<tagDummyCharCreateInfo> >::erase

; 375  : 
; 376  : 	D3DXVECTOR3 vDir = pOwner->GetTargetRot() * D3DXVECTOR3( 0.0f, 0.0f, -FLOAT1 );

  000be	b8 01 00 00 00	 mov	 eax, 1
  000c3	0f 57 c0	 xorps	 xmm0, xmm0
  000c6	89 85 88 7f ff
	ff		 mov	 DWORD PTR tv1140[ebp], eax
  000cc	db 85 88 7f ff
	ff		 fild	 DWORD PTR tv1140[ebp]
  000d2	f3 0f 11 45 e4	 movss	 DWORD PTR $T531062[ebp], xmm0
  000d7	f3 0f 11 45 e8	 movss	 DWORD PTR $T531062[ebp+4], xmm0
  000dc	85 c0		 test	 eax, eax
  000de	79 06		 jns	 SHORT $LN113@CreateDumm
  000e0	d8 05 00 00 00
	00		 fadd	 DWORD PTR __real@4f800000
$LN113@CreateDumm:
  000e6	8d 45 e4	 lea	 eax, DWORD PTR $T531062[ebp]
  000e9	d9 e0		 fchs
  000eb	50		 push	 eax
  000ec	d9 5d ec	 fstp	 DWORD PTR $T531062[ebp+8]
  000ef	81 c6 a4 06 00
	00		 add	 esi, 1700		; 000006a4H
  000f5	8d 45 d8	 lea	 eax, DWORD PTR _vDir$[ebp]
  000f8	56		 push	 esi
  000f9	50		 push	 eax
  000fa	ff 15 00 00 00
	00		 call	 DWORD PTR __imp_??D@YA?AUD3DXVECTOR3@@ABUD3DXQUATERNION@@ABU0@@Z
  00100	83 c4 0c	 add	 esp, 12			; 0000000cH

; 377  : 	D3DXVec3Normalize( &vDir, &vDir );

  00103	8d 45 d8	 lea	 eax, DWORD PTR _vDir$[ebp]
  00106	50		 push	 eax
  00107	50		 push	 eax
  00108	e8 00 00 00 00	 call	 _D3DXVec3Normalize@8

; 378  : 
; 379  : 	D3DXVECTOR3 vSideDir;
; 380  : 	D3DXVec3Cross( &vSideDir, &ioMath::UNIT_Y, &vDir );

  0010d	f3 0f 10 5d e0	 movss	 xmm3, DWORD PTR _vDir$[ebp+8]
  00112	a1 00 00 00 00	 mov	 eax, DWORD PTR __imp_?UNIT_Y@ioMath@@2UD3DXVECTOR3@@A
  00117	f3 0f 10 40 04	 movss	 xmm0, DWORD PTR [eax+4]
  0011c	f3 0f 10 48 08	 movss	 xmm1, DWORD PTR [eax+8]
  00121	f3 0f 10 65 dc	 movss	 xmm4, DWORD PTR _vDir$[ebp+4]
  00126	0f 5a d0	 cvtps2pd xmm2, xmm0
  00129	0f 5a db	 cvtps2pd xmm3, xmm3
  0012c	f2 0f 59 d3	 mulsd	 xmm2, xmm3
  00130	0f 5a e4	 cvtps2pd xmm4, xmm4
  00133	0f 5a c0	 cvtps2pd xmm0, xmm0
  00136	8d 75 e4	 lea	 esi, DWORD PTR _v$538805[ebp]
  00139	8d 7d cc	 lea	 edi, DWORD PTR _vSideDir$[ebp]
  0013c	0f 5a d9	 cvtps2pd xmm3, xmm1
  0013f	f2 0f 59 dc	 mulsd	 xmm3, xmm4
  00143	f3 0f 10 65 e0	 movss	 xmm4, DWORD PTR _vDir$[ebp+8]
  00148	f2 0f 5c d3	 subsd	 xmm2, xmm3
  0014c	f3 0f 10 5d d8	 movss	 xmm3, DWORD PTR _vDir$[ebp]
  00151	0f 5a db	 cvtps2pd xmm3, xmm3
  00154	66 0f 5a d2	 cvtpd2ps xmm2, xmm2
  00158	f3 0f 11 55 e4	 movss	 DWORD PTR _v$538805[ebp], xmm2
  0015d	f3 0f 10 10	 movss	 xmm2, DWORD PTR [eax]
  00161	0f 5a c9	 cvtps2pd xmm1, xmm1
  00164	f2 0f 59 cb	 mulsd	 xmm1, xmm3
  00168	0f 5a da	 cvtps2pd xmm3, xmm2
  0016b	0f 5a e4	 cvtps2pd xmm4, xmm4
  0016e	f2 0f 59 dc	 mulsd	 xmm3, xmm4
  00172	f2 0f 5c cb	 subsd	 xmm1, xmm3
  00176	66 0f 5a c9	 cvtpd2ps xmm1, xmm1
  0017a	f3 0f 11 4d e8	 movss	 DWORD PTR _v$538805[ebp+4], xmm1
  0017f	0f 57 c9	 xorps	 xmm1, xmm1
  00182	0f 5a ca	 cvtps2pd xmm1, xmm2
  00185	f3 0f 10 55 dc	 movss	 xmm2, DWORD PTR _vDir$[ebp+4]
  0018a	0f 5a d2	 cvtps2pd xmm2, xmm2
  0018d	f2 0f 59 ca	 mulsd	 xmm1, xmm2
  00191	f3 0f 10 55 d8	 movss	 xmm2, DWORD PTR _vDir$[ebp]
  00196	0f 5a d2	 cvtps2pd xmm2, xmm2
  00199	f2 0f 59 c2	 mulsd	 xmm0, xmm2
  0019d	f2 0f 5c c8	 subsd	 xmm1, xmm0
  001a1	0f 57 c0	 xorps	 xmm0, xmm0
  001a4	66 0f 5a c1	 cvtpd2ps xmm0, xmm1
  001a8	f3 0f 11 45 ec	 movss	 DWORD PTR _v$538805[ebp+8], xmm0
  001ad	a5		 movsd

; 381  : 	D3DXVec3Normalize( &vSideDir, &vSideDir );

  001ae	8d 45 cc	 lea	 eax, DWORD PTR _vSideDir$[ebp]
  001b1	a5		 movsd
  001b2	50		 push	 eax
  001b3	50		 push	 eax
  001b4	a5		 movsd
  001b5	e8 00 00 00 00	 call	 _D3DXVec3Normalize@8

; 382  : 
; 383  : 	int iSize = m_DummyCharList.size();

  001ba	8b 83 b8 09 00
	00		 mov	 eax, DWORD PTR [ebx+2488]
  001c0	2b 83 b4 09 00
	00		 sub	 eax, DWORD PTR [ebx+2484]
  001c6	6a 1c		 push	 28			; 0000001cH
  001c8	99		 cdq
  001c9	59		 pop	 ecx
  001ca	f7 f9		 idiv	 ecx

; 384  : 	for( int i=0; i < iSize; ++i )

  001cc	85 c0		 test	 eax, eax
  001ce	0f 8e 4f 02 00
	00		 jle	 $LN5@CreateDumm

; 369  : 		return;
; 370  : 
; 371  : 	g_DummyCharMgr.DestroyDummyCharByNameList( pOwner, m_vDestroyDummyCharList );

  001d4	83 a5 8c 7f ff
	ff 00		 and	 DWORD PTR tv1150[ebp], 0
  001db	89 85 6c 7f ff
	ff		 mov	 DWORD PTR tv735[ebp], eax
$LL111@CreateDumm:

; 385  : 	{
; 386  : 		ioHashString szDummyCharName = m_DummyCharList[i].m_DummyCharName;

  001e1	8b 83 b4 09 00
	00		 mov	 eax, DWORD PTR [ebx+2484]
  001e7	03 85 8c 7f ff
	ff		 add	 eax, DWORD PTR tv1150[ebp]
  001ed	8b b5 84 7f ff
	ff		 mov	 esi, DWORD PTR _pOwner$GSCopy$[ebp]
  001f3	50		 push	 eax
  001f4	8d 8d 4c 7f ff
	ff		 lea	 ecx, DWORD PTR _szDummyCharName$531070[ebp]
  001fa	ff 15 00 00 00
	00		 call	 DWORD PTR __imp_??0ioHashString@@QAE@ABV0@@Z
  00200	c6 45 fc 01	 mov	 BYTE PTR __$EHRec$[ebp+8], 1

; 387  : 		int iCurIndex = g_DummyCharMgr.GetCurLocalIndex();

  00204	e8 00 00 00 00	 call	 ?GetSingleton@ioDummyCharManager@@SAAAV1@XZ ; ioDummyCharManager::GetSingleton
  00209	8b c8		 mov	 ecx, eax
  0020b	e8 00 00 00 00	 call	 ?GetCurLocalIndex@ioDummyCharManager@@QAEHXZ ; ioDummyCharManager::GetCurLocalIndex

; 388  : 		float fOffset = m_DummyCharList[i].m_fDummyCharOffset;

  00210	8b 8d 8c 7f ff
	ff		 mov	 ecx, DWORD PTR tv1150[ebp]
  00216	8b f8		 mov	 edi, eax
  00218	8b 83 b4 09 00
	00		 mov	 eax, DWORD PTR [ebx+2484]
  0021e	f3 0f 10 44 08
	10		 movss	 xmm0, DWORD PTR [eax+ecx+16]

; 389  : 		float fSideOffset = m_DummyCharList[i].m_fDummyCharSideOffset;

  00224	f3 0f 10 4c 08
	14		 movss	 xmm1, DWORD PTR [eax+ecx+20]
  0022a	f3 0f 11 8d 80
	7f ff ff	 movss	 DWORD PTR _fSideOffset$531073[ebp], xmm1

; 390  : 		float fStartAngle = m_DummyCharList[i].m_fDummyCharStartAngle;

  00232	f3 0f 10 4c 08
	18		 movss	 xmm1, DWORD PTR [eax+ecx+24]

; 391  : 
; 392  : 		D3DXVECTOR3 vTargetPos = pOwner->GetWorldPosition() + (fOffset * vDir);

  00238	8b 06		 mov	 eax, DWORD PTR [esi]
  0023a	f3 0f 11 8d 68
	7f ff ff	 movss	 DWORD PTR _fStartAngle$531074[ebp], xmm1
  00242	f3 0f 10 4d d8	 movss	 xmm1, DWORD PTR _vDir$[ebp]
  00247	0f 5a c9	 cvtps2pd xmm1, xmm1
  0024a	0f 5a d0	 cvtps2pd xmm2, xmm0
  0024d	f2 0f 59 ca	 mulsd	 xmm1, xmm2
  00251	66 0f 5a c9	 cvtpd2ps xmm1, xmm1
  00255	f3 0f 11 8d 5c
	7f ff ff	 movss	 DWORD PTR $T538829[ebp], xmm1
  0025d	f3 0f 10 4d dc	 movss	 xmm1, DWORD PTR _vDir$[ebp+4]
  00262	0f 5a c9	 cvtps2pd xmm1, xmm1
  00265	0f 5a d0	 cvtps2pd xmm2, xmm0
  00268	f2 0f 59 ca	 mulsd	 xmm1, xmm2
  0026c	66 0f 5a c9	 cvtpd2ps xmm1, xmm1
  00270	0f 5a c0	 cvtps2pd xmm0, xmm0
  00273	f3 0f 11 8d 60
	7f ff ff	 movss	 DWORD PTR $T538828[ebp], xmm1
  0027b	f3 0f 10 4d e0	 movss	 xmm1, DWORD PTR _vDir$[ebp+8]
  00280	0f 5a c9	 cvtps2pd xmm1, xmm1
  00283	f2 0f 59 c8	 mulsd	 xmm1, xmm0
  00287	8b ce		 mov	 ecx, esi
  00289	66 0f 5a c1	 cvtpd2ps xmm0, xmm1
  0028d	f3 0f 11 85 88
	7f ff ff	 movss	 DWORD PTR $T538827[ebp], xmm0
  00295	ff 50 70	 call	 DWORD PTR [eax+112]
  00298	f3 0f 10 85 5c
	7f ff ff	 movss	 xmm0, DWORD PTR $T538829[ebp]
  002a0	f3 0f 10 08	 movss	 xmm1, DWORD PTR [eax]
  002a4	f3 0f 10 95 60
	7f ff ff	 movss	 xmm2, DWORD PTR $T538828[ebp]
  002ac	f3 0f 10 9d 88
	7f ff ff	 movss	 xmm3, DWORD PTR $T538827[ebp]

; 393  : 		vTargetPos += fSideOffset * vSideDir;

  002b4	f3 0f 10 a5 80
	7f ff ff	 movss	 xmm4, DWORD PTR _fSideOffset$531073[ebp]
  002bc	f3 0f 10 ad 80
	7f ff ff	 movss	 xmm5, DWORD PTR _fSideOffset$531073[ebp]
  002c4	f3 0f 10 b5 80
	7f ff ff	 movss	 xmm6, DWORD PTR _fSideOffset$531073[ebp]
  002cc	0f 5a c9	 cvtps2pd xmm1, xmm1
  002cf	0f 5a c0	 cvtps2pd xmm0, xmm0
  002d2	f2 0f 58 c1	 addsd	 xmm0, xmm1
  002d6	f3 0f 10 48 04	 movss	 xmm1, DWORD PTR [eax+4]
  002db	0f 5a d2	 cvtps2pd xmm2, xmm2
  002de	0f 5a db	 cvtps2pd xmm3, xmm3
  002e1	0f 5a c9	 cvtps2pd xmm1, xmm1
  002e4	f2 0f 58 ca	 addsd	 xmm1, xmm2
  002e8	f3 0f 10 50 08	 movss	 xmm2, DWORD PTR [eax+8]
  002ed	0f 5a d2	 cvtps2pd xmm2, xmm2
  002f0	f2 0f 58 d3	 addsd	 xmm2, xmm3
  002f4	f3 0f 10 5d cc	 movss	 xmm3, DWORD PTR _vSideDir$[ebp]
  002f9	0f 5a e4	 cvtps2pd xmm4, xmm4
  002fc	0f 5a db	 cvtps2pd xmm3, xmm3
  002ff	f2 0f 59 dc	 mulsd	 xmm3, xmm4
  00303	f3 0f 10 65 d0	 movss	 xmm4, DWORD PTR _vSideDir$[ebp+4]
  00308	f2 0f 5a c0	 cvtsd2ss xmm0, xmm0
  0030c	0f 5a ed	 cvtps2pd xmm5, xmm5
  0030f	f3 0f 5a c0	 cvtss2sd xmm0, xmm0
  00313	0f 5a e4	 cvtps2pd xmm4, xmm4
  00316	f2 0f 59 e5	 mulsd	 xmm4, xmm5
  0031a	f3 0f 10 6d d4	 movss	 xmm5, DWORD PTR _vSideDir$[ebp+8]
  0031f	66 0f 5a db	 cvtpd2ps xmm3, xmm3
  00323	0f 5a ed	 cvtps2pd xmm5, xmm5
  00326	f3 0f 5a db	 cvtss2sd xmm3, xmm3
  0032a	0f 5a f6	 cvtps2pd xmm6, xmm6
  0032d	f2 0f 58 d8	 addsd	 xmm3, xmm0
  00331	f2 0f 59 ee	 mulsd	 xmm5, xmm6
  00335	66 0f 5a c3	 cvtpd2ps xmm0, xmm3
  00339	66 0f 5a c9	 cvtpd2ps xmm1, xmm1
  0033d	66 0f 5a d2	 cvtpd2ps xmm2, xmm2
  00341	66 0f 5a e4	 cvtpd2ps xmm4, xmm4
  00345	66 0f 5a ed	 cvtpd2ps xmm5, xmm5
  00349	f3 0f 11 45 e4	 movss	 DWORD PTR _vTargetPos$531075[ebp], xmm0
  0034e	0f 57 c0	 xorps	 xmm0, xmm0
  00351	f3 0f 5a c4	 cvtss2sd xmm0, xmm4
  00355	f3 0f 5a c9	 cvtss2sd xmm1, xmm1
  00359	f2 0f 58 c1	 addsd	 xmm0, xmm1
  0035d	66 0f 5a c0	 cvtpd2ps xmm0, xmm0
  00361	f3 0f 11 45 e8	 movss	 DWORD PTR _vTargetPos$531075[ebp+4], xmm0

; 394  : 
; 395  : 		ioDummyChar *pDummy = pStage->CreateDummyChar( szDummyCharName, iCurIndex,
; 396  : 													   pOwner->GetCharName(),
; 397  : 													   vTargetPos,
; 398  : 													   fStartAngle,
; 399  : 													   0, true );

  00366	6a 01		 push	 1
  00368	0f 57 c0	 xorps	 xmm0, xmm0
  0036b	6a 00		 push	 0
  0036d	f3 0f 5a c5	 cvtss2sd xmm0, xmm5
  00371	51		 push	 ecx
  00372	8b 8d 64 7f ff
	ff		 mov	 ecx, DWORD PTR _pStage$[ebp]
  00378	0f 57 c9	 xorps	 xmm1, xmm1
  0037b	f3 0f 5a ca	 cvtss2sd xmm1, xmm2
  0037f	f2 0f 58 c1	 addsd	 xmm0, xmm1
  00383	66 0f 5a c0	 cvtpd2ps xmm0, xmm0
  00387	f3 0f 11 45 ec	 movss	 DWORD PTR _vTargetPos$531075[ebp+8], xmm0
  0038c	f3 0f 10 85 68
	7f ff ff	 movss	 xmm0, DWORD PTR _fStartAngle$531074[ebp]
  00394	f3 0f 11 04 24	 movss	 DWORD PTR [esp], xmm0
  00399	8d 45 e4	 lea	 eax, DWORD PTR _vTargetPos$531075[ebp]
  0039c	50		 push	 eax
  0039d	81 c6 d4 02 00
	00		 add	 esi, 724		; 000002d4H
  003a3	56		 push	 esi
  003a4	57		 push	 edi
  003a5	8d 85 4c 7f ff
	ff		 lea	 eax, DWORD PTR _szDummyCharName$531070[ebp]
  003ab	50		 push	 eax
  003ac	e8 00 00 00 00	 call	 ?CreateDummyChar@ioPlayStage@@QAEPAVioDummyChar@@ABVioHashString@@H0ABUD3DXVECTOR3@@MK_N@Z ; ioPlayStage::CreateDummyChar

; 400  : 
; 401  : 		DummyCharCreateInfo kInfo;

  003b1	8d 4d a8	 lea	 ecx, DWORD PTR _kInfo$531080[ebp]
  003b4	e8 00 00 00 00	 call	 ??0tagDummyCharCreateInfo@@QAE@XZ ; tagDummyCharCreateInfo::tagDummyCharCreateInfo

; 402  : 		kInfo.m_DummyCharName = szDummyCharName;

  003b9	8d 85 4c 7f ff
	ff		 lea	 eax, DWORD PTR _szDummyCharName$531070[ebp]
  003bf	50		 push	 eax
  003c0	8d 4d a8	 lea	 ecx, DWORD PTR _kInfo$531080[ebp]
  003c3	c6 45 fc 02	 mov	 BYTE PTR __$EHRec$[ebp+8], 2
  003c7	ff 15 00 00 00
	00		 call	 DWORD PTR __imp_??4ioHashString@@QAEAAV0@ABV0@@Z

; 403  : 		kInfo.m_iDummyCharIdx = iCurIndex;
; 404  : 		kInfo.m_fDummyCharStartAngle = fStartAngle;

  003cd	f3 0f 10 85 68
	7f ff ff	 movss	 xmm0, DWORD PTR _fStartAngle$531074[ebp]
  003d5	89 7d b8	 mov	 DWORD PTR _kInfo$531080[ebp+16], edi
  003d8	f3 0f 11 45 bc	 movss	 DWORD PTR _kInfo$531080[ebp+20], xmm0

; 405  : 		kInfo.m_vTargetPos = vTargetPos;

  003dd	8d 75 e4	 lea	 esi, DWORD PTR _vTargetPos$531075[ebp]
  003e0	8d 7d c0	 lea	 edi, DWORD PTR _kInfo$531080[ebp+24]
  003e3	a5		 movsd
  003e4	a5		 movsd

; 406  : 
; 407  : 		vCreateDummyList.push_back( kInfo );

  003e5	8d 45 a8	 lea	 eax, DWORD PTR _kInfo$531080[ebp]
  003e8	50		 push	 eax
  003e9	8d 8d 70 7f ff
	ff		 lea	 ecx, DWORD PTR _vCreateDummyList$[ebp]
  003ef	a5		 movsd
  003f0	e8 00 00 00 00	 call	 ?push_back@?$vector@UtagDummyCharCreateInfo@@V?$allocator@UtagDummyCharCreateInfo@@@std@@@std@@QAEXABUtagDummyCharCreateInfo@@@Z ; std::vector<tagDummyCharCreateInfo,std::allocator<tagDummyCharCreateInfo> >::push_back

; 408  : 	}

  003f5	8b 35 00 00 00
	00		 mov	 esi, DWORD PTR __imp_??1ioHashString@@QAE@XZ
  003fb	8d 4d a8	 lea	 ecx, DWORD PTR _kInfo$531080[ebp]
  003fe	c6 45 fc 01	 mov	 BYTE PTR __$EHRec$[ebp+8], 1
  00402	ff d6		 call	 esi
  00404	8d 8d 4c 7f ff
	ff		 lea	 ecx, DWORD PTR _szDummyCharName$531070[ebp]
  0040a	c6 45 fc 00	 mov	 BYTE PTR __$EHRec$[ebp+8], 0
  0040e	ff d6		 call	 esi
  00410	83 85 8c 7f ff
	ff 1c		 add	 DWORD PTR tv1150[ebp], 28 ; 0000001cH
  00417	ff 8d 6c 7f ff
	ff		 dec	 DWORD PTR tv735[ebp]
  0041d	0f 85 be fd ff
	ff		 jne	 $LL111@CreateDumm
$LN5@CreateDumm:

; 409  : 
; 410  : 	int iCreateCnt = vCreateDummyList.size();

  00423	8b 85 74 7f ff
	ff		 mov	 eax, DWORD PTR _vCreateDummyList$[ebp+4]
  00429	2b 85 70 7f ff
	ff		 sub	 eax, DWORD PTR _vCreateDummyList$[ebp]
  0042f	6a 24		 push	 36			; 00000024H
  00431	59		 pop	 ecx
  00432	99		 cdq
  00433	f7 f9		 idiv	 ecx

; 411  : 	SP2Packet kPacket( CUPK_APPLY_EXTRA_BUFF_INFO );

  00435	68 45 42 00 00	 push	 16965			; 00004245H
  0043a	8d 8d 90 7f ff
	ff		 lea	 ecx, DWORD PTR _kPacket$[ebp]
  00440	8b f8		 mov	 edi, eax
  00442	e8 00 00 00 00	 call	 ??0SP2Packet@@QAE@K@Z	; SP2Packet::SP2Packet

; 412  : 	kPacket << pOwner->GetCharName();

  00447	8b b5 84 7f ff
	ff		 mov	 esi, DWORD PTR _pOwner$GSCopy$[ebp]
  0044d	8d 86 d4 02 00
	00		 lea	 eax, DWORD PTR [esi+724]
  00453	50		 push	 eax
  00454	8d 8d 90 7f ff
	ff		 lea	 ecx, DWORD PTR _kPacket$[ebp]
  0045a	c6 45 fc 03	 mov	 BYTE PTR __$EHRec$[ebp+8], 3
  0045e	e8 00 00 00 00	 call	 ??6SP2Packet@@QAEAAV0@ABVioHashString@@@Z ; SP2Packet::operator<<

; 413  : 	kPacket << GetName();

  00463	81 c3 34 02 00
	00		 add	 ebx, 564		; 00000234H
  00469	53		 push	 ebx
  0046a	8d 8d 90 7f ff
	ff		 lea	 ecx, DWORD PTR _kPacket$[ebp]
  00470	e8 00 00 00 00	 call	 ??6SP2Packet@@QAEAAV0@ABVioHashString@@@Z ; SP2Packet::operator<<

; 414  : 	kPacket << iCreateCnt;

  00475	57		 push	 edi
  00476	8d 8d 90 7f ff
	ff		 lea	 ecx, DWORD PTR _kPacket$[ebp]
  0047c	e8 00 00 00 00	 call	 ??6SP2Packet@@QAEAAV0@H@Z ; SP2Packet::operator<<

; 415  : 	if( pOwner->IsNeedSendNetwork() && iCreateCnt > 0 )

  00481	8b 06		 mov	 eax, DWORD PTR [esi]
  00483	8b ce		 mov	 ecx, esi
  00485	ff 90 04 01 00
	00		 call	 DWORD PTR [eax+260]
  0048b	84 c0		 test	 al, al
  0048d	74 77		 je	 SHORT $LN4@CreateDumm
  0048f	85 ff		 test	 edi, edi
  00491	7e 73		 jle	 SHORT $LN4@CreateDumm

; 416  : 	{
; 417  : 		for( int i=0; i<iCreateCnt; ++i )

  00493	33 f6		 xor	 esi, esi
$LL3@CreateDumm:

; 418  : 		{
; 419  : 			kPacket << vCreateDummyList[i].m_DummyCharName;

  00495	8b 85 70 7f ff
	ff		 mov	 eax, DWORD PTR _vCreateDummyList$[ebp]
  0049b	03 c6		 add	 eax, esi
  0049d	50		 push	 eax
  0049e	8d 8d 90 7f ff
	ff		 lea	 ecx, DWORD PTR _kPacket$[ebp]
  004a4	e8 00 00 00 00	 call	 ??6SP2Packet@@QAEAAV0@ABVioHashString@@@Z ; SP2Packet::operator<<

; 420  : 			kPacket << vCreateDummyList[i].m_iDummyCharIdx;

  004a9	8b 85 70 7f ff
	ff		 mov	 eax, DWORD PTR _vCreateDummyList$[ebp]
  004af	ff 74 30 10	 push	 DWORD PTR [eax+esi+16]
  004b3	8d 8d 90 7f ff
	ff		 lea	 ecx, DWORD PTR _kPacket$[ebp]
  004b9	e8 00 00 00 00	 call	 ??6SP2Packet@@QAEAAV0@H@Z ; SP2Packet::operator<<

; 421  : 			kPacket << vCreateDummyList[i].m_vTargetPos;

  004be	8b 85 70 7f ff
	ff		 mov	 eax, DWORD PTR _vCreateDummyList$[ebp]
  004c4	8d 44 30 18	 lea	 eax, DWORD PTR [eax+esi+24]
  004c8	50		 push	 eax
  004c9	8d 8d 90 7f ff
	ff		 lea	 ecx, DWORD PTR _kPacket$[ebp]
  004cf	e8 00 00 00 00	 call	 ??6SP2Packet@@QAEAAV0@ABUD3DXVECTOR3@@@Z ; SP2Packet::operator<<

; 422  : 			kPacket << vCreateDummyList[i].m_fDummyCharStartAngle;

  004d4	8b 85 70 7f ff
	ff		 mov	 eax, DWORD PTR _vCreateDummyList$[ebp]
  004da	f3 0f 10 44 30
	14		 movss	 xmm0, DWORD PTR [eax+esi+20]
  004e0	51		 push	 ecx
  004e1	8d 8d 90 7f ff
	ff		 lea	 ecx, DWORD PTR _kPacket$[ebp]
  004e7	f3 0f 11 04 24	 movss	 DWORD PTR [esp], xmm0
  004ec	e8 00 00 00 00	 call	 ??6SP2Packet@@QAEAAV0@M@Z ; SP2Packet::operator<<
  004f1	83 c6 24	 add	 esi, 36			; 00000024H
  004f4	4f		 dec	 edi
  004f5	75 9e		 jne	 SHORT $LL3@CreateDumm

; 423  : 		}
; 424  : 		P2PNetwork::SendToAllPlayingUser( kPacket );

  004f7	8d 85 90 7f ff
	ff		 lea	 eax, DWORD PTR _kPacket$[ebp]
  004fd	57		 push	 edi
  004fe	50		 push	 eax
  004ff	e8 00 00 00 00	 call	 ?SendToAllPlayingUser@P2PNetwork@@YAXAAVSP2Packet@@PAVioBaseChar@@@Z ; P2PNetwork::SendToAllPlayingUser
  00504	59		 pop	 ecx
  00505	59		 pop	 ecx
$LN4@CreateDumm:

; 425  : 	}
; 426  : }

  00506	8d 8d 90 7f ff
	ff		 lea	 ecx, DWORD PTR _kPacket$[ebp]
  0050c	c6 45 fc 00	 mov	 BYTE PTR __$EHRec$[ebp+8], 0
  00510	e8 00 00 00 00	 call	 ??1SP2Packet@@UAE@XZ	; SP2Packet::~SP2Packet
  00515	83 4d fc ff	 or	 DWORD PTR __$EHRec$[ebp+8], -1
  00519	8d 8d 70 7f ff
	ff		 lea	 ecx, DWORD PTR _vCreateDummyList$[ebp]
  0051f	e8 00 00 00 00	 call	 ?_Tidy@?$vector@UtagDummyCharCreateInfo@@V?$allocator@UtagDummyCharCreateInfo@@@std@@@std@@IAEXXZ ; std::vector<tagDummyCharCreateInfo,std::allocator<tagDummyCharCreateInfo> >::_Tidy
$LN103@CreateDumm:
  00524	8b 4d f4	 mov	 ecx, DWORD PTR __$EHRec$[ebp]
  00527	64 89 0d 00 00
	00 00		 mov	 DWORD PTR fs:0, ecx
  0052e	59		 pop	 ecx
  0052f	5f		 pop	 edi
  00530	5e		 pop	 esi
  00531	5b		 pop	 ebx
  00532	8b 4d f0	 mov	 ecx, DWORD PTR __$ArrayPad$[ebp]
  00535	33 cd		 xor	 ecx, ebp
  00537	e8 00 00 00 00	 call	 @__security_check_cookie@4
  0053c	c9		 leave
  0053d	c2 04 00	 ret	 4
_TEXT	ENDS
;	COMDAT text$x
text$x	SEGMENT
__unwindfunclet$?CreateDummyChar@ioCreateDummyChar2Buff@@IAEXPAVioBaseChar@@@Z$0:
  00000	8d 8d 70 7f ff
	ff		 lea	 ecx, DWORD PTR _vCreateDummyList$[ebp]
  00006	e9 00 00 00 00	 jmp	 ??1?$vector@UtagDummyCharCreateInfo@@V?$allocator@UtagDummyCharCreateInfo@@@std@@@std@@QAE@XZ ; std::vector<tagDummyCharCreateInfo,std::allocator<tagDummyCharCreateInfo> >::~vector<tagDummyCharCreateInfo,std::allocator<tagDummyCharCreateInfo> >
__unwindfunclet$?CreateDummyChar@ioCreateDummyChar2Buff@@IAEXPAVioBaseChar@@@Z$1:
  0000b	8d 8d 4c 7f ff
	ff		 lea	 ecx, DWORD PTR _szDummyCharName$531070[ebp]
  00011	ff 25 00 00 00
	00		 jmp	 DWORD PTR __imp_??1ioHashString@@QAE@XZ
__unwindfunclet$?CreateDummyChar@ioCreateDummyChar2Buff@@IAEXPAVioBaseChar@@@Z$2:
  00017	8d 4d a8	 lea	 ecx, DWORD PTR _kInfo$531080[ebp]
  0001a	e9 00 00 00 00	 jmp	 ??1tagDummyCharCreateInfo@@QAE@XZ
__unwindfunclet$?CreateDummyChar@ioCreateDummyChar2Buff@@IAEXPAVioBaseChar@@@Z$3:
  0001f	8d 8d 90 7f ff
	ff		 lea	 ecx, DWORD PTR _kPacket$[ebp]
  00025	e9 00 00 00 00	 jmp	 ??1SP2Packet@@UAE@XZ	; SP2Packet::~SP2Packet
__ehhandler$?CreateDummyChar@ioCreateDummyChar2Buff@@IAEXPAVioBaseChar@@@Z:
  0002a	8b 54 24 08	 mov	 edx, DWORD PTR [esp+8]
  0002e	8d 42 0c	 lea	 eax, DWORD PTR [edx+12]
  00031	8b 8a 48 7f ff
	ff		 mov	 ecx, DWORD PTR [edx-32952]
  00037	33 c8		 xor	 ecx, eax
  00039	e8 00 00 00 00	 call	 @__security_check_cookie@4
  0003e	8b 4a fc	 mov	 ecx, DWORD PTR [edx-4]
  00041	33 c8		 xor	 ecx, eax
  00043	e8 00 00 00 00	 call	 @__security_check_cookie@4
  00048	b8 00 00 00 00	 mov	 eax, OFFSET __ehfuncinfo$?CreateDummyChar@ioCreateDummyChar2Buff@@IAEXPAVioBaseChar@@@Z
  0004d	e9 00 00 00 00	 jmp	 ___CxxFrameHandler3
text$x	ENDS
?CreateDummyChar@ioCreateDummyChar2Buff@@IAEXPAVioBaseChar@@@Z ENDP ; ioCreateDummyChar2Buff::CreateDummyChar
; Function compile flags: /Ogsp
;	COMDAT ??_GioCreateDummyChar2Buff@@UAEPAXI@Z
_TEXT	SEGMENT
___flags$ = 8						; size = 4
??_GioCreateDummyChar2Buff@@UAEPAXI@Z PROC		; ioCreateDummyChar2Buff::`scalar deleting destructor', COMDAT
; _this$ = ecx
  00000	55		 push	 ebp
  00001	8b ec		 mov	 ebp, esp
  00003	56		 push	 esi
  00004	8b f1		 mov	 esi, ecx
  00006	e8 00 00 00 00	 call	 ??1ioCreateDummyChar2Buff@@UAE@XZ ; ioCreateDummyChar2Buff::~ioCreateDummyChar2Buff
  0000b	f6 45 08 01	 test	 BYTE PTR ___flags$[ebp], 1
  0000f	74 07		 je	 SHORT $LN1@scalar@6
  00011	56		 push	 esi
  00012	e8 00 00 00 00	 call	 ??3@YAXPAX@Z		; operator delete
  00017	59		 pop	 ecx
$LN1@scalar@6:
  00018	8b c6		 mov	 eax, esi
  0001a	5e		 pop	 esi
  0001b	5d		 pop	 ebp
  0001c	c2 04 00	 ret	 4
??_GioCreateDummyChar2Buff@@UAEPAXI@Z ENDP		; ioCreateDummyChar2Buff::`scalar deleting destructor'
_TEXT	ENDS
PUBLIC	?ProcessCreateDummyState@ioCreateDummyChar2Buff@@IAEXPAVioBaseChar@@@Z ; ioCreateDummyChar2Buff::ProcessCreateDummyState
; Function compile flags: /Ogsp
;	COMDAT ?ProcessCreateDummyState@ioCreateDummyChar2Buff@@IAEXPAVioBaseChar@@@Z
_TEXT	SEGMENT
_pOwner$ = 8						; size = 4
?ProcessCreateDummyState@ioCreateDummyChar2Buff@@IAEXPAVioBaseChar@@@Z PROC ; ioCreateDummyChar2Buff::ProcessCreateDummyState, COMDAT
; _this$ = ecx

; 319  : {

  00000	55		 push	 ebp
  00001	8b ec		 mov	 ebp, esp
  00003	56		 push	 esi
  00004	8b f1		 mov	 esi, ecx

; 320  : 	if( m_dwCreateTime > 0 && m_dwCreateTime < FRAMEGETTIME() )

  00006	83 be dc 09 00
	00 00		 cmp	 DWORD PTR [esi+2524], 0
  0000d	57		 push	 edi
  0000e	8b 3d 00 00 00
	00		 mov	 edi, DWORD PTR __imp_?GetSingleton@ioFrameTimer@@SAAAV1@XZ
  00014	76 23		 jbe	 SHORT $LN3@ProcessCre
  00016	ff d7		 call	 edi
  00018	8b c8		 mov	 ecx, eax
  0001a	ff 15 00 00 00
	00		 call	 DWORD PTR __imp_?GetLoopSec@ioFrameTimer@@QBEKXZ
  00020	39 86 dc 09 00
	00		 cmp	 DWORD PTR [esi+2524], eax
  00026	73 11		 jae	 SHORT $LN3@ProcessCre

; 321  : 	{
; 322  : 		m_dwCreateTime = 0;
; 323  : 		CreateDummyChar( pOwner );

  00028	ff 75 08	 push	 DWORD PTR _pOwner$[ebp]
  0002b	83 a6 dc 09 00
	00 00		 and	 DWORD PTR [esi+2524], 0
  00032	8b ce		 mov	 ecx, esi
  00034	e8 00 00 00 00	 call	 ?CreateDummyChar@ioCreateDummyChar2Buff@@IAEXPAVioBaseChar@@@Z ; ioCreateDummyChar2Buff::CreateDummyChar
$LN3@ProcessCre:

; 324  : 	}
; 325  : 
; 326  : 	if( m_dwMotionEndTime < FRAMEGETTIME() )

  00039	ff d7		 call	 edi
  0003b	8b c8		 mov	 ecx, eax
  0003d	ff 15 00 00 00
	00		 call	 DWORD PTR __imp_?GetLoopSec@ioFrameTimer@@QBEKXZ
  00043	39 86 d4 09 00
	00		 cmp	 DWORD PTR [esi+2516], eax
  00049	73 25		 jae	 SHORT $LN1@ProcessCre

; 327  : 	{
; 328  : 		SetReadyState( pOwner );

  0004b	ff 75 08	 push	 DWORD PTR _pOwner$[ebp]
  0004e	8b ce		 mov	 ecx, esi
  00050	e8 00 00 00 00	 call	 ?SetReadyState@ioCreateDummyChar2Buff@@IAEXPAVioBaseChar@@@Z ; ioCreateDummyChar2Buff::SetReadyState

; 329  : 		if( CheckRestoreStateCheck() )

  00055	e8 00 00 00 00	 call	 ?CheckRestoreStateCheck@ioCreateDummyChar2Buff@@IAE_NXZ ; ioCreateDummyChar2Buff::CheckRestoreStateCheck
  0005a	84 c0		 test	 al, al
  0005c	74 12		 je	 SHORT $LN1@ProcessCre

; 330  : 			pOwner->SetState( CS_DELAY, m_bSendDelayNetWork );

  0005e	0f b6 86 f9 08
	00 00		 movzx	 eax, BYTE PTR [esi+2297]
  00065	8b 4d 08	 mov	 ecx, DWORD PTR _pOwner$[ebp]
  00068	50		 push	 eax
  00069	6a 00		 push	 0
  0006b	e8 00 00 00 00	 call	 ?SetState@ioBaseChar@@QAEXH_N@Z ; ioBaseChar::SetState
$LN1@ProcessCre:
  00070	5f		 pop	 edi
  00071	5e		 pop	 esi

; 331  : 	}
; 332  : }

  00072	5d		 pop	 ebp
  00073	c2 04 00	 ret	 4
?ProcessCreateDummyState@ioCreateDummyChar2Buff@@IAEXPAVioBaseChar@@@Z ENDP ; ioCreateDummyChar2Buff::ProcessCreateDummyState
_TEXT	ENDS
PUBLIC	?ProcessOwnerState@ioCreateDummyChar2Buff@@IAEXXZ ; ioCreateDummyChar2Buff::ProcessOwnerState
; Function compile flags: /Ogsp
;	COMDAT ?ProcessOwnerState@ioCreateDummyChar2Buff@@IAEXXZ
_TEXT	SEGMENT
?ProcessOwnerState@ioCreateDummyChar2Buff@@IAEXXZ PROC	; ioCreateDummyChar2Buff::ProcessOwnerState, COMDAT
; _this$ = ecx

; 287  : {

  00000	56		 push	 esi
  00001	8b f1		 mov	 esi, ecx

; 288  : 	ioBaseChar *pOwner = GetOwner();

  00003	e8 00 00 00 00	 call	 ?GetOwner@ioBuff@@QAEPAVioBaseChar@@XZ ; ioBuff::GetOwner

; 289  : 	if( !pOwner )

  00008	33 d2		 xor	 edx, edx
  0000a	3b c2		 cmp	 eax, edx
  0000c	74 42		 je	 SHORT $LN4@ProcessOwn

; 290  : 		return;
; 291  : 
; 292  : 	switch( m_BuffState )

  0000e	8b 8e 6c 09 00
	00		 mov	 ecx, DWORD PTR [esi+2412]
  00014	2b ca		 sub	 ecx, edx
  00016	74 0d		 je	 SHORT $LN3@ProcessOwn
  00018	49		 dec	 ecx
  00019	75 35		 jne	 SHORT $LN4@ProcessOwn

; 302  : 		break;
; 303  : 	case BS_CREATE_DUMMY:
; 304  : 		ProcessCreateDummyState( pOwner );

  0001b	50		 push	 eax
  0001c	8b ce		 mov	 ecx, esi
  0001e	e8 00 00 00 00	 call	 ?ProcessCreateDummyState@ioCreateDummyChar2Buff@@IAEXPAVioBaseChar@@@Z ; ioCreateDummyChar2Buff::ProcessCreateDummyState
  00023	5e		 pop	 esi

; 305  : 		break;
; 306  : 	}
; 307  : }

  00024	c3		 ret	 0
$LN3@ProcessOwn:

; 293  : 	{
; 294  : 	case BS_READY:
; 295  : 		if( m_iCurActiveCount <= 0 )

  00025	39 96 2c 09 00
	00		 cmp	 DWORD PTR [esi+2348], edx
  0002b	7f 1b		 jg	 SHORT $LN2@ProcessOwn

; 296  : 		{
; 297  : 			m_pOwner->CheckUseBuffSkill( m_Name, false );

  0002d	8b 8e 74 02 00
	00		 mov	 ecx, DWORD PTR [esi+628]
  00033	52		 push	 edx
  00034	8d 86 34 02 00
	00		 lea	 eax, DWORD PTR [esi+564]
  0003a	50		 push	 eax
  0003b	e8 00 00 00 00	 call	 ?CheckUseBuffSkill@ioBaseChar@@QAEXABVioHashString@@_N@Z ; ioBaseChar::CheckUseBuffSkill

; 298  : 			SetReserveEndBuff();

  00040	8b ce		 mov	 ecx, esi
  00042	5e		 pop	 esi
  00043	e9 00 00 00 00	 jmp	 ?SetReserveEndBuff@ioBuff@@QAEXXZ ; ioBuff::SetReserveEndBuff
$LN2@ProcessOwn:

; 299  : 			return;
; 300  : 		}
; 301  : 		ProcessReadyState( pOwner );

  00048	50		 push	 eax
  00049	8b ce		 mov	 ecx, esi
  0004b	e8 00 00 00 00	 call	 ?ProcessReadyState@ioCreateDummyChar2Buff@@IAEXPAVioBaseChar@@@Z ; ioCreateDummyChar2Buff::ProcessReadyState
$LN4@ProcessOwn:
  00050	5e		 pop	 esi

; 305  : 		break;
; 306  : 	}
; 307  : }

  00051	c3		 ret	 0
?ProcessOwnerState@ioCreateDummyChar2Buff@@IAEXXZ ENDP	; ioCreateDummyChar2Buff::ProcessOwnerState
_TEXT	ENDS
EXTRN	?CheckCallingAreaWeapon@ioBuff@@IAEXXZ:PROC	; ioBuff::CheckCallingAreaWeapon
EXTRN	?CheckSwitchType@ioBuff@@IAE_NM@Z:PROC		; ioBuff::CheckSwitchType
EXTRN	?GetBuffDuration@ioBuff@@IAEKXZ:PROC		; ioBuff::GetBuffDuration
EXTRN	?CheckCallingProcess@ioBuff@@IAEXXZ:PROC	; ioBuff::CheckCallingProcess
EXTRN	?CheckEnableDelayState@ioBuff@@IAE_NXZ:PROC	; ioBuff::CheckEnableDelayState
; Function compile flags: /Ogsp
;	COMDAT ?ProcessBuff@ioCreateDummyChar2Buff@@UAEXM@Z
_TEXT	SEGMENT
_value$538943 = 8					; size = 4
_value$538937 = 8					; size = 4
_fTimePerSec$ = 8					; size = 4
?ProcessBuff@ioCreateDummyChar2Buff@@UAEXM@Z PROC	; ioCreateDummyChar2Buff::ProcessBuff, COMDAT
; _this$ = ecx

; 97   : {

  00000	55		 push	 ebp
  00001	8b ec		 mov	 ebp, esp
  00003	56		 push	 esi
  00004	8b f1		 mov	 esi, ecx

; 98   : 	if( CheckOwnerStateCheck() )

  00006	e8 00 00 00 00	 call	 ?CheckOwnerStateCheck@ioCreateDummyChar2Buff@@IAE_NXZ ; ioCreateDummyChar2Buff::CheckOwnerStateCheck
  0000b	84 c0		 test	 al, al
  0000d	0f 85 33 01 00
	00		 jne	 $LN12@ProcessBuf

; 99   : 		return;
; 100  : 
; 101  : 	ProcessOwnerState();

  00013	53		 push	 ebx
  00014	8b ce		 mov	 ecx, esi
  00016	e8 00 00 00 00	 call	 ?ProcessOwnerState@ioCreateDummyChar2Buff@@IAEXXZ ; ioCreateDummyChar2Buff::ProcessOwnerState

; 102  : 
; 103  : 	switch( m_iOperationType )

  0001b	8b 86 d0 03 00
	00		 mov	 eax, DWORD PTR [esi+976]
  00021	33 db		 xor	 ebx, ebx
  00023	2b c3		 sub	 eax, ebx
  00025	0f 84 13 01 00
	00		 je	 $LN1@ProcessBuf
  0002b	48		 dec	 eax
  0002c	74 0e		 je	 SHORT $LN8@ProcessBuf
  0002e	48		 dec	 eax
  0002f	0f 84 c2 00 00
	00		 je	 $LN11@ProcessBuf
  00035	48		 dec	 eax
  00036	0f 85 09 01 00
	00		 jne	 $LN25@ProcessBuf
$LN8@ProcessBuf:

; 118  : 	case OT_DELAY:
; 119  : 	case OT_ACTIVE:
; 120  : 		{
; 121  : 			if( CheckEnableDelayState() )

  0003c	8b ce		 mov	 ecx, esi
  0003e	e8 00 00 00 00	 call	 ?CheckEnableDelayState@ioBuff@@IAE_NXZ ; ioBuff::CheckEnableDelayState
  00043	84 c0		 test	 al, al
  00045	0f 85 fa 00 00
	00		 jne	 $LN25@ProcessBuf

; 122  : 				return;
; 123  : 
; 124  : 			CheckCallingProcess();

  0004b	8b ce		 mov	 ecx, esi
  0004d	e8 00 00 00 00	 call	 ?CheckCallingProcess@ioBuff@@IAEXXZ ; ioBuff::CheckCallingProcess

; 125  : 
; 126  : 			if( GetBuffDuration() == 0 )

  00052	8b ce		 mov	 ecx, esi
  00054	e8 00 00 00 00	 call	 ?GetBuffDuration@ioBuff@@IAEKXZ ; ioBuff::GetBuffDuration
  00059	85 c0		 test	 eax, eax
  0005b	0f 84 e4 00 00
	00		 je	 $LN25@ProcessBuf

; 127  : 				return;
; 128  : 
; 129  : 			if( m_pOwner->GetState() != CS_JUMP || m_pOwner->GetJumpState() != JS_JUMPPING || m_BuffState != BS_CREATE_DUMMY )

  00061	8b 86 74 02 00
	00		 mov	 eax, DWORD PTR [esi+628]
  00067	80 b8 10 03 00
	00 04		 cmp	 BYTE PTR [eax+784], 4
  0006e	75 22		 jne	 SHORT $LN4@ProcessBuf
  00070	8d 4d 08	 lea	 ecx, DWORD PTR _value$538937[ebp]
  00073	51		 push	 ecx
  00074	8d 88 40 0e 00
	00		 lea	 ecx, DWORD PTR [eax+3648]
  0007a	e8 00 00 00 00	 call	 ?DecryptValueToPool@?$CEncrypt@W4JumpState@@@@QAEXPAW4JumpState@@@Z ; CEncrypt<enum JumpState>::DecryptValueToPool
  0007f	83 7d 08 02	 cmp	 DWORD PTR _value$538937[ebp], 2
  00083	75 0d		 jne	 SHORT $LN4@ProcessBuf
  00085	83 be 6c 09 00
	00 01		 cmp	 DWORD PTR [esi+2412], 1
  0008c	0f 84 b3 00 00
	00		 je	 $LN25@ProcessBuf
$LN4@ProcessBuf:
  00092	57		 push	 edi

; 130  : 			{
; 131  : 				if( m_dwBuffEndTime <= FRAMEGETTIME() )

  00093	ff 15 00 00 00
	00		 call	 DWORD PTR __imp_?GetSingleton@ioFrameTimer@@SAAAV1@XZ
  00099	8b c8		 mov	 ecx, eax
  0009b	ff 15 00 00 00
	00		 call	 DWORD PTR __imp_?GetLoopSec@ioFrameTimer@@QBEKXZ
  000a1	8b f8		 mov	 edi, eax
  000a3	8d 45 08	 lea	 eax, DWORD PTR _value$538943[ebp]
  000a6	50		 push	 eax
  000a7	8d 8e 9c 03 00
	00		 lea	 ecx, DWORD PTR [esi+924]
  000ad	e8 00 00 00 00	 call	 ?DecryptValueToPool@?$CEncrypt@K@@QAEXPAK@Z ; CEncrypt<unsigned long>::DecryptValueToPool
  000b2	39 7d 08	 cmp	 DWORD PTR _value$538943[ebp], edi
  000b5	5f		 pop	 edi
  000b6	0f 87 89 00 00
	00		 ja	 $LN25@ProcessBuf

; 132  : 				{
; 133  : 					if( CheckRestoreStateCheck() )

  000bc	8b ce		 mov	 ecx, esi
  000be	e8 00 00 00 00	 call	 ?CheckRestoreStateCheck@ioCreateDummyChar2Buff@@IAE_NXZ ; ioCreateDummyChar2Buff::CheckRestoreStateCheck
  000c3	84 c0		 test	 al, al
  000c5	74 14		 je	 SHORT $LN2@ProcessBuf

; 134  : 					{
; 135  : 						m_pOwner->SetState( CS_DELAY, m_bSendDelayNetWork );

  000c7	0f b6 86 f9 08
	00 00		 movzx	 eax, BYTE PTR [esi+2297]
  000ce	8b 8e 74 02 00
	00		 mov	 ecx, DWORD PTR [esi+628]
  000d4	50		 push	 eax
  000d5	53		 push	 ebx
$LN26@ProcessBuf:
  000d6	e8 00 00 00 00	 call	 ?SetState@ioBaseChar@@QAEXH_N@Z ; ioBaseChar::SetState
$LN2@ProcessBuf:

; 136  : 					}
; 137  : 
; 138  : 					m_pOwner->CheckUseBuffSkill( m_Name, false );

  000db	8b 8e 74 02 00
	00		 mov	 ecx, DWORD PTR [esi+628]
  000e1	53		 push	 ebx
  000e2	8d 86 34 02 00
	00		 lea	 eax, DWORD PTR [esi+564]
  000e8	50		 push	 eax
  000e9	e8 00 00 00 00	 call	 ?CheckUseBuffSkill@ioBaseChar@@QAEXABVioHashString@@_N@Z ; ioBaseChar::CheckUseBuffSkill

; 139  : 					SetReserveEndBuff();

  000ee	8b ce		 mov	 ecx, esi
  000f0	e8 00 00 00 00	 call	 ?SetReserveEndBuff@ioBuff@@QAEXXZ ; ioBuff::SetReserveEndBuff

; 140  : 					return;

  000f5	eb 4e		 jmp	 SHORT $LN25@ProcessBuf
$LN11@ProcessBuf:

; 104  : 	{
; 105  : 	case OT_SWITCH:
; 106  : 		if( !CheckSwitchType( fTimePerSec ) )

  000f7	f3 0f 10 45 08	 movss	 xmm0, DWORD PTR _fTimePerSec$[ebp]
  000fc	51		 push	 ecx
  000fd	8b ce		 mov	 ecx, esi
  000ff	f3 0f 11 04 24	 movss	 DWORD PTR [esp], xmm0
  00104	e8 00 00 00 00	 call	 ?CheckSwitchType@ioBuff@@IAE_NM@Z ; ioBuff::CheckSwitchType

; 107  : 		{
; 108  : 			if( GetOwner() && CheckRestoreStateCheck() )

  00109	8b ce		 mov	 ecx, esi
  0010b	84 c0		 test	 al, al
  0010d	75 28		 jne	 SHORT $LN10@ProcessBuf
  0010f	e8 00 00 00 00	 call	 ?GetOwner@ioBuff@@QAEPAVioBaseChar@@XZ ; ioBuff::GetOwner
  00114	85 c0		 test	 eax, eax
  00116	74 c3		 je	 SHORT $LN2@ProcessBuf
  00118	8b ce		 mov	 ecx, esi
  0011a	e8 00 00 00 00	 call	 ?CheckRestoreStateCheck@ioCreateDummyChar2Buff@@IAE_NXZ ; ioCreateDummyChar2Buff::CheckRestoreStateCheck
  0011f	84 c0		 test	 al, al
  00121	74 b8		 je	 SHORT $LN2@ProcessBuf

; 109  : 				GetOwner()->SetState( CS_DELAY, m_bSendDelayNetWork );

  00123	0f b6 86 f9 08
	00 00		 movzx	 eax, BYTE PTR [esi+2297]
  0012a	50		 push	 eax
  0012b	53		 push	 ebx
  0012c	8b ce		 mov	 ecx, esi
  0012e	e8 00 00 00 00	 call	 ?GetOwner@ioBuff@@QAEPAVioBaseChar@@XZ ; ioBuff::GetOwner
  00133	8b c8		 mov	 ecx, eax

; 110  : 
; 111  : 			m_pOwner->CheckUseBuffSkill( m_Name, false );
; 112  : 			SetReserveEndBuff();
; 113  : 			return;

  00135	eb 9f		 jmp	 SHORT $LN26@ProcessBuf
$LN10@ProcessBuf:

; 114  : 		}
; 115  : 
; 116  : 		CheckCallingProcess();

  00137	e8 00 00 00 00	 call	 ?CheckCallingProcess@ioBuff@@IAEXXZ ; ioBuff::CheckCallingProcess

; 117  : 		break;

  0013c	eb 07		 jmp	 SHORT $LN25@ProcessBuf
$LN1@ProcessBuf:

; 141  : 				}
; 142  : 			}
; 143  : 		}
; 144  : 		break;
; 145  : 	case OT_PASSIVE:
; 146  : 		CheckCallingAreaWeapon();

  0013e	8b ce		 mov	 ecx, esi
  00140	e8 00 00 00 00	 call	 ?CheckCallingAreaWeapon@ioBuff@@IAEXXZ ; ioBuff::CheckCallingAreaWeapon
$LN25@ProcessBuf:
  00145	5b		 pop	 ebx
$LN12@ProcessBuf:
  00146	5e		 pop	 esi

; 147  : 		break;
; 148  : 	}
; 149  : }

  00147	5d		 pop	 ebp
  00148	c2 04 00	 ret	 4
?ProcessBuff@ioCreateDummyChar2Buff@@UAEXM@Z ENDP	; ioCreateDummyChar2Buff::ProcessBuff
_TEXT	ENDS
END
