; Listing generated by Microsoft (R) Optimizing Compiler Version 16.00.30319.01 

	TITLE	D:\Lost Saga For Developer\Youtube\Tutorial\Source\src\LSClient\ioCreateDummyCharBuff.cpp
	.686P
	.XMM
	include listing.inc
	.model	flat

INCLUDELIB MSVCRT
INCLUDELIB OLDNAMES

PUBLIC	?_EEM_DS@?$deque@UD3DXVECTOR3@@V?$allocator@UD3DXVECTOR3@@@std@@@std@@2HB ; std::deque<D3DXVECTOR3,std::allocator<D3DXVECTOR3> >::_EEM_DS
;	COMDAT ?_EEM_DS@?$deque@UD3DXVECTOR3@@V?$allocator@UD3DXVECTOR3@@@std@@@std@@2HB
CONST	SEGMENT
?_EEM_DS@?$deque@UD3DXVECTOR3@@V?$allocator@UD3DXVECTOR3@@@std@@@std@@2HB DD 01H ; std::deque<D3DXVECTOR3,std::allocator<D3DXVECTOR3> >::_EEM_DS
CONST	ENDS
PUBLIC	?return1@@YAIXZ					; return1
; Function compile flags: /Ogsp
; File d:\lost saga for developer\youtube\tutorial\source\src\lsclient\stdafx.h
;	COMDAT ?return1@@YAIXZ
_TEXT	SEGMENT
?return1@@YAIXZ PROC					; return1, COMDAT

; 17   : 	__forceinline unsigned int return1() { __asm mov eax, 1 };

  00000	b8 01 00 00 00	 mov	 eax, 1
  00005	c3		 ret	 0
?return1@@YAIXZ ENDP					; return1
_TEXT	ENDS
PUBLIC	?SetHideFootDustEffect@ioBaseChar@@QAEX_N@Z	; ioBaseChar::SetHideFootDustEffect
; Function compile flags: /Ogsp
; File d:\lost saga for developer\youtube\tutorial\source\src\lsclient\iobasechar.h
;	COMDAT ?SetHideFootDustEffect@ioBaseChar@@QAEX_N@Z
_TEXT	SEGMENT
_bIgnore$ = 8						; size = 1
?SetHideFootDustEffect@ioBaseChar@@QAEX_N@Z PROC	; ioBaseChar::SetHideFootDustEffect, COMDAT
; _this$ = ecx

; 1461 : 	void SetHideFootDustEffect( bool bIgnore ) { m_bHideFootDustEffect = bIgnore; }

  00000	55		 push	 ebp
  00001	8b ec		 mov	 ebp, esp
  00003	8a 45 08	 mov	 al, BYTE PTR _bIgnore$[ebp]
  00006	88 81 de 13 00
	00		 mov	 BYTE PTR [ecx+5086], al
  0000c	5d		 pop	 ebp
  0000d	c2 04 00	 ret	 4
?SetHideFootDustEffect@ioBaseChar@@QAEX_N@Z ENDP	; ioBaseChar::SetHideFootDustEffect
_TEXT	ENDS
PUBLIC	?GetBlowStopMotionState@ioBaseChar@@QBE_NXZ	; ioBaseChar::GetBlowStopMotionState
; Function compile flags: /Ogsp
;	COMDAT ?GetBlowStopMotionState@ioBaseChar@@QBE_NXZ
_TEXT	SEGMENT
?GetBlowStopMotionState@ioBaseChar@@QBE_NXZ PROC	; ioBaseChar::GetBlowStopMotionState, COMDAT
; _this$ = ecx

; 1566 : 	inline bool GetBlowStopMotionState() const { return m_bBlowStopMotion; }

  00000	8a 81 c7 15 00
	00		 mov	 al, BYTE PTR [ecx+5575]
  00006	c3		 ret	 0
?GetBlowStopMotionState@ioBaseChar@@QBE_NXZ ENDP	; ioBaseChar::GetBlowStopMotionState
_TEXT	ENDS
PUBLIC	?GetBlowFrozenState@ioBaseChar@@QBE_NXZ		; ioBaseChar::GetBlowFrozenState
; Function compile flags: /Ogsp
;	COMDAT ?GetBlowFrozenState@ioBaseChar@@QBE_NXZ
_TEXT	SEGMENT
?GetBlowFrozenState@ioBaseChar@@QBE_NXZ PROC		; ioBaseChar::GetBlowFrozenState, COMDAT
; _this$ = ecx

; 1571 : 	inline bool GetBlowFrozenState() const { return m_bBlowFrozenState; }

  00000	8a 81 c5 15 00
	00		 mov	 al, BYTE PTR [ecx+5573]
  00006	c3		 ret	 0
?GetBlowFrozenState@ioBaseChar@@QBE_NXZ ENDP		; ioBaseChar::GetBlowFrozenState
_TEXT	ENDS
PUBLIC	?GetState@ioBaseChar@@QBE?AW4CharState@@XZ	; ioBaseChar::GetState
; Function compile flags: /Ogsp
;	COMDAT ?GetState@ioBaseChar@@QBE?AW4CharState@@XZ
_TEXT	SEGMENT
?GetState@ioBaseChar@@QBE?AW4CharState@@XZ PROC		; ioBaseChar::GetState, COMDAT
; _this$ = ecx

; 2156 : 	inline CharState GetState() const { return m_CharState; }	

  00000	8a 81 10 03 00
	00		 mov	 al, BYTE PTR [ecx+784]
  00006	c3		 ret	 0
?GetState@ioBaseChar@@QBE?AW4CharState@@XZ ENDP		; ioBaseChar::GetState
_TEXT	ENDS
PUBLIC	?GetCharName@ioBaseChar@@QBEABVioHashString@@XZ	; ioBaseChar::GetCharName
; Function compile flags: /Ogsp
;	COMDAT ?GetCharName@ioBaseChar@@QBEABVioHashString@@XZ
_TEXT	SEGMENT
?GetCharName@ioBaseChar@@QBEABVioHashString@@XZ PROC	; ioBaseChar::GetCharName, COMDAT
; _this$ = ecx

; 2594 : 	inline const ioHashString& GetCharName() const { return m_Name; }

  00000	8d 81 d4 02 00
	00		 lea	 eax, DWORD PTR [ecx+724]
  00006	c3		 ret	 0
?GetCharName@ioBaseChar@@QBEABVioHashString@@XZ ENDP	; ioBaseChar::GetCharName
_TEXT	ENDS
PUBLIC	?GetTargetRot@ioBaseChar@@QBEABUD3DXQUATERNION@@XZ ; ioBaseChar::GetTargetRot
; Function compile flags: /Ogsp
;	COMDAT ?GetTargetRot@ioBaseChar@@QBEABUD3DXQUATERNION@@XZ
_TEXT	SEGMENT
?GetTargetRot@ioBaseChar@@QBEABUD3DXQUATERNION@@XZ PROC	; ioBaseChar::GetTargetRot, COMDAT
; _this$ = ecx

; 2599 : 	inline const D3DXQUATERNION& GetTargetRot() const { return m_qtTargetRot; }

  00000	8d 81 a4 06 00
	00		 lea	 eax, DWORD PTR [ecx+1700]
  00006	c3		 ret	 0
?GetTargetRot@ioBaseChar@@QBEABUD3DXQUATERNION@@XZ ENDP	; ioBaseChar::GetTargetRot
_TEXT	ENDS
PUBLIC	??_7bad_alloc@std@@6B@				; std::bad_alloc::`vftable'
PUBLIC	??0bad_alloc@std@@QAE@PBD@Z			; std::bad_alloc::bad_alloc
PUBLIC	??_R4bad_alloc@std@@6B@				; std::bad_alloc::`RTTI Complete Object Locator'
PUBLIC	??_R0?AVbad_alloc@std@@@8			; std::bad_alloc `RTTI Type Descriptor'
PUBLIC	??_R3bad_alloc@std@@8				; std::bad_alloc::`RTTI Class Hierarchy Descriptor'
PUBLIC	??_R2bad_alloc@std@@8				; std::bad_alloc::`RTTI Base Class Array'
PUBLIC	??_R1A@?0A@EA@bad_alloc@std@@8			; std::bad_alloc::`RTTI Base Class Descriptor at (0,-1,0,64)'
PUBLIC	??_R1A@?0A@EA@exception@std@@8			; std::exception::`RTTI Base Class Descriptor at (0,-1,0,64)'
PUBLIC	??_R0?AVexception@std@@@8			; std::exception `RTTI Type Descriptor'
PUBLIC	??_R3exception@std@@8				; std::exception::`RTTI Class Hierarchy Descriptor'
PUBLIC	??_R2exception@std@@8				; std::exception::`RTTI Base Class Array'
EXTRN	__imp_??0exception@std@@QAE@ABQBD@Z:PROC
EXTRN	??_7type_info@@6B@:QWORD			; type_info::`vftable'
EXTRN	??_Ebad_alloc@std@@UAEPAXI@Z:PROC		; std::bad_alloc::`vector deleting destructor'
EXTRN	?what@exception@std@@UBEPBDXZ:PROC		; std::exception::what
;	COMDAT ??_R2exception@std@@8
; File c:\program files (x86)\microsoft visual studio 10.0\vc\include\exception
rdata$r	SEGMENT
??_R2exception@std@@8 DD FLAT:??_R1A@?0A@EA@exception@std@@8 ; std::exception::`RTTI Base Class Array'
rdata$r	ENDS
;	COMDAT ??_R3exception@std@@8
rdata$r	SEGMENT
??_R3exception@std@@8 DD 00H				; std::exception::`RTTI Class Hierarchy Descriptor'
	DD	00H
	DD	01H
	DD	FLAT:??_R2exception@std@@8
rdata$r	ENDS
;	COMDAT ??_R0?AVexception@std@@@8
_DATA	SEGMENT
??_R0?AVexception@std@@@8 DD FLAT:??_7type_info@@6B@	; std::exception `RTTI Type Descriptor'
	DD	00H
	DB	'.?AVexception@std@@', 00H
_DATA	ENDS
;	COMDAT ??_R1A@?0A@EA@exception@std@@8
rdata$r	SEGMENT
??_R1A@?0A@EA@exception@std@@8 DD FLAT:??_R0?AVexception@std@@@8 ; std::exception::`RTTI Base Class Descriptor at (0,-1,0,64)'
	DD	00H
	DD	00H
	DD	0ffffffffH
	DD	00H
	DD	040H
	DD	FLAT:??_R3exception@std@@8
rdata$r	ENDS
;	COMDAT ??_R1A@?0A@EA@bad_alloc@std@@8
rdata$r	SEGMENT
??_R1A@?0A@EA@bad_alloc@std@@8 DD FLAT:??_R0?AVbad_alloc@std@@@8 ; std::bad_alloc::`RTTI Base Class Descriptor at (0,-1,0,64)'
	DD	01H
	DD	00H
	DD	0ffffffffH
	DD	00H
	DD	040H
	DD	FLAT:??_R3bad_alloc@std@@8
rdata$r	ENDS
;	COMDAT ??_R2bad_alloc@std@@8
rdata$r	SEGMENT
??_R2bad_alloc@std@@8 DD FLAT:??_R1A@?0A@EA@bad_alloc@std@@8 ; std::bad_alloc::`RTTI Base Class Array'
	DD	FLAT:??_R1A@?0A@EA@exception@std@@8
rdata$r	ENDS
;	COMDAT ??_R3bad_alloc@std@@8
rdata$r	SEGMENT
??_R3bad_alloc@std@@8 DD 00H				; std::bad_alloc::`RTTI Class Hierarchy Descriptor'
	DD	00H
	DD	02H
	DD	FLAT:??_R2bad_alloc@std@@8
rdata$r	ENDS
;	COMDAT ??_R0?AVbad_alloc@std@@@8
_DATA	SEGMENT
??_R0?AVbad_alloc@std@@@8 DD FLAT:??_7type_info@@6B@	; std::bad_alloc `RTTI Type Descriptor'
	DD	00H
	DB	'.?AVbad_alloc@std@@', 00H
_DATA	ENDS
;	COMDAT ??_R4bad_alloc@std@@6B@
rdata$r	SEGMENT
??_R4bad_alloc@std@@6B@ DD 00H				; std::bad_alloc::`RTTI Complete Object Locator'
	DD	00H
	DD	00H
	DD	FLAT:??_R0?AVbad_alloc@std@@@8
	DD	FLAT:??_R3bad_alloc@std@@8
rdata$r	ENDS
;	COMDAT ??_7bad_alloc@std@@6B@
CONST	SEGMENT
??_7bad_alloc@std@@6B@ DD FLAT:??_R4bad_alloc@std@@6B@	; std::bad_alloc::`vftable'
	DD	FLAT:??_Ebad_alloc@std@@UAEPAXI@Z
	DD	FLAT:?what@exception@std@@UBEPBDXZ
; Function compile flags: /Ogsp
CONST	ENDS
;	COMDAT ??0bad_alloc@std@@QAE@PBD@Z
_TEXT	SEGMENT
__Message$ = 8						; size = 4
??0bad_alloc@std@@QAE@PBD@Z PROC			; std::bad_alloc::bad_alloc, COMDAT
; _this$ = ecx

; 345  : 		{	// construct from message string

  00000	55		 push	 ebp
  00001	8b ec		 mov	 ebp, esp
  00003	56		 push	 esi
  00004	8d 45 08	 lea	 eax, DWORD PTR __Message$[ebp]
  00007	50		 push	 eax
  00008	8b f1		 mov	 esi, ecx
  0000a	ff 15 00 00 00
	00		 call	 DWORD PTR __imp_??0exception@std@@QAE@ABQBD@Z
  00010	c7 06 00 00 00
	00		 mov	 DWORD PTR [esi], OFFSET ??_7bad_alloc@std@@6B@

; 346  : 		}

  00016	8b c6		 mov	 eax, esi
  00018	5e		 pop	 esi
  00019	5d		 pop	 ebp
  0001a	c2 04 00	 ret	 4
??0bad_alloc@std@@QAE@PBD@Z ENDP			; std::bad_alloc::bad_alloc
_TEXT	ENDS
PUBLIC	??1bad_alloc@std@@UAE@XZ			; std::bad_alloc::~bad_alloc
EXTRN	__imp_??1exception@std@@UAE@XZ:PROC
; Function compile flags: /Ogsp
;	COMDAT ??1bad_alloc@std@@UAE@XZ
_TEXT	SEGMENT
??1bad_alloc@std@@UAE@XZ PROC				; std::bad_alloc::~bad_alloc, COMDAT
; _this$ = ecx

; 354  : 		{	// destroy the object

  00000	c7 01 00 00 00
	00		 mov	 DWORD PTR [ecx], OFFSET ??_7bad_alloc@std@@6B@

; 355  : 		}

  00006	ff 25 00 00 00
	00		 jmp	 DWORD PTR __imp_??1exception@std@@UAE@XZ
??1bad_alloc@std@@UAE@XZ ENDP				; std::bad_alloc::~bad_alloc
_TEXT	ENDS
EXTRN	??3@YAXPAX@Z:PROC				; operator delete
; Function compile flags: /Ogsp
;	COMDAT ??_Gbad_alloc@std@@UAEPAXI@Z
_TEXT	SEGMENT
___flags$ = 8						; size = 4
??_Gbad_alloc@std@@UAEPAXI@Z PROC			; std::bad_alloc::`scalar deleting destructor', COMDAT
; _this$ = ecx
  00000	55		 push	 ebp
  00001	8b ec		 mov	 ebp, esp
  00003	56		 push	 esi
  00004	8b f1		 mov	 esi, ecx
  00006	c7 06 00 00 00
	00		 mov	 DWORD PTR [esi], OFFSET ??_7bad_alloc@std@@6B@
  0000c	ff 15 00 00 00
	00		 call	 DWORD PTR __imp_??1exception@std@@UAE@XZ
  00012	f6 45 08 01	 test	 BYTE PTR ___flags$[ebp], 1
  00016	74 07		 je	 SHORT $LN1@scalar
  00018	56		 push	 esi
  00019	e8 00 00 00 00	 call	 ??3@YAXPAX@Z		; operator delete
  0001e	59		 pop	 ecx
$LN1@scalar:
  0001f	8b c6		 mov	 eax, esi
  00021	5e		 pop	 esi
  00022	5d		 pop	 ebp
  00023	c2 04 00	 ret	 4
??_Gbad_alloc@std@@UAEPAXI@Z ENDP			; std::bad_alloc::`scalar deleting destructor'
_TEXT	ENDS
PUBLIC	??2@YAPAXIPAX@Z					; operator new
; Function compile flags: /Ogsp
; File c:\program files (x86)\microsoft visual studio 10.0\vc\include\new
;	COMDAT ??2@YAPAXIPAX@Z
_TEXT	SEGMENT
___formal$ = 8						; size = 4
__Where$ = 12						; size = 4
??2@YAPAXIPAX@Z PROC					; operator new, COMDAT

; 56   : 	{	// construct array with placement at _Where

  00000	55		 push	 ebp
  00001	8b ec		 mov	 ebp, esp

; 57   : 	return (_Where);

  00003	8b 45 0c	 mov	 eax, DWORD PTR __Where$[ebp]

; 58   : 	}

  00006	5d		 pop	 ebp
  00007	c3		 ret	 0
??2@YAPAXIPAX@Z ENDP					; operator new
_TEXT	ENDS
PUBLIC	??3@YAXPAX0@Z					; operator delete
; Function compile flags: /Ogsp
;	COMDAT ??3@YAXPAX0@Z
_TEXT	SEGMENT
___formal$ = 8						; size = 4
___formal$ = 12						; size = 4
??3@YAXPAX0@Z PROC					; operator delete, COMDAT

; 62   : 	}

  00000	c3		 ret	 0
??3@YAXPAX0@Z ENDP					; operator delete
_TEXT	ENDS
PUBLIC	?GetCreator@ioBaseChar@@QAEPAVioPlayStage@@XZ	; ioBaseChar::GetCreator
; Function compile flags: /Ogsp
; File d:\lost saga for developer\youtube\tutorial\source\src\lsclient\iobasechar.h
;	COMDAT ?GetCreator@ioBaseChar@@QAEPAVioPlayStage@@XZ
_TEXT	SEGMENT
?GetCreator@ioBaseChar@@QAEPAVioPlayStage@@XZ PROC	; ioBaseChar::GetCreator, COMDAT
; _this$ = ecx

; 4013 : 	inline ioPlayStage* GetCreator() { return m_pCreator; }

  00000	8b 81 44 03 00
	00		 mov	 eax, DWORD PTR [ecx+836]
  00006	c3		 ret	 0
?GetCreator@ioBaseChar@@QAEPAVioPlayStage@@XZ ENDP	; ioBaseChar::GetCreator
_TEXT	ENDS
PUBLIC	?_Adopt@_Iterator_base0@std@@QAEXPBX@Z		; std::_Iterator_base0::_Adopt
; Function compile flags: /Ogsp
; File c:\program files (x86)\microsoft visual studio 10.0\vc\include\xutility
;	COMDAT ?_Adopt@_Iterator_base0@std@@QAEXPBX@Z
_TEXT	SEGMENT
___formal$ = 8						; size = 4
?_Adopt@_Iterator_base0@std@@QAEXPBX@Z PROC		; std::_Iterator_base0::_Adopt, COMDAT
; _this$ = ecx

; 49   : 		}

  00000	c2 04 00	 ret	 4
?_Adopt@_Iterator_base0@std@@QAEXPBX@Z ENDP		; std::_Iterator_base0::_Adopt
_TEXT	ENDS
PUBLIC	?CheckRestoreStateCheck@ioCreateDummyCharBuff@@IAE_NXZ ; ioCreateDummyCharBuff::CheckRestoreStateCheck
; Function compile flags: /Ogsp
; File d:\lost saga for developer\youtube\tutorial\source\src\lsclient\iocreatedummycharbuff.cpp
;	COMDAT ?CheckRestoreStateCheck@ioCreateDummyCharBuff@@IAE_NXZ
_TEXT	SEGMENT
?CheckRestoreStateCheck@ioCreateDummyCharBuff@@IAE_NXZ PROC ; ioCreateDummyCharBuff::CheckRestoreStateCheck, COMDAT
; _this$ = ecx

; 234  : 	if( !m_pOwner ) return false;

  00000	8b 81 74 02 00
	00		 mov	 eax, DWORD PTR [ecx+628]
  00006	85 c0		 test	 eax, eax
  00008	75 03		 jne	 SHORT $LN4@CheckResto
  0000a	32 c0		 xor	 al, al

; 239  : 	{
; 240  : 	case CS_DELAY:
; 241  : 	case CS_RUN:
; 242  : 	case CS_DASH:
; 243  : 		return true;
; 244  : 	}
; 245  : 
; 246  : 	return false;
; 247  : }

  0000c	c3		 ret	 0
$LN4@CheckResto:

; 235  : 
; 236  : 	CharState eState = m_pOwner->GetState();

  0000d	8a 80 10 03 00
	00		 mov	 al, BYTE PTR [eax+784]

; 237  : 
; 238  : 	switch( eState )

  00013	b1 02		 mov	 cl, 2
  00015	3a c8		 cmp	 cl, al
  00017	1a c0		 sbb	 al, al
  00019	fe c0		 inc	 al

; 239  : 	{
; 240  : 	case CS_DELAY:
; 241  : 	case CS_RUN:
; 242  : 	case CS_DASH:
; 243  : 		return true;
; 244  : 	}
; 245  : 
; 246  : 	return false;
; 247  : }

  0001b	c3		 ret	 0
?CheckRestoreStateCheck@ioCreateDummyCharBuff@@IAE_NXZ ENDP ; ioCreateDummyCharBuff::CheckRestoreStateCheck
_TEXT	ENDS
PUBLIC	??1tagDummyCharCreateInfo@@QAE@XZ		; tagDummyCharCreateInfo::~tagDummyCharCreateInfo
EXTRN	__imp_??1ioHashString@@QAE@XZ:PROC
; Function compile flags: /Ogsp
;	COMDAT ??1tagDummyCharCreateInfo@@QAE@XZ
_TEXT	SEGMENT
??1tagDummyCharCreateInfo@@QAE@XZ PROC			; tagDummyCharCreateInfo::~tagDummyCharCreateInfo, COMDAT
; _this$ = ecx
  00000	ff 25 00 00 00
	00		 jmp	 DWORD PTR __imp_??1ioHashString@@QAE@XZ
??1tagDummyCharCreateInfo@@QAE@XZ ENDP			; tagDummyCharCreateInfo::~tagDummyCharCreateInfo
_TEXT	ENDS
PUBLIC	?CheckActiveCount@ioCreateDummyCharBuff@@UAEXXZ	; ioCreateDummyCharBuff::CheckActiveCount
; Function compile flags: /Ogsp
;	COMDAT ?CheckActiveCount@ioCreateDummyCharBuff@@UAEXXZ
_TEXT	SEGMENT
?CheckActiveCount@ioCreateDummyCharBuff@@UAEXXZ PROC	; ioCreateDummyCharBuff::CheckActiveCount, COMDAT
; _this$ = ecx

; 473  : 	m_iCurActiveCount--;

  00000	8d 81 2c 09 00
	00		 lea	 eax, DWORD PTR [ecx+2348]
  00006	ff 08		 dec	 DWORD PTR [eax]
  00008	8b 08		 mov	 ecx, DWORD PTR [eax]

; 474  : 	m_iCurActiveCount = max( m_iCurActiveCount, 0 );

  0000a	85 c9		 test	 ecx, ecx
  0000c	7f 02		 jg	 SHORT $LN4@CheckActiv
  0000e	33 c9		 xor	 ecx, ecx
$LN4@CheckActiv:
  00010	89 08		 mov	 DWORD PTR [eax], ecx

; 475  : }

  00012	c3		 ret	 0
?CheckActiveCount@ioCreateDummyCharBuff@@UAEXXZ ENDP	; ioCreateDummyCharBuff::CheckActiveCount
_TEXT	ENDS
PUBLIC	?size@?$vector@UtagDummyCharLoadInfo@@V?$allocator@UtagDummyCharLoadInfo@@@std@@@std@@QBEIXZ ; std::vector<tagDummyCharLoadInfo,std::allocator<tagDummyCharLoadInfo> >::size
; Function compile flags: /Ogsp
; File c:\program files (x86)\microsoft visual studio 10.0\vc\include\vector
;	COMDAT ?size@?$vector@UtagDummyCharLoadInfo@@V?$allocator@UtagDummyCharLoadInfo@@@std@@@std@@QBEIXZ
_TEXT	SEGMENT
?size@?$vector@UtagDummyCharLoadInfo@@V?$allocator@UtagDummyCharLoadInfo@@@std@@@std@@QBEIXZ PROC ; std::vector<tagDummyCharLoadInfo,std::allocator<tagDummyCharLoadInfo> >::size, COMDAT
; _this$ = ecx

; 879  : 		return (this->_Mylast - this->_Myfirst);

  00000	8b 41 04	 mov	 eax, DWORD PTR [ecx+4]
  00003	2b 01		 sub	 eax, DWORD PTR [ecx]
  00005	6a 1c		 push	 28			; 0000001cH
  00007	99		 cdq
  00008	59		 pop	 ecx
  00009	f7 f9		 idiv	 ecx

; 880  : 		}

  0000b	c3		 ret	 0
?size@?$vector@UtagDummyCharLoadInfo@@V?$allocator@UtagDummyCharLoadInfo@@@std@@@std@@QBEIXZ ENDP ; std::vector<tagDummyCharLoadInfo,std::allocator<tagDummyCharLoadInfo> >::size
_TEXT	ENDS
PUBLIC	?empty@?$vector@UtagDummyCharLoadInfo@@V?$allocator@UtagDummyCharLoadInfo@@@std@@@std@@QBE_NXZ ; std::vector<tagDummyCharLoadInfo,std::allocator<tagDummyCharLoadInfo> >::empty
; Function compile flags: /Ogsp
;	COMDAT ?empty@?$vector@UtagDummyCharLoadInfo@@V?$allocator@UtagDummyCharLoadInfo@@@std@@@std@@QBE_NXZ
_TEXT	SEGMENT
?empty@?$vector@UtagDummyCharLoadInfo@@V?$allocator@UtagDummyCharLoadInfo@@@std@@@std@@QBE_NXZ PROC ; std::vector<tagDummyCharLoadInfo,std::allocator<tagDummyCharLoadInfo> >::empty, COMDAT
; _this$ = ecx

; 889  : 		return (this->_Myfirst == this->_Mylast);

  00000	8b 01		 mov	 eax, DWORD PTR [ecx]
  00002	2b 41 04	 sub	 eax, DWORD PTR [ecx+4]
  00005	f7 d8		 neg	 eax
  00007	1b c0		 sbb	 eax, eax
  00009	40		 inc	 eax

; 890  : 		}

  0000a	c3		 ret	 0
?empty@?$vector@UtagDummyCharLoadInfo@@V?$allocator@UtagDummyCharLoadInfo@@@std@@@std@@QBE_NXZ ENDP ; std::vector<tagDummyCharLoadInfo,std::allocator<tagDummyCharLoadInfo> >::empty
_TEXT	ENDS
PUBLIC	??A?$vector@UtagDummyCharLoadInfo@@V?$allocator@UtagDummyCharLoadInfo@@@std@@@std@@QAEAAUtagDummyCharLoadInfo@@I@Z ; std::vector<tagDummyCharLoadInfo,std::allocator<tagDummyCharLoadInfo> >::operator[]
; Function compile flags: /Ogsp
;	COMDAT ??A?$vector@UtagDummyCharLoadInfo@@V?$allocator@UtagDummyCharLoadInfo@@@std@@@std@@QAEAAUtagDummyCharLoadInfo@@I@Z
_TEXT	SEGMENT
__Pos$ = 8						; size = 4
??A?$vector@UtagDummyCharLoadInfo@@V?$allocator@UtagDummyCharLoadInfo@@@std@@@std@@QAEAAUtagDummyCharLoadInfo@@I@Z PROC ; std::vector<tagDummyCharLoadInfo,std::allocator<tagDummyCharLoadInfo> >::operator[], COMDAT
; _this$ = ecx

; 928  : 		{	// subscript mutable sequence

  00000	55		 push	 ebp
  00001	8b ec		 mov	 ebp, esp

; 929  :  #if _ITERATOR_DEBUG_LEVEL == 2
; 930  : 		if (size() <= _Pos)
; 931  : 			{	// report error
; 932  : 			_DEBUG_ERROR("vector subscript out of range");
; 933  : 			_SCL_SECURE_OUT_OF_RANGE;
; 934  : 			}
; 935  : 
; 936  :  #elif _ITERATOR_DEBUG_LEVEL == 1
; 937  : 		_SCL_SECURE_VALIDATE_RANGE(_Pos < size());
; 938  :  #endif /* _ITERATOR_DEBUG_LEVEL */
; 939  : 
; 940  : 		return (*(this->_Myfirst + _Pos));

  00003	8b 45 08	 mov	 eax, DWORD PTR __Pos$[ebp]
  00006	6b c0 1c	 imul	 eax, 28			; 0000001cH
  00009	03 01		 add	 eax, DWORD PTR [ecx]

; 941  : 		}

  0000b	5d		 pop	 ebp
  0000c	c2 04 00	 ret	 4
??A?$vector@UtagDummyCharLoadInfo@@V?$allocator@UtagDummyCharLoadInfo@@@std@@@std@@QAEAAUtagDummyCharLoadInfo@@I@Z ENDP ; std::vector<tagDummyCharLoadInfo,std::allocator<tagDummyCharLoadInfo> >::operator[]
_TEXT	ENDS
PUBLIC	?size@?$vector@UtagDummyCharCreateInfo@@V?$allocator@UtagDummyCharCreateInfo@@@std@@@std@@QBEIXZ ; std::vector<tagDummyCharCreateInfo,std::allocator<tagDummyCharCreateInfo> >::size
; Function compile flags: /Ogsp
;	COMDAT ?size@?$vector@UtagDummyCharCreateInfo@@V?$allocator@UtagDummyCharCreateInfo@@@std@@@std@@QBEIXZ
_TEXT	SEGMENT
?size@?$vector@UtagDummyCharCreateInfo@@V?$allocator@UtagDummyCharCreateInfo@@@std@@@std@@QBEIXZ PROC ; std::vector<tagDummyCharCreateInfo,std::allocator<tagDummyCharCreateInfo> >::size, COMDAT
; _this$ = ecx

; 879  : 		return (this->_Mylast - this->_Myfirst);

  00000	8b 41 04	 mov	 eax, DWORD PTR [ecx+4]
  00003	2b 01		 sub	 eax, DWORD PTR [ecx]
  00005	6a 24		 push	 36			; 00000024H
  00007	99		 cdq
  00008	59		 pop	 ecx
  00009	f7 f9		 idiv	 ecx

; 880  : 		}

  0000b	c3		 ret	 0
?size@?$vector@UtagDummyCharCreateInfo@@V?$allocator@UtagDummyCharCreateInfo@@@std@@@std@@QBEIXZ ENDP ; std::vector<tagDummyCharCreateInfo,std::allocator<tagDummyCharCreateInfo> >::size
_TEXT	ENDS
PUBLIC	??A?$vector@UtagDummyCharCreateInfo@@V?$allocator@UtagDummyCharCreateInfo@@@std@@@std@@QAEAAUtagDummyCharCreateInfo@@I@Z ; std::vector<tagDummyCharCreateInfo,std::allocator<tagDummyCharCreateInfo> >::operator[]
; Function compile flags: /Ogsp
;	COMDAT ??A?$vector@UtagDummyCharCreateInfo@@V?$allocator@UtagDummyCharCreateInfo@@@std@@@std@@QAEAAUtagDummyCharCreateInfo@@I@Z
_TEXT	SEGMENT
__Pos$ = 8						; size = 4
??A?$vector@UtagDummyCharCreateInfo@@V?$allocator@UtagDummyCharCreateInfo@@@std@@@std@@QAEAAUtagDummyCharCreateInfo@@I@Z PROC ; std::vector<tagDummyCharCreateInfo,std::allocator<tagDummyCharCreateInfo> >::operator[], COMDAT
; _this$ = ecx

; 928  : 		{	// subscript mutable sequence

  00000	55		 push	 ebp
  00001	8b ec		 mov	 ebp, esp

; 929  :  #if _ITERATOR_DEBUG_LEVEL == 2
; 930  : 		if (size() <= _Pos)
; 931  : 			{	// report error
; 932  : 			_DEBUG_ERROR("vector subscript out of range");
; 933  : 			_SCL_SECURE_OUT_OF_RANGE;
; 934  : 			}
; 935  : 
; 936  :  #elif _ITERATOR_DEBUG_LEVEL == 1
; 937  : 		_SCL_SECURE_VALIDATE_RANGE(_Pos < size());
; 938  :  #endif /* _ITERATOR_DEBUG_LEVEL */
; 939  : 
; 940  : 		return (*(this->_Myfirst + _Pos));

  00003	8b 45 08	 mov	 eax, DWORD PTR __Pos$[ebp]
  00006	6b c0 24	 imul	 eax, 36			; 00000024H
  00009	03 01		 add	 eax, DWORD PTR [ecx]

; 941  : 		}

  0000b	5d		 pop	 ebp
  0000c	c2 04 00	 ret	 4
??A?$vector@UtagDummyCharCreateInfo@@V?$allocator@UtagDummyCharCreateInfo@@@std@@@std@@QAEAAUtagDummyCharCreateInfo@@I@Z ENDP ; std::vector<tagDummyCharCreateInfo,std::allocator<tagDummyCharCreateInfo> >::operator[]
_TEXT	ENDS
PUBLIC	?_Inside@?$vector@UtagDummyCharCreateInfo@@V?$allocator@UtagDummyCharCreateInfo@@@std@@@std@@IBE_NPBUtagDummyCharCreateInfo@@@Z ; std::vector<tagDummyCharCreateInfo,std::allocator<tagDummyCharCreateInfo> >::_Inside
; Function compile flags: /Ogsp
;	COMDAT ?_Inside@?$vector@UtagDummyCharCreateInfo@@V?$allocator@UtagDummyCharCreateInfo@@@std@@@std@@IBE_NPBUtagDummyCharCreateInfo@@@Z
_TEXT	SEGMENT
__Ptr$ = 8						; size = 4
?_Inside@?$vector@UtagDummyCharCreateInfo@@V?$allocator@UtagDummyCharCreateInfo@@@std@@@std@@IBE_NPBUtagDummyCharCreateInfo@@@Z PROC ; std::vector<tagDummyCharCreateInfo,std::allocator<tagDummyCharCreateInfo> >::_Inside, COMDAT
; _this$ = ecx

; 1285 : 		{	// test if _Ptr points inside vector

  00000	55		 push	 ebp
  00001	8b ec		 mov	 ebp, esp

; 1286 : 		return (_Ptr < this->_Mylast && this->_Myfirst <= _Ptr);

  00003	8b 45 08	 mov	 eax, DWORD PTR __Ptr$[ebp]
  00006	3b 41 04	 cmp	 eax, DWORD PTR [ecx+4]
  00009	73 09		 jae	 SHORT $LN3@Inside
  0000b	39 01		 cmp	 DWORD PTR [ecx], eax
  0000d	77 05		 ja	 SHORT $LN3@Inside
  0000f	33 c0		 xor	 eax, eax
  00011	40		 inc	 eax
  00012	eb 02		 jmp	 SHORT $LN4@Inside
$LN3@Inside:
  00014	33 c0		 xor	 eax, eax
$LN4@Inside:

; 1287 : 		}

  00016	5d		 pop	 ebp
  00017	c2 04 00	 ret	 4
?_Inside@?$vector@UtagDummyCharCreateInfo@@V?$allocator@UtagDummyCharCreateInfo@@@std@@@std@@IBE_NPBUtagDummyCharCreateInfo@@@Z ENDP ; std::vector<tagDummyCharCreateInfo,std::allocator<tagDummyCharCreateInfo> >::_Inside
_TEXT	ENDS
PUBLIC	?_Orphan_range@?$vector@UtagDummyCharCreateInfo@@V?$allocator@UtagDummyCharCreateInfo@@@std@@@std@@IBEXPAUtagDummyCharCreateInfo@@0@Z ; std::vector<tagDummyCharCreateInfo,std::allocator<tagDummyCharCreateInfo> >::_Orphan_range
; Function compile flags: /Ogsp
;	COMDAT ?_Orphan_range@?$vector@UtagDummyCharCreateInfo@@V?$allocator@UtagDummyCharCreateInfo@@@std@@@std@@IBEXPAUtagDummyCharCreateInfo@@0@Z
_TEXT	SEGMENT
___formal$ = 8						; size = 4
___formal$ = 12						; size = 4
?_Orphan_range@?$vector@UtagDummyCharCreateInfo@@V?$allocator@UtagDummyCharCreateInfo@@@std@@@std@@IBEXPAUtagDummyCharCreateInfo@@0@Z PROC ; std::vector<tagDummyCharCreateInfo,std::allocator<tagDummyCharCreateInfo> >::_Orphan_range, COMDAT
; _this$ = ecx

; 1454 : 		}

  00000	c2 08 00	 ret	 8
?_Orphan_range@?$vector@UtagDummyCharCreateInfo@@V?$allocator@UtagDummyCharCreateInfo@@@std@@@std@@IBEXPAUtagDummyCharCreateInfo@@0@Z ENDP ; std::vector<tagDummyCharCreateInfo,std::allocator<tagDummyCharCreateInfo> >::_Orphan_range
_TEXT	ENDS
PUBLIC	??1?$_Vector_val@UtagDummyCharCreateInfo@@V?$allocator@UtagDummyCharCreateInfo@@@std@@@std@@QAE@XZ ; std::_Vector_val<tagDummyCharCreateInfo,std::allocator<tagDummyCharCreateInfo> >::~_Vector_val<tagDummyCharCreateInfo,std::allocator<tagDummyCharCreateInfo> >
; Function compile flags: /Ogsp
;	COMDAT ??1?$_Vector_val@UtagDummyCharCreateInfo@@V?$allocator@UtagDummyCharCreateInfo@@@std@@@std@@QAE@XZ
_TEXT	SEGMENT
??1?$_Vector_val@UtagDummyCharCreateInfo@@V?$allocator@UtagDummyCharCreateInfo@@@std@@@std@@QAE@XZ PROC ; std::_Vector_val<tagDummyCharCreateInfo,std::allocator<tagDummyCharCreateInfo> >::~_Vector_val<tagDummyCharCreateInfo,std::allocator<tagDummyCharCreateInfo> >, COMDAT
; _this$ = ecx

; 434  : 		}

  00000	c3		 ret	 0
??1?$_Vector_val@UtagDummyCharCreateInfo@@V?$allocator@UtagDummyCharCreateInfo@@@std@@@std@@QAE@XZ ENDP ; std::_Vector_val<tagDummyCharCreateInfo,std::allocator<tagDummyCharCreateInfo> >::~_Vector_val<tagDummyCharCreateInfo,std::allocator<tagDummyCharCreateInfo> >
_TEXT	ENDS
PUBLIC	??0?$allocator@UtagDummyCharCreateInfo@@@std@@QAE@XZ ; std::allocator<tagDummyCharCreateInfo>::allocator<tagDummyCharCreateInfo>
; Function compile flags: /Ogsp
; File c:\program files (x86)\microsoft visual studio 10.0\vc\include\xmemory
;	COMDAT ??0?$allocator@UtagDummyCharCreateInfo@@@std@@QAE@XZ
_TEXT	SEGMENT
??0?$allocator@UtagDummyCharCreateInfo@@@std@@QAE@XZ PROC ; std::allocator<tagDummyCharCreateInfo>::allocator<tagDummyCharCreateInfo>, COMDAT
; _this$ = ecx

; 161  : 	_ALLOCATOR() _THROW0()

  00000	8b c1		 mov	 eax, ecx

; 162  : 		{	// construct default allocator (do nothing)
; 163  : 		}

  00002	c3		 ret	 0
??0?$allocator@UtagDummyCharCreateInfo@@@std@@QAE@XZ ENDP ; std::allocator<tagDummyCharCreateInfo>::allocator<tagDummyCharCreateInfo>
_TEXT	ENDS
PUBLIC	??_C@_0BD@OLBABOEK@vector?$DMT?$DO?5too?5long?$AA@ ; `string'
PUBLIC	?_Xlen@?$vector@UtagDummyCharLoadInfo@@V?$allocator@UtagDummyCharLoadInfo@@@std@@@std@@IBEXXZ ; std::vector<tagDummyCharLoadInfo,std::allocator<tagDummyCharLoadInfo> >::_Xlen
EXTRN	__imp_?_Xlength_error@std@@YAXPBD@Z:PROC
;	COMDAT ??_C@_0BD@OLBABOEK@vector?$DMT?$DO?5too?5long?$AA@
; File c:\program files (x86)\microsoft visual studio 10.0\vc\include\vector
CONST	SEGMENT
??_C@_0BD@OLBABOEK@vector?$DMT?$DO?5too?5long?$AA@ DB 'vector<T> too long'
	DB	00H						; `string'
; Function compile flags: /Ogsp
CONST	ENDS
;	COMDAT ?_Xlen@?$vector@UtagDummyCharLoadInfo@@V?$allocator@UtagDummyCharLoadInfo@@@std@@@std@@IBEXXZ
_TEXT	SEGMENT
?_Xlen@?$vector@UtagDummyCharLoadInfo@@V?$allocator@UtagDummyCharLoadInfo@@@std@@@std@@IBEXXZ PROC ; std::vector<tagDummyCharLoadInfo,std::allocator<tagDummyCharLoadInfo> >::_Xlen, COMDAT
; _this$ = ecx

; 1427 : 		_Xlength_error("vector<T> too long");

  00000	68 00 00 00 00	 push	 OFFSET ??_C@_0BD@OLBABOEK@vector?$DMT?$DO?5too?5long?$AA@
  00005	ff 15 00 00 00
	00		 call	 DWORD PTR __imp_?_Xlength_error@std@@YAXPBD@Z
$LN4@Xlen:
$LN3@Xlen:
  0000b	cc		 int	 3
?_Xlen@?$vector@UtagDummyCharLoadInfo@@V?$allocator@UtagDummyCharLoadInfo@@@std@@@std@@IBEXXZ ENDP ; std::vector<tagDummyCharLoadInfo,std::allocator<tagDummyCharLoadInfo> >::_Xlen
_TEXT	ENDS
PUBLIC	?capacity@?$vector@UtagDummyCharCreateInfo@@V?$allocator@UtagDummyCharCreateInfo@@@std@@@std@@QBEIXZ ; std::vector<tagDummyCharCreateInfo,std::allocator<tagDummyCharCreateInfo> >::capacity
; Function compile flags: /Ogsp
;	COMDAT ?capacity@?$vector@UtagDummyCharCreateInfo@@V?$allocator@UtagDummyCharCreateInfo@@@std@@@std@@QBEIXZ
_TEXT	SEGMENT
?capacity@?$vector@UtagDummyCharCreateInfo@@V?$allocator@UtagDummyCharCreateInfo@@@std@@@std@@QBEIXZ PROC ; std::vector<tagDummyCharCreateInfo,std::allocator<tagDummyCharCreateInfo> >::capacity, COMDAT
; _this$ = ecx

; 777  : 		return (this->_Myend - this->_Myfirst);

  00000	8b 41 08	 mov	 eax, DWORD PTR [ecx+8]
  00003	2b 01		 sub	 eax, DWORD PTR [ecx]
  00005	6a 24		 push	 36			; 00000024H
  00007	99		 cdq
  00008	59		 pop	 ecx
  00009	f7 f9		 idiv	 ecx

; 778  : 		}

  0000b	c3		 ret	 0
?capacity@?$vector@UtagDummyCharCreateInfo@@V?$allocator@UtagDummyCharCreateInfo@@@std@@@std@@QBEIXZ ENDP ; std::vector<tagDummyCharCreateInfo,std::allocator<tagDummyCharCreateInfo> >::capacity
_TEXT	ENDS
PUBLIC	?_Xlen@?$vector@UtagDummyCharCreateInfo@@V?$allocator@UtagDummyCharCreateInfo@@@std@@@std@@IBEXXZ ; std::vector<tagDummyCharCreateInfo,std::allocator<tagDummyCharCreateInfo> >::_Xlen
; Function compile flags: /Ogsp
;	COMDAT ?_Xlen@?$vector@UtagDummyCharCreateInfo@@V?$allocator@UtagDummyCharCreateInfo@@@std@@@std@@IBEXXZ
_TEXT	SEGMENT
?_Xlen@?$vector@UtagDummyCharCreateInfo@@V?$allocator@UtagDummyCharCreateInfo@@@std@@@std@@IBEXXZ PROC ; std::vector<tagDummyCharCreateInfo,std::allocator<tagDummyCharCreateInfo> >::_Xlen, COMDAT
; _this$ = ecx

; 1427 : 		_Xlength_error("vector<T> too long");

  00000	68 00 00 00 00	 push	 OFFSET ??_C@_0BD@OLBABOEK@vector?$DMT?$DO?5too?5long?$AA@
  00005	ff 15 00 00 00
	00		 call	 DWORD PTR __imp_?_Xlength_error@std@@YAXPBD@Z
$LN4@Xlen@2:
$LN3@Xlen@2:
  0000b	cc		 int	 3
?_Xlen@?$vector@UtagDummyCharCreateInfo@@V?$allocator@UtagDummyCharCreateInfo@@@std@@@std@@IBEXXZ ENDP ; std::vector<tagDummyCharCreateInfo,std::allocator<tagDummyCharCreateInfo> >::_Xlen
_TEXT	ENDS
PUBLIC	??0?$allocator@UtagDummyCharCreateInfo@@@std@@QAE@ABV01@@Z ; std::allocator<tagDummyCharCreateInfo>::allocator<tagDummyCharCreateInfo>
; Function compile flags: /Ogsp
; File c:\program files (x86)\microsoft visual studio 10.0\vc\include\xmemory
;	COMDAT ??0?$allocator@UtagDummyCharCreateInfo@@@std@@QAE@ABV01@@Z
_TEXT	SEGMENT
___formal$ = 8						; size = 4
??0?$allocator@UtagDummyCharCreateInfo@@@std@@QAE@ABV01@@Z PROC ; std::allocator<tagDummyCharCreateInfo>::allocator<tagDummyCharCreateInfo>, COMDAT
; _this$ = ecx

; 165  : 	_ALLOCATOR(const _ALLOCATOR<_Ty>&) _THROW0()

  00000	8b c1		 mov	 eax, ecx

; 166  : 		{	// construct by copying (do nothing)
; 167  : 		}

  00002	c2 04 00	 ret	 4
??0?$allocator@UtagDummyCharCreateInfo@@@std@@QAE@ABV01@@Z ENDP ; std::allocator<tagDummyCharCreateInfo>::allocator<tagDummyCharCreateInfo>
_TEXT	ENDS
PUBLIC	?deallocate@?$allocator@UtagDummyCharCreateInfo@@@std@@QAEXPAUtagDummyCharCreateInfo@@I@Z ; std::allocator<tagDummyCharCreateInfo>::deallocate
; Function compile flags: /Ogsp
;	COMDAT ?deallocate@?$allocator@UtagDummyCharCreateInfo@@@std@@QAEXPAUtagDummyCharCreateInfo@@I@Z
_TEXT	SEGMENT
__Ptr$ = 8						; size = 4
___formal$ = 12						; size = 4
?deallocate@?$allocator@UtagDummyCharCreateInfo@@@std@@QAEXPAUtagDummyCharCreateInfo@@I@Z PROC ; std::allocator<tagDummyCharCreateInfo>::deallocate, COMDAT
; _this$ = ecx

; 181  : 		{	// deallocate object at _Ptr, ignore size

  00000	55		 push	 ebp
  00001	8b ec		 mov	 ebp, esp

; 182  : 		::operator delete(_Ptr);

  00003	ff 75 08	 push	 DWORD PTR __Ptr$[ebp]
  00006	e8 00 00 00 00	 call	 ??3@YAXPAX@Z		; operator delete
  0000b	59		 pop	 ecx

; 183  : 		}

  0000c	5d		 pop	 ebp
  0000d	c2 08 00	 ret	 8
?deallocate@?$allocator@UtagDummyCharCreateInfo@@@std@@QAEXPAUtagDummyCharCreateInfo@@I@Z ENDP ; std::allocator<tagDummyCharCreateInfo>::deallocate
_TEXT	ENDS
PUBLIC	?max_size@?$allocator@UtagDummyCharLoadInfo@@@std@@QBEIXZ ; std::allocator<tagDummyCharLoadInfo>::max_size
; Function compile flags: /Ogsp
;	COMDAT ?max_size@?$allocator@UtagDummyCharLoadInfo@@@std@@QBEIXZ
_TEXT	SEGMENT
?max_size@?$allocator@UtagDummyCharLoadInfo@@@std@@QBEIXZ PROC ; std::allocator<tagDummyCharLoadInfo>::max_size, COMDAT
; _this$ = ecx

; 218  : 		_SIZT _Count = (_SIZT)(-1) / sizeof (_Ty);
; 219  : 		return (0 < _Count ? _Count : 1);

  00000	b8 49 92 24 09	 mov	 eax, 153391689		; 09249249H

; 220  : 		}

  00005	c3		 ret	 0
?max_size@?$allocator@UtagDummyCharLoadInfo@@@std@@QBEIXZ ENDP ; std::allocator<tagDummyCharLoadInfo>::max_size
_TEXT	ENDS
PUBLIC	?max_size@?$allocator@UtagDummyCharCreateInfo@@@std@@QBEIXZ ; std::allocator<tagDummyCharCreateInfo>::max_size
; Function compile flags: /Ogsp
;	COMDAT ?max_size@?$allocator@UtagDummyCharCreateInfo@@@std@@QBEIXZ
_TEXT	SEGMENT
?max_size@?$allocator@UtagDummyCharCreateInfo@@@std@@QBEIXZ PROC ; std::allocator<tagDummyCharCreateInfo>::max_size, COMDAT
; _this$ = ecx

; 218  : 		_SIZT _Count = (_SIZT)(-1) / sizeof (_Ty);
; 219  : 		return (0 < _Count ? _Count : 1);

  00000	b8 c7 71 1c 07	 mov	 eax, 119304647		; 071c71c7H

; 220  : 		}

  00005	c3		 ret	 0
?max_size@?$allocator@UtagDummyCharCreateInfo@@@std@@QBEIXZ ENDP ; std::allocator<tagDummyCharCreateInfo>::max_size
_TEXT	ENDS
PUBLIC	??0?$_Vector_const_iterator@V?$_Vector_val@UtagDummyCharCreateInfo@@V?$allocator@UtagDummyCharCreateInfo@@@std@@@std@@@std@@QAE@PAUtagDummyCharCreateInfo@@PBU_Container_base0@1@@Z ; std::_Vector_const_iterator<std::_Vector_val<tagDummyCharCreateInfo,std::allocator<tagDummyCharCreateInfo> > >::_Vector_const_iterator<std::_Vector_val<tagDummyCharCreateInfo,std::allocator<tagDummyCharCreateInfo> > >
; Function compile flags: /Ogsp
; File c:\program files (x86)\microsoft visual studio 10.0\vc\include\vector
;	COMDAT ??0?$_Vector_const_iterator@V?$_Vector_val@UtagDummyCharCreateInfo@@V?$allocator@UtagDummyCharCreateInfo@@@std@@@std@@@std@@QAE@PAUtagDummyCharCreateInfo@@PBU_Container_base0@1@@Z
_TEXT	SEGMENT
__Parg$ = 8						; size = 4
__Pvector$ = 12						; size = 4
??0?$_Vector_const_iterator@V?$_Vector_val@UtagDummyCharCreateInfo@@V?$allocator@UtagDummyCharCreateInfo@@@std@@@std@@@std@@QAE@PAUtagDummyCharCreateInfo@@PBU_Container_base0@1@@Z PROC ; std::_Vector_const_iterator<std::_Vector_val<tagDummyCharCreateInfo,std::allocator<tagDummyCharCreateInfo> > >::_Vector_const_iterator<std::_Vector_val<tagDummyCharCreateInfo,std::allocator<tagDummyCharCreateInfo> > >, COMDAT
; _this$ = ecx

; 45   : 		{	// construct with pointer _Parg

  00000	55		 push	 ebp
  00001	8b ec		 mov	 ebp, esp
  00003	8b c1		 mov	 eax, ecx
  00005	8b 4d 08	 mov	 ecx, DWORD PTR __Parg$[ebp]
  00008	89 08		 mov	 DWORD PTR [eax], ecx

; 46   : 		this->_Adopt(_Pvector);
; 47   : 		}

  0000a	5d		 pop	 ebp
  0000b	c2 08 00	 ret	 8
??0?$_Vector_const_iterator@V?$_Vector_val@UtagDummyCharCreateInfo@@V?$allocator@UtagDummyCharCreateInfo@@@std@@@std@@@std@@QAE@PAUtagDummyCharCreateInfo@@PBU_Container_base0@1@@Z ENDP ; std::_Vector_const_iterator<std::_Vector_val<tagDummyCharCreateInfo,std::allocator<tagDummyCharCreateInfo> > >::_Vector_const_iterator<std::_Vector_val<tagDummyCharCreateInfo,std::allocator<tagDummyCharCreateInfo> > >
_TEXT	ENDS
PUBLIC	?_Compat@?$_Vector_const_iterator@V?$_Vector_val@UtagDummyCharCreateInfo@@V?$allocator@UtagDummyCharCreateInfo@@@std@@@std@@@std@@QBEXABV12@@Z ; std::_Vector_const_iterator<std::_Vector_val<tagDummyCharCreateInfo,std::allocator<tagDummyCharCreateInfo> > >::_Compat
; Function compile flags: /Ogsp
;	COMDAT ?_Compat@?$_Vector_const_iterator@V?$_Vector_val@UtagDummyCharCreateInfo@@V?$allocator@UtagDummyCharCreateInfo@@@std@@@std@@@std@@QBEXABV12@@Z
_TEXT	SEGMENT
___formal$ = 8						; size = 4
?_Compat@?$_Vector_const_iterator@V?$_Vector_val@UtagDummyCharCreateInfo@@V?$allocator@UtagDummyCharCreateInfo@@@std@@@std@@@std@@QBEXABV12@@Z PROC ; std::_Vector_const_iterator<std::_Vector_val<tagDummyCharCreateInfo,std::allocator<tagDummyCharCreateInfo> > >::_Compat, COMDAT
; _this$ = ecx

; 253  : 		}

  00000	c2 04 00	 ret	 4
?_Compat@?$_Vector_const_iterator@V?$_Vector_val@UtagDummyCharCreateInfo@@V?$allocator@UtagDummyCharCreateInfo@@@std@@@std@@@std@@QBEXABV12@@Z ENDP ; std::_Vector_const_iterator<std::_Vector_val<tagDummyCharCreateInfo,std::allocator<tagDummyCharCreateInfo> > >::_Compat
_TEXT	ENDS
PUBLIC	??$addressof@$$CBUtagDummyCharCreateInfo@@@std@@YAPBUtagDummyCharCreateInfo@@ABU1@@Z ; std::addressof<tagDummyCharCreateInfo const >
; Function compile flags: /Ogsp
; File c:\program files (x86)\microsoft visual studio 10.0\vc\include\xmemory
;	COMDAT ??$addressof@$$CBUtagDummyCharCreateInfo@@@std@@YAPBUtagDummyCharCreateInfo@@ABU1@@Z
_TEXT	SEGMENT
__Val$ = 8						; size = 4
??$addressof@$$CBUtagDummyCharCreateInfo@@@std@@YAPBUtagDummyCharCreateInfo@@ABU1@@Z PROC ; std::addressof<tagDummyCharCreateInfo const >, COMDAT

; 110  : 	{	// return address of _Val

  00000	55		 push	 ebp
  00001	8b ec		 mov	 ebp, esp

; 111  : 	return ((_Ty *) &(char&)_Val);

  00003	8b 45 08	 mov	 eax, DWORD PTR __Val$[ebp]

; 112  : 	}

  00006	5d		 pop	 ebp
  00007	c3		 ret	 0
??$addressof@$$CBUtagDummyCharCreateInfo@@@std@@YAPBUtagDummyCharCreateInfo@@ABU1@@Z ENDP ; std::addressof<tagDummyCharCreateInfo const >
_TEXT	ENDS
PUBLIC	__TI2?AVbad_alloc@std@@
PUBLIC	??$_Allocate@UtagDummyCharLoadInfo@@@std@@YAPAUtagDummyCharLoadInfo@@IPAU1@@Z ; std::_Allocate<tagDummyCharLoadInfo>
PUBLIC	__CTA2?AVbad_alloc@std@@
PUBLIC	__CT??_R0?AVbad_alloc@std@@@8??0bad_alloc@std@@QAE@ABV01@@Z12
PUBLIC	??0bad_alloc@std@@QAE@ABV01@@Z			; std::bad_alloc::bad_alloc
PUBLIC	__CT??_R0?AVexception@std@@@8??0exception@std@@QAE@ABV01@@Z12
EXTRN	??2@YAPAXI@Z:PROC				; operator new
EXTRN	__CxxThrowException@8:PROC
EXTRN	??0exception@std@@QAE@ABV01@@Z:PROC		; std::exception::exception
;	COMDAT __CT??_R0?AVexception@std@@@8??0exception@std@@QAE@ABV01@@Z12
; File c:\program files (x86)\microsoft visual studio 10.0\vc\include\exception
xdata$x	SEGMENT
__CT??_R0?AVexception@std@@@8??0exception@std@@QAE@ABV01@@Z12 DD 00H
	DD	FLAT:??_R0?AVexception@std@@@8
	DD	00H
	DD	0ffffffffH
	ORG $+4
	DD	0cH
	DD	FLAT:??0exception@std@@QAE@ABV01@@Z
xdata$x	ENDS
;	COMDAT __CT??_R0?AVbad_alloc@std@@@8??0bad_alloc@std@@QAE@ABV01@@Z12
xdata$x	SEGMENT
__CT??_R0?AVbad_alloc@std@@@8??0bad_alloc@std@@QAE@ABV01@@Z12 DD 00H
	DD	FLAT:??_R0?AVbad_alloc@std@@@8
	DD	00H
	DD	0ffffffffH
	ORG $+4
	DD	0cH
	DD	FLAT:??0bad_alloc@std@@QAE@ABV01@@Z
xdata$x	ENDS
;	COMDAT __CTA2?AVbad_alloc@std@@
xdata$x	SEGMENT
__CTA2?AVbad_alloc@std@@ DD 02H
	DD	FLAT:__CT??_R0?AVbad_alloc@std@@@8??0bad_alloc@std@@QAE@ABV01@@Z12
	DD	FLAT:__CT??_R0?AVexception@std@@@8??0exception@std@@QAE@ABV01@@Z12
xdata$x	ENDS
;	COMDAT __TI2?AVbad_alloc@std@@
xdata$x	SEGMENT
__TI2?AVbad_alloc@std@@ DD 00H
	DD	FLAT:??1bad_alloc@std@@UAE@XZ
	DD	00H
	DD	FLAT:__CTA2?AVbad_alloc@std@@
; Function compile flags: /Ogsp
; File c:\program files (x86)\microsoft visual studio 10.0\vc\include\xmemory
xdata$x	ENDS
;	COMDAT ??$_Allocate@UtagDummyCharLoadInfo@@@std@@YAPAUtagDummyCharLoadInfo@@IPAU1@@Z
_TEXT	SEGMENT
$T545247 = -12						; size = 12
$T545252 = 8						; size = 4
__Count$ = 8						; size = 4
___formal$ = 12						; size = 4
??$_Allocate@UtagDummyCharLoadInfo@@@std@@YAPAUtagDummyCharLoadInfo@@IPAU1@@Z PROC ; std::_Allocate<tagDummyCharLoadInfo>, COMDAT

; 30   : 	{	// allocate storage for _Count elements of type _Ty

  00000	55		 push	 ebp
  00001	8b ec		 mov	 ebp, esp

; 31   : 	void *_Ptr = 0;
; 32   : 
; 33   : 	if (_Count <= 0)

  00003	8b 4d 08	 mov	 ecx, DWORD PTR __Count$[ebp]
  00006	83 ec 0c	 sub	 esp, 12			; 0000000cH
  00009	33 c0		 xor	 eax, eax
  0000b	85 c9		 test	 ecx, ecx

; 34   : 		_Count = 0;
; 35   : 	else if (((_SIZT)(-1) / sizeof (_Ty) < _Count)

  0000d	74 3c		 je	 SHORT $LN5@Allocate

; 36   : 		|| (_Ptr = ::operator new(_Count * sizeof (_Ty))) == 0)

  0000f	81 f9 49 92 24
	09		 cmp	 ecx, 153391689		; 09249249H
  00015	77 0e		 ja	 SHORT $LN1@Allocate
  00017	6b c9 1c	 imul	 ecx, 28			; 0000001cH
  0001a	51		 push	 ecx
  0001b	e8 00 00 00 00	 call	 ??2@YAPAXI@Z		; operator new
  00020	59		 pop	 ecx
  00021	85 c0		 test	 eax, eax

; 38   : 
; 39   : 	return ((_Ty _FARQ *)_Ptr);

  00023	75 26		 jne	 SHORT $LN5@Allocate
$LN1@Allocate:

; 37   : 		_THROW_NCEE(bad_alloc, 0);

  00025	83 65 08 00	 and	 DWORD PTR $T545252[ebp], 0
  00029	8d 45 08	 lea	 eax, DWORD PTR $T545252[ebp]
  0002c	50		 push	 eax
  0002d	8d 4d f4	 lea	 ecx, DWORD PTR $T545247[ebp]
  00030	ff 15 00 00 00
	00		 call	 DWORD PTR __imp_??0exception@std@@QAE@ABQBD@Z
  00036	68 00 00 00 00	 push	 OFFSET __TI2?AVbad_alloc@std@@
  0003b	8d 45 f4	 lea	 eax, DWORD PTR $T545247[ebp]
  0003e	50		 push	 eax
  0003f	c7 45 f4 00 00
	00 00		 mov	 DWORD PTR $T545247[ebp], OFFSET ??_7bad_alloc@std@@6B@
  00046	e8 00 00 00 00	 call	 __CxxThrowException@8
$LN10@Allocate:
$LN5@Allocate:

; 40   : 	}

  0004b	c9		 leave
  0004c	c3		 ret	 0
$LN9@Allocate:
??$_Allocate@UtagDummyCharLoadInfo@@@std@@YAPAUtagDummyCharLoadInfo@@IPAU1@@Z ENDP ; std::_Allocate<tagDummyCharLoadInfo>
_TEXT	ENDS
PUBLIC	??$_Allocate@UtagDummyCharCreateInfo@@@std@@YAPAUtagDummyCharCreateInfo@@IPAU1@@Z ; std::_Allocate<tagDummyCharCreateInfo>
; Function compile flags: /Ogsp
;	COMDAT ??$_Allocate@UtagDummyCharCreateInfo@@@std@@YAPAUtagDummyCharCreateInfo@@IPAU1@@Z
_TEXT	SEGMENT
$T545257 = -12						; size = 12
$T545261 = 8						; size = 4
__Count$ = 8						; size = 4
___formal$ = 12						; size = 4
??$_Allocate@UtagDummyCharCreateInfo@@@std@@YAPAUtagDummyCharCreateInfo@@IPAU1@@Z PROC ; std::_Allocate<tagDummyCharCreateInfo>, COMDAT

; 30   : 	{	// allocate storage for _Count elements of type _Ty

  00000	55		 push	 ebp
  00001	8b ec		 mov	 ebp, esp

; 31   : 	void *_Ptr = 0;
; 32   : 
; 33   : 	if (_Count <= 0)

  00003	8b 4d 08	 mov	 ecx, DWORD PTR __Count$[ebp]
  00006	83 ec 0c	 sub	 esp, 12			; 0000000cH
  00009	33 c0		 xor	 eax, eax
  0000b	85 c9		 test	 ecx, ecx

; 34   : 		_Count = 0;
; 35   : 	else if (((_SIZT)(-1) / sizeof (_Ty) < _Count)

  0000d	74 3c		 je	 SHORT $LN5@Allocate@2

; 36   : 		|| (_Ptr = ::operator new(_Count * sizeof (_Ty))) == 0)

  0000f	81 f9 c7 71 1c
	07		 cmp	 ecx, 119304647		; 071c71c7H
  00015	77 0e		 ja	 SHORT $LN1@Allocate@2
  00017	6b c9 24	 imul	 ecx, 36			; 00000024H
  0001a	51		 push	 ecx
  0001b	e8 00 00 00 00	 call	 ??2@YAPAXI@Z		; operator new
  00020	59		 pop	 ecx
  00021	85 c0		 test	 eax, eax

; 38   : 
; 39   : 	return ((_Ty _FARQ *)_Ptr);

  00023	75 26		 jne	 SHORT $LN5@Allocate@2
$LN1@Allocate@2:

; 37   : 		_THROW_NCEE(bad_alloc, 0);

  00025	83 65 08 00	 and	 DWORD PTR $T545261[ebp], 0
  00029	8d 45 08	 lea	 eax, DWORD PTR $T545261[ebp]
  0002c	50		 push	 eax
  0002d	8d 4d f4	 lea	 ecx, DWORD PTR $T545257[ebp]
  00030	ff 15 00 00 00
	00		 call	 DWORD PTR __imp_??0exception@std@@QAE@ABQBD@Z
  00036	68 00 00 00 00	 push	 OFFSET __TI2?AVbad_alloc@std@@
  0003b	8d 45 f4	 lea	 eax, DWORD PTR $T545257[ebp]
  0003e	50		 push	 eax
  0003f	c7 45 f4 00 00
	00 00		 mov	 DWORD PTR $T545257[ebp], OFFSET ??_7bad_alloc@std@@6B@
  00046	e8 00 00 00 00	 call	 __CxxThrowException@8
$LN10@Allocate@2:
$LN5@Allocate@2:

; 40   : 	}

  0004b	c9		 leave
  0004c	c3		 ret	 0
$LN9@Allocate@2:
??$_Allocate@UtagDummyCharCreateInfo@@@std@@YAPAUtagDummyCharCreateInfo@@IPAU1@@Z ENDP ; std::_Allocate<tagDummyCharCreateInfo>
_TEXT	ENDS
PUBLIC	??$forward@AAUtagDummyCharCreateInfo@@@std@@YAAAUtagDummyCharCreateInfo@@AAU1@@Z ; std::forward<tagDummyCharCreateInfo &>
; Function compile flags: /Ogsp
; File c:\program files (x86)\microsoft visual studio 10.0\vc\include\utility
;	COMDAT ??$forward@AAUtagDummyCharCreateInfo@@@std@@YAAAUtagDummyCharCreateInfo@@AAU1@@Z
_TEXT	SEGMENT
__Arg$ = 8						; size = 4
??$forward@AAUtagDummyCharCreateInfo@@@std@@YAAAUtagDummyCharCreateInfo@@AAU1@@Z PROC ; std::forward<tagDummyCharCreateInfo &>, COMDAT

; 78   : 	{	// forward _Arg, given explicitly specified type parameter

  00000	55		 push	 ebp
  00001	8b ec		 mov	 ebp, esp

; 79   : 	return ((_Ty&&)_Arg);

  00003	8b 45 08	 mov	 eax, DWORD PTR __Arg$[ebp]

; 80   : 	}

  00006	5d		 pop	 ebp
  00007	c3		 ret	 0
??$forward@AAUtagDummyCharCreateInfo@@@std@@YAAAUtagDummyCharCreateInfo@@AAU1@@Z ENDP ; std::forward<tagDummyCharCreateInfo &>
_TEXT	ENDS
PUBLIC	??$forward@ABUtagDummyCharCreateInfo@@@std@@YAABUtagDummyCharCreateInfo@@ABU1@@Z ; std::forward<tagDummyCharCreateInfo const &>
; Function compile flags: /Ogsp
;	COMDAT ??$forward@ABUtagDummyCharCreateInfo@@@std@@YAABUtagDummyCharCreateInfo@@ABU1@@Z
_TEXT	SEGMENT
__Arg$ = 8						; size = 4
??$forward@ABUtagDummyCharCreateInfo@@@std@@YAABUtagDummyCharCreateInfo@@ABU1@@Z PROC ; std::forward<tagDummyCharCreateInfo const &>, COMDAT

; 78   : 	{	// forward _Arg, given explicitly specified type parameter

  00000	55		 push	 ebp
  00001	8b ec		 mov	 ebp, esp

; 79   : 	return ((_Ty&&)_Arg);

  00003	8b 45 08	 mov	 eax, DWORD PTR __Arg$[ebp]

; 80   : 	}

  00006	5d		 pop	 ebp
  00007	c3		 ret	 0
??$forward@ABUtagDummyCharCreateInfo@@@std@@YAABUtagDummyCharCreateInfo@@ABU1@@Z ENDP ; std::forward<tagDummyCharCreateInfo const &>
_TEXT	ENDS
PUBLIC	??$_Ptr_cat@UtagDummyCharCreateInfo@@U1@@std@@YA?AU_Nonscalar_ptr_iterator_tag@0@PAUtagDummyCharCreateInfo@@0@Z ; std::_Ptr_cat<tagDummyCharCreateInfo,tagDummyCharCreateInfo>
; Function compile flags: /Ogsp
; File c:\program files (x86)\microsoft visual studio 10.0\vc\include\xutility
;	COMDAT ??$_Ptr_cat@UtagDummyCharCreateInfo@@U1@@std@@YA?AU_Nonscalar_ptr_iterator_tag@0@PAUtagDummyCharCreateInfo@@0@Z
_TEXT	SEGMENT
__Cat$ = -1						; size = 1
___formal$ = 8						; size = 4
___formal$ = 12						; size = 4
??$_Ptr_cat@UtagDummyCharCreateInfo@@U1@@std@@YA?AU_Nonscalar_ptr_iterator_tag@0@PAUtagDummyCharCreateInfo@@0@Z PROC ; std::_Ptr_cat<tagDummyCharCreateInfo,tagDummyCharCreateInfo>, COMDAT

; 516  : 	{	// return pointer category from pointers

  00000	55		 push	 ebp
  00001	8b ec		 mov	 ebp, esp
  00003	51		 push	 ecx

; 517  : 	typename _Ptr_cat_helper<_Elem1, _Elem2>::_Type _Cat;
; 518  : 	return (_Cat);

  00004	8a 45 ff	 mov	 al, BYTE PTR __Cat$[ebp]

; 519  : 	}

  00007	c9		 leave
  00008	c3		 ret	 0
??$_Ptr_cat@UtagDummyCharCreateInfo@@U1@@std@@YA?AU_Nonscalar_ptr_iterator_tag@0@PAUtagDummyCharCreateInfo@@0@Z ENDP ; std::_Ptr_cat<tagDummyCharCreateInfo,tagDummyCharCreateInfo>
_TEXT	ENDS
PUBLIC	??0tagDummyCharCreateInfo@@QAE@ABU0@@Z		; tagDummyCharCreateInfo::tagDummyCharCreateInfo
EXTRN	__imp_??0ioHashString@@QAE@ABV0@@Z:PROC
EXTRN	__fltused:DWORD
; Function compile flags: /Ogsp
;	COMDAT ??0tagDummyCharCreateInfo@@QAE@ABU0@@Z
_TEXT	SEGMENT
___that$ = 8						; size = 4
??0tagDummyCharCreateInfo@@QAE@ABU0@@Z PROC		; tagDummyCharCreateInfo::tagDummyCharCreateInfo, COMDAT
; _this$ = ecx
  00000	55		 push	 ebp
  00001	8b ec		 mov	 ebp, esp
  00003	53		 push	 ebx
  00004	56		 push	 esi
  00005	8b 75 08	 mov	 esi, DWORD PTR ___that$[ebp]
  00008	57		 push	 edi
  00009	56		 push	 esi
  0000a	8b d9		 mov	 ebx, ecx
  0000c	ff 15 00 00 00
	00		 call	 DWORD PTR __imp_??0ioHashString@@QAE@ABV0@@Z
  00012	8b 46 10	 mov	 eax, DWORD PTR [esi+16]
  00015	89 43 10	 mov	 DWORD PTR [ebx+16], eax
  00018	d9 46 14	 fld	 DWORD PTR [esi+20]
  0001b	83 c6 18	 add	 esi, 24			; 00000018H
  0001e	d9 5b 14	 fstp	 DWORD PTR [ebx+20]
  00021	8d 7b 18	 lea	 edi, DWORD PTR [ebx+24]
  00024	a5		 movsd
  00025	a5		 movsd
  00026	a5		 movsd
  00027	5f		 pop	 edi
  00028	5e		 pop	 esi
  00029	8b c3		 mov	 eax, ebx
  0002b	5b		 pop	 ebx
  0002c	5d		 pop	 ebp
  0002d	c2 04 00	 ret	 4
??0tagDummyCharCreateInfo@@QAE@ABU0@@Z ENDP		; tagDummyCharCreateInfo::tagDummyCharCreateInfo
_TEXT	ENDS
PUBLIC	??4tagDummyCharCreateInfo@@QAEAAU0@ABU0@@Z	; tagDummyCharCreateInfo::operator=
EXTRN	__imp_??4ioHashString@@QAEAAV0@ABV0@@Z:PROC
; Function compile flags: /Ogsp
;	COMDAT ??4tagDummyCharCreateInfo@@QAEAAU0@ABU0@@Z
_TEXT	SEGMENT
___that$ = 8						; size = 4
??4tagDummyCharCreateInfo@@QAEAAU0@ABU0@@Z PROC		; tagDummyCharCreateInfo::operator=, COMDAT
; _this$ = ecx
  00000	55		 push	 ebp
  00001	8b ec		 mov	 ebp, esp
  00003	53		 push	 ebx
  00004	56		 push	 esi
  00005	8b 75 08	 mov	 esi, DWORD PTR ___that$[ebp]
  00008	57		 push	 edi
  00009	56		 push	 esi
  0000a	8b d9		 mov	 ebx, ecx
  0000c	ff 15 00 00 00
	00		 call	 DWORD PTR __imp_??4ioHashString@@QAEAAV0@ABV0@@Z
  00012	8b 46 10	 mov	 eax, DWORD PTR [esi+16]
  00015	89 43 10	 mov	 DWORD PTR [ebx+16], eax
  00018	d9 46 14	 fld	 DWORD PTR [esi+20]
  0001b	83 c6 18	 add	 esi, 24			; 00000018H
  0001e	d9 5b 14	 fstp	 DWORD PTR [ebx+20]
  00021	8d 7b 18	 lea	 edi, DWORD PTR [ebx+24]
  00024	a5		 movsd
  00025	a5		 movsd
  00026	a5		 movsd
  00027	5f		 pop	 edi
  00028	5e		 pop	 esi
  00029	8b c3		 mov	 eax, ebx
  0002b	5b		 pop	 ebx
  0002c	5d		 pop	 ebp
  0002d	c2 04 00	 ret	 4
??4tagDummyCharCreateInfo@@QAEAAU0@ABU0@@Z ENDP		; tagDummyCharCreateInfo::operator=
_TEXT	ENDS
PUBLIC	??$_Ptr_cat@V?$_Vector_const_iterator@V?$_Vector_val@UtagDummyCharLoadInfo@@V?$allocator@UtagDummyCharLoadInfo@@@std@@@std@@@std@@PAUtagDummyCharLoadInfo@@@std@@YA?AU_Nonscalar_ptr_iterator_tag@0@AAV?$_Vector_const_iterator@V?$_Vector_val@UtagDummyCharLoadInfo@@V?$allocator@UtagDummyCharLoadInfo@@@std@@@std@@@0@AAPAUtagDummyCharLoadInfo@@@Z ; std::_Ptr_cat<std::_Vector_const_iterator<std::_Vector_val<tagDummyCharLoadInfo,std::allocator<tagDummyCharLoadInfo> > >,tagDummyCharLoadInfo *>
; Function compile flags: /Ogsp
;	COMDAT ??$_Ptr_cat@V?$_Vector_const_iterator@V?$_Vector_val@UtagDummyCharLoadInfo@@V?$allocator@UtagDummyCharLoadInfo@@@std@@@std@@@std@@PAUtagDummyCharLoadInfo@@@std@@YA?AU_Nonscalar_ptr_iterator_tag@0@AAV?$_Vector_const_iterator@V?$_Vector_val@UtagDummyCharLoadInfo@@V?$allocator@UtagDummyCharLoadInfo@@@std@@@std@@@0@AAPAUtagDummyCharLoadInfo@@@Z
_TEXT	SEGMENT
__Cat$ = -1						; size = 1
___formal$ = 8						; size = 4
___formal$ = 12						; size = 4
??$_Ptr_cat@V?$_Vector_const_iterator@V?$_Vector_val@UtagDummyCharLoadInfo@@V?$allocator@UtagDummyCharLoadInfo@@@std@@@std@@@std@@PAUtagDummyCharLoadInfo@@@std@@YA?AU_Nonscalar_ptr_iterator_tag@0@AAV?$_Vector_const_iterator@V?$_Vector_val@UtagDummyCharLoadInfo@@V?$allocator@UtagDummyCharLoadInfo@@@std@@@std@@@0@AAPAUtagDummyCharLoadInfo@@@Z PROC ; std::_Ptr_cat<std::_Vector_const_iterator<std::_Vector_val<tagDummyCharLoadInfo,std::allocator<tagDummyCharLoadInfo> > >,tagDummyCharLoadInfo *>, COMDAT

; 485  : 	{	// return pointer category from arbitrary arguments

  00000	55		 push	 ebp
  00001	8b ec		 mov	 ebp, esp
  00003	51		 push	 ecx

; 486  : 	_Nonscalar_ptr_iterator_tag _Cat;
; 487  : 	return (_Cat);

  00004	8a 45 ff	 mov	 al, BYTE PTR __Cat$[ebp]

; 488  : 	}

  00007	c9		 leave
  00008	c3		 ret	 0
??$_Ptr_cat@V?$_Vector_const_iterator@V?$_Vector_val@UtagDummyCharLoadInfo@@V?$allocator@UtagDummyCharLoadInfo@@@std@@@std@@@std@@PAUtagDummyCharLoadInfo@@@std@@YA?AU_Nonscalar_ptr_iterator_tag@0@AAV?$_Vector_const_iterator@V?$_Vector_val@UtagDummyCharLoadInfo@@V?$allocator@UtagDummyCharLoadInfo@@@std@@@std@@@0@AAPAUtagDummyCharLoadInfo@@@Z ENDP ; std::_Ptr_cat<std::_Vector_const_iterator<std::_Vector_val<tagDummyCharLoadInfo,std::allocator<tagDummyCharLoadInfo> > >,tagDummyCharLoadInfo *>
_TEXT	ENDS
PUBLIC	??$move@AAUtagDummyCharCreateInfo@@@std@@YA$$QAUtagDummyCharCreateInfo@@AAU1@@Z ; std::move<tagDummyCharCreateInfo &>
; Function compile flags: /Ogsp
; File c:\program files (x86)\microsoft visual studio 10.0\vc\include\utility
;	COMDAT ??$move@AAUtagDummyCharCreateInfo@@@std@@YA$$QAUtagDummyCharCreateInfo@@AAU1@@Z
_TEXT	SEGMENT
__Arg$ = 8						; size = 4
??$move@AAUtagDummyCharCreateInfo@@@std@@YA$$QAUtagDummyCharCreateInfo@@AAU1@@Z PROC ; std::move<tagDummyCharCreateInfo &>, COMDAT

; 86   : 	{	// forward _Arg as movable

  00000	55		 push	 ebp
  00001	8b ec		 mov	 ebp, esp

; 87   : 	return ((typename tr1::_Remove_reference<_Ty>::_Type&&)_Arg);

  00003	8b 45 08	 mov	 eax, DWORD PTR __Arg$[ebp]

; 88   : 	}

  00006	5d		 pop	 ebp
  00007	c3		 ret	 0
??$move@AAUtagDummyCharCreateInfo@@@std@@YA$$QAUtagDummyCharCreateInfo@@AAU1@@Z ENDP ; std::move<tagDummyCharCreateInfo &>
_TEXT	ENDS
PUBLIC	??$_Val_type@PAUtagDummyCharCreateInfo@@@std@@YAPAUtagDummyCharCreateInfo@@PAU1@@Z ; std::_Val_type<tagDummyCharCreateInfo *>
; Function compile flags: /Ogsp
; File c:\program files (x86)\microsoft visual studio 10.0\vc\include\xutility
;	COMDAT ??$_Val_type@PAUtagDummyCharCreateInfo@@@std@@YAPAUtagDummyCharCreateInfo@@PAU1@@Z
_TEXT	SEGMENT
___formal$ = 8						; size = 4
??$_Val_type@PAUtagDummyCharCreateInfo@@@std@@YAPAUtagDummyCharCreateInfo@@PAU1@@Z PROC ; std::_Val_type<tagDummyCharCreateInfo *>, COMDAT

; 790  : 	return (0);

  00000	33 c0		 xor	 eax, eax

; 791  : 	}

  00002	c3		 ret	 0
??$_Val_type@PAUtagDummyCharCreateInfo@@@std@@YAPAUtagDummyCharCreateInfo@@PAU1@@Z ENDP ; std::_Val_type<tagDummyCharCreateInfo *>
_TEXT	ENDS
PUBLIC	??D?$_Vector_const_iterator@V?$_Vector_val@UtagDummyCharLoadInfo@@V?$allocator@UtagDummyCharLoadInfo@@@std@@@std@@@std@@QBEABUtagDummyCharLoadInfo@@XZ ; std::_Vector_const_iterator<std::_Vector_val<tagDummyCharLoadInfo,std::allocator<tagDummyCharLoadInfo> > >::operator*
; Function compile flags: /Ogsp
; File c:\program files (x86)\microsoft visual studio 10.0\vc\include\vector
;	COMDAT ??D?$_Vector_const_iterator@V?$_Vector_val@UtagDummyCharLoadInfo@@V?$allocator@UtagDummyCharLoadInfo@@@std@@@std@@@std@@QBEABUtagDummyCharLoadInfo@@XZ
_TEXT	SEGMENT
??D?$_Vector_const_iterator@V?$_Vector_val@UtagDummyCharLoadInfo@@V?$allocator@UtagDummyCharLoadInfo@@@std@@@std@@@std@@QBEABUtagDummyCharLoadInfo@@XZ PROC ; std::_Vector_const_iterator<std::_Vector_val<tagDummyCharLoadInfo,std::allocator<tagDummyCharLoadInfo> > >::operator*, COMDAT
; _this$ = ecx

; 64   :  #if _ITERATOR_DEBUG_LEVEL == 2
; 65   : 		if (this->_Getcont() == 0
; 66   : 			|| this->_Ptr == 0
; 67   : 			|| this->_Ptr < ((_Myvec *)this->_Getcont())->_Myfirst
; 68   : 			|| ((_Myvec *)this->_Getcont())->_Mylast <= this->_Ptr)
; 69   : 			{	// report error
; 70   : 			_DEBUG_ERROR("vector iterator not dereferencable");
; 71   : 			_SCL_SECURE_OUT_OF_RANGE;
; 72   : 			}
; 73   : 
; 74   :  #elif _ITERATOR_DEBUG_LEVEL == 1
; 75   : 		_SCL_SECURE_VALIDATE(this->_Getcont() != 0);
; 76   : 		_SCL_SECURE_VALIDATE_RANGE(
; 77   : 			this->_Ptr != 0
; 78   : 			&& ((_Myvec *)this->_Getcont())->_Myfirst <= this->_Ptr
; 79   : 			&& this->_Ptr < ((_Myvec *)this->_Getcont())->_Mylast);
; 80   :  #endif /* _ITERATOR_DEBUG_LEVEL */
; 81   : 
; 82   : 		__analysis_assume(this->_Ptr != 0);
; 83   : 
; 84   : 		return (*this->_Ptr);

  00000	8b 01		 mov	 eax, DWORD PTR [ecx]

; 85   : 		}

  00002	c3		 ret	 0
??D?$_Vector_const_iterator@V?$_Vector_val@UtagDummyCharLoadInfo@@V?$allocator@UtagDummyCharLoadInfo@@@std@@@std@@@std@@QBEABUtagDummyCharLoadInfo@@XZ ENDP ; std::_Vector_const_iterator<std::_Vector_val<tagDummyCharLoadInfo,std::allocator<tagDummyCharLoadInfo> > >::operator*
_TEXT	ENDS
PUBLIC	??E?$_Vector_const_iterator@V?$_Vector_val@UtagDummyCharLoadInfo@@V?$allocator@UtagDummyCharLoadInfo@@@std@@@std@@@std@@QAEAAV01@XZ ; std::_Vector_const_iterator<std::_Vector_val<tagDummyCharLoadInfo,std::allocator<tagDummyCharLoadInfo> > >::operator++
; Function compile flags: /Ogsp
;	COMDAT ??E?$_Vector_const_iterator@V?$_Vector_val@UtagDummyCharLoadInfo@@V?$allocator@UtagDummyCharLoadInfo@@@std@@@std@@@std@@QAEAAV01@XZ
_TEXT	SEGMENT
??E?$_Vector_const_iterator@V?$_Vector_val@UtagDummyCharLoadInfo@@V?$allocator@UtagDummyCharLoadInfo@@@std@@@std@@@std@@QAEAAV01@XZ PROC ; std::_Vector_const_iterator<std::_Vector_val<tagDummyCharLoadInfo,std::allocator<tagDummyCharLoadInfo> > >::operator++, COMDAT
; _this$ = ecx

; 93   : 		{	// preincrement

  00000	8b c1		 mov	 eax, ecx

; 94   :  #if _ITERATOR_DEBUG_LEVEL == 2
; 95   : 		if (this->_Getcont() == 0
; 96   : 			|| this->_Ptr == 0
; 97   : 			|| ((_Myvec *)this->_Getcont())->_Mylast <= this->_Ptr)
; 98   : 			{	// report error
; 99   : 			_DEBUG_ERROR("vector iterator not incrementable");
; 100  : 			_SCL_SECURE_OUT_OF_RANGE;
; 101  : 			}
; 102  : 
; 103  :  #elif _ITERATOR_DEBUG_LEVEL == 1
; 104  : 		_SCL_SECURE_VALIDATE(this->_Getcont() != 0);
; 105  : 		_SCL_SECURE_VALIDATE_RANGE(
; 106  : 			this->_Ptr != 0
; 107  : 			&& this->_Ptr < ((_Myvec *)this->_Getcont())->_Mylast);
; 108  :  #endif /* _ITERATOR_DEBUG_LEVEL */
; 109  : 
; 110  : 		++this->_Ptr;

  00002	83 00 1c	 add	 DWORD PTR [eax], 28	; 0000001cH

; 111  : 		return (*this);
; 112  : 		}

  00005	c3		 ret	 0
??E?$_Vector_const_iterator@V?$_Vector_val@UtagDummyCharLoadInfo@@V?$allocator@UtagDummyCharLoadInfo@@@std@@@std@@@std@@QAEAAV01@XZ ENDP ; std::_Vector_const_iterator<std::_Vector_val<tagDummyCharLoadInfo,std::allocator<tagDummyCharLoadInfo> > >::operator++
_TEXT	ENDS
PUBLIC	??_GtagDummyCharCreateInfo@@QAEPAXI@Z		; tagDummyCharCreateInfo::`scalar deleting destructor'
; Function compile flags: /Ogsp
;	COMDAT ??_GtagDummyCharCreateInfo@@QAEPAXI@Z
_TEXT	SEGMENT
___flags$ = 8						; size = 4
??_GtagDummyCharCreateInfo@@QAEPAXI@Z PROC		; tagDummyCharCreateInfo::`scalar deleting destructor', COMDAT
; _this$ = ecx
  00000	55		 push	 ebp
  00001	8b ec		 mov	 ebp, esp
  00003	56		 push	 esi
  00004	8b f1		 mov	 esi, ecx
  00006	ff 15 00 00 00
	00		 call	 DWORD PTR __imp_??1ioHashString@@QAE@XZ
  0000c	f6 45 08 01	 test	 BYTE PTR ___flags$[ebp], 1
  00010	74 07		 je	 SHORT $LN1@scalar@2
  00012	56		 push	 esi
  00013	e8 00 00 00 00	 call	 ??3@YAXPAX@Z		; operator delete
  00018	59		 pop	 ecx
$LN1@scalar@2:
  00019	8b c6		 mov	 eax, esi
  0001b	5e		 pop	 esi
  0001c	5d		 pop	 ebp
  0001d	c2 04 00	 ret	 4
??_GtagDummyCharCreateInfo@@QAEPAXI@Z ENDP		; tagDummyCharCreateInfo::`scalar deleting destructor'
_TEXT	ENDS
PUBLIC	??$forward@ABUtagDummyCharLoadInfo@@@std@@YAABUtagDummyCharLoadInfo@@ABU1@@Z ; std::forward<tagDummyCharLoadInfo const &>
; Function compile flags: /Ogsp
; File c:\program files (x86)\microsoft visual studio 10.0\vc\include\utility
;	COMDAT ??$forward@ABUtagDummyCharLoadInfo@@@std@@YAABUtagDummyCharLoadInfo@@ABU1@@Z
_TEXT	SEGMENT
__Arg$ = 8						; size = 4
??$forward@ABUtagDummyCharLoadInfo@@@std@@YAABUtagDummyCharLoadInfo@@ABU1@@Z PROC ; std::forward<tagDummyCharLoadInfo const &>, COMDAT

; 78   : 	{	// forward _Arg, given explicitly specified type parameter

  00000	55		 push	 ebp
  00001	8b ec		 mov	 ebp, esp

; 79   : 	return ((_Ty&&)_Arg);

  00003	8b 45 08	 mov	 eax, DWORD PTR __Arg$[ebp]

; 80   : 	}

  00006	5d		 pop	 ebp
  00007	c3		 ret	 0
??$forward@ABUtagDummyCharLoadInfo@@@std@@YAABUtagDummyCharLoadInfo@@ABU1@@Z ENDP ; std::forward<tagDummyCharLoadInfo const &>
_TEXT	ENDS
PUBLIC	??$forward@UtagDummyCharCreateInfo@@@std@@YA$$QAUtagDummyCharCreateInfo@@AAU1@@Z ; std::forward<tagDummyCharCreateInfo>
; Function compile flags: /Ogsp
;	COMDAT ??$forward@UtagDummyCharCreateInfo@@@std@@YA$$QAUtagDummyCharCreateInfo@@AAU1@@Z
_TEXT	SEGMENT
__Arg$ = 8						; size = 4
??$forward@UtagDummyCharCreateInfo@@@std@@YA$$QAUtagDummyCharCreateInfo@@AAU1@@Z PROC ; std::forward<tagDummyCharCreateInfo>, COMDAT

; 78   : 	{	// forward _Arg, given explicitly specified type parameter

  00000	55		 push	 ebp
  00001	8b ec		 mov	 ebp, esp

; 79   : 	return ((_Ty&&)_Arg);

  00003	8b 45 08	 mov	 eax, DWORD PTR __Arg$[ebp]

; 80   : 	}

  00006	5d		 pop	 ebp
  00007	c3		 ret	 0
??$forward@UtagDummyCharCreateInfo@@@std@@YA$$QAUtagDummyCharCreateInfo@@AAU1@@Z ENDP ; std::forward<tagDummyCharCreateInfo>
_TEXT	ENDS
PUBLIC	??0tagDummyCharLoadInfo@@QAE@ABU0@@Z		; tagDummyCharLoadInfo::tagDummyCharLoadInfo
; Function compile flags: /Ogsp
;	COMDAT ??0tagDummyCharLoadInfo@@QAE@ABU0@@Z
_TEXT	SEGMENT
___that$ = 8						; size = 4
??0tagDummyCharLoadInfo@@QAE@ABU0@@Z PROC		; tagDummyCharLoadInfo::tagDummyCharLoadInfo, COMDAT
; _this$ = ecx
  00000	55		 push	 ebp
  00001	8b ec		 mov	 ebp, esp
  00003	56		 push	 esi
  00004	57		 push	 edi
  00005	8b 7d 08	 mov	 edi, DWORD PTR ___that$[ebp]
  00008	57		 push	 edi
  00009	8b f1		 mov	 esi, ecx
  0000b	ff 15 00 00 00
	00		 call	 DWORD PTR __imp_??0ioHashString@@QAE@ABV0@@Z
  00011	d9 47 10	 fld	 DWORD PTR [edi+16]
  00014	d9 5e 10	 fstp	 DWORD PTR [esi+16]
  00017	8b c6		 mov	 eax, esi
  00019	d9 47 14	 fld	 DWORD PTR [edi+20]
  0001c	d9 5e 14	 fstp	 DWORD PTR [esi+20]
  0001f	d9 47 18	 fld	 DWORD PTR [edi+24]
  00022	5f		 pop	 edi
  00023	d9 5e 18	 fstp	 DWORD PTR [esi+24]
  00026	5e		 pop	 esi
  00027	5d		 pop	 ebp
  00028	c2 04 00	 ret	 4
??0tagDummyCharLoadInfo@@QAE@ABU0@@Z ENDP		; tagDummyCharLoadInfo::tagDummyCharLoadInfo
_TEXT	ENDS
PUBLIC	??0D3DXVECTOR3@@QAE@XZ				; D3DXVECTOR3::D3DXVECTOR3
; Function compile flags: /Ogsp
; File c:\program files (x86)\microsoft directx sdk (june 2010)\include\d3dx9math.h
;	COMDAT ??0D3DXVECTOR3@@QAE@XZ
_TEXT	SEGMENT
??0D3DXVECTOR3@@QAE@XZ PROC				; D3DXVECTOR3::D3DXVECTOR3, COMDAT
; _this$ = ecx

; 165  :     D3DXVECTOR3() {};

  00000	8b c1		 mov	 eax, ecx
  00002	c3		 ret	 0
??0D3DXVECTOR3@@QAE@XZ ENDP				; D3DXVECTOR3::D3DXVECTOR3
_TEXT	ENDS
PUBLIC	??0D3DXVECTOR3@@QAE@MMM@Z			; D3DXVECTOR3::D3DXVECTOR3
; Function compile flags: /Ogsp
; File c:\program files (x86)\microsoft directx sdk (june 2010)\include\d3dx9math.inl
;	COMDAT ??0D3DXVECTOR3@@QAE@MMM@Z
_TEXT	SEGMENT
_fx$ = 8						; size = 4
_fy$ = 12						; size = 4
_fz$ = 16						; size = 4
??0D3DXVECTOR3@@QAE@MMM@Z PROC				; D3DXVECTOR3::D3DXVECTOR3, COMDAT
; _this$ = ecx

; 303  : {

  00000	55		 push	 ebp
  00001	8b ec		 mov	 ebp, esp

; 304  :     x = fx;

  00003	f3 0f 10 45 08	 movss	 xmm0, DWORD PTR _fx$[ebp]
  00008	8b c1		 mov	 eax, ecx
  0000a	f3 0f 11 00	 movss	 DWORD PTR [eax], xmm0

; 305  :     y = fy;

  0000e	f3 0f 10 45 0c	 movss	 xmm0, DWORD PTR _fy$[ebp]
  00013	f3 0f 11 40 04	 movss	 DWORD PTR [eax+4], xmm0

; 306  :     z = fz;

  00018	f3 0f 10 45 10	 movss	 xmm0, DWORD PTR _fz$[ebp]
  0001d	f3 0f 11 40 08	 movss	 DWORD PTR [eax+8], xmm0

; 307  : }

  00022	5d		 pop	 ebp
  00023	c2 0c 00	 ret	 12			; 0000000cH
??0D3DXVECTOR3@@QAE@MMM@Z ENDP				; D3DXVECTOR3::D3DXVECTOR3
_TEXT	ENDS
PUBLIC	??YD3DXVECTOR3@@QAEAAU0@ABU0@@Z			; D3DXVECTOR3::operator+=
; Function compile flags: /Ogsp
;	COMDAT ??YD3DXVECTOR3@@QAEAAU0@ABU0@@Z
_TEXT	SEGMENT
_v$ = 8							; size = 4
??YD3DXVECTOR3@@QAEAAU0@ABU0@@Z PROC			; D3DXVECTOR3::operator+=, COMDAT
; _this$ = ecx

; 327  : {

  00000	55		 push	 ebp
  00001	8b ec		 mov	 ebp, esp
  00003	8b c1		 mov	 eax, ecx

; 328  :     x += v.x;

  00005	8b 4d 08	 mov	 ecx, DWORD PTR _v$[ebp]
  00008	f3 0f 10 01	 movss	 xmm0, DWORD PTR [ecx]
  0000c	f3 0f 10 08	 movss	 xmm1, DWORD PTR [eax]
  00010	0f 5a c0	 cvtps2pd xmm0, xmm0
  00013	0f 5a c9	 cvtps2pd xmm1, xmm1
  00016	f2 0f 58 c1	 addsd	 xmm0, xmm1

; 329  :     y += v.y;

  0001a	f3 0f 10 48 04	 movss	 xmm1, DWORD PTR [eax+4]
  0001f	66 0f 5a c0	 cvtpd2ps xmm0, xmm0
  00023	f3 0f 11 00	 movss	 DWORD PTR [eax], xmm0
  00027	f3 0f 10 41 04	 movss	 xmm0, DWORD PTR [ecx+4]
  0002c	0f 5a c0	 cvtps2pd xmm0, xmm0
  0002f	0f 5a c9	 cvtps2pd xmm1, xmm1
  00032	f2 0f 58 c1	 addsd	 xmm0, xmm1

; 330  :     z += v.z;

  00036	f3 0f 10 48 08	 movss	 xmm1, DWORD PTR [eax+8]
  0003b	66 0f 5a c0	 cvtpd2ps xmm0, xmm0
  0003f	f3 0f 11 40 04	 movss	 DWORD PTR [eax+4], xmm0
  00044	f3 0f 10 41 08	 movss	 xmm0, DWORD PTR [ecx+8]
  00049	0f 5a c0	 cvtps2pd xmm0, xmm0
  0004c	0f 5a c9	 cvtps2pd xmm1, xmm1
  0004f	f2 0f 58 c1	 addsd	 xmm0, xmm1
  00053	66 0f 5a c0	 cvtpd2ps xmm0, xmm0
  00057	f3 0f 11 40 08	 movss	 DWORD PTR [eax+8], xmm0

; 331  :     return *this;
; 332  : }

  0005c	5d		 pop	 ebp
  0005d	c2 04 00	 ret	 4
??YD3DXVECTOR3@@QAEAAU0@ABU0@@Z ENDP			; D3DXVECTOR3::operator+=
_TEXT	ENDS
PUBLIC	??HD3DXVECTOR3@@QBE?AU0@ABU0@@Z			; D3DXVECTOR3::operator+
; Function compile flags: /Ogsp
;	COMDAT ??HD3DXVECTOR3@@QBE?AU0@ABU0@@Z
_TEXT	SEGMENT
___$ReturnUdt$ = 8					; size = 4
_v$ = 12						; size = 4
??HD3DXVECTOR3@@QBE?AU0@ABU0@@Z PROC			; D3DXVECTOR3::operator+, COMDAT
; _this$ = ecx

; 380  : {

  00000	55		 push	 ebp
  00001	8b ec		 mov	 ebp, esp

; 381  :     return D3DXVECTOR3(x + v.x, y + v.y, z + v.z);

  00003	8b 55 0c	 mov	 edx, DWORD PTR _v$[ebp]
  00006	f3 0f 10 02	 movss	 xmm0, DWORD PTR [edx]
  0000a	f3 0f 10 09	 movss	 xmm1, DWORD PTR [ecx]
  0000e	8b 45 08	 mov	 eax, DWORD PTR ___$ReturnUdt$[ebp]
  00011	0f 5a c0	 cvtps2pd xmm0, xmm0
  00014	0f 5a c9	 cvtps2pd xmm1, xmm1
  00017	f2 0f 58 c1	 addsd	 xmm0, xmm1
  0001b	f3 0f 10 49 04	 movss	 xmm1, DWORD PTR [ecx+4]
  00020	66 0f 5a c0	 cvtpd2ps xmm0, xmm0
  00024	f3 0f 11 00	 movss	 DWORD PTR [eax], xmm0
  00028	f3 0f 10 42 04	 movss	 xmm0, DWORD PTR [edx+4]
  0002d	0f 5a c0	 cvtps2pd xmm0, xmm0
  00030	0f 5a c9	 cvtps2pd xmm1, xmm1
  00033	f2 0f 58 c1	 addsd	 xmm0, xmm1
  00037	f3 0f 10 49 08	 movss	 xmm1, DWORD PTR [ecx+8]
  0003c	66 0f 5a c0	 cvtpd2ps xmm0, xmm0
  00040	f3 0f 11 40 04	 movss	 DWORD PTR [eax+4], xmm0
  00045	f3 0f 10 42 08	 movss	 xmm0, DWORD PTR [edx+8]
  0004a	0f 5a c0	 cvtps2pd xmm0, xmm0
  0004d	0f 5a c9	 cvtps2pd xmm1, xmm1
  00050	f2 0f 58 c1	 addsd	 xmm0, xmm1
  00054	66 0f 5a c0	 cvtpd2ps xmm0, xmm0
  00058	f3 0f 11 40 08	 movss	 DWORD PTR [eax+8], xmm0

; 382  : }

  0005d	5d		 pop	 ebp
  0005e	c2 08 00	 ret	 8
??HD3DXVECTOR3@@QBE?AU0@ABU0@@Z ENDP			; D3DXVECTOR3::operator+
_TEXT	ENDS
PUBLIC	??D@YA?AUD3DXVECTOR3@@MABU0@@Z			; operator*
; Function compile flags: /Ogsp
;	COMDAT ??D@YA?AUD3DXVECTOR3@@MABU0@@Z
_TEXT	SEGMENT
___$ReturnUdt$ = 8					; size = 4
_f$ = 12						; size = 4
_v$ = 16						; size = 4
??D@YA?AUD3DXVECTOR3@@MABU0@@Z PROC			; operator*, COMDAT

; 406  : {

  00000	55		 push	 ebp
  00001	8b ec		 mov	 ebp, esp

; 407  :     return D3DXVECTOR3(f * v.x, f * v.y, f * v.z);

  00003	8b 4d 10	 mov	 ecx, DWORD PTR _v$[ebp]
  00006	f3 0f 10 4d 0c	 movss	 xmm1, DWORD PTR _f$[ebp]
  0000b	f3 0f 10 01	 movss	 xmm0, DWORD PTR [ecx]
  0000f	8b 45 08	 mov	 eax, DWORD PTR ___$ReturnUdt$[ebp]
  00012	0f 5a c0	 cvtps2pd xmm0, xmm0
  00015	0f 5a c9	 cvtps2pd xmm1, xmm1
  00018	f2 0f 59 c1	 mulsd	 xmm0, xmm1
  0001c	f3 0f 10 4d 0c	 movss	 xmm1, DWORD PTR _f$[ebp]
  00021	66 0f 5a c0	 cvtpd2ps xmm0, xmm0
  00025	f3 0f 11 00	 movss	 DWORD PTR [eax], xmm0
  00029	f3 0f 10 41 04	 movss	 xmm0, DWORD PTR [ecx+4]
  0002e	0f 5a c0	 cvtps2pd xmm0, xmm0
  00031	0f 5a c9	 cvtps2pd xmm1, xmm1
  00034	f2 0f 59 c1	 mulsd	 xmm0, xmm1
  00038	f3 0f 10 4d 0c	 movss	 xmm1, DWORD PTR _f$[ebp]
  0003d	66 0f 5a c0	 cvtpd2ps xmm0, xmm0
  00041	f3 0f 11 40 04	 movss	 DWORD PTR [eax+4], xmm0
  00046	f3 0f 10 41 08	 movss	 xmm0, DWORD PTR [ecx+8]
  0004b	0f 5a c0	 cvtps2pd xmm0, xmm0
  0004e	0f 5a c9	 cvtps2pd xmm1, xmm1
  00051	f2 0f 59 c1	 mulsd	 xmm0, xmm1
  00055	66 0f 5a c0	 cvtpd2ps xmm0, xmm0
  00059	f3 0f 11 40 08	 movss	 DWORD PTR [eax+8], xmm0

; 408  : }

  0005e	5d		 pop	 ebp
  0005f	c3		 ret	 0
??D@YA?AUD3DXVECTOR3@@MABU0@@Z ENDP			; operator*
_TEXT	ENDS
PUBLIC	?D3DXVec3Cross@@YAPAUD3DXVECTOR3@@PAU1@PBU1@1@Z	; D3DXVec3Cross
; Function compile flags: /Ogsp
;	COMDAT ?D3DXVec3Cross@@YAPAUD3DXVECTOR3@@PAU1@PBU1@1@Z
_TEXT	SEGMENT
_v$ = -12						; size = 12
_pOut$ = 8						; size = 4
_pV1$ = 12						; size = 4
_pV2$ = 16						; size = 4
?D3DXVec3Cross@@YAPAUD3DXVECTOR3@@PAU1@PBU1@1@Z PROC	; D3DXVec3Cross, COMDAT

; 1747 : {

  00000	55		 push	 ebp
  00001	8b ec		 mov	 ebp, esp
  00003	83 ec 0c	 sub	 esp, 12			; 0000000cH

; 1757 :     v.z = pV1->x * pV2->y - pV1->y * pV2->x;
; 1758 : 
; 1759 :     *pOut = v;

  00006	56		 push	 esi
  00007	57		 push	 edi

; 1748 :     D3DXVECTOR3 v;
; 1749 : 
; 1750 : #ifdef D3DX_DEBUG
; 1751 :     if(!pOut || !pV1 || !pV2)
; 1752 :         return NULL;
; 1753 : #endif
; 1754 : 
; 1755 :     v.x = pV1->y * pV2->z - pV1->z * pV2->y;

  00008	8b 45 0c	 mov	 eax, DWORD PTR _pV1$[ebp]
  0000b	f3 0f 10 40 04	 movss	 xmm0, DWORD PTR [eax+4]
  00010	f3 0f 10 50 08	 movss	 xmm2, DWORD PTR [eax+8]
  00015	8b 4d 10	 mov	 ecx, DWORD PTR _pV2$[ebp]
  00018	f3 0f 10 49 08	 movss	 xmm1, DWORD PTR [ecx+8]
  0001d	f3 0f 10 59 04	 movss	 xmm3, DWORD PTR [ecx+4]
  00022	0f 5a e8	 cvtps2pd xmm5, xmm0
  00025	0f 5a e1	 cvtps2pd xmm4, xmm1
  00028	0f 5a f2	 cvtps2pd xmm6, xmm2
  0002b	f2 0f 59 e5	 mulsd	 xmm4, xmm5

; 1756 :     v.y = pV1->z * pV2->x - pV1->x * pV2->z;

  0002f	0f 5a d2	 cvtps2pd xmm2, xmm2
  00032	0f 5a c9	 cvtps2pd xmm1, xmm1
  00035	0f 5a eb	 cvtps2pd xmm5, xmm3
  00038	f2 0f 59 ee	 mulsd	 xmm5, xmm6
  0003c	f2 0f 5c e5	 subsd	 xmm4, xmm5
  00040	f3 0f 10 28	 movss	 xmm5, DWORD PTR [eax]

; 1757 :     v.z = pV1->x * pV2->y - pV1->y * pV2->x;
; 1758 : 
; 1759 :     *pOut = v;

  00044	8b 45 08	 mov	 eax, DWORD PTR _pOut$[ebp]
  00047	66 0f 5a e4	 cvtpd2ps xmm4, xmm4
  0004b	f3 0f 11 65 f4	 movss	 DWORD PTR _v$[ebp], xmm4
  00050	f3 0f 10 21	 movss	 xmm4, DWORD PTR [ecx]
  00054	0f 5a f4	 cvtps2pd xmm6, xmm4
  00057	f2 0f 59 f2	 mulsd	 xmm6, xmm2
  0005b	0f 5a d5	 cvtps2pd xmm2, xmm5
  0005e	f2 0f 59 d1	 mulsd	 xmm2, xmm1
  00062	f2 0f 5c f2	 subsd	 xmm6, xmm2
  00066	66 0f 5a ce	 cvtpd2ps xmm1, xmm6
  0006a	f3 0f 11 4d f8	 movss	 DWORD PTR _v$[ebp+4], xmm1
  0006f	0f 5a c0	 cvtps2pd xmm0, xmm0
  00072	0f 5a d3	 cvtps2pd xmm2, xmm3
  00075	0f 5a cd	 cvtps2pd xmm1, xmm5
  00078	f2 0f 59 ca	 mulsd	 xmm1, xmm2
  0007c	8d 75 f4	 lea	 esi, DWORD PTR _v$[ebp]
  0007f	8b f8		 mov	 edi, eax
  00081	0f 5a d4	 cvtps2pd xmm2, xmm4
  00084	f2 0f 59 d0	 mulsd	 xmm2, xmm0
  00088	f2 0f 5c ca	 subsd	 xmm1, xmm2
  0008c	66 0f 5a c1	 cvtpd2ps xmm0, xmm1
  00090	f3 0f 11 45 fc	 movss	 DWORD PTR _v$[ebp+8], xmm0
  00095	a5		 movsd
  00096	a5		 movsd
  00097	a5		 movsd
  00098	5f		 pop	 edi
  00099	5e		 pop	 esi

; 1760 :     return pOut;
; 1761 : }

  0009a	c9		 leave
  0009b	c3		 ret	 0
?D3DXVec3Cross@@YAPAUD3DXVECTOR3@@PAU1@PBU1@1@Z ENDP	; D3DXVec3Cross
_TEXT	ENDS
PUBLIC	?_DECSTR@@YAXPADH@Z				; _DECSTR
; Function compile flags: /Ogsp
; File d:\lost saga for developer\youtube\tutorial\source\src\lsclient\stringprotect.h
;	COMDAT ?_DECSTR@@YAXPADH@Z
_TEXT	SEGMENT
_s$ = 8							; size = 4
_l$ = 12						; size = 4
?_DECSTR@@YAXPADH@Z PROC				; _DECSTR, COMDAT

; 40   : __forceinline void _DECSTR(char* s, int l){int i=0,l4=(l-1)/4,*p=(int*)s;s[l-1]=0;for(;i<l4;++i)*(p++)^=0xEAEBECED;for(i=l4*4;i<l-1;++i)s[i]^=0xED-i%4;}

  00000	55		 push	 ebp
  00001	8b ec		 mov	 ebp, esp
  00003	8b 4d 0c	 mov	 ecx, DWORD PTR _l$[ebp]
  00006	56		 push	 esi
  00007	8b 75 08	 mov	 esi, DWORD PTR _s$[ebp]
  0000a	57		 push	 edi
  0000b	8d 79 ff	 lea	 edi, DWORD PTR [ecx-1]
  0000e	8b c7		 mov	 eax, edi
  00010	99		 cdq
  00011	83 e2 03	 and	 edx, 3
  00014	03 c2		 add	 eax, edx
  00016	c1 f8 02	 sar	 eax, 2
  00019	8b d6		 mov	 edx, esi
  0001b	c6 44 0e ff 00	 mov	 BYTE PTR [esi+ecx-1], 0
  00020	85 c0		 test	 eax, eax
  00022	7e 0e		 jle	 SHORT $LN4@DECSTR
  00024	8b c8		 mov	 ecx, eax
$LL6@DECSTR:
  00026	81 32 ed ec eb
	ea		 xor	 DWORD PTR [edx], -353637139 ; eaebecedH
  0002c	83 c2 04	 add	 edx, 4
  0002f	49		 dec	 ecx
  00030	75 f4		 jne	 SHORT $LL6@DECSTR
$LN4@DECSTR:
  00032	c1 e0 02	 shl	 eax, 2
  00035	eb 17		 jmp	 SHORT $LN14@DECSTR
$LL3@DECSTR:
  00037	8b c8		 mov	 ecx, eax
  00039	81 e1 03 00 00
	80		 and	 ecx, -2147483645	; 80000003H
  0003f	79 05		 jns	 SHORT $LN13@DECSTR
  00041	49		 dec	 ecx
  00042	83 c9 fc	 or	 ecx, -4			; fffffffcH
  00045	41		 inc	 ecx
$LN13@DECSTR:
  00046	b2 ed		 mov	 dl, -19			; ffffffedH
  00048	2a d1		 sub	 dl, cl
  0004a	30 14 30	 xor	 BYTE PTR [eax+esi], dl
  0004d	40		 inc	 eax
$LN14@DECSTR:
  0004e	3b c7		 cmp	 eax, edi
  00050	7c e5		 jl	 SHORT $LL3@DECSTR
  00052	5f		 pop	 edi
  00053	5e		 pop	 esi
  00054	5d		 pop	 ebp
  00055	c3		 ret	 0
?_DECSTR@@YAXPADH@Z ENDP				; _DECSTR
_TEXT	ENDS
PUBLIC	?Init@tagDummyCharCreateInfo@@QAEXXZ		; tagDummyCharCreateInfo::Init
; Function compile flags: /Ogsp
; File d:\lost saga for developer\youtube\tutorial\source\src\lsclient\playentityhelpstruct.h
;	COMDAT ?Init@tagDummyCharCreateInfo@@QAEXXZ
_TEXT	SEGMENT
$T283620 = -12						; size = 12
?Init@tagDummyCharCreateInfo@@QAEXXZ PROC		; tagDummyCharCreateInfo::Init, COMDAT
; _this$ = ecx

; 1456 : 	{

  00000	55		 push	 ebp
  00001	8b ec		 mov	 ebp, esp
  00003	83 ec 0c	 sub	 esp, 12			; 0000000cH

; 1457 : 		m_iDummyCharIdx = 0;
; 1458 : 		m_fDummyCharStartAngle = 0.0f;

  00006	0f 57 c0	 xorps	 xmm0, xmm0
  00009	83 61 10 00	 and	 DWORD PTR [ecx+16], 0
  0000d	56		 push	 esi
  0000e	57		 push	 edi

; 1459 : 
; 1460 : 		m_vTargetPos = D3DXVECTOR3( 0.0f, 0.0f, 0.0f );

  0000f	f3 0f 11 45 f4	 movss	 DWORD PTR $T283620[ebp], xmm0
  00014	f3 0f 11 45 f8	 movss	 DWORD PTR $T283620[ebp+4], xmm0
  00019	f3 0f 11 45 fc	 movss	 DWORD PTR $T283620[ebp+8], xmm0
  0001e	8d 79 18	 lea	 edi, DWORD PTR [ecx+24]
  00021	8d 75 f4	 lea	 esi, DWORD PTR $T283620[ebp]
  00024	a5		 movsd
  00025	a5		 movsd
  00026	a5		 movsd
  00027	5f		 pop	 edi
  00028	f3 0f 11 41 14	 movss	 DWORD PTR [ecx+20], xmm0
  0002d	5e		 pop	 esi

; 1461 : 	}

  0002e	c9		 leave
  0002f	c3		 ret	 0
?Init@tagDummyCharCreateInfo@@QAEXXZ ENDP		; tagDummyCharCreateInfo::Init
_TEXT	ENDS
PUBLIC	?GetType@ioDummyChar@@QBE?AW4DummyCharType@@XZ	; ioDummyChar::GetType
; Function compile flags: /Ogsp
; File d:\lost saga for developer\youtube\tutorial\source\src\lsclient\iodummychar.h
;	COMDAT ?GetType@ioDummyChar@@QBE?AW4DummyCharType@@XZ
_TEXT	SEGMENT
?GetType@ioDummyChar@@QBE?AW4DummyCharType@@XZ PROC	; ioDummyChar::GetType, COMDAT
; _this$ = ecx

; 649  : 	inline DummyCharType GetType() const { return m_DummyCharType; }

  00000	8b 81 2c 02 00
	00		 mov	 eax, DWORD PTR [ecx+556]
  00006	c3		 ret	 0
?GetType@ioDummyChar@@QBE?AW4DummyCharType@@XZ ENDP	; ioDummyChar::GetType
_TEXT	ENDS
PUBLIC	?GetState@ioDummyChar@@QBE?AW4DummyCharState@@XZ ; ioDummyChar::GetState
; Function compile flags: /Ogsp
;	COMDAT ?GetState@ioDummyChar@@QBE?AW4DummyCharState@@XZ
_TEXT	SEGMENT
?GetState@ioDummyChar@@QBE?AW4DummyCharState@@XZ PROC	; ioDummyChar::GetState, COMDAT
; _this$ = ecx

; 650  : 	inline DummyCharState GetState() const { return m_State; }

  00000	8b 81 30 02 00
	00		 mov	 eax, DWORD PTR [ecx+560]
  00006	c3		 ret	 0
?GetState@ioDummyChar@@QBE?AW4DummyCharState@@XZ ENDP	; ioDummyChar::GetState
_TEXT	ENDS
PUBLIC	?GetName@ioBuff@@QBEABVioHashString@@XZ		; ioBuff::GetName
; Function compile flags: /Ogsp
; File d:\lost saga for developer\youtube\tutorial\source\src\lsclient\iobuff.h
;	COMDAT ?GetName@ioBuff@@QBEABVioHashString@@XZ
_TEXT	SEGMENT
?GetName@ioBuff@@QBEABVioHashString@@XZ PROC		; ioBuff::GetName, COMDAT
; _this$ = ecx

; 440  : 	inline const ioHashString& GetName() const { return m_Name; }

  00000	8d 81 34 02 00
	00		 lea	 eax, DWORD PTR [ecx+564]
  00006	c3		 ret	 0
?GetName@ioBuff@@QBEABVioHashString@@XZ ENDP		; ioBuff::GetName
_TEXT	ENDS
PUBLIC	?size@?$vector@VioHashString@@V?$allocator@VioHashString@@@std@@@std@@QBEIXZ ; std::vector<ioHashString,std::allocator<ioHashString> >::size
; Function compile flags: /Ogsp
; File c:\program files (x86)\microsoft visual studio 10.0\vc\include\vector
;	COMDAT ?size@?$vector@VioHashString@@V?$allocator@VioHashString@@@std@@@std@@QBEIXZ
_TEXT	SEGMENT
?size@?$vector@VioHashString@@V?$allocator@VioHashString@@@std@@@std@@QBEIXZ PROC ; std::vector<ioHashString,std::allocator<ioHashString> >::size, COMDAT
; _this$ = ecx

; 879  : 		return (this->_Mylast - this->_Myfirst);

  00000	8b 41 04	 mov	 eax, DWORD PTR [ecx+4]
  00003	2b 01		 sub	 eax, DWORD PTR [ecx]
  00005	c1 f8 04	 sar	 eax, 4

; 880  : 		}

  00008	c3		 ret	 0
?size@?$vector@VioHashString@@V?$allocator@VioHashString@@@std@@@std@@QBEIXZ ENDP ; std::vector<ioHashString,std::allocator<ioHashString> >::size
_TEXT	ENDS
PUBLIC	??_7?$CEncrypt@_N@@6B@				; CEncrypt<bool>::`vftable'
PUBLIC	??1?$CEncrypt@_N@@UAE@XZ			; CEncrypt<bool>::~CEncrypt<bool>
PUBLIC	??_R4?$CEncrypt@_N@@6B@				; CEncrypt<bool>::`RTTI Complete Object Locator'
PUBLIC	??_R0?AV?$CEncrypt@_N@@@8			; CEncrypt<bool> `RTTI Type Descriptor'
PUBLIC	??_R3?$CEncrypt@_N@@8				; CEncrypt<bool>::`RTTI Class Hierarchy Descriptor'
PUBLIC	??_R2?$CEncrypt@_N@@8				; CEncrypt<bool>::`RTTI Base Class Array'
PUBLIC	??_R1A@?0A@EA@?$CEncrypt@_N@@8			; CEncrypt<bool>::`RTTI Base Class Descriptor at (0,-1,0,64)'
EXTRN	??1ccddaabb@@UAE@XZ:PROC			; ccddaabb::~ccddaabb
EXTRN	??_E?$CEncrypt@_N@@UAEPAXI@Z:PROC		; CEncrypt<bool>::`vector deleting destructor'
;	COMDAT ??_R1A@?0A@EA@?$CEncrypt@_N@@8
; File d:\lost saga for developer\youtube\tutorial\source\src\lsclient\encryptvalue.h
rdata$r	SEGMENT
??_R1A@?0A@EA@?$CEncrypt@_N@@8 DD FLAT:??_R0?AV?$CEncrypt@_N@@@8 ; CEncrypt<bool>::`RTTI Base Class Descriptor at (0,-1,0,64)'
	DD	00H
	DD	00H
	DD	0ffffffffH
	DD	00H
	DD	040H
	DD	FLAT:??_R3?$CEncrypt@_N@@8
rdata$r	ENDS
;	COMDAT ??_R2?$CEncrypt@_N@@8
rdata$r	SEGMENT
??_R2?$CEncrypt@_N@@8 DD FLAT:??_R1A@?0A@EA@?$CEncrypt@_N@@8 ; CEncrypt<bool>::`RTTI Base Class Array'
rdata$r	ENDS
;	COMDAT ??_R3?$CEncrypt@_N@@8
rdata$r	SEGMENT
??_R3?$CEncrypt@_N@@8 DD 00H				; CEncrypt<bool>::`RTTI Class Hierarchy Descriptor'
	DD	00H
	DD	01H
	DD	FLAT:??_R2?$CEncrypt@_N@@8
rdata$r	ENDS
;	COMDAT ??_R0?AV?$CEncrypt@_N@@@8
_DATA	SEGMENT
??_R0?AV?$CEncrypt@_N@@@8 DD FLAT:??_7type_info@@6B@	; CEncrypt<bool> `RTTI Type Descriptor'
	DD	00H
	DB	'.?AV?$CEncrypt@_N@@', 00H
_DATA	ENDS
;	COMDAT ??_R4?$CEncrypt@_N@@6B@
rdata$r	SEGMENT
??_R4?$CEncrypt@_N@@6B@ DD 00H				; CEncrypt<bool>::`RTTI Complete Object Locator'
	DD	00H
	DD	00H
	DD	FLAT:??_R0?AV?$CEncrypt@_N@@@8
	DD	FLAT:??_R3?$CEncrypt@_N@@8
rdata$r	ENDS
;	COMDAT ??_7?$CEncrypt@_N@@6B@
CONST	SEGMENT
??_7?$CEncrypt@_N@@6B@ DD FLAT:??_R4?$CEncrypt@_N@@6B@	; CEncrypt<bool>::`vftable'
	DD	FLAT:??_E?$CEncrypt@_N@@UAEPAXI@Z
; Function compile flags: /Ogsp
CONST	ENDS
;	COMDAT ??1?$CEncrypt@_N@@UAE@XZ
_TEXT	SEGMENT
??1?$CEncrypt@_N@@UAE@XZ PROC				; CEncrypt<bool>::~CEncrypt<bool>, COMDAT
; _this$ = ecx

; 127  : 	{

  00000	c7 01 00 00 00
	00		 mov	 DWORD PTR [ecx], OFFSET ??_7?$CEncrypt@_N@@6B@

; 128  : 	}

  00006	83 c1 0c	 add	 ecx, 12			; 0000000cH
  00009	e9 00 00 00 00	 jmp	 ??1ccddaabb@@UAE@XZ	; ccddaabb::~ccddaabb
??1?$CEncrypt@_N@@UAE@XZ ENDP				; CEncrypt<bool>::~CEncrypt<bool>
; Function compile flags: /Ogsp
_TEXT	ENDS
;	COMDAT ??_G?$CEncrypt@_N@@UAEPAXI@Z
_TEXT	SEGMENT
___flags$ = 8						; size = 4
??_G?$CEncrypt@_N@@UAEPAXI@Z PROC			; CEncrypt<bool>::`scalar deleting destructor', COMDAT
; _this$ = ecx
  00000	55		 push	 ebp
  00001	8b ec		 mov	 ebp, esp
  00003	56		 push	 esi
  00004	8b f1		 mov	 esi, ecx
  00006	8d 4e 0c	 lea	 ecx, DWORD PTR [esi+12]
  00009	c7 06 00 00 00
	00		 mov	 DWORD PTR [esi], OFFSET ??_7?$CEncrypt@_N@@6B@
  0000f	e8 00 00 00 00	 call	 ??1ccddaabb@@UAE@XZ	; ccddaabb::~ccddaabb
  00014	f6 45 08 01	 test	 BYTE PTR ___flags$[ebp], 1
  00018	74 07		 je	 SHORT $LN1@scalar@3
  0001a	56		 push	 esi
  0001b	e8 00 00 00 00	 call	 ??3@YAXPAX@Z		; operator delete
  00020	59		 pop	 ecx
$LN1@scalar@3:
  00021	8b c6		 mov	 eax, esi
  00023	5e		 pop	 esi
  00024	5d		 pop	 ebp
  00025	c2 04 00	 ret	 4
??_G?$CEncrypt@_N@@UAEPAXI@Z ENDP			; CEncrypt<bool>::`scalar deleting destructor'
_TEXT	ENDS
PUBLIC	??1?$_Vector_val@VioHashString@@V?$allocator@VioHashString@@@std@@@std@@QAE@XZ ; std::_Vector_val<ioHashString,std::allocator<ioHashString> >::~_Vector_val<ioHashString,std::allocator<ioHashString> >
; Function compile flags: /Ogsp
; File c:\program files (x86)\microsoft visual studio 10.0\vc\include\vector
;	COMDAT ??1?$_Vector_val@VioHashString@@V?$allocator@VioHashString@@@std@@@std@@QAE@XZ
_TEXT	SEGMENT
??1?$_Vector_val@VioHashString@@V?$allocator@VioHashString@@@std@@@std@@QAE@XZ PROC ; std::_Vector_val<ioHashString,std::allocator<ioHashString> >::~_Vector_val<ioHashString,std::allocator<ioHashString> >, COMDAT
; _this$ = ecx

; 434  : 		}

  00000	c3		 ret	 0
??1?$_Vector_val@VioHashString@@V?$allocator@VioHashString@@@std@@@std@@QAE@XZ ENDP ; std::_Vector_val<ioHashString,std::allocator<ioHashString> >::~_Vector_val<ioHashString,std::allocator<ioHashString> >
_TEXT	ENDS
PUBLIC	??0?$allocator@VioHashString@@@std@@QAE@XZ	; std::allocator<ioHashString>::allocator<ioHashString>
; Function compile flags: /Ogsp
; File c:\program files (x86)\microsoft visual studio 10.0\vc\include\xmemory
;	COMDAT ??0?$allocator@VioHashString@@@std@@QAE@XZ
_TEXT	SEGMENT
??0?$allocator@VioHashString@@@std@@QAE@XZ PROC		; std::allocator<ioHashString>::allocator<ioHashString>, COMDAT
; _this$ = ecx

; 161  : 	_ALLOCATOR() _THROW0()

  00000	8b c1		 mov	 eax, ecx

; 162  : 		{	// construct default allocator (do nothing)
; 163  : 		}

  00002	c3		 ret	 0
??0?$allocator@VioHashString@@@std@@QAE@XZ ENDP		; std::allocator<ioHashString>::allocator<ioHashString>
_TEXT	ENDS
PUBLIC	??0?$allocator@VioHashString@@@std@@QAE@ABV01@@Z ; std::allocator<ioHashString>::allocator<ioHashString>
; Function compile flags: /Ogsp
;	COMDAT ??0?$allocator@VioHashString@@@std@@QAE@ABV01@@Z
_TEXT	SEGMENT
___formal$ = 8						; size = 4
??0?$allocator@VioHashString@@@std@@QAE@ABV01@@Z PROC	; std::allocator<ioHashString>::allocator<ioHashString>, COMDAT
; _this$ = ecx

; 165  : 	_ALLOCATOR(const _ALLOCATOR<_Ty>&) _THROW0()

  00000	8b c1		 mov	 eax, ecx

; 166  : 		{	// construct by copying (do nothing)
; 167  : 		}

  00002	c2 04 00	 ret	 4
??0?$allocator@VioHashString@@@std@@QAE@ABV01@@Z ENDP	; std::allocator<ioHashString>::allocator<ioHashString>
_TEXT	ENDS
PUBLIC	?DecryptValueToPool@?$CEncrypt@M@@QAEXPAM@Z	; CEncrypt<float>::DecryptValueToPool
EXTRN	?DecryptByte@ccddaabb@@QBEXPBDPADH@Z:PROC	; ccddaabb::DecryptByte
; Function compile flags: /Ogsp
; File d:\lost saga for developer\youtube\tutorial\source\src\lsclient\encryptvalue.h
;	COMDAT ?DecryptValueToPool@?$CEncrypt@M@@QAEXPAM@Z
_TEXT	SEGMENT
_value$ = 8						; size = 4
?DecryptValueToPool@?$CEncrypt@M@@QAEXPAM@Z PROC	; CEncrypt<float>::DecryptValueToPool, COMDAT
; _this$ = ecx

; 1648 : 	{

  00000	55		 push	 ebp
  00001	8b ec		 mov	 ebp, esp
  00003	56		 push	 esi

; 1649 : 		m_RC5.DecryptByte( m_MemPool, m_TempMem, 4 );

  00004	8d 71 28	 lea	 esi, DWORD PTR [ecx+40]
  00007	6a 04		 push	 4
  00009	8d 41 1c	 lea	 eax, DWORD PTR [ecx+28]
  0000c	56		 push	 esi
  0000d	50		 push	 eax
  0000e	83 c1 0c	 add	 ecx, 12			; 0000000cH
  00011	e8 00 00 00 00	 call	 ?DecryptByte@ccddaabb@@QBEXPBDPADH@Z ; ccddaabb::DecryptByte

; 1650 : 		*value = *((float*)m_TempMem);

  00016	d9 06		 fld	 DWORD PTR [esi]
  00018	8b 45 08	 mov	 eax, DWORD PTR _value$[ebp]
  0001b	d9 18		 fstp	 DWORD PTR [eax]
  0001d	5e		 pop	 esi

; 1651 : 	}

  0001e	5d		 pop	 ebp
  0001f	c2 04 00	 ret	 4
?DecryptValueToPool@?$CEncrypt@M@@QAEXPAM@Z ENDP	; CEncrypt<float>::DecryptValueToPool
_TEXT	ENDS
PUBLIC	?DecryptValueToPool@?$CEncrypt@K@@QAEXPAK@Z	; CEncrypt<unsigned long>::DecryptValueToPool
; Function compile flags: /Ogsp
;	COMDAT ?DecryptValueToPool@?$CEncrypt@K@@QAEXPAK@Z
_TEXT	SEGMENT
_value$ = 8						; size = 4
?DecryptValueToPool@?$CEncrypt@K@@QAEXPAK@Z PROC	; CEncrypt<unsigned long>::DecryptValueToPool, COMDAT
; _this$ = ecx

; 1256 : 	{

  00000	55		 push	 ebp
  00001	8b ec		 mov	 ebp, esp
  00003	56		 push	 esi

; 1257 : 		m_RC5.DecryptByte( m_MemPool, m_TempMem, 4 );

  00004	8d 71 28	 lea	 esi, DWORD PTR [ecx+40]
  00007	6a 04		 push	 4
  00009	8d 41 1c	 lea	 eax, DWORD PTR [ecx+28]
  0000c	56		 push	 esi
  0000d	50		 push	 eax
  0000e	83 c1 0c	 add	 ecx, 12			; 0000000cH
  00011	e8 00 00 00 00	 call	 ?DecryptByte@ccddaabb@@QBEXPBDPADH@Z ; ccddaabb::DecryptByte

; 1258 : 		*value = *((DWORD*)m_TempMem);

  00016	8b 06		 mov	 eax, DWORD PTR [esi]
  00018	8b 4d 08	 mov	 ecx, DWORD PTR _value$[ebp]
  0001b	89 01		 mov	 DWORD PTR [ecx], eax
  0001d	5e		 pop	 esi

; 1259 : 	}

  0001e	5d		 pop	 ebp
  0001f	c2 04 00	 ret	 4
?DecryptValueToPool@?$CEncrypt@K@@QAEXPAK@Z ENDP	; CEncrypt<unsigned long>::DecryptValueToPool
_TEXT	ENDS
PUBLIC	?EncryptValueToPool@?$CEncrypt@_N@@AAEXPBD@Z	; CEncrypt<bool>::EncryptValueToPool
EXTRN	?EncryptByte@ccddaabb@@QAEXPBDPADH@Z:PROC	; ccddaabb::EncryptByte
; Function compile flags: /Ogsp
;	COMDAT ?EncryptValueToPool@?$CEncrypt@_N@@AAEXPBD@Z
_TEXT	SEGMENT
_value$ = 8						; size = 4
?EncryptValueToPool@?$CEncrypt@_N@@AAEXPBD@Z PROC	; CEncrypt<bool>::EncryptValueToPool, COMDAT
; _this$ = ecx

; 67   : 	{

  00000	55		 push	 ebp
  00001	8b ec		 mov	 ebp, esp

; 68   : 		m_RC5.EncryptByte( value, m_MemPool, max(m_ValueSize, DEFAULT_ENCRYPT) );

  00003	0f b7 41 06	 movzx	 eax, WORD PTR [ecx+6]
  00007	83 f8 04	 cmp	 eax, 4
  0000a	77 03		 ja	 SHORT $LN4@EncryptVal
  0000c	6a 04		 push	 4
  0000e	58		 pop	 eax
$LN4@EncryptVal:
  0000f	50		 push	 eax
  00010	8d 41 1c	 lea	 eax, DWORD PTR [ecx+28]
  00013	50		 push	 eax
  00014	ff 75 08	 push	 DWORD PTR _value$[ebp]
  00017	83 c1 0c	 add	 ecx, 12			; 0000000cH
  0001a	e8 00 00 00 00	 call	 ?EncryptByte@ccddaabb@@QAEXPBDPADH@Z ; ccddaabb::EncryptByte

; 69   : 		
; 70   : 	}

  0001f	5d		 pop	 ebp
  00020	c2 04 00	 ret	 4
?EncryptValueToPool@?$CEncrypt@_N@@AAEXPBD@Z ENDP	; CEncrypt<bool>::EncryptValueToPool
_TEXT	ENDS
PUBLIC	?Init@?$CEncrypt@_N@@AAEXXZ			; CEncrypt<bool>::Init
EXTRN	?Setup@ccddaabb@@QAEXPBDHH@Z:PROC		; ccddaabb::Setup
EXTRN	__imp__rand:PROC
EXTRN	__imp__timeGetTime@0:PROC
EXTRN	__imp__GetCurrentProcessId@0:PROC
; Function compile flags: /Ogsp
;	COMDAT ?Init@?$CEncrypt@_N@@AAEXXZ
_TEXT	SEGMENT
_pid$ = -8						; size = 4
_tick$ = -4						; size = 4
?Init@?$CEncrypt@_N@@AAEXXZ PROC			; CEncrypt<bool>::Init, COMDAT
; _this$ = ecx

; 73   : 	{

  00000	55		 push	 ebp
  00001	8b ec		 mov	 ebp, esp
  00003	51		 push	 ecx
  00004	51		 push	 ecx
  00005	53		 push	 ebx
  00006	56		 push	 esi
  00007	57		 push	 edi
  00008	8b f1		 mov	 esi, ecx

; 74   : 		DWORD pid = GetCurrentProcessId();

  0000a	ff 15 00 00 00
	00		 call	 DWORD PTR __imp__GetCurrentProcessId@0
  00010	89 45 f8	 mov	 DWORD PTR _pid$[ebp], eax

; 75   : 		DWORD tick = timeGetTime();

  00013	ff 15 00 00 00
	00		 call	 DWORD PTR __imp__timeGetTime@0

; 76   : 		m_ValueSize    = sizeof(type);
; 77   : 		m_MemPoolPos   = (unsigned short)( rand()+pid+tick )%(MAX_MEM_POOL-m_ValueSize);

  00019	8b 3d 00 00 00
	00		 mov	 edi, DWORD PTR __imp__rand
  0001f	89 45 fc	 mov	 DWORD PTR _tick$[ebp], eax
  00022	33 c0		 xor	 eax, eax
  00024	40		 inc	 eax
  00025	66 89 46 06	 mov	 WORD PTR [esi+6], ax
  00029	ff d7		 call	 edi
  0002b	03 45 f8	 add	 eax, DWORD PTR _pid$[ebp]
  0002e	0f b7 4e 06	 movzx	 ecx, WORD PTR [esi+6]
  00032	03 45 fc	 add	 eax, DWORD PTR _tick$[ebp]
  00035	6a 0c		 push	 12			; 0000000cH
  00037	0f b7 c0	 movzx	 eax, ax
  0003a	5b		 pop	 ebx
  0003b	99		 cdq
  0003c	2b d9		 sub	 ebx, ecx
  0003e	f7 fb		 idiv	 ebx
  00040	66 89 56 04	 mov	 WORD PTR [esi+4], dx

; 78   : 		m_EncryptSeed  = (char)( rand()+pid+tick )%256;

  00044	ff d7		 call	 edi
  00046	02 45 f8	 add	 al, BYTE PTR _pid$[ebp]
  00049	02 45 fc	 add	 al, BYTE PTR _tick$[ebp]
  0004c	0f be c0	 movsx	 eax, al
  0004f	25 ff 00 00 80	 and	 eax, -2147483393	; 800000ffH
  00054	79 07		 jns	 SHORT $LN8@Init
  00056	48		 dec	 eax
  00057	0d 00 ff ff ff	 or	 eax, -256		; ffffff00H
  0005c	40		 inc	 eax
$LN8@Init:
  0005d	88 46 08	 mov	 BYTE PTR [esi+8], al

; 79   : 
; 80   : 		for (int i = 0; i < MAX_MEM_POOL ; i++)

  00060	33 db		 xor	 ebx, ebx
$LL3@Init:

; 81   : 			m_MemPool[i] = (char)( rand()+pid+tick )%256; // 

  00062	ff d7		 call	 edi
  00064	02 45 f8	 add	 al, BYTE PTR _pid$[ebp]
  00067	02 45 fc	 add	 al, BYTE PTR _tick$[ebp]
  0006a	0f be c0	 movsx	 eax, al
  0006d	25 ff 00 00 80	 and	 eax, -2147483393	; 800000ffH
  00072	79 07		 jns	 SHORT $LN9@Init
  00074	48		 dec	 eax
  00075	0d 00 ff ff ff	 or	 eax, -256		; ffffff00H
  0007a	40		 inc	 eax
$LN9@Init:
  0007b	88 44 1e 1c	 mov	 BYTE PTR [esi+ebx+28], al
  0007f	43		 inc	 ebx
  00080	83 fb 0c	 cmp	 ebx, 12			; 0000000cH
  00083	7c dd		 jl	 SHORT $LL3@Init

; 82   : 
; 83   : 		//UJ 130913, : szKey  
; 84   : 		//char szKey[ccddaabb::KEY_SIZE];//="";
; 85   : 		//for (int i = 0; i < ccddaabb::KEY_SIZE  ; i++)
; 86   : 		//	szKey[i] = (char)( rand()+pid+tick )%256; // 
; 87   : 		m_RC5.Setup( NULL, pid, tick );

  00085	ff 75 fc	 push	 DWORD PTR _tick$[ebp]
  00088	8d 4e 0c	 lea	 ecx, DWORD PTR [esi+12]
  0008b	ff 75 f8	 push	 DWORD PTR _pid$[ebp]
  0008e	6a 00		 push	 0
  00090	e8 00 00 00 00	 call	 ?Setup@ccddaabb@@QAEXPBDHH@Z ; ccddaabb::Setup
  00095	5f		 pop	 edi
  00096	5e		 pop	 esi
  00097	5b		 pop	 ebx

; 88   : 
; 89   : #ifdef _NOTUSE
; 90   : 		m_value        = 0;
; 91   : 		EncryptValueToPool((char*)&m_value);
; 92   : 		Debug();
; 93   : #endif
; 94   : 	}

  00098	c9		 leave
  00099	c3		 ret	 0
?Init@?$CEncrypt@_N@@AAEXXZ ENDP			; CEncrypt<bool>::Init
_TEXT	ENDS
PUBLIC	?DecryptValueToPool@?$CEncrypt@_N@@QAEXPA_N@Z	; CEncrypt<bool>::DecryptValueToPool
; Function compile flags: /Ogsp
;	COMDAT ?DecryptValueToPool@?$CEncrypt@_N@@QAEXPA_N@Z
_TEXT	SEGMENT
_value$ = 8						; size = 4
?DecryptValueToPool@?$CEncrypt@_N@@QAEXPA_N@Z PROC	; CEncrypt<bool>::DecryptValueToPool, COMDAT
; _this$ = ecx

; 219  : 	{

  00000	55		 push	 ebp
  00001	8b ec		 mov	 ebp, esp
  00003	56		 push	 esi

; 220  : 		m_RC5.DecryptByte( m_MemPool, m_TempMem, 4 );

  00004	8d 71 28	 lea	 esi, DWORD PTR [ecx+40]
  00007	6a 04		 push	 4
  00009	8d 41 1c	 lea	 eax, DWORD PTR [ecx+28]
  0000c	56		 push	 esi
  0000d	50		 push	 eax
  0000e	83 c1 0c	 add	 ecx, 12			; 0000000cH
  00011	e8 00 00 00 00	 call	 ?DecryptByte@ccddaabb@@QBEXPBDPADH@Z ; ccddaabb::DecryptByte

; 221  : 		*value = *((bool*)m_TempMem);

  00016	8a 06		 mov	 al, BYTE PTR [esi]
  00018	8b 4d 08	 mov	 ecx, DWORD PTR _value$[ebp]
  0001b	88 01		 mov	 BYTE PTR [ecx], al
  0001d	5e		 pop	 esi

; 222  : 	}

  0001e	5d		 pop	 ebp
  0001f	c2 04 00	 ret	 4
?DecryptValueToPool@?$CEncrypt@_N@@QAEXPA_N@Z ENDP	; CEncrypt<bool>::DecryptValueToPool
_TEXT	ENDS
PUBLIC	?DecryptValueToPool@?$CEncrypt@H@@QAEXPAH@Z	; CEncrypt<int>::DecryptValueToPool
; Function compile flags: /Ogsp
;	COMDAT ?DecryptValueToPool@?$CEncrypt@H@@QAEXPAH@Z
_TEXT	SEGMENT
_value$ = 8						; size = 4
?DecryptValueToPool@?$CEncrypt@H@@QAEXPAH@Z PROC	; CEncrypt<int>::DecryptValueToPool, COMDAT
; _this$ = ecx

; 837  : 	{

  00000	55		 push	 ebp
  00001	8b ec		 mov	 ebp, esp
  00003	56		 push	 esi

; 838  : 		m_RC5.DecryptByte( m_MemPool, m_TempMem, 4 );

  00004	8d 71 28	 lea	 esi, DWORD PTR [ecx+40]
  00007	6a 04		 push	 4
  00009	8d 41 1c	 lea	 eax, DWORD PTR [ecx+28]
  0000c	56		 push	 esi
  0000d	50		 push	 eax
  0000e	83 c1 0c	 add	 ecx, 12			; 0000000cH
  00011	e8 00 00 00 00	 call	 ?DecryptByte@ccddaabb@@QBEXPBDPADH@Z ; ccddaabb::DecryptByte

; 839  : 		*value = *((int*)m_TempMem);

  00016	8b 06		 mov	 eax, DWORD PTR [esi]
  00018	8b 4d 08	 mov	 ecx, DWORD PTR _value$[ebp]
  0001b	89 01		 mov	 DWORD PTR [ecx], eax
  0001d	5e		 pop	 esi

; 840  : 	}

  0001e	5d		 pop	 ebp
  0001f	c2 04 00	 ret	 4
?DecryptValueToPool@?$CEncrypt@H@@QAEXPAH@Z ENDP	; CEncrypt<int>::DecryptValueToPool
_TEXT	ENDS
PUBLIC	??1?$_Vector_val@UtagDummyCharLoadInfo@@V?$allocator@UtagDummyCharLoadInfo@@@std@@@std@@QAE@XZ ; std::_Vector_val<tagDummyCharLoadInfo,std::allocator<tagDummyCharLoadInfo> >::~_Vector_val<tagDummyCharLoadInfo,std::allocator<tagDummyCharLoadInfo> >
; Function compile flags: /Ogsp
; File c:\program files (x86)\microsoft visual studio 10.0\vc\include\vector
;	COMDAT ??1?$_Vector_val@UtagDummyCharLoadInfo@@V?$allocator@UtagDummyCharLoadInfo@@@std@@@std@@QAE@XZ
_TEXT	SEGMENT
??1?$_Vector_val@UtagDummyCharLoadInfo@@V?$allocator@UtagDummyCharLoadInfo@@@std@@@std@@QAE@XZ PROC ; std::_Vector_val<tagDummyCharLoadInfo,std::allocator<tagDummyCharLoadInfo> >::~_Vector_val<tagDummyCharLoadInfo,std::allocator<tagDummyCharLoadInfo> >, COMDAT
; _this$ = ecx

; 434  : 		}

  00000	c3		 ret	 0
??1?$_Vector_val@UtagDummyCharLoadInfo@@V?$allocator@UtagDummyCharLoadInfo@@@std@@@std@@QAE@XZ ENDP ; std::_Vector_val<tagDummyCharLoadInfo,std::allocator<tagDummyCharLoadInfo> >::~_Vector_val<tagDummyCharLoadInfo,std::allocator<tagDummyCharLoadInfo> >
_TEXT	ENDS
PUBLIC	??0?$allocator@UtagDummyCharLoadInfo@@@std@@QAE@XZ ; std::allocator<tagDummyCharLoadInfo>::allocator<tagDummyCharLoadInfo>
; Function compile flags: /Ogsp
; File c:\program files (x86)\microsoft visual studio 10.0\vc\include\xmemory
;	COMDAT ??0?$allocator@UtagDummyCharLoadInfo@@@std@@QAE@XZ
_TEXT	SEGMENT
??0?$allocator@UtagDummyCharLoadInfo@@@std@@QAE@XZ PROC	; std::allocator<tagDummyCharLoadInfo>::allocator<tagDummyCharLoadInfo>, COMDAT
; _this$ = ecx

; 161  : 	_ALLOCATOR() _THROW0()

  00000	8b c1		 mov	 eax, ecx

; 162  : 		{	// construct default allocator (do nothing)
; 163  : 		}

  00002	c3		 ret	 0
??0?$allocator@UtagDummyCharLoadInfo@@@std@@QAE@XZ ENDP	; std::allocator<tagDummyCharLoadInfo>::allocator<tagDummyCharLoadInfo>
_TEXT	ENDS
PUBLIC	?_Xlen@?$vector@VioHashString@@V?$allocator@VioHashString@@@std@@@std@@IBEXXZ ; std::vector<ioHashString,std::allocator<ioHashString> >::_Xlen
; Function compile flags: /Ogsp
; File c:\program files (x86)\microsoft visual studio 10.0\vc\include\vector
;	COMDAT ?_Xlen@?$vector@VioHashString@@V?$allocator@VioHashString@@@std@@@std@@IBEXXZ
_TEXT	SEGMENT
?_Xlen@?$vector@VioHashString@@V?$allocator@VioHashString@@@std@@@std@@IBEXXZ PROC ; std::vector<ioHashString,std::allocator<ioHashString> >::_Xlen, COMDAT
; _this$ = ecx

; 1427 : 		_Xlength_error("vector<T> too long");

  00000	68 00 00 00 00	 push	 OFFSET ??_C@_0BD@OLBABOEK@vector?$DMT?$DO?5too?5long?$AA@
  00005	ff 15 00 00 00
	00		 call	 DWORD PTR __imp_?_Xlength_error@std@@YAXPBD@Z
$LN4@Xlen@3:
$LN3@Xlen@3:
  0000b	cc		 int	 3
?_Xlen@?$vector@VioHashString@@V?$allocator@VioHashString@@@std@@@std@@IBEXXZ ENDP ; std::vector<ioHashString,std::allocator<ioHashString> >::_Xlen
_TEXT	ENDS
PUBLIC	?deallocate@?$allocator@VioHashString@@@std@@QAEXPAVioHashString@@I@Z ; std::allocator<ioHashString>::deallocate
; Function compile flags: /Ogsp
; File c:\program files (x86)\microsoft visual studio 10.0\vc\include\xmemory
;	COMDAT ?deallocate@?$allocator@VioHashString@@@std@@QAEXPAVioHashString@@I@Z
_TEXT	SEGMENT
__Ptr$ = 8						; size = 4
___formal$ = 12						; size = 4
?deallocate@?$allocator@VioHashString@@@std@@QAEXPAVioHashString@@I@Z PROC ; std::allocator<ioHashString>::deallocate, COMDAT
; _this$ = ecx

; 181  : 		{	// deallocate object at _Ptr, ignore size

  00000	55		 push	 ebp
  00001	8b ec		 mov	 ebp, esp

; 182  : 		::operator delete(_Ptr);

  00003	ff 75 08	 push	 DWORD PTR __Ptr$[ebp]
  00006	e8 00 00 00 00	 call	 ??3@YAXPAX@Z		; operator delete
  0000b	59		 pop	 ecx

; 183  : 		}

  0000c	5d		 pop	 ebp
  0000d	c2 08 00	 ret	 8
?deallocate@?$allocator@VioHashString@@@std@@QAEXPAVioHashString@@I@Z ENDP ; std::allocator<ioHashString>::deallocate
_TEXT	ENDS
PUBLIC	??0?$allocator@UtagDummyCharLoadInfo@@@std@@QAE@ABV01@@Z ; std::allocator<tagDummyCharLoadInfo>::allocator<tagDummyCharLoadInfo>
; Function compile flags: /Ogsp
;	COMDAT ??0?$allocator@UtagDummyCharLoadInfo@@@std@@QAE@ABV01@@Z
_TEXT	SEGMENT
___formal$ = 8						; size = 4
??0?$allocator@UtagDummyCharLoadInfo@@@std@@QAE@ABV01@@Z PROC ; std::allocator<tagDummyCharLoadInfo>::allocator<tagDummyCharLoadInfo>, COMDAT
; _this$ = ecx

; 165  : 	_ALLOCATOR(const _ALLOCATOR<_Ty>&) _THROW0()

  00000	8b c1		 mov	 eax, ecx

; 166  : 		{	// construct by copying (do nothing)
; 167  : 		}

  00002	c2 04 00	 ret	 4
??0?$allocator@UtagDummyCharLoadInfo@@@std@@QAE@ABV01@@Z ENDP ; std::allocator<tagDummyCharLoadInfo>::allocator<tagDummyCharLoadInfo>
_TEXT	ENDS
PUBLIC	?deallocate@?$allocator@UtagDummyCharLoadInfo@@@std@@QAEXPAUtagDummyCharLoadInfo@@I@Z ; std::allocator<tagDummyCharLoadInfo>::deallocate
; Function compile flags: /Ogsp
;	COMDAT ?deallocate@?$allocator@UtagDummyCharLoadInfo@@@std@@QAEXPAUtagDummyCharLoadInfo@@I@Z
_TEXT	SEGMENT
__Ptr$ = 8						; size = 4
___formal$ = 12						; size = 4
?deallocate@?$allocator@UtagDummyCharLoadInfo@@@std@@QAEXPAUtagDummyCharLoadInfo@@I@Z PROC ; std::allocator<tagDummyCharLoadInfo>::deallocate, COMDAT
; _this$ = ecx

; 181  : 		{	// deallocate object at _Ptr, ignore size

  00000	55		 push	 ebp
  00001	8b ec		 mov	 ebp, esp

; 182  : 		::operator delete(_Ptr);

  00003	ff 75 08	 push	 DWORD PTR __Ptr$[ebp]
  00006	e8 00 00 00 00	 call	 ??3@YAXPAX@Z		; operator delete
  0000b	59		 pop	 ecx

; 183  : 		}

  0000c	5d		 pop	 ebp
  0000d	c2 08 00	 ret	 8
?deallocate@?$allocator@UtagDummyCharLoadInfo@@@std@@QAEXPAUtagDummyCharLoadInfo@@I@Z ENDP ; std::allocator<tagDummyCharLoadInfo>::deallocate
_TEXT	ENDS
PUBLIC	??0?$_Vector_const_iterator@V?$_Vector_val@VioHashString@@V?$allocator@VioHashString@@@std@@@std@@@std@@QAE@PAVioHashString@@PBU_Container_base0@1@@Z ; std::_Vector_const_iterator<std::_Vector_val<ioHashString,std::allocator<ioHashString> > >::_Vector_const_iterator<std::_Vector_val<ioHashString,std::allocator<ioHashString> > >
; Function compile flags: /Ogsp
; File c:\program files (x86)\microsoft visual studio 10.0\vc\include\vector
;	COMDAT ??0?$_Vector_const_iterator@V?$_Vector_val@VioHashString@@V?$allocator@VioHashString@@@std@@@std@@@std@@QAE@PAVioHashString@@PBU_Container_base0@1@@Z
_TEXT	SEGMENT
__Parg$ = 8						; size = 4
__Pvector$ = 12						; size = 4
??0?$_Vector_const_iterator@V?$_Vector_val@VioHashString@@V?$allocator@VioHashString@@@std@@@std@@@std@@QAE@PAVioHashString@@PBU_Container_base0@1@@Z PROC ; std::_Vector_const_iterator<std::_Vector_val<ioHashString,std::allocator<ioHashString> > >::_Vector_const_iterator<std::_Vector_val<ioHashString,std::allocator<ioHashString> > >, COMDAT
; _this$ = ecx

; 45   : 		{	// construct with pointer _Parg

  00000	55		 push	 ebp
  00001	8b ec		 mov	 ebp, esp
  00003	8b c1		 mov	 eax, ecx
  00005	8b 4d 08	 mov	 ecx, DWORD PTR __Parg$[ebp]
  00008	89 08		 mov	 DWORD PTR [eax], ecx

; 46   : 		this->_Adopt(_Pvector);
; 47   : 		}

  0000a	5d		 pop	 ebp
  0000b	c2 08 00	 ret	 8
??0?$_Vector_const_iterator@V?$_Vector_val@VioHashString@@V?$allocator@VioHashString@@@std@@@std@@@std@@QAE@PAVioHashString@@PBU_Container_base0@1@@Z ENDP ; std::_Vector_const_iterator<std::_Vector_val<ioHashString,std::allocator<ioHashString> > >::_Vector_const_iterator<std::_Vector_val<ioHashString,std::allocator<ioHashString> > >
_TEXT	ENDS
PUBLIC	??0?$_Vector_iterator@V?$_Vector_val@VioHashString@@V?$allocator@VioHashString@@@std@@@std@@@std@@QAE@PAVioHashString@@PBU_Container_base0@1@@Z ; std::_Vector_iterator<std::_Vector_val<ioHashString,std::allocator<ioHashString> > >::_Vector_iterator<std::_Vector_val<ioHashString,std::allocator<ioHashString> > >
; Function compile flags: /Ogsp
;	COMDAT ??0?$_Vector_iterator@V?$_Vector_val@VioHashString@@V?$allocator@VioHashString@@@std@@@std@@@std@@QAE@PAVioHashString@@PBU_Container_base0@1@@Z
_TEXT	SEGMENT
__Parg$ = 8						; size = 4
__Pvector$ = 12						; size = 4
??0?$_Vector_iterator@V?$_Vector_val@VioHashString@@V?$allocator@VioHashString@@@std@@@std@@@std@@QAE@PAVioHashString@@PBU_Container_base0@1@@Z PROC ; std::_Vector_iterator<std::_Vector_val<ioHashString,std::allocator<ioHashString> > >::_Vector_iterator<std::_Vector_val<ioHashString,std::allocator<ioHashString> > >, COMDAT
; _this$ = ecx

; 304  : 		{	// construct with pointer _Parg

  00000	55		 push	 ebp
  00001	8b ec		 mov	 ebp, esp
  00003	8b c1		 mov	 eax, ecx
  00005	8b 4d 08	 mov	 ecx, DWORD PTR __Parg$[ebp]
  00008	89 08		 mov	 DWORD PTR [eax], ecx

; 305  : 		}

  0000a	5d		 pop	 ebp
  0000b	c2 08 00	 ret	 8
??0?$_Vector_iterator@V?$_Vector_val@VioHashString@@V?$allocator@VioHashString@@@std@@@std@@@std@@QAE@PAVioHashString@@PBU_Container_base0@1@@Z ENDP ; std::_Vector_iterator<std::_Vector_val<ioHashString,std::allocator<ioHashString> > >::_Vector_iterator<std::_Vector_val<ioHashString,std::allocator<ioHashString> > >
_TEXT	ENDS
PUBLIC	?max_size@?$allocator@VioHashString@@@std@@QBEIXZ ; std::allocator<ioHashString>::max_size
; Function compile flags: /Ogsp
; File c:\program files (x86)\microsoft visual studio 10.0\vc\include\xmemory
;	COMDAT ?max_size@?$allocator@VioHashString@@@std@@QBEIXZ
_TEXT	SEGMENT
?max_size@?$allocator@VioHashString@@@std@@QBEIXZ PROC	; std::allocator<ioHashString>::max_size, COMDAT
; _this$ = ecx

; 218  : 		_SIZT _Count = (_SIZT)(-1) / sizeof (_Ty);
; 219  : 		return (0 < _Count ? _Count : 1);

  00000	b8 ff ff ff 0f	 mov	 eax, 268435455		; 0fffffffH

; 220  : 		}

  00005	c3		 ret	 0
?max_size@?$allocator@VioHashString@@@std@@QBEIXZ ENDP	; std::allocator<ioHashString>::max_size
_TEXT	ENDS
PUBLIC	??0?$_Vector_const_iterator@V?$_Vector_val@UtagDummyCharLoadInfo@@V?$allocator@UtagDummyCharLoadInfo@@@std@@@std@@@std@@QAE@PAUtagDummyCharLoadInfo@@PBU_Container_base0@1@@Z ; std::_Vector_const_iterator<std::_Vector_val<tagDummyCharLoadInfo,std::allocator<tagDummyCharLoadInfo> > >::_Vector_const_iterator<std::_Vector_val<tagDummyCharLoadInfo,std::allocator<tagDummyCharLoadInfo> > >
; Function compile flags: /Ogsp
; File c:\program files (x86)\microsoft visual studio 10.0\vc\include\vector
;	COMDAT ??0?$_Vector_const_iterator@V?$_Vector_val@UtagDummyCharLoadInfo@@V?$allocator@UtagDummyCharLoadInfo@@@std@@@std@@@std@@QAE@PAUtagDummyCharLoadInfo@@PBU_Container_base0@1@@Z
_TEXT	SEGMENT
__Parg$ = 8						; size = 4
__Pvector$ = 12						; size = 4
??0?$_Vector_const_iterator@V?$_Vector_val@UtagDummyCharLoadInfo@@V?$allocator@UtagDummyCharLoadInfo@@@std@@@std@@@std@@QAE@PAUtagDummyCharLoadInfo@@PBU_Container_base0@1@@Z PROC ; std::_Vector_const_iterator<std::_Vector_val<tagDummyCharLoadInfo,std::allocator<tagDummyCharLoadInfo> > >::_Vector_const_iterator<std::_Vector_val<tagDummyCharLoadInfo,std::allocator<tagDummyCharLoadInfo> > >, COMDAT
; _this$ = ecx

; 45   : 		{	// construct with pointer _Parg

  00000	55		 push	 ebp
  00001	8b ec		 mov	 ebp, esp
  00003	8b c1		 mov	 eax, ecx
  00005	8b 4d 08	 mov	 ecx, DWORD PTR __Parg$[ebp]
  00008	89 08		 mov	 DWORD PTR [eax], ecx

; 46   : 		this->_Adopt(_Pvector);
; 47   : 		}

  0000a	5d		 pop	 ebp
  0000b	c2 08 00	 ret	 8
??0?$_Vector_const_iterator@V?$_Vector_val@UtagDummyCharLoadInfo@@V?$allocator@UtagDummyCharLoadInfo@@@std@@@std@@@std@@QAE@PAUtagDummyCharLoadInfo@@PBU_Container_base0@1@@Z ENDP ; std::_Vector_const_iterator<std::_Vector_val<tagDummyCharLoadInfo,std::allocator<tagDummyCharLoadInfo> > >::_Vector_const_iterator<std::_Vector_val<tagDummyCharLoadInfo,std::allocator<tagDummyCharLoadInfo> > >
_TEXT	ENDS
PUBLIC	?_Compat@?$_Vector_const_iterator@V?$_Vector_val@VioHashString@@V?$allocator@VioHashString@@@std@@@std@@@std@@QBEXABV12@@Z ; std::_Vector_const_iterator<std::_Vector_val<ioHashString,std::allocator<ioHashString> > >::_Compat
; Function compile flags: /Ogsp
;	COMDAT ?_Compat@?$_Vector_const_iterator@V?$_Vector_val@VioHashString@@V?$allocator@VioHashString@@@std@@@std@@@std@@QBEXABV12@@Z
_TEXT	SEGMENT
___formal$ = 8						; size = 4
?_Compat@?$_Vector_const_iterator@V?$_Vector_val@VioHashString@@V?$allocator@VioHashString@@@std@@@std@@@std@@QBEXABV12@@Z PROC ; std::_Vector_const_iterator<std::_Vector_val<ioHashString,std::allocator<ioHashString> > >::_Compat, COMDAT
; _this$ = ecx

; 253  : 		}

  00000	c2 04 00	 ret	 4
?_Compat@?$_Vector_const_iterator@V?$_Vector_val@VioHashString@@V?$allocator@VioHashString@@@std@@@std@@@std@@QBEXABV12@@Z ENDP ; std::_Vector_const_iterator<std::_Vector_val<ioHashString,std::allocator<ioHashString> > >::_Compat
_TEXT	ENDS
PUBLIC	?_Compat@?$_Vector_const_iterator@V?$_Vector_val@UtagDummyCharLoadInfo@@V?$allocator@UtagDummyCharLoadInfo@@@std@@@std@@@std@@QBEXABV12@@Z ; std::_Vector_const_iterator<std::_Vector_val<tagDummyCharLoadInfo,std::allocator<tagDummyCharLoadInfo> > >::_Compat
; Function compile flags: /Ogsp
;	COMDAT ?_Compat@?$_Vector_const_iterator@V?$_Vector_val@UtagDummyCharLoadInfo@@V?$allocator@UtagDummyCharLoadInfo@@@std@@@std@@@std@@QBEXABV12@@Z
_TEXT	SEGMENT
___formal$ = 8						; size = 4
?_Compat@?$_Vector_const_iterator@V?$_Vector_val@UtagDummyCharLoadInfo@@V?$allocator@UtagDummyCharLoadInfo@@@std@@@std@@@std@@QBEXABV12@@Z PROC ; std::_Vector_const_iterator<std::_Vector_val<tagDummyCharLoadInfo,std::allocator<tagDummyCharLoadInfo> > >::_Compat, COMDAT
; _this$ = ecx

; 253  : 		}

  00000	c2 04 00	 ret	 4
?_Compat@?$_Vector_const_iterator@V?$_Vector_val@UtagDummyCharLoadInfo@@V?$allocator@UtagDummyCharLoadInfo@@@std@@@std@@@std@@QBEXABV12@@Z ENDP ; std::_Vector_const_iterator<std::_Vector_val<tagDummyCharLoadInfo,std::allocator<tagDummyCharLoadInfo> > >::_Compat
_TEXT	ENDS
PUBLIC	??$_Allocate@VioHashString@@@std@@YAPAVioHashString@@IPAV1@@Z ; std::_Allocate<ioHashString>
; Function compile flags: /Ogsp
; File c:\program files (x86)\microsoft visual studio 10.0\vc\include\xmemory
;	COMDAT ??$_Allocate@VioHashString@@@std@@YAPAVioHashString@@IPAV1@@Z
_TEXT	SEGMENT
$T545448 = -12						; size = 12
$T545452 = 8						; size = 4
__Count$ = 8						; size = 4
___formal$ = 12						; size = 4
??$_Allocate@VioHashString@@@std@@YAPAVioHashString@@IPAV1@@Z PROC ; std::_Allocate<ioHashString>, COMDAT

; 30   : 	{	// allocate storage for _Count elements of type _Ty

  00000	55		 push	 ebp
  00001	8b ec		 mov	 ebp, esp

; 31   : 	void *_Ptr = 0;
; 32   : 
; 33   : 	if (_Count <= 0)

  00003	8b 4d 08	 mov	 ecx, DWORD PTR __Count$[ebp]
  00006	83 ec 0c	 sub	 esp, 12			; 0000000cH
  00009	33 c0		 xor	 eax, eax
  0000b	85 c9		 test	 ecx, ecx

; 34   : 		_Count = 0;
; 35   : 	else if (((_SIZT)(-1) / sizeof (_Ty) < _Count)

  0000d	74 3c		 je	 SHORT $LN5@Allocate@3

; 36   : 		|| (_Ptr = ::operator new(_Count * sizeof (_Ty))) == 0)

  0000f	81 f9 ff ff ff
	0f		 cmp	 ecx, 268435455		; 0fffffffH
  00015	77 0e		 ja	 SHORT $LN1@Allocate@3
  00017	c1 e1 04	 shl	 ecx, 4
  0001a	51		 push	 ecx
  0001b	e8 00 00 00 00	 call	 ??2@YAPAXI@Z		; operator new
  00020	59		 pop	 ecx
  00021	85 c0		 test	 eax, eax

; 38   : 
; 39   : 	return ((_Ty _FARQ *)_Ptr);

  00023	75 26		 jne	 SHORT $LN5@Allocate@3
$LN1@Allocate@3:

; 37   : 		_THROW_NCEE(bad_alloc, 0);

  00025	83 65 08 00	 and	 DWORD PTR $T545452[ebp], 0
  00029	8d 45 08	 lea	 eax, DWORD PTR $T545452[ebp]
  0002c	50		 push	 eax
  0002d	8d 4d f4	 lea	 ecx, DWORD PTR $T545448[ebp]
  00030	ff 15 00 00 00
	00		 call	 DWORD PTR __imp_??0exception@std@@QAE@ABQBD@Z
  00036	68 00 00 00 00	 push	 OFFSET __TI2?AVbad_alloc@std@@
  0003b	8d 45 f4	 lea	 eax, DWORD PTR $T545448[ebp]
  0003e	50		 push	 eax
  0003f	c7 45 f4 00 00
	00 00		 mov	 DWORD PTR $T545448[ebp], OFFSET ??_7bad_alloc@std@@6B@
  00046	e8 00 00 00 00	 call	 __CxxThrowException@8
$LN10@Allocate@3:
$LN5@Allocate@3:

; 40   : 	}

  0004b	c9		 leave
  0004c	c3		 ret	 0
$LN9@Allocate@3:
??$_Allocate@VioHashString@@@std@@YAPAVioHashString@@IPAV1@@Z ENDP ; std::_Allocate<ioHashString>
_TEXT	ENDS
EXTRN	__imp_??0exception@std@@QAE@ABV01@@Z:PROC
; Function compile flags: /Ogsp
;	COMDAT ??0bad_alloc@std@@QAE@ABV01@@Z
_TEXT	SEGMENT
___that$ = 8						; size = 4
??0bad_alloc@std@@QAE@ABV01@@Z PROC			; std::bad_alloc::bad_alloc, COMDAT
; _this$ = ecx
  00000	55		 push	 ebp
  00001	8b ec		 mov	 ebp, esp
  00003	56		 push	 esi
  00004	ff 75 08	 push	 DWORD PTR ___that$[ebp]
  00007	8b f1		 mov	 esi, ecx
  00009	ff 15 00 00 00
	00		 call	 DWORD PTR __imp_??0exception@std@@QAE@ABV01@@Z
  0000f	c7 06 00 00 00
	00		 mov	 DWORD PTR [esi], OFFSET ??_7bad_alloc@std@@6B@
  00015	8b c6		 mov	 eax, esi
  00017	5e		 pop	 esi
  00018	5d		 pop	 ebp
  00019	c2 04 00	 ret	 4
??0bad_alloc@std@@QAE@ABV01@@Z ENDP			; std::bad_alloc::bad_alloc
_TEXT	ENDS
PUBLIC	??$forward@ABVioHashString@@@std@@YAABVioHashString@@ABV1@@Z ; std::forward<ioHashString const &>
; Function compile flags: /Ogsp
; File c:\program files (x86)\microsoft visual studio 10.0\vc\include\utility
;	COMDAT ??$forward@ABVioHashString@@@std@@YAABVioHashString@@ABV1@@Z
_TEXT	SEGMENT
__Arg$ = 8						; size = 4
??$forward@ABVioHashString@@@std@@YAABVioHashString@@ABV1@@Z PROC ; std::forward<ioHashString const &>, COMDAT

; 78   : 	{	// forward _Arg, given explicitly specified type parameter

  00000	55		 push	 ebp
  00001	8b ec		 mov	 ebp, esp

; 79   : 	return ((_Ty&&)_Arg);

  00003	8b 45 08	 mov	 eax, DWORD PTR __Arg$[ebp]

; 80   : 	}

  00006	5d		 pop	 ebp
  00007	c3		 ret	 0
??$forward@ABVioHashString@@@std@@YAABVioHashString@@ABV1@@Z ENDP ; std::forward<ioHashString const &>
_TEXT	ENDS
PUBLIC	??$_Ptr_cat@VioHashString@@V1@@std@@YA?AU_Nonscalar_ptr_iterator_tag@0@PAVioHashString@@0@Z ; std::_Ptr_cat<ioHashString,ioHashString>
; Function compile flags: /Ogsp
; File c:\program files (x86)\microsoft visual studio 10.0\vc\include\xutility
;	COMDAT ??$_Ptr_cat@VioHashString@@V1@@std@@YA?AU_Nonscalar_ptr_iterator_tag@0@PAVioHashString@@0@Z
_TEXT	SEGMENT
__Cat$ = -1						; size = 1
___formal$ = 8						; size = 4
___formal$ = 12						; size = 4
??$_Ptr_cat@VioHashString@@V1@@std@@YA?AU_Nonscalar_ptr_iterator_tag@0@PAVioHashString@@0@Z PROC ; std::_Ptr_cat<ioHashString,ioHashString>, COMDAT

; 516  : 	{	// return pointer category from pointers

  00000	55		 push	 ebp
  00001	8b ec		 mov	 ebp, esp
  00003	51		 push	 ecx

; 517  : 	typename _Ptr_cat_helper<_Elem1, _Elem2>::_Type _Cat;
; 518  : 	return (_Cat);

  00004	8a 45 ff	 mov	 al, BYTE PTR __Cat$[ebp]

; 519  : 	}

  00007	c9		 leave
  00008	c3		 ret	 0
??$_Ptr_cat@VioHashString@@V1@@std@@YA?AU_Nonscalar_ptr_iterator_tag@0@PAVioHashString@@0@Z ENDP ; std::_Ptr_cat<ioHashString,ioHashString>
_TEXT	ENDS
PUBLIC	??$_Ptr_cat@UtagDummyCharLoadInfo@@U1@@std@@YA?AU_Nonscalar_ptr_iterator_tag@0@PAUtagDummyCharLoadInfo@@0@Z ; std::_Ptr_cat<tagDummyCharLoadInfo,tagDummyCharLoadInfo>
; Function compile flags: /Ogsp
;	COMDAT ??$_Ptr_cat@UtagDummyCharLoadInfo@@U1@@std@@YA?AU_Nonscalar_ptr_iterator_tag@0@PAUtagDummyCharLoadInfo@@0@Z
_TEXT	SEGMENT
__Cat$ = -1						; size = 1
___formal$ = 8						; size = 4
___formal$ = 12						; size = 4
??$_Ptr_cat@UtagDummyCharLoadInfo@@U1@@std@@YA?AU_Nonscalar_ptr_iterator_tag@0@PAUtagDummyCharLoadInfo@@0@Z PROC ; std::_Ptr_cat<tagDummyCharLoadInfo,tagDummyCharLoadInfo>, COMDAT

; 516  : 	{	// return pointer category from pointers

  00000	55		 push	 ebp
  00001	8b ec		 mov	 ebp, esp
  00003	51		 push	 ecx

; 517  : 	typename _Ptr_cat_helper<_Elem1, _Elem2>::_Type _Cat;
; 518  : 	return (_Cat);

  00004	8a 45 ff	 mov	 al, BYTE PTR __Cat$[ebp]

; 519  : 	}

  00007	c9		 leave
  00008	c3		 ret	 0
??$_Ptr_cat@UtagDummyCharLoadInfo@@U1@@std@@YA?AU_Nonscalar_ptr_iterator_tag@0@PAUtagDummyCharLoadInfo@@0@Z ENDP ; std::_Ptr_cat<tagDummyCharLoadInfo,tagDummyCharLoadInfo>
_TEXT	ENDS
PUBLIC	??4tagDummyCharLoadInfo@@QAEAAU0@ABU0@@Z	; tagDummyCharLoadInfo::operator=
; Function compile flags: /Ogsp
;	COMDAT ??4tagDummyCharLoadInfo@@QAEAAU0@ABU0@@Z
_TEXT	SEGMENT
___that$ = 8						; size = 4
??4tagDummyCharLoadInfo@@QAEAAU0@ABU0@@Z PROC		; tagDummyCharLoadInfo::operator=, COMDAT
; _this$ = ecx
  00000	55		 push	 ebp
  00001	8b ec		 mov	 ebp, esp
  00003	56		 push	 esi
  00004	57		 push	 edi
  00005	8b 7d 08	 mov	 edi, DWORD PTR ___that$[ebp]
  00008	57		 push	 edi
  00009	8b f1		 mov	 esi, ecx
  0000b	ff 15 00 00 00
	00		 call	 DWORD PTR __imp_??4ioHashString@@QAEAAV0@ABV0@@Z
  00011	d9 47 10	 fld	 DWORD PTR [edi+16]
  00014	d9 5e 10	 fstp	 DWORD PTR [esi+16]
  00017	8b c6		 mov	 eax, esi
  00019	d9 47 14	 fld	 DWORD PTR [edi+20]
  0001c	d9 5e 14	 fstp	 DWORD PTR [esi+20]
  0001f	d9 47 18	 fld	 DWORD PTR [edi+24]
  00022	5f		 pop	 edi
  00023	d9 5e 18	 fstp	 DWORD PTR [esi+24]
  00026	5e		 pop	 esi
  00027	5d		 pop	 ebp
  00028	c2 04 00	 ret	 4
??4tagDummyCharLoadInfo@@QAEAAU0@ABU0@@Z ENDP		; tagDummyCharLoadInfo::operator=
_TEXT	ENDS
PUBLIC	??$_Ptr_cat@V?$_Vector_const_iterator@V?$_Vector_val@VioHashString@@V?$allocator@VioHashString@@@std@@@std@@@std@@PAVioHashString@@@std@@YA?AU_Nonscalar_ptr_iterator_tag@0@AAV?$_Vector_const_iterator@V?$_Vector_val@VioHashString@@V?$allocator@VioHashString@@@std@@@std@@@0@AAPAVioHashString@@@Z ; std::_Ptr_cat<std::_Vector_const_iterator<std::_Vector_val<ioHashString,std::allocator<ioHashString> > >,ioHashString *>
; Function compile flags: /Ogsp
;	COMDAT ??$_Ptr_cat@V?$_Vector_const_iterator@V?$_Vector_val@VioHashString@@V?$allocator@VioHashString@@@std@@@std@@@std@@PAVioHashString@@@std@@YA?AU_Nonscalar_ptr_iterator_tag@0@AAV?$_Vector_const_iterator@V?$_Vector_val@VioHashString@@V?$allocator@VioHashString@@@std@@@std@@@0@AAPAVioHashString@@@Z
_TEXT	SEGMENT
__Cat$ = -1						; size = 1
___formal$ = 8						; size = 4
___formal$ = 12						; size = 4
??$_Ptr_cat@V?$_Vector_const_iterator@V?$_Vector_val@VioHashString@@V?$allocator@VioHashString@@@std@@@std@@@std@@PAVioHashString@@@std@@YA?AU_Nonscalar_ptr_iterator_tag@0@AAV?$_Vector_const_iterator@V?$_Vector_val@VioHashString@@V?$allocator@VioHashString@@@std@@@std@@@0@AAPAVioHashString@@@Z PROC ; std::_Ptr_cat<std::_Vector_const_iterator<std::_Vector_val<ioHashString,std::allocator<ioHashString> > >,ioHashString *>, COMDAT

; 485  : 	{	// return pointer category from arbitrary arguments

  00000	55		 push	 ebp
  00001	8b ec		 mov	 ebp, esp
  00003	51		 push	 ecx

; 486  : 	_Nonscalar_ptr_iterator_tag _Cat;
; 487  : 	return (_Cat);

  00004	8a 45 ff	 mov	 al, BYTE PTR __Cat$[ebp]

; 488  : 	}

  00007	c9		 leave
  00008	c3		 ret	 0
??$_Ptr_cat@V?$_Vector_const_iterator@V?$_Vector_val@VioHashString@@V?$allocator@VioHashString@@@std@@@std@@@std@@PAVioHashString@@@std@@YA?AU_Nonscalar_ptr_iterator_tag@0@AAV?$_Vector_const_iterator@V?$_Vector_val@VioHashString@@V?$allocator@VioHashString@@@std@@@std@@@0@AAPAVioHashString@@@Z ENDP ; std::_Ptr_cat<std::_Vector_const_iterator<std::_Vector_val<ioHashString,std::allocator<ioHashString> > >,ioHashString *>
_TEXT	ENDS
PUBLIC	??$move@AAVioHashString@@@std@@YA$$QAVioHashString@@AAV1@@Z ; std::move<ioHashString &>
; Function compile flags: /Ogsp
; File c:\program files (x86)\microsoft visual studio 10.0\vc\include\utility
;	COMDAT ??$move@AAVioHashString@@@std@@YA$$QAVioHashString@@AAV1@@Z
_TEXT	SEGMENT
__Arg$ = 8						; size = 4
??$move@AAVioHashString@@@std@@YA$$QAVioHashString@@AAV1@@Z PROC ; std::move<ioHashString &>, COMDAT

; 86   : 	{	// forward _Arg as movable

  00000	55		 push	 ebp
  00001	8b ec		 mov	 ebp, esp

; 87   : 	return ((typename tr1::_Remove_reference<_Ty>::_Type&&)_Arg);

  00003	8b 45 08	 mov	 eax, DWORD PTR __Arg$[ebp]

; 88   : 	}

  00006	5d		 pop	 ebp
  00007	c3		 ret	 0
??$move@AAVioHashString@@@std@@YA$$QAVioHashString@@AAV1@@Z ENDP ; std::move<ioHashString &>
_TEXT	ENDS
PUBLIC	??$move@AAUtagDummyCharLoadInfo@@@std@@YA$$QAUtagDummyCharLoadInfo@@AAU1@@Z ; std::move<tagDummyCharLoadInfo &>
; Function compile flags: /Ogsp
;	COMDAT ??$move@AAUtagDummyCharLoadInfo@@@std@@YA$$QAUtagDummyCharLoadInfo@@AAU1@@Z
_TEXT	SEGMENT
__Arg$ = 8						; size = 4
??$move@AAUtagDummyCharLoadInfo@@@std@@YA$$QAUtagDummyCharLoadInfo@@AAU1@@Z PROC ; std::move<tagDummyCharLoadInfo &>, COMDAT

; 86   : 	{	// forward _Arg as movable

  00000	55		 push	 ebp
  00001	8b ec		 mov	 ebp, esp

; 87   : 	return ((typename tr1::_Remove_reference<_Ty>::_Type&&)_Arg);

  00003	8b 45 08	 mov	 eax, DWORD PTR __Arg$[ebp]

; 88   : 	}

  00006	5d		 pop	 ebp
  00007	c3		 ret	 0
??$move@AAUtagDummyCharLoadInfo@@@std@@YA$$QAUtagDummyCharLoadInfo@@AAU1@@Z ENDP ; std::move<tagDummyCharLoadInfo &>
_TEXT	ENDS
PUBLIC	??D?$_Vector_const_iterator@V?$_Vector_val@VioHashString@@V?$allocator@VioHashString@@@std@@@std@@@std@@QBEABVioHashString@@XZ ; std::_Vector_const_iterator<std::_Vector_val<ioHashString,std::allocator<ioHashString> > >::operator*
; Function compile flags: /Ogsp
; File c:\program files (x86)\microsoft visual studio 10.0\vc\include\vector
;	COMDAT ??D?$_Vector_const_iterator@V?$_Vector_val@VioHashString@@V?$allocator@VioHashString@@@std@@@std@@@std@@QBEABVioHashString@@XZ
_TEXT	SEGMENT
??D?$_Vector_const_iterator@V?$_Vector_val@VioHashString@@V?$allocator@VioHashString@@@std@@@std@@@std@@QBEABVioHashString@@XZ PROC ; std::_Vector_const_iterator<std::_Vector_val<ioHashString,std::allocator<ioHashString> > >::operator*, COMDAT
; _this$ = ecx

; 64   :  #if _ITERATOR_DEBUG_LEVEL == 2
; 65   : 		if (this->_Getcont() == 0
; 66   : 			|| this->_Ptr == 0
; 67   : 			|| this->_Ptr < ((_Myvec *)this->_Getcont())->_Myfirst
; 68   : 			|| ((_Myvec *)this->_Getcont())->_Mylast <= this->_Ptr)
; 69   : 			{	// report error
; 70   : 			_DEBUG_ERROR("vector iterator not dereferencable");
; 71   : 			_SCL_SECURE_OUT_OF_RANGE;
; 72   : 			}
; 73   : 
; 74   :  #elif _ITERATOR_DEBUG_LEVEL == 1
; 75   : 		_SCL_SECURE_VALIDATE(this->_Getcont() != 0);
; 76   : 		_SCL_SECURE_VALIDATE_RANGE(
; 77   : 			this->_Ptr != 0
; 78   : 			&& ((_Myvec *)this->_Getcont())->_Myfirst <= this->_Ptr
; 79   : 			&& this->_Ptr < ((_Myvec *)this->_Getcont())->_Mylast);
; 80   :  #endif /* _ITERATOR_DEBUG_LEVEL */
; 81   : 
; 82   : 		__analysis_assume(this->_Ptr != 0);
; 83   : 
; 84   : 		return (*this->_Ptr);

  00000	8b 01		 mov	 eax, DWORD PTR [ecx]

; 85   : 		}

  00002	c3		 ret	 0
??D?$_Vector_const_iterator@V?$_Vector_val@VioHashString@@V?$allocator@VioHashString@@@std@@@std@@@std@@QBEABVioHashString@@XZ ENDP ; std::_Vector_const_iterator<std::_Vector_val<ioHashString,std::allocator<ioHashString> > >::operator*
_TEXT	ENDS
PUBLIC	??E?$_Vector_const_iterator@V?$_Vector_val@VioHashString@@V?$allocator@VioHashString@@@std@@@std@@@std@@QAEAAV01@XZ ; std::_Vector_const_iterator<std::_Vector_val<ioHashString,std::allocator<ioHashString> > >::operator++
; Function compile flags: /Ogsp
;	COMDAT ??E?$_Vector_const_iterator@V?$_Vector_val@VioHashString@@V?$allocator@VioHashString@@@std@@@std@@@std@@QAEAAV01@XZ
_TEXT	SEGMENT
??E?$_Vector_const_iterator@V?$_Vector_val@VioHashString@@V?$allocator@VioHashString@@@std@@@std@@@std@@QAEAAV01@XZ PROC ; std::_Vector_const_iterator<std::_Vector_val<ioHashString,std::allocator<ioHashString> > >::operator++, COMDAT
; _this$ = ecx

; 93   : 		{	// preincrement

  00000	8b c1		 mov	 eax, ecx

; 94   :  #if _ITERATOR_DEBUG_LEVEL == 2
; 95   : 		if (this->_Getcont() == 0
; 96   : 			|| this->_Ptr == 0
; 97   : 			|| ((_Myvec *)this->_Getcont())->_Mylast <= this->_Ptr)
; 98   : 			{	// report error
; 99   : 			_DEBUG_ERROR("vector iterator not incrementable");
; 100  : 			_SCL_SECURE_OUT_OF_RANGE;
; 101  : 			}
; 102  : 
; 103  :  #elif _ITERATOR_DEBUG_LEVEL == 1
; 104  : 		_SCL_SECURE_VALIDATE(this->_Getcont() != 0);
; 105  : 		_SCL_SECURE_VALIDATE_RANGE(
; 106  : 			this->_Ptr != 0
; 107  : 			&& this->_Ptr < ((_Myvec *)this->_Getcont())->_Mylast);
; 108  :  #endif /* _ITERATOR_DEBUG_LEVEL */
; 109  : 
; 110  : 		++this->_Ptr;

  00002	83 00 10	 add	 DWORD PTR [eax], 16	; 00000010H

; 111  : 		return (*this);
; 112  : 		}

  00005	c3		 ret	 0
??E?$_Vector_const_iterator@V?$_Vector_val@VioHashString@@V?$allocator@VioHashString@@@std@@@std@@@std@@QAEAAV01@XZ ENDP ; std::_Vector_const_iterator<std::_Vector_val<ioHashString,std::allocator<ioHashString> > >::operator++
_TEXT	ENDS
PUBLIC	??_GioHashString@@QAEPAXI@Z			; ioHashString::`scalar deleting destructor'
; Function compile flags: /Ogsp
;	COMDAT ??_GioHashString@@QAEPAXI@Z
_TEXT	SEGMENT
___flags$ = 8						; size = 4
??_GioHashString@@QAEPAXI@Z PROC			; ioHashString::`scalar deleting destructor', COMDAT
; _this$ = ecx
  00000	55		 push	 ebp
  00001	8b ec		 mov	 ebp, esp
  00003	56		 push	 esi
  00004	8b f1		 mov	 esi, ecx
  00006	ff 15 00 00 00
	00		 call	 DWORD PTR __imp_??1ioHashString@@QAE@XZ
  0000c	f6 45 08 01	 test	 BYTE PTR ___flags$[ebp], 1
  00010	74 07		 je	 SHORT $LN1@scalar@4
  00012	56		 push	 esi
  00013	e8 00 00 00 00	 call	 ??3@YAXPAX@Z		; operator delete
  00018	59		 pop	 ecx
$LN1@scalar@4:
  00019	8b c6		 mov	 eax, esi
  0001b	5e		 pop	 esi
  0001c	5d		 pop	 ebp
  0001d	c2 04 00	 ret	 4
??_GioHashString@@QAEPAXI@Z ENDP			; ioHashString::`scalar deleting destructor'
_TEXT	ENDS
PUBLIC	??1tagDummyCharLoadInfo@@QAE@XZ			; tagDummyCharLoadInfo::~tagDummyCharLoadInfo
; Function compile flags: /Ogsp
;	COMDAT ??1tagDummyCharLoadInfo@@QAE@XZ
_TEXT	SEGMENT
??1tagDummyCharLoadInfo@@QAE@XZ PROC			; tagDummyCharLoadInfo::~tagDummyCharLoadInfo, COMDAT
; _this$ = ecx
  00000	ff 25 00 00 00
	00		 jmp	 DWORD PTR __imp_??1ioHashString@@QAE@XZ
??1tagDummyCharLoadInfo@@QAE@XZ ENDP			; tagDummyCharLoadInfo::~tagDummyCharLoadInfo
_TEXT	ENDS
PUBLIC	??$_Construct@VioHashString@@ABV1@@std@@YAXPAVioHashString@@ABV1@@Z ; std::_Construct<ioHashString,ioHashString const &>
EXTRN	___CxxFrameHandler3:PROC
EXTRN	@__security_check_cookie@4:PROC
EXTRN	__EH_epilog3:PROC
EXTRN	__EH_prolog3:PROC
;	COMDAT xdata$x
; File c:\program files (x86)\microsoft visual studio 10.0\vc\include\utility
xdata$x	SEGMENT
__unwindtable$??$_Construct@VioHashString@@ABV1@@std@@YAXPAVioHashString@@ABV1@@Z DD 0ffffffffH
	DD	FLAT:__unwindfunclet$??$_Construct@VioHashString@@ABV1@@std@@YAXPAVioHashString@@ABV1@@Z$0
__ehfuncinfo$??$_Construct@VioHashString@@ABV1@@std@@YAXPAVioHashString@@ABV1@@Z DD 019930522H
	DD	01H
	DD	FLAT:__unwindtable$??$_Construct@VioHashString@@ABV1@@std@@YAXPAVioHashString@@ABV1@@Z
	DD	2 DUP(00H)
	DD	2 DUP(00H)
	DD	00H
	DD	01H
; Function compile flags: /Ogsp
; File c:\program files (x86)\microsoft visual studio 10.0\vc\include\xmemory
xdata$x	ENDS
;	COMDAT ??$_Construct@VioHashString@@ABV1@@std@@YAXPAVioHashString@@ABV1@@Z
_TEXT	SEGMENT
$T545487 = -16						; size = 4
__$EHRec$ = -12						; size = 12
__Vptr$ = 8						; size = 4
__Ptr$ = 8						; size = 4
__Val$ = 12						; size = 4
??$_Construct@VioHashString@@ABV1@@std@@YAXPAVioHashString@@ABV1@@Z PROC ; std::_Construct<ioHashString,ioHashString const &>, COMDAT

; 46   : 	{	// construct object at _Ptr with value _Val

  00000	6a 04		 push	 4
  00002	b8 00 00 00 00	 mov	 eax, __ehhandler$??$_Construct@VioHashString@@ABV1@@std@@YAXPAVioHashString@@ABV1@@Z
  00007	e8 00 00 00 00	 call	 __EH_prolog3

; 47   : 	void _FARQ *_Vptr = _Ptr;

  0000c	8b 4d 08	 mov	 ecx, DWORD PTR __Ptr$[ebp]
  0000f	89 4d 08	 mov	 DWORD PTR __Vptr$[ebp], ecx

; 48   : 	::new (_Vptr) _Ty1(_STD forward<_Ty2>(_Val));

  00012	89 4d f0	 mov	 DWORD PTR $T545487[ebp], ecx
  00015	83 65 fc 00	 and	 DWORD PTR __$EHRec$[ebp+8], 0
  00019	85 c9		 test	 ecx, ecx
  0001b	74 09		 je	 SHORT $LN3@Construct
  0001d	ff 75 0c	 push	 DWORD PTR __Val$[ebp]
  00020	ff 15 00 00 00
	00		 call	 DWORD PTR __imp_??0ioHashString@@QAE@ABV0@@Z
$LN3@Construct:

; 49   : 	}

  00026	e8 00 00 00 00	 call	 __EH_epilog3
  0002b	c3		 ret	 0
_TEXT	ENDS
;	COMDAT text$x
text$x	SEGMENT
__unwindfunclet$??$_Construct@VioHashString@@ABV1@@std@@YAXPAVioHashString@@ABV1@@Z$0:
  00000	ff 75 08	 push	 DWORD PTR __Vptr$[ebp]
  00003	ff 75 f0	 push	 DWORD PTR $T545487[ebp]
  00006	e8 00 00 00 00	 call	 ??3@YAXPAX0@Z		; operator delete
  0000b	59		 pop	 ecx
  0000c	59		 pop	 ecx
  0000d	c3		 ret	 0
__ehhandler$??$_Construct@VioHashString@@ABV1@@std@@YAXPAVioHashString@@ABV1@@Z:
  0000e	8b 54 24 08	 mov	 edx, DWORD PTR [esp+8]
  00012	8d 42 0c	 lea	 eax, DWORD PTR [edx+12]
  00015	8b 4a ec	 mov	 ecx, DWORD PTR [edx-20]
  00018	33 c8		 xor	 ecx, eax
  0001a	e8 00 00 00 00	 call	 @__security_check_cookie@4
  0001f	b8 00 00 00 00	 mov	 eax, OFFSET __ehfuncinfo$??$_Construct@VioHashString@@ABV1@@std@@YAXPAVioHashString@@ABV1@@Z
  00024	e9 00 00 00 00	 jmp	 ___CxxFrameHandler3
text$x	ENDS
??$_Construct@VioHashString@@ABV1@@std@@YAXPAVioHashString@@ABV1@@Z ENDP ; std::_Construct<ioHashString,ioHashString const &>
PUBLIC	??_R0?AVioDummyChar@@@8				; ioDummyChar `RTTI Type Descriptor'
PUBLIC	??_R0?AVioCopyOwnerDummyChar@@@8		; ioCopyOwnerDummyChar `RTTI Type Descriptor'
PUBLIC	?ToCopyOwnerDummyChar@@YAPAVioCopyOwnerDummyChar@@PAVioDummyChar@@@Z ; ToCopyOwnerDummyChar
EXTRN	___RTDynamicCast:PROC
;	COMDAT ??_R0?AVioDummyChar@@@8
; File d:\lost saga for developer\youtube\tutorial\source\src\lsclient\iodummychar.h
_DATA	SEGMENT
??_R0?AVioDummyChar@@@8 DD FLAT:??_7type_info@@6B@	; ioDummyChar `RTTI Type Descriptor'
	DD	00H
	DB	'.?AVioDummyChar@@', 00H
_DATA	ENDS
;	COMDAT ??_R0?AVioCopyOwnerDummyChar@@@8
_DATA	SEGMENT
??_R0?AVioCopyOwnerDummyChar@@@8 DD FLAT:??_7type_info@@6B@ ; ioCopyOwnerDummyChar `RTTI Type Descriptor'
	DD	00H
	DB	'.?AVioCopyOwnerDummyChar@@', 00H
; Function compile flags: /Ogsp
; File d:\lost saga for developer\youtube\tutorial\source\src\lsclient\iocopyownerdummychar.h
_DATA	ENDS
;	COMDAT ?ToCopyOwnerDummyChar@@YAPAVioCopyOwnerDummyChar@@PAVioDummyChar@@@Z
_TEXT	SEGMENT
_pDummy$ = 8						; size = 4
?ToCopyOwnerDummyChar@@YAPAVioCopyOwnerDummyChar@@PAVioDummyChar@@@Z PROC ; ToCopyOwnerDummyChar, COMDAT

; 215  : {

  00000	55		 push	 ebp
  00001	8b ec		 mov	 ebp, esp

; 216  : 	if( !pDummy || pDummy->GetType() != DCT_COPY_OWNER )

  00003	8b 45 08	 mov	 eax, DWORD PTR _pDummy$[ebp]
  00006	85 c0		 test	 eax, eax
  00008	74 22		 je	 SHORT $LN1@ToCopyOwne
  0000a	83 b8 2c 02 00
	00 0e		 cmp	 DWORD PTR [eax+556], 14	; 0000000eH
  00011	75 19		 jne	 SHORT $LN1@ToCopyOwne

; 218  : 
; 219  : 	return dynamic_cast< ioCopyOwnerDummyChar* >( pDummy );

  00013	6a 00		 push	 0
  00015	68 00 00 00 00	 push	 OFFSET ??_R0?AVioCopyOwnerDummyChar@@@8
  0001a	68 00 00 00 00	 push	 OFFSET ??_R0?AVioDummyChar@@@8
  0001f	6a 00		 push	 0
  00021	50		 push	 eax
  00022	e8 00 00 00 00	 call	 ___RTDynamicCast
  00027	83 c4 14	 add	 esp, 20			; 00000014H

; 220  : }

  0002a	5d		 pop	 ebp
  0002b	c3		 ret	 0
$LN1@ToCopyOwne:

; 217  : 		return NULL;

  0002c	33 c0		 xor	 eax, eax

; 220  : }

  0002e	5d		 pop	 ebp
  0002f	c3		 ret	 0
?ToCopyOwnerDummyChar@@YAPAVioCopyOwnerDummyChar@@PAVioDummyChar@@@Z ENDP ; ToCopyOwnerDummyChar
_TEXT	ENDS
PUBLIC	?GetBuffInfo@ioCreateDummyCharBuff@@UAEXAAVSP2Packet@@@Z ; ioCreateDummyCharBuff::GetBuffInfo
EXTRN	??6SP2Packet@@QAEAAV0@ABUD3DXVECTOR3@@@Z:PROC	; SP2Packet::operator<<
EXTRN	??6SP2Packet@@QAEAAV0@M@Z:PROC			; SP2Packet::operator<<
EXTRN	??6SP2Packet@@QAEAAV0@ABVioHashString@@@Z:PROC	; SP2Packet::operator<<
EXTRN	??6SP2Packet@@QAEAAV0@H@Z:PROC			; SP2Packet::operator<<
EXTRN	?GetBuffInfo@ioBuff@@UAEXAAVSP2Packet@@@Z:PROC	; ioBuff::GetBuffInfo
; Function compile flags: /Ogsp
; File d:\lost saga for developer\youtube\tutorial\source\src\lsclient\iocreatedummycharbuff.cpp
;	COMDAT ?GetBuffInfo@ioCreateDummyCharBuff@@UAEXAAVSP2Packet@@@Z
_TEXT	SEGMENT
tv186 = 8						; size = 4
_iSize$ = 8						; size = 4
_rkPacket$ = 8						; size = 4
?GetBuffInfo@ioCreateDummyCharBuff@@UAEXAAVSP2Packet@@@Z PROC ; ioCreateDummyCharBuff::GetBuffInfo, COMDAT
; _this$ = ecx

; 285  : {

  00000	55		 push	 ebp
  00001	8b ec		 mov	 ebp, esp
  00003	53		 push	 ebx

; 286  : 	ioBuff::GetBuffInfo(rkPacket);

  00004	8b 5d 08	 mov	 ebx, DWORD PTR _rkPacket$[ebp]
  00007	56		 push	 esi
  00008	57		 push	 edi
  00009	53		 push	 ebx
  0000a	8b f1		 mov	 esi, ecx
  0000c	e8 00 00 00 00	 call	 ?GetBuffInfo@ioBuff@@UAEXAAVSP2Packet@@@Z ; ioBuff::GetBuffInfo

; 287  : 	rkPacket << m_iCurActiveCount;

  00011	ff b6 2c 09 00
	00		 push	 DWORD PTR [esi+2348]
  00017	8b cb		 mov	 ecx, ebx
  00019	e8 00 00 00 00	 call	 ??6SP2Packet@@QAEAAV0@H@Z ; SP2Packet::operator<<

; 288  : 
; 289  : 	int iSize = m_CreateDummyList.size();

  0001e	8b 86 c0 09 00
	00		 mov	 eax, DWORD PTR [esi+2496]
  00024	2b 86 bc 09 00
	00		 sub	 eax, DWORD PTR [esi+2492]
  0002a	6a 24		 push	 36			; 00000024H
  0002c	59		 pop	 ecx
  0002d	99		 cdq
  0002e	f7 f9		 idiv	 ecx

; 290  : 	rkPacket << iSize;

  00030	8b cb		 mov	 ecx, ebx
  00032	50		 push	 eax
  00033	89 45 08	 mov	 DWORD PTR _iSize$[ebp], eax
  00036	e8 00 00 00 00	 call	 ??6SP2Packet@@QAEAAV0@H@Z ; SP2Packet::operator<<

; 291  : 	for( int i=0; i<iSize; ++i )

  0003b	33 ff		 xor	 edi, edi
  0003d	39 7d 08	 cmp	 DWORD PTR _iSize$[ebp], edi
  00040	7e 5a		 jle	 SHORT $LN1@GetBuffInf

; 286  : 	ioBuff::GetBuffInfo(rkPacket);

  00042	8b 45 08	 mov	 eax, DWORD PTR _iSize$[ebp]
  00045	89 45 08	 mov	 DWORD PTR tv186[ebp], eax
$LL3@GetBuffInf:

; 292  : 	{
; 293  : 		rkPacket << m_CreateDummyList[i].m_DummyCharName;

  00048	8b 86 bc 09 00
	00		 mov	 eax, DWORD PTR [esi+2492]
  0004e	03 c7		 add	 eax, edi
  00050	50		 push	 eax
  00051	8b cb		 mov	 ecx, ebx
  00053	e8 00 00 00 00	 call	 ??6SP2Packet@@QAEAAV0@ABVioHashString@@@Z ; SP2Packet::operator<<

; 294  : 		rkPacket << m_CreateDummyList[i].m_iDummyCharIdx;

  00058	8b 86 bc 09 00
	00		 mov	 eax, DWORD PTR [esi+2492]
  0005e	ff 74 38 10	 push	 DWORD PTR [eax+edi+16]
  00062	8b cb		 mov	 ecx, ebx
  00064	e8 00 00 00 00	 call	 ??6SP2Packet@@QAEAAV0@H@Z ; SP2Packet::operator<<

; 295  : 		rkPacket << m_CreateDummyList[i].m_fDummyCharStartAngle;

  00069	8b 86 bc 09 00
	00		 mov	 eax, DWORD PTR [esi+2492]
  0006f	f3 0f 10 44 38
	14		 movss	 xmm0, DWORD PTR [eax+edi+20]
  00075	51		 push	 ecx
  00076	8b cb		 mov	 ecx, ebx
  00078	f3 0f 11 04 24	 movss	 DWORD PTR [esp], xmm0
  0007d	e8 00 00 00 00	 call	 ??6SP2Packet@@QAEAAV0@M@Z ; SP2Packet::operator<<

; 296  : 		rkPacket << m_CreateDummyList[i].m_vTargetPos;

  00082	8b 86 bc 09 00
	00		 mov	 eax, DWORD PTR [esi+2492]
  00088	8d 44 38 18	 lea	 eax, DWORD PTR [eax+edi+24]
  0008c	50		 push	 eax
  0008d	8b cb		 mov	 ecx, ebx
  0008f	e8 00 00 00 00	 call	 ??6SP2Packet@@QAEAAV0@ABUD3DXVECTOR3@@@Z ; SP2Packet::operator<<
  00094	83 c7 24	 add	 edi, 36			; 00000024H
  00097	ff 4d 08	 dec	 DWORD PTR tv186[ebp]
  0009a	75 ac		 jne	 SHORT $LL3@GetBuffInf
$LN1@GetBuffInf:
  0009c	5f		 pop	 edi
  0009d	5e		 pop	 esi
  0009e	5b		 pop	 ebx

; 297  : 	}
; 298  : }

  0009f	5d		 pop	 ebp
  000a0	c2 04 00	 ret	 4
?GetBuffInfo@ioCreateDummyCharBuff@@UAEXAAVSP2Packet@@@Z ENDP ; ioCreateDummyCharBuff::GetBuffInfo
_TEXT	ENDS
PUBLIC	?CheckDummyChar@ioCreateDummyCharBuff@@IAEXXZ	; ioCreateDummyCharBuff::CheckDummyChar
EXTRN	?SetReserveEndBuff@ioBuff@@QAEXXZ:PROC		; ioBuff::SetReserveEndBuff
EXTRN	?CheckUseBuffSkill@ioBaseChar@@QAEXABVioHashString@@_N@Z:PROC ; ioBaseChar::CheckUseBuffSkill
EXTRN	?FindDummyChar@ioDummyCharManager@@QAEPAVioDummyChar@@PAVioBaseChar@@H@Z:PROC ; ioDummyCharManager::FindDummyChar
EXTRN	?GetSingleton@ioDummyCharManager@@SAAAV1@XZ:PROC ; ioDummyCharManager::GetSingleton
EXTRN	?GetOwner@ioBuff@@QAEPAVioBaseChar@@XZ:PROC	; ioBuff::GetOwner
; Function compile flags: /Ogsp
;	COMDAT ?CheckDummyChar@ioCreateDummyCharBuff@@IAEXXZ
_TEXT	SEGMENT
_iSize$ = -8						; size = 4
_i$542439 = -4						; size = 4
?CheckDummyChar@ioCreateDummyCharBuff@@IAEXXZ PROC	; ioCreateDummyCharBuff::CheckDummyChar, COMDAT
; _this$ = ecx

; 427  : {

  00000	55		 push	 ebp
  00001	8b ec		 mov	 ebp, esp
  00003	51		 push	 ecx
  00004	51		 push	 ecx
  00005	53		 push	 ebx
  00006	56		 push	 esi
  00007	57		 push	 edi
  00008	8b f1		 mov	 esi, ecx

; 428  : 	ioBaseChar *pOwner = GetOwner();

  0000a	e8 00 00 00 00	 call	 ?GetOwner@ioBuff@@QAEPAVioBaseChar@@XZ ; ioBuff::GetOwner
  0000f	8b d8		 mov	 ebx, eax

; 429  : 	if( !pOwner )

  00011	33 ff		 xor	 edi, edi
  00013	3b df		 cmp	 ebx, edi
  00015	74 67		 je	 SHORT $LN3@CheckDummy

; 430  : 		return;
; 431  : 
; 432  : 	int iSize = m_CreateDummyList.size();

  00017	8b 86 c0 09 00
	00		 mov	 eax, DWORD PTR [esi+2496]
  0001d	2b 86 bc 09 00
	00		 sub	 eax, DWORD PTR [esi+2492]
  00023	6a 24		 push	 36			; 00000024H
  00025	99		 cdq
  00026	59		 pop	 ecx
  00027	f7 f9		 idiv	 ecx

; 433  : 	for( int i=0; i<iSize; ++i )

  00029	89 7d fc	 mov	 DWORD PTR _i$542439[ebp], edi
  0002c	89 45 f8	 mov	 DWORD PTR _iSize$[ebp], eax
  0002f	3b c7		 cmp	 eax, edi
  00031	7e 4b		 jle	 SHORT $LN3@CheckDummy
$LL5@CheckDummy:

; 434  : 	{
; 435  : 		ioDummyChar *pDummy = g_DummyCharMgr.FindDummyChar( pOwner, m_CreateDummyList[i].m_iDummyCharIdx );

  00033	8b 86 bc 09 00
	00		 mov	 eax, DWORD PTR [esi+2492]
  00039	ff 74 38 10	 push	 DWORD PTR [eax+edi+16]
  0003d	53		 push	 ebx
  0003e	e8 00 00 00 00	 call	 ?GetSingleton@ioDummyCharManager@@SAAAV1@XZ ; ioDummyCharManager::GetSingleton
  00043	8b c8		 mov	 ecx, eax
  00045	e8 00 00 00 00	 call	 ?FindDummyChar@ioDummyCharManager@@QAEPAVioDummyChar@@PAVioBaseChar@@H@Z ; ioDummyCharManager::FindDummyChar

; 436  : 		if( pDummy && pDummy->GetState() == DCS_DIE )

  0004a	85 c0		 test	 eax, eax
  0004c	74 19		 je	 SHORT $LN17@CheckDummy
  0004e	83 b8 30 02 00
	00 06		 cmp	 DWORD PTR [eax+560], 6
  00055	74 10		 je	 SHORT $LN17@CheckDummy

; 433  : 	for( int i=0; i<iSize; ++i )

  00057	ff 45 fc	 inc	 DWORD PTR _i$542439[ebp]
  0005a	8b 45 fc	 mov	 eax, DWORD PTR _i$542439[ebp]
  0005d	83 c7 24	 add	 edi, 36			; 00000024H
  00060	3b 45 f8	 cmp	 eax, DWORD PTR _iSize$[ebp]
  00063	7c ce		 jl	 SHORT $LL5@CheckDummy

; 437  : 		{
; 438  : 			pOwner->CheckUseBuffSkill( m_Name, false );
; 439  : 			SetReserveEndBuff();
; 440  : 			return;
; 441  : 		}
; 442  : 
; 443  : 		if( !pDummy )

  00065	eb 17		 jmp	 SHORT $LN3@CheckDummy
$LN17@CheckDummy:

; 444  : 		{
; 445  : 			pOwner->CheckUseBuffSkill( m_Name, false );

  00067	6a 00		 push	 0
  00069	8d 86 34 02 00
	00		 lea	 eax, DWORD PTR [esi+564]
  0006f	50		 push	 eax
  00070	8b cb		 mov	 ecx, ebx
  00072	e8 00 00 00 00	 call	 ?CheckUseBuffSkill@ioBaseChar@@QAEXABVioHashString@@_N@Z ; ioBaseChar::CheckUseBuffSkill

; 446  : 			SetReserveEndBuff();

  00077	8b ce		 mov	 ecx, esi
  00079	e8 00 00 00 00	 call	 ?SetReserveEndBuff@ioBuff@@QAEXXZ ; ioBuff::SetReserveEndBuff
$LN3@CheckDummy:
  0007e	5f		 pop	 edi
  0007f	5e		 pop	 esi
  00080	5b		 pop	 ebx

; 447  : 			return;
; 448  : 		}
; 449  : 	}
; 450  : }

  00081	c9		 leave
  00082	c3		 ret	 0
?CheckDummyChar@ioCreateDummyCharBuff@@IAEXXZ ENDP	; ioCreateDummyCharBuff::CheckDummyChar
_TEXT	ENDS
PUBLIC	?GetDummyCharPos@ioCreateDummyCharBuff@@QAE?AUD3DXVECTOR3@@XZ ; ioCreateDummyCharBuff::GetDummyCharPos
EXTRN	__imp_?VEC3_ZERO@ioMath@@2UD3DXVECTOR3@@A:BYTE
; Function compile flags: /Ogsp
;	COMDAT ?GetDummyCharPos@ioCreateDummyCharBuff@@QAE?AUD3DXVECTOR3@@XZ
_TEXT	SEGMENT
_iSize$ = -8						; size = 4
_i$542453 = -4						; size = 4
___$ReturnUdt$ = 8					; size = 4
?GetDummyCharPos@ioCreateDummyCharBuff@@QAE?AUD3DXVECTOR3@@XZ PROC ; ioCreateDummyCharBuff::GetDummyCharPos, COMDAT
; _this$ = ecx

; 453  : {

  00000	55		 push	 ebp
  00001	8b ec		 mov	 ebp, esp
  00003	51		 push	 ecx
  00004	51		 push	 ecx
  00005	53		 push	 ebx
  00006	56		 push	 esi
  00007	57		 push	 edi
  00008	8b f1		 mov	 esi, ecx

; 454  : 	ioBaseChar *pOwner = GetOwner();

  0000a	e8 00 00 00 00	 call	 ?GetOwner@ioBuff@@QAEPAVioBaseChar@@XZ ; ioBuff::GetOwner
  0000f	8b f8		 mov	 edi, eax

; 455  : 	if( !pOwner )

  00011	33 db		 xor	 ebx, ebx
  00013	3b fb		 cmp	 edi, ebx
  00015	75 08		 jne	 SHORT $LN5@GetDummyCh

; 456  : 		return ioMath::VEC3_ZERO;

  00017	8b 35 00 00 00
	00		 mov	 esi, DWORD PTR __imp_?VEC3_ZERO@ioMath@@2UD3DXVECTOR3@@A
  0001d	eb 4e		 jmp	 SHORT $LN15@GetDummyCh
$LN5@GetDummyCh:

; 457  : 
; 458  : 	int iSize = m_CreateDummyList.size();

  0001f	8b 86 c0 09 00
	00		 mov	 eax, DWORD PTR [esi+2496]
  00025	2b 86 bc 09 00
	00		 sub	 eax, DWORD PTR [esi+2492]
  0002b	6a 24		 push	 36			; 00000024H
  0002d	99		 cdq
  0002e	59		 pop	 ecx
  0002f	f7 f9		 idiv	 ecx

; 459  : 	for( int i=0; i<iSize; ++i )

  00031	89 5d fc	 mov	 DWORD PTR _i$542453[ebp], ebx
  00034	89 45 f8	 mov	 DWORD PTR _iSize$[ebp], eax
  00037	3b c3		 cmp	 eax, ebx
  00039	7e 29		 jle	 SHORT $LN2@GetDummyCh
$LL4@GetDummyCh:

; 460  : 	{
; 461  : 		ioDummyChar *pDummy = g_DummyCharMgr.FindDummyChar( pOwner, m_CreateDummyList[i].m_iDummyCharIdx );

  0003b	8b 86 bc 09 00
	00		 mov	 eax, DWORD PTR [esi+2492]
  00041	ff 74 18 10	 push	 DWORD PTR [eax+ebx+16]
  00045	57		 push	 edi
  00046	e8 00 00 00 00	 call	 ?GetSingleton@ioDummyCharManager@@SAAAV1@XZ ; ioDummyCharManager::GetSingleton
  0004b	8b c8		 mov	 ecx, eax
  0004d	e8 00 00 00 00	 call	 ?FindDummyChar@ioDummyCharManager@@QAEPAVioDummyChar@@PAVioBaseChar@@H@Z ; ioDummyCharManager::FindDummyChar

; 462  : 		if( pDummy  )

  00052	85 c0		 test	 eax, eax
  00054	75 26		 jne	 SHORT $LN13@GetDummyCh

; 459  : 	for( int i=0; i<iSize; ++i )

  00056	ff 45 fc	 inc	 DWORD PTR _i$542453[ebp]
  00059	8b 45 fc	 mov	 eax, DWORD PTR _i$542453[ebp]
  0005c	83 c3 24	 add	 ebx, 36			; 00000024H
  0005f	3b 45 f8	 cmp	 eax, DWORD PTR _iSize$[ebp]
  00062	7c d7		 jl	 SHORT $LL4@GetDummyCh
$LN2@GetDummyCh:

; 465  : 		}
; 466  : 	}
; 467  : 
; 468  : 	return pOwner->GetWorldPosition();

  00064	8b 07		 mov	 eax, DWORD PTR [edi]
  00066	8b cf		 mov	 ecx, edi
  00068	ff 50 70	 call	 DWORD PTR [eax+112]
$LN16@GetDummyCh:
  0006b	8b f0		 mov	 esi, eax
$LN15@GetDummyCh:
  0006d	8b 45 08	 mov	 eax, DWORD PTR ___$ReturnUdt$[ebp]
  00070	8b f8		 mov	 edi, eax
  00072	a5		 movsd
  00073	a5		 movsd
  00074	a5		 movsd
  00075	5f		 pop	 edi
  00076	5e		 pop	 esi
  00077	5b		 pop	 ebx

; 469  : }

  00078	c9		 leave
  00079	c2 04 00	 ret	 4
$LN13@GetDummyCh:

; 463  : 		{
; 464  : 			return pDummy->GetWorldPosition();

  0007c	8b 10		 mov	 edx, DWORD PTR [eax]
  0007e	8b c8		 mov	 ecx, eax
  00080	ff 52 70	 call	 DWORD PTR [edx+112]
  00083	eb e6		 jmp	 SHORT $LN16@GetDummyCh
?GetDummyCharPos@ioCreateDummyCharBuff@@QAE?AUD3DXVECTOR3@@XZ ENDP ; ioCreateDummyCharBuff::GetDummyCharPos
_TEXT	ENDS
PUBLIC	??N?$CEncrypt@K@@QAE_NABK@Z			; CEncrypt<unsigned long>::operator<=
; Function compile flags: /Ogsp
; File d:\lost saga for developer\youtube\tutorial\source\src\lsclient\encryptvalue.h
;	COMDAT ??N?$CEncrypt@K@@QAE_NABK@Z
_TEXT	SEGMENT
_value$ = -4						; size = 4
_inValue$ = 8						; size = 4
??N?$CEncrypt@K@@QAE_NABK@Z PROC			; CEncrypt<unsigned long>::operator<=, COMDAT
; _this$ = ecx

; 1431 : 	{

  00000	55		 push	 ebp
  00001	8b ec		 mov	 ebp, esp
  00003	51		 push	 ecx

; 1432 : 		
; 1433 : 		type value;
; 1434 : 		DecryptValueToPool(&value);

  00004	8d 45 fc	 lea	 eax, DWORD PTR _value$[ebp]
  00007	50		 push	 eax
  00008	e8 00 00 00 00	 call	 ?DecryptValueToPool@?$CEncrypt@K@@QAEXPAK@Z ; CEncrypt<unsigned long>::DecryptValueToPool

; 1435 : #ifdef _NOTUSE
; 1436 : 		Debug();
; 1437 : #endif
; 1438 : 		return (value <= inValue);

  0000d	8b 45 08	 mov	 eax, DWORD PTR _inValue$[ebp]
  00010	8b 00		 mov	 eax, DWORD PTR [eax]
  00012	3b 45 fc	 cmp	 eax, DWORD PTR _value$[ebp]
  00015	1b c0		 sbb	 eax, eax
  00017	40		 inc	 eax

; 1439 : 	}		

  00018	c9		 leave
  00019	c2 04 00	 ret	 4
??N?$CEncrypt@K@@QAE_NABK@Z ENDP			; CEncrypt<unsigned long>::operator<=
_TEXT	ENDS
PUBLIC	?begin@?$vector@UtagDummyCharLoadInfo@@V?$allocator@UtagDummyCharLoadInfo@@@std@@@std@@QBE?AV?$_Vector_const_iterator@V?$_Vector_val@UtagDummyCharLoadInfo@@V?$allocator@UtagDummyCharLoadInfo@@@std@@@std@@@2@XZ ; std::vector<tagDummyCharLoadInfo,std::allocator<tagDummyCharLoadInfo> >::begin
; Function compile flags: /Ogsp
; File c:\program files (x86)\microsoft visual studio 10.0\vc\include\vector
;	COMDAT ?begin@?$vector@UtagDummyCharLoadInfo@@V?$allocator@UtagDummyCharLoadInfo@@@std@@@std@@QBE?AV?$_Vector_const_iterator@V?$_Vector_val@UtagDummyCharLoadInfo@@V?$allocator@UtagDummyCharLoadInfo@@@std@@@std@@@2@XZ
_TEXT	SEGMENT
___$ReturnUdt$ = 8					; size = 4
?begin@?$vector@UtagDummyCharLoadInfo@@V?$allocator@UtagDummyCharLoadInfo@@@std@@@std@@QBE?AV?$_Vector_const_iterator@V?$_Vector_val@UtagDummyCharLoadInfo@@V?$allocator@UtagDummyCharLoadInfo@@@std@@@std@@@2@XZ PROC ; std::vector<tagDummyCharLoadInfo,std::allocator<tagDummyCharLoadInfo> >::begin, COMDAT
; _this$ = ecx

; 786  : 		{	// return iterator for beginning of nonmutable sequence

  00000	55		 push	 ebp
  00001	8b ec		 mov	 ebp, esp

; 787  : 		return (const_iterator(this->_Myfirst, this));

  00003	8b 09		 mov	 ecx, DWORD PTR [ecx]
  00005	8b 45 08	 mov	 eax, DWORD PTR ___$ReturnUdt$[ebp]
  00008	89 08		 mov	 DWORD PTR [eax], ecx

; 788  : 		}

  0000a	5d		 pop	 ebp
  0000b	c2 04 00	 ret	 4
?begin@?$vector@UtagDummyCharLoadInfo@@V?$allocator@UtagDummyCharLoadInfo@@@std@@@std@@QBE?AV?$_Vector_const_iterator@V?$_Vector_val@UtagDummyCharLoadInfo@@V?$allocator@UtagDummyCharLoadInfo@@@std@@@std@@@2@XZ ENDP ; std::vector<tagDummyCharLoadInfo,std::allocator<tagDummyCharLoadInfo> >::begin
_TEXT	ENDS
PUBLIC	?end@?$vector@UtagDummyCharLoadInfo@@V?$allocator@UtagDummyCharLoadInfo@@@std@@@std@@QBE?AV?$_Vector_const_iterator@V?$_Vector_val@UtagDummyCharLoadInfo@@V?$allocator@UtagDummyCharLoadInfo@@@std@@@std@@@2@XZ ; std::vector<tagDummyCharLoadInfo,std::allocator<tagDummyCharLoadInfo> >::end
; Function compile flags: /Ogsp
;	COMDAT ?end@?$vector@UtagDummyCharLoadInfo@@V?$allocator@UtagDummyCharLoadInfo@@@std@@@std@@QBE?AV?$_Vector_const_iterator@V?$_Vector_val@UtagDummyCharLoadInfo@@V?$allocator@UtagDummyCharLoadInfo@@@std@@@std@@@2@XZ
_TEXT	SEGMENT
___$ReturnUdt$ = 8					; size = 4
?end@?$vector@UtagDummyCharLoadInfo@@V?$allocator@UtagDummyCharLoadInfo@@@std@@@std@@QBE?AV?$_Vector_const_iterator@V?$_Vector_val@UtagDummyCharLoadInfo@@V?$allocator@UtagDummyCharLoadInfo@@@std@@@std@@@2@XZ PROC ; std::vector<tagDummyCharLoadInfo,std::allocator<tagDummyCharLoadInfo> >::end, COMDAT
; _this$ = ecx

; 796  : 		{	// return iterator for end of nonmutable sequence

  00000	55		 push	 ebp
  00001	8b ec		 mov	 ebp, esp

; 797  : 		return (const_iterator(this->_Mylast, this));

  00003	8b 49 04	 mov	 ecx, DWORD PTR [ecx+4]
  00006	8b 45 08	 mov	 eax, DWORD PTR ___$ReturnUdt$[ebp]
  00009	89 08		 mov	 DWORD PTR [eax], ecx

; 798  : 		}

  0000b	5d		 pop	 ebp
  0000c	c2 04 00	 ret	 4
?end@?$vector@UtagDummyCharLoadInfo@@V?$allocator@UtagDummyCharLoadInfo@@@std@@@std@@QBE?AV?$_Vector_const_iterator@V?$_Vector_val@UtagDummyCharLoadInfo@@V?$allocator@UtagDummyCharLoadInfo@@@std@@@std@@@2@XZ ENDP ; std::vector<tagDummyCharLoadInfo,std::allocator<tagDummyCharLoadInfo> >::end
_TEXT	ENDS
PUBLIC	??0?$_Vector_val@UtagDummyCharCreateInfo@@V?$allocator@UtagDummyCharCreateInfo@@@std@@@std@@QAE@V?$allocator@UtagDummyCharCreateInfo@@@1@@Z ; std::_Vector_val<tagDummyCharCreateInfo,std::allocator<tagDummyCharCreateInfo> >::_Vector_val<tagDummyCharCreateInfo,std::allocator<tagDummyCharCreateInfo> >
; Function compile flags: /Ogsp
;	COMDAT ??0?$_Vector_val@UtagDummyCharCreateInfo@@V?$allocator@UtagDummyCharCreateInfo@@@std@@@std@@QAE@V?$allocator@UtagDummyCharCreateInfo@@@1@@Z
_TEXT	SEGMENT
__Al$ = 8						; size = 1
??0?$_Vector_val@UtagDummyCharCreateInfo@@V?$allocator@UtagDummyCharCreateInfo@@@std@@@std@@QAE@V?$allocator@UtagDummyCharCreateInfo@@@1@@Z PROC ; std::_Vector_val<tagDummyCharCreateInfo,std::allocator<tagDummyCharCreateInfo> >::_Vector_val<tagDummyCharCreateInfo,std::allocator<tagDummyCharCreateInfo> >, COMDAT
; _this$ = ecx

; 426  : 		{	// construct allocator from _Al

  00000	8b c1		 mov	 eax, ecx

; 427  : 		_Myfirst = 0;

  00002	33 c9		 xor	 ecx, ecx
  00004	89 08		 mov	 DWORD PTR [eax], ecx

; 428  : 		_Mylast = 0;

  00006	89 48 04	 mov	 DWORD PTR [eax+4], ecx

; 429  : 		_Myend = 0;

  00009	89 48 08	 mov	 DWORD PTR [eax+8], ecx

; 430  : 		}

  0000c	c2 04 00	 ret	 4
??0?$_Vector_val@UtagDummyCharCreateInfo@@V?$allocator@UtagDummyCharCreateInfo@@@std@@@std@@QAE@V?$allocator@UtagDummyCharCreateInfo@@@1@@Z ENDP ; std::_Vector_val<tagDummyCharCreateInfo,std::allocator<tagDummyCharCreateInfo> >::_Vector_val<tagDummyCharCreateInfo,std::allocator<tagDummyCharCreateInfo> >
_TEXT	ENDS
PUBLIC	?max_size@?$vector@UtagDummyCharLoadInfo@@V?$allocator@UtagDummyCharLoadInfo@@@std@@@std@@QBEIXZ ; std::vector<tagDummyCharLoadInfo,std::allocator<tagDummyCharLoadInfo> >::max_size
; Function compile flags: /Ogsp
;	COMDAT ?max_size@?$vector@UtagDummyCharLoadInfo@@V?$allocator@UtagDummyCharLoadInfo@@@std@@@std@@QBEIXZ
_TEXT	SEGMENT
?max_size@?$vector@UtagDummyCharLoadInfo@@V?$allocator@UtagDummyCharLoadInfo@@@std@@@std@@QBEIXZ PROC ; std::vector<tagDummyCharLoadInfo,std::allocator<tagDummyCharLoadInfo> >::max_size, COMDAT
; _this$ = ecx

; 884  : 		return (this->_Alval.max_size());

  00000	b8 49 92 24 09	 mov	 eax, 153391689		; 09249249H

; 885  : 		}

  00005	c3		 ret	 0
?max_size@?$vector@UtagDummyCharLoadInfo@@V?$allocator@UtagDummyCharLoadInfo@@@std@@@std@@QBEIXZ ENDP ; std::vector<tagDummyCharLoadInfo,std::allocator<tagDummyCharLoadInfo> >::max_size
_TEXT	ENDS
PUBLIC	?allocate@?$allocator@UtagDummyCharLoadInfo@@@std@@QAEPAUtagDummyCharLoadInfo@@I@Z ; std::allocator<tagDummyCharLoadInfo>::allocate
; Function compile flags: /Ogsp
; File c:\program files (x86)\microsoft visual studio 10.0\vc\include\xmemory
;	COMDAT ?allocate@?$allocator@UtagDummyCharLoadInfo@@@std@@QAEPAUtagDummyCharLoadInfo@@I@Z
_TEXT	SEGMENT
__Count$ = 8						; size = 4
?allocate@?$allocator@UtagDummyCharLoadInfo@@@std@@QAEPAUtagDummyCharLoadInfo@@I@Z PROC ; std::allocator<tagDummyCharLoadInfo>::allocate, COMDAT
; _this$ = ecx

; 186  : 		{	// allocate array of _Count elements

  00000	55		 push	 ebp
  00001	8b ec		 mov	 ebp, esp

; 187  : 		return (_Allocate(_Count, (pointer)0));

  00003	6a 00		 push	 0
  00005	ff 75 08	 push	 DWORD PTR __Count$[ebp]
  00008	e8 00 00 00 00	 call	 ??$_Allocate@UtagDummyCharLoadInfo@@@std@@YAPAUtagDummyCharLoadInfo@@IPAU1@@Z ; std::_Allocate<tagDummyCharLoadInfo>
  0000d	59		 pop	 ecx
  0000e	59		 pop	 ecx

; 188  : 		}

  0000f	5d		 pop	 ebp
  00010	c2 04 00	 ret	 4
?allocate@?$allocator@UtagDummyCharLoadInfo@@@std@@QAEPAUtagDummyCharLoadInfo@@I@Z ENDP ; std::allocator<tagDummyCharLoadInfo>::allocate
_TEXT	ENDS
PUBLIC	?max_size@?$vector@UtagDummyCharCreateInfo@@V?$allocator@UtagDummyCharCreateInfo@@@std@@@std@@QBEIXZ ; std::vector<tagDummyCharCreateInfo,std::allocator<tagDummyCharCreateInfo> >::max_size
; Function compile flags: /Ogsp
; File c:\program files (x86)\microsoft visual studio 10.0\vc\include\vector
;	COMDAT ?max_size@?$vector@UtagDummyCharCreateInfo@@V?$allocator@UtagDummyCharCreateInfo@@@std@@@std@@QBEIXZ
_TEXT	SEGMENT
?max_size@?$vector@UtagDummyCharCreateInfo@@V?$allocator@UtagDummyCharCreateInfo@@@std@@@std@@QBEIXZ PROC ; std::vector<tagDummyCharCreateInfo,std::allocator<tagDummyCharCreateInfo> >::max_size, COMDAT
; _this$ = ecx

; 884  : 		return (this->_Alval.max_size());

  00000	b8 c7 71 1c 07	 mov	 eax, 119304647		; 071c71c7H

; 885  : 		}

  00005	c3		 ret	 0
?max_size@?$vector@UtagDummyCharCreateInfo@@V?$allocator@UtagDummyCharCreateInfo@@@std@@@std@@QBEIXZ ENDP ; std::vector<tagDummyCharCreateInfo,std::allocator<tagDummyCharCreateInfo> >::max_size
_TEXT	ENDS
PUBLIC	?_Grow_to@?$vector@UtagDummyCharCreateInfo@@V?$allocator@UtagDummyCharCreateInfo@@@std@@@std@@IBEII@Z ; std::vector<tagDummyCharCreateInfo,std::allocator<tagDummyCharCreateInfo> >::_Grow_to
; Function compile flags: /Ogsp
;	COMDAT ?_Grow_to@?$vector@UtagDummyCharCreateInfo@@V?$allocator@UtagDummyCharCreateInfo@@@std@@@std@@IBEII@Z
_TEXT	SEGMENT
__Count$ = 8						; size = 4
?_Grow_to@?$vector@UtagDummyCharCreateInfo@@V?$allocator@UtagDummyCharCreateInfo@@@std@@@std@@IBEII@Z PROC ; std::vector<tagDummyCharCreateInfo,std::allocator<tagDummyCharCreateInfo> >::_Grow_to, COMDAT
; _this$ = ecx

; 1274 : 		{	// grow by 50% or at least to _Count

  00000	55		 push	 ebp
  00001	8b ec		 mov	 ebp, esp

; 1275 : 		size_type _Capacity = capacity();

  00003	8b 41 08	 mov	 eax, DWORD PTR [ecx+8]
  00006	2b 01		 sub	 eax, DWORD PTR [ecx]
  00008	6a 24		 push	 36			; 00000024H
  0000a	99		 cdq
  0000b	59		 pop	 ecx
  0000c	f7 f9		 idiv	 ecx

; 1276 : 
; 1277 : 		_Capacity = max_size() - _Capacity / 2 < _Capacity
; 1278 : 			? 0 : _Capacity + _Capacity / 2;	// try to grow by 50%

  0000e	ba c7 71 1c 07	 mov	 edx, 119304647		; 071c71c7H
  00013	8b c8		 mov	 ecx, eax
  00015	d1 e9		 shr	 ecx, 1
  00017	2b d1		 sub	 edx, ecx
  00019	3b d0		 cmp	 edx, eax
  0001b	73 04		 jae	 SHORT $LN4@Grow_to
  0001d	33 c0		 xor	 eax, eax
  0001f	eb 02		 jmp	 SHORT $LN5@Grow_to
$LN4@Grow_to:
  00021	03 c1		 add	 eax, ecx
$LN5@Grow_to:

; 1279 : 		if (_Capacity < _Count)

  00023	3b 45 08	 cmp	 eax, DWORD PTR __Count$[ebp]

; 1280 : 			_Capacity = _Count;

  00026	0f 42 45 08	 cmovb	 eax, DWORD PTR __Count$[ebp]

; 1281 : 		return (_Capacity);
; 1282 : 		}

  0002a	5d		 pop	 ebp
  0002b	c2 04 00	 ret	 4
?_Grow_to@?$vector@UtagDummyCharCreateInfo@@V?$allocator@UtagDummyCharCreateInfo@@@std@@@std@@IBEII@Z ENDP ; std::vector<tagDummyCharCreateInfo,std::allocator<tagDummyCharCreateInfo> >::_Grow_to
_TEXT	ENDS
PUBLIC	??0?$_Vector_iterator@V?$_Vector_val@UtagDummyCharCreateInfo@@V?$allocator@UtagDummyCharCreateInfo@@@std@@@std@@@std@@QAE@PAUtagDummyCharCreateInfo@@PBU_Container_base0@1@@Z ; std::_Vector_iterator<std::_Vector_val<tagDummyCharCreateInfo,std::allocator<tagDummyCharCreateInfo> > >::_Vector_iterator<std::_Vector_val<tagDummyCharCreateInfo,std::allocator<tagDummyCharCreateInfo> > >
; Function compile flags: /Ogsp
;	COMDAT ??0?$_Vector_iterator@V?$_Vector_val@UtagDummyCharCreateInfo@@V?$allocator@UtagDummyCharCreateInfo@@@std@@@std@@@std@@QAE@PAUtagDummyCharCreateInfo@@PBU_Container_base0@1@@Z
_TEXT	SEGMENT
__Parg$ = 8						; size = 4
__Pvector$ = 12						; size = 4
??0?$_Vector_iterator@V?$_Vector_val@UtagDummyCharCreateInfo@@V?$allocator@UtagDummyCharCreateInfo@@@std@@@std@@@std@@QAE@PAUtagDummyCharCreateInfo@@PBU_Container_base0@1@@Z PROC ; std::_Vector_iterator<std::_Vector_val<tagDummyCharCreateInfo,std::allocator<tagDummyCharCreateInfo> > >::_Vector_iterator<std::_Vector_val<tagDummyCharCreateInfo,std::allocator<tagDummyCharCreateInfo> > >, COMDAT
; _this$ = ecx

; 304  : 		{	// construct with pointer _Parg

  00000	55		 push	 ebp
  00001	8b ec		 mov	 ebp, esp
  00003	8b c1		 mov	 eax, ecx
  00005	8b 4d 08	 mov	 ecx, DWORD PTR __Parg$[ebp]
  00008	89 08		 mov	 DWORD PTR [eax], ecx

; 305  : 		}

  0000a	5d		 pop	 ebp
  0000b	c2 08 00	 ret	 8
??0?$_Vector_iterator@V?$_Vector_val@UtagDummyCharCreateInfo@@V?$allocator@UtagDummyCharCreateInfo@@@std@@@std@@@std@@QAE@PAUtagDummyCharCreateInfo@@PBU_Container_base0@1@@Z ENDP ; std::_Vector_iterator<std::_Vector_val<tagDummyCharCreateInfo,std::allocator<tagDummyCharCreateInfo> > >::_Vector_iterator<std::_Vector_val<tagDummyCharCreateInfo,std::allocator<tagDummyCharCreateInfo> > >
_TEXT	ENDS
PUBLIC	?allocate@?$allocator@UtagDummyCharCreateInfo@@@std@@QAEPAUtagDummyCharCreateInfo@@I@Z ; std::allocator<tagDummyCharCreateInfo>::allocate
; Function compile flags: /Ogsp
; File c:\program files (x86)\microsoft visual studio 10.0\vc\include\xmemory
;	COMDAT ?allocate@?$allocator@UtagDummyCharCreateInfo@@@std@@QAEPAUtagDummyCharCreateInfo@@I@Z
_TEXT	SEGMENT
__Count$ = 8						; size = 4
?allocate@?$allocator@UtagDummyCharCreateInfo@@@std@@QAEPAUtagDummyCharCreateInfo@@I@Z PROC ; std::allocator<tagDummyCharCreateInfo>::allocate, COMDAT
; _this$ = ecx

; 186  : 		{	// allocate array of _Count elements

  00000	55		 push	 ebp
  00001	8b ec		 mov	 ebp, esp

; 187  : 		return (_Allocate(_Count, (pointer)0));

  00003	6a 00		 push	 0
  00005	ff 75 08	 push	 DWORD PTR __Count$[ebp]
  00008	e8 00 00 00 00	 call	 ??$_Allocate@UtagDummyCharCreateInfo@@@std@@YAPAUtagDummyCharCreateInfo@@IPAU1@@Z ; std::_Allocate<tagDummyCharCreateInfo>
  0000d	59		 pop	 ecx
  0000e	59		 pop	 ecx

; 188  : 		}

  0000f	5d		 pop	 ebp
  00010	c2 04 00	 ret	 4
?allocate@?$allocator@UtagDummyCharCreateInfo@@@std@@QAEPAUtagDummyCharCreateInfo@@I@Z ENDP ; std::allocator<tagDummyCharCreateInfo>::allocate
_TEXT	ENDS
PUBLIC	??8?$_Vector_const_iterator@V?$_Vector_val@UtagDummyCharCreateInfo@@V?$allocator@UtagDummyCharCreateInfo@@@std@@@std@@@std@@QBE_NABV01@@Z ; std::_Vector_const_iterator<std::_Vector_val<tagDummyCharCreateInfo,std::allocator<tagDummyCharCreateInfo> > >::operator==
; Function compile flags: /Ogsp
; File c:\program files (x86)\microsoft visual studio 10.0\vc\include\vector
;	COMDAT ??8?$_Vector_const_iterator@V?$_Vector_val@UtagDummyCharCreateInfo@@V?$allocator@UtagDummyCharCreateInfo@@@std@@@std@@@std@@QBE_NABV01@@Z
_TEXT	SEGMENT
__Right$ = 8						; size = 4
??8?$_Vector_const_iterator@V?$_Vector_val@UtagDummyCharCreateInfo@@V?$allocator@UtagDummyCharCreateInfo@@@std@@@std@@@std@@QBE_NABV01@@Z PROC ; std::_Vector_const_iterator<std::_Vector_val<tagDummyCharCreateInfo,std::allocator<tagDummyCharCreateInfo> > >::operator==, COMDAT
; _this$ = ecx

; 201  : 		{	// test for iterator equality

  00000	55		 push	 ebp
  00001	8b ec		 mov	 ebp, esp

; 202  : 		_Compat(_Right);
; 203  : 		return (this->_Ptr == _Right._Ptr);

  00003	8b 01		 mov	 eax, DWORD PTR [ecx]
  00005	8b 4d 08	 mov	 ecx, DWORD PTR __Right$[ebp]
  00008	2b 01		 sub	 eax, DWORD PTR [ecx]
  0000a	f7 d8		 neg	 eax
  0000c	1b c0		 sbb	 eax, eax
  0000e	40		 inc	 eax

; 204  : 		}

  0000f	5d		 pop	 ebp
  00010	c2 04 00	 ret	 4
??8?$_Vector_const_iterator@V?$_Vector_val@UtagDummyCharCreateInfo@@V?$allocator@UtagDummyCharCreateInfo@@@std@@@std@@@std@@QBE_NABV01@@Z ENDP ; std::_Vector_const_iterator<std::_Vector_val<tagDummyCharCreateInfo,std::allocator<tagDummyCharCreateInfo> > >::operator==
_TEXT	ENDS
PUBLIC	__$ArrayPad$
PUBLIC	??$LoadFloat_e@$0L@@ioINILoader@@QAEMAAY0L@$$CBDM@Z ; ioINILoader::LoadFloat_e<11>
EXTRN	__imp_?LoadFloat@ioINILoader@@QAEMPBDM@Z:PROC
EXTRN	___security_cookie:DWORD
; Function compile flags: /Ogsp
; File d:\lost saga for developer\youtube\tutorial\source\src\io3dengine\ioiniloader.h
;	COMDAT ??$LoadFloat_e@$0L@@ioINILoader@@QAEMAAY0L@$$CBDM@Z
_TEXT	SEGMENT
__k$ = -20						; size = 11
__$ArrayPad$ = -4					; size = 4
_k$ = 8							; size = 4
_f$ = 12						; size = 4
??$LoadFloat_e@$0L@@ioINILoader@@QAEMAAY0L@$$CBDM@Z PROC ; ioINILoader::LoadFloat_e<11>, COMDAT
; _this$ = ecx

; 135  : 	{

  00000	55		 push	 ebp
  00001	8b ec		 mov	 ebp, esp
  00003	83 ec 14	 sub	 esp, 20			; 00000014H
  00006	a1 00 00 00 00	 mov	 eax, DWORD PTR ___security_cookie
  0000b	33 c5		 xor	 eax, ebp
  0000d	89 45 fc	 mov	 DWORD PTR __$ArrayPad$[ebp], eax
  00010	8b 45 08	 mov	 eax, DWORD PTR _k$[ebp]

; 136  : 		_ENCSTR(k, _k);

  00013	8a 10		 mov	 dl, BYTE PTR [eax]
  00015	56		 push	 esi
  00016	8b f1		 mov	 esi, ecx
  00018	84 d2		 test	 dl, dl
  0001a	0f 84 24 01 00
	00		 je	 $LN96@LoadFloat_
  00020	80 f2 ed	 xor	 dl, -19			; ffffffedH
  00023	88 55 ec	 mov	 BYTE PTR __k$[ebp], dl
  00026	8a 50 01	 mov	 dl, BYTE PTR [eax+1]
  00029	84 d2		 test	 dl, dl
  0002b	0f 84 0d 01 00
	00		 je	 $LN95@LoadFloat_
  00031	80 f2 ec	 xor	 dl, -20			; ffffffecH
  00034	88 55 ed	 mov	 BYTE PTR __k$[ebp+1], dl
  00037	8a 50 02	 mov	 dl, BYTE PTR [eax+2]
  0003a	84 d2		 test	 dl, dl
  0003c	0f 84 f6 00 00
	00		 je	 $LN94@LoadFloat_
  00042	80 f2 eb	 xor	 dl, -21			; ffffffebH
  00045	88 55 ee	 mov	 BYTE PTR __k$[ebp+2], dl
  00048	8a 50 03	 mov	 dl, BYTE PTR [eax+3]
  0004b	84 d2		 test	 dl, dl
  0004d	0f 84 df 00 00
	00		 je	 $LN93@LoadFloat_
  00053	80 f2 ea	 xor	 dl, -22			; ffffffeaH
  00056	88 55 ef	 mov	 BYTE PTR __k$[ebp+3], dl
  00059	8a 50 04	 mov	 dl, BYTE PTR [eax+4]
  0005c	84 d2		 test	 dl, dl
  0005e	0f 84 c8 00 00
	00		 je	 $LN92@LoadFloat_
  00064	80 f2 ed	 xor	 dl, -19			; ffffffedH
  00067	88 55 f0	 mov	 BYTE PTR __k$[ebp+4], dl
  0006a	8a 50 05	 mov	 dl, BYTE PTR [eax+5]
  0006d	84 d2		 test	 dl, dl
  0006f	0f 84 b1 00 00
	00		 je	 $LN91@LoadFloat_
  00075	80 f2 ec	 xor	 dl, -20			; ffffffecH
  00078	88 55 f1	 mov	 BYTE PTR __k$[ebp+5], dl
  0007b	8a 50 06	 mov	 dl, BYTE PTR [eax+6]
  0007e	84 d2		 test	 dl, dl
  00080	0f 84 9a 00 00
	00		 je	 $LN90@LoadFloat_
  00086	80 f2 eb	 xor	 dl, -21			; ffffffebH
  00089	88 55 f2	 mov	 BYTE PTR __k$[ebp+6], dl
  0008c	8a 50 07	 mov	 dl, BYTE PTR [eax+7]
  0008f	84 d2		 test	 dl, dl
  00091	0f 84 83 00 00
	00		 je	 $LN89@LoadFloat_
  00097	80 f2 ea	 xor	 dl, -22			; ffffffeaH
  0009a	88 55 f3	 mov	 BYTE PTR __k$[ebp+7], dl
  0009d	8a 50 08	 mov	 dl, BYTE PTR [eax+8]
  000a0	84 d2		 test	 dl, dl
  000a2	74 70		 je	 SHORT $LN88@LoadFloat_
  000a4	80 f2 ed	 xor	 dl, -19			; ffffffedH
  000a7	88 55 f4	 mov	 BYTE PTR __k$[ebp+8], dl
  000aa	8a 50 09	 mov	 dl, BYTE PTR [eax+9]
  000ad	84 d2		 test	 dl, dl
  000af	74 5d		 je	 SHORT $LN87@LoadFloat_
  000b1	80 f2 ec	 xor	 dl, -20			; ffffffecH
  000b4	80 78 0a 00	 cmp	 BYTE PTR [eax+10], 0
  000b8	88 55 f5	 mov	 BYTE PTR __k$[ebp+9], dl
  000bb	0f 84 87 00 00
	00		 je	 $LN1@LoadFloat_
  000c1	8a 50 0b	 mov	 dl, BYTE PTR [eax+11]
  000c4	84 d2		 test	 dl, dl
  000c6	74 40		 je	 SHORT $LN85@LoadFloat_
  000c8	80 f2 ea	 xor	 dl, -22			; ffffffeaH
  000cb	88 55 f7	 mov	 BYTE PTR __k$[ebp+11], dl
  000ce	8a 50 0c	 mov	 dl, BYTE PTR [eax+12]
  000d1	84 d2		 test	 dl, dl
  000d3	74 2d		 je	 SHORT $LN84@LoadFloat_
  000d5	80 f2 ed	 xor	 dl, -19			; ffffffedH
  000d8	88 55 f8	 mov	 BYTE PTR __k$[ebp+12], dl
  000db	8a 50 0d	 mov	 dl, BYTE PTR [eax+13]
  000de	84 d2		 test	 dl, dl
  000e0	74 1a		 je	 SHORT $LN83@LoadFloat_
  000e2	8a 40 0e	 mov	 al, BYTE PTR [eax+14]
  000e5	80 f2 ec	 xor	 dl, -20			; ffffffecH
  000e8	88 55 f9	 mov	 BYTE PTR __k$[ebp+13], dl
  000eb	84 c0		 test	 al, al
  000ed	74 07		 je	 SHORT $LN82@LoadFloat_
  000ef	34 eb		 xor	 al, -21			; ffffffebH
  000f1	88 45 fa	 mov	 BYTE PTR __k$[ebp+14], al
  000f4	eb 52		 jmp	 SHORT $LN1@LoadFloat_
$LN82@LoadFloat_:
  000f6	c6 45 fa eb	 mov	 BYTE PTR __k$[ebp+14], -21 ; ffffffebH
  000fa	eb 4c		 jmp	 SHORT $LN1@LoadFloat_
$LN83@LoadFloat_:
  000fc	c6 45 f9 ec	 mov	 BYTE PTR __k$[ebp+13], -20 ; ffffffecH
  00100	eb 46		 jmp	 SHORT $LN1@LoadFloat_
$LN84@LoadFloat_:
  00102	c6 45 f8 ed	 mov	 BYTE PTR __k$[ebp+12], -19 ; ffffffedH
  00106	eb 40		 jmp	 SHORT $LN1@LoadFloat_
$LN85@LoadFloat_:
  00108	c6 45 f7 ea	 mov	 BYTE PTR __k$[ebp+11], -22 ; ffffffeaH
  0010c	eb 3a		 jmp	 SHORT $LN1@LoadFloat_
$LN87@LoadFloat_:
  0010e	c6 45 f5 ec	 mov	 BYTE PTR __k$[ebp+9], -20 ; ffffffecH
  00112	eb 34		 jmp	 SHORT $LN1@LoadFloat_
$LN88@LoadFloat_:
  00114	c6 45 f4 ed	 mov	 BYTE PTR __k$[ebp+8], -19 ; ffffffedH
  00118	eb 2e		 jmp	 SHORT $LN1@LoadFloat_
$LN89@LoadFloat_:
  0011a	c6 45 f3 ea	 mov	 BYTE PTR __k$[ebp+7], -22 ; ffffffeaH
  0011e	eb 28		 jmp	 SHORT $LN1@LoadFloat_
$LN90@LoadFloat_:
  00120	c6 45 f2 eb	 mov	 BYTE PTR __k$[ebp+6], -21 ; ffffffebH
  00124	eb 22		 jmp	 SHORT $LN1@LoadFloat_
$LN91@LoadFloat_:
  00126	c6 45 f1 ec	 mov	 BYTE PTR __k$[ebp+5], -20 ; ffffffecH
  0012a	eb 1c		 jmp	 SHORT $LN1@LoadFloat_
$LN92@LoadFloat_:
  0012c	c6 45 f0 ed	 mov	 BYTE PTR __k$[ebp+4], -19 ; ffffffedH
  00130	eb 16		 jmp	 SHORT $LN1@LoadFloat_
$LN93@LoadFloat_:
  00132	c6 45 ef ea	 mov	 BYTE PTR __k$[ebp+3], -22 ; ffffffeaH
  00136	eb 10		 jmp	 SHORT $LN1@LoadFloat_
$LN94@LoadFloat_:
  00138	c6 45 ee eb	 mov	 BYTE PTR __k$[ebp+2], -21 ; ffffffebH
  0013c	eb 0a		 jmp	 SHORT $LN1@LoadFloat_
$LN95@LoadFloat_:
  0013e	c6 45 ed ec	 mov	 BYTE PTR __k$[ebp+1], -20 ; ffffffecH
  00142	eb 04		 jmp	 SHORT $LN1@LoadFloat_
$LN96@LoadFloat_:
  00144	c6 45 ec ed	 mov	 BYTE PTR __k$[ebp], -19	; ffffffedH
$LN1@LoadFloat_:
  00148	6a 02		 push	 2
  0014a	8d 45 ec	 lea	 eax, DWORD PTR __k$[ebp]
  0014d	c6 45 f6 00	 mov	 BYTE PTR __k$[ebp+10], 0
  00151	5a		 pop	 edx
$LL104@LoadFloat_:
  00152	81 30 ed ec eb
	ea		 xor	 DWORD PTR [eax], -353637139 ; eaebecedH
  00158	83 c0 04	 add	 eax, 4
  0015b	4a		 dec	 edx
  0015c	75 f4		 jne	 SHORT $LL104@LoadFloat_
  0015e	6a 08		 push	 8
  00160	58		 pop	 eax
$LL101@LoadFloat_:
  00161	8b c8		 mov	 ecx, eax
  00163	81 e1 03 00 00
	80		 and	 ecx, -2147483645	; 80000003H
  00169	79 05		 jns	 SHORT $LN111@LoadFloat_
  0016b	49		 dec	 ecx
  0016c	83 c9 fc	 or	 ecx, -4			; fffffffcH
  0016f	41		 inc	 ecx
$LN111@LoadFloat_:
  00170	b2 ed		 mov	 dl, -19			; ffffffedH
  00172	2a d1		 sub	 dl, cl
  00174	30 54 05 ec	 xor	 BYTE PTR __k$[ebp+eax], dl
  00178	40		 inc	 eax
  00179	83 f8 0a	 cmp	 eax, 10			; 0000000aH
  0017c	7c e3		 jl	 SHORT $LL101@LoadFloat_

; 137  : 		return LoadFloat(_k, f);

  0017e	f3 0f 10 45 0c	 movss	 xmm0, DWORD PTR _f$[ebp]
  00183	51		 push	 ecx
  00184	8d 45 ec	 lea	 eax, DWORD PTR __k$[ebp]
  00187	f3 0f 11 04 24	 movss	 DWORD PTR [esp], xmm0
  0018c	50		 push	 eax
  0018d	8b ce		 mov	 ecx, esi
  0018f	ff 15 00 00 00
	00		 call	 DWORD PTR __imp_?LoadFloat@ioINILoader@@QAEMPBDM@Z

; 138  : 	}

  00195	8b 4d fc	 mov	 ecx, DWORD PTR __$ArrayPad$[ebp]
  00198	33 cd		 xor	 ecx, ebp
  0019a	5e		 pop	 esi
  0019b	e8 00 00 00 00	 call	 @__security_check_cookie@4
  001a0	c9		 leave
  001a1	c2 08 00	 ret	 8
??$LoadFloat_e@$0L@@ioINILoader@@QAEMAAY0L@$$CBDM@Z ENDP ; ioINILoader::LoadFloat_e<11>
_TEXT	ENDS
PUBLIC	__$ArrayPad$
PUBLIC	??$LoadBool_e@$0P@@ioINILoader@@QAE_NAAY0P@$$CBD_N@Z ; ioINILoader::LoadBool_e<15>
EXTRN	__imp_?LoadBool@ioINILoader@@QAE_NPBD_N@Z:PROC
; Function compile flags: /Ogsp
;	COMDAT ??$LoadBool_e@$0P@@ioINILoader@@QAE_NAAY0P@$$CBD_N@Z
_TEXT	SEGMENT
__k$ = -24						; size = 15
__$ArrayPad$ = -4					; size = 4
_k$ = 8							; size = 4
_b$ = 12						; size = 1
??$LoadBool_e@$0P@@ioINILoader@@QAE_NAAY0P@$$CBD_N@Z PROC ; ioINILoader::LoadBool_e<15>, COMDAT
; _this$ = ecx

; 101  : 	{

  00000	55		 push	 ebp
  00001	8b ec		 mov	 ebp, esp
  00003	83 ec 18	 sub	 esp, 24			; 00000018H
  00006	a1 00 00 00 00	 mov	 eax, DWORD PTR ___security_cookie
  0000b	33 c5		 xor	 eax, ebp
  0000d	89 45 fc	 mov	 DWORD PTR __$ArrayPad$[ebp], eax
  00010	8b 45 08	 mov	 eax, DWORD PTR _k$[ebp]

; 102  : 		_ENCSTR(k, _k);

  00013	8a 10		 mov	 dl, BYTE PTR [eax]
  00015	56		 push	 esi
  00016	8b f1		 mov	 esi, ecx
  00018	84 d2		 test	 dl, dl
  0001a	0f 84 75 01 00
	00		 je	 $LN96@LoadBool_e
  00020	80 f2 ed	 xor	 dl, -19			; ffffffedH
  00023	88 55 e8	 mov	 BYTE PTR __k$[ebp], dl
  00026	8a 50 01	 mov	 dl, BYTE PTR [eax+1]
  00029	84 d2		 test	 dl, dl
  0002b	0f 84 5e 01 00
	00		 je	 $LN95@LoadBool_e
  00031	b1 ec		 mov	 cl, -20			; ffffffecH
  00033	32 d1		 xor	 dl, cl
  00035	88 55 e9	 mov	 BYTE PTR __k$[ebp+1], dl
  00038	8a 50 02	 mov	 dl, BYTE PTR [eax+2]
  0003b	84 d2		 test	 dl, dl
  0003d	0f 84 46 01 00
	00		 je	 $LN94@LoadBool_e
  00043	80 f2 eb	 xor	 dl, -21			; ffffffebH
  00046	88 55 ea	 mov	 BYTE PTR __k$[ebp+2], dl
  00049	8a 50 03	 mov	 dl, BYTE PTR [eax+3]
  0004c	84 d2		 test	 dl, dl
  0004e	0f 84 2f 01 00
	00		 je	 $LN93@LoadBool_e
  00054	80 f2 ea	 xor	 dl, -22			; ffffffeaH
  00057	88 55 eb	 mov	 BYTE PTR __k$[ebp+3], dl
  0005a	8a 50 04	 mov	 dl, BYTE PTR [eax+4]
  0005d	84 d2		 test	 dl, dl
  0005f	0f 84 18 01 00
	00		 je	 $LN92@LoadBool_e
  00065	80 f2 ed	 xor	 dl, -19			; ffffffedH
  00068	88 55 ec	 mov	 BYTE PTR __k$[ebp+4], dl
  0006b	8a 50 05	 mov	 dl, BYTE PTR [eax+5]
  0006e	84 d2		 test	 dl, dl
  00070	0f 84 02 01 00
	00		 je	 $LN91@LoadBool_e
  00076	32 d1		 xor	 dl, cl
  00078	88 55 ed	 mov	 BYTE PTR __k$[ebp+5], dl
  0007b	8a 50 06	 mov	 dl, BYTE PTR [eax+6]
  0007e	84 d2		 test	 dl, dl
  00080	0f 84 ec 00 00
	00		 je	 $LN90@LoadBool_e
  00086	80 f2 eb	 xor	 dl, -21			; ffffffebH
  00089	88 55 ee	 mov	 BYTE PTR __k$[ebp+6], dl
  0008c	8a 50 07	 mov	 dl, BYTE PTR [eax+7]
  0008f	84 d2		 test	 dl, dl
  00091	0f 84 d5 00 00
	00		 je	 $LN89@LoadBool_e
  00097	80 f2 ea	 xor	 dl, -22			; ffffffeaH
  0009a	88 55 ef	 mov	 BYTE PTR __k$[ebp+7], dl
  0009d	8a 50 08	 mov	 dl, BYTE PTR [eax+8]
  000a0	84 d2		 test	 dl, dl
  000a2	0f 84 be 00 00
	00		 je	 $LN88@LoadBool_e
  000a8	80 f2 ed	 xor	 dl, -19			; ffffffedH
  000ab	88 55 f0	 mov	 BYTE PTR __k$[ebp+8], dl
  000ae	8a 50 09	 mov	 dl, BYTE PTR [eax+9]
  000b1	84 d2		 test	 dl, dl
  000b3	0f 84 a8 00 00
	00		 je	 $LN87@LoadBool_e
  000b9	32 d1		 xor	 dl, cl
  000bb	88 55 f1	 mov	 BYTE PTR __k$[ebp+9], dl
  000be	8a 50 0a	 mov	 dl, BYTE PTR [eax+10]
  000c1	84 d2		 test	 dl, dl
  000c3	0f 84 92 00 00
	00		 je	 $LN86@LoadBool_e
  000c9	80 f2 eb	 xor	 dl, -21			; ffffffebH
  000cc	88 55 f2	 mov	 BYTE PTR __k$[ebp+10], dl
  000cf	8a 50 0b	 mov	 dl, BYTE PTR [eax+11]
  000d2	84 d2		 test	 dl, dl
  000d4	74 7f		 je	 SHORT $LN85@LoadBool_e
  000d6	80 f2 ea	 xor	 dl, -22			; ffffffeaH
  000d9	88 55 f3	 mov	 BYTE PTR __k$[ebp+11], dl
  000dc	8a 50 0c	 mov	 dl, BYTE PTR [eax+12]
  000df	84 d2		 test	 dl, dl
  000e1	74 6c		 je	 SHORT $LN84@LoadBool_e
  000e3	80 f2 ed	 xor	 dl, -19			; ffffffedH
  000e6	88 55 f4	 mov	 BYTE PTR __k$[ebp+12], dl
  000e9	8a 50 0d	 mov	 dl, BYTE PTR [eax+13]
  000ec	84 d2		 test	 dl, dl
  000ee	74 5a		 je	 SHORT $LN83@LoadBool_e
  000f0	32 d1		 xor	 dl, cl
  000f2	80 78 0e 00	 cmp	 BYTE PTR [eax+14], 0
  000f6	88 55 f5	 mov	 BYTE PTR __k$[ebp+13], dl
  000f9	0f 84 9a 00 00
	00		 je	 $LN1@LoadBool_e
  000ff	8a 50 0f	 mov	 dl, BYTE PTR [eax+15]
  00102	84 d2		 test	 dl, dl
  00104	74 3e		 je	 SHORT $LN81@LoadBool_e
  00106	80 f2 ea	 xor	 dl, -22			; ffffffeaH
  00109	88 55 f7	 mov	 BYTE PTR __k$[ebp+15], dl
  0010c	8a 50 10	 mov	 dl, BYTE PTR [eax+16]
  0010f	84 d2		 test	 dl, dl
  00111	74 2b		 je	 SHORT $LN80@LoadBool_e
  00113	80 f2 ed	 xor	 dl, -19			; ffffffedH
  00116	88 55 f8	 mov	 BYTE PTR __k$[ebp+16], dl
  00119	8a 50 11	 mov	 dl, BYTE PTR [eax+17]
  0011c	84 d2		 test	 dl, dl
  0011e	74 19		 je	 SHORT $LN79@LoadBool_e
  00120	8a 40 12	 mov	 al, BYTE PTR [eax+18]
  00123	32 d1		 xor	 dl, cl
  00125	88 55 f9	 mov	 BYTE PTR __k$[ebp+17], dl
  00128	84 c0		 test	 al, al
  0012a	74 07		 je	 SHORT $LN78@LoadBool_e
  0012c	34 eb		 xor	 al, -21			; ffffffebH
  0012e	88 45 fa	 mov	 BYTE PTR __k$[ebp+18], al
  00131	eb 66		 jmp	 SHORT $LN1@LoadBool_e
$LN78@LoadBool_e:
  00133	c6 45 fa eb	 mov	 BYTE PTR __k$[ebp+18], -21 ; ffffffebH
  00137	eb 60		 jmp	 SHORT $LN1@LoadBool_e
$LN79@LoadBool_e:
  00139	88 4d f9	 mov	 BYTE PTR __k$[ebp+17], cl
  0013c	eb 5b		 jmp	 SHORT $LN1@LoadBool_e
$LN80@LoadBool_e:
  0013e	c6 45 f8 ed	 mov	 BYTE PTR __k$[ebp+16], -19 ; ffffffedH
  00142	eb 55		 jmp	 SHORT $LN1@LoadBool_e
$LN81@LoadBool_e:
  00144	c6 45 f7 ea	 mov	 BYTE PTR __k$[ebp+15], -22 ; ffffffeaH
  00148	eb 4f		 jmp	 SHORT $LN1@LoadBool_e
$LN83@LoadBool_e:
  0014a	88 4d f5	 mov	 BYTE PTR __k$[ebp+13], cl
  0014d	eb 4a		 jmp	 SHORT $LN1@LoadBool_e
$LN84@LoadBool_e:
  0014f	c6 45 f4 ed	 mov	 BYTE PTR __k$[ebp+12], -19 ; ffffffedH
  00153	eb 44		 jmp	 SHORT $LN1@LoadBool_e
$LN85@LoadBool_e:
  00155	c6 45 f3 ea	 mov	 BYTE PTR __k$[ebp+11], -22 ; ffffffeaH
  00159	eb 3e		 jmp	 SHORT $LN1@LoadBool_e
$LN86@LoadBool_e:
  0015b	c6 45 f2 eb	 mov	 BYTE PTR __k$[ebp+10], -21 ; ffffffebH
  0015f	eb 38		 jmp	 SHORT $LN1@LoadBool_e
$LN87@LoadBool_e:
  00161	88 4d f1	 mov	 BYTE PTR __k$[ebp+9], cl
  00164	eb 33		 jmp	 SHORT $LN1@LoadBool_e
$LN88@LoadBool_e:
  00166	c6 45 f0 ed	 mov	 BYTE PTR __k$[ebp+8], -19 ; ffffffedH
  0016a	eb 2d		 jmp	 SHORT $LN1@LoadBool_e
$LN89@LoadBool_e:
  0016c	c6 45 ef ea	 mov	 BYTE PTR __k$[ebp+7], -22 ; ffffffeaH
  00170	eb 27		 jmp	 SHORT $LN1@LoadBool_e
$LN90@LoadBool_e:
  00172	c6 45 ee eb	 mov	 BYTE PTR __k$[ebp+6], -21 ; ffffffebH
  00176	eb 21		 jmp	 SHORT $LN1@LoadBool_e
$LN91@LoadBool_e:
  00178	88 4d ed	 mov	 BYTE PTR __k$[ebp+5], cl
  0017b	eb 1c		 jmp	 SHORT $LN1@LoadBool_e
$LN92@LoadBool_e:
  0017d	c6 45 ec ed	 mov	 BYTE PTR __k$[ebp+4], -19 ; ffffffedH
  00181	eb 16		 jmp	 SHORT $LN1@LoadBool_e
$LN93@LoadBool_e:
  00183	c6 45 eb ea	 mov	 BYTE PTR __k$[ebp+3], -22 ; ffffffeaH
  00187	eb 10		 jmp	 SHORT $LN1@LoadBool_e
$LN94@LoadBool_e:
  00189	c6 45 ea eb	 mov	 BYTE PTR __k$[ebp+2], -21 ; ffffffebH
  0018d	eb 0a		 jmp	 SHORT $LN1@LoadBool_e
$LN95@LoadBool_e:
  0018f	c6 45 e9 ec	 mov	 BYTE PTR __k$[ebp+1], -20 ; ffffffecH
  00193	eb 04		 jmp	 SHORT $LN1@LoadBool_e
$LN96@LoadBool_e:
  00195	c6 45 e8 ed	 mov	 BYTE PTR __k$[ebp], -19	; ffffffedH
$LN1@LoadBool_e:
  00199	6a 03		 push	 3
  0019b	8d 45 e8	 lea	 eax, DWORD PTR __k$[ebp]
  0019e	c6 45 f6 00	 mov	 BYTE PTR __k$[ebp+14], 0
  001a2	5a		 pop	 edx
$LL104@LoadBool_e:
  001a3	81 30 ed ec eb
	ea		 xor	 DWORD PTR [eax], -353637139 ; eaebecedH
  001a9	83 c0 04	 add	 eax, 4
  001ac	4a		 dec	 edx
  001ad	75 f4		 jne	 SHORT $LL104@LoadBool_e
  001af	6a 0c		 push	 12			; 0000000cH
  001b1	58		 pop	 eax
$LL101@LoadBool_e:
  001b2	8b c8		 mov	 ecx, eax
  001b4	81 e1 03 00 00
	80		 and	 ecx, -2147483645	; 80000003H
  001ba	79 05		 jns	 SHORT $LN111@LoadBool_e
  001bc	49		 dec	 ecx
  001bd	83 c9 fc	 or	 ecx, -4			; fffffffcH
  001c0	41		 inc	 ecx
$LN111@LoadBool_e:
  001c1	b2 ed		 mov	 dl, -19			; ffffffedH
  001c3	2a d1		 sub	 dl, cl
  001c5	30 54 05 e8	 xor	 BYTE PTR __k$[ebp+eax], dl
  001c9	40		 inc	 eax
  001ca	83 f8 0e	 cmp	 eax, 14			; 0000000eH
  001cd	7c e3		 jl	 SHORT $LL101@LoadBool_e

; 103  : 		return LoadBool(_k, b);

  001cf	ff 75 0c	 push	 DWORD PTR _b$[ebp]
  001d2	8d 45 e8	 lea	 eax, DWORD PTR __k$[ebp]
  001d5	50		 push	 eax
  001d6	8b ce		 mov	 ecx, esi
  001d8	ff 15 00 00 00
	00		 call	 DWORD PTR __imp_?LoadBool@ioINILoader@@QAE_NPBD_N@Z

; 104  : 	}

  001de	8b 4d fc	 mov	 ecx, DWORD PTR __$ArrayPad$[ebp]
  001e1	33 cd		 xor	 ecx, ebp
  001e3	5e		 pop	 esi
  001e4	e8 00 00 00 00	 call	 @__security_check_cookie@4
  001e9	c9		 leave
  001ea	c2 08 00	 ret	 8
??$LoadBool_e@$0P@@ioINILoader@@QAE_NAAY0P@$$CBD_N@Z ENDP ; ioINILoader::LoadBool_e<15>
_TEXT	ENDS
PUBLIC	__$ArrayPad$
PUBLIC	??$LoadBool_e@$0N@@ioINILoader@@QAE_NAAY0N@$$CBD_N@Z ; ioINILoader::LoadBool_e<13>
; Function compile flags: /Ogsp
;	COMDAT ??$LoadBool_e@$0N@@ioINILoader@@QAE_NAAY0N@$$CBD_N@Z
_TEXT	SEGMENT
__k$ = -24						; size = 13
__$ArrayPad$ = -4					; size = 4
_k$ = 8							; size = 4
_b$ = 12						; size = 1
??$LoadBool_e@$0N@@ioINILoader@@QAE_NAAY0N@$$CBD_N@Z PROC ; ioINILoader::LoadBool_e<13>, COMDAT
; _this$ = ecx

; 101  : 	{

  00000	55		 push	 ebp
  00001	8b ec		 mov	 ebp, esp
  00003	83 ec 18	 sub	 esp, 24			; 00000018H
  00006	a1 00 00 00 00	 mov	 eax, DWORD PTR ___security_cookie
  0000b	33 c5		 xor	 eax, ebp
  0000d	89 45 fc	 mov	 DWORD PTR __$ArrayPad$[ebp], eax
  00010	8b 45 08	 mov	 eax, DWORD PTR _k$[ebp]

; 102  : 		_ENCSTR(k, _k);

  00013	8a 10		 mov	 dl, BYTE PTR [eax]
  00015	56		 push	 esi
  00016	8b f1		 mov	 esi, ecx
  00018	84 d2		 test	 dl, dl
  0001a	0f 84 4d 01 00
	00		 je	 $LN96@LoadBool_e@2
  00020	80 f2 ed	 xor	 dl, -19			; ffffffedH
  00023	88 55 e8	 mov	 BYTE PTR __k$[ebp], dl
  00026	8a 50 01	 mov	 dl, BYTE PTR [eax+1]
  00029	84 d2		 test	 dl, dl
  0002b	0f 84 36 01 00
	00		 je	 $LN95@LoadBool_e@2
  00031	b1 ec		 mov	 cl, -20			; ffffffecH
  00033	32 d1		 xor	 dl, cl
  00035	88 55 e9	 mov	 BYTE PTR __k$[ebp+1], dl
  00038	8a 50 02	 mov	 dl, BYTE PTR [eax+2]
  0003b	84 d2		 test	 dl, dl
  0003d	0f 84 1e 01 00
	00		 je	 $LN94@LoadBool_e@2
  00043	80 f2 eb	 xor	 dl, -21			; ffffffebH
  00046	88 55 ea	 mov	 BYTE PTR __k$[ebp+2], dl
  00049	8a 50 03	 mov	 dl, BYTE PTR [eax+3]
  0004c	84 d2		 test	 dl, dl
  0004e	0f 84 07 01 00
	00		 je	 $LN93@LoadBool_e@2
  00054	80 f2 ea	 xor	 dl, -22			; ffffffeaH
  00057	88 55 eb	 mov	 BYTE PTR __k$[ebp+3], dl
  0005a	8a 50 04	 mov	 dl, BYTE PTR [eax+4]
  0005d	84 d2		 test	 dl, dl
  0005f	0f 84 f0 00 00
	00		 je	 $LN92@LoadBool_e@2
  00065	80 f2 ed	 xor	 dl, -19			; ffffffedH
  00068	88 55 ec	 mov	 BYTE PTR __k$[ebp+4], dl
  0006b	8a 50 05	 mov	 dl, BYTE PTR [eax+5]
  0006e	84 d2		 test	 dl, dl
  00070	0f 84 da 00 00
	00		 je	 $LN91@LoadBool_e@2
  00076	32 d1		 xor	 dl, cl
  00078	88 55 ed	 mov	 BYTE PTR __k$[ebp+5], dl
  0007b	8a 50 06	 mov	 dl, BYTE PTR [eax+6]
  0007e	84 d2		 test	 dl, dl
  00080	0f 84 c4 00 00
	00		 je	 $LN90@LoadBool_e@2
  00086	80 f2 eb	 xor	 dl, -21			; ffffffebH
  00089	88 55 ee	 mov	 BYTE PTR __k$[ebp+6], dl
  0008c	8a 50 07	 mov	 dl, BYTE PTR [eax+7]
  0008f	84 d2		 test	 dl, dl
  00091	0f 84 ad 00 00
	00		 je	 $LN89@LoadBool_e@2
  00097	80 f2 ea	 xor	 dl, -22			; ffffffeaH
  0009a	88 55 ef	 mov	 BYTE PTR __k$[ebp+7], dl
  0009d	8a 50 08	 mov	 dl, BYTE PTR [eax+8]
  000a0	84 d2		 test	 dl, dl
  000a2	0f 84 96 00 00
	00		 je	 $LN88@LoadBool_e@2
  000a8	80 f2 ed	 xor	 dl, -19			; ffffffedH
  000ab	88 55 f0	 mov	 BYTE PTR __k$[ebp+8], dl
  000ae	8a 50 09	 mov	 dl, BYTE PTR [eax+9]
  000b1	84 d2		 test	 dl, dl
  000b3	0f 84 80 00 00
	00		 je	 $LN87@LoadBool_e@2
  000b9	32 d1		 xor	 dl, cl
  000bb	88 55 f1	 mov	 BYTE PTR __k$[ebp+9], dl
  000be	8a 50 0a	 mov	 dl, BYTE PTR [eax+10]
  000c1	84 d2		 test	 dl, dl
  000c3	74 6e		 je	 SHORT $LN86@LoadBool_e@2
  000c5	80 f2 eb	 xor	 dl, -21			; ffffffebH
  000c8	88 55 f2	 mov	 BYTE PTR __k$[ebp+10], dl
  000cb	8a 50 0b	 mov	 dl, BYTE PTR [eax+11]
  000ce	84 d2		 test	 dl, dl
  000d0	74 5b		 je	 SHORT $LN85@LoadBool_e@2
  000d2	80 f2 ea	 xor	 dl, -22			; ffffffeaH
  000d5	80 78 0c 00	 cmp	 BYTE PTR [eax+12], 0
  000d9	88 55 f3	 mov	 BYTE PTR __k$[ebp+11], dl
  000dc	0f 84 8f 00 00
	00		 je	 $LN1@LoadBool_e@2
  000e2	8a 50 0d	 mov	 dl, BYTE PTR [eax+13]
  000e5	84 d2		 test	 dl, dl
  000e7	74 3f		 je	 SHORT $LN83@LoadBool_e@2
  000e9	32 d1		 xor	 dl, cl
  000eb	88 55 f5	 mov	 BYTE PTR __k$[ebp+13], dl
  000ee	8a 50 0e	 mov	 dl, BYTE PTR [eax+14]
  000f1	84 d2		 test	 dl, dl
  000f3	74 2d		 je	 SHORT $LN82@LoadBool_e@2
  000f5	80 f2 eb	 xor	 dl, -21			; ffffffebH
  000f8	88 55 f6	 mov	 BYTE PTR __k$[ebp+14], dl
  000fb	8a 50 0f	 mov	 dl, BYTE PTR [eax+15]
  000fe	84 d2		 test	 dl, dl
  00100	74 1a		 je	 SHORT $LN81@LoadBool_e@2
  00102	8a 40 10	 mov	 al, BYTE PTR [eax+16]
  00105	80 f2 ea	 xor	 dl, -22			; ffffffeaH
  00108	88 55 f7	 mov	 BYTE PTR __k$[ebp+15], dl
  0010b	84 c0		 test	 al, al
  0010d	74 07		 je	 SHORT $LN80@LoadBool_e@2
  0010f	34 ed		 xor	 al, -19			; ffffffedH
  00111	88 45 f8	 mov	 BYTE PTR __k$[ebp+16], al
  00114	eb 5b		 jmp	 SHORT $LN1@LoadBool_e@2
$LN80@LoadBool_e@2:
  00116	c6 45 f8 ed	 mov	 BYTE PTR __k$[ebp+16], -19 ; ffffffedH
  0011a	eb 55		 jmp	 SHORT $LN1@LoadBool_e@2
$LN81@LoadBool_e@2:
  0011c	c6 45 f7 ea	 mov	 BYTE PTR __k$[ebp+15], -22 ; ffffffeaH
  00120	eb 4f		 jmp	 SHORT $LN1@LoadBool_e@2
$LN82@LoadBool_e@2:
  00122	c6 45 f6 eb	 mov	 BYTE PTR __k$[ebp+14], -21 ; ffffffebH
  00126	eb 49		 jmp	 SHORT $LN1@LoadBool_e@2
$LN83@LoadBool_e@2:
  00128	88 4d f5	 mov	 BYTE PTR __k$[ebp+13], cl
  0012b	eb 44		 jmp	 SHORT $LN1@LoadBool_e@2
$LN85@LoadBool_e@2:
  0012d	c6 45 f3 ea	 mov	 BYTE PTR __k$[ebp+11], -22 ; ffffffeaH
  00131	eb 3e		 jmp	 SHORT $LN1@LoadBool_e@2
$LN86@LoadBool_e@2:
  00133	c6 45 f2 eb	 mov	 BYTE PTR __k$[ebp+10], -21 ; ffffffebH
  00137	eb 38		 jmp	 SHORT $LN1@LoadBool_e@2
$LN87@LoadBool_e@2:
  00139	88 4d f1	 mov	 BYTE PTR __k$[ebp+9], cl
  0013c	eb 33		 jmp	 SHORT $LN1@LoadBool_e@2
$LN88@LoadBool_e@2:
  0013e	c6 45 f0 ed	 mov	 BYTE PTR __k$[ebp+8], -19 ; ffffffedH
  00142	eb 2d		 jmp	 SHORT $LN1@LoadBool_e@2
$LN89@LoadBool_e@2:
  00144	c6 45 ef ea	 mov	 BYTE PTR __k$[ebp+7], -22 ; ffffffeaH
  00148	eb 27		 jmp	 SHORT $LN1@LoadBool_e@2
$LN90@LoadBool_e@2:
  0014a	c6 45 ee eb	 mov	 BYTE PTR __k$[ebp+6], -21 ; ffffffebH
  0014e	eb 21		 jmp	 SHORT $LN1@LoadBool_e@2
$LN91@LoadBool_e@2:
  00150	88 4d ed	 mov	 BYTE PTR __k$[ebp+5], cl
  00153	eb 1c		 jmp	 SHORT $LN1@LoadBool_e@2
$LN92@LoadBool_e@2:
  00155	c6 45 ec ed	 mov	 BYTE PTR __k$[ebp+4], -19 ; ffffffedH
  00159	eb 16		 jmp	 SHORT $LN1@LoadBool_e@2
$LN93@LoadBool_e@2:
  0015b	c6 45 eb ea	 mov	 BYTE PTR __k$[ebp+3], -22 ; ffffffeaH
  0015f	eb 10		 jmp	 SHORT $LN1@LoadBool_e@2
$LN94@LoadBool_e@2:
  00161	c6 45 ea eb	 mov	 BYTE PTR __k$[ebp+2], -21 ; ffffffebH
  00165	eb 0a		 jmp	 SHORT $LN1@LoadBool_e@2
$LN95@LoadBool_e@2:
  00167	c6 45 e9 ec	 mov	 BYTE PTR __k$[ebp+1], -20 ; ffffffecH
  0016b	eb 04		 jmp	 SHORT $LN1@LoadBool_e@2
$LN96@LoadBool_e@2:
  0016d	c6 45 e8 ed	 mov	 BYTE PTR __k$[ebp], -19	; ffffffedH
$LN1@LoadBool_e@2:
  00171	6a 03		 push	 3
  00173	8d 45 e8	 lea	 eax, DWORD PTR __k$[ebp]
  00176	c6 45 f4 00	 mov	 BYTE PTR __k$[ebp+12], 0
  0017a	5a		 pop	 edx
$LL104@LoadBool_e@2:
  0017b	81 30 ed ec eb
	ea		 xor	 DWORD PTR [eax], -353637139 ; eaebecedH
  00181	83 c0 04	 add	 eax, 4
  00184	4a		 dec	 edx
  00185	75 f4		 jne	 SHORT $LL104@LoadBool_e@2

; 103  : 		return LoadBool(_k, b);

  00187	ff 75 0c	 push	 DWORD PTR _b$[ebp]
  0018a	8d 45 e8	 lea	 eax, DWORD PTR __k$[ebp]
  0018d	50		 push	 eax
  0018e	8b ce		 mov	 ecx, esi
  00190	ff 15 00 00 00
	00		 call	 DWORD PTR __imp_?LoadBool@ioINILoader@@QAE_NPBD_N@Z

; 104  : 	}

  00196	8b 4d fc	 mov	 ecx, DWORD PTR __$ArrayPad$[ebp]
  00199	33 cd		 xor	 ecx, ebp
  0019b	5e		 pop	 esi
  0019c	e8 00 00 00 00	 call	 @__security_check_cookie@4
  001a1	c9		 leave
  001a2	c2 08 00	 ret	 8
??$LoadBool_e@$0N@@ioINILoader@@QAE_NAAY0N@$$CBD_N@Z ENDP ; ioINILoader::LoadBool_e<13>
_TEXT	ENDS
PUBLIC	__$ArrayPad$
PUBLIC	??$LoadBool_e@$0BD@@ioINILoader@@QAE_NAAY0BD@$$CBD_N@Z ; ioINILoader::LoadBool_e<19>
; Function compile flags: /Ogsp
;	COMDAT ??$LoadBool_e@$0BD@@ioINILoader@@QAE_NAAY0BD@$$CBD_N@Z
_TEXT	SEGMENT
__k$ = -28						; size = 19
__$ArrayPad$ = -4					; size = 4
_k$ = 8							; size = 4
_b$ = 12						; size = 1
??$LoadBool_e@$0BD@@ioINILoader@@QAE_NAAY0BD@$$CBD_N@Z PROC ; ioINILoader::LoadBool_e<19>, COMDAT
; _this$ = ecx

; 101  : 	{

  00000	55		 push	 ebp
  00001	8b ec		 mov	 ebp, esp
  00003	83 ec 1c	 sub	 esp, 28			; 0000001cH
  00006	a1 00 00 00 00	 mov	 eax, DWORD PTR ___security_cookie
  0000b	33 c5		 xor	 eax, ebp
  0000d	89 45 fc	 mov	 DWORD PTR __$ArrayPad$[ebp], eax
  00010	8b 45 08	 mov	 eax, DWORD PTR _k$[ebp]

; 102  : 		_ENCSTR(k, _k);

  00013	8a 10		 mov	 dl, BYTE PTR [eax]
  00015	56		 push	 esi
  00016	8b f1		 mov	 esi, ecx
  00018	84 d2		 test	 dl, dl
  0001a	0f 84 cf 01 00
	00		 je	 $LN96@LoadBool_e@3
  00020	80 f2 ed	 xor	 dl, -19			; ffffffedH
  00023	88 55 e4	 mov	 BYTE PTR __k$[ebp], dl
  00026	8a 50 01	 mov	 dl, BYTE PTR [eax+1]
  00029	84 d2		 test	 dl, dl
  0002b	0f 84 b8 01 00
	00		 je	 $LN95@LoadBool_e@3
  00031	b1 ec		 mov	 cl, -20			; ffffffecH
  00033	32 d1		 xor	 dl, cl
  00035	88 55 e5	 mov	 BYTE PTR __k$[ebp+1], dl
  00038	8a 50 02	 mov	 dl, BYTE PTR [eax+2]
  0003b	84 d2		 test	 dl, dl
  0003d	0f 84 a0 01 00
	00		 je	 $LN94@LoadBool_e@3
  00043	80 f2 eb	 xor	 dl, -21			; ffffffebH
  00046	88 55 e6	 mov	 BYTE PTR __k$[ebp+2], dl
  00049	8a 50 03	 mov	 dl, BYTE PTR [eax+3]
  0004c	84 d2		 test	 dl, dl
  0004e	0f 84 89 01 00
	00		 je	 $LN93@LoadBool_e@3
  00054	80 f2 ea	 xor	 dl, -22			; ffffffeaH
  00057	88 55 e7	 mov	 BYTE PTR __k$[ebp+3], dl
  0005a	8a 50 04	 mov	 dl, BYTE PTR [eax+4]
  0005d	84 d2		 test	 dl, dl
  0005f	0f 84 72 01 00
	00		 je	 $LN92@LoadBool_e@3
  00065	80 f2 ed	 xor	 dl, -19			; ffffffedH
  00068	88 55 e8	 mov	 BYTE PTR __k$[ebp+4], dl
  0006b	8a 50 05	 mov	 dl, BYTE PTR [eax+5]
  0006e	84 d2		 test	 dl, dl
  00070	0f 84 5c 01 00
	00		 je	 $LN91@LoadBool_e@3
  00076	32 d1		 xor	 dl, cl
  00078	88 55 e9	 mov	 BYTE PTR __k$[ebp+5], dl
  0007b	8a 50 06	 mov	 dl, BYTE PTR [eax+6]
  0007e	84 d2		 test	 dl, dl
  00080	0f 84 46 01 00
	00		 je	 $LN90@LoadBool_e@3
  00086	80 f2 eb	 xor	 dl, -21			; ffffffebH
  00089	88 55 ea	 mov	 BYTE PTR __k$[ebp+6], dl
  0008c	8a 50 07	 mov	 dl, BYTE PTR [eax+7]
  0008f	84 d2		 test	 dl, dl
  00091	0f 84 2f 01 00
	00		 je	 $LN89@LoadBool_e@3
  00097	80 f2 ea	 xor	 dl, -22			; ffffffeaH
  0009a	88 55 eb	 mov	 BYTE PTR __k$[ebp+7], dl
  0009d	8a 50 08	 mov	 dl, BYTE PTR [eax+8]
  000a0	84 d2		 test	 dl, dl
  000a2	0f 84 18 01 00
	00		 je	 $LN88@LoadBool_e@3
  000a8	80 f2 ed	 xor	 dl, -19			; ffffffedH
  000ab	88 55 ec	 mov	 BYTE PTR __k$[ebp+8], dl
  000ae	8a 50 09	 mov	 dl, BYTE PTR [eax+9]
  000b1	84 d2		 test	 dl, dl
  000b3	0f 84 02 01 00
	00		 je	 $LN87@LoadBool_e@3
  000b9	32 d1		 xor	 dl, cl
  000bb	88 55 ed	 mov	 BYTE PTR __k$[ebp+9], dl
  000be	8a 50 0a	 mov	 dl, BYTE PTR [eax+10]
  000c1	84 d2		 test	 dl, dl
  000c3	0f 84 ec 00 00
	00		 je	 $LN86@LoadBool_e@3
  000c9	80 f2 eb	 xor	 dl, -21			; ffffffebH
  000cc	88 55 ee	 mov	 BYTE PTR __k$[ebp+10], dl
  000cf	8a 50 0b	 mov	 dl, BYTE PTR [eax+11]
  000d2	84 d2		 test	 dl, dl
  000d4	0f 84 d5 00 00
	00		 je	 $LN85@LoadBool_e@3
  000da	80 f2 ea	 xor	 dl, -22			; ffffffeaH
  000dd	88 55 ef	 mov	 BYTE PTR __k$[ebp+11], dl
  000e0	8a 50 0c	 mov	 dl, BYTE PTR [eax+12]
  000e3	84 d2		 test	 dl, dl
  000e5	0f 84 be 00 00
	00		 je	 $LN84@LoadBool_e@3
  000eb	80 f2 ed	 xor	 dl, -19			; ffffffedH
  000ee	88 55 f0	 mov	 BYTE PTR __k$[ebp+12], dl
  000f1	8a 50 0d	 mov	 dl, BYTE PTR [eax+13]
  000f4	84 d2		 test	 dl, dl
  000f6	0f 84 a8 00 00
	00		 je	 $LN83@LoadBool_e@3
  000fc	32 d1		 xor	 dl, cl
  000fe	88 55 f1	 mov	 BYTE PTR __k$[ebp+13], dl
  00101	8a 50 0e	 mov	 dl, BYTE PTR [eax+14]
  00104	84 d2		 test	 dl, dl
  00106	0f 84 92 00 00
	00		 je	 $LN82@LoadBool_e@3
  0010c	80 f2 eb	 xor	 dl, -21			; ffffffebH
  0010f	88 55 f2	 mov	 BYTE PTR __k$[ebp+14], dl
  00112	8a 50 0f	 mov	 dl, BYTE PTR [eax+15]
  00115	84 d2		 test	 dl, dl
  00117	74 7f		 je	 SHORT $LN81@LoadBool_e@3
  00119	80 f2 ea	 xor	 dl, -22			; ffffffeaH
  0011c	88 55 f3	 mov	 BYTE PTR __k$[ebp+15], dl
  0011f	8a 50 10	 mov	 dl, BYTE PTR [eax+16]
  00122	84 d2		 test	 dl, dl
  00124	74 6c		 je	 SHORT $LN80@LoadBool_e@3
  00126	80 f2 ed	 xor	 dl, -19			; ffffffedH
  00129	88 55 f4	 mov	 BYTE PTR __k$[ebp+16], dl
  0012c	8a 50 11	 mov	 dl, BYTE PTR [eax+17]
  0012f	84 d2		 test	 dl, dl
  00131	74 5a		 je	 SHORT $LN79@LoadBool_e@3
  00133	32 d1		 xor	 dl, cl
  00135	80 78 12 00	 cmp	 BYTE PTR [eax+18], 0
  00139	88 55 f5	 mov	 BYTE PTR __k$[ebp+17], dl
  0013c	0f 84 b1 00 00
	00		 je	 $LN1@LoadBool_e@3
  00142	8a 50 13	 mov	 dl, BYTE PTR [eax+19]
  00145	84 d2		 test	 dl, dl
  00147	74 3e		 je	 SHORT $LN77@LoadBool_e@3
  00149	80 f2 ea	 xor	 dl, -22			; ffffffeaH
  0014c	88 55 f7	 mov	 BYTE PTR __k$[ebp+19], dl
  0014f	8a 50 14	 mov	 dl, BYTE PTR [eax+20]
  00152	84 d2		 test	 dl, dl
  00154	74 2b		 je	 SHORT $LN76@LoadBool_e@3
  00156	80 f2 ed	 xor	 dl, -19			; ffffffedH
  00159	88 55 f8	 mov	 BYTE PTR __k$[ebp+20], dl
  0015c	8a 50 15	 mov	 dl, BYTE PTR [eax+21]
  0015f	84 d2		 test	 dl, dl
  00161	74 19		 je	 SHORT $LN75@LoadBool_e@3
  00163	8a 40 16	 mov	 al, BYTE PTR [eax+22]
  00166	32 d1		 xor	 dl, cl
  00168	88 55 f9	 mov	 BYTE PTR __k$[ebp+21], dl
  0016b	84 c0		 test	 al, al
  0016d	74 07		 je	 SHORT $LN74@LoadBool_e@3
  0016f	34 eb		 xor	 al, -21			; ffffffebH
  00171	88 45 fa	 mov	 BYTE PTR __k$[ebp+22], al
  00174	eb 7d		 jmp	 SHORT $LN1@LoadBool_e@3
$LN74@LoadBool_e@3:
  00176	c6 45 fa eb	 mov	 BYTE PTR __k$[ebp+22], -21 ; ffffffebH
  0017a	eb 77		 jmp	 SHORT $LN1@LoadBool_e@3
$LN75@LoadBool_e@3:
  0017c	88 4d f9	 mov	 BYTE PTR __k$[ebp+21], cl
  0017f	eb 72		 jmp	 SHORT $LN1@LoadBool_e@3
$LN76@LoadBool_e@3:
  00181	c6 45 f8 ed	 mov	 BYTE PTR __k$[ebp+20], -19 ; ffffffedH
  00185	eb 6c		 jmp	 SHORT $LN1@LoadBool_e@3
$LN77@LoadBool_e@3:
  00187	c6 45 f7 ea	 mov	 BYTE PTR __k$[ebp+19], -22 ; ffffffeaH
  0018b	eb 66		 jmp	 SHORT $LN1@LoadBool_e@3
$LN79@LoadBool_e@3:
  0018d	88 4d f5	 mov	 BYTE PTR __k$[ebp+17], cl
  00190	eb 61		 jmp	 SHORT $LN1@LoadBool_e@3
$LN80@LoadBool_e@3:
  00192	c6 45 f4 ed	 mov	 BYTE PTR __k$[ebp+16], -19 ; ffffffedH
  00196	eb 5b		 jmp	 SHORT $LN1@LoadBool_e@3
$LN81@LoadBool_e@3:
  00198	c6 45 f3 ea	 mov	 BYTE PTR __k$[ebp+15], -22 ; ffffffeaH
  0019c	eb 55		 jmp	 SHORT $LN1@LoadBool_e@3
$LN82@LoadBool_e@3:
  0019e	c6 45 f2 eb	 mov	 BYTE PTR __k$[ebp+14], -21 ; ffffffebH
  001a2	eb 4f		 jmp	 SHORT $LN1@LoadBool_e@3
$LN83@LoadBool_e@3:
  001a4	88 4d f1	 mov	 BYTE PTR __k$[ebp+13], cl
  001a7	eb 4a		 jmp	 SHORT $LN1@LoadBool_e@3
$LN84@LoadBool_e@3:
  001a9	c6 45 f0 ed	 mov	 BYTE PTR __k$[ebp+12], -19 ; ffffffedH
  001ad	eb 44		 jmp	 SHORT $LN1@LoadBool_e@3
$LN85@LoadBool_e@3:
  001af	c6 45 ef ea	 mov	 BYTE PTR __k$[ebp+11], -22 ; ffffffeaH
  001b3	eb 3e		 jmp	 SHORT $LN1@LoadBool_e@3
$LN86@LoadBool_e@3:
  001b5	c6 45 ee eb	 mov	 BYTE PTR __k$[ebp+10], -21 ; ffffffebH
  001b9	eb 38		 jmp	 SHORT $LN1@LoadBool_e@3
$LN87@LoadBool_e@3:
  001bb	88 4d ed	 mov	 BYTE PTR __k$[ebp+9], cl
  001be	eb 33		 jmp	 SHORT $LN1@LoadBool_e@3
$LN88@LoadBool_e@3:
  001c0	c6 45 ec ed	 mov	 BYTE PTR __k$[ebp+8], -19 ; ffffffedH
  001c4	eb 2d		 jmp	 SHORT $LN1@LoadBool_e@3
$LN89@LoadBool_e@3:
  001c6	c6 45 eb ea	 mov	 BYTE PTR __k$[ebp+7], -22 ; ffffffeaH
  001ca	eb 27		 jmp	 SHORT $LN1@LoadBool_e@3
$LN90@LoadBool_e@3:
  001cc	c6 45 ea eb	 mov	 BYTE PTR __k$[ebp+6], -21 ; ffffffebH
  001d0	eb 21		 jmp	 SHORT $LN1@LoadBool_e@3
$LN91@LoadBool_e@3:
  001d2	88 4d e9	 mov	 BYTE PTR __k$[ebp+5], cl
  001d5	eb 1c		 jmp	 SHORT $LN1@LoadBool_e@3
$LN92@LoadBool_e@3:
  001d7	c6 45 e8 ed	 mov	 BYTE PTR __k$[ebp+4], -19 ; ffffffedH
  001db	eb 16		 jmp	 SHORT $LN1@LoadBool_e@3
$LN93@LoadBool_e@3:
  001dd	c6 45 e7 ea	 mov	 BYTE PTR __k$[ebp+3], -22 ; ffffffeaH
  001e1	eb 10		 jmp	 SHORT $LN1@LoadBool_e@3
$LN94@LoadBool_e@3:
  001e3	c6 45 e6 eb	 mov	 BYTE PTR __k$[ebp+2], -21 ; ffffffebH
  001e7	eb 0a		 jmp	 SHORT $LN1@LoadBool_e@3
$LN95@LoadBool_e@3:
  001e9	c6 45 e5 ec	 mov	 BYTE PTR __k$[ebp+1], -20 ; ffffffecH
  001ed	eb 04		 jmp	 SHORT $LN1@LoadBool_e@3
$LN96@LoadBool_e@3:
  001ef	c6 45 e4 ed	 mov	 BYTE PTR __k$[ebp], -19	; ffffffedH
$LN1@LoadBool_e@3:
  001f3	6a 04		 push	 4
  001f5	8d 45 e4	 lea	 eax, DWORD PTR __k$[ebp]
  001f8	c6 45 f6 00	 mov	 BYTE PTR __k$[ebp+18], 0
  001fc	5a		 pop	 edx
$LL104@LoadBool_e@3:
  001fd	81 30 ed ec eb
	ea		 xor	 DWORD PTR [eax], -353637139 ; eaebecedH
  00203	83 c0 04	 add	 eax, 4
  00206	4a		 dec	 edx
  00207	75 f4		 jne	 SHORT $LL104@LoadBool_e@3
  00209	6a 10		 push	 16			; 00000010H
  0020b	58		 pop	 eax
$LL101@LoadBool_e@3:
  0020c	8b c8		 mov	 ecx, eax
  0020e	81 e1 03 00 00
	80		 and	 ecx, -2147483645	; 80000003H
  00214	79 05		 jns	 SHORT $LN111@LoadBool_e@3
  00216	49		 dec	 ecx
  00217	83 c9 fc	 or	 ecx, -4			; fffffffcH
  0021a	41		 inc	 ecx
$LN111@LoadBool_e@3:
  0021b	b2 ed		 mov	 dl, -19			; ffffffedH
  0021d	2a d1		 sub	 dl, cl
  0021f	30 54 05 e4	 xor	 BYTE PTR __k$[ebp+eax], dl
  00223	40		 inc	 eax
  00224	83 f8 12	 cmp	 eax, 18			; 00000012H
  00227	7c e3		 jl	 SHORT $LL101@LoadBool_e@3

; 103  : 		return LoadBool(_k, b);

  00229	ff 75 0c	 push	 DWORD PTR _b$[ebp]
  0022c	8d 45 e4	 lea	 eax, DWORD PTR __k$[ebp]
  0022f	50		 push	 eax
  00230	8b ce		 mov	 ecx, esi
  00232	ff 15 00 00 00
	00		 call	 DWORD PTR __imp_?LoadBool@ioINILoader@@QAE_NPBD_N@Z

; 104  : 	}

  00238	8b 4d fc	 mov	 ecx, DWORD PTR __$ArrayPad$[ebp]
  0023b	33 cd		 xor	 ecx, ebp
  0023d	5e		 pop	 esi
  0023e	e8 00 00 00 00	 call	 @__security_check_cookie@4
  00243	c9		 leave
  00244	c2 08 00	 ret	 8
??$LoadBool_e@$0BD@@ioINILoader@@QAE_NAAY0BD@$$CBD_N@Z ENDP ; ioINILoader::LoadBool_e<19>
_TEXT	ENDS
PUBLIC	__$ArrayPad$
PUBLIC	??$LoadBool_e@$0BG@@ioINILoader@@QAE_NAAY0BG@$$CBD_N@Z ; ioINILoader::LoadBool_e<22>
; Function compile flags: /Ogsp
;	COMDAT ??$LoadBool_e@$0BG@@ioINILoader@@QAE_NAAY0BG@$$CBD_N@Z
_TEXT	SEGMENT
__k$ = -32						; size = 22
__$ArrayPad$ = -4					; size = 4
_k$ = 8							; size = 4
_b$ = 12						; size = 1
??$LoadBool_e@$0BG@@ioINILoader@@QAE_NAAY0BG@$$CBD_N@Z PROC ; ioINILoader::LoadBool_e<22>, COMDAT
; _this$ = ecx

; 101  : 	{

  00000	55		 push	 ebp
  00001	8b ec		 mov	 ebp, esp
  00003	83 ec 20	 sub	 esp, 32			; 00000020H
  00006	a1 00 00 00 00	 mov	 eax, DWORD PTR ___security_cookie
  0000b	33 c5		 xor	 eax, ebp
  0000d	89 45 fc	 mov	 DWORD PTR __$ArrayPad$[ebp], eax
  00010	8b 45 08	 mov	 eax, DWORD PTR _k$[ebp]

; 102  : 		_ENCSTR(k, _k);

  00013	8a 10		 mov	 dl, BYTE PTR [eax]
  00015	53		 push	 ebx
  00016	56		 push	 esi
  00017	8b f1		 mov	 esi, ecx
  00019	84 d2		 test	 dl, dl
  0001b	0f 84 15 02 00
	00		 je	 $LN96@LoadBool_e@4
  00021	80 f2 ed	 xor	 dl, -19			; ffffffedH
  00024	88 55 e0	 mov	 BYTE PTR __k$[ebp], dl
  00027	8a 50 01	 mov	 dl, BYTE PTR [eax+1]
  0002a	84 d2		 test	 dl, dl
  0002c	0f 84 fe 01 00
	00		 je	 $LN95@LoadBool_e@4
  00032	80 f2 ec	 xor	 dl, -20			; ffffffecH
  00035	88 55 e1	 mov	 BYTE PTR __k$[ebp+1], dl
  00038	8a 50 02	 mov	 dl, BYTE PTR [eax+2]
  0003b	84 d2		 test	 dl, dl
  0003d	0f 84 e7 01 00
	00		 je	 $LN94@LoadBool_e@4
  00043	b1 eb		 mov	 cl, -21			; ffffffebH
  00045	32 d1		 xor	 dl, cl
  00047	88 55 e2	 mov	 BYTE PTR __k$[ebp+2], dl
  0004a	8a 50 03	 mov	 dl, BYTE PTR [eax+3]
  0004d	84 d2		 test	 dl, dl
  0004f	0f 84 cf 01 00
	00		 je	 $LN93@LoadBool_e@4
  00055	b3 ea		 mov	 bl, -22			; ffffffeaH
  00057	32 d3		 xor	 dl, bl
  00059	88 55 e3	 mov	 BYTE PTR __k$[ebp+3], dl
  0005c	8a 50 04	 mov	 dl, BYTE PTR [eax+4]
  0005f	84 d2		 test	 dl, dl
  00061	0f 84 b7 01 00
	00		 je	 $LN92@LoadBool_e@4
  00067	80 f2 ed	 xor	 dl, -19			; ffffffedH
  0006a	88 55 e4	 mov	 BYTE PTR __k$[ebp+4], dl
  0006d	8a 50 05	 mov	 dl, BYTE PTR [eax+5]
  00070	84 d2		 test	 dl, dl
  00072	0f 84 a0 01 00
	00		 je	 $LN91@LoadBool_e@4
  00078	80 f2 ec	 xor	 dl, -20			; ffffffecH
  0007b	88 55 e5	 mov	 BYTE PTR __k$[ebp+5], dl
  0007e	8a 50 06	 mov	 dl, BYTE PTR [eax+6]
  00081	84 d2		 test	 dl, dl
  00083	0f 84 8a 01 00
	00		 je	 $LN90@LoadBool_e@4
  00089	32 d1		 xor	 dl, cl
  0008b	88 55 e6	 mov	 BYTE PTR __k$[ebp+6], dl
  0008e	8a 50 07	 mov	 dl, BYTE PTR [eax+7]
  00091	84 d2		 test	 dl, dl
  00093	0f 84 75 01 00
	00		 je	 $LN89@LoadBool_e@4
  00099	32 d3		 xor	 dl, bl
  0009b	88 55 e7	 mov	 BYTE PTR __k$[ebp+7], dl
  0009e	8a 50 08	 mov	 dl, BYTE PTR [eax+8]
  000a1	84 d2		 test	 dl, dl
  000a3	0f 84 5f 01 00
	00		 je	 $LN88@LoadBool_e@4
  000a9	80 f2 ed	 xor	 dl, -19			; ffffffedH
  000ac	88 55 e8	 mov	 BYTE PTR __k$[ebp+8], dl
  000af	8a 50 09	 mov	 dl, BYTE PTR [eax+9]
  000b2	84 d2		 test	 dl, dl
  000b4	0f 84 48 01 00
	00		 je	 $LN87@LoadBool_e@4
  000ba	80 f2 ec	 xor	 dl, -20			; ffffffecH
  000bd	88 55 e9	 mov	 BYTE PTR __k$[ebp+9], dl
  000c0	8a 50 0a	 mov	 dl, BYTE PTR [eax+10]
  000c3	84 d2		 test	 dl, dl
  000c5	0f 84 32 01 00
	00		 je	 $LN86@LoadBool_e@4
  000cb	32 d1		 xor	 dl, cl
  000cd	88 55 ea	 mov	 BYTE PTR __k$[ebp+10], dl
  000d0	8a 50 0b	 mov	 dl, BYTE PTR [eax+11]
  000d3	84 d2		 test	 dl, dl
  000d5	0f 84 1d 01 00
	00		 je	 $LN85@LoadBool_e@4
  000db	32 d3		 xor	 dl, bl
  000dd	88 55 eb	 mov	 BYTE PTR __k$[ebp+11], dl
  000e0	8a 50 0c	 mov	 dl, BYTE PTR [eax+12]
  000e3	84 d2		 test	 dl, dl
  000e5	0f 84 07 01 00
	00		 je	 $LN84@LoadBool_e@4
  000eb	80 f2 ed	 xor	 dl, -19			; ffffffedH
  000ee	88 55 ec	 mov	 BYTE PTR __k$[ebp+12], dl
  000f1	8a 50 0d	 mov	 dl, BYTE PTR [eax+13]
  000f4	84 d2		 test	 dl, dl
  000f6	0f 84 f0 00 00
	00		 je	 $LN83@LoadBool_e@4
  000fc	80 f2 ec	 xor	 dl, -20			; ffffffecH
  000ff	88 55 ed	 mov	 BYTE PTR __k$[ebp+13], dl
  00102	8a 50 0e	 mov	 dl, BYTE PTR [eax+14]
  00105	84 d2		 test	 dl, dl
  00107	0f 84 da 00 00
	00		 je	 $LN82@LoadBool_e@4
  0010d	32 d1		 xor	 dl, cl
  0010f	88 55 ee	 mov	 BYTE PTR __k$[ebp+14], dl
  00112	8a 50 0f	 mov	 dl, BYTE PTR [eax+15]
  00115	84 d2		 test	 dl, dl
  00117	0f 84 c5 00 00
	00		 je	 $LN81@LoadBool_e@4
  0011d	32 d3		 xor	 dl, bl
  0011f	88 55 ef	 mov	 BYTE PTR __k$[ebp+15], dl
  00122	8a 50 10	 mov	 dl, BYTE PTR [eax+16]
  00125	84 d2		 test	 dl, dl
  00127	0f 84 af 00 00
	00		 je	 $LN80@LoadBool_e@4
  0012d	80 f2 ed	 xor	 dl, -19			; ffffffedH
  00130	88 55 f0	 mov	 BYTE PTR __k$[ebp+16], dl
  00133	8a 50 11	 mov	 dl, BYTE PTR [eax+17]
  00136	84 d2		 test	 dl, dl
  00138	0f 84 98 00 00
	00		 je	 $LN79@LoadBool_e@4
  0013e	80 f2 ec	 xor	 dl, -20			; ffffffecH
  00141	88 55 f1	 mov	 BYTE PTR __k$[ebp+17], dl
  00144	8a 50 12	 mov	 dl, BYTE PTR [eax+18]
  00147	84 d2		 test	 dl, dl
  00149	0f 84 82 00 00
	00		 je	 $LN78@LoadBool_e@4
  0014f	32 d1		 xor	 dl, cl
  00151	88 55 f2	 mov	 BYTE PTR __k$[ebp+18], dl
  00154	8a 50 13	 mov	 dl, BYTE PTR [eax+19]
  00157	84 d2		 test	 dl, dl
  00159	74 71		 je	 SHORT $LN77@LoadBool_e@4
  0015b	32 d3		 xor	 dl, bl
  0015d	88 55 f3	 mov	 BYTE PTR __k$[ebp+19], dl
  00160	8a 50 14	 mov	 dl, BYTE PTR [eax+20]
  00163	84 d2		 test	 dl, dl
  00165	74 5f		 je	 SHORT $LN76@LoadBool_e@4
  00167	80 f2 ed	 xor	 dl, -19			; ffffffedH
  0016a	80 78 15 00	 cmp	 BYTE PTR [eax+21], 0
  0016e	88 55 f4	 mov	 BYTE PTR __k$[ebp+20], dl
  00171	0f 84 c3 00 00
	00		 je	 $LN1@LoadBool_e@4
  00177	8a 50 16	 mov	 dl, BYTE PTR [eax+22]
  0017a	84 d2		 test	 dl, dl
  0017c	74 43		 je	 SHORT $LN74@LoadBool_e@4
  0017e	32 d1		 xor	 dl, cl
  00180	88 55 f6	 mov	 BYTE PTR __k$[ebp+22], dl
  00183	8a 50 17	 mov	 dl, BYTE PTR [eax+23]
  00186	84 d2		 test	 dl, dl
  00188	74 32		 je	 SHORT $LN73@LoadBool_e@4
  0018a	32 d3		 xor	 dl, bl
  0018c	88 55 f7	 mov	 BYTE PTR __k$[ebp+23], dl
  0018f	8a 50 18	 mov	 dl, BYTE PTR [eax+24]
  00192	84 d2		 test	 dl, dl
  00194	74 20		 je	 SHORT $LN72@LoadBool_e@4
  00196	8a 40 19	 mov	 al, BYTE PTR [eax+25]
  00199	80 f2 ed	 xor	 dl, -19			; ffffffedH
  0019c	88 55 f8	 mov	 BYTE PTR __k$[ebp+24], dl
  0019f	84 c0		 test	 al, al
  001a1	74 0a		 je	 SHORT $LN71@LoadBool_e@4
  001a3	34 ec		 xor	 al, -20			; ffffffecH
  001a5	88 45 f9	 mov	 BYTE PTR __k$[ebp+25], al
  001a8	e9 8d 00 00 00	 jmp	 $LN1@LoadBool_e@4
$LN71@LoadBool_e@4:
  001ad	c6 45 f9 ec	 mov	 BYTE PTR __k$[ebp+25], -20 ; ffffffecH
  001b1	e9 84 00 00 00	 jmp	 $LN1@LoadBool_e@4
$LN72@LoadBool_e@4:
  001b6	c6 45 f8 ed	 mov	 BYTE PTR __k$[ebp+24], -19 ; ffffffedH
  001ba	eb 7e		 jmp	 SHORT $LN1@LoadBool_e@4
$LN73@LoadBool_e@4:
  001bc	88 5d f7	 mov	 BYTE PTR __k$[ebp+23], bl
  001bf	eb 79		 jmp	 SHORT $LN1@LoadBool_e@4
$LN74@LoadBool_e@4:
  001c1	88 4d f6	 mov	 BYTE PTR __k$[ebp+22], cl
  001c4	eb 74		 jmp	 SHORT $LN1@LoadBool_e@4
$LN76@LoadBool_e@4:
  001c6	c6 45 f4 ed	 mov	 BYTE PTR __k$[ebp+20], -19 ; ffffffedH
  001ca	eb 6e		 jmp	 SHORT $LN1@LoadBool_e@4
$LN77@LoadBool_e@4:
  001cc	88 5d f3	 mov	 BYTE PTR __k$[ebp+19], bl
  001cf	eb 69		 jmp	 SHORT $LN1@LoadBool_e@4
$LN78@LoadBool_e@4:
  001d1	88 4d f2	 mov	 BYTE PTR __k$[ebp+18], cl
  001d4	eb 64		 jmp	 SHORT $LN1@LoadBool_e@4
$LN79@LoadBool_e@4:
  001d6	c6 45 f1 ec	 mov	 BYTE PTR __k$[ebp+17], -20 ; ffffffecH
  001da	eb 5e		 jmp	 SHORT $LN1@LoadBool_e@4
$LN80@LoadBool_e@4:
  001dc	c6 45 f0 ed	 mov	 BYTE PTR __k$[ebp+16], -19 ; ffffffedH
  001e0	eb 58		 jmp	 SHORT $LN1@LoadBool_e@4
$LN81@LoadBool_e@4:
  001e2	88 5d ef	 mov	 BYTE PTR __k$[ebp+15], bl
  001e5	eb 53		 jmp	 SHORT $LN1@LoadBool_e@4
$LN82@LoadBool_e@4:
  001e7	88 4d ee	 mov	 BYTE PTR __k$[ebp+14], cl
  001ea	eb 4e		 jmp	 SHORT $LN1@LoadBool_e@4
$LN83@LoadBool_e@4:
  001ec	c6 45 ed ec	 mov	 BYTE PTR __k$[ebp+13], -20 ; ffffffecH
  001f0	eb 48		 jmp	 SHORT $LN1@LoadBool_e@4
$LN84@LoadBool_e@4:
  001f2	c6 45 ec ed	 mov	 BYTE PTR __k$[ebp+12], -19 ; ffffffedH
  001f6	eb 42		 jmp	 SHORT $LN1@LoadBool_e@4
$LN85@LoadBool_e@4:
  001f8	88 5d eb	 mov	 BYTE PTR __k$[ebp+11], bl
  001fb	eb 3d		 jmp	 SHORT $LN1@LoadBool_e@4
$LN86@LoadBool_e@4:
  001fd	88 4d ea	 mov	 BYTE PTR __k$[ebp+10], cl
  00200	eb 38		 jmp	 SHORT $LN1@LoadBool_e@4
$LN87@LoadBool_e@4:
  00202	c6 45 e9 ec	 mov	 BYTE PTR __k$[ebp+9], -20 ; ffffffecH
  00206	eb 32		 jmp	 SHORT $LN1@LoadBool_e@4
$LN88@LoadBool_e@4:
  00208	c6 45 e8 ed	 mov	 BYTE PTR __k$[ebp+8], -19 ; ffffffedH
  0020c	eb 2c		 jmp	 SHORT $LN1@LoadBool_e@4
$LN89@LoadBool_e@4:
  0020e	88 5d e7	 mov	 BYTE PTR __k$[ebp+7], bl
  00211	eb 27		 jmp	 SHORT $LN1@LoadBool_e@4
$LN90@LoadBool_e@4:
  00213	88 4d e6	 mov	 BYTE PTR __k$[ebp+6], cl
  00216	eb 22		 jmp	 SHORT $LN1@LoadBool_e@4
$LN91@LoadBool_e@4:
  00218	c6 45 e5 ec	 mov	 BYTE PTR __k$[ebp+5], -20 ; ffffffecH
  0021c	eb 1c		 jmp	 SHORT $LN1@LoadBool_e@4
$LN92@LoadBool_e@4:
  0021e	c6 45 e4 ed	 mov	 BYTE PTR __k$[ebp+4], -19 ; ffffffedH
  00222	eb 16		 jmp	 SHORT $LN1@LoadBool_e@4
$LN93@LoadBool_e@4:
  00224	c6 45 e3 ea	 mov	 BYTE PTR __k$[ebp+3], -22 ; ffffffeaH
  00228	eb 10		 jmp	 SHORT $LN1@LoadBool_e@4
$LN94@LoadBool_e@4:
  0022a	c6 45 e2 eb	 mov	 BYTE PTR __k$[ebp+2], -21 ; ffffffebH
  0022e	eb 0a		 jmp	 SHORT $LN1@LoadBool_e@4
$LN95@LoadBool_e@4:
  00230	c6 45 e1 ec	 mov	 BYTE PTR __k$[ebp+1], -20 ; ffffffecH
  00234	eb 04		 jmp	 SHORT $LN1@LoadBool_e@4
$LN96@LoadBool_e@4:
  00236	c6 45 e0 ed	 mov	 BYTE PTR __k$[ebp], -19	; ffffffedH
$LN1@LoadBool_e@4:
  0023a	6a 05		 push	 5
  0023c	8d 45 e0	 lea	 eax, DWORD PTR __k$[ebp]
  0023f	c6 45 f5 00	 mov	 BYTE PTR __k$[ebp+21], 0
  00243	5a		 pop	 edx
$LL104@LoadBool_e@4:
  00244	81 30 ed ec eb
	ea		 xor	 DWORD PTR [eax], -353637139 ; eaebecedH
  0024a	83 c0 04	 add	 eax, 4
  0024d	4a		 dec	 edx
  0024e	75 f4		 jne	 SHORT $LL104@LoadBool_e@4

; 103  : 		return LoadBool(_k, b);

  00250	ff 75 0c	 push	 DWORD PTR _b$[ebp]
  00253	80 75 f4 ed	 xor	 BYTE PTR __k$[ebp+20], -19 ; ffffffedH
  00257	8d 45 e0	 lea	 eax, DWORD PTR __k$[ebp]
  0025a	50		 push	 eax
  0025b	8b ce		 mov	 ecx, esi
  0025d	ff 15 00 00 00
	00		 call	 DWORD PTR __imp_?LoadBool@ioINILoader@@QAE_NPBD_N@Z

; 104  : 	}

  00263	8b 4d fc	 mov	 ecx, DWORD PTR __$ArrayPad$[ebp]
  00266	5e		 pop	 esi
  00267	33 cd		 xor	 ecx, ebp
  00269	5b		 pop	 ebx
  0026a	e8 00 00 00 00	 call	 @__security_check_cookie@4
  0026f	c9		 leave
  00270	c2 08 00	 ret	 8
??$LoadBool_e@$0BG@@ioINILoader@@QAE_NAAY0BG@$$CBD_N@Z ENDP ; ioINILoader::LoadBool_e<22>
_TEXT	ENDS
PUBLIC	??$construct@AAUtagDummyCharCreateInfo@@@?$allocator@UtagDummyCharCreateInfo@@@std@@QAEXPAUtagDummyCharCreateInfo@@AAU2@@Z ; std::allocator<tagDummyCharCreateInfo>::construct<tagDummyCharCreateInfo &>
;	COMDAT xdata$x
; File c:\program files (x86)\microsoft visual studio 10.0\vc\include\utility
xdata$x	SEGMENT
__unwindtable$??$construct@AAUtagDummyCharCreateInfo@@@?$allocator@UtagDummyCharCreateInfo@@@std@@QAEXPAUtagDummyCharCreateInfo@@AAU2@@Z DD 0ffffffffH
	DD	FLAT:__unwindfunclet$??$construct@AAUtagDummyCharCreateInfo@@@?$allocator@UtagDummyCharCreateInfo@@@std@@QAEXPAUtagDummyCharCreateInfo@@AAU2@@Z$0
__ehfuncinfo$??$construct@AAUtagDummyCharCreateInfo@@@?$allocator@UtagDummyCharCreateInfo@@@std@@QAEXPAUtagDummyCharCreateInfo@@AAU2@@Z DD 019930522H
	DD	01H
	DD	FLAT:__unwindtable$??$construct@AAUtagDummyCharCreateInfo@@@?$allocator@UtagDummyCharCreateInfo@@@std@@QAEXPAUtagDummyCharCreateInfo@@AAU2@@Z
	DD	2 DUP(00H)
	DD	2 DUP(00H)
	DD	00H
	DD	01H
; Function compile flags: /Ogsp
; File c:\program files (x86)\microsoft visual studio 10.0\vc\include\xmemory
xdata$x	ENDS
;	COMDAT ??$construct@AAUtagDummyCharCreateInfo@@@?$allocator@UtagDummyCharCreateInfo@@@std@@QAEXPAUtagDummyCharCreateInfo@@AAU2@@Z
_TEXT	SEGMENT
$T545775 = -16						; size = 4
__$EHRec$ = -12						; size = 12
__Ptr$ = 8						; size = 4
__Val$ = 12						; size = 4
??$construct@AAUtagDummyCharCreateInfo@@@?$allocator@UtagDummyCharCreateInfo@@@std@@QAEXPAUtagDummyCharCreateInfo@@AAU2@@Z PROC ; std::allocator<tagDummyCharCreateInfo>::construct<tagDummyCharCreateInfo &>, COMDAT
; _this$ = ecx

; 206  : 		void construct(pointer _Ptr, _Other&& _Val)

  00000	6a 04		 push	 4
  00002	b8 00 00 00 00	 mov	 eax, __ehhandler$??$construct@AAUtagDummyCharCreateInfo@@@?$allocator@UtagDummyCharCreateInfo@@@std@@QAEXPAUtagDummyCharCreateInfo@@AAU2@@Z
  00007	e8 00 00 00 00	 call	 __EH_prolog3

; 207  : 		{	// construct object at _Ptr with value _Val
; 208  : 		::new ((void _FARQ *)_Ptr) _Ty(_STD forward<_Other>(_Val));

  0000c	8b 4d 08	 mov	 ecx, DWORD PTR __Ptr$[ebp]
  0000f	89 4d f0	 mov	 DWORD PTR $T545775[ebp], ecx
  00012	83 65 fc 00	 and	 DWORD PTR __$EHRec$[ebp+8], 0
  00016	85 c9		 test	 ecx, ecx
  00018	74 08		 je	 SHORT $LN3@construct
  0001a	ff 75 0c	 push	 DWORD PTR __Val$[ebp]
  0001d	e8 00 00 00 00	 call	 ??0tagDummyCharCreateInfo@@QAE@ABU0@@Z
$LN3@construct:

; 209  : 		}

  00022	e8 00 00 00 00	 call	 __EH_epilog3
  00027	c2 08 00	 ret	 8
_TEXT	ENDS
;	COMDAT text$x
text$x	SEGMENT
__unwindfunclet$??$construct@AAUtagDummyCharCreateInfo@@@?$allocator@UtagDummyCharCreateInfo@@@std@@QAEXPAUtagDummyCharCreateInfo@@AAU2@@Z$0:
  00000	ff 75 08	 push	 DWORD PTR __Ptr$[ebp]
  00003	ff 75 f0	 push	 DWORD PTR $T545775[ebp]
  00006	e8 00 00 00 00	 call	 ??3@YAXPAX0@Z		; operator delete
  0000b	59		 pop	 ecx
  0000c	59		 pop	 ecx
  0000d	c3		 ret	 0
__ehhandler$??$construct@AAUtagDummyCharCreateInfo@@@?$allocator@UtagDummyCharCreateInfo@@@std@@QAEXPAUtagDummyCharCreateInfo@@AAU2@@Z:
  0000e	8b 54 24 08	 mov	 edx, DWORD PTR [esp+8]
  00012	8d 42 0c	 lea	 eax, DWORD PTR [edx+12]
  00015	8b 4a ec	 mov	 ecx, DWORD PTR [edx-20]
  00018	33 c8		 xor	 ecx, eax
  0001a	e8 00 00 00 00	 call	 @__security_check_cookie@4
  0001f	b8 00 00 00 00	 mov	 eax, OFFSET __ehfuncinfo$??$construct@AAUtagDummyCharCreateInfo@@@?$allocator@UtagDummyCharCreateInfo@@@std@@QAEXPAUtagDummyCharCreateInfo@@AAU2@@Z
  00024	e9 00 00 00 00	 jmp	 ___CxxFrameHandler3
text$x	ENDS
??$construct@AAUtagDummyCharCreateInfo@@@?$allocator@UtagDummyCharCreateInfo@@@std@@QAEXPAUtagDummyCharCreateInfo@@AAU2@@Z ENDP ; std::allocator<tagDummyCharCreateInfo>::construct<tagDummyCharCreateInfo &>
PUBLIC	??$_Move@PAUtagDummyCharCreateInfo@@PAU1@@std@@YAPAUtagDummyCharCreateInfo@@PAU1@00U_Nonscalar_ptr_iterator_tag@0@@Z ; std::_Move<tagDummyCharCreateInfo *,tagDummyCharCreateInfo *>
; Function compile flags: /Ogsp
; File c:\program files (x86)\microsoft visual studio 10.0\vc\include\xutility
;	COMDAT ??$_Move@PAUtagDummyCharCreateInfo@@PAU1@@std@@YAPAUtagDummyCharCreateInfo@@PAU1@00U_Nonscalar_ptr_iterator_tag@0@@Z
_TEXT	SEGMENT
__First$ = 8						; size = 4
__Last$ = 12						; size = 4
__Dest$ = 16						; size = 4
___formal$ = 20						; size = 1
??$_Move@PAUtagDummyCharCreateInfo@@PAU1@@std@@YAPAUtagDummyCharCreateInfo@@PAU1@00U_Nonscalar_ptr_iterator_tag@0@@Z PROC ; std::_Move<tagDummyCharCreateInfo *,tagDummyCharCreateInfo *>, COMDAT

; 2512 : 	{	// move [_First, _Last) to [_Dest, ...), arbitrary iterators

  00000	55		 push	 ebp
  00001	8b ec		 mov	 ebp, esp
  00003	56		 push	 esi

; 2513 : 	for (; _First != _Last; ++_Dest, ++_First)

  00004	8b 75 08	 mov	 esi, DWORD PTR __First$[ebp]
  00007	eb 10		 jmp	 SHORT $LN11@Move
$LL3@Move:

; 2514 : 		*_Dest = _STD move(*_First);

  00009	8b 4d 10	 mov	 ecx, DWORD PTR __Dest$[ebp]
  0000c	56		 push	 esi
  0000d	e8 00 00 00 00	 call	 ??4tagDummyCharCreateInfo@@QAEAAU0@ABU0@@Z
  00012	83 45 10 24	 add	 DWORD PTR __Dest$[ebp], 36 ; 00000024H
  00016	83 c6 24	 add	 esi, 36			; 00000024H
$LN11@Move:

; 2513 : 	for (; _First != _Last; ++_Dest, ++_First)

  00019	3b 75 0c	 cmp	 esi, DWORD PTR __Last$[ebp]
  0001c	75 eb		 jne	 SHORT $LL3@Move

; 2515 : 	return (_Dest);

  0001e	8b 45 10	 mov	 eax, DWORD PTR __Dest$[ebp]
  00021	5e		 pop	 esi

; 2516 : 	}

  00022	5d		 pop	 ebp
  00023	c3		 ret	 0
??$_Move@PAUtagDummyCharCreateInfo@@PAU1@@std@@YAPAUtagDummyCharCreateInfo@@PAU1@00U_Nonscalar_ptr_iterator_tag@0@@Z ENDP ; std::_Move<tagDummyCharCreateInfo *,tagDummyCharCreateInfo *>
_TEXT	ENDS
PUBLIC	??$_Construct@UtagDummyCharCreateInfo@@ABU1@@std@@YAXPAUtagDummyCharCreateInfo@@ABU1@@Z ; std::_Construct<tagDummyCharCreateInfo,tagDummyCharCreateInfo const &>
;	COMDAT xdata$x
; File c:\program files (x86)\microsoft visual studio 10.0\vc\include\utility
xdata$x	SEGMENT
__unwindtable$??$_Construct@UtagDummyCharCreateInfo@@ABU1@@std@@YAXPAUtagDummyCharCreateInfo@@ABU1@@Z DD 0ffffffffH
	DD	FLAT:__unwindfunclet$??$_Construct@UtagDummyCharCreateInfo@@ABU1@@std@@YAXPAUtagDummyCharCreateInfo@@ABU1@@Z$0
__ehfuncinfo$??$_Construct@UtagDummyCharCreateInfo@@ABU1@@std@@YAXPAUtagDummyCharCreateInfo@@ABU1@@Z DD 019930522H
	DD	01H
	DD	FLAT:__unwindtable$??$_Construct@UtagDummyCharCreateInfo@@ABU1@@std@@YAXPAUtagDummyCharCreateInfo@@ABU1@@Z
	DD	2 DUP(00H)
	DD	2 DUP(00H)
	DD	00H
	DD	01H
; Function compile flags: /Ogsp
; File c:\program files (x86)\microsoft visual studio 10.0\vc\include\xmemory
xdata$x	ENDS
;	COMDAT ??$_Construct@UtagDummyCharCreateInfo@@ABU1@@std@@YAXPAUtagDummyCharCreateInfo@@ABU1@@Z
_TEXT	SEGMENT
$T545803 = -16						; size = 4
__$EHRec$ = -12						; size = 12
__Vptr$ = 8						; size = 4
__Ptr$ = 8						; size = 4
__Val$ = 12						; size = 4
??$_Construct@UtagDummyCharCreateInfo@@ABU1@@std@@YAXPAUtagDummyCharCreateInfo@@ABU1@@Z PROC ; std::_Construct<tagDummyCharCreateInfo,tagDummyCharCreateInfo const &>, COMDAT

; 46   : 	{	// construct object at _Ptr with value _Val

  00000	6a 04		 push	 4
  00002	b8 00 00 00 00	 mov	 eax, __ehhandler$??$_Construct@UtagDummyCharCreateInfo@@ABU1@@std@@YAXPAUtagDummyCharCreateInfo@@ABU1@@Z
  00007	e8 00 00 00 00	 call	 __EH_prolog3

; 47   : 	void _FARQ *_Vptr = _Ptr;

  0000c	8b 4d 08	 mov	 ecx, DWORD PTR __Ptr$[ebp]
  0000f	89 4d 08	 mov	 DWORD PTR __Vptr$[ebp], ecx

; 48   : 	::new (_Vptr) _Ty1(_STD forward<_Ty2>(_Val));

  00012	89 4d f0	 mov	 DWORD PTR $T545803[ebp], ecx
  00015	83 65 fc 00	 and	 DWORD PTR __$EHRec$[ebp+8], 0
  00019	85 c9		 test	 ecx, ecx
  0001b	74 08		 je	 SHORT $LN3@Construct@2
  0001d	ff 75 0c	 push	 DWORD PTR __Val$[ebp]
  00020	e8 00 00 00 00	 call	 ??0tagDummyCharCreateInfo@@QAE@ABU0@@Z
$LN3@Construct@2:

; 49   : 	}

  00025	e8 00 00 00 00	 call	 __EH_epilog3
  0002a	c3		 ret	 0
_TEXT	ENDS
;	COMDAT text$x
text$x	SEGMENT
__unwindfunclet$??$_Construct@UtagDummyCharCreateInfo@@ABU1@@std@@YAXPAUtagDummyCharCreateInfo@@ABU1@@Z$0:
  00000	ff 75 08	 push	 DWORD PTR __Vptr$[ebp]
  00003	ff 75 f0	 push	 DWORD PTR $T545803[ebp]
  00006	e8 00 00 00 00	 call	 ??3@YAXPAX0@Z		; operator delete
  0000b	59		 pop	 ecx
  0000c	59		 pop	 ecx
  0000d	c3		 ret	 0
__ehhandler$??$_Construct@UtagDummyCharCreateInfo@@ABU1@@std@@YAXPAUtagDummyCharCreateInfo@@ABU1@@Z:
  0000e	8b 54 24 08	 mov	 edx, DWORD PTR [esp+8]
  00012	8d 42 0c	 lea	 eax, DWORD PTR [edx+12]
  00015	8b 4a ec	 mov	 ecx, DWORD PTR [edx-20]
  00018	33 c8		 xor	 ecx, eax
  0001a	e8 00 00 00 00	 call	 @__security_check_cookie@4
  0001f	b8 00 00 00 00	 mov	 eax, OFFSET __ehfuncinfo$??$_Construct@UtagDummyCharCreateInfo@@ABU1@@std@@YAXPAUtagDummyCharCreateInfo@@ABU1@@Z
  00024	e9 00 00 00 00	 jmp	 ___CxxFrameHandler3
text$x	ENDS
??$_Construct@UtagDummyCharCreateInfo@@ABU1@@std@@YAXPAUtagDummyCharCreateInfo@@ABU1@@Z ENDP ; std::_Construct<tagDummyCharCreateInfo,tagDummyCharCreateInfo const &>
PUBLIC	??$_Destroy@UtagDummyCharCreateInfo@@@std@@YAXPAUtagDummyCharCreateInfo@@@Z ; std::_Destroy<tagDummyCharCreateInfo>
; Function compile flags: /Ogsp
;	COMDAT ??$_Destroy@UtagDummyCharCreateInfo@@@std@@YAXPAUtagDummyCharCreateInfo@@@Z
_TEXT	SEGMENT
__Ptr$ = 8						; size = 4
??$_Destroy@UtagDummyCharCreateInfo@@@std@@YAXPAUtagDummyCharCreateInfo@@@Z PROC ; std::_Destroy<tagDummyCharCreateInfo>, COMDAT

; 62   : 	{	// destroy object at _Ptr

  00000	55		 push	 ebp
  00001	8b ec		 mov	 ebp, esp

; 63   : 	_Ptr->~_Ty();

  00003	8b 4d 08	 mov	 ecx, DWORD PTR __Ptr$[ebp]

; 64   : 	}

  00006	5d		 pop	 ebp

; 63   : 	_Ptr->~_Ty();

  00007	ff 25 00 00 00
	00		 jmp	 DWORD PTR __imp_??1ioHashString@@QAE@XZ
??$_Destroy@UtagDummyCharCreateInfo@@@std@@YAXPAUtagDummyCharCreateInfo@@@Z ENDP ; std::_Destroy<tagDummyCharCreateInfo>
_TEXT	ENDS
PUBLIC	?construct@?$allocator@UtagDummyCharCreateInfo@@@std@@QAEXPAUtagDummyCharCreateInfo@@$$QAU3@@Z ; std::allocator<tagDummyCharCreateInfo>::construct
;	COMDAT xdata$x
; File c:\program files (x86)\microsoft visual studio 10.0\vc\include\utility
xdata$x	SEGMENT
__unwindtable$?construct@?$allocator@UtagDummyCharCreateInfo@@@std@@QAEXPAUtagDummyCharCreateInfo@@$$QAU3@@Z DD 0ffffffffH
	DD	FLAT:__unwindfunclet$?construct@?$allocator@UtagDummyCharCreateInfo@@@std@@QAEXPAUtagDummyCharCreateInfo@@$$QAU3@@Z$0
__ehfuncinfo$?construct@?$allocator@UtagDummyCharCreateInfo@@@std@@QAEXPAUtagDummyCharCreateInfo@@$$QAU3@@Z DD 019930522H
	DD	01H
	DD	FLAT:__unwindtable$?construct@?$allocator@UtagDummyCharCreateInfo@@@std@@QAEXPAUtagDummyCharCreateInfo@@$$QAU3@@Z
	DD	2 DUP(00H)
	DD	2 DUP(00H)
	DD	00H
	DD	01H
; Function compile flags: /Ogsp
; File c:\program files (x86)\microsoft visual studio 10.0\vc\include\xmemory
xdata$x	ENDS
;	COMDAT ?construct@?$allocator@UtagDummyCharCreateInfo@@@std@@QAEXPAUtagDummyCharCreateInfo@@$$QAU3@@Z
_TEXT	SEGMENT
$T545835 = -16						; size = 4
__$EHRec$ = -12						; size = 12
__Ptr$ = 8						; size = 4
__Val$ = 12						; size = 4
?construct@?$allocator@UtagDummyCharCreateInfo@@@std@@QAEXPAUtagDummyCharCreateInfo@@$$QAU3@@Z PROC ; std::allocator<tagDummyCharCreateInfo>::construct, COMDAT
; _this$ = ecx

; 201  : 		{	// construct object at _Ptr with value _Val

  00000	6a 04		 push	 4
  00002	b8 00 00 00 00	 mov	 eax, __ehhandler$?construct@?$allocator@UtagDummyCharCreateInfo@@@std@@QAEXPAUtagDummyCharCreateInfo@@$$QAU3@@Z
  00007	e8 00 00 00 00	 call	 __EH_prolog3

; 202  : 		::new ((void _FARQ *)_Ptr) _Ty(_STD forward<_Ty>(_Val));

  0000c	8b 4d 08	 mov	 ecx, DWORD PTR __Ptr$[ebp]
  0000f	89 4d f0	 mov	 DWORD PTR $T545835[ebp], ecx
  00012	83 65 fc 00	 and	 DWORD PTR __$EHRec$[ebp+8], 0
  00016	85 c9		 test	 ecx, ecx
  00018	74 08		 je	 SHORT $LN3@construct@2
  0001a	ff 75 0c	 push	 DWORD PTR __Val$[ebp]
  0001d	e8 00 00 00 00	 call	 ??0tagDummyCharCreateInfo@@QAE@ABU0@@Z
$LN3@construct@2:

; 203  : 		}

  00022	e8 00 00 00 00	 call	 __EH_epilog3
  00027	c2 08 00	 ret	 8
_TEXT	ENDS
;	COMDAT text$x
text$x	SEGMENT
__unwindfunclet$?construct@?$allocator@UtagDummyCharCreateInfo@@@std@@QAEXPAUtagDummyCharCreateInfo@@$$QAU3@@Z$0:
  00000	ff 75 08	 push	 DWORD PTR __Ptr$[ebp]
  00003	ff 75 f0	 push	 DWORD PTR $T545835[ebp]
  00006	e8 00 00 00 00	 call	 ??3@YAXPAX0@Z		; operator delete
  0000b	59		 pop	 ecx
  0000c	59		 pop	 ecx
  0000d	c3		 ret	 0
__ehhandler$?construct@?$allocator@UtagDummyCharCreateInfo@@@std@@QAEXPAUtagDummyCharCreateInfo@@$$QAU3@@Z:
  0000e	8b 54 24 08	 mov	 edx, DWORD PTR [esp+8]
  00012	8d 42 0c	 lea	 eax, DWORD PTR [edx+12]
  00015	8b 4a ec	 mov	 ecx, DWORD PTR [edx-20]
  00018	33 c8		 xor	 ecx, eax
  0001a	e8 00 00 00 00	 call	 @__security_check_cookie@4
  0001f	b8 00 00 00 00	 mov	 eax, OFFSET __ehfuncinfo$?construct@?$allocator@UtagDummyCharCreateInfo@@@std@@QAEXPAUtagDummyCharCreateInfo@@$$QAU3@@Z
  00024	e9 00 00 00 00	 jmp	 ___CxxFrameHandler3
text$x	ENDS
?construct@?$allocator@UtagDummyCharCreateInfo@@@std@@QAEXPAUtagDummyCharCreateInfo@@$$QAU3@@Z ENDP ; std::allocator<tagDummyCharCreateInfo>::construct
PUBLIC	??$_Construct@UtagDummyCharLoadInfo@@ABU1@@std@@YAXPAUtagDummyCharLoadInfo@@ABU1@@Z ; std::_Construct<tagDummyCharLoadInfo,tagDummyCharLoadInfo const &>
;	COMDAT xdata$x
; File c:\program files (x86)\microsoft visual studio 10.0\vc\include\utility
xdata$x	SEGMENT
__unwindtable$??$_Construct@UtagDummyCharLoadInfo@@ABU1@@std@@YAXPAUtagDummyCharLoadInfo@@ABU1@@Z DD 0ffffffffH
	DD	FLAT:__unwindfunclet$??$_Construct@UtagDummyCharLoadInfo@@ABU1@@std@@YAXPAUtagDummyCharLoadInfo@@ABU1@@Z$0
__ehfuncinfo$??$_Construct@UtagDummyCharLoadInfo@@ABU1@@std@@YAXPAUtagDummyCharLoadInfo@@ABU1@@Z DD 019930522H
	DD	01H
	DD	FLAT:__unwindtable$??$_Construct@UtagDummyCharLoadInfo@@ABU1@@std@@YAXPAUtagDummyCharLoadInfo@@ABU1@@Z
	DD	2 DUP(00H)
	DD	2 DUP(00H)
	DD	00H
	DD	01H
; Function compile flags: /Ogsp
; File c:\program files (x86)\microsoft visual studio 10.0\vc\include\xmemory
xdata$x	ENDS
;	COMDAT ??$_Construct@UtagDummyCharLoadInfo@@ABU1@@std@@YAXPAUtagDummyCharLoadInfo@@ABU1@@Z
_TEXT	SEGMENT
$T545854 = -16						; size = 4
__$EHRec$ = -12						; size = 12
__Vptr$ = 8						; size = 4
__Ptr$ = 8						; size = 4
__Val$ = 12						; size = 4
??$_Construct@UtagDummyCharLoadInfo@@ABU1@@std@@YAXPAUtagDummyCharLoadInfo@@ABU1@@Z PROC ; std::_Construct<tagDummyCharLoadInfo,tagDummyCharLoadInfo const &>, COMDAT

; 46   : 	{	// construct object at _Ptr with value _Val

  00000	6a 04		 push	 4
  00002	b8 00 00 00 00	 mov	 eax, __ehhandler$??$_Construct@UtagDummyCharLoadInfo@@ABU1@@std@@YAXPAUtagDummyCharLoadInfo@@ABU1@@Z
  00007	e8 00 00 00 00	 call	 __EH_prolog3

; 47   : 	void _FARQ *_Vptr = _Ptr;

  0000c	8b 4d 08	 mov	 ecx, DWORD PTR __Ptr$[ebp]
  0000f	89 4d 08	 mov	 DWORD PTR __Vptr$[ebp], ecx

; 48   : 	::new (_Vptr) _Ty1(_STD forward<_Ty2>(_Val));

  00012	89 4d f0	 mov	 DWORD PTR $T545854[ebp], ecx
  00015	83 65 fc 00	 and	 DWORD PTR __$EHRec$[ebp+8], 0
  00019	85 c9		 test	 ecx, ecx
  0001b	74 08		 je	 SHORT $LN3@Construct@3
  0001d	ff 75 0c	 push	 DWORD PTR __Val$[ebp]
  00020	e8 00 00 00 00	 call	 ??0tagDummyCharLoadInfo@@QAE@ABU0@@Z
$LN3@Construct@3:

; 49   : 	}

  00025	e8 00 00 00 00	 call	 __EH_epilog3
  0002a	c3		 ret	 0
_TEXT	ENDS
;	COMDAT text$x
text$x	SEGMENT
__unwindfunclet$??$_Construct@UtagDummyCharLoadInfo@@ABU1@@std@@YAXPAUtagDummyCharLoadInfo@@ABU1@@Z$0:
  00000	ff 75 08	 push	 DWORD PTR __Vptr$[ebp]
  00003	ff 75 f0	 push	 DWORD PTR $T545854[ebp]
  00006	e8 00 00 00 00	 call	 ??3@YAXPAX0@Z		; operator delete
  0000b	59		 pop	 ecx
  0000c	59		 pop	 ecx
  0000d	c3		 ret	 0
__ehhandler$??$_Construct@UtagDummyCharLoadInfo@@ABU1@@std@@YAXPAUtagDummyCharLoadInfo@@ABU1@@Z:
  0000e	8b 54 24 08	 mov	 edx, DWORD PTR [esp+8]
  00012	8d 42 0c	 lea	 eax, DWORD PTR [edx+12]
  00015	8b 4a ec	 mov	 ecx, DWORD PTR [edx-20]
  00018	33 c8		 xor	 ecx, eax
  0001a	e8 00 00 00 00	 call	 @__security_check_cookie@4
  0001f	b8 00 00 00 00	 mov	 eax, OFFSET __ehfuncinfo$??$_Construct@UtagDummyCharLoadInfo@@ABU1@@std@@YAXPAUtagDummyCharLoadInfo@@ABU1@@Z
  00024	e9 00 00 00 00	 jmp	 ___CxxFrameHandler3
text$x	ENDS
??$_Construct@UtagDummyCharLoadInfo@@ABU1@@std@@YAXPAUtagDummyCharLoadInfo@@ABU1@@Z ENDP ; std::_Construct<tagDummyCharLoadInfo,tagDummyCharLoadInfo const &>
PUBLIC	??0tagDummyCharCreateInfo@@QAE@XZ		; tagDummyCharCreateInfo::tagDummyCharCreateInfo
EXTRN	__imp_??0ioHashString@@QAE@XZ:PROC
; Function compile flags: /Ogsp
; File d:\lost saga for developer\youtube\tutorial\source\src\lsclient\playentityhelpstruct.h
;	COMDAT ??0tagDummyCharCreateInfo@@QAE@XZ
_TEXT	SEGMENT
$T545886 = -12						; size = 12
??0tagDummyCharCreateInfo@@QAE@XZ PROC			; tagDummyCharCreateInfo::tagDummyCharCreateInfo, COMDAT
; _this$ = ecx

; 1450 : 	tagDummyCharCreateInfo()

  00000	55		 push	 ebp
  00001	8b ec		 mov	 ebp, esp
  00003	83 ec 0c	 sub	 esp, 12			; 0000000cH
  00006	53		 push	 ebx
  00007	56		 push	 esi
  00008	57		 push	 edi
  00009	8b d9		 mov	 ebx, ecx
  0000b	ff 15 00 00 00
	00		 call	 DWORD PTR __imp_??0ioHashString@@QAE@XZ

; 1451 : 	{
; 1452 : 		Init();

  00011	0f 57 c0	 xorps	 xmm0, xmm0
  00014	83 63 10 00	 and	 DWORD PTR [ebx+16], 0
  00018	f3 0f 11 45 f4	 movss	 DWORD PTR $T545886[ebp], xmm0
  0001d	f3 0f 11 45 f8	 movss	 DWORD PTR $T545886[ebp+4], xmm0
  00022	f3 0f 11 45 fc	 movss	 DWORD PTR $T545886[ebp+8], xmm0
  00027	8d 7b 18	 lea	 edi, DWORD PTR [ebx+24]
  0002a	8d 75 f4	 lea	 esi, DWORD PTR $T545886[ebp]
  0002d	a5		 movsd
  0002e	a5		 movsd
  0002f	a5		 movsd
  00030	5f		 pop	 edi
  00031	5e		 pop	 esi
  00032	f3 0f 11 43 14	 movss	 DWORD PTR [ebx+20], xmm0

; 1453 : 	}

  00037	8b c3		 mov	 eax, ebx
  00039	5b		 pop	 ebx
  0003a	c9		 leave
  0003b	c3		 ret	 0
??0tagDummyCharCreateInfo@@QAE@XZ ENDP			; tagDummyCharCreateInfo::tagDummyCharCreateInfo
_TEXT	ENDS
PUBLIC	??B?$CEncrypt@M@@QBEMXZ				; CEncrypt<float>::operator float
; Function compile flags: /Ogsp
; File d:\lost saga for developer\youtube\tutorial\source\src\lsclient\encryptvalue.h
;	COMDAT ??B?$CEncrypt@M@@QBEMXZ
_TEXT	SEGMENT
_value$ = -4						; size = 4
??B?$CEncrypt@M@@QBEMXZ PROC				; CEncrypt<float>::operator float, COMDAT
; _this$ = ecx

; 145  : 	{

  00000	55		 push	 ebp
  00001	8b ec		 mov	 ebp, esp
  00003	51		 push	 ecx

; 146  : 		//UJ 130829, const    --start
; 147  : 		type value;
; 148  : 		CEncrypt<type>* pThis = const_cast<CEncrypt<type>*>(this);
; 149  : 		pThis->DecryptValueToPool(&value);

  00004	8d 45 fc	 lea	 eax, DWORD PTR _value$[ebp]
  00007	50		 push	 eax
  00008	e8 00 00 00 00	 call	 ?DecryptValueToPool@?$CEncrypt@M@@QAEXPAM@Z ; CEncrypt<float>::DecryptValueToPool

; 150  : 		//// const DecryptValueToPool     .
; 151  :  		//type value;
; 152  : 		//char szTempMem[MAX_ENCRYPT];
; 153  : 		//m_RC5.DecryptByte( m_MemPool, szTempMem, max(m_ValueSize, DEFAULT_ENCRYPT) );
; 154  : 		//memcpy( &value, szTempMem, m_ValueSize );
; 155  : 		//UJ --end
; 156  : 
; 157  : #ifdef _NOTUSE
; 158  : 		Debug();
; 159  : #endif
; 160  : 		return value;

  0000d	d9 45 fc	 fld	 DWORD PTR _value$[ebp]

; 161  : 	}

  00010	c9		 leave
  00011	c3		 ret	 0
??B?$CEncrypt@M@@QBEMXZ ENDP				; CEncrypt<float>::operator float
_TEXT	ENDS
PUBLIC	??0?$CEncrypt@_N@@QAE@XZ			; CEncrypt<bool>::CEncrypt<bool>
EXTRN	??0ccddaabb@@QAE@XZ:PROC			; ccddaabb::ccddaabb
;	COMDAT xdata$x
xdata$x	SEGMENT
__unwindtable$??0?$CEncrypt@_N@@QAE@XZ DD 0ffffffffH
	DD	FLAT:__unwindfunclet$??0?$CEncrypt@_N@@QAE@XZ$0
__ehfuncinfo$??0?$CEncrypt@_N@@QAE@XZ DD 019930522H
	DD	01H
	DD	FLAT:__unwindtable$??0?$CEncrypt@_N@@QAE@XZ
	DD	2 DUP(00H)
	DD	2 DUP(00H)
	DD	00H
	DD	01H
; Function compile flags: /Ogsp
xdata$x	ENDS
;	COMDAT ??0?$CEncrypt@_N@@QAE@XZ
_TEXT	SEGMENT
_this$ = -16						; size = 4
__$EHRec$ = -12						; size = 12
??0?$CEncrypt@_N@@QAE@XZ PROC				; CEncrypt<bool>::CEncrypt<bool>, COMDAT
; _this$ = ecx

; 109  : 	CEncrypt()

  00000	6a 04		 push	 4
  00002	b8 00 00 00 00	 mov	 eax, __ehhandler$??0?$CEncrypt@_N@@QAE@XZ
  00007	e8 00 00 00 00	 call	 __EH_prolog3
  0000c	8b f1		 mov	 esi, ecx
  0000e	89 75 f0	 mov	 DWORD PTR _this$[ebp], esi
  00011	8d 4e 0c	 lea	 ecx, DWORD PTR [esi+12]
  00014	c7 06 00 00 00
	00		 mov	 DWORD PTR [esi], OFFSET ??_7?$CEncrypt@_N@@6B@
  0001a	e8 00 00 00 00	 call	 ??0ccddaabb@@QAE@XZ	; ccddaabb::ccddaabb
  0001f	83 65 fc 00	 and	 DWORD PTR __$EHRec$[ebp+8], 0

; 110  : 	{
; 111  : 		Init();

  00023	8b ce		 mov	 ecx, esi
  00025	e8 00 00 00 00	 call	 ?Init@?$CEncrypt@_N@@AAEXXZ ; CEncrypt<bool>::Init

; 112  : 	}

  0002a	8b c6		 mov	 eax, esi
  0002c	e8 00 00 00 00	 call	 __EH_epilog3
  00031	c3		 ret	 0
_TEXT	ENDS
;	COMDAT text$x
text$x	SEGMENT
__unwindfunclet$??0?$CEncrypt@_N@@QAE@XZ$0:
  00000	8b 4d f0	 mov	 ecx, DWORD PTR _this$[ebp]
  00003	83 c1 0c	 add	 ecx, 12			; 0000000cH
  00006	e9 00 00 00 00	 jmp	 ??1ccddaabb@@UAE@XZ	; ccddaabb::~ccddaabb
__ehhandler$??0?$CEncrypt@_N@@QAE@XZ:
  0000b	8b 54 24 08	 mov	 edx, DWORD PTR [esp+8]
  0000f	8d 42 0c	 lea	 eax, DWORD PTR [edx+12]
  00012	8b 4a ec	 mov	 ecx, DWORD PTR [edx-20]
  00015	33 c8		 xor	 ecx, eax
  00017	e8 00 00 00 00	 call	 @__security_check_cookie@4
  0001c	b8 00 00 00 00	 mov	 eax, OFFSET __ehfuncinfo$??0?$CEncrypt@_N@@QAE@XZ
  00021	e9 00 00 00 00	 jmp	 ___CxxFrameHandler3
text$x	ENDS
??0?$CEncrypt@_N@@QAE@XZ ENDP				; CEncrypt<bool>::CEncrypt<bool>
PUBLIC	??B?$CEncrypt@_N@@QAE_NXZ			; CEncrypt<bool>::operator bool
; Function compile flags: /Ogsp
;	COMDAT ??B?$CEncrypt@_N@@QAE_NXZ
_TEXT	SEGMENT
_value$ = -1						; size = 1
??B?$CEncrypt@_N@@QAE_NXZ PROC				; CEncrypt<bool>::operator bool, COMDAT
; _this$ = ecx

; 134  : 	{

  00000	55		 push	 ebp
  00001	8b ec		 mov	 ebp, esp
  00003	51		 push	 ecx

; 135  : 		type value;
; 136  : 		DecryptValueToPool(&value);

  00004	8d 45 ff	 lea	 eax, DWORD PTR _value$[ebp]
  00007	50		 push	 eax
  00008	e8 00 00 00 00	 call	 ?DecryptValueToPool@?$CEncrypt@_N@@QAEXPA_N@Z ; CEncrypt<bool>::DecryptValueToPool

; 137  : 
; 138  : #ifdef _NOTUSE
; 139  : 		Debug();
; 140  : #endif
; 141  : 		return value;

  0000d	8a 45 ff	 mov	 al, BYTE PTR _value$[ebp]

; 142  : 	}

  00010	c9		 leave
  00011	c3		 ret	 0
??B?$CEncrypt@_N@@QAE_NXZ ENDP				; CEncrypt<bool>::operator bool
_TEXT	ENDS
PUBLIC	??B?$CEncrypt@_N@@QBE_NXZ			; CEncrypt<bool>::operator bool
; Function compile flags: /Ogsp
;	COMDAT ??B?$CEncrypt@_N@@QBE_NXZ
_TEXT	SEGMENT
_value$ = -1						; size = 1
??B?$CEncrypt@_N@@QBE_NXZ PROC				; CEncrypt<bool>::operator bool, COMDAT
; _this$ = ecx

; 145  : 	{

  00000	55		 push	 ebp
  00001	8b ec		 mov	 ebp, esp
  00003	51		 push	 ecx

; 146  : 		//UJ 130829, const    --start
; 147  : 		type value;
; 148  : 		CEncrypt<type>* pThis = const_cast<CEncrypt<type>*>(this);
; 149  : 		pThis->DecryptValueToPool(&value);

  00004	8d 45 ff	 lea	 eax, DWORD PTR _value$[ebp]
  00007	50		 push	 eax
  00008	e8 00 00 00 00	 call	 ?DecryptValueToPool@?$CEncrypt@_N@@QAEXPA_N@Z ; CEncrypt<bool>::DecryptValueToPool

; 150  : 		//// const DecryptValueToPool     .
; 151  :  		//type value;
; 152  : 		//char szTempMem[MAX_ENCRYPT];
; 153  : 		//m_RC5.DecryptByte( m_MemPool, szTempMem, max(m_ValueSize, DEFAULT_ENCRYPT) );
; 154  : 		//memcpy( &value, szTempMem, m_ValueSize );
; 155  : 		//UJ --end
; 156  : 
; 157  : #ifdef _NOTUSE
; 158  : 		Debug();
; 159  : #endif
; 160  : 		return value;

  0000d	8a 45 ff	 mov	 al, BYTE PTR _value$[ebp]

; 161  : 	}

  00010	c9		 leave
  00011	c3		 ret	 0
??B?$CEncrypt@_N@@QBE_NXZ ENDP				; CEncrypt<bool>::operator bool
_TEXT	ENDS
PUBLIC	??4?$CEncrypt@_N@@QAE_N_N@Z			; CEncrypt<bool>::operator=
; Function compile flags: /Ogsp
;	COMDAT ??4?$CEncrypt@_N@@QAE_N_N@Z
_TEXT	SEGMENT
_inValue$ = 8						; size = 1
_value$ = 11						; size = 1
??4?$CEncrypt@_N@@QAE_N_N@Z PROC			; CEncrypt<bool>::operator=, COMDAT
; _this$ = ecx

; 225  : 	{

  00000	55		 push	 ebp
  00001	8b ec		 mov	 ebp, esp

; 226  : 		type value = inValue;

  00003	8a 45 08	 mov	 al, BYTE PTR _inValue$[ebp]
  00006	88 45 0b	 mov	 BYTE PTR _value$[ebp], al

; 227  : 		EncryptValueToPool((char*)&value);

  00009	8d 45 0b	 lea	 eax, DWORD PTR _value$[ebp]
  0000c	50		 push	 eax
  0000d	e8 00 00 00 00	 call	 ?EncryptValueToPool@?$CEncrypt@_N@@AAEXPBD@Z ; CEncrypt<bool>::EncryptValueToPool

; 228  : #ifdef _NOTUSE
; 229  : 		m_value = inValue;
; 230  : 		Debug();
; 231  : #endif
; 232  : 		return value;

  00012	8a 45 0b	 mov	 al, BYTE PTR _value$[ebp]

; 233  : 	}

  00015	5d		 pop	 ebp
  00016	c2 04 00	 ret	 4
??4?$CEncrypt@_N@@QAE_N_N@Z ENDP			; CEncrypt<bool>::operator=
_TEXT	ENDS
PUBLIC	??B?$CEncrypt@H@@QAEHXZ				; CEncrypt<int>::operator int
; Function compile flags: /Ogsp
;	COMDAT ??B?$CEncrypt@H@@QAEHXZ
_TEXT	SEGMENT
_value$ = -4						; size = 4
??B?$CEncrypt@H@@QAEHXZ PROC				; CEncrypt<int>::operator int, COMDAT
; _this$ = ecx

; 134  : 	{

  00000	55		 push	 ebp
  00001	8b ec		 mov	 ebp, esp
  00003	51		 push	 ecx

; 135  : 		type value;
; 136  : 		DecryptValueToPool(&value);

  00004	8d 45 fc	 lea	 eax, DWORD PTR _value$[ebp]
  00007	50		 push	 eax
  00008	e8 00 00 00 00	 call	 ?DecryptValueToPool@?$CEncrypt@H@@QAEXPAH@Z ; CEncrypt<int>::DecryptValueToPool

; 137  : 
; 138  : #ifdef _NOTUSE
; 139  : 		Debug();
; 140  : #endif
; 141  : 		return value;

  0000d	8b 45 fc	 mov	 eax, DWORD PTR _value$[ebp]

; 142  : 	}

  00010	c9		 leave
  00011	c3		 ret	 0
??B?$CEncrypt@H@@QAEHXZ ENDP				; CEncrypt<int>::operator int
_TEXT	ENDS
PUBLIC	?begin@?$vector@VioHashString@@V?$allocator@VioHashString@@@std@@@std@@QAE?AV?$_Vector_iterator@V?$_Vector_val@VioHashString@@V?$allocator@VioHashString@@@std@@@std@@@2@XZ ; std::vector<ioHashString,std::allocator<ioHashString> >::begin
; Function compile flags: /Ogsp
; File c:\program files (x86)\microsoft visual studio 10.0\vc\include\vector
;	COMDAT ?begin@?$vector@VioHashString@@V?$allocator@VioHashString@@@std@@@std@@QAE?AV?$_Vector_iterator@V?$_Vector_val@VioHashString@@V?$allocator@VioHashString@@@std@@@std@@@2@XZ
_TEXT	SEGMENT
___$ReturnUdt$ = 8					; size = 4
?begin@?$vector@VioHashString@@V?$allocator@VioHashString@@@std@@@std@@QAE?AV?$_Vector_iterator@V?$_Vector_val@VioHashString@@V?$allocator@VioHashString@@@std@@@std@@@2@XZ PROC ; std::vector<ioHashString,std::allocator<ioHashString> >::begin, COMDAT
; _this$ = ecx

; 781  : 		{	// return iterator for beginning of mutable sequence

  00000	55		 push	 ebp
  00001	8b ec		 mov	 ebp, esp

; 782  : 		return (iterator(this->_Myfirst, this));

  00003	8b 09		 mov	 ecx, DWORD PTR [ecx]
  00005	8b 45 08	 mov	 eax, DWORD PTR ___$ReturnUdt$[ebp]
  00008	89 08		 mov	 DWORD PTR [eax], ecx

; 783  : 		}

  0000a	5d		 pop	 ebp
  0000b	c2 04 00	 ret	 4
?begin@?$vector@VioHashString@@V?$allocator@VioHashString@@@std@@@std@@QAE?AV?$_Vector_iterator@V?$_Vector_val@VioHashString@@V?$allocator@VioHashString@@@std@@@std@@@2@XZ ENDP ; std::vector<ioHashString,std::allocator<ioHashString> >::begin
_TEXT	ENDS
PUBLIC	?begin@?$vector@VioHashString@@V?$allocator@VioHashString@@@std@@@std@@QBE?AV?$_Vector_const_iterator@V?$_Vector_val@VioHashString@@V?$allocator@VioHashString@@@std@@@std@@@2@XZ ; std::vector<ioHashString,std::allocator<ioHashString> >::begin
; Function compile flags: /Ogsp
;	COMDAT ?begin@?$vector@VioHashString@@V?$allocator@VioHashString@@@std@@@std@@QBE?AV?$_Vector_const_iterator@V?$_Vector_val@VioHashString@@V?$allocator@VioHashString@@@std@@@std@@@2@XZ
_TEXT	SEGMENT
___$ReturnUdt$ = 8					; size = 4
?begin@?$vector@VioHashString@@V?$allocator@VioHashString@@@std@@@std@@QBE?AV?$_Vector_const_iterator@V?$_Vector_val@VioHashString@@V?$allocator@VioHashString@@@std@@@std@@@2@XZ PROC ; std::vector<ioHashString,std::allocator<ioHashString> >::begin, COMDAT
; _this$ = ecx

; 786  : 		{	// return iterator for beginning of nonmutable sequence

  00000	55		 push	 ebp
  00001	8b ec		 mov	 ebp, esp

; 787  : 		return (const_iterator(this->_Myfirst, this));

  00003	8b 09		 mov	 ecx, DWORD PTR [ecx]
  00005	8b 45 08	 mov	 eax, DWORD PTR ___$ReturnUdt$[ebp]
  00008	89 08		 mov	 DWORD PTR [eax], ecx

; 788  : 		}

  0000a	5d		 pop	 ebp
  0000b	c2 04 00	 ret	 4
?begin@?$vector@VioHashString@@V?$allocator@VioHashString@@@std@@@std@@QBE?AV?$_Vector_const_iterator@V?$_Vector_val@VioHashString@@V?$allocator@VioHashString@@@std@@@std@@@2@XZ ENDP ; std::vector<ioHashString,std::allocator<ioHashString> >::begin
_TEXT	ENDS
PUBLIC	?end@?$vector@VioHashString@@V?$allocator@VioHashString@@@std@@@std@@QAE?AV?$_Vector_iterator@V?$_Vector_val@VioHashString@@V?$allocator@VioHashString@@@std@@@std@@@2@XZ ; std::vector<ioHashString,std::allocator<ioHashString> >::end
; Function compile flags: /Ogsp
;	COMDAT ?end@?$vector@VioHashString@@V?$allocator@VioHashString@@@std@@@std@@QAE?AV?$_Vector_iterator@V?$_Vector_val@VioHashString@@V?$allocator@VioHashString@@@std@@@std@@@2@XZ
_TEXT	SEGMENT
___$ReturnUdt$ = 8					; size = 4
?end@?$vector@VioHashString@@V?$allocator@VioHashString@@@std@@@std@@QAE?AV?$_Vector_iterator@V?$_Vector_val@VioHashString@@V?$allocator@VioHashString@@@std@@@std@@@2@XZ PROC ; std::vector<ioHashString,std::allocator<ioHashString> >::end, COMDAT
; _this$ = ecx

; 791  : 		{	// return iterator for end of mutable sequence

  00000	55		 push	 ebp
  00001	8b ec		 mov	 ebp, esp

; 792  : 		return (iterator(this->_Mylast, this));

  00003	8b 49 04	 mov	 ecx, DWORD PTR [ecx+4]
  00006	8b 45 08	 mov	 eax, DWORD PTR ___$ReturnUdt$[ebp]
  00009	89 08		 mov	 DWORD PTR [eax], ecx

; 793  : 		}

  0000b	5d		 pop	 ebp
  0000c	c2 04 00	 ret	 4
?end@?$vector@VioHashString@@V?$allocator@VioHashString@@@std@@@std@@QAE?AV?$_Vector_iterator@V?$_Vector_val@VioHashString@@V?$allocator@VioHashString@@@std@@@std@@@2@XZ ENDP ; std::vector<ioHashString,std::allocator<ioHashString> >::end
_TEXT	ENDS
PUBLIC	?end@?$vector@VioHashString@@V?$allocator@VioHashString@@@std@@@std@@QBE?AV?$_Vector_const_iterator@V?$_Vector_val@VioHashString@@V?$allocator@VioHashString@@@std@@@std@@@2@XZ ; std::vector<ioHashString,std::allocator<ioHashString> >::end
; Function compile flags: /Ogsp
;	COMDAT ?end@?$vector@VioHashString@@V?$allocator@VioHashString@@@std@@@std@@QBE?AV?$_Vector_const_iterator@V?$_Vector_val@VioHashString@@V?$allocator@VioHashString@@@std@@@std@@@2@XZ
_TEXT	SEGMENT
___$ReturnUdt$ = 8					; size = 4
?end@?$vector@VioHashString@@V?$allocator@VioHashString@@@std@@@std@@QBE?AV?$_Vector_const_iterator@V?$_Vector_val@VioHashString@@V?$allocator@VioHashString@@@std@@@std@@@2@XZ PROC ; std::vector<ioHashString,std::allocator<ioHashString> >::end, COMDAT
; _this$ = ecx

; 796  : 		{	// return iterator for end of nonmutable sequence

  00000	55		 push	 ebp
  00001	8b ec		 mov	 ebp, esp

; 797  : 		return (const_iterator(this->_Mylast, this));

  00003	8b 49 04	 mov	 ecx, DWORD PTR [ecx+4]
  00006	8b 45 08	 mov	 eax, DWORD PTR ___$ReturnUdt$[ebp]
  00009	89 08		 mov	 DWORD PTR [eax], ecx

; 798  : 		}

  0000b	5d		 pop	 ebp
  0000c	c2 04 00	 ret	 4
?end@?$vector@VioHashString@@V?$allocator@VioHashString@@@std@@@std@@QBE?AV?$_Vector_const_iterator@V?$_Vector_val@VioHashString@@V?$allocator@VioHashString@@@std@@@std@@@2@XZ ENDP ; std::vector<ioHashString,std::allocator<ioHashString> >::end
_TEXT	ENDS
PUBLIC	??0?$_Vector_val@VioHashString@@V?$allocator@VioHashString@@@std@@@std@@QAE@V?$allocator@VioHashString@@@1@@Z ; std::_Vector_val<ioHashString,std::allocator<ioHashString> >::_Vector_val<ioHashString,std::allocator<ioHashString> >
; Function compile flags: /Ogsp
;	COMDAT ??0?$_Vector_val@VioHashString@@V?$allocator@VioHashString@@@std@@@std@@QAE@V?$allocator@VioHashString@@@1@@Z
_TEXT	SEGMENT
__Al$ = 8						; size = 1
??0?$_Vector_val@VioHashString@@V?$allocator@VioHashString@@@std@@@std@@QAE@V?$allocator@VioHashString@@@1@@Z PROC ; std::_Vector_val<ioHashString,std::allocator<ioHashString> >::_Vector_val<ioHashString,std::allocator<ioHashString> >, COMDAT
; _this$ = ecx

; 426  : 		{	// construct allocator from _Al

  00000	8b c1		 mov	 eax, ecx

; 427  : 		_Myfirst = 0;

  00002	33 c9		 xor	 ecx, ecx
  00004	89 08		 mov	 DWORD PTR [eax], ecx

; 428  : 		_Mylast = 0;

  00006	89 48 04	 mov	 DWORD PTR [eax+4], ecx

; 429  : 		_Myend = 0;

  00009	89 48 08	 mov	 DWORD PTR [eax+8], ecx

; 430  : 		}

  0000c	c2 04 00	 ret	 4
??0?$_Vector_val@VioHashString@@V?$allocator@VioHashString@@@std@@@std@@QAE@V?$allocator@VioHashString@@@1@@Z ENDP ; std::_Vector_val<ioHashString,std::allocator<ioHashString> >::_Vector_val<ioHashString,std::allocator<ioHashString> >
_TEXT	ENDS
PUBLIC	??0?$_Vector_val@UtagDummyCharLoadInfo@@V?$allocator@UtagDummyCharLoadInfo@@@std@@@std@@QAE@V?$allocator@UtagDummyCharLoadInfo@@@1@@Z ; std::_Vector_val<tagDummyCharLoadInfo,std::allocator<tagDummyCharLoadInfo> >::_Vector_val<tagDummyCharLoadInfo,std::allocator<tagDummyCharLoadInfo> >
; Function compile flags: /Ogsp
;	COMDAT ??0?$_Vector_val@UtagDummyCharLoadInfo@@V?$allocator@UtagDummyCharLoadInfo@@@std@@@std@@QAE@V?$allocator@UtagDummyCharLoadInfo@@@1@@Z
_TEXT	SEGMENT
__Al$ = 8						; size = 1
??0?$_Vector_val@UtagDummyCharLoadInfo@@V?$allocator@UtagDummyCharLoadInfo@@@std@@@std@@QAE@V?$allocator@UtagDummyCharLoadInfo@@@1@@Z PROC ; std::_Vector_val<tagDummyCharLoadInfo,std::allocator<tagDummyCharLoadInfo> >::_Vector_val<tagDummyCharLoadInfo,std::allocator<tagDummyCharLoadInfo> >, COMDAT
; _this$ = ecx

; 426  : 		{	// construct allocator from _Al

  00000	8b c1		 mov	 eax, ecx

; 427  : 		_Myfirst = 0;

  00002	33 c9		 xor	 ecx, ecx
  00004	89 08		 mov	 DWORD PTR [eax], ecx

; 428  : 		_Mylast = 0;

  00006	89 48 04	 mov	 DWORD PTR [eax+4], ecx

; 429  : 		_Myend = 0;

  00009	89 48 08	 mov	 DWORD PTR [eax+8], ecx

; 430  : 		}

  0000c	c2 04 00	 ret	 4
??0?$_Vector_val@UtagDummyCharLoadInfo@@V?$allocator@UtagDummyCharLoadInfo@@@std@@@std@@QAE@V?$allocator@UtagDummyCharLoadInfo@@@1@@Z ENDP ; std::_Vector_val<tagDummyCharLoadInfo,std::allocator<tagDummyCharLoadInfo> >::_Vector_val<tagDummyCharLoadInfo,std::allocator<tagDummyCharLoadInfo> >
_TEXT	ENDS
PUBLIC	?_Make_iter@?$vector@VioHashString@@V?$allocator@VioHashString@@@std@@@std@@QBE?AV?$_Vector_iterator@V?$_Vector_val@VioHashString@@V?$allocator@VioHashString@@@std@@@std@@@2@V?$_Vector_const_iterator@V?$_Vector_val@VioHashString@@V?$allocator@VioHashString@@@std@@@std@@@2@@Z ; std::vector<ioHashString,std::allocator<ioHashString> >::_Make_iter
; Function compile flags: /Ogsp
;	COMDAT ?_Make_iter@?$vector@VioHashString@@V?$allocator@VioHashString@@@std@@@std@@QBE?AV?$_Vector_iterator@V?$_Vector_val@VioHashString@@V?$allocator@VioHashString@@@std@@@std@@@2@V?$_Vector_const_iterator@V?$_Vector_val@VioHashString@@V?$allocator@VioHashString@@@std@@@std@@@2@@Z
_TEXT	SEGMENT
___$ReturnUdt$ = 8					; size = 4
__Where$ = 12						; size = 4
?_Make_iter@?$vector@VioHashString@@V?$allocator@VioHashString@@@std@@@std@@QBE?AV?$_Vector_iterator@V?$_Vector_val@VioHashString@@V?$allocator@VioHashString@@@std@@@std@@@2@V?$_Vector_const_iterator@V?$_Vector_val@VioHashString@@V?$allocator@VioHashString@@@std@@@std@@@2@@Z PROC ; std::vector<ioHashString,std::allocator<ioHashString> >::_Make_iter, COMDAT
; _this$ = ecx

; 801  : 		{	// make iterator from const_iterator

  00000	55		 push	 ebp
  00001	8b ec		 mov	 ebp, esp

; 802  : 		return (iterator(_Where._Ptr, this));

  00003	8b 45 08	 mov	 eax, DWORD PTR ___$ReturnUdt$[ebp]
  00006	8b 4d 0c	 mov	 ecx, DWORD PTR __Where$[ebp]
  00009	89 08		 mov	 DWORD PTR [eax], ecx

; 803  : 		}

  0000b	5d		 pop	 ebp
  0000c	c2 08 00	 ret	 8
?_Make_iter@?$vector@VioHashString@@V?$allocator@VioHashString@@@std@@@std@@QBE?AV?$_Vector_iterator@V?$_Vector_val@VioHashString@@V?$allocator@VioHashString@@@std@@@std@@@2@V?$_Vector_const_iterator@V?$_Vector_val@VioHashString@@V?$allocator@VioHashString@@@std@@@std@@@2@@Z ENDP ; std::vector<ioHashString,std::allocator<ioHashString> >::_Make_iter
_TEXT	ENDS
PUBLIC	?max_size@?$vector@VioHashString@@V?$allocator@VioHashString@@@std@@@std@@QBEIXZ ; std::vector<ioHashString,std::allocator<ioHashString> >::max_size
; Function compile flags: /Ogsp
;	COMDAT ?max_size@?$vector@VioHashString@@V?$allocator@VioHashString@@@std@@@std@@QBEIXZ
_TEXT	SEGMENT
?max_size@?$vector@VioHashString@@V?$allocator@VioHashString@@@std@@@std@@QBEIXZ PROC ; std::vector<ioHashString,std::allocator<ioHashString> >::max_size, COMDAT
; _this$ = ecx

; 884  : 		return (this->_Alval.max_size());

  00000	b8 ff ff ff 0f	 mov	 eax, 268435455		; 0fffffffH

; 885  : 		}

  00005	c3		 ret	 0
?max_size@?$vector@VioHashString@@V?$allocator@VioHashString@@@std@@@std@@QBEIXZ ENDP ; std::vector<ioHashString,std::allocator<ioHashString> >::max_size
_TEXT	ENDS
PUBLIC	?allocate@?$allocator@VioHashString@@@std@@QAEPAVioHashString@@I@Z ; std::allocator<ioHashString>::allocate
; Function compile flags: /Ogsp
; File c:\program files (x86)\microsoft visual studio 10.0\vc\include\xmemory
;	COMDAT ?allocate@?$allocator@VioHashString@@@std@@QAEPAVioHashString@@I@Z
_TEXT	SEGMENT
__Count$ = 8						; size = 4
?allocate@?$allocator@VioHashString@@@std@@QAEPAVioHashString@@I@Z PROC ; std::allocator<ioHashString>::allocate, COMDAT
; _this$ = ecx

; 186  : 		{	// allocate array of _Count elements

  00000	55		 push	 ebp
  00001	8b ec		 mov	 ebp, esp

; 187  : 		return (_Allocate(_Count, (pointer)0));

  00003	6a 00		 push	 0
  00005	ff 75 08	 push	 DWORD PTR __Count$[ebp]
  00008	e8 00 00 00 00	 call	 ??$_Allocate@VioHashString@@@std@@YAPAVioHashString@@IPAV1@@Z ; std::_Allocate<ioHashString>
  0000d	59		 pop	 ecx
  0000e	59		 pop	 ecx

; 188  : 		}

  0000f	5d		 pop	 ebp
  00010	c2 04 00	 ret	 4
?allocate@?$allocator@VioHashString@@@std@@QAEPAVioHashString@@I@Z ENDP ; std::allocator<ioHashString>::allocate
_TEXT	ENDS
PUBLIC	??0?$_Vector_iterator@V?$_Vector_val@UtagDummyCharLoadInfo@@V?$allocator@UtagDummyCharLoadInfo@@@std@@@std@@@std@@QAE@PAUtagDummyCharLoadInfo@@PBU_Container_base0@1@@Z ; std::_Vector_iterator<std::_Vector_val<tagDummyCharLoadInfo,std::allocator<tagDummyCharLoadInfo> > >::_Vector_iterator<std::_Vector_val<tagDummyCharLoadInfo,std::allocator<tagDummyCharLoadInfo> > >
; Function compile flags: /Ogsp
; File c:\program files (x86)\microsoft visual studio 10.0\vc\include\vector
;	COMDAT ??0?$_Vector_iterator@V?$_Vector_val@UtagDummyCharLoadInfo@@V?$allocator@UtagDummyCharLoadInfo@@@std@@@std@@@std@@QAE@PAUtagDummyCharLoadInfo@@PBU_Container_base0@1@@Z
_TEXT	SEGMENT
__Parg$ = 8						; size = 4
__Pvector$ = 12						; size = 4
??0?$_Vector_iterator@V?$_Vector_val@UtagDummyCharLoadInfo@@V?$allocator@UtagDummyCharLoadInfo@@@std@@@std@@@std@@QAE@PAUtagDummyCharLoadInfo@@PBU_Container_base0@1@@Z PROC ; std::_Vector_iterator<std::_Vector_val<tagDummyCharLoadInfo,std::allocator<tagDummyCharLoadInfo> > >::_Vector_iterator<std::_Vector_val<tagDummyCharLoadInfo,std::allocator<tagDummyCharLoadInfo> > >, COMDAT
; _this$ = ecx

; 304  : 		{	// construct with pointer _Parg

  00000	55		 push	 ebp
  00001	8b ec		 mov	 ebp, esp
  00003	8b c1		 mov	 eax, ecx
  00005	8b 4d 08	 mov	 ecx, DWORD PTR __Parg$[ebp]
  00008	89 08		 mov	 DWORD PTR [eax], ecx

; 305  : 		}

  0000a	5d		 pop	 ebp
  0000b	c2 08 00	 ret	 8
??0?$_Vector_iterator@V?$_Vector_val@UtagDummyCharLoadInfo@@V?$allocator@UtagDummyCharLoadInfo@@@std@@@std@@@std@@QAE@PAUtagDummyCharLoadInfo@@PBU_Container_base0@1@@Z ENDP ; std::_Vector_iterator<std::_Vector_val<tagDummyCharLoadInfo,std::allocator<tagDummyCharLoadInfo> > >::_Vector_iterator<std::_Vector_val<tagDummyCharLoadInfo,std::allocator<tagDummyCharLoadInfo> > >
_TEXT	ENDS
PUBLIC	??8?$_Vector_const_iterator@V?$_Vector_val@VioHashString@@V?$allocator@VioHashString@@@std@@@std@@@std@@QBE_NABV01@@Z ; std::_Vector_const_iterator<std::_Vector_val<ioHashString,std::allocator<ioHashString> > >::operator==
; Function compile flags: /Ogsp
;	COMDAT ??8?$_Vector_const_iterator@V?$_Vector_val@VioHashString@@V?$allocator@VioHashString@@@std@@@std@@@std@@QBE_NABV01@@Z
_TEXT	SEGMENT
__Right$ = 8						; size = 4
??8?$_Vector_const_iterator@V?$_Vector_val@VioHashString@@V?$allocator@VioHashString@@@std@@@std@@@std@@QBE_NABV01@@Z PROC ; std::_Vector_const_iterator<std::_Vector_val<ioHashString,std::allocator<ioHashString> > >::operator==, COMDAT
; _this$ = ecx

; 201  : 		{	// test for iterator equality

  00000	55		 push	 ebp
  00001	8b ec		 mov	 ebp, esp

; 202  : 		_Compat(_Right);
; 203  : 		return (this->_Ptr == _Right._Ptr);

  00003	8b 01		 mov	 eax, DWORD PTR [ecx]
  00005	8b 4d 08	 mov	 ecx, DWORD PTR __Right$[ebp]
  00008	2b 01		 sub	 eax, DWORD PTR [ecx]
  0000a	f7 d8		 neg	 eax
  0000c	1b c0		 sbb	 eax, eax
  0000e	40		 inc	 eax

; 204  : 		}

  0000f	5d		 pop	 ebp
  00010	c2 04 00	 ret	 4
??8?$_Vector_const_iterator@V?$_Vector_val@VioHashString@@V?$allocator@VioHashString@@@std@@@std@@@std@@QBE_NABV01@@Z ENDP ; std::_Vector_const_iterator<std::_Vector_val<ioHashString,std::allocator<ioHashString> > >::operator==
_TEXT	ENDS
PUBLIC	??8?$_Vector_const_iterator@V?$_Vector_val@UtagDummyCharLoadInfo@@V?$allocator@UtagDummyCharLoadInfo@@@std@@@std@@@std@@QBE_NABV01@@Z ; std::_Vector_const_iterator<std::_Vector_val<tagDummyCharLoadInfo,std::allocator<tagDummyCharLoadInfo> > >::operator==
; Function compile flags: /Ogsp
;	COMDAT ??8?$_Vector_const_iterator@V?$_Vector_val@UtagDummyCharLoadInfo@@V?$allocator@UtagDummyCharLoadInfo@@@std@@@std@@@std@@QBE_NABV01@@Z
_TEXT	SEGMENT
__Right$ = 8						; size = 4
??8?$_Vector_const_iterator@V?$_Vector_val@UtagDummyCharLoadInfo@@V?$allocator@UtagDummyCharLoadInfo@@@std@@@std@@@std@@QBE_NABV01@@Z PROC ; std::_Vector_const_iterator<std::_Vector_val<tagDummyCharLoadInfo,std::allocator<tagDummyCharLoadInfo> > >::operator==, COMDAT
; _this$ = ecx

; 201  : 		{	// test for iterator equality

  00000	55		 push	 ebp
  00001	8b ec		 mov	 ebp, esp

; 202  : 		_Compat(_Right);
; 203  : 		return (this->_Ptr == _Right._Ptr);

  00003	8b 01		 mov	 eax, DWORD PTR [ecx]
  00005	8b 4d 08	 mov	 ecx, DWORD PTR __Right$[ebp]
  00008	2b 01		 sub	 eax, DWORD PTR [ecx]
  0000a	f7 d8		 neg	 eax
  0000c	1b c0		 sbb	 eax, eax
  0000e	40		 inc	 eax

; 204  : 		}

  0000f	5d		 pop	 ebp
  00010	c2 04 00	 ret	 4
??8?$_Vector_const_iterator@V?$_Vector_val@UtagDummyCharLoadInfo@@V?$allocator@UtagDummyCharLoadInfo@@@std@@@std@@@std@@QBE_NABV01@@Z ENDP ; std::_Vector_const_iterator<std::_Vector_val<tagDummyCharLoadInfo,std::allocator<tagDummyCharLoadInfo> > >::operator==
_TEXT	ENDS
PUBLIC	??$_Move@PAVioHashString@@PAV1@@std@@YAPAVioHashString@@PAV1@00U_Nonscalar_ptr_iterator_tag@0@@Z ; std::_Move<ioHashString *,ioHashString *>
; Function compile flags: /Ogsp
; File c:\program files (x86)\microsoft visual studio 10.0\vc\include\xutility
;	COMDAT ??$_Move@PAVioHashString@@PAV1@@std@@YAPAVioHashString@@PAV1@00U_Nonscalar_ptr_iterator_tag@0@@Z
_TEXT	SEGMENT
__First$ = 8						; size = 4
__Last$ = 12						; size = 4
__Dest$ = 16						; size = 4
___formal$ = 20						; size = 1
??$_Move@PAVioHashString@@PAV1@@std@@YAPAVioHashString@@PAV1@00U_Nonscalar_ptr_iterator_tag@0@@Z PROC ; std::_Move<ioHashString *,ioHashString *>, COMDAT

; 2512 : 	{	// move [_First, _Last) to [_Dest, ...), arbitrary iterators

  00000	55		 push	 ebp
  00001	8b ec		 mov	 ebp, esp
  00003	56		 push	 esi

; 2513 : 	for (; _First != _Last; ++_Dest, ++_First)

  00004	8b 75 08	 mov	 esi, DWORD PTR __First$[ebp]
  00007	eb 11		 jmp	 SHORT $LN11@Move@2
$LL3@Move@2:

; 2514 : 		*_Dest = _STD move(*_First);

  00009	8b 4d 10	 mov	 ecx, DWORD PTR __Dest$[ebp]
  0000c	56		 push	 esi
  0000d	ff 15 00 00 00
	00		 call	 DWORD PTR __imp_??4ioHashString@@QAEAAV0@ABV0@@Z
  00013	83 45 10 10	 add	 DWORD PTR __Dest$[ebp], 16 ; 00000010H
  00017	83 c6 10	 add	 esi, 16			; 00000010H
$LN11@Move@2:

; 2513 : 	for (; _First != _Last; ++_Dest, ++_First)

  0001a	3b 75 0c	 cmp	 esi, DWORD PTR __Last$[ebp]
  0001d	75 ea		 jne	 SHORT $LL3@Move@2

; 2515 : 	return (_Dest);

  0001f	8b 45 10	 mov	 eax, DWORD PTR __Dest$[ebp]
  00022	5e		 pop	 esi

; 2516 : 	}

  00023	5d		 pop	 ebp
  00024	c3		 ret	 0
??$_Move@PAVioHashString@@PAV1@@std@@YAPAVioHashString@@PAV1@00U_Nonscalar_ptr_iterator_tag@0@@Z ENDP ; std::_Move<ioHashString *,ioHashString *>
_TEXT	ENDS
PUBLIC	??$_Move@PAUtagDummyCharLoadInfo@@PAU1@@std@@YAPAUtagDummyCharLoadInfo@@PAU1@00U_Nonscalar_ptr_iterator_tag@0@@Z ; std::_Move<tagDummyCharLoadInfo *,tagDummyCharLoadInfo *>
; Function compile flags: /Ogsp
;	COMDAT ??$_Move@PAUtagDummyCharLoadInfo@@PAU1@@std@@YAPAUtagDummyCharLoadInfo@@PAU1@00U_Nonscalar_ptr_iterator_tag@0@@Z
_TEXT	SEGMENT
__First$ = 8						; size = 4
__Last$ = 12						; size = 4
__Dest$ = 16						; size = 4
___formal$ = 20						; size = 1
??$_Move@PAUtagDummyCharLoadInfo@@PAU1@@std@@YAPAUtagDummyCharLoadInfo@@PAU1@00U_Nonscalar_ptr_iterator_tag@0@@Z PROC ; std::_Move<tagDummyCharLoadInfo *,tagDummyCharLoadInfo *>, COMDAT

; 2512 : 	{	// move [_First, _Last) to [_Dest, ...), arbitrary iterators

  00000	55		 push	 ebp
  00001	8b ec		 mov	 ebp, esp
  00003	56		 push	 esi

; 2513 : 	for (; _First != _Last; ++_Dest, ++_First)

  00004	8b 75 08	 mov	 esi, DWORD PTR __First$[ebp]
  00007	eb 10		 jmp	 SHORT $LN11@Move@3
$LL3@Move@3:

; 2514 : 		*_Dest = _STD move(*_First);

  00009	8b 4d 10	 mov	 ecx, DWORD PTR __Dest$[ebp]
  0000c	56		 push	 esi
  0000d	e8 00 00 00 00	 call	 ??4tagDummyCharLoadInfo@@QAEAAU0@ABU0@@Z
  00012	83 45 10 1c	 add	 DWORD PTR __Dest$[ebp], 28 ; 0000001cH
  00016	83 c6 1c	 add	 esi, 28			; 0000001cH
$LN11@Move@3:

; 2513 : 	for (; _First != _Last; ++_Dest, ++_First)

  00019	3b 75 0c	 cmp	 esi, DWORD PTR __Last$[ebp]
  0001c	75 eb		 jne	 SHORT $LL3@Move@3

; 2515 : 	return (_Dest);

  0001e	8b 45 10	 mov	 eax, DWORD PTR __Dest$[ebp]
  00021	5e		 pop	 esi

; 2516 : 	}

  00022	5d		 pop	 ebp
  00023	c3		 ret	 0
??$_Move@PAUtagDummyCharLoadInfo@@PAU1@@std@@YAPAUtagDummyCharLoadInfo@@PAU1@00U_Nonscalar_ptr_iterator_tag@0@@Z ENDP ; std::_Move<tagDummyCharLoadInfo *,tagDummyCharLoadInfo *>
_TEXT	ENDS
PUBLIC	??$_Destroy@VioHashString@@@std@@YAXPAVioHashString@@@Z ; std::_Destroy<ioHashString>
; Function compile flags: /Ogsp
; File c:\program files (x86)\microsoft visual studio 10.0\vc\include\xmemory
;	COMDAT ??$_Destroy@VioHashString@@@std@@YAXPAVioHashString@@@Z
_TEXT	SEGMENT
__Ptr$ = 8						; size = 4
??$_Destroy@VioHashString@@@std@@YAXPAVioHashString@@@Z PROC ; std::_Destroy<ioHashString>, COMDAT

; 62   : 	{	// destroy object at _Ptr

  00000	55		 push	 ebp
  00001	8b ec		 mov	 ebp, esp

; 63   : 	_Ptr->~_Ty();

  00003	8b 4d 08	 mov	 ecx, DWORD PTR __Ptr$[ebp]

; 64   : 	}

  00006	5d		 pop	 ebp

; 63   : 	_Ptr->~_Ty();

  00007	ff 25 00 00 00
	00		 jmp	 DWORD PTR __imp_??1ioHashString@@QAE@XZ
??$_Destroy@VioHashString@@@std@@YAXPAVioHashString@@@Z ENDP ; std::_Destroy<ioHashString>
_TEXT	ENDS
PUBLIC	??_GtagDummyCharLoadInfo@@QAEPAXI@Z		; tagDummyCharLoadInfo::`scalar deleting destructor'
; Function compile flags: /Ogsp
;	COMDAT ??_GtagDummyCharLoadInfo@@QAEPAXI@Z
_TEXT	SEGMENT
___flags$ = 8						; size = 4
??_GtagDummyCharLoadInfo@@QAEPAXI@Z PROC		; tagDummyCharLoadInfo::`scalar deleting destructor', COMDAT
; _this$ = ecx
  00000	55		 push	 ebp
  00001	8b ec		 mov	 ebp, esp
  00003	56		 push	 esi
  00004	8b f1		 mov	 esi, ecx
  00006	ff 15 00 00 00
	00		 call	 DWORD PTR __imp_??1ioHashString@@QAE@XZ
  0000c	f6 45 08 01	 test	 BYTE PTR ___flags$[ebp], 1
  00010	74 07		 je	 SHORT $LN1@scalar@5
  00012	56		 push	 esi
  00013	e8 00 00 00 00	 call	 ??3@YAXPAX@Z		; operator delete
  00018	59		 pop	 ecx
$LN1@scalar@5:
  00019	8b c6		 mov	 eax, esi
  0001b	5e		 pop	 esi
  0001c	5d		 pop	 ebp
  0001d	c2 04 00	 ret	 4
??_GtagDummyCharLoadInfo@@QAEPAXI@Z ENDP		; tagDummyCharLoadInfo::`scalar deleting destructor'
_TEXT	ENDS
PUBLIC	?construct@?$allocator@VioHashString@@@std@@QAEXPAVioHashString@@ABV3@@Z ; std::allocator<ioHashString>::construct
; Function compile flags: /Ogsp
;	COMDAT ?construct@?$allocator@VioHashString@@@std@@QAEXPAVioHashString@@ABV3@@Z
_TEXT	SEGMENT
__Ptr$ = 8						; size = 4
__Val$ = 12						; size = 4
?construct@?$allocator@VioHashString@@@std@@QAEXPAVioHashString@@ABV3@@Z PROC ; std::allocator<ioHashString>::construct, COMDAT
; _this$ = ecx

; 196  : 		{	// construct object at _Ptr with value _Val

  00000	55		 push	 ebp
  00001	8b ec		 mov	 ebp, esp

; 197  : 		_Construct(_Ptr, _Val);

  00003	ff 75 0c	 push	 DWORD PTR __Val$[ebp]
  00006	ff 75 08	 push	 DWORD PTR __Ptr$[ebp]
  00009	e8 00 00 00 00	 call	 ??$_Construct@VioHashString@@ABV1@@std@@YAXPAVioHashString@@ABV1@@Z ; std::_Construct<ioHashString,ioHashString const &>
  0000e	59		 pop	 ecx
  0000f	59		 pop	 ecx

; 198  : 		}

  00010	5d		 pop	 ebp
  00011	c2 08 00	 ret	 8
?construct@?$allocator@VioHashString@@@std@@QAEXPAVioHashString@@ABV3@@Z ENDP ; std::allocator<ioHashString>::construct
_TEXT	ENDS
PUBLIC	__real@406fe00000000000
PUBLIC	?StartBuff@ioCreateDummyCharBuff@@UAEXPAVioBaseChar@@@Z ; ioCreateDummyCharBuff::StartBuff
EXTRN	?SetNoWoundState@ioBaseChar@@QAEX_N@Z:PROC	; ioBaseChar::SetNoWoundState
EXTRN	?SetAlphaRateDirect@ioGameEntity@@QAEXH@Z:PROC	; ioGameEntity::SetAlphaRateDirect
EXTRN	?SetHideChar@ioBaseChar@@QAEX_N@Z:PROC		; ioBaseChar::SetHideChar
EXTRN	?StartBuff@ioBuff@@UAEXPAVioBaseChar@@@Z:PROC	; ioBuff::StartBuff
;	COMDAT __real@406fe00000000000
; File d:\lost saga for developer\youtube\tutorial\source\src\lsclient\encryptvalue.h
CONST	SEGMENT
__real@406fe00000000000 DQ 0406fe00000000000r	; 255
; Function compile flags: /Ogsp
; File d:\lost saga for developer\youtube\tutorial\source\src\lsclient\iocreatedummycharbuff.cpp
CONST	ENDS
;	COMDAT ?StartBuff@ioCreateDummyCharBuff@@UAEXPAVioBaseChar@@@Z
_TEXT	SEGMENT
_value$546068 = -1					; size = 1
_value$546075 = 8					; size = 4
_pOwner$ = 8						; size = 4
?StartBuff@ioCreateDummyCharBuff@@UAEXPAVioBaseChar@@@Z PROC ; ioCreateDummyCharBuff::StartBuff, COMDAT
; _this$ = ecx

; 57   : {

  00000	55		 push	 ebp
  00001	8b ec		 mov	 ebp, esp
  00003	51		 push	 ecx
  00004	53		 push	 ebx
  00005	56		 push	 esi

; 58   : 	ioBuff::StartBuff( pOwner );

  00006	ff 75 08	 push	 DWORD PTR _pOwner$[ebp]
  00009	8b f1		 mov	 esi, ecx
  0000b	e8 00 00 00 00	 call	 ?StartBuff@ioBuff@@UAEXPAVioBaseChar@@@Z ; ioBuff::StartBuff

; 59   : 
; 60   : 	int iAlphaRate = m_fAlphaRate * MAX_ALPHA_RATE;

  00010	f3 0f 10 86 74
	09 00 00	 movss	 xmm0, DWORD PTR [esi+2420]
  00018	0f 5a c0	 cvtps2pd xmm0, xmm0
  0001b	f2 0f 59 05 00
	00 00 00	 mulsd	 xmm0, QWORD PTR __real@406fe00000000000

; 61   : 	iAlphaRate = min( iAlphaRate, MAX_ALPHA_RATE );

  00023	b8 ff 00 00 00	 mov	 eax, 255		; 000000ffH
  00028	f2 0f 2c d8	 cvttsd2si ebx, xmm0
  0002c	3b d8		 cmp	 ebx, eax
  0002e	0f 4d d8	 cmovge	 ebx, eax

; 62   : 	iAlphaRate = max( iAlphaRate, 0 );

  00031	85 db		 test	 ebx, ebx
  00033	7f 02		 jg	 SHORT $LN9@StartBuff
  00035	33 db		 xor	 ebx, ebx
$LN9@StartBuff:

; 63   : 	if( iAlphaRate < MAX_ALPHA_RATE )

  00037	3b d8		 cmp	 ebx, eax
  00039	7d 1b		 jge	 SHORT $LN3@StartBuff

; 64   : 	{
; 65   : 		m_pOwner->SetHideChar( true );

  0003b	8b 8e 74 02 00
	00		 mov	 ecx, DWORD PTR [esi+628]
  00041	57		 push	 edi
  00042	6a 01		 push	 1
  00044	e8 00 00 00 00	 call	 ?SetHideChar@ioBaseChar@@QAEX_N@Z ; ioBaseChar::SetHideChar

; 66   : 		m_pOwner->SetAlphaRateDirect( iAlphaRate );

  00049	8b 8e 74 02 00
	00		 mov	 ecx, DWORD PTR [esi+628]
  0004f	53		 push	 ebx
  00050	e8 00 00 00 00	 call	 ?SetAlphaRateDirect@ioGameEntity@@QAEXH@Z ; ioGameEntity::SetAlphaRateDirect
  00055	5f		 pop	 edi
$LN3@StartBuff:

; 67   : 	}
; 68   : 
; 69   : 	if( m_bNoWoundState )

  00056	80 be 78 09 00
	00 00		 cmp	 BYTE PTR [esi+2424], 0
  0005d	74 0a		 je	 SHORT $LN16@StartBuff

; 70   : 		pOwner->SetNoWoundState( true );

  0005f	8b 4d 08	 mov	 ecx, DWORD PTR _pOwner$[ebp]
  00062	6a 01		 push	 1
  00064	e8 00 00 00 00	 call	 ?SetNoWoundState@ioBaseChar@@QAEX_N@Z ; ioBaseChar::SetNoWoundState
$LN16@StartBuff:

; 71   : 
; 72   : 	m_bCreatedDummy = false;
; 73   : 
; 74   : 	if( m_bHideFootDustEffect )

  00069	8d 45 ff	 lea	 eax, DWORD PTR _value$546068[ebp]
  0006c	50		 push	 eax
  0006d	8d 8e 7c 09 00
	00		 lea	 ecx, DWORD PTR [esi+2428]
  00073	c6 86 7a 09 00
	00 00		 mov	 BYTE PTR [esi+2426], 0
  0007a	e8 00 00 00 00	 call	 ?DecryptValueToPool@?$CEncrypt@_N@@QAEXPA_N@Z ; CEncrypt<bool>::DecryptValueToPool
  0007f	80 7d ff 00	 cmp	 BYTE PTR _value$546068[ebp], 0
  00083	74 0a		 je	 SHORT $LN12@StartBuff

; 75   : 	{
; 76   : 		pOwner->SetHideFootDustEffect( true );

  00085	8b 45 08	 mov	 eax, DWORD PTR _pOwner$[ebp]
  00088	c6 80 de 13 00
	00 01		 mov	 BYTE PTR [eax+5086], 1
$LN12@StartBuff:

; 77   : 	}
; 78   : 
; 79   : 	m_iCurActiveCount = m_iMaxActiveCount;

  0008f	8d 45 08	 lea	 eax, DWORD PTR _value$546075[ebp]
  00092	50		 push	 eax
  00093	8d 8e fc 08 00
	00		 lea	 ecx, DWORD PTR [esi+2300]
  00099	e8 00 00 00 00	 call	 ?DecryptValueToPool@?$CEncrypt@H@@QAEXPAH@Z ; CEncrypt<int>::DecryptValueToPool
  0009e	8b 45 08	 mov	 eax, DWORD PTR _value$546075[ebp]
  000a1	89 86 2c 09 00
	00		 mov	 DWORD PTR [esi+2348], eax
  000a7	5e		 pop	 esi
  000a8	5b		 pop	 ebx

; 80   : }

  000a9	c9		 leave
  000aa	c2 04 00	 ret	 4
?StartBuff@ioCreateDummyCharBuff@@UAEXPAVioBaseChar@@@Z ENDP ; ioCreateDummyCharBuff::StartBuff
_TEXT	ENDS
PUBLIC	?ApplyStartBuff@ioCreateDummyCharBuff@@UAE_NPAVioBaseChar@@KK@Z ; ioCreateDummyCharBuff::ApplyStartBuff
EXTRN	?ApplyStartBuff@ioBuff@@UAE_NPAVioBaseChar@@KK@Z:PROC ; ioBuff::ApplyStartBuff
; Function compile flags: /Ogsp
;	COMDAT ?ApplyStartBuff@ioCreateDummyCharBuff@@UAE_NPAVioBaseChar@@KK@Z
_TEXT	SEGMENT
_pOwner$ = 8						; size = 4
_dwGlobalTime$ = 12					; size = 4
_dwGapTime$ = 16					; size = 4
_value$546088 = 19					; size = 1
?ApplyStartBuff@ioCreateDummyCharBuff@@UAE_NPAVioBaseChar@@KK@Z PROC ; ioCreateDummyCharBuff::ApplyStartBuff, COMDAT
; _this$ = ecx

; 83   : {

  00000	55		 push	 ebp
  00001	8b ec		 mov	 ebp, esp
  00003	57		 push	 edi

; 84   : 	if( !ioBuff::ApplyStartBuff( pOwner, dwGlobalTime, dwGapTime ) )

  00004	ff 75 10	 push	 DWORD PTR _dwGapTime$[ebp]
  00007	8b f9		 mov	 edi, ecx
  00009	ff 75 0c	 push	 DWORD PTR _dwGlobalTime$[ebp]
  0000c	ff 75 08	 push	 DWORD PTR _pOwner$[ebp]
  0000f	e8 00 00 00 00	 call	 ?ApplyStartBuff@ioBuff@@UAE_NPAVioBaseChar@@KK@Z ; ioBuff::ApplyStartBuff
  00014	84 c0		 test	 al, al
  00016	74 7c		 je	 SHORT $LN5@ApplyStart
$LN4@ApplyStart:

; 85   : 		return false;
; 86   : 
; 87   : 	int iAlphaRate = m_fAlphaRate * MAX_ALPHA_RATE;

  00018	f3 0f 10 87 74
	09 00 00	 movss	 xmm0, DWORD PTR [edi+2420]
  00020	53		 push	 ebx
  00021	0f 5a c0	 cvtps2pd xmm0, xmm0
  00024	f2 0f 59 05 00
	00 00 00	 mulsd	 xmm0, QWORD PTR __real@406fe00000000000

; 88   : 	iAlphaRate = min( iAlphaRate, MAX_ALPHA_RATE );

  0002c	b8 ff 00 00 00	 mov	 eax, 255		; 000000ffH
  00031	f2 0f 2c d8	 cvttsd2si ebx, xmm0
  00035	3b d8		 cmp	 ebx, eax
  00037	0f 4d d8	 cmovge	 ebx, eax

; 89   : 	iAlphaRate = max( iAlphaRate, 0 );

  0003a	85 db		 test	 ebx, ebx
  0003c	7f 02		 jg	 SHORT $LN10@ApplyStart
  0003e	33 db		 xor	 ebx, ebx
$LN10@ApplyStart:

; 90   : 	if( iAlphaRate < MAX_ALPHA_RATE )

  00040	3b d8		 cmp	 ebx, eax
  00042	7d 1b		 jge	 SHORT $LN3@ApplyStart

; 91   : 	{
; 92   : 		m_pOwner->SetHideChar( true );

  00044	8b 8f 74 02 00
	00		 mov	 ecx, DWORD PTR [edi+628]
  0004a	56		 push	 esi
  0004b	6a 01		 push	 1
  0004d	e8 00 00 00 00	 call	 ?SetHideChar@ioBaseChar@@QAEX_N@Z ; ioBaseChar::SetHideChar

; 93   : 		m_pOwner->SetAlphaRateDirect( iAlphaRate );

  00052	8b 8f 74 02 00
	00		 mov	 ecx, DWORD PTR [edi+628]
  00058	53		 push	 ebx
  00059	e8 00 00 00 00	 call	 ?SetAlphaRateDirect@ioGameEntity@@QAEXH@Z ; ioGameEntity::SetAlphaRateDirect
  0005e	5e		 pop	 esi
$LN3@ApplyStart:

; 94   : 	}
; 95   : 
; 96   : 	if( m_bNoWoundState )

  0005f	80 bf 78 09 00
	00 00		 cmp	 BYTE PTR [edi+2424], 0
  00066	5b		 pop	 ebx
  00067	74 0a		 je	 SHORT $LN15@ApplyStart

; 97   : 		pOwner->SetNoWoundState( true );

  00069	8b 4d 08	 mov	 ecx, DWORD PTR _pOwner$[ebp]
  0006c	6a 01		 push	 1
  0006e	e8 00 00 00 00	 call	 ?SetNoWoundState@ioBaseChar@@QAEX_N@Z ; ioBaseChar::SetNoWoundState
$LN15@ApplyStart:

; 98   : 
; 99   : 	if( m_bHideFootDustEffect )

  00073	8d 45 13	 lea	 eax, DWORD PTR _value$546088[ebp]
  00076	50		 push	 eax
  00077	8d 8f 7c 09 00
	00		 lea	 ecx, DWORD PTR [edi+2428]
  0007d	e8 00 00 00 00	 call	 ?DecryptValueToPool@?$CEncrypt@_N@@QAEXPA_N@Z ; CEncrypt<bool>::DecryptValueToPool
  00082	80 7d 13 00	 cmp	 BYTE PTR _value$546088[ebp], 0
  00086	74 0a		 je	 SHORT $LN13@ApplyStart

; 100  : 	{
; 101  : 		pOwner->SetHideFootDustEffect( true );

  00088	8b 45 08	 mov	 eax, DWORD PTR _pOwner$[ebp]
  0008b	c6 80 de 13 00
	00 01		 mov	 BYTE PTR [eax+5086], 1
$LN13@ApplyStart:

; 102  : 	}
; 103  : 
; 104  : 	return true;

  00092	b0 01		 mov	 al, 1
$LN5@ApplyStart:
  00094	5f		 pop	 edi

; 105  : }

  00095	5d		 pop	 ebp
  00096	c2 0c 00	 ret	 12			; 0000000cH
?ApplyStartBuff@ioCreateDummyCharBuff@@UAE_NPAVioBaseChar@@KK@Z ENDP ; ioCreateDummyCharBuff::ApplyStartBuff
_TEXT	ENDS
PUBLIC	?CheckOwnerStateCheck@ioCreateDummyCharBuff@@IAE_NXZ ; ioCreateDummyCharBuff::CheckOwnerStateCheck
EXTRN	?SetState@ioBaseChar@@QAEXH_N@Z:PROC		; ioBaseChar::SetState
EXTRN	?IsApplyDownState@ioBaseChar@@QAE_N_N@Z:PROC	; ioBaseChar::IsApplyDownState
EXTRN	?IsFloatingState@ioBaseChar@@QBE_NXZ:PROC	; ioBaseChar::IsFloatingState
; Function compile flags: /Ogsp
;	COMDAT ?CheckOwnerStateCheck@ioCreateDummyCharBuff@@IAE_NXZ
_TEXT	SEGMENT
_value$546113 = -1					; size = 1
?CheckOwnerStateCheck@ioCreateDummyCharBuff@@IAE_NXZ PROC ; ioCreateDummyCharBuff::CheckOwnerStateCheck, COMDAT
; _this$ = ecx

; 173  : {

  00000	55		 push	 ebp
  00001	8b ec		 mov	 ebp, esp
  00003	51		 push	 ecx
  00004	56		 push	 esi
  00005	8b f1		 mov	 esi, ecx

; 174  : 	if( !m_pOwner ) return false;

  00007	8b 8e 74 02 00
	00		 mov	 ecx, DWORD PTR [esi+628]
  0000d	85 c9		 test	 ecx, ecx
  0000f	75 07		 jne	 SHORT $LN26@CheckOwner
  00011	32 c0		 xor	 al, al
  00013	e9 cd 00 00 00	 jmp	 $LN27@CheckOwner
$LN26@CheckOwner:

; 175  : 
; 176  : 	CharState eState = m_pOwner->GetState();
; 177  : 
; 178  : 	bool bDown = false;
; 179  : 	if( m_bDisableDownState )

  00018	80 be 6c 09 00
	00 00		 cmp	 BYTE PTR [esi+2412], 0
  0001f	53		 push	 ebx
  00020	8a 99 10 03 00
	00		 mov	 bl, BYTE PTR [ecx+784]
  00026	74 1f		 je	 SHORT $LN11@CheckOwner

; 180  : 	{
; 181  : 		if( eState == CS_FROZEN && m_pOwner->GetBlowFrozenState() )

  00028	80 fb 17	 cmp	 bl, 23			; 00000017H
  0002b	75 0c		 jne	 SHORT $LN24@CheckOwner
  0002d	80 b9 c5 15 00
	00 00		 cmp	 BYTE PTR [ecx+5573], 0

; 182  : 			bDown = true;

  00034	e9 85 00 00 00	 jmp	 $LN42@CheckOwner
$LN24@CheckOwner:

; 183  : 		else if( eState == CS_BLOW_WOUNDED && !m_pOwner->IsFloatingState() )

  00039	80 fb 0c	 cmp	 bl, 12			; 0000000cH
  0003c	75 55		 jne	 SHORT $LN22@CheckOwner
$LN44@CheckOwner:
  0003e	e8 00 00 00 00	 call	 ?IsFloatingState@ioBaseChar@@QBE_NXZ ; ioBaseChar::IsFloatingState
  00043	84 c0		 test	 al, al
  00045	74 79		 je	 SHORT $LN12@CheckOwner
$LN11@CheckOwner:

; 206  : 		}
; 207  : 	}
; 208  : 
; 209  : 	bool bWound = false;
; 210  : 	if( m_bEnableWoundCancel )

  00047	8d 45 ff	 lea	 eax, DWORD PTR _value$546113[ebp]
  0004a	50		 push	 eax
  0004b	8d 8e a8 06 00
	00		 lea	 ecx, DWORD PTR [esi+1704]
  00051	e8 00 00 00 00	 call	 ?DecryptValueToPool@?$CEncrypt@_N@@QAEXPA_N@Z ; CEncrypt<bool>::DecryptValueToPool
  00056	80 7d ff 00	 cmp	 BYTE PTR _value$546113[ebp], 0
  0005a	0f 84 82 00 00
	00		 je	 $LN1@CheckOwner

; 211  : 	{
; 212  : 		if( eState == CS_BLOW_WOUNDED )

  00060	80 fb 0c	 cmp	 bl, 12			; 0000000cH

; 213  : 			bWound = true;

  00063	74 0f		 je	 SHORT $LN2@CheckOwner

; 214  : 		else if( eState == CS_BOUND_BLOW_WOUNDED )

  00065	80 fb 31	 cmp	 bl, 49			; 00000031H

; 215  : 			bWound = true;

  00068	74 0a		 je	 SHORT $LN2@CheckOwner

; 216  : 		else if( eState == CS_WOUNDED )

  0006a	80 fb 0b	 cmp	 bl, 11			; 0000000bH

; 217  : 			bWound = true;

  0006d	74 05		 je	 SHORT $LN2@CheckOwner

; 218  : 		else if( eState == CS_ETC_STATE )

  0006f	80 fb 0f	 cmp	 bl, 15			; 0000000fH
  00072	75 6e		 jne	 SHORT $LN1@CheckOwner
$LN2@CheckOwner:

; 219  : 			bWound = true;
; 220  : 
; 221  : 		if( bWound )
; 222  : 		{
; 223  : 			m_pOwner->CheckUseBuffSkill( m_Name, false );

  00074	8b 8e 74 02 00
	00		 mov	 ecx, DWORD PTR [esi+628]
  0007a	6a 00		 push	 0
  0007c	8d 86 34 02 00
	00		 lea	 eax, DWORD PTR [esi+564]
  00082	50		 push	 eax
  00083	e8 00 00 00 00	 call	 ?CheckUseBuffSkill@ioBaseChar@@QAEXABVioHashString@@_N@Z ; ioBaseChar::CheckUseBuffSkill

; 224  : 			SetReserveEndBuff();

  00088	8b ce		 mov	 ecx, esi
  0008a	e8 00 00 00 00	 call	 ?SetReserveEndBuff@ioBuff@@QAEXXZ ; ioBuff::SetReserveEndBuff

; 225  : 			return true;

  0008f	b0 01		 mov	 al, 1
  00091	eb 51		 jmp	 SHORT $LN41@CheckOwner
$LN22@CheckOwner:

; 184  : 			bDown = true;
; 185  : 		else if( eState == CS_BOUND_BLOW_WOUNDED && !m_pOwner->IsFloatingState() )

  00093	80 fb 31	 cmp	 bl, 49			; 00000031H

; 186  : 			bDown = true;

  00096	74 a6		 je	 SHORT $LN44@CheckOwner

; 187  : 		else if( eState == CS_ETC_STATE && m_pOwner->IsApplyDownState(false) )

  00098	80 fb 0f	 cmp	 bl, 15			; 0000000fH
  0009b	75 0b		 jne	 SHORT $LN18@CheckOwner
  0009d	6a 00		 push	 0
  0009f	e8 00 00 00 00	 call	 ?IsApplyDownState@ioBaseChar@@QAE_N_N@Z ; ioBaseChar::IsApplyDownState
  000a4	84 c0		 test	 al, al

; 188  : 			bDown = true;

  000a6	eb 16		 jmp	 SHORT $LN42@CheckOwner
$LN18@CheckOwner:

; 189  : 		else if( eState == CS_STOP_MOTION && m_pOwner->GetBlowStopMotionState() )

  000a8	80 fb 26	 cmp	 bl, 38			; 00000026H

; 190  : 			bDown = true;

  000ab	74 0a		 je	 SHORT $LN43@CheckOwner

; 191  : 		else if( eState == CS_DROP_ZONE_DOWN )

  000ad	80 fb 10	 cmp	 bl, 16			; 00000010H

; 192  : 			bDown = true;

  000b0	74 0e		 je	 SHORT $LN12@CheckOwner

; 193  : 		else if( eState == CS_ICE_STATE && m_pOwner->GetBlowStopMotionState() )

  000b2	80 fb 3b	 cmp	 bl, 59			; 0000003bH
  000b5	75 90		 jne	 SHORT $LN11@CheckOwner
$LN43@CheckOwner:
  000b7	80 b9 c7 15 00
	00 00		 cmp	 BYTE PTR [ecx+5575], 0
$LN42@CheckOwner:
  000be	74 87		 je	 SHORT $LN11@CheckOwner
$LN12@CheckOwner:

; 194  : 			bDown = true;
; 195  : 
; 196  : 		if( bDown )
; 197  : 		{
; 198  : 			if( CheckRestoreStateCheck() )

  000c0	8b ce		 mov	 ecx, esi
  000c2	e8 00 00 00 00	 call	 ?CheckRestoreStateCheck@ioCreateDummyCharBuff@@IAE_NXZ ; ioCreateDummyCharBuff::CheckRestoreStateCheck
  000c7	84 c0		 test	 al, al
  000c9	74 a9		 je	 SHORT $LN2@CheckOwner

; 199  : 			{
; 200  : 				m_pOwner->SetState( CS_DELAY, m_bSendDelayNetWork );

  000cb	0f b6 86 f9 08
	00 00		 movzx	 eax, BYTE PTR [esi+2297]
  000d2	8b 8e 74 02 00
	00		 mov	 ecx, DWORD PTR [esi+628]
  000d8	50		 push	 eax
  000d9	6a 00		 push	 0
  000db	e8 00 00 00 00	 call	 ?SetState@ioBaseChar@@QAEXH_N@Z ; ioBaseChar::SetState

; 201  : 			}
; 202  : 
; 203  : 			m_pOwner->CheckUseBuffSkill( m_Name, false );
; 204  : 			SetReserveEndBuff();
; 205  : 			return true;

  000e0	eb 92		 jmp	 SHORT $LN2@CheckOwner
$LN1@CheckOwner:

; 226  : 		}
; 227  : 	}
; 228  : 
; 229  : 	return false;

  000e2	32 c0		 xor	 al, al
$LN41@CheckOwner:
  000e4	5b		 pop	 ebx
$LN27@CheckOwner:
  000e5	5e		 pop	 esi

; 230  : }

  000e6	c9		 leave
  000e7	c3		 ret	 0
?CheckOwnerStateCheck@ioCreateDummyCharBuff@@IAE_NXZ ENDP ; ioCreateDummyCharBuff::CheckOwnerStateCheck
_TEXT	ENDS
PUBLIC	??0?$CEncrypt@_N@@QAE@ABV0@@Z			; CEncrypt<bool>::CEncrypt<bool>
;	COMDAT xdata$x
; File d:\lost saga for developer\youtube\tutorial\source\src\lsclient\encryptvalue.h
xdata$x	SEGMENT
__unwindtable$??0?$CEncrypt@_N@@QAE@ABV0@@Z DD 0ffffffffH
	DD	FLAT:__unwindfunclet$??0?$CEncrypt@_N@@QAE@ABV0@@Z$0
__ehfuncinfo$??0?$CEncrypt@_N@@QAE@ABV0@@Z DD 019930522H
	DD	01H
	DD	FLAT:__unwindtable$??0?$CEncrypt@_N@@QAE@ABV0@@Z
	DD	2 DUP(00H)
	DD	2 DUP(00H)
	DD	00H
	DD	01H
; Function compile flags: /Ogsp
xdata$x	ENDS
;	COMDAT ??0?$CEncrypt@_N@@QAE@ABV0@@Z
_TEXT	SEGMENT
_this$ = -16						; size = 4
__$EHRec$ = -12						; size = 12
_inValue$ = 8						; size = 4
_value$546131 = 11					; size = 1
_value$546126 = 11					; size = 1
??0?$CEncrypt@_N@@QAE@ABV0@@Z PROC			; CEncrypt<bool>::CEncrypt<bool>, COMDAT
; _this$ = ecx

; 120  : 	CEncrypt( const CEncrypt<type> &inValue )   //     

  00000	6a 04		 push	 4
  00002	b8 00 00 00 00	 mov	 eax, __ehhandler$??0?$CEncrypt@_N@@QAE@ABV0@@Z
  00007	e8 00 00 00 00	 call	 __EH_prolog3
  0000c	8b f1		 mov	 esi, ecx
  0000e	89 75 f0	 mov	 DWORD PTR _this$[ebp], esi
  00011	8d 4e 0c	 lea	 ecx, DWORD PTR [esi+12]
  00014	c7 06 00 00 00
	00		 mov	 DWORD PTR [esi], OFFSET ??_7?$CEncrypt@_N@@6B@
  0001a	e8 00 00 00 00	 call	 ??0ccddaabb@@QAE@XZ	; ccddaabb::ccddaabb
  0001f	83 65 fc 00	 and	 DWORD PTR __$EHRec$[ebp+8], 0

; 121  : 	{
; 122  : 		Init();

  00023	8b ce		 mov	 ecx, esi
  00025	e8 00 00 00 00	 call	 ?Init@?$CEncrypt@_N@@AAEXXZ ; CEncrypt<bool>::Init

; 123  : 		*this = inValue;

  0002a	8b 4d 08	 mov	 ecx, DWORD PTR _inValue$[ebp]
  0002d	8d 45 0b	 lea	 eax, DWORD PTR _value$546126[ebp]
  00030	50		 push	 eax
  00031	e8 00 00 00 00	 call	 ?DecryptValueToPool@?$CEncrypt@_N@@QAEXPA_N@Z ; CEncrypt<bool>::DecryptValueToPool
  00036	8a 45 0b	 mov	 al, BYTE PTR _value$546126[ebp]
  00039	88 45 0b	 mov	 BYTE PTR _value$546131[ebp], al
  0003c	8d 45 0b	 lea	 eax, DWORD PTR _value$546131[ebp]
  0003f	50		 push	 eax
  00040	8b ce		 mov	 ecx, esi
  00042	e8 00 00 00 00	 call	 ?EncryptValueToPool@?$CEncrypt@_N@@AAEXPBD@Z ; CEncrypt<bool>::EncryptValueToPool

; 124  : 	}

  00047	8b c6		 mov	 eax, esi
  00049	e8 00 00 00 00	 call	 __EH_epilog3
  0004e	c2 04 00	 ret	 4
_TEXT	ENDS
;	COMDAT text$x
text$x	SEGMENT
__unwindfunclet$??0?$CEncrypt@_N@@QAE@ABV0@@Z$0:
  00000	8b 4d f0	 mov	 ecx, DWORD PTR _this$[ebp]
  00003	83 c1 0c	 add	 ecx, 12			; 0000000cH
  00006	e9 00 00 00 00	 jmp	 ??1ccddaabb@@UAE@XZ	; ccddaabb::~ccddaabb
__ehhandler$??0?$CEncrypt@_N@@QAE@ABV0@@Z:
  0000b	8b 54 24 08	 mov	 edx, DWORD PTR [esp+8]
  0000f	8d 42 0c	 lea	 eax, DWORD PTR [edx+12]
  00012	8b 4a ec	 mov	 ecx, DWORD PTR [edx-20]
  00015	33 c8		 xor	 ecx, eax
  00017	e8 00 00 00 00	 call	 @__security_check_cookie@4
  0001c	b8 00 00 00 00	 mov	 eax, OFFSET __ehfuncinfo$??0?$CEncrypt@_N@@QAE@ABV0@@Z
  00021	e9 00 00 00 00	 jmp	 ___CxxFrameHandler3
text$x	ENDS
??0?$CEncrypt@_N@@QAE@ABV0@@Z ENDP			; CEncrypt<bool>::CEncrypt<bool>
PUBLIC	??0?$vector@UtagDummyCharCreateInfo@@V?$allocator@UtagDummyCharCreateInfo@@@std@@@std@@QAE@XZ ; std::vector<tagDummyCharCreateInfo,std::allocator<tagDummyCharCreateInfo> >::vector<tagDummyCharCreateInfo,std::allocator<tagDummyCharCreateInfo> >
; Function compile flags: /Ogsp
; File c:\program files (x86)\microsoft visual studio 10.0\vc\include\vector
;	COMDAT ??0?$vector@UtagDummyCharCreateInfo@@V?$allocator@UtagDummyCharCreateInfo@@@std@@@std@@QAE@XZ
_TEXT	SEGMENT
??0?$vector@UtagDummyCharCreateInfo@@V?$allocator@UtagDummyCharCreateInfo@@@std@@@std@@QAE@XZ PROC ; std::vector<tagDummyCharCreateInfo,std::allocator<tagDummyCharCreateInfo> >::vector<tagDummyCharCreateInfo,std::allocator<tagDummyCharCreateInfo> >, COMDAT
; _this$ = ecx

; 507  : 		{	// construct empty vector

  00000	8b c1		 mov	 eax, ecx
  00002	33 c9		 xor	 ecx, ecx
  00004	89 08		 mov	 DWORD PTR [eax], ecx
  00006	89 48 04	 mov	 DWORD PTR [eax+4], ecx
  00009	89 48 08	 mov	 DWORD PTR [eax+8], ecx

; 508  : 		}

  0000c	c3		 ret	 0
??0?$vector@UtagDummyCharCreateInfo@@V?$allocator@UtagDummyCharCreateInfo@@@std@@@std@@QAE@XZ ENDP ; std::vector<tagDummyCharCreateInfo,std::allocator<tagDummyCharCreateInfo> >::vector<tagDummyCharCreateInfo,std::allocator<tagDummyCharCreateInfo> >
_TEXT	ENDS
PUBLIC	?_Buy@?$vector@UtagDummyCharLoadInfo@@V?$allocator@UtagDummyCharLoadInfo@@@std@@@std@@IAE_NI@Z ; std::vector<tagDummyCharLoadInfo,std::allocator<tagDummyCharLoadInfo> >::_Buy
; Function compile flags: /Ogsp
;	COMDAT ?_Buy@?$vector@UtagDummyCharLoadInfo@@V?$allocator@UtagDummyCharLoadInfo@@@std@@@std@@IAE_NI@Z
_TEXT	SEGMENT
__Capacity$ = 8						; size = 4
?_Buy@?$vector@UtagDummyCharLoadInfo@@V?$allocator@UtagDummyCharLoadInfo@@@std@@@std@@IAE_NI@Z PROC ; std::vector<tagDummyCharLoadInfo,std::allocator<tagDummyCharLoadInfo> >::_Buy, COMDAT
; _this$ = ecx

; 1250 : 		{	// allocate array with _Capacity elements

  00000	55		 push	 ebp
  00001	8b ec		 mov	 ebp, esp
  00003	56		 push	 esi

; 1251 : 		this->_Myfirst = 0;

  00004	33 c0		 xor	 eax, eax
  00006	57		 push	 edi

; 1252 : 		this->_Mylast = 0;
; 1253 : 		this->_Myend = 0;
; 1254 : 
; 1255 : 		if (_Capacity == 0)

  00007	8b 7d 08	 mov	 edi, DWORD PTR __Capacity$[ebp]
  0000a	8b f1		 mov	 esi, ecx
  0000c	89 06		 mov	 DWORD PTR [esi], eax
  0000e	89 46 04	 mov	 DWORD PTR [esi+4], eax
  00011	89 46 08	 mov	 DWORD PTR [esi+8], eax
  00014	3b f8		 cmp	 edi, eax
  00016	75 04		 jne	 SHORT $LN4@Buy

; 1256 : 			return (false);

  00018	32 c0		 xor	 al, al
  0001a	eb 2b		 jmp	 SHORT $LN5@Buy
$LN4@Buy:

; 1257 : 		else if (max_size() < _Capacity)

  0001c	81 ff 49 92 24
	09		 cmp	 edi, 153391689		; 09249249H
  00022	76 0b		 jbe	 SHORT $LN2@Buy

; 1258 : 			_Xlen();	// result too long

  00024	68 00 00 00 00	 push	 OFFSET ??_C@_0BD@OLBABOEK@vector?$DMT?$DO?5too?5long?$AA@
  00029	ff 15 00 00 00
	00		 call	 DWORD PTR __imp_?_Xlength_error@std@@YAXPBD@Z
$LN19@Buy:
$LN2@Buy:

; 1259 : 		else
; 1260 : 			{	// nonempty array, allocate storage
; 1261 : 			this->_Myfirst = this->_Alval.allocate(_Capacity);

  0002f	50		 push	 eax
  00030	57		 push	 edi
  00031	e8 00 00 00 00	 call	 ??$_Allocate@UtagDummyCharLoadInfo@@@std@@YAPAUtagDummyCharLoadInfo@@IPAU1@@Z ; std::_Allocate<tagDummyCharLoadInfo>

; 1262 : 			this->_Mylast = this->_Myfirst;
; 1263 : 			this->_Myend = this->_Myfirst + _Capacity;

  00036	6b ff 1c	 imul	 edi, 28			; 0000001cH
  00039	03 f8		 add	 edi, eax
  0003b	59		 pop	 ecx
  0003c	89 06		 mov	 DWORD PTR [esi], eax
  0003e	89 46 04	 mov	 DWORD PTR [esi+4], eax
  00041	59		 pop	 ecx
  00042	89 7e 08	 mov	 DWORD PTR [esi+8], edi

; 1264 : 			}
; 1265 : 		return (true);

  00045	b0 01		 mov	 al, 1
$LN5@Buy:
  00047	5f		 pop	 edi
  00048	5e		 pop	 esi

; 1266 : 		}

  00049	5d		 pop	 ebp
  0004a	c2 04 00	 ret	 4
$LN18@Buy:
?_Buy@?$vector@UtagDummyCharLoadInfo@@V?$allocator@UtagDummyCharLoadInfo@@@std@@@std@@IAE_NI@Z ENDP ; std::vector<tagDummyCharLoadInfo,std::allocator<tagDummyCharLoadInfo> >::_Buy
_TEXT	ENDS
PUBLIC	?begin@?$vector@UtagDummyCharCreateInfo@@V?$allocator@UtagDummyCharCreateInfo@@@std@@@std@@QAE?AV?$_Vector_iterator@V?$_Vector_val@UtagDummyCharCreateInfo@@V?$allocator@UtagDummyCharCreateInfo@@@std@@@std@@@2@XZ ; std::vector<tagDummyCharCreateInfo,std::allocator<tagDummyCharCreateInfo> >::begin
; Function compile flags: /Ogsp
;	COMDAT ?begin@?$vector@UtagDummyCharCreateInfo@@V?$allocator@UtagDummyCharCreateInfo@@@std@@@std@@QAE?AV?$_Vector_iterator@V?$_Vector_val@UtagDummyCharCreateInfo@@V?$allocator@UtagDummyCharCreateInfo@@@std@@@std@@@2@XZ
_TEXT	SEGMENT
___$ReturnUdt$ = 8					; size = 4
?begin@?$vector@UtagDummyCharCreateInfo@@V?$allocator@UtagDummyCharCreateInfo@@@std@@@std@@QAE?AV?$_Vector_iterator@V?$_Vector_val@UtagDummyCharCreateInfo@@V?$allocator@UtagDummyCharCreateInfo@@@std@@@std@@@2@XZ PROC ; std::vector<tagDummyCharCreateInfo,std::allocator<tagDummyCharCreateInfo> >::begin, COMDAT
; _this$ = ecx

; 781  : 		{	// return iterator for beginning of mutable sequence

  00000	55		 push	 ebp
  00001	8b ec		 mov	 ebp, esp

; 782  : 		return (iterator(this->_Myfirst, this));

  00003	8b 09		 mov	 ecx, DWORD PTR [ecx]
  00005	8b 45 08	 mov	 eax, DWORD PTR ___$ReturnUdt$[ebp]
  00008	89 08		 mov	 DWORD PTR [eax], ecx

; 783  : 		}

  0000a	5d		 pop	 ebp
  0000b	c2 04 00	 ret	 4
?begin@?$vector@UtagDummyCharCreateInfo@@V?$allocator@UtagDummyCharCreateInfo@@@std@@@std@@QAE?AV?$_Vector_iterator@V?$_Vector_val@UtagDummyCharCreateInfo@@V?$allocator@UtagDummyCharCreateInfo@@@std@@@std@@@2@XZ ENDP ; std::vector<tagDummyCharCreateInfo,std::allocator<tagDummyCharCreateInfo> >::begin
_TEXT	ENDS
PUBLIC	?end@?$vector@UtagDummyCharCreateInfo@@V?$allocator@UtagDummyCharCreateInfo@@@std@@@std@@QAE?AV?$_Vector_iterator@V?$_Vector_val@UtagDummyCharCreateInfo@@V?$allocator@UtagDummyCharCreateInfo@@@std@@@std@@@2@XZ ; std::vector<tagDummyCharCreateInfo,std::allocator<tagDummyCharCreateInfo> >::end
; Function compile flags: /Ogsp
;	COMDAT ?end@?$vector@UtagDummyCharCreateInfo@@V?$allocator@UtagDummyCharCreateInfo@@@std@@@std@@QAE?AV?$_Vector_iterator@V?$_Vector_val@UtagDummyCharCreateInfo@@V?$allocator@UtagDummyCharCreateInfo@@@std@@@std@@@2@XZ
_TEXT	SEGMENT
___$ReturnUdt$ = 8					; size = 4
?end@?$vector@UtagDummyCharCreateInfo@@V?$allocator@UtagDummyCharCreateInfo@@@std@@@std@@QAE?AV?$_Vector_iterator@V?$_Vector_val@UtagDummyCharCreateInfo@@V?$allocator@UtagDummyCharCreateInfo@@@std@@@std@@@2@XZ PROC ; std::vector<tagDummyCharCreateInfo,std::allocator<tagDummyCharCreateInfo> >::end, COMDAT
; _this$ = ecx

; 791  : 		{	// return iterator for end of mutable sequence

  00000	55		 push	 ebp
  00001	8b ec		 mov	 ebp, esp

; 792  : 		return (iterator(this->_Mylast, this));

  00003	8b 49 04	 mov	 ecx, DWORD PTR [ecx+4]
  00006	8b 45 08	 mov	 eax, DWORD PTR ___$ReturnUdt$[ebp]
  00009	89 08		 mov	 DWORD PTR [eax], ecx

; 793  : 		}

  0000b	5d		 pop	 ebp
  0000c	c2 04 00	 ret	 4
?end@?$vector@UtagDummyCharCreateInfo@@V?$allocator@UtagDummyCharCreateInfo@@@std@@@std@@QAE?AV?$_Vector_iterator@V?$_Vector_val@UtagDummyCharCreateInfo@@V?$allocator@UtagDummyCharCreateInfo@@@std@@@std@@@2@XZ ENDP ; std::vector<tagDummyCharCreateInfo,std::allocator<tagDummyCharCreateInfo> >::end
_TEXT	ENDS
PUBLIC	?_Make_iter@?$vector@UtagDummyCharCreateInfo@@V?$allocator@UtagDummyCharCreateInfo@@@std@@@std@@QBE?AV?$_Vector_iterator@V?$_Vector_val@UtagDummyCharCreateInfo@@V?$allocator@UtagDummyCharCreateInfo@@@std@@@std@@@2@V?$_Vector_const_iterator@V?$_Vector_val@UtagDummyCharCreateInfo@@V?$allocator@UtagDummyCharCreateInfo@@@std@@@std@@@2@@Z ; std::vector<tagDummyCharCreateInfo,std::allocator<tagDummyCharCreateInfo> >::_Make_iter
; Function compile flags: /Ogsp
;	COMDAT ?_Make_iter@?$vector@UtagDummyCharCreateInfo@@V?$allocator@UtagDummyCharCreateInfo@@@std@@@std@@QBE?AV?$_Vector_iterator@V?$_Vector_val@UtagDummyCharCreateInfo@@V?$allocator@UtagDummyCharCreateInfo@@@std@@@std@@@2@V?$_Vector_const_iterator@V?$_Vector_val@UtagDummyCharCreateInfo@@V?$allocator@UtagDummyCharCreateInfo@@@std@@@std@@@2@@Z
_TEXT	SEGMENT
___$ReturnUdt$ = 8					; size = 4
__Where$ = 12						; size = 4
?_Make_iter@?$vector@UtagDummyCharCreateInfo@@V?$allocator@UtagDummyCharCreateInfo@@@std@@@std@@QBE?AV?$_Vector_iterator@V?$_Vector_val@UtagDummyCharCreateInfo@@V?$allocator@UtagDummyCharCreateInfo@@@std@@@std@@@2@V?$_Vector_const_iterator@V?$_Vector_val@UtagDummyCharCreateInfo@@V?$allocator@UtagDummyCharCreateInfo@@@std@@@std@@@2@@Z PROC ; std::vector<tagDummyCharCreateInfo,std::allocator<tagDummyCharCreateInfo> >::_Make_iter, COMDAT
; _this$ = ecx

; 801  : 		{	// make iterator from const_iterator

  00000	55		 push	 ebp
  00001	8b ec		 mov	 ebp, esp

; 802  : 		return (iterator(_Where._Ptr, this));

  00003	8b 45 08	 mov	 eax, DWORD PTR ___$ReturnUdt$[ebp]
  00006	8b 4d 0c	 mov	 ecx, DWORD PTR __Where$[ebp]
  00009	89 08		 mov	 DWORD PTR [eax], ecx

; 803  : 		}

  0000b	5d		 pop	 ebp
  0000c	c2 08 00	 ret	 8
?_Make_iter@?$vector@UtagDummyCharCreateInfo@@V?$allocator@UtagDummyCharCreateInfo@@@std@@@std@@QBE?AV?$_Vector_iterator@V?$_Vector_val@UtagDummyCharCreateInfo@@V?$allocator@UtagDummyCharCreateInfo@@@std@@@std@@@2@V?$_Vector_const_iterator@V?$_Vector_val@UtagDummyCharCreateInfo@@V?$allocator@UtagDummyCharCreateInfo@@@std@@@std@@@2@@Z ENDP ; std::vector<tagDummyCharCreateInfo,std::allocator<tagDummyCharCreateInfo> >::_Make_iter
_TEXT	ENDS
PUBLIC	??9?$_Vector_const_iterator@V?$_Vector_val@UtagDummyCharCreateInfo@@V?$allocator@UtagDummyCharCreateInfo@@@std@@@std@@@std@@QBE_NABV01@@Z ; std::_Vector_const_iterator<std::_Vector_val<tagDummyCharCreateInfo,std::allocator<tagDummyCharCreateInfo> > >::operator!=
; Function compile flags: /Ogsp
;	COMDAT ??9?$_Vector_const_iterator@V?$_Vector_val@UtagDummyCharCreateInfo@@V?$allocator@UtagDummyCharCreateInfo@@@std@@@std@@@std@@QBE_NABV01@@Z
_TEXT	SEGMENT
__Right$ = 8						; size = 4
??9?$_Vector_const_iterator@V?$_Vector_val@UtagDummyCharCreateInfo@@V?$allocator@UtagDummyCharCreateInfo@@@std@@@std@@@std@@QBE_NABV01@@Z PROC ; std::_Vector_const_iterator<std::_Vector_val<tagDummyCharCreateInfo,std::allocator<tagDummyCharCreateInfo> > >::operator!=, COMDAT
; _this$ = ecx

; 207  : 		{	// test for iterator inequality

  00000	55		 push	 ebp
  00001	8b ec		 mov	 ebp, esp

; 208  : 		return (!(*this == _Right));

  00003	8b 01		 mov	 eax, DWORD PTR [ecx]
  00005	8b 55 08	 mov	 edx, DWORD PTR __Right$[ebp]
  00008	33 c9		 xor	 ecx, ecx
  0000a	3b 02		 cmp	 eax, DWORD PTR [edx]
  0000c	0f 95 c0	 setne	 al

; 209  : 		}

  0000f	5d		 pop	 ebp
  00010	c2 04 00	 ret	 4
??9?$_Vector_const_iterator@V?$_Vector_val@UtagDummyCharCreateInfo@@V?$allocator@UtagDummyCharCreateInfo@@@std@@@std@@@std@@QBE_NABV01@@Z ENDP ; std::_Vector_const_iterator<std::_Vector_val<tagDummyCharCreateInfo,std::allocator<tagDummyCharCreateInfo> > >::operator!=
_TEXT	ENDS
PUBLIC	??$_Cons_val@V?$allocator@UtagDummyCharCreateInfo@@@std@@UtagDummyCharCreateInfo@@AAU3@@std@@YAXAAV?$allocator@UtagDummyCharCreateInfo@@@0@PAUtagDummyCharCreateInfo@@AAU2@@Z ; std::_Cons_val<std::allocator<tagDummyCharCreateInfo>,tagDummyCharCreateInfo,tagDummyCharCreateInfo &>
;	COMDAT xdata$x
; File c:\program files (x86)\microsoft visual studio 10.0\vc\include\utility
xdata$x	SEGMENT
__unwindtable$??$_Cons_val@V?$allocator@UtagDummyCharCreateInfo@@@std@@UtagDummyCharCreateInfo@@AAU3@@std@@YAXAAV?$allocator@UtagDummyCharCreateInfo@@@0@PAUtagDummyCharCreateInfo@@AAU2@@Z DD 0ffffffffH
	DD	FLAT:__unwindfunclet$??$_Cons_val@V?$allocator@UtagDummyCharCreateInfo@@@std@@UtagDummyCharCreateInfo@@AAU3@@std@@YAXAAV?$allocator@UtagDummyCharCreateInfo@@@0@PAUtagDummyCharCreateInfo@@AAU2@@Z$0
__ehfuncinfo$??$_Cons_val@V?$allocator@UtagDummyCharCreateInfo@@@std@@UtagDummyCharCreateInfo@@AAU3@@std@@YAXAAV?$allocator@UtagDummyCharCreateInfo@@@0@PAUtagDummyCharCreateInfo@@AAU2@@Z DD 019930522H
	DD	01H
	DD	FLAT:__unwindtable$??$_Cons_val@V?$allocator@UtagDummyCharCreateInfo@@@std@@UtagDummyCharCreateInfo@@AAU3@@std@@YAXAAV?$allocator@UtagDummyCharCreateInfo@@@0@PAUtagDummyCharCreateInfo@@AAU2@@Z
	DD	2 DUP(00H)
	DD	2 DUP(00H)
	DD	00H
	DD	01H
; Function compile flags: /Ogsp
; File c:\program files (x86)\microsoft visual studio 10.0\vc\include\xmemory
xdata$x	ENDS
;	COMDAT ??$_Cons_val@V?$allocator@UtagDummyCharCreateInfo@@@std@@UtagDummyCharCreateInfo@@AAU3@@std@@YAXAAV?$allocator@UtagDummyCharCreateInfo@@@0@PAUtagDummyCharCreateInfo@@AAU2@@Z
_TEXT	SEGMENT
$T546265 = -16						; size = 4
__$EHRec$ = -12						; size = 12
__Alval$ = 8						; size = 4
__Pdest$ = 12						; size = 4
__Src$ = 16						; size = 4
??$_Cons_val@V?$allocator@UtagDummyCharCreateInfo@@@std@@UtagDummyCharCreateInfo@@AAU3@@std@@YAXAAV?$allocator@UtagDummyCharCreateInfo@@@0@PAUtagDummyCharCreateInfo@@AAU2@@Z PROC ; std::_Cons_val<std::allocator<tagDummyCharCreateInfo>,tagDummyCharCreateInfo,tagDummyCharCreateInfo &>, COMDAT

; 279  : 	{	// construct using allocator

  00000	6a 04		 push	 4
  00002	b8 00 00 00 00	 mov	 eax, __ehhandler$??$_Cons_val@V?$allocator@UtagDummyCharCreateInfo@@@std@@UtagDummyCharCreateInfo@@AAU3@@std@@YAXAAV?$allocator@UtagDummyCharCreateInfo@@@0@PAUtagDummyCharCreateInfo@@AAU2@@Z
  00007	e8 00 00 00 00	 call	 __EH_prolog3

; 280  : 	_Alval.construct(_Pdest, _STD forward<_Ty2>(_Src));

  0000c	8b 4d 0c	 mov	 ecx, DWORD PTR __Pdest$[ebp]
  0000f	89 4d f0	 mov	 DWORD PTR $T546265[ebp], ecx
  00012	83 65 fc 00	 and	 DWORD PTR __$EHRec$[ebp+8], 0
  00016	85 c9		 test	 ecx, ecx
  00018	74 08		 je	 SHORT $LN7@Cons_val
  0001a	ff 75 10	 push	 DWORD PTR __Src$[ebp]
  0001d	e8 00 00 00 00	 call	 ??0tagDummyCharCreateInfo@@QAE@ABU0@@Z
$LN7@Cons_val:

; 281  : 	}

  00022	e8 00 00 00 00	 call	 __EH_epilog3
  00027	c3		 ret	 0
_TEXT	ENDS
;	COMDAT text$x
text$x	SEGMENT
__unwindfunclet$??$_Cons_val@V?$allocator@UtagDummyCharCreateInfo@@@std@@UtagDummyCharCreateInfo@@AAU3@@std@@YAXAAV?$allocator@UtagDummyCharCreateInfo@@@0@PAUtagDummyCharCreateInfo@@AAU2@@Z$0:
  00000	ff 75 0c	 push	 DWORD PTR __Pdest$[ebp]
  00003	ff 75 f0	 push	 DWORD PTR $T546265[ebp]
  00006	e8 00 00 00 00	 call	 ??3@YAXPAX0@Z		; operator delete
  0000b	59		 pop	 ecx
  0000c	59		 pop	 ecx
  0000d	c3		 ret	 0
__ehhandler$??$_Cons_val@V?$allocator@UtagDummyCharCreateInfo@@@std@@UtagDummyCharCreateInfo@@AAU3@@std@@YAXAAV?$allocator@UtagDummyCharCreateInfo@@@0@PAUtagDummyCharCreateInfo@@AAU2@@Z:
  0000e	8b 54 24 08	 mov	 edx, DWORD PTR [esp+8]
  00012	8d 42 0c	 lea	 eax, DWORD PTR [edx+12]
  00015	8b 4a ec	 mov	 ecx, DWORD PTR [edx-20]
  00018	33 c8		 xor	 ecx, eax
  0001a	e8 00 00 00 00	 call	 @__security_check_cookie@4
  0001f	b8 00 00 00 00	 mov	 eax, OFFSET __ehfuncinfo$??$_Cons_val@V?$allocator@UtagDummyCharCreateInfo@@@std@@UtagDummyCharCreateInfo@@AAU3@@std@@YAXAAV?$allocator@UtagDummyCharCreateInfo@@@0@PAUtagDummyCharCreateInfo@@AAU2@@Z
  00024	e9 00 00 00 00	 jmp	 ___CxxFrameHandler3
text$x	ENDS
??$_Cons_val@V?$allocator@UtagDummyCharCreateInfo@@@std@@UtagDummyCharCreateInfo@@AAU3@@std@@YAXAAV?$allocator@UtagDummyCharCreateInfo@@@0@PAUtagDummyCharCreateInfo@@AAU2@@Z ENDP ; std::_Cons_val<std::allocator<tagDummyCharCreateInfo>,tagDummyCharCreateInfo,tagDummyCharCreateInfo &>
PUBLIC	??$_Move@PAUtagDummyCharCreateInfo@@PAU1@@std@@YAPAUtagDummyCharCreateInfo@@PAU1@00@Z ; std::_Move<tagDummyCharCreateInfo *,tagDummyCharCreateInfo *>
; Function compile flags: /Ogsp
; File c:\program files (x86)\microsoft visual studio 10.0\vc\include\xutility
;	COMDAT ??$_Move@PAUtagDummyCharCreateInfo@@PAU1@@std@@YAPAUtagDummyCharCreateInfo@@PAU1@00@Z
_TEXT	SEGMENT
__Cat$546285 = -4					; size = 1
__First$ = 8						; size = 4
__Last$ = 12						; size = 4
__Dest$ = 16						; size = 4
??$_Move@PAUtagDummyCharCreateInfo@@PAU1@@std@@YAPAUtagDummyCharCreateInfo@@PAU1@00@Z PROC ; std::_Move<tagDummyCharCreateInfo *,tagDummyCharCreateInfo *>, COMDAT

; 2533 : 	{	// move [_First, _Last) to [_Dest, ...), unchecked

  00000	55		 push	 ebp
  00001	8b ec		 mov	 ebp, esp
  00003	51		 push	 ecx

; 2534 : 	return (_Move(_First, _Last,
; 2535 : 		_Dest, _Ptr_cat(_First, _Dest)));

  00004	ff 75 fc	 push	 DWORD PTR __Cat$546285[ebp]
  00007	ff 75 10	 push	 DWORD PTR __Dest$[ebp]
  0000a	ff 75 0c	 push	 DWORD PTR __Last$[ebp]
  0000d	ff 75 08	 push	 DWORD PTR __First$[ebp]
  00010	e8 00 00 00 00	 call	 ??$_Move@PAUtagDummyCharCreateInfo@@PAU1@@std@@YAPAUtagDummyCharCreateInfo@@PAU1@00U_Nonscalar_ptr_iterator_tag@0@@Z ; std::_Move<tagDummyCharCreateInfo *,tagDummyCharCreateInfo *>
  00015	83 c4 10	 add	 esp, 16			; 00000010H

; 2536 : 	}

  00018	c9		 leave
  00019	c3		 ret	 0
??$_Move@PAUtagDummyCharCreateInfo@@PAU1@@std@@YAPAUtagDummyCharCreateInfo@@PAU1@00@Z ENDP ; std::_Move<tagDummyCharCreateInfo *,tagDummyCharCreateInfo *>
_TEXT	ENDS
PUBLIC	?construct@?$allocator@UtagDummyCharCreateInfo@@@std@@QAEXPAUtagDummyCharCreateInfo@@ABU3@@Z ; std::allocator<tagDummyCharCreateInfo>::construct
; Function compile flags: /Ogsp
; File c:\program files (x86)\microsoft visual studio 10.0\vc\include\xmemory
;	COMDAT ?construct@?$allocator@UtagDummyCharCreateInfo@@@std@@QAEXPAUtagDummyCharCreateInfo@@ABU3@@Z
_TEXT	SEGMENT
__Ptr$ = 8						; size = 4
__Val$ = 12						; size = 4
?construct@?$allocator@UtagDummyCharCreateInfo@@@std@@QAEXPAUtagDummyCharCreateInfo@@ABU3@@Z PROC ; std::allocator<tagDummyCharCreateInfo>::construct, COMDAT
; _this$ = ecx

; 196  : 		{	// construct object at _Ptr with value _Val

  00000	55		 push	 ebp
  00001	8b ec		 mov	 ebp, esp

; 197  : 		_Construct(_Ptr, _Val);

  00003	ff 75 0c	 push	 DWORD PTR __Val$[ebp]
  00006	ff 75 08	 push	 DWORD PTR __Ptr$[ebp]
  00009	e8 00 00 00 00	 call	 ??$_Construct@UtagDummyCharCreateInfo@@ABU1@@std@@YAXPAUtagDummyCharCreateInfo@@ABU1@@Z ; std::_Construct<tagDummyCharCreateInfo,tagDummyCharCreateInfo const &>
  0000e	59		 pop	 ecx
  0000f	59		 pop	 ecx

; 198  : 		}

  00010	5d		 pop	 ebp
  00011	c2 08 00	 ret	 8
?construct@?$allocator@UtagDummyCharCreateInfo@@@std@@QAEXPAUtagDummyCharCreateInfo@@ABU3@@Z ENDP ; std::allocator<tagDummyCharCreateInfo>::construct
_TEXT	ENDS
PUBLIC	?destroy@?$allocator@UtagDummyCharCreateInfo@@@std@@QAEXPAUtagDummyCharCreateInfo@@@Z ; std::allocator<tagDummyCharCreateInfo>::destroy
; Function compile flags: /Ogsp
;	COMDAT ?destroy@?$allocator@UtagDummyCharCreateInfo@@@std@@QAEXPAUtagDummyCharCreateInfo@@@Z
_TEXT	SEGMENT
__Ptr$ = 8						; size = 4
?destroy@?$allocator@UtagDummyCharCreateInfo@@@std@@QAEXPAUtagDummyCharCreateInfo@@@Z PROC ; std::allocator<tagDummyCharCreateInfo>::destroy, COMDAT
; _this$ = ecx

; 212  : 		{	// destroy object at _Ptr

  00000	55		 push	 ebp
  00001	8b ec		 mov	 ebp, esp

; 213  : 		_Destroy(_Ptr);

  00003	8b 4d 08	 mov	 ecx, DWORD PTR __Ptr$[ebp]
  00006	ff 15 00 00 00
	00		 call	 DWORD PTR __imp_??1ioHashString@@QAE@XZ

; 214  : 		}

  0000c	5d		 pop	 ebp
  0000d	c2 04 00	 ret	 4
?destroy@?$allocator@UtagDummyCharCreateInfo@@@std@@QAEXPAUtagDummyCharCreateInfo@@@Z ENDP ; std::allocator<tagDummyCharCreateInfo>::destroy
_TEXT	ENDS
PUBLIC	??$_Cons_val@V?$allocator@UtagDummyCharCreateInfo@@@std@@UtagDummyCharCreateInfo@@U3@@std@@YAXAAV?$allocator@UtagDummyCharCreateInfo@@@0@PAUtagDummyCharCreateInfo@@$$QAU2@@Z ; std::_Cons_val<std::allocator<tagDummyCharCreateInfo>,tagDummyCharCreateInfo,tagDummyCharCreateInfo>
;	COMDAT xdata$x
; File c:\program files (x86)\microsoft visual studio 10.0\vc\include\utility
xdata$x	SEGMENT
__unwindtable$??$_Cons_val@V?$allocator@UtagDummyCharCreateInfo@@@std@@UtagDummyCharCreateInfo@@U3@@std@@YAXAAV?$allocator@UtagDummyCharCreateInfo@@@0@PAUtagDummyCharCreateInfo@@$$QAU2@@Z DD 0ffffffffH
	DD	FLAT:__unwindfunclet$??$_Cons_val@V?$allocator@UtagDummyCharCreateInfo@@@std@@UtagDummyCharCreateInfo@@U3@@std@@YAXAAV?$allocator@UtagDummyCharCreateInfo@@@0@PAUtagDummyCharCreateInfo@@$$QAU2@@Z$0
__ehfuncinfo$??$_Cons_val@V?$allocator@UtagDummyCharCreateInfo@@@std@@UtagDummyCharCreateInfo@@U3@@std@@YAXAAV?$allocator@UtagDummyCharCreateInfo@@@0@PAUtagDummyCharCreateInfo@@$$QAU2@@Z DD 019930522H
	DD	01H
	DD	FLAT:__unwindtable$??$_Cons_val@V?$allocator@UtagDummyCharCreateInfo@@@std@@UtagDummyCharCreateInfo@@U3@@std@@YAXAAV?$allocator@UtagDummyCharCreateInfo@@@0@PAUtagDummyCharCreateInfo@@$$QAU2@@Z
	DD	2 DUP(00H)
	DD	2 DUP(00H)
	DD	00H
	DD	01H
; Function compile flags: /Ogsp
; File c:\program files (x86)\microsoft visual studio 10.0\vc\include\xmemory
xdata$x	ENDS
;	COMDAT ??$_Cons_val@V?$allocator@UtagDummyCharCreateInfo@@@std@@UtagDummyCharCreateInfo@@U3@@std@@YAXAAV?$allocator@UtagDummyCharCreateInfo@@@0@PAUtagDummyCharCreateInfo@@$$QAU2@@Z
_TEXT	SEGMENT
$T546327 = -16						; size = 4
__$EHRec$ = -12						; size = 12
__Alval$ = 8						; size = 4
__Pdest$ = 12						; size = 4
__Src$ = 16						; size = 4
??$_Cons_val@V?$allocator@UtagDummyCharCreateInfo@@@std@@UtagDummyCharCreateInfo@@U3@@std@@YAXAAV?$allocator@UtagDummyCharCreateInfo@@@0@PAUtagDummyCharCreateInfo@@$$QAU2@@Z PROC ; std::_Cons_val<std::allocator<tagDummyCharCreateInfo>,tagDummyCharCreateInfo,tagDummyCharCreateInfo>, COMDAT

; 279  : 	{	// construct using allocator

  00000	6a 04		 push	 4
  00002	b8 00 00 00 00	 mov	 eax, __ehhandler$??$_Cons_val@V?$allocator@UtagDummyCharCreateInfo@@@std@@UtagDummyCharCreateInfo@@U3@@std@@YAXAAV?$allocator@UtagDummyCharCreateInfo@@@0@PAUtagDummyCharCreateInfo@@$$QAU2@@Z
  00007	e8 00 00 00 00	 call	 __EH_prolog3

; 280  : 	_Alval.construct(_Pdest, _STD forward<_Ty2>(_Src));

  0000c	8b 4d 0c	 mov	 ecx, DWORD PTR __Pdest$[ebp]
  0000f	89 4d f0	 mov	 DWORD PTR $T546327[ebp], ecx
  00012	83 65 fc 00	 and	 DWORD PTR __$EHRec$[ebp+8], 0
  00016	85 c9		 test	 ecx, ecx
  00018	74 08		 je	 SHORT $LN7@Cons_val@2
  0001a	ff 75 10	 push	 DWORD PTR __Src$[ebp]
  0001d	e8 00 00 00 00	 call	 ??0tagDummyCharCreateInfo@@QAE@ABU0@@Z
$LN7@Cons_val@2:

; 281  : 	}

  00022	e8 00 00 00 00	 call	 __EH_epilog3
  00027	c3		 ret	 0
_TEXT	ENDS
;	COMDAT text$x
text$x	SEGMENT
__unwindfunclet$??$_Cons_val@V?$allocator@UtagDummyCharCreateInfo@@@std@@UtagDummyCharCreateInfo@@U3@@std@@YAXAAV?$allocator@UtagDummyCharCreateInfo@@@0@PAUtagDummyCharCreateInfo@@$$QAU2@@Z$0:
  00000	ff 75 0c	 push	 DWORD PTR __Pdest$[ebp]
  00003	ff 75 f0	 push	 DWORD PTR $T546327[ebp]
  00006	e8 00 00 00 00	 call	 ??3@YAXPAX0@Z		; operator delete
  0000b	59		 pop	 ecx
  0000c	59		 pop	 ecx
  0000d	c3		 ret	 0
__ehhandler$??$_Cons_val@V?$allocator@UtagDummyCharCreateInfo@@@std@@UtagDummyCharCreateInfo@@U3@@std@@YAXAAV?$allocator@UtagDummyCharCreateInfo@@@0@PAUtagDummyCharCreateInfo@@$$QAU2@@Z:
  0000e	8b 54 24 08	 mov	 edx, DWORD PTR [esp+8]
  00012	8d 42 0c	 lea	 eax, DWORD PTR [edx+12]
  00015	8b 4a ec	 mov	 ecx, DWORD PTR [edx-20]
  00018	33 c8		 xor	 ecx, eax
  0001a	e8 00 00 00 00	 call	 @__security_check_cookie@4
  0001f	b8 00 00 00 00	 mov	 eax, OFFSET __ehfuncinfo$??$_Cons_val@V?$allocator@UtagDummyCharCreateInfo@@@std@@UtagDummyCharCreateInfo@@U3@@std@@YAXAAV?$allocator@UtagDummyCharCreateInfo@@@0@PAUtagDummyCharCreateInfo@@$$QAU2@@Z
  00024	e9 00 00 00 00	 jmp	 ___CxxFrameHandler3
text$x	ENDS
??$_Cons_val@V?$allocator@UtagDummyCharCreateInfo@@@std@@UtagDummyCharCreateInfo@@U3@@std@@YAXAAV?$allocator@UtagDummyCharCreateInfo@@@0@PAUtagDummyCharCreateInfo@@$$QAU2@@Z ENDP ; std::_Cons_val<std::allocator<tagDummyCharCreateInfo>,tagDummyCharCreateInfo,tagDummyCharCreateInfo>
PUBLIC	?construct@?$allocator@UtagDummyCharLoadInfo@@@std@@QAEXPAUtagDummyCharLoadInfo@@ABU3@@Z ; std::allocator<tagDummyCharLoadInfo>::construct
; Function compile flags: /Ogsp
;	COMDAT ?construct@?$allocator@UtagDummyCharLoadInfo@@@std@@QAEXPAUtagDummyCharLoadInfo@@ABU3@@Z
_TEXT	SEGMENT
__Ptr$ = 8						; size = 4
__Val$ = 12						; size = 4
?construct@?$allocator@UtagDummyCharLoadInfo@@@std@@QAEXPAUtagDummyCharLoadInfo@@ABU3@@Z PROC ; std::allocator<tagDummyCharLoadInfo>::construct, COMDAT
; _this$ = ecx

; 196  : 		{	// construct object at _Ptr with value _Val

  00000	55		 push	 ebp
  00001	8b ec		 mov	 ebp, esp

; 197  : 		_Construct(_Ptr, _Val);

  00003	ff 75 0c	 push	 DWORD PTR __Val$[ebp]
  00006	ff 75 08	 push	 DWORD PTR __Ptr$[ebp]
  00009	e8 00 00 00 00	 call	 ??$_Construct@UtagDummyCharLoadInfo@@ABU1@@std@@YAXPAUtagDummyCharLoadInfo@@ABU1@@Z ; std::_Construct<tagDummyCharLoadInfo,tagDummyCharLoadInfo const &>
  0000e	59		 pop	 ecx
  0000f	59		 pop	 ecx

; 198  : 		}

  00010	5d		 pop	 ebp
  00011	c2 08 00	 ret	 8
?construct@?$allocator@UtagDummyCharLoadInfo@@@std@@QAEXPAUtagDummyCharLoadInfo@@ABU3@@Z ENDP ; std::allocator<tagDummyCharLoadInfo>::construct
_TEXT	ENDS
PUBLIC	?GetCurSkillGuage@ioItem@@QBEMXZ		; ioItem::GetCurSkillGuage
; Function compile flags: /Ogsp
; File d:\lost saga for developer\youtube\tutorial\source\src\lsclient\ioitem.h
;	COMDAT ?GetCurSkillGuage@ioItem@@QBEMXZ
_TEXT	SEGMENT
_value$546348 = -4					; size = 4
?GetCurSkillGuage@ioItem@@QBEMXZ PROC			; ioItem::GetCurSkillGuage, COMDAT
; _this$ = ecx

; 367  : 	inline float GetCurSkillGuage() const { return m_fCurSkillGauge; }

  00000	55		 push	 ebp
  00001	8b ec		 mov	 ebp, esp
  00003	51		 push	 ecx
  00004	8d 45 fc	 lea	 eax, DWORD PTR _value$546348[ebp]
  00007	50		 push	 eax
  00008	81 c1 f4 03 00
	00		 add	 ecx, 1012		; 000003f4H
  0000e	e8 00 00 00 00	 call	 ?DecryptValueToPool@?$CEncrypt@M@@QAEXPAM@Z ; CEncrypt<float>::DecryptValueToPool
  00013	d9 45 fc	 fld	 DWORD PTR _value$546348[ebp]
  00016	c9		 leave
  00017	c3		 ret	 0
?GetCurSkillGuage@ioItem@@QBEMXZ ENDP			; ioItem::GetCurSkillGuage
_TEXT	ENDS
PUBLIC	??0?$vector@VioHashString@@V?$allocator@VioHashString@@@std@@@std@@QAE@XZ ; std::vector<ioHashString,std::allocator<ioHashString> >::vector<ioHashString,std::allocator<ioHashString> >
; Function compile flags: /Ogsp
; File c:\program files (x86)\microsoft visual studio 10.0\vc\include\vector
;	COMDAT ??0?$vector@VioHashString@@V?$allocator@VioHashString@@@std@@@std@@QAE@XZ
_TEXT	SEGMENT
??0?$vector@VioHashString@@V?$allocator@VioHashString@@@std@@@std@@QAE@XZ PROC ; std::vector<ioHashString,std::allocator<ioHashString> >::vector<ioHashString,std::allocator<ioHashString> >, COMDAT
; _this$ = ecx

; 507  : 		{	// construct empty vector

  00000	8b c1		 mov	 eax, ecx
  00002	33 c9		 xor	 ecx, ecx
  00004	89 08		 mov	 DWORD PTR [eax], ecx
  00006	89 48 04	 mov	 DWORD PTR [eax+4], ecx
  00009	89 48 08	 mov	 DWORD PTR [eax+8], ecx

; 508  : 		}

  0000c	c3		 ret	 0
??0?$vector@VioHashString@@V?$allocator@VioHashString@@@std@@@std@@QAE@XZ ENDP ; std::vector<ioHashString,std::allocator<ioHashString> >::vector<ioHashString,std::allocator<ioHashString> >
_TEXT	ENDS
PUBLIC	??0?$vector@UtagDummyCharLoadInfo@@V?$allocator@UtagDummyCharLoadInfo@@@std@@@std@@QAE@XZ ; std::vector<tagDummyCharLoadInfo,std::allocator<tagDummyCharLoadInfo> >::vector<tagDummyCharLoadInfo,std::allocator<tagDummyCharLoadInfo> >
; Function compile flags: /Ogsp
;	COMDAT ??0?$vector@UtagDummyCharLoadInfo@@V?$allocator@UtagDummyCharLoadInfo@@@std@@@std@@QAE@XZ
_TEXT	SEGMENT
??0?$vector@UtagDummyCharLoadInfo@@V?$allocator@UtagDummyCharLoadInfo@@@std@@@std@@QAE@XZ PROC ; std::vector<tagDummyCharLoadInfo,std::allocator<tagDummyCharLoadInfo> >::vector<tagDummyCharLoadInfo,std::allocator<tagDummyCharLoadInfo> >, COMDAT
; _this$ = ecx

; 507  : 		{	// construct empty vector

  00000	8b c1		 mov	 eax, ecx
  00002	33 c9		 xor	 ecx, ecx
  00004	89 08		 mov	 DWORD PTR [eax], ecx
  00006	89 48 04	 mov	 DWORD PTR [eax+4], ecx
  00009	89 48 08	 mov	 DWORD PTR [eax+8], ecx

; 508  : 		}

  0000c	c3		 ret	 0
??0?$vector@UtagDummyCharLoadInfo@@V?$allocator@UtagDummyCharLoadInfo@@@std@@@std@@QAE@XZ ENDP ; std::vector<tagDummyCharLoadInfo,std::allocator<tagDummyCharLoadInfo> >::vector<tagDummyCharLoadInfo,std::allocator<tagDummyCharLoadInfo> >
_TEXT	ENDS
PUBLIC	?_Buy@?$vector@VioHashString@@V?$allocator@VioHashString@@@std@@@std@@IAE_NI@Z ; std::vector<ioHashString,std::allocator<ioHashString> >::_Buy
; Function compile flags: /Ogsp
;	COMDAT ?_Buy@?$vector@VioHashString@@V?$allocator@VioHashString@@@std@@@std@@IAE_NI@Z
_TEXT	SEGMENT
__Capacity$ = 8						; size = 4
?_Buy@?$vector@VioHashString@@V?$allocator@VioHashString@@@std@@@std@@IAE_NI@Z PROC ; std::vector<ioHashString,std::allocator<ioHashString> >::_Buy, COMDAT
; _this$ = ecx

; 1250 : 		{	// allocate array with _Capacity elements

  00000	55		 push	 ebp
  00001	8b ec		 mov	 ebp, esp
  00003	56		 push	 esi

; 1251 : 		this->_Myfirst = 0;

  00004	33 c0		 xor	 eax, eax
  00006	57		 push	 edi

; 1252 : 		this->_Mylast = 0;
; 1253 : 		this->_Myend = 0;
; 1254 : 
; 1255 : 		if (_Capacity == 0)

  00007	8b 7d 08	 mov	 edi, DWORD PTR __Capacity$[ebp]
  0000a	8b f1		 mov	 esi, ecx
  0000c	89 06		 mov	 DWORD PTR [esi], eax
  0000e	89 46 04	 mov	 DWORD PTR [esi+4], eax
  00011	89 46 08	 mov	 DWORD PTR [esi+8], eax
  00014	3b f8		 cmp	 edi, eax
  00016	75 04		 jne	 SHORT $LN4@Buy@2

; 1256 : 			return (false);

  00018	32 c0		 xor	 al, al
  0001a	eb 2b		 jmp	 SHORT $LN5@Buy@2
$LN4@Buy@2:

; 1257 : 		else if (max_size() < _Capacity)

  0001c	81 ff ff ff ff
	0f		 cmp	 edi, 268435455		; 0fffffffH
  00022	76 0b		 jbe	 SHORT $LN2@Buy@2

; 1258 : 			_Xlen();	// result too long

  00024	68 00 00 00 00	 push	 OFFSET ??_C@_0BD@OLBABOEK@vector?$DMT?$DO?5too?5long?$AA@
  00029	ff 15 00 00 00
	00		 call	 DWORD PTR __imp_?_Xlength_error@std@@YAXPBD@Z
$LN19@Buy@2:
$LN2@Buy@2:

; 1259 : 		else
; 1260 : 			{	// nonempty array, allocate storage
; 1261 : 			this->_Myfirst = this->_Alval.allocate(_Capacity);

  0002f	50		 push	 eax
  00030	57		 push	 edi
  00031	e8 00 00 00 00	 call	 ??$_Allocate@VioHashString@@@std@@YAPAVioHashString@@IPAV1@@Z ; std::_Allocate<ioHashString>

; 1262 : 			this->_Mylast = this->_Myfirst;
; 1263 : 			this->_Myend = this->_Myfirst + _Capacity;

  00036	c1 e7 04	 shl	 edi, 4
  00039	03 f8		 add	 edi, eax
  0003b	59		 pop	 ecx
  0003c	89 06		 mov	 DWORD PTR [esi], eax
  0003e	89 46 04	 mov	 DWORD PTR [esi+4], eax
  00041	59		 pop	 ecx
  00042	89 7e 08	 mov	 DWORD PTR [esi+8], edi

; 1264 : 			}
; 1265 : 		return (true);

  00045	b0 01		 mov	 al, 1
$LN5@Buy@2:
  00047	5f		 pop	 edi
  00048	5e		 pop	 esi

; 1266 : 		}

  00049	5d		 pop	 ebp
  0004a	c2 04 00	 ret	 4
$LN18@Buy@2:
?_Buy@?$vector@VioHashString@@V?$allocator@VioHashString@@@std@@@std@@IAE_NI@Z ENDP ; std::vector<ioHashString,std::allocator<ioHashString> >::_Buy
_TEXT	ENDS
PUBLIC	?begin@?$vector@UtagDummyCharLoadInfo@@V?$allocator@UtagDummyCharLoadInfo@@@std@@@std@@QAE?AV?$_Vector_iterator@V?$_Vector_val@UtagDummyCharLoadInfo@@V?$allocator@UtagDummyCharLoadInfo@@@std@@@std@@@2@XZ ; std::vector<tagDummyCharLoadInfo,std::allocator<tagDummyCharLoadInfo> >::begin
; Function compile flags: /Ogsp
;	COMDAT ?begin@?$vector@UtagDummyCharLoadInfo@@V?$allocator@UtagDummyCharLoadInfo@@@std@@@std@@QAE?AV?$_Vector_iterator@V?$_Vector_val@UtagDummyCharLoadInfo@@V?$allocator@UtagDummyCharLoadInfo@@@std@@@std@@@2@XZ
_TEXT	SEGMENT
___$ReturnUdt$ = 8					; size = 4
?begin@?$vector@UtagDummyCharLoadInfo@@V?$allocator@UtagDummyCharLoadInfo@@@std@@@std@@QAE?AV?$_Vector_iterator@V?$_Vector_val@UtagDummyCharLoadInfo@@V?$allocator@UtagDummyCharLoadInfo@@@std@@@std@@@2@XZ PROC ; std::vector<tagDummyCharLoadInfo,std::allocator<tagDummyCharLoadInfo> >::begin, COMDAT
; _this$ = ecx

; 781  : 		{	// return iterator for beginning of mutable sequence

  00000	55		 push	 ebp
  00001	8b ec		 mov	 ebp, esp

; 782  : 		return (iterator(this->_Myfirst, this));

  00003	8b 09		 mov	 ecx, DWORD PTR [ecx]
  00005	8b 45 08	 mov	 eax, DWORD PTR ___$ReturnUdt$[ebp]
  00008	89 08		 mov	 DWORD PTR [eax], ecx

; 783  : 		}

  0000a	5d		 pop	 ebp
  0000b	c2 04 00	 ret	 4
?begin@?$vector@UtagDummyCharLoadInfo@@V?$allocator@UtagDummyCharLoadInfo@@@std@@@std@@QAE?AV?$_Vector_iterator@V?$_Vector_val@UtagDummyCharLoadInfo@@V?$allocator@UtagDummyCharLoadInfo@@@std@@@std@@@2@XZ ENDP ; std::vector<tagDummyCharLoadInfo,std::allocator<tagDummyCharLoadInfo> >::begin
_TEXT	ENDS
PUBLIC	?end@?$vector@UtagDummyCharLoadInfo@@V?$allocator@UtagDummyCharLoadInfo@@@std@@@std@@QAE?AV?$_Vector_iterator@V?$_Vector_val@UtagDummyCharLoadInfo@@V?$allocator@UtagDummyCharLoadInfo@@@std@@@std@@@2@XZ ; std::vector<tagDummyCharLoadInfo,std::allocator<tagDummyCharLoadInfo> >::end
; Function compile flags: /Ogsp
;	COMDAT ?end@?$vector@UtagDummyCharLoadInfo@@V?$allocator@UtagDummyCharLoadInfo@@@std@@@std@@QAE?AV?$_Vector_iterator@V?$_Vector_val@UtagDummyCharLoadInfo@@V?$allocator@UtagDummyCharLoadInfo@@@std@@@std@@@2@XZ
_TEXT	SEGMENT
___$ReturnUdt$ = 8					; size = 4
?end@?$vector@UtagDummyCharLoadInfo@@V?$allocator@UtagDummyCharLoadInfo@@@std@@@std@@QAE?AV?$_Vector_iterator@V?$_Vector_val@UtagDummyCharLoadInfo@@V?$allocator@UtagDummyCharLoadInfo@@@std@@@std@@@2@XZ PROC ; std::vector<tagDummyCharLoadInfo,std::allocator<tagDummyCharLoadInfo> >::end, COMDAT
; _this$ = ecx

; 791  : 		{	// return iterator for end of mutable sequence

  00000	55		 push	 ebp
  00001	8b ec		 mov	 ebp, esp

; 792  : 		return (iterator(this->_Mylast, this));

  00003	8b 49 04	 mov	 ecx, DWORD PTR [ecx+4]
  00006	8b 45 08	 mov	 eax, DWORD PTR ___$ReturnUdt$[ebp]
  00009	89 08		 mov	 DWORD PTR [eax], ecx

; 793  : 		}

  0000b	5d		 pop	 ebp
  0000c	c2 04 00	 ret	 4
?end@?$vector@UtagDummyCharLoadInfo@@V?$allocator@UtagDummyCharLoadInfo@@@std@@@std@@QAE?AV?$_Vector_iterator@V?$_Vector_val@UtagDummyCharLoadInfo@@V?$allocator@UtagDummyCharLoadInfo@@@std@@@std@@@2@XZ ENDP ; std::vector<tagDummyCharLoadInfo,std::allocator<tagDummyCharLoadInfo> >::end
_TEXT	ENDS
PUBLIC	?_Make_iter@?$vector@UtagDummyCharLoadInfo@@V?$allocator@UtagDummyCharLoadInfo@@@std@@@std@@QBE?AV?$_Vector_iterator@V?$_Vector_val@UtagDummyCharLoadInfo@@V?$allocator@UtagDummyCharLoadInfo@@@std@@@std@@@2@V?$_Vector_const_iterator@V?$_Vector_val@UtagDummyCharLoadInfo@@V?$allocator@UtagDummyCharLoadInfo@@@std@@@std@@@2@@Z ; std::vector<tagDummyCharLoadInfo,std::allocator<tagDummyCharLoadInfo> >::_Make_iter
; Function compile flags: /Ogsp
;	COMDAT ?_Make_iter@?$vector@UtagDummyCharLoadInfo@@V?$allocator@UtagDummyCharLoadInfo@@@std@@@std@@QBE?AV?$_Vector_iterator@V?$_Vector_val@UtagDummyCharLoadInfo@@V?$allocator@UtagDummyCharLoadInfo@@@std@@@std@@@2@V?$_Vector_const_iterator@V?$_Vector_val@UtagDummyCharLoadInfo@@V?$allocator@UtagDummyCharLoadInfo@@@std@@@std@@@2@@Z
_TEXT	SEGMENT
___$ReturnUdt$ = 8					; size = 4
__Where$ = 12						; size = 4
?_Make_iter@?$vector@UtagDummyCharLoadInfo@@V?$allocator@UtagDummyCharLoadInfo@@@std@@@std@@QBE?AV?$_Vector_iterator@V?$_Vector_val@UtagDummyCharLoadInfo@@V?$allocator@UtagDummyCharLoadInfo@@@std@@@std@@@2@V?$_Vector_const_iterator@V?$_Vector_val@UtagDummyCharLoadInfo@@V?$allocator@UtagDummyCharLoadInfo@@@std@@@std@@@2@@Z PROC ; std::vector<tagDummyCharLoadInfo,std::allocator<tagDummyCharLoadInfo> >::_Make_iter, COMDAT
; _this$ = ecx

; 801  : 		{	// make iterator from const_iterator

  00000	55		 push	 ebp
  00001	8b ec		 mov	 ebp, esp

; 802  : 		return (iterator(_Where._Ptr, this));

  00003	8b 45 08	 mov	 eax, DWORD PTR ___$ReturnUdt$[ebp]
  00006	8b 4d 0c	 mov	 ecx, DWORD PTR __Where$[ebp]
  00009	89 08		 mov	 DWORD PTR [eax], ecx

; 803  : 		}

  0000b	5d		 pop	 ebp
  0000c	c2 08 00	 ret	 8
?_Make_iter@?$vector@UtagDummyCharLoadInfo@@V?$allocator@UtagDummyCharLoadInfo@@@std@@@std@@QBE?AV?$_Vector_iterator@V?$_Vector_val@UtagDummyCharLoadInfo@@V?$allocator@UtagDummyCharLoadInfo@@@std@@@std@@@2@V?$_Vector_const_iterator@V?$_Vector_val@UtagDummyCharLoadInfo@@V?$allocator@UtagDummyCharLoadInfo@@@std@@@std@@@2@@Z ENDP ; std::vector<tagDummyCharLoadInfo,std::allocator<tagDummyCharLoadInfo> >::_Make_iter
_TEXT	ENDS
PUBLIC	??9?$_Vector_const_iterator@V?$_Vector_val@VioHashString@@V?$allocator@VioHashString@@@std@@@std@@@std@@QBE_NABV01@@Z ; std::_Vector_const_iterator<std::_Vector_val<ioHashString,std::allocator<ioHashString> > >::operator!=
; Function compile flags: /Ogsp
;	COMDAT ??9?$_Vector_const_iterator@V?$_Vector_val@VioHashString@@V?$allocator@VioHashString@@@std@@@std@@@std@@QBE_NABV01@@Z
_TEXT	SEGMENT
__Right$ = 8						; size = 4
??9?$_Vector_const_iterator@V?$_Vector_val@VioHashString@@V?$allocator@VioHashString@@@std@@@std@@@std@@QBE_NABV01@@Z PROC ; std::_Vector_const_iterator<std::_Vector_val<ioHashString,std::allocator<ioHashString> > >::operator!=, COMDAT
; _this$ = ecx

; 207  : 		{	// test for iterator inequality

  00000	55		 push	 ebp
  00001	8b ec		 mov	 ebp, esp

; 208  : 		return (!(*this == _Right));

  00003	8b 01		 mov	 eax, DWORD PTR [ecx]
  00005	8b 55 08	 mov	 edx, DWORD PTR __Right$[ebp]
  00008	33 c9		 xor	 ecx, ecx
  0000a	3b 02		 cmp	 eax, DWORD PTR [edx]
  0000c	0f 95 c0	 setne	 al

; 209  : 		}

  0000f	5d		 pop	 ebp
  00010	c2 04 00	 ret	 4
??9?$_Vector_const_iterator@V?$_Vector_val@VioHashString@@V?$allocator@VioHashString@@@std@@@std@@@std@@QBE_NABV01@@Z ENDP ; std::_Vector_const_iterator<std::_Vector_val<ioHashString,std::allocator<ioHashString> > >::operator!=
_TEXT	ENDS
PUBLIC	??9?$_Vector_const_iterator@V?$_Vector_val@UtagDummyCharLoadInfo@@V?$allocator@UtagDummyCharLoadInfo@@@std@@@std@@@std@@QBE_NABV01@@Z ; std::_Vector_const_iterator<std::_Vector_val<tagDummyCharLoadInfo,std::allocator<tagDummyCharLoadInfo> > >::operator!=
; Function compile flags: /Ogsp
;	COMDAT ??9?$_Vector_const_iterator@V?$_Vector_val@UtagDummyCharLoadInfo@@V?$allocator@UtagDummyCharLoadInfo@@@std@@@std@@@std@@QBE_NABV01@@Z
_TEXT	SEGMENT
__Right$ = 8						; size = 4
??9?$_Vector_const_iterator@V?$_Vector_val@UtagDummyCharLoadInfo@@V?$allocator@UtagDummyCharLoadInfo@@@std@@@std@@@std@@QBE_NABV01@@Z PROC ; std::_Vector_const_iterator<std::_Vector_val<tagDummyCharLoadInfo,std::allocator<tagDummyCharLoadInfo> > >::operator!=, COMDAT
; _this$ = ecx

; 207  : 		{	// test for iterator inequality

  00000	55		 push	 ebp
  00001	8b ec		 mov	 ebp, esp

; 208  : 		return (!(*this == _Right));

  00003	8b 01		 mov	 eax, DWORD PTR [ecx]
  00005	8b 55 08	 mov	 edx, DWORD PTR __Right$[ebp]
  00008	33 c9		 xor	 ecx, ecx
  0000a	3b 02		 cmp	 eax, DWORD PTR [edx]
  0000c	0f 95 c0	 setne	 al

; 209  : 		}

  0000f	5d		 pop	 ebp
  00010	c2 04 00	 ret	 4
??9?$_Vector_const_iterator@V?$_Vector_val@UtagDummyCharLoadInfo@@V?$allocator@UtagDummyCharLoadInfo@@@std@@@std@@@std@@QBE_NABV01@@Z ENDP ; std::_Vector_const_iterator<std::_Vector_val<tagDummyCharLoadInfo,std::allocator<tagDummyCharLoadInfo> > >::operator!=
_TEXT	ENDS
PUBLIC	??$_Move@PAVioHashString@@PAV1@@std@@YAPAVioHashString@@PAV1@00@Z ; std::_Move<ioHashString *,ioHashString *>
; Function compile flags: /Ogsp
; File c:\program files (x86)\microsoft visual studio 10.0\vc\include\xutility
;	COMDAT ??$_Move@PAVioHashString@@PAV1@@std@@YAPAVioHashString@@PAV1@00@Z
_TEXT	SEGMENT
__Cat$546489 = -4					; size = 1
__First$ = 8						; size = 4
__Last$ = 12						; size = 4
__Dest$ = 16						; size = 4
??$_Move@PAVioHashString@@PAV1@@std@@YAPAVioHashString@@PAV1@00@Z PROC ; std::_Move<ioHashString *,ioHashString *>, COMDAT

; 2533 : 	{	// move [_First, _Last) to [_Dest, ...), unchecked

  00000	55		 push	 ebp
  00001	8b ec		 mov	 ebp, esp
  00003	51		 push	 ecx

; 2534 : 	return (_Move(_First, _Last,
; 2535 : 		_Dest, _Ptr_cat(_First, _Dest)));

  00004	ff 75 fc	 push	 DWORD PTR __Cat$546489[ebp]
  00007	ff 75 10	 push	 DWORD PTR __Dest$[ebp]
  0000a	ff 75 0c	 push	 DWORD PTR __Last$[ebp]
  0000d	ff 75 08	 push	 DWORD PTR __First$[ebp]
  00010	e8 00 00 00 00	 call	 ??$_Move@PAVioHashString@@PAV1@@std@@YAPAVioHashString@@PAV1@00U_Nonscalar_ptr_iterator_tag@0@@Z ; std::_Move<ioHashString *,ioHashString *>
  00015	83 c4 10	 add	 esp, 16			; 00000010H

; 2536 : 	}

  00018	c9		 leave
  00019	c3		 ret	 0
??$_Move@PAVioHashString@@PAV1@@std@@YAPAVioHashString@@PAV1@00@Z ENDP ; std::_Move<ioHashString *,ioHashString *>
_TEXT	ENDS
PUBLIC	??$_Move@PAUtagDummyCharLoadInfo@@PAU1@@std@@YAPAUtagDummyCharLoadInfo@@PAU1@00@Z ; std::_Move<tagDummyCharLoadInfo *,tagDummyCharLoadInfo *>
; Function compile flags: /Ogsp
;	COMDAT ??$_Move@PAUtagDummyCharLoadInfo@@PAU1@@std@@YAPAUtagDummyCharLoadInfo@@PAU1@00@Z
_TEXT	SEGMENT
__Cat$546496 = -4					; size = 1
__First$ = 8						; size = 4
__Last$ = 12						; size = 4
__Dest$ = 16						; size = 4
??$_Move@PAUtagDummyCharLoadInfo@@PAU1@@std@@YAPAUtagDummyCharLoadInfo@@PAU1@00@Z PROC ; std::_Move<tagDummyCharLoadInfo *,tagDummyCharLoadInfo *>, COMDAT

; 2533 : 	{	// move [_First, _Last) to [_Dest, ...), unchecked

  00000	55		 push	 ebp
  00001	8b ec		 mov	 ebp, esp
  00003	51		 push	 ecx

; 2534 : 	return (_Move(_First, _Last,
; 2535 : 		_Dest, _Ptr_cat(_First, _Dest)));

  00004	ff 75 fc	 push	 DWORD PTR __Cat$546496[ebp]
  00007	ff 75 10	 push	 DWORD PTR __Dest$[ebp]
  0000a	ff 75 0c	 push	 DWORD PTR __Last$[ebp]
  0000d	ff 75 08	 push	 DWORD PTR __First$[ebp]
  00010	e8 00 00 00 00	 call	 ??$_Move@PAUtagDummyCharLoadInfo@@PAU1@@std@@YAPAUtagDummyCharLoadInfo@@PAU1@00U_Nonscalar_ptr_iterator_tag@0@@Z ; std::_Move<tagDummyCharLoadInfo *,tagDummyCharLoadInfo *>
  00015	83 c4 10	 add	 esp, 16			; 00000010H

; 2536 : 	}

  00018	c9		 leave
  00019	c3		 ret	 0
??$_Move@PAUtagDummyCharLoadInfo@@PAU1@@std@@YAPAUtagDummyCharLoadInfo@@PAU1@00@Z ENDP ; std::_Move<tagDummyCharLoadInfo *,tagDummyCharLoadInfo *>
_TEXT	ENDS
PUBLIC	?destroy@?$allocator@VioHashString@@@std@@QAEXPAVioHashString@@@Z ; std::allocator<ioHashString>::destroy
; Function compile flags: /Ogsp
; File c:\program files (x86)\microsoft visual studio 10.0\vc\include\xmemory
;	COMDAT ?destroy@?$allocator@VioHashString@@@std@@QAEXPAVioHashString@@@Z
_TEXT	SEGMENT
__Ptr$ = 8						; size = 4
?destroy@?$allocator@VioHashString@@@std@@QAEXPAVioHashString@@@Z PROC ; std::allocator<ioHashString>::destroy, COMDAT
; _this$ = ecx

; 212  : 		{	// destroy object at _Ptr

  00000	55		 push	 ebp
  00001	8b ec		 mov	 ebp, esp

; 213  : 		_Destroy(_Ptr);

  00003	8b 4d 08	 mov	 ecx, DWORD PTR __Ptr$[ebp]
  00006	ff 15 00 00 00
	00		 call	 DWORD PTR __imp_??1ioHashString@@QAE@XZ

; 214  : 		}

  0000c	5d		 pop	 ebp
  0000d	c2 04 00	 ret	 4
?destroy@?$allocator@VioHashString@@@std@@QAEXPAVioHashString@@@Z ENDP ; std::allocator<ioHashString>::destroy
_TEXT	ENDS
PUBLIC	??$_Cons_val@V?$allocator@VioHashString@@@std@@VioHashString@@ABV3@@std@@YAXAAV?$allocator@VioHashString@@@0@PAVioHashString@@ABV2@@Z ; std::_Cons_val<std::allocator<ioHashString>,ioHashString,ioHashString const &>
; Function compile flags: /Ogsp
;	COMDAT ??$_Cons_val@V?$allocator@VioHashString@@@std@@VioHashString@@ABV3@@std@@YAXAAV?$allocator@VioHashString@@@0@PAVioHashString@@ABV2@@Z
_TEXT	SEGMENT
__Alval$ = 8						; size = 4
__Pdest$ = 12						; size = 4
__Src$ = 16						; size = 4
??$_Cons_val@V?$allocator@VioHashString@@@std@@VioHashString@@ABV3@@std@@YAXAAV?$allocator@VioHashString@@@0@PAVioHashString@@ABV2@@Z PROC ; std::_Cons_val<std::allocator<ioHashString>,ioHashString,ioHashString const &>, COMDAT

; 279  : 	{	// construct using allocator

  00000	55		 push	 ebp
  00001	8b ec		 mov	 ebp, esp

; 280  : 	_Alval.construct(_Pdest, _STD forward<_Ty2>(_Src));

  00003	ff 75 10	 push	 DWORD PTR __Src$[ebp]
  00006	ff 75 0c	 push	 DWORD PTR __Pdest$[ebp]
  00009	e8 00 00 00 00	 call	 ??$_Construct@VioHashString@@ABV1@@std@@YAXPAVioHashString@@ABV1@@Z ; std::_Construct<ioHashString,ioHashString const &>
  0000e	59		 pop	 ecx
  0000f	59		 pop	 ecx

; 281  : 	}

  00010	5d		 pop	 ebp
  00011	c3		 ret	 0
??$_Cons_val@V?$allocator@VioHashString@@@std@@VioHashString@@ABV3@@std@@YAXAAV?$allocator@VioHashString@@@0@PAVioHashString@@ABV2@@Z ENDP ; std::_Cons_val<std::allocator<ioHashString>,ioHashString,ioHashString const &>
_TEXT	ENDS
PUBLIC	??$_Destroy@UtagDummyCharLoadInfo@@@std@@YAXPAUtagDummyCharLoadInfo@@@Z ; std::_Destroy<tagDummyCharLoadInfo>
; Function compile flags: /Ogsp
;	COMDAT ??$_Destroy@UtagDummyCharLoadInfo@@@std@@YAXPAUtagDummyCharLoadInfo@@@Z
_TEXT	SEGMENT
__Ptr$ = 8						; size = 4
??$_Destroy@UtagDummyCharLoadInfo@@@std@@YAXPAUtagDummyCharLoadInfo@@@Z PROC ; std::_Destroy<tagDummyCharLoadInfo>, COMDAT

; 62   : 	{	// destroy object at _Ptr

  00000	55		 push	 ebp
  00001	8b ec		 mov	 ebp, esp

; 63   : 	_Ptr->~_Ty();

  00003	8b 4d 08	 mov	 ecx, DWORD PTR __Ptr$[ebp]

; 64   : 	}

  00006	5d		 pop	 ebp

; 63   : 	_Ptr->~_Ty();

  00007	ff 25 00 00 00
	00		 jmp	 DWORD PTR __imp_??1ioHashString@@QAE@XZ
??$_Destroy@UtagDummyCharLoadInfo@@@std@@YAXPAUtagDummyCharLoadInfo@@@Z ENDP ; std::_Destroy<tagDummyCharLoadInfo>
_TEXT	ENDS
PUBLIC	?EndBuff@ioCreateDummyCharBuff@@UAEXXZ		; ioCreateDummyCharBuff::EndBuff
EXTRN	?EndBuff@ioBuff@@UAEXXZ:PROC			; ioBuff::EndBuff
EXTRN	?SetExplosion@ioCopyOwnerDummyChar@@QAEXXZ:PROC	; ioCopyOwnerDummyChar::SetExplosion
EXTRN	__imp_?GetLoopSec@ioFrameTimer@@QBEKXZ:PROC
EXTRN	__imp_?GetSingleton@ioFrameTimer@@SAAAV1@XZ:PROC
EXTRN	?GetBuffDuration@ioBuff@@IAEKXZ:PROC		; ioBuff::GetBuffDuration
EXTRN	?GetOwnerItem@ioBuff@@QAEPAVioItem@@XZ:PROC	; ioBuff::GetOwnerItem
; Function compile flags: /Ogsp
; File d:\lost saga for developer\youtube\tutorial\source\src\lsclient\iocreatedummycharbuff.cpp
;	COMDAT ?EndBuff@ioCreateDummyCharBuff@@UAEXXZ
_TEXT	SEGMENT
_value$546555 = -28					; size = 4
_pItem$542348 = -24					; size = 4
_value$546545 = -20					; size = 4
_pOwner$ = -16						; size = 4
tv187 = -12						; size = 4
tv298 = -8						; size = 4
_value$546561 = -1					; size = 1
?EndBuff@ioCreateDummyCharBuff@@UAEXXZ PROC		; ioCreateDummyCharBuff::EndBuff, COMDAT
; _this$ = ecx

; 250  : {

  00000	55		 push	 ebp
  00001	8b ec		 mov	 ebp, esp
  00003	83 ec 1c	 sub	 esp, 28			; 0000001cH
  00006	56		 push	 esi
  00007	8b f1		 mov	 esi, ecx

; 251  : 	ioBaseChar *pOwner = GetOwner();

  00009	e8 00 00 00 00	 call	 ?GetOwner@ioBuff@@QAEPAVioBaseChar@@XZ ; ioBuff::GetOwner
  0000e	89 45 f0	 mov	 DWORD PTR _pOwner$[ebp], eax

; 252  : 	if( pOwner )

  00011	85 c0		 test	 eax, eax
  00013	0f 84 0f 01 00
	00		 je	 $LN26@EndBuff

; 253  : 	{
; 254  : 		int iSize = m_CreateDummyList.size();

  00019	8b 86 c0 09 00
	00		 mov	 eax, DWORD PTR [esi+2496]
  0001f	2b 86 bc 09 00
	00		 sub	 eax, DWORD PTR [esi+2492]
  00025	57		 push	 edi
  00026	6a 24		 push	 36			; 00000024H
  00028	99		 cdq
  00029	59		 pop	 ecx
  0002a	f7 f9		 idiv	 ecx

; 255  : 		for( int i=0; i<iSize; ++i )

  0002c	85 c0		 test	 eax, eax
  0002e	0f 8e ad 00 00
	00		 jle	 $LN8@EndBuff

; 253  : 	{
; 254  : 		int iSize = m_CreateDummyList.size();

  00034	83 65 f8 00	 and	 DWORD PTR tv298[ebp], 0
  00038	89 45 f4	 mov	 DWORD PTR tv187[ebp], eax
  0003b	53		 push	 ebx
$LL31@EndBuff:

; 256  : 		{
; 257  : 			ioDummyChar *pDummy = g_DummyCharMgr.FindDummyChar( pOwner, m_CreateDummyList[i].m_iDummyCharIdx );

  0003c	8b 86 bc 09 00
	00		 mov	 eax, DWORD PTR [esi+2492]
  00042	03 45 f8	 add	 eax, DWORD PTR tv298[ebp]
  00045	ff 70 10	 push	 DWORD PTR [eax+16]
  00048	ff 75 f0	 push	 DWORD PTR _pOwner$[ebp]
  0004b	e8 00 00 00 00	 call	 ?GetSingleton@ioDummyCharManager@@SAAAV1@XZ ; ioDummyCharManager::GetSingleton
  00050	8b c8		 mov	 ecx, eax
  00052	e8 00 00 00 00	 call	 ?FindDummyChar@ioDummyCharManager@@QAEPAVioDummyChar@@PAVioBaseChar@@H@Z ; ioDummyCharManager::FindDummyChar

; 258  : 			ioCopyOwnerDummyChar *pCopyOwnerDummy = ToCopyOwnerDummyChar( pDummy );

  00057	50		 push	 eax
  00058	e8 00 00 00 00	 call	 ?ToCopyOwnerDummyChar@@YAPAVioCopyOwnerDummyChar@@PAVioDummyChar@@@Z ; ToCopyOwnerDummyChar
  0005d	8b f8		 mov	 edi, eax
  0005f	59		 pop	 ecx

; 259  : 			if( pCopyOwnerDummy )

  00060	85 ff		 test	 edi, edi
  00062	74 6f		 je	 SHORT $LN9@EndBuff

; 260  : 			{
; 261  : 				ioItem *pItem = GetOwnerItem();

  00064	8b ce		 mov	 ecx, esi
  00066	e8 00 00 00 00	 call	 ?GetOwnerItem@ioBuff@@QAEPAVioItem@@XZ ; ioBuff::GetOwnerItem

; 262  : 				if( ( GetBuffDuration() > 0 && m_dwBuffEndTime <= FRAMEGETTIME() ) || ( pItem && pItem->GetCurSkillGuage() <= 0.0f ) )

  0006b	8b ce		 mov	 ecx, esi
  0006d	89 45 e8	 mov	 DWORD PTR _pItem$542348[ebp], eax
  00070	e8 00 00 00 00	 call	 ?GetBuffDuration@ioBuff@@IAEKXZ ; ioBuff::GetBuffDuration
  00075	85 c0		 test	 eax, eax
  00077	74 24		 je	 SHORT $LN4@EndBuff
  00079	ff 15 00 00 00
	00		 call	 DWORD PTR __imp_?GetSingleton@ioFrameTimer@@SAAAV1@XZ
  0007f	8b c8		 mov	 ecx, eax
  00081	ff 15 00 00 00
	00		 call	 DWORD PTR __imp_?GetLoopSec@ioFrameTimer@@QBEKXZ
  00087	8b d8		 mov	 ebx, eax
  00089	8d 45 ec	 lea	 eax, DWORD PTR _value$546545[ebp]
  0008c	50		 push	 eax
  0008d	8d 8e 9c 03 00
	00		 lea	 ecx, DWORD PTR [esi+924]
  00093	e8 00 00 00 00	 call	 ?DecryptValueToPool@?$CEncrypt@K@@QAEXPAK@Z ; CEncrypt<unsigned long>::DecryptValueToPool
  00098	39 5d ec	 cmp	 DWORD PTR _value$546545[ebp], ebx
  0009b	76 1f		 jbe	 SHORT $LN30@EndBuff
$LN4@EndBuff:
  0009d	8b 45 e8	 mov	 eax, DWORD PTR _pItem$542348[ebp]
  000a0	85 c0		 test	 eax, eax
  000a2	74 21		 je	 SHORT $LN6@EndBuff
  000a4	8d 4d e4	 lea	 ecx, DWORD PTR _value$546555[ebp]
  000a7	51		 push	 ecx
  000a8	8d 88 f4 03 00
	00		 lea	 ecx, DWORD PTR [eax+1012]
  000ae	e8 00 00 00 00	 call	 ?DecryptValueToPool@?$CEncrypt@M@@QAEXPAM@Z ; CEncrypt<float>::DecryptValueToPool
  000b3	0f 57 c0	 xorps	 xmm0, xmm0
  000b6	0f 2f 45 e4	 comiss	 xmm0, DWORD PTR _value$546555[ebp]
  000ba	72 09		 jb	 SHORT $LN6@EndBuff
$LN30@EndBuff:

; 263  : 					pCopyOwnerDummy->SetExplosion();

  000bc	8b cf		 mov	 ecx, edi
  000be	e8 00 00 00 00	 call	 ?SetExplosion@ioCopyOwnerDummyChar@@QAEXXZ ; ioCopyOwnerDummyChar::SetExplosion

; 264  : 				else

  000c3	eb 0e		 jmp	 SHORT $LN9@EndBuff
$LN6@EndBuff:

; 265  : 					pCopyOwnerDummy->SetDieState( true );

  000c5	8b 07		 mov	 eax, DWORD PTR [edi]
  000c7	6a 00		 push	 0
  000c9	6a 01		 push	 1
  000cb	8b cf		 mov	 ecx, edi
  000cd	ff 90 1c 01 00
	00		 call	 DWORD PTR [eax+284]
$LN9@EndBuff:

; 255  : 		for( int i=0; i<iSize; ++i )

  000d3	83 45 f8 24	 add	 DWORD PTR tv298[ebp], 36 ; 00000024H
  000d7	ff 4d f4	 dec	 DWORD PTR tv187[ebp]
  000da	0f 85 5c ff ff
	ff		 jne	 $LL31@EndBuff
  000e0	5b		 pop	 ebx
$LN8@EndBuff:

; 266  : 			}
; 267  : 		}
; 268  : 
; 269  : 		pOwner->SetAlphaRateDirect( MAX_ALPHA_RATE );

  000e1	8b 7d f0	 mov	 edi, DWORD PTR _pOwner$[ebp]
  000e4	68 ff 00 00 00	 push	 255			; 000000ffH
  000e9	8b cf		 mov	 ecx, edi
  000eb	e8 00 00 00 00	 call	 ?SetAlphaRateDirect@ioGameEntity@@QAEXH@Z ; ioGameEntity::SetAlphaRateDirect

; 270  : 		pOwner->SetHideChar( false );

  000f0	6a 00		 push	 0
  000f2	8b cf		 mov	 ecx, edi
  000f4	e8 00 00 00 00	 call	 ?SetHideChar@ioBaseChar@@QAEX_N@Z ; ioBaseChar::SetHideChar

; 271  : 
; 272  : 		if( m_bNoWoundState )

  000f9	80 be 78 09 00
	00 00		 cmp	 BYTE PTR [esi+2424], 0
  00100	74 09		 je	 SHORT $LN2@EndBuff

; 273  : 			pOwner->SetNoWoundState( false );

  00102	6a 00		 push	 0
  00104	8b cf		 mov	 ecx, edi
  00106	e8 00 00 00 00	 call	 ?SetNoWoundState@ioBaseChar@@QAEX_N@Z ; ioBaseChar::SetNoWoundState
$LN2@EndBuff:

; 274  : 
; 275  : 		if( m_bHideFootDustEffect )

  0010b	8d 45 ff	 lea	 eax, DWORD PTR _value$546561[ebp]
  0010e	50		 push	 eax
  0010f	8d 8e 7c 09 00
	00		 lea	 ecx, DWORD PTR [esi+2428]
  00115	e8 00 00 00 00	 call	 ?DecryptValueToPool@?$CEncrypt@_N@@QAEXPA_N@Z ; CEncrypt<bool>::DecryptValueToPool
  0011a	80 7d ff 00	 cmp	 BYTE PTR _value$546561[ebp], 0
  0011e	74 07		 je	 SHORT $LN32@EndBuff

; 276  : 		{
; 277  : 			pOwner->SetHideFootDustEffect( false );

  00120	c6 87 de 13 00
	00 00		 mov	 BYTE PTR [edi+5086], 0
$LN32@EndBuff:
  00127	5f		 pop	 edi
$LN26@EndBuff:

; 278  : 		}
; 279  : 	}
; 280  : 
; 281  : 	ioBuff::EndBuff();

  00128	8b ce		 mov	 ecx, esi
  0012a	e8 00 00 00 00	 call	 ?EndBuff@ioBuff@@UAEXXZ	; ioBuff::EndBuff
  0012f	5e		 pop	 esi

; 282  : }

  00130	c9		 leave
  00131	c3		 ret	 0
?EndBuff@ioCreateDummyCharBuff@@UAEXXZ ENDP		; ioCreateDummyCharBuff::EndBuff
_TEXT	ENDS
PUBLIC	??$_Cons_val@V?$allocator@UtagDummyCharCreateInfo@@@std@@UtagDummyCharCreateInfo@@ABU3@@std@@YAXAAV?$allocator@UtagDummyCharCreateInfo@@@0@PAUtagDummyCharCreateInfo@@ABU2@@Z ; std::_Cons_val<std::allocator<tagDummyCharCreateInfo>,tagDummyCharCreateInfo,tagDummyCharCreateInfo const &>
; Function compile flags: /Ogsp
; File c:\program files (x86)\microsoft visual studio 10.0\vc\include\xmemory
;	COMDAT ??$_Cons_val@V?$allocator@UtagDummyCharCreateInfo@@@std@@UtagDummyCharCreateInfo@@ABU3@@std@@YAXAAV?$allocator@UtagDummyCharCreateInfo@@@0@PAUtagDummyCharCreateInfo@@ABU2@@Z
_TEXT	SEGMENT
__Alval$ = 8						; size = 4
__Pdest$ = 12						; size = 4
__Src$ = 16						; size = 4
??$_Cons_val@V?$allocator@UtagDummyCharCreateInfo@@@std@@UtagDummyCharCreateInfo@@ABU3@@std@@YAXAAV?$allocator@UtagDummyCharCreateInfo@@@0@PAUtagDummyCharCreateInfo@@ABU2@@Z PROC ; std::_Cons_val<std::allocator<tagDummyCharCreateInfo>,tagDummyCharCreateInfo,tagDummyCharCreateInfo const &>, COMDAT

; 279  : 	{	// construct using allocator

  00000	55		 push	 ebp
  00001	8b ec		 mov	 ebp, esp

; 280  : 	_Alval.construct(_Pdest, _STD forward<_Ty2>(_Src));

  00003	ff 75 10	 push	 DWORD PTR __Src$[ebp]
  00006	ff 75 0c	 push	 DWORD PTR __Pdest$[ebp]
  00009	e8 00 00 00 00	 call	 ??$_Construct@UtagDummyCharCreateInfo@@ABU1@@std@@YAXPAUtagDummyCharCreateInfo@@ABU1@@Z ; std::_Construct<tagDummyCharCreateInfo,tagDummyCharCreateInfo const &>
  0000e	59		 pop	 ecx
  0000f	59		 pop	 ecx

; 281  : 	}

  00010	5d		 pop	 ebp
  00011	c3		 ret	 0
??$_Cons_val@V?$allocator@UtagDummyCharCreateInfo@@@std@@UtagDummyCharCreateInfo@@ABU3@@std@@YAXAAV?$allocator@UtagDummyCharCreateInfo@@@0@PAUtagDummyCharCreateInfo@@ABU2@@Z ENDP ; std::_Cons_val<std::allocator<tagDummyCharCreateInfo>,tagDummyCharCreateInfo,tagDummyCharCreateInfo const &>
_TEXT	ENDS
PUBLIC	??$_Dest_val@V?$allocator@UtagDummyCharCreateInfo@@@std@@UtagDummyCharCreateInfo@@@std@@YAXAAV?$allocator@UtagDummyCharCreateInfo@@@0@PAUtagDummyCharCreateInfo@@@Z ; std::_Dest_val<std::allocator<tagDummyCharCreateInfo>,tagDummyCharCreateInfo>
; Function compile flags: /Ogsp
;	COMDAT ??$_Dest_val@V?$allocator@UtagDummyCharCreateInfo@@@std@@UtagDummyCharCreateInfo@@@std@@YAXAAV?$allocator@UtagDummyCharCreateInfo@@@0@PAUtagDummyCharCreateInfo@@@Z
_TEXT	SEGMENT
__Alval$ = 8						; size = 4
__Pdest$ = 12						; size = 4
??$_Dest_val@V?$allocator@UtagDummyCharCreateInfo@@@std@@UtagDummyCharCreateInfo@@@std@@YAXAAV?$allocator@UtagDummyCharCreateInfo@@@0@PAUtagDummyCharCreateInfo@@@Z PROC ; std::_Dest_val<std::allocator<tagDummyCharCreateInfo>,tagDummyCharCreateInfo>, COMDAT

; 286  : 	{	// destroy using allocator

  00000	55		 push	 ebp
  00001	8b ec		 mov	 ebp, esp

; 287  : 	_Alval.destroy(_Pdest);

  00003	8b 4d 0c	 mov	 ecx, DWORD PTR __Pdest$[ebp]

; 288  : 	}

  00006	5d		 pop	 ebp

; 287  : 	_Alval.destroy(_Pdest);

  00007	ff 25 00 00 00
	00		 jmp	 DWORD PTR __imp_??1ioHashString@@QAE@XZ
??$_Dest_val@V?$allocator@UtagDummyCharCreateInfo@@@std@@UtagDummyCharCreateInfo@@@std@@YAXAAV?$allocator@UtagDummyCharCreateInfo@@@0@PAUtagDummyCharCreateInfo@@@Z ENDP ; std::_Dest_val<std::allocator<tagDummyCharCreateInfo>,tagDummyCharCreateInfo>
_TEXT	ENDS
PUBLIC	??$_Cons_val@V?$allocator@UtagDummyCharLoadInfo@@@std@@UtagDummyCharLoadInfo@@ABU3@@std@@YAXAAV?$allocator@UtagDummyCharLoadInfo@@@0@PAUtagDummyCharLoadInfo@@ABU2@@Z ; std::_Cons_val<std::allocator<tagDummyCharLoadInfo>,tagDummyCharLoadInfo,tagDummyCharLoadInfo const &>
; Function compile flags: /Ogsp
;	COMDAT ??$_Cons_val@V?$allocator@UtagDummyCharLoadInfo@@@std@@UtagDummyCharLoadInfo@@ABU3@@std@@YAXAAV?$allocator@UtagDummyCharLoadInfo@@@0@PAUtagDummyCharLoadInfo@@ABU2@@Z
_TEXT	SEGMENT
__Alval$ = 8						; size = 4
__Pdest$ = 12						; size = 4
__Src$ = 16						; size = 4
??$_Cons_val@V?$allocator@UtagDummyCharLoadInfo@@@std@@UtagDummyCharLoadInfo@@ABU3@@std@@YAXAAV?$allocator@UtagDummyCharLoadInfo@@@0@PAUtagDummyCharLoadInfo@@ABU2@@Z PROC ; std::_Cons_val<std::allocator<tagDummyCharLoadInfo>,tagDummyCharLoadInfo,tagDummyCharLoadInfo const &>, COMDAT

; 279  : 	{	// construct using allocator

  00000	55		 push	 ebp
  00001	8b ec		 mov	 ebp, esp

; 280  : 	_Alval.construct(_Pdest, _STD forward<_Ty2>(_Src));

  00003	ff 75 10	 push	 DWORD PTR __Src$[ebp]
  00006	ff 75 0c	 push	 DWORD PTR __Pdest$[ebp]
  00009	e8 00 00 00 00	 call	 ??$_Construct@UtagDummyCharLoadInfo@@ABU1@@std@@YAXPAUtagDummyCharLoadInfo@@ABU1@@Z ; std::_Construct<tagDummyCharLoadInfo,tagDummyCharLoadInfo const &>
  0000e	59		 pop	 ecx
  0000f	59		 pop	 ecx

; 281  : 	}

  00010	5d		 pop	 ebp
  00011	c3		 ret	 0
??$_Cons_val@V?$allocator@UtagDummyCharLoadInfo@@@std@@UtagDummyCharLoadInfo@@ABU3@@std@@YAXAAV?$allocator@UtagDummyCharLoadInfo@@@0@PAUtagDummyCharLoadInfo@@ABU2@@Z ENDP ; std::_Cons_val<std::allocator<tagDummyCharLoadInfo>,tagDummyCharLoadInfo,tagDummyCharLoadInfo const &>
_TEXT	ENDS
PUBLIC	??$_Dest_val@V?$allocator@VioHashString@@@std@@VioHashString@@@std@@YAXAAV?$allocator@VioHashString@@@0@PAVioHashString@@@Z ; std::_Dest_val<std::allocator<ioHashString>,ioHashString>
; Function compile flags: /Ogsp
;	COMDAT ??$_Dest_val@V?$allocator@VioHashString@@@std@@VioHashString@@@std@@YAXAAV?$allocator@VioHashString@@@0@PAVioHashString@@@Z
_TEXT	SEGMENT
__Alval$ = 8						; size = 4
__Pdest$ = 12						; size = 4
??$_Dest_val@V?$allocator@VioHashString@@@std@@VioHashString@@@std@@YAXAAV?$allocator@VioHashString@@@0@PAVioHashString@@@Z PROC ; std::_Dest_val<std::allocator<ioHashString>,ioHashString>, COMDAT

; 286  : 	{	// destroy using allocator

  00000	55		 push	 ebp
  00001	8b ec		 mov	 ebp, esp

; 287  : 	_Alval.destroy(_Pdest);

  00003	8b 4d 0c	 mov	 ecx, DWORD PTR __Pdest$[ebp]

; 288  : 	}

  00006	5d		 pop	 ebp

; 287  : 	_Alval.destroy(_Pdest);

  00007	ff 25 00 00 00
	00		 jmp	 DWORD PTR __imp_??1ioHashString@@QAE@XZ
??$_Dest_val@V?$allocator@VioHashString@@@std@@VioHashString@@@std@@YAXAAV?$allocator@VioHashString@@@0@PAVioHashString@@@Z ENDP ; std::_Dest_val<std::allocator<ioHashString>,ioHashString>
_TEXT	ENDS
PUBLIC	?destroy@?$allocator@UtagDummyCharLoadInfo@@@std@@QAEXPAUtagDummyCharLoadInfo@@@Z ; std::allocator<tagDummyCharLoadInfo>::destroy
; Function compile flags: /Ogsp
;	COMDAT ?destroy@?$allocator@UtagDummyCharLoadInfo@@@std@@QAEXPAUtagDummyCharLoadInfo@@@Z
_TEXT	SEGMENT
__Ptr$ = 8						; size = 4
?destroy@?$allocator@UtagDummyCharLoadInfo@@@std@@QAEXPAUtagDummyCharLoadInfo@@@Z PROC ; std::allocator<tagDummyCharLoadInfo>::destroy, COMDAT
; _this$ = ecx

; 212  : 		{	// destroy object at _Ptr

  00000	55		 push	 ebp
  00001	8b ec		 mov	 ebp, esp

; 213  : 		_Destroy(_Ptr);

  00003	8b 4d 08	 mov	 ecx, DWORD PTR __Ptr$[ebp]
  00006	ff 15 00 00 00
	00		 call	 DWORD PTR __imp_??1ioHashString@@QAE@XZ

; 214  : 		}

  0000c	5d		 pop	 ebp
  0000d	c2 04 00	 ret	 4
?destroy@?$allocator@UtagDummyCharLoadInfo@@@std@@QAEXPAUtagDummyCharLoadInfo@@@Z ENDP ; std::allocator<tagDummyCharLoadInfo>::destroy
_TEXT	ENDS
PUBLIC	??$_Destroy_range@V?$allocator@UtagDummyCharCreateInfo@@@std@@@std@@YAXPAUtagDummyCharCreateInfo@@0AAV?$allocator@UtagDummyCharCreateInfo@@@0@U_Nonscalar_ptr_iterator_tag@0@@Z ; std::_Destroy_range<std::allocator<tagDummyCharCreateInfo> >
; Function compile flags: /Ogsp
;	COMDAT ??$_Destroy_range@V?$allocator@UtagDummyCharCreateInfo@@@std@@@std@@YAXPAUtagDummyCharCreateInfo@@0AAV?$allocator@UtagDummyCharCreateInfo@@@0@U_Nonscalar_ptr_iterator_tag@0@@Z
_TEXT	SEGMENT
__First$ = 8						; size = 4
__Last$ = 12						; size = 4
__Al$ = 16						; size = 4
___formal$ = 20						; size = 1
??$_Destroy_range@V?$allocator@UtagDummyCharCreateInfo@@@std@@@std@@YAXPAUtagDummyCharCreateInfo@@0AAV?$allocator@UtagDummyCharCreateInfo@@@0@U_Nonscalar_ptr_iterator_tag@0@@Z PROC ; std::_Destroy_range<std::allocator<tagDummyCharCreateInfo> >, COMDAT

; 95   : 	{	// destroy [_First, _Last), arbitrary type

  00000	55		 push	 ebp
  00001	8b ec		 mov	 ebp, esp
  00003	56		 push	 esi

; 96   : 	for (; _First != _Last; ++_First)

  00004	8b 75 08	 mov	 esi, DWORD PTR __First$[ebp]
  00007	eb 0b		 jmp	 SHORT $LN20@Destroy_ra
$LL3@Destroy_ra:

; 97   : 		_Dest_val(_Al, _First);

  00009	8b ce		 mov	 ecx, esi
  0000b	ff 15 00 00 00
	00		 call	 DWORD PTR __imp_??1ioHashString@@QAE@XZ
  00011	83 c6 24	 add	 esi, 36			; 00000024H
$LN20@Destroy_ra:

; 96   : 	for (; _First != _Last; ++_First)

  00014	3b 75 0c	 cmp	 esi, DWORD PTR __Last$[ebp]
  00017	75 f0		 jne	 SHORT $LL3@Destroy_ra
  00019	5e		 pop	 esi

; 98   : 	}

  0001a	5d		 pop	 ebp
  0001b	c3		 ret	 0
??$_Destroy_range@V?$allocator@UtagDummyCharCreateInfo@@@std@@@std@@YAXPAUtagDummyCharCreateInfo@@0AAV?$allocator@UtagDummyCharCreateInfo@@@0@U_Nonscalar_ptr_iterator_tag@0@@Z ENDP ; std::_Destroy_range<std::allocator<tagDummyCharCreateInfo> >
_TEXT	ENDS
PUBLIC	??$_Uninit_move@PAUtagDummyCharCreateInfo@@PAU1@V?$allocator@UtagDummyCharCreateInfo@@@std@@U1@@std@@YAPAUtagDummyCharCreateInfo@@PAU1@00AAV?$allocator@UtagDummyCharCreateInfo@@@0@0U_Nonscalar_ptr_iterator_tag@0@@Z ; std::_Uninit_move<tagDummyCharCreateInfo *,tagDummyCharCreateInfo *,std::allocator<tagDummyCharCreateInfo>,tagDummyCharCreateInfo>
EXTRN	__EH_prolog3_catch:PROC
;	COMDAT xdata$x
; File d:\lost saga for developer\youtube\tutorial\source\src\lsclient\iocreatedummycharbuff.cpp
xdata$x	SEGMENT
__catchsym$??$_Uninit_move@PAUtagDummyCharCreateInfo@@PAU1@V?$allocator@UtagDummyCharCreateInfo@@@std@@U1@@std@@YAPAUtagDummyCharCreateInfo@@PAU1@00AAV?$allocator@UtagDummyCharCreateInfo@@@0@0U_Nonscalar_ptr_iterator_tag@0@@Z$3 DD 040H
	DD	00H
	DD	00H
	DD	FLAT:__catch$??$_Uninit_move@PAUtagDummyCharCreateInfo@@PAU1@V?$allocator@UtagDummyCharCreateInfo@@@std@@U1@@std@@YAPAUtagDummyCharCreateInfo@@PAU1@00AAV?$allocator@UtagDummyCharCreateInfo@@@0@0U_Nonscalar_ptr_iterator_tag@0@@Z$0
__unwindtable$??$_Uninit_move@PAUtagDummyCharCreateInfo@@PAU1@V?$allocator@UtagDummyCharCreateInfo@@@std@@U1@@std@@YAPAUtagDummyCharCreateInfo@@PAU1@00AAV?$allocator@UtagDummyCharCreateInfo@@@0@0U_Nonscalar_ptr_iterator_tag@0@@Z DD 0ffffffffH
	DD	00H
	DD	0ffffffffH
	DD	00H
__tryblocktable$??$_Uninit_move@PAUtagDummyCharCreateInfo@@PAU1@V?$allocator@UtagDummyCharCreateInfo@@@std@@U1@@std@@YAPAUtagDummyCharCreateInfo@@PAU1@00AAV?$allocator@UtagDummyCharCreateInfo@@@0@0U_Nonscalar_ptr_iterator_tag@0@@Z DD 00H
	DD	00H
	DD	01H
	DD	01H
	DD	FLAT:__catchsym$??$_Uninit_move@PAUtagDummyCharCreateInfo@@PAU1@V?$allocator@UtagDummyCharCreateInfo@@@std@@U1@@std@@YAPAUtagDummyCharCreateInfo@@PAU1@00AAV?$allocator@UtagDummyCharCreateInfo@@@0@0U_Nonscalar_ptr_iterator_tag@0@@Z$3
__ehfuncinfo$??$_Uninit_move@PAUtagDummyCharCreateInfo@@PAU1@V?$allocator@UtagDummyCharCreateInfo@@@std@@U1@@std@@YAPAUtagDummyCharCreateInfo@@PAU1@00AAV?$allocator@UtagDummyCharCreateInfo@@@0@0U_Nonscalar_ptr_iterator_tag@0@@Z DD 019930522H
	DD	02H
	DD	FLAT:__unwindtable$??$_Uninit_move@PAUtagDummyCharCreateInfo@@PAU1@V?$allocator@UtagDummyCharCreateInfo@@@std@@U1@@std@@YAPAUtagDummyCharCreateInfo@@PAU1@00AAV?$allocator@UtagDummyCharCreateInfo@@@0@0U_Nonscalar_ptr_iterator_tag@0@@Z
	DD	01H
	DD	FLAT:__tryblocktable$??$_Uninit_move@PAUtagDummyCharCreateInfo@@PAU1@V?$allocator@UtagDummyCharCreateInfo@@@std@@U1@@std@@YAPAUtagDummyCharCreateInfo@@PAU1@00AAV?$allocator@UtagDummyCharCreateInfo@@@0@0U_Nonscalar_ptr_iterator_tag@0@@Z
	DD	2 DUP(00H)
	DD	00H
	DD	01H
; Function compile flags: /Ogsp
; File c:\program files (x86)\microsoft visual studio 10.0\vc\include\memory
xdata$x	ENDS
;	COMDAT ??$_Uninit_move@PAUtagDummyCharCreateInfo@@PAU1@V?$allocator@UtagDummyCharCreateInfo@@@std@@U1@@std@@YAPAUtagDummyCharCreateInfo@@PAU1@00AAV?$allocator@UtagDummyCharCreateInfo@@@0@0U_Nonscalar_ptr_iterator_tag@0@@Z
_TEXT	SEGMENT
__Next$ = -20						; size = 4
__$EHRec$ = -16						; size = 16
__First$ = 8						; size = 4
__Last$ = 12						; size = 4
__Dest$ = 16						; size = 4
__Al$ = 20						; size = 4
___formal$ = 24						; size = 4
___formal$ = 28						; size = 1
??$_Uninit_move@PAUtagDummyCharCreateInfo@@PAU1@V?$allocator@UtagDummyCharCreateInfo@@@std@@U1@@std@@YAPAUtagDummyCharCreateInfo@@PAU1@00AAV?$allocator@UtagDummyCharCreateInfo@@@0@0U_Nonscalar_ptr_iterator_tag@0@@Z PROC ; std::_Uninit_move<tagDummyCharCreateInfo *,tagDummyCharCreateInfo *,std::allocator<tagDummyCharCreateInfo>,tagDummyCharCreateInfo>, COMDAT

; 424  : 	{	// move [_First, _Last) to raw _Dest, using _Al, arbitrary type

  00000	6a 08		 push	 8
  00002	b8 00 00 00 00	 mov	 eax, __ehhandler$??$_Uninit_move@PAUtagDummyCharCreateInfo@@PAU1@V?$allocator@UtagDummyCharCreateInfo@@@std@@U1@@std@@YAPAUtagDummyCharCreateInfo@@PAU1@00AAV?$allocator@UtagDummyCharCreateInfo@@@0@0U_Nonscalar_ptr_iterator_tag@0@@Z
  00007	e8 00 00 00 00	 call	 __EH_prolog3_catch

; 425  : 	_DEBUG_RANGE(_First, _Last);
; 426  : 	_DEBUG_POINTER(_Dest);
; 427  : 	_FwdIt _Next = _Dest;

  0000c	8b 45 10	 mov	 eax, DWORD PTR __Dest$[ebp]

; 428  : 
; 429  : 	_TRY_BEGIN

  0000f	83 65 fc 00	 and	 DWORD PTR __$EHRec$[ebp+12], 0
  00013	8b 75 08	 mov	 esi, DWORD PTR __First$[ebp]
  00016	89 45 ec	 mov	 DWORD PTR __Next$[ebp], eax
$LL6@Uninit_mov:

; 430  : 	for (; _First != _Last; ++_Dest, ++_First)

  00019	3b 75 0c	 cmp	 esi, DWORD PTR __Last$[ebp]
  0001c	74 36		 je	 SHORT $LN4@Uninit_mov

; 431  : 		_Cons_val(_Al, _Dest, (_Valty &&)*_First);

  0001e	56		 push	 esi
  0001f	ff 75 10	 push	 DWORD PTR __Dest$[ebp]
  00022	ff 75 14	 push	 DWORD PTR __Al$[ebp]
  00025	e8 00 00 00 00	 call	 ??$_Cons_val@V?$allocator@UtagDummyCharCreateInfo@@@std@@UtagDummyCharCreateInfo@@U3@@std@@YAXAAV?$allocator@UtagDummyCharCreateInfo@@@0@PAUtagDummyCharCreateInfo@@$$QAU2@@Z ; std::_Cons_val<std::allocator<tagDummyCharCreateInfo>,tagDummyCharCreateInfo,tagDummyCharCreateInfo>
  0002a	83 45 10 24	 add	 DWORD PTR __Dest$[ebp], 36 ; 00000024H
  0002e	83 c4 0c	 add	 esp, 12			; 0000000cH
  00031	83 c6 24	 add	 esi, 36			; 00000024H
  00034	eb e3		 jmp	 SHORT $LL6@Uninit_mov
__catch$??$_Uninit_move@PAUtagDummyCharCreateInfo@@PAU1@V?$allocator@UtagDummyCharCreateInfo@@@std@@U1@@std@@YAPAUtagDummyCharCreateInfo@@PAU1@00AAV?$allocator@UtagDummyCharCreateInfo@@@0@0U_Nonscalar_ptr_iterator_tag@0@@Z$0:

; 432  : 	_CATCH_ALL
; 433  : 	for (; _Next != _Dest; ++_Next)

  00036	8b 75 ec	 mov	 esi, DWORD PTR __Next$[ebp]
  00039	eb 0b		 jmp	 SHORT $LN32@Uninit_mov
$LL3@Uninit_mov:

; 434  : 		_Dest_val(_Al, _Next);

  0003b	8b ce		 mov	 ecx, esi
  0003d	ff 15 00 00 00
	00		 call	 DWORD PTR __imp_??1ioHashString@@QAE@XZ
  00043	83 c6 24	 add	 esi, 36			; 00000024H
$LN32@Uninit_mov:

; 432  : 	_CATCH_ALL
; 433  : 	for (; _Next != _Dest; ++_Next)

  00046	3b 75 10	 cmp	 esi, DWORD PTR __Dest$[ebp]
  00049	75 f0		 jne	 SHORT $LL3@Uninit_mov

; 435  : 	_RERAISE;

  0004b	6a 00		 push	 0
  0004d	6a 00		 push	 0
  0004f	e8 00 00 00 00	 call	 __CxxThrowException@8
$LN33@Uninit_mov:
$LN4@Uninit_mov:

; 436  : 	_CATCH_END
; 437  : 	return (_Dest);

  00054	8b 45 10	 mov	 eax, DWORD PTR __Dest$[ebp]

; 438  : 	}

  00057	e8 00 00 00 00	 call	 __EH_epilog3
  0005c	c3		 ret	 0
$LN31@Uninit_mov:
_TEXT	ENDS
;	COMDAT text$x
text$x	SEGMENT
__ehhandler$??$_Uninit_move@PAUtagDummyCharCreateInfo@@PAU1@V?$allocator@UtagDummyCharCreateInfo@@@std@@U1@@std@@YAPAUtagDummyCharCreateInfo@@PAU1@00AAV?$allocator@UtagDummyCharCreateInfo@@@0@0U_Nonscalar_ptr_iterator_tag@0@@Z:
  00000	8b 54 24 08	 mov	 edx, DWORD PTR [esp+8]
  00004	8d 42 0c	 lea	 eax, DWORD PTR [edx+12]
  00007	8b 4a e8	 mov	 ecx, DWORD PTR [edx-24]
  0000a	33 c8		 xor	 ecx, eax
  0000c	e8 00 00 00 00	 call	 @__security_check_cookie@4
  00011	b8 00 00 00 00	 mov	 eax, OFFSET __ehfuncinfo$??$_Uninit_move@PAUtagDummyCharCreateInfo@@PAU1@V?$allocator@UtagDummyCharCreateInfo@@@std@@U1@@std@@YAPAUtagDummyCharCreateInfo@@PAU1@00AAV?$allocator@UtagDummyCharCreateInfo@@@0@0U_Nonscalar_ptr_iterator_tag@0@@Z
  00016	e9 00 00 00 00	 jmp	 ___CxxFrameHandler3
text$x	ENDS
??$_Uninit_move@PAUtagDummyCharCreateInfo@@PAU1@V?$allocator@UtagDummyCharCreateInfo@@@std@@U1@@std@@YAPAUtagDummyCharCreateInfo@@PAU1@00AAV?$allocator@UtagDummyCharCreateInfo@@@0@0U_Nonscalar_ptr_iterator_tag@0@@Z ENDP ; std::_Uninit_move<tagDummyCharCreateInfo *,tagDummyCharCreateInfo *,std::allocator<tagDummyCharCreateInfo>,tagDummyCharCreateInfo>
PUBLIC	??$_Destroy_range@V?$allocator@VioHashString@@@std@@@std@@YAXPAVioHashString@@0AAV?$allocator@VioHashString@@@0@U_Nonscalar_ptr_iterator_tag@0@@Z ; std::_Destroy_range<std::allocator<ioHashString> >
; Function compile flags: /Ogsp
; File c:\program files (x86)\microsoft visual studio 10.0\vc\include\xmemory
;	COMDAT ??$_Destroy_range@V?$allocator@VioHashString@@@std@@@std@@YAXPAVioHashString@@0AAV?$allocator@VioHashString@@@0@U_Nonscalar_ptr_iterator_tag@0@@Z
_TEXT	SEGMENT
__First$ = 8						; size = 4
__Last$ = 12						; size = 4
__Al$ = 16						; size = 4
___formal$ = 20						; size = 1
??$_Destroy_range@V?$allocator@VioHashString@@@std@@@std@@YAXPAVioHashString@@0AAV?$allocator@VioHashString@@@0@U_Nonscalar_ptr_iterator_tag@0@@Z PROC ; std::_Destroy_range<std::allocator<ioHashString> >, COMDAT

; 95   : 	{	// destroy [_First, _Last), arbitrary type

  00000	55		 push	 ebp
  00001	8b ec		 mov	 ebp, esp
  00003	56		 push	 esi

; 96   : 	for (; _First != _Last; ++_First)

  00004	8b 75 08	 mov	 esi, DWORD PTR __First$[ebp]
  00007	eb 0b		 jmp	 SHORT $LN17@Destroy_ra@2
$LL3@Destroy_ra@2:

; 97   : 		_Dest_val(_Al, _First);

  00009	8b ce		 mov	 ecx, esi
  0000b	ff 15 00 00 00
	00		 call	 DWORD PTR __imp_??1ioHashString@@QAE@XZ
  00011	83 c6 10	 add	 esi, 16			; 00000010H
$LN17@Destroy_ra@2:

; 96   : 	for (; _First != _Last; ++_First)

  00014	3b 75 0c	 cmp	 esi, DWORD PTR __Last$[ebp]
  00017	75 f0		 jne	 SHORT $LL3@Destroy_ra@2
  00019	5e		 pop	 esi

; 98   : 	}

  0001a	5d		 pop	 ebp
  0001b	c3		 ret	 0
??$_Destroy_range@V?$allocator@VioHashString@@@std@@@std@@YAXPAVioHashString@@0AAV?$allocator@VioHashString@@@0@U_Nonscalar_ptr_iterator_tag@0@@Z ENDP ; std::_Destroy_range<std::allocator<ioHashString> >
_TEXT	ENDS
PUBLIC	??$_Uninit_copy@V?$_Vector_const_iterator@V?$_Vector_val@VioHashString@@V?$allocator@VioHashString@@@std@@@std@@@std@@PAVioHashString@@V?$allocator@VioHashString@@@2@@std@@YAPAVioHashString@@V?$_Vector_const_iterator@V?$_Vector_val@VioHashString@@V?$allocator@VioHashString@@@std@@@std@@@0@0PAV1@AAV?$allocator@VioHashString@@@0@U_Nonscalar_ptr_iterator_tag@0@@Z ; std::_Uninit_copy<std::_Vector_const_iterator<std::_Vector_val<ioHashString,std::allocator<ioHashString> > >,ioHashString *,std::allocator<ioHashString> >
;	COMDAT xdata$x
; File c:\program files (x86)\microsoft visual studio 10.0\vc\include\vector
xdata$x	SEGMENT
__catchsym$??$_Uninit_copy@V?$_Vector_const_iterator@V?$_Vector_val@VioHashString@@V?$allocator@VioHashString@@@std@@@std@@@std@@PAVioHashString@@V?$allocator@VioHashString@@@2@@std@@YAPAVioHashString@@V?$_Vector_const_iterator@V?$_Vector_val@VioHashString@@V?$allocator@VioHashString@@@std@@@std@@@0@0PAV1@AAV?$allocator@VioHashString@@@0@U_Nonscalar_ptr_iterator_tag@0@@Z$2 DD 040H
	DD	00H
	DD	00H
	DD	FLAT:__catch$??$_Uninit_copy@V?$_Vector_const_iterator@V?$_Vector_val@VioHashString@@V?$allocator@VioHashString@@@std@@@std@@@std@@PAVioHashString@@V?$allocator@VioHashString@@@2@@std@@YAPAVioHashString@@V?$_Vector_const_iterator@V?$_Vector_val@VioHashString@@V?$allocator@VioHashString@@@std@@@std@@@0@0PAV1@AAV?$allocator@VioHashString@@@0@U_Nonscalar_ptr_iterator_tag@0@@Z$0
__unwindtable$??$_Uninit_copy@V?$_Vector_const_iterator@V?$_Vector_val@VioHashString@@V?$allocator@VioHashString@@@std@@@std@@@std@@PAVioHashString@@V?$allocator@VioHashString@@@2@@std@@YAPAVioHashString@@V?$_Vector_const_iterator@V?$_Vector_val@VioHashString@@V?$allocator@VioHashString@@@std@@@std@@@0@0PAV1@AAV?$allocator@VioHashString@@@0@U_Nonscalar_ptr_iterator_tag@0@@Z DD 0ffffffffH
	DD	00H
	DD	0ffffffffH
	DD	00H
__tryblocktable$??$_Uninit_copy@V?$_Vector_const_iterator@V?$_Vector_val@VioHashString@@V?$allocator@VioHashString@@@std@@@std@@@std@@PAVioHashString@@V?$allocator@VioHashString@@@2@@std@@YAPAVioHashString@@V?$_Vector_const_iterator@V?$_Vector_val@VioHashString@@V?$allocator@VioHashString@@@std@@@std@@@0@0PAV1@AAV?$allocator@VioHashString@@@0@U_Nonscalar_ptr_iterator_tag@0@@Z DD 00H
	DD	00H
	DD	01H
	DD	01H
	DD	FLAT:__catchsym$??$_Uninit_copy@V?$_Vector_const_iterator@V?$_Vector_val@VioHashString@@V?$allocator@VioHashString@@@std@@@std@@@std@@PAVioHashString@@V?$allocator@VioHashString@@@2@@std@@YAPAVioHashString@@V?$_Vector_const_iterator@V?$_Vector_val@VioHashString@@V?$allocator@VioHashString@@@std@@@std@@@0@0PAV1@AAV?$allocator@VioHashString@@@0@U_Nonscalar_ptr_iterator_tag@0@@Z$2
__ehfuncinfo$??$_Uninit_copy@V?$_Vector_const_iterator@V?$_Vector_val@VioHashString@@V?$allocator@VioHashString@@@std@@@std@@@std@@PAVioHashString@@V?$allocator@VioHashString@@@2@@std@@YAPAVioHashString@@V?$_Vector_const_iterator@V?$_Vector_val@VioHashString@@V?$allocator@VioHashString@@@std@@@std@@@0@0PAV1@AAV?$allocator@VioHashString@@@0@U_Nonscalar_ptr_iterator_tag@0@@Z DD 019930522H
	DD	02H
	DD	FLAT:__unwindtable$??$_Uninit_copy@V?$_Vector_const_iterator@V?$_Vector_val@VioHashString@@V?$allocator@VioHashString@@@std@@@std@@@std@@PAVioHashString@@V?$allocator@VioHashString@@@2@@std@@YAPAVioHashString@@V?$_Vector_const_iterator@V?$_Vector_val@VioHashString@@V?$allocator@VioHashString@@@std@@@std@@@0@0PAV1@AAV?$allocator@VioHashString@@@0@U_Nonscalar_ptr_iterator_tag@0@@Z
	DD	01H
	DD	FLAT:__tryblocktable$??$_Uninit_copy@V?$_Vector_const_iterator@V?$_Vector_val@VioHashString@@V?$allocator@VioHashString@@@std@@@std@@@std@@PAVioHashString@@V?$allocator@VioHashString@@@2@@std@@YAPAVioHashString@@V?$_Vector_const_iterator@V?$_Vector_val@VioHashString@@V?$allocator@VioHashString@@@std@@@std@@@0@0PAV1@AAV?$allocator@VioHashString@@@0@U_Nonscalar_ptr_iterator_tag@0@@Z
	DD	2 DUP(00H)
	DD	00H
	DD	01H
; Function compile flags: /Ogsp
; File c:\program files (x86)\microsoft visual studio 10.0\vc\include\memory
xdata$x	ENDS
;	COMDAT ??$_Uninit_copy@V?$_Vector_const_iterator@V?$_Vector_val@VioHashString@@V?$allocator@VioHashString@@@std@@@std@@@std@@PAVioHashString@@V?$allocator@VioHashString@@@2@@std@@YAPAVioHashString@@V?$_Vector_const_iterator@V?$_Vector_val@VioHashString@@V?$allocator@VioHashString@@@std@@@std@@@0@0PAV1@AAV?$allocator@VioHashString@@@0@U_Nonscalar_ptr_iterator_tag@0@@Z
_TEXT	SEGMENT
__Next$ = -20						; size = 4
__$EHRec$ = -16						; size = 16
__First$ = 8						; size = 4
__Last$ = 12						; size = 4
__Dest$ = 16						; size = 4
__Al$ = 20						; size = 4
___formal$ = 24						; size = 1
??$_Uninit_copy@V?$_Vector_const_iterator@V?$_Vector_val@VioHashString@@V?$allocator@VioHashString@@@std@@@std@@@std@@PAVioHashString@@V?$allocator@VioHashString@@@2@@std@@YAPAVioHashString@@V?$_Vector_const_iterator@V?$_Vector_val@VioHashString@@V?$allocator@VioHashString@@@std@@@std@@@0@0PAV1@AAV?$allocator@VioHashString@@@0@U_Nonscalar_ptr_iterator_tag@0@@Z PROC ; std::_Uninit_copy<std::_Vector_const_iterator<std::_Vector_val<ioHashString,std::allocator<ioHashString> > >,ioHashString *,std::allocator<ioHashString> >, COMDAT

; 369  : 	{	// copy [_First, _Last) to raw _Dest, using _Al, arbitrary type

  00000	6a 08		 push	 8
  00002	b8 00 00 00 00	 mov	 eax, __ehhandler$??$_Uninit_copy@V?$_Vector_const_iterator@V?$_Vector_val@VioHashString@@V?$allocator@VioHashString@@@std@@@std@@@std@@PAVioHashString@@V?$allocator@VioHashString@@@2@@std@@YAPAVioHashString@@V?$_Vector_const_iterator@V?$_Vector_val@VioHashString@@V?$allocator@VioHashString@@@std@@@std@@@0@0PAV1@AAV?$allocator@VioHashString@@@0@U_Nonscalar_ptr_iterator_tag@0@@Z
  00007	e8 00 00 00 00	 call	 __EH_prolog3_catch

; 370  : 	_DEBUG_RANGE(_First, _Last);
; 371  : 	_DEBUG_POINTER(_Dest);
; 372  : 	_FwdIt _Next = _Dest;

  0000c	8b 45 10	 mov	 eax, DWORD PTR __Dest$[ebp]

; 373  : 
; 374  : 	_TRY_BEGIN

  0000f	83 65 fc 00	 and	 DWORD PTR __$EHRec$[ebp+12], 0
  00013	89 45 ec	 mov	 DWORD PTR __Next$[ebp], eax

; 375  : 	for (; _First != _Last; ++_Dest, ++_First)

$LL14@Uninit_cop:
  00016	8b 45 08	 mov	 eax, DWORD PTR __First$[ebp]
  00019	3b 45 0c	 cmp	 eax, DWORD PTR __Last$[ebp]
  0001c	74 33		 je	 SHORT $LN4@Uninit_cop

; 376  : 		_Cons_val(_Al, _Dest, *_First);

  0001e	50		 push	 eax
  0001f	ff 75 10	 push	 DWORD PTR __Dest$[ebp]
  00022	e8 00 00 00 00	 call	 ??$_Construct@VioHashString@@ABV1@@std@@YAXPAVioHashString@@ABV1@@Z ; std::_Construct<ioHashString,ioHashString const &>
  00027	83 45 10 10	 add	 DWORD PTR __Dest$[ebp], 16 ; 00000010H
  0002b	83 45 08 10	 add	 DWORD PTR __First$[ebp], 16 ; 00000010H
  0002f	59		 pop	 ecx
  00030	59		 pop	 ecx
  00031	eb e3		 jmp	 SHORT $LL14@Uninit_cop
__catch$??$_Uninit_copy@V?$_Vector_const_iterator@V?$_Vector_val@VioHashString@@V?$allocator@VioHashString@@@std@@@std@@@std@@PAVioHashString@@V?$allocator@VioHashString@@@2@@std@@YAPAVioHashString@@V?$_Vector_const_iterator@V?$_Vector_val@VioHashString@@V?$allocator@VioHashString@@@std@@@std@@@0@0PAV1@AAV?$allocator@VioHashString@@@0@U_Nonscalar_ptr_iterator_tag@0@@Z$0:

; 377  : 	_CATCH_ALL
; 378  : 	for (; _Next != _Dest; ++_Next)

  00033	8b 75 ec	 mov	 esi, DWORD PTR __Next$[ebp]
  00036	eb 0b		 jmp	 SHORT $LN45@Uninit_cop
$LL3@Uninit_cop:

; 379  : 		_Dest_val(_Al, _Next);

  00038	8b ce		 mov	 ecx, esi
  0003a	ff 15 00 00 00
	00		 call	 DWORD PTR __imp_??1ioHashString@@QAE@XZ
  00040	83 c6 10	 add	 esi, 16			; 00000010H
$LN45@Uninit_cop:

; 377  : 	_CATCH_ALL
; 378  : 	for (; _Next != _Dest; ++_Next)

  00043	3b 75 10	 cmp	 esi, DWORD PTR __Dest$[ebp]
  00046	75 f0		 jne	 SHORT $LL3@Uninit_cop

; 380  : 	_RERAISE;

  00048	6a 00		 push	 0
  0004a	6a 00		 push	 0
  0004c	e8 00 00 00 00	 call	 __CxxThrowException@8
$LN46@Uninit_cop:
$LN4@Uninit_cop:

; 381  : 	_CATCH_END
; 382  : 	return (_Dest);

  00051	8b 45 10	 mov	 eax, DWORD PTR __Dest$[ebp]

; 383  : 	}

  00054	e8 00 00 00 00	 call	 __EH_epilog3
  00059	c3		 ret	 0
$LN44@Uninit_cop:
_TEXT	ENDS
;	COMDAT text$x
text$x	SEGMENT
__ehhandler$??$_Uninit_copy@V?$_Vector_const_iterator@V?$_Vector_val@VioHashString@@V?$allocator@VioHashString@@@std@@@std@@@std@@PAVioHashString@@V?$allocator@VioHashString@@@2@@std@@YAPAVioHashString@@V?$_Vector_const_iterator@V?$_Vector_val@VioHashString@@V?$allocator@VioHashString@@@std@@@std@@@0@0PAV1@AAV?$allocator@VioHashString@@@0@U_Nonscalar_ptr_iterator_tag@0@@Z:
  00000	8b 54 24 08	 mov	 edx, DWORD PTR [esp+8]
  00004	8d 42 0c	 lea	 eax, DWORD PTR [edx+12]
  00007	8b 4a e8	 mov	 ecx, DWORD PTR [edx-24]
  0000a	33 c8		 xor	 ecx, eax
  0000c	e8 00 00 00 00	 call	 @__security_check_cookie@4
  00011	b8 00 00 00 00	 mov	 eax, OFFSET __ehfuncinfo$??$_Uninit_copy@V?$_Vector_const_iterator@V?$_Vector_val@VioHashString@@V?$allocator@VioHashString@@@std@@@std@@@std@@PAVioHashString@@V?$allocator@VioHashString@@@2@@std@@YAPAVioHashString@@V?$_Vector_const_iterator@V?$_Vector_val@VioHashString@@V?$allocator@VioHashString@@@std@@@std@@@0@0PAV1@AAV?$allocator@VioHashString@@@0@U_Nonscalar_ptr_iterator_tag@0@@Z
  00016	e9 00 00 00 00	 jmp	 ___CxxFrameHandler3
text$x	ENDS
??$_Uninit_copy@V?$_Vector_const_iterator@V?$_Vector_val@VioHashString@@V?$allocator@VioHashString@@@std@@@std@@@std@@PAVioHashString@@V?$allocator@VioHashString@@@2@@std@@YAPAVioHashString@@V?$_Vector_const_iterator@V?$_Vector_val@VioHashString@@V?$allocator@VioHashString@@@std@@@std@@@0@0PAV1@AAV?$allocator@VioHashString@@@0@U_Nonscalar_ptr_iterator_tag@0@@Z ENDP ; std::_Uninit_copy<std::_Vector_const_iterator<std::_Vector_val<ioHashString,std::allocator<ioHashString> > >,ioHashString *,std::allocator<ioHashString> >
PUBLIC	??$_Dest_val@V?$allocator@UtagDummyCharLoadInfo@@@std@@UtagDummyCharLoadInfo@@@std@@YAXAAV?$allocator@UtagDummyCharLoadInfo@@@0@PAUtagDummyCharLoadInfo@@@Z ; std::_Dest_val<std::allocator<tagDummyCharLoadInfo>,tagDummyCharLoadInfo>
; Function compile flags: /Ogsp
; File c:\program files (x86)\microsoft visual studio 10.0\vc\include\xmemory
;	COMDAT ??$_Dest_val@V?$allocator@UtagDummyCharLoadInfo@@@std@@UtagDummyCharLoadInfo@@@std@@YAXAAV?$allocator@UtagDummyCharLoadInfo@@@0@PAUtagDummyCharLoadInfo@@@Z
_TEXT	SEGMENT
__Alval$ = 8						; size = 4
__Pdest$ = 12						; size = 4
??$_Dest_val@V?$allocator@UtagDummyCharLoadInfo@@@std@@UtagDummyCharLoadInfo@@@std@@YAXAAV?$allocator@UtagDummyCharLoadInfo@@@0@PAUtagDummyCharLoadInfo@@@Z PROC ; std::_Dest_val<std::allocator<tagDummyCharLoadInfo>,tagDummyCharLoadInfo>, COMDAT

; 286  : 	{	// destroy using allocator

  00000	55		 push	 ebp
  00001	8b ec		 mov	 ebp, esp

; 287  : 	_Alval.destroy(_Pdest);

  00003	8b 4d 0c	 mov	 ecx, DWORD PTR __Pdest$[ebp]

; 288  : 	}

  00006	5d		 pop	 ebp

; 287  : 	_Alval.destroy(_Pdest);

  00007	ff 25 00 00 00
	00		 jmp	 DWORD PTR __imp_??1ioHashString@@QAE@XZ
??$_Dest_val@V?$allocator@UtagDummyCharLoadInfo@@@std@@UtagDummyCharLoadInfo@@@std@@YAXAAV?$allocator@UtagDummyCharLoadInfo@@@0@PAUtagDummyCharLoadInfo@@@Z ENDP ; std::_Dest_val<std::allocator<tagDummyCharLoadInfo>,tagDummyCharLoadInfo>
_TEXT	ENDS
PUBLIC	??$_Destroy_range@V?$allocator@UtagDummyCharCreateInfo@@@std@@@std@@YAXPAUtagDummyCharCreateInfo@@0AAV?$allocator@UtagDummyCharCreateInfo@@@0@@Z ; std::_Destroy_range<std::allocator<tagDummyCharCreateInfo> >
; Function compile flags: /Ogsp
;	COMDAT ??$_Destroy_range@V?$allocator@UtagDummyCharCreateInfo@@@std@@@std@@YAXPAUtagDummyCharCreateInfo@@0AAV?$allocator@UtagDummyCharCreateInfo@@@0@@Z
_TEXT	SEGMENT
__First$ = 8						; size = 4
__Last$ = 12						; size = 4
__Al$ = 16						; size = 4
??$_Destroy_range@V?$allocator@UtagDummyCharCreateInfo@@@std@@@std@@YAXPAUtagDummyCharCreateInfo@@0AAV?$allocator@UtagDummyCharCreateInfo@@@0@@Z PROC ; std::_Destroy_range<std::allocator<tagDummyCharCreateInfo> >, COMDAT

; 87   : 	{	// destroy [_First, _Last)

  00000	55		 push	 ebp
  00001	8b ec		 mov	 ebp, esp
  00003	56		 push	 esi

; 88   : 	_Destroy_range(_First, _Last, _Al, _Ptr_cat(_First, _Last));

  00004	8b 75 08	 mov	 esi, DWORD PTR __First$[ebp]
  00007	eb 0b		 jmp	 SHORT $LN24@Destroy_ra@3
$LL7@Destroy_ra@3:
  00009	8b ce		 mov	 ecx, esi
  0000b	ff 15 00 00 00
	00		 call	 DWORD PTR __imp_??1ioHashString@@QAE@XZ
  00011	83 c6 24	 add	 esi, 36			; 00000024H
$LN24@Destroy_ra@3:
  00014	3b 75 0c	 cmp	 esi, DWORD PTR __Last$[ebp]
  00017	75 f0		 jne	 SHORT $LL7@Destroy_ra@3
  00019	5e		 pop	 esi

; 89   : 	}

  0001a	5d		 pop	 ebp
  0001b	c3		 ret	 0
??$_Destroy_range@V?$allocator@UtagDummyCharCreateInfo@@@std@@@std@@YAXPAUtagDummyCharCreateInfo@@0AAV?$allocator@UtagDummyCharCreateInfo@@@0@@Z ENDP ; std::_Destroy_range<std::allocator<tagDummyCharCreateInfo> >
_TEXT	ENDS
PUBLIC	??$_Uninitialized_move@PAUtagDummyCharCreateInfo@@PAU1@V?$allocator@UtagDummyCharCreateInfo@@@std@@@std@@YAPAUtagDummyCharCreateInfo@@PAU1@00AAV?$allocator@UtagDummyCharCreateInfo@@@0@@Z ; std::_Uninitialized_move<tagDummyCharCreateInfo *,tagDummyCharCreateInfo *,std::allocator<tagDummyCharCreateInfo> >
; Function compile flags: /Ogsp
; File c:\program files (x86)\microsoft visual studio 10.0\vc\include\memory
;	COMDAT ??$_Uninitialized_move@PAUtagDummyCharCreateInfo@@PAU1@V?$allocator@UtagDummyCharCreateInfo@@@std@@@std@@YAPAUtagDummyCharCreateInfo@@PAU1@00AAV?$allocator@UtagDummyCharCreateInfo@@@0@@Z
_TEXT	SEGMENT
__Cat$546987 = -4					; size = 1
__First$ = 8						; size = 4
__Last$ = 12						; size = 4
__Dest$ = 16						; size = 4
__Al$ = 20						; size = 4
??$_Uninitialized_move@PAUtagDummyCharCreateInfo@@PAU1@V?$allocator@UtagDummyCharCreateInfo@@@std@@@std@@YAPAUtagDummyCharCreateInfo@@PAU1@00AAV?$allocator@UtagDummyCharCreateInfo@@@0@@Z PROC ; std::_Uninitialized_move<tagDummyCharCreateInfo *,tagDummyCharCreateInfo *,std::allocator<tagDummyCharCreateInfo> >, COMDAT

; 469  : 	{	// move [_First, _Last) to raw _Dest, using _Al

  00000	55		 push	 ebp
  00001	8b ec		 mov	 ebp, esp
  00003	51		 push	 ecx

; 470  : 	return (_Uninit_move(_First, _Last, _Dest, _Al,
; 471  : 		_Val_type(_First), _Ptr_cat(_First, _Dest)));

  00004	ff 75 fc	 push	 DWORD PTR __Cat$546987[ebp]
  00007	6a 00		 push	 0
  00009	ff 75 14	 push	 DWORD PTR __Al$[ebp]
  0000c	ff 75 10	 push	 DWORD PTR __Dest$[ebp]
  0000f	ff 75 0c	 push	 DWORD PTR __Last$[ebp]
  00012	ff 75 08	 push	 DWORD PTR __First$[ebp]
  00015	e8 00 00 00 00	 call	 ??$_Uninit_move@PAUtagDummyCharCreateInfo@@PAU1@V?$allocator@UtagDummyCharCreateInfo@@@std@@U1@@std@@YAPAUtagDummyCharCreateInfo@@PAU1@00AAV?$allocator@UtagDummyCharCreateInfo@@@0@0U_Nonscalar_ptr_iterator_tag@0@@Z ; std::_Uninit_move<tagDummyCharCreateInfo *,tagDummyCharCreateInfo *,std::allocator<tagDummyCharCreateInfo>,tagDummyCharCreateInfo>
  0001a	83 c4 18	 add	 esp, 24			; 00000018H

; 472  : 	}

  0001d	c9		 leave
  0001e	c3		 ret	 0
??$_Uninitialized_move@PAUtagDummyCharCreateInfo@@PAU1@V?$allocator@UtagDummyCharCreateInfo@@@std@@@std@@YAPAUtagDummyCharCreateInfo@@PAU1@00AAV?$allocator@UtagDummyCharCreateInfo@@@0@@Z ENDP ; std::_Uninitialized_move<tagDummyCharCreateInfo *,tagDummyCharCreateInfo *,std::allocator<tagDummyCharCreateInfo> >
_TEXT	ENDS
PUBLIC	??$_Uninit_copy@V?$_Vector_const_iterator@V?$_Vector_val@UtagDummyCharLoadInfo@@V?$allocator@UtagDummyCharLoadInfo@@@std@@@std@@@std@@PAUtagDummyCharLoadInfo@@V?$allocator@UtagDummyCharLoadInfo@@@2@@std@@YAPAUtagDummyCharLoadInfo@@V?$_Vector_const_iterator@V?$_Vector_val@UtagDummyCharLoadInfo@@V?$allocator@UtagDummyCharLoadInfo@@@std@@@std@@@0@0PAU1@AAV?$allocator@UtagDummyCharLoadInfo@@@0@U_Nonscalar_ptr_iterator_tag@0@@Z ; std::_Uninit_copy<std::_Vector_const_iterator<std::_Vector_val<tagDummyCharLoadInfo,std::allocator<tagDummyCharLoadInfo> > >,tagDummyCharLoadInfo *,std::allocator<tagDummyCharLoadInfo> >
;	COMDAT xdata$x
; File c:\program files (x86)\microsoft visual studio 10.0\vc\include\vector
xdata$x	SEGMENT
__catchsym$??$_Uninit_copy@V?$_Vector_const_iterator@V?$_Vector_val@UtagDummyCharLoadInfo@@V?$allocator@UtagDummyCharLoadInfo@@@std@@@std@@@std@@PAUtagDummyCharLoadInfo@@V?$allocator@UtagDummyCharLoadInfo@@@2@@std@@YAPAUtagDummyCharLoadInfo@@V?$_Vector_const_iterator@V?$_Vector_val@UtagDummyCharLoadInfo@@V?$allocator@UtagDummyCharLoadInfo@@@std@@@std@@@0@0PAU1@AAV?$allocator@UtagDummyCharLoadInfo@@@0@U_Nonscalar_ptr_iterator_tag@0@@Z$3 DD 040H
	DD	00H
	DD	00H
	DD	FLAT:__catch$??$_Uninit_copy@V?$_Vector_const_iterator@V?$_Vector_val@UtagDummyCharLoadInfo@@V?$allocator@UtagDummyCharLoadInfo@@@std@@@std@@@std@@PAUtagDummyCharLoadInfo@@V?$allocator@UtagDummyCharLoadInfo@@@2@@std@@YAPAUtagDummyCharLoadInfo@@V?$_Vector_const_iterator@V?$_Vector_val@UtagDummyCharLoadInfo@@V?$allocator@UtagDummyCharLoadInfo@@@std@@@std@@@0@0PAU1@AAV?$allocator@UtagDummyCharLoadInfo@@@0@U_Nonscalar_ptr_iterator_tag@0@@Z$0
__unwindtable$??$_Uninit_copy@V?$_Vector_const_iterator@V?$_Vector_val@UtagDummyCharLoadInfo@@V?$allocator@UtagDummyCharLoadInfo@@@std@@@std@@@std@@PAUtagDummyCharLoadInfo@@V?$allocator@UtagDummyCharLoadInfo@@@2@@std@@YAPAUtagDummyCharLoadInfo@@V?$_Vector_const_iterator@V?$_Vector_val@UtagDummyCharLoadInfo@@V?$allocator@UtagDummyCharLoadInfo@@@std@@@std@@@0@0PAU1@AAV?$allocator@UtagDummyCharLoadInfo@@@0@U_Nonscalar_ptr_iterator_tag@0@@Z DD 0ffffffffH
	DD	00H
	DD	0ffffffffH
	DD	00H
__tryblocktable$??$_Uninit_copy@V?$_Vector_const_iterator@V?$_Vector_val@UtagDummyCharLoadInfo@@V?$allocator@UtagDummyCharLoadInfo@@@std@@@std@@@std@@PAUtagDummyCharLoadInfo@@V?$allocator@UtagDummyCharLoadInfo@@@2@@std@@YAPAUtagDummyCharLoadInfo@@V?$_Vector_const_iterator@V?$_Vector_val@UtagDummyCharLoadInfo@@V?$allocator@UtagDummyCharLoadInfo@@@std@@@std@@@0@0PAU1@AAV?$allocator@UtagDummyCharLoadInfo@@@0@U_Nonscalar_ptr_iterator_tag@0@@Z DD 00H
	DD	00H
	DD	01H
	DD	01H
	DD	FLAT:__catchsym$??$_Uninit_copy@V?$_Vector_const_iterator@V?$_Vector_val@UtagDummyCharLoadInfo@@V?$allocator@UtagDummyCharLoadInfo@@@std@@@std@@@std@@PAUtagDummyCharLoadInfo@@V?$allocator@UtagDummyCharLoadInfo@@@2@@std@@YAPAUtagDummyCharLoadInfo@@V?$_Vector_const_iterator@V?$_Vector_val@UtagDummyCharLoadInfo@@V?$allocator@UtagDummyCharLoadInfo@@@std@@@std@@@0@0PAU1@AAV?$allocator@UtagDummyCharLoadInfo@@@0@U_Nonscalar_ptr_iterator_tag@0@@Z$3
__ehfuncinfo$??$_Uninit_copy@V?$_Vector_const_iterator@V?$_Vector_val@UtagDummyCharLoadInfo@@V?$allocator@UtagDummyCharLoadInfo@@@std@@@std@@@std@@PAUtagDummyCharLoadInfo@@V?$allocator@UtagDummyCharLoadInfo@@@2@@std@@YAPAUtagDummyCharLoadInfo@@V?$_Vector_const_iterator@V?$_Vector_val@UtagDummyCharLoadInfo@@V?$allocator@UtagDummyCharLoadInfo@@@std@@@std@@@0@0PAU1@AAV?$allocator@UtagDummyCharLoadInfo@@@0@U_Nonscalar_ptr_iterator_tag@0@@Z DD 019930522H
	DD	02H
	DD	FLAT:__unwindtable$??$_Uninit_copy@V?$_Vector_const_iterator@V?$_Vector_val@UtagDummyCharLoadInfo@@V?$allocator@UtagDummyCharLoadInfo@@@std@@@std@@@std@@PAUtagDummyCharLoadInfo@@V?$allocator@UtagDummyCharLoadInfo@@@2@@std@@YAPAUtagDummyCharLoadInfo@@V?$_Vector_const_iterator@V?$_Vector_val@UtagDummyCharLoadInfo@@V?$allocator@UtagDummyCharLoadInfo@@@std@@@std@@@0@0PAU1@AAV?$allocator@UtagDummyCharLoadInfo@@@0@U_Nonscalar_ptr_iterator_tag@0@@Z
	DD	01H
	DD	FLAT:__tryblocktable$??$_Uninit_copy@V?$_Vector_const_iterator@V?$_Vector_val@UtagDummyCharLoadInfo@@V?$allocator@UtagDummyCharLoadInfo@@@std@@@std@@@std@@PAUtagDummyCharLoadInfo@@V?$allocator@UtagDummyCharLoadInfo@@@2@@std@@YAPAUtagDummyCharLoadInfo@@V?$_Vector_const_iterator@V?$_Vector_val@UtagDummyCharLoadInfo@@V?$allocator@UtagDummyCharLoadInfo@@@std@@@std@@@0@0PAU1@AAV?$allocator@UtagDummyCharLoadInfo@@@0@U_Nonscalar_ptr_iterator_tag@0@@Z
	DD	2 DUP(00H)
	DD	00H
	DD	01H
; Function compile flags: /Ogsp
; File c:\program files (x86)\microsoft visual studio 10.0\vc\include\memory
xdata$x	ENDS
;	COMDAT ??$_Uninit_copy@V?$_Vector_const_iterator@V?$_Vector_val@UtagDummyCharLoadInfo@@V?$allocator@UtagDummyCharLoadInfo@@@std@@@std@@@std@@PAUtagDummyCharLoadInfo@@V?$allocator@UtagDummyCharLoadInfo@@@2@@std@@YAPAUtagDummyCharLoadInfo@@V?$_Vector_const_iterator@V?$_Vector_val@UtagDummyCharLoadInfo@@V?$allocator@UtagDummyCharLoadInfo@@@std@@@std@@@0@0PAU1@AAV?$allocator@UtagDummyCharLoadInfo@@@0@U_Nonscalar_ptr_iterator_tag@0@@Z
_TEXT	SEGMENT
__Next$ = -20						; size = 4
__$EHRec$ = -16						; size = 16
__First$ = 8						; size = 4
__Last$ = 12						; size = 4
__Dest$ = 16						; size = 4
__Al$ = 20						; size = 4
___formal$ = 24						; size = 1
??$_Uninit_copy@V?$_Vector_const_iterator@V?$_Vector_val@UtagDummyCharLoadInfo@@V?$allocator@UtagDummyCharLoadInfo@@@std@@@std@@@std@@PAUtagDummyCharLoadInfo@@V?$allocator@UtagDummyCharLoadInfo@@@2@@std@@YAPAUtagDummyCharLoadInfo@@V?$_Vector_const_iterator@V?$_Vector_val@UtagDummyCharLoadInfo@@V?$allocator@UtagDummyCharLoadInfo@@@std@@@std@@@0@0PAU1@AAV?$allocator@UtagDummyCharLoadInfo@@@0@U_Nonscalar_ptr_iterator_tag@0@@Z PROC ; std::_Uninit_copy<std::_Vector_const_iterator<std::_Vector_val<tagDummyCharLoadInfo,std::allocator<tagDummyCharLoadInfo> > >,tagDummyCharLoadInfo *,std::allocator<tagDummyCharLoadInfo> >, COMDAT

; 369  : 	{	// copy [_First, _Last) to raw _Dest, using _Al, arbitrary type

  00000	6a 08		 push	 8
  00002	b8 00 00 00 00	 mov	 eax, __ehhandler$??$_Uninit_copy@V?$_Vector_const_iterator@V?$_Vector_val@UtagDummyCharLoadInfo@@V?$allocator@UtagDummyCharLoadInfo@@@std@@@std@@@std@@PAUtagDummyCharLoadInfo@@V?$allocator@UtagDummyCharLoadInfo@@@2@@std@@YAPAUtagDummyCharLoadInfo@@V?$_Vector_const_iterator@V?$_Vector_val@UtagDummyCharLoadInfo@@V?$allocator@UtagDummyCharLoadInfo@@@std@@@std@@@0@0PAU1@AAV?$allocator@UtagDummyCharLoadInfo@@@0@U_Nonscalar_ptr_iterator_tag@0@@Z
  00007	e8 00 00 00 00	 call	 __EH_prolog3_catch

; 370  : 	_DEBUG_RANGE(_First, _Last);
; 371  : 	_DEBUG_POINTER(_Dest);
; 372  : 	_FwdIt _Next = _Dest;

  0000c	8b 45 10	 mov	 eax, DWORD PTR __Dest$[ebp]

; 373  : 
; 374  : 	_TRY_BEGIN

  0000f	83 65 fc 00	 and	 DWORD PTR __$EHRec$[ebp+12], 0
  00013	89 45 ec	 mov	 DWORD PTR __Next$[ebp], eax

; 375  : 	for (; _First != _Last; ++_Dest, ++_First)

$LL14@Uninit_cop@2:
  00016	8b 45 08	 mov	 eax, DWORD PTR __First$[ebp]
  00019	3b 45 0c	 cmp	 eax, DWORD PTR __Last$[ebp]
  0001c	74 33		 je	 SHORT $LN4@Uninit_cop@2

; 376  : 		_Cons_val(_Al, _Dest, *_First);

  0001e	50		 push	 eax
  0001f	ff 75 10	 push	 DWORD PTR __Dest$[ebp]
  00022	e8 00 00 00 00	 call	 ??$_Construct@UtagDummyCharLoadInfo@@ABU1@@std@@YAXPAUtagDummyCharLoadInfo@@ABU1@@Z ; std::_Construct<tagDummyCharLoadInfo,tagDummyCharLoadInfo const &>
  00027	83 45 10 1c	 add	 DWORD PTR __Dest$[ebp], 28 ; 0000001cH
  0002b	83 45 08 1c	 add	 DWORD PTR __First$[ebp], 28 ; 0000001cH
  0002f	59		 pop	 ecx
  00030	59		 pop	 ecx
  00031	eb e3		 jmp	 SHORT $LL14@Uninit_cop@2
__catch$??$_Uninit_copy@V?$_Vector_const_iterator@V?$_Vector_val@UtagDummyCharLoadInfo@@V?$allocator@UtagDummyCharLoadInfo@@@std@@@std@@@std@@PAUtagDummyCharLoadInfo@@V?$allocator@UtagDummyCharLoadInfo@@@2@@std@@YAPAUtagDummyCharLoadInfo@@V?$_Vector_const_iterator@V?$_Vector_val@UtagDummyCharLoadInfo@@V?$allocator@UtagDummyCharLoadInfo@@@std@@@std@@@0@0PAU1@AAV?$allocator@UtagDummyCharLoadInfo@@@0@U_Nonscalar_ptr_iterator_tag@0@@Z$0:

; 377  : 	_CATCH_ALL
; 378  : 	for (; _Next != _Dest; ++_Next)

  00033	8b 75 ec	 mov	 esi, DWORD PTR __Next$[ebp]
  00036	eb 0b		 jmp	 SHORT $LN48@Uninit_cop@2
$LL3@Uninit_cop@2:

; 379  : 		_Dest_val(_Al, _Next);

  00038	8b ce		 mov	 ecx, esi
  0003a	ff 15 00 00 00
	00		 call	 DWORD PTR __imp_??1ioHashString@@QAE@XZ
  00040	83 c6 1c	 add	 esi, 28			; 0000001cH
$LN48@Uninit_cop@2:

; 377  : 	_CATCH_ALL
; 378  : 	for (; _Next != _Dest; ++_Next)

  00043	3b 75 10	 cmp	 esi, DWORD PTR __Dest$[ebp]
  00046	75 f0		 jne	 SHORT $LL3@Uninit_cop@2

; 380  : 	_RERAISE;

  00048	6a 00		 push	 0
  0004a	6a 00		 push	 0
  0004c	e8 00 00 00 00	 call	 __CxxThrowException@8
$LN49@Uninit_cop@2:
$LN4@Uninit_cop@2:

; 381  : 	_CATCH_END
; 382  : 	return (_Dest);

  00051	8b 45 10	 mov	 eax, DWORD PTR __Dest$[ebp]

; 383  : 	}

  00054	e8 00 00 00 00	 call	 __EH_epilog3
  00059	c3		 ret	 0
$LN47@Uninit_cop@2:
_TEXT	ENDS
;	COMDAT text$x
text$x	SEGMENT
__ehhandler$??$_Uninit_copy@V?$_Vector_const_iterator@V?$_Vector_val@UtagDummyCharLoadInfo@@V?$allocator@UtagDummyCharLoadInfo@@@std@@@std@@@std@@PAUtagDummyCharLoadInfo@@V?$allocator@UtagDummyCharLoadInfo@@@2@@std@@YAPAUtagDummyCharLoadInfo@@V?$_Vector_const_iterator@V?$_Vector_val@UtagDummyCharLoadInfo@@V?$allocator@UtagDummyCharLoadInfo@@@std@@@std@@@0@0PAU1@AAV?$allocator@UtagDummyCharLoadInfo@@@0@U_Nonscalar_ptr_iterator_tag@0@@Z:
  00000	8b 54 24 08	 mov	 edx, DWORD PTR [esp+8]
  00004	8d 42 0c	 lea	 eax, DWORD PTR [edx+12]
  00007	8b 4a e8	 mov	 ecx, DWORD PTR [edx-24]
  0000a	33 c8		 xor	 ecx, eax
  0000c	e8 00 00 00 00	 call	 @__security_check_cookie@4
  00011	b8 00 00 00 00	 mov	 eax, OFFSET __ehfuncinfo$??$_Uninit_copy@V?$_Vector_const_iterator@V?$_Vector_val@UtagDummyCharLoadInfo@@V?$allocator@UtagDummyCharLoadInfo@@@std@@@std@@@std@@PAUtagDummyCharLoadInfo@@V?$allocator@UtagDummyCharLoadInfo@@@2@@std@@YAPAUtagDummyCharLoadInfo@@V?$_Vector_const_iterator@V?$_Vector_val@UtagDummyCharLoadInfo@@V?$allocator@UtagDummyCharLoadInfo@@@std@@@std@@@0@0PAU1@AAV?$allocator@UtagDummyCharLoadInfo@@@0@U_Nonscalar_ptr_iterator_tag@0@@Z
  00016	e9 00 00 00 00	 jmp	 ___CxxFrameHandler3
text$x	ENDS
??$_Uninit_copy@V?$_Vector_const_iterator@V?$_Vector_val@UtagDummyCharLoadInfo@@V?$allocator@UtagDummyCharLoadInfo@@@std@@@std@@@std@@PAUtagDummyCharLoadInfo@@V?$allocator@UtagDummyCharLoadInfo@@@2@@std@@YAPAUtagDummyCharLoadInfo@@V?$_Vector_const_iterator@V?$_Vector_val@UtagDummyCharLoadInfo@@V?$allocator@UtagDummyCharLoadInfo@@@std@@@std@@@0@0PAU1@AAV?$allocator@UtagDummyCharLoadInfo@@@0@U_Nonscalar_ptr_iterator_tag@0@@Z ENDP ; std::_Uninit_copy<std::_Vector_const_iterator<std::_Vector_val<tagDummyCharLoadInfo,std::allocator<tagDummyCharLoadInfo> > >,tagDummyCharLoadInfo *,std::allocator<tagDummyCharLoadInfo> >
PUBLIC	??$_Destroy_range@V?$allocator@VioHashString@@@std@@@std@@YAXPAVioHashString@@0AAV?$allocator@VioHashString@@@0@@Z ; std::_Destroy_range<std::allocator<ioHashString> >
; Function compile flags: /Ogsp
; File c:\program files (x86)\microsoft visual studio 10.0\vc\include\xmemory
;	COMDAT ??$_Destroy_range@V?$allocator@VioHashString@@@std@@@std@@YAXPAVioHashString@@0AAV?$allocator@VioHashString@@@0@@Z
_TEXT	SEGMENT
__First$ = 8						; size = 4
__Last$ = 12						; size = 4
__Al$ = 16						; size = 4
??$_Destroy_range@V?$allocator@VioHashString@@@std@@@std@@YAXPAVioHashString@@0AAV?$allocator@VioHashString@@@0@@Z PROC ; std::_Destroy_range<std::allocator<ioHashString> >, COMDAT

; 87   : 	{	// destroy [_First, _Last)

  00000	55		 push	 ebp
  00001	8b ec		 mov	 ebp, esp
  00003	56		 push	 esi

; 88   : 	_Destroy_range(_First, _Last, _Al, _Ptr_cat(_First, _Last));

  00004	8b 75 08	 mov	 esi, DWORD PTR __First$[ebp]
  00007	eb 0b		 jmp	 SHORT $LN21@Destroy_ra@4
$LL7@Destroy_ra@4:
  00009	8b ce		 mov	 ecx, esi
  0000b	ff 15 00 00 00
	00		 call	 DWORD PTR __imp_??1ioHashString@@QAE@XZ
  00011	83 c6 10	 add	 esi, 16			; 00000010H
$LN21@Destroy_ra@4:
  00014	3b 75 0c	 cmp	 esi, DWORD PTR __Last$[ebp]
  00017	75 f0		 jne	 SHORT $LL7@Destroy_ra@4
  00019	5e		 pop	 esi

; 89   : 	}

  0001a	5d		 pop	 ebp
  0001b	c3		 ret	 0
??$_Destroy_range@V?$allocator@VioHashString@@@std@@@std@@YAXPAVioHashString@@0AAV?$allocator@VioHashString@@@0@@Z ENDP ; std::_Destroy_range<std::allocator<ioHashString> >
_TEXT	ENDS
PUBLIC	??$_Uninitialized_copy@V?$_Vector_const_iterator@V?$_Vector_val@VioHashString@@V?$allocator@VioHashString@@@std@@@std@@@std@@PAVioHashString@@V?$allocator@VioHashString@@@2@@std@@YAPAVioHashString@@V?$_Vector_const_iterator@V?$_Vector_val@VioHashString@@V?$allocator@VioHashString@@@std@@@std@@@0@0PAV1@AAV?$allocator@VioHashString@@@0@@Z ; std::_Uninitialized_copy<std::_Vector_const_iterator<std::_Vector_val<ioHashString,std::allocator<ioHashString> > >,ioHashString *,std::allocator<ioHashString> >
; Function compile flags: /Ogsp
; File c:\program files (x86)\microsoft visual studio 10.0\vc\include\memory
;	COMDAT ??$_Uninitialized_copy@V?$_Vector_const_iterator@V?$_Vector_val@VioHashString@@V?$allocator@VioHashString@@@std@@@std@@@std@@PAVioHashString@@V?$allocator@VioHashString@@@2@@std@@YAPAVioHashString@@V?$_Vector_const_iterator@V?$_Vector_val@VioHashString@@V?$allocator@VioHashString@@@std@@@std@@@0@0PAV1@AAV?$allocator@VioHashString@@@0@@Z
_TEXT	SEGMENT
__Cat$547146 = -4					; size = 1
__First$ = 8						; size = 4
__Last$ = 12						; size = 4
__Dest$ = 16						; size = 4
__Al$ = 20						; size = 4
??$_Uninitialized_copy@V?$_Vector_const_iterator@V?$_Vector_val@VioHashString@@V?$allocator@VioHashString@@@std@@@std@@@std@@PAVioHashString@@V?$allocator@VioHashString@@@2@@std@@YAPAVioHashString@@V?$_Vector_const_iterator@V?$_Vector_val@VioHashString@@V?$allocator@VioHashString@@@std@@@std@@@0@0PAV1@AAV?$allocator@VioHashString@@@0@@Z PROC ; std::_Uninitialized_copy<std::_Vector_const_iterator<std::_Vector_val<ioHashString,std::allocator<ioHashString> > >,ioHashString *,std::allocator<ioHashString> >, COMDAT

; 412  : 	{	// copy [_First, _Last) to raw _Dest, using _Al

  00000	55		 push	 ebp
  00001	8b ec		 mov	 ebp, esp
  00003	51		 push	 ecx

; 413  : 	return (_Uninit_copy(_First, _Last, _Dest, _Al,
; 414  : 		_Ptr_cat(_First, _Dest)));

  00004	ff 75 fc	 push	 DWORD PTR __Cat$547146[ebp]
  00007	ff 75 14	 push	 DWORD PTR __Al$[ebp]
  0000a	ff 75 10	 push	 DWORD PTR __Dest$[ebp]
  0000d	ff 75 0c	 push	 DWORD PTR __Last$[ebp]
  00010	ff 75 08	 push	 DWORD PTR __First$[ebp]
  00013	e8 00 00 00 00	 call	 ??$_Uninit_copy@V?$_Vector_const_iterator@V?$_Vector_val@VioHashString@@V?$allocator@VioHashString@@@std@@@std@@@std@@PAVioHashString@@V?$allocator@VioHashString@@@2@@std@@YAPAVioHashString@@V?$_Vector_const_iterator@V?$_Vector_val@VioHashString@@V?$allocator@VioHashString@@@std@@@std@@@0@0PAV1@AAV?$allocator@VioHashString@@@0@U_Nonscalar_ptr_iterator_tag@0@@Z ; std::_Uninit_copy<std::_Vector_const_iterator<std::_Vector_val<ioHashString,std::allocator<ioHashString> > >,ioHashString *,std::allocator<ioHashString> >
  00018	83 c4 14	 add	 esp, 20			; 00000014H

; 415  : 	}

  0001b	c9		 leave
  0001c	c3		 ret	 0
??$_Uninitialized_copy@V?$_Vector_const_iterator@V?$_Vector_val@VioHashString@@V?$allocator@VioHashString@@@std@@@std@@@std@@PAVioHashString@@V?$allocator@VioHashString@@@2@@std@@YAPAVioHashString@@V?$_Vector_const_iterator@V?$_Vector_val@VioHashString@@V?$allocator@VioHashString@@@std@@@std@@@0@0PAV1@AAV?$allocator@VioHashString@@@0@@Z ENDP ; std::_Uninitialized_copy<std::_Vector_const_iterator<std::_Vector_val<ioHashString,std::allocator<ioHashString> > >,ioHashString *,std::allocator<ioHashString> >
_TEXT	ENDS
PUBLIC	??$_Destroy_range@V?$allocator@UtagDummyCharLoadInfo@@@std@@@std@@YAXPAUtagDummyCharLoadInfo@@0AAV?$allocator@UtagDummyCharLoadInfo@@@0@U_Nonscalar_ptr_iterator_tag@0@@Z ; std::_Destroy_range<std::allocator<tagDummyCharLoadInfo> >
; Function compile flags: /Ogsp
; File c:\program files (x86)\microsoft visual studio 10.0\vc\include\xmemory
;	COMDAT ??$_Destroy_range@V?$allocator@UtagDummyCharLoadInfo@@@std@@@std@@YAXPAUtagDummyCharLoadInfo@@0AAV?$allocator@UtagDummyCharLoadInfo@@@0@U_Nonscalar_ptr_iterator_tag@0@@Z
_TEXT	SEGMENT
__First$ = 8						; size = 4
__Last$ = 12						; size = 4
__Al$ = 16						; size = 4
___formal$ = 20						; size = 1
??$_Destroy_range@V?$allocator@UtagDummyCharLoadInfo@@@std@@@std@@YAXPAUtagDummyCharLoadInfo@@0AAV?$allocator@UtagDummyCharLoadInfo@@@0@U_Nonscalar_ptr_iterator_tag@0@@Z PROC ; std::_Destroy_range<std::allocator<tagDummyCharLoadInfo> >, COMDAT

; 95   : 	{	// destroy [_First, _Last), arbitrary type

  00000	55		 push	 ebp
  00001	8b ec		 mov	 ebp, esp
  00003	56		 push	 esi

; 96   : 	for (; _First != _Last; ++_First)

  00004	8b 75 08	 mov	 esi, DWORD PTR __First$[ebp]
  00007	eb 0b		 jmp	 SHORT $LN20@Destroy_ra@5
$LL3@Destroy_ra@5:

; 97   : 		_Dest_val(_Al, _First);

  00009	8b ce		 mov	 ecx, esi
  0000b	ff 15 00 00 00
	00		 call	 DWORD PTR __imp_??1ioHashString@@QAE@XZ
  00011	83 c6 1c	 add	 esi, 28			; 0000001cH
$LN20@Destroy_ra@5:

; 96   : 	for (; _First != _Last; ++_First)

  00014	3b 75 0c	 cmp	 esi, DWORD PTR __Last$[ebp]
  00017	75 f0		 jne	 SHORT $LL3@Destroy_ra@5
  00019	5e		 pop	 esi

; 98   : 	}

  0001a	5d		 pop	 ebp
  0001b	c3		 ret	 0
??$_Destroy_range@V?$allocator@UtagDummyCharLoadInfo@@@std@@@std@@YAXPAUtagDummyCharLoadInfo@@0AAV?$allocator@UtagDummyCharLoadInfo@@@0@U_Nonscalar_ptr_iterator_tag@0@@Z ENDP ; std::_Destroy_range<std::allocator<tagDummyCharLoadInfo> >
_TEXT	ENDS
PUBLIC	?_Destroy@?$vector@UtagDummyCharCreateInfo@@V?$allocator@UtagDummyCharCreateInfo@@@std@@@std@@IAEXPAUtagDummyCharCreateInfo@@0@Z ; std::vector<tagDummyCharCreateInfo,std::allocator<tagDummyCharCreateInfo> >::_Destroy
; Function compile flags: /Ogsp
; File c:\program files (x86)\microsoft visual studio 10.0\vc\include\vector
;	COMDAT ?_Destroy@?$vector@UtagDummyCharCreateInfo@@V?$allocator@UtagDummyCharCreateInfo@@@std@@@std@@IAEXPAUtagDummyCharCreateInfo@@0@Z
_TEXT	SEGMENT
__First$ = 8						; size = 4
__Last$ = 12						; size = 4
?_Destroy@?$vector@UtagDummyCharCreateInfo@@V?$allocator@UtagDummyCharCreateInfo@@@std@@@std@@IAEXPAUtagDummyCharCreateInfo@@0@Z PROC ; std::vector<tagDummyCharCreateInfo,std::allocator<tagDummyCharCreateInfo> >::_Destroy, COMDAT
; _this$ = ecx

; 1269 : 		{	// destroy [_First, _Last) using allocator

  00000	55		 push	 ebp
  00001	8b ec		 mov	 ebp, esp
  00003	56		 push	 esi

; 1270 : 		_Destroy_range(_First, _Last, this->_Alval);

  00004	8b 75 08	 mov	 esi, DWORD PTR __First$[ebp]
  00007	eb 0b		 jmp	 SHORT $LN26@Destroy
$LL9@Destroy:
  00009	8b ce		 mov	 ecx, esi
  0000b	ff 15 00 00 00
	00		 call	 DWORD PTR __imp_??1ioHashString@@QAE@XZ
  00011	83 c6 24	 add	 esi, 36			; 00000024H
$LN26@Destroy:
  00014	3b 75 0c	 cmp	 esi, DWORD PTR __Last$[ebp]
  00017	75 f0		 jne	 SHORT $LL9@Destroy
  00019	5e		 pop	 esi

; 1271 : 		}

  0001a	5d		 pop	 ebp
  0001b	c2 08 00	 ret	 8
?_Destroy@?$vector@UtagDummyCharCreateInfo@@V?$allocator@UtagDummyCharCreateInfo@@@std@@@std@@IAEXPAUtagDummyCharCreateInfo@@0@Z ENDP ; std::vector<tagDummyCharCreateInfo,std::allocator<tagDummyCharCreateInfo> >::_Destroy
_TEXT	ENDS
PUBLIC	??$_Umove@PAUtagDummyCharCreateInfo@@@?$vector@UtagDummyCharCreateInfo@@V?$allocator@UtagDummyCharCreateInfo@@@std@@@std@@IAEPAUtagDummyCharCreateInfo@@PAU2@00@Z ; std::vector<tagDummyCharCreateInfo,std::allocator<tagDummyCharCreateInfo> >::_Umove<tagDummyCharCreateInfo *>
; Function compile flags: /Ogsp
;	COMDAT ??$_Umove@PAUtagDummyCharCreateInfo@@@?$vector@UtagDummyCharCreateInfo@@V?$allocator@UtagDummyCharCreateInfo@@@std@@@std@@IAEPAUtagDummyCharCreateInfo@@PAU2@00@Z
_TEXT	SEGMENT
__First$ = 8						; size = 4
__Last$ = 12						; size = 4
__Ptr$ = 16						; size = 4
??$_Umove@PAUtagDummyCharCreateInfo@@@?$vector@UtagDummyCharCreateInfo@@V?$allocator@UtagDummyCharCreateInfo@@@std@@@std@@IAEPAUtagDummyCharCreateInfo@@PAU2@00@Z PROC ; std::vector<tagDummyCharCreateInfo,std::allocator<tagDummyCharCreateInfo> >::_Umove<tagDummyCharCreateInfo *>, COMDAT
; _this$ = ecx

; 1322 : 		pointer _Umove(_Iter _First, _Iter _Last, pointer _Ptr)

  00000	55		 push	 ebp
  00001	8b ec		 mov	 ebp, esp

; 1323 : 		{	// move initializing [_First, _Last), using allocator
; 1324 : 		return (_Uninitialized_move(_First, _Last,
; 1325 : 			_Ptr, this->_Alval));

  00003	83 c1 0c	 add	 ecx, 12			; 0000000cH
  00006	51		 push	 ecx
  00007	ff 75 10	 push	 DWORD PTR __Ptr$[ebp]
  0000a	ff 75 0c	 push	 DWORD PTR __Last$[ebp]
  0000d	ff 75 08	 push	 DWORD PTR __First$[ebp]
  00010	e8 00 00 00 00	 call	 ??$_Uninitialized_move@PAUtagDummyCharCreateInfo@@PAU1@V?$allocator@UtagDummyCharCreateInfo@@@std@@@std@@YAPAUtagDummyCharCreateInfo@@PAU1@00AAV?$allocator@UtagDummyCharCreateInfo@@@0@@Z ; std::_Uninitialized_move<tagDummyCharCreateInfo *,tagDummyCharCreateInfo *,std::allocator<tagDummyCharCreateInfo> >
  00015	83 c4 10	 add	 esp, 16			; 00000010H

; 1326 : 		}

  00018	5d		 pop	 ebp
  00019	c2 0c 00	 ret	 12			; 0000000cH
??$_Umove@PAUtagDummyCharCreateInfo@@@?$vector@UtagDummyCharCreateInfo@@V?$allocator@UtagDummyCharCreateInfo@@@std@@@std@@IAEPAUtagDummyCharCreateInfo@@PAU2@00@Z ENDP ; std::vector<tagDummyCharCreateInfo,std::allocator<tagDummyCharCreateInfo> >::_Umove<tagDummyCharCreateInfo *>
_TEXT	ENDS
PUBLIC	??$_Uninitialized_copy@V?$_Vector_const_iterator@V?$_Vector_val@UtagDummyCharLoadInfo@@V?$allocator@UtagDummyCharLoadInfo@@@std@@@std@@@std@@PAUtagDummyCharLoadInfo@@V?$allocator@UtagDummyCharLoadInfo@@@2@@std@@YAPAUtagDummyCharLoadInfo@@V?$_Vector_const_iterator@V?$_Vector_val@UtagDummyCharLoadInfo@@V?$allocator@UtagDummyCharLoadInfo@@@std@@@std@@@0@0PAU1@AAV?$allocator@UtagDummyCharLoadInfo@@@0@@Z ; std::_Uninitialized_copy<std::_Vector_const_iterator<std::_Vector_val<tagDummyCharLoadInfo,std::allocator<tagDummyCharLoadInfo> > >,tagDummyCharLoadInfo *,std::allocator<tagDummyCharLoadInfo> >
; Function compile flags: /Ogsp
; File c:\program files (x86)\microsoft visual studio 10.0\vc\include\memory
;	COMDAT ??$_Uninitialized_copy@V?$_Vector_const_iterator@V?$_Vector_val@UtagDummyCharLoadInfo@@V?$allocator@UtagDummyCharLoadInfo@@@std@@@std@@@std@@PAUtagDummyCharLoadInfo@@V?$allocator@UtagDummyCharLoadInfo@@@2@@std@@YAPAUtagDummyCharLoadInfo@@V?$_Vector_const_iterator@V?$_Vector_val@UtagDummyCharLoadInfo@@V?$allocator@UtagDummyCharLoadInfo@@@std@@@std@@@0@0PAU1@AAV?$allocator@UtagDummyCharLoadInfo@@@0@@Z
_TEXT	SEGMENT
__Cat$547292 = -4					; size = 1
__First$ = 8						; size = 4
__Last$ = 12						; size = 4
__Dest$ = 16						; size = 4
__Al$ = 20						; size = 4
??$_Uninitialized_copy@V?$_Vector_const_iterator@V?$_Vector_val@UtagDummyCharLoadInfo@@V?$allocator@UtagDummyCharLoadInfo@@@std@@@std@@@std@@PAUtagDummyCharLoadInfo@@V?$allocator@UtagDummyCharLoadInfo@@@2@@std@@YAPAUtagDummyCharLoadInfo@@V?$_Vector_const_iterator@V?$_Vector_val@UtagDummyCharLoadInfo@@V?$allocator@UtagDummyCharLoadInfo@@@std@@@std@@@0@0PAU1@AAV?$allocator@UtagDummyCharLoadInfo@@@0@@Z PROC ; std::_Uninitialized_copy<std::_Vector_const_iterator<std::_Vector_val<tagDummyCharLoadInfo,std::allocator<tagDummyCharLoadInfo> > >,tagDummyCharLoadInfo *,std::allocator<tagDummyCharLoadInfo> >, COMDAT

; 412  : 	{	// copy [_First, _Last) to raw _Dest, using _Al

  00000	55		 push	 ebp
  00001	8b ec		 mov	 ebp, esp
  00003	51		 push	 ecx

; 413  : 	return (_Uninit_copy(_First, _Last, _Dest, _Al,
; 414  : 		_Ptr_cat(_First, _Dest)));

  00004	ff 75 fc	 push	 DWORD PTR __Cat$547292[ebp]
  00007	ff 75 14	 push	 DWORD PTR __Al$[ebp]
  0000a	ff 75 10	 push	 DWORD PTR __Dest$[ebp]
  0000d	ff 75 0c	 push	 DWORD PTR __Last$[ebp]
  00010	ff 75 08	 push	 DWORD PTR __First$[ebp]
  00013	e8 00 00 00 00	 call	 ??$_Uninit_copy@V?$_Vector_const_iterator@V?$_Vector_val@UtagDummyCharLoadInfo@@V?$allocator@UtagDummyCharLoadInfo@@@std@@@std@@@std@@PAUtagDummyCharLoadInfo@@V?$allocator@UtagDummyCharLoadInfo@@@2@@std@@YAPAUtagDummyCharLoadInfo@@V?$_Vector_const_iterator@V?$_Vector_val@UtagDummyCharLoadInfo@@V?$allocator@UtagDummyCharLoadInfo@@@std@@@std@@@0@0PAU1@AAV?$allocator@UtagDummyCharLoadInfo@@@0@U_Nonscalar_ptr_iterator_tag@0@@Z ; std::_Uninit_copy<std::_Vector_const_iterator<std::_Vector_val<tagDummyCharLoadInfo,std::allocator<tagDummyCharLoadInfo> > >,tagDummyCharLoadInfo *,std::allocator<tagDummyCharLoadInfo> >
  00018	83 c4 14	 add	 esp, 20			; 00000014H

; 415  : 	}

  0001b	c9		 leave
  0001c	c3		 ret	 0
??$_Uninitialized_copy@V?$_Vector_const_iterator@V?$_Vector_val@UtagDummyCharLoadInfo@@V?$allocator@UtagDummyCharLoadInfo@@@std@@@std@@@std@@PAUtagDummyCharLoadInfo@@V?$allocator@UtagDummyCharLoadInfo@@@2@@std@@YAPAUtagDummyCharLoadInfo@@V?$_Vector_const_iterator@V?$_Vector_val@UtagDummyCharLoadInfo@@V?$allocator@UtagDummyCharLoadInfo@@@std@@@std@@@0@0PAU1@AAV?$allocator@UtagDummyCharLoadInfo@@@0@@Z ENDP ; std::_Uninitialized_copy<std::_Vector_const_iterator<std::_Vector_val<tagDummyCharLoadInfo,std::allocator<tagDummyCharLoadInfo> > >,tagDummyCharLoadInfo *,std::allocator<tagDummyCharLoadInfo> >
_TEXT	ENDS
PUBLIC	?_Destroy@?$vector@VioHashString@@V?$allocator@VioHashString@@@std@@@std@@IAEXPAVioHashString@@0@Z ; std::vector<ioHashString,std::allocator<ioHashString> >::_Destroy
; Function compile flags: /Ogsp
; File c:\program files (x86)\microsoft visual studio 10.0\vc\include\vector
;	COMDAT ?_Destroy@?$vector@VioHashString@@V?$allocator@VioHashString@@@std@@@std@@IAEXPAVioHashString@@0@Z
_TEXT	SEGMENT
__First$ = 8						; size = 4
__Last$ = 12						; size = 4
?_Destroy@?$vector@VioHashString@@V?$allocator@VioHashString@@@std@@@std@@IAEXPAVioHashString@@0@Z PROC ; std::vector<ioHashString,std::allocator<ioHashString> >::_Destroy, COMDAT
; _this$ = ecx

; 1269 : 		{	// destroy [_First, _Last) using allocator

  00000	55		 push	 ebp
  00001	8b ec		 mov	 ebp, esp
  00003	56		 push	 esi

; 1270 : 		_Destroy_range(_First, _Last, this->_Alval);

  00004	8b 75 08	 mov	 esi, DWORD PTR __First$[ebp]
  00007	eb 0b		 jmp	 SHORT $LN23@Destroy@2
$LL9@Destroy@2:
  00009	8b ce		 mov	 ecx, esi
  0000b	ff 15 00 00 00
	00		 call	 DWORD PTR __imp_??1ioHashString@@QAE@XZ
  00011	83 c6 10	 add	 esi, 16			; 00000010H
$LN23@Destroy@2:
  00014	3b 75 0c	 cmp	 esi, DWORD PTR __Last$[ebp]
  00017	75 f0		 jne	 SHORT $LL9@Destroy@2
  00019	5e		 pop	 esi

; 1271 : 		}

  0001a	5d		 pop	 ebp
  0001b	c2 08 00	 ret	 8
?_Destroy@?$vector@VioHashString@@V?$allocator@VioHashString@@@std@@@std@@IAEXPAVioHashString@@0@Z ENDP ; std::vector<ioHashString,std::allocator<ioHashString> >::_Destroy
_TEXT	ENDS
PUBLIC	??$_Ucopy@V?$_Vector_const_iterator@V?$_Vector_val@VioHashString@@V?$allocator@VioHashString@@@std@@@std@@@std@@@?$vector@VioHashString@@V?$allocator@VioHashString@@@std@@@std@@IAEPAVioHashString@@V?$_Vector_const_iterator@V?$_Vector_val@VioHashString@@V?$allocator@VioHashString@@@std@@@std@@@1@0PAV2@@Z ; std::vector<ioHashString,std::allocator<ioHashString> >::_Ucopy<std::_Vector_const_iterator<std::_Vector_val<ioHashString,std::allocator<ioHashString> > > >
; Function compile flags: /Ogsp
;	COMDAT ??$_Ucopy@V?$_Vector_const_iterator@V?$_Vector_val@VioHashString@@V?$allocator@VioHashString@@@std@@@std@@@std@@@?$vector@VioHashString@@V?$allocator@VioHashString@@@std@@@std@@IAEPAVioHashString@@V?$_Vector_const_iterator@V?$_Vector_val@VioHashString@@V?$allocator@VioHashString@@@std@@@std@@@1@0PAV2@@Z
_TEXT	SEGMENT
__First$ = 8						; size = 4
__Last$ = 12						; size = 4
__Cat$547380 = 16					; size = 1
__Ptr$ = 16						; size = 4
??$_Ucopy@V?$_Vector_const_iterator@V?$_Vector_val@VioHashString@@V?$allocator@VioHashString@@@std@@@std@@@std@@@?$vector@VioHashString@@V?$allocator@VioHashString@@@std@@@std@@IAEPAVioHashString@@V?$_Vector_const_iterator@V?$_Vector_val@VioHashString@@V?$allocator@VioHashString@@@std@@@std@@@1@0PAV2@@Z PROC ; std::vector<ioHashString,std::allocator<ioHashString> >::_Ucopy<std::_Vector_const_iterator<std::_Vector_val<ioHashString,std::allocator<ioHashString> > > >, COMDAT
; _this$ = ecx

; 1315 : 		pointer _Ucopy(_Iter _First, _Iter _Last, pointer _Ptr)

  00000	55		 push	 ebp
  00001	8b ec		 mov	 ebp, esp

; 1316 : 		{	// copy initializing [_First, _Last), using allocator
; 1317 : 		return (_Uninitialized_copy(_First, _Last,
; 1318 : 			_Ptr, this->_Alval));

  00003	ff 75 10	 push	 DWORD PTR __Cat$547380[ebp]
  00006	83 c1 0c	 add	 ecx, 12			; 0000000cH
  00009	51		 push	 ecx
  0000a	ff 75 10	 push	 DWORD PTR __Ptr$[ebp]
  0000d	ff 75 0c	 push	 DWORD PTR __Last$[ebp]
  00010	ff 75 08	 push	 DWORD PTR __First$[ebp]
  00013	e8 00 00 00 00	 call	 ??$_Uninit_copy@V?$_Vector_const_iterator@V?$_Vector_val@VioHashString@@V?$allocator@VioHashString@@@std@@@std@@@std@@PAVioHashString@@V?$allocator@VioHashString@@@2@@std@@YAPAVioHashString@@V?$_Vector_const_iterator@V?$_Vector_val@VioHashString@@V?$allocator@VioHashString@@@std@@@std@@@0@0PAV1@AAV?$allocator@VioHashString@@@0@U_Nonscalar_ptr_iterator_tag@0@@Z ; std::_Uninit_copy<std::_Vector_const_iterator<std::_Vector_val<ioHashString,std::allocator<ioHashString> > >,ioHashString *,std::allocator<ioHashString> >
  00018	83 c4 14	 add	 esp, 20			; 00000014H

; 1319 : 		}

  0001b	5d		 pop	 ebp
  0001c	c2 0c 00	 ret	 12			; 0000000cH
??$_Ucopy@V?$_Vector_const_iterator@V?$_Vector_val@VioHashString@@V?$allocator@VioHashString@@@std@@@std@@@std@@@?$vector@VioHashString@@V?$allocator@VioHashString@@@std@@@std@@IAEPAVioHashString@@V?$_Vector_const_iterator@V?$_Vector_val@VioHashString@@V?$allocator@VioHashString@@@std@@@std@@@1@0PAV2@@Z ENDP ; std::vector<ioHashString,std::allocator<ioHashString> >::_Ucopy<std::_Vector_const_iterator<std::_Vector_val<ioHashString,std::allocator<ioHashString> > > >
_TEXT	ENDS
PUBLIC	??$_Destroy_range@V?$allocator@UtagDummyCharLoadInfo@@@std@@@std@@YAXPAUtagDummyCharLoadInfo@@0AAV?$allocator@UtagDummyCharLoadInfo@@@0@@Z ; std::_Destroy_range<std::allocator<tagDummyCharLoadInfo> >
; Function compile flags: /Ogsp
; File c:\program files (x86)\microsoft visual studio 10.0\vc\include\xmemory
;	COMDAT ??$_Destroy_range@V?$allocator@UtagDummyCharLoadInfo@@@std@@@std@@YAXPAUtagDummyCharLoadInfo@@0AAV?$allocator@UtagDummyCharLoadInfo@@@0@@Z
_TEXT	SEGMENT
__First$ = 8						; size = 4
__Last$ = 12						; size = 4
__Al$ = 16						; size = 4
??$_Destroy_range@V?$allocator@UtagDummyCharLoadInfo@@@std@@@std@@YAXPAUtagDummyCharLoadInfo@@0AAV?$allocator@UtagDummyCharLoadInfo@@@0@@Z PROC ; std::_Destroy_range<std::allocator<tagDummyCharLoadInfo> >, COMDAT

; 87   : 	{	// destroy [_First, _Last)

  00000	55		 push	 ebp
  00001	8b ec		 mov	 ebp, esp
  00003	56		 push	 esi

; 88   : 	_Destroy_range(_First, _Last, _Al, _Ptr_cat(_First, _Last));

  00004	8b 75 08	 mov	 esi, DWORD PTR __First$[ebp]
  00007	eb 0b		 jmp	 SHORT $LN24@Destroy_ra@6
$LL7@Destroy_ra@6:
  00009	8b ce		 mov	 ecx, esi
  0000b	ff 15 00 00 00
	00		 call	 DWORD PTR __imp_??1ioHashString@@QAE@XZ
  00011	83 c6 1c	 add	 esi, 28			; 0000001cH
$LN24@Destroy_ra@6:
  00014	3b 75 0c	 cmp	 esi, DWORD PTR __Last$[ebp]
  00017	75 f0		 jne	 SHORT $LL7@Destroy_ra@6
  00019	5e		 pop	 esi

; 89   : 	}

  0001a	5d		 pop	 ebp
  0001b	c3		 ret	 0
??$_Destroy_range@V?$allocator@UtagDummyCharLoadInfo@@@std@@@std@@YAXPAUtagDummyCharLoadInfo@@0AAV?$allocator@UtagDummyCharLoadInfo@@@0@@Z ENDP ; std::_Destroy_range<std::allocator<tagDummyCharLoadInfo> >
_TEXT	ENDS
PUBLIC	?erase@?$vector@UtagDummyCharCreateInfo@@V?$allocator@UtagDummyCharCreateInfo@@@std@@@std@@QAE?AV?$_Vector_iterator@V?$_Vector_val@UtagDummyCharCreateInfo@@V?$allocator@UtagDummyCharCreateInfo@@@std@@@std@@@2@V?$_Vector_const_iterator@V?$_Vector_val@UtagDummyCharCreateInfo@@V?$allocator@UtagDummyCharCreateInfo@@@std@@@std@@@2@0@Z ; std::vector<tagDummyCharCreateInfo,std::allocator<tagDummyCharCreateInfo> >::erase
; Function compile flags: /Ogsp
; File c:\program files (x86)\microsoft visual studio 10.0\vc\include\vector
;	COMDAT ?erase@?$vector@UtagDummyCharCreateInfo@@V?$allocator@UtagDummyCharCreateInfo@@@std@@@std@@QAE?AV?$_Vector_iterator@V?$_Vector_val@UtagDummyCharCreateInfo@@V?$allocator@UtagDummyCharCreateInfo@@@std@@@std@@@2@V?$_Vector_const_iterator@V?$_Vector_val@UtagDummyCharCreateInfo@@V?$allocator@UtagDummyCharCreateInfo@@@std@@@std@@@2@0@Z
_TEXT	SEGMENT
$T547596 = -4						; size = 4
___$ReturnUdt$ = 8					; size = 4
__First_arg$ = 12					; size = 4
__Cat$547527 = 16					; size = 1
__Last_arg$ = 16					; size = 4
?erase@?$vector@UtagDummyCharCreateInfo@@V?$allocator@UtagDummyCharCreateInfo@@@std@@@std@@QAE?AV?$_Vector_iterator@V?$_Vector_val@UtagDummyCharCreateInfo@@V?$allocator@UtagDummyCharCreateInfo@@@std@@@std@@@2@V?$_Vector_const_iterator@V?$_Vector_val@UtagDummyCharCreateInfo@@V?$allocator@UtagDummyCharCreateInfo@@@std@@@std@@@2@0@Z PROC ; std::vector<tagDummyCharCreateInfo,std::allocator<tagDummyCharCreateInfo> >::erase, COMDAT
; _this$ = ecx

; 1190 : 		{	// erase [_First, _Last)

  00000	55		 push	 ebp
  00001	8b ec		 mov	 ebp, esp
  00003	51		 push	 ecx

; 1191 : 		iterator _First = _Make_iter(_First_arg);

  00004	8b 45 08	 mov	 eax, DWORD PTR ___$ReturnUdt$[ebp]
  00007	56		 push	 esi
  00008	8b f1		 mov	 esi, ecx
  0000a	8b 4d 0c	 mov	 ecx, DWORD PTR __First_arg$[ebp]
  0000d	89 08		 mov	 DWORD PTR [eax], ecx

; 1192 : 		iterator _Last = _Make_iter(_Last_arg);
; 1193 : 
; 1194 : 		if (_First != _Last)

  0000f	3b 4d 10	 cmp	 ecx, DWORD PTR __Last_arg$[ebp]
  00012	74 38		 je	 SHORT $LN1@erase

; 1195 : 			{	// worth doing, copy down over hole
; 1196 :  #if _ITERATOR_DEBUG_LEVEL == 2
; 1197 : 			if (_Last < _First || _VICONT(_First) != this
; 1198 : 				|| _VIPTR(_First) < this->_Myfirst
; 1199 : 				|| this->_Mylast < _VIPTR(_Last))
; 1200 : 				_DEBUG_ERROR("vector erase iterator outside range");
; 1201 : 			pointer _Ptr = _Move(_VIPTR(_Last), this->_Mylast,
; 1202 : 				_VIPTR(_First));
; 1203 : 			_Orphan_range(_VIPTR(_First), this->_Mylast);
; 1204 : 
; 1205 :  #else /* _ITERATOR_DEBUG_LEVEL == 2 */
; 1206 : 			pointer _Ptr = _Move(_VIPTR(_Last), this->_Mylast,
; 1207 : 				_VIPTR(_First));

  00014	8b 46 04	 mov	 eax, DWORD PTR [esi+4]
  00017	53		 push	 ebx
  00018	57		 push	 edi
  00019	ff 75 10	 push	 DWORD PTR __Cat$547527[ebp]
  0001c	51		 push	 ecx
  0001d	50		 push	 eax
  0001e	ff 75 10	 push	 DWORD PTR __Last_arg$[ebp]
  00021	e8 00 00 00 00	 call	 ??$_Move@PAUtagDummyCharCreateInfo@@PAU1@@std@@YAPAUtagDummyCharCreateInfo@@PAU1@00U_Nonscalar_ptr_iterator_tag@0@@Z ; std::_Move<tagDummyCharCreateInfo *,tagDummyCharCreateInfo *>

; 1208 :  #endif /* _ITERATOR_DEBUG_LEVEL == 2 */
; 1209 : 
; 1210 : 			_Destroy(_Ptr, this->_Mylast);

  00026	8b 7e 04	 mov	 edi, DWORD PTR [esi+4]
  00029	8b d8		 mov	 ebx, eax
  0002b	83 c4 10	 add	 esp, 16			; 00000010H
  0002e	89 5d fc	 mov	 DWORD PTR $T547596[ebp], ebx
  00031	3b df		 cmp	 ebx, edi
  00033	74 12		 je	 SHORT $LN36@erase
$LL55@erase:
  00035	8b 4d fc	 mov	 ecx, DWORD PTR $T547596[ebp]
  00038	ff 15 00 00 00
	00		 call	 DWORD PTR __imp_??1ioHashString@@QAE@XZ
  0003e	83 45 fc 24	 add	 DWORD PTR $T547596[ebp], 36 ; 00000024H
  00042	39 7d fc	 cmp	 DWORD PTR $T547596[ebp], edi
  00045	75 ee		 jne	 SHORT $LL55@erase
$LN36@erase:

; 1211 : 			this->_Mylast = _Ptr;

  00047	5f		 pop	 edi
  00048	89 5e 04	 mov	 DWORD PTR [esi+4], ebx
  0004b	5b		 pop	 ebx
$LN1@erase:

; 1212 : 			}
; 1213 : 		return (_First);

  0004c	8b 45 08	 mov	 eax, DWORD PTR ___$ReturnUdt$[ebp]
  0004f	5e		 pop	 esi

; 1214 : 		}

  00050	c9		 leave
  00051	c2 0c 00	 ret	 12			; 0000000cH
?erase@?$vector@UtagDummyCharCreateInfo@@V?$allocator@UtagDummyCharCreateInfo@@@std@@@std@@QAE?AV?$_Vector_iterator@V?$_Vector_val@UtagDummyCharCreateInfo@@V?$allocator@UtagDummyCharCreateInfo@@@std@@@std@@@2@V?$_Vector_const_iterator@V?$_Vector_val@UtagDummyCharCreateInfo@@V?$allocator@UtagDummyCharCreateInfo@@@std@@@std@@@2@0@Z ENDP ; std::vector<tagDummyCharCreateInfo,std::allocator<tagDummyCharCreateInfo> >::erase
_TEXT	ENDS
PUBLIC	?_Tidy@?$vector@UtagDummyCharCreateInfo@@V?$allocator@UtagDummyCharCreateInfo@@@std@@@std@@IAEXXZ ; std::vector<tagDummyCharCreateInfo,std::allocator<tagDummyCharCreateInfo> >::_Tidy
EXTRN	__imp_?_Orphan_all@_Container_base0@std@@QAEXXZ:PROC
; Function compile flags: /Ogsp
;	COMDAT ?_Tidy@?$vector@UtagDummyCharCreateInfo@@V?$allocator@UtagDummyCharCreateInfo@@@std@@@std@@IAEXXZ
_TEXT	SEGMENT
?_Tidy@?$vector@UtagDummyCharCreateInfo@@V?$allocator@UtagDummyCharCreateInfo@@@std@@@std@@IAEXXZ PROC ; std::vector<tagDummyCharCreateInfo,std::allocator<tagDummyCharCreateInfo> >::_Tidy, COMDAT
; _this$ = ecx

; 1301 : 		{	// free all storage

  00000	56		 push	 esi
  00001	8b f1		 mov	 esi, ecx

; 1302 : 		if (this->_Myfirst != 0)

  00003	83 3e 00	 cmp	 DWORD PTR [esi], 0
  00006	74 28		 je	 SHORT $LN27@Tidy

; 1303 : 			{	// something to free, destroy and deallocate it
; 1304 : 			this->_Orphan_all();

  00008	53		 push	 ebx
  00009	57		 push	 edi
  0000a	ff 15 00 00 00
	00		 call	 DWORD PTR __imp_?_Orphan_all@_Container_base0@std@@QAEXXZ

; 1305 : 			_Destroy(this->_Myfirst, this->_Mylast);

  00010	8b 5e 04	 mov	 ebx, DWORD PTR [esi+4]
  00013	8b 3e		 mov	 edi, DWORD PTR [esi]
  00015	eb 0b		 jmp	 SHORT $LN31@Tidy
$LL12@Tidy:
  00017	8b cf		 mov	 ecx, edi
  00019	ff 15 00 00 00
	00		 call	 DWORD PTR __imp_??1ioHashString@@QAE@XZ
  0001f	83 c7 24	 add	 edi, 36			; 00000024H
$LN31@Tidy:
  00022	3b fb		 cmp	 edi, ebx
  00024	75 f1		 jne	 SHORT $LL12@Tidy

; 1306 : 			this->_Alval.deallocate(this->_Myfirst,
; 1307 : 				this->_Myend - this->_Myfirst);

  00026	ff 36		 push	 DWORD PTR [esi]
  00028	e8 00 00 00 00	 call	 ??3@YAXPAX@Z		; operator delete
  0002d	59		 pop	 ecx
  0002e	5f		 pop	 edi
  0002f	5b		 pop	 ebx
$LN27@Tidy:

; 1308 : 			}
; 1309 : 		this->_Myfirst = 0;

  00030	33 c0		 xor	 eax, eax
  00032	89 06		 mov	 DWORD PTR [esi], eax

; 1310 : 		this->_Mylast = 0;

  00034	89 46 04	 mov	 DWORD PTR [esi+4], eax

; 1311 : 		this->_Myend = 0;

  00037	89 46 08	 mov	 DWORD PTR [esi+8], eax
  0003a	5e		 pop	 esi

; 1312 : 		}

  0003b	c3		 ret	 0
?_Tidy@?$vector@UtagDummyCharCreateInfo@@V?$allocator@UtagDummyCharCreateInfo@@@std@@@std@@IAEXXZ ENDP ; std::vector<tagDummyCharCreateInfo,std::allocator<tagDummyCharCreateInfo> >::_Tidy
_TEXT	ENDS
PUBLIC	?reserve@?$vector@UtagDummyCharCreateInfo@@V?$allocator@UtagDummyCharCreateInfo@@@std@@@std@@QAEXI@Z ; std::vector<tagDummyCharCreateInfo,std::allocator<tagDummyCharCreateInfo> >::reserve
;	COMDAT xdata$x
; File c:\program files (x86)\microsoft visual studio 10.0\vc\include\xmemory
xdata$x	SEGMENT
__catchsym$?reserve@?$vector@UtagDummyCharCreateInfo@@V?$allocator@UtagDummyCharCreateInfo@@@std@@@std@@QAEXI@Z$3 DD 040H
	DD	00H
	DD	00H
	DD	FLAT:__catch$?reserve@?$vector@UtagDummyCharCreateInfo@@V?$allocator@UtagDummyCharCreateInfo@@@std@@@std@@QAEXI@Z$0
__unwindtable$?reserve@?$vector@UtagDummyCharCreateInfo@@V?$allocator@UtagDummyCharCreateInfo@@@std@@@std@@QAEXI@Z DD 0ffffffffH
	DD	00H
	DD	0ffffffffH
	DD	00H
__tryblocktable$?reserve@?$vector@UtagDummyCharCreateInfo@@V?$allocator@UtagDummyCharCreateInfo@@@std@@@std@@QAEXI@Z DD 00H
	DD	00H
	DD	01H
	DD	01H
	DD	FLAT:__catchsym$?reserve@?$vector@UtagDummyCharCreateInfo@@V?$allocator@UtagDummyCharCreateInfo@@@std@@@std@@QAEXI@Z$3
__ehfuncinfo$?reserve@?$vector@UtagDummyCharCreateInfo@@V?$allocator@UtagDummyCharCreateInfo@@@std@@@std@@QAEXI@Z DD 019930522H
	DD	02H
	DD	FLAT:__unwindtable$?reserve@?$vector@UtagDummyCharCreateInfo@@V?$allocator@UtagDummyCharCreateInfo@@@std@@@std@@QAEXI@Z
	DD	01H
	DD	FLAT:__tryblocktable$?reserve@?$vector@UtagDummyCharCreateInfo@@V?$allocator@UtagDummyCharCreateInfo@@@std@@@std@@QAEXI@Z
	DD	2 DUP(00H)
	DD	00H
	DD	01H
; Function compile flags: /Ogsp
; File c:\program files (x86)\microsoft visual studio 10.0\vc\include\vector
xdata$x	ENDS
;	COMDAT ?reserve@?$vector@UtagDummyCharCreateInfo@@V?$allocator@UtagDummyCharCreateInfo@@@std@@@std@@QAEXI@Z
_TEXT	SEGMENT
__Ptr$542887 = -24					; size = 4
$T547878 = -20						; size = 4
__$EHRec$ = -16						; size = 16
__Count$ = 8						; size = 4
?reserve@?$vector@UtagDummyCharCreateInfo@@V?$allocator@UtagDummyCharCreateInfo@@@std@@@std@@QAEXI@Z PROC ; std::vector<tagDummyCharCreateInfo,std::allocator<tagDummyCharCreateInfo> >::reserve, COMDAT
; _this$ = ecx

; 746  : 		{	// determine new minimum length of allocated storage

  00000	6a 0c		 push	 12			; 0000000cH
  00002	b8 00 00 00 00	 mov	 eax, __ehhandler$?reserve@?$vector@UtagDummyCharCreateInfo@@V?$allocator@UtagDummyCharCreateInfo@@@std@@@std@@QAEXI@Z
  00007	e8 00 00 00 00	 call	 __EH_prolog3_catch
  0000c	8b f1		 mov	 esi, ecx

; 747  : 		if (max_size() < _Count)

  0000e	81 7d 08 c7 71
	1c 07		 cmp	 DWORD PTR __Count$[ebp], 119304647 ; 071c71c7H
  00015	76 0b		 jbe	 SHORT $LN5@reserve

; 748  : 			_Xlen();	// result too long

  00017	68 00 00 00 00	 push	 OFFSET ??_C@_0BD@OLBABOEK@vector?$DMT?$DO?5too?5long?$AA@
  0001c	ff 15 00 00 00
	00		 call	 DWORD PTR __imp_?_Xlength_error@std@@YAXPBD@Z
$LN62@reserve:
$LN5@reserve:

; 749  : 		else if (capacity() < _Count)

  00022	8b 46 08	 mov	 eax, DWORD PTR [esi+8]
  00025	2b 06		 sub	 eax, DWORD PTR [esi]
  00027	6a 24		 push	 36			; 00000024H
  00029	99		 cdq
  0002a	59		 pop	 ecx
  0002b	f7 f9		 idiv	 ecx
  0002d	3b 45 08	 cmp	 eax, DWORD PTR __Count$[ebp]
  00030	0f 83 81 00 00
	00		 jae	 $LN3@reserve

; 750  : 			{	// not enough room, reallocate
; 751  : 			pointer _Ptr = this->_Alval.allocate(_Count);

  00036	6a 00		 push	 0
  00038	ff 75 08	 push	 DWORD PTR __Count$[ebp]
  0003b	e8 00 00 00 00	 call	 ??$_Allocate@UtagDummyCharCreateInfo@@@std@@YAPAUtagDummyCharCreateInfo@@IPAU1@@Z ; std::_Allocate<tagDummyCharCreateInfo>

; 752  : 
; 753  : 			_TRY_BEGIN
; 754  : 			_Umove(this->_Myfirst, this->_Mylast, _Ptr);

  00040	8b 0e		 mov	 ecx, DWORD PTR [esi]
  00042	83 65 fc 00	 and	 DWORD PTR __$EHRec$[ebp+12], 0
  00046	8d 56 0c	 lea	 edx, DWORD PTR [esi+12]
  00049	52		 push	 edx
  0004a	89 45 e8	 mov	 DWORD PTR __Ptr$542887[ebp], eax
  0004d	ff 75 e8	 push	 DWORD PTR __Ptr$542887[ebp]
  00050	8b 46 04	 mov	 eax, DWORD PTR [esi+4]
  00053	50		 push	 eax
  00054	51		 push	 ecx
  00055	e8 00 00 00 00	 call	 ??$_Uninitialized_move@PAUtagDummyCharCreateInfo@@PAU1@V?$allocator@UtagDummyCharCreateInfo@@@std@@@std@@YAPAUtagDummyCharCreateInfo@@PAU1@00AAV?$allocator@UtagDummyCharCreateInfo@@@0@@Z ; std::_Uninitialized_move<tagDummyCharCreateInfo *,tagDummyCharCreateInfo *,std::allocator<tagDummyCharCreateInfo> >

; 758  : 			_CATCH_END
; 759  : 
; 760  : 			size_type _Size = size();

  0005a	8b 5e 04	 mov	 ebx, DWORD PTR [esi+4]
  0005d	8b 0e		 mov	 ecx, DWORD PTR [esi]
  0005f	83 c4 18	 add	 esp, 24			; 00000018H
  00062	8b c3		 mov	 eax, ebx
  00064	2b c1		 sub	 eax, ecx
  00066	6a 24		 push	 36			; 00000024H
  00068	99		 cdq
  00069	5f		 pop	 edi
  0006a	f7 ff		 idiv	 edi
  0006c	83 4d fc ff	 or	 DWORD PTR __$EHRec$[ebp+12], -1
  00070	8b f8		 mov	 edi, eax
  00072	85 c9		 test	 ecx, ecx
  00074	74 21		 je	 SHORT $LN54@reserve

; 761  : 			if (this->_Myfirst != 0)
; 762  : 				{	// destroy and deallocate old array
; 763  : 				_Destroy(this->_Myfirst, this->_Mylast);

  00076	89 4d ec	 mov	 DWORD PTR $T547878[ebp], ecx
  00079	3b cb		 cmp	 ecx, ebx
  0007b	74 12		 je	 SHORT $LN37@reserve
$LN39@reserve:
  0007d	8b 4d ec	 mov	 ecx, DWORD PTR $T547878[ebp]
  00080	ff 15 00 00 00
	00		 call	 DWORD PTR __imp_??1ioHashString@@QAE@XZ
  00086	83 45 ec 24	 add	 DWORD PTR $T547878[ebp], 36 ; 00000024H
  0008a	39 5d ec	 cmp	 DWORD PTR $T547878[ebp], ebx
  0008d	75 ee		 jne	 SHORT $LN39@reserve
$LN37@reserve:

; 764  : 				this->_Alval.deallocate(this->_Myfirst,
; 765  : 					this->_Myend - this->_Myfirst);

  0008f	ff 36		 push	 DWORD PTR [esi]
  00091	e8 00 00 00 00	 call	 ??3@YAXPAX@Z		; operator delete
  00096	59		 pop	 ecx
$LN54@reserve:

; 766  : 				}
; 767  : 
; 768  : 			this->_Orphan_all();

  00097	8b ce		 mov	 ecx, esi
  00099	ff 15 00 00 00
	00		 call	 DWORD PTR __imp_?_Orphan_all@_Container_base0@std@@QAEXXZ

; 769  : 			this->_Myend = _Ptr + _Count;
; 770  : 			this->_Mylast = _Ptr + _Size;

  0009f	6b ff 24	 imul	 edi, 36			; 00000024H
  000a2	8b 45 08	 mov	 eax, DWORD PTR __Count$[ebp]
  000a5	8b 4d e8	 mov	 ecx, DWORD PTR __Ptr$542887[ebp]
  000a8	6b c0 24	 imul	 eax, 36			; 00000024H
  000ab	03 c1		 add	 eax, ecx
  000ad	03 f9		 add	 edi, ecx
  000af	89 46 08	 mov	 DWORD PTR [esi+8], eax
  000b2	89 7e 04	 mov	 DWORD PTR [esi+4], edi

; 771  : 			this->_Myfirst = _Ptr;

  000b5	89 0e		 mov	 DWORD PTR [esi], ecx
$LN3@reserve:

; 772  : 			}
; 773  : 		}

  000b7	e8 00 00 00 00	 call	 __EH_epilog3
  000bc	c2 04 00	 ret	 4
__catch$?reserve@?$vector@UtagDummyCharCreateInfo@@V?$allocator@UtagDummyCharCreateInfo@@@std@@@std@@QAEXI@Z$0:

; 755  : 			_CATCH_ALL
; 756  : 			this->_Alval.deallocate(_Ptr, _Count);

  000bf	ff 75 e8	 push	 DWORD PTR __Ptr$542887[ebp]
  000c2	e8 00 00 00 00	 call	 ??3@YAXPAX@Z		; operator delete
  000c7	59		 pop	 ecx

; 757  : 			_RERAISE;

  000c8	6a 00		 push	 0
  000ca	6a 00		 push	 0
  000cc	e8 00 00 00 00	 call	 __CxxThrowException@8
$LN63@reserve:
$LN61@reserve:
  000d1	cc		 int	 3
_TEXT	ENDS
;	COMDAT text$x
text$x	SEGMENT
__ehhandler$?reserve@?$vector@UtagDummyCharCreateInfo@@V?$allocator@UtagDummyCharCreateInfo@@@std@@@std@@QAEXI@Z:
  00000	8b 54 24 08	 mov	 edx, DWORD PTR [esp+8]
  00004	8d 42 0c	 lea	 eax, DWORD PTR [edx+12]
  00007	8b 4a e4	 mov	 ecx, DWORD PTR [edx-28]
  0000a	33 c8		 xor	 ecx, eax
  0000c	e8 00 00 00 00	 call	 @__security_check_cookie@4
  00011	b8 00 00 00 00	 mov	 eax, OFFSET __ehfuncinfo$?reserve@?$vector@UtagDummyCharCreateInfo@@V?$allocator@UtagDummyCharCreateInfo@@@std@@@std@@QAEXI@Z
  00016	e9 00 00 00 00	 jmp	 ___CxxFrameHandler3
text$x	ENDS
?reserve@?$vector@UtagDummyCharCreateInfo@@V?$allocator@UtagDummyCharCreateInfo@@@std@@@std@@QAEXI@Z ENDP ; std::vector<tagDummyCharCreateInfo,std::allocator<tagDummyCharCreateInfo> >::reserve
PUBLIC	??$_Ucopy@V?$_Vector_const_iterator@V?$_Vector_val@UtagDummyCharLoadInfo@@V?$allocator@UtagDummyCharLoadInfo@@@std@@@std@@@std@@@?$vector@UtagDummyCharLoadInfo@@V?$allocator@UtagDummyCharLoadInfo@@@std@@@std@@IAEPAUtagDummyCharLoadInfo@@V?$_Vector_const_iterator@V?$_Vector_val@UtagDummyCharLoadInfo@@V?$allocator@UtagDummyCharLoadInfo@@@std@@@std@@@1@0PAU2@@Z ; std::vector<tagDummyCharLoadInfo,std::allocator<tagDummyCharLoadInfo> >::_Ucopy<std::_Vector_const_iterator<std::_Vector_val<tagDummyCharLoadInfo,std::allocator<tagDummyCharLoadInfo> > > >
; Function compile flags: /Ogsp
;	COMDAT ??$_Ucopy@V?$_Vector_const_iterator@V?$_Vector_val@UtagDummyCharLoadInfo@@V?$allocator@UtagDummyCharLoadInfo@@@std@@@std@@@std@@@?$vector@UtagDummyCharLoadInfo@@V?$allocator@UtagDummyCharLoadInfo@@@std@@@std@@IAEPAUtagDummyCharLoadInfo@@V?$_Vector_const_iterator@V?$_Vector_val@UtagDummyCharLoadInfo@@V?$allocator@UtagDummyCharLoadInfo@@@std@@@std@@@1@0PAU2@@Z
_TEXT	SEGMENT
__First$ = 8						; size = 4
__Last$ = 12						; size = 4
__Cat$547959 = 16					; size = 1
__Ptr$ = 16						; size = 4
??$_Ucopy@V?$_Vector_const_iterator@V?$_Vector_val@UtagDummyCharLoadInfo@@V?$allocator@UtagDummyCharLoadInfo@@@std@@@std@@@std@@@?$vector@UtagDummyCharLoadInfo@@V?$allocator@UtagDummyCharLoadInfo@@@std@@@std@@IAEPAUtagDummyCharLoadInfo@@V?$_Vector_const_iterator@V?$_Vector_val@UtagDummyCharLoadInfo@@V?$allocator@UtagDummyCharLoadInfo@@@std@@@std@@@1@0PAU2@@Z PROC ; std::vector<tagDummyCharLoadInfo,std::allocator<tagDummyCharLoadInfo> >::_Ucopy<std::_Vector_const_iterator<std::_Vector_val<tagDummyCharLoadInfo,std::allocator<tagDummyCharLoadInfo> > > >, COMDAT
; _this$ = ecx

; 1315 : 		pointer _Ucopy(_Iter _First, _Iter _Last, pointer _Ptr)

  00000	55		 push	 ebp
  00001	8b ec		 mov	 ebp, esp

; 1316 : 		{	// copy initializing [_First, _Last), using allocator
; 1317 : 		return (_Uninitialized_copy(_First, _Last,
; 1318 : 			_Ptr, this->_Alval));

  00003	ff 75 10	 push	 DWORD PTR __Cat$547959[ebp]
  00006	83 c1 0c	 add	 ecx, 12			; 0000000cH
  00009	51		 push	 ecx
  0000a	ff 75 10	 push	 DWORD PTR __Ptr$[ebp]
  0000d	ff 75 0c	 push	 DWORD PTR __Last$[ebp]
  00010	ff 75 08	 push	 DWORD PTR __First$[ebp]
  00013	e8 00 00 00 00	 call	 ??$_Uninit_copy@V?$_Vector_const_iterator@V?$_Vector_val@UtagDummyCharLoadInfo@@V?$allocator@UtagDummyCharLoadInfo@@@std@@@std@@@std@@PAUtagDummyCharLoadInfo@@V?$allocator@UtagDummyCharLoadInfo@@@2@@std@@YAPAUtagDummyCharLoadInfo@@V?$_Vector_const_iterator@V?$_Vector_val@UtagDummyCharLoadInfo@@V?$allocator@UtagDummyCharLoadInfo@@@std@@@std@@@0@0PAU1@AAV?$allocator@UtagDummyCharLoadInfo@@@0@U_Nonscalar_ptr_iterator_tag@0@@Z ; std::_Uninit_copy<std::_Vector_const_iterator<std::_Vector_val<tagDummyCharLoadInfo,std::allocator<tagDummyCharLoadInfo> > >,tagDummyCharLoadInfo *,std::allocator<tagDummyCharLoadInfo> >
  00018	83 c4 14	 add	 esp, 20			; 00000014H

; 1319 : 		}

  0001b	5d		 pop	 ebp
  0001c	c2 0c 00	 ret	 12			; 0000000cH
??$_Ucopy@V?$_Vector_const_iterator@V?$_Vector_val@UtagDummyCharLoadInfo@@V?$allocator@UtagDummyCharLoadInfo@@@std@@@std@@@std@@@?$vector@UtagDummyCharLoadInfo@@V?$allocator@UtagDummyCharLoadInfo@@@std@@@std@@IAEPAUtagDummyCharLoadInfo@@V?$_Vector_const_iterator@V?$_Vector_val@UtagDummyCharLoadInfo@@V?$allocator@UtagDummyCharLoadInfo@@@std@@@std@@@1@0PAU2@@Z ENDP ; std::vector<tagDummyCharLoadInfo,std::allocator<tagDummyCharLoadInfo> >::_Ucopy<std::_Vector_const_iterator<std::_Vector_val<tagDummyCharLoadInfo,std::allocator<tagDummyCharLoadInfo> > > >
_TEXT	ENDS
PUBLIC	?erase@?$vector@VioHashString@@V?$allocator@VioHashString@@@std@@@std@@QAE?AV?$_Vector_iterator@V?$_Vector_val@VioHashString@@V?$allocator@VioHashString@@@std@@@std@@@2@V?$_Vector_const_iterator@V?$_Vector_val@VioHashString@@V?$allocator@VioHashString@@@std@@@std@@@2@0@Z ; std::vector<ioHashString,std::allocator<ioHashString> >::erase
; Function compile flags: /Ogsp
;	COMDAT ?erase@?$vector@VioHashString@@V?$allocator@VioHashString@@@std@@@std@@QAE?AV?$_Vector_iterator@V?$_Vector_val@VioHashString@@V?$allocator@VioHashString@@@std@@@std@@@2@V?$_Vector_const_iterator@V?$_Vector_val@VioHashString@@V?$allocator@VioHashString@@@std@@@std@@@2@0@Z
_TEXT	SEGMENT
$T548093 = -4						; size = 4
___$ReturnUdt$ = 8					; size = 4
__First_arg$ = 12					; size = 4
__Cat$548038 = 16					; size = 1
__Last_arg$ = 16					; size = 4
?erase@?$vector@VioHashString@@V?$allocator@VioHashString@@@std@@@std@@QAE?AV?$_Vector_iterator@V?$_Vector_val@VioHashString@@V?$allocator@VioHashString@@@std@@@std@@@2@V?$_Vector_const_iterator@V?$_Vector_val@VioHashString@@V?$allocator@VioHashString@@@std@@@std@@@2@0@Z PROC ; std::vector<ioHashString,std::allocator<ioHashString> >::erase, COMDAT
; _this$ = ecx

; 1190 : 		{	// erase [_First, _Last)

  00000	55		 push	 ebp
  00001	8b ec		 mov	 ebp, esp
  00003	51		 push	 ecx

; 1191 : 		iterator _First = _Make_iter(_First_arg);

  00004	8b 45 08	 mov	 eax, DWORD PTR ___$ReturnUdt$[ebp]
  00007	56		 push	 esi
  00008	8b f1		 mov	 esi, ecx
  0000a	8b 4d 0c	 mov	 ecx, DWORD PTR __First_arg$[ebp]
  0000d	89 08		 mov	 DWORD PTR [eax], ecx

; 1192 : 		iterator _Last = _Make_iter(_Last_arg);
; 1193 : 
; 1194 : 		if (_First != _Last)

  0000f	3b 4d 10	 cmp	 ecx, DWORD PTR __Last_arg$[ebp]
  00012	74 38		 je	 SHORT $LN1@erase@2

; 1195 : 			{	// worth doing, copy down over hole
; 1196 :  #if _ITERATOR_DEBUG_LEVEL == 2
; 1197 : 			if (_Last < _First || _VICONT(_First) != this
; 1198 : 				|| _VIPTR(_First) < this->_Myfirst
; 1199 : 				|| this->_Mylast < _VIPTR(_Last))
; 1200 : 				_DEBUG_ERROR("vector erase iterator outside range");
; 1201 : 			pointer _Ptr = _Move(_VIPTR(_Last), this->_Mylast,
; 1202 : 				_VIPTR(_First));
; 1203 : 			_Orphan_range(_VIPTR(_First), this->_Mylast);
; 1204 : 
; 1205 :  #else /* _ITERATOR_DEBUG_LEVEL == 2 */
; 1206 : 			pointer _Ptr = _Move(_VIPTR(_Last), this->_Mylast,
; 1207 : 				_VIPTR(_First));

  00014	8b 46 04	 mov	 eax, DWORD PTR [esi+4]
  00017	53		 push	 ebx
  00018	57		 push	 edi
  00019	ff 75 10	 push	 DWORD PTR __Cat$548038[ebp]
  0001c	51		 push	 ecx
  0001d	50		 push	 eax
  0001e	ff 75 10	 push	 DWORD PTR __Last_arg$[ebp]
  00021	e8 00 00 00 00	 call	 ??$_Move@PAVioHashString@@PAV1@@std@@YAPAVioHashString@@PAV1@00U_Nonscalar_ptr_iterator_tag@0@@Z ; std::_Move<ioHashString *,ioHashString *>

; 1208 :  #endif /* _ITERATOR_DEBUG_LEVEL == 2 */
; 1209 : 
; 1210 : 			_Destroy(_Ptr, this->_Mylast);

  00026	8b 7e 04	 mov	 edi, DWORD PTR [esi+4]
  00029	8b d8		 mov	 ebx, eax
  0002b	83 c4 10	 add	 esp, 16			; 00000010H
  0002e	89 5d fc	 mov	 DWORD PTR $T548093[ebp], ebx
  00031	3b df		 cmp	 ebx, edi
  00033	74 12		 je	 SHORT $LN36@erase@2
$LL52@erase@2:
  00035	8b 4d fc	 mov	 ecx, DWORD PTR $T548093[ebp]
  00038	ff 15 00 00 00
	00		 call	 DWORD PTR __imp_??1ioHashString@@QAE@XZ
  0003e	83 45 fc 10	 add	 DWORD PTR $T548093[ebp], 16 ; 00000010H
  00042	39 7d fc	 cmp	 DWORD PTR $T548093[ebp], edi
  00045	75 ee		 jne	 SHORT $LL52@erase@2
$LN36@erase@2:

; 1211 : 			this->_Mylast = _Ptr;

  00047	5f		 pop	 edi
  00048	89 5e 04	 mov	 DWORD PTR [esi+4], ebx
  0004b	5b		 pop	 ebx
$LN1@erase@2:

; 1212 : 			}
; 1213 : 		return (_First);

  0004c	8b 45 08	 mov	 eax, DWORD PTR ___$ReturnUdt$[ebp]
  0004f	5e		 pop	 esi

; 1214 : 		}

  00050	c9		 leave
  00051	c2 0c 00	 ret	 12			; 0000000cH
?erase@?$vector@VioHashString@@V?$allocator@VioHashString@@@std@@@std@@QAE?AV?$_Vector_iterator@V?$_Vector_val@VioHashString@@V?$allocator@VioHashString@@@std@@@std@@@2@V?$_Vector_const_iterator@V?$_Vector_val@VioHashString@@V?$allocator@VioHashString@@@std@@@std@@@2@0@Z ENDP ; std::vector<ioHashString,std::allocator<ioHashString> >::erase
_TEXT	ENDS
PUBLIC	?_Tidy@?$vector@VioHashString@@V?$allocator@VioHashString@@@std@@@std@@IAEXXZ ; std::vector<ioHashString,std::allocator<ioHashString> >::_Tidy
; Function compile flags: /Ogsp
;	COMDAT ?_Tidy@?$vector@VioHashString@@V?$allocator@VioHashString@@@std@@@std@@IAEXXZ
_TEXT	SEGMENT
?_Tidy@?$vector@VioHashString@@V?$allocator@VioHashString@@@std@@@std@@IAEXXZ PROC ; std::vector<ioHashString,std::allocator<ioHashString> >::_Tidy, COMDAT
; _this$ = ecx

; 1301 : 		{	// free all storage

  00000	56		 push	 esi
  00001	8b f1		 mov	 esi, ecx

; 1302 : 		if (this->_Myfirst != 0)

  00003	83 3e 00	 cmp	 DWORD PTR [esi], 0
  00006	74 28		 je	 SHORT $LN24@Tidy@2

; 1303 : 			{	// something to free, destroy and deallocate it
; 1304 : 			this->_Orphan_all();

  00008	53		 push	 ebx
  00009	57		 push	 edi
  0000a	ff 15 00 00 00
	00		 call	 DWORD PTR __imp_?_Orphan_all@_Container_base0@std@@QAEXXZ

; 1305 : 			_Destroy(this->_Myfirst, this->_Mylast);

  00010	8b 5e 04	 mov	 ebx, DWORD PTR [esi+4]
  00013	8b 3e		 mov	 edi, DWORD PTR [esi]
  00015	eb 0b		 jmp	 SHORT $LN28@Tidy@2
$LL12@Tidy@2:
  00017	8b cf		 mov	 ecx, edi
  00019	ff 15 00 00 00
	00		 call	 DWORD PTR __imp_??1ioHashString@@QAE@XZ
  0001f	83 c7 10	 add	 edi, 16			; 00000010H
$LN28@Tidy@2:
  00022	3b fb		 cmp	 edi, ebx
  00024	75 f1		 jne	 SHORT $LL12@Tidy@2

; 1306 : 			this->_Alval.deallocate(this->_Myfirst,
; 1307 : 				this->_Myend - this->_Myfirst);

  00026	ff 36		 push	 DWORD PTR [esi]
  00028	e8 00 00 00 00	 call	 ??3@YAXPAX@Z		; operator delete
  0002d	59		 pop	 ecx
  0002e	5f		 pop	 edi
  0002f	5b		 pop	 ebx
$LN24@Tidy@2:

; 1308 : 			}
; 1309 : 		this->_Myfirst = 0;

  00030	33 c0		 xor	 eax, eax
  00032	89 06		 mov	 DWORD PTR [esi], eax

; 1310 : 		this->_Mylast = 0;

  00034	89 46 04	 mov	 DWORD PTR [esi+4], eax

; 1311 : 		this->_Myend = 0;

  00037	89 46 08	 mov	 DWORD PTR [esi+8], eax
  0003a	5e		 pop	 esi

; 1312 : 		}

  0003b	c3		 ret	 0
?_Tidy@?$vector@VioHashString@@V?$allocator@VioHashString@@@std@@@std@@IAEXXZ ENDP ; std::vector<ioHashString,std::allocator<ioHashString> >::_Tidy
_TEXT	ENDS
PUBLIC	?_Destroy@?$vector@UtagDummyCharLoadInfo@@V?$allocator@UtagDummyCharLoadInfo@@@std@@@std@@IAEXPAUtagDummyCharLoadInfo@@0@Z ; std::vector<tagDummyCharLoadInfo,std::allocator<tagDummyCharLoadInfo> >::_Destroy
; Function compile flags: /Ogsp
;	COMDAT ?_Destroy@?$vector@UtagDummyCharLoadInfo@@V?$allocator@UtagDummyCharLoadInfo@@@std@@@std@@IAEXPAUtagDummyCharLoadInfo@@0@Z
_TEXT	SEGMENT
__First$ = 8						; size = 4
__Last$ = 12						; size = 4
?_Destroy@?$vector@UtagDummyCharLoadInfo@@V?$allocator@UtagDummyCharLoadInfo@@@std@@@std@@IAEXPAUtagDummyCharLoadInfo@@0@Z PROC ; std::vector<tagDummyCharLoadInfo,std::allocator<tagDummyCharLoadInfo> >::_Destroy, COMDAT
; _this$ = ecx

; 1269 : 		{	// destroy [_First, _Last) using allocator

  00000	55		 push	 ebp
  00001	8b ec		 mov	 ebp, esp
  00003	56		 push	 esi

; 1270 : 		_Destroy_range(_First, _Last, this->_Alval);

  00004	8b 75 08	 mov	 esi, DWORD PTR __First$[ebp]
  00007	eb 0b		 jmp	 SHORT $LN26@Destroy@3
$LL9@Destroy@3:
  00009	8b ce		 mov	 ecx, esi
  0000b	ff 15 00 00 00
	00		 call	 DWORD PTR __imp_??1ioHashString@@QAE@XZ
  00011	83 c6 1c	 add	 esi, 28			; 0000001cH
$LN26@Destroy@3:
  00014	3b 75 0c	 cmp	 esi, DWORD PTR __Last$[ebp]
  00017	75 f0		 jne	 SHORT $LL9@Destroy@3
  00019	5e		 pop	 esi

; 1271 : 		}

  0001a	5d		 pop	 ebp
  0001b	c2 08 00	 ret	 8
?_Destroy@?$vector@UtagDummyCharLoadInfo@@V?$allocator@UtagDummyCharLoadInfo@@@std@@@std@@IAEXPAUtagDummyCharLoadInfo@@0@Z ENDP ; std::vector<tagDummyCharLoadInfo,std::allocator<tagDummyCharLoadInfo> >::_Destroy
_TEXT	ENDS
PUBLIC	??1?$vector@UtagDummyCharCreateInfo@@V?$allocator@UtagDummyCharCreateInfo@@@std@@@std@@QAE@XZ ; std::vector<tagDummyCharCreateInfo,std::allocator<tagDummyCharCreateInfo> >::~vector<tagDummyCharCreateInfo,std::allocator<tagDummyCharCreateInfo> >
; Function compile flags: /Ogsp
;	COMDAT ??1?$vector@UtagDummyCharCreateInfo@@V?$allocator@UtagDummyCharCreateInfo@@@std@@@std@@QAE@XZ
_TEXT	SEGMENT
??1?$vector@UtagDummyCharCreateInfo@@V?$allocator@UtagDummyCharCreateInfo@@@std@@@std@@QAE@XZ PROC ; std::vector<tagDummyCharCreateInfo,std::allocator<tagDummyCharCreateInfo> >::~vector<tagDummyCharCreateInfo,std::allocator<tagDummyCharCreateInfo> >, COMDAT
; _this$ = ecx

; 705  : 		_Tidy();

  00000	e9 00 00 00 00	 jmp	 ?_Tidy@?$vector@UtagDummyCharCreateInfo@@V?$allocator@UtagDummyCharCreateInfo@@@std@@@std@@IAEXXZ ; std::vector<tagDummyCharCreateInfo,std::allocator<tagDummyCharCreateInfo> >::_Tidy
??1?$vector@UtagDummyCharCreateInfo@@V?$allocator@UtagDummyCharCreateInfo@@@std@@@std@@QAE@XZ ENDP ; std::vector<tagDummyCharCreateInfo,std::allocator<tagDummyCharCreateInfo> >::~vector<tagDummyCharCreateInfo,std::allocator<tagDummyCharCreateInfo> >
_TEXT	ENDS
PUBLIC	?clear@?$vector@UtagDummyCharCreateInfo@@V?$allocator@UtagDummyCharCreateInfo@@@std@@@std@@QAEXXZ ; std::vector<tagDummyCharCreateInfo,std::allocator<tagDummyCharCreateInfo> >::clear
; Function compile flags: /Ogsp
;	COMDAT ?clear@?$vector@UtagDummyCharCreateInfo@@V?$allocator@UtagDummyCharCreateInfo@@@std@@@std@@QAEXXZ
_TEXT	SEGMENT
$T548350 = -4						; size = 4
?clear@?$vector@UtagDummyCharCreateInfo@@V?$allocator@UtagDummyCharCreateInfo@@@std@@@std@@QAEXXZ PROC ; std::vector<tagDummyCharCreateInfo,std::allocator<tagDummyCharCreateInfo> >::clear, COMDAT
; _this$ = ecx

; 1217 : 		{	// erase all

  00000	55		 push	 ebp
  00001	8b ec		 mov	 ebp, esp
  00003	51		 push	 ecx

; 1218 : 		erase(begin(), end());

  00004	8b 41 04	 mov	 eax, DWORD PTR [ecx+4]
  00007	8b 11		 mov	 edx, DWORD PTR [ecx]
  00009	50		 push	 eax
  0000a	52		 push	 edx
  0000b	8d 45 fc	 lea	 eax, DWORD PTR $T548350[ebp]
  0000e	50		 push	 eax
  0000f	e8 00 00 00 00	 call	 ?erase@?$vector@UtagDummyCharCreateInfo@@V?$allocator@UtagDummyCharCreateInfo@@@std@@@std@@QAE?AV?$_Vector_iterator@V?$_Vector_val@UtagDummyCharCreateInfo@@V?$allocator@UtagDummyCharCreateInfo@@@std@@@std@@@2@V?$_Vector_const_iterator@V?$_Vector_val@UtagDummyCharCreateInfo@@V?$allocator@UtagDummyCharCreateInfo@@@std@@@std@@@2@0@Z ; std::vector<tagDummyCharCreateInfo,std::allocator<tagDummyCharCreateInfo> >::erase

; 1219 : 		}

  00014	c9		 leave
  00015	c3		 ret	 0
?clear@?$vector@UtagDummyCharCreateInfo@@V?$allocator@UtagDummyCharCreateInfo@@@std@@@std@@QAEXXZ ENDP ; std::vector<tagDummyCharCreateInfo,std::allocator<tagDummyCharCreateInfo> >::clear
_TEXT	ENDS
PUBLIC	?_Reserve@?$vector@UtagDummyCharCreateInfo@@V?$allocator@UtagDummyCharCreateInfo@@@std@@@std@@IAEXI@Z ; std::vector<tagDummyCharCreateInfo,std::allocator<tagDummyCharCreateInfo> >::_Reserve
; Function compile flags: /Ogsp
;	COMDAT ?_Reserve@?$vector@UtagDummyCharCreateInfo@@V?$allocator@UtagDummyCharCreateInfo@@@std@@@std@@IAEXI@Z
_TEXT	SEGMENT
__Count$ = 8						; size = 4
?_Reserve@?$vector@UtagDummyCharCreateInfo@@V?$allocator@UtagDummyCharCreateInfo@@@std@@@std@@IAEXI@Z PROC ; std::vector<tagDummyCharCreateInfo,std::allocator<tagDummyCharCreateInfo> >::_Reserve, COMDAT
; _this$ = ecx

; 1290 : 		{	// ensure room for _Count new elements, grow exponentially

  00000	55		 push	 ebp
  00001	8b ec		 mov	 ebp, esp
  00003	56		 push	 esi
  00004	8b f1		 mov	 esi, ecx

; 1291 : 		size_type _Size = size();

  00006	8b 0e		 mov	 ecx, DWORD PTR [esi]
  00008	8b 46 04	 mov	 eax, DWORD PTR [esi+4]
  0000b	2b c1		 sub	 eax, ecx
  0000d	57		 push	 edi
  0000e	99		 cdq
  0000f	6a 24		 push	 36			; 00000024H
  00011	5f		 pop	 edi
  00012	f7 ff		 idiv	 edi
  00014	8b f8		 mov	 edi, eax

; 1292 : 		if (max_size() - _Count < _Size)

  00016	b8 c7 71 1c 07	 mov	 eax, 119304647		; 071c71c7H
  0001b	2b 45 08	 sub	 eax, DWORD PTR __Count$[ebp]
  0001e	3b c7		 cmp	 eax, edi
  00020	73 0b		 jae	 SHORT $LN4@Reserve

; 1293 : 			_Xlen();

  00022	68 00 00 00 00	 push	 OFFSET ??_C@_0BD@OLBABOEK@vector?$DMT?$DO?5too?5long?$AA@
  00027	ff 15 00 00 00
	00		 call	 DWORD PTR __imp_?_Xlength_error@std@@YAXPBD@Z
$LN21@Reserve:
$LN4@Reserve:

; 1294 : 		else if ((_Size += _Count) <= capacity())

  0002d	8b 46 08	 mov	 eax, DWORD PTR [esi+8]
  00030	2b c1		 sub	 eax, ecx
  00032	6a 24		 push	 36			; 00000024H
  00034	99		 cdq
  00035	59		 pop	 ecx
  00036	f7 f9		 idiv	 ecx
  00038	03 7d 08	 add	 edi, DWORD PTR __Count$[ebp]
  0003b	3b f8		 cmp	 edi, eax
  0003d	76 10		 jbe	 SHORT $LN1@Reserve

; 1295 : 			;
; 1296 : 		else
; 1297 : 			reserve(_Grow_to(_Size));

  0003f	57		 push	 edi
  00040	8b ce		 mov	 ecx, esi
  00042	e8 00 00 00 00	 call	 ?_Grow_to@?$vector@UtagDummyCharCreateInfo@@V?$allocator@UtagDummyCharCreateInfo@@@std@@@std@@IBEII@Z ; std::vector<tagDummyCharCreateInfo,std::allocator<tagDummyCharCreateInfo> >::_Grow_to
  00047	50		 push	 eax
  00048	8b ce		 mov	 ecx, esi
  0004a	e8 00 00 00 00	 call	 ?reserve@?$vector@UtagDummyCharCreateInfo@@V?$allocator@UtagDummyCharCreateInfo@@@std@@@std@@QAEXI@Z ; std::vector<tagDummyCharCreateInfo,std::allocator<tagDummyCharCreateInfo> >::reserve
$LN1@Reserve:
  0004f	5f		 pop	 edi
  00050	5e		 pop	 esi

; 1298 : 		}

  00051	5d		 pop	 ebp
  00052	c2 04 00	 ret	 4
$LN20@Reserve:
?_Reserve@?$vector@UtagDummyCharCreateInfo@@V?$allocator@UtagDummyCharCreateInfo@@@std@@@std@@IAEXI@Z ENDP ; std::vector<tagDummyCharCreateInfo,std::allocator<tagDummyCharCreateInfo> >::_Reserve
_TEXT	ENDS
PUBLIC	??0?$vector@VioHashString@@V?$allocator@VioHashString@@@std@@@std@@QAE@ABV01@@Z ; std::vector<ioHashString,std::allocator<ioHashString> >::vector<ioHashString,std::allocator<ioHashString> >
;	COMDAT xdata$x
; File c:\program files (x86)\microsoft visual studio 10.0\vc\include\xutility
xdata$x	SEGMENT
__catchsym$??0?$vector@VioHashString@@V?$allocator@VioHashString@@@std@@@std@@QAE@ABV01@@Z$2 DD 040H
	DD	00H
	DD	00H
	DD	FLAT:__catch$??0?$vector@VioHashString@@V?$allocator@VioHashString@@@std@@@std@@QAE@ABV01@@Z$0
__unwindtable$??0?$vector@VioHashString@@V?$allocator@VioHashString@@@std@@@std@@QAE@ABV01@@Z DD 0ffffffffH
	DD	00H
	DD	0ffffffffH
	DD	00H
__tryblocktable$??0?$vector@VioHashString@@V?$allocator@VioHashString@@@std@@@std@@QAE@ABV01@@Z DD 00H
	DD	00H
	DD	01H
	DD	01H
	DD	FLAT:__catchsym$??0?$vector@VioHashString@@V?$allocator@VioHashString@@@std@@@std@@QAE@ABV01@@Z$2
__ehfuncinfo$??0?$vector@VioHashString@@V?$allocator@VioHashString@@@std@@@std@@QAE@ABV01@@Z DD 019930522H
	DD	02H
	DD	FLAT:__unwindtable$??0?$vector@VioHashString@@V?$allocator@VioHashString@@@std@@@std@@QAE@ABV01@@Z
	DD	01H
	DD	FLAT:__tryblocktable$??0?$vector@VioHashString@@V?$allocator@VioHashString@@@std@@@std@@QAE@ABV01@@Z
	DD	2 DUP(00H)
	DD	00H
	DD	01H
; Function compile flags: /Ogsp
; File c:\program files (x86)\microsoft visual studio 10.0\vc\include\vector
xdata$x	ENDS
;	COMDAT ??0?$vector@VioHashString@@V?$allocator@VioHashString@@@std@@@std@@QAE@ABV01@@Z
_TEXT	SEGMENT
_this$ = -20						; size = 4
__$EHRec$ = -16						; size = 16
__Cat$548509 = 8					; size = 1
__Right$ = 8						; size = 4
??0?$vector@VioHashString@@V?$allocator@VioHashString@@@std@@@std@@QAE@ABV01@@Z PROC ; std::vector<ioHashString,std::allocator<ioHashString> >::vector<ioHashString,std::allocator<ioHashString> >, COMDAT
; _this$ = ecx

; 535  : 		{	// construct by copying _Right

  00000	6a 08		 push	 8
  00002	b8 00 00 00 00	 mov	 eax, __ehhandler$??0?$vector@VioHashString@@V?$allocator@VioHashString@@@std@@@std@@QAE@ABV01@@Z
  00007	e8 00 00 00 00	 call	 __EH_prolog3_catch
  0000c	8b f1		 mov	 esi, ecx
  0000e	89 75 ec	 mov	 DWORD PTR _this$[ebp], esi

; 536  : 		if (_Buy(_Right.size()))

  00011	8b 7d 08	 mov	 edi, DWORD PTR __Right$[ebp]
  00014	33 db		 xor	 ebx, ebx
  00016	89 1e		 mov	 DWORD PTR [esi], ebx
  00018	89 5e 04	 mov	 DWORD PTR [esi+4], ebx
  0001b	89 5e 08	 mov	 DWORD PTR [esi+8], ebx
  0001e	8b 47 04	 mov	 eax, DWORD PTR [edi+4]
  00021	2b 07		 sub	 eax, DWORD PTR [edi]
  00023	c1 f8 04	 sar	 eax, 4
  00026	50		 push	 eax
  00027	e8 00 00 00 00	 call	 ?_Buy@?$vector@VioHashString@@V?$allocator@VioHashString@@@std@@@std@@IAE_NI@Z ; std::vector<ioHashString,std::allocator<ioHashString> >::_Buy
  0002c	84 c0		 test	 al, al
  0002e	74 1f		 je	 SHORT $LN7@vector

; 537  : 			_TRY_BEGIN
; 538  : 			this->_Mylast = _Ucopy(_Right.begin(), _Right.end(),
; 539  : 				this->_Myfirst);

  00030	ff 75 08	 push	 DWORD PTR __Cat$548509[ebp]
  00033	8b 0e		 mov	 ecx, DWORD PTR [esi]
  00035	8b 47 04	 mov	 eax, DWORD PTR [edi+4]
  00038	8b 3f		 mov	 edi, DWORD PTR [edi]
  0003a	8d 56 0c	 lea	 edx, DWORD PTR [esi+12]
  0003d	52		 push	 edx
  0003e	51		 push	 ecx
  0003f	50		 push	 eax
  00040	57		 push	 edi
  00041	89 5d fc	 mov	 DWORD PTR __$EHRec$[ebp+12], ebx
  00044	e8 00 00 00 00	 call	 ??$_Uninit_copy@V?$_Vector_const_iterator@V?$_Vector_val@VioHashString@@V?$allocator@VioHashString@@@std@@@std@@@std@@PAVioHashString@@V?$allocator@VioHashString@@@2@@std@@YAPAVioHashString@@V?$_Vector_const_iterator@V?$_Vector_val@VioHashString@@V?$allocator@VioHashString@@@std@@@std@@@0@0PAV1@AAV?$allocator@VioHashString@@@0@U_Nonscalar_ptr_iterator_tag@0@@Z ; std::_Uninit_copy<std::_Vector_const_iterator<std::_Vector_val<ioHashString,std::allocator<ioHashString> > >,ioHashString *,std::allocator<ioHashString> >
  00049	83 c4 14	 add	 esp, 20			; 00000014H
  0004c	89 46 04	 mov	 DWORD PTR [esi+4], eax
$LN7@vector:

; 543  : 			_CATCH_END
; 544  : 		}

  0004f	8b c6		 mov	 eax, esi
  00051	e8 00 00 00 00	 call	 __EH_epilog3
  00056	c2 04 00	 ret	 4
__catch$??0?$vector@VioHashString@@V?$allocator@VioHashString@@@std@@@std@@QAE@ABV01@@Z$0:

; 540  : 			_CATCH_ALL
; 541  : 			_Tidy();

  00059	8b 4d ec	 mov	 ecx, DWORD PTR _this$[ebp]
  0005c	e8 00 00 00 00	 call	 ?_Tidy@?$vector@VioHashString@@V?$allocator@VioHashString@@@std@@@std@@IAEXXZ ; std::vector<ioHashString,std::allocator<ioHashString> >::_Tidy

; 542  : 			_RERAISE;

  00061	33 db		 xor	 ebx, ebx
  00063	53		 push	 ebx
  00064	53		 push	 ebx
  00065	e8 00 00 00 00	 call	 __CxxThrowException@8
$LN38@vector:
$LN37@vector:
  0006a	cc		 int	 3
_TEXT	ENDS
;	COMDAT text$x
text$x	SEGMENT
__ehhandler$??0?$vector@VioHashString@@V?$allocator@VioHashString@@@std@@@std@@QAE@ABV01@@Z:
  00000	8b 54 24 08	 mov	 edx, DWORD PTR [esp+8]
  00004	8d 42 0c	 lea	 eax, DWORD PTR [edx+12]
  00007	8b 4a e8	 mov	 ecx, DWORD PTR [edx-24]
  0000a	33 c8		 xor	 ecx, eax
  0000c	e8 00 00 00 00	 call	 @__security_check_cookie@4
  00011	b8 00 00 00 00	 mov	 eax, OFFSET __ehfuncinfo$??0?$vector@VioHashString@@V?$allocator@VioHashString@@@std@@@std@@QAE@ABV01@@Z
  00016	e9 00 00 00 00	 jmp	 ___CxxFrameHandler3
text$x	ENDS
??0?$vector@VioHashString@@V?$allocator@VioHashString@@@std@@@std@@QAE@ABV01@@Z ENDP ; std::vector<ioHashString,std::allocator<ioHashString> >::vector<ioHashString,std::allocator<ioHashString> >
PUBLIC	??1?$vector@VioHashString@@V?$allocator@VioHashString@@@std@@@std@@QAE@XZ ; std::vector<ioHashString,std::allocator<ioHashString> >::~vector<ioHashString,std::allocator<ioHashString> >
; Function compile flags: /Ogsp
;	COMDAT ??1?$vector@VioHashString@@V?$allocator@VioHashString@@@std@@@std@@QAE@XZ
_TEXT	SEGMENT
??1?$vector@VioHashString@@V?$allocator@VioHashString@@@std@@@std@@QAE@XZ PROC ; std::vector<ioHashString,std::allocator<ioHashString> >::~vector<ioHashString,std::allocator<ioHashString> >, COMDAT
; _this$ = ecx

; 705  : 		_Tidy();

  00000	e9 00 00 00 00	 jmp	 ?_Tidy@?$vector@VioHashString@@V?$allocator@VioHashString@@@std@@@std@@IAEXXZ ; std::vector<ioHashString,std::allocator<ioHashString> >::_Tidy
??1?$vector@VioHashString@@V?$allocator@VioHashString@@@std@@@std@@QAE@XZ ENDP ; std::vector<ioHashString,std::allocator<ioHashString> >::~vector<ioHashString,std::allocator<ioHashString> >
_TEXT	ENDS
PUBLIC	?clear@?$vector@VioHashString@@V?$allocator@VioHashString@@@std@@@std@@QAEXXZ ; std::vector<ioHashString,std::allocator<ioHashString> >::clear
; Function compile flags: /Ogsp
;	COMDAT ?clear@?$vector@VioHashString@@V?$allocator@VioHashString@@@std@@@std@@QAEXXZ
_TEXT	SEGMENT
$T548539 = -4						; size = 4
?clear@?$vector@VioHashString@@V?$allocator@VioHashString@@@std@@@std@@QAEXXZ PROC ; std::vector<ioHashString,std::allocator<ioHashString> >::clear, COMDAT
; _this$ = ecx

; 1217 : 		{	// erase all

  00000	55		 push	 ebp
  00001	8b ec		 mov	 ebp, esp
  00003	51		 push	 ecx

; 1218 : 		erase(begin(), end());

  00004	8b 41 04	 mov	 eax, DWORD PTR [ecx+4]
  00007	8b 11		 mov	 edx, DWORD PTR [ecx]
  00009	50		 push	 eax
  0000a	52		 push	 edx
  0000b	8d 45 fc	 lea	 eax, DWORD PTR $T548539[ebp]
  0000e	50		 push	 eax
  0000f	e8 00 00 00 00	 call	 ?erase@?$vector@VioHashString@@V?$allocator@VioHashString@@@std@@@std@@QAE?AV?$_Vector_iterator@V?$_Vector_val@VioHashString@@V?$allocator@VioHashString@@@std@@@std@@@2@V?$_Vector_const_iterator@V?$_Vector_val@VioHashString@@V?$allocator@VioHashString@@@std@@@std@@@2@0@Z ; std::vector<ioHashString,std::allocator<ioHashString> >::erase

; 1219 : 		}

  00014	c9		 leave
  00015	c3		 ret	 0
?clear@?$vector@VioHashString@@V?$allocator@VioHashString@@@std@@@std@@QAEXXZ ENDP ; std::vector<ioHashString,std::allocator<ioHashString> >::clear
_TEXT	ENDS
PUBLIC	?erase@?$vector@UtagDummyCharLoadInfo@@V?$allocator@UtagDummyCharLoadInfo@@@std@@@std@@QAE?AV?$_Vector_iterator@V?$_Vector_val@UtagDummyCharLoadInfo@@V?$allocator@UtagDummyCharLoadInfo@@@std@@@std@@@2@V?$_Vector_const_iterator@V?$_Vector_val@UtagDummyCharLoadInfo@@V?$allocator@UtagDummyCharLoadInfo@@@std@@@std@@@2@0@Z ; std::vector<tagDummyCharLoadInfo,std::allocator<tagDummyCharLoadInfo> >::erase
; Function compile flags: /Ogsp
;	COMDAT ?erase@?$vector@UtagDummyCharLoadInfo@@V?$allocator@UtagDummyCharLoadInfo@@@std@@@std@@QAE?AV?$_Vector_iterator@V?$_Vector_val@UtagDummyCharLoadInfo@@V?$allocator@UtagDummyCharLoadInfo@@@std@@@std@@@2@V?$_Vector_const_iterator@V?$_Vector_val@UtagDummyCharLoadInfo@@V?$allocator@UtagDummyCharLoadInfo@@@std@@@std@@@2@0@Z
_TEXT	SEGMENT
$T548734 = -4						; size = 4
___$ReturnUdt$ = 8					; size = 4
__First_arg$ = 12					; size = 4
__Cat$548665 = 16					; size = 1
__Last_arg$ = 16					; size = 4
?erase@?$vector@UtagDummyCharLoadInfo@@V?$allocator@UtagDummyCharLoadInfo@@@std@@@std@@QAE?AV?$_Vector_iterator@V?$_Vector_val@UtagDummyCharLoadInfo@@V?$allocator@UtagDummyCharLoadInfo@@@std@@@std@@@2@V?$_Vector_const_iterator@V?$_Vector_val@UtagDummyCharLoadInfo@@V?$allocator@UtagDummyCharLoadInfo@@@std@@@std@@@2@0@Z PROC ; std::vector<tagDummyCharLoadInfo,std::allocator<tagDummyCharLoadInfo> >::erase, COMDAT
; _this$ = ecx

; 1190 : 		{	// erase [_First, _Last)

  00000	55		 push	 ebp
  00001	8b ec		 mov	 ebp, esp
  00003	51		 push	 ecx

; 1191 : 		iterator _First = _Make_iter(_First_arg);

  00004	8b 45 08	 mov	 eax, DWORD PTR ___$ReturnUdt$[ebp]
  00007	56		 push	 esi
  00008	8b f1		 mov	 esi, ecx
  0000a	8b 4d 0c	 mov	 ecx, DWORD PTR __First_arg$[ebp]
  0000d	89 08		 mov	 DWORD PTR [eax], ecx

; 1192 : 		iterator _Last = _Make_iter(_Last_arg);
; 1193 : 
; 1194 : 		if (_First != _Last)

  0000f	3b 4d 10	 cmp	 ecx, DWORD PTR __Last_arg$[ebp]
  00012	74 38		 je	 SHORT $LN1@erase@3

; 1195 : 			{	// worth doing, copy down over hole
; 1196 :  #if _ITERATOR_DEBUG_LEVEL == 2
; 1197 : 			if (_Last < _First || _VICONT(_First) != this
; 1198 : 				|| _VIPTR(_First) < this->_Myfirst
; 1199 : 				|| this->_Mylast < _VIPTR(_Last))
; 1200 : 				_DEBUG_ERROR("vector erase iterator outside range");
; 1201 : 			pointer _Ptr = _Move(_VIPTR(_Last), this->_Mylast,
; 1202 : 				_VIPTR(_First));
; 1203 : 			_Orphan_range(_VIPTR(_First), this->_Mylast);
; 1204 : 
; 1205 :  #else /* _ITERATOR_DEBUG_LEVEL == 2 */
; 1206 : 			pointer _Ptr = _Move(_VIPTR(_Last), this->_Mylast,
; 1207 : 				_VIPTR(_First));

  00014	8b 46 04	 mov	 eax, DWORD PTR [esi+4]
  00017	53		 push	 ebx
  00018	57		 push	 edi
  00019	ff 75 10	 push	 DWORD PTR __Cat$548665[ebp]
  0001c	51		 push	 ecx
  0001d	50		 push	 eax
  0001e	ff 75 10	 push	 DWORD PTR __Last_arg$[ebp]
  00021	e8 00 00 00 00	 call	 ??$_Move@PAUtagDummyCharLoadInfo@@PAU1@@std@@YAPAUtagDummyCharLoadInfo@@PAU1@00U_Nonscalar_ptr_iterator_tag@0@@Z ; std::_Move<tagDummyCharLoadInfo *,tagDummyCharLoadInfo *>

; 1208 :  #endif /* _ITERATOR_DEBUG_LEVEL == 2 */
; 1209 : 
; 1210 : 			_Destroy(_Ptr, this->_Mylast);

  00026	8b 7e 04	 mov	 edi, DWORD PTR [esi+4]
  00029	8b d8		 mov	 ebx, eax
  0002b	83 c4 10	 add	 esp, 16			; 00000010H
  0002e	89 5d fc	 mov	 DWORD PTR $T548734[ebp], ebx
  00031	3b df		 cmp	 ebx, edi
  00033	74 12		 je	 SHORT $LN36@erase@3
$LL55@erase@3:
  00035	8b 4d fc	 mov	 ecx, DWORD PTR $T548734[ebp]
  00038	ff 15 00 00 00
	00		 call	 DWORD PTR __imp_??1ioHashString@@QAE@XZ
  0003e	83 45 fc 1c	 add	 DWORD PTR $T548734[ebp], 28 ; 0000001cH
  00042	39 7d fc	 cmp	 DWORD PTR $T548734[ebp], edi
  00045	75 ee		 jne	 SHORT $LL55@erase@3
$LN36@erase@3:

; 1211 : 			this->_Mylast = _Ptr;

  00047	5f		 pop	 edi
  00048	89 5e 04	 mov	 DWORD PTR [esi+4], ebx
  0004b	5b		 pop	 ebx
$LN1@erase@3:

; 1212 : 			}
; 1213 : 		return (_First);

  0004c	8b 45 08	 mov	 eax, DWORD PTR ___$ReturnUdt$[ebp]
  0004f	5e		 pop	 esi

; 1214 : 		}

  00050	c9		 leave
  00051	c2 0c 00	 ret	 12			; 0000000cH
?erase@?$vector@UtagDummyCharLoadInfo@@V?$allocator@UtagDummyCharLoadInfo@@@std@@@std@@QAE?AV?$_Vector_iterator@V?$_Vector_val@UtagDummyCharLoadInfo@@V?$allocator@UtagDummyCharLoadInfo@@@std@@@std@@@2@V?$_Vector_const_iterator@V?$_Vector_val@UtagDummyCharLoadInfo@@V?$allocator@UtagDummyCharLoadInfo@@@std@@@std@@@2@0@Z ENDP ; std::vector<tagDummyCharLoadInfo,std::allocator<tagDummyCharLoadInfo> >::erase
_TEXT	ENDS
PUBLIC	?_Tidy@?$vector@UtagDummyCharLoadInfo@@V?$allocator@UtagDummyCharLoadInfo@@@std@@@std@@IAEXXZ ; std::vector<tagDummyCharLoadInfo,std::allocator<tagDummyCharLoadInfo> >::_Tidy
; Function compile flags: /Ogsp
;	COMDAT ?_Tidy@?$vector@UtagDummyCharLoadInfo@@V?$allocator@UtagDummyCharLoadInfo@@@std@@@std@@IAEXXZ
_TEXT	SEGMENT
?_Tidy@?$vector@UtagDummyCharLoadInfo@@V?$allocator@UtagDummyCharLoadInfo@@@std@@@std@@IAEXXZ PROC ; std::vector<tagDummyCharLoadInfo,std::allocator<tagDummyCharLoadInfo> >::_Tidy, COMDAT
; _this$ = ecx

; 1301 : 		{	// free all storage

  00000	56		 push	 esi
  00001	8b f1		 mov	 esi, ecx

; 1302 : 		if (this->_Myfirst != 0)

  00003	83 3e 00	 cmp	 DWORD PTR [esi], 0
  00006	74 28		 je	 SHORT $LN27@Tidy@3

; 1303 : 			{	// something to free, destroy and deallocate it
; 1304 : 			this->_Orphan_all();

  00008	53		 push	 ebx
  00009	57		 push	 edi
  0000a	ff 15 00 00 00
	00		 call	 DWORD PTR __imp_?_Orphan_all@_Container_base0@std@@QAEXXZ

; 1305 : 			_Destroy(this->_Myfirst, this->_Mylast);

  00010	8b 5e 04	 mov	 ebx, DWORD PTR [esi+4]
  00013	8b 3e		 mov	 edi, DWORD PTR [esi]
  00015	eb 0b		 jmp	 SHORT $LN31@Tidy@3
$LL12@Tidy@3:
  00017	8b cf		 mov	 ecx, edi
  00019	ff 15 00 00 00
	00		 call	 DWORD PTR __imp_??1ioHashString@@QAE@XZ
  0001f	83 c7 1c	 add	 edi, 28			; 0000001cH
$LN31@Tidy@3:
  00022	3b fb		 cmp	 edi, ebx
  00024	75 f1		 jne	 SHORT $LL12@Tidy@3

; 1306 : 			this->_Alval.deallocate(this->_Myfirst,
; 1307 : 				this->_Myend - this->_Myfirst);

  00026	ff 36		 push	 DWORD PTR [esi]
  00028	e8 00 00 00 00	 call	 ??3@YAXPAX@Z		; operator delete
  0002d	59		 pop	 ecx
  0002e	5f		 pop	 edi
  0002f	5b		 pop	 ebx
$LN27@Tidy@3:

; 1308 : 			}
; 1309 : 		this->_Myfirst = 0;

  00030	33 c0		 xor	 eax, eax
  00032	89 06		 mov	 DWORD PTR [esi], eax

; 1310 : 		this->_Mylast = 0;

  00034	89 46 04	 mov	 DWORD PTR [esi+4], eax

; 1311 : 		this->_Myend = 0;

  00037	89 46 08	 mov	 DWORD PTR [esi+8], eax
  0003a	5e		 pop	 esi

; 1312 : 		}

  0003b	c3		 ret	 0
?_Tidy@?$vector@UtagDummyCharLoadInfo@@V?$allocator@UtagDummyCharLoadInfo@@@std@@@std@@IAEXXZ ENDP ; std::vector<tagDummyCharLoadInfo,std::allocator<tagDummyCharLoadInfo> >::_Tidy
_TEXT	ENDS
PUBLIC	??0?$vector@UtagDummyCharLoadInfo@@V?$allocator@UtagDummyCharLoadInfo@@@std@@@std@@QAE@ABV01@@Z ; std::vector<tagDummyCharLoadInfo,std::allocator<tagDummyCharLoadInfo> >::vector<tagDummyCharLoadInfo,std::allocator<tagDummyCharLoadInfo> >
;	COMDAT xdata$x
; File c:\program files (x86)\microsoft visual studio 10.0\vc\include\xutility
xdata$x	SEGMENT
__catchsym$??0?$vector@UtagDummyCharLoadInfo@@V?$allocator@UtagDummyCharLoadInfo@@@std@@@std@@QAE@ABV01@@Z$2 DD 040H
	DD	00H
	DD	00H
	DD	FLAT:__catch$??0?$vector@UtagDummyCharLoadInfo@@V?$allocator@UtagDummyCharLoadInfo@@@std@@@std@@QAE@ABV01@@Z$0
__unwindtable$??0?$vector@UtagDummyCharLoadInfo@@V?$allocator@UtagDummyCharLoadInfo@@@std@@@std@@QAE@ABV01@@Z DD 0ffffffffH
	DD	00H
	DD	0ffffffffH
	DD	00H
__tryblocktable$??0?$vector@UtagDummyCharLoadInfo@@V?$allocator@UtagDummyCharLoadInfo@@@std@@@std@@QAE@ABV01@@Z DD 00H
	DD	00H
	DD	01H
	DD	01H
	DD	FLAT:__catchsym$??0?$vector@UtagDummyCharLoadInfo@@V?$allocator@UtagDummyCharLoadInfo@@@std@@@std@@QAE@ABV01@@Z$2
__ehfuncinfo$??0?$vector@UtagDummyCharLoadInfo@@V?$allocator@UtagDummyCharLoadInfo@@@std@@@std@@QAE@ABV01@@Z DD 019930522H
	DD	02H
	DD	FLAT:__unwindtable$??0?$vector@UtagDummyCharLoadInfo@@V?$allocator@UtagDummyCharLoadInfo@@@std@@@std@@QAE@ABV01@@Z
	DD	01H
	DD	FLAT:__tryblocktable$??0?$vector@UtagDummyCharLoadInfo@@V?$allocator@UtagDummyCharLoadInfo@@@std@@@std@@QAE@ABV01@@Z
	DD	2 DUP(00H)
	DD	00H
	DD	01H
; Function compile flags: /Ogsp
; File c:\program files (x86)\microsoft visual studio 10.0\vc\include\vector
xdata$x	ENDS
;	COMDAT ??0?$vector@UtagDummyCharLoadInfo@@V?$allocator@UtagDummyCharLoadInfo@@@std@@@std@@QAE@ABV01@@Z
_TEXT	SEGMENT
_this$ = -20						; size = 4
__$EHRec$ = -16						; size = 16
__Cat$548987 = 8					; size = 1
__Right$ = 8						; size = 4
??0?$vector@UtagDummyCharLoadInfo@@V?$allocator@UtagDummyCharLoadInfo@@@std@@@std@@QAE@ABV01@@Z PROC ; std::vector<tagDummyCharLoadInfo,std::allocator<tagDummyCharLoadInfo> >::vector<tagDummyCharLoadInfo,std::allocator<tagDummyCharLoadInfo> >, COMDAT
; _this$ = ecx

; 535  : 		{	// construct by copying _Right

  00000	6a 08		 push	 8
  00002	b8 00 00 00 00	 mov	 eax, __ehhandler$??0?$vector@UtagDummyCharLoadInfo@@V?$allocator@UtagDummyCharLoadInfo@@@std@@@std@@QAE@ABV01@@Z
  00007	e8 00 00 00 00	 call	 __EH_prolog3_catch
  0000c	8b f1		 mov	 esi, ecx
  0000e	89 75 ec	 mov	 DWORD PTR _this$[ebp], esi

; 536  : 		if (_Buy(_Right.size()))

  00011	8b 7d 08	 mov	 edi, DWORD PTR __Right$[ebp]
  00014	33 db		 xor	 ebx, ebx
  00016	89 1e		 mov	 DWORD PTR [esi], ebx
  00018	89 5e 04	 mov	 DWORD PTR [esi+4], ebx
  0001b	89 5e 08	 mov	 DWORD PTR [esi+8], ebx
  0001e	8b 47 04	 mov	 eax, DWORD PTR [edi+4]
  00021	2b 07		 sub	 eax, DWORD PTR [edi]
  00023	6a 1c		 push	 28			; 0000001cH
  00025	59		 pop	 ecx
  00026	99		 cdq
  00027	f7 f9		 idiv	 ecx
  00029	8b ce		 mov	 ecx, esi
  0002b	50		 push	 eax
  0002c	e8 00 00 00 00	 call	 ?_Buy@?$vector@UtagDummyCharLoadInfo@@V?$allocator@UtagDummyCharLoadInfo@@@std@@@std@@IAE_NI@Z ; std::vector<tagDummyCharLoadInfo,std::allocator<tagDummyCharLoadInfo> >::_Buy
  00031	84 c0		 test	 al, al
  00033	74 1f		 je	 SHORT $LN7@vector@2

; 537  : 			_TRY_BEGIN
; 538  : 			this->_Mylast = _Ucopy(_Right.begin(), _Right.end(),
; 539  : 				this->_Myfirst);

  00035	ff 75 08	 push	 DWORD PTR __Cat$548987[ebp]
  00038	8b 0e		 mov	 ecx, DWORD PTR [esi]
  0003a	8b 47 04	 mov	 eax, DWORD PTR [edi+4]
  0003d	8b 3f		 mov	 edi, DWORD PTR [edi]
  0003f	8d 56 0c	 lea	 edx, DWORD PTR [esi+12]
  00042	52		 push	 edx
  00043	51		 push	 ecx
  00044	50		 push	 eax
  00045	57		 push	 edi
  00046	89 5d fc	 mov	 DWORD PTR __$EHRec$[ebp+12], ebx
  00049	e8 00 00 00 00	 call	 ??$_Uninit_copy@V?$_Vector_const_iterator@V?$_Vector_val@UtagDummyCharLoadInfo@@V?$allocator@UtagDummyCharLoadInfo@@@std@@@std@@@std@@PAUtagDummyCharLoadInfo@@V?$allocator@UtagDummyCharLoadInfo@@@2@@std@@YAPAUtagDummyCharLoadInfo@@V?$_Vector_const_iterator@V?$_Vector_val@UtagDummyCharLoadInfo@@V?$allocator@UtagDummyCharLoadInfo@@@std@@@std@@@0@0PAU1@AAV?$allocator@UtagDummyCharLoadInfo@@@0@U_Nonscalar_ptr_iterator_tag@0@@Z ; std::_Uninit_copy<std::_Vector_const_iterator<std::_Vector_val<tagDummyCharLoadInfo,std::allocator<tagDummyCharLoadInfo> > >,tagDummyCharLoadInfo *,std::allocator<tagDummyCharLoadInfo> >
  0004e	83 c4 14	 add	 esp, 20			; 00000014H
  00051	89 46 04	 mov	 DWORD PTR [esi+4], eax
$LN7@vector@2:

; 543  : 			_CATCH_END
; 544  : 		}

  00054	8b c6		 mov	 eax, esi
  00056	e8 00 00 00 00	 call	 __EH_epilog3
  0005b	c2 04 00	 ret	 4
__catch$??0?$vector@UtagDummyCharLoadInfo@@V?$allocator@UtagDummyCharLoadInfo@@@std@@@std@@QAE@ABV01@@Z$0:

; 540  : 			_CATCH_ALL
; 541  : 			_Tidy();

  0005e	8b 4d ec	 mov	 ecx, DWORD PTR _this$[ebp]
  00061	e8 00 00 00 00	 call	 ?_Tidy@?$vector@UtagDummyCharLoadInfo@@V?$allocator@UtagDummyCharLoadInfo@@@std@@@std@@IAEXXZ ; std::vector<tagDummyCharLoadInfo,std::allocator<tagDummyCharLoadInfo> >::_Tidy

; 542  : 			_RERAISE;

  00066	33 db		 xor	 ebx, ebx
  00068	53		 push	 ebx
  00069	53		 push	 ebx
  0006a	e8 00 00 00 00	 call	 __CxxThrowException@8
$LN38@vector@2:
$LN37@vector@2:
  0006f	cc		 int	 3
_TEXT	ENDS
;	COMDAT text$x
text$x	SEGMENT
__ehhandler$??0?$vector@UtagDummyCharLoadInfo@@V?$allocator@UtagDummyCharLoadInfo@@@std@@@std@@QAE@ABV01@@Z:
  00000	8b 54 24 08	 mov	 edx, DWORD PTR [esp+8]
  00004	8d 42 0c	 lea	 eax, DWORD PTR [edx+12]
  00007	8b 4a e8	 mov	 ecx, DWORD PTR [edx-24]
  0000a	33 c8		 xor	 ecx, eax
  0000c	e8 00 00 00 00	 call	 @__security_check_cookie@4
  00011	b8 00 00 00 00	 mov	 eax, OFFSET __ehfuncinfo$??0?$vector@UtagDummyCharLoadInfo@@V?$allocator@UtagDummyCharLoadInfo@@@std@@@std@@QAE@ABV01@@Z
  00016	e9 00 00 00 00	 jmp	 ___CxxFrameHandler3
text$x	ENDS
??0?$vector@UtagDummyCharLoadInfo@@V?$allocator@UtagDummyCharLoadInfo@@@std@@@std@@QAE@ABV01@@Z ENDP ; std::vector<tagDummyCharLoadInfo,std::allocator<tagDummyCharLoadInfo> >::vector<tagDummyCharLoadInfo,std::allocator<tagDummyCharLoadInfo> >
PUBLIC	?push_back@?$vector@UtagDummyCharCreateInfo@@V?$allocator@UtagDummyCharCreateInfo@@@std@@@std@@QAEXABUtagDummyCharCreateInfo@@@Z ; std::vector<tagDummyCharCreateInfo,std::allocator<tagDummyCharCreateInfo> >::push_back
; Function compile flags: /Ogsp
;	COMDAT ?push_back@?$vector@UtagDummyCharCreateInfo@@V?$allocator@UtagDummyCharCreateInfo@@@std@@@std@@QAEXABUtagDummyCharCreateInfo@@@Z
_TEXT	SEGMENT
__Val$ = 8						; size = 4
?push_back@?$vector@UtagDummyCharCreateInfo@@V?$allocator@UtagDummyCharCreateInfo@@@std@@@std@@QAEXABUtagDummyCharCreateInfo@@@Z PROC ; std::vector<tagDummyCharCreateInfo,std::allocator<tagDummyCharCreateInfo> >::push_back, COMDAT
; _this$ = ecx

; 976  : 		{	// insert element at end

  00000	55		 push	 ebp
  00001	8b ec		 mov	 ebp, esp
  00003	56		 push	 esi
  00004	8b f1		 mov	 esi, ecx

; 977  : 		if (_Inside(_STD addressof(_Val)))

  00006	8b 4e 04	 mov	 ecx, DWORD PTR [esi+4]
  00009	57		 push	 edi
  0000a	8b 7d 08	 mov	 edi, DWORD PTR __Val$[ebp]
  0000d	3b f9		 cmp	 edi, ecx
  0000f	73 37		 jae	 SHORT $LN4@push_back
  00011	8b 16		 mov	 edx, DWORD PTR [esi]
  00013	3b d7		 cmp	 edx, edi
  00015	77 31		 ja	 SHORT $LN4@push_back

; 978  : 			{	// push back an element
; 979  : 			size_type _Idx = _STD addressof(_Val) - this->_Myfirst;

  00017	8b c7		 mov	 eax, edi
  00019	2b c2		 sub	 eax, edx
  0001b	6a 24		 push	 36			; 00000024H
  0001d	99		 cdq
  0001e	5f		 pop	 edi
  0001f	f7 ff		 idiv	 edi
  00021	8b f8		 mov	 edi, eax

; 980  : 			if (this->_Mylast == this->_Myend)

  00023	3b 4e 08	 cmp	 ecx, DWORD PTR [esi+8]
  00026	75 09		 jne	 SHORT $LN3@push_back

; 981  : 				_Reserve(1);

  00028	6a 01		 push	 1
  0002a	8b ce		 mov	 ecx, esi
  0002c	e8 00 00 00 00	 call	 ?_Reserve@?$vector@UtagDummyCharCreateInfo@@V?$allocator@UtagDummyCharCreateInfo@@@std@@@std@@IAEXI@Z ; std::vector<tagDummyCharCreateInfo,std::allocator<tagDummyCharCreateInfo> >::_Reserve
$LN3@push_back:

; 982  : 			_Orphan_range(this->_Mylast, this->_Mylast);
; 983  : 			_Cons_val(this->_Alval,
; 984  : 				this->_Mylast,
; 985  : 				this->_Myfirst[_Idx]);

  00031	6b ff 24	 imul	 edi, 36			; 00000024H
  00034	03 3e		 add	 edi, DWORD PTR [esi]
  00036	8d 46 0c	 lea	 eax, DWORD PTR [esi+12]
  00039	57		 push	 edi
  0003a	ff 76 04	 push	 DWORD PTR [esi+4]
  0003d	50		 push	 eax
  0003e	e8 00 00 00 00	 call	 ??$_Cons_val@V?$allocator@UtagDummyCharCreateInfo@@@std@@UtagDummyCharCreateInfo@@AAU3@@std@@YAXAAV?$allocator@UtagDummyCharCreateInfo@@@0@PAUtagDummyCharCreateInfo@@AAU2@@Z ; std::_Cons_val<std::allocator<tagDummyCharCreateInfo>,tagDummyCharCreateInfo,tagDummyCharCreateInfo &>
  00043	83 c4 0c	 add	 esp, 12			; 0000000cH

; 986  : 			++this->_Mylast;
; 987  : 			}
; 988  : 		else

  00046	eb 19		 jmp	 SHORT $LN26@push_back
$LN4@push_back:

; 989  : 			{	// push back a non-element
; 990  : 			if (this->_Mylast == this->_Myend)

  00048	3b 4e 08	 cmp	 ecx, DWORD PTR [esi+8]
  0004b	75 09		 jne	 SHORT $LN1@push_back

; 991  : 				_Reserve(1);

  0004d	6a 01		 push	 1
  0004f	8b ce		 mov	 ecx, esi
  00051	e8 00 00 00 00	 call	 ?_Reserve@?$vector@UtagDummyCharCreateInfo@@V?$allocator@UtagDummyCharCreateInfo@@@std@@@std@@IAEXI@Z ; std::vector<tagDummyCharCreateInfo,std::allocator<tagDummyCharCreateInfo> >::_Reserve
$LN1@push_back:

; 992  : 			_Orphan_range(this->_Mylast, this->_Mylast);
; 993  : 			_Cons_val(this->_Alval,
; 994  : 				this->_Mylast,
; 995  : 				_Val);

  00056	57		 push	 edi
  00057	ff 76 04	 push	 DWORD PTR [esi+4]
  0005a	e8 00 00 00 00	 call	 ??$_Construct@UtagDummyCharCreateInfo@@ABU1@@std@@YAXPAUtagDummyCharCreateInfo@@ABU1@@Z ; std::_Construct<tagDummyCharCreateInfo,tagDummyCharCreateInfo const &>
  0005f	59		 pop	 ecx
  00060	59		 pop	 ecx
$LN26@push_back:

; 996  : 			++this->_Mylast;

  00061	83 46 04 24	 add	 DWORD PTR [esi+4], 36	; 00000024H
  00065	5f		 pop	 edi
  00066	5e		 pop	 esi

; 997  : 			}
; 998  : 		}

  00067	5d		 pop	 ebp
  00068	c2 04 00	 ret	 4
?push_back@?$vector@UtagDummyCharCreateInfo@@V?$allocator@UtagDummyCharCreateInfo@@@std@@@std@@QAEXABUtagDummyCharCreateInfo@@@Z ENDP ; std::vector<tagDummyCharCreateInfo,std::allocator<tagDummyCharCreateInfo> >::push_back
_TEXT	ENDS
PUBLIC	??1?$vector@UtagDummyCharLoadInfo@@V?$allocator@UtagDummyCharLoadInfo@@@std@@@std@@QAE@XZ ; std::vector<tagDummyCharLoadInfo,std::allocator<tagDummyCharLoadInfo> >::~vector<tagDummyCharLoadInfo,std::allocator<tagDummyCharLoadInfo> >
; Function compile flags: /Ogsp
;	COMDAT ??1?$vector@UtagDummyCharLoadInfo@@V?$allocator@UtagDummyCharLoadInfo@@@std@@@std@@QAE@XZ
_TEXT	SEGMENT
??1?$vector@UtagDummyCharLoadInfo@@V?$allocator@UtagDummyCharLoadInfo@@@std@@@std@@QAE@XZ PROC ; std::vector<tagDummyCharLoadInfo,std::allocator<tagDummyCharLoadInfo> >::~vector<tagDummyCharLoadInfo,std::allocator<tagDummyCharLoadInfo> >, COMDAT
; _this$ = ecx

; 705  : 		_Tidy();

  00000	e9 00 00 00 00	 jmp	 ?_Tidy@?$vector@UtagDummyCharLoadInfo@@V?$allocator@UtagDummyCharLoadInfo@@@std@@@std@@IAEXXZ ; std::vector<tagDummyCharLoadInfo,std::allocator<tagDummyCharLoadInfo> >::_Tidy
??1?$vector@UtagDummyCharLoadInfo@@V?$allocator@UtagDummyCharLoadInfo@@@std@@@std@@QAE@XZ ENDP ; std::vector<tagDummyCharLoadInfo,std::allocator<tagDummyCharLoadInfo> >::~vector<tagDummyCharLoadInfo,std::allocator<tagDummyCharLoadInfo> >
_TEXT	ENDS
PUBLIC	?clear@?$vector@UtagDummyCharLoadInfo@@V?$allocator@UtagDummyCharLoadInfo@@@std@@@std@@QAEXXZ ; std::vector<tagDummyCharLoadInfo,std::allocator<tagDummyCharLoadInfo> >::clear
; Function compile flags: /Ogsp
;	COMDAT ?clear@?$vector@UtagDummyCharLoadInfo@@V?$allocator@UtagDummyCharLoadInfo@@@std@@@std@@QAEXXZ
_TEXT	SEGMENT
$T549054 = -4						; size = 4
?clear@?$vector@UtagDummyCharLoadInfo@@V?$allocator@UtagDummyCharLoadInfo@@@std@@@std@@QAEXXZ PROC ; std::vector<tagDummyCharLoadInfo,std::allocator<tagDummyCharLoadInfo> >::clear, COMDAT
; _this$ = ecx

; 1217 : 		{	// erase all

  00000	55		 push	 ebp
  00001	8b ec		 mov	 ebp, esp
  00003	51		 push	 ecx

; 1218 : 		erase(begin(), end());

  00004	8b 41 04	 mov	 eax, DWORD PTR [ecx+4]
  00007	8b 11		 mov	 edx, DWORD PTR [ecx]
  00009	50		 push	 eax
  0000a	52		 push	 edx
  0000b	8d 45 fc	 lea	 eax, DWORD PTR $T549054[ebp]
  0000e	50		 push	 eax
  0000f	e8 00 00 00 00	 call	 ?erase@?$vector@UtagDummyCharLoadInfo@@V?$allocator@UtagDummyCharLoadInfo@@@std@@@std@@QAE?AV?$_Vector_iterator@V?$_Vector_val@UtagDummyCharLoadInfo@@V?$allocator@UtagDummyCharLoadInfo@@@std@@@std@@@2@V?$_Vector_const_iterator@V?$_Vector_val@UtagDummyCharLoadInfo@@V?$allocator@UtagDummyCharLoadInfo@@@std@@@std@@@2@0@Z ; std::vector<tagDummyCharLoadInfo,std::allocator<tagDummyCharLoadInfo> >::erase

; 1219 : 		}

  00014	c9		 leave
  00015	c3		 ret	 0
?clear@?$vector@UtagDummyCharLoadInfo@@V?$allocator@UtagDummyCharLoadInfo@@@std@@@std@@QAEXXZ ENDP ; std::vector<tagDummyCharLoadInfo,std::allocator<tagDummyCharLoadInfo> >::clear
_TEXT	ENDS
PUBLIC	??_7ioCreateDummyCharBuff@@6B@			; ioCreateDummyCharBuff::`vftable'
PUBLIC	??0ioCreateDummyCharBuff@@QAE@XZ		; ioCreateDummyCharBuff::ioCreateDummyCharBuff
PUBLIC	??_R4ioCreateDummyCharBuff@@6B@			; ioCreateDummyCharBuff::`RTTI Complete Object Locator'
PUBLIC	??_R0?AVioCreateDummyCharBuff@@@8		; ioCreateDummyCharBuff `RTTI Type Descriptor'
PUBLIC	??_R3ioCreateDummyCharBuff@@8			; ioCreateDummyCharBuff::`RTTI Class Hierarchy Descriptor'
PUBLIC	??_R2ioCreateDummyCharBuff@@8			; ioCreateDummyCharBuff::`RTTI Base Class Array'
PUBLIC	??_R1A@?0A@EA@ioCreateDummyCharBuff@@8		; ioCreateDummyCharBuff::`RTTI Base Class Descriptor at (0,-1,0,64)'
PUBLIC	??_R1A@?0A@EA@ioBuff@@8				; ioBuff::`RTTI Base Class Descriptor at (0,-1,0,64)'
PUBLIC	??_R0?AVioBuff@@@8				; ioBuff `RTTI Type Descriptor'
PUBLIC	??_R3ioBuff@@8					; ioBuff::`RTTI Class Hierarchy Descriptor'
PUBLIC	??_R2ioBuff@@8					; ioBuff::`RTTI Base Class Array'
PUBLIC	?LoadProperty@ioCreateDummyCharBuff@@UAEXAAVioINILoader@@@Z ; ioCreateDummyCharBuff::LoadProperty
PUBLIC	?Clone@ioCreateDummyCharBuff@@UAEPAVioBuff@@XZ	; ioCreateDummyCharBuff::Clone
PUBLIC	?ProcessBuff@ioCreateDummyCharBuff@@UAEXM@Z	; ioCreateDummyCharBuff::ProcessBuff
PUBLIC	?ApplyBuffInfo@ioCreateDummyCharBuff@@UAEXAAVSP2Packet@@@Z ; ioCreateDummyCharBuff::ApplyBuffInfo
PUBLIC	?ApplyExtraBuffInfo@ioCreateDummyCharBuff@@UAEXAAVSP2Packet@@@Z ; ioCreateDummyCharBuff::ApplyExtraBuffInfo
PUBLIC	?IsWaitSelfRemove@ioBuff@@UAE_NXZ		; ioBuff::IsWaitSelfRemove
EXTRN	??1ioBuff@@UAE@XZ:PROC				; ioBuff::~ioBuff
EXTRN	??0ioBuff@@QAE@XZ:PROC				; ioBuff::ioBuff
EXTRN	?StartBuffWithAniTime@ioBuff@@UAEXPAVioBaseChar@@K@Z:PROC ; ioBuff::StartBuffWithAniTime
EXTRN	?CancelBuff@ioBuff@@UAEXXZ:PROC			; ioBuff::CancelBuff
EXTRN	?AccumulateBuff@ioBuff@@UAEXXZ:PROC		; ioBuff::AccumulateBuff
EXTRN	?IsLiveButStopped@ioBuff@@UBE_NXZ:PROC		; ioBuff::IsLiveButStopped
EXTRN	?IsCanJumpAttack@ioBuff@@UBE_NXZ:PROC		; ioBuff::IsCanJumpAttack
EXTRN	?SetAction@ioBuff@@MAEXXZ:PROC			; ioBuff::SetAction
EXTRN	?ProcessDelay@ioBuff@@MAEXM@Z:PROC		; ioBuff::ProcessDelay
EXTRN	?SetExtraDurationByGrowth@ioBuff@@UAEXM@Z:PROC	; ioBuff::SetExtraDurationByGrowth
EXTRN	?SetWeaponIndex@ioBuff@@UAEXK@Z:PROC		; ioBuff::SetWeaponIndex
EXTRN	?OnReduceGauge@ioBuff@@UBE_NXZ:PROC		; ioBuff::OnReduceGauge
EXTRN	?IsCharCollisionSkip@ioBuff@@UBE_NXZ:PROC	; ioBuff::IsCharCollisionSkip
EXTRN	?IsCollisionAvailableWeapon@ioBuff@@UBE_NXZ:PROC ; ioBuff::IsCollisionAvailableWeapon
EXTRN	?IsProtected@ioBuff@@UBE_NXZ:PROC		; ioBuff::IsProtected
EXTRN	?UseActiveCount@ioBuff@@UBE_NXZ:PROC		; ioBuff::UseActiveCount
EXTRN	?CheckRemoveEquipSkillBuff@ioBuff@@UAEX_N@Z:PROC ; ioBuff::CheckRemoveEquipSkillBuff
EXTRN	?SetBuffGrapplingState@ioBuff@@UAE_NPAVioBaseChar@@ABVioHashString@@@Z:PROC ; ioBuff::SetBuffGrapplingState
EXTRN	?GetGrapplingTargetPos@ioBuff@@UAE?AUD3DXVECTOR3@@PAVioBaseChar@@@Z:PROC ; ioBuff::GetGrapplingTargetPos
EXTRN	??_EioCreateDummyCharBuff@@UAEPAXI@Z:PROC	; ioCreateDummyCharBuff::`vector deleting destructor'
;	COMDAT ??_R2ioBuff@@8
; File c:\program files (x86)\microsoft visual studio 10.0\vc\include\xmemory
rdata$r	SEGMENT
??_R2ioBuff@@8 DD FLAT:??_R1A@?0A@EA@ioBuff@@8		; ioBuff::`RTTI Base Class Array'
rdata$r	ENDS
;	COMDAT ??_R3ioBuff@@8
rdata$r	SEGMENT
??_R3ioBuff@@8 DD 00H					; ioBuff::`RTTI Class Hierarchy Descriptor'
	DD	00H
	DD	01H
	DD	FLAT:??_R2ioBuff@@8
rdata$r	ENDS
;	COMDAT ??_R0?AVioBuff@@@8
_DATA	SEGMENT
??_R0?AVioBuff@@@8 DD FLAT:??_7type_info@@6B@		; ioBuff `RTTI Type Descriptor'
	DD	00H
	DB	'.?AVioBuff@@', 00H
_DATA	ENDS
;	COMDAT ??_R1A@?0A@EA@ioBuff@@8
rdata$r	SEGMENT
??_R1A@?0A@EA@ioBuff@@8 DD FLAT:??_R0?AVioBuff@@@8	; ioBuff::`RTTI Base Class Descriptor at (0,-1,0,64)'
	DD	00H
	DD	00H
	DD	0ffffffffH
	DD	00H
	DD	040H
	DD	FLAT:??_R3ioBuff@@8
rdata$r	ENDS
;	COMDAT ??_R1A@?0A@EA@ioCreateDummyCharBuff@@8
rdata$r	SEGMENT
??_R1A@?0A@EA@ioCreateDummyCharBuff@@8 DD FLAT:??_R0?AVioCreateDummyCharBuff@@@8 ; ioCreateDummyCharBuff::`RTTI Base Class Descriptor at (0,-1,0,64)'
	DD	01H
	DD	00H
	DD	0ffffffffH
	DD	00H
	DD	040H
	DD	FLAT:??_R3ioCreateDummyCharBuff@@8
rdata$r	ENDS
;	COMDAT ??_R2ioCreateDummyCharBuff@@8
rdata$r	SEGMENT
??_R2ioCreateDummyCharBuff@@8 DD FLAT:??_R1A@?0A@EA@ioCreateDummyCharBuff@@8 ; ioCreateDummyCharBuff::`RTTI Base Class Array'
	DD	FLAT:??_R1A@?0A@EA@ioBuff@@8
rdata$r	ENDS
;	COMDAT ??_R3ioCreateDummyCharBuff@@8
rdata$r	SEGMENT
??_R3ioCreateDummyCharBuff@@8 DD 00H			; ioCreateDummyCharBuff::`RTTI Class Hierarchy Descriptor'
	DD	00H
	DD	02H
	DD	FLAT:??_R2ioCreateDummyCharBuff@@8
rdata$r	ENDS
;	COMDAT ??_R0?AVioCreateDummyCharBuff@@@8
_DATA	SEGMENT
??_R0?AVioCreateDummyCharBuff@@@8 DD FLAT:??_7type_info@@6B@ ; ioCreateDummyCharBuff `RTTI Type Descriptor'
	DD	00H
	DB	'.?AVioCreateDummyCharBuff@@', 00H
_DATA	ENDS
;	COMDAT ??_R4ioCreateDummyCharBuff@@6B@
rdata$r	SEGMENT
??_R4ioCreateDummyCharBuff@@6B@ DD 00H			; ioCreateDummyCharBuff::`RTTI Complete Object Locator'
	DD	00H
	DD	00H
	DD	FLAT:??_R0?AVioCreateDummyCharBuff@@@8
	DD	FLAT:??_R3ioCreateDummyCharBuff@@8
rdata$r	ENDS
;	COMDAT ??_7ioCreateDummyCharBuff@@6B@
CONST	SEGMENT
??_7ioCreateDummyCharBuff@@6B@ DD FLAT:??_R4ioCreateDummyCharBuff@@6B@ ; ioCreateDummyCharBuff::`vftable'
	DD	FLAT:?LoadProperty@ioCreateDummyCharBuff@@UAEXAAVioINILoader@@@Z
	DD	FLAT:?Clone@ioCreateDummyCharBuff@@UAEPAVioBuff@@XZ
	DD	FLAT:?StartBuff@ioCreateDummyCharBuff@@UAEXPAVioBaseChar@@@Z
	DD	FLAT:?StartBuffWithAniTime@ioBuff@@UAEXPAVioBaseChar@@K@Z
	DD	FLAT:?ApplyStartBuff@ioCreateDummyCharBuff@@UAE_NPAVioBaseChar@@KK@Z
	DD	FLAT:?ProcessBuff@ioCreateDummyCharBuff@@UAEXM@Z
	DD	FLAT:?EndBuff@ioCreateDummyCharBuff@@UAEXXZ
	DD	FLAT:?CancelBuff@ioBuff@@UAEXXZ
	DD	FLAT:?GetBuffInfo@ioCreateDummyCharBuff@@UAEXAAVSP2Packet@@@Z
	DD	FLAT:?ApplyBuffInfo@ioCreateDummyCharBuff@@UAEXAAVSP2Packet@@@Z
	DD	FLAT:?AccumulateBuff@ioBuff@@UAEXXZ
	DD	FLAT:?IsLiveButStopped@ioBuff@@UBE_NXZ
	DD	FLAT:?IsCanJumpAttack@ioBuff@@UBE_NXZ
	DD	FLAT:?SetAction@ioBuff@@MAEXXZ
	DD	FLAT:?ProcessDelay@ioBuff@@MAEXM@Z
	DD	FLAT:?SetExtraDurationByGrowth@ioBuff@@UAEXM@Z
	DD	FLAT:?SetWeaponIndex@ioBuff@@UAEXK@Z
	DD	FLAT:?OnReduceGauge@ioBuff@@UBE_NXZ
	DD	FLAT:?IsCharCollisionSkip@ioBuff@@UBE_NXZ
	DD	FLAT:?IsCollisionAvailableWeapon@ioBuff@@UBE_NXZ
	DD	FLAT:?IsProtected@ioBuff@@UBE_NXZ
	DD	FLAT:?UseActiveCount@ioBuff@@UBE_NXZ
	DD	FLAT:?CheckActiveCount@ioCreateDummyCharBuff@@UAEXXZ
	DD	FLAT:?CheckRemoveEquipSkillBuff@ioBuff@@UAEX_N@Z
	DD	FLAT:?ApplyExtraBuffInfo@ioCreateDummyCharBuff@@UAEXAAVSP2Packet@@@Z
	DD	FLAT:?SetBuffGrapplingState@ioBuff@@UAE_NPAVioBaseChar@@ABVioHashString@@@Z
	DD	FLAT:?GetGrapplingTargetPos@ioBuff@@UAE?AUD3DXVECTOR3@@PAVioBaseChar@@@Z
	DD	FLAT:?IsWaitSelfRemove@ioBuff@@UAE_NXZ
	DD	FLAT:??_EioCreateDummyCharBuff@@UAEPAXI@Z
CONST	ENDS
;	COMDAT xdata$x
xdata$x	SEGMENT
__unwindtable$??0ioCreateDummyCharBuff@@QAE@XZ DD 0ffffffffH
	DD	FLAT:__unwindfunclet$??0ioCreateDummyCharBuff@@QAE@XZ$0
__ehfuncinfo$??0ioCreateDummyCharBuff@@QAE@XZ DD 019930522H
	DD	01H
	DD	FLAT:__unwindtable$??0ioCreateDummyCharBuff@@QAE@XZ
	DD	2 DUP(00H)
	DD	2 DUP(00H)
	DD	00H
	DD	01H
; Function compile flags: /Ogsp
; File d:\lost saga for developer\youtube\tutorial\source\src\lsclient\iocreatedummycharbuff.cpp
xdata$x	ENDS
;	COMDAT ??0ioCreateDummyCharBuff@@QAE@XZ
_TEXT	SEGMENT
_this$ = -16						; size = 4
__$EHRec$ = -12						; size = 12
??0ioCreateDummyCharBuff@@QAE@XZ PROC			; ioCreateDummyCharBuff::ioCreateDummyCharBuff, COMDAT
; _this$ = ecx

; 13   : {

  00000	6a 04		 push	 4
  00002	b8 00 00 00 00	 mov	 eax, __ehhandler$??0ioCreateDummyCharBuff@@QAE@XZ
  00007	e8 00 00 00 00	 call	 __EH_prolog3
  0000c	8b f1		 mov	 esi, ecx
  0000e	89 75 f0	 mov	 DWORD PTR _this$[ebp], esi
  00011	e8 00 00 00 00	 call	 ??0ioBuff@@QAE@XZ	; ioBuff::ioBuff
  00016	33 db		 xor	 ebx, ebx
  00018	8d 8e 7c 09 00
	00		 lea	 ecx, DWORD PTR [esi+2428]
  0001e	89 5d fc	 mov	 DWORD PTR __$EHRec$[ebp+8], ebx
  00021	c7 06 00 00 00
	00		 mov	 DWORD PTR [esi], OFFSET ??_7ioCreateDummyCharBuff@@6B@
  00027	e8 00 00 00 00	 call	 ??0?$CEncrypt@_N@@QAE@XZ ; CEncrypt<bool>::CEncrypt<bool>
  0002c	89 9e ac 09 00
	00		 mov	 DWORD PTR [esi+2476], ebx
  00032	89 9e b0 09 00
	00		 mov	 DWORD PTR [esi+2480], ebx
  00038	89 9e b4 09 00
	00		 mov	 DWORD PTR [esi+2484], ebx
  0003e	89 9e bc 09 00
	00		 mov	 DWORD PTR [esi+2492], ebx
  00044	89 9e c0 09 00
	00		 mov	 DWORD PTR [esi+2496], ebx
  0004a	89 9e c4 09 00
	00		 mov	 DWORD PTR [esi+2500], ebx
  00050	89 9e cc 09 00
	00		 mov	 DWORD PTR [esi+2508], ebx
  00056	89 9e d0 09 00
	00		 mov	 DWORD PTR [esi+2512], ebx
  0005c	89 9e d4 09 00
	00		 mov	 DWORD PTR [esi+2516], ebx

; 14   : 	m_bCreatedDummy = false;

  00062	88 9e 7a 09 00
	00		 mov	 BYTE PTR [esi+2426], bl

; 15   : }

  00068	8b c6		 mov	 eax, esi
  0006a	e8 00 00 00 00	 call	 __EH_epilog3
  0006f	c3		 ret	 0
_TEXT	ENDS
;	COMDAT text$x
text$x	SEGMENT
__unwindfunclet$??0ioCreateDummyCharBuff@@QAE@XZ$0:
  00000	8b 4d f0	 mov	 ecx, DWORD PTR _this$[ebp]
  00003	e9 00 00 00 00	 jmp	 ??1ioBuff@@UAE@XZ	; ioBuff::~ioBuff
__ehhandler$??0ioCreateDummyCharBuff@@QAE@XZ:
  00008	8b 54 24 08	 mov	 edx, DWORD PTR [esp+8]
  0000c	8d 42 0c	 lea	 eax, DWORD PTR [edx+12]
  0000f	8b 4a ec	 mov	 ecx, DWORD PTR [edx-20]
  00012	33 c8		 xor	 ecx, eax
  00014	e8 00 00 00 00	 call	 @__security_check_cookie@4
  00019	b8 00 00 00 00	 mov	 eax, OFFSET __ehfuncinfo$??0ioCreateDummyCharBuff@@QAE@XZ
  0001e	e9 00 00 00 00	 jmp	 ___CxxFrameHandler3
text$x	ENDS
??0ioCreateDummyCharBuff@@QAE@XZ ENDP			; ioCreateDummyCharBuff::ioCreateDummyCharBuff
; Function compile flags: /Ogsp
; File d:\lost saga for developer\youtube\tutorial\source\src\lsclient\iobuff.h
;	COMDAT ?IsWaitSelfRemove@ioBuff@@UAE_NXZ
_TEXT	SEGMENT
?IsWaitSelfRemove@ioBuff@@UAE_NXZ PROC			; ioBuff::IsWaitSelfRemove, COMDAT
; _this$ = ecx

; 519  : 	virtual bool IsWaitSelfRemove() { return m_bWaitSelfRemove; }

  00000	8a 81 65 09 00
	00		 mov	 al, BYTE PTR [ecx+2405]
  00006	c3		 ret	 0
?IsWaitSelfRemove@ioBuff@@UAE_NXZ ENDP			; ioBuff::IsWaitSelfRemove
_TEXT	ENDS
PUBLIC	??0ioCreateDummyCharBuff@@QAE@ABV0@@Z		; ioCreateDummyCharBuff::ioCreateDummyCharBuff
EXTRN	??0ioBuff@@QAE@ABV0@@Z:PROC			; ioBuff::ioBuff
;	COMDAT xdata$x
; File c:\program files (x86)\microsoft visual studio 10.0\vc\include\xmemory
xdata$x	SEGMENT
__unwindtable$??0ioCreateDummyCharBuff@@QAE@ABV0@@Z DD 0ffffffffH
	DD	FLAT:__unwindfunclet$??0ioCreateDummyCharBuff@@QAE@ABV0@@Z$0
	DD	00H
	DD	FLAT:__unwindfunclet$??0ioCreateDummyCharBuff@@QAE@ABV0@@Z$1
	DD	01H
	DD	FLAT:__unwindfunclet$??0ioCreateDummyCharBuff@@QAE@ABV0@@Z$2
	DD	02H
	DD	FLAT:__unwindfunclet$??0ioCreateDummyCharBuff@@QAE@ABV0@@Z$3
__ehfuncinfo$??0ioCreateDummyCharBuff@@QAE@ABV0@@Z DD 019930522H
	DD	04H
	DD	FLAT:__unwindtable$??0ioCreateDummyCharBuff@@QAE@ABV0@@Z
	DD	2 DUP(00H)
	DD	2 DUP(00H)
	DD	00H
	DD	01H
; Function compile flags: /Ogsp
; File d:\lost saga for developer\youtube\tutorial\source\src\lsclient\iocreatedummycharbuff.cpp
xdata$x	ENDS
;	COMDAT ??0ioCreateDummyCharBuff@@QAE@ABV0@@Z
_TEXT	SEGMENT
_this$ = -16						; size = 4
__$EHRec$ = -12						; size = 12
_rhs$ = 8						; size = 4
??0ioCreateDummyCharBuff@@QAE@ABV0@@Z PROC		; ioCreateDummyCharBuff::ioCreateDummyCharBuff, COMDAT
; _this$ = ecx

; 27   : {

  00000	6a 04		 push	 4
  00002	b8 00 00 00 00	 mov	 eax, __ehhandler$??0ioCreateDummyCharBuff@@QAE@ABV0@@Z
  00007	e8 00 00 00 00	 call	 __EH_prolog3
  0000c	8b f1		 mov	 esi, ecx
  0000e	89 75 f0	 mov	 DWORD PTR _this$[ebp], esi
  00011	8b 7d 08	 mov	 edi, DWORD PTR _rhs$[ebp]
  00014	57		 push	 edi
  00015	e8 00 00 00 00	 call	 ??0ioBuff@@QAE@ABV0@@Z	; ioBuff::ioBuff
  0001a	83 65 fc 00	 and	 DWORD PTR __$EHRec$[ebp+8], 0
  0001e	c7 06 00 00 00
	00		 mov	 DWORD PTR [esi], OFFSET ??_7ioCreateDummyCharBuff@@6B@
  00024	8a 87 6c 09 00
	00		 mov	 al, BYTE PTR [edi+2412]
  0002a	88 86 6c 09 00
	00		 mov	 BYTE PTR [esi+2412], al
  00030	d9 87 74 09 00
	00		 fld	 DWORD PTR [edi+2420]
  00036	d9 9e 74 09 00
	00		 fstp	 DWORD PTR [esi+2420]
  0003c	8a 87 78 09 00
	00		 mov	 al, BYTE PTR [edi+2424]
  00042	88 86 78 09 00
	00		 mov	 BYTE PTR [esi+2424], al
  00048	8a 87 79 09 00
	00		 mov	 al, BYTE PTR [edi+2425]
  0004e	88 86 79 09 00
	00		 mov	 BYTE PTR [esi+2425], al
  00054	8a 87 7b 09 00
	00		 mov	 al, BYTE PTR [edi+2427]
  0005a	88 86 7b 09 00
	00		 mov	 BYTE PTR [esi+2427], al
  00060	8d 87 7c 09 00
	00		 lea	 eax, DWORD PTR [edi+2428]
  00066	50		 push	 eax
  00067	8d 8e 7c 09 00
	00		 lea	 ecx, DWORD PTR [esi+2428]
  0006d	e8 00 00 00 00	 call	 ??0?$CEncrypt@_N@@QAE@ABV0@@Z ; CEncrypt<bool>::CEncrypt<bool>
  00072	8d 87 ac 09 00
	00		 lea	 eax, DWORD PTR [edi+2476]
  00078	50		 push	 eax
  00079	8d 8e ac 09 00
	00		 lea	 ecx, DWORD PTR [esi+2476]
  0007f	c6 45 fc 01	 mov	 BYTE PTR __$EHRec$[ebp+8], 1
  00083	e8 00 00 00 00	 call	 ??0?$vector@UtagDummyCharLoadInfo@@V?$allocator@UtagDummyCharLoadInfo@@@std@@@std@@QAE@ABV01@@Z ; std::vector<tagDummyCharLoadInfo,std::allocator<tagDummyCharLoadInfo> >::vector<tagDummyCharLoadInfo,std::allocator<tagDummyCharLoadInfo> >
  00088	83 a6 bc 09 00
	00 00		 and	 DWORD PTR [esi+2492], 0
  0008f	83 a6 c0 09 00
	00 00		 and	 DWORD PTR [esi+2496], 0
  00096	83 a6 c4 09 00
	00 00		 and	 DWORD PTR [esi+2500], 0
  0009d	81 c7 cc 09 00
	00		 add	 edi, 2508		; 000009ccH
  000a3	57		 push	 edi
  000a4	8d 8e cc 09 00
	00		 lea	 ecx, DWORD PTR [esi+2508]
  000aa	c6 45 fc 03	 mov	 BYTE PTR __$EHRec$[ebp+8], 3
  000ae	e8 00 00 00 00	 call	 ??0?$vector@VioHashString@@V?$allocator@VioHashString@@@std@@@std@@QAE@ABV01@@Z ; std::vector<ioHashString,std::allocator<ioHashString> >::vector<ioHashString,std::allocator<ioHashString> >

; 28   : }

  000b3	8b c6		 mov	 eax, esi
  000b5	e8 00 00 00 00	 call	 __EH_epilog3
  000ba	c2 04 00	 ret	 4
_TEXT	ENDS
;	COMDAT text$x
text$x	SEGMENT
__unwindfunclet$??0ioCreateDummyCharBuff@@QAE@ABV0@@Z$0:
  00000	8b 4d f0	 mov	 ecx, DWORD PTR _this$[ebp]
  00003	e9 00 00 00 00	 jmp	 ??1ioBuff@@UAE@XZ	; ioBuff::~ioBuff
__unwindfunclet$??0ioCreateDummyCharBuff@@QAE@ABV0@@Z$1:
  00008	8b 4d f0	 mov	 ecx, DWORD PTR _this$[ebp]
  0000b	81 c1 7c 09 00
	00		 add	 ecx, 2428		; 0000097cH
  00011	e9 00 00 00 00	 jmp	 ??1?$CEncrypt@_N@@UAE@XZ ; CEncrypt<bool>::~CEncrypt<bool>
__unwindfunclet$??0ioCreateDummyCharBuff@@QAE@ABV0@@Z$2:
  00016	8b 4d f0	 mov	 ecx, DWORD PTR _this$[ebp]
  00019	81 c1 ac 09 00
	00		 add	 ecx, 2476		; 000009acH
  0001f	e9 00 00 00 00	 jmp	 ??1?$vector@UtagDummyCharLoadInfo@@V?$allocator@UtagDummyCharLoadInfo@@@std@@@std@@QAE@XZ ; std::vector<tagDummyCharLoadInfo,std::allocator<tagDummyCharLoadInfo> >::~vector<tagDummyCharLoadInfo,std::allocator<tagDummyCharLoadInfo> >
__unwindfunclet$??0ioCreateDummyCharBuff@@QAE@ABV0@@Z$3:
  00024	8b 4d f0	 mov	 ecx, DWORD PTR _this$[ebp]
  00027	81 c1 bc 09 00
	00		 add	 ecx, 2492		; 000009bcH
  0002d	e9 00 00 00 00	 jmp	 ??1?$vector@UtagDummyCharCreateInfo@@V?$allocator@UtagDummyCharCreateInfo@@@std@@@std@@QAE@XZ ; std::vector<tagDummyCharCreateInfo,std::allocator<tagDummyCharCreateInfo> >::~vector<tagDummyCharCreateInfo,std::allocator<tagDummyCharCreateInfo> >
__ehhandler$??0ioCreateDummyCharBuff@@QAE@ABV0@@Z:
  00032	8b 54 24 08	 mov	 edx, DWORD PTR [esp+8]
  00036	8d 42 0c	 lea	 eax, DWORD PTR [edx+12]
  00039	8b 4a ec	 mov	 ecx, DWORD PTR [edx-20]
  0003c	33 c8		 xor	 ecx, eax
  0003e	e8 00 00 00 00	 call	 @__security_check_cookie@4
  00043	b8 00 00 00 00	 mov	 eax, OFFSET __ehfuncinfo$??0ioCreateDummyCharBuff@@QAE@ABV0@@Z
  00048	e9 00 00 00 00	 jmp	 ___CxxFrameHandler3
text$x	ENDS
??0ioCreateDummyCharBuff@@QAE@ABV0@@Z ENDP		; ioCreateDummyCharBuff::ioCreateDummyCharBuff
PUBLIC	??1ioCreateDummyCharBuff@@UAE@XZ		; ioCreateDummyCharBuff::~ioCreateDummyCharBuff
;	COMDAT xdata$x
; File d:\lost saga for developer\youtube\tutorial\source\src\lsclient\encryptvalue.h
xdata$x	SEGMENT
__unwindtable$??1ioCreateDummyCharBuff@@UAE@XZ DD 0ffffffffH
	DD	FLAT:__unwindfunclet$??1ioCreateDummyCharBuff@@UAE@XZ$0
	DD	00H
	DD	FLAT:__unwindfunclet$??1ioCreateDummyCharBuff@@UAE@XZ$1
	DD	01H
	DD	FLAT:__unwindfunclet$??1ioCreateDummyCharBuff@@UAE@XZ$2
	DD	02H
	DD	FLAT:__unwindfunclet$??1ioCreateDummyCharBuff@@UAE@XZ$3
__ehfuncinfo$??1ioCreateDummyCharBuff@@UAE@XZ DD 019930522H
	DD	04H
	DD	FLAT:__unwindtable$??1ioCreateDummyCharBuff@@UAE@XZ
	DD	2 DUP(00H)
	DD	2 DUP(00H)
	DD	00H
	DD	01H
; Function compile flags: /Ogsp
; File d:\lost saga for developer\youtube\tutorial\source\src\lsclient\iocreatedummycharbuff.cpp
xdata$x	ENDS
;	COMDAT ??1ioCreateDummyCharBuff@@UAE@XZ
_TEXT	SEGMENT
_this$ = -16						; size = 4
__$EHRec$ = -12						; size = 12
??1ioCreateDummyCharBuff@@UAE@XZ PROC			; ioCreateDummyCharBuff::~ioCreateDummyCharBuff, COMDAT
; _this$ = ecx

; 31   : {

  00000	6a 04		 push	 4
  00002	b8 00 00 00 00	 mov	 eax, __ehhandler$??1ioCreateDummyCharBuff@@UAE@XZ
  00007	e8 00 00 00 00	 call	 __EH_prolog3
  0000c	8b f1		 mov	 esi, ecx
  0000e	89 75 f0	 mov	 DWORD PTR _this$[ebp], esi
  00011	c7 06 00 00 00
	00		 mov	 DWORD PTR [esi], OFFSET ??_7ioCreateDummyCharBuff@@6B@

; 32   : }

  00017	8d 8e cc 09 00
	00		 lea	 ecx, DWORD PTR [esi+2508]
  0001d	c7 45 fc 03 00
	00 00		 mov	 DWORD PTR __$EHRec$[ebp+8], 3
  00024	e8 00 00 00 00	 call	 ?_Tidy@?$vector@VioHashString@@V?$allocator@VioHashString@@@std@@@std@@IAEXXZ ; std::vector<ioHashString,std::allocator<ioHashString> >::_Tidy
  00029	8d 8e bc 09 00
	00		 lea	 ecx, DWORD PTR [esi+2492]
  0002f	c6 45 fc 02	 mov	 BYTE PTR __$EHRec$[ebp+8], 2
  00033	e8 00 00 00 00	 call	 ?_Tidy@?$vector@UtagDummyCharCreateInfo@@V?$allocator@UtagDummyCharCreateInfo@@@std@@@std@@IAEXXZ ; std::vector<tagDummyCharCreateInfo,std::allocator<tagDummyCharCreateInfo> >::_Tidy
  00038	8d 8e ac 09 00
	00		 lea	 ecx, DWORD PTR [esi+2476]
  0003e	c6 45 fc 01	 mov	 BYTE PTR __$EHRec$[ebp+8], 1
  00042	e8 00 00 00 00	 call	 ?_Tidy@?$vector@UtagDummyCharLoadInfo@@V?$allocator@UtagDummyCharLoadInfo@@@std@@@std@@IAEXXZ ; std::vector<tagDummyCharLoadInfo,std::allocator<tagDummyCharLoadInfo> >::_Tidy
  00047	8d 8e 88 09 00
	00		 lea	 ecx, DWORD PTR [esi+2440]
  0004d	c6 45 fc 00	 mov	 BYTE PTR __$EHRec$[ebp+8], 0
  00051	c7 86 7c 09 00
	00 00 00 00 00	 mov	 DWORD PTR [esi+2428], OFFSET ??_7?$CEncrypt@_N@@6B@
  0005b	e8 00 00 00 00	 call	 ??1ccddaabb@@UAE@XZ	; ccddaabb::~ccddaabb
  00060	83 4d fc ff	 or	 DWORD PTR __$EHRec$[ebp+8], -1
  00064	8b ce		 mov	 ecx, esi
  00066	e8 00 00 00 00	 call	 ??1ioBuff@@UAE@XZ	; ioBuff::~ioBuff
  0006b	e8 00 00 00 00	 call	 __EH_epilog3
  00070	c3		 ret	 0
_TEXT	ENDS
;	COMDAT text$x
text$x	SEGMENT
__unwindfunclet$??1ioCreateDummyCharBuff@@UAE@XZ$0:
  00000	8b 4d f0	 mov	 ecx, DWORD PTR _this$[ebp]
  00003	e9 00 00 00 00	 jmp	 ??1ioBuff@@UAE@XZ	; ioBuff::~ioBuff
__unwindfunclet$??1ioCreateDummyCharBuff@@UAE@XZ$1:
  00008	8b 4d f0	 mov	 ecx, DWORD PTR _this$[ebp]
  0000b	81 c1 7c 09 00
	00		 add	 ecx, 2428		; 0000097cH
  00011	e9 00 00 00 00	 jmp	 ??1?$CEncrypt@_N@@UAE@XZ ; CEncrypt<bool>::~CEncrypt<bool>
__unwindfunclet$??1ioCreateDummyCharBuff@@UAE@XZ$2:
  00016	8b 4d f0	 mov	 ecx, DWORD PTR _this$[ebp]
  00019	81 c1 ac 09 00
	00		 add	 ecx, 2476		; 000009acH
  0001f	e9 00 00 00 00	 jmp	 ??1?$vector@UtagDummyCharLoadInfo@@V?$allocator@UtagDummyCharLoadInfo@@@std@@@std@@QAE@XZ ; std::vector<tagDummyCharLoadInfo,std::allocator<tagDummyCharLoadInfo> >::~vector<tagDummyCharLoadInfo,std::allocator<tagDummyCharLoadInfo> >
__unwindfunclet$??1ioCreateDummyCharBuff@@UAE@XZ$3:
  00024	8b 4d f0	 mov	 ecx, DWORD PTR _this$[ebp]
  00027	81 c1 bc 09 00
	00		 add	 ecx, 2492		; 000009bcH
  0002d	e9 00 00 00 00	 jmp	 ??1?$vector@UtagDummyCharCreateInfo@@V?$allocator@UtagDummyCharCreateInfo@@@std@@@std@@QAE@XZ ; std::vector<tagDummyCharCreateInfo,std::allocator<tagDummyCharCreateInfo> >::~vector<tagDummyCharCreateInfo,std::allocator<tagDummyCharCreateInfo> >
__ehhandler$??1ioCreateDummyCharBuff@@UAE@XZ:
  00032	8b 54 24 08	 mov	 edx, DWORD PTR [esp+8]
  00036	8d 42 0c	 lea	 eax, DWORD PTR [edx+12]
  00039	8b 4a ec	 mov	 ecx, DWORD PTR [edx-20]
  0003c	33 c8		 xor	 ecx, eax
  0003e	e8 00 00 00 00	 call	 @__security_check_cookie@4
  00043	b8 00 00 00 00	 mov	 eax, OFFSET __ehfuncinfo$??1ioCreateDummyCharBuff@@UAE@XZ
  00048	e9 00 00 00 00	 jmp	 ___CxxFrameHandler3
text$x	ENDS
??1ioCreateDummyCharBuff@@UAE@XZ ENDP			; ioCreateDummyCharBuff::~ioCreateDummyCharBuff
PUBLIC	__real@4f800000
PUBLIC	_rkLoader$GSCopy$
PUBLIC	__$ArrayPad$
EXTRN	?LoadDummyCharCreateDestroyInfo@Help@@YAXAAVioINILoader@@AAV?$vector@UtagDummyCharLoadInfo@@V?$allocator@UtagDummyCharLoadInfo@@@std@@@std@@AAV?$vector@VioHashString@@V?$allocator@VioHashString@@@std@@@4@@Z:PROC ; Help::LoadDummyCharCreateDestroyInfo
EXTRN	?LoadProperty@ioBuff@@UAEXAAVioINILoader@@@Z:PROC ; ioBuff::LoadProperty
;	COMDAT __real@4f800000
; File c:\program files (x86)\microsoft visual studio 10.0\vc\include\xutility
CONST	SEGMENT
__real@4f800000 DD 04f800000r			; 4.29497e+009
; Function compile flags: /Ogsp
; File d:\lost saga for developer\youtube\tutorial\source\src\lsclient\iocreatedummycharbuff.cpp
CONST	ENDS
;	COMDAT ?LoadProperty@ioCreateDummyCharBuff@@UAEXAAVioINILoader@@@Z
_TEXT	SEGMENT
_rkLoader$GSCopy$ = -44					; size = 4
_value$549910 = -37					; size = 1
tv5663 = -36						; size = 4
$T550179 = -36						; size = 4
$T550098 = -36						; size = 4
_i$549398 = -36						; size = 4
__k$549797 = -32					; size = 22
__k$549672 = -32					; size = 19
__k$549422 = -28					; size = 15
__k$549940 = -24					; size = 13
__k$549547 = -24					; size = 13
__k$549297 = -24					; size = 11
__$ArrayPad$ = -4					; size = 4
_rkLoader$ = 8						; size = 4
?LoadProperty@ioCreateDummyCharBuff@@UAEXAAVioINILoader@@@Z PROC ; ioCreateDummyCharBuff::LoadProperty, COMDAT
; _this$ = ecx

; 35   : {

  00000	55		 push	 ebp
  00001	8b ec		 mov	 ebp, esp
  00003	83 ec 2c	 sub	 esp, 44			; 0000002cH
  00006	a1 00 00 00 00	 mov	 eax, DWORD PTR ___security_cookie
  0000b	33 c5		 xor	 eax, ebp
  0000d	89 45 fc	 mov	 DWORD PTR __$ArrayPad$[ebp], eax
  00010	53		 push	 ebx
  00011	56		 push	 esi
  00012	57		 push	 edi
  00013	8b 7d 08	 mov	 edi, DWORD PTR _rkLoader$[ebp]

; 36   : 	ioBuff::LoadProperty( rkLoader );

  00016	57		 push	 edi
  00017	8b f1		 mov	 esi, ecx

; 43   : 	m_bCheckCamera = rkLoader.LoadBool_e( "check_camera", false );

  00019	89 7d d4	 mov	 DWORD PTR _rkLoader$GSCopy$[ebp], edi
  0001c	e8 00 00 00 00	 call	 ?LoadProperty@ioBuff@@UAEXAAVioINILoader@@@Z ; ioBuff::LoadProperty

; 37   : 
; 38   : 	m_fAlphaRate = rkLoader.LoadFloat_e( "alpha_rate", FLOAT1 );

  00021	b8 01 00 00 00	 mov	 eax, 1

; 43   : 	m_bCheckCamera = rkLoader.LoadBool_e( "check_camera", false );

  00026	33 db		 xor	 ebx, ebx
  00028	6a 02		 push	 2
  0002a	c7 45 e8 8c 80
	9b 82		 mov	 DWORD PTR __k$549297[ebp], -2103738228 ; 829b808cH
  00031	c7 45 ec 8c b3
	99 8b		 mov	 DWORD PTR __k$549297[ebp+4], -1952861300 ; 8b99b38cH
  00038	66 c7 45 f0 99
	89		 mov	 WORD PTR __k$549297[ebp+8], 35225 ; 00008999H
  0003e	8d 4d e8	 lea	 ecx, DWORD PTR __k$549297[ebp]
  00041	88 5d f2	 mov	 BYTE PTR __k$549297[ebp+10], bl
  00044	5a		 pop	 edx
$LL108@LoadProper:

; 37   : 
; 38   : 	m_fAlphaRate = rkLoader.LoadFloat_e( "alpha_rate", FLOAT1 );

  00045	81 31 ed ec eb
	ea		 xor	 DWORD PTR [ecx], -353637139 ; eaebecedH
  0004b	83 c1 04	 add	 ecx, 4
  0004e	4a		 dec	 edx
  0004f	75 f4		 jne	 SHORT $LL108@LoadProper
  00051	c7 45 dc 08 00
	00 00		 mov	 DWORD PTR _i$549398[ebp], 8
$LL105@LoadProper:
  00058	8b 4d dc	 mov	 ecx, DWORD PTR _i$549398[ebp]
  0005b	81 e1 03 00 00
	80		 and	 ecx, -2147483645	; 80000003H
  00061	79 05		 jns	 SHORT $LN703@LoadProper
  00063	49		 dec	 ecx
  00064	83 c9 fc	 or	 ecx, -4			; fffffffcH
  00067	41		 inc	 ecx
$LN703@LoadProper:
  00068	b2 ed		 mov	 dl, -19			; ffffffedH
  0006a	2a d1		 sub	 dl, cl
  0006c	8b 4d dc	 mov	 ecx, DWORD PTR _i$549398[ebp]
  0006f	30 54 0d e8	 xor	 BYTE PTR __k$549297[ebp+ecx], dl
  00073	ff 45 dc	 inc	 DWORD PTR _i$549398[ebp]
  00076	83 7d dc 0a	 cmp	 DWORD PTR _i$549398[ebp], 10 ; 0000000aH
  0007a	7c dc		 jl	 SHORT $LL105@LoadProper
  0007c	89 45 dc	 mov	 DWORD PTR tv5663[ebp], eax
  0007f	db 45 dc	 fild	 DWORD PTR tv5663[ebp]
  00082	85 c0		 test	 eax, eax
  00084	79 06		 jns	 SHORT $LN704@LoadProper
  00086	d8 05 00 00 00
	00		 fadd	 DWORD PTR __real@4f800000
$LN704@LoadProper:
  0008c	51		 push	 ecx
  0008d	8d 45 e8	 lea	 eax, DWORD PTR __k$549297[ebp]
  00090	d9 1c 24	 fstp	 DWORD PTR [esp]
  00093	50		 push	 eax
  00094	8b cf		 mov	 ecx, edi
  00096	ff 15 00 00 00
	00		 call	 DWORD PTR __imp_?LoadFloat@ioINILoader@@QAEMPBDM@Z
  0009c	d9 9e 74 09 00
	00		 fstp	 DWORD PTR [esi+2420]
  000a2	6a 03		 push	 3

; 39   : 	m_bNoWoundState = rkLoader.LoadBool_e( "no_wound_state", false );

  000a4	c7 45 e4 83 83
	b4 9d		 mov	 DWORD PTR __k$549422[ebp], -1649114237 ; 9db48383H
  000ab	c7 45 e8 82 99
	85 8e		 mov	 DWORD PTR __k$549422[ebp+4], -1903847038 ; 8e859982H
  000b2	c7 45 ec b2 9f
	9f 8b		 mov	 DWORD PTR __k$549422[ebp+8], -1952473166 ; 8b9f9fb2H
  000b9	66 c7 45 f0 99
	89		 mov	 WORD PTR __k$549422[ebp+12], 35225 ; 00008999H
  000bf	8d 45 e4	 lea	 eax, DWORD PTR __k$549422[ebp]
  000c2	88 5d f2	 mov	 BYTE PTR __k$549422[ebp+14], bl
  000c5	59		 pop	 ecx
$LL214@LoadProper:
  000c6	81 30 ed ec eb
	ea		 xor	 DWORD PTR [eax], -353637139 ; eaebecedH
  000cc	83 c0 04	 add	 eax, 4
  000cf	49		 dec	 ecx
  000d0	75 f4		 jne	 SHORT $LL214@LoadProper
  000d2	6a 0c		 push	 12			; 0000000cH
  000d4	58		 pop	 eax
$LL211@LoadProper:
  000d5	8b c8		 mov	 ecx, eax
  000d7	81 e1 03 00 00
	80		 and	 ecx, -2147483645	; 80000003H
  000dd	79 05		 jns	 SHORT $LN705@LoadProper
  000df	49		 dec	 ecx
  000e0	83 c9 fc	 or	 ecx, -4			; fffffffcH
  000e3	41		 inc	 ecx
$LN705@LoadProper:
  000e4	b2 ed		 mov	 dl, -19			; ffffffedH
  000e6	2a d1		 sub	 dl, cl
  000e8	30 54 05 e4	 xor	 BYTE PTR __k$549422[ebp+eax], dl
  000ec	40		 inc	 eax
  000ed	83 f8 0e	 cmp	 eax, 14			; 0000000eH
  000f0	7c e3		 jl	 SHORT $LL211@LoadProper
  000f2	53		 push	 ebx
  000f3	8d 45 e4	 lea	 eax, DWORD PTR __k$549422[ebp]
  000f6	8b cf		 mov	 ecx, edi
  000f8	8b 3d 00 00 00
	00		 mov	 edi, DWORD PTR __imp_?LoadBool@ioINILoader@@QAE_NPBD_N@Z
  000fe	50		 push	 eax
  000ff	ff d7		 call	 edi
  00101	6a 03		 push	 3
  00103	88 86 78 09 00
	00		 mov	 BYTE PTR [esi+2424], al

; 40   : 	m_bHideMiniMap = rkLoader.LoadBool_e( "hide_minimap", false );

  00109	c7 45 e8 85 85
	8f 8f		 mov	 DWORD PTR __k$549547[ebp], -1886419579 ; 8f8f8585H
  00110	c7 45 ec b2 81
	82 84		 mov	 DWORD PTR __k$549547[ebp+4], -2071821902 ; 848281b2H
  00117	c7 45 f0 84 81
	8a 9a		 mov	 DWORD PTR __k$549547[ebp+8], -1702198908 ; 9a8a8184H
  0011e	8d 45 e8	 lea	 eax, DWORD PTR __k$549547[ebp]
  00121	88 5d f4	 mov	 BYTE PTR __k$549547[ebp+12], bl
  00124	59		 pop	 ecx
$LL320@LoadProper:
  00125	81 30 ed ec eb
	ea		 xor	 DWORD PTR [eax], -353637139 ; eaebecedH
  0012b	83 c0 04	 add	 eax, 4
  0012e	49		 dec	 ecx
  0012f	75 f4		 jne	 SHORT $LL320@LoadProper
  00131	8b 4d d4	 mov	 ecx, DWORD PTR _rkLoader$GSCopy$[ebp]
  00134	53		 push	 ebx
  00135	8d 45 e8	 lea	 eax, DWORD PTR __k$549547[ebp]
  00138	50		 push	 eax
  00139	ff d7		 call	 edi
  0013b	6a 04		 push	 4
  0013d	88 86 79 09 00
	00		 mov	 BYTE PTR [esi+2425], al

; 41   : 	m_bDisableDownState  = rkLoader.LoadBool_e( "disable_down_state", false );

  00143	c7 45 e0 89 85
	98 8b		 mov	 DWORD PTR __k$549672[ebp], -1952938615 ; 8b988589H
  0014a	c7 45 e4 8f 80
	8e b5		 mov	 DWORD PTR __k$549672[ebp+4], -1248952177 ; b58e808fH
  00151	c7 45 e8 89 83
	9c 84		 mov	 DWORD PTR __k$549672[ebp+8], -2070117495 ; 849c8389H
  00158	c7 45 ec b2 9f
	9f 8b		 mov	 DWORD PTR __k$549672[ebp+12], -1952473166 ; 8b9f9fb2H
  0015f	66 c7 45 f0 99
	89		 mov	 WORD PTR __k$549672[ebp+16], 35225 ; 00008999H
  00165	8d 45 e0	 lea	 eax, DWORD PTR __k$549672[ebp]
  00168	88 5d f2	 mov	 BYTE PTR __k$549672[ebp+18], bl
  0016b	59		 pop	 ecx
$LL426@LoadProper:
  0016c	81 30 ed ec eb
	ea		 xor	 DWORD PTR [eax], -353637139 ; eaebecedH
  00172	83 c0 04	 add	 eax, 4
  00175	49		 dec	 ecx
  00176	75 f4		 jne	 SHORT $LL426@LoadProper
  00178	6a 10		 push	 16			; 00000010H
  0017a	58		 pop	 eax
$LL423@LoadProper:
  0017b	8b c8		 mov	 ecx, eax
  0017d	81 e1 03 00 00
	80		 and	 ecx, -2147483645	; 80000003H
  00183	79 05		 jns	 SHORT $LN706@LoadProper
  00185	49		 dec	 ecx
  00186	83 c9 fc	 or	 ecx, -4			; fffffffcH
  00189	41		 inc	 ecx
$LN706@LoadProper:
  0018a	b2 ed		 mov	 dl, -19			; ffffffedH
  0018c	2a d1		 sub	 dl, cl
  0018e	30 54 05 e0	 xor	 BYTE PTR __k$549672[ebp+eax], dl
  00192	40		 inc	 eax
  00193	83 f8 12	 cmp	 eax, 18			; 00000012H
  00196	7c e3		 jl	 SHORT $LL423@LoadProper
  00198	8b 4d d4	 mov	 ecx, DWORD PTR _rkLoader$GSCopy$[ebp]
  0019b	53		 push	 ebx
  0019c	8d 45 e0	 lea	 eax, DWORD PTR __k$549672[ebp]
  0019f	50		 push	 eax
  001a0	ff d7		 call	 edi
  001a2	6a 05		 push	 5
  001a4	88 86 6c 09 00
	00		 mov	 BYTE PTR [esi+2412], al

; 42   : 	m_bHideFootDustEffect = rkLoader.LoadBool_e( "hide_foot_dust_effect", false );

  001aa	c7 45 e0 85 85
	8f 8f		 mov	 DWORD PTR __k$549797[ebp], -1886419579 ; 8f8f8585H
  001b1	c7 45 e4 b2 8a
	84 85		 mov	 DWORD PTR __k$549797[ebp+4], -2054911310 ; 85848ab2H
  001b8	c7 45 e8 99 b3
	8f 9f		 mov	 DWORD PTR __k$549797[ebp+8], -1617972327 ; 9f8fb399H
  001bf	c7 45 ec 9e 98
	b4 8f		 mov	 DWORD PTR __k$549797[ebp+12], -1883989858 ; 8fb4989eH
  001c6	c7 45 f0 8b 8a
	8e 89		 mov	 DWORD PTR __k$549797[ebp+16], -1987147125 ; 898e8a8bH
  001cd	8d 45 e0	 lea	 eax, DWORD PTR __k$549797[ebp]
  001d0	66 c7 45 f4 99
	00		 mov	 WORD PTR __k$549797[ebp+20], 153 ; 00000099H
  001d6	59		 pop	 ecx
$LL532@LoadProper:
  001d7	81 30 ed ec eb
	ea		 xor	 DWORD PTR [eax], -353637139 ; eaebecedH
  001dd	83 c0 04	 add	 eax, 4
  001e0	49		 dec	 ecx
  001e1	75 f4		 jne	 SHORT $LL532@LoadProper
  001e3	8b 4d d4	 mov	 ecx, DWORD PTR _rkLoader$GSCopy$[ebp]
  001e6	80 75 f4 ed	 xor	 BYTE PTR __k$549797[ebp+20], -19 ; ffffffedH
  001ea	53		 push	 ebx
  001eb	8d 45 e0	 lea	 eax, DWORD PTR __k$549797[ebp]
  001ee	50		 push	 eax
  001ef	ff d7		 call	 edi
  001f1	88 45 db	 mov	 BYTE PTR _value$549910[ebp], al
  001f4	8d 45 db	 lea	 eax, DWORD PTR _value$549910[ebp]
  001f7	50		 push	 eax
  001f8	8d 8e 7c 09 00
	00		 lea	 ecx, DWORD PTR [esi+2428]
  001fe	e8 00 00 00 00	 call	 ?EncryptValueToPool@?$CEncrypt@_N@@AAEXPBD@Z ; CEncrypt<bool>::EncryptValueToPool
  00203	6a 03		 push	 3

; 43   : 	m_bCheckCamera = rkLoader.LoadBool_e( "check_camera", false );

  00205	c7 45 e8 8e 84
	8e 89		 mov	 DWORD PTR __k$549940[ebp], -1987148658 ; 898e848eH
  0020c	c7 45 ec 86 b3
	88 8b		 mov	 DWORD PTR __k$549940[ebp+4], -1953975418 ; 8b88b386H
  00213	c7 45 f0 80 89
	99 8b		 mov	 DWORD PTR __k$549940[ebp+8], -1952872064 ; 8b998980H
  0021a	8d 45 e8	 lea	 eax, DWORD PTR __k$549940[ebp]
  0021d	88 5d f4	 mov	 BYTE PTR __k$549940[ebp+12], bl
  00220	59		 pop	 ecx
$LL640@LoadProper:
  00221	81 30 ed ec eb
	ea		 xor	 DWORD PTR [eax], -353637139 ; eaebecedH
  00227	83 c0 04	 add	 eax, 4
  0022a	49		 dec	 ecx
  0022b	75 f4		 jne	 SHORT $LL640@LoadProper
  0022d	8b 4d d4	 mov	 ecx, DWORD PTR _rkLoader$GSCopy$[ebp]
  00230	53		 push	 ebx
  00231	8d 45 e8	 lea	 eax, DWORD PTR __k$549940[ebp]
  00234	50		 push	 eax
  00235	ff d7		 call	 edi
  00237	88 86 7b 09 00
	00		 mov	 BYTE PTR [esi+2427], al

; 44   : 
; 45   : 	m_DummyCharList.clear();

  0023d	8d be ac 09 00
	00		 lea	 edi, DWORD PTR [esi+2476]
  00243	8b 47 04	 mov	 eax, DWORD PTR [edi+4]
  00246	8b 0f		 mov	 ecx, DWORD PTR [edi]
  00248	50		 push	 eax
  00249	51		 push	 ecx
  0024a	8d 45 dc	 lea	 eax, DWORD PTR $T550098[ebp]
  0024d	50		 push	 eax
  0024e	8b cf		 mov	 ecx, edi
  00250	e8 00 00 00 00	 call	 ?erase@?$vector@UtagDummyCharLoadInfo@@V?$allocator@UtagDummyCharLoadInfo@@@std@@@std@@QAE?AV?$_Vector_iterator@V?$_Vector_val@UtagDummyCharLoadInfo@@V?$allocator@UtagDummyCharLoadInfo@@@std@@@std@@@2@V?$_Vector_const_iterator@V?$_Vector_val@UtagDummyCharLoadInfo@@V?$allocator@UtagDummyCharLoadInfo@@@std@@@std@@@2@0@Z ; std::vector<tagDummyCharLoadInfo,std::allocator<tagDummyCharLoadInfo> >::erase

; 46   : 	m_vDestroyDummyCharList.clear();

  00255	8b 86 d0 09 00
	00		 mov	 eax, DWORD PTR [esi+2512]
  0025b	81 c6 cc 09 00
	00		 add	 esi, 2508		; 000009ccH
  00261	8b 0e		 mov	 ecx, DWORD PTR [esi]
  00263	50		 push	 eax
  00264	51		 push	 ecx
  00265	8d 45 dc	 lea	 eax, DWORD PTR $T550179[ebp]
  00268	50		 push	 eax
  00269	8b ce		 mov	 ecx, esi
  0026b	e8 00 00 00 00	 call	 ?erase@?$vector@VioHashString@@V?$allocator@VioHashString@@@std@@@std@@QAE?AV?$_Vector_iterator@V?$_Vector_val@VioHashString@@V?$allocator@VioHashString@@@std@@@std@@@2@V?$_Vector_const_iterator@V?$_Vector_val@VioHashString@@V?$allocator@VioHashString@@@std@@@std@@@2@0@Z ; std::vector<ioHashString,std::allocator<ioHashString> >::erase

; 47   : 
; 48   : 	Help::LoadDummyCharCreateDestroyInfo( rkLoader, m_DummyCharList, m_vDestroyDummyCharList );

  00270	56		 push	 esi
  00271	57		 push	 edi
  00272	ff 75 d4	 push	 DWORD PTR _rkLoader$GSCopy$[ebp]
  00275	e8 00 00 00 00	 call	 ?LoadDummyCharCreateDestroyInfo@Help@@YAXAAVioINILoader@@AAV?$vector@UtagDummyCharLoadInfo@@V?$allocator@UtagDummyCharLoadInfo@@@std@@@std@@AAV?$vector@VioHashString@@V?$allocator@VioHashString@@@std@@@4@@Z ; Help::LoadDummyCharCreateDestroyInfo

; 49   : }

  0027a	8b 4d fc	 mov	 ecx, DWORD PTR __$ArrayPad$[ebp]
  0027d	83 c4 0c	 add	 esp, 12			; 0000000cH
  00280	5f		 pop	 edi
  00281	5e		 pop	 esi
  00282	33 cd		 xor	 ecx, ebp
  00284	5b		 pop	 ebx
  00285	e8 00 00 00 00	 call	 @__security_check_cookie@4
  0028a	c9		 leave
  0028b	c2 04 00	 ret	 4
?LoadProperty@ioCreateDummyCharBuff@@UAEXAAVioINILoader@@@Z ENDP ; ioCreateDummyCharBuff::LoadProperty
_TEXT	ENDS
;	COMDAT xdata$x
xdata$x	SEGMENT
__unwindtable$?Clone@ioCreateDummyCharBuff@@UAEPAVioBuff@@XZ DD 0ffffffffH
	DD	FLAT:__unwindfunclet$?Clone@ioCreateDummyCharBuff@@UAEPAVioBuff@@XZ$0
__ehfuncinfo$?Clone@ioCreateDummyCharBuff@@UAEPAVioBuff@@XZ DD 019930522H
	DD	01H
	DD	FLAT:__unwindtable$?Clone@ioCreateDummyCharBuff@@UAEPAVioBuff@@XZ
	DD	2 DUP(00H)
	DD	2 DUP(00H)
	DD	00H
	DD	01H
; Function compile flags: /Ogsp
xdata$x	ENDS
;	COMDAT ?Clone@ioCreateDummyCharBuff@@UAEPAVioBuff@@XZ
_TEXT	SEGMENT
$T550232 = -16						; size = 4
__$EHRec$ = -12						; size = 12
?Clone@ioCreateDummyCharBuff@@UAEPAVioBuff@@XZ PROC	; ioCreateDummyCharBuff::Clone, COMDAT
; _this$ = ecx

; 52   : {

  00000	6a 04		 push	 4
  00002	b8 00 00 00 00	 mov	 eax, __ehhandler$?Clone@ioCreateDummyCharBuff@@UAEPAVioBuff@@XZ
  00007	e8 00 00 00 00	 call	 __EH_prolog3
  0000c	8b f1		 mov	 esi, ecx

; 53   : 	return new ioCreateDummyCharBuff( *this );

  0000e	68 dc 09 00 00	 push	 2524			; 000009dcH
  00013	e8 00 00 00 00	 call	 ??2@YAPAXI@Z		; operator new
  00018	59		 pop	 ecx
  00019	8b c8		 mov	 ecx, eax
  0001b	89 4d f0	 mov	 DWORD PTR $T550232[ebp], ecx
  0001e	33 c0		 xor	 eax, eax
  00020	89 45 fc	 mov	 DWORD PTR __$EHRec$[ebp+8], eax
  00023	3b c8		 cmp	 ecx, eax
  00025	74 06		 je	 SHORT $LN3@Clone
  00027	56		 push	 esi
  00028	e8 00 00 00 00	 call	 ??0ioCreateDummyCharBuff@@QAE@ABV0@@Z ; ioCreateDummyCharBuff::ioCreateDummyCharBuff
$LN3@Clone:

; 54   : }

  0002d	e8 00 00 00 00	 call	 __EH_epilog3
  00032	c3		 ret	 0
_TEXT	ENDS
;	COMDAT text$x
text$x	SEGMENT
__unwindfunclet$?Clone@ioCreateDummyCharBuff@@UAEPAVioBuff@@XZ$0:
  00000	ff 75 f0	 push	 DWORD PTR $T550232[ebp]
  00003	e8 00 00 00 00	 call	 ??3@YAXPAX@Z		; operator delete
  00008	59		 pop	 ecx
  00009	c3		 ret	 0
__ehhandler$?Clone@ioCreateDummyCharBuff@@UAEPAVioBuff@@XZ:
  0000a	8b 54 24 08	 mov	 edx, DWORD PTR [esp+8]
  0000e	8d 42 0c	 lea	 eax, DWORD PTR [edx+12]
  00011	8b 4a ec	 mov	 ecx, DWORD PTR [edx-20]
  00014	33 c8		 xor	 ecx, eax
  00016	e8 00 00 00 00	 call	 @__security_check_cookie@4
  0001b	b8 00 00 00 00	 mov	 eax, OFFSET __ehfuncinfo$?Clone@ioCreateDummyCharBuff@@UAEPAVioBuff@@XZ
  00020	e9 00 00 00 00	 jmp	 ___CxxFrameHandler3
text$x	ENDS
?Clone@ioCreateDummyCharBuff@@UAEPAVioBuff@@XZ ENDP	; ioCreateDummyCharBuff::Clone
EXTRN	??5SP2Packet@@QAEAAV0@AAUD3DXVECTOR3@@@Z:PROC	; SP2Packet::operator>>
EXTRN	??5SP2Packet@@QAEAAV0@AAM@Z:PROC		; SP2Packet::operator>>
EXTRN	??5SP2Packet@@QAEAAV0@AAVioHashString@@@Z:PROC	; SP2Packet::operator>>
EXTRN	??5SP2Packet@@QAEAAV0@AAH@Z:PROC		; SP2Packet::operator>>
EXTRN	__EH_epilog3_GS:PROC
EXTRN	__EH_prolog3_GS:PROC
;	COMDAT xdata$x
xdata$x	SEGMENT
__unwindtable$?ApplyBuffInfo@ioCreateDummyCharBuff@@UAEXAAVSP2Packet@@@Z DD 0ffffffffH
	DD	FLAT:__unwindfunclet$?ApplyBuffInfo@ioCreateDummyCharBuff@@UAEXAAVSP2Packet@@@Z$0
__ehfuncinfo$?ApplyBuffInfo@ioCreateDummyCharBuff@@UAEXAAVSP2Packet@@@Z DD 019930522H
	DD	01H
	DD	FLAT:__unwindtable$?ApplyBuffInfo@ioCreateDummyCharBuff@@UAEXAAVSP2Packet@@@Z
	DD	2 DUP(00H)
	DD	2 DUP(00H)
	DD	00H
	DD	01H
; Function compile flags: /Ogsp
xdata$x	ENDS
;	COMDAT ?ApplyBuffInfo@ioCreateDummyCharBuff@@UAEXAAVSP2Packet@@@Z
_TEXT	SEGMENT
$T550307 = -60						; size = 4
_iSize$ = -56						; size = 4
_kInfo$542374 = -52					; size = 36
__$EHRec$ = -12						; size = 12
_rkPacket$ = 8						; size = 4
?ApplyBuffInfo@ioCreateDummyCharBuff@@UAEXAAVSP2Packet@@@Z PROC ; ioCreateDummyCharBuff::ApplyBuffInfo, COMDAT
; _this$ = ecx

; 301  : {

  00000	6a 30		 push	 48			; 00000030H
  00002	b8 00 00 00 00	 mov	 eax, __ehhandler$?ApplyBuffInfo@ioCreateDummyCharBuff@@UAEXAAVSP2Packet@@@Z
  00007	e8 00 00 00 00	 call	 __EH_prolog3_GS
  0000c	8b 7d 08	 mov	 edi, DWORD PTR _rkPacket$[ebp]
  0000f	8b f1		 mov	 esi, ecx

; 302  : 	rkPacket >> m_iCurActiveCount;

  00011	8d 86 2c 09 00
	00		 lea	 eax, DWORD PTR [esi+2348]
  00017	50		 push	 eax
  00018	8b cf		 mov	 ecx, edi
  0001a	e8 00 00 00 00	 call	 ??5SP2Packet@@QAEAAV0@AAH@Z ; SP2Packet::operator>>

; 303  : 
; 304  : 	m_CreateDummyList.clear();

  0001f	8b 86 c0 09 00
	00		 mov	 eax, DWORD PTR [esi+2496]
  00025	8b 8e bc 09 00
	00		 mov	 ecx, DWORD PTR [esi+2492]
  0002b	50		 push	 eax
  0002c	51		 push	 ecx
  0002d	8d 45 c4	 lea	 eax, DWORD PTR $T550307[ebp]
  00030	50		 push	 eax
  00031	8d 8e bc 09 00
	00		 lea	 ecx, DWORD PTR [esi+2492]
  00037	e8 00 00 00 00	 call	 ?erase@?$vector@UtagDummyCharCreateInfo@@V?$allocator@UtagDummyCharCreateInfo@@@std@@@std@@QAE?AV?$_Vector_iterator@V?$_Vector_val@UtagDummyCharCreateInfo@@V?$allocator@UtagDummyCharCreateInfo@@@std@@@std@@@2@V?$_Vector_const_iterator@V?$_Vector_val@UtagDummyCharCreateInfo@@V?$allocator@UtagDummyCharCreateInfo@@@std@@@std@@@2@0@Z ; std::vector<tagDummyCharCreateInfo,std::allocator<tagDummyCharCreateInfo> >::erase

; 305  : 	int iSize;
; 306  : 	rkPacket >> iSize;

  0003c	8d 45 c8	 lea	 eax, DWORD PTR _iSize$[ebp]
  0003f	50		 push	 eax
  00040	8b cf		 mov	 ecx, edi
  00042	e8 00 00 00 00	 call	 ??5SP2Packet@@QAEAAV0@AAH@Z ; SP2Packet::operator>>

; 307  : 	for( int i=0; i<iSize; ++i )

  00047	33 db		 xor	 ebx, ebx
  00049	39 5d c8	 cmp	 DWORD PTR _iSize$[ebp], ebx
  0004c	7e 5a		 jle	 SHORT $LN1@ApplyBuffI
$LL3@ApplyBuffI:

; 308  : 	{
; 309  : 		DummyCharCreateInfo kInfo;

  0004e	8d 4d cc	 lea	 ecx, DWORD PTR _kInfo$542374[ebp]
  00051	e8 00 00 00 00	 call	 ??0tagDummyCharCreateInfo@@QAE@XZ ; tagDummyCharCreateInfo::tagDummyCharCreateInfo
  00056	83 65 fc 00	 and	 DWORD PTR __$EHRec$[ebp+8], 0

; 310  : 		rkPacket >> kInfo.m_DummyCharName;

  0005a	8d 45 cc	 lea	 eax, DWORD PTR _kInfo$542374[ebp]
  0005d	50		 push	 eax
  0005e	8b cf		 mov	 ecx, edi
  00060	e8 00 00 00 00	 call	 ??5SP2Packet@@QAEAAV0@AAVioHashString@@@Z ; SP2Packet::operator>>

; 311  : 		rkPacket >> kInfo.m_iDummyCharIdx;

  00065	8d 45 dc	 lea	 eax, DWORD PTR _kInfo$542374[ebp+16]
  00068	50		 push	 eax
  00069	8b cf		 mov	 ecx, edi
  0006b	e8 00 00 00 00	 call	 ??5SP2Packet@@QAEAAV0@AAH@Z ; SP2Packet::operator>>

; 312  : 		rkPacket >> kInfo.m_fDummyCharStartAngle;

  00070	8d 45 e0	 lea	 eax, DWORD PTR _kInfo$542374[ebp+20]
  00073	50		 push	 eax
  00074	8b cf		 mov	 ecx, edi
  00076	e8 00 00 00 00	 call	 ??5SP2Packet@@QAEAAV0@AAM@Z ; SP2Packet::operator>>

; 313  : 		rkPacket >> kInfo.m_vTargetPos;

  0007b	8d 45 e4	 lea	 eax, DWORD PTR _kInfo$542374[ebp+24]
  0007e	50		 push	 eax
  0007f	8b cf		 mov	 ecx, edi
  00081	e8 00 00 00 00	 call	 ??5SP2Packet@@QAEAAV0@AAUD3DXVECTOR3@@@Z ; SP2Packet::operator>>

; 314  : 		m_CreateDummyList.push_back(kInfo);

  00086	8d 45 cc	 lea	 eax, DWORD PTR _kInfo$542374[ebp]
  00089	50		 push	 eax
  0008a	8d 8e bc 09 00
	00		 lea	 ecx, DWORD PTR [esi+2492]
  00090	e8 00 00 00 00	 call	 ?push_back@?$vector@UtagDummyCharCreateInfo@@V?$allocator@UtagDummyCharCreateInfo@@@std@@@std@@QAEXABUtagDummyCharCreateInfo@@@Z ; std::vector<tagDummyCharCreateInfo,std::allocator<tagDummyCharCreateInfo> >::push_back

; 315  : 	}

  00095	83 4d fc ff	 or	 DWORD PTR __$EHRec$[ebp+8], -1
  00099	8d 4d cc	 lea	 ecx, DWORD PTR _kInfo$542374[ebp]
  0009c	ff 15 00 00 00
	00		 call	 DWORD PTR __imp_??1ioHashString@@QAE@XZ
  000a2	43		 inc	 ebx
  000a3	3b 5d c8	 cmp	 ebx, DWORD PTR _iSize$[ebp]
  000a6	7c a6		 jl	 SHORT $LL3@ApplyBuffI
$LN1@ApplyBuffI:

; 316  : }

  000a8	e8 00 00 00 00	 call	 __EH_epilog3_GS
  000ad	c2 04 00	 ret	 4
_TEXT	ENDS
;	COMDAT text$x
text$x	SEGMENT
__unwindfunclet$?ApplyBuffInfo@ioCreateDummyCharBuff@@UAEXAAVSP2Packet@@@Z$0:
  00000	8d 4d cc	 lea	 ecx, DWORD PTR _kInfo$542374[ebp]
  00003	e9 00 00 00 00	 jmp	 ??1tagDummyCharCreateInfo@@QAE@XZ
__ehhandler$?ApplyBuffInfo@ioCreateDummyCharBuff@@UAEXAAVSP2Packet@@@Z:
  00008	8b 54 24 08	 mov	 edx, DWORD PTR [esp+8]
  0000c	8d 42 0c	 lea	 eax, DWORD PTR [edx+12]
  0000f	8b 4a c0	 mov	 ecx, DWORD PTR [edx-64]
  00012	33 c8		 xor	 ecx, eax
  00014	e8 00 00 00 00	 call	 @__security_check_cookie@4
  00019	8b 4a fc	 mov	 ecx, DWORD PTR [edx-4]
  0001c	33 c8		 xor	 ecx, eax
  0001e	e8 00 00 00 00	 call	 @__security_check_cookie@4
  00023	b8 00 00 00 00	 mov	 eax, OFFSET __ehfuncinfo$?ApplyBuffInfo@ioCreateDummyCharBuff@@UAEXAAVSP2Packet@@@Z
  00028	e9 00 00 00 00	 jmp	 ___CxxFrameHandler3
text$x	ENDS
?ApplyBuffInfo@ioCreateDummyCharBuff@@UAEXAAVSP2Packet@@@Z ENDP ; ioCreateDummyCharBuff::ApplyBuffInfo
PUBLIC	_pOwner$GSCopy$
PUBLIC	__$ArrayPad$
PUBLIC	?CreateDummyChar@ioCreateDummyCharBuff@@IAEXPAVioBaseChar@@@Z ; ioCreateDummyCharBuff::CreateDummyChar
EXTRN	??1SP2Packet@@UAE@XZ:PROC			; SP2Packet::~SP2Packet
EXTRN	?SendToAllPlayingUser@P2PNetwork@@YAXAAVSP2Packet@@PAVioBaseChar@@@Z:PROC ; P2PNetwork::SendToAllPlayingUser
EXTRN	??0SP2Packet@@QAE@K@Z:PROC			; SP2Packet::SP2Packet
EXTRN	?CreateDummyChar@ioPlayStage@@QAEPAVioDummyChar@@ABVioHashString@@H0ABUD3DXVECTOR3@@MK_N@Z:PROC ; ioPlayStage::CreateDummyChar
EXTRN	?GetCurLocalIndex@ioDummyCharManager@@QAEHXZ:PROC ; ioDummyCharManager::GetCurLocalIndex
EXTRN	__imp_?UNIT_Y@ioMath@@2UD3DXVECTOR3@@A:BYTE
EXTRN	_D3DXVec3Normalize@8:PROC
EXTRN	__imp_??D@YA?AUD3DXVECTOR3@@ABUD3DXQUATERNION@@ABU0@@Z:PROC
EXTRN	?DestroyDummyCharByNameList@ioDummyCharManager@@QAEXPAVioBaseChar@@AAV?$vector@VioHashString@@V?$allocator@VioHashString@@@std@@@std@@@Z:PROC ; ioDummyCharManager::DestroyDummyCharByNameList
EXTRN	__chkstk:PROC
;	COMDAT xdata$x
; File c:\program files (x86)\microsoft visual studio 10.0\vc\include\vector
xdata$x	SEGMENT
__unwindtable$?CreateDummyChar@ioCreateDummyCharBuff@@IAEXPAVioBaseChar@@@Z DD 0ffffffffH
	DD	FLAT:__unwindfunclet$?CreateDummyChar@ioCreateDummyCharBuff@@IAEXPAVioBaseChar@@@Z$0
	DD	00H
	DD	FLAT:__unwindfunclet$?CreateDummyChar@ioCreateDummyCharBuff@@IAEXPAVioBaseChar@@@Z$1
	DD	0ffffffffH
	DD	FLAT:__unwindfunclet$?CreateDummyChar@ioCreateDummyCharBuff@@IAEXPAVioBaseChar@@@Z$2
__ehfuncinfo$?CreateDummyChar@ioCreateDummyCharBuff@@IAEXPAVioBaseChar@@@Z DD 019930522H
	DD	03H
	DD	FLAT:__unwindtable$?CreateDummyChar@ioCreateDummyCharBuff@@IAEXPAVioBaseChar@@@Z
	DD	2 DUP(00H)
	DD	2 DUP(00H)
	DD	00H
	DD	01H
; Function compile flags: /Ogsp
; File d:\lost saga for developer\youtube\tutorial\source\src\lsclient\iocreatedummycharbuff.cpp
xdata$x	ENDS
;	COMDAT ?CreateDummyChar@ioCreateDummyCharBuff@@IAEXPAVioBaseChar@@@Z
_TEXT	SEGMENT
_szDummyCharName$542396 = -32944			; size = 16
$T550481 = -32928					; size = 4
_pStage$ = -32924					; size = 4
$T550482 = -32920					; size = 4
_fStartAngle$542400 = -32916				; size = 4
tv792 = -32912						; size = 4
_pOwner$GSCopy$ = -32908				; size = 4
_fSideOffset$542399 = -32904				; size = 4
tv1148 = -32900						; size = 4
$T550480 = -32900					; size = 4
$T550416 = -32900					; size = 4
tv1161 = -32896						; size = 4
_iCreateCnt$ = -32896					; size = 4
_kPacket$ = -32892					; size = 32792
_kInfo$542406 = -100					; size = 36
$T542388 = -64						; size = 12
_vSideDir$ = -52					; size = 12
_v$550458 = -40						; size = 12
_vTargetPos$542401 = -40				; size = 12
_vDir$ = -28						; size = 12
__$ArrayPad$ = -16					; size = 4
__$EHRec$ = -12						; size = 12
_pOwner$ = 8						; size = 4
?CreateDummyChar@ioCreateDummyCharBuff@@IAEXPAVioBaseChar@@@Z PROC ; ioCreateDummyCharBuff::CreateDummyChar, COMDAT
; _this$ = ecx

; 319  : {

  00000	55		 push	 ebp
  00001	8b ec		 mov	 ebp, esp
  00003	6a ff		 push	 -1
  00005	68 00 00 00 00	 push	 __ehhandler$?CreateDummyChar@ioCreateDummyCharBuff@@IAEXPAVioBaseChar@@@Z
  0000a	64 a1 00 00 00
	00		 mov	 eax, DWORD PTR fs:0
  00010	50		 push	 eax
  00011	b8 a4 80 00 00	 mov	 eax, 32932		; 000080a4H
  00016	e8 00 00 00 00	 call	 __chkstk
  0001b	a1 00 00 00 00	 mov	 eax, DWORD PTR ___security_cookie
  00020	33 c5		 xor	 eax, ebp
  00022	89 45 f0	 mov	 DWORD PTR __$ArrayPad$[ebp], eax
  00025	53		 push	 ebx
  00026	56		 push	 esi
  00027	57		 push	 edi
  00028	50		 push	 eax
  00029	8d 45 f4	 lea	 eax, DWORD PTR __$EHRec$[ebp]
  0002c	64 a3 00 00 00
	00		 mov	 DWORD PTR fs:0, eax
  00032	8b 75 08	 mov	 esi, DWORD PTR _pOwner$[ebp]
  00035	8b d9		 mov	 ebx, ecx

; 365  : 
; 366  : 	int iCreateCnt = m_CreateDummyList.size();

  00037	89 b5 74 7f ff
	ff		 mov	 DWORD PTR _pOwner$GSCopy$[ebp], esi
  0003d	85 f6		 test	 esi, esi
  0003f	0f 84 c1 04 00
	00		 je	 $LN12@CreateDumm

; 320  : 	if( !pOwner ) return;
; 321  : 	ioPlayStage *pStage = pOwner->GetCreator();

  00045	8b 86 44 03 00
	00		 mov	 eax, DWORD PTR [esi+836]
  0004b	89 85 64 7f ff
	ff		 mov	 DWORD PTR _pStage$[ebp], eax

; 322  : 	if( !pStage ) return;

  00051	85 c0		 test	 eax, eax
  00053	0f 84 ad 04 00
	00		 je	 $LN12@CreateDumm

; 323  : 	if( !pOwner->IsNeedProcess() )

  00059	8b 06		 mov	 eax, DWORD PTR [esi]
  0005b	8b ce		 mov	 ecx, esi
  0005d	ff 90 00 01 00
	00		 call	 DWORD PTR [eax+256]
  00063	84 c0		 test	 al, al
  00065	0f 84 9b 04 00
	00		 je	 $LN12@CreateDumm

; 324  : 		return;
; 325  : 	if( m_DummyCharList.empty() )

  0006b	8b 83 ac 09 00
	00		 mov	 eax, DWORD PTR [ebx+2476]
  00071	3b 83 b0 09 00
	00		 cmp	 eax, DWORD PTR [ebx+2480]
  00077	0f 84 89 04 00
	00		 je	 $LN12@CreateDumm

; 326  : 		return;
; 327  : 
; 328  : 	g_DummyCharMgr.DestroyDummyCharByNameList( pOwner, m_vDestroyDummyCharList );

  0007d	8d 83 cc 09 00
	00		 lea	 eax, DWORD PTR [ebx+2508]
  00083	50		 push	 eax
  00084	56		 push	 esi
  00085	e8 00 00 00 00	 call	 ?GetSingleton@ioDummyCharManager@@SAAAV1@XZ ; ioDummyCharManager::GetSingleton
  0008a	8b c8		 mov	 ecx, eax
  0008c	e8 00 00 00 00	 call	 ?DestroyDummyCharByNameList@ioDummyCharManager@@QAEXPAVioBaseChar@@AAV?$vector@VioHashString@@V?$allocator@VioHashString@@@std@@@std@@@Z ; ioDummyCharManager::DestroyDummyCharByNameList

; 329  : 
; 330  : 	m_CreateDummyList.clear();

  00091	8d 8b bc 09 00
	00		 lea	 ecx, DWORD PTR [ebx+2492]
  00097	8b 41 04	 mov	 eax, DWORD PTR [ecx+4]
  0009a	8b 11		 mov	 edx, DWORD PTR [ecx]
  0009c	50		 push	 eax
  0009d	52		 push	 edx
  0009e	8d 85 7c 7f ff
	ff		 lea	 eax, DWORD PTR $T550416[ebp]
  000a4	50		 push	 eax
  000a5	e8 00 00 00 00	 call	 ?erase@?$vector@UtagDummyCharCreateInfo@@V?$allocator@UtagDummyCharCreateInfo@@@std@@@std@@QAE?AV?$_Vector_iterator@V?$_Vector_val@UtagDummyCharCreateInfo@@V?$allocator@UtagDummyCharCreateInfo@@@std@@@std@@@2@V?$_Vector_const_iterator@V?$_Vector_val@UtagDummyCharCreateInfo@@V?$allocator@UtagDummyCharCreateInfo@@@std@@@std@@@2@0@Z ; std::vector<tagDummyCharCreateInfo,std::allocator<tagDummyCharCreateInfo> >::erase

; 331  : 
; 332  : 	D3DXVECTOR3 vDir = pOwner->GetTargetRot() * D3DXVECTOR3( 0.0f, 0.0f, -FLOAT1 );

  000aa	b8 01 00 00 00	 mov	 eax, 1
  000af	0f 57 c0	 xorps	 xmm0, xmm0
  000b2	89 85 7c 7f ff
	ff		 mov	 DWORD PTR tv1148[ebp], eax
  000b8	db 85 7c 7f ff
	ff		 fild	 DWORD PTR tv1148[ebp]
  000be	f3 0f 11 45 c0	 movss	 DWORD PTR $T542388[ebp], xmm0
  000c3	f3 0f 11 45 c4	 movss	 DWORD PTR $T542388[ebp+4], xmm0
  000c8	85 c0		 test	 eax, eax
  000ca	79 06		 jns	 SHORT $LN100@CreateDumm
  000cc	d8 05 00 00 00
	00		 fadd	 DWORD PTR __real@4f800000
$LN100@CreateDumm:
  000d2	8d 45 c0	 lea	 eax, DWORD PTR $T542388[ebp]
  000d5	d9 e0		 fchs
  000d7	50		 push	 eax
  000d8	d9 5d c8	 fstp	 DWORD PTR $T542388[ebp+8]
  000db	81 c6 a4 06 00
	00		 add	 esi, 1700		; 000006a4H
  000e1	8d 45 e4	 lea	 eax, DWORD PTR _vDir$[ebp]
  000e4	56		 push	 esi
  000e5	50		 push	 eax
  000e6	ff 15 00 00 00
	00		 call	 DWORD PTR __imp_??D@YA?AUD3DXVECTOR3@@ABUD3DXQUATERNION@@ABU0@@Z
  000ec	83 c4 0c	 add	 esp, 12			; 0000000cH

; 333  : 	D3DXVec3Normalize( &vDir, &vDir );

  000ef	8d 45 e4	 lea	 eax, DWORD PTR _vDir$[ebp]
  000f2	50		 push	 eax
  000f3	50		 push	 eax
  000f4	e8 00 00 00 00	 call	 _D3DXVec3Normalize@8

; 334  : 
; 335  : 	D3DXVECTOR3 vSideDir;
; 336  : 	D3DXVec3Cross( &vSideDir, &ioMath::UNIT_Y, &vDir );

  000f9	f3 0f 10 5d ec	 movss	 xmm3, DWORD PTR _vDir$[ebp+8]
  000fe	a1 00 00 00 00	 mov	 eax, DWORD PTR __imp_?UNIT_Y@ioMath@@2UD3DXVECTOR3@@A
  00103	f3 0f 10 40 04	 movss	 xmm0, DWORD PTR [eax+4]
  00108	f3 0f 10 48 08	 movss	 xmm1, DWORD PTR [eax+8]
  0010d	f3 0f 10 65 e8	 movss	 xmm4, DWORD PTR _vDir$[ebp+4]
  00112	0f 5a d0	 cvtps2pd xmm2, xmm0
  00115	0f 5a db	 cvtps2pd xmm3, xmm3
  00118	f2 0f 59 d3	 mulsd	 xmm2, xmm3
  0011c	0f 5a e4	 cvtps2pd xmm4, xmm4
  0011f	0f 5a c0	 cvtps2pd xmm0, xmm0
  00122	8d 75 d8	 lea	 esi, DWORD PTR _v$550458[ebp]
  00125	8d 7d cc	 lea	 edi, DWORD PTR _vSideDir$[ebp]
  00128	0f 5a d9	 cvtps2pd xmm3, xmm1
  0012b	f2 0f 59 dc	 mulsd	 xmm3, xmm4
  0012f	f3 0f 10 65 ec	 movss	 xmm4, DWORD PTR _vDir$[ebp+8]
  00134	f2 0f 5c d3	 subsd	 xmm2, xmm3
  00138	f3 0f 10 5d e4	 movss	 xmm3, DWORD PTR _vDir$[ebp]
  0013d	0f 5a db	 cvtps2pd xmm3, xmm3
  00140	66 0f 5a d2	 cvtpd2ps xmm2, xmm2
  00144	f3 0f 11 55 d8	 movss	 DWORD PTR _v$550458[ebp], xmm2
  00149	f3 0f 10 10	 movss	 xmm2, DWORD PTR [eax]
  0014d	0f 5a c9	 cvtps2pd xmm1, xmm1
  00150	f2 0f 59 cb	 mulsd	 xmm1, xmm3
  00154	0f 5a da	 cvtps2pd xmm3, xmm2
  00157	0f 5a e4	 cvtps2pd xmm4, xmm4
  0015a	f2 0f 59 dc	 mulsd	 xmm3, xmm4
  0015e	f2 0f 5c cb	 subsd	 xmm1, xmm3
  00162	66 0f 5a c9	 cvtpd2ps xmm1, xmm1
  00166	f3 0f 11 4d dc	 movss	 DWORD PTR _v$550458[ebp+4], xmm1
  0016b	0f 57 c9	 xorps	 xmm1, xmm1
  0016e	0f 5a ca	 cvtps2pd xmm1, xmm2
  00171	f3 0f 10 55 e8	 movss	 xmm2, DWORD PTR _vDir$[ebp+4]
  00176	0f 5a d2	 cvtps2pd xmm2, xmm2
  00179	f2 0f 59 ca	 mulsd	 xmm1, xmm2
  0017d	f3 0f 10 55 e4	 movss	 xmm2, DWORD PTR _vDir$[ebp]
  00182	0f 5a d2	 cvtps2pd xmm2, xmm2
  00185	f2 0f 59 c2	 mulsd	 xmm0, xmm2
  00189	f2 0f 5c c8	 subsd	 xmm1, xmm0
  0018d	0f 57 c0	 xorps	 xmm0, xmm0
  00190	66 0f 5a c1	 cvtpd2ps xmm0, xmm1
  00194	f3 0f 11 45 e0	 movss	 DWORD PTR _v$550458[ebp+8], xmm0
  00199	a5		 movsd

; 337  : 	D3DXVec3Normalize( &vSideDir, &vSideDir );

  0019a	8d 45 cc	 lea	 eax, DWORD PTR _vSideDir$[ebp]
  0019d	a5		 movsd
  0019e	50		 push	 eax
  0019f	50		 push	 eax
  001a0	a5		 movsd
  001a1	e8 00 00 00 00	 call	 _D3DXVec3Normalize@8

; 338  : 
; 339  : 	int iSize = m_DummyCharList.size();

  001a6	8b 83 b0 09 00
	00		 mov	 eax, DWORD PTR [ebx+2480]
  001ac	2b 83 ac 09 00
	00		 sub	 eax, DWORD PTR [ebx+2476]
  001b2	6a 1c		 push	 28			; 0000001cH
  001b4	99		 cdq
  001b5	59		 pop	 ecx
  001b6	f7 f9		 idiv	 ecx

; 340  : 	for( int i=0; i < iSize; ++i )

  001b8	85 c0		 test	 eax, eax
  001ba	0f 8e 4f 02 00
	00		 jle	 $LN5@CreateDumm

; 326  : 		return;
; 327  : 
; 328  : 	g_DummyCharMgr.DestroyDummyCharByNameList( pOwner, m_vDestroyDummyCharList );

  001c0	83 a5 80 7f ff
	ff 00		 and	 DWORD PTR tv1161[ebp], 0
  001c7	89 85 70 7f ff
	ff		 mov	 DWORD PTR tv792[ebp], eax
$LL98@CreateDumm:

; 341  : 	{
; 342  : 		ioHashString szDummyCharName = m_DummyCharList[i].m_DummyCharName;

  001cd	8b 83 ac 09 00
	00		 mov	 eax, DWORD PTR [ebx+2476]
  001d3	03 85 80 7f ff
	ff		 add	 eax, DWORD PTR tv1161[ebp]
  001d9	8b b5 74 7f ff
	ff		 mov	 esi, DWORD PTR _pOwner$GSCopy$[ebp]
  001df	50		 push	 eax
  001e0	8d 8d 50 7f ff
	ff		 lea	 ecx, DWORD PTR _szDummyCharName$542396[ebp]
  001e6	ff 15 00 00 00
	00		 call	 DWORD PTR __imp_??0ioHashString@@QAE@ABV0@@Z
  001ec	83 65 fc 00	 and	 DWORD PTR __$EHRec$[ebp+8], 0

; 343  : 		int iCurIndex = g_DummyCharMgr.GetCurLocalIndex();

  001f0	e8 00 00 00 00	 call	 ?GetSingleton@ioDummyCharManager@@SAAAV1@XZ ; ioDummyCharManager::GetSingleton
  001f5	8b c8		 mov	 ecx, eax
  001f7	e8 00 00 00 00	 call	 ?GetCurLocalIndex@ioDummyCharManager@@QAEHXZ ; ioDummyCharManager::GetCurLocalIndex

; 344  : 		float fOffset = m_DummyCharList[i].m_fDummyCharOffset;

  001fc	8b 8d 80 7f ff
	ff		 mov	 ecx, DWORD PTR tv1161[ebp]
  00202	8b f8		 mov	 edi, eax
  00204	8b 83 ac 09 00
	00		 mov	 eax, DWORD PTR [ebx+2476]
  0020a	f3 0f 10 44 08
	10		 movss	 xmm0, DWORD PTR [eax+ecx+16]

; 345  : 		float fSideOffset = m_DummyCharList[i].m_fDummyCharSideOffset;

  00210	f3 0f 10 4c 08
	14		 movss	 xmm1, DWORD PTR [eax+ecx+20]
  00216	f3 0f 11 8d 78
	7f ff ff	 movss	 DWORD PTR _fSideOffset$542399[ebp], xmm1

; 346  : 		float fStartAngle = m_DummyCharList[i].m_fDummyCharStartAngle;

  0021e	f3 0f 10 4c 08
	18		 movss	 xmm1, DWORD PTR [eax+ecx+24]

; 347  : 
; 348  : 		D3DXVECTOR3 vTargetPos = pOwner->GetWorldPosition() + (fOffset * vDir);

  00224	8b 06		 mov	 eax, DWORD PTR [esi]
  00226	f3 0f 11 8d 6c
	7f ff ff	 movss	 DWORD PTR _fStartAngle$542400[ebp], xmm1
  0022e	f3 0f 10 4d e4	 movss	 xmm1, DWORD PTR _vDir$[ebp]
  00233	0f 5a c9	 cvtps2pd xmm1, xmm1
  00236	0f 5a d0	 cvtps2pd xmm2, xmm0
  00239	f2 0f 59 ca	 mulsd	 xmm1, xmm2
  0023d	66 0f 5a c9	 cvtpd2ps xmm1, xmm1
  00241	f3 0f 11 8d 68
	7f ff ff	 movss	 DWORD PTR $T550482[ebp], xmm1
  00249	f3 0f 10 4d e8	 movss	 xmm1, DWORD PTR _vDir$[ebp+4]
  0024e	0f 5a c9	 cvtps2pd xmm1, xmm1
  00251	0f 5a d0	 cvtps2pd xmm2, xmm0
  00254	f2 0f 59 ca	 mulsd	 xmm1, xmm2
  00258	66 0f 5a c9	 cvtpd2ps xmm1, xmm1
  0025c	0f 5a c0	 cvtps2pd xmm0, xmm0
  0025f	f3 0f 11 8d 60
	7f ff ff	 movss	 DWORD PTR $T550481[ebp], xmm1
  00267	f3 0f 10 4d ec	 movss	 xmm1, DWORD PTR _vDir$[ebp+8]
  0026c	0f 5a c9	 cvtps2pd xmm1, xmm1
  0026f	f2 0f 59 c8	 mulsd	 xmm1, xmm0
  00273	8b ce		 mov	 ecx, esi
  00275	66 0f 5a c1	 cvtpd2ps xmm0, xmm1
  00279	f3 0f 11 85 7c
	7f ff ff	 movss	 DWORD PTR $T550480[ebp], xmm0
  00281	ff 50 70	 call	 DWORD PTR [eax+112]
  00284	f3 0f 10 85 68
	7f ff ff	 movss	 xmm0, DWORD PTR $T550482[ebp]
  0028c	f3 0f 10 08	 movss	 xmm1, DWORD PTR [eax]
  00290	f3 0f 10 95 60
	7f ff ff	 movss	 xmm2, DWORD PTR $T550481[ebp]
  00298	f3 0f 10 9d 7c
	7f ff ff	 movss	 xmm3, DWORD PTR $T550480[ebp]

; 349  : 		vTargetPos += fSideOffset * vSideDir;

  002a0	f3 0f 10 a5 78
	7f ff ff	 movss	 xmm4, DWORD PTR _fSideOffset$542399[ebp]
  002a8	f3 0f 10 ad 78
	7f ff ff	 movss	 xmm5, DWORD PTR _fSideOffset$542399[ebp]
  002b0	f3 0f 10 b5 78
	7f ff ff	 movss	 xmm6, DWORD PTR _fSideOffset$542399[ebp]
  002b8	0f 5a c9	 cvtps2pd xmm1, xmm1
  002bb	0f 5a c0	 cvtps2pd xmm0, xmm0
  002be	f2 0f 58 c1	 addsd	 xmm0, xmm1
  002c2	f3 0f 10 48 04	 movss	 xmm1, DWORD PTR [eax+4]
  002c7	0f 5a d2	 cvtps2pd xmm2, xmm2
  002ca	0f 5a db	 cvtps2pd xmm3, xmm3
  002cd	0f 5a c9	 cvtps2pd xmm1, xmm1
  002d0	f2 0f 58 ca	 addsd	 xmm1, xmm2
  002d4	f3 0f 10 50 08	 movss	 xmm2, DWORD PTR [eax+8]
  002d9	0f 5a d2	 cvtps2pd xmm2, xmm2
  002dc	f2 0f 58 d3	 addsd	 xmm2, xmm3
  002e0	f3 0f 10 5d cc	 movss	 xmm3, DWORD PTR _vSideDir$[ebp]
  002e5	0f 5a e4	 cvtps2pd xmm4, xmm4
  002e8	0f 5a db	 cvtps2pd xmm3, xmm3
  002eb	f2 0f 59 dc	 mulsd	 xmm3, xmm4
  002ef	f3 0f 10 65 d0	 movss	 xmm4, DWORD PTR _vSideDir$[ebp+4]
  002f4	f2 0f 5a c0	 cvtsd2ss xmm0, xmm0
  002f8	0f 5a ed	 cvtps2pd xmm5, xmm5
  002fb	f3 0f 5a c0	 cvtss2sd xmm0, xmm0
  002ff	0f 5a e4	 cvtps2pd xmm4, xmm4
  00302	f2 0f 59 e5	 mulsd	 xmm4, xmm5
  00306	f3 0f 10 6d d4	 movss	 xmm5, DWORD PTR _vSideDir$[ebp+8]
  0030b	66 0f 5a db	 cvtpd2ps xmm3, xmm3
  0030f	0f 5a ed	 cvtps2pd xmm5, xmm5
  00312	f3 0f 5a db	 cvtss2sd xmm3, xmm3
  00316	0f 5a f6	 cvtps2pd xmm6, xmm6
  00319	f2 0f 58 d8	 addsd	 xmm3, xmm0
  0031d	f2 0f 59 ee	 mulsd	 xmm5, xmm6
  00321	66 0f 5a c3	 cvtpd2ps xmm0, xmm3
  00325	66 0f 5a c9	 cvtpd2ps xmm1, xmm1
  00329	66 0f 5a d2	 cvtpd2ps xmm2, xmm2
  0032d	66 0f 5a e4	 cvtpd2ps xmm4, xmm4
  00331	66 0f 5a ed	 cvtpd2ps xmm5, xmm5
  00335	f3 0f 11 45 d8	 movss	 DWORD PTR _vTargetPos$542401[ebp], xmm0
  0033a	0f 57 c0	 xorps	 xmm0, xmm0
  0033d	f3 0f 5a c4	 cvtss2sd xmm0, xmm4
  00341	f3 0f 5a c9	 cvtss2sd xmm1, xmm1
  00345	f2 0f 58 c1	 addsd	 xmm0, xmm1
  00349	66 0f 5a c0	 cvtpd2ps xmm0, xmm0
  0034d	f3 0f 11 45 dc	 movss	 DWORD PTR _vTargetPos$542401[ebp+4], xmm0

; 350  : 
; 351  : 		ioDummyChar *pDummy = pStage->CreateDummyChar( szDummyCharName, iCurIndex,
; 352  : 														pOwner->GetCharName(),
; 353  : 														vTargetPos,
; 354  : 														fStartAngle,
; 355  : 														0, true );

  00352	6a 01		 push	 1
  00354	0f 57 c0	 xorps	 xmm0, xmm0
  00357	6a 00		 push	 0
  00359	f3 0f 5a c5	 cvtss2sd xmm0, xmm5
  0035d	51		 push	 ecx
  0035e	8b 8d 64 7f ff
	ff		 mov	 ecx, DWORD PTR _pStage$[ebp]
  00364	0f 57 c9	 xorps	 xmm1, xmm1
  00367	f3 0f 5a ca	 cvtss2sd xmm1, xmm2
  0036b	f2 0f 58 c1	 addsd	 xmm0, xmm1
  0036f	66 0f 5a c0	 cvtpd2ps xmm0, xmm0
  00373	f3 0f 11 45 e0	 movss	 DWORD PTR _vTargetPos$542401[ebp+8], xmm0
  00378	f3 0f 10 85 6c
	7f ff ff	 movss	 xmm0, DWORD PTR _fStartAngle$542400[ebp]
  00380	f3 0f 11 04 24	 movss	 DWORD PTR [esp], xmm0
  00385	8d 45 d8	 lea	 eax, DWORD PTR _vTargetPos$542401[ebp]
  00388	50		 push	 eax
  00389	81 c6 d4 02 00
	00		 add	 esi, 724		; 000002d4H
  0038f	56		 push	 esi
  00390	57		 push	 edi
  00391	8d 85 50 7f ff
	ff		 lea	 eax, DWORD PTR _szDummyCharName$542396[ebp]
  00397	50		 push	 eax
  00398	e8 00 00 00 00	 call	 ?CreateDummyChar@ioPlayStage@@QAEPAVioDummyChar@@ABVioHashString@@H0ABUD3DXVECTOR3@@MK_N@Z ; ioPlayStage::CreateDummyChar

; 356  : 
; 357  : 		DummyCharCreateInfo kInfo;

  0039d	8d 4d 9c	 lea	 ecx, DWORD PTR _kInfo$542406[ebp]
  003a0	e8 00 00 00 00	 call	 ??0tagDummyCharCreateInfo@@QAE@XZ ; tagDummyCharCreateInfo::tagDummyCharCreateInfo

; 358  : 		kInfo.m_DummyCharName = szDummyCharName;

  003a5	8d 85 50 7f ff
	ff		 lea	 eax, DWORD PTR _szDummyCharName$542396[ebp]
  003ab	50		 push	 eax
  003ac	8d 4d 9c	 lea	 ecx, DWORD PTR _kInfo$542406[ebp]
  003af	c6 45 fc 01	 mov	 BYTE PTR __$EHRec$[ebp+8], 1
  003b3	ff 15 00 00 00
	00		 call	 DWORD PTR __imp_??4ioHashString@@QAEAAV0@ABV0@@Z

; 359  : 		kInfo.m_iDummyCharIdx = iCurIndex;
; 360  : 		kInfo.m_fDummyCharStartAngle = fStartAngle;

  003b9	f3 0f 10 85 6c
	7f ff ff	 movss	 xmm0, DWORD PTR _fStartAngle$542400[ebp]
  003c1	89 7d ac	 mov	 DWORD PTR _kInfo$542406[ebp+16], edi
  003c4	f3 0f 11 45 b0	 movss	 DWORD PTR _kInfo$542406[ebp+20], xmm0

; 361  : 		kInfo.m_vTargetPos = vTargetPos;

  003c9	8d 75 d8	 lea	 esi, DWORD PTR _vTargetPos$542401[ebp]
  003cc	8d 7d b4	 lea	 edi, DWORD PTR _kInfo$542406[ebp+24]
  003cf	a5		 movsd
  003d0	a5		 movsd

; 362  : 
; 363  : 		m_CreateDummyList.push_back( kInfo );

  003d1	8d 45 9c	 lea	 eax, DWORD PTR _kInfo$542406[ebp]
  003d4	50		 push	 eax
  003d5	8d 8b bc 09 00
	00		 lea	 ecx, DWORD PTR [ebx+2492]
  003db	a5		 movsd
  003dc	e8 00 00 00 00	 call	 ?push_back@?$vector@UtagDummyCharCreateInfo@@V?$allocator@UtagDummyCharCreateInfo@@@std@@@std@@QAEXABUtagDummyCharCreateInfo@@@Z ; std::vector<tagDummyCharCreateInfo,std::allocator<tagDummyCharCreateInfo> >::push_back

; 364  : 	}

  003e1	8b 35 00 00 00
	00		 mov	 esi, DWORD PTR __imp_??1ioHashString@@QAE@XZ
  003e7	8d 4d 9c	 lea	 ecx, DWORD PTR _kInfo$542406[ebp]
  003ea	c6 45 fc 00	 mov	 BYTE PTR __$EHRec$[ebp+8], 0
  003ee	ff d6		 call	 esi
  003f0	83 4d fc ff	 or	 DWORD PTR __$EHRec$[ebp+8], -1
  003f4	8d 8d 50 7f ff
	ff		 lea	 ecx, DWORD PTR _szDummyCharName$542396[ebp]
  003fa	ff d6		 call	 esi
  003fc	83 85 80 7f ff
	ff 1c		 add	 DWORD PTR tv1161[ebp], 28 ; 0000001cH
  00403	ff 8d 70 7f ff
	ff		 dec	 DWORD PTR tv792[ebp]
  00409	0f 85 be fd ff
	ff		 jne	 $LL98@CreateDumm
$LN5@CreateDumm:

; 365  : 
; 366  : 	int iCreateCnt = m_CreateDummyList.size();

  0040f	8d b3 bc 09 00
	00		 lea	 esi, DWORD PTR [ebx+2492]
  00415	8b 46 04	 mov	 eax, DWORD PTR [esi+4]
  00418	2b 06		 sub	 eax, DWORD PTR [esi]
  0041a	6a 24		 push	 36			; 00000024H
  0041c	59		 pop	 ecx
  0041d	99		 cdq
  0041e	f7 f9		 idiv	 ecx

; 367  : 	SP2Packet kPacket( CUPK_APPLY_EXTRA_BUFF_INFO );

  00420	68 45 42 00 00	 push	 16965			; 00004245H
  00425	8d 8d 84 7f ff
	ff		 lea	 ecx, DWORD PTR _kPacket$[ebp]
  0042b	89 85 80 7f ff
	ff		 mov	 DWORD PTR _iCreateCnt$[ebp], eax
  00431	e8 00 00 00 00	 call	 ??0SP2Packet@@QAE@K@Z	; SP2Packet::SP2Packet

; 368  : 	kPacket << pOwner->GetCharName();

  00436	8b bd 74 7f ff
	ff		 mov	 edi, DWORD PTR _pOwner$GSCopy$[ebp]
  0043c	8d 87 d4 02 00
	00		 lea	 eax, DWORD PTR [edi+724]
  00442	50		 push	 eax
  00443	8d 8d 84 7f ff
	ff		 lea	 ecx, DWORD PTR _kPacket$[ebp]
  00449	c7 45 fc 02 00
	00 00		 mov	 DWORD PTR __$EHRec$[ebp+8], 2
  00450	e8 00 00 00 00	 call	 ??6SP2Packet@@QAEAAV0@ABVioHashString@@@Z ; SP2Packet::operator<<

; 369  : 	kPacket << GetName();

  00455	81 c3 34 02 00
	00		 add	 ebx, 564		; 00000234H
  0045b	53		 push	 ebx
  0045c	8d 8d 84 7f ff
	ff		 lea	 ecx, DWORD PTR _kPacket$[ebp]
  00462	e8 00 00 00 00	 call	 ??6SP2Packet@@QAEAAV0@ABVioHashString@@@Z ; SP2Packet::operator<<

; 370  : 	kPacket << iCreateCnt;

  00467	ff b5 80 7f ff
	ff		 push	 DWORD PTR _iCreateCnt$[ebp]
  0046d	8d 8d 84 7f ff
	ff		 lea	 ecx, DWORD PTR _kPacket$[ebp]
  00473	e8 00 00 00 00	 call	 ??6SP2Packet@@QAEAAV0@H@Z ; SP2Packet::operator<<

; 371  : 	if( pOwner->IsNeedSendNetwork() && iCreateCnt > 0 )

  00478	8b 07		 mov	 eax, DWORD PTR [edi]
  0047a	8b cf		 mov	 ecx, edi
  0047c	ff 90 04 01 00
	00		 call	 DWORD PTR [eax+260]
  00482	84 c0		 test	 al, al
  00484	74 71		 je	 SHORT $LN4@CreateDumm
  00486	33 db		 xor	 ebx, ebx
  00488	39 9d 80 7f ff
	ff		 cmp	 DWORD PTR _iCreateCnt$[ebp], ebx
  0048e	7e 67		 jle	 SHORT $LN4@CreateDumm

; 372  : 	{
; 373  : 		for( int i=0; i<iCreateCnt; ++i )

  00490	8b bd 80 7f ff
	ff		 mov	 edi, DWORD PTR _iCreateCnt$[ebp]
$LL3@CreateDumm:

; 374  : 		{
; 375  : 			kPacket << m_CreateDummyList[i].m_DummyCharName;

  00496	8b 06		 mov	 eax, DWORD PTR [esi]
  00498	03 c3		 add	 eax, ebx
  0049a	50		 push	 eax
  0049b	8d 8d 84 7f ff
	ff		 lea	 ecx, DWORD PTR _kPacket$[ebp]
  004a1	e8 00 00 00 00	 call	 ??6SP2Packet@@QAEAAV0@ABVioHashString@@@Z ; SP2Packet::operator<<

; 376  : 			kPacket << m_CreateDummyList[i].m_iDummyCharIdx;

  004a6	8b 06		 mov	 eax, DWORD PTR [esi]
  004a8	ff 74 18 10	 push	 DWORD PTR [eax+ebx+16]
  004ac	8d 8d 84 7f ff
	ff		 lea	 ecx, DWORD PTR _kPacket$[ebp]
  004b2	e8 00 00 00 00	 call	 ??6SP2Packet@@QAEAAV0@H@Z ; SP2Packet::operator<<

; 377  : 			kPacket << m_CreateDummyList[i].m_vTargetPos;

  004b7	8b 06		 mov	 eax, DWORD PTR [esi]
  004b9	8d 44 18 18	 lea	 eax, DWORD PTR [eax+ebx+24]
  004bd	50		 push	 eax
  004be	8d 8d 84 7f ff
	ff		 lea	 ecx, DWORD PTR _kPacket$[ebp]
  004c4	e8 00 00 00 00	 call	 ??6SP2Packet@@QAEAAV0@ABUD3DXVECTOR3@@@Z ; SP2Packet::operator<<

; 378  : 			kPacket << m_CreateDummyList[i].m_fDummyCharStartAngle;

  004c9	8b 06		 mov	 eax, DWORD PTR [esi]
  004cb	f3 0f 10 44 18
	14		 movss	 xmm0, DWORD PTR [eax+ebx+20]
  004d1	51		 push	 ecx
  004d2	8d 8d 84 7f ff
	ff		 lea	 ecx, DWORD PTR _kPacket$[ebp]
  004d8	f3 0f 11 04 24	 movss	 DWORD PTR [esp], xmm0
  004dd	e8 00 00 00 00	 call	 ??6SP2Packet@@QAEAAV0@M@Z ; SP2Packet::operator<<
  004e2	83 c3 24	 add	 ebx, 36			; 00000024H
  004e5	4f		 dec	 edi
  004e6	75 ae		 jne	 SHORT $LL3@CreateDumm

; 379  : 		}
; 380  : 		P2PNetwork::SendToAllPlayingUser( kPacket );

  004e8	8d 85 84 7f ff
	ff		 lea	 eax, DWORD PTR _kPacket$[ebp]
  004ee	57		 push	 edi
  004ef	50		 push	 eax
  004f0	e8 00 00 00 00	 call	 ?SendToAllPlayingUser@P2PNetwork@@YAXAAVSP2Packet@@PAVioBaseChar@@@Z ; P2PNetwork::SendToAllPlayingUser
  004f5	59		 pop	 ecx
  004f6	59		 pop	 ecx
$LN4@CreateDumm:

; 381  : 	}
; 382  : }

  004f7	83 4d fc ff	 or	 DWORD PTR __$EHRec$[ebp+8], -1
  004fb	8d 8d 84 7f ff
	ff		 lea	 ecx, DWORD PTR _kPacket$[ebp]
  00501	e8 00 00 00 00	 call	 ??1SP2Packet@@UAE@XZ	; SP2Packet::~SP2Packet
$LN12@CreateDumm:
  00506	8b 4d f4	 mov	 ecx, DWORD PTR __$EHRec$[ebp]
  00509	64 89 0d 00 00
	00 00		 mov	 DWORD PTR fs:0, ecx
  00510	59		 pop	 ecx
  00511	5f		 pop	 edi
  00512	5e		 pop	 esi
  00513	5b		 pop	 ebx
  00514	8b 4d f0	 mov	 ecx, DWORD PTR __$ArrayPad$[ebp]
  00517	33 cd		 xor	 ecx, ebp
  00519	e8 00 00 00 00	 call	 @__security_check_cookie@4
  0051e	c9		 leave
  0051f	c2 04 00	 ret	 4
_TEXT	ENDS
;	COMDAT text$x
text$x	SEGMENT
__unwindfunclet$?CreateDummyChar@ioCreateDummyCharBuff@@IAEXPAVioBaseChar@@@Z$0:
  00000	8d 8d 50 7f ff
	ff		 lea	 ecx, DWORD PTR _szDummyCharName$542396[ebp]
  00006	ff 25 00 00 00
	00		 jmp	 DWORD PTR __imp_??1ioHashString@@QAE@XZ
__unwindfunclet$?CreateDummyChar@ioCreateDummyCharBuff@@IAEXPAVioBaseChar@@@Z$1:
  0000c	8d 4d 9c	 lea	 ecx, DWORD PTR _kInfo$542406[ebp]
  0000f	e9 00 00 00 00	 jmp	 ??1tagDummyCharCreateInfo@@QAE@XZ
__unwindfunclet$?CreateDummyChar@ioCreateDummyCharBuff@@IAEXPAVioBaseChar@@@Z$2:
  00014	8d 8d 84 7f ff
	ff		 lea	 ecx, DWORD PTR _kPacket$[ebp]
  0001a	e9 00 00 00 00	 jmp	 ??1SP2Packet@@UAE@XZ	; SP2Packet::~SP2Packet
__ehhandler$?CreateDummyChar@ioCreateDummyCharBuff@@IAEXPAVioBaseChar@@@Z:
  0001f	8b 54 24 08	 mov	 edx, DWORD PTR [esp+8]
  00023	8d 42 0c	 lea	 eax, DWORD PTR [edx+12]
  00026	8b 8a 4c 7f ff
	ff		 mov	 ecx, DWORD PTR [edx-32948]
  0002c	33 c8		 xor	 ecx, eax
  0002e	e8 00 00 00 00	 call	 @__security_check_cookie@4
  00033	8b 4a fc	 mov	 ecx, DWORD PTR [edx-4]
  00036	33 c8		 xor	 ecx, eax
  00038	e8 00 00 00 00	 call	 @__security_check_cookie@4
  0003d	b8 00 00 00 00	 mov	 eax, OFFSET __ehfuncinfo$?CreateDummyChar@ioCreateDummyCharBuff@@IAEXPAVioBaseChar@@@Z
  00042	e9 00 00 00 00	 jmp	 ___CxxFrameHandler3
text$x	ENDS
?CreateDummyChar@ioCreateDummyCharBuff@@IAEXPAVioBaseChar@@@Z ENDP ; ioCreateDummyCharBuff::CreateDummyChar
PUBLIC	_rkPacket$GSCopy$
PUBLIC	_this$GSCopy$
;	COMDAT xdata$x
xdata$x	SEGMENT
__unwindtable$?ApplyExtraBuffInfo@ioCreateDummyCharBuff@@UAEXAAVSP2Packet@@@Z DD 0ffffffffH
	DD	FLAT:__unwindfunclet$?ApplyExtraBuffInfo@ioCreateDummyCharBuff@@UAEXAAVSP2Packet@@@Z$0
	DD	00H
	DD	FLAT:__unwindfunclet$?ApplyExtraBuffInfo@ioCreateDummyCharBuff@@UAEXAAVSP2Packet@@@Z$1
__ehfuncinfo$?ApplyExtraBuffInfo@ioCreateDummyCharBuff@@UAEXAAVSP2Packet@@@Z DD 019930522H
	DD	02H
	DD	FLAT:__unwindtable$?ApplyExtraBuffInfo@ioCreateDummyCharBuff@@UAEXAAVSP2Packet@@@Z
	DD	2 DUP(00H)
	DD	2 DUP(00H)
	DD	00H
	DD	01H
; Function compile flags: /Ogsp
xdata$x	ENDS
;	COMDAT ?ApplyExtraBuffInfo@ioCreateDummyCharBuff@@UAEXAAVSP2Packet@@@Z
_TEXT	SEGMENT
_szDummyCharName$542428 = -112				; size = 16
_pStage$ = -96						; size = 4
_rkPacket$GSCopy$ = -92					; size = 4
_this$GSCopy$ = -88					; size = 4
_iCurIndex$542427 = -84					; size = 4
_iSize$ = -80						; size = 4
tv270 = -76						; size = 4
$T550626 = -76						; size = 4
_i$542423 = -72						; size = 4
_fAngle$542430 = -68					; size = 4
_pOwner$ = -68						; size = 4
_kInfo$542432 = -64					; size = 36
_vPos$542429 = -28					; size = 12
__$EHRec$ = -12						; size = 12
_rkPacket$ = 8						; size = 4
?ApplyExtraBuffInfo@ioCreateDummyCharBuff@@UAEXAAVSP2Packet@@@Z PROC ; ioCreateDummyCharBuff::ApplyExtraBuffInfo, COMDAT
; _this$ = ecx

; 385  : {

  00000	6a 64		 push	 100			; 00000064H
  00002	b8 00 00 00 00	 mov	 eax, __ehhandler$?ApplyExtraBuffInfo@ioCreateDummyCharBuff@@UAEXAAVSP2Packet@@@Z
  00007	e8 00 00 00 00	 call	 __EH_prolog3_GS
  0000c	8b 75 08	 mov	 esi, DWORD PTR _rkPacket$[ebp]
  0000f	8b d9		 mov	 ebx, ecx

; 392  : 		return;
; 393  : 
; 394  : 	m_CreateDummyList.clear();

  00011	89 5d a8	 mov	 DWORD PTR _this$GSCopy$[ebp], ebx
  00014	89 75 a4	 mov	 DWORD PTR _rkPacket$GSCopy$[ebp], esi
  00017	e8 00 00 00 00	 call	 ?GetOwner@ioBuff@@QAEPAVioBaseChar@@XZ ; ioBuff::GetOwner
  0001c	33 ff		 xor	 edi, edi
  0001e	89 45 bc	 mov	 DWORD PTR _pOwner$[ebp], eax
  00021	3b c7		 cmp	 eax, edi
  00023	0f 84 24 01 00
	00		 je	 $LN6@ApplyExtra

; 386  : 	ioBaseChar *pOwner = GetOwner();
; 387  : 	if( !pOwner )
; 388  : 		return;
; 389  : 
; 390  : 	ioPlayStage *pStage = pOwner->GetCreator();

  00029	8b 80 44 03 00
	00		 mov	 eax, DWORD PTR [eax+836]
  0002f	89 45 a0	 mov	 DWORD PTR _pStage$[ebp], eax

; 391  : 	if( !pStage )

  00032	3b c7		 cmp	 eax, edi
  00034	0f 84 13 01 00
	00		 je	 $LN6@ApplyExtra

; 392  : 		return;
; 393  : 
; 394  : 	m_CreateDummyList.clear();

  0003a	8b 83 c0 09 00
	00		 mov	 eax, DWORD PTR [ebx+2496]
  00040	8b 8b bc 09 00
	00		 mov	 ecx, DWORD PTR [ebx+2492]
  00046	50		 push	 eax
  00047	51		 push	 ecx
  00048	8d 45 b4	 lea	 eax, DWORD PTR $T550626[ebp]
  0004b	50		 push	 eax
  0004c	8d 8b bc 09 00
	00		 lea	 ecx, DWORD PTR [ebx+2492]
  00052	e8 00 00 00 00	 call	 ?erase@?$vector@UtagDummyCharCreateInfo@@V?$allocator@UtagDummyCharCreateInfo@@@std@@@std@@QAE?AV?$_Vector_iterator@V?$_Vector_val@UtagDummyCharCreateInfo@@V?$allocator@UtagDummyCharCreateInfo@@@std@@@std@@@2@V?$_Vector_const_iterator@V?$_Vector_val@UtagDummyCharCreateInfo@@V?$allocator@UtagDummyCharCreateInfo@@@std@@@std@@@2@0@Z ; std::vector<tagDummyCharCreateInfo,std::allocator<tagDummyCharCreateInfo> >::erase

; 395  : 
; 396  : 	int iSize;
; 397  : 	rkPacket >> iSize;

  00057	8d 45 b0	 lea	 eax, DWORD PTR _iSize$[ebp]
  0005a	50		 push	 eax
  0005b	8b ce		 mov	 ecx, esi
  0005d	e8 00 00 00 00	 call	 ??5SP2Packet@@QAEAAV0@AAH@Z ; SP2Packet::operator>>

; 398  : 	for( int i=0; i<iSize; ++i )

  00062	89 7d b8	 mov	 DWORD PTR _i$542423[ebp], edi
  00065	39 7d b0	 cmp	 DWORD PTR _iSize$[ebp], edi
  00068	0f 8e d5 00 00
	00		 jle	 $LN1@ApplyExtra
  0006e	8b 45 bc	 mov	 eax, DWORD PTR _pOwner$[ebp]

; 422  : 
; 423  : 	m_bCreatedDummy = true;

  00071	05 d4 02 00 00	 add	 eax, 724		; 000002d4H
  00076	89 45 b4	 mov	 DWORD PTR tv270[ebp], eax
  00079	eb 05		 jmp	 SHORT $LN3@ApplyExtra
$LL39@ApplyExtra:

; 398  : 	for( int i=0; i<iSize; ++i )

  0007b	8b 75 a4	 mov	 esi, DWORD PTR _rkPacket$GSCopy$[ebp]
  0007e	33 ff		 xor	 edi, edi
$LN3@ApplyExtra:

; 399  : 	{
; 400  : 		int iCurIndex;
; 401  : 		ioHashString szDummyCharName;

  00080	8d 4d 90	 lea	 ecx, DWORD PTR _szDummyCharName$542428[ebp]
  00083	ff 15 00 00 00
	00		 call	 DWORD PTR __imp_??0ioHashString@@QAE@XZ

; 402  : 		D3DXVECTOR3 vPos;
; 403  : 
; 404  : 		float fAngle;
; 405  : 		rkPacket >> szDummyCharName;

  00089	8d 45 90	 lea	 eax, DWORD PTR _szDummyCharName$542428[ebp]
  0008c	50		 push	 eax
  0008d	8b ce		 mov	 ecx, esi
  0008f	89 7d fc	 mov	 DWORD PTR __$EHRec$[ebp+8], edi
  00092	e8 00 00 00 00	 call	 ??5SP2Packet@@QAEAAV0@AAVioHashString@@@Z ; SP2Packet::operator>>

; 406  : 		rkPacket >> iCurIndex;

  00097	8d 45 ac	 lea	 eax, DWORD PTR _iCurIndex$542427[ebp]
  0009a	50		 push	 eax
  0009b	8b ce		 mov	 ecx, esi
  0009d	e8 00 00 00 00	 call	 ??5SP2Packet@@QAEAAV0@AAH@Z ; SP2Packet::operator>>

; 407  : 		rkPacket >> vPos;

  000a2	8d 45 e4	 lea	 eax, DWORD PTR _vPos$542429[ebp]
  000a5	50		 push	 eax
  000a6	8b ce		 mov	 ecx, esi
  000a8	e8 00 00 00 00	 call	 ??5SP2Packet@@QAEAAV0@AAUD3DXVECTOR3@@@Z ; SP2Packet::operator>>

; 408  : 		rkPacket >> fAngle;

  000ad	8d 45 bc	 lea	 eax, DWORD PTR _fAngle$542430[ebp]
  000b0	50		 push	 eax
  000b1	8b ce		 mov	 ecx, esi
  000b3	e8 00 00 00 00	 call	 ??5SP2Packet@@QAEAAV0@AAM@Z ; SP2Packet::operator>>

; 409  : 		ioDummyChar *pDummy = pStage->CreateDummyChar( szDummyCharName, iCurIndex,
; 410  : 														pOwner->GetCharName(),
; 411  : 														vPos, fAngle,
; 412  : 														0, false );

  000b8	f3 0f 10 45 bc	 movss	 xmm0, DWORD PTR _fAngle$542430[ebp]
  000bd	57		 push	 edi
  000be	57		 push	 edi
  000bf	51		 push	 ecx
  000c0	8b 4d a0	 mov	 ecx, DWORD PTR _pStage$[ebp]
  000c3	f3 0f 11 04 24	 movss	 DWORD PTR [esp], xmm0
  000c8	8d 45 e4	 lea	 eax, DWORD PTR _vPos$542429[ebp]
  000cb	50		 push	 eax
  000cc	ff 75 b4	 push	 DWORD PTR tv270[ebp]
  000cf	8d 45 90	 lea	 eax, DWORD PTR _szDummyCharName$542428[ebp]
  000d2	ff 75 ac	 push	 DWORD PTR _iCurIndex$542427[ebp]
  000d5	50		 push	 eax
  000d6	e8 00 00 00 00	 call	 ?CreateDummyChar@ioPlayStage@@QAEPAVioDummyChar@@ABVioHashString@@H0ABUD3DXVECTOR3@@MK_N@Z ; ioPlayStage::CreateDummyChar

; 413  : 
; 414  : 		DummyCharCreateInfo kInfo;

  000db	8d 4d c0	 lea	 ecx, DWORD PTR _kInfo$542432[ebp]
  000de	e8 00 00 00 00	 call	 ??0tagDummyCharCreateInfo@@QAE@XZ ; tagDummyCharCreateInfo::tagDummyCharCreateInfo

; 415  : 		kInfo.m_DummyCharName = szDummyCharName;

  000e3	8d 45 90	 lea	 eax, DWORD PTR _szDummyCharName$542428[ebp]
  000e6	50		 push	 eax
  000e7	8d 4d c0	 lea	 ecx, DWORD PTR _kInfo$542432[ebp]
  000ea	c6 45 fc 01	 mov	 BYTE PTR __$EHRec$[ebp+8], 1
  000ee	ff 15 00 00 00
	00		 call	 DWORD PTR __imp_??4ioHashString@@QAEAAV0@ABV0@@Z

; 416  : 		kInfo.m_iDummyCharIdx = iCurIndex;

  000f4	8b 45 ac	 mov	 eax, DWORD PTR _iCurIndex$542427[ebp]

; 417  : 		kInfo.m_fDummyCharStartAngle = fAngle;

  000f7	f3 0f 10 45 bc	 movss	 xmm0, DWORD PTR _fAngle$542430[ebp]
  000fc	89 45 d0	 mov	 DWORD PTR _kInfo$542432[ebp+16], eax
  000ff	f3 0f 11 45 d4	 movss	 DWORD PTR _kInfo$542432[ebp+20], xmm0

; 418  : 		kInfo.m_vTargetPos = vPos;

  00104	8d 75 e4	 lea	 esi, DWORD PTR _vPos$542429[ebp]
  00107	8d 7d d8	 lea	 edi, DWORD PTR _kInfo$542432[ebp+24]
  0010a	a5		 movsd
  0010b	a5		 movsd

; 419  : 
; 420  : 		m_CreateDummyList.push_back( kInfo );

  0010c	8d 45 c0	 lea	 eax, DWORD PTR _kInfo$542432[ebp]
  0010f	50		 push	 eax
  00110	8d 8b bc 09 00
	00		 lea	 ecx, DWORD PTR [ebx+2492]
  00116	a5		 movsd
  00117	e8 00 00 00 00	 call	 ?push_back@?$vector@UtagDummyCharCreateInfo@@V?$allocator@UtagDummyCharCreateInfo@@@std@@@std@@QAEXABUtagDummyCharCreateInfo@@@Z ; std::vector<tagDummyCharCreateInfo,std::allocator<tagDummyCharCreateInfo> >::push_back

; 421  : 	}

  0011c	8b 35 00 00 00
	00		 mov	 esi, DWORD PTR __imp_??1ioHashString@@QAE@XZ
  00122	8d 4d c0	 lea	 ecx, DWORD PTR _kInfo$542432[ebp]
  00125	c6 45 fc 00	 mov	 BYTE PTR __$EHRec$[ebp+8], 0
  00129	ff d6		 call	 esi
  0012b	83 4d fc ff	 or	 DWORD PTR __$EHRec$[ebp+8], -1
  0012f	8d 4d 90	 lea	 ecx, DWORD PTR _szDummyCharName$542428[ebp]
  00132	ff d6		 call	 esi
  00134	ff 45 b8	 inc	 DWORD PTR _i$542423[ebp]
  00137	8b 45 b8	 mov	 eax, DWORD PTR _i$542423[ebp]
  0013a	3b 45 b0	 cmp	 eax, DWORD PTR _iSize$[ebp]
  0013d	0f 8c 38 ff ff
	ff		 jl	 $LL39@ApplyExtra
$LN1@ApplyExtra:

; 422  : 
; 423  : 	m_bCreatedDummy = true;

  00143	8b 45 a8	 mov	 eax, DWORD PTR _this$GSCopy$[ebp]
  00146	c6 80 7a 09 00
	00 01		 mov	 BYTE PTR [eax+2426], 1
$LN6@ApplyExtra:

; 424  : }

  0014d	e8 00 00 00 00	 call	 __EH_epilog3_GS
  00152	c2 04 00	 ret	 4
_TEXT	ENDS
;	COMDAT text$x
text$x	SEGMENT
__unwindfunclet$?ApplyExtraBuffInfo@ioCreateDummyCharBuff@@UAEXAAVSP2Packet@@@Z$0:
  00000	8d 4d 90	 lea	 ecx, DWORD PTR _szDummyCharName$542428[ebp]
  00003	ff 25 00 00 00
	00		 jmp	 DWORD PTR __imp_??1ioHashString@@QAE@XZ
__unwindfunclet$?ApplyExtraBuffInfo@ioCreateDummyCharBuff@@UAEXAAVSP2Packet@@@Z$1:
  00009	8d 4d c0	 lea	 ecx, DWORD PTR _kInfo$542432[ebp]
  0000c	e9 00 00 00 00	 jmp	 ??1tagDummyCharCreateInfo@@QAE@XZ
__ehhandler$?ApplyExtraBuffInfo@ioCreateDummyCharBuff@@UAEXAAVSP2Packet@@@Z:
  00011	8b 54 24 08	 mov	 edx, DWORD PTR [esp+8]
  00015	8d 42 0c	 lea	 eax, DWORD PTR [edx+12]
  00018	8b 4a 8c	 mov	 ecx, DWORD PTR [edx-116]
  0001b	33 c8		 xor	 ecx, eax
  0001d	e8 00 00 00 00	 call	 @__security_check_cookie@4
  00022	8b 4a fc	 mov	 ecx, DWORD PTR [edx-4]
  00025	33 c8		 xor	 ecx, eax
  00027	e8 00 00 00 00	 call	 @__security_check_cookie@4
  0002c	b8 00 00 00 00	 mov	 eax, OFFSET __ehfuncinfo$?ApplyExtraBuffInfo@ioCreateDummyCharBuff@@UAEXAAVSP2Packet@@@Z
  00031	e9 00 00 00 00	 jmp	 ___CxxFrameHandler3
text$x	ENDS
?ApplyExtraBuffInfo@ioCreateDummyCharBuff@@UAEXAAVSP2Packet@@@Z ENDP ; ioCreateDummyCharBuff::ApplyExtraBuffInfo
; Function compile flags: /Ogsp
;	COMDAT ??_GioCreateDummyCharBuff@@UAEPAXI@Z
_TEXT	SEGMENT
___flags$ = 8						; size = 4
??_GioCreateDummyCharBuff@@UAEPAXI@Z PROC		; ioCreateDummyCharBuff::`scalar deleting destructor', COMDAT
; _this$ = ecx
  00000	55		 push	 ebp
  00001	8b ec		 mov	 ebp, esp
  00003	56		 push	 esi
  00004	8b f1		 mov	 esi, ecx
  00006	e8 00 00 00 00	 call	 ??1ioCreateDummyCharBuff@@UAE@XZ ; ioCreateDummyCharBuff::~ioCreateDummyCharBuff
  0000b	f6 45 08 01	 test	 BYTE PTR ___flags$[ebp], 1
  0000f	74 07		 je	 SHORT $LN1@scalar@6
  00011	56		 push	 esi
  00012	e8 00 00 00 00	 call	 ??3@YAXPAX@Z		; operator delete
  00017	59		 pop	 ecx
$LN1@scalar@6:
  00018	8b c6		 mov	 eax, esi
  0001a	5e		 pop	 esi
  0001b	5d		 pop	 ebp
  0001c	c2 04 00	 ret	 4
??_GioCreateDummyCharBuff@@UAEPAXI@Z ENDP		; ioCreateDummyCharBuff::`scalar deleting destructor'
_TEXT	ENDS
EXTRN	?CheckCallingAreaWeapon@ioBuff@@IAEXXZ:PROC	; ioBuff::CheckCallingAreaWeapon
EXTRN	?CheckSwitchType@ioBuff@@IAE_NM@Z:PROC		; ioBuff::CheckSwitchType
EXTRN	?CheckCallingProcess@ioBuff@@IAEXXZ:PROC	; ioBuff::CheckCallingProcess
EXTRN	?CheckEnableDelayState@ioBuff@@IAE_NXZ:PROC	; ioBuff::CheckEnableDelayState
EXTRN	?IsCanNoWound@ioBaseChar@@QAE_NXZ:PROC		; ioBaseChar::IsCanNoWound
; Function compile flags: /Ogsp
;	COMDAT ?ProcessBuff@ioCreateDummyCharBuff@@UAEXM@Z
_TEXT	SEGMENT
_value$550673 = 8					; size = 4
_fTimePerSec$ = 8					; size = 4
?ProcessBuff@ioCreateDummyCharBuff@@UAEXM@Z PROC	; ioCreateDummyCharBuff::ProcessBuff, COMDAT
; _this$ = ecx

; 108  : {

  00000	55		 push	 ebp
  00001	8b ec		 mov	 ebp, esp
  00003	56		 push	 esi
  00004	8b f1		 mov	 esi, ecx

; 109  : 	if( CheckOwnerStateCheck() )

  00006	e8 00 00 00 00	 call	 ?CheckOwnerStateCheck@ioCreateDummyCharBuff@@IAE_NXZ ; ioCreateDummyCharBuff::CheckOwnerStateCheck
  0000b	84 c0		 test	 al, al
  0000d	0f 85 6e 01 00
	00		 jne	 $LN1@ProcessBuf

; 110  : 		return;
; 111  : 
; 112  : 	if( m_bNoWoundState && !m_pOwner->IsCanNoWound() )

  00013	53		 push	 ebx
  00014	33 db		 xor	 ebx, ebx
  00016	38 9e 78 09 00
	00		 cmp	 BYTE PTR [esi+2424], bl
  0001c	74 1b		 je	 SHORT $LN14@ProcessBuf
  0001e	8b 8e 74 02 00
	00		 mov	 ecx, DWORD PTR [esi+628]
  00024	e8 00 00 00 00	 call	 ?IsCanNoWound@ioBaseChar@@QAE_NXZ ; ioBaseChar::IsCanNoWound
  00029	84 c0		 test	 al, al
  0002b	75 0c		 jne	 SHORT $LN14@ProcessBuf

; 113  : 	{
; 114  : 		SetReserveEndBuff();

  0002d	8b ce		 mov	 ecx, esi
  0002f	e8 00 00 00 00	 call	 ?SetReserveEndBuff@ioBuff@@QAEXXZ ; ioBuff::SetReserveEndBuff

; 115  : 		return;

  00034	e9 47 01 00 00	 jmp	 $LN20@ProcessBuf
$LN14@ProcessBuf:

; 116  : 	}
; 117  : 
; 118  : 	switch( m_iOperationType )

  00039	8b 86 d0 03 00
	00		 mov	 eax, DWORD PTR [esi+976]
  0003f	2b c3		 sub	 eax, ebx
  00041	57		 push	 edi
  00042	0f 84 e3 00 00
	00		 je	 $LN3@ProcessBuf
  00048	48		 dec	 eax
  00049	74 0e		 je	 SHORT $LN8@ProcessBuf
  0004b	48		 dec	 eax
  0004c	0f 84 92 00 00
	00		 je	 $LN11@ProcessBuf
  00052	48		 dec	 eax
  00053	0f 85 d9 00 00
	00		 jne	 $LN12@ProcessBuf
$LN8@ProcessBuf:

; 133  : 	case OT_DELAY:
; 134  : 	case OT_ACTIVE:
; 135  : 		{
; 136  : 			if( CheckEnableDelayState() )

  00059	8b ce		 mov	 ecx, esi
  0005b	e8 00 00 00 00	 call	 ?CheckEnableDelayState@ioBuff@@IAE_NXZ ; ioBuff::CheckEnableDelayState
  00060	84 c0		 test	 al, al
  00062	0f 85 17 01 00
	00		 jne	 $LN21@ProcessBuf

; 137  : 				return;
; 138  : 
; 139  : 			CheckCallingProcess();

  00068	8b ce		 mov	 ecx, esi
  0006a	e8 00 00 00 00	 call	 ?CheckCallingProcess@ioBuff@@IAEXXZ ; ioBuff::CheckCallingProcess

; 140  : 
; 141  : 			if( GetBuffDuration() == 0 )

  0006f	8b ce		 mov	 ecx, esi
  00071	e8 00 00 00 00	 call	 ?GetBuffDuration@ioBuff@@IAEKXZ ; ioBuff::GetBuffDuration
  00076	85 c0		 test	 eax, eax
  00078	0f 84 01 01 00
	00		 je	 $LN21@ProcessBuf

; 142  : 				return;
; 143  : 
; 144  : 			if( m_dwBuffEndTime <= FRAMEGETTIME() )

  0007e	ff 15 00 00 00
	00		 call	 DWORD PTR __imp_?GetSingleton@ioFrameTimer@@SAAAV1@XZ
  00084	8b c8		 mov	 ecx, eax
  00086	ff 15 00 00 00
	00		 call	 DWORD PTR __imp_?GetLoopSec@ioFrameTimer@@QBEKXZ
  0008c	8b f8		 mov	 edi, eax
  0008e	8d 45 08	 lea	 eax, DWORD PTR _value$550673[ebp]
  00091	50		 push	 eax
  00092	8d 8e 9c 03 00
	00		 lea	 ecx, DWORD PTR [esi+924]
  00098	e8 00 00 00 00	 call	 ?DecryptValueToPool@?$CEncrypt@K@@QAEXPAK@Z ; CEncrypt<unsigned long>::DecryptValueToPool
  0009d	39 7d 08	 cmp	 DWORD PTR _value$550673[ebp], edi
  000a0	0f 87 8c 00 00
	00		 ja	 $LN12@ProcessBuf

; 145  : 			{
; 146  : 				if( CheckRestoreStateCheck() )

  000a6	8b ce		 mov	 ecx, esi
  000a8	e8 00 00 00 00	 call	 ?CheckRestoreStateCheck@ioCreateDummyCharBuff@@IAE_NXZ ; ioCreateDummyCharBuff::CheckRestoreStateCheck
  000ad	84 c0		 test	 al, al
  000af	74 14		 je	 SHORT $LN4@ProcessBuf

; 147  : 				{
; 148  : 					m_pOwner->SetState( CS_DELAY, m_bSendDelayNetWork );

  000b1	0f b6 86 f9 08
	00 00		 movzx	 eax, BYTE PTR [esi+2297]
  000b8	8b 8e 74 02 00
	00		 mov	 ecx, DWORD PTR [esi+628]
  000be	50		 push	 eax
  000bf	53		 push	 ebx
$LN24@ProcessBuf:
  000c0	e8 00 00 00 00	 call	 ?SetState@ioBaseChar@@QAEXH_N@Z ; ioBaseChar::SetState
$LN4@ProcessBuf:

; 149  : 				}
; 150  : 
; 151  : 				m_pOwner->CheckUseBuffSkill( m_Name, false );

  000c5	8b 8e 74 02 00
	00		 mov	 ecx, DWORD PTR [esi+628]
  000cb	53		 push	 ebx
  000cc	8d 86 34 02 00
	00		 lea	 eax, DWORD PTR [esi+564]
  000d2	50		 push	 eax
  000d3	e8 00 00 00 00	 call	 ?CheckUseBuffSkill@ioBaseChar@@QAEXABVioHashString@@_N@Z ; ioBaseChar::CheckUseBuffSkill

; 152  : 				SetReserveEndBuff();

  000d8	8b ce		 mov	 ecx, esi
  000da	e8 00 00 00 00	 call	 ?SetReserveEndBuff@ioBuff@@QAEXXZ ; ioBuff::SetReserveEndBuff

; 153  : 				return;

  000df	e9 9b 00 00 00	 jmp	 $LN21@ProcessBuf
$LN11@ProcessBuf:

; 119  : 	{
; 120  : 	case OT_SWITCH:
; 121  : 		if( !CheckSwitchType( fTimePerSec ) )

  000e4	f3 0f 10 45 08	 movss	 xmm0, DWORD PTR _fTimePerSec$[ebp]
  000e9	51		 push	 ecx
  000ea	8b ce		 mov	 ecx, esi
  000ec	f3 0f 11 04 24	 movss	 DWORD PTR [esp], xmm0
  000f1	e8 00 00 00 00	 call	 ?CheckSwitchType@ioBuff@@IAE_NM@Z ; ioBuff::CheckSwitchType

; 122  : 		{
; 123  : 			if( GetOwner() && CheckRestoreStateCheck() )

  000f6	8b ce		 mov	 ecx, esi
  000f8	84 c0		 test	 al, al
  000fa	75 28		 jne	 SHORT $LN10@ProcessBuf
  000fc	e8 00 00 00 00	 call	 ?GetOwner@ioBuff@@QAEPAVioBaseChar@@XZ ; ioBuff::GetOwner
  00101	85 c0		 test	 eax, eax
  00103	74 c0		 je	 SHORT $LN4@ProcessBuf
  00105	8b ce		 mov	 ecx, esi
  00107	e8 00 00 00 00	 call	 ?CheckRestoreStateCheck@ioCreateDummyCharBuff@@IAE_NXZ ; ioCreateDummyCharBuff::CheckRestoreStateCheck
  0010c	84 c0		 test	 al, al
  0010e	74 b5		 je	 SHORT $LN4@ProcessBuf

; 124  : 				GetOwner()->SetState( CS_DELAY, m_bSendDelayNetWork );

  00110	0f b6 86 f9 08
	00 00		 movzx	 eax, BYTE PTR [esi+2297]
  00117	50		 push	 eax
  00118	53		 push	 ebx
  00119	8b ce		 mov	 ecx, esi
  0011b	e8 00 00 00 00	 call	 ?GetOwner@ioBuff@@QAEPAVioBaseChar@@XZ ; ioBuff::GetOwner
  00120	8b c8		 mov	 ecx, eax

; 125  : 
; 126  : 			m_pOwner->CheckUseBuffSkill( m_Name, false );
; 127  : 			SetReserveEndBuff();
; 128  : 			return;

  00122	eb 9c		 jmp	 SHORT $LN24@ProcessBuf
$LN10@ProcessBuf:

; 129  : 		}
; 130  : 
; 131  : 		CheckCallingProcess();

  00124	e8 00 00 00 00	 call	 ?CheckCallingProcess@ioBuff@@IAEXXZ ; ioBuff::CheckCallingProcess

; 132  : 		break;

  00129	eb 07		 jmp	 SHORT $LN12@ProcessBuf
$LN3@ProcessBuf:

; 154  : 			}
; 155  : 		}
; 156  : 		break;
; 157  : 	case OT_PASSIVE:
; 158  : 		CheckCallingAreaWeapon();

  0012b	8b ce		 mov	 ecx, esi
  0012d	e8 00 00 00 00	 call	 ?CheckCallingAreaWeapon@ioBuff@@IAEXXZ ; ioBuff::CheckCallingAreaWeapon
$LN12@ProcessBuf:

; 159  : 		break;
; 160  : 	}
; 161  : 
; 162  : 	if( GetOwner() && GetOwner()->IsNeedProcess() && !m_bCreatedDummy )

  00132	8b ce		 mov	 ecx, esi
  00134	e8 00 00 00 00	 call	 ?GetOwner@ioBuff@@QAEPAVioBaseChar@@XZ ; ioBuff::GetOwner
  00139	85 c0		 test	 eax, eax
  0013b	74 33		 je	 SHORT $LN2@ProcessBuf
  0013d	8b ce		 mov	 ecx, esi
  0013f	e8 00 00 00 00	 call	 ?GetOwner@ioBuff@@QAEPAVioBaseChar@@XZ ; ioBuff::GetOwner
  00144	8b 10		 mov	 edx, DWORD PTR [eax]
  00146	8b c8		 mov	 ecx, eax
  00148	ff 92 00 01 00
	00		 call	 DWORD PTR [edx+256]
  0014e	84 c0		 test	 al, al
  00150	74 1e		 je	 SHORT $LN2@ProcessBuf
  00152	38 9e 7a 09 00
	00		 cmp	 BYTE PTR [esi+2426], bl
  00158	75 1e		 jne	 SHORT $LN23@ProcessBuf

; 163  : 	{
; 164  : 		CreateDummyChar( GetOwner() );

  0015a	8b ce		 mov	 ecx, esi
  0015c	e8 00 00 00 00	 call	 ?GetOwner@ioBuff@@QAEPAVioBaseChar@@XZ ; ioBuff::GetOwner
  00161	50		 push	 eax
  00162	8b ce		 mov	 ecx, esi
  00164	e8 00 00 00 00	 call	 ?CreateDummyChar@ioCreateDummyCharBuff@@IAEXPAVioBaseChar@@@Z ; ioCreateDummyCharBuff::CreateDummyChar

; 165  : 		m_bCreatedDummy = true;

  00169	c6 86 7a 09 00
	00 01		 mov	 BYTE PTR [esi+2426], 1
$LN2@ProcessBuf:

; 166  : 	}
; 167  : 
; 168  : 	if( m_bCreatedDummy )

  00170	38 9e 7a 09 00
	00		 cmp	 BYTE PTR [esi+2426], bl
  00176	74 07		 je	 SHORT $LN21@ProcessBuf
$LN23@ProcessBuf:

; 169  : 		CheckDummyChar();

  00178	8b ce		 mov	 ecx, esi
  0017a	e8 00 00 00 00	 call	 ?CheckDummyChar@ioCreateDummyCharBuff@@IAEXXZ ; ioCreateDummyCharBuff::CheckDummyChar
$LN21@ProcessBuf:
  0017f	5f		 pop	 edi
$LN20@ProcessBuf:
  00180	5b		 pop	 ebx
$LN1@ProcessBuf:
  00181	5e		 pop	 esi

; 170  : }

  00182	5d		 pop	 ebp
  00183	c2 04 00	 ret	 4
?ProcessBuff@ioCreateDummyCharBuff@@UAEXM@Z ENDP	; ioCreateDummyCharBuff::ProcessBuff
_TEXT	ENDS
END
