; Listing generated by Microsoft (R) Optimizing Compiler Version 16.00.30319.01 

	TITLE	D:\Lost Saga For Developer\Youtube\Tutorial\Source\src\LSClient\ioCustomTextureMgr.cpp
	.686P
	.XMM
	include listing.inc
	.model	flat

INCLUDELIB MSVCRT
INCLUDELIB OLDNAMES

PUBLIC	?_EEM_DS@?$deque@UD3DXVECTOR3@@V?$allocator@UD3DXVECTOR3@@@std@@@std@@2HB ; std::deque<D3DXVECTOR3,std::allocator<D3DXVECTOR3> >::_EEM_DS
PUBLIC	?ms_Singleton@?$Singleton@VioCustomTextureMgr@@@@1PAVioCustomTextureMgr@@A ; Singleton<ioCustomTextureMgr>::ms_Singleton
;	COMDAT ?ms_Singleton@?$Singleton@VioCustomTextureMgr@@@@1PAVioCustomTextureMgr@@A
_BSS	SEGMENT
?ms_Singleton@?$Singleton@VioCustomTextureMgr@@@@1PAVioCustomTextureMgr@@A DD 01H DUP (?) ; Singleton<ioCustomTextureMgr>::ms_Singleton
_BSS	ENDS
;	COMDAT ?_EEM_DS@?$deque@UD3DXVECTOR3@@V?$allocator@UD3DXVECTOR3@@@std@@@std@@2HB
CONST	SEGMENT
?_EEM_DS@?$deque@UD3DXVECTOR3@@V?$allocator@UD3DXVECTOR3@@@std@@@std@@2HB DD 01H ; std::deque<D3DXVECTOR3,std::allocator<D3DXVECTOR3> >::_EEM_DS
CONST	ENDS
PUBLIC	??_7bad_alloc@std@@6B@				; std::bad_alloc::`vftable'
PUBLIC	??0bad_alloc@std@@QAE@PBD@Z			; std::bad_alloc::bad_alloc
PUBLIC	??_R4bad_alloc@std@@6B@				; std::bad_alloc::`RTTI Complete Object Locator'
PUBLIC	??_R0?AVbad_alloc@std@@@8			; std::bad_alloc `RTTI Type Descriptor'
PUBLIC	??_R3bad_alloc@std@@8				; std::bad_alloc::`RTTI Class Hierarchy Descriptor'
PUBLIC	??_R2bad_alloc@std@@8				; std::bad_alloc::`RTTI Base Class Array'
PUBLIC	??_R1A@?0A@EA@bad_alloc@std@@8			; std::bad_alloc::`RTTI Base Class Descriptor at (0,-1,0,64)'
PUBLIC	??_R1A@?0A@EA@exception@std@@8			; std::exception::`RTTI Base Class Descriptor at (0,-1,0,64)'
PUBLIC	??_R0?AVexception@std@@@8			; std::exception `RTTI Type Descriptor'
PUBLIC	??_R3exception@std@@8				; std::exception::`RTTI Class Hierarchy Descriptor'
PUBLIC	??_R2exception@std@@8				; std::exception::`RTTI Base Class Array'
EXTRN	__imp_??0exception@std@@QAE@ABQBD@Z:PROC
EXTRN	??_7type_info@@6B@:QWORD			; type_info::`vftable'
EXTRN	??_Ebad_alloc@std@@UAEPAXI@Z:PROC		; std::bad_alloc::`vector deleting destructor'
EXTRN	?what@exception@std@@UBEPBDXZ:PROC		; std::exception::what
;	COMDAT ??_R2exception@std@@8
; File c:\program files (x86)\microsoft visual studio 10.0\vc\include\exception
rdata$r	SEGMENT
??_R2exception@std@@8 DD FLAT:??_R1A@?0A@EA@exception@std@@8 ; std::exception::`RTTI Base Class Array'
rdata$r	ENDS
;	COMDAT ??_R3exception@std@@8
rdata$r	SEGMENT
??_R3exception@std@@8 DD 00H				; std::exception::`RTTI Class Hierarchy Descriptor'
	DD	00H
	DD	01H
	DD	FLAT:??_R2exception@std@@8
rdata$r	ENDS
;	COMDAT ??_R0?AVexception@std@@@8
_DATA	SEGMENT
??_R0?AVexception@std@@@8 DD FLAT:??_7type_info@@6B@	; std::exception `RTTI Type Descriptor'
	DD	00H
	DB	'.?AVexception@std@@', 00H
_DATA	ENDS
;	COMDAT ??_R1A@?0A@EA@exception@std@@8
rdata$r	SEGMENT
??_R1A@?0A@EA@exception@std@@8 DD FLAT:??_R0?AVexception@std@@@8 ; std::exception::`RTTI Base Class Descriptor at (0,-1,0,64)'
	DD	00H
	DD	00H
	DD	0ffffffffH
	DD	00H
	DD	040H
	DD	FLAT:??_R3exception@std@@8
rdata$r	ENDS
;	COMDAT ??_R1A@?0A@EA@bad_alloc@std@@8
rdata$r	SEGMENT
??_R1A@?0A@EA@bad_alloc@std@@8 DD FLAT:??_R0?AVbad_alloc@std@@@8 ; std::bad_alloc::`RTTI Base Class Descriptor at (0,-1,0,64)'
	DD	01H
	DD	00H
	DD	0ffffffffH
	DD	00H
	DD	040H
	DD	FLAT:??_R3bad_alloc@std@@8
rdata$r	ENDS
;	COMDAT ??_R2bad_alloc@std@@8
rdata$r	SEGMENT
??_R2bad_alloc@std@@8 DD FLAT:??_R1A@?0A@EA@bad_alloc@std@@8 ; std::bad_alloc::`RTTI Base Class Array'
	DD	FLAT:??_R1A@?0A@EA@exception@std@@8
rdata$r	ENDS
;	COMDAT ??_R3bad_alloc@std@@8
rdata$r	SEGMENT
??_R3bad_alloc@std@@8 DD 00H				; std::bad_alloc::`RTTI Class Hierarchy Descriptor'
	DD	00H
	DD	02H
	DD	FLAT:??_R2bad_alloc@std@@8
rdata$r	ENDS
;	COMDAT ??_R0?AVbad_alloc@std@@@8
_DATA	SEGMENT
??_R0?AVbad_alloc@std@@@8 DD FLAT:??_7type_info@@6B@	; std::bad_alloc `RTTI Type Descriptor'
	DD	00H
	DB	'.?AVbad_alloc@std@@', 00H
_DATA	ENDS
;	COMDAT ??_R4bad_alloc@std@@6B@
rdata$r	SEGMENT
??_R4bad_alloc@std@@6B@ DD 00H				; std::bad_alloc::`RTTI Complete Object Locator'
	DD	00H
	DD	00H
	DD	FLAT:??_R0?AVbad_alloc@std@@@8
	DD	FLAT:??_R3bad_alloc@std@@8
rdata$r	ENDS
;	COMDAT ??_7bad_alloc@std@@6B@
CONST	SEGMENT
??_7bad_alloc@std@@6B@ DD FLAT:??_R4bad_alloc@std@@6B@	; std::bad_alloc::`vftable'
	DD	FLAT:??_Ebad_alloc@std@@UAEPAXI@Z
	DD	FLAT:?what@exception@std@@UBEPBDXZ
; Function compile flags: /Ogsp
CONST	ENDS
;	COMDAT ??0bad_alloc@std@@QAE@PBD@Z
_TEXT	SEGMENT
__Message$ = 8						; size = 4
??0bad_alloc@std@@QAE@PBD@Z PROC			; std::bad_alloc::bad_alloc, COMDAT
; _this$ = ecx

; 345  : 		{	// construct from message string

  00000	55		 push	 ebp
  00001	8b ec		 mov	 ebp, esp
  00003	56		 push	 esi
  00004	8d 45 08	 lea	 eax, DWORD PTR __Message$[ebp]
  00007	50		 push	 eax
  00008	8b f1		 mov	 esi, ecx
  0000a	ff 15 00 00 00
	00		 call	 DWORD PTR __imp_??0exception@std@@QAE@ABQBD@Z
  00010	c7 06 00 00 00
	00		 mov	 DWORD PTR [esi], OFFSET ??_7bad_alloc@std@@6B@

; 346  : 		}

  00016	8b c6		 mov	 eax, esi
  00018	5e		 pop	 esi
  00019	5d		 pop	 ebp
  0001a	c2 04 00	 ret	 4
??0bad_alloc@std@@QAE@PBD@Z ENDP			; std::bad_alloc::bad_alloc
_TEXT	ENDS
PUBLIC	??1bad_alloc@std@@UAE@XZ			; std::bad_alloc::~bad_alloc
EXTRN	__imp_??1exception@std@@UAE@XZ:PROC
; Function compile flags: /Ogsp
;	COMDAT ??1bad_alloc@std@@UAE@XZ
_TEXT	SEGMENT
??1bad_alloc@std@@UAE@XZ PROC				; std::bad_alloc::~bad_alloc, COMDAT
; _this$ = ecx

; 354  : 		{	// destroy the object

  00000	c7 01 00 00 00
	00		 mov	 DWORD PTR [ecx], OFFSET ??_7bad_alloc@std@@6B@

; 355  : 		}

  00006	ff 25 00 00 00
	00		 jmp	 DWORD PTR __imp_??1exception@std@@UAE@XZ
??1bad_alloc@std@@UAE@XZ ENDP				; std::bad_alloc::~bad_alloc
_TEXT	ENDS
EXTRN	??3@YAXPAX@Z:PROC				; operator delete
; Function compile flags: /Ogsp
;	COMDAT ??_Gbad_alloc@std@@UAEPAXI@Z
_TEXT	SEGMENT
___flags$ = 8						; size = 4
??_Gbad_alloc@std@@UAEPAXI@Z PROC			; std::bad_alloc::`scalar deleting destructor', COMDAT
; _this$ = ecx
  00000	55		 push	 ebp
  00001	8b ec		 mov	 ebp, esp
  00003	56		 push	 esi
  00004	8b f1		 mov	 esi, ecx
  00006	c7 06 00 00 00
	00		 mov	 DWORD PTR [esi], OFFSET ??_7bad_alloc@std@@6B@
  0000c	ff 15 00 00 00
	00		 call	 DWORD PTR __imp_??1exception@std@@UAE@XZ
  00012	f6 45 08 01	 test	 BYTE PTR ___flags$[ebp], 1
  00016	74 07		 je	 SHORT $LN1@scalar
  00018	56		 push	 esi
  00019	e8 00 00 00 00	 call	 ??3@YAXPAX@Z		; operator delete
  0001e	59		 pop	 ecx
$LN1@scalar:
  0001f	8b c6		 mov	 eax, esi
  00021	5e		 pop	 esi
  00022	5d		 pop	 ebp
  00023	c2 04 00	 ret	 4
??_Gbad_alloc@std@@UAEPAXI@Z ENDP			; std::bad_alloc::`scalar deleting destructor'
_TEXT	ENDS
PUBLIC	??2@YAPAXIPAX@Z					; operator new
; Function compile flags: /Ogsp
; File c:\program files (x86)\microsoft visual studio 10.0\vc\include\new
;	COMDAT ??2@YAPAXIPAX@Z
_TEXT	SEGMENT
___formal$ = 8						; size = 4
__Where$ = 12						; size = 4
??2@YAPAXIPAX@Z PROC					; operator new, COMDAT

; 56   : 	{	// construct array with placement at _Where

  00000	55		 push	 ebp
  00001	8b ec		 mov	 ebp, esp

; 57   : 	return (_Where);

  00003	8b 45 0c	 mov	 eax, DWORD PTR __Where$[ebp]

; 58   : 	}

  00006	5d		 pop	 ebp
  00007	c3		 ret	 0
??2@YAPAXIPAX@Z ENDP					; operator new
_TEXT	ENDS
PUBLIC	??3@YAXPAX0@Z					; operator delete
; Function compile flags: /Ogsp
;	COMDAT ??3@YAXPAX0@Z
_TEXT	SEGMENT
___formal$ = 8						; size = 4
___formal$ = 12						; size = 4
??3@YAXPAX0@Z PROC					; operator delete, COMDAT

; 62   : 	}

  00000	c3		 ret	 0
??3@YAXPAX0@Z ENDP					; operator delete
_TEXT	ENDS
PUBLIC	??0TexDownLoadData@@QAE@XZ			; TexDownLoadData::TexDownLoadData
EXTRN	__imp_??1ioHashString@@QAE@XZ:PROC
EXTRN	__imp_??0ioHashString@@QAE@XZ:PROC
EXTRN	___CxxFrameHandler3:PROC
EXTRN	@__security_check_cookie@4:PROC
EXTRN	__EH_epilog3:PROC
EXTRN	__EH_prolog3:PROC
;	COMDAT xdata$x
xdata$x	SEGMENT
__unwindtable$??0TexDownLoadData@@QAE@XZ DD 0ffffffffH
	DD	FLAT:__unwindfunclet$??0TexDownLoadData@@QAE@XZ$0
__ehfuncinfo$??0TexDownLoadData@@QAE@XZ DD 019930522H
	DD	01H
	DD	FLAT:__unwindtable$??0TexDownLoadData@@QAE@XZ
	DD	2 DUP(00H)
	DD	2 DUP(00H)
	DD	00H
	DD	01H
; Function compile flags: /Ogsp
xdata$x	ENDS
;	COMDAT ??0TexDownLoadData@@QAE@XZ
_TEXT	SEGMENT
_this$ = -16						; size = 4
__$EHRec$ = -12						; size = 12
??0TexDownLoadData@@QAE@XZ PROC				; TexDownLoadData::TexDownLoadData, COMDAT
; _this$ = ecx
  00000	6a 04		 push	 4
  00002	b8 00 00 00 00	 mov	 eax, __ehhandler$??0TexDownLoadData@@QAE@XZ
  00007	e8 00 00 00 00	 call	 __EH_prolog3
  0000c	8b f9		 mov	 edi, ecx
  0000e	89 7d f0	 mov	 DWORD PTR _this$[ebp], edi
  00011	8b 35 00 00 00
	00		 mov	 esi, DWORD PTR __imp_??0ioHashString@@QAE@XZ
  00017	ff d6		 call	 esi
  00019	83 65 fc 00	 and	 DWORD PTR __$EHRec$[ebp+8], 0
  0001d	8d 4f 10	 lea	 ecx, DWORD PTR [edi+16]
  00020	ff d6		 call	 esi
  00022	8b c7		 mov	 eax, edi
  00024	e8 00 00 00 00	 call	 __EH_epilog3
  00029	c3		 ret	 0
_TEXT	ENDS
;	COMDAT text$x
text$x	SEGMENT
__unwindfunclet$??0TexDownLoadData@@QAE@XZ$0:
  00000	8b 4d f0	 mov	 ecx, DWORD PTR _this$[ebp]
  00003	ff 25 00 00 00
	00		 jmp	 DWORD PTR __imp_??1ioHashString@@QAE@XZ
__ehhandler$??0TexDownLoadData@@QAE@XZ:
  00009	8b 54 24 08	 mov	 edx, DWORD PTR [esp+8]
  0000d	8d 42 0c	 lea	 eax, DWORD PTR [edx+12]
  00010	8b 4a ec	 mov	 ecx, DWORD PTR [edx-20]
  00013	33 c8		 xor	 ecx, eax
  00015	e8 00 00 00 00	 call	 @__security_check_cookie@4
  0001a	b8 00 00 00 00	 mov	 eax, OFFSET __ehfuncinfo$??0TexDownLoadData@@QAE@XZ
  0001f	e9 00 00 00 00	 jmp	 ___CxxFrameHandler3
text$x	ENDS
??0TexDownLoadData@@QAE@XZ ENDP				; TexDownLoadData::TexDownLoadData
PUBLIC	??1TexDownLoadData@@QAE@XZ			; TexDownLoadData::~TexDownLoadData
;	COMDAT xdata$x
xdata$x	SEGMENT
__unwindtable$??1TexDownLoadData@@QAE@XZ DD 0ffffffffH
	DD	FLAT:__unwindfunclet$??1TexDownLoadData@@QAE@XZ$0
__ehfuncinfo$??1TexDownLoadData@@QAE@XZ DD 019930522H
	DD	01H
	DD	FLAT:__unwindtable$??1TexDownLoadData@@QAE@XZ
	DD	2 DUP(00H)
	DD	2 DUP(00H)
	DD	00H
	DD	01H
; Function compile flags: /Ogsp
xdata$x	ENDS
;	COMDAT ??1TexDownLoadData@@QAE@XZ
_TEXT	SEGMENT
_this$ = -16						; size = 4
__$EHRec$ = -12						; size = 12
??1TexDownLoadData@@QAE@XZ PROC				; TexDownLoadData::~TexDownLoadData, COMDAT
; _this$ = ecx
  00000	6a 04		 push	 4
  00002	b8 00 00 00 00	 mov	 eax, __ehhandler$??1TexDownLoadData@@QAE@XZ
  00007	e8 00 00 00 00	 call	 __EH_prolog3
  0000c	8b f9		 mov	 edi, ecx
  0000e	89 7d f0	 mov	 DWORD PTR _this$[ebp], edi
  00011	8b 35 00 00 00
	00		 mov	 esi, DWORD PTR __imp_??1ioHashString@@QAE@XZ
  00017	83 65 fc 00	 and	 DWORD PTR __$EHRec$[ebp+8], 0
  0001b	8d 4f 10	 lea	 ecx, DWORD PTR [edi+16]
  0001e	ff d6		 call	 esi
  00020	83 4d fc ff	 or	 DWORD PTR __$EHRec$[ebp+8], -1
  00024	8b cf		 mov	 ecx, edi
  00026	ff d6		 call	 esi
  00028	e8 00 00 00 00	 call	 __EH_epilog3
  0002d	c3		 ret	 0
_TEXT	ENDS
;	COMDAT text$x
text$x	SEGMENT
__unwindfunclet$??1TexDownLoadData@@QAE@XZ$0:
  00000	8b 4d f0	 mov	 ecx, DWORD PTR _this$[ebp]
  00003	ff 25 00 00 00
	00		 jmp	 DWORD PTR __imp_??1ioHashString@@QAE@XZ
__ehhandler$??1TexDownLoadData@@QAE@XZ:
  00009	8b 54 24 08	 mov	 edx, DWORD PTR [esp+8]
  0000d	8d 42 0c	 lea	 eax, DWORD PTR [edx+12]
  00010	8b 4a ec	 mov	 ecx, DWORD PTR [edx-20]
  00013	33 c8		 xor	 ecx, eax
  00015	e8 00 00 00 00	 call	 @__security_check_cookie@4
  0001a	b8 00 00 00 00	 mov	 eax, OFFSET __ehfuncinfo$??1TexDownLoadData@@QAE@XZ
  0001f	e9 00 00 00 00	 jmp	 ___CxxFrameHandler3
text$x	ENDS
??1TexDownLoadData@@QAE@XZ ENDP				; TexDownLoadData::~TexDownLoadData
PUBLIC	??4TexDownLoadData@@QAEAAU0@ABU0@@Z		; TexDownLoadData::operator=
EXTRN	__imp_??4ioHashString@@QAEAAV0@ABV0@@Z:PROC
; Function compile flags: /Ogsp
;	COMDAT ??4TexDownLoadData@@QAEAAU0@ABU0@@Z
_TEXT	SEGMENT
___that$ = 8						; size = 4
??4TexDownLoadData@@QAEAAU0@ABU0@@Z PROC		; TexDownLoadData::operator=, COMDAT
; _this$ = ecx
  00000	55		 push	 ebp
  00001	8b ec		 mov	 ebp, esp
  00003	53		 push	 ebx
  00004	8b 1d 00 00 00
	00		 mov	 ebx, DWORD PTR __imp_??4ioHashString@@QAEAAV0@ABV0@@Z
  0000a	56		 push	 esi
  0000b	57		 push	 edi
  0000c	8b 7d 08	 mov	 edi, DWORD PTR ___that$[ebp]
  0000f	57		 push	 edi
  00010	8b f1		 mov	 esi, ecx
  00012	ff d3		 call	 ebx
  00014	8d 47 10	 lea	 eax, DWORD PTR [edi+16]
  00017	50		 push	 eax
  00018	8d 4e 10	 lea	 ecx, DWORD PTR [esi+16]
  0001b	ff d3		 call	 ebx
  0001d	8b 47 20	 mov	 eax, DWORD PTR [edi+32]
  00020	89 46 20	 mov	 DWORD PTR [esi+32], eax
  00023	8b 47 24	 mov	 eax, DWORD PTR [edi+36]
  00026	89 46 24	 mov	 DWORD PTR [esi+36], eax
  00029	5f		 pop	 edi
  0002a	8b c6		 mov	 eax, esi
  0002c	5e		 pop	 esi
  0002d	5b		 pop	 ebx
  0002e	5d		 pop	 ebp
  0002f	c2 04 00	 ret	 4
??4TexDownLoadData@@QAEAAU0@ABU0@@Z ENDP		; TexDownLoadData::operator=
_TEXT	ENDS
PUBLIC	??_7ioCustomTextureTask@@6B@			; ioCustomTextureTask::`vftable'
PUBLIC	??1ioCustomTextureTask@@UAE@XZ			; ioCustomTextureTask::~ioCustomTextureTask
PUBLIC	??_R4ioCustomTextureTask@@6B@			; ioCustomTextureTask::`RTTI Complete Object Locator'
PUBLIC	??_R0?AVioCustomTextureTask@@@8			; ioCustomTextureTask `RTTI Type Descriptor'
PUBLIC	??_R3ioCustomTextureTask@@8			; ioCustomTextureTask::`RTTI Class Hierarchy Descriptor'
PUBLIC	??_R2ioCustomTextureTask@@8			; ioCustomTextureTask::`RTTI Base Class Array'
PUBLIC	??_R1A@?0A@EA@ioCustomTextureTask@@8		; ioCustomTextureTask::`RTTI Base Class Descriptor at (0,-1,0,64)'
PUBLIC	??_R1A@?0A@EA@IThreadTask@@8			; IThreadTask::`RTTI Base Class Descriptor at (0,-1,0,64)'
PUBLIC	??_R0?AVIThreadTask@@@8				; IThreadTask `RTTI Type Descriptor'
PUBLIC	??_R3IThreadTask@@8				; IThreadTask::`RTTI Class Hierarchy Descriptor'
PUBLIC	??_R2IThreadTask@@8				; IThreadTask::`RTTI Base Class Array'
PUBLIC	?Process@ioCustomTextureTask@@UAEXXZ		; ioCustomTextureTask::Process
PUBLIC	?Done@ioCustomTextureTask@@UAEXXZ		; ioCustomTextureTask::Done
PUBLIC	?GetPriority@ioCustomTextureTask@@UBEHXZ	; ioCustomTextureTask::GetPriority
EXTRN	__imp_??1IThreadTask@@UAE@XZ:PROC
EXTRN	??_EioCustomTextureTask@@UAEPAXI@Z:PROC		; ioCustomTextureTask::`vector deleting destructor'
;	COMDAT ??_R2IThreadTask@@8
; File d:\lost saga for developer\youtube\tutorial\source\src\lsclient\iocustomtexturemgr.cpp
rdata$r	SEGMENT
??_R2IThreadTask@@8 DD FLAT:??_R1A@?0A@EA@IThreadTask@@8 ; IThreadTask::`RTTI Base Class Array'
rdata$r	ENDS
;	COMDAT ??_R3IThreadTask@@8
rdata$r	SEGMENT
??_R3IThreadTask@@8 DD 00H				; IThreadTask::`RTTI Class Hierarchy Descriptor'
	DD	00H
	DD	01H
	DD	FLAT:??_R2IThreadTask@@8
rdata$r	ENDS
;	COMDAT ??_R0?AVIThreadTask@@@8
_DATA	SEGMENT
??_R0?AVIThreadTask@@@8 DD FLAT:??_7type_info@@6B@	; IThreadTask `RTTI Type Descriptor'
	DD	00H
	DB	'.?AVIThreadTask@@', 00H
_DATA	ENDS
;	COMDAT ??_R1A@?0A@EA@IThreadTask@@8
rdata$r	SEGMENT
??_R1A@?0A@EA@IThreadTask@@8 DD FLAT:??_R0?AVIThreadTask@@@8 ; IThreadTask::`RTTI Base Class Descriptor at (0,-1,0,64)'
	DD	00H
	DD	00H
	DD	0ffffffffH
	DD	00H
	DD	040H
	DD	FLAT:??_R3IThreadTask@@8
rdata$r	ENDS
;	COMDAT ??_R1A@?0A@EA@ioCustomTextureTask@@8
rdata$r	SEGMENT
??_R1A@?0A@EA@ioCustomTextureTask@@8 DD FLAT:??_R0?AVioCustomTextureTask@@@8 ; ioCustomTextureTask::`RTTI Base Class Descriptor at (0,-1,0,64)'
	DD	01H
	DD	00H
	DD	0ffffffffH
	DD	00H
	DD	040H
	DD	FLAT:??_R3ioCustomTextureTask@@8
rdata$r	ENDS
;	COMDAT ??_R2ioCustomTextureTask@@8
rdata$r	SEGMENT
??_R2ioCustomTextureTask@@8 DD FLAT:??_R1A@?0A@EA@ioCustomTextureTask@@8 ; ioCustomTextureTask::`RTTI Base Class Array'
	DD	FLAT:??_R1A@?0A@EA@IThreadTask@@8
rdata$r	ENDS
;	COMDAT ??_R3ioCustomTextureTask@@8
rdata$r	SEGMENT
??_R3ioCustomTextureTask@@8 DD 00H			; ioCustomTextureTask::`RTTI Class Hierarchy Descriptor'
	DD	00H
	DD	02H
	DD	FLAT:??_R2ioCustomTextureTask@@8
rdata$r	ENDS
;	COMDAT ??_R0?AVioCustomTextureTask@@@8
_DATA	SEGMENT
??_R0?AVioCustomTextureTask@@@8 DD FLAT:??_7type_info@@6B@ ; ioCustomTextureTask `RTTI Type Descriptor'
	DD	00H
	DB	'.?AVioCustomTextureTask@@', 00H
_DATA	ENDS
;	COMDAT ??_R4ioCustomTextureTask@@6B@
rdata$r	SEGMENT
??_R4ioCustomTextureTask@@6B@ DD 00H			; ioCustomTextureTask::`RTTI Complete Object Locator'
	DD	00H
	DD	00H
	DD	FLAT:??_R0?AVioCustomTextureTask@@@8
	DD	FLAT:??_R3ioCustomTextureTask@@8
rdata$r	ENDS
;	COMDAT ??_7ioCustomTextureTask@@6B@
CONST	SEGMENT
??_7ioCustomTextureTask@@6B@ DD FLAT:??_R4ioCustomTextureTask@@6B@ ; ioCustomTextureTask::`vftable'
	DD	FLAT:?Process@ioCustomTextureTask@@UAEXXZ
	DD	FLAT:?Done@ioCustomTextureTask@@UAEXXZ
	DD	FLAT:?GetPriority@ioCustomTextureTask@@UBEHXZ
	DD	FLAT:??_EioCustomTextureTask@@UAEPAXI@Z
CONST	ENDS
;	COMDAT xdata$x
xdata$x	SEGMENT
__unwindtable$??1ioCustomTextureTask@@UAE@XZ DD 0ffffffffH
	DD	FLAT:__unwindfunclet$??1ioCustomTextureTask@@UAE@XZ$0
	DD	00H
	DD	FLAT:__unwindfunclet$??1ioCustomTextureTask@@UAE@XZ$1
	DD	01H
	DD	FLAT:__unwindfunclet$??1ioCustomTextureTask@@UAE@XZ$2
__ehfuncinfo$??1ioCustomTextureTask@@UAE@XZ DD 019930522H
	DD	03H
	DD	FLAT:__unwindtable$??1ioCustomTextureTask@@UAE@XZ
	DD	2 DUP(00H)
	DD	2 DUP(00H)
	DD	00H
	DD	01H
; Function compile flags: /Ogsp
xdata$x	ENDS
;	COMDAT ??1ioCustomTextureTask@@UAE@XZ
_TEXT	SEGMENT
_this$ = -16						; size = 4
__$EHRec$ = -12						; size = 12
??1ioCustomTextureTask@@UAE@XZ PROC			; ioCustomTextureTask::~ioCustomTextureTask, COMDAT
; _this$ = ecx

; 47   : {

  00000	6a 04		 push	 4
  00002	b8 00 00 00 00	 mov	 eax, __ehhandler$??1ioCustomTextureTask@@UAE@XZ
  00007	e8 00 00 00 00	 call	 __EH_prolog3
  0000c	8b f1		 mov	 esi, ecx
  0000e	89 75 f0	 mov	 DWORD PTR _this$[ebp], esi
  00011	c7 06 00 00 00
	00		 mov	 DWORD PTR [esi], OFFSET ??_7ioCustomTextureTask@@6B@

; 48   : }

  00017	8d 4e 24	 lea	 ecx, DWORD PTR [esi+36]
  0001a	c7 45 fc 02 00
	00 00		 mov	 DWORD PTR __$EHRec$[ebp+8], 2
  00021	e8 00 00 00 00	 call	 ??1TexDownLoadData@@QAE@XZ
  00026	8b 3d 00 00 00
	00		 mov	 edi, DWORD PTR __imp_??1ioHashString@@QAE@XZ
  0002c	8d 4e 14	 lea	 ecx, DWORD PTR [esi+20]
  0002f	c6 45 fc 01	 mov	 BYTE PTR __$EHRec$[ebp+8], 1
  00033	ff d7		 call	 edi
  00035	8d 4e 04	 lea	 ecx, DWORD PTR [esi+4]
  00038	c6 45 fc 00	 mov	 BYTE PTR __$EHRec$[ebp+8], 0
  0003c	ff d7		 call	 edi
  0003e	83 4d fc ff	 or	 DWORD PTR __$EHRec$[ebp+8], -1
  00042	8b ce		 mov	 ecx, esi
  00044	ff 15 00 00 00
	00		 call	 DWORD PTR __imp_??1IThreadTask@@UAE@XZ
  0004a	e8 00 00 00 00	 call	 __EH_epilog3
  0004f	c3		 ret	 0
_TEXT	ENDS
;	COMDAT text$x
text$x	SEGMENT
__unwindfunclet$??1ioCustomTextureTask@@UAE@XZ$0:
  00000	8b 4d f0	 mov	 ecx, DWORD PTR _this$[ebp]
  00003	ff 25 00 00 00
	00		 jmp	 DWORD PTR __imp_??1IThreadTask@@UAE@XZ
__unwindfunclet$??1ioCustomTextureTask@@UAE@XZ$1:
  00009	8b 4d f0	 mov	 ecx, DWORD PTR _this$[ebp]
  0000c	83 c1 04	 add	 ecx, 4
  0000f	ff 25 00 00 00
	00		 jmp	 DWORD PTR __imp_??1ioHashString@@QAE@XZ
__unwindfunclet$??1ioCustomTextureTask@@UAE@XZ$2:
  00015	8b 4d f0	 mov	 ecx, DWORD PTR _this$[ebp]
  00018	83 c1 14	 add	 ecx, 20			; 00000014H
  0001b	ff 25 00 00 00
	00		 jmp	 DWORD PTR __imp_??1ioHashString@@QAE@XZ
__ehhandler$??1ioCustomTextureTask@@UAE@XZ:
  00021	8b 54 24 08	 mov	 edx, DWORD PTR [esp+8]
  00025	8d 42 0c	 lea	 eax, DWORD PTR [edx+12]
  00028	8b 4a ec	 mov	 ecx, DWORD PTR [edx-20]
  0002b	33 c8		 xor	 ecx, eax
  0002d	e8 00 00 00 00	 call	 @__security_check_cookie@4
  00032	b8 00 00 00 00	 mov	 eax, OFFSET __ehfuncinfo$??1ioCustomTextureTask@@UAE@XZ
  00037	e9 00 00 00 00	 jmp	 ___CxxFrameHandler3
text$x	ENDS
??1ioCustomTextureTask@@UAE@XZ ENDP			; ioCustomTextureTask::~ioCustomTextureTask
; Function compile flags: /Ogsp
;	COMDAT ?GetPriority@ioCustomTextureTask@@UBEHXZ
_TEXT	SEGMENT
?GetPriority@ioCustomTextureTask@@UBEHXZ PROC		; ioCustomTextureTask::GetPriority, COMDAT
; _this$ = ecx

; 27   : 	virtual int  GetPriority() const { return 3; }

  00000	6a 03		 push	 3
  00002	58		 pop	 eax
  00003	c3		 ret	 0
?GetPriority@ioCustomTextureTask@@UBEHXZ ENDP		; ioCustomTextureTask::GetPriority
_TEXT	ENDS
EXTRN	_URLDownloadToFileA@20:PROC
EXTRN	__imp_?c_str@ioHashString@@QBEPBDXZ:PROC
; Function compile flags: /Ogsp
;	COMDAT ?Process@ioCustomTextureTask@@UAEXXZ
_TEXT	SEGMENT
?Process@ioCustomTextureTask@@UAEXXZ PROC		; ioCustomTextureTask::Process, COMDAT
; _this$ = ecx

; 51   : {

  00000	56		 push	 esi
  00001	8b f1		 mov	 esi, ecx

; 52   : 	HRESULT hr = ::URLDownloadToFile( 0, m_FullURL.c_str(), m_FullName.c_str(),	0, NULL );

  00003	6a 00		 push	 0
  00005	6a 00		 push	 0
  00007	8d 4e 04	 lea	 ecx, DWORD PTR [esi+4]
  0000a	ff 15 00 00 00
	00		 call	 DWORD PTR __imp_?c_str@ioHashString@@QBEPBDXZ
  00010	50		 push	 eax
  00011	8d 4e 14	 lea	 ecx, DWORD PTR [esi+20]
  00014	ff 15 00 00 00
	00		 call	 DWORD PTR __imp_?c_str@ioHashString@@QBEPBDXZ
  0001a	50		 push	 eax
  0001b	6a 00		 push	 0
  0001d	e8 00 00 00 00	 call	 _URLDownloadToFileA@20

; 53   : 
; 54   : 	if( FAILED(hr) )

  00022	85 c0		 test	 eax, eax
  00024	0f 99 c0	 setns	 al
  00027	88 46 4c	 mov	 BYTE PTR [esi+76], al
  0002a	5e		 pop	 esi

; 55   : 		m_bDone = false;
; 56   : 	else
; 57   : 		m_bDone = true;
; 58   : }

  0002b	c3		 ret	 0
?Process@ioCustomTextureTask@@UAEXXZ ENDP		; ioCustomTextureTask::Process
_TEXT	ENDS
PUBLIC	?_Adopt@_Iterator_base0@std@@QAEXPBX@Z		; std::_Iterator_base0::_Adopt
; Function compile flags: /Ogsp
; File c:\program files (x86)\microsoft visual studio 10.0\vc\include\xutility
;	COMDAT ?_Adopt@_Iterator_base0@std@@QAEXPBX@Z
_TEXT	SEGMENT
___formal$ = 8						; size = 4
?_Adopt@_Iterator_base0@std@@QAEXPBX@Z PROC		; std::_Iterator_base0::_Adopt, COMDAT
; _this$ = ecx

; 49   : 		}

  00000	c2 04 00	 ret	 4
?_Adopt@_Iterator_base0@std@@QAEXPBX@Z ENDP		; std::_Iterator_base0::_Adopt
_TEXT	ENDS
PUBLIC	?_Getcont@_Iterator_base0@std@@QBEPBU_Container_base0@2@XZ ; std::_Iterator_base0::_Getcont
; Function compile flags: /Ogsp
;	COMDAT ?_Getcont@_Iterator_base0@std@@QBEPBU_Container_base0@2@XZ
_TEXT	SEGMENT
?_Getcont@_Iterator_base0@std@@QBEPBU_Container_base0@2@XZ PROC ; std::_Iterator_base0::_Getcont, COMDAT
; _this$ = ecx

; 53   : 		return (0);

  00000	33 c0		 xor	 eax, eax

; 54   : 		}

  00002	c3		 ret	 0
?_Getcont@_Iterator_base0@std@@QBEPBU_Container_base0@2@XZ ENDP ; std::_Iterator_base0::_Getcont
_TEXT	ENDS
PUBLIC	??1ioINILoader_e@@QAE@XZ			; ioINILoader_e::~ioINILoader_e
EXTRN	__imp_??1ioINILoader@@QAE@XZ:PROC
; Function compile flags: /Ogsp
;	COMDAT ??1ioINILoader_e@@QAE@XZ
_TEXT	SEGMENT
??1ioINILoader_e@@QAE@XZ PROC				; ioINILoader_e::~ioINILoader_e, COMDAT
; _this$ = ecx
  00000	ff 25 00 00 00
	00		 jmp	 DWORD PTR __imp_??1ioINILoader@@QAE@XZ
??1ioINILoader_e@@QAE@XZ ENDP				; ioINILoader_e::~ioINILoader_e
_TEXT	ENDS
PUBLIC	??1TrainExtraItem@ioCustomTextureMgr@@QAE@XZ	; ioCustomTextureMgr::TrainExtraItem::~TrainExtraItem
;	COMDAT xdata$x
xdata$x	SEGMENT
__unwindtable$??1TrainExtraItem@ioCustomTextureMgr@@QAE@XZ DD 0ffffffffH
	DD	FLAT:__unwindfunclet$??1TrainExtraItem@ioCustomTextureMgr@@QAE@XZ$0
__ehfuncinfo$??1TrainExtraItem@ioCustomTextureMgr@@QAE@XZ DD 019930522H
	DD	01H
	DD	FLAT:__unwindtable$??1TrainExtraItem@ioCustomTextureMgr@@QAE@XZ
	DD	2 DUP(00H)
	DD	2 DUP(00H)
	DD	00H
	DD	01H
; Function compile flags: /Ogsp
xdata$x	ENDS
;	COMDAT ??1TrainExtraItem@ioCustomTextureMgr@@QAE@XZ
_TEXT	SEGMENT
_this$ = -16						; size = 4
__$EHRec$ = -12						; size = 12
??1TrainExtraItem@ioCustomTextureMgr@@QAE@XZ PROC	; ioCustomTextureMgr::TrainExtraItem::~TrainExtraItem, COMDAT
; _this$ = ecx
  00000	6a 04		 push	 4
  00002	b8 00 00 00 00	 mov	 eax, __ehhandler$??1TrainExtraItem@ioCustomTextureMgr@@QAE@XZ
  00007	e8 00 00 00 00	 call	 __EH_prolog3
  0000c	8b f9		 mov	 edi, ecx
  0000e	89 7d f0	 mov	 DWORD PTR _this$[ebp], edi
  00011	8b 35 00 00 00
	00		 mov	 esi, DWORD PTR __imp_??1ioHashString@@QAE@XZ
  00017	83 65 fc 00	 and	 DWORD PTR __$EHRec$[ebp+8], 0
  0001b	8d 4f 14	 lea	 ecx, DWORD PTR [edi+20]
  0001e	ff d6		 call	 esi
  00020	83 4d fc ff	 or	 DWORD PTR __$EHRec$[ebp+8], -1
  00024	8d 4f 04	 lea	 ecx, DWORD PTR [edi+4]
  00027	ff d6		 call	 esi
  00029	e8 00 00 00 00	 call	 __EH_epilog3
  0002e	c3		 ret	 0
_TEXT	ENDS
;	COMDAT text$x
text$x	SEGMENT
__unwindfunclet$??1TrainExtraItem@ioCustomTextureMgr@@QAE@XZ$0:
  00000	8b 4d f0	 mov	 ecx, DWORD PTR _this$[ebp]
  00003	83 c1 04	 add	 ecx, 4
  00006	ff 25 00 00 00
	00		 jmp	 DWORD PTR __imp_??1ioHashString@@QAE@XZ
__ehhandler$??1TrainExtraItem@ioCustomTextureMgr@@QAE@XZ:
  0000c	8b 54 24 08	 mov	 edx, DWORD PTR [esp+8]
  00010	8d 42 0c	 lea	 eax, DWORD PTR [edx+12]
  00013	8b 4a ec	 mov	 ecx, DWORD PTR [edx-20]
  00016	33 c8		 xor	 ecx, eax
  00018	e8 00 00 00 00	 call	 @__security_check_cookie@4
  0001d	b8 00 00 00 00	 mov	 eax, OFFSET __ehfuncinfo$??1TrainExtraItem@ioCustomTextureMgr@@QAE@XZ
  00022	e9 00 00 00 00	 jmp	 ___CxxFrameHandler3
text$x	ENDS
??1TrainExtraItem@ioCustomTextureMgr@@QAE@XZ ENDP	; ioCustomTextureMgr::TrainExtraItem::~TrainExtraItem
PUBLIC	??_C@_01KDCPPGHE@r?$AA@				; `string'
PUBLIC	?IsFileCheck@ioCustomTextureMgr@@IAE_NABVioHashString@@@Z ; ioCustomTextureMgr::IsFileCheck
EXTRN	__imp__fclose:PROC
EXTRN	__imp__fopen:PROC
;	COMDAT ??_C@_01KDCPPGHE@r?$AA@
; File d:\lost saga for developer\youtube\tutorial\source\src\lsclient\iocustomtexturemgr.cpp
CONST	SEGMENT
??_C@_01KDCPPGHE@r?$AA@ DB 'r', 00H			; `string'
; Function compile flags: /Ogsp
CONST	ENDS
;	COMDAT ?IsFileCheck@ioCustomTextureMgr@@IAE_NABVioHashString@@@Z
_TEXT	SEGMENT
_rkFileName$ = 8					; size = 4
?IsFileCheck@ioCustomTextureMgr@@IAE_NABVioHashString@@@Z PROC ; ioCustomTextureMgr::IsFileCheck, COMDAT
; _this$ = ecx

; 132  : {

  00000	55		 push	 ebp
  00001	8b ec		 mov	 ebp, esp

; 133  : 	FILE *pFile = fopen( rkFileName.c_str(), "r" );

  00003	8b 4d 08	 mov	 ecx, DWORD PTR _rkFileName$[ebp]
  00006	68 00 00 00 00	 push	 OFFSET ??_C@_01KDCPPGHE@r?$AA@
  0000b	ff 15 00 00 00
	00		 call	 DWORD PTR __imp_?c_str@ioHashString@@QBEPBDXZ
  00011	50		 push	 eax
  00012	ff 15 00 00 00
	00		 call	 DWORD PTR __imp__fopen
  00018	59		 pop	 ecx
  00019	59		 pop	 ecx

; 134  : 	if( pFile ) 

  0001a	85 c0		 test	 eax, eax
  0001c	74 0c		 je	 SHORT $LN1@IsFileChec

; 135  : 	{
; 136  : 		fclose( pFile );		

  0001e	50		 push	 eax
  0001f	ff 15 00 00 00
	00		 call	 DWORD PTR __imp__fclose
  00025	59		 pop	 ecx

; 137  : 		return true;

  00026	b0 01		 mov	 al, 1
  00028	eb 02		 jmp	 SHORT $LN2@IsFileChec
$LN1@IsFileChec:

; 138  : 	}
; 139  : 	return false;

  0002a	32 c0		 xor	 al, al
$LN2@IsFileChec:

; 140  : }

  0002c	5d		 pop	 ebp
  0002d	c2 04 00	 ret	 4
?IsFileCheck@ioCustomTextureMgr@@IAE_NABVioHashString@@@Z ENDP ; ioCustomTextureMgr::IsFileCheck
_TEXT	ENDS
PUBLIC	??0?$Singleton@VioCustomTextureMgr@@@@QAE@XZ	; Singleton<ioCustomTextureMgr>::Singleton<ioCustomTextureMgr>
; Function compile flags: /Ogsp
; File d:\lost saga for developer\youtube\tutorial\source\src\io3dengine\iosingleton.h
;	COMDAT ??0?$Singleton@VioCustomTextureMgr@@@@QAE@XZ
_TEXT	SEGMENT
??0?$Singleton@VioCustomTextureMgr@@@@QAE@XZ PROC	; Singleton<ioCustomTextureMgr>::Singleton<ioCustomTextureMgr>, COMDAT
; _this$ = ecx

; 27   : 	Singleton()

  00000	8b c1		 mov	 eax, ecx

; 28   : 	{
; 29   : 		assert( !ms_Singleton );
; 30   : 		int offset = (int)(T*)1 - (int)(Singleton <T>*)(T*)1;
; 31   : 		ms_Singleton = (T*)((int)this + offset);

  00002	8d 48 fc	 lea	 ecx, DWORD PTR [eax-4]
  00005	89 0d 00 00 00
	00		 mov	 DWORD PTR ?ms_Singleton@?$Singleton@VioCustomTextureMgr@@@@1PAVioCustomTextureMgr@@A, ecx ; Singleton<ioCustomTextureMgr>::ms_Singleton

; 32   : 	}

  0000b	c3		 ret	 0
??0?$Singleton@VioCustomTextureMgr@@@@QAE@XZ ENDP	; Singleton<ioCustomTextureMgr>::Singleton<ioCustomTextureMgr>
_TEXT	ENDS
PUBLIC	??1?$Singleton@VioCustomTextureMgr@@@@QAE@XZ	; Singleton<ioCustomTextureMgr>::~Singleton<ioCustomTextureMgr>
; Function compile flags: /Ogsp
;	COMDAT ??1?$Singleton@VioCustomTextureMgr@@@@QAE@XZ
_TEXT	SEGMENT
??1?$Singleton@VioCustomTextureMgr@@@@QAE@XZ PROC	; Singleton<ioCustomTextureMgr>::~Singleton<ioCustomTextureMgr>, COMDAT
; _this$ = ecx

; 36   : 		assert( ms_Singleton );
; 37   : 		ms_Singleton = 0;

  00000	83 25 00 00 00
	00 00		 and	 DWORD PTR ?ms_Singleton@?$Singleton@VioCustomTextureMgr@@@@1PAVioCustomTextureMgr@@A, 0 ; Singleton<ioCustomTextureMgr>::ms_Singleton

; 38   : 	}

  00007	c3		 ret	 0
??1?$Singleton@VioCustomTextureMgr@@@@QAE@XZ ENDP	; Singleton<ioCustomTextureMgr>::~Singleton<ioCustomTextureMgr>
_TEXT	ENDS
PUBLIC	?GetSingleton@?$Singleton@VioCustomTextureMgr@@@@SAAAVioCustomTextureMgr@@XZ ; Singleton<ioCustomTextureMgr>::GetSingleton
; Function compile flags: /Ogsp
;	COMDAT ?GetSingleton@?$Singleton@VioCustomTextureMgr@@@@SAAAVioCustomTextureMgr@@XZ
_TEXT	SEGMENT
?GetSingleton@?$Singleton@VioCustomTextureMgr@@@@SAAAVioCustomTextureMgr@@XZ PROC ; Singleton<ioCustomTextureMgr>::GetSingleton, COMDAT

; 42   : 		assert( ms_Singleton );
; 43   : 		return (*ms_Singleton);

  00000	a1 00 00 00 00	 mov	 eax, DWORD PTR ?ms_Singleton@?$Singleton@VioCustomTextureMgr@@@@1PAVioCustomTextureMgr@@A ; Singleton<ioCustomTextureMgr>::ms_Singleton

; 44   : 	}

  00005	c3		 ret	 0
?GetSingleton@?$Singleton@VioCustomTextureMgr@@@@SAAAVioCustomTextureMgr@@XZ ENDP ; Singleton<ioCustomTextureMgr>::GetSingleton
_TEXT	ENDS
PUBLIC	??A?$vector@UTrainExtraItem@ioCustomTextureMgr@@V?$allocator@UTrainExtraItem@ioCustomTextureMgr@@@std@@@std@@QAEAAUTrainExtraItem@ioCustomTextureMgr@@I@Z ; std::vector<ioCustomTextureMgr::TrainExtraItem,std::allocator<ioCustomTextureMgr::TrainExtraItem> >::operator[]
; Function compile flags: /Ogsp
; File c:\program files (x86)\microsoft visual studio 10.0\vc\include\vector
;	COMDAT ??A?$vector@UTrainExtraItem@ioCustomTextureMgr@@V?$allocator@UTrainExtraItem@ioCustomTextureMgr@@@std@@@std@@QAEAAUTrainExtraItem@ioCustomTextureMgr@@I@Z
_TEXT	SEGMENT
__Pos$ = 8						; size = 4
??A?$vector@UTrainExtraItem@ioCustomTextureMgr@@V?$allocator@UTrainExtraItem@ioCustomTextureMgr@@@std@@@std@@QAEAAUTrainExtraItem@ioCustomTextureMgr@@I@Z PROC ; std::vector<ioCustomTextureMgr::TrainExtraItem,std::allocator<ioCustomTextureMgr::TrainExtraItem> >::operator[], COMDAT
; _this$ = ecx

; 928  : 		{	// subscript mutable sequence

  00000	55		 push	 ebp
  00001	8b ec		 mov	 ebp, esp

; 929  :  #if _ITERATOR_DEBUG_LEVEL == 2
; 930  : 		if (size() <= _Pos)
; 931  : 			{	// report error
; 932  : 			_DEBUG_ERROR("vector subscript out of range");
; 933  : 			_SCL_SECURE_OUT_OF_RANGE;
; 934  : 			}
; 935  : 
; 936  :  #elif _ITERATOR_DEBUG_LEVEL == 1
; 937  : 		_SCL_SECURE_VALIDATE_RANGE(_Pos < size());
; 938  :  #endif /* _ITERATOR_DEBUG_LEVEL */
; 939  : 
; 940  : 		return (*(this->_Myfirst + _Pos));

  00003	8b 45 08	 mov	 eax, DWORD PTR __Pos$[ebp]
  00006	6b c0 24	 imul	 eax, 36			; 00000024H
  00009	03 01		 add	 eax, DWORD PTR [ecx]

; 941  : 		}

  0000b	5d		 pop	 ebp
  0000c	c2 04 00	 ret	 4
??A?$vector@UTrainExtraItem@ioCustomTextureMgr@@V?$allocator@UTrainExtraItem@ioCustomTextureMgr@@@std@@@std@@QAEAAUTrainExtraItem@ioCustomTextureMgr@@I@Z ENDP ; std::vector<ioCustomTextureMgr::TrainExtraItem,std::allocator<ioCustomTextureMgr::TrainExtraItem> >::operator[]
_TEXT	ENDS
PUBLIC	??0TexDownLoadData@@QAE@ABU0@@Z			; TexDownLoadData::TexDownLoadData
EXTRN	__imp_??0ioHashString@@QAE@ABV0@@Z:PROC
;	COMDAT xdata$x
xdata$x	SEGMENT
__unwindtable$??0TexDownLoadData@@QAE@ABU0@@Z DD 0ffffffffH
	DD	FLAT:__unwindfunclet$??0TexDownLoadData@@QAE@ABU0@@Z$0
__ehfuncinfo$??0TexDownLoadData@@QAE@ABU0@@Z DD 019930522H
	DD	01H
	DD	FLAT:__unwindtable$??0TexDownLoadData@@QAE@ABU0@@Z
	DD	2 DUP(00H)
	DD	2 DUP(00H)
	DD	00H
	DD	01H
; Function compile flags: /Ogsp
xdata$x	ENDS
;	COMDAT ??0TexDownLoadData@@QAE@ABU0@@Z
_TEXT	SEGMENT
_this$ = -16						; size = 4
__$EHRec$ = -12						; size = 12
___that$ = 8						; size = 4
??0TexDownLoadData@@QAE@ABU0@@Z PROC			; TexDownLoadData::TexDownLoadData, COMDAT
; _this$ = ecx
  00000	6a 04		 push	 4
  00002	b8 00 00 00 00	 mov	 eax, __ehhandler$??0TexDownLoadData@@QAE@ABU0@@Z
  00007	e8 00 00 00 00	 call	 __EH_prolog3
  0000c	8b f1		 mov	 esi, ecx
  0000e	89 75 f0	 mov	 DWORD PTR _this$[ebp], esi
  00011	8b 7d 08	 mov	 edi, DWORD PTR ___that$[ebp]
  00014	8b 1d 00 00 00
	00		 mov	 ebx, DWORD PTR __imp_??0ioHashString@@QAE@ABV0@@Z
  0001a	57		 push	 edi
  0001b	ff d3		 call	 ebx
  0001d	83 65 fc 00	 and	 DWORD PTR __$EHRec$[ebp+8], 0
  00021	8d 47 10	 lea	 eax, DWORD PTR [edi+16]
  00024	50		 push	 eax
  00025	8d 4e 10	 lea	 ecx, DWORD PTR [esi+16]
  00028	ff d3		 call	 ebx
  0002a	8b 47 20	 mov	 eax, DWORD PTR [edi+32]
  0002d	89 46 20	 mov	 DWORD PTR [esi+32], eax
  00030	8b 47 24	 mov	 eax, DWORD PTR [edi+36]
  00033	89 46 24	 mov	 DWORD PTR [esi+36], eax
  00036	8b c6		 mov	 eax, esi
  00038	e8 00 00 00 00	 call	 __EH_epilog3
  0003d	c2 04 00	 ret	 4
_TEXT	ENDS
;	COMDAT text$x
text$x	SEGMENT
__unwindfunclet$??0TexDownLoadData@@QAE@ABU0@@Z$0:
  00000	8b 4d f0	 mov	 ecx, DWORD PTR _this$[ebp]
  00003	ff 25 00 00 00
	00		 jmp	 DWORD PTR __imp_??1ioHashString@@QAE@XZ
__ehhandler$??0TexDownLoadData@@QAE@ABU0@@Z:
  00009	8b 54 24 08	 mov	 edx, DWORD PTR [esp+8]
  0000d	8d 42 0c	 lea	 eax, DWORD PTR [edx+12]
  00010	8b 4a ec	 mov	 ecx, DWORD PTR [edx-20]
  00013	33 c8		 xor	 ecx, eax
  00015	e8 00 00 00 00	 call	 @__security_check_cookie@4
  0001a	b8 00 00 00 00	 mov	 eax, OFFSET __ehfuncinfo$??0TexDownLoadData@@QAE@ABU0@@Z
  0001f	e9 00 00 00 00	 jmp	 ___CxxFrameHandler3
text$x	ENDS
??0TexDownLoadData@@QAE@ABU0@@Z ENDP			; TexDownLoadData::TexDownLoadData
PUBLIC	?_Nextnode@?$_List_val@UTexDownLoadData@@V?$allocator@UTexDownLoadData@@@std@@@std@@SAAAPAU_Node@?$_List_nod@UTexDownLoadData@@V?$allocator@UTexDownLoadData@@@std@@@2@PAU342@@Z ; std::_List_val<TexDownLoadData,std::allocator<TexDownLoadData> >::_Nextnode
; Function compile flags: /Ogsp
; File c:\program files (x86)\microsoft visual studio 10.0\vc\include\list
;	COMDAT ?_Nextnode@?$_List_val@UTexDownLoadData@@V?$allocator@UTexDownLoadData@@@std@@@std@@SAAAPAU_Node@?$_List_nod@UTexDownLoadData@@V?$allocator@UTexDownLoadData@@@std@@@2@PAU342@@Z
_TEXT	SEGMENT
__Pnode$ = 8						; size = 4
?_Nextnode@?$_List_val@UTexDownLoadData@@V?$allocator@UTexDownLoadData@@@std@@@std@@SAAAPAU_Node@?$_List_nod@UTexDownLoadData@@V?$allocator@UTexDownLoadData@@@std@@@2@PAU342@@Z PROC ; std::_List_val<TexDownLoadData,std::allocator<TexDownLoadData> >::_Nextnode, COMDAT

; 560  : 		{	// return reference to successor pointer in node

  00000	55		 push	 ebp
  00001	8b ec		 mov	 ebp, esp

; 561  : 		return ((_Nodepref)(*_Pnode)._Next);

  00003	8b 45 08	 mov	 eax, DWORD PTR __Pnode$[ebp]

; 562  : 		}

  00006	5d		 pop	 ebp
  00007	c3		 ret	 0
?_Nextnode@?$_List_val@UTexDownLoadData@@V?$allocator@UTexDownLoadData@@@std@@@std@@SAAAPAU_Node@?$_List_nod@UTexDownLoadData@@V?$allocator@UTexDownLoadData@@@std@@@2@PAU342@@Z ENDP ; std::_List_val<TexDownLoadData,std::allocator<TexDownLoadData> >::_Nextnode
_TEXT	ENDS
PUBLIC	?_Prevnode@?$_List_val@UTexDownLoadData@@V?$allocator@UTexDownLoadData@@@std@@@std@@SAAAPAU_Node@?$_List_nod@UTexDownLoadData@@V?$allocator@UTexDownLoadData@@@std@@@2@PAU342@@Z ; std::_List_val<TexDownLoadData,std::allocator<TexDownLoadData> >::_Prevnode
; Function compile flags: /Ogsp
;	COMDAT ?_Prevnode@?$_List_val@UTexDownLoadData@@V?$allocator@UTexDownLoadData@@@std@@@std@@SAAAPAU_Node@?$_List_nod@UTexDownLoadData@@V?$allocator@UTexDownLoadData@@@std@@@2@PAU342@@Z
_TEXT	SEGMENT
__Pnode$ = 8						; size = 4
?_Prevnode@?$_List_val@UTexDownLoadData@@V?$allocator@UTexDownLoadData@@@std@@@std@@SAAAPAU_Node@?$_List_nod@UTexDownLoadData@@V?$allocator@UTexDownLoadData@@@std@@@2@PAU342@@Z PROC ; std::_List_val<TexDownLoadData,std::allocator<TexDownLoadData> >::_Prevnode, COMDAT

; 565  : 		{	// return reference to predecessor pointer in node

  00000	55		 push	 ebp
  00001	8b ec		 mov	 ebp, esp

; 566  : 		return ((_Nodepref)(*_Pnode)._Prev);

  00003	8b 45 08	 mov	 eax, DWORD PTR __Pnode$[ebp]
  00006	83 c0 04	 add	 eax, 4

; 567  : 		}

  00009	5d		 pop	 ebp
  0000a	c3		 ret	 0
?_Prevnode@?$_List_val@UTexDownLoadData@@V?$allocator@UTexDownLoadData@@@std@@@std@@SAAAPAU_Node@?$_List_nod@UTexDownLoadData@@V?$allocator@UTexDownLoadData@@@std@@@2@PAU342@@Z ENDP ; std::_List_val<TexDownLoadData,std::allocator<TexDownLoadData> >::_Prevnode
_TEXT	ENDS
PUBLIC	??0?$allocator@UTexDownLoadData@@@std@@QAE@XZ	; std::allocator<TexDownLoadData>::allocator<TexDownLoadData>
; Function compile flags: /Ogsp
; File c:\program files (x86)\microsoft visual studio 10.0\vc\include\xmemory
;	COMDAT ??0?$allocator@UTexDownLoadData@@@std@@QAE@XZ
_TEXT	SEGMENT
??0?$allocator@UTexDownLoadData@@@std@@QAE@XZ PROC	; std::allocator<TexDownLoadData>::allocator<TexDownLoadData>, COMDAT
; _this$ = ecx

; 161  : 	_ALLOCATOR() _THROW0()

  00000	8b c1		 mov	 eax, ecx

; 162  : 		{	// construct default allocator (do nothing)
; 163  : 		}

  00002	c3		 ret	 0
??0?$allocator@UTexDownLoadData@@@std@@QAE@XZ ENDP	; std::allocator<TexDownLoadData>::allocator<TexDownLoadData>
_TEXT	ENDS
PUBLIC	?deallocate@?$allocator@U_Node@?$_List_nod@UTexDownLoadData@@V?$allocator@UTexDownLoadData@@@std@@@std@@@std@@QAEXPAU_Node@?$_List_nod@UTexDownLoadData@@V?$allocator@UTexDownLoadData@@@std@@@2@I@Z ; std::allocator<std::_List_nod<TexDownLoadData,std::allocator<TexDownLoadData> >::_Node>::deallocate
; Function compile flags: /Ogsp
;	COMDAT ?deallocate@?$allocator@U_Node@?$_List_nod@UTexDownLoadData@@V?$allocator@UTexDownLoadData@@@std@@@std@@@std@@QAEXPAU_Node@?$_List_nod@UTexDownLoadData@@V?$allocator@UTexDownLoadData@@@std@@@2@I@Z
_TEXT	SEGMENT
__Ptr$ = 8						; size = 4
___formal$ = 12						; size = 4
?deallocate@?$allocator@U_Node@?$_List_nod@UTexDownLoadData@@V?$allocator@UTexDownLoadData@@@std@@@std@@@std@@QAEXPAU_Node@?$_List_nod@UTexDownLoadData@@V?$allocator@UTexDownLoadData@@@std@@@2@I@Z PROC ; std::allocator<std::_List_nod<TexDownLoadData,std::allocator<TexDownLoadData> >::_Node>::deallocate, COMDAT
; _this$ = ecx

; 181  : 		{	// deallocate object at _Ptr, ignore size

  00000	55		 push	 ebp
  00001	8b ec		 mov	 ebp, esp

; 182  : 		::operator delete(_Ptr);

  00003	ff 75 08	 push	 DWORD PTR __Ptr$[ebp]
  00006	e8 00 00 00 00	 call	 ??3@YAXPAX@Z		; operator delete
  0000b	59		 pop	 ecx

; 183  : 		}

  0000c	5d		 pop	 ebp
  0000d	c2 08 00	 ret	 8
?deallocate@?$allocator@U_Node@?$_List_nod@UTexDownLoadData@@V?$allocator@UTexDownLoadData@@@std@@@std@@@std@@QAEXPAU_Node@?$_List_nod@UTexDownLoadData@@V?$allocator@UTexDownLoadData@@@std@@@2@I@Z ENDP ; std::allocator<std::_List_nod<TexDownLoadData,std::allocator<TexDownLoadData> >::_Node>::deallocate
_TEXT	ENDS
PUBLIC	?_Inside@?$vector@UTrainExtraItem@ioCustomTextureMgr@@V?$allocator@UTrainExtraItem@ioCustomTextureMgr@@@std@@@std@@IBE_NPBUTrainExtraItem@ioCustomTextureMgr@@@Z ; std::vector<ioCustomTextureMgr::TrainExtraItem,std::allocator<ioCustomTextureMgr::TrainExtraItem> >::_Inside
; Function compile flags: /Ogsp
; File c:\program files (x86)\microsoft visual studio 10.0\vc\include\vector
;	COMDAT ?_Inside@?$vector@UTrainExtraItem@ioCustomTextureMgr@@V?$allocator@UTrainExtraItem@ioCustomTextureMgr@@@std@@@std@@IBE_NPBUTrainExtraItem@ioCustomTextureMgr@@@Z
_TEXT	SEGMENT
__Ptr$ = 8						; size = 4
?_Inside@?$vector@UTrainExtraItem@ioCustomTextureMgr@@V?$allocator@UTrainExtraItem@ioCustomTextureMgr@@@std@@@std@@IBE_NPBUTrainExtraItem@ioCustomTextureMgr@@@Z PROC ; std::vector<ioCustomTextureMgr::TrainExtraItem,std::allocator<ioCustomTextureMgr::TrainExtraItem> >::_Inside, COMDAT
; _this$ = ecx

; 1285 : 		{	// test if _Ptr points inside vector

  00000	55		 push	 ebp
  00001	8b ec		 mov	 ebp, esp

; 1286 : 		return (_Ptr < this->_Mylast && this->_Myfirst <= _Ptr);

  00003	8b 45 08	 mov	 eax, DWORD PTR __Ptr$[ebp]
  00006	3b 41 04	 cmp	 eax, DWORD PTR [ecx+4]
  00009	73 09		 jae	 SHORT $LN3@Inside
  0000b	39 01		 cmp	 DWORD PTR [ecx], eax
  0000d	77 05		 ja	 SHORT $LN3@Inside
  0000f	33 c0		 xor	 eax, eax
  00011	40		 inc	 eax
  00012	eb 02		 jmp	 SHORT $LN4@Inside
$LN3@Inside:
  00014	33 c0		 xor	 eax, eax
$LN4@Inside:

; 1287 : 		}

  00016	5d		 pop	 ebp
  00017	c2 04 00	 ret	 4
?_Inside@?$vector@UTrainExtraItem@ioCustomTextureMgr@@V?$allocator@UTrainExtraItem@ioCustomTextureMgr@@@std@@@std@@IBE_NPBUTrainExtraItem@ioCustomTextureMgr@@@Z ENDP ; std::vector<ioCustomTextureMgr::TrainExtraItem,std::allocator<ioCustomTextureMgr::TrainExtraItem> >::_Inside
_TEXT	ENDS
PUBLIC	?_Orphan_range@?$vector@UTrainExtraItem@ioCustomTextureMgr@@V?$allocator@UTrainExtraItem@ioCustomTextureMgr@@@std@@@std@@IBEXPAUTrainExtraItem@ioCustomTextureMgr@@0@Z ; std::vector<ioCustomTextureMgr::TrainExtraItem,std::allocator<ioCustomTextureMgr::TrainExtraItem> >::_Orphan_range
; Function compile flags: /Ogsp
;	COMDAT ?_Orphan_range@?$vector@UTrainExtraItem@ioCustomTextureMgr@@V?$allocator@UTrainExtraItem@ioCustomTextureMgr@@@std@@@std@@IBEXPAUTrainExtraItem@ioCustomTextureMgr@@0@Z
_TEXT	SEGMENT
___formal$ = 8						; size = 4
___formal$ = 12						; size = 4
?_Orphan_range@?$vector@UTrainExtraItem@ioCustomTextureMgr@@V?$allocator@UTrainExtraItem@ioCustomTextureMgr@@@std@@@std@@IBEXPAUTrainExtraItem@ioCustomTextureMgr@@0@Z PROC ; std::vector<ioCustomTextureMgr::TrainExtraItem,std::allocator<ioCustomTextureMgr::TrainExtraItem> >::_Orphan_range, COMDAT
; _this$ = ecx

; 1454 : 		}

  00000	c2 08 00	 ret	 8
?_Orphan_range@?$vector@UTrainExtraItem@ioCustomTextureMgr@@V?$allocator@UTrainExtraItem@ioCustomTextureMgr@@@std@@@std@@IBEXPAUTrainExtraItem@ioCustomTextureMgr@@0@Z ENDP ; std::vector<ioCustomTextureMgr::TrainExtraItem,std::allocator<ioCustomTextureMgr::TrainExtraItem> >::_Orphan_range
_TEXT	ENDS
PUBLIC	??1?$_Vector_val@UTrainExtraItem@ioCustomTextureMgr@@V?$allocator@UTrainExtraItem@ioCustomTextureMgr@@@std@@@std@@QAE@XZ ; std::_Vector_val<ioCustomTextureMgr::TrainExtraItem,std::allocator<ioCustomTextureMgr::TrainExtraItem> >::~_Vector_val<ioCustomTextureMgr::TrainExtraItem,std::allocator<ioCustomTextureMgr::TrainExtraItem> >
; Function compile flags: /Ogsp
;	COMDAT ??1?$_Vector_val@UTrainExtraItem@ioCustomTextureMgr@@V?$allocator@UTrainExtraItem@ioCustomTextureMgr@@@std@@@std@@QAE@XZ
_TEXT	SEGMENT
??1?$_Vector_val@UTrainExtraItem@ioCustomTextureMgr@@V?$allocator@UTrainExtraItem@ioCustomTextureMgr@@@std@@@std@@QAE@XZ PROC ; std::_Vector_val<ioCustomTextureMgr::TrainExtraItem,std::allocator<ioCustomTextureMgr::TrainExtraItem> >::~_Vector_val<ioCustomTextureMgr::TrainExtraItem,std::allocator<ioCustomTextureMgr::TrainExtraItem> >, COMDAT
; _this$ = ecx

; 434  : 		}

  00000	c3		 ret	 0
??1?$_Vector_val@UTrainExtraItem@ioCustomTextureMgr@@V?$allocator@UTrainExtraItem@ioCustomTextureMgr@@@std@@@std@@QAE@XZ ENDP ; std::_Vector_val<ioCustomTextureMgr::TrainExtraItem,std::allocator<ioCustomTextureMgr::TrainExtraItem> >::~_Vector_val<ioCustomTextureMgr::TrainExtraItem,std::allocator<ioCustomTextureMgr::TrainExtraItem> >
_TEXT	ENDS
PUBLIC	??0?$allocator@UTrainExtraItem@ioCustomTextureMgr@@@std@@QAE@XZ ; std::allocator<ioCustomTextureMgr::TrainExtraItem>::allocator<ioCustomTextureMgr::TrainExtraItem>
; Function compile flags: /Ogsp
; File c:\program files (x86)\microsoft visual studio 10.0\vc\include\xmemory
;	COMDAT ??0?$allocator@UTrainExtraItem@ioCustomTextureMgr@@@std@@QAE@XZ
_TEXT	SEGMENT
??0?$allocator@UTrainExtraItem@ioCustomTextureMgr@@@std@@QAE@XZ PROC ; std::allocator<ioCustomTextureMgr::TrainExtraItem>::allocator<ioCustomTextureMgr::TrainExtraItem>, COMDAT
; _this$ = ecx

; 161  : 	_ALLOCATOR() _THROW0()

  00000	8b c1		 mov	 eax, ecx

; 162  : 		{	// construct default allocator (do nothing)
; 163  : 		}

  00002	c3		 ret	 0
??0?$allocator@UTrainExtraItem@ioCustomTextureMgr@@@std@@QAE@XZ ENDP ; std::allocator<ioCustomTextureMgr::TrainExtraItem>::allocator<ioCustomTextureMgr::TrainExtraItem>
_TEXT	ENDS
PUBLIC	??8?$_List_const_iterator@V?$_List_val@UTexDownLoadData@@V?$allocator@UTexDownLoadData@@@std@@@std@@@std@@QBE_NABV01@@Z ; std::_List_const_iterator<std::_List_val<TexDownLoadData,std::allocator<TexDownLoadData> > >::operator==
; Function compile flags: /Ogsp
; File c:\program files (x86)\microsoft visual studio 10.0\vc\include\list
;	COMDAT ??8?$_List_const_iterator@V?$_List_val@UTexDownLoadData@@V?$allocator@UTexDownLoadData@@@std@@@std@@@std@@QBE_NABV01@@Z
_TEXT	SEGMENT
__Right$ = 8						; size = 4
??8?$_List_const_iterator@V?$_List_val@UTexDownLoadData@@V?$allocator@UTexDownLoadData@@@std@@@std@@@std@@QBE_NABV01@@Z PROC ; std::_List_const_iterator<std::_List_val<TexDownLoadData,std::allocator<TexDownLoadData> > >::operator==, COMDAT
; _this$ = ecx

; 281  : 		{	// test for iterator equality

  00000	55		 push	 ebp
  00001	8b ec		 mov	 ebp, esp

; 282  :  #if _ITERATOR_DEBUG_LEVEL == 2
; 283  : 		if (this->_Getcont() == 0
; 284  : 			|| this->_Getcont() != _Right._Getcont())
; 285  : 			{	// report error
; 286  : 			_DEBUG_ERROR("list iterators incompatible");
; 287  : 			_SCL_SECURE_INVALID_ARGUMENT;
; 288  : 			}
; 289  : 
; 290  :  #elif _ITERATOR_DEBUG_LEVEL == 1
; 291  : 		_SCL_SECURE_VALIDATE(this->_Getcont() != 0
; 292  : 			&& this->_Getcont() == _Right._Getcont());
; 293  :  #endif /* _ITERATOR_DEBUG_LEVEL */
; 294  : 
; 295  : 		return (this->_Ptr == _Right._Ptr);

  00003	8b 01		 mov	 eax, DWORD PTR [ecx]
  00005	8b 4d 08	 mov	 ecx, DWORD PTR __Right$[ebp]
  00008	2b 01		 sub	 eax, DWORD PTR [ecx]
  0000a	f7 d8		 neg	 eax
  0000c	1b c0		 sbb	 eax, eax
  0000e	40		 inc	 eax

; 296  : 		}

  0000f	5d		 pop	 ebp
  00010	c2 04 00	 ret	 4
??8?$_List_const_iterator@V?$_List_val@UTexDownLoadData@@V?$allocator@UTexDownLoadData@@@std@@@std@@@std@@QBE_NABV01@@Z ENDP ; std::_List_const_iterator<std::_List_val<TexDownLoadData,std::allocator<TexDownLoadData> > >::operator==
_TEXT	ENDS
PUBLIC	??0?$allocator@UTexDownLoadData@@@std@@QAE@ABV01@@Z ; std::allocator<TexDownLoadData>::allocator<TexDownLoadData>
; Function compile flags: /Ogsp
; File c:\program files (x86)\microsoft visual studio 10.0\vc\include\xmemory
;	COMDAT ??0?$allocator@UTexDownLoadData@@@std@@QAE@ABV01@@Z
_TEXT	SEGMENT
___formal$ = 8						; size = 4
??0?$allocator@UTexDownLoadData@@@std@@QAE@ABV01@@Z PROC ; std::allocator<TexDownLoadData>::allocator<TexDownLoadData>, COMDAT
; _this$ = ecx

; 165  : 	_ALLOCATOR(const _ALLOCATOR<_Ty>&) _THROW0()

  00000	8b c1		 mov	 eax, ecx

; 166  : 		{	// construct by copying (do nothing)
; 167  : 		}

  00002	c2 04 00	 ret	 4
??0?$allocator@UTexDownLoadData@@@std@@QAE@ABV01@@Z ENDP ; std::allocator<TexDownLoadData>::allocator<TexDownLoadData>
_TEXT	ENDS
PUBLIC	?capacity@?$vector@UTrainExtraItem@ioCustomTextureMgr@@V?$allocator@UTrainExtraItem@ioCustomTextureMgr@@@std@@@std@@QBEIXZ ; std::vector<ioCustomTextureMgr::TrainExtraItem,std::allocator<ioCustomTextureMgr::TrainExtraItem> >::capacity
; Function compile flags: /Ogsp
; File c:\program files (x86)\microsoft visual studio 10.0\vc\include\vector
;	COMDAT ?capacity@?$vector@UTrainExtraItem@ioCustomTextureMgr@@V?$allocator@UTrainExtraItem@ioCustomTextureMgr@@@std@@@std@@QBEIXZ
_TEXT	SEGMENT
?capacity@?$vector@UTrainExtraItem@ioCustomTextureMgr@@V?$allocator@UTrainExtraItem@ioCustomTextureMgr@@@std@@@std@@QBEIXZ PROC ; std::vector<ioCustomTextureMgr::TrainExtraItem,std::allocator<ioCustomTextureMgr::TrainExtraItem> >::capacity, COMDAT
; _this$ = ecx

; 777  : 		return (this->_Myend - this->_Myfirst);

  00000	8b 41 08	 mov	 eax, DWORD PTR [ecx+8]
  00003	2b 01		 sub	 eax, DWORD PTR [ecx]
  00005	6a 24		 push	 36			; 00000024H
  00007	99		 cdq
  00008	59		 pop	 ecx
  00009	f7 f9		 idiv	 ecx

; 778  : 		}

  0000b	c3		 ret	 0
?capacity@?$vector@UTrainExtraItem@ioCustomTextureMgr@@V?$allocator@UTrainExtraItem@ioCustomTextureMgr@@@std@@@std@@QBEIXZ ENDP ; std::vector<ioCustomTextureMgr::TrainExtraItem,std::allocator<ioCustomTextureMgr::TrainExtraItem> >::capacity
_TEXT	ENDS
PUBLIC	??_C@_0BD@OLBABOEK@vector?$DMT?$DO?5too?5long?$AA@ ; `string'
PUBLIC	?_Xlen@?$vector@UTrainExtraItem@ioCustomTextureMgr@@V?$allocator@UTrainExtraItem@ioCustomTextureMgr@@@std@@@std@@IBEXXZ ; std::vector<ioCustomTextureMgr::TrainExtraItem,std::allocator<ioCustomTextureMgr::TrainExtraItem> >::_Xlen
EXTRN	__imp_?_Xlength_error@std@@YAXPBD@Z:PROC
;	COMDAT ??_C@_0BD@OLBABOEK@vector?$DMT?$DO?5too?5long?$AA@
CONST	SEGMENT
??_C@_0BD@OLBABOEK@vector?$DMT?$DO?5too?5long?$AA@ DB 'vector<T> too long'
	DB	00H						; `string'
; Function compile flags: /Ogsp
CONST	ENDS
;	COMDAT ?_Xlen@?$vector@UTrainExtraItem@ioCustomTextureMgr@@V?$allocator@UTrainExtraItem@ioCustomTextureMgr@@@std@@@std@@IBEXXZ
_TEXT	SEGMENT
?_Xlen@?$vector@UTrainExtraItem@ioCustomTextureMgr@@V?$allocator@UTrainExtraItem@ioCustomTextureMgr@@@std@@@std@@IBEXXZ PROC ; std::vector<ioCustomTextureMgr::TrainExtraItem,std::allocator<ioCustomTextureMgr::TrainExtraItem> >::_Xlen, COMDAT
; _this$ = ecx

; 1427 : 		_Xlength_error("vector<T> too long");

  00000	68 00 00 00 00	 push	 OFFSET ??_C@_0BD@OLBABOEK@vector?$DMT?$DO?5too?5long?$AA@
  00005	ff 15 00 00 00
	00		 call	 DWORD PTR __imp_?_Xlength_error@std@@YAXPBD@Z
$LN4@Xlen:
$LN3@Xlen:
  0000b	cc		 int	 3
?_Xlen@?$vector@UTrainExtraItem@ioCustomTextureMgr@@V?$allocator@UTrainExtraItem@ioCustomTextureMgr@@@std@@@std@@IBEXXZ ENDP ; std::vector<ioCustomTextureMgr::TrainExtraItem,std::allocator<ioCustomTextureMgr::TrainExtraItem> >::_Xlen
_TEXT	ENDS
PUBLIC	??0?$allocator@UTrainExtraItem@ioCustomTextureMgr@@@std@@QAE@ABV01@@Z ; std::allocator<ioCustomTextureMgr::TrainExtraItem>::allocator<ioCustomTextureMgr::TrainExtraItem>
; Function compile flags: /Ogsp
; File c:\program files (x86)\microsoft visual studio 10.0\vc\include\xmemory
;	COMDAT ??0?$allocator@UTrainExtraItem@ioCustomTextureMgr@@@std@@QAE@ABV01@@Z
_TEXT	SEGMENT
___formal$ = 8						; size = 4
??0?$allocator@UTrainExtraItem@ioCustomTextureMgr@@@std@@QAE@ABV01@@Z PROC ; std::allocator<ioCustomTextureMgr::TrainExtraItem>::allocator<ioCustomTextureMgr::TrainExtraItem>, COMDAT
; _this$ = ecx

; 165  : 	_ALLOCATOR(const _ALLOCATOR<_Ty>&) _THROW0()

  00000	8b c1		 mov	 eax, ecx

; 166  : 		{	// construct by copying (do nothing)
; 167  : 		}

  00002	c2 04 00	 ret	 4
??0?$allocator@UTrainExtraItem@ioCustomTextureMgr@@@std@@QAE@ABV01@@Z ENDP ; std::allocator<ioCustomTextureMgr::TrainExtraItem>::allocator<ioCustomTextureMgr::TrainExtraItem>
_TEXT	ENDS
PUBLIC	?deallocate@?$allocator@UTrainExtraItem@ioCustomTextureMgr@@@std@@QAEXPAUTrainExtraItem@ioCustomTextureMgr@@I@Z ; std::allocator<ioCustomTextureMgr::TrainExtraItem>::deallocate
; Function compile flags: /Ogsp
;	COMDAT ?deallocate@?$allocator@UTrainExtraItem@ioCustomTextureMgr@@@std@@QAEXPAUTrainExtraItem@ioCustomTextureMgr@@I@Z
_TEXT	SEGMENT
__Ptr$ = 8						; size = 4
___formal$ = 12						; size = 4
?deallocate@?$allocator@UTrainExtraItem@ioCustomTextureMgr@@@std@@QAEXPAUTrainExtraItem@ioCustomTextureMgr@@I@Z PROC ; std::allocator<ioCustomTextureMgr::TrainExtraItem>::deallocate, COMDAT
; _this$ = ecx

; 181  : 		{	// deallocate object at _Ptr, ignore size

  00000	55		 push	 ebp
  00001	8b ec		 mov	 ebp, esp

; 182  : 		::operator delete(_Ptr);

  00003	ff 75 08	 push	 DWORD PTR __Ptr$[ebp]
  00006	e8 00 00 00 00	 call	 ??3@YAXPAX@Z		; operator delete
  0000b	59		 pop	 ecx

; 183  : 		}

  0000c	5d		 pop	 ebp
  0000d	c2 08 00	 ret	 8
?deallocate@?$allocator@UTrainExtraItem@ioCustomTextureMgr@@@std@@QAEXPAUTrainExtraItem@ioCustomTextureMgr@@I@Z ENDP ; std::allocator<ioCustomTextureMgr::TrainExtraItem>::deallocate
_TEXT	ENDS
PUBLIC	??Y?$_Vector_const_iterator@V?$_Vector_val@KV?$allocator@K@std@@@std@@@std@@QAEAAV01@H@Z ; std::_Vector_const_iterator<std::_Vector_val<unsigned long,std::allocator<unsigned long> > >::operator+=
; Function compile flags: /Ogsp
; File c:\program files (x86)\microsoft visual studio 10.0\vc\include\vector
;	COMDAT ??Y?$_Vector_const_iterator@V?$_Vector_val@KV?$allocator@K@std@@@std@@@std@@QAEAAV01@H@Z
_TEXT	SEGMENT
__Off$ = 8						; size = 4
??Y?$_Vector_const_iterator@V?$_Vector_val@KV?$allocator@K@std@@@std@@@std@@QAEAAV01@H@Z PROC ; std::_Vector_const_iterator<std::_Vector_val<unsigned long,std::allocator<unsigned long> > >::operator+=, COMDAT
; _this$ = ecx

; 151  : 		{	// increment by integer

  00000	55		 push	 ebp
  00001	8b ec		 mov	 ebp, esp
  00003	8b c1		 mov	 eax, ecx

; 152  :  #if _ITERATOR_DEBUG_LEVEL == 2
; 153  : 		if (this->_Getcont() == 0
; 154  : 			|| this->_Ptr + _Off < ((_Myvec *)this->_Getcont())->_Myfirst
; 155  : 			|| ((_Myvec *)this->_Getcont())->_Mylast < this->_Ptr + _Off)
; 156  : 			{	// report error
; 157  : 			_DEBUG_ERROR("vector iterator + offset out of range");
; 158  : 			_SCL_SECURE_OUT_OF_RANGE;
; 159  : 			}
; 160  : 
; 161  :  #elif _ITERATOR_DEBUG_LEVEL == 1
; 162  : 		_SCL_SECURE_VALIDATE(this->_Getcont() != 0);
; 163  : 		_SCL_SECURE_VALIDATE_RANGE(
; 164  : 			((_Myvec *)this->_Getcont())->_Myfirst <= this->_Ptr + _Off
; 165  : 			&& this->_Ptr + _Off <= ((_Myvec *)this->_Getcont())->_Mylast);
; 166  :  #endif /* _ITERATOR_DEBUG_LEVEL */
; 167  : 
; 168  : 		_Ptr += _Off;

  00005	8b 4d 08	 mov	 ecx, DWORD PTR __Off$[ebp]
  00008	c1 e1 02	 shl	 ecx, 2
  0000b	01 08		 add	 DWORD PTR [eax], ecx

; 169  : 		return (*this);
; 170  : 		}

  0000d	5d		 pop	 ebp
  0000e	c2 04 00	 ret	 4
??Y?$_Vector_const_iterator@V?$_Vector_val@KV?$allocator@K@std@@@std@@@std@@QAEAAV01@H@Z ENDP ; std::_Vector_const_iterator<std::_Vector_val<unsigned long,std::allocator<unsigned long> > >::operator+=
_TEXT	ENDS
PUBLIC	?_Mynode@?$_List_unchecked_const_iterator@V?$_List_val@UTexDownLoadData@@V?$allocator@UTexDownLoadData@@@std@@@std@@U_Iterator_base0@2@@std@@QBEPAU_Node@?$_List_nod@UTexDownLoadData@@V?$allocator@UTexDownLoadData@@@std@@@2@XZ ; std::_List_unchecked_const_iterator<std::_List_val<TexDownLoadData,std::allocator<TexDownLoadData> >,std::_Iterator_base0>::_Mynode
; Function compile flags: /Ogsp
; File c:\program files (x86)\microsoft visual studio 10.0\vc\include\list
;	COMDAT ?_Mynode@?$_List_unchecked_const_iterator@V?$_List_val@UTexDownLoadData@@V?$allocator@UTexDownLoadData@@@std@@@std@@U_Iterator_base0@2@@std@@QBEPAU_Node@?$_List_nod@UTexDownLoadData@@V?$allocator@UTexDownLoadData@@@std@@@2@XZ
_TEXT	SEGMENT
?_Mynode@?$_List_unchecked_const_iterator@V?$_List_val@UTexDownLoadData@@V?$allocator@UTexDownLoadData@@@std@@@std@@U_Iterator_base0@2@@std@@QBEPAU_Node@?$_List_nod@UTexDownLoadData@@V?$allocator@UTexDownLoadData@@@std@@@2@XZ PROC ; std::_List_unchecked_const_iterator<std::_List_val<TexDownLoadData,std::allocator<TexDownLoadData> >,std::_Iterator_base0>::_Mynode, COMDAT
; _this$ = ecx

; 93   : 		return (_Ptr);

  00000	8b 01		 mov	 eax, DWORD PTR [ecx]

; 94   : 		}

  00002	c3		 ret	 0
?_Mynode@?$_List_unchecked_const_iterator@V?$_List_val@UTexDownLoadData@@V?$allocator@UTexDownLoadData@@@std@@@std@@U_Iterator_base0@2@@std@@QBEPAU_Node@?$_List_nod@UTexDownLoadData@@V?$allocator@UTexDownLoadData@@@std@@@2@XZ ENDP ; std::_List_unchecked_const_iterator<std::_List_val<TexDownLoadData,std::allocator<TexDownLoadData> >,std::_Iterator_base0>::_Mynode
_TEXT	ENDS
PUBLIC	?_Myval@?$_List_val@UTexDownLoadData@@V?$allocator@UTexDownLoadData@@@std@@@std@@SAAAUTexDownLoadData@@PAU_Node@?$_List_nod@UTexDownLoadData@@V?$allocator@UTexDownLoadData@@@std@@@2@@Z ; std::_List_val<TexDownLoadData,std::allocator<TexDownLoadData> >::_Myval
; Function compile flags: /Ogsp
;	COMDAT ?_Myval@?$_List_val@UTexDownLoadData@@V?$allocator@UTexDownLoadData@@@std@@@std@@SAAAUTexDownLoadData@@PAU_Node@?$_List_nod@UTexDownLoadData@@V?$allocator@UTexDownLoadData@@@std@@@2@@Z
_TEXT	SEGMENT
__Pnode$ = 8						; size = 4
?_Myval@?$_List_val@UTexDownLoadData@@V?$allocator@UTexDownLoadData@@@std@@@std@@SAAAUTexDownLoadData@@PAU_Node@?$_List_nod@UTexDownLoadData@@V?$allocator@UTexDownLoadData@@@std@@@2@@Z PROC ; std::_List_val<TexDownLoadData,std::allocator<TexDownLoadData> >::_Myval, COMDAT

; 570  : 		{	// return reference to value in node

  00000	55		 push	 ebp
  00001	8b ec		 mov	 ebp, esp

; 571  : 		return ((reference)(*_Pnode)._Myval);

  00003	8b 45 08	 mov	 eax, DWORD PTR __Pnode$[ebp]
  00006	83 c0 08	 add	 eax, 8

; 572  : 		}

  00009	5d		 pop	 ebp
  0000a	c3		 ret	 0
?_Myval@?$_List_val@UTexDownLoadData@@V?$allocator@UTexDownLoadData@@@std@@@std@@SAAAUTexDownLoadData@@PAU_Node@?$_List_nod@UTexDownLoadData@@V?$allocator@UTexDownLoadData@@@std@@@2@@Z ENDP ; std::_List_val<TexDownLoadData,std::allocator<TexDownLoadData> >::_Myval
_TEXT	ENDS
PUBLIC	?max_size@?$allocator@UTrainExtraItem@ioCustomTextureMgr@@@std@@QBEIXZ ; std::allocator<ioCustomTextureMgr::TrainExtraItem>::max_size
; Function compile flags: /Ogsp
; File c:\program files (x86)\microsoft visual studio 10.0\vc\include\xmemory
;	COMDAT ?max_size@?$allocator@UTrainExtraItem@ioCustomTextureMgr@@@std@@QBEIXZ
_TEXT	SEGMENT
?max_size@?$allocator@UTrainExtraItem@ioCustomTextureMgr@@@std@@QBEIXZ PROC ; std::allocator<ioCustomTextureMgr::TrainExtraItem>::max_size, COMDAT
; _this$ = ecx

; 218  : 		_SIZT _Count = (_SIZT)(-1) / sizeof (_Ty);
; 219  : 		return (0 < _Count ? _Count : 1);

  00000	b8 c7 71 1c 07	 mov	 eax, 119304647		; 071c71c7H

; 220  : 		}

  00005	c3		 ret	 0
?max_size@?$allocator@UTrainExtraItem@ioCustomTextureMgr@@@std@@QBEIXZ ENDP ; std::allocator<ioCustomTextureMgr::TrainExtraItem>::max_size
_TEXT	ENDS
PUBLIC	??0?$_List_unchecked_const_iterator@V?$_List_val@UTexDownLoadData@@V?$allocator@UTexDownLoadData@@@std@@@std@@U_Iterator_base0@2@@std@@QAE@PAU_Node@?$_List_nod@UTexDownLoadData@@V?$allocator@UTexDownLoadData@@@std@@@1@PBV?$_List_val@UTexDownLoadData@@V?$allocator@UTexDownLoadData@@@std@@@1@@Z ; std::_List_unchecked_const_iterator<std::_List_val<TexDownLoadData,std::allocator<TexDownLoadData> >,std::_Iterator_base0>::_List_unchecked_const_iterator<std::_List_val<TexDownLoadData,std::allocator<TexDownLoadData> >,std::_Iterator_base0>
; Function compile flags: /Ogsp
; File c:\program files (x86)\microsoft visual studio 10.0\vc\include\list
;	COMDAT ??0?$_List_unchecked_const_iterator@V?$_List_val@UTexDownLoadData@@V?$allocator@UTexDownLoadData@@@std@@@std@@U_Iterator_base0@2@@std@@QAE@PAU_Node@?$_List_nod@UTexDownLoadData@@V?$allocator@UTexDownLoadData@@@std@@@1@PBV?$_List_val@UTexDownLoadData@@V?$allocator@UTexDownLoadData@@@std@@@1@@Z
_TEXT	SEGMENT
__Pnode$ = 8						; size = 4
__Plist$ = 12						; size = 4
??0?$_List_unchecked_const_iterator@V?$_List_val@UTexDownLoadData@@V?$allocator@UTexDownLoadData@@@std@@@std@@U_Iterator_base0@2@@std@@QAE@PAU_Node@?$_List_nod@UTexDownLoadData@@V?$allocator@UTexDownLoadData@@@std@@@1@PBV?$_List_val@UTexDownLoadData@@V?$allocator@UTexDownLoadData@@@std@@@1@@Z PROC ; std::_List_unchecked_const_iterator<std::_List_val<TexDownLoadData,std::allocator<TexDownLoadData> >,std::_Iterator_base0>::_List_unchecked_const_iterator<std::_List_val<TexDownLoadData,std::allocator<TexDownLoadData> >,std::_Iterator_base0>, COMDAT
; _this$ = ecx

; 41   : 		{	// construct with node pointer _Pnode

  00000	55		 push	 ebp
  00001	8b ec		 mov	 ebp, esp
  00003	8b c1		 mov	 eax, ecx
  00005	8b 4d 08	 mov	 ecx, DWORD PTR __Pnode$[ebp]
  00008	89 08		 mov	 DWORD PTR [eax], ecx

; 42   : 		this->_Adopt(_Plist);
; 43   : 		}

  0000a	5d		 pop	 ebp
  0000b	c2 08 00	 ret	 8
??0?$_List_unchecked_const_iterator@V?$_List_val@UTexDownLoadData@@V?$allocator@UTexDownLoadData@@@std@@@std@@U_Iterator_base0@2@@std@@QAE@PAU_Node@?$_List_nod@UTexDownLoadData@@V?$allocator@UTexDownLoadData@@@std@@@1@PBV?$_List_val@UTexDownLoadData@@V?$allocator@UTexDownLoadData@@@std@@@1@@Z ENDP ; std::_List_unchecked_const_iterator<std::_List_val<TexDownLoadData,std::allocator<TexDownLoadData> >,std::_Iterator_base0>::_List_unchecked_const_iterator<std::_List_val<TexDownLoadData,std::allocator<TexDownLoadData> >,std::_Iterator_base0>
_TEXT	ENDS
PUBLIC	?max_size@?$allocator@UTexDownLoadData@@@std@@QBEIXZ ; std::allocator<TexDownLoadData>::max_size
; Function compile flags: /Ogsp
; File c:\program files (x86)\microsoft visual studio 10.0\vc\include\xmemory
;	COMDAT ?max_size@?$allocator@UTexDownLoadData@@@std@@QBEIXZ
_TEXT	SEGMENT
?max_size@?$allocator@UTexDownLoadData@@@std@@QBEIXZ PROC ; std::allocator<TexDownLoadData>::max_size, COMDAT
; _this$ = ecx

; 218  : 		_SIZT _Count = (_SIZT)(-1) / sizeof (_Ty);
; 219  : 		return (0 < _Count ? _Count : 1);

  00000	b8 66 66 66 06	 mov	 eax, 107374182		; 06666666H

; 220  : 		}

  00005	c3		 ret	 0
?max_size@?$allocator@UTexDownLoadData@@@std@@QBEIXZ ENDP ; std::allocator<TexDownLoadData>::max_size
_TEXT	ENDS
PUBLIC	??$addressof@$$CBUTrainExtraItem@ioCustomTextureMgr@@@std@@YAPBUTrainExtraItem@ioCustomTextureMgr@@ABU12@@Z ; std::addressof<ioCustomTextureMgr::TrainExtraItem const >
; Function compile flags: /Ogsp
;	COMDAT ??$addressof@$$CBUTrainExtraItem@ioCustomTextureMgr@@@std@@YAPBUTrainExtraItem@ioCustomTextureMgr@@ABU12@@Z
_TEXT	SEGMENT
__Val$ = 8						; size = 4
??$addressof@$$CBUTrainExtraItem@ioCustomTextureMgr@@@std@@YAPBUTrainExtraItem@ioCustomTextureMgr@@ABU12@@Z PROC ; std::addressof<ioCustomTextureMgr::TrainExtraItem const >, COMDAT

; 110  : 	{	// return address of _Val

  00000	55		 push	 ebp
  00001	8b ec		 mov	 ebp, esp

; 111  : 	return ((_Ty *) &(char&)_Val);

  00003	8b 45 08	 mov	 eax, DWORD PTR __Val$[ebp]

; 112  : 	}

  00006	5d		 pop	 ebp
  00007	c3		 ret	 0
??$addressof@$$CBUTrainExtraItem@ioCustomTextureMgr@@@std@@YAPBUTrainExtraItem@ioCustomTextureMgr@@ABU12@@Z ENDP ; std::addressof<ioCustomTextureMgr::TrainExtraItem const >
_TEXT	ENDS
PUBLIC	??$addressof@UTexDownLoadData@@@std@@YAPAUTexDownLoadData@@AAU1@@Z ; std::addressof<TexDownLoadData>
; Function compile flags: /Ogsp
;	COMDAT ??$addressof@UTexDownLoadData@@@std@@YAPAUTexDownLoadData@@AAU1@@Z
_TEXT	SEGMENT
__Val$ = 8						; size = 4
??$addressof@UTexDownLoadData@@@std@@YAPAUTexDownLoadData@@AAU1@@Z PROC ; std::addressof<TexDownLoadData>, COMDAT

; 110  : 	{	// return address of _Val

  00000	55		 push	 ebp
  00001	8b ec		 mov	 ebp, esp

; 111  : 	return ((_Ty *) &(char&)_Val);

  00003	8b 45 08	 mov	 eax, DWORD PTR __Val$[ebp]

; 112  : 	}

  00006	5d		 pop	 ebp
  00007	c3		 ret	 0
??$addressof@UTexDownLoadData@@@std@@YAPAUTexDownLoadData@@AAU1@@Z ENDP ; std::addressof<TexDownLoadData>
_TEXT	ENDS
PUBLIC	??$?0UTexDownLoadData@@@?$allocator@U_Node@?$_List_nod@UTexDownLoadData@@V?$allocator@UTexDownLoadData@@@std@@@std@@@std@@QAE@ABV?$allocator@UTexDownLoadData@@@1@@Z ; std::allocator<std::_List_nod<TexDownLoadData,std::allocator<TexDownLoadData> >::_Node>::allocator<std::_List_nod<TexDownLoadData,std::allocator<TexDownLoadData> >::_Node><TexDownLoadData>
; Function compile flags: /Ogsp
;	COMDAT ??$?0UTexDownLoadData@@@?$allocator@U_Node@?$_List_nod@UTexDownLoadData@@V?$allocator@UTexDownLoadData@@@std@@@std@@@std@@QAE@ABV?$allocator@UTexDownLoadData@@@1@@Z
_TEXT	SEGMENT
___formal$ = 8						; size = 4
??$?0UTexDownLoadData@@@?$allocator@U_Node@?$_List_nod@UTexDownLoadData@@V?$allocator@UTexDownLoadData@@@std@@@std@@@std@@QAE@ABV?$allocator@UTexDownLoadData@@@1@@Z PROC ; std::allocator<std::_List_nod<TexDownLoadData,std::allocator<TexDownLoadData> >::_Node>::allocator<std::_List_nod<TexDownLoadData,std::allocator<TexDownLoadData> >::_Node><TexDownLoadData>, COMDAT
; _this$ = ecx

; 170  : 		_ALLOCATOR(const _ALLOCATOR<_Other>&) _THROW0()

  00000	8b c1		 mov	 eax, ecx

; 171  : 		{	// construct from a related allocator (do nothing)
; 172  : 		}

  00002	c2 04 00	 ret	 4
??$?0UTexDownLoadData@@@?$allocator@U_Node@?$_List_nod@UTexDownLoadData@@V?$allocator@UTexDownLoadData@@@std@@@std@@@std@@QAE@ABV?$allocator@UTexDownLoadData@@@1@@Z ENDP ; std::allocator<std::_List_nod<TexDownLoadData,std::allocator<TexDownLoadData> >::_Node>::allocator<std::_List_nod<TexDownLoadData,std::allocator<TexDownLoadData> >::_Node><TexDownLoadData>
_TEXT	ENDS
PUBLIC	__TI2?AVbad_alloc@std@@
PUBLIC	??$_Allocate@U_Node@?$_List_nod@UTexDownLoadData@@V?$allocator@UTexDownLoadData@@@std@@@std@@@std@@YAPAU_Node@?$_List_nod@UTexDownLoadData@@V?$allocator@UTexDownLoadData@@@std@@@0@IPAU120@@Z ; std::_Allocate<std::_List_nod<TexDownLoadData,std::allocator<TexDownLoadData> >::_Node>
PUBLIC	__CTA2?AVbad_alloc@std@@
PUBLIC	__CT??_R0?AVbad_alloc@std@@@8??0bad_alloc@std@@QAE@ABV01@@Z12
PUBLIC	??0bad_alloc@std@@QAE@ABV01@@Z			; std::bad_alloc::bad_alloc
PUBLIC	__CT??_R0?AVexception@std@@@8??0exception@std@@QAE@ABV01@@Z12
EXTRN	??2@YAPAXI@Z:PROC				; operator new
EXTRN	__CxxThrowException@8:PROC
EXTRN	??0exception@std@@QAE@ABV01@@Z:PROC		; std::exception::exception
;	COMDAT __CT??_R0?AVexception@std@@@8??0exception@std@@QAE@ABV01@@Z12
; File c:\program files (x86)\microsoft visual studio 10.0\vc\include\exception
xdata$x	SEGMENT
__CT??_R0?AVexception@std@@@8??0exception@std@@QAE@ABV01@@Z12 DD 00H
	DD	FLAT:??_R0?AVexception@std@@@8
	DD	00H
	DD	0ffffffffH
	ORG $+4
	DD	0cH
	DD	FLAT:??0exception@std@@QAE@ABV01@@Z
xdata$x	ENDS
;	COMDAT __CT??_R0?AVbad_alloc@std@@@8??0bad_alloc@std@@QAE@ABV01@@Z12
xdata$x	SEGMENT
__CT??_R0?AVbad_alloc@std@@@8??0bad_alloc@std@@QAE@ABV01@@Z12 DD 00H
	DD	FLAT:??_R0?AVbad_alloc@std@@@8
	DD	00H
	DD	0ffffffffH
	ORG $+4
	DD	0cH
	DD	FLAT:??0bad_alloc@std@@QAE@ABV01@@Z
xdata$x	ENDS
;	COMDAT __CTA2?AVbad_alloc@std@@
xdata$x	SEGMENT
__CTA2?AVbad_alloc@std@@ DD 02H
	DD	FLAT:__CT??_R0?AVbad_alloc@std@@@8??0bad_alloc@std@@QAE@ABV01@@Z12
	DD	FLAT:__CT??_R0?AVexception@std@@@8??0exception@std@@QAE@ABV01@@Z12
xdata$x	ENDS
;	COMDAT __TI2?AVbad_alloc@std@@
xdata$x	SEGMENT
__TI2?AVbad_alloc@std@@ DD 00H
	DD	FLAT:??1bad_alloc@std@@UAE@XZ
	DD	00H
	DD	FLAT:__CTA2?AVbad_alloc@std@@
; Function compile flags: /Ogsp
; File c:\program files (x86)\microsoft visual studio 10.0\vc\include\xmemory
xdata$x	ENDS
;	COMDAT ??$_Allocate@U_Node@?$_List_nod@UTexDownLoadData@@V?$allocator@UTexDownLoadData@@@std@@@std@@@std@@YAPAU_Node@?$_List_nod@UTexDownLoadData@@V?$allocator@UTexDownLoadData@@@std@@@0@IPAU120@@Z
_TEXT	SEGMENT
$T534028 = -12						; size = 12
$T534033 = 8						; size = 4
__Count$ = 8						; size = 4
___formal$ = 12						; size = 4
??$_Allocate@U_Node@?$_List_nod@UTexDownLoadData@@V?$allocator@UTexDownLoadData@@@std@@@std@@@std@@YAPAU_Node@?$_List_nod@UTexDownLoadData@@V?$allocator@UTexDownLoadData@@@std@@@0@IPAU120@@Z PROC ; std::_Allocate<std::_List_nod<TexDownLoadData,std::allocator<TexDownLoadData> >::_Node>, COMDAT

; 30   : 	{	// allocate storage for _Count elements of type _Ty

  00000	55		 push	 ebp
  00001	8b ec		 mov	 ebp, esp

; 31   : 	void *_Ptr = 0;
; 32   : 
; 33   : 	if (_Count <= 0)

  00003	8b 4d 08	 mov	 ecx, DWORD PTR __Count$[ebp]
  00006	83 ec 0c	 sub	 esp, 12			; 0000000cH
  00009	33 c0		 xor	 eax, eax
  0000b	85 c9		 test	 ecx, ecx

; 34   : 		_Count = 0;
; 35   : 	else if (((_SIZT)(-1) / sizeof (_Ty) < _Count)

  0000d	74 3c		 je	 SHORT $LN5@Allocate

; 36   : 		|| (_Ptr = ::operator new(_Count * sizeof (_Ty))) == 0)

  0000f	81 f9 55 55 55
	05		 cmp	 ecx, 89478485		; 05555555H
  00015	77 0e		 ja	 SHORT $LN1@Allocate
  00017	6b c9 30	 imul	 ecx, 48			; 00000030H
  0001a	51		 push	 ecx
  0001b	e8 00 00 00 00	 call	 ??2@YAPAXI@Z		; operator new
  00020	59		 pop	 ecx
  00021	85 c0		 test	 eax, eax

; 38   : 
; 39   : 	return ((_Ty _FARQ *)_Ptr);

  00023	75 26		 jne	 SHORT $LN5@Allocate
$LN1@Allocate:

; 37   : 		_THROW_NCEE(bad_alloc, 0);

  00025	83 65 08 00	 and	 DWORD PTR $T534033[ebp], 0
  00029	8d 45 08	 lea	 eax, DWORD PTR $T534033[ebp]
  0002c	50		 push	 eax
  0002d	8d 4d f4	 lea	 ecx, DWORD PTR $T534028[ebp]
  00030	ff 15 00 00 00
	00		 call	 DWORD PTR __imp_??0exception@std@@QAE@ABQBD@Z
  00036	68 00 00 00 00	 push	 OFFSET __TI2?AVbad_alloc@std@@
  0003b	8d 45 f4	 lea	 eax, DWORD PTR $T534028[ebp]
  0003e	50		 push	 eax
  0003f	c7 45 f4 00 00
	00 00		 mov	 DWORD PTR $T534028[ebp], OFFSET ??_7bad_alloc@std@@6B@
  00046	e8 00 00 00 00	 call	 __CxxThrowException@8
$LN10@Allocate:
$LN5@Allocate:

; 40   : 	}

  0004b	c9		 leave
  0004c	c3		 ret	 0
$LN9@Allocate:
??$_Allocate@U_Node@?$_List_nod@UTexDownLoadData@@V?$allocator@UTexDownLoadData@@@std@@@std@@@std@@YAPAU_Node@?$_List_nod@UTexDownLoadData@@V?$allocator@UTexDownLoadData@@@std@@@0@IPAU120@@Z ENDP ; std::_Allocate<std::_List_nod<TexDownLoadData,std::allocator<TexDownLoadData> >::_Node>
_TEXT	ENDS
PUBLIC	??$_Allocate@UTrainExtraItem@ioCustomTextureMgr@@@std@@YAPAUTrainExtraItem@ioCustomTextureMgr@@IPAU12@@Z ; std::_Allocate<ioCustomTextureMgr::TrainExtraItem>
; Function compile flags: /Ogsp
;	COMDAT ??$_Allocate@UTrainExtraItem@ioCustomTextureMgr@@@std@@YAPAUTrainExtraItem@ioCustomTextureMgr@@IPAU12@@Z
_TEXT	SEGMENT
$T534038 = -12						; size = 12
$T534042 = 8						; size = 4
__Count$ = 8						; size = 4
___formal$ = 12						; size = 4
??$_Allocate@UTrainExtraItem@ioCustomTextureMgr@@@std@@YAPAUTrainExtraItem@ioCustomTextureMgr@@IPAU12@@Z PROC ; std::_Allocate<ioCustomTextureMgr::TrainExtraItem>, COMDAT

; 30   : 	{	// allocate storage for _Count elements of type _Ty

  00000	55		 push	 ebp
  00001	8b ec		 mov	 ebp, esp

; 31   : 	void *_Ptr = 0;
; 32   : 
; 33   : 	if (_Count <= 0)

  00003	8b 4d 08	 mov	 ecx, DWORD PTR __Count$[ebp]
  00006	83 ec 0c	 sub	 esp, 12			; 0000000cH
  00009	33 c0		 xor	 eax, eax
  0000b	85 c9		 test	 ecx, ecx

; 34   : 		_Count = 0;
; 35   : 	else if (((_SIZT)(-1) / sizeof (_Ty) < _Count)

  0000d	74 3c		 je	 SHORT $LN5@Allocate@2

; 36   : 		|| (_Ptr = ::operator new(_Count * sizeof (_Ty))) == 0)

  0000f	81 f9 c7 71 1c
	07		 cmp	 ecx, 119304647		; 071c71c7H
  00015	77 0e		 ja	 SHORT $LN1@Allocate@2
  00017	6b c9 24	 imul	 ecx, 36			; 00000024H
  0001a	51		 push	 ecx
  0001b	e8 00 00 00 00	 call	 ??2@YAPAXI@Z		; operator new
  00020	59		 pop	 ecx
  00021	85 c0		 test	 eax, eax

; 38   : 
; 39   : 	return ((_Ty _FARQ *)_Ptr);

  00023	75 26		 jne	 SHORT $LN5@Allocate@2
$LN1@Allocate@2:

; 37   : 		_THROW_NCEE(bad_alloc, 0);

  00025	83 65 08 00	 and	 DWORD PTR $T534042[ebp], 0
  00029	8d 45 08	 lea	 eax, DWORD PTR $T534042[ebp]
  0002c	50		 push	 eax
  0002d	8d 4d f4	 lea	 ecx, DWORD PTR $T534038[ebp]
  00030	ff 15 00 00 00
	00		 call	 DWORD PTR __imp_??0exception@std@@QAE@ABQBD@Z
  00036	68 00 00 00 00	 push	 OFFSET __TI2?AVbad_alloc@std@@
  0003b	8d 45 f4	 lea	 eax, DWORD PTR $T534038[ebp]
  0003e	50		 push	 eax
  0003f	c7 45 f4 00 00
	00 00		 mov	 DWORD PTR $T534038[ebp], OFFSET ??_7bad_alloc@std@@6B@
  00046	e8 00 00 00 00	 call	 __CxxThrowException@8
$LN10@Allocate@2:
$LN5@Allocate@2:

; 40   : 	}

  0004b	c9		 leave
  0004c	c3		 ret	 0
$LN9@Allocate@2:
??$_Allocate@UTrainExtraItem@ioCustomTextureMgr@@@std@@YAPAUTrainExtraItem@ioCustomTextureMgr@@IPAU12@@Z ENDP ; std::_Allocate<ioCustomTextureMgr::TrainExtraItem>
_TEXT	ENDS
PUBLIC	??$forward@AAUTrainExtraItem@ioCustomTextureMgr@@@std@@YAAAUTrainExtraItem@ioCustomTextureMgr@@AAU12@@Z ; std::forward<ioCustomTextureMgr::TrainExtraItem &>
; Function compile flags: /Ogsp
; File c:\program files (x86)\microsoft visual studio 10.0\vc\include\utility
;	COMDAT ??$forward@AAUTrainExtraItem@ioCustomTextureMgr@@@std@@YAAAUTrainExtraItem@ioCustomTextureMgr@@AAU12@@Z
_TEXT	SEGMENT
__Arg$ = 8						; size = 4
??$forward@AAUTrainExtraItem@ioCustomTextureMgr@@@std@@YAAAUTrainExtraItem@ioCustomTextureMgr@@AAU12@@Z PROC ; std::forward<ioCustomTextureMgr::TrainExtraItem &>, COMDAT

; 78   : 	{	// forward _Arg, given explicitly specified type parameter

  00000	55		 push	 ebp
  00001	8b ec		 mov	 ebp, esp

; 79   : 	return ((_Ty&&)_Arg);

  00003	8b 45 08	 mov	 eax, DWORD PTR __Arg$[ebp]

; 80   : 	}

  00006	5d		 pop	 ebp
  00007	c3		 ret	 0
??$forward@AAUTrainExtraItem@ioCustomTextureMgr@@@std@@YAAAUTrainExtraItem@ioCustomTextureMgr@@AAU12@@Z ENDP ; std::forward<ioCustomTextureMgr::TrainExtraItem &>
_TEXT	ENDS
PUBLIC	??$forward@ABUTrainExtraItem@ioCustomTextureMgr@@@std@@YAABUTrainExtraItem@ioCustomTextureMgr@@ABU12@@Z ; std::forward<ioCustomTextureMgr::TrainExtraItem const &>
; Function compile flags: /Ogsp
;	COMDAT ??$forward@ABUTrainExtraItem@ioCustomTextureMgr@@@std@@YAABUTrainExtraItem@ioCustomTextureMgr@@ABU12@@Z
_TEXT	SEGMENT
__Arg$ = 8						; size = 4
??$forward@ABUTrainExtraItem@ioCustomTextureMgr@@@std@@YAABUTrainExtraItem@ioCustomTextureMgr@@ABU12@@Z PROC ; std::forward<ioCustomTextureMgr::TrainExtraItem const &>, COMDAT

; 78   : 	{	// forward _Arg, given explicitly specified type parameter

  00000	55		 push	 ebp
  00001	8b ec		 mov	 ebp, esp

; 79   : 	return ((_Ty&&)_Arg);

  00003	8b 45 08	 mov	 eax, DWORD PTR __Arg$[ebp]

; 80   : 	}

  00006	5d		 pop	 ebp
  00007	c3		 ret	 0
??$forward@ABUTrainExtraItem@ioCustomTextureMgr@@@std@@YAABUTrainExtraItem@ioCustomTextureMgr@@ABU12@@Z ENDP ; std::forward<ioCustomTextureMgr::TrainExtraItem const &>
_TEXT	ENDS
PUBLIC	??$forward@ABUTexDownLoadData@@@std@@YAABUTexDownLoadData@@ABU1@@Z ; std::forward<TexDownLoadData const &>
; Function compile flags: /Ogsp
;	COMDAT ??$forward@ABUTexDownLoadData@@@std@@YAABUTexDownLoadData@@ABU1@@Z
_TEXT	SEGMENT
__Arg$ = 8						; size = 4
??$forward@ABUTexDownLoadData@@@std@@YAABUTexDownLoadData@@ABU1@@Z PROC ; std::forward<TexDownLoadData const &>, COMDAT

; 78   : 	{	// forward _Arg, given explicitly specified type parameter

  00000	55		 push	 ebp
  00001	8b ec		 mov	 ebp, esp

; 79   : 	return ((_Ty&&)_Arg);

  00003	8b 45 08	 mov	 eax, DWORD PTR __Arg$[ebp]

; 80   : 	}

  00006	5d		 pop	 ebp
  00007	c3		 ret	 0
??$forward@ABUTexDownLoadData@@@std@@YAABUTexDownLoadData@@ABU1@@Z ENDP ; std::forward<TexDownLoadData const &>
_TEXT	ENDS
PUBLIC	??$_Ptr_cat@UTrainExtraItem@ioCustomTextureMgr@@U12@@std@@YA?AU_Nonscalar_ptr_iterator_tag@0@PAUTrainExtraItem@ioCustomTextureMgr@@0@Z ; std::_Ptr_cat<ioCustomTextureMgr::TrainExtraItem,ioCustomTextureMgr::TrainExtraItem>
; Function compile flags: /Ogsp
; File c:\program files (x86)\microsoft visual studio 10.0\vc\include\xutility
;	COMDAT ??$_Ptr_cat@UTrainExtraItem@ioCustomTextureMgr@@U12@@std@@YA?AU_Nonscalar_ptr_iterator_tag@0@PAUTrainExtraItem@ioCustomTextureMgr@@0@Z
_TEXT	SEGMENT
__Cat$ = -1						; size = 1
___formal$ = 8						; size = 4
___formal$ = 12						; size = 4
??$_Ptr_cat@UTrainExtraItem@ioCustomTextureMgr@@U12@@std@@YA?AU_Nonscalar_ptr_iterator_tag@0@PAUTrainExtraItem@ioCustomTextureMgr@@0@Z PROC ; std::_Ptr_cat<ioCustomTextureMgr::TrainExtraItem,ioCustomTextureMgr::TrainExtraItem>, COMDAT

; 516  : 	{	// return pointer category from pointers

  00000	55		 push	 ebp
  00001	8b ec		 mov	 ebp, esp
  00003	51		 push	 ecx

; 517  : 	typename _Ptr_cat_helper<_Elem1, _Elem2>::_Type _Cat;
; 518  : 	return (_Cat);

  00004	8a 45 ff	 mov	 al, BYTE PTR __Cat$[ebp]

; 519  : 	}

  00007	c9		 leave
  00008	c3		 ret	 0
??$_Ptr_cat@UTrainExtraItem@ioCustomTextureMgr@@U12@@std@@YA?AU_Nonscalar_ptr_iterator_tag@0@PAUTrainExtraItem@ioCustomTextureMgr@@0@Z ENDP ; std::_Ptr_cat<ioCustomTextureMgr::TrainExtraItem,ioCustomTextureMgr::TrainExtraItem>
_TEXT	ENDS
PUBLIC	??$_Construct@UTexDownLoadData@@ABU1@@std@@YAXPAUTexDownLoadData@@ABU1@@Z ; std::_Construct<TexDownLoadData,TexDownLoadData const &>
;	COMDAT xdata$x
; File c:\program files (x86)\microsoft visual studio 10.0\vc\include\utility
xdata$x	SEGMENT
__unwindtable$??$_Construct@UTexDownLoadData@@ABU1@@std@@YAXPAUTexDownLoadData@@ABU1@@Z DD 0ffffffffH
	DD	FLAT:__unwindfunclet$??$_Construct@UTexDownLoadData@@ABU1@@std@@YAXPAUTexDownLoadData@@ABU1@@Z$0
__ehfuncinfo$??$_Construct@UTexDownLoadData@@ABU1@@std@@YAXPAUTexDownLoadData@@ABU1@@Z DD 019930522H
	DD	01H
	DD	FLAT:__unwindtable$??$_Construct@UTexDownLoadData@@ABU1@@std@@YAXPAUTexDownLoadData@@ABU1@@Z
	DD	2 DUP(00H)
	DD	2 DUP(00H)
	DD	00H
	DD	01H
; Function compile flags: /Ogsp
; File c:\program files (x86)\microsoft visual studio 10.0\vc\include\xmemory
xdata$x	ENDS
;	COMDAT ??$_Construct@UTexDownLoadData@@ABU1@@std@@YAXPAUTexDownLoadData@@ABU1@@Z
_TEXT	SEGMENT
$T534056 = -16						; size = 4
__$EHRec$ = -12						; size = 12
__Vptr$ = 8						; size = 4
__Ptr$ = 8						; size = 4
__Val$ = 12						; size = 4
??$_Construct@UTexDownLoadData@@ABU1@@std@@YAXPAUTexDownLoadData@@ABU1@@Z PROC ; std::_Construct<TexDownLoadData,TexDownLoadData const &>, COMDAT

; 46   : 	{	// construct object at _Ptr with value _Val

  00000	6a 04		 push	 4
  00002	b8 00 00 00 00	 mov	 eax, __ehhandler$??$_Construct@UTexDownLoadData@@ABU1@@std@@YAXPAUTexDownLoadData@@ABU1@@Z
  00007	e8 00 00 00 00	 call	 __EH_prolog3

; 47   : 	void _FARQ *_Vptr = _Ptr;

  0000c	8b 4d 08	 mov	 ecx, DWORD PTR __Ptr$[ebp]
  0000f	89 4d 08	 mov	 DWORD PTR __Vptr$[ebp], ecx

; 48   : 	::new (_Vptr) _Ty1(_STD forward<_Ty2>(_Val));

  00012	89 4d f0	 mov	 DWORD PTR $T534056[ebp], ecx
  00015	83 65 fc 00	 and	 DWORD PTR __$EHRec$[ebp+8], 0
  00019	85 c9		 test	 ecx, ecx
  0001b	74 08		 je	 SHORT $LN3@Construct
  0001d	ff 75 0c	 push	 DWORD PTR __Val$[ebp]
  00020	e8 00 00 00 00	 call	 ??0TexDownLoadData@@QAE@ABU0@@Z
$LN3@Construct:

; 49   : 	}

  00025	e8 00 00 00 00	 call	 __EH_epilog3
  0002a	c3		 ret	 0
_TEXT	ENDS
;	COMDAT text$x
text$x	SEGMENT
__unwindfunclet$??$_Construct@UTexDownLoadData@@ABU1@@std@@YAXPAUTexDownLoadData@@ABU1@@Z$0:
  00000	ff 75 08	 push	 DWORD PTR __Vptr$[ebp]
  00003	ff 75 f0	 push	 DWORD PTR $T534056[ebp]
  00006	e8 00 00 00 00	 call	 ??3@YAXPAX0@Z		; operator delete
  0000b	59		 pop	 ecx
  0000c	59		 pop	 ecx
  0000d	c3		 ret	 0
__ehhandler$??$_Construct@UTexDownLoadData@@ABU1@@std@@YAXPAUTexDownLoadData@@ABU1@@Z:
  0000e	8b 54 24 08	 mov	 edx, DWORD PTR [esp+8]
  00012	8d 42 0c	 lea	 eax, DWORD PTR [edx+12]
  00015	8b 4a ec	 mov	 ecx, DWORD PTR [edx-20]
  00018	33 c8		 xor	 ecx, eax
  0001a	e8 00 00 00 00	 call	 @__security_check_cookie@4
  0001f	b8 00 00 00 00	 mov	 eax, OFFSET __ehfuncinfo$??$_Construct@UTexDownLoadData@@ABU1@@std@@YAXPAUTexDownLoadData@@ABU1@@Z
  00024	e9 00 00 00 00	 jmp	 ___CxxFrameHandler3
text$x	ENDS
??$_Construct@UTexDownLoadData@@ABU1@@std@@YAXPAUTexDownLoadData@@ABU1@@Z ENDP ; std::_Construct<TexDownLoadData,TexDownLoadData const &>
PUBLIC	??0TrainExtraItem@ioCustomTextureMgr@@QAE@ABU01@@Z ; ioCustomTextureMgr::TrainExtraItem::TrainExtraItem
;	COMDAT xdata$x
xdata$x	SEGMENT
__unwindtable$??0TrainExtraItem@ioCustomTextureMgr@@QAE@ABU01@@Z DD 0ffffffffH
	DD	FLAT:__unwindfunclet$??0TrainExtraItem@ioCustomTextureMgr@@QAE@ABU01@@Z$0
__ehfuncinfo$??0TrainExtraItem@ioCustomTextureMgr@@QAE@ABU01@@Z DD 019930522H
	DD	01H
	DD	FLAT:__unwindtable$??0TrainExtraItem@ioCustomTextureMgr@@QAE@ABU01@@Z
	DD	2 DUP(00H)
	DD	2 DUP(00H)
	DD	00H
	DD	01H
; Function compile flags: /Ogsp
xdata$x	ENDS
;	COMDAT ??0TrainExtraItem@ioCustomTextureMgr@@QAE@ABU01@@Z
_TEXT	SEGMENT
_this$ = -16						; size = 4
__$EHRec$ = -12						; size = 12
___that$ = 8						; size = 4
??0TrainExtraItem@ioCustomTextureMgr@@QAE@ABU01@@Z PROC	; ioCustomTextureMgr::TrainExtraItem::TrainExtraItem, COMDAT
; _this$ = ecx
  00000	6a 04		 push	 4
  00002	b8 00 00 00 00	 mov	 eax, __ehhandler$??0TrainExtraItem@ioCustomTextureMgr@@QAE@ABU01@@Z
  00007	e8 00 00 00 00	 call	 __EH_prolog3
  0000c	8b f1		 mov	 esi, ecx
  0000e	89 75 f0	 mov	 DWORD PTR _this$[ebp], esi
  00011	8b 7d 08	 mov	 edi, DWORD PTR ___that$[ebp]
  00014	8b 07		 mov	 eax, DWORD PTR [edi]
  00016	8b 1d 00 00 00
	00		 mov	 ebx, DWORD PTR __imp_??0ioHashString@@QAE@ABV0@@Z
  0001c	89 06		 mov	 DWORD PTR [esi], eax
  0001e	8d 47 04	 lea	 eax, DWORD PTR [edi+4]
  00021	50		 push	 eax
  00022	8d 4e 04	 lea	 ecx, DWORD PTR [esi+4]
  00025	ff d3		 call	 ebx
  00027	83 65 fc 00	 and	 DWORD PTR __$EHRec$[ebp+8], 0
  0002b	83 c7 14	 add	 edi, 20			; 00000014H
  0002e	57		 push	 edi
  0002f	8d 4e 14	 lea	 ecx, DWORD PTR [esi+20]
  00032	ff d3		 call	 ebx
  00034	8b c6		 mov	 eax, esi
  00036	e8 00 00 00 00	 call	 __EH_epilog3
  0003b	c2 04 00	 ret	 4
_TEXT	ENDS
;	COMDAT text$x
text$x	SEGMENT
__unwindfunclet$??0TrainExtraItem@ioCustomTextureMgr@@QAE@ABU01@@Z$0:
  00000	8b 4d f0	 mov	 ecx, DWORD PTR _this$[ebp]
  00003	83 c1 04	 add	 ecx, 4
  00006	ff 25 00 00 00
	00		 jmp	 DWORD PTR __imp_??1ioHashString@@QAE@XZ
__ehhandler$??0TrainExtraItem@ioCustomTextureMgr@@QAE@ABU01@@Z:
  0000c	8b 54 24 08	 mov	 edx, DWORD PTR [esp+8]
  00010	8d 42 0c	 lea	 eax, DWORD PTR [edx+12]
  00013	8b 4a ec	 mov	 ecx, DWORD PTR [edx-20]
  00016	33 c8		 xor	 ecx, eax
  00018	e8 00 00 00 00	 call	 @__security_check_cookie@4
  0001d	b8 00 00 00 00	 mov	 eax, OFFSET __ehfuncinfo$??0TrainExtraItem@ioCustomTextureMgr@@QAE@ABU01@@Z
  00022	e9 00 00 00 00	 jmp	 ___CxxFrameHandler3
text$x	ENDS
??0TrainExtraItem@ioCustomTextureMgr@@QAE@ABU01@@Z ENDP	; ioCustomTextureMgr::TrainExtraItem::TrainExtraItem
PUBLIC	??1_Node@?$_List_nod@UTexDownLoadData@@V?$allocator@UTexDownLoadData@@@std@@@std@@QAE@XZ ; std::_List_nod<TexDownLoadData,std::allocator<TexDownLoadData> >::_Node::~_Node
; Function compile flags: /Ogsp
;	COMDAT ??1_Node@?$_List_nod@UTexDownLoadData@@V?$allocator@UTexDownLoadData@@@std@@@std@@QAE@XZ
_TEXT	SEGMENT
??1_Node@?$_List_nod@UTexDownLoadData@@V?$allocator@UTexDownLoadData@@@std@@@std@@QAE@XZ PROC ; std::_List_nod<TexDownLoadData,std::allocator<TexDownLoadData> >::_Node::~_Node, COMDAT
; _this$ = ecx
  00000	83 c1 08	 add	 ecx, 8
  00003	e9 00 00 00 00	 jmp	 ??1TexDownLoadData@@QAE@XZ
??1_Node@?$_List_nod@UTexDownLoadData@@V?$allocator@UTexDownLoadData@@@std@@@std@@QAE@XZ ENDP ; std::_List_nod<TexDownLoadData,std::allocator<TexDownLoadData> >::_Node::~_Node
_TEXT	ENDS
PUBLIC	?_Rechecked@?$_List_iterator@V?$_List_val@UTexDownLoadData@@V?$allocator@UTexDownLoadData@@@std@@@std@@@std@@QAEAAV12@V?$_List_unchecked_iterator@V?$_List_val@UTexDownLoadData@@V?$allocator@UTexDownLoadData@@@std@@@std@@@2@@Z ; std::_List_iterator<std::_List_val<TexDownLoadData,std::allocator<TexDownLoadData> > >::_Rechecked
; Function compile flags: /Ogsp
; File c:\program files (x86)\microsoft visual studio 10.0\vc\include\list
;	COMDAT ?_Rechecked@?$_List_iterator@V?$_List_val@UTexDownLoadData@@V?$allocator@UTexDownLoadData@@@std@@@std@@@std@@QAEAAV12@V?$_List_unchecked_iterator@V?$_List_val@UTexDownLoadData@@V?$allocator@UTexDownLoadData@@@std@@@std@@@2@@Z
_TEXT	SEGMENT
__Right$ = 8						; size = 4
?_Rechecked@?$_List_iterator@V?$_List_val@UTexDownLoadData@@V?$allocator@UTexDownLoadData@@@std@@@std@@@std@@QAEAAV12@V?$_List_unchecked_iterator@V?$_List_val@UTexDownLoadData@@V?$allocator@UTexDownLoadData@@@std@@@std@@@2@@Z PROC ; std::_List_iterator<std::_List_val<TexDownLoadData,std::allocator<TexDownLoadData> > >::_Rechecked, COMDAT
; _this$ = ecx

; 348  : 		{	// reset from unchecked iterator

  00000	55		 push	 ebp
  00001	8b ec		 mov	 ebp, esp
  00003	8b c1		 mov	 eax, ecx

; 349  : 		this->_Ptr = _Right._Ptr;

  00005	8b 4d 08	 mov	 ecx, DWORD PTR __Right$[ebp]
  00008	89 08		 mov	 DWORD PTR [eax], ecx

; 350  : 		return (*this);
; 351  : 		}

  0000a	5d		 pop	 ebp
  0000b	c2 04 00	 ret	 4
?_Rechecked@?$_List_iterator@V?$_List_val@UTexDownLoadData@@V?$allocator@UTexDownLoadData@@@std@@@std@@@std@@QAEAAV12@V?$_List_unchecked_iterator@V?$_List_val@UTexDownLoadData@@V?$allocator@UTexDownLoadData@@@std@@@std@@@2@@Z ENDP ; std::_List_iterator<std::_List_val<TexDownLoadData,std::allocator<TexDownLoadData> > >::_Rechecked
_TEXT	ENDS
PUBLIC	??D?$_List_unchecked_const_iterator@V?$_List_val@UTexDownLoadData@@V?$allocator@UTexDownLoadData@@@std@@@std@@U_Iterator_base0@2@@std@@QBEABUTexDownLoadData@@XZ ; std::_List_unchecked_const_iterator<std::_List_val<TexDownLoadData,std::allocator<TexDownLoadData> >,std::_Iterator_base0>::operator*
; Function compile flags: /Ogsp
;	COMDAT ??D?$_List_unchecked_const_iterator@V?$_List_val@UTexDownLoadData@@V?$allocator@UTexDownLoadData@@@std@@@std@@U_Iterator_base0@2@@std@@QBEABUTexDownLoadData@@XZ
_TEXT	SEGMENT
??D?$_List_unchecked_const_iterator@V?$_List_val@UTexDownLoadData@@V?$allocator@UTexDownLoadData@@@std@@@std@@U_Iterator_base0@2@@std@@QBEABUTexDownLoadData@@XZ PROC ; std::_List_unchecked_const_iterator<std::_List_val<TexDownLoadData,std::allocator<TexDownLoadData> >,std::_Iterator_base0>::operator*, COMDAT
; _this$ = ecx

; 47   : 		return (_Mylist::_Myval(_Ptr));

  00000	8b 01		 mov	 eax, DWORD PTR [ecx]
  00002	83 c0 08	 add	 eax, 8

; 48   : 		}

  00005	c3		 ret	 0
??D?$_List_unchecked_const_iterator@V?$_List_val@UTexDownLoadData@@V?$allocator@UTexDownLoadData@@@std@@@std@@U_Iterator_base0@2@@std@@QBEABUTexDownLoadData@@XZ ENDP ; std::_List_unchecked_const_iterator<std::_List_val<TexDownLoadData,std::allocator<TexDownLoadData> >,std::_Iterator_base0>::operator*
_TEXT	ENDS
PUBLIC	??E?$_List_unchecked_const_iterator@V?$_List_val@UTexDownLoadData@@V?$allocator@UTexDownLoadData@@@std@@@std@@U_Iterator_base0@2@@std@@QAEAAV01@XZ ; std::_List_unchecked_const_iterator<std::_List_val<TexDownLoadData,std::allocator<TexDownLoadData> >,std::_Iterator_base0>::operator++
; Function compile flags: /Ogsp
;	COMDAT ??E?$_List_unchecked_const_iterator@V?$_List_val@UTexDownLoadData@@V?$allocator@UTexDownLoadData@@@std@@@std@@U_Iterator_base0@2@@std@@QAEAAV01@XZ
_TEXT	SEGMENT
??E?$_List_unchecked_const_iterator@V?$_List_val@UTexDownLoadData@@V?$allocator@UTexDownLoadData@@@std@@@std@@U_Iterator_base0@2@@std@@QAEAAV01@XZ PROC ; std::_List_unchecked_const_iterator<std::_List_val<TexDownLoadData,std::allocator<TexDownLoadData> >,std::_Iterator_base0>::operator++, COMDAT
; _this$ = ecx

; 56   : 		{	// preincrement

  00000	8b c1		 mov	 eax, ecx

; 57   : 		_Ptr = _Mylist::_Nextnode(_Ptr);

  00002	8b 08		 mov	 ecx, DWORD PTR [eax]
  00004	8b 09		 mov	 ecx, DWORD PTR [ecx]
  00006	89 08		 mov	 DWORD PTR [eax], ecx

; 58   : 		return (*this);
; 59   : 		}

  00008	c3		 ret	 0
??E?$_List_unchecked_const_iterator@V?$_List_val@UTexDownLoadData@@V?$allocator@UTexDownLoadData@@@std@@@std@@U_Iterator_base0@2@@std@@QAEAAV01@XZ ENDP ; std::_List_unchecked_const_iterator<std::_List_val<TexDownLoadData,std::allocator<TexDownLoadData> >,std::_Iterator_base0>::operator++
_TEXT	ENDS
PUBLIC	??8?$_List_unchecked_const_iterator@V?$_List_val@UTexDownLoadData@@V?$allocator@UTexDownLoadData@@@std@@@std@@U_Iterator_base0@2@@std@@QBE_NABV01@@Z ; std::_List_unchecked_const_iterator<std::_List_val<TexDownLoadData,std::allocator<TexDownLoadData> >,std::_Iterator_base0>::operator==
; Function compile flags: /Ogsp
;	COMDAT ??8?$_List_unchecked_const_iterator@V?$_List_val@UTexDownLoadData@@V?$allocator@UTexDownLoadData@@@std@@@std@@U_Iterator_base0@2@@std@@QBE_NABV01@@Z
_TEXT	SEGMENT
__Right$ = 8						; size = 4
??8?$_List_unchecked_const_iterator@V?$_List_val@UTexDownLoadData@@V?$allocator@UTexDownLoadData@@@std@@@std@@U_Iterator_base0@2@@std@@QBE_NABV01@@Z PROC ; std::_List_unchecked_const_iterator<std::_List_val<TexDownLoadData,std::allocator<TexDownLoadData> >,std::_Iterator_base0>::operator==, COMDAT
; _this$ = ecx

; 82   : 		{	// test for iterator equality

  00000	55		 push	 ebp
  00001	8b ec		 mov	 ebp, esp

; 83   : 		return (_Ptr == _Right._Ptr);

  00003	8b 01		 mov	 eax, DWORD PTR [ecx]
  00005	8b 4d 08	 mov	 ecx, DWORD PTR __Right$[ebp]
  00008	2b 01		 sub	 eax, DWORD PTR [ecx]
  0000a	f7 d8		 neg	 eax
  0000c	1b c0		 sbb	 eax, eax
  0000e	40		 inc	 eax

; 84   : 		}

  0000f	5d		 pop	 ebp
  00010	c2 04 00	 ret	 4
??8?$_List_unchecked_const_iterator@V?$_List_val@UTexDownLoadData@@V?$allocator@UTexDownLoadData@@@std@@@std@@U_Iterator_base0@2@@std@@QBE_NABV01@@Z ENDP ; std::_List_unchecked_const_iterator<std::_List_val<TexDownLoadData,std::allocator<TexDownLoadData> >,std::_Iterator_base0>::operator==
_TEXT	ENDS
PUBLIC	??0?$_List_unchecked_iterator@V?$_List_val@UTexDownLoadData@@V?$allocator@UTexDownLoadData@@@std@@@std@@@std@@QAE@PAU_Node@?$_List_nod@UTexDownLoadData@@V?$allocator@UTexDownLoadData@@@std@@@1@PBV?$_List_val@UTexDownLoadData@@V?$allocator@UTexDownLoadData@@@std@@@1@@Z ; std::_List_unchecked_iterator<std::_List_val<TexDownLoadData,std::allocator<TexDownLoadData> > >::_List_unchecked_iterator<std::_List_val<TexDownLoadData,std::allocator<TexDownLoadData> > >
; Function compile flags: /Ogsp
;	COMDAT ??0?$_List_unchecked_iterator@V?$_List_val@UTexDownLoadData@@V?$allocator@UTexDownLoadData@@@std@@@std@@@std@@QAE@PAU_Node@?$_List_nod@UTexDownLoadData@@V?$allocator@UTexDownLoadData@@@std@@@1@PBV?$_List_val@UTexDownLoadData@@V?$allocator@UTexDownLoadData@@@std@@@1@@Z
_TEXT	SEGMENT
__Pnode$ = 8						; size = 4
__Plist$ = 12						; size = 4
??0?$_List_unchecked_iterator@V?$_List_val@UTexDownLoadData@@V?$allocator@UTexDownLoadData@@@std@@@std@@@std@@QAE@PAU_Node@?$_List_nod@UTexDownLoadData@@V?$allocator@UTexDownLoadData@@@std@@@1@PBV?$_List_val@UTexDownLoadData@@V?$allocator@UTexDownLoadData@@@std@@@1@@Z PROC ; std::_List_unchecked_iterator<std::_List_val<TexDownLoadData,std::allocator<TexDownLoadData> > >::_List_unchecked_iterator<std::_List_val<TexDownLoadData,std::allocator<TexDownLoadData> > >, COMDAT
; _this$ = ecx

; 121  : 		{	// construct with node pointer _Pnode

  00000	55		 push	 ebp
  00001	8b ec		 mov	 ebp, esp
  00003	8b c1		 mov	 eax, ecx
  00005	8b 4d 08	 mov	 ecx, DWORD PTR __Pnode$[ebp]
  00008	89 08		 mov	 DWORD PTR [eax], ecx

; 122  : 		}

  0000a	5d		 pop	 ebp
  0000b	c2 08 00	 ret	 8
??0?$_List_unchecked_iterator@V?$_List_val@UTexDownLoadData@@V?$allocator@UTexDownLoadData@@@std@@@std@@@std@@QAE@PAU_Node@?$_List_nod@UTexDownLoadData@@V?$allocator@UTexDownLoadData@@@std@@@1@PBV?$_List_val@UTexDownLoadData@@V?$allocator@UTexDownLoadData@@@std@@@1@@Z ENDP ; std::_List_unchecked_iterator<std::_List_val<TexDownLoadData,std::allocator<TexDownLoadData> > >::_List_unchecked_iterator<std::_List_val<TexDownLoadData,std::allocator<TexDownLoadData> > >
_TEXT	ENDS
PUBLIC	??$_Val_type@PAUTrainExtraItem@ioCustomTextureMgr@@@std@@YAPAUTrainExtraItem@ioCustomTextureMgr@@PAU12@@Z ; std::_Val_type<ioCustomTextureMgr::TrainExtraItem *>
; Function compile flags: /Ogsp
; File c:\program files (x86)\microsoft visual studio 10.0\vc\include\xutility
;	COMDAT ??$_Val_type@PAUTrainExtraItem@ioCustomTextureMgr@@@std@@YAPAUTrainExtraItem@ioCustomTextureMgr@@PAU12@@Z
_TEXT	SEGMENT
___formal$ = 8						; size = 4
??$_Val_type@PAUTrainExtraItem@ioCustomTextureMgr@@@std@@YAPAUTrainExtraItem@ioCustomTextureMgr@@PAU12@@Z PROC ; std::_Val_type<ioCustomTextureMgr::TrainExtraItem *>, COMDAT

; 790  : 	return (0);

  00000	33 c0		 xor	 eax, eax

; 791  : 	}

  00002	c3		 ret	 0
??$_Val_type@PAUTrainExtraItem@ioCustomTextureMgr@@@std@@YAPAUTrainExtraItem@ioCustomTextureMgr@@PAU12@@Z ENDP ; std::_Val_type<ioCustomTextureMgr::TrainExtraItem *>
_TEXT	ENDS
PUBLIC	??_GTrainExtraItem@ioCustomTextureMgr@@QAEPAXI@Z ; ioCustomTextureMgr::TrainExtraItem::`scalar deleting destructor'
; Function compile flags: /Ogsp
;	COMDAT ??_GTrainExtraItem@ioCustomTextureMgr@@QAEPAXI@Z
_TEXT	SEGMENT
___flags$ = 8						; size = 4
??_GTrainExtraItem@ioCustomTextureMgr@@QAEPAXI@Z PROC	; ioCustomTextureMgr::TrainExtraItem::`scalar deleting destructor', COMDAT
; _this$ = ecx
  00000	55		 push	 ebp
  00001	8b ec		 mov	 ebp, esp
  00003	56		 push	 esi
  00004	8b f1		 mov	 esi, ecx
  00006	e8 00 00 00 00	 call	 ??1TrainExtraItem@ioCustomTextureMgr@@QAE@XZ
  0000b	f6 45 08 01	 test	 BYTE PTR ___flags$[ebp], 1
  0000f	74 07		 je	 SHORT $LN1@scalar@2
  00011	56		 push	 esi
  00012	e8 00 00 00 00	 call	 ??3@YAXPAX@Z		; operator delete
  00017	59		 pop	 ecx
$LN1@scalar@2:
  00018	8b c6		 mov	 eax, esi
  0001a	5e		 pop	 esi
  0001b	5d		 pop	 ebp
  0001c	c2 04 00	 ret	 4
??_GTrainExtraItem@ioCustomTextureMgr@@QAEPAXI@Z ENDP	; ioCustomTextureMgr::TrainExtraItem::`scalar deleting destructor'
_TEXT	ENDS
PUBLIC	??$forward@UTrainExtraItem@ioCustomTextureMgr@@@std@@YA$$QAUTrainExtraItem@ioCustomTextureMgr@@AAU12@@Z ; std::forward<ioCustomTextureMgr::TrainExtraItem>
; Function compile flags: /Ogsp
; File c:\program files (x86)\microsoft visual studio 10.0\vc\include\utility
;	COMDAT ??$forward@UTrainExtraItem@ioCustomTextureMgr@@@std@@YA$$QAUTrainExtraItem@ioCustomTextureMgr@@AAU12@@Z
_TEXT	SEGMENT
__Arg$ = 8						; size = 4
??$forward@UTrainExtraItem@ioCustomTextureMgr@@@std@@YA$$QAUTrainExtraItem@ioCustomTextureMgr@@AAU12@@Z PROC ; std::forward<ioCustomTextureMgr::TrainExtraItem>, COMDAT

; 78   : 	{	// forward _Arg, given explicitly specified type parameter

  00000	55		 push	 ebp
  00001	8b ec		 mov	 ebp, esp

; 79   : 	return ((_Ty&&)_Arg);

  00003	8b 45 08	 mov	 eax, DWORD PTR __Arg$[ebp]

; 80   : 	}

  00006	5d		 pop	 ebp
  00007	c3		 ret	 0
??$forward@UTrainExtraItem@ioCustomTextureMgr@@@std@@YA$$QAUTrainExtraItem@ioCustomTextureMgr@@AAU12@@Z ENDP ; std::forward<ioCustomTextureMgr::TrainExtraItem>
_TEXT	ENDS
PUBLIC	?_DECSTR@@YAXPADH@Z				; _DECSTR
; Function compile flags: /Ogsp
; File d:\lost saga for developer\youtube\tutorial\source\src\lsclient\stringprotect.h
;	COMDAT ?_DECSTR@@YAXPADH@Z
_TEXT	SEGMENT
_s$ = 8							; size = 4
_l$ = 12						; size = 4
?_DECSTR@@YAXPADH@Z PROC				; _DECSTR, COMDAT

; 40   : __forceinline void _DECSTR(char* s, int l){int i=0,l4=(l-1)/4,*p=(int*)s;s[l-1]=0;for(;i<l4;++i)*(p++)^=0xEAEBECED;for(i=l4*4;i<l-1;++i)s[i]^=0xED-i%4;}

  00000	55		 push	 ebp
  00001	8b ec		 mov	 ebp, esp
  00003	8b 4d 0c	 mov	 ecx, DWORD PTR _l$[ebp]
  00006	56		 push	 esi
  00007	8b 75 08	 mov	 esi, DWORD PTR _s$[ebp]
  0000a	57		 push	 edi
  0000b	8d 79 ff	 lea	 edi, DWORD PTR [ecx-1]
  0000e	8b c7		 mov	 eax, edi
  00010	99		 cdq
  00011	83 e2 03	 and	 edx, 3
  00014	03 c2		 add	 eax, edx
  00016	c1 f8 02	 sar	 eax, 2
  00019	8b d6		 mov	 edx, esi
  0001b	c6 44 0e ff 00	 mov	 BYTE PTR [esi+ecx-1], 0
  00020	85 c0		 test	 eax, eax
  00022	7e 0e		 jle	 SHORT $LN4@DECSTR
  00024	8b c8		 mov	 ecx, eax
$LL6@DECSTR:
  00026	81 32 ed ec eb
	ea		 xor	 DWORD PTR [edx], -353637139 ; eaebecedH
  0002c	83 c2 04	 add	 edx, 4
  0002f	49		 dec	 ecx
  00030	75 f4		 jne	 SHORT $LL6@DECSTR
$LN4@DECSTR:
  00032	c1 e0 02	 shl	 eax, 2
  00035	eb 17		 jmp	 SHORT $LN14@DECSTR
$LL3@DECSTR:
  00037	8b c8		 mov	 ecx, eax
  00039	81 e1 03 00 00
	80		 and	 ecx, -2147483645	; 80000003H
  0003f	79 05		 jns	 SHORT $LN13@DECSTR
  00041	49		 dec	 ecx
  00042	83 c9 fc	 or	 ecx, -4			; fffffffcH
  00045	41		 inc	 ecx
$LN13@DECSTR:
  00046	b2 ed		 mov	 dl, -19			; ffffffedH
  00048	2a d1		 sub	 dl, cl
  0004a	30 14 30	 xor	 BYTE PTR [eax+esi], dl
  0004d	40		 inc	 eax
$LN14@DECSTR:
  0004e	3b c7		 cmp	 eax, edi
  00050	7c e5		 jl	 SHORT $LL3@DECSTR
  00052	5f		 pop	 edi
  00053	5e		 pop	 esi
  00054	5d		 pop	 ebp
  00055	c3		 ret	 0
?_DECSTR@@YAXPADH@Z ENDP				; _DECSTR
_TEXT	ENDS
PUBLIC	?GetPublicID@ioMyInfo@@QBEABVioHashString@@XZ	; ioMyInfo::GetPublicID
; Function compile flags: /Ogsp
; File d:\lost saga for developer\youtube\tutorial\source\src\lsclient\iomyinfo.h
;	COMDAT ?GetPublicID@ioMyInfo@@QBEABVioHashString@@XZ
_TEXT	SEGMENT
?GetPublicID@ioMyInfo@@QBEABVioHashString@@XZ PROC	; ioMyInfo::GetPublicID, COMDAT
; _this$ = ecx

; 517  : 	const ioHashString& GetPublicID() const { return m_user_data.m_public_id; }    

  00000	8d 41 1c	 lea	 eax, DWORD PTR [ecx+28]
  00003	c3		 ret	 0
?GetPublicID@ioMyInfo@@QBEABVioHashString@@XZ ENDP	; ioMyInfo::GetPublicID
_TEXT	ENDS
PUBLIC	??8TexDownLoadData@@QAE_NABU0@@Z		; TexDownLoadData::operator==
EXTRN	__imp_??9ioHashString@@QBE_NABV0@@Z:PROC
; Function compile flags: /Ogsp
; File d:\lost saga for developer\youtube\tutorial\source\src\lsclient\iocustomtexturemgr.h
;	COMDAT ??8TexDownLoadData@@QAE_NABU0@@Z
_TEXT	SEGMENT
_rhs$ = 8						; size = 4
??8TexDownLoadData@@QAE_NABU0@@Z PROC			; TexDownLoadData::operator==, COMDAT
; _this$ = ecx

; 13   : 	{

  00000	55		 push	 ebp
  00001	8b ec		 mov	 ebp, esp
  00003	56		 push	 esi
  00004	57		 push	 edi

; 14   : 		if( m_szOwnerName != rhs.m_szOwnerName )

  00005	8b 7d 08	 mov	 edi, DWORD PTR _rhs$[ebp]
  00008	57		 push	 edi
  00009	8b f1		 mov	 esi, ecx
  0000b	ff 15 00 00 00
	00		 call	 DWORD PTR __imp_??9ioHashString@@QBE_NABV0@@Z
  00011	84 c0		 test	 al, al
  00013	74 04		 je	 SHORT $LN4@operator
$LN7@operator:

; 15   : 			return false;

  00015	32 c0		 xor	 al, al
  00017	eb 22		 jmp	 SHORT $LN1@operator
$LN4@operator:

; 16   : 		if( m_szDstTexName != rhs.m_szDstTexName )

  00019	8d 47 10	 lea	 eax, DWORD PTR [edi+16]
  0001c	50		 push	 eax
  0001d	8d 4e 10	 lea	 ecx, DWORD PTR [esi+16]
  00020	ff 15 00 00 00
	00		 call	 DWORD PTR __imp_??9ioHashString@@QBE_NABV0@@Z
  00026	84 c0		 test	 al, al

; 17   : 			return false;

  00028	75 eb		 jne	 SHORT $LN7@operator

; 18   : 		if( m_dwCustomIndex != rhs.m_dwCustomIndex )

  0002a	8b 46 20	 mov	 eax, DWORD PTR [esi+32]
  0002d	3b 47 20	 cmp	 eax, DWORD PTR [edi+32]

; 19   : 			return false;

  00030	75 e3		 jne	 SHORT $LN7@operator

; 20   : 		if( m_dwSubIndex != rhs.m_dwSubIndex )

  00032	8b 46 24	 mov	 eax, DWORD PTR [esi+36]
  00035	3b 47 24	 cmp	 eax, DWORD PTR [edi+36]
  00038	0f 94 c0	 sete	 al
$LN1@operator:
  0003b	5f		 pop	 edi
  0003c	5e		 pop	 esi

; 21   : 			return false;
; 22   : 		return true;
; 23   : 	}

  0003d	5d		 pop	 ebp
  0003e	c2 04 00	 ret	 4
??8TexDownLoadData@@QAE_NABU0@@Z ENDP			; TexDownLoadData::operator==
_TEXT	ENDS
PUBLIC	??0TrainExtraItem@ioCustomTextureMgr@@QAE@XZ	; ioCustomTextureMgr::TrainExtraItem::TrainExtraItem
;	COMDAT xdata$x
xdata$x	SEGMENT
__unwindtable$??0TrainExtraItem@ioCustomTextureMgr@@QAE@XZ DD 0ffffffffH
	DD	FLAT:__unwindfunclet$??0TrainExtraItem@ioCustomTextureMgr@@QAE@XZ$0
__ehfuncinfo$??0TrainExtraItem@ioCustomTextureMgr@@QAE@XZ DD 019930522H
	DD	01H
	DD	FLAT:__unwindtable$??0TrainExtraItem@ioCustomTextureMgr@@QAE@XZ
	DD	2 DUP(00H)
	DD	2 DUP(00H)
	DD	00H
	DD	01H
; Function compile flags: /Ogsp
xdata$x	ENDS
;	COMDAT ??0TrainExtraItem@ioCustomTextureMgr@@QAE@XZ
_TEXT	SEGMENT
_this$ = -16						; size = 4
__$EHRec$ = -12						; size = 12
??0TrainExtraItem@ioCustomTextureMgr@@QAE@XZ PROC	; ioCustomTextureMgr::TrainExtraItem::TrainExtraItem, COMDAT
; _this$ = ecx

; 49   : 		TrainExtraItem()

  00000	6a 04		 push	 4
  00002	b8 00 00 00 00	 mov	 eax, __ehhandler$??0TrainExtraItem@ioCustomTextureMgr@@QAE@XZ
  00007	e8 00 00 00 00	 call	 __EH_prolog3
  0000c	8b f1		 mov	 esi, ecx
  0000e	89 75 f0	 mov	 DWORD PTR _this$[ebp], esi
  00011	8b 3d 00 00 00
	00		 mov	 edi, DWORD PTR __imp_??0ioHashString@@QAE@XZ
  00017	8d 4e 04	 lea	 ecx, DWORD PTR [esi+4]
  0001a	ff d7		 call	 edi
  0001c	83 65 fc 00	 and	 DWORD PTR __$EHRec$[ebp+8], 0
  00020	8d 4e 14	 lea	 ecx, DWORD PTR [esi+20]
  00023	ff d7		 call	 edi

; 50   : 		{
; 51   : 			m_dwItemCode = 0;

  00025	83 26 00	 and	 DWORD PTR [esi], 0

; 52   : 		}

  00028	8b c6		 mov	 eax, esi
  0002a	e8 00 00 00 00	 call	 __EH_epilog3
  0002f	c3		 ret	 0
_TEXT	ENDS
;	COMDAT text$x
text$x	SEGMENT
__unwindfunclet$??0TrainExtraItem@ioCustomTextureMgr@@QAE@XZ$0:
  00000	8b 4d f0	 mov	 ecx, DWORD PTR _this$[ebp]
  00003	83 c1 04	 add	 ecx, 4
  00006	ff 25 00 00 00
	00		 jmp	 DWORD PTR __imp_??1ioHashString@@QAE@XZ
__ehhandler$??0TrainExtraItem@ioCustomTextureMgr@@QAE@XZ:
  0000c	8b 54 24 08	 mov	 edx, DWORD PTR [esp+8]
  00010	8d 42 0c	 lea	 eax, DWORD PTR [edx+12]
  00013	8b 4a ec	 mov	 ecx, DWORD PTR [edx-20]
  00016	33 c8		 xor	 ecx, eax
  00018	e8 00 00 00 00	 call	 @__security_check_cookie@4
  0001d	b8 00 00 00 00	 mov	 eax, OFFSET __ehfuncinfo$??0TrainExtraItem@ioCustomTextureMgr@@QAE@XZ
  00022	e9 00 00 00 00	 jmp	 ___CxxFrameHandler3
text$x	ENDS
??0TrainExtraItem@ioCustomTextureMgr@@QAE@XZ ENDP	; ioCustomTextureMgr::TrainExtraItem::TrainExtraItem
PUBLIC	?size@?$vector@KV?$allocator@K@std@@@std@@QBEIXZ ; std::vector<unsigned long,std::allocator<unsigned long> >::size
; Function compile flags: /Ogsp
; File c:\program files (x86)\microsoft visual studio 10.0\vc\include\vector
;	COMDAT ?size@?$vector@KV?$allocator@K@std@@@std@@QBEIXZ
_TEXT	SEGMENT
?size@?$vector@KV?$allocator@K@std@@@std@@QBEIXZ PROC	; std::vector<unsigned long,std::allocator<unsigned long> >::size, COMDAT
; _this$ = ecx

; 879  : 		return (this->_Mylast - this->_Myfirst);

  00000	8b 41 04	 mov	 eax, DWORD PTR [ecx+4]
  00003	2b 01		 sub	 eax, DWORD PTR [ecx]
  00005	c1 f8 02	 sar	 eax, 2

; 880  : 		}

  00008	c3		 ret	 0
?size@?$vector@KV?$allocator@K@std@@@std@@QBEIXZ ENDP	; std::vector<unsigned long,std::allocator<unsigned long> >::size
_TEXT	ENDS
PUBLIC	??A?$vector@KV?$allocator@K@std@@@std@@QAEAAKI@Z ; std::vector<unsigned long,std::allocator<unsigned long> >::operator[]
; Function compile flags: /Ogsp
;	COMDAT ??A?$vector@KV?$allocator@K@std@@@std@@QAEAAKI@Z
_TEXT	SEGMENT
__Pos$ = 8						; size = 4
??A?$vector@KV?$allocator@K@std@@@std@@QAEAAKI@Z PROC	; std::vector<unsigned long,std::allocator<unsigned long> >::operator[], COMDAT
; _this$ = ecx

; 928  : 		{	// subscript mutable sequence

  00000	55		 push	 ebp
  00001	8b ec		 mov	 ebp, esp

; 929  :  #if _ITERATOR_DEBUG_LEVEL == 2
; 930  : 		if (size() <= _Pos)
; 931  : 			{	// report error
; 932  : 			_DEBUG_ERROR("vector subscript out of range");
; 933  : 			_SCL_SECURE_OUT_OF_RANGE;
; 934  : 			}
; 935  : 
; 936  :  #elif _ITERATOR_DEBUG_LEVEL == 1
; 937  : 		_SCL_SECURE_VALIDATE_RANGE(_Pos < size());
; 938  :  #endif /* _ITERATOR_DEBUG_LEVEL */
; 939  : 
; 940  : 		return (*(this->_Myfirst + _Pos));

  00003	8b 01		 mov	 eax, DWORD PTR [ecx]
  00005	8b 4d 08	 mov	 ecx, DWORD PTR __Pos$[ebp]
  00008	8d 04 88	 lea	 eax, DWORD PTR [eax+ecx*4]

; 941  : 		}

  0000b	5d		 pop	 ebp
  0000c	c2 04 00	 ret	 4
??A?$vector@KV?$allocator@K@std@@@std@@QAEAAKI@Z ENDP	; std::vector<unsigned long,std::allocator<unsigned long> >::operator[]
_TEXT	ENDS
PUBLIC	?size@?$vector@UTrainExtraItem@ioCustomTextureMgr@@V?$allocator@UTrainExtraItem@ioCustomTextureMgr@@@std@@@std@@QBEIXZ ; std::vector<ioCustomTextureMgr::TrainExtraItem,std::allocator<ioCustomTextureMgr::TrainExtraItem> >::size
; Function compile flags: /Ogsp
;	COMDAT ?size@?$vector@UTrainExtraItem@ioCustomTextureMgr@@V?$allocator@UTrainExtraItem@ioCustomTextureMgr@@@std@@@std@@QBEIXZ
_TEXT	SEGMENT
?size@?$vector@UTrainExtraItem@ioCustomTextureMgr@@V?$allocator@UTrainExtraItem@ioCustomTextureMgr@@@std@@@std@@QBEIXZ PROC ; std::vector<ioCustomTextureMgr::TrainExtraItem,std::allocator<ioCustomTextureMgr::TrainExtraItem> >::size, COMDAT
; _this$ = ecx

; 879  : 		return (this->_Mylast - this->_Myfirst);

  00000	8b 41 04	 mov	 eax, DWORD PTR [ecx+4]
  00003	2b 01		 sub	 eax, DWORD PTR [ecx]
  00005	6a 24		 push	 36			; 00000024H
  00007	99		 cdq
  00008	59		 pop	 ecx
  00009	f7 f9		 idiv	 ecx

; 880  : 		}

  0000b	c3		 ret	 0
?size@?$vector@UTrainExtraItem@ioCustomTextureMgr@@V?$allocator@UTrainExtraItem@ioCustomTextureMgr@@@std@@@std@@QBEIXZ ENDP ; std::vector<ioCustomTextureMgr::TrainExtraItem,std::allocator<ioCustomTextureMgr::TrainExtraItem> >::size
_TEXT	ENDS
PUBLIC	?_Inside@?$vector@KV?$allocator@K@std@@@std@@IBE_NPBK@Z ; std::vector<unsigned long,std::allocator<unsigned long> >::_Inside
; Function compile flags: /Ogsp
;	COMDAT ?_Inside@?$vector@KV?$allocator@K@std@@@std@@IBE_NPBK@Z
_TEXT	SEGMENT
__Ptr$ = 8						; size = 4
?_Inside@?$vector@KV?$allocator@K@std@@@std@@IBE_NPBK@Z PROC ; std::vector<unsigned long,std::allocator<unsigned long> >::_Inside, COMDAT
; _this$ = ecx

; 1285 : 		{	// test if _Ptr points inside vector

  00000	55		 push	 ebp
  00001	8b ec		 mov	 ebp, esp

; 1286 : 		return (_Ptr < this->_Mylast && this->_Myfirst <= _Ptr);

  00003	8b 45 08	 mov	 eax, DWORD PTR __Ptr$[ebp]
  00006	3b 41 04	 cmp	 eax, DWORD PTR [ecx+4]
  00009	73 09		 jae	 SHORT $LN3@Inside@2
  0000b	39 01		 cmp	 DWORD PTR [ecx], eax
  0000d	77 05		 ja	 SHORT $LN3@Inside@2
  0000f	33 c0		 xor	 eax, eax
  00011	40		 inc	 eax
  00012	eb 02		 jmp	 SHORT $LN4@Inside@2
$LN3@Inside@2:
  00014	33 c0		 xor	 eax, eax
$LN4@Inside@2:

; 1287 : 		}

  00016	5d		 pop	 ebp
  00017	c2 04 00	 ret	 4
?_Inside@?$vector@KV?$allocator@K@std@@@std@@IBE_NPBK@Z ENDP ; std::vector<unsigned long,std::allocator<unsigned long> >::_Inside
_TEXT	ENDS
PUBLIC	?_Orphan_range@?$vector@KV?$allocator@K@std@@@std@@IBEXPAK0@Z ; std::vector<unsigned long,std::allocator<unsigned long> >::_Orphan_range
; Function compile flags: /Ogsp
;	COMDAT ?_Orphan_range@?$vector@KV?$allocator@K@std@@@std@@IBEXPAK0@Z
_TEXT	SEGMENT
___formal$ = 8						; size = 4
___formal$ = 12						; size = 4
?_Orphan_range@?$vector@KV?$allocator@K@std@@@std@@IBEXPAK0@Z PROC ; std::vector<unsigned long,std::allocator<unsigned long> >::_Orphan_range, COMDAT
; _this$ = ecx

; 1454 : 		}

  00000	c2 08 00	 ret	 8
?_Orphan_range@?$vector@KV?$allocator@K@std@@@std@@IBEXPAK0@Z ENDP ; std::vector<unsigned long,std::allocator<unsigned long> >::_Orphan_range
_TEXT	ENDS
PUBLIC	??1?$_Vector_val@KV?$allocator@K@std@@@std@@QAE@XZ ; std::_Vector_val<unsigned long,std::allocator<unsigned long> >::~_Vector_val<unsigned long,std::allocator<unsigned long> >
; Function compile flags: /Ogsp
;	COMDAT ??1?$_Vector_val@KV?$allocator@K@std@@@std@@QAE@XZ
_TEXT	SEGMENT
??1?$_Vector_val@KV?$allocator@K@std@@@std@@QAE@XZ PROC	; std::_Vector_val<unsigned long,std::allocator<unsigned long> >::~_Vector_val<unsigned long,std::allocator<unsigned long> >, COMDAT
; _this$ = ecx

; 434  : 		}

  00000	c3		 ret	 0
??1?$_Vector_val@KV?$allocator@K@std@@@std@@QAE@XZ ENDP	; std::_Vector_val<unsigned long,std::allocator<unsigned long> >::~_Vector_val<unsigned long,std::allocator<unsigned long> >
_TEXT	ENDS
PUBLIC	??0?$allocator@K@std@@QAE@XZ			; std::allocator<unsigned long>::allocator<unsigned long>
; Function compile flags: /Ogsp
; File c:\program files (x86)\microsoft visual studio 10.0\vc\include\xmemory
;	COMDAT ??0?$allocator@K@std@@QAE@XZ
_TEXT	SEGMENT
??0?$allocator@K@std@@QAE@XZ PROC			; std::allocator<unsigned long>::allocator<unsigned long>, COMDAT
; _this$ = ecx

; 161  : 	_ALLOCATOR() _THROW0()

  00000	8b c1		 mov	 eax, ecx

; 162  : 		{	// construct default allocator (do nothing)
; 163  : 		}

  00002	c3		 ret	 0
??0?$allocator@K@std@@QAE@XZ ENDP			; std::allocator<unsigned long>::allocator<unsigned long>
_TEXT	ENDS
PUBLIC	?capacity@?$vector@KV?$allocator@K@std@@@std@@QBEIXZ ; std::vector<unsigned long,std::allocator<unsigned long> >::capacity
; Function compile flags: /Ogsp
; File c:\program files (x86)\microsoft visual studio 10.0\vc\include\vector
;	COMDAT ?capacity@?$vector@KV?$allocator@K@std@@@std@@QBEIXZ
_TEXT	SEGMENT
?capacity@?$vector@KV?$allocator@K@std@@@std@@QBEIXZ PROC ; std::vector<unsigned long,std::allocator<unsigned long> >::capacity, COMDAT
; _this$ = ecx

; 777  : 		return (this->_Myend - this->_Myfirst);

  00000	8b 41 08	 mov	 eax, DWORD PTR [ecx+8]
  00003	2b 01		 sub	 eax, DWORD PTR [ecx]
  00005	c1 f8 02	 sar	 eax, 2

; 778  : 		}

  00008	c3		 ret	 0
?capacity@?$vector@KV?$allocator@K@std@@@std@@QBEIXZ ENDP ; std::vector<unsigned long,std::allocator<unsigned long> >::capacity
_TEXT	ENDS
PUBLIC	?_Xlen@?$vector@KV?$allocator@K@std@@@std@@IBEXXZ ; std::vector<unsigned long,std::allocator<unsigned long> >::_Xlen
; Function compile flags: /Ogsp
;	COMDAT ?_Xlen@?$vector@KV?$allocator@K@std@@@std@@IBEXXZ
_TEXT	SEGMENT
?_Xlen@?$vector@KV?$allocator@K@std@@@std@@IBEXXZ PROC	; std::vector<unsigned long,std::allocator<unsigned long> >::_Xlen, COMDAT
; _this$ = ecx

; 1427 : 		_Xlength_error("vector<T> too long");

  00000	68 00 00 00 00	 push	 OFFSET ??_C@_0BD@OLBABOEK@vector?$DMT?$DO?5too?5long?$AA@
  00005	ff 15 00 00 00
	00		 call	 DWORD PTR __imp_?_Xlength_error@std@@YAXPBD@Z
$LN4@Xlen@2:
$LN3@Xlen@2:
  0000b	cc		 int	 3
?_Xlen@?$vector@KV?$allocator@K@std@@@std@@IBEXXZ ENDP	; std::vector<unsigned long,std::allocator<unsigned long> >::_Xlen
_TEXT	ENDS
PUBLIC	??0?$allocator@K@std@@QAE@ABV01@@Z		; std::allocator<unsigned long>::allocator<unsigned long>
; Function compile flags: /Ogsp
; File c:\program files (x86)\microsoft visual studio 10.0\vc\include\xmemory
;	COMDAT ??0?$allocator@K@std@@QAE@ABV01@@Z
_TEXT	SEGMENT
___formal$ = 8						; size = 4
??0?$allocator@K@std@@QAE@ABV01@@Z PROC			; std::allocator<unsigned long>::allocator<unsigned long>, COMDAT
; _this$ = ecx

; 165  : 	_ALLOCATOR(const _ALLOCATOR<_Ty>&) _THROW0()

  00000	8b c1		 mov	 eax, ecx

; 166  : 		{	// construct by copying (do nothing)
; 167  : 		}

  00002	c2 04 00	 ret	 4
??0?$allocator@K@std@@QAE@ABV01@@Z ENDP			; std::allocator<unsigned long>::allocator<unsigned long>
_TEXT	ENDS
PUBLIC	?deallocate@?$allocator@K@std@@QAEXPAKI@Z	; std::allocator<unsigned long>::deallocate
; Function compile flags: /Ogsp
;	COMDAT ?deallocate@?$allocator@K@std@@QAEXPAKI@Z
_TEXT	SEGMENT
__Ptr$ = 8						; size = 4
___formal$ = 12						; size = 4
?deallocate@?$allocator@K@std@@QAEXPAKI@Z PROC		; std::allocator<unsigned long>::deallocate, COMDAT
; _this$ = ecx

; 181  : 		{	// deallocate object at _Ptr, ignore size

  00000	55		 push	 ebp
  00001	8b ec		 mov	 ebp, esp

; 182  : 		::operator delete(_Ptr);

  00003	ff 75 08	 push	 DWORD PTR __Ptr$[ebp]
  00006	e8 00 00 00 00	 call	 ??3@YAXPAX@Z		; operator delete
  0000b	59		 pop	 ecx

; 183  : 		}

  0000c	5d		 pop	 ebp
  0000d	c2 08 00	 ret	 8
?deallocate@?$allocator@K@std@@QAEXPAKI@Z ENDP		; std::allocator<unsigned long>::deallocate
_TEXT	ENDS
PUBLIC	?max_size@?$allocator@K@std@@QBEIXZ		; std::allocator<unsigned long>::max_size
; Function compile flags: /Ogsp
;	COMDAT ?max_size@?$allocator@K@std@@QBEIXZ
_TEXT	SEGMENT
?max_size@?$allocator@K@std@@QBEIXZ PROC		; std::allocator<unsigned long>::max_size, COMDAT
; _this$ = ecx

; 218  : 		_SIZT _Count = (_SIZT)(-1) / sizeof (_Ty);
; 219  : 		return (0 < _Count ? _Count : 1);

  00000	b8 ff ff ff 3f	 mov	 eax, 1073741823		; 3fffffffH

; 220  : 		}

  00005	c3		 ret	 0
?max_size@?$allocator@K@std@@QBEIXZ ENDP		; std::allocator<unsigned long>::max_size
_TEXT	ENDS
PUBLIC	??0?$_Vector_const_iterator@V?$_Vector_val@KV?$allocator@K@std@@@std@@@std@@QAE@PAKPBU_Container_base0@1@@Z ; std::_Vector_const_iterator<std::_Vector_val<unsigned long,std::allocator<unsigned long> > >::_Vector_const_iterator<std::_Vector_val<unsigned long,std::allocator<unsigned long> > >
; Function compile flags: /Ogsp
; File c:\program files (x86)\microsoft visual studio 10.0\vc\include\vector
;	COMDAT ??0?$_Vector_const_iterator@V?$_Vector_val@KV?$allocator@K@std@@@std@@@std@@QAE@PAKPBU_Container_base0@1@@Z
_TEXT	SEGMENT
__Parg$ = 8						; size = 4
__Pvector$ = 12						; size = 4
??0?$_Vector_const_iterator@V?$_Vector_val@KV?$allocator@K@std@@@std@@@std@@QAE@PAKPBU_Container_base0@1@@Z PROC ; std::_Vector_const_iterator<std::_Vector_val<unsigned long,std::allocator<unsigned long> > >::_Vector_const_iterator<std::_Vector_val<unsigned long,std::allocator<unsigned long> > >, COMDAT
; _this$ = ecx

; 45   : 		{	// construct with pointer _Parg

  00000	55		 push	 ebp
  00001	8b ec		 mov	 ebp, esp
  00003	8b c1		 mov	 eax, ecx
  00005	8b 4d 08	 mov	 ecx, DWORD PTR __Parg$[ebp]
  00008	89 08		 mov	 DWORD PTR [eax], ecx

; 46   : 		this->_Adopt(_Pvector);
; 47   : 		}

  0000a	5d		 pop	 ebp
  0000b	c2 08 00	 ret	 8
??0?$_Vector_const_iterator@V?$_Vector_val@KV?$allocator@K@std@@@std@@@std@@QAE@PAKPBU_Container_base0@1@@Z ENDP ; std::_Vector_const_iterator<std::_Vector_val<unsigned long,std::allocator<unsigned long> > >::_Vector_const_iterator<std::_Vector_val<unsigned long,std::allocator<unsigned long> > >
_TEXT	ENDS
PUBLIC	??$addressof@$$CBK@std@@YAPBKABK@Z		; std::addressof<unsigned long const >
; Function compile flags: /Ogsp
; File c:\program files (x86)\microsoft visual studio 10.0\vc\include\xmemory
;	COMDAT ??$addressof@$$CBK@std@@YAPBKABK@Z
_TEXT	SEGMENT
__Val$ = 8						; size = 4
??$addressof@$$CBK@std@@YAPBKABK@Z PROC			; std::addressof<unsigned long const >, COMDAT

; 110  : 	{	// return address of _Val

  00000	55		 push	 ebp
  00001	8b ec		 mov	 ebp, esp

; 111  : 	return ((_Ty *) &(char&)_Val);

  00003	8b 45 08	 mov	 eax, DWORD PTR __Val$[ebp]

; 112  : 	}

  00006	5d		 pop	 ebp
  00007	c3		 ret	 0
??$addressof@$$CBK@std@@YAPBKABK@Z ENDP			; std::addressof<unsigned long const >
_TEXT	ENDS
PUBLIC	??$_Allocate@K@std@@YAPAKIPAK@Z			; std::_Allocate<unsigned long>
; Function compile flags: /Ogsp
;	COMDAT ??$_Allocate@K@std@@YAPAKIPAK@Z
_TEXT	SEGMENT
$T534193 = -12						; size = 12
$T534197 = 8						; size = 4
__Count$ = 8						; size = 4
___formal$ = 12						; size = 4
??$_Allocate@K@std@@YAPAKIPAK@Z PROC			; std::_Allocate<unsigned long>, COMDAT

; 30   : 	{	// allocate storage for _Count elements of type _Ty

  00000	55		 push	 ebp
  00001	8b ec		 mov	 ebp, esp

; 31   : 	void *_Ptr = 0;
; 32   : 
; 33   : 	if (_Count <= 0)

  00003	8b 4d 08	 mov	 ecx, DWORD PTR __Count$[ebp]
  00006	83 ec 0c	 sub	 esp, 12			; 0000000cH
  00009	33 c0		 xor	 eax, eax
  0000b	85 c9		 test	 ecx, ecx

; 34   : 		_Count = 0;
; 35   : 	else if (((_SIZT)(-1) / sizeof (_Ty) < _Count)

  0000d	74 3e		 je	 SHORT $LN5@Allocate@3

; 36   : 		|| (_Ptr = ::operator new(_Count * sizeof (_Ty))) == 0)

  0000f	81 f9 ff ff ff
	3f		 cmp	 ecx, 1073741823		; 3fffffffH
  00015	77 10		 ja	 SHORT $LN1@Allocate@3
  00017	8b c1		 mov	 eax, ecx
  00019	c1 e0 02	 shl	 eax, 2
  0001c	50		 push	 eax
  0001d	e8 00 00 00 00	 call	 ??2@YAPAXI@Z		; operator new
  00022	59		 pop	 ecx
  00023	85 c0		 test	 eax, eax

; 38   : 
; 39   : 	return ((_Ty _FARQ *)_Ptr);

  00025	75 26		 jne	 SHORT $LN5@Allocate@3
$LN1@Allocate@3:

; 37   : 		_THROW_NCEE(bad_alloc, 0);

  00027	83 65 08 00	 and	 DWORD PTR $T534197[ebp], 0
  0002b	8d 45 08	 lea	 eax, DWORD PTR $T534197[ebp]
  0002e	50		 push	 eax
  0002f	8d 4d f4	 lea	 ecx, DWORD PTR $T534193[ebp]
  00032	ff 15 00 00 00
	00		 call	 DWORD PTR __imp_??0exception@std@@QAE@ABQBD@Z
  00038	68 00 00 00 00	 push	 OFFSET __TI2?AVbad_alloc@std@@
  0003d	8d 45 f4	 lea	 eax, DWORD PTR $T534193[ebp]
  00040	50		 push	 eax
  00041	c7 45 f4 00 00
	00 00		 mov	 DWORD PTR $T534193[ebp], OFFSET ??_7bad_alloc@std@@6B@
  00048	e8 00 00 00 00	 call	 __CxxThrowException@8
$LN10@Allocate@3:
$LN5@Allocate@3:

; 40   : 	}

  0004d	c9		 leave
  0004e	c3		 ret	 0
$LN9@Allocate@3:
??$_Allocate@K@std@@YAPAKIPAK@Z ENDP			; std::_Allocate<unsigned long>
_TEXT	ENDS
EXTRN	__imp_??0exception@std@@QAE@ABV01@@Z:PROC
; Function compile flags: /Ogsp
;	COMDAT ??0bad_alloc@std@@QAE@ABV01@@Z
_TEXT	SEGMENT
___that$ = 8						; size = 4
??0bad_alloc@std@@QAE@ABV01@@Z PROC			; std::bad_alloc::bad_alloc, COMDAT
; _this$ = ecx
  00000	55		 push	 ebp
  00001	8b ec		 mov	 ebp, esp
  00003	56		 push	 esi
  00004	ff 75 08	 push	 DWORD PTR ___that$[ebp]
  00007	8b f1		 mov	 esi, ecx
  00009	ff 15 00 00 00
	00		 call	 DWORD PTR __imp_??0exception@std@@QAE@ABV01@@Z
  0000f	c7 06 00 00 00
	00		 mov	 DWORD PTR [esi], OFFSET ??_7bad_alloc@std@@6B@
  00015	8b c6		 mov	 eax, esi
  00017	5e		 pop	 esi
  00018	5d		 pop	 ebp
  00019	c2 04 00	 ret	 4
??0bad_alloc@std@@QAE@ABV01@@Z ENDP			; std::bad_alloc::bad_alloc
_TEXT	ENDS
PUBLIC	??$forward@AAK@std@@YAAAKAAK@Z			; std::forward<unsigned long &>
; Function compile flags: /Ogsp
; File c:\program files (x86)\microsoft visual studio 10.0\vc\include\utility
;	COMDAT ??$forward@AAK@std@@YAAAKAAK@Z
_TEXT	SEGMENT
__Arg$ = 8						; size = 4
??$forward@AAK@std@@YAAAKAAK@Z PROC			; std::forward<unsigned long &>, COMDAT

; 78   : 	{	// forward _Arg, given explicitly specified type parameter

  00000	55		 push	 ebp
  00001	8b ec		 mov	 ebp, esp

; 79   : 	return ((_Ty&&)_Arg);

  00003	8b 45 08	 mov	 eax, DWORD PTR __Arg$[ebp]

; 80   : 	}

  00006	5d		 pop	 ebp
  00007	c3		 ret	 0
??$forward@AAK@std@@YAAAKAAK@Z ENDP			; std::forward<unsigned long &>
_TEXT	ENDS
PUBLIC	??$construct@AAK@?$allocator@K@std@@QAEXPAKAAK@Z ; std::allocator<unsigned long>::construct<unsigned long &>
; Function compile flags: /Ogsp
; File c:\program files (x86)\microsoft visual studio 10.0\vc\include\xmemory
;	COMDAT ??$construct@AAK@?$allocator@K@std@@QAEXPAKAAK@Z
_TEXT	SEGMENT
__Ptr$ = 8						; size = 4
__Val$ = 12						; size = 4
??$construct@AAK@?$allocator@K@std@@QAEXPAKAAK@Z PROC	; std::allocator<unsigned long>::construct<unsigned long &>, COMDAT
; _this$ = ecx

; 206  : 		void construct(pointer _Ptr, _Other&& _Val)

  00000	55		 push	 ebp
  00001	8b ec		 mov	 ebp, esp

; 207  : 		{	// construct object at _Ptr with value _Val
; 208  : 		::new ((void _FARQ *)_Ptr) _Ty(_STD forward<_Other>(_Val));

  00003	8b 45 08	 mov	 eax, DWORD PTR __Ptr$[ebp]
  00006	85 c0		 test	 eax, eax
  00008	74 07		 je	 SHORT $LN3@construct
  0000a	8b 4d 0c	 mov	 ecx, DWORD PTR __Val$[ebp]
  0000d	8b 09		 mov	 ecx, DWORD PTR [ecx]
  0000f	89 08		 mov	 DWORD PTR [eax], ecx
$LN3@construct:

; 209  : 		}

  00011	5d		 pop	 ebp
  00012	c2 08 00	 ret	 8
??$construct@AAK@?$allocator@K@std@@QAEXPAKAAK@Z ENDP	; std::allocator<unsigned long>::construct<unsigned long &>
_TEXT	ENDS
PUBLIC	??$forward@ABK@std@@YAABKABK@Z			; std::forward<unsigned long const &>
; Function compile flags: /Ogsp
; File c:\program files (x86)\microsoft visual studio 10.0\vc\include\utility
;	COMDAT ??$forward@ABK@std@@YAABKABK@Z
_TEXT	SEGMENT
__Arg$ = 8						; size = 4
??$forward@ABK@std@@YAABKABK@Z PROC			; std::forward<unsigned long const &>, COMDAT

; 78   : 	{	// forward _Arg, given explicitly specified type parameter

  00000	55		 push	 ebp
  00001	8b ec		 mov	 ebp, esp

; 79   : 	return ((_Ty&&)_Arg);

  00003	8b 45 08	 mov	 eax, DWORD PTR __Arg$[ebp]

; 80   : 	}

  00006	5d		 pop	 ebp
  00007	c3		 ret	 0
??$forward@ABK@std@@YAABKABK@Z ENDP			; std::forward<unsigned long const &>
_TEXT	ENDS
PUBLIC	??$_Ptr_cat@KK@std@@YA?AU_Scalar_ptr_iterator_tag@0@PAK0@Z ; std::_Ptr_cat<unsigned long,unsigned long>
; Function compile flags: /Ogsp
; File c:\program files (x86)\microsoft visual studio 10.0\vc\include\xutility
;	COMDAT ??$_Ptr_cat@KK@std@@YA?AU_Scalar_ptr_iterator_tag@0@PAK0@Z
_TEXT	SEGMENT
__Cat$ = -1						; size = 1
___formal$ = 8						; size = 4
___formal$ = 12						; size = 4
??$_Ptr_cat@KK@std@@YA?AU_Scalar_ptr_iterator_tag@0@PAK0@Z PROC ; std::_Ptr_cat<unsigned long,unsigned long>, COMDAT

; 516  : 	{	// return pointer category from pointers

  00000	55		 push	 ebp
  00001	8b ec		 mov	 ebp, esp
  00003	51		 push	 ecx

; 517  : 	typename _Ptr_cat_helper<_Elem1, _Elem2>::_Type _Cat;
; 518  : 	return (_Cat);

  00004	8a 45 ff	 mov	 al, BYTE PTR __Cat$[ebp]

; 519  : 	}

  00007	c9		 leave
  00008	c3		 ret	 0
??$_Ptr_cat@KK@std@@YA?AU_Scalar_ptr_iterator_tag@0@PAK0@Z ENDP ; std::_Ptr_cat<unsigned long,unsigned long>
_TEXT	ENDS
PUBLIC	??$_Move@PAKPAK@std@@YAPAKPAK00U_Scalar_ptr_iterator_tag@0@@Z ; std::_Move<unsigned long *,unsigned long *>
EXTRN	__imp__memmove:PROC
; Function compile flags: /Ogsp
;	COMDAT ??$_Move@PAKPAK@std@@YAPAKPAK00U_Scalar_ptr_iterator_tag@0@@Z
_TEXT	SEGMENT
__First$ = 8						; size = 4
__Last$ = 12						; size = 4
__Dest$ = 16						; size = 4
___formal$ = 20						; size = 1
??$_Move@PAKPAK@std@@YAPAKPAK00U_Scalar_ptr_iterator_tag@0@@Z PROC ; std::_Move<unsigned long *,unsigned long *>, COMDAT

; 2522 : 	{	// move [_First, _Last) to [_Dest, ...), pointers to scalars

  00000	55		 push	 ebp
  00001	8b ec		 mov	 ebp, esp
  00003	56		 push	 esi

; 2523 : 	ptrdiff_t _Count = _Last - _First;

  00004	8b 75 0c	 mov	 esi, DWORD PTR __Last$[ebp]
  00007	2b 75 08	 sub	 esi, DWORD PTR __First$[ebp]
  0000a	57		 push	 edi

; 2524 : 	_CSTD memmove(&*_Dest, &*_First,
; 2525 : 		_Count * sizeof (*_First));

  0000b	8b 7d 10	 mov	 edi, DWORD PTR __Dest$[ebp]
  0000e	c1 fe 02	 sar	 esi, 2
  00011	c1 e6 02	 shl	 esi, 2
  00014	56		 push	 esi
  00015	ff 75 08	 push	 DWORD PTR __First$[ebp]
  00018	57		 push	 edi
  00019	ff 15 00 00 00
	00		 call	 DWORD PTR __imp__memmove
  0001f	83 c4 0c	 add	 esp, 12			; 0000000cH

; 2526 : 	return (_Dest + _Count);

  00022	8d 04 3e	 lea	 eax, DWORD PTR [esi+edi]
  00025	5f		 pop	 edi
  00026	5e		 pop	 esi

; 2527 : 	}

  00027	5d		 pop	 ebp
  00028	c3		 ret	 0
??$_Move@PAKPAK@std@@YAPAKPAK00U_Scalar_ptr_iterator_tag@0@@Z ENDP ; std::_Move<unsigned long *,unsigned long *>
_TEXT	ENDS
PUBLIC	??$_Destroy_range@V?$allocator@K@std@@@std@@YAXPAK0AAV?$allocator@K@0@U_Scalar_ptr_iterator_tag@0@@Z ; std::_Destroy_range<std::allocator<unsigned long> >
; Function compile flags: /Ogsp
; File c:\program files (x86)\microsoft visual studio 10.0\vc\include\xmemory
;	COMDAT ??$_Destroy_range@V?$allocator@K@std@@@std@@YAXPAK0AAV?$allocator@K@0@U_Scalar_ptr_iterator_tag@0@@Z
_TEXT	SEGMENT
__First$ = 8						; size = 4
__Last$ = 12						; size = 4
__Al$ = 16						; size = 4
___formal$ = 20						; size = 1
??$_Destroy_range@V?$allocator@K@std@@@std@@YAXPAK0AAV?$allocator@K@0@U_Scalar_ptr_iterator_tag@0@@Z PROC ; std::_Destroy_range<std::allocator<unsigned long> >, COMDAT

; 105  : 	}

  00000	c3		 ret	 0
??$_Destroy_range@V?$allocator@K@std@@@std@@YAXPAK0AAV?$allocator@K@0@U_Scalar_ptr_iterator_tag@0@@Z ENDP ; std::_Destroy_range<std::allocator<unsigned long> >
_TEXT	ENDS
PUBLIC	??$_Construct@KABK@std@@YAXPAKABK@Z		; std::_Construct<unsigned long,unsigned long const &>
; Function compile flags: /Ogsp
;	COMDAT ??$_Construct@KABK@std@@YAXPAKABK@Z
_TEXT	SEGMENT
__Ptr$ = 8						; size = 4
__Val$ = 12						; size = 4
??$_Construct@KABK@std@@YAXPAKABK@Z PROC		; std::_Construct<unsigned long,unsigned long const &>, COMDAT

; 46   : 	{	// construct object at _Ptr with value _Val

  00000	55		 push	 ebp
  00001	8b ec		 mov	 ebp, esp

; 47   : 	void _FARQ *_Vptr = _Ptr;
; 48   : 	::new (_Vptr) _Ty1(_STD forward<_Ty2>(_Val));

  00003	8b 45 08	 mov	 eax, DWORD PTR __Ptr$[ebp]
  00006	85 c0		 test	 eax, eax
  00008	74 07		 je	 SHORT $LN3@Construct@2
  0000a	8b 4d 0c	 mov	 ecx, DWORD PTR __Val$[ebp]
  0000d	8b 09		 mov	 ecx, DWORD PTR [ecx]
  0000f	89 08		 mov	 DWORD PTR [eax], ecx
$LN3@Construct@2:

; 49   : 	}

  00011	5d		 pop	 ebp
  00012	c3		 ret	 0
??$_Construct@KABK@std@@YAXPAKABK@Z ENDP		; std::_Construct<unsigned long,unsigned long const &>
_TEXT	ENDS
PUBLIC	??$_Val_type@PAK@std@@YAPAKPAK@Z		; std::_Val_type<unsigned long *>
; Function compile flags: /Ogsp
; File c:\program files (x86)\microsoft visual studio 10.0\vc\include\xutility
;	COMDAT ??$_Val_type@PAK@std@@YAPAKPAK@Z
_TEXT	SEGMENT
___formal$ = 8						; size = 4
??$_Val_type@PAK@std@@YAPAKPAK@Z PROC			; std::_Val_type<unsigned long *>, COMDAT

; 790  : 	return (0);

  00000	33 c0		 xor	 eax, eax

; 791  : 	}

  00002	c3		 ret	 0
??$_Val_type@PAK@std@@YAPAKPAK@Z ENDP			; std::_Val_type<unsigned long *>
_TEXT	ENDS
PUBLIC	??$_Uninit_move@KKK@std@@YAPAKPAK00AAV?$allocator@K@0@0U_Scalar_ptr_iterator_tag@0@@Z ; std::_Uninit_move<unsigned long,unsigned long,unsigned long>
; Function compile flags: /Ogsp
; File c:\program files (x86)\microsoft visual studio 10.0\vc\include\memory
;	COMDAT ??$_Uninit_move@KKK@std@@YAPAKPAK00AAV?$allocator@K@0@0U_Scalar_ptr_iterator_tag@0@@Z
_TEXT	SEGMENT
__First$ = 8						; size = 4
__Last$ = 12						; size = 4
__Dest$ = 16						; size = 4
___formal$ = 20						; size = 4
___formal$ = 24						; size = 4
___formal$ = 28						; size = 1
??$_Uninit_move@KKK@std@@YAPAKPAK00AAV?$allocator@K@0@0U_Scalar_ptr_iterator_tag@0@@Z PROC ; std::_Uninit_move<unsigned long,unsigned long,unsigned long>, COMDAT

; 456  : 	{	// move [_First, _Last) to raw _Dest, scalar type

  00000	55		 push	 ebp
  00001	8b ec		 mov	 ebp, esp
  00003	56		 push	 esi

; 457  : 	_DEBUG_RANGE(_First, _Last);
; 458  : 	_DEBUG_POINTER(_Dest);
; 459  : 	size_t _Count = (size_t)(_Last - _First);

  00004	8b 75 0c	 mov	 esi, DWORD PTR __Last$[ebp]
  00007	2b 75 08	 sub	 esi, DWORD PTR __First$[ebp]
  0000a	c1 fe 02	 sar	 esi, 2

; 460  : 	return ((_Ty2 *)_CSTD memmove(&*_Dest, &*_First,
; 461  : 		_Count * sizeof (*_First)) + _Count);	// NB: non-overlapping move

  0000d	c1 e6 02	 shl	 esi, 2
  00010	56		 push	 esi
  00011	ff 75 08	 push	 DWORD PTR __First$[ebp]
  00014	ff 75 10	 push	 DWORD PTR __Dest$[ebp]
  00017	ff 15 00 00 00
	00		 call	 DWORD PTR __imp__memmove
  0001d	83 c4 0c	 add	 esp, 12			; 0000000cH
  00020	03 c6		 add	 eax, esi
  00022	5e		 pop	 esi

; 462  : 	}

  00023	5d		 pop	 ebp
  00024	c3		 ret	 0
??$_Uninit_move@KKK@std@@YAPAKPAK00AAV?$allocator@K@0@0U_Scalar_ptr_iterator_tag@0@@Z ENDP ; std::_Uninit_move<unsigned long,unsigned long,unsigned long>
_TEXT	ENDS
PUBLIC	??_C@_0BO@NHGGKMPE@ioCustomTextureTask?5Path?5?3?5?$CFs?$AA@ ; `string'
PUBLIC	??_C@_0BN@GEPOEIGD@ioCustomTextureTask?5URL?5?3?5?$CFs?$AA@ ; `string'
PUBLIC	??0ioCustomTextureTask@@QAE@PBD0AAUTexDownLoadData@@@Z ; ioCustomTextureTask::ioCustomTextureTask
EXTRN	__imp_?LOG@@3VCLog@@A:BYTE
EXTRN	__imp_?PrintTimeAndLog@CLog@@QAAXHPADZZ:PROC
EXTRN	?IsMeDeveloper@ioApplication@@QAE_NXZ:PROC	; ioApplication::IsMeDeveloper
EXTRN	?GetSingleton@ioApplication@@SAAAV1@XZ:PROC	; ioApplication::GetSingleton
EXTRN	__imp_??0ioHashString@@QAE@PBD@Z:PROC
EXTRN	__imp_??0IThreadTask@@QAE@XZ:PROC
;	COMDAT ??_C@_0BO@NHGGKMPE@ioCustomTextureTask?5Path?5?3?5?$CFs?$AA@
; File d:\lost saga for developer\youtube\tutorial\source\src\lsclient\iocustomtexturemgr.cpp
CONST	SEGMENT
??_C@_0BO@NHGGKMPE@ioCustomTextureTask?5Path?5?3?5?$CFs?$AA@ DB 'ioCustom'
	DB	'TextureTask Path : %s', 00H			; `string'
CONST	ENDS
;	COMDAT ??_C@_0BN@GEPOEIGD@ioCustomTextureTask?5URL?5?3?5?$CFs?$AA@
CONST	SEGMENT
??_C@_0BN@GEPOEIGD@ioCustomTextureTask?5URL?5?3?5?$CFs?$AA@ DB 'ioCustomT'
	DB	'extureTask URL : %s', 00H			; `string'
CONST	ENDS
;	COMDAT xdata$x
xdata$x	SEGMENT
__unwindtable$??0ioCustomTextureTask@@QAE@PBD0AAUTexDownLoadData@@@Z DD 0ffffffffH
	DD	FLAT:__unwindfunclet$??0ioCustomTextureTask@@QAE@PBD0AAUTexDownLoadData@@@Z$0
	DD	00H
	DD	FLAT:__unwindfunclet$??0ioCustomTextureTask@@QAE@PBD0AAUTexDownLoadData@@@Z$1
	DD	01H
	DD	FLAT:__unwindfunclet$??0ioCustomTextureTask@@QAE@PBD0AAUTexDownLoadData@@@Z$2
	DD	02H
	DD	FLAT:__unwindfunclet$??0ioCustomTextureTask@@QAE@PBD0AAUTexDownLoadData@@@Z$3
__ehfuncinfo$??0ioCustomTextureTask@@QAE@PBD0AAUTexDownLoadData@@@Z DD 019930522H
	DD	04H
	DD	FLAT:__unwindtable$??0ioCustomTextureTask@@QAE@PBD0AAUTexDownLoadData@@@Z
	DD	2 DUP(00H)
	DD	2 DUP(00H)
	DD	00H
	DD	01H
; Function compile flags: /Ogsp
xdata$x	ENDS
;	COMDAT ??0ioCustomTextureTask@@QAE@PBD0AAUTexDownLoadData@@@Z
_TEXT	SEGMENT
_this$ = -16						; size = 4
__$EHRec$ = -12						; size = 12
_szFullName$ = 8					; size = 4
_szFullURL$ = 12					; size = 4
_kData$ = 16						; size = 4
??0ioCustomTextureTask@@QAE@PBD0AAUTexDownLoadData@@@Z PROC ; ioCustomTextureTask::ioCustomTextureTask, COMDAT
; _this$ = ecx

; 35   : {

  00000	6a 04		 push	 4
  00002	b8 00 00 00 00	 mov	 eax, __ehhandler$??0ioCustomTextureTask@@QAE@PBD0AAUTexDownLoadData@@@Z
  00007	e8 00 00 00 00	 call	 __EH_prolog3
  0000c	8b f1		 mov	 esi, ecx
  0000e	89 75 f0	 mov	 DWORD PTR _this$[ebp], esi
  00011	ff 15 00 00 00
	00		 call	 DWORD PTR __imp_??0IThreadTask@@QAE@XZ
  00017	ff 75 08	 push	 DWORD PTR _szFullName$[ebp]
  0001a	8b 3d 00 00 00
	00		 mov	 edi, DWORD PTR __imp_??0ioHashString@@QAE@PBD@Z
  00020	83 65 fc 00	 and	 DWORD PTR __$EHRec$[ebp+8], 0
  00024	8d 4e 04	 lea	 ecx, DWORD PTR [esi+4]
  00027	c7 06 00 00 00
	00		 mov	 DWORD PTR [esi], OFFSET ??_7ioCustomTextureTask@@6B@
  0002d	ff d7		 call	 edi
  0002f	ff 75 0c	 push	 DWORD PTR _szFullURL$[ebp]
  00032	8d 4e 14	 lea	 ecx, DWORD PTR [esi+20]
  00035	c6 45 fc 01	 mov	 BYTE PTR __$EHRec$[ebp+8], 1
  00039	ff d7		 call	 edi
  0003b	8d 4e 24	 lea	 ecx, DWORD PTR [esi+36]
  0003e	c6 45 fc 02	 mov	 BYTE PTR __$EHRec$[ebp+8], 2
  00042	e8 00 00 00 00	 call	 ??0TexDownLoadData@@QAE@XZ

; 36   : 	m_DownData = kData;

  00047	ff 75 10	 push	 DWORD PTR _kData$[ebp]
  0004a	8d 4e 24	 lea	 ecx, DWORD PTR [esi+36]
  0004d	c6 45 fc 03	 mov	 BYTE PTR __$EHRec$[ebp+8], 3
  00051	e8 00 00 00 00	 call	 ??4TexDownLoadData@@QAEAAU0@ABU0@@Z

; 37   : 	m_bDone    = false;

  00056	c6 46 4c 00	 mov	 BYTE PTR [esi+76], 0

; 38   : 
; 39   : 	if( g_App.IsMeDeveloper() )

  0005a	e8 00 00 00 00	 call	 ?GetSingleton@ioApplication@@SAAAV1@XZ ; ioApplication::GetSingleton
  0005f	8b c8		 mov	 ecx, eax
  00061	e8 00 00 00 00	 call	 ?IsMeDeveloper@ioApplication@@QAE_NXZ ; ioApplication::IsMeDeveloper
  00066	84 c0		 test	 al, al
  00068	74 2d		 je	 SHORT $LN1@ioCustomTe

; 40   : 	{
; 41   : 		LOG.PrintTimeAndLog( 0, "ioCustomTextureTask URL : %s", szFullURL );

  0006a	ff 75 0c	 push	 DWORD PTR _szFullURL$[ebp]
  0006d	8b 3d 00 00 00
	00		 mov	 edi, DWORD PTR __imp_?PrintTimeAndLog@CLog@@QAAXHPADZZ
  00073	68 00 00 00 00	 push	 OFFSET ??_C@_0BN@GEPOEIGD@ioCustomTextureTask?5URL?5?3?5?$CFs?$AA@
  00078	6a 00		 push	 0
  0007a	ff 35 00 00 00
	00		 push	 DWORD PTR __imp_?LOG@@3VCLog@@A
  00080	ff d7		 call	 edi

; 42   : 		LOG.PrintTimeAndLog( 0, "ioCustomTextureTask Path : %s", szFullName );

  00082	ff 75 08	 push	 DWORD PTR _szFullName$[ebp]
  00085	68 00 00 00 00	 push	 OFFSET ??_C@_0BO@NHGGKMPE@ioCustomTextureTask?5Path?5?3?5?$CFs?$AA@
  0008a	6a 00		 push	 0
  0008c	ff 35 00 00 00
	00		 push	 DWORD PTR __imp_?LOG@@3VCLog@@A
  00092	ff d7		 call	 edi
  00094	83 c4 20	 add	 esp, 32			; 00000020H
$LN1@ioCustomTe:

; 43   : 	}
; 44   : }

  00097	8b c6		 mov	 eax, esi
  00099	e8 00 00 00 00	 call	 __EH_epilog3
  0009e	c2 0c 00	 ret	 12			; 0000000cH
_TEXT	ENDS
;	COMDAT text$x
text$x	SEGMENT
__unwindfunclet$??0ioCustomTextureTask@@QAE@PBD0AAUTexDownLoadData@@@Z$0:
  00000	8b 4d f0	 mov	 ecx, DWORD PTR _this$[ebp]
  00003	ff 25 00 00 00
	00		 jmp	 DWORD PTR __imp_??1IThreadTask@@UAE@XZ
__unwindfunclet$??0ioCustomTextureTask@@QAE@PBD0AAUTexDownLoadData@@@Z$1:
  00009	8b 4d f0	 mov	 ecx, DWORD PTR _this$[ebp]
  0000c	83 c1 04	 add	 ecx, 4
  0000f	ff 25 00 00 00
	00		 jmp	 DWORD PTR __imp_??1ioHashString@@QAE@XZ
__unwindfunclet$??0ioCustomTextureTask@@QAE@PBD0AAUTexDownLoadData@@@Z$2:
  00015	8b 4d f0	 mov	 ecx, DWORD PTR _this$[ebp]
  00018	83 c1 14	 add	 ecx, 20			; 00000014H
  0001b	ff 25 00 00 00
	00		 jmp	 DWORD PTR __imp_??1ioHashString@@QAE@XZ
__unwindfunclet$??0ioCustomTextureTask@@QAE@PBD0AAUTexDownLoadData@@@Z$3:
  00021	8b 4d f0	 mov	 ecx, DWORD PTR _this$[ebp]
  00024	83 c1 24	 add	 ecx, 36			; 00000024H
  00027	e9 00 00 00 00	 jmp	 ??1TexDownLoadData@@QAE@XZ
__ehhandler$??0ioCustomTextureTask@@QAE@PBD0AAUTexDownLoadData@@@Z:
  0002c	8b 54 24 08	 mov	 edx, DWORD PTR [esp+8]
  00030	8d 42 0c	 lea	 eax, DWORD PTR [edx+12]
  00033	8b 4a ec	 mov	 ecx, DWORD PTR [edx-20]
  00036	33 c8		 xor	 ecx, eax
  00038	e8 00 00 00 00	 call	 @__security_check_cookie@4
  0003d	b8 00 00 00 00	 mov	 eax, OFFSET __ehfuncinfo$??0ioCustomTextureTask@@QAE@PBD0AAUTexDownLoadData@@@Z
  00042	e9 00 00 00 00	 jmp	 ___CxxFrameHandler3
text$x	ENDS
??0ioCustomTextureTask@@QAE@PBD0AAUTexDownLoadData@@@Z ENDP ; ioCustomTextureTask::ioCustomTextureTask
; Function compile flags: /Ogsp
;	COMDAT ??_GioCustomTextureTask@@UAEPAXI@Z
_TEXT	SEGMENT
___flags$ = 8						; size = 4
??_GioCustomTextureTask@@UAEPAXI@Z PROC			; ioCustomTextureTask::`scalar deleting destructor', COMDAT
; _this$ = ecx
  00000	55		 push	 ebp
  00001	8b ec		 mov	 ebp, esp
  00003	56		 push	 esi
  00004	8b f1		 mov	 esi, ecx
  00006	e8 00 00 00 00	 call	 ??1ioCustomTextureTask@@UAE@XZ ; ioCustomTextureTask::~ioCustomTextureTask
  0000b	f6 45 08 01	 test	 BYTE PTR ___flags$[ebp], 1
  0000f	74 07		 je	 SHORT $LN1@scalar@3
  00011	56		 push	 esi
  00012	e8 00 00 00 00	 call	 ??3@YAXPAX@Z		; operator delete
  00017	59		 pop	 ecx
$LN1@scalar@3:
  00018	8b c6		 mov	 eax, esi
  0001a	5e		 pop	 esi
  0001b	5d		 pop	 ebp
  0001c	c2 04 00	 ret	 4
??_GioCustomTextureTask@@UAEPAXI@Z ENDP			; ioCustomTextureTask::`scalar deleting destructor'
_TEXT	ENDS
PUBLIC	?GetSingleton@ioCustomTextureMgr@@SAAAV1@XZ	; ioCustomTextureMgr::GetSingleton
; Function compile flags: /Ogsp
;	COMDAT ?GetSingleton@ioCustomTextureMgr@@SAAAV1@XZ
_TEXT	SEGMENT
?GetSingleton@ioCustomTextureMgr@@SAAAV1@XZ PROC	; ioCustomTextureMgr::GetSingleton, COMDAT

; 79   : 	return Singleton< ioCustomTextureMgr >::GetSingleton();

  00000	a1 00 00 00 00	 mov	 eax, DWORD PTR ?ms_Singleton@?$Singleton@VioCustomTextureMgr@@@@1PAVioCustomTextureMgr@@A ; Singleton<ioCustomTextureMgr>::ms_Singleton

; 80   : }

  00005	c3		 ret	 0
?GetSingleton@ioCustomTextureMgr@@SAAAV1@XZ ENDP	; ioCustomTextureMgr::GetSingleton
_TEXT	ENDS
PUBLIC	?IsUICharPtrCheck@ioCustomTextureMgr@@QAE_NK@Z	; ioCustomTextureMgr::IsUICharPtrCheck
; Function compile flags: /Ogsp
;	COMDAT ?IsUICharPtrCheck@ioCustomTextureMgr@@QAE_NK@Z
_TEXT	SEGMENT
_dwCharPtr$ = 8						; size = 4
?IsUICharPtrCheck@ioCustomTextureMgr@@QAE_NK@Z PROC	; ioCustomTextureMgr::IsUICharPtrCheck, COMDAT
; _this$ = ecx

; 255  : {

  00000	55		 push	 ebp
  00001	8b ec		 mov	 ebp, esp

; 256  : 	for(int i = 0;i < (int)m_dwUICharPtrList.size();i++)

  00003	8b 41 48	 mov	 eax, DWORD PTR [ecx+72]
  00006	2b 41 44	 sub	 eax, DWORD PTR [ecx+68]
  00009	33 d2		 xor	 edx, edx
  0000b	c1 f8 02	 sar	 eax, 2
  0000e	56		 push	 esi
  0000f	85 c0		 test	 eax, eax
  00011	7e 12		 jle	 SHORT $LN2@IsUICharPt
  00013	8b 49 44	 mov	 ecx, DWORD PTR [ecx+68]
$LL4@IsUICharPt:

; 257  : 	{
; 258  : 		if( m_dwUICharPtrList[i] == dwCharPtr )

  00016	8b 31		 mov	 esi, DWORD PTR [ecx]
  00018	3b 75 08	 cmp	 esi, DWORD PTR _dwCharPtr$[ebp]
  0001b	74 0f		 je	 SHORT $LN12@IsUICharPt

; 256  : 	for(int i = 0;i < (int)m_dwUICharPtrList.size();i++)

  0001d	42		 inc	 edx
  0001e	83 c1 04	 add	 ecx, 4
  00021	3b d0		 cmp	 edx, eax
  00023	7c f1		 jl	 SHORT $LL4@IsUICharPt
$LN2@IsUICharPt:

; 261  : 		}
; 262  : 	}
; 263  : 	return false;

  00025	32 c0		 xor	 al, al
$LN5@IsUICharPt:
  00027	5e		 pop	 esi

; 264  : }

  00028	5d		 pop	 ebp
  00029	c2 04 00	 ret	 4
$LN12@IsUICharPt:

; 259  : 		{
; 260  : 			return true;

  0002c	b0 01		 mov	 al, 1
  0002e	eb f7		 jmp	 SHORT $LN5@IsUICharPt
?IsUICharPtrCheck@ioCustomTextureMgr@@QAE_NK@Z ENDP	; ioCustomTextureMgr::IsUICharPtrCheck
_TEXT	ENDS
PUBLIC	?CompleteCustomItem@ioCustomTextureMgr@@QAEXKKK@Z ; ioCustomTextureMgr::CompleteCustomItem
EXTRN	?ReloadEquipItem@ioCreateChar@@QAEXKKK@Z:PROC	; ioCreateChar::ReloadEquipItem
; Function compile flags: /Ogsp
;	COMDAT ?CompleteCustomItem@ioCustomTextureMgr@@QAEXKKK@Z
_TEXT	SEGMENT
_dwItemCode$ = 8					; size = 4
_dwMaleCustom$ = 12					; size = 4
_dwFemaleCustom$ = 16					; size = 4
?CompleteCustomItem@ioCustomTextureMgr@@QAEXKKK@Z PROC	; ioCustomTextureMgr::CompleteCustomItem, COMDAT
; _this$ = ecx

; 267  : {

  00000	55		 push	 ebp
  00001	8b ec		 mov	 ebp, esp

; 268  : 	if( dwItemCode == 0 ) return;

  00003	83 7d 08 00	 cmp	 DWORD PTR _dwItemCode$[ebp], 0
  00007	56		 push	 esi
  00008	8b f1		 mov	 esi, ecx
  0000a	74 37		 je	 SHORT $LN2@CompleteCu

; 269  : 
; 270  : 	for(int i = 0;i < (int)m_dwUICharPtrList.size();i++)

  0000c	8b 46 48	 mov	 eax, DWORD PTR [esi+72]
  0000f	2b 46 44	 sub	 eax, DWORD PTR [esi+68]
  00012	57		 push	 edi
  00013	33 ff		 xor	 edi, edi
  00015	a9 fc ff ff ff	 test	 eax, -4			; fffffffcH
  0001a	7e 26		 jle	 SHORT $LN14@CompleteCu
$LL4@CompleteCu:

; 271  : 	{
; 272  : 		ioCreateChar *pUICharacter = (ioCreateChar *)m_dwUICharPtrList[i];

  0001c	8b 46 44	 mov	 eax, DWORD PTR [esi+68]
  0001f	8b 0c b8	 mov	 ecx, DWORD PTR [eax+edi*4]

; 273  : 		if( !pUICharacter ) continue;

  00022	85 c9		 test	 ecx, ecx
  00024	74 0e		 je	 SHORT $LN3@CompleteCu

; 274  : 
; 275  : 		pUICharacter->ReloadEquipItem( dwItemCode, dwMaleCustom, dwFemaleCustom );

  00026	ff 75 10	 push	 DWORD PTR _dwFemaleCustom$[ebp]
  00029	ff 75 0c	 push	 DWORD PTR _dwMaleCustom$[ebp]
  0002c	ff 75 08	 push	 DWORD PTR _dwItemCode$[ebp]
  0002f	e8 00 00 00 00	 call	 ?ReloadEquipItem@ioCreateChar@@QAEXKKK@Z ; ioCreateChar::ReloadEquipItem
$LN3@CompleteCu:

; 269  : 
; 270  : 	for(int i = 0;i < (int)m_dwUICharPtrList.size();i++)

  00034	8b 46 48	 mov	 eax, DWORD PTR [esi+72]
  00037	2b 46 44	 sub	 eax, DWORD PTR [esi+68]
  0003a	47		 inc	 edi
  0003b	c1 f8 02	 sar	 eax, 2
  0003e	3b f8		 cmp	 edi, eax
  00040	7c da		 jl	 SHORT $LL4@CompleteCu
$LN14@CompleteCu:
  00042	5f		 pop	 edi
$LN2@CompleteCu:
  00043	5e		 pop	 esi

; 276  : 	}
; 277  : }

  00044	5d		 pop	 ebp
  00045	c2 0c 00	 ret	 12			; 0000000cH
?CompleteCustomItem@ioCustomTextureMgr@@QAEXKKK@Z ENDP	; ioCustomTextureMgr::CompleteCustomItem
_TEXT	ENDS
PUBLIC	?GetTrainExtraItem@ioCustomTextureMgr@@QAEKH@Z	; ioCustomTextureMgr::GetTrainExtraItem
; Function compile flags: /Ogsp
;	COMDAT ?GetTrainExtraItem@ioCustomTextureMgr@@QAEKH@Z
_TEXT	SEGMENT
_iArray$ = 8						; size = 4
?GetTrainExtraItem@ioCustomTextureMgr@@QAEKH@Z PROC	; ioCustomTextureMgr::GetTrainExtraItem, COMDAT
; _this$ = ecx

; 280  : {

  00000	55		 push	 ebp
  00001	8b ec		 mov	 ebp, esp
  00003	56		 push	 esi

; 281  : 	if( COMPARE( iArray, 0, (int)m_TrainExtraItemList.size() ) )

  00004	8b 75 08	 mov	 esi, DWORD PTR _iArray$[ebp]
  00007	85 f6		 test	 esi, esi
  00009	78 1d		 js	 SHORT $LN1@GetTrainEx
  0000b	8b 41 58	 mov	 eax, DWORD PTR [ecx+88]
  0000e	2b 41 54	 sub	 eax, DWORD PTR [ecx+84]
  00011	57		 push	 edi
  00012	6a 24		 push	 36			; 00000024H
  00014	99		 cdq
  00015	5f		 pop	 edi
  00016	f7 ff		 idiv	 edi
  00018	5f		 pop	 edi
  00019	3b f0		 cmp	 esi, eax
  0001b	7d 0b		 jge	 SHORT $LN1@GetTrainEx

; 282  : 		return m_TrainExtraItemList[iArray].m_dwItemCode;

  0001d	8b 41 54	 mov	 eax, DWORD PTR [ecx+84]
  00020	6b f6 24	 imul	 esi, 36			; 00000024H
  00023	8b 04 06	 mov	 eax, DWORD PTR [esi+eax]
  00026	eb 02		 jmp	 SHORT $LN2@GetTrainEx
$LN1@GetTrainEx:

; 283  : 	return 0;

  00028	33 c0		 xor	 eax, eax
$LN2@GetTrainEx:
  0002a	5e		 pop	 esi

; 284  : }

  0002b	5d		 pop	 ebp
  0002c	c2 04 00	 ret	 4
?GetTrainExtraItem@ioCustomTextureMgr@@QAEKH@Z ENDP	; ioCustomTextureMgr::GetTrainExtraItem
_TEXT	ENDS
PUBLIC	??_C@_04OHJIHAFH@None?$AA@			; `string'
PUBLIC	?GetTrainExtraItemName@ioCustomTextureMgr@@QAEABVioHashString@@K@Z ; ioCustomTextureMgr::GetTrainExtraItemName
EXTRN	_atexit:PROC
;	COMDAT ?szReturn@?1??GetTrainExtraItemName@ioCustomTextureMgr@@QAEABVioHashString@@K@Z@4V3@A
; File c:\program files (x86)\microsoft visual studio 10.0\vc\include\vector
_BSS	SEGMENT
?szReturn@?1??GetTrainExtraItemName@ioCustomTextureMgr@@QAEABVioHashString@@K@Z@4V3@A DB 010H DUP (?) ; `ioCustomTextureMgr::GetTrainExtraItemName'::`2'::szReturn
_BSS	ENDS
;	COMDAT ?$S1@?1??GetTrainExtraItemName@ioCustomTextureMgr@@QAEABVioHashString@@K@Z@4IA
_BSS	SEGMENT
?$S1@?1??GetTrainExtraItemName@ioCustomTextureMgr@@QAEABVioHashString@@K@Z@4IA DD 01H DUP (?) ; `ioCustomTextureMgr::GetTrainExtraItemName'::`2'::$S1
_BSS	ENDS
;	COMDAT ??_C@_04OHJIHAFH@None?$AA@
CONST	SEGMENT
??_C@_04OHJIHAFH@None?$AA@ DB 'None', 00H		; `string'
CONST	ENDS
;	COMDAT xdata$x
xdata$x	SEGMENT
__unwindtable$?GetTrainExtraItemName@ioCustomTextureMgr@@QAEABVioHashString@@K@Z DD 0ffffffffH
	DD	FLAT:__unwindfunclet$?GetTrainExtraItemName@ioCustomTextureMgr@@QAEABVioHashString@@K@Z$0
__ehfuncinfo$?GetTrainExtraItemName@ioCustomTextureMgr@@QAEABVioHashString@@K@Z DD 019930522H
	DD	01H
	DD	FLAT:__unwindtable$?GetTrainExtraItemName@ioCustomTextureMgr@@QAEABVioHashString@@K@Z
	DD	2 DUP(00H)
	DD	2 DUP(00H)
	DD	00H
	DD	01H
; Function compile flags: /Ogsp
; File d:\lost saga for developer\youtube\tutorial\source\src\lsclient\iocustomtexturemgr.cpp
xdata$x	ENDS
;	COMDAT ?GetTrainExtraItemName@ioCustomTextureMgr@@QAEABVioHashString@@K@Z
_TEXT	SEGMENT
__$EHRec$ = -12						; size = 12
_dwItemCode$ = 8					; size = 4
?GetTrainExtraItemName@ioCustomTextureMgr@@QAEABVioHashString@@K@Z PROC ; ioCustomTextureMgr::GetTrainExtraItemName, COMDAT
; _this$ = ecx

; 287  : {

  00000	6a 00		 push	 0
  00002	b8 00 00 00 00	 mov	 eax, __ehhandler$?GetTrainExtraItemName@ioCustomTextureMgr@@QAEABVioHashString@@K@Z
  00007	e8 00 00 00 00	 call	 __EH_prolog3
  0000c	8b f1		 mov	 esi, ecx

; 288  : 	static ioHashString szReturn = "None";

  0000e	f6 05 00 00 00
	00 01		 test	 BYTE PTR ?$S1@?1??GetTrainExtraItemName@ioCustomTextureMgr@@QAEABVioHashString@@K@Z@4IA, 1
  00015	bf 00 00 00 00	 mov	 edi, OFFSET ?szReturn@?1??GetTrainExtraItemName@ioCustomTextureMgr@@QAEABVioHashString@@K@Z@4V3@A
  0001a	75 23		 jne	 SHORT $LN5@GetTrainEx@2
  0001c	83 0d 00 00 00
	00 01		 or	 DWORD PTR ?$S1@?1??GetTrainExtraItemName@ioCustomTextureMgr@@QAEABVioHashString@@K@Z@4IA, 1
  00023	83 65 fc 00	 and	 DWORD PTR __$EHRec$[ebp+8], 0
  00027	68 00 00 00 00	 push	 OFFSET ??_C@_04OHJIHAFH@None?$AA@
  0002c	8b cf		 mov	 ecx, edi
  0002e	ff 15 00 00 00
	00		 call	 DWORD PTR __imp_??0ioHashString@@QAE@PBD@Z
  00034	68 00 00 00 00	 push	 OFFSET ??__FszReturn@?1??GetTrainExtraItemName@ioCustomTextureMgr@@QAEABVioHashString@@K@Z@YAXXZ ; `ioCustomTextureMgr::GetTrainExtraItemName'::`2'::`dynamic atexit destructor for 'szReturn''
  00039	e8 00 00 00 00	 call	 _atexit
  0003e	59		 pop	 ecx
$LN5@GetTrainEx@2:

; 289  : 	for(int i = 0;i < (int)m_TrainExtraItemList.size();i++)

  0003f	8b 46 58	 mov	 eax, DWORD PTR [esi+88]
  00042	2b 46 54	 sub	 eax, DWORD PTR [esi+84]
  00045	6a 24		 push	 36			; 00000024H
  00047	99		 cdq
  00048	5b		 pop	 ebx
  00049	f7 fb		 idiv	 ebx
  0004b	33 c9		 xor	 ecx, ecx
  0004d	85 c0		 test	 eax, eax
  0004f	7e 14		 jle	 SHORT $LN2@GetTrainEx@2
  00051	8b 76 54	 mov	 esi, DWORD PTR [esi+84]
  00054	8b d6		 mov	 edx, esi
$LL4@GetTrainEx@2:

; 290  : 	{
; 291  : 		if( m_TrainExtraItemList[i].m_dwItemCode == dwItemCode )

  00056	8b 1a		 mov	 ebx, DWORD PTR [edx]
  00058	3b 5d 08	 cmp	 ebx, DWORD PTR _dwItemCode$[ebp]
  0005b	74 12		 je	 SHORT $LN16@GetTrainEx@2

; 289  : 	for(int i = 0;i < (int)m_TrainExtraItemList.size();i++)

  0005d	41		 inc	 ecx
  0005e	83 c2 24	 add	 edx, 36			; 00000024H
  00061	3b c8		 cmp	 ecx, eax
  00063	7c f1		 jl	 SHORT $LL4@GetTrainEx@2
$LN2@GetTrainEx@2:

; 293  : 	}
; 294  : 	return szReturn;

  00065	8b c7		 mov	 eax, edi
$LN6@GetTrainEx@2:

; 295  : }

  00067	e8 00 00 00 00	 call	 __EH_epilog3
  0006c	c2 04 00	 ret	 4
$LN16@GetTrainEx@2:

; 292  : 			return m_TrainExtraItemList[i].m_szItemName;

  0006f	6b c9 24	 imul	 ecx, 36			; 00000024H
  00072	8d 44 31 04	 lea	 eax, DWORD PTR [ecx+esi+4]
  00076	eb ef		 jmp	 SHORT $LN6@GetTrainEx@2
_TEXT	ENDS
;	COMDAT text$x
text$x	SEGMENT
__unwindfunclet$?GetTrainExtraItemName@ioCustomTextureMgr@@QAEABVioHashString@@K@Z$0:
  00000	a1 00 00 00 00	 mov	 eax, DWORD PTR ?$S1@?1??GetTrainExtraItemName@ioCustomTextureMgr@@QAEABVioHashString@@K@Z@4IA
  00005	83 e0 fe	 and	 eax, -2			; fffffffeH
  00008	a3 00 00 00 00	 mov	 DWORD PTR ?$S1@?1??GetTrainExtraItemName@ioCustomTextureMgr@@QAEABVioHashString@@K@Z@4IA, eax
  0000d	c3		 ret	 0
__ehhandler$?GetTrainExtraItemName@ioCustomTextureMgr@@QAEABVioHashString@@K@Z:
  0000e	8b 54 24 08	 mov	 edx, DWORD PTR [esp+8]
  00012	8d 42 0c	 lea	 eax, DWORD PTR [edx+12]
  00015	8b 4a f0	 mov	 ecx, DWORD PTR [edx-16]
  00018	33 c8		 xor	 ecx, eax
  0001a	e8 00 00 00 00	 call	 @__security_check_cookie@4
  0001f	b8 00 00 00 00	 mov	 eax, OFFSET __ehfuncinfo$?GetTrainExtraItemName@ioCustomTextureMgr@@QAEABVioHashString@@K@Z
  00024	e9 00 00 00 00	 jmp	 ___CxxFrameHandler3
text$x	ENDS
?GetTrainExtraItemName@ioCustomTextureMgr@@QAEABVioHashString@@K@Z ENDP ; ioCustomTextureMgr::GetTrainExtraItemName
PUBLIC	?GetTrainExtraItemIcon@ioCustomTextureMgr@@QAEABVioHashString@@K@Z ; ioCustomTextureMgr::GetTrainExtraItemIcon
;	COMDAT ?szReturn@?1??GetTrainExtraItemIcon@ioCustomTextureMgr@@QAEABVioHashString@@K@Z@4V3@A
; File c:\program files (x86)\microsoft visual studio 10.0\vc\include\vector
_BSS	SEGMENT
?szReturn@?1??GetTrainExtraItemIcon@ioCustomTextureMgr@@QAEABVioHashString@@K@Z@4V3@A DB 010H DUP (?) ; `ioCustomTextureMgr::GetTrainExtraItemIcon'::`2'::szReturn
_BSS	ENDS
;	COMDAT ?$S2@?1??GetTrainExtraItemIcon@ioCustomTextureMgr@@QAEABVioHashString@@K@Z@4IA
_BSS	SEGMENT
?$S2@?1??GetTrainExtraItemIcon@ioCustomTextureMgr@@QAEABVioHashString@@K@Z@4IA DD 01H DUP (?) ; `ioCustomTextureMgr::GetTrainExtraItemIcon'::`2'::$S2
_BSS	ENDS
;	COMDAT xdata$x
xdata$x	SEGMENT
__unwindtable$?GetTrainExtraItemIcon@ioCustomTextureMgr@@QAEABVioHashString@@K@Z DD 0ffffffffH
	DD	FLAT:__unwindfunclet$?GetTrainExtraItemIcon@ioCustomTextureMgr@@QAEABVioHashString@@K@Z$0
__ehfuncinfo$?GetTrainExtraItemIcon@ioCustomTextureMgr@@QAEABVioHashString@@K@Z DD 019930522H
	DD	01H
	DD	FLAT:__unwindtable$?GetTrainExtraItemIcon@ioCustomTextureMgr@@QAEABVioHashString@@K@Z
	DD	2 DUP(00H)
	DD	2 DUP(00H)
	DD	00H
	DD	01H
; Function compile flags: /Ogsp
; File d:\lost saga for developer\youtube\tutorial\source\src\lsclient\iocustomtexturemgr.cpp
xdata$x	ENDS
;	COMDAT ?GetTrainExtraItemIcon@ioCustomTextureMgr@@QAEABVioHashString@@K@Z
_TEXT	SEGMENT
__$EHRec$ = -12						; size = 12
_dwItemCode$ = 8					; size = 4
?GetTrainExtraItemIcon@ioCustomTextureMgr@@QAEABVioHashString@@K@Z PROC ; ioCustomTextureMgr::GetTrainExtraItemIcon, COMDAT
; _this$ = ecx

; 298  : {

  00000	6a 00		 push	 0
  00002	b8 00 00 00 00	 mov	 eax, __ehhandler$?GetTrainExtraItemIcon@ioCustomTextureMgr@@QAEABVioHashString@@K@Z
  00007	e8 00 00 00 00	 call	 __EH_prolog3
  0000c	8b f1		 mov	 esi, ecx

; 299  : 	static ioHashString szReturn = "None";

  0000e	f6 05 00 00 00
	00 01		 test	 BYTE PTR ?$S2@?1??GetTrainExtraItemIcon@ioCustomTextureMgr@@QAEABVioHashString@@K@Z@4IA, 1
  00015	bf 00 00 00 00	 mov	 edi, OFFSET ?szReturn@?1??GetTrainExtraItemIcon@ioCustomTextureMgr@@QAEABVioHashString@@K@Z@4V3@A
  0001a	75 23		 jne	 SHORT $LN5@GetTrainEx@3
  0001c	83 0d 00 00 00
	00 01		 or	 DWORD PTR ?$S2@?1??GetTrainExtraItemIcon@ioCustomTextureMgr@@QAEABVioHashString@@K@Z@4IA, 1
  00023	83 65 fc 00	 and	 DWORD PTR __$EHRec$[ebp+8], 0
  00027	68 00 00 00 00	 push	 OFFSET ??_C@_04OHJIHAFH@None?$AA@
  0002c	8b cf		 mov	 ecx, edi
  0002e	ff 15 00 00 00
	00		 call	 DWORD PTR __imp_??0ioHashString@@QAE@PBD@Z
  00034	68 00 00 00 00	 push	 OFFSET ??__FszReturn@?1??GetTrainExtraItemIcon@ioCustomTextureMgr@@QAEABVioHashString@@K@Z@YAXXZ ; `ioCustomTextureMgr::GetTrainExtraItemIcon'::`2'::`dynamic atexit destructor for 'szReturn''
  00039	e8 00 00 00 00	 call	 _atexit
  0003e	59		 pop	 ecx
$LN5@GetTrainEx@3:

; 300  : 	for(int i = 0;i < (int)m_TrainExtraItemList.size();i++)

  0003f	8b 46 58	 mov	 eax, DWORD PTR [esi+88]
  00042	2b 46 54	 sub	 eax, DWORD PTR [esi+84]
  00045	6a 24		 push	 36			; 00000024H
  00047	99		 cdq
  00048	5b		 pop	 ebx
  00049	f7 fb		 idiv	 ebx
  0004b	33 c9		 xor	 ecx, ecx
  0004d	85 c0		 test	 eax, eax
  0004f	7e 14		 jle	 SHORT $LN2@GetTrainEx@3
  00051	8b 76 54	 mov	 esi, DWORD PTR [esi+84]
  00054	8b d6		 mov	 edx, esi
$LL4@GetTrainEx@3:

; 301  : 	{
; 302  : 		if( m_TrainExtraItemList[i].m_dwItemCode == dwItemCode )

  00056	8b 1a		 mov	 ebx, DWORD PTR [edx]
  00058	3b 5d 08	 cmp	 ebx, DWORD PTR _dwItemCode$[ebp]
  0005b	74 12		 je	 SHORT $LN16@GetTrainEx@3

; 300  : 	for(int i = 0;i < (int)m_TrainExtraItemList.size();i++)

  0005d	41		 inc	 ecx
  0005e	83 c2 24	 add	 edx, 36			; 00000024H
  00061	3b c8		 cmp	 ecx, eax
  00063	7c f1		 jl	 SHORT $LL4@GetTrainEx@3
$LN2@GetTrainEx@3:

; 304  : 	}
; 305  : 	return szReturn;

  00065	8b c7		 mov	 eax, edi
$LN6@GetTrainEx@3:

; 306  : }

  00067	e8 00 00 00 00	 call	 __EH_epilog3
  0006c	c2 04 00	 ret	 4
$LN16@GetTrainEx@3:

; 303  : 			return m_TrainExtraItemList[i].m_szItemIcon;

  0006f	6b c9 24	 imul	 ecx, 36			; 00000024H
  00072	8d 44 31 14	 lea	 eax, DWORD PTR [ecx+esi+20]
  00076	eb ef		 jmp	 SHORT $LN6@GetTrainEx@3
_TEXT	ENDS
;	COMDAT text$x
text$x	SEGMENT
__unwindfunclet$?GetTrainExtraItemIcon@ioCustomTextureMgr@@QAEABVioHashString@@K@Z$0:
  00000	a1 00 00 00 00	 mov	 eax, DWORD PTR ?$S2@?1??GetTrainExtraItemIcon@ioCustomTextureMgr@@QAEABVioHashString@@K@Z@4IA
  00005	83 e0 fe	 and	 eax, -2			; fffffffeH
  00008	a3 00 00 00 00	 mov	 DWORD PTR ?$S2@?1??GetTrainExtraItemIcon@ioCustomTextureMgr@@QAEABVioHashString@@K@Z@4IA, eax
  0000d	c3		 ret	 0
__ehhandler$?GetTrainExtraItemIcon@ioCustomTextureMgr@@QAEABVioHashString@@K@Z:
  0000e	8b 54 24 08	 mov	 edx, DWORD PTR [esp+8]
  00012	8d 42 0c	 lea	 eax, DWORD PTR [edx+12]
  00015	8b 4a f0	 mov	 ecx, DWORD PTR [edx-16]
  00018	33 c8		 xor	 ecx, eax
  0001a	e8 00 00 00 00	 call	 @__security_check_cookie@4
  0001f	b8 00 00 00 00	 mov	 eax, OFFSET __ehfuncinfo$?GetTrainExtraItemIcon@ioCustomTextureMgr@@QAEABVioHashString@@K@Z
  00024	e9 00 00 00 00	 jmp	 ___CxxFrameHandler3
text$x	ENDS
?GetTrainExtraItemIcon@ioCustomTextureMgr@@QAEABVioHashString@@K@Z ENDP ; ioCustomTextureMgr::GetTrainExtraItemIcon
PUBLIC	??9?$_List_const_iterator@V?$_List_val@UTexDownLoadData@@V?$allocator@UTexDownLoadData@@@std@@@std@@@std@@QBE_NABV01@@Z ; std::_List_const_iterator<std::_List_val<TexDownLoadData,std::allocator<TexDownLoadData> > >::operator!=
; Function compile flags: /Ogsp
; File c:\program files (x86)\microsoft visual studio 10.0\vc\include\list
;	COMDAT ??9?$_List_const_iterator@V?$_List_val@UTexDownLoadData@@V?$allocator@UTexDownLoadData@@@std@@@std@@@std@@QBE_NABV01@@Z
_TEXT	SEGMENT
__Right$ = 8						; size = 4
??9?$_List_const_iterator@V?$_List_val@UTexDownLoadData@@V?$allocator@UTexDownLoadData@@@std@@@std@@@std@@QBE_NABV01@@Z PROC ; std::_List_const_iterator<std::_List_val<TexDownLoadData,std::allocator<TexDownLoadData> > >::operator!=, COMDAT
; _this$ = ecx

; 299  : 		{	// test for iterator inequality

  00000	55		 push	 ebp
  00001	8b ec		 mov	 ebp, esp

; 300  : 		return (!(*this == _Right));

  00003	8b 01		 mov	 eax, DWORD PTR [ecx]
  00005	8b 55 08	 mov	 edx, DWORD PTR __Right$[ebp]
  00008	33 c9		 xor	 ecx, ecx
  0000a	3b 02		 cmp	 eax, DWORD PTR [edx]
  0000c	0f 95 c0	 setne	 al

; 301  : 		}

  0000f	5d		 pop	 ebp
  00010	c2 04 00	 ret	 4
??9?$_List_const_iterator@V?$_List_val@UTexDownLoadData@@V?$allocator@UTexDownLoadData@@@std@@@std@@@std@@QBE_NABV01@@Z ENDP ; std::_List_const_iterator<std::_List_val<TexDownLoadData,std::allocator<TexDownLoadData> > >::operator!=
_TEXT	ENDS
PUBLIC	??1?$_List_val@UTexDownLoadData@@V?$allocator@UTexDownLoadData@@@std@@@std@@QAE@XZ ; std::_List_val<TexDownLoadData,std::allocator<TexDownLoadData> >::~_List_val<TexDownLoadData,std::allocator<TexDownLoadData> >
; Function compile flags: /Ogsp
;	COMDAT ??1?$_List_val@UTexDownLoadData@@V?$allocator@UTexDownLoadData@@@std@@@std@@QAE@XZ
_TEXT	SEGMENT
??1?$_List_val@UTexDownLoadData@@V?$allocator@UTexDownLoadData@@@std@@@std@@QAE@XZ PROC ; std::_List_val<TexDownLoadData,std::allocator<TexDownLoadData> >::~_List_val<TexDownLoadData,std::allocator<TexDownLoadData> >, COMDAT
; _this$ = ecx

; 502  : 		this->_Alnod.deallocate(this->_Myhead, 1);

  00000	ff 31		 push	 DWORD PTR [ecx]
  00002	e8 00 00 00 00	 call	 ??3@YAXPAX@Z		; operator delete
  00007	59		 pop	 ecx

; 503  : 		}

  00008	c3		 ret	 0
??1?$_List_val@UTexDownLoadData@@V?$allocator@UTexDownLoadData@@@std@@@std@@QAE@XZ ENDP ; std::_List_val<TexDownLoadData,std::allocator<TexDownLoadData> >::~_List_val<TexDownLoadData,std::allocator<TexDownLoadData> >
_TEXT	ENDS
PUBLIC	??0?$_Vector_val@UTrainExtraItem@ioCustomTextureMgr@@V?$allocator@UTrainExtraItem@ioCustomTextureMgr@@@std@@@std@@QAE@V?$allocator@UTrainExtraItem@ioCustomTextureMgr@@@1@@Z ; std::_Vector_val<ioCustomTextureMgr::TrainExtraItem,std::allocator<ioCustomTextureMgr::TrainExtraItem> >::_Vector_val<ioCustomTextureMgr::TrainExtraItem,std::allocator<ioCustomTextureMgr::TrainExtraItem> >
; Function compile flags: /Ogsp
; File c:\program files (x86)\microsoft visual studio 10.0\vc\include\vector
;	COMDAT ??0?$_Vector_val@UTrainExtraItem@ioCustomTextureMgr@@V?$allocator@UTrainExtraItem@ioCustomTextureMgr@@@std@@@std@@QAE@V?$allocator@UTrainExtraItem@ioCustomTextureMgr@@@1@@Z
_TEXT	SEGMENT
__Al$ = 8						; size = 1
??0?$_Vector_val@UTrainExtraItem@ioCustomTextureMgr@@V?$allocator@UTrainExtraItem@ioCustomTextureMgr@@@std@@@std@@QAE@V?$allocator@UTrainExtraItem@ioCustomTextureMgr@@@1@@Z PROC ; std::_Vector_val<ioCustomTextureMgr::TrainExtraItem,std::allocator<ioCustomTextureMgr::TrainExtraItem> >::_Vector_val<ioCustomTextureMgr::TrainExtraItem,std::allocator<ioCustomTextureMgr::TrainExtraItem> >, COMDAT
; _this$ = ecx

; 426  : 		{	// construct allocator from _Al

  00000	8b c1		 mov	 eax, ecx

; 427  : 		_Myfirst = 0;

  00002	33 c9		 xor	 ecx, ecx
  00004	89 08		 mov	 DWORD PTR [eax], ecx

; 428  : 		_Mylast = 0;

  00006	89 48 04	 mov	 DWORD PTR [eax+4], ecx

; 429  : 		_Myend = 0;

  00009	89 48 08	 mov	 DWORD PTR [eax+8], ecx

; 430  : 		}

  0000c	c2 04 00	 ret	 4
??0?$_Vector_val@UTrainExtraItem@ioCustomTextureMgr@@V?$allocator@UTrainExtraItem@ioCustomTextureMgr@@@std@@@std@@QAE@V?$allocator@UTrainExtraItem@ioCustomTextureMgr@@@1@@Z ENDP ; std::_Vector_val<ioCustomTextureMgr::TrainExtraItem,std::allocator<ioCustomTextureMgr::TrainExtraItem> >::_Vector_val<ioCustomTextureMgr::TrainExtraItem,std::allocator<ioCustomTextureMgr::TrainExtraItem> >
_TEXT	ENDS
PUBLIC	??Y?$_Vector_iterator@V?$_Vector_val@KV?$allocator@K@std@@@std@@@std@@QAEAAV01@H@Z ; std::_Vector_iterator<std::_Vector_val<unsigned long,std::allocator<unsigned long> > >::operator+=
; Function compile flags: /Ogsp
;	COMDAT ??Y?$_Vector_iterator@V?$_Vector_val@KV?$allocator@K@std@@@std@@@std@@QAEAAV01@H@Z
_TEXT	SEGMENT
__Off$ = 8						; size = 4
??Y?$_Vector_iterator@V?$_Vector_val@KV?$allocator@K@std@@@std@@@std@@QAEAAV01@H@Z PROC ; std::_Vector_iterator<std::_Vector_val<unsigned long,std::allocator<unsigned long> > >::operator+=, COMDAT
; _this$ = ecx

; 357  : 		{	// increment by integer

  00000	55		 push	 ebp
  00001	8b ec		 mov	 ebp, esp
  00003	8b c1		 mov	 eax, ecx

; 358  : 		*(_Mybase *)this += _Off;

  00005	8b 4d 08	 mov	 ecx, DWORD PTR __Off$[ebp]
  00008	c1 e1 02	 shl	 ecx, 2
  0000b	01 08		 add	 DWORD PTR [eax], ecx

; 359  : 		return (*this);
; 360  : 		}

  0000d	5d		 pop	 ebp
  0000e	c2 04 00	 ret	 4
??Y?$_Vector_iterator@V?$_Vector_val@KV?$allocator@K@std@@@std@@@std@@QAEAAV01@H@Z ENDP ; std::_Vector_iterator<std::_Vector_val<unsigned long,std::allocator<unsigned long> > >::operator+=
_TEXT	ENDS
PUBLIC	??0?$_List_nod@UTexDownLoadData@@V?$allocator@UTexDownLoadData@@@std@@@std@@QAE@V?$allocator@UTexDownLoadData@@@1@@Z ; std::_List_nod<TexDownLoadData,std::allocator<TexDownLoadData> >::_List_nod<TexDownLoadData,std::allocator<TexDownLoadData> >
; Function compile flags: /Ogsp
; File c:\program files (x86)\microsoft visual studio 10.0\vc\include\list
;	COMDAT ??0?$_List_nod@UTexDownLoadData@@V?$allocator@UTexDownLoadData@@@std@@@std@@QAE@V?$allocator@UTexDownLoadData@@@1@@Z
_TEXT	SEGMENT
__Al$ = 8						; size = 1
??0?$_List_nod@UTexDownLoadData@@V?$allocator@UTexDownLoadData@@@std@@@std@@QAE@V?$allocator@UTexDownLoadData@@@1@@Z PROC ; std::_List_nod<TexDownLoadData,std::allocator<TexDownLoadData> >::_List_nod<TexDownLoadData,std::allocator<TexDownLoadData> >, COMDAT
; _this$ = ecx

; 438  : 		{	// construct allocators from _Al

  00000	8b c1		 mov	 eax, ecx

; 439  : 		}

  00002	c2 04 00	 ret	 4
??0?$_List_nod@UTexDownLoadData@@V?$allocator@UTexDownLoadData@@@std@@@std@@QAE@V?$allocator@UTexDownLoadData@@@1@@Z ENDP ; std::_List_nod<TexDownLoadData,std::allocator<TexDownLoadData> >::_List_nod<TexDownLoadData,std::allocator<TexDownLoadData> >
_TEXT	ENDS
PUBLIC	?allocate@?$allocator@U_Node@?$_List_nod@UTexDownLoadData@@V?$allocator@UTexDownLoadData@@@std@@@std@@@std@@QAEPAU_Node@?$_List_nod@UTexDownLoadData@@V?$allocator@UTexDownLoadData@@@std@@@2@I@Z ; std::allocator<std::_List_nod<TexDownLoadData,std::allocator<TexDownLoadData> >::_Node>::allocate
; Function compile flags: /Ogsp
; File c:\program files (x86)\microsoft visual studio 10.0\vc\include\xmemory
;	COMDAT ?allocate@?$allocator@U_Node@?$_List_nod@UTexDownLoadData@@V?$allocator@UTexDownLoadData@@@std@@@std@@@std@@QAEPAU_Node@?$_List_nod@UTexDownLoadData@@V?$allocator@UTexDownLoadData@@@std@@@2@I@Z
_TEXT	SEGMENT
__Count$ = 8						; size = 4
?allocate@?$allocator@U_Node@?$_List_nod@UTexDownLoadData@@V?$allocator@UTexDownLoadData@@@std@@@std@@@std@@QAEPAU_Node@?$_List_nod@UTexDownLoadData@@V?$allocator@UTexDownLoadData@@@std@@@2@I@Z PROC ; std::allocator<std::_List_nod<TexDownLoadData,std::allocator<TexDownLoadData> >::_Node>::allocate, COMDAT
; _this$ = ecx

; 186  : 		{	// allocate array of _Count elements

  00000	55		 push	 ebp
  00001	8b ec		 mov	 ebp, esp

; 187  : 		return (_Allocate(_Count, (pointer)0));

  00003	6a 00		 push	 0
  00005	ff 75 08	 push	 DWORD PTR __Count$[ebp]
  00008	e8 00 00 00 00	 call	 ??$_Allocate@U_Node@?$_List_nod@UTexDownLoadData@@V?$allocator@UTexDownLoadData@@@std@@@std@@@std@@YAPAU_Node@?$_List_nod@UTexDownLoadData@@V?$allocator@UTexDownLoadData@@@std@@@0@IPAU120@@Z ; std::_Allocate<std::_List_nod<TexDownLoadData,std::allocator<TexDownLoadData> >::_Node>
  0000d	59		 pop	 ecx
  0000e	59		 pop	 ecx

; 188  : 		}

  0000f	5d		 pop	 ebp
  00010	c2 04 00	 ret	 4
?allocate@?$allocator@U_Node@?$_List_nod@UTexDownLoadData@@V?$allocator@UTexDownLoadData@@@std@@@std@@@std@@QAEPAU_Node@?$_List_nod@UTexDownLoadData@@V?$allocator@UTexDownLoadData@@@std@@@2@I@Z ENDP ; std::allocator<std::_List_nod<TexDownLoadData,std::allocator<TexDownLoadData> >::_Node>::allocate
_TEXT	ENDS
PUBLIC	?max_size@?$vector@UTrainExtraItem@ioCustomTextureMgr@@V?$allocator@UTrainExtraItem@ioCustomTextureMgr@@@std@@@std@@QBEIXZ ; std::vector<ioCustomTextureMgr::TrainExtraItem,std::allocator<ioCustomTextureMgr::TrainExtraItem> >::max_size
; Function compile flags: /Ogsp
; File c:\program files (x86)\microsoft visual studio 10.0\vc\include\vector
;	COMDAT ?max_size@?$vector@UTrainExtraItem@ioCustomTextureMgr@@V?$allocator@UTrainExtraItem@ioCustomTextureMgr@@@std@@@std@@QBEIXZ
_TEXT	SEGMENT
?max_size@?$vector@UTrainExtraItem@ioCustomTextureMgr@@V?$allocator@UTrainExtraItem@ioCustomTextureMgr@@@std@@@std@@QBEIXZ PROC ; std::vector<ioCustomTextureMgr::TrainExtraItem,std::allocator<ioCustomTextureMgr::TrainExtraItem> >::max_size, COMDAT
; _this$ = ecx

; 884  : 		return (this->_Alval.max_size());

  00000	b8 c7 71 1c 07	 mov	 eax, 119304647		; 071c71c7H

; 885  : 		}

  00005	c3		 ret	 0
?max_size@?$vector@UTrainExtraItem@ioCustomTextureMgr@@V?$allocator@UTrainExtraItem@ioCustomTextureMgr@@@std@@@std@@QBEIXZ ENDP ; std::vector<ioCustomTextureMgr::TrainExtraItem,std::allocator<ioCustomTextureMgr::TrainExtraItem> >::max_size
_TEXT	ENDS
PUBLIC	?_Grow_to@?$vector@UTrainExtraItem@ioCustomTextureMgr@@V?$allocator@UTrainExtraItem@ioCustomTextureMgr@@@std@@@std@@IBEII@Z ; std::vector<ioCustomTextureMgr::TrainExtraItem,std::allocator<ioCustomTextureMgr::TrainExtraItem> >::_Grow_to
; Function compile flags: /Ogsp
;	COMDAT ?_Grow_to@?$vector@UTrainExtraItem@ioCustomTextureMgr@@V?$allocator@UTrainExtraItem@ioCustomTextureMgr@@@std@@@std@@IBEII@Z
_TEXT	SEGMENT
__Count$ = 8						; size = 4
?_Grow_to@?$vector@UTrainExtraItem@ioCustomTextureMgr@@V?$allocator@UTrainExtraItem@ioCustomTextureMgr@@@std@@@std@@IBEII@Z PROC ; std::vector<ioCustomTextureMgr::TrainExtraItem,std::allocator<ioCustomTextureMgr::TrainExtraItem> >::_Grow_to, COMDAT
; _this$ = ecx

; 1274 : 		{	// grow by 50% or at least to _Count

  00000	55		 push	 ebp
  00001	8b ec		 mov	 ebp, esp

; 1275 : 		size_type _Capacity = capacity();

  00003	8b 41 08	 mov	 eax, DWORD PTR [ecx+8]
  00006	2b 01		 sub	 eax, DWORD PTR [ecx]
  00008	6a 24		 push	 36			; 00000024H
  0000a	99		 cdq
  0000b	59		 pop	 ecx
  0000c	f7 f9		 idiv	 ecx

; 1276 : 
; 1277 : 		_Capacity = max_size() - _Capacity / 2 < _Capacity
; 1278 : 			? 0 : _Capacity + _Capacity / 2;	// try to grow by 50%

  0000e	ba c7 71 1c 07	 mov	 edx, 119304647		; 071c71c7H
  00013	8b c8		 mov	 ecx, eax
  00015	d1 e9		 shr	 ecx, 1
  00017	2b d1		 sub	 edx, ecx
  00019	3b d0		 cmp	 edx, eax
  0001b	73 04		 jae	 SHORT $LN4@Grow_to
  0001d	33 c0		 xor	 eax, eax
  0001f	eb 02		 jmp	 SHORT $LN5@Grow_to
$LN4@Grow_to:
  00021	03 c1		 add	 eax, ecx
$LN5@Grow_to:

; 1279 : 		if (_Capacity < _Count)

  00023	3b 45 08	 cmp	 eax, DWORD PTR __Count$[ebp]

; 1280 : 			_Capacity = _Count;

  00026	0f 42 45 08	 cmovb	 eax, DWORD PTR __Count$[ebp]

; 1281 : 		return (_Capacity);
; 1282 : 		}

  0002a	5d		 pop	 ebp
  0002b	c2 04 00	 ret	 4
?_Grow_to@?$vector@UTrainExtraItem@ioCustomTextureMgr@@V?$allocator@UTrainExtraItem@ioCustomTextureMgr@@@std@@@std@@IBEII@Z ENDP ; std::vector<ioCustomTextureMgr::TrainExtraItem,std::allocator<ioCustomTextureMgr::TrainExtraItem> >::_Grow_to
_TEXT	ENDS
PUBLIC	??0?$_List_const_iterator@V?$_List_val@UTexDownLoadData@@V?$allocator@UTexDownLoadData@@@std@@@std@@@std@@QAE@PAU_Node@?$_List_nod@UTexDownLoadData@@V?$allocator@UTexDownLoadData@@@std@@@1@PBV?$_List_val@UTexDownLoadData@@V?$allocator@UTexDownLoadData@@@std@@@1@@Z ; std::_List_const_iterator<std::_List_val<TexDownLoadData,std::allocator<TexDownLoadData> > >::_List_const_iterator<std::_List_val<TexDownLoadData,std::allocator<TexDownLoadData> > >
; Function compile flags: /Ogsp
; File c:\program files (x86)\microsoft visual studio 10.0\vc\include\list
;	COMDAT ??0?$_List_const_iterator@V?$_List_val@UTexDownLoadData@@V?$allocator@UTexDownLoadData@@@std@@@std@@@std@@QAE@PAU_Node@?$_List_nod@UTexDownLoadData@@V?$allocator@UTexDownLoadData@@@std@@@1@PBV?$_List_val@UTexDownLoadData@@V?$allocator@UTexDownLoadData@@@std@@@1@@Z
_TEXT	SEGMENT
__Pnode$ = 8						; size = 4
__Plist$ = 12						; size = 4
??0?$_List_const_iterator@V?$_List_val@UTexDownLoadData@@V?$allocator@UTexDownLoadData@@@std@@@std@@@std@@QAE@PAU_Node@?$_List_nod@UTexDownLoadData@@V?$allocator@UTexDownLoadData@@@std@@@1@PBV?$_List_val@UTexDownLoadData@@V?$allocator@UTexDownLoadData@@@std@@@1@@Z PROC ; std::_List_const_iterator<std::_List_val<TexDownLoadData,std::allocator<TexDownLoadData> > >::_List_const_iterator<std::_List_val<TexDownLoadData,std::allocator<TexDownLoadData> > >, COMDAT
; _this$ = ecx

; 184  : 		{	// construct with node pointer _Pnode

  00000	55		 push	 ebp
  00001	8b ec		 mov	 ebp, esp
  00003	8b c1		 mov	 eax, ecx
  00005	8b 4d 08	 mov	 ecx, DWORD PTR __Pnode$[ebp]
  00008	89 08		 mov	 DWORD PTR [eax], ecx

; 185  : 		}

  0000a	5d		 pop	 ebp
  0000b	c2 08 00	 ret	 8
??0?$_List_const_iterator@V?$_List_val@UTexDownLoadData@@V?$allocator@UTexDownLoadData@@@std@@@std@@@std@@QAE@PAU_Node@?$_List_nod@UTexDownLoadData@@V?$allocator@UTexDownLoadData@@@std@@@1@PBV?$_List_val@UTexDownLoadData@@V?$allocator@UTexDownLoadData@@@std@@@1@@Z ENDP ; std::_List_const_iterator<std::_List_val<TexDownLoadData,std::allocator<TexDownLoadData> > >::_List_const_iterator<std::_List_val<TexDownLoadData,std::allocator<TexDownLoadData> > >
_TEXT	ENDS
PUBLIC	?max_size@?$list@UTexDownLoadData@@V?$allocator@UTexDownLoadData@@@std@@@std@@QBEIXZ ; std::list<TexDownLoadData,std::allocator<TexDownLoadData> >::max_size
; Function compile flags: /Ogsp
;	COMDAT ?max_size@?$list@UTexDownLoadData@@V?$allocator@UTexDownLoadData@@@std@@@std@@QBEIXZ
_TEXT	SEGMENT
?max_size@?$list@UTexDownLoadData@@V?$allocator@UTexDownLoadData@@@std@@@std@@QBEIXZ PROC ; std::list<TexDownLoadData,std::allocator<TexDownLoadData> >::max_size, COMDAT
; _this$ = ecx

; 882  : 		return (this->_Alval.max_size());

  00000	b8 66 66 66 06	 mov	 eax, 107374182		; 06666666H

; 883  : 		}

  00005	c3		 ret	 0
?max_size@?$list@UTexDownLoadData@@V?$allocator@UTexDownLoadData@@@std@@@std@@QBEIXZ ENDP ; std::list<TexDownLoadData,std::allocator<TexDownLoadData> >::max_size
_TEXT	ENDS
PUBLIC	?allocate@?$allocator@UTrainExtraItem@ioCustomTextureMgr@@@std@@QAEPAUTrainExtraItem@ioCustomTextureMgr@@I@Z ; std::allocator<ioCustomTextureMgr::TrainExtraItem>::allocate
; Function compile flags: /Ogsp
; File c:\program files (x86)\microsoft visual studio 10.0\vc\include\xmemory
;	COMDAT ?allocate@?$allocator@UTrainExtraItem@ioCustomTextureMgr@@@std@@QAEPAUTrainExtraItem@ioCustomTextureMgr@@I@Z
_TEXT	SEGMENT
__Count$ = 8						; size = 4
?allocate@?$allocator@UTrainExtraItem@ioCustomTextureMgr@@@std@@QAEPAUTrainExtraItem@ioCustomTextureMgr@@I@Z PROC ; std::allocator<ioCustomTextureMgr::TrainExtraItem>::allocate, COMDAT
; _this$ = ecx

; 186  : 		{	// allocate array of _Count elements

  00000	55		 push	 ebp
  00001	8b ec		 mov	 ebp, esp

; 187  : 		return (_Allocate(_Count, (pointer)0));

  00003	6a 00		 push	 0
  00005	ff 75 08	 push	 DWORD PTR __Count$[ebp]
  00008	e8 00 00 00 00	 call	 ??$_Allocate@UTrainExtraItem@ioCustomTextureMgr@@@std@@YAPAUTrainExtraItem@ioCustomTextureMgr@@IPAU12@@Z ; std::_Allocate<ioCustomTextureMgr::TrainExtraItem>
  0000d	59		 pop	 ecx
  0000e	59		 pop	 ecx

; 188  : 		}

  0000f	5d		 pop	 ebp
  00010	c2 04 00	 ret	 4
?allocate@?$allocator@UTrainExtraItem@ioCustomTextureMgr@@@std@@QAEPAUTrainExtraItem@ioCustomTextureMgr@@I@Z ENDP ; std::allocator<ioCustomTextureMgr::TrainExtraItem>::allocate
_TEXT	ENDS
PUBLIC	__$ArrayPad$
PUBLIC	??$SetTitle_e@$06@ioINILoader@@QAEXAAY06$$CBD@Z	; ioINILoader::SetTitle_e<7>
EXTRN	__imp_?SetTitle@ioINILoader@@QAEXPBD@Z:PROC
EXTRN	___security_cookie:DWORD
; Function compile flags: /Ogsp
; File d:\lost saga for developer\youtube\tutorial\source\src\io3dengine\ioiniloader.h
;	COMDAT ??$SetTitle_e@$06@ioINILoader@@QAEXAAY06$$CBD@Z
_TEXT	SEGMENT
__t$ = -16						; size = 7
__$ArrayPad$ = -4					; size = 4
_t$ = 8							; size = 4
??$SetTitle_e@$06@ioINILoader@@QAEXAAY06$$CBD@Z PROC	; ioINILoader::SetTitle_e<7>, COMDAT
; _this$ = ecx

; 188  : 	{

  00000	55		 push	 ebp
  00001	8b ec		 mov	 ebp, esp
  00003	83 ec 10	 sub	 esp, 16			; 00000010H
  00006	a1 00 00 00 00	 mov	 eax, DWORD PTR ___security_cookie
  0000b	33 c5		 xor	 eax, ebp
  0000d	89 45 fc	 mov	 DWORD PTR __$ArrayPad$[ebp], eax
  00010	8b 45 08	 mov	 eax, DWORD PTR _t$[ebp]

; 189  : 		_ENCSTR(t, _t);

  00013	8a 10		 mov	 dl, BYTE PTR [eax]
  00015	56		 push	 esi
  00016	8b f1		 mov	 esi, ecx
  00018	84 d2		 test	 dl, dl
  0001a	0f 84 c0 00 00
	00		 je	 $LN96@SetTitle_e
  00020	80 f2 ed	 xor	 dl, -19			; ffffffedH
  00023	88 55 f0	 mov	 BYTE PTR __t$[ebp], dl
  00026	8a 50 01	 mov	 dl, BYTE PTR [eax+1]
  00029	84 d2		 test	 dl, dl
  0002b	0f 84 a9 00 00
	00		 je	 $LN95@SetTitle_e
  00031	80 f2 ec	 xor	 dl, -20			; ffffffecH
  00034	88 55 f1	 mov	 BYTE PTR __t$[ebp+1], dl
  00037	8a 50 02	 mov	 dl, BYTE PTR [eax+2]
  0003a	84 d2		 test	 dl, dl
  0003c	0f 84 92 00 00
	00		 je	 $LN94@SetTitle_e
  00042	80 f2 eb	 xor	 dl, -21			; ffffffebH
  00045	88 55 f2	 mov	 BYTE PTR __t$[ebp+2], dl
  00048	8a 50 03	 mov	 dl, BYTE PTR [eax+3]
  0004b	84 d2		 test	 dl, dl
  0004d	74 7f		 je	 SHORT $LN93@SetTitle_e
  0004f	80 f2 ea	 xor	 dl, -22			; ffffffeaH
  00052	88 55 f3	 mov	 BYTE PTR __t$[ebp+3], dl
  00055	8a 50 04	 mov	 dl, BYTE PTR [eax+4]
  00058	84 d2		 test	 dl, dl
  0005a	74 6c		 je	 SHORT $LN92@SetTitle_e
  0005c	80 f2 ed	 xor	 dl, -19			; ffffffedH
  0005f	88 55 f4	 mov	 BYTE PTR __t$[ebp+4], dl
  00062	8a 50 05	 mov	 dl, BYTE PTR [eax+5]
  00065	84 d2		 test	 dl, dl
  00067	74 59		 je	 SHORT $LN91@SetTitle_e
  00069	80 f2 ec	 xor	 dl, -20			; ffffffecH
  0006c	80 78 06 00	 cmp	 BYTE PTR [eax+6], 0
  00070	88 55 f5	 mov	 BYTE PTR __t$[ebp+5], dl
  00073	74 6f		 je	 SHORT $LN1@SetTitle_e
  00075	8a 50 07	 mov	 dl, BYTE PTR [eax+7]
  00078	84 d2		 test	 dl, dl
  0007a	74 40		 je	 SHORT $LN89@SetTitle_e
  0007c	80 f2 ea	 xor	 dl, -22			; ffffffeaH
  0007f	88 55 f7	 mov	 BYTE PTR __t$[ebp+7], dl
  00082	8a 50 08	 mov	 dl, BYTE PTR [eax+8]
  00085	84 d2		 test	 dl, dl
  00087	74 2d		 je	 SHORT $LN88@SetTitle_e
  00089	80 f2 ed	 xor	 dl, -19			; ffffffedH
  0008c	88 55 f8	 mov	 BYTE PTR __t$[ebp+8], dl
  0008f	8a 50 09	 mov	 dl, BYTE PTR [eax+9]
  00092	84 d2		 test	 dl, dl
  00094	74 1a		 je	 SHORT $LN87@SetTitle_e
  00096	8a 40 0a	 mov	 al, BYTE PTR [eax+10]
  00099	80 f2 ec	 xor	 dl, -20			; ffffffecH
  0009c	88 55 f9	 mov	 BYTE PTR __t$[ebp+9], dl
  0009f	84 c0		 test	 al, al
  000a1	74 07		 je	 SHORT $LN86@SetTitle_e
  000a3	34 eb		 xor	 al, -21			; ffffffebH
  000a5	88 45 fa	 mov	 BYTE PTR __t$[ebp+10], al
  000a8	eb 3a		 jmp	 SHORT $LN1@SetTitle_e
$LN86@SetTitle_e:
  000aa	c6 45 fa eb	 mov	 BYTE PTR __t$[ebp+10], -21 ; ffffffebH
  000ae	eb 34		 jmp	 SHORT $LN1@SetTitle_e
$LN87@SetTitle_e:
  000b0	c6 45 f9 ec	 mov	 BYTE PTR __t$[ebp+9], -20 ; ffffffecH
  000b4	eb 2e		 jmp	 SHORT $LN1@SetTitle_e
$LN88@SetTitle_e:
  000b6	c6 45 f8 ed	 mov	 BYTE PTR __t$[ebp+8], -19 ; ffffffedH
  000ba	eb 28		 jmp	 SHORT $LN1@SetTitle_e
$LN89@SetTitle_e:
  000bc	c6 45 f7 ea	 mov	 BYTE PTR __t$[ebp+7], -22 ; ffffffeaH
  000c0	eb 22		 jmp	 SHORT $LN1@SetTitle_e
$LN91@SetTitle_e:
  000c2	c6 45 f5 ec	 mov	 BYTE PTR __t$[ebp+5], -20 ; ffffffecH
  000c6	eb 1c		 jmp	 SHORT $LN1@SetTitle_e
$LN92@SetTitle_e:
  000c8	c6 45 f4 ed	 mov	 BYTE PTR __t$[ebp+4], -19 ; ffffffedH
  000cc	eb 16		 jmp	 SHORT $LN1@SetTitle_e
$LN93@SetTitle_e:
  000ce	c6 45 f3 ea	 mov	 BYTE PTR __t$[ebp+3], -22 ; ffffffeaH
  000d2	eb 10		 jmp	 SHORT $LN1@SetTitle_e
$LN94@SetTitle_e:
  000d4	c6 45 f2 eb	 mov	 BYTE PTR __t$[ebp+2], -21 ; ffffffebH
  000d8	eb 0a		 jmp	 SHORT $LN1@SetTitle_e
$LN95@SetTitle_e:
  000da	c6 45 f1 ec	 mov	 BYTE PTR __t$[ebp+1], -20 ; ffffffecH
  000de	eb 04		 jmp	 SHORT $LN1@SetTitle_e
$LN96@SetTitle_e:
  000e0	c6 45 f0 ed	 mov	 BYTE PTR __t$[ebp], -19	; ffffffedH
$LN1@SetTitle_e:
  000e4	81 75 f0 ed ec
	eb ea		 xor	 DWORD PTR __t$[ebp], -353637139 ; eaebecedH
  000eb	6a 04		 push	 4
  000ed	c6 45 f6 00	 mov	 BYTE PTR __t$[ebp+6], 0
  000f1	58		 pop	 eax
$LL101@SetTitle_e:
  000f2	8b c8		 mov	 ecx, eax
  000f4	81 e1 03 00 00
	80		 and	 ecx, -2147483645	; 80000003H
  000fa	79 05		 jns	 SHORT $LN111@SetTitle_e
  000fc	49		 dec	 ecx
  000fd	83 c9 fc	 or	 ecx, -4			; fffffffcH
  00100	41		 inc	 ecx
$LN111@SetTitle_e:
  00101	b2 ed		 mov	 dl, -19			; ffffffedH
  00103	2a d1		 sub	 dl, cl
  00105	30 54 05 f0	 xor	 BYTE PTR __t$[ebp+eax], dl
  00109	40		 inc	 eax
  0010a	83 f8 06	 cmp	 eax, 6
  0010d	7c e3		 jl	 SHORT $LL101@SetTitle_e

; 190  : 		SetTitle(_t);

  0010f	8d 45 f0	 lea	 eax, DWORD PTR __t$[ebp]
  00112	50		 push	 eax
  00113	8b ce		 mov	 ecx, esi
  00115	ff 15 00 00 00
	00		 call	 DWORD PTR __imp_?SetTitle@ioINILoader@@QAEXPBD@Z

; 191  : 	}

  0011b	8b 4d fc	 mov	 ecx, DWORD PTR __$ArrayPad$[ebp]
  0011e	33 cd		 xor	 ecx, ebp
  00120	5e		 pop	 esi
  00121	e8 00 00 00 00	 call	 @__security_check_cookie@4
  00126	c9		 leave
  00127	c2 04 00	 ret	 4
??$SetTitle_e@$06@ioINILoader@@QAEXAAY06$$CBD@Z ENDP	; ioINILoader::SetTitle_e<7>
_TEXT	ENDS
PUBLIC	_this$GSCopy$
PUBLIC	__$ArrayPad$
PUBLIC	??$LoadString_e@$0M@@ioINILoader@@QAEXAAY0M@$$CBDAAY00$$CBDPADH@Z ; ioINILoader::LoadString_e<12>
EXTRN	__imp_?LoadStringA@ioINILoader@@QAEXPBD0PADH@Z:PROC
; Function compile flags: /Ogsp
;	COMDAT ??$LoadString_e@$0M@@ioINILoader@@QAEXAAY0M@$$CBDAAY00$$CBDPADH@Z
_TEXT	SEGMENT
_this$GSCopy$ = -24					; size = 4
__k$ = -20						; size = 12
__$ArrayPad$ = -4					; size = 4
_k$ = 8							; size = 4
_d$ = 12						; size = 4
_b$ = 16						; size = 4
_i$ = 20						; size = 4
??$LoadString_e@$0M@@ioINILoader@@QAEXAAY0M@$$CBDAAY00$$CBDPADH@Z PROC ; ioINILoader::LoadString_e<12>, COMDAT
; _this$ = ecx

; 161  : 	{

  00000	55		 push	 ebp
  00001	8b ec		 mov	 ebp, esp
  00003	83 ec 18	 sub	 esp, 24			; 00000018H
  00006	a1 00 00 00 00	 mov	 eax, DWORD PTR ___security_cookie
  0000b	33 c5		 xor	 eax, ebp
  0000d	89 45 fc	 mov	 DWORD PTR __$ArrayPad$[ebp], eax
  00010	8b 45 08	 mov	 eax, DWORD PTR _k$[ebp]

; 162  : 		_ENCSTR(k, _k);

  00013	8a 10		 mov	 dl, BYTE PTR [eax]
  00015	56		 push	 esi
  00016	8b 75 0c	 mov	 esi, DWORD PTR _d$[ebp]
  00019	57		 push	 edi
  0001a	8b 7d 10	 mov	 edi, DWORD PTR _b$[ebp]
  0001d	89 4d e8	 mov	 DWORD PTR _this$GSCopy$[ebp], ecx
  00020	84 d2		 test	 dl, dl
  00022	0f 84 32 01 00
	00		 je	 $LN96@LoadString
  00028	80 f2 ed	 xor	 dl, -19			; ffffffedH
  0002b	88 55 ec	 mov	 BYTE PTR __k$[ebp], dl
  0002e	8a 50 01	 mov	 dl, BYTE PTR [eax+1]
  00031	84 d2		 test	 dl, dl
  00033	0f 84 1b 01 00
	00		 je	 $LN95@LoadString
  00039	80 f2 ec	 xor	 dl, -20			; ffffffecH
  0003c	88 55 ed	 mov	 BYTE PTR __k$[ebp+1], dl
  0003f	8a 50 02	 mov	 dl, BYTE PTR [eax+2]
  00042	84 d2		 test	 dl, dl
  00044	0f 84 04 01 00
	00		 je	 $LN94@LoadString
  0004a	b1 eb		 mov	 cl, -21			; ffffffebH
  0004c	32 d1		 xor	 dl, cl
  0004e	88 55 ee	 mov	 BYTE PTR __k$[ebp+2], dl
  00051	8a 50 03	 mov	 dl, BYTE PTR [eax+3]
  00054	84 d2		 test	 dl, dl
  00056	0f 84 ec 00 00
	00		 je	 $LN93@LoadString
  0005c	80 f2 ea	 xor	 dl, -22			; ffffffeaH
  0005f	88 55 ef	 mov	 BYTE PTR __k$[ebp+3], dl
  00062	8a 50 04	 mov	 dl, BYTE PTR [eax+4]
  00065	84 d2		 test	 dl, dl
  00067	0f 84 d5 00 00
	00		 je	 $LN92@LoadString
  0006d	80 f2 ed	 xor	 dl, -19			; ffffffedH
  00070	88 55 f0	 mov	 BYTE PTR __k$[ebp+4], dl
  00073	8a 50 05	 mov	 dl, BYTE PTR [eax+5]
  00076	84 d2		 test	 dl, dl
  00078	0f 84 be 00 00
	00		 je	 $LN91@LoadString
  0007e	80 f2 ec	 xor	 dl, -20			; ffffffecH
  00081	88 55 f1	 mov	 BYTE PTR __k$[ebp+5], dl
  00084	8a 50 06	 mov	 dl, BYTE PTR [eax+6]
  00087	84 d2		 test	 dl, dl
  00089	0f 84 a8 00 00
	00		 je	 $LN90@LoadString
  0008f	32 d1		 xor	 dl, cl
  00091	88 55 f2	 mov	 BYTE PTR __k$[ebp+6], dl
  00094	8a 50 07	 mov	 dl, BYTE PTR [eax+7]
  00097	84 d2		 test	 dl, dl
  00099	0f 84 92 00 00
	00		 je	 $LN89@LoadString
  0009f	80 f2 ea	 xor	 dl, -22			; ffffffeaH
  000a2	88 55 f3	 mov	 BYTE PTR __k$[ebp+7], dl
  000a5	8a 50 08	 mov	 dl, BYTE PTR [eax+8]
  000a8	84 d2		 test	 dl, dl
  000aa	74 7f		 je	 SHORT $LN88@LoadString
  000ac	80 f2 ed	 xor	 dl, -19			; ffffffedH
  000af	88 55 f4	 mov	 BYTE PTR __k$[ebp+8], dl
  000b2	8a 50 09	 mov	 dl, BYTE PTR [eax+9]
  000b5	84 d2		 test	 dl, dl
  000b7	74 6c		 je	 SHORT $LN87@LoadString
  000b9	80 f2 ec	 xor	 dl, -20			; ffffffecH
  000bc	88 55 f5	 mov	 BYTE PTR __k$[ebp+9], dl
  000bf	8a 50 0a	 mov	 dl, BYTE PTR [eax+10]
  000c2	84 d2		 test	 dl, dl
  000c4	74 5a		 je	 SHORT $LN86@LoadString
  000c6	32 d1		 xor	 dl, cl
  000c8	80 78 0b 00	 cmp	 BYTE PTR [eax+11], 0
  000cc	88 55 f6	 mov	 BYTE PTR __k$[ebp+10], dl
  000cf	0f 84 89 00 00
	00		 je	 $LN111@LoadString
  000d5	8a 50 0c	 mov	 dl, BYTE PTR [eax+12]
  000d8	84 d2		 test	 dl, dl
  000da	74 3e		 je	 SHORT $LN84@LoadString
  000dc	80 f2 ed	 xor	 dl, -19			; ffffffedH
  000df	88 55 f8	 mov	 BYTE PTR __k$[ebp+12], dl
  000e2	8a 50 0d	 mov	 dl, BYTE PTR [eax+13]
  000e5	84 d2		 test	 dl, dl
  000e7	74 2b		 je	 SHORT $LN83@LoadString
  000e9	80 f2 ec	 xor	 dl, -20			; ffffffecH
  000ec	88 55 f9	 mov	 BYTE PTR __k$[ebp+13], dl
  000ef	8a 50 0e	 mov	 dl, BYTE PTR [eax+14]
  000f2	84 d2		 test	 dl, dl
  000f4	74 19		 je	 SHORT $LN82@LoadString
  000f6	8a 40 0f	 mov	 al, BYTE PTR [eax+15]
  000f9	32 d1		 xor	 dl, cl
  000fb	88 55 fa	 mov	 BYTE PTR __k$[ebp+14], dl
  000fe	84 c0		 test	 al, al
  00100	74 07		 je	 SHORT $LN81@LoadString
  00102	34 ea		 xor	 al, -22			; ffffffeaH
  00104	88 45 fb	 mov	 BYTE PTR __k$[ebp+15], al
  00107	eb 55		 jmp	 SHORT $LN111@LoadString
$LN81@LoadString:
  00109	c6 45 fb ea	 mov	 BYTE PTR __k$[ebp+15], -22 ; ffffffeaH
  0010d	eb 4f		 jmp	 SHORT $LN111@LoadString
$LN82@LoadString:
  0010f	88 4d fa	 mov	 BYTE PTR __k$[ebp+14], cl
  00112	eb 4a		 jmp	 SHORT $LN111@LoadString
$LN83@LoadString:
  00114	c6 45 f9 ec	 mov	 BYTE PTR __k$[ebp+13], -20 ; ffffffecH
  00118	eb 44		 jmp	 SHORT $LN111@LoadString
$LN84@LoadString:
  0011a	c6 45 f8 ed	 mov	 BYTE PTR __k$[ebp+12], -19 ; ffffffedH
  0011e	eb 3e		 jmp	 SHORT $LN111@LoadString
$LN86@LoadString:
  00120	88 4d f6	 mov	 BYTE PTR __k$[ebp+10], cl
  00123	eb 39		 jmp	 SHORT $LN111@LoadString
$LN87@LoadString:
  00125	c6 45 f5 ec	 mov	 BYTE PTR __k$[ebp+9], -20 ; ffffffecH
  00129	eb 33		 jmp	 SHORT $LN111@LoadString
$LN88@LoadString:
  0012b	c6 45 f4 ed	 mov	 BYTE PTR __k$[ebp+8], -19 ; ffffffedH
  0012f	eb 2d		 jmp	 SHORT $LN111@LoadString
$LN89@LoadString:
  00131	c6 45 f3 ea	 mov	 BYTE PTR __k$[ebp+7], -22 ; ffffffeaH
  00135	eb 27		 jmp	 SHORT $LN111@LoadString
$LN90@LoadString:
  00137	88 4d f2	 mov	 BYTE PTR __k$[ebp+6], cl
  0013a	eb 22		 jmp	 SHORT $LN111@LoadString
$LN91@LoadString:
  0013c	c6 45 f1 ec	 mov	 BYTE PTR __k$[ebp+5], -20 ; ffffffecH
  00140	eb 1c		 jmp	 SHORT $LN111@LoadString
$LN92@LoadString:
  00142	c6 45 f0 ed	 mov	 BYTE PTR __k$[ebp+4], -19 ; ffffffedH
  00146	eb 16		 jmp	 SHORT $LN111@LoadString
$LN93@LoadString:
  00148	c6 45 ef ea	 mov	 BYTE PTR __k$[ebp+3], -22 ; ffffffeaH
  0014c	eb 10		 jmp	 SHORT $LN111@LoadString
$LN94@LoadString:
  0014e	c6 45 ee eb	 mov	 BYTE PTR __k$[ebp+2], -21 ; ffffffebH
  00152	eb 0a		 jmp	 SHORT $LN111@LoadString
$LN95@LoadString:
  00154	c6 45 ed ec	 mov	 BYTE PTR __k$[ebp+1], -20 ; ffffffecH
  00158	eb 04		 jmp	 SHORT $LN111@LoadString
$LN96@LoadString:
  0015a	c6 45 ec ed	 mov	 BYTE PTR __k$[ebp], -19	; ffffffedH
$LN111@LoadString:
  0015e	6a 02		 push	 2
  00160	8d 45 ec	 lea	 eax, DWORD PTR __k$[ebp]
  00163	c6 45 f7 00	 mov	 BYTE PTR __k$[ebp+11], 0
  00167	5a		 pop	 edx
$LL104@LoadString:
  00168	81 30 ed ec eb
	ea		 xor	 DWORD PTR [eax], -353637139 ; eaebecedH
  0016e	83 c0 04	 add	 eax, 4
  00171	4a		 dec	 edx
  00172	75 f4		 jne	 SHORT $LL104@LoadString
  00174	6a 08		 push	 8
  00176	58		 pop	 eax
$LL101@LoadString:
  00177	8b c8		 mov	 ecx, eax
  00179	81 e1 03 00 00
	80		 and	 ecx, -2147483645	; 80000003H
  0017f	79 05		 jns	 SHORT $LN112@LoadString
  00181	49		 dec	 ecx
  00182	83 c9 fc	 or	 ecx, -4			; fffffffcH
  00185	41		 inc	 ecx
$LN112@LoadString:
  00186	b2 ed		 mov	 dl, -19			; ffffffedH
  00188	2a d1		 sub	 dl, cl
  0018a	30 54 05 ec	 xor	 BYTE PTR __k$[ebp+eax], dl
  0018e	40		 inc	 eax
  0018f	83 f8 0b	 cmp	 eax, 11			; 0000000bH
  00192	7c e3		 jl	 SHORT $LL101@LoadString

; 163  : 		LoadString(_k, d, b, i);

  00194	ff 75 14	 push	 DWORD PTR _i$[ebp]
  00197	8b 4d e8	 mov	 ecx, DWORD PTR _this$GSCopy$[ebp]
  0019a	57		 push	 edi
  0019b	56		 push	 esi
  0019c	8d 45 ec	 lea	 eax, DWORD PTR __k$[ebp]
  0019f	50		 push	 eax
  001a0	ff 15 00 00 00
	00		 call	 DWORD PTR __imp_?LoadStringA@ioINILoader@@QAEXPBD0PADH@Z

; 164  : 	}

  001a6	8b 4d fc	 mov	 ecx, DWORD PTR __$ArrayPad$[ebp]
  001a9	5f		 pop	 edi
  001aa	33 cd		 xor	 ecx, ebp
  001ac	5e		 pop	 esi
  001ad	e8 00 00 00 00	 call	 @__security_check_cookie@4
  001b2	c9		 leave
  001b3	c2 10 00	 ret	 16			; 00000010H
??$LoadString_e@$0M@@ioINILoader@@QAEXAAY0M@$$CBDAAY00$$CBDPADH@Z ENDP ; ioINILoader::LoadString_e<12>
_TEXT	ENDS
PUBLIC	_this$GSCopy$
PUBLIC	__$ArrayPad$
PUBLIC	??$LoadString_e@$0BD@@ioINILoader@@QAEXAAY0BD@$$CBDAAY00$$CBDPADH@Z ; ioINILoader::LoadString_e<19>
; Function compile flags: /Ogsp
;	COMDAT ??$LoadString_e@$0BD@@ioINILoader@@QAEXAAY0BD@$$CBDAAY00$$CBDPADH@Z
_TEXT	SEGMENT
_this$GSCopy$ = -32					; size = 4
__k$ = -28						; size = 19
__$ArrayPad$ = -4					; size = 4
_k$ = 8							; size = 4
_d$ = 12						; size = 4
_b$ = 16						; size = 4
_i$ = 20						; size = 4
??$LoadString_e@$0BD@@ioINILoader@@QAEXAAY0BD@$$CBDAAY00$$CBDPADH@Z PROC ; ioINILoader::LoadString_e<19>, COMDAT
; _this$ = ecx

; 161  : 	{

  00000	55		 push	 ebp
  00001	8b ec		 mov	 ebp, esp
  00003	83 ec 20	 sub	 esp, 32			; 00000020H
  00006	a1 00 00 00 00	 mov	 eax, DWORD PTR ___security_cookie
  0000b	33 c5		 xor	 eax, ebp
  0000d	89 45 fc	 mov	 DWORD PTR __$ArrayPad$[ebp], eax
  00010	8b 45 08	 mov	 eax, DWORD PTR _k$[ebp]

; 162  : 		_ENCSTR(k, _k);

  00013	8a 10		 mov	 dl, BYTE PTR [eax]
  00015	56		 push	 esi
  00016	8b 75 0c	 mov	 esi, DWORD PTR _d$[ebp]
  00019	57		 push	 edi
  0001a	8b 7d 10	 mov	 edi, DWORD PTR _b$[ebp]
  0001d	89 4d e0	 mov	 DWORD PTR _this$GSCopy$[ebp], ecx
  00020	84 d2		 test	 dl, dl
  00022	0f 84 cf 01 00
	00		 je	 $LN96@LoadString@2
  00028	80 f2 ed	 xor	 dl, -19			; ffffffedH
  0002b	88 55 e4	 mov	 BYTE PTR __k$[ebp], dl
  0002e	8a 50 01	 mov	 dl, BYTE PTR [eax+1]
  00031	84 d2		 test	 dl, dl
  00033	0f 84 b8 01 00
	00		 je	 $LN95@LoadString@2
  00039	b1 ec		 mov	 cl, -20			; ffffffecH
  0003b	32 d1		 xor	 dl, cl
  0003d	88 55 e5	 mov	 BYTE PTR __k$[ebp+1], dl
  00040	8a 50 02	 mov	 dl, BYTE PTR [eax+2]
  00043	84 d2		 test	 dl, dl
  00045	0f 84 a0 01 00
	00		 je	 $LN94@LoadString@2
  0004b	80 f2 eb	 xor	 dl, -21			; ffffffebH
  0004e	88 55 e6	 mov	 BYTE PTR __k$[ebp+2], dl
  00051	8a 50 03	 mov	 dl, BYTE PTR [eax+3]
  00054	84 d2		 test	 dl, dl
  00056	0f 84 89 01 00
	00		 je	 $LN93@LoadString@2
  0005c	80 f2 ea	 xor	 dl, -22			; ffffffeaH
  0005f	88 55 e7	 mov	 BYTE PTR __k$[ebp+3], dl
  00062	8a 50 04	 mov	 dl, BYTE PTR [eax+4]
  00065	84 d2		 test	 dl, dl
  00067	0f 84 72 01 00
	00		 je	 $LN92@LoadString@2
  0006d	80 f2 ed	 xor	 dl, -19			; ffffffedH
  00070	88 55 e8	 mov	 BYTE PTR __k$[ebp+4], dl
  00073	8a 50 05	 mov	 dl, BYTE PTR [eax+5]
  00076	84 d2		 test	 dl, dl
  00078	0f 84 5c 01 00
	00		 je	 $LN91@LoadString@2
  0007e	32 d1		 xor	 dl, cl
  00080	88 55 e9	 mov	 BYTE PTR __k$[ebp+5], dl
  00083	8a 50 06	 mov	 dl, BYTE PTR [eax+6]
  00086	84 d2		 test	 dl, dl
  00088	0f 84 46 01 00
	00		 je	 $LN90@LoadString@2
  0008e	80 f2 eb	 xor	 dl, -21			; ffffffebH
  00091	88 55 ea	 mov	 BYTE PTR __k$[ebp+6], dl
  00094	8a 50 07	 mov	 dl, BYTE PTR [eax+7]
  00097	84 d2		 test	 dl, dl
  00099	0f 84 2f 01 00
	00		 je	 $LN89@LoadString@2
  0009f	80 f2 ea	 xor	 dl, -22			; ffffffeaH
  000a2	88 55 eb	 mov	 BYTE PTR __k$[ebp+7], dl
  000a5	8a 50 08	 mov	 dl, BYTE PTR [eax+8]
  000a8	84 d2		 test	 dl, dl
  000aa	0f 84 18 01 00
	00		 je	 $LN88@LoadString@2
  000b0	80 f2 ed	 xor	 dl, -19			; ffffffedH
  000b3	88 55 ec	 mov	 BYTE PTR __k$[ebp+8], dl
  000b6	8a 50 09	 mov	 dl, BYTE PTR [eax+9]
  000b9	84 d2		 test	 dl, dl
  000bb	0f 84 02 01 00
	00		 je	 $LN87@LoadString@2
  000c1	32 d1		 xor	 dl, cl
  000c3	88 55 ed	 mov	 BYTE PTR __k$[ebp+9], dl
  000c6	8a 50 0a	 mov	 dl, BYTE PTR [eax+10]
  000c9	84 d2		 test	 dl, dl
  000cb	0f 84 ec 00 00
	00		 je	 $LN86@LoadString@2
  000d1	80 f2 eb	 xor	 dl, -21			; ffffffebH
  000d4	88 55 ee	 mov	 BYTE PTR __k$[ebp+10], dl
  000d7	8a 50 0b	 mov	 dl, BYTE PTR [eax+11]
  000da	84 d2		 test	 dl, dl
  000dc	0f 84 d5 00 00
	00		 je	 $LN85@LoadString@2
  000e2	80 f2 ea	 xor	 dl, -22			; ffffffeaH
  000e5	88 55 ef	 mov	 BYTE PTR __k$[ebp+11], dl
  000e8	8a 50 0c	 mov	 dl, BYTE PTR [eax+12]
  000eb	84 d2		 test	 dl, dl
  000ed	0f 84 be 00 00
	00		 je	 $LN84@LoadString@2
  000f3	80 f2 ed	 xor	 dl, -19			; ffffffedH
  000f6	88 55 f0	 mov	 BYTE PTR __k$[ebp+12], dl
  000f9	8a 50 0d	 mov	 dl, BYTE PTR [eax+13]
  000fc	84 d2		 test	 dl, dl
  000fe	0f 84 a8 00 00
	00		 je	 $LN83@LoadString@2
  00104	32 d1		 xor	 dl, cl
  00106	88 55 f1	 mov	 BYTE PTR __k$[ebp+13], dl
  00109	8a 50 0e	 mov	 dl, BYTE PTR [eax+14]
  0010c	84 d2		 test	 dl, dl
  0010e	0f 84 92 00 00
	00		 je	 $LN82@LoadString@2
  00114	80 f2 eb	 xor	 dl, -21			; ffffffebH
  00117	88 55 f2	 mov	 BYTE PTR __k$[ebp+14], dl
  0011a	8a 50 0f	 mov	 dl, BYTE PTR [eax+15]
  0011d	84 d2		 test	 dl, dl
  0011f	74 7f		 je	 SHORT $LN81@LoadString@2
  00121	80 f2 ea	 xor	 dl, -22			; ffffffeaH
  00124	88 55 f3	 mov	 BYTE PTR __k$[ebp+15], dl
  00127	8a 50 10	 mov	 dl, BYTE PTR [eax+16]
  0012a	84 d2		 test	 dl, dl
  0012c	74 6c		 je	 SHORT $LN80@LoadString@2
  0012e	80 f2 ed	 xor	 dl, -19			; ffffffedH
  00131	88 55 f4	 mov	 BYTE PTR __k$[ebp+16], dl
  00134	8a 50 11	 mov	 dl, BYTE PTR [eax+17]
  00137	84 d2		 test	 dl, dl
  00139	74 5a		 je	 SHORT $LN79@LoadString@2
  0013b	32 d1		 xor	 dl, cl
  0013d	80 78 12 00	 cmp	 BYTE PTR [eax+18], 0
  00141	88 55 f5	 mov	 BYTE PTR __k$[ebp+17], dl
  00144	0f 84 b1 00 00
	00		 je	 $LN111@LoadString@2
  0014a	8a 50 13	 mov	 dl, BYTE PTR [eax+19]
  0014d	84 d2		 test	 dl, dl
  0014f	74 3e		 je	 SHORT $LN77@LoadString@2
  00151	80 f2 ea	 xor	 dl, -22			; ffffffeaH
  00154	88 55 f7	 mov	 BYTE PTR __k$[ebp+19], dl
  00157	8a 50 14	 mov	 dl, BYTE PTR [eax+20]
  0015a	84 d2		 test	 dl, dl
  0015c	74 2b		 je	 SHORT $LN76@LoadString@2
  0015e	80 f2 ed	 xor	 dl, -19			; ffffffedH
  00161	88 55 f8	 mov	 BYTE PTR __k$[ebp+20], dl
  00164	8a 50 15	 mov	 dl, BYTE PTR [eax+21]
  00167	84 d2		 test	 dl, dl
  00169	74 19		 je	 SHORT $LN75@LoadString@2
  0016b	8a 40 16	 mov	 al, BYTE PTR [eax+22]
  0016e	32 d1		 xor	 dl, cl
  00170	88 55 f9	 mov	 BYTE PTR __k$[ebp+21], dl
  00173	84 c0		 test	 al, al
  00175	74 07		 je	 SHORT $LN74@LoadString@2
  00177	34 eb		 xor	 al, -21			; ffffffebH
  00179	88 45 fa	 mov	 BYTE PTR __k$[ebp+22], al
  0017c	eb 7d		 jmp	 SHORT $LN111@LoadString@2
$LN74@LoadString@2:
  0017e	c6 45 fa eb	 mov	 BYTE PTR __k$[ebp+22], -21 ; ffffffebH
  00182	eb 77		 jmp	 SHORT $LN111@LoadString@2
$LN75@LoadString@2:
  00184	88 4d f9	 mov	 BYTE PTR __k$[ebp+21], cl
  00187	eb 72		 jmp	 SHORT $LN111@LoadString@2
$LN76@LoadString@2:
  00189	c6 45 f8 ed	 mov	 BYTE PTR __k$[ebp+20], -19 ; ffffffedH
  0018d	eb 6c		 jmp	 SHORT $LN111@LoadString@2
$LN77@LoadString@2:
  0018f	c6 45 f7 ea	 mov	 BYTE PTR __k$[ebp+19], -22 ; ffffffeaH
  00193	eb 66		 jmp	 SHORT $LN111@LoadString@2
$LN79@LoadString@2:
  00195	88 4d f5	 mov	 BYTE PTR __k$[ebp+17], cl
  00198	eb 61		 jmp	 SHORT $LN111@LoadString@2
$LN80@LoadString@2:
  0019a	c6 45 f4 ed	 mov	 BYTE PTR __k$[ebp+16], -19 ; ffffffedH
  0019e	eb 5b		 jmp	 SHORT $LN111@LoadString@2
$LN81@LoadString@2:
  001a0	c6 45 f3 ea	 mov	 BYTE PTR __k$[ebp+15], -22 ; ffffffeaH
  001a4	eb 55		 jmp	 SHORT $LN111@LoadString@2
$LN82@LoadString@2:
  001a6	c6 45 f2 eb	 mov	 BYTE PTR __k$[ebp+14], -21 ; ffffffebH
  001aa	eb 4f		 jmp	 SHORT $LN111@LoadString@2
$LN83@LoadString@2:
  001ac	88 4d f1	 mov	 BYTE PTR __k$[ebp+13], cl
  001af	eb 4a		 jmp	 SHORT $LN111@LoadString@2
$LN84@LoadString@2:
  001b1	c6 45 f0 ed	 mov	 BYTE PTR __k$[ebp+12], -19 ; ffffffedH
  001b5	eb 44		 jmp	 SHORT $LN111@LoadString@2
$LN85@LoadString@2:
  001b7	c6 45 ef ea	 mov	 BYTE PTR __k$[ebp+11], -22 ; ffffffeaH
  001bb	eb 3e		 jmp	 SHORT $LN111@LoadString@2
$LN86@LoadString@2:
  001bd	c6 45 ee eb	 mov	 BYTE PTR __k$[ebp+10], -21 ; ffffffebH
  001c1	eb 38		 jmp	 SHORT $LN111@LoadString@2
$LN87@LoadString@2:
  001c3	88 4d ed	 mov	 BYTE PTR __k$[ebp+9], cl
  001c6	eb 33		 jmp	 SHORT $LN111@LoadString@2
$LN88@LoadString@2:
  001c8	c6 45 ec ed	 mov	 BYTE PTR __k$[ebp+8], -19 ; ffffffedH
  001cc	eb 2d		 jmp	 SHORT $LN111@LoadString@2
$LN89@LoadString@2:
  001ce	c6 45 eb ea	 mov	 BYTE PTR __k$[ebp+7], -22 ; ffffffeaH
  001d2	eb 27		 jmp	 SHORT $LN111@LoadString@2
$LN90@LoadString@2:
  001d4	c6 45 ea eb	 mov	 BYTE PTR __k$[ebp+6], -21 ; ffffffebH
  001d8	eb 21		 jmp	 SHORT $LN111@LoadString@2
$LN91@LoadString@2:
  001da	88 4d e9	 mov	 BYTE PTR __k$[ebp+5], cl
  001dd	eb 1c		 jmp	 SHORT $LN111@LoadString@2
$LN92@LoadString@2:
  001df	c6 45 e8 ed	 mov	 BYTE PTR __k$[ebp+4], -19 ; ffffffedH
  001e3	eb 16		 jmp	 SHORT $LN111@LoadString@2
$LN93@LoadString@2:
  001e5	c6 45 e7 ea	 mov	 BYTE PTR __k$[ebp+3], -22 ; ffffffeaH
  001e9	eb 10		 jmp	 SHORT $LN111@LoadString@2
$LN94@LoadString@2:
  001eb	c6 45 e6 eb	 mov	 BYTE PTR __k$[ebp+2], -21 ; ffffffebH
  001ef	eb 0a		 jmp	 SHORT $LN111@LoadString@2
$LN95@LoadString@2:
  001f1	c6 45 e5 ec	 mov	 BYTE PTR __k$[ebp+1], -20 ; ffffffecH
  001f5	eb 04		 jmp	 SHORT $LN111@LoadString@2
$LN96@LoadString@2:
  001f7	c6 45 e4 ed	 mov	 BYTE PTR __k$[ebp], -19	; ffffffedH
$LN111@LoadString@2:
  001fb	6a 04		 push	 4
  001fd	8d 45 e4	 lea	 eax, DWORD PTR __k$[ebp]
  00200	c6 45 f6 00	 mov	 BYTE PTR __k$[ebp+18], 0
  00204	5a		 pop	 edx
$LL104@LoadString@2:
  00205	81 30 ed ec eb
	ea		 xor	 DWORD PTR [eax], -353637139 ; eaebecedH
  0020b	83 c0 04	 add	 eax, 4
  0020e	4a		 dec	 edx
  0020f	75 f4		 jne	 SHORT $LL104@LoadString@2
  00211	6a 10		 push	 16			; 00000010H
  00213	58		 pop	 eax
$LL101@LoadString@2:
  00214	8b c8		 mov	 ecx, eax
  00216	81 e1 03 00 00
	80		 and	 ecx, -2147483645	; 80000003H
  0021c	79 05		 jns	 SHORT $LN112@LoadString@2
  0021e	49		 dec	 ecx
  0021f	83 c9 fc	 or	 ecx, -4			; fffffffcH
  00222	41		 inc	 ecx
$LN112@LoadString@2:
  00223	b2 ed		 mov	 dl, -19			; ffffffedH
  00225	2a d1		 sub	 dl, cl
  00227	30 54 05 e4	 xor	 BYTE PTR __k$[ebp+eax], dl
  0022b	40		 inc	 eax
  0022c	83 f8 12	 cmp	 eax, 18			; 00000012H
  0022f	7c e3		 jl	 SHORT $LL101@LoadString@2

; 163  : 		LoadString(_k, d, b, i);

  00231	ff 75 14	 push	 DWORD PTR _i$[ebp]
  00234	8b 4d e0	 mov	 ecx, DWORD PTR _this$GSCopy$[ebp]
  00237	57		 push	 edi
  00238	56		 push	 esi
  00239	8d 45 e4	 lea	 eax, DWORD PTR __k$[ebp]
  0023c	50		 push	 eax
  0023d	ff 15 00 00 00
	00		 call	 DWORD PTR __imp_?LoadStringA@ioINILoader@@QAEXPBD0PADH@Z

; 164  : 	}

  00243	8b 4d fc	 mov	 ecx, DWORD PTR __$ArrayPad$[ebp]
  00246	5f		 pop	 edi
  00247	33 cd		 xor	 ecx, ebp
  00249	5e		 pop	 esi
  0024a	e8 00 00 00 00	 call	 @__security_check_cookie@4
  0024f	c9		 leave
  00250	c2 10 00	 ret	 16			; 00000010H
??$LoadString_e@$0BD@@ioINILoader@@QAEXAAY0BD@$$CBDAAY00$$CBDPADH@Z ENDP ; ioINILoader::LoadString_e<19>
_TEXT	ENDS
PUBLIC	__$ArrayPad$
PUBLIC	??$SetTitle_e@$0L@@ioINILoader@@QAEXAAY0L@$$CBD@Z ; ioINILoader::SetTitle_e<11>
; Function compile flags: /Ogsp
;	COMDAT ??$SetTitle_e@$0L@@ioINILoader@@QAEXAAY0L@$$CBD@Z
_TEXT	SEGMENT
__t$ = -20						; size = 11
__$ArrayPad$ = -4					; size = 4
_t$ = 8							; size = 4
??$SetTitle_e@$0L@@ioINILoader@@QAEXAAY0L@$$CBD@Z PROC	; ioINILoader::SetTitle_e<11>, COMDAT
; _this$ = ecx

; 188  : 	{

  00000	55		 push	 ebp
  00001	8b ec		 mov	 ebp, esp
  00003	83 ec 14	 sub	 esp, 20			; 00000014H
  00006	a1 00 00 00 00	 mov	 eax, DWORD PTR ___security_cookie
  0000b	33 c5		 xor	 eax, ebp
  0000d	89 45 fc	 mov	 DWORD PTR __$ArrayPad$[ebp], eax
  00010	8b 45 08	 mov	 eax, DWORD PTR _t$[ebp]

; 189  : 		_ENCSTR(t, _t);

  00013	8a 10		 mov	 dl, BYTE PTR [eax]
  00015	56		 push	 esi
  00016	8b f1		 mov	 esi, ecx
  00018	84 d2		 test	 dl, dl
  0001a	0f 84 24 01 00
	00		 je	 $LN96@SetTitle_e@2
  00020	80 f2 ed	 xor	 dl, -19			; ffffffedH
  00023	88 55 ec	 mov	 BYTE PTR __t$[ebp], dl
  00026	8a 50 01	 mov	 dl, BYTE PTR [eax+1]
  00029	84 d2		 test	 dl, dl
  0002b	0f 84 0d 01 00
	00		 je	 $LN95@SetTitle_e@2
  00031	80 f2 ec	 xor	 dl, -20			; ffffffecH
  00034	88 55 ed	 mov	 BYTE PTR __t$[ebp+1], dl
  00037	8a 50 02	 mov	 dl, BYTE PTR [eax+2]
  0003a	84 d2		 test	 dl, dl
  0003c	0f 84 f6 00 00
	00		 je	 $LN94@SetTitle_e@2
  00042	80 f2 eb	 xor	 dl, -21			; ffffffebH
  00045	88 55 ee	 mov	 BYTE PTR __t$[ebp+2], dl
  00048	8a 50 03	 mov	 dl, BYTE PTR [eax+3]
  0004b	84 d2		 test	 dl, dl
  0004d	0f 84 df 00 00
	00		 je	 $LN93@SetTitle_e@2
  00053	80 f2 ea	 xor	 dl, -22			; ffffffeaH
  00056	88 55 ef	 mov	 BYTE PTR __t$[ebp+3], dl
  00059	8a 50 04	 mov	 dl, BYTE PTR [eax+4]
  0005c	84 d2		 test	 dl, dl
  0005e	0f 84 c8 00 00
	00		 je	 $LN92@SetTitle_e@2
  00064	80 f2 ed	 xor	 dl, -19			; ffffffedH
  00067	88 55 f0	 mov	 BYTE PTR __t$[ebp+4], dl
  0006a	8a 50 05	 mov	 dl, BYTE PTR [eax+5]
  0006d	84 d2		 test	 dl, dl
  0006f	0f 84 b1 00 00
	00		 je	 $LN91@SetTitle_e@2
  00075	80 f2 ec	 xor	 dl, -20			; ffffffecH
  00078	88 55 f1	 mov	 BYTE PTR __t$[ebp+5], dl
  0007b	8a 50 06	 mov	 dl, BYTE PTR [eax+6]
  0007e	84 d2		 test	 dl, dl
  00080	0f 84 9a 00 00
	00		 je	 $LN90@SetTitle_e@2
  00086	80 f2 eb	 xor	 dl, -21			; ffffffebH
  00089	88 55 f2	 mov	 BYTE PTR __t$[ebp+6], dl
  0008c	8a 50 07	 mov	 dl, BYTE PTR [eax+7]
  0008f	84 d2		 test	 dl, dl
  00091	0f 84 83 00 00
	00		 je	 $LN89@SetTitle_e@2
  00097	80 f2 ea	 xor	 dl, -22			; ffffffeaH
  0009a	88 55 f3	 mov	 BYTE PTR __t$[ebp+7], dl
  0009d	8a 50 08	 mov	 dl, BYTE PTR [eax+8]
  000a0	84 d2		 test	 dl, dl
  000a2	74 70		 je	 SHORT $LN88@SetTitle_e@2
  000a4	80 f2 ed	 xor	 dl, -19			; ffffffedH
  000a7	88 55 f4	 mov	 BYTE PTR __t$[ebp+8], dl
  000aa	8a 50 09	 mov	 dl, BYTE PTR [eax+9]
  000ad	84 d2		 test	 dl, dl
  000af	74 5d		 je	 SHORT $LN87@SetTitle_e@2
  000b1	80 f2 ec	 xor	 dl, -20			; ffffffecH
  000b4	80 78 0a 00	 cmp	 BYTE PTR [eax+10], 0
  000b8	88 55 f5	 mov	 BYTE PTR __t$[ebp+9], dl
  000bb	0f 84 87 00 00
	00		 je	 $LN1@SetTitle_e@2
  000c1	8a 50 0b	 mov	 dl, BYTE PTR [eax+11]
  000c4	84 d2		 test	 dl, dl
  000c6	74 40		 je	 SHORT $LN85@SetTitle_e@2
  000c8	80 f2 ea	 xor	 dl, -22			; ffffffeaH
  000cb	88 55 f7	 mov	 BYTE PTR __t$[ebp+11], dl
  000ce	8a 50 0c	 mov	 dl, BYTE PTR [eax+12]
  000d1	84 d2		 test	 dl, dl
  000d3	74 2d		 je	 SHORT $LN84@SetTitle_e@2
  000d5	80 f2 ed	 xor	 dl, -19			; ffffffedH
  000d8	88 55 f8	 mov	 BYTE PTR __t$[ebp+12], dl
  000db	8a 50 0d	 mov	 dl, BYTE PTR [eax+13]
  000de	84 d2		 test	 dl, dl
  000e0	74 1a		 je	 SHORT $LN83@SetTitle_e@2
  000e2	8a 40 0e	 mov	 al, BYTE PTR [eax+14]
  000e5	80 f2 ec	 xor	 dl, -20			; ffffffecH
  000e8	88 55 f9	 mov	 BYTE PTR __t$[ebp+13], dl
  000eb	84 c0		 test	 al, al
  000ed	74 07		 je	 SHORT $LN82@SetTitle_e@2
  000ef	34 eb		 xor	 al, -21			; ffffffebH
  000f1	88 45 fa	 mov	 BYTE PTR __t$[ebp+14], al
  000f4	eb 52		 jmp	 SHORT $LN1@SetTitle_e@2
$LN82@SetTitle_e@2:
  000f6	c6 45 fa eb	 mov	 BYTE PTR __t$[ebp+14], -21 ; ffffffebH
  000fa	eb 4c		 jmp	 SHORT $LN1@SetTitle_e@2
$LN83@SetTitle_e@2:
  000fc	c6 45 f9 ec	 mov	 BYTE PTR __t$[ebp+13], -20 ; ffffffecH
  00100	eb 46		 jmp	 SHORT $LN1@SetTitle_e@2
$LN84@SetTitle_e@2:
  00102	c6 45 f8 ed	 mov	 BYTE PTR __t$[ebp+12], -19 ; ffffffedH
  00106	eb 40		 jmp	 SHORT $LN1@SetTitle_e@2
$LN85@SetTitle_e@2:
  00108	c6 45 f7 ea	 mov	 BYTE PTR __t$[ebp+11], -22 ; ffffffeaH
  0010c	eb 3a		 jmp	 SHORT $LN1@SetTitle_e@2
$LN87@SetTitle_e@2:
  0010e	c6 45 f5 ec	 mov	 BYTE PTR __t$[ebp+9], -20 ; ffffffecH
  00112	eb 34		 jmp	 SHORT $LN1@SetTitle_e@2
$LN88@SetTitle_e@2:
  00114	c6 45 f4 ed	 mov	 BYTE PTR __t$[ebp+8], -19 ; ffffffedH
  00118	eb 2e		 jmp	 SHORT $LN1@SetTitle_e@2
$LN89@SetTitle_e@2:
  0011a	c6 45 f3 ea	 mov	 BYTE PTR __t$[ebp+7], -22 ; ffffffeaH
  0011e	eb 28		 jmp	 SHORT $LN1@SetTitle_e@2
$LN90@SetTitle_e@2:
  00120	c6 45 f2 eb	 mov	 BYTE PTR __t$[ebp+6], -21 ; ffffffebH
  00124	eb 22		 jmp	 SHORT $LN1@SetTitle_e@2
$LN91@SetTitle_e@2:
  00126	c6 45 f1 ec	 mov	 BYTE PTR __t$[ebp+5], -20 ; ffffffecH
  0012a	eb 1c		 jmp	 SHORT $LN1@SetTitle_e@2
$LN92@SetTitle_e@2:
  0012c	c6 45 f0 ed	 mov	 BYTE PTR __t$[ebp+4], -19 ; ffffffedH
  00130	eb 16		 jmp	 SHORT $LN1@SetTitle_e@2
$LN93@SetTitle_e@2:
  00132	c6 45 ef ea	 mov	 BYTE PTR __t$[ebp+3], -22 ; ffffffeaH
  00136	eb 10		 jmp	 SHORT $LN1@SetTitle_e@2
$LN94@SetTitle_e@2:
  00138	c6 45 ee eb	 mov	 BYTE PTR __t$[ebp+2], -21 ; ffffffebH
  0013c	eb 0a		 jmp	 SHORT $LN1@SetTitle_e@2
$LN95@SetTitle_e@2:
  0013e	c6 45 ed ec	 mov	 BYTE PTR __t$[ebp+1], -20 ; ffffffecH
  00142	eb 04		 jmp	 SHORT $LN1@SetTitle_e@2
$LN96@SetTitle_e@2:
  00144	c6 45 ec ed	 mov	 BYTE PTR __t$[ebp], -19	; ffffffedH
$LN1@SetTitle_e@2:
  00148	6a 02		 push	 2
  0014a	8d 45 ec	 lea	 eax, DWORD PTR __t$[ebp]
  0014d	c6 45 f6 00	 mov	 BYTE PTR __t$[ebp+10], 0
  00151	5a		 pop	 edx
$LL104@SetTitle_e@2:
  00152	81 30 ed ec eb
	ea		 xor	 DWORD PTR [eax], -353637139 ; eaebecedH
  00158	83 c0 04	 add	 eax, 4
  0015b	4a		 dec	 edx
  0015c	75 f4		 jne	 SHORT $LL104@SetTitle_e@2
  0015e	6a 08		 push	 8
  00160	58		 pop	 eax
$LL101@SetTitle_e@2:
  00161	8b c8		 mov	 ecx, eax
  00163	81 e1 03 00 00
	80		 and	 ecx, -2147483645	; 80000003H
  00169	79 05		 jns	 SHORT $LN111@SetTitle_e@2
  0016b	49		 dec	 ecx
  0016c	83 c9 fc	 or	 ecx, -4			; fffffffcH
  0016f	41		 inc	 ecx
$LN111@SetTitle_e@2:
  00170	b2 ed		 mov	 dl, -19			; ffffffedH
  00172	2a d1		 sub	 dl, cl
  00174	30 54 05 ec	 xor	 BYTE PTR __t$[ebp+eax], dl
  00178	40		 inc	 eax
  00179	83 f8 0a	 cmp	 eax, 10			; 0000000aH
  0017c	7c e3		 jl	 SHORT $LL101@SetTitle_e@2

; 190  : 		SetTitle(_t);

  0017e	8d 45 ec	 lea	 eax, DWORD PTR __t$[ebp]
  00181	50		 push	 eax
  00182	8b ce		 mov	 ecx, esi
  00184	ff 15 00 00 00
	00		 call	 DWORD PTR __imp_?SetTitle@ioINILoader@@QAEXPBD@Z

; 191  : 	}

  0018a	8b 4d fc	 mov	 ecx, DWORD PTR __$ArrayPad$[ebp]
  0018d	33 cd		 xor	 ecx, ebp
  0018f	5e		 pop	 esi
  00190	e8 00 00 00 00	 call	 @__security_check_cookie@4
  00195	c9		 leave
  00196	c2 04 00	 ret	 4
??$SetTitle_e@$0L@@ioINILoader@@QAEXAAY0L@$$CBD@Z ENDP	; ioINILoader::SetTitle_e<11>
_TEXT	ENDS
PUBLIC	__$ArrayPad$
PUBLIC	??$LoadInt_e@$08@ioINILoader@@QAEHAAY08$$CBDH@Z	; ioINILoader::LoadInt_e<9>
EXTRN	__imp_?LoadInt@ioINILoader@@QAEHPBDH@Z:PROC
; Function compile flags: /Ogsp
;	COMDAT ??$LoadInt_e@$08@ioINILoader@@QAEHAAY08$$CBDH@Z
_TEXT	SEGMENT
__k$ = -20						; size = 9
__$ArrayPad$ = -4					; size = 4
_k$ = 8							; size = 4
_i$ = 12						; size = 4
??$LoadInt_e@$08@ioINILoader@@QAEHAAY08$$CBDH@Z PROC	; ioINILoader::LoadInt_e<9>, COMDAT
; _this$ = ecx

; 118  : 	{

  00000	55		 push	 ebp
  00001	8b ec		 mov	 ebp, esp
  00003	83 ec 14	 sub	 esp, 20			; 00000014H
  00006	a1 00 00 00 00	 mov	 eax, DWORD PTR ___security_cookie
  0000b	33 c5		 xor	 eax, ebp
  0000d	89 45 fc	 mov	 DWORD PTR __$ArrayPad$[ebp], eax
  00010	8b 45 08	 mov	 eax, DWORD PTR _k$[ebp]

; 119  : 		_ENCSTR(k, _k);

  00013	8a 10		 mov	 dl, BYTE PTR [eax]
  00015	84 d2		 test	 dl, dl
  00017	0f 84 ee 00 00
	00		 je	 $LN96@LoadInt_e
  0001d	80 f2 ed	 xor	 dl, -19			; ffffffedH
  00020	88 55 ec	 mov	 BYTE PTR __k$[ebp], dl
  00023	8a 50 01	 mov	 dl, BYTE PTR [eax+1]
  00026	84 d2		 test	 dl, dl
  00028	0f 84 d7 00 00
	00		 je	 $LN95@LoadInt_e
  0002e	80 f2 ec	 xor	 dl, -20			; ffffffecH
  00031	88 55 ed	 mov	 BYTE PTR __k$[ebp+1], dl
  00034	8a 50 02	 mov	 dl, BYTE PTR [eax+2]
  00037	84 d2		 test	 dl, dl
  00039	0f 84 c0 00 00
	00		 je	 $LN94@LoadInt_e
  0003f	80 f2 eb	 xor	 dl, -21			; ffffffebH
  00042	88 55 ee	 mov	 BYTE PTR __k$[ebp+2], dl
  00045	8a 50 03	 mov	 dl, BYTE PTR [eax+3]
  00048	84 d2		 test	 dl, dl
  0004a	0f 84 a9 00 00
	00		 je	 $LN93@LoadInt_e
  00050	80 f2 ea	 xor	 dl, -22			; ffffffeaH
  00053	88 55 ef	 mov	 BYTE PTR __k$[ebp+3], dl
  00056	8a 50 04	 mov	 dl, BYTE PTR [eax+4]
  00059	84 d2		 test	 dl, dl
  0005b	0f 84 92 00 00
	00		 je	 $LN92@LoadInt_e
  00061	80 f2 ed	 xor	 dl, -19			; ffffffedH
  00064	88 55 f0	 mov	 BYTE PTR __k$[ebp+4], dl
  00067	8a 50 05	 mov	 dl, BYTE PTR [eax+5]
  0006a	84 d2		 test	 dl, dl
  0006c	74 7f		 je	 SHORT $LN91@LoadInt_e
  0006e	80 f2 ec	 xor	 dl, -20			; ffffffecH
  00071	88 55 f1	 mov	 BYTE PTR __k$[ebp+5], dl
  00074	8a 50 06	 mov	 dl, BYTE PTR [eax+6]
  00077	84 d2		 test	 dl, dl
  00079	74 6c		 je	 SHORT $LN90@LoadInt_e
  0007b	80 f2 eb	 xor	 dl, -21			; ffffffebH
  0007e	88 55 f2	 mov	 BYTE PTR __k$[ebp+6], dl
  00081	8a 50 07	 mov	 dl, BYTE PTR [eax+7]
  00084	84 d2		 test	 dl, dl
  00086	74 59		 je	 SHORT $LN89@LoadInt_e
  00088	80 f2 ea	 xor	 dl, -22			; ffffffeaH
  0008b	80 78 08 00	 cmp	 BYTE PTR [eax+8], 0
  0008f	88 55 f3	 mov	 BYTE PTR __k$[ebp+7], dl
  00092	74 7b		 je	 SHORT $LN1@LoadInt_e
  00094	8a 50 09	 mov	 dl, BYTE PTR [eax+9]
  00097	84 d2		 test	 dl, dl
  00099	74 40		 je	 SHORT $LN87@LoadInt_e
  0009b	80 f2 ec	 xor	 dl, -20			; ffffffecH
  0009e	88 55 f5	 mov	 BYTE PTR __k$[ebp+9], dl
  000a1	8a 50 0a	 mov	 dl, BYTE PTR [eax+10]
  000a4	84 d2		 test	 dl, dl
  000a6	74 2d		 je	 SHORT $LN86@LoadInt_e
  000a8	80 f2 eb	 xor	 dl, -21			; ffffffebH
  000ab	88 55 f6	 mov	 BYTE PTR __k$[ebp+10], dl
  000ae	8a 50 0b	 mov	 dl, BYTE PTR [eax+11]
  000b1	84 d2		 test	 dl, dl
  000b3	74 1a		 je	 SHORT $LN85@LoadInt_e
  000b5	8a 40 0c	 mov	 al, BYTE PTR [eax+12]
  000b8	80 f2 ea	 xor	 dl, -22			; ffffffeaH
  000bb	88 55 f7	 mov	 BYTE PTR __k$[ebp+11], dl
  000be	84 c0		 test	 al, al
  000c0	74 07		 je	 SHORT $LN84@LoadInt_e
  000c2	34 ed		 xor	 al, -19			; ffffffedH
  000c4	88 45 f8	 mov	 BYTE PTR __k$[ebp+12], al
  000c7	eb 46		 jmp	 SHORT $LN1@LoadInt_e
$LN84@LoadInt_e:
  000c9	c6 45 f8 ed	 mov	 BYTE PTR __k$[ebp+12], -19 ; ffffffedH
  000cd	eb 40		 jmp	 SHORT $LN1@LoadInt_e
$LN85@LoadInt_e:
  000cf	c6 45 f7 ea	 mov	 BYTE PTR __k$[ebp+11], -22 ; ffffffeaH
  000d3	eb 3a		 jmp	 SHORT $LN1@LoadInt_e
$LN86@LoadInt_e:
  000d5	c6 45 f6 eb	 mov	 BYTE PTR __k$[ebp+10], -21 ; ffffffebH
  000d9	eb 34		 jmp	 SHORT $LN1@LoadInt_e
$LN87@LoadInt_e:
  000db	c6 45 f5 ec	 mov	 BYTE PTR __k$[ebp+9], -20 ; ffffffecH
  000df	eb 2e		 jmp	 SHORT $LN1@LoadInt_e
$LN89@LoadInt_e:
  000e1	c6 45 f3 ea	 mov	 BYTE PTR __k$[ebp+7], -22 ; ffffffeaH
  000e5	eb 28		 jmp	 SHORT $LN1@LoadInt_e
$LN90@LoadInt_e:
  000e7	c6 45 f2 eb	 mov	 BYTE PTR __k$[ebp+6], -21 ; ffffffebH
  000eb	eb 22		 jmp	 SHORT $LN1@LoadInt_e
$LN91@LoadInt_e:
  000ed	c6 45 f1 ec	 mov	 BYTE PTR __k$[ebp+5], -20 ; ffffffecH
  000f1	eb 1c		 jmp	 SHORT $LN1@LoadInt_e
$LN92@LoadInt_e:
  000f3	c6 45 f0 ed	 mov	 BYTE PTR __k$[ebp+4], -19 ; ffffffedH
  000f7	eb 16		 jmp	 SHORT $LN1@LoadInt_e
$LN93@LoadInt_e:
  000f9	c6 45 ef ea	 mov	 BYTE PTR __k$[ebp+3], -22 ; ffffffeaH
  000fd	eb 10		 jmp	 SHORT $LN1@LoadInt_e
$LN94@LoadInt_e:
  000ff	c6 45 ee eb	 mov	 BYTE PTR __k$[ebp+2], -21 ; ffffffebH
  00103	eb 0a		 jmp	 SHORT $LN1@LoadInt_e
$LN95@LoadInt_e:
  00105	c6 45 ed ec	 mov	 BYTE PTR __k$[ebp+1], -20 ; ffffffecH
  00109	eb 04		 jmp	 SHORT $LN1@LoadInt_e
$LN96@LoadInt_e:
  0010b	c6 45 ec ed	 mov	 BYTE PTR __k$[ebp], -19	; ffffffedH
$LN1@LoadInt_e:
  0010f	6a 02		 push	 2
  00111	8d 45 ec	 lea	 eax, DWORD PTR __k$[ebp]
  00114	c6 45 f4 00	 mov	 BYTE PTR __k$[ebp+8], 0
  00118	5a		 pop	 edx
$LL104@LoadInt_e:
  00119	81 30 ed ec eb
	ea		 xor	 DWORD PTR [eax], -353637139 ; eaebecedH
  0011f	83 c0 04	 add	 eax, 4
  00122	4a		 dec	 edx
  00123	75 f4		 jne	 SHORT $LL104@LoadInt_e

; 120  : 		return LoadInt(_k, i);

  00125	ff 75 0c	 push	 DWORD PTR _i$[ebp]
  00128	8d 45 ec	 lea	 eax, DWORD PTR __k$[ebp]
  0012b	50		 push	 eax
  0012c	ff 15 00 00 00
	00		 call	 DWORD PTR __imp_?LoadInt@ioINILoader@@QAEHPBDH@Z

; 121  : 	}

  00132	8b 4d fc	 mov	 ecx, DWORD PTR __$ArrayPad$[ebp]
  00135	33 cd		 xor	 ecx, ebp
  00137	e8 00 00 00 00	 call	 @__security_check_cookie@4
  0013c	c9		 leave
  0013d	c2 08 00	 ret	 8
??$LoadInt_e@$08@ioINILoader@@QAEHAAY08$$CBDH@Z ENDP	; ioINILoader::LoadInt_e<9>
_TEXT	ENDS
PUBLIC	?construct@?$allocator@UTexDownLoadData@@@std@@QAEXPAUTexDownLoadData@@ABU3@@Z ; std::allocator<TexDownLoadData>::construct
; Function compile flags: /Ogsp
; File c:\program files (x86)\microsoft visual studio 10.0\vc\include\xmemory
;	COMDAT ?construct@?$allocator@UTexDownLoadData@@@std@@QAEXPAUTexDownLoadData@@ABU3@@Z
_TEXT	SEGMENT
__Ptr$ = 8						; size = 4
__Val$ = 12						; size = 4
?construct@?$allocator@UTexDownLoadData@@@std@@QAEXPAUTexDownLoadData@@ABU3@@Z PROC ; std::allocator<TexDownLoadData>::construct, COMDAT
; _this$ = ecx

; 196  : 		{	// construct object at _Ptr with value _Val

  00000	55		 push	 ebp
  00001	8b ec		 mov	 ebp, esp

; 197  : 		_Construct(_Ptr, _Val);

  00003	ff 75 0c	 push	 DWORD PTR __Val$[ebp]
  00006	ff 75 08	 push	 DWORD PTR __Ptr$[ebp]
  00009	e8 00 00 00 00	 call	 ??$_Construct@UTexDownLoadData@@ABU1@@std@@YAXPAUTexDownLoadData@@ABU1@@Z ; std::_Construct<TexDownLoadData,TexDownLoadData const &>
  0000e	59		 pop	 ecx
  0000f	59		 pop	 ecx

; 198  : 		}

  00010	5d		 pop	 ebp
  00011	c2 08 00	 ret	 8
?construct@?$allocator@UTexDownLoadData@@@std@@QAEXPAUTexDownLoadData@@ABU3@@Z ENDP ; std::allocator<TexDownLoadData>::construct
_TEXT	ENDS
PUBLIC	??$encodeString@$0BO@@ioINILoader_e@@AAEPADAAY0BO@$$CBDPAD@Z ; ioINILoader_e::encodeString<30>
; Function compile flags: /Ogsp
; File d:\lost saga for developer\youtube\tutorial\source\src\io3dengine\ioiniloader.h
;	COMDAT ??$encodeString@$0BO@@ioINILoader_e@@AAEPADAAY0BO@$$CBDPAD@Z
_TEXT	SEGMENT
_s$ = 8							; size = 4
_e$ = 12						; size = 4
??$encodeString@$0BO@@ioINILoader_e@@AAEPADAAY0BO@$$CBDPAD@Z PROC ; ioINILoader_e::encodeString<30>, COMDAT
; _this$ = ecx

; 215  : 	{

  00000	55		 push	 ebp
  00001	8b ec		 mov	 ebp, esp

; 216  : 		__ENCSTR(s, e);

  00003	8b 4d 08	 mov	 ecx, DWORD PTR _s$[ebp]
  00006	8a 11		 mov	 dl, BYTE PTR [ecx]
  00008	8b 45 0c	 mov	 eax, DWORD PTR _e$[ebp]
  0000b	53		 push	 ebx
  0000c	84 d2		 test	 dl, dl
  0000e	0f 84 6a 04 00
	00		 je	 $LN96@encodeStri
  00014	80 f2 ed	 xor	 dl, -19			; ffffffedH
  00017	88 10		 mov	 BYTE PTR [eax], dl
  00019	8a 51 01	 mov	 dl, BYTE PTR [ecx+1]
  0001c	84 d2		 test	 dl, dl
  0001e	0f 84 54 04 00
	00		 je	 $LN95@encodeStri
  00024	80 f2 ec	 xor	 dl, -20			; ffffffecH
  00027	88 50 01	 mov	 BYTE PTR [eax+1], dl
  0002a	8a 51 02	 mov	 dl, BYTE PTR [ecx+2]
  0002d	84 d2		 test	 dl, dl
  0002f	0f 84 3d 04 00
	00		 je	 $LN94@encodeStri
  00035	b3 eb		 mov	 bl, -21			; ffffffebH
  00037	32 d3		 xor	 dl, bl
  00039	88 50 02	 mov	 BYTE PTR [eax+2], dl
  0003c	8a 51 03	 mov	 dl, BYTE PTR [ecx+3]
  0003f	84 d2		 test	 dl, dl
  00041	0f 84 25 04 00
	00		 je	 $LN93@encodeStri
  00047	80 f2 ea	 xor	 dl, -22			; ffffffeaH
  0004a	88 50 03	 mov	 BYTE PTR [eax+3], dl
  0004d	8a 51 04	 mov	 dl, BYTE PTR [ecx+4]
  00050	84 d2		 test	 dl, dl
  00052	0f 84 0e 04 00
	00		 je	 $LN92@encodeStri
  00058	80 f2 ed	 xor	 dl, -19			; ffffffedH
  0005b	88 50 04	 mov	 BYTE PTR [eax+4], dl
  0005e	8a 51 05	 mov	 dl, BYTE PTR [ecx+5]
  00061	84 d2		 test	 dl, dl
  00063	0f 84 f7 03 00
	00		 je	 $LN91@encodeStri
  00069	80 f2 ec	 xor	 dl, -20			; ffffffecH
  0006c	88 50 05	 mov	 BYTE PTR [eax+5], dl
  0006f	8a 51 06	 mov	 dl, BYTE PTR [ecx+6]
  00072	84 d2		 test	 dl, dl
  00074	0f 84 e1 03 00
	00		 je	 $LN90@encodeStri
  0007a	32 d3		 xor	 dl, bl
  0007c	88 50 06	 mov	 BYTE PTR [eax+6], dl
  0007f	8a 51 07	 mov	 dl, BYTE PTR [ecx+7]
  00082	84 d2		 test	 dl, dl
  00084	0f 84 cb 03 00
	00		 je	 $LN89@encodeStri
  0008a	80 f2 ea	 xor	 dl, -22			; ffffffeaH
  0008d	88 50 07	 mov	 BYTE PTR [eax+7], dl
  00090	8a 51 08	 mov	 dl, BYTE PTR [ecx+8]
  00093	84 d2		 test	 dl, dl
  00095	0f 84 b4 03 00
	00		 je	 $LN88@encodeStri
  0009b	80 f2 ed	 xor	 dl, -19			; ffffffedH
  0009e	88 50 08	 mov	 BYTE PTR [eax+8], dl
  000a1	8a 51 09	 mov	 dl, BYTE PTR [ecx+9]
  000a4	84 d2		 test	 dl, dl
  000a6	0f 84 9d 03 00
	00		 je	 $LN87@encodeStri
  000ac	80 f2 ec	 xor	 dl, -20			; ffffffecH
  000af	88 50 09	 mov	 BYTE PTR [eax+9], dl
  000b2	8a 51 0a	 mov	 dl, BYTE PTR [ecx+10]
  000b5	84 d2		 test	 dl, dl
  000b7	0f 84 87 03 00
	00		 je	 $LN86@encodeStri
  000bd	32 d3		 xor	 dl, bl
  000bf	88 50 0a	 mov	 BYTE PTR [eax+10], dl
  000c2	8a 51 0b	 mov	 dl, BYTE PTR [ecx+11]
  000c5	84 d2		 test	 dl, dl
  000c7	0f 84 71 03 00
	00		 je	 $LN85@encodeStri
  000cd	80 f2 ea	 xor	 dl, -22			; ffffffeaH
  000d0	88 50 0b	 mov	 BYTE PTR [eax+11], dl
  000d3	8a 51 0c	 mov	 dl, BYTE PTR [ecx+12]
  000d6	84 d2		 test	 dl, dl
  000d8	0f 84 5a 03 00
	00		 je	 $LN84@encodeStri
  000de	80 f2 ed	 xor	 dl, -19			; ffffffedH
  000e1	88 50 0c	 mov	 BYTE PTR [eax+12], dl
  000e4	8a 51 0d	 mov	 dl, BYTE PTR [ecx+13]
  000e7	84 d2		 test	 dl, dl
  000e9	0f 84 43 03 00
	00		 je	 $LN83@encodeStri
  000ef	80 f2 ec	 xor	 dl, -20			; ffffffecH
  000f2	88 50 0d	 mov	 BYTE PTR [eax+13], dl
  000f5	8a 51 0e	 mov	 dl, BYTE PTR [ecx+14]
  000f8	84 d2		 test	 dl, dl
  000fa	0f 84 2d 03 00
	00		 je	 $LN82@encodeStri
  00100	32 d3		 xor	 dl, bl
  00102	88 50 0e	 mov	 BYTE PTR [eax+14], dl
  00105	8a 51 0f	 mov	 dl, BYTE PTR [ecx+15]
  00108	84 d2		 test	 dl, dl
  0010a	0f 84 17 03 00
	00		 je	 $LN81@encodeStri
  00110	80 f2 ea	 xor	 dl, -22			; ffffffeaH
  00113	88 50 0f	 mov	 BYTE PTR [eax+15], dl
  00116	8a 51 10	 mov	 dl, BYTE PTR [ecx+16]
  00119	84 d2		 test	 dl, dl
  0011b	0f 84 00 03 00
	00		 je	 $LN80@encodeStri
  00121	80 f2 ed	 xor	 dl, -19			; ffffffedH
  00124	88 50 10	 mov	 BYTE PTR [eax+16], dl
  00127	8a 51 11	 mov	 dl, BYTE PTR [ecx+17]
  0012a	84 d2		 test	 dl, dl
  0012c	0f 84 e9 02 00
	00		 je	 $LN79@encodeStri
  00132	80 f2 ec	 xor	 dl, -20			; ffffffecH
  00135	88 50 11	 mov	 BYTE PTR [eax+17], dl
  00138	8a 51 12	 mov	 dl, BYTE PTR [ecx+18]
  0013b	84 d2		 test	 dl, dl
  0013d	0f 84 d3 02 00
	00		 je	 $LN78@encodeStri
  00143	32 d3		 xor	 dl, bl
  00145	88 50 12	 mov	 BYTE PTR [eax+18], dl
  00148	8a 51 13	 mov	 dl, BYTE PTR [ecx+19]
  0014b	84 d2		 test	 dl, dl
  0014d	0f 84 bd 02 00
	00		 je	 $LN77@encodeStri
  00153	80 f2 ea	 xor	 dl, -22			; ffffffeaH
  00156	88 50 13	 mov	 BYTE PTR [eax+19], dl
  00159	8a 51 14	 mov	 dl, BYTE PTR [ecx+20]
  0015c	84 d2		 test	 dl, dl
  0015e	0f 84 a6 02 00
	00		 je	 $LN76@encodeStri
  00164	80 f2 ed	 xor	 dl, -19			; ffffffedH
  00167	88 50 14	 mov	 BYTE PTR [eax+20], dl
  0016a	8a 51 15	 mov	 dl, BYTE PTR [ecx+21]
  0016d	84 d2		 test	 dl, dl
  0016f	0f 84 8f 02 00
	00		 je	 $LN75@encodeStri
  00175	80 f2 ec	 xor	 dl, -20			; ffffffecH
  00178	88 50 15	 mov	 BYTE PTR [eax+21], dl
  0017b	8a 51 16	 mov	 dl, BYTE PTR [ecx+22]
  0017e	84 d2		 test	 dl, dl
  00180	0f 84 79 02 00
	00		 je	 $LN74@encodeStri
  00186	32 d3		 xor	 dl, bl
  00188	88 50 16	 mov	 BYTE PTR [eax+22], dl
  0018b	8a 51 17	 mov	 dl, BYTE PTR [ecx+23]
  0018e	84 d2		 test	 dl, dl
  00190	0f 84 60 02 00
	00		 je	 $LN73@encodeStri
  00196	80 f2 ea	 xor	 dl, -22			; ffffffeaH
  00199	88 50 17	 mov	 BYTE PTR [eax+23], dl
  0019c	8a 51 18	 mov	 dl, BYTE PTR [ecx+24]
  0019f	84 d2		 test	 dl, dl
  001a1	0f 84 46 02 00
	00		 je	 $LN72@encodeStri
  001a7	80 f2 ed	 xor	 dl, -19			; ffffffedH
  001aa	88 50 18	 mov	 BYTE PTR [eax+24], dl
  001ad	8a 51 19	 mov	 dl, BYTE PTR [ecx+25]
  001b0	84 d2		 test	 dl, dl
  001b2	0f 84 2c 02 00
	00		 je	 $LN71@encodeStri
  001b8	80 f2 ec	 xor	 dl, -20			; ffffffecH
  001bb	88 50 19	 mov	 BYTE PTR [eax+25], dl
  001be	8a 51 1a	 mov	 dl, BYTE PTR [ecx+26]
  001c1	84 d2		 test	 dl, dl
  001c3	0f 84 13 02 00
	00		 je	 $LN70@encodeStri
  001c9	32 d3		 xor	 dl, bl
  001cb	88 50 1a	 mov	 BYTE PTR [eax+26], dl
  001ce	8a 51 1b	 mov	 dl, BYTE PTR [ecx+27]
  001d1	84 d2		 test	 dl, dl
  001d3	0f 84 fa 01 00
	00		 je	 $LN69@encodeStri
  001d9	80 f2 ea	 xor	 dl, -22			; ffffffeaH
  001dc	88 50 1b	 mov	 BYTE PTR [eax+27], dl
  001df	8a 51 1c	 mov	 dl, BYTE PTR [ecx+28]
  001e2	84 d2		 test	 dl, dl
  001e4	0f 84 e0 01 00
	00		 je	 $LN68@encodeStri
  001ea	80 f2 ed	 xor	 dl, -19			; ffffffedH
  001ed	88 50 1c	 mov	 BYTE PTR [eax+28], dl
  001f0	8a 51 1d	 mov	 dl, BYTE PTR [ecx+29]
  001f3	84 d2		 test	 dl, dl
  001f5	0f 84 c6 01 00
	00		 je	 $LN67@encodeStri
  001fb	80 f2 ec	 xor	 dl, -20			; ffffffecH
  001fe	88 50 1d	 mov	 BYTE PTR [eax+29], dl
  00201	8a 51 1e	 mov	 dl, BYTE PTR [ecx+30]
  00204	84 d2		 test	 dl, dl
  00206	0f 84 ad 01 00
	00		 je	 $LN66@encodeStri
  0020c	32 d3		 xor	 dl, bl
  0020e	88 50 1e	 mov	 BYTE PTR [eax+30], dl
  00211	8a 51 1f	 mov	 dl, BYTE PTR [ecx+31]
  00214	84 d2		 test	 dl, dl
  00216	0f 84 94 01 00
	00		 je	 $LN65@encodeStri
  0021c	80 f2 ea	 xor	 dl, -22			; ffffffeaH
  0021f	88 50 1f	 mov	 BYTE PTR [eax+31], dl
  00222	8a 51 20	 mov	 dl, BYTE PTR [ecx+32]
  00225	84 d2		 test	 dl, dl
  00227	0f 84 7a 01 00
	00		 je	 $LN64@encodeStri
  0022d	80 f2 ed	 xor	 dl, -19			; ffffffedH
  00230	88 50 20	 mov	 BYTE PTR [eax+32], dl
  00233	8a 51 21	 mov	 dl, BYTE PTR [ecx+33]
  00236	84 d2		 test	 dl, dl
  00238	0f 84 60 01 00
	00		 je	 $LN63@encodeStri
  0023e	80 f2 ec	 xor	 dl, -20			; ffffffecH
  00241	88 50 21	 mov	 BYTE PTR [eax+33], dl
  00244	8a 51 22	 mov	 dl, BYTE PTR [ecx+34]
  00247	84 d2		 test	 dl, dl
  00249	0f 84 47 01 00
	00		 je	 $LN62@encodeStri
  0024f	32 d3		 xor	 dl, bl
  00251	88 50 22	 mov	 BYTE PTR [eax+34], dl
  00254	8a 51 23	 mov	 dl, BYTE PTR [ecx+35]
  00257	84 d2		 test	 dl, dl
  00259	0f 84 2e 01 00
	00		 je	 $LN61@encodeStri
  0025f	80 f2 ea	 xor	 dl, -22			; ffffffeaH
  00262	88 50 23	 mov	 BYTE PTR [eax+35], dl
  00265	8a 51 24	 mov	 dl, BYTE PTR [ecx+36]
  00268	84 d2		 test	 dl, dl
  0026a	0f 84 14 01 00
	00		 je	 $LN60@encodeStri
  00270	80 f2 ed	 xor	 dl, -19			; ffffffedH
  00273	88 50 24	 mov	 BYTE PTR [eax+36], dl
  00276	8a 51 25	 mov	 dl, BYTE PTR [ecx+37]
  00279	84 d2		 test	 dl, dl
  0027b	0f 84 fa 00 00
	00		 je	 $LN59@encodeStri
  00281	80 f2 ec	 xor	 dl, -20			; ffffffecH
  00284	88 50 25	 mov	 BYTE PTR [eax+37], dl
  00287	8a 51 26	 mov	 dl, BYTE PTR [ecx+38]
  0028a	84 d2		 test	 dl, dl
  0028c	0f 84 e1 00 00
	00		 je	 $LN58@encodeStri
  00292	32 d3		 xor	 dl, bl
  00294	88 50 26	 mov	 BYTE PTR [eax+38], dl
  00297	8a 51 27	 mov	 dl, BYTE PTR [ecx+39]
  0029a	84 d2		 test	 dl, dl
  0029c	0f 84 c8 00 00
	00		 je	 $LN57@encodeStri
  002a2	80 f2 ea	 xor	 dl, -22			; ffffffeaH
  002a5	88 50 27	 mov	 BYTE PTR [eax+39], dl
  002a8	8a 51 28	 mov	 dl, BYTE PTR [ecx+40]
  002ab	84 d2		 test	 dl, dl
  002ad	0f 84 ae 00 00
	00		 je	 $LN56@encodeStri
  002b3	80 f2 ed	 xor	 dl, -19			; ffffffedH
  002b6	88 50 28	 mov	 BYTE PTR [eax+40], dl
  002b9	8a 51 29	 mov	 dl, BYTE PTR [ecx+41]
  002bc	84 d2		 test	 dl, dl
  002be	0f 84 94 00 00
	00		 je	 $LN55@encodeStri
  002c4	80 f2 ec	 xor	 dl, -20			; ffffffecH
  002c7	88 50 29	 mov	 BYTE PTR [eax+41], dl
  002ca	8a 51 2a	 mov	 dl, BYTE PTR [ecx+42]
  002cd	84 d2		 test	 dl, dl
  002cf	74 7f		 je	 SHORT $LN54@encodeStri
  002d1	32 d3		 xor	 dl, bl
  002d3	88 50 2a	 mov	 BYTE PTR [eax+42], dl
  002d6	8a 51 2b	 mov	 dl, BYTE PTR [ecx+43]
  002d9	84 d2		 test	 dl, dl
  002db	74 6a		 je	 SHORT $LN53@encodeStri
  002dd	80 f2 ea	 xor	 dl, -22			; ffffffeaH
  002e0	88 50 2b	 mov	 BYTE PTR [eax+43], dl
  002e3	8a 51 2c	 mov	 dl, BYTE PTR [ecx+44]
  002e6	84 d2		 test	 dl, dl
  002e8	74 54		 je	 SHORT $LN52@encodeStri
  002ea	80 f2 ed	 xor	 dl, -19			; ffffffedH
  002ed	88 50 2c	 mov	 BYTE PTR [eax+44], dl
  002f0	8a 51 2d	 mov	 dl, BYTE PTR [ecx+45]
  002f3	84 d2		 test	 dl, dl
  002f5	74 3e		 je	 SHORT $LN51@encodeStri
  002f7	80 f2 ec	 xor	 dl, -20			; ffffffecH
  002fa	88 50 2d	 mov	 BYTE PTR [eax+45], dl
  002fd	8a 51 2e	 mov	 dl, BYTE PTR [ecx+46]
  00300	84 d2		 test	 dl, dl
  00302	74 29		 je	 SHORT $LN50@encodeStri
  00304	32 d3		 xor	 dl, bl
  00306	88 50 2e	 mov	 BYTE PTR [eax+46], dl
  00309	8a 51 2f	 mov	 dl, BYTE PTR [ecx+47]
  0030c	84 d2		 test	 dl, dl
  0030e	74 14		 je	 SHORT $LN49@encodeStri
  00310	80 f2 ea	 xor	 dl, -22			; ffffffeaH
  00313	88 50 2f	 mov	 BYTE PTR [eax+47], dl
  00316	8a 49 30	 mov	 cl, BYTE PTR [ecx+48]
  00319	80 f1 ed	 xor	 cl, -19			; ffffffedH
  0031c	88 48 30	 mov	 BYTE PTR [eax+48], cl
  0031f	e9 5d 01 00 00	 jmp	 $LN1@encodeStri
$LN49@encodeStri:
  00324	c6 40 2f ea	 mov	 BYTE PTR [eax+47], -22	; ffffffeaH
  00328	e9 54 01 00 00	 jmp	 $LN1@encodeStri
$LN50@encodeStri:
  0032d	88 58 2e	 mov	 BYTE PTR [eax+46], bl
  00330	e9 4c 01 00 00	 jmp	 $LN1@encodeStri
$LN51@encodeStri:
  00335	c6 40 2d ec	 mov	 BYTE PTR [eax+45], -20	; ffffffecH
  00339	e9 43 01 00 00	 jmp	 $LN1@encodeStri
$LN52@encodeStri:
  0033e	c6 40 2c ed	 mov	 BYTE PTR [eax+44], -19	; ffffffedH
  00342	e9 3a 01 00 00	 jmp	 $LN1@encodeStri
$LN53@encodeStri:
  00347	c6 40 2b ea	 mov	 BYTE PTR [eax+43], -22	; ffffffeaH
  0034b	e9 31 01 00 00	 jmp	 $LN1@encodeStri
$LN54@encodeStri:
  00350	88 58 2a	 mov	 BYTE PTR [eax+42], bl
  00353	e9 29 01 00 00	 jmp	 $LN1@encodeStri
$LN55@encodeStri:
  00358	c6 40 29 ec	 mov	 BYTE PTR [eax+41], -20	; ffffffecH
  0035c	e9 20 01 00 00	 jmp	 $LN1@encodeStri
$LN56@encodeStri:
  00361	c6 40 28 ed	 mov	 BYTE PTR [eax+40], -19	; ffffffedH
  00365	e9 17 01 00 00	 jmp	 $LN1@encodeStri
$LN57@encodeStri:
  0036a	c6 40 27 ea	 mov	 BYTE PTR [eax+39], -22	; ffffffeaH
  0036e	e9 0e 01 00 00	 jmp	 $LN1@encodeStri
$LN58@encodeStri:
  00373	88 58 26	 mov	 BYTE PTR [eax+38], bl
  00376	e9 06 01 00 00	 jmp	 $LN1@encodeStri
$LN59@encodeStri:
  0037b	c6 40 25 ec	 mov	 BYTE PTR [eax+37], -20	; ffffffecH
  0037f	e9 fd 00 00 00	 jmp	 $LN1@encodeStri
$LN60@encodeStri:
  00384	c6 40 24 ed	 mov	 BYTE PTR [eax+36], -19	; ffffffedH
  00388	e9 f4 00 00 00	 jmp	 $LN1@encodeStri
$LN61@encodeStri:
  0038d	c6 40 23 ea	 mov	 BYTE PTR [eax+35], -22	; ffffffeaH
  00391	e9 eb 00 00 00	 jmp	 $LN1@encodeStri
$LN62@encodeStri:
  00396	88 58 22	 mov	 BYTE PTR [eax+34], bl
  00399	e9 e3 00 00 00	 jmp	 $LN1@encodeStri
$LN63@encodeStri:
  0039e	c6 40 21 ec	 mov	 BYTE PTR [eax+33], -20	; ffffffecH
  003a2	e9 da 00 00 00	 jmp	 $LN1@encodeStri
$LN64@encodeStri:
  003a7	c6 40 20 ed	 mov	 BYTE PTR [eax+32], -19	; ffffffedH
  003ab	e9 d1 00 00 00	 jmp	 $LN1@encodeStri
$LN65@encodeStri:
  003b0	c6 40 1f ea	 mov	 BYTE PTR [eax+31], -22	; ffffffeaH
  003b4	e9 c8 00 00 00	 jmp	 $LN1@encodeStri
$LN66@encodeStri:
  003b9	88 58 1e	 mov	 BYTE PTR [eax+30], bl
  003bc	e9 c0 00 00 00	 jmp	 $LN1@encodeStri
$LN67@encodeStri:
  003c1	c6 40 1d ec	 mov	 BYTE PTR [eax+29], -20	; ffffffecH
  003c5	e9 b7 00 00 00	 jmp	 $LN1@encodeStri
$LN68@encodeStri:
  003ca	c6 40 1c ed	 mov	 BYTE PTR [eax+28], -19	; ffffffedH
  003ce	e9 ae 00 00 00	 jmp	 $LN1@encodeStri
$LN69@encodeStri:
  003d3	c6 40 1b ea	 mov	 BYTE PTR [eax+27], -22	; ffffffeaH
  003d7	e9 a5 00 00 00	 jmp	 $LN1@encodeStri
$LN70@encodeStri:
  003dc	88 58 1a	 mov	 BYTE PTR [eax+26], bl
  003df	e9 9d 00 00 00	 jmp	 $LN1@encodeStri
$LN71@encodeStri:
  003e4	c6 40 19 ec	 mov	 BYTE PTR [eax+25], -20	; ffffffecH
  003e8	e9 94 00 00 00	 jmp	 $LN1@encodeStri
$LN72@encodeStri:
  003ed	c6 40 18 ed	 mov	 BYTE PTR [eax+24], -19	; ffffffedH
  003f1	e9 8b 00 00 00	 jmp	 $LN1@encodeStri
$LN73@encodeStri:
  003f6	c6 40 17 ea	 mov	 BYTE PTR [eax+23], -22	; ffffffeaH
  003fa	e9 82 00 00 00	 jmp	 $LN1@encodeStri
$LN74@encodeStri:
  003ff	88 58 16	 mov	 BYTE PTR [eax+22], bl
  00402	eb 7d		 jmp	 SHORT $LN1@encodeStri
$LN75@encodeStri:
  00404	c6 40 15 ec	 mov	 BYTE PTR [eax+21], -20	; ffffffecH
  00408	eb 77		 jmp	 SHORT $LN1@encodeStri
$LN76@encodeStri:
  0040a	c6 40 14 ed	 mov	 BYTE PTR [eax+20], -19	; ffffffedH
  0040e	eb 71		 jmp	 SHORT $LN1@encodeStri
$LN77@encodeStri:
  00410	c6 40 13 ea	 mov	 BYTE PTR [eax+19], -22	; ffffffeaH
  00414	eb 6b		 jmp	 SHORT $LN1@encodeStri
$LN78@encodeStri:
  00416	88 58 12	 mov	 BYTE PTR [eax+18], bl
  00419	eb 66		 jmp	 SHORT $LN1@encodeStri
$LN79@encodeStri:
  0041b	c6 40 11 ec	 mov	 BYTE PTR [eax+17], -20	; ffffffecH
  0041f	eb 60		 jmp	 SHORT $LN1@encodeStri
$LN80@encodeStri:
  00421	c6 40 10 ed	 mov	 BYTE PTR [eax+16], -19	; ffffffedH
  00425	eb 5a		 jmp	 SHORT $LN1@encodeStri
$LN81@encodeStri:
  00427	c6 40 0f ea	 mov	 BYTE PTR [eax+15], -22	; ffffffeaH
  0042b	eb 54		 jmp	 SHORT $LN1@encodeStri
$LN82@encodeStri:
  0042d	88 58 0e	 mov	 BYTE PTR [eax+14], bl
  00430	eb 4f		 jmp	 SHORT $LN1@encodeStri
$LN83@encodeStri:
  00432	c6 40 0d ec	 mov	 BYTE PTR [eax+13], -20	; ffffffecH
  00436	eb 49		 jmp	 SHORT $LN1@encodeStri
$LN84@encodeStri:
  00438	c6 40 0c ed	 mov	 BYTE PTR [eax+12], -19	; ffffffedH
  0043c	eb 43		 jmp	 SHORT $LN1@encodeStri
$LN85@encodeStri:
  0043e	c6 40 0b ea	 mov	 BYTE PTR [eax+11], -22	; ffffffeaH
  00442	eb 3d		 jmp	 SHORT $LN1@encodeStri
$LN86@encodeStri:
  00444	88 58 0a	 mov	 BYTE PTR [eax+10], bl
  00447	eb 38		 jmp	 SHORT $LN1@encodeStri
$LN87@encodeStri:
  00449	c6 40 09 ec	 mov	 BYTE PTR [eax+9], -20	; ffffffecH
  0044d	eb 32		 jmp	 SHORT $LN1@encodeStri
$LN88@encodeStri:
  0044f	c6 40 08 ed	 mov	 BYTE PTR [eax+8], -19	; ffffffedH
  00453	eb 2c		 jmp	 SHORT $LN1@encodeStri
$LN89@encodeStri:
  00455	c6 40 07 ea	 mov	 BYTE PTR [eax+7], -22	; ffffffeaH
  00459	eb 26		 jmp	 SHORT $LN1@encodeStri
$LN90@encodeStri:
  0045b	88 58 06	 mov	 BYTE PTR [eax+6], bl
  0045e	eb 21		 jmp	 SHORT $LN1@encodeStri
$LN91@encodeStri:
  00460	c6 40 05 ec	 mov	 BYTE PTR [eax+5], -20	; ffffffecH
  00464	eb 1b		 jmp	 SHORT $LN1@encodeStri
$LN92@encodeStri:
  00466	c6 40 04 ed	 mov	 BYTE PTR [eax+4], -19	; ffffffedH
  0046a	eb 15		 jmp	 SHORT $LN1@encodeStri
$LN93@encodeStri:
  0046c	c6 40 03 ea	 mov	 BYTE PTR [eax+3], -22	; ffffffeaH
  00470	eb 0f		 jmp	 SHORT $LN1@encodeStri
$LN94@encodeStri:
  00472	c6 40 02 eb	 mov	 BYTE PTR [eax+2], -21	; ffffffebH
  00476	eb 09		 jmp	 SHORT $LN1@encodeStri
$LN95@encodeStri:
  00478	c6 40 01 ec	 mov	 BYTE PTR [eax+1], -20	; ffffffecH
  0047c	eb 03		 jmp	 SHORT $LN1@encodeStri
$LN96@encodeStri:
  0047e	c6 00 ed	 mov	 BYTE PTR [eax], -19	; ffffffedH
$LN1@encodeStri:
  00481	6a 07		 push	 7
  00483	5a		 pop	 edx
  00484	8b c8		 mov	 ecx, eax
  00486	c6 40 1d 00	 mov	 BYTE PTR [eax+29], 0
  0048a	5b		 pop	 ebx
$LL104@encodeStri:
  0048b	81 31 ed ec eb
	ea		 xor	 DWORD PTR [ecx], -353637139 ; eaebecedH
  00491	83 c1 04	 add	 ecx, 4
  00494	4a		 dec	 edx
  00495	75 f4		 jne	 SHORT $LL104@encodeStri
  00497	80 70 1c ed	 xor	 BYTE PTR [eax+28], -19	; ffffffedH

; 217  : 		return e;
; 218  : 	}

  0049b	5d		 pop	 ebp
  0049c	c2 08 00	 ret	 8
??$encodeString@$0BO@@ioINILoader_e@@AAEPADAAY0BO@$$CBDPAD@Z ENDP ; ioINILoader_e::encodeString<30>
_TEXT	ENDS
PUBLIC	??$_Rechecked@V?$_List_val@UTexDownLoadData@@V?$allocator@UTexDownLoadData@@@std@@@std@@@std@@YAAAV?$_List_iterator@V?$_List_val@UTexDownLoadData@@V?$allocator@UTexDownLoadData@@@std@@@std@@@0@AAV10@V?$_List_unchecked_iterator@V?$_List_val@UTexDownLoadData@@V?$allocator@UTexDownLoadData@@@std@@@std@@@0@@Z ; std::_Rechecked<std::_List_val<TexDownLoadData,std::allocator<TexDownLoadData> > >
; Function compile flags: /Ogsp
; File c:\program files (x86)\microsoft visual studio 10.0\vc\include\list
;	COMDAT ??$_Rechecked@V?$_List_val@UTexDownLoadData@@V?$allocator@UTexDownLoadData@@@std@@@std@@@std@@YAAAV?$_List_iterator@V?$_List_val@UTexDownLoadData@@V?$allocator@UTexDownLoadData@@@std@@@std@@@0@AAV10@V?$_List_unchecked_iterator@V?$_List_val@UTexDownLoadData@@V?$allocator@UTexDownLoadData@@@std@@@std@@@0@@Z
_TEXT	SEGMENT
__Iter$ = 8						; size = 4
__Right$ = 12						; size = 4
??$_Rechecked@V?$_List_val@UTexDownLoadData@@V?$allocator@UTexDownLoadData@@@std@@@std@@@std@@YAAAV?$_List_iterator@V?$_List_val@UTexDownLoadData@@V?$allocator@UTexDownLoadData@@@std@@@std@@@0@AAV10@V?$_List_unchecked_iterator@V?$_List_val@UTexDownLoadData@@V?$allocator@UTexDownLoadData@@@std@@@std@@@0@@Z PROC ; std::_Rechecked<std::_List_val<TexDownLoadData,std::allocator<TexDownLoadData> > >, COMDAT

; 407  : 	{	// convert to checked

  00000	55		 push	 ebp
  00001	8b ec		 mov	 ebp, esp

; 408  : 	return (_Iter._Rechecked(_Right));

  00003	8b 45 08	 mov	 eax, DWORD PTR __Iter$[ebp]
  00006	8b 4d 0c	 mov	 ecx, DWORD PTR __Right$[ebp]
  00009	89 08		 mov	 DWORD PTR [eax], ecx

; 409  : 	}

  0000b	5d		 pop	 ebp
  0000c	c3		 ret	 0
??$_Rechecked@V?$_List_val@UTexDownLoadData@@V?$allocator@UTexDownLoadData@@@std@@@std@@@std@@YAAAV?$_List_iterator@V?$_List_val@UTexDownLoadData@@V?$allocator@UTexDownLoadData@@@std@@@std@@@0@AAV10@V?$_List_unchecked_iterator@V?$_List_val@UTexDownLoadData@@V?$allocator@UTexDownLoadData@@@std@@@std@@@0@@Z ENDP ; std::_Rechecked<std::_List_val<TexDownLoadData,std::allocator<TexDownLoadData> > >
_TEXT	ENDS
PUBLIC	??$construct@AAUTrainExtraItem@ioCustomTextureMgr@@@?$allocator@UTrainExtraItem@ioCustomTextureMgr@@@std@@QAEXPAUTrainExtraItem@ioCustomTextureMgr@@AAU23@@Z ; std::allocator<ioCustomTextureMgr::TrainExtraItem>::construct<ioCustomTextureMgr::TrainExtraItem &>
;	COMDAT xdata$x
; File c:\program files (x86)\microsoft visual studio 10.0\vc\include\utility
xdata$x	SEGMENT
__unwindtable$??$construct@AAUTrainExtraItem@ioCustomTextureMgr@@@?$allocator@UTrainExtraItem@ioCustomTextureMgr@@@std@@QAEXPAUTrainExtraItem@ioCustomTextureMgr@@AAU23@@Z DD 0ffffffffH
	DD	FLAT:__unwindfunclet$??$construct@AAUTrainExtraItem@ioCustomTextureMgr@@@?$allocator@UTrainExtraItem@ioCustomTextureMgr@@@std@@QAEXPAUTrainExtraItem@ioCustomTextureMgr@@AAU23@@Z$0
__ehfuncinfo$??$construct@AAUTrainExtraItem@ioCustomTextureMgr@@@?$allocator@UTrainExtraItem@ioCustomTextureMgr@@@std@@QAEXPAUTrainExtraItem@ioCustomTextureMgr@@AAU23@@Z DD 019930522H
	DD	01H
	DD	FLAT:__unwindtable$??$construct@AAUTrainExtraItem@ioCustomTextureMgr@@@?$allocator@UTrainExtraItem@ioCustomTextureMgr@@@std@@QAEXPAUTrainExtraItem@ioCustomTextureMgr@@AAU23@@Z
	DD	2 DUP(00H)
	DD	2 DUP(00H)
	DD	00H
	DD	01H
; Function compile flags: /Ogsp
; File c:\program files (x86)\microsoft visual studio 10.0\vc\include\xmemory
xdata$x	ENDS
;	COMDAT ??$construct@AAUTrainExtraItem@ioCustomTextureMgr@@@?$allocator@UTrainExtraItem@ioCustomTextureMgr@@@std@@QAEXPAUTrainExtraItem@ioCustomTextureMgr@@AAU23@@Z
_TEXT	SEGMENT
$T534577 = -16						; size = 4
__$EHRec$ = -12						; size = 12
__Ptr$ = 8						; size = 4
__Val$ = 12						; size = 4
??$construct@AAUTrainExtraItem@ioCustomTextureMgr@@@?$allocator@UTrainExtraItem@ioCustomTextureMgr@@@std@@QAEXPAUTrainExtraItem@ioCustomTextureMgr@@AAU23@@Z PROC ; std::allocator<ioCustomTextureMgr::TrainExtraItem>::construct<ioCustomTextureMgr::TrainExtraItem &>, COMDAT
; _this$ = ecx

; 206  : 		void construct(pointer _Ptr, _Other&& _Val)

  00000	6a 04		 push	 4
  00002	b8 00 00 00 00	 mov	 eax, __ehhandler$??$construct@AAUTrainExtraItem@ioCustomTextureMgr@@@?$allocator@UTrainExtraItem@ioCustomTextureMgr@@@std@@QAEXPAUTrainExtraItem@ioCustomTextureMgr@@AAU23@@Z
  00007	e8 00 00 00 00	 call	 __EH_prolog3

; 207  : 		{	// construct object at _Ptr with value _Val
; 208  : 		::new ((void _FARQ *)_Ptr) _Ty(_STD forward<_Other>(_Val));

  0000c	8b 4d 08	 mov	 ecx, DWORD PTR __Ptr$[ebp]
  0000f	89 4d f0	 mov	 DWORD PTR $T534577[ebp], ecx
  00012	83 65 fc 00	 and	 DWORD PTR __$EHRec$[ebp+8], 0
  00016	85 c9		 test	 ecx, ecx
  00018	74 08		 je	 SHORT $LN3@construct@2
  0001a	ff 75 0c	 push	 DWORD PTR __Val$[ebp]
  0001d	e8 00 00 00 00	 call	 ??0TrainExtraItem@ioCustomTextureMgr@@QAE@ABU01@@Z
$LN3@construct@2:

; 209  : 		}

  00022	e8 00 00 00 00	 call	 __EH_epilog3
  00027	c2 08 00	 ret	 8
_TEXT	ENDS
;	COMDAT text$x
text$x	SEGMENT
__unwindfunclet$??$construct@AAUTrainExtraItem@ioCustomTextureMgr@@@?$allocator@UTrainExtraItem@ioCustomTextureMgr@@@std@@QAEXPAUTrainExtraItem@ioCustomTextureMgr@@AAU23@@Z$0:
  00000	ff 75 08	 push	 DWORD PTR __Ptr$[ebp]
  00003	ff 75 f0	 push	 DWORD PTR $T534577[ebp]
  00006	e8 00 00 00 00	 call	 ??3@YAXPAX0@Z		; operator delete
  0000b	59		 pop	 ecx
  0000c	59		 pop	 ecx
  0000d	c3		 ret	 0
__ehhandler$??$construct@AAUTrainExtraItem@ioCustomTextureMgr@@@?$allocator@UTrainExtraItem@ioCustomTextureMgr@@@std@@QAEXPAUTrainExtraItem@ioCustomTextureMgr@@AAU23@@Z:
  0000e	8b 54 24 08	 mov	 edx, DWORD PTR [esp+8]
  00012	8d 42 0c	 lea	 eax, DWORD PTR [edx+12]
  00015	8b 4a ec	 mov	 ecx, DWORD PTR [edx-20]
  00018	33 c8		 xor	 ecx, eax
  0001a	e8 00 00 00 00	 call	 @__security_check_cookie@4
  0001f	b8 00 00 00 00	 mov	 eax, OFFSET __ehfuncinfo$??$construct@AAUTrainExtraItem@ioCustomTextureMgr@@@?$allocator@UTrainExtraItem@ioCustomTextureMgr@@@std@@QAEXPAUTrainExtraItem@ioCustomTextureMgr@@AAU23@@Z
  00024	e9 00 00 00 00	 jmp	 ___CxxFrameHandler3
text$x	ENDS
??$construct@AAUTrainExtraItem@ioCustomTextureMgr@@@?$allocator@UTrainExtraItem@ioCustomTextureMgr@@@std@@QAEXPAUTrainExtraItem@ioCustomTextureMgr@@AAU23@@Z ENDP ; std::allocator<ioCustomTextureMgr::TrainExtraItem>::construct<ioCustomTextureMgr::TrainExtraItem &>
PUBLIC	??$_Construct@UTrainExtraItem@ioCustomTextureMgr@@ABU12@@std@@YAXPAUTrainExtraItem@ioCustomTextureMgr@@ABU12@@Z ; std::_Construct<ioCustomTextureMgr::TrainExtraItem,ioCustomTextureMgr::TrainExtraItem const &>
;	COMDAT xdata$x
; File c:\program files (x86)\microsoft visual studio 10.0\vc\include\utility
xdata$x	SEGMENT
__unwindtable$??$_Construct@UTrainExtraItem@ioCustomTextureMgr@@ABU12@@std@@YAXPAUTrainExtraItem@ioCustomTextureMgr@@ABU12@@Z DD 0ffffffffH
	DD	FLAT:__unwindfunclet$??$_Construct@UTrainExtraItem@ioCustomTextureMgr@@ABU12@@std@@YAXPAUTrainExtraItem@ioCustomTextureMgr@@ABU12@@Z$0
__ehfuncinfo$??$_Construct@UTrainExtraItem@ioCustomTextureMgr@@ABU12@@std@@YAXPAUTrainExtraItem@ioCustomTextureMgr@@ABU12@@Z DD 019930522H
	DD	01H
	DD	FLAT:__unwindtable$??$_Construct@UTrainExtraItem@ioCustomTextureMgr@@ABU12@@std@@YAXPAUTrainExtraItem@ioCustomTextureMgr@@ABU12@@Z
	DD	2 DUP(00H)
	DD	2 DUP(00H)
	DD	00H
	DD	01H
; Function compile flags: /Ogsp
; File c:\program files (x86)\microsoft visual studio 10.0\vc\include\xmemory
xdata$x	ENDS
;	COMDAT ??$_Construct@UTrainExtraItem@ioCustomTextureMgr@@ABU12@@std@@YAXPAUTrainExtraItem@ioCustomTextureMgr@@ABU12@@Z
_TEXT	SEGMENT
$T534596 = -16						; size = 4
__$EHRec$ = -12						; size = 12
__Vptr$ = 8						; size = 4
__Ptr$ = 8						; size = 4
__Val$ = 12						; size = 4
??$_Construct@UTrainExtraItem@ioCustomTextureMgr@@ABU12@@std@@YAXPAUTrainExtraItem@ioCustomTextureMgr@@ABU12@@Z PROC ; std::_Construct<ioCustomTextureMgr::TrainExtraItem,ioCustomTextureMgr::TrainExtraItem const &>, COMDAT

; 46   : 	{	// construct object at _Ptr with value _Val

  00000	6a 04		 push	 4
  00002	b8 00 00 00 00	 mov	 eax, __ehhandler$??$_Construct@UTrainExtraItem@ioCustomTextureMgr@@ABU12@@std@@YAXPAUTrainExtraItem@ioCustomTextureMgr@@ABU12@@Z
  00007	e8 00 00 00 00	 call	 __EH_prolog3

; 47   : 	void _FARQ *_Vptr = _Ptr;

  0000c	8b 4d 08	 mov	 ecx, DWORD PTR __Ptr$[ebp]
  0000f	89 4d 08	 mov	 DWORD PTR __Vptr$[ebp], ecx

; 48   : 	::new (_Vptr) _Ty1(_STD forward<_Ty2>(_Val));

  00012	89 4d f0	 mov	 DWORD PTR $T534596[ebp], ecx
  00015	83 65 fc 00	 and	 DWORD PTR __$EHRec$[ebp+8], 0
  00019	85 c9		 test	 ecx, ecx
  0001b	74 08		 je	 SHORT $LN3@Construct@3
  0001d	ff 75 0c	 push	 DWORD PTR __Val$[ebp]
  00020	e8 00 00 00 00	 call	 ??0TrainExtraItem@ioCustomTextureMgr@@QAE@ABU01@@Z
$LN3@Construct@3:

; 49   : 	}

  00025	e8 00 00 00 00	 call	 __EH_epilog3
  0002a	c3		 ret	 0
_TEXT	ENDS
;	COMDAT text$x
text$x	SEGMENT
__unwindfunclet$??$_Construct@UTrainExtraItem@ioCustomTextureMgr@@ABU12@@std@@YAXPAUTrainExtraItem@ioCustomTextureMgr@@ABU12@@Z$0:
  00000	ff 75 08	 push	 DWORD PTR __Vptr$[ebp]
  00003	ff 75 f0	 push	 DWORD PTR $T534596[ebp]
  00006	e8 00 00 00 00	 call	 ??3@YAXPAX0@Z		; operator delete
  0000b	59		 pop	 ecx
  0000c	59		 pop	 ecx
  0000d	c3		 ret	 0
__ehhandler$??$_Construct@UTrainExtraItem@ioCustomTextureMgr@@ABU12@@std@@YAXPAUTrainExtraItem@ioCustomTextureMgr@@ABU12@@Z:
  0000e	8b 54 24 08	 mov	 edx, DWORD PTR [esp+8]
  00012	8d 42 0c	 lea	 eax, DWORD PTR [edx+12]
  00015	8b 4a ec	 mov	 ecx, DWORD PTR [edx-20]
  00018	33 c8		 xor	 ecx, eax
  0001a	e8 00 00 00 00	 call	 @__security_check_cookie@4
  0001f	b8 00 00 00 00	 mov	 eax, OFFSET __ehfuncinfo$??$_Construct@UTrainExtraItem@ioCustomTextureMgr@@ABU12@@std@@YAXPAUTrainExtraItem@ioCustomTextureMgr@@ABU12@@Z
  00024	e9 00 00 00 00	 jmp	 ___CxxFrameHandler3
text$x	ENDS
??$_Construct@UTrainExtraItem@ioCustomTextureMgr@@ABU12@@std@@YAXPAUTrainExtraItem@ioCustomTextureMgr@@ABU12@@Z ENDP ; std::_Construct<ioCustomTextureMgr::TrainExtraItem,ioCustomTextureMgr::TrainExtraItem const &>
PUBLIC	??_G_Node@?$_List_nod@UTexDownLoadData@@V?$allocator@UTexDownLoadData@@@std@@@std@@QAEPAXI@Z ; std::_List_nod<TexDownLoadData,std::allocator<TexDownLoadData> >::_Node::`scalar deleting destructor'
; Function compile flags: /Ogsp
;	COMDAT ??_G_Node@?$_List_nod@UTexDownLoadData@@V?$allocator@UTexDownLoadData@@@std@@@std@@QAEPAXI@Z
_TEXT	SEGMENT
___flags$ = 8						; size = 4
??_G_Node@?$_List_nod@UTexDownLoadData@@V?$allocator@UTexDownLoadData@@@std@@@std@@QAEPAXI@Z PROC ; std::_List_nod<TexDownLoadData,std::allocator<TexDownLoadData> >::_Node::`scalar deleting destructor', COMDAT
; _this$ = ecx
  00000	55		 push	 ebp
  00001	8b ec		 mov	 ebp, esp
  00003	56		 push	 esi
  00004	8b f1		 mov	 esi, ecx
  00006	8d 4e 08	 lea	 ecx, DWORD PTR [esi+8]
  00009	e8 00 00 00 00	 call	 ??1TexDownLoadData@@QAE@XZ
  0000e	f6 45 08 01	 test	 BYTE PTR ___flags$[ebp], 1
  00012	74 07		 je	 SHORT $LN1@scalar@4
  00014	56		 push	 esi
  00015	e8 00 00 00 00	 call	 ??3@YAXPAX@Z		; operator delete
  0001a	59		 pop	 ecx
$LN1@scalar@4:
  0001b	8b c6		 mov	 eax, esi
  0001d	5e		 pop	 esi
  0001e	5d		 pop	 ebp
  0001f	c2 04 00	 ret	 4
??_G_Node@?$_List_nod@UTexDownLoadData@@V?$allocator@UTexDownLoadData@@@std@@@std@@QAEPAXI@Z ENDP ; std::_List_nod<TexDownLoadData,std::allocator<TexDownLoadData> >::_Node::`scalar deleting destructor'
_TEXT	ENDS
PUBLIC	?_Unchecked@?$_List_iterator@V?$_List_val@UTexDownLoadData@@V?$allocator@UTexDownLoadData@@@std@@@std@@@std@@QBE?AV?$_List_unchecked_iterator@V?$_List_val@UTexDownLoadData@@V?$allocator@UTexDownLoadData@@@std@@@std@@@2@XZ ; std::_List_iterator<std::_List_val<TexDownLoadData,std::allocator<TexDownLoadData> > >::_Unchecked
; Function compile flags: /Ogsp
; File c:\program files (x86)\microsoft visual studio 10.0\vc\include\list
;	COMDAT ?_Unchecked@?$_List_iterator@V?$_List_val@UTexDownLoadData@@V?$allocator@UTexDownLoadData@@@std@@@std@@@std@@QBE?AV?$_List_unchecked_iterator@V?$_List_val@UTexDownLoadData@@V?$allocator@UTexDownLoadData@@@std@@@std@@@2@XZ
_TEXT	SEGMENT
___$ReturnUdt$ = 8					; size = 4
?_Unchecked@?$_List_iterator@V?$_List_val@UTexDownLoadData@@V?$allocator@UTexDownLoadData@@@std@@@std@@@std@@QBE?AV?$_List_unchecked_iterator@V?$_List_val@UTexDownLoadData@@V?$allocator@UTexDownLoadData@@@std@@@std@@@2@XZ PROC ; std::_List_iterator<std::_List_val<TexDownLoadData,std::allocator<TexDownLoadData> > >::_Unchecked, COMDAT
; _this$ = ecx

; 354  : 		{	// make an unchecked iterator

  00000	55		 push	 ebp
  00001	8b ec		 mov	 ebp, esp

; 355  : 		return (_Unchecked_type(this->_Ptr, (_Mylist *)this->_Getcont()));

  00003	8b 09		 mov	 ecx, DWORD PTR [ecx]
  00005	8b 45 08	 mov	 eax, DWORD PTR ___$ReturnUdt$[ebp]
  00008	89 08		 mov	 DWORD PTR [eax], ecx

; 356  : 		}

  0000a	5d		 pop	 ebp
  0000b	c2 04 00	 ret	 4
?_Unchecked@?$_List_iterator@V?$_List_val@UTexDownLoadData@@V?$allocator@UTexDownLoadData@@@std@@@std@@@std@@QBE?AV?$_List_unchecked_iterator@V?$_List_val@UTexDownLoadData@@V?$allocator@UTexDownLoadData@@@std@@@std@@@2@XZ ENDP ; std::_List_iterator<std::_List_val<TexDownLoadData,std::allocator<TexDownLoadData> > >::_Unchecked
_TEXT	ENDS
PUBLIC	??9?$_List_unchecked_const_iterator@V?$_List_val@UTexDownLoadData@@V?$allocator@UTexDownLoadData@@@std@@@std@@U_Iterator_base0@2@@std@@QBE_NABV01@@Z ; std::_List_unchecked_const_iterator<std::_List_val<TexDownLoadData,std::allocator<TexDownLoadData> >,std::_Iterator_base0>::operator!=
; Function compile flags: /Ogsp
;	COMDAT ??9?$_List_unchecked_const_iterator@V?$_List_val@UTexDownLoadData@@V?$allocator@UTexDownLoadData@@@std@@@std@@U_Iterator_base0@2@@std@@QBE_NABV01@@Z
_TEXT	SEGMENT
__Right$ = 8						; size = 4
??9?$_List_unchecked_const_iterator@V?$_List_val@UTexDownLoadData@@V?$allocator@UTexDownLoadData@@@std@@@std@@U_Iterator_base0@2@@std@@QBE_NABV01@@Z PROC ; std::_List_unchecked_const_iterator<std::_List_val<TexDownLoadData,std::allocator<TexDownLoadData> >,std::_Iterator_base0>::operator!=, COMDAT
; _this$ = ecx

; 87   : 		{	// test for iterator inequality

  00000	55		 push	 ebp
  00001	8b ec		 mov	 ebp, esp

; 88   : 		return (!(*this == _Right));

  00003	8b 01		 mov	 eax, DWORD PTR [ecx]
  00005	8b 55 08	 mov	 edx, DWORD PTR __Right$[ebp]
  00008	33 c9		 xor	 ecx, ecx
  0000a	3b 02		 cmp	 eax, DWORD PTR [edx]
  0000c	0f 95 c0	 setne	 al

; 89   : 		}

  0000f	5d		 pop	 ebp
  00010	c2 04 00	 ret	 4
??9?$_List_unchecked_const_iterator@V?$_List_val@UTexDownLoadData@@V?$allocator@UTexDownLoadData@@@std@@@std@@U_Iterator_base0@2@@std@@QBE_NABV01@@Z ENDP ; std::_List_unchecked_const_iterator<std::_List_val<TexDownLoadData,std::allocator<TexDownLoadData> >,std::_Iterator_base0>::operator!=
_TEXT	ENDS
PUBLIC	??D?$_List_unchecked_iterator@V?$_List_val@UTexDownLoadData@@V?$allocator@UTexDownLoadData@@@std@@@std@@@std@@QBEAAUTexDownLoadData@@XZ ; std::_List_unchecked_iterator<std::_List_val<TexDownLoadData,std::allocator<TexDownLoadData> > >::operator*
; Function compile flags: /Ogsp
;	COMDAT ??D?$_List_unchecked_iterator@V?$_List_val@UTexDownLoadData@@V?$allocator@UTexDownLoadData@@@std@@@std@@@std@@QBEAAUTexDownLoadData@@XZ
_TEXT	SEGMENT
??D?$_List_unchecked_iterator@V?$_List_val@UTexDownLoadData@@V?$allocator@UTexDownLoadData@@@std@@@std@@@std@@QBEAAUTexDownLoadData@@XZ PROC ; std::_List_unchecked_iterator<std::_List_val<TexDownLoadData,std::allocator<TexDownLoadData> > >::operator*, COMDAT
; _this$ = ecx

; 126  : 		return ((reference)**(_Mybase *)this);

  00000	8b 01		 mov	 eax, DWORD PTR [ecx]
  00002	83 c0 08	 add	 eax, 8

; 127  : 		}

  00005	c3		 ret	 0
??D?$_List_unchecked_iterator@V?$_List_val@UTexDownLoadData@@V?$allocator@UTexDownLoadData@@@std@@@std@@@std@@QBEAAUTexDownLoadData@@XZ ENDP ; std::_List_unchecked_iterator<std::_List_val<TexDownLoadData,std::allocator<TexDownLoadData> > >::operator*
_TEXT	ENDS
PUBLIC	??E?$_List_unchecked_iterator@V?$_List_val@UTexDownLoadData@@V?$allocator@UTexDownLoadData@@@std@@@std@@@std@@QAEAAV01@XZ ; std::_List_unchecked_iterator<std::_List_val<TexDownLoadData,std::allocator<TexDownLoadData> > >::operator++
; Function compile flags: /Ogsp
;	COMDAT ??E?$_List_unchecked_iterator@V?$_List_val@UTexDownLoadData@@V?$allocator@UTexDownLoadData@@@std@@@std@@@std@@QAEAAV01@XZ
_TEXT	SEGMENT
??E?$_List_unchecked_iterator@V?$_List_val@UTexDownLoadData@@V?$allocator@UTexDownLoadData@@@std@@@std@@@std@@QAEAAV01@XZ PROC ; std::_List_unchecked_iterator<std::_List_val<TexDownLoadData,std::allocator<TexDownLoadData> > >::operator++, COMDAT
; _this$ = ecx

; 135  : 		{	// preincrement

  00000	8b c1		 mov	 eax, ecx

; 136  : 		++(*(_Mybase *)this);

  00002	8b 08		 mov	 ecx, DWORD PTR [eax]
  00004	8b 09		 mov	 ecx, DWORD PTR [ecx]
  00006	89 08		 mov	 DWORD PTR [eax], ecx

; 137  : 		return (*this);
; 138  : 		}

  00008	c3		 ret	 0
??E?$_List_unchecked_iterator@V?$_List_val@UTexDownLoadData@@V?$allocator@UTexDownLoadData@@@std@@@std@@@std@@QAEAAV01@XZ ENDP ; std::_List_unchecked_iterator<std::_List_val<TexDownLoadData,std::allocator<TexDownLoadData> > >::operator++
_TEXT	ENDS
PUBLIC	??$_Destroy@UTrainExtraItem@ioCustomTextureMgr@@@std@@YAXPAUTrainExtraItem@ioCustomTextureMgr@@@Z ; std::_Destroy<ioCustomTextureMgr::TrainExtraItem>
; Function compile flags: /Ogsp
; File c:\program files (x86)\microsoft visual studio 10.0\vc\include\xmemory
;	COMDAT ??$_Destroy@UTrainExtraItem@ioCustomTextureMgr@@@std@@YAXPAUTrainExtraItem@ioCustomTextureMgr@@@Z
_TEXT	SEGMENT
__Ptr$ = 8						; size = 4
??$_Destroy@UTrainExtraItem@ioCustomTextureMgr@@@std@@YAXPAUTrainExtraItem@ioCustomTextureMgr@@@Z PROC ; std::_Destroy<ioCustomTextureMgr::TrainExtraItem>, COMDAT

; 62   : 	{	// destroy object at _Ptr

  00000	55		 push	 ebp
  00001	8b ec		 mov	 ebp, esp

; 63   : 	_Ptr->~_Ty();

  00003	8b 4d 08	 mov	 ecx, DWORD PTR __Ptr$[ebp]

; 64   : 	}

  00006	5d		 pop	 ebp

; 63   : 	_Ptr->~_Ty();

  00007	e9 00 00 00 00	 jmp	 ??1TrainExtraItem@ioCustomTextureMgr@@QAE@XZ
??$_Destroy@UTrainExtraItem@ioCustomTextureMgr@@@std@@YAXPAUTrainExtraItem@ioCustomTextureMgr@@@Z ENDP ; std::_Destroy<ioCustomTextureMgr::TrainExtraItem>
_TEXT	ENDS
PUBLIC	?construct@?$allocator@UTrainExtraItem@ioCustomTextureMgr@@@std@@QAEXPAUTrainExtraItem@ioCustomTextureMgr@@$$QAU34@@Z ; std::allocator<ioCustomTextureMgr::TrainExtraItem>::construct
;	COMDAT xdata$x
; File c:\program files (x86)\microsoft visual studio 10.0\vc\include\utility
xdata$x	SEGMENT
__unwindtable$?construct@?$allocator@UTrainExtraItem@ioCustomTextureMgr@@@std@@QAEXPAUTrainExtraItem@ioCustomTextureMgr@@$$QAU34@@Z DD 0ffffffffH
	DD	FLAT:__unwindfunclet$?construct@?$allocator@UTrainExtraItem@ioCustomTextureMgr@@@std@@QAEXPAUTrainExtraItem@ioCustomTextureMgr@@$$QAU34@@Z$0
__ehfuncinfo$?construct@?$allocator@UTrainExtraItem@ioCustomTextureMgr@@@std@@QAEXPAUTrainExtraItem@ioCustomTextureMgr@@$$QAU34@@Z DD 019930522H
	DD	01H
	DD	FLAT:__unwindtable$?construct@?$allocator@UTrainExtraItem@ioCustomTextureMgr@@@std@@QAEXPAUTrainExtraItem@ioCustomTextureMgr@@$$QAU34@@Z
	DD	2 DUP(00H)
	DD	2 DUP(00H)
	DD	00H
	DD	01H
; Function compile flags: /Ogsp
; File c:\program files (x86)\microsoft visual studio 10.0\vc\include\xmemory
xdata$x	ENDS
;	COMDAT ?construct@?$allocator@UTrainExtraItem@ioCustomTextureMgr@@@std@@QAEXPAUTrainExtraItem@ioCustomTextureMgr@@$$QAU34@@Z
_TEXT	SEGMENT
$T534678 = -16						; size = 4
__$EHRec$ = -12						; size = 12
__Ptr$ = 8						; size = 4
__Val$ = 12						; size = 4
?construct@?$allocator@UTrainExtraItem@ioCustomTextureMgr@@@std@@QAEXPAUTrainExtraItem@ioCustomTextureMgr@@$$QAU34@@Z PROC ; std::allocator<ioCustomTextureMgr::TrainExtraItem>::construct, COMDAT
; _this$ = ecx

; 201  : 		{	// construct object at _Ptr with value _Val

  00000	6a 04		 push	 4
  00002	b8 00 00 00 00	 mov	 eax, __ehhandler$?construct@?$allocator@UTrainExtraItem@ioCustomTextureMgr@@@std@@QAEXPAUTrainExtraItem@ioCustomTextureMgr@@$$QAU34@@Z
  00007	e8 00 00 00 00	 call	 __EH_prolog3

; 202  : 		::new ((void _FARQ *)_Ptr) _Ty(_STD forward<_Ty>(_Val));

  0000c	8b 4d 08	 mov	 ecx, DWORD PTR __Ptr$[ebp]
  0000f	89 4d f0	 mov	 DWORD PTR $T534678[ebp], ecx
  00012	83 65 fc 00	 and	 DWORD PTR __$EHRec$[ebp+8], 0
  00016	85 c9		 test	 ecx, ecx
  00018	74 08		 je	 SHORT $LN3@construct@3
  0001a	ff 75 0c	 push	 DWORD PTR __Val$[ebp]
  0001d	e8 00 00 00 00	 call	 ??0TrainExtraItem@ioCustomTextureMgr@@QAE@ABU01@@Z
$LN3@construct@3:

; 203  : 		}

  00022	e8 00 00 00 00	 call	 __EH_epilog3
  00027	c2 08 00	 ret	 8
_TEXT	ENDS
;	COMDAT text$x
text$x	SEGMENT
__unwindfunclet$?construct@?$allocator@UTrainExtraItem@ioCustomTextureMgr@@@std@@QAEXPAUTrainExtraItem@ioCustomTextureMgr@@$$QAU34@@Z$0:
  00000	ff 75 08	 push	 DWORD PTR __Ptr$[ebp]
  00003	ff 75 f0	 push	 DWORD PTR $T534678[ebp]
  00006	e8 00 00 00 00	 call	 ??3@YAXPAX0@Z		; operator delete
  0000b	59		 pop	 ecx
  0000c	59		 pop	 ecx
  0000d	c3		 ret	 0
__ehhandler$?construct@?$allocator@UTrainExtraItem@ioCustomTextureMgr@@@std@@QAEXPAUTrainExtraItem@ioCustomTextureMgr@@$$QAU34@@Z:
  0000e	8b 54 24 08	 mov	 edx, DWORD PTR [esp+8]
  00012	8d 42 0c	 lea	 eax, DWORD PTR [edx+12]
  00015	8b 4a ec	 mov	 ecx, DWORD PTR [edx-20]
  00018	33 c8		 xor	 ecx, eax
  0001a	e8 00 00 00 00	 call	 @__security_check_cookie@4
  0001f	b8 00 00 00 00	 mov	 eax, OFFSET __ehfuncinfo$?construct@?$allocator@UTrainExtraItem@ioCustomTextureMgr@@@std@@QAEXPAUTrainExtraItem@ioCustomTextureMgr@@$$QAU34@@Z
  00024	e9 00 00 00 00	 jmp	 ___CxxFrameHandler3
text$x	ENDS
?construct@?$allocator@UTrainExtraItem@ioCustomTextureMgr@@@std@@QAEXPAUTrainExtraItem@ioCustomTextureMgr@@$$QAU34@@Z ENDP ; std::allocator<ioCustomTextureMgr::TrainExtraItem>::construct
PUBLIC	??0?$_Vector_val@KV?$allocator@K@std@@@std@@QAE@V?$allocator@K@1@@Z ; std::_Vector_val<unsigned long,std::allocator<unsigned long> >::_Vector_val<unsigned long,std::allocator<unsigned long> >
; Function compile flags: /Ogsp
; File c:\program files (x86)\microsoft visual studio 10.0\vc\include\vector
;	COMDAT ??0?$_Vector_val@KV?$allocator@K@std@@@std@@QAE@V?$allocator@K@1@@Z
_TEXT	SEGMENT
__Al$ = 8						; size = 1
??0?$_Vector_val@KV?$allocator@K@std@@@std@@QAE@V?$allocator@K@1@@Z PROC ; std::_Vector_val<unsigned long,std::allocator<unsigned long> >::_Vector_val<unsigned long,std::allocator<unsigned long> >, COMDAT
; _this$ = ecx

; 426  : 		{	// construct allocator from _Al

  00000	8b c1		 mov	 eax, ecx

; 427  : 		_Myfirst = 0;

  00002	33 c9		 xor	 ecx, ecx
  00004	89 08		 mov	 DWORD PTR [eax], ecx

; 428  : 		_Mylast = 0;

  00006	89 48 04	 mov	 DWORD PTR [eax+4], ecx

; 429  : 		_Myend = 0;

  00009	89 48 08	 mov	 DWORD PTR [eax+8], ecx

; 430  : 		}

  0000c	c2 04 00	 ret	 4
??0?$_Vector_val@KV?$allocator@K@std@@@std@@QAE@V?$allocator@K@1@@Z ENDP ; std::_Vector_val<unsigned long,std::allocator<unsigned long> >::_Vector_val<unsigned long,std::allocator<unsigned long> >
_TEXT	ENDS
PUBLIC	?max_size@?$vector@KV?$allocator@K@std@@@std@@QBEIXZ ; std::vector<unsigned long,std::allocator<unsigned long> >::max_size
; Function compile flags: /Ogsp
;	COMDAT ?max_size@?$vector@KV?$allocator@K@std@@@std@@QBEIXZ
_TEXT	SEGMENT
?max_size@?$vector@KV?$allocator@K@std@@@std@@QBEIXZ PROC ; std::vector<unsigned long,std::allocator<unsigned long> >::max_size, COMDAT
; _this$ = ecx

; 884  : 		return (this->_Alval.max_size());

  00000	b8 ff ff ff 3f	 mov	 eax, 1073741823		; 3fffffffH

; 885  : 		}

  00005	c3		 ret	 0
?max_size@?$vector@KV?$allocator@K@std@@@std@@QBEIXZ ENDP ; std::vector<unsigned long,std::allocator<unsigned long> >::max_size
_TEXT	ENDS
PUBLIC	?_Grow_to@?$vector@KV?$allocator@K@std@@@std@@IBEII@Z ; std::vector<unsigned long,std::allocator<unsigned long> >::_Grow_to
; Function compile flags: /Ogsp
;	COMDAT ?_Grow_to@?$vector@KV?$allocator@K@std@@@std@@IBEII@Z
_TEXT	SEGMENT
__Count$ = 8						; size = 4
?_Grow_to@?$vector@KV?$allocator@K@std@@@std@@IBEII@Z PROC ; std::vector<unsigned long,std::allocator<unsigned long> >::_Grow_to, COMDAT
; _this$ = ecx

; 1274 : 		{	// grow by 50% or at least to _Count

  00000	55		 push	 ebp
  00001	8b ec		 mov	 ebp, esp

; 1275 : 		size_type _Capacity = capacity();

  00003	8b 41 08	 mov	 eax, DWORD PTR [ecx+8]
  00006	2b 01		 sub	 eax, DWORD PTR [ecx]

; 1276 : 
; 1277 : 		_Capacity = max_size() - _Capacity / 2 < _Capacity
; 1278 : 			? 0 : _Capacity + _Capacity / 2;	// try to grow by 50%

  00008	ba ff ff ff 3f	 mov	 edx, 1073741823		; 3fffffffH
  0000d	c1 f8 02	 sar	 eax, 2
  00010	8b c8		 mov	 ecx, eax
  00012	d1 e9		 shr	 ecx, 1
  00014	2b d1		 sub	 edx, ecx
  00016	3b d0		 cmp	 edx, eax
  00018	73 04		 jae	 SHORT $LN4@Grow_to@2
  0001a	33 c0		 xor	 eax, eax
  0001c	eb 02		 jmp	 SHORT $LN5@Grow_to@2
$LN4@Grow_to@2:
  0001e	03 c1		 add	 eax, ecx
$LN5@Grow_to@2:

; 1279 : 		if (_Capacity < _Count)

  00020	3b 45 08	 cmp	 eax, DWORD PTR __Count$[ebp]

; 1280 : 			_Capacity = _Count;

  00023	0f 42 45 08	 cmovb	 eax, DWORD PTR __Count$[ebp]

; 1281 : 		return (_Capacity);
; 1282 : 		}

  00027	5d		 pop	 ebp
  00028	c2 04 00	 ret	 4
?_Grow_to@?$vector@KV?$allocator@K@std@@@std@@IBEII@Z ENDP ; std::vector<unsigned long,std::allocator<unsigned long> >::_Grow_to
_TEXT	ENDS
PUBLIC	??0?$_Vector_iterator@V?$_Vector_val@KV?$allocator@K@std@@@std@@@std@@QAE@PAKPBU_Container_base0@1@@Z ; std::_Vector_iterator<std::_Vector_val<unsigned long,std::allocator<unsigned long> > >::_Vector_iterator<std::_Vector_val<unsigned long,std::allocator<unsigned long> > >
; Function compile flags: /Ogsp
;	COMDAT ??0?$_Vector_iterator@V?$_Vector_val@KV?$allocator@K@std@@@std@@@std@@QAE@PAKPBU_Container_base0@1@@Z
_TEXT	SEGMENT
__Parg$ = 8						; size = 4
__Pvector$ = 12						; size = 4
??0?$_Vector_iterator@V?$_Vector_val@KV?$allocator@K@std@@@std@@@std@@QAE@PAKPBU_Container_base0@1@@Z PROC ; std::_Vector_iterator<std::_Vector_val<unsigned long,std::allocator<unsigned long> > >::_Vector_iterator<std::_Vector_val<unsigned long,std::allocator<unsigned long> > >, COMDAT
; _this$ = ecx

; 304  : 		{	// construct with pointer _Parg

  00000	55		 push	 ebp
  00001	8b ec		 mov	 ebp, esp
  00003	8b c1		 mov	 eax, ecx
  00005	8b 4d 08	 mov	 ecx, DWORD PTR __Parg$[ebp]
  00008	89 08		 mov	 DWORD PTR [eax], ecx

; 305  : 		}

  0000a	5d		 pop	 ebp
  0000b	c2 08 00	 ret	 8
??0?$_Vector_iterator@V?$_Vector_val@KV?$allocator@K@std@@@std@@@std@@QAE@PAKPBU_Container_base0@1@@Z ENDP ; std::_Vector_iterator<std::_Vector_val<unsigned long,std::allocator<unsigned long> > >::_Vector_iterator<std::_Vector_val<unsigned long,std::allocator<unsigned long> > >
_TEXT	ENDS
PUBLIC	?allocate@?$allocator@K@std@@QAEPAKI@Z		; std::allocator<unsigned long>::allocate
; Function compile flags: /Ogsp
; File c:\program files (x86)\microsoft visual studio 10.0\vc\include\xmemory
;	COMDAT ?allocate@?$allocator@K@std@@QAEPAKI@Z
_TEXT	SEGMENT
__Count$ = 8						; size = 4
?allocate@?$allocator@K@std@@QAEPAKI@Z PROC		; std::allocator<unsigned long>::allocate, COMDAT
; _this$ = ecx

; 186  : 		{	// allocate array of _Count elements

  00000	55		 push	 ebp
  00001	8b ec		 mov	 ebp, esp

; 187  : 		return (_Allocate(_Count, (pointer)0));

  00003	6a 00		 push	 0
  00005	ff 75 08	 push	 DWORD PTR __Count$[ebp]
  00008	e8 00 00 00 00	 call	 ??$_Allocate@K@std@@YAPAKIPAK@Z ; std::_Allocate<unsigned long>
  0000d	59		 pop	 ecx
  0000e	59		 pop	 ecx

; 188  : 		}

  0000f	5d		 pop	 ebp
  00010	c2 04 00	 ret	 4
?allocate@?$allocator@K@std@@QAEPAKI@Z ENDP		; std::allocator<unsigned long>::allocate
_TEXT	ENDS
PUBLIC	??$_Cons_val@V?$allocator@K@std@@KAAK@std@@YAXAAV?$allocator@K@0@PAKAAK@Z ; std::_Cons_val<std::allocator<unsigned long>,unsigned long,unsigned long &>
; Function compile flags: /Ogsp
;	COMDAT ??$_Cons_val@V?$allocator@K@std@@KAAK@std@@YAXAAV?$allocator@K@0@PAKAAK@Z
_TEXT	SEGMENT
__Alval$ = 8						; size = 4
__Pdest$ = 12						; size = 4
__Src$ = 16						; size = 4
??$_Cons_val@V?$allocator@K@std@@KAAK@std@@YAXAAV?$allocator@K@0@PAKAAK@Z PROC ; std::_Cons_val<std::allocator<unsigned long>,unsigned long,unsigned long &>, COMDAT

; 279  : 	{	// construct using allocator

  00000	55		 push	 ebp
  00001	8b ec		 mov	 ebp, esp

; 280  : 	_Alval.construct(_Pdest, _STD forward<_Ty2>(_Src));

  00003	8b 45 0c	 mov	 eax, DWORD PTR __Pdest$[ebp]
  00006	85 c0		 test	 eax, eax
  00008	74 07		 je	 SHORT $LN7@Cons_val
  0000a	8b 4d 10	 mov	 ecx, DWORD PTR __Src$[ebp]
  0000d	8b 09		 mov	 ecx, DWORD PTR [ecx]
  0000f	89 08		 mov	 DWORD PTR [eax], ecx
$LN7@Cons_val:

; 281  : 	}

  00011	5d		 pop	 ebp
  00012	c3		 ret	 0
??$_Cons_val@V?$allocator@K@std@@KAAK@std@@YAXAAV?$allocator@K@0@PAKAAK@Z ENDP ; std::_Cons_val<std::allocator<unsigned long>,unsigned long,unsigned long &>
_TEXT	ENDS
PUBLIC	??$_Move@PAKPAK@std@@YAPAKPAK00@Z		; std::_Move<unsigned long *,unsigned long *>
; Function compile flags: /Ogsp
; File c:\program files (x86)\microsoft visual studio 10.0\vc\include\xutility
;	COMDAT ??$_Move@PAKPAK@std@@YAPAKPAK00@Z
_TEXT	SEGMENT
__Cat$534778 = -4					; size = 1
__First$ = 8						; size = 4
__Last$ = 12						; size = 4
__Dest$ = 16						; size = 4
??$_Move@PAKPAK@std@@YAPAKPAK00@Z PROC			; std::_Move<unsigned long *,unsigned long *>, COMDAT

; 2533 : 	{	// move [_First, _Last) to [_Dest, ...), unchecked

  00000	55		 push	 ebp
  00001	8b ec		 mov	 ebp, esp
  00003	51		 push	 ecx

; 2534 : 	return (_Move(_First, _Last,
; 2535 : 		_Dest, _Ptr_cat(_First, _Dest)));

  00004	ff 75 fc	 push	 DWORD PTR __Cat$534778[ebp]
  00007	ff 75 10	 push	 DWORD PTR __Dest$[ebp]
  0000a	ff 75 0c	 push	 DWORD PTR __Last$[ebp]
  0000d	ff 75 08	 push	 DWORD PTR __First$[ebp]
  00010	e8 00 00 00 00	 call	 ??$_Move@PAKPAK@std@@YAPAKPAK00U_Scalar_ptr_iterator_tag@0@@Z ; std::_Move<unsigned long *,unsigned long *>
  00015	83 c4 10	 add	 esp, 16			; 00000010H

; 2536 : 	}

  00018	c9		 leave
  00019	c3		 ret	 0
??$_Move@PAKPAK@std@@YAPAKPAK00@Z ENDP			; std::_Move<unsigned long *,unsigned long *>
_TEXT	ENDS
PUBLIC	??$_Destroy_range@V?$allocator@K@std@@@std@@YAXPAK0AAV?$allocator@K@0@@Z ; std::_Destroy_range<std::allocator<unsigned long> >
; Function compile flags: /Ogsp
; File c:\program files (x86)\microsoft visual studio 10.0\vc\include\xmemory
;	COMDAT ??$_Destroy_range@V?$allocator@K@std@@@std@@YAXPAK0AAV?$allocator@K@0@@Z
_TEXT	SEGMENT
__First$ = 8						; size = 4
__Last$ = 12						; size = 4
__Al$ = 16						; size = 4
??$_Destroy_range@V?$allocator@K@std@@@std@@YAXPAK0AAV?$allocator@K@0@@Z PROC ; std::_Destroy_range<std::allocator<unsigned long> >, COMDAT

; 88   : 	_Destroy_range(_First, _Last, _Al, _Ptr_cat(_First, _Last));
; 89   : 	}

  00000	c3		 ret	 0
??$_Destroy_range@V?$allocator@K@std@@@std@@YAXPAK0AAV?$allocator@K@0@@Z ENDP ; std::_Destroy_range<std::allocator<unsigned long> >
_TEXT	ENDS
PUBLIC	?construct@?$allocator@K@std@@QAEXPAKABK@Z	; std::allocator<unsigned long>::construct
; Function compile flags: /Ogsp
;	COMDAT ?construct@?$allocator@K@std@@QAEXPAKABK@Z
_TEXT	SEGMENT
__Ptr$ = 8						; size = 4
__Val$ = 12						; size = 4
?construct@?$allocator@K@std@@QAEXPAKABK@Z PROC		; std::allocator<unsigned long>::construct, COMDAT
; _this$ = ecx

; 196  : 		{	// construct object at _Ptr with value _Val

  00000	55		 push	 ebp
  00001	8b ec		 mov	 ebp, esp

; 197  : 		_Construct(_Ptr, _Val);

  00003	8b 45 08	 mov	 eax, DWORD PTR __Ptr$[ebp]
  00006	85 c0		 test	 eax, eax
  00008	74 07		 je	 SHORT $LN5@construct@4
  0000a	8b 4d 0c	 mov	 ecx, DWORD PTR __Val$[ebp]
  0000d	8b 09		 mov	 ecx, DWORD PTR [ecx]
  0000f	89 08		 mov	 DWORD PTR [eax], ecx
$LN5@construct@4:

; 198  : 		}

  00011	5d		 pop	 ebp
  00012	c2 08 00	 ret	 8
?construct@?$allocator@K@std@@QAEXPAKABK@Z ENDP		; std::allocator<unsigned long>::construct
_TEXT	ENDS
