; Listing generated by Microsoft (R) Optimizing Compiler Version 16.00.30319.01 

	TITLE	D:\Lost Saga For Developer\Youtube\Tutorial\Source\src\LSClient\ioCustomSoundMgr.cpp
	.686P
	.XMM
	include listing.inc
	.model	flat

INCLUDELIB MSVCRT
INCLUDELIB OLDNAMES

PUBLIC	?ms_Singleton@?$Singleton@VioCustomSoundMgr@@@@1PAVioCustomSoundMgr@@A ; Singleton<ioCustomSoundMgr>::ms_Singleton
PUBLIC	?g_szFilterChar@@3PADA				; g_szFilterChar
;	COMDAT ?ms_Singleton@?$Singleton@VioCustomSoundMgr@@@@1PAVioCustomSoundMgr@@A
_BSS	SEGMENT
?ms_Singleton@?$Singleton@VioCustomSoundMgr@@@@1PAVioCustomSoundMgr@@A DD 01H DUP (?) ; Singleton<ioCustomSoundMgr>::ms_Singleton
_BSS	ENDS
_DATA	SEGMENT
?g_szFilterChar@@3PADA DB 09H				; g_szFilterChar
	DB	020H
	DB	05fH
	DB	02dH
	DB	02eH
	DB	03aH
	DB	05eH
	DB	02fH
	DB	05cH
	DB	01dH
	DB	01cH
	DB	00H
_DATA	ENDS
PUBLIC	?GetCurData@CustomSoundData@@IAEKAAUtagCustomSoundPacket@@K@Z ; CustomSoundData::GetCurData
EXTRN	_memcpy:PROC
; Function compile flags: /Ogsp
; File d:\lost saga for developer\youtube\tutorial\source\src\lsclient\iocustomsoundmgr.cpp
;	COMDAT ?GetCurData@CustomSoundData@@IAEKAAUtagCustomSoundPacket@@K@Z
_TEXT	SEGMENT
_rData$ = 8						; size = 4
_dwDataPos$ = 12					; size = 4
?GetCurData@CustomSoundData@@IAEKAAUtagCustomSoundPacket@@K@Z PROC ; CustomSoundData::GetCurData, COMDAT
; _this$ = ecx

; 36   : {

  00000	55		 push	 ebp
  00001	8b ec		 mov	 ebp, esp

; 37   : 	if( dwDataPos >= m_dwSize ) return 0;

  00003	8b 41 08	 mov	 eax, DWORD PTR [ecx+8]
  00006	57		 push	 edi
  00007	8b 7d 0c	 mov	 edi, DWORD PTR _dwDataPos$[ebp]
  0000a	3b f8		 cmp	 edi, eax
  0000c	72 04		 jb	 SHORT $LN1@GetCurData
  0000e	33 c0		 xor	 eax, eax
  00010	eb 2e		 jmp	 SHORT $LN2@GetCurData
$LN1@GetCurData:
  00012	53		 push	 ebx

; 38   : 
; 39   : 	DWORD dwCpySize = min( CUSTOM_SOUND_PACKET_SIZE, m_dwSize - dwDataPos );
; 40   : 	memcpy( rData.m_Data, &m_pData[dwDataPos], dwCpySize);

  00013	8b 5d 08	 mov	 ebx, DWORD PTR _rData$[ebp]
  00016	56		 push	 esi
  00017	8b f0		 mov	 esi, eax
  00019	b8 90 01 00 00	 mov	 eax, 400		; 00000190H
  0001e	2b f7		 sub	 esi, edi
  00020	3b f0		 cmp	 esi, eax
  00022	0f 47 f0	 cmova	 esi, eax
  00025	8b 41 04	 mov	 eax, DWORD PTR [ecx+4]
  00028	56		 push	 esi
  00029	03 c7		 add	 eax, edi
  0002b	50		 push	 eax
  0002c	53		 push	 ebx
  0002d	e8 00 00 00 00	 call	 _memcpy
  00032	83 c4 0c	 add	 esp, 12			; 0000000cH

; 41   : 	rData.m_dwWrittenSize = dwCpySize;

  00035	89 b3 90 01 00
	00		 mov	 DWORD PTR [ebx+400], esi

; 42   : 	dwDataPos += dwCpySize;

  0003b	8d 04 3e	 lea	 eax, DWORD PTR [esi+edi]
  0003e	5e		 pop	 esi
  0003f	5b		 pop	 ebx
$LN2@GetCurData:
  00040	5f		 pop	 edi

; 43   : 
; 44   : 	return dwDataPos;
; 45   : }

  00041	5d		 pop	 ebp
  00042	c2 08 00	 ret	 8
?GetCurData@CustomSoundData@@IAEKAAUtagCustomSoundPacket@@K@Z ENDP ; CustomSoundData::GetCurData
_TEXT	ENDS
PUBLIC	?OpenAndPac@CustomSoundData@@QAE_NPBDK@Z	; CustomSoundData::OpenAndPac
EXTRN	__imp_??4ioHashString@@QAEAAV0@PBD@Z:PROC
EXTRN	__imp_?GetPacPieceFileData@ioResourceLoader@@QAE_NPAEK@Z:PROC
EXTRN	??_U@YAPAXI@Z:PROC				; operator new[]
EXTRN	__imp_?PacPieceFileDataInMem@ioResourceLoader@@QAE_NPBDAAK@Z:PROC
EXTRN	__imp_?GetInstance@ioResourceLoader@@SAAAV1@XZ:PROC
EXTRN	??3@YAXPAX@Z:PROC				; operator delete
; Function compile flags: /Ogsp
;	COMDAT ?OpenAndPac@CustomSoundData@@QAE_NPBDK@Z
_TEXT	SEGMENT
_szFileName$ = 8					; size = 4
_dwCRC$ = 12						; size = 4
?OpenAndPac@CustomSoundData@@QAE_NPBDK@Z PROC		; CustomSoundData::OpenAndPac, COMDAT
; _this$ = ecx

; 48   : {

  00000	55		 push	 ebp
  00001	8b ec		 mov	 ebp, esp
  00003	53		 push	 ebx
  00004	56		 push	 esi
  00005	8b f1		 mov	 esi, ecx

; 49   : 	SAFEDELETE( m_pData );

  00007	8b 46 04	 mov	 eax, DWORD PTR [esi+4]
  0000a	57		 push	 edi
  0000b	85 c0		 test	 eax, eax
  0000d	74 0b		 je	 SHORT $LN4@OpenAndPac
  0000f	50		 push	 eax
  00010	e8 00 00 00 00	 call	 ??3@YAXPAX@Z		; operator delete
  00015	83 66 04 00	 and	 DWORD PTR [esi+4], 0
  00019	59		 pop	 ecx
$LN4@OpenAndPac:

; 50   : 
; 51   : 	if( !g_ResourceLoader.PacPieceFileDataInMem( szFileName, m_dwSize) )

  0001a	8b 1d 00 00 00
	00		 mov	 ebx, DWORD PTR __imp_?GetInstance@ioResourceLoader@@SAAAV1@XZ
  00020	8d 7e 08	 lea	 edi, DWORD PTR [esi+8]
  00023	57		 push	 edi
  00024	ff 75 08	 push	 DWORD PTR _szFileName$[ebp]
  00027	ff d3		 call	 ebx
  00029	8b c8		 mov	 ecx, eax
  0002b	ff 15 00 00 00
	00		 call	 DWORD PTR __imp_?PacPieceFileDataInMem@ioResourceLoader@@QAE_NPBDAAK@Z
  00031	84 c0		 test	 al, al
  00033	75 04		 jne	 SHORT $LN3@OpenAndPac
$LN7@OpenAndPac:

; 52   : 		return false;

  00035	32 c0		 xor	 al, al
  00037	eb 34		 jmp	 SHORT $LN5@OpenAndPac
$LN3@OpenAndPac:

; 53   : 	
; 54   : 	m_pData = new BYTE[m_dwSize];

  00039	ff 37		 push	 DWORD PTR [edi]
  0003b	e8 00 00 00 00	 call	 ??_U@YAPAXI@Z		; operator new[]
  00040	59		 pop	 ecx
  00041	89 46 04	 mov	 DWORD PTR [esi+4], eax

; 55   : 	if( !m_pData )

  00044	85 c0		 test	 eax, eax

; 56   : 		return false;

  00046	74 ed		 je	 SHORT $LN7@OpenAndPac

; 57   : 
; 58   : 	if( !g_ResourceLoader.GetPacPieceFileData( m_pData, m_dwSize ) )

  00048	ff 37		 push	 DWORD PTR [edi]
  0004a	50		 push	 eax
  0004b	ff d3		 call	 ebx
  0004d	8b c8		 mov	 ecx, eax
  0004f	ff 15 00 00 00
	00		 call	 DWORD PTR __imp_?GetPacPieceFileData@ioResourceLoader@@QAE_NPAEK@Z
  00055	84 c0		 test	 al, al

; 59   : 		return false;	

  00057	74 dc		 je	 SHORT $LN7@OpenAndPac

; 60   : 
; 61   : 	m_dwUnpacFileCRC = dwCRC;

  00059	8b 45 0c	 mov	 eax, DWORD PTR _dwCRC$[ebp]

; 62   : 	m_szFilePath     = szFileName;

  0005c	ff 75 08	 push	 DWORD PTR _szFileName$[ebp]
  0005f	8d 4e 20	 lea	 ecx, DWORD PTR [esi+32]
  00062	89 46 0c	 mov	 DWORD PTR [esi+12], eax
  00065	ff 15 00 00 00
	00		 call	 DWORD PTR __imp_??4ioHashString@@QAEAAV0@PBD@Z

; 63   : 	return true;

  0006b	b0 01		 mov	 al, 1
$LN5@OpenAndPac:
  0006d	5f		 pop	 edi
  0006e	5e		 pop	 esi
  0006f	5b		 pop	 ebx

; 64   : }

  00070	5d		 pop	 ebp
  00071	c2 08 00	 ret	 8
?OpenAndPac@CustomSoundData@@QAE_NPBDK@Z ENDP		; CustomSoundData::OpenAndPac
_TEXT	ENDS
PUBLIC	?UnpacAndSave@CustomSoundData@@QAE_NPBD@Z	; CustomSoundData::UnpacAndSave
EXTRN	__imp_?UnPacPieceFileByMem@ioResourceLoader@@QAE_NPBDPAEK@Z:PROC
; Function compile flags: /Ogsp
;	COMDAT ?UnpacAndSave@CustomSoundData@@QAE_NPBD@Z
_TEXT	SEGMENT
_szFileName$ = 8					; size = 4
?UnpacAndSave@CustomSoundData@@QAE_NPBD@Z PROC		; CustomSoundData::UnpacAndSave, COMDAT
; _this$ = ecx

; 67   : {

  00000	55		 push	 ebp
  00001	8b ec		 mov	 ebp, esp

; 68   : 	return g_ResourceLoader.UnPacPieceFileByMem( szFileName, m_pData, m_dwSize );

  00003	ff 71 08	 push	 DWORD PTR [ecx+8]
  00006	ff 71 04	 push	 DWORD PTR [ecx+4]
  00009	ff 75 08	 push	 DWORD PTR _szFileName$[ebp]
  0000c	ff 15 00 00 00
	00		 call	 DWORD PTR __imp_?GetInstance@ioResourceLoader@@SAAAV1@XZ
  00012	8b c8		 mov	 ecx, eax
  00014	ff 15 00 00 00
	00		 call	 DWORD PTR __imp_?UnPacPieceFileByMem@ioResourceLoader@@QAE_NPBDPAEK@Z

; 69   : }

  0001a	5d		 pop	 ebp
  0001b	c2 04 00	 ret	 4
?UnpacAndSave@CustomSoundData@@QAE_NPBD@Z ENDP		; CustomSoundData::UnpacAndSave
_TEXT	ENDS
PUBLIC	?SetCurData@CustomSoundData@@QAEKABUtagCustomSoundPacket@@K@Z ; CustomSoundData::SetCurData
; Function compile flags: /Ogsp
;	COMDAT ?SetCurData@CustomSoundData@@QAEKABUtagCustomSoundPacket@@K@Z
_TEXT	SEGMENT
_rData$ = 8						; size = 4
_dwDataPos$ = 12					; size = 4
?SetCurData@CustomSoundData@@QAEKABUtagCustomSoundPacket@@K@Z PROC ; CustomSoundData::SetCurData, COMDAT
; _this$ = ecx

; 139  : {

  00000	55		 push	 ebp
  00001	8b ec		 mov	 ebp, esp
  00003	56		 push	 esi

; 140  : 	if( dwDataPos >= m_dwSize ) return 0;

  00004	8b 71 08	 mov	 esi, DWORD PTR [ecx+8]
  00007	57		 push	 edi
  00008	8b 7d 0c	 mov	 edi, DWORD PTR _dwDataPos$[ebp]
  0000b	3b fe		 cmp	 edi, esi
  0000d	72 04		 jb	 SHORT $LN1@SetCurData
  0000f	33 c0		 xor	 eax, eax
  00011	eb 23		 jmp	 SHORT $LN2@SetCurData
$LN1@SetCurData:

; 141  : 
; 142  : 	DWORD dwCpySize = min( rData.m_dwWrittenSize, m_dwSize - dwDataPos );

  00013	8b 55 08	 mov	 edx, DWORD PTR _rData$[ebp]
  00016	8b 82 90 01 00
	00		 mov	 eax, DWORD PTR [edx+400]
  0001c	2b f7		 sub	 esi, edi
  0001e	3b c6		 cmp	 eax, esi
  00020	0f 42 f0	 cmovb	 esi, eax

; 143  : 	memcpy( &m_pData[dwDataPos], rData.m_Data, dwCpySize);

  00023	8b 41 04	 mov	 eax, DWORD PTR [ecx+4]
  00026	56		 push	 esi
  00027	52		 push	 edx
  00028	03 c7		 add	 eax, edi
  0002a	50		 push	 eax
  0002b	e8 00 00 00 00	 call	 _memcpy
  00030	83 c4 0c	 add	 esp, 12			; 0000000cH

; 144  : 
; 145  : 	dwDataPos += dwCpySize;

  00033	8d 04 3e	 lea	 eax, DWORD PTR [esi+edi]
$LN2@SetCurData:
  00036	5f		 pop	 edi
  00037	5e		 pop	 esi

; 146  : 	return dwDataPos;
; 147  : }

  00038	5d		 pop	 ebp
  00039	c2 08 00	 ret	 8
?SetCurData@CustomSoundData@@QAEKABUtagCustomSoundPacket@@K@Z ENDP ; CustomSoundData::SetCurData
_TEXT	ENDS
PUBLIC	?strchr@@YAPADPADH@Z				; strchr
EXTRN	__imp__strchr:PROC
; Function compile flags: /Ogsp
; File c:\program files (x86)\microsoft visual studio 10.0\vc\include\string.h
;	COMDAT ?strchr@@YAPADPADH@Z
_TEXT	SEGMENT
__Str$ = 8						; size = 4
__Ch$ = 12						; size = 4
?strchr@@YAPADPADH@Z PROC				; strchr, COMDAT

; 215  : 	{ return (char*)strchr((const char*)_Str, _Ch); }

  00000	55		 push	 ebp
  00001	8b ec		 mov	 ebp, esp
  00003	5d		 pop	 ebp
  00004	ff 25 00 00 00
	00		 jmp	 DWORD PTR __imp__strchr
?strchr@@YAPADPADH@Z ENDP				; strchr
_TEXT	ENDS
PUBLIC	?strstr@@YAPADPADPBD@Z				; strstr
EXTRN	__imp__strstr:PROC
; Function compile flags: /Ogsp
;	COMDAT ?strstr@@YAPADPADPBD@Z
_TEXT	SEGMENT
__Str$ = 8						; size = 4
__SubStr$ = 12						; size = 4
?strstr@@YAPADPADPBD@Z PROC				; strstr, COMDAT

; 221  : 	{ return (char*)strstr((const char*)_Str, _SubStr); }

  00000	55		 push	 ebp
  00001	8b ec		 mov	 ebp, esp
  00003	5d		 pop	 ebp
  00004	ff 25 00 00 00
	00		 jmp	 DWORD PTR __imp__strstr
?strstr@@YAPADPADPBD@Z ENDP				; strstr
_TEXT	ENDS
PUBLIC	??_7bad_alloc@std@@6B@				; std::bad_alloc::`vftable'
PUBLIC	??0bad_alloc@std@@QAE@PBD@Z			; std::bad_alloc::bad_alloc
PUBLIC	??_R4bad_alloc@std@@6B@				; std::bad_alloc::`RTTI Complete Object Locator'
PUBLIC	??_R0?AVbad_alloc@std@@@8			; std::bad_alloc `RTTI Type Descriptor'
PUBLIC	??_R3bad_alloc@std@@8				; std::bad_alloc::`RTTI Class Hierarchy Descriptor'
PUBLIC	??_R2bad_alloc@std@@8				; std::bad_alloc::`RTTI Base Class Array'
PUBLIC	??_R1A@?0A@EA@bad_alloc@std@@8			; std::bad_alloc::`RTTI Base Class Descriptor at (0,-1,0,64)'
PUBLIC	??_R1A@?0A@EA@exception@std@@8			; std::exception::`RTTI Base Class Descriptor at (0,-1,0,64)'
PUBLIC	??_R0?AVexception@std@@@8			; std::exception `RTTI Type Descriptor'
PUBLIC	??_R3exception@std@@8				; std::exception::`RTTI Class Hierarchy Descriptor'
PUBLIC	??_R2exception@std@@8				; std::exception::`RTTI Base Class Array'
EXTRN	__imp_??0exception@std@@QAE@ABQBD@Z:PROC
EXTRN	??_7type_info@@6B@:QWORD			; type_info::`vftable'
EXTRN	??_Ebad_alloc@std@@UAEPAXI@Z:PROC		; std::bad_alloc::`vector deleting destructor'
EXTRN	?what@exception@std@@UBEPBDXZ:PROC		; std::exception::what
;	COMDAT ??_R2exception@std@@8
; File c:\program files (x86)\microsoft visual studio 10.0\vc\include\exception
rdata$r	SEGMENT
??_R2exception@std@@8 DD FLAT:??_R1A@?0A@EA@exception@std@@8 ; std::exception::`RTTI Base Class Array'
rdata$r	ENDS
;	COMDAT ??_R3exception@std@@8
rdata$r	SEGMENT
??_R3exception@std@@8 DD 00H				; std::exception::`RTTI Class Hierarchy Descriptor'
	DD	00H
	DD	01H
	DD	FLAT:??_R2exception@std@@8
rdata$r	ENDS
;	COMDAT ??_R0?AVexception@std@@@8
_DATA	SEGMENT
??_R0?AVexception@std@@@8 DD FLAT:??_7type_info@@6B@	; std::exception `RTTI Type Descriptor'
	DD	00H
	DB	'.?AVexception@std@@', 00H
_DATA	ENDS
;	COMDAT ??_R1A@?0A@EA@exception@std@@8
rdata$r	SEGMENT
??_R1A@?0A@EA@exception@std@@8 DD FLAT:??_R0?AVexception@std@@@8 ; std::exception::`RTTI Base Class Descriptor at (0,-1,0,64)'
	DD	00H
	DD	00H
	DD	0ffffffffH
	DD	00H
	DD	040H
	DD	FLAT:??_R3exception@std@@8
rdata$r	ENDS
;	COMDAT ??_R1A@?0A@EA@bad_alloc@std@@8
rdata$r	SEGMENT
??_R1A@?0A@EA@bad_alloc@std@@8 DD FLAT:??_R0?AVbad_alloc@std@@@8 ; std::bad_alloc::`RTTI Base Class Descriptor at (0,-1,0,64)'
	DD	01H
	DD	00H
	DD	0ffffffffH
	DD	00H
	DD	040H
	DD	FLAT:??_R3bad_alloc@std@@8
rdata$r	ENDS
;	COMDAT ??_R2bad_alloc@std@@8
rdata$r	SEGMENT
??_R2bad_alloc@std@@8 DD FLAT:??_R1A@?0A@EA@bad_alloc@std@@8 ; std::bad_alloc::`RTTI Base Class Array'
	DD	FLAT:??_R1A@?0A@EA@exception@std@@8
rdata$r	ENDS
;	COMDAT ??_R3bad_alloc@std@@8
rdata$r	SEGMENT
??_R3bad_alloc@std@@8 DD 00H				; std::bad_alloc::`RTTI Class Hierarchy Descriptor'
	DD	00H
	DD	02H
	DD	FLAT:??_R2bad_alloc@std@@8
rdata$r	ENDS
;	COMDAT ??_R0?AVbad_alloc@std@@@8
_DATA	SEGMENT
??_R0?AVbad_alloc@std@@@8 DD FLAT:??_7type_info@@6B@	; std::bad_alloc `RTTI Type Descriptor'
	DD	00H
	DB	'.?AVbad_alloc@std@@', 00H
_DATA	ENDS
;	COMDAT ??_R4bad_alloc@std@@6B@
rdata$r	SEGMENT
??_R4bad_alloc@std@@6B@ DD 00H				; std::bad_alloc::`RTTI Complete Object Locator'
	DD	00H
	DD	00H
	DD	FLAT:??_R0?AVbad_alloc@std@@@8
	DD	FLAT:??_R3bad_alloc@std@@8
rdata$r	ENDS
;	COMDAT ??_7bad_alloc@std@@6B@
CONST	SEGMENT
??_7bad_alloc@std@@6B@ DD FLAT:??_R4bad_alloc@std@@6B@	; std::bad_alloc::`vftable'
	DD	FLAT:??_Ebad_alloc@std@@UAEPAXI@Z
	DD	FLAT:?what@exception@std@@UBEPBDXZ
; Function compile flags: /Ogsp
CONST	ENDS
;	COMDAT ??0bad_alloc@std@@QAE@PBD@Z
_TEXT	SEGMENT
__Message$ = 8						; size = 4
??0bad_alloc@std@@QAE@PBD@Z PROC			; std::bad_alloc::bad_alloc, COMDAT
; _this$ = ecx

; 345  : 		{	// construct from message string

  00000	55		 push	 ebp
  00001	8b ec		 mov	 ebp, esp
  00003	56		 push	 esi
  00004	8d 45 08	 lea	 eax, DWORD PTR __Message$[ebp]
  00007	50		 push	 eax
  00008	8b f1		 mov	 esi, ecx
  0000a	ff 15 00 00 00
	00		 call	 DWORD PTR __imp_??0exception@std@@QAE@ABQBD@Z
  00010	c7 06 00 00 00
	00		 mov	 DWORD PTR [esi], OFFSET ??_7bad_alloc@std@@6B@

; 346  : 		}

  00016	8b c6		 mov	 eax, esi
  00018	5e		 pop	 esi
  00019	5d		 pop	 ebp
  0001a	c2 04 00	 ret	 4
??0bad_alloc@std@@QAE@PBD@Z ENDP			; std::bad_alloc::bad_alloc
_TEXT	ENDS
PUBLIC	??1bad_alloc@std@@UAE@XZ			; std::bad_alloc::~bad_alloc
EXTRN	__imp_??1exception@std@@UAE@XZ:PROC
; Function compile flags: /Ogsp
;	COMDAT ??1bad_alloc@std@@UAE@XZ
_TEXT	SEGMENT
??1bad_alloc@std@@UAE@XZ PROC				; std::bad_alloc::~bad_alloc, COMDAT
; _this$ = ecx

; 354  : 		{	// destroy the object

  00000	c7 01 00 00 00
	00		 mov	 DWORD PTR [ecx], OFFSET ??_7bad_alloc@std@@6B@

; 355  : 		}

  00006	ff 25 00 00 00
	00		 jmp	 DWORD PTR __imp_??1exception@std@@UAE@XZ
??1bad_alloc@std@@UAE@XZ ENDP				; std::bad_alloc::~bad_alloc
; Function compile flags: /Ogsp
_TEXT	ENDS
;	COMDAT ??_Gbad_alloc@std@@UAEPAXI@Z
_TEXT	SEGMENT
___flags$ = 8						; size = 4
??_Gbad_alloc@std@@UAEPAXI@Z PROC			; std::bad_alloc::`scalar deleting destructor', COMDAT
; _this$ = ecx
  00000	55		 push	 ebp
  00001	8b ec		 mov	 ebp, esp
  00003	56		 push	 esi
  00004	8b f1		 mov	 esi, ecx
  00006	c7 06 00 00 00
	00		 mov	 DWORD PTR [esi], OFFSET ??_7bad_alloc@std@@6B@
  0000c	ff 15 00 00 00
	00		 call	 DWORD PTR __imp_??1exception@std@@UAE@XZ
  00012	f6 45 08 01	 test	 BYTE PTR ___flags$[ebp], 1
  00016	74 07		 je	 SHORT $LN1@scalar
  00018	56		 push	 esi
  00019	e8 00 00 00 00	 call	 ??3@YAXPAX@Z		; operator delete
  0001e	59		 pop	 ecx
$LN1@scalar:
  0001f	8b c6		 mov	 eax, esi
  00021	5e		 pop	 esi
  00022	5d		 pop	 ebp
  00023	c2 04 00	 ret	 4
??_Gbad_alloc@std@@UAEPAXI@Z ENDP			; std::bad_alloc::`scalar deleting destructor'
_TEXT	ENDS
PUBLIC	??2@YAPAXIPAX@Z					; operator new
; Function compile flags: /Ogsp
; File c:\program files (x86)\microsoft visual studio 10.0\vc\include\new
;	COMDAT ??2@YAPAXIPAX@Z
_TEXT	SEGMENT
___formal$ = 8						; size = 4
__Where$ = 12						; size = 4
??2@YAPAXIPAX@Z PROC					; operator new, COMDAT

; 56   : 	{	// construct array with placement at _Where

  00000	55		 push	 ebp
  00001	8b ec		 mov	 ebp, esp

; 57   : 	return (_Where);

  00003	8b 45 0c	 mov	 eax, DWORD PTR __Where$[ebp]

; 58   : 	}

  00006	5d		 pop	 ebp
  00007	c3		 ret	 0
??2@YAPAXIPAX@Z ENDP					; operator new
_TEXT	ENDS
PUBLIC	??3@YAXPAX0@Z					; operator delete
; Function compile flags: /Ogsp
;	COMDAT ??3@YAXPAX0@Z
_TEXT	SEGMENT
___formal$ = 8						; size = 4
___formal$ = 12						; size = 4
??3@YAXPAX0@Z PROC					; operator delete, COMDAT

; 62   : 	}

  00000	c3		 ret	 0
??3@YAXPAX0@Z ENDP					; operator delete
_TEXT	ENDS
PUBLIC	??1ioINILoader_e@@QAE@XZ			; ioINILoader_e::~ioINILoader_e
EXTRN	__imp_??1ioINILoader@@QAE@XZ:PROC
; Function compile flags: /Ogsp
;	COMDAT ??1ioINILoader_e@@QAE@XZ
_TEXT	SEGMENT
??1ioINILoader_e@@QAE@XZ PROC				; ioINILoader_e::~ioINILoader_e, COMDAT
; _this$ = ecx
  00000	ff 25 00 00 00
	00		 jmp	 DWORD PTR __imp_??1ioINILoader@@QAE@XZ
??1ioINILoader_e@@QAE@XZ ENDP				; ioINILoader_e::~ioINILoader_e
_TEXT	ENDS
PUBLIC	?FilterChar@ioCustomSoundMgr@@IAEXPBDPAD1@Z	; ioCustomSoundMgr::FilterChar
; Function compile flags: /Ogsp
; File d:\lost saga for developer\youtube\tutorial\source\src\lsclient\iocustomsoundmgr.cpp
;	COMDAT ?FilterChar@ioCustomSoundMgr@@IAEXPBDPAD1@Z
_TEXT	SEGMENT
_bFiltered$ = -1					; size = 1
_src$ = 8						; size = 4
_dst$ = 12						; size = 4
_szFilterChar$ = 16					; size = 4
?FilterChar@ioCustomSoundMgr@@IAEXPBDPAD1@Z PROC	; ioCustomSoundMgr::FilterChar, COMDAT
; _this$ = ecx

; 412  : {

  00000	55		 push	 ebp
  00001	8b ec		 mov	 ebp, esp
  00003	51		 push	 ecx
  00004	53		 push	 ebx

; 413  : 	if(szFilterChar == NULL) return;

  00005	33 db		 xor	 ebx, ebx
  00007	39 5d 10	 cmp	 DWORD PTR _szFilterChar$[ebp], ebx
  0000a	74 3c		 je	 SHORT $LN1@FilterChar

; 414  : 
; 415  : 	bool bFiltered = false;
; 416  : 	char *srcp = (char *) src;
; 417  : 	char *dstp = dst;

  0000c	56		 push	 esi
  0000d	8b 75 0c	 mov	 esi, DWORD PTR _dst$[ebp]
  00010	57		 push	 edi
  00011	8b 7d 08	 mov	 edi, DWORD PTR _src$[ebp]
  00014	88 5d ff	 mov	 BYTE PTR _bFiltered$[ebp], bl
  00017	eb 1f		 jmp	 SHORT $LN17@FilterChar
$LL7@FilterChar:

; 420  : 	{
; 421  : 		if (strchr(szFilterChar, *srcp) == NULL) 

  00019	0f be 07	 movsx	 eax, BYTE PTR [edi]
  0001c	50		 push	 eax
  0001d	ff 75 10	 push	 DWORD PTR _szFilterChar$[ebp]
  00020	ff 15 00 00 00
	00		 call	 DWORD PTR __imp__strchr
  00026	59		 pop	 ecx
  00027	59		 pop	 ecx
  00028	85 c0		 test	 eax, eax
  0002a	75 07		 jne	 SHORT $LN5@FilterChar

; 422  : 		{
; 423  : 			*dstp = *srcp;   

  0002c	8a 07		 mov	 al, BYTE PTR [edi]
  0002e	88 06		 mov	 BYTE PTR [esi], al

; 424  : 			dstp += 1;

  00030	46		 inc	 esi

; 425  : 		}
; 426  : 		else

  00031	eb 04		 jmp	 SHORT $LN2@FilterChar
$LN5@FilterChar:

; 427  : 		{
; 428  : 
; 429  : #if defined( SRC_OVERSEAS ) && !defined( SRC_ID )
; 430  : 
; 431  : #if defined( MULTI_BYTE_CHECK )
; 432  : 			if( IsDBCSLeadByteEx( COUNTRY_CODE_PAGE, *srcp ) )
; 433  : #else
; 434  : 			if( false && IsDBCSLeadByteEx( COUNTRY_CODE_PAGE, *srcp) ) 
; 435  : #endif
; 436  : 
; 437  : #else
; 438  : 			if( IsDBCSLeadByte(*srcp)) 
; 439  : #endif
; 440  : 
; 441  : 			{
; 442  : 				*dstp = *srcp;   
; 443  : 				dstp += 1;
; 444  : 			}
; 445  : 			else
; 446  : 			{
; 447  : 				bFiltered = true;

  00033	c6 45 ff 01	 mov	 BYTE PTR _bFiltered$[ebp], 1
$LN2@FilterChar:

; 448  : 			}
; 449  : 		}
; 450  : 		srcp += 1;

  00037	47		 inc	 edi
$LN17@FilterChar:

; 418  : 
; 419  : 	while (*srcp) 

  00038	38 1f		 cmp	 BYTE PTR [edi], bl
  0003a	75 dd		 jne	 SHORT $LL7@FilterChar

; 451  : 	}
; 452  : 	*dstp = 0;

  0003c	88 1e		 mov	 BYTE PTR [esi], bl

; 453  : 
; 454  : 	// 앞에 글자로 NULL이 변형되는 것을 방지하기 위해서
; 455  : 	if( bFiltered )

  0003e	38 5d ff	 cmp	 BYTE PTR _bFiltered$[ebp], bl
  00041	74 03		 je	 SHORT $LN16@FilterChar

; 456  : 	{
; 457  : 		dstp += 1;
; 458  : 		*dstp = 0;

  00043	88 5e 01	 mov	 BYTE PTR [esi+1], bl
$LN16@FilterChar:
  00046	5f		 pop	 edi
  00047	5e		 pop	 esi
$LN1@FilterChar:
  00048	5b		 pop	 ebx

; 459  : 	}
; 460  : }

  00049	c9		 leave
  0004a	c2 0c 00	 ret	 12			; 0000000cH
?FilterChar@ioCustomSoundMgr@@IAEXPBDPAD1@Z ENDP	; ioCustomSoundMgr::FilterChar
_TEXT	ENDS
PUBLIC	?PlayByPath@ioCustomSoundMgr@@QAEXPBD@Z		; ioCustomSoundMgr::PlayByPath
EXTRN	__imp_??1ioHashString@@QAE@XZ:PROC
EXTRN	__imp_?PlayPieceSound@ioSoundManager@@QAEKABVioHashString@@HK@Z:PROC
EXTRN	__imp_?GetSingleton@ioSoundManager@@SAAAV1@XZ:PROC
EXTRN	__imp_??0ioHashString@@QAE@PBD@Z:PROC
EXTRN	___CxxFrameHandler3:PROC
EXTRN	@__security_check_cookie@4:PROC
EXTRN	__EH_epilog3:PROC
EXTRN	__EH_prolog3:PROC
;	COMDAT xdata$x
xdata$x	SEGMENT
__unwindtable$?PlayByPath@ioCustomSoundMgr@@QAEXPBD@Z DD 0ffffffffH
	DD	FLAT:__unwindfunclet$?PlayByPath@ioCustomSoundMgr@@QAEXPBD@Z$0
__ehfuncinfo$?PlayByPath@ioCustomSoundMgr@@QAEXPBD@Z DD 019930522H
	DD	01H
	DD	FLAT:__unwindtable$?PlayByPath@ioCustomSoundMgr@@QAEXPBD@Z
	DD	2 DUP(00H)
	DD	2 DUP(00H)
	DD	00H
	DD	01H
; Function compile flags: /Ogsp
xdata$x	ENDS
;	COMDAT ?PlayByPath@ioCustomSoundMgr@@QAEXPBD@Z
_TEXT	SEGMENT
$T510923 = -28						; size = 16
__$EHRec$ = -12						; size = 12
_szPath$ = 8						; size = 4
?PlayByPath@ioCustomSoundMgr@@QAEXPBD@Z PROC		; ioCustomSoundMgr::PlayByPath, COMDAT
; _this$ = ecx

; 508  : {

  00000	6a 10		 push	 16			; 00000010H
  00002	b8 00 00 00 00	 mov	 eax, __ehhandler$?PlayByPath@ioCustomSoundMgr@@QAEXPBD@Z
  00007	e8 00 00 00 00	 call	 __EH_prolog3

; 509  : 	g_SoundMgr.PlayPieceSound( ioHashString(szPath) );

  0000c	ff 75 08	 push	 DWORD PTR _szPath$[ebp]
  0000f	8d 4d e4	 lea	 ecx, DWORD PTR $T510923[ebp]
  00012	ff 15 00 00 00
	00		 call	 DWORD PTR __imp_??0ioHashString@@QAE@PBD@Z
  00018	83 65 fc 00	 and	 DWORD PTR __$EHRec$[ebp+8], 0
  0001c	6a 04		 push	 4
  0001e	6a 00		 push	 0
  00020	50		 push	 eax
  00021	ff 15 00 00 00
	00		 call	 DWORD PTR __imp_?GetSingleton@ioSoundManager@@SAAAV1@XZ
  00027	8b c8		 mov	 ecx, eax
  00029	ff 15 00 00 00
	00		 call	 DWORD PTR __imp_?PlayPieceSound@ioSoundManager@@QAEKABVioHashString@@HK@Z
  0002f	83 4d fc ff	 or	 DWORD PTR __$EHRec$[ebp+8], -1
  00033	8d 4d e4	 lea	 ecx, DWORD PTR $T510923[ebp]
  00036	ff 15 00 00 00
	00		 call	 DWORD PTR __imp_??1ioHashString@@QAE@XZ

; 510  : }

  0003c	e8 00 00 00 00	 call	 __EH_epilog3
  00041	c2 04 00	 ret	 4
_TEXT	ENDS
;	COMDAT text$x
text$x	SEGMENT
__unwindfunclet$?PlayByPath@ioCustomSoundMgr@@QAEXPBD@Z$0:
  00000	8d 4d e4	 lea	 ecx, DWORD PTR $T510923[ebp]
  00003	ff 25 00 00 00
	00		 jmp	 DWORD PTR __imp_??1ioHashString@@QAE@XZ
__ehhandler$?PlayByPath@ioCustomSoundMgr@@QAEXPBD@Z:
  00009	8b 54 24 08	 mov	 edx, DWORD PTR [esp+8]
  0000d	8d 42 0c	 lea	 eax, DWORD PTR [edx+12]
  00010	8b 4a e0	 mov	 ecx, DWORD PTR [edx-32]
  00013	33 c8		 xor	 ecx, eax
  00015	e8 00 00 00 00	 call	 @__security_check_cookie@4
  0001a	b8 00 00 00 00	 mov	 eax, OFFSET __ehfuncinfo$?PlayByPath@ioCustomSoundMgr@@QAEXPBD@Z
  0001f	e9 00 00 00 00	 jmp	 ___CxxFrameHandler3
text$x	ENDS
?PlayByPath@ioCustomSoundMgr@@QAEXPBD@Z ENDP		; ioCustomSoundMgr::PlayByPath
PUBLIC	?_Adopt@_Iterator_base0@std@@QAEXPBX@Z		; std::_Iterator_base0::_Adopt
; Function compile flags: /Ogsp
; File c:\program files (x86)\microsoft visual studio 10.0\vc\include\xutility
;	COMDAT ?_Adopt@_Iterator_base0@std@@QAEXPBX@Z
_TEXT	SEGMENT
___formal$ = 8						; size = 4
?_Adopt@_Iterator_base0@std@@QAEXPBX@Z PROC		; std::_Iterator_base0::_Adopt, COMDAT
; _this$ = ecx

; 49   : 		}

  00000	c2 04 00	 ret	 4
?_Adopt@_Iterator_base0@std@@QAEXPBX@Z ENDP		; std::_Iterator_base0::_Adopt
_TEXT	ENDS
PUBLIC	??_GioWaveFile@@QAEPAXI@Z			; ioWaveFile::`scalar deleting destructor'
EXTRN	__imp_??1ioWaveFile@@QAE@XZ:PROC
; Function compile flags: /Ogsp
;	COMDAT ??_GioWaveFile@@QAEPAXI@Z
_TEXT	SEGMENT
___flags$ = 8						; size = 4
??_GioWaveFile@@QAEPAXI@Z PROC				; ioWaveFile::`scalar deleting destructor', COMDAT
; _this$ = ecx
  00000	55		 push	 ebp
  00001	8b ec		 mov	 ebp, esp
  00003	56		 push	 esi
  00004	8b f1		 mov	 esi, ecx
  00006	ff 15 00 00 00
	00		 call	 DWORD PTR __imp_??1ioWaveFile@@QAE@XZ
  0000c	f6 45 08 01	 test	 BYTE PTR ___flags$[ebp], 1
  00010	74 07		 je	 SHORT $LN1@scalar@2
  00012	56		 push	 esi
  00013	e8 00 00 00 00	 call	 ??3@YAXPAX@Z		; operator delete
  00018	59		 pop	 ecx
$LN1@scalar@2:
  00019	8b c6		 mov	 eax, esi
  0001b	5e		 pop	 esi
  0001c	5d		 pop	 ebp
  0001d	c2 04 00	 ret	 4
??_GioWaveFile@@QAEPAXI@Z ENDP				; ioWaveFile::`scalar deleting destructor'
_TEXT	ENDS
PUBLIC	__$ArrayPad$
PUBLIC	?GetFilteredKeyword@ioCustomSoundMgr@@QAEXPBDAAVioHashString@@@Z ; ioCustomSoundMgr::GetFilteredKeyword
EXTRN	___security_cookie:DWORD
EXTRN	_memset:PROC
; Function compile flags: /Ogsp
; File d:\lost saga for developer\youtube\tutorial\source\src\lsclient\iocustomsoundmgr.cpp
;	COMDAT ?GetFilteredKeyword@ioCustomSoundMgr@@QAEXPBDAAVioHashString@@@Z
_TEXT	SEGMENT
_string$ = -524						; size = 520
__$ArrayPad$ = -4					; size = 4
_szKeyword$ = 8						; size = 4
_rszFiltered$ = 12					; size = 4
?GetFilteredKeyword@ioCustomSoundMgr@@QAEXPBDAAVioHashString@@@Z PROC ; ioCustomSoundMgr::GetFilteredKeyword, COMDAT
; _this$ = ecx

; 1010 : {

  00000	55		 push	 ebp
  00001	8b ec		 mov	 ebp, esp
  00003	81 ec 0c 02 00
	00		 sub	 esp, 524		; 0000020cH
  00009	a1 00 00 00 00	 mov	 eax, DWORD PTR ___security_cookie
  0000e	33 c5		 xor	 eax, ebp
  00010	89 45 fc	 mov	 DWORD PTR __$ArrayPad$[ebp], eax
  00013	53		 push	 ebx
  00014	56		 push	 esi
  00015	8b 75 08	 mov	 esi, DWORD PTR _szKeyword$[ebp]
  00018	57		 push	 edi
  00019	8b 7d 0c	 mov	 edi, DWORD PTR _rszFiltered$[ebp]

; 1011 : 	char string[MAX_PATH*2];
; 1012 : 	memset( string, 0, MAX_PATH*2 );

  0001c	68 08 02 00 00	 push	 520			; 00000208H
  00021	8d 85 f4 fd ff
	ff		 lea	 eax, DWORD PTR _string$[ebp]
  00027	6a 00		 push	 0
  00029	50		 push	 eax
  0002a	8b d9		 mov	 ebx, ecx
  0002c	e8 00 00 00 00	 call	 _memset
  00031	83 c4 0c	 add	 esp, 12			; 0000000cH

; 1013 : 	FilterChar( szKeyword, string, g_szFilterChar);

  00034	68 00 00 00 00	 push	 OFFSET ?g_szFilterChar@@3PADA ; g_szFilterChar
  00039	8d 85 f4 fd ff
	ff		 lea	 eax, DWORD PTR _string$[ebp]
  0003f	50		 push	 eax
  00040	56		 push	 esi
  00041	8b cb		 mov	 ecx, ebx
  00043	e8 00 00 00 00	 call	 ?FilterChar@ioCustomSoundMgr@@IAEXPBDPAD1@Z ; ioCustomSoundMgr::FilterChar

; 1014 : 	rszFiltered = string;

  00048	8d 85 f4 fd ff
	ff		 lea	 eax, DWORD PTR _string$[ebp]
  0004e	50		 push	 eax
  0004f	8b cf		 mov	 ecx, edi
  00051	ff 15 00 00 00
	00		 call	 DWORD PTR __imp_??4ioHashString@@QAEAAV0@PBD@Z

; 1015 : }

  00057	8b 4d fc	 mov	 ecx, DWORD PTR __$ArrayPad$[ebp]
  0005a	5f		 pop	 edi
  0005b	5e		 pop	 esi
  0005c	33 cd		 xor	 ecx, ebp
  0005e	5b		 pop	 ebx
  0005f	e8 00 00 00 00	 call	 @__security_check_cookie@4
  00064	c9		 leave
  00065	c2 08 00	 ret	 8
?GetFilteredKeyword@ioCustomSoundMgr@@QAEXPBDAAVioHashString@@@Z ENDP ; ioCustomSoundMgr::GetFilteredKeyword
_TEXT	ENDS
PUBLIC	?IsCanTimePlayMy@ioCustomSoundMgr@@QBE_NXZ	; ioCustomSoundMgr::IsCanTimePlayMy
EXTRN	__imp_?GetLoopSec@ioFrameTimer@@QBEKXZ:PROC
EXTRN	__imp_?GetSingleton@ioFrameTimer@@SAAAV1@XZ:PROC
; Function compile flags: /Ogsp
;	COMDAT ?IsCanTimePlayMy@ioCustomSoundMgr@@QBE_NXZ
_TEXT	SEGMENT
?IsCanTimePlayMy@ioCustomSoundMgr@@QBE_NXZ PROC		; ioCustomSoundMgr::IsCanTimePlayMy, COMDAT
; _this$ = ecx

; 1018 : {

  00000	56		 push	 esi
  00001	8b f1		 mov	 esi, ecx

; 1019 : 	if( FRAMEGETTIME() - m_dwLastTimePlayMy > m_dwDelayTimePlayMy )

  00003	ff 15 00 00 00
	00		 call	 DWORD PTR __imp_?GetSingleton@ioFrameTimer@@SAAAV1@XZ
  00009	8b c8		 mov	 ecx, eax
  0000b	ff 15 00 00 00
	00		 call	 DWORD PTR __imp_?GetLoopSec@ioFrameTimer@@QBEKXZ
  00011	2b 46 2c	 sub	 eax, DWORD PTR [esi+44]
  00014	3b 46 28	 cmp	 eax, DWORD PTR [esi+40]
  00017	5e		 pop	 esi
  00018	0f 97 c0	 seta	 al

; 1020 : 		return true;
; 1021 : 
; 1022 : 	return false;
; 1023 : }

  0001b	c3		 ret	 0
?IsCanTimePlayMy@ioCustomSoundMgr@@QBE_NXZ ENDP		; ioCustomSoundMgr::IsCanTimePlayMy
_TEXT	ENDS
PUBLIC	??A?$vector@VioHashString@@V?$allocator@VioHashString@@@std@@@std@@QAEAAVioHashString@@I@Z ; std::vector<ioHashString,std::allocator<ioHashString> >::operator[]
; Function compile flags: /Ogsp
; File c:\program files (x86)\microsoft visual studio 10.0\vc\include\vector
;	COMDAT ??A?$vector@VioHashString@@V?$allocator@VioHashString@@@std@@@std@@QAEAAVioHashString@@I@Z
_TEXT	SEGMENT
__Pos$ = 8						; size = 4
??A?$vector@VioHashString@@V?$allocator@VioHashString@@@std@@@std@@QAEAAVioHashString@@I@Z PROC ; std::vector<ioHashString,std::allocator<ioHashString> >::operator[], COMDAT
; _this$ = ecx

; 928  : 		{	// subscript mutable sequence

  00000	55		 push	 ebp
  00001	8b ec		 mov	 ebp, esp

; 929  :  #if _ITERATOR_DEBUG_LEVEL == 2
; 930  : 		if (size() <= _Pos)
; 931  : 			{	// report error
; 932  : 			_DEBUG_ERROR("vector subscript out of range");
; 933  : 			_SCL_SECURE_OUT_OF_RANGE;
; 934  : 			}
; 935  : 
; 936  :  #elif _ITERATOR_DEBUG_LEVEL == 1
; 937  : 		_SCL_SECURE_VALIDATE_RANGE(_Pos < size());
; 938  :  #endif /* _ITERATOR_DEBUG_LEVEL */
; 939  : 
; 940  : 		return (*(this->_Myfirst + _Pos));

  00003	8b 45 08	 mov	 eax, DWORD PTR __Pos$[ebp]
  00006	c1 e0 04	 shl	 eax, 4
  00009	03 01		 add	 eax, DWORD PTR [ecx]

; 941  : 		}

  0000b	5d		 pop	 ebp
  0000c	c2 04 00	 ret	 4
??A?$vector@VioHashString@@V?$allocator@VioHashString@@@std@@@std@@QAEAAVioHashString@@I@Z ENDP ; std::vector<ioHashString,std::allocator<ioHashString> >::operator[]
_TEXT	ENDS
PUBLIC	??0?$Singleton@VioCustomSoundMgr@@@@QAE@XZ	; Singleton<ioCustomSoundMgr>::Singleton<ioCustomSoundMgr>
; Function compile flags: /Ogsp
; File d:\lost saga for developer\youtube\tutorial\source\src\io3dengine\iosingleton.h
;	COMDAT ??0?$Singleton@VioCustomSoundMgr@@@@QAE@XZ
_TEXT	SEGMENT
??0?$Singleton@VioCustomSoundMgr@@@@QAE@XZ PROC		; Singleton<ioCustomSoundMgr>::Singleton<ioCustomSoundMgr>, COMDAT
; _this$ = ecx

; 27   : 	Singleton()

  00000	8b c1		 mov	 eax, ecx

; 28   : 	{
; 29   : 		assert( !ms_Singleton );
; 30   : 		int offset = (int)(T*)1 - (int)(Singleton <T>*)(T*)1;
; 31   : 		ms_Singleton = (T*)((int)this + offset);

  00002	8d 48 fc	 lea	 ecx, DWORD PTR [eax-4]
  00005	89 0d 00 00 00
	00		 mov	 DWORD PTR ?ms_Singleton@?$Singleton@VioCustomSoundMgr@@@@1PAVioCustomSoundMgr@@A, ecx ; Singleton<ioCustomSoundMgr>::ms_Singleton

; 32   : 	}

  0000b	c3		 ret	 0
??0?$Singleton@VioCustomSoundMgr@@@@QAE@XZ ENDP		; Singleton<ioCustomSoundMgr>::Singleton<ioCustomSoundMgr>
_TEXT	ENDS
PUBLIC	??1?$Singleton@VioCustomSoundMgr@@@@QAE@XZ	; Singleton<ioCustomSoundMgr>::~Singleton<ioCustomSoundMgr>
; Function compile flags: /Ogsp
;	COMDAT ??1?$Singleton@VioCustomSoundMgr@@@@QAE@XZ
_TEXT	SEGMENT
??1?$Singleton@VioCustomSoundMgr@@@@QAE@XZ PROC		; Singleton<ioCustomSoundMgr>::~Singleton<ioCustomSoundMgr>, COMDAT
; _this$ = ecx

; 36   : 		assert( ms_Singleton );
; 37   : 		ms_Singleton = 0;

  00000	83 25 00 00 00
	00 00		 and	 DWORD PTR ?ms_Singleton@?$Singleton@VioCustomSoundMgr@@@@1PAVioCustomSoundMgr@@A, 0 ; Singleton<ioCustomSoundMgr>::ms_Singleton

; 38   : 	}

  00007	c3		 ret	 0
??1?$Singleton@VioCustomSoundMgr@@@@QAE@XZ ENDP		; Singleton<ioCustomSoundMgr>::~Singleton<ioCustomSoundMgr>
_TEXT	ENDS
PUBLIC	?GetSingleton@?$Singleton@VioCustomSoundMgr@@@@SAAAVioCustomSoundMgr@@XZ ; Singleton<ioCustomSoundMgr>::GetSingleton
; Function compile flags: /Ogsp
;	COMDAT ?GetSingleton@?$Singleton@VioCustomSoundMgr@@@@SAAAVioCustomSoundMgr@@XZ
_TEXT	SEGMENT
?GetSingleton@?$Singleton@VioCustomSoundMgr@@@@SAAAVioCustomSoundMgr@@XZ PROC ; Singleton<ioCustomSoundMgr>::GetSingleton, COMDAT

; 42   : 		assert( ms_Singleton );
; 43   : 		return (*ms_Singleton);

  00000	a1 00 00 00 00	 mov	 eax, DWORD PTR ?ms_Singleton@?$Singleton@VioCustomSoundMgr@@@@1PAVioCustomSoundMgr@@A ; Singleton<ioCustomSoundMgr>::ms_Singleton

; 44   : 	}

  00005	c3		 ret	 0
?GetSingleton@?$Singleton@VioCustomSoundMgr@@@@SAAAVioCustomSoundMgr@@XZ ENDP ; Singleton<ioCustomSoundMgr>::GetSingleton
_TEXT	ENDS
PUBLIC	?size@?$_Tree@V?$_Tmap_traits@KPAVCustomSoundData@@U?$less@K@std@@V?$allocator@U?$pair@$$CBKPAVCustomSoundData@@@std@@@3@$0A@@std@@@std@@QBEIXZ ; std::_Tree<std::_Tmap_traits<unsigned long,CustomSoundData *,std::less<unsigned long>,std::allocator<std::pair<unsigned long const ,CustomSoundData *> >,0> >::size
; Function compile flags: /Ogsp
; File c:\program files (x86)\microsoft visual studio 10.0\vc\include\xtree
;	COMDAT ?size@?$_Tree@V?$_Tmap_traits@KPAVCustomSoundData@@U?$less@K@std@@V?$allocator@U?$pair@$$CBKPAVCustomSoundData@@@std@@@3@$0A@@std@@@std@@QBEIXZ
_TEXT	SEGMENT
?size@?$_Tree@V?$_Tmap_traits@KPAVCustomSoundData@@U?$less@K@std@@V?$allocator@U?$pair@$$CBKPAVCustomSoundData@@@std@@@3@$0A@@std@@@std@@QBEIXZ PROC ; std::_Tree<std::_Tmap_traits<unsigned long,CustomSoundData *,std::less<unsigned long>,std::allocator<std::pair<unsigned long const ,CustomSoundData *> >,0> >::size, COMDAT
; _this$ = ecx

; 869  : 		return (this->_Mysize);

  00000	8b 41 08	 mov	 eax, DWORD PTR [ecx+8]

; 870  : 		}

  00003	c3		 ret	 0
?size@?$_Tree@V?$_Tmap_traits@KPAVCustomSoundData@@U?$less@K@std@@V?$allocator@U?$pair@$$CBKPAVCustomSoundData@@@std@@@3@$0A@@std@@@std@@QBEIXZ ENDP ; std::_Tree<std::_Tmap_traits<unsigned long,CustomSoundData *,std::less<unsigned long>,std::allocator<std::pair<unsigned long const ,CustomSoundData *> >,0> >::size
_TEXT	ENDS
PUBLIC	?empty@?$_Tree@V?$_Tmap_traits@KPAVCustomSoundData@@U?$less@K@std@@V?$allocator@U?$pair@$$CBKPAVCustomSoundData@@@std@@@3@$0A@@std@@@std@@QBE_NXZ ; std::_Tree<std::_Tmap_traits<unsigned long,CustomSoundData *,std::less<unsigned long>,std::allocator<std::pair<unsigned long const ,CustomSoundData *> >,0> >::empty
; Function compile flags: /Ogsp
;	COMDAT ?empty@?$_Tree@V?$_Tmap_traits@KPAVCustomSoundData@@U?$less@K@std@@V?$allocator@U?$pair@$$CBKPAVCustomSoundData@@@std@@@3@$0A@@std@@@std@@QBE_NXZ
_TEXT	SEGMENT
?empty@?$_Tree@V?$_Tmap_traits@KPAVCustomSoundData@@U?$less@K@std@@V?$allocator@U?$pair@$$CBKPAVCustomSoundData@@@std@@@3@$0A@@std@@@std@@QBE_NXZ PROC ; std::_Tree<std::_Tmap_traits<unsigned long,CustomSoundData *,std::less<unsigned long>,std::allocator<std::pair<unsigned long const ,CustomSoundData *> >,0> >::empty, COMDAT
; _this$ = ecx

; 879  : 		return (size() == 0);

  00000	33 c0		 xor	 eax, eax
  00002	39 41 08	 cmp	 DWORD PTR [ecx+8], eax
  00005	0f 94 c0	 sete	 al

; 880  : 		}

  00008	c3		 ret	 0
?empty@?$_Tree@V?$_Tmap_traits@KPAVCustomSoundData@@U?$less@K@std@@V?$allocator@U?$pair@$$CBKPAVCustomSoundData@@@std@@@3@$0A@@std@@@std@@QBE_NXZ ENDP ; std::_Tree<std::_Tmap_traits<unsigned long,CustomSoundData *,std::less<unsigned long>,std::allocator<std::pair<unsigned long const ,CustomSoundData *> >,0> >::empty
_TEXT	ENDS
PUBLIC	?empty@?$vector@PAUtagCustomSoundInfo@ioCustomSoundMgr@@V?$allocator@PAUtagCustomSoundInfo@ioCustomSoundMgr@@@std@@@std@@QBE_NXZ ; std::vector<ioCustomSoundMgr::tagCustomSoundInfo *,std::allocator<ioCustomSoundMgr::tagCustomSoundInfo *> >::empty
; Function compile flags: /Ogsp
; File c:\program files (x86)\microsoft visual studio 10.0\vc\include\vector
;	COMDAT ?empty@?$vector@PAUtagCustomSoundInfo@ioCustomSoundMgr@@V?$allocator@PAUtagCustomSoundInfo@ioCustomSoundMgr@@@std@@@std@@QBE_NXZ
_TEXT	SEGMENT
?empty@?$vector@PAUtagCustomSoundInfo@ioCustomSoundMgr@@V?$allocator@PAUtagCustomSoundInfo@ioCustomSoundMgr@@@std@@@std@@QBE_NXZ PROC ; std::vector<ioCustomSoundMgr::tagCustomSoundInfo *,std::allocator<ioCustomSoundMgr::tagCustomSoundInfo *> >::empty, COMDAT
; _this$ = ecx

; 889  : 		return (this->_Myfirst == this->_Mylast);

  00000	8b 01		 mov	 eax, DWORD PTR [ecx]
  00002	2b 41 04	 sub	 eax, DWORD PTR [ecx+4]
  00005	f7 d8		 neg	 eax
  00007	1b c0		 sbb	 eax, eax
  00009	40		 inc	 eax

; 890  : 		}

  0000a	c3		 ret	 0
?empty@?$vector@PAUtagCustomSoundInfo@ioCustomSoundMgr@@V?$allocator@PAUtagCustomSoundInfo@ioCustomSoundMgr@@@std@@@std@@QBE_NXZ ENDP ; std::vector<ioCustomSoundMgr::tagCustomSoundInfo *,std::allocator<ioCustomSoundMgr::tagCustomSoundInfo *> >::empty
_TEXT	ENDS
PUBLIC	??A?$vector@PAUtagCustomSoundInfo@ioCustomSoundMgr@@V?$allocator@PAUtagCustomSoundInfo@ioCustomSoundMgr@@@std@@@std@@QAEAAPAUtagCustomSoundInfo@ioCustomSoundMgr@@I@Z ; std::vector<ioCustomSoundMgr::tagCustomSoundInfo *,std::allocator<ioCustomSoundMgr::tagCustomSoundInfo *> >::operator[]
; Function compile flags: /Ogsp
;	COMDAT ??A?$vector@PAUtagCustomSoundInfo@ioCustomSoundMgr@@V?$allocator@PAUtagCustomSoundInfo@ioCustomSoundMgr@@@std@@@std@@QAEAAPAUtagCustomSoundInfo@ioCustomSoundMgr@@I@Z
_TEXT	SEGMENT
__Pos$ = 8						; size = 4
??A?$vector@PAUtagCustomSoundInfo@ioCustomSoundMgr@@V?$allocator@PAUtagCustomSoundInfo@ioCustomSoundMgr@@@std@@@std@@QAEAAPAUtagCustomSoundInfo@ioCustomSoundMgr@@I@Z PROC ; std::vector<ioCustomSoundMgr::tagCustomSoundInfo *,std::allocator<ioCustomSoundMgr::tagCustomSoundInfo *> >::operator[], COMDAT
; _this$ = ecx

; 928  : 		{	// subscript mutable sequence

  00000	55		 push	 ebp
  00001	8b ec		 mov	 ebp, esp

; 929  :  #if _ITERATOR_DEBUG_LEVEL == 2
; 930  : 		if (size() <= _Pos)
; 931  : 			{	// report error
; 932  : 			_DEBUG_ERROR("vector subscript out of range");
; 933  : 			_SCL_SECURE_OUT_OF_RANGE;
; 934  : 			}
; 935  : 
; 936  :  #elif _ITERATOR_DEBUG_LEVEL == 1
; 937  : 		_SCL_SECURE_VALIDATE_RANGE(_Pos < size());
; 938  :  #endif /* _ITERATOR_DEBUG_LEVEL */
; 939  : 
; 940  : 		return (*(this->_Myfirst + _Pos));

  00003	8b 01		 mov	 eax, DWORD PTR [ecx]
  00005	8b 4d 08	 mov	 ecx, DWORD PTR __Pos$[ebp]
  00008	8d 04 88	 lea	 eax, DWORD PTR [eax+ecx*4]

; 941  : 		}

  0000b	5d		 pop	 ebp
  0000c	c2 04 00	 ret	 4
??A?$vector@PAUtagCustomSoundInfo@ioCustomSoundMgr@@V?$allocator@PAUtagCustomSoundInfo@ioCustomSoundMgr@@@std@@@std@@QAEAAPAUtagCustomSoundInfo@ioCustomSoundMgr@@I@Z ENDP ; std::vector<ioCustomSoundMgr::tagCustomSoundInfo *,std::allocator<ioCustomSoundMgr::tagCustomSoundInfo *> >::operator[]
_TEXT	ENDS
PUBLIC	?_Inside@?$vector@VioHashString@@V?$allocator@VioHashString@@@std@@@std@@IBE_NPBVioHashString@@@Z ; std::vector<ioHashString,std::allocator<ioHashString> >::_Inside
; Function compile flags: /Ogsp
;	COMDAT ?_Inside@?$vector@VioHashString@@V?$allocator@VioHashString@@@std@@@std@@IBE_NPBVioHashString@@@Z
_TEXT	SEGMENT
__Ptr$ = 8						; size = 4
?_Inside@?$vector@VioHashString@@V?$allocator@VioHashString@@@std@@@std@@IBE_NPBVioHashString@@@Z PROC ; std::vector<ioHashString,std::allocator<ioHashString> >::_Inside, COMDAT
; _this$ = ecx

; 1285 : 		{	// test if _Ptr points inside vector

  00000	55		 push	 ebp
  00001	8b ec		 mov	 ebp, esp

; 1286 : 		return (_Ptr < this->_Mylast && this->_Myfirst <= _Ptr);

  00003	8b 45 08	 mov	 eax, DWORD PTR __Ptr$[ebp]
  00006	3b 41 04	 cmp	 eax, DWORD PTR [ecx+4]
  00009	73 09		 jae	 SHORT $LN3@Inside
  0000b	39 01		 cmp	 DWORD PTR [ecx], eax
  0000d	77 05		 ja	 SHORT $LN3@Inside
  0000f	33 c0		 xor	 eax, eax
  00011	40		 inc	 eax
  00012	eb 02		 jmp	 SHORT $LN4@Inside
$LN3@Inside:
  00014	33 c0		 xor	 eax, eax
$LN4@Inside:

; 1287 : 		}

  00016	5d		 pop	 ebp
  00017	c2 04 00	 ret	 4
?_Inside@?$vector@VioHashString@@V?$allocator@VioHashString@@@std@@@std@@IBE_NPBVioHashString@@@Z ENDP ; std::vector<ioHashString,std::allocator<ioHashString> >::_Inside
_TEXT	ENDS
PUBLIC	?_Orphan_range@?$vector@VioHashString@@V?$allocator@VioHashString@@@std@@@std@@IBEXPAVioHashString@@0@Z ; std::vector<ioHashString,std::allocator<ioHashString> >::_Orphan_range
; Function compile flags: /Ogsp
;	COMDAT ?_Orphan_range@?$vector@VioHashString@@V?$allocator@VioHashString@@@std@@@std@@IBEXPAVioHashString@@0@Z
_TEXT	SEGMENT
___formal$ = 8						; size = 4
___formal$ = 12						; size = 4
?_Orphan_range@?$vector@VioHashString@@V?$allocator@VioHashString@@@std@@@std@@IBEXPAVioHashString@@0@Z PROC ; std::vector<ioHashString,std::allocator<ioHashString> >::_Orphan_range, COMDAT
; _this$ = ecx

; 1454 : 		}

  00000	c2 08 00	 ret	 8
?_Orphan_range@?$vector@VioHashString@@V?$allocator@VioHashString@@@std@@@std@@IBEXPAVioHashString@@0@Z ENDP ; std::vector<ioHashString,std::allocator<ioHashString> >::_Orphan_range
_TEXT	ENDS
PUBLIC	??R?$less@K@std@@QBE_NABK0@Z			; std::less<unsigned long>::operator()
; Function compile flags: /Ogsp
; File c:\program files (x86)\microsoft visual studio 10.0\vc\include\xfunctional
;	COMDAT ??R?$less@K@std@@QBE_NABK0@Z
_TEXT	SEGMENT
__Left$ = 8						; size = 4
__Right$ = 12						; size = 4
??R?$less@K@std@@QBE_NABK0@Z PROC			; std::less<unsigned long>::operator(), COMDAT
; _this$ = ecx

; 124  : 		{	// apply operator< to operands

  00000	55		 push	 ebp
  00001	8b ec		 mov	 ebp, esp

; 125  : 		return (_Left < _Right);

  00003	8b 45 08	 mov	 eax, DWORD PTR __Left$[ebp]
  00006	8b 00		 mov	 eax, DWORD PTR [eax]
  00008	8b 4d 0c	 mov	 ecx, DWORD PTR __Right$[ebp]
  0000b	3b 01		 cmp	 eax, DWORD PTR [ecx]
  0000d	1b c0		 sbb	 eax, eax
  0000f	f7 d8		 neg	 eax

; 126  : 		}

  00011	5d		 pop	 ebp
  00012	c2 08 00	 ret	 8
??R?$less@K@std@@QBE_NABK0@Z ENDP			; std::less<unsigned long>::operator()
_TEXT	ENDS
PUBLIC	?_Inside@?$vector@UtagNetworkInfo@CustomSoundData@@V?$allocator@UtagNetworkInfo@CustomSoundData@@@std@@@std@@IBE_NPBUtagNetworkInfo@CustomSoundData@@@Z ; std::vector<CustomSoundData::tagNetworkInfo,std::allocator<CustomSoundData::tagNetworkInfo> >::_Inside
; Function compile flags: /Ogsp
; File c:\program files (x86)\microsoft visual studio 10.0\vc\include\vector
;	COMDAT ?_Inside@?$vector@UtagNetworkInfo@CustomSoundData@@V?$allocator@UtagNetworkInfo@CustomSoundData@@@std@@@std@@IBE_NPBUtagNetworkInfo@CustomSoundData@@@Z
_TEXT	SEGMENT
__Ptr$ = 8						; size = 4
?_Inside@?$vector@UtagNetworkInfo@CustomSoundData@@V?$allocator@UtagNetworkInfo@CustomSoundData@@@std@@@std@@IBE_NPBUtagNetworkInfo@CustomSoundData@@@Z PROC ; std::vector<CustomSoundData::tagNetworkInfo,std::allocator<CustomSoundData::tagNetworkInfo> >::_Inside, COMDAT
; _this$ = ecx

; 1285 : 		{	// test if _Ptr points inside vector

  00000	55		 push	 ebp
  00001	8b ec		 mov	 ebp, esp

; 1286 : 		return (_Ptr < this->_Mylast && this->_Myfirst <= _Ptr);

  00003	8b 45 08	 mov	 eax, DWORD PTR __Ptr$[ebp]
  00006	3b 41 04	 cmp	 eax, DWORD PTR [ecx+4]
  00009	73 09		 jae	 SHORT $LN3@Inside@2
  0000b	39 01		 cmp	 DWORD PTR [ecx], eax
  0000d	77 05		 ja	 SHORT $LN3@Inside@2
  0000f	33 c0		 xor	 eax, eax
  00011	40		 inc	 eax
  00012	eb 02		 jmp	 SHORT $LN4@Inside@2
$LN3@Inside@2:
  00014	33 c0		 xor	 eax, eax
$LN4@Inside@2:

; 1287 : 		}

  00016	5d		 pop	 ebp
  00017	c2 04 00	 ret	 4
?_Inside@?$vector@UtagNetworkInfo@CustomSoundData@@V?$allocator@UtagNetworkInfo@CustomSoundData@@@std@@@std@@IBE_NPBUtagNetworkInfo@CustomSoundData@@@Z ENDP ; std::vector<CustomSoundData::tagNetworkInfo,std::allocator<CustomSoundData::tagNetworkInfo> >::_Inside
_TEXT	ENDS
PUBLIC	?_Orphan_range@?$vector@UtagNetworkInfo@CustomSoundData@@V?$allocator@UtagNetworkInfo@CustomSoundData@@@std@@@std@@IBEXPAUtagNetworkInfo@CustomSoundData@@0@Z ; std::vector<CustomSoundData::tagNetworkInfo,std::allocator<CustomSoundData::tagNetworkInfo> >::_Orphan_range
; Function compile flags: /Ogsp
;	COMDAT ?_Orphan_range@?$vector@UtagNetworkInfo@CustomSoundData@@V?$allocator@UtagNetworkInfo@CustomSoundData@@@std@@@std@@IBEXPAUtagNetworkInfo@CustomSoundData@@0@Z
_TEXT	SEGMENT
___formal$ = 8						; size = 4
___formal$ = 12						; size = 4
?_Orphan_range@?$vector@UtagNetworkInfo@CustomSoundData@@V?$allocator@UtagNetworkInfo@CustomSoundData@@@std@@@std@@IBEXPAUtagNetworkInfo@CustomSoundData@@0@Z PROC ; std::vector<CustomSoundData::tagNetworkInfo,std::allocator<CustomSoundData::tagNetworkInfo> >::_Orphan_range, COMDAT
; _this$ = ecx

; 1454 : 		}

  00000	c2 08 00	 ret	 8
?_Orphan_range@?$vector@UtagNetworkInfo@CustomSoundData@@V?$allocator@UtagNetworkInfo@CustomSoundData@@@std@@@std@@IBEXPAUtagNetworkInfo@CustomSoundData@@0@Z ENDP ; std::vector<CustomSoundData::tagNetworkInfo,std::allocator<CustomSoundData::tagNetworkInfo> >::_Orphan_range
_TEXT	ENDS
PUBLIC	??1?$_Vector_val@UtagNetworkInfo@CustomSoundData@@V?$allocator@UtagNetworkInfo@CustomSoundData@@@std@@@std@@QAE@XZ ; std::_Vector_val<CustomSoundData::tagNetworkInfo,std::allocator<CustomSoundData::tagNetworkInfo> >::~_Vector_val<CustomSoundData::tagNetworkInfo,std::allocator<CustomSoundData::tagNetworkInfo> >
; Function compile flags: /Ogsp
;	COMDAT ??1?$_Vector_val@UtagNetworkInfo@CustomSoundData@@V?$allocator@UtagNetworkInfo@CustomSoundData@@@std@@@std@@QAE@XZ
_TEXT	SEGMENT
??1?$_Vector_val@UtagNetworkInfo@CustomSoundData@@V?$allocator@UtagNetworkInfo@CustomSoundData@@@std@@@std@@QAE@XZ PROC ; std::_Vector_val<CustomSoundData::tagNetworkInfo,std::allocator<CustomSoundData::tagNetworkInfo> >::~_Vector_val<CustomSoundData::tagNetworkInfo,std::allocator<CustomSoundData::tagNetworkInfo> >, COMDAT
; _this$ = ecx

; 434  : 		}

  00000	c3		 ret	 0
??1?$_Vector_val@UtagNetworkInfo@CustomSoundData@@V?$allocator@UtagNetworkInfo@CustomSoundData@@@std@@@std@@QAE@XZ ENDP ; std::_Vector_val<CustomSoundData::tagNetworkInfo,std::allocator<CustomSoundData::tagNetworkInfo> >::~_Vector_val<CustomSoundData::tagNetworkInfo,std::allocator<CustomSoundData::tagNetworkInfo> >
_TEXT	ENDS
PUBLIC	??0?$allocator@UtagNetworkInfo@CustomSoundData@@@std@@QAE@XZ ; std::allocator<CustomSoundData::tagNetworkInfo>::allocator<CustomSoundData::tagNetworkInfo>
; Function compile flags: /Ogsp
; File c:\program files (x86)\microsoft visual studio 10.0\vc\include\xmemory
;	COMDAT ??0?$allocator@UtagNetworkInfo@CustomSoundData@@@std@@QAE@XZ
_TEXT	SEGMENT
??0?$allocator@UtagNetworkInfo@CustomSoundData@@@std@@QAE@XZ PROC ; std::allocator<CustomSoundData::tagNetworkInfo>::allocator<CustomSoundData::tagNetworkInfo>, COMDAT
; _this$ = ecx

; 161  : 	_ALLOCATOR() _THROW0()

  00000	8b c1		 mov	 eax, ecx

; 162  : 		{	// construct default allocator (do nothing)
; 163  : 		}

  00002	c3		 ret	 0
??0?$allocator@UtagNetworkInfo@CustomSoundData@@@std@@QAE@XZ ENDP ; std::allocator<CustomSoundData::tagNetworkInfo>::allocator<CustomSoundData::tagNetworkInfo>
_TEXT	ENDS
PUBLIC	?_Inside@?$vector@PAUtagCustomSoundInfo@ioCustomSoundMgr@@V?$allocator@PAUtagCustomSoundInfo@ioCustomSoundMgr@@@std@@@std@@IBE_NPBQAUtagCustomSoundInfo@ioCustomSoundMgr@@@Z ; std::vector<ioCustomSoundMgr::tagCustomSoundInfo *,std::allocator<ioCustomSoundMgr::tagCustomSoundInfo *> >::_Inside
; Function compile flags: /Ogsp
; File c:\program files (x86)\microsoft visual studio 10.0\vc\include\vector
;	COMDAT ?_Inside@?$vector@PAUtagCustomSoundInfo@ioCustomSoundMgr@@V?$allocator@PAUtagCustomSoundInfo@ioCustomSoundMgr@@@std@@@std@@IBE_NPBQAUtagCustomSoundInfo@ioCustomSoundMgr@@@Z
_TEXT	SEGMENT
__Ptr$ = 8						; size = 4
?_Inside@?$vector@PAUtagCustomSoundInfo@ioCustomSoundMgr@@V?$allocator@PAUtagCustomSoundInfo@ioCustomSoundMgr@@@std@@@std@@IBE_NPBQAUtagCustomSoundInfo@ioCustomSoundMgr@@@Z PROC ; std::vector<ioCustomSoundMgr::tagCustomSoundInfo *,std::allocator<ioCustomSoundMgr::tagCustomSoundInfo *> >::_Inside, COMDAT
; _this$ = ecx

; 1285 : 		{	// test if _Ptr points inside vector

  00000	55		 push	 ebp
  00001	8b ec		 mov	 ebp, esp

; 1286 : 		return (_Ptr < this->_Mylast && this->_Myfirst <= _Ptr);

  00003	8b 45 08	 mov	 eax, DWORD PTR __Ptr$[ebp]
  00006	3b 41 04	 cmp	 eax, DWORD PTR [ecx+4]
  00009	73 09		 jae	 SHORT $LN3@Inside@3
  0000b	39 01		 cmp	 DWORD PTR [ecx], eax
  0000d	77 05		 ja	 SHORT $LN3@Inside@3
  0000f	33 c0		 xor	 eax, eax
  00011	40		 inc	 eax
  00012	eb 02		 jmp	 SHORT $LN4@Inside@3
$LN3@Inside@3:
  00014	33 c0		 xor	 eax, eax
$LN4@Inside@3:

; 1287 : 		}

  00016	5d		 pop	 ebp
  00017	c2 04 00	 ret	 4
?_Inside@?$vector@PAUtagCustomSoundInfo@ioCustomSoundMgr@@V?$allocator@PAUtagCustomSoundInfo@ioCustomSoundMgr@@@std@@@std@@IBE_NPBQAUtagCustomSoundInfo@ioCustomSoundMgr@@@Z ENDP ; std::vector<ioCustomSoundMgr::tagCustomSoundInfo *,std::allocator<ioCustomSoundMgr::tagCustomSoundInfo *> >::_Inside
_TEXT	ENDS
PUBLIC	?_Orphan_range@?$vector@PAUtagCustomSoundInfo@ioCustomSoundMgr@@V?$allocator@PAUtagCustomSoundInfo@ioCustomSoundMgr@@@std@@@std@@IBEXPAPAUtagCustomSoundInfo@ioCustomSoundMgr@@0@Z ; std::vector<ioCustomSoundMgr::tagCustomSoundInfo *,std::allocator<ioCustomSoundMgr::tagCustomSoundInfo *> >::_Orphan_range
; Function compile flags: /Ogsp
;	COMDAT ?_Orphan_range@?$vector@PAUtagCustomSoundInfo@ioCustomSoundMgr@@V?$allocator@PAUtagCustomSoundInfo@ioCustomSoundMgr@@@std@@@std@@IBEXPAPAUtagCustomSoundInfo@ioCustomSoundMgr@@0@Z
_TEXT	SEGMENT
___formal$ = 8						; size = 4
___formal$ = 12						; size = 4
?_Orphan_range@?$vector@PAUtagCustomSoundInfo@ioCustomSoundMgr@@V?$allocator@PAUtagCustomSoundInfo@ioCustomSoundMgr@@@std@@@std@@IBEXPAPAUtagCustomSoundInfo@ioCustomSoundMgr@@0@Z PROC ; std::vector<ioCustomSoundMgr::tagCustomSoundInfo *,std::allocator<ioCustomSoundMgr::tagCustomSoundInfo *> >::_Orphan_range, COMDAT
; _this$ = ecx

; 1454 : 		}

  00000	c2 08 00	 ret	 8
?_Orphan_range@?$vector@PAUtagCustomSoundInfo@ioCustomSoundMgr@@V?$allocator@PAUtagCustomSoundInfo@ioCustomSoundMgr@@@std@@@std@@IBEXPAPAUtagCustomSoundInfo@ioCustomSoundMgr@@0@Z ENDP ; std::vector<ioCustomSoundMgr::tagCustomSoundInfo *,std::allocator<ioCustomSoundMgr::tagCustomSoundInfo *> >::_Orphan_range
_TEXT	ENDS
PUBLIC	??1?$_Vector_val@PAUtagCustomSoundInfo@ioCustomSoundMgr@@V?$allocator@PAUtagCustomSoundInfo@ioCustomSoundMgr@@@std@@@std@@QAE@XZ ; std::_Vector_val<ioCustomSoundMgr::tagCustomSoundInfo *,std::allocator<ioCustomSoundMgr::tagCustomSoundInfo *> >::~_Vector_val<ioCustomSoundMgr::tagCustomSoundInfo *,std::allocator<ioCustomSoundMgr::tagCustomSoundInfo *> >
; Function compile flags: /Ogsp
;	COMDAT ??1?$_Vector_val@PAUtagCustomSoundInfo@ioCustomSoundMgr@@V?$allocator@PAUtagCustomSoundInfo@ioCustomSoundMgr@@@std@@@std@@QAE@XZ
_TEXT	SEGMENT
??1?$_Vector_val@PAUtagCustomSoundInfo@ioCustomSoundMgr@@V?$allocator@PAUtagCustomSoundInfo@ioCustomSoundMgr@@@std@@@std@@QAE@XZ PROC ; std::_Vector_val<ioCustomSoundMgr::tagCustomSoundInfo *,std::allocator<ioCustomSoundMgr::tagCustomSoundInfo *> >::~_Vector_val<ioCustomSoundMgr::tagCustomSoundInfo *,std::allocator<ioCustomSoundMgr::tagCustomSoundInfo *> >, COMDAT
; _this$ = ecx

; 434  : 		}

  00000	c3		 ret	 0
??1?$_Vector_val@PAUtagCustomSoundInfo@ioCustomSoundMgr@@V?$allocator@PAUtagCustomSoundInfo@ioCustomSoundMgr@@@std@@@std@@QAE@XZ ENDP ; std::_Vector_val<ioCustomSoundMgr::tagCustomSoundInfo *,std::allocator<ioCustomSoundMgr::tagCustomSoundInfo *> >::~_Vector_val<ioCustomSoundMgr::tagCustomSoundInfo *,std::allocator<ioCustomSoundMgr::tagCustomSoundInfo *> >
_TEXT	ENDS
PUBLIC	??0?$allocator@PAUtagCustomSoundInfo@ioCustomSoundMgr@@@std@@QAE@XZ ; std::allocator<ioCustomSoundMgr::tagCustomSoundInfo *>::allocator<ioCustomSoundMgr::tagCustomSoundInfo *>
; Function compile flags: /Ogsp
; File c:\program files (x86)\microsoft visual studio 10.0\vc\include\xmemory
;	COMDAT ??0?$allocator@PAUtagCustomSoundInfo@ioCustomSoundMgr@@@std@@QAE@XZ
_TEXT	SEGMENT
??0?$allocator@PAUtagCustomSoundInfo@ioCustomSoundMgr@@@std@@QAE@XZ PROC ; std::allocator<ioCustomSoundMgr::tagCustomSoundInfo *>::allocator<ioCustomSoundMgr::tagCustomSoundInfo *>, COMDAT
; _this$ = ecx

; 161  : 	_ALLOCATOR() _THROW0()

  00000	8b c1		 mov	 eax, ecx

; 162  : 		{	// construct default allocator (do nothing)
; 163  : 		}

  00002	c3		 ret	 0
??0?$allocator@PAUtagCustomSoundInfo@ioCustomSoundMgr@@@std@@QAE@XZ ENDP ; std::allocator<ioCustomSoundMgr::tagCustomSoundInfo *>::allocator<ioCustomSoundMgr::tagCustomSoundInfo *>
_TEXT	ENDS
PUBLIC	??D?$_Vector_const_iterator@V?$_Vector_val@UtagNetworkInfo@CustomSoundData@@V?$allocator@UtagNetworkInfo@CustomSoundData@@@std@@@std@@@std@@QBEABUtagNetworkInfo@CustomSoundData@@XZ ; std::_Vector_const_iterator<std::_Vector_val<CustomSoundData::tagNetworkInfo,std::allocator<CustomSoundData::tagNetworkInfo> > >::operator*
; Function compile flags: /Ogsp
; File c:\program files (x86)\microsoft visual studio 10.0\vc\include\vector
;	COMDAT ??D?$_Vector_const_iterator@V?$_Vector_val@UtagNetworkInfo@CustomSoundData@@V?$allocator@UtagNetworkInfo@CustomSoundData@@@std@@@std@@@std@@QBEABUtagNetworkInfo@CustomSoundData@@XZ
_TEXT	SEGMENT
??D?$_Vector_const_iterator@V?$_Vector_val@UtagNetworkInfo@CustomSoundData@@V?$allocator@UtagNetworkInfo@CustomSoundData@@@std@@@std@@@std@@QBEABUtagNetworkInfo@CustomSoundData@@XZ PROC ; std::_Vector_const_iterator<std::_Vector_val<CustomSoundData::tagNetworkInfo,std::allocator<CustomSoundData::tagNetworkInfo> > >::operator*, COMDAT
; _this$ = ecx

; 64   :  #if _ITERATOR_DEBUG_LEVEL == 2
; 65   : 		if (this->_Getcont() == 0
; 66   : 			|| this->_Ptr == 0
; 67   : 			|| this->_Ptr < ((_Myvec *)this->_Getcont())->_Myfirst
; 68   : 			|| ((_Myvec *)this->_Getcont())->_Mylast <= this->_Ptr)
; 69   : 			{	// report error
; 70   : 			_DEBUG_ERROR("vector iterator not dereferencable");
; 71   : 			_SCL_SECURE_OUT_OF_RANGE;
; 72   : 			}
; 73   : 
; 74   :  #elif _ITERATOR_DEBUG_LEVEL == 1
; 75   : 		_SCL_SECURE_VALIDATE(this->_Getcont() != 0);
; 76   : 		_SCL_SECURE_VALIDATE_RANGE(
; 77   : 			this->_Ptr != 0
; 78   : 			&& ((_Myvec *)this->_Getcont())->_Myfirst <= this->_Ptr
; 79   : 			&& this->_Ptr < ((_Myvec *)this->_Getcont())->_Mylast);
; 80   :  #endif /* _ITERATOR_DEBUG_LEVEL */
; 81   : 
; 82   : 		__analysis_assume(this->_Ptr != 0);
; 83   : 
; 84   : 		return (*this->_Ptr);

  00000	8b 01		 mov	 eax, DWORD PTR [ecx]

; 85   : 		}

  00002	c3		 ret	 0
??D?$_Vector_const_iterator@V?$_Vector_val@UtagNetworkInfo@CustomSoundData@@V?$allocator@UtagNetworkInfo@CustomSoundData@@@std@@@std@@@std@@QBEABUtagNetworkInfo@CustomSoundData@@XZ ENDP ; std::_Vector_const_iterator<std::_Vector_val<CustomSoundData::tagNetworkInfo,std::allocator<CustomSoundData::tagNetworkInfo> > >::operator*
_TEXT	ENDS
PUBLIC	??E?$_Vector_const_iterator@V?$_Vector_val@UtagNetworkInfo@CustomSoundData@@V?$allocator@UtagNetworkInfo@CustomSoundData@@@std@@@std@@@std@@QAEAAV01@XZ ; std::_Vector_const_iterator<std::_Vector_val<CustomSoundData::tagNetworkInfo,std::allocator<CustomSoundData::tagNetworkInfo> > >::operator++
; Function compile flags: /Ogsp
;	COMDAT ??E?$_Vector_const_iterator@V?$_Vector_val@UtagNetworkInfo@CustomSoundData@@V?$allocator@UtagNetworkInfo@CustomSoundData@@@std@@@std@@@std@@QAEAAV01@XZ
_TEXT	SEGMENT
??E?$_Vector_const_iterator@V?$_Vector_val@UtagNetworkInfo@CustomSoundData@@V?$allocator@UtagNetworkInfo@CustomSoundData@@@std@@@std@@@std@@QAEAAV01@XZ PROC ; std::_Vector_const_iterator<std::_Vector_val<CustomSoundData::tagNetworkInfo,std::allocator<CustomSoundData::tagNetworkInfo> > >::operator++, COMDAT
; _this$ = ecx

; 93   : 		{	// preincrement

  00000	8b c1		 mov	 eax, ecx

; 94   :  #if _ITERATOR_DEBUG_LEVEL == 2
; 95   : 		if (this->_Getcont() == 0
; 96   : 			|| this->_Ptr == 0
; 97   : 			|| ((_Myvec *)this->_Getcont())->_Mylast <= this->_Ptr)
; 98   : 			{	// report error
; 99   : 			_DEBUG_ERROR("vector iterator not incrementable");
; 100  : 			_SCL_SECURE_OUT_OF_RANGE;
; 101  : 			}
; 102  : 
; 103  :  #elif _ITERATOR_DEBUG_LEVEL == 1
; 104  : 		_SCL_SECURE_VALIDATE(this->_Getcont() != 0);
; 105  : 		_SCL_SECURE_VALIDATE_RANGE(
; 106  : 			this->_Ptr != 0
; 107  : 			&& this->_Ptr < ((_Myvec *)this->_Getcont())->_Mylast);
; 108  :  #endif /* _ITERATOR_DEBUG_LEVEL */
; 109  : 
; 110  : 		++this->_Ptr;

  00002	83 00 08	 add	 DWORD PTR [eax], 8

; 111  : 		return (*this);
; 112  : 		}

  00005	c3		 ret	 0
??E?$_Vector_const_iterator@V?$_Vector_val@UtagNetworkInfo@CustomSoundData@@V?$allocator@UtagNetworkInfo@CustomSoundData@@@std@@@std@@@std@@QAEAAV01@XZ ENDP ; std::_Vector_const_iterator<std::_Vector_val<CustomSoundData::tagNetworkInfo,std::allocator<CustomSoundData::tagNetworkInfo> > >::operator++
_TEXT	ENDS
PUBLIC	??D?$_Vector_const_iterator@V?$_Vector_val@PAUtagCustomSoundInfo@ioCustomSoundMgr@@V?$allocator@PAUtagCustomSoundInfo@ioCustomSoundMgr@@@std@@@std@@@std@@QBEABQAUtagCustomSoundInfo@ioCustomSoundMgr@@XZ ; std::_Vector_const_iterator<std::_Vector_val<ioCustomSoundMgr::tagCustomSoundInfo *,std::allocator<ioCustomSoundMgr::tagCustomSoundInfo *> > >::operator*
; Function compile flags: /Ogsp
;	COMDAT ??D?$_Vector_const_iterator@V?$_Vector_val@PAUtagCustomSoundInfo@ioCustomSoundMgr@@V?$allocator@PAUtagCustomSoundInfo@ioCustomSoundMgr@@@std@@@std@@@std@@QBEABQAUtagCustomSoundInfo@ioCustomSoundMgr@@XZ
_TEXT	SEGMENT
??D?$_Vector_const_iterator@V?$_Vector_val@PAUtagCustomSoundInfo@ioCustomSoundMgr@@V?$allocator@PAUtagCustomSoundInfo@ioCustomSoundMgr@@@std@@@std@@@std@@QBEABQAUtagCustomSoundInfo@ioCustomSoundMgr@@XZ PROC ; std::_Vector_const_iterator<std::_Vector_val<ioCustomSoundMgr::tagCustomSoundInfo *,std::allocator<ioCustomSoundMgr::tagCustomSoundInfo *> > >::operator*, COMDAT
; _this$ = ecx

; 64   :  #if _ITERATOR_DEBUG_LEVEL == 2
; 65   : 		if (this->_Getcont() == 0
; 66   : 			|| this->_Ptr == 0
; 67   : 			|| this->_Ptr < ((_Myvec *)this->_Getcont())->_Myfirst
; 68   : 			|| ((_Myvec *)this->_Getcont())->_Mylast <= this->_Ptr)
; 69   : 			{	// report error
; 70   : 			_DEBUG_ERROR("vector iterator not dereferencable");
; 71   : 			_SCL_SECURE_OUT_OF_RANGE;
; 72   : 			}
; 73   : 
; 74   :  #elif _ITERATOR_DEBUG_LEVEL == 1
; 75   : 		_SCL_SECURE_VALIDATE(this->_Getcont() != 0);
; 76   : 		_SCL_SECURE_VALIDATE_RANGE(
; 77   : 			this->_Ptr != 0
; 78   : 			&& ((_Myvec *)this->_Getcont())->_Myfirst <= this->_Ptr
; 79   : 			&& this->_Ptr < ((_Myvec *)this->_Getcont())->_Mylast);
; 80   :  #endif /* _ITERATOR_DEBUG_LEVEL */
; 81   : 
; 82   : 		__analysis_assume(this->_Ptr != 0);
; 83   : 
; 84   : 		return (*this->_Ptr);

  00000	8b 01		 mov	 eax, DWORD PTR [ecx]

; 85   : 		}

  00002	c3		 ret	 0
??D?$_Vector_const_iterator@V?$_Vector_val@PAUtagCustomSoundInfo@ioCustomSoundMgr@@V?$allocator@PAUtagCustomSoundInfo@ioCustomSoundMgr@@@std@@@std@@@std@@QBEABQAUtagCustomSoundInfo@ioCustomSoundMgr@@XZ ENDP ; std::_Vector_const_iterator<std::_Vector_val<ioCustomSoundMgr::tagCustomSoundInfo *,std::allocator<ioCustomSoundMgr::tagCustomSoundInfo *> > >::operator*
_TEXT	ENDS
PUBLIC	??E?$_Vector_const_iterator@V?$_Vector_val@PAUtagCustomSoundInfo@ioCustomSoundMgr@@V?$allocator@PAUtagCustomSoundInfo@ioCustomSoundMgr@@@std@@@std@@@std@@QAEAAV01@XZ ; std::_Vector_const_iterator<std::_Vector_val<ioCustomSoundMgr::tagCustomSoundInfo *,std::allocator<ioCustomSoundMgr::tagCustomSoundInfo *> > >::operator++
; Function compile flags: /Ogsp
;	COMDAT ??E?$_Vector_const_iterator@V?$_Vector_val@PAUtagCustomSoundInfo@ioCustomSoundMgr@@V?$allocator@PAUtagCustomSoundInfo@ioCustomSoundMgr@@@std@@@std@@@std@@QAEAAV01@XZ
_TEXT	SEGMENT
??E?$_Vector_const_iterator@V?$_Vector_val@PAUtagCustomSoundInfo@ioCustomSoundMgr@@V?$allocator@PAUtagCustomSoundInfo@ioCustomSoundMgr@@@std@@@std@@@std@@QAEAAV01@XZ PROC ; std::_Vector_const_iterator<std::_Vector_val<ioCustomSoundMgr::tagCustomSoundInfo *,std::allocator<ioCustomSoundMgr::tagCustomSoundInfo *> > >::operator++, COMDAT
; _this$ = ecx

; 93   : 		{	// preincrement

  00000	8b c1		 mov	 eax, ecx

; 94   :  #if _ITERATOR_DEBUG_LEVEL == 2
; 95   : 		if (this->_Getcont() == 0
; 96   : 			|| this->_Ptr == 0
; 97   : 			|| ((_Myvec *)this->_Getcont())->_Mylast <= this->_Ptr)
; 98   : 			{	// report error
; 99   : 			_DEBUG_ERROR("vector iterator not incrementable");
; 100  : 			_SCL_SECURE_OUT_OF_RANGE;
; 101  : 			}
; 102  : 
; 103  :  #elif _ITERATOR_DEBUG_LEVEL == 1
; 104  : 		_SCL_SECURE_VALIDATE(this->_Getcont() != 0);
; 105  : 		_SCL_SECURE_VALIDATE_RANGE(
; 106  : 			this->_Ptr != 0
; 107  : 			&& this->_Ptr < ((_Myvec *)this->_Getcont())->_Mylast);
; 108  :  #endif /* _ITERATOR_DEBUG_LEVEL */
; 109  : 
; 110  : 		++this->_Ptr;

  00002	83 00 04	 add	 DWORD PTR [eax], 4

; 111  : 		return (*this);
; 112  : 		}

  00005	c3		 ret	 0
??E?$_Vector_const_iterator@V?$_Vector_val@PAUtagCustomSoundInfo@ioCustomSoundMgr@@V?$allocator@PAUtagCustomSoundInfo@ioCustomSoundMgr@@@std@@@std@@@std@@QAEAAV01@XZ ENDP ; std::_Vector_const_iterator<std::_Vector_val<ioCustomSoundMgr::tagCustomSoundInfo *,std::allocator<ioCustomSoundMgr::tagCustomSoundInfo *> > >::operator++
_TEXT	ENDS
PUBLIC	?capacity@?$vector@VioHashString@@V?$allocator@VioHashString@@@std@@@std@@QBEIXZ ; std::vector<ioHashString,std::allocator<ioHashString> >::capacity
; Function compile flags: /Ogsp
;	COMDAT ?capacity@?$vector@VioHashString@@V?$allocator@VioHashString@@@std@@@std@@QBEIXZ
_TEXT	SEGMENT
?capacity@?$vector@VioHashString@@V?$allocator@VioHashString@@@std@@@std@@QBEIXZ PROC ; std::vector<ioHashString,std::allocator<ioHashString> >::capacity, COMDAT
; _this$ = ecx

; 777  : 		return (this->_Myend - this->_Myfirst);

  00000	8b 41 08	 mov	 eax, DWORD PTR [ecx+8]
  00003	2b 01		 sub	 eax, DWORD PTR [ecx]
  00005	c1 f8 04	 sar	 eax, 4

; 778  : 		}

  00008	c3		 ret	 0
?capacity@?$vector@VioHashString@@V?$allocator@VioHashString@@@std@@@std@@QBEIXZ ENDP ; std::vector<ioHashString,std::allocator<ioHashString> >::capacity
_TEXT	ENDS
PUBLIC	?capacity@?$vector@UtagNetworkInfo@CustomSoundData@@V?$allocator@UtagNetworkInfo@CustomSoundData@@@std@@@std@@QBEIXZ ; std::vector<CustomSoundData::tagNetworkInfo,std::allocator<CustomSoundData::tagNetworkInfo> >::capacity
; Function compile flags: /Ogsp
;	COMDAT ?capacity@?$vector@UtagNetworkInfo@CustomSoundData@@V?$allocator@UtagNetworkInfo@CustomSoundData@@@std@@@std@@QBEIXZ
_TEXT	SEGMENT
?capacity@?$vector@UtagNetworkInfo@CustomSoundData@@V?$allocator@UtagNetworkInfo@CustomSoundData@@@std@@@std@@QBEIXZ PROC ; std::vector<CustomSoundData::tagNetworkInfo,std::allocator<CustomSoundData::tagNetworkInfo> >::capacity, COMDAT
; _this$ = ecx

; 777  : 		return (this->_Myend - this->_Myfirst);

  00000	8b 41 08	 mov	 eax, DWORD PTR [ecx+8]
  00003	2b 01		 sub	 eax, DWORD PTR [ecx]
  00005	c1 f8 03	 sar	 eax, 3

; 778  : 		}

  00008	c3		 ret	 0
?capacity@?$vector@UtagNetworkInfo@CustomSoundData@@V?$allocator@UtagNetworkInfo@CustomSoundData@@@std@@@std@@QBEIXZ ENDP ; std::vector<CustomSoundData::tagNetworkInfo,std::allocator<CustomSoundData::tagNetworkInfo> >::capacity
_TEXT	ENDS
PUBLIC	?size@?$vector@UtagNetworkInfo@CustomSoundData@@V?$allocator@UtagNetworkInfo@CustomSoundData@@@std@@@std@@QBEIXZ ; std::vector<CustomSoundData::tagNetworkInfo,std::allocator<CustomSoundData::tagNetworkInfo> >::size
; Function compile flags: /Ogsp
;	COMDAT ?size@?$vector@UtagNetworkInfo@CustomSoundData@@V?$allocator@UtagNetworkInfo@CustomSoundData@@@std@@@std@@QBEIXZ
_TEXT	SEGMENT
?size@?$vector@UtagNetworkInfo@CustomSoundData@@V?$allocator@UtagNetworkInfo@CustomSoundData@@@std@@@std@@QBEIXZ PROC ; std::vector<CustomSoundData::tagNetworkInfo,std::allocator<CustomSoundData::tagNetworkInfo> >::size, COMDAT
; _this$ = ecx

; 879  : 		return (this->_Mylast - this->_Myfirst);

  00000	8b 41 04	 mov	 eax, DWORD PTR [ecx+4]
  00003	2b 01		 sub	 eax, DWORD PTR [ecx]
  00005	c1 f8 03	 sar	 eax, 3

; 880  : 		}

  00008	c3		 ret	 0
?size@?$vector@UtagNetworkInfo@CustomSoundData@@V?$allocator@UtagNetworkInfo@CustomSoundData@@@std@@@std@@QBEIXZ ENDP ; std::vector<CustomSoundData::tagNetworkInfo,std::allocator<CustomSoundData::tagNetworkInfo> >::size
_TEXT	ENDS
PUBLIC	??_C@_0BD@OLBABOEK@vector?$DMT?$DO?5too?5long?$AA@ ; `string'
PUBLIC	?_Xlen@?$vector@UtagNetworkInfo@CustomSoundData@@V?$allocator@UtagNetworkInfo@CustomSoundData@@@std@@@std@@IBEXXZ ; std::vector<CustomSoundData::tagNetworkInfo,std::allocator<CustomSoundData::tagNetworkInfo> >::_Xlen
EXTRN	__imp_?_Xlength_error@std@@YAXPBD@Z:PROC
;	COMDAT ??_C@_0BD@OLBABOEK@vector?$DMT?$DO?5too?5long?$AA@
CONST	SEGMENT
??_C@_0BD@OLBABOEK@vector?$DMT?$DO?5too?5long?$AA@ DB 'vector<T> too long'
	DB	00H						; `string'
; Function compile flags: /Ogsp
CONST	ENDS
;	COMDAT ?_Xlen@?$vector@UtagNetworkInfo@CustomSoundData@@V?$allocator@UtagNetworkInfo@CustomSoundData@@@std@@@std@@IBEXXZ
_TEXT	SEGMENT
?_Xlen@?$vector@UtagNetworkInfo@CustomSoundData@@V?$allocator@UtagNetworkInfo@CustomSoundData@@@std@@@std@@IBEXXZ PROC ; std::vector<CustomSoundData::tagNetworkInfo,std::allocator<CustomSoundData::tagNetworkInfo> >::_Xlen, COMDAT
; _this$ = ecx

; 1427 : 		_Xlength_error("vector<T> too long");

  00000	68 00 00 00 00	 push	 OFFSET ??_C@_0BD@OLBABOEK@vector?$DMT?$DO?5too?5long?$AA@
  00005	ff 15 00 00 00
	00		 call	 DWORD PTR __imp_?_Xlength_error@std@@YAXPBD@Z
$LN4@Xlen:
$LN3@Xlen:
  0000b	cc		 int	 3
?_Xlen@?$vector@UtagNetworkInfo@CustomSoundData@@V?$allocator@UtagNetworkInfo@CustomSoundData@@@std@@@std@@IBEXXZ ENDP ; std::vector<CustomSoundData::tagNetworkInfo,std::allocator<CustomSoundData::tagNetworkInfo> >::_Xlen
_TEXT	ENDS
PUBLIC	??0?$allocator@UtagNetworkInfo@CustomSoundData@@@std@@QAE@ABV01@@Z ; std::allocator<CustomSoundData::tagNetworkInfo>::allocator<CustomSoundData::tagNetworkInfo>
; Function compile flags: /Ogsp
; File c:\program files (x86)\microsoft visual studio 10.0\vc\include\xmemory
;	COMDAT ??0?$allocator@UtagNetworkInfo@CustomSoundData@@@std@@QAE@ABV01@@Z
_TEXT	SEGMENT
___formal$ = 8						; size = 4
??0?$allocator@UtagNetworkInfo@CustomSoundData@@@std@@QAE@ABV01@@Z PROC ; std::allocator<CustomSoundData::tagNetworkInfo>::allocator<CustomSoundData::tagNetworkInfo>, COMDAT
; _this$ = ecx

; 165  : 	_ALLOCATOR(const _ALLOCATOR<_Ty>&) _THROW0()

  00000	8b c1		 mov	 eax, ecx

; 166  : 		{	// construct by copying (do nothing)
; 167  : 		}

  00002	c2 04 00	 ret	 4
??0?$allocator@UtagNetworkInfo@CustomSoundData@@@std@@QAE@ABV01@@Z ENDP ; std::allocator<CustomSoundData::tagNetworkInfo>::allocator<CustomSoundData::tagNetworkInfo>
_TEXT	ENDS
PUBLIC	?deallocate@?$allocator@UtagNetworkInfo@CustomSoundData@@@std@@QAEXPAUtagNetworkInfo@CustomSoundData@@I@Z ; std::allocator<CustomSoundData::tagNetworkInfo>::deallocate
; Function compile flags: /Ogsp
;	COMDAT ?deallocate@?$allocator@UtagNetworkInfo@CustomSoundData@@@std@@QAEXPAUtagNetworkInfo@CustomSoundData@@I@Z
_TEXT	SEGMENT
__Ptr$ = 8						; size = 4
___formal$ = 12						; size = 4
?deallocate@?$allocator@UtagNetworkInfo@CustomSoundData@@@std@@QAEXPAUtagNetworkInfo@CustomSoundData@@I@Z PROC ; std::allocator<CustomSoundData::tagNetworkInfo>::deallocate, COMDAT
; _this$ = ecx

; 181  : 		{	// deallocate object at _Ptr, ignore size

  00000	55		 push	 ebp
  00001	8b ec		 mov	 ebp, esp

; 182  : 		::operator delete(_Ptr);

  00003	ff 75 08	 push	 DWORD PTR __Ptr$[ebp]
  00006	e8 00 00 00 00	 call	 ??3@YAXPAX@Z		; operator delete
  0000b	59		 pop	 ecx

; 183  : 		}

  0000c	5d		 pop	 ebp
  0000d	c2 08 00	 ret	 8
?deallocate@?$allocator@UtagNetworkInfo@CustomSoundData@@@std@@QAEXPAUtagNetworkInfo@CustomSoundData@@I@Z ENDP ; std::allocator<CustomSoundData::tagNetworkInfo>::deallocate
_TEXT	ENDS
PUBLIC	?capacity@?$vector@PAUtagCustomSoundInfo@ioCustomSoundMgr@@V?$allocator@PAUtagCustomSoundInfo@ioCustomSoundMgr@@@std@@@std@@QBEIXZ ; std::vector<ioCustomSoundMgr::tagCustomSoundInfo *,std::allocator<ioCustomSoundMgr::tagCustomSoundInfo *> >::capacity
; Function compile flags: /Ogsp
; File c:\program files (x86)\microsoft visual studio 10.0\vc\include\vector
;	COMDAT ?capacity@?$vector@PAUtagCustomSoundInfo@ioCustomSoundMgr@@V?$allocator@PAUtagCustomSoundInfo@ioCustomSoundMgr@@@std@@@std@@QBEIXZ
_TEXT	SEGMENT
?capacity@?$vector@PAUtagCustomSoundInfo@ioCustomSoundMgr@@V?$allocator@PAUtagCustomSoundInfo@ioCustomSoundMgr@@@std@@@std@@QBEIXZ PROC ; std::vector<ioCustomSoundMgr::tagCustomSoundInfo *,std::allocator<ioCustomSoundMgr::tagCustomSoundInfo *> >::capacity, COMDAT
; _this$ = ecx

; 777  : 		return (this->_Myend - this->_Myfirst);

  00000	8b 41 08	 mov	 eax, DWORD PTR [ecx+8]
  00003	2b 01		 sub	 eax, DWORD PTR [ecx]
  00005	c1 f8 02	 sar	 eax, 2

; 778  : 		}

  00008	c3		 ret	 0
?capacity@?$vector@PAUtagCustomSoundInfo@ioCustomSoundMgr@@V?$allocator@PAUtagCustomSoundInfo@ioCustomSoundMgr@@@std@@@std@@QBEIXZ ENDP ; std::vector<ioCustomSoundMgr::tagCustomSoundInfo *,std::allocator<ioCustomSoundMgr::tagCustomSoundInfo *> >::capacity
_TEXT	ENDS
PUBLIC	?size@?$vector@PAUtagCustomSoundInfo@ioCustomSoundMgr@@V?$allocator@PAUtagCustomSoundInfo@ioCustomSoundMgr@@@std@@@std@@QBEIXZ ; std::vector<ioCustomSoundMgr::tagCustomSoundInfo *,std::allocator<ioCustomSoundMgr::tagCustomSoundInfo *> >::size
; Function compile flags: /Ogsp
;	COMDAT ?size@?$vector@PAUtagCustomSoundInfo@ioCustomSoundMgr@@V?$allocator@PAUtagCustomSoundInfo@ioCustomSoundMgr@@@std@@@std@@QBEIXZ
_TEXT	SEGMENT
?size@?$vector@PAUtagCustomSoundInfo@ioCustomSoundMgr@@V?$allocator@PAUtagCustomSoundInfo@ioCustomSoundMgr@@@std@@@std@@QBEIXZ PROC ; std::vector<ioCustomSoundMgr::tagCustomSoundInfo *,std::allocator<ioCustomSoundMgr::tagCustomSoundInfo *> >::size, COMDAT
; _this$ = ecx

; 879  : 		return (this->_Mylast - this->_Myfirst);

  00000	8b 41 04	 mov	 eax, DWORD PTR [ecx+4]
  00003	2b 01		 sub	 eax, DWORD PTR [ecx]
  00005	c1 f8 02	 sar	 eax, 2

; 880  : 		}

  00008	c3		 ret	 0
?size@?$vector@PAUtagCustomSoundInfo@ioCustomSoundMgr@@V?$allocator@PAUtagCustomSoundInfo@ioCustomSoundMgr@@@std@@@std@@QBEIXZ ENDP ; std::vector<ioCustomSoundMgr::tagCustomSoundInfo *,std::allocator<ioCustomSoundMgr::tagCustomSoundInfo *> >::size
_TEXT	ENDS
PUBLIC	?_Xlen@?$vector@PAUtagCustomSoundInfo@ioCustomSoundMgr@@V?$allocator@PAUtagCustomSoundInfo@ioCustomSoundMgr@@@std@@@std@@IBEXXZ ; std::vector<ioCustomSoundMgr::tagCustomSoundInfo *,std::allocator<ioCustomSoundMgr::tagCustomSoundInfo *> >::_Xlen
; Function compile flags: /Ogsp
;	COMDAT ?_Xlen@?$vector@PAUtagCustomSoundInfo@ioCustomSoundMgr@@V?$allocator@PAUtagCustomSoundInfo@ioCustomSoundMgr@@@std@@@std@@IBEXXZ
_TEXT	SEGMENT
?_Xlen@?$vector@PAUtagCustomSoundInfo@ioCustomSoundMgr@@V?$allocator@PAUtagCustomSoundInfo@ioCustomSoundMgr@@@std@@@std@@IBEXXZ PROC ; std::vector<ioCustomSoundMgr::tagCustomSoundInfo *,std::allocator<ioCustomSoundMgr::tagCustomSoundInfo *> >::_Xlen, COMDAT
; _this$ = ecx

; 1427 : 		_Xlength_error("vector<T> too long");

  00000	68 00 00 00 00	 push	 OFFSET ??_C@_0BD@OLBABOEK@vector?$DMT?$DO?5too?5long?$AA@
  00005	ff 15 00 00 00
	00		 call	 DWORD PTR __imp_?_Xlength_error@std@@YAXPBD@Z
$LN4@Xlen@2:
$LN3@Xlen@2:
  0000b	cc		 int	 3
?_Xlen@?$vector@PAUtagCustomSoundInfo@ioCustomSoundMgr@@V?$allocator@PAUtagCustomSoundInfo@ioCustomSoundMgr@@@std@@@std@@IBEXXZ ENDP ; std::vector<ioCustomSoundMgr::tagCustomSoundInfo *,std::allocator<ioCustomSoundMgr::tagCustomSoundInfo *> >::_Xlen
_TEXT	ENDS
PUBLIC	??0?$allocator@PAUtagCustomSoundInfo@ioCustomSoundMgr@@@std@@QAE@ABV01@@Z ; std::allocator<ioCustomSoundMgr::tagCustomSoundInfo *>::allocator<ioCustomSoundMgr::tagCustomSoundInfo *>
; Function compile flags: /Ogsp
; File c:\program files (x86)\microsoft visual studio 10.0\vc\include\xmemory
;	COMDAT ??0?$allocator@PAUtagCustomSoundInfo@ioCustomSoundMgr@@@std@@QAE@ABV01@@Z
_TEXT	SEGMENT
___formal$ = 8						; size = 4
??0?$allocator@PAUtagCustomSoundInfo@ioCustomSoundMgr@@@std@@QAE@ABV01@@Z PROC ; std::allocator<ioCustomSoundMgr::tagCustomSoundInfo *>::allocator<ioCustomSoundMgr::tagCustomSoundInfo *>, COMDAT
; _this$ = ecx

; 165  : 	_ALLOCATOR(const _ALLOCATOR<_Ty>&) _THROW0()

  00000	8b c1		 mov	 eax, ecx

; 166  : 		{	// construct by copying (do nothing)
; 167  : 		}

  00002	c2 04 00	 ret	 4
??0?$allocator@PAUtagCustomSoundInfo@ioCustomSoundMgr@@@std@@QAE@ABV01@@Z ENDP ; std::allocator<ioCustomSoundMgr::tagCustomSoundInfo *>::allocator<ioCustomSoundMgr::tagCustomSoundInfo *>
_TEXT	ENDS
PUBLIC	?deallocate@?$allocator@PAUtagCustomSoundInfo@ioCustomSoundMgr@@@std@@QAEXPAPAUtagCustomSoundInfo@ioCustomSoundMgr@@I@Z ; std::allocator<ioCustomSoundMgr::tagCustomSoundInfo *>::deallocate
; Function compile flags: /Ogsp
;	COMDAT ?deallocate@?$allocator@PAUtagCustomSoundInfo@ioCustomSoundMgr@@@std@@QAEXPAPAUtagCustomSoundInfo@ioCustomSoundMgr@@I@Z
_TEXT	SEGMENT
__Ptr$ = 8						; size = 4
___formal$ = 12						; size = 4
?deallocate@?$allocator@PAUtagCustomSoundInfo@ioCustomSoundMgr@@@std@@QAEXPAPAUtagCustomSoundInfo@ioCustomSoundMgr@@I@Z PROC ; std::allocator<ioCustomSoundMgr::tagCustomSoundInfo *>::deallocate, COMDAT
; _this$ = ecx

; 181  : 		{	// deallocate object at _Ptr, ignore size

  00000	55		 push	 ebp
  00001	8b ec		 mov	 ebp, esp

; 182  : 		::operator delete(_Ptr);

  00003	ff 75 08	 push	 DWORD PTR __Ptr$[ebp]
  00006	e8 00 00 00 00	 call	 ??3@YAXPAX@Z		; operator delete
  0000b	59		 pop	 ecx

; 183  : 		}

  0000c	5d		 pop	 ebp
  0000d	c2 08 00	 ret	 8
?deallocate@?$allocator@PAUtagCustomSoundInfo@ioCustomSoundMgr@@@std@@QAEXPAPAUtagCustomSoundInfo@ioCustomSoundMgr@@I@Z ENDP ; std::allocator<ioCustomSoundMgr::tagCustomSoundInfo *>::deallocate
_TEXT	ENDS
PUBLIC	??0?$_Vector_const_iterator@V?$_Vector_val@UtagNetworkInfo@CustomSoundData@@V?$allocator@UtagNetworkInfo@CustomSoundData@@@std@@@std@@@std@@QAE@PAUtagNetworkInfo@CustomSoundData@@PBU_Container_base0@1@@Z ; std::_Vector_const_iterator<std::_Vector_val<CustomSoundData::tagNetworkInfo,std::allocator<CustomSoundData::tagNetworkInfo> > >::_Vector_const_iterator<std::_Vector_val<CustomSoundData::tagNetworkInfo,std::allocator<CustomSoundData::tagNetworkInfo> > >
; Function compile flags: /Ogsp
; File c:\program files (x86)\microsoft visual studio 10.0\vc\include\vector
;	COMDAT ??0?$_Vector_const_iterator@V?$_Vector_val@UtagNetworkInfo@CustomSoundData@@V?$allocator@UtagNetworkInfo@CustomSoundData@@@std@@@std@@@std@@QAE@PAUtagNetworkInfo@CustomSoundData@@PBU_Container_base0@1@@Z
_TEXT	SEGMENT
__Parg$ = 8						; size = 4
__Pvector$ = 12						; size = 4
??0?$_Vector_const_iterator@V?$_Vector_val@UtagNetworkInfo@CustomSoundData@@V?$allocator@UtagNetworkInfo@CustomSoundData@@@std@@@std@@@std@@QAE@PAUtagNetworkInfo@CustomSoundData@@PBU_Container_base0@1@@Z PROC ; std::_Vector_const_iterator<std::_Vector_val<CustomSoundData::tagNetworkInfo,std::allocator<CustomSoundData::tagNetworkInfo> > >::_Vector_const_iterator<std::_Vector_val<CustomSoundData::tagNetworkInfo,std::allocator<CustomSoundData::tagNetworkInfo> > >, COMDAT
; _this$ = ecx

; 45   : 		{	// construct with pointer _Parg

  00000	55		 push	 ebp
  00001	8b ec		 mov	 ebp, esp
  00003	8b c1		 mov	 eax, ecx
  00005	8b 4d 08	 mov	 ecx, DWORD PTR __Parg$[ebp]
  00008	89 08		 mov	 DWORD PTR [eax], ecx

; 46   : 		this->_Adopt(_Pvector);
; 47   : 		}

  0000a	5d		 pop	 ebp
  0000b	c2 08 00	 ret	 8
??0?$_Vector_const_iterator@V?$_Vector_val@UtagNetworkInfo@CustomSoundData@@V?$allocator@UtagNetworkInfo@CustomSoundData@@@std@@@std@@@std@@QAE@PAUtagNetworkInfo@CustomSoundData@@PBU_Container_base0@1@@Z ENDP ; std::_Vector_const_iterator<std::_Vector_val<CustomSoundData::tagNetworkInfo,std::allocator<CustomSoundData::tagNetworkInfo> > >::_Vector_const_iterator<std::_Vector_val<CustomSoundData::tagNetworkInfo,std::allocator<CustomSoundData::tagNetworkInfo> > >
_TEXT	ENDS
PUBLIC	?_Compat@?$_Vector_const_iterator@V?$_Vector_val@UtagNetworkInfo@CustomSoundData@@V?$allocator@UtagNetworkInfo@CustomSoundData@@@std@@@std@@@std@@QBEXABV12@@Z ; std::_Vector_const_iterator<std::_Vector_val<CustomSoundData::tagNetworkInfo,std::allocator<CustomSoundData::tagNetworkInfo> > >::_Compat
; Function compile flags: /Ogsp
;	COMDAT ?_Compat@?$_Vector_const_iterator@V?$_Vector_val@UtagNetworkInfo@CustomSoundData@@V?$allocator@UtagNetworkInfo@CustomSoundData@@@std@@@std@@@std@@QBEXABV12@@Z
_TEXT	SEGMENT
___formal$ = 8						; size = 4
?_Compat@?$_Vector_const_iterator@V?$_Vector_val@UtagNetworkInfo@CustomSoundData@@V?$allocator@UtagNetworkInfo@CustomSoundData@@@std@@@std@@@std@@QBEXABV12@@Z PROC ; std::_Vector_const_iterator<std::_Vector_val<CustomSoundData::tagNetworkInfo,std::allocator<CustomSoundData::tagNetworkInfo> > >::_Compat, COMDAT
; _this$ = ecx

; 253  : 		}

  00000	c2 04 00	 ret	 4
?_Compat@?$_Vector_const_iterator@V?$_Vector_val@UtagNetworkInfo@CustomSoundData@@V?$allocator@UtagNetworkInfo@CustomSoundData@@@std@@@std@@@std@@QBEXABV12@@Z ENDP ; std::_Vector_const_iterator<std::_Vector_val<CustomSoundData::tagNetworkInfo,std::allocator<CustomSoundData::tagNetworkInfo> > >::_Compat
_TEXT	ENDS
PUBLIC	??0?$_Vector_const_iterator@V?$_Vector_val@PAUtagCustomSoundInfo@ioCustomSoundMgr@@V?$allocator@PAUtagCustomSoundInfo@ioCustomSoundMgr@@@std@@@std@@@std@@QAE@PAPAUtagCustomSoundInfo@ioCustomSoundMgr@@PBU_Container_base0@1@@Z ; std::_Vector_const_iterator<std::_Vector_val<ioCustomSoundMgr::tagCustomSoundInfo *,std::allocator<ioCustomSoundMgr::tagCustomSoundInfo *> > >::_Vector_const_iterator<std::_Vector_val<ioCustomSoundMgr::tagCustomSoundInfo *,std::allocator<ioCustomSoundMgr::tagCustomSoundInfo *> > >
; Function compile flags: /Ogsp
;	COMDAT ??0?$_Vector_const_iterator@V?$_Vector_val@PAUtagCustomSoundInfo@ioCustomSoundMgr@@V?$allocator@PAUtagCustomSoundInfo@ioCustomSoundMgr@@@std@@@std@@@std@@QAE@PAPAUtagCustomSoundInfo@ioCustomSoundMgr@@PBU_Container_base0@1@@Z
_TEXT	SEGMENT
__Parg$ = 8						; size = 4
__Pvector$ = 12						; size = 4
??0?$_Vector_const_iterator@V?$_Vector_val@PAUtagCustomSoundInfo@ioCustomSoundMgr@@V?$allocator@PAUtagCustomSoundInfo@ioCustomSoundMgr@@@std@@@std@@@std@@QAE@PAPAUtagCustomSoundInfo@ioCustomSoundMgr@@PBU_Container_base0@1@@Z PROC ; std::_Vector_const_iterator<std::_Vector_val<ioCustomSoundMgr::tagCustomSoundInfo *,std::allocator<ioCustomSoundMgr::tagCustomSoundInfo *> > >::_Vector_const_iterator<std::_Vector_val<ioCustomSoundMgr::tagCustomSoundInfo *,std::allocator<ioCustomSoundMgr::tagCustomSoundInfo *> > >, COMDAT
; _this$ = ecx

; 45   : 		{	// construct with pointer _Parg

  00000	55		 push	 ebp
  00001	8b ec		 mov	 ebp, esp
  00003	8b c1		 mov	 eax, ecx
  00005	8b 4d 08	 mov	 ecx, DWORD PTR __Parg$[ebp]
  00008	89 08		 mov	 DWORD PTR [eax], ecx

; 46   : 		this->_Adopt(_Pvector);
; 47   : 		}

  0000a	5d		 pop	 ebp
  0000b	c2 08 00	 ret	 8
??0?$_Vector_const_iterator@V?$_Vector_val@PAUtagCustomSoundInfo@ioCustomSoundMgr@@V?$allocator@PAUtagCustomSoundInfo@ioCustomSoundMgr@@@std@@@std@@@std@@QAE@PAPAUtagCustomSoundInfo@ioCustomSoundMgr@@PBU_Container_base0@1@@Z ENDP ; std::_Vector_const_iterator<std::_Vector_val<ioCustomSoundMgr::tagCustomSoundInfo *,std::allocator<ioCustomSoundMgr::tagCustomSoundInfo *> > >::_Vector_const_iterator<std::_Vector_val<ioCustomSoundMgr::tagCustomSoundInfo *,std::allocator<ioCustomSoundMgr::tagCustomSoundInfo *> > >
_TEXT	ENDS
PUBLIC	?_Compat@?$_Vector_const_iterator@V?$_Vector_val@PAUtagCustomSoundInfo@ioCustomSoundMgr@@V?$allocator@PAUtagCustomSoundInfo@ioCustomSoundMgr@@@std@@@std@@@std@@QBEXABV12@@Z ; std::_Vector_const_iterator<std::_Vector_val<ioCustomSoundMgr::tagCustomSoundInfo *,std::allocator<ioCustomSoundMgr::tagCustomSoundInfo *> > >::_Compat
; Function compile flags: /Ogsp
;	COMDAT ?_Compat@?$_Vector_const_iterator@V?$_Vector_val@PAUtagCustomSoundInfo@ioCustomSoundMgr@@V?$allocator@PAUtagCustomSoundInfo@ioCustomSoundMgr@@@std@@@std@@@std@@QBEXABV12@@Z
_TEXT	SEGMENT
___formal$ = 8						; size = 4
?_Compat@?$_Vector_const_iterator@V?$_Vector_val@PAUtagCustomSoundInfo@ioCustomSoundMgr@@V?$allocator@PAUtagCustomSoundInfo@ioCustomSoundMgr@@@std@@@std@@@std@@QBEXABV12@@Z PROC ; std::_Vector_const_iterator<std::_Vector_val<ioCustomSoundMgr::tagCustomSoundInfo *,std::allocator<ioCustomSoundMgr::tagCustomSoundInfo *> > >::_Compat, COMDAT
; _this$ = ecx

; 253  : 		}

  00000	c2 04 00	 ret	 4
?_Compat@?$_Vector_const_iterator@V?$_Vector_val@PAUtagCustomSoundInfo@ioCustomSoundMgr@@V?$allocator@PAUtagCustomSoundInfo@ioCustomSoundMgr@@@std@@@std@@@std@@QBEXABV12@@Z ENDP ; std::_Vector_const_iterator<std::_Vector_val<ioCustomSoundMgr::tagCustomSoundInfo *,std::allocator<ioCustomSoundMgr::tagCustomSoundInfo *> > >::_Compat
_TEXT	ENDS
PUBLIC	?max_size@?$allocator@UtagNetworkInfo@CustomSoundData@@@std@@QBEIXZ ; std::allocator<CustomSoundData::tagNetworkInfo>::max_size
; Function compile flags: /Ogsp
; File c:\program files (x86)\microsoft visual studio 10.0\vc\include\xmemory
;	COMDAT ?max_size@?$allocator@UtagNetworkInfo@CustomSoundData@@@std@@QBEIXZ
_TEXT	SEGMENT
?max_size@?$allocator@UtagNetworkInfo@CustomSoundData@@@std@@QBEIXZ PROC ; std::allocator<CustomSoundData::tagNetworkInfo>::max_size, COMDAT
; _this$ = ecx

; 218  : 		_SIZT _Count = (_SIZT)(-1) / sizeof (_Ty);
; 219  : 		return (0 < _Count ? _Count : 1);

  00000	b8 ff ff ff 1f	 mov	 eax, 536870911		; 1fffffffH

; 220  : 		}

  00005	c3		 ret	 0
?max_size@?$allocator@UtagNetworkInfo@CustomSoundData@@@std@@QBEIXZ ENDP ; std::allocator<CustomSoundData::tagNetworkInfo>::max_size
_TEXT	ENDS
PUBLIC	?max_size@?$allocator@PAUtagCustomSoundInfo@ioCustomSoundMgr@@@std@@QBEIXZ ; std::allocator<ioCustomSoundMgr::tagCustomSoundInfo *>::max_size
; Function compile flags: /Ogsp
;	COMDAT ?max_size@?$allocator@PAUtagCustomSoundInfo@ioCustomSoundMgr@@@std@@QBEIXZ
_TEXT	SEGMENT
?max_size@?$allocator@PAUtagCustomSoundInfo@ioCustomSoundMgr@@@std@@QBEIXZ PROC ; std::allocator<ioCustomSoundMgr::tagCustomSoundInfo *>::max_size, COMDAT
; _this$ = ecx

; 218  : 		_SIZT _Count = (_SIZT)(-1) / sizeof (_Ty);
; 219  : 		return (0 < _Count ? _Count : 1);

  00000	b8 ff ff ff 3f	 mov	 eax, 1073741823		; 3fffffffH

; 220  : 		}

  00005	c3		 ret	 0
?max_size@?$allocator@PAUtagCustomSoundInfo@ioCustomSoundMgr@@@std@@QBEIXZ ENDP ; std::allocator<ioCustomSoundMgr::tagCustomSoundInfo *>::max_size
_TEXT	ENDS
PUBLIC	??$addressof@VioHashString@@@std@@YAPAVioHashString@@AAV1@@Z ; std::addressof<ioHashString>
; Function compile flags: /Ogsp
;	COMDAT ??$addressof@VioHashString@@@std@@YAPAVioHashString@@AAV1@@Z
_TEXT	SEGMENT
__Val$ = 8						; size = 4
??$addressof@VioHashString@@@std@@YAPAVioHashString@@AAV1@@Z PROC ; std::addressof<ioHashString>, COMDAT

; 110  : 	{	// return address of _Val

  00000	55		 push	 ebp
  00001	8b ec		 mov	 ebp, esp

; 111  : 	return ((_Ty *) &(char&)_Val);

  00003	8b 45 08	 mov	 eax, DWORD PTR __Val$[ebp]

; 112  : 	}

  00006	5d		 pop	 ebp
  00007	c3		 ret	 0
??$addressof@VioHashString@@@std@@YAPAVioHashString@@AAV1@@Z ENDP ; std::addressof<ioHashString>
_TEXT	ENDS
PUBLIC	??$forward@VioHashString@@@std@@YA$$QAVioHashString@@AAV1@@Z ; std::forward<ioHashString>
; Function compile flags: /Ogsp
; File c:\program files (x86)\microsoft visual studio 10.0\vc\include\utility
;	COMDAT ??$forward@VioHashString@@@std@@YA$$QAVioHashString@@AAV1@@Z
_TEXT	SEGMENT
__Arg$ = 8						; size = 4
??$forward@VioHashString@@@std@@YA$$QAVioHashString@@AAV1@@Z PROC ; std::forward<ioHashString>, COMDAT

; 78   : 	{	// forward _Arg, given explicitly specified type parameter

  00000	55		 push	 ebp
  00001	8b ec		 mov	 ebp, esp

; 79   : 	return ((_Ty&&)_Arg);

  00003	8b 45 08	 mov	 eax, DWORD PTR __Arg$[ebp]

; 80   : 	}

  00006	5d		 pop	 ebp
  00007	c3		 ret	 0
??$forward@VioHashString@@@std@@YA$$QAVioHashString@@AAV1@@Z ENDP ; std::forward<ioHashString>
_TEXT	ENDS
PUBLIC	??$addressof@$$CBVioHashString@@@std@@YAPBVioHashString@@ABV1@@Z ; std::addressof<ioHashString const >
; Function compile flags: /Ogsp
; File c:\program files (x86)\microsoft visual studio 10.0\vc\include\xmemory
;	COMDAT ??$addressof@$$CBVioHashString@@@std@@YAPBVioHashString@@ABV1@@Z
_TEXT	SEGMENT
__Val$ = 8						; size = 4
??$addressof@$$CBVioHashString@@@std@@YAPBVioHashString@@ABV1@@Z PROC ; std::addressof<ioHashString const >, COMDAT

; 110  : 	{	// return address of _Val

  00000	55		 push	 ebp
  00001	8b ec		 mov	 ebp, esp

; 111  : 	return ((_Ty *) &(char&)_Val);

  00003	8b 45 08	 mov	 eax, DWORD PTR __Val$[ebp]

; 112  : 	}

  00006	5d		 pop	 ebp
  00007	c3		 ret	 0
??$addressof@$$CBVioHashString@@@std@@YAPBVioHashString@@ABV1@@Z ENDP ; std::addressof<ioHashString const >
_TEXT	ENDS
PUBLIC	??$addressof@$$CBUtagNetworkInfo@CustomSoundData@@@std@@YAPBUtagNetworkInfo@CustomSoundData@@ABU12@@Z ; std::addressof<CustomSoundData::tagNetworkInfo const >
; Function compile flags: /Ogsp
;	COMDAT ??$addressof@$$CBUtagNetworkInfo@CustomSoundData@@@std@@YAPBUtagNetworkInfo@CustomSoundData@@ABU12@@Z
_TEXT	SEGMENT
__Val$ = 8						; size = 4
??$addressof@$$CBUtagNetworkInfo@CustomSoundData@@@std@@YAPBUtagNetworkInfo@CustomSoundData@@ABU12@@Z PROC ; std::addressof<CustomSoundData::tagNetworkInfo const >, COMDAT

; 110  : 	{	// return address of _Val

  00000	55		 push	 ebp
  00001	8b ec		 mov	 ebp, esp

; 111  : 	return ((_Ty *) &(char&)_Val);

  00003	8b 45 08	 mov	 eax, DWORD PTR __Val$[ebp]

; 112  : 	}

  00006	5d		 pop	 ebp
  00007	c3		 ret	 0
??$addressof@$$CBUtagNetworkInfo@CustomSoundData@@@std@@YAPBUtagNetworkInfo@CustomSoundData@@ABU12@@Z ENDP ; std::addressof<CustomSoundData::tagNetworkInfo const >
_TEXT	ENDS
PUBLIC	??$addressof@QAUtagCustomSoundInfo@ioCustomSoundMgr@@@std@@YAPBQAUtagCustomSoundInfo@ioCustomSoundMgr@@ABQAU12@@Z ; std::addressof<ioCustomSoundMgr::tagCustomSoundInfo * const>
; Function compile flags: /Ogsp
;	COMDAT ??$addressof@QAUtagCustomSoundInfo@ioCustomSoundMgr@@@std@@YAPBQAUtagCustomSoundInfo@ioCustomSoundMgr@@ABQAU12@@Z
_TEXT	SEGMENT
__Val$ = 8						; size = 4
??$addressof@QAUtagCustomSoundInfo@ioCustomSoundMgr@@@std@@YAPBQAUtagCustomSoundInfo@ioCustomSoundMgr@@ABQAU12@@Z PROC ; std::addressof<ioCustomSoundMgr::tagCustomSoundInfo * const>, COMDAT

; 110  : 	{	// return address of _Val

  00000	55		 push	 ebp
  00001	8b ec		 mov	 ebp, esp

; 111  : 	return ((_Ty *) &(char&)_Val);

  00003	8b 45 08	 mov	 eax, DWORD PTR __Val$[ebp]

; 112  : 	}

  00006	5d		 pop	 ebp
  00007	c3		 ret	 0
??$addressof@QAUtagCustomSoundInfo@ioCustomSoundMgr@@@std@@YAPBQAUtagCustomSoundInfo@ioCustomSoundMgr@@ABQAU12@@Z ENDP ; std::addressof<ioCustomSoundMgr::tagCustomSoundInfo * const>
_TEXT	ENDS
PUBLIC	??$_Kfn@$$CBKPAVCustomSoundData@@@?$_Tmap_traits@KPAVCustomSoundData@@U?$less@K@std@@V?$allocator@U?$pair@$$CBKPAVCustomSoundData@@@std@@@3@$0A@@std@@SAABKABU?$pair@$$CBKPAVCustomSoundData@@@1@@Z ; std::_Tmap_traits<unsigned long,CustomSoundData *,std::less<unsigned long>,std::allocator<std::pair<unsigned long const ,CustomSoundData *> >,0>::_Kfn<unsigned long const ,CustomSoundData *>
; Function compile flags: /Ogsp
; File c:\program files (x86)\microsoft visual studio 10.0\vc\include\map
;	COMDAT ??$_Kfn@$$CBKPAVCustomSoundData@@@?$_Tmap_traits@KPAVCustomSoundData@@U?$less@K@std@@V?$allocator@U?$pair@$$CBKPAVCustomSoundData@@@std@@@3@$0A@@std@@SAABKABU?$pair@$$CBKPAVCustomSoundData@@@1@@Z
_TEXT	SEGMENT
__Val$ = 8						; size = 4
??$_Kfn@$$CBKPAVCustomSoundData@@@?$_Tmap_traits@KPAVCustomSoundData@@U?$less@K@std@@V?$allocator@U?$pair@$$CBKPAVCustomSoundData@@@std@@@3@$0A@@std@@SAABKABU?$pair@$$CBKPAVCustomSoundData@@@1@@Z PROC ; std::_Tmap_traits<unsigned long,CustomSoundData *,std::less<unsigned long>,std::allocator<std::pair<unsigned long const ,CustomSoundData *> >,0>::_Kfn<unsigned long const ,CustomSoundData *>, COMDAT

; 66   : 		static const _Kty& _Kfn(const _STD pair<_Ty1, _Ty2>& _Val)

  00000	55		 push	 ebp
  00001	8b ec		 mov	 ebp, esp

; 67   : 		{	// extract key from element value
; 68   : 		return (_Val.first);

  00003	8b 45 08	 mov	 eax, DWORD PTR __Val$[ebp]

; 69   : 		}

  00006	5d		 pop	 ebp
  00007	c3		 ret	 0
??$_Kfn@$$CBKPAVCustomSoundData@@@?$_Tmap_traits@KPAVCustomSoundData@@U?$less@K@std@@V?$allocator@U?$pair@$$CBKPAVCustomSoundData@@@std@@@3@$0A@@std@@SAABKABU?$pair@$$CBKPAVCustomSoundData@@@1@@Z ENDP ; std::_Tmap_traits<unsigned long,CustomSoundData *,std::less<unsigned long>,std::allocator<std::pair<unsigned long const ,CustomSoundData *> >,0>::_Kfn<unsigned long const ,CustomSoundData *>
_TEXT	ENDS
PUBLIC	__TI2?AVbad_alloc@std@@
PUBLIC	??$_Allocate@UtagNetworkInfo@CustomSoundData@@@std@@YAPAUtagNetworkInfo@CustomSoundData@@IPAU12@@Z ; std::_Allocate<CustomSoundData::tagNetworkInfo>
PUBLIC	__CTA2?AVbad_alloc@std@@
PUBLIC	__CT??_R0?AVbad_alloc@std@@@8??0bad_alloc@std@@QAE@ABV01@@Z12
PUBLIC	??0bad_alloc@std@@QAE@ABV01@@Z			; std::bad_alloc::bad_alloc
PUBLIC	__CT??_R0?AVexception@std@@@8??0exception@std@@QAE@ABV01@@Z12
EXTRN	??2@YAPAXI@Z:PROC				; operator new
EXTRN	__CxxThrowException@8:PROC
EXTRN	??0exception@std@@QAE@ABV01@@Z:PROC		; std::exception::exception
;	COMDAT __CT??_R0?AVexception@std@@@8??0exception@std@@QAE@ABV01@@Z12
; File c:\program files (x86)\microsoft visual studio 10.0\vc\include\exception
xdata$x	SEGMENT
__CT??_R0?AVexception@std@@@8??0exception@std@@QAE@ABV01@@Z12 DD 00H
	DD	FLAT:??_R0?AVexception@std@@@8
	DD	00H
	DD	0ffffffffH
	ORG $+4
	DD	0cH
	DD	FLAT:??0exception@std@@QAE@ABV01@@Z
xdata$x	ENDS
;	COMDAT __CT??_R0?AVbad_alloc@std@@@8??0bad_alloc@std@@QAE@ABV01@@Z12
xdata$x	SEGMENT
__CT??_R0?AVbad_alloc@std@@@8??0bad_alloc@std@@QAE@ABV01@@Z12 DD 00H
	DD	FLAT:??_R0?AVbad_alloc@std@@@8
	DD	00H
	DD	0ffffffffH
	ORG $+4
	DD	0cH
	DD	FLAT:??0bad_alloc@std@@QAE@ABV01@@Z
xdata$x	ENDS
;	COMDAT __CTA2?AVbad_alloc@std@@
xdata$x	SEGMENT
__CTA2?AVbad_alloc@std@@ DD 02H
	DD	FLAT:__CT??_R0?AVbad_alloc@std@@@8??0bad_alloc@std@@QAE@ABV01@@Z12
	DD	FLAT:__CT??_R0?AVexception@std@@@8??0exception@std@@QAE@ABV01@@Z12
xdata$x	ENDS
;	COMDAT __TI2?AVbad_alloc@std@@
xdata$x	SEGMENT
__TI2?AVbad_alloc@std@@ DD 00H
	DD	FLAT:??1bad_alloc@std@@UAE@XZ
	DD	00H
	DD	FLAT:__CTA2?AVbad_alloc@std@@
; Function compile flags: /Ogsp
; File c:\program files (x86)\microsoft visual studio 10.0\vc\include\xmemory
xdata$x	ENDS
;	COMDAT ??$_Allocate@UtagNetworkInfo@CustomSoundData@@@std@@YAPAUtagNetworkInfo@CustomSoundData@@IPAU12@@Z
_TEXT	SEGMENT
$T511102 = -12						; size = 12
$T511107 = 8						; size = 4
__Count$ = 8						; size = 4
___formal$ = 12						; size = 4
??$_Allocate@UtagNetworkInfo@CustomSoundData@@@std@@YAPAUtagNetworkInfo@CustomSoundData@@IPAU12@@Z PROC ; std::_Allocate<CustomSoundData::tagNetworkInfo>, COMDAT

; 30   : 	{	// allocate storage for _Count elements of type _Ty

  00000	55		 push	 ebp
  00001	8b ec		 mov	 ebp, esp

; 31   : 	void *_Ptr = 0;
; 32   : 
; 33   : 	if (_Count <= 0)

  00003	8b 4d 08	 mov	 ecx, DWORD PTR __Count$[ebp]
  00006	83 ec 0c	 sub	 esp, 12			; 0000000cH
  00009	33 c0		 xor	 eax, eax
  0000b	85 c9		 test	 ecx, ecx

; 34   : 		_Count = 0;
; 35   : 	else if (((_SIZT)(-1) / sizeof (_Ty) < _Count)

  0000d	74 3e		 je	 SHORT $LN5@Allocate

; 36   : 		|| (_Ptr = ::operator new(_Count * sizeof (_Ty))) == 0)

  0000f	81 f9 ff ff ff
	1f		 cmp	 ecx, 536870911		; 1fffffffH
  00015	77 10		 ja	 SHORT $LN1@Allocate
  00017	8b c1		 mov	 eax, ecx
  00019	c1 e0 03	 shl	 eax, 3
  0001c	50		 push	 eax
  0001d	e8 00 00 00 00	 call	 ??2@YAPAXI@Z		; operator new
  00022	59		 pop	 ecx
  00023	85 c0		 test	 eax, eax

; 38   : 
; 39   : 	return ((_Ty _FARQ *)_Ptr);

  00025	75 26		 jne	 SHORT $LN5@Allocate
$LN1@Allocate:

; 37   : 		_THROW_NCEE(bad_alloc, 0);

  00027	83 65 08 00	 and	 DWORD PTR $T511107[ebp], 0
  0002b	8d 45 08	 lea	 eax, DWORD PTR $T511107[ebp]
  0002e	50		 push	 eax
  0002f	8d 4d f4	 lea	 ecx, DWORD PTR $T511102[ebp]
  00032	ff 15 00 00 00
	00		 call	 DWORD PTR __imp_??0exception@std@@QAE@ABQBD@Z
  00038	68 00 00 00 00	 push	 OFFSET __TI2?AVbad_alloc@std@@
  0003d	8d 45 f4	 lea	 eax, DWORD PTR $T511102[ebp]
  00040	50		 push	 eax
  00041	c7 45 f4 00 00
	00 00		 mov	 DWORD PTR $T511102[ebp], OFFSET ??_7bad_alloc@std@@6B@
  00048	e8 00 00 00 00	 call	 __CxxThrowException@8
$LN10@Allocate:
$LN5@Allocate:

; 40   : 	}

  0004d	c9		 leave
  0004e	c3		 ret	 0
$LN9@Allocate:
??$_Allocate@UtagNetworkInfo@CustomSoundData@@@std@@YAPAUtagNetworkInfo@CustomSoundData@@IPAU12@@Z ENDP ; std::_Allocate<CustomSoundData::tagNetworkInfo>
_TEXT	ENDS
PUBLIC	??$_Allocate@PAUtagCustomSoundInfo@ioCustomSoundMgr@@@std@@YAPAPAUtagCustomSoundInfo@ioCustomSoundMgr@@IPAPAU12@@Z ; std::_Allocate<ioCustomSoundMgr::tagCustomSoundInfo *>
; Function compile flags: /Ogsp
;	COMDAT ??$_Allocate@PAUtagCustomSoundInfo@ioCustomSoundMgr@@@std@@YAPAPAUtagCustomSoundInfo@ioCustomSoundMgr@@IPAPAU12@@Z
_TEXT	SEGMENT
$T511112 = -12						; size = 12
$T511116 = 8						; size = 4
__Count$ = 8						; size = 4
___formal$ = 12						; size = 4
??$_Allocate@PAUtagCustomSoundInfo@ioCustomSoundMgr@@@std@@YAPAPAUtagCustomSoundInfo@ioCustomSoundMgr@@IPAPAU12@@Z PROC ; std::_Allocate<ioCustomSoundMgr::tagCustomSoundInfo *>, COMDAT

; 30   : 	{	// allocate storage for _Count elements of type _Ty

  00000	55		 push	 ebp
  00001	8b ec		 mov	 ebp, esp

; 31   : 	void *_Ptr = 0;
; 32   : 
; 33   : 	if (_Count <= 0)

  00003	8b 4d 08	 mov	 ecx, DWORD PTR __Count$[ebp]
  00006	83 ec 0c	 sub	 esp, 12			; 0000000cH
  00009	33 c0		 xor	 eax, eax
  0000b	85 c9		 test	 ecx, ecx

; 34   : 		_Count = 0;
; 35   : 	else if (((_SIZT)(-1) / sizeof (_Ty) < _Count)

  0000d	74 3e		 je	 SHORT $LN5@Allocate@2

; 36   : 		|| (_Ptr = ::operator new(_Count * sizeof (_Ty))) == 0)

  0000f	81 f9 ff ff ff
	3f		 cmp	 ecx, 1073741823		; 3fffffffH
  00015	77 10		 ja	 SHORT $LN1@Allocate@2
  00017	8b c1		 mov	 eax, ecx
  00019	c1 e0 02	 shl	 eax, 2
  0001c	50		 push	 eax
  0001d	e8 00 00 00 00	 call	 ??2@YAPAXI@Z		; operator new
  00022	59		 pop	 ecx
  00023	85 c0		 test	 eax, eax

; 38   : 
; 39   : 	return ((_Ty _FARQ *)_Ptr);

  00025	75 26		 jne	 SHORT $LN5@Allocate@2
$LN1@Allocate@2:

; 37   : 		_THROW_NCEE(bad_alloc, 0);

  00027	83 65 08 00	 and	 DWORD PTR $T511116[ebp], 0
  0002b	8d 45 08	 lea	 eax, DWORD PTR $T511116[ebp]
  0002e	50		 push	 eax
  0002f	8d 4d f4	 lea	 ecx, DWORD PTR $T511112[ebp]
  00032	ff 15 00 00 00
	00		 call	 DWORD PTR __imp_??0exception@std@@QAE@ABQBD@Z
  00038	68 00 00 00 00	 push	 OFFSET __TI2?AVbad_alloc@std@@
  0003d	8d 45 f4	 lea	 eax, DWORD PTR $T511112[ebp]
  00040	50		 push	 eax
  00041	c7 45 f4 00 00
	00 00		 mov	 DWORD PTR $T511112[ebp], OFFSET ??_7bad_alloc@std@@6B@
  00048	e8 00 00 00 00	 call	 __CxxThrowException@8
$LN10@Allocate@2:
$LN5@Allocate@2:

; 40   : 	}

  0004d	c9		 leave
  0004e	c3		 ret	 0
$LN9@Allocate@2:
??$_Allocate@PAUtagCustomSoundInfo@ioCustomSoundMgr@@@std@@YAPAPAUtagCustomSoundInfo@ioCustomSoundMgr@@IPAPAU12@@Z ENDP ; std::_Allocate<ioCustomSoundMgr::tagCustomSoundInfo *>
_TEXT	ENDS
PUBLIC	?construct@?$allocator@VioHashString@@@std@@QAEXPAVioHashString@@$$QAV3@@Z ; std::allocator<ioHashString>::construct
EXTRN	__imp_??0ioHashString@@QAE@ABV0@@Z:PROC
;	COMDAT xdata$x
; File c:\program files (x86)\microsoft visual studio 10.0\vc\include\utility
xdata$x	SEGMENT
__unwindtable$?construct@?$allocator@VioHashString@@@std@@QAEXPAVioHashString@@$$QAV3@@Z DD 0ffffffffH
	DD	FLAT:__unwindfunclet$?construct@?$allocator@VioHashString@@@std@@QAEXPAVioHashString@@$$QAV3@@Z$0
__ehfuncinfo$?construct@?$allocator@VioHashString@@@std@@QAEXPAVioHashString@@$$QAV3@@Z DD 019930522H
	DD	01H
	DD	FLAT:__unwindtable$?construct@?$allocator@VioHashString@@@std@@QAEXPAVioHashString@@$$QAV3@@Z
	DD	2 DUP(00H)
	DD	2 DUP(00H)
	DD	00H
	DD	01H
; Function compile flags: /Ogsp
; File c:\program files (x86)\microsoft visual studio 10.0\vc\include\xmemory
xdata$x	ENDS
;	COMDAT ?construct@?$allocator@VioHashString@@@std@@QAEXPAVioHashString@@$$QAV3@@Z
_TEXT	SEGMENT
$T511122 = -16						; size = 4
__$EHRec$ = -12						; size = 12
__Ptr$ = 8						; size = 4
__Val$ = 12						; size = 4
?construct@?$allocator@VioHashString@@@std@@QAEXPAVioHashString@@$$QAV3@@Z PROC ; std::allocator<ioHashString>::construct, COMDAT
; _this$ = ecx

; 201  : 		{	// construct object at _Ptr with value _Val

  00000	6a 04		 push	 4
  00002	b8 00 00 00 00	 mov	 eax, __ehhandler$?construct@?$allocator@VioHashString@@@std@@QAEXPAVioHashString@@$$QAV3@@Z
  00007	e8 00 00 00 00	 call	 __EH_prolog3

; 202  : 		::new ((void _FARQ *)_Ptr) _Ty(_STD forward<_Ty>(_Val));

  0000c	8b 4d 08	 mov	 ecx, DWORD PTR __Ptr$[ebp]
  0000f	89 4d f0	 mov	 DWORD PTR $T511122[ebp], ecx
  00012	83 65 fc 00	 and	 DWORD PTR __$EHRec$[ebp+8], 0
  00016	85 c9		 test	 ecx, ecx
  00018	74 09		 je	 SHORT $LN3@construct
  0001a	ff 75 0c	 push	 DWORD PTR __Val$[ebp]
  0001d	ff 15 00 00 00
	00		 call	 DWORD PTR __imp_??0ioHashString@@QAE@ABV0@@Z
$LN3@construct:

; 203  : 		}

  00023	e8 00 00 00 00	 call	 __EH_epilog3
  00028	c2 08 00	 ret	 8
_TEXT	ENDS
;	COMDAT text$x
text$x	SEGMENT
__unwindfunclet$?construct@?$allocator@VioHashString@@@std@@QAEXPAVioHashString@@$$QAV3@@Z$0:
  00000	ff 75 08	 push	 DWORD PTR __Ptr$[ebp]
  00003	ff 75 f0	 push	 DWORD PTR $T511122[ebp]
  00006	e8 00 00 00 00	 call	 ??3@YAXPAX0@Z		; operator delete
  0000b	59		 pop	 ecx
  0000c	59		 pop	 ecx
  0000d	c3		 ret	 0
__ehhandler$?construct@?$allocator@VioHashString@@@std@@QAEXPAVioHashString@@$$QAV3@@Z:
  0000e	8b 54 24 08	 mov	 edx, DWORD PTR [esp+8]
  00012	8d 42 0c	 lea	 eax, DWORD PTR [edx+12]
  00015	8b 4a ec	 mov	 ecx, DWORD PTR [edx-20]
  00018	33 c8		 xor	 ecx, eax
  0001a	e8 00 00 00 00	 call	 @__security_check_cookie@4
  0001f	b8 00 00 00 00	 mov	 eax, OFFSET __ehfuncinfo$?construct@?$allocator@VioHashString@@@std@@QAEXPAVioHashString@@$$QAV3@@Z
  00024	e9 00 00 00 00	 jmp	 ___CxxFrameHandler3
text$x	ENDS
?construct@?$allocator@VioHashString@@@std@@QAEXPAVioHashString@@$$QAV3@@Z ENDP ; std::allocator<ioHashString>::construct
PUBLIC	?max_size@?$allocator@U?$pair@$$CBKPAVCustomSoundData@@@std@@@std@@QBEIXZ ; std::allocator<std::pair<unsigned long const ,CustomSoundData *> >::max_size
; Function compile flags: /Ogsp
;	COMDAT ?max_size@?$allocator@U?$pair@$$CBKPAVCustomSoundData@@@std@@@std@@QBEIXZ
_TEXT	SEGMENT
?max_size@?$allocator@U?$pair@$$CBKPAVCustomSoundData@@@std@@@std@@QBEIXZ PROC ; std::allocator<std::pair<unsigned long const ,CustomSoundData *> >::max_size, COMDAT
; _this$ = ecx

; 218  : 		_SIZT _Count = (_SIZT)(-1) / sizeof (_Ty);
; 219  : 		return (0 < _Count ? _Count : 1);

  00000	b8 ff ff ff 1f	 mov	 eax, 536870911		; 1fffffffH

; 220  : 		}

  00005	c3		 ret	 0
?max_size@?$allocator@U?$pair@$$CBKPAVCustomSoundData@@@std@@@std@@QBEIXZ ENDP ; std::allocator<std::pair<unsigned long const ,CustomSoundData *> >::max_size
_TEXT	ENDS
PUBLIC	??$forward@AAPAVCustomSoundData@@@std@@YAAAPAVCustomSoundData@@AAPAV1@@Z ; std::forward<CustomSoundData * &>
; Function compile flags: /Ogsp
; File c:\program files (x86)\microsoft visual studio 10.0\vc\include\utility
;	COMDAT ??$forward@AAPAVCustomSoundData@@@std@@YAAAPAVCustomSoundData@@AAPAV1@@Z
_TEXT	SEGMENT
__Arg$ = 8						; size = 4
??$forward@AAPAVCustomSoundData@@@std@@YAAAPAVCustomSoundData@@AAPAV1@@Z PROC ; std::forward<CustomSoundData * &>, COMDAT

; 78   : 	{	// forward _Arg, given explicitly specified type parameter

  00000	55		 push	 ebp
  00001	8b ec		 mov	 ebp, esp

; 79   : 	return ((_Ty&&)_Arg);

  00003	8b 45 08	 mov	 eax, DWORD PTR __Arg$[ebp]

; 80   : 	}

  00006	5d		 pop	 ebp
  00007	c3		 ret	 0
??$forward@AAPAVCustomSoundData@@@std@@YAAAPAVCustomSoundData@@AAPAV1@@Z ENDP ; std::forward<CustomSoundData * &>
_TEXT	ENDS
PUBLIC	??$forward@U?$pair@$$CBKPAVCustomSoundData@@@std@@@std@@YA$$QAU?$pair@$$CBKPAVCustomSoundData@@@0@AAU10@@Z ; std::forward<std::pair<unsigned long const ,CustomSoundData *> >
; Function compile flags: /Ogsp
;	COMDAT ??$forward@U?$pair@$$CBKPAVCustomSoundData@@@std@@@std@@YA$$QAU?$pair@$$CBKPAVCustomSoundData@@@0@AAU10@@Z
_TEXT	SEGMENT
__Arg$ = 8						; size = 4
??$forward@U?$pair@$$CBKPAVCustomSoundData@@@std@@@std@@YA$$QAU?$pair@$$CBKPAVCustomSoundData@@@0@AAU10@@Z PROC ; std::forward<std::pair<unsigned long const ,CustomSoundData *> >, COMDAT

; 78   : 	{	// forward _Arg, given explicitly specified type parameter

  00000	55		 push	 ebp
  00001	8b ec		 mov	 ebp, esp

; 79   : 	return ((_Ty&&)_Arg);

  00003	8b 45 08	 mov	 eax, DWORD PTR __Arg$[ebp]

; 80   : 	}

  00006	5d		 pop	 ebp
  00007	c3		 ret	 0
??$forward@U?$pair@$$CBKPAVCustomSoundData@@@std@@@std@@YA$$QAU?$pair@$$CBKPAVCustomSoundData@@@0@AAU10@@Z ENDP ; std::forward<std::pair<unsigned long const ,CustomSoundData *> >
_TEXT	ENDS
PUBLIC	??$forward@AAUtagNetworkInfo@CustomSoundData@@@std@@YAAAUtagNetworkInfo@CustomSoundData@@AAU12@@Z ; std::forward<CustomSoundData::tagNetworkInfo &>
; Function compile flags: /Ogsp
;	COMDAT ??$forward@AAUtagNetworkInfo@CustomSoundData@@@std@@YAAAUtagNetworkInfo@CustomSoundData@@AAU12@@Z
_TEXT	SEGMENT
__Arg$ = 8						; size = 4
??$forward@AAUtagNetworkInfo@CustomSoundData@@@std@@YAAAUtagNetworkInfo@CustomSoundData@@AAU12@@Z PROC ; std::forward<CustomSoundData::tagNetworkInfo &>, COMDAT

; 78   : 	{	// forward _Arg, given explicitly specified type parameter

  00000	55		 push	 ebp
  00001	8b ec		 mov	 ebp, esp

; 79   : 	return ((_Ty&&)_Arg);

  00003	8b 45 08	 mov	 eax, DWORD PTR __Arg$[ebp]

; 80   : 	}

  00006	5d		 pop	 ebp
  00007	c3		 ret	 0
??$forward@AAUtagNetworkInfo@CustomSoundData@@@std@@YAAAUtagNetworkInfo@CustomSoundData@@AAU12@@Z ENDP ; std::forward<CustomSoundData::tagNetworkInfo &>
_TEXT	ENDS
PUBLIC	??$construct@AAUtagNetworkInfo@CustomSoundData@@@?$allocator@UtagNetworkInfo@CustomSoundData@@@std@@QAEXPAUtagNetworkInfo@CustomSoundData@@AAU23@@Z ; std::allocator<CustomSoundData::tagNetworkInfo>::construct<CustomSoundData::tagNetworkInfo &>
; Function compile flags: /Ogsp
; File c:\program files (x86)\microsoft visual studio 10.0\vc\include\xmemory
;	COMDAT ??$construct@AAUtagNetworkInfo@CustomSoundData@@@?$allocator@UtagNetworkInfo@CustomSoundData@@@std@@QAEXPAUtagNetworkInfo@CustomSoundData@@AAU23@@Z
_TEXT	SEGMENT
__Ptr$ = 8						; size = 4
__Val$ = 12						; size = 4
??$construct@AAUtagNetworkInfo@CustomSoundData@@@?$allocator@UtagNetworkInfo@CustomSoundData@@@std@@QAEXPAUtagNetworkInfo@CustomSoundData@@AAU23@@Z PROC ; std::allocator<CustomSoundData::tagNetworkInfo>::construct<CustomSoundData::tagNetworkInfo &>, COMDAT
; _this$ = ecx

; 206  : 		void construct(pointer _Ptr, _Other&& _Val)

  00000	55		 push	 ebp
  00001	8b ec		 mov	 ebp, esp

; 207  : 		{	// construct object at _Ptr with value _Val
; 208  : 		::new ((void _FARQ *)_Ptr) _Ty(_STD forward<_Other>(_Val));

  00003	8b 45 08	 mov	 eax, DWORD PTR __Ptr$[ebp]
  00006	85 c0		 test	 eax, eax
  00008	74 0d		 je	 SHORT $LN3@construct@2
  0000a	8b 4d 0c	 mov	 ecx, DWORD PTR __Val$[ebp]
  0000d	8b 11		 mov	 edx, DWORD PTR [ecx]
  0000f	89 10		 mov	 DWORD PTR [eax], edx
  00011	8b 49 04	 mov	 ecx, DWORD PTR [ecx+4]
  00014	89 48 04	 mov	 DWORD PTR [eax+4], ecx
$LN3@construct@2:

; 209  : 		}

  00017	5d		 pop	 ebp
  00018	c2 08 00	 ret	 8
??$construct@AAUtagNetworkInfo@CustomSoundData@@@?$allocator@UtagNetworkInfo@CustomSoundData@@@std@@QAEXPAUtagNetworkInfo@CustomSoundData@@AAU23@@Z ENDP ; std::allocator<CustomSoundData::tagNetworkInfo>::construct<CustomSoundData::tagNetworkInfo &>
_TEXT	ENDS
PUBLIC	??$forward@ABUtagNetworkInfo@CustomSoundData@@@std@@YAABUtagNetworkInfo@CustomSoundData@@ABU12@@Z ; std::forward<CustomSoundData::tagNetworkInfo const &>
; Function compile flags: /Ogsp
; File c:\program files (x86)\microsoft visual studio 10.0\vc\include\utility
;	COMDAT ??$forward@ABUtagNetworkInfo@CustomSoundData@@@std@@YAABUtagNetworkInfo@CustomSoundData@@ABU12@@Z
_TEXT	SEGMENT
__Arg$ = 8						; size = 4
??$forward@ABUtagNetworkInfo@CustomSoundData@@@std@@YAABUtagNetworkInfo@CustomSoundData@@ABU12@@Z PROC ; std::forward<CustomSoundData::tagNetworkInfo const &>, COMDAT

; 78   : 	{	// forward _Arg, given explicitly specified type parameter

  00000	55		 push	 ebp
  00001	8b ec		 mov	 ebp, esp

; 79   : 	return ((_Ty&&)_Arg);

  00003	8b 45 08	 mov	 eax, DWORD PTR __Arg$[ebp]

; 80   : 	}

  00006	5d		 pop	 ebp
  00007	c3		 ret	 0
??$forward@ABUtagNetworkInfo@CustomSoundData@@@std@@YAABUtagNetworkInfo@CustomSoundData@@ABU12@@Z ENDP ; std::forward<CustomSoundData::tagNetworkInfo const &>
_TEXT	ENDS
PUBLIC	??$_Ptr_cat@UtagNetworkInfo@CustomSoundData@@U12@@std@@YA?AU_Nonscalar_ptr_iterator_tag@0@PAUtagNetworkInfo@CustomSoundData@@0@Z ; std::_Ptr_cat<CustomSoundData::tagNetworkInfo,CustomSoundData::tagNetworkInfo>
; Function compile flags: /Ogsp
; File c:\program files (x86)\microsoft visual studio 10.0\vc\include\xutility
;	COMDAT ??$_Ptr_cat@UtagNetworkInfo@CustomSoundData@@U12@@std@@YA?AU_Nonscalar_ptr_iterator_tag@0@PAUtagNetworkInfo@CustomSoundData@@0@Z
_TEXT	SEGMENT
__Cat$ = -1						; size = 1
___formal$ = 8						; size = 4
___formal$ = 12						; size = 4
??$_Ptr_cat@UtagNetworkInfo@CustomSoundData@@U12@@std@@YA?AU_Nonscalar_ptr_iterator_tag@0@PAUtagNetworkInfo@CustomSoundData@@0@Z PROC ; std::_Ptr_cat<CustomSoundData::tagNetworkInfo,CustomSoundData::tagNetworkInfo>, COMDAT

; 516  : 	{	// return pointer category from pointers

  00000	55		 push	 ebp
  00001	8b ec		 mov	 ebp, esp
  00003	51		 push	 ecx

; 517  : 	typename _Ptr_cat_helper<_Elem1, _Elem2>::_Type _Cat;
; 518  : 	return (_Cat);

  00004	8a 45 ff	 mov	 al, BYTE PTR __Cat$[ebp]

; 519  : 	}

  00007	c9		 leave
  00008	c3		 ret	 0
??$_Ptr_cat@UtagNetworkInfo@CustomSoundData@@U12@@std@@YA?AU_Nonscalar_ptr_iterator_tag@0@PAUtagNetworkInfo@CustomSoundData@@0@Z ENDP ; std::_Ptr_cat<CustomSoundData::tagNetworkInfo,CustomSoundData::tagNetworkInfo>
_TEXT	ENDS
PUBLIC	??$forward@AAPAUtagCustomSoundInfo@ioCustomSoundMgr@@@std@@YAAAPAUtagCustomSoundInfo@ioCustomSoundMgr@@AAPAU12@@Z ; std::forward<ioCustomSoundMgr::tagCustomSoundInfo * &>
; Function compile flags: /Ogsp
; File c:\program files (x86)\microsoft visual studio 10.0\vc\include\utility
;	COMDAT ??$forward@AAPAUtagCustomSoundInfo@ioCustomSoundMgr@@@std@@YAAAPAUtagCustomSoundInfo@ioCustomSoundMgr@@AAPAU12@@Z
_TEXT	SEGMENT
__Arg$ = 8						; size = 4
??$forward@AAPAUtagCustomSoundInfo@ioCustomSoundMgr@@@std@@YAAAPAUtagCustomSoundInfo@ioCustomSoundMgr@@AAPAU12@@Z PROC ; std::forward<ioCustomSoundMgr::tagCustomSoundInfo * &>, COMDAT

; 78   : 	{	// forward _Arg, given explicitly specified type parameter

  00000	55		 push	 ebp
  00001	8b ec		 mov	 ebp, esp

; 79   : 	return ((_Ty&&)_Arg);

  00003	8b 45 08	 mov	 eax, DWORD PTR __Arg$[ebp]

; 80   : 	}

  00006	5d		 pop	 ebp
  00007	c3		 ret	 0
??$forward@AAPAUtagCustomSoundInfo@ioCustomSoundMgr@@@std@@YAAAPAUtagCustomSoundInfo@ioCustomSoundMgr@@AAPAU12@@Z ENDP ; std::forward<ioCustomSoundMgr::tagCustomSoundInfo * &>
_TEXT	ENDS
PUBLIC	??$construct@AAPAUtagCustomSoundInfo@ioCustomSoundMgr@@@?$allocator@PAUtagCustomSoundInfo@ioCustomSoundMgr@@@std@@QAEXPAPAUtagCustomSoundInfo@ioCustomSoundMgr@@AAPAU23@@Z ; std::allocator<ioCustomSoundMgr::tagCustomSoundInfo *>::construct<ioCustomSoundMgr::tagCustomSoundInfo * &>
; Function compile flags: /Ogsp
; File c:\program files (x86)\microsoft visual studio 10.0\vc\include\xmemory
;	COMDAT ??$construct@AAPAUtagCustomSoundInfo@ioCustomSoundMgr@@@?$allocator@PAUtagCustomSoundInfo@ioCustomSoundMgr@@@std@@QAEXPAPAUtagCustomSoundInfo@ioCustomSoundMgr@@AAPAU23@@Z
_TEXT	SEGMENT
__Ptr$ = 8						; size = 4
__Val$ = 12						; size = 4
??$construct@AAPAUtagCustomSoundInfo@ioCustomSoundMgr@@@?$allocator@PAUtagCustomSoundInfo@ioCustomSoundMgr@@@std@@QAEXPAPAUtagCustomSoundInfo@ioCustomSoundMgr@@AAPAU23@@Z PROC ; std::allocator<ioCustomSoundMgr::tagCustomSoundInfo *>::construct<ioCustomSoundMgr::tagCustomSoundInfo * &>, COMDAT
; _this$ = ecx

; 206  : 		void construct(pointer _Ptr, _Other&& _Val)

  00000	55		 push	 ebp
  00001	8b ec		 mov	 ebp, esp

; 207  : 		{	// construct object at _Ptr with value _Val
; 208  : 		::new ((void _FARQ *)_Ptr) _Ty(_STD forward<_Other>(_Val));

  00003	8b 45 08	 mov	 eax, DWORD PTR __Ptr$[ebp]
  00006	85 c0		 test	 eax, eax
  00008	74 07		 je	 SHORT $LN3@construct@3
  0000a	8b 4d 0c	 mov	 ecx, DWORD PTR __Val$[ebp]
  0000d	8b 09		 mov	 ecx, DWORD PTR [ecx]
  0000f	89 08		 mov	 DWORD PTR [eax], ecx
$LN3@construct@3:

; 209  : 		}

  00011	5d		 pop	 ebp
  00012	c2 08 00	 ret	 8
??$construct@AAPAUtagCustomSoundInfo@ioCustomSoundMgr@@@?$allocator@PAUtagCustomSoundInfo@ioCustomSoundMgr@@@std@@QAEXPAPAUtagCustomSoundInfo@ioCustomSoundMgr@@AAPAU23@@Z ENDP ; std::allocator<ioCustomSoundMgr::tagCustomSoundInfo *>::construct<ioCustomSoundMgr::tagCustomSoundInfo * &>
_TEXT	ENDS
PUBLIC	??$forward@ABQAUtagCustomSoundInfo@ioCustomSoundMgr@@@std@@YAABQAUtagCustomSoundInfo@ioCustomSoundMgr@@ABQAU12@@Z ; std::forward<ioCustomSoundMgr::tagCustomSoundInfo * const &>
; Function compile flags: /Ogsp
; File c:\program files (x86)\microsoft visual studio 10.0\vc\include\utility
;	COMDAT ??$forward@ABQAUtagCustomSoundInfo@ioCustomSoundMgr@@@std@@YAABQAUtagCustomSoundInfo@ioCustomSoundMgr@@ABQAU12@@Z
_TEXT	SEGMENT
__Arg$ = 8						; size = 4
??$forward@ABQAUtagCustomSoundInfo@ioCustomSoundMgr@@@std@@YAABQAUtagCustomSoundInfo@ioCustomSoundMgr@@ABQAU12@@Z PROC ; std::forward<ioCustomSoundMgr::tagCustomSoundInfo * const &>, COMDAT

; 78   : 	{	// forward _Arg, given explicitly specified type parameter

  00000	55		 push	 ebp
  00001	8b ec		 mov	 ebp, esp

; 79   : 	return ((_Ty&&)_Arg);

  00003	8b 45 08	 mov	 eax, DWORD PTR __Arg$[ebp]

; 80   : 	}

  00006	5d		 pop	 ebp
  00007	c3		 ret	 0
??$forward@ABQAUtagCustomSoundInfo@ioCustomSoundMgr@@@std@@YAABQAUtagCustomSoundInfo@ioCustomSoundMgr@@ABQAU12@@Z ENDP ; std::forward<ioCustomSoundMgr::tagCustomSoundInfo * const &>
_TEXT	ENDS
PUBLIC	??$_Ptr_cat@PAUtagCustomSoundInfo@ioCustomSoundMgr@@PAU12@@std@@YA?AU_Scalar_ptr_iterator_tag@0@PAPAUtagCustomSoundInfo@ioCustomSoundMgr@@0@Z ; std::_Ptr_cat<ioCustomSoundMgr::tagCustomSoundInfo *,ioCustomSoundMgr::tagCustomSoundInfo *>
; Function compile flags: /Ogsp
; File c:\program files (x86)\microsoft visual studio 10.0\vc\include\xutility
;	COMDAT ??$_Ptr_cat@PAUtagCustomSoundInfo@ioCustomSoundMgr@@PAU12@@std@@YA?AU_Scalar_ptr_iterator_tag@0@PAPAUtagCustomSoundInfo@ioCustomSoundMgr@@0@Z
_TEXT	SEGMENT
__Cat$ = -1						; size = 1
___formal$ = 8						; size = 4
___formal$ = 12						; size = 4
??$_Ptr_cat@PAUtagCustomSoundInfo@ioCustomSoundMgr@@PAU12@@std@@YA?AU_Scalar_ptr_iterator_tag@0@PAPAUtagCustomSoundInfo@ioCustomSoundMgr@@0@Z PROC ; std::_Ptr_cat<ioCustomSoundMgr::tagCustomSoundInfo *,ioCustomSoundMgr::tagCustomSoundInfo *>, COMDAT

; 516  : 	{	// return pointer category from pointers

  00000	55		 push	 ebp
  00001	8b ec		 mov	 ebp, esp
  00003	51		 push	 ecx

; 517  : 	typename _Ptr_cat_helper<_Elem1, _Elem2>::_Type _Cat;
; 518  : 	return (_Cat);

  00004	8a 45 ff	 mov	 al, BYTE PTR __Cat$[ebp]

; 519  : 	}

  00007	c9		 leave
  00008	c3		 ret	 0
??$_Ptr_cat@PAUtagCustomSoundInfo@ioCustomSoundMgr@@PAU12@@std@@YA?AU_Scalar_ptr_iterator_tag@0@PAPAUtagCustomSoundInfo@ioCustomSoundMgr@@0@Z ENDP ; std::_Ptr_cat<ioCustomSoundMgr::tagCustomSoundInfo *,ioCustomSoundMgr::tagCustomSoundInfo *>
_TEXT	ENDS
PUBLIC	??$_Move@PAPAUtagCustomSoundInfo@ioCustomSoundMgr@@PAPAU12@@std@@YAPAPAUtagCustomSoundInfo@ioCustomSoundMgr@@PAPAU12@00U_Scalar_ptr_iterator_tag@0@@Z ; std::_Move<ioCustomSoundMgr::tagCustomSoundInfo * *,ioCustomSoundMgr::tagCustomSoundInfo * *>
EXTRN	__imp__memmove:PROC
; Function compile flags: /Ogsp
;	COMDAT ??$_Move@PAPAUtagCustomSoundInfo@ioCustomSoundMgr@@PAPAU12@@std@@YAPAPAUtagCustomSoundInfo@ioCustomSoundMgr@@PAPAU12@00U_Scalar_ptr_iterator_tag@0@@Z
_TEXT	SEGMENT
__First$ = 8						; size = 4
__Last$ = 12						; size = 4
__Dest$ = 16						; size = 4
___formal$ = 20						; size = 1
??$_Move@PAPAUtagCustomSoundInfo@ioCustomSoundMgr@@PAPAU12@@std@@YAPAPAUtagCustomSoundInfo@ioCustomSoundMgr@@PAPAU12@00U_Scalar_ptr_iterator_tag@0@@Z PROC ; std::_Move<ioCustomSoundMgr::tagCustomSoundInfo * *,ioCustomSoundMgr::tagCustomSoundInfo * *>, COMDAT

; 2522 : 	{	// move [_First, _Last) to [_Dest, ...), pointers to scalars

  00000	55		 push	 ebp
  00001	8b ec		 mov	 ebp, esp
  00003	56		 push	 esi

; 2523 : 	ptrdiff_t _Count = _Last - _First;

  00004	8b 75 0c	 mov	 esi, DWORD PTR __Last$[ebp]
  00007	2b 75 08	 sub	 esi, DWORD PTR __First$[ebp]
  0000a	57		 push	 edi

; 2524 : 	_CSTD memmove(&*_Dest, &*_First,
; 2525 : 		_Count * sizeof (*_First));

  0000b	8b 7d 10	 mov	 edi, DWORD PTR __Dest$[ebp]
  0000e	c1 fe 02	 sar	 esi, 2
  00011	c1 e6 02	 shl	 esi, 2
  00014	56		 push	 esi
  00015	ff 75 08	 push	 DWORD PTR __First$[ebp]
  00018	57		 push	 edi
  00019	ff 15 00 00 00
	00		 call	 DWORD PTR __imp__memmove
  0001f	83 c4 0c	 add	 esp, 12			; 0000000cH

; 2526 : 	return (_Dest + _Count);

  00022	8d 04 3e	 lea	 eax, DWORD PTR [esi+edi]
  00025	5f		 pop	 edi
  00026	5e		 pop	 esi

; 2527 : 	}

  00027	5d		 pop	 ebp
  00028	c3		 ret	 0
??$_Move@PAPAUtagCustomSoundInfo@ioCustomSoundMgr@@PAPAU12@@std@@YAPAPAUtagCustomSoundInfo@ioCustomSoundMgr@@PAPAU12@00U_Scalar_ptr_iterator_tag@0@@Z ENDP ; std::_Move<ioCustomSoundMgr::tagCustomSoundInfo * *,ioCustomSoundMgr::tagCustomSoundInfo * *>
_TEXT	ENDS
PUBLIC	??$_Destroy_range@V?$allocator@PAUtagCustomSoundInfo@ioCustomSoundMgr@@@std@@@std@@YAXPAPAUtagCustomSoundInfo@ioCustomSoundMgr@@0AAV?$allocator@PAUtagCustomSoundInfo@ioCustomSoundMgr@@@0@U_Scalar_ptr_iterator_tag@0@@Z ; std::_Destroy_range<std::allocator<ioCustomSoundMgr::tagCustomSoundInfo *> >
; Function compile flags: /Ogsp
; File c:\program files (x86)\microsoft visual studio 10.0\vc\include\xmemory
;	COMDAT ??$_Destroy_range@V?$allocator@PAUtagCustomSoundInfo@ioCustomSoundMgr@@@std@@@std@@YAXPAPAUtagCustomSoundInfo@ioCustomSoundMgr@@0AAV?$allocator@PAUtagCustomSoundInfo@ioCustomSoundMgr@@@0@U_Scalar_ptr_iterator_tag@0@@Z
_TEXT	SEGMENT
__First$ = 8						; size = 4
__Last$ = 12						; size = 4
__Al$ = 16						; size = 4
___formal$ = 20						; size = 1
??$_Destroy_range@V?$allocator@PAUtagCustomSoundInfo@ioCustomSoundMgr@@@std@@@std@@YAXPAPAUtagCustomSoundInfo@ioCustomSoundMgr@@0AAV?$allocator@PAUtagCustomSoundInfo@ioCustomSoundMgr@@@0@U_Scalar_ptr_iterator_tag@0@@Z PROC ; std::_Destroy_range<std::allocator<ioCustomSoundMgr::tagCustomSoundInfo *> >, COMDAT

; 105  : 	}

  00000	c3		 ret	 0
??$_Destroy_range@V?$allocator@PAUtagCustomSoundInfo@ioCustomSoundMgr@@@std@@@std@@YAXPAPAUtagCustomSoundInfo@ioCustomSoundMgr@@0AAV?$allocator@PAUtagCustomSoundInfo@ioCustomSoundMgr@@@0@U_Scalar_ptr_iterator_tag@0@@Z ENDP ; std::_Destroy_range<std::allocator<ioCustomSoundMgr::tagCustomSoundInfo *> >
_TEXT	ENDS
PUBLIC	??$_Construct@UtagNetworkInfo@CustomSoundData@@ABU12@@std@@YAXPAUtagNetworkInfo@CustomSoundData@@ABU12@@Z ; std::_Construct<CustomSoundData::tagNetworkInfo,CustomSoundData::tagNetworkInfo const &>
; Function compile flags: /Ogsp
;	COMDAT ??$_Construct@UtagNetworkInfo@CustomSoundData@@ABU12@@std@@YAXPAUtagNetworkInfo@CustomSoundData@@ABU12@@Z
_TEXT	SEGMENT
__Ptr$ = 8						; size = 4
__Val$ = 12						; size = 4
??$_Construct@UtagNetworkInfo@CustomSoundData@@ABU12@@std@@YAXPAUtagNetworkInfo@CustomSoundData@@ABU12@@Z PROC ; std::_Construct<CustomSoundData::tagNetworkInfo,CustomSoundData::tagNetworkInfo const &>, COMDAT

; 46   : 	{	// construct object at _Ptr with value _Val

  00000	55		 push	 ebp
  00001	8b ec		 mov	 ebp, esp

; 47   : 	void _FARQ *_Vptr = _Ptr;
; 48   : 	::new (_Vptr) _Ty1(_STD forward<_Ty2>(_Val));

  00003	8b 45 08	 mov	 eax, DWORD PTR __Ptr$[ebp]
  00006	85 c0		 test	 eax, eax
  00008	74 0d		 je	 SHORT $LN3@Construct
  0000a	8b 4d 0c	 mov	 ecx, DWORD PTR __Val$[ebp]
  0000d	8b 11		 mov	 edx, DWORD PTR [ecx]
  0000f	89 10		 mov	 DWORD PTR [eax], edx
  00011	8b 49 04	 mov	 ecx, DWORD PTR [ecx+4]
  00014	89 48 04	 mov	 DWORD PTR [eax+4], ecx
$LN3@Construct:

; 49   : 	}

  00017	5d		 pop	 ebp
  00018	c3		 ret	 0
??$_Construct@UtagNetworkInfo@CustomSoundData@@ABU12@@std@@YAXPAUtagNetworkInfo@CustomSoundData@@ABU12@@Z ENDP ; std::_Construct<CustomSoundData::tagNetworkInfo,CustomSoundData::tagNetworkInfo const &>
_TEXT	ENDS
PUBLIC	??$_Construct@PAUtagCustomSoundInfo@ioCustomSoundMgr@@ABQAU12@@std@@YAXPAPAUtagCustomSoundInfo@ioCustomSoundMgr@@ABQAU12@@Z ; std::_Construct<ioCustomSoundMgr::tagCustomSoundInfo *,ioCustomSoundMgr::tagCustomSoundInfo * const &>
; Function compile flags: /Ogsp
;	COMDAT ??$_Construct@PAUtagCustomSoundInfo@ioCustomSoundMgr@@ABQAU12@@std@@YAXPAPAUtagCustomSoundInfo@ioCustomSoundMgr@@ABQAU12@@Z
_TEXT	SEGMENT
__Ptr$ = 8						; size = 4
__Val$ = 12						; size = 4
??$_Construct@PAUtagCustomSoundInfo@ioCustomSoundMgr@@ABQAU12@@std@@YAXPAPAUtagCustomSoundInfo@ioCustomSoundMgr@@ABQAU12@@Z PROC ; std::_Construct<ioCustomSoundMgr::tagCustomSoundInfo *,ioCustomSoundMgr::tagCustomSoundInfo * const &>, COMDAT

; 46   : 	{	// construct object at _Ptr with value _Val

  00000	55		 push	 ebp
  00001	8b ec		 mov	 ebp, esp

; 47   : 	void _FARQ *_Vptr = _Ptr;
; 48   : 	::new (_Vptr) _Ty1(_STD forward<_Ty2>(_Val));

  00003	8b 45 08	 mov	 eax, DWORD PTR __Ptr$[ebp]
  00006	85 c0		 test	 eax, eax
  00008	74 07		 je	 SHORT $LN3@Construct@2
  0000a	8b 4d 0c	 mov	 ecx, DWORD PTR __Val$[ebp]
  0000d	8b 09		 mov	 ecx, DWORD PTR [ecx]
  0000f	89 08		 mov	 DWORD PTR [eax], ecx
$LN3@Construct@2:

; 49   : 	}

  00011	5d		 pop	 ebp
  00012	c3		 ret	 0
??$_Construct@PAUtagCustomSoundInfo@ioCustomSoundMgr@@ABQAU12@@std@@YAXPAPAUtagCustomSoundInfo@ioCustomSoundMgr@@ABQAU12@@Z ENDP ; std::_Construct<ioCustomSoundMgr::tagCustomSoundInfo *,ioCustomSoundMgr::tagCustomSoundInfo * const &>
_TEXT	ENDS
PUBLIC	??$move@AAV?$_Tree_iterator@V?$_Tree_val@V?$_Tmap_traits@KPAVCustomSoundData@@U?$less@K@std@@V?$allocator@U?$pair@$$CBKPAVCustomSoundData@@@std@@@3@$0A@@std@@@std@@@std@@@std@@YA$$QAV?$_Tree_iterator@V?$_Tree_val@V?$_Tmap_traits@KPAVCustomSoundData@@U?$less@K@std@@V?$allocator@U?$pair@$$CBKPAVCustomSoundData@@@std@@@3@$0A@@std@@@std@@@0@AAV10@@Z ; std::move<std::_Tree_iterator<std::_Tree_val<std::_Tmap_traits<unsigned long,CustomSoundData *,std::less<unsigned long>,std::allocator<std::pair<unsigned long const ,CustomSoundData *> >,0> > > &>
; Function compile flags: /Ogsp
; File c:\program files (x86)\microsoft visual studio 10.0\vc\include\utility
;	COMDAT ??$move@AAV?$_Tree_iterator@V?$_Tree_val@V?$_Tmap_traits@KPAVCustomSoundData@@U?$less@K@std@@V?$allocator@U?$pair@$$CBKPAVCustomSoundData@@@std@@@3@$0A@@std@@@std@@@std@@@std@@YA$$QAV?$_Tree_iterator@V?$_Tree_val@V?$_Tmap_traits@KPAVCustomSoundData@@U?$less@K@std@@V?$allocator@U?$pair@$$CBKPAVCustomSoundData@@@std@@@3@$0A@@std@@@std@@@0@AAV10@@Z
_TEXT	SEGMENT
__Arg$ = 8						; size = 4
??$move@AAV?$_Tree_iterator@V?$_Tree_val@V?$_Tmap_traits@KPAVCustomSoundData@@U?$less@K@std@@V?$allocator@U?$pair@$$CBKPAVCustomSoundData@@@std@@@3@$0A@@std@@@std@@@std@@@std@@YA$$QAV?$_Tree_iterator@V?$_Tree_val@V?$_Tmap_traits@KPAVCustomSoundData@@U?$less@K@std@@V?$allocator@U?$pair@$$CBKPAVCustomSoundData@@@std@@@3@$0A@@std@@@std@@@0@AAV10@@Z PROC ; std::move<std::_Tree_iterator<std::_Tree_val<std::_Tmap_traits<unsigned long,CustomSoundData *,std::less<unsigned long>,std::allocator<std::pair<unsigned long const ,CustomSoundData *> >,0> > > &>, COMDAT

; 86   : 	{	// forward _Arg as movable

  00000	55		 push	 ebp
  00001	8b ec		 mov	 ebp, esp

; 87   : 	return ((typename tr1::_Remove_reference<_Ty>::_Type&&)_Arg);

  00003	8b 45 08	 mov	 eax, DWORD PTR __Arg$[ebp]

; 88   : 	}

  00006	5d		 pop	 ebp
  00007	c3		 ret	 0
??$move@AAV?$_Tree_iterator@V?$_Tree_val@V?$_Tmap_traits@KPAVCustomSoundData@@U?$less@K@std@@V?$allocator@U?$pair@$$CBKPAVCustomSoundData@@@std@@@3@$0A@@std@@@std@@@std@@@std@@YA$$QAV?$_Tree_iterator@V?$_Tree_val@V?$_Tmap_traits@KPAVCustomSoundData@@U?$less@K@std@@V?$allocator@U?$pair@$$CBKPAVCustomSoundData@@@std@@@3@$0A@@std@@@std@@@0@AAV10@@Z ENDP ; std::move<std::_Tree_iterator<std::_Tree_val<std::_Tmap_traits<unsigned long,CustomSoundData *,std::less<unsigned long>,std::allocator<std::pair<unsigned long const ,CustomSoundData *> >,0> > > &>
_TEXT	ENDS
PUBLIC	??$move@AAUtagNetworkInfo@CustomSoundData@@@std@@YA$$QAUtagNetworkInfo@CustomSoundData@@AAU12@@Z ; std::move<CustomSoundData::tagNetworkInfo &>
; Function compile flags: /Ogsp
;	COMDAT ??$move@AAUtagNetworkInfo@CustomSoundData@@@std@@YA$$QAUtagNetworkInfo@CustomSoundData@@AAU12@@Z
_TEXT	SEGMENT
__Arg$ = 8						; size = 4
??$move@AAUtagNetworkInfo@CustomSoundData@@@std@@YA$$QAUtagNetworkInfo@CustomSoundData@@AAU12@@Z PROC ; std::move<CustomSoundData::tagNetworkInfo &>, COMDAT

; 86   : 	{	// forward _Arg as movable

  00000	55		 push	 ebp
  00001	8b ec		 mov	 ebp, esp

; 87   : 	return ((typename tr1::_Remove_reference<_Ty>::_Type&&)_Arg);

  00003	8b 45 08	 mov	 eax, DWORD PTR __Arg$[ebp]

; 88   : 	}

  00006	5d		 pop	 ebp
  00007	c3		 ret	 0
??$move@AAUtagNetworkInfo@CustomSoundData@@@std@@YA$$QAUtagNetworkInfo@CustomSoundData@@AAU12@@Z ENDP ; std::move<CustomSoundData::tagNetworkInfo &>
_TEXT	ENDS
PUBLIC	??$_Val_type@PAVioHashString@@@std@@YAPAVioHashString@@PAV1@@Z ; std::_Val_type<ioHashString *>
; Function compile flags: /Ogsp
; File c:\program files (x86)\microsoft visual studio 10.0\vc\include\xutility
;	COMDAT ??$_Val_type@PAVioHashString@@@std@@YAPAVioHashString@@PAV1@@Z
_TEXT	SEGMENT
___formal$ = 8						; size = 4
??$_Val_type@PAVioHashString@@@std@@YAPAVioHashString@@PAV1@@Z PROC ; std::_Val_type<ioHashString *>, COMDAT

; 790  : 	return (0);

  00000	33 c0		 xor	 eax, eax

; 791  : 	}

  00002	c3		 ret	 0
??$_Val_type@PAVioHashString@@@std@@YAPAVioHashString@@PAV1@@Z ENDP ; std::_Val_type<ioHashString *>
_TEXT	ENDS
PUBLIC	??$_Val_type@PAUtagNetworkInfo@CustomSoundData@@@std@@YAPAUtagNetworkInfo@CustomSoundData@@PAU12@@Z ; std::_Val_type<CustomSoundData::tagNetworkInfo *>
; Function compile flags: /Ogsp
;	COMDAT ??$_Val_type@PAUtagNetworkInfo@CustomSoundData@@@std@@YAPAUtagNetworkInfo@CustomSoundData@@PAU12@@Z
_TEXT	SEGMENT
___formal$ = 8						; size = 4
??$_Val_type@PAUtagNetworkInfo@CustomSoundData@@@std@@YAPAUtagNetworkInfo@CustomSoundData@@PAU12@@Z PROC ; std::_Val_type<CustomSoundData::tagNetworkInfo *>, COMDAT

; 790  : 	return (0);

  00000	33 c0		 xor	 eax, eax

; 791  : 	}

  00002	c3		 ret	 0
??$_Val_type@PAUtagNetworkInfo@CustomSoundData@@@std@@YAPAUtagNetworkInfo@CustomSoundData@@PAU12@@Z ENDP ; std::_Val_type<CustomSoundData::tagNetworkInfo *>
_TEXT	ENDS
PUBLIC	??$_Val_type@PAPAUtagCustomSoundInfo@ioCustomSoundMgr@@@std@@YAPAPAUtagCustomSoundInfo@ioCustomSoundMgr@@PAPAU12@@Z ; std::_Val_type<ioCustomSoundMgr::tagCustomSoundInfo * *>
; Function compile flags: /Ogsp
;	COMDAT ??$_Val_type@PAPAUtagCustomSoundInfo@ioCustomSoundMgr@@@std@@YAPAPAUtagCustomSoundInfo@ioCustomSoundMgr@@PAPAU12@@Z
_TEXT	SEGMENT
___formal$ = 8						; size = 4
??$_Val_type@PAPAUtagCustomSoundInfo@ioCustomSoundMgr@@@std@@YAPAPAUtagCustomSoundInfo@ioCustomSoundMgr@@PAPAU12@@Z PROC ; std::_Val_type<ioCustomSoundMgr::tagCustomSoundInfo * *>, COMDAT

; 790  : 	return (0);

  00000	33 c0		 xor	 eax, eax

; 791  : 	}

  00002	c3		 ret	 0
??$_Val_type@PAPAUtagCustomSoundInfo@ioCustomSoundMgr@@@std@@YAPAPAUtagCustomSoundInfo@ioCustomSoundMgr@@PAPAU12@@Z ENDP ; std::_Val_type<ioCustomSoundMgr::tagCustomSoundInfo * *>
_TEXT	ENDS
PUBLIC	??$_Uninit_move@PAUtagCustomSoundInfo@ioCustomSoundMgr@@PAU12@PAU12@@std@@YAPAPAUtagCustomSoundInfo@ioCustomSoundMgr@@PAPAU12@00AAV?$allocator@PAUtagCustomSoundInfo@ioCustomSoundMgr@@@0@0U_Scalar_ptr_iterator_tag@0@@Z ; std::_Uninit_move<ioCustomSoundMgr::tagCustomSoundInfo *,ioCustomSoundMgr::tagCustomSoundInfo *,ioCustomSoundMgr::tagCustomSoundInfo *>
; Function compile flags: /Ogsp
; File c:\program files (x86)\microsoft visual studio 10.0\vc\include\memory
;	COMDAT ??$_Uninit_move@PAUtagCustomSoundInfo@ioCustomSoundMgr@@PAU12@PAU12@@std@@YAPAPAUtagCustomSoundInfo@ioCustomSoundMgr@@PAPAU12@00AAV?$allocator@PAUtagCustomSoundInfo@ioCustomSoundMgr@@@0@0U_Scalar_ptr_iterator_tag@0@@Z
_TEXT	SEGMENT
__First$ = 8						; size = 4
__Last$ = 12						; size = 4
__Dest$ = 16						; size = 4
___formal$ = 20						; size = 4
___formal$ = 24						; size = 4
___formal$ = 28						; size = 1
??$_Uninit_move@PAUtagCustomSoundInfo@ioCustomSoundMgr@@PAU12@PAU12@@std@@YAPAPAUtagCustomSoundInfo@ioCustomSoundMgr@@PAPAU12@00AAV?$allocator@PAUtagCustomSoundInfo@ioCustomSoundMgr@@@0@0U_Scalar_ptr_iterator_tag@0@@Z PROC ; std::_Uninit_move<ioCustomSoundMgr::tagCustomSoundInfo *,ioCustomSoundMgr::tagCustomSoundInfo *,ioCustomSoundMgr::tagCustomSoundInfo *>, COMDAT

; 456  : 	{	// move [_First, _Last) to raw _Dest, scalar type

  00000	55		 push	 ebp
  00001	8b ec		 mov	 ebp, esp
  00003	56		 push	 esi

; 457  : 	_DEBUG_RANGE(_First, _Last);
; 458  : 	_DEBUG_POINTER(_Dest);
; 459  : 	size_t _Count = (size_t)(_Last - _First);

  00004	8b 75 0c	 mov	 esi, DWORD PTR __Last$[ebp]
  00007	2b 75 08	 sub	 esi, DWORD PTR __First$[ebp]
  0000a	c1 fe 02	 sar	 esi, 2

; 460  : 	return ((_Ty2 *)_CSTD memmove(&*_Dest, &*_First,
; 461  : 		_Count * sizeof (*_First)) + _Count);	// NB: non-overlapping move

  0000d	c1 e6 02	 shl	 esi, 2
  00010	56		 push	 esi
  00011	ff 75 08	 push	 DWORD PTR __First$[ebp]
  00014	ff 75 10	 push	 DWORD PTR __Dest$[ebp]
  00017	ff 15 00 00 00
	00		 call	 DWORD PTR __imp__memmove
  0001d	83 c4 0c	 add	 esp, 12			; 0000000cH
  00020	03 c6		 add	 eax, esi
  00022	5e		 pop	 esi

; 462  : 	}

  00023	5d		 pop	 ebp
  00024	c3		 ret	 0
??$_Uninit_move@PAUtagCustomSoundInfo@ioCustomSoundMgr@@PAU12@PAU12@@std@@YAPAPAUtagCustomSoundInfo@ioCustomSoundMgr@@PAPAU12@00AAV?$allocator@PAUtagCustomSoundInfo@ioCustomSoundMgr@@@0@0U_Scalar_ptr_iterator_tag@0@@Z ENDP ; std::_Uninit_move<ioCustomSoundMgr::tagCustomSoundInfo *,ioCustomSoundMgr::tagCustomSoundInfo *,ioCustomSoundMgr::tagCustomSoundInfo *>
_TEXT	ENDS
PUBLIC	??$forward@AAV?$_Tree_iterator@V?$_Tree_val@V?$_Tmap_traits@KPAVCustomSoundData@@U?$less@K@std@@V?$allocator@U?$pair@$$CBKPAVCustomSoundData@@@std@@@3@$0A@@std@@@std@@@std@@@std@@YAAAV?$_Tree_iterator@V?$_Tree_val@V?$_Tmap_traits@KPAVCustomSoundData@@U?$less@K@std@@V?$allocator@U?$pair@$$CBKPAVCustomSoundData@@@std@@@3@$0A@@std@@@std@@@0@AAV10@@Z ; std::forward<std::_Tree_iterator<std::_Tree_val<std::_Tmap_traits<unsigned long,CustomSoundData *,std::less<unsigned long>,std::allocator<std::pair<unsigned long const ,CustomSoundData *> >,0> > > &>
; Function compile flags: /Ogsp
; File c:\program files (x86)\microsoft visual studio 10.0\vc\include\utility
;	COMDAT ??$forward@AAV?$_Tree_iterator@V?$_Tree_val@V?$_Tmap_traits@KPAVCustomSoundData@@U?$less@K@std@@V?$allocator@U?$pair@$$CBKPAVCustomSoundData@@@std@@@3@$0A@@std@@@std@@@std@@@std@@YAAAV?$_Tree_iterator@V?$_Tree_val@V?$_Tmap_traits@KPAVCustomSoundData@@U?$less@K@std@@V?$allocator@U?$pair@$$CBKPAVCustomSoundData@@@std@@@3@$0A@@std@@@std@@@0@AAV10@@Z
_TEXT	SEGMENT
__Arg$ = 8						; size = 4
??$forward@AAV?$_Tree_iterator@V?$_Tree_val@V?$_Tmap_traits@KPAVCustomSoundData@@U?$less@K@std@@V?$allocator@U?$pair@$$CBKPAVCustomSoundData@@@std@@@3@$0A@@std@@@std@@@std@@@std@@YAAAV?$_Tree_iterator@V?$_Tree_val@V?$_Tmap_traits@KPAVCustomSoundData@@U?$less@K@std@@V?$allocator@U?$pair@$$CBKPAVCustomSoundData@@@std@@@3@$0A@@std@@@std@@@0@AAV10@@Z PROC ; std::forward<std::_Tree_iterator<std::_Tree_val<std::_Tmap_traits<unsigned long,CustomSoundData *,std::less<unsigned long>,std::allocator<std::pair<unsigned long const ,CustomSoundData *> >,0> > > &>, COMDAT

; 78   : 	{	// forward _Arg, given explicitly specified type parameter

  00000	55		 push	 ebp
  00001	8b ec		 mov	 ebp, esp

; 79   : 	return ((_Ty&&)_Arg);

  00003	8b 45 08	 mov	 eax, DWORD PTR __Arg$[ebp]

; 80   : 	}

  00006	5d		 pop	 ebp
  00007	c3		 ret	 0
??$forward@AAV?$_Tree_iterator@V?$_Tree_val@V?$_Tmap_traits@KPAVCustomSoundData@@U?$less@K@std@@V?$allocator@U?$pair@$$CBKPAVCustomSoundData@@@std@@@3@$0A@@std@@@std@@@std@@@std@@YAAAV?$_Tree_iterator@V?$_Tree_val@V?$_Tmap_traits@KPAVCustomSoundData@@U?$less@K@std@@V?$allocator@U?$pair@$$CBKPAVCustomSoundData@@@std@@@3@$0A@@std@@@std@@@0@AAV10@@Z ENDP ; std::forward<std::_Tree_iterator<std::_Tree_val<std::_Tmap_traits<unsigned long,CustomSoundData *,std::less<unsigned long>,std::allocator<std::pair<unsigned long const ,CustomSoundData *> >,0> > > &>
_TEXT	ENDS
PUBLIC	??$_Destroy@UtagNetworkInfo@CustomSoundData@@@std@@YAXPAUtagNetworkInfo@CustomSoundData@@@Z ; std::_Destroy<CustomSoundData::tagNetworkInfo>
; Function compile flags: /Ogsp
; File c:\program files (x86)\microsoft visual studio 10.0\vc\include\xmemory
;	COMDAT ??$_Destroy@UtagNetworkInfo@CustomSoundData@@@std@@YAXPAUtagNetworkInfo@CustomSoundData@@@Z
_TEXT	SEGMENT
__Ptr$ = 8						; size = 4
??$_Destroy@UtagNetworkInfo@CustomSoundData@@@std@@YAXPAUtagNetworkInfo@CustomSoundData@@@Z PROC ; std::_Destroy<CustomSoundData::tagNetworkInfo>, COMDAT

; 63   : 	_Ptr->~_Ty();
; 64   : 	}

  00000	c3		 ret	 0
??$_Destroy@UtagNetworkInfo@CustomSoundData@@@std@@YAXPAUtagNetworkInfo@CustomSoundData@@@Z ENDP ; std::_Destroy<CustomSoundData::tagNetworkInfo>
_TEXT	ENDS
PUBLIC	??$forward@UtagNetworkInfo@CustomSoundData@@@std@@YA$$QAUtagNetworkInfo@CustomSoundData@@AAU12@@Z ; std::forward<CustomSoundData::tagNetworkInfo>
; Function compile flags: /Ogsp
; File c:\program files (x86)\microsoft visual studio 10.0\vc\include\utility
;	COMDAT ??$forward@UtagNetworkInfo@CustomSoundData@@@std@@YA$$QAUtagNetworkInfo@CustomSoundData@@AAU12@@Z
_TEXT	SEGMENT
__Arg$ = 8						; size = 4
??$forward@UtagNetworkInfo@CustomSoundData@@@std@@YA$$QAUtagNetworkInfo@CustomSoundData@@AAU12@@Z PROC ; std::forward<CustomSoundData::tagNetworkInfo>, COMDAT

; 78   : 	{	// forward _Arg, given explicitly specified type parameter

  00000	55		 push	 ebp
  00001	8b ec		 mov	 ebp, esp

; 79   : 	return ((_Ty&&)_Arg);

  00003	8b 45 08	 mov	 eax, DWORD PTR __Arg$[ebp]

; 80   : 	}

  00006	5d		 pop	 ebp
  00007	c3		 ret	 0
??$forward@UtagNetworkInfo@CustomSoundData@@@std@@YA$$QAUtagNetworkInfo@CustomSoundData@@AAU12@@Z ENDP ; std::forward<CustomSoundData::tagNetworkInfo>
_TEXT	ENDS
PUBLIC	??$forward@$$CBK@std@@YA$$QBKABK@Z		; std::forward<unsigned long const >
; Function compile flags: /Ogsp
;	COMDAT ??$forward@$$CBK@std@@YA$$QBKABK@Z
_TEXT	SEGMENT
__Arg$ = 8						; size = 4
??$forward@$$CBK@std@@YA$$QBKABK@Z PROC			; std::forward<unsigned long const >, COMDAT

; 78   : 	{	// forward _Arg, given explicitly specified type parameter

  00000	55		 push	 ebp
  00001	8b ec		 mov	 ebp, esp

; 79   : 	return ((_Ty&&)_Arg);

  00003	8b 45 08	 mov	 eax, DWORD PTR __Arg$[ebp]

; 80   : 	}

  00006	5d		 pop	 ebp
  00007	c3		 ret	 0
??$forward@$$CBK@std@@YA$$QBKABK@Z ENDP			; std::forward<unsigned long const >
_TEXT	ENDS
PUBLIC	??$forward@PAVCustomSoundData@@@std@@YA$$QAPAVCustomSoundData@@AAPAV1@@Z ; std::forward<CustomSoundData *>
; Function compile flags: /Ogsp
;	COMDAT ??$forward@PAVCustomSoundData@@@std@@YA$$QAPAVCustomSoundData@@AAPAV1@@Z
_TEXT	SEGMENT
__Arg$ = 8						; size = 4
??$forward@PAVCustomSoundData@@@std@@YA$$QAPAVCustomSoundData@@AAPAV1@@Z PROC ; std::forward<CustomSoundData *>, COMDAT

; 78   : 	{	// forward _Arg, given explicitly specified type parameter

  00000	55		 push	 ebp
  00001	8b ec		 mov	 ebp, esp

; 79   : 	return ((_Ty&&)_Arg);

  00003	8b 45 08	 mov	 eax, DWORD PTR __Arg$[ebp]

; 80   : 	}

  00006	5d		 pop	 ebp
  00007	c3		 ret	 0
??$forward@PAVCustomSoundData@@@std@@YA$$QAPAVCustomSoundData@@AAPAV1@@Z ENDP ; std::forward<CustomSoundData *>
_TEXT	ENDS
PUBLIC	??$move@ABK@std@@YA$$QBKABK@Z			; std::move<unsigned long const &>
; Function compile flags: /Ogsp
;	COMDAT ??$move@ABK@std@@YA$$QBKABK@Z
_TEXT	SEGMENT
__Arg$ = 8						; size = 4
??$move@ABK@std@@YA$$QBKABK@Z PROC			; std::move<unsigned long const &>, COMDAT

; 86   : 	{	// forward _Arg as movable

  00000	55		 push	 ebp
  00001	8b ec		 mov	 ebp, esp

; 87   : 	return ((typename tr1::_Remove_reference<_Ty>::_Type&&)_Arg);

  00003	8b 45 08	 mov	 eax, DWORD PTR __Arg$[ebp]

; 88   : 	}

  00006	5d		 pop	 ebp
  00007	c3		 ret	 0
??$move@ABK@std@@YA$$QBKABK@Z ENDP			; std::move<unsigned long const &>
_TEXT	ENDS
PUBLIC	??$move@AAPAVCustomSoundData@@@std@@YA$$QAPAVCustomSoundData@@AAPAV1@@Z ; std::move<CustomSoundData * &>
; Function compile flags: /Ogsp
;	COMDAT ??$move@AAPAVCustomSoundData@@@std@@YA$$QAPAVCustomSoundData@@AAPAV1@@Z
_TEXT	SEGMENT
__Arg$ = 8						; size = 4
??$move@AAPAVCustomSoundData@@@std@@YA$$QAPAVCustomSoundData@@AAPAV1@@Z PROC ; std::move<CustomSoundData * &>, COMDAT

; 86   : 	{	// forward _Arg as movable

  00000	55		 push	 ebp
  00001	8b ec		 mov	 ebp, esp

; 87   : 	return ((typename tr1::_Remove_reference<_Ty>::_Type&&)_Arg);

  00003	8b 45 08	 mov	 eax, DWORD PTR __Arg$[ebp]

; 88   : 	}

  00006	5d		 pop	 ebp
  00007	c3		 ret	 0
??$move@AAPAVCustomSoundData@@@std@@YA$$QAPAVCustomSoundData@@AAPAV1@@Z ENDP ; std::move<CustomSoundData * &>
; Function compile flags: /Ogsp
; File c:\program files (x86)\microsoft sdks\windows\v7.0a\include\strsafe.h
_TEXT	ENDS
;	COMDAT ?StringValidateDestA@@YGJPBDII@Z
_TEXT	SEGMENT
_cchMax$ = 8						; size = 4
?StringValidateDestA@@YGJPBDII@Z PROC			; StringValidateDestA, COMDAT
; _cchDest$ = ecx

; 8721 : {

  00000	55		 push	 ebp
  00001	8b ec		 mov	 ebp, esp

; 8722 :     HRESULT hr = S_OK;

  00003	33 c0		 xor	 eax, eax

; 8723 : 
; 8724 :     if ((cchDest == 0) || (cchDest > cchMax))

  00005	85 c9		 test	 ecx, ecx
  00007	74 05		 je	 SHORT $LN1@StringVali
  00009	3b 4d 08	 cmp	 ecx, DWORD PTR _cchMax$[ebp]
  0000c	76 05		 jbe	 SHORT $LN2@StringVali
$LN1@StringVali:

; 8725 :     {
; 8726 :         hr = STRSAFE_E_INVALID_PARAMETER;

  0000e	b8 57 00 07 80	 mov	 eax, -2147024809	; 80070057H
$LN2@StringVali:

; 8727 :     }
; 8728 : 
; 8729 :     return hr;
; 8730 : }

  00013	5d		 pop	 ebp
  00014	c2 04 00	 ret	 4
?StringValidateDestA@@YGJPBDII@Z ENDP			; StringValidateDestA
_TEXT	ENDS
EXTRN	__imp___vsnprintf:PROC
; Function compile flags: /Ogsp
;	COMDAT ?StringVPrintfWorkerA@@YGJPADIPAIPBD0@Z
_TEXT	SEGMENT
_pcchNewDestLength$ = 8					; size = 4
_pszFormat$ = 12					; size = 4
_argList$ = 16						; size = 4
?StringVPrintfWorkerA@@YGJPADIPAIPBD0@Z PROC		; StringVPrintfWorkerA, COMDAT
; _pszDest$ = edi
; _cchDest$ = eax

; 9029 : {

  00000	55		 push	 ebp
  00001	8b ec		 mov	 ebp, esp
  00003	53		 push	 ebx
  00004	56		 push	 esi

; 9030 :     HRESULT hr = S_OK;
; 9031 :     int iRet;
; 9032 :     size_t cchMax;
; 9033 :     size_t cchNewDestLength = 0;
; 9034 : 
; 9035 :     // leave the last space for the null terminator
; 9036 :     cchMax = cchDest - 1;
; 9037 : 
; 9038 : #if (STRSAFE_USE_SECURE_CRT == 1) && !defined(STRSAFE_LIB_IMPL)
; 9039 :     iRet = _vsnprintf_s(pszDest, cchDest, cchMax, pszFormat, argList);
; 9040 : #else
; 9041 :     #pragma warning(push)
; 9042 :     #pragma warning(disable: __WARNING_BANNED_API_USAGE)// "STRSAFE not included"
; 9043 :     iRet = _vsnprintf(pszDest, cchMax, pszFormat, argList);

  00005	ff 75 10	 push	 DWORD PTR _argList$[ebp]
  00008	8d 70 ff	 lea	 esi, DWORD PTR [eax-1]
  0000b	ff 75 0c	 push	 DWORD PTR _pszFormat$[ebp]
  0000e	33 db		 xor	 ebx, ebx
  00010	56		 push	 esi
  00011	57		 push	 edi
  00012	ff 15 00 00 00
	00		 call	 DWORD PTR __imp___vsnprintf
  00018	83 c4 10	 add	 esp, 16			; 00000010H

; 9044 :     #pragma warning(pop)
; 9045 : #endif
; 9046 :     // ASSERT((iRet < 0) || (((size_t)iRet) <= cchMax));
; 9047 : 
; 9048 :     if ((iRet < 0) || (((size_t)iRet) > cchMax))

  0001b	85 c0		 test	 eax, eax
  0001d	78 0b		 js	 SHORT $LN5@StringVPri
  0001f	3b c6		 cmp	 eax, esi
  00021	77 07		 ja	 SHORT $LN5@StringVPri

; 9058 :     }
; 9059 :     else if (((size_t)iRet) == cchMax)

  00023	75 0f		 jne	 SHORT $LN2@StringVPri

; 9060 :     {
; 9061 :         // need to null terminate the string
; 9062 :         pszDest += cchMax;
; 9063 :         *pszDest = '\0';

  00025	88 1c 3e	 mov	 BYTE PTR [esi+edi], bl

; 9064 : 
; 9065 :         cchNewDestLength = cchMax;
; 9066 :     }
; 9067 :     else

  00028	eb 08		 jmp	 SHORT $LN9@StringVPri
$LN5@StringVPri:

; 9049 :     {
; 9050 :         // need to null terminate the string
; 9051 :         pszDest += cchMax;
; 9052 :         *pszDest = '\0';

  0002a	88 1c 3e	 mov	 BYTE PTR [esi+edi], bl

; 9055 : 
; 9056 :         // we have truncated pszDest
; 9057 :         hr = STRSAFE_E_INSUFFICIENT_BUFFER;

  0002d	bb 7a 00 07 80	 mov	 ebx, -2147024774	; 8007007aH
$LN9@StringVPri:

; 9053 : 
; 9054 :         cchNewDestLength = cchMax;

  00032	8b c6		 mov	 eax, esi
$LN2@StringVPri:

; 9068 :     {
; 9069 :         cchNewDestLength = (size_t)iRet;
; 9070 :     }
; 9071 : 
; 9072 :     if (pcchNewDestLength)

  00034	8b 4d 08	 mov	 ecx, DWORD PTR _pcchNewDestLength$[ebp]
  00037	85 c9		 test	 ecx, ecx
  00039	74 02		 je	 SHORT $LN1@StringVPri

; 9073 :     {
; 9074 :         *pcchNewDestLength = cchNewDestLength;

  0003b	89 01		 mov	 DWORD PTR [ecx], eax
$LN1@StringVPri:
  0003d	5e		 pop	 esi

; 9075 :     }
; 9076 : 
; 9077 :     return hr;

  0003e	8b c3		 mov	 eax, ebx
  00040	5b		 pop	 ebx

; 9078 : }

  00041	5d		 pop	 ebp
  00042	c2 0c 00	 ret	 12			; 0000000cH
?StringVPrintfWorkerA@@YGJPADIPAIPBD0@Z ENDP		; StringVPrintfWorkerA
_TEXT	ENDS
PUBLIC	?_DECSTR@@YAXPADH@Z				; _DECSTR
; Function compile flags: /Ogsp
; File d:\lost saga for developer\youtube\tutorial\source\src\lsclient\stringprotect.h
;	COMDAT ?_DECSTR@@YAXPADH@Z
_TEXT	SEGMENT
_s$ = 8							; size = 4
_l$ = 12						; size = 4
?_DECSTR@@YAXPADH@Z PROC				; _DECSTR, COMDAT

; 40   : __forceinline void _DECSTR(char* s, int l){int i=0,l4=(l-1)/4,*p=(int*)s;s[l-1]=0;for(;i<l4;++i)*(p++)^=0xEAEBECED;for(i=l4*4;i<l-1;++i)s[i]^=0xED-i%4;}

  00000	55		 push	 ebp
  00001	8b ec		 mov	 ebp, esp
  00003	8b 4d 0c	 mov	 ecx, DWORD PTR _l$[ebp]
  00006	56		 push	 esi
  00007	8b 75 08	 mov	 esi, DWORD PTR _s$[ebp]
  0000a	57		 push	 edi
  0000b	8d 79 ff	 lea	 edi, DWORD PTR [ecx-1]
  0000e	8b c7		 mov	 eax, edi
  00010	99		 cdq
  00011	83 e2 03	 and	 edx, 3
  00014	03 c2		 add	 eax, edx
  00016	c1 f8 02	 sar	 eax, 2
  00019	8b d6		 mov	 edx, esi
  0001b	c6 44 0e ff 00	 mov	 BYTE PTR [esi+ecx-1], 0
  00020	85 c0		 test	 eax, eax
  00022	7e 0e		 jle	 SHORT $LN4@DECSTR
  00024	8b c8		 mov	 ecx, eax
$LL6@DECSTR:
  00026	81 32 ed ec eb
	ea		 xor	 DWORD PTR [edx], -353637139 ; eaebecedH
  0002c	83 c2 04	 add	 edx, 4
  0002f	49		 dec	 ecx
  00030	75 f4		 jne	 SHORT $LL6@DECSTR
$LN4@DECSTR:
  00032	c1 e0 02	 shl	 eax, 2
  00035	eb 17		 jmp	 SHORT $LN14@DECSTR
$LL3@DECSTR:
  00037	8b c8		 mov	 ecx, eax
  00039	81 e1 03 00 00
	80		 and	 ecx, -2147483645	; 80000003H
  0003f	79 05		 jns	 SHORT $LN13@DECSTR
  00041	49		 dec	 ecx
  00042	83 c9 fc	 or	 ecx, -4			; fffffffcH
  00045	41		 inc	 ecx
$LN13@DECSTR:
  00046	b2 ed		 mov	 dl, -19			; ffffffedH
  00048	2a d1		 sub	 dl, cl
  0004a	30 14 30	 xor	 BYTE PTR [eax+esi], dl
  0004d	40		 inc	 eax
$LN14@DECSTR:
  0004e	3b c7		 cmp	 eax, edi
  00050	7c e5		 jl	 SHORT $LL3@DECSTR
  00052	5f		 pop	 edi
  00053	5e		 pop	 esi
  00054	5d		 pop	 ebp
  00055	c3		 ret	 0
?_DECSTR@@YAXPADH@Z ENDP				; _DECSTR
_TEXT	ENDS
PUBLIC	??0tagCustomSoundPacket@@QAE@XZ			; tagCustomSoundPacket::tagCustomSoundPacket
; Function compile flags: /Ogsp
; File d:\lost saga for developer\youtube\tutorial\source\src\lsclient\iocustomsounddefine.h
;	COMDAT ??0tagCustomSoundPacket@@QAE@XZ
_TEXT	SEGMENT
??0tagCustomSoundPacket@@QAE@XZ PROC			; tagCustomSoundPacket::tagCustomSoundPacket, COMDAT
; _this$ = ecx

; 11   : 	tagCustomSoundPacket()

  00000	56		 push	 esi

; 12   : 	{
; 13   : 		ZeroMemory( m_Data, sizeof(m_Data) );

  00001	68 90 01 00 00	 push	 400			; 00000190H
  00006	8b f1		 mov	 esi, ecx
  00008	6a 00		 push	 0
  0000a	56		 push	 esi
  0000b	e8 00 00 00 00	 call	 _memset

; 14   : 		m_dwWrittenSize = 0;

  00010	83 a6 90 01 00
	00 00		 and	 DWORD PTR [esi+400], 0
  00017	83 c4 0c	 add	 esp, 12			; 0000000cH

; 15   : 	}

  0001a	8b c6		 mov	 eax, esi
  0001c	5e		 pop	 esi
  0001d	c3		 ret	 0
??0tagCustomSoundPacket@@QAE@XZ ENDP			; tagCustomSoundPacket::tagCustomSoundPacket
_TEXT	ENDS
PUBLIC	?GetUserIndex@ioMyInfo@@QBEABKXZ		; ioMyInfo::GetUserIndex
; Function compile flags: /Ogsp
; File d:\lost saga for developer\youtube\tutorial\source\src\lsclient\iomyinfo.h
;	COMDAT ?GetUserIndex@ioMyInfo@@QBEABKXZ
_TEXT	SEGMENT
?GetUserIndex@ioMyInfo@@QBEABKXZ PROC			; ioMyInfo::GetUserIndex, COMDAT
; _this$ = ecx

; 515  : 	const DWORD& GetUserIndex() const { return m_user_data.m_user_idx; }

  00000	8d 41 08	 lea	 eax, DWORD PTR [ecx+8]
  00003	c3		 ret	 0
?GetUserIndex@ioMyInfo@@QBEABKXZ ENDP			; ioMyInfo::GetUserIndex
_TEXT	ENDS
PUBLIC	?GetPublicID@ioMyInfo@@QBEABVioHashString@@XZ	; ioMyInfo::GetPublicID
; Function compile flags: /Ogsp
;	COMDAT ?GetPublicID@ioMyInfo@@QBEABVioHashString@@XZ
_TEXT	SEGMENT
?GetPublicID@ioMyInfo@@QBEABVioHashString@@XZ PROC	; ioMyInfo::GetPublicID, COMDAT
; _this$ = ecx

; 517  : 	const ioHashString& GetPublicID() const { return m_user_data.m_public_id; }    

  00000	8d 41 1c	 lea	 eax, DWORD PTR [ecx+28]
  00003	c3		 ret	 0
?GetPublicID@ioMyInfo@@QBEABVioHashString@@XZ ENDP	; ioMyInfo::GetPublicID
_TEXT	ENDS
PUBLIC	??0tagNetworkInfo@CustomSoundData@@QAE@XZ	; CustomSoundData::tagNetworkInfo::tagNetworkInfo
; Function compile flags: /Ogsp
; File d:\lost saga for developer\youtube\tutorial\source\src\lsclient\iocustomsoundmgr.h
;	COMDAT ??0tagNetworkInfo@CustomSoundData@@QAE@XZ
_TEXT	SEGMENT
??0tagNetworkInfo@CustomSoundData@@QAE@XZ PROC		; CustomSoundData::tagNetworkInfo::tagNetworkInfo, COMDAT
; _this$ = ecx

; 14   : 		tagNetworkInfo()

  00000	8b c1		 mov	 eax, ecx

; 15   : 		{
; 16   : 			m_dwUserIndex = 0;

  00002	83 20 00	 and	 DWORD PTR [eax], 0

; 17   : 			m_dwDataPos   = 0;

  00005	83 60 04 00	 and	 DWORD PTR [eax+4], 0

; 18   : 		}

  00009	c3		 ret	 0
??0tagNetworkInfo@CustomSoundData@@QAE@XZ ENDP		; CustomSoundData::tagNetworkInfo::tagNetworkInfo
_TEXT	ENDS
PUBLIC	?SetKeyWord@CustomSoundData@@QAEXPBD@Z		; CustomSoundData::SetKeyWord
; Function compile flags: /Ogsp
;	COMDAT ?SetKeyWord@CustomSoundData@@QAEXPBD@Z
_TEXT	SEGMENT
_szKeyWord$ = 8						; size = 4
?SetKeyWord@CustomSoundData@@QAEXPBD@Z PROC		; CustomSoundData::SetKeyWord, COMDAT
; _this$ = ecx

; 45   : 	void   SetKeyWord( const char *szKeyWord ) { m_szKeyWord = szKeyWord; }

  00000	55		 push	 ebp
  00001	8b ec		 mov	 ebp, esp
  00003	83 c1 10	 add	 ecx, 16			; 00000010H
  00006	5d		 pop	 ebp
  00007	ff 25 00 00 00
	00		 jmp	 DWORD PTR __imp_??4ioHashString@@QAEAAV0@PBD@Z
?SetKeyWord@CustomSoundData@@QAEXPBD@Z ENDP		; CustomSoundData::SetKeyWord
_TEXT	ENDS
PUBLIC	?GetSize@CustomSoundData@@QBE?BKXZ		; CustomSoundData::GetSize
; Function compile flags: /Ogsp
;	COMDAT ?GetSize@CustomSoundData@@QBE?BKXZ
_TEXT	SEGMENT
?GetSize@CustomSoundData@@QBE?BKXZ PROC			; CustomSoundData::GetSize, COMDAT
; _this$ = ecx

; 47   : 	const DWORD  GetSize() const { return m_dwSize; }

  00000	8b 41 08	 mov	 eax, DWORD PTR [ecx+8]
  00003	c3		 ret	 0
?GetSize@CustomSoundData@@QBE?BKXZ ENDP			; CustomSoundData::GetSize
_TEXT	ENDS
PUBLIC	?GetKeyWord@CustomSoundData@@QBEABVioHashString@@XZ ; CustomSoundData::GetKeyWord
; Function compile flags: /Ogsp
;	COMDAT ?GetKeyWord@CustomSoundData@@QBEABVioHashString@@XZ
_TEXT	SEGMENT
?GetKeyWord@CustomSoundData@@QBEABVioHashString@@XZ PROC ; CustomSoundData::GetKeyWord, COMDAT
; _this$ = ecx

; 48   : 	const ioHashString &GetKeyWord() const { return m_szKeyWord; }

  00000	8d 41 10	 lea	 eax, DWORD PTR [ecx+16]
  00003	c3		 ret	 0
?GetKeyWord@CustomSoundData@@QBEABVioHashString@@XZ ENDP ; CustomSoundData::GetKeyWord
_TEXT	ENDS
PUBLIC	?GetUnpacCRC@CustomSoundData@@QBE?BKXZ		; CustomSoundData::GetUnpacCRC
; Function compile flags: /Ogsp
;	COMDAT ?GetUnpacCRC@CustomSoundData@@QBE?BKXZ
_TEXT	SEGMENT
?GetUnpacCRC@CustomSoundData@@QBE?BKXZ PROC		; CustomSoundData::GetUnpacCRC, COMDAT
; _this$ = ecx

; 49   : 	const DWORD GetUnpacCRC() const { return m_dwUnpacFileCRC; }

  00000	8b 41 0c	 mov	 eax, DWORD PTR [ecx+12]
  00003	c3		 ret	 0
?GetUnpacCRC@CustomSoundData@@QBE?BKXZ ENDP		; CustomSoundData::GetUnpacCRC
_TEXT	ENDS
PUBLIC	?GetFilePath@CustomSoundData@@QBEABVioHashString@@XZ ; CustomSoundData::GetFilePath
; Function compile flags: /Ogsp
;	COMDAT ?GetFilePath@CustomSoundData@@QBEABVioHashString@@XZ
_TEXT	SEGMENT
?GetFilePath@CustomSoundData@@QBEABVioHashString@@XZ PROC ; CustomSoundData::GetFilePath, COMDAT
; _this$ = ecx

; 50   : 	const ioHashString &GetFilePath() const { return m_szFilePath; }

  00000	8d 41 20	 lea	 eax, DWORD PTR [ecx+32]
  00003	c3		 ret	 0
?GetFilePath@CustomSoundData@@QBEABVioHashString@@XZ ENDP ; CustomSoundData::GetFilePath
_TEXT	ENDS
PUBLIC	?size@?$vector@VioHashString@@V?$allocator@VioHashString@@@std@@@std@@QBEIXZ ; std::vector<ioHashString,std::allocator<ioHashString> >::size
; Function compile flags: /Ogsp
; File c:\program files (x86)\microsoft visual studio 10.0\vc\include\vector
;	COMDAT ?size@?$vector@VioHashString@@V?$allocator@VioHashString@@@std@@@std@@QBEIXZ
_TEXT	SEGMENT
?size@?$vector@VioHashString@@V?$allocator@VioHashString@@@std@@@std@@QBEIXZ PROC ; std::vector<ioHashString,std::allocator<ioHashString> >::size, COMDAT
; _this$ = ecx

; 879  : 		return (this->_Mylast - this->_Myfirst);

  00000	8b 41 04	 mov	 eax, DWORD PTR [ecx+4]
  00003	2b 01		 sub	 eax, DWORD PTR [ecx]
  00005	c1 f8 04	 sar	 eax, 4

; 880  : 		}

  00008	c3		 ret	 0
?size@?$vector@VioHashString@@V?$allocator@VioHashString@@@std@@@std@@QBEIXZ ENDP ; std::vector<ioHashString,std::allocator<ioHashString> >::size
_TEXT	ENDS
PUBLIC	??1?$_Vector_val@VioHashString@@V?$allocator@VioHashString@@@std@@@std@@QAE@XZ ; std::_Vector_val<ioHashString,std::allocator<ioHashString> >::~_Vector_val<ioHashString,std::allocator<ioHashString> >
; Function compile flags: /Ogsp
;	COMDAT ??1?$_Vector_val@VioHashString@@V?$allocator@VioHashString@@@std@@@std@@QAE@XZ
_TEXT	SEGMENT
??1?$_Vector_val@VioHashString@@V?$allocator@VioHashString@@@std@@@std@@QAE@XZ PROC ; std::_Vector_val<ioHashString,std::allocator<ioHashString> >::~_Vector_val<ioHashString,std::allocator<ioHashString> >, COMDAT
; _this$ = ecx

; 434  : 		}

  00000	c3		 ret	 0
??1?$_Vector_val@VioHashString@@V?$allocator@VioHashString@@@std@@@std@@QAE@XZ ENDP ; std::_Vector_val<ioHashString,std::allocator<ioHashString> >::~_Vector_val<ioHashString,std::allocator<ioHashString> >
_TEXT	ENDS
PUBLIC	??0?$allocator@VioHashString@@@std@@QAE@XZ	; std::allocator<ioHashString>::allocator<ioHashString>
; Function compile flags: /Ogsp
; File c:\program files (x86)\microsoft visual studio 10.0\vc\include\xmemory
;	COMDAT ??0?$allocator@VioHashString@@@std@@QAE@XZ
_TEXT	SEGMENT
??0?$allocator@VioHashString@@@std@@QAE@XZ PROC		; std::allocator<ioHashString>::allocator<ioHashString>, COMDAT
; _this$ = ecx

; 161  : 	_ALLOCATOR() _THROW0()

  00000	8b c1		 mov	 eax, ecx

; 162  : 		{	// construct default allocator (do nothing)
; 163  : 		}

  00002	c3		 ret	 0
??0?$allocator@VioHashString@@@std@@QAE@XZ ENDP		; std::allocator<ioHashString>::allocator<ioHashString>
_TEXT	ENDS
PUBLIC	??0?$allocator@VioHashString@@@std@@QAE@ABV01@@Z ; std::allocator<ioHashString>::allocator<ioHashString>
; Function compile flags: /Ogsp
;	COMDAT ??0?$allocator@VioHashString@@@std@@QAE@ABV01@@Z
_TEXT	SEGMENT
___formal$ = 8						; size = 4
??0?$allocator@VioHashString@@@std@@QAE@ABV01@@Z PROC	; std::allocator<ioHashString>::allocator<ioHashString>, COMDAT
; _this$ = ecx

; 165  : 	_ALLOCATOR(const _ALLOCATOR<_Ty>&) _THROW0()

  00000	8b c1		 mov	 eax, ecx

; 166  : 		{	// construct by copying (do nothing)
; 167  : 		}

  00002	c2 04 00	 ret	 4
??0?$allocator@VioHashString@@@std@@QAE@ABV01@@Z ENDP	; std::allocator<ioHashString>::allocator<ioHashString>
_TEXT	ENDS
PUBLIC	??0?$allocator@U?$pair@$$CBKPAVCustomSoundData@@@std@@@std@@QAE@XZ ; std::allocator<std::pair<unsigned long const ,CustomSoundData *> >::allocator<std::pair<unsigned long const ,CustomSoundData *> >
; Function compile flags: /Ogsp
;	COMDAT ??0?$allocator@U?$pair@$$CBKPAVCustomSoundData@@@std@@@std@@QAE@XZ
_TEXT	SEGMENT
??0?$allocator@U?$pair@$$CBKPAVCustomSoundData@@@std@@@std@@QAE@XZ PROC ; std::allocator<std::pair<unsigned long const ,CustomSoundData *> >::allocator<std::pair<unsigned long const ,CustomSoundData *> >, COMDAT
; _this$ = ecx

; 161  : 	_ALLOCATOR() _THROW0()

  00000	8b c1		 mov	 eax, ecx

; 162  : 		{	// construct default allocator (do nothing)
; 163  : 		}

  00002	c3		 ret	 0
??0?$allocator@U?$pair@$$CBKPAVCustomSoundData@@@std@@@std@@QAE@XZ ENDP ; std::allocator<std::pair<unsigned long const ,CustomSoundData *> >::allocator<std::pair<unsigned long const ,CustomSoundData *> >
_TEXT	ENDS
PUBLIC	?_Xlen@?$vector@VioHashString@@V?$allocator@VioHashString@@@std@@@std@@IBEXXZ ; std::vector<ioHashString,std::allocator<ioHashString> >::_Xlen
; Function compile flags: /Ogsp
; File c:\program files (x86)\microsoft visual studio 10.0\vc\include\vector
;	COMDAT ?_Xlen@?$vector@VioHashString@@V?$allocator@VioHashString@@@std@@@std@@IBEXXZ
_TEXT	SEGMENT
?_Xlen@?$vector@VioHashString@@V?$allocator@VioHashString@@@std@@@std@@IBEXXZ PROC ; std::vector<ioHashString,std::allocator<ioHashString> >::_Xlen, COMDAT
; _this$ = ecx

; 1427 : 		_Xlength_error("vector<T> too long");

  00000	68 00 00 00 00	 push	 OFFSET ??_C@_0BD@OLBABOEK@vector?$DMT?$DO?5too?5long?$AA@
  00005	ff 15 00 00 00
	00		 call	 DWORD PTR __imp_?_Xlength_error@std@@YAXPBD@Z
$LN4@Xlen@3:
$LN3@Xlen@3:
  0000b	cc		 int	 3
?_Xlen@?$vector@VioHashString@@V?$allocator@VioHashString@@@std@@@std@@IBEXXZ ENDP ; std::vector<ioHashString,std::allocator<ioHashString> >::_Xlen
_TEXT	ENDS
PUBLIC	?deallocate@?$allocator@VioHashString@@@std@@QAEXPAVioHashString@@I@Z ; std::allocator<ioHashString>::deallocate
; Function compile flags: /Ogsp
; File c:\program files (x86)\microsoft visual studio 10.0\vc\include\xmemory
;	COMDAT ?deallocate@?$allocator@VioHashString@@@std@@QAEXPAVioHashString@@I@Z
_TEXT	SEGMENT
__Ptr$ = 8						; size = 4
___formal$ = 12						; size = 4
?deallocate@?$allocator@VioHashString@@@std@@QAEXPAVioHashString@@I@Z PROC ; std::allocator<ioHashString>::deallocate, COMDAT
; _this$ = ecx

; 181  : 		{	// deallocate object at _Ptr, ignore size

  00000	55		 push	 ebp
  00001	8b ec		 mov	 ebp, esp

; 182  : 		::operator delete(_Ptr);

  00003	ff 75 08	 push	 DWORD PTR __Ptr$[ebp]
  00006	e8 00 00 00 00	 call	 ??3@YAXPAX@Z		; operator delete
  0000b	59		 pop	 ecx

; 183  : 		}

  0000c	5d		 pop	 ebp
  0000d	c2 08 00	 ret	 8
?deallocate@?$allocator@VioHashString@@@std@@QAEXPAVioHashString@@I@Z ENDP ; std::allocator<ioHashString>::deallocate
_TEXT	ENDS
PUBLIC	??0?$allocator@U?$pair@$$CBKPAVCustomSoundData@@@std@@@std@@QAE@ABV01@@Z ; std::allocator<std::pair<unsigned long const ,CustomSoundData *> >::allocator<std::pair<unsigned long const ,CustomSoundData *> >
; Function compile flags: /Ogsp
;	COMDAT ??0?$allocator@U?$pair@$$CBKPAVCustomSoundData@@@std@@@std@@QAE@ABV01@@Z
_TEXT	SEGMENT
___formal$ = 8						; size = 4
??0?$allocator@U?$pair@$$CBKPAVCustomSoundData@@@std@@@std@@QAE@ABV01@@Z PROC ; std::allocator<std::pair<unsigned long const ,CustomSoundData *> >::allocator<std::pair<unsigned long const ,CustomSoundData *> >, COMDAT
; _this$ = ecx

; 165  : 	_ALLOCATOR(const _ALLOCATOR<_Ty>&) _THROW0()

  00000	8b c1		 mov	 eax, ecx

; 166  : 		{	// construct by copying (do nothing)
; 167  : 		}

  00002	c2 04 00	 ret	 4
??0?$allocator@U?$pair@$$CBKPAVCustomSoundData@@@std@@@std@@QAE@ABV01@@Z ENDP ; std::allocator<std::pair<unsigned long const ,CustomSoundData *> >::allocator<std::pair<unsigned long const ,CustomSoundData *> >
_TEXT	ENDS
PUBLIC	?deallocate@?$allocator@U_Node@?$_Tree_nod@V?$_Tmap_traits@KPAVCustomSoundData@@U?$less@K@std@@V?$allocator@U?$pair@$$CBKPAVCustomSoundData@@@std@@@3@$0A@@std@@@std@@@std@@QAEXPAU_Node@?$_Tree_nod@V?$_Tmap_traits@KPAVCustomSoundData@@U?$less@K@std@@V?$allocator@U?$pair@$$CBKPAVCustomSoundData@@@std@@@3@$0A@@std@@@2@I@Z ; std::allocator<std::_Tree_nod<std::_Tmap_traits<unsigned long,CustomSoundData *,std::less<unsigned long>,std::allocator<std::pair<unsigned long const ,CustomSoundData *> >,0> >::_Node>::deallocate
; Function compile flags: /Ogsp
;	COMDAT ?deallocate@?$allocator@U_Node@?$_Tree_nod@V?$_Tmap_traits@KPAVCustomSoundData@@U?$less@K@std@@V?$allocator@U?$pair@$$CBKPAVCustomSoundData@@@std@@@3@$0A@@std@@@std@@@std@@QAEXPAU_Node@?$_Tree_nod@V?$_Tmap_traits@KPAVCustomSoundData@@U?$less@K@std@@V?$allocator@U?$pair@$$CBKPAVCustomSoundData@@@std@@@3@$0A@@std@@@2@I@Z
_TEXT	SEGMENT
__Ptr$ = 8						; size = 4
___formal$ = 12						; size = 4
?deallocate@?$allocator@U_Node@?$_Tree_nod@V?$_Tmap_traits@KPAVCustomSoundData@@U?$less@K@std@@V?$allocator@U?$pair@$$CBKPAVCustomSoundData@@@std@@@3@$0A@@std@@@std@@@std@@QAEXPAU_Node@?$_Tree_nod@V?$_Tmap_traits@KPAVCustomSoundData@@U?$less@K@std@@V?$allocator@U?$pair@$$CBKPAVCustomSoundData@@@std@@@3@$0A@@std@@@2@I@Z PROC ; std::allocator<std::_Tree_nod<std::_Tmap_traits<unsigned long,CustomSoundData *,std::less<unsigned long>,std::allocator<std::pair<unsigned long const ,CustomSoundData *> >,0> >::_Node>::deallocate, COMDAT
; _this$ = ecx

; 181  : 		{	// deallocate object at _Ptr, ignore size

  00000	55		 push	 ebp
  00001	8b ec		 mov	 ebp, esp

; 182  : 		::operator delete(_Ptr);

  00003	ff 75 08	 push	 DWORD PTR __Ptr$[ebp]
  00006	e8 00 00 00 00	 call	 ??3@YAXPAX@Z		; operator delete
  0000b	59		 pop	 ecx

; 183  : 		}

  0000c	5d		 pop	 ebp
  0000d	c2 08 00	 ret	 8
?deallocate@?$allocator@U_Node@?$_Tree_nod@V?$_Tmap_traits@KPAVCustomSoundData@@U?$less@K@std@@V?$allocator@U?$pair@$$CBKPAVCustomSoundData@@@std@@@3@$0A@@std@@@std@@@std@@QAEXPAU_Node@?$_Tree_nod@V?$_Tmap_traits@KPAVCustomSoundData@@U?$less@K@std@@V?$allocator@U?$pair@$$CBKPAVCustomSoundData@@@std@@@3@$0A@@std@@@2@I@Z ENDP ; std::allocator<std::_Tree_nod<std::_Tmap_traits<unsigned long,CustomSoundData *,std::less<unsigned long>,std::allocator<std::pair<unsigned long const ,CustomSoundData *> >,0> >::_Node>::deallocate
_TEXT	ENDS
PUBLIC	??0?$_Vector_const_iterator@V?$_Vector_val@VioHashString@@V?$allocator@VioHashString@@@std@@@std@@@std@@QAE@PAVioHashString@@PBU_Container_base0@1@@Z ; std::_Vector_const_iterator<std::_Vector_val<ioHashString,std::allocator<ioHashString> > >::_Vector_const_iterator<std::_Vector_val<ioHashString,std::allocator<ioHashString> > >
; Function compile flags: /Ogsp
; File c:\program files (x86)\microsoft visual studio 10.0\vc\include\vector
;	COMDAT ??0?$_Vector_const_iterator@V?$_Vector_val@VioHashString@@V?$allocator@VioHashString@@@std@@@std@@@std@@QAE@PAVioHashString@@PBU_Container_base0@1@@Z
_TEXT	SEGMENT
__Parg$ = 8						; size = 4
__Pvector$ = 12						; size = 4
??0?$_Vector_const_iterator@V?$_Vector_val@VioHashString@@V?$allocator@VioHashString@@@std@@@std@@@std@@QAE@PAVioHashString@@PBU_Container_base0@1@@Z PROC ; std::_Vector_const_iterator<std::_Vector_val<ioHashString,std::allocator<ioHashString> > >::_Vector_const_iterator<std::_Vector_val<ioHashString,std::allocator<ioHashString> > >, COMDAT
; _this$ = ecx

; 45   : 		{	// construct with pointer _Parg

  00000	55		 push	 ebp
  00001	8b ec		 mov	 ebp, esp
  00003	8b c1		 mov	 eax, ecx
  00005	8b 4d 08	 mov	 ecx, DWORD PTR __Parg$[ebp]
  00008	89 08		 mov	 DWORD PTR [eax], ecx

; 46   : 		this->_Adopt(_Pvector);
; 47   : 		}

  0000a	5d		 pop	 ebp
  0000b	c2 08 00	 ret	 8
??0?$_Vector_const_iterator@V?$_Vector_val@VioHashString@@V?$allocator@VioHashString@@@std@@@std@@@std@@QAE@PAVioHashString@@PBU_Container_base0@1@@Z ENDP ; std::_Vector_const_iterator<std::_Vector_val<ioHashString,std::allocator<ioHashString> > >::_Vector_const_iterator<std::_Vector_val<ioHashString,std::allocator<ioHashString> > >
_TEXT	ENDS
PUBLIC	??0?$_Vector_iterator@V?$_Vector_val@VioHashString@@V?$allocator@VioHashString@@@std@@@std@@@std@@QAE@PAVioHashString@@PBU_Container_base0@1@@Z ; std::_Vector_iterator<std::_Vector_val<ioHashString,std::allocator<ioHashString> > >::_Vector_iterator<std::_Vector_val<ioHashString,std::allocator<ioHashString> > >
; Function compile flags: /Ogsp
;	COMDAT ??0?$_Vector_iterator@V?$_Vector_val@VioHashString@@V?$allocator@VioHashString@@@std@@@std@@@std@@QAE@PAVioHashString@@PBU_Container_base0@1@@Z
_TEXT	SEGMENT
__Parg$ = 8						; size = 4
__Pvector$ = 12						; size = 4
??0?$_Vector_iterator@V?$_Vector_val@VioHashString@@V?$allocator@VioHashString@@@std@@@std@@@std@@QAE@PAVioHashString@@PBU_Container_base0@1@@Z PROC ; std::_Vector_iterator<std::_Vector_val<ioHashString,std::allocator<ioHashString> > >::_Vector_iterator<std::_Vector_val<ioHashString,std::allocator<ioHashString> > >, COMDAT
; _this$ = ecx

; 304  : 		{	// construct with pointer _Parg

  00000	55		 push	 ebp
  00001	8b ec		 mov	 ebp, esp
  00003	8b c1		 mov	 eax, ecx
  00005	8b 4d 08	 mov	 ecx, DWORD PTR __Parg$[ebp]
  00008	89 08		 mov	 DWORD PTR [eax], ecx

; 305  : 		}

  0000a	5d		 pop	 ebp
  0000b	c2 08 00	 ret	 8
??0?$_Vector_iterator@V?$_Vector_val@VioHashString@@V?$allocator@VioHashString@@@std@@@std@@@std@@QAE@PAVioHashString@@PBU_Container_base0@1@@Z ENDP ; std::_Vector_iterator<std::_Vector_val<ioHashString,std::allocator<ioHashString> > >::_Vector_iterator<std::_Vector_val<ioHashString,std::allocator<ioHashString> > >
_TEXT	ENDS
PUBLIC	?max_size@?$allocator@VioHashString@@@std@@QBEIXZ ; std::allocator<ioHashString>::max_size
; Function compile flags: /Ogsp
; File c:\program files (x86)\microsoft visual studio 10.0\vc\include\xmemory
;	COMDAT ?max_size@?$allocator@VioHashString@@@std@@QBEIXZ
_TEXT	SEGMENT
?max_size@?$allocator@VioHashString@@@std@@QBEIXZ PROC	; std::allocator<ioHashString>::max_size, COMDAT
; _this$ = ecx

; 218  : 		_SIZT _Count = (_SIZT)(-1) / sizeof (_Ty);
; 219  : 		return (0 < _Count ? _Count : 1);

  00000	b8 ff ff ff 0f	 mov	 eax, 268435455		; 0fffffffH

; 220  : 		}

  00005	c3		 ret	 0
?max_size@?$allocator@VioHashString@@@std@@QBEIXZ ENDP	; std::allocator<ioHashString>::max_size
_TEXT	ENDS
PUBLIC	?_Color@?$_Tree_val@V?$_Tmap_traits@KPAVCustomSoundData@@U?$less@K@std@@V?$allocator@U?$pair@$$CBKPAVCustomSoundData@@@std@@@3@$0A@@std@@@std@@SAAADPAU_Node@?$_Tree_nod@V?$_Tmap_traits@KPAVCustomSoundData@@U?$less@K@std@@V?$allocator@U?$pair@$$CBKPAVCustomSoundData@@@std@@@3@$0A@@std@@@2@@Z ; std::_Tree_val<std::_Tmap_traits<unsigned long,CustomSoundData *,std::less<unsigned long>,std::allocator<std::pair<unsigned long const ,CustomSoundData *> >,0> >::_Color
; Function compile flags: /Ogsp
; File c:\program files (x86)\microsoft visual studio 10.0\vc\include\xtree
;	COMDAT ?_Color@?$_Tree_val@V?$_Tmap_traits@KPAVCustomSoundData@@U?$less@K@std@@V?$allocator@U?$pair@$$CBKPAVCustomSoundData@@@std@@@3@$0A@@std@@@std@@SAAADPAU_Node@?$_Tree_nod@V?$_Tmap_traits@KPAVCustomSoundData@@U?$less@K@std@@V?$allocator@U?$pair@$$CBKPAVCustomSoundData@@@std@@@3@$0A@@std@@@2@@Z
_TEXT	SEGMENT
__Pnode$ = 8						; size = 4
?_Color@?$_Tree_val@V?$_Tmap_traits@KPAVCustomSoundData@@U?$less@K@std@@V?$allocator@U?$pair@$$CBKPAVCustomSoundData@@@std@@@3@$0A@@std@@@std@@SAAADPAU_Node@?$_Tree_nod@V?$_Tmap_traits@KPAVCustomSoundData@@U?$less@K@std@@V?$allocator@U?$pair@$$CBKPAVCustomSoundData@@@std@@@3@$0A@@std@@@2@@Z PROC ; std::_Tree_val<std::_Tmap_traits<unsigned long,CustomSoundData *,std::less<unsigned long>,std::allocator<std::pair<unsigned long const ,CustomSoundData *> >,0> >::_Color, COMDAT

; 606  : 		{	// return reference to color in node

  00000	55		 push	 ebp
  00001	8b ec		 mov	 ebp, esp

; 607  : 		return ((char&)(*_Pnode)._Color);

  00003	8b 45 08	 mov	 eax, DWORD PTR __Pnode$[ebp]
  00006	83 c0 14	 add	 eax, 20			; 00000014H

; 608  : 		}

  00009	5d		 pop	 ebp
  0000a	c3		 ret	 0
?_Color@?$_Tree_val@V?$_Tmap_traits@KPAVCustomSoundData@@U?$less@K@std@@V?$allocator@U?$pair@$$CBKPAVCustomSoundData@@@std@@@3@$0A@@std@@@std@@SAAADPAU_Node@?$_Tree_nod@V?$_Tmap_traits@KPAVCustomSoundData@@U?$less@K@std@@V?$allocator@U?$pair@$$CBKPAVCustomSoundData@@@std@@@3@$0A@@std@@@2@@Z ENDP ; std::_Tree_val<std::_Tmap_traits<unsigned long,CustomSoundData *,std::less<unsigned long>,std::allocator<std::pair<unsigned long const ,CustomSoundData *> >,0> >::_Color
_TEXT	ENDS
PUBLIC	?_Isnil@?$_Tree_val@V?$_Tmap_traits@KPAVCustomSoundData@@U?$less@K@std@@V?$allocator@U?$pair@$$CBKPAVCustomSoundData@@@std@@@3@$0A@@std@@@std@@SAAADPAU_Node@?$_Tree_nod@V?$_Tmap_traits@KPAVCustomSoundData@@U?$less@K@std@@V?$allocator@U?$pair@$$CBKPAVCustomSoundData@@@std@@@3@$0A@@std@@@2@@Z ; std::_Tree_val<std::_Tmap_traits<unsigned long,CustomSoundData *,std::less<unsigned long>,std::allocator<std::pair<unsigned long const ,CustomSoundData *> >,0> >::_Isnil
; Function compile flags: /Ogsp
;	COMDAT ?_Isnil@?$_Tree_val@V?$_Tmap_traits@KPAVCustomSoundData@@U?$less@K@std@@V?$allocator@U?$pair@$$CBKPAVCustomSoundData@@@std@@@3@$0A@@std@@@std@@SAAADPAU_Node@?$_Tree_nod@V?$_Tmap_traits@KPAVCustomSoundData@@U?$less@K@std@@V?$allocator@U?$pair@$$CBKPAVCustomSoundData@@@std@@@3@$0A@@std@@@2@@Z
_TEXT	SEGMENT
__Pnode$ = 8						; size = 4
?_Isnil@?$_Tree_val@V?$_Tmap_traits@KPAVCustomSoundData@@U?$less@K@std@@V?$allocator@U?$pair@$$CBKPAVCustomSoundData@@@std@@@3@$0A@@std@@@std@@SAAADPAU_Node@?$_Tree_nod@V?$_Tmap_traits@KPAVCustomSoundData@@U?$less@K@std@@V?$allocator@U?$pair@$$CBKPAVCustomSoundData@@@std@@@3@$0A@@std@@@2@@Z PROC ; std::_Tree_val<std::_Tmap_traits<unsigned long,CustomSoundData *,std::less<unsigned long>,std::allocator<std::pair<unsigned long const ,CustomSoundData *> >,0> >::_Isnil, COMDAT

; 611  : 		{	// return reference to nil flag in node

  00000	55		 push	 ebp
  00001	8b ec		 mov	 ebp, esp

; 612  : 		return ((char&)(*_Pnode)._Isnil);

  00003	8b 45 08	 mov	 eax, DWORD PTR __Pnode$[ebp]
  00006	83 c0 15	 add	 eax, 21			; 00000015H

; 613  : 		}

  00009	5d		 pop	 ebp
  0000a	c3		 ret	 0
?_Isnil@?$_Tree_val@V?$_Tmap_traits@KPAVCustomSoundData@@U?$less@K@std@@V?$allocator@U?$pair@$$CBKPAVCustomSoundData@@@std@@@3@$0A@@std@@@std@@SAAADPAU_Node@?$_Tree_nod@V?$_Tmap_traits@KPAVCustomSoundData@@U?$less@K@std@@V?$allocator@U?$pair@$$CBKPAVCustomSoundData@@@std@@@3@$0A@@std@@@2@@Z ENDP ; std::_Tree_val<std::_Tmap_traits<unsigned long,CustomSoundData *,std::less<unsigned long>,std::allocator<std::pair<unsigned long const ,CustomSoundData *> >,0> >::_Isnil
_TEXT	ENDS
PUBLIC	?_Left@?$_Tree_val@V?$_Tmap_traits@KPAVCustomSoundData@@U?$less@K@std@@V?$allocator@U?$pair@$$CBKPAVCustomSoundData@@@std@@@3@$0A@@std@@@std@@SAAAPAU_Node@?$_Tree_nod@V?$_Tmap_traits@KPAVCustomSoundData@@U?$less@K@std@@V?$allocator@U?$pair@$$CBKPAVCustomSoundData@@@std@@@3@$0A@@std@@@2@PAU342@@Z ; std::_Tree_val<std::_Tmap_traits<unsigned long,CustomSoundData *,std::less<unsigned long>,std::allocator<std::pair<unsigned long const ,CustomSoundData *> >,0> >::_Left
; Function compile flags: /Ogsp
;	COMDAT ?_Left@?$_Tree_val@V?$_Tmap_traits@KPAVCustomSoundData@@U?$less@K@std@@V?$allocator@U?$pair@$$CBKPAVCustomSoundData@@@std@@@3@$0A@@std@@@std@@SAAAPAU_Node@?$_Tree_nod@V?$_Tmap_traits@KPAVCustomSoundData@@U?$less@K@std@@V?$allocator@U?$pair@$$CBKPAVCustomSoundData@@@std@@@3@$0A@@std@@@2@PAU342@@Z
_TEXT	SEGMENT
__Pnode$ = 8						; size = 4
?_Left@?$_Tree_val@V?$_Tmap_traits@KPAVCustomSoundData@@U?$less@K@std@@V?$allocator@U?$pair@$$CBKPAVCustomSoundData@@@std@@@3@$0A@@std@@@std@@SAAAPAU_Node@?$_Tree_nod@V?$_Tmap_traits@KPAVCustomSoundData@@U?$less@K@std@@V?$allocator@U?$pair@$$CBKPAVCustomSoundData@@@std@@@3@$0A@@std@@@2@PAU342@@Z PROC ; std::_Tree_val<std::_Tmap_traits<unsigned long,CustomSoundData *,std::less<unsigned long>,std::allocator<std::pair<unsigned long const ,CustomSoundData *> >,0> >::_Left, COMDAT

; 621  : 		{	// return reference to left pointer in node

  00000	55		 push	 ebp
  00001	8b ec		 mov	 ebp, esp

; 622  : 		return ((_Nodepref)(*_Pnode)._Left);

  00003	8b 45 08	 mov	 eax, DWORD PTR __Pnode$[ebp]

; 623  : 		}

  00006	5d		 pop	 ebp
  00007	c3		 ret	 0
?_Left@?$_Tree_val@V?$_Tmap_traits@KPAVCustomSoundData@@U?$less@K@std@@V?$allocator@U?$pair@$$CBKPAVCustomSoundData@@@std@@@3@$0A@@std@@@std@@SAAAPAU_Node@?$_Tree_nod@V?$_Tmap_traits@KPAVCustomSoundData@@U?$less@K@std@@V?$allocator@U?$pair@$$CBKPAVCustomSoundData@@@std@@@3@$0A@@std@@@2@PAU342@@Z ENDP ; std::_Tree_val<std::_Tmap_traits<unsigned long,CustomSoundData *,std::less<unsigned long>,std::allocator<std::pair<unsigned long const ,CustomSoundData *> >,0> >::_Left
_TEXT	ENDS
PUBLIC	?_Parent@?$_Tree_val@V?$_Tmap_traits@KPAVCustomSoundData@@U?$less@K@std@@V?$allocator@U?$pair@$$CBKPAVCustomSoundData@@@std@@@3@$0A@@std@@@std@@SAAAPAU_Node@?$_Tree_nod@V?$_Tmap_traits@KPAVCustomSoundData@@U?$less@K@std@@V?$allocator@U?$pair@$$CBKPAVCustomSoundData@@@std@@@3@$0A@@std@@@2@PAU342@@Z ; std::_Tree_val<std::_Tmap_traits<unsigned long,CustomSoundData *,std::less<unsigned long>,std::allocator<std::pair<unsigned long const ,CustomSoundData *> >,0> >::_Parent
; Function compile flags: /Ogsp
;	COMDAT ?_Parent@?$_Tree_val@V?$_Tmap_traits@KPAVCustomSoundData@@U?$less@K@std@@V?$allocator@U?$pair@$$CBKPAVCustomSoundData@@@std@@@3@$0A@@std@@@std@@SAAAPAU_Node@?$_Tree_nod@V?$_Tmap_traits@KPAVCustomSoundData@@U?$less@K@std@@V?$allocator@U?$pair@$$CBKPAVCustomSoundData@@@std@@@3@$0A@@std@@@2@PAU342@@Z
_TEXT	SEGMENT
__Pnode$ = 8						; size = 4
?_Parent@?$_Tree_val@V?$_Tmap_traits@KPAVCustomSoundData@@U?$less@K@std@@V?$allocator@U?$pair@$$CBKPAVCustomSoundData@@@std@@@3@$0A@@std@@@std@@SAAAPAU_Node@?$_Tree_nod@V?$_Tmap_traits@KPAVCustomSoundData@@U?$less@K@std@@V?$allocator@U?$pair@$$CBKPAVCustomSoundData@@@std@@@3@$0A@@std@@@2@PAU342@@Z PROC ; std::_Tree_val<std::_Tmap_traits<unsigned long,CustomSoundData *,std::less<unsigned long>,std::allocator<std::pair<unsigned long const ,CustomSoundData *> >,0> >::_Parent, COMDAT

; 626  : 		{	// return reference to parent pointer in node

  00000	55		 push	 ebp
  00001	8b ec		 mov	 ebp, esp

; 627  : 		return ((_Nodepref)(*_Pnode)._Parent);

  00003	8b 45 08	 mov	 eax, DWORD PTR __Pnode$[ebp]
  00006	83 c0 04	 add	 eax, 4

; 628  : 		}

  00009	5d		 pop	 ebp
  0000a	c3		 ret	 0
?_Parent@?$_Tree_val@V?$_Tmap_traits@KPAVCustomSoundData@@U?$less@K@std@@V?$allocator@U?$pair@$$CBKPAVCustomSoundData@@@std@@@3@$0A@@std@@@std@@SAAAPAU_Node@?$_Tree_nod@V?$_Tmap_traits@KPAVCustomSoundData@@U?$less@K@std@@V?$allocator@U?$pair@$$CBKPAVCustomSoundData@@@std@@@3@$0A@@std@@@2@PAU342@@Z ENDP ; std::_Tree_val<std::_Tmap_traits<unsigned long,CustomSoundData *,std::less<unsigned long>,std::allocator<std::pair<unsigned long const ,CustomSoundData *> >,0> >::_Parent
_TEXT	ENDS
PUBLIC	?_Right@?$_Tree_val@V?$_Tmap_traits@KPAVCustomSoundData@@U?$less@K@std@@V?$allocator@U?$pair@$$CBKPAVCustomSoundData@@@std@@@3@$0A@@std@@@std@@SAAAPAU_Node@?$_Tree_nod@V?$_Tmap_traits@KPAVCustomSoundData@@U?$less@K@std@@V?$allocator@U?$pair@$$CBKPAVCustomSoundData@@@std@@@3@$0A@@std@@@2@PAU342@@Z ; std::_Tree_val<std::_Tmap_traits<unsigned long,CustomSoundData *,std::less<unsigned long>,std::allocator<std::pair<unsigned long const ,CustomSoundData *> >,0> >::_Right
; Function compile flags: /Ogsp
;	COMDAT ?_Right@?$_Tree_val@V?$_Tmap_traits@KPAVCustomSoundData@@U?$less@K@std@@V?$allocator@U?$pair@$$CBKPAVCustomSoundData@@@std@@@3@$0A@@std@@@std@@SAAAPAU_Node@?$_Tree_nod@V?$_Tmap_traits@KPAVCustomSoundData@@U?$less@K@std@@V?$allocator@U?$pair@$$CBKPAVCustomSoundData@@@std@@@3@$0A@@std@@@2@PAU342@@Z
_TEXT	SEGMENT
__Pnode$ = 8						; size = 4
?_Right@?$_Tree_val@V?$_Tmap_traits@KPAVCustomSoundData@@U?$less@K@std@@V?$allocator@U?$pair@$$CBKPAVCustomSoundData@@@std@@@3@$0A@@std@@@std@@SAAAPAU_Node@?$_Tree_nod@V?$_Tmap_traits@KPAVCustomSoundData@@U?$less@K@std@@V?$allocator@U?$pair@$$CBKPAVCustomSoundData@@@std@@@3@$0A@@std@@@2@PAU342@@Z PROC ; std::_Tree_val<std::_Tmap_traits<unsigned long,CustomSoundData *,std::less<unsigned long>,std::allocator<std::pair<unsigned long const ,CustomSoundData *> >,0> >::_Right, COMDAT

; 631  : 		{	// return reference to right pointer in node

  00000	55		 push	 ebp
  00001	8b ec		 mov	 ebp, esp

; 632  : 		return ((_Nodepref)(*_Pnode)._Right);

  00003	8b 45 08	 mov	 eax, DWORD PTR __Pnode$[ebp]
  00006	83 c0 08	 add	 eax, 8

; 633  : 		}

  00009	5d		 pop	 ebp
  0000a	c3		 ret	 0
?_Right@?$_Tree_val@V?$_Tmap_traits@KPAVCustomSoundData@@U?$less@K@std@@V?$allocator@U?$pair@$$CBKPAVCustomSoundData@@@std@@@3@$0A@@std@@@std@@SAAAPAU_Node@?$_Tree_nod@V?$_Tmap_traits@KPAVCustomSoundData@@U?$less@K@std@@V?$allocator@U?$pair@$$CBKPAVCustomSoundData@@@std@@@3@$0A@@std@@@2@PAU342@@Z ENDP ; std::_Tree_val<std::_Tmap_traits<unsigned long,CustomSoundData *,std::less<unsigned long>,std::allocator<std::pair<unsigned long const ,CustomSoundData *> >,0> >::_Right
_TEXT	ENDS
PUBLIC	??8?$_Tree_const_iterator@V?$_Tree_val@V?$_Tmap_traits@KPAVCustomSoundData@@U?$less@K@std@@V?$allocator@U?$pair@$$CBKPAVCustomSoundData@@@std@@@3@$0A@@std@@@std@@@std@@QBE_NABV01@@Z ; std::_Tree_const_iterator<std::_Tree_val<std::_Tmap_traits<unsigned long,CustomSoundData *,std::less<unsigned long>,std::allocator<std::pair<unsigned long const ,CustomSoundData *> >,0> > >::operator==
; Function compile flags: /Ogsp
;	COMDAT ??8?$_Tree_const_iterator@V?$_Tree_val@V?$_Tmap_traits@KPAVCustomSoundData@@U?$less@K@std@@V?$allocator@U?$pair@$$CBKPAVCustomSoundData@@@std@@@3@$0A@@std@@@std@@@std@@QBE_NABV01@@Z
_TEXT	SEGMENT
__Right$ = 8						; size = 4
??8?$_Tree_const_iterator@V?$_Tree_val@V?$_Tmap_traits@KPAVCustomSoundData@@U?$less@K@std@@V?$allocator@U?$pair@$$CBKPAVCustomSoundData@@@std@@@3@$0A@@std@@@std@@@std@@QBE_NABV01@@Z PROC ; std::_Tree_const_iterator<std::_Tree_val<std::_Tmap_traits<unsigned long,CustomSoundData *,std::less<unsigned long>,std::allocator<std::pair<unsigned long const ,CustomSoundData *> >,0> > >::operator==, COMDAT
; _this$ = ecx

; 316  : 		{	// test for iterator equality

  00000	55		 push	 ebp
  00001	8b ec		 mov	 ebp, esp

; 317  :  #if _ITERATOR_DEBUG_LEVEL == 2
; 318  : 		if (this->_Getcont() == 0
; 319  : 			|| this->_Getcont() != _Right._Getcont())
; 320  : 			{	// report error
; 321  : 			_DEBUG_ERROR("map/set iterators incompatible");
; 322  : 			_SCL_SECURE_INVALID_ARGUMENT;
; 323  : 			}
; 324  : 
; 325  :  #elif _ITERATOR_DEBUG_LEVEL == 1
; 326  : 		_SCL_SECURE_VALIDATE(this->_Getcont() != 0
; 327  : 			&& this->_Getcont() == _Right._Getcont());
; 328  :  #endif /* _ITERATOR_DEBUG_LEVEL */
; 329  : 
; 330  : 		return (this->_Ptr == _Right._Ptr);

  00003	8b 01		 mov	 eax, DWORD PTR [ecx]
  00005	8b 4d 08	 mov	 ecx, DWORD PTR __Right$[ebp]
  00008	2b 01		 sub	 eax, DWORD PTR [ecx]
  0000a	f7 d8		 neg	 eax
  0000c	1b c0		 sbb	 eax, eax
  0000e	40		 inc	 eax

; 331  : 		}

  0000f	5d		 pop	 ebp
  00010	c2 04 00	 ret	 4
??8?$_Tree_const_iterator@V?$_Tree_val@V?$_Tmap_traits@KPAVCustomSoundData@@U?$less@K@std@@V?$allocator@U?$pair@$$CBKPAVCustomSoundData@@@std@@@3@$0A@@std@@@std@@@std@@QBE_NABV01@@Z ENDP ; std::_Tree_const_iterator<std::_Tree_val<std::_Tmap_traits<unsigned long,CustomSoundData *,std::less<unsigned long>,std::allocator<std::pair<unsigned long const ,CustomSoundData *> >,0> > >::operator==
_TEXT	ENDS
PUBLIC	??9?$_Tree_const_iterator@V?$_Tree_val@V?$_Tmap_traits@KPAVCustomSoundData@@U?$less@K@std@@V?$allocator@U?$pair@$$CBKPAVCustomSoundData@@@std@@@3@$0A@@std@@@std@@@std@@QBE_NABV01@@Z ; std::_Tree_const_iterator<std::_Tree_val<std::_Tmap_traits<unsigned long,CustomSoundData *,std::less<unsigned long>,std::allocator<std::pair<unsigned long const ,CustomSoundData *> >,0> > >::operator!=
; Function compile flags: /Ogsp
;	COMDAT ??9?$_Tree_const_iterator@V?$_Tree_val@V?$_Tmap_traits@KPAVCustomSoundData@@U?$less@K@std@@V?$allocator@U?$pair@$$CBKPAVCustomSoundData@@@std@@@3@$0A@@std@@@std@@@std@@QBE_NABV01@@Z
_TEXT	SEGMENT
__Right$ = 8						; size = 4
??9?$_Tree_const_iterator@V?$_Tree_val@V?$_Tmap_traits@KPAVCustomSoundData@@U?$less@K@std@@V?$allocator@U?$pair@$$CBKPAVCustomSoundData@@@std@@@3@$0A@@std@@@std@@@std@@QBE_NABV01@@Z PROC ; std::_Tree_const_iterator<std::_Tree_val<std::_Tmap_traits<unsigned long,CustomSoundData *,std::less<unsigned long>,std::allocator<std::pair<unsigned long const ,CustomSoundData *> >,0> > >::operator!=, COMDAT
; _this$ = ecx

; 334  : 		{	// test for iterator inequality

  00000	55		 push	 ebp
  00001	8b ec		 mov	 ebp, esp

; 335  : 		return (!(*this == _Right));

  00003	8b 01		 mov	 eax, DWORD PTR [ecx]
  00005	8b 55 08	 mov	 edx, DWORD PTR __Right$[ebp]
  00008	33 c9		 xor	 ecx, ecx
  0000a	3b 02		 cmp	 eax, DWORD PTR [edx]
  0000c	0f 95 c0	 setne	 al

; 336  : 		}

  0000f	5d		 pop	 ebp
  00010	c2 04 00	 ret	 4
??9?$_Tree_const_iterator@V?$_Tree_val@V?$_Tmap_traits@KPAVCustomSoundData@@U?$less@K@std@@V?$allocator@U?$pair@$$CBKPAVCustomSoundData@@@std@@@3@$0A@@std@@@std@@@std@@QBE_NABV01@@Z ENDP ; std::_Tree_const_iterator<std::_Tree_val<std::_Tmap_traits<unsigned long,CustomSoundData *,std::less<unsigned long>,std::allocator<std::pair<unsigned long const ,CustomSoundData *> >,0> > >::operator!=
_TEXT	ENDS
PUBLIC	?_Rmost@?$_Tree@V?$_Tmap_traits@KPAVCustomSoundData@@U?$less@K@std@@V?$allocator@U?$pair@$$CBKPAVCustomSoundData@@@std@@@3@$0A@@std@@@std@@IBEAAPAU_Node@?$_Tree_nod@V?$_Tmap_traits@KPAVCustomSoundData@@U?$less@K@std@@V?$allocator@U?$pair@$$CBKPAVCustomSoundData@@@std@@@3@$0A@@std@@@2@XZ ; std::_Tree<std::_Tmap_traits<unsigned long,CustomSoundData *,std::less<unsigned long>,std::allocator<std::pair<unsigned long const ,CustomSoundData *> >,0> >::_Rmost
; Function compile flags: /Ogsp
;	COMDAT ?_Rmost@?$_Tree@V?$_Tmap_traits@KPAVCustomSoundData@@U?$less@K@std@@V?$allocator@U?$pair@$$CBKPAVCustomSoundData@@@std@@@3@$0A@@std@@@std@@IBEAAPAU_Node@?$_Tree_nod@V?$_Tmap_traits@KPAVCustomSoundData@@U?$less@K@std@@V?$allocator@U?$pair@$$CBKPAVCustomSoundData@@@std@@@3@$0A@@std@@@2@XZ
_TEXT	SEGMENT
?_Rmost@?$_Tree@V?$_Tmap_traits@KPAVCustomSoundData@@U?$less@K@std@@V?$allocator@U?$pair@$$CBKPAVCustomSoundData@@@std@@@3@$0A@@std@@@std@@IBEAAPAU_Node@?$_Tree_nod@V?$_Tmap_traits@KPAVCustomSoundData@@U?$less@K@std@@V?$allocator@U?$pair@$$CBKPAVCustomSoundData@@@std@@@3@$0A@@std@@@2@XZ PROC ; std::_Tree<std::_Tmap_traits<unsigned long,CustomSoundData *,std::less<unsigned long>,std::allocator<std::pair<unsigned long const ,CustomSoundData *> >,0> >::_Rmost, COMDAT
; _this$ = ecx

; 1784 : 		return (this->_Right(this->_Myhead));

  00000	8b 41 04	 mov	 eax, DWORD PTR [ecx+4]
  00003	83 c0 08	 add	 eax, 8

; 1785 : 		}

  00006	c3		 ret	 0
?_Rmost@?$_Tree@V?$_Tmap_traits@KPAVCustomSoundData@@U?$less@K@std@@V?$allocator@U?$pair@$$CBKPAVCustomSoundData@@@std@@@3@$0A@@std@@@std@@IBEAAPAU_Node@?$_Tree_nod@V?$_Tmap_traits@KPAVCustomSoundData@@U?$less@K@std@@V?$allocator@U?$pair@$$CBKPAVCustomSoundData@@@std@@@3@$0A@@std@@@2@XZ ENDP ; std::_Tree<std::_Tmap_traits<unsigned long,CustomSoundData *,std::less<unsigned long>,std::allocator<std::pair<unsigned long const ,CustomSoundData *> >,0> >::_Rmost
_TEXT	ENDS
PUBLIC	?_Root@?$_Tree@V?$_Tmap_traits@KPAVCustomSoundData@@U?$less@K@std@@V?$allocator@U?$pair@$$CBKPAVCustomSoundData@@@std@@@3@$0A@@std@@@std@@IBEAAPAU_Node@?$_Tree_nod@V?$_Tmap_traits@KPAVCustomSoundData@@U?$less@K@std@@V?$allocator@U?$pair@$$CBKPAVCustomSoundData@@@std@@@3@$0A@@std@@@2@XZ ; std::_Tree<std::_Tmap_traits<unsigned long,CustomSoundData *,std::less<unsigned long>,std::allocator<std::pair<unsigned long const ,CustomSoundData *> >,0> >::_Root
; Function compile flags: /Ogsp
;	COMDAT ?_Root@?$_Tree@V?$_Tmap_traits@KPAVCustomSoundData@@U?$less@K@std@@V?$allocator@U?$pair@$$CBKPAVCustomSoundData@@@std@@@3@$0A@@std@@@std@@IBEAAPAU_Node@?$_Tree_nod@V?$_Tmap_traits@KPAVCustomSoundData@@U?$less@K@std@@V?$allocator@U?$pair@$$CBKPAVCustomSoundData@@@std@@@3@$0A@@std@@@2@XZ
_TEXT	SEGMENT
?_Root@?$_Tree@V?$_Tmap_traits@KPAVCustomSoundData@@U?$less@K@std@@V?$allocator@U?$pair@$$CBKPAVCustomSoundData@@@std@@@3@$0A@@std@@@std@@IBEAAPAU_Node@?$_Tree_nod@V?$_Tmap_traits@KPAVCustomSoundData@@U?$less@K@std@@V?$allocator@U?$pair@$$CBKPAVCustomSoundData@@@std@@@3@$0A@@std@@@2@XZ PROC ; std::_Tree<std::_Tmap_traits<unsigned long,CustomSoundData *,std::less<unsigned long>,std::allocator<std::pair<unsigned long const ,CustomSoundData *> >,0> >::_Root, COMDAT
; _this$ = ecx

; 1789 : 		return (this->_Parent(this->_Myhead));

  00000	8b 41 04	 mov	 eax, DWORD PTR [ecx+4]
  00003	83 c0 04	 add	 eax, 4

; 1790 : 		}

  00006	c3		 ret	 0
?_Root@?$_Tree@V?$_Tmap_traits@KPAVCustomSoundData@@U?$less@K@std@@V?$allocator@U?$pair@$$CBKPAVCustomSoundData@@@std@@@3@$0A@@std@@@std@@IBEAAPAU_Node@?$_Tree_nod@V?$_Tmap_traits@KPAVCustomSoundData@@U?$less@K@std@@V?$allocator@U?$pair@$$CBKPAVCustomSoundData@@@std@@@3@$0A@@std@@@2@XZ ENDP ; std::_Tree<std::_Tmap_traits<unsigned long,CustomSoundData *,std::less<unsigned long>,std::allocator<std::pair<unsigned long const ,CustomSoundData *> >,0> >::_Root
_TEXT	ENDS
PUBLIC	?_Rrotate@?$_Tree@V?$_Tmap_traits@KPAVCustomSoundData@@U?$less@K@std@@V?$allocator@U?$pair@$$CBKPAVCustomSoundData@@@std@@@3@$0A@@std@@@std@@IAEXPAU_Node@?$_Tree_nod@V?$_Tmap_traits@KPAVCustomSoundData@@U?$less@K@std@@V?$allocator@U?$pair@$$CBKPAVCustomSoundData@@@std@@@3@$0A@@std@@@2@@Z ; std::_Tree<std::_Tmap_traits<unsigned long,CustomSoundData *,std::less<unsigned long>,std::allocator<std::pair<unsigned long const ,CustomSoundData *> >,0> >::_Rrotate
; Function compile flags: /Ogsp
;	COMDAT ?_Rrotate@?$_Tree@V?$_Tmap_traits@KPAVCustomSoundData@@U?$less@K@std@@V?$allocator@U?$pair@$$CBKPAVCustomSoundData@@@std@@@3@$0A@@std@@@std@@IAEXPAU_Node@?$_Tree_nod@V?$_Tmap_traits@KPAVCustomSoundData@@U?$less@K@std@@V?$allocator@U?$pair@$$CBKPAVCustomSoundData@@@std@@@3@$0A@@std@@@2@@Z
_TEXT	SEGMENT
__Wherenode$ = 8					; size = 4
?_Rrotate@?$_Tree@V?$_Tmap_traits@KPAVCustomSoundData@@U?$less@K@std@@V?$allocator@U?$pair@$$CBKPAVCustomSoundData@@@std@@@3@$0A@@std@@@std@@IAEXPAU_Node@?$_Tree_nod@V?$_Tmap_traits@KPAVCustomSoundData@@U?$less@K@std@@V?$allocator@U?$pair@$$CBKPAVCustomSoundData@@@std@@@3@$0A@@std@@@2@@Z PROC ; std::_Tree<std::_Tmap_traits<unsigned long,CustomSoundData *,std::less<unsigned long>,std::allocator<std::pair<unsigned long const ,CustomSoundData *> >,0> >::_Rrotate, COMDAT
; _this$ = ecx

; 1793 : 		{	// promote left node to root of subtree

  00000	55		 push	 ebp
  00001	8b ec		 mov	 ebp, esp

; 1794 : 		_Nodeptr _Pnode = this->_Left(_Wherenode);

  00003	8b 55 08	 mov	 edx, DWORD PTR __Wherenode$[ebp]
  00006	8b 02		 mov	 eax, DWORD PTR [edx]
  00008	56		 push	 esi

; 1795 : 		this->_Left(_Wherenode) = this->_Right(_Pnode);

  00009	8b 70 08	 mov	 esi, DWORD PTR [eax+8]
  0000c	89 32		 mov	 DWORD PTR [edx], esi

; 1796 : 
; 1797 : 		if (!this->_Isnil(this->_Right(_Pnode)))

  0000e	8b 70 08	 mov	 esi, DWORD PTR [eax+8]
  00011	80 7e 15 00	 cmp	 BYTE PTR [esi+21], 0
  00015	75 03		 jne	 SHORT $LN5@Rrotate

; 1798 : 			this->_Parent(this->_Right(_Pnode)) = _Wherenode;

  00017	89 56 04	 mov	 DWORD PTR [esi+4], edx
$LN5@Rrotate:

; 1799 : 		this->_Parent(_Pnode) = this->_Parent(_Wherenode);

  0001a	8b 72 04	 mov	 esi, DWORD PTR [edx+4]
  0001d	89 70 04	 mov	 DWORD PTR [eax+4], esi

; 1800 : 
; 1801 : 		if (_Wherenode == _Root())

  00020	8b 49 04	 mov	 ecx, DWORD PTR [ecx+4]
  00023	5e		 pop	 esi
  00024	3b 51 04	 cmp	 edx, DWORD PTR [ecx+4]
  00027	75 05		 jne	 SHORT $LN4@Rrotate

; 1802 : 			_Root() = _Pnode;

  00029	89 41 04	 mov	 DWORD PTR [ecx+4], eax

; 1803 : 		else if (_Wherenode == this->_Right(this->_Parent(_Wherenode)))

  0002c	eb 0f		 jmp	 SHORT $LN1@Rrotate
$LN4@Rrotate:
  0002e	8b 4a 04	 mov	 ecx, DWORD PTR [edx+4]
  00031	3b 51 08	 cmp	 edx, DWORD PTR [ecx+8]
  00034	75 05		 jne	 SHORT $LN2@Rrotate

; 1804 : 			this->_Right(this->_Parent(_Wherenode)) = _Pnode;

  00036	89 41 08	 mov	 DWORD PTR [ecx+8], eax

; 1805 : 		else

  00039	eb 02		 jmp	 SHORT $LN1@Rrotate
$LN2@Rrotate:

; 1806 : 			this->_Left(this->_Parent(_Wherenode)) = _Pnode;

  0003b	89 01		 mov	 DWORD PTR [ecx], eax
$LN1@Rrotate:

; 1807 : 
; 1808 : 		this->_Right(_Pnode) = _Wherenode;

  0003d	89 50 08	 mov	 DWORD PTR [eax+8], edx

; 1809 : 		this->_Parent(_Wherenode) = _Pnode;

  00040	89 42 04	 mov	 DWORD PTR [edx+4], eax

; 1810 : 		}

  00043	5d		 pop	 ebp
  00044	c2 04 00	 ret	 4
?_Rrotate@?$_Tree@V?$_Tmap_traits@KPAVCustomSoundData@@U?$less@K@std@@V?$allocator@U?$pair@$$CBKPAVCustomSoundData@@@std@@@3@$0A@@std@@@std@@IAEXPAU_Node@?$_Tree_nod@V?$_Tmap_traits@KPAVCustomSoundData@@U?$less@K@std@@V?$allocator@U?$pair@$$CBKPAVCustomSoundData@@@std@@@3@$0A@@std@@@2@@Z ENDP ; std::_Tree<std::_Tmap_traits<unsigned long,CustomSoundData *,std::less<unsigned long>,std::allocator<std::pair<unsigned long const ,CustomSoundData *> >,0> >::_Rrotate
_TEXT	ENDS
PUBLIC	?_Myval@?$_Tree_val@V?$_Tmap_traits@KPAVCustomSoundData@@U?$less@K@std@@V?$allocator@U?$pair@$$CBKPAVCustomSoundData@@@std@@@3@$0A@@std@@@std@@SAAAU?$pair@$$CBKPAVCustomSoundData@@@2@PAU_Node@?$_Tree_nod@V?$_Tmap_traits@KPAVCustomSoundData@@U?$less@K@std@@V?$allocator@U?$pair@$$CBKPAVCustomSoundData@@@std@@@3@$0A@@std@@@2@@Z ; std::_Tree_val<std::_Tmap_traits<unsigned long,CustomSoundData *,std::less<unsigned long>,std::allocator<std::pair<unsigned long const ,CustomSoundData *> >,0> >::_Myval
; Function compile flags: /Ogsp
;	COMDAT ?_Myval@?$_Tree_val@V?$_Tmap_traits@KPAVCustomSoundData@@U?$less@K@std@@V?$allocator@U?$pair@$$CBKPAVCustomSoundData@@@std@@@3@$0A@@std@@@std@@SAAAU?$pair@$$CBKPAVCustomSoundData@@@2@PAU_Node@?$_Tree_nod@V?$_Tmap_traits@KPAVCustomSoundData@@U?$less@K@std@@V?$allocator@U?$pair@$$CBKPAVCustomSoundData@@@std@@@3@$0A@@std@@@2@@Z
_TEXT	SEGMENT
__Pnode$ = 8						; size = 4
?_Myval@?$_Tree_val@V?$_Tmap_traits@KPAVCustomSoundData@@U?$less@K@std@@V?$allocator@U?$pair@$$CBKPAVCustomSoundData@@@std@@@3@$0A@@std@@@std@@SAAAU?$pair@$$CBKPAVCustomSoundData@@@2@PAU_Node@?$_Tree_nod@V?$_Tmap_traits@KPAVCustomSoundData@@U?$less@K@std@@V?$allocator@U?$pair@$$CBKPAVCustomSoundData@@@std@@@3@$0A@@std@@@2@@Z PROC ; std::_Tree_val<std::_Tmap_traits<unsigned long,CustomSoundData *,std::less<unsigned long>,std::allocator<std::pair<unsigned long const ,CustomSoundData *> >,0> >::_Myval, COMDAT

; 636  : 		{	// return reference to value in node

  00000	55		 push	 ebp
  00001	8b ec		 mov	 ebp, esp

; 637  : 		return ((reference)(*_Pnode)._Myval);

  00003	8b 45 08	 mov	 eax, DWORD PTR __Pnode$[ebp]
  00006	83 c0 0c	 add	 eax, 12			; 0000000cH

; 638  : 		}

  00009	5d		 pop	 ebp
  0000a	c3		 ret	 0
?_Myval@?$_Tree_val@V?$_Tmap_traits@KPAVCustomSoundData@@U?$less@K@std@@V?$allocator@U?$pair@$$CBKPAVCustomSoundData@@@std@@@3@$0A@@std@@@std@@SAAAU?$pair@$$CBKPAVCustomSoundData@@@2@PAU_Node@?$_Tree_nod@V?$_Tmap_traits@KPAVCustomSoundData@@U?$less@K@std@@V?$allocator@U?$pair@$$CBKPAVCustomSoundData@@@std@@@3@$0A@@std@@@2@@Z ENDP ; std::_Tree_val<std::_Tmap_traits<unsigned long,CustomSoundData *,std::less<unsigned long>,std::allocator<std::pair<unsigned long const ,CustomSoundData *> >,0> >::_Myval
_TEXT	ENDS
PUBLIC	?_Max@?$_Tree_val@V?$_Tmap_traits@KPAVCustomSoundData@@U?$less@K@std@@V?$allocator@U?$pair@$$CBKPAVCustomSoundData@@@std@@@3@$0A@@std@@@std@@SAPAU_Node@?$_Tree_nod@V?$_Tmap_traits@KPAVCustomSoundData@@U?$less@K@std@@V?$allocator@U?$pair@$$CBKPAVCustomSoundData@@@std@@@3@$0A@@std@@@2@PAU342@@Z ; std::_Tree_val<std::_Tmap_traits<unsigned long,CustomSoundData *,std::less<unsigned long>,std::allocator<std::pair<unsigned long const ,CustomSoundData *> >,0> >::_Max
; Function compile flags: /Ogsp
;	COMDAT ?_Max@?$_Tree_val@V?$_Tmap_traits@KPAVCustomSoundData@@U?$less@K@std@@V?$allocator@U?$pair@$$CBKPAVCustomSoundData@@@std@@@3@$0A@@std@@@std@@SAPAU_Node@?$_Tree_nod@V?$_Tmap_traits@KPAVCustomSoundData@@U?$less@K@std@@V?$allocator@U?$pair@$$CBKPAVCustomSoundData@@@std@@@3@$0A@@std@@@2@PAU342@@Z
_TEXT	SEGMENT
__Pnode$ = 8						; size = 4
?_Max@?$_Tree_val@V?$_Tmap_traits@KPAVCustomSoundData@@U?$less@K@std@@V?$allocator@U?$pair@$$CBKPAVCustomSoundData@@@std@@@3@$0A@@std@@@std@@SAPAU_Node@?$_Tree_nod@V?$_Tmap_traits@KPAVCustomSoundData@@U?$less@K@std@@V?$allocator@U?$pair@$$CBKPAVCustomSoundData@@@std@@@3@$0A@@std@@@2@PAU342@@Z PROC ; std::_Tree_val<std::_Tmap_traits<unsigned long,CustomSoundData *,std::less<unsigned long>,std::allocator<std::pair<unsigned long const ,CustomSoundData *> >,0> >::_Max, COMDAT

; 641  : 		{	// return rightmost node in subtree at _Pnode

  00000	55		 push	 ebp
  00001	8b ec		 mov	 ebp, esp

; 642  : 		while (!_Isnil(_Right(_Pnode)))

  00003	8b 45 08	 mov	 eax, DWORD PTR __Pnode$[ebp]
  00006	eb 02		 jmp	 SHORT $LN14@Max
$LL2@Max:

; 643  : 			_Pnode = _Right(_Pnode);

  00008	8b c1		 mov	 eax, ecx
$LN14@Max:

; 642  : 		while (!_Isnil(_Right(_Pnode)))

  0000a	8b 48 08	 mov	 ecx, DWORD PTR [eax+8]
  0000d	80 79 15 00	 cmp	 BYTE PTR [ecx+21], 0
  00011	74 f5		 je	 SHORT $LL2@Max

; 644  : 		return (_Pnode);
; 645  : 		}

  00013	5d		 pop	 ebp
  00014	c3		 ret	 0
?_Max@?$_Tree_val@V?$_Tmap_traits@KPAVCustomSoundData@@U?$less@K@std@@V?$allocator@U?$pair@$$CBKPAVCustomSoundData@@@std@@@3@$0A@@std@@@std@@SAPAU_Node@?$_Tree_nod@V?$_Tmap_traits@KPAVCustomSoundData@@U?$less@K@std@@V?$allocator@U?$pair@$$CBKPAVCustomSoundData@@@std@@@3@$0A@@std@@@2@PAU342@@Z ENDP ; std::_Tree_val<std::_Tmap_traits<unsigned long,CustomSoundData *,std::less<unsigned long>,std::allocator<std::pair<unsigned long const ,CustomSoundData *> >,0> >::_Max
_TEXT	ENDS
PUBLIC	?_Min@?$_Tree_val@V?$_Tmap_traits@KPAVCustomSoundData@@U?$less@K@std@@V?$allocator@U?$pair@$$CBKPAVCustomSoundData@@@std@@@3@$0A@@std@@@std@@SAPAU_Node@?$_Tree_nod@V?$_Tmap_traits@KPAVCustomSoundData@@U?$less@K@std@@V?$allocator@U?$pair@$$CBKPAVCustomSoundData@@@std@@@3@$0A@@std@@@2@PAU342@@Z ; std::_Tree_val<std::_Tmap_traits<unsigned long,CustomSoundData *,std::less<unsigned long>,std::allocator<std::pair<unsigned long const ,CustomSoundData *> >,0> >::_Min
; Function compile flags: /Ogsp
;	COMDAT ?_Min@?$_Tree_val@V?$_Tmap_traits@KPAVCustomSoundData@@U?$less@K@std@@V?$allocator@U?$pair@$$CBKPAVCustomSoundData@@@std@@@3@$0A@@std@@@std@@SAPAU_Node@?$_Tree_nod@V?$_Tmap_traits@KPAVCustomSoundData@@U?$less@K@std@@V?$allocator@U?$pair@$$CBKPAVCustomSoundData@@@std@@@3@$0A@@std@@@2@PAU342@@Z
_TEXT	SEGMENT
__Pnode$ = 8						; size = 4
?_Min@?$_Tree_val@V?$_Tmap_traits@KPAVCustomSoundData@@U?$less@K@std@@V?$allocator@U?$pair@$$CBKPAVCustomSoundData@@@std@@@3@$0A@@std@@@std@@SAPAU_Node@?$_Tree_nod@V?$_Tmap_traits@KPAVCustomSoundData@@U?$less@K@std@@V?$allocator@U?$pair@$$CBKPAVCustomSoundData@@@std@@@3@$0A@@std@@@2@PAU342@@Z PROC ; std::_Tree_val<std::_Tmap_traits<unsigned long,CustomSoundData *,std::less<unsigned long>,std::allocator<std::pair<unsigned long const ,CustomSoundData *> >,0> >::_Min, COMDAT

; 648  : 		{	// return leftmost node in subtree at _Pnode

  00000	55		 push	 ebp
  00001	8b ec		 mov	 ebp, esp

; 649  : 		while (!_Isnil(_Left(_Pnode)))

  00003	8b 45 08	 mov	 eax, DWORD PTR __Pnode$[ebp]
  00006	eb 02		 jmp	 SHORT $LN14@Min
$LL2@Min:

; 650  : 			_Pnode = _Left(_Pnode);

  00008	8b c1		 mov	 eax, ecx
$LN14@Min:

; 649  : 		while (!_Isnil(_Left(_Pnode)))

  0000a	8b 08		 mov	 ecx, DWORD PTR [eax]
  0000c	80 79 15 00	 cmp	 BYTE PTR [ecx+21], 0
  00010	74 f6		 je	 SHORT $LL2@Min

; 651  : 		return (_Pnode);
; 652  : 		}

  00012	5d		 pop	 ebp
  00013	c3		 ret	 0
?_Min@?$_Tree_val@V?$_Tmap_traits@KPAVCustomSoundData@@U?$less@K@std@@V?$allocator@U?$pair@$$CBKPAVCustomSoundData@@@std@@@3@$0A@@std@@@std@@SAPAU_Node@?$_Tree_nod@V?$_Tmap_traits@KPAVCustomSoundData@@U?$less@K@std@@V?$allocator@U?$pair@$$CBKPAVCustomSoundData@@@std@@@3@$0A@@std@@@2@PAU342@@Z ENDP ; std::_Tree_val<std::_Tmap_traits<unsigned long,CustomSoundData *,std::less<unsigned long>,std::allocator<std::pair<unsigned long const ,CustomSoundData *> >,0> >::_Min
_TEXT	ENDS
PUBLIC	??0?$_Tmap_traits@KPAVCustomSoundData@@U?$less@K@std@@V?$allocator@U?$pair@$$CBKPAVCustomSoundData@@@std@@@3@$0A@@std@@QAE@U?$less@K@1@@Z ; std::_Tmap_traits<unsigned long,CustomSoundData *,std::less<unsigned long>,std::allocator<std::pair<unsigned long const ,CustomSoundData *> >,0>::_Tmap_traits<unsigned long,CustomSoundData *,std::less<unsigned long>,std::allocator<std::pair<unsigned long const ,CustomSoundData *> >,0>
; Function compile flags: /Ogsp
; File c:\program files (x86)\microsoft visual studio 10.0\vc\include\map
;	COMDAT ??0?$_Tmap_traits@KPAVCustomSoundData@@U?$less@K@std@@V?$allocator@U?$pair@$$CBKPAVCustomSoundData@@@std@@@3@$0A@@std@@QAE@U?$less@K@1@@Z
_TEXT	SEGMENT
__Parg$ = 8						; size = 1
??0?$_Tmap_traits@KPAVCustomSoundData@@U?$less@K@std@@V?$allocator@U?$pair@$$CBKPAVCustomSoundData@@@std@@@3@$0A@@std@@QAE@U?$less@K@1@@Z PROC ; std::_Tmap_traits<unsigned long,CustomSoundData *,std::less<unsigned long>,std::allocator<std::pair<unsigned long const ,CustomSoundData *> >,0>::_Tmap_traits<unsigned long,CustomSoundData *,std::less<unsigned long>,std::allocator<std::pair<unsigned long const ,CustomSoundData *> >,0>, COMDAT
; _this$ = ecx

; 40   : 		{	// construct with specified comparator

  00000	8b c1		 mov	 eax, ecx

; 41   : 		}

  00002	c2 04 00	 ret	 4
??0?$_Tmap_traits@KPAVCustomSoundData@@U?$less@K@std@@V?$allocator@U?$pair@$$CBKPAVCustomSoundData@@@std@@@3@$0A@@std@@QAE@U?$less@K@1@@Z ENDP ; std::_Tmap_traits<unsigned long,CustomSoundData *,std::less<unsigned long>,std::allocator<std::pair<unsigned long const ,CustomSoundData *> >,0>::_Tmap_traits<unsigned long,CustomSoundData *,std::less<unsigned long>,std::allocator<std::pair<unsigned long const ,CustomSoundData *> >,0>
_TEXT	ENDS
PUBLIC	?_Compat@?$_Vector_const_iterator@V?$_Vector_val@VioHashString@@V?$allocator@VioHashString@@@std@@@std@@@std@@QBEXABV12@@Z ; std::_Vector_const_iterator<std::_Vector_val<ioHashString,std::allocator<ioHashString> > >::_Compat
; Function compile flags: /Ogsp
; File c:\program files (x86)\microsoft visual studio 10.0\vc\include\vector
;	COMDAT ?_Compat@?$_Vector_const_iterator@V?$_Vector_val@VioHashString@@V?$allocator@VioHashString@@@std@@@std@@@std@@QBEXABV12@@Z
_TEXT	SEGMENT
___formal$ = 8						; size = 4
?_Compat@?$_Vector_const_iterator@V?$_Vector_val@VioHashString@@V?$allocator@VioHashString@@@std@@@std@@@std@@QBEXABV12@@Z PROC ; std::_Vector_const_iterator<std::_Vector_val<ioHashString,std::allocator<ioHashString> > >::_Compat, COMDAT
; _this$ = ecx

; 253  : 		}

  00000	c2 04 00	 ret	 4
?_Compat@?$_Vector_const_iterator@V?$_Vector_val@VioHashString@@V?$allocator@VioHashString@@@std@@@std@@@std@@QBEXABV12@@Z ENDP ; std::_Vector_const_iterator<std::_Vector_val<ioHashString,std::allocator<ioHashString> > >::_Compat
_TEXT	ENDS
PUBLIC	?_Mynode@?$_Tree_unchecked_const_iterator@V?$_Tree_val@V?$_Tmap_traits@KPAVCustomSoundData@@U?$less@K@std@@V?$allocator@U?$pair@$$CBKPAVCustomSoundData@@@std@@@3@$0A@@std@@@std@@U_Iterator_base0@2@@std@@QBEPAU_Node@?$_Tree_nod@V?$_Tmap_traits@KPAVCustomSoundData@@U?$less@K@std@@V?$allocator@U?$pair@$$CBKPAVCustomSoundData@@@std@@@3@$0A@@std@@@2@XZ ; std::_Tree_unchecked_const_iterator<std::_Tree_val<std::_Tmap_traits<unsigned long,CustomSoundData *,std::less<unsigned long>,std::allocator<std::pair<unsigned long const ,CustomSoundData *> >,0> >,std::_Iterator_base0>::_Mynode
; Function compile flags: /Ogsp
; File c:\program files (x86)\microsoft visual studio 10.0\vc\include\xtree
;	COMDAT ?_Mynode@?$_Tree_unchecked_const_iterator@V?$_Tree_val@V?$_Tmap_traits@KPAVCustomSoundData@@U?$less@K@std@@V?$allocator@U?$pair@$$CBKPAVCustomSoundData@@@std@@@3@$0A@@std@@@std@@U_Iterator_base0@2@@std@@QBEPAU_Node@?$_Tree_nod@V?$_Tmap_traits@KPAVCustomSoundData@@U?$less@K@std@@V?$allocator@U?$pair@$$CBKPAVCustomSoundData@@@std@@@3@$0A@@std@@@2@XZ
_TEXT	SEGMENT
?_Mynode@?$_Tree_unchecked_const_iterator@V?$_Tree_val@V?$_Tmap_traits@KPAVCustomSoundData@@U?$less@K@std@@V?$allocator@U?$pair@$$CBKPAVCustomSoundData@@@std@@@3@$0A@@std@@@std@@U_Iterator_base0@2@@std@@QBEPAU_Node@?$_Tree_nod@V?$_Tmap_traits@KPAVCustomSoundData@@U?$less@K@std@@V?$allocator@U?$pair@$$CBKPAVCustomSoundData@@@std@@@3@$0A@@std@@@2@XZ PROC ; std::_Tree_unchecked_const_iterator<std::_Tree_val<std::_Tmap_traits<unsigned long,CustomSoundData *,std::less<unsigned long>,std::allocator<std::pair<unsigned long const ,CustomSoundData *> >,0> >,std::_Iterator_base0>::_Mynode, COMDAT
; _this$ = ecx

; 122  : 		return (_Ptr);

  00000	8b 01		 mov	 eax, DWORD PTR [ecx]

; 123  : 		}

  00002	c3		 ret	 0
?_Mynode@?$_Tree_unchecked_const_iterator@V?$_Tree_val@V?$_Tmap_traits@KPAVCustomSoundData@@U?$less@K@std@@V?$allocator@U?$pair@$$CBKPAVCustomSoundData@@@std@@@3@$0A@@std@@@std@@U_Iterator_base0@2@@std@@QBEPAU_Node@?$_Tree_nod@V?$_Tmap_traits@KPAVCustomSoundData@@U?$less@K@std@@V?$allocator@U?$pair@$$CBKPAVCustomSoundData@@@std@@@3@$0A@@std@@@2@XZ ENDP ; std::_Tree_unchecked_const_iterator<std::_Tree_val<std::_Tmap_traits<unsigned long,CustomSoundData *,std::less<unsigned long>,std::allocator<std::pair<unsigned long const ,CustomSoundData *> >,0> >,std::_Iterator_base0>::_Mynode
_TEXT	ENDS
PUBLIC	??0?$_Tree_unchecked_const_iterator@V?$_Tree_val@V?$_Tmap_traits@KPAVCustomSoundData@@U?$less@K@std@@V?$allocator@U?$pair@$$CBKPAVCustomSoundData@@@std@@@3@$0A@@std@@@std@@U_Iterator_base0@2@@std@@QAE@PAU_Node@?$_Tree_nod@V?$_Tmap_traits@KPAVCustomSoundData@@U?$less@K@std@@V?$allocator@U?$pair@$$CBKPAVCustomSoundData@@@std@@@3@$0A@@std@@@1@PBV?$_Tree_val@V?$_Tmap_traits@KPAVCustomSoundData@@U?$less@K@std@@V?$allocator@U?$pair@$$CBKPAVCustomSoundData@@@std@@@3@$0A@@std@@@1@@Z ; std::_Tree_unchecked_const_iterator<std::_Tree_val<std::_Tmap_traits<unsigned long,CustomSoundData *,std::less<unsigned long>,std::allocator<std::pair<unsigned long const ,CustomSoundData *> >,0> >,std::_Iterator_base0>::_Tree_unchecked_const_iterator<std::_Tree_val<std::_Tmap_traits<unsigned long,CustomSoundData *,std::less<unsigned long>,std::allocator<std::pair<unsigned long const ,CustomSoundData *> >,0> >,std::_Iterator_base0>
; Function compile flags: /Ogsp
;	COMDAT ??0?$_Tree_unchecked_const_iterator@V?$_Tree_val@V?$_Tmap_traits@KPAVCustomSoundData@@U?$less@K@std@@V?$allocator@U?$pair@$$CBKPAVCustomSoundData@@@std@@@3@$0A@@std@@@std@@U_Iterator_base0@2@@std@@QAE@PAU_Node@?$_Tree_nod@V?$_Tmap_traits@KPAVCustomSoundData@@U?$less@K@std@@V?$allocator@U?$pair@$$CBKPAVCustomSoundData@@@std@@@3@$0A@@std@@@1@PBV?$_Tree_val@V?$_Tmap_traits@KPAVCustomSoundData@@U?$less@K@std@@V?$allocator@U?$pair@$$CBKPAVCustomSoundData@@@std@@@3@$0A@@std@@@1@@Z
_TEXT	SEGMENT
__Pnode$ = 8						; size = 4
__Plist$ = 12						; size = 4
??0?$_Tree_unchecked_const_iterator@V?$_Tree_val@V?$_Tmap_traits@KPAVCustomSoundData@@U?$less@K@std@@V?$allocator@U?$pair@$$CBKPAVCustomSoundData@@@std@@@3@$0A@@std@@@std@@U_Iterator_base0@2@@std@@QAE@PAU_Node@?$_Tree_nod@V?$_Tmap_traits@KPAVCustomSoundData@@U?$less@K@std@@V?$allocator@U?$pair@$$CBKPAVCustomSoundData@@@std@@@3@$0A@@std@@@1@PBV?$_Tree_val@V?$_Tmap_traits@KPAVCustomSoundData@@U?$less@K@std@@V?$allocator@U?$pair@$$CBKPAVCustomSoundData@@@std@@@3@$0A@@std@@@1@@Z PROC ; std::_Tree_unchecked_const_iterator<std::_Tree_val<std::_Tmap_traits<unsigned long,CustomSoundData *,std::less<unsigned long>,std::allocator<std::pair<unsigned long const ,CustomSoundData *> >,0> >,std::_Iterator_base0>::_Tree_unchecked_const_iterator<std::_Tree_val<std::_Tmap_traits<unsigned long,CustomSoundData *,std::less<unsigned long>,std::allocator<std::pair<unsigned long const ,CustomSoundData *> >,0> >,std::_Iterator_base0>, COMDAT
; _this$ = ecx

; 43   : 		{	// construct with node pointer _Pnode

  00000	55		 push	 ebp
  00001	8b ec		 mov	 ebp, esp
  00003	8b c1		 mov	 eax, ecx
  00005	8b 4d 08	 mov	 ecx, DWORD PTR __Pnode$[ebp]
  00008	89 08		 mov	 DWORD PTR [eax], ecx

; 44   : 		this->_Adopt(_Plist);
; 45   : 		}

  0000a	5d		 pop	 ebp
  0000b	c2 08 00	 ret	 8
??0?$_Tree_unchecked_const_iterator@V?$_Tree_val@V?$_Tmap_traits@KPAVCustomSoundData@@U?$less@K@std@@V?$allocator@U?$pair@$$CBKPAVCustomSoundData@@@std@@@3@$0A@@std@@@std@@U_Iterator_base0@2@@std@@QAE@PAU_Node@?$_Tree_nod@V?$_Tmap_traits@KPAVCustomSoundData@@U?$less@K@std@@V?$allocator@U?$pair@$$CBKPAVCustomSoundData@@@std@@@3@$0A@@std@@@1@PBV?$_Tree_val@V?$_Tmap_traits@KPAVCustomSoundData@@U?$less@K@std@@V?$allocator@U?$pair@$$CBKPAVCustomSoundData@@@std@@@3@$0A@@std@@@1@@Z ENDP ; std::_Tree_unchecked_const_iterator<std::_Tree_val<std::_Tmap_traits<unsigned long,CustomSoundData *,std::less<unsigned long>,std::allocator<std::pair<unsigned long const ,CustomSoundData *> >,0> >,std::_Iterator_base0>::_Tree_unchecked_const_iterator<std::_Tree_val<std::_Tmap_traits<unsigned long,CustomSoundData *,std::less<unsigned long>,std::allocator<std::pair<unsigned long const ,CustomSoundData *> >,0> >,std::_Iterator_base0>
_TEXT	ENDS
PUBLIC	??E?$_Tree_unchecked_const_iterator@V?$_Tree_val@V?$_Tmap_traits@KPAVCustomSoundData@@U?$less@K@std@@V?$allocator@U?$pair@$$CBKPAVCustomSoundData@@@std@@@3@$0A@@std@@@std@@U_Iterator_base0@2@@std@@QAEAAV01@XZ ; std::_Tree_unchecked_const_iterator<std::_Tree_val<std::_Tmap_traits<unsigned long,CustomSoundData *,std::less<unsigned long>,std::allocator<std::pair<unsigned long const ,CustomSoundData *> >,0> >,std::_Iterator_base0>::operator++
; Function compile flags: /Ogsp
;	COMDAT ??E?$_Tree_unchecked_const_iterator@V?$_Tree_val@V?$_Tmap_traits@KPAVCustomSoundData@@U?$less@K@std@@V?$allocator@U?$pair@$$CBKPAVCustomSoundData@@@std@@@3@$0A@@std@@@std@@U_Iterator_base0@2@@std@@QAEAAV01@XZ
_TEXT	SEGMENT
??E?$_Tree_unchecked_const_iterator@V?$_Tree_val@V?$_Tmap_traits@KPAVCustomSoundData@@U?$less@K@std@@V?$allocator@U?$pair@$$CBKPAVCustomSoundData@@@std@@@3@$0A@@std@@@std@@U_Iterator_base0@2@@std@@QAEAAV01@XZ PROC ; std::_Tree_unchecked_const_iterator<std::_Tree_val<std::_Tmap_traits<unsigned long,CustomSoundData *,std::less<unsigned long>,std::allocator<std::pair<unsigned long const ,CustomSoundData *> >,0> >,std::_Iterator_base0>::operator++, COMDAT
; _this$ = ecx

; 58   : 		{	// preincrement

  00000	8b c1		 mov	 eax, ecx

; 59   : 		if (_Mytree::_Isnil(_Ptr))

  00002	8b 08		 mov	 ecx, DWORD PTR [eax]
  00004	53		 push	 ebx
  00005	32 db		 xor	 bl, bl
  00007	38 59 15	 cmp	 BYTE PTR [ecx+21], bl
  0000a	75 2d		 jne	 SHORT $LN3@operator

; 60   : 			;	// end() shouldn't be incremented, don't move
; 61   : 		else if (!_Mytree::_Isnil(_Mytree::_Right(_Ptr)))

  0000c	8b 51 08	 mov	 edx, DWORD PTR [ecx+8]
  0000f	38 5a 15	 cmp	 BYTE PTR [edx+21], bl
  00012	75 0d		 jne	 SHORT $LN34@operator

; 62   : 			_Ptr = _Mytree::_Min(
; 63   : 				_Mytree::_Right(_Ptr));	// ==> smallest of right subtree

$LL18@operator:
  00014	8b ca		 mov	 ecx, edx
  00016	8b 11		 mov	 edx, DWORD PTR [ecx]
  00018	38 5a 15	 cmp	 BYTE PTR [edx+21], bl
  0001b	74 f7		 je	 SHORT $LL18@operator
  0001d	89 08		 mov	 DWORD PTR [eax], ecx
  0001f	5b		 pop	 ebx

; 71   : 			}
; 72   : 		return (*this);
; 73   : 		}

  00020	c3		 ret	 0
$LN34@operator:

; 64   : 		else
; 65   : 			{	// climb looking for right subtree
; 66   : 			_Nodeptr _Pnode;
; 67   : 			while (!_Mytree::_Isnil(_Pnode = _Mytree::_Parent(_Ptr))
; 68   : 				&& _Ptr == _Mytree::_Right(_Pnode))

  00021	8b 51 04	 mov	 edx, DWORD PTR [ecx+4]
  00024	eb 0c		 jmp	 SHORT $LN38@operator
$LL2@operator:
  00026	8b 08		 mov	 ecx, DWORD PTR [eax]
  00028	3b 4a 08	 cmp	 ecx, DWORD PTR [edx+8]
  0002b	75 0a		 jne	 SHORT $LN1@operator

; 69   : 				_Ptr = _Pnode;	// ==> parent while right subtree

  0002d	89 10		 mov	 DWORD PTR [eax], edx
  0002f	8b 52 04	 mov	 edx, DWORD PTR [edx+4]
$LN38@operator:

; 64   : 		else
; 65   : 			{	// climb looking for right subtree
; 66   : 			_Nodeptr _Pnode;
; 67   : 			while (!_Mytree::_Isnil(_Pnode = _Mytree::_Parent(_Ptr))
; 68   : 				&& _Ptr == _Mytree::_Right(_Pnode))

  00032	38 5a 15	 cmp	 BYTE PTR [edx+21], bl
  00035	74 ef		 je	 SHORT $LL2@operator
$LN1@operator:

; 70   : 			_Ptr = _Pnode;	// ==> parent (head if end())

  00037	89 10		 mov	 DWORD PTR [eax], edx
$LN3@operator:
  00039	5b		 pop	 ebx

; 71   : 			}
; 72   : 		return (*this);
; 73   : 		}

  0003a	c3		 ret	 0
??E?$_Tree_unchecked_const_iterator@V?$_Tree_val@V?$_Tmap_traits@KPAVCustomSoundData@@U?$less@K@std@@V?$allocator@U?$pair@$$CBKPAVCustomSoundData@@@std@@@3@$0A@@std@@@std@@U_Iterator_base0@2@@std@@QAEAAV01@XZ ENDP ; std::_Tree_unchecked_const_iterator<std::_Tree_val<std::_Tmap_traits<unsigned long,CustomSoundData *,std::less<unsigned long>,std::allocator<std::pair<unsigned long const ,CustomSoundData *> >,0> >,std::_Iterator_base0>::operator++
_TEXT	ENDS
PUBLIC	??$_Allocate@VioHashString@@@std@@YAPAVioHashString@@IPAV1@@Z ; std::_Allocate<ioHashString>
; Function compile flags: /Ogsp
; File c:\program files (x86)\microsoft visual studio 10.0\vc\include\xmemory
;	COMDAT ??$_Allocate@VioHashString@@@std@@YAPAVioHashString@@IPAV1@@Z
_TEXT	SEGMENT
$T511531 = -12						; size = 12
$T511535 = 8						; size = 4
__Count$ = 8						; size = 4
___formal$ = 12						; size = 4
??$_Allocate@VioHashString@@@std@@YAPAVioHashString@@IPAV1@@Z PROC ; std::_Allocate<ioHashString>, COMDAT

; 30   : 	{	// allocate storage for _Count elements of type _Ty

  00000	55		 push	 ebp
  00001	8b ec		 mov	 ebp, esp

; 31   : 	void *_Ptr = 0;
; 32   : 
; 33   : 	if (_Count <= 0)

  00003	8b 4d 08	 mov	 ecx, DWORD PTR __Count$[ebp]
  00006	83 ec 0c	 sub	 esp, 12			; 0000000cH
  00009	33 c0		 xor	 eax, eax
  0000b	85 c9		 test	 ecx, ecx

; 34   : 		_Count = 0;
; 35   : 	else if (((_SIZT)(-1) / sizeof (_Ty) < _Count)

  0000d	74 3c		 je	 SHORT $LN5@Allocate@3

; 36   : 		|| (_Ptr = ::operator new(_Count * sizeof (_Ty))) == 0)

  0000f	81 f9 ff ff ff
	0f		 cmp	 ecx, 268435455		; 0fffffffH
  00015	77 0e		 ja	 SHORT $LN1@Allocate@3
  00017	c1 e1 04	 shl	 ecx, 4
  0001a	51		 push	 ecx
  0001b	e8 00 00 00 00	 call	 ??2@YAPAXI@Z		; operator new
  00020	59		 pop	 ecx
  00021	85 c0		 test	 eax, eax

; 38   : 
; 39   : 	return ((_Ty _FARQ *)_Ptr);

  00023	75 26		 jne	 SHORT $LN5@Allocate@3
$LN1@Allocate@3:

; 37   : 		_THROW_NCEE(bad_alloc, 0);

  00025	83 65 08 00	 and	 DWORD PTR $T511535[ebp], 0
  00029	8d 45 08	 lea	 eax, DWORD PTR $T511535[ebp]
  0002c	50		 push	 eax
  0002d	8d 4d f4	 lea	 ecx, DWORD PTR $T511531[ebp]
  00030	ff 15 00 00 00
	00		 call	 DWORD PTR __imp_??0exception@std@@QAE@ABQBD@Z
  00036	68 00 00 00 00	 push	 OFFSET __TI2?AVbad_alloc@std@@
  0003b	8d 45 f4	 lea	 eax, DWORD PTR $T511531[ebp]
  0003e	50		 push	 eax
  0003f	c7 45 f4 00 00
	00 00		 mov	 DWORD PTR $T511531[ebp], OFFSET ??_7bad_alloc@std@@6B@
  00046	e8 00 00 00 00	 call	 __CxxThrowException@8
$LN10@Allocate@3:
$LN5@Allocate@3:

; 40   : 	}

  0004b	c9		 leave
  0004c	c3		 ret	 0
$LN9@Allocate@3:
??$_Allocate@VioHashString@@@std@@YAPAVioHashString@@IPAV1@@Z ENDP ; std::_Allocate<ioHashString>
_TEXT	ENDS
PUBLIC	??$addressof@U?$pair@$$CBKPAVCustomSoundData@@@std@@@std@@YAPAU?$pair@$$CBKPAVCustomSoundData@@@0@AAU10@@Z ; std::addressof<std::pair<unsigned long const ,CustomSoundData *> >
; Function compile flags: /Ogsp
;	COMDAT ??$addressof@U?$pair@$$CBKPAVCustomSoundData@@@std@@@std@@YAPAU?$pair@$$CBKPAVCustomSoundData@@@0@AAU10@@Z
_TEXT	SEGMENT
__Val$ = 8						; size = 4
??$addressof@U?$pair@$$CBKPAVCustomSoundData@@@std@@@std@@YAPAU?$pair@$$CBKPAVCustomSoundData@@@0@AAU10@@Z PROC ; std::addressof<std::pair<unsigned long const ,CustomSoundData *> >, COMDAT

; 110  : 	{	// return address of _Val

  00000	55		 push	 ebp
  00001	8b ec		 mov	 ebp, esp

; 111  : 	return ((_Ty *) &(char&)_Val);

  00003	8b 45 08	 mov	 eax, DWORD PTR __Val$[ebp]

; 112  : 	}

  00006	5d		 pop	 ebp
  00007	c3		 ret	 0
??$addressof@U?$pair@$$CBKPAVCustomSoundData@@@std@@@std@@YAPAU?$pair@$$CBKPAVCustomSoundData@@@0@AAU10@@Z ENDP ; std::addressof<std::pair<unsigned long const ,CustomSoundData *> >
_TEXT	ENDS
PUBLIC	??$?0U?$pair@$$CBKPAVCustomSoundData@@@std@@@?$allocator@U_Node@?$_Tree_nod@V?$_Tmap_traits@KPAVCustomSoundData@@U?$less@K@std@@V?$allocator@U?$pair@$$CBKPAVCustomSoundData@@@std@@@3@$0A@@std@@@std@@@std@@QAE@ABV?$allocator@U?$pair@$$CBKPAVCustomSoundData@@@std@@@1@@Z ; std::allocator<std::_Tree_nod<std::_Tmap_traits<unsigned long,CustomSoundData *,std::less<unsigned long>,std::allocator<std::pair<unsigned long const ,CustomSoundData *> >,0> >::_Node>::allocator<std::_Tree_nod<std::_Tmap_traits<unsigned long,CustomSoundData *,std::less<unsigned long>,std::allocator<std::pair<unsigned long const ,CustomSoundData *> >,0> >::_Node><std::pair<unsigned long const ,CustomSoundData *> >
; Function compile flags: /Ogsp
;	COMDAT ??$?0U?$pair@$$CBKPAVCustomSoundData@@@std@@@?$allocator@U_Node@?$_Tree_nod@V?$_Tmap_traits@KPAVCustomSoundData@@U?$less@K@std@@V?$allocator@U?$pair@$$CBKPAVCustomSoundData@@@std@@@3@$0A@@std@@@std@@@std@@QAE@ABV?$allocator@U?$pair@$$CBKPAVCustomSoundData@@@std@@@1@@Z
_TEXT	SEGMENT
___formal$ = 8						; size = 4
??$?0U?$pair@$$CBKPAVCustomSoundData@@@std@@@?$allocator@U_Node@?$_Tree_nod@V?$_Tmap_traits@KPAVCustomSoundData@@U?$less@K@std@@V?$allocator@U?$pair@$$CBKPAVCustomSoundData@@@std@@@3@$0A@@std@@@std@@@std@@QAE@ABV?$allocator@U?$pair@$$CBKPAVCustomSoundData@@@std@@@1@@Z PROC ; std::allocator<std::_Tree_nod<std::_Tmap_traits<unsigned long,CustomSoundData *,std::less<unsigned long>,std::allocator<std::pair<unsigned long const ,CustomSoundData *> >,0> >::_Node>::allocator<std::_Tree_nod<std::_Tmap_traits<unsigned long,CustomSoundData *,std::less<unsigned long>,std::allocator<std::pair<unsigned long const ,CustomSoundData *> >,0> >::_Node><std::pair<unsigned long const ,CustomSoundData *> >, COMDAT
; _this$ = ecx

; 170  : 		_ALLOCATOR(const _ALLOCATOR<_Other>&) _THROW0()

  00000	8b c1		 mov	 eax, ecx

; 171  : 		{	// construct from a related allocator (do nothing)
; 172  : 		}

  00002	c2 04 00	 ret	 4
??$?0U?$pair@$$CBKPAVCustomSoundData@@@std@@@?$allocator@U_Node@?$_Tree_nod@V?$_Tmap_traits@KPAVCustomSoundData@@U?$less@K@std@@V?$allocator@U?$pair@$$CBKPAVCustomSoundData@@@std@@@3@$0A@@std@@@std@@@std@@QAE@ABV?$allocator@U?$pair@$$CBKPAVCustomSoundData@@@std@@@1@@Z ENDP ; std::allocator<std::_Tree_nod<std::_Tmap_traits<unsigned long,CustomSoundData *,std::less<unsigned long>,std::allocator<std::pair<unsigned long const ,CustomSoundData *> >,0> >::_Node>::allocator<std::_Tree_nod<std::_Tmap_traits<unsigned long,CustomSoundData *,std::less<unsigned long>,std::allocator<std::pair<unsigned long const ,CustomSoundData *> >,0> >::_Node><std::pair<unsigned long const ,CustomSoundData *> >
_TEXT	ENDS
PUBLIC	??$_Allocate@U_Node@?$_Tree_nod@V?$_Tmap_traits@KPAVCustomSoundData@@U?$less@K@std@@V?$allocator@U?$pair@$$CBKPAVCustomSoundData@@@std@@@3@$0A@@std@@@std@@@std@@YAPAU_Node@?$_Tree_nod@V?$_Tmap_traits@KPAVCustomSoundData@@U?$less@K@std@@V?$allocator@U?$pair@$$CBKPAVCustomSoundData@@@std@@@3@$0A@@std@@@0@IPAU120@@Z ; std::_Allocate<std::_Tree_nod<std::_Tmap_traits<unsigned long,CustomSoundData *,std::less<unsigned long>,std::allocator<std::pair<unsigned long const ,CustomSoundData *> >,0> >::_Node>
; Function compile flags: /Ogsp
;	COMDAT ??$_Allocate@U_Node@?$_Tree_nod@V?$_Tmap_traits@KPAVCustomSoundData@@U?$less@K@std@@V?$allocator@U?$pair@$$CBKPAVCustomSoundData@@@std@@@3@$0A@@std@@@std@@@std@@YAPAU_Node@?$_Tree_nod@V?$_Tmap_traits@KPAVCustomSoundData@@U?$less@K@std@@V?$allocator@U?$pair@$$CBKPAVCustomSoundData@@@std@@@3@$0A@@std@@@0@IPAU120@@Z
_TEXT	SEGMENT
$T511545 = -12						; size = 12
$T511549 = 8						; size = 4
__Count$ = 8						; size = 4
___formal$ = 12						; size = 4
??$_Allocate@U_Node@?$_Tree_nod@V?$_Tmap_traits@KPAVCustomSoundData@@U?$less@K@std@@V?$allocator@U?$pair@$$CBKPAVCustomSoundData@@@std@@@3@$0A@@std@@@std@@@std@@YAPAU_Node@?$_Tree_nod@V?$_Tmap_traits@KPAVCustomSoundData@@U?$less@K@std@@V?$allocator@U?$pair@$$CBKPAVCustomSoundData@@@std@@@3@$0A@@std@@@0@IPAU120@@Z PROC ; std::_Allocate<std::_Tree_nod<std::_Tmap_traits<unsigned long,CustomSoundData *,std::less<unsigned long>,std::allocator<std::pair<unsigned long const ,CustomSoundData *> >,0> >::_Node>, COMDAT

; 30   : 	{	// allocate storage for _Count elements of type _Ty

  00000	55		 push	 ebp
  00001	8b ec		 mov	 ebp, esp

; 31   : 	void *_Ptr = 0;
; 32   : 
; 33   : 	if (_Count <= 0)

  00003	8b 4d 08	 mov	 ecx, DWORD PTR __Count$[ebp]
  00006	83 ec 0c	 sub	 esp, 12			; 0000000cH
  00009	33 c0		 xor	 eax, eax
  0000b	85 c9		 test	 ecx, ecx

; 34   : 		_Count = 0;
; 35   : 	else if (((_SIZT)(-1) / sizeof (_Ty) < _Count)

  0000d	74 3c		 je	 SHORT $LN5@Allocate@4

; 36   : 		|| (_Ptr = ::operator new(_Count * sizeof (_Ty))) == 0)

  0000f	81 f9 aa aa aa
	0a		 cmp	 ecx, 178956970		; 0aaaaaaaH
  00015	77 0e		 ja	 SHORT $LN1@Allocate@4
  00017	6b c9 18	 imul	 ecx, 24			; 00000018H
  0001a	51		 push	 ecx
  0001b	e8 00 00 00 00	 call	 ??2@YAPAXI@Z		; operator new
  00020	59		 pop	 ecx
  00021	85 c0		 test	 eax, eax

; 38   : 
; 39   : 	return ((_Ty _FARQ *)_Ptr);

  00023	75 26		 jne	 SHORT $LN5@Allocate@4
$LN1@Allocate@4:

; 37   : 		_THROW_NCEE(bad_alloc, 0);

  00025	83 65 08 00	 and	 DWORD PTR $T511549[ebp], 0
  00029	8d 45 08	 lea	 eax, DWORD PTR $T511549[ebp]
  0002c	50		 push	 eax
  0002d	8d 4d f4	 lea	 ecx, DWORD PTR $T511545[ebp]
  00030	ff 15 00 00 00
	00		 call	 DWORD PTR __imp_??0exception@std@@QAE@ABQBD@Z
  00036	68 00 00 00 00	 push	 OFFSET __TI2?AVbad_alloc@std@@
  0003b	8d 45 f4	 lea	 eax, DWORD PTR $T511545[ebp]
  0003e	50		 push	 eax
  0003f	c7 45 f4 00 00
	00 00		 mov	 DWORD PTR $T511545[ebp], OFFSET ??_7bad_alloc@std@@6B@
  00046	e8 00 00 00 00	 call	 __CxxThrowException@8
$LN10@Allocate@4:
$LN5@Allocate@4:

; 40   : 	}

  0004b	c9		 leave
  0004c	c3		 ret	 0
$LN9@Allocate@4:
??$_Allocate@U_Node@?$_Tree_nod@V?$_Tmap_traits@KPAVCustomSoundData@@U?$less@K@std@@V?$allocator@U?$pair@$$CBKPAVCustomSoundData@@@std@@@3@$0A@@std@@@std@@@std@@YAPAU_Node@?$_Tree_nod@V?$_Tmap_traits@KPAVCustomSoundData@@U?$less@K@std@@V?$allocator@U?$pair@$$CBKPAVCustomSoundData@@@std@@@3@$0A@@std@@@0@IPAU120@@Z ENDP ; std::_Allocate<std::_Tree_nod<std::_Tmap_traits<unsigned long,CustomSoundData *,std::less<unsigned long>,std::allocator<std::pair<unsigned long const ,CustomSoundData *> >,0> >::_Node>
_TEXT	ENDS
EXTRN	__imp_??0exception@std@@QAE@ABV01@@Z:PROC
; Function compile flags: /Ogsp
;	COMDAT ??0bad_alloc@std@@QAE@ABV01@@Z
_TEXT	SEGMENT
___that$ = 8						; size = 4
??0bad_alloc@std@@QAE@ABV01@@Z PROC			; std::bad_alloc::bad_alloc, COMDAT
; _this$ = ecx
  00000	55		 push	 ebp
  00001	8b ec		 mov	 ebp, esp
  00003	56		 push	 esi
  00004	ff 75 08	 push	 DWORD PTR ___that$[ebp]
  00007	8b f1		 mov	 esi, ecx
  00009	ff 15 00 00 00
	00		 call	 DWORD PTR __imp_??0exception@std@@QAE@ABV01@@Z
  0000f	c7 06 00 00 00
	00		 mov	 DWORD PTR [esi], OFFSET ??_7bad_alloc@std@@6B@
  00015	8b c6		 mov	 eax, esi
  00017	5e		 pop	 esi
  00018	5d		 pop	 ebp
  00019	c2 04 00	 ret	 4
??0bad_alloc@std@@QAE@ABV01@@Z ENDP			; std::bad_alloc::bad_alloc
_TEXT	ENDS
PUBLIC	??$forward@ABVioHashString@@@std@@YAABVioHashString@@ABV1@@Z ; std::forward<ioHashString const &>
; Function compile flags: /Ogsp
; File c:\program files (x86)\microsoft visual studio 10.0\vc\include\utility
;	COMDAT ??$forward@ABVioHashString@@@std@@YAABVioHashString@@ABV1@@Z
_TEXT	SEGMENT
__Arg$ = 8						; size = 4
??$forward@ABVioHashString@@@std@@YAABVioHashString@@ABV1@@Z PROC ; std::forward<ioHashString const &>, COMDAT

; 78   : 	{	// forward _Arg, given explicitly specified type parameter

  00000	55		 push	 ebp
  00001	8b ec		 mov	 ebp, esp

; 79   : 	return ((_Ty&&)_Arg);

  00003	8b 45 08	 mov	 eax, DWORD PTR __Arg$[ebp]

; 80   : 	}

  00006	5d		 pop	 ebp
  00007	c3		 ret	 0
??$forward@ABVioHashString@@@std@@YAABVioHashString@@ABV1@@Z ENDP ; std::forward<ioHashString const &>
_TEXT	ENDS
PUBLIC	??$forward@AAVioHashString@@@std@@YAAAVioHashString@@AAV1@@Z ; std::forward<ioHashString &>
; Function compile flags: /Ogsp
;	COMDAT ??$forward@AAVioHashString@@@std@@YAAAVioHashString@@AAV1@@Z
_TEXT	SEGMENT
__Arg$ = 8						; size = 4
??$forward@AAVioHashString@@@std@@YAAAVioHashString@@AAV1@@Z PROC ; std::forward<ioHashString &>, COMDAT

; 78   : 	{	// forward _Arg, given explicitly specified type parameter

  00000	55		 push	 ebp
  00001	8b ec		 mov	 ebp, esp

; 79   : 	return ((_Ty&&)_Arg);

  00003	8b 45 08	 mov	 eax, DWORD PTR __Arg$[ebp]

; 80   : 	}

  00006	5d		 pop	 ebp
  00007	c3		 ret	 0
??$forward@AAVioHashString@@@std@@YAAAVioHashString@@AAV1@@Z ENDP ; std::forward<ioHashString &>
_TEXT	ENDS
PUBLIC	??$forward@AAK@std@@YAAAKAAK@Z			; std::forward<unsigned long &>
; Function compile flags: /Ogsp
;	COMDAT ??$forward@AAK@std@@YAAAKAAK@Z
_TEXT	SEGMENT
__Arg$ = 8						; size = 4
??$forward@AAK@std@@YAAAKAAK@Z PROC			; std::forward<unsigned long &>, COMDAT

; 78   : 	{	// forward _Arg, given explicitly specified type parameter

  00000	55		 push	 ebp
  00001	8b ec		 mov	 ebp, esp

; 79   : 	return ((_Ty&&)_Arg);

  00003	8b 45 08	 mov	 eax, DWORD PTR __Arg$[ebp]

; 80   : 	}

  00006	5d		 pop	 ebp
  00007	c3		 ret	 0
??$forward@AAK@std@@YAAAKAAK@Z ENDP			; std::forward<unsigned long &>
_TEXT	ENDS
PUBLIC	??$_Ptr_cat@VioHashString@@V1@@std@@YA?AU_Nonscalar_ptr_iterator_tag@0@PAVioHashString@@0@Z ; std::_Ptr_cat<ioHashString,ioHashString>
; Function compile flags: /Ogsp
; File c:\program files (x86)\microsoft visual studio 10.0\vc\include\xutility
;	COMDAT ??$_Ptr_cat@VioHashString@@V1@@std@@YA?AU_Nonscalar_ptr_iterator_tag@0@PAVioHashString@@0@Z
_TEXT	SEGMENT
__Cat$ = -1						; size = 1
___formal$ = 8						; size = 4
___formal$ = 12						; size = 4
??$_Ptr_cat@VioHashString@@V1@@std@@YA?AU_Nonscalar_ptr_iterator_tag@0@PAVioHashString@@0@Z PROC ; std::_Ptr_cat<ioHashString,ioHashString>, COMDAT

; 516  : 	{	// return pointer category from pointers

  00000	55		 push	 ebp
  00001	8b ec		 mov	 ebp, esp
  00003	51		 push	 ecx

; 517  : 	typename _Ptr_cat_helper<_Elem1, _Elem2>::_Type _Cat;
; 518  : 	return (_Cat);

  00004	8a 45 ff	 mov	 al, BYTE PTR __Cat$[ebp]

; 519  : 	}

  00007	c9		 leave
  00008	c3		 ret	 0
??$_Ptr_cat@VioHashString@@V1@@std@@YA?AU_Nonscalar_ptr_iterator_tag@0@PAVioHashString@@0@Z ENDP ; std::_Ptr_cat<ioHashString,ioHashString>
_TEXT	ENDS
PUBLIC	??$_Move@AAD@std@@YA$$QADAAD@Z			; std::_Move<char &>
; Function compile flags: /Ogsp
; File c:\program files (x86)\microsoft visual studio 10.0\vc\include\utility
;	COMDAT ??$_Move@AAD@std@@YA$$QADAAD@Z
_TEXT	SEGMENT
__Arg$ = 8						; size = 4
??$_Move@AAD@std@@YA$$QADAAD@Z PROC			; std::_Move<char &>, COMDAT

; 94   : 	{	// forward _Arg as movable

  00000	55		 push	 ebp
  00001	8b ec		 mov	 ebp, esp

; 95   : 	return ((typename tr1::_Remove_reference<_Ty>::_Type&&)_Arg);

  00003	8b 45 08	 mov	 eax, DWORD PTR __Arg$[ebp]

; 96   : 	}

  00006	5d		 pop	 ebp
  00007	c3		 ret	 0
??$_Move@AAD@std@@YA$$QADAAD@Z ENDP			; std::_Move<char &>
_TEXT	ENDS
PUBLIC	??$_Destroy@U?$pair@$$CBKPAVCustomSoundData@@@std@@@std@@YAXPAU?$pair@$$CBKPAVCustomSoundData@@@0@@Z ; std::_Destroy<std::pair<unsigned long const ,CustomSoundData *> >
; Function compile flags: /Ogsp
; File c:\program files (x86)\microsoft visual studio 10.0\vc\include\xmemory
;	COMDAT ??$_Destroy@U?$pair@$$CBKPAVCustomSoundData@@@std@@@std@@YAXPAU?$pair@$$CBKPAVCustomSoundData@@@0@@Z
_TEXT	SEGMENT
__Ptr$ = 8						; size = 4
??$_Destroy@U?$pair@$$CBKPAVCustomSoundData@@@std@@@std@@YAXPAU?$pair@$$CBKPAVCustomSoundData@@@0@@Z PROC ; std::_Destroy<std::pair<unsigned long const ,CustomSoundData *> >, COMDAT

; 63   : 	_Ptr->~_Ty();
; 64   : 	}

  00000	c3		 ret	 0
??$_Destroy@U?$pair@$$CBKPAVCustomSoundData@@@std@@@std@@YAXPAU?$pair@$$CBKPAVCustomSoundData@@@0@@Z ENDP ; std::_Destroy<std::pair<unsigned long const ,CustomSoundData *> >
_TEXT	ENDS
PUBLIC	??$move@AA_N@std@@YA$$QA_NAA_N@Z		; std::move<bool &>
; Function compile flags: /Ogsp
; File c:\program files (x86)\microsoft visual studio 10.0\vc\include\utility
;	COMDAT ??$move@AA_N@std@@YA$$QA_NAA_N@Z
_TEXT	SEGMENT
__Arg$ = 8						; size = 4
??$move@AA_N@std@@YA$$QA_NAA_N@Z PROC			; std::move<bool &>, COMDAT

; 86   : 	{	// forward _Arg as movable

  00000	55		 push	 ebp
  00001	8b ec		 mov	 ebp, esp

; 87   : 	return ((typename tr1::_Remove_reference<_Ty>::_Type&&)_Arg);

  00003	8b 45 08	 mov	 eax, DWORD PTR __Arg$[ebp]

; 88   : 	}

  00006	5d		 pop	 ebp
  00007	c3		 ret	 0
??$move@AA_N@std@@YA$$QA_NAA_N@Z ENDP			; std::move<bool &>
_TEXT	ENDS
PUBLIC	??$move@AAVioHashString@@@std@@YA$$QAVioHashString@@AAV1@@Z ; std::move<ioHashString &>
; Function compile flags: /Ogsp
;	COMDAT ??$move@AAVioHashString@@@std@@YA$$QAVioHashString@@AAV1@@Z
_TEXT	SEGMENT
__Arg$ = 8						; size = 4
??$move@AAVioHashString@@@std@@YA$$QAVioHashString@@AAV1@@Z PROC ; std::move<ioHashString &>, COMDAT

; 86   : 	{	// forward _Arg as movable

  00000	55		 push	 ebp
  00001	8b ec		 mov	 ebp, esp

; 87   : 	return ((typename tr1::_Remove_reference<_Ty>::_Type&&)_Arg);

  00003	8b 45 08	 mov	 eax, DWORD PTR __Arg$[ebp]

; 88   : 	}

  00006	5d		 pop	 ebp
  00007	c3		 ret	 0
??$move@AAVioHashString@@@std@@YA$$QAVioHashString@@AAV1@@Z ENDP ; std::move<ioHashString &>
_TEXT	ENDS
PUBLIC	??$forward@_N@std@@YA$$QA_NAA_N@Z		; std::forward<bool>
; Function compile flags: /Ogsp
;	COMDAT ??$forward@_N@std@@YA$$QA_NAA_N@Z
_TEXT	SEGMENT
__Arg$ = 8						; size = 4
??$forward@_N@std@@YA$$QA_NAA_N@Z PROC			; std::forward<bool>, COMDAT

; 78   : 	{	// forward _Arg, given explicitly specified type parameter

  00000	55		 push	 ebp
  00001	8b ec		 mov	 ebp, esp

; 79   : 	return ((_Ty&&)_Arg);

  00003	8b 45 08	 mov	 eax, DWORD PTR __Arg$[ebp]

; 80   : 	}

  00006	5d		 pop	 ebp
  00007	c3		 ret	 0
??$forward@_N@std@@YA$$QA_NAA_N@Z ENDP			; std::forward<bool>
_TEXT	ENDS
PUBLIC	??D?$_Vector_const_iterator@V?$_Vector_val@VioHashString@@V?$allocator@VioHashString@@@std@@@std@@@std@@QBEABVioHashString@@XZ ; std::_Vector_const_iterator<std::_Vector_val<ioHashString,std::allocator<ioHashString> > >::operator*
; Function compile flags: /Ogsp
; File c:\program files (x86)\microsoft visual studio 10.0\vc\include\vector
;	COMDAT ??D?$_Vector_const_iterator@V?$_Vector_val@VioHashString@@V?$allocator@VioHashString@@@std@@@std@@@std@@QBEABVioHashString@@XZ
_TEXT	SEGMENT
??D?$_Vector_const_iterator@V?$_Vector_val@VioHashString@@V?$allocator@VioHashString@@@std@@@std@@@std@@QBEABVioHashString@@XZ PROC ; std::_Vector_const_iterator<std::_Vector_val<ioHashString,std::allocator<ioHashString> > >::operator*, COMDAT
; _this$ = ecx

; 64   :  #if _ITERATOR_DEBUG_LEVEL == 2
; 65   : 		if (this->_Getcont() == 0
; 66   : 			|| this->_Ptr == 0
; 67   : 			|| this->_Ptr < ((_Myvec *)this->_Getcont())->_Myfirst
; 68   : 			|| ((_Myvec *)this->_Getcont())->_Mylast <= this->_Ptr)
; 69   : 			{	// report error
; 70   : 			_DEBUG_ERROR("vector iterator not dereferencable");
; 71   : 			_SCL_SECURE_OUT_OF_RANGE;
; 72   : 			}
; 73   : 
; 74   :  #elif _ITERATOR_DEBUG_LEVEL == 1
; 75   : 		_SCL_SECURE_VALIDATE(this->_Getcont() != 0);
; 76   : 		_SCL_SECURE_VALIDATE_RANGE(
; 77   : 			this->_Ptr != 0
; 78   : 			&& ((_Myvec *)this->_Getcont())->_Myfirst <= this->_Ptr
; 79   : 			&& this->_Ptr < ((_Myvec *)this->_Getcont())->_Mylast);
; 80   :  #endif /* _ITERATOR_DEBUG_LEVEL */
; 81   : 
; 82   : 		__analysis_assume(this->_Ptr != 0);
; 83   : 
; 84   : 		return (*this->_Ptr);

  00000	8b 01		 mov	 eax, DWORD PTR [ecx]

; 85   : 		}

  00002	c3		 ret	 0
??D?$_Vector_const_iterator@V?$_Vector_val@VioHashString@@V?$allocator@VioHashString@@@std@@@std@@@std@@QBEABVioHashString@@XZ ENDP ; std::_Vector_const_iterator<std::_Vector_val<ioHashString,std::allocator<ioHashString> > >::operator*
_TEXT	ENDS
PUBLIC	??E?$_Vector_const_iterator@V?$_Vector_val@VioHashString@@V?$allocator@VioHashString@@@std@@@std@@@std@@QAEAAV01@XZ ; std::_Vector_const_iterator<std::_Vector_val<ioHashString,std::allocator<ioHashString> > >::operator++
; Function compile flags: /Ogsp
;	COMDAT ??E?$_Vector_const_iterator@V?$_Vector_val@VioHashString@@V?$allocator@VioHashString@@@std@@@std@@@std@@QAEAAV01@XZ
_TEXT	SEGMENT
??E?$_Vector_const_iterator@V?$_Vector_val@VioHashString@@V?$allocator@VioHashString@@@std@@@std@@@std@@QAEAAV01@XZ PROC ; std::_Vector_const_iterator<std::_Vector_val<ioHashString,std::allocator<ioHashString> > >::operator++, COMDAT
; _this$ = ecx

; 93   : 		{	// preincrement

  00000	8b c1		 mov	 eax, ecx

; 94   :  #if _ITERATOR_DEBUG_LEVEL == 2
; 95   : 		if (this->_Getcont() == 0
; 96   : 			|| this->_Ptr == 0
; 97   : 			|| ((_Myvec *)this->_Getcont())->_Mylast <= this->_Ptr)
; 98   : 			{	// report error
; 99   : 			_DEBUG_ERROR("vector iterator not incrementable");
; 100  : 			_SCL_SECURE_OUT_OF_RANGE;
; 101  : 			}
; 102  : 
; 103  :  #elif _ITERATOR_DEBUG_LEVEL == 1
; 104  : 		_SCL_SECURE_VALIDATE(this->_Getcont() != 0);
; 105  : 		_SCL_SECURE_VALIDATE_RANGE(
; 106  : 			this->_Ptr != 0
; 107  : 			&& this->_Ptr < ((_Myvec *)this->_Getcont())->_Mylast);
; 108  :  #endif /* _ITERATOR_DEBUG_LEVEL */
; 109  : 
; 110  : 		++this->_Ptr;

  00002	83 00 10	 add	 DWORD PTR [eax], 16	; 00000010H

; 111  : 		return (*this);
; 112  : 		}

  00005	c3		 ret	 0
??E?$_Vector_const_iterator@V?$_Vector_val@VioHashString@@V?$allocator@VioHashString@@@std@@@std@@@std@@QAEAAV01@XZ ENDP ; std::_Vector_const_iterator<std::_Vector_val<ioHashString,std::allocator<ioHashString> > >::operator++
_TEXT	ENDS
PUBLIC	??_GioHashString@@QAEPAXI@Z			; ioHashString::`scalar deleting destructor'
; Function compile flags: /Ogsp
;	COMDAT ??_GioHashString@@QAEPAXI@Z
_TEXT	SEGMENT
___flags$ = 8						; size = 4
??_GioHashString@@QAEPAXI@Z PROC			; ioHashString::`scalar deleting destructor', COMDAT
; _this$ = ecx
  00000	55		 push	 ebp
  00001	8b ec		 mov	 ebp, esp
  00003	56		 push	 esi
  00004	8b f1		 mov	 esi, ecx
  00006	ff 15 00 00 00
	00		 call	 DWORD PTR __imp_??1ioHashString@@QAE@XZ
  0000c	f6 45 08 01	 test	 BYTE PTR ___flags$[ebp], 1
  00010	74 07		 je	 SHORT $LN1@scalar@3
  00012	56		 push	 esi
  00013	e8 00 00 00 00	 call	 ??3@YAXPAX@Z		; operator delete
  00018	59		 pop	 ecx
$LN1@scalar@3:
  00019	8b c6		 mov	 eax, esi
  0001b	5e		 pop	 esi
  0001c	5d		 pop	 ebp
  0001d	c2 04 00	 ret	 4
??_GioHashString@@QAEPAXI@Z ENDP			; ioHashString::`scalar deleting destructor'
_TEXT	ENDS
PUBLIC	??$forward@H@std@@YA$$QAHAAH@Z			; std::forward<int>
; Function compile flags: /Ogsp
; File c:\program files (x86)\microsoft visual studio 10.0\vc\include\utility
;	COMDAT ??$forward@H@std@@YA$$QAHAAH@Z
_TEXT	SEGMENT
__Arg$ = 8						; size = 4
??$forward@H@std@@YA$$QAHAAH@Z PROC			; std::forward<int>, COMDAT

; 78   : 	{	// forward _Arg, given explicitly specified type parameter

  00000	55		 push	 ebp
  00001	8b ec		 mov	 ebp, esp

; 79   : 	return ((_Ty&&)_Arg);

  00003	8b 45 08	 mov	 eax, DWORD PTR __Arg$[ebp]

; 80   : 	}

  00006	5d		 pop	 ebp
  00007	c3		 ret	 0
??$forward@H@std@@YA$$QAHAAH@Z ENDP			; std::forward<int>
_TEXT	ENDS
PUBLIC	??$_Construct@VioHashString@@ABV1@@std@@YAXPAVioHashString@@ABV1@@Z ; std::_Construct<ioHashString,ioHashString const &>
;	COMDAT xdata$x
xdata$x	SEGMENT
__unwindtable$??$_Construct@VioHashString@@ABV1@@std@@YAXPAVioHashString@@ABV1@@Z DD 0ffffffffH
	DD	FLAT:__unwindfunclet$??$_Construct@VioHashString@@ABV1@@std@@YAXPAVioHashString@@ABV1@@Z$0
__ehfuncinfo$??$_Construct@VioHashString@@ABV1@@std@@YAXPAVioHashString@@ABV1@@Z DD 019930522H
	DD	01H
	DD	FLAT:__unwindtable$??$_Construct@VioHashString@@ABV1@@std@@YAXPAVioHashString@@ABV1@@Z
	DD	2 DUP(00H)
	DD	2 DUP(00H)
	DD	00H
	DD	01H
; Function compile flags: /Ogsp
; File c:\program files (x86)\microsoft visual studio 10.0\vc\include\xmemory
xdata$x	ENDS
;	COMDAT ??$_Construct@VioHashString@@ABV1@@std@@YAXPAVioHashString@@ABV1@@Z
_TEXT	SEGMENT
$T511587 = -16						; size = 4
__$EHRec$ = -12						; size = 12
__Vptr$ = 8						; size = 4
__Ptr$ = 8						; size = 4
__Val$ = 12						; size = 4
??$_Construct@VioHashString@@ABV1@@std@@YAXPAVioHashString@@ABV1@@Z PROC ; std::_Construct<ioHashString,ioHashString const &>, COMDAT

; 46   : 	{	// construct object at _Ptr with value _Val

  00000	6a 04		 push	 4
  00002	b8 00 00 00 00	 mov	 eax, __ehhandler$??$_Construct@VioHashString@@ABV1@@std@@YAXPAVioHashString@@ABV1@@Z
  00007	e8 00 00 00 00	 call	 __EH_prolog3

; 47   : 	void _FARQ *_Vptr = _Ptr;

  0000c	8b 4d 08	 mov	 ecx, DWORD PTR __Ptr$[ebp]
  0000f	89 4d 08	 mov	 DWORD PTR __Vptr$[ebp], ecx

; 48   : 	::new (_Vptr) _Ty1(_STD forward<_Ty2>(_Val));

  00012	89 4d f0	 mov	 DWORD PTR $T511587[ebp], ecx
  00015	83 65 fc 00	 and	 DWORD PTR __$EHRec$[ebp+8], 0
  00019	85 c9		 test	 ecx, ecx
  0001b	74 09		 je	 SHORT $LN3@Construct@3
  0001d	ff 75 0c	 push	 DWORD PTR __Val$[ebp]
  00020	ff 15 00 00 00
	00		 call	 DWORD PTR __imp_??0ioHashString@@QAE@ABV0@@Z
$LN3@Construct@3:

; 49   : 	}

  00026	e8 00 00 00 00	 call	 __EH_epilog3
  0002b	c3		 ret	 0
_TEXT	ENDS
;	COMDAT text$x
text$x	SEGMENT
__unwindfunclet$??$_Construct@VioHashString@@ABV1@@std@@YAXPAVioHashString@@ABV1@@Z$0:
  00000	ff 75 08	 push	 DWORD PTR __Vptr$[ebp]
  00003	ff 75 f0	 push	 DWORD PTR $T511587[ebp]
  00006	e8 00 00 00 00	 call	 ??3@YAXPAX0@Z		; operator delete
  0000b	59		 pop	 ecx
  0000c	59		 pop	 ecx
  0000d	c3		 ret	 0
__ehhandler$??$_Construct@VioHashString@@ABV1@@std@@YAXPAVioHashString@@ABV1@@Z:
  0000e	8b 54 24 08	 mov	 edx, DWORD PTR [esp+8]
  00012	8d 42 0c	 lea	 eax, DWORD PTR [edx+12]
  00015	8b 4a ec	 mov	 ecx, DWORD PTR [edx-20]
  00018	33 c8		 xor	 ecx, eax
  0001a	e8 00 00 00 00	 call	 @__security_check_cookie@4
  0001f	b8 00 00 00 00	 mov	 eax, OFFSET __ehfuncinfo$??$_Construct@VioHashString@@ABV1@@std@@YAXPAVioHashString@@ABV1@@Z
  00024	e9 00 00 00 00	 jmp	 ___CxxFrameHandler3
text$x	ENDS
??$_Construct@VioHashString@@ABV1@@std@@YAXPAVioHashString@@ABV1@@Z ENDP ; std::_Construct<ioHashString,ioHashString const &>
PUBLIC	?GetSingleton@ioCustomSoundMgr@@SAAAV1@XZ	; ioCustomSoundMgr::GetSingleton
; Function compile flags: /Ogsp
; File d:\lost saga for developer\youtube\tutorial\source\src\lsclient\iocustomsoundmgr.cpp
;	COMDAT ?GetSingleton@ioCustomSoundMgr@@SAAAV1@XZ
_TEXT	SEGMENT
?GetSingleton@ioCustomSoundMgr@@SAAAV1@XZ PROC		; ioCustomSoundMgr::GetSingleton, COMDAT

; 222  : 	return Singleton< ioCustomSoundMgr >::GetSingleton();

  00000	a1 00 00 00 00	 mov	 eax, DWORD PTR ?ms_Singleton@?$Singleton@VioCustomSoundMgr@@@@1PAVioCustomSoundMgr@@A ; Singleton<ioCustomSoundMgr>::ms_Singleton

; 223  : }

  00005	c3		 ret	 0
?GetSingleton@ioCustomSoundMgr@@SAAAV1@XZ ENDP		; ioCustomSoundMgr::GetSingleton
_TEXT	ENDS
PUBLIC	__$ArrayPad$
PUBLIC	?SendCustomSoundInfo@ioCustomSoundMgr@@QAEXKKK_NW4TeamType@@@Z ; ioCustomSoundMgr::SendCustomSoundInfo
EXTRN	??1SP2Packet@@UAE@XZ:PROC			; SP2Packet::~SP2Packet
EXTRN	?SendToTeam@P2PNetwork@@YAXAAVSP2Packet@@W4TeamType@@@Z:PROC ; P2PNetwork::SendToTeam
EXTRN	?SendToAllPlayingUser@P2PNetwork@@YAXAAVSP2Packet@@PAVioBaseChar@@@Z:PROC ; P2PNetwork::SendToAllPlayingUser
EXTRN	??6SP2Packet@@QAEAAV0@K@Z:PROC			; SP2Packet::operator<<
EXTRN	?GetSingleton@ioMyInfo@@SAAAV1@XZ:PROC		; ioMyInfo::GetSingleton
EXTRN	??6SP2Packet@@QAEAAV0@H@Z:PROC			; SP2Packet::operator<<
EXTRN	??0SP2Packet@@QAE@K@Z:PROC			; SP2Packet::SP2Packet
EXTRN	__chkstk:PROC
;	COMDAT xdata$x
; File d:\lost saga for developer\youtube\tutorial\source\src\lsclient\iomyinfo.h
xdata$x	SEGMENT
__unwindtable$?SendCustomSoundInfo@ioCustomSoundMgr@@QAEXKKK_NW4TeamType@@@Z DD 0ffffffffH
	DD	FLAT:__unwindfunclet$?SendCustomSoundInfo@ioCustomSoundMgr@@QAEXKKK_NW4TeamType@@@Z$0
__ehfuncinfo$?SendCustomSoundInfo@ioCustomSoundMgr@@QAEXKKK_NW4TeamType@@@Z DD 019930522H
	DD	01H
	DD	FLAT:__unwindtable$?SendCustomSoundInfo@ioCustomSoundMgr@@QAEXKKK_NW4TeamType@@@Z
	DD	2 DUP(00H)
	DD	2 DUP(00H)
	DD	00H
	DD	01H
; Function compile flags: /Ogsp
; File d:\lost saga for developer\youtube\tutorial\source\src\lsclient\iocustomsoundmgr.cpp
xdata$x	ENDS
;	COMDAT ?SendCustomSoundInfo@ioCustomSoundMgr@@QAEXKKK_NW4TeamType@@@Z
_TEXT	SEGMENT
_kPacket$ = -32808					; size = 32792
__$ArrayPad$ = -16					; size = 4
__$EHRec$ = -12						; size = 12
_dwIndex$ = 8						; size = 4
_dwCRC$ = 12						; size = 4
_dwSize$ = 16						; size = 4
_bAll$ = 20						; size = 1
_eTeamType$ = 24					; size = 4
?SendCustomSoundInfo@ioCustomSoundMgr@@QAEXKKK_NW4TeamType@@@Z PROC ; ioCustomSoundMgr::SendCustomSoundInfo, COMDAT
; _this$ = ecx

; 463  : {

  00000	55		 push	 ebp
  00001	8b ec		 mov	 ebp, esp
  00003	6a ff		 push	 -1
  00005	68 00 00 00 00	 push	 __ehhandler$?SendCustomSoundInfo@ioCustomSoundMgr@@QAEXKKK_NW4TeamType@@@Z
  0000a	64 a1 00 00 00
	00		 mov	 eax, DWORD PTR fs:0
  00010	50		 push	 eax
  00011	b8 1c 80 00 00	 mov	 eax, 32796		; 0000801cH
  00016	e8 00 00 00 00	 call	 __chkstk
  0001b	a1 00 00 00 00	 mov	 eax, DWORD PTR ___security_cookie
  00020	33 c5		 xor	 eax, ebp
  00022	89 45 f0	 mov	 DWORD PTR __$ArrayPad$[ebp], eax
  00025	53		 push	 ebx
  00026	50		 push	 eax
  00027	8d 45 f4	 lea	 eax, DWORD PTR __$EHRec$[ebp]
  0002a	64 a3 00 00 00
	00		 mov	 DWORD PTR fs:0, eax

; 464  : 	if( dwIndex == 0 ) return;

  00030	33 db		 xor	 ebx, ebx
  00032	39 5d 08	 cmp	 DWORD PTR _dwIndex$[ebp], ebx
  00035	0f 84 94 00 00
	00		 je	 $LN5@SendCustom

; 465  : 	if( dwCRC   == 0 ) return;

  0003b	39 5d 0c	 cmp	 DWORD PTR _dwCRC$[ebp], ebx
  0003e	0f 84 8b 00 00
	00		 je	 $LN5@SendCustom

; 466  : 
; 467  : 	// 전투로 연결된경우에는 udp connection이 없으므로 전투연결시에는 커스텀 음성을 보내지 않는다.
; 468  : 	// 나중에 개선 생각해 볼것. 
; 469  : 	SP2Packet kPacket(CUPK_CUSTOM_SOUND_INFO);

  00044	68 71 41 00 00	 push	 16753			; 00004171H
  00049	8d 8d d8 7f ff
	ff		 lea	 ecx, DWORD PTR _kPacket$[ebp]
  0004f	e8 00 00 00 00	 call	 ??0SP2Packet@@QAE@K@Z	; SP2Packet::SP2Packet

; 470  : 	kPacket << HAVE_CUSTOM_SOUND;

  00054	6a 01		 push	 1
  00056	8d 8d d8 7f ff
	ff		 lea	 ecx, DWORD PTR _kPacket$[ebp]
  0005c	89 5d fc	 mov	 DWORD PTR __$EHRec$[ebp+8], ebx
  0005f	e8 00 00 00 00	 call	 ??6SP2Packet@@QAEAAV0@H@Z ; SP2Packet::operator<<

; 471  : 	kPacket << g_MyInfo.GetUserIndex();

  00064	e8 00 00 00 00	 call	 ?GetSingleton@ioMyInfo@@SAAAV1@XZ ; ioMyInfo::GetSingleton
  00069	ff 70 08	 push	 DWORD PTR [eax+8]
  0006c	8d 8d d8 7f ff
	ff		 lea	 ecx, DWORD PTR _kPacket$[ebp]
  00072	e8 00 00 00 00	 call	 ??6SP2Packet@@QAEAAV0@K@Z ; SP2Packet::operator<<

; 472  : 	kPacket << dwIndex; 

  00077	ff 75 08	 push	 DWORD PTR _dwIndex$[ebp]
  0007a	8d 8d d8 7f ff
	ff		 lea	 ecx, DWORD PTR _kPacket$[ebp]
  00080	e8 00 00 00 00	 call	 ??6SP2Packet@@QAEAAV0@K@Z ; SP2Packet::operator<<

; 473  : 	kPacket << dwCRC;

  00085	ff 75 0c	 push	 DWORD PTR _dwCRC$[ebp]
  00088	8d 8d d8 7f ff
	ff		 lea	 ecx, DWORD PTR _kPacket$[ebp]
  0008e	e8 00 00 00 00	 call	 ??6SP2Packet@@QAEAAV0@K@Z ; SP2Packet::operator<<

; 474  : 	kPacket << dwSize;

  00093	ff 75 10	 push	 DWORD PTR _dwSize$[ebp]
  00096	8d 8d d8 7f ff
	ff		 lea	 ecx, DWORD PTR _kPacket$[ebp]
  0009c	e8 00 00 00 00	 call	 ??6SP2Packet@@QAEAAV0@K@Z ; SP2Packet::operator<<

; 475  : 	if( bAll )
; 476  : 		P2PNetwork::SendToAllPlayingUser( kPacket );

  000a1	8d 85 d8 7f ff
	ff		 lea	 eax, DWORD PTR _kPacket$[ebp]
  000a7	38 5d 14	 cmp	 BYTE PTR _bAll$[ebp], bl
  000aa	74 09		 je	 SHORT $LN2@SendCustom
  000ac	53		 push	 ebx
  000ad	50		 push	 eax
  000ae	e8 00 00 00 00	 call	 ?SendToAllPlayingUser@P2PNetwork@@YAXAAVSP2Packet@@PAVioBaseChar@@@Z ; P2PNetwork::SendToAllPlayingUser

; 477  : 	else

  000b3	eb 09		 jmp	 SHORT $LN11@SendCustom
$LN2@SendCustom:

; 478  : 		P2PNetwork::SendToTeam( kPacket, eTeamType );

  000b5	ff 75 18	 push	 DWORD PTR _eTeamType$[ebp]
  000b8	50		 push	 eax
  000b9	e8 00 00 00 00	 call	 ?SendToTeam@P2PNetwork@@YAXAAVSP2Packet@@W4TeamType@@@Z ; P2PNetwork::SendToTeam
$LN11@SendCustom:

; 479  : }

  000be	83 4d fc ff	 or	 DWORD PTR __$EHRec$[ebp+8], -1
  000c2	59		 pop	 ecx
  000c3	59		 pop	 ecx
  000c4	8d 8d d8 7f ff
	ff		 lea	 ecx, DWORD PTR _kPacket$[ebp]
  000ca	e8 00 00 00 00	 call	 ??1SP2Packet@@UAE@XZ	; SP2Packet::~SP2Packet
$LN5@SendCustom:
  000cf	8b 4d f4	 mov	 ecx, DWORD PTR __$EHRec$[ebp]
  000d2	64 89 0d 00 00
	00 00		 mov	 DWORD PTR fs:0, ecx
  000d9	59		 pop	 ecx
  000da	5b		 pop	 ebx
  000db	8b 4d f0	 mov	 ecx, DWORD PTR __$ArrayPad$[ebp]
  000de	33 cd		 xor	 ecx, ebp
  000e0	e8 00 00 00 00	 call	 @__security_check_cookie@4
  000e5	c9		 leave
  000e6	c2 14 00	 ret	 20			; 00000014H
_TEXT	ENDS
;	COMDAT text$x
text$x	SEGMENT
__unwindfunclet$?SendCustomSoundInfo@ioCustomSoundMgr@@QAEXKKK_NW4TeamType@@@Z$0:
  00000	8d 8d d8 7f ff
	ff		 lea	 ecx, DWORD PTR _kPacket$[ebp]
  00006	e9 00 00 00 00	 jmp	 ??1SP2Packet@@UAE@XZ	; SP2Packet::~SP2Packet
__ehhandler$?SendCustomSoundInfo@ioCustomSoundMgr@@QAEXKKK_NW4TeamType@@@Z:
  0000b	8b 54 24 08	 mov	 edx, DWORD PTR [esp+8]
  0000f	8d 42 0c	 lea	 eax, DWORD PTR [edx+12]
  00012	8b 8a dc 7f ff
	ff		 mov	 ecx, DWORD PTR [edx-32804]
  00018	33 c8		 xor	 ecx, eax
  0001a	e8 00 00 00 00	 call	 @__security_check_cookie@4
  0001f	8b 4a fc	 mov	 ecx, DWORD PTR [edx-4]
  00022	33 c8		 xor	 ecx, eax
  00024	e8 00 00 00 00	 call	 @__security_check_cookie@4
  00029	b8 00 00 00 00	 mov	 eax, OFFSET __ehfuncinfo$?SendCustomSoundInfo@ioCustomSoundMgr@@QAEXKKK_NW4TeamType@@@Z
  0002e	e9 00 00 00 00	 jmp	 ___CxxFrameHandler3
text$x	ENDS
?SendCustomSoundInfo@ioCustomSoundMgr@@QAEXKKK_NW4TeamType@@@Z ENDP ; ioCustomSoundMgr::SendCustomSoundInfo
PUBLIC	??_C@_0CA@DBCPACHA@ioCustomSoundMgr?3?3CheckWaveFile?$AA@ ; `string'
PUBLIC	??_C@_00CNPNBAHC@?$AA@				; `string'
PUBLIC	?CheckWaveFile@ioCustomSoundMgr@@QAE_NPBD@Z	; ioCustomSoundMgr::CheckWaveFile
EXTRN	?SetMsgBox@ioSP2GUIManager@@QAEXHPAVioWnd@@PBDK@Z:PROC ; ioSP2GUIManager::SetMsgBox
EXTRN	__imp_?Open@ioWaveFile@@QAEJPBD@Z:PROC
EXTRN	__imp_??0ioWaveFile@@QAE@XZ:PROC
EXTRN	?SetMsgBox@ioSP2GUIManager@@QAEXHPAVioWnd@@PBDH@Z:PROC ; ioSP2GUIManager::SetMsgBox
EXTRN	?SetMsgBox@ioSP2GUIManager@@QAAXHPAVioWnd@@PBDZZ:PROC ; ioSP2GUIManager::SetMsgBox
EXTRN	?GetSingleton@ioSP2GUIManager@@SAAAV1@XZ:PROC	; ioSP2GUIManager::GetSingleton
EXTRN	__imp_?GetString@ioStringManager@@QAEPADPBD0HW4FileNamePrefix@1@@Z:PROC
EXTRN	__imp_?GetSingleton@ioStringManager@@SAAAV1@XZ:PROC
EXTRN	?GetFileSize@Help@@YAHPBD@Z:PROC		; Help::GetFileSize
;	COMDAT ??_C@_0CA@DBCPACHA@ioCustomSoundMgr?3?3CheckWaveFile?$AA@
CONST	SEGMENT
??_C@_0CA@DBCPACHA@ioCustomSoundMgr?3?3CheckWaveFile?$AA@ DB 'ioCustomSou'
	DB	'ndMgr::CheckWaveFile', 00H			; `string'
CONST	ENDS
;	COMDAT ??_C@_00CNPNBAHC@?$AA@
CONST	SEGMENT
??_C@_00CNPNBAHC@?$AA@ DB 00H				; `string'
CONST	ENDS
;	COMDAT xdata$x
xdata$x	SEGMENT
__unwindtable$?CheckWaveFile@ioCustomSoundMgr@@QAE_NPBD@Z DD 0ffffffffH
	DD	FLAT:__unwindfunclet$?CheckWaveFile@ioCustomSoundMgr@@QAE_NPBD@Z$0
__ehfuncinfo$?CheckWaveFile@ioCustomSoundMgr@@QAE_NPBD@Z DD 019930522H
	DD	01H
	DD	FLAT:__unwindtable$?CheckWaveFile@ioCustomSoundMgr@@QAE_NPBD@Z
	DD	2 DUP(00H)
	DD	2 DUP(00H)
	DD	00H
	DD	01H
; Function compile flags: /Ogsp
xdata$x	ENDS
;	COMDAT ?CheckWaveFile@ioCustomSoundMgr@@QAE_NPBD@Z
_TEXT	SEGMENT
$T511628 = -20						; size = 4
_iSize$ = -16						; size = 4
__$EHRec$ = -12						; size = 12
_szFullPath$ = 8					; size = 4
?CheckWaveFile@ioCustomSoundMgr@@QAE_NPBD@Z PROC	; ioCustomSoundMgr::CheckWaveFile, COMDAT
; _this$ = ecx

; 856  : {

  00000	6a 08		 push	 8
  00002	b8 00 00 00 00	 mov	 eax, __ehhandler$?CheckWaveFile@ioCustomSoundMgr@@QAE_NPBD@Z
  00007	e8 00 00 00 00	 call	 __EH_prolog3
  0000c	8b f9		 mov	 edi, ecx

; 857  : 	int iSize = Help::GetFileSize( szFullPath );

  0000e	ff 75 08	 push	 DWORD PTR _szFullPath$[ebp]
  00011	e8 00 00 00 00	 call	 ?GetFileSize@Help@@YAHPBD@Z ; Help::GetFileSize

; 858  : 	if( iSize < 0 )

  00016	33 db		 xor	 ebx, ebx
  00018	59		 pop	 ecx
  00019	89 45 f0	 mov	 DWORD PTR _iSize$[ebp], eax
  0001c	3b c3		 cmp	 eax, ebx
  0001e	7d 36		 jge	 SHORT $LN12@CheckWaveF

; 859  : 	{
; 860  : 		g_GUIMgr.SetMsgBox( MB_OK, NULL, STR(1));

  00020	53		 push	 ebx
  00021	6a 01		 push	 1
  00023	68 00 00 00 00	 push	 OFFSET ??_C@_00CNPNBAHC@?$AA@
  00028	68 00 00 00 00	 push	 OFFSET ??_C@_0CA@DBCPACHA@ioCustomSoundMgr?3?3CheckWaveFile?$AA@
  0002d	ff 15 00 00 00
	00		 call	 DWORD PTR __imp_?GetSingleton@ioStringManager@@SAAAV1@XZ
  00033	8b c8		 mov	 ecx, eax
  00035	ff 15 00 00 00
	00		 call	 DWORD PTR __imp_?GetString@ioStringManager@@QAEPADPBD0HW4FileNamePrefix@1@@Z
  0003b	50		 push	 eax
  0003c	53		 push	 ebx
  0003d	53		 push	 ebx
  0003e	e8 00 00 00 00	 call	 ?GetSingleton@ioSP2GUIManager@@SAAAV1@XZ ; ioSP2GUIManager::GetSingleton
  00043	50		 push	 eax
  00044	e8 00 00 00 00	 call	 ?SetMsgBox@ioSP2GUIManager@@QAAXHPAVioWnd@@PBDZZ ; ioSP2GUIManager::SetMsgBox
  00049	83 c4 10	 add	 esp, 16			; 00000010H
$LN47@CheckWaveF:

; 861  : 		return false;

  0004c	32 c0		 xor	 al, al
$LN13@CheckWaveF:

; 905  : 	}
; 906  : 
; 907  : 	SAFEDELETE( pWave );
; 908  : 	return true;
; 909  : }

  0004e	e8 00 00 00 00	 call	 __EH_epilog3
  00053	c2 04 00	 ret	 4
$LN12@CheckWaveF:

; 862  : 	}
; 863  : 
; 864  : 	if( iSize > MAX_WAV_SIZE )

  00056	b8 50 c3 00 00	 mov	 eax, 50000		; 0000c350H
  0005b	39 45 f0	 cmp	 DWORD PTR _iSize$[ebp], eax
  0005e	7e 2d		 jle	 SHORT $LN11@CheckWaveF

; 865  : 	{
; 866  : 		g_GUIMgr.SetMsgBox( MB_OK, NULL, STR(2), MAX_WAV_SIZE );

  00060	50		 push	 eax
  00061	53		 push	 ebx
  00062	6a 02		 push	 2
  00064	68 00 00 00 00	 push	 OFFSET ??_C@_00CNPNBAHC@?$AA@
  00069	68 00 00 00 00	 push	 OFFSET ??_C@_0CA@DBCPACHA@ioCustomSoundMgr?3?3CheckWaveFile?$AA@
  0006e	ff 15 00 00 00
	00		 call	 DWORD PTR __imp_?GetSingleton@ioStringManager@@SAAAV1@XZ
  00074	8b c8		 mov	 ecx, eax
  00076	ff 15 00 00 00
	00		 call	 DWORD PTR __imp_?GetString@ioStringManager@@QAEPADPBD0HW4FileNamePrefix@1@@Z
  0007c	50		 push	 eax
  0007d	53		 push	 ebx
  0007e	53		 push	 ebx
  0007f	e8 00 00 00 00	 call	 ?GetSingleton@ioSP2GUIManager@@SAAAV1@XZ ; ioSP2GUIManager::GetSingleton
  00084	8b c8		 mov	 ecx, eax
  00086	e8 00 00 00 00	 call	 ?SetMsgBox@ioSP2GUIManager@@QAEXHPAVioWnd@@PBDH@Z ; ioSP2GUIManager::SetMsgBox

; 867  : 		return false;

  0008b	eb bf		 jmp	 SHORT $LN47@CheckWaveF
$LN11@CheckWaveF:

; 868  : 	}
; 869  : 
; 870  : 	ioWaveFile *pWave = new ioWaveFile;

  0008d	6a 34		 push	 52			; 00000034H
  0008f	e8 00 00 00 00	 call	 ??2@YAPAXI@Z		; operator new
  00094	59		 pop	 ecx
  00095	8b c8		 mov	 ecx, eax
  00097	89 4d ec	 mov	 DWORD PTR $T511628[ebp], ecx
  0009a	89 5d fc	 mov	 DWORD PTR __$EHRec$[ebp+8], ebx
  0009d	3b cb		 cmp	 ecx, ebx
  0009f	74 0a		 je	 SHORT $LN15@CheckWaveF
  000a1	ff 15 00 00 00
	00		 call	 DWORD PTR __imp_??0ioWaveFile@@QAE@XZ
  000a7	8b f0		 mov	 esi, eax
  000a9	eb 02		 jmp	 SHORT $LN16@CheckWaveF
$LN15@CheckWaveF:
  000ab	33 f6		 xor	 esi, esi
$LN16@CheckWaveF:
  000ad	83 4d fc ff	 or	 DWORD PTR __$EHRec$[ebp+8], -1

; 871  : 	if( !pWave )

  000b1	3b f3		 cmp	 esi, ebx

; 872  : 	{
; 873  : 		return false;

  000b3	74 97		 je	 SHORT $LN47@CheckWaveF

; 874  : 	}
; 875  : 
; 876  : 	HRESULT hr = pWave->Open( szFullPath );

  000b5	ff 75 08	 push	 DWORD PTR _szFullPath$[ebp]
  000b8	8b ce		 mov	 ecx, esi
  000ba	ff 15 00 00 00
	00		 call	 DWORD PTR __imp_?Open@ioWaveFile@@QAEJPBD@Z

; 877  : 	if( FAILED( hr ) )

  000c0	85 c0		 test	 eax, eax
  000c2	79 40		 jns	 SHORT $LN9@CheckWaveF

; 878  : 	{
; 879  : 		g_GUIMgr.SetMsgBox( MB_OK, NULL, STR(3) );

  000c4	53		 push	 ebx
  000c5	6a 03		 push	 3
$LN48@CheckWaveF:
  000c7	68 00 00 00 00	 push	 OFFSET ??_C@_00CNPNBAHC@?$AA@
  000cc	68 00 00 00 00	 push	 OFFSET ??_C@_0CA@DBCPACHA@ioCustomSoundMgr?3?3CheckWaveFile?$AA@
  000d1	ff 15 00 00 00
	00		 call	 DWORD PTR __imp_?GetSingleton@ioStringManager@@SAAAV1@XZ
  000d7	8b c8		 mov	 ecx, eax
  000d9	ff 15 00 00 00
	00		 call	 DWORD PTR __imp_?GetString@ioStringManager@@QAEPADPBD0HW4FileNamePrefix@1@@Z
  000df	50		 push	 eax
  000e0	53		 push	 ebx
  000e1	53		 push	 ebx
  000e2	e8 00 00 00 00	 call	 ?GetSingleton@ioSP2GUIManager@@SAAAV1@XZ ; ioSP2GUIManager::GetSingleton
  000e7	50		 push	 eax
  000e8	e8 00 00 00 00	 call	 ?SetMsgBox@ioSP2GUIManager@@QAAXHPAVioWnd@@PBDZZ ; ioSP2GUIManager::SetMsgBox
  000ed	83 c4 10	 add	 esp, 16			; 00000010H

; 880  : 		SAFEDELETE( pWave );

  000f0	8b ce		 mov	 ecx, esi
  000f2	ff 15 00 00 00
	00		 call	 DWORD PTR __imp_??1ioWaveFile@@QAE@XZ
  000f8	56		 push	 esi
  000f9	e8 00 00 00 00	 call	 ??3@YAXPAX@Z		; operator delete
  000fe	59		 pop	 ecx

; 881  : 		return false;

  000ff	e9 48 ff ff ff	 jmp	 $LN47@CheckWaveF
$LN9@CheckWaveF:

; 882  : 	}
; 883  : 	WAVEFORMATEX *pwfx =  pWave->GetFormat();

  00104	8b 06		 mov	 eax, DWORD PTR [esi]

; 884  : 	if( !pwfx )

  00106	3b c3		 cmp	 eax, ebx
  00108	75 05		 jne	 SHORT $LN7@CheckWaveF

; 885  : 	{
; 886  : 		g_GUIMgr.SetMsgBox( MB_OK, NULL, STR(4) );

  0010a	53		 push	 ebx
  0010b	6a 04		 push	 4

; 887  : 		SAFEDELETE( pWave );
; 888  : 		return false;

  0010d	eb b8		 jmp	 SHORT $LN48@CheckWaveF
$LN7@CheckWaveF:

; 889  : 	}
; 890  : 
; 891  : 	if( pwfx->wFormatTag != WAVE_FORMAT_PCM )

  0010f	66 83 38 01	 cmp	 WORD PTR [eax], 1
  00113	74 05		 je	 SHORT $LN5@CheckWaveF

; 892  : 	{
; 893  : 		g_GUIMgr.SetMsgBox( MB_OK, NULL, STR(5) );

  00115	53		 push	 ebx
  00116	6a 05		 push	 5

; 894  : 		SAFEDELETE( pWave );
; 895  : 		return false;

  00118	eb ad		 jmp	 SHORT $LN48@CheckWaveF
$LN5@CheckWaveF:

; 896  : 	}
; 897  : 
; 898  : 	DWORD dwBytePerSec = pwfx->nSamplesPerSec * ( pwfx->wBitsPerSample/8 ) * pwfx->nChannels; // /8은 비트를 바이트로 변경하기 위해
; 899  : 	DWORD dwPlayLength = iSize/dwBytePerSec;
; 900  : 	if( dwPlayLength > m_dwMaxPlayLength )

  0011a	8b 4f 30	 mov	 ecx, DWORD PTR [edi+48]
  0011d	0f b7 78 0e	 movzx	 edi, WORD PTR [eax+14]
  00121	0f b7 50 02	 movzx	 edx, WORD PTR [eax+2]
  00125	c1 ef 03	 shr	 edi, 3
  00128	0f af fa	 imul	 edi, edx
  0012b	0f af 78 04	 imul	 edi, DWORD PTR [eax+4]
  0012f	8b 45 f0	 mov	 eax, DWORD PTR _iSize$[ebp]
  00132	33 d2		 xor	 edx, edx
  00134	f7 f7		 div	 edi
  00136	3b c1		 cmp	 eax, ecx
  00138	76 41		 jbe	 SHORT $LN3@CheckWaveF

; 901  : 	{
; 902  : 		g_GUIMgr.SetMsgBox( MB_OK, NULL, STR(6), m_dwMaxPlayLength );

  0013a	51		 push	 ecx
  0013b	53		 push	 ebx
  0013c	6a 06		 push	 6
  0013e	68 00 00 00 00	 push	 OFFSET ??_C@_00CNPNBAHC@?$AA@
  00143	68 00 00 00 00	 push	 OFFSET ??_C@_0CA@DBCPACHA@ioCustomSoundMgr?3?3CheckWaveFile?$AA@
  00148	ff 15 00 00 00
	00		 call	 DWORD PTR __imp_?GetSingleton@ioStringManager@@SAAAV1@XZ
  0014e	8b c8		 mov	 ecx, eax
  00150	ff 15 00 00 00
	00		 call	 DWORD PTR __imp_?GetString@ioStringManager@@QAEPADPBD0HW4FileNamePrefix@1@@Z
  00156	50		 push	 eax
  00157	53		 push	 ebx
  00158	53		 push	 ebx
  00159	e8 00 00 00 00	 call	 ?GetSingleton@ioSP2GUIManager@@SAAAV1@XZ ; ioSP2GUIManager::GetSingleton
  0015e	8b c8		 mov	 ecx, eax
  00160	e8 00 00 00 00	 call	 ?SetMsgBox@ioSP2GUIManager@@QAEXHPAVioWnd@@PBDK@Z ; ioSP2GUIManager::SetMsgBox
$LN45@CheckWaveF:

; 903  : 		SAFEDELETE( pWave );

  00165	8b ce		 mov	 ecx, esi
  00167	ff 15 00 00 00
	00		 call	 DWORD PTR __imp_??1ioWaveFile@@QAE@XZ
  0016d	56		 push	 esi
  0016e	e8 00 00 00 00	 call	 ??3@YAXPAX@Z		; operator delete
  00173	59		 pop	 ecx

; 904  : 		return false;

  00174	8a c3		 mov	 al, bl
  00176	e9 d3 fe ff ff	 jmp	 $LN13@CheckWaveF
$LN3@CheckWaveF:
  0017b	b3 01		 mov	 bl, 1
  0017d	eb e6		 jmp	 SHORT $LN45@CheckWaveF
_TEXT	ENDS
;	COMDAT text$x
text$x	SEGMENT
__unwindfunclet$?CheckWaveFile@ioCustomSoundMgr@@QAE_NPBD@Z$0:
  00000	ff 75 ec	 push	 DWORD PTR $T511628[ebp]
  00003	e8 00 00 00 00	 call	 ??3@YAXPAX@Z		; operator delete
  00008	59		 pop	 ecx
  00009	c3		 ret	 0
__ehhandler$?CheckWaveFile@ioCustomSoundMgr@@QAE_NPBD@Z:
  0000a	8b 54 24 08	 mov	 edx, DWORD PTR [esp+8]
  0000e	8d 42 0c	 lea	 eax, DWORD PTR [edx+12]
  00011	8b 4a e8	 mov	 ecx, DWORD PTR [edx-24]
  00014	33 c8		 xor	 ecx, eax
  00016	e8 00 00 00 00	 call	 @__security_check_cookie@4
  0001b	b8 00 00 00 00	 mov	 eax, OFFSET __ehfuncinfo$?CheckWaveFile@ioCustomSoundMgr@@QAE_NPBD@Z
  00020	e9 00 00 00 00	 jmp	 ___CxxFrameHandler3
text$x	ENDS
?CheckWaveFile@ioCustomSoundMgr@@QAE_NPBD@Z ENDP	; ioCustomSoundMgr::CheckWaveFile
PUBLIC	??D?$_Vector_iterator@V?$_Vector_val@VioHashString@@V?$allocator@VioHashString@@@std@@@std@@@std@@QBEAAVioHashString@@XZ ; std::_Vector_iterator<std::_Vector_val<ioHashString,std::allocator<ioHashString> > >::operator*
; Function compile flags: /Ogsp
; File c:\program files (x86)\microsoft visual studio 10.0\vc\include\vector
;	COMDAT ??D?$_Vector_iterator@V?$_Vector_val@VioHashString@@V?$allocator@VioHashString@@@std@@@std@@@std@@QBEAAVioHashString@@XZ
_TEXT	SEGMENT
??D?$_Vector_iterator@V?$_Vector_val@VioHashString@@V?$allocator@VioHashString@@@std@@@std@@@std@@QBEAAVioHashString@@XZ PROC ; std::_Vector_iterator<std::_Vector_val<ioHashString,std::allocator<ioHashString> > >::operator*, COMDAT
; _this$ = ecx

; 322  : 		return ((reference)**(_Mybase *)this);

  00000	8b 01		 mov	 eax, DWORD PTR [ecx]

; 323  : 		}

  00002	c3		 ret	 0
??D?$_Vector_iterator@V?$_Vector_val@VioHashString@@V?$allocator@VioHashString@@@std@@@std@@@std@@QBEAAVioHashString@@XZ ENDP ; std::_Vector_iterator<std::_Vector_val<ioHashString,std::allocator<ioHashString> > >::operator*
_TEXT	ENDS
PUBLIC	??E?$_Vector_iterator@V?$_Vector_val@VioHashString@@V?$allocator@VioHashString@@@std@@@std@@@std@@QAEAAV01@XZ ; std::_Vector_iterator<std::_Vector_val<ioHashString,std::allocator<ioHashString> > >::operator++
; Function compile flags: /Ogsp
;	COMDAT ??E?$_Vector_iterator@V?$_Vector_val@VioHashString@@V?$allocator@VioHashString@@@std@@@std@@@std@@QAEAAV01@XZ
_TEXT	SEGMENT
??E?$_Vector_iterator@V?$_Vector_val@VioHashString@@V?$allocator@VioHashString@@@std@@@std@@@std@@QAEAAV01@XZ PROC ; std::_Vector_iterator<std::_Vector_val<ioHashString,std::allocator<ioHashString> > >::operator++, COMDAT
; _this$ = ecx

; 331  : 		{	// preincrement

  00000	8b c1		 mov	 eax, ecx

; 332  : 		++*(_Mybase *)this;

  00002	83 00 10	 add	 DWORD PTR [eax], 16	; 00000010H

; 333  : 		return (*this);
; 334  : 		}

  00005	c3		 ret	 0
??E?$_Vector_iterator@V?$_Vector_val@VioHashString@@V?$allocator@VioHashString@@@std@@@std@@@std@@QAEAAV01@XZ ENDP ; std::_Vector_iterator<std::_Vector_val<ioHashString,std::allocator<ioHashString> > >::operator++
_TEXT	ENDS
PUBLIC	??D?$_Vector_iterator@V?$_Vector_val@UtagNetworkInfo@CustomSoundData@@V?$allocator@UtagNetworkInfo@CustomSoundData@@@std@@@std@@@std@@QBEAAUtagNetworkInfo@CustomSoundData@@XZ ; std::_Vector_iterator<std::_Vector_val<CustomSoundData::tagNetworkInfo,std::allocator<CustomSoundData::tagNetworkInfo> > >::operator*
; Function compile flags: /Ogsp
;	COMDAT ??D?$_Vector_iterator@V?$_Vector_val@UtagNetworkInfo@CustomSoundData@@V?$allocator@UtagNetworkInfo@CustomSoundData@@@std@@@std@@@std@@QBEAAUtagNetworkInfo@CustomSoundData@@XZ
_TEXT	SEGMENT
??D?$_Vector_iterator@V?$_Vector_val@UtagNetworkInfo@CustomSoundData@@V?$allocator@UtagNetworkInfo@CustomSoundData@@@std@@@std@@@std@@QBEAAUtagNetworkInfo@CustomSoundData@@XZ PROC ; std::_Vector_iterator<std::_Vector_val<CustomSoundData::tagNetworkInfo,std::allocator<CustomSoundData::tagNetworkInfo> > >::operator*, COMDAT
; _this$ = ecx

; 322  : 		return ((reference)**(_Mybase *)this);

  00000	8b 01		 mov	 eax, DWORD PTR [ecx]

; 323  : 		}

  00002	c3		 ret	 0
??D?$_Vector_iterator@V?$_Vector_val@UtagNetworkInfo@CustomSoundData@@V?$allocator@UtagNetworkInfo@CustomSoundData@@@std@@@std@@@std@@QBEAAUtagNetworkInfo@CustomSoundData@@XZ ENDP ; std::_Vector_iterator<std::_Vector_val<CustomSoundData::tagNetworkInfo,std::allocator<CustomSoundData::tagNetworkInfo> > >::operator*
_TEXT	ENDS
PUBLIC	??E?$_Vector_iterator@V?$_Vector_val@UtagNetworkInfo@CustomSoundData@@V?$allocator@UtagNetworkInfo@CustomSoundData@@@std@@@std@@@std@@QAEAAV01@XZ ; std::_Vector_iterator<std::_Vector_val<CustomSoundData::tagNetworkInfo,std::allocator<CustomSoundData::tagNetworkInfo> > >::operator++
; Function compile flags: /Ogsp
;	COMDAT ??E?$_Vector_iterator@V?$_Vector_val@UtagNetworkInfo@CustomSoundData@@V?$allocator@UtagNetworkInfo@CustomSoundData@@@std@@@std@@@std@@QAEAAV01@XZ
_TEXT	SEGMENT
??E?$_Vector_iterator@V?$_Vector_val@UtagNetworkInfo@CustomSoundData@@V?$allocator@UtagNetworkInfo@CustomSoundData@@@std@@@std@@@std@@QAEAAV01@XZ PROC ; std::_Vector_iterator<std::_Vector_val<CustomSoundData::tagNetworkInfo,std::allocator<CustomSoundData::tagNetworkInfo> > >::operator++, COMDAT
; _this$ = ecx

; 331  : 		{	// preincrement

  00000	8b c1		 mov	 eax, ecx

; 332  : 		++*(_Mybase *)this;

  00002	83 00 08	 add	 DWORD PTR [eax], 8

; 333  : 		return (*this);
; 334  : 		}

  00005	c3		 ret	 0
??E?$_Vector_iterator@V?$_Vector_val@UtagNetworkInfo@CustomSoundData@@V?$allocator@UtagNetworkInfo@CustomSoundData@@@std@@@std@@@std@@QAEAAV01@XZ ENDP ; std::_Vector_iterator<std::_Vector_val<CustomSoundData::tagNetworkInfo,std::allocator<CustomSoundData::tagNetworkInfo> > >::operator++
_TEXT	ENDS
PUBLIC	??D?$_Vector_iterator@V?$_Vector_val@PAUtagCustomSoundInfo@ioCustomSoundMgr@@V?$allocator@PAUtagCustomSoundInfo@ioCustomSoundMgr@@@std@@@std@@@std@@QBEAAPAUtagCustomSoundInfo@ioCustomSoundMgr@@XZ ; std::_Vector_iterator<std::_Vector_val<ioCustomSoundMgr::tagCustomSoundInfo *,std::allocator<ioCustomSoundMgr::tagCustomSoundInfo *> > >::operator*
; Function compile flags: /Ogsp
;	COMDAT ??D?$_Vector_iterator@V?$_Vector_val@PAUtagCustomSoundInfo@ioCustomSoundMgr@@V?$allocator@PAUtagCustomSoundInfo@ioCustomSoundMgr@@@std@@@std@@@std@@QBEAAPAUtagCustomSoundInfo@ioCustomSoundMgr@@XZ
_TEXT	SEGMENT
??D?$_Vector_iterator@V?$_Vector_val@PAUtagCustomSoundInfo@ioCustomSoundMgr@@V?$allocator@PAUtagCustomSoundInfo@ioCustomSoundMgr@@@std@@@std@@@std@@QBEAAPAUtagCustomSoundInfo@ioCustomSoundMgr@@XZ PROC ; std::_Vector_iterator<std::_Vector_val<ioCustomSoundMgr::tagCustomSoundInfo *,std::allocator<ioCustomSoundMgr::tagCustomSoundInfo *> > >::operator*, COMDAT
; _this$ = ecx

; 322  : 		return ((reference)**(_Mybase *)this);

  00000	8b 01		 mov	 eax, DWORD PTR [ecx]

; 323  : 		}

  00002	c3		 ret	 0
??D?$_Vector_iterator@V?$_Vector_val@PAUtagCustomSoundInfo@ioCustomSoundMgr@@V?$allocator@PAUtagCustomSoundInfo@ioCustomSoundMgr@@@std@@@std@@@std@@QBEAAPAUtagCustomSoundInfo@ioCustomSoundMgr@@XZ ENDP ; std::_Vector_iterator<std::_Vector_val<ioCustomSoundMgr::tagCustomSoundInfo *,std::allocator<ioCustomSoundMgr::tagCustomSoundInfo *> > >::operator*
_TEXT	ENDS
PUBLIC	??E?$_Vector_iterator@V?$_Vector_val@PAUtagCustomSoundInfo@ioCustomSoundMgr@@V?$allocator@PAUtagCustomSoundInfo@ioCustomSoundMgr@@@std@@@std@@@std@@QAEAAV01@XZ ; std::_Vector_iterator<std::_Vector_val<ioCustomSoundMgr::tagCustomSoundInfo *,std::allocator<ioCustomSoundMgr::tagCustomSoundInfo *> > >::operator++
; Function compile flags: /Ogsp
;	COMDAT ??E?$_Vector_iterator@V?$_Vector_val@PAUtagCustomSoundInfo@ioCustomSoundMgr@@V?$allocator@PAUtagCustomSoundInfo@ioCustomSoundMgr@@@std@@@std@@@std@@QAEAAV01@XZ
_TEXT	SEGMENT
??E?$_Vector_iterator@V?$_Vector_val@PAUtagCustomSoundInfo@ioCustomSoundMgr@@V?$allocator@PAUtagCustomSoundInfo@ioCustomSoundMgr@@@std@@@std@@@std@@QAEAAV01@XZ PROC ; std::_Vector_iterator<std::_Vector_val<ioCustomSoundMgr::tagCustomSoundInfo *,std::allocator<ioCustomSoundMgr::tagCustomSoundInfo *> > >::operator++, COMDAT
; _this$ = ecx

; 331  : 		{	// preincrement

  00000	8b c1		 mov	 eax, ecx

; 332  : 		++*(_Mybase *)this;

  00002	83 00 04	 add	 DWORD PTR [eax], 4

; 333  : 		return (*this);
; 334  : 		}

  00005	c3		 ret	 0
??E?$_Vector_iterator@V?$_Vector_val@PAUtagCustomSoundInfo@ioCustomSoundMgr@@V?$allocator@PAUtagCustomSoundInfo@ioCustomSoundMgr@@@std@@@std@@@std@@QAEAAV01@XZ ENDP ; std::_Vector_iterator<std::_Vector_val<ioCustomSoundMgr::tagCustomSoundInfo *,std::allocator<ioCustomSoundMgr::tagCustomSoundInfo *> > >::operator++
_TEXT	ENDS
PUBLIC	??0?$_Vector_val@UtagNetworkInfo@CustomSoundData@@V?$allocator@UtagNetworkInfo@CustomSoundData@@@std@@@std@@QAE@V?$allocator@UtagNetworkInfo@CustomSoundData@@@1@@Z ; std::_Vector_val<CustomSoundData::tagNetworkInfo,std::allocator<CustomSoundData::tagNetworkInfo> >::_Vector_val<CustomSoundData::tagNetworkInfo,std::allocator<CustomSoundData::tagNetworkInfo> >
; Function compile flags: /Ogsp
;	COMDAT ??0?$_Vector_val@UtagNetworkInfo@CustomSoundData@@V?$allocator@UtagNetworkInfo@CustomSoundData@@@std@@@std@@QAE@V?$allocator@UtagNetworkInfo@CustomSoundData@@@1@@Z
_TEXT	SEGMENT
__Al$ = 8						; size = 1
??0?$_Vector_val@UtagNetworkInfo@CustomSoundData@@V?$allocator@UtagNetworkInfo@CustomSoundData@@@std@@@std@@QAE@V?$allocator@UtagNetworkInfo@CustomSoundData@@@1@@Z PROC ; std::_Vector_val<CustomSoundData::tagNetworkInfo,std::allocator<CustomSoundData::tagNetworkInfo> >::_Vector_val<CustomSoundData::tagNetworkInfo,std::allocator<CustomSoundData::tagNetworkInfo> >, COMDAT
; _this$ = ecx

; 426  : 		{	// construct allocator from _Al

  00000	8b c1		 mov	 eax, ecx

; 427  : 		_Myfirst = 0;

  00002	33 c9		 xor	 ecx, ecx
  00004	89 08		 mov	 DWORD PTR [eax], ecx

; 428  : 		_Mylast = 0;

  00006	89 48 04	 mov	 DWORD PTR [eax+4], ecx

; 429  : 		_Myend = 0;

  00009	89 48 08	 mov	 DWORD PTR [eax+8], ecx

; 430  : 		}

  0000c	c2 04 00	 ret	 4
??0?$_Vector_val@UtagNetworkInfo@CustomSoundData@@V?$allocator@UtagNetworkInfo@CustomSoundData@@@std@@@std@@QAE@V?$allocator@UtagNetworkInfo@CustomSoundData@@@1@@Z ENDP ; std::_Vector_val<CustomSoundData::tagNetworkInfo,std::allocator<CustomSoundData::tagNetworkInfo> >::_Vector_val<CustomSoundData::tagNetworkInfo,std::allocator<CustomSoundData::tagNetworkInfo> >
_TEXT	ENDS
PUBLIC	?_Key@?$_Tree_val@V?$_Tmap_traits@KPAVCustomSoundData@@U?$less@K@std@@V?$allocator@U?$pair@$$CBKPAVCustomSoundData@@@std@@@3@$0A@@std@@@std@@SAAAKPAU_Node@?$_Tree_nod@V?$_Tmap_traits@KPAVCustomSoundData@@U?$less@K@std@@V?$allocator@U?$pair@$$CBKPAVCustomSoundData@@@std@@@3@$0A@@std@@@2@@Z ; std::_Tree_val<std::_Tmap_traits<unsigned long,CustomSoundData *,std::less<unsigned long>,std::allocator<std::pair<unsigned long const ,CustomSoundData *> >,0> >::_Key
; Function compile flags: /Ogsp
; File c:\program files (x86)\microsoft visual studio 10.0\vc\include\xtree
;	COMDAT ?_Key@?$_Tree_val@V?$_Tmap_traits@KPAVCustomSoundData@@U?$less@K@std@@V?$allocator@U?$pair@$$CBKPAVCustomSoundData@@@std@@@3@$0A@@std@@@std@@SAAAKPAU_Node@?$_Tree_nod@V?$_Tmap_traits@KPAVCustomSoundData@@U?$less@K@std@@V?$allocator@U?$pair@$$CBKPAVCustomSoundData@@@std@@@3@$0A@@std@@@2@@Z
_TEXT	SEGMENT
__Pnode$ = 8						; size = 4
?_Key@?$_Tree_val@V?$_Tmap_traits@KPAVCustomSoundData@@U?$less@K@std@@V?$allocator@U?$pair@$$CBKPAVCustomSoundData@@@std@@@3@$0A@@std@@@std@@SAAAKPAU_Node@?$_Tree_nod@V?$_Tmap_traits@KPAVCustomSoundData@@U?$less@K@std@@V?$allocator@U?$pair@$$CBKPAVCustomSoundData@@@std@@@3@$0A@@std@@@2@@Z PROC ; std::_Tree_val<std::_Tmap_traits<unsigned long,CustomSoundData *,std::less<unsigned long>,std::allocator<std::pair<unsigned long const ,CustomSoundData *> >,0> >::_Key, COMDAT

; 616  : 		{	// return reference to key in node

  00000	55		 push	 ebp
  00001	8b ec		 mov	 ebp, esp

; 617  : 		return ((key_type&)_Traits::_Kfn(_Myval(_Pnode)));

  00003	8b 45 08	 mov	 eax, DWORD PTR __Pnode$[ebp]
  00006	83 c0 0c	 add	 eax, 12			; 0000000cH

; 618  : 		}

  00009	5d		 pop	 ebp
  0000a	c3		 ret	 0
?_Key@?$_Tree_val@V?$_Tmap_traits@KPAVCustomSoundData@@U?$less@K@std@@V?$allocator@U?$pair@$$CBKPAVCustomSoundData@@@std@@@3@$0A@@std@@@std@@SAAAKPAU_Node@?$_Tree_nod@V?$_Tmap_traits@KPAVCustomSoundData@@U?$less@K@std@@V?$allocator@U?$pair@$$CBKPAVCustomSoundData@@@std@@@3@$0A@@std@@@2@@Z ENDP ; std::_Tree_val<std::_Tmap_traits<unsigned long,CustomSoundData *,std::less<unsigned long>,std::allocator<std::pair<unsigned long const ,CustomSoundData *> >,0> >::_Key
_TEXT	ENDS
PUBLIC	??0?$_Vector_val@PAUtagCustomSoundInfo@ioCustomSoundMgr@@V?$allocator@PAUtagCustomSoundInfo@ioCustomSoundMgr@@@std@@@std@@QAE@V?$allocator@PAUtagCustomSoundInfo@ioCustomSoundMgr@@@1@@Z ; std::_Vector_val<ioCustomSoundMgr::tagCustomSoundInfo *,std::allocator<ioCustomSoundMgr::tagCustomSoundInfo *> >::_Vector_val<ioCustomSoundMgr::tagCustomSoundInfo *,std::allocator<ioCustomSoundMgr::tagCustomSoundInfo *> >
; Function compile flags: /Ogsp
; File c:\program files (x86)\microsoft visual studio 10.0\vc\include\vector
;	COMDAT ??0?$_Vector_val@PAUtagCustomSoundInfo@ioCustomSoundMgr@@V?$allocator@PAUtagCustomSoundInfo@ioCustomSoundMgr@@@std@@@std@@QAE@V?$allocator@PAUtagCustomSoundInfo@ioCustomSoundMgr@@@1@@Z
_TEXT	SEGMENT
__Al$ = 8						; size = 1
??0?$_Vector_val@PAUtagCustomSoundInfo@ioCustomSoundMgr@@V?$allocator@PAUtagCustomSoundInfo@ioCustomSoundMgr@@@std@@@std@@QAE@V?$allocator@PAUtagCustomSoundInfo@ioCustomSoundMgr@@@1@@Z PROC ; std::_Vector_val<ioCustomSoundMgr::tagCustomSoundInfo *,std::allocator<ioCustomSoundMgr::tagCustomSoundInfo *> >::_Vector_val<ioCustomSoundMgr::tagCustomSoundInfo *,std::allocator<ioCustomSoundMgr::tagCustomSoundInfo *> >, COMDAT
; _this$ = ecx

; 426  : 		{	// construct allocator from _Al

  00000	8b c1		 mov	 eax, ecx

; 427  : 		_Myfirst = 0;

  00002	33 c9		 xor	 ecx, ecx
  00004	89 08		 mov	 DWORD PTR [eax], ecx

; 428  : 		_Mylast = 0;

  00006	89 48 04	 mov	 DWORD PTR [eax+4], ecx

; 429  : 		_Myend = 0;

  00009	89 48 08	 mov	 DWORD PTR [eax+8], ecx

; 430  : 		}

  0000c	c2 04 00	 ret	 4
??0?$_Vector_val@PAUtagCustomSoundInfo@ioCustomSoundMgr@@V?$allocator@PAUtagCustomSoundInfo@ioCustomSoundMgr@@@std@@@std@@QAE@V?$allocator@PAUtagCustomSoundInfo@ioCustomSoundMgr@@@1@@Z ENDP ; std::_Vector_val<ioCustomSoundMgr::tagCustomSoundInfo *,std::allocator<ioCustomSoundMgr::tagCustomSoundInfo *> >::_Vector_val<ioCustomSoundMgr::tagCustomSoundInfo *,std::allocator<ioCustomSoundMgr::tagCustomSoundInfo *> >
_TEXT	ENDS
PUBLIC	??0?$_Vector_iterator@V?$_Vector_val@UtagNetworkInfo@CustomSoundData@@V?$allocator@UtagNetworkInfo@CustomSoundData@@@std@@@std@@@std@@QAE@PAUtagNetworkInfo@CustomSoundData@@PBU_Container_base0@1@@Z ; std::_Vector_iterator<std::_Vector_val<CustomSoundData::tagNetworkInfo,std::allocator<CustomSoundData::tagNetworkInfo> > >::_Vector_iterator<std::_Vector_val<CustomSoundData::tagNetworkInfo,std::allocator<CustomSoundData::tagNetworkInfo> > >
; Function compile flags: /Ogsp
;	COMDAT ??0?$_Vector_iterator@V?$_Vector_val@UtagNetworkInfo@CustomSoundData@@V?$allocator@UtagNetworkInfo@CustomSoundData@@@std@@@std@@@std@@QAE@PAUtagNetworkInfo@CustomSoundData@@PBU_Container_base0@1@@Z
_TEXT	SEGMENT
__Parg$ = 8						; size = 4
__Pvector$ = 12						; size = 4
??0?$_Vector_iterator@V?$_Vector_val@UtagNetworkInfo@CustomSoundData@@V?$allocator@UtagNetworkInfo@CustomSoundData@@@std@@@std@@@std@@QAE@PAUtagNetworkInfo@CustomSoundData@@PBU_Container_base0@1@@Z PROC ; std::_Vector_iterator<std::_Vector_val<CustomSoundData::tagNetworkInfo,std::allocator<CustomSoundData::tagNetworkInfo> > >::_Vector_iterator<std::_Vector_val<CustomSoundData::tagNetworkInfo,std::allocator<CustomSoundData::tagNetworkInfo> > >, COMDAT
; _this$ = ecx

; 304  : 		{	// construct with pointer _Parg

  00000	55		 push	 ebp
  00001	8b ec		 mov	 ebp, esp
  00003	8b c1		 mov	 eax, ecx
  00005	8b 4d 08	 mov	 ecx, DWORD PTR __Parg$[ebp]
  00008	89 08		 mov	 DWORD PTR [eax], ecx

; 305  : 		}

  0000a	5d		 pop	 ebp
  0000b	c2 08 00	 ret	 8
??0?$_Vector_iterator@V?$_Vector_val@UtagNetworkInfo@CustomSoundData@@V?$allocator@UtagNetworkInfo@CustomSoundData@@@std@@@std@@@std@@QAE@PAUtagNetworkInfo@CustomSoundData@@PBU_Container_base0@1@@Z ENDP ; std::_Vector_iterator<std::_Vector_val<CustomSoundData::tagNetworkInfo,std::allocator<CustomSoundData::tagNetworkInfo> > >::_Vector_iterator<std::_Vector_val<CustomSoundData::tagNetworkInfo,std::allocator<CustomSoundData::tagNetworkInfo> > >
_TEXT	ENDS
PUBLIC	??8?$_Vector_const_iterator@V?$_Vector_val@UtagNetworkInfo@CustomSoundData@@V?$allocator@UtagNetworkInfo@CustomSoundData@@@std@@@std@@@std@@QBE_NABV01@@Z ; std::_Vector_const_iterator<std::_Vector_val<CustomSoundData::tagNetworkInfo,std::allocator<CustomSoundData::tagNetworkInfo> > >::operator==
; Function compile flags: /Ogsp
;	COMDAT ??8?$_Vector_const_iterator@V?$_Vector_val@UtagNetworkInfo@CustomSoundData@@V?$allocator@UtagNetworkInfo@CustomSoundData@@@std@@@std@@@std@@QBE_NABV01@@Z
_TEXT	SEGMENT
__Right$ = 8						; size = 4
??8?$_Vector_const_iterator@V?$_Vector_val@UtagNetworkInfo@CustomSoundData@@V?$allocator@UtagNetworkInfo@CustomSoundData@@@std@@@std@@@std@@QBE_NABV01@@Z PROC ; std::_Vector_const_iterator<std::_Vector_val<CustomSoundData::tagNetworkInfo,std::allocator<CustomSoundData::tagNetworkInfo> > >::operator==, COMDAT
; _this$ = ecx

; 201  : 		{	// test for iterator equality

  00000	55		 push	 ebp
  00001	8b ec		 mov	 ebp, esp

; 202  : 		_Compat(_Right);
; 203  : 		return (this->_Ptr == _Right._Ptr);

  00003	8b 01		 mov	 eax, DWORD PTR [ecx]
  00005	8b 4d 08	 mov	 ecx, DWORD PTR __Right$[ebp]
  00008	2b 01		 sub	 eax, DWORD PTR [ecx]
  0000a	f7 d8		 neg	 eax
  0000c	1b c0		 sbb	 eax, eax
  0000e	40		 inc	 eax

; 204  : 		}

  0000f	5d		 pop	 ebp
  00010	c2 04 00	 ret	 4
??8?$_Vector_const_iterator@V?$_Vector_val@UtagNetworkInfo@CustomSoundData@@V?$allocator@UtagNetworkInfo@CustomSoundData@@@std@@@std@@@std@@QBE_NABV01@@Z ENDP ; std::_Vector_const_iterator<std::_Vector_val<CustomSoundData::tagNetworkInfo,std::allocator<CustomSoundData::tagNetworkInfo> > >::operator==
_TEXT	ENDS
PUBLIC	??0?$_Vector_iterator@V?$_Vector_val@PAUtagCustomSoundInfo@ioCustomSoundMgr@@V?$allocator@PAUtagCustomSoundInfo@ioCustomSoundMgr@@@std@@@std@@@std@@QAE@PAPAUtagCustomSoundInfo@ioCustomSoundMgr@@PBU_Container_base0@1@@Z ; std::_Vector_iterator<std::_Vector_val<ioCustomSoundMgr::tagCustomSoundInfo *,std::allocator<ioCustomSoundMgr::tagCustomSoundInfo *> > >::_Vector_iterator<std::_Vector_val<ioCustomSoundMgr::tagCustomSoundInfo *,std::allocator<ioCustomSoundMgr::tagCustomSoundInfo *> > >
; Function compile flags: /Ogsp
;	COMDAT ??0?$_Vector_iterator@V?$_Vector_val@PAUtagCustomSoundInfo@ioCustomSoundMgr@@V?$allocator@PAUtagCustomSoundInfo@ioCustomSoundMgr@@@std@@@std@@@std@@QAE@PAPAUtagCustomSoundInfo@ioCustomSoundMgr@@PBU_Container_base0@1@@Z
_TEXT	SEGMENT
__Parg$ = 8						; size = 4
__Pvector$ = 12						; size = 4
??0?$_Vector_iterator@V?$_Vector_val@PAUtagCustomSoundInfo@ioCustomSoundMgr@@V?$allocator@PAUtagCustomSoundInfo@ioCustomSoundMgr@@@std@@@std@@@std@@QAE@PAPAUtagCustomSoundInfo@ioCustomSoundMgr@@PBU_Container_base0@1@@Z PROC ; std::_Vector_iterator<std::_Vector_val<ioCustomSoundMgr::tagCustomSoundInfo *,std::allocator<ioCustomSoundMgr::tagCustomSoundInfo *> > >::_Vector_iterator<std::_Vector_val<ioCustomSoundMgr::tagCustomSoundInfo *,std::allocator<ioCustomSoundMgr::tagCustomSoundInfo *> > >, COMDAT
; _this$ = ecx

; 304  : 		{	// construct with pointer _Parg

  00000	55		 push	 ebp
  00001	8b ec		 mov	 ebp, esp
  00003	8b c1		 mov	 eax, ecx
  00005	8b 4d 08	 mov	 ecx, DWORD PTR __Parg$[ebp]
  00008	89 08		 mov	 DWORD PTR [eax], ecx

; 305  : 		}

  0000a	5d		 pop	 ebp
  0000b	c2 08 00	 ret	 8
??0?$_Vector_iterator@V?$_Vector_val@PAUtagCustomSoundInfo@ioCustomSoundMgr@@V?$allocator@PAUtagCustomSoundInfo@ioCustomSoundMgr@@@std@@@std@@@std@@QAE@PAPAUtagCustomSoundInfo@ioCustomSoundMgr@@PBU_Container_base0@1@@Z ENDP ; std::_Vector_iterator<std::_Vector_val<ioCustomSoundMgr::tagCustomSoundInfo *,std::allocator<ioCustomSoundMgr::tagCustomSoundInfo *> > >::_Vector_iterator<std::_Vector_val<ioCustomSoundMgr::tagCustomSoundInfo *,std::allocator<ioCustomSoundMgr::tagCustomSoundInfo *> > >
_TEXT	ENDS
PUBLIC	??8?$_Vector_const_iterator@V?$_Vector_val@PAUtagCustomSoundInfo@ioCustomSoundMgr@@V?$allocator@PAUtagCustomSoundInfo@ioCustomSoundMgr@@@std@@@std@@@std@@QBE_NABV01@@Z ; std::_Vector_const_iterator<std::_Vector_val<ioCustomSoundMgr::tagCustomSoundInfo *,std::allocator<ioCustomSoundMgr::tagCustomSoundInfo *> > >::operator==
; Function compile flags: /Ogsp
;	COMDAT ??8?$_Vector_const_iterator@V?$_Vector_val@PAUtagCustomSoundInfo@ioCustomSoundMgr@@V?$allocator@PAUtagCustomSoundInfo@ioCustomSoundMgr@@@std@@@std@@@std@@QBE_NABV01@@Z
_TEXT	SEGMENT
__Right$ = 8						; size = 4
??8?$_Vector_const_iterator@V?$_Vector_val@PAUtagCustomSoundInfo@ioCustomSoundMgr@@V?$allocator@PAUtagCustomSoundInfo@ioCustomSoundMgr@@@std@@@std@@@std@@QBE_NABV01@@Z PROC ; std::_Vector_const_iterator<std::_Vector_val<ioCustomSoundMgr::tagCustomSoundInfo *,std::allocator<ioCustomSoundMgr::tagCustomSoundInfo *> > >::operator==, COMDAT
; _this$ = ecx

; 201  : 		{	// test for iterator equality

  00000	55		 push	 ebp
  00001	8b ec		 mov	 ebp, esp

; 202  : 		_Compat(_Right);
; 203  : 		return (this->_Ptr == _Right._Ptr);

  00003	8b 01		 mov	 eax, DWORD PTR [ecx]
  00005	8b 4d 08	 mov	 ecx, DWORD PTR __Right$[ebp]
  00008	2b 01		 sub	 eax, DWORD PTR [ecx]
  0000a	f7 d8		 neg	 eax
  0000c	1b c0		 sbb	 eax, eax
  0000e	40		 inc	 eax

; 204  : 		}

  0000f	5d		 pop	 ebp
  00010	c2 04 00	 ret	 4
??8?$_Vector_const_iterator@V?$_Vector_val@PAUtagCustomSoundInfo@ioCustomSoundMgr@@V?$allocator@PAUtagCustomSoundInfo@ioCustomSoundMgr@@@std@@@std@@@std@@QBE_NABV01@@Z ENDP ; std::_Vector_const_iterator<std::_Vector_val<ioCustomSoundMgr::tagCustomSoundInfo *,std::allocator<ioCustomSoundMgr::tagCustomSoundInfo *> > >::operator==
_TEXT	ENDS
PUBLIC	?max_size@?$vector@UtagNetworkInfo@CustomSoundData@@V?$allocator@UtagNetworkInfo@CustomSoundData@@@std@@@std@@QBEIXZ ; std::vector<CustomSoundData::tagNetworkInfo,std::allocator<CustomSoundData::tagNetworkInfo> >::max_size
; Function compile flags: /Ogsp
;	COMDAT ?max_size@?$vector@UtagNetworkInfo@CustomSoundData@@V?$allocator@UtagNetworkInfo@CustomSoundData@@@std@@@std@@QBEIXZ
_TEXT	SEGMENT
?max_size@?$vector@UtagNetworkInfo@CustomSoundData@@V?$allocator@UtagNetworkInfo@CustomSoundData@@@std@@@std@@QBEIXZ PROC ; std::vector<CustomSoundData::tagNetworkInfo,std::allocator<CustomSoundData::tagNetworkInfo> >::max_size, COMDAT
; _this$ = ecx

; 884  : 		return (this->_Alval.max_size());

  00000	b8 ff ff ff 1f	 mov	 eax, 536870911		; 1fffffffH

; 885  : 		}

  00005	c3		 ret	 0
?max_size@?$vector@UtagNetworkInfo@CustomSoundData@@V?$allocator@UtagNetworkInfo@CustomSoundData@@@std@@@std@@QBEIXZ ENDP ; std::vector<CustomSoundData::tagNetworkInfo,std::allocator<CustomSoundData::tagNetworkInfo> >::max_size
_TEXT	ENDS
PUBLIC	?_Grow_to@?$vector@UtagNetworkInfo@CustomSoundData@@V?$allocator@UtagNetworkInfo@CustomSoundData@@@std@@@std@@IBEII@Z ; std::vector<CustomSoundData::tagNetworkInfo,std::allocator<CustomSoundData::tagNetworkInfo> >::_Grow_to
; Function compile flags: /Ogsp
;	COMDAT ?_Grow_to@?$vector@UtagNetworkInfo@CustomSoundData@@V?$allocator@UtagNetworkInfo@CustomSoundData@@@std@@@std@@IBEII@Z
_TEXT	SEGMENT
__Count$ = 8						; size = 4
?_Grow_to@?$vector@UtagNetworkInfo@CustomSoundData@@V?$allocator@UtagNetworkInfo@CustomSoundData@@@std@@@std@@IBEII@Z PROC ; std::vector<CustomSoundData::tagNetworkInfo,std::allocator<CustomSoundData::tagNetworkInfo> >::_Grow_to, COMDAT
; _this$ = ecx

; 1274 : 		{	// grow by 50% or at least to _Count

  00000	55		 push	 ebp
  00001	8b ec		 mov	 ebp, esp

; 1275 : 		size_type _Capacity = capacity();

  00003	8b 41 08	 mov	 eax, DWORD PTR [ecx+8]
  00006	2b 01		 sub	 eax, DWORD PTR [ecx]

; 1276 : 
; 1277 : 		_Capacity = max_size() - _Capacity / 2 < _Capacity
; 1278 : 			? 0 : _Capacity + _Capacity / 2;	// try to grow by 50%

  00008	ba ff ff ff 1f	 mov	 edx, 536870911		; 1fffffffH
  0000d	c1 f8 03	 sar	 eax, 3
  00010	8b c8		 mov	 ecx, eax
  00012	d1 e9		 shr	 ecx, 1
  00014	2b d1		 sub	 edx, ecx
  00016	3b d0		 cmp	 edx, eax
  00018	73 04		 jae	 SHORT $LN4@Grow_to
  0001a	33 c0		 xor	 eax, eax
  0001c	eb 02		 jmp	 SHORT $LN5@Grow_to
$LN4@Grow_to:
  0001e	03 c1		 add	 eax, ecx
$LN5@Grow_to:

; 1279 : 		if (_Capacity < _Count)

  00020	3b 45 08	 cmp	 eax, DWORD PTR __Count$[ebp]

; 1280 : 			_Capacity = _Count;

  00023	0f 42 45 08	 cmovb	 eax, DWORD PTR __Count$[ebp]

; 1281 : 		return (_Capacity);
; 1282 : 		}

  00027	5d		 pop	 ebp
  00028	c2 04 00	 ret	 4
?_Grow_to@?$vector@UtagNetworkInfo@CustomSoundData@@V?$allocator@UtagNetworkInfo@CustomSoundData@@@std@@@std@@IBEII@Z ENDP ; std::vector<CustomSoundData::tagNetworkInfo,std::allocator<CustomSoundData::tagNetworkInfo> >::_Grow_to
_TEXT	ENDS
PUBLIC	?_Lbound@?$_Tree@V?$_Tmap_traits@KPAVCustomSoundData@@U?$less@K@std@@V?$allocator@U?$pair@$$CBKPAVCustomSoundData@@@std@@@3@$0A@@std@@@std@@IAEPAU_Node@?$_Tree_nod@V?$_Tmap_traits@KPAVCustomSoundData@@U?$less@K@std@@V?$allocator@U?$pair@$$CBKPAVCustomSoundData@@@std@@@3@$0A@@std@@@2@ABK@Z ; std::_Tree<std::_Tmap_traits<unsigned long,CustomSoundData *,std::less<unsigned long>,std::allocator<std::pair<unsigned long const ,CustomSoundData *> >,0> >::_Lbound
; Function compile flags: /Ogsp
; File c:\program files (x86)\microsoft visual studio 10.0\vc\include\xtree
;	COMDAT ?_Lbound@?$_Tree@V?$_Tmap_traits@KPAVCustomSoundData@@U?$less@K@std@@V?$allocator@U?$pair@$$CBKPAVCustomSoundData@@@std@@@3@$0A@@std@@@std@@IAEPAU_Node@?$_Tree_nod@V?$_Tmap_traits@KPAVCustomSoundData@@U?$less@K@std@@V?$allocator@U?$pair@$$CBKPAVCustomSoundData@@@std@@@3@$0A@@std@@@2@ABK@Z
_TEXT	SEGMENT
__Keyval$ = 8						; size = 4
?_Lbound@?$_Tree@V?$_Tmap_traits@KPAVCustomSoundData@@U?$less@K@std@@V?$allocator@U?$pair@$$CBKPAVCustomSoundData@@@std@@@3@$0A@@std@@@std@@IAEPAU_Node@?$_Tree_nod@V?$_Tmap_traits@KPAVCustomSoundData@@U?$less@K@std@@V?$allocator@U?$pair@$$CBKPAVCustomSoundData@@@std@@@3@$0A@@std@@@2@ABK@Z PROC ; std::_Tree<std::_Tmap_traits<unsigned long,CustomSoundData *,std::less<unsigned long>,std::allocator<std::pair<unsigned long const ,CustomSoundData *> >,0> >::_Lbound, COMDAT
; _this$ = ecx

; 1741 : 		{	// find leftmost node not less than _Keyval

  00000	55		 push	 ebp
  00001	8b ec		 mov	 ebp, esp

; 1742 : 		_Nodeptr _Pnode = _Root();

  00003	8b 41 04	 mov	 eax, DWORD PTR [ecx+4]
  00006	8b 48 04	 mov	 ecx, DWORD PTR [eax+4]

; 1743 : 		_Nodeptr _Wherenode = this->_Myhead;	// end() if search fails
; 1744 : 
; 1745 : 		while (!this->_Isnil(_Pnode))

  00009	80 79 15 00	 cmp	 BYTE PTR [ecx+21], 0
  0000d	75 19		 jne	 SHORT $LN3@Lbound
  0000f	8b 55 08	 mov	 edx, DWORD PTR __Keyval$[ebp]
  00012	8b 12		 mov	 edx, DWORD PTR [edx]
$LL4@Lbound:

; 1746 : 			if (_DEBUG_LT_PRED(this->comp, this->_Key(_Pnode), _Keyval))

  00014	39 51 0c	 cmp	 DWORD PTR [ecx+12], edx
  00017	73 05		 jae	 SHORT $LN2@Lbound

; 1747 : 				_Pnode = this->_Right(_Pnode);	// descend right subtree

  00019	8b 49 08	 mov	 ecx, DWORD PTR [ecx+8]

; 1748 : 			else

  0001c	eb 04		 jmp	 SHORT $LN1@Lbound
$LN2@Lbound:

; 1749 : 				{	// _Pnode not less than _Keyval, remember it
; 1750 : 				_Wherenode = _Pnode;

  0001e	8b c1		 mov	 eax, ecx

; 1751 : 				_Pnode = this->_Left(_Pnode);	// descend left subtree

  00020	8b 09		 mov	 ecx, DWORD PTR [ecx]
$LN1@Lbound:

; 1743 : 		_Nodeptr _Wherenode = this->_Myhead;	// end() if search fails
; 1744 : 
; 1745 : 		while (!this->_Isnil(_Pnode))

  00022	80 79 15 00	 cmp	 BYTE PTR [ecx+21], 0
  00026	74 ec		 je	 SHORT $LL4@Lbound
$LN3@Lbound:

; 1752 : 				}
; 1753 : 
; 1754 : 		return (_Wherenode);	// return best remembered candidate
; 1755 : 		}

  00028	5d		 pop	 ebp
  00029	c2 04 00	 ret	 4
?_Lbound@?$_Tree@V?$_Tmap_traits@KPAVCustomSoundData@@U?$less@K@std@@V?$allocator@U?$pair@$$CBKPAVCustomSoundData@@@std@@@3@$0A@@std@@@std@@IAEPAU_Node@?$_Tree_nod@V?$_Tmap_traits@KPAVCustomSoundData@@U?$less@K@std@@V?$allocator@U?$pair@$$CBKPAVCustomSoundData@@@std@@@3@$0A@@std@@@2@ABK@Z ENDP ; std::_Tree<std::_Tmap_traits<unsigned long,CustomSoundData *,std::less<unsigned long>,std::allocator<std::pair<unsigned long const ,CustomSoundData *> >,0> >::_Lbound
_TEXT	ENDS
PUBLIC	?max_size@?$vector@PAUtagCustomSoundInfo@ioCustomSoundMgr@@V?$allocator@PAUtagCustomSoundInfo@ioCustomSoundMgr@@@std@@@std@@QBEIXZ ; std::vector<ioCustomSoundMgr::tagCustomSoundInfo *,std::allocator<ioCustomSoundMgr::tagCustomSoundInfo *> >::max_size
; Function compile flags: /Ogsp
; File c:\program files (x86)\microsoft visual studio 10.0\vc\include\vector
;	COMDAT ?max_size@?$vector@PAUtagCustomSoundInfo@ioCustomSoundMgr@@V?$allocator@PAUtagCustomSoundInfo@ioCustomSoundMgr@@@std@@@std@@QBEIXZ
_TEXT	SEGMENT
?max_size@?$vector@PAUtagCustomSoundInfo@ioCustomSoundMgr@@V?$allocator@PAUtagCustomSoundInfo@ioCustomSoundMgr@@@std@@@std@@QBEIXZ PROC ; std::vector<ioCustomSoundMgr::tagCustomSoundInfo *,std::allocator<ioCustomSoundMgr::tagCustomSoundInfo *> >::max_size, COMDAT
; _this$ = ecx

; 884  : 		return (this->_Alval.max_size());

  00000	b8 ff ff ff 3f	 mov	 eax, 1073741823		; 3fffffffH

; 885  : 		}

  00005	c3		 ret	 0
?max_size@?$vector@PAUtagCustomSoundInfo@ioCustomSoundMgr@@V?$allocator@PAUtagCustomSoundInfo@ioCustomSoundMgr@@@std@@@std@@QBEIXZ ENDP ; std::vector<ioCustomSoundMgr::tagCustomSoundInfo *,std::allocator<ioCustomSoundMgr::tagCustomSoundInfo *> >::max_size
_TEXT	ENDS
PUBLIC	?_Grow_to@?$vector@PAUtagCustomSoundInfo@ioCustomSoundMgr@@V?$allocator@PAUtagCustomSoundInfo@ioCustomSoundMgr@@@std@@@std@@IBEII@Z ; std::vector<ioCustomSoundMgr::tagCustomSoundInfo *,std::allocator<ioCustomSoundMgr::tagCustomSoundInfo *> >::_Grow_to
; Function compile flags: /Ogsp
;	COMDAT ?_Grow_to@?$vector@PAUtagCustomSoundInfo@ioCustomSoundMgr@@V?$allocator@PAUtagCustomSoundInfo@ioCustomSoundMgr@@@std@@@std@@IBEII@Z
_TEXT	SEGMENT
__Count$ = 8						; size = 4
?_Grow_to@?$vector@PAUtagCustomSoundInfo@ioCustomSoundMgr@@V?$allocator@PAUtagCustomSoundInfo@ioCustomSoundMgr@@@std@@@std@@IBEII@Z PROC ; std::vector<ioCustomSoundMgr::tagCustomSoundInfo *,std::allocator<ioCustomSoundMgr::tagCustomSoundInfo *> >::_Grow_to, COMDAT
; _this$ = ecx

; 1274 : 		{	// grow by 50% or at least to _Count

  00000	55		 push	 ebp
  00001	8b ec		 mov	 ebp, esp

; 1275 : 		size_type _Capacity = capacity();

  00003	8b 41 08	 mov	 eax, DWORD PTR [ecx+8]
  00006	2b 01		 sub	 eax, DWORD PTR [ecx]

; 1276 : 
; 1277 : 		_Capacity = max_size() - _Capacity / 2 < _Capacity
; 1278 : 			? 0 : _Capacity + _Capacity / 2;	// try to grow by 50%

  00008	ba ff ff ff 3f	 mov	 edx, 1073741823		; 3fffffffH
  0000d	c1 f8 02	 sar	 eax, 2
  00010	8b c8		 mov	 ecx, eax
  00012	d1 e9		 shr	 ecx, 1
  00014	2b d1		 sub	 edx, ecx
  00016	3b d0		 cmp	 edx, eax
  00018	73 04		 jae	 SHORT $LN4@Grow_to@2
  0001a	33 c0		 xor	 eax, eax
  0001c	eb 02		 jmp	 SHORT $LN5@Grow_to@2
$LN4@Grow_to@2:
  0001e	03 c1		 add	 eax, ecx
$LN5@Grow_to@2:

; 1279 : 		if (_Capacity < _Count)

  00020	3b 45 08	 cmp	 eax, DWORD PTR __Count$[ebp]

; 1280 : 			_Capacity = _Count;

  00023	0f 42 45 08	 cmovb	 eax, DWORD PTR __Count$[ebp]

; 1281 : 		return (_Capacity);
; 1282 : 		}

  00027	5d		 pop	 ebp
  00028	c2 04 00	 ret	 4
?_Grow_to@?$vector@PAUtagCustomSoundInfo@ioCustomSoundMgr@@V?$allocator@PAUtagCustomSoundInfo@ioCustomSoundMgr@@@std@@@std@@IBEII@Z ENDP ; std::vector<ioCustomSoundMgr::tagCustomSoundInfo *,std::allocator<ioCustomSoundMgr::tagCustomSoundInfo *> >::_Grow_to
_TEXT	ENDS
PUBLIC	??D?$_Tree_const_iterator@V?$_Tree_val@V?$_Tmap_traits@KPAVCustomSoundData@@U?$less@K@std@@V?$allocator@U?$pair@$$CBKPAVCustomSoundData@@@std@@@3@$0A@@std@@@std@@@std@@QBEABU?$pair@$$CBKPAVCustomSoundData@@@1@XZ ; std::_Tree_const_iterator<std::_Tree_val<std::_Tmap_traits<unsigned long,CustomSoundData *,std::less<unsigned long>,std::allocator<std::pair<unsigned long const ,CustomSoundData *> >,0> > >::operator*
; Function compile flags: /Ogsp
; File c:\program files (x86)\microsoft visual studio 10.0\vc\include\xtree
;	COMDAT ??D?$_Tree_const_iterator@V?$_Tree_val@V?$_Tmap_traits@KPAVCustomSoundData@@U?$less@K@std@@V?$allocator@U?$pair@$$CBKPAVCustomSoundData@@@std@@@3@$0A@@std@@@std@@@std@@QBEABU?$pair@$$CBKPAVCustomSoundData@@@1@XZ
_TEXT	SEGMENT
??D?$_Tree_const_iterator@V?$_Tree_val@V?$_Tmap_traits@KPAVCustomSoundData@@U?$less@K@std@@V?$allocator@U?$pair@$$CBKPAVCustomSoundData@@@std@@@3@$0A@@std@@@std@@@std@@QBEABU?$pair@$$CBKPAVCustomSoundData@@@1@XZ PROC ; std::_Tree_const_iterator<std::_Tree_val<std::_Tmap_traits<unsigned long,CustomSoundData *,std::less<unsigned long>,std::allocator<std::pair<unsigned long const ,CustomSoundData *> >,0> > >::operator*, COMDAT
; _this$ = ecx

; 231  :  #if _ITERATOR_DEBUG_LEVEL == 2
; 232  : 		if (this->_Getcont() == 0
; 233  : 			|| this->_Ptr == 0
; 234  : 			|| this->_Ptr == ((_Mytree *)this->_Getcont())->_Myhead)
; 235  : 			{	// report error
; 236  : 			_DEBUG_ERROR("map/set iterator not dereferencable");
; 237  : 			_SCL_SECURE_OUT_OF_RANGE;
; 238  : 			}
; 239  : 
; 240  :  #elif _ITERATOR_DEBUG_LEVEL == 1
; 241  : 		_SCL_SECURE_VALIDATE(this->_Getcont() != 0 && this->_Ptr != 0);
; 242  : 		_SCL_SECURE_VALIDATE_RANGE(this->_Ptr !=
; 243  : 			((_Mytree *)this->_Getcont())->_Myhead);
; 244  :  #endif /* _ITERATOR_DEBUG_LEVEL */
; 245  : 
; 246  : 		return (_Mytree::_Myval(this->_Ptr));

  00000	8b 01		 mov	 eax, DWORD PTR [ecx]
  00002	83 c0 0c	 add	 eax, 12			; 0000000cH

; 247  : 		}

  00005	c3		 ret	 0
??D?$_Tree_const_iterator@V?$_Tree_val@V?$_Tmap_traits@KPAVCustomSoundData@@U?$less@K@std@@V?$allocator@U?$pair@$$CBKPAVCustomSoundData@@@std@@@3@$0A@@std@@@std@@@std@@QBEABU?$pair@$$CBKPAVCustomSoundData@@@1@XZ ENDP ; std::_Tree_const_iterator<std::_Tree_val<std::_Tmap_traits<unsigned long,CustomSoundData *,std::less<unsigned long>,std::allocator<std::pair<unsigned long const ,CustomSoundData *> >,0> > >::operator*
_TEXT	ENDS
PUBLIC	?allocate@?$allocator@UtagNetworkInfo@CustomSoundData@@@std@@QAEPAUtagNetworkInfo@CustomSoundData@@I@Z ; std::allocator<CustomSoundData::tagNetworkInfo>::allocate
; Function compile flags: /Ogsp
; File c:\program files (x86)\microsoft visual studio 10.0\vc\include\xmemory
;	COMDAT ?allocate@?$allocator@UtagNetworkInfo@CustomSoundData@@@std@@QAEPAUtagNetworkInfo@CustomSoundData@@I@Z
_TEXT	SEGMENT
__Count$ = 8						; size = 4
?allocate@?$allocator@UtagNetworkInfo@CustomSoundData@@@std@@QAEPAUtagNetworkInfo@CustomSoundData@@I@Z PROC ; std::allocator<CustomSoundData::tagNetworkInfo>::allocate, COMDAT
; _this$ = ecx

; 186  : 		{	// allocate array of _Count elements

  00000	55		 push	 ebp
  00001	8b ec		 mov	 ebp, esp

; 187  : 		return (_Allocate(_Count, (pointer)0));

  00003	6a 00		 push	 0
  00005	ff 75 08	 push	 DWORD PTR __Count$[ebp]
  00008	e8 00 00 00 00	 call	 ??$_Allocate@UtagNetworkInfo@CustomSoundData@@@std@@YAPAUtagNetworkInfo@CustomSoundData@@IPAU12@@Z ; std::_Allocate<CustomSoundData::tagNetworkInfo>
  0000d	59		 pop	 ecx
  0000e	59		 pop	 ecx

; 188  : 		}

  0000f	5d		 pop	 ebp
  00010	c2 04 00	 ret	 4
?allocate@?$allocator@UtagNetworkInfo@CustomSoundData@@@std@@QAEPAUtagNetworkInfo@CustomSoundData@@I@Z ENDP ; std::allocator<CustomSoundData::tagNetworkInfo>::allocate
_TEXT	ENDS
PUBLIC	?allocate@?$allocator@PAUtagCustomSoundInfo@ioCustomSoundMgr@@@std@@QAEPAPAUtagCustomSoundInfo@ioCustomSoundMgr@@I@Z ; std::allocator<ioCustomSoundMgr::tagCustomSoundInfo *>::allocate
; Function compile flags: /Ogsp
;	COMDAT ?allocate@?$allocator@PAUtagCustomSoundInfo@ioCustomSoundMgr@@@std@@QAEPAPAUtagCustomSoundInfo@ioCustomSoundMgr@@I@Z
_TEXT	SEGMENT
__Count$ = 8						; size = 4
?allocate@?$allocator@PAUtagCustomSoundInfo@ioCustomSoundMgr@@@std@@QAEPAPAUtagCustomSoundInfo@ioCustomSoundMgr@@I@Z PROC ; std::allocator<ioCustomSoundMgr::tagCustomSoundInfo *>::allocate, COMDAT
; _this$ = ecx

; 186  : 		{	// allocate array of _Count elements

  00000	55		 push	 ebp
  00001	8b ec		 mov	 ebp, esp

; 187  : 		return (_Allocate(_Count, (pointer)0));

  00003	6a 00		 push	 0
  00005	ff 75 08	 push	 DWORD PTR __Count$[ebp]
  00008	e8 00 00 00 00	 call	 ??$_Allocate@PAUtagCustomSoundInfo@ioCustomSoundMgr@@@std@@YAPAPAUtagCustomSoundInfo@ioCustomSoundMgr@@IPAPAU12@@Z ; std::_Allocate<ioCustomSoundMgr::tagCustomSoundInfo *>
  0000d	59		 pop	 ecx
  0000e	59		 pop	 ecx

; 188  : 		}

  0000f	5d		 pop	 ebp
  00010	c2 04 00	 ret	 4
?allocate@?$allocator@PAUtagCustomSoundInfo@ioCustomSoundMgr@@@std@@QAEPAPAUtagCustomSoundInfo@ioCustomSoundMgr@@I@Z ENDP ; std::allocator<ioCustomSoundMgr::tagCustomSoundInfo *>::allocate
_TEXT	ENDS
PUBLIC	__$ArrayPad$
PUBLIC	??$SetTitle_e@$04@ioINILoader@@QAEXAAY04$$CBD@Z	; ioINILoader::SetTitle_e<5>
EXTRN	__imp_?SetTitle@ioINILoader@@QAEXPBD@Z:PROC
; Function compile flags: /Ogsp
; File d:\lost saga for developer\youtube\tutorial\source\src\io3dengine\ioiniloader.h
;	COMDAT ??$SetTitle_e@$04@ioINILoader@@QAEXAAY04$$CBD@Z
_TEXT	SEGMENT
__t$ = -16						; size = 5
__$ArrayPad$ = -4					; size = 4
_t$ = 8							; size = 4
??$SetTitle_e@$04@ioINILoader@@QAEXAAY04$$CBD@Z PROC	; ioINILoader::SetTitle_e<5>, COMDAT
; _this$ = ecx

; 188  : 	{

  00000	55		 push	 ebp
  00001	8b ec		 mov	 ebp, esp
  00003	83 ec 10	 sub	 esp, 16			; 00000010H
  00006	a1 00 00 00 00	 mov	 eax, DWORD PTR ___security_cookie
  0000b	33 c5		 xor	 eax, ebp
  0000d	89 45 fc	 mov	 DWORD PTR __$ArrayPad$[ebp], eax
  00010	8b 45 08	 mov	 eax, DWORD PTR _t$[ebp]

; 189  : 		_ENCSTR(t, _t);

  00013	8a 10		 mov	 dl, BYTE PTR [eax]
  00015	84 d2		 test	 dl, dl
  00017	0f 84 92 00 00
	00		 je	 $LN96@SetTitle_e
  0001d	80 f2 ed	 xor	 dl, -19			; ffffffedH
  00020	88 55 f0	 mov	 BYTE PTR __t$[ebp], dl
  00023	8a 50 01	 mov	 dl, BYTE PTR [eax+1]
  00026	84 d2		 test	 dl, dl
  00028	74 7f		 je	 SHORT $LN95@SetTitle_e
  0002a	80 f2 ec	 xor	 dl, -20			; ffffffecH
  0002d	88 55 f1	 mov	 BYTE PTR __t$[ebp+1], dl
  00030	8a 50 02	 mov	 dl, BYTE PTR [eax+2]
  00033	84 d2		 test	 dl, dl
  00035	74 6c		 je	 SHORT $LN94@SetTitle_e
  00037	80 f2 eb	 xor	 dl, -21			; ffffffebH
  0003a	88 55 f2	 mov	 BYTE PTR __t$[ebp+2], dl
  0003d	8a 50 03	 mov	 dl, BYTE PTR [eax+3]
  00040	84 d2		 test	 dl, dl
  00042	74 59		 je	 SHORT $LN93@SetTitle_e
  00044	80 f2 ea	 xor	 dl, -22			; ffffffeaH
  00047	80 78 04 00	 cmp	 BYTE PTR [eax+4], 0
  0004b	88 55 f3	 mov	 BYTE PTR __t$[ebp+3], dl
  0004e	74 63		 je	 SHORT $LN1@SetTitle_e
  00050	8a 50 05	 mov	 dl, BYTE PTR [eax+5]
  00053	84 d2		 test	 dl, dl
  00055	74 40		 je	 SHORT $LN91@SetTitle_e
  00057	80 f2 ec	 xor	 dl, -20			; ffffffecH
  0005a	88 55 f5	 mov	 BYTE PTR __t$[ebp+5], dl
  0005d	8a 50 06	 mov	 dl, BYTE PTR [eax+6]
  00060	84 d2		 test	 dl, dl
  00062	74 2d		 je	 SHORT $LN90@SetTitle_e
  00064	80 f2 eb	 xor	 dl, -21			; ffffffebH
  00067	88 55 f6	 mov	 BYTE PTR __t$[ebp+6], dl
  0006a	8a 50 07	 mov	 dl, BYTE PTR [eax+7]
  0006d	84 d2		 test	 dl, dl
  0006f	74 1a		 je	 SHORT $LN89@SetTitle_e
  00071	8a 40 08	 mov	 al, BYTE PTR [eax+8]
  00074	80 f2 ea	 xor	 dl, -22			; ffffffeaH
  00077	88 55 f7	 mov	 BYTE PTR __t$[ebp+7], dl
  0007a	84 c0		 test	 al, al
  0007c	74 07		 je	 SHORT $LN88@SetTitle_e
  0007e	34 ed		 xor	 al, -19			; ffffffedH
  00080	88 45 f8	 mov	 BYTE PTR __t$[ebp+8], al
  00083	eb 2e		 jmp	 SHORT $LN1@SetTitle_e
$LN88@SetTitle_e:
  00085	c6 45 f8 ed	 mov	 BYTE PTR __t$[ebp+8], -19 ; ffffffedH
  00089	eb 28		 jmp	 SHORT $LN1@SetTitle_e
$LN89@SetTitle_e:
  0008b	c6 45 f7 ea	 mov	 BYTE PTR __t$[ebp+7], -22 ; ffffffeaH
  0008f	eb 22		 jmp	 SHORT $LN1@SetTitle_e
$LN90@SetTitle_e:
  00091	c6 45 f6 eb	 mov	 BYTE PTR __t$[ebp+6], -21 ; ffffffebH
  00095	eb 1c		 jmp	 SHORT $LN1@SetTitle_e
$LN91@SetTitle_e:
  00097	c6 45 f5 ec	 mov	 BYTE PTR __t$[ebp+5], -20 ; ffffffecH
  0009b	eb 16		 jmp	 SHORT $LN1@SetTitle_e
$LN93@SetTitle_e:
  0009d	c6 45 f3 ea	 mov	 BYTE PTR __t$[ebp+3], -22 ; ffffffeaH
  000a1	eb 10		 jmp	 SHORT $LN1@SetTitle_e
$LN94@SetTitle_e:
  000a3	c6 45 f2 eb	 mov	 BYTE PTR __t$[ebp+2], -21 ; ffffffebH
  000a7	eb 0a		 jmp	 SHORT $LN1@SetTitle_e
$LN95@SetTitle_e:
  000a9	c6 45 f1 ec	 mov	 BYTE PTR __t$[ebp+1], -20 ; ffffffecH
  000ad	eb 04		 jmp	 SHORT $LN1@SetTitle_e
$LN96@SetTitle_e:
  000af	c6 45 f0 ed	 mov	 BYTE PTR __t$[ebp], -19	; ffffffedH
$LN1@SetTitle_e:
  000b3	81 75 f0 ed ec
	eb ea		 xor	 DWORD PTR __t$[ebp], -353637139 ; eaebecedH

; 190  : 		SetTitle(_t);

  000ba	8d 45 f0	 lea	 eax, DWORD PTR __t$[ebp]
  000bd	50		 push	 eax
  000be	c6 45 f4 00	 mov	 BYTE PTR __t$[ebp+4], 0
  000c2	ff 15 00 00 00
	00		 call	 DWORD PTR __imp_?SetTitle@ioINILoader@@QAEXPBD@Z

; 191  : 	}

  000c8	8b 4d fc	 mov	 ecx, DWORD PTR __$ArrayPad$[ebp]
  000cb	33 cd		 xor	 ecx, ebp
  000cd	e8 00 00 00 00	 call	 @__security_check_cookie@4
  000d2	c9		 leave
  000d3	c2 04 00	 ret	 4
??$SetTitle_e@$04@ioINILoader@@QAEXAAY04$$CBD@Z ENDP	; ioINILoader::SetTitle_e<5>
_TEXT	ENDS
PUBLIC	_this$GSCopy$
PUBLIC	__$ArrayPad$
PUBLIC	??$LoadString_e@$0BA@@ioINILoader@@QAEXAAY0BA@$$CBDAAY00$$CBDPADH@Z ; ioINILoader::LoadString_e<16>
EXTRN	__imp_?LoadStringA@ioINILoader@@QAEXPBD0PADH@Z:PROC
; Function compile flags: /Ogsp
;	COMDAT ??$LoadString_e@$0BA@@ioINILoader@@QAEXAAY0BA@$$CBDAAY00$$CBDPADH@Z
_TEXT	SEGMENT
_this$GSCopy$ = -28					; size = 4
__k$ = -24						; size = 16
__$ArrayPad$ = -4					; size = 4
_k$ = 8							; size = 4
_d$ = 12						; size = 4
_b$ = 16						; size = 4
_i$ = 20						; size = 4
??$LoadString_e@$0BA@@ioINILoader@@QAEXAAY0BA@$$CBDAAY00$$CBDPADH@Z PROC ; ioINILoader::LoadString_e<16>, COMDAT
; _this$ = ecx

; 161  : 	{

  00000	55		 push	 ebp
  00001	8b ec		 mov	 ebp, esp
  00003	83 ec 1c	 sub	 esp, 28			; 0000001cH
  00006	a1 00 00 00 00	 mov	 eax, DWORD PTR ___security_cookie
  0000b	33 c5		 xor	 eax, ebp
  0000d	89 45 fc	 mov	 DWORD PTR __$ArrayPad$[ebp], eax
  00010	8b 45 08	 mov	 eax, DWORD PTR _k$[ebp]

; 162  : 		_ENCSTR(k, _k);

  00013	8a 10		 mov	 dl, BYTE PTR [eax]
  00015	56		 push	 esi
  00016	8b 75 0c	 mov	 esi, DWORD PTR _d$[ebp]
  00019	57		 push	 edi
  0001a	8b 7d 10	 mov	 edi, DWORD PTR _b$[ebp]
  0001d	89 4d e4	 mov	 DWORD PTR _this$GSCopy$[ebp], ecx
  00020	84 d2		 test	 dl, dl
  00022	0f 84 8c 01 00
	00		 je	 $LN96@LoadString
  00028	80 f2 ed	 xor	 dl, -19			; ffffffedH
  0002b	88 55 e8	 mov	 BYTE PTR __k$[ebp], dl
  0002e	8a 50 01	 mov	 dl, BYTE PTR [eax+1]
  00031	84 d2		 test	 dl, dl
  00033	0f 84 75 01 00
	00		 je	 $LN95@LoadString
  00039	80 f2 ec	 xor	 dl, -20			; ffffffecH
  0003c	88 55 e9	 mov	 BYTE PTR __k$[ebp+1], dl
  0003f	8a 50 02	 mov	 dl, BYTE PTR [eax+2]
  00042	84 d2		 test	 dl, dl
  00044	0f 84 5e 01 00
	00		 je	 $LN94@LoadString
  0004a	b1 eb		 mov	 cl, -21			; ffffffebH
  0004c	32 d1		 xor	 dl, cl
  0004e	88 55 ea	 mov	 BYTE PTR __k$[ebp+2], dl
  00051	8a 50 03	 mov	 dl, BYTE PTR [eax+3]
  00054	84 d2		 test	 dl, dl
  00056	0f 84 46 01 00
	00		 je	 $LN93@LoadString
  0005c	80 f2 ea	 xor	 dl, -22			; ffffffeaH
  0005f	88 55 eb	 mov	 BYTE PTR __k$[ebp+3], dl
  00062	8a 50 04	 mov	 dl, BYTE PTR [eax+4]
  00065	84 d2		 test	 dl, dl
  00067	0f 84 2f 01 00
	00		 je	 $LN92@LoadString
  0006d	80 f2 ed	 xor	 dl, -19			; ffffffedH
  00070	88 55 ec	 mov	 BYTE PTR __k$[ebp+4], dl
  00073	8a 50 05	 mov	 dl, BYTE PTR [eax+5]
  00076	84 d2		 test	 dl, dl
  00078	0f 84 18 01 00
	00		 je	 $LN91@LoadString
  0007e	80 f2 ec	 xor	 dl, -20			; ffffffecH
  00081	88 55 ed	 mov	 BYTE PTR __k$[ebp+5], dl
  00084	8a 50 06	 mov	 dl, BYTE PTR [eax+6]
  00087	84 d2		 test	 dl, dl
  00089	0f 84 02 01 00
	00		 je	 $LN90@LoadString
  0008f	32 d1		 xor	 dl, cl
  00091	88 55 ee	 mov	 BYTE PTR __k$[ebp+6], dl
  00094	8a 50 07	 mov	 dl, BYTE PTR [eax+7]
  00097	84 d2		 test	 dl, dl
  00099	0f 84 ec 00 00
	00		 je	 $LN89@LoadString
  0009f	80 f2 ea	 xor	 dl, -22			; ffffffeaH
  000a2	88 55 ef	 mov	 BYTE PTR __k$[ebp+7], dl
  000a5	8a 50 08	 mov	 dl, BYTE PTR [eax+8]
  000a8	84 d2		 test	 dl, dl
  000aa	0f 84 d5 00 00
	00		 je	 $LN88@LoadString
  000b0	80 f2 ed	 xor	 dl, -19			; ffffffedH
  000b3	88 55 f0	 mov	 BYTE PTR __k$[ebp+8], dl
  000b6	8a 50 09	 mov	 dl, BYTE PTR [eax+9]
  000b9	84 d2		 test	 dl, dl
  000bb	0f 84 be 00 00
	00		 je	 $LN87@LoadString
  000c1	80 f2 ec	 xor	 dl, -20			; ffffffecH
  000c4	88 55 f1	 mov	 BYTE PTR __k$[ebp+9], dl
  000c7	8a 50 0a	 mov	 dl, BYTE PTR [eax+10]
  000ca	84 d2		 test	 dl, dl
  000cc	0f 84 a8 00 00
	00		 je	 $LN86@LoadString
  000d2	32 d1		 xor	 dl, cl
  000d4	88 55 f2	 mov	 BYTE PTR __k$[ebp+10], dl
  000d7	8a 50 0b	 mov	 dl, BYTE PTR [eax+11]
  000da	84 d2		 test	 dl, dl
  000dc	0f 84 92 00 00
	00		 je	 $LN85@LoadString
  000e2	80 f2 ea	 xor	 dl, -22			; ffffffeaH
  000e5	88 55 f3	 mov	 BYTE PTR __k$[ebp+11], dl
  000e8	8a 50 0c	 mov	 dl, BYTE PTR [eax+12]
  000eb	84 d2		 test	 dl, dl
  000ed	74 7f		 je	 SHORT $LN84@LoadString
  000ef	80 f2 ed	 xor	 dl, -19			; ffffffedH
  000f2	88 55 f4	 mov	 BYTE PTR __k$[ebp+12], dl
  000f5	8a 50 0d	 mov	 dl, BYTE PTR [eax+13]
  000f8	84 d2		 test	 dl, dl
  000fa	74 6c		 je	 SHORT $LN83@LoadString
  000fc	80 f2 ec	 xor	 dl, -20			; ffffffecH
  000ff	88 55 f5	 mov	 BYTE PTR __k$[ebp+13], dl
  00102	8a 50 0e	 mov	 dl, BYTE PTR [eax+14]
  00105	84 d2		 test	 dl, dl
  00107	74 5a		 je	 SHORT $LN82@LoadString
  00109	32 d1		 xor	 dl, cl
  0010b	80 78 0f 00	 cmp	 BYTE PTR [eax+15], 0
  0010f	88 55 f6	 mov	 BYTE PTR __k$[ebp+14], dl
  00112	0f 84 a0 00 00
	00		 je	 $LN111@LoadString
  00118	8a 50 10	 mov	 dl, BYTE PTR [eax+16]
  0011b	84 d2		 test	 dl, dl
  0011d	74 3e		 je	 SHORT $LN80@LoadString
  0011f	80 f2 ed	 xor	 dl, -19			; ffffffedH
  00122	88 55 f8	 mov	 BYTE PTR __k$[ebp+16], dl
  00125	8a 50 11	 mov	 dl, BYTE PTR [eax+17]
  00128	84 d2		 test	 dl, dl
  0012a	74 2b		 je	 SHORT $LN79@LoadString
  0012c	80 f2 ec	 xor	 dl, -20			; ffffffecH
  0012f	88 55 f9	 mov	 BYTE PTR __k$[ebp+17], dl
  00132	8a 50 12	 mov	 dl, BYTE PTR [eax+18]
  00135	84 d2		 test	 dl, dl
  00137	74 19		 je	 SHORT $LN78@LoadString
  00139	8a 40 13	 mov	 al, BYTE PTR [eax+19]
  0013c	32 d1		 xor	 dl, cl
  0013e	88 55 fa	 mov	 BYTE PTR __k$[ebp+18], dl
  00141	84 c0		 test	 al, al
  00143	74 07		 je	 SHORT $LN77@LoadString
  00145	34 ea		 xor	 al, -22			; ffffffeaH
  00147	88 45 fb	 mov	 BYTE PTR __k$[ebp+19], al
  0014a	eb 6c		 jmp	 SHORT $LN111@LoadString
$LN77@LoadString:
  0014c	c6 45 fb ea	 mov	 BYTE PTR __k$[ebp+19], -22 ; ffffffeaH
  00150	eb 66		 jmp	 SHORT $LN111@LoadString
$LN78@LoadString:
  00152	88 4d fa	 mov	 BYTE PTR __k$[ebp+18], cl
  00155	eb 61		 jmp	 SHORT $LN111@LoadString
$LN79@LoadString:
  00157	c6 45 f9 ec	 mov	 BYTE PTR __k$[ebp+17], -20 ; ffffffecH
  0015b	eb 5b		 jmp	 SHORT $LN111@LoadString
$LN80@LoadString:
  0015d	c6 45 f8 ed	 mov	 BYTE PTR __k$[ebp+16], -19 ; ffffffedH
  00161	eb 55		 jmp	 SHORT $LN111@LoadString
$LN82@LoadString:
  00163	88 4d f6	 mov	 BYTE PTR __k$[ebp+14], cl
  00166	eb 50		 jmp	 SHORT $LN111@LoadString
$LN83@LoadString:
  00168	c6 45 f5 ec	 mov	 BYTE PTR __k$[ebp+13], -20 ; ffffffecH
  0016c	eb 4a		 jmp	 SHORT $LN111@LoadString
$LN84@LoadString:
  0016e	c6 45 f4 ed	 mov	 BYTE PTR __k$[ebp+12], -19 ; ffffffedH
  00172	eb 44		 jmp	 SHORT $LN111@LoadString
$LN85@LoadString:
  00174	c6 45 f3 ea	 mov	 BYTE PTR __k$[ebp+11], -22 ; ffffffeaH
  00178	eb 3e		 jmp	 SHORT $LN111@LoadString
$LN86@LoadString:
  0017a	88 4d f2	 mov	 BYTE PTR __k$[ebp+10], cl
  0017d	eb 39		 jmp	 SHORT $LN111@LoadString
$LN87@LoadString:
  0017f	c6 45 f1 ec	 mov	 BYTE PTR __k$[ebp+9], -20 ; ffffffecH
  00183	eb 33		 jmp	 SHORT $LN111@LoadString
$LN88@LoadString:
  00185	c6 45 f0 ed	 mov	 BYTE PTR __k$[ebp+8], -19 ; ffffffedH
  00189	eb 2d		 jmp	 SHORT $LN111@LoadString
$LN89@LoadString:
  0018b	c6 45 ef ea	 mov	 BYTE PTR __k$[ebp+7], -22 ; ffffffeaH
  0018f	eb 27		 jmp	 SHORT $LN111@LoadString
$LN90@LoadString:
  00191	88 4d ee	 mov	 BYTE PTR __k$[ebp+6], cl
  00194	eb 22		 jmp	 SHORT $LN111@LoadString
$LN91@LoadString:
  00196	c6 45 ed ec	 mov	 BYTE PTR __k$[ebp+5], -20 ; ffffffecH
  0019a	eb 1c		 jmp	 SHORT $LN111@LoadString
$LN92@LoadString:
  0019c	c6 45 ec ed	 mov	 BYTE PTR __k$[ebp+4], -19 ; ffffffedH
  001a0	eb 16		 jmp	 SHORT $LN111@LoadString
$LN93@LoadString:
  001a2	c6 45 eb ea	 mov	 BYTE PTR __k$[ebp+3], -22 ; ffffffeaH
  001a6	eb 10		 jmp	 SHORT $LN111@LoadString
$LN94@LoadString:
  001a8	c6 45 ea eb	 mov	 BYTE PTR __k$[ebp+2], -21 ; ffffffebH
  001ac	eb 0a		 jmp	 SHORT $LN111@LoadString
$LN95@LoadString:
  001ae	c6 45 e9 ec	 mov	 BYTE PTR __k$[ebp+1], -20 ; ffffffecH
  001b2	eb 04		 jmp	 SHORT $LN111@LoadString
$LN96@LoadString:
  001b4	c6 45 e8 ed	 mov	 BYTE PTR __k$[ebp], -19	; ffffffedH
$LN111@LoadString:
  001b8	6a 03		 push	 3
  001ba	8d 45 e8	 lea	 eax, DWORD PTR __k$[ebp]
  001bd	c6 45 f7 00	 mov	 BYTE PTR __k$[ebp+15], 0
  001c1	5a		 pop	 edx
$LL104@LoadString:
  001c2	81 30 ed ec eb
	ea		 xor	 DWORD PTR [eax], -353637139 ; eaebecedH
  001c8	83 c0 04	 add	 eax, 4
  001cb	4a		 dec	 edx
  001cc	75 f4		 jne	 SHORT $LL104@LoadString
  001ce	6a 0c		 push	 12			; 0000000cH
  001d0	58		 pop	 eax
$LL101@LoadString:
  001d1	8b c8		 mov	 ecx, eax
  001d3	81 e1 03 00 00
	80		 and	 ecx, -2147483645	; 80000003H
  001d9	79 05		 jns	 SHORT $LN112@LoadString
  001db	49		 dec	 ecx
  001dc	83 c9 fc	 or	 ecx, -4			; fffffffcH
  001df	41		 inc	 ecx
$LN112@LoadString:
  001e0	b2 ed		 mov	 dl, -19			; ffffffedH
  001e2	2a d1		 sub	 dl, cl
  001e4	30 54 05 e8	 xor	 BYTE PTR __k$[ebp+eax], dl
  001e8	40		 inc	 eax
  001e9	83 f8 0f	 cmp	 eax, 15			; 0000000fH
  001ec	7c e3		 jl	 SHORT $LL101@LoadString

; 163  : 		LoadString(_k, d, b, i);

  001ee	ff 75 14	 push	 DWORD PTR _i$[ebp]
  001f1	8b 4d e4	 mov	 ecx, DWORD PTR _this$GSCopy$[ebp]
  001f4	57		 push	 edi
  001f5	56		 push	 esi
  001f6	8d 45 e8	 lea	 eax, DWORD PTR __k$[ebp]
  001f9	50		 push	 eax
  001fa	ff 15 00 00 00
	00		 call	 DWORD PTR __imp_?LoadStringA@ioINILoader@@QAEXPBD0PADH@Z

; 164  : 	}

  00200	8b 4d fc	 mov	 ecx, DWORD PTR __$ArrayPad$[ebp]
  00203	5f		 pop	 edi
  00204	33 cd		 xor	 ecx, ebp
  00206	5e		 pop	 esi
  00207	e8 00 00 00 00	 call	 @__security_check_cookie@4
  0020c	c9		 leave
  0020d	c2 10 00	 ret	 16			; 00000010H
??$LoadString_e@$0BA@@ioINILoader@@QAEXAAY0BA@$$CBDAAY00$$CBDPADH@Z ENDP ; ioINILoader::LoadString_e<16>
_TEXT	ENDS
PUBLIC	__$ArrayPad$
PUBLIC	??$LoadInt_e@$0BA@@ioINILoader@@QAEHAAY0BA@$$CBDH@Z ; ioINILoader::LoadInt_e<16>
EXTRN	__imp_?LoadInt@ioINILoader@@QAEHPBDH@Z:PROC
; Function compile flags: /Ogsp
;	COMDAT ??$LoadInt_e@$0BA@@ioINILoader@@QAEHAAY0BA@$$CBDH@Z
_TEXT	SEGMENT
__k$ = -24						; size = 16
__$ArrayPad$ = -4					; size = 4
_k$ = 8							; size = 4
_i$ = 12						; size = 4
??$LoadInt_e@$0BA@@ioINILoader@@QAEHAAY0BA@$$CBDH@Z PROC ; ioINILoader::LoadInt_e<16>, COMDAT
; _this$ = ecx

; 118  : 	{

  00000	55		 push	 ebp
  00001	8b ec		 mov	 ebp, esp
  00003	83 ec 18	 sub	 esp, 24			; 00000018H
  00006	a1 00 00 00 00	 mov	 eax, DWORD PTR ___security_cookie
  0000b	33 c5		 xor	 eax, ebp
  0000d	89 45 fc	 mov	 DWORD PTR __$ArrayPad$[ebp], eax
  00010	8b 45 08	 mov	 eax, DWORD PTR _k$[ebp]

; 119  : 		_ENCSTR(k, _k);

  00013	8a 10		 mov	 dl, BYTE PTR [eax]
  00015	56		 push	 esi
  00016	8b f1		 mov	 esi, ecx
  00018	84 d2		 test	 dl, dl
  0001a	0f 84 8c 01 00
	00		 je	 $LN96@LoadInt_e
  00020	80 f2 ed	 xor	 dl, -19			; ffffffedH
  00023	88 55 e8	 mov	 BYTE PTR __k$[ebp], dl
  00026	8a 50 01	 mov	 dl, BYTE PTR [eax+1]
  00029	84 d2		 test	 dl, dl
  0002b	0f 84 75 01 00
	00		 je	 $LN95@LoadInt_e
  00031	80 f2 ec	 xor	 dl, -20			; ffffffecH
  00034	88 55 e9	 mov	 BYTE PTR __k$[ebp+1], dl
  00037	8a 50 02	 mov	 dl, BYTE PTR [eax+2]
  0003a	84 d2		 test	 dl, dl
  0003c	0f 84 5e 01 00
	00		 je	 $LN94@LoadInt_e
  00042	b1 eb		 mov	 cl, -21			; ffffffebH
  00044	32 d1		 xor	 dl, cl
  00046	88 55 ea	 mov	 BYTE PTR __k$[ebp+2], dl
  00049	8a 50 03	 mov	 dl, BYTE PTR [eax+3]
  0004c	84 d2		 test	 dl, dl
  0004e	0f 84 46 01 00
	00		 je	 $LN93@LoadInt_e
  00054	80 f2 ea	 xor	 dl, -22			; ffffffeaH
  00057	88 55 eb	 mov	 BYTE PTR __k$[ebp+3], dl
  0005a	8a 50 04	 mov	 dl, BYTE PTR [eax+4]
  0005d	84 d2		 test	 dl, dl
  0005f	0f 84 2f 01 00
	00		 je	 $LN92@LoadInt_e
  00065	80 f2 ed	 xor	 dl, -19			; ffffffedH
  00068	88 55 ec	 mov	 BYTE PTR __k$[ebp+4], dl
  0006b	8a 50 05	 mov	 dl, BYTE PTR [eax+5]
  0006e	84 d2		 test	 dl, dl
  00070	0f 84 18 01 00
	00		 je	 $LN91@LoadInt_e
  00076	80 f2 ec	 xor	 dl, -20			; ffffffecH
  00079	88 55 ed	 mov	 BYTE PTR __k$[ebp+5], dl
  0007c	8a 50 06	 mov	 dl, BYTE PTR [eax+6]
  0007f	84 d2		 test	 dl, dl
  00081	0f 84 02 01 00
	00		 je	 $LN90@LoadInt_e
  00087	32 d1		 xor	 dl, cl
  00089	88 55 ee	 mov	 BYTE PTR __k$[ebp+6], dl
  0008c	8a 50 07	 mov	 dl, BYTE PTR [eax+7]
  0008f	84 d2		 test	 dl, dl
  00091	0f 84 ec 00 00
	00		 je	 $LN89@LoadInt_e
  00097	80 f2 ea	 xor	 dl, -22			; ffffffeaH
  0009a	88 55 ef	 mov	 BYTE PTR __k$[ebp+7], dl
  0009d	8a 50 08	 mov	 dl, BYTE PTR [eax+8]
  000a0	84 d2		 test	 dl, dl
  000a2	0f 84 d5 00 00
	00		 je	 $LN88@LoadInt_e
  000a8	80 f2 ed	 xor	 dl, -19			; ffffffedH
  000ab	88 55 f0	 mov	 BYTE PTR __k$[ebp+8], dl
  000ae	8a 50 09	 mov	 dl, BYTE PTR [eax+9]
  000b1	84 d2		 test	 dl, dl
  000b3	0f 84 be 00 00
	00		 je	 $LN87@LoadInt_e
  000b9	80 f2 ec	 xor	 dl, -20			; ffffffecH
  000bc	88 55 f1	 mov	 BYTE PTR __k$[ebp+9], dl
  000bf	8a 50 0a	 mov	 dl, BYTE PTR [eax+10]
  000c2	84 d2		 test	 dl, dl
  000c4	0f 84 a8 00 00
	00		 je	 $LN86@LoadInt_e
  000ca	32 d1		 xor	 dl, cl
  000cc	88 55 f2	 mov	 BYTE PTR __k$[ebp+10], dl
  000cf	8a 50 0b	 mov	 dl, BYTE PTR [eax+11]
  000d2	84 d2		 test	 dl, dl
  000d4	0f 84 92 00 00
	00		 je	 $LN85@LoadInt_e
  000da	80 f2 ea	 xor	 dl, -22			; ffffffeaH
  000dd	88 55 f3	 mov	 BYTE PTR __k$[ebp+11], dl
  000e0	8a 50 0c	 mov	 dl, BYTE PTR [eax+12]
  000e3	84 d2		 test	 dl, dl
  000e5	74 7f		 je	 SHORT $LN84@LoadInt_e
  000e7	80 f2 ed	 xor	 dl, -19			; ffffffedH
  000ea	88 55 f4	 mov	 BYTE PTR __k$[ebp+12], dl
  000ed	8a 50 0d	 mov	 dl, BYTE PTR [eax+13]
  000f0	84 d2		 test	 dl, dl
  000f2	74 6c		 je	 SHORT $LN83@LoadInt_e
  000f4	80 f2 ec	 xor	 dl, -20			; ffffffecH
  000f7	88 55 f5	 mov	 BYTE PTR __k$[ebp+13], dl
  000fa	8a 50 0e	 mov	 dl, BYTE PTR [eax+14]
  000fd	84 d2		 test	 dl, dl
  000ff	74 5a		 je	 SHORT $LN82@LoadInt_e
  00101	32 d1		 xor	 dl, cl
  00103	80 78 0f 00	 cmp	 BYTE PTR [eax+15], 0
  00107	88 55 f6	 mov	 BYTE PTR __k$[ebp+14], dl
  0010a	0f 84 a0 00 00
	00		 je	 $LN1@LoadInt_e
  00110	8a 50 10	 mov	 dl, BYTE PTR [eax+16]
  00113	84 d2		 test	 dl, dl
  00115	74 3e		 je	 SHORT $LN80@LoadInt_e
  00117	80 f2 ed	 xor	 dl, -19			; ffffffedH
  0011a	88 55 f8	 mov	 BYTE PTR __k$[ebp+16], dl
  0011d	8a 50 11	 mov	 dl, BYTE PTR [eax+17]
  00120	84 d2		 test	 dl, dl
  00122	74 2b		 je	 SHORT $LN79@LoadInt_e
  00124	80 f2 ec	 xor	 dl, -20			; ffffffecH
  00127	88 55 f9	 mov	 BYTE PTR __k$[ebp+17], dl
  0012a	8a 50 12	 mov	 dl, BYTE PTR [eax+18]
  0012d	84 d2		 test	 dl, dl
  0012f	74 19		 je	 SHORT $LN78@LoadInt_e
  00131	8a 40 13	 mov	 al, BYTE PTR [eax+19]
  00134	32 d1		 xor	 dl, cl
  00136	88 55 fa	 mov	 BYTE PTR __k$[ebp+18], dl
  00139	84 c0		 test	 al, al
  0013b	74 07		 je	 SHORT $LN77@LoadInt_e
  0013d	34 ea		 xor	 al, -22			; ffffffeaH
  0013f	88 45 fb	 mov	 BYTE PTR __k$[ebp+19], al
  00142	eb 6c		 jmp	 SHORT $LN1@LoadInt_e
$LN77@LoadInt_e:
  00144	c6 45 fb ea	 mov	 BYTE PTR __k$[ebp+19], -22 ; ffffffeaH
  00148	eb 66		 jmp	 SHORT $LN1@LoadInt_e
$LN78@LoadInt_e:
  0014a	88 4d fa	 mov	 BYTE PTR __k$[ebp+18], cl
  0014d	eb 61		 jmp	 SHORT $LN1@LoadInt_e
$LN79@LoadInt_e:
  0014f	c6 45 f9 ec	 mov	 BYTE PTR __k$[ebp+17], -20 ; ffffffecH
  00153	eb 5b		 jmp	 SHORT $LN1@LoadInt_e
$LN80@LoadInt_e:
  00155	c6 45 f8 ed	 mov	 BYTE PTR __k$[ebp+16], -19 ; ffffffedH
  00159	eb 55		 jmp	 SHORT $LN1@LoadInt_e
$LN82@LoadInt_e:
  0015b	88 4d f6	 mov	 BYTE PTR __k$[ebp+14], cl
  0015e	eb 50		 jmp	 SHORT $LN1@LoadInt_e
$LN83@LoadInt_e:
  00160	c6 45 f5 ec	 mov	 BYTE PTR __k$[ebp+13], -20 ; ffffffecH
  00164	eb 4a		 jmp	 SHORT $LN1@LoadInt_e
$LN84@LoadInt_e:
  00166	c6 45 f4 ed	 mov	 BYTE PTR __k$[ebp+12], -19 ; ffffffedH
  0016a	eb 44		 jmp	 SHORT $LN1@LoadInt_e
$LN85@LoadInt_e:
  0016c	c6 45 f3 ea	 mov	 BYTE PTR __k$[ebp+11], -22 ; ffffffeaH
  00170	eb 3e		 jmp	 SHORT $LN1@LoadInt_e
$LN86@LoadInt_e:
  00172	88 4d f2	 mov	 BYTE PTR __k$[ebp+10], cl
  00175	eb 39		 jmp	 SHORT $LN1@LoadInt_e
$LN87@LoadInt_e:
  00177	c6 45 f1 ec	 mov	 BYTE PTR __k$[ebp+9], -20 ; ffffffecH
  0017b	eb 33		 jmp	 SHORT $LN1@LoadInt_e
$LN88@LoadInt_e:
  0017d	c6 45 f0 ed	 mov	 BYTE PTR __k$[ebp+8], -19 ; ffffffedH
  00181	eb 2d		 jmp	 SHORT $LN1@LoadInt_e
$LN89@LoadInt_e:
  00183	c6 45 ef ea	 mov	 BYTE PTR __k$[ebp+7], -22 ; ffffffeaH
  00187	eb 27		 jmp	 SHORT $LN1@LoadInt_e
$LN90@LoadInt_e:
  00189	88 4d ee	 mov	 BYTE PTR __k$[ebp+6], cl
  0018c	eb 22		 jmp	 SHORT $LN1@LoadInt_e
$LN91@LoadInt_e:
  0018e	c6 45 ed ec	 mov	 BYTE PTR __k$[ebp+5], -20 ; ffffffecH
  00192	eb 1c		 jmp	 SHORT $LN1@LoadInt_e
$LN92@LoadInt_e:
  00194	c6 45 ec ed	 mov	 BYTE PTR __k$[ebp+4], -19 ; ffffffedH
  00198	eb 16		 jmp	 SHORT $LN1@LoadInt_e
$LN93@LoadInt_e:
  0019a	c6 45 eb ea	 mov	 BYTE PTR __k$[ebp+3], -22 ; ffffffeaH
  0019e	eb 10		 jmp	 SHORT $LN1@LoadInt_e
$LN94@LoadInt_e:
  001a0	c6 45 ea eb	 mov	 BYTE PTR __k$[ebp+2], -21 ; ffffffebH
  001a4	eb 0a		 jmp	 SHORT $LN1@LoadInt_e
$LN95@LoadInt_e:
  001a6	c6 45 e9 ec	 mov	 BYTE PTR __k$[ebp+1], -20 ; ffffffecH
  001aa	eb 04		 jmp	 SHORT $LN1@LoadInt_e
$LN96@LoadInt_e:
  001ac	c6 45 e8 ed	 mov	 BYTE PTR __k$[ebp], -19	; ffffffedH
$LN1@LoadInt_e:
  001b0	6a 03		 push	 3
  001b2	8d 45 e8	 lea	 eax, DWORD PTR __k$[ebp]
  001b5	c6 45 f7 00	 mov	 BYTE PTR __k$[ebp+15], 0
  001b9	5a		 pop	 edx
$LL104@LoadInt_e:
  001ba	81 30 ed ec eb
	ea		 xor	 DWORD PTR [eax], -353637139 ; eaebecedH
  001c0	83 c0 04	 add	 eax, 4
  001c3	4a		 dec	 edx
  001c4	75 f4		 jne	 SHORT $LL104@LoadInt_e
  001c6	6a 0c		 push	 12			; 0000000cH
  001c8	58		 pop	 eax
$LL101@LoadInt_e:
  001c9	8b c8		 mov	 ecx, eax
  001cb	81 e1 03 00 00
	80		 and	 ecx, -2147483645	; 80000003H
  001d1	79 05		 jns	 SHORT $LN111@LoadInt_e
  001d3	49		 dec	 ecx
  001d4	83 c9 fc	 or	 ecx, -4			; fffffffcH
  001d7	41		 inc	 ecx
$LN111@LoadInt_e:
  001d8	b2 ed		 mov	 dl, -19			; ffffffedH
  001da	2a d1		 sub	 dl, cl
  001dc	30 54 05 e8	 xor	 BYTE PTR __k$[ebp+eax], dl
  001e0	40		 inc	 eax
  001e1	83 f8 0f	 cmp	 eax, 15			; 0000000fH
  001e4	7c e3		 jl	 SHORT $LL101@LoadInt_e

; 120  : 		return LoadInt(_k, i);

  001e6	ff 75 0c	 push	 DWORD PTR _i$[ebp]
  001e9	8d 45 e8	 lea	 eax, DWORD PTR __k$[ebp]
  001ec	50		 push	 eax
  001ed	8b ce		 mov	 ecx, esi
  001ef	ff 15 00 00 00
	00		 call	 DWORD PTR __imp_?LoadInt@ioINILoader@@QAEHPBDH@Z

; 121  : 	}

  001f5	8b 4d fc	 mov	 ecx, DWORD PTR __$ArrayPad$[ebp]
  001f8	33 cd		 xor	 ecx, ebp
  001fa	5e		 pop	 esi
  001fb	e8 00 00 00 00	 call	 @__security_check_cookie@4
  00200	c9		 leave
  00201	c2 08 00	 ret	 8
??$LoadInt_e@$0BA@@ioINILoader@@QAEHAAY0BA@$$CBDH@Z ENDP ; ioINILoader::LoadInt_e<16>
_TEXT	ENDS
PUBLIC	__$ArrayPad$
PUBLIC	??$LoadInt_e@$0O@@ioINILoader@@QAEHAAY0O@$$CBDH@Z ; ioINILoader::LoadInt_e<14>
; Function compile flags: /Ogsp
;	COMDAT ??$LoadInt_e@$0O@@ioINILoader@@QAEHAAY0O@$$CBDH@Z
_TEXT	SEGMENT
__k$ = -24						; size = 14
__$ArrayPad$ = -4					; size = 4
_k$ = 8							; size = 4
_i$ = 12						; size = 4
??$LoadInt_e@$0O@@ioINILoader@@QAEHAAY0O@$$CBDH@Z PROC	; ioINILoader::LoadInt_e<14>, COMDAT
; _this$ = ecx

; 118  : 	{

  00000	55		 push	 ebp
  00001	8b ec		 mov	 ebp, esp
  00003	83 ec 18	 sub	 esp, 24			; 00000018H
  00006	a1 00 00 00 00	 mov	 eax, DWORD PTR ___security_cookie
  0000b	33 c5		 xor	 eax, ebp
  0000d	89 45 fc	 mov	 DWORD PTR __$ArrayPad$[ebp], eax
  00010	8b 45 08	 mov	 eax, DWORD PTR _k$[ebp]

; 119  : 		_ENCSTR(k, _k);

  00013	8a 10		 mov	 dl, BYTE PTR [eax]
  00015	56		 push	 esi
  00016	8b f1		 mov	 esi, ecx
  00018	84 d2		 test	 dl, dl
  0001a	0f 84 64 01 00
	00		 je	 $LN96@LoadInt_e@2
  00020	80 f2 ed	 xor	 dl, -19			; ffffffedH
  00023	88 55 e8	 mov	 BYTE PTR __k$[ebp], dl
  00026	8a 50 01	 mov	 dl, BYTE PTR [eax+1]
  00029	84 d2		 test	 dl, dl
  0002b	0f 84 4d 01 00
	00		 je	 $LN95@LoadInt_e@2
  00031	80 f2 ec	 xor	 dl, -20			; ffffffecH
  00034	88 55 e9	 mov	 BYTE PTR __k$[ebp+1], dl
  00037	8a 50 02	 mov	 dl, BYTE PTR [eax+2]
  0003a	84 d2		 test	 dl, dl
  0003c	0f 84 36 01 00
	00		 je	 $LN94@LoadInt_e@2
  00042	b1 eb		 mov	 cl, -21			; ffffffebH
  00044	32 d1		 xor	 dl, cl
  00046	88 55 ea	 mov	 BYTE PTR __k$[ebp+2], dl
  00049	8a 50 03	 mov	 dl, BYTE PTR [eax+3]
  0004c	84 d2		 test	 dl, dl
  0004e	0f 84 1e 01 00
	00		 je	 $LN93@LoadInt_e@2
  00054	80 f2 ea	 xor	 dl, -22			; ffffffeaH
  00057	88 55 eb	 mov	 BYTE PTR __k$[ebp+3], dl
  0005a	8a 50 04	 mov	 dl, BYTE PTR [eax+4]
  0005d	84 d2		 test	 dl, dl
  0005f	0f 84 07 01 00
	00		 je	 $LN92@LoadInt_e@2
  00065	80 f2 ed	 xor	 dl, -19			; ffffffedH
  00068	88 55 ec	 mov	 BYTE PTR __k$[ebp+4], dl
  0006b	8a 50 05	 mov	 dl, BYTE PTR [eax+5]
  0006e	84 d2		 test	 dl, dl
  00070	0f 84 f0 00 00
	00		 je	 $LN91@LoadInt_e@2
  00076	80 f2 ec	 xor	 dl, -20			; ffffffecH
  00079	88 55 ed	 mov	 BYTE PTR __k$[ebp+5], dl
  0007c	8a 50 06	 mov	 dl, BYTE PTR [eax+6]
  0007f	84 d2		 test	 dl, dl
  00081	0f 84 da 00 00
	00		 je	 $LN90@LoadInt_e@2
  00087	32 d1		 xor	 dl, cl
  00089	88 55 ee	 mov	 BYTE PTR __k$[ebp+6], dl
  0008c	8a 50 07	 mov	 dl, BYTE PTR [eax+7]
  0008f	84 d2		 test	 dl, dl
  00091	0f 84 c4 00 00
	00		 je	 $LN89@LoadInt_e@2
  00097	80 f2 ea	 xor	 dl, -22			; ffffffeaH
  0009a	88 55 ef	 mov	 BYTE PTR __k$[ebp+7], dl
  0009d	8a 50 08	 mov	 dl, BYTE PTR [eax+8]
  000a0	84 d2		 test	 dl, dl
  000a2	0f 84 ad 00 00
	00		 je	 $LN88@LoadInt_e@2
  000a8	80 f2 ed	 xor	 dl, -19			; ffffffedH
  000ab	88 55 f0	 mov	 BYTE PTR __k$[ebp+8], dl
  000ae	8a 50 09	 mov	 dl, BYTE PTR [eax+9]
  000b1	84 d2		 test	 dl, dl
  000b3	0f 84 96 00 00
	00		 je	 $LN87@LoadInt_e@2
  000b9	80 f2 ec	 xor	 dl, -20			; ffffffecH
  000bc	88 55 f1	 mov	 BYTE PTR __k$[ebp+9], dl
  000bf	8a 50 0a	 mov	 dl, BYTE PTR [eax+10]
  000c2	84 d2		 test	 dl, dl
  000c4	0f 84 80 00 00
	00		 je	 $LN86@LoadInt_e@2
  000ca	32 d1		 xor	 dl, cl
  000cc	88 55 f2	 mov	 BYTE PTR __k$[ebp+10], dl
  000cf	8a 50 0b	 mov	 dl, BYTE PTR [eax+11]
  000d2	84 d2		 test	 dl, dl
  000d4	74 6e		 je	 SHORT $LN85@LoadInt_e@2
  000d6	80 f2 ea	 xor	 dl, -22			; ffffffeaH
  000d9	88 55 f3	 mov	 BYTE PTR __k$[ebp+11], dl
  000dc	8a 50 0c	 mov	 dl, BYTE PTR [eax+12]
  000df	84 d2		 test	 dl, dl
  000e1	74 5b		 je	 SHORT $LN84@LoadInt_e@2
  000e3	80 f2 ed	 xor	 dl, -19			; ffffffedH
  000e6	80 78 0d 00	 cmp	 BYTE PTR [eax+13], 0
  000ea	88 55 f4	 mov	 BYTE PTR __k$[ebp+12], dl
  000ed	0f 84 95 00 00
	00		 je	 $LN1@LoadInt_e@2
  000f3	8a 50 0e	 mov	 dl, BYTE PTR [eax+14]
  000f6	84 d2		 test	 dl, dl
  000f8	74 3f		 je	 SHORT $LN82@LoadInt_e@2
  000fa	32 d1		 xor	 dl, cl
  000fc	88 55 f6	 mov	 BYTE PTR __k$[ebp+14], dl
  000ff	8a 50 0f	 mov	 dl, BYTE PTR [eax+15]
  00102	84 d2		 test	 dl, dl
  00104	74 2d		 je	 SHORT $LN81@LoadInt_e@2
  00106	80 f2 ea	 xor	 dl, -22			; ffffffeaH
  00109	88 55 f7	 mov	 BYTE PTR __k$[ebp+15], dl
  0010c	8a 50 10	 mov	 dl, BYTE PTR [eax+16]
  0010f	84 d2		 test	 dl, dl
  00111	74 1a		 je	 SHORT $LN80@LoadInt_e@2
  00113	8a 40 11	 mov	 al, BYTE PTR [eax+17]
  00116	80 f2 ed	 xor	 dl, -19			; ffffffedH
  00119	88 55 f8	 mov	 BYTE PTR __k$[ebp+16], dl
  0011c	84 c0		 test	 al, al
  0011e	74 07		 je	 SHORT $LN79@LoadInt_e@2
  00120	34 ec		 xor	 al, -20			; ffffffecH
  00122	88 45 f9	 mov	 BYTE PTR __k$[ebp+17], al
  00125	eb 61		 jmp	 SHORT $LN1@LoadInt_e@2
$LN79@LoadInt_e@2:
  00127	c6 45 f9 ec	 mov	 BYTE PTR __k$[ebp+17], -20 ; ffffffecH
  0012b	eb 5b		 jmp	 SHORT $LN1@LoadInt_e@2
$LN80@LoadInt_e@2:
  0012d	c6 45 f8 ed	 mov	 BYTE PTR __k$[ebp+16], -19 ; ffffffedH
  00131	eb 55		 jmp	 SHORT $LN1@LoadInt_e@2
$LN81@LoadInt_e@2:
  00133	c6 45 f7 ea	 mov	 BYTE PTR __k$[ebp+15], -22 ; ffffffeaH
  00137	eb 4f		 jmp	 SHORT $LN1@LoadInt_e@2
$LN82@LoadInt_e@2:
  00139	88 4d f6	 mov	 BYTE PTR __k$[ebp+14], cl
  0013c	eb 4a		 jmp	 SHORT $LN1@LoadInt_e@2
$LN84@LoadInt_e@2:
  0013e	c6 45 f4 ed	 mov	 BYTE PTR __k$[ebp+12], -19 ; ffffffedH
  00142	eb 44		 jmp	 SHORT $LN1@LoadInt_e@2
$LN85@LoadInt_e@2:
  00144	c6 45 f3 ea	 mov	 BYTE PTR __k$[ebp+11], -22 ; ffffffeaH
  00148	eb 3e		 jmp	 SHORT $LN1@LoadInt_e@2
$LN86@LoadInt_e@2:
  0014a	88 4d f2	 mov	 BYTE PTR __k$[ebp+10], cl
  0014d	eb 39		 jmp	 SHORT $LN1@LoadInt_e@2
$LN87@LoadInt_e@2:
  0014f	c6 45 f1 ec	 mov	 BYTE PTR __k$[ebp+9], -20 ; ffffffecH
  00153	eb 33		 jmp	 SHORT $LN1@LoadInt_e@2
$LN88@LoadInt_e@2:
  00155	c6 45 f0 ed	 mov	 BYTE PTR __k$[ebp+8], -19 ; ffffffedH
  00159	eb 2d		 jmp	 SHORT $LN1@LoadInt_e@2
$LN89@LoadInt_e@2:
  0015b	c6 45 ef ea	 mov	 BYTE PTR __k$[ebp+7], -22 ; ffffffeaH
  0015f	eb 27		 jmp	 SHORT $LN1@LoadInt_e@2
$LN90@LoadInt_e@2:
  00161	88 4d ee	 mov	 BYTE PTR __k$[ebp+6], cl
  00164	eb 22		 jmp	 SHORT $LN1@LoadInt_e@2
$LN91@LoadInt_e@2:
  00166	c6 45 ed ec	 mov	 BYTE PTR __k$[ebp+5], -20 ; ffffffecH
  0016a	eb 1c		 jmp	 SHORT $LN1@LoadInt_e@2
$LN92@LoadInt_e@2:
  0016c	c6 45 ec ed	 mov	 BYTE PTR __k$[ebp+4], -19 ; ffffffedH
  00170	eb 16		 jmp	 SHORT $LN1@LoadInt_e@2
$LN93@LoadInt_e@2:
  00172	c6 45 eb ea	 mov	 BYTE PTR __k$[ebp+3], -22 ; ffffffeaH
  00176	eb 10		 jmp	 SHORT $LN1@LoadInt_e@2
$LN94@LoadInt_e@2:
  00178	c6 45 ea eb	 mov	 BYTE PTR __k$[ebp+2], -21 ; ffffffebH
  0017c	eb 0a		 jmp	 SHORT $LN1@LoadInt_e@2
$LN95@LoadInt_e@2:
  0017e	c6 45 e9 ec	 mov	 BYTE PTR __k$[ebp+1], -20 ; ffffffecH
  00182	eb 04		 jmp	 SHORT $LN1@LoadInt_e@2
$LN96@LoadInt_e@2:
  00184	c6 45 e8 ed	 mov	 BYTE PTR __k$[ebp], -19	; ffffffedH
$LN1@LoadInt_e@2:
  00188	6a 03		 push	 3
  0018a	8d 45 e8	 lea	 eax, DWORD PTR __k$[ebp]
  0018d	c6 45 f5 00	 mov	 BYTE PTR __k$[ebp+13], 0
  00191	5a		 pop	 edx
$LL104@LoadInt_e@2:
  00192	81 30 ed ec eb
	ea		 xor	 DWORD PTR [eax], -353637139 ; eaebecedH
  00198	83 c0 04	 add	 eax, 4
  0019b	4a		 dec	 edx
  0019c	75 f4		 jne	 SHORT $LL104@LoadInt_e@2

; 120  : 		return LoadInt(_k, i);

  0019e	ff 75 0c	 push	 DWORD PTR _i$[ebp]
  001a1	80 75 f4 ed	 xor	 BYTE PTR __k$[ebp+12], -19 ; ffffffedH
  001a5	8d 45 e8	 lea	 eax, DWORD PTR __k$[ebp]
  001a8	50		 push	 eax
  001a9	8b ce		 mov	 ecx, esi
  001ab	ff 15 00 00 00
	00		 call	 DWORD PTR __imp_?LoadInt@ioINILoader@@QAEHPBDH@Z

; 121  : 	}

  001b1	8b 4d fc	 mov	 ecx, DWORD PTR __$ArrayPad$[ebp]
  001b4	33 cd		 xor	 ecx, ebp
  001b6	5e		 pop	 esi
  001b7	e8 00 00 00 00	 call	 @__security_check_cookie@4
  001bc	c9		 leave
  001bd	c2 08 00	 ret	 8
??$LoadInt_e@$0O@@ioINILoader@@QAEHAAY0O@$$CBDH@Z ENDP	; ioINILoader::LoadInt_e<14>
_TEXT	ENDS
PUBLIC	__$ArrayPad$
PUBLIC	??$SetTitle_e@$0M@@ioINILoader@@QAEXAAY0M@$$CBD@Z ; ioINILoader::SetTitle_e<12>
; Function compile flags: /Ogsp
;	COMDAT ??$SetTitle_e@$0M@@ioINILoader@@QAEXAAY0M@$$CBD@Z
_TEXT	SEGMENT
__t$ = -20						; size = 12
__$ArrayPad$ = -4					; size = 4
_t$ = 8							; size = 4
??$SetTitle_e@$0M@@ioINILoader@@QAEXAAY0M@$$CBD@Z PROC	; ioINILoader::SetTitle_e<12>, COMDAT
; _this$ = ecx

; 188  : 	{

  00000	55		 push	 ebp
  00001	8b ec		 mov	 ebp, esp
  00003	83 ec 14	 sub	 esp, 20			; 00000014H
  00006	a1 00 00 00 00	 mov	 eax, DWORD PTR ___security_cookie
  0000b	33 c5		 xor	 eax, ebp
  0000d	89 45 fc	 mov	 DWORD PTR __$ArrayPad$[ebp], eax
  00010	8b 45 08	 mov	 eax, DWORD PTR _t$[ebp]

; 189  : 		_ENCSTR(t, _t);

  00013	8a 10		 mov	 dl, BYTE PTR [eax]
  00015	56		 push	 esi
  00016	8b f1		 mov	 esi, ecx
  00018	84 d2		 test	 dl, dl
  0001a	0f 84 32 01 00
	00		 je	 $LN96@SetTitle_e@2
  00020	80 f2 ed	 xor	 dl, -19			; ffffffedH
  00023	88 55 ec	 mov	 BYTE PTR __t$[ebp], dl
  00026	8a 50 01	 mov	 dl, BYTE PTR [eax+1]
  00029	84 d2		 test	 dl, dl
  0002b	0f 84 1b 01 00
	00		 je	 $LN95@SetTitle_e@2
  00031	80 f2 ec	 xor	 dl, -20			; ffffffecH
  00034	88 55 ed	 mov	 BYTE PTR __t$[ebp+1], dl
  00037	8a 50 02	 mov	 dl, BYTE PTR [eax+2]
  0003a	84 d2		 test	 dl, dl
  0003c	0f 84 04 01 00
	00		 je	 $LN94@SetTitle_e@2
  00042	b1 eb		 mov	 cl, -21			; ffffffebH
  00044	32 d1		 xor	 dl, cl
  00046	88 55 ee	 mov	 BYTE PTR __t$[ebp+2], dl
  00049	8a 50 03	 mov	 dl, BYTE PTR [eax+3]
  0004c	84 d2		 test	 dl, dl
  0004e	0f 84 ec 00 00
	00		 je	 $LN93@SetTitle_e@2
  00054	80 f2 ea	 xor	 dl, -22			; ffffffeaH
  00057	88 55 ef	 mov	 BYTE PTR __t$[ebp+3], dl
  0005a	8a 50 04	 mov	 dl, BYTE PTR [eax+4]
  0005d	84 d2		 test	 dl, dl
  0005f	0f 84 d5 00 00
	00		 je	 $LN92@SetTitle_e@2
  00065	80 f2 ed	 xor	 dl, -19			; ffffffedH
  00068	88 55 f0	 mov	 BYTE PTR __t$[ebp+4], dl
  0006b	8a 50 05	 mov	 dl, BYTE PTR [eax+5]
  0006e	84 d2		 test	 dl, dl
  00070	0f 84 be 00 00
	00		 je	 $LN91@SetTitle_e@2
  00076	80 f2 ec	 xor	 dl, -20			; ffffffecH
  00079	88 55 f1	 mov	 BYTE PTR __t$[ebp+5], dl
  0007c	8a 50 06	 mov	 dl, BYTE PTR [eax+6]
  0007f	84 d2		 test	 dl, dl
  00081	0f 84 a8 00 00
	00		 je	 $LN90@SetTitle_e@2
  00087	32 d1		 xor	 dl, cl
  00089	88 55 f2	 mov	 BYTE PTR __t$[ebp+6], dl
  0008c	8a 50 07	 mov	 dl, BYTE PTR [eax+7]
  0008f	84 d2		 test	 dl, dl
  00091	0f 84 92 00 00
	00		 je	 $LN89@SetTitle_e@2
  00097	80 f2 ea	 xor	 dl, -22			; ffffffeaH
  0009a	88 55 f3	 mov	 BYTE PTR __t$[ebp+7], dl
  0009d	8a 50 08	 mov	 dl, BYTE PTR [eax+8]
  000a0	84 d2		 test	 dl, dl
  000a2	74 7f		 je	 SHORT $LN88@SetTitle_e@2
  000a4	80 f2 ed	 xor	 dl, -19			; ffffffedH
  000a7	88 55 f4	 mov	 BYTE PTR __t$[ebp+8], dl
  000aa	8a 50 09	 mov	 dl, BYTE PTR [eax+9]
  000ad	84 d2		 test	 dl, dl
  000af	74 6c		 je	 SHORT $LN87@SetTitle_e@2
  000b1	80 f2 ec	 xor	 dl, -20			; ffffffecH
  000b4	88 55 f5	 mov	 BYTE PTR __t$[ebp+9], dl
  000b7	8a 50 0a	 mov	 dl, BYTE PTR [eax+10]
  000ba	84 d2		 test	 dl, dl
  000bc	74 5a		 je	 SHORT $LN86@SetTitle_e@2
  000be	32 d1		 xor	 dl, cl
  000c0	80 78 0b 00	 cmp	 BYTE PTR [eax+11], 0
  000c4	88 55 f6	 mov	 BYTE PTR __t$[ebp+10], dl
  000c7	0f 84 89 00 00
	00		 je	 $LN1@SetTitle_e@2
  000cd	8a 50 0c	 mov	 dl, BYTE PTR [eax+12]
  000d0	84 d2		 test	 dl, dl
  000d2	74 3e		 je	 SHORT $LN84@SetTitle_e@2
  000d4	80 f2 ed	 xor	 dl, -19			; ffffffedH
  000d7	88 55 f8	 mov	 BYTE PTR __t$[ebp+12], dl
  000da	8a 50 0d	 mov	 dl, BYTE PTR [eax+13]
  000dd	84 d2		 test	 dl, dl
  000df	74 2b		 je	 SHORT $LN83@SetTitle_e@2
  000e1	80 f2 ec	 xor	 dl, -20			; ffffffecH
  000e4	88 55 f9	 mov	 BYTE PTR __t$[ebp+13], dl
  000e7	8a 50 0e	 mov	 dl, BYTE PTR [eax+14]
  000ea	84 d2		 test	 dl, dl
  000ec	74 19		 je	 SHORT $LN82@SetTitle_e@2
  000ee	8a 40 0f	 mov	 al, BYTE PTR [eax+15]
  000f1	32 d1		 xor	 dl, cl
  000f3	88 55 fa	 mov	 BYTE PTR __t$[ebp+14], dl
  000f6	84 c0		 test	 al, al
  000f8	74 07		 je	 SHORT $LN81@SetTitle_e@2
  000fa	34 ea		 xor	 al, -22			; ffffffeaH
  000fc	88 45 fb	 mov	 BYTE PTR __t$[ebp+15], al
  000ff	eb 55		 jmp	 SHORT $LN1@SetTitle_e@2
$LN81@SetTitle_e@2:
  00101	c6 45 fb ea	 mov	 BYTE PTR __t$[ebp+15], -22 ; ffffffeaH
  00105	eb 4f		 jmp	 SHORT $LN1@SetTitle_e@2
$LN82@SetTitle_e@2:
  00107	88 4d fa	 mov	 BYTE PTR __t$[ebp+14], cl
  0010a	eb 4a		 jmp	 SHORT $LN1@SetTitle_e@2
$LN83@SetTitle_e@2:
  0010c	c6 45 f9 ec	 mov	 BYTE PTR __t$[ebp+13], -20 ; ffffffecH
  00110	eb 44		 jmp	 SHORT $LN1@SetTitle_e@2
$LN84@SetTitle_e@2:
  00112	c6 45 f8 ed	 mov	 BYTE PTR __t$[ebp+12], -19 ; ffffffedH
  00116	eb 3e		 jmp	 SHORT $LN1@SetTitle_e@2
$LN86@SetTitle_e@2:
  00118	88 4d f6	 mov	 BYTE PTR __t$[ebp+10], cl
  0011b	eb 39		 jmp	 SHORT $LN1@SetTitle_e@2
$LN87@SetTitle_e@2:
  0011d	c6 45 f5 ec	 mov	 BYTE PTR __t$[ebp+9], -20 ; ffffffecH
  00121	eb 33		 jmp	 SHORT $LN1@SetTitle_e@2
$LN88@SetTitle_e@2:
  00123	c6 45 f4 ed	 mov	 BYTE PTR __t$[ebp+8], -19 ; ffffffedH
  00127	eb 2d		 jmp	 SHORT $LN1@SetTitle_e@2
$LN89@SetTitle_e@2:
  00129	c6 45 f3 ea	 mov	 BYTE PTR __t$[ebp+7], -22 ; ffffffeaH
  0012d	eb 27		 jmp	 SHORT $LN1@SetTitle_e@2
$LN90@SetTitle_e@2:
  0012f	88 4d f2	 mov	 BYTE PTR __t$[ebp+6], cl
  00132	eb 22		 jmp	 SHORT $LN1@SetTitle_e@2
$LN91@SetTitle_e@2:
  00134	c6 45 f1 ec	 mov	 BYTE PTR __t$[ebp+5], -20 ; ffffffecH
  00138	eb 1c		 jmp	 SHORT $LN1@SetTitle_e@2
$LN92@SetTitle_e@2:
  0013a	c6 45 f0 ed	 mov	 BYTE PTR __t$[ebp+4], -19 ; ffffffedH
  0013e	eb 16		 jmp	 SHORT $LN1@SetTitle_e@2
$LN93@SetTitle_e@2:
  00140	c6 45 ef ea	 mov	 BYTE PTR __t$[ebp+3], -22 ; ffffffeaH
  00144	eb 10		 jmp	 SHORT $LN1@SetTitle_e@2
$LN94@SetTitle_e@2:
  00146	c6 45 ee eb	 mov	 BYTE PTR __t$[ebp+2], -21 ; ffffffebH
  0014a	eb 0a		 jmp	 SHORT $LN1@SetTitle_e@2
$LN95@SetTitle_e@2:
  0014c	c6 45 ed ec	 mov	 BYTE PTR __t$[ebp+1], -20 ; ffffffecH
  00150	eb 04		 jmp	 SHORT $LN1@SetTitle_e@2
$LN96@SetTitle_e@2:
  00152	c6 45 ec ed	 mov	 BYTE PTR __t$[ebp], -19	; ffffffedH
$LN1@SetTitle_e@2:
  00156	6a 02		 push	 2
  00158	8d 45 ec	 lea	 eax, DWORD PTR __t$[ebp]
  0015b	c6 45 f7 00	 mov	 BYTE PTR __t$[ebp+11], 0
  0015f	5a		 pop	 edx
$LL104@SetTitle_e@2:
  00160	81 30 ed ec eb
	ea		 xor	 DWORD PTR [eax], -353637139 ; eaebecedH
  00166	83 c0 04	 add	 eax, 4
  00169	4a		 dec	 edx
  0016a	75 f4		 jne	 SHORT $LL104@SetTitle_e@2
  0016c	6a 08		 push	 8
  0016e	58		 pop	 eax
$LL101@SetTitle_e@2:
  0016f	8b c8		 mov	 ecx, eax
  00171	81 e1 03 00 00
	80		 and	 ecx, -2147483645	; 80000003H
  00177	79 05		 jns	 SHORT $LN111@SetTitle_e@2
  00179	49		 dec	 ecx
  0017a	83 c9 fc	 or	 ecx, -4			; fffffffcH
  0017d	41		 inc	 ecx
$LN111@SetTitle_e@2:
  0017e	b2 ed		 mov	 dl, -19			; ffffffedH
  00180	2a d1		 sub	 dl, cl
  00182	30 54 05 ec	 xor	 BYTE PTR __t$[ebp+eax], dl
  00186	40		 inc	 eax
  00187	83 f8 0b	 cmp	 eax, 11			; 0000000bH
  0018a	7c e3		 jl	 SHORT $LL101@SetTitle_e@2

; 190  : 		SetTitle(_t);

  0018c	8d 45 ec	 lea	 eax, DWORD PTR __t$[ebp]
  0018f	50		 push	 eax
  00190	8b ce		 mov	 ecx, esi
  00192	ff 15 00 00 00
	00		 call	 DWORD PTR __imp_?SetTitle@ioINILoader@@QAEXPBD@Z

; 191  : 	}

  00198	8b 4d fc	 mov	 ecx, DWORD PTR __$ArrayPad$[ebp]
  0019b	33 cd		 xor	 ecx, ebp
  0019d	5e		 pop	 esi
  0019e	e8 00 00 00 00	 call	 @__security_check_cookie@4
  001a3	c9		 leave
  001a4	c2 04 00	 ret	 4
??$SetTitle_e@$0M@@ioINILoader@@QAEXAAY0M@$$CBD@Z ENDP	; ioINILoader::SetTitle_e<12>
_TEXT	ENDS
PUBLIC	__$ArrayPad$
PUBLIC	??$LoadInt_e@$0P@@ioINILoader@@QAEHAAY0P@$$CBDH@Z ; ioINILoader::LoadInt_e<15>
; Function compile flags: /Ogsp
;	COMDAT ??$LoadInt_e@$0P@@ioINILoader@@QAEHAAY0P@$$CBDH@Z
_TEXT	SEGMENT
__k$ = -24						; size = 15
__$ArrayPad$ = -4					; size = 4
_k$ = 8							; size = 4
_i$ = 12						; size = 4
??$LoadInt_e@$0P@@ioINILoader@@QAEHAAY0P@$$CBDH@Z PROC	; ioINILoader::LoadInt_e<15>, COMDAT
; _this$ = ecx

; 118  : 	{

  00000	55		 push	 ebp
  00001	8b ec		 mov	 ebp, esp
  00003	83 ec 18	 sub	 esp, 24			; 00000018H
  00006	a1 00 00 00 00	 mov	 eax, DWORD PTR ___security_cookie
  0000b	33 c5		 xor	 eax, ebp
  0000d	89 45 fc	 mov	 DWORD PTR __$ArrayPad$[ebp], eax
  00010	8b 45 08	 mov	 eax, DWORD PTR _k$[ebp]

; 119  : 		_ENCSTR(k, _k);

  00013	8a 10		 mov	 dl, BYTE PTR [eax]
  00015	56		 push	 esi
  00016	8b f1		 mov	 esi, ecx
  00018	84 d2		 test	 dl, dl
  0001a	0f 84 75 01 00
	00		 je	 $LN96@LoadInt_e@3
  00020	80 f2 ed	 xor	 dl, -19			; ffffffedH
  00023	88 55 e8	 mov	 BYTE PTR __k$[ebp], dl
  00026	8a 50 01	 mov	 dl, BYTE PTR [eax+1]
  00029	84 d2		 test	 dl, dl
  0002b	0f 84 5e 01 00
	00		 je	 $LN95@LoadInt_e@3
  00031	b1 ec		 mov	 cl, -20			; ffffffecH
  00033	32 d1		 xor	 dl, cl
  00035	88 55 e9	 mov	 BYTE PTR __k$[ebp+1], dl
  00038	8a 50 02	 mov	 dl, BYTE PTR [eax+2]
  0003b	84 d2		 test	 dl, dl
  0003d	0f 84 46 01 00
	00		 je	 $LN94@LoadInt_e@3
  00043	80 f2 eb	 xor	 dl, -21			; ffffffebH
  00046	88 55 ea	 mov	 BYTE PTR __k$[ebp+2], dl
  00049	8a 50 03	 mov	 dl, BYTE PTR [eax+3]
  0004c	84 d2		 test	 dl, dl
  0004e	0f 84 2f 01 00
	00		 je	 $LN93@LoadInt_e@3
  00054	80 f2 ea	 xor	 dl, -22			; ffffffeaH
  00057	88 55 eb	 mov	 BYTE PTR __k$[ebp+3], dl
  0005a	8a 50 04	 mov	 dl, BYTE PTR [eax+4]
  0005d	84 d2		 test	 dl, dl
  0005f	0f 84 18 01 00
	00		 je	 $LN92@LoadInt_e@3
  00065	80 f2 ed	 xor	 dl, -19			; ffffffedH
  00068	88 55 ec	 mov	 BYTE PTR __k$[ebp+4], dl
  0006b	8a 50 05	 mov	 dl, BYTE PTR [eax+5]
  0006e	84 d2		 test	 dl, dl
  00070	0f 84 02 01 00
	00		 je	 $LN91@LoadInt_e@3
  00076	32 d1		 xor	 dl, cl
  00078	88 55 ed	 mov	 BYTE PTR __k$[ebp+5], dl
  0007b	8a 50 06	 mov	 dl, BYTE PTR [eax+6]
  0007e	84 d2		 test	 dl, dl
  00080	0f 84 ec 00 00
	00		 je	 $LN90@LoadInt_e@3
  00086	80 f2 eb	 xor	 dl, -21			; ffffffebH
  00089	88 55 ee	 mov	 BYTE PTR __k$[ebp+6], dl
  0008c	8a 50 07	 mov	 dl, BYTE PTR [eax+7]
  0008f	84 d2		 test	 dl, dl
  00091	0f 84 d5 00 00
	00		 je	 $LN89@LoadInt_e@3
  00097	80 f2 ea	 xor	 dl, -22			; ffffffeaH
  0009a	88 55 ef	 mov	 BYTE PTR __k$[ebp+7], dl
  0009d	8a 50 08	 mov	 dl, BYTE PTR [eax+8]
  000a0	84 d2		 test	 dl, dl
  000a2	0f 84 be 00 00
	00		 je	 $LN88@LoadInt_e@3
  000a8	80 f2 ed	 xor	 dl, -19			; ffffffedH
  000ab	88 55 f0	 mov	 BYTE PTR __k$[ebp+8], dl
  000ae	8a 50 09	 mov	 dl, BYTE PTR [eax+9]
  000b1	84 d2		 test	 dl, dl
  000b3	0f 84 a8 00 00
	00		 je	 $LN87@LoadInt_e@3
  000b9	32 d1		 xor	 dl, cl
  000bb	88 55 f1	 mov	 BYTE PTR __k$[ebp+9], dl
  000be	8a 50 0a	 mov	 dl, BYTE PTR [eax+10]
  000c1	84 d2		 test	 dl, dl
  000c3	0f 84 92 00 00
	00		 je	 $LN86@LoadInt_e@3
  000c9	80 f2 eb	 xor	 dl, -21			; ffffffebH
  000cc	88 55 f2	 mov	 BYTE PTR __k$[ebp+10], dl
  000cf	8a 50 0b	 mov	 dl, BYTE PTR [eax+11]
  000d2	84 d2		 test	 dl, dl
  000d4	74 7f		 je	 SHORT $LN85@LoadInt_e@3
  000d6	80 f2 ea	 xor	 dl, -22			; ffffffeaH
  000d9	88 55 f3	 mov	 BYTE PTR __k$[ebp+11], dl
  000dc	8a 50 0c	 mov	 dl, BYTE PTR [eax+12]
  000df	84 d2		 test	 dl, dl
  000e1	74 6c		 je	 SHORT $LN84@LoadInt_e@3
  000e3	80 f2 ed	 xor	 dl, -19			; ffffffedH
  000e6	88 55 f4	 mov	 BYTE PTR __k$[ebp+12], dl
  000e9	8a 50 0d	 mov	 dl, BYTE PTR [eax+13]
  000ec	84 d2		 test	 dl, dl
  000ee	74 5a		 je	 SHORT $LN83@LoadInt_e@3
  000f0	32 d1		 xor	 dl, cl
  000f2	80 78 0e 00	 cmp	 BYTE PTR [eax+14], 0
  000f6	88 55 f5	 mov	 BYTE PTR __k$[ebp+13], dl
  000f9	0f 84 9a 00 00
	00		 je	 $LN1@LoadInt_e@3
  000ff	8a 50 0f	 mov	 dl, BYTE PTR [eax+15]
  00102	84 d2		 test	 dl, dl
  00104	74 3e		 je	 SHORT $LN81@LoadInt_e@3
  00106	80 f2 ea	 xor	 dl, -22			; ffffffeaH
  00109	88 55 f7	 mov	 BYTE PTR __k$[ebp+15], dl
  0010c	8a 50 10	 mov	 dl, BYTE PTR [eax+16]
  0010f	84 d2		 test	 dl, dl
  00111	74 2b		 je	 SHORT $LN80@LoadInt_e@3
  00113	80 f2 ed	 xor	 dl, -19			; ffffffedH
  00116	88 55 f8	 mov	 BYTE PTR __k$[ebp+16], dl
  00119	8a 50 11	 mov	 dl, BYTE PTR [eax+17]
  0011c	84 d2		 test	 dl, dl
  0011e	74 19		 je	 SHORT $LN79@LoadInt_e@3
  00120	8a 40 12	 mov	 al, BYTE PTR [eax+18]
  00123	32 d1		 xor	 dl, cl
  00125	88 55 f9	 mov	 BYTE PTR __k$[ebp+17], dl
  00128	84 c0		 test	 al, al
  0012a	74 07		 je	 SHORT $LN78@LoadInt_e@3
  0012c	34 eb		 xor	 al, -21			; ffffffebH
  0012e	88 45 fa	 mov	 BYTE PTR __k$[ebp+18], al
  00131	eb 66		 jmp	 SHORT $LN1@LoadInt_e@3
$LN78@LoadInt_e@3:
  00133	c6 45 fa eb	 mov	 BYTE PTR __k$[ebp+18], -21 ; ffffffebH
  00137	eb 60		 jmp	 SHORT $LN1@LoadInt_e@3
$LN79@LoadInt_e@3:
  00139	88 4d f9	 mov	 BYTE PTR __k$[ebp+17], cl
  0013c	eb 5b		 jmp	 SHORT $LN1@LoadInt_e@3
$LN80@LoadInt_e@3:
  0013e	c6 45 f8 ed	 mov	 BYTE PTR __k$[ebp+16], -19 ; ffffffedH
  00142	eb 55		 jmp	 SHORT $LN1@LoadInt_e@3
$LN81@LoadInt_e@3:
  00144	c6 45 f7 ea	 mov	 BYTE PTR __k$[ebp+15], -22 ; ffffffeaH
  00148	eb 4f		 jmp	 SHORT $LN1@LoadInt_e@3
$LN83@LoadInt_e@3:
  0014a	88 4d f5	 mov	 BYTE PTR __k$[ebp+13], cl
  0014d	eb 4a		 jmp	 SHORT $LN1@LoadInt_e@3
$LN84@LoadInt_e@3:
  0014f	c6 45 f4 ed	 mov	 BYTE PTR __k$[ebp+12], -19 ; ffffffedH
  00153	eb 44		 jmp	 SHORT $LN1@LoadInt_e@3
$LN85@LoadInt_e@3:
  00155	c6 45 f3 ea	 mov	 BYTE PTR __k$[ebp+11], -22 ; ffffffeaH
  00159	eb 3e		 jmp	 SHORT $LN1@LoadInt_e@3
$LN86@LoadInt_e@3:
  0015b	c6 45 f2 eb	 mov	 BYTE PTR __k$[ebp+10], -21 ; ffffffebH
  0015f	eb 38		 jmp	 SHORT $LN1@LoadInt_e@3
$LN87@LoadInt_e@3:
  00161	88 4d f1	 mov	 BYTE PTR __k$[ebp+9], cl
  00164	eb 33		 jmp	 SHORT $LN1@LoadInt_e@3
$LN88@LoadInt_e@3:
  00166	c6 45 f0 ed	 mov	 BYTE PTR __k$[ebp+8], -19 ; ffffffedH
  0016a	eb 2d		 jmp	 SHORT $LN1@LoadInt_e@3
$LN89@LoadInt_e@3:
  0016c	c6 45 ef ea	 mov	 BYTE PTR __k$[ebp+7], -22 ; ffffffeaH
  00170	eb 27		 jmp	 SHORT $LN1@LoadInt_e@3
$LN90@LoadInt_e@3:
  00172	c6 45 ee eb	 mov	 BYTE PTR __k$[ebp+6], -21 ; ffffffebH
  00176	eb 21		 jmp	 SHORT $LN1@LoadInt_e@3
$LN91@LoadInt_e@3:
  00178	88 4d ed	 mov	 BYTE PTR __k$[ebp+5], cl
  0017b	eb 1c		 jmp	 SHORT $LN1@LoadInt_e@3
$LN92@LoadInt_e@3:
  0017d	c6 45 ec ed	 mov	 BYTE PTR __k$[ebp+4], -19 ; ffffffedH
  00181	eb 16		 jmp	 SHORT $LN1@LoadInt_e@3
$LN93@LoadInt_e@3:
  00183	c6 45 eb ea	 mov	 BYTE PTR __k$[ebp+3], -22 ; ffffffeaH
  00187	eb 10		 jmp	 SHORT $LN1@LoadInt_e@3
$LN94@LoadInt_e@3:
  00189	c6 45 ea eb	 mov	 BYTE PTR __k$[ebp+2], -21 ; ffffffebH
  0018d	eb 0a		 jmp	 SHORT $LN1@LoadInt_e@3
$LN95@LoadInt_e@3:
  0018f	c6 45 e9 ec	 mov	 BYTE PTR __k$[ebp+1], -20 ; ffffffecH
  00193	eb 04		 jmp	 SHORT $LN1@LoadInt_e@3
$LN96@LoadInt_e@3:
  00195	c6 45 e8 ed	 mov	 BYTE PTR __k$[ebp], -19	; ffffffedH
$LN1@LoadInt_e@3:
  00199	6a 03		 push	 3
  0019b	8d 45 e8	 lea	 eax, DWORD PTR __k$[ebp]
  0019e	c6 45 f6 00	 mov	 BYTE PTR __k$[ebp+14], 0
  001a2	5a		 pop	 edx
$LL104@LoadInt_e@3:
  001a3	81 30 ed ec eb
	ea		 xor	 DWORD PTR [eax], -353637139 ; eaebecedH
  001a9	83 c0 04	 add	 eax, 4
  001ac	4a		 dec	 edx
  001ad	75 f4		 jne	 SHORT $LL104@LoadInt_e@3
  001af	6a 0c		 push	 12			; 0000000cH
  001b1	58		 pop	 eax
$LL101@LoadInt_e@3:
  001b2	8b c8		 mov	 ecx, eax
  001b4	81 e1 03 00 00
	80		 and	 ecx, -2147483645	; 80000003H
  001ba	79 05		 jns	 SHORT $LN111@LoadInt_e@3
  001bc	49		 dec	 ecx
  001bd	83 c9 fc	 or	 ecx, -4			; fffffffcH
  001c0	41		 inc	 ecx
$LN111@LoadInt_e@3:
  001c1	b2 ed		 mov	 dl, -19			; ffffffedH
  001c3	2a d1		 sub	 dl, cl
  001c5	30 54 05 e8	 xor	 BYTE PTR __k$[ebp+eax], dl
  001c9	40		 inc	 eax
  001ca	83 f8 0e	 cmp	 eax, 14			; 0000000eH
  001cd	7c e3		 jl	 SHORT $LL101@LoadInt_e@3

; 120  : 		return LoadInt(_k, i);

  001cf	ff 75 0c	 push	 DWORD PTR _i$[ebp]
  001d2	8d 45 e8	 lea	 eax, DWORD PTR __k$[ebp]
  001d5	50		 push	 eax
  001d6	8b ce		 mov	 ecx, esi
  001d8	ff 15 00 00 00
	00		 call	 DWORD PTR __imp_?LoadInt@ioINILoader@@QAEHPBDH@Z

; 121  : 	}

  001de	8b 4d fc	 mov	 ecx, DWORD PTR __$ArrayPad$[ebp]
  001e1	33 cd		 xor	 ecx, ebp
  001e3	5e		 pop	 esi
  001e4	e8 00 00 00 00	 call	 @__security_check_cookie@4
  001e9	c9		 leave
  001ea	c2 08 00	 ret	 8
??$LoadInt_e@$0P@@ioINILoader@@QAEHAAY0P@$$CBDH@Z ENDP	; ioINILoader::LoadInt_e<15>
_TEXT	ENDS
PUBLIC	??$_Cons_val@V?$allocator@VioHashString@@@std@@VioHashString@@V3@@std@@YAXAAV?$allocator@VioHashString@@@0@PAVioHashString@@$$QAV2@@Z ; std::_Cons_val<std::allocator<ioHashString>,ioHashString,ioHashString>
; Function compile flags: /Ogsp
; File c:\program files (x86)\microsoft visual studio 10.0\vc\include\xmemory
;	COMDAT ??$_Cons_val@V?$allocator@VioHashString@@@std@@VioHashString@@V3@@std@@YAXAAV?$allocator@VioHashString@@@0@PAVioHashString@@$$QAV2@@Z
_TEXT	SEGMENT
__Alval$ = 8						; size = 4
__Pdest$ = 12						; size = 4
__Src$ = 16						; size = 4
??$_Cons_val@V?$allocator@VioHashString@@@std@@VioHashString@@V3@@std@@YAXAAV?$allocator@VioHashString@@@0@PAVioHashString@@$$QAV2@@Z PROC ; std::_Cons_val<std::allocator<ioHashString>,ioHashString,ioHashString>, COMDAT

; 279  : 	{	// construct using allocator

  00000	55		 push	 ebp
  00001	8b ec		 mov	 ebp, esp

; 280  : 	_Alval.construct(_Pdest, _STD forward<_Ty2>(_Src));

  00003	ff 75 10	 push	 DWORD PTR __Src$[ebp]
  00006	8b 4d 08	 mov	 ecx, DWORD PTR __Alval$[ebp]
  00009	ff 75 0c	 push	 DWORD PTR __Pdest$[ebp]
  0000c	e8 00 00 00 00	 call	 ?construct@?$allocator@VioHashString@@@std@@QAEXPAVioHashString@@$$QAV3@@Z ; std::allocator<ioHashString>::construct

; 281  : 	}

  00011	5d		 pop	 ebp
  00012	c3		 ret	 0
??$_Cons_val@V?$allocator@VioHashString@@@std@@VioHashString@@V3@@std@@YAXAAV?$allocator@VioHashString@@@0@PAVioHashString@@$$QAV2@@Z ENDP ; std::_Cons_val<std::allocator<ioHashString>,ioHashString,ioHashString>
_TEXT	ENDS
PUBLIC	??$_Cons_val@V?$allocator@UtagNetworkInfo@CustomSoundData@@@std@@UtagNetworkInfo@CustomSoundData@@AAU34@@std@@YAXAAV?$allocator@UtagNetworkInfo@CustomSoundData@@@0@PAUtagNetworkInfo@CustomSoundData@@AAU23@@Z ; std::_Cons_val<std::allocator<CustomSoundData::tagNetworkInfo>,CustomSoundData::tagNetworkInfo,CustomSoundData::tagNetworkInfo &>
; Function compile flags: /Ogsp
;	COMDAT ??$_Cons_val@V?$allocator@UtagNetworkInfo@CustomSoundData@@@std@@UtagNetworkInfo@CustomSoundData@@AAU34@@std@@YAXAAV?$allocator@UtagNetworkInfo@CustomSoundData@@@0@PAUtagNetworkInfo@CustomSoundData@@AAU23@@Z
_TEXT	SEGMENT
__Alval$ = 8						; size = 4
__Pdest$ = 12						; size = 4
__Src$ = 16						; size = 4
??$_Cons_val@V?$allocator@UtagNetworkInfo@CustomSoundData@@@std@@UtagNetworkInfo@CustomSoundData@@AAU34@@std@@YAXAAV?$allocator@UtagNetworkInfo@CustomSoundData@@@0@PAUtagNetworkInfo@CustomSoundData@@AAU23@@Z PROC ; std::_Cons_val<std::allocator<CustomSoundData::tagNetworkInfo>,CustomSoundData::tagNetworkInfo,CustomSoundData::tagNetworkInfo &>, COMDAT

; 279  : 	{	// construct using allocator

  00000	55		 push	 ebp
  00001	8b ec		 mov	 ebp, esp

; 280  : 	_Alval.construct(_Pdest, _STD forward<_Ty2>(_Src));

  00003	8b 45 0c	 mov	 eax, DWORD PTR __Pdest$[ebp]
  00006	85 c0		 test	 eax, eax
  00008	74 0d		 je	 SHORT $LN7@Cons_val
  0000a	8b 4d 10	 mov	 ecx, DWORD PTR __Src$[ebp]
  0000d	8b 11		 mov	 edx, DWORD PTR [ecx]
  0000f	89 10		 mov	 DWORD PTR [eax], edx
  00011	8b 49 04	 mov	 ecx, DWORD PTR [ecx+4]
  00014	89 48 04	 mov	 DWORD PTR [eax+4], ecx
$LN7@Cons_val:

; 281  : 	}

  00017	5d		 pop	 ebp
  00018	c3		 ret	 0
??$_Cons_val@V?$allocator@UtagNetworkInfo@CustomSoundData@@@std@@UtagNetworkInfo@CustomSoundData@@AAU34@@std@@YAXAAV?$allocator@UtagNetworkInfo@CustomSoundData@@@0@PAUtagNetworkInfo@CustomSoundData@@AAU23@@Z ENDP ; std::_Cons_val<std::allocator<CustomSoundData::tagNetworkInfo>,CustomSoundData::tagNetworkInfo,CustomSoundData::tagNetworkInfo &>
_TEXT	ENDS
PUBLIC	??$_Cons_val@V?$allocator@PAUtagCustomSoundInfo@ioCustomSoundMgr@@@std@@PAUtagCustomSoundInfo@ioCustomSoundMgr@@AAPAU34@@std@@YAXAAV?$allocator@PAUtagCustomSoundInfo@ioCustomSoundMgr@@@0@PAPAUtagCustomSoundInfo@ioCustomSoundMgr@@AAPAU23@@Z ; std::_Cons_val<std::allocator<ioCustomSoundMgr::tagCustomSoundInfo *>,ioCustomSoundMgr::tagCustomSoundInfo *,ioCustomSoundMgr::tagCustomSoundInfo * &>
; Function compile flags: /Ogsp
;	COMDAT ??$_Cons_val@V?$allocator@PAUtagCustomSoundInfo@ioCustomSoundMgr@@@std@@PAUtagCustomSoundInfo@ioCustomSoundMgr@@AAPAU34@@std@@YAXAAV?$allocator@PAUtagCustomSoundInfo@ioCustomSoundMgr@@@0@PAPAUtagCustomSoundInfo@ioCustomSoundMgr@@AAPAU23@@Z
_TEXT	SEGMENT
__Alval$ = 8						; size = 4
__Pdest$ = 12						; size = 4
__Src$ = 16						; size = 4
??$_Cons_val@V?$allocator@PAUtagCustomSoundInfo@ioCustomSoundMgr@@@std@@PAUtagCustomSoundInfo@ioCustomSoundMgr@@AAPAU34@@std@@YAXAAV?$allocator@PAUtagCustomSoundInfo@ioCustomSoundMgr@@@0@PAPAUtagCustomSoundInfo@ioCustomSoundMgr@@AAPAU23@@Z PROC ; std::_Cons_val<std::allocator<ioCustomSoundMgr::tagCustomSoundInfo *>,ioCustomSoundMgr::tagCustomSoundInfo *,ioCustomSoundMgr::tagCustomSoundInfo * &>, COMDAT

; 279  : 	{	// construct using allocator

  00000	55		 push	 ebp
  00001	8b ec		 mov	 ebp, esp

; 280  : 	_Alval.construct(_Pdest, _STD forward<_Ty2>(_Src));

  00003	8b 45 0c	 mov	 eax, DWORD PTR __Pdest$[ebp]
  00006	85 c0		 test	 eax, eax
  00008	74 07		 je	 SHORT $LN7@Cons_val@2
  0000a	8b 4d 10	 mov	 ecx, DWORD PTR __Src$[ebp]
  0000d	8b 09		 mov	 ecx, DWORD PTR [ecx]
  0000f	89 08		 mov	 DWORD PTR [eax], ecx
$LN7@Cons_val@2:

; 281  : 	}

  00011	5d		 pop	 ebp
  00012	c3		 ret	 0
??$_Cons_val@V?$allocator@PAUtagCustomSoundInfo@ioCustomSoundMgr@@@std@@PAUtagCustomSoundInfo@ioCustomSoundMgr@@AAPAU34@@std@@YAXAAV?$allocator@PAUtagCustomSoundInfo@ioCustomSoundMgr@@@0@PAPAUtagCustomSoundInfo@ioCustomSoundMgr@@AAPAU23@@Z ENDP ; std::_Cons_val<std::allocator<ioCustomSoundMgr::tagCustomSoundInfo *>,ioCustomSoundMgr::tagCustomSoundInfo *,ioCustomSoundMgr::tagCustomSoundInfo * &>
_TEXT	ENDS
PUBLIC	??$_Move@PAPAUtagCustomSoundInfo@ioCustomSoundMgr@@PAPAU12@@std@@YAPAPAUtagCustomSoundInfo@ioCustomSoundMgr@@PAPAU12@00@Z ; std::_Move<ioCustomSoundMgr::tagCustomSoundInfo * *,ioCustomSoundMgr::tagCustomSoundInfo * *>
; Function compile flags: /Ogsp
; File c:\program files (x86)\microsoft visual studio 10.0\vc\include\xutility
;	COMDAT ??$_Move@PAPAUtagCustomSoundInfo@ioCustomSoundMgr@@PAPAU12@@std@@YAPAPAUtagCustomSoundInfo@ioCustomSoundMgr@@PAPAU12@00@Z
_TEXT	SEGMENT
__Cat$512083 = -4					; size = 1
__First$ = 8						; size = 4
__Last$ = 12						; size = 4
__Dest$ = 16						; size = 4
??$_Move@PAPAUtagCustomSoundInfo@ioCustomSoundMgr@@PAPAU12@@std@@YAPAPAUtagCustomSoundInfo@ioCustomSoundMgr@@PAPAU12@00@Z PROC ; std::_Move<ioCustomSoundMgr::tagCustomSoundInfo * *,ioCustomSoundMgr::tagCustomSoundInfo * *>, COMDAT

; 2533 : 	{	// move [_First, _Last) to [_Dest, ...), unchecked

  00000	55		 push	 ebp
  00001	8b ec		 mov	 ebp, esp
  00003	51		 push	 ecx

; 2534 : 	return (_Move(_First, _Last,
; 2535 : 		_Dest, _Ptr_cat(_First, _Dest)));

  00004	ff 75 fc	 push	 DWORD PTR __Cat$512083[ebp]
  00007	ff 75 10	 push	 DWORD PTR __Dest$[ebp]
  0000a	ff 75 0c	 push	 DWORD PTR __Last$[ebp]
  0000d	ff 75 08	 push	 DWORD PTR __First$[ebp]
  00010	e8 00 00 00 00	 call	 ??$_Move@PAPAUtagCustomSoundInfo@ioCustomSoundMgr@@PAPAU12@@std@@YAPAPAUtagCustomSoundInfo@ioCustomSoundMgr@@PAPAU12@00U_Scalar_ptr_iterator_tag@0@@Z ; std::_Move<ioCustomSoundMgr::tagCustomSoundInfo * *,ioCustomSoundMgr::tagCustomSoundInfo * *>
  00015	83 c4 10	 add	 esp, 16			; 00000010H

; 2536 : 	}

  00018	c9		 leave
  00019	c3		 ret	 0
??$_Move@PAPAUtagCustomSoundInfo@ioCustomSoundMgr@@PAPAU12@@std@@YAPAPAUtagCustomSoundInfo@ioCustomSoundMgr@@PAPAU12@00@Z ENDP ; std::_Move<ioCustomSoundMgr::tagCustomSoundInfo * *,ioCustomSoundMgr::tagCustomSoundInfo * *>
_TEXT	ENDS
PUBLIC	??$_Destroy_range@V?$allocator@PAUtagCustomSoundInfo@ioCustomSoundMgr@@@std@@@std@@YAXPAPAUtagCustomSoundInfo@ioCustomSoundMgr@@0AAV?$allocator@PAUtagCustomSoundInfo@ioCustomSoundMgr@@@0@@Z ; std::_Destroy_range<std::allocator<ioCustomSoundMgr::tagCustomSoundInfo *> >
; Function compile flags: /Ogsp
; File c:\program files (x86)\microsoft visual studio 10.0\vc\include\xmemory
;	COMDAT ??$_Destroy_range@V?$allocator@PAUtagCustomSoundInfo@ioCustomSoundMgr@@@std@@@std@@YAXPAPAUtagCustomSoundInfo@ioCustomSoundMgr@@0AAV?$allocator@PAUtagCustomSoundInfo@ioCustomSoundMgr@@@0@@Z
_TEXT	SEGMENT
__First$ = 8						; size = 4
__Last$ = 12						; size = 4
__Al$ = 16						; size = 4
??$_Destroy_range@V?$allocator@PAUtagCustomSoundInfo@ioCustomSoundMgr@@@std@@@std@@YAXPAPAUtagCustomSoundInfo@ioCustomSoundMgr@@0AAV?$allocator@PAUtagCustomSoundInfo@ioCustomSoundMgr@@@0@@Z PROC ; std::_Destroy_range<std::allocator<ioCustomSoundMgr::tagCustomSoundInfo *> >, COMDAT

; 88   : 	_Destroy_range(_First, _Last, _Al, _Ptr_cat(_First, _Last));
; 89   : 	}

  00000	c3		 ret	 0
??$_Destroy_range@V?$allocator@PAUtagCustomSoundInfo@ioCustomSoundMgr@@@std@@@std@@YAXPAPAUtagCustomSoundInfo@ioCustomSoundMgr@@0AAV?$allocator@PAUtagCustomSoundInfo@ioCustomSoundMgr@@@0@@Z ENDP ; std::_Destroy_range<std::allocator<ioCustomSoundMgr::tagCustomSoundInfo *> >
_TEXT	ENDS
PUBLIC	?construct@?$allocator@UtagNetworkInfo@CustomSoundData@@@std@@QAEXPAUtagNetworkInfo@CustomSoundData@@ABU34@@Z ; std::allocator<CustomSoundData::tagNetworkInfo>::construct
; Function compile flags: /Ogsp
;	COMDAT ?construct@?$allocator@UtagNetworkInfo@CustomSoundData@@@std@@QAEXPAUtagNetworkInfo@CustomSoundData@@ABU34@@Z
_TEXT	SEGMENT
__Ptr$ = 8						; size = 4
__Val$ = 12						; size = 4
?construct@?$allocator@UtagNetworkInfo@CustomSoundData@@@std@@QAEXPAUtagNetworkInfo@CustomSoundData@@ABU34@@Z PROC ; std::allocator<CustomSoundData::tagNetworkInfo>::construct, COMDAT
; _this$ = ecx

; 196  : 		{	// construct object at _Ptr with value _Val

  00000	55		 push	 ebp
  00001	8b ec		 mov	 ebp, esp

; 197  : 		_Construct(_Ptr, _Val);

  00003	8b 45 08	 mov	 eax, DWORD PTR __Ptr$[ebp]
  00006	85 c0		 test	 eax, eax
  00008	74 0d		 je	 SHORT $LN5@construct@4
  0000a	8b 4d 0c	 mov	 ecx, DWORD PTR __Val$[ebp]
  0000d	8b 11		 mov	 edx, DWORD PTR [ecx]
  0000f	89 10		 mov	 DWORD PTR [eax], edx
  00011	8b 49 04	 mov	 ecx, DWORD PTR [ecx+4]
  00014	89 48 04	 mov	 DWORD PTR [eax+4], ecx
$LN5@construct@4:

; 198  : 		}

  00017	5d		 pop	 ebp
  00018	c2 08 00	 ret	 8
?construct@?$allocator@UtagNetworkInfo@CustomSoundData@@@std@@QAEXPAUtagNetworkInfo@CustomSoundData@@ABU34@@Z ENDP ; std::allocator<CustomSoundData::tagNetworkInfo>::construct
_TEXT	ENDS
PUBLIC	?construct@?$allocator@PAUtagCustomSoundInfo@ioCustomSoundMgr@@@std@@QAEXPAPAUtagCustomSoundInfo@ioCustomSoundMgr@@ABQAU34@@Z ; std::allocator<ioCustomSoundMgr::tagCustomSoundInfo *>::construct
; Function compile flags: /Ogsp
;	COMDAT ?construct@?$allocator@PAUtagCustomSoundInfo@ioCustomSoundMgr@@@std@@QAEXPAPAUtagCustomSoundInfo@ioCustomSoundMgr@@ABQAU34@@Z
_TEXT	SEGMENT
__Ptr$ = 8						; size = 4
__Val$ = 12						; size = 4
?construct@?$allocator@PAUtagCustomSoundInfo@ioCustomSoundMgr@@@std@@QAEXPAPAUtagCustomSoundInfo@ioCustomSoundMgr@@ABQAU34@@Z PROC ; std::allocator<ioCustomSoundMgr::tagCustomSoundInfo *>::construct, COMDAT
; _this$ = ecx

; 196  : 		{	// construct object at _Ptr with value _Val

  00000	55		 push	 ebp
  00001	8b ec		 mov	 ebp, esp

; 197  : 		_Construct(_Ptr, _Val);

  00003	8b 45 08	 mov	 eax, DWORD PTR __Ptr$[ebp]
  00006	85 c0		 test	 eax, eax
  00008	74 07		 je	 SHORT $LN5@construct@5
  0000a	8b 4d 0c	 mov	 ecx, DWORD PTR __Val$[ebp]
  0000d	8b 09		 mov	 ecx, DWORD PTR [ecx]
  0000f	89 08		 mov	 DWORD PTR [eax], ecx
$LN5@construct@5:

; 198  : 		}

  00011	5d		 pop	 ebp
  00012	c2 08 00	 ret	 8
?construct@?$allocator@PAUtagCustomSoundInfo@ioCustomSoundMgr@@@std@@QAEXPAPAUtagCustomSoundInfo@ioCustomSoundMgr@@ABQAU34@@Z ENDP ; std::allocator<ioCustomSoundMgr::tagCustomSoundInfo *>::construct
_TEXT	ENDS
PUBLIC	?max_size@?$_Tree@V?$_Tmap_traits@KPAVCustomSoundData@@U?$less@K@std@@V?$allocator@U?$pair@$$CBKPAVCustomSoundData@@@std@@@3@$0A@@std@@@std@@QBEIXZ ; std::_Tree<std::_Tmap_traits<unsigned long,CustomSoundData *,std::less<unsigned long>,std::allocator<std::pair<unsigned long const ,CustomSoundData *> >,0> >::max_size
; Function compile flags: /Ogsp
; File c:\program files (x86)\microsoft visual studio 10.0\vc\include\xtree
;	COMDAT ?max_size@?$_Tree@V?$_Tmap_traits@KPAVCustomSoundData@@U?$less@K@std@@V?$allocator@U?$pair@$$CBKPAVCustomSoundData@@@std@@@3@$0A@@std@@@std@@QBEIXZ
_TEXT	SEGMENT
?max_size@?$_Tree@V?$_Tmap_traits@KPAVCustomSoundData@@U?$less@K@std@@V?$allocator@U?$pair@$$CBKPAVCustomSoundData@@@std@@@3@$0A@@std@@@std@@QBEIXZ PROC ; std::_Tree<std::_Tmap_traits<unsigned long,CustomSoundData *,std::less<unsigned long>,std::allocator<std::pair<unsigned long const ,CustomSoundData *> >,0> >::max_size, COMDAT
; _this$ = ecx

; 874  : 		return (this->_Alval.max_size());

  00000	b8 ff ff ff 1f	 mov	 eax, 536870911		; 1fffffffH

; 875  : 		}

  00005	c3		 ret	 0
?max_size@?$_Tree@V?$_Tmap_traits@KPAVCustomSoundData@@U?$less@K@std@@V?$allocator@U?$pair@$$CBKPAVCustomSoundData@@@std@@@3@$0A@@std@@@std@@QBEIXZ ENDP ; std::_Tree<std::_Tmap_traits<unsigned long,CustomSoundData *,std::less<unsigned long>,std::allocator<std::pair<unsigned long const ,CustomSoundData *> >,0> >::max_size
_TEXT	ENDS
PUBLIC	??0?$_Pair_base@V?$_Tree_iterator@V?$_Tree_val@V?$_Tmap_traits@KPAVCustomSoundData@@U?$less@K@std@@V?$allocator@U?$pair@$$CBKPAVCustomSoundData@@@std@@@3@$0A@@std@@@std@@@std@@_N@std@@QAE@$$QAV?$_Tree_iterator@V?$_Tree_val@V?$_Tmap_traits@KPAVCustomSoundData@@U?$less@K@std@@V?$allocator@U?$pair@$$CBKPAVCustomSoundData@@@std@@@3@$0A@@std@@@std@@@1@$$QA_N@Z ; std::_Pair_base<std::_Tree_iterator<std::_Tree_val<std::_Tmap_traits<unsigned long,CustomSoundData *,std::less<unsigned long>,std::allocator<std::pair<unsigned long const ,CustomSoundData *> >,0> > >,bool>::_Pair_base<std::_Tree_iterator<std::_Tree_val<std::_Tmap_traits<unsigned long,CustomSoundData *,std::less<unsigned long>,std::allocator<std::pair<unsigned long const ,CustomSoundData *> >,0> > >,bool>
; Function compile flags: /Ogsp
; File c:\program files (x86)\microsoft visual studio 10.0\vc\include\utility
;	COMDAT ??0?$_Pair_base@V?$_Tree_iterator@V?$_Tree_val@V?$_Tmap_traits@KPAVCustomSoundData@@U?$less@K@std@@V?$allocator@U?$pair@$$CBKPAVCustomSoundData@@@std@@@3@$0A@@std@@@std@@@std@@_N@std@@QAE@$$QAV?$_Tree_iterator@V?$_Tree_val@V?$_Tmap_traits@KPAVCustomSoundData@@U?$less@K@std@@V?$allocator@U?$pair@$$CBKPAVCustomSoundData@@@std@@@3@$0A@@std@@@std@@@1@$$QA_N@Z
_TEXT	SEGMENT
__Val1$ = 8						; size = 4
__Val2$ = 12						; size = 4
??0?$_Pair_base@V?$_Tree_iterator@V?$_Tree_val@V?$_Tmap_traits@KPAVCustomSoundData@@U?$less@K@std@@V?$allocator@U?$pair@$$CBKPAVCustomSoundData@@@std@@@3@$0A@@std@@@std@@@std@@_N@std@@QAE@$$QAV?$_Tree_iterator@V?$_Tree_val@V?$_Tmap_traits@KPAVCustomSoundData@@U?$less@K@std@@V?$allocator@U?$pair@$$CBKPAVCustomSoundData@@@std@@@3@$0A@@std@@@std@@@1@$$QA_N@Z PROC ; std::_Pair_base<std::_Tree_iterator<std::_Tree_val<std::_Tmap_traits<unsigned long,CustomSoundData *,std::less<unsigned long>,std::allocator<std::pair<unsigned long const ,CustomSoundData *> >,0> > >,bool>::_Pair_base<std::_Tree_iterator<std::_Tree_val<std::_Tmap_traits<unsigned long,CustomSoundData *,std::less<unsigned long>,std::allocator<std::pair<unsigned long const ,CustomSoundData *> >,0> > >,bool>, COMDAT
; _this$ = ecx

; 145  : 		{	// construct from specified values

  00000	55		 push	 ebp
  00001	8b ec		 mov	 ebp, esp
  00003	8b c1		 mov	 eax, ecx
  00005	8b 4d 08	 mov	 ecx, DWORD PTR __Val1$[ebp]
  00008	8b 09		 mov	 ecx, DWORD PTR [ecx]
  0000a	89 08		 mov	 DWORD PTR [eax], ecx
  0000c	8b 4d 0c	 mov	 ecx, DWORD PTR __Val2$[ebp]
  0000f	8a 09		 mov	 cl, BYTE PTR [ecx]
  00011	88 48 04	 mov	 BYTE PTR [eax+4], cl

; 146  : 		}

  00014	5d		 pop	 ebp
  00015	c2 08 00	 ret	 8
??0?$_Pair_base@V?$_Tree_iterator@V?$_Tree_val@V?$_Tmap_traits@KPAVCustomSoundData@@U?$less@K@std@@V?$allocator@U?$pair@$$CBKPAVCustomSoundData@@@std@@@3@$0A@@std@@@std@@@std@@_N@std@@QAE@$$QAV?$_Tree_iterator@V?$_Tree_val@V?$_Tmap_traits@KPAVCustomSoundData@@U?$less@K@std@@V?$allocator@U?$pair@$$CBKPAVCustomSoundData@@@std@@@3@$0A@@std@@@std@@@1@$$QA_N@Z ENDP ; std::_Pair_base<std::_Tree_iterator<std::_Tree_val<std::_Tmap_traits<unsigned long,CustomSoundData *,std::less<unsigned long>,std::allocator<std::pair<unsigned long const ,CustomSoundData *> >,0> > >,bool>::_Pair_base<std::_Tree_iterator<std::_Tree_val<std::_Tmap_traits<unsigned long,CustomSoundData *,std::less<unsigned long>,std::allocator<std::pair<unsigned long const ,CustomSoundData *> >,0> > >,bool>
_TEXT	ENDS
PUBLIC	??F?$_Tree_unchecked_const_iterator@V?$_Tree_val@V?$_Tmap_traits@KPAVCustomSoundData@@U?$less@K@std@@V?$allocator@U?$pair@$$CBKPAVCustomSoundData@@@std@@@3@$0A@@std@@@std@@U_Iterator_base0@2@@std@@QAEAAV01@XZ ; std::_Tree_unchecked_const_iterator<std::_Tree_val<std::_Tmap_traits<unsigned long,CustomSoundData *,std::less<unsigned long>,std::allocator<std::pair<unsigned long const ,CustomSoundData *> >,0> >,std::_Iterator_base0>::operator--
; Function compile flags: /Ogsp
; File c:\program files (x86)\microsoft visual studio 10.0\vc\include\xtree
;	COMDAT ??F?$_Tree_unchecked_const_iterator@V?$_Tree_val@V?$_Tmap_traits@KPAVCustomSoundData@@U?$less@K@std@@V?$allocator@U?$pair@$$CBKPAVCustomSoundData@@@std@@@3@$0A@@std@@@std@@U_Iterator_base0@2@@std@@QAEAAV01@XZ
_TEXT	SEGMENT
??F?$_Tree_unchecked_const_iterator@V?$_Tree_val@V?$_Tmap_traits@KPAVCustomSoundData@@U?$less@K@std@@V?$allocator@U?$pair@$$CBKPAVCustomSoundData@@@std@@@3@$0A@@std@@@std@@U_Iterator_base0@2@@std@@QAEAAV01@XZ PROC ; std::_Tree_unchecked_const_iterator<std::_Tree_val<std::_Tmap_traits<unsigned long,CustomSoundData *,std::less<unsigned long>,std::allocator<std::pair<unsigned long const ,CustomSoundData *> >,0> >,std::_Iterator_base0>::operator--, COMDAT
; _this$ = ecx

; 83   : 		{	// predecrement

  00000	8b c1		 mov	 eax, ecx

; 84   : 		if (_Mytree::_Isnil(_Ptr))

  00002	8b 08		 mov	 ecx, DWORD PTR [eax]
  00004	53		 push	 ebx
  00005	32 db		 xor	 bl, bl
  00007	38 59 15	 cmp	 BYTE PTR [ecx+21], bl
  0000a	74 07		 je	 SHORT $LN8@operator@2

; 85   : 			_Ptr = _Mytree::_Right(_Ptr);	// end() ==> rightmost

  0000c	8b 49 08	 mov	 ecx, DWORD PTR [ecx+8]
  0000f	89 08		 mov	 DWORD PTR [eax], ecx
  00011	5b		 pop	 ebx

; 99   : 			}
; 100  : 		return (*this);
; 101  : 		}

  00012	c3		 ret	 0
$LN8@operator@2:

; 86   : 		else if (!_Mytree::_Isnil(_Mytree::_Left(_Ptr)))

  00013	8b 11		 mov	 edx, DWORD PTR [ecx]
  00015	38 5a 15	 cmp	 BYTE PTR [edx+21], bl
  00018	74 07		 je	 SHORT $LN44@operator@2

; 90   : 			{	// climb looking for left subtree
; 91   : 			_Nodeptr _Pnode;
; 92   : 			while (!_Mytree::_Isnil(_Pnode = _Mytree::_Parent(_Ptr))
; 93   : 				&& _Ptr == _Mytree::_Left(_Pnode))

  0001a	8b 51 04	 mov	 edx, DWORD PTR [ecx+4]
  0001d	eb 17		 jmp	 SHORT $LN46@operator@2

; 87   : 			_Ptr = _Mytree::_Max(
; 88   : 				_Mytree::_Left(_Ptr));	// ==> largest of left subtree

$LL22@operator@2:
  0001f	8b d1		 mov	 edx, ecx
$LN44@operator@2:
  00021	8b 4a 08	 mov	 ecx, DWORD PTR [edx+8]
  00024	38 59 15	 cmp	 BYTE PTR [ecx+21], bl
  00027	74 f6		 je	 SHORT $LL22@operator@2

; 89   : 		else

  00029	eb 17		 jmp	 SHORT $LN45@operator@2
$LL4@operator@2:

; 90   : 			{	// climb looking for left subtree
; 91   : 			_Nodeptr _Pnode;
; 92   : 			while (!_Mytree::_Isnil(_Pnode = _Mytree::_Parent(_Ptr))
; 93   : 				&& _Ptr == _Mytree::_Left(_Pnode))

  0002b	8b 08		 mov	 ecx, DWORD PTR [eax]
  0002d	3b 0a		 cmp	 ecx, DWORD PTR [edx]
  0002f	75 0a		 jne	 SHORT $LN3@operator@2

; 94   : 				_Ptr = _Pnode;	// ==> parent while left subtree

  00031	89 10		 mov	 DWORD PTR [eax], edx
  00033	8b 52 04	 mov	 edx, DWORD PTR [edx+4]
$LN46@operator@2:

; 90   : 			{	// climb looking for left subtree
; 91   : 			_Nodeptr _Pnode;
; 92   : 			while (!_Mytree::_Isnil(_Pnode = _Mytree::_Parent(_Ptr))
; 93   : 				&& _Ptr == _Mytree::_Left(_Pnode))

  00036	38 5a 15	 cmp	 BYTE PTR [edx+21], bl
  00039	74 f0		 je	 SHORT $LL4@operator@2
$LN3@operator@2:

; 95   : 			if (_Mytree::_Isnil(_Ptr))

  0003b	8b 08		 mov	 ecx, DWORD PTR [eax]
  0003d	38 59 15	 cmp	 BYTE PTR [ecx+21], bl
  00040	75 02		 jne	 SHORT $LN1@operator@2
$LN45@operator@2:

; 96   : 				;	// begin() shouldn't be decremented, don't move
; 97   : 			else
; 98   : 				_Ptr = _Pnode;	// ==> parent if not head

  00042	89 10		 mov	 DWORD PTR [eax], edx
$LN1@operator@2:
  00044	5b		 pop	 ebx

; 99   : 			}
; 100  : 		return (*this);
; 101  : 		}

  00045	c3		 ret	 0
??F?$_Tree_unchecked_const_iterator@V?$_Tree_val@V?$_Tmap_traits@KPAVCustomSoundData@@U?$less@K@std@@V?$allocator@U?$pair@$$CBKPAVCustomSoundData@@@std@@@3@$0A@@std@@@std@@U_Iterator_base0@2@@std@@QAEAAV01@XZ ENDP ; std::_Tree_unchecked_const_iterator<std::_Tree_val<std::_Tmap_traits<unsigned long,CustomSoundData *,std::less<unsigned long>,std::allocator<std::pair<unsigned long const ,CustomSoundData *> >,0> >,std::_Iterator_base0>::operator--
_TEXT	ENDS
PUBLIC	??$encodeString@$0BM@@ioINILoader_e@@AAEPADAAY0BM@$$CBDPAD@Z ; ioINILoader_e::encodeString<28>
; Function compile flags: /Ogsp
; File d:\lost saga for developer\youtube\tutorial\source\src\io3dengine\ioiniloader.h
;	COMDAT ??$encodeString@$0BM@@ioINILoader_e@@AAEPADAAY0BM@$$CBDPAD@Z
_TEXT	SEGMENT
_s$ = 8							; size = 4
_e$ = 12						; size = 4
??$encodeString@$0BM@@ioINILoader_e@@AAEPADAAY0BM@$$CBDPAD@Z PROC ; ioINILoader_e::encodeString<28>, COMDAT
; _this$ = ecx

; 215  : 	{

  00000	55		 push	 ebp
  00001	8b ec		 mov	 ebp, esp

; 216  : 		__ENCSTR(s, e);

  00003	8b 4d 08	 mov	 ecx, DWORD PTR _s$[ebp]
  00006	8a 11		 mov	 dl, BYTE PTR [ecx]
  00008	8b 45 0c	 mov	 eax, DWORD PTR _e$[ebp]
  0000b	53		 push	 ebx
  0000c	84 d2		 test	 dl, dl
  0000e	0f 84 6a 04 00
	00		 je	 $LN96@encodeStri
  00014	80 f2 ed	 xor	 dl, -19			; ffffffedH
  00017	88 10		 mov	 BYTE PTR [eax], dl
  00019	8a 51 01	 mov	 dl, BYTE PTR [ecx+1]
  0001c	84 d2		 test	 dl, dl
  0001e	0f 84 54 04 00
	00		 je	 $LN95@encodeStri
  00024	80 f2 ec	 xor	 dl, -20			; ffffffecH
  00027	88 50 01	 mov	 BYTE PTR [eax+1], dl
  0002a	8a 51 02	 mov	 dl, BYTE PTR [ecx+2]
  0002d	84 d2		 test	 dl, dl
  0002f	0f 84 3d 04 00
	00		 je	 $LN94@encodeStri
  00035	b3 eb		 mov	 bl, -21			; ffffffebH
  00037	32 d3		 xor	 dl, bl
  00039	88 50 02	 mov	 BYTE PTR [eax+2], dl
  0003c	8a 51 03	 mov	 dl, BYTE PTR [ecx+3]
  0003f	84 d2		 test	 dl, dl
  00041	0f 84 25 04 00
	00		 je	 $LN93@encodeStri
  00047	80 f2 ea	 xor	 dl, -22			; ffffffeaH
  0004a	88 50 03	 mov	 BYTE PTR [eax+3], dl
  0004d	8a 51 04	 mov	 dl, BYTE PTR [ecx+4]
  00050	84 d2		 test	 dl, dl
  00052	0f 84 0e 04 00
	00		 je	 $LN92@encodeStri
  00058	80 f2 ed	 xor	 dl, -19			; ffffffedH
  0005b	88 50 04	 mov	 BYTE PTR [eax+4], dl
  0005e	8a 51 05	 mov	 dl, BYTE PTR [ecx+5]
  00061	84 d2		 test	 dl, dl
  00063	0f 84 f7 03 00
	00		 je	 $LN91@encodeStri
  00069	80 f2 ec	 xor	 dl, -20			; ffffffecH
  0006c	88 50 05	 mov	 BYTE PTR [eax+5], dl
  0006f	8a 51 06	 mov	 dl, BYTE PTR [ecx+6]
  00072	84 d2		 test	 dl, dl
  00074	0f 84 e1 03 00
	00		 je	 $LN90@encodeStri
  0007a	32 d3		 xor	 dl, bl
  0007c	88 50 06	 mov	 BYTE PTR [eax+6], dl
  0007f	8a 51 07	 mov	 dl, BYTE PTR [ecx+7]
  00082	84 d2		 test	 dl, dl
  00084	0f 84 cb 03 00
	00		 je	 $LN89@encodeStri
  0008a	80 f2 ea	 xor	 dl, -22			; ffffffeaH
  0008d	88 50 07	 mov	 BYTE PTR [eax+7], dl
  00090	8a 51 08	 mov	 dl, BYTE PTR [ecx+8]
  00093	84 d2		 test	 dl, dl
  00095	0f 84 b4 03 00
	00		 je	 $LN88@encodeStri
  0009b	80 f2 ed	 xor	 dl, -19			; ffffffedH
  0009e	88 50 08	 mov	 BYTE PTR [eax+8], dl
  000a1	8a 51 09	 mov	 dl, BYTE PTR [ecx+9]
  000a4	84 d2		 test	 dl, dl
  000a6	0f 84 9d 03 00
	00		 je	 $LN87@encodeStri
  000ac	80 f2 ec	 xor	 dl, -20			; ffffffecH
  000af	88 50 09	 mov	 BYTE PTR [eax+9], dl
  000b2	8a 51 0a	 mov	 dl, BYTE PTR [ecx+10]
  000b5	84 d2		 test	 dl, dl
  000b7	0f 84 87 03 00
	00		 je	 $LN86@encodeStri
  000bd	32 d3		 xor	 dl, bl
  000bf	88 50 0a	 mov	 BYTE PTR [eax+10], dl
  000c2	8a 51 0b	 mov	 dl, BYTE PTR [ecx+11]
  000c5	84 d2		 test	 dl, dl
  000c7	0f 84 71 03 00
	00		 je	 $LN85@encodeStri
  000cd	80 f2 ea	 xor	 dl, -22			; ffffffeaH
  000d0	88 50 0b	 mov	 BYTE PTR [eax+11], dl
  000d3	8a 51 0c	 mov	 dl, BYTE PTR [ecx+12]
  000d6	84 d2		 test	 dl, dl
  000d8	0f 84 5a 03 00
	00		 je	 $LN84@encodeStri
  000de	80 f2 ed	 xor	 dl, -19			; ffffffedH
  000e1	88 50 0c	 mov	 BYTE PTR [eax+12], dl
  000e4	8a 51 0d	 mov	 dl, BYTE PTR [ecx+13]
  000e7	84 d2		 test	 dl, dl
  000e9	0f 84 43 03 00
	00		 je	 $LN83@encodeStri
  000ef	80 f2 ec	 xor	 dl, -20			; ffffffecH
  000f2	88 50 0d	 mov	 BYTE PTR [eax+13], dl
  000f5	8a 51 0e	 mov	 dl, BYTE PTR [ecx+14]
  000f8	84 d2		 test	 dl, dl
  000fa	0f 84 2d 03 00
	00		 je	 $LN82@encodeStri
  00100	32 d3		 xor	 dl, bl
  00102	88 50 0e	 mov	 BYTE PTR [eax+14], dl
  00105	8a 51 0f	 mov	 dl, BYTE PTR [ecx+15]
  00108	84 d2		 test	 dl, dl
  0010a	0f 84 17 03 00
	00		 je	 $LN81@encodeStri
  00110	80 f2 ea	 xor	 dl, -22			; ffffffeaH
  00113	88 50 0f	 mov	 BYTE PTR [eax+15], dl
  00116	8a 51 10	 mov	 dl, BYTE PTR [ecx+16]
  00119	84 d2		 test	 dl, dl
  0011b	0f 84 00 03 00
	00		 je	 $LN80@encodeStri
  00121	80 f2 ed	 xor	 dl, -19			; ffffffedH
  00124	88 50 10	 mov	 BYTE PTR [eax+16], dl
  00127	8a 51 11	 mov	 dl, BYTE PTR [ecx+17]
  0012a	84 d2		 test	 dl, dl
  0012c	0f 84 e9 02 00
	00		 je	 $LN79@encodeStri
  00132	80 f2 ec	 xor	 dl, -20			; ffffffecH
  00135	88 50 11	 mov	 BYTE PTR [eax+17], dl
  00138	8a 51 12	 mov	 dl, BYTE PTR [ecx+18]
  0013b	84 d2		 test	 dl, dl
  0013d	0f 84 d3 02 00
	00		 je	 $LN78@encodeStri
  00143	32 d3		 xor	 dl, bl
  00145	88 50 12	 mov	 BYTE PTR [eax+18], dl
  00148	8a 51 13	 mov	 dl, BYTE PTR [ecx+19]
  0014b	84 d2		 test	 dl, dl
  0014d	0f 84 bd 02 00
	00		 je	 $LN77@encodeStri
  00153	80 f2 ea	 xor	 dl, -22			; ffffffeaH
  00156	88 50 13	 mov	 BYTE PTR [eax+19], dl
  00159	8a 51 14	 mov	 dl, BYTE PTR [ecx+20]
  0015c	84 d2		 test	 dl, dl
  0015e	0f 84 a6 02 00
	00		 je	 $LN76@encodeStri
  00164	80 f2 ed	 xor	 dl, -19			; ffffffedH
  00167	88 50 14	 mov	 BYTE PTR [eax+20], dl
  0016a	8a 51 15	 mov	 dl, BYTE PTR [ecx+21]
  0016d	84 d2		 test	 dl, dl
  0016f	0f 84 8f 02 00
	00		 je	 $LN75@encodeStri
  00175	80 f2 ec	 xor	 dl, -20			; ffffffecH
  00178	88 50 15	 mov	 BYTE PTR [eax+21], dl
  0017b	8a 51 16	 mov	 dl, BYTE PTR [ecx+22]
  0017e	84 d2		 test	 dl, dl
  00180	0f 84 79 02 00
	00		 je	 $LN74@encodeStri
  00186	32 d3		 xor	 dl, bl
  00188	88 50 16	 mov	 BYTE PTR [eax+22], dl
  0018b	8a 51 17	 mov	 dl, BYTE PTR [ecx+23]
  0018e	84 d2		 test	 dl, dl
  00190	0f 84 60 02 00
	00		 je	 $LN73@encodeStri
  00196	80 f2 ea	 xor	 dl, -22			; ffffffeaH
  00199	88 50 17	 mov	 BYTE PTR [eax+23], dl
  0019c	8a 51 18	 mov	 dl, BYTE PTR [ecx+24]
  0019f	84 d2		 test	 dl, dl
  001a1	0f 84 46 02 00
	00		 je	 $LN72@encodeStri
  001a7	80 f2 ed	 xor	 dl, -19			; ffffffedH
  001aa	88 50 18	 mov	 BYTE PTR [eax+24], dl
  001ad	8a 51 19	 mov	 dl, BYTE PTR [ecx+25]
  001b0	84 d2		 test	 dl, dl
  001b2	0f 84 2c 02 00
	00		 je	 $LN71@encodeStri
  001b8	80 f2 ec	 xor	 dl, -20			; ffffffecH
  001bb	88 50 19	 mov	 BYTE PTR [eax+25], dl
  001be	8a 51 1a	 mov	 dl, BYTE PTR [ecx+26]
  001c1	84 d2		 test	 dl, dl
  001c3	0f 84 13 02 00
	00		 je	 $LN70@encodeStri
  001c9	32 d3		 xor	 dl, bl
  001cb	88 50 1a	 mov	 BYTE PTR [eax+26], dl
  001ce	8a 51 1b	 mov	 dl, BYTE PTR [ecx+27]
  001d1	84 d2		 test	 dl, dl
  001d3	0f 84 fa 01 00
	00		 je	 $LN69@encodeStri
  001d9	80 f2 ea	 xor	 dl, -22			; ffffffeaH
  001dc	88 50 1b	 mov	 BYTE PTR [eax+27], dl
  001df	8a 51 1c	 mov	 dl, BYTE PTR [ecx+28]
  001e2	84 d2		 test	 dl, dl
  001e4	0f 84 e0 01 00
	00		 je	 $LN68@encodeStri
  001ea	80 f2 ed	 xor	 dl, -19			; ffffffedH
  001ed	88 50 1c	 mov	 BYTE PTR [eax+28], dl
  001f0	8a 51 1d	 mov	 dl, BYTE PTR [ecx+29]
  001f3	84 d2		 test	 dl, dl
  001f5	0f 84 c6 01 00
	00		 je	 $LN67@encodeStri
  001fb	80 f2 ec	 xor	 dl, -20			; ffffffecH
  001fe	88 50 1d	 mov	 BYTE PTR [eax+29], dl
  00201	8a 51 1e	 mov	 dl, BYTE PTR [ecx+30]
  00204	84 d2		 test	 dl, dl
  00206	0f 84 ad 01 00
	00		 je	 $LN66@encodeStri
  0020c	32 d3		 xor	 dl, bl
  0020e	88 50 1e	 mov	 BYTE PTR [eax+30], dl
  00211	8a 51 1f	 mov	 dl, BYTE PTR [ecx+31]
  00214	84 d2		 test	 dl, dl
  00216	0f 84 94 01 00
	00		 je	 $LN65@encodeStri
  0021c	80 f2 ea	 xor	 dl, -22			; ffffffeaH
  0021f	88 50 1f	 mov	 BYTE PTR [eax+31], dl
  00222	8a 51 20	 mov	 dl, BYTE PTR [ecx+32]
  00225	84 d2		 test	 dl, dl
  00227	0f 84 7a 01 00
	00		 je	 $LN64@encodeStri
  0022d	80 f2 ed	 xor	 dl, -19			; ffffffedH
  00230	88 50 20	 mov	 BYTE PTR [eax+32], dl
  00233	8a 51 21	 mov	 dl, BYTE PTR [ecx+33]
  00236	84 d2		 test	 dl, dl
  00238	0f 84 60 01 00
	00		 je	 $LN63@encodeStri
  0023e	80 f2 ec	 xor	 dl, -20			; ffffffecH
  00241	88 50 21	 mov	 BYTE PTR [eax+33], dl
  00244	8a 51 22	 mov	 dl, BYTE PTR [ecx+34]
  00247	84 d2		 test	 dl, dl
  00249	0f 84 47 01 00
	00		 je	 $LN62@encodeStri
  0024f	32 d3		 xor	 dl, bl
  00251	88 50 22	 mov	 BYTE PTR [eax+34], dl
  00254	8a 51 23	 mov	 dl, BYTE PTR [ecx+35]
  00257	84 d2		 test	 dl, dl
  00259	0f 84 2e 01 00
	00		 je	 $LN61@encodeStri
  0025f	80 f2 ea	 xor	 dl, -22			; ffffffeaH
  00262	88 50 23	 mov	 BYTE PTR [eax+35], dl
  00265	8a 51 24	 mov	 dl, BYTE PTR [ecx+36]
  00268	84 d2		 test	 dl, dl
  0026a	0f 84 14 01 00
	00		 je	 $LN60@encodeStri
  00270	80 f2 ed	 xor	 dl, -19			; ffffffedH
  00273	88 50 24	 mov	 BYTE PTR [eax+36], dl
  00276	8a 51 25	 mov	 dl, BYTE PTR [ecx+37]
  00279	84 d2		 test	 dl, dl
  0027b	0f 84 fa 00 00
	00		 je	 $LN59@encodeStri
  00281	80 f2 ec	 xor	 dl, -20			; ffffffecH
  00284	88 50 25	 mov	 BYTE PTR [eax+37], dl
  00287	8a 51 26	 mov	 dl, BYTE PTR [ecx+38]
  0028a	84 d2		 test	 dl, dl
  0028c	0f 84 e1 00 00
	00		 je	 $LN58@encodeStri
  00292	32 d3		 xor	 dl, bl
  00294	88 50 26	 mov	 BYTE PTR [eax+38], dl
  00297	8a 51 27	 mov	 dl, BYTE PTR [ecx+39]
  0029a	84 d2		 test	 dl, dl
  0029c	0f 84 c8 00 00
	00		 je	 $LN57@encodeStri
  002a2	80 f2 ea	 xor	 dl, -22			; ffffffeaH
  002a5	88 50 27	 mov	 BYTE PTR [eax+39], dl
  002a8	8a 51 28	 mov	 dl, BYTE PTR [ecx+40]
  002ab	84 d2		 test	 dl, dl
  002ad	0f 84 ae 00 00
	00		 je	 $LN56@encodeStri
  002b3	80 f2 ed	 xor	 dl, -19			; ffffffedH
  002b6	88 50 28	 mov	 BYTE PTR [eax+40], dl
  002b9	8a 51 29	 mov	 dl, BYTE PTR [ecx+41]
  002bc	84 d2		 test	 dl, dl
  002be	0f 84 94 00 00
	00		 je	 $LN55@encodeStri
  002c4	80 f2 ec	 xor	 dl, -20			; ffffffecH
  002c7	88 50 29	 mov	 BYTE PTR [eax+41], dl
  002ca	8a 51 2a	 mov	 dl, BYTE PTR [ecx+42]
  002cd	84 d2		 test	 dl, dl
  002cf	74 7f		 je	 SHORT $LN54@encodeStri
  002d1	32 d3		 xor	 dl, bl
  002d3	88 50 2a	 mov	 BYTE PTR [eax+42], dl
  002d6	8a 51 2b	 mov	 dl, BYTE PTR [ecx+43]
  002d9	84 d2		 test	 dl, dl
  002db	74 6a		 je	 SHORT $LN53@encodeStri
  002dd	80 f2 ea	 xor	 dl, -22			; ffffffeaH
  002e0	88 50 2b	 mov	 BYTE PTR [eax+43], dl
  002e3	8a 51 2c	 mov	 dl, BYTE PTR [ecx+44]
  002e6	84 d2		 test	 dl, dl
  002e8	74 54		 je	 SHORT $LN52@encodeStri
  002ea	80 f2 ed	 xor	 dl, -19			; ffffffedH
  002ed	88 50 2c	 mov	 BYTE PTR [eax+44], dl
  002f0	8a 51 2d	 mov	 dl, BYTE PTR [ecx+45]
  002f3	84 d2		 test	 dl, dl
  002f5	74 3e		 je	 SHORT $LN51@encodeStri
  002f7	80 f2 ec	 xor	 dl, -20			; ffffffecH
  002fa	88 50 2d	 mov	 BYTE PTR [eax+45], dl
  002fd	8a 51 2e	 mov	 dl, BYTE PTR [ecx+46]
  00300	84 d2		 test	 dl, dl
  00302	74 29		 je	 SHORT $LN50@encodeStri
  00304	32 d3		 xor	 dl, bl
  00306	88 50 2e	 mov	 BYTE PTR [eax+46], dl
  00309	8a 51 2f	 mov	 dl, BYTE PTR [ecx+47]
  0030c	84 d2		 test	 dl, dl
  0030e	74 14		 je	 SHORT $LN49@encodeStri
  00310	80 f2 ea	 xor	 dl, -22			; ffffffeaH
  00313	88 50 2f	 mov	 BYTE PTR [eax+47], dl
  00316	8a 49 30	 mov	 cl, BYTE PTR [ecx+48]
  00319	80 f1 ed	 xor	 cl, -19			; ffffffedH
  0031c	88 48 30	 mov	 BYTE PTR [eax+48], cl
  0031f	e9 5d 01 00 00	 jmp	 $LN1@encodeStri
$LN49@encodeStri:
  00324	c6 40 2f ea	 mov	 BYTE PTR [eax+47], -22	; ffffffeaH
  00328	e9 54 01 00 00	 jmp	 $LN1@encodeStri
$LN50@encodeStri:
  0032d	88 58 2e	 mov	 BYTE PTR [eax+46], bl
  00330	e9 4c 01 00 00	 jmp	 $LN1@encodeStri
$LN51@encodeStri:
  00335	c6 40 2d ec	 mov	 BYTE PTR [eax+45], -20	; ffffffecH
  00339	e9 43 01 00 00	 jmp	 $LN1@encodeStri
$LN52@encodeStri:
  0033e	c6 40 2c ed	 mov	 BYTE PTR [eax+44], -19	; ffffffedH
  00342	e9 3a 01 00 00	 jmp	 $LN1@encodeStri
$LN53@encodeStri:
  00347	c6 40 2b ea	 mov	 BYTE PTR [eax+43], -22	; ffffffeaH
  0034b	e9 31 01 00 00	 jmp	 $LN1@encodeStri
$LN54@encodeStri:
  00350	88 58 2a	 mov	 BYTE PTR [eax+42], bl
  00353	e9 29 01 00 00	 jmp	 $LN1@encodeStri
$LN55@encodeStri:
  00358	c6 40 29 ec	 mov	 BYTE PTR [eax+41], -20	; ffffffecH
  0035c	e9 20 01 00 00	 jmp	 $LN1@encodeStri
$LN56@encodeStri:
  00361	c6 40 28 ed	 mov	 BYTE PTR [eax+40], -19	; ffffffedH
  00365	e9 17 01 00 00	 jmp	 $LN1@encodeStri
$LN57@encodeStri:
  0036a	c6 40 27 ea	 mov	 BYTE PTR [eax+39], -22	; ffffffeaH
  0036e	e9 0e 01 00 00	 jmp	 $LN1@encodeStri
$LN58@encodeStri:
  00373	88 58 26	 mov	 BYTE PTR [eax+38], bl
  00376	e9 06 01 00 00	 jmp	 $LN1@encodeStri
$LN59@encodeStri:
  0037b	c6 40 25 ec	 mov	 BYTE PTR [eax+37], -20	; ffffffecH
  0037f	e9 fd 00 00 00	 jmp	 $LN1@encodeStri
$LN60@encodeStri:
  00384	c6 40 24 ed	 mov	 BYTE PTR [eax+36], -19	; ffffffedH
  00388	e9 f4 00 00 00	 jmp	 $LN1@encodeStri
$LN61@encodeStri:
  0038d	c6 40 23 ea	 mov	 BYTE PTR [eax+35], -22	; ffffffeaH
  00391	e9 eb 00 00 00	 jmp	 $LN1@encodeStri
$LN62@encodeStri:
  00396	88 58 22	 mov	 BYTE PTR [eax+34], bl
  00399	e9 e3 00 00 00	 jmp	 $LN1@encodeStri
$LN63@encodeStri:
  0039e	c6 40 21 ec	 mov	 BYTE PTR [eax+33], -20	; ffffffecH
  003a2	e9 da 00 00 00	 jmp	 $LN1@encodeStri
$LN64@encodeStri:
  003a7	c6 40 20 ed	 mov	 BYTE PTR [eax+32], -19	; ffffffedH
  003ab	e9 d1 00 00 00	 jmp	 $LN1@encodeStri
$LN65@encodeStri:
  003b0	c6 40 1f ea	 mov	 BYTE PTR [eax+31], -22	; ffffffeaH
  003b4	e9 c8 00 00 00	 jmp	 $LN1@encodeStri
$LN66@encodeStri:
  003b9	88 58 1e	 mov	 BYTE PTR [eax+30], bl
  003bc	e9 c0 00 00 00	 jmp	 $LN1@encodeStri
$LN67@encodeStri:
  003c1	c6 40 1d ec	 mov	 BYTE PTR [eax+29], -20	; ffffffecH
  003c5	e9 b7 00 00 00	 jmp	 $LN1@encodeStri
$LN68@encodeStri:
  003ca	c6 40 1c ed	 mov	 BYTE PTR [eax+28], -19	; ffffffedH
  003ce	e9 ae 00 00 00	 jmp	 $LN1@encodeStri
$LN69@encodeStri:
  003d3	c6 40 1b ea	 mov	 BYTE PTR [eax+27], -22	; ffffffeaH
  003d7	e9 a5 00 00 00	 jmp	 $LN1@encodeStri
$LN70@encodeStri:
  003dc	88 58 1a	 mov	 BYTE PTR [eax+26], bl
  003df	e9 9d 00 00 00	 jmp	 $LN1@encodeStri
$LN71@encodeStri:
  003e4	c6 40 19 ec	 mov	 BYTE PTR [eax+25], -20	; ffffffecH
  003e8	e9 94 00 00 00	 jmp	 $LN1@encodeStri
$LN72@encodeStri:
  003ed	c6 40 18 ed	 mov	 BYTE PTR [eax+24], -19	; ffffffedH
  003f1	e9 8b 00 00 00	 jmp	 $LN1@encodeStri
$LN73@encodeStri:
  003f6	c6 40 17 ea	 mov	 BYTE PTR [eax+23], -22	; ffffffeaH
  003fa	e9 82 00 00 00	 jmp	 $LN1@encodeStri
$LN74@encodeStri:
  003ff	88 58 16	 mov	 BYTE PTR [eax+22], bl
  00402	eb 7d		 jmp	 SHORT $LN1@encodeStri
$LN75@encodeStri:
  00404	c6 40 15 ec	 mov	 BYTE PTR [eax+21], -20	; ffffffecH
  00408	eb 77		 jmp	 SHORT $LN1@encodeStri
$LN76@encodeStri:
  0040a	c6 40 14 ed	 mov	 BYTE PTR [eax+20], -19	; ffffffedH
  0040e	eb 71		 jmp	 SHORT $LN1@encodeStri
$LN77@encodeStri:
  00410	c6 40 13 ea	 mov	 BYTE PTR [eax+19], -22	; ffffffeaH
  00414	eb 6b		 jmp	 SHORT $LN1@encodeStri
$LN78@encodeStri:
  00416	88 58 12	 mov	 BYTE PTR [eax+18], bl
  00419	eb 66		 jmp	 SHORT $LN1@encodeStri
$LN79@encodeStri:
  0041b	c6 40 11 ec	 mov	 BYTE PTR [eax+17], -20	; ffffffecH
  0041f	eb 60		 jmp	 SHORT $LN1@encodeStri
$LN80@encodeStri:
  00421	c6 40 10 ed	 mov	 BYTE PTR [eax+16], -19	; ffffffedH
  00425	eb 5a		 jmp	 SHORT $LN1@encodeStri
$LN81@encodeStri:
  00427	c6 40 0f ea	 mov	 BYTE PTR [eax+15], -22	; ffffffeaH
  0042b	eb 54		 jmp	 SHORT $LN1@encodeStri
$LN82@encodeStri:
  0042d	88 58 0e	 mov	 BYTE PTR [eax+14], bl
  00430	eb 4f		 jmp	 SHORT $LN1@encodeStri
$LN83@encodeStri:
  00432	c6 40 0d ec	 mov	 BYTE PTR [eax+13], -20	; ffffffecH
  00436	eb 49		 jmp	 SHORT $LN1@encodeStri
$LN84@encodeStri:
  00438	c6 40 0c ed	 mov	 BYTE PTR [eax+12], -19	; ffffffedH
  0043c	eb 43		 jmp	 SHORT $LN1@encodeStri
$LN85@encodeStri:
  0043e	c6 40 0b ea	 mov	 BYTE PTR [eax+11], -22	; ffffffeaH
  00442	eb 3d		 jmp	 SHORT $LN1@encodeStri
$LN86@encodeStri:
  00444	88 58 0a	 mov	 BYTE PTR [eax+10], bl
  00447	eb 38		 jmp	 SHORT $LN1@encodeStri
$LN87@encodeStri:
  00449	c6 40 09 ec	 mov	 BYTE PTR [eax+9], -20	; ffffffecH
  0044d	eb 32		 jmp	 SHORT $LN1@encodeStri
$LN88@encodeStri:
  0044f	c6 40 08 ed	 mov	 BYTE PTR [eax+8], -19	; ffffffedH
  00453	eb 2c		 jmp	 SHORT $LN1@encodeStri
$LN89@encodeStri:
  00455	c6 40 07 ea	 mov	 BYTE PTR [eax+7], -22	; ffffffeaH
  00459	eb 26		 jmp	 SHORT $LN1@encodeStri
$LN90@encodeStri:
  0045b	88 58 06	 mov	 BYTE PTR [eax+6], bl
  0045e	eb 21		 jmp	 SHORT $LN1@encodeStri
$LN91@encodeStri:
  00460	c6 40 05 ec	 mov	 BYTE PTR [eax+5], -20	; ffffffecH
  00464	eb 1b		 jmp	 SHORT $LN1@encodeStri
$LN92@encodeStri:
  00466	c6 40 04 ed	 mov	 BYTE PTR [eax+4], -19	; ffffffedH
  0046a	eb 15		 jmp	 SHORT $LN1@encodeStri
$LN93@encodeStri:
  0046c	c6 40 03 ea	 mov	 BYTE PTR [eax+3], -22	; ffffffeaH
  00470	eb 0f		 jmp	 SHORT $LN1@encodeStri
$LN94@encodeStri:
  00472	c6 40 02 eb	 mov	 BYTE PTR [eax+2], -21	; ffffffebH
  00476	eb 09		 jmp	 SHORT $LN1@encodeStri
$LN95@encodeStri:
  00478	c6 40 01 ec	 mov	 BYTE PTR [eax+1], -20	; ffffffecH
  0047c	eb 03		 jmp	 SHORT $LN1@encodeStri
$LN96@encodeStri:
  0047e	c6 00 ed	 mov	 BYTE PTR [eax], -19	; ffffffedH
$LN1@encodeStri:
  00481	6a 06		 push	 6
  00483	5a		 pop	 edx
  00484	8b c8		 mov	 ecx, eax
  00486	c6 40 1b 00	 mov	 BYTE PTR [eax+27], 0
  0048a	5b		 pop	 ebx
$LL104@encodeStri:
  0048b	81 31 ed ec eb
	ea		 xor	 DWORD PTR [ecx], -353637139 ; eaebecedH
  00491	83 c1 04	 add	 ecx, 4
  00494	4a		 dec	 edx
  00495	75 f4		 jne	 SHORT $LL104@encodeStri
  00497	56		 push	 esi
  00498	6a 18		 push	 24			; 00000018H
  0049a	5e		 pop	 esi
$LL101@encodeStri:
  0049b	8b ce		 mov	 ecx, esi
  0049d	81 e1 03 00 00
	80		 and	 ecx, -2147483645	; 80000003H
  004a3	79 05		 jns	 SHORT $LN111@encodeStri
  004a5	49		 dec	 ecx
  004a6	83 c9 fc	 or	 ecx, -4			; fffffffcH
  004a9	41		 inc	 ecx
$LN111@encodeStri:
  004aa	b2 ed		 mov	 dl, -19			; ffffffedH
  004ac	2a d1		 sub	 dl, cl
  004ae	30 14 06	 xor	 BYTE PTR [esi+eax], dl
  004b1	46		 inc	 esi
  004b2	83 fe 1b	 cmp	 esi, 27			; 0000001bH
  004b5	7c e4		 jl	 SHORT $LL101@encodeStri
  004b7	5e		 pop	 esi

; 217  : 		return e;
; 218  : 	}

  004b8	5d		 pop	 ebp
  004b9	c2 08 00	 ret	 8
??$encodeString@$0BM@@ioINILoader_e@@AAEPADAAY0BM@$$CBDPAD@Z ENDP ; ioINILoader_e::encodeString<28>
_TEXT	ENDS
PUBLIC	??$?0HAAPAVCustomSoundData@@@?$_Pair_base@$$CBKPAVCustomSoundData@@@std@@QAE@$$QAHAAPAVCustomSoundData@@@Z ; std::_Pair_base<unsigned long const ,CustomSoundData *>::_Pair_base<unsigned long const ,CustomSoundData *><int,CustomSoundData * &>
; Function compile flags: /Ogsp
; File c:\program files (x86)\microsoft visual studio 10.0\vc\include\utility
;	COMDAT ??$?0HAAPAVCustomSoundData@@@?$_Pair_base@$$CBKPAVCustomSoundData@@@std@@QAE@$$QAHAAPAVCustomSoundData@@@Z
_TEXT	SEGMENT
__Val1$ = 8						; size = 4
__Val2$ = 12						; size = 4
??$?0HAAPAVCustomSoundData@@@?$_Pair_base@$$CBKPAVCustomSoundData@@@std@@QAE@$$QAHAAPAVCustomSoundData@@@Z PROC ; std::_Pair_base<unsigned long const ,CustomSoundData *>::_Pair_base<unsigned long const ,CustomSoundData *><int,CustomSoundData * &>, COMDAT
; _this$ = ecx

; 163  : 		{	// construct from moved values

  00000	55		 push	 ebp
  00001	8b ec		 mov	 ebp, esp
  00003	8b c1		 mov	 eax, ecx
  00005	8b 4d 08	 mov	 ecx, DWORD PTR __Val1$[ebp]
  00008	8b 09		 mov	 ecx, DWORD PTR [ecx]
  0000a	89 08		 mov	 DWORD PTR [eax], ecx
  0000c	8b 4d 0c	 mov	 ecx, DWORD PTR __Val2$[ebp]
  0000f	8b 09		 mov	 ecx, DWORD PTR [ecx]
  00011	89 48 04	 mov	 DWORD PTR [eax+4], ecx

; 164  : 		}

  00014	5d		 pop	 ebp
  00015	c2 08 00	 ret	 8
??$?0HAAPAVCustomSoundData@@@?$_Pair_base@$$CBKPAVCustomSoundData@@@std@@QAE@$$QAHAAPAVCustomSoundData@@@Z ENDP ; std::_Pair_base<unsigned long const ,CustomSoundData *>::_Pair_base<unsigned long const ,CustomSoundData *><int,CustomSoundData * &>
_TEXT	ENDS
PUBLIC	??$?0AAKAAPAVCustomSoundData@@@?$_Pair_base@$$CBKPAVCustomSoundData@@@std@@QAE@AAKAAPAVCustomSoundData@@@Z ; std::_Pair_base<unsigned long const ,CustomSoundData *>::_Pair_base<unsigned long const ,CustomSoundData *><unsigned long &,CustomSoundData * &>
; Function compile flags: /Ogsp
;	COMDAT ??$?0AAKAAPAVCustomSoundData@@@?$_Pair_base@$$CBKPAVCustomSoundData@@@std@@QAE@AAKAAPAVCustomSoundData@@@Z
_TEXT	SEGMENT
__Val1$ = 8						; size = 4
__Val2$ = 12						; size = 4
??$?0AAKAAPAVCustomSoundData@@@?$_Pair_base@$$CBKPAVCustomSoundData@@@std@@QAE@AAKAAPAVCustomSoundData@@@Z PROC ; std::_Pair_base<unsigned long const ,CustomSoundData *>::_Pair_base<unsigned long const ,CustomSoundData *><unsigned long &,CustomSoundData * &>, COMDAT
; _this$ = ecx

; 163  : 		{	// construct from moved values

  00000	55		 push	 ebp
  00001	8b ec		 mov	 ebp, esp
  00003	8b c1		 mov	 eax, ecx
  00005	8b 4d 08	 mov	 ecx, DWORD PTR __Val1$[ebp]
  00008	8b 09		 mov	 ecx, DWORD PTR [ecx]
  0000a	89 08		 mov	 DWORD PTR [eax], ecx
  0000c	8b 4d 0c	 mov	 ecx, DWORD PTR __Val2$[ebp]
  0000f	8b 09		 mov	 ecx, DWORD PTR [ecx]
  00011	89 48 04	 mov	 DWORD PTR [eax+4], ecx

; 164  : 		}

  00014	5d		 pop	 ebp
  00015	c2 08 00	 ret	 8
??$?0AAKAAPAVCustomSoundData@@@?$_Pair_base@$$CBKPAVCustomSoundData@@@std@@QAE@AAKAAPAVCustomSoundData@@@Z ENDP ; std::_Pair_base<unsigned long const ,CustomSoundData *>::_Pair_base<unsigned long const ,CustomSoundData *><unsigned long &,CustomSoundData * &>
_TEXT	ENDS
PUBLIC	??$construct@AAVioHashString@@@?$allocator@VioHashString@@@std@@QAEXPAVioHashString@@AAV2@@Z ; std::allocator<ioHashString>::construct<ioHashString &>
;	COMDAT xdata$x
xdata$x	SEGMENT
__unwindtable$??$construct@AAVioHashString@@@?$allocator@VioHashString@@@std@@QAEXPAVioHashString@@AAV2@@Z DD 0ffffffffH
	DD	FLAT:__unwindfunclet$??$construct@AAVioHashString@@@?$allocator@VioHashString@@@std@@QAEXPAVioHashString@@AAV2@@Z$0
__ehfuncinfo$??$construct@AAVioHashString@@@?$allocator@VioHashString@@@std@@QAEXPAVioHashString@@AAV2@@Z DD 019930522H
	DD	01H
	DD	FLAT:__unwindtable$??$construct@AAVioHashString@@@?$allocator@VioHashString@@@std@@QAEXPAVioHashString@@AAV2@@Z
	DD	2 DUP(00H)
	DD	2 DUP(00H)
	DD	00H
	DD	01H
; Function compile flags: /Ogsp
; File c:\program files (x86)\microsoft visual studio 10.0\vc\include\xmemory
xdata$x	ENDS
;	COMDAT ??$construct@AAVioHashString@@@?$allocator@VioHashString@@@std@@QAEXPAVioHashString@@AAV2@@Z
_TEXT	SEGMENT
$T512261 = -16						; size = 4
__$EHRec$ = -12						; size = 12
__Ptr$ = 8						; size = 4
__Val$ = 12						; size = 4
??$construct@AAVioHashString@@@?$allocator@VioHashString@@@std@@QAEXPAVioHashString@@AAV2@@Z PROC ; std::allocator<ioHashString>::construct<ioHashString &>, COMDAT
; _this$ = ecx

; 206  : 		void construct(pointer _Ptr, _Other&& _Val)

  00000	6a 04		 push	 4
  00002	b8 00 00 00 00	 mov	 eax, __ehhandler$??$construct@AAVioHashString@@@?$allocator@VioHashString@@@std@@QAEXPAVioHashString@@AAV2@@Z
  00007	e8 00 00 00 00	 call	 __EH_prolog3

; 207  : 		{	// construct object at _Ptr with value _Val
; 208  : 		::new ((void _FARQ *)_Ptr) _Ty(_STD forward<_Other>(_Val));

  0000c	8b 4d 08	 mov	 ecx, DWORD PTR __Ptr$[ebp]
  0000f	89 4d f0	 mov	 DWORD PTR $T512261[ebp], ecx
  00012	83 65 fc 00	 and	 DWORD PTR __$EHRec$[ebp+8], 0
  00016	85 c9		 test	 ecx, ecx
  00018	74 09		 je	 SHORT $LN3@construct@6
  0001a	ff 75 0c	 push	 DWORD PTR __Val$[ebp]
  0001d	ff 15 00 00 00
	00		 call	 DWORD PTR __imp_??0ioHashString@@QAE@ABV0@@Z
$LN3@construct@6:

; 209  : 		}

  00023	e8 00 00 00 00	 call	 __EH_epilog3
  00028	c2 08 00	 ret	 8
_TEXT	ENDS
;	COMDAT text$x
text$x	SEGMENT
__unwindfunclet$??$construct@AAVioHashString@@@?$allocator@VioHashString@@@std@@QAEXPAVioHashString@@AAV2@@Z$0:
  00000	ff 75 08	 push	 DWORD PTR __Ptr$[ebp]
  00003	ff 75 f0	 push	 DWORD PTR $T512261[ebp]
  00006	e8 00 00 00 00	 call	 ??3@YAXPAX0@Z		; operator delete
  0000b	59		 pop	 ecx
  0000c	59		 pop	 ecx
  0000d	c3		 ret	 0
__ehhandler$??$construct@AAVioHashString@@@?$allocator@VioHashString@@@std@@QAEXPAVioHashString@@AAV2@@Z:
  0000e	8b 54 24 08	 mov	 edx, DWORD PTR [esp+8]
  00012	8d 42 0c	 lea	 eax, DWORD PTR [edx+12]
  00015	8b 4a ec	 mov	 ecx, DWORD PTR [edx-20]
  00018	33 c8		 xor	 ecx, eax
  0001a	e8 00 00 00 00	 call	 @__security_check_cookie@4
  0001f	b8 00 00 00 00	 mov	 eax, OFFSET __ehfuncinfo$??$construct@AAVioHashString@@@?$allocator@VioHashString@@@std@@QAEXPAVioHashString@@AAV2@@Z
  00024	e9 00 00 00 00	 jmp	 ___CxxFrameHandler3
text$x	ENDS
??$construct@AAVioHashString@@@?$allocator@VioHashString@@@std@@QAEXPAVioHashString@@AAV2@@Z ENDP ; std::allocator<ioHashString>::construct<ioHashString &>
PUBLIC	??$_Move@PAUtagNetworkInfo@CustomSoundData@@PAU12@@std@@YAPAUtagNetworkInfo@CustomSoundData@@PAU12@00U_Nonscalar_ptr_iterator_tag@0@@Z ; std::_Move<CustomSoundData::tagNetworkInfo *,CustomSoundData::tagNetworkInfo *>
; Function compile flags: /Ogsp
; File c:\program files (x86)\microsoft visual studio 10.0\vc\include\xutility
;	COMDAT ??$_Move@PAUtagNetworkInfo@CustomSoundData@@PAU12@@std@@YAPAUtagNetworkInfo@CustomSoundData@@PAU12@00U_Nonscalar_ptr_iterator_tag@0@@Z
_TEXT	SEGMENT
__First$ = 8						; size = 4
__Last$ = 12						; size = 4
__Dest$ = 16						; size = 4
___formal$ = 20						; size = 1
??$_Move@PAUtagNetworkInfo@CustomSoundData@@PAU12@@std@@YAPAUtagNetworkInfo@CustomSoundData@@PAU12@00U_Nonscalar_ptr_iterator_tag@0@@Z PROC ; std::_Move<CustomSoundData::tagNetworkInfo *,CustomSoundData::tagNetworkInfo *>, COMDAT

; 2512 : 	{	// move [_First, _Last) to [_Dest, ...), arbitrary iterators

  00000	55		 push	 ebp
  00001	8b ec		 mov	 ebp, esp

; 2513 : 	for (; _First != _Last; ++_Dest, ++_First)

  00003	8b 4d 08	 mov	 ecx, DWORD PTR __First$[ebp]
  00006	8b 45 10	 mov	 eax, DWORD PTR __Dest$[ebp]
$LN11@Move:
  00009	3b 4d 0c	 cmp	 ecx, DWORD PTR __Last$[ebp]
  0000c	74 12		 je	 SHORT $LN1@Move

; 2514 : 		*_Dest = _STD move(*_First);

  0000e	8b 11		 mov	 edx, DWORD PTR [ecx]
  00010	89 10		 mov	 DWORD PTR [eax], edx
  00012	8b 51 04	 mov	 edx, DWORD PTR [ecx+4]
  00015	89 50 04	 mov	 DWORD PTR [eax+4], edx
  00018	83 c0 08	 add	 eax, 8
  0001b	83 c1 08	 add	 ecx, 8
  0001e	eb e9		 jmp	 SHORT $LN11@Move
$LN1@Move:

; 2515 : 	return (_Dest);
; 2516 : 	}

  00020	5d		 pop	 ebp
  00021	c3		 ret	 0
??$_Move@PAUtagNetworkInfo@CustomSoundData@@PAU12@@std@@YAPAUtagNetworkInfo@CustomSoundData@@PAU12@00U_Nonscalar_ptr_iterator_tag@0@@Z ENDP ; std::_Move<CustomSoundData::tagNetworkInfo *,CustomSoundData::tagNetworkInfo *>
_TEXT	ENDS
PUBLIC	??$_Uninitialized_move@PAPAUtagCustomSoundInfo@ioCustomSoundMgr@@PAPAU12@V?$allocator@PAUtagCustomSoundInfo@ioCustomSoundMgr@@@std@@@std@@YAPAPAUtagCustomSoundInfo@ioCustomSoundMgr@@PAPAU12@00AAV?$allocator@PAUtagCustomSoundInfo@ioCustomSoundMgr@@@0@@Z ; std::_Uninitialized_move<ioCustomSoundMgr::tagCustomSoundInfo * *,ioCustomSoundMgr::tagCustomSoundInfo * *,std::allocator<ioCustomSoundMgr::tagCustomSoundInfo *> >
; Function compile flags: /Ogsp
; File c:\program files (x86)\microsoft visual studio 10.0\vc\include\memory
;	COMDAT ??$_Uninitialized_move@PAPAUtagCustomSoundInfo@ioCustomSoundMgr@@PAPAU12@V?$allocator@PAUtagCustomSoundInfo@ioCustomSoundMgr@@@std@@@std@@YAPAPAUtagCustomSoundInfo@ioCustomSoundMgr@@PAPAU12@00AAV?$allocator@PAUtagCustomSoundInfo@ioCustomSoundMgr@@@0@@Z
_TEXT	SEGMENT
__First$ = 8						; size = 4
__Last$ = 12						; size = 4
__Dest$ = 16						; size = 4
__Al$ = 20						; size = 4
??$_Uninitialized_move@PAPAUtagCustomSoundInfo@ioCustomSoundMgr@@PAPAU12@V?$allocator@PAUtagCustomSoundInfo@ioCustomSoundMgr@@@std@@@std@@YAPAPAUtagCustomSoundInfo@ioCustomSoundMgr@@PAPAU12@00AAV?$allocator@PAUtagCustomSoundInfo@ioCustomSoundMgr@@@0@@Z PROC ; std::_Uninitialized_move<ioCustomSoundMgr::tagCustomSoundInfo * *,ioCustomSoundMgr::tagCustomSoundInfo * *,std::allocator<ioCustomSoundMgr::tagCustomSoundInfo *> >, COMDAT

; 469  : 	{	// move [_First, _Last) to raw _Dest, using _Al

  00000	55		 push	 ebp
  00001	8b ec		 mov	 ebp, esp
  00003	56		 push	 esi

; 470  : 	return (_Uninit_move(_First, _Last, _Dest, _Al,
; 471  : 		_Val_type(_First), _Ptr_cat(_First, _Dest)));

  00004	8b 75 0c	 mov	 esi, DWORD PTR __Last$[ebp]
  00007	2b 75 08	 sub	 esi, DWORD PTR __First$[ebp]
  0000a	c1 fe 02	 sar	 esi, 2
  0000d	c1 e6 02	 shl	 esi, 2
  00010	56		 push	 esi
  00011	ff 75 08	 push	 DWORD PTR __First$[ebp]
  00014	ff 75 10	 push	 DWORD PTR __Dest$[ebp]
  00017	ff 15 00 00 00
	00		 call	 DWORD PTR __imp__memmove
  0001d	83 c4 0c	 add	 esp, 12			; 0000000cH
  00020	03 c6		 add	 eax, esi
  00022	5e		 pop	 esi

; 472  : 	}

  00023	5d		 pop	 ebp
  00024	c3		 ret	 0
??$_Uninitialized_move@PAPAUtagCustomSoundInfo@ioCustomSoundMgr@@PAPAU12@V?$allocator@PAUtagCustomSoundInfo@ioCustomSoundMgr@@@std@@@std@@YAPAPAUtagCustomSoundInfo@ioCustomSoundMgr@@PAPAU12@00AAV?$allocator@PAUtagCustomSoundInfo@ioCustomSoundMgr@@@0@@Z ENDP ; std::_Uninitialized_move<ioCustomSoundMgr::tagCustomSoundInfo * *,ioCustomSoundMgr::tagCustomSoundInfo * *,std::allocator<ioCustomSoundMgr::tagCustomSoundInfo *> >
_TEXT	ENDS
PUBLIC	??$?0AAV?$_Tree_iterator@V?$_Tree_val@V?$_Tmap_traits@KPAVCustomSoundData@@U?$less@K@std@@V?$allocator@U?$pair@$$CBKPAVCustomSoundData@@@std@@@3@$0A@@std@@@std@@@std@@_N@?$_Pair_base@V?$_Tree_iterator@V?$_Tree_val@V?$_Tmap_traits@KPAVCustomSoundData@@U?$less@K@std@@V?$allocator@U?$pair@$$CBKPAVCustomSoundData@@@std@@@3@$0A@@std@@@std@@@std@@_N@std@@QAE@AAV?$_Tree_iterator@V?$_Tree_val@V?$_Tmap_traits@KPAVCustomSoundData@@U?$less@K@std@@V?$allocator@U?$pair@$$CBKPAVCustomSoundData@@@std@@@3@$0A@@std@@@std@@@1@$$QA_N@Z ; std::_Pair_base<std::_Tree_iterator<std::_Tree_val<std::_Tmap_traits<unsigned long,CustomSoundData *,std::less<unsigned long>,std::allocator<std::pair<unsigned long const ,CustomSoundData *> >,0> > >,bool>::_Pair_base<std::_Tree_iterator<std::_Tree_val<std::_Tmap_traits<unsigned long,CustomSoundData *,std::less<unsigned long>,std::allocator<std::pair<unsigned long const ,CustomSoundData *> >,0> > >,bool><std::_Tree_iterator<std::_Tree_val<std::_Tmap_traits<unsigned long,CustomSoundData *,std::less<unsigned long>,std::allocator<std::pair<unsigned long const ,CustomSoundData *> >,0> > > &,bool>
; Function compile flags: /Ogsp
; File c:\program files (x86)\microsoft visual studio 10.0\vc\include\utility
;	COMDAT ??$?0AAV?$_Tree_iterator@V?$_Tree_val@V?$_Tmap_traits@KPAVCustomSoundData@@U?$less@K@std@@V?$allocator@U?$pair@$$CBKPAVCustomSoundData@@@std@@@3@$0A@@std@@@std@@@std@@_N@?$_Pair_base@V?$_Tree_iterator@V?$_Tree_val@V?$_Tmap_traits@KPAVCustomSoundData@@U?$less@K@std@@V?$allocator@U?$pair@$$CBKPAVCustomSoundData@@@std@@@3@$0A@@std@@@std@@@std@@_N@std@@QAE@AAV?$_Tree_iterator@V?$_Tree_val@V?$_Tmap_traits@KPAVCustomSoundData@@U?$less@K@std@@V?$allocator@U?$pair@$$CBKPAVCustomSoundData@@@std@@@3@$0A@@std@@@std@@@1@$$QA_N@Z
_TEXT	SEGMENT
__Val1$ = 8						; size = 4
__Val2$ = 12						; size = 4
??$?0AAV?$_Tree_iterator@V?$_Tree_val@V?$_Tmap_traits@KPAVCustomSoundData@@U?$less@K@std@@V?$allocator@U?$pair@$$CBKPAVCustomSoundData@@@std@@@3@$0A@@std@@@std@@@std@@_N@?$_Pair_base@V?$_Tree_iterator@V?$_Tree_val@V?$_Tmap_traits@KPAVCustomSoundData@@U?$less@K@std@@V?$allocator@U?$pair@$$CBKPAVCustomSoundData@@@std@@@3@$0A@@std@@@std@@@std@@_N@std@@QAE@AAV?$_Tree_iterator@V?$_Tree_val@V?$_Tmap_traits@KPAVCustomSoundData@@U?$less@K@std@@V?$allocator@U?$pair@$$CBKPAVCustomSoundData@@@std@@@3@$0A@@std@@@std@@@1@$$QA_N@Z PROC ; std::_Pair_base<std::_Tree_iterator<std::_Tree_val<std::_Tmap_traits<unsigned long,CustomSoundData *,std::less<unsigned long>,std::allocator<std::pair<unsigned long const ,CustomSoundData *> >,0> > >,bool>::_Pair_base<std::_Tree_iterator<std::_Tree_val<std::_Tmap_traits<unsigned long,CustomSoundData *,std::less<unsigned long>,std::allocator<std::pair<unsigned long const ,CustomSoundData *> >,0> > >,bool><std::_Tree_iterator<std::_Tree_val<std::_Tmap_traits<unsigned long,CustomSoundData *,std::less<unsigned long>,std::allocator<std::pair<unsigned long const ,CustomSoundData *> >,0> > > &,bool>, COMDAT
; _this$ = ecx

; 163  : 		{	// construct from moved values

  00000	55		 push	 ebp
  00001	8b ec		 mov	 ebp, esp
  00003	8b c1		 mov	 eax, ecx
  00005	8b 4d 08	 mov	 ecx, DWORD PTR __Val1$[ebp]
  00008	8b 09		 mov	 ecx, DWORD PTR [ecx]
  0000a	89 08		 mov	 DWORD PTR [eax], ecx
  0000c	8b 4d 0c	 mov	 ecx, DWORD PTR __Val2$[ebp]
  0000f	8a 09		 mov	 cl, BYTE PTR [ecx]
  00011	88 48 04	 mov	 BYTE PTR [eax+4], cl

; 164  : 		}

  00014	5d		 pop	 ebp
  00015	c2 08 00	 ret	 8
??$?0AAV?$_Tree_iterator@V?$_Tree_val@V?$_Tmap_traits@KPAVCustomSoundData@@U?$less@K@std@@V?$allocator@U?$pair@$$CBKPAVCustomSoundData@@@std@@@3@$0A@@std@@@std@@@std@@_N@?$_Pair_base@V?$_Tree_iterator@V?$_Tree_val@V?$_Tmap_traits@KPAVCustomSoundData@@U?$less@K@std@@V?$allocator@U?$pair@$$CBKPAVCustomSoundData@@@std@@@3@$0A@@std@@@std@@@std@@_N@std@@QAE@AAV?$_Tree_iterator@V?$_Tree_val@V?$_Tmap_traits@KPAVCustomSoundData@@U?$less@K@std@@V?$allocator@U?$pair@$$CBKPAVCustomSoundData@@@std@@@3@$0A@@std@@@std@@@1@$$QA_N@Z ENDP ; std::_Pair_base<std::_Tree_iterator<std::_Tree_val<std::_Tmap_traits<unsigned long,CustomSoundData *,std::less<unsigned long>,std::allocator<std::pair<unsigned long const ,CustomSoundData *> >,0> > >,bool>::_Pair_base<std::_Tree_iterator<std::_Tree_val<std::_Tmap_traits<unsigned long,CustomSoundData *,std::less<unsigned long>,std::allocator<std::pair<unsigned long const ,CustomSoundData *> >,0> > >,bool><std::_Tree_iterator<std::_Tree_val<std::_Tmap_traits<unsigned long,CustomSoundData *,std::less<unsigned long>,std::allocator<std::pair<unsigned long const ,CustomSoundData *> >,0> > > &,bool>
_TEXT	ENDS
PUBLIC	?destroy@?$allocator@UtagNetworkInfo@CustomSoundData@@@std@@QAEXPAUtagNetworkInfo@CustomSoundData@@@Z ; std::allocator<CustomSoundData::tagNetworkInfo>::destroy
; Function compile flags: /Ogsp
; File c:\program files (x86)\microsoft visual studio 10.0\vc\include\xmemory
;	COMDAT ?destroy@?$allocator@UtagNetworkInfo@CustomSoundData@@@std@@QAEXPAUtagNetworkInfo@CustomSoundData@@@Z
_TEXT	SEGMENT
__Ptr$ = 8						; size = 4
?destroy@?$allocator@UtagNetworkInfo@CustomSoundData@@@std@@QAEXPAUtagNetworkInfo@CustomSoundData@@@Z PROC ; std::allocator<CustomSoundData::tagNetworkInfo>::destroy, COMDAT
; _this$ = ecx

; 213  : 		_Destroy(_Ptr);
; 214  : 		}

  00000	c2 04 00	 ret	 4
?destroy@?$allocator@UtagNetworkInfo@CustomSoundData@@@std@@QAEXPAUtagNetworkInfo@CustomSoundData@@@Z ENDP ; std::allocator<CustomSoundData::tagNetworkInfo>::destroy
_TEXT	ENDS
PUBLIC	?construct@?$allocator@UtagNetworkInfo@CustomSoundData@@@std@@QAEXPAUtagNetworkInfo@CustomSoundData@@$$QAU34@@Z ; std::allocator<CustomSoundData::tagNetworkInfo>::construct
; Function compile flags: /Ogsp
;	COMDAT ?construct@?$allocator@UtagNetworkInfo@CustomSoundData@@@std@@QAEXPAUtagNetworkInfo@CustomSoundData@@$$QAU34@@Z
_TEXT	SEGMENT
__Ptr$ = 8						; size = 4
__Val$ = 12						; size = 4
?construct@?$allocator@UtagNetworkInfo@CustomSoundData@@@std@@QAEXPAUtagNetworkInfo@CustomSoundData@@$$QAU34@@Z PROC ; std::allocator<CustomSoundData::tagNetworkInfo>::construct, COMDAT
; _this$ = ecx

; 201  : 		{	// construct object at _Ptr with value _Val

  00000	55		 push	 ebp
  00001	8b ec		 mov	 ebp, esp

; 202  : 		::new ((void _FARQ *)_Ptr) _Ty(_STD forward<_Ty>(_Val));

  00003	8b 45 08	 mov	 eax, DWORD PTR __Ptr$[ebp]
  00006	85 c0		 test	 eax, eax
  00008	74 0d		 je	 SHORT $LN3@construct@7
  0000a	8b 4d 0c	 mov	 ecx, DWORD PTR __Val$[ebp]
  0000d	8b 11		 mov	 edx, DWORD PTR [ecx]
  0000f	89 10		 mov	 DWORD PTR [eax], edx
  00011	8b 49 04	 mov	 ecx, DWORD PTR [ecx+4]
  00014	89 48 04	 mov	 DWORD PTR [eax+4], ecx
$LN3@construct@7:

; 203  : 		}

  00017	5d		 pop	 ebp
  00018	c2 08 00	 ret	 8
?construct@?$allocator@UtagNetworkInfo@CustomSoundData@@@std@@QAEXPAUtagNetworkInfo@CustomSoundData@@$$QAU34@@Z ENDP ; std::allocator<CustomSoundData::tagNetworkInfo>::construct
_TEXT	ENDS
PUBLIC	??0?$_Pair_base@$$CBKPAVCustomSoundData@@@std@@QAE@$$QBK$$QAPAVCustomSoundData@@@Z ; std::_Pair_base<unsigned long const ,CustomSoundData *>::_Pair_base<unsigned long const ,CustomSoundData *>
; Function compile flags: /Ogsp
; File c:\program files (x86)\microsoft visual studio 10.0\vc\include\utility
;	COMDAT ??0?$_Pair_base@$$CBKPAVCustomSoundData@@@std@@QAE@$$QBK$$QAPAVCustomSoundData@@@Z
_TEXT	SEGMENT
__Val1$ = 8						; size = 4
__Val2$ = 12						; size = 4
??0?$_Pair_base@$$CBKPAVCustomSoundData@@@std@@QAE@$$QBK$$QAPAVCustomSoundData@@@Z PROC ; std::_Pair_base<unsigned long const ,CustomSoundData *>::_Pair_base<unsigned long const ,CustomSoundData *>, COMDAT
; _this$ = ecx

; 145  : 		{	// construct from specified values

  00000	55		 push	 ebp
  00001	8b ec		 mov	 ebp, esp
  00003	8b c1		 mov	 eax, ecx
  00005	8b 4d 08	 mov	 ecx, DWORD PTR __Val1$[ebp]
  00008	8b 09		 mov	 ecx, DWORD PTR [ecx]
  0000a	89 08		 mov	 DWORD PTR [eax], ecx
  0000c	8b 4d 0c	 mov	 ecx, DWORD PTR __Val2$[ebp]
  0000f	8b 09		 mov	 ecx, DWORD PTR [ecx]
  00011	89 48 04	 mov	 DWORD PTR [eax+4], ecx

; 146  : 		}

  00014	5d		 pop	 ebp
  00015	c2 08 00	 ret	 8
??0?$_Pair_base@$$CBKPAVCustomSoundData@@@std@@QAE@$$QBK$$QAPAVCustomSoundData@@@Z ENDP ; std::_Pair_base<unsigned long const ,CustomSoundData *>::_Pair_base<unsigned long const ,CustomSoundData *>
_TEXT	ENDS
PUBLIC	?StringCbPrintfA@@YAJPADIPBDZZ			; StringCbPrintfA
; Function compile flags: /Ogsp
; File c:\program files (x86)\microsoft sdks\windows\v7.0a\include\strsafe.h
;	COMDAT ?StringCbPrintfA@@YAJPADIPBDZZ
_TEXT	SEGMENT
_pszDest$ = 8						; size = 4
_cbDest$ = 12						; size = 4
_pszFormat$ = 16					; size = 4
?StringCbPrintfA@@YAJPADIPBDZZ PROC			; StringCbPrintfA, COMDAT

; 4767 : {

  00000	55		 push	 ebp
  00001	8b ec		 mov	 ebp, esp

; 4768 :     HRESULT hr;
; 4769 :     size_t cchDest = cbDest / sizeof(char);
; 4770 : 
; 4771 :     hr = StringValidateDestA(pszDest, cchDest, STRSAFE_MAX_CCH);

  00003	8b 4d 0c	 mov	 ecx, DWORD PTR _cbDest$[ebp]
  00006	33 c0		 xor	 eax, eax
  00008	85 c9		 test	 ecx, ecx
  0000a	74 08		 je	 SHORT $LN4@StringCbPr
  0000c	81 f9 ff ff ff
	7f		 cmp	 ecx, 2147483647		; 7fffffffH
  00012	76 05		 jbe	 SHORT $LN5@StringCbPr
$LN4@StringCbPr:
  00014	b8 57 00 07 80	 mov	 eax, -2147024809	; 80070057H
$LN5@StringCbPr:

; 4772 :     
; 4773 :     if (SUCCEEDED(hr))

  00019	85 c0		 test	 eax, eax
  0001b	78 39		 js	 SHORT $LN1@StringCbPr

; 4774 :     {
; 4775 :         va_list argList;
; 4776 : 
; 4777 :         va_start(argList, pszFormat);
; 4778 : 
; 4779 :         hr = StringVPrintfWorkerA(pszDest,
; 4780 :                                   cchDest,
; 4781 :                                   NULL,
; 4782 :                                   pszFormat,
; 4783 :                                   argList);

  0001d	53		 push	 ebx
  0001e	56		 push	 esi
  0001f	57		 push	 edi
  00020	8b 7d 08	 mov	 edi, DWORD PTR _pszDest$[ebp]
  00023	8d 45 14	 lea	 eax, DWORD PTR _pszFormat$[ebp+4]
  00026	50		 push	 eax
  00027	ff 75 10	 push	 DWORD PTR _pszFormat$[ebp]
  0002a	8d 71 ff	 lea	 esi, DWORD PTR [ecx-1]
  0002d	56		 push	 esi
  0002e	57		 push	 edi
  0002f	33 db		 xor	 ebx, ebx
  00031	ff 15 00 00 00
	00		 call	 DWORD PTR __imp___vsnprintf
  00037	83 c4 10	 add	 esp, 16			; 00000010H
  0003a	85 c0		 test	 eax, eax
  0003c	78 0b		 js	 SHORT $LN12@StringCbPr
  0003e	3b c6		 cmp	 eax, esi
  00040	77 07		 ja	 SHORT $LN12@StringCbPr
  00042	75 0d		 jne	 SHORT $LN9@StringCbPr
  00044	88 1c 3e	 mov	 BYTE PTR [esi+edi], bl
  00047	eb 08		 jmp	 SHORT $LN9@StringCbPr
$LN12@StringCbPr:
  00049	88 1c 3e	 mov	 BYTE PTR [esi+edi], bl
  0004c	bb 7a 00 07 80	 mov	 ebx, -2147024774	; 8007007aH
$LN9@StringCbPr:
  00051	5f		 pop	 edi
  00052	5e		 pop	 esi
  00053	8b c3		 mov	 eax, ebx
  00055	5b		 pop	 ebx
$LN1@StringCbPr:

; 4784 : 
; 4785 :         va_end(argList);
; 4786 :     }
; 4787 : 
; 4788 :     return hr;
; 4789 : }

  00056	5d		 pop	 ebp
  00057	c3		 ret	 0
?StringCbPrintfA@@YAJPADIPBDZZ ENDP			; StringCbPrintfA
_TEXT	ENDS
PUBLIC	?begin@?$vector@VioHashString@@V?$allocator@VioHashString@@@std@@@std@@QAE?AV?$_Vector_iterator@V?$_Vector_val@VioHashString@@V?$allocator@VioHashString@@@std@@@std@@@2@XZ ; std::vector<ioHashString,std::allocator<ioHashString> >::begin
; Function compile flags: /Ogsp
; File c:\program files (x86)\microsoft visual studio 10.0\vc\include\vector
;	COMDAT ?begin@?$vector@VioHashString@@V?$allocator@VioHashString@@@std@@@std@@QAE?AV?$_Vector_iterator@V?$_Vector_val@VioHashString@@V?$allocator@VioHashString@@@std@@@std@@@2@XZ
_TEXT	SEGMENT
___$ReturnUdt$ = 8					; size = 4
?begin@?$vector@VioHashString@@V?$allocator@VioHashString@@@std@@@std@@QAE?AV?$_Vector_iterator@V?$_Vector_val@VioHashString@@V?$allocator@VioHashString@@@std@@@std@@@2@XZ PROC ; std::vector<ioHashString,std::allocator<ioHashString> >::begin, COMDAT
; _this$ = ecx

; 781  : 		{	// return iterator for beginning of mutable sequence

  00000	55		 push	 ebp
  00001	8b ec		 mov	 ebp, esp

; 782  : 		return (iterator(this->_Myfirst, this));

  00003	8b 09		 mov	 ecx, DWORD PTR [ecx]
  00005	8b 45 08	 mov	 eax, DWORD PTR ___$ReturnUdt$[ebp]
  00008	89 08		 mov	 DWORD PTR [eax], ecx

; 783  : 		}

  0000a	5d		 pop	 ebp
  0000b	c2 04 00	 ret	 4
?begin@?$vector@VioHashString@@V?$allocator@VioHashString@@@std@@@std@@QAE?AV?$_Vector_iterator@V?$_Vector_val@VioHashString@@V?$allocator@VioHashString@@@std@@@std@@@2@XZ ENDP ; std::vector<ioHashString,std::allocator<ioHashString> >::begin
_TEXT	ENDS
PUBLIC	?end@?$vector@VioHashString@@V?$allocator@VioHashString@@@std@@@std@@QAE?AV?$_Vector_iterator@V?$_Vector_val@VioHashString@@V?$allocator@VioHashString@@@std@@@std@@@2@XZ ; std::vector<ioHashString,std::allocator<ioHashString> >::end
; Function compile flags: /Ogsp
;	COMDAT ?end@?$vector@VioHashString@@V?$allocator@VioHashString@@@std@@@std@@QAE?AV?$_Vector_iterator@V?$_Vector_val@VioHashString@@V?$allocator@VioHashString@@@std@@@std@@@2@XZ
_TEXT	SEGMENT
___$ReturnUdt$ = 8					; size = 4
?end@?$vector@VioHashString@@V?$allocator@VioHashString@@@std@@@std@@QAE?AV?$_Vector_iterator@V?$_Vector_val@VioHashString@@V?$allocator@VioHashString@@@std@@@std@@@2@XZ PROC ; std::vector<ioHashString,std::allocator<ioHashString> >::end, COMDAT
; _this$ = ecx

; 791  : 		{	// return iterator for end of mutable sequence

  00000	55		 push	 ebp
  00001	8b ec		 mov	 ebp, esp

; 792  : 		return (iterator(this->_Mylast, this));

  00003	8b 49 04	 mov	 ecx, DWORD PTR [ecx+4]
  00006	8b 45 08	 mov	 eax, DWORD PTR ___$ReturnUdt$[ebp]
  00009	89 08		 mov	 DWORD PTR [eax], ecx

; 793  : 		}

  0000b	5d		 pop	 ebp
  0000c	c2 04 00	 ret	 4
?end@?$vector@VioHashString@@V?$allocator@VioHashString@@@std@@@std@@QAE?AV?$_Vector_iterator@V?$_Vector_val@VioHashString@@V?$allocator@VioHashString@@@std@@@std@@@2@XZ ENDP ; std::vector<ioHashString,std::allocator<ioHashString> >::end
_TEXT	ENDS
PUBLIC	??0?$_Vector_val@VioHashString@@V?$allocator@VioHashString@@@std@@@std@@QAE@V?$allocator@VioHashString@@@1@@Z ; std::_Vector_val<ioHashString,std::allocator<ioHashString> >::_Vector_val<ioHashString,std::allocator<ioHashString> >
; Function compile flags: /Ogsp
;	COMDAT ??0?$_Vector_val@VioHashString@@V?$allocator@VioHashString@@@std@@@std@@QAE@V?$allocator@VioHashString@@@1@@Z
_TEXT	SEGMENT
__Al$ = 8						; size = 1
??0?$_Vector_val@VioHashString@@V?$allocator@VioHashString@@@std@@@std@@QAE@V?$allocator@VioHashString@@@1@@Z PROC ; std::_Vector_val<ioHashString,std::allocator<ioHashString> >::_Vector_val<ioHashString,std::allocator<ioHashString> >, COMDAT
; _this$ = ecx

; 426  : 		{	// construct allocator from _Al

  00000	8b c1		 mov	 eax, ecx

; 427  : 		_Myfirst = 0;

  00002	33 c9		 xor	 ecx, ecx
  00004	89 08		 mov	 DWORD PTR [eax], ecx

; 428  : 		_Mylast = 0;

  00006	89 48 04	 mov	 DWORD PTR [eax+4], ecx

; 429  : 		_Myend = 0;

  00009	89 48 08	 mov	 DWORD PTR [eax+8], ecx

; 430  : 		}

  0000c	c2 04 00	 ret	 4
??0?$_Vector_val@VioHashString@@V?$allocator@VioHashString@@@std@@@std@@QAE@V?$allocator@VioHashString@@@1@@Z ENDP ; std::_Vector_val<ioHashString,std::allocator<ioHashString> >::_Vector_val<ioHashString,std::allocator<ioHashString> >
_TEXT	ENDS
PUBLIC	??1?$_Tree_val@V?$_Tmap_traits@KPAVCustomSoundData@@U?$less@K@std@@V?$allocator@U?$pair@$$CBKPAVCustomSoundData@@@std@@@3@$0A@@std@@@std@@QAE@XZ ; std::_Tree_val<std::_Tmap_traits<unsigned long,CustomSoundData *,std::less<unsigned long>,std::allocator<std::pair<unsigned long const ,CustomSoundData *> >,0> >::~_Tree_val<std::_Tmap_traits<unsigned long,CustomSoundData *,std::less<unsigned long>,std::allocator<std::pair<unsigned long const ,CustomSoundData *> >,0> >
; Function compile flags: /Ogsp
; File c:\program files (x86)\microsoft visual studio 10.0\vc\include\xtree
;	COMDAT ??1?$_Tree_val@V?$_Tmap_traits@KPAVCustomSoundData@@U?$less@K@std@@V?$allocator@U?$pair@$$CBKPAVCustomSoundData@@@std@@@3@$0A@@std@@@std@@QAE@XZ
_TEXT	SEGMENT
??1?$_Tree_val@V?$_Tmap_traits@KPAVCustomSoundData@@U?$less@K@std@@V?$allocator@U?$pair@$$CBKPAVCustomSoundData@@@std@@@3@$0A@@std@@@std@@QAE@XZ PROC ; std::_Tree_val<std::_Tmap_traits<unsigned long,CustomSoundData *,std::less<unsigned long>,std::allocator<std::pair<unsigned long const ,CustomSoundData *> >,0> >::~_Tree_val<std::_Tmap_traits<unsigned long,CustomSoundData *,std::less<unsigned long>,std::allocator<std::pair<unsigned long const ,CustomSoundData *> >,0> >, COMDAT
; _this$ = ecx

; 555  : 		this->_Alnod.deallocate(this->_Myhead, 1);

  00000	ff 71 04	 push	 DWORD PTR [ecx+4]
  00003	e8 00 00 00 00	 call	 ??3@YAXPAX@Z		; operator delete
  00008	59		 pop	 ecx

; 556  : 		}

  00009	c3		 ret	 0
??1?$_Tree_val@V?$_Tmap_traits@KPAVCustomSoundData@@U?$less@K@std@@V?$allocator@U?$pair@$$CBKPAVCustomSoundData@@@std@@@3@$0A@@std@@@std@@QAE@XZ ENDP ; std::_Tree_val<std::_Tmap_traits<unsigned long,CustomSoundData *,std::less<unsigned long>,std::allocator<std::pair<unsigned long const ,CustomSoundData *> >,0> >::~_Tree_val<std::_Tmap_traits<unsigned long,CustomSoundData *,std::less<unsigned long>,std::allocator<std::pair<unsigned long const ,CustomSoundData *> >,0> >
_TEXT	ENDS
PUBLIC	?_Make_iter@?$vector@VioHashString@@V?$allocator@VioHashString@@@std@@@std@@QBE?AV?$_Vector_iterator@V?$_Vector_val@VioHashString@@V?$allocator@VioHashString@@@std@@@std@@@2@V?$_Vector_const_iterator@V?$_Vector_val@VioHashString@@V?$allocator@VioHashString@@@std@@@std@@@2@@Z ; std::vector<ioHashString,std::allocator<ioHashString> >::_Make_iter
; Function compile flags: /Ogsp
; File c:\program files (x86)\microsoft visual studio 10.0\vc\include\vector
;	COMDAT ?_Make_iter@?$vector@VioHashString@@V?$allocator@VioHashString@@@std@@@std@@QBE?AV?$_Vector_iterator@V?$_Vector_val@VioHashString@@V?$allocator@VioHashString@@@std@@@std@@@2@V?$_Vector_const_iterator@V?$_Vector_val@VioHashString@@V?$allocator@VioHashString@@@std@@@std@@@2@@Z
_TEXT	SEGMENT
___$ReturnUdt$ = 8					; size = 4
__Where$ = 12						; size = 4
?_Make_iter@?$vector@VioHashString@@V?$allocator@VioHashString@@@std@@@std@@QBE?AV?$_Vector_iterator@V?$_Vector_val@VioHashString@@V?$allocator@VioHashString@@@std@@@std@@@2@V?$_Vector_const_iterator@V?$_Vector_val@VioHashString@@V?$allocator@VioHashString@@@std@@@std@@@2@@Z PROC ; std::vector<ioHashString,std::allocator<ioHashString> >::_Make_iter, COMDAT
; _this$ = ecx

; 801  : 		{	// make iterator from const_iterator

  00000	55		 push	 ebp
  00001	8b ec		 mov	 ebp, esp

; 802  : 		return (iterator(_Where._Ptr, this));

  00003	8b 45 08	 mov	 eax, DWORD PTR ___$ReturnUdt$[ebp]
  00006	8b 4d 0c	 mov	 ecx, DWORD PTR __Where$[ebp]
  00009	89 08		 mov	 DWORD PTR [eax], ecx

; 803  : 		}

  0000b	5d		 pop	 ebp
  0000c	c2 08 00	 ret	 8
?_Make_iter@?$vector@VioHashString@@V?$allocator@VioHashString@@@std@@@std@@QBE?AV?$_Vector_iterator@V?$_Vector_val@VioHashString@@V?$allocator@VioHashString@@@std@@@std@@@2@V?$_Vector_const_iterator@V?$_Vector_val@VioHashString@@V?$allocator@VioHashString@@@std@@@std@@@2@@Z ENDP ; std::vector<ioHashString,std::allocator<ioHashString> >::_Make_iter
_TEXT	ENDS
PUBLIC	?max_size@?$vector@VioHashString@@V?$allocator@VioHashString@@@std@@@std@@QBEIXZ ; std::vector<ioHashString,std::allocator<ioHashString> >::max_size
; Function compile flags: /Ogsp
;	COMDAT ?max_size@?$vector@VioHashString@@V?$allocator@VioHashString@@@std@@@std@@QBEIXZ
_TEXT	SEGMENT
?max_size@?$vector@VioHashString@@V?$allocator@VioHashString@@@std@@@std@@QBEIXZ PROC ; std::vector<ioHashString,std::allocator<ioHashString> >::max_size, COMDAT
; _this$ = ecx

; 884  : 		return (this->_Alval.max_size());

  00000	b8 ff ff ff 0f	 mov	 eax, 268435455		; 0fffffffH

; 885  : 		}

  00005	c3		 ret	 0
?max_size@?$vector@VioHashString@@V?$allocator@VioHashString@@@std@@@std@@QBEIXZ ENDP ; std::vector<ioHashString,std::allocator<ioHashString> >::max_size
_TEXT	ENDS
PUBLIC	?allocate@?$allocator@VioHashString@@@std@@QAEPAVioHashString@@I@Z ; std::allocator<ioHashString>::allocate
; Function compile flags: /Ogsp
; File c:\program files (x86)\microsoft visual studio 10.0\vc\include\xmemory
;	COMDAT ?allocate@?$allocator@VioHashString@@@std@@QAEPAVioHashString@@I@Z
_TEXT	SEGMENT
__Count$ = 8						; size = 4
?allocate@?$allocator@VioHashString@@@std@@QAEPAVioHashString@@I@Z PROC ; std::allocator<ioHashString>::allocate, COMDAT
; _this$ = ecx

; 186  : 		{	// allocate array of _Count elements

  00000	55		 push	 ebp
  00001	8b ec		 mov	 ebp, esp

; 187  : 		return (_Allocate(_Count, (pointer)0));

  00003	6a 00		 push	 0
  00005	ff 75 08	 push	 DWORD PTR __Count$[ebp]
  00008	e8 00 00 00 00	 call	 ??$_Allocate@VioHashString@@@std@@YAPAVioHashString@@IPAV1@@Z ; std::_Allocate<ioHashString>
  0000d	59		 pop	 ecx
  0000e	59		 pop	 ecx

; 188  : 		}

  0000f	5d		 pop	 ebp
  00010	c2 04 00	 ret	 4
?allocate@?$allocator@VioHashString@@@std@@QAEPAVioHashString@@I@Z ENDP ; std::allocator<ioHashString>::allocate
_TEXT	ENDS
PUBLIC	?_Lmost@?$_Tree@V?$_Tmap_traits@KPAVCustomSoundData@@U?$less@K@std@@V?$allocator@U?$pair@$$CBKPAVCustomSoundData@@@std@@@3@$0A@@std@@@std@@IBEAAPAU_Node@?$_Tree_nod@V?$_Tmap_traits@KPAVCustomSoundData@@U?$less@K@std@@V?$allocator@U?$pair@$$CBKPAVCustomSoundData@@@std@@@3@$0A@@std@@@2@XZ ; std::_Tree<std::_Tmap_traits<unsigned long,CustomSoundData *,std::less<unsigned long>,std::allocator<std::pair<unsigned long const ,CustomSoundData *> >,0> >::_Lmost
; Function compile flags: /Ogsp
; File c:\program files (x86)\microsoft visual studio 10.0\vc\include\xtree
;	COMDAT ?_Lmost@?$_Tree@V?$_Tmap_traits@KPAVCustomSoundData@@U?$less@K@std@@V?$allocator@U?$pair@$$CBKPAVCustomSoundData@@@std@@@3@$0A@@std@@@std@@IBEAAPAU_Node@?$_Tree_nod@V?$_Tmap_traits@KPAVCustomSoundData@@U?$less@K@std@@V?$allocator@U?$pair@$$CBKPAVCustomSoundData@@@std@@@3@$0A@@std@@@2@XZ
_TEXT	SEGMENT
?_Lmost@?$_Tree@V?$_Tmap_traits@KPAVCustomSoundData@@U?$less@K@std@@V?$allocator@U?$pair@$$CBKPAVCustomSoundData@@@std@@@3@$0A@@std@@@std@@IBEAAPAU_Node@?$_Tree_nod@V?$_Tmap_traits@KPAVCustomSoundData@@U?$less@K@std@@V?$allocator@U?$pair@$$CBKPAVCustomSoundData@@@std@@@3@$0A@@std@@@2@XZ PROC ; std::_Tree<std::_Tmap_traits<unsigned long,CustomSoundData *,std::less<unsigned long>,std::allocator<std::pair<unsigned long const ,CustomSoundData *> >,0> >::_Lmost, COMDAT
; _this$ = ecx

; 1759 : 		return (this->_Left(this->_Myhead));

  00000	8b 41 04	 mov	 eax, DWORD PTR [ecx+4]

; 1760 : 		}

  00003	c3		 ret	 0
?_Lmost@?$_Tree@V?$_Tmap_traits@KPAVCustomSoundData@@U?$less@K@std@@V?$allocator@U?$pair@$$CBKPAVCustomSoundData@@@std@@@3@$0A@@std@@@std@@IBEAAPAU_Node@?$_Tree_nod@V?$_Tmap_traits@KPAVCustomSoundData@@U?$less@K@std@@V?$allocator@U?$pair@$$CBKPAVCustomSoundData@@@std@@@3@$0A@@std@@@2@XZ ENDP ; std::_Tree<std::_Tmap_traits<unsigned long,CustomSoundData *,std::less<unsigned long>,std::allocator<std::pair<unsigned long const ,CustomSoundData *> >,0> >::_Lmost
_TEXT	ENDS
PUBLIC	??0?$_Tree_nod@V?$_Tmap_traits@KPAVCustomSoundData@@U?$less@K@std@@V?$allocator@U?$pair@$$CBKPAVCustomSoundData@@@std@@@3@$0A@@std@@@std@@QAE@ABU?$less@K@1@V?$allocator@U?$pair@$$CBKPAVCustomSoundData@@@std@@@1@@Z ; std::_Tree_nod<std::_Tmap_traits<unsigned long,CustomSoundData *,std::less<unsigned long>,std::allocator<std::pair<unsigned long const ,CustomSoundData *> >,0> >::_Tree_nod<std::_Tmap_traits<unsigned long,CustomSoundData *,std::less<unsigned long>,std::allocator<std::pair<unsigned long const ,CustomSoundData *> >,0> >
; Function compile flags: /Ogsp
;	COMDAT ??0?$_Tree_nod@V?$_Tmap_traits@KPAVCustomSoundData@@U?$less@K@std@@V?$allocator@U?$pair@$$CBKPAVCustomSoundData@@@std@@@3@$0A@@std@@@std@@QAE@ABU?$less@K@1@V?$allocator@U?$pair@$$CBKPAVCustomSoundData@@@std@@@1@@Z
_TEXT	SEGMENT
__Parg$ = 8						; size = 4
__Al$ = 12						; size = 1
??0?$_Tree_nod@V?$_Tmap_traits@KPAVCustomSoundData@@U?$less@K@std@@V?$allocator@U?$pair@$$CBKPAVCustomSoundData@@@std@@@3@$0A@@std@@@std@@QAE@ABU?$less@K@1@V?$allocator@U?$pair@$$CBKPAVCustomSoundData@@@std@@@1@@Z PROC ; std::_Tree_nod<std::_Tmap_traits<unsigned long,CustomSoundData *,std::less<unsigned long>,std::allocator<std::pair<unsigned long const ,CustomSoundData *> >,0> >::_Tree_nod<std::_Tmap_traits<unsigned long,CustomSoundData *,std::less<unsigned long>,std::allocator<std::pair<unsigned long const ,CustomSoundData *> >,0> >, COMDAT
; _this$ = ecx

; 482  : 		{	// construct traits from _Parg and allocators from _Al

  00000	8b c1		 mov	 eax, ecx

; 483  : 		}

  00002	c2 08 00	 ret	 8
??0?$_Tree_nod@V?$_Tmap_traits@KPAVCustomSoundData@@U?$less@K@std@@V?$allocator@U?$pair@$$CBKPAVCustomSoundData@@@std@@@3@$0A@@std@@@std@@QAE@ABU?$less@K@1@V?$allocator@U?$pair@$$CBKPAVCustomSoundData@@@std@@@1@@Z ENDP ; std::_Tree_nod<std::_Tmap_traits<unsigned long,CustomSoundData *,std::less<unsigned long>,std::allocator<std::pair<unsigned long const ,CustomSoundData *> >,0> >::_Tree_nod<std::_Tmap_traits<unsigned long,CustomSoundData *,std::less<unsigned long>,std::allocator<std::pair<unsigned long const ,CustomSoundData *> >,0> >
_TEXT	ENDS
PUBLIC	?allocate@?$allocator@U_Node@?$_Tree_nod@V?$_Tmap_traits@KPAVCustomSoundData@@U?$less@K@std@@V?$allocator@U?$pair@$$CBKPAVCustomSoundData@@@std@@@3@$0A@@std@@@std@@@std@@QAEPAU_Node@?$_Tree_nod@V?$_Tmap_traits@KPAVCustomSoundData@@U?$less@K@std@@V?$allocator@U?$pair@$$CBKPAVCustomSoundData@@@std@@@3@$0A@@std@@@2@I@Z ; std::allocator<std::_Tree_nod<std::_Tmap_traits<unsigned long,CustomSoundData *,std::less<unsigned long>,std::allocator<std::pair<unsigned long const ,CustomSoundData *> >,0> >::_Node>::allocate
; Function compile flags: /Ogsp
; File c:\program files (x86)\microsoft visual studio 10.0\vc\include\xmemory
;	COMDAT ?allocate@?$allocator@U_Node@?$_Tree_nod@V?$_Tmap_traits@KPAVCustomSoundData@@U?$less@K@std@@V?$allocator@U?$pair@$$CBKPAVCustomSoundData@@@std@@@3@$0A@@std@@@std@@@std@@QAEPAU_Node@?$_Tree_nod@V?$_Tmap_traits@KPAVCustomSoundData@@U?$less@K@std@@V?$allocator@U?$pair@$$CBKPAVCustomSoundData@@@std@@@3@$0A@@std@@@2@I@Z
_TEXT	SEGMENT
__Count$ = 8						; size = 4
?allocate@?$allocator@U_Node@?$_Tree_nod@V?$_Tmap_traits@KPAVCustomSoundData@@U?$less@K@std@@V?$allocator@U?$pair@$$CBKPAVCustomSoundData@@@std@@@3@$0A@@std@@@std@@@std@@QAEPAU_Node@?$_Tree_nod@V?$_Tmap_traits@KPAVCustomSoundData@@U?$less@K@std@@V?$allocator@U?$pair@$$CBKPAVCustomSoundData@@@std@@@3@$0A@@std@@@2@I@Z PROC ; std::allocator<std::_Tree_nod<std::_Tmap_traits<unsigned long,CustomSoundData *,std::less<unsigned long>,std::allocator<std::pair<unsigned long const ,CustomSoundData *> >,0> >::_Node>::allocate, COMDAT
; _this$ = ecx

; 186  : 		{	// allocate array of _Count elements

  00000	55		 push	 ebp
  00001	8b ec		 mov	 ebp, esp

; 187  : 		return (_Allocate(_Count, (pointer)0));

  00003	6a 00		 push	 0
  00005	ff 75 08	 push	 DWORD PTR __Count$[ebp]
  00008	e8 00 00 00 00	 call	 ??$_Allocate@U_Node@?$_Tree_nod@V?$_Tmap_traits@KPAVCustomSoundData@@U?$less@K@std@@V?$allocator@U?$pair@$$CBKPAVCustomSoundData@@@std@@@3@$0A@@std@@@std@@@std@@YAPAU_Node@?$_Tree_nod@V?$_Tmap_traits@KPAVCustomSoundData@@U?$less@K@std@@V?$allocator@U?$pair@$$CBKPAVCustomSoundData@@@std@@@3@$0A@@std@@@0@IPAU120@@Z ; std::_Allocate<std::_Tree_nod<std::_Tmap_traits<unsigned long,CustomSoundData *,std::less<unsigned long>,std::allocator<std::pair<unsigned long const ,CustomSoundData *> >,0> >::_Node>
  0000d	59		 pop	 ecx
  0000e	59		 pop	 ecx

; 188  : 		}

  0000f	5d		 pop	 ebp
  00010	c2 04 00	 ret	 4
?allocate@?$allocator@U_Node@?$_Tree_nod@V?$_Tmap_traits@KPAVCustomSoundData@@U?$less@K@std@@V?$allocator@U?$pair@$$CBKPAVCustomSoundData@@@std@@@3@$0A@@std@@@std@@@std@@QAEPAU_Node@?$_Tree_nod@V?$_Tmap_traits@KPAVCustomSoundData@@U?$less@K@std@@V?$allocator@U?$pair@$$CBKPAVCustomSoundData@@@std@@@3@$0A@@std@@@2@I@Z ENDP ; std::allocator<std::_Tree_nod<std::_Tmap_traits<unsigned long,CustomSoundData *,std::less<unsigned long>,std::allocator<std::pair<unsigned long const ,CustomSoundData *> >,0> >::_Node>::allocate
_TEXT	ENDS
PUBLIC	??8?$_Vector_const_iterator@V?$_Vector_val@VioHashString@@V?$allocator@VioHashString@@@std@@@std@@@std@@QBE_NABV01@@Z ; std::_Vector_const_iterator<std::_Vector_val<ioHashString,std::allocator<ioHashString> > >::operator==
; Function compile flags: /Ogsp
; File c:\program files (x86)\microsoft visual studio 10.0\vc\include\vector
;	COMDAT ??8?$_Vector_const_iterator@V?$_Vector_val@VioHashString@@V?$allocator@VioHashString@@@std@@@std@@@std@@QBE_NABV01@@Z
_TEXT	SEGMENT
__Right$ = 8						; size = 4
??8?$_Vector_const_iterator@V?$_Vector_val@VioHashString@@V?$allocator@VioHashString@@@std@@@std@@@std@@QBE_NABV01@@Z PROC ; std::_Vector_const_iterator<std::_Vector_val<ioHashString,std::allocator<ioHashString> > >::operator==, COMDAT
; _this$ = ecx

; 201  : 		{	// test for iterator equality

  00000	55		 push	 ebp
  00001	8b ec		 mov	 ebp, esp

; 202  : 		_Compat(_Right);
; 203  : 		return (this->_Ptr == _Right._Ptr);

  00003	8b 01		 mov	 eax, DWORD PTR [ecx]
  00005	8b 4d 08	 mov	 ecx, DWORD PTR __Right$[ebp]
  00008	2b 01		 sub	 eax, DWORD PTR [ecx]
  0000a	f7 d8		 neg	 eax
  0000c	1b c0		 sbb	 eax, eax
  0000e	40		 inc	 eax

; 204  : 		}

  0000f	5d		 pop	 ebp
  00010	c2 04 00	 ret	 4
??8?$_Vector_const_iterator@V?$_Vector_val@VioHashString@@V?$allocator@VioHashString@@@std@@@std@@@std@@QBE_NABV01@@Z ENDP ; std::_Vector_const_iterator<std::_Vector_val<ioHashString,std::allocator<ioHashString> > >::operator==
_TEXT	ENDS
PUBLIC	?_Lrotate@?$_Tree@V?$_Tmap_traits@KPAVCustomSoundData@@U?$less@K@std@@V?$allocator@U?$pair@$$CBKPAVCustomSoundData@@@std@@@3@$0A@@std@@@std@@IAEXPAU_Node@?$_Tree_nod@V?$_Tmap_traits@KPAVCustomSoundData@@U?$less@K@std@@V?$allocator@U?$pair@$$CBKPAVCustomSoundData@@@std@@@3@$0A@@std@@@2@@Z ; std::_Tree<std::_Tmap_traits<unsigned long,CustomSoundData *,std::less<unsigned long>,std::allocator<std::pair<unsigned long const ,CustomSoundData *> >,0> >::_Lrotate
; Function compile flags: /Ogsp
; File c:\program files (x86)\microsoft visual studio 10.0\vc\include\xtree
;	COMDAT ?_Lrotate@?$_Tree@V?$_Tmap_traits@KPAVCustomSoundData@@U?$less@K@std@@V?$allocator@U?$pair@$$CBKPAVCustomSoundData@@@std@@@3@$0A@@std@@@std@@IAEXPAU_Node@?$_Tree_nod@V?$_Tmap_traits@KPAVCustomSoundData@@U?$less@K@std@@V?$allocator@U?$pair@$$CBKPAVCustomSoundData@@@std@@@3@$0A@@std@@@2@@Z
_TEXT	SEGMENT
__Wherenode$ = 8					; size = 4
?_Lrotate@?$_Tree@V?$_Tmap_traits@KPAVCustomSoundData@@U?$less@K@std@@V?$allocator@U?$pair@$$CBKPAVCustomSoundData@@@std@@@3@$0A@@std@@@std@@IAEXPAU_Node@?$_Tree_nod@V?$_Tmap_traits@KPAVCustomSoundData@@U?$less@K@std@@V?$allocator@U?$pair@$$CBKPAVCustomSoundData@@@std@@@3@$0A@@std@@@2@@Z PROC ; std::_Tree<std::_Tmap_traits<unsigned long,CustomSoundData *,std::less<unsigned long>,std::allocator<std::pair<unsigned long const ,CustomSoundData *> >,0> >::_Lrotate, COMDAT
; _this$ = ecx

; 1763 : 		{	// promote right node to root of subtree

  00000	55		 push	 ebp
  00001	8b ec		 mov	 ebp, esp

; 1764 : 		_Nodeptr _Pnode = this->_Right(_Wherenode);

  00003	8b 55 08	 mov	 edx, DWORD PTR __Wherenode$[ebp]
  00006	8b 42 08	 mov	 eax, DWORD PTR [edx+8]
  00009	56		 push	 esi

; 1765 : 		this->_Right(_Wherenode) = this->_Left(_Pnode);

  0000a	8b 30		 mov	 esi, DWORD PTR [eax]
  0000c	89 72 08	 mov	 DWORD PTR [edx+8], esi

; 1766 : 
; 1767 : 		if (!this->_Isnil(this->_Left(_Pnode)))

  0000f	8b 30		 mov	 esi, DWORD PTR [eax]
  00011	80 7e 15 00	 cmp	 BYTE PTR [esi+21], 0
  00015	75 03		 jne	 SHORT $LN5@Lrotate

; 1768 : 			this->_Parent(this->_Left(_Pnode)) = _Wherenode;

  00017	89 56 04	 mov	 DWORD PTR [esi+4], edx
$LN5@Lrotate:

; 1769 : 		this->_Parent(_Pnode) = this->_Parent(_Wherenode);

  0001a	8b 72 04	 mov	 esi, DWORD PTR [edx+4]
  0001d	89 70 04	 mov	 DWORD PTR [eax+4], esi

; 1770 : 
; 1771 : 		if (_Wherenode == _Root())

  00020	8b 49 04	 mov	 ecx, DWORD PTR [ecx+4]
  00023	5e		 pop	 esi
  00024	3b 51 04	 cmp	 edx, DWORD PTR [ecx+4]
  00027	75 05		 jne	 SHORT $LN4@Lrotate

; 1772 : 			_Root() = _Pnode;

  00029	89 41 04	 mov	 DWORD PTR [ecx+4], eax

; 1773 : 		else if (_Wherenode == this->_Left(this->_Parent(_Wherenode)))

  0002c	eb 0e		 jmp	 SHORT $LN1@Lrotate
$LN4@Lrotate:
  0002e	8b 4a 04	 mov	 ecx, DWORD PTR [edx+4]
  00031	3b 11		 cmp	 edx, DWORD PTR [ecx]
  00033	75 04		 jne	 SHORT $LN2@Lrotate

; 1774 : 			this->_Left(this->_Parent(_Wherenode)) = _Pnode;

  00035	89 01		 mov	 DWORD PTR [ecx], eax

; 1775 : 		else

  00037	eb 03		 jmp	 SHORT $LN1@Lrotate
$LN2@Lrotate:

; 1776 : 			this->_Right(this->_Parent(_Wherenode)) = _Pnode;

  00039	89 41 08	 mov	 DWORD PTR [ecx+8], eax
$LN1@Lrotate:

; 1777 : 
; 1778 : 		this->_Left(_Pnode) = _Wherenode;

  0003c	89 10		 mov	 DWORD PTR [eax], edx

; 1779 : 		this->_Parent(_Wherenode) = _Pnode;

  0003e	89 42 04	 mov	 DWORD PTR [edx+4], eax

; 1780 : 		}

  00041	5d		 pop	 ebp
  00042	c2 04 00	 ret	 4
?_Lrotate@?$_Tree@V?$_Tmap_traits@KPAVCustomSoundData@@U?$less@K@std@@V?$allocator@U?$pair@$$CBKPAVCustomSoundData@@@std@@@3@$0A@@std@@@std@@IAEXPAU_Node@?$_Tree_nod@V?$_Tmap_traits@KPAVCustomSoundData@@U?$less@K@std@@V?$allocator@U?$pair@$$CBKPAVCustomSoundData@@@std@@@3@$0A@@std@@@2@@Z ENDP ; std::_Tree<std::_Tmap_traits<unsigned long,CustomSoundData *,std::less<unsigned long>,std::allocator<std::pair<unsigned long const ,CustomSoundData *> >,0> >::_Lrotate
_TEXT	ENDS
PUBLIC	??0?$_Tree_const_iterator@V?$_Tree_val@V?$_Tmap_traits@KPAVCustomSoundData@@U?$less@K@std@@V?$allocator@U?$pair@$$CBKPAVCustomSoundData@@@std@@@3@$0A@@std@@@std@@@std@@QAE@PAU_Node@?$_Tree_nod@V?$_Tmap_traits@KPAVCustomSoundData@@U?$less@K@std@@V?$allocator@U?$pair@$$CBKPAVCustomSoundData@@@std@@@3@$0A@@std@@@1@PBV?$_Tree_val@V?$_Tmap_traits@KPAVCustomSoundData@@U?$less@K@std@@V?$allocator@U?$pair@$$CBKPAVCustomSoundData@@@std@@@3@$0A@@std@@@1@@Z ; std::_Tree_const_iterator<std::_Tree_val<std::_Tmap_traits<unsigned long,CustomSoundData *,std::less<unsigned long>,std::allocator<std::pair<unsigned long const ,CustomSoundData *> >,0> > >::_Tree_const_iterator<std::_Tree_val<std::_Tmap_traits<unsigned long,CustomSoundData *,std::less<unsigned long>,std::allocator<std::pair<unsigned long const ,CustomSoundData *> >,0> > >
; Function compile flags: /Ogsp
;	COMDAT ??0?$_Tree_const_iterator@V?$_Tree_val@V?$_Tmap_traits@KPAVCustomSoundData@@U?$less@K@std@@V?$allocator@U?$pair@$$CBKPAVCustomSoundData@@@std@@@3@$0A@@std@@@std@@@std@@QAE@PAU_Node@?$_Tree_nod@V?$_Tmap_traits@KPAVCustomSoundData@@U?$less@K@std@@V?$allocator@U?$pair@$$CBKPAVCustomSoundData@@@std@@@3@$0A@@std@@@1@PBV?$_Tree_val@V?$_Tmap_traits@KPAVCustomSoundData@@U?$less@K@std@@V?$allocator@U?$pair@$$CBKPAVCustomSoundData@@@std@@@3@$0A@@std@@@1@@Z
_TEXT	SEGMENT
__Pnode$ = 8						; size = 4
__Plist$ = 12						; size = 4
??0?$_Tree_const_iterator@V?$_Tree_val@V?$_Tmap_traits@KPAVCustomSoundData@@U?$less@K@std@@V?$allocator@U?$pair@$$CBKPAVCustomSoundData@@@std@@@3@$0A@@std@@@std@@@std@@QAE@PAU_Node@?$_Tree_nod@V?$_Tmap_traits@KPAVCustomSoundData@@U?$less@K@std@@V?$allocator@U?$pair@$$CBKPAVCustomSoundData@@@std@@@3@$0A@@std@@@1@PBV?$_Tree_val@V?$_Tmap_traits@KPAVCustomSoundData@@U?$less@K@std@@V?$allocator@U?$pair@$$CBKPAVCustomSoundData@@@std@@@3@$0A@@std@@@1@@Z PROC ; std::_Tree_const_iterator<std::_Tree_val<std::_Tmap_traits<unsigned long,CustomSoundData *,std::less<unsigned long>,std::allocator<std::pair<unsigned long const ,CustomSoundData *> >,0> > >::_Tree_const_iterator<std::_Tree_val<std::_Tmap_traits<unsigned long,CustomSoundData *,std::less<unsigned long>,std::allocator<std::pair<unsigned long const ,CustomSoundData *> >,0> > >, COMDAT
; _this$ = ecx

; 213  : 		{	// construct with node pointer _Pnode

  00000	55		 push	 ebp
  00001	8b ec		 mov	 ebp, esp
  00003	8b c1		 mov	 eax, ecx
  00005	8b 4d 08	 mov	 ecx, DWORD PTR __Pnode$[ebp]
  00008	89 08		 mov	 DWORD PTR [eax], ecx

; 214  : 		}

  0000a	5d		 pop	 ebp
  0000b	c2 08 00	 ret	 8
??0?$_Tree_const_iterator@V?$_Tree_val@V?$_Tmap_traits@KPAVCustomSoundData@@U?$less@K@std@@V?$allocator@U?$pair@$$CBKPAVCustomSoundData@@@std@@@3@$0A@@std@@@std@@@std@@QAE@PAU_Node@?$_Tree_nod@V?$_Tmap_traits@KPAVCustomSoundData@@U?$less@K@std@@V?$allocator@U?$pair@$$CBKPAVCustomSoundData@@@std@@@3@$0A@@std@@@1@PBV?$_Tree_val@V?$_Tmap_traits@KPAVCustomSoundData@@U?$less@K@std@@V?$allocator@U?$pair@$$CBKPAVCustomSoundData@@@std@@@3@$0A@@std@@@1@@Z ENDP ; std::_Tree_const_iterator<std::_Tree_val<std::_Tmap_traits<unsigned long,CustomSoundData *,std::less<unsigned long>,std::allocator<std::pair<unsigned long const ,CustomSoundData *> >,0> > >::_Tree_const_iterator<std::_Tree_val<std::_Tmap_traits<unsigned long,CustomSoundData *,std::less<unsigned long>,std::allocator<std::pair<unsigned long const ,CustomSoundData *> >,0> > >
_TEXT	ENDS
PUBLIC	??E?$_Tree_const_iterator@V?$_Tree_val@V?$_Tmap_traits@KPAVCustomSoundData@@U?$less@K@std@@V?$allocator@U?$pair@$$CBKPAVCustomSoundData@@@std@@@3@$0A@@std@@@std@@@std@@QAEAAV01@XZ ; std::_Tree_const_iterator<std::_Tree_val<std::_Tmap_traits<unsigned long,CustomSoundData *,std::less<unsigned long>,std::allocator<std::pair<unsigned long const ,CustomSoundData *> >,0> > >::operator++
; Function compile flags: /Ogsp
;	COMDAT ??E?$_Tree_const_iterator@V?$_Tree_val@V?$_Tmap_traits@KPAVCustomSoundData@@U?$less@K@std@@V?$allocator@U?$pair@$$CBKPAVCustomSoundData@@@std@@@3@$0A@@std@@@std@@@std@@QAEAAV01@XZ
_TEXT	SEGMENT
??E?$_Tree_const_iterator@V?$_Tree_val@V?$_Tmap_traits@KPAVCustomSoundData@@U?$less@K@std@@V?$allocator@U?$pair@$$CBKPAVCustomSoundData@@@std@@@3@$0A@@std@@@std@@@std@@QAEAAV01@XZ PROC ; std::_Tree_const_iterator<std::_Tree_val<std::_Tmap_traits<unsigned long,CustomSoundData *,std::less<unsigned long>,std::allocator<std::pair<unsigned long const ,CustomSoundData *> >,0> > >::operator++, COMDAT
; _this$ = ecx

; 250  : 		{	// preincrement

  00000	56		 push	 esi
  00001	8b f1		 mov	 esi, ecx

; 251  :  #if _ITERATOR_DEBUG_LEVEL == 2
; 252  : 		if (this->_Getcont() == 0
; 253  : 			|| this->_Ptr == 0
; 254  : 			|| _Mytree::_Isnil(this->_Ptr))
; 255  : 			{	// report error
; 256  : 			_DEBUG_ERROR("map/set iterator not incrementable");
; 257  : 			_SCL_SECURE_OUT_OF_RANGE;
; 258  : 			}
; 259  : 
; 260  :  #elif _ITERATOR_DEBUG_LEVEL == 1
; 261  : 		_SCL_SECURE_VALIDATE(this->_Getcont() != 0 && this->_Ptr != 0);
; 262  : 		_SCL_SECURE_VALIDATE_RANGE(!_Mytree::_Isnil(this->_Ptr));
; 263  :  #endif /* _ITERATOR_DEBUG_LEVEL */
; 264  : 
; 265  : 		++(*(_Mybase *)this);

  00003	e8 00 00 00 00	 call	 ??E?$_Tree_unchecked_const_iterator@V?$_Tree_val@V?$_Tmap_traits@KPAVCustomSoundData@@U?$less@K@std@@V?$allocator@U?$pair@$$CBKPAVCustomSoundData@@@std@@@3@$0A@@std@@@std@@U_Iterator_base0@2@@std@@QAEAAV01@XZ ; std::_Tree_unchecked_const_iterator<std::_Tree_val<std::_Tmap_traits<unsigned long,CustomSoundData *,std::less<unsigned long>,std::allocator<std::pair<unsigned long const ,CustomSoundData *> >,0> >,std::_Iterator_base0>::operator++

; 266  : 		return (*this);

  00008	8b c6		 mov	 eax, esi
  0000a	5e		 pop	 esi

; 267  : 		}

  0000b	c3		 ret	 0
??E?$_Tree_const_iterator@V?$_Tree_val@V?$_Tmap_traits@KPAVCustomSoundData@@U?$less@K@std@@V?$allocator@U?$pair@$$CBKPAVCustomSoundData@@@std@@@3@$0A@@std@@@std@@@std@@QAEAAV01@XZ ENDP ; std::_Tree_const_iterator<std::_Tree_val<std::_Tmap_traits<unsigned long,CustomSoundData *,std::less<unsigned long>,std::allocator<std::pair<unsigned long const ,CustomSoundData *> >,0> > >::operator++
_TEXT	ENDS
PUBLIC	??$swap@D@std@@YAXAAD0@Z			; std::swap<char>
; Function compile flags: /Ogsp
; File c:\program files (x86)\microsoft visual studio 10.0\vc\include\utility
;	COMDAT ??$swap@D@std@@YAXAAD0@Z
_TEXT	SEGMENT
__Left$ = 8						; size = 4
__Right$ = 12						; size = 4
??$swap@D@std@@YAXAAD0@Z PROC				; std::swap<char>, COMDAT

; 101  : 	{	// exchange values stored at _Left and _Right

  00000	55		 push	 ebp
  00001	8b ec		 mov	 ebp, esp

; 102  : 	_Ty _Tmp = _Move(_Left);

  00003	8b 45 08	 mov	 eax, DWORD PTR __Left$[ebp]
  00006	8a 08		 mov	 cl, BYTE PTR [eax]
  00008	56		 push	 esi

; 103  : 	_Left = _Move(_Right);

  00009	8b 75 0c	 mov	 esi, DWORD PTR __Right$[ebp]
  0000c	8a 16		 mov	 dl, BYTE PTR [esi]
  0000e	88 10		 mov	 BYTE PTR [eax], dl

; 104  : 	_Right = _Move(_Tmp);

  00010	88 0e		 mov	 BYTE PTR [esi], cl
  00012	5e		 pop	 esi

; 105  : 	}

  00013	5d		 pop	 ebp
  00014	c3		 ret	 0
??$swap@D@std@@YAXAAD0@Z ENDP				; std::swap<char>
_TEXT	ENDS
PUBLIC	?destroy@?$allocator@U?$pair@$$CBKPAVCustomSoundData@@@std@@@std@@QAEXPAU?$pair@$$CBKPAVCustomSoundData@@@2@@Z ; std::allocator<std::pair<unsigned long const ,CustomSoundData *> >::destroy
; Function compile flags: /Ogsp
; File c:\program files (x86)\microsoft visual studio 10.0\vc\include\xmemory
;	COMDAT ?destroy@?$allocator@U?$pair@$$CBKPAVCustomSoundData@@@std@@@std@@QAEXPAU?$pair@$$CBKPAVCustomSoundData@@@2@@Z
_TEXT	SEGMENT
__Ptr$ = 8						; size = 4
?destroy@?$allocator@U?$pair@$$CBKPAVCustomSoundData@@@std@@@std@@QAEXPAU?$pair@$$CBKPAVCustomSoundData@@@2@@Z PROC ; std::allocator<std::pair<unsigned long const ,CustomSoundData *> >::destroy, COMDAT
; _this$ = ecx

; 213  : 		_Destroy(_Ptr);
; 214  : 		}

  00000	c2 04 00	 ret	 4
?destroy@?$allocator@U?$pair@$$CBKPAVCustomSoundData@@@std@@@std@@QAEXPAU?$pair@$$CBKPAVCustomSoundData@@@2@@Z ENDP ; std::allocator<std::pair<unsigned long const ,CustomSoundData *> >::destroy
_TEXT	ENDS
PUBLIC	??$_Move@PAVioHashString@@PAV1@@std@@YAPAVioHashString@@PAV1@00U_Nonscalar_ptr_iterator_tag@0@@Z ; std::_Move<ioHashString *,ioHashString *>
EXTRN	__imp_??4ioHashString@@QAEAAV0@ABV0@@Z:PROC
; Function compile flags: /Ogsp
; File c:\program files (x86)\microsoft visual studio 10.0\vc\include\xutility
;	COMDAT ??$_Move@PAVioHashString@@PAV1@@std@@YAPAVioHashString@@PAV1@00U_Nonscalar_ptr_iterator_tag@0@@Z
_TEXT	SEGMENT
__First$ = 8						; size = 4
__Last$ = 12						; size = 4
__Dest$ = 16						; size = 4
___formal$ = 20						; size = 1
??$_Move@PAVioHashString@@PAV1@@std@@YAPAVioHashString@@PAV1@00U_Nonscalar_ptr_iterator_tag@0@@Z PROC ; std::_Move<ioHashString *,ioHashString *>, COMDAT

; 2512 : 	{	// move [_First, _Last) to [_Dest, ...), arbitrary iterators

  00000	55		 push	 ebp
  00001	8b ec		 mov	 ebp, esp
  00003	56		 push	 esi

; 2513 : 	for (; _First != _Last; ++_Dest, ++_First)

  00004	8b 75 08	 mov	 esi, DWORD PTR __First$[ebp]
  00007	eb 11		 jmp	 SHORT $LN11@Move@2
$LL3@Move@2:

; 2514 : 		*_Dest = _STD move(*_First);

  00009	8b 4d 10	 mov	 ecx, DWORD PTR __Dest$[ebp]
  0000c	56		 push	 esi
  0000d	ff 15 00 00 00
	00		 call	 DWORD PTR __imp_??4ioHashString@@QAEAAV0@ABV0@@Z
  00013	83 45 10 10	 add	 DWORD PTR __Dest$[ebp], 16 ; 00000010H
  00017	83 c6 10	 add	 esi, 16			; 00000010H
$LN11@Move@2:

; 2513 : 	for (; _First != _Last; ++_Dest, ++_First)

  0001a	3b 75 0c	 cmp	 esi, DWORD PTR __Last$[ebp]
  0001d	75 ea		 jne	 SHORT $LL3@Move@2

; 2515 : 	return (_Dest);

  0001f	8b 45 10	 mov	 eax, DWORD PTR __Dest$[ebp]
  00022	5e		 pop	 esi

; 2516 : 	}

  00023	5d		 pop	 ebp
  00024	c3		 ret	 0
??$_Move@PAVioHashString@@PAV1@@std@@YAPAVioHashString@@PAV1@00U_Nonscalar_ptr_iterator_tag@0@@Z ENDP ; std::_Move<ioHashString *,ioHashString *>
_TEXT	ENDS
PUBLIC	??$_Destroy@VioHashString@@@std@@YAXPAVioHashString@@@Z ; std::_Destroy<ioHashString>
; Function compile flags: /Ogsp
; File c:\program files (x86)\microsoft visual studio 10.0\vc\include\xmemory
;	COMDAT ??$_Destroy@VioHashString@@@std@@YAXPAVioHashString@@@Z
_TEXT	SEGMENT
__Ptr$ = 8						; size = 4
??$_Destroy@VioHashString@@@std@@YAXPAVioHashString@@@Z PROC ; std::_Destroy<ioHashString>, COMDAT

; 62   : 	{	// destroy object at _Ptr

  00000	55		 push	 ebp
  00001	8b ec		 mov	 ebp, esp

; 63   : 	_Ptr->~_Ty();

  00003	8b 4d 08	 mov	 ecx, DWORD PTR __Ptr$[ebp]

; 64   : 	}

  00006	5d		 pop	 ebp

; 63   : 	_Ptr->~_Ty();

  00007	ff 25 00 00 00
	00		 jmp	 DWORD PTR __imp_??1ioHashString@@QAE@XZ
??$_Destroy@VioHashString@@@std@@YAXPAVioHashString@@@Z ENDP ; std::_Destroy<ioHashString>
_TEXT	ENDS
PUBLIC	?construct@?$allocator@VioHashString@@@std@@QAEXPAVioHashString@@ABV3@@Z ; std::allocator<ioHashString>::construct
; Function compile flags: /Ogsp
;	COMDAT ?construct@?$allocator@VioHashString@@@std@@QAEXPAVioHashString@@ABV3@@Z
_TEXT	SEGMENT
__Ptr$ = 8						; size = 4
__Val$ = 12						; size = 4
?construct@?$allocator@VioHashString@@@std@@QAEXPAVioHashString@@ABV3@@Z PROC ; std::allocator<ioHashString>::construct, COMDAT
; _this$ = ecx

; 196  : 		{	// construct object at _Ptr with value _Val

  00000	55		 push	 ebp
  00001	8b ec		 mov	 ebp, esp

; 197  : 		_Construct(_Ptr, _Val);

  00003	ff 75 0c	 push	 DWORD PTR __Val$[ebp]
  00006	ff 75 08	 push	 DWORD PTR __Ptr$[ebp]
  00009	e8 00 00 00 00	 call	 ??$_Construct@VioHashString@@ABV1@@std@@YAXPAVioHashString@@ABV1@@Z ; std::_Construct<ioHashString,ioHashString const &>
  0000e	59		 pop	 ecx
  0000f	59		 pop	 ecx

; 198  : 		}

  00010	5d		 pop	 ebp
  00011	c2 08 00	 ret	 8
?construct@?$allocator@VioHashString@@@std@@QAEXPAVioHashString@@ABV3@@Z ENDP ; std::allocator<ioHashString>::construct
_TEXT	ENDS
PUBLIC	??_C@_09FMHCDIDF@FileCRC?$CFd?$AA@		; `string'
PUBLIC	??_C@_0BI@PIFFLPLN@Save?2?$CFs?2CustomSound?4ini?$AA@ ; `string'
PUBLIC	?SaveINIBlank@ioCustomSoundMgr@@QAEXK@Z		; ioCustomSoundMgr::SaveINIBlank
EXTRN	__imp_?SaveInt@ioINILoader@@QAEXPBDH@Z:PROC
EXTRN	__imp_?SaveString@ioINILoader@@QAEXPBD0@Z:PROC
EXTRN	__imp_??0ioINILoader@@QAE@PBD_N@Z:PROC
EXTRN	__imp_?c_str@ioHashString@@QBEPBDXZ:PROC
EXTRN	__EH_epilog3_GS:PROC
EXTRN	__EH_prolog3_GS:PROC
;	COMDAT ??_C@_09FMHCDIDF@FileCRC?$CFd?$AA@
; File d:\lost saga for developer\youtube\tutorial\source\src\lsclient\stringprotect.h
CONST	SEGMENT
??_C@_09FMHCDIDF@FileCRC?$CFd?$AA@ DB 'FileCRC%d', 00H	; `string'
CONST	ENDS
;	COMDAT ??_C@_0BI@PIFFLPLN@Save?2?$CFs?2CustomSound?4ini?$AA@
CONST	SEGMENT
??_C@_0BI@PIFFLPLN@Save?2?$CFs?2CustomSound?4ini?$AA@ DB 'Save\%s\CustomS'
	DB	'ound.ini', 00H				; `string'
CONST	ENDS
;	COMDAT xdata$x
xdata$x	SEGMENT
__unwindtable$?SaveINIBlank@ioCustomSoundMgr@@QAEXK@Z DD 0ffffffffH
	DD	FLAT:__unwindfunclet$?SaveINIBlank@ioCustomSoundMgr@@QAEXK@Z$0
__ehfuncinfo$?SaveINIBlank@ioCustomSoundMgr@@QAEXK@Z DD 019930522H
	DD	01H
	DD	FLAT:__unwindtable$?SaveINIBlank@ioCustomSoundMgr@@QAEXK@Z
	DD	2 DUP(00H)
	DD	2 DUP(00H)
	DD	00H
	DD	01H
; Function compile flags: /Ogsp
; File d:\lost saga for developer\youtube\tutorial\source\src\lsclient\iocustomsoundmgr.cpp
xdata$x	ENDS
;	COMDAT ?SaveINIBlank@ioCustomSoundMgr@@QAEXK@Z
_TEXT	SEGMENT
_kLoader$ = -1332					; size = 784
_szININame$ = -548					; size = 260
_szKeyName$ = -288					; size = 260
__t$512605 = -28					; size = 5
___encStr$507085 = -28					; size = 7
___encStr$506934 = -28					; size = 7
__$EHRec$ = -12						; size = 12
_dwCustomSoundIndex$ = 8				; size = 4
?SaveINIBlank@ioCustomSoundMgr@@QAEXK@Z PROC		; ioCustomSoundMgr::SaveINIBlank, COMDAT
; _this$ = ecx

; 835  : {

  00000	68 28 05 00 00	 push	 1320			; 00000528H
  00005	b8 00 00 00 00	 mov	 eax, __ehhandler$?SaveINIBlank@ioCustomSoundMgr@@QAEXK@Z
  0000a	e8 00 00 00 00	 call	 __EH_prolog3_GS

; 836  : 	char szININame[MAX_PATH]="";

  0000f	33 db		 xor	 ebx, ebx
  00011	68 03 01 00 00	 push	 259			; 00000103H
  00016	8d 85 dd fd ff
	ff		 lea	 eax, DWORD PTR _szININame$[ebp+1]
  0001c	53		 push	 ebx
  0001d	50		 push	 eax
  0001e	88 9d dc fd ff
	ff		 mov	 BYTE PTR _szININame$[ebp], bl
  00024	e8 00 00 00 00	 call	 _memset
  00029	83 c4 0c	 add	 esp, 12			; 0000000cH

; 837  : 	StringCbPrintf( szININame, sizeof(szININame), "Save\\%s\\CustomSound.ini", g_MyInfo.GetPublicID().c_str() );

  0002c	e8 00 00 00 00	 call	 ?GetSingleton@ioMyInfo@@SAAAV1@XZ ; ioMyInfo::GetSingleton
  00031	8d 48 1c	 lea	 ecx, DWORD PTR [eax+28]
  00034	ff 15 00 00 00
	00		 call	 DWORD PTR __imp_?c_str@ioHashString@@QBEPBDXZ
  0003a	50		 push	 eax
  0003b	68 00 00 00 00	 push	 OFFSET ??_C@_0BI@PIFFLPLN@Save?2?$CFs?2CustomSound?4ini?$AA@
  00040	be 04 01 00 00	 mov	 esi, 260		; 00000104H
  00045	8d 85 dc fd ff
	ff		 lea	 eax, DWORD PTR _szININame$[ebp]
  0004b	56		 push	 esi
  0004c	50		 push	 eax
  0004d	e8 00 00 00 00	 call	 ?StringCbPrintfA@@YAJPADIPBDZZ ; StringCbPrintfA
  00052	83 c4 10	 add	 esp, 16			; 00000010H

; 838  : 
; 839  : 	ioINILoader kLoader( szININame, false );

  00055	53		 push	 ebx
  00056	8d 85 dc fd ff
	ff		 lea	 eax, DWORD PTR _szININame$[ebp]
  0005c	50		 push	 eax
  0005d	8d 8d cc fa ff
	ff		 lea	 ecx, DWORD PTR _kLoader$[ebp]
  00063	ff 15 00 00 00
	00		 call	 DWORD PTR __imp_??0ioINILoader@@QAE@PBD_N@Z

; 840  : 	kLoader.SetTitle_e( "Info" );

  00069	8d 45 e4	 lea	 eax, DWORD PTR __t$512605[ebp]
  0006c	c7 45 e4 a4 82
	8d 85		 mov	 DWORD PTR __t$512605[ebp], -2054323548 ; 858d82a4H
  00073	bf ed ec eb ea	 mov	 edi, -353637139		; eaebecedH
  00078	31 7d e4	 xor	 DWORD PTR __t$512605[ebp], edi
  0007b	50		 push	 eax
  0007c	8d 8d cc fa ff
	ff		 lea	 ecx, DWORD PTR _kLoader$[ebp]
  00082	89 5d fc	 mov	 DWORD PTR __$EHRec$[ebp+8], ebx
  00085	88 5d e8	 mov	 BYTE PTR __t$512605[ebp+4], bl
  00088	ff 15 00 00 00
	00		 call	 DWORD PTR __imp_?SetTitle@ioINILoader@@QAEXPBD@Z

; 841  : 
; 842  : 	char szKeyName[MAX_PATH]="";

  0008e	68 03 01 00 00	 push	 259			; 00000103H
  00093	8d 85 e1 fe ff
	ff		 lea	 eax, DWORD PTR _szKeyName$[ebp+1]
  00099	53		 push	 ebx
  0009a	50		 push	 eax
  0009b	88 9d e0 fe ff
	ff		 mov	 BYTE PTR _szKeyName$[ebp], bl
  000a1	e8 00 00 00 00	 call	 _memset
  000a6	83 c4 0c	 add	 esp, 12			; 0000000cH

; 843  : 	StringCbPrintf_e( szKeyName, sizeof( szKeyName ), "Text%d", dwCustomSoundIndex );

  000a9	6a 04		 push	 4
  000ab	c7 45 e4 b9 89
	93 9e		 mov	 DWORD PTR ___encStr$506934[ebp], -1634498119 ; 9e9389b9H
  000b2	31 7d e4	 xor	 DWORD PTR ___encStr$506934[ebp], edi
  000b5	66 c7 45 e8 c8
	88		 mov	 WORD PTR ___encStr$506934[ebp+4], 35016 ; 000088c8H
  000bb	88 5d ea	 mov	 BYTE PTR ___encStr$506934[ebp+6], bl
  000be	58		 pop	 eax
$LL312@SaveINIBla:
  000bf	8b c8		 mov	 ecx, eax
  000c1	81 e1 03 00 00
	80		 and	 ecx, -2147483645	; 80000003H
  000c7	79 05		 jns	 SHORT $LN339@SaveINIBla
  000c9	49		 dec	 ecx
  000ca	83 c9 fc	 or	 ecx, -4			; fffffffcH
  000cd	41		 inc	 ecx
$LN339@SaveINIBla:
  000ce	b2 ed		 mov	 dl, -19			; ffffffedH
  000d0	2a d1		 sub	 dl, cl
  000d2	30 54 05 e4	 xor	 BYTE PTR ___encStr$506934[ebp+eax], dl
  000d6	40		 inc	 eax
  000d7	83 f8 06	 cmp	 eax, 6
  000da	7c e3		 jl	 SHORT $LL312@SaveINIBla
  000dc	ff 75 08	 push	 DWORD PTR _dwCustomSoundIndex$[ebp]
  000df	8d 45 e4	 lea	 eax, DWORD PTR ___encStr$506934[ebp]
  000e2	50		 push	 eax
  000e3	8d 85 e0 fe ff
	ff		 lea	 eax, DWORD PTR _szKeyName$[ebp]
  000e9	56		 push	 esi
  000ea	50		 push	 eax
  000eb	e8 00 00 00 00	 call	 ?StringCbPrintfA@@YAJPADIPBDZZ ; StringCbPrintfA
  000f0	83 c4 10	 add	 esp, 16			; 00000010H

; 844  : 	kLoader.SaveString( szKeyName, "" );

  000f3	68 00 00 00 00	 push	 OFFSET ??_C@_00CNPNBAHC@?$AA@
  000f8	8d 85 e0 fe ff
	ff		 lea	 eax, DWORD PTR _szKeyName$[ebp]
  000fe	50		 push	 eax
  000ff	8d 8d cc fa ff
	ff		 lea	 ecx, DWORD PTR _kLoader$[ebp]
  00105	ff 15 00 00 00
	00		 call	 DWORD PTR __imp_?SaveString@ioINILoader@@QAEXPBD0@Z

; 845  : 
; 846  : 	ZeroMemory( szKeyName, sizeof(szKeyName) );

  0010b	56		 push	 esi
  0010c	8d 85 e0 fe ff
	ff		 lea	 eax, DWORD PTR _szKeyName$[ebp]
  00112	53		 push	 ebx
  00113	50		 push	 eax
  00114	e8 00 00 00 00	 call	 _memset
  00119	83 c4 0c	 add	 esp, 12			; 0000000cH

; 847  : 	StringCbPrintf_e( szKeyName, sizeof( szKeyName), "File%d", dwCustomSoundIndex );

  0011c	c7 45 e4 ab 85
	87 8f		 mov	 DWORD PTR ___encStr$507085[ebp], -1886943829 ; 8f8785abH
  00123	31 7d e4	 xor	 DWORD PTR ___encStr$507085[ebp], edi
  00126	6a 04		 push	 4
  00128	66 c7 45 e8 c8
	88		 mov	 WORD PTR ___encStr$507085[ebp+4], 35016 ; 000088c8H
  0012e	88 5d ea	 mov	 BYTE PTR ___encStr$507085[ebp+6], bl
  00131	5f		 pop	 edi
$LL320@SaveINIBla:
  00132	8b c7		 mov	 eax, edi
  00134	25 03 00 00 80	 and	 eax, -2147483645	; 80000003H
  00139	79 05		 jns	 SHORT $LN340@SaveINIBla
  0013b	48		 dec	 eax
  0013c	83 c8 fc	 or	 eax, -4			; fffffffcH
  0013f	40		 inc	 eax
$LN340@SaveINIBla:
  00140	b1 ed		 mov	 cl, -19			; ffffffedH
  00142	2a c8		 sub	 cl, al
  00144	30 4c 3d e4	 xor	 BYTE PTR ___encStr$507085[ebp+edi], cl
  00148	47		 inc	 edi
  00149	83 ff 06	 cmp	 edi, 6
  0014c	7c e4		 jl	 SHORT $LL320@SaveINIBla
  0014e	ff 75 08	 push	 DWORD PTR _dwCustomSoundIndex$[ebp]
  00151	8d 45 e4	 lea	 eax, DWORD PTR ___encStr$507085[ebp]
  00154	50		 push	 eax
  00155	8d 85 e0 fe ff
	ff		 lea	 eax, DWORD PTR _szKeyName$[ebp]
  0015b	56		 push	 esi
  0015c	50		 push	 eax
  0015d	e8 00 00 00 00	 call	 ?StringCbPrintfA@@YAJPADIPBDZZ ; StringCbPrintfA
  00162	83 c4 10	 add	 esp, 16			; 00000010H

; 848  : 	kLoader.SaveString( szKeyName, "" );

  00165	68 00 00 00 00	 push	 OFFSET ??_C@_00CNPNBAHC@?$AA@
  0016a	8d 85 e0 fe ff
	ff		 lea	 eax, DWORD PTR _szKeyName$[ebp]
  00170	50		 push	 eax
  00171	8d 8d cc fa ff
	ff		 lea	 ecx, DWORD PTR _kLoader$[ebp]
  00177	ff 15 00 00 00
	00		 call	 DWORD PTR __imp_?SaveString@ioINILoader@@QAEXPBD0@Z

; 849  : 
; 850  : 	ZeroMemory( szKeyName, sizeof(szKeyName) );

  0017d	56		 push	 esi
  0017e	8d 85 e0 fe ff
	ff		 lea	 eax, DWORD PTR _szKeyName$[ebp]
  00184	53		 push	 ebx
  00185	50		 push	 eax
  00186	e8 00 00 00 00	 call	 _memset

; 851  : 	StringCbPrintf( szKeyName, sizeof( szKeyName), "FileCRC%d", dwCustomSoundIndex );

  0018b	ff 75 08	 push	 DWORD PTR _dwCustomSoundIndex$[ebp]
  0018e	8d 85 e0 fe ff
	ff		 lea	 eax, DWORD PTR _szKeyName$[ebp]
  00194	68 00 00 00 00	 push	 OFFSET ??_C@_09FMHCDIDF@FileCRC?$CFd?$AA@
  00199	56		 push	 esi
  0019a	50		 push	 eax
  0019b	e8 00 00 00 00	 call	 ?StringCbPrintfA@@YAJPADIPBDZZ ; StringCbPrintfA
  001a0	83 c4 1c	 add	 esp, 28			; 0000001cH

; 852  : 	kLoader.SaveInt( szKeyName, 0 );

  001a3	53		 push	 ebx
  001a4	8d 85 e0 fe ff
	ff		 lea	 eax, DWORD PTR _szKeyName$[ebp]
  001aa	50		 push	 eax
  001ab	8d 8d cc fa ff
	ff		 lea	 ecx, DWORD PTR _kLoader$[ebp]
  001b1	ff 15 00 00 00
	00		 call	 DWORD PTR __imp_?SaveInt@ioINILoader@@QAEXPBDH@Z

; 853  : }

  001b7	83 4d fc ff	 or	 DWORD PTR __$EHRec$[ebp+8], -1
  001bb	8d 8d cc fa ff
	ff		 lea	 ecx, DWORD PTR _kLoader$[ebp]
  001c1	ff 15 00 00 00
	00		 call	 DWORD PTR __imp_??1ioINILoader@@QAE@XZ
  001c7	e8 00 00 00 00	 call	 __EH_epilog3_GS
  001cc	c2 04 00	 ret	 4
_TEXT	ENDS
;	COMDAT text$x
text$x	SEGMENT
__unwindfunclet$?SaveINIBlank@ioCustomSoundMgr@@QAEXK@Z$0:
  00000	8d 8d cc fa ff
	ff		 lea	 ecx, DWORD PTR _kLoader$[ebp]
  00006	ff 25 00 00 00
	00		 jmp	 DWORD PTR __imp_??1ioINILoader@@QAE@XZ
__ehhandler$?SaveINIBlank@ioCustomSoundMgr@@QAEXK@Z:
  0000c	8b 54 24 08	 mov	 edx, DWORD PTR [esp+8]
  00010	8d 42 0c	 lea	 eax, DWORD PTR [edx+12]
  00013	8b 8a c8 fa ff
	ff		 mov	 ecx, DWORD PTR [edx-1336]
  00019	33 c8		 xor	 ecx, eax
  0001b	e8 00 00 00 00	 call	 @__security_check_cookie@4
  00020	8b 4a fc	 mov	 ecx, DWORD PTR [edx-4]
  00023	33 c8		 xor	 ecx, eax
  00025	e8 00 00 00 00	 call	 @__security_check_cookie@4
  0002a	b8 00 00 00 00	 mov	 eax, OFFSET __ehfuncinfo$?SaveINIBlank@ioCustomSoundMgr@@QAEXK@Z
  0002f	e9 00 00 00 00	 jmp	 ___CxxFrameHandler3
text$x	ENDS
?SaveINIBlank@ioCustomSoundMgr@@QAEXK@Z ENDP		; ioCustomSoundMgr::SaveINIBlank
PUBLIC	??_C@_04EHFPNHBI@ID?$CFd?$AA@			; `string'
PUBLIC	??_C@_0P@HCMIHFMH@CurChangeArray?$AA@		; `string'
PUBLIC	??_C@_03BJDGPCOK@Max?$AA@			; `string'
PUBLIC	?SaveINIForDisable@ioCustomSoundMgr@@IAEXXZ	; ioCustomSoundMgr::SaveINIForDisable
EXTRN	__imp_?IsEmpty@ioHashString@@QBE_NXZ:PROC
;	COMDAT ??_C@_04EHFPNHBI@ID?$CFd?$AA@
; File c:\program files (x86)\microsoft visual studio 10.0\vc\include\vector
CONST	SEGMENT
??_C@_04EHFPNHBI@ID?$CFd?$AA@ DB 'ID%d', 00H		; `string'
CONST	ENDS
;	COMDAT ??_C@_0P@HCMIHFMH@CurChangeArray?$AA@
CONST	SEGMENT
??_C@_0P@HCMIHFMH@CurChangeArray?$AA@ DB 'CurChangeArray', 00H ; `string'
CONST	ENDS
;	COMDAT ??_C@_03BJDGPCOK@Max?$AA@
CONST	SEGMENT
??_C@_03BJDGPCOK@Max?$AA@ DB 'Max', 00H			; `string'
CONST	ENDS
;	COMDAT xdata$x
xdata$x	SEGMENT
__unwindtable$?SaveINIForDisable@ioCustomSoundMgr@@IAEXXZ DD 0ffffffffH
	DD	FLAT:__unwindfunclet$?SaveINIForDisable@ioCustomSoundMgr@@IAEXXZ$0
__ehfuncinfo$?SaveINIForDisable@ioCustomSoundMgr@@IAEXXZ DD 019930522H
	DD	01H
	DD	FLAT:__unwindtable$?SaveINIForDisable@ioCustomSoundMgr@@IAEXXZ
	DD	2 DUP(00H)
	DD	2 DUP(00H)
	DD	00H
	DD	01H
; Function compile flags: /Ogsp
; File d:\lost saga for developer\youtube\tutorial\source\src\lsclient\iocustomsoundmgr.cpp
xdata$x	ENDS
;	COMDAT ?SaveINIForDisable@ioCustomSoundMgr@@IAEXXZ
_TEXT	SEGMENT
tv1119 = -1344						; size = 4
tv962 = -1340						; size = 4
_i$507403 = -1340					; size = 4
_kLoader$ = -1336					; size = 784
_szKeyName$507407 = -552				; size = 260
_szININame$ = -292					; size = 260
__t$512792 = -32					; size = 12
__$EHRec$ = -12						; size = 12
?SaveINIForDisable@ioCustomSoundMgr@@IAEXXZ PROC	; ioCustomSoundMgr::SaveINIForDisable, COMDAT
; _this$ = ecx

; 1044 : {

  00000	68 34 05 00 00	 push	 1332			; 00000534H
  00005	b8 00 00 00 00	 mov	 eax, __ehhandler$?SaveINIForDisable@ioCustomSoundMgr@@IAEXXZ
  0000a	e8 00 00 00 00	 call	 __EH_prolog3_GS
  0000f	8b f9		 mov	 edi, ecx

; 1045 : 	if( !m_bSaveDisableList ) return;

  00011	80 7f 48 00	 cmp	 BYTE PTR [edi+72], 0
  00015	0f 84 93 01 00
	00		 je	 $LN6@SaveINIFor

; 1046 : 	if( g_MyInfo.GetPublicID().IsEmpty() ) return;

  0001b	e8 00 00 00 00	 call	 ?GetSingleton@ioMyInfo@@SAAAV1@XZ ; ioMyInfo::GetSingleton
  00020	8d 48 1c	 lea	 ecx, DWORD PTR [eax+28]
  00023	ff 15 00 00 00
	00		 call	 DWORD PTR __imp_?IsEmpty@ioHashString@@QBE_NXZ
  00029	84 c0		 test	 al, al
  0002b	0f 85 7d 01 00
	00		 jne	 $LN6@SaveINIFor

; 1047 : 
; 1048 : 	char szININame[MAX_PATH]="";

  00031	68 03 01 00 00	 push	 259			; 00000103H
  00036	88 85 dc fe ff
	ff		 mov	 BYTE PTR _szININame$[ebp], al
  0003c	8d 85 dd fe ff
	ff		 lea	 eax, DWORD PTR _szININame$[ebp+1]
  00042	6a 00		 push	 0
  00044	50		 push	 eax
  00045	e8 00 00 00 00	 call	 _memset
  0004a	83 c4 0c	 add	 esp, 12			; 0000000cH

; 1049 : 	StringCbPrintf( szININame, sizeof(szININame), "Save\\%s\\CustomSound.ini", g_MyInfo.GetPublicID().c_str() );

  0004d	e8 00 00 00 00	 call	 ?GetSingleton@ioMyInfo@@SAAAV1@XZ ; ioMyInfo::GetSingleton
  00052	8d 48 1c	 lea	 ecx, DWORD PTR [eax+28]
  00055	ff 15 00 00 00
	00		 call	 DWORD PTR __imp_?c_str@ioHashString@@QBEPBDXZ
  0005b	50		 push	 eax
  0005c	68 00 00 00 00	 push	 OFFSET ??_C@_0BI@PIFFLPLN@Save?2?$CFs?2CustomSound?4ini?$AA@
  00061	bb 04 01 00 00	 mov	 ebx, 260		; 00000104H
  00066	8d 85 dc fe ff
	ff		 lea	 eax, DWORD PTR _szININame$[ebp]
  0006c	53		 push	 ebx
  0006d	50		 push	 eax
  0006e	e8 00 00 00 00	 call	 ?StringCbPrintfA@@YAJPADIPBDZZ ; StringCbPrintfA

; 1050 : 
; 1051 : 	int iMax = m_vDisableList.size();

  00073	8b 77 38	 mov	 esi, DWORD PTR [edi+56]
  00076	2b 77 34	 sub	 esi, DWORD PTR [edi+52]
  00079	83 c4 10	 add	 esp, 16			; 00000010H

; 1052 : 
; 1053 : 	ioINILoader kLoader( szININame, false );

  0007c	6a 00		 push	 0
  0007e	8d 85 dc fe ff
	ff		 lea	 eax, DWORD PTR _szININame$[ebp]
  00084	50		 push	 eax
  00085	8d 8d c8 fa ff
	ff		 lea	 ecx, DWORD PTR _kLoader$[ebp]
  0008b	c1 fe 04	 sar	 esi, 4
  0008e	ff 15 00 00 00
	00		 call	 DWORD PTR __imp_??0ioINILoader@@QAE@PBD_N@Z
  00094	83 65 fc 00	 and	 DWORD PTR __$EHRec$[ebp+8], 0
  00098	6a 02		 push	 2

; 1054 : 	kLoader.SetTitle_e( "DisableList" );

  0009a	c7 45 e0 a9 85
	98 8b		 mov	 DWORD PTR __t$512792[ebp], -1952938583 ; 8b9885a9H
  000a1	c7 45 e4 8f 80
	8e a6		 mov	 DWORD PTR __t$512792[ebp+4], -1500610417 ; a68e808fH
  000a8	8d 45 e0	 lea	 eax, DWORD PTR __t$512792[ebp]
  000ab	c7 45 e8 84 9f
	9f 00		 mov	 DWORD PTR __t$512792[ebp+8], 10461060 ; 009f9f84H
  000b2	59		 pop	 ecx
$LL118@SaveINIFor:
  000b3	81 30 ed ec eb
	ea		 xor	 DWORD PTR [eax], -353637139 ; eaebecedH
  000b9	83 c0 04	 add	 eax, 4
  000bc	49		 dec	 ecx
  000bd	75 f4		 jne	 SHORT $LL118@SaveINIFor
  000bf	6a 08		 push	 8
  000c1	58		 pop	 eax
$LL115@SaveINIFor:
  000c2	8b c8		 mov	 ecx, eax
  000c4	81 e1 03 00 00
	80		 and	 ecx, -2147483645	; 80000003H
  000ca	79 05		 jns	 SHORT $LN131@SaveINIFor
  000cc	49		 dec	 ecx
  000cd	83 c9 fc	 or	 ecx, -4			; fffffffcH
  000d0	41		 inc	 ecx
$LN131@SaveINIFor:
  000d1	b2 ed		 mov	 dl, -19			; ffffffedH
  000d3	2a d1		 sub	 dl, cl
  000d5	30 54 05 e0	 xor	 BYTE PTR __t$512792[ebp+eax], dl
  000d9	40		 inc	 eax
  000da	83 f8 0b	 cmp	 eax, 11			; 0000000bH
  000dd	7c e3		 jl	 SHORT $LL115@SaveINIFor
  000df	8d 45 e0	 lea	 eax, DWORD PTR __t$512792[ebp]
  000e2	50		 push	 eax
  000e3	8d 8d c8 fa ff
	ff		 lea	 ecx, DWORD PTR _kLoader$[ebp]
  000e9	ff 15 00 00 00
	00		 call	 DWORD PTR __imp_?SetTitle@ioINILoader@@QAEXPBD@Z

; 1055 : 	kLoader.SaveInt( "Max", iMax );

  000ef	56		 push	 esi
  000f0	68 00 00 00 00	 push	 OFFSET ??_C@_03BJDGPCOK@Max?$AA@
  000f5	8d 8d c8 fa ff
	ff		 lea	 ecx, DWORD PTR _kLoader$[ebp]
  000fb	ff 15 00 00 00
	00		 call	 DWORD PTR __imp_?SaveInt@ioINILoader@@QAEXPBDH@Z

; 1056 : 	kLoader.SaveInt( "CurChangeArray", m_iCurDisableChangeArray );

  00101	ff 77 44	 push	 DWORD PTR [edi+68]
  00104	8d 8d c8 fa ff
	ff		 lea	 ecx, DWORD PTR _kLoader$[ebp]
  0010a	68 00 00 00 00	 push	 OFFSET ??_C@_0P@HCMIHFMH@CurChangeArray?$AA@
  0010f	ff 15 00 00 00
	00		 call	 DWORD PTR __imp_?SaveInt@ioINILoader@@QAEXPBDH@Z

; 1057 : 
; 1058 : 	for (int i = 0; i < iMax ; i++)

  00115	83 a5 c4 fa ff
	ff 00		 and	 DWORD PTR _i$507403[ebp], 0
  0011c	85 f6		 test	 esi, esi
  0011e	7e 7e		 jle	 SHORT $LN1@SaveINIFor

; 1054 : 	kLoader.SetTitle_e( "DisableList" );

  00120	83 a5 c0 fa ff
	ff 00		 and	 DWORD PTR tv1119[ebp], 0
$LN3@SaveINIFor:

; 1059 : 	{
; 1060 : 		char szKeyName[MAX_PATH]="";

  00127	68 03 01 00 00	 push	 259			; 00000103H
  0012c	8d 85 d9 fd ff
	ff		 lea	 eax, DWORD PTR _szKeyName$507407[ebp+1]
  00132	6a 00		 push	 0
  00134	50		 push	 eax
  00135	c6 85 d8 fd ff
	ff 00		 mov	 BYTE PTR _szKeyName$507407[ebp], 0
  0013c	e8 00 00 00 00	 call	 _memset

; 1061 : 		StringCbPrintf( szKeyName, sizeof(szKeyName), "ID%d", i+1);

  00141	8b 85 c4 fa ff
	ff		 mov	 eax, DWORD PTR _i$507403[ebp]
  00147	40		 inc	 eax
  00148	50		 push	 eax
  00149	68 00 00 00 00	 push	 OFFSET ??_C@_04EHFPNHBI@ID?$CFd?$AA@
  0014e	89 85 c4 fa ff
	ff		 mov	 DWORD PTR tv962[ebp], eax
  00154	8d 85 d8 fd ff
	ff		 lea	 eax, DWORD PTR _szKeyName$507407[ebp]
  0015a	53		 push	 ebx
  0015b	50		 push	 eax
  0015c	e8 00 00 00 00	 call	 ?StringCbPrintfA@@YAJPADIPBDZZ ; StringCbPrintfA
  00161	8b 4f 34	 mov	 ecx, DWORD PTR [edi+52]
  00164	03 8d c0 fa ff
	ff		 add	 ecx, DWORD PTR tv1119[ebp]
  0016a	83 c4 1c	 add	 esp, 28			; 0000001cH

; 1062 : 		kLoader.SaveString( szKeyName, m_vDisableList[i].c_str() );

  0016d	ff 15 00 00 00
	00		 call	 DWORD PTR __imp_?c_str@ioHashString@@QBEPBDXZ
  00173	50		 push	 eax
  00174	8d 85 d8 fd ff
	ff		 lea	 eax, DWORD PTR _szKeyName$507407[ebp]
  0017a	50		 push	 eax
  0017b	8d 8d c8 fa ff
	ff		 lea	 ecx, DWORD PTR _kLoader$[ebp]
  00181	ff 15 00 00 00
	00		 call	 DWORD PTR __imp_?SaveString@ioINILoader@@QAEXPBD0@Z
  00187	8b 85 c4 fa ff
	ff		 mov	 eax, DWORD PTR tv962[ebp]
  0018d	83 85 c0 fa ff
	ff 10		 add	 DWORD PTR tv1119[ebp], 16 ; 00000010H
  00194	89 85 c4 fa ff
	ff		 mov	 DWORD PTR _i$507403[ebp], eax
  0019a	3b c6		 cmp	 eax, esi
  0019c	7c 89		 jl	 SHORT $LN3@SaveINIFor
$LN1@SaveINIFor:

; 1063 : 	}
; 1064 : }

  0019e	83 4d fc ff	 or	 DWORD PTR __$EHRec$[ebp+8], -1
  001a2	8d 8d c8 fa ff
	ff		 lea	 ecx, DWORD PTR _kLoader$[ebp]
  001a8	ff 15 00 00 00
	00		 call	 DWORD PTR __imp_??1ioINILoader@@QAE@XZ
$LN6@SaveINIFor:
  001ae	e8 00 00 00 00	 call	 __EH_epilog3_GS
  001b3	c3		 ret	 0
_TEXT	ENDS
;	COMDAT text$x
text$x	SEGMENT
__unwindfunclet$?SaveINIForDisable@ioCustomSoundMgr@@IAEXXZ$0:
  00000	8d 8d c8 fa ff
	ff		 lea	 ecx, DWORD PTR _kLoader$[ebp]
  00006	ff 25 00 00 00
	00		 jmp	 DWORD PTR __imp_??1ioINILoader@@QAE@XZ
__ehhandler$?SaveINIForDisable@ioCustomSoundMgr@@IAEXXZ:
  0000c	8b 54 24 08	 mov	 edx, DWORD PTR [esp+8]
  00010	8d 42 0c	 lea	 eax, DWORD PTR [edx+12]
  00013	8b 8a bc fa ff
	ff		 mov	 ecx, DWORD PTR [edx-1348]
  00019	33 c8		 xor	 ecx, eax
  0001b	e8 00 00 00 00	 call	 @__security_check_cookie@4
  00020	8b 4a fc	 mov	 ecx, DWORD PTR [edx-4]
  00023	33 c8		 xor	 ecx, eax
  00025	e8 00 00 00 00	 call	 @__security_check_cookie@4
  0002a	b8 00 00 00 00	 mov	 eax, OFFSET __ehfuncinfo$?SaveINIForDisable@ioCustomSoundMgr@@IAEXXZ
  0002f	e9 00 00 00 00	 jmp	 ___CxxFrameHandler3
text$x	ENDS
?SaveINIForDisable@ioCustomSoundMgr@@IAEXXZ ENDP	; ioCustomSoundMgr::SaveINIForDisable
PUBLIC	??0?$vector@UtagNetworkInfo@CustomSoundData@@V?$allocator@UtagNetworkInfo@CustomSoundData@@@std@@@std@@QAE@XZ ; std::vector<CustomSoundData::tagNetworkInfo,std::allocator<CustomSoundData::tagNetworkInfo> >::vector<CustomSoundData::tagNetworkInfo,std::allocator<CustomSoundData::tagNetworkInfo> >
; Function compile flags: /Ogsp
; File c:\program files (x86)\microsoft visual studio 10.0\vc\include\vector
;	COMDAT ??0?$vector@UtagNetworkInfo@CustomSoundData@@V?$allocator@UtagNetworkInfo@CustomSoundData@@@std@@@std@@QAE@XZ
_TEXT	SEGMENT
??0?$vector@UtagNetworkInfo@CustomSoundData@@V?$allocator@UtagNetworkInfo@CustomSoundData@@@std@@@std@@QAE@XZ PROC ; std::vector<CustomSoundData::tagNetworkInfo,std::allocator<CustomSoundData::tagNetworkInfo> >::vector<CustomSoundData::tagNetworkInfo,std::allocator<CustomSoundData::tagNetworkInfo> >, COMDAT
; _this$ = ecx

; 507  : 		{	// construct empty vector

  00000	8b c1		 mov	 eax, ecx
  00002	33 c9		 xor	 ecx, ecx
  00004	89 08		 mov	 DWORD PTR [eax], ecx
  00006	89 48 04	 mov	 DWORD PTR [eax+4], ecx
  00009	89 48 08	 mov	 DWORD PTR [eax+8], ecx

; 508  : 		}

  0000c	c3		 ret	 0
??0?$vector@UtagNetworkInfo@CustomSoundData@@V?$allocator@UtagNetworkInfo@CustomSoundData@@@std@@@std@@QAE@XZ ENDP ; std::vector<CustomSoundData::tagNetworkInfo,std::allocator<CustomSoundData::tagNetworkInfo> >::vector<CustomSoundData::tagNetworkInfo,std::allocator<CustomSoundData::tagNetworkInfo> >
_TEXT	ENDS
PUBLIC	?begin@?$vector@UtagNetworkInfo@CustomSoundData@@V?$allocator@UtagNetworkInfo@CustomSoundData@@@std@@@std@@QAE?AV?$_Vector_iterator@V?$_Vector_val@UtagNetworkInfo@CustomSoundData@@V?$allocator@UtagNetworkInfo@CustomSoundData@@@std@@@std@@@2@XZ ; std::vector<CustomSoundData::tagNetworkInfo,std::allocator<CustomSoundData::tagNetworkInfo> >::begin
; Function compile flags: /Ogsp
;	COMDAT ?begin@?$vector@UtagNetworkInfo@CustomSoundData@@V?$allocator@UtagNetworkInfo@CustomSoundData@@@std@@@std@@QAE?AV?$_Vector_iterator@V?$_Vector_val@UtagNetworkInfo@CustomSoundData@@V?$allocator@UtagNetworkInfo@CustomSoundData@@@std@@@std@@@2@XZ
_TEXT	SEGMENT
___$ReturnUdt$ = 8					; size = 4
?begin@?$vector@UtagNetworkInfo@CustomSoundData@@V?$allocator@UtagNetworkInfo@CustomSoundData@@@std@@@std@@QAE?AV?$_Vector_iterator@V?$_Vector_val@UtagNetworkInfo@CustomSoundData@@V?$allocator@UtagNetworkInfo@CustomSoundData@@@std@@@std@@@2@XZ PROC ; std::vector<CustomSoundData::tagNetworkInfo,std::allocator<CustomSoundData::tagNetworkInfo> >::begin, COMDAT
; _this$ = ecx

; 781  : 		{	// return iterator for beginning of mutable sequence

  00000	55		 push	 ebp
  00001	8b ec		 mov	 ebp, esp

; 782  : 		return (iterator(this->_Myfirst, this));

  00003	8b 09		 mov	 ecx, DWORD PTR [ecx]
  00005	8b 45 08	 mov	 eax, DWORD PTR ___$ReturnUdt$[ebp]
  00008	89 08		 mov	 DWORD PTR [eax], ecx

; 783  : 		}

  0000a	5d		 pop	 ebp
  0000b	c2 04 00	 ret	 4
?begin@?$vector@UtagNetworkInfo@CustomSoundData@@V?$allocator@UtagNetworkInfo@CustomSoundData@@@std@@@std@@QAE?AV?$_Vector_iterator@V?$_Vector_val@UtagNetworkInfo@CustomSoundData@@V?$allocator@UtagNetworkInfo@CustomSoundData@@@std@@@std@@@2@XZ ENDP ; std::vector<CustomSoundData::tagNetworkInfo,std::allocator<CustomSoundData::tagNetworkInfo> >::begin
_TEXT	ENDS
PUBLIC	?end@?$vector@UtagNetworkInfo@CustomSoundData@@V?$allocator@UtagNetworkInfo@CustomSoundData@@@std@@@std@@QAE?AV?$_Vector_iterator@V?$_Vector_val@UtagNetworkInfo@CustomSoundData@@V?$allocator@UtagNetworkInfo@CustomSoundData@@@std@@@std@@@2@XZ ; std::vector<CustomSoundData::tagNetworkInfo,std::allocator<CustomSoundData::tagNetworkInfo> >::end
; Function compile flags: /Ogsp
;	COMDAT ?end@?$vector@UtagNetworkInfo@CustomSoundData@@V?$allocator@UtagNetworkInfo@CustomSoundData@@@std@@@std@@QAE?AV?$_Vector_iterator@V?$_Vector_val@UtagNetworkInfo@CustomSoundData@@V?$allocator@UtagNetworkInfo@CustomSoundData@@@std@@@std@@@2@XZ
_TEXT	SEGMENT
___$ReturnUdt$ = 8					; size = 4
?end@?$vector@UtagNetworkInfo@CustomSoundData@@V?$allocator@UtagNetworkInfo@CustomSoundData@@@std@@@std@@QAE?AV?$_Vector_iterator@V?$_Vector_val@UtagNetworkInfo@CustomSoundData@@V?$allocator@UtagNetworkInfo@CustomSoundData@@@std@@@std@@@2@XZ PROC ; std::vector<CustomSoundData::tagNetworkInfo,std::allocator<CustomSoundData::tagNetworkInfo> >::end, COMDAT
; _this$ = ecx

; 791  : 		{	// return iterator for end of mutable sequence

  00000	55		 push	 ebp
  00001	8b ec		 mov	 ebp, esp

; 792  : 		return (iterator(this->_Mylast, this));

  00003	8b 49 04	 mov	 ecx, DWORD PTR [ecx+4]
  00006	8b 45 08	 mov	 eax, DWORD PTR ___$ReturnUdt$[ebp]
  00009	89 08		 mov	 DWORD PTR [eax], ecx

; 793  : 		}

  0000b	5d		 pop	 ebp
  0000c	c2 04 00	 ret	 4
?end@?$vector@UtagNetworkInfo@CustomSoundData@@V?$allocator@UtagNetworkInfo@CustomSoundData@@@std@@@std@@QAE?AV?$_Vector_iterator@V?$_Vector_val@UtagNetworkInfo@CustomSoundData@@V?$allocator@UtagNetworkInfo@CustomSoundData@@@std@@@std@@@2@XZ ENDP ; std::vector<CustomSoundData::tagNetworkInfo,std::allocator<CustomSoundData::tagNetworkInfo> >::end
_TEXT	ENDS
PUBLIC	??0?$vector@PAUtagCustomSoundInfo@ioCustomSoundMgr@@V?$allocator@PAUtagCustomSoundInfo@ioCustomSoundMgr@@@std@@@std@@QAE@XZ ; std::vector<ioCustomSoundMgr::tagCustomSoundInfo *,std::allocator<ioCustomSoundMgr::tagCustomSoundInfo *> >::vector<ioCustomSoundMgr::tagCustomSoundInfo *,std::allocator<ioCustomSoundMgr::tagCustomSoundInfo *> >
; Function compile flags: /Ogsp
;	COMDAT ??0?$vector@PAUtagCustomSoundInfo@ioCustomSoundMgr@@V?$allocator@PAUtagCustomSoundInfo@ioCustomSoundMgr@@@std@@@std@@QAE@XZ
_TEXT	SEGMENT
??0?$vector@PAUtagCustomSoundInfo@ioCustomSoundMgr@@V?$allocator@PAUtagCustomSoundInfo@ioCustomSoundMgr@@@std@@@std@@QAE@XZ PROC ; std::vector<ioCustomSoundMgr::tagCustomSoundInfo *,std::allocator<ioCustomSoundMgr::tagCustomSoundInfo *> >::vector<ioCustomSoundMgr::tagCustomSoundInfo *,std::allocator<ioCustomSoundMgr::tagCustomSoundInfo *> >, COMDAT
; _this$ = ecx

; 507  : 		{	// construct empty vector

  00000	8b c1		 mov	 eax, ecx
  00002	33 c9		 xor	 ecx, ecx
  00004	89 08		 mov	 DWORD PTR [eax], ecx
  00006	89 48 04	 mov	 DWORD PTR [eax+4], ecx
  00009	89 48 08	 mov	 DWORD PTR [eax+8], ecx

; 508  : 		}

  0000c	c3		 ret	 0
??0?$vector@PAUtagCustomSoundInfo@ioCustomSoundMgr@@V?$allocator@PAUtagCustomSoundInfo@ioCustomSoundMgr@@@std@@@std@@QAE@XZ ENDP ; std::vector<ioCustomSoundMgr::tagCustomSoundInfo *,std::allocator<ioCustomSoundMgr::tagCustomSoundInfo *> >::vector<ioCustomSoundMgr::tagCustomSoundInfo *,std::allocator<ioCustomSoundMgr::tagCustomSoundInfo *> >
_TEXT	ENDS
PUBLIC	?begin@?$vector@PAUtagCustomSoundInfo@ioCustomSoundMgr@@V?$allocator@PAUtagCustomSoundInfo@ioCustomSoundMgr@@@std@@@std@@QAE?AV?$_Vector_iterator@V?$_Vector_val@PAUtagCustomSoundInfo@ioCustomSoundMgr@@V?$allocator@PAUtagCustomSoundInfo@ioCustomSoundMgr@@@std@@@std@@@2@XZ ; std::vector<ioCustomSoundMgr::tagCustomSoundInfo *,std::allocator<ioCustomSoundMgr::tagCustomSoundInfo *> >::begin
; Function compile flags: /Ogsp
;	COMDAT ?begin@?$vector@PAUtagCustomSoundInfo@ioCustomSoundMgr@@V?$allocator@PAUtagCustomSoundInfo@ioCustomSoundMgr@@@std@@@std@@QAE?AV?$_Vector_iterator@V?$_Vector_val@PAUtagCustomSoundInfo@ioCustomSoundMgr@@V?$allocator@PAUtagCustomSoundInfo@ioCustomSoundMgr@@@std@@@std@@@2@XZ
_TEXT	SEGMENT
___$ReturnUdt$ = 8					; size = 4
?begin@?$vector@PAUtagCustomSoundInfo@ioCustomSoundMgr@@V?$allocator@PAUtagCustomSoundInfo@ioCustomSoundMgr@@@std@@@std@@QAE?AV?$_Vector_iterator@V?$_Vector_val@PAUtagCustomSoundInfo@ioCustomSoundMgr@@V?$allocator@PAUtagCustomSoundInfo@ioCustomSoundMgr@@@std@@@std@@@2@XZ PROC ; std::vector<ioCustomSoundMgr::tagCustomSoundInfo *,std::allocator<ioCustomSoundMgr::tagCustomSoundInfo *> >::begin, COMDAT
; _this$ = ecx

; 781  : 		{	// return iterator for beginning of mutable sequence

  00000	55		 push	 ebp
  00001	8b ec		 mov	 ebp, esp

; 782  : 		return (iterator(this->_Myfirst, this));

  00003	8b 09		 mov	 ecx, DWORD PTR [ecx]
  00005	8b 45 08	 mov	 eax, DWORD PTR ___$ReturnUdt$[ebp]
  00008	89 08		 mov	 DWORD PTR [eax], ecx

; 783  : 		}

  0000a	5d		 pop	 ebp
  0000b	c2 04 00	 ret	 4
?begin@?$vector@PAUtagCustomSoundInfo@ioCustomSoundMgr@@V?$allocator@PAUtagCustomSoundInfo@ioCustomSoundMgr@@@std@@@std@@QAE?AV?$_Vector_iterator@V?$_Vector_val@PAUtagCustomSoundInfo@ioCustomSoundMgr@@V?$allocator@PAUtagCustomSoundInfo@ioCustomSoundMgr@@@std@@@std@@@2@XZ ENDP ; std::vector<ioCustomSoundMgr::tagCustomSoundInfo *,std::allocator<ioCustomSoundMgr::tagCustomSoundInfo *> >::begin
_TEXT	ENDS
PUBLIC	?end@?$vector@PAUtagCustomSoundInfo@ioCustomSoundMgr@@V?$allocator@PAUtagCustomSoundInfo@ioCustomSoundMgr@@@std@@@std@@QAE?AV?$_Vector_iterator@V?$_Vector_val@PAUtagCustomSoundInfo@ioCustomSoundMgr@@V?$allocator@PAUtagCustomSoundInfo@ioCustomSoundMgr@@@std@@@std@@@2@XZ ; std::vector<ioCustomSoundMgr::tagCustomSoundInfo *,std::allocator<ioCustomSoundMgr::tagCustomSoundInfo *> >::end
; Function compile flags: /Ogsp
;	COMDAT ?end@?$vector@PAUtagCustomSoundInfo@ioCustomSoundMgr@@V?$allocator@PAUtagCustomSoundInfo@ioCustomSoundMgr@@@std@@@std@@QAE?AV?$_Vector_iterator@V?$_Vector_val@PAUtagCustomSoundInfo@ioCustomSoundMgr@@V?$allocator@PAUtagCustomSoundInfo@ioCustomSoundMgr@@@std@@@std@@@2@XZ
_TEXT	SEGMENT
___$ReturnUdt$ = 8					; size = 4
?end@?$vector@PAUtagCustomSoundInfo@ioCustomSoundMgr@@V?$allocator@PAUtagCustomSoundInfo@ioCustomSoundMgr@@@std@@@std@@QAE?AV?$_Vector_iterator@V?$_Vector_val@PAUtagCustomSoundInfo@ioCustomSoundMgr@@V?$allocator@PAUtagCustomSoundInfo@ioCustomSoundMgr@@@std@@@std@@@2@XZ PROC ; std::vector<ioCustomSoundMgr::tagCustomSoundInfo *,std::allocator<ioCustomSoundMgr::tagCustomSoundInfo *> >::end, COMDAT
; _this$ = ecx

; 791  : 		{	// return iterator for end of mutable sequence

  00000	55		 push	 ebp
  00001	8b ec		 mov	 ebp, esp

; 792  : 		return (iterator(this->_Mylast, this));

  00003	8b 49 04	 mov	 ecx, DWORD PTR [ecx+4]
  00006	8b 45 08	 mov	 eax, DWORD PTR ___$ReturnUdt$[ebp]
  00009	89 08		 mov	 DWORD PTR [eax], ecx

; 793  : 		}

  0000b	5d		 pop	 ebp
  0000c	c2 04 00	 ret	 4
?end@?$vector@PAUtagCustomSoundInfo@ioCustomSoundMgr@@V?$allocator@PAUtagCustomSoundInfo@ioCustomSoundMgr@@@std@@@std@@QAE?AV?$_Vector_iterator@V?$_Vector_val@PAUtagCustomSoundInfo@ioCustomSoundMgr@@V?$allocator@PAUtagCustomSoundInfo@ioCustomSoundMgr@@@std@@@std@@@2@XZ ENDP ; std::vector<ioCustomSoundMgr::tagCustomSoundInfo *,std::allocator<ioCustomSoundMgr::tagCustomSoundInfo *> >::end
_TEXT	ENDS
PUBLIC	??E?$_Tree_iterator@V?$_Tree_val@V?$_Tmap_traits@KPAVCustomSoundData@@U?$less@K@std@@V?$allocator@U?$pair@$$CBKPAVCustomSoundData@@@std@@@3@$0A@@std@@@std@@@std@@QAEAAV01@XZ ; std::_Tree_iterator<std::_Tree_val<std::_Tmap_traits<unsigned long,CustomSoundData *,std::less<unsigned long>,std::allocator<std::pair<unsigned long const ,CustomSoundData *> >,0> > >::operator++
; Function compile flags: /Ogsp
; File c:\program files (x86)\microsoft visual studio 10.0\vc\include\xtree
;	COMDAT ??E?$_Tree_iterator@V?$_Tree_val@V?$_Tmap_traits@KPAVCustomSoundData@@U?$less@K@std@@V?$allocator@U?$pair@$$CBKPAVCustomSoundData@@@std@@@3@$0A@@std@@@std@@@std@@QAEAAV01@XZ
_TEXT	SEGMENT
??E?$_Tree_iterator@V?$_Tree_val@V?$_Tmap_traits@KPAVCustomSoundData@@U?$less@K@std@@V?$allocator@U?$pair@$$CBKPAVCustomSoundData@@@std@@@3@$0A@@std@@@std@@@std@@QAEAAV01@XZ PROC ; std::_Tree_iterator<std::_Tree_val<std::_Tmap_traits<unsigned long,CustomSoundData *,std::less<unsigned long>,std::allocator<std::pair<unsigned long const ,CustomSoundData *> >,0> > >::operator++, COMDAT
; _this$ = ecx

; 405  : 		{	// preincrement

  00000	56		 push	 esi
  00001	8b f1		 mov	 esi, ecx

; 406  : 		++(*(_Mybase *)this);

  00003	e8 00 00 00 00	 call	 ??E?$_Tree_unchecked_const_iterator@V?$_Tree_val@V?$_Tmap_traits@KPAVCustomSoundData@@U?$less@K@std@@V?$allocator@U?$pair@$$CBKPAVCustomSoundData@@@std@@@3@$0A@@std@@@std@@U_Iterator_base0@2@@std@@QAEAAV01@XZ ; std::_Tree_unchecked_const_iterator<std::_Tree_val<std::_Tmap_traits<unsigned long,CustomSoundData *,std::less<unsigned long>,std::allocator<std::pair<unsigned long const ,CustomSoundData *> >,0> >,std::_Iterator_base0>::operator++

; 407  : 		return (*this);

  00008	8b c6		 mov	 eax, esi
  0000a	5e		 pop	 esi

; 408  : 		}

  0000b	c3		 ret	 0
??E?$_Tree_iterator@V?$_Tree_val@V?$_Tmap_traits@KPAVCustomSoundData@@U?$less@K@std@@V?$allocator@U?$pair@$$CBKPAVCustomSoundData@@@std@@@3@$0A@@std@@@std@@@std@@QAEAAV01@XZ ENDP ; std::_Tree_iterator<std::_Tree_val<std::_Tmap_traits<unsigned long,CustomSoundData *,std::less<unsigned long>,std::allocator<std::pair<unsigned long const ,CustomSoundData *> >,0> > >::operator++
_TEXT	ENDS
PUBLIC	??9?$_Vector_const_iterator@V?$_Vector_val@UtagNetworkInfo@CustomSoundData@@V?$allocator@UtagNetworkInfo@CustomSoundData@@@std@@@std@@@std@@QBE_NABV01@@Z ; std::_Vector_const_iterator<std::_Vector_val<CustomSoundData::tagNetworkInfo,std::allocator<CustomSoundData::tagNetworkInfo> > >::operator!=
; Function compile flags: /Ogsp
; File c:\program files (x86)\microsoft visual studio 10.0\vc\include\vector
;	COMDAT ??9?$_Vector_const_iterator@V?$_Vector_val@UtagNetworkInfo@CustomSoundData@@V?$allocator@UtagNetworkInfo@CustomSoundData@@@std@@@std@@@std@@QBE_NABV01@@Z
_TEXT	SEGMENT
__Right$ = 8						; size = 4
??9?$_Vector_const_iterator@V?$_Vector_val@UtagNetworkInfo@CustomSoundData@@V?$allocator@UtagNetworkInfo@CustomSoundData@@@std@@@std@@@std@@QBE_NABV01@@Z PROC ; std::_Vector_const_iterator<std::_Vector_val<CustomSoundData::tagNetworkInfo,std::allocator<CustomSoundData::tagNetworkInfo> > >::operator!=, COMDAT
; _this$ = ecx

; 207  : 		{	// test for iterator inequality

  00000	55		 push	 ebp
  00001	8b ec		 mov	 ebp, esp

; 208  : 		return (!(*this == _Right));

  00003	8b 01		 mov	 eax, DWORD PTR [ecx]
  00005	8b 55 08	 mov	 edx, DWORD PTR __Right$[ebp]
  00008	33 c9		 xor	 ecx, ecx
  0000a	3b 02		 cmp	 eax, DWORD PTR [edx]
  0000c	0f 95 c0	 setne	 al

; 209  : 		}

  0000f	5d		 pop	 ebp
  00010	c2 04 00	 ret	 4
??9?$_Vector_const_iterator@V?$_Vector_val@UtagNetworkInfo@CustomSoundData@@V?$allocator@UtagNetworkInfo@CustomSoundData@@@std@@@std@@@std@@QBE_NABV01@@Z ENDP ; std::_Vector_const_iterator<std::_Vector_val<CustomSoundData::tagNetworkInfo,std::allocator<CustomSoundData::tagNetworkInfo> > >::operator!=
_TEXT	ENDS
PUBLIC	??9?$_Vector_const_iterator@V?$_Vector_val@PAUtagCustomSoundInfo@ioCustomSoundMgr@@V?$allocator@PAUtagCustomSoundInfo@ioCustomSoundMgr@@@std@@@std@@@std@@QBE_NABV01@@Z ; std::_Vector_const_iterator<std::_Vector_val<ioCustomSoundMgr::tagCustomSoundInfo *,std::allocator<ioCustomSoundMgr::tagCustomSoundInfo *> > >::operator!=
; Function compile flags: /Ogsp
;	COMDAT ??9?$_Vector_const_iterator@V?$_Vector_val@PAUtagCustomSoundInfo@ioCustomSoundMgr@@V?$allocator@PAUtagCustomSoundInfo@ioCustomSoundMgr@@@std@@@std@@@std@@QBE_NABV01@@Z
_TEXT	SEGMENT
__Right$ = 8						; size = 4
??9?$_Vector_const_iterator@V?$_Vector_val@PAUtagCustomSoundInfo@ioCustomSoundMgr@@V?$allocator@PAUtagCustomSoundInfo@ioCustomSoundMgr@@@std@@@std@@@std@@QBE_NABV01@@Z PROC ; std::_Vector_const_iterator<std::_Vector_val<ioCustomSoundMgr::tagCustomSoundInfo *,std::allocator<ioCustomSoundMgr::tagCustomSoundInfo *> > >::operator!=, COMDAT
; _this$ = ecx

; 207  : 		{	// test for iterator inequality

  00000	55		 push	 ebp
  00001	8b ec		 mov	 ebp, esp

; 208  : 		return (!(*this == _Right));

  00003	8b 01		 mov	 eax, DWORD PTR [ecx]
  00005	8b 55 08	 mov	 edx, DWORD PTR __Right$[ebp]
  00008	33 c9		 xor	 ecx, ecx
  0000a	3b 02		 cmp	 eax, DWORD PTR [edx]
  0000c	0f 95 c0	 setne	 al

; 209  : 		}

  0000f	5d		 pop	 ebp
  00010	c2 04 00	 ret	 4
??9?$_Vector_const_iterator@V?$_Vector_val@PAUtagCustomSoundInfo@ioCustomSoundMgr@@V?$allocator@PAUtagCustomSoundInfo@ioCustomSoundMgr@@@std@@@std@@@std@@QBE_NABV01@@Z ENDP ; std::_Vector_const_iterator<std::_Vector_val<ioCustomSoundMgr::tagCustomSoundInfo *,std::allocator<ioCustomSoundMgr::tagCustomSoundInfo *> > >::operator!=
_TEXT	ENDS
PUBLIC	?_Make_iter@?$vector@UtagNetworkInfo@CustomSoundData@@V?$allocator@UtagNetworkInfo@CustomSoundData@@@std@@@std@@QBE?AV?$_Vector_iterator@V?$_Vector_val@UtagNetworkInfo@CustomSoundData@@V?$allocator@UtagNetworkInfo@CustomSoundData@@@std@@@std@@@2@V?$_Vector_const_iterator@V?$_Vector_val@UtagNetworkInfo@CustomSoundData@@V?$allocator@UtagNetworkInfo@CustomSoundData@@@std@@@std@@@2@@Z ; std::vector<CustomSoundData::tagNetworkInfo,std::allocator<CustomSoundData::tagNetworkInfo> >::_Make_iter
; Function compile flags: /Ogsp
;	COMDAT ?_Make_iter@?$vector@UtagNetworkInfo@CustomSoundData@@V?$allocator@UtagNetworkInfo@CustomSoundData@@@std@@@std@@QBE?AV?$_Vector_iterator@V?$_Vector_val@UtagNetworkInfo@CustomSoundData@@V?$allocator@UtagNetworkInfo@CustomSoundData@@@std@@@std@@@2@V?$_Vector_const_iterator@V?$_Vector_val@UtagNetworkInfo@CustomSoundData@@V?$allocator@UtagNetworkInfo@CustomSoundData@@@std@@@std@@@2@@Z
_TEXT	SEGMENT
___$ReturnUdt$ = 8					; size = 4
__Where$ = 12						; size = 4
?_Make_iter@?$vector@UtagNetworkInfo@CustomSoundData@@V?$allocator@UtagNetworkInfo@CustomSoundData@@@std@@@std@@QBE?AV?$_Vector_iterator@V?$_Vector_val@UtagNetworkInfo@CustomSoundData@@V?$allocator@UtagNetworkInfo@CustomSoundData@@@std@@@std@@@2@V?$_Vector_const_iterator@V?$_Vector_val@UtagNetworkInfo@CustomSoundData@@V?$allocator@UtagNetworkInfo@CustomSoundData@@@std@@@std@@@2@@Z PROC ; std::vector<CustomSoundData::tagNetworkInfo,std::allocator<CustomSoundData::tagNetworkInfo> >::_Make_iter, COMDAT
; _this$ = ecx

; 801  : 		{	// make iterator from const_iterator

  00000	55		 push	 ebp
  00001	8b ec		 mov	 ebp, esp

; 802  : 		return (iterator(_Where._Ptr, this));

  00003	8b 45 08	 mov	 eax, DWORD PTR ___$ReturnUdt$[ebp]
  00006	8b 4d 0c	 mov	 ecx, DWORD PTR __Where$[ebp]
  00009	89 08		 mov	 DWORD PTR [eax], ecx

; 803  : 		}

  0000b	5d		 pop	 ebp
  0000c	c2 08 00	 ret	 8
?_Make_iter@?$vector@UtagNetworkInfo@CustomSoundData@@V?$allocator@UtagNetworkInfo@CustomSoundData@@@std@@@std@@QBE?AV?$_Vector_iterator@V?$_Vector_val@UtagNetworkInfo@CustomSoundData@@V?$allocator@UtagNetworkInfo@CustomSoundData@@@std@@@std@@@2@V?$_Vector_const_iterator@V?$_Vector_val@UtagNetworkInfo@CustomSoundData@@V?$allocator@UtagNetworkInfo@CustomSoundData@@@std@@@std@@@2@@Z ENDP ; std::vector<CustomSoundData::tagNetworkInfo,std::allocator<CustomSoundData::tagNetworkInfo> >::_Make_iter
_TEXT	ENDS
PUBLIC	?_Make_iter@?$vector@PAUtagCustomSoundInfo@ioCustomSoundMgr@@V?$allocator@PAUtagCustomSoundInfo@ioCustomSoundMgr@@@std@@@std@@QBE?AV?$_Vector_iterator@V?$_Vector_val@PAUtagCustomSoundInfo@ioCustomSoundMgr@@V?$allocator@PAUtagCustomSoundInfo@ioCustomSoundMgr@@@std@@@std@@@2@V?$_Vector_const_iterator@V?$_Vector_val@PAUtagCustomSoundInfo@ioCustomSoundMgr@@V?$allocator@PAUtagCustomSoundInfo@ioCustomSoundMgr@@@std@@@std@@@2@@Z ; std::vector<ioCustomSoundMgr::tagCustomSoundInfo *,std::allocator<ioCustomSoundMgr::tagCustomSoundInfo *> >::_Make_iter
; Function compile flags: /Ogsp
;	COMDAT ?_Make_iter@?$vector@PAUtagCustomSoundInfo@ioCustomSoundMgr@@V?$allocator@PAUtagCustomSoundInfo@ioCustomSoundMgr@@@std@@@std@@QBE?AV?$_Vector_iterator@V?$_Vector_val@PAUtagCustomSoundInfo@ioCustomSoundMgr@@V?$allocator@PAUtagCustomSoundInfo@ioCustomSoundMgr@@@std@@@std@@@2@V?$_Vector_const_iterator@V?$_Vector_val@PAUtagCustomSoundInfo@ioCustomSoundMgr@@V?$allocator@PAUtagCustomSoundInfo@ioCustomSoundMgr@@@std@@@std@@@2@@Z
_TEXT	SEGMENT
___$ReturnUdt$ = 8					; size = 4
__Where$ = 12						; size = 4
?_Make_iter@?$vector@PAUtagCustomSoundInfo@ioCustomSoundMgr@@V?$allocator@PAUtagCustomSoundInfo@ioCustomSoundMgr@@@std@@@std@@QBE?AV?$_Vector_iterator@V?$_Vector_val@PAUtagCustomSoundInfo@ioCustomSoundMgr@@V?$allocator@PAUtagCustomSoundInfo@ioCustomSoundMgr@@@std@@@std@@@2@V?$_Vector_const_iterator@V?$_Vector_val@PAUtagCustomSoundInfo@ioCustomSoundMgr@@V?$allocator@PAUtagCustomSoundInfo@ioCustomSoundMgr@@@std@@@std@@@2@@Z PROC ; std::vector<ioCustomSoundMgr::tagCustomSoundInfo *,std::allocator<ioCustomSoundMgr::tagCustomSoundInfo *> >::_Make_iter, COMDAT
; _this$ = ecx

; 801  : 		{	// make iterator from const_iterator

  00000	55		 push	 ebp
  00001	8b ec		 mov	 ebp, esp

; 802  : 		return (iterator(_Where._Ptr, this));

  00003	8b 45 08	 mov	 eax, DWORD PTR ___$ReturnUdt$[ebp]
  00006	8b 4d 0c	 mov	 ecx, DWORD PTR __Where$[ebp]
  00009	89 08		 mov	 DWORD PTR [eax], ecx

; 803  : 		}

  0000b	5d		 pop	 ebp
  0000c	c2 08 00	 ret	 8
?_Make_iter@?$vector@PAUtagCustomSoundInfo@ioCustomSoundMgr@@V?$allocator@PAUtagCustomSoundInfo@ioCustomSoundMgr@@@std@@@std@@QBE?AV?$_Vector_iterator@V?$_Vector_val@PAUtagCustomSoundInfo@ioCustomSoundMgr@@V?$allocator@PAUtagCustomSoundInfo@ioCustomSoundMgr@@@std@@@std@@@2@V?$_Vector_const_iterator@V?$_Vector_val@PAUtagCustomSoundInfo@ioCustomSoundMgr@@V?$allocator@PAUtagCustomSoundInfo@ioCustomSoundMgr@@@std@@@std@@@2@@Z ENDP ; std::vector<ioCustomSoundMgr::tagCustomSoundInfo *,std::allocator<ioCustomSoundMgr::tagCustomSoundInfo *> >::_Make_iter
_TEXT	ENDS
PUBLIC	?_Destroy@?$vector@PAUtagCustomSoundInfo@ioCustomSoundMgr@@V?$allocator@PAUtagCustomSoundInfo@ioCustomSoundMgr@@@std@@@std@@IAEXPAPAUtagCustomSoundInfo@ioCustomSoundMgr@@0@Z ; std::vector<ioCustomSoundMgr::tagCustomSoundInfo *,std::allocator<ioCustomSoundMgr::tagCustomSoundInfo *> >::_Destroy
; Function compile flags: /Ogsp
;	COMDAT ?_Destroy@?$vector@PAUtagCustomSoundInfo@ioCustomSoundMgr@@V?$allocator@PAUtagCustomSoundInfo@ioCustomSoundMgr@@@std@@@std@@IAEXPAPAUtagCustomSoundInfo@ioCustomSoundMgr@@0@Z
_TEXT	SEGMENT
__First$ = 8						; size = 4
__Last$ = 12						; size = 4
?_Destroy@?$vector@PAUtagCustomSoundInfo@ioCustomSoundMgr@@V?$allocator@PAUtagCustomSoundInfo@ioCustomSoundMgr@@@std@@@std@@IAEXPAPAUtagCustomSoundInfo@ioCustomSoundMgr@@0@Z PROC ; std::vector<ioCustomSoundMgr::tagCustomSoundInfo *,std::allocator<ioCustomSoundMgr::tagCustomSoundInfo *> >::_Destroy, COMDAT
; _this$ = ecx

; 1270 : 		_Destroy_range(_First, _Last, this->_Alval);
; 1271 : 		}

  00000	c2 08 00	 ret	 8
?_Destroy@?$vector@PAUtagCustomSoundInfo@ioCustomSoundMgr@@V?$allocator@PAUtagCustomSoundInfo@ioCustomSoundMgr@@@std@@@std@@IAEXPAPAUtagCustomSoundInfo@ioCustomSoundMgr@@0@Z ENDP ; std::vector<ioCustomSoundMgr::tagCustomSoundInfo *,std::allocator<ioCustomSoundMgr::tagCustomSoundInfo *> >::_Destroy
_TEXT	ENDS
PUBLIC	?_Tidy@?$vector@PAUtagCustomSoundInfo@ioCustomSoundMgr@@V?$allocator@PAUtagCustomSoundInfo@ioCustomSoundMgr@@@std@@@std@@IAEXXZ ; std::vector<ioCustomSoundMgr::tagCustomSoundInfo *,std::allocator<ioCustomSoundMgr::tagCustomSoundInfo *> >::_Tidy
EXTRN	__imp_?_Orphan_all@_Container_base0@std@@QAEXXZ:PROC
; Function compile flags: /Ogsp
;	COMDAT ?_Tidy@?$vector@PAUtagCustomSoundInfo@ioCustomSoundMgr@@V?$allocator@PAUtagCustomSoundInfo@ioCustomSoundMgr@@@std@@@std@@IAEXXZ
_TEXT	SEGMENT
?_Tidy@?$vector@PAUtagCustomSoundInfo@ioCustomSoundMgr@@V?$allocator@PAUtagCustomSoundInfo@ioCustomSoundMgr@@@std@@@std@@IAEXXZ PROC ; std::vector<ioCustomSoundMgr::tagCustomSoundInfo *,std::allocator<ioCustomSoundMgr::tagCustomSoundInfo *> >::_Tidy, COMDAT
; _this$ = ecx

; 1301 : 		{	// free all storage

  00000	56		 push	 esi
  00001	8b f1		 mov	 esi, ecx

; 1302 : 		if (this->_Myfirst != 0)

  00003	83 3e 00	 cmp	 DWORD PTR [esi], 0
  00006	74 0e		 je	 SHORT $LN12@Tidy

; 1303 : 			{	// something to free, destroy and deallocate it
; 1304 : 			this->_Orphan_all();

  00008	ff 15 00 00 00
	00		 call	 DWORD PTR __imp_?_Orphan_all@_Container_base0@std@@QAEXXZ

; 1305 : 			_Destroy(this->_Myfirst, this->_Mylast);
; 1306 : 			this->_Alval.deallocate(this->_Myfirst,
; 1307 : 				this->_Myend - this->_Myfirst);

  0000e	ff 36		 push	 DWORD PTR [esi]
  00010	e8 00 00 00 00	 call	 ??3@YAXPAX@Z		; operator delete
  00015	59		 pop	 ecx
$LN12@Tidy:

; 1308 : 			}
; 1309 : 		this->_Myfirst = 0;

  00016	83 26 00	 and	 DWORD PTR [esi], 0

; 1310 : 		this->_Mylast = 0;

  00019	83 66 04 00	 and	 DWORD PTR [esi+4], 0

; 1311 : 		this->_Myend = 0;

  0001d	83 66 08 00	 and	 DWORD PTR [esi+8], 0
  00021	5e		 pop	 esi

; 1312 : 		}

  00022	c3		 ret	 0
?_Tidy@?$vector@PAUtagCustomSoundInfo@ioCustomSoundMgr@@V?$allocator@PAUtagCustomSoundInfo@ioCustomSoundMgr@@@std@@@std@@IAEXXZ ENDP ; std::vector<ioCustomSoundMgr::tagCustomSoundInfo *,std::allocator<ioCustomSoundMgr::tagCustomSoundInfo *> >::_Tidy
_TEXT	ENDS
PUBLIC	??D?$_Tree_iterator@V?$_Tree_val@V?$_Tmap_traits@KPAVCustomSoundData@@U?$less@K@std@@V?$allocator@U?$pair@$$CBKPAVCustomSoundData@@@std@@@3@$0A@@std@@@std@@@std@@QBEAAU?$pair@$$CBKPAVCustomSoundData@@@1@XZ ; std::_Tree_iterator<std::_Tree_val<std::_Tmap_traits<unsigned long,CustomSoundData *,std::less<unsigned long>,std::allocator<std::pair<unsigned long const ,CustomSoundData *> >,0> > >::operator*
; Function compile flags: /Ogsp
; File c:\program files (x86)\microsoft visual studio 10.0\vc\include\xtree
;	COMDAT ??D?$_Tree_iterator@V?$_Tree_val@V?$_Tmap_traits@KPAVCustomSoundData@@U?$less@K@std@@V?$allocator@U?$pair@$$CBKPAVCustomSoundData@@@std@@@3@$0A@@std@@@std@@@std@@QBEAAU?$pair@$$CBKPAVCustomSoundData@@@1@XZ
_TEXT	SEGMENT
??D?$_Tree_iterator@V?$_Tree_val@V?$_Tmap_traits@KPAVCustomSoundData@@U?$less@K@std@@V?$allocator@U?$pair@$$CBKPAVCustomSoundData@@@std@@@3@$0A@@std@@@std@@@std@@QBEAAU?$pair@$$CBKPAVCustomSoundData@@@1@XZ PROC ; std::_Tree_iterator<std::_Tree_val<std::_Tmap_traits<unsigned long,CustomSoundData *,std::less<unsigned long>,std::allocator<std::pair<unsigned long const ,CustomSoundData *> >,0> > >::operator*, COMDAT
; _this$ = ecx

; 396  : 		return ((reference)**(_Mybase *)this);

  00000	8b 01		 mov	 eax, DWORD PTR [ecx]
  00002	83 c0 0c	 add	 eax, 12			; 0000000cH

; 397  : 		}

  00005	c3		 ret	 0
??D?$_Tree_iterator@V?$_Tree_val@V?$_Tmap_traits@KPAVCustomSoundData@@U?$less@K@std@@V?$allocator@U?$pair@$$CBKPAVCustomSoundData@@@std@@@3@$0A@@std@@@std@@@std@@QBEAAU?$pair@$$CBKPAVCustomSoundData@@@1@XZ ENDP ; std::_Tree_iterator<std::_Tree_val<std::_Tmap_traits<unsigned long,CustomSoundData *,std::less<unsigned long>,std::allocator<std::pair<unsigned long const ,CustomSoundData *> >,0> > >::operator*
_TEXT	ENDS
PUBLIC	?_Grow_to@?$vector@VioHashString@@V?$allocator@VioHashString@@@std@@@std@@IBEII@Z ; std::vector<ioHashString,std::allocator<ioHashString> >::_Grow_to
; Function compile flags: /Ogsp
; File c:\program files (x86)\microsoft visual studio 10.0\vc\include\vector
;	COMDAT ?_Grow_to@?$vector@VioHashString@@V?$allocator@VioHashString@@@std@@@std@@IBEII@Z
_TEXT	SEGMENT
__Count$ = 8						; size = 4
?_Grow_to@?$vector@VioHashString@@V?$allocator@VioHashString@@@std@@@std@@IBEII@Z PROC ; std::vector<ioHashString,std::allocator<ioHashString> >::_Grow_to, COMDAT
; _this$ = ecx

; 1274 : 		{	// grow by 50% or at least to _Count

  00000	55		 push	 ebp
  00001	8b ec		 mov	 ebp, esp

; 1275 : 		size_type _Capacity = capacity();

  00003	8b 41 08	 mov	 eax, DWORD PTR [ecx+8]
  00006	2b 01		 sub	 eax, DWORD PTR [ecx]

; 1276 : 
; 1277 : 		_Capacity = max_size() - _Capacity / 2 < _Capacity
; 1278 : 			? 0 : _Capacity + _Capacity / 2;	// try to grow by 50%

  00008	ba ff ff ff 0f	 mov	 edx, 268435455		; 0fffffffH
  0000d	c1 f8 04	 sar	 eax, 4
  00010	8b c8		 mov	 ecx, eax
  00012	d1 e9		 shr	 ecx, 1
  00014	2b d1		 sub	 edx, ecx
  00016	3b d0		 cmp	 edx, eax
  00018	73 04		 jae	 SHORT $LN4@Grow_to@3
  0001a	33 c0		 xor	 eax, eax
  0001c	eb 02		 jmp	 SHORT $LN5@Grow_to@3
$LN4@Grow_to@3:
  0001e	03 c1		 add	 eax, ecx
$LN5@Grow_to@3:

; 1279 : 		if (_Capacity < _Count)

  00020	3b 45 08	 cmp	 eax, DWORD PTR __Count$[ebp]

; 1280 : 			_Capacity = _Count;

  00023	0f 42 45 08	 cmovb	 eax, DWORD PTR __Count$[ebp]

; 1281 : 		return (_Capacity);
; 1282 : 		}

  00027	5d		 pop	 ebp
  00028	c2 04 00	 ret	 4
?_Grow_to@?$vector@VioHashString@@V?$allocator@VioHashString@@@std@@@std@@IBEII@Z ENDP ; std::vector<ioHashString,std::allocator<ioHashString> >::_Grow_to
_TEXT	ENDS
PUBLIC	??$?0$0BM@@ioINILoader_e@@QAE@AAY0BM@$$CBD_N@Z	; ioINILoader_e::ioINILoader_e<28>
; Function compile flags: /Ogsp
; File d:\lost saga for developer\youtube\tutorial\source\src\io3dengine\ioiniloader.h
;	COMDAT ??$?0$0BM@@ioINILoader_e@@QAE@AAY0BM@$$CBD_N@Z
_TEXT	SEGMENT
_fn$ = 8						; size = 4
_b$ = 12						; size = 1
??$?0$0BM@@ioINILoader_e@@QAE@AAY0BM@$$CBD_N@Z PROC	; ioINILoader_e::ioINILoader_e<28>, COMDAT
; _this$ = ecx

; 224  : 	{

  00000	55		 push	 ebp
  00001	8b ec		 mov	 ebp, esp
  00003	53		 push	 ebx
  00004	56		 push	 esi
  00005	57		 push	 edi
  00006	8b f9		 mov	 edi, ecx
  00008	8b 4d 08	 mov	 ecx, DWORD PTR _fn$[ebp]
  0000b	8a 11		 mov	 dl, BYTE PTR [ecx]
  0000d	8d 87 50 03 00
	00		 lea	 eax, DWORD PTR [edi+848]
  00013	84 d2		 test	 dl, dl
  00015	0f 84 6a 04 00
	00		 je	 $LN99@ioINILoade
  0001b	80 f2 ed	 xor	 dl, -19			; ffffffedH
  0001e	88 10		 mov	 BYTE PTR [eax], dl
  00020	8a 51 01	 mov	 dl, BYTE PTR [ecx+1]
  00023	84 d2		 test	 dl, dl
  00025	0f 84 54 04 00
	00		 je	 $LN98@ioINILoade
  0002b	80 f2 ec	 xor	 dl, -20			; ffffffecH
  0002e	88 50 01	 mov	 BYTE PTR [eax+1], dl
  00031	8a 51 02	 mov	 dl, BYTE PTR [ecx+2]
  00034	84 d2		 test	 dl, dl
  00036	0f 84 3d 04 00
	00		 je	 $LN97@ioINILoade
  0003c	b3 eb		 mov	 bl, -21			; ffffffebH
  0003e	32 d3		 xor	 dl, bl
  00040	88 50 02	 mov	 BYTE PTR [eax+2], dl
  00043	8a 51 03	 mov	 dl, BYTE PTR [ecx+3]
  00046	84 d2		 test	 dl, dl
  00048	0f 84 25 04 00
	00		 je	 $LN96@ioINILoade
  0004e	80 f2 ea	 xor	 dl, -22			; ffffffeaH
  00051	88 50 03	 mov	 BYTE PTR [eax+3], dl
  00054	8a 51 04	 mov	 dl, BYTE PTR [ecx+4]
  00057	84 d2		 test	 dl, dl
  00059	0f 84 0e 04 00
	00		 je	 $LN95@ioINILoade
  0005f	80 f2 ed	 xor	 dl, -19			; ffffffedH
  00062	88 50 04	 mov	 BYTE PTR [eax+4], dl
  00065	8a 51 05	 mov	 dl, BYTE PTR [ecx+5]
  00068	84 d2		 test	 dl, dl
  0006a	0f 84 f7 03 00
	00		 je	 $LN94@ioINILoade
  00070	80 f2 ec	 xor	 dl, -20			; ffffffecH
  00073	88 50 05	 mov	 BYTE PTR [eax+5], dl
  00076	8a 51 06	 mov	 dl, BYTE PTR [ecx+6]
  00079	84 d2		 test	 dl, dl
  0007b	0f 84 e1 03 00
	00		 je	 $LN93@ioINILoade
  00081	32 d3		 xor	 dl, bl
  00083	88 50 06	 mov	 BYTE PTR [eax+6], dl
  00086	8a 51 07	 mov	 dl, BYTE PTR [ecx+7]
  00089	84 d2		 test	 dl, dl
  0008b	0f 84 cb 03 00
	00		 je	 $LN92@ioINILoade
  00091	80 f2 ea	 xor	 dl, -22			; ffffffeaH
  00094	88 50 07	 mov	 BYTE PTR [eax+7], dl
  00097	8a 51 08	 mov	 dl, BYTE PTR [ecx+8]
  0009a	84 d2		 test	 dl, dl
  0009c	0f 84 b4 03 00
	00		 je	 $LN91@ioINILoade
  000a2	80 f2 ed	 xor	 dl, -19			; ffffffedH
  000a5	88 50 08	 mov	 BYTE PTR [eax+8], dl
  000a8	8a 51 09	 mov	 dl, BYTE PTR [ecx+9]
  000ab	84 d2		 test	 dl, dl
  000ad	0f 84 9d 03 00
	00		 je	 $LN90@ioINILoade
  000b3	80 f2 ec	 xor	 dl, -20			; ffffffecH
  000b6	88 50 09	 mov	 BYTE PTR [eax+9], dl
  000b9	8a 51 0a	 mov	 dl, BYTE PTR [ecx+10]
  000bc	84 d2		 test	 dl, dl
  000be	0f 84 87 03 00
	00		 je	 $LN89@ioINILoade
  000c4	32 d3		 xor	 dl, bl
  000c6	88 50 0a	 mov	 BYTE PTR [eax+10], dl
  000c9	8a 51 0b	 mov	 dl, BYTE PTR [ecx+11]
  000cc	84 d2		 test	 dl, dl
  000ce	0f 84 71 03 00
	00		 je	 $LN88@ioINILoade
  000d4	80 f2 ea	 xor	 dl, -22			; ffffffeaH
  000d7	88 50 0b	 mov	 BYTE PTR [eax+11], dl
  000da	8a 51 0c	 mov	 dl, BYTE PTR [ecx+12]
  000dd	84 d2		 test	 dl, dl
  000df	0f 84 5a 03 00
	00		 je	 $LN87@ioINILoade
  000e5	80 f2 ed	 xor	 dl, -19			; ffffffedH
  000e8	88 50 0c	 mov	 BYTE PTR [eax+12], dl
  000eb	8a 51 0d	 mov	 dl, BYTE PTR [ecx+13]
  000ee	84 d2		 test	 dl, dl
  000f0	0f 84 43 03 00
	00		 je	 $LN86@ioINILoade
  000f6	80 f2 ec	 xor	 dl, -20			; ffffffecH
  000f9	88 50 0d	 mov	 BYTE PTR [eax+13], dl
  000fc	8a 51 0e	 mov	 dl, BYTE PTR [ecx+14]
  000ff	84 d2		 test	 dl, dl
  00101	0f 84 2d 03 00
	00		 je	 $LN85@ioINILoade
  00107	32 d3		 xor	 dl, bl
  00109	88 50 0e	 mov	 BYTE PTR [eax+14], dl
  0010c	8a 51 0f	 mov	 dl, BYTE PTR [ecx+15]
  0010f	84 d2		 test	 dl, dl
  00111	0f 84 17 03 00
	00		 je	 $LN84@ioINILoade
  00117	80 f2 ea	 xor	 dl, -22			; ffffffeaH
  0011a	88 50 0f	 mov	 BYTE PTR [eax+15], dl
  0011d	8a 51 10	 mov	 dl, BYTE PTR [ecx+16]
  00120	84 d2		 test	 dl, dl
  00122	0f 84 00 03 00
	00		 je	 $LN83@ioINILoade
  00128	80 f2 ed	 xor	 dl, -19			; ffffffedH
  0012b	88 50 10	 mov	 BYTE PTR [eax+16], dl
  0012e	8a 51 11	 mov	 dl, BYTE PTR [ecx+17]
  00131	84 d2		 test	 dl, dl
  00133	0f 84 e9 02 00
	00		 je	 $LN82@ioINILoade
  00139	80 f2 ec	 xor	 dl, -20			; ffffffecH
  0013c	88 50 11	 mov	 BYTE PTR [eax+17], dl
  0013f	8a 51 12	 mov	 dl, BYTE PTR [ecx+18]
  00142	84 d2		 test	 dl, dl
  00144	0f 84 d3 02 00
	00		 je	 $LN81@ioINILoade
  0014a	32 d3		 xor	 dl, bl
  0014c	88 50 12	 mov	 BYTE PTR [eax+18], dl
  0014f	8a 51 13	 mov	 dl, BYTE PTR [ecx+19]
  00152	84 d2		 test	 dl, dl
  00154	0f 84 bd 02 00
	00		 je	 $LN80@ioINILoade
  0015a	80 f2 ea	 xor	 dl, -22			; ffffffeaH
  0015d	88 50 13	 mov	 BYTE PTR [eax+19], dl
  00160	8a 51 14	 mov	 dl, BYTE PTR [ecx+20]
  00163	84 d2		 test	 dl, dl
  00165	0f 84 a6 02 00
	00		 je	 $LN79@ioINILoade
  0016b	80 f2 ed	 xor	 dl, -19			; ffffffedH
  0016e	88 50 14	 mov	 BYTE PTR [eax+20], dl
  00171	8a 51 15	 mov	 dl, BYTE PTR [ecx+21]
  00174	84 d2		 test	 dl, dl
  00176	0f 84 8f 02 00
	00		 je	 $LN78@ioINILoade
  0017c	80 f2 ec	 xor	 dl, -20			; ffffffecH
  0017f	88 50 15	 mov	 BYTE PTR [eax+21], dl
  00182	8a 51 16	 mov	 dl, BYTE PTR [ecx+22]
  00185	84 d2		 test	 dl, dl
  00187	0f 84 79 02 00
	00		 je	 $LN77@ioINILoade
  0018d	32 d3		 xor	 dl, bl
  0018f	88 50 16	 mov	 BYTE PTR [eax+22], dl
  00192	8a 51 17	 mov	 dl, BYTE PTR [ecx+23]
  00195	84 d2		 test	 dl, dl
  00197	0f 84 60 02 00
	00		 je	 $LN76@ioINILoade
  0019d	80 f2 ea	 xor	 dl, -22			; ffffffeaH
  001a0	88 50 17	 mov	 BYTE PTR [eax+23], dl
  001a3	8a 51 18	 mov	 dl, BYTE PTR [ecx+24]
  001a6	84 d2		 test	 dl, dl
  001a8	0f 84 46 02 00
	00		 je	 $LN75@ioINILoade
  001ae	80 f2 ed	 xor	 dl, -19			; ffffffedH
  001b1	88 50 18	 mov	 BYTE PTR [eax+24], dl
  001b4	8a 51 19	 mov	 dl, BYTE PTR [ecx+25]
  001b7	84 d2		 test	 dl, dl
  001b9	0f 84 2c 02 00
	00		 je	 $LN74@ioINILoade
  001bf	80 f2 ec	 xor	 dl, -20			; ffffffecH
  001c2	88 50 19	 mov	 BYTE PTR [eax+25], dl
  001c5	8a 51 1a	 mov	 dl, BYTE PTR [ecx+26]
  001c8	84 d2		 test	 dl, dl
  001ca	0f 84 13 02 00
	00		 je	 $LN73@ioINILoade
  001d0	32 d3		 xor	 dl, bl
  001d2	88 50 1a	 mov	 BYTE PTR [eax+26], dl
  001d5	8a 51 1b	 mov	 dl, BYTE PTR [ecx+27]
  001d8	84 d2		 test	 dl, dl
  001da	0f 84 fa 01 00
	00		 je	 $LN72@ioINILoade
  001e0	80 f2 ea	 xor	 dl, -22			; ffffffeaH
  001e3	88 50 1b	 mov	 BYTE PTR [eax+27], dl
  001e6	8a 51 1c	 mov	 dl, BYTE PTR [ecx+28]
  001e9	84 d2		 test	 dl, dl
  001eb	0f 84 e0 01 00
	00		 je	 $LN71@ioINILoade
  001f1	80 f2 ed	 xor	 dl, -19			; ffffffedH
  001f4	88 50 1c	 mov	 BYTE PTR [eax+28], dl
  001f7	8a 51 1d	 mov	 dl, BYTE PTR [ecx+29]
  001fa	84 d2		 test	 dl, dl
  001fc	0f 84 c6 01 00
	00		 je	 $LN70@ioINILoade
  00202	80 f2 ec	 xor	 dl, -20			; ffffffecH
  00205	88 50 1d	 mov	 BYTE PTR [eax+29], dl
  00208	8a 51 1e	 mov	 dl, BYTE PTR [ecx+30]
  0020b	84 d2		 test	 dl, dl
  0020d	0f 84 ad 01 00
	00		 je	 $LN69@ioINILoade
  00213	32 d3		 xor	 dl, bl
  00215	88 50 1e	 mov	 BYTE PTR [eax+30], dl
  00218	8a 51 1f	 mov	 dl, BYTE PTR [ecx+31]
  0021b	84 d2		 test	 dl, dl
  0021d	0f 84 94 01 00
	00		 je	 $LN68@ioINILoade
  00223	80 f2 ea	 xor	 dl, -22			; ffffffeaH
  00226	88 50 1f	 mov	 BYTE PTR [eax+31], dl
  00229	8a 51 20	 mov	 dl, BYTE PTR [ecx+32]
  0022c	84 d2		 test	 dl, dl
  0022e	0f 84 7a 01 00
	00		 je	 $LN67@ioINILoade
  00234	80 f2 ed	 xor	 dl, -19			; ffffffedH
  00237	88 50 20	 mov	 BYTE PTR [eax+32], dl
  0023a	8a 51 21	 mov	 dl, BYTE PTR [ecx+33]
  0023d	84 d2		 test	 dl, dl
  0023f	0f 84 60 01 00
	00		 je	 $LN66@ioINILoade
  00245	80 f2 ec	 xor	 dl, -20			; ffffffecH
  00248	88 50 21	 mov	 BYTE PTR [eax+33], dl
  0024b	8a 51 22	 mov	 dl, BYTE PTR [ecx+34]
  0024e	84 d2		 test	 dl, dl
  00250	0f 84 47 01 00
	00		 je	 $LN65@ioINILoade
  00256	32 d3		 xor	 dl, bl
  00258	88 50 22	 mov	 BYTE PTR [eax+34], dl
  0025b	8a 51 23	 mov	 dl, BYTE PTR [ecx+35]
  0025e	84 d2		 test	 dl, dl
  00260	0f 84 2e 01 00
	00		 je	 $LN64@ioINILoade
  00266	80 f2 ea	 xor	 dl, -22			; ffffffeaH
  00269	88 50 23	 mov	 BYTE PTR [eax+35], dl
  0026c	8a 51 24	 mov	 dl, BYTE PTR [ecx+36]
  0026f	84 d2		 test	 dl, dl
  00271	0f 84 14 01 00
	00		 je	 $LN63@ioINILoade
  00277	80 f2 ed	 xor	 dl, -19			; ffffffedH
  0027a	88 50 24	 mov	 BYTE PTR [eax+36], dl
  0027d	8a 51 25	 mov	 dl, BYTE PTR [ecx+37]
  00280	84 d2		 test	 dl, dl
  00282	0f 84 fa 00 00
	00		 je	 $LN62@ioINILoade
  00288	80 f2 ec	 xor	 dl, -20			; ffffffecH
  0028b	88 50 25	 mov	 BYTE PTR [eax+37], dl
  0028e	8a 51 26	 mov	 dl, BYTE PTR [ecx+38]
  00291	84 d2		 test	 dl, dl
  00293	0f 84 e1 00 00
	00		 je	 $LN61@ioINILoade
  00299	32 d3		 xor	 dl, bl
  0029b	88 50 26	 mov	 BYTE PTR [eax+38], dl
  0029e	8a 51 27	 mov	 dl, BYTE PTR [ecx+39]
  002a1	84 d2		 test	 dl, dl
  002a3	0f 84 c8 00 00
	00		 je	 $LN60@ioINILoade
  002a9	80 f2 ea	 xor	 dl, -22			; ffffffeaH
  002ac	88 50 27	 mov	 BYTE PTR [eax+39], dl
  002af	8a 51 28	 mov	 dl, BYTE PTR [ecx+40]
  002b2	84 d2		 test	 dl, dl
  002b4	0f 84 ae 00 00
	00		 je	 $LN59@ioINILoade
  002ba	80 f2 ed	 xor	 dl, -19			; ffffffedH
  002bd	88 50 28	 mov	 BYTE PTR [eax+40], dl
  002c0	8a 51 29	 mov	 dl, BYTE PTR [ecx+41]
  002c3	84 d2		 test	 dl, dl
  002c5	0f 84 94 00 00
	00		 je	 $LN58@ioINILoade
  002cb	80 f2 ec	 xor	 dl, -20			; ffffffecH
  002ce	88 50 29	 mov	 BYTE PTR [eax+41], dl
  002d1	8a 51 2a	 mov	 dl, BYTE PTR [ecx+42]
  002d4	84 d2		 test	 dl, dl
  002d6	74 7f		 je	 SHORT $LN57@ioINILoade
  002d8	32 d3		 xor	 dl, bl
  002da	88 50 2a	 mov	 BYTE PTR [eax+42], dl
  002dd	8a 51 2b	 mov	 dl, BYTE PTR [ecx+43]
  002e0	84 d2		 test	 dl, dl
  002e2	74 6a		 je	 SHORT $LN56@ioINILoade
  002e4	80 f2 ea	 xor	 dl, -22			; ffffffeaH
  002e7	88 50 2b	 mov	 BYTE PTR [eax+43], dl
  002ea	8a 51 2c	 mov	 dl, BYTE PTR [ecx+44]
  002ed	84 d2		 test	 dl, dl
  002ef	74 54		 je	 SHORT $LN55@ioINILoade
  002f1	80 f2 ed	 xor	 dl, -19			; ffffffedH
  002f4	88 50 2c	 mov	 BYTE PTR [eax+44], dl
  002f7	8a 51 2d	 mov	 dl, BYTE PTR [ecx+45]
  002fa	84 d2		 test	 dl, dl
  002fc	74 3e		 je	 SHORT $LN54@ioINILoade
  002fe	80 f2 ec	 xor	 dl, -20			; ffffffecH
  00301	88 50 2d	 mov	 BYTE PTR [eax+45], dl
  00304	8a 51 2e	 mov	 dl, BYTE PTR [ecx+46]
  00307	84 d2		 test	 dl, dl
  00309	74 29		 je	 SHORT $LN53@ioINILoade
  0030b	32 d3		 xor	 dl, bl
  0030d	88 50 2e	 mov	 BYTE PTR [eax+46], dl
  00310	8a 51 2f	 mov	 dl, BYTE PTR [ecx+47]
  00313	84 d2		 test	 dl, dl
  00315	74 14		 je	 SHORT $LN52@ioINILoade
  00317	80 f2 ea	 xor	 dl, -22			; ffffffeaH
  0031a	88 50 2f	 mov	 BYTE PTR [eax+47], dl
  0031d	8a 49 30	 mov	 cl, BYTE PTR [ecx+48]
  00320	80 f1 ed	 xor	 cl, -19			; ffffffedH
  00323	88 48 30	 mov	 BYTE PTR [eax+48], cl
  00326	e9 5d 01 00 00	 jmp	 $LN4@ioINILoade
$LN52@ioINILoade:
  0032b	c6 40 2f ea	 mov	 BYTE PTR [eax+47], -22	; ffffffeaH
  0032f	e9 54 01 00 00	 jmp	 $LN4@ioINILoade
$LN53@ioINILoade:
  00334	88 58 2e	 mov	 BYTE PTR [eax+46], bl
  00337	e9 4c 01 00 00	 jmp	 $LN4@ioINILoade
$LN54@ioINILoade:
  0033c	c6 40 2d ec	 mov	 BYTE PTR [eax+45], -20	; ffffffecH
  00340	e9 43 01 00 00	 jmp	 $LN4@ioINILoade
$LN55@ioINILoade:
  00345	c6 40 2c ed	 mov	 BYTE PTR [eax+44], -19	; ffffffedH
  00349	e9 3a 01 00 00	 jmp	 $LN4@ioINILoade
$LN56@ioINILoade:
  0034e	c6 40 2b ea	 mov	 BYTE PTR [eax+43], -22	; ffffffeaH
  00352	e9 31 01 00 00	 jmp	 $LN4@ioINILoade
$LN57@ioINILoade:
  00357	88 58 2a	 mov	 BYTE PTR [eax+42], bl
  0035a	e9 29 01 00 00	 jmp	 $LN4@ioINILoade
$LN58@ioINILoade:
  0035f	c6 40 29 ec	 mov	 BYTE PTR [eax+41], -20	; ffffffecH
  00363	e9 20 01 00 00	 jmp	 $LN4@ioINILoade
$LN59@ioINILoade:
  00368	c6 40 28 ed	 mov	 BYTE PTR [eax+40], -19	; ffffffedH
  0036c	e9 17 01 00 00	 jmp	 $LN4@ioINILoade
$LN60@ioINILoade:
  00371	c6 40 27 ea	 mov	 BYTE PTR [eax+39], -22	; ffffffeaH
  00375	e9 0e 01 00 00	 jmp	 $LN4@ioINILoade
$LN61@ioINILoade:
  0037a	88 58 26	 mov	 BYTE PTR [eax+38], bl
  0037d	e9 06 01 00 00	 jmp	 $LN4@ioINILoade
$LN62@ioINILoade:
  00382	c6 40 25 ec	 mov	 BYTE PTR [eax+37], -20	; ffffffecH
  00386	e9 fd 00 00 00	 jmp	 $LN4@ioINILoade
$LN63@ioINILoade:
  0038b	c6 40 24 ed	 mov	 BYTE PTR [eax+36], -19	; ffffffedH
  0038f	e9 f4 00 00 00	 jmp	 $LN4@ioINILoade
$LN64@ioINILoade:
  00394	c6 40 23 ea	 mov	 BYTE PTR [eax+35], -22	; ffffffeaH
  00398	e9 eb 00 00 00	 jmp	 $LN4@ioINILoade
$LN65@ioINILoade:
  0039d	88 58 22	 mov	 BYTE PTR [eax+34], bl
  003a0	e9 e3 00 00 00	 jmp	 $LN4@ioINILoade
$LN66@ioINILoade:
  003a5	c6 40 21 ec	 mov	 BYTE PTR [eax+33], -20	; ffffffecH
  003a9	e9 da 00 00 00	 jmp	 $LN4@ioINILoade
$LN67@ioINILoade:
  003ae	c6 40 20 ed	 mov	 BYTE PTR [eax+32], -19	; ffffffedH
  003b2	e9 d1 00 00 00	 jmp	 $LN4@ioINILoade
$LN68@ioINILoade:
  003b7	c6 40 1f ea	 mov	 BYTE PTR [eax+31], -22	; ffffffeaH
  003bb	e9 c8 00 00 00	 jmp	 $LN4@ioINILoade
$LN69@ioINILoade:
  003c0	88 58 1e	 mov	 BYTE PTR [eax+30], bl
  003c3	e9 c0 00 00 00	 jmp	 $LN4@ioINILoade
$LN70@ioINILoade:
  003c8	c6 40 1d ec	 mov	 BYTE PTR [eax+29], -20	; ffffffecH
  003cc	e9 b7 00 00 00	 jmp	 $LN4@ioINILoade
$LN71@ioINILoade:
  003d1	c6 40 1c ed	 mov	 BYTE PTR [eax+28], -19	; ffffffedH
  003d5	e9 ae 00 00 00	 jmp	 $LN4@ioINILoade
$LN72@ioINILoade:
  003da	c6 40 1b ea	 mov	 BYTE PTR [eax+27], -22	; ffffffeaH
  003de	e9 a5 00 00 00	 jmp	 $LN4@ioINILoade
$LN73@ioINILoade:
  003e3	88 58 1a	 mov	 BYTE PTR [eax+26], bl
  003e6	e9 9d 00 00 00	 jmp	 $LN4@ioINILoade
$LN74@ioINILoade:
  003eb	c6 40 19 ec	 mov	 BYTE PTR [eax+25], -20	; ffffffecH
  003ef	e9 94 00 00 00	 jmp	 $LN4@ioINILoade
$LN75@ioINILoade:
  003f4	c6 40 18 ed	 mov	 BYTE PTR [eax+24], -19	; ffffffedH
  003f8	e9 8b 00 00 00	 jmp	 $LN4@ioINILoade
$LN76@ioINILoade:
  003fd	c6 40 17 ea	 mov	 BYTE PTR [eax+23], -22	; ffffffeaH
  00401	e9 82 00 00 00	 jmp	 $LN4@ioINILoade
$LN77@ioINILoade:
  00406	88 58 16	 mov	 BYTE PTR [eax+22], bl
  00409	eb 7d		 jmp	 SHORT $LN4@ioINILoade
$LN78@ioINILoade:
  0040b	c6 40 15 ec	 mov	 BYTE PTR [eax+21], -20	; ffffffecH
  0040f	eb 77		 jmp	 SHORT $LN4@ioINILoade
$LN79@ioINILoade:
  00411	c6 40 14 ed	 mov	 BYTE PTR [eax+20], -19	; ffffffedH
  00415	eb 71		 jmp	 SHORT $LN4@ioINILoade
$LN80@ioINILoade:
  00417	c6 40 13 ea	 mov	 BYTE PTR [eax+19], -22	; ffffffeaH
  0041b	eb 6b		 jmp	 SHORT $LN4@ioINILoade
$LN81@ioINILoade:
  0041d	88 58 12	 mov	 BYTE PTR [eax+18], bl
  00420	eb 66		 jmp	 SHORT $LN4@ioINILoade
$LN82@ioINILoade:
  00422	c6 40 11 ec	 mov	 BYTE PTR [eax+17], -20	; ffffffecH
  00426	eb 60		 jmp	 SHORT $LN4@ioINILoade
$LN83@ioINILoade:
  00428	c6 40 10 ed	 mov	 BYTE PTR [eax+16], -19	; ffffffedH
  0042c	eb 5a		 jmp	 SHORT $LN4@ioINILoade
$LN84@ioINILoade:
  0042e	c6 40 0f ea	 mov	 BYTE PTR [eax+15], -22	; ffffffeaH
  00432	eb 54		 jmp	 SHORT $LN4@ioINILoade
$LN85@ioINILoade:
  00434	88 58 0e	 mov	 BYTE PTR [eax+14], bl
  00437	eb 4f		 jmp	 SHORT $LN4@ioINILoade
$LN86@ioINILoade:
  00439	c6 40 0d ec	 mov	 BYTE PTR [eax+13], -20	; ffffffecH
  0043d	eb 49		 jmp	 SHORT $LN4@ioINILoade
$LN87@ioINILoade:
  0043f	c6 40 0c ed	 mov	 BYTE PTR [eax+12], -19	; ffffffedH
  00443	eb 43		 jmp	 SHORT $LN4@ioINILoade
$LN88@ioINILoade:
  00445	c6 40 0b ea	 mov	 BYTE PTR [eax+11], -22	; ffffffeaH
  00449	eb 3d		 jmp	 SHORT $LN4@ioINILoade
$LN89@ioINILoade:
  0044b	88 58 0a	 mov	 BYTE PTR [eax+10], bl
  0044e	eb 38		 jmp	 SHORT $LN4@ioINILoade
$LN90@ioINILoade:
  00450	c6 40 09 ec	 mov	 BYTE PTR [eax+9], -20	; ffffffecH
  00454	eb 32		 jmp	 SHORT $LN4@ioINILoade
$LN91@ioINILoade:
  00456	c6 40 08 ed	 mov	 BYTE PTR [eax+8], -19	; ffffffedH
  0045a	eb 2c		 jmp	 SHORT $LN4@ioINILoade
$LN92@ioINILoade:
  0045c	c6 40 07 ea	 mov	 BYTE PTR [eax+7], -22	; ffffffeaH
  00460	eb 26		 jmp	 SHORT $LN4@ioINILoade
$LN93@ioINILoade:
  00462	88 58 06	 mov	 BYTE PTR [eax+6], bl
  00465	eb 21		 jmp	 SHORT $LN4@ioINILoade
$LN94@ioINILoade:
  00467	c6 40 05 ec	 mov	 BYTE PTR [eax+5], -20	; ffffffecH
  0046b	eb 1b		 jmp	 SHORT $LN4@ioINILoade
$LN95@ioINILoade:
  0046d	c6 40 04 ed	 mov	 BYTE PTR [eax+4], -19	; ffffffedH
  00471	eb 15		 jmp	 SHORT $LN4@ioINILoade
$LN96@ioINILoade:
  00473	c6 40 03 ea	 mov	 BYTE PTR [eax+3], -22	; ffffffeaH
  00477	eb 0f		 jmp	 SHORT $LN4@ioINILoade
$LN97@ioINILoade:
  00479	c6 40 02 eb	 mov	 BYTE PTR [eax+2], -21	; ffffffebH
  0047d	eb 09		 jmp	 SHORT $LN4@ioINILoade
$LN98@ioINILoade:
  0047f	c6 40 01 ec	 mov	 BYTE PTR [eax+1], -20	; ffffffecH
  00483	eb 03		 jmp	 SHORT $LN4@ioINILoade
$LN99@ioINILoade:
  00485	c6 00 ed	 mov	 BYTE PTR [eax], -19	; ffffffedH
$LN4@ioINILoade:
  00488	6a 06		 push	 6
  0048a	8b c8		 mov	 ecx, eax
  0048c	c6 40 1b 00	 mov	 BYTE PTR [eax+27], 0
  00490	5a		 pop	 edx
$LL107@ioINILoade:
  00491	81 31 ed ec eb
	ea		 xor	 DWORD PTR [ecx], -353637139 ; eaebecedH
  00497	83 c1 04	 add	 ecx, 4
  0049a	4a		 dec	 edx
  0049b	75 f4		 jne	 SHORT $LL107@ioINILoade
  0049d	6a 18		 push	 24			; 00000018H
  0049f	5e		 pop	 esi
$LL104@ioINILoade:
  004a0	8b ce		 mov	 ecx, esi
  004a2	81 e1 03 00 00
	80		 and	 ecx, -2147483645	; 80000003H
  004a8	79 05		 jns	 SHORT $LN114@ioINILoade
  004aa	49		 dec	 ecx
  004ab	83 c9 fc	 or	 ecx, -4			; fffffffcH
  004ae	41		 inc	 ecx
$LN114@ioINILoade:
  004af	b2 ed		 mov	 dl, -19			; ffffffedH
  004b1	2a d1		 sub	 dl, cl
  004b3	30 14 06	 xor	 BYTE PTR [esi+eax], dl
  004b6	46		 inc	 esi
  004b7	83 fe 1b	 cmp	 esi, 27			; 0000001bH
  004ba	7c e4		 jl	 SHORT $LL104@ioINILoade
  004bc	ff 75 0c	 push	 DWORD PTR _b$[ebp]
  004bf	8b cf		 mov	 ecx, edi
  004c1	50		 push	 eax
  004c2	ff 15 00 00 00
	00		 call	 DWORD PTR __imp_??0ioINILoader@@QAE@PBD_N@Z

; 225  : 	}

  004c8	8b c7		 mov	 eax, edi
  004ca	5f		 pop	 edi
  004cb	5e		 pop	 esi
  004cc	5b		 pop	 ebx
  004cd	5d		 pop	 ebp
  004ce	c2 08 00	 ret	 8
??$?0$0BM@@ioINILoader_e@@QAE@AAY0BM@$$CBD_N@Z ENDP	; ioINILoader_e::ioINILoader_e<28>
_TEXT	ENDS
PUBLIC	??$?0HAAPAVCustomSoundData@@@?$pair@$$CBKPAVCustomSoundData@@@std@@QAE@$$QAHAAPAVCustomSoundData@@@Z ; std::pair<unsigned long const ,CustomSoundData *>::pair<unsigned long const ,CustomSoundData *><int,CustomSoundData * &>
; Function compile flags: /Ogsp
; File c:\program files (x86)\microsoft visual studio 10.0\vc\include\utility
;	COMDAT ??$?0HAAPAVCustomSoundData@@@?$pair@$$CBKPAVCustomSoundData@@@std@@QAE@$$QAHAAPAVCustomSoundData@@@Z
_TEXT	SEGMENT
__Val1$ = 8						; size = 4
__Val2$ = 12						; size = 4
??$?0HAAPAVCustomSoundData@@@?$pair@$$CBKPAVCustomSoundData@@@std@@QAE@$$QAHAAPAVCustomSoundData@@@Z PROC ; std::pair<unsigned long const ,CustomSoundData *>::pair<unsigned long const ,CustomSoundData *><int,CustomSoundData * &>, COMDAT
; _this$ = ecx

; 247  : 		{	// construct from moved values

  00000	55		 push	 ebp
  00001	8b ec		 mov	 ebp, esp
  00003	8b c1		 mov	 eax, ecx
  00005	8b 4d 08	 mov	 ecx, DWORD PTR __Val1$[ebp]
  00008	8b 09		 mov	 ecx, DWORD PTR [ecx]
  0000a	89 08		 mov	 DWORD PTR [eax], ecx
  0000c	8b 4d 0c	 mov	 ecx, DWORD PTR __Val2$[ebp]
  0000f	8b 09		 mov	 ecx, DWORD PTR [ecx]
  00011	89 48 04	 mov	 DWORD PTR [eax+4], ecx

; 248  : 		}

  00014	5d		 pop	 ebp
  00015	c2 08 00	 ret	 8
??$?0HAAPAVCustomSoundData@@@?$pair@$$CBKPAVCustomSoundData@@@std@@QAE@$$QAHAAPAVCustomSoundData@@@Z ENDP ; std::pair<unsigned long const ,CustomSoundData *>::pair<unsigned long const ,CustomSoundData *><int,CustomSoundData * &>
_TEXT	ENDS
PUBLIC	??$?0AAKAAPAVCustomSoundData@@@?$pair@$$CBKPAVCustomSoundData@@@std@@QAE@AAKAAPAVCustomSoundData@@@Z ; std::pair<unsigned long const ,CustomSoundData *>::pair<unsigned long const ,CustomSoundData *><unsigned long &,CustomSoundData * &>
; Function compile flags: /Ogsp
;	COMDAT ??$?0AAKAAPAVCustomSoundData@@@?$pair@$$CBKPAVCustomSoundData@@@std@@QAE@AAKAAPAVCustomSoundData@@@Z
_TEXT	SEGMENT
__Val1$ = 8						; size = 4
__Val2$ = 12						; size = 4
??$?0AAKAAPAVCustomSoundData@@@?$pair@$$CBKPAVCustomSoundData@@@std@@QAE@AAKAAPAVCustomSoundData@@@Z PROC ; std::pair<unsigned long const ,CustomSoundData *>::pair<unsigned long const ,CustomSoundData *><unsigned long &,CustomSoundData * &>, COMDAT
; _this$ = ecx

; 247  : 		{	// construct from moved values

  00000	55		 push	 ebp
  00001	8b ec		 mov	 ebp, esp
  00003	8b c1		 mov	 eax, ecx
  00005	8b 4d 08	 mov	 ecx, DWORD PTR __Val1$[ebp]
  00008	8b 09		 mov	 ecx, DWORD PTR [ecx]
  0000a	89 08		 mov	 DWORD PTR [eax], ecx
  0000c	8b 4d 0c	 mov	 ecx, DWORD PTR __Val2$[ebp]
  0000f	8b 09		 mov	 ecx, DWORD PTR [ecx]
  00011	89 48 04	 mov	 DWORD PTR [eax+4], ecx

; 248  : 		}

  00014	5d		 pop	 ebp
  00015	c2 08 00	 ret	 8
??$?0AAKAAPAVCustomSoundData@@@?$pair@$$CBKPAVCustomSoundData@@@std@@QAE@AAKAAPAVCustomSoundData@@@Z ENDP ; std::pair<unsigned long const ,CustomSoundData *>::pair<unsigned long const ,CustomSoundData *><unsigned long &,CustomSoundData * &>
_TEXT	ENDS
PUBLIC	??$_Cons_val@V?$allocator@VioHashString@@@std@@VioHashString@@AAV3@@std@@YAXAAV?$allocator@VioHashString@@@0@PAVioHashString@@AAV2@@Z ; std::_Cons_val<std::allocator<ioHashString>,ioHashString,ioHashString &>
; Function compile flags: /Ogsp
; File c:\program files (x86)\microsoft visual studio 10.0\vc\include\xmemory
;	COMDAT ??$_Cons_val@V?$allocator@VioHashString@@@std@@VioHashString@@AAV3@@std@@YAXAAV?$allocator@VioHashString@@@0@PAVioHashString@@AAV2@@Z
_TEXT	SEGMENT
__Alval$ = 8						; size = 4
__Pdest$ = 12						; size = 4
__Src$ = 16						; size = 4
??$_Cons_val@V?$allocator@VioHashString@@@std@@VioHashString@@AAV3@@std@@YAXAAV?$allocator@VioHashString@@@0@PAVioHashString@@AAV2@@Z PROC ; std::_Cons_val<std::allocator<ioHashString>,ioHashString,ioHashString &>, COMDAT

; 279  : 	{	// construct using allocator

  00000	55		 push	 ebp
  00001	8b ec		 mov	 ebp, esp

; 280  : 	_Alval.construct(_Pdest, _STD forward<_Ty2>(_Src));

  00003	ff 75 10	 push	 DWORD PTR __Src$[ebp]
  00006	8b 4d 08	 mov	 ecx, DWORD PTR __Alval$[ebp]
  00009	ff 75 0c	 push	 DWORD PTR __Pdest$[ebp]
  0000c	e8 00 00 00 00	 call	 ??$construct@AAVioHashString@@@?$allocator@VioHashString@@@std@@QAEXPAVioHashString@@AAV2@@Z ; std::allocator<ioHashString>::construct<ioHashString &>

; 281  : 	}

  00011	5d		 pop	 ebp
  00012	c3		 ret	 0
??$_Cons_val@V?$allocator@VioHashString@@@std@@VioHashString@@AAV3@@std@@YAXAAV?$allocator@VioHashString@@@0@PAVioHashString@@AAV2@@Z ENDP ; std::_Cons_val<std::allocator<ioHashString>,ioHashString,ioHashString &>
_TEXT	ENDS
PUBLIC	??$_Cons_val@V?$allocator@UtagNetworkInfo@CustomSoundData@@@std@@UtagNetworkInfo@CustomSoundData@@ABU34@@std@@YAXAAV?$allocator@UtagNetworkInfo@CustomSoundData@@@0@PAUtagNetworkInfo@CustomSoundData@@ABU23@@Z ; std::_Cons_val<std::allocator<CustomSoundData::tagNetworkInfo>,CustomSoundData::tagNetworkInfo,CustomSoundData::tagNetworkInfo const &>
; Function compile flags: /Ogsp
;	COMDAT ??$_Cons_val@V?$allocator@UtagNetworkInfo@CustomSoundData@@@std@@UtagNetworkInfo@CustomSoundData@@ABU34@@std@@YAXAAV?$allocator@UtagNetworkInfo@CustomSoundData@@@0@PAUtagNetworkInfo@CustomSoundData@@ABU23@@Z
_TEXT	SEGMENT
__Alval$ = 8						; size = 4
__Pdest$ = 12						; size = 4
__Src$ = 16						; size = 4
??$_Cons_val@V?$allocator@UtagNetworkInfo@CustomSoundData@@@std@@UtagNetworkInfo@CustomSoundData@@ABU34@@std@@YAXAAV?$allocator@UtagNetworkInfo@CustomSoundData@@@0@PAUtagNetworkInfo@CustomSoundData@@ABU23@@Z PROC ; std::_Cons_val<std::allocator<CustomSoundData::tagNetworkInfo>,CustomSoundData::tagNetworkInfo,CustomSoundData::tagNetworkInfo const &>, COMDAT

; 279  : 	{	// construct using allocator

  00000	55		 push	 ebp
  00001	8b ec		 mov	 ebp, esp

; 280  : 	_Alval.construct(_Pdest, _STD forward<_Ty2>(_Src));

  00003	8b 45 0c	 mov	 eax, DWORD PTR __Pdest$[ebp]
  00006	85 c0		 test	 eax, eax
  00008	74 0d		 je	 SHORT $LN9@Cons_val@3
  0000a	8b 4d 10	 mov	 ecx, DWORD PTR __Src$[ebp]
  0000d	8b 11		 mov	 edx, DWORD PTR [ecx]
  0000f	89 10		 mov	 DWORD PTR [eax], edx
  00011	8b 49 04	 mov	 ecx, DWORD PTR [ecx+4]
  00014	89 48 04	 mov	 DWORD PTR [eax+4], ecx
$LN9@Cons_val@3:

; 281  : 	}

  00017	5d		 pop	 ebp
  00018	c3		 ret	 0
??$_Cons_val@V?$allocator@UtagNetworkInfo@CustomSoundData@@@std@@UtagNetworkInfo@CustomSoundData@@ABU34@@std@@YAXAAV?$allocator@UtagNetworkInfo@CustomSoundData@@@0@PAUtagNetworkInfo@CustomSoundData@@ABU23@@Z ENDP ; std::_Cons_val<std::allocator<CustomSoundData::tagNetworkInfo>,CustomSoundData::tagNetworkInfo,CustomSoundData::tagNetworkInfo const &>
_TEXT	ENDS
PUBLIC	??$_Move@PAUtagNetworkInfo@CustomSoundData@@PAU12@@std@@YAPAUtagNetworkInfo@CustomSoundData@@PAU12@00@Z ; std::_Move<CustomSoundData::tagNetworkInfo *,CustomSoundData::tagNetworkInfo *>
; Function compile flags: /Ogsp
; File c:\program files (x86)\microsoft visual studio 10.0\vc\include\xutility
;	COMDAT ??$_Move@PAUtagNetworkInfo@CustomSoundData@@PAU12@@std@@YAPAUtagNetworkInfo@CustomSoundData@@PAU12@00@Z
_TEXT	SEGMENT
__Cat$513402 = -4					; size = 1
__First$ = 8						; size = 4
__Last$ = 12						; size = 4
__Dest$ = 16						; size = 4
??$_Move@PAUtagNetworkInfo@CustomSoundData@@PAU12@@std@@YAPAUtagNetworkInfo@CustomSoundData@@PAU12@00@Z PROC ; std::_Move<CustomSoundData::tagNetworkInfo *,CustomSoundData::tagNetworkInfo *>, COMDAT

; 2533 : 	{	// move [_First, _Last) to [_Dest, ...), unchecked

  00000	55		 push	 ebp
  00001	8b ec		 mov	 ebp, esp
  00003	51		 push	 ecx

; 2534 : 	return (_Move(_First, _Last,
; 2535 : 		_Dest, _Ptr_cat(_First, _Dest)));

  00004	ff 75 fc	 push	 DWORD PTR __Cat$513402[ebp]
  00007	ff 75 10	 push	 DWORD PTR __Dest$[ebp]
  0000a	ff 75 0c	 push	 DWORD PTR __Last$[ebp]
  0000d	ff 75 08	 push	 DWORD PTR __First$[ebp]
  00010	e8 00 00 00 00	 call	 ??$_Move@PAUtagNetworkInfo@CustomSoundData@@PAU12@@std@@YAPAUtagNetworkInfo@CustomSoundData@@PAU12@00U_Nonscalar_ptr_iterator_tag@0@@Z ; std::_Move<CustomSoundData::tagNetworkInfo *,CustomSoundData::tagNetworkInfo *>
  00015	83 c4 10	 add	 esp, 16			; 00000010H

; 2536 : 	}

  00018	c9		 leave
  00019	c3		 ret	 0
??$_Move@PAUtagNetworkInfo@CustomSoundData@@PAU12@@std@@YAPAUtagNetworkInfo@CustomSoundData@@PAU12@00@Z ENDP ; std::_Move<CustomSoundData::tagNetworkInfo *,CustomSoundData::tagNetworkInfo *>
_TEXT	ENDS
PUBLIC	??$_Cons_val@V?$allocator@PAUtagCustomSoundInfo@ioCustomSoundMgr@@@std@@PAUtagCustomSoundInfo@ioCustomSoundMgr@@ABQAU34@@std@@YAXAAV?$allocator@PAUtagCustomSoundInfo@ioCustomSoundMgr@@@0@PAPAUtagCustomSoundInfo@ioCustomSoundMgr@@ABQAU23@@Z ; std::_Cons_val<std::allocator<ioCustomSoundMgr::tagCustomSoundInfo *>,ioCustomSoundMgr::tagCustomSoundInfo *,ioCustomSoundMgr::tagCustomSoundInfo * const &>
; Function compile flags: /Ogsp
; File c:\program files (x86)\microsoft visual studio 10.0\vc\include\xmemory
;	COMDAT ??$_Cons_val@V?$allocator@PAUtagCustomSoundInfo@ioCustomSoundMgr@@@std@@PAUtagCustomSoundInfo@ioCustomSoundMgr@@ABQAU34@@std@@YAXAAV?$allocator@PAUtagCustomSoundInfo@ioCustomSoundMgr@@@0@PAPAUtagCustomSoundInfo@ioCustomSoundMgr@@ABQAU23@@Z
_TEXT	SEGMENT
__Alval$ = 8						; size = 4
__Pdest$ = 12						; size = 4
__Src$ = 16						; size = 4
??$_Cons_val@V?$allocator@PAUtagCustomSoundInfo@ioCustomSoundMgr@@@std@@PAUtagCustomSoundInfo@ioCustomSoundMgr@@ABQAU34@@std@@YAXAAV?$allocator@PAUtagCustomSoundInfo@ioCustomSoundMgr@@@0@PAPAUtagCustomSoundInfo@ioCustomSoundMgr@@ABQAU23@@Z PROC ; std::_Cons_val<std::allocator<ioCustomSoundMgr::tagCustomSoundInfo *>,ioCustomSoundMgr::tagCustomSoundInfo *,ioCustomSoundMgr::tagCustomSoundInfo * const &>, COMDAT

; 279  : 	{	// construct using allocator

  00000	55		 push	 ebp
  00001	8b ec		 mov	 ebp, esp

; 280  : 	_Alval.construct(_Pdest, _STD forward<_Ty2>(_Src));

  00003	8b 45 0c	 mov	 eax, DWORD PTR __Pdest$[ebp]
  00006	85 c0		 test	 eax, eax
  00008	74 07		 je	 SHORT $LN9@Cons_val@4
  0000a	8b 4d 10	 mov	 ecx, DWORD PTR __Src$[ebp]
  0000d	8b 09		 mov	 ecx, DWORD PTR [ecx]
  0000f	89 08		 mov	 DWORD PTR [eax], ecx
$LN9@Cons_val@4:

; 281  : 	}

  00011	5d		 pop	 ebp
  00012	c3		 ret	 0
??$_Cons_val@V?$allocator@PAUtagCustomSoundInfo@ioCustomSoundMgr@@@std@@PAUtagCustomSoundInfo@ioCustomSoundMgr@@ABQAU34@@std@@YAXAAV?$allocator@PAUtagCustomSoundInfo@ioCustomSoundMgr@@@0@PAPAUtagCustomSoundInfo@ioCustomSoundMgr@@ABQAU23@@Z ENDP ; std::_Cons_val<std::allocator<ioCustomSoundMgr::tagCustomSoundInfo *>,ioCustomSoundMgr::tagCustomSoundInfo *,ioCustomSoundMgr::tagCustomSoundInfo * const &>
_TEXT	ENDS
PUBLIC	??$_Umove@PAPAUtagCustomSoundInfo@ioCustomSoundMgr@@@?$vector@PAUtagCustomSoundInfo@ioCustomSoundMgr@@V?$allocator@PAUtagCustomSoundInfo@ioCustomSoundMgr@@@std@@@std@@IAEPAPAUtagCustomSoundInfo@ioCustomSoundMgr@@PAPAU23@00@Z ; std::vector<ioCustomSoundMgr::tagCustomSoundInfo *,std::allocator<ioCustomSoundMgr::tagCustomSoundInfo *> >::_Umove<ioCustomSoundMgr::tagCustomSoundInfo * *>
; Function compile flags: /Ogsp
; File c:\program files (x86)\microsoft visual studio 10.0\vc\include\vector
;	COMDAT ??$_Umove@PAPAUtagCustomSoundInfo@ioCustomSoundMgr@@@?$vector@PAUtagCustomSoundInfo@ioCustomSoundMgr@@V?$allocator@PAUtagCustomSoundInfo@ioCustomSoundMgr@@@std@@@std@@IAEPAPAUtagCustomSoundInfo@ioCustomSoundMgr@@PAPAU23@00@Z
_TEXT	SEGMENT
__First$ = 8						; size = 4
__Last$ = 12						; size = 4
__Ptr$ = 16						; size = 4
??$_Umove@PAPAUtagCustomSoundInfo@ioCustomSoundMgr@@@?$vector@PAUtagCustomSoundInfo@ioCustomSoundMgr@@V?$allocator@PAUtagCustomSoundInfo@ioCustomSoundMgr@@@std@@@std@@IAEPAPAUtagCustomSoundInfo@ioCustomSoundMgr@@PAPAU23@00@Z PROC ; std::vector<ioCustomSoundMgr::tagCustomSoundInfo *,std::allocator<ioCustomSoundMgr::tagCustomSoundInfo *> >::_Umove<ioCustomSoundMgr::tagCustomSoundInfo * *>, COMDAT
; _this$ = ecx

; 1322 : 		pointer _Umove(_Iter _First, _Iter _Last, pointer _Ptr)

  00000	55		 push	 ebp
  00001	8b ec		 mov	 ebp, esp

; 1323 : 		{	// move initializing [_First, _Last), using allocator
; 1324 : 		return (_Uninitialized_move(_First, _Last,
; 1325 : 			_Ptr, this->_Alval));

  00003	83 c1 0c	 add	 ecx, 12			; 0000000cH
  00006	51		 push	 ecx
  00007	ff 75 10	 push	 DWORD PTR __Ptr$[ebp]
  0000a	ff 75 0c	 push	 DWORD PTR __Last$[ebp]
  0000d	ff 75 08	 push	 DWORD PTR __First$[ebp]
  00010	e8 00 00 00 00	 call	 ??$_Uninitialized_move@PAPAUtagCustomSoundInfo@ioCustomSoundMgr@@PAPAU12@V?$allocator@PAUtagCustomSoundInfo@ioCustomSoundMgr@@@std@@@std@@YAPAPAUtagCustomSoundInfo@ioCustomSoundMgr@@PAPAU12@00AAV?$allocator@PAUtagCustomSoundInfo@ioCustomSoundMgr@@@0@@Z ; std::_Uninitialized_move<ioCustomSoundMgr::tagCustomSoundInfo * *,ioCustomSoundMgr::tagCustomSoundInfo * *,std::allocator<ioCustomSoundMgr::tagCustomSoundInfo *> >
  00015	83 c4 10	 add	 esp, 16			; 00000010H

; 1326 : 		}

  00018	5d		 pop	 ebp
  00019	c2 0c 00	 ret	 12			; 0000000cH
??$_Umove@PAPAUtagCustomSoundInfo@ioCustomSoundMgr@@@?$vector@PAUtagCustomSoundInfo@ioCustomSoundMgr@@V?$allocator@PAUtagCustomSoundInfo@ioCustomSoundMgr@@@std@@@std@@IAEPAPAUtagCustomSoundInfo@ioCustomSoundMgr@@PAPAU23@00@Z ENDP ; std::vector<ioCustomSoundMgr::tagCustomSoundInfo *,std::allocator<ioCustomSoundMgr::tagCustomSoundInfo *> >::_Umove<ioCustomSoundMgr::tagCustomSoundInfo * *>
_TEXT	ENDS
PUBLIC	??0?$pair@V?$_Tree_iterator@V?$_Tree_val@V?$_Tmap_traits@KPAVCustomSoundData@@U?$less@K@std@@V?$allocator@U?$pair@$$CBKPAVCustomSoundData@@@std@@@3@$0A@@std@@@std@@@std@@_N@std@@QAE@$$QAV?$_Tree_iterator@V?$_Tree_val@V?$_Tmap_traits@KPAVCustomSoundData@@U?$less@K@std@@V?$allocator@U?$pair@$$CBKPAVCustomSoundData@@@std@@@3@$0A@@std@@@std@@@1@$$QA_N@Z ; std::pair<std::_Tree_iterator<std::_Tree_val<std::_Tmap_traits<unsigned long,CustomSoundData *,std::less<unsigned long>,std::allocator<std::pair<unsigned long const ,CustomSoundData *> >,0> > >,bool>::pair<std::_Tree_iterator<std::_Tree_val<std::_Tmap_traits<unsigned long,CustomSoundData *,std::less<unsigned long>,std::allocator<std::pair<unsigned long const ,CustomSoundData *> >,0> > >,bool>
; Function compile flags: /Ogsp
; File c:\program files (x86)\microsoft visual studio 10.0\vc\include\utility
;	COMDAT ??0?$pair@V?$_Tree_iterator@V?$_Tree_val@V?$_Tmap_traits@KPAVCustomSoundData@@U?$less@K@std@@V?$allocator@U?$pair@$$CBKPAVCustomSoundData@@@std@@@3@$0A@@std@@@std@@@std@@_N@std@@QAE@$$QAV?$_Tree_iterator@V?$_Tree_val@V?$_Tmap_traits@KPAVCustomSoundData@@U?$less@K@std@@V?$allocator@U?$pair@$$CBKPAVCustomSoundData@@@std@@@3@$0A@@std@@@std@@@1@$$QA_N@Z
_TEXT	SEGMENT
__Val1$ = 8						; size = 4
__Val2$ = 12						; size = 4
??0?$pair@V?$_Tree_iterator@V?$_Tree_val@V?$_Tmap_traits@KPAVCustomSoundData@@U?$less@K@std@@V?$allocator@U?$pair@$$CBKPAVCustomSoundData@@@std@@@3@$0A@@std@@@std@@@std@@_N@std@@QAE@$$QAV?$_Tree_iterator@V?$_Tree_val@V?$_Tmap_traits@KPAVCustomSoundData@@U?$less@K@std@@V?$allocator@U?$pair@$$CBKPAVCustomSoundData@@@std@@@3@$0A@@std@@@std@@@1@$$QA_N@Z PROC ; std::pair<std::_Tree_iterator<std::_Tree_val<std::_Tmap_traits<unsigned long,CustomSoundData *,std::less<unsigned long>,std::allocator<std::pair<unsigned long const ,CustomSoundData *> >,0> > >,bool>::pair<std::_Tree_iterator<std::_Tree_val<std::_Tmap_traits<unsigned long,CustomSoundData *,std::less<unsigned long>,std::allocator<std::pair<unsigned long const ,CustomSoundData *> >,0> > >,bool>, COMDAT
; _this$ = ecx

; 227  : 		{	// construct from specified values

  00000	55		 push	 ebp
  00001	8b ec		 mov	 ebp, esp
  00003	8b c1		 mov	 eax, ecx
  00005	8b 4d 08	 mov	 ecx, DWORD PTR __Val1$[ebp]
  00008	8b 09		 mov	 ecx, DWORD PTR [ecx]
  0000a	89 08		 mov	 DWORD PTR [eax], ecx
  0000c	8b 4d 0c	 mov	 ecx, DWORD PTR __Val2$[ebp]
  0000f	8a 09		 mov	 cl, BYTE PTR [ecx]
  00011	88 48 04	 mov	 BYTE PTR [eax+4], cl

; 228  : 		}

  00014	5d		 pop	 ebp
  00015	c2 08 00	 ret	 8
??0?$pair@V?$_Tree_iterator@V?$_Tree_val@V?$_Tmap_traits@KPAVCustomSoundData@@U?$less@K@std@@V?$allocator@U?$pair@$$CBKPAVCustomSoundData@@@std@@@3@$0A@@std@@@std@@@std@@_N@std@@QAE@$$QAV?$_Tree_iterator@V?$_Tree_val@V?$_Tmap_traits@KPAVCustomSoundData@@U?$less@K@std@@V?$allocator@U?$pair@$$CBKPAVCustomSoundData@@@std@@@3@$0A@@std@@@std@@@1@$$QA_N@Z ENDP ; std::pair<std::_Tree_iterator<std::_Tree_val<std::_Tmap_traits<unsigned long,CustomSoundData *,std::less<unsigned long>,std::allocator<std::pair<unsigned long const ,CustomSoundData *> >,0> > >,bool>::pair<std::_Tree_iterator<std::_Tree_val<std::_Tmap_traits<unsigned long,CustomSoundData *,std::less<unsigned long>,std::allocator<std::pair<unsigned long const ,CustomSoundData *> >,0> > >,bool>
_TEXT	ENDS
PUBLIC	??F?$_Tree_const_iterator@V?$_Tree_val@V?$_Tmap_traits@KPAVCustomSoundData@@U?$less@K@std@@V?$allocator@U?$pair@$$CBKPAVCustomSoundData@@@std@@@3@$0A@@std@@@std@@@std@@QAEAAV01@XZ ; std::_Tree_const_iterator<std::_Tree_val<std::_Tmap_traits<unsigned long,CustomSoundData *,std::less<unsigned long>,std::allocator<std::pair<unsigned long const ,CustomSoundData *> >,0> > >::operator--
; Function compile flags: /Ogsp
; File c:\program files (x86)\microsoft visual studio 10.0\vc\include\xtree
;	COMDAT ??F?$_Tree_const_iterator@V?$_Tree_val@V?$_Tmap_traits@KPAVCustomSoundData@@U?$less@K@std@@V?$allocator@U?$pair@$$CBKPAVCustomSoundData@@@std@@@3@$0A@@std@@@std@@@std@@QAEAAV01@XZ
_TEXT	SEGMENT
??F?$_Tree_const_iterator@V?$_Tree_val@V?$_Tmap_traits@KPAVCustomSoundData@@U?$less@K@std@@V?$allocator@U?$pair@$$CBKPAVCustomSoundData@@@std@@@3@$0A@@std@@@std@@@std@@QAEAAV01@XZ PROC ; std::_Tree_const_iterator<std::_Tree_val<std::_Tmap_traits<unsigned long,CustomSoundData *,std::less<unsigned long>,std::allocator<std::pair<unsigned long const ,CustomSoundData *> >,0> > >::operator--, COMDAT
; _this$ = ecx

; 277  : 		{	// predecrement

  00000	56		 push	 esi
  00001	8b f1		 mov	 esi, ecx

; 278  :  #if _ITERATOR_DEBUG_LEVEL == 2
; 279  : 		if (this->_Getcont() == 0
; 280  : 			|| this->_Ptr == 0)
; 281  : 			{	// report error
; 282  : 			_DEBUG_ERROR("map/set iterator not decrementable");
; 283  : 			_SCL_SECURE_OUT_OF_RANGE;
; 284  : 			}
; 285  : 
; 286  : 		_Nodeptr _Ptrsav = this->_Ptr;
; 287  : 		--(*(_Mybase *)this);
; 288  : 		if (_Ptrsav == this->_Ptr)
; 289  : 			{	// report error
; 290  : 			_DEBUG_ERROR("map/set iterator not decrementable");
; 291  : 			_SCL_SECURE_OUT_OF_RANGE;
; 292  : 			}
; 293  : 
; 294  :  #elif _ITERATOR_DEBUG_LEVEL == 1
; 295  : 		_SCL_SECURE_VALIDATE(this->_Getcont() != 0 && this->_Ptr != 0);
; 296  : 
; 297  : 		_Nodeptr _Ptrsav = this->_Ptr;
; 298  : 		--(*(_Mybase *)this);
; 299  : 		_SCL_SECURE_VALIDATE(_Ptrsav != this->_Ptr);
; 300  : 
; 301  :  #else /* _ITERATOR_DEBUG_LEVEL == 0 */
; 302  : 		--(*(_Mybase *)this);

  00003	e8 00 00 00 00	 call	 ??F?$_Tree_unchecked_const_iterator@V?$_Tree_val@V?$_Tmap_traits@KPAVCustomSoundData@@U?$less@K@std@@V?$allocator@U?$pair@$$CBKPAVCustomSoundData@@@std@@@3@$0A@@std@@@std@@U_Iterator_base0@2@@std@@QAEAAV01@XZ ; std::_Tree_unchecked_const_iterator<std::_Tree_val<std::_Tmap_traits<unsigned long,CustomSoundData *,std::less<unsigned long>,std::allocator<std::pair<unsigned long const ,CustomSoundData *> >,0> >,std::_Iterator_base0>::operator--

; 303  :  #endif /* _ITERATOR_DEBUG_LEVEL */
; 304  : 
; 305  : 		return (*this);

  00008	8b c6		 mov	 eax, esi
  0000a	5e		 pop	 esi

; 306  : 		}

  0000b	c3		 ret	 0
??F?$_Tree_const_iterator@V?$_Tree_val@V?$_Tmap_traits@KPAVCustomSoundData@@U?$less@K@std@@V?$allocator@U?$pair@$$CBKPAVCustomSoundData@@@std@@@3@$0A@@std@@@std@@@std@@QAEAAV01@XZ ENDP ; std::_Tree_const_iterator<std::_Tree_val<std::_Tmap_traits<unsigned long,CustomSoundData *,std::less<unsigned long>,std::allocator<std::pair<unsigned long const ,CustomSoundData *> >,0> > >::operator--
_TEXT	ENDS
PUBLIC	??$?0AAV?$_Tree_iterator@V?$_Tree_val@V?$_Tmap_traits@KPAVCustomSoundData@@U?$less@K@std@@V?$allocator@U?$pair@$$CBKPAVCustomSoundData@@@std@@@3@$0A@@std@@@std@@@std@@_N@?$pair@V?$_Tree_iterator@V?$_Tree_val@V?$_Tmap_traits@KPAVCustomSoundData@@U?$less@K@std@@V?$allocator@U?$pair@$$CBKPAVCustomSoundData@@@std@@@3@$0A@@std@@@std@@@std@@_N@std@@QAE@AAV?$_Tree_iterator@V?$_Tree_val@V?$_Tmap_traits@KPAVCustomSoundData@@U?$less@K@std@@V?$allocator@U?$pair@$$CBKPAVCustomSoundData@@@std@@@3@$0A@@std@@@std@@@1@$$QA_N@Z ; std::pair<std::_Tree_iterator<std::_Tree_val<std::_Tmap_traits<unsigned long,CustomSoundData *,std::less<unsigned long>,std::allocator<std::pair<unsigned long const ,CustomSoundData *> >,0> > >,bool>::pair<std::_Tree_iterator<std::_Tree_val<std::_Tmap_traits<unsigned long,CustomSoundData *,std::less<unsigned long>,std::allocator<std::pair<unsigned long const ,CustomSoundData *> >,0> > >,bool><std::_Tree_iterator<std::_Tree_val<std::_Tmap_traits<unsigned long,CustomSoundData *,std::less<unsigned long>,std::allocator<std::pair<unsigned long const ,CustomSoundData *> >,0> > > &,bool>
; Function compile flags: /Ogsp
; File c:\program files (x86)\microsoft visual studio 10.0\vc\include\utility
;	COMDAT ??$?0AAV?$_Tree_iterator@V?$_Tree_val@V?$_Tmap_traits@KPAVCustomSoundData@@U?$less@K@std@@V?$allocator@U?$pair@$$CBKPAVCustomSoundData@@@std@@@3@$0A@@std@@@std@@@std@@_N@?$pair@V?$_Tree_iterator@V?$_Tree_val@V?$_Tmap_traits@KPAVCustomSoundData@@U?$less@K@std@@V?$allocator@U?$pair@$$CBKPAVCustomSoundData@@@std@@@3@$0A@@std@@@std@@@std@@_N@std@@QAE@AAV?$_Tree_iterator@V?$_Tree_val@V?$_Tmap_traits@KPAVCustomSoundData@@U?$less@K@std@@V?$allocator@U?$pair@$$CBKPAVCustomSoundData@@@std@@@3@$0A@@std@@@std@@@1@$$QA_N@Z
_TEXT	SEGMENT
__Val1$ = 8						; size = 4
__Val2$ = 12						; size = 4
??$?0AAV?$_Tree_iterator@V?$_Tree_val@V?$_Tmap_traits@KPAVCustomSoundData@@U?$less@K@std@@V?$allocator@U?$pair@$$CBKPAVCustomSoundData@@@std@@@3@$0A@@std@@@std@@@std@@_N@?$pair@V?$_Tree_iterator@V?$_Tree_val@V?$_Tmap_traits@KPAVCustomSoundData@@U?$less@K@std@@V?$allocator@U?$pair@$$CBKPAVCustomSoundData@@@std@@@3@$0A@@std@@@std@@@std@@_N@std@@QAE@AAV?$_Tree_iterator@V?$_Tree_val@V?$_Tmap_traits@KPAVCustomSoundData@@U?$less@K@std@@V?$allocator@U?$pair@$$CBKPAVCustomSoundData@@@std@@@3@$0A@@std@@@std@@@1@$$QA_N@Z PROC ; std::pair<std::_Tree_iterator<std::_Tree_val<std::_Tmap_traits<unsigned long,CustomSoundData *,std::less<unsigned long>,std::allocator<std::pair<unsigned long const ,CustomSoundData *> >,0> > >,bool>::pair<std::_Tree_iterator<std::_Tree_val<std::_Tmap_traits<unsigned long,CustomSoundData *,std::less<unsigned long>,std::allocator<std::pair<unsigned long const ,CustomSoundData *> >,0> > >,bool><std::_Tree_iterator<std::_Tree_val<std::_Tmap_traits<unsigned long,CustomSoundData *,std::less<unsigned long>,std::allocator<std::pair<unsigned long const ,CustomSoundData *> >,0> > > &,bool>, COMDAT
; _this$ = ecx

; 247  : 		{	// construct from moved values

  00000	55		 push	 ebp
  00001	8b ec		 mov	 ebp, esp
  00003	8b c1		 mov	 eax, ecx
  00005	8b 4d 08	 mov	 ecx, DWORD PTR __Val1$[ebp]
  00008	8b 09		 mov	 ecx, DWORD PTR [ecx]
  0000a	89 08		 mov	 DWORD PTR [eax], ecx
  0000c	8b 4d 0c	 mov	 ecx, DWORD PTR __Val2$[ebp]
  0000f	8a 09		 mov	 cl, BYTE PTR [ecx]
  00011	88 48 04	 mov	 BYTE PTR [eax+4], cl

; 248  : 		}

  00014	5d		 pop	 ebp
  00015	c2 08 00	 ret	 8
??$?0AAV?$_Tree_iterator@V?$_Tree_val@V?$_Tmap_traits@KPAVCustomSoundData@@U?$less@K@std@@V?$allocator@U?$pair@$$CBKPAVCustomSoundData@@@std@@@3@$0A@@std@@@std@@@std@@_N@?$pair@V?$_Tree_iterator@V?$_Tree_val@V?$_Tmap_traits@KPAVCustomSoundData@@U?$less@K@std@@V?$allocator@U?$pair@$$CBKPAVCustomSoundData@@@std@@@3@$0A@@std@@@std@@@std@@_N@std@@QAE@AAV?$_Tree_iterator@V?$_Tree_val@V?$_Tmap_traits@KPAVCustomSoundData@@U?$less@K@std@@V?$allocator@U?$pair@$$CBKPAVCustomSoundData@@@std@@@3@$0A@@std@@@std@@@1@$$QA_N@Z ENDP ; std::pair<std::_Tree_iterator<std::_Tree_val<std::_Tmap_traits<unsigned long,CustomSoundData *,std::less<unsigned long>,std::allocator<std::pair<unsigned long const ,CustomSoundData *> >,0> > >,bool>::pair<std::_Tree_iterator<std::_Tree_val<std::_Tmap_traits<unsigned long,CustomSoundData *,std::less<unsigned long>,std::allocator<std::pair<unsigned long const ,CustomSoundData *> >,0> > >,bool><std::_Tree_iterator<std::_Tree_val<std::_Tmap_traits<unsigned long,CustomSoundData *,std::less<unsigned long>,std::allocator<std::pair<unsigned long const ,CustomSoundData *> >,0> > > &,bool>
_TEXT	ENDS
PUBLIC	?_Buynode@?$_Tree_val@V?$_Tmap_traits@KPAVCustomSoundData@@U?$less@K@std@@V?$allocator@U?$pair@$$CBKPAVCustomSoundData@@@std@@@3@$0A@@std@@@std@@QAEPAU_Node@?$_Tree_nod@V?$_Tmap_traits@KPAVCustomSoundData@@U?$less@K@std@@V?$allocator@U?$pair@$$CBKPAVCustomSoundData@@@std@@@3@$0A@@std@@@2@XZ ; std::_Tree_val<std::_Tmap_traits<unsigned long,CustomSoundData *,std::less<unsigned long>,std::allocator<std::pair<unsigned long const ,CustomSoundData *> >,0> >::_Buynode
; Function compile flags: /Ogsp
; File c:\program files (x86)\microsoft visual studio 10.0\vc\include\xtree
;	COMDAT ?_Buynode@?$_Tree_val@V?$_Tmap_traits@KPAVCustomSoundData@@U?$less@K@std@@V?$allocator@U?$pair@$$CBKPAVCustomSoundData@@@std@@@3@$0A@@std@@@std@@QAEPAU_Node@?$_Tree_nod@V?$_Tmap_traits@KPAVCustomSoundData@@U?$less@K@std@@V?$allocator@U?$pair@$$CBKPAVCustomSoundData@@@std@@@3@$0A@@std@@@2@XZ
_TEXT	SEGMENT
$T513515 = -16						; size = 12
$T513499 = -4						; size = 4
?_Buynode@?$_Tree_val@V?$_Tmap_traits@KPAVCustomSoundData@@U?$less@K@std@@V?$allocator@U?$pair@$$CBKPAVCustomSoundData@@@std@@@3@$0A@@std@@@std@@QAEPAU_Node@?$_Tree_nod@V?$_Tmap_traits@KPAVCustomSoundData@@U?$less@K@std@@V?$allocator@U?$pair@$$CBKPAVCustomSoundData@@@std@@@3@$0A@@std@@@2@XZ PROC ; std::_Tree_val<std::_Tmap_traits<unsigned long,CustomSoundData *,std::less<unsigned long>,std::allocator<std::pair<unsigned long const ,CustomSoundData *> >,0> >::_Buynode, COMDAT
; _this$ = ecx

; 559  : 		{	// allocate a node

  00000	55		 push	 ebp
  00001	8b ec		 mov	 ebp, esp
  00003	83 ec 10	 sub	 esp, 16			; 00000010H
  00006	56		 push	 esi

; 560  : 		_Nodeptr _Wherenode = this->_Alnod.allocate(1);

  00007	6a 18		 push	 24			; 00000018H
  00009	8b f1		 mov	 esi, ecx
  0000b	e8 00 00 00 00	 call	 ??2@YAPAXI@Z		; operator new
  00010	59		 pop	 ecx
  00011	33 c9		 xor	 ecx, ecx
  00013	3b c1		 cmp	 eax, ecx
  00015	74 18		 je	 SHORT $LN5@Buynode

; 561  : 
; 562  : 		this->_Left(_Wherenode) = this->_Myhead;

  00017	8b 56 04	 mov	 edx, DWORD PTR [esi+4]
  0001a	89 10		 mov	 DWORD PTR [eax], edx

; 563  : 		this->_Parent(_Wherenode) = this->_Myhead;

  0001c	8b 56 04	 mov	 edx, DWORD PTR [esi+4]
  0001f	89 50 04	 mov	 DWORD PTR [eax+4], edx

; 564  : 		this->_Right(_Wherenode) = this->_Myhead;

  00022	8b 56 04	 mov	 edx, DWORD PTR [esi+4]
  00025	89 50 08	 mov	 DWORD PTR [eax+8], edx

; 565  : 		this->_Color(_Wherenode) = this->_Red;

  00028	66 89 48 14	 mov	 WORD PTR [eax+20], cx
  0002c	5e		 pop	 esi

; 566  : 		this->_Isnil(_Wherenode) = false;
; 567  : 		return (_Wherenode);
; 568  : 		}

  0002d	c9		 leave
  0002e	c3		 ret	 0

; 560  : 		_Nodeptr _Wherenode = this->_Alnod.allocate(1);

$LN5@Buynode:
  0002f	8d 45 fc	 lea	 eax, DWORD PTR $T513499[ebp]
  00032	89 4d fc	 mov	 DWORD PTR $T513499[ebp], ecx
  00035	50		 push	 eax
  00036	8d 4d f0	 lea	 ecx, DWORD PTR $T513515[ebp]
  00039	ff 15 00 00 00
	00		 call	 DWORD PTR __imp_??0exception@std@@QAE@ABQBD@Z
  0003f	68 00 00 00 00	 push	 OFFSET __TI2?AVbad_alloc@std@@
  00044	8d 45 f0	 lea	 eax, DWORD PTR $T513515[ebp]
  00047	50		 push	 eax
  00048	c7 45 f0 00 00
	00 00		 mov	 DWORD PTR $T513515[ebp], OFFSET ??_7bad_alloc@std@@6B@
  0004f	e8 00 00 00 00	 call	 __CxxThrowException@8
$LN27@Buynode:
$LN26@Buynode:
  00054	cc		 int	 3
?_Buynode@?$_Tree_val@V?$_Tmap_traits@KPAVCustomSoundData@@U?$less@K@std@@V?$allocator@U?$pair@$$CBKPAVCustomSoundData@@@std@@@3@$0A@@std@@@std@@QAEPAU_Node@?$_Tree_nod@V?$_Tmap_traits@KPAVCustomSoundData@@U?$less@K@std@@V?$allocator@U?$pair@$$CBKPAVCustomSoundData@@@std@@@3@$0A@@std@@@2@XZ ENDP ; std::_Tree_val<std::_Tmap_traits<unsigned long,CustomSoundData *,std::less<unsigned long>,std::allocator<std::pair<unsigned long const ,CustomSoundData *> >,0> >::_Buynode
_TEXT	ENDS
PUBLIC	??$_Dest_val@V?$allocator@UtagNetworkInfo@CustomSoundData@@@std@@UtagNetworkInfo@CustomSoundData@@@std@@YAXAAV?$allocator@UtagNetworkInfo@CustomSoundData@@@0@PAUtagNetworkInfo@CustomSoundData@@@Z ; std::_Dest_val<std::allocator<CustomSoundData::tagNetworkInfo>,CustomSoundData::tagNetworkInfo>
; Function compile flags: /Ogsp
; File c:\program files (x86)\microsoft visual studio 10.0\vc\include\xmemory
;	COMDAT ??$_Dest_val@V?$allocator@UtagNetworkInfo@CustomSoundData@@@std@@UtagNetworkInfo@CustomSoundData@@@std@@YAXAAV?$allocator@UtagNetworkInfo@CustomSoundData@@@0@PAUtagNetworkInfo@CustomSoundData@@@Z
_TEXT	SEGMENT
__Alval$ = 8						; size = 4
__Pdest$ = 12						; size = 4
??$_Dest_val@V?$allocator@UtagNetworkInfo@CustomSoundData@@@std@@UtagNetworkInfo@CustomSoundData@@@std@@YAXAAV?$allocator@UtagNetworkInfo@CustomSoundData@@@0@PAUtagNetworkInfo@CustomSoundData@@@Z PROC ; std::_Dest_val<std::allocator<CustomSoundData::tagNetworkInfo>,CustomSoundData::tagNetworkInfo>, COMDAT

; 287  : 	_Alval.destroy(_Pdest);
; 288  : 	}

  00000	c3		 ret	 0
??$_Dest_val@V?$allocator@UtagNetworkInfo@CustomSoundData@@@std@@UtagNetworkInfo@CustomSoundData@@@std@@YAXAAV?$allocator@UtagNetworkInfo@CustomSoundData@@@0@PAUtagNetworkInfo@CustomSoundData@@@Z ENDP ; std::_Dest_val<std::allocator<CustomSoundData::tagNetworkInfo>,CustomSoundData::tagNetworkInfo>
_TEXT	ENDS
PUBLIC	??$_Cons_val@V?$allocator@UtagNetworkInfo@CustomSoundData@@@std@@UtagNetworkInfo@CustomSoundData@@U34@@std@@YAXAAV?$allocator@UtagNetworkInfo@CustomSoundData@@@0@PAUtagNetworkInfo@CustomSoundData@@$$QAU23@@Z ; std::_Cons_val<std::allocator<CustomSoundData::tagNetworkInfo>,CustomSoundData::tagNetworkInfo,CustomSoundData::tagNetworkInfo>
; Function compile flags: /Ogsp
;	COMDAT ??$_Cons_val@V?$allocator@UtagNetworkInfo@CustomSoundData@@@std@@UtagNetworkInfo@CustomSoundData@@U34@@std@@YAXAAV?$allocator@UtagNetworkInfo@CustomSoundData@@@0@PAUtagNetworkInfo@CustomSoundData@@$$QAU23@@Z
_TEXT	SEGMENT
__Alval$ = 8						; size = 4
__Pdest$ = 12						; size = 4
__Src$ = 16						; size = 4
??$_Cons_val@V?$allocator@UtagNetworkInfo@CustomSoundData@@@std@@UtagNetworkInfo@CustomSoundData@@U34@@std@@YAXAAV?$allocator@UtagNetworkInfo@CustomSoundData@@@0@PAUtagNetworkInfo@CustomSoundData@@$$QAU23@@Z PROC ; std::_Cons_val<std::allocator<CustomSoundData::tagNetworkInfo>,CustomSoundData::tagNetworkInfo,CustomSoundData::tagNetworkInfo>, COMDAT

; 279  : 	{	// construct using allocator

  00000	55		 push	 ebp
  00001	8b ec		 mov	 ebp, esp

; 280  : 	_Alval.construct(_Pdest, _STD forward<_Ty2>(_Src));

  00003	8b 45 0c	 mov	 eax, DWORD PTR __Pdest$[ebp]
  00006	85 c0		 test	 eax, eax
  00008	74 0d		 je	 SHORT $LN7@Cons_val@5
  0000a	8b 4d 10	 mov	 ecx, DWORD PTR __Src$[ebp]
  0000d	8b 11		 mov	 edx, DWORD PTR [ecx]
  0000f	89 10		 mov	 DWORD PTR [eax], edx
  00011	8b 49 04	 mov	 ecx, DWORD PTR [ecx+4]
  00014	89 48 04	 mov	 DWORD PTR [eax+4], ecx
$LN7@Cons_val@5:

; 281  : 	}

  00017	5d		 pop	 ebp
  00018	c3		 ret	 0
??$_Cons_val@V?$allocator@UtagNetworkInfo@CustomSoundData@@@std@@UtagNetworkInfo@CustomSoundData@@U34@@std@@YAXAAV?$allocator@UtagNetworkInfo@CustomSoundData@@@0@PAUtagNetworkInfo@CustomSoundData@@$$QAU23@@Z ENDP ; std::_Cons_val<std::allocator<CustomSoundData::tagNetworkInfo>,CustomSoundData::tagNetworkInfo,CustomSoundData::tagNetworkInfo>
_TEXT	ENDS
PUBLIC	??$?0$$CBKPAVCustomSoundData@@@?$pair@$$CBKPAVCustomSoundData@@@std@@QAE@$$QAU01@@Z ; std::pair<unsigned long const ,CustomSoundData *>::pair<unsigned long const ,CustomSoundData *><unsigned long const ,CustomSoundData *>
; Function compile flags: /Ogsp
; File c:\program files (x86)\microsoft visual studio 10.0\vc\include\utility
;	COMDAT ??$?0$$CBKPAVCustomSoundData@@@?$pair@$$CBKPAVCustomSoundData@@@std@@QAE@$$QAU01@@Z
_TEXT	SEGMENT
__Right$ = 8						; size = 4
??$?0$$CBKPAVCustomSoundData@@@?$pair@$$CBKPAVCustomSoundData@@@std@@QAE@$$QAU01@@Z PROC ; std::pair<unsigned long const ,CustomSoundData *>::pair<unsigned long const ,CustomSoundData *><unsigned long const ,CustomSoundData *>, COMDAT
; _this$ = ecx

; 255  : 		{	// construct from moved compatible pair

  00000	55		 push	 ebp
  00001	8b ec		 mov	 ebp, esp
  00003	8b c1		 mov	 eax, ecx
  00005	8b 4d 08	 mov	 ecx, DWORD PTR __Right$[ebp]
  00008	8b 11		 mov	 edx, DWORD PTR [ecx]
  0000a	89 10		 mov	 DWORD PTR [eax], edx
  0000c	8b 49 04	 mov	 ecx, DWORD PTR [ecx+4]
  0000f	89 48 04	 mov	 DWORD PTR [eax+4], ecx

; 256  : 		}

  00012	5d		 pop	 ebp
  00013	c2 04 00	 ret	 4
??$?0$$CBKPAVCustomSoundData@@@?$pair@$$CBKPAVCustomSoundData@@@std@@QAE@$$QAU01@@Z ENDP ; std::pair<unsigned long const ,CustomSoundData *>::pair<unsigned long const ,CustomSoundData *><unsigned long const ,CustomSoundData *>
_TEXT	ENDS
PUBLIC	??0?$vector@VioHashString@@V?$allocator@VioHashString@@@std@@@std@@QAE@XZ ; std::vector<ioHashString,std::allocator<ioHashString> >::vector<ioHashString,std::allocator<ioHashString> >
; Function compile flags: /Ogsp
; File c:\program files (x86)\microsoft visual studio 10.0\vc\include\vector
;	COMDAT ??0?$vector@VioHashString@@V?$allocator@VioHashString@@@std@@@std@@QAE@XZ
_TEXT	SEGMENT
??0?$vector@VioHashString@@V?$allocator@VioHashString@@@std@@@std@@QAE@XZ PROC ; std::vector<ioHashString,std::allocator<ioHashString> >::vector<ioHashString,std::allocator<ioHashString> >, COMDAT
; _this$ = ecx

; 507  : 		{	// construct empty vector

  00000	8b c1		 mov	 eax, ecx
  00002	33 c9		 xor	 ecx, ecx
  00004	89 08		 mov	 DWORD PTR [eax], ecx
  00006	89 48 04	 mov	 DWORD PTR [eax+4], ecx
  00009	89 48 08	 mov	 DWORD PTR [eax+8], ecx

; 508  : 		}

  0000c	c3		 ret	 0
??0?$vector@VioHashString@@V?$allocator@VioHashString@@@std@@@std@@QAE@XZ ENDP ; std::vector<ioHashString,std::allocator<ioHashString> >::vector<ioHashString,std::allocator<ioHashString> >
_TEXT	ENDS
PUBLIC	??0?$_Tree_val@V?$_Tmap_traits@KPAVCustomSoundData@@U?$less@K@std@@V?$allocator@U?$pair@$$CBKPAVCustomSoundData@@@std@@@3@$0A@@std@@@std@@QAE@ABU?$less@K@1@V?$allocator@U?$pair@$$CBKPAVCustomSoundData@@@std@@@1@@Z ; std::_Tree_val<std::_Tmap_traits<unsigned long,CustomSoundData *,std::less<unsigned long>,std::allocator<std::pair<unsigned long const ,CustomSoundData *> >,0> >::_Tree_val<std::_Tmap_traits<unsigned long,CustomSoundData *,std::less<unsigned long>,std::allocator<std::pair<unsigned long const ,CustomSoundData *> >,0> >
; Function compile flags: /Ogsp
; File c:\program files (x86)\microsoft visual studio 10.0\vc\include\xtree
;	COMDAT ??0?$_Tree_val@V?$_Tmap_traits@KPAVCustomSoundData@@U?$less@K@std@@V?$allocator@U?$pair@$$CBKPAVCustomSoundData@@@std@@@3@$0A@@std@@@std@@QAE@ABU?$less@K@1@V?$allocator@U?$pair@$$CBKPAVCustomSoundData@@@std@@@1@@Z
_TEXT	SEGMENT
$T513667 = -16						; size = 12
$T513651 = -4						; size = 4
__Parg$ = 8						; size = 4
__Al$ = 12						; size = 1
??0?$_Tree_val@V?$_Tmap_traits@KPAVCustomSoundData@@U?$less@K@std@@V?$allocator@U?$pair@$$CBKPAVCustomSoundData@@@std@@@3@$0A@@std@@@std@@QAE@ABU?$less@K@1@V?$allocator@U?$pair@$$CBKPAVCustomSoundData@@@std@@@1@@Z PROC ; std::_Tree_val<std::_Tmap_traits<unsigned long,CustomSoundData *,std::less<unsigned long>,std::allocator<std::pair<unsigned long const ,CustomSoundData *> >,0> >::_Tree_val<std::_Tmap_traits<unsigned long,CustomSoundData *,std::less<unsigned long>,std::allocator<std::pair<unsigned long const ,CustomSoundData *> >,0> >, COMDAT
; _this$ = ecx

; 542  : 		{	// construct base, and allocator from _Al

  00000	55		 push	 ebp
  00001	8b ec		 mov	 ebp, esp
  00003	83 ec 10	 sub	 esp, 16			; 00000010H
  00006	56		 push	 esi
  00007	8b f1		 mov	 esi, ecx

; 543  : 		this->_Mysize = 0;

  00009	83 66 08 00	 and	 DWORD PTR [esi+8], 0

; 544  : 		this->_Myhead = this->_Alnod.allocate(1);

  0000d	6a 18		 push	 24			; 00000018H
  0000f	e8 00 00 00 00	 call	 ??2@YAPAXI@Z		; operator new
  00014	59		 pop	 ecx
  00015	85 c0		 test	 eax, eax
  00017	74 26		 je	 SHORT $LN15@Tree_val
  00019	89 46 04	 mov	 DWORD PTR [esi+4], eax

; 545  : 
; 546  : 		this->_Left(this->_Myhead) = this->_Myhead;

  0001c	89 00		 mov	 DWORD PTR [eax], eax

; 547  : 		this->_Parent(this->_Myhead) = this->_Myhead;

  0001e	8b 46 04	 mov	 eax, DWORD PTR [esi+4]
  00021	89 40 04	 mov	 DWORD PTR [eax+4], eax

; 548  : 		this->_Right(this->_Myhead) = this->_Myhead;

  00024	8b 46 04	 mov	 eax, DWORD PTR [esi+4]
  00027	89 40 08	 mov	 DWORD PTR [eax+8], eax

; 549  : 		this->_Color(this->_Myhead) = this->_Black;

  0002a	8b 46 04	 mov	 eax, DWORD PTR [esi+4]
  0002d	c6 40 14 01	 mov	 BYTE PTR [eax+20], 1

; 550  : 		this->_Isnil(this->_Myhead) = true;

  00031	8b 46 04	 mov	 eax, DWORD PTR [esi+4]
  00034	c6 40 15 01	 mov	 BYTE PTR [eax+21], 1

; 551  : 		}

  00038	8b c6		 mov	 eax, esi
  0003a	5e		 pop	 esi
  0003b	c9		 leave
  0003c	c2 08 00	 ret	 8

; 544  : 		this->_Myhead = this->_Alnod.allocate(1);

$LN15@Tree_val:
  0003f	83 65 fc 00	 and	 DWORD PTR $T513651[ebp], 0
  00043	8d 45 fc	 lea	 eax, DWORD PTR $T513651[ebp]
  00046	50		 push	 eax
  00047	8d 4d f0	 lea	 ecx, DWORD PTR $T513667[ebp]
  0004a	ff 15 00 00 00
	00		 call	 DWORD PTR __imp_??0exception@std@@QAE@ABQBD@Z
  00050	68 00 00 00 00	 push	 OFFSET __TI2?AVbad_alloc@std@@
  00055	8d 45 f0	 lea	 eax, DWORD PTR $T513667[ebp]
  00058	50		 push	 eax
  00059	c7 45 f0 00 00
	00 00		 mov	 DWORD PTR $T513667[ebp], OFFSET ??_7bad_alloc@std@@6B@
  00060	e8 00 00 00 00	 call	 __CxxThrowException@8
$LN37@Tree_val:
$LN36@Tree_val:
  00065	cc		 int	 3
??0?$_Tree_val@V?$_Tmap_traits@KPAVCustomSoundData@@U?$less@K@std@@V?$allocator@U?$pair@$$CBKPAVCustomSoundData@@@std@@@3@$0A@@std@@@std@@QAE@ABU?$less@K@1@V?$allocator@U?$pair@$$CBKPAVCustomSoundData@@@std@@@1@@Z ENDP ; std::_Tree_val<std::_Tmap_traits<unsigned long,CustomSoundData *,std::less<unsigned long>,std::allocator<std::pair<unsigned long const ,CustomSoundData *> >,0> >::_Tree_val<std::_Tmap_traits<unsigned long,CustomSoundData *,std::less<unsigned long>,std::allocator<std::pair<unsigned long const ,CustomSoundData *> >,0> >
_TEXT	ENDS
PUBLIC	??9?$_Vector_const_iterator@V?$_Vector_val@VioHashString@@V?$allocator@VioHashString@@@std@@@std@@@std@@QBE_NABV01@@Z ; std::_Vector_const_iterator<std::_Vector_val<ioHashString,std::allocator<ioHashString> > >::operator!=
; Function compile flags: /Ogsp
; File c:\program files (x86)\microsoft visual studio 10.0\vc\include\vector
;	COMDAT ??9?$_Vector_const_iterator@V?$_Vector_val@VioHashString@@V?$allocator@VioHashString@@@std@@@std@@@std@@QBE_NABV01@@Z
_TEXT	SEGMENT
__Right$ = 8						; size = 4
??9?$_Vector_const_iterator@V?$_Vector_val@VioHashString@@V?$allocator@VioHashString@@@std@@@std@@@std@@QBE_NABV01@@Z PROC ; std::_Vector_const_iterator<std::_Vector_val<ioHashString,std::allocator<ioHashString> > >::operator!=, COMDAT
; _this$ = ecx

; 207  : 		{	// test for iterator inequality

  00000	55		 push	 ebp
  00001	8b ec		 mov	 ebp, esp

; 208  : 		return (!(*this == _Right));

  00003	8b 01		 mov	 eax, DWORD PTR [ecx]
  00005	8b 55 08	 mov	 edx, DWORD PTR __Right$[ebp]
  00008	33 c9		 xor	 ecx, ecx
  0000a	3b 02		 cmp	 eax, DWORD PTR [edx]
  0000c	0f 95 c0	 setne	 al

; 209  : 		}

  0000f	5d		 pop	 ebp
  00010	c2 04 00	 ret	 4
??9?$_Vector_const_iterator@V?$_Vector_val@VioHashString@@V?$allocator@VioHashString@@@std@@@std@@@std@@QBE_NABV01@@Z ENDP ; std::_Vector_const_iterator<std::_Vector_val<ioHashString,std::allocator<ioHashString> > >::operator!=
_TEXT	ENDS
PUBLIC	??0?$_Tree_iterator@V?$_Tree_val@V?$_Tmap_traits@KPAVCustomSoundData@@U?$less@K@std@@V?$allocator@U?$pair@$$CBKPAVCustomSoundData@@@std@@@3@$0A@@std@@@std@@@std@@QAE@PAU_Node@?$_Tree_nod@V?$_Tmap_traits@KPAVCustomSoundData@@U?$less@K@std@@V?$allocator@U?$pair@$$CBKPAVCustomSoundData@@@std@@@3@$0A@@std@@@1@PBV?$_Tree_val@V?$_Tmap_traits@KPAVCustomSoundData@@U?$less@K@std@@V?$allocator@U?$pair@$$CBKPAVCustomSoundData@@@std@@@3@$0A@@std@@@1@@Z ; std::_Tree_iterator<std::_Tree_val<std::_Tmap_traits<unsigned long,CustomSoundData *,std::less<unsigned long>,std::allocator<std::pair<unsigned long const ,CustomSoundData *> >,0> > >::_Tree_iterator<std::_Tree_val<std::_Tmap_traits<unsigned long,CustomSoundData *,std::less<unsigned long>,std::allocator<std::pair<unsigned long const ,CustomSoundData *> >,0> > >
; Function compile flags: /Ogsp
; File c:\program files (x86)\microsoft visual studio 10.0\vc\include\xtree
;	COMDAT ??0?$_Tree_iterator@V?$_Tree_val@V?$_Tmap_traits@KPAVCustomSoundData@@U?$less@K@std@@V?$allocator@U?$pair@$$CBKPAVCustomSoundData@@@std@@@3@$0A@@std@@@std@@@std@@QAE@PAU_Node@?$_Tree_nod@V?$_Tmap_traits@KPAVCustomSoundData@@U?$less@K@std@@V?$allocator@U?$pair@$$CBKPAVCustomSoundData@@@std@@@3@$0A@@std@@@1@PBV?$_Tree_val@V?$_Tmap_traits@KPAVCustomSoundData@@U?$less@K@std@@V?$allocator@U?$pair@$$CBKPAVCustomSoundData@@@std@@@3@$0A@@std@@@1@@Z
_TEXT	SEGMENT
__Pnode$ = 8						; size = 4
__Plist$ = 12						; size = 4
??0?$_Tree_iterator@V?$_Tree_val@V?$_Tmap_traits@KPAVCustomSoundData@@U?$less@K@std@@V?$allocator@U?$pair@$$CBKPAVCustomSoundData@@@std@@@3@$0A@@std@@@std@@@std@@QAE@PAU_Node@?$_Tree_nod@V?$_Tmap_traits@KPAVCustomSoundData@@U?$less@K@std@@V?$allocator@U?$pair@$$CBKPAVCustomSoundData@@@std@@@3@$0A@@std@@@1@PBV?$_Tree_val@V?$_Tmap_traits@KPAVCustomSoundData@@U?$less@K@std@@V?$allocator@U?$pair@$$CBKPAVCustomSoundData@@@std@@@3@$0A@@std@@@1@@Z PROC ; std::_Tree_iterator<std::_Tree_val<std::_Tmap_traits<unsigned long,CustomSoundData *,std::less<unsigned long>,std::allocator<std::pair<unsigned long const ,CustomSoundData *> >,0> > >::_Tree_iterator<std::_Tree_val<std::_Tmap_traits<unsigned long,CustomSoundData *,std::less<unsigned long>,std::allocator<std::pair<unsigned long const ,CustomSoundData *> >,0> > >, COMDAT
; _this$ = ecx

; 378  : 		{	// construct with node pointer _Pnode

  00000	55		 push	 ebp
  00001	8b ec		 mov	 ebp, esp
  00003	8b c1		 mov	 eax, ecx
  00005	8b 4d 08	 mov	 ecx, DWORD PTR __Pnode$[ebp]
  00008	89 08		 mov	 DWORD PTR [eax], ecx

; 379  : 		}

  0000a	5d		 pop	 ebp
  0000b	c2 08 00	 ret	 8
??0?$_Tree_iterator@V?$_Tree_val@V?$_Tmap_traits@KPAVCustomSoundData@@U?$less@K@std@@V?$allocator@U?$pair@$$CBKPAVCustomSoundData@@@std@@@3@$0A@@std@@@std@@@std@@QAE@PAU_Node@?$_Tree_nod@V?$_Tmap_traits@KPAVCustomSoundData@@U?$less@K@std@@V?$allocator@U?$pair@$$CBKPAVCustomSoundData@@@std@@@3@$0A@@std@@@1@PBV?$_Tree_val@V?$_Tmap_traits@KPAVCustomSoundData@@U?$less@K@std@@V?$allocator@U?$pair@$$CBKPAVCustomSoundData@@@std@@@3@$0A@@std@@@1@@Z ENDP ; std::_Tree_iterator<std::_Tree_val<std::_Tmap_traits<unsigned long,CustomSoundData *,std::less<unsigned long>,std::allocator<std::pair<unsigned long const ,CustomSoundData *> >,0> > >::_Tree_iterator<std::_Tree_val<std::_Tmap_traits<unsigned long,CustomSoundData *,std::less<unsigned long>,std::allocator<std::pair<unsigned long const ,CustomSoundData *> >,0> > >
_TEXT	ENDS
PUBLIC	??E?$_Tree_const_iterator@V?$_Tree_val@V?$_Tmap_traits@KPAVCustomSoundData@@U?$less@K@std@@V?$allocator@U?$pair@$$CBKPAVCustomSoundData@@@std@@@3@$0A@@std@@@std@@@std@@QAE?AV01@H@Z ; std::_Tree_const_iterator<std::_Tree_val<std::_Tmap_traits<unsigned long,CustomSoundData *,std::less<unsigned long>,std::allocator<std::pair<unsigned long const ,CustomSoundData *> >,0> > >::operator++
; Function compile flags: /Ogsp
;	COMDAT ??E?$_Tree_const_iterator@V?$_Tree_val@V?$_Tmap_traits@KPAVCustomSoundData@@U?$less@K@std@@V?$allocator@U?$pair@$$CBKPAVCustomSoundData@@@std@@@3@$0A@@std@@@std@@@std@@QAE?AV01@H@Z
_TEXT	SEGMENT
___$ReturnUdt$ = 8					; size = 4
___formal$ = 12						; size = 4
??E?$_Tree_const_iterator@V?$_Tree_val@V?$_Tmap_traits@KPAVCustomSoundData@@U?$less@K@std@@V?$allocator@U?$pair@$$CBKPAVCustomSoundData@@@std@@@3@$0A@@std@@@std@@@std@@QAE?AV01@H@Z PROC ; std::_Tree_const_iterator<std::_Tree_val<std::_Tmap_traits<unsigned long,CustomSoundData *,std::less<unsigned long>,std::allocator<std::pair<unsigned long const ,CustomSoundData *> >,0> > >::operator++, COMDAT
; _this$ = ecx

; 270  : 		{	// postincrement

  00000	55		 push	 ebp
  00001	8b ec		 mov	 ebp, esp

; 271  : 		_Myiter _Tmp = *this;

  00003	8b 01		 mov	 eax, DWORD PTR [ecx]
  00005	56		 push	 esi
  00006	8b 75 08	 mov	 esi, DWORD PTR ___$ReturnUdt$[ebp]
  00009	89 06		 mov	 DWORD PTR [esi], eax

; 272  : 		++*this;

  0000b	e8 00 00 00 00	 call	 ??E?$_Tree_unchecked_const_iterator@V?$_Tree_val@V?$_Tmap_traits@KPAVCustomSoundData@@U?$less@K@std@@V?$allocator@U?$pair@$$CBKPAVCustomSoundData@@@std@@@3@$0A@@std@@@std@@U_Iterator_base0@2@@std@@QAEAAV01@XZ ; std::_Tree_unchecked_const_iterator<std::_Tree_val<std::_Tmap_traits<unsigned long,CustomSoundData *,std::less<unsigned long>,std::allocator<std::pair<unsigned long const ,CustomSoundData *> >,0> >,std::_Iterator_base0>::operator++

; 273  : 		return (_Tmp);

  00010	8b c6		 mov	 eax, esi
  00012	5e		 pop	 esi

; 274  : 		}

  00013	5d		 pop	 ebp
  00014	c2 08 00	 ret	 8
??E?$_Tree_const_iterator@V?$_Tree_val@V?$_Tmap_traits@KPAVCustomSoundData@@U?$less@K@std@@V?$allocator@U?$pair@$$CBKPAVCustomSoundData@@@std@@@3@$0A@@std@@@std@@@std@@QAE?AV01@H@Z ENDP ; std::_Tree_const_iterator<std::_Tree_val<std::_Tmap_traits<unsigned long,CustomSoundData *,std::less<unsigned long>,std::allocator<std::pair<unsigned long const ,CustomSoundData *> >,0> > >::operator++
_TEXT	ENDS
PUBLIC	??$_Move@PAVioHashString@@PAV1@@std@@YAPAVioHashString@@PAV1@00@Z ; std::_Move<ioHashString *,ioHashString *>
; Function compile flags: /Ogsp
; File c:\program files (x86)\microsoft visual studio 10.0\vc\include\xutility
;	COMDAT ??$_Move@PAVioHashString@@PAV1@@std@@YAPAVioHashString@@PAV1@00@Z
_TEXT	SEGMENT
__Cat$513735 = -4					; size = 1
__First$ = 8						; size = 4
__Last$ = 12						; size = 4
__Dest$ = 16						; size = 4
??$_Move@PAVioHashString@@PAV1@@std@@YAPAVioHashString@@PAV1@00@Z PROC ; std::_Move<ioHashString *,ioHashString *>, COMDAT

; 2533 : 	{	// move [_First, _Last) to [_Dest, ...), unchecked

  00000	55		 push	 ebp
  00001	8b ec		 mov	 ebp, esp
  00003	51		 push	 ecx

; 2534 : 	return (_Move(_First, _Last,
; 2535 : 		_Dest, _Ptr_cat(_First, _Dest)));

  00004	ff 75 fc	 push	 DWORD PTR __Cat$513735[ebp]
  00007	ff 75 10	 push	 DWORD PTR __Dest$[ebp]
  0000a	ff 75 0c	 push	 DWORD PTR __Last$[ebp]
  0000d	ff 75 08	 push	 DWORD PTR __First$[ebp]
  00010	e8 00 00 00 00	 call	 ??$_Move@PAVioHashString@@PAV1@@std@@YAPAVioHashString@@PAV1@00U_Nonscalar_ptr_iterator_tag@0@@Z ; std::_Move<ioHashString *,ioHashString *>
  00015	83 c4 10	 add	 esp, 16			; 00000010H

; 2536 : 	}

  00018	c9		 leave
  00019	c3		 ret	 0
??$_Move@PAVioHashString@@PAV1@@std@@YAPAVioHashString@@PAV1@00@Z ENDP ; std::_Move<ioHashString *,ioHashString *>
_TEXT	ENDS
PUBLIC	??$_Dest_val@V?$allocator@U?$pair@$$CBKPAVCustomSoundData@@@std@@@std@@U?$pair@$$CBKPAVCustomSoundData@@@2@@std@@YAXAAV?$allocator@U?$pair@$$CBKPAVCustomSoundData@@@std@@@0@PAU?$pair@$$CBKPAVCustomSoundData@@@0@@Z ; std::_Dest_val<std::allocator<std::pair<unsigned long const ,CustomSoundData *> >,std::pair<unsigned long const ,CustomSoundData *> >
; Function compile flags: /Ogsp
; File c:\program files (x86)\microsoft visual studio 10.0\vc\include\xmemory
;	COMDAT ??$_Dest_val@V?$allocator@U?$pair@$$CBKPAVCustomSoundData@@@std@@@std@@U?$pair@$$CBKPAVCustomSoundData@@@2@@std@@YAXAAV?$allocator@U?$pair@$$CBKPAVCustomSoundData@@@std@@@0@PAU?$pair@$$CBKPAVCustomSoundData@@@0@@Z
_TEXT	SEGMENT
__Alval$ = 8						; size = 4
__Pdest$ = 12						; size = 4
??$_Dest_val@V?$allocator@U?$pair@$$CBKPAVCustomSoundData@@@std@@@std@@U?$pair@$$CBKPAVCustomSoundData@@@2@@std@@YAXAAV?$allocator@U?$pair@$$CBKPAVCustomSoundData@@@std@@@0@PAU?$pair@$$CBKPAVCustomSoundData@@@0@@Z PROC ; std::_Dest_val<std::allocator<std::pair<unsigned long const ,CustomSoundData *> >,std::pair<unsigned long const ,CustomSoundData *> >, COMDAT

; 287  : 	_Alval.destroy(_Pdest);
; 288  : 	}

  00000	c3		 ret	 0
??$_Dest_val@V?$allocator@U?$pair@$$CBKPAVCustomSoundData@@@std@@@std@@U?$pair@$$CBKPAVCustomSoundData@@@2@@std@@YAXAAV?$allocator@U?$pair@$$CBKPAVCustomSoundData@@@std@@@0@PAU?$pair@$$CBKPAVCustomSoundData@@@0@@Z ENDP ; std::_Dest_val<std::allocator<std::pair<unsigned long const ,CustomSoundData *> >,std::pair<unsigned long const ,CustomSoundData *> >
_TEXT	ENDS
PUBLIC	?destroy@?$allocator@VioHashString@@@std@@QAEXPAVioHashString@@@Z ; std::allocator<ioHashString>::destroy
; Function compile flags: /Ogsp
;	COMDAT ?destroy@?$allocator@VioHashString@@@std@@QAEXPAVioHashString@@@Z
_TEXT	SEGMENT
__Ptr$ = 8						; size = 4
?destroy@?$allocator@VioHashString@@@std@@QAEXPAVioHashString@@@Z PROC ; std::allocator<ioHashString>::destroy, COMDAT
; _this$ = ecx

; 212  : 		{	// destroy object at _Ptr

  00000	55		 push	 ebp
  00001	8b ec		 mov	 ebp, esp

; 213  : 		_Destroy(_Ptr);

  00003	8b 4d 08	 mov	 ecx, DWORD PTR __Ptr$[ebp]
  00006	ff 15 00 00 00
	00		 call	 DWORD PTR __imp_??1ioHashString@@QAE@XZ

; 214  : 		}

  0000c	5d		 pop	 ebp
  0000d	c2 04 00	 ret	 4
?destroy@?$allocator@VioHashString@@@std@@QAEXPAVioHashString@@@Z ENDP ; std::allocator<ioHashString>::destroy
_TEXT	ENDS
PUBLIC	??$_Cons_val@V?$allocator@VioHashString@@@std@@VioHashString@@ABV3@@std@@YAXAAV?$allocator@VioHashString@@@0@PAVioHashString@@ABV2@@Z ; std::_Cons_val<std::allocator<ioHashString>,ioHashString,ioHashString const &>
; Function compile flags: /Ogsp
;	COMDAT ??$_Cons_val@V?$allocator@VioHashString@@@std@@VioHashString@@ABV3@@std@@YAXAAV?$allocator@VioHashString@@@0@PAVioHashString@@ABV2@@Z
_TEXT	SEGMENT
__Alval$ = 8						; size = 4
__Pdest$ = 12						; size = 4
__Src$ = 16						; size = 4
??$_Cons_val@V?$allocator@VioHashString@@@std@@VioHashString@@ABV3@@std@@YAXAAV?$allocator@VioHashString@@@0@PAVioHashString@@ABV2@@Z PROC ; std::_Cons_val<std::allocator<ioHashString>,ioHashString,ioHashString const &>, COMDAT

; 279  : 	{	// construct using allocator

  00000	55		 push	 ebp
  00001	8b ec		 mov	 ebp, esp

; 280  : 	_Alval.construct(_Pdest, _STD forward<_Ty2>(_Src));

  00003	ff 75 10	 push	 DWORD PTR __Src$[ebp]
  00006	ff 75 0c	 push	 DWORD PTR __Pdest$[ebp]
  00009	e8 00 00 00 00	 call	 ??$_Construct@VioHashString@@ABV1@@std@@YAXPAVioHashString@@ABV1@@Z ; std::_Construct<ioHashString,ioHashString const &>
  0000e	59		 pop	 ecx
  0000f	59		 pop	 ecx

; 281  : 	}

  00010	5d		 pop	 ebp
  00011	c3		 ret	 0
??$_Cons_val@V?$allocator@VioHashString@@@std@@VioHashString@@ABV3@@std@@YAXAAV?$allocator@VioHashString@@@0@PAVioHashString@@ABV2@@Z ENDP ; std::_Cons_val<std::allocator<ioHashString>,ioHashString,ioHashString const &>
_TEXT	ENDS
PUBLIC	__$ArrayPad$
PUBLIC	?SendDataToAll@CustomSoundData@@QAEXK@Z		; CustomSoundData::SendDataToAll
EXTRN	?SendToUserByIndex@P2PNetwork@@YAXKAAVSP2Packet@@@Z:PROC ; P2PNetwork::SendToUserByIndex
EXTRN	??6SP2Packet@@QAEAAV0@ABUtagCustomSoundPacket@@@Z:PROC ; SP2Packet::operator<<
;	COMDAT xdata$x
; File d:\lost saga for developer\youtube\tutorial\source\src\lsclient\iomyinfo.h
xdata$x	SEGMENT
__unwindtable$?SendDataToAll@CustomSoundData@@QAEXK@Z DD 0ffffffffH
	DD	FLAT:__unwindfunclet$?SendDataToAll@CustomSoundData@@QAEXK@Z$0
__ehfuncinfo$?SendDataToAll@CustomSoundData@@QAEXK@Z DD 019930522H
	DD	01H
	DD	FLAT:__unwindtable$?SendDataToAll@CustomSoundData@@QAEXK@Z
	DD	2 DUP(00H)
	DD	2 DUP(00H)
	DD	00H
	DD	01H
; Function compile flags: /Ogsp
; File d:\lost saga for developer\youtube\tutorial\source\src\lsclient\iocustomsoundmgr.cpp
xdata$x	ENDS
;	COMDAT ?SendDataToAll@CustomSoundData@@QAEXK@Z
_TEXT	SEGMENT
_kPacket$505331 = -33212				; size = 32792
_kData$505327 = -420					; size = 404
__$ArrayPad$ = -16					; size = 4
__$EHRec$ = -12						; size = 12
_dwIndex$ = 8						; size = 4
?SendDataToAll@CustomSoundData@@QAEXK@Z PROC		; CustomSoundData::SendDataToAll, COMDAT
; _this$ = ecx

; 101  : {

  00000	55		 push	 ebp
  00001	8b ec		 mov	 ebp, esp
  00003	6a ff		 push	 -1
  00005	68 00 00 00 00	 push	 __ehhandler$?SendDataToAll@CustomSoundData@@QAEXK@Z
  0000a	64 a1 00 00 00
	00		 mov	 eax, DWORD PTR fs:0
  00010	50		 push	 eax
  00011	b8 b0 81 00 00	 mov	 eax, 33200		; 000081b0H
  00016	e8 00 00 00 00	 call	 __chkstk
  0001b	a1 00 00 00 00	 mov	 eax, DWORD PTR ___security_cookie
  00020	33 c5		 xor	 eax, ebp
  00022	89 45 f0	 mov	 DWORD PTR __$ArrayPad$[ebp], eax
  00025	53		 push	 ebx
  00026	56		 push	 esi
  00027	57		 push	 edi
  00028	50		 push	 eax
  00029	8d 45 f4	 lea	 eax, DWORD PTR __$EHRec$[ebp]
  0002c	64 a3 00 00 00
	00		 mov	 DWORD PTR fs:0, eax
  00032	8b f9		 mov	 edi, ecx

; 102  : 	for(NetworkInfoList::iterator iter = m_vNetworkInfoList.begin(); iter != m_vNetworkInfoList.end(); ++iter)

  00034	8b 77 30	 mov	 esi, DWORD PTR [edi+48]
  00037	e9 a2 00 00 00	 jmp	 $LN46@SendDataTo
$LL19@SendDataTo:

; 103  : 	{
; 104  : 		NetworkInfo &rInfo = *iter;
; 105  : 		CustomSoundPacket kData;

  0003c	68 90 01 00 00	 push	 400			; 00000190H
  00041	8d 85 5c fe ff
	ff		 lea	 eax, DWORD PTR _kData$505327[ebp]
  00047	6a 00		 push	 0
  00049	50		 push	 eax
  0004a	e8 00 00 00 00	 call	 _memset

; 106  : 		DWORD dwDataPos = 0;
; 107  : 		dwDataPos = GetCurData( kData, rInfo.m_dwDataPos );

  0004f	8b 5e 04	 mov	 ebx, DWORD PTR [esi+4]
  00052	83 65 ec 00	 and	 DWORD PTR _kData$505327[ebp+400], 0
  00056	83 c4 0c	 add	 esp, 12			; 0000000cH
  00059	53		 push	 ebx
  0005a	8d 85 5c fe ff
	ff		 lea	 eax, DWORD PTR _kData$505327[ebp]
  00060	50		 push	 eax
  00061	8b cf		 mov	 ecx, edi
  00063	e8 00 00 00 00	 call	 ?GetCurData@CustomSoundData@@IAEKAAUtagCustomSoundPacket@@K@Z ; CustomSoundData::GetCurData

; 108  : 		if( rInfo.m_dwDataPos < dwDataPos )

  00068	3b d8		 cmp	 ebx, eax
  0006a	73 03		 jae	 SHORT $LN2@SendDataTo

; 109  : 			rInfo.m_dwDataPos = dwDataPos;

  0006c	89 46 04	 mov	 DWORD PTR [esi+4], eax
$LN2@SendDataTo:

; 110  : 		if( kData.m_dwWrittenSize == 0 )

  0006f	83 7d ec 00	 cmp	 DWORD PTR _kData$505327[ebp+400], 0
  00073	74 66		 je	 SHORT $LN4@SendDataTo

; 111  : 			continue;
; 112  : 		// send
; 113  : 		SP2Packet kPacket(CUPK_CUSTOM_SOUND_DATA);

  00075	68 72 41 00 00	 push	 16754			; 00004172H
  0007a	8d 8d 44 7e ff
	ff		 lea	 ecx, DWORD PTR _kPacket$505331[ebp]
  00080	e8 00 00 00 00	 call	 ??0SP2Packet@@QAE@K@Z	; SP2Packet::SP2Packet
  00085	83 65 fc 00	 and	 DWORD PTR __$EHRec$[ebp+8], 0

; 114  : 		kPacket << g_MyInfo.GetUserIndex();

  00089	e8 00 00 00 00	 call	 ?GetSingleton@ioMyInfo@@SAAAV1@XZ ; ioMyInfo::GetSingleton
  0008e	ff 70 08	 push	 DWORD PTR [eax+8]
  00091	8d 8d 44 7e ff
	ff		 lea	 ecx, DWORD PTR _kPacket$505331[ebp]
  00097	e8 00 00 00 00	 call	 ??6SP2Packet@@QAEAAV0@K@Z ; SP2Packet::operator<<

; 115  : 		kPacket << dwIndex;

  0009c	ff 75 08	 push	 DWORD PTR _dwIndex$[ebp]
  0009f	8d 8d 44 7e ff
	ff		 lea	 ecx, DWORD PTR _kPacket$505331[ebp]
  000a5	e8 00 00 00 00	 call	 ??6SP2Packet@@QAEAAV0@K@Z ; SP2Packet::operator<<

; 116  : 		kPacket << kData; 

  000aa	8d 85 5c fe ff
	ff		 lea	 eax, DWORD PTR _kData$505327[ebp]
  000b0	50		 push	 eax
  000b1	8d 8d 44 7e ff
	ff		 lea	 ecx, DWORD PTR _kPacket$505331[ebp]
  000b7	e8 00 00 00 00	 call	 ??6SP2Packet@@QAEAAV0@ABUtagCustomSoundPacket@@@Z ; SP2Packet::operator<<

; 117  : 		P2PNetwork::SendToUserByIndex( rInfo.m_dwUserIndex, kPacket );

  000bc	8d 85 44 7e ff
	ff		 lea	 eax, DWORD PTR _kPacket$505331[ebp]
  000c2	50		 push	 eax
  000c3	ff 36		 push	 DWORD PTR [esi]
  000c5	e8 00 00 00 00	 call	 ?SendToUserByIndex@P2PNetwork@@YAXKAAVSP2Packet@@@Z ; P2PNetwork::SendToUserByIndex

; 118  : 	}

  000ca	83 4d fc ff	 or	 DWORD PTR __$EHRec$[ebp+8], -1
  000ce	59		 pop	 ecx
  000cf	59		 pop	 ecx
  000d0	8d 8d 44 7e ff
	ff		 lea	 ecx, DWORD PTR _kPacket$505331[ebp]
  000d6	e8 00 00 00 00	 call	 ??1SP2Packet@@UAE@XZ	; SP2Packet::~SP2Packet
$LN4@SendDataTo:

; 102  : 	for(NetworkInfoList::iterator iter = m_vNetworkInfoList.begin(); iter != m_vNetworkInfoList.end(); ++iter)

  000db	83 c6 08	 add	 esi, 8
$LN46@SendDataTo:
  000de	3b 77 34	 cmp	 esi, DWORD PTR [edi+52]
  000e1	0f 85 55 ff ff
	ff		 jne	 $LL19@SendDataTo

; 119  : }

  000e7	8b 4d f4	 mov	 ecx, DWORD PTR __$EHRec$[ebp]
  000ea	64 89 0d 00 00
	00 00		 mov	 DWORD PTR fs:0, ecx
  000f1	59		 pop	 ecx
  000f2	5f		 pop	 edi
  000f3	5e		 pop	 esi
  000f4	5b		 pop	 ebx
  000f5	8b 4d f0	 mov	 ecx, DWORD PTR __$ArrayPad$[ebp]
  000f8	33 cd		 xor	 ecx, ebp
  000fa	e8 00 00 00 00	 call	 @__security_check_cookie@4
  000ff	c9		 leave
  00100	c2 04 00	 ret	 4
_TEXT	ENDS
;	COMDAT text$x
text$x	SEGMENT
__unwindfunclet$?SendDataToAll@CustomSoundData@@QAEXK@Z$0:
  00000	8d 8d 44 7e ff
	ff		 lea	 ecx, DWORD PTR _kPacket$505331[ebp]
  00006	e9 00 00 00 00	 jmp	 ??1SP2Packet@@UAE@XZ	; SP2Packet::~SP2Packet
__ehhandler$?SendDataToAll@CustomSoundData@@QAEXK@Z:
  0000b	8b 54 24 08	 mov	 edx, DWORD PTR [esp+8]
  0000f	8d 42 0c	 lea	 eax, DWORD PTR [edx+12]
  00012	8b 8a 40 7e ff
	ff		 mov	 ecx, DWORD PTR [edx-33216]
  00018	33 c8		 xor	 ecx, eax
  0001a	e8 00 00 00 00	 call	 @__security_check_cookie@4
  0001f	8b 4a fc	 mov	 ecx, DWORD PTR [edx-4]
  00022	33 c8		 xor	 ecx, eax
  00024	e8 00 00 00 00	 call	 @__security_check_cookie@4
  00029	b8 00 00 00 00	 mov	 eax, OFFSET __ehfuncinfo$?SendDataToAll@CustomSoundData@@QAEXK@Z
  0002e	e9 00 00 00 00	 jmp	 ___CxxFrameHandler3
text$x	ENDS
?SendDataToAll@CustomSoundData@@QAEXK@Z ENDP		; CustomSoundData::SendDataToAll
PUBLIC	?GetNetworkDataPos@CustomSoundData@@QAEKK@Z	; CustomSoundData::GetNetworkDataPos
; Function compile flags: /Ogsp
;	COMDAT ?GetNetworkDataPos@CustomSoundData@@QAEKK@Z
_TEXT	SEGMENT
_dwUserIndex$ = 8					; size = 4
?GetNetworkDataPos@CustomSoundData@@QAEKK@Z PROC	; CustomSoundData::GetNetworkDataPos, COMDAT
; _this$ = ecx

; 157  : {

  00000	55		 push	 ebp
  00001	8b ec		 mov	 ebp, esp

; 158  : 	for(NetworkInfoList::iterator iter = m_vNetworkInfoList.begin(); iter != m_vNetworkInfoList.end(); ++iter)

  00003	8b 41 30	 mov	 eax, DWORD PTR [ecx+48]
  00006	8b 49 34	 mov	 ecx, DWORD PTR [ecx+52]
  00009	eb 0a		 jmp	 SHORT $LN40@GetNetwork
$LL17@GetNetwork:

; 159  : 	{
; 160  : 		NetworkInfo &rInfo = *iter;
; 161  : 		if( rInfo.m_dwUserIndex == dwUserIndex )

  0000b	8b 10		 mov	 edx, DWORD PTR [eax]
  0000d	3b 55 08	 cmp	 edx, DWORD PTR _dwUserIndex$[ebp]
  00010	74 0d		 je	 SHORT $LN38@GetNetwork

; 158  : 	for(NetworkInfoList::iterator iter = m_vNetworkInfoList.begin(); iter != m_vNetworkInfoList.end(); ++iter)

  00012	83 c0 08	 add	 eax, 8
$LN40@GetNetwork:
  00015	3b c1		 cmp	 eax, ecx
  00017	75 f2		 jne	 SHORT $LL17@GetNetwork

; 163  : 	}
; 164  : 
; 165  : 	return 0;

  00019	33 c0		 xor	 eax, eax
$LN5@GetNetwork:

; 166  : }

  0001b	5d		 pop	 ebp
  0001c	c2 04 00	 ret	 4
$LN38@GetNetwork:

; 162  : 			return rInfo.m_dwDataPos;

  0001f	8b 40 04	 mov	 eax, DWORD PTR [eax+4]
  00022	eb f7		 jmp	 SHORT $LN5@GetNetwork
?GetNetworkDataPos@CustomSoundData@@QAEKK@Z ENDP	; CustomSoundData::GetNetworkDataPos
_TEXT	ENDS
PUBLIC	?SetNetworkDataPos@CustomSoundData@@QAEXKK@Z	; CustomSoundData::SetNetworkDataPos
; Function compile flags: /Ogsp
;	COMDAT ?SetNetworkDataPos@CustomSoundData@@QAEXKK@Z
_TEXT	SEGMENT
_dwUserIndex$ = 8					; size = 4
_dwDataPos$ = 12					; size = 4
?SetNetworkDataPos@CustomSoundData@@QAEXKK@Z PROC	; CustomSoundData::SetNetworkDataPos, COMDAT
; _this$ = ecx

; 169  : {

  00000	55		 push	 ebp
  00001	8b ec		 mov	 ebp, esp

; 170  : 	for(NetworkInfoList::iterator iter = m_vNetworkInfoList.begin(); iter != m_vNetworkInfoList.end(); ++iter)

  00003	8b 41 30	 mov	 eax, DWORD PTR [ecx+48]
  00006	eb 10		 jmp	 SHORT $LN39@SetNetwork
$LL17@SetNetwork:

; 171  : 	{
; 172  : 		NetworkInfo &rInfo = *iter;
; 173  : 		if( rInfo.m_dwUserIndex == dwUserIndex )

  00008	8b 10		 mov	 edx, DWORD PTR [eax]
  0000a	3b 55 08	 cmp	 edx, DWORD PTR _dwUserIndex$[ebp]
  0000d	75 06		 jne	 SHORT $LN3@SetNetwork

; 174  : 		{
; 175  : 			rInfo.m_dwDataPos = dwDataPos;

  0000f	8b 55 0c	 mov	 edx, DWORD PTR _dwDataPos$[ebp]
  00012	89 50 04	 mov	 DWORD PTR [eax+4], edx
$LN3@SetNetwork:

; 170  : 	for(NetworkInfoList::iterator iter = m_vNetworkInfoList.begin(); iter != m_vNetworkInfoList.end(); ++iter)

  00015	83 c0 08	 add	 eax, 8
$LN39@SetNetwork:
  00018	3b 41 34	 cmp	 eax, DWORD PTR [ecx+52]
  0001b	75 eb		 jne	 SHORT $LL17@SetNetwork

; 176  : 		}
; 177  : 	}
; 178  : }

  0001d	5d		 pop	 ebp
  0001e	c2 08 00	 ret	 8
?SetNetworkDataPos@CustomSoundData@@QAEXKK@Z ENDP	; CustomSoundData::SetNetworkDataPos
_TEXT	ENDS
PUBLIC	?IsCompletedData@CustomSoundData@@QAE_NK@Z	; CustomSoundData::IsCompletedData
; Function compile flags: /Ogsp
;	COMDAT ?IsCompletedData@CustomSoundData@@QAE_NK@Z
_TEXT	SEGMENT
_dwUserIndex$ = 8					; size = 4
?IsCompletedData@CustomSoundData@@QAE_NK@Z PROC		; CustomSoundData::IsCompletedData, COMDAT
; _this$ = ecx

; 181  : {

  00000	55		 push	 ebp
  00001	8b ec		 mov	 ebp, esp

; 182  : 	for(NetworkInfoList::iterator iter = m_vNetworkInfoList.begin(); iter != m_vNetworkInfoList.end(); ++iter)

  00003	8b 41 30	 mov	 eax, DWORD PTR [ecx+48]
  00006	8b 51 34	 mov	 edx, DWORD PTR [ecx+52]
  00009	56		 push	 esi
  0000a	eb 0a		 jmp	 SHORT $LN42@IsComplete
$LL19@IsComplete:

; 183  : 	{
; 184  : 		NetworkInfo &rInfo = *iter;
; 185  : 		if( rInfo.m_dwUserIndex == dwUserIndex )

  0000c	8b 30		 mov	 esi, DWORD PTR [eax]
  0000e	3b 75 08	 cmp	 esi, DWORD PTR _dwUserIndex$[ebp]
  00011	74 0e		 je	 SHORT $LN40@IsComplete

; 182  : 	for(NetworkInfoList::iterator iter = m_vNetworkInfoList.begin(); iter != m_vNetworkInfoList.end(); ++iter)

  00013	83 c0 08	 add	 eax, 8
$LN42@IsComplete:
  00016	3b c2		 cmp	 eax, edx
  00018	75 f2		 jne	 SHORT $LL19@IsComplete

; 191  : 		}
; 192  : 	}
; 193  : 
; 194  : 	return false;

  0001a	32 c0		 xor	 al, al
$LN7@IsComplete:
  0001c	5e		 pop	 esi

; 195  : }

  0001d	5d		 pop	 ebp
  0001e	c2 04 00	 ret	 4
$LN40@IsComplete:

; 186  : 		{
; 187  : 			if( rInfo.m_dwDataPos == m_dwSize )

  00021	8b 40 04	 mov	 eax, DWORD PTR [eax+4]
  00024	3b 41 08	 cmp	 eax, DWORD PTR [ecx+8]
  00027	0f 94 c0	 sete	 al

; 188  : 				return true;
; 189  : 			else
; 190  : 				return false;

  0002a	eb f0		 jmp	 SHORT $LN7@IsComplete
?IsCompletedData@CustomSoundData@@QAE_NK@Z ENDP		; CustomSoundData::IsCompletedData
_TEXT	ENDS
PUBLIC	?GetCustomSoundInfoPtr@ioCustomSoundMgr@@IAEPAUtagCustomSoundInfo@1@K@Z ; ioCustomSoundMgr::GetCustomSoundInfoPtr
; Function compile flags: /Ogsp
;	COMDAT ?GetCustomSoundInfoPtr@ioCustomSoundMgr@@IAEPAUtagCustomSoundInfo@1@K@Z
_TEXT	SEGMENT
_dwUserIndex$ = 8					; size = 4
?GetCustomSoundInfoPtr@ioCustomSoundMgr@@IAEPAUtagCustomSoundInfo@1@K@Z PROC ; ioCustomSoundMgr::GetCustomSoundInfoPtr, COMDAT
; _this$ = ecx

; 936  : {

  00000	55		 push	 ebp
  00001	8b ec		 mov	 ebp, esp

; 937  : 	if( m_vCustomSoundInfoList.empty() )

  00003	8b 41 04	 mov	 eax, DWORD PTR [ecx+4]
  00006	3b 41 08	 cmp	 eax, DWORD PTR [ecx+8]
  00009	75 04		 jne	 SHORT $LN6@GetCustomS

; 938  : 		return NULL;

  0000b	33 c0		 xor	 eax, eax
  0000d	eb 1f		 jmp	 SHORT $LN7@GetCustomS
$LN6@GetCustomS:

; 939  : 
; 940  : 	for(CustomSoundInfoList::iterator iter = m_vCustomSoundInfoList.begin(); iter != m_vCustomSoundInfoList.end(); ++iter)

  0000f	8b 49 08	 mov	 ecx, DWORD PTR [ecx+8]
  00012	56		 push	 esi
  00013	8b d0		 mov	 edx, eax
  00015	eb 10		 jmp	 SHORT $LN45@GetCustomS
$LL21@GetCustomS:

; 941  : 	{
; 942  : 		CustomSoundInfo *pInfo = *iter;

  00017	8b 02		 mov	 eax, DWORD PTR [edx]

; 943  : 		if( !pInfo )

  00019	85 c0		 test	 eax, eax
  0001b	74 07		 je	 SHORT $LN4@GetCustomS

; 944  : 			continue;
; 945  : 		if( pInfo->m_dwUserIndex == dwUserIndex )

  0001d	8b 30		 mov	 esi, DWORD PTR [eax]
  0001f	3b 75 08	 cmp	 esi, DWORD PTR _dwUserIndex$[ebp]
  00022	74 09		 je	 SHORT $LN44@GetCustomS
$LN4@GetCustomS:

; 939  : 
; 940  : 	for(CustomSoundInfoList::iterator iter = m_vCustomSoundInfoList.begin(); iter != m_vCustomSoundInfoList.end(); ++iter)

  00024	83 c2 04	 add	 edx, 4
$LN45@GetCustomS:
  00027	3b d1		 cmp	 edx, ecx
  00029	75 ec		 jne	 SHORT $LL21@GetCustomS

; 946  : 			return pInfo;
; 947  : 	}
; 948  : 
; 949  : 	return NULL;

  0002b	33 c0		 xor	 eax, eax
$LN44@GetCustomS:
  0002d	5e		 pop	 esi
$LN7@GetCustomS:

; 950  : }

  0002e	5d		 pop	 ebp
  0002f	c2 04 00	 ret	 4
?GetCustomSoundInfoPtr@ioCustomSoundMgr@@IAEPAUtagCustomSoundInfo@1@K@Z ENDP ; ioCustomSoundMgr::GetCustomSoundInfoPtr
_TEXT	ENDS
PUBLIC	?IsDisable@ioCustomSoundMgr@@QAE_NABVioHashString@@@Z ; ioCustomSoundMgr::IsDisable
EXTRN	__imp_??8ioHashString@@QBE_NABV0@@Z:PROC
; Function compile flags: /Ogsp
;	COMDAT ?IsDisable@ioCustomSoundMgr@@QAE_NABVioHashString@@@Z
_TEXT	SEGMENT
_rszPublicID$ = 8					; size = 4
?IsDisable@ioCustomSoundMgr@@QAE_NABVioHashString@@@Z PROC ; ioCustomSoundMgr::IsDisable, COMDAT
; _this$ = ecx

; 996  : {

  00000	55		 push	 ebp
  00001	8b ec		 mov	 ebp, esp
  00003	56		 push	 esi
  00004	57		 push	 edi
  00005	8b f9		 mov	 edi, ecx

; 997  : 	for(ioHashStringVec::iterator iter = m_vDisableList.begin(); iter != m_vDisableList.end(); ++iter)

  00007	8b 77 34	 mov	 esi, DWORD PTR [edi+52]
  0000a	eb 1e		 jmp	 SHORT $LN41@IsDisable
$LL18@IsDisable:

; 998  : 	{
; 999  : 		ioHashString &rszPublicIDInList = *iter;
; 1000 : 		if( rszPublicIDInList.IsEmpty() )

  0000c	8b ce		 mov	 ecx, esi
  0000e	ff 15 00 00 00
	00		 call	 DWORD PTR __imp_?IsEmpty@ioHashString@@QBE_NXZ
  00014	84 c0		 test	 al, al
  00016	75 0f		 jne	 SHORT $LN4@IsDisable

; 1001 : 			continue;
; 1002 : 		if( rszPublicIDInList == rszPublicID )

  00018	ff 75 08	 push	 DWORD PTR _rszPublicID$[ebp]
  0001b	8b ce		 mov	 ecx, esi
  0001d	ff 15 00 00 00
	00		 call	 DWORD PTR __imp_??8ioHashString@@QBE_NABV0@@Z
  00023	84 c0		 test	 al, al
  00025	75 10		 jne	 SHORT $LN39@IsDisable
$LN4@IsDisable:

; 997  : 	for(ioHashStringVec::iterator iter = m_vDisableList.begin(); iter != m_vDisableList.end(); ++iter)

  00027	83 c6 10	 add	 esi, 16			; 00000010H
$LN41@IsDisable:
  0002a	3b 77 38	 cmp	 esi, DWORD PTR [edi+56]
  0002d	75 dd		 jne	 SHORT $LL18@IsDisable

; 1004 : 	}
; 1005 : 
; 1006 : 	return false;

  0002f	32 c0		 xor	 al, al
$LN6@IsDisable:
  00031	5f		 pop	 edi
  00032	5e		 pop	 esi

; 1007 : }

  00033	5d		 pop	 ebp
  00034	c2 04 00	 ret	 4
$LN39@IsDisable:

; 1003 : 			return true;

  00037	b0 01		 mov	 al, 1
  00039	eb f6		 jmp	 SHORT $LN6@IsDisable
?IsDisable@ioCustomSoundMgr@@QAE_NABVioHashString@@@Z ENDP ; ioCustomSoundMgr::IsDisable
_TEXT	ENDS
PUBLIC	??1?$vector@PAUtagCustomSoundInfo@ioCustomSoundMgr@@V?$allocator@PAUtagCustomSoundInfo@ioCustomSoundMgr@@@std@@@std@@QAE@XZ ; std::vector<ioCustomSoundMgr::tagCustomSoundInfo *,std::allocator<ioCustomSoundMgr::tagCustomSoundInfo *> >::~vector<ioCustomSoundMgr::tagCustomSoundInfo *,std::allocator<ioCustomSoundMgr::tagCustomSoundInfo *> >
; Function compile flags: /Ogsp
; File c:\program files (x86)\microsoft visual studio 10.0\vc\include\vector
;	COMDAT ??1?$vector@PAUtagCustomSoundInfo@ioCustomSoundMgr@@V?$allocator@PAUtagCustomSoundInfo@ioCustomSoundMgr@@@std@@@std@@QAE@XZ
_TEXT	SEGMENT
??1?$vector@PAUtagCustomSoundInfo@ioCustomSoundMgr@@V?$allocator@PAUtagCustomSoundInfo@ioCustomSoundMgr@@@std@@@std@@QAE@XZ PROC ; std::vector<ioCustomSoundMgr::tagCustomSoundInfo *,std::allocator<ioCustomSoundMgr::tagCustomSoundInfo *> >::~vector<ioCustomSoundMgr::tagCustomSoundInfo *,std::allocator<ioCustomSoundMgr::tagCustomSoundInfo *> >, COMDAT
; _this$ = ecx

; 705  : 		_Tidy();

  00000	e9 00 00 00 00	 jmp	 ?_Tidy@?$vector@PAUtagCustomSoundInfo@ioCustomSoundMgr@@V?$allocator@PAUtagCustomSoundInfo@ioCustomSoundMgr@@@std@@@std@@IAEXXZ ; std::vector<ioCustomSoundMgr::tagCustomSoundInfo *,std::allocator<ioCustomSoundMgr::tagCustomSoundInfo *> >::_Tidy
??1?$vector@PAUtagCustomSoundInfo@ioCustomSoundMgr@@V?$allocator@PAUtagCustomSoundInfo@ioCustomSoundMgr@@@std@@@std@@QAE@XZ ENDP ; std::vector<ioCustomSoundMgr::tagCustomSoundInfo *,std::allocator<ioCustomSoundMgr::tagCustomSoundInfo *> >::~vector<ioCustomSoundMgr::tagCustomSoundInfo *,std::allocator<ioCustomSoundMgr::tagCustomSoundInfo *> >
_TEXT	ENDS
PUBLIC	?erase@?$vector@PAUtagCustomSoundInfo@ioCustomSoundMgr@@V?$allocator@PAUtagCustomSoundInfo@ioCustomSoundMgr@@@std@@@std@@QAE?AV?$_Vector_iterator@V?$_Vector_val@PAUtagCustomSoundInfo@ioCustomSoundMgr@@V?$allocator@PAUtagCustomSoundInfo@ioCustomSoundMgr@@@std@@@std@@@2@V?$_Vector_const_iterator@V?$_Vector_val@PAUtagCustomSoundInfo@ioCustomSoundMgr@@V?$allocator@PAUtagCustomSoundInfo@ioCustomSoundMgr@@@std@@@std@@@2@@Z ; std::vector<ioCustomSoundMgr::tagCustomSoundInfo *,std::allocator<ioCustomSoundMgr::tagCustomSoundInfo *> >::erase
; Function compile flags: /Ogsp
;	COMDAT ?erase@?$vector@PAUtagCustomSoundInfo@ioCustomSoundMgr@@V?$allocator@PAUtagCustomSoundInfo@ioCustomSoundMgr@@@std@@@std@@QAE?AV?$_Vector_iterator@V?$_Vector_val@PAUtagCustomSoundInfo@ioCustomSoundMgr@@V?$allocator@PAUtagCustomSoundInfo@ioCustomSoundMgr@@@std@@@std@@@2@V?$_Vector_const_iterator@V?$_Vector_val@PAUtagCustomSoundInfo@ioCustomSoundMgr@@V?$allocator@PAUtagCustomSoundInfo@ioCustomSoundMgr@@@std@@@std@@@2@@Z
_TEXT	SEGMENT
___$ReturnUdt$ = 8					; size = 4
__Cat$514334 = 12					; size = 1
__Where$ = 12						; size = 4
?erase@?$vector@PAUtagCustomSoundInfo@ioCustomSoundMgr@@V?$allocator@PAUtagCustomSoundInfo@ioCustomSoundMgr@@@std@@@std@@QAE?AV?$_Vector_iterator@V?$_Vector_val@PAUtagCustomSoundInfo@ioCustomSoundMgr@@V?$allocator@PAUtagCustomSoundInfo@ioCustomSoundMgr@@@std@@@std@@@2@V?$_Vector_const_iterator@V?$_Vector_val@PAUtagCustomSoundInfo@ioCustomSoundMgr@@V?$allocator@PAUtagCustomSoundInfo@ioCustomSoundMgr@@@std@@@std@@@2@@Z PROC ; std::vector<ioCustomSoundMgr::tagCustomSoundInfo *,std::allocator<ioCustomSoundMgr::tagCustomSoundInfo *> >::erase, COMDAT
; _this$ = ecx

; 1179 : 		{	// erase element at where

  00000	55		 push	 ebp
  00001	8b ec		 mov	 ebp, esp

; 1180 : 		_Move(_VIPTR(_Where) + 1, this->_Mylast,
; 1181 : 			_VIPTR(_Where));

  00003	8b 45 0c	 mov	 eax, DWORD PTR __Where$[ebp]
  00006	56		 push	 esi
  00007	ff 75 0c	 push	 DWORD PTR __Cat$514334[ebp]
  0000a	8b f1		 mov	 esi, ecx
  0000c	50		 push	 eax
  0000d	ff 76 04	 push	 DWORD PTR [esi+4]
  00010	83 c0 04	 add	 eax, 4
  00013	50		 push	 eax
  00014	e8 00 00 00 00	 call	 ??$_Move@PAPAUtagCustomSoundInfo@ioCustomSoundMgr@@PAPAU12@@std@@YAPAPAUtagCustomSoundInfo@ioCustomSoundMgr@@PAPAU12@00U_Scalar_ptr_iterator_tag@0@@Z ; std::_Move<ioCustomSoundMgr::tagCustomSoundInfo * *,ioCustomSoundMgr::tagCustomSoundInfo * *>

; 1182 : 		_Destroy(this->_Mylast - 1, this->_Mylast);
; 1183 : 		--this->_Mylast;
; 1184 : 		return (_Make_iter(_Where));

  00019	8b 45 08	 mov	 eax, DWORD PTR ___$ReturnUdt$[ebp]
  0001c	8b 4d 0c	 mov	 ecx, DWORD PTR __Where$[ebp]
  0001f	83 c4 10	 add	 esp, 16			; 00000010H
  00022	83 46 04 fc	 add	 DWORD PTR [esi+4], -4	; fffffffcH
  00026	89 08		 mov	 DWORD PTR [eax], ecx
  00028	5e		 pop	 esi

; 1185 : 		}

  00029	5d		 pop	 ebp
  0002a	c2 08 00	 ret	 8
?erase@?$vector@PAUtagCustomSoundInfo@ioCustomSoundMgr@@V?$allocator@PAUtagCustomSoundInfo@ioCustomSoundMgr@@@std@@@std@@QAE?AV?$_Vector_iterator@V?$_Vector_val@PAUtagCustomSoundInfo@ioCustomSoundMgr@@V?$allocator@PAUtagCustomSoundInfo@ioCustomSoundMgr@@@std@@@std@@@2@V?$_Vector_const_iterator@V?$_Vector_val@PAUtagCustomSoundInfo@ioCustomSoundMgr@@V?$allocator@PAUtagCustomSoundInfo@ioCustomSoundMgr@@@std@@@std@@@2@@Z ENDP ; std::vector<ioCustomSoundMgr::tagCustomSoundInfo *,std::allocator<ioCustomSoundMgr::tagCustomSoundInfo *> >::erase
_TEXT	ENDS
PUBLIC	??C?$_Tree_iterator@V?$_Tree_val@V?$_Tmap_traits@KPAVCustomSoundData@@U?$less@K@std@@V?$allocator@U?$pair@$$CBKPAVCustomSoundData@@@std@@@3@$0A@@std@@@std@@@std@@QBEPAU?$pair@$$CBKPAVCustomSoundData@@@1@XZ ; std::_Tree_iterator<std::_Tree_val<std::_Tmap_traits<unsigned long,CustomSoundData *,std::less<unsigned long>,std::allocator<std::pair<unsigned long const ,CustomSoundData *> >,0> > >::operator->
; Function compile flags: /Ogsp
; File c:\program files (x86)\microsoft visual studio 10.0\vc\include\xtree
;	COMDAT ??C?$_Tree_iterator@V?$_Tree_val@V?$_Tmap_traits@KPAVCustomSoundData@@U?$less@K@std@@V?$allocator@U?$pair@$$CBKPAVCustomSoundData@@@std@@@3@$0A@@std@@@std@@@std@@QBEPAU?$pair@$$CBKPAVCustomSoundData@@@1@XZ
_TEXT	SEGMENT
??C?$_Tree_iterator@V?$_Tree_val@V?$_Tmap_traits@KPAVCustomSoundData@@U?$less@K@std@@V?$allocator@U?$pair@$$CBKPAVCustomSoundData@@@std@@@3@$0A@@std@@@std@@@std@@QBEPAU?$pair@$$CBKPAVCustomSoundData@@@1@XZ PROC ; std::_Tree_iterator<std::_Tree_val<std::_Tmap_traits<unsigned long,CustomSoundData *,std::less<unsigned long>,std::allocator<std::pair<unsigned long const ,CustomSoundData *> >,0> > >::operator->, COMDAT
; _this$ = ecx

; 401  : 		return (&**this);

  00000	8b 01		 mov	 eax, DWORD PTR [ecx]
  00002	83 c0 0c	 add	 eax, 12			; 0000000cH

; 402  : 		}

  00005	c3		 ret	 0
??C?$_Tree_iterator@V?$_Tree_val@V?$_Tmap_traits@KPAVCustomSoundData@@U?$less@K@std@@V?$allocator@U?$pair@$$CBKPAVCustomSoundData@@@std@@@3@$0A@@std@@@std@@@std@@QBEPAU?$pair@$$CBKPAVCustomSoundData@@@1@XZ ENDP ; std::_Tree_iterator<std::_Tree_val<std::_Tmap_traits<unsigned long,CustomSoundData *,std::less<unsigned long>,std::allocator<std::pair<unsigned long const ,CustomSoundData *> >,0> > >::operator->
_TEXT	ENDS
PUBLIC	?lower_bound@?$_Tree@V?$_Tmap_traits@KPAVCustomSoundData@@U?$less@K@std@@V?$allocator@U?$pair@$$CBKPAVCustomSoundData@@@std@@@3@$0A@@std@@@std@@QAE?AV?$_Tree_iterator@V?$_Tree_val@V?$_Tmap_traits@KPAVCustomSoundData@@U?$less@K@std@@V?$allocator@U?$pair@$$CBKPAVCustomSoundData@@@std@@@3@$0A@@std@@@std@@@2@ABK@Z ; std::_Tree<std::_Tmap_traits<unsigned long,CustomSoundData *,std::less<unsigned long>,std::allocator<std::pair<unsigned long const ,CustomSoundData *> >,0> >::lower_bound
; Function compile flags: /Ogsp
;	COMDAT ?lower_bound@?$_Tree@V?$_Tmap_traits@KPAVCustomSoundData@@U?$less@K@std@@V?$allocator@U?$pair@$$CBKPAVCustomSoundData@@@std@@@3@$0A@@std@@@std@@QAE?AV?$_Tree_iterator@V?$_Tree_val@V?$_Tmap_traits@KPAVCustomSoundData@@U?$less@K@std@@V?$allocator@U?$pair@$$CBKPAVCustomSoundData@@@std@@@3@$0A@@std@@@std@@@2@ABK@Z
_TEXT	SEGMENT
___$ReturnUdt$ = 8					; size = 4
__Keyval$ = 12						; size = 4
?lower_bound@?$_Tree@V?$_Tmap_traits@KPAVCustomSoundData@@U?$less@K@std@@V?$allocator@U?$pair@$$CBKPAVCustomSoundData@@@std@@@3@$0A@@std@@@std@@QAE?AV?$_Tree_iterator@V?$_Tree_val@V?$_Tmap_traits@KPAVCustomSoundData@@U?$less@K@std@@V?$allocator@U?$pair@$$CBKPAVCustomSoundData@@@std@@@3@$0A@@std@@@std@@@2@ABK@Z PROC ; std::_Tree<std::_Tmap_traits<unsigned long,CustomSoundData *,std::less<unsigned long>,std::allocator<std::pair<unsigned long const ,CustomSoundData *> >,0> >::lower_bound, COMDAT
; _this$ = ecx

; 1449 : 		{	// find leftmost node not less than _Keyval in mutable tree

  00000	55		 push	 ebp
  00001	8b ec		 mov	 ebp, esp

; 1450 : 		return (iterator(_Lbound(_Keyval), this));

  00003	ff 75 0c	 push	 DWORD PTR __Keyval$[ebp]
  00006	e8 00 00 00 00	 call	 ?_Lbound@?$_Tree@V?$_Tmap_traits@KPAVCustomSoundData@@U?$less@K@std@@V?$allocator@U?$pair@$$CBKPAVCustomSoundData@@@std@@@3@$0A@@std@@@std@@IAEPAU_Node@?$_Tree_nod@V?$_Tmap_traits@KPAVCustomSoundData@@U?$less@K@std@@V?$allocator@U?$pair@$$CBKPAVCustomSoundData@@@std@@@3@$0A@@std@@@2@ABK@Z ; std::_Tree<std::_Tmap_traits<unsigned long,CustomSoundData *,std::less<unsigned long>,std::allocator<std::pair<unsigned long const ,CustomSoundData *> >,0> >::_Lbound
  0000b	8b 4d 08	 mov	 ecx, DWORD PTR ___$ReturnUdt$[ebp]
  0000e	89 01		 mov	 DWORD PTR [ecx], eax
  00010	8b c1		 mov	 eax, ecx

; 1451 : 		}

  00012	5d		 pop	 ebp
  00013	c2 08 00	 ret	 8
?lower_bound@?$_Tree@V?$_Tmap_traits@KPAVCustomSoundData@@U?$less@K@std@@V?$allocator@U?$pair@$$CBKPAVCustomSoundData@@@std@@@3@$0A@@std@@@std@@QAE?AV?$_Tree_iterator@V?$_Tree_val@V?$_Tmap_traits@KPAVCustomSoundData@@U?$less@K@std@@V?$allocator@U?$pair@$$CBKPAVCustomSoundData@@@std@@@3@$0A@@std@@@std@@@2@ABK@Z ENDP ; std::_Tree<std::_Tmap_traits<unsigned long,CustomSoundData *,std::less<unsigned long>,std::allocator<std::pair<unsigned long const ,CustomSoundData *> >,0> >::lower_bound
_TEXT	ENDS
PUBLIC	?erase@?$vector@PAUtagCustomSoundInfo@ioCustomSoundMgr@@V?$allocator@PAUtagCustomSoundInfo@ioCustomSoundMgr@@@std@@@std@@QAE?AV?$_Vector_iterator@V?$_Vector_val@PAUtagCustomSoundInfo@ioCustomSoundMgr@@V?$allocator@PAUtagCustomSoundInfo@ioCustomSoundMgr@@@std@@@std@@@2@V?$_Vector_const_iterator@V?$_Vector_val@PAUtagCustomSoundInfo@ioCustomSoundMgr@@V?$allocator@PAUtagCustomSoundInfo@ioCustomSoundMgr@@@std@@@std@@@2@0@Z ; std::vector<ioCustomSoundMgr::tagCustomSoundInfo *,std::allocator<ioCustomSoundMgr::tagCustomSoundInfo *> >::erase
; Function compile flags: /Ogsp
; File c:\program files (x86)\microsoft visual studio 10.0\vc\include\vector
;	COMDAT ?erase@?$vector@PAUtagCustomSoundInfo@ioCustomSoundMgr@@V?$allocator@PAUtagCustomSoundInfo@ioCustomSoundMgr@@@std@@@std@@QAE?AV?$_Vector_iterator@V?$_Vector_val@PAUtagCustomSoundInfo@ioCustomSoundMgr@@V?$allocator@PAUtagCustomSoundInfo@ioCustomSoundMgr@@@std@@@std@@@2@V?$_Vector_const_iterator@V?$_Vector_val@PAUtagCustomSoundInfo@ioCustomSoundMgr@@V?$allocator@PAUtagCustomSoundInfo@ioCustomSoundMgr@@@std@@@std@@@2@0@Z
_TEXT	SEGMENT
___$ReturnUdt$ = 8					; size = 4
__First_arg$ = 12					; size = 4
__Cat$514510 = 16					; size = 1
__Last_arg$ = 16					; size = 4
?erase@?$vector@PAUtagCustomSoundInfo@ioCustomSoundMgr@@V?$allocator@PAUtagCustomSoundInfo@ioCustomSoundMgr@@@std@@@std@@QAE?AV?$_Vector_iterator@V?$_Vector_val@PAUtagCustomSoundInfo@ioCustomSoundMgr@@V?$allocator@PAUtagCustomSoundInfo@ioCustomSoundMgr@@@std@@@std@@@2@V?$_Vector_const_iterator@V?$_Vector_val@PAUtagCustomSoundInfo@ioCustomSoundMgr@@V?$allocator@PAUtagCustomSoundInfo@ioCustomSoundMgr@@@std@@@std@@@2@0@Z PROC ; std::vector<ioCustomSoundMgr::tagCustomSoundInfo *,std::allocator<ioCustomSoundMgr::tagCustomSoundInfo *> >::erase, COMDAT
; _this$ = ecx

; 1190 : 		{	// erase [_First, _Last)

  00000	55		 push	 ebp
  00001	8b ec		 mov	 ebp, esp

; 1191 : 		iterator _First = _Make_iter(_First_arg);

  00003	8b 45 0c	 mov	 eax, DWORD PTR __First_arg$[ebp]
  00006	56		 push	 esi
  00007	57		 push	 edi
  00008	8b 7d 08	 mov	 edi, DWORD PTR ___$ReturnUdt$[ebp]
  0000b	8b f1		 mov	 esi, ecx
  0000d	89 07		 mov	 DWORD PTR [edi], eax

; 1192 : 		iterator _Last = _Make_iter(_Last_arg);
; 1193 : 
; 1194 : 		if (_First != _Last)

  0000f	3b 45 10	 cmp	 eax, DWORD PTR __Last_arg$[ebp]
  00012	74 16		 je	 SHORT $LN1@erase

; 1195 : 			{	// worth doing, copy down over hole
; 1196 :  #if _ITERATOR_DEBUG_LEVEL == 2
; 1197 : 			if (_Last < _First || _VICONT(_First) != this
; 1198 : 				|| _VIPTR(_First) < this->_Myfirst
; 1199 : 				|| this->_Mylast < _VIPTR(_Last))
; 1200 : 				_DEBUG_ERROR("vector erase iterator outside range");
; 1201 : 			pointer _Ptr = _Move(_VIPTR(_Last), this->_Mylast,
; 1202 : 				_VIPTR(_First));
; 1203 : 			_Orphan_range(_VIPTR(_First), this->_Mylast);
; 1204 : 
; 1205 :  #else /* _ITERATOR_DEBUG_LEVEL == 2 */
; 1206 : 			pointer _Ptr = _Move(_VIPTR(_Last), this->_Mylast,
; 1207 : 				_VIPTR(_First));

  00014	ff 75 10	 push	 DWORD PTR __Cat$514510[ebp]
  00017	8b 4e 04	 mov	 ecx, DWORD PTR [esi+4]
  0001a	50		 push	 eax
  0001b	51		 push	 ecx
  0001c	ff 75 10	 push	 DWORD PTR __Last_arg$[ebp]
  0001f	e8 00 00 00 00	 call	 ??$_Move@PAPAUtagCustomSoundInfo@ioCustomSoundMgr@@PAPAU12@@std@@YAPAPAUtagCustomSoundInfo@ioCustomSoundMgr@@PAPAU12@00U_Scalar_ptr_iterator_tag@0@@Z ; std::_Move<ioCustomSoundMgr::tagCustomSoundInfo * *,ioCustomSoundMgr::tagCustomSoundInfo * *>
  00024	83 c4 10	 add	 esp, 16			; 00000010H

; 1208 :  #endif /* _ITERATOR_DEBUG_LEVEL == 2 */
; 1209 : 
; 1210 : 			_Destroy(_Ptr, this->_Mylast);
; 1211 : 			this->_Mylast = _Ptr;

  00027	89 46 04	 mov	 DWORD PTR [esi+4], eax
$LN1@erase:

; 1212 : 			}
; 1213 : 		return (_First);

  0002a	8b c7		 mov	 eax, edi
  0002c	5f		 pop	 edi
  0002d	5e		 pop	 esi

; 1214 : 		}

  0002e	5d		 pop	 ebp
  0002f	c2 0c 00	 ret	 12			; 0000000cH
?erase@?$vector@PAUtagCustomSoundInfo@ioCustomSoundMgr@@V?$allocator@PAUtagCustomSoundInfo@ioCustomSoundMgr@@@std@@@std@@QAE?AV?$_Vector_iterator@V?$_Vector_val@PAUtagCustomSoundInfo@ioCustomSoundMgr@@V?$allocator@PAUtagCustomSoundInfo@ioCustomSoundMgr@@@std@@@std@@@2@V?$_Vector_const_iterator@V?$_Vector_val@PAUtagCustomSoundInfo@ioCustomSoundMgr@@V?$allocator@PAUtagCustomSoundInfo@ioCustomSoundMgr@@@std@@@std@@@2@0@Z ENDP ; std::vector<ioCustomSoundMgr::tagCustomSoundInfo *,std::allocator<ioCustomSoundMgr::tagCustomSoundInfo *> >::erase
_TEXT	ENDS
PUBLIC	?reserve@?$vector@PAUtagCustomSoundInfo@ioCustomSoundMgr@@V?$allocator@PAUtagCustomSoundInfo@ioCustomSoundMgr@@@std@@@std@@QAEXI@Z ; std::vector<ioCustomSoundMgr::tagCustomSoundInfo *,std::allocator<ioCustomSoundMgr::tagCustomSoundInfo *> >::reserve
; Function compile flags: /Ogsp
;	COMDAT ?reserve@?$vector@PAUtagCustomSoundInfo@ioCustomSoundMgr@@V?$allocator@PAUtagCustomSoundInfo@ioCustomSoundMgr@@@std@@@std@@QAEXI@Z
_TEXT	SEGMENT
__Count$ = 8						; size = 4
?reserve@?$vector@PAUtagCustomSoundInfo@ioCustomSoundMgr@@V?$allocator@PAUtagCustomSoundInfo@ioCustomSoundMgr@@@std@@@std@@QAEXI@Z PROC ; std::vector<ioCustomSoundMgr::tagCustomSoundInfo *,std::allocator<ioCustomSoundMgr::tagCustomSoundInfo *> >::reserve, COMDAT
; _this$ = ecx

; 746  : 		{	// determine new minimum length of allocated storage

  00000	55		 push	 ebp
  00001	8b ec		 mov	 ebp, esp

; 747  : 		if (max_size() < _Count)

  00003	81 7d 08 ff ff
	ff 3f		 cmp	 DWORD PTR __Count$[ebp], 1073741823 ; 3fffffffH
  0000a	56		 push	 esi
  0000b	8b f1		 mov	 esi, ecx
  0000d	76 0b		 jbe	 SHORT $LN5@reserve

; 748  : 			_Xlen();	// result too long

  0000f	68 00 00 00 00	 push	 OFFSET ??_C@_0BD@OLBABOEK@vector?$DMT?$DO?5too?5long?$AA@
  00014	ff 15 00 00 00
	00		 call	 DWORD PTR __imp_?_Xlength_error@std@@YAXPBD@Z
$LN43@reserve:
$LN5@reserve:

; 749  : 		else if (capacity() < _Count)

  0001a	8b 46 08	 mov	 eax, DWORD PTR [esi+8]
  0001d	2b 06		 sub	 eax, DWORD PTR [esi]
  0001f	c1 f8 02	 sar	 eax, 2
  00022	3b 45 08	 cmp	 eax, DWORD PTR __Count$[ebp]
  00025	73 52		 jae	 SHORT $LN3@reserve

; 750  : 			{	// not enough room, reallocate
; 751  : 			pointer _Ptr = this->_Alval.allocate(_Count);

  00027	53		 push	 ebx
  00028	57		 push	 edi
  00029	6a 00		 push	 0
  0002b	ff 75 08	 push	 DWORD PTR __Count$[ebp]
  0002e	e8 00 00 00 00	 call	 ??$_Allocate@PAUtagCustomSoundInfo@ioCustomSoundMgr@@@std@@YAPAPAUtagCustomSoundInfo@ioCustomSoundMgr@@IPAPAU12@@Z ; std::_Allocate<ioCustomSoundMgr::tagCustomSoundInfo *>

; 752  : 
; 753  : 			_TRY_BEGIN
; 754  : 			_Umove(this->_Myfirst, this->_Mylast, _Ptr);

  00033	8b 0e		 mov	 ecx, DWORD PTR [esi]
  00035	8d 56 0c	 lea	 edx, DWORD PTR [esi+12]
  00038	52		 push	 edx
  00039	8b d8		 mov	 ebx, eax
  0003b	8b 46 04	 mov	 eax, DWORD PTR [esi+4]
  0003e	53		 push	 ebx
  0003f	50		 push	 eax
  00040	51		 push	 ecx
  00041	e8 00 00 00 00	 call	 ??$_Uninitialized_move@PAPAUtagCustomSoundInfo@ioCustomSoundMgr@@PAPAU12@V?$allocator@PAUtagCustomSoundInfo@ioCustomSoundMgr@@@std@@@std@@YAPAPAUtagCustomSoundInfo@ioCustomSoundMgr@@PAPAU12@00AAV?$allocator@PAUtagCustomSoundInfo@ioCustomSoundMgr@@@0@@Z ; std::_Uninitialized_move<ioCustomSoundMgr::tagCustomSoundInfo * *,ioCustomSoundMgr::tagCustomSoundInfo * *,std::allocator<ioCustomSoundMgr::tagCustomSoundInfo *> >

; 755  : 			_CATCH_ALL
; 756  : 			this->_Alval.deallocate(_Ptr, _Count);
; 757  : 			_RERAISE;
; 758  : 			_CATCH_END
; 759  : 
; 760  : 			size_type _Size = size();

  00046	8b 06		 mov	 eax, DWORD PTR [esi]
  00048	8b 7e 04	 mov	 edi, DWORD PTR [esi+4]
  0004b	2b f8		 sub	 edi, eax
  0004d	83 c4 18	 add	 esp, 24			; 00000018H
  00050	c1 ff 02	 sar	 edi, 2

; 761  : 			if (this->_Myfirst != 0)

  00053	85 c0		 test	 eax, eax
  00055	74 07		 je	 SHORT $LN39@reserve

; 762  : 				{	// destroy and deallocate old array
; 763  : 				_Destroy(this->_Myfirst, this->_Mylast);
; 764  : 				this->_Alval.deallocate(this->_Myfirst,
; 765  : 					this->_Myend - this->_Myfirst);

  00057	50		 push	 eax
  00058	e8 00 00 00 00	 call	 ??3@YAXPAX@Z		; operator delete
  0005d	59		 pop	 ecx
$LN39@reserve:

; 766  : 				}
; 767  : 
; 768  : 			this->_Orphan_all();

  0005e	8b ce		 mov	 ecx, esi
  00060	ff 15 00 00 00
	00		 call	 DWORD PTR __imp_?_Orphan_all@_Container_base0@std@@QAEXXZ

; 769  : 			this->_Myend = _Ptr + _Count;

  00066	8b 45 08	 mov	 eax, DWORD PTR __Count$[ebp]
  00069	8d 04 83	 lea	 eax, DWORD PTR [ebx+eax*4]
  0006c	89 46 08	 mov	 DWORD PTR [esi+8], eax

; 770  : 			this->_Mylast = _Ptr + _Size;

  0006f	8d 04 bb	 lea	 eax, DWORD PTR [ebx+edi*4]
  00072	5f		 pop	 edi

; 771  : 			this->_Myfirst = _Ptr;

  00073	89 1e		 mov	 DWORD PTR [esi], ebx
  00075	89 46 04	 mov	 DWORD PTR [esi+4], eax
  00078	5b		 pop	 ebx
$LN3@reserve:
  00079	5e		 pop	 esi

; 772  : 			}
; 773  : 		}

  0007a	5d		 pop	 ebp
  0007b	c2 04 00	 ret	 4
$LN42@reserve:
?reserve@?$vector@PAUtagCustomSoundInfo@ioCustomSoundMgr@@V?$allocator@PAUtagCustomSoundInfo@ioCustomSoundMgr@@@std@@@std@@QAEXI@Z ENDP ; std::vector<ioCustomSoundMgr::tagCustomSoundInfo *,std::allocator<ioCustomSoundMgr::tagCustomSoundInfo *> >::reserve
_TEXT	ENDS
PUBLIC	??_C@_0BE@JONHPENG@map?1set?$DMT?$DO?5too?5long?$AA@ ; `string'
PUBLIC	?_Insert@?$_Tree@V?$_Tmap_traits@KPAVCustomSoundData@@U?$less@K@std@@V?$allocator@U?$pair@$$CBKPAVCustomSoundData@@@std@@@3@$0A@@std@@@std@@IAE?AV?$_Tree_iterator@V?$_Tree_val@V?$_Tmap_traits@KPAVCustomSoundData@@U?$less@K@std@@V?$allocator@U?$pair@$$CBKPAVCustomSoundData@@@std@@@3@$0A@@std@@@std@@@2@_NPAU_Node@?$_Tree_nod@V?$_Tmap_traits@KPAVCustomSoundData@@U?$less@K@std@@V?$allocator@U?$pair@$$CBKPAVCustomSoundData@@@std@@@3@$0A@@std@@@2@1@Z ; std::_Tree<std::_Tmap_traits<unsigned long,CustomSoundData *,std::less<unsigned long>,std::allocator<std::pair<unsigned long const ,CustomSoundData *> >,0> >::_Insert
;	COMDAT ??_C@_0BE@JONHPENG@map?1set?$DMT?$DO?5too?5long?$AA@
; File c:\program files (x86)\microsoft visual studio 10.0\vc\include\xutility
CONST	SEGMENT
??_C@_0BE@JONHPENG@map?1set?$DMT?$DO?5too?5long?$AA@ DB 'map/set<T> too l'
	DB	'ong', 00H					; `string'
; Function compile flags: /Ogsp
; File c:\program files (x86)\microsoft visual studio 10.0\vc\include\xtree
CONST	ENDS
;	COMDAT ?_Insert@?$_Tree@V?$_Tmap_traits@KPAVCustomSoundData@@U?$less@K@std@@V?$allocator@U?$pair@$$CBKPAVCustomSoundData@@@std@@@3@$0A@@std@@@std@@IAE?AV?$_Tree_iterator@V?$_Tree_val@V?$_Tmap_traits@KPAVCustomSoundData@@U?$less@K@std@@V?$allocator@U?$pair@$$CBKPAVCustomSoundData@@@std@@@3@$0A@@std@@@std@@@2@_NPAU_Node@?$_Tree_nod@V?$_Tmap_traits@KPAVCustomSoundData@@U?$less@K@std@@V?$allocator@U?$pair@$$CBKPAVCustomSoundData@@@std@@@3@$0A@@std@@@2@1@Z
_TEXT	SEGMENT
___$ReturnUdt$ = 8					; size = 4
__Addleft$ = 12						; size = 1
__Wherenode$ = 16					; size = 4
__Newnode$ = 20						; size = 4
?_Insert@?$_Tree@V?$_Tmap_traits@KPAVCustomSoundData@@U?$less@K@std@@V?$allocator@U?$pair@$$CBKPAVCustomSoundData@@@std@@@3@$0A@@std@@@std@@IAE?AV?$_Tree_iterator@V?$_Tree_val@V?$_Tmap_traits@KPAVCustomSoundData@@U?$less@K@std@@V?$allocator@U?$pair@$$CBKPAVCustomSoundData@@@std@@@3@$0A@@std@@@std@@@2@_NPAU_Node@?$_Tree_nod@V?$_Tmap_traits@KPAVCustomSoundData@@U?$less@K@std@@V?$allocator@U?$pair@$$CBKPAVCustomSoundData@@@std@@@3@$0A@@std@@@2@1@Z PROC ; std::_Tree<std::_Tmap_traits<unsigned long,CustomSoundData *,std::less<unsigned long>,std::allocator<std::pair<unsigned long const ,CustomSoundData *> >,0> >::_Insert, COMDAT
; _this$ = ecx

; 1631 : 		{	// add node with value next to _Wherenode, to left if _Addleft

  00000	55		 push	 ebp
  00001	8b ec		 mov	 ebp, esp
  00003	53		 push	 ebx
  00004	56		 push	 esi
  00005	57		 push	 edi
  00006	8b f9		 mov	 edi, ecx

; 1632 : 		if (max_size() - 1 <= this->_Mysize)

  00008	8b 47 08	 mov	 eax, DWORD PTR [edi+8]
  0000b	3d fe ff ff 1f	 cmp	 eax, 536870910		; 1ffffffeH
  00010	72 15		 jb	 SHORT $LN17@Insert

; 1633 : 			{	// tree would get too big, fail
; 1634 : 			_Dest_val(this->_Alval,
; 1635 : 				_STD addressof(this->_Myval(_Newnode)));
; 1636 : 
; 1637 : 			this->_Alnod.deallocate(_Newnode, 1);

  00012	ff 75 14	 push	 DWORD PTR __Newnode$[ebp]
  00015	e8 00 00 00 00	 call	 ??3@YAXPAX@Z		; operator delete

; 1638 : 
; 1639 : 			_Xlength_error("map/set<T> too long");

  0001a	c7 04 24 00 00
	00 00		 mov	 DWORD PTR [esp], OFFSET ??_C@_0BE@JONHPENG@map?1set?$DMT?$DO?5too?5long?$AA@
  00021	ff 15 00 00 00
	00		 call	 DWORD PTR __imp_?_Xlength_error@std@@YAXPBD@Z
$LN188@Insert:
$LN17@Insert:

; 1640 : 			}
; 1641 : 		++this->_Mysize;
; 1642 : 		_Newnode->_Parent = _Wherenode;

  00027	8b 5d 14	 mov	 ebx, DWORD PTR __Newnode$[ebp]
  0002a	40		 inc	 eax
  0002b	89 47 08	 mov	 DWORD PTR [edi+8], eax
  0002e	8b 45 10	 mov	 eax, DWORD PTR __Wherenode$[ebp]
  00031	89 43 04	 mov	 DWORD PTR [ebx+4], eax

; 1643 : 
; 1644 : 		if (_Wherenode == this->_Myhead)

  00034	8b 4f 04	 mov	 ecx, DWORD PTR [edi+4]
  00037	3b c1		 cmp	 eax, ecx
  00039	75 10		 jne	 SHORT $LN16@Insert

; 1645 : 			{	// first node in tree, just set head values
; 1646 : 			_Root() = _Newnode;

  0003b	89 59 04	 mov	 DWORD PTR [ecx+4], ebx

; 1647 : 			_Lmost() = _Newnode;

  0003e	8b 47 04	 mov	 eax, DWORD PTR [edi+4]
  00041	89 18		 mov	 DWORD PTR [eax], ebx

; 1648 : 			_Rmost() = _Newnode;

  00043	8b 47 04	 mov	 eax, DWORD PTR [edi+4]
  00046	89 58 08	 mov	 DWORD PTR [eax+8], ebx
  00049	eb 21		 jmp	 SHORT $LN11@Insert
$LN16@Insert:

; 1649 : 			}
; 1650 : 		else if (_Addleft)

  0004b	80 7d 0c 00	 cmp	 BYTE PTR __Addleft$[ebp], 0
  0004f	74 0d		 je	 SHORT $LN14@Insert

; 1651 : 			{	// add to left of _Wherenode
; 1652 : 			this->_Left(_Wherenode) = _Newnode;

  00051	89 18		 mov	 DWORD PTR [eax], ebx

; 1653 : 			if (_Wherenode == _Lmost())

  00053	8b 4f 04	 mov	 ecx, DWORD PTR [edi+4]
  00056	3b 01		 cmp	 eax, DWORD PTR [ecx]
  00058	75 12		 jne	 SHORT $LN11@Insert

; 1654 : 				_Lmost() = _Newnode;

  0005a	89 19		 mov	 DWORD PTR [ecx], ebx

; 1655 : 			}
; 1656 : 		else

  0005c	eb 0e		 jmp	 SHORT $LN11@Insert
$LN14@Insert:

; 1657 : 			{	// add to right of _Wherenode
; 1658 : 			this->_Right(_Wherenode) = _Newnode;

  0005e	89 58 08	 mov	 DWORD PTR [eax+8], ebx

; 1659 : 			if (_Wherenode == _Rmost())

  00061	8b 4f 04	 mov	 ecx, DWORD PTR [edi+4]
  00064	3b 41 08	 cmp	 eax, DWORD PTR [ecx+8]
  00067	75 03		 jne	 SHORT $LN11@Insert

; 1660 : 				_Rmost() = _Newnode;

  00069	89 59 08	 mov	 DWORD PTR [ecx+8], ebx
$LN11@Insert:

; 1661 : 			}
; 1662 : 
; 1663 : 		for (_Nodeptr _Pnode = _Newnode;
; 1664 : 			this->_Color(this->_Parent(_Pnode)) == this->_Red; )

  0006c	8b 43 04	 mov	 eax, DWORD PTR [ebx+4]
  0006f	8b f3		 mov	 esi, ebx
  00071	e9 93 00 00 00	 jmp	 $LN186@Insert
$LL10@Insert:

; 1665 : 			if (this->_Parent(_Pnode)
; 1666 : 				== this->_Left(this->_Parent(this->_Parent(_Pnode))))

  00076	8b 46 04	 mov	 eax, DWORD PTR [esi+4]
  00079	8b 48 04	 mov	 ecx, DWORD PTR [eax+4]
  0007c	3b 01		 cmp	 eax, DWORD PTR [ecx]
  0007e	75 38		 jne	 SHORT $LN8@Insert

; 1667 : 				{	// fixup red-red in left subtree
; 1668 : 				_Wherenode =
; 1669 : 					this->_Right(this->_Parent(this->_Parent(_Pnode)));

  00080	8b 49 08	 mov	 ecx, DWORD PTR [ecx+8]

; 1670 : 				if (this->_Color(_Wherenode) == this->_Red)

  00083	80 79 14 00	 cmp	 BYTE PTR [ecx+20], 0

; 1671 : 					{	// parent has two red children, blacken both
; 1672 : 					this->_Color(this->_Parent(_Pnode)) = this->_Black;
; 1673 : 					this->_Color(_Wherenode) = this->_Black;
; 1674 : 					this->_Color(this->_Parent(this->_Parent(_Pnode)))
; 1675 : 						= this->_Red;
; 1676 : 					_Pnode = this->_Parent(this->_Parent(_Pnode));
; 1677 : 					}
; 1678 : 				else

  00087	74 37		 je	 SHORT $LN187@Insert

; 1679 : 					{	// parent has red and black children
; 1680 : 					if (_Pnode == this->_Right(this->_Parent(_Pnode)))

  00089	3b 70 08	 cmp	 esi, DWORD PTR [eax+8]
  0008c	75 0a		 jne	 SHORT $LN5@Insert

; 1681 : 						{	// rotate right child to left
; 1682 : 						_Pnode = this->_Parent(_Pnode);

  0008e	8b f0		 mov	 esi, eax

; 1683 : 						_Lrotate(_Pnode);

  00090	56		 push	 esi
  00091	8b cf		 mov	 ecx, edi
  00093	e8 00 00 00 00	 call	 ?_Lrotate@?$_Tree@V?$_Tmap_traits@KPAVCustomSoundData@@U?$less@K@std@@V?$allocator@U?$pair@$$CBKPAVCustomSoundData@@@std@@@3@$0A@@std@@@std@@IAEXPAU_Node@?$_Tree_nod@V?$_Tmap_traits@KPAVCustomSoundData@@U?$less@K@std@@V?$allocator@U?$pair@$$CBKPAVCustomSoundData@@@std@@@3@$0A@@std@@@2@@Z ; std::_Tree<std::_Tmap_traits<unsigned long,CustomSoundData *,std::less<unsigned long>,std::allocator<std::pair<unsigned long const ,CustomSoundData *> >,0> >::_Lrotate
$LN5@Insert:

; 1684 : 						}
; 1685 : 					this->_Color(this->_Parent(_Pnode)) =
; 1686 : 						this->_Black;	// propagate red up

  00098	8b 46 04	 mov	 eax, DWORD PTR [esi+4]
  0009b	c6 40 14 01	 mov	 BYTE PTR [eax+20], 1

; 1687 : 					this->_Color(this->_Parent(this->_Parent(_Pnode))) =
; 1688 : 						this->_Red;

  0009f	8b 46 04	 mov	 eax, DWORD PTR [esi+4]
  000a2	8b 40 04	 mov	 eax, DWORD PTR [eax+4]
  000a5	c6 40 14 00	 mov	 BYTE PTR [eax+20], 0

; 1689 : 					_Rrotate(this->_Parent(this->_Parent(_Pnode)));

  000a9	8b 46 04	 mov	 eax, DWORD PTR [esi+4]
  000ac	ff 70 04	 push	 DWORD PTR [eax+4]
  000af	8b cf		 mov	 ecx, edi
  000b1	e8 00 00 00 00	 call	 ?_Rrotate@?$_Tree@V?$_Tmap_traits@KPAVCustomSoundData@@U?$less@K@std@@V?$allocator@U?$pair@$$CBKPAVCustomSoundData@@@std@@@3@$0A@@std@@@std@@IAEXPAU_Node@?$_Tree_nod@V?$_Tmap_traits@KPAVCustomSoundData@@U?$less@K@std@@V?$allocator@U?$pair@$$CBKPAVCustomSoundData@@@std@@@3@$0A@@std@@@2@@Z ; std::_Tree<std::_Tmap_traits<unsigned long,CustomSoundData *,std::less<unsigned long>,std::allocator<std::pair<unsigned long const ,CustomSoundData *> >,0> >::_Rrotate

; 1690 : 					}
; 1691 : 				}
; 1692 : 			else

  000b6	eb 4e		 jmp	 SHORT $LN2@Insert
$LN8@Insert:

; 1693 : 				{	// fixup red-red in right subtree
; 1694 : 				_Wherenode =
; 1695 : 					this->_Left(this->_Parent(this->_Parent(_Pnode)));

  000b8	8b 09		 mov	 ecx, DWORD PTR [ecx]

; 1696 : 				if (this->_Color(_Wherenode) == this->_Red)

  000ba	80 79 14 00	 cmp	 BYTE PTR [ecx+20], 0
  000be	75 1a		 jne	 SHORT $LN3@Insert
$LN187@Insert:

; 1697 : 					{	// parent has two red children, blacken both
; 1698 : 					this->_Color(this->_Parent(_Pnode)) = this->_Black;

  000c0	c6 40 14 01	 mov	 BYTE PTR [eax+20], 1

; 1699 : 					this->_Color(_Wherenode) = this->_Black;

  000c4	c6 41 14 01	 mov	 BYTE PTR [ecx+20], 1

; 1700 : 					this->_Color(this->_Parent(this->_Parent(_Pnode))) =
; 1701 : 						this->_Red;

  000c8	8b 46 04	 mov	 eax, DWORD PTR [esi+4]
  000cb	8b 40 04	 mov	 eax, DWORD PTR [eax+4]
  000ce	c6 40 14 00	 mov	 BYTE PTR [eax+20], 0

; 1702 : 					_Pnode = this->_Parent(this->_Parent(_Pnode));

  000d2	8b 46 04	 mov	 eax, DWORD PTR [esi+4]
  000d5	8b 70 04	 mov	 esi, DWORD PTR [eax+4]

; 1703 : 					}
; 1704 : 				else

  000d8	eb 2c		 jmp	 SHORT $LN2@Insert
$LN3@Insert:

; 1705 : 					{	// parent has red and black children
; 1706 : 					if (_Pnode == this->_Left(this->_Parent(_Pnode)))

  000da	3b 30		 cmp	 esi, DWORD PTR [eax]
  000dc	75 0a		 jne	 SHORT $LN1@Insert

; 1707 : 						{	// rotate left child to right
; 1708 : 						_Pnode = this->_Parent(_Pnode);

  000de	8b f0		 mov	 esi, eax

; 1709 : 						_Rrotate(_Pnode);

  000e0	56		 push	 esi
  000e1	8b cf		 mov	 ecx, edi
  000e3	e8 00 00 00 00	 call	 ?_Rrotate@?$_Tree@V?$_Tmap_traits@KPAVCustomSoundData@@U?$less@K@std@@V?$allocator@U?$pair@$$CBKPAVCustomSoundData@@@std@@@3@$0A@@std@@@std@@IAEXPAU_Node@?$_Tree_nod@V?$_Tmap_traits@KPAVCustomSoundData@@U?$less@K@std@@V?$allocator@U?$pair@$$CBKPAVCustomSoundData@@@std@@@3@$0A@@std@@@2@@Z ; std::_Tree<std::_Tmap_traits<unsigned long,CustomSoundData *,std::less<unsigned long>,std::allocator<std::pair<unsigned long const ,CustomSoundData *> >,0> >::_Rrotate
$LN1@Insert:

; 1710 : 						}
; 1711 : 					this->_Color(this->_Parent(_Pnode)) =
; 1712 : 						this->_Black;	// propagate red up

  000e8	8b 46 04	 mov	 eax, DWORD PTR [esi+4]
  000eb	c6 40 14 01	 mov	 BYTE PTR [eax+20], 1

; 1713 : 					this->_Color(this->_Parent(this->_Parent(_Pnode))) =
; 1714 : 						this->_Red;

  000ef	8b 46 04	 mov	 eax, DWORD PTR [esi+4]
  000f2	8b 40 04	 mov	 eax, DWORD PTR [eax+4]
  000f5	c6 40 14 00	 mov	 BYTE PTR [eax+20], 0

; 1715 : 					_Lrotate(this->_Parent(this->_Parent(_Pnode)));

  000f9	8b 46 04	 mov	 eax, DWORD PTR [esi+4]
  000fc	ff 70 04	 push	 DWORD PTR [eax+4]
  000ff	8b cf		 mov	 ecx, edi
  00101	e8 00 00 00 00	 call	 ?_Lrotate@?$_Tree@V?$_Tmap_traits@KPAVCustomSoundData@@U?$less@K@std@@V?$allocator@U?$pair@$$CBKPAVCustomSoundData@@@std@@@3@$0A@@std@@@std@@IAEXPAU_Node@?$_Tree_nod@V?$_Tmap_traits@KPAVCustomSoundData@@U?$less@K@std@@V?$allocator@U?$pair@$$CBKPAVCustomSoundData@@@std@@@3@$0A@@std@@@2@@Z ; std::_Tree<std::_Tmap_traits<unsigned long,CustomSoundData *,std::less<unsigned long>,std::allocator<std::pair<unsigned long const ,CustomSoundData *> >,0> >::_Lrotate
$LN2@Insert:

; 1661 : 			}
; 1662 : 
; 1663 : 		for (_Nodeptr _Pnode = _Newnode;
; 1664 : 			this->_Color(this->_Parent(_Pnode)) == this->_Red; )

  00106	8b 46 04	 mov	 eax, DWORD PTR [esi+4]
$LN186@Insert:
  00109	80 78 14 00	 cmp	 BYTE PTR [eax+20], 0
  0010d	0f 84 63 ff ff
	ff		 je	 $LL10@Insert

; 1716 : 					}
; 1717 : 				}
; 1718 : 
; 1719 : 		this->_Color(_Root()) = this->_Black;	// root is always black

  00113	8b 47 04	 mov	 eax, DWORD PTR [edi+4]
  00116	8b 40 04	 mov	 eax, DWORD PTR [eax+4]
  00119	5f		 pop	 edi
  0011a	c6 40 14 01	 mov	 BYTE PTR [eax+20], 1

; 1720 : 		return (iterator(_Newnode, this));

  0011e	8b 45 08	 mov	 eax, DWORD PTR ___$ReturnUdt$[ebp]
  00121	5e		 pop	 esi
  00122	89 18		 mov	 DWORD PTR [eax], ebx
  00124	5b		 pop	 ebx

; 1721 : 		}

  00125	5d		 pop	 ebp
  00126	c2 10 00	 ret	 16			; 00000010H
$LN185@Insert:
?_Insert@?$_Tree@V?$_Tmap_traits@KPAVCustomSoundData@@U?$less@K@std@@V?$allocator@U?$pair@$$CBKPAVCustomSoundData@@@std@@@3@$0A@@std@@@std@@IAE?AV?$_Tree_iterator@V?$_Tree_val@V?$_Tmap_traits@KPAVCustomSoundData@@U?$less@K@std@@V?$allocator@U?$pair@$$CBKPAVCustomSoundData@@@std@@@3@$0A@@std@@@std@@@2@_NPAU_Node@?$_Tree_nod@V?$_Tmap_traits@KPAVCustomSoundData@@U?$less@K@std@@V?$allocator@U?$pair@$$CBKPAVCustomSoundData@@@std@@@3@$0A@@std@@@2@1@Z ENDP ; std::_Tree<std::_Tmap_traits<unsigned long,CustomSoundData *,std::less<unsigned long>,std::allocator<std::pair<unsigned long const ,CustomSoundData *> >,0> >::_Insert
_TEXT	ENDS
PUBLIC	??F?$_Tree_iterator@V?$_Tree_val@V?$_Tmap_traits@KPAVCustomSoundData@@U?$less@K@std@@V?$allocator@U?$pair@$$CBKPAVCustomSoundData@@@std@@@3@$0A@@std@@@std@@@std@@QAEAAV01@XZ ; std::_Tree_iterator<std::_Tree_val<std::_Tmap_traits<unsigned long,CustomSoundData *,std::less<unsigned long>,std::allocator<std::pair<unsigned long const ,CustomSoundData *> >,0> > >::operator--
; Function compile flags: /Ogsp
;	COMDAT ??F?$_Tree_iterator@V?$_Tree_val@V?$_Tmap_traits@KPAVCustomSoundData@@U?$less@K@std@@V?$allocator@U?$pair@$$CBKPAVCustomSoundData@@@std@@@3@$0A@@std@@@std@@@std@@QAEAAV01@XZ
_TEXT	SEGMENT
??F?$_Tree_iterator@V?$_Tree_val@V?$_Tmap_traits@KPAVCustomSoundData@@U?$less@K@std@@V?$allocator@U?$pair@$$CBKPAVCustomSoundData@@@std@@@3@$0A@@std@@@std@@@std@@QAEAAV01@XZ PROC ; std::_Tree_iterator<std::_Tree_val<std::_Tmap_traits<unsigned long,CustomSoundData *,std::less<unsigned long>,std::allocator<std::pair<unsigned long const ,CustomSoundData *> >,0> > >::operator--, COMDAT
; _this$ = ecx

; 418  : 		{	// predecrement

  00000	56		 push	 esi
  00001	8b f1		 mov	 esi, ecx

; 419  : 		--(*(_Mybase *)this);

  00003	e8 00 00 00 00	 call	 ??F?$_Tree_unchecked_const_iterator@V?$_Tree_val@V?$_Tmap_traits@KPAVCustomSoundData@@U?$less@K@std@@V?$allocator@U?$pair@$$CBKPAVCustomSoundData@@@std@@@3@$0A@@std@@@std@@U_Iterator_base0@2@@std@@QAEAAV01@XZ ; std::_Tree_unchecked_const_iterator<std::_Tree_val<std::_Tmap_traits<unsigned long,CustomSoundData *,std::less<unsigned long>,std::allocator<std::pair<unsigned long const ,CustomSoundData *> >,0> >,std::_Iterator_base0>::operator--

; 420  : 		return (*this);

  00008	8b c6		 mov	 eax, esi
  0000a	5e		 pop	 esi

; 421  : 		}

  0000b	c3		 ret	 0
??F?$_Tree_iterator@V?$_Tree_val@V?$_Tmap_traits@KPAVCustomSoundData@@U?$less@K@std@@V?$allocator@U?$pair@$$CBKPAVCustomSoundData@@@std@@@3@$0A@@std@@@std@@@std@@QAEAAV01@XZ ENDP ; std::_Tree_iterator<std::_Tree_val<std::_Tmap_traits<unsigned long,CustomSoundData *,std::less<unsigned long>,std::allocator<std::pair<unsigned long const ,CustomSoundData *> >,0> > >::operator--
_TEXT	ENDS
PUBLIC	??$_Destroy_range@V?$allocator@UtagNetworkInfo@CustomSoundData@@@std@@@std@@YAXPAUtagNetworkInfo@CustomSoundData@@0AAV?$allocator@UtagNetworkInfo@CustomSoundData@@@0@U_Nonscalar_ptr_iterator_tag@0@@Z ; std::_Destroy_range<std::allocator<CustomSoundData::tagNetworkInfo> >
; Function compile flags: /Ogsp
; File c:\program files (x86)\microsoft visual studio 10.0\vc\include\xmemory
;	COMDAT ??$_Destroy_range@V?$allocator@UtagNetworkInfo@CustomSoundData@@@std@@@std@@YAXPAUtagNetworkInfo@CustomSoundData@@0AAV?$allocator@UtagNetworkInfo@CustomSoundData@@@0@U_Nonscalar_ptr_iterator_tag@0@@Z
_TEXT	SEGMENT
__First$ = 8						; size = 4
__Last$ = 12						; size = 4
__Al$ = 16						; size = 4
___formal$ = 20						; size = 1
??$_Destroy_range@V?$allocator@UtagNetworkInfo@CustomSoundData@@@std@@@std@@YAXPAUtagNetworkInfo@CustomSoundData@@0AAV?$allocator@UtagNetworkInfo@CustomSoundData@@@0@U_Nonscalar_ptr_iterator_tag@0@@Z PROC ; std::_Destroy_range<std::allocator<CustomSoundData::tagNetworkInfo> >, COMDAT

; 96   : 	for (; _First != _Last; ++_First)
; 97   : 		_Dest_val(_Al, _First);
; 98   : 	}

  00000	c3		 ret	 0
??$_Destroy_range@V?$allocator@UtagNetworkInfo@CustomSoundData@@@std@@@std@@YAXPAUtagNetworkInfo@CustomSoundData@@0AAV?$allocator@UtagNetworkInfo@CustomSoundData@@@0@U_Nonscalar_ptr_iterator_tag@0@@Z ENDP ; std::_Destroy_range<std::allocator<CustomSoundData::tagNetworkInfo> >
_TEXT	ENDS
PUBLIC	??$_Uninit_move@PAUtagNetworkInfo@CustomSoundData@@PAU12@V?$allocator@UtagNetworkInfo@CustomSoundData@@@std@@U12@@std@@YAPAUtagNetworkInfo@CustomSoundData@@PAU12@00AAV?$allocator@UtagNetworkInfo@CustomSoundData@@@0@0U_Nonscalar_ptr_iterator_tag@0@@Z ; std::_Uninit_move<CustomSoundData::tagNetworkInfo *,CustomSoundData::tagNetworkInfo *,std::allocator<CustomSoundData::tagNetworkInfo>,CustomSoundData::tagNetworkInfo>
; Function compile flags: /Ogsp
; File c:\program files (x86)\microsoft visual studio 10.0\vc\include\memory
;	COMDAT ??$_Uninit_move@PAUtagNetworkInfo@CustomSoundData@@PAU12@V?$allocator@UtagNetworkInfo@CustomSoundData@@@std@@U12@@std@@YAPAUtagNetworkInfo@CustomSoundData@@PAU12@00AAV?$allocator@UtagNetworkInfo@CustomSoundData@@@0@0U_Nonscalar_ptr_iterator_tag@0@@Z
_TEXT	SEGMENT
__First$ = 8						; size = 4
__Last$ = 12						; size = 4
__Dest$ = 16						; size = 4
__Al$ = 20						; size = 4
___formal$ = 24						; size = 4
___formal$ = 28						; size = 1
??$_Uninit_move@PAUtagNetworkInfo@CustomSoundData@@PAU12@V?$allocator@UtagNetworkInfo@CustomSoundData@@@std@@U12@@std@@YAPAUtagNetworkInfo@CustomSoundData@@PAU12@00AAV?$allocator@UtagNetworkInfo@CustomSoundData@@@0@0U_Nonscalar_ptr_iterator_tag@0@@Z PROC ; std::_Uninit_move<CustomSoundData::tagNetworkInfo *,CustomSoundData::tagNetworkInfo *,std::allocator<CustomSoundData::tagNetworkInfo>,CustomSoundData::tagNetworkInfo>, COMDAT

; 424  : 	{	// move [_First, _Last) to raw _Dest, using _Al, arbitrary type

  00000	55		 push	 ebp
  00001	8b ec		 mov	 ebp, esp
  00003	56		 push	 esi

; 425  : 	_DEBUG_RANGE(_First, _Last);
; 426  : 	_DEBUG_POINTER(_Dest);
; 427  : 	_FwdIt _Next = _Dest;
; 428  : 
; 429  : 	_TRY_BEGIN
; 430  : 	for (; _First != _Last; ++_Dest, ++_First)

  00004	8b 75 08	 mov	 esi, DWORD PTR __First$[ebp]
  00007	eb 16		 jmp	 SHORT $LN24@Uninit_mov
$LL6@Uninit_mov:

; 431  : 		_Cons_val(_Al, _Dest, (_Valty &&)*_First);

  00009	56		 push	 esi
  0000a	ff 75 10	 push	 DWORD PTR __Dest$[ebp]
  0000d	ff 75 14	 push	 DWORD PTR __Al$[ebp]
  00010	e8 00 00 00 00	 call	 ??$_Cons_val@V?$allocator@UtagNetworkInfo@CustomSoundData@@@std@@UtagNetworkInfo@CustomSoundData@@U34@@std@@YAXAAV?$allocator@UtagNetworkInfo@CustomSoundData@@@0@PAUtagNetworkInfo@CustomSoundData@@$$QAU23@@Z ; std::_Cons_val<std::allocator<CustomSoundData::tagNetworkInfo>,CustomSoundData::tagNetworkInfo,CustomSoundData::tagNetworkInfo>
  00015	83 45 10 08	 add	 DWORD PTR __Dest$[ebp], 8
  00019	83 c4 0c	 add	 esp, 12			; 0000000cH
  0001c	83 c6 08	 add	 esi, 8
$LN24@Uninit_mov:

; 425  : 	_DEBUG_RANGE(_First, _Last);
; 426  : 	_DEBUG_POINTER(_Dest);
; 427  : 	_FwdIt _Next = _Dest;
; 428  : 
; 429  : 	_TRY_BEGIN
; 430  : 	for (; _First != _Last; ++_Dest, ++_First)

  0001f	3b 75 0c	 cmp	 esi, DWORD PTR __Last$[ebp]
  00022	75 e5		 jne	 SHORT $LL6@Uninit_mov

; 432  : 	_CATCH_ALL
; 433  : 	for (; _Next != _Dest; ++_Next)
; 434  : 		_Dest_val(_Al, _Next);
; 435  : 	_RERAISE;
; 436  : 	_CATCH_END
; 437  : 	return (_Dest);

  00024	8b 45 10	 mov	 eax, DWORD PTR __Dest$[ebp]
  00027	5e		 pop	 esi

; 438  : 	}

  00028	5d		 pop	 ebp
  00029	c3		 ret	 0
??$_Uninit_move@PAUtagNetworkInfo@CustomSoundData@@PAU12@V?$allocator@UtagNetworkInfo@CustomSoundData@@@std@@U12@@std@@YAPAUtagNetworkInfo@CustomSoundData@@PAU12@00AAV?$allocator@UtagNetworkInfo@CustomSoundData@@@0@0U_Nonscalar_ptr_iterator_tag@0@@Z ENDP ; std::_Uninit_move<CustomSoundData::tagNetworkInfo *,CustomSoundData::tagNetworkInfo *,std::allocator<CustomSoundData::tagNetworkInfo>,CustomSoundData::tagNetworkInfo>
_TEXT	ENDS
PUBLIC	?construct@?$allocator@U?$pair@$$CBKPAVCustomSoundData@@@std@@@std@@QAEXPAU?$pair@$$CBKPAVCustomSoundData@@@2@$$QAU32@@Z ; std::allocator<std::pair<unsigned long const ,CustomSoundData *> >::construct
; Function compile flags: /Ogsp
; File c:\program files (x86)\microsoft visual studio 10.0\vc\include\xmemory
;	COMDAT ?construct@?$allocator@U?$pair@$$CBKPAVCustomSoundData@@@std@@@std@@QAEXPAU?$pair@$$CBKPAVCustomSoundData@@@2@$$QAU32@@Z
_TEXT	SEGMENT
__Ptr$ = 8						; size = 4
__Val$ = 12						; size = 4
?construct@?$allocator@U?$pair@$$CBKPAVCustomSoundData@@@std@@@std@@QAEXPAU?$pair@$$CBKPAVCustomSoundData@@@2@$$QAU32@@Z PROC ; std::allocator<std::pair<unsigned long const ,CustomSoundData *> >::construct, COMDAT
; _this$ = ecx

; 201  : 		{	// construct object at _Ptr with value _Val

  00000	55		 push	 ebp
  00001	8b ec		 mov	 ebp, esp

; 202  : 		::new ((void _FARQ *)_Ptr) _Ty(_STD forward<_Ty>(_Val));

  00003	8b 45 08	 mov	 eax, DWORD PTR __Ptr$[ebp]
  00006	85 c0		 test	 eax, eax
  00008	74 0d		 je	 SHORT $LN3@construct@8
  0000a	8b 4d 0c	 mov	 ecx, DWORD PTR __Val$[ebp]
  0000d	8b 11		 mov	 edx, DWORD PTR [ecx]
  0000f	89 10		 mov	 DWORD PTR [eax], edx
  00011	8b 49 04	 mov	 ecx, DWORD PTR [ecx+4]
  00014	89 48 04	 mov	 DWORD PTR [eax+4], ecx
$LN3@construct@8:

; 203  : 		}

  00017	5d		 pop	 ebp
  00018	c2 08 00	 ret	 8
?construct@?$allocator@U?$pair@$$CBKPAVCustomSoundData@@@std@@@std@@QAEXPAU?$pair@$$CBKPAVCustomSoundData@@@2@$$QAU32@@Z ENDP ; std::allocator<std::pair<unsigned long const ,CustomSoundData *> >::construct
_TEXT	ENDS
PUBLIC	??0?$_Tree@V?$_Tmap_traits@KPAVCustomSoundData@@U?$less@K@std@@V?$allocator@U?$pair@$$CBKPAVCustomSoundData@@@std@@@3@$0A@@std@@@std@@QAE@ABU?$less@K@1@ABV?$allocator@U?$pair@$$CBKPAVCustomSoundData@@@std@@@1@@Z ; std::_Tree<std::_Tmap_traits<unsigned long,CustomSoundData *,std::less<unsigned long>,std::allocator<std::pair<unsigned long const ,CustomSoundData *> >,0> >::_Tree<std::_Tmap_traits<unsigned long,CustomSoundData *,std::less<unsigned long>,std::allocator<std::pair<unsigned long const ,CustomSoundData *> >,0> >
; Function compile flags: /Ogsp
; File c:\program files (x86)\microsoft visual studio 10.0\vc\include\xtree
;	COMDAT ??0?$_Tree@V?$_Tmap_traits@KPAVCustomSoundData@@U?$less@K@std@@V?$allocator@U?$pair@$$CBKPAVCustomSoundData@@@std@@@3@$0A@@std@@@std@@QAE@ABU?$less@K@1@ABV?$allocator@U?$pair@$$CBKPAVCustomSoundData@@@std@@@1@@Z
_TEXT	SEGMENT
$T515029 = -4						; size = 4
$T515024 = -4						; size = 4
__Parg$ = 8						; size = 4
__Al$ = 12						; size = 4
??0?$_Tree@V?$_Tmap_traits@KPAVCustomSoundData@@U?$less@K@std@@V?$allocator@U?$pair@$$CBKPAVCustomSoundData@@@std@@@3@$0A@@std@@@std@@QAE@ABU?$less@K@1@ABV?$allocator@U?$pair@$$CBKPAVCustomSoundData@@@std@@@1@@Z PROC ; std::_Tree<std::_Tmap_traits<unsigned long,CustomSoundData *,std::less<unsigned long>,std::allocator<std::pair<unsigned long const ,CustomSoundData *> >,0> >::_Tree<std::_Tmap_traits<unsigned long,CustomSoundData *,std::less<unsigned long>,std::allocator<std::pair<unsigned long const ,CustomSoundData *> >,0> >, COMDAT
; _this$ = ecx

; 698  : 		{	// construct empty tree

  00000	55		 push	 ebp
  00001	8b ec		 mov	 ebp, esp
  00003	51		 push	 ecx
  00004	56		 push	 esi
  00005	51		 push	 ecx
  00006	89 65 fc	 mov	 DWORD PTR $T515024[ebp], esp
  00009	89 65 fc	 mov	 DWORD PTR $T515029[ebp], esp
  0000c	ff 75 08	 push	 DWORD PTR __Parg$[ebp]
  0000f	8b f1		 mov	 esi, ecx
  00011	e8 00 00 00 00	 call	 ??0?$_Tree_val@V?$_Tmap_traits@KPAVCustomSoundData@@U?$less@K@std@@V?$allocator@U?$pair@$$CBKPAVCustomSoundData@@@std@@@3@$0A@@std@@@std@@QAE@ABU?$less@K@1@V?$allocator@U?$pair@$$CBKPAVCustomSoundData@@@std@@@1@@Z ; std::_Tree_val<std::_Tmap_traits<unsigned long,CustomSoundData *,std::less<unsigned long>,std::allocator<std::pair<unsigned long const ,CustomSoundData *> >,0> >::_Tree_val<std::_Tmap_traits<unsigned long,CustomSoundData *,std::less<unsigned long>,std::allocator<std::pair<unsigned long const ,CustomSoundData *> >,0> >

; 699  : 		}

  00016	8b c6		 mov	 eax, esi
  00018	5e		 pop	 esi
  00019	c9		 leave
  0001a	c2 08 00	 ret	 8
??0?$_Tree@V?$_Tmap_traits@KPAVCustomSoundData@@U?$less@K@std@@V?$allocator@U?$pair@$$CBKPAVCustomSoundData@@@std@@@3@$0A@@std@@@std@@QAE@ABU?$less@K@1@ABV?$allocator@U?$pair@$$CBKPAVCustomSoundData@@@std@@@1@@Z ENDP ; std::_Tree<std::_Tmap_traits<unsigned long,CustomSoundData *,std::less<unsigned long>,std::allocator<std::pair<unsigned long const ,CustomSoundData *> >,0> >::_Tree<std::_Tmap_traits<unsigned long,CustomSoundData *,std::less<unsigned long>,std::allocator<std::pair<unsigned long const ,CustomSoundData *> >,0> >
_TEXT	ENDS
PUBLIC	?begin@?$_Tree@V?$_Tmap_traits@KPAVCustomSoundData@@U?$less@K@std@@V?$allocator@U?$pair@$$CBKPAVCustomSoundData@@@std@@@3@$0A@@std@@@std@@QAE?AV?$_Tree_iterator@V?$_Tree_val@V?$_Tmap_traits@KPAVCustomSoundData@@U?$less@K@std@@V?$allocator@U?$pair@$$CBKPAVCustomSoundData@@@std@@@3@$0A@@std@@@std@@@2@XZ ; std::_Tree<std::_Tmap_traits<unsigned long,CustomSoundData *,std::less<unsigned long>,std::allocator<std::pair<unsigned long const ,CustomSoundData *> >,0> >::begin
; Function compile flags: /Ogsp
;	COMDAT ?begin@?$_Tree@V?$_Tmap_traits@KPAVCustomSoundData@@U?$less@K@std@@V?$allocator@U?$pair@$$CBKPAVCustomSoundData@@@std@@@3@$0A@@std@@@std@@QAE?AV?$_Tree_iterator@V?$_Tree_val@V?$_Tmap_traits@KPAVCustomSoundData@@U?$less@K@std@@V?$allocator@U?$pair@$$CBKPAVCustomSoundData@@@std@@@3@$0A@@std@@@std@@@2@XZ
_TEXT	SEGMENT
___$ReturnUdt$ = 8					; size = 4
?begin@?$_Tree@V?$_Tmap_traits@KPAVCustomSoundData@@U?$less@K@std@@V?$allocator@U?$pair@$$CBKPAVCustomSoundData@@@std@@@3@$0A@@std@@@std@@QAE?AV?$_Tree_iterator@V?$_Tree_val@V?$_Tmap_traits@KPAVCustomSoundData@@U?$less@K@std@@V?$allocator@U?$pair@$$CBKPAVCustomSoundData@@@std@@@3@$0A@@std@@@std@@@2@XZ PROC ; std::_Tree<std::_Tmap_traits<unsigned long,CustomSoundData *,std::less<unsigned long>,std::allocator<std::pair<unsigned long const ,CustomSoundData *> >,0> >::begin, COMDAT
; _this$ = ecx

; 806  : 		{	// return iterator for beginning of mutable sequence

  00000	55		 push	 ebp
  00001	8b ec		 mov	 ebp, esp

; 807  : 		return (iterator(_Lmost(), this));

  00003	8b 41 04	 mov	 eax, DWORD PTR [ecx+4]
  00006	8b 08		 mov	 ecx, DWORD PTR [eax]
  00008	8b 45 08	 mov	 eax, DWORD PTR ___$ReturnUdt$[ebp]
  0000b	89 08		 mov	 DWORD PTR [eax], ecx

; 808  : 		}

  0000d	5d		 pop	 ebp
  0000e	c2 04 00	 ret	 4
?begin@?$_Tree@V?$_Tmap_traits@KPAVCustomSoundData@@U?$less@K@std@@V?$allocator@U?$pair@$$CBKPAVCustomSoundData@@@std@@@3@$0A@@std@@@std@@QAE?AV?$_Tree_iterator@V?$_Tree_val@V?$_Tmap_traits@KPAVCustomSoundData@@U?$less@K@std@@V?$allocator@U?$pair@$$CBKPAVCustomSoundData@@@std@@@3@$0A@@std@@@std@@@2@XZ ENDP ; std::_Tree<std::_Tmap_traits<unsigned long,CustomSoundData *,std::less<unsigned long>,std::allocator<std::pair<unsigned long const ,CustomSoundData *> >,0> >::begin
_TEXT	ENDS
PUBLIC	?end@?$_Tree@V?$_Tmap_traits@KPAVCustomSoundData@@U?$less@K@std@@V?$allocator@U?$pair@$$CBKPAVCustomSoundData@@@std@@@3@$0A@@std@@@std@@QAE?AV?$_Tree_iterator@V?$_Tree_val@V?$_Tmap_traits@KPAVCustomSoundData@@U?$less@K@std@@V?$allocator@U?$pair@$$CBKPAVCustomSoundData@@@std@@@3@$0A@@std@@@std@@@2@XZ ; std::_Tree<std::_Tmap_traits<unsigned long,CustomSoundData *,std::less<unsigned long>,std::allocator<std::pair<unsigned long const ,CustomSoundData *> >,0> >::end
; Function compile flags: /Ogsp
;	COMDAT ?end@?$_Tree@V?$_Tmap_traits@KPAVCustomSoundData@@U?$less@K@std@@V?$allocator@U?$pair@$$CBKPAVCustomSoundData@@@std@@@3@$0A@@std@@@std@@QAE?AV?$_Tree_iterator@V?$_Tree_val@V?$_Tmap_traits@KPAVCustomSoundData@@U?$less@K@std@@V?$allocator@U?$pair@$$CBKPAVCustomSoundData@@@std@@@3@$0A@@std@@@std@@@2@XZ
_TEXT	SEGMENT
___$ReturnUdt$ = 8					; size = 4
?end@?$_Tree@V?$_Tmap_traits@KPAVCustomSoundData@@U?$less@K@std@@V?$allocator@U?$pair@$$CBKPAVCustomSoundData@@@std@@@3@$0A@@std@@@std@@QAE?AV?$_Tree_iterator@V?$_Tree_val@V?$_Tmap_traits@KPAVCustomSoundData@@U?$less@K@std@@V?$allocator@U?$pair@$$CBKPAVCustomSoundData@@@std@@@3@$0A@@std@@@std@@@2@XZ PROC ; std::_Tree<std::_Tmap_traits<unsigned long,CustomSoundData *,std::less<unsigned long>,std::allocator<std::pair<unsigned long const ,CustomSoundData *> >,0> >::end, COMDAT
; _this$ = ecx

; 816  : 		{	// return iterator for end of mutable sequence

  00000	55		 push	 ebp
  00001	8b ec		 mov	 ebp, esp

; 817  : 		return (iterator(this->_Myhead, this));

  00003	8b 49 04	 mov	 ecx, DWORD PTR [ecx+4]
  00006	8b 45 08	 mov	 eax, DWORD PTR ___$ReturnUdt$[ebp]
  00009	89 08		 mov	 DWORD PTR [eax], ecx

; 818  : 		}

  0000b	5d		 pop	 ebp
  0000c	c2 04 00	 ret	 4
?end@?$_Tree@V?$_Tmap_traits@KPAVCustomSoundData@@U?$less@K@std@@V?$allocator@U?$pair@$$CBKPAVCustomSoundData@@@std@@@3@$0A@@std@@@std@@QAE?AV?$_Tree_iterator@V?$_Tree_val@V?$_Tmap_traits@KPAVCustomSoundData@@U?$less@K@std@@V?$allocator@U?$pair@$$CBKPAVCustomSoundData@@@std@@@3@$0A@@std@@@std@@@2@XZ ENDP ; std::_Tree<std::_Tmap_traits<unsigned long,CustomSoundData *,std::less<unsigned long>,std::allocator<std::pair<unsigned long const ,CustomSoundData *> >,0> >::end
_TEXT	ENDS
PUBLIC	??_C@_0BM@PAPJHAGI@invalid?5map?1set?$DMT?$DO?5iterator?$AA@ ; `string'
PUBLIC	?erase@?$_Tree@V?$_Tmap_traits@KPAVCustomSoundData@@U?$less@K@std@@V?$allocator@U?$pair@$$CBKPAVCustomSoundData@@@std@@@3@$0A@@std@@@std@@QAE?AV?$_Tree_iterator@V?$_Tree_val@V?$_Tmap_traits@KPAVCustomSoundData@@U?$less@K@std@@V?$allocator@U?$pair@$$CBKPAVCustomSoundData@@@std@@@3@$0A@@std@@@std@@@2@V?$_Tree_const_iterator@V?$_Tree_val@V?$_Tmap_traits@KPAVCustomSoundData@@U?$less@K@std@@V?$allocator@U?$pair@$$CBKPAVCustomSoundData@@@std@@@3@$0A@@std@@@std@@@2@@Z ; std::_Tree<std::_Tmap_traits<unsigned long,CustomSoundData *,std::less<unsigned long>,std::allocator<std::pair<unsigned long const ,CustomSoundData *> >,0> >::erase
EXTRN	__imp_?_Xout_of_range@std@@YAXPBD@Z:PROC
;	COMDAT ??_C@_0BM@PAPJHAGI@invalid?5map?1set?$DMT?$DO?5iterator?$AA@
; File c:\program files (x86)\microsoft visual studio 10.0\vc\include\xutility
CONST	SEGMENT
??_C@_0BM@PAPJHAGI@invalid?5map?1set?$DMT?$DO?5iterator?$AA@ DB 'invalid '
	DB	'map/set<T> iterator', 00H			; `string'
; Function compile flags: /Ogsp
; File c:\program files (x86)\microsoft visual studio 10.0\vc\include\xtree
CONST	ENDS
;	COMDAT ?erase@?$_Tree@V?$_Tmap_traits@KPAVCustomSoundData@@U?$less@K@std@@V?$allocator@U?$pair@$$CBKPAVCustomSoundData@@@std@@@3@$0A@@std@@@std@@QAE?AV?$_Tree_iterator@V?$_Tree_val@V?$_Tmap_traits@KPAVCustomSoundData@@U?$less@K@std@@V?$allocator@U?$pair@$$CBKPAVCustomSoundData@@@std@@@3@$0A@@std@@@std@@@2@V?$_Tree_const_iterator@V?$_Tree_val@V?$_Tmap_traits@KPAVCustomSoundData@@U?$less@K@std@@V?$allocator@U?$pair@$$CBKPAVCustomSoundData@@@std@@@3@$0A@@std@@@std@@@2@@Z
_TEXT	SEGMENT
_this$ = -4						; size = 4
___$ReturnUdt$ = 8					; size = 4
__Where$ = 12						; size = 4
?erase@?$_Tree@V?$_Tmap_traits@KPAVCustomSoundData@@U?$less@K@std@@V?$allocator@U?$pair@$$CBKPAVCustomSoundData@@@std@@@3@$0A@@std@@@std@@QAE?AV?$_Tree_iterator@V?$_Tree_val@V?$_Tmap_traits@KPAVCustomSoundData@@U?$less@K@std@@V?$allocator@U?$pair@$$CBKPAVCustomSoundData@@@std@@@3@$0A@@std@@@std@@@2@V?$_Tree_const_iterator@V?$_Tree_val@V?$_Tmap_traits@KPAVCustomSoundData@@U?$less@K@std@@V?$allocator@U?$pair@$$CBKPAVCustomSoundData@@@std@@@3@$0A@@std@@@std@@@2@@Z PROC ; std::_Tree<std::_Tmap_traits<unsigned long,CustomSoundData *,std::less<unsigned long>,std::allocator<std::pair<unsigned long const ,CustomSoundData *> >,0> >::erase, COMDAT
; _this$ = ecx

; 1195 : 		{	// erase element at _Where

  00000	55		 push	 ebp
  00001	8b ec		 mov	 ebp, esp
  00003	51		 push	 ecx
  00004	53		 push	 ebx

; 1196 :  #if _ITERATOR_DEBUG_LEVEL == 2
; 1197 : 		if (_Where._Getcont() != this || this->_Isnil(_Where._Mynode()))
; 1198 : 			_DEBUG_ERROR("map/set erase iterator outside range");
; 1199 : 		_Nodeptr _Erasednode = _Where._Mynode();	// node to erase
; 1200 : 		++_Where;	// save successor iterator for return
; 1201 : 		_Orphan_ptr(*this, _Erasednode);
; 1202 : 
; 1203 :  #else /* _ITERATOR_DEBUG_LEVEL == 2 */
; 1204 : 		if (this->_Isnil(_Where._Mynode()))

  00005	8b 5d 0c	 mov	 ebx, DWORD PTR __Where$[ebp]
  00008	80 7b 15 00	 cmp	 BYTE PTR [ebx+21], 0
  0000c	56		 push	 esi
  0000d	57		 push	 edi
  0000e	89 4d fc	 mov	 DWORD PTR _this$[ebp], ecx
  00011	74 0b		 je	 SHORT $LN40@erase@2

; 1205 : 			_Xout_of_range("invalid map/set<T> iterator");

  00013	68 00 00 00 00	 push	 OFFSET ??_C@_0BM@PAPJHAGI@invalid?5map?1set?$DMT?$DO?5iterator?$AA@
  00018	ff 15 00 00 00
	00		 call	 DWORD PTR __imp_?_Xout_of_range@std@@YAXPBD@Z
$LN329@erase@2:
$LN40@erase@2:

; 1206 : 		_Nodeptr _Erasednode = _Where._Mynode();	// node to erase
; 1207 : 		++_Where;	// save successor iterator for return

  0001e	8d 4d 0c	 lea	 ecx, DWORD PTR __Where$[ebp]
  00021	e8 00 00 00 00	 call	 ??E?$_Tree_unchecked_const_iterator@V?$_Tree_val@V?$_Tmap_traits@KPAVCustomSoundData@@U?$less@K@std@@V?$allocator@U?$pair@$$CBKPAVCustomSoundData@@@std@@@3@$0A@@std@@@std@@U_Iterator_base0@2@@std@@QAEAAV01@XZ ; std::_Tree_unchecked_const_iterator<std::_Tree_val<std::_Tmap_traits<unsigned long,CustomSoundData *,std::less<unsigned long>,std::allocator<std::pair<unsigned long const ,CustomSoundData *> >,0> >,std::_Iterator_base0>::operator++

; 1208 :  #endif /* _ITERATOR_DEBUG_LEVEL == 2 */
; 1209 : 
; 1210 : 		_Nodeptr _Fixnode;	// the node to recolor as needed
; 1211 : 		_Nodeptr _Fixnodeparent;	// parent of _Fixnode (which may be nil)
; 1212 : 		_Nodeptr _Pnode = _Erasednode;
; 1213 : 
; 1214 : 		if (this->_Isnil(this->_Left(_Pnode)))

  00026	8b 13		 mov	 edx, DWORD PTR [ebx]
  00028	80 7a 15 00	 cmp	 BYTE PTR [edx+21], 0
  0002c	74 05		 je	 SHORT $LN39@erase@2

; 1215 : 			_Fixnode = this->_Right(_Pnode);	// stitch up right subtree

  0002e	8b 7b 08	 mov	 edi, DWORD PTR [ebx+8]

; 1216 : 		else if (this->_Isnil(this->_Right(_Pnode)))

  00031	eb 17		 jmp	 SHORT $LN321@erase@2
$LN39@erase@2:
  00033	8b 43 08	 mov	 eax, DWORD PTR [ebx+8]
  00036	80 78 15 00	 cmp	 BYTE PTR [eax+21], 0
  0003a	74 04		 je	 SHORT $LN37@erase@2

; 1217 : 			_Fixnode = this->_Left(_Pnode);	// stitch up left subtree

  0003c	8b fa		 mov	 edi, edx

; 1218 : 		else

  0003e	eb 0a		 jmp	 SHORT $LN321@erase@2
$LN37@erase@2:

; 1219 : 			{	// two subtrees, must lift successor node to replace erased
; 1220 : 			_Pnode = _Where._Mynode();	// _Pnode is successor node

  00040	8b 45 0c	 mov	 eax, DWORD PTR __Where$[ebp]

; 1221 : 			_Fixnode = this->_Right(_Pnode);	// _Fixnode is only subtree

  00043	8b 78 08	 mov	 edi, DWORD PTR [eax+8]

; 1222 : 			}
; 1223 : 
; 1224 : 		if (_Pnode == _Erasednode)

  00046	3b c3		 cmp	 eax, ebx
  00048	75 76		 jne	 SHORT $LN35@erase@2
$LN321@erase@2:

; 1225 : 			{	// at most one subtree, relink it
; 1226 : 			_Fixnodeparent = this->_Parent(_Erasednode);
; 1227 : 			if (!this->_Isnil(_Fixnode))

  0004a	80 7f 15 00	 cmp	 BYTE PTR [edi+21], 0
  0004e	8b 73 04	 mov	 esi, DWORD PTR [ebx+4]
  00051	75 03		 jne	 SHORT $LN34@erase@2

; 1228 : 				this->_Parent(_Fixnode) = _Fixnodeparent;	// link up

  00053	89 77 04	 mov	 DWORD PTR [edi+4], esi
$LN34@erase@2:

; 1229 : 
; 1230 : 			if (_Root() == _Erasednode)

  00056	8b 4d fc	 mov	 ecx, DWORD PTR _this$[ebp]
  00059	8b 41 04	 mov	 eax, DWORD PTR [ecx+4]
  0005c	39 58 04	 cmp	 DWORD PTR [eax+4], ebx
  0005f	75 05		 jne	 SHORT $LN33@erase@2

; 1231 : 				_Root() = _Fixnode;	// link down from root

  00061	89 78 04	 mov	 DWORD PTR [eax+4], edi

; 1232 : 			else if (this->_Left(_Fixnodeparent) == _Erasednode)

  00064	eb 0b		 jmp	 SHORT $LN30@erase@2
$LN33@erase@2:
  00066	39 1e		 cmp	 DWORD PTR [esi], ebx
  00068	75 04		 jne	 SHORT $LN31@erase@2

; 1233 : 				this->_Left(_Fixnodeparent) = _Fixnode;	// link down to left

  0006a	89 3e		 mov	 DWORD PTR [esi], edi

; 1234 : 			else

  0006c	eb 03		 jmp	 SHORT $LN30@erase@2
$LN31@erase@2:

; 1235 : 				this->_Right(_Fixnodeparent) =
; 1236 : 					_Fixnode;	// link down to right

  0006e	89 7e 08	 mov	 DWORD PTR [esi+8], edi
$LN30@erase@2:

; 1237 : 
; 1238 : 			if (_Lmost() == _Erasednode)

  00071	8b 49 04	 mov	 ecx, DWORD PTR [ecx+4]
  00074	39 19		 cmp	 DWORD PTR [ecx], ebx
  00076	75 1c		 jne	 SHORT $LN29@erase@2

; 1239 : 				_Lmost() = this->_Isnil(_Fixnode)
; 1240 : 					? _Fixnodeparent	// smallest is parent of erased node
; 1241 : 					: this->_Min(_Fixnode);	// smallest in relinked subtree

  00078	80 7f 15 00	 cmp	 BYTE PTR [edi+21], 0
  0007c	74 04		 je	 SHORT $LN43@erase@2
  0007e	8b d6		 mov	 edx, esi
  00080	eb 10		 jmp	 SHORT $LN97@erase@2
$LN43@erase@2:
  00082	8b 07		 mov	 eax, DWORD PTR [edi]
  00084	8b d7		 mov	 edx, edi
  00086	eb 04		 jmp	 SHORT $LN323@erase@2
$LL98@erase@2:
  00088	8b d0		 mov	 edx, eax
  0008a	8b 02		 mov	 eax, DWORD PTR [edx]
$LN323@erase@2:
  0008c	80 78 15 00	 cmp	 BYTE PTR [eax+21], 0
  00090	74 f6		 je	 SHORT $LL98@erase@2
$LN97@erase@2:
  00092	89 11		 mov	 DWORD PTR [ecx], edx
$LN29@erase@2:

; 1242 : 
; 1243 : 			if (_Rmost() == _Erasednode)

  00094	8b 45 fc	 mov	 eax, DWORD PTR _this$[ebp]
  00097	8b 48 04	 mov	 ecx, DWORD PTR [eax+4]
  0009a	39 59 08	 cmp	 DWORD PTR [ecx+8], ebx
  0009d	75 7b		 jne	 SHORT $LN185@erase@2

; 1244 : 				_Rmost() = this->_Isnil(_Fixnode)
; 1245 : 					? _Fixnodeparent	// largest is parent of erased node
; 1246 : 					: this->_Max(_Fixnode);	// largest in relinked subtree

  0009f	80 7f 15 00	 cmp	 BYTE PTR [edi+21], 0
  000a3	74 04		 je	 SHORT $LN45@erase@2
  000a5	8b d6		 mov	 edx, esi
  000a7	eb 12		 jmp	 SHORT $LN117@erase@2
$LN45@erase@2:
  000a9	8b 47 08	 mov	 eax, DWORD PTR [edi+8]
  000ac	8b d7		 mov	 edx, edi
  000ae	eb 05		 jmp	 SHORT $LN324@erase@2
$LL118@erase@2:
  000b0	8b d0		 mov	 edx, eax
  000b2	8b 42 08	 mov	 eax, DWORD PTR [edx+8]
$LN324@erase@2:
  000b5	80 78 15 00	 cmp	 BYTE PTR [eax+21], 0
  000b9	74 f5		 je	 SHORT $LL118@erase@2
$LN117@erase@2:
  000bb	89 51 08	 mov	 DWORD PTR [ecx+8], edx

; 1247 : 			}
; 1248 : 		else

  000be	eb 5a		 jmp	 SHORT $LN185@erase@2
$LN35@erase@2:

; 1249 : 			{	// erased has two subtrees, _Pnode is successor to erased
; 1250 : 			this->_Parent(this->_Left(_Erasednode)) =
; 1251 : 				_Pnode;	// link left up

  000c0	89 42 04	 mov	 DWORD PTR [edx+4], eax

; 1252 : 			this->_Left(_Pnode) =
; 1253 : 				this->_Left(_Erasednode);	// link successor down

  000c3	8b 13		 mov	 edx, DWORD PTR [ebx]
  000c5	89 10		 mov	 DWORD PTR [eax], edx

; 1254 : 
; 1255 : 			if (_Pnode == this->_Right(_Erasednode))

  000c7	3b 43 08	 cmp	 eax, DWORD PTR [ebx+8]
  000ca	75 04		 jne	 SHORT $LN26@erase@2

; 1256 : 				_Fixnodeparent = _Pnode;	// successor is next to erased

  000cc	8b f0		 mov	 esi, eax

; 1257 : 			else

  000ce	eb 1a		 jmp	 SHORT $LN25@erase@2
$LN26@erase@2:

; 1258 : 				{	// successor further down, link in place of erased
; 1259 : 				_Fixnodeparent =
; 1260 : 					this->_Parent(_Pnode);	// parent is successor's
; 1261 : 				if (!this->_Isnil(_Fixnode))

  000d0	80 7f 15 00	 cmp	 BYTE PTR [edi+21], 0
  000d4	8b 70 04	 mov	 esi, DWORD PTR [eax+4]
  000d7	75 03		 jne	 SHORT $LN24@erase@2

; 1262 : 					this->_Parent(_Fixnode) = _Fixnodeparent;	// link fix up

  000d9	89 77 04	 mov	 DWORD PTR [edi+4], esi
$LN24@erase@2:

; 1263 : 				this->_Left(_Fixnodeparent) = _Fixnode;	// link fix down

  000dc	89 3e		 mov	 DWORD PTR [esi], edi

; 1264 : 				this->_Right(_Pnode) =
; 1265 : 					this->_Right(_Erasednode);	// link next down

  000de	8b 53 08	 mov	 edx, DWORD PTR [ebx+8]
  000e1	89 50 08	 mov	 DWORD PTR [eax+8], edx

; 1266 : 				this->_Parent(this->_Right(_Erasednode)) =
; 1267 : 					_Pnode;	// right up

  000e4	8b 4b 08	 mov	 ecx, DWORD PTR [ebx+8]
  000e7	89 41 04	 mov	 DWORD PTR [ecx+4], eax
$LN25@erase@2:

; 1268 : 				}
; 1269 : 
; 1270 : 			if (_Root() == _Erasednode)

  000ea	8b 4d fc	 mov	 ecx, DWORD PTR _this$[ebp]
  000ed	8b 49 04	 mov	 ecx, DWORD PTR [ecx+4]
  000f0	39 59 04	 cmp	 DWORD PTR [ecx+4], ebx
  000f3	75 05		 jne	 SHORT $LN23@erase@2

; 1271 : 				_Root() = _Pnode;	// link down from root

  000f5	89 41 04	 mov	 DWORD PTR [ecx+4], eax

; 1272 : 			else if (this->_Left(this->_Parent(_Erasednode)) == _Erasednode)

  000f8	eb 0e		 jmp	 SHORT $LN20@erase@2
$LN23@erase@2:
  000fa	8b 4b 04	 mov	 ecx, DWORD PTR [ebx+4]
  000fd	39 19		 cmp	 DWORD PTR [ecx], ebx
  000ff	75 04		 jne	 SHORT $LN21@erase@2

; 1273 : 				this->_Left(this->_Parent(_Erasednode)) =
; 1274 : 					_Pnode;	// link down to left

  00101	89 01		 mov	 DWORD PTR [ecx], eax

; 1275 : 			else

  00103	eb 03		 jmp	 SHORT $LN20@erase@2
$LN21@erase@2:

; 1276 : 				this->_Right(this->_Parent(_Erasednode)) =
; 1277 : 					_Pnode;	// link down to right

  00105	89 41 08	 mov	 DWORD PTR [ecx+8], eax
$LN20@erase@2:

; 1278 : 
; 1279 : 			this->_Parent(_Pnode) =
; 1280 : 				this->_Parent(_Erasednode);	// link successor up

  00108	8b 4b 04	 mov	 ecx, DWORD PTR [ebx+4]
  0010b	89 48 04	 mov	 DWORD PTR [eax+4], ecx

; 1281 : 			_STD swap(this->_Color(_Pnode),
; 1282 : 				this->_Color(_Erasednode));	// recolor it

  0010e	8a 53 14	 mov	 dl, BYTE PTR [ebx+20]
  00111	8a 48 14	 mov	 cl, BYTE PTR [eax+20]
  00114	88 50 14	 mov	 BYTE PTR [eax+20], dl
  00117	88 4b 14	 mov	 BYTE PTR [ebx+20], cl
$LN185@erase@2:

; 1283 : 			}
; 1284 : 
; 1285 : 		if (this->_Color(_Erasednode) == this->_Black)

  0011a	80 7b 14 01	 cmp	 BYTE PTR [ebx+20], 1
  0011e	0f 85 03 01 00
	00		 jne	 $LN19@erase@2

; 1286 : 			{	// erasing black link, must recolor/rebalance tree
; 1287 : 			for (; _Fixnode != _Root()
; 1288 : 				&& this->_Color(_Fixnode) == this->_Black;
; 1289 : 				_Fixnodeparent = this->_Parent(_Fixnode))

  00124	e9 b2 00 00 00	 jmp	 $LN326@erase@2
$LL18@erase@2:
  00129	80 7f 14 01	 cmp	 BYTE PTR [edi+20], 1
  0012d	0f 85 f0 00 00
	00		 jne	 $LN16@erase@2

; 1290 : 				if (_Fixnode == this->_Left(_Fixnodeparent))

  00133	8b 06		 mov	 eax, DWORD PTR [esi]
  00135	3b f8		 cmp	 edi, eax
  00137	75 6c		 jne	 SHORT $LN15@erase@2

; 1291 : 					{	// fixup left subtree
; 1292 : 					_Pnode = this->_Right(_Fixnodeparent);

  00139	8b 46 08	 mov	 eax, DWORD PTR [esi+8]

; 1293 : 					if (this->_Color(_Pnode) == this->_Red)

  0013c	80 78 14 00	 cmp	 BYTE PTR [eax+20], 0
  00140	75 11		 jne	 SHORT $LN14@erase@2

; 1294 : 						{	// rotate red up from right subtree
; 1295 : 						this->_Color(_Pnode) = this->_Black;

  00142	c6 40 14 01	 mov	 BYTE PTR [eax+20], 1

; 1296 : 						this->_Color(_Fixnodeparent) = this->_Red;
; 1297 : 						_Lrotate(_Fixnodeparent);

  00146	56		 push	 esi
  00147	c6 46 14 00	 mov	 BYTE PTR [esi+20], 0
  0014b	e8 00 00 00 00	 call	 ?_Lrotate@?$_Tree@V?$_Tmap_traits@KPAVCustomSoundData@@U?$less@K@std@@V?$allocator@U?$pair@$$CBKPAVCustomSoundData@@@std@@@3@$0A@@std@@@std@@IAEXPAU_Node@?$_Tree_nod@V?$_Tmap_traits@KPAVCustomSoundData@@U?$less@K@std@@V?$allocator@U?$pair@$$CBKPAVCustomSoundData@@@std@@@3@$0A@@std@@@2@@Z ; std::_Tree<std::_Tmap_traits<unsigned long,CustomSoundData *,std::less<unsigned long>,std::allocator<std::pair<unsigned long const ,CustomSoundData *> >,0> >::_Lrotate

; 1298 : 						_Pnode = this->_Right(_Fixnodeparent);

  00150	8b 46 08	 mov	 eax, DWORD PTR [esi+8]
$LN14@erase@2:

; 1299 : 						}
; 1300 : 
; 1301 : 					if (this->_Isnil(_Pnode))

  00153	80 78 15 00	 cmp	 BYTE PTR [eax+21], 0

; 1302 : 						_Fixnode = _Fixnodeparent;	// shouldn't happen
; 1303 : 					else if (this->_Color(this->_Left(_Pnode)) == this->_Black

  00157	75 7d		 jne	 SHORT $LN327@erase@2

; 1304 : 						&& this->_Color(this->_Right(_Pnode)) == this->_Black)

  00159	8b 08		 mov	 ecx, DWORD PTR [eax]
  0015b	80 79 14 01	 cmp	 BYTE PTR [ecx+20], 1
  0015f	75 09		 jne	 SHORT $LN11@erase@2
  00161	8b 48 08	 mov	 ecx, DWORD PTR [eax+8]
  00164	80 79 14 01	 cmp	 BYTE PTR [ecx+20], 1
  00168	74 68		 je	 SHORT $LN328@erase@2
$LN11@erase@2:

; 1305 : 						{	// redden right subtree with black children
; 1306 : 						this->_Color(_Pnode) = this->_Red;
; 1307 : 						_Fixnode = _Fixnodeparent;
; 1308 : 						}
; 1309 : 					else
; 1310 : 						{	// must rearrange right subtree
; 1311 : 						if (this->_Color(this->_Right(_Pnode))
; 1312 : 							== this->_Black)

  0016a	8b 48 08	 mov	 ecx, DWORD PTR [eax+8]
  0016d	80 79 14 01	 cmp	 BYTE PTR [ecx+20], 1
  00171	75 16		 jne	 SHORT $LN9@erase@2

; 1313 : 							{	// rotate red up from left sub-subtree
; 1314 : 							this->_Color(this->_Left(_Pnode)) = this->_Black;

  00173	8b 08		 mov	 ecx, DWORD PTR [eax]
  00175	c6 41 14 01	 mov	 BYTE PTR [ecx+20], 1

; 1315 : 							this->_Color(_Pnode) = this->_Red;
; 1316 : 							_Rrotate(_Pnode);

  00179	8b 4d fc	 mov	 ecx, DWORD PTR _this$[ebp]
  0017c	50		 push	 eax
  0017d	c6 40 14 00	 mov	 BYTE PTR [eax+20], 0
  00181	e8 00 00 00 00	 call	 ?_Rrotate@?$_Tree@V?$_Tmap_traits@KPAVCustomSoundData@@U?$less@K@std@@V?$allocator@U?$pair@$$CBKPAVCustomSoundData@@@std@@@3@$0A@@std@@@std@@IAEXPAU_Node@?$_Tree_nod@V?$_Tmap_traits@KPAVCustomSoundData@@U?$less@K@std@@V?$allocator@U?$pair@$$CBKPAVCustomSoundData@@@std@@@3@$0A@@std@@@2@@Z ; std::_Tree<std::_Tmap_traits<unsigned long,CustomSoundData *,std::less<unsigned long>,std::allocator<std::pair<unsigned long const ,CustomSoundData *> >,0> >::_Rrotate

; 1317 : 							_Pnode = this->_Right(_Fixnodeparent);

  00186	8b 46 08	 mov	 eax, DWORD PTR [esi+8]
$LN9@erase@2:

; 1318 : 							}
; 1319 : 
; 1320 : 						this->_Color(_Pnode) = this->_Color(_Fixnodeparent);

  00189	8a 4e 14	 mov	 cl, BYTE PTR [esi+20]
  0018c	88 48 14	 mov	 BYTE PTR [eax+20], cl

; 1321 : 						this->_Color(_Fixnodeparent) = this->_Black;
; 1322 : 						this->_Color(this->_Right(_Pnode)) = this->_Black;
; 1323 : 						_Lrotate(_Fixnodeparent);

  0018f	8b 4d fc	 mov	 ecx, DWORD PTR _this$[ebp]
  00192	c6 46 14 01	 mov	 BYTE PTR [esi+20], 1
  00196	8b 40 08	 mov	 eax, DWORD PTR [eax+8]
  00199	56		 push	 esi
  0019a	c6 40 14 01	 mov	 BYTE PTR [eax+20], 1
  0019e	e8 00 00 00 00	 call	 ?_Lrotate@?$_Tree@V?$_Tmap_traits@KPAVCustomSoundData@@U?$less@K@std@@V?$allocator@U?$pair@$$CBKPAVCustomSoundData@@@std@@@3@$0A@@std@@@std@@IAEXPAU_Node@?$_Tree_nod@V?$_Tmap_traits@KPAVCustomSoundData@@U?$less@K@std@@V?$allocator@U?$pair@$$CBKPAVCustomSoundData@@@std@@@3@$0A@@std@@@2@@Z ; std::_Tree<std::_Tmap_traits<unsigned long,CustomSoundData *,std::less<unsigned long>,std::allocator<std::pair<unsigned long const ,CustomSoundData *> >,0> >::_Lrotate

; 1324 : 						break;	// tree now recolored/rebalanced

  001a3	eb 7e		 jmp	 SHORT $LN16@erase@2
$LN15@erase@2:

; 1325 : 						}
; 1326 : 					}
; 1327 : 				else
; 1328 : 					{	// fixup right subtree
; 1329 : 					_Pnode = this->_Left(_Fixnodeparent);
; 1330 : 					if (this->_Color(_Pnode) == this->_Red)

  001a5	80 78 14 00	 cmp	 BYTE PTR [eax+20], 0
  001a9	75 10		 jne	 SHORT $LN7@erase@2

; 1331 : 						{	// rotate red up from left subtree
; 1332 : 						this->_Color(_Pnode) = this->_Black;

  001ab	c6 40 14 01	 mov	 BYTE PTR [eax+20], 1

; 1333 : 						this->_Color(_Fixnodeparent) = this->_Red;
; 1334 : 						_Rrotate(_Fixnodeparent);

  001af	56		 push	 esi
  001b0	c6 46 14 00	 mov	 BYTE PTR [esi+20], 0
  001b4	e8 00 00 00 00	 call	 ?_Rrotate@?$_Tree@V?$_Tmap_traits@KPAVCustomSoundData@@U?$less@K@std@@V?$allocator@U?$pair@$$CBKPAVCustomSoundData@@@std@@@3@$0A@@std@@@std@@IAEXPAU_Node@?$_Tree_nod@V?$_Tmap_traits@KPAVCustomSoundData@@U?$less@K@std@@V?$allocator@U?$pair@$$CBKPAVCustomSoundData@@@std@@@3@$0A@@std@@@2@@Z ; std::_Tree<std::_Tmap_traits<unsigned long,CustomSoundData *,std::less<unsigned long>,std::allocator<std::pair<unsigned long const ,CustomSoundData *> >,0> >::_Rrotate

; 1335 : 						_Pnode = this->_Left(_Fixnodeparent);

  001b9	8b 06		 mov	 eax, DWORD PTR [esi]
$LN7@erase@2:

; 1336 : 						}
; 1337 : 					if (this->_Isnil(_Pnode))

  001bb	80 78 15 00	 cmp	 BYTE PTR [eax+21], 0

; 1338 : 						_Fixnode = _Fixnodeparent;	// shouldn't happen
; 1339 : 					else if (this->_Color(this->_Right(_Pnode)) ==

  001bf	75 15		 jne	 SHORT $LN327@erase@2

; 1340 : 						this->_Black
; 1341 : 						&& this->_Color(this->_Left(_Pnode)) == this->_Black)

  001c1	8b 48 08	 mov	 ecx, DWORD PTR [eax+8]
  001c4	80 79 14 01	 cmp	 BYTE PTR [ecx+20], 1
  001c8	75 22		 jne	 SHORT $LN4@erase@2
  001ca	8b 08		 mov	 ecx, DWORD PTR [eax]
  001cc	80 79 14 01	 cmp	 BYTE PTR [ecx+20], 1
  001d0	75 1a		 jne	 SHORT $LN4@erase@2
$LN328@erase@2:

; 1342 : 						{	// redden left subtree with black children
; 1343 : 						this->_Color(_Pnode) = this->_Red;

  001d2	c6 40 14 00	 mov	 BYTE PTR [eax+20], 0
$LN327@erase@2:

; 1344 : 						_Fixnode = _Fixnodeparent;

  001d6	8b fe		 mov	 edi, esi
  001d8	8b 76 04	 mov	 esi, DWORD PTR [esi+4]
$LN326@erase@2:

; 1286 : 			{	// erasing black link, must recolor/rebalance tree
; 1287 : 			for (; _Fixnode != _Root()
; 1288 : 				&& this->_Color(_Fixnode) == this->_Black;
; 1289 : 				_Fixnodeparent = this->_Parent(_Fixnode))

  001db	8b 4d fc	 mov	 ecx, DWORD PTR _this$[ebp]
  001de	8b 41 04	 mov	 eax, DWORD PTR [ecx+4]
  001e1	3b 78 04	 cmp	 edi, DWORD PTR [eax+4]
  001e4	0f 85 3f ff ff
	ff		 jne	 $LL18@erase@2
  001ea	eb 37		 jmp	 SHORT $LN16@erase@2
$LN4@erase@2:

; 1345 : 						}
; 1346 : 					else
; 1347 : 						{	// must rearrange left subtree
; 1348 : 						if (this->_Color(this->_Left(_Pnode)) == this->_Black)

  001ec	8b 08		 mov	 ecx, DWORD PTR [eax]
  001ee	80 79 14 01	 cmp	 BYTE PTR [ecx+20], 1
  001f2	75 16		 jne	 SHORT $LN2@erase@2

; 1349 : 							{	// rotate red up from right sub-subtree
; 1350 : 							this->_Color(this->_Right(_Pnode)) = this->_Black;

  001f4	8b 48 08	 mov	 ecx, DWORD PTR [eax+8]
  001f7	c6 41 14 01	 mov	 BYTE PTR [ecx+20], 1

; 1351 : 							this->_Color(_Pnode) = this->_Red;
; 1352 : 							_Lrotate(_Pnode);

  001fb	8b 4d fc	 mov	 ecx, DWORD PTR _this$[ebp]
  001fe	50		 push	 eax
  001ff	c6 40 14 00	 mov	 BYTE PTR [eax+20], 0
  00203	e8 00 00 00 00	 call	 ?_Lrotate@?$_Tree@V?$_Tmap_traits@KPAVCustomSoundData@@U?$less@K@std@@V?$allocator@U?$pair@$$CBKPAVCustomSoundData@@@std@@@3@$0A@@std@@@std@@IAEXPAU_Node@?$_Tree_nod@V?$_Tmap_traits@KPAVCustomSoundData@@U?$less@K@std@@V?$allocator@U?$pair@$$CBKPAVCustomSoundData@@@std@@@3@$0A@@std@@@2@@Z ; std::_Tree<std::_Tmap_traits<unsigned long,CustomSoundData *,std::less<unsigned long>,std::allocator<std::pair<unsigned long const ,CustomSoundData *> >,0> >::_Lrotate

; 1353 : 							_Pnode = this->_Left(_Fixnodeparent);

  00208	8b 06		 mov	 eax, DWORD PTR [esi]
$LN2@erase@2:

; 1354 : 							}
; 1355 : 
; 1356 : 						this->_Color(_Pnode) = this->_Color(_Fixnodeparent);

  0020a	8a 4e 14	 mov	 cl, BYTE PTR [esi+20]
  0020d	88 48 14	 mov	 BYTE PTR [eax+20], cl

; 1357 : 						this->_Color(_Fixnodeparent) = this->_Black;
; 1358 : 						this->_Color(this->_Left(_Pnode)) = this->_Black;
; 1359 : 						_Rrotate(_Fixnodeparent);

  00210	8b 4d fc	 mov	 ecx, DWORD PTR _this$[ebp]
  00213	c6 46 14 01	 mov	 BYTE PTR [esi+20], 1
  00217	8b 00		 mov	 eax, DWORD PTR [eax]
  00219	56		 push	 esi
  0021a	c6 40 14 01	 mov	 BYTE PTR [eax+20], 1
  0021e	e8 00 00 00 00	 call	 ?_Rrotate@?$_Tree@V?$_Tmap_traits@KPAVCustomSoundData@@U?$less@K@std@@V?$allocator@U?$pair@$$CBKPAVCustomSoundData@@@std@@@3@$0A@@std@@@std@@IAEXPAU_Node@?$_Tree_nod@V?$_Tmap_traits@KPAVCustomSoundData@@U?$less@K@std@@V?$allocator@U?$pair@$$CBKPAVCustomSoundData@@@std@@@3@$0A@@std@@@2@@Z ; std::_Tree<std::_Tmap_traits<unsigned long,CustomSoundData *,std::less<unsigned long>,std::allocator<std::pair<unsigned long const ,CustomSoundData *> >,0> >::_Rrotate
$LN16@erase@2:

; 1360 : 						break;	// tree now recolored/rebalanced
; 1361 : 						}
; 1362 : 					}
; 1363 : 
; 1364 : 			this->_Color(_Fixnode) = this->_Black;	// stopping node is black

  00223	c6 47 14 01	 mov	 BYTE PTR [edi+20], 1
$LN19@erase@2:

; 1365 : 			}
; 1366 : 
; 1367 : 		_Dest_val(this->_Alval,
; 1368 : 			_STD addressof(this->_Myval(_Erasednode)));	// delete erased node
; 1369 : 
; 1370 : 		this->_Alnod.deallocate(_Erasednode, 1);

  00227	53		 push	 ebx
  00228	e8 00 00 00 00	 call	 ??3@YAXPAX@Z		; operator delete
  0022d	59		 pop	 ecx

; 1371 : 
; 1372 : 		if (0 < this->_Mysize)

  0022e	8b 4d fc	 mov	 ecx, DWORD PTR _this$[ebp]
  00231	8b 41 08	 mov	 eax, DWORD PTR [ecx+8]
  00234	5f		 pop	 edi
  00235	5e		 pop	 esi
  00236	5b		 pop	 ebx
  00237	85 c0		 test	 eax, eax
  00239	74 04		 je	 SHORT $LN1@erase@2

; 1373 : 			--this->_Mysize;

  0023b	48		 dec	 eax
  0023c	89 41 08	 mov	 DWORD PTR [ecx+8], eax
$LN1@erase@2:

; 1374 : 
; 1375 : 		return (iterator(_Where._Ptr, this));	// return successor iterator

  0023f	8b 45 08	 mov	 eax, DWORD PTR ___$ReturnUdt$[ebp]
  00242	8b 4d 0c	 mov	 ecx, DWORD PTR __Where$[ebp]
  00245	89 08		 mov	 DWORD PTR [eax], ecx

; 1376 : 		}

  00247	c9		 leave
  00248	c2 08 00	 ret	 8
$LN322@erase@2:
?erase@?$_Tree@V?$_Tmap_traits@KPAVCustomSoundData@@U?$less@K@std@@V?$allocator@U?$pair@$$CBKPAVCustomSoundData@@@std@@@3@$0A@@std@@@std@@QAE?AV?$_Tree_iterator@V?$_Tree_val@V?$_Tmap_traits@KPAVCustomSoundData@@U?$less@K@std@@V?$allocator@U?$pair@$$CBKPAVCustomSoundData@@@std@@@3@$0A@@std@@@std@@@2@V?$_Tree_const_iterator@V?$_Tree_val@V?$_Tmap_traits@KPAVCustomSoundData@@U?$less@K@std@@V?$allocator@U?$pair@$$CBKPAVCustomSoundData@@@std@@@3@$0A@@std@@@std@@@2@@Z ENDP ; std::_Tree<std::_Tmap_traits<unsigned long,CustomSoundData *,std::less<unsigned long>,std::allocator<std::pair<unsigned long const ,CustomSoundData *> >,0> >::erase
_TEXT	ENDS
PUBLIC	?_Erase@?$_Tree@V?$_Tmap_traits@KPAVCustomSoundData@@U?$less@K@std@@V?$allocator@U?$pair@$$CBKPAVCustomSoundData@@@std@@@3@$0A@@std@@@std@@IAEXPAU_Node@?$_Tree_nod@V?$_Tmap_traits@KPAVCustomSoundData@@U?$less@K@std@@V?$allocator@U?$pair@$$CBKPAVCustomSoundData@@@std@@@3@$0A@@std@@@2@@Z ; std::_Tree<std::_Tmap_traits<unsigned long,CustomSoundData *,std::less<unsigned long>,std::allocator<std::pair<unsigned long const ,CustomSoundData *> >,0> >::_Erase
; Function compile flags: /Ogsp
;	COMDAT ?_Erase@?$_Tree@V?$_Tmap_traits@KPAVCustomSoundData@@U?$less@K@std@@V?$allocator@U?$pair@$$CBKPAVCustomSoundData@@@std@@@3@$0A@@std@@@std@@IAEXPAU_Node@?$_Tree_nod@V?$_Tmap_traits@KPAVCustomSoundData@@U?$less@K@std@@V?$allocator@U?$pair@$$CBKPAVCustomSoundData@@@std@@@3@$0A@@std@@@2@@Z
_TEXT	SEGMENT
__Rootnode$ = 8						; size = 4
?_Erase@?$_Tree@V?$_Tmap_traits@KPAVCustomSoundData@@U?$less@K@std@@V?$allocator@U?$pair@$$CBKPAVCustomSoundData@@@std@@@3@$0A@@std@@@std@@IAEXPAU_Node@?$_Tree_nod@V?$_Tmap_traits@KPAVCustomSoundData@@U?$less@K@std@@V?$allocator@U?$pair@$$CBKPAVCustomSoundData@@@std@@@3@$0A@@std@@@2@@Z PROC ; std::_Tree<std::_Tmap_traits<unsigned long,CustomSoundData *,std::less<unsigned long>,std::allocator<std::pair<unsigned long const ,CustomSoundData *> >,0> >::_Erase, COMDAT
; _this$ = ecx

; 1610 : 		{	// free entire subtree, recursively

  00000	55		 push	 ebp
  00001	8b ec		 mov	 ebp, esp
  00003	53		 push	 ebx
  00004	56		 push	 esi
  00005	57		 push	 edi

; 1611 : 		for (_Nodeptr _Pnode = _Rootnode;

  00006	8b 7d 08	 mov	 edi, DWORD PTR __Rootnode$[ebp]

; 1612 : 			!this->_Isnil(_Pnode); _Rootnode = _Pnode)

  00009	80 7f 15 00	 cmp	 BYTE PTR [edi+21], 0
  0000d	8b d9		 mov	 ebx, ecx
  0000f	8b f7		 mov	 esi, edi
  00011	75 1b		 jne	 SHORT $LN1@Erase
$LL3@Erase:

; 1613 : 			{	// free subtrees, then node
; 1614 : 			_Erase(this->_Right(_Pnode));

  00013	ff 76 08	 push	 DWORD PTR [esi+8]
  00016	8b cb		 mov	 ecx, ebx
  00018	e8 00 00 00 00	 call	 ?_Erase@?$_Tree@V?$_Tmap_traits@KPAVCustomSoundData@@U?$less@K@std@@V?$allocator@U?$pair@$$CBKPAVCustomSoundData@@@std@@@3@$0A@@std@@@std@@IAEXPAU_Node@?$_Tree_nod@V?$_Tmap_traits@KPAVCustomSoundData@@U?$less@K@std@@V?$allocator@U?$pair@$$CBKPAVCustomSoundData@@@std@@@3@$0A@@std@@@2@@Z ; std::_Tree<std::_Tmap_traits<unsigned long,CustomSoundData *,std::less<unsigned long>,std::allocator<std::pair<unsigned long const ,CustomSoundData *> >,0> >::_Erase

; 1615 : 			_Pnode = this->_Left(_Pnode);

  0001d	8b 36		 mov	 esi, DWORD PTR [esi]

; 1616 : 			_Dest_val(this->_Alval,
; 1617 : 				_STD addressof(this->_Myval(_Rootnode)));
; 1618 : 
; 1619 : 			this->_Alnod.deallocate(_Rootnode, 1);

  0001f	57		 push	 edi
  00020	e8 00 00 00 00	 call	 ??3@YAXPAX@Z		; operator delete
  00025	80 7e 15 00	 cmp	 BYTE PTR [esi+21], 0
  00029	59		 pop	 ecx
  0002a	8b fe		 mov	 edi, esi
  0002c	74 e5		 je	 SHORT $LL3@Erase
$LN1@Erase:
  0002e	5f		 pop	 edi
  0002f	5e		 pop	 esi
  00030	5b		 pop	 ebx

; 1620 : 			}
; 1621 : 		}

  00031	5d		 pop	 ebp
  00032	c2 04 00	 ret	 4
?_Erase@?$_Tree@V?$_Tmap_traits@KPAVCustomSoundData@@U?$less@K@std@@V?$allocator@U?$pair@$$CBKPAVCustomSoundData@@@std@@@3@$0A@@std@@@std@@IAEXPAU_Node@?$_Tree_nod@V?$_Tmap_traits@KPAVCustomSoundData@@U?$less@K@std@@V?$allocator@U?$pair@$$CBKPAVCustomSoundData@@@std@@@3@$0A@@std@@@2@@Z ENDP ; std::_Tree<std::_Tmap_traits<unsigned long,CustomSoundData *,std::less<unsigned long>,std::allocator<std::pair<unsigned long const ,CustomSoundData *> >,0> >::_Erase
_TEXT	ENDS
PUBLIC	??$_Dest_val@V?$allocator@VioHashString@@@std@@VioHashString@@@std@@YAXAAV?$allocator@VioHashString@@@0@PAVioHashString@@@Z ; std::_Dest_val<std::allocator<ioHashString>,ioHashString>
; Function compile flags: /Ogsp
; File c:\program files (x86)\microsoft visual studio 10.0\vc\include\xmemory
;	COMDAT ??$_Dest_val@V?$allocator@VioHashString@@@std@@VioHashString@@@std@@YAXAAV?$allocator@VioHashString@@@0@PAVioHashString@@@Z
_TEXT	SEGMENT
__Alval$ = 8						; size = 4
__Pdest$ = 12						; size = 4
??$_Dest_val@V?$allocator@VioHashString@@@std@@VioHashString@@@std@@YAXAAV?$allocator@VioHashString@@@0@PAVioHashString@@@Z PROC ; std::_Dest_val<std::allocator<ioHashString>,ioHashString>, COMDAT

; 286  : 	{	// destroy using allocator

  00000	55		 push	 ebp
  00001	8b ec		 mov	 ebp, esp

; 287  : 	_Alval.destroy(_Pdest);

  00003	8b 4d 0c	 mov	 ecx, DWORD PTR __Pdest$[ebp]

; 288  : 	}

  00006	5d		 pop	 ebp

; 287  : 	_Alval.destroy(_Pdest);

  00007	ff 25 00 00 00
	00		 jmp	 DWORD PTR __imp_??1ioHashString@@QAE@XZ
??$_Dest_val@V?$allocator@VioHashString@@@std@@VioHashString@@@std@@YAXAAV?$allocator@VioHashString@@@0@PAVioHashString@@@Z ENDP ; std::_Dest_val<std::allocator<ioHashString>,ioHashString>
_TEXT	ENDS
PUBLIC	_rdwSize$GSCopy$
PUBLIC	_rszChat$GSCopy$
PUBLIC	_this$GSCopy$
PUBLIC	__$ArrayPad$
PUBLIC	?GetCustomSoundInfo@ioCustomSoundMgr@@QAEXABVioHashString@@AAK11@Z ; ioCustomSoundMgr::GetCustomSoundInfo
EXTRN	?FileCrc32Streams@CCrc32Static@@SAKPBDAAK@Z:PROC ; CCrc32Static::FileCrc32Streams
; Function compile flags: /Ogsp
; File d:\lost saga for developer\youtube\tutorial\source\src\lsclient\iocustomsoundmgr.cpp
;	COMDAT ?GetCustomSoundInfo@ioCustomSoundMgr@@QAEXABVioHashString@@AAK11@Z
_TEXT	SEGMENT
_this$GSCopy$ = -540					; size = 4
_rszChat$GSCopy$ = -536					; size = 4
_rdwSize$GSCopy$ = -532					; size = 4
$T515647 = -528						; size = 4
_dwCurCRC$506325 = -528					; size = 4
_iter$ = -528						; size = 4
_string$ = -524						; size = 520
__$ArrayPad$ = -4					; size = 4
_rszChat$ = 8						; size = 4
_rdwIndex$ = 12						; size = 4
_rdwCRC$ = 16						; size = 4
_rdwSize$ = 20						; size = 4
?GetCustomSoundInfo@ioCustomSoundMgr@@QAEXABVioHashString@@AAK11@Z PROC ; ioCustomSoundMgr::GetCustomSoundInfo, COMDAT
; _this$ = ecx

; 369  : {

  00000	55		 push	 ebp
  00001	8b ec		 mov	 ebp, esp
  00003	81 ec 1c 02 00
	00		 sub	 esp, 540		; 0000021cH
  00009	a1 00 00 00 00	 mov	 eax, DWORD PTR ___security_cookie
  0000e	33 c5		 xor	 eax, ebp
  00010	89 45 fc	 mov	 DWORD PTR __$ArrayPad$[ebp], eax
  00013	8b 45 14	 mov	 eax, DWORD PTR _rdwSize$[ebp]
  00016	53		 push	 ebx
  00017	8b 5d 0c	 mov	 ebx, DWORD PTR _rdwIndex$[ebp]

; 370  : 	rdwIndex = 0;

  0001a	83 23 00	 and	 DWORD PTR [ebx], 0
  0001d	56		 push	 esi
  0001e	8b f1		 mov	 esi, ecx
  00020	8b 4d 08	 mov	 ecx, DWORD PTR _rszChat$[ebp]
  00023	57		 push	 edi
  00024	8b 7d 10	 mov	 edi, DWORD PTR _rdwCRC$[ebp]

; 371  : 	rdwCRC   = 0;

  00027	83 27 00	 and	 DWORD PTR [edi], 0

; 401  : 			{
; 402  : 				rdwIndex = 0;

  0002a	89 b5 e4 fd ff
	ff		 mov	 DWORD PTR _this$GSCopy$[ebp], esi
  00030	89 8d e8 fd ff
	ff		 mov	 DWORD PTR _rszChat$GSCopy$[ebp], ecx
  00036	89 85 ec fd ff
	ff		 mov	 DWORD PTR _rdwSize$GSCopy$[ebp], eax
  0003c	ff 15 00 00 00
	00		 call	 DWORD PTR __imp_?IsEmpty@ioHashString@@QBE_NXZ
  00042	84 c0		 test	 al, al
  00044	0f 85 19 01 00
	00		 jne	 $LN1@GetCustomS@2

; 372  : 
; 373  : 	if( rszChat.IsEmpty() )
; 374  : 		return;
; 375  : 	
; 376  : 	if( m_vCustomSoundInfoList.empty() )

  0004a	8b 46 04	 mov	 eax, DWORD PTR [esi+4]
  0004d	3b 46 08	 cmp	 eax, DWORD PTR [esi+8]
  00050	0f 84 0d 01 00
	00		 je	 $LN1@GetCustomS@2

; 377  : 		return;
; 378  : 
; 379  : 	if( m_vCustomSoundInfoList[0]->m_dwUserIndex != g_MyInfo.GetUserIndex() )

  00056	89 85 f0 fd ff
	ff		 mov	 DWORD PTR $T515647[ebp], eax
  0005c	e8 00 00 00 00	 call	 ?GetSingleton@ioMyInfo@@SAAAV1@XZ ; ioMyInfo::GetSingleton
  00061	8b 8d f0 fd ff
	ff		 mov	 ecx, DWORD PTR $T515647[ebp]
  00067	8b 09		 mov	 ecx, DWORD PTR [ecx]
  00069	8b 09		 mov	 ecx, DWORD PTR [ecx]
  0006b	3b 48 08	 cmp	 ecx, DWORD PTR [eax+8]
  0006e	0f 85 ef 00 00
	00		 jne	 $LN1@GetCustomS@2

; 380  : 		return;
; 381  : 
; 382  : 	char string[MAX_PATH*2];
; 383  : 	memset( string, 0, MAX_PATH*2 );

  00074	68 08 02 00 00	 push	 520			; 00000208H
  00079	8d 85 f4 fd ff
	ff		 lea	 eax, DWORD PTR _string$[ebp]
  0007f	6a 00		 push	 0
  00081	50		 push	 eax
  00082	e8 00 00 00 00	 call	 _memset

; 384  : 	FilterChar( rszChat.c_str(), string, g_szFilterChar);

  00087	8b 8d e8 fd ff
	ff		 mov	 ecx, DWORD PTR _rszChat$GSCopy$[ebp]
  0008d	83 c4 0c	 add	 esp, 12			; 0000000cH
  00090	68 00 00 00 00	 push	 OFFSET ?g_szFilterChar@@3PADA ; g_szFilterChar
  00095	8d 85 f4 fd ff
	ff		 lea	 eax, DWORD PTR _string$[ebp]
  0009b	50		 push	 eax
  0009c	ff 15 00 00 00
	00		 call	 DWORD PTR __imp_?c_str@ioHashString@@QBEPBDXZ
  000a2	50		 push	 eax
  000a3	8b ce		 mov	 ecx, esi
  000a5	e8 00 00 00 00	 call	 ?FilterChar@ioCustomSoundMgr@@IAEXPBDPAD1@Z ; ioCustomSoundMgr::FilterChar

; 385  : 
; 386  : 	CustomSoundDataMap::iterator iter = m_vCustomSoundInfoList[0]->m_CustomSoundDataMap.begin();

  000aa	8b 46 04	 mov	 eax, DWORD PTR [esi+4]
  000ad	8b 00		 mov	 eax, DWORD PTR [eax]
  000af	8b 40 18	 mov	 eax, DWORD PTR [eax+24]
  000b2	8b 08		 mov	 ecx, DWORD PTR [eax]
  000b4	89 8d f0 fd ff
	ff		 mov	 DWORD PTR _iter$[ebp], ecx

; 387  : 	for(; iter != m_vCustomSoundInfoList[0]->m_CustomSoundDataMap.end(); ++iter)

  000ba	3b c8		 cmp	 ecx, eax
  000bc	0f 84 a1 00 00
	00		 je	 $LN1@GetCustomS@2
  000c2	eb 06		 jmp	 SHORT $LN36@GetCustomS@2
$LL83@GetCustomS@2:
  000c4	8b 8d f0 fd ff
	ff		 mov	 ecx, DWORD PTR _iter$[ebp]
$LN36@GetCustomS@2:

; 388  : 	{
; 389  : 		CustomSoundData *pData = iter->second;

  000ca	8b 71 10	 mov	 esi, DWORD PTR [ecx+16]

; 390  : 		if( !pData )

  000cd	85 f6		 test	 esi, esi
  000cf	74 1d		 je	 SHORT $LN5@GetCustomS@2

; 391  : 			continue;
; 392  : 		char *pResult = strstr( string, pData->GetKeyWord().c_str() );

  000d1	8d 4e 10	 lea	 ecx, DWORD PTR [esi+16]
  000d4	ff 15 00 00 00
	00		 call	 DWORD PTR __imp_?c_str@ioHashString@@QBEPBDXZ
  000da	50		 push	 eax
  000db	8d 85 f4 fd ff
	ff		 lea	 eax, DWORD PTR _string$[ebp]
  000e1	50		 push	 eax
  000e2	ff 15 00 00 00
	00		 call	 DWORD PTR __imp__strstr
  000e8	59		 pop	 ecx
  000e9	59		 pop	 ecx

; 393  : 		if( pResult )

  000ea	85 c0		 test	 eax, eax
  000ec	75 23		 jne	 SHORT $LN81@GetCustomS@2
$LN5@GetCustomS@2:

; 387  : 	for(; iter != m_vCustomSoundInfoList[0]->m_CustomSoundDataMap.end(); ++iter)

  000ee	8d 8d f0 fd ff
	ff		 lea	 ecx, DWORD PTR _iter$[ebp]
  000f4	e8 00 00 00 00	 call	 ??E?$_Tree_unchecked_const_iterator@V?$_Tree_val@V?$_Tmap_traits@KPAVCustomSoundData@@U?$less@K@std@@V?$allocator@U?$pair@$$CBKPAVCustomSoundData@@@std@@@3@$0A@@std@@@std@@U_Iterator_base0@2@@std@@QAEAAV01@XZ ; std::_Tree_unchecked_const_iterator<std::_Tree_val<std::_Tmap_traits<unsigned long,CustomSoundData *,std::less<unsigned long>,std::allocator<std::pair<unsigned long const ,CustomSoundData *> >,0> >,std::_Iterator_base0>::operator++
  000f9	8b 85 e4 fd ff
	ff		 mov	 eax, DWORD PTR _this$GSCopy$[ebp]
  000ff	8b 40 04	 mov	 eax, DWORD PTR [eax+4]
  00102	8b 00		 mov	 eax, DWORD PTR [eax]
  00104	8b 8d f0 fd ff
	ff		 mov	 ecx, DWORD PTR _iter$[ebp]
  0010a	3b 48 18	 cmp	 ecx, DWORD PTR [eax+24]
  0010d	75 b5		 jne	 SHORT $LL83@GetCustomS@2

; 393  : 		if( pResult )

  0010f	eb 52		 jmp	 SHORT $LN1@GetCustomS@2
$LN81@GetCustomS@2:

; 394  : 		{
; 395  : 			rdwIndex = iter->first;

  00111	8b 85 f0 fd ff
	ff		 mov	 eax, DWORD PTR _iter$[ebp]
  00117	8b 40 0c	 mov	 eax, DWORD PTR [eax+12]

; 396  : 			rdwCRC   = pData->GetUnpacCRC();
; 397  : 			rdwSize  = pData->GetSize();

  0011a	8b 8d ec fd ff
	ff		 mov	 ecx, DWORD PTR _rdwSize$GSCopy$[ebp]

; 398  : 			DWORD dwCurCRC = 0;

  00120	83 a5 f0 fd ff
	ff 00		 and	 DWORD PTR _dwCurCRC$506325[ebp], 0
  00127	89 03		 mov	 DWORD PTR [ebx], eax
  00129	8b 46 0c	 mov	 eax, DWORD PTR [esi+12]
  0012c	89 07		 mov	 DWORD PTR [edi], eax
  0012e	8b 46 08	 mov	 eax, DWORD PTR [esi+8]
  00131	89 01		 mov	 DWORD PTR [ecx], eax

; 399  : 			CCrc32Static::FileCrc32Streams((LPCTSTR)pData->GetFilePath().c_str(), dwCurCRC);

  00133	8d 85 f0 fd ff
	ff		 lea	 eax, DWORD PTR _dwCurCRC$506325[ebp]
  00139	50		 push	 eax
  0013a	8d 4e 20	 lea	 ecx, DWORD PTR [esi+32]
  0013d	ff 15 00 00 00
	00		 call	 DWORD PTR __imp_?c_str@ioHashString@@QBEPBDXZ
  00143	50		 push	 eax
  00144	e8 00 00 00 00	 call	 ?FileCrc32Streams@CCrc32Static@@SAKPBDAAK@Z ; CCrc32Static::FileCrc32Streams

; 400  : 			if( dwCurCRC != rdwCRC )

  00149	8b 85 f0 fd ff
	ff		 mov	 eax, DWORD PTR _dwCurCRC$506325[ebp]
  0014f	59		 pop	 ecx
  00150	59		 pop	 ecx
  00151	3b 07		 cmp	 eax, DWORD PTR [edi]
  00153	74 0e		 je	 SHORT $LN1@GetCustomS@2

; 403  : 				rdwCRC   = 0;
; 404  : 				rdwSize  = 0;

  00155	8b 8d ec fd ff
	ff		 mov	 ecx, DWORD PTR _rdwSize$GSCopy$[ebp]
  0015b	33 c0		 xor	 eax, eax
  0015d	89 03		 mov	 DWORD PTR [ebx], eax
  0015f	89 07		 mov	 DWORD PTR [edi], eax
  00161	89 01		 mov	 DWORD PTR [ecx], eax
$LN1@GetCustomS@2:

; 405  : 			}
; 406  : 			return;
; 407  : 		}	
; 408  : 	}
; 409  : }

  00163	8b 4d fc	 mov	 ecx, DWORD PTR __$ArrayPad$[ebp]
  00166	5f		 pop	 edi
  00167	5e		 pop	 esi
  00168	33 cd		 xor	 ecx, ebp
  0016a	5b		 pop	 ebx
  0016b	e8 00 00 00 00	 call	 @__security_check_cookie@4
  00170	c9		 leave
  00171	c2 10 00	 ret	 16			; 00000010H
?GetCustomSoundInfo@ioCustomSoundMgr@@QAEXABVioHashString@@AAK11@Z ENDP ; ioCustomSoundMgr::GetCustomSoundInfo
_TEXT	ENDS
PUBLIC	?find@?$_Tree@V?$_Tmap_traits@KPAVCustomSoundData@@U?$less@K@std@@V?$allocator@U?$pair@$$CBKPAVCustomSoundData@@@std@@@3@$0A@@std@@@std@@QAE?AV?$_Tree_iterator@V?$_Tree_val@V?$_Tmap_traits@KPAVCustomSoundData@@U?$less@K@std@@V?$allocator@U?$pair@$$CBKPAVCustomSoundData@@@std@@@3@$0A@@std@@@std@@@2@ABK@Z ; std::_Tree<std::_Tmap_traits<unsigned long,CustomSoundData *,std::less<unsigned long>,std::allocator<std::pair<unsigned long const ,CustomSoundData *> >,0> >::find
; Function compile flags: /Ogsp
; File c:\program files (x86)\microsoft visual studio 10.0\vc\include\xtree
;	COMDAT ?find@?$_Tree@V?$_Tmap_traits@KPAVCustomSoundData@@U?$less@K@std@@V?$allocator@U?$pair@$$CBKPAVCustomSoundData@@@std@@@3@$0A@@std@@@std@@QAE?AV?$_Tree_iterator@V?$_Tree_val@V?$_Tmap_traits@KPAVCustomSoundData@@U?$less@K@std@@V?$allocator@U?$pair@$$CBKPAVCustomSoundData@@@std@@@3@$0A@@std@@@std@@@2@ABK@Z
_TEXT	SEGMENT
$T515842 = -4						; size = 4
___$ReturnUdt$ = 8					; size = 4
__Where$ = 12						; size = 4
__Keyval$ = 12						; size = 4
?find@?$_Tree@V?$_Tmap_traits@KPAVCustomSoundData@@U?$less@K@std@@V?$allocator@U?$pair@$$CBKPAVCustomSoundData@@@std@@@3@$0A@@std@@@std@@QAE?AV?$_Tree_iterator@V?$_Tree_val@V?$_Tmap_traits@KPAVCustomSoundData@@U?$less@K@std@@V?$allocator@U?$pair@$$CBKPAVCustomSoundData@@@std@@@3@$0A@@std@@@std@@@2@ABK@Z PROC ; std::_Tree<std::_Tmap_traits<unsigned long,CustomSoundData *,std::less<unsigned long>,std::allocator<std::pair<unsigned long const ,CustomSoundData *> >,0> >::find, COMDAT
; _this$ = ecx

; 1423 : 		{	// find an element in mutable sequence that matches _Keyval

  00000	55		 push	 ebp
  00001	8b ec		 mov	 ebp, esp
  00003	51		 push	 ecx
  00004	56		 push	 esi
  00005	57		 push	 edi

; 1424 : 		iterator _Where = lower_bound(_Keyval);

  00006	8b 7d 0c	 mov	 edi, DWORD PTR __Keyval$[ebp]
  00009	57		 push	 edi
  0000a	8b f1		 mov	 esi, ecx
  0000c	e8 00 00 00 00	 call	 ?_Lbound@?$_Tree@V?$_Tmap_traits@KPAVCustomSoundData@@U?$less@K@std@@V?$allocator@U?$pair@$$CBKPAVCustomSoundData@@@std@@@3@$0A@@std@@@std@@IAEPAU_Node@?$_Tree_nod@V?$_Tmap_traits@KPAVCustomSoundData@@U?$less@K@std@@V?$allocator@U?$pair@$$CBKPAVCustomSoundData@@@std@@@3@$0A@@std@@@2@ABK@Z ; std::_Tree<std::_Tmap_traits<unsigned long,CustomSoundData *,std::less<unsigned long>,std::allocator<std::pair<unsigned long const ,CustomSoundData *> >,0> >::_Lbound

; 1425 : 		return (_Where == end()
; 1426 : 			|| _DEBUG_LT_PRED(this->comp,
; 1427 : 				_Keyval, this->_Key(_Where._Mynode()))
; 1428 : 					? end() : _Where);

  00011	8b 76 04	 mov	 esi, DWORD PTR [esi+4]
  00014	89 45 0c	 mov	 DWORD PTR __Where$[ebp], eax
  00017	3b c6		 cmp	 eax, esi
  00019	74 0c		 je	 SHORT $LN3@find
  0001b	8b 0f		 mov	 ecx, DWORD PTR [edi]
  0001d	3b 48 0c	 cmp	 ecx, DWORD PTR [eax+12]
  00020	72 05		 jb	 SHORT $LN3@find
  00022	8d 45 0c	 lea	 eax, DWORD PTR __Where$[ebp]
  00025	eb 06		 jmp	 SHORT $LN4@find
$LN3@find:
  00027	89 75 fc	 mov	 DWORD PTR $T515842[ebp], esi
  0002a	8d 45 fc	 lea	 eax, DWORD PTR $T515842[ebp]
$LN4@find:
  0002d	8b 08		 mov	 ecx, DWORD PTR [eax]
  0002f	8b 45 08	 mov	 eax, DWORD PTR ___$ReturnUdt$[ebp]
  00032	5f		 pop	 edi
  00033	89 08		 mov	 DWORD PTR [eax], ecx
  00035	5e		 pop	 esi

; 1429 : 		}

  00036	c9		 leave
  00037	c2 08 00	 ret	 8
?find@?$_Tree@V?$_Tmap_traits@KPAVCustomSoundData@@U?$less@K@std@@V?$allocator@U?$pair@$$CBKPAVCustomSoundData@@@std@@@3@$0A@@std@@@std@@QAE?AV?$_Tree_iterator@V?$_Tree_val@V?$_Tmap_traits@KPAVCustomSoundData@@U?$less@K@std@@V?$allocator@U?$pair@$$CBKPAVCustomSoundData@@@std@@@3@$0A@@std@@@std@@@2@ABK@Z ENDP ; std::_Tree<std::_Tmap_traits<unsigned long,CustomSoundData *,std::less<unsigned long>,std::allocator<std::pair<unsigned long const ,CustomSoundData *> >,0> >::find
_TEXT	ENDS
PUBLIC	?clear@?$vector@PAUtagCustomSoundInfo@ioCustomSoundMgr@@V?$allocator@PAUtagCustomSoundInfo@ioCustomSoundMgr@@@std@@@std@@QAEXXZ ; std::vector<ioCustomSoundMgr::tagCustomSoundInfo *,std::allocator<ioCustomSoundMgr::tagCustomSoundInfo *> >::clear
; Function compile flags: /Ogsp
; File c:\program files (x86)\microsoft visual studio 10.0\vc\include\vector
;	COMDAT ?clear@?$vector@PAUtagCustomSoundInfo@ioCustomSoundMgr@@V?$allocator@PAUtagCustomSoundInfo@ioCustomSoundMgr@@@std@@@std@@QAEXXZ
_TEXT	SEGMENT
$T515980 = -4						; size = 4
?clear@?$vector@PAUtagCustomSoundInfo@ioCustomSoundMgr@@V?$allocator@PAUtagCustomSoundInfo@ioCustomSoundMgr@@@std@@@std@@QAEXXZ PROC ; std::vector<ioCustomSoundMgr::tagCustomSoundInfo *,std::allocator<ioCustomSoundMgr::tagCustomSoundInfo *> >::clear, COMDAT
; _this$ = ecx

; 1217 : 		{	// erase all

  00000	55		 push	 ebp
  00001	8b ec		 mov	 ebp, esp
  00003	51		 push	 ecx

; 1218 : 		erase(begin(), end());

  00004	8b 41 04	 mov	 eax, DWORD PTR [ecx+4]
  00007	8b 11		 mov	 edx, DWORD PTR [ecx]
  00009	50		 push	 eax
  0000a	52		 push	 edx
  0000b	8d 45 fc	 lea	 eax, DWORD PTR $T515980[ebp]
  0000e	50		 push	 eax
  0000f	e8 00 00 00 00	 call	 ?erase@?$vector@PAUtagCustomSoundInfo@ioCustomSoundMgr@@V?$allocator@PAUtagCustomSoundInfo@ioCustomSoundMgr@@@std@@@std@@QAE?AV?$_Vector_iterator@V?$_Vector_val@PAUtagCustomSoundInfo@ioCustomSoundMgr@@V?$allocator@PAUtagCustomSoundInfo@ioCustomSoundMgr@@@std@@@std@@@2@V?$_Vector_const_iterator@V?$_Vector_val@PAUtagCustomSoundInfo@ioCustomSoundMgr@@V?$allocator@PAUtagCustomSoundInfo@ioCustomSoundMgr@@@std@@@std@@@2@0@Z ; std::vector<ioCustomSoundMgr::tagCustomSoundInfo *,std::allocator<ioCustomSoundMgr::tagCustomSoundInfo *> >::erase

; 1219 : 		}

  00014	c9		 leave
  00015	c3		 ret	 0
?clear@?$vector@PAUtagCustomSoundInfo@ioCustomSoundMgr@@V?$allocator@PAUtagCustomSoundInfo@ioCustomSoundMgr@@@std@@@std@@QAEXXZ ENDP ; std::vector<ioCustomSoundMgr::tagCustomSoundInfo *,std::allocator<ioCustomSoundMgr::tagCustomSoundInfo *> >::clear
_TEXT	ENDS
PUBLIC	?_Reserve@?$vector@PAUtagCustomSoundInfo@ioCustomSoundMgr@@V?$allocator@PAUtagCustomSoundInfo@ioCustomSoundMgr@@@std@@@std@@IAEXI@Z ; std::vector<ioCustomSoundMgr::tagCustomSoundInfo *,std::allocator<ioCustomSoundMgr::tagCustomSoundInfo *> >::_Reserve
; Function compile flags: /Ogsp
;	COMDAT ?_Reserve@?$vector@PAUtagCustomSoundInfo@ioCustomSoundMgr@@V?$allocator@PAUtagCustomSoundInfo@ioCustomSoundMgr@@@std@@@std@@IAEXI@Z
_TEXT	SEGMENT
__Count$ = 8						; size = 4
?_Reserve@?$vector@PAUtagCustomSoundInfo@ioCustomSoundMgr@@V?$allocator@PAUtagCustomSoundInfo@ioCustomSoundMgr@@@std@@@std@@IAEXI@Z PROC ; std::vector<ioCustomSoundMgr::tagCustomSoundInfo *,std::allocator<ioCustomSoundMgr::tagCustomSoundInfo *> >::_Reserve, COMDAT
; _this$ = ecx

; 1290 : 		{	// ensure room for _Count new elements, grow exponentially

  00000	55		 push	 ebp
  00001	8b ec		 mov	 ebp, esp
  00003	56		 push	 esi
  00004	8b f1		 mov	 esi, ecx

; 1291 : 		size_type _Size = size();

  00006	8b 0e		 mov	 ecx, DWORD PTR [esi]
  00008	8b 46 04	 mov	 eax, DWORD PTR [esi+4]
  0000b	2b c1		 sub	 eax, ecx

; 1292 : 		if (max_size() - _Count < _Size)

  0000d	ba ff ff ff 3f	 mov	 edx, 1073741823		; 3fffffffH
  00012	2b 55 08	 sub	 edx, DWORD PTR __Count$[ebp]
  00015	c1 f8 02	 sar	 eax, 2
  00018	3b d0		 cmp	 edx, eax
  0001a	73 0b		 jae	 SHORT $LN4@Reserve

; 1293 : 			_Xlen();

  0001c	68 00 00 00 00	 push	 OFFSET ??_C@_0BD@OLBABOEK@vector?$DMT?$DO?5too?5long?$AA@
  00021	ff 15 00 00 00
	00		 call	 DWORD PTR __imp_?_Xlength_error@std@@YAXPBD@Z
$LN21@Reserve:
$LN4@Reserve:

; 1294 : 		else if ((_Size += _Count) <= capacity())

  00027	8b 56 08	 mov	 edx, DWORD PTR [esi+8]
  0002a	03 45 08	 add	 eax, DWORD PTR __Count$[ebp]
  0002d	2b d1		 sub	 edx, ecx
  0002f	c1 fa 02	 sar	 edx, 2
  00032	3b c2		 cmp	 eax, edx
  00034	76 10		 jbe	 SHORT $LN1@Reserve

; 1295 : 			;
; 1296 : 		else
; 1297 : 			reserve(_Grow_to(_Size));

  00036	50		 push	 eax
  00037	8b ce		 mov	 ecx, esi
  00039	e8 00 00 00 00	 call	 ?_Grow_to@?$vector@PAUtagCustomSoundInfo@ioCustomSoundMgr@@V?$allocator@PAUtagCustomSoundInfo@ioCustomSoundMgr@@@std@@@std@@IBEII@Z ; std::vector<ioCustomSoundMgr::tagCustomSoundInfo *,std::allocator<ioCustomSoundMgr::tagCustomSoundInfo *> >::_Grow_to
  0003e	50		 push	 eax
  0003f	8b ce		 mov	 ecx, esi
  00041	e8 00 00 00 00	 call	 ?reserve@?$vector@PAUtagCustomSoundInfo@ioCustomSoundMgr@@V?$allocator@PAUtagCustomSoundInfo@ioCustomSoundMgr@@@std@@@std@@QAEXI@Z ; std::vector<ioCustomSoundMgr::tagCustomSoundInfo *,std::allocator<ioCustomSoundMgr::tagCustomSoundInfo *> >::reserve
$LN1@Reserve:
  00046	5e		 pop	 esi

; 1298 : 		}

  00047	5d		 pop	 ebp
  00048	c2 04 00	 ret	 4
$LN20@Reserve:
?_Reserve@?$vector@PAUtagCustomSoundInfo@ioCustomSoundMgr@@V?$allocator@PAUtagCustomSoundInfo@ioCustomSoundMgr@@@std@@@std@@IAEXI@Z ENDP ; std::vector<ioCustomSoundMgr::tagCustomSoundInfo *,std::allocator<ioCustomSoundMgr::tagCustomSoundInfo *> >::_Reserve
_TEXT	ENDS
PUBLIC	??$_Destroy_range@V?$allocator@UtagNetworkInfo@CustomSoundData@@@std@@@std@@YAXPAUtagNetworkInfo@CustomSoundData@@0AAV?$allocator@UtagNetworkInfo@CustomSoundData@@@0@@Z ; std::_Destroy_range<std::allocator<CustomSoundData::tagNetworkInfo> >
; Function compile flags: /Ogsp
; File c:\program files (x86)\microsoft visual studio 10.0\vc\include\xmemory
;	COMDAT ??$_Destroy_range@V?$allocator@UtagNetworkInfo@CustomSoundData@@@std@@@std@@YAXPAUtagNetworkInfo@CustomSoundData@@0AAV?$allocator@UtagNetworkInfo@CustomSoundData@@@0@@Z
_TEXT	SEGMENT
__First$ = 8						; size = 4
__Last$ = 12						; size = 4
__Al$ = 16						; size = 4
??$_Destroy_range@V?$allocator@UtagNetworkInfo@CustomSoundData@@@std@@@std@@YAXPAUtagNetworkInfo@CustomSoundData@@0AAV?$allocator@UtagNetworkInfo@CustomSoundData@@@0@@Z PROC ; std::_Destroy_range<std::allocator<CustomSoundData::tagNetworkInfo> >, COMDAT

; 88   : 	_Destroy_range(_First, _Last, _Al, _Ptr_cat(_First, _Last));
; 89   : 	}

  00000	c3		 ret	 0
??$_Destroy_range@V?$allocator@UtagNetworkInfo@CustomSoundData@@@std@@@std@@YAXPAUtagNetworkInfo@CustomSoundData@@0AAV?$allocator@UtagNetworkInfo@CustomSoundData@@@0@@Z ENDP ; std::_Destroy_range<std::allocator<CustomSoundData::tagNetworkInfo> >
_TEXT	ENDS
PUBLIC	?_Linsert@?$_Tree@V?$_Tmap_traits@KPAVCustomSoundData@@U?$less@K@std@@V?$allocator@U?$pair@$$CBKPAVCustomSoundData@@@std@@@3@$0A@@std@@@std@@QAE?AU?$pair@V?$_Tree_iterator@V?$_Tree_val@V?$_Tmap_traits@KPAVCustomSoundData@@U?$less@K@std@@V?$allocator@U?$pair@$$CBKPAVCustomSoundData@@@std@@@3@$0A@@std@@@std@@@std@@_N@2@PAU_Node@?$_Tree_nod@V?$_Tmap_traits@KPAVCustomSoundData@@U?$less@K@std@@V?$allocator@U?$pair@$$CBKPAVCustomSoundData@@@std@@@3@$0A@@std@@@2@_N@Z ; std::_Tree<std::_Tmap_traits<unsigned long,CustomSoundData *,std::less<unsigned long>,std::allocator<std::pair<unsigned long const ,CustomSoundData *> >,0> >::_Linsert
; Function compile flags: /Ogsp
; File c:\program files (x86)\microsoft visual studio 10.0\vc\include\xtree
;	COMDAT ?_Linsert@?$_Tree@V?$_Tmap_traits@KPAVCustomSoundData@@U?$less@K@std@@V?$allocator@U?$pair@$$CBKPAVCustomSoundData@@@std@@@3@$0A@@std@@@std@@QAE?AU?$pair@V?$_Tree_iterator@V?$_Tree_val@V?$_Tmap_traits@KPAVCustomSoundData@@U?$less@K@std@@V?$allocator@U?$pair@$$CBKPAVCustomSoundData@@@std@@@3@$0A@@std@@@std@@@std@@_N@2@PAU_Node@?$_Tree_nod@V?$_Tmap_traits@KPAVCustomSoundData@@U?$less@K@std@@V?$allocator@U?$pair@$$CBKPAVCustomSoundData@@@std@@@3@$0A@@std@@@2@_N@Z
_TEXT	SEGMENT
__Addleft$ = -4						; size = 1
___$ReturnUdt$ = 8					; size = 4
__Node$ = 12						; size = 4
$T516107 = 16						; size = 4
__Where$509602 = 16					; size = 4
__Leftish$ = 16						; size = 1
?_Linsert@?$_Tree@V?$_Tmap_traits@KPAVCustomSoundData@@U?$less@K@std@@V?$allocator@U?$pair@$$CBKPAVCustomSoundData@@@std@@@3@$0A@@std@@@std@@QAE?AU?$pair@V?$_Tree_iterator@V?$_Tree_val@V?$_Tmap_traits@KPAVCustomSoundData@@U?$less@K@std@@V?$allocator@U?$pair@$$CBKPAVCustomSoundData@@@std@@@3@$0A@@std@@@std@@@std@@_N@2@PAU_Node@?$_Tree_nod@V?$_Tmap_traits@KPAVCustomSoundData@@U?$less@K@std@@V?$allocator@U?$pair@$$CBKPAVCustomSoundData@@@std@@@3@$0A@@std@@@2@_N@Z PROC ; std::_Tree<std::_Tmap_traits<unsigned long,CustomSoundData *,std::less<unsigned long>,std::allocator<std::pair<unsigned long const ,CustomSoundData *> >,0> >::_Linsert, COMDAT
; _this$ = ecx

; 944  : 		{	// try to insert node at _Node, on left if _Leftish

  00000	55		 push	 ebp
  00001	8b ec		 mov	 ebp, esp
  00003	51		 push	 ecx
  00004	53		 push	 ebx
  00005	56		 push	 esi
  00006	8b f1		 mov	 esi, ecx

; 945  : 		const value_type& _Val = this->_Myval(_Node);
; 946  : 
; 947  : 		_Nodeptr _Trynode = _Root();

  00008	8b 4e 04	 mov	 ecx, DWORD PTR [esi+4]
  0000b	8b 41 04	 mov	 eax, DWORD PTR [ecx+4]

; 948  : 		_Nodeptr _Wherenode = this->_Myhead;
; 949  : 		bool _Addleft = true;	// add to left of head if tree empty
; 950  : 		while (!this->_Isnil(_Trynode))

  0000e	80 78 15 00	 cmp	 BYTE PTR [eax+21], 0
  00012	8b d9		 mov	 ebx, ecx
  00014	b1 01		 mov	 cl, 1
  00016	57		 push	 edi
  00017	88 4d fc	 mov	 BYTE PTR __Addleft$[ebp], cl
  0001a	75 31		 jne	 SHORT $LN151@Linsert
  0001c	8b 4d 0c	 mov	 ecx, DWORD PTR __Node$[ebp]
  0001f	8b 51 0c	 mov	 edx, DWORD PTR [ecx+12]
$LL12@Linsert:

; 951  : 			{	// look for leaf to insert before (_Addleft) or after
; 952  : 			_Wherenode = _Trynode;
; 953  : 			if (_Leftish)

  00022	80 7d 10 00	 cmp	 BYTE PTR __Leftish$[ebp], 0
  00026	8b d8		 mov	 ebx, eax
  00028	74 09		 je	 SHORT $LN10@Linsert

; 954  : 				_Addleft = !_DEBUG_LT_PRED(this->comp,

  0002a	39 50 0c	 cmp	 DWORD PTR [eax+12], edx
  0002d	1a c9		 sbb	 cl, cl
  0002f	fe c1		 inc	 cl

; 955  : 					this->_Key(_Trynode),
; 956  : 					this->_Kfn(_Val));	// favor left end
; 957  : 			else

  00031	eb 06		 jmp	 SHORT $LN152@Linsert
$LN10@Linsert:

; 958  : 				_Addleft = _DEBUG_LT_PRED(this->comp,

  00033	3b 50 0c	 cmp	 edx, DWORD PTR [eax+12]
  00036	0f 92 c1	 setb	 cl
$LN152@Linsert:
  00039	88 4d fc	 mov	 BYTE PTR __Addleft$[ebp], cl

; 959  : 					this->_Kfn(_Val),
; 960  : 					this->_Key(_Trynode));	// favor right end
; 961  : 			_Trynode = _Addleft ? this->_Left(_Trynode)
; 962  : 				: this->_Right(_Trynode);

  0003c	84 c9		 test	 cl, cl
  0003e	74 04		 je	 SHORT $LN15@Linsert
  00040	8b 00		 mov	 eax, DWORD PTR [eax]
  00042	eb 03		 jmp	 SHORT $LN16@Linsert
$LN15@Linsert:
  00044	8b 40 08	 mov	 eax, DWORD PTR [eax+8]
$LN16@Linsert:

; 948  : 		_Nodeptr _Wherenode = this->_Myhead;
; 949  : 		bool _Addleft = true;	// add to left of head if tree empty
; 950  : 		while (!this->_Isnil(_Trynode))

  00047	80 78 15 00	 cmp	 BYTE PTR [eax+21], 0
  0004b	74 d5		 je	 SHORT $LL12@Linsert
$LN151@Linsert:

; 963  : 			}
; 964  : 
; 965  : 		if (this->_Multi)
; 966  : 			return (_Pairib(_Insert(_Addleft, _Wherenode, _Node), true));
; 967  : 		else
; 968  : 			{	// insert only if unique
; 969  : 			iterator _Where = iterator(_Wherenode, this);

  0004d	8b fb		 mov	 edi, ebx
  0004f	89 7d 10	 mov	 DWORD PTR __Where$509602[ebp], edi

; 970  : 			if (!_Addleft)

  00052	84 c9		 test	 cl, cl
  00054	74 30		 je	 SHORT $LN99@Linsert

; 971  : 				;	// need to test if insert after is okay
; 972  : 			else if (_Where == begin())

  00056	8b 46 04	 mov	 eax, DWORD PTR [esi+4]
  00059	3b 18		 cmp	 ebx, DWORD PTR [eax]
  0005b	75 1e		 jne	 SHORT $LN4@Linsert

; 973  : 				return (_Pairib(_Insert(true, _Wherenode, _Node), true));

  0005d	ff 75 0c	 push	 DWORD PTR __Node$[ebp]
  00060	53		 push	 ebx
  00061	6a 01		 push	 1
$LN153@Linsert:
  00063	8d 45 10	 lea	 eax, DWORD PTR $T516107[ebp]
  00066	50		 push	 eax
  00067	8b ce		 mov	 ecx, esi
  00069	e8 00 00 00 00	 call	 ?_Insert@?$_Tree@V?$_Tmap_traits@KPAVCustomSoundData@@U?$less@K@std@@V?$allocator@U?$pair@$$CBKPAVCustomSoundData@@@std@@@3@$0A@@std@@@std@@IAE?AV?$_Tree_iterator@V?$_Tree_val@V?$_Tmap_traits@KPAVCustomSoundData@@U?$less@K@std@@V?$allocator@U?$pair@$$CBKPAVCustomSoundData@@@std@@@3@$0A@@std@@@std@@@2@_NPAU_Node@?$_Tree_nod@V?$_Tmap_traits@KPAVCustomSoundData@@U?$less@K@std@@V?$allocator@U?$pair@$$CBKPAVCustomSoundData@@@std@@@3@$0A@@std@@@2@1@Z ; std::_Tree<std::_Tmap_traits<unsigned long,CustomSoundData *,std::less<unsigned long>,std::allocator<std::pair<unsigned long const ,CustomSoundData *> >,0> >::_Insert
  0006e	8b 08		 mov	 ecx, DWORD PTR [eax]
  00070	8b 45 08	 mov	 eax, DWORD PTR ___$ReturnUdt$[ebp]
  00073	89 08		 mov	 DWORD PTR [eax], ecx
  00075	c6 40 04 01	 mov	 BYTE PTR [eax+4], 1
  00079	eb 2c		 jmp	 SHORT $LN1@Linsert
$LN4@Linsert:

; 974  : 			else
; 975  : 				--_Where;	// need to test if insert before is okay

  0007b	8d 4d 10	 lea	 ecx, DWORD PTR __Where$509602[ebp]
  0007e	e8 00 00 00 00	 call	 ??F?$_Tree_unchecked_const_iterator@V?$_Tree_val@V?$_Tmap_traits@KPAVCustomSoundData@@U?$less@K@std@@V?$allocator@U?$pair@$$CBKPAVCustomSoundData@@@std@@@3@$0A@@std@@@std@@U_Iterator_base0@2@@std@@QAEAAV01@XZ ; std::_Tree_unchecked_const_iterator<std::_Tree_val<std::_Tmap_traits<unsigned long,CustomSoundData *,std::less<unsigned long>,std::allocator<std::pair<unsigned long const ,CustomSoundData *> >,0> >,std::_Iterator_base0>::operator--
  00083	8b 7d 10	 mov	 edi, DWORD PTR __Where$509602[ebp]
$LN99@Linsert:

; 976  : 
; 977  : 			if (_DEBUG_LT_PRED(this->comp,

  00086	8b 45 0c	 mov	 eax, DWORD PTR __Node$[ebp]
  00089	8b 4f 0c	 mov	 ecx, DWORD PTR [edi+12]

; 978  : 				this->_Key(_Where._Mynode()),
; 979  : 				this->_Kfn(_Val)))
; 980  : 				return (_Pairib(_Insert(_Addleft, _Wherenode, _Node), true));

  0008c	50		 push	 eax
  0008d	3b 48 0c	 cmp	 ecx, DWORD PTR [eax+12]
  00090	73 06		 jae	 SHORT $LN2@Linsert
  00092	53		 push	 ebx
  00093	ff 75 fc	 push	 DWORD PTR __Addleft$[ebp]
  00096	eb cb		 jmp	 SHORT $LN153@Linsert
$LN2@Linsert:

; 981  : 			else
; 982  : 				{	// duplicate, don't insert
; 983  : 				_Dest_val(this->_Alval,
; 984  : 					_STD addressof(this->_Myval(_Node)));
; 985  : 
; 986  : 				this->_Alnod.deallocate(_Node, 1);

  00098	e8 00 00 00 00	 call	 ??3@YAXPAX@Z		; operator delete

; 987  : 
; 988  : 				return (_Pairib(_Where, false));

  0009d	8b 45 08	 mov	 eax, DWORD PTR ___$ReturnUdt$[ebp]
  000a0	59		 pop	 ecx
  000a1	89 38		 mov	 DWORD PTR [eax], edi
  000a3	c6 40 04 00	 mov	 BYTE PTR [eax+4], 0
$LN1@Linsert:
  000a7	5f		 pop	 edi
  000a8	5e		 pop	 esi
  000a9	5b		 pop	 ebx

; 989  : 				}
; 990  : 			}
; 991  : 		}

  000aa	c9		 leave
  000ab	c2 0c 00	 ret	 12			; 0000000cH
?_Linsert@?$_Tree@V?$_Tmap_traits@KPAVCustomSoundData@@U?$less@K@std@@V?$allocator@U?$pair@$$CBKPAVCustomSoundData@@@std@@@3@$0A@@std@@@std@@QAE?AU?$pair@V?$_Tree_iterator@V?$_Tree_val@V?$_Tmap_traits@KPAVCustomSoundData@@U?$less@K@std@@V?$allocator@U?$pair@$$CBKPAVCustomSoundData@@@std@@@3@$0A@@std@@@std@@@std@@_N@2@PAU_Node@?$_Tree_nod@V?$_Tmap_traits@KPAVCustomSoundData@@U?$less@K@std@@V?$allocator@U?$pair@$$CBKPAVCustomSoundData@@@std@@@3@$0A@@std@@@2@_N@Z ENDP ; std::_Tree<std::_Tmap_traits<unsigned long,CustomSoundData *,std::less<unsigned long>,std::allocator<std::pair<unsigned long const ,CustomSoundData *> >,0> >::_Linsert
_TEXT	ENDS
PUBLIC	??$_Uninitialized_move@PAUtagNetworkInfo@CustomSoundData@@PAU12@V?$allocator@UtagNetworkInfo@CustomSoundData@@@std@@@std@@YAPAUtagNetworkInfo@CustomSoundData@@PAU12@00AAV?$allocator@UtagNetworkInfo@CustomSoundData@@@0@@Z ; std::_Uninitialized_move<CustomSoundData::tagNetworkInfo *,CustomSoundData::tagNetworkInfo *,std::allocator<CustomSoundData::tagNetworkInfo> >
; Function compile flags: /Ogsp
; File c:\program files (x86)\microsoft visual studio 10.0\vc\include\memory
;	COMDAT ??$_Uninitialized_move@PAUtagNetworkInfo@CustomSoundData@@PAU12@V?$allocator@UtagNetworkInfo@CustomSoundData@@@std@@@std@@YAPAUtagNetworkInfo@CustomSoundData@@PAU12@00AAV?$allocator@UtagNetworkInfo@CustomSoundData@@@0@@Z
_TEXT	SEGMENT
__Cat$516441 = -4					; size = 1
__First$ = 8						; size = 4
__Last$ = 12						; size = 4
__Dest$ = 16						; size = 4
__Al$ = 20						; size = 4
??$_Uninitialized_move@PAUtagNetworkInfo@CustomSoundData@@PAU12@V?$allocator@UtagNetworkInfo@CustomSoundData@@@std@@@std@@YAPAUtagNetworkInfo@CustomSoundData@@PAU12@00AAV?$allocator@UtagNetworkInfo@CustomSoundData@@@0@@Z PROC ; std::_Uninitialized_move<CustomSoundData::tagNetworkInfo *,CustomSoundData::tagNetworkInfo *,std::allocator<CustomSoundData::tagNetworkInfo> >, COMDAT

; 469  : 	{	// move [_First, _Last) to raw _Dest, using _Al

  00000	55		 push	 ebp
  00001	8b ec		 mov	 ebp, esp
  00003	51		 push	 ecx

; 470  : 	return (_Uninit_move(_First, _Last, _Dest, _Al,
; 471  : 		_Val_type(_First), _Ptr_cat(_First, _Dest)));

  00004	ff 75 fc	 push	 DWORD PTR __Cat$516441[ebp]
  00007	6a 00		 push	 0
  00009	ff 75 14	 push	 DWORD PTR __Al$[ebp]
  0000c	ff 75 10	 push	 DWORD PTR __Dest$[ebp]
  0000f	ff 75 0c	 push	 DWORD PTR __Last$[ebp]
  00012	ff 75 08	 push	 DWORD PTR __First$[ebp]
  00015	e8 00 00 00 00	 call	 ??$_Uninit_move@PAUtagNetworkInfo@CustomSoundData@@PAU12@V?$allocator@UtagNetworkInfo@CustomSoundData@@@std@@U12@@std@@YAPAUtagNetworkInfo@CustomSoundData@@PAU12@00AAV?$allocator@UtagNetworkInfo@CustomSoundData@@@0@0U_Nonscalar_ptr_iterator_tag@0@@Z ; std::_Uninit_move<CustomSoundData::tagNetworkInfo *,CustomSoundData::tagNetworkInfo *,std::allocator<CustomSoundData::tagNetworkInfo>,CustomSoundData::tagNetworkInfo>
  0001a	83 c4 18	 add	 esp, 24			; 00000018H

; 472  : 	}

  0001d	c9		 leave
  0001e	c3		 ret	 0
??$_Uninitialized_move@PAUtagNetworkInfo@CustomSoundData@@PAU12@V?$allocator@UtagNetworkInfo@CustomSoundData@@@std@@@std@@YAPAUtagNetworkInfo@CustomSoundData@@PAU12@00AAV?$allocator@UtagNetworkInfo@CustomSoundData@@@0@@Z ENDP ; std::_Uninitialized_move<CustomSoundData::tagNetworkInfo *,CustomSoundData::tagNetworkInfo *,std::allocator<CustomSoundData::tagNetworkInfo> >
_TEXT	ENDS
PUBLIC	??$_Cons_val@V?$allocator@U?$pair@$$CBKPAVCustomSoundData@@@std@@@std@@U?$pair@$$CBKPAVCustomSoundData@@@2@U32@@std@@YAXAAV?$allocator@U?$pair@$$CBKPAVCustomSoundData@@@std@@@0@PAU?$pair@$$CBKPAVCustomSoundData@@@0@$$QAU20@@Z ; std::_Cons_val<std::allocator<std::pair<unsigned long const ,CustomSoundData *> >,std::pair<unsigned long const ,CustomSoundData *>,std::pair<unsigned long const ,CustomSoundData *> >
; Function compile flags: /Ogsp
; File c:\program files (x86)\microsoft visual studio 10.0\vc\include\xmemory
;	COMDAT ??$_Cons_val@V?$allocator@U?$pair@$$CBKPAVCustomSoundData@@@std@@@std@@U?$pair@$$CBKPAVCustomSoundData@@@2@U32@@std@@YAXAAV?$allocator@U?$pair@$$CBKPAVCustomSoundData@@@std@@@0@PAU?$pair@$$CBKPAVCustomSoundData@@@0@$$QAU20@@Z
_TEXT	SEGMENT
__Alval$ = 8						; size = 4
__Pdest$ = 12						; size = 4
__Src$ = 16						; size = 4
??$_Cons_val@V?$allocator@U?$pair@$$CBKPAVCustomSoundData@@@std@@@std@@U?$pair@$$CBKPAVCustomSoundData@@@2@U32@@std@@YAXAAV?$allocator@U?$pair@$$CBKPAVCustomSoundData@@@std@@@0@PAU?$pair@$$CBKPAVCustomSoundData@@@0@$$QAU20@@Z PROC ; std::_Cons_val<std::allocator<std::pair<unsigned long const ,CustomSoundData *> >,std::pair<unsigned long const ,CustomSoundData *>,std::pair<unsigned long const ,CustomSoundData *> >, COMDAT

; 279  : 	{	// construct using allocator

  00000	55		 push	 ebp
  00001	8b ec		 mov	 ebp, esp

; 280  : 	_Alval.construct(_Pdest, _STD forward<_Ty2>(_Src));

  00003	8b 45 0c	 mov	 eax, DWORD PTR __Pdest$[ebp]
  00006	85 c0		 test	 eax, eax
  00008	74 0d		 je	 SHORT $LN7@Cons_val@6
  0000a	8b 4d 10	 mov	 ecx, DWORD PTR __Src$[ebp]
  0000d	8b 11		 mov	 edx, DWORD PTR [ecx]
  0000f	89 10		 mov	 DWORD PTR [eax], edx
  00011	8b 49 04	 mov	 ecx, DWORD PTR [ecx+4]
  00014	89 48 04	 mov	 DWORD PTR [eax+4], ecx
$LN7@Cons_val@6:

; 281  : 	}

  00017	5d		 pop	 ebp
  00018	c3		 ret	 0
??$_Cons_val@V?$allocator@U?$pair@$$CBKPAVCustomSoundData@@@std@@@std@@U?$pair@$$CBKPAVCustomSoundData@@@2@U32@@std@@YAXAAV?$allocator@U?$pair@$$CBKPAVCustomSoundData@@@std@@@0@PAU?$pair@$$CBKPAVCustomSoundData@@@0@$$QAU20@@Z ENDP ; std::_Cons_val<std::allocator<std::pair<unsigned long const ,CustomSoundData *> >,std::pair<unsigned long const ,CustomSoundData *>,std::pair<unsigned long const ,CustomSoundData *> >
_TEXT	ENDS
PUBLIC	??$_Uninit_move@PAVioHashString@@PAV1@V?$allocator@VioHashString@@@std@@V1@@std@@YAPAVioHashString@@PAV1@00AAV?$allocator@VioHashString@@@0@0U_Nonscalar_ptr_iterator_tag@0@@Z ; std::_Uninit_move<ioHashString *,ioHashString *,std::allocator<ioHashString>,ioHashString>
EXTRN	__EH_prolog3_catch:PROC
;	COMDAT xdata$x
; File c:\program files (x86)\microsoft visual studio 10.0\vc\include\vector
xdata$x	SEGMENT
__catchsym$??$_Uninit_move@PAVioHashString@@PAV1@V?$allocator@VioHashString@@@std@@V1@@std@@YAPAVioHashString@@PAV1@00AAV?$allocator@VioHashString@@@0@0U_Nonscalar_ptr_iterator_tag@0@@Z$2 DD 040H
	DD	00H
	DD	00H
	DD	FLAT:__catch$??$_Uninit_move@PAVioHashString@@PAV1@V?$allocator@VioHashString@@@std@@V1@@std@@YAPAVioHashString@@PAV1@00AAV?$allocator@VioHashString@@@0@0U_Nonscalar_ptr_iterator_tag@0@@Z$0
__unwindtable$??$_Uninit_move@PAVioHashString@@PAV1@V?$allocator@VioHashString@@@std@@V1@@std@@YAPAVioHashString@@PAV1@00AAV?$allocator@VioHashString@@@0@0U_Nonscalar_ptr_iterator_tag@0@@Z DD 0ffffffffH
	DD	00H
	DD	0ffffffffH
	DD	00H
__tryblocktable$??$_Uninit_move@PAVioHashString@@PAV1@V?$allocator@VioHashString@@@std@@V1@@std@@YAPAVioHashString@@PAV1@00AAV?$allocator@VioHashString@@@0@0U_Nonscalar_ptr_iterator_tag@0@@Z DD 00H
	DD	00H
	DD	01H
	DD	01H
	DD	FLAT:__catchsym$??$_Uninit_move@PAVioHashString@@PAV1@V?$allocator@VioHashString@@@std@@V1@@std@@YAPAVioHashString@@PAV1@00AAV?$allocator@VioHashString@@@0@0U_Nonscalar_ptr_iterator_tag@0@@Z$2
__ehfuncinfo$??$_Uninit_move@PAVioHashString@@PAV1@V?$allocator@VioHashString@@@std@@V1@@std@@YAPAVioHashString@@PAV1@00AAV?$allocator@VioHashString@@@0@0U_Nonscalar_ptr_iterator_tag@0@@Z DD 019930522H
	DD	02H
	DD	FLAT:__unwindtable$??$_Uninit_move@PAVioHashString@@PAV1@V?$allocator@VioHashString@@@std@@V1@@std@@YAPAVioHashString@@PAV1@00AAV?$allocator@VioHashString@@@0@0U_Nonscalar_ptr_iterator_tag@0@@Z
	DD	01H
	DD	FLAT:__tryblocktable$??$_Uninit_move@PAVioHashString@@PAV1@V?$allocator@VioHashString@@@std@@V1@@std@@YAPAVioHashString@@PAV1@00AAV?$allocator@VioHashString@@@0@0U_Nonscalar_ptr_iterator_tag@0@@Z
	DD	2 DUP(00H)
	DD	00H
	DD	01H
; Function compile flags: /Ogsp
; File c:\program files (x86)\microsoft visual studio 10.0\vc\include\memory
xdata$x	ENDS
;	COMDAT ??$_Uninit_move@PAVioHashString@@PAV1@V?$allocator@VioHashString@@@std@@V1@@std@@YAPAVioHashString@@PAV1@00AAV?$allocator@VioHashString@@@0@0U_Nonscalar_ptr_iterator_tag@0@@Z
_TEXT	SEGMENT
__Next$ = -20						; size = 4
__$EHRec$ = -16						; size = 16
__First$ = 8						; size = 4
__Last$ = 12						; size = 4
__Dest$ = 16						; size = 4
__Al$ = 20						; size = 4
___formal$ = 24						; size = 4
___formal$ = 28						; size = 1
??$_Uninit_move@PAVioHashString@@PAV1@V?$allocator@VioHashString@@@std@@V1@@std@@YAPAVioHashString@@PAV1@00AAV?$allocator@VioHashString@@@0@0U_Nonscalar_ptr_iterator_tag@0@@Z PROC ; std::_Uninit_move<ioHashString *,ioHashString *,std::allocator<ioHashString>,ioHashString>, COMDAT

; 424  : 	{	// move [_First, _Last) to raw _Dest, using _Al, arbitrary type

  00000	6a 08		 push	 8
  00002	b8 00 00 00 00	 mov	 eax, __ehhandler$??$_Uninit_move@PAVioHashString@@PAV1@V?$allocator@VioHashString@@@std@@V1@@std@@YAPAVioHashString@@PAV1@00AAV?$allocator@VioHashString@@@0@0U_Nonscalar_ptr_iterator_tag@0@@Z
  00007	e8 00 00 00 00	 call	 __EH_prolog3_catch

; 425  : 	_DEBUG_RANGE(_First, _Last);
; 426  : 	_DEBUG_POINTER(_Dest);
; 427  : 	_FwdIt _Next = _Dest;

  0000c	8b 45 10	 mov	 eax, DWORD PTR __Dest$[ebp]

; 428  : 
; 429  : 	_TRY_BEGIN

  0000f	83 65 fc 00	 and	 DWORD PTR __$EHRec$[ebp+12], 0
  00013	8b 75 08	 mov	 esi, DWORD PTR __First$[ebp]
  00016	89 45 ec	 mov	 DWORD PTR __Next$[ebp], eax
$LL6@Uninit_mov@2:

; 430  : 	for (; _First != _Last; ++_Dest, ++_First)

  00019	3b 75 0c	 cmp	 esi, DWORD PTR __Last$[ebp]
  0001c	74 33		 je	 SHORT $LN4@Uninit_mov@2

; 431  : 		_Cons_val(_Al, _Dest, (_Valty &&)*_First);

  0001e	8b 4d 14	 mov	 ecx, DWORD PTR __Al$[ebp]
  00021	56		 push	 esi
  00022	ff 75 10	 push	 DWORD PTR __Dest$[ebp]
  00025	e8 00 00 00 00	 call	 ?construct@?$allocator@VioHashString@@@std@@QAEXPAVioHashString@@$$QAV3@@Z ; std::allocator<ioHashString>::construct
  0002a	83 45 10 10	 add	 DWORD PTR __Dest$[ebp], 16 ; 00000010H
  0002e	83 c6 10	 add	 esi, 16			; 00000010H
  00031	eb e6		 jmp	 SHORT $LL6@Uninit_mov@2
__catch$??$_Uninit_move@PAVioHashString@@PAV1@V?$allocator@VioHashString@@@std@@V1@@std@@YAPAVioHashString@@PAV1@00AAV?$allocator@VioHashString@@@0@0U_Nonscalar_ptr_iterator_tag@0@@Z$0:

; 432  : 	_CATCH_ALL
; 433  : 	for (; _Next != _Dest; ++_Next)

  00033	8b 75 ec	 mov	 esi, DWORD PTR __Next$[ebp]
  00036	eb 0b		 jmp	 SHORT $LN33@Uninit_mov@2
$LL3@Uninit_mov@2:

; 434  : 		_Dest_val(_Al, _Next);

  00038	8b ce		 mov	 ecx, esi
  0003a	ff 15 00 00 00
	00		 call	 DWORD PTR __imp_??1ioHashString@@QAE@XZ
  00040	83 c6 10	 add	 esi, 16			; 00000010H
$LN33@Uninit_mov@2:

; 432  : 	_CATCH_ALL
; 433  : 	for (; _Next != _Dest; ++_Next)

  00043	3b 75 10	 cmp	 esi, DWORD PTR __Dest$[ebp]
  00046	75 f0		 jne	 SHORT $LL3@Uninit_mov@2

; 435  : 	_RERAISE;

  00048	6a 00		 push	 0
  0004a	6a 00		 push	 0
  0004c	e8 00 00 00 00	 call	 __CxxThrowException@8
$LN34@Uninit_mov@2:
$LN4@Uninit_mov@2:

; 436  : 	_CATCH_END
; 437  : 	return (_Dest);

  00051	8b 45 10	 mov	 eax, DWORD PTR __Dest$[ebp]

; 438  : 	}

  00054	e8 00 00 00 00	 call	 __EH_epilog3
  00059	c3		 ret	 0
$LN32@Uninit_mov@2:
_TEXT	ENDS
;	COMDAT text$x
text$x	SEGMENT
__ehhandler$??$_Uninit_move@PAVioHashString@@PAV1@V?$allocator@VioHashString@@@std@@V1@@std@@YAPAVioHashString@@PAV1@00AAV?$allocator@VioHashString@@@0@0U_Nonscalar_ptr_iterator_tag@0@@Z:
  00000	8b 54 24 08	 mov	 edx, DWORD PTR [esp+8]
  00004	8d 42 0c	 lea	 eax, DWORD PTR [edx+12]
  00007	8b 4a e8	 mov	 ecx, DWORD PTR [edx-24]
  0000a	33 c8		 xor	 ecx, eax
  0000c	e8 00 00 00 00	 call	 @__security_check_cookie@4
  00011	b8 00 00 00 00	 mov	 eax, OFFSET __ehfuncinfo$??$_Uninit_move@PAVioHashString@@PAV1@V?$allocator@VioHashString@@@std@@V1@@std@@YAPAVioHashString@@PAV1@00AAV?$allocator@VioHashString@@@0@0U_Nonscalar_ptr_iterator_tag@0@@Z
  00016	e9 00 00 00 00	 jmp	 ___CxxFrameHandler3
text$x	ENDS
??$_Uninit_move@PAVioHashString@@PAV1@V?$allocator@VioHashString@@@std@@V1@@std@@YAPAVioHashString@@PAV1@00AAV?$allocator@VioHashString@@@0@0U_Nonscalar_ptr_iterator_tag@0@@Z ENDP ; std::_Uninit_move<ioHashString *,ioHashString *,std::allocator<ioHashString>,ioHashString>
PUBLIC	?clear@?$_Tree@V?$_Tmap_traits@KPAVCustomSoundData@@U?$less@K@std@@V?$allocator@U?$pair@$$CBKPAVCustomSoundData@@@std@@@3@$0A@@std@@@std@@QAEXXZ ; std::_Tree<std::_Tmap_traits<unsigned long,CustomSoundData *,std::less<unsigned long>,std::allocator<std::pair<unsigned long const ,CustomSoundData *> >,0> >::clear
; Function compile flags: /Ogsp
; File c:\program files (x86)\microsoft visual studio 10.0\vc\include\xtree
;	COMDAT ?clear@?$_Tree@V?$_Tmap_traits@KPAVCustomSoundData@@U?$less@K@std@@V?$allocator@U?$pair@$$CBKPAVCustomSoundData@@@std@@@3@$0A@@std@@@std@@QAEXXZ
_TEXT	SEGMENT
?clear@?$_Tree@V?$_Tmap_traits@KPAVCustomSoundData@@U?$less@K@std@@V?$allocator@U?$pair@$$CBKPAVCustomSoundData@@@std@@@3@$0A@@std@@@std@@QAEXXZ PROC ; std::_Tree<std::_Tmap_traits<unsigned long,CustomSoundData *,std::less<unsigned long>,std::allocator<std::pair<unsigned long const ,CustomSoundData *> >,0> >::clear, COMDAT
; _this$ = ecx

; 1410 : 		{	// erase all

  00000	56		 push	 esi
  00001	57		 push	 edi
  00002	8b f9		 mov	 edi, ecx

; 1411 :  #if _ITERATOR_DEBUG_LEVEL == 2
; 1412 : 		this->_Orphan_ptr(*this, 0);
; 1413 :  #endif /* _ITERATOR_DEBUG_LEVEL == 2 */
; 1414 : 
; 1415 : 		_Erase(_Root());

  00004	8b 47 04	 mov	 eax, DWORD PTR [edi+4]
  00007	ff 70 04	 push	 DWORD PTR [eax+4]
  0000a	e8 00 00 00 00	 call	 ?_Erase@?$_Tree@V?$_Tmap_traits@KPAVCustomSoundData@@U?$less@K@std@@V?$allocator@U?$pair@$$CBKPAVCustomSoundData@@@std@@@3@$0A@@std@@@std@@IAEXPAU_Node@?$_Tree_nod@V?$_Tmap_traits@KPAVCustomSoundData@@U?$less@K@std@@V?$allocator@U?$pair@$$CBKPAVCustomSoundData@@@std@@@3@$0A@@std@@@2@@Z ; std::_Tree<std::_Tmap_traits<unsigned long,CustomSoundData *,std::less<unsigned long>,std::allocator<std::pair<unsigned long const ,CustomSoundData *> >,0> >::_Erase

; 1416 : 		_Root() = this->_Myhead;

  0000f	8b 47 04	 mov	 eax, DWORD PTR [edi+4]
  00012	89 40 04	 mov	 DWORD PTR [eax+4], eax

; 1417 : 		_Lmost() = this->_Myhead;

  00015	8b 47 04	 mov	 eax, DWORD PTR [edi+4]
  00018	89 00		 mov	 DWORD PTR [eax], eax

; 1418 : 		_Rmost() = this->_Myhead;

  0001a	8b 77 04	 mov	 esi, DWORD PTR [edi+4]
  0001d	89 76 08	 mov	 DWORD PTR [esi+8], esi

; 1419 : 		this->_Mysize = 0;

  00020	83 67 08 00	 and	 DWORD PTR [edi+8], 0
  00024	5f		 pop	 edi
  00025	5e		 pop	 esi

; 1420 : 		}

  00026	c3		 ret	 0
?clear@?$_Tree@V?$_Tmap_traits@KPAVCustomSoundData@@U?$less@K@std@@V?$allocator@U?$pair@$$CBKPAVCustomSoundData@@@std@@@3@$0A@@std@@@std@@QAEXXZ ENDP ; std::_Tree<std::_Tmap_traits<unsigned long,CustomSoundData *,std::less<unsigned long>,std::allocator<std::pair<unsigned long const ,CustomSoundData *> >,0> >::clear
_TEXT	ENDS
PUBLIC	??$_Destroy_range@V?$allocator@VioHashString@@@std@@@std@@YAXPAVioHashString@@0AAV?$allocator@VioHashString@@@0@U_Nonscalar_ptr_iterator_tag@0@@Z ; std::_Destroy_range<std::allocator<ioHashString> >
; Function compile flags: /Ogsp
; File c:\program files (x86)\microsoft visual studio 10.0\vc\include\xmemory
;	COMDAT ??$_Destroy_range@V?$allocator@VioHashString@@@std@@@std@@YAXPAVioHashString@@0AAV?$allocator@VioHashString@@@0@U_Nonscalar_ptr_iterator_tag@0@@Z
_TEXT	SEGMENT
__First$ = 8						; size = 4
__Last$ = 12						; size = 4
__Al$ = 16						; size = 4
___formal$ = 20						; size = 1
??$_Destroy_range@V?$allocator@VioHashString@@@std@@@std@@YAXPAVioHashString@@0AAV?$allocator@VioHashString@@@0@U_Nonscalar_ptr_iterator_tag@0@@Z PROC ; std::_Destroy_range<std::allocator<ioHashString> >, COMDAT

; 95   : 	{	// destroy [_First, _Last), arbitrary type

  00000	55		 push	 ebp
  00001	8b ec		 mov	 ebp, esp
  00003	56		 push	 esi

; 96   : 	for (; _First != _Last; ++_First)

  00004	8b 75 08	 mov	 esi, DWORD PTR __First$[ebp]
  00007	eb 0b		 jmp	 SHORT $LN17@Destroy_ra
$LL3@Destroy_ra:

; 97   : 		_Dest_val(_Al, _First);

  00009	8b ce		 mov	 ecx, esi
  0000b	ff 15 00 00 00
	00		 call	 DWORD PTR __imp_??1ioHashString@@QAE@XZ
  00011	83 c6 10	 add	 esi, 16			; 00000010H
$LN17@Destroy_ra:

; 96   : 	for (; _First != _Last; ++_First)

  00014	3b 75 0c	 cmp	 esi, DWORD PTR __Last$[ebp]
  00017	75 f0		 jne	 SHORT $LL3@Destroy_ra
  00019	5e		 pop	 esi

; 98   : 	}

  0001a	5d		 pop	 ebp
  0001b	c3		 ret	 0
??$_Destroy_range@V?$allocator@VioHashString@@@std@@@std@@YAXPAVioHashString@@0AAV?$allocator@VioHashString@@@0@U_Nonscalar_ptr_iterator_tag@0@@Z ENDP ; std::_Destroy_range<std::allocator<ioHashString> >
_TEXT	ENDS
PUBLIC	?PlayMy@ioCustomSoundMgr@@QAEXKK@Z		; ioCustomSoundMgr::PlayMy
; Function compile flags: /Ogsp
; File d:\lost saga for developer\youtube\tutorial\source\src\lsclient\iocustomsoundmgr.cpp
;	COMDAT ?PlayMy@ioCustomSoundMgr@@QAEXKK@Z
_TEXT	SEGMENT
_iter$ = -8						; size = 4
_dwCurCRC$ = -4						; size = 4
_dwCustomSoundIndex$ = 8				; size = 4
_dwCRC$ = 12						; size = 4
?PlayMy@ioCustomSoundMgr@@QAEXKK@Z PROC			; ioCustomSoundMgr::PlayMy, COMDAT
; _this$ = ecx

; 482  : {

  00000	55		 push	 ebp
  00001	8b ec		 mov	 ebp, esp
  00003	51		 push	 ecx
  00004	51		 push	 ecx
  00005	56		 push	 esi
  00006	8b f1		 mov	 esi, ecx

; 483  :  	if( m_vCustomSoundInfoList.empty() )

  00008	8b 46 04	 mov	 eax, DWORD PTR [esi+4]
  0000b	3b 46 08	 cmp	 eax, DWORD PTR [esi+8]
  0000e	74 7d		 je	 SHORT $LN6@PlayMy

; 484  :  		return;
; 485  :  
; 486  :  	if( m_vCustomSoundInfoList[0]->m_dwUserIndex != g_MyInfo.GetUserIndex() )

  00010	57		 push	 edi
  00011	8b f8		 mov	 edi, eax
  00013	e8 00 00 00 00	 call	 ?GetSingleton@ioMyInfo@@SAAAV1@XZ ; ioMyInfo::GetSingleton
  00018	8b 0f		 mov	 ecx, DWORD PTR [edi]
  0001a	8b 09		 mov	 ecx, DWORD PTR [ecx]
  0001c	3b 48 08	 cmp	 ecx, DWORD PTR [eax+8]
  0001f	75 6b		 jne	 SHORT $LN42@PlayMy

; 487  :  		return;
; 488  :  
; 489  :  	CustomSoundDataMap::iterator iter = m_vCustomSoundInfoList[0]->m_CustomSoundDataMap.find( dwCustomSoundIndex );

  00021	8b 46 04	 mov	 eax, DWORD PTR [esi+4]
  00024	8b 38		 mov	 edi, DWORD PTR [eax]
  00026	8d 45 08	 lea	 eax, DWORD PTR _dwCustomSoundIndex$[ebp]
  00029	50		 push	 eax
  0002a	8d 45 f8	 lea	 eax, DWORD PTR _iter$[ebp]
  0002d	50		 push	 eax
  0002e	8d 4f 14	 lea	 ecx, DWORD PTR [edi+20]
  00031	e8 00 00 00 00	 call	 ?find@?$_Tree@V?$_Tmap_traits@KPAVCustomSoundData@@U?$less@K@std@@V?$allocator@U?$pair@$$CBKPAVCustomSoundData@@@std@@@3@$0A@@std@@@std@@QAE?AV?$_Tree_iterator@V?$_Tree_val@V?$_Tmap_traits@KPAVCustomSoundData@@U?$less@K@std@@V?$allocator@U?$pair@$$CBKPAVCustomSoundData@@@std@@@3@$0A@@std@@@std@@@2@ABK@Z ; std::_Tree<std::_Tmap_traits<unsigned long,CustomSoundData *,std::less<unsigned long>,std::allocator<std::pair<unsigned long const ,CustomSoundData *> >,0> >::find

; 490  :  	
; 491  :  	if( iter == m_vCustomSoundInfoList[0]->m_CustomSoundDataMap.end() )

  00036	8b 45 f8	 mov	 eax, DWORD PTR _iter$[ebp]
  00039	3b 47 18	 cmp	 eax, DWORD PTR [edi+24]
  0003c	74 4e		 je	 SHORT $LN42@PlayMy

; 492  : 		return;
; 493  :  	
; 494  : 	CustomSoundData *pData = iter->second;

  0003e	8b 40 10	 mov	 eax, DWORD PTR [eax+16]

; 495  : 	if( !pData )

  00041	85 c0		 test	 eax, eax
  00043	74 47		 je	 SHORT $LN42@PlayMy

; 496  : 		return;
; 497  : 
; 498  : 	DWORD dwCurCRC = 0;

  00045	83 65 fc 00	 and	 DWORD PTR _dwCurCRC$[ebp], 0

; 499  : 	CCrc32Static::FileCrc32Streams((LPCTSTR)pData->GetFilePath().c_str(), dwCurCRC);

  00049	8d 78 20	 lea	 edi, DWORD PTR [eax+32]
  0004c	8d 45 fc	 lea	 eax, DWORD PTR _dwCurCRC$[ebp]
  0004f	50		 push	 eax
  00050	8b cf		 mov	 ecx, edi
  00052	ff 15 00 00 00
	00		 call	 DWORD PTR __imp_?c_str@ioHashString@@QBEPBDXZ
  00058	50		 push	 eax
  00059	e8 00 00 00 00	 call	 ?FileCrc32Streams@CCrc32Static@@SAKPBDAAK@Z ; CCrc32Static::FileCrc32Streams

; 500  : 	if( dwCurCRC != dwCRC )

  0005e	8b 45 fc	 mov	 eax, DWORD PTR _dwCurCRC$[ebp]
  00061	59		 pop	 ecx
  00062	59		 pop	 ecx
  00063	3b 45 0c	 cmp	 eax, DWORD PTR _dwCRC$[ebp]
  00066	75 24		 jne	 SHORT $LN42@PlayMy

; 501  : 		return;
; 502  : 
; 503  : 	g_SoundMgr.PlayPieceSound( pData->GetFilePath() );

  00068	6a 04		 push	 4
  0006a	6a 00		 push	 0
  0006c	57		 push	 edi
  0006d	ff 15 00 00 00
	00		 call	 DWORD PTR __imp_?GetSingleton@ioSoundManager@@SAAAV1@XZ
  00073	8b c8		 mov	 ecx, eax
  00075	ff 15 00 00 00
	00		 call	 DWORD PTR __imp_?PlayPieceSound@ioSoundManager@@QAEKABVioHashString@@HK@Z

; 504  : 	m_dwLastTimePlayMy = FRAMEGETTIME();

  0007b	ff 15 00 00 00
	00		 call	 DWORD PTR __imp_?GetSingleton@ioFrameTimer@@SAAAV1@XZ
  00081	8b c8		 mov	 ecx, eax
  00083	ff 15 00 00 00
	00		 call	 DWORD PTR __imp_?GetLoopSec@ioFrameTimer@@QBEKXZ
  00089	89 46 2c	 mov	 DWORD PTR [esi+44], eax
$LN42@PlayMy:
  0008c	5f		 pop	 edi
$LN6@PlayMy:
  0008d	5e		 pop	 esi

; 505  : }

  0008e	c9		 leave
  0008f	c2 08 00	 ret	 8
?PlayMy@ioCustomSoundMgr@@QAEXKK@Z ENDP			; ioCustomSoundMgr::PlayMy
_TEXT	ENDS
PUBLIC	?GetMyKeywordAndPath@ioCustomSoundMgr@@QAEXKAAVioHashString@@0@Z ; ioCustomSoundMgr::GetMyKeywordAndPath
; Function compile flags: /Ogsp
;	COMDAT ?GetMyKeywordAndPath@ioCustomSoundMgr@@QAEXKAAVioHashString@@0@Z
_TEXT	SEGMENT
_iter$ = -4						; size = 4
_dwCustomSoundIndex$ = 8				; size = 4
_rszKeyword$ = 12					; size = 4
_rszPath$ = 16						; size = 4
?GetMyKeywordAndPath@ioCustomSoundMgr@@QAEXKAAVioHashString@@0@Z PROC ; ioCustomSoundMgr::GetMyKeywordAndPath, COMDAT
; _this$ = ecx

; 659  : {

  00000	55		 push	 ebp
  00001	8b ec		 mov	 ebp, esp
  00003	51		 push	 ecx
  00004	56		 push	 esi
  00005	8b f1		 mov	 esi, ecx

; 660  : 	if( m_vCustomSoundInfoList.empty() )

  00007	8b 46 04	 mov	 eax, DWORD PTR [esi+4]
  0000a	3b 46 08	 cmp	 eax, DWORD PTR [esi+8]
  0000d	74 4e		 je	 SHORT $LN5@GetMyKeywo

; 661  : 		return;
; 662  : 
; 663  : 	if( m_vCustomSoundInfoList[0]->m_dwUserIndex != g_MyInfo.GetUserIndex() )

  0000f	57		 push	 edi
  00010	8b f8		 mov	 edi, eax
  00012	e8 00 00 00 00	 call	 ?GetSingleton@ioMyInfo@@SAAAV1@XZ ; ioMyInfo::GetSingleton
  00017	8b 0f		 mov	 ecx, DWORD PTR [edi]
  00019	8b 09		 mov	 ecx, DWORD PTR [ecx]
  0001b	3b 48 08	 cmp	 ecx, DWORD PTR [eax+8]
  0001e	75 3c		 jne	 SHORT $LN41@GetMyKeywo

; 664  : 		return;
; 665  : 
; 666  : 	CustomSoundDataMap::iterator iter = m_vCustomSoundInfoList[0]->m_CustomSoundDataMap.find( dwCustomSoundIndex );

  00020	8b 46 04	 mov	 eax, DWORD PTR [esi+4]
  00023	8b 30		 mov	 esi, DWORD PTR [eax]
  00025	8d 45 08	 lea	 eax, DWORD PTR _dwCustomSoundIndex$[ebp]
  00028	50		 push	 eax
  00029	8d 45 fc	 lea	 eax, DWORD PTR _iter$[ebp]
  0002c	50		 push	 eax
  0002d	8d 4e 14	 lea	 ecx, DWORD PTR [esi+20]
  00030	e8 00 00 00 00	 call	 ?find@?$_Tree@V?$_Tmap_traits@KPAVCustomSoundData@@U?$less@K@std@@V?$allocator@U?$pair@$$CBKPAVCustomSoundData@@@std@@@3@$0A@@std@@@std@@QAE?AV?$_Tree_iterator@V?$_Tree_val@V?$_Tmap_traits@KPAVCustomSoundData@@U?$less@K@std@@V?$allocator@U?$pair@$$CBKPAVCustomSoundData@@@std@@@3@$0A@@std@@@std@@@2@ABK@Z ; std::_Tree<std::_Tmap_traits<unsigned long,CustomSoundData *,std::less<unsigned long>,std::allocator<std::pair<unsigned long const ,CustomSoundData *> >,0> >::find

; 667  : 	if( iter==m_vCustomSoundInfoList[0]->m_CustomSoundDataMap.end() )

  00035	8b 45 fc	 mov	 eax, DWORD PTR _iter$[ebp]
  00038	3b 46 18	 cmp	 eax, DWORD PTR [esi+24]
  0003b	74 1f		 je	 SHORT $LN41@GetMyKeywo

; 668  : 		return;
; 669  : 	
; 670  : 	CustomSoundData *pData = iter->second;

  0003d	8b 70 10	 mov	 esi, DWORD PTR [eax+16]

; 671  : 	if( !pData )

  00040	85 f6		 test	 esi, esi
  00042	74 18		 je	 SHORT $LN41@GetMyKeywo

; 672  : 		return;
; 673  : 	
; 674  : 	rszKeyword = pData->GetKeyWord();

  00044	8b 4d 0c	 mov	 ecx, DWORD PTR _rszKeyword$[ebp]
  00047	8b 3d 00 00 00
	00		 mov	 edi, DWORD PTR __imp_??4ioHashString@@QAEAAV0@ABV0@@Z
  0004d	8d 46 10	 lea	 eax, DWORD PTR [esi+16]
  00050	50		 push	 eax
  00051	ff d7		 call	 edi

; 675  : 	rszPath    = pData->GetFilePath();

  00053	8b 4d 10	 mov	 ecx, DWORD PTR _rszPath$[ebp]
  00056	83 c6 20	 add	 esi, 32			; 00000020H
  00059	56		 push	 esi
  0005a	ff d7		 call	 edi
$LN41@GetMyKeywo:
  0005c	5f		 pop	 edi
$LN5@GetMyKeywo:
  0005d	5e		 pop	 esi

; 676  : }

  0005e	c9		 leave
  0005f	c2 0c 00	 ret	 12			; 0000000cH
?GetMyKeywordAndPath@ioCustomSoundMgr@@QAEXKAAVioHashString@@0@Z ENDP ; ioCustomSoundMgr::GetMyKeywordAndPath
_TEXT	ENDS
PUBLIC	?DeleteMyCustomSoundData@ioCustomSoundMgr@@QAEXK@Z ; ioCustomSoundMgr::DeleteMyCustomSoundData
; Function compile flags: /Ogsp
;	COMDAT ?DeleteMyCustomSoundData@ioCustomSoundMgr@@QAEXK@Z
_TEXT	SEGMENT
_iter$ = -4						; size = 4
$T516836 = 8						; size = 4
_dwCustomSoundIndex$ = 8				; size = 4
?DeleteMyCustomSoundData@ioCustomSoundMgr@@QAEXK@Z PROC	; ioCustomSoundMgr::DeleteMyCustomSoundData, COMDAT
; _this$ = ecx

; 679  : {

  00000	55		 push	 ebp
  00001	8b ec		 mov	 ebp, esp
  00003	51		 push	 ecx
  00004	53		 push	 ebx
  00005	8b d9		 mov	 ebx, ecx

; 680  : 	if( m_vCustomSoundInfoList.empty() )

  00007	8b 43 04	 mov	 eax, DWORD PTR [ebx+4]
  0000a	3b 43 08	 cmp	 eax, DWORD PTR [ebx+8]
  0000d	74 54		 je	 SHORT $LN2@DeleteMyCu

; 681  : 		return;
; 682  : 
; 683  : 	if( m_vCustomSoundInfoList[0]->m_dwUserIndex != g_MyInfo.GetUserIndex() )

  0000f	56		 push	 esi
  00010	8b f0		 mov	 esi, eax
  00012	e8 00 00 00 00	 call	 ?GetSingleton@ioMyInfo@@SAAAV1@XZ ; ioMyInfo::GetSingleton
  00017	8b 0e		 mov	 ecx, DWORD PTR [esi]
  00019	8b 09		 mov	 ecx, DWORD PTR [ecx]
  0001b	3b 48 08	 cmp	 ecx, DWORD PTR [eax+8]
  0001e	75 42		 jne	 SHORT $LN59@DeleteMyCu

; 684  : 		return;
; 685  : 
; 686  : 	CustomSoundDataMap::iterator iter = m_vCustomSoundInfoList[0]->m_CustomSoundDataMap.find( dwCustomSoundIndex );

  00020	8b 43 04	 mov	 eax, DWORD PTR [ebx+4]
  00023	57		 push	 edi
  00024	8b 38		 mov	 edi, DWORD PTR [eax]
  00026	8d 45 08	 lea	 eax, DWORD PTR _dwCustomSoundIndex$[ebp]
  00029	50		 push	 eax
  0002a	8d 45 fc	 lea	 eax, DWORD PTR _iter$[ebp]
  0002d	50		 push	 eax
  0002e	8d 4f 14	 lea	 ecx, DWORD PTR [edi+20]
  00031	e8 00 00 00 00	 call	 ?find@?$_Tree@V?$_Tmap_traits@KPAVCustomSoundData@@U?$less@K@std@@V?$allocator@U?$pair@$$CBKPAVCustomSoundData@@@std@@@3@$0A@@std@@@std@@QAE?AV?$_Tree_iterator@V?$_Tree_val@V?$_Tmap_traits@KPAVCustomSoundData@@U?$less@K@std@@V?$allocator@U?$pair@$$CBKPAVCustomSoundData@@@std@@@3@$0A@@std@@@std@@@2@ABK@Z ; std::_Tree<std::_Tmap_traits<unsigned long,CustomSoundData *,std::less<unsigned long>,std::allocator<std::pair<unsigned long const ,CustomSoundData *> >,0> >::find

; 687  : 	if( iter!=m_vCustomSoundInfoList[0]->m_CustomSoundDataMap.end() )

  00036	8b 75 fc	 mov	 esi, DWORD PTR _iter$[ebp]
  00039	3b 77 18	 cmp	 esi, DWORD PTR [edi+24]
  0003c	5f		 pop	 edi
  0003d	74 23		 je	 SHORT $LN59@DeleteMyCu

; 688  : 	{
; 689  : 		SAFEDELETE( iter->second );

  0003f	8b 4e 10	 mov	 ecx, DWORD PTR [esi+16]
  00042	85 c9		 test	 ecx, ecx
  00044	74 0a		 je	 SHORT $LN1@DeleteMyCu
  00046	8b 01		 mov	 eax, DWORD PTR [ecx]
  00048	6a 01		 push	 1
  0004a	ff 10		 call	 DWORD PTR [eax]
  0004c	83 66 10 00	 and	 DWORD PTR [esi+16], 0
$LN1@DeleteMyCu:

; 690  : 		m_vCustomSoundInfoList[0]->m_CustomSoundDataMap.erase( iter );

  00050	56		 push	 esi
  00051	8d 45 08	 lea	 eax, DWORD PTR $T516836[ebp]
  00054	50		 push	 eax
  00055	8b 43 04	 mov	 eax, DWORD PTR [ebx+4]
  00058	8b 08		 mov	 ecx, DWORD PTR [eax]
  0005a	83 c1 14	 add	 ecx, 20			; 00000014H
  0005d	e8 00 00 00 00	 call	 ?erase@?$_Tree@V?$_Tmap_traits@KPAVCustomSoundData@@U?$less@K@std@@V?$allocator@U?$pair@$$CBKPAVCustomSoundData@@@std@@@3@$0A@@std@@@std@@QAE?AV?$_Tree_iterator@V?$_Tree_val@V?$_Tmap_traits@KPAVCustomSoundData@@U?$less@K@std@@V?$allocator@U?$pair@$$CBKPAVCustomSoundData@@@std@@@3@$0A@@std@@@std@@@2@V?$_Tree_const_iterator@V?$_Tree_val@V?$_Tmap_traits@KPAVCustomSoundData@@U?$less@K@std@@V?$allocator@U?$pair@$$CBKPAVCustomSoundData@@@std@@@3@$0A@@std@@@std@@@2@@Z ; std::_Tree<std::_Tmap_traits<unsigned long,CustomSoundData *,std::less<unsigned long>,std::allocator<std::pair<unsigned long const ,CustomSoundData *> >,0> >::erase
$LN59@DeleteMyCu:
  00062	5e		 pop	 esi
$LN2@DeleteMyCu:
  00063	5b		 pop	 ebx

; 691  : 	}
; 692  : }

  00064	c9		 leave
  00065	c2 04 00	 ret	 4
?DeleteMyCustomSoundData@ioCustomSoundMgr@@QAEXK@Z ENDP	; ioCustomSoundMgr::DeleteMyCustomSoundData
_TEXT	ENDS
PUBLIC	?UpdateMyKeyword@ioCustomSoundMgr@@QAEXKPBD@Z	; ioCustomSoundMgr::UpdateMyKeyword
; Function compile flags: /Ogsp
;	COMDAT ?UpdateMyKeyword@ioCustomSoundMgr@@QAEXKPBD@Z
_TEXT	SEGMENT
_iter$ = -4						; size = 4
_dwCustomSoundIndex$ = 8				; size = 4
_szKeyword$ = 12					; size = 4
?UpdateMyKeyword@ioCustomSoundMgr@@QAEXKPBD@Z PROC	; ioCustomSoundMgr::UpdateMyKeyword, COMDAT
; _this$ = ecx

; 764  : {

  00000	55		 push	 ebp
  00001	8b ec		 mov	 ebp, esp
  00003	51		 push	 ecx
  00004	56		 push	 esi
  00005	8b f1		 mov	 esi, ecx

; 765  : 	if( m_vCustomSoundInfoList.empty() )

  00007	8b 46 04	 mov	 eax, DWORD PTR [esi+4]
  0000a	3b 46 08	 cmp	 eax, DWORD PTR [esi+8]
  0000d	74 42		 je	 SHORT $LN37@UpdateMyKe

; 766  : 		return;
; 767  : 
; 768  : 	if( m_vCustomSoundInfoList[0]->m_dwUserIndex != g_MyInfo.GetUserIndex() )

  0000f	57		 push	 edi
  00010	8b f8		 mov	 edi, eax
  00012	e8 00 00 00 00	 call	 ?GetSingleton@ioMyInfo@@SAAAV1@XZ ; ioMyInfo::GetSingleton
  00017	8b 0f		 mov	 ecx, DWORD PTR [edi]
  00019	8b 09		 mov	 ecx, DWORD PTR [ecx]
  0001b	5f		 pop	 edi
  0001c	3b 48 08	 cmp	 ecx, DWORD PTR [eax+8]
  0001f	75 30		 jne	 SHORT $LN37@UpdateMyKe

; 769  : 		return;
; 770  : 
; 771  : 	CustomSoundDataMap::iterator iter = m_vCustomSoundInfoList[0]->m_CustomSoundDataMap.find( dwCustomSoundIndex );

  00021	8b 46 04	 mov	 eax, DWORD PTR [esi+4]
  00024	8b 30		 mov	 esi, DWORD PTR [eax]
  00026	8d 45 08	 lea	 eax, DWORD PTR _dwCustomSoundIndex$[ebp]
  00029	50		 push	 eax
  0002a	8d 45 fc	 lea	 eax, DWORD PTR _iter$[ebp]
  0002d	50		 push	 eax
  0002e	8d 4e 14	 lea	 ecx, DWORD PTR [esi+20]
  00031	e8 00 00 00 00	 call	 ?find@?$_Tree@V?$_Tmap_traits@KPAVCustomSoundData@@U?$less@K@std@@V?$allocator@U?$pair@$$CBKPAVCustomSoundData@@@std@@@3@$0A@@std@@@std@@QAE?AV?$_Tree_iterator@V?$_Tree_val@V?$_Tmap_traits@KPAVCustomSoundData@@U?$less@K@std@@V?$allocator@U?$pair@$$CBKPAVCustomSoundData@@@std@@@3@$0A@@std@@@std@@@2@ABK@Z ; std::_Tree<std::_Tmap_traits<unsigned long,CustomSoundData *,std::less<unsigned long>,std::allocator<std::pair<unsigned long const ,CustomSoundData *> >,0> >::find

; 772  : 	if( iter == m_vCustomSoundInfoList[0]->m_CustomSoundDataMap.end() )

  00036	8b 45 fc	 mov	 eax, DWORD PTR _iter$[ebp]
  00039	3b 46 18	 cmp	 eax, DWORD PTR [esi+24]
  0003c	74 13		 je	 SHORT $LN37@UpdateMyKe

; 773  : 		return;
; 774  : 	
; 775  : 	CustomSoundData *pData = iter->second;

  0003e	8b 40 10	 mov	 eax, DWORD PTR [eax+16]

; 776  : 	if( !pData )

  00041	85 c0		 test	 eax, eax
  00043	74 0c		 je	 SHORT $LN37@UpdateMyKe

; 777  : 		return;
; 778  : 
; 779  : 	pData->SetKeyWord( szKeyword );

  00045	ff 75 0c	 push	 DWORD PTR _szKeyword$[ebp]
  00048	8d 48 10	 lea	 ecx, DWORD PTR [eax+16]
  0004b	ff 15 00 00 00
	00		 call	 DWORD PTR __imp_??4ioHashString@@QAEAAV0@PBD@Z
$LN37@UpdateMyKe:
  00051	5e		 pop	 esi

; 780  : }

  00052	c9		 leave
  00053	c2 08 00	 ret	 8
?UpdateMyKeyword@ioCustomSoundMgr@@QAEXKPBD@Z ENDP	; ioCustomSoundMgr::UpdateMyKeyword
_TEXT	ENDS
PUBLIC	??_C@_04HDOCAJNK@?$CFs?$CFs?$AA@		; `string'
PUBLIC	?SaveINI@ioCustomSoundMgr@@QAEXK@Z		; ioCustomSoundMgr::SaveINI
EXTRN	__imp___splitpath:PROC
;	COMDAT ??_C@_04HDOCAJNK@?$CFs?$CFs?$AA@
; File d:\lost saga for developer\youtube\tutorial\source\src\lsclient\iocustomsoundmgr.h
CONST	SEGMENT
??_C@_04HDOCAJNK@?$CFs?$CFs?$AA@ DB '%s%s', 00H		; `string'
CONST	ENDS
;	COMDAT xdata$x
xdata$x	SEGMENT
__unwindtable$?SaveINI@ioCustomSoundMgr@@QAEXK@Z DD 0ffffffffH
	DD	FLAT:__unwindfunclet$?SaveINI@ioCustomSoundMgr@@QAEXK@Z$0
__ehfuncinfo$?SaveINI@ioCustomSoundMgr@@QAEXK@Z DD 019930522H
	DD	01H
	DD	FLAT:__unwindtable$?SaveINI@ioCustomSoundMgr@@QAEXK@Z
	DD	2 DUP(00H)
	DD	2 DUP(00H)
	DD	00H
	DD	01H
; Function compile flags: /Ogsp
; File d:\lost saga for developer\youtube\tutorial\source\src\lsclient\iocustomsoundmgr.cpp
xdata$x	ENDS
;	COMDAT ?SaveINI@ioCustomSoundMgr@@QAEXK@Z
_TEXT	SEGMENT
_pData$ = -2116						; size = 4
_iter$ = -2116						; size = 4
_kLoader$ = -2112					; size = 784
_szNameExt$ = -1328					; size = 260
_szExt$ = -1068						; size = 260
_szName$ = -808						; size = 260
_szININame$ = -548					; size = 260
_szKeyName$ = -288					; size = 260
__t$517186 = -28					; size = 5
___encStr$506772 = -28					; size = 7
___encStr$506621 = -28					; size = 7
__$EHRec$ = -12						; size = 12
_dwCustomSoundIndex$ = 8				; size = 4
?SaveINI@ioCustomSoundMgr@@QAEXK@Z PROC			; ioCustomSoundMgr::SaveINI, COMDAT
; _this$ = ecx

; 783  : {

  00000	68 38 08 00 00	 push	 2104			; 00000838H
  00005	b8 00 00 00 00	 mov	 eax, __ehhandler$?SaveINI@ioCustomSoundMgr@@QAEXK@Z
  0000a	e8 00 00 00 00	 call	 __EH_prolog3_GS
  0000f	8b f9		 mov	 edi, ecx

; 784  : 	if( m_vCustomSoundInfoList.empty() )

  00011	8b 47 04	 mov	 eax, DWORD PTR [edi+4]
  00014	3b 47 08	 cmp	 eax, DWORD PTR [edi+8]
  00017	75 0d		 jne	 SHORT $LN202@SaveINI
$LN383@SaveINI:

; 785  : 	{
; 786  : 		SaveINIBlank( dwCustomSoundIndex );

  00019	ff 75 08	 push	 DWORD PTR _dwCustomSoundIndex$[ebp]
  0001c	e8 00 00 00 00	 call	 ?SaveINIBlank@ioCustomSoundMgr@@QAEXK@Z ; ioCustomSoundMgr::SaveINIBlank

; 787  : 		return;

  00021	e9 9a 02 00 00	 jmp	 $LN203@SaveINI
$LN202@SaveINI:

; 788  : 	}
; 789  : 
; 790  : 	if( m_vCustomSoundInfoList[0]->m_dwUserIndex != g_MyInfo.GetUserIndex() )

  00026	8b f0		 mov	 esi, eax
  00028	e8 00 00 00 00	 call	 ?GetSingleton@ioMyInfo@@SAAAV1@XZ ; ioMyInfo::GetSingleton
  0002d	8b 0e		 mov	 ecx, DWORD PTR [esi]
  0002f	8b 09		 mov	 ecx, DWORD PTR [ecx]
  00031	3b 48 08	 cmp	 ecx, DWORD PTR [eax+8]
  00034	74 04		 je	 SHORT $LN201@SaveINI
$LN382@SaveINI:

; 791  : 	{
; 792  : 		SaveINIBlank( dwCustomSoundIndex );

  00036	8b cf		 mov	 ecx, edi

; 793  : 		return;

  00038	eb df		 jmp	 SHORT $LN383@SaveINI
$LN201@SaveINI:

; 794  : 	}
; 795  : 
; 796  : 	CustomSoundDataMap::iterator iter = m_vCustomSoundInfoList[0]->m_CustomSoundDataMap.find( dwCustomSoundIndex );

  0003a	8b 77 04	 mov	 esi, DWORD PTR [edi+4]
  0003d	8b 0e		 mov	 ecx, DWORD PTR [esi]
  0003f	8d 45 08	 lea	 eax, DWORD PTR _dwCustomSoundIndex$[ebp]
  00042	50		 push	 eax
  00043	8d 85 bc f7 ff
	ff		 lea	 eax, DWORD PTR _iter$[ebp]
  00049	50		 push	 eax
  0004a	83 c1 14	 add	 ecx, 20			; 00000014H
  0004d	e8 00 00 00 00	 call	 ?find@?$_Tree@V?$_Tmap_traits@KPAVCustomSoundData@@U?$less@K@std@@V?$allocator@U?$pair@$$CBKPAVCustomSoundData@@@std@@@3@$0A@@std@@@std@@QAE?AV?$_Tree_iterator@V?$_Tree_val@V?$_Tmap_traits@KPAVCustomSoundData@@U?$less@K@std@@V?$allocator@U?$pair@$$CBKPAVCustomSoundData@@@std@@@3@$0A@@std@@@std@@@2@ABK@Z ; std::_Tree<std::_Tmap_traits<unsigned long,CustomSoundData *,std::less<unsigned long>,std::allocator<std::pair<unsigned long const ,CustomSoundData *> >,0> >::find

; 797  : 	if( iter==m_vCustomSoundInfoList[0]->m_CustomSoundDataMap.end() )

  00052	8b 06		 mov	 eax, DWORD PTR [esi]
  00054	8b 40 18	 mov	 eax, DWORD PTR [eax+24]
  00057	8b 8d bc f7 ff
	ff		 mov	 ecx, DWORD PTR _iter$[ebp]
  0005d	3b c8		 cmp	 ecx, eax

; 798  : 	{
; 799  : 		SaveINIBlank( dwCustomSoundIndex );
; 800  : 		return;

  0005f	74 d5		 je	 SHORT $LN382@SaveINI

; 801  : 	}
; 802  : 	
; 803  : 	CustomSoundData *pData = iter->second;

  00061	8b 49 10	 mov	 ecx, DWORD PTR [ecx+16]

; 804  : 	if( !pData )

  00064	33 db		 xor	 ebx, ebx
  00066	89 8d bc f7 ff
	ff		 mov	 DWORD PTR _pData$[ebp], ecx
  0006c	3b cb		 cmp	 ecx, ebx

; 805  : 	{
; 806  : 		SaveINIBlank( dwCustomSoundIndex );
; 807  : 		return;

  0006e	74 c6		 je	 SHORT $LN382@SaveINI

; 808  : 	}
; 809  : 
; 810  : 	char szININame[MAX_PATH]="";

  00070	bf 03 01 00 00	 mov	 edi, 259		; 00000103H
  00075	57		 push	 edi
  00076	8d 85 dd fd ff
	ff		 lea	 eax, DWORD PTR _szININame$[ebp+1]
  0007c	53		 push	 ebx
  0007d	50		 push	 eax
  0007e	88 9d dc fd ff
	ff		 mov	 BYTE PTR _szININame$[ebp], bl
  00084	e8 00 00 00 00	 call	 _memset

; 811  : 	StringCbPrintf( szININame, sizeof(szININame), "Save\\%s\\CustomSound.ini", m_vCustomSoundInfoList[0]->m_szPublicID.c_str() );

  00089	8b 0e		 mov	 ecx, DWORD PTR [esi]
  0008b	83 c4 0c	 add	 esp, 12			; 0000000cH
  0008e	83 c1 04	 add	 ecx, 4
  00091	ff 15 00 00 00
	00		 call	 DWORD PTR __imp_?c_str@ioHashString@@QBEPBDXZ
  00097	50		 push	 eax
  00098	68 00 00 00 00	 push	 OFFSET ??_C@_0BI@PIFFLPLN@Save?2?$CFs?2CustomSound?4ini?$AA@
  0009d	8d 77 01	 lea	 esi, DWORD PTR [edi+1]
  000a0	8d 85 dc fd ff
	ff		 lea	 eax, DWORD PTR _szININame$[ebp]
  000a6	56		 push	 esi
  000a7	50		 push	 eax
  000a8	e8 00 00 00 00	 call	 ?StringCbPrintfA@@YAJPADIPBDZZ ; StringCbPrintfA
  000ad	83 c4 10	 add	 esp, 16			; 00000010H

; 812  : 
; 813  : 	ioINILoader kLoader( szININame, false );

  000b0	53		 push	 ebx
  000b1	8d 85 dc fd ff
	ff		 lea	 eax, DWORD PTR _szININame$[ebp]
  000b7	50		 push	 eax
  000b8	8d 8d c0 f7 ff
	ff		 lea	 ecx, DWORD PTR _kLoader$[ebp]
  000be	ff 15 00 00 00
	00		 call	 DWORD PTR __imp_??0ioINILoader@@QAE@PBD_N@Z

; 814  : 	kLoader.SetTitle_e( "Info" );

  000c4	8d 45 e4	 lea	 eax, DWORD PTR __t$517186[ebp]
  000c7	c7 45 e4 a4 82
	8d 85		 mov	 DWORD PTR __t$517186[ebp], -2054323548 ; 858d82a4H
  000ce	81 75 e4 ed ec
	eb ea		 xor	 DWORD PTR __t$517186[ebp], -353637139 ; eaebecedH
  000d5	50		 push	 eax
  000d6	8d 8d c0 f7 ff
	ff		 lea	 ecx, DWORD PTR _kLoader$[ebp]
  000dc	89 5d fc	 mov	 DWORD PTR __$EHRec$[ebp+8], ebx
  000df	88 5d e8	 mov	 BYTE PTR __t$517186[ebp+4], bl
  000e2	ff 15 00 00 00
	00		 call	 DWORD PTR __imp_?SetTitle@ioINILoader@@QAEXPBD@Z

; 815  : 
; 816  : 	char szKeyName[MAX_PATH]="";

  000e8	57		 push	 edi
  000e9	8d 85 e1 fe ff
	ff		 lea	 eax, DWORD PTR _szKeyName$[ebp+1]
  000ef	53		 push	 ebx
  000f0	50		 push	 eax
  000f1	88 9d e0 fe ff
	ff		 mov	 BYTE PTR _szKeyName$[ebp], bl
  000f7	e8 00 00 00 00	 call	 _memset
  000fc	83 c4 0c	 add	 esp, 12			; 0000000cH

; 817  : 	StringCbPrintf_e( szKeyName, sizeof( szKeyName ), "Text%d", dwCustomSoundIndex );

  000ff	6a 04		 push	 4
  00101	c7 45 e4 b9 89
	93 9e		 mov	 DWORD PTR ___encStr$506621[ebp], -1634498119 ; 9e9389b9H
  00108	81 75 e4 ed ec
	eb ea		 xor	 DWORD PTR ___encStr$506621[ebp], -353637139 ; eaebecedH
  0010f	66 c7 45 e8 c8
	88		 mov	 WORD PTR ___encStr$506621[ebp+4], 35016 ; 000088c8H
  00115	88 5d ea	 mov	 BYTE PTR ___encStr$506621[ebp+6], bl
  00118	58		 pop	 eax
$LL346@SaveINI:
  00119	8b c8		 mov	 ecx, eax
  0011b	81 e1 03 00 00
	80		 and	 ecx, -2147483645	; 80000003H
  00121	79 05		 jns	 SHORT $LN379@SaveINI
  00123	49		 dec	 ecx
  00124	83 c9 fc	 or	 ecx, -4			; fffffffcH
  00127	41		 inc	 ecx
$LN379@SaveINI:
  00128	b2 ed		 mov	 dl, -19			; ffffffedH
  0012a	2a d1		 sub	 dl, cl
  0012c	30 54 05 e4	 xor	 BYTE PTR ___encStr$506621[ebp+eax], dl
  00130	40		 inc	 eax
  00131	83 f8 06	 cmp	 eax, 6
  00134	7c e3		 jl	 SHORT $LL346@SaveINI
  00136	ff 75 08	 push	 DWORD PTR _dwCustomSoundIndex$[ebp]
  00139	8d 45 e4	 lea	 eax, DWORD PTR ___encStr$506621[ebp]
  0013c	50		 push	 eax
  0013d	8d 85 e0 fe ff
	ff		 lea	 eax, DWORD PTR _szKeyName$[ebp]
  00143	56		 push	 esi
  00144	50		 push	 eax
  00145	e8 00 00 00 00	 call	 ?StringCbPrintfA@@YAJPADIPBDZZ ; StringCbPrintfA

; 818  : 	kLoader.SaveString( szKeyName, pData->GetKeyWord().c_str() );

  0014a	8b 8d bc f7 ff
	ff		 mov	 ecx, DWORD PTR _pData$[ebp]
  00150	83 c4 10	 add	 esp, 16			; 00000010H
  00153	83 c1 10	 add	 ecx, 16			; 00000010H
  00156	ff 15 00 00 00
	00		 call	 DWORD PTR __imp_?c_str@ioHashString@@QBEPBDXZ
  0015c	50		 push	 eax
  0015d	8d 85 e0 fe ff
	ff		 lea	 eax, DWORD PTR _szKeyName$[ebp]
  00163	50		 push	 eax
  00164	8d 8d c0 f7 ff
	ff		 lea	 ecx, DWORD PTR _kLoader$[ebp]
  0016a	ff 15 00 00 00
	00		 call	 DWORD PTR __imp_?SaveString@ioINILoader@@QAEXPBD0@Z

; 819  : 
; 820  : 	ZeroMemory( szKeyName, sizeof(szKeyName) );

  00170	56		 push	 esi
  00171	8d 85 e0 fe ff
	ff		 lea	 eax, DWORD PTR _szKeyName$[ebp]
  00177	53		 push	 ebx
  00178	50		 push	 eax
  00179	e8 00 00 00 00	 call	 _memset
  0017e	83 c4 0c	 add	 esp, 12			; 0000000cH

; 821  : 	StringCbPrintf_e( szKeyName, sizeof( szKeyName), "File%d", dwCustomSoundIndex );

  00181	6a 04		 push	 4
  00183	c7 45 e4 ab 85
	87 8f		 mov	 DWORD PTR ___encStr$506772[ebp], -1886943829 ; 8f8785abH
  0018a	81 75 e4 ed ec
	eb ea		 xor	 DWORD PTR ___encStr$506772[ebp], -353637139 ; eaebecedH
  00191	66 c7 45 e8 c8
	88		 mov	 WORD PTR ___encStr$506772[ebp+4], 35016 ; 000088c8H
  00197	88 5d ea	 mov	 BYTE PTR ___encStr$506772[ebp+6], bl
  0019a	58		 pop	 eax
$LL356@SaveINI:
  0019b	8b c8		 mov	 ecx, eax
  0019d	81 e1 03 00 00
	80		 and	 ecx, -2147483645	; 80000003H
  001a3	79 05		 jns	 SHORT $LN380@SaveINI
  001a5	49		 dec	 ecx
  001a6	83 c9 fc	 or	 ecx, -4			; fffffffcH
  001a9	41		 inc	 ecx
$LN380@SaveINI:
  001aa	b2 ed		 mov	 dl, -19			; ffffffedH
  001ac	2a d1		 sub	 dl, cl
  001ae	30 54 05 e4	 xor	 BYTE PTR ___encStr$506772[ebp+eax], dl
  001b2	40		 inc	 eax
  001b3	83 f8 06	 cmp	 eax, 6
  001b6	7c e3		 jl	 SHORT $LL356@SaveINI
  001b8	ff 75 08	 push	 DWORD PTR _dwCustomSoundIndex$[ebp]
  001bb	8d 45 e4	 lea	 eax, DWORD PTR ___encStr$506772[ebp]
  001be	50		 push	 eax
  001bf	8d 85 e0 fe ff
	ff		 lea	 eax, DWORD PTR _szKeyName$[ebp]
  001c5	56		 push	 esi
  001c6	50		 push	 eax
  001c7	e8 00 00 00 00	 call	 ?StringCbPrintfA@@YAJPADIPBDZZ ; StringCbPrintfA

; 822  : 	char szName[MAX_PATH]="";

  001cc	57		 push	 edi
  001cd	8d 85 d9 fc ff
	ff		 lea	 eax, DWORD PTR _szName$[ebp+1]
  001d3	53		 push	 ebx
  001d4	50		 push	 eax
  001d5	88 9d d8 fc ff
	ff		 mov	 BYTE PTR _szName$[ebp], bl
  001db	e8 00 00 00 00	 call	 _memset

; 823  : 	char szExt[MAX_PATH]="";

  001e0	57		 push	 edi
  001e1	8d 85 d5 fb ff
	ff		 lea	 eax, DWORD PTR _szExt$[ebp+1]
  001e7	53		 push	 ebx
  001e8	50		 push	 eax
  001e9	88 9d d4 fb ff
	ff		 mov	 BYTE PTR _szExt$[ebp], bl
  001ef	e8 00 00 00 00	 call	 _memset

; 824  : 	_splitpath( pData->GetFilePath().c_str(), NULL, NULL, szName, szExt );

  001f4	8b 8d bc f7 ff
	ff		 mov	 ecx, DWORD PTR _pData$[ebp]
  001fa	83 c4 28	 add	 esp, 40			; 00000028H
  001fd	8d 85 d4 fb ff
	ff		 lea	 eax, DWORD PTR _szExt$[ebp]
  00203	50		 push	 eax
  00204	8d 85 d8 fc ff
	ff		 lea	 eax, DWORD PTR _szName$[ebp]
  0020a	50		 push	 eax
  0020b	53		 push	 ebx
  0020c	53		 push	 ebx
  0020d	83 c1 20	 add	 ecx, 32			; 00000020H
  00210	ff 15 00 00 00
	00		 call	 DWORD PTR __imp_?c_str@ioHashString@@QBEPBDXZ
  00216	50		 push	 eax
  00217	ff 15 00 00 00
	00		 call	 DWORD PTR __imp___splitpath

; 825  : 	char szNameExt[MAX_PATH]="";

  0021d	57		 push	 edi
  0021e	8d 85 d1 fa ff
	ff		 lea	 eax, DWORD PTR _szNameExt$[ebp+1]
  00224	53		 push	 ebx
  00225	50		 push	 eax
  00226	88 9d d0 fa ff
	ff		 mov	 BYTE PTR _szNameExt$[ebp], bl
  0022c	e8 00 00 00 00	 call	 _memset

; 826  : 	StringCbPrintf( szNameExt, sizeof(szNameExt), "%s%s", szName, szExt );

  00231	8d 85 d4 fb ff
	ff		 lea	 eax, DWORD PTR _szExt$[ebp]
  00237	50		 push	 eax
  00238	8d 85 d8 fc ff
	ff		 lea	 eax, DWORD PTR _szName$[ebp]
  0023e	50		 push	 eax
  0023f	68 00 00 00 00	 push	 OFFSET ??_C@_04HDOCAJNK@?$CFs?$CFs?$AA@
  00244	8d 85 d0 fa ff
	ff		 lea	 eax, DWORD PTR _szNameExt$[ebp]
  0024a	56		 push	 esi
  0024b	50		 push	 eax
  0024c	e8 00 00 00 00	 call	 ?StringCbPrintfA@@YAJPADIPBDZZ ; StringCbPrintfA
  00251	83 c4 34	 add	 esp, 52			; 00000034H

; 827  : 	kLoader.SaveString( szKeyName, szNameExt );

  00254	8d 85 d0 fa ff
	ff		 lea	 eax, DWORD PTR _szNameExt$[ebp]
  0025a	50		 push	 eax
  0025b	8d 85 e0 fe ff
	ff		 lea	 eax, DWORD PTR _szKeyName$[ebp]
  00261	50		 push	 eax
  00262	8d 8d c0 f7 ff
	ff		 lea	 ecx, DWORD PTR _kLoader$[ebp]
  00268	ff 15 00 00 00
	00		 call	 DWORD PTR __imp_?SaveString@ioINILoader@@QAEXPBD0@Z

; 828  : 
; 829  : 	ZeroMemory( szKeyName, sizeof(szKeyName) );

  0026e	56		 push	 esi
  0026f	8d 85 e0 fe ff
	ff		 lea	 eax, DWORD PTR _szKeyName$[ebp]
  00275	53		 push	 ebx
  00276	50		 push	 eax
  00277	e8 00 00 00 00	 call	 _memset

; 830  : 	StringCbPrintf( szKeyName, sizeof( szKeyName), "FileCRC%d", dwCustomSoundIndex );

  0027c	ff 75 08	 push	 DWORD PTR _dwCustomSoundIndex$[ebp]
  0027f	8d 85 e0 fe ff
	ff		 lea	 eax, DWORD PTR _szKeyName$[ebp]
  00285	68 00 00 00 00	 push	 OFFSET ??_C@_09FMHCDIDF@FileCRC?$CFd?$AA@
  0028a	56		 push	 esi
  0028b	50		 push	 eax
  0028c	e8 00 00 00 00	 call	 ?StringCbPrintfA@@YAJPADIPBDZZ ; StringCbPrintfA

; 831  : 	kLoader.SaveInt( szKeyName, pData->GetUnpacCRC() );

  00291	8b 85 bc f7 ff
	ff		 mov	 eax, DWORD PTR _pData$[ebp]
  00297	83 c4 1c	 add	 esp, 28			; 0000001cH
  0029a	ff 70 0c	 push	 DWORD PTR [eax+12]
  0029d	8d 85 e0 fe ff
	ff		 lea	 eax, DWORD PTR _szKeyName$[ebp]
  002a3	50		 push	 eax
  002a4	8d 8d c0 f7 ff
	ff		 lea	 ecx, DWORD PTR _kLoader$[ebp]
  002aa	ff 15 00 00 00
	00		 call	 DWORD PTR __imp_?SaveInt@ioINILoader@@QAEXPBDH@Z

; 832  : }

  002b0	83 4d fc ff	 or	 DWORD PTR __$EHRec$[ebp+8], -1
  002b4	8d 8d c0 f7 ff
	ff		 lea	 ecx, DWORD PTR _kLoader$[ebp]
  002ba	ff 15 00 00 00
	00		 call	 DWORD PTR __imp_??1ioINILoader@@QAE@XZ
$LN203@SaveINI:
  002c0	e8 00 00 00 00	 call	 __EH_epilog3_GS
  002c5	c2 04 00	 ret	 4
_TEXT	ENDS
;	COMDAT text$x
text$x	SEGMENT
__unwindfunclet$?SaveINI@ioCustomSoundMgr@@QAEXK@Z$0:
  00000	8d 8d c0 f7 ff
	ff		 lea	 ecx, DWORD PTR _kLoader$[ebp]
  00006	ff 25 00 00 00
	00		 jmp	 DWORD PTR __imp_??1ioINILoader@@QAE@XZ
__ehhandler$?SaveINI@ioCustomSoundMgr@@QAEXK@Z:
  0000c	8b 54 24 08	 mov	 edx, DWORD PTR [esp+8]
  00010	8d 42 0c	 lea	 eax, DWORD PTR [edx+12]
  00013	8b 8a b8 f7 ff
	ff		 mov	 ecx, DWORD PTR [edx-2120]
  00019	33 c8		 xor	 ecx, eax
  0001b	e8 00 00 00 00	 call	 @__security_check_cookie@4
  00020	8b 4a fc	 mov	 ecx, DWORD PTR [edx-4]
  00023	33 c8		 xor	 ecx, eax
  00025	e8 00 00 00 00	 call	 @__security_check_cookie@4
  0002a	b8 00 00 00 00	 mov	 eax, OFFSET __ehfuncinfo$?SaveINI@ioCustomSoundMgr@@QAEXK@Z
  0002f	e9 00 00 00 00	 jmp	 ___CxxFrameHandler3
text$x	ENDS
?SaveINI@ioCustomSoundMgr@@QAEXK@Z ENDP			; ioCustomSoundMgr::SaveINI
PUBLIC	?push_back@?$vector@PAUtagCustomSoundInfo@ioCustomSoundMgr@@V?$allocator@PAUtagCustomSoundInfo@ioCustomSoundMgr@@@std@@@std@@QAEXABQAUtagCustomSoundInfo@ioCustomSoundMgr@@@Z ; std::vector<ioCustomSoundMgr::tagCustomSoundInfo *,std::allocator<ioCustomSoundMgr::tagCustomSoundInfo *> >::push_back
; Function compile flags: /Ogsp
; File c:\program files (x86)\microsoft visual studio 10.0\vc\include\vector
;	COMDAT ?push_back@?$vector@PAUtagCustomSoundInfo@ioCustomSoundMgr@@V?$allocator@PAUtagCustomSoundInfo@ioCustomSoundMgr@@@std@@@std@@QAEXABQAUtagCustomSoundInfo@ioCustomSoundMgr@@@Z
_TEXT	SEGMENT
__Val$ = 8						; size = 4
?push_back@?$vector@PAUtagCustomSoundInfo@ioCustomSoundMgr@@V?$allocator@PAUtagCustomSoundInfo@ioCustomSoundMgr@@@std@@@std@@QAEXABQAUtagCustomSoundInfo@ioCustomSoundMgr@@@Z PROC ; std::vector<ioCustomSoundMgr::tagCustomSoundInfo *,std::allocator<ioCustomSoundMgr::tagCustomSoundInfo *> >::push_back, COMDAT
; _this$ = ecx

; 976  : 		{	// insert element at end

  00000	55		 push	 ebp
  00001	8b ec		 mov	 ebp, esp
  00003	56		 push	 esi
  00004	8b f1		 mov	 esi, ecx

; 977  : 		if (_Inside(_STD addressof(_Val)))

  00006	8b 46 04	 mov	 eax, DWORD PTR [esi+4]
  00009	57		 push	 edi
  0000a	8b 7d 08	 mov	 edi, DWORD PTR __Val$[ebp]
  0000d	3b f8		 cmp	 edi, eax
  0000f	73 27		 jae	 SHORT $LN4@push_back
  00011	8b 0e		 mov	 ecx, DWORD PTR [esi]
  00013	3b cf		 cmp	 ecx, edi
  00015	77 21		 ja	 SHORT $LN4@push_back

; 978  : 			{	// push back an element
; 979  : 			size_type _Idx = _STD addressof(_Val) - this->_Myfirst;

  00017	2b f9		 sub	 edi, ecx
  00019	c1 ff 02	 sar	 edi, 2

; 980  : 			if (this->_Mylast == this->_Myend)

  0001c	3b 46 08	 cmp	 eax, DWORD PTR [esi+8]
  0001f	75 09		 jne	 SHORT $LN3@push_back

; 981  : 				_Reserve(1);

  00021	6a 01		 push	 1
  00023	8b ce		 mov	 ecx, esi
  00025	e8 00 00 00 00	 call	 ?_Reserve@?$vector@PAUtagCustomSoundInfo@ioCustomSoundMgr@@V?$allocator@PAUtagCustomSoundInfo@ioCustomSoundMgr@@@std@@@std@@IAEXI@Z ; std::vector<ioCustomSoundMgr::tagCustomSoundInfo *,std::allocator<ioCustomSoundMgr::tagCustomSoundInfo *> >::_Reserve
$LN3@push_back:

; 982  : 			_Orphan_range(this->_Mylast, this->_Mylast);
; 983  : 			_Cons_val(this->_Alval,
; 984  : 				this->_Mylast,
; 985  : 				this->_Myfirst[_Idx]);

  0002a	8b 46 04	 mov	 eax, DWORD PTR [esi+4]
  0002d	85 c0		 test	 eax, eax
  0002f	74 20		 je	 SHORT $LN39@push_back
  00031	8b 0e		 mov	 ecx, DWORD PTR [esi]
  00033	8b 0c b9	 mov	 ecx, DWORD PTR [ecx+edi*4]

; 986  : 			++this->_Mylast;
; 987  : 			}
; 988  : 		else

  00036	eb 17		 jmp	 SHORT $LN46@push_back
$LN4@push_back:

; 989  : 			{	// push back a non-element
; 990  : 			if (this->_Mylast == this->_Myend)

  00038	3b 46 08	 cmp	 eax, DWORD PTR [esi+8]
  0003b	75 09		 jne	 SHORT $LN1@push_back

; 991  : 				_Reserve(1);

  0003d	6a 01		 push	 1
  0003f	8b ce		 mov	 ecx, esi
  00041	e8 00 00 00 00	 call	 ?_Reserve@?$vector@PAUtagCustomSoundInfo@ioCustomSoundMgr@@V?$allocator@PAUtagCustomSoundInfo@ioCustomSoundMgr@@@std@@@std@@IAEXI@Z ; std::vector<ioCustomSoundMgr::tagCustomSoundInfo *,std::allocator<ioCustomSoundMgr::tagCustomSoundInfo *> >::_Reserve
$LN1@push_back:

; 992  : 			_Orphan_range(this->_Mylast, this->_Mylast);
; 993  : 			_Cons_val(this->_Alval,
; 994  : 				this->_Mylast,
; 995  : 				_Val);

  00046	8b 46 04	 mov	 eax, DWORD PTR [esi+4]
  00049	85 c0		 test	 eax, eax
  0004b	74 04		 je	 SHORT $LN39@push_back
  0004d	8b 0f		 mov	 ecx, DWORD PTR [edi]
$LN46@push_back:
  0004f	89 08		 mov	 DWORD PTR [eax], ecx
$LN39@push_back:

; 996  : 			++this->_Mylast;

  00051	83 46 04 04	 add	 DWORD PTR [esi+4], 4
  00055	5f		 pop	 edi
  00056	5e		 pop	 esi

; 997  : 			}
; 998  : 		}

  00057	5d		 pop	 ebp
  00058	c2 04 00	 ret	 4
?push_back@?$vector@PAUtagCustomSoundInfo@ioCustomSoundMgr@@V?$allocator@PAUtagCustomSoundInfo@ioCustomSoundMgr@@@std@@@std@@QAEXABQAUtagCustomSoundInfo@ioCustomSoundMgr@@@Z ENDP ; std::vector<ioCustomSoundMgr::tagCustomSoundInfo *,std::allocator<ioCustomSoundMgr::tagCustomSoundInfo *> >::push_back
_TEXT	ENDS
PUBLIC	?_Destroy@?$vector@UtagNetworkInfo@CustomSoundData@@V?$allocator@UtagNetworkInfo@CustomSoundData@@@std@@@std@@IAEXPAUtagNetworkInfo@CustomSoundData@@0@Z ; std::vector<CustomSoundData::tagNetworkInfo,std::allocator<CustomSoundData::tagNetworkInfo> >::_Destroy
; Function compile flags: /Ogsp
;	COMDAT ?_Destroy@?$vector@UtagNetworkInfo@CustomSoundData@@V?$allocator@UtagNetworkInfo@CustomSoundData@@@std@@@std@@IAEXPAUtagNetworkInfo@CustomSoundData@@0@Z
_TEXT	SEGMENT
__First$ = 8						; size = 4
__Last$ = 12						; size = 4
?_Destroy@?$vector@UtagNetworkInfo@CustomSoundData@@V?$allocator@UtagNetworkInfo@CustomSoundData@@@std@@@std@@IAEXPAUtagNetworkInfo@CustomSoundData@@0@Z PROC ; std::vector<CustomSoundData::tagNetworkInfo,std::allocator<CustomSoundData::tagNetworkInfo> >::_Destroy, COMDAT
; _this$ = ecx

; 1270 : 		_Destroy_range(_First, _Last, this->_Alval);
; 1271 : 		}

  00000	c2 08 00	 ret	 8
?_Destroy@?$vector@UtagNetworkInfo@CustomSoundData@@V?$allocator@UtagNetworkInfo@CustomSoundData@@@std@@@std@@IAEXPAUtagNetworkInfo@CustomSoundData@@0@Z ENDP ; std::vector<CustomSoundData::tagNetworkInfo,std::allocator<CustomSoundData::tagNetworkInfo> >::_Destroy
_TEXT	ENDS
PUBLIC	?_Tidy@?$vector@UtagNetworkInfo@CustomSoundData@@V?$allocator@UtagNetworkInfo@CustomSoundData@@@std@@@std@@IAEXXZ ; std::vector<CustomSoundData::tagNetworkInfo,std::allocator<CustomSoundData::tagNetworkInfo> >::_Tidy
; Function compile flags: /Ogsp
;	COMDAT ?_Tidy@?$vector@UtagNetworkInfo@CustomSoundData@@V?$allocator@UtagNetworkInfo@CustomSoundData@@@std@@@std@@IAEXXZ
_TEXT	SEGMENT
?_Tidy@?$vector@UtagNetworkInfo@CustomSoundData@@V?$allocator@UtagNetworkInfo@CustomSoundData@@@std@@@std@@IAEXXZ PROC ; std::vector<CustomSoundData::tagNetworkInfo,std::allocator<CustomSoundData::tagNetworkInfo> >::_Tidy, COMDAT
; _this$ = ecx

; 1301 : 		{	// free all storage

  00000	56		 push	 esi
  00001	8b f1		 mov	 esi, ecx

; 1302 : 		if (this->_Myfirst != 0)

  00003	83 3e 00	 cmp	 DWORD PTR [esi], 0
  00006	74 0e		 je	 SHORT $LN21@Tidy@2

; 1303 : 			{	// something to free, destroy and deallocate it
; 1304 : 			this->_Orphan_all();

  00008	ff 15 00 00 00
	00		 call	 DWORD PTR __imp_?_Orphan_all@_Container_base0@std@@QAEXXZ

; 1305 : 			_Destroy(this->_Myfirst, this->_Mylast);
; 1306 : 			this->_Alval.deallocate(this->_Myfirst,
; 1307 : 				this->_Myend - this->_Myfirst);

  0000e	ff 36		 push	 DWORD PTR [esi]
  00010	e8 00 00 00 00	 call	 ??3@YAXPAX@Z		; operator delete
  00015	59		 pop	 ecx
$LN21@Tidy@2:

; 1308 : 			}
; 1309 : 		this->_Myfirst = 0;

  00016	83 26 00	 and	 DWORD PTR [esi], 0

; 1310 : 		this->_Mylast = 0;

  00019	83 66 04 00	 and	 DWORD PTR [esi+4], 0

; 1311 : 		this->_Myend = 0;

  0001d	83 66 08 00	 and	 DWORD PTR [esi+8], 0
  00021	5e		 pop	 esi

; 1312 : 		}

  00022	c3		 ret	 0
?_Tidy@?$vector@UtagNetworkInfo@CustomSoundData@@V?$allocator@UtagNetworkInfo@CustomSoundData@@@std@@@std@@IAEXXZ ENDP ; std::vector<CustomSoundData::tagNetworkInfo,std::allocator<CustomSoundData::tagNetworkInfo> >::_Tidy
_TEXT	ENDS
PUBLIC	??$_Umove@PAUtagNetworkInfo@CustomSoundData@@@?$vector@UtagNetworkInfo@CustomSoundData@@V?$allocator@UtagNetworkInfo@CustomSoundData@@@std@@@std@@IAEPAUtagNetworkInfo@CustomSoundData@@PAU23@00@Z ; std::vector<CustomSoundData::tagNetworkInfo,std::allocator<CustomSoundData::tagNetworkInfo> >::_Umove<CustomSoundData::tagNetworkInfo *>
; Function compile flags: /Ogsp
;	COMDAT ??$_Umove@PAUtagNetworkInfo@CustomSoundData@@@?$vector@UtagNetworkInfo@CustomSoundData@@V?$allocator@UtagNetworkInfo@CustomSoundData@@@std@@@std@@IAEPAUtagNetworkInfo@CustomSoundData@@PAU23@00@Z
_TEXT	SEGMENT
__First$ = 8						; size = 4
__Last$ = 12						; size = 4
__Ptr$ = 16						; size = 4
??$_Umove@PAUtagNetworkInfo@CustomSoundData@@@?$vector@UtagNetworkInfo@CustomSoundData@@V?$allocator@UtagNetworkInfo@CustomSoundData@@@std@@@std@@IAEPAUtagNetworkInfo@CustomSoundData@@PAU23@00@Z PROC ; std::vector<CustomSoundData::tagNetworkInfo,std::allocator<CustomSoundData::tagNetworkInfo> >::_Umove<CustomSoundData::tagNetworkInfo *>, COMDAT
; _this$ = ecx

; 1322 : 		pointer _Umove(_Iter _First, _Iter _Last, pointer _Ptr)

  00000	55		 push	 ebp
  00001	8b ec		 mov	 ebp, esp

; 1323 : 		{	// move initializing [_First, _Last), using allocator
; 1324 : 		return (_Uninitialized_move(_First, _Last,
; 1325 : 			_Ptr, this->_Alval));

  00003	83 c1 0c	 add	 ecx, 12			; 0000000cH
  00006	51		 push	 ecx
  00007	ff 75 10	 push	 DWORD PTR __Ptr$[ebp]
  0000a	ff 75 0c	 push	 DWORD PTR __Last$[ebp]
  0000d	ff 75 08	 push	 DWORD PTR __First$[ebp]
  00010	e8 00 00 00 00	 call	 ??$_Uninitialized_move@PAUtagNetworkInfo@CustomSoundData@@PAU12@V?$allocator@UtagNetworkInfo@CustomSoundData@@@std@@@std@@YAPAUtagNetworkInfo@CustomSoundData@@PAU12@00AAV?$allocator@UtagNetworkInfo@CustomSoundData@@@0@@Z ; std::_Uninitialized_move<CustomSoundData::tagNetworkInfo *,CustomSoundData::tagNetworkInfo *,std::allocator<CustomSoundData::tagNetworkInfo> >
  00015	83 c4 10	 add	 esp, 16			; 00000010H

; 1326 : 		}

  00018	5d		 pop	 ebp
  00019	c2 0c 00	 ret	 12			; 0000000cH
??$_Umove@PAUtagNetworkInfo@CustomSoundData@@@?$vector@UtagNetworkInfo@CustomSoundData@@V?$allocator@UtagNetworkInfo@CustomSoundData@@@std@@@std@@IAEPAUtagNetworkInfo@CustomSoundData@@PAU23@00@Z ENDP ; std::vector<CustomSoundData::tagNetworkInfo,std::allocator<CustomSoundData::tagNetworkInfo> >::_Umove<CustomSoundData::tagNetworkInfo *>
_TEXT	ENDS
PUBLIC	??$_Buynode@U?$pair@$$CBKPAVCustomSoundData@@@std@@@?$_Tree_val@V?$_Tmap_traits@KPAVCustomSoundData@@U?$less@K@std@@V?$allocator@U?$pair@$$CBKPAVCustomSoundData@@@std@@@3@$0A@@std@@@std@@QAEPAU_Node@?$_Tree_nod@V?$_Tmap_traits@KPAVCustomSoundData@@U?$less@K@std@@V?$allocator@U?$pair@$$CBKPAVCustomSoundData@@@std@@@3@$0A@@std@@@1@$$QAU?$pair@$$CBKPAVCustomSoundData@@@1@@Z ; std::_Tree_val<std::_Tmap_traits<unsigned long,CustomSoundData *,std::less<unsigned long>,std::allocator<std::pair<unsigned long const ,CustomSoundData *> >,0> >::_Buynode<std::pair<unsigned long const ,CustomSoundData *> >
; Function compile flags: /Ogsp
; File c:\program files (x86)\microsoft visual studio 10.0\vc\include\xtree
;	COMDAT ??$_Buynode@U?$pair@$$CBKPAVCustomSoundData@@@std@@@?$_Tree_val@V?$_Tmap_traits@KPAVCustomSoundData@@U?$less@K@std@@V?$allocator@U?$pair@$$CBKPAVCustomSoundData@@@std@@@3@$0A@@std@@@std@@QAEPAU_Node@?$_Tree_nod@V?$_Tmap_traits@KPAVCustomSoundData@@U?$less@K@std@@V?$allocator@U?$pair@$$CBKPAVCustomSoundData@@@std@@@3@$0A@@std@@@1@$$QAU?$pair@$$CBKPAVCustomSoundData@@@1@@Z
_TEXT	SEGMENT
__Val$ = 8						; size = 4
??$_Buynode@U?$pair@$$CBKPAVCustomSoundData@@@std@@@?$_Tree_val@V?$_Tmap_traits@KPAVCustomSoundData@@U?$less@K@std@@V?$allocator@U?$pair@$$CBKPAVCustomSoundData@@@std@@@3@$0A@@std@@@std@@QAEPAU_Node@?$_Tree_nod@V?$_Tmap_traits@KPAVCustomSoundData@@U?$less@K@std@@V?$allocator@U?$pair@$$CBKPAVCustomSoundData@@@std@@@3@$0A@@std@@@1@$$QAU?$pair@$$CBKPAVCustomSoundData@@@1@@Z PROC ; std::_Tree_val<std::_Tmap_traits<unsigned long,CustomSoundData *,std::less<unsigned long>,std::allocator<std::pair<unsigned long const ,CustomSoundData *> >,0> >::_Buynode<std::pair<unsigned long const ,CustomSoundData *> >, COMDAT
; _this$ = ecx

; 586  : 		_Nodeptr _Buynode(_Valty&& _Val)

  00000	55		 push	 ebp
  00001	8b ec		 mov	 ebp, esp
  00003	56		 push	 esi
  00004	57		 push	 edi
  00005	8b f1		 mov	 esi, ecx

; 587  : 		{	// allocate a node with defaults
; 588  : 		_Nodeptr _Wherenode = _Buynode();

  00007	e8 00 00 00 00	 call	 ?_Buynode@?$_Tree_val@V?$_Tmap_traits@KPAVCustomSoundData@@U?$less@K@std@@V?$allocator@U?$pair@$$CBKPAVCustomSoundData@@@std@@@3@$0A@@std@@@std@@QAEPAU_Node@?$_Tree_nod@V?$_Tmap_traits@KPAVCustomSoundData@@U?$less@K@std@@V?$allocator@U?$pair@$$CBKPAVCustomSoundData@@@std@@@3@$0A@@std@@@2@XZ ; std::_Tree_val<std::_Tmap_traits<unsigned long,CustomSoundData *,std::less<unsigned long>,std::allocator<std::pair<unsigned long const ,CustomSoundData *> >,0> >::_Buynode

; 589  : 
; 590  : 		_TRY_BEGIN
; 591  : 		_Cons_val(this->_Alval, _STD addressof(this->_Myval(_Wherenode)),
; 592  : 			_STD forward<_Valty>(_Val));

  0000c	ff 75 08	 push	 DWORD PTR __Val$[ebp]
  0000f	8b f8		 mov	 edi, eax
  00011	8d 47 0c	 lea	 eax, DWORD PTR [edi+12]
  00014	50		 push	 eax
  00015	83 c6 0d	 add	 esi, 13			; 0000000dH
  00018	56		 push	 esi
  00019	e8 00 00 00 00	 call	 ??$_Cons_val@V?$allocator@U?$pair@$$CBKPAVCustomSoundData@@@std@@@std@@U?$pair@$$CBKPAVCustomSoundData@@@2@U32@@std@@YAXAAV?$allocator@U?$pair@$$CBKPAVCustomSoundData@@@std@@@0@PAU?$pair@$$CBKPAVCustomSoundData@@@0@$$QAU20@@Z ; std::_Cons_val<std::allocator<std::pair<unsigned long const ,CustomSoundData *> >,std::pair<unsigned long const ,CustomSoundData *>,std::pair<unsigned long const ,CustomSoundData *> >
  0001e	83 c4 0c	 add	 esp, 12			; 0000000cH

; 593  : 		_CATCH_ALL
; 594  : 		this->_Alnod.deallocate(_Wherenode, 1);
; 595  : 		_RERAISE;
; 596  : 		_CATCH_END
; 597  : 
; 598  : 		return (_Wherenode);

  00021	8b c7		 mov	 eax, edi
  00023	5f		 pop	 edi
  00024	5e		 pop	 esi

; 599  : 		}

  00025	5d		 pop	 ebp
  00026	c2 04 00	 ret	 4
??$_Buynode@U?$pair@$$CBKPAVCustomSoundData@@@std@@@?$_Tree_val@V?$_Tmap_traits@KPAVCustomSoundData@@U?$less@K@std@@V?$allocator@U?$pair@$$CBKPAVCustomSoundData@@@std@@@3@$0A@@std@@@std@@QAEPAU_Node@?$_Tree_nod@V?$_Tmap_traits@KPAVCustomSoundData@@U?$less@K@std@@V?$allocator@U?$pair@$$CBKPAVCustomSoundData@@@std@@@3@$0A@@std@@@1@$$QAU?$pair@$$CBKPAVCustomSoundData@@@1@@Z ENDP ; std::_Tree_val<std::_Tmap_traits<unsigned long,CustomSoundData *,std::less<unsigned long>,std::allocator<std::pair<unsigned long const ,CustomSoundData *> >,0> >::_Buynode<std::pair<unsigned long const ,CustomSoundData *> >
_TEXT	ENDS
PUBLIC	??$_Uninitialized_move@PAVioHashString@@PAV1@V?$allocator@VioHashString@@@std@@@std@@YAPAVioHashString@@PAV1@00AAV?$allocator@VioHashString@@@0@@Z ; std::_Uninitialized_move<ioHashString *,ioHashString *,std::allocator<ioHashString> >
; Function compile flags: /Ogsp
; File c:\program files (x86)\microsoft visual studio 10.0\vc\include\memory
;	COMDAT ??$_Uninitialized_move@PAVioHashString@@PAV1@V?$allocator@VioHashString@@@std@@@std@@YAPAVioHashString@@PAV1@00AAV?$allocator@VioHashString@@@0@@Z
_TEXT	SEGMENT
__Cat$517628 = -4					; size = 1
__First$ = 8						; size = 4
__Last$ = 12						; size = 4
__Dest$ = 16						; size = 4
__Al$ = 20						; size = 4
??$_Uninitialized_move@PAVioHashString@@PAV1@V?$allocator@VioHashString@@@std@@@std@@YAPAVioHashString@@PAV1@00AAV?$allocator@VioHashString@@@0@@Z PROC ; std::_Uninitialized_move<ioHashString *,ioHashString *,std::allocator<ioHashString> >, COMDAT

; 469  : 	{	// move [_First, _Last) to raw _Dest, using _Al

  00000	55		 push	 ebp
  00001	8b ec		 mov	 ebp, esp
  00003	51		 push	 ecx

; 470  : 	return (_Uninit_move(_First, _Last, _Dest, _Al,
; 471  : 		_Val_type(_First), _Ptr_cat(_First, _Dest)));

  00004	ff 75 fc	 push	 DWORD PTR __Cat$517628[ebp]
  00007	6a 00		 push	 0
  00009	ff 75 14	 push	 DWORD PTR __Al$[ebp]
  0000c	ff 75 10	 push	 DWORD PTR __Dest$[ebp]
  0000f	ff 75 0c	 push	 DWORD PTR __Last$[ebp]
  00012	ff 75 08	 push	 DWORD PTR __First$[ebp]
  00015	e8 00 00 00 00	 call	 ??$_Uninit_move@PAVioHashString@@PAV1@V?$allocator@VioHashString@@@std@@V1@@std@@YAPAVioHashString@@PAV1@00AAV?$allocator@VioHashString@@@0@0U_Nonscalar_ptr_iterator_tag@0@@Z ; std::_Uninit_move<ioHashString *,ioHashString *,std::allocator<ioHashString>,ioHashString>
  0001a	83 c4 18	 add	 esp, 24			; 00000018H

; 472  : 	}

  0001d	c9		 leave
  0001e	c3		 ret	 0
??$_Uninitialized_move@PAVioHashString@@PAV1@V?$allocator@VioHashString@@@std@@@std@@YAPAVioHashString@@PAV1@00AAV?$allocator@VioHashString@@@0@@Z ENDP ; std::_Uninitialized_move<ioHashString *,ioHashString *,std::allocator<ioHashString> >
_TEXT	ENDS
PUBLIC	?erase@?$_Tree@V?$_Tmap_traits@KPAVCustomSoundData@@U?$less@K@std@@V?$allocator@U?$pair@$$CBKPAVCustomSoundData@@@std@@@3@$0A@@std@@@std@@QAE?AV?$_Tree_iterator@V?$_Tree_val@V?$_Tmap_traits@KPAVCustomSoundData@@U?$less@K@std@@V?$allocator@U?$pair@$$CBKPAVCustomSoundData@@@std@@@3@$0A@@std@@@std@@@2@V?$_Tree_const_iterator@V?$_Tree_val@V?$_Tmap_traits@KPAVCustomSoundData@@U?$less@K@std@@V?$allocator@U?$pair@$$CBKPAVCustomSoundData@@@std@@@3@$0A@@std@@@std@@@2@0@Z ; std::_Tree<std::_Tmap_traits<unsigned long,CustomSoundData *,std::less<unsigned long>,std::allocator<std::pair<unsigned long const ,CustomSoundData *> >,0> >::erase
; Function compile flags: /Ogsp
; File c:\program files (x86)\microsoft visual studio 10.0\vc\include\xtree
;	COMDAT ?erase@?$_Tree@V?$_Tmap_traits@KPAVCustomSoundData@@U?$less@K@std@@V?$allocator@U?$pair@$$CBKPAVCustomSoundData@@@std@@@3@$0A@@std@@@std@@QAE?AV?$_Tree_iterator@V?$_Tree_val@V?$_Tmap_traits@KPAVCustomSoundData@@U?$less@K@std@@V?$allocator@U?$pair@$$CBKPAVCustomSoundData@@@std@@@3@$0A@@std@@@std@@@2@V?$_Tree_const_iterator@V?$_Tree_val@V?$_Tmap_traits@KPAVCustomSoundData@@U?$less@K@std@@V?$allocator@U?$pair@$$CBKPAVCustomSoundData@@@std@@@3@$0A@@std@@@std@@@2@0@Z
_TEXT	SEGMENT
$T517638 = -4						; size = 4
___$ReturnUdt$ = 8					; size = 4
__First$ = 12						; size = 4
__Last$ = 16						; size = 4
?erase@?$_Tree@V?$_Tmap_traits@KPAVCustomSoundData@@U?$less@K@std@@V?$allocator@U?$pair@$$CBKPAVCustomSoundData@@@std@@@3@$0A@@std@@@std@@QAE?AV?$_Tree_iterator@V?$_Tree_val@V?$_Tmap_traits@KPAVCustomSoundData@@U?$less@K@std@@V?$allocator@U?$pair@$$CBKPAVCustomSoundData@@@std@@@3@$0A@@std@@@std@@@2@V?$_Tree_const_iterator@V?$_Tree_val@V?$_Tmap_traits@KPAVCustomSoundData@@U?$less@K@std@@V?$allocator@U?$pair@$$CBKPAVCustomSoundData@@@std@@@3@$0A@@std@@@std@@@2@0@Z PROC ; std::_Tree<std::_Tmap_traits<unsigned long,CustomSoundData *,std::less<unsigned long>,std::allocator<std::pair<unsigned long const ,CustomSoundData *> >,0> >::erase, COMDAT
; _this$ = ecx

; 1379 : 		{	// erase [_First, _Last)

  00000	55		 push	 ebp
  00001	8b ec		 mov	 ebp, esp
  00003	51		 push	 ecx
  00004	56		 push	 esi
  00005	8b f1		 mov	 esi, ecx

; 1380 : 		if (_First == begin() && _Last == end())

  00007	8b 46 04	 mov	 eax, DWORD PTR [esi+4]
  0000a	8b 4d 0c	 mov	 ecx, DWORD PTR __First$[ebp]
  0000d	3b 08		 cmp	 ecx, DWORD PTR [eax]
  0000f	75 13		 jne	 SHORT $LN65@erase@3
  00011	39 45 10	 cmp	 DWORD PTR __Last$[ebp], eax
  00014	75 0e		 jne	 SHORT $LN65@erase@3

; 1381 : 			{	// erase all
; 1382 : 			clear();

  00016	8b ce		 mov	 ecx, esi
  00018	e8 00 00 00 00	 call	 ?clear@?$_Tree@V?$_Tmap_traits@KPAVCustomSoundData@@U?$less@K@std@@V?$allocator@U?$pair@$$CBKPAVCustomSoundData@@@std@@@3@$0A@@std@@@std@@QAEXXZ ; std::_Tree<std::_Tmap_traits<unsigned long,CustomSoundData *,std::less<unsigned long>,std::allocator<std::pair<unsigned long const ,CustomSoundData *> >,0> >::clear

; 1383 : 			return (begin());

  0001d	8b 46 04	 mov	 eax, DWORD PTR [esi+4]
  00020	8b 08		 mov	 ecx, DWORD PTR [eax]
  00022	eb 25		 jmp	 SHORT $LN1@erase@3
$LN65@erase@3:

; 1384 : 			}
; 1385 : 		else
; 1386 : 			{	// partial erase, one at a time
; 1387 : 			while (_First != _Last)

  00024	3b 4d 10	 cmp	 ecx, DWORD PTR __Last$[ebp]
  00027	74 20		 je	 SHORT $LN1@erase@3
  00029	57		 push	 edi
$LL2@erase@3:

; 1388 : 				erase(_First++);

  0002a	8b f9		 mov	 edi, ecx
  0002c	8d 4d 0c	 lea	 ecx, DWORD PTR __First$[ebp]
  0002f	e8 00 00 00 00	 call	 ??E?$_Tree_unchecked_const_iterator@V?$_Tree_val@V?$_Tmap_traits@KPAVCustomSoundData@@U?$less@K@std@@V?$allocator@U?$pair@$$CBKPAVCustomSoundData@@@std@@@3@$0A@@std@@@std@@U_Iterator_base0@2@@std@@QAEAAV01@XZ ; std::_Tree_unchecked_const_iterator<std::_Tree_val<std::_Tmap_traits<unsigned long,CustomSoundData *,std::less<unsigned long>,std::allocator<std::pair<unsigned long const ,CustomSoundData *> >,0> >,std::_Iterator_base0>::operator++
  00034	57		 push	 edi
  00035	8d 45 fc	 lea	 eax, DWORD PTR $T517638[ebp]
  00038	50		 push	 eax
  00039	8b ce		 mov	 ecx, esi
  0003b	e8 00 00 00 00	 call	 ?erase@?$_Tree@V?$_Tmap_traits@KPAVCustomSoundData@@U?$less@K@std@@V?$allocator@U?$pair@$$CBKPAVCustomSoundData@@@std@@@3@$0A@@std@@@std@@QAE?AV?$_Tree_iterator@V?$_Tree_val@V?$_Tmap_traits@KPAVCustomSoundData@@U?$less@K@std@@V?$allocator@U?$pair@$$CBKPAVCustomSoundData@@@std@@@3@$0A@@std@@@std@@@2@V?$_Tree_const_iterator@V?$_Tree_val@V?$_Tmap_traits@KPAVCustomSoundData@@U?$less@K@std@@V?$allocator@U?$pair@$$CBKPAVCustomSoundData@@@std@@@3@$0A@@std@@@std@@@2@@Z ; std::_Tree<std::_Tmap_traits<unsigned long,CustomSoundData *,std::less<unsigned long>,std::allocator<std::pair<unsigned long const ,CustomSoundData *> >,0> >::erase
  00040	8b 4d 0c	 mov	 ecx, DWORD PTR __First$[ebp]
  00043	3b 4d 10	 cmp	 ecx, DWORD PTR __Last$[ebp]
  00046	75 e2		 jne	 SHORT $LL2@erase@3
  00048	5f		 pop	 edi
$LN1@erase@3:

; 1389 : 			return (iterator(_First._Ptr, this));

  00049	8b 45 08	 mov	 eax, DWORD PTR ___$ReturnUdt$[ebp]
  0004c	89 08		 mov	 DWORD PTR [eax], ecx
  0004e	5e		 pop	 esi

; 1390 : 			}
; 1391 : 		}

  0004f	c9		 leave
  00050	c2 0c 00	 ret	 12			; 0000000cH
?erase@?$_Tree@V?$_Tmap_traits@KPAVCustomSoundData@@U?$less@K@std@@V?$allocator@U?$pair@$$CBKPAVCustomSoundData@@@std@@@3@$0A@@std@@@std@@QAE?AV?$_Tree_iterator@V?$_Tree_val@V?$_Tmap_traits@KPAVCustomSoundData@@U?$less@K@std@@V?$allocator@U?$pair@$$CBKPAVCustomSoundData@@@std@@@3@$0A@@std@@@std@@@2@V?$_Tree_const_iterator@V?$_Tree_val@V?$_Tmap_traits@KPAVCustomSoundData@@U?$less@K@std@@V?$allocator@U?$pair@$$CBKPAVCustomSoundData@@@std@@@3@$0A@@std@@@std@@@2@0@Z ENDP ; std::_Tree<std::_Tmap_traits<unsigned long,CustomSoundData *,std::less<unsigned long>,std::allocator<std::pair<unsigned long const ,CustomSoundData *> >,0> >::erase
_TEXT	ENDS
PUBLIC	??$_Destroy_range@V?$allocator@VioHashString@@@std@@@std@@YAXPAVioHashString@@0AAV?$allocator@VioHashString@@@0@@Z ; std::_Destroy_range<std::allocator<ioHashString> >
; Function compile flags: /Ogsp
; File c:\program files (x86)\microsoft visual studio 10.0\vc\include\xmemory
;	COMDAT ??$_Destroy_range@V?$allocator@VioHashString@@@std@@@std@@YAXPAVioHashString@@0AAV?$allocator@VioHashString@@@0@@Z
_TEXT	SEGMENT
__First$ = 8						; size = 4
__Last$ = 12						; size = 4
__Al$ = 16						; size = 4
??$_Destroy_range@V?$allocator@VioHashString@@@std@@@std@@YAXPAVioHashString@@0AAV?$allocator@VioHashString@@@0@@Z PROC ; std::_Destroy_range<std::allocator<ioHashString> >, COMDAT

; 87   : 	{	// destroy [_First, _Last)

  00000	55		 push	 ebp
  00001	8b ec		 mov	 ebp, esp
  00003	56		 push	 esi

; 88   : 	_Destroy_range(_First, _Last, _Al, _Ptr_cat(_First, _Last));

  00004	8b 75 08	 mov	 esi, DWORD PTR __First$[ebp]
  00007	eb 0b		 jmp	 SHORT $LN21@Destroy_ra@2
$LL7@Destroy_ra@2:
  00009	8b ce		 mov	 ecx, esi
  0000b	ff 15 00 00 00
	00		 call	 DWORD PTR __imp_??1ioHashString@@QAE@XZ
  00011	83 c6 10	 add	 esi, 16			; 00000010H
$LN21@Destroy_ra@2:
  00014	3b 75 0c	 cmp	 esi, DWORD PTR __Last$[ebp]
  00017	75 f0		 jne	 SHORT $LL7@Destroy_ra@2
  00019	5e		 pop	 esi

; 89   : 	}

  0001a	5d		 pop	 ebp
  0001b	c3		 ret	 0
??$_Destroy_range@V?$allocator@VioHashString@@@std@@@std@@YAXPAVioHashString@@0AAV?$allocator@VioHashString@@@0@@Z ENDP ; std::_Destroy_range<std::allocator<ioHashString> >
_TEXT	ENDS
PUBLIC	??1?$vector@UtagNetworkInfo@CustomSoundData@@V?$allocator@UtagNetworkInfo@CustomSoundData@@@std@@@std@@QAE@XZ ; std::vector<CustomSoundData::tagNetworkInfo,std::allocator<CustomSoundData::tagNetworkInfo> >::~vector<CustomSoundData::tagNetworkInfo,std::allocator<CustomSoundData::tagNetworkInfo> >
; Function compile flags: /Ogsp
; File c:\program files (x86)\microsoft visual studio 10.0\vc\include\vector
;	COMDAT ??1?$vector@UtagNetworkInfo@CustomSoundData@@V?$allocator@UtagNetworkInfo@CustomSoundData@@@std@@@std@@QAE@XZ
_TEXT	SEGMENT
??1?$vector@UtagNetworkInfo@CustomSoundData@@V?$allocator@UtagNetworkInfo@CustomSoundData@@@std@@@std@@QAE@XZ PROC ; std::vector<CustomSoundData::tagNetworkInfo,std::allocator<CustomSoundData::tagNetworkInfo> >::~vector<CustomSoundData::tagNetworkInfo,std::allocator<CustomSoundData::tagNetworkInfo> >, COMDAT
; _this$ = ecx

; 705  : 		_Tidy();

  00000	e9 00 00 00 00	 jmp	 ?_Tidy@?$vector@UtagNetworkInfo@CustomSoundData@@V?$allocator@UtagNetworkInfo@CustomSoundData@@@std@@@std@@IAEXXZ ; std::vector<CustomSoundData::tagNetworkInfo,std::allocator<CustomSoundData::tagNetworkInfo> >::_Tidy
??1?$vector@UtagNetworkInfo@CustomSoundData@@V?$allocator@UtagNetworkInfo@CustomSoundData@@@std@@@std@@QAE@XZ ENDP ; std::vector<CustomSoundData::tagNetworkInfo,std::allocator<CustomSoundData::tagNetworkInfo> >::~vector<CustomSoundData::tagNetworkInfo,std::allocator<CustomSoundData::tagNetworkInfo> >
_TEXT	ENDS
PUBLIC	?erase@?$vector@UtagNetworkInfo@CustomSoundData@@V?$allocator@UtagNetworkInfo@CustomSoundData@@@std@@@std@@QAE?AV?$_Vector_iterator@V?$_Vector_val@UtagNetworkInfo@CustomSoundData@@V?$allocator@UtagNetworkInfo@CustomSoundData@@@std@@@std@@@2@V?$_Vector_const_iterator@V?$_Vector_val@UtagNetworkInfo@CustomSoundData@@V?$allocator@UtagNetworkInfo@CustomSoundData@@@std@@@std@@@2@@Z ; std::vector<CustomSoundData::tagNetworkInfo,std::allocator<CustomSoundData::tagNetworkInfo> >::erase
; Function compile flags: /Ogsp
;	COMDAT ?erase@?$vector@UtagNetworkInfo@CustomSoundData@@V?$allocator@UtagNetworkInfo@CustomSoundData@@@std@@@std@@QAE?AV?$_Vector_iterator@V?$_Vector_val@UtagNetworkInfo@CustomSoundData@@V?$allocator@UtagNetworkInfo@CustomSoundData@@@std@@@std@@@2@V?$_Vector_const_iterator@V?$_Vector_val@UtagNetworkInfo@CustomSoundData@@V?$allocator@UtagNetworkInfo@CustomSoundData@@@std@@@std@@@2@@Z
_TEXT	SEGMENT
___$ReturnUdt$ = 8					; size = 4
__Cat$517897 = 12					; size = 1
__Where$ = 12						; size = 4
?erase@?$vector@UtagNetworkInfo@CustomSoundData@@V?$allocator@UtagNetworkInfo@CustomSoundData@@@std@@@std@@QAE?AV?$_Vector_iterator@V?$_Vector_val@UtagNetworkInfo@CustomSoundData@@V?$allocator@UtagNetworkInfo@CustomSoundData@@@std@@@std@@@2@V?$_Vector_const_iterator@V?$_Vector_val@UtagNetworkInfo@CustomSoundData@@V?$allocator@UtagNetworkInfo@CustomSoundData@@@std@@@std@@@2@@Z PROC ; std::vector<CustomSoundData::tagNetworkInfo,std::allocator<CustomSoundData::tagNetworkInfo> >::erase, COMDAT
; _this$ = ecx

; 1179 : 		{	// erase element at where

  00000	55		 push	 ebp
  00001	8b ec		 mov	 ebp, esp

; 1180 : 		_Move(_VIPTR(_Where) + 1, this->_Mylast,
; 1181 : 			_VIPTR(_Where));

  00003	8b 45 0c	 mov	 eax, DWORD PTR __Where$[ebp]
  00006	56		 push	 esi
  00007	ff 75 0c	 push	 DWORD PTR __Cat$517897[ebp]
  0000a	8b f1		 mov	 esi, ecx
  0000c	50		 push	 eax
  0000d	ff 76 04	 push	 DWORD PTR [esi+4]
  00010	83 c0 08	 add	 eax, 8
  00013	50		 push	 eax
  00014	e8 00 00 00 00	 call	 ??$_Move@PAUtagNetworkInfo@CustomSoundData@@PAU12@@std@@YAPAUtagNetworkInfo@CustomSoundData@@PAU12@00U_Nonscalar_ptr_iterator_tag@0@@Z ; std::_Move<CustomSoundData::tagNetworkInfo *,CustomSoundData::tagNetworkInfo *>

; 1182 : 		_Destroy(this->_Mylast - 1, this->_Mylast);
; 1183 : 		--this->_Mylast;
; 1184 : 		return (_Make_iter(_Where));

  00019	8b 45 08	 mov	 eax, DWORD PTR ___$ReturnUdt$[ebp]
  0001c	8b 4d 0c	 mov	 ecx, DWORD PTR __Where$[ebp]
  0001f	83 c4 10	 add	 esp, 16			; 00000010H
  00022	83 46 04 f8	 add	 DWORD PTR [esi+4], -8	; fffffff8H
  00026	89 08		 mov	 DWORD PTR [eax], ecx
  00028	5e		 pop	 esi

; 1185 : 		}

  00029	5d		 pop	 ebp
  0002a	c2 08 00	 ret	 8
?erase@?$vector@UtagNetworkInfo@CustomSoundData@@V?$allocator@UtagNetworkInfo@CustomSoundData@@@std@@@std@@QAE?AV?$_Vector_iterator@V?$_Vector_val@UtagNetworkInfo@CustomSoundData@@V?$allocator@UtagNetworkInfo@CustomSoundData@@@std@@@std@@@2@V?$_Vector_const_iterator@V?$_Vector_val@UtagNetworkInfo@CustomSoundData@@V?$allocator@UtagNetworkInfo@CustomSoundData@@@std@@@std@@@2@@Z ENDP ; std::vector<CustomSoundData::tagNetworkInfo,std::allocator<CustomSoundData::tagNetworkInfo> >::erase
_TEXT	ENDS
PUBLIC	?erase@?$vector@UtagNetworkInfo@CustomSoundData@@V?$allocator@UtagNetworkInfo@CustomSoundData@@@std@@@std@@QAE?AV?$_Vector_iterator@V?$_Vector_val@UtagNetworkInfo@CustomSoundData@@V?$allocator@UtagNetworkInfo@CustomSoundData@@@std@@@std@@@2@V?$_Vector_const_iterator@V?$_Vector_val@UtagNetworkInfo@CustomSoundData@@V?$allocator@UtagNetworkInfo@CustomSoundData@@@std@@@std@@@2@0@Z ; std::vector<CustomSoundData::tagNetworkInfo,std::allocator<CustomSoundData::tagNetworkInfo> >::erase
; Function compile flags: /Ogsp
;	COMDAT ?erase@?$vector@UtagNetworkInfo@CustomSoundData@@V?$allocator@UtagNetworkInfo@CustomSoundData@@@std@@@std@@QAE?AV?$_Vector_iterator@V?$_Vector_val@UtagNetworkInfo@CustomSoundData@@V?$allocator@UtagNetworkInfo@CustomSoundData@@@std@@@std@@@2@V?$_Vector_const_iterator@V?$_Vector_val@UtagNetworkInfo@CustomSoundData@@V?$allocator@UtagNetworkInfo@CustomSoundData@@@std@@@std@@@2@0@Z
_TEXT	SEGMENT
___$ReturnUdt$ = 8					; size = 4
__First_arg$ = 12					; size = 4
__Cat$518072 = 16					; size = 1
__Last_arg$ = 16					; size = 4
?erase@?$vector@UtagNetworkInfo@CustomSoundData@@V?$allocator@UtagNetworkInfo@CustomSoundData@@@std@@@std@@QAE?AV?$_Vector_iterator@V?$_Vector_val@UtagNetworkInfo@CustomSoundData@@V?$allocator@UtagNetworkInfo@CustomSoundData@@@std@@@std@@@2@V?$_Vector_const_iterator@V?$_Vector_val@UtagNetworkInfo@CustomSoundData@@V?$allocator@UtagNetworkInfo@CustomSoundData@@@std@@@std@@@2@0@Z PROC ; std::vector<CustomSoundData::tagNetworkInfo,std::allocator<CustomSoundData::tagNetworkInfo> >::erase, COMDAT
; _this$ = ecx

; 1190 : 		{	// erase [_First, _Last)

  00000	55		 push	 ebp
  00001	8b ec		 mov	 ebp, esp

; 1191 : 		iterator _First = _Make_iter(_First_arg);

  00003	8b 45 0c	 mov	 eax, DWORD PTR __First_arg$[ebp]
  00006	56		 push	 esi
  00007	57		 push	 edi
  00008	8b 7d 08	 mov	 edi, DWORD PTR ___$ReturnUdt$[ebp]
  0000b	8b f1		 mov	 esi, ecx
  0000d	89 07		 mov	 DWORD PTR [edi], eax

; 1192 : 		iterator _Last = _Make_iter(_Last_arg);
; 1193 : 
; 1194 : 		if (_First != _Last)

  0000f	3b 45 10	 cmp	 eax, DWORD PTR __Last_arg$[ebp]
  00012	74 16		 je	 SHORT $LN1@erase@4

; 1195 : 			{	// worth doing, copy down over hole
; 1196 :  #if _ITERATOR_DEBUG_LEVEL == 2
; 1197 : 			if (_Last < _First || _VICONT(_First) != this
; 1198 : 				|| _VIPTR(_First) < this->_Myfirst
; 1199 : 				|| this->_Mylast < _VIPTR(_Last))
; 1200 : 				_DEBUG_ERROR("vector erase iterator outside range");
; 1201 : 			pointer _Ptr = _Move(_VIPTR(_Last), this->_Mylast,
; 1202 : 				_VIPTR(_First));
; 1203 : 			_Orphan_range(_VIPTR(_First), this->_Mylast);
; 1204 : 
; 1205 :  #else /* _ITERATOR_DEBUG_LEVEL == 2 */
; 1206 : 			pointer _Ptr = _Move(_VIPTR(_Last), this->_Mylast,
; 1207 : 				_VIPTR(_First));

  00014	ff 75 10	 push	 DWORD PTR __Cat$518072[ebp]
  00017	8b 4e 04	 mov	 ecx, DWORD PTR [esi+4]
  0001a	50		 push	 eax
  0001b	51		 push	 ecx
  0001c	ff 75 10	 push	 DWORD PTR __Last_arg$[ebp]
  0001f	e8 00 00 00 00	 call	 ??$_Move@PAUtagNetworkInfo@CustomSoundData@@PAU12@@std@@YAPAUtagNetworkInfo@CustomSoundData@@PAU12@00U_Nonscalar_ptr_iterator_tag@0@@Z ; std::_Move<CustomSoundData::tagNetworkInfo *,CustomSoundData::tagNetworkInfo *>
  00024	83 c4 10	 add	 esp, 16			; 00000010H

; 1208 :  #endif /* _ITERATOR_DEBUG_LEVEL == 2 */
; 1209 : 
; 1210 : 			_Destroy(_Ptr, this->_Mylast);
; 1211 : 			this->_Mylast = _Ptr;

  00027	89 46 04	 mov	 DWORD PTR [esi+4], eax
$LN1@erase@4:

; 1212 : 			}
; 1213 : 		return (_First);

  0002a	8b c7		 mov	 eax, edi
  0002c	5f		 pop	 edi
  0002d	5e		 pop	 esi

; 1214 : 		}

  0002e	5d		 pop	 ebp
  0002f	c2 0c 00	 ret	 12			; 0000000cH
?erase@?$vector@UtagNetworkInfo@CustomSoundData@@V?$allocator@UtagNetworkInfo@CustomSoundData@@@std@@@std@@QAE?AV?$_Vector_iterator@V?$_Vector_val@UtagNetworkInfo@CustomSoundData@@V?$allocator@UtagNetworkInfo@CustomSoundData@@@std@@@std@@@2@V?$_Vector_const_iterator@V?$_Vector_val@UtagNetworkInfo@CustomSoundData@@V?$allocator@UtagNetworkInfo@CustomSoundData@@@std@@@std@@@2@0@Z ENDP ; std::vector<CustomSoundData::tagNetworkInfo,std::allocator<CustomSoundData::tagNetworkInfo> >::erase
_TEXT	ENDS
PUBLIC	?reserve@?$vector@UtagNetworkInfo@CustomSoundData@@V?$allocator@UtagNetworkInfo@CustomSoundData@@@std@@@std@@QAEXI@Z ; std::vector<CustomSoundData::tagNetworkInfo,std::allocator<CustomSoundData::tagNetworkInfo> >::reserve
;	COMDAT xdata$x
; File c:\program files (x86)\microsoft visual studio 10.0\vc\include\xmemory
xdata$x	SEGMENT
__catchsym$?reserve@?$vector@UtagNetworkInfo@CustomSoundData@@V?$allocator@UtagNetworkInfo@CustomSoundData@@@std@@@std@@QAEXI@Z$2 DD 040H
	DD	00H
	DD	00H
	DD	FLAT:__catch$?reserve@?$vector@UtagNetworkInfo@CustomSoundData@@V?$allocator@UtagNetworkInfo@CustomSoundData@@@std@@@std@@QAEXI@Z$0
__unwindtable$?reserve@?$vector@UtagNetworkInfo@CustomSoundData@@V?$allocator@UtagNetworkInfo@CustomSoundData@@@std@@@std@@QAEXI@Z DD 0ffffffffH
	DD	00H
	DD	0ffffffffH
	DD	00H
__tryblocktable$?reserve@?$vector@UtagNetworkInfo@CustomSoundData@@V?$allocator@UtagNetworkInfo@CustomSoundData@@@std@@@std@@QAEXI@Z DD 00H
	DD	00H
	DD	01H
	DD	01H
	DD	FLAT:__catchsym$?reserve@?$vector@UtagNetworkInfo@CustomSoundData@@V?$allocator@UtagNetworkInfo@CustomSoundData@@@std@@@std@@QAEXI@Z$2
__ehfuncinfo$?reserve@?$vector@UtagNetworkInfo@CustomSoundData@@V?$allocator@UtagNetworkInfo@CustomSoundData@@@std@@@std@@QAEXI@Z DD 019930522H
	DD	02H
	DD	FLAT:__unwindtable$?reserve@?$vector@UtagNetworkInfo@CustomSoundData@@V?$allocator@UtagNetworkInfo@CustomSoundData@@@std@@@std@@QAEXI@Z
	DD	01H
	DD	FLAT:__tryblocktable$?reserve@?$vector@UtagNetworkInfo@CustomSoundData@@V?$allocator@UtagNetworkInfo@CustomSoundData@@@std@@@std@@QAEXI@Z
	DD	2 DUP(00H)
	DD	00H
	DD	01H
; Function compile flags: /Ogsp
; File c:\program files (x86)\microsoft visual studio 10.0\vc\include\vector
xdata$x	ENDS
;	COMDAT ?reserve@?$vector@UtagNetworkInfo@CustomSoundData@@V?$allocator@UtagNetworkInfo@CustomSoundData@@@std@@@std@@QAEXI@Z
_TEXT	SEGMENT
__Ptr$507847 = -20					; size = 4
__$EHRec$ = -16						; size = 16
__Count$ = 8						; size = 4
?reserve@?$vector@UtagNetworkInfo@CustomSoundData@@V?$allocator@UtagNetworkInfo@CustomSoundData@@@std@@@std@@QAEXI@Z PROC ; std::vector<CustomSoundData::tagNetworkInfo,std::allocator<CustomSoundData::tagNetworkInfo> >::reserve, COMDAT
; _this$ = ecx

; 746  : 		{	// determine new minimum length of allocated storage

  00000	6a 08		 push	 8
  00002	b8 00 00 00 00	 mov	 eax, __ehhandler$?reserve@?$vector@UtagNetworkInfo@CustomSoundData@@V?$allocator@UtagNetworkInfo@CustomSoundData@@@std@@@std@@QAEXI@Z
  00007	e8 00 00 00 00	 call	 __EH_prolog3_catch
  0000c	8b f1		 mov	 esi, ecx

; 747  : 		if (max_size() < _Count)

  0000e	81 7d 08 ff ff
	ff 1f		 cmp	 DWORD PTR __Count$[ebp], 536870911 ; 1fffffffH
  00015	76 0b		 jbe	 SHORT $LN5@reserve@2

; 748  : 			_Xlen();	// result too long

  00017	68 00 00 00 00	 push	 OFFSET ??_C@_0BD@OLBABOEK@vector?$DMT?$DO?5too?5long?$AA@
  0001c	ff 15 00 00 00
	00		 call	 DWORD PTR __imp_?_Xlength_error@std@@YAXPBD@Z
$LN56@reserve@2:
$LN5@reserve@2:

; 749  : 		else if (capacity() < _Count)

  00022	8b 46 08	 mov	 eax, DWORD PTR [esi+8]
  00025	2b 06		 sub	 eax, DWORD PTR [esi]
  00027	c1 f8 03	 sar	 eax, 3
  0002a	3b 45 08	 cmp	 eax, DWORD PTR __Count$[ebp]
  0002d	73 65		 jae	 SHORT $LN3@reserve@2

; 750  : 			{	// not enough room, reallocate
; 751  : 			pointer _Ptr = this->_Alval.allocate(_Count);

  0002f	6a 00		 push	 0
  00031	ff 75 08	 push	 DWORD PTR __Count$[ebp]
  00034	e8 00 00 00 00	 call	 ??$_Allocate@UtagNetworkInfo@CustomSoundData@@@std@@YAPAUtagNetworkInfo@CustomSoundData@@IPAU12@@Z ; std::_Allocate<CustomSoundData::tagNetworkInfo>

; 752  : 
; 753  : 			_TRY_BEGIN
; 754  : 			_Umove(this->_Myfirst, this->_Mylast, _Ptr);

  00039	8b 0e		 mov	 ecx, DWORD PTR [esi]
  0003b	83 65 fc 00	 and	 DWORD PTR __$EHRec$[ebp+12], 0
  0003f	8b d8		 mov	 ebx, eax
  00041	8b 46 04	 mov	 eax, DWORD PTR [esi+4]
  00044	8d 56 0c	 lea	 edx, DWORD PTR [esi+12]
  00047	52		 push	 edx
  00048	53		 push	 ebx
  00049	50		 push	 eax
  0004a	51		 push	 ecx
  0004b	89 5d ec	 mov	 DWORD PTR __Ptr$507847[ebp], ebx
  0004e	e8 00 00 00 00	 call	 ??$_Uninitialized_move@PAUtagNetworkInfo@CustomSoundData@@PAU12@V?$allocator@UtagNetworkInfo@CustomSoundData@@@std@@@std@@YAPAUtagNetworkInfo@CustomSoundData@@PAU12@00AAV?$allocator@UtagNetworkInfo@CustomSoundData@@@0@@Z ; std::_Uninitialized_move<CustomSoundData::tagNetworkInfo *,CustomSoundData::tagNetworkInfo *,std::allocator<CustomSoundData::tagNetworkInfo> >

; 758  : 			_CATCH_END
; 759  : 
; 760  : 			size_type _Size = size();

  00053	8b 4e 04	 mov	 ecx, DWORD PTR [esi+4]
  00056	8b 06		 mov	 eax, DWORD PTR [esi]
  00058	83 4d fc ff	 or	 DWORD PTR __$EHRec$[ebp+12], -1
  0005c	8b f9		 mov	 edi, ecx
  0005e	2b f8		 sub	 edi, eax
  00060	83 c4 18	 add	 esp, 24			; 00000018H
  00063	c1 ff 03	 sar	 edi, 3
  00066	85 c0		 test	 eax, eax
  00068	74 11		 je	 SHORT $LN48@reserve@2

; 761  : 			if (this->_Myfirst != 0)

  0006a	eb 03		 jmp	 SHORT $LN55@reserve@2

; 762  : 				{	// destroy and deallocate old array
; 763  : 				_Destroy(this->_Myfirst, this->_Mylast);

$LL39@reserve@2:
  0006c	83 c0 08	 add	 eax, 8
$LN55@reserve@2:
  0006f	3b c1		 cmp	 eax, ecx
  00071	75 f9		 jne	 SHORT $LL39@reserve@2

; 764  : 				this->_Alval.deallocate(this->_Myfirst,
; 765  : 					this->_Myend - this->_Myfirst);

  00073	ff 36		 push	 DWORD PTR [esi]
  00075	e8 00 00 00 00	 call	 ??3@YAXPAX@Z		; operator delete
  0007a	59		 pop	 ecx
$LN48@reserve@2:

; 766  : 				}
; 767  : 
; 768  : 			this->_Orphan_all();

  0007b	8b ce		 mov	 ecx, esi
  0007d	ff 15 00 00 00
	00		 call	 DWORD PTR __imp_?_Orphan_all@_Container_base0@std@@QAEXXZ

; 769  : 			this->_Myend = _Ptr + _Count;

  00083	8b 45 08	 mov	 eax, DWORD PTR __Count$[ebp]
  00086	8d 04 c3	 lea	 eax, DWORD PTR [ebx+eax*8]
  00089	89 46 08	 mov	 DWORD PTR [esi+8], eax

; 770  : 			this->_Mylast = _Ptr + _Size;

  0008c	8d 04 fb	 lea	 eax, DWORD PTR [ebx+edi*8]
  0008f	89 46 04	 mov	 DWORD PTR [esi+4], eax

; 771  : 			this->_Myfirst = _Ptr;

  00092	89 1e		 mov	 DWORD PTR [esi], ebx
$LN3@reserve@2:

; 772  : 			}
; 773  : 		}

  00094	e8 00 00 00 00	 call	 __EH_epilog3
  00099	c2 04 00	 ret	 4
__catch$?reserve@?$vector@UtagNetworkInfo@CustomSoundData@@V?$allocator@UtagNetworkInfo@CustomSoundData@@@std@@@std@@QAEXI@Z$0:

; 755  : 			_CATCH_ALL
; 756  : 			this->_Alval.deallocate(_Ptr, _Count);

  0009c	ff 75 ec	 push	 DWORD PTR __Ptr$507847[ebp]
  0009f	e8 00 00 00 00	 call	 ??3@YAXPAX@Z		; operator delete
  000a4	59		 pop	 ecx

; 757  : 			_RERAISE;

  000a5	6a 00		 push	 0
  000a7	6a 00		 push	 0
  000a9	e8 00 00 00 00	 call	 __CxxThrowException@8
$LN57@reserve@2:
$LN54@reserve@2:
  000ae	cc		 int	 3
_TEXT	ENDS
;	COMDAT text$x
text$x	SEGMENT
__ehhandler$?reserve@?$vector@UtagNetworkInfo@CustomSoundData@@V?$allocator@UtagNetworkInfo@CustomSoundData@@@std@@@std@@QAEXI@Z:
  00000	8b 54 24 08	 mov	 edx, DWORD PTR [esp+8]
  00004	8d 42 0c	 lea	 eax, DWORD PTR [edx+12]
  00007	8b 4a e8	 mov	 ecx, DWORD PTR [edx-24]
  0000a	33 c8		 xor	 ecx, eax
  0000c	e8 00 00 00 00	 call	 @__security_check_cookie@4
  00011	b8 00 00 00 00	 mov	 eax, OFFSET __ehfuncinfo$?reserve@?$vector@UtagNetworkInfo@CustomSoundData@@V?$allocator@UtagNetworkInfo@CustomSoundData@@@std@@@std@@QAEXI@Z
  00016	e9 00 00 00 00	 jmp	 ___CxxFrameHandler3
text$x	ENDS
?reserve@?$vector@UtagNetworkInfo@CustomSoundData@@V?$allocator@UtagNetworkInfo@CustomSoundData@@@std@@@std@@QAEXI@Z ENDP ; std::vector<CustomSoundData::tagNetworkInfo,std::allocator<CustomSoundData::tagNetworkInfo> >::reserve
PUBLIC	??$insert@U?$pair@$$CBKPAVCustomSoundData@@@std@@@?$_Tree@V?$_Tmap_traits@KPAVCustomSoundData@@U?$less@K@std@@V?$allocator@U?$pair@$$CBKPAVCustomSoundData@@@std@@@3@$0A@@std@@@std@@QAE?AU?$pair@V?$_Tree_iterator@V?$_Tree_val@V?$_Tmap_traits@KPAVCustomSoundData@@U?$less@K@std@@V?$allocator@U?$pair@$$CBKPAVCustomSoundData@@@std@@@3@$0A@@std@@@std@@@std@@_N@1@$$QAU?$pair@$$CBKPAVCustomSoundData@@@1@@Z ; std::_Tree<std::_Tmap_traits<unsigned long,CustomSoundData *,std::less<unsigned long>,std::allocator<std::pair<unsigned long const ,CustomSoundData *> >,0> >::insert<std::pair<unsigned long const ,CustomSoundData *> >
; Function compile flags: /Ogsp
; File c:\program files (x86)\microsoft visual studio 10.0\vc\include\xtree
;	COMDAT ??$insert@U?$pair@$$CBKPAVCustomSoundData@@@std@@@?$_Tree@V?$_Tmap_traits@KPAVCustomSoundData@@U?$less@K@std@@V?$allocator@U?$pair@$$CBKPAVCustomSoundData@@@std@@@3@$0A@@std@@@std@@QAE?AU?$pair@V?$_Tree_iterator@V?$_Tree_val@V?$_Tmap_traits@KPAVCustomSoundData@@U?$less@K@std@@V?$allocator@U?$pair@$$CBKPAVCustomSoundData@@@std@@@3@$0A@@std@@@std@@@std@@_N@1@$$QAU?$pair@$$CBKPAVCustomSoundData@@@1@@Z
_TEXT	SEGMENT
___$ReturnUdt$ = 8					; size = 4
__Val$ = 12						; size = 4
??$insert@U?$pair@$$CBKPAVCustomSoundData@@@std@@@?$_Tree@V?$_Tmap_traits@KPAVCustomSoundData@@U?$less@K@std@@V?$allocator@U?$pair@$$CBKPAVCustomSoundData@@@std@@@3@$0A@@std@@@std@@QAE?AU?$pair@V?$_Tree_iterator@V?$_Tree_val@V?$_Tmap_traits@KPAVCustomSoundData@@U?$less@K@std@@V?$allocator@U?$pair@$$CBKPAVCustomSoundData@@@std@@@3@$0A@@std@@@std@@@std@@_N@1@$$QAU?$pair@$$CBKPAVCustomSoundData@@@1@@Z PROC ; std::_Tree<std::_Tmap_traits<unsigned long,CustomSoundData *,std::less<unsigned long>,std::allocator<std::pair<unsigned long const ,CustomSoundData *> >,0> >::insert<std::pair<unsigned long const ,CustomSoundData *> >, COMDAT
; _this$ = ecx

; 753  : 		_Pairib insert(_Valty&& _Val)

  00000	55		 push	 ebp
  00001	8b ec		 mov	 ebp, esp
  00003	56		 push	 esi

; 754  : 		{	// try to insert node with value _Val, favoring right side
; 755  : 		return (_Linsert(this->_Buynode(_STD forward<_Valty>(_Val)),
; 756  : 			false));

  00004	6a 00		 push	 0
  00006	ff 75 0c	 push	 DWORD PTR __Val$[ebp]
  00009	8b f1		 mov	 esi, ecx
  0000b	e8 00 00 00 00	 call	 ??$_Buynode@U?$pair@$$CBKPAVCustomSoundData@@@std@@@?$_Tree_val@V?$_Tmap_traits@KPAVCustomSoundData@@U?$less@K@std@@V?$allocator@U?$pair@$$CBKPAVCustomSoundData@@@std@@@3@$0A@@std@@@std@@QAEPAU_Node@?$_Tree_nod@V?$_Tmap_traits@KPAVCustomSoundData@@U?$less@K@std@@V?$allocator@U?$pair@$$CBKPAVCustomSoundData@@@std@@@3@$0A@@std@@@1@$$QAU?$pair@$$CBKPAVCustomSoundData@@@1@@Z ; std::_Tree_val<std::_Tmap_traits<unsigned long,CustomSoundData *,std::less<unsigned long>,std::allocator<std::pair<unsigned long const ,CustomSoundData *> >,0> >::_Buynode<std::pair<unsigned long const ,CustomSoundData *> >
  00010	50		 push	 eax
  00011	ff 75 08	 push	 DWORD PTR ___$ReturnUdt$[ebp]
  00014	8b ce		 mov	 ecx, esi
  00016	e8 00 00 00 00	 call	 ?_Linsert@?$_Tree@V?$_Tmap_traits@KPAVCustomSoundData@@U?$less@K@std@@V?$allocator@U?$pair@$$CBKPAVCustomSoundData@@@std@@@3@$0A@@std@@@std@@QAE?AU?$pair@V?$_Tree_iterator@V?$_Tree_val@V?$_Tmap_traits@KPAVCustomSoundData@@U?$less@K@std@@V?$allocator@U?$pair@$$CBKPAVCustomSoundData@@@std@@@3@$0A@@std@@@std@@@std@@_N@2@PAU_Node@?$_Tree_nod@V?$_Tmap_traits@KPAVCustomSoundData@@U?$less@K@std@@V?$allocator@U?$pair@$$CBKPAVCustomSoundData@@@std@@@3@$0A@@std@@@2@_N@Z ; std::_Tree<std::_Tmap_traits<unsigned long,CustomSoundData *,std::less<unsigned long>,std::allocator<std::pair<unsigned long const ,CustomSoundData *> >,0> >::_Linsert
  0001b	8b 45 08	 mov	 eax, DWORD PTR ___$ReturnUdt$[ebp]
  0001e	5e		 pop	 esi

; 757  : 		}

  0001f	5d		 pop	 ebp
  00020	c2 08 00	 ret	 8
??$insert@U?$pair@$$CBKPAVCustomSoundData@@@std@@@?$_Tree@V?$_Tmap_traits@KPAVCustomSoundData@@U?$less@K@std@@V?$allocator@U?$pair@$$CBKPAVCustomSoundData@@@std@@@3@$0A@@std@@@std@@QAE?AU?$pair@V?$_Tree_iterator@V?$_Tree_val@V?$_Tmap_traits@KPAVCustomSoundData@@U?$less@K@std@@V?$allocator@U?$pair@$$CBKPAVCustomSoundData@@@std@@@3@$0A@@std@@@std@@@std@@_N@1@$$QAU?$pair@$$CBKPAVCustomSoundData@@@1@@Z ENDP ; std::_Tree<std::_Tmap_traits<unsigned long,CustomSoundData *,std::less<unsigned long>,std::allocator<std::pair<unsigned long const ,CustomSoundData *> >,0> >::insert<std::pair<unsigned long const ,CustomSoundData *> >
_TEXT	ENDS
PUBLIC	??$_Umove@PAVioHashString@@@?$vector@VioHashString@@V?$allocator@VioHashString@@@std@@@std@@IAEPAVioHashString@@PAV2@00@Z ; std::vector<ioHashString,std::allocator<ioHashString> >::_Umove<ioHashString *>
; Function compile flags: /Ogsp
; File c:\program files (x86)\microsoft visual studio 10.0\vc\include\vector
;	COMDAT ??$_Umove@PAVioHashString@@@?$vector@VioHashString@@V?$allocator@VioHashString@@@std@@@std@@IAEPAVioHashString@@PAV2@00@Z
_TEXT	SEGMENT
__First$ = 8						; size = 4
__Last$ = 12						; size = 4
__Ptr$ = 16						; size = 4
??$_Umove@PAVioHashString@@@?$vector@VioHashString@@V?$allocator@VioHashString@@@std@@@std@@IAEPAVioHashString@@PAV2@00@Z PROC ; std::vector<ioHashString,std::allocator<ioHashString> >::_Umove<ioHashString *>, COMDAT
; _this$ = ecx

; 1322 : 		pointer _Umove(_Iter _First, _Iter _Last, pointer _Ptr)

  00000	55		 push	 ebp
  00001	8b ec		 mov	 ebp, esp

; 1323 : 		{	// move initializing [_First, _Last), using allocator
; 1324 : 		return (_Uninitialized_move(_First, _Last,
; 1325 : 			_Ptr, this->_Alval));

  00003	83 c1 0c	 add	 ecx, 12			; 0000000cH
  00006	51		 push	 ecx
  00007	ff 75 10	 push	 DWORD PTR __Ptr$[ebp]
  0000a	ff 75 0c	 push	 DWORD PTR __Last$[ebp]
  0000d	ff 75 08	 push	 DWORD PTR __First$[ebp]
  00010	e8 00 00 00 00	 call	 ??$_Uninitialized_move@PAVioHashString@@PAV1@V?$allocator@VioHashString@@@std@@@std@@YAPAVioHashString@@PAV1@00AAV?$allocator@VioHashString@@@0@@Z ; std::_Uninitialized_move<ioHashString *,ioHashString *,std::allocator<ioHashString> >
  00015	83 c4 10	 add	 esp, 16			; 00000010H

; 1326 : 		}

  00018	5d		 pop	 ebp
  00019	c2 0c 00	 ret	 12			; 0000000cH
??$_Umove@PAVioHashString@@@?$vector@VioHashString@@V?$allocator@VioHashString@@@std@@@std@@IAEPAVioHashString@@PAV2@00@Z ENDP ; std::vector<ioHashString,std::allocator<ioHashString> >::_Umove<ioHashString *>
_TEXT	ENDS
PUBLIC	?_Tidy@?$_Tree@V?$_Tmap_traits@KPAVCustomSoundData@@U?$less@K@std@@V?$allocator@U?$pair@$$CBKPAVCustomSoundData@@@std@@@3@$0A@@std@@@std@@IAEXXZ ; std::_Tree<std::_Tmap_traits<unsigned long,CustomSoundData *,std::less<unsigned long>,std::allocator<std::pair<unsigned long const ,CustomSoundData *> >,0> >::_Tidy
; Function compile flags: /Ogsp
; File c:\program files (x86)\microsoft visual studio 10.0\vc\include\xtree
;	COMDAT ?_Tidy@?$_Tree@V?$_Tmap_traits@KPAVCustomSoundData@@U?$less@K@std@@V?$allocator@U?$pair@$$CBKPAVCustomSoundData@@@std@@@3@$0A@@std@@@std@@IAEXXZ
_TEXT	SEGMENT
$T518296 = -4						; size = 4
?_Tidy@?$_Tree@V?$_Tmap_traits@KPAVCustomSoundData@@U?$less@K@std@@V?$allocator@U?$pair@$$CBKPAVCustomSoundData@@@std@@@3@$0A@@std@@@std@@IAEXXZ PROC ; std::_Tree<std::_Tmap_traits<unsigned long,CustomSoundData *,std::less<unsigned long>,std::allocator<std::pair<unsigned long const ,CustomSoundData *> >,0> >::_Tidy, COMDAT
; _this$ = ecx

; 1865 : 		{	// free all storage

  00000	55		 push	 ebp
  00001	8b ec		 mov	 ebp, esp
  00003	51		 push	 ecx

; 1866 : 		erase(begin(), end());

  00004	8b 41 04	 mov	 eax, DWORD PTR [ecx+4]
  00007	8b 10		 mov	 edx, DWORD PTR [eax]
  00009	50		 push	 eax
  0000a	52		 push	 edx
  0000b	8d 45 fc	 lea	 eax, DWORD PTR $T518296[ebp]
  0000e	50		 push	 eax
  0000f	e8 00 00 00 00	 call	 ?erase@?$_Tree@V?$_Tmap_traits@KPAVCustomSoundData@@U?$less@K@std@@V?$allocator@U?$pair@$$CBKPAVCustomSoundData@@@std@@@3@$0A@@std@@@std@@QAE?AV?$_Tree_iterator@V?$_Tree_val@V?$_Tmap_traits@KPAVCustomSoundData@@U?$less@K@std@@V?$allocator@U?$pair@$$CBKPAVCustomSoundData@@@std@@@3@$0A@@std@@@std@@@2@V?$_Tree_const_iterator@V?$_Tree_val@V?$_Tmap_traits@KPAVCustomSoundData@@U?$less@K@std@@V?$allocator@U?$pair@$$CBKPAVCustomSoundData@@@std@@@3@$0A@@std@@@std@@@2@0@Z ; std::_Tree<std::_Tmap_traits<unsigned long,CustomSoundData *,std::less<unsigned long>,std::allocator<std::pair<unsigned long const ,CustomSoundData *> >,0> >::erase

; 1867 : 		}

  00014	c9		 leave
  00015	c3		 ret	 0
?_Tidy@?$_Tree@V?$_Tmap_traits@KPAVCustomSoundData@@U?$less@K@std@@V?$allocator@U?$pair@$$CBKPAVCustomSoundData@@@std@@@3@$0A@@std@@@std@@IAEXXZ ENDP ; std::_Tree<std::_Tmap_traits<unsigned long,CustomSoundData *,std::less<unsigned long>,std::allocator<std::pair<unsigned long const ,CustomSoundData *> >,0> >::_Tidy
_TEXT	ENDS
PUBLIC	?_Destroy@?$vector@VioHashString@@V?$allocator@VioHashString@@@std@@@std@@IAEXPAVioHashString@@0@Z ; std::vector<ioHashString,std::allocator<ioHashString> >::_Destroy
; Function compile flags: /Ogsp
; File c:\program files (x86)\microsoft visual studio 10.0\vc\include\vector
;	COMDAT ?_Destroy@?$vector@VioHashString@@V?$allocator@VioHashString@@@std@@@std@@IAEXPAVioHashString@@0@Z
_TEXT	SEGMENT
__First$ = 8						; size = 4
__Last$ = 12						; size = 4
?_Destroy@?$vector@VioHashString@@V?$allocator@VioHashString@@@std@@@std@@IAEXPAVioHashString@@0@Z PROC ; std::vector<ioHashString,std::allocator<ioHashString> >::_Destroy, COMDAT
; _this$ = ecx

; 1269 : 		{	// destroy [_First, _Last) using allocator

  00000	55		 push	 ebp
  00001	8b ec		 mov	 ebp, esp
  00003	56		 push	 esi

; 1270 : 		_Destroy_range(_First, _Last, this->_Alval);

  00004	8b 75 08	 mov	 esi, DWORD PTR __First$[ebp]
  00007	eb 0b		 jmp	 SHORT $LN23@Destroy
$LL9@Destroy:
  00009	8b ce		 mov	 ecx, esi
  0000b	ff 15 00 00 00
	00		 call	 DWORD PTR __imp_??1ioHashString@@QAE@XZ
  00011	83 c6 10	 add	 esi, 16			; 00000010H
$LN23@Destroy:
  00014	3b 75 0c	 cmp	 esi, DWORD PTR __Last$[ebp]
  00017	75 f0		 jne	 SHORT $LL9@Destroy
  00019	5e		 pop	 esi

; 1271 : 		}

  0001a	5d		 pop	 ebp
  0001b	c2 08 00	 ret	 8
?_Destroy@?$vector@VioHashString@@V?$allocator@VioHashString@@@std@@@std@@IAEXPAVioHashString@@0@Z ENDP ; std::vector<ioHashString,std::allocator<ioHashString> >::_Destroy
_TEXT	ENDS
PUBLIC	??_7CustomSoundData@@6B@			; CustomSoundData::`vftable'
PUBLIC	??0CustomSoundData@@QAE@XZ			; CustomSoundData::CustomSoundData
PUBLIC	??_R4CustomSoundData@@6B@			; CustomSoundData::`RTTI Complete Object Locator'
PUBLIC	??_R0?AVCustomSoundData@@@8			; CustomSoundData `RTTI Type Descriptor'
PUBLIC	??_R3CustomSoundData@@8				; CustomSoundData::`RTTI Class Hierarchy Descriptor'
PUBLIC	??_R2CustomSoundData@@8				; CustomSoundData::`RTTI Base Class Array'
PUBLIC	??_R1A@?0A@EA@CustomSoundData@@8		; CustomSoundData::`RTTI Base Class Descriptor at (0,-1,0,64)'
EXTRN	__imp_??0ioHashString@@QAE@XZ:PROC
EXTRN	??_ECustomSoundData@@UAEPAXI@Z:PROC		; CustomSoundData::`vector deleting destructor'
;	COMDAT ??_R1A@?0A@EA@CustomSoundData@@8
; File c:\program files (x86)\microsoft visual studio 10.0\vc\include\xmemory
rdata$r	SEGMENT
??_R1A@?0A@EA@CustomSoundData@@8 DD FLAT:??_R0?AVCustomSoundData@@@8 ; CustomSoundData::`RTTI Base Class Descriptor at (0,-1,0,64)'
	DD	00H
	DD	00H
	DD	0ffffffffH
	DD	00H
	DD	040H
	DD	FLAT:??_R3CustomSoundData@@8
rdata$r	ENDS
;	COMDAT ??_R2CustomSoundData@@8
rdata$r	SEGMENT
??_R2CustomSoundData@@8 DD FLAT:??_R1A@?0A@EA@CustomSoundData@@8 ; CustomSoundData::`RTTI Base Class Array'
rdata$r	ENDS
;	COMDAT ??_R3CustomSoundData@@8
rdata$r	SEGMENT
??_R3CustomSoundData@@8 DD 00H				; CustomSoundData::`RTTI Class Hierarchy Descriptor'
	DD	00H
	DD	01H
	DD	FLAT:??_R2CustomSoundData@@8
rdata$r	ENDS
;	COMDAT ??_R0?AVCustomSoundData@@@8
_DATA	SEGMENT
??_R0?AVCustomSoundData@@@8 DD FLAT:??_7type_info@@6B@	; CustomSoundData `RTTI Type Descriptor'
	DD	00H
	DB	'.?AVCustomSoundData@@', 00H
_DATA	ENDS
;	COMDAT ??_R4CustomSoundData@@6B@
rdata$r	SEGMENT
??_R4CustomSoundData@@6B@ DD 00H			; CustomSoundData::`RTTI Complete Object Locator'
	DD	00H
	DD	00H
	DD	FLAT:??_R0?AVCustomSoundData@@@8
	DD	FLAT:??_R3CustomSoundData@@8
rdata$r	ENDS
;	COMDAT ??_7CustomSoundData@@6B@
CONST	SEGMENT
??_7CustomSoundData@@6B@ DD FLAT:??_R4CustomSoundData@@6B@ ; CustomSoundData::`vftable'
	DD	FLAT:??_ECustomSoundData@@UAEPAXI@Z
CONST	ENDS
;	COMDAT xdata$x
xdata$x	SEGMENT
__unwindtable$??0CustomSoundData@@QAE@XZ DD 0ffffffffH
	DD	FLAT:__unwindfunclet$??0CustomSoundData@@QAE@XZ$0
__ehfuncinfo$??0CustomSoundData@@QAE@XZ DD 019930522H
	DD	01H
	DD	FLAT:__unwindtable$??0CustomSoundData@@QAE@XZ
	DD	2 DUP(00H)
	DD	2 DUP(00H)
	DD	00H
	DD	01H
; Function compile flags: /Ogsp
; File d:\lost saga for developer\youtube\tutorial\source\src\lsclient\iocustomsoundmgr.cpp
xdata$x	ENDS
;	COMDAT ??0CustomSoundData@@QAE@XZ
_TEXT	SEGMENT
_this$ = -16						; size = 4
__$EHRec$ = -12						; size = 12
??0CustomSoundData@@QAE@XZ PROC				; CustomSoundData::CustomSoundData, COMDAT
; _this$ = ecx

; 10   : {

  00000	6a 04		 push	 4
  00002	b8 00 00 00 00	 mov	 eax, __ehhandler$??0CustomSoundData@@QAE@XZ
  00007	e8 00 00 00 00	 call	 __EH_prolog3
  0000c	8b f1		 mov	 esi, ecx
  0000e	89 75 f0	 mov	 DWORD PTR _this$[ebp], esi
  00011	8b 3d 00 00 00
	00		 mov	 edi, DWORD PTR __imp_??0ioHashString@@QAE@XZ
  00017	8d 4e 10	 lea	 ecx, DWORD PTR [esi+16]
  0001a	c7 06 00 00 00
	00		 mov	 DWORD PTR [esi], OFFSET ??_7CustomSoundData@@6B@
  00020	ff d7		 call	 edi
  00022	33 db		 xor	 ebx, ebx
  00024	8d 4e 20	 lea	 ecx, DWORD PTR [esi+32]
  00027	89 5d fc	 mov	 DWORD PTR __$EHRec$[ebp+8], ebx
  0002a	ff d7		 call	 edi
  0002c	89 5e 30	 mov	 DWORD PTR [esi+48], ebx
  0002f	89 5e 34	 mov	 DWORD PTR [esi+52], ebx
  00032	89 5e 38	 mov	 DWORD PTR [esi+56], ebx

; 11   : 	m_pData        = NULL;

  00035	89 5e 04	 mov	 DWORD PTR [esi+4], ebx

; 12   : 	m_dwSize       = 0;

  00038	89 5e 08	 mov	 DWORD PTR [esi+8], ebx

; 13   : 	m_dwUnpacFileCRC = 0;

  0003b	89 5e 0c	 mov	 DWORD PTR [esi+12], ebx

; 14   : }

  0003e	8b c6		 mov	 eax, esi
  00040	e8 00 00 00 00	 call	 __EH_epilog3
  00045	c3		 ret	 0
_TEXT	ENDS
;	COMDAT text$x
text$x	SEGMENT
__unwindfunclet$??0CustomSoundData@@QAE@XZ$0:
  00000	8b 4d f0	 mov	 ecx, DWORD PTR _this$[ebp]
  00003	83 c1 10	 add	 ecx, 16			; 00000010H
  00006	ff 25 00 00 00
	00		 jmp	 DWORD PTR __imp_??1ioHashString@@QAE@XZ
__ehhandler$??0CustomSoundData@@QAE@XZ:
  0000c	8b 54 24 08	 mov	 edx, DWORD PTR [esp+8]
  00010	8d 42 0c	 lea	 eax, DWORD PTR [edx+12]
  00013	8b 4a ec	 mov	 ecx, DWORD PTR [edx-20]
  00016	33 c8		 xor	 ecx, eax
  00018	e8 00 00 00 00	 call	 @__security_check_cookie@4
  0001d	b8 00 00 00 00	 mov	 eax, OFFSET __ehfuncinfo$??0CustomSoundData@@QAE@XZ
  00022	e9 00 00 00 00	 jmp	 ___CxxFrameHandler3
text$x	ENDS
??0CustomSoundData@@QAE@XZ ENDP				; CustomSoundData::CustomSoundData
PUBLIC	?DeleteNetworkInfo@CustomSoundData@@QAEXK@Z	; CustomSoundData::DeleteNetworkInfo
; Function compile flags: /Ogsp
;	COMDAT ?DeleteNetworkInfo@CustomSoundData@@QAEXK@Z
_TEXT	SEGMENT
$T518497 = 8						; size = 4
_dwUserIndex$ = 8					; size = 4
?DeleteNetworkInfo@CustomSoundData@@QAEXK@Z PROC	; CustomSoundData::DeleteNetworkInfo, COMDAT
; _this$ = ecx

; 87   : {

  00000	55		 push	 ebp
  00001	8b ec		 mov	 ebp, esp
  00003	8b c1		 mov	 eax, ecx

; 88   : 	for(NetworkInfoList::iterator iter = m_vNetworkInfoList.begin(); iter != m_vNetworkInfoList.end(); ++iter)

  00005	8d 48 30	 lea	 ecx, DWORD PTR [eax+48]
  00008	8b 11		 mov	 edx, DWORD PTR [ecx]
  0000a	8b 40 34	 mov	 eax, DWORD PTR [eax+52]
  0000d	3b d0		 cmp	 edx, eax
  0000f	74 1c		 je	 SHORT $LN2@DeleteNetw
  00011	56		 push	 esi
$LL17@DeleteNetw:

; 89   : 	{
; 90   : 		NetworkInfo &rInfo = *iter;
; 91   : 		if( rInfo.m_dwUserIndex == dwUserIndex )

  00012	8b 32		 mov	 esi, DWORD PTR [edx]
  00014	3b 75 08	 cmp	 esi, DWORD PTR _dwUserIndex$[ebp]
  00017	74 09		 je	 SHORT $LN38@DeleteNetw

; 88   : 	for(NetworkInfoList::iterator iter = m_vNetworkInfoList.begin(); iter != m_vNetworkInfoList.end(); ++iter)

  00019	83 c2 08	 add	 edx, 8
  0001c	3b d0		 cmp	 edx, eax
  0001e	75 f2		 jne	 SHORT $LL17@DeleteNetw

; 89   : 	{
; 90   : 		NetworkInfo &rInfo = *iter;
; 91   : 		if( rInfo.m_dwUserIndex == dwUserIndex )

  00020	eb 0a		 jmp	 SHORT $LN40@DeleteNetw
$LN38@DeleteNetw:

; 92   : 		{
; 93   : 			m_vNetworkInfoList.erase( iter );

  00022	52		 push	 edx
  00023	8d 45 08	 lea	 eax, DWORD PTR $T518497[ebp]
  00026	50		 push	 eax
  00027	e8 00 00 00 00	 call	 ?erase@?$vector@UtagNetworkInfo@CustomSoundData@@V?$allocator@UtagNetworkInfo@CustomSoundData@@@std@@@std@@QAE?AV?$_Vector_iterator@V?$_Vector_val@UtagNetworkInfo@CustomSoundData@@V?$allocator@UtagNetworkInfo@CustomSoundData@@@std@@@std@@@2@V?$_Vector_const_iterator@V?$_Vector_val@UtagNetworkInfo@CustomSoundData@@V?$allocator@UtagNetworkInfo@CustomSoundData@@@std@@@std@@@2@@Z ; std::vector<CustomSoundData::tagNetworkInfo,std::allocator<CustomSoundData::tagNetworkInfo> >::erase
$LN40@DeleteNetw:
  0002c	5e		 pop	 esi
$LN2@DeleteNetw:

; 94   : 			return;
; 95   : 		}
; 96   : 	}
; 97   : }

  0002d	5d		 pop	 ebp
  0002e	c2 04 00	 ret	 4
?DeleteNetworkInfo@CustomSoundData@@QAEXK@Z ENDP	; CustomSoundData::DeleteNetworkInfo
_TEXT	ENDS
PUBLIC	?CheckAndDeleteNetworkInfo@CustomSoundData@@QAEXXZ ; CustomSoundData::CheckAndDeleteNetworkInfo
; Function compile flags: /Ogsp
;	COMDAT ?CheckAndDeleteNetworkInfo@CustomSoundData@@QAEXXZ
_TEXT	SEGMENT
$T518587 = -4						; size = 4
?CheckAndDeleteNetworkInfo@CustomSoundData@@QAEXXZ PROC	; CustomSoundData::CheckAndDeleteNetworkInfo, COMDAT
; _this$ = ecx

; 122  : {

  00000	55		 push	 ebp
  00001	8b ec		 mov	 ebp, esp
  00003	51		 push	 ecx
  00004	56		 push	 esi
  00005	8b f1		 mov	 esi, ecx

; 123  : 	NetworkInfoList::iterator iter = m_vNetworkInfoList.begin();

  00007	8b 46 30	 mov	 eax, DWORD PTR [esi+48]
  0000a	57		 push	 edi
  0000b	eb 1c		 jmp	 SHORT $LN38@CheckAndDe
$LL4@CheckAndDe:

; 125  : 	{
; 126  : 		NetworkInfo &rInfo = *iter;
; 127  : 		if( rInfo.m_dwDataPos < m_dwSize )

  0000d	8b 48 04	 mov	 ecx, DWORD PTR [eax+4]
  00010	3b 4e 08	 cmp	 ecx, DWORD PTR [esi+8]
  00013	73 05		 jae	 SHORT $LN2@CheckAndDe

; 128  : 		{
; 129  : 			++iter;

  00015	83 c0 08	 add	 eax, 8

; 130  : 		}
; 131  : 		else

  00018	eb 0f		 jmp	 SHORT $LN38@CheckAndDe
$LN2@CheckAndDe:

; 132  : 		{
; 133  : 			iter = m_vNetworkInfoList.erase( iter );

  0001a	50		 push	 eax
  0001b	8d 45 fc	 lea	 eax, DWORD PTR $T518587[ebp]
  0001e	50		 push	 eax
  0001f	8d 4e 30	 lea	 ecx, DWORD PTR [esi+48]
  00022	e8 00 00 00 00	 call	 ?erase@?$vector@UtagNetworkInfo@CustomSoundData@@V?$allocator@UtagNetworkInfo@CustomSoundData@@@std@@@std@@QAE?AV?$_Vector_iterator@V?$_Vector_val@UtagNetworkInfo@CustomSoundData@@V?$allocator@UtagNetworkInfo@CustomSoundData@@@std@@@std@@@2@V?$_Vector_const_iterator@V?$_Vector_val@UtagNetworkInfo@CustomSoundData@@V?$allocator@UtagNetworkInfo@CustomSoundData@@@std@@@std@@@2@@Z ; std::vector<CustomSoundData::tagNetworkInfo,std::allocator<CustomSoundData::tagNetworkInfo> >::erase
  00027	8b 00		 mov	 eax, DWORD PTR [eax]
$LN38@CheckAndDe:

; 124  : 	while ( iter != m_vNetworkInfoList.end() )

  00029	3b 46 34	 cmp	 eax, DWORD PTR [esi+52]
  0002c	75 df		 jne	 SHORT $LL4@CheckAndDe
  0002e	5f		 pop	 edi
  0002f	5e		 pop	 esi

; 134  : 		}
; 135  : 	}
; 136  : }

  00030	c9		 leave
  00031	c3		 ret	 0
?CheckAndDeleteNetworkInfo@CustomSoundData@@QAEXXZ ENDP	; CustomSoundData::CheckAndDeleteNetworkInfo
_TEXT	ENDS
PUBLIC	?CustomSoundLoop@ioCustomSoundMgr@@QAEXXZ	; ioCustomSoundMgr::CustomSoundLoop
; Function compile flags: /Ogsp
;	COMDAT ?CustomSoundLoop@ioCustomSoundMgr@@QAEXXZ
_TEXT	SEGMENT
_iter$ = -4						; size = 4
?CustomSoundLoop@ioCustomSoundMgr@@QAEXXZ PROC		; ioCustomSoundMgr::CustomSoundLoop, COMDAT
; _this$ = ecx

; 227  : {

  00000	55		 push	 ebp
  00001	8b ec		 mov	 ebp, esp
  00003	51		 push	 ecx
  00004	56		 push	 esi
  00005	8b f1		 mov	 esi, ecx

; 228  : 	if( m_vCustomSoundInfoList.empty() )

  00007	8b 46 04	 mov	 eax, DWORD PTR [esi+4]
  0000a	3b 46 08	 cmp	 eax, DWORD PTR [esi+8]
  0000d	74 50		 je	 SHORT $LN2@CustomSoun

; 229  : 		return;
; 230  : 
; 231  : 	if( m_vCustomSoundInfoList[0]->m_dwUserIndex != g_MyInfo.GetUserIndex() )

  0000f	57		 push	 edi
  00010	8b f8		 mov	 edi, eax
  00012	e8 00 00 00 00	 call	 ?GetSingleton@ioMyInfo@@SAAAV1@XZ ; ioMyInfo::GetSingleton
  00017	8b 0f		 mov	 ecx, DWORD PTR [edi]
  00019	8b 09		 mov	 ecx, DWORD PTR [ecx]
  0001b	3b 48 08	 cmp	 ecx, DWORD PTR [eax+8]
  0001e	75 3e		 jne	 SHORT $LN69@CustomSoun

; 232  : 		return;
; 233  : 
; 234  : 	CustomSoundDataMap::iterator iter = m_vCustomSoundInfoList[0]->m_CustomSoundDataMap.begin();

  00020	8b 46 04	 mov	 eax, DWORD PTR [esi+4]
  00023	8b 00		 mov	 eax, DWORD PTR [eax]
  00025	8b 48 18	 mov	 ecx, DWORD PTR [eax+24]
  00028	8b 01		 mov	 eax, DWORD PTR [ecx]
  0002a	89 45 fc	 mov	 DWORD PTR _iter$[ebp], eax

; 235  : 	for(; iter != m_vCustomSoundInfoList[0]->m_CustomSoundDataMap.end(); ++iter)

  0002d	3b c1		 cmp	 eax, ecx
  0002f	74 2d		 je	 SHORT $LN69@CustomSoun
$LL33@CustomSoun:

; 236  : 	{
; 237  : 		CustomSoundData *pData = iter->second;

  00031	8b 78 10	 mov	 edi, DWORD PTR [eax+16]

; 238  : 		if( !pData )

  00034	85 ff		 test	 edi, edi
  00036	74 11		 je	 SHORT $LN3@CustomSoun

; 239  : 			continue;
; 240  : 		pData->SendDataToAll( iter->first );

  00038	ff 70 0c	 push	 DWORD PTR [eax+12]
  0003b	8b cf		 mov	 ecx, edi
  0003d	e8 00 00 00 00	 call	 ?SendDataToAll@CustomSoundData@@QAEXK@Z ; CustomSoundData::SendDataToAll

; 241  : 		pData->CheckAndDeleteNetworkInfo();

  00042	8b cf		 mov	 ecx, edi
  00044	e8 00 00 00 00	 call	 ?CheckAndDeleteNetworkInfo@CustomSoundData@@QAEXXZ ; CustomSoundData::CheckAndDeleteNetworkInfo
$LN3@CustomSoun:

; 235  : 	for(; iter != m_vCustomSoundInfoList[0]->m_CustomSoundDataMap.end(); ++iter)

  00049	8d 4d fc	 lea	 ecx, DWORD PTR _iter$[ebp]
  0004c	e8 00 00 00 00	 call	 ??E?$_Tree_unchecked_const_iterator@V?$_Tree_val@V?$_Tmap_traits@KPAVCustomSoundData@@U?$less@K@std@@V?$allocator@U?$pair@$$CBKPAVCustomSoundData@@@std@@@3@$0A@@std@@@std@@U_Iterator_base0@2@@std@@QAEAAV01@XZ ; std::_Tree_unchecked_const_iterator<std::_Tree_val<std::_Tmap_traits<unsigned long,CustomSoundData *,std::less<unsigned long>,std::allocator<std::pair<unsigned long const ,CustomSoundData *> >,0> >,std::_Iterator_base0>::operator++
  00051	8b 46 04	 mov	 eax, DWORD PTR [esi+4]
  00054	8b 08		 mov	 ecx, DWORD PTR [eax]
  00056	8b 45 fc	 mov	 eax, DWORD PTR _iter$[ebp]
  00059	3b 41 18	 cmp	 eax, DWORD PTR [ecx+24]
  0005c	75 d3		 jne	 SHORT $LL33@CustomSoun
$LN69@CustomSoun:
  0005e	5f		 pop	 edi
$LN2@CustomSoun:
  0005f	5e		 pop	 esi

; 242  : 	}
; 243  : }

  00060	c9		 leave
  00061	c3		 ret	 0
?CustomSoundLoop@ioCustomSoundMgr@@QAEXXZ ENDP		; ioCustomSoundMgr::CustomSoundLoop
_TEXT	ENDS
PUBLIC	?erase@?$vector@VioHashString@@V?$allocator@VioHashString@@@std@@@std@@QAE?AV?$_Vector_iterator@V?$_Vector_val@VioHashString@@V?$allocator@VioHashString@@@std@@@std@@@2@V?$_Vector_const_iterator@V?$_Vector_val@VioHashString@@V?$allocator@VioHashString@@@std@@@std@@@2@@Z ; std::vector<ioHashString,std::allocator<ioHashString> >::erase
; Function compile flags: /Ogsp
; File c:\program files (x86)\microsoft visual studio 10.0\vc\include\vector
;	COMDAT ?erase@?$vector@VioHashString@@V?$allocator@VioHashString@@@std@@@std@@QAE?AV?$_Vector_iterator@V?$_Vector_val@VioHashString@@V?$allocator@VioHashString@@@std@@@std@@@2@V?$_Vector_const_iterator@V?$_Vector_val@VioHashString@@V?$allocator@VioHashString@@@std@@@std@@@2@@Z
_TEXT	SEGMENT
___$ReturnUdt$ = 8					; size = 4
__Cat$518858 = 12					; size = 1
__Where$ = 12						; size = 4
?erase@?$vector@VioHashString@@V?$allocator@VioHashString@@@std@@@std@@QAE?AV?$_Vector_iterator@V?$_Vector_val@VioHashString@@V?$allocator@VioHashString@@@std@@@std@@@2@V?$_Vector_const_iterator@V?$_Vector_val@VioHashString@@V?$allocator@VioHashString@@@std@@@std@@@2@@Z PROC ; std::vector<ioHashString,std::allocator<ioHashString> >::erase, COMDAT
; _this$ = ecx

; 1179 : 		{	// erase element at where

  00000	55		 push	 ebp
  00001	8b ec		 mov	 ebp, esp

; 1180 : 		_Move(_VIPTR(_Where) + 1, this->_Mylast,
; 1181 : 			_VIPTR(_Where));

  00003	8b 45 0c	 mov	 eax, DWORD PTR __Where$[ebp]
  00006	53		 push	 ebx
  00007	56		 push	 esi
  00008	57		 push	 edi
  00009	ff 75 0c	 push	 DWORD PTR __Cat$518858[ebp]
  0000c	8b f1		 mov	 esi, ecx
  0000e	50		 push	 eax
  0000f	ff 76 04	 push	 DWORD PTR [esi+4]
  00012	83 c0 10	 add	 eax, 16			; 00000010H
  00015	50		 push	 eax
  00016	e8 00 00 00 00	 call	 ??$_Move@PAVioHashString@@PAV1@@std@@YAPAVioHashString@@PAV1@00U_Nonscalar_ptr_iterator_tag@0@@Z ; std::_Move<ioHashString *,ioHashString *>

; 1182 : 		_Destroy(this->_Mylast - 1, this->_Mylast);

  0001b	8b 7e 04	 mov	 edi, DWORD PTR [esi+4]
  0001e	83 c4 10	 add	 esp, 16			; 00000010H
  00021	8d 5f f0	 lea	 ebx, DWORD PTR [edi-16]
  00024	eb 0b		 jmp	 SHORT $LN37@erase@5
$LL15@erase@5:
  00026	8b cb		 mov	 ecx, ebx
  00028	ff 15 00 00 00
	00		 call	 DWORD PTR __imp_??1ioHashString@@QAE@XZ
  0002e	83 c3 10	 add	 ebx, 16			; 00000010H
$LN37@erase@5:
  00031	3b df		 cmp	 ebx, edi
  00033	75 f1		 jne	 SHORT $LL15@erase@5

; 1183 : 		--this->_Mylast;

  00035	83 46 04 f0	 add	 DWORD PTR [esi+4], -16	; fffffff0H

; 1184 : 		return (_Make_iter(_Where));

  00039	8b 45 08	 mov	 eax, DWORD PTR ___$ReturnUdt$[ebp]
  0003c	8b 4d 0c	 mov	 ecx, DWORD PTR __Where$[ebp]
  0003f	5f		 pop	 edi
  00040	5e		 pop	 esi
  00041	89 08		 mov	 DWORD PTR [eax], ecx
  00043	5b		 pop	 ebx

; 1185 : 		}

  00044	5d		 pop	 ebp
  00045	c2 08 00	 ret	 8
?erase@?$vector@VioHashString@@V?$allocator@VioHashString@@@std@@@std@@QAE?AV?$_Vector_iterator@V?$_Vector_val@VioHashString@@V?$allocator@VioHashString@@@std@@@std@@@2@V?$_Vector_const_iterator@V?$_Vector_val@VioHashString@@V?$allocator@VioHashString@@@std@@@std@@@2@@Z ENDP ; std::vector<ioHashString,std::allocator<ioHashString> >::erase
_TEXT	ENDS
PUBLIC	?clear@?$vector@UtagNetworkInfo@CustomSoundData@@V?$allocator@UtagNetworkInfo@CustomSoundData@@@std@@@std@@QAEXXZ ; std::vector<CustomSoundData::tagNetworkInfo,std::allocator<CustomSoundData::tagNetworkInfo> >::clear
; Function compile flags: /Ogsp
;	COMDAT ?clear@?$vector@UtagNetworkInfo@CustomSoundData@@V?$allocator@UtagNetworkInfo@CustomSoundData@@@std@@@std@@QAEXXZ
_TEXT	SEGMENT
$T518990 = -4						; size = 4
?clear@?$vector@UtagNetworkInfo@CustomSoundData@@V?$allocator@UtagNetworkInfo@CustomSoundData@@@std@@@std@@QAEXXZ PROC ; std::vector<CustomSoundData::tagNetworkInfo,std::allocator<CustomSoundData::tagNetworkInfo> >::clear, COMDAT
; _this$ = ecx

; 1217 : 		{	// erase all

  00000	55		 push	 ebp
  00001	8b ec		 mov	 ebp, esp
  00003	51		 push	 ecx

; 1218 : 		erase(begin(), end());

  00004	8b 41 04	 mov	 eax, DWORD PTR [ecx+4]
  00007	8b 11		 mov	 edx, DWORD PTR [ecx]
  00009	50		 push	 eax
  0000a	52		 push	 edx
  0000b	8d 45 fc	 lea	 eax, DWORD PTR $T518990[ebp]
  0000e	50		 push	 eax
  0000f	e8 00 00 00 00	 call	 ?erase@?$vector@UtagNetworkInfo@CustomSoundData@@V?$allocator@UtagNetworkInfo@CustomSoundData@@@std@@@std@@QAE?AV?$_Vector_iterator@V?$_Vector_val@UtagNetworkInfo@CustomSoundData@@V?$allocator@UtagNetworkInfo@CustomSoundData@@@std@@@std@@@2@V?$_Vector_const_iterator@V?$_Vector_val@UtagNetworkInfo@CustomSoundData@@V?$allocator@UtagNetworkInfo@CustomSoundData@@@std@@@std@@@2@0@Z ; std::vector<CustomSoundData::tagNetworkInfo,std::allocator<CustomSoundData::tagNetworkInfo> >::erase

; 1219 : 		}

  00014	c9		 leave
  00015	c3		 ret	 0
?clear@?$vector@UtagNetworkInfo@CustomSoundData@@V?$allocator@UtagNetworkInfo@CustomSoundData@@@std@@@std@@QAEXXZ ENDP ; std::vector<CustomSoundData::tagNetworkInfo,std::allocator<CustomSoundData::tagNetworkInfo> >::clear
_TEXT	ENDS
PUBLIC	?_Reserve@?$vector@UtagNetworkInfo@CustomSoundData@@V?$allocator@UtagNetworkInfo@CustomSoundData@@@std@@@std@@IAEXI@Z ; std::vector<CustomSoundData::tagNetworkInfo,std::allocator<CustomSoundData::tagNetworkInfo> >::_Reserve
; Function compile flags: /Ogsp
;	COMDAT ?_Reserve@?$vector@UtagNetworkInfo@CustomSoundData@@V?$allocator@UtagNetworkInfo@CustomSoundData@@@std@@@std@@IAEXI@Z
_TEXT	SEGMENT
__Count$ = 8						; size = 4
?_Reserve@?$vector@UtagNetworkInfo@CustomSoundData@@V?$allocator@UtagNetworkInfo@CustomSoundData@@@std@@@std@@IAEXI@Z PROC ; std::vector<CustomSoundData::tagNetworkInfo,std::allocator<CustomSoundData::tagNetworkInfo> >::_Reserve, COMDAT
; _this$ = ecx

; 1290 : 		{	// ensure room for _Count new elements, grow exponentially

  00000	55		 push	 ebp
  00001	8b ec		 mov	 ebp, esp
  00003	56		 push	 esi
  00004	8b f1		 mov	 esi, ecx

; 1291 : 		size_type _Size = size();

  00006	8b 0e		 mov	 ecx, DWORD PTR [esi]
  00008	8b 46 04	 mov	 eax, DWORD PTR [esi+4]
  0000b	2b c1		 sub	 eax, ecx

; 1292 : 		if (max_size() - _Count < _Size)

  0000d	ba ff ff ff 1f	 mov	 edx, 536870911		; 1fffffffH
  00012	2b 55 08	 sub	 edx, DWORD PTR __Count$[ebp]
  00015	c1 f8 03	 sar	 eax, 3
  00018	3b d0		 cmp	 edx, eax
  0001a	73 0b		 jae	 SHORT $LN4@Reserve@2

; 1293 : 			_Xlen();

  0001c	68 00 00 00 00	 push	 OFFSET ??_C@_0BD@OLBABOEK@vector?$DMT?$DO?5too?5long?$AA@
  00021	ff 15 00 00 00
	00		 call	 DWORD PTR __imp_?_Xlength_error@std@@YAXPBD@Z
$LN21@Reserve@2:
$LN4@Reserve@2:

; 1294 : 		else if ((_Size += _Count) <= capacity())

  00027	8b 56 08	 mov	 edx, DWORD PTR [esi+8]
  0002a	03 45 08	 add	 eax, DWORD PTR __Count$[ebp]
  0002d	2b d1		 sub	 edx, ecx
  0002f	c1 fa 03	 sar	 edx, 3
  00032	3b c2		 cmp	 eax, edx
  00034	76 10		 jbe	 SHORT $LN1@Reserve@2

; 1295 : 			;
; 1296 : 		else
; 1297 : 			reserve(_Grow_to(_Size));

  00036	50		 push	 eax
  00037	8b ce		 mov	 ecx, esi
  00039	e8 00 00 00 00	 call	 ?_Grow_to@?$vector@UtagNetworkInfo@CustomSoundData@@V?$allocator@UtagNetworkInfo@CustomSoundData@@@std@@@std@@IBEII@Z ; std::vector<CustomSoundData::tagNetworkInfo,std::allocator<CustomSoundData::tagNetworkInfo> >::_Grow_to
  0003e	50		 push	 eax
  0003f	8b ce		 mov	 ecx, esi
  00041	e8 00 00 00 00	 call	 ?reserve@?$vector@UtagNetworkInfo@CustomSoundData@@V?$allocator@UtagNetworkInfo@CustomSoundData@@@std@@@std@@QAEXI@Z ; std::vector<CustomSoundData::tagNetworkInfo,std::allocator<CustomSoundData::tagNetworkInfo> >::reserve
$LN1@Reserve@2:
  00046	5e		 pop	 esi

; 1298 : 		}

  00047	5d		 pop	 ebp
  00048	c2 04 00	 ret	 4
$LN20@Reserve@2:
?_Reserve@?$vector@UtagNetworkInfo@CustomSoundData@@V?$allocator@UtagNetworkInfo@CustomSoundData@@@std@@@std@@IAEXI@Z ENDP ; std::vector<CustomSoundData::tagNetworkInfo,std::allocator<CustomSoundData::tagNetworkInfo> >::_Reserve
_TEXT	ENDS
PUBLIC	?reserve@?$vector@VioHashString@@V?$allocator@VioHashString@@@std@@@std@@QAEXI@Z ; std::vector<ioHashString,std::allocator<ioHashString> >::reserve
;	COMDAT xdata$x
; File c:\program files (x86)\microsoft visual studio 10.0\vc\include\xmemory
xdata$x	SEGMENT
__catchsym$?reserve@?$vector@VioHashString@@V?$allocator@VioHashString@@@std@@@std@@QAEXI@Z$2 DD 040H
	DD	00H
	DD	00H
	DD	FLAT:__catch$?reserve@?$vector@VioHashString@@V?$allocator@VioHashString@@@std@@@std@@QAEXI@Z$0
__unwindtable$?reserve@?$vector@VioHashString@@V?$allocator@VioHashString@@@std@@@std@@QAEXI@Z DD 0ffffffffH
	DD	00H
	DD	0ffffffffH
	DD	00H
__tryblocktable$?reserve@?$vector@VioHashString@@V?$allocator@VioHashString@@@std@@@std@@QAEXI@Z DD 00H
	DD	00H
	DD	01H
	DD	01H
	DD	FLAT:__catchsym$?reserve@?$vector@VioHashString@@V?$allocator@VioHashString@@@std@@@std@@QAEXI@Z$2
__ehfuncinfo$?reserve@?$vector@VioHashString@@V?$allocator@VioHashString@@@std@@@std@@QAEXI@Z DD 019930522H
	DD	02H
	DD	FLAT:__unwindtable$?reserve@?$vector@VioHashString@@V?$allocator@VioHashString@@@std@@@std@@QAEXI@Z
	DD	01H
	DD	FLAT:__tryblocktable$?reserve@?$vector@VioHashString@@V?$allocator@VioHashString@@@std@@@std@@QAEXI@Z
	DD	2 DUP(00H)
	DD	00H
	DD	01H
; Function compile flags: /Ogsp
; File c:\program files (x86)\microsoft visual studio 10.0\vc\include\vector
xdata$x	ENDS
;	COMDAT ?reserve@?$vector@VioHashString@@V?$allocator@VioHashString@@@std@@@std@@QAEXI@Z
_TEXT	SEGMENT
tv300 = -24						; size = 4
__Ptr$507827 = -20					; size = 4
__$EHRec$ = -16						; size = 16
$T519164 = 8						; size = 4
__Count$ = 8						; size = 4
?reserve@?$vector@VioHashString@@V?$allocator@VioHashString@@@std@@@std@@QAEXI@Z PROC ; std::vector<ioHashString,std::allocator<ioHashString> >::reserve, COMDAT
; _this$ = ecx

; 746  : 		{	// determine new minimum length of allocated storage

  00000	6a 0c		 push	 12			; 0000000cH
  00002	b8 00 00 00 00	 mov	 eax, __ehhandler$?reserve@?$vector@VioHashString@@V?$allocator@VioHashString@@@std@@@std@@QAEXI@Z
  00007	e8 00 00 00 00	 call	 __EH_prolog3_catch
  0000c	8b f1		 mov	 esi, ecx

; 747  : 		if (max_size() < _Count)

  0000e	8b 5d 08	 mov	 ebx, DWORD PTR __Count$[ebp]
  00011	81 fb ff ff ff
	0f		 cmp	 ebx, 268435455		; 0fffffffH
  00017	76 0b		 jbe	 SHORT $LN5@reserve@3

; 748  : 			_Xlen();	// result too long

  00019	68 00 00 00 00	 push	 OFFSET ??_C@_0BD@OLBABOEK@vector?$DMT?$DO?5too?5long?$AA@
  0001e	ff 15 00 00 00
	00		 call	 DWORD PTR __imp_?_Xlength_error@std@@YAXPBD@Z
$LN59@reserve@3:
$LN5@reserve@3:

; 749  : 		else if (capacity() < _Count)

  00024	8b 46 08	 mov	 eax, DWORD PTR [esi+8]
  00027	2b 06		 sub	 eax, DWORD PTR [esi]
  00029	c1 f8 04	 sar	 eax, 4
  0002c	3b c3		 cmp	 eax, ebx
  0002e	73 7a		 jae	 SHORT $LN3@reserve@3

; 750  : 			{	// not enough room, reallocate
; 751  : 			pointer _Ptr = this->_Alval.allocate(_Count);

  00030	6a 00		 push	 0
  00032	53		 push	 ebx
  00033	e8 00 00 00 00	 call	 ??$_Allocate@VioHashString@@@std@@YAPAVioHashString@@IPAV1@@Z ; std::_Allocate<ioHashString>

; 752  : 
; 753  : 			_TRY_BEGIN
; 754  : 			_Umove(this->_Myfirst, this->_Mylast, _Ptr);

  00038	8b 0e		 mov	 ecx, DWORD PTR [esi]
  0003a	83 65 fc 00	 and	 DWORD PTR __$EHRec$[ebp+12], 0
  0003e	8d 56 0c	 lea	 edx, DWORD PTR [esi+12]
  00041	52		 push	 edx
  00042	89 45 ec	 mov	 DWORD PTR __Ptr$507827[ebp], eax
  00045	ff 75 ec	 push	 DWORD PTR __Ptr$507827[ebp]
  00048	8b 46 04	 mov	 eax, DWORD PTR [esi+4]
  0004b	50		 push	 eax
  0004c	51		 push	 ecx
  0004d	e8 00 00 00 00	 call	 ??$_Uninitialized_move@PAVioHashString@@PAV1@V?$allocator@VioHashString@@@std@@@std@@YAPAVioHashString@@PAV1@00AAV?$allocator@VioHashString@@@0@@Z ; std::_Uninitialized_move<ioHashString *,ioHashString *,std::allocator<ioHashString> >

; 758  : 			_CATCH_END
; 759  : 
; 760  : 			size_type _Size = size();

  00052	8b 4e 04	 mov	 ecx, DWORD PTR [esi+4]
  00055	8b 06		 mov	 eax, DWORD PTR [esi]
  00057	83 4d fc ff	 or	 DWORD PTR __$EHRec$[ebp+12], -1
  0005b	8b f9		 mov	 edi, ecx
  0005d	83 c4 18	 add	 esp, 24			; 00000018H
  00060	2b f8		 sub	 edi, eax
  00062	89 4d e8	 mov	 DWORD PTR tv300[ebp], ecx
  00065	85 c0		 test	 eax, eax
  00067	74 24		 je	 SHORT $LN51@reserve@3

; 761  : 			if (this->_Myfirst != 0)
; 762  : 				{	// destroy and deallocate old array
; 763  : 				_Destroy(this->_Myfirst, this->_Mylast);

  00069	89 45 08	 mov	 DWORD PTR $T519164[ebp], eax
  0006c	3b c1		 cmp	 eax, ecx
  0006e	74 15		 je	 SHORT $LN37@reserve@3
$LN39@reserve@3:
  00070	8b 4d 08	 mov	 ecx, DWORD PTR $T519164[ebp]
  00073	ff 15 00 00 00
	00		 call	 DWORD PTR __imp_??1ioHashString@@QAE@XZ
  00079	83 45 08 10	 add	 DWORD PTR $T519164[ebp], 16 ; 00000010H
  0007d	8b 45 08	 mov	 eax, DWORD PTR $T519164[ebp]
  00080	3b 45 e8	 cmp	 eax, DWORD PTR tv300[ebp]
  00083	75 eb		 jne	 SHORT $LN39@reserve@3
$LN37@reserve@3:

; 764  : 				this->_Alval.deallocate(this->_Myfirst,
; 765  : 					this->_Myend - this->_Myfirst);

  00085	ff 36		 push	 DWORD PTR [esi]
  00087	e8 00 00 00 00	 call	 ??3@YAXPAX@Z		; operator delete
  0008c	59		 pop	 ecx
$LN51@reserve@3:

; 766  : 				}
; 767  : 
; 768  : 			this->_Orphan_all();

  0008d	8b ce		 mov	 ecx, esi
  0008f	ff 15 00 00 00
	00		 call	 DWORD PTR __imp_?_Orphan_all@_Container_base0@std@@QAEXXZ

; 769  : 			this->_Myend = _Ptr + _Count;

  00095	8b 45 ec	 mov	 eax, DWORD PTR __Ptr$507827[ebp]
  00098	c1 e3 04	 shl	 ebx, 4
  0009b	03 d8		 add	 ebx, eax

; 770  : 			this->_Mylast = _Ptr + _Size;

  0009d	83 e7 f0	 and	 edi, -16		; fffffff0H
  000a0	03 f8		 add	 edi, eax
  000a2	89 5e 08	 mov	 DWORD PTR [esi+8], ebx
  000a5	89 7e 04	 mov	 DWORD PTR [esi+4], edi

; 771  : 			this->_Myfirst = _Ptr;

  000a8	89 06		 mov	 DWORD PTR [esi], eax
$LN3@reserve@3:

; 772  : 			}
; 773  : 		}

  000aa	e8 00 00 00 00	 call	 __EH_epilog3
  000af	c2 04 00	 ret	 4
__catch$?reserve@?$vector@VioHashString@@V?$allocator@VioHashString@@@std@@@std@@QAEXI@Z$0:

; 755  : 			_CATCH_ALL
; 756  : 			this->_Alval.deallocate(_Ptr, _Count);

  000b2	ff 75 ec	 push	 DWORD PTR __Ptr$507827[ebp]
  000b5	e8 00 00 00 00	 call	 ??3@YAXPAX@Z		; operator delete
  000ba	59		 pop	 ecx

; 757  : 			_RERAISE;

  000bb	6a 00		 push	 0
  000bd	6a 00		 push	 0
  000bf	e8 00 00 00 00	 call	 __CxxThrowException@8
$LN60@reserve@3:
$LN58@reserve@3:
  000c4	cc		 int	 3
_TEXT	ENDS
;	COMDAT text$x
text$x	SEGMENT
__ehhandler$?reserve@?$vector@VioHashString@@V?$allocator@VioHashString@@@std@@@std@@QAEXI@Z:
  00000	8b 54 24 08	 mov	 edx, DWORD PTR [esp+8]
  00004	8d 42 0c	 lea	 eax, DWORD PTR [edx+12]
  00007	8b 4a e4	 mov	 ecx, DWORD PTR [edx-28]
  0000a	33 c8		 xor	 ecx, eax
  0000c	e8 00 00 00 00	 call	 @__security_check_cookie@4
  00011	b8 00 00 00 00	 mov	 eax, OFFSET __ehfuncinfo$?reserve@?$vector@VioHashString@@V?$allocator@VioHashString@@@std@@@std@@QAEXI@Z
  00016	e9 00 00 00 00	 jmp	 ___CxxFrameHandler3
text$x	ENDS
?reserve@?$vector@VioHashString@@V?$allocator@VioHashString@@@std@@@std@@QAEXI@Z ENDP ; std::vector<ioHashString,std::allocator<ioHashString> >::reserve
PUBLIC	??1?$_Tree@V?$_Tmap_traits@KPAVCustomSoundData@@U?$less@K@std@@V?$allocator@U?$pair@$$CBKPAVCustomSoundData@@@std@@@3@$0A@@std@@@std@@QAE@XZ ; std::_Tree<std::_Tmap_traits<unsigned long,CustomSoundData *,std::less<unsigned long>,std::allocator<std::pair<unsigned long const ,CustomSoundData *> >,0> >::~_Tree<std::_Tmap_traits<unsigned long,CustomSoundData *,std::less<unsigned long>,std::allocator<std::pair<unsigned long const ,CustomSoundData *> >,0> >
;	COMDAT xdata$x
; File c:\program files (x86)\microsoft visual studio 10.0\vc\include\xmemory
xdata$x	SEGMENT
__unwindtable$??1?$_Tree@V?$_Tmap_traits@KPAVCustomSoundData@@U?$less@K@std@@V?$allocator@U?$pair@$$CBKPAVCustomSoundData@@@std@@@3@$0A@@std@@@std@@QAE@XZ DD 0ffffffffH
	DD	FLAT:__unwindfunclet$??1?$_Tree@V?$_Tmap_traits@KPAVCustomSoundData@@U?$less@K@std@@V?$allocator@U?$pair@$$CBKPAVCustomSoundData@@@std@@@3@$0A@@std@@@std@@QAE@XZ$0
__ehfuncinfo$??1?$_Tree@V?$_Tmap_traits@KPAVCustomSoundData@@U?$less@K@std@@V?$allocator@U?$pair@$$CBKPAVCustomSoundData@@@std@@@3@$0A@@std@@@std@@QAE@XZ DD 019930522H
	DD	01H
	DD	FLAT:__unwindtable$??1?$_Tree@V?$_Tmap_traits@KPAVCustomSoundData@@U?$less@K@std@@V?$allocator@U?$pair@$$CBKPAVCustomSoundData@@@std@@@3@$0A@@std@@@std@@QAE@XZ
	DD	2 DUP(00H)
	DD	2 DUP(00H)
	DD	00H
	DD	01H
; Function compile flags: /Ogsp
; File c:\program files (x86)\microsoft visual studio 10.0\vc\include\xtree
xdata$x	ENDS
;	COMDAT ??1?$_Tree@V?$_Tmap_traits@KPAVCustomSoundData@@U?$less@K@std@@V?$allocator@U?$pair@$$CBKPAVCustomSoundData@@@std@@@3@$0A@@std@@@std@@QAE@XZ
_TEXT	SEGMENT
$T519328 = -20						; size = 4
_this$ = -16						; size = 4
__$EHRec$ = -12						; size = 12
??1?$_Tree@V?$_Tmap_traits@KPAVCustomSoundData@@U?$less@K@std@@V?$allocator@U?$pair@$$CBKPAVCustomSoundData@@@std@@@3@$0A@@std@@@std@@QAE@XZ PROC ; std::_Tree<std::_Tmap_traits<unsigned long,CustomSoundData *,std::less<unsigned long>,std::allocator<std::pair<unsigned long const ,CustomSoundData *> >,0> >::~_Tree<std::_Tmap_traits<unsigned long,CustomSoundData *,std::less<unsigned long>,std::allocator<std::pair<unsigned long const ,CustomSoundData *> >,0> >, COMDAT
; _this$ = ecx

; 790  : 		{	// destroy tree

  00000	6a 08		 push	 8
  00002	b8 00 00 00 00	 mov	 eax, __ehhandler$??1?$_Tree@V?$_Tmap_traits@KPAVCustomSoundData@@U?$less@K@std@@V?$allocator@U?$pair@$$CBKPAVCustomSoundData@@@std@@@3@$0A@@std@@@std@@QAE@XZ
  00007	e8 00 00 00 00	 call	 __EH_prolog3
  0000c	8b f1		 mov	 esi, ecx
  0000e	89 75 f0	 mov	 DWORD PTR _this$[ebp], esi

; 791  : 		_Tidy();

  00011	8b 46 04	 mov	 eax, DWORD PTR [esi+4]
  00014	8b 08		 mov	 ecx, DWORD PTR [eax]
  00016	83 65 fc 00	 and	 DWORD PTR __$EHRec$[ebp+8], 0
  0001a	50		 push	 eax
  0001b	51		 push	 ecx
  0001c	8d 45 ec	 lea	 eax, DWORD PTR $T519328[ebp]
  0001f	50		 push	 eax
  00020	8b ce		 mov	 ecx, esi
  00022	e8 00 00 00 00	 call	 ?erase@?$_Tree@V?$_Tmap_traits@KPAVCustomSoundData@@U?$less@K@std@@V?$allocator@U?$pair@$$CBKPAVCustomSoundData@@@std@@@3@$0A@@std@@@std@@QAE?AV?$_Tree_iterator@V?$_Tree_val@V?$_Tmap_traits@KPAVCustomSoundData@@U?$less@K@std@@V?$allocator@U?$pair@$$CBKPAVCustomSoundData@@@std@@@3@$0A@@std@@@std@@@2@V?$_Tree_const_iterator@V?$_Tree_val@V?$_Tmap_traits@KPAVCustomSoundData@@U?$less@K@std@@V?$allocator@U?$pair@$$CBKPAVCustomSoundData@@@std@@@3@$0A@@std@@@std@@@2@0@Z ; std::_Tree<std::_Tmap_traits<unsigned long,CustomSoundData *,std::less<unsigned long>,std::allocator<std::pair<unsigned long const ,CustomSoundData *> >,0> >::erase

; 792  : 		}

  00027	ff 76 04	 push	 DWORD PTR [esi+4]
  0002a	e8 00 00 00 00	 call	 ??3@YAXPAX@Z		; operator delete
  0002f	59		 pop	 ecx
  00030	e8 00 00 00 00	 call	 __EH_epilog3
  00035	c3		 ret	 0
_TEXT	ENDS
;	COMDAT text$x
text$x	SEGMENT
__unwindfunclet$??1?$_Tree@V?$_Tmap_traits@KPAVCustomSoundData@@U?$less@K@std@@V?$allocator@U?$pair@$$CBKPAVCustomSoundData@@@std@@@3@$0A@@std@@@std@@QAE@XZ$0:
  00000	8b 4d f0	 mov	 ecx, DWORD PTR _this$[ebp]
  00003	e9 00 00 00 00	 jmp	 ??1?$_Tree_val@V?$_Tmap_traits@KPAVCustomSoundData@@U?$less@K@std@@V?$allocator@U?$pair@$$CBKPAVCustomSoundData@@@std@@@3@$0A@@std@@@std@@QAE@XZ ; std::_Tree_val<std::_Tmap_traits<unsigned long,CustomSoundData *,std::less<unsigned long>,std::allocator<std::pair<unsigned long const ,CustomSoundData *> >,0> >::~_Tree_val<std::_Tmap_traits<unsigned long,CustomSoundData *,std::less<unsigned long>,std::allocator<std::pair<unsigned long const ,CustomSoundData *> >,0> >
__ehhandler$??1?$_Tree@V?$_Tmap_traits@KPAVCustomSoundData@@U?$less@K@std@@V?$allocator@U?$pair@$$CBKPAVCustomSoundData@@@std@@@3@$0A@@std@@@std@@QAE@XZ:
  00008	8b 54 24 08	 mov	 edx, DWORD PTR [esp+8]
  0000c	8d 42 0c	 lea	 eax, DWORD PTR [edx+12]
  0000f	8b 4a e8	 mov	 ecx, DWORD PTR [edx-24]
  00012	33 c8		 xor	 ecx, eax
  00014	e8 00 00 00 00	 call	 @__security_check_cookie@4
  00019	b8 00 00 00 00	 mov	 eax, OFFSET __ehfuncinfo$??1?$_Tree@V?$_Tmap_traits@KPAVCustomSoundData@@U?$less@K@std@@V?$allocator@U?$pair@$$CBKPAVCustomSoundData@@@std@@@3@$0A@@std@@@std@@QAE@XZ
  0001e	e9 00 00 00 00	 jmp	 ___CxxFrameHandler3
text$x	ENDS
??1?$_Tree@V?$_Tmap_traits@KPAVCustomSoundData@@U?$less@K@std@@V?$allocator@U?$pair@$$CBKPAVCustomSoundData@@@std@@@3@$0A@@std@@@std@@QAE@XZ ENDP ; std::_Tree<std::_Tmap_traits<unsigned long,CustomSoundData *,std::less<unsigned long>,std::allocator<std::pair<unsigned long const ,CustomSoundData *> >,0> >::~_Tree<std::_Tmap_traits<unsigned long,CustomSoundData *,std::less<unsigned long>,std::allocator<std::pair<unsigned long const ,CustomSoundData *> >,0> >
PUBLIC	?erase@?$vector@VioHashString@@V?$allocator@VioHashString@@@std@@@std@@QAE?AV?$_Vector_iterator@V?$_Vector_val@VioHashString@@V?$allocator@VioHashString@@@std@@@std@@@2@V?$_Vector_const_iterator@V?$_Vector_val@VioHashString@@V?$allocator@VioHashString@@@std@@@std@@@2@0@Z ; std::vector<ioHashString,std::allocator<ioHashString> >::erase
; Function compile flags: /Ogsp
; File c:\program files (x86)\microsoft visual studio 10.0\vc\include\vector
;	COMDAT ?erase@?$vector@VioHashString@@V?$allocator@VioHashString@@@std@@@std@@QAE?AV?$_Vector_iterator@V?$_Vector_val@VioHashString@@V?$allocator@VioHashString@@@std@@@std@@@2@V?$_Vector_const_iterator@V?$_Vector_val@VioHashString@@V?$allocator@VioHashString@@@std@@@std@@@2@0@Z
_TEXT	SEGMENT
$T519499 = -4						; size = 4
___$ReturnUdt$ = 8					; size = 4
__First_arg$ = 12					; size = 4
__Cat$519444 = 16					; size = 1
__Last_arg$ = 16					; size = 4
?erase@?$vector@VioHashString@@V?$allocator@VioHashString@@@std@@@std@@QAE?AV?$_Vector_iterator@V?$_Vector_val@VioHashString@@V?$allocator@VioHashString@@@std@@@std@@@2@V?$_Vector_const_iterator@V?$_Vector_val@VioHashString@@V?$allocator@VioHashString@@@std@@@std@@@2@0@Z PROC ; std::vector<ioHashString,std::allocator<ioHashString> >::erase, COMDAT
; _this$ = ecx

; 1190 : 		{	// erase [_First, _Last)

  00000	55		 push	 ebp
  00001	8b ec		 mov	 ebp, esp
  00003	51		 push	 ecx

; 1191 : 		iterator _First = _Make_iter(_First_arg);

  00004	8b 45 08	 mov	 eax, DWORD PTR ___$ReturnUdt$[ebp]
  00007	56		 push	 esi
  00008	8b f1		 mov	 esi, ecx
  0000a	8b 4d 0c	 mov	 ecx, DWORD PTR __First_arg$[ebp]
  0000d	89 08		 mov	 DWORD PTR [eax], ecx

; 1192 : 		iterator _Last = _Make_iter(_Last_arg);
; 1193 : 
; 1194 : 		if (_First != _Last)

  0000f	3b 4d 10	 cmp	 ecx, DWORD PTR __Last_arg$[ebp]
  00012	74 38		 je	 SHORT $LN1@erase@6

; 1195 : 			{	// worth doing, copy down over hole
; 1196 :  #if _ITERATOR_DEBUG_LEVEL == 2
; 1197 : 			if (_Last < _First || _VICONT(_First) != this
; 1198 : 				|| _VIPTR(_First) < this->_Myfirst
; 1199 : 				|| this->_Mylast < _VIPTR(_Last))
; 1200 : 				_DEBUG_ERROR("vector erase iterator outside range");
; 1201 : 			pointer _Ptr = _Move(_VIPTR(_Last), this->_Mylast,
; 1202 : 				_VIPTR(_First));
; 1203 : 			_Orphan_range(_VIPTR(_First), this->_Mylast);
; 1204 : 
; 1205 :  #else /* _ITERATOR_DEBUG_LEVEL == 2 */
; 1206 : 			pointer _Ptr = _Move(_VIPTR(_Last), this->_Mylast,
; 1207 : 				_VIPTR(_First));

  00014	8b 46 04	 mov	 eax, DWORD PTR [esi+4]
  00017	53		 push	 ebx
  00018	57		 push	 edi
  00019	ff 75 10	 push	 DWORD PTR __Cat$519444[ebp]
  0001c	51		 push	 ecx
  0001d	50		 push	 eax
  0001e	ff 75 10	 push	 DWORD PTR __Last_arg$[ebp]
  00021	e8 00 00 00 00	 call	 ??$_Move@PAVioHashString@@PAV1@@std@@YAPAVioHashString@@PAV1@00U_Nonscalar_ptr_iterator_tag@0@@Z ; std::_Move<ioHashString *,ioHashString *>

; 1208 :  #endif /* _ITERATOR_DEBUG_LEVEL == 2 */
; 1209 : 
; 1210 : 			_Destroy(_Ptr, this->_Mylast);

  00026	8b 7e 04	 mov	 edi, DWORD PTR [esi+4]
  00029	8b d8		 mov	 ebx, eax
  0002b	83 c4 10	 add	 esp, 16			; 00000010H
  0002e	89 5d fc	 mov	 DWORD PTR $T519499[ebp], ebx
  00031	3b df		 cmp	 ebx, edi
  00033	74 12		 je	 SHORT $LN36@erase@6
$LL52@erase@6:
  00035	8b 4d fc	 mov	 ecx, DWORD PTR $T519499[ebp]
  00038	ff 15 00 00 00
	00		 call	 DWORD PTR __imp_??1ioHashString@@QAE@XZ
  0003e	83 45 fc 10	 add	 DWORD PTR $T519499[ebp], 16 ; 00000010H
  00042	39 7d fc	 cmp	 DWORD PTR $T519499[ebp], edi
  00045	75 ee		 jne	 SHORT $LL52@erase@6
$LN36@erase@6:

; 1211 : 			this->_Mylast = _Ptr;

  00047	5f		 pop	 edi
  00048	89 5e 04	 mov	 DWORD PTR [esi+4], ebx
  0004b	5b		 pop	 ebx
$LN1@erase@6:

; 1212 : 			}
; 1213 : 		return (_First);

  0004c	8b 45 08	 mov	 eax, DWORD PTR ___$ReturnUdt$[ebp]
  0004f	5e		 pop	 esi

; 1214 : 		}

  00050	c9		 leave
  00051	c2 0c 00	 ret	 12			; 0000000cH
?erase@?$vector@VioHashString@@V?$allocator@VioHashString@@@std@@@std@@QAE?AV?$_Vector_iterator@V?$_Vector_val@VioHashString@@V?$allocator@VioHashString@@@std@@@std@@@2@V?$_Vector_const_iterator@V?$_Vector_val@VioHashString@@V?$allocator@VioHashString@@@std@@@std@@@2@0@Z ENDP ; std::vector<ioHashString,std::allocator<ioHashString> >::erase
_TEXT	ENDS
PUBLIC	?_Tidy@?$vector@VioHashString@@V?$allocator@VioHashString@@@std@@@std@@IAEXXZ ; std::vector<ioHashString,std::allocator<ioHashString> >::_Tidy
; Function compile flags: /Ogsp
;	COMDAT ?_Tidy@?$vector@VioHashString@@V?$allocator@VioHashString@@@std@@@std@@IAEXXZ
_TEXT	SEGMENT
?_Tidy@?$vector@VioHashString@@V?$allocator@VioHashString@@@std@@@std@@IAEXXZ PROC ; std::vector<ioHashString,std::allocator<ioHashString> >::_Tidy, COMDAT
; _this$ = ecx

; 1301 : 		{	// free all storage

  00000	56		 push	 esi
  00001	8b f1		 mov	 esi, ecx

; 1302 : 		if (this->_Myfirst != 0)

  00003	83 3e 00	 cmp	 DWORD PTR [esi], 0
  00006	74 28		 je	 SHORT $LN24@Tidy@3

; 1303 : 			{	// something to free, destroy and deallocate it
; 1304 : 			this->_Orphan_all();

  00008	53		 push	 ebx
  00009	57		 push	 edi
  0000a	ff 15 00 00 00
	00		 call	 DWORD PTR __imp_?_Orphan_all@_Container_base0@std@@QAEXXZ

; 1305 : 			_Destroy(this->_Myfirst, this->_Mylast);

  00010	8b 5e 04	 mov	 ebx, DWORD PTR [esi+4]
  00013	8b 3e		 mov	 edi, DWORD PTR [esi]
  00015	eb 0b		 jmp	 SHORT $LN28@Tidy@3
$LL12@Tidy@3:
  00017	8b cf		 mov	 ecx, edi
  00019	ff 15 00 00 00
	00		 call	 DWORD PTR __imp_??1ioHashString@@QAE@XZ
  0001f	83 c7 10	 add	 edi, 16			; 00000010H
$LN28@Tidy@3:
  00022	3b fb		 cmp	 edi, ebx
  00024	75 f1		 jne	 SHORT $LL12@Tidy@3

; 1306 : 			this->_Alval.deallocate(this->_Myfirst,
; 1307 : 				this->_Myend - this->_Myfirst);

  00026	ff 36		 push	 DWORD PTR [esi]
  00028	e8 00 00 00 00	 call	 ??3@YAXPAX@Z		; operator delete
  0002d	59		 pop	 ecx
  0002e	5f		 pop	 edi
  0002f	5b		 pop	 ebx
$LN24@Tidy@3:

; 1308 : 			}
; 1309 : 		this->_Myfirst = 0;

  00030	33 c0		 xor	 eax, eax
  00032	89 06		 mov	 DWORD PTR [esi], eax

; 1310 : 		this->_Mylast = 0;

  00034	89 46 04	 mov	 DWORD PTR [esi+4], eax

; 1311 : 		this->_Myend = 0;

  00037	89 46 08	 mov	 DWORD PTR [esi+8], eax
  0003a	5e		 pop	 esi

; 1312 : 		}

  0003b	c3		 ret	 0
?_Tidy@?$vector@VioHashString@@V?$allocator@VioHashString@@@std@@@std@@IAEXXZ ENDP ; std::vector<ioHashString,std::allocator<ioHashString> >::_Tidy
_TEXT	ENDS
PUBLIC	?Clear@CustomSoundData@@QAEXXZ			; CustomSoundData::Clear
EXTRN	__imp_?Clear@ioHashString@@QAEXXZ:PROC
; Function compile flags: /Ogsp
; File d:\lost saga for developer\youtube\tutorial\source\src\lsclient\iocustomsoundmgr.cpp
;	COMDAT ?Clear@CustomSoundData@@QAEXXZ
_TEXT	SEGMENT
$T519716 = -4						; size = 4
?Clear@CustomSoundData@@QAEXXZ PROC			; CustomSoundData::Clear, COMDAT
; _this$ = ecx

; 22   : {

  00000	55		 push	 ebp
  00001	8b ec		 mov	 ebp, esp
  00003	51		 push	 ecx
  00004	56		 push	 esi
  00005	8b f1		 mov	 esi, ecx

; 23   : 	SAFEDELETE( m_pData );

  00007	8b 46 04	 mov	 eax, DWORD PTR [esi+4]
  0000a	85 c0		 test	 eax, eax
  0000c	74 0b		 je	 SHORT $LN1@Clear
  0000e	50		 push	 eax
  0000f	e8 00 00 00 00	 call	 ??3@YAXPAX@Z		; operator delete
  00014	83 66 04 00	 and	 DWORD PTR [esi+4], 0
  00018	59		 pop	 ecx
$LN1@Clear:

; 24   : 	m_dwSize         = 0;

  00019	83 66 08 00	 and	 DWORD PTR [esi+8], 0

; 25   : 	m_dwUnpacFileCRC = 0;

  0001d	83 66 0c 00	 and	 DWORD PTR [esi+12], 0

; 26   : 	m_vNetworkInfoList.clear();

  00021	8d 4e 30	 lea	 ecx, DWORD PTR [esi+48]
  00024	8b 41 04	 mov	 eax, DWORD PTR [ecx+4]
  00027	8b 11		 mov	 edx, DWORD PTR [ecx]
  00029	50		 push	 eax
  0002a	52		 push	 edx
  0002b	8d 45 fc	 lea	 eax, DWORD PTR $T519716[ebp]
  0002e	50		 push	 eax
  0002f	e8 00 00 00 00	 call	 ?erase@?$vector@UtagNetworkInfo@CustomSoundData@@V?$allocator@UtagNetworkInfo@CustomSoundData@@@std@@@std@@QAE?AV?$_Vector_iterator@V?$_Vector_val@UtagNetworkInfo@CustomSoundData@@V?$allocator@UtagNetworkInfo@CustomSoundData@@@std@@@std@@@2@V?$_Vector_const_iterator@V?$_Vector_val@UtagNetworkInfo@CustomSoundData@@V?$allocator@UtagNetworkInfo@CustomSoundData@@@std@@@std@@@2@0@Z ; std::vector<CustomSoundData::tagNetworkInfo,std::allocator<CustomSoundData::tagNetworkInfo> >::erase

; 27   : 	m_szKeyWord.Clear();

  00034	8d 4e 10	 lea	 ecx, DWORD PTR [esi+16]
  00037	ff 15 00 00 00
	00		 call	 DWORD PTR __imp_?Clear@ioHashString@@QAEXXZ
  0003d	5e		 pop	 esi

; 28   : }

  0003e	c9		 leave
  0003f	c3		 ret	 0
?Clear@CustomSoundData@@QAEXXZ ENDP			; CustomSoundData::Clear
_TEXT	ENDS
PUBLIC	?ClearNetworkInfo@CustomSoundData@@QAEXXZ	; CustomSoundData::ClearNetworkInfo
; Function compile flags: /Ogsp
;	COMDAT ?ClearNetworkInfo@CustomSoundData@@QAEXXZ
_TEXT	SEGMENT
$T519798 = -4						; size = 4
?ClearNetworkInfo@CustomSoundData@@QAEXXZ PROC		; CustomSoundData::ClearNetworkInfo, COMDAT
; _this$ = ecx

; 31   : {

  00000	55		 push	 ebp
  00001	8b ec		 mov	 ebp, esp
  00003	51		 push	 ecx

; 32   : 	m_vNetworkInfoList.clear();

  00004	8b 41 34	 mov	 eax, DWORD PTR [ecx+52]
  00007	83 c1 30	 add	 ecx, 48			; 00000030H
  0000a	8b 11		 mov	 edx, DWORD PTR [ecx]
  0000c	50		 push	 eax
  0000d	52		 push	 edx
  0000e	8d 45 fc	 lea	 eax, DWORD PTR $T519798[ebp]
  00011	50		 push	 eax
  00012	e8 00 00 00 00	 call	 ?erase@?$vector@UtagNetworkInfo@CustomSoundData@@V?$allocator@UtagNetworkInfo@CustomSoundData@@@std@@@std@@QAE?AV?$_Vector_iterator@V?$_Vector_val@UtagNetworkInfo@CustomSoundData@@V?$allocator@UtagNetworkInfo@CustomSoundData@@@std@@@std@@@2@V?$_Vector_const_iterator@V?$_Vector_val@UtagNetworkInfo@CustomSoundData@@V?$allocator@UtagNetworkInfo@CustomSoundData@@@std@@@std@@@2@0@Z ; std::vector<CustomSoundData::tagNetworkInfo,std::allocator<CustomSoundData::tagNetworkInfo> >::erase

; 33   : }

  00017	c9		 leave
  00018	c3		 ret	 0
?ClearNetworkInfo@CustomSoundData@@QAEXXZ ENDP		; CustomSoundData::ClearNetworkInfo
_TEXT	ENDS
PUBLIC	?NewData@CustomSoundData@@QAEXK@Z		; CustomSoundData::NewData
; Function compile flags: /Ogsp
;	COMDAT ?NewData@CustomSoundData@@QAEXK@Z
_TEXT	SEGMENT
_dwSize$ = 8						; size = 4
?NewData@CustomSoundData@@QAEXK@Z PROC			; CustomSoundData::NewData, COMDAT
; _this$ = ecx

; 150  : {

  00000	55		 push	 ebp
  00001	8b ec		 mov	 ebp, esp
  00003	56		 push	 esi
  00004	57		 push	 edi
  00005	8b f1		 mov	 esi, ecx

; 151  : 	Clear();

  00007	e8 00 00 00 00	 call	 ?Clear@CustomSoundData@@QAEXXZ ; CustomSoundData::Clear

; 152  : 	m_pData  = new BYTE[dwSize];

  0000c	8b 7d 08	 mov	 edi, DWORD PTR _dwSize$[ebp]
  0000f	57		 push	 edi
  00010	e8 00 00 00 00	 call	 ??_U@YAPAXI@Z		; operator new[]
  00015	59		 pop	 ecx

; 153  : 	m_dwSize =  dwSize;

  00016	89 7e 08	 mov	 DWORD PTR [esi+8], edi
  00019	5f		 pop	 edi
  0001a	89 46 04	 mov	 DWORD PTR [esi+4], eax
  0001d	5e		 pop	 esi

; 154  : }

  0001e	5d		 pop	 ebp
  0001f	c2 04 00	 ret	 4
?NewData@CustomSoundData@@QAEXK@Z ENDP			; CustomSoundData::NewData
_TEXT	ENDS
PUBLIC	?RemoveDisable@ioCustomSoundMgr@@QAEXABVioHashString@@@Z ; ioCustomSoundMgr::RemoveDisable
; Function compile flags: /Ogsp
;	COMDAT ?RemoveDisable@ioCustomSoundMgr@@QAEXABVioHashString@@@Z
_TEXT	SEGMENT
$T519824 = 8						; size = 4
_rszPublicID$ = 8					; size = 4
?RemoveDisable@ioCustomSoundMgr@@QAEXABVioHashString@@@Z PROC ; ioCustomSoundMgr::RemoveDisable, COMDAT
; _this$ = ecx

; 981  : {

  00000	55		 push	 ebp
  00001	8b ec		 mov	 ebp, esp
  00003	53		 push	 ebx
  00004	56		 push	 esi
  00005	57		 push	 edi
  00006	8b f9		 mov	 edi, ecx

; 982  : 	for(ioHashStringVec::iterator iter = m_vDisableList.begin(); iter != m_vDisableList.end(); ++iter)

  00008	8b 77 34	 mov	 esi, DWORD PTR [edi+52]
  0000b	eb 1e		 jmp	 SHORT $LN41@RemoveDisa
$LL18@RemoveDisa:

; 983  : 	{
; 984  : 		ioHashString &rszPublicIDInList = *iter;
; 985  : 		if( rszPublicIDInList.IsEmpty() )

  0000d	8b ce		 mov	 ecx, esi
  0000f	ff 15 00 00 00
	00		 call	 DWORD PTR __imp_?IsEmpty@ioHashString@@QBE_NXZ
  00015	84 c0		 test	 al, al
  00017	75 0f		 jne	 SHORT $LN4@RemoveDisa

; 986  : 			continue;
; 987  : 		if( rszPublicIDInList == rszPublicID )

  00019	ff 75 08	 push	 DWORD PTR _rszPublicID$[ebp]
  0001c	8b ce		 mov	 ecx, esi
  0001e	ff 15 00 00 00
	00		 call	 DWORD PTR __imp_??8ioHashString@@QBE_NABV0@@Z
  00024	84 c0		 test	 al, al
  00026	75 0a		 jne	 SHORT $LN39@RemoveDisa
$LN4@RemoveDisa:

; 982  : 	for(ioHashStringVec::iterator iter = m_vDisableList.begin(); iter != m_vDisableList.end(); ++iter)

  00028	83 c6 10	 add	 esi, 16			; 00000010H
$LN41@RemoveDisa:
  0002b	3b 77 38	 cmp	 esi, DWORD PTR [edi+56]
  0002e	75 dd		 jne	 SHORT $LL18@RemoveDisa

; 986  : 			continue;
; 987  : 		if( rszPublicIDInList == rszPublicID )

  00030	eb 0d		 jmp	 SHORT $LN3@RemoveDisa
$LN39@RemoveDisa:

; 988  : 		{
; 989  : 			m_vDisableList.erase( iter );

  00032	56		 push	 esi
  00033	8d 45 08	 lea	 eax, DWORD PTR $T519824[ebp]
  00036	50		 push	 eax
  00037	8d 4f 34	 lea	 ecx, DWORD PTR [edi+52]
  0003a	e8 00 00 00 00	 call	 ?erase@?$vector@VioHashString@@V?$allocator@VioHashString@@@std@@@std@@QAE?AV?$_Vector_iterator@V?$_Vector_val@VioHashString@@V?$allocator@VioHashString@@@std@@@std@@@2@V?$_Vector_const_iterator@V?$_Vector_val@VioHashString@@V?$allocator@VioHashString@@@std@@@std@@@2@@Z ; std::vector<ioHashString,std::allocator<ioHashString> >::erase
$LN3@RemoveDisa:
  0003f	5f		 pop	 edi
  00040	5e		 pop	 esi
  00041	5b		 pop	 ebx

; 990  : 			return;
; 991  : 		}
; 992  : 	}
; 993  : }

  00042	5d		 pop	 ebp
  00043	c2 04 00	 ret	 4
?RemoveDisable@ioCustomSoundMgr@@QAEXABVioHashString@@@Z ENDP ; ioCustomSoundMgr::RemoveDisable
_TEXT	ENDS
PUBLIC	?push_back@?$vector@UtagNetworkInfo@CustomSoundData@@V?$allocator@UtagNetworkInfo@CustomSoundData@@@std@@@std@@QAEXABUtagNetworkInfo@CustomSoundData@@@Z ; std::vector<CustomSoundData::tagNetworkInfo,std::allocator<CustomSoundData::tagNetworkInfo> >::push_back
; Function compile flags: /Ogsp
; File c:\program files (x86)\microsoft visual studio 10.0\vc\include\vector
;	COMDAT ?push_back@?$vector@UtagNetworkInfo@CustomSoundData@@V?$allocator@UtagNetworkInfo@CustomSoundData@@@std@@@std@@QAEXABUtagNetworkInfo@CustomSoundData@@@Z
_TEXT	SEGMENT
__Val$ = 8						; size = 4
?push_back@?$vector@UtagNetworkInfo@CustomSoundData@@V?$allocator@UtagNetworkInfo@CustomSoundData@@@std@@@std@@QAEXABUtagNetworkInfo@CustomSoundData@@@Z PROC ; std::vector<CustomSoundData::tagNetworkInfo,std::allocator<CustomSoundData::tagNetworkInfo> >::push_back, COMDAT
; _this$ = ecx

; 976  : 		{	// insert element at end

  00000	55		 push	 ebp
  00001	8b ec		 mov	 ebp, esp
  00003	56		 push	 esi
  00004	8b f1		 mov	 esi, ecx

; 977  : 		if (_Inside(_STD addressof(_Val)))

  00006	8b 46 04	 mov	 eax, DWORD PTR [esi+4]
  00009	57		 push	 edi
  0000a	8b 7d 08	 mov	 edi, DWORD PTR __Val$[ebp]
  0000d	3b f8		 cmp	 edi, eax
  0000f	73 2d		 jae	 SHORT $LN4@push_back@2
  00011	8b 0e		 mov	 ecx, DWORD PTR [esi]
  00013	3b cf		 cmp	 ecx, edi
  00015	77 27		 ja	 SHORT $LN4@push_back@2

; 978  : 			{	// push back an element
; 979  : 			size_type _Idx = _STD addressof(_Val) - this->_Myfirst;

  00017	2b f9		 sub	 edi, ecx
  00019	c1 ff 03	 sar	 edi, 3

; 980  : 			if (this->_Mylast == this->_Myend)

  0001c	3b 46 08	 cmp	 eax, DWORD PTR [esi+8]
  0001f	75 09		 jne	 SHORT $LN3@push_back@2

; 981  : 				_Reserve(1);

  00021	6a 01		 push	 1
  00023	8b ce		 mov	 ecx, esi
  00025	e8 00 00 00 00	 call	 ?_Reserve@?$vector@UtagNetworkInfo@CustomSoundData@@V?$allocator@UtagNetworkInfo@CustomSoundData@@@std@@@std@@IAEXI@Z ; std::vector<CustomSoundData::tagNetworkInfo,std::allocator<CustomSoundData::tagNetworkInfo> >::_Reserve
$LN3@push_back@2:

; 982  : 			_Orphan_range(this->_Mylast, this->_Mylast);
; 983  : 			_Cons_val(this->_Alval,
; 984  : 				this->_Mylast,
; 985  : 				this->_Myfirst[_Idx]);

  0002a	8b 06		 mov	 eax, DWORD PTR [esi]
  0002c	8d 04 f8	 lea	 eax, DWORD PTR [eax+edi*8]
  0002f	50		 push	 eax
  00030	ff 76 04	 push	 DWORD PTR [esi+4]
  00033	8d 46 0c	 lea	 eax, DWORD PTR [esi+12]
  00036	50		 push	 eax
  00037	e8 00 00 00 00	 call	 ??$_Cons_val@V?$allocator@UtagNetworkInfo@CustomSoundData@@@std@@UtagNetworkInfo@CustomSoundData@@AAU34@@std@@YAXAAV?$allocator@UtagNetworkInfo@CustomSoundData@@@0@PAUtagNetworkInfo@CustomSoundData@@AAU23@@Z ; std::_Cons_val<std::allocator<CustomSoundData::tagNetworkInfo>,CustomSoundData::tagNetworkInfo,CustomSoundData::tagNetworkInfo &>

; 986  : 			++this->_Mylast;
; 987  : 			}
; 988  : 		else

  0003c	eb 1b		 jmp	 SHORT $LN20@push_back@2
$LN4@push_back@2:

; 989  : 			{	// push back a non-element
; 990  : 			if (this->_Mylast == this->_Myend)

  0003e	3b 46 08	 cmp	 eax, DWORD PTR [esi+8]
  00041	75 09		 jne	 SHORT $LN1@push_back@2

; 991  : 				_Reserve(1);

  00043	6a 01		 push	 1
  00045	8b ce		 mov	 ecx, esi
  00047	e8 00 00 00 00	 call	 ?_Reserve@?$vector@UtagNetworkInfo@CustomSoundData@@V?$allocator@UtagNetworkInfo@CustomSoundData@@@std@@@std@@IAEXI@Z ; std::vector<CustomSoundData::tagNetworkInfo,std::allocator<CustomSoundData::tagNetworkInfo> >::_Reserve
$LN1@push_back@2:

; 992  : 			_Orphan_range(this->_Mylast, this->_Mylast);
; 993  : 			_Cons_val(this->_Alval,
; 994  : 				this->_Mylast,
; 995  : 				_Val);

  0004c	57		 push	 edi
  0004d	ff 76 04	 push	 DWORD PTR [esi+4]
  00050	8d 46 0c	 lea	 eax, DWORD PTR [esi+12]
  00053	50		 push	 eax
  00054	e8 00 00 00 00	 call	 ??$_Cons_val@V?$allocator@UtagNetworkInfo@CustomSoundData@@@std@@UtagNetworkInfo@CustomSoundData@@ABU34@@std@@YAXAAV?$allocator@UtagNetworkInfo@CustomSoundData@@@0@PAUtagNetworkInfo@CustomSoundData@@ABU23@@Z ; std::_Cons_val<std::allocator<CustomSoundData::tagNetworkInfo>,CustomSoundData::tagNetworkInfo,CustomSoundData::tagNetworkInfo const &>
$LN20@push_back@2:
  00059	83 c4 0c	 add	 esp, 12			; 0000000cH

; 996  : 			++this->_Mylast;

  0005c	83 46 04 08	 add	 DWORD PTR [esi+4], 8
  00060	5f		 pop	 edi
  00061	5e		 pop	 esi

; 997  : 			}
; 998  : 		}

  00062	5d		 pop	 ebp
  00063	c2 04 00	 ret	 4
?push_back@?$vector@UtagNetworkInfo@CustomSoundData@@V?$allocator@UtagNetworkInfo@CustomSoundData@@@std@@@std@@QAEXABUtagNetworkInfo@CustomSoundData@@@Z ENDP ; std::vector<CustomSoundData::tagNetworkInfo,std::allocator<CustomSoundData::tagNetworkInfo> >::push_back
_TEXT	ENDS
PUBLIC	?_Reserve@?$vector@VioHashString@@V?$allocator@VioHashString@@@std@@@std@@IAEXI@Z ; std::vector<ioHashString,std::allocator<ioHashString> >::_Reserve
; Function compile flags: /Ogsp
;	COMDAT ?_Reserve@?$vector@VioHashString@@V?$allocator@VioHashString@@@std@@@std@@IAEXI@Z
_TEXT	SEGMENT
__Count$ = 8						; size = 4
?_Reserve@?$vector@VioHashString@@V?$allocator@VioHashString@@@std@@@std@@IAEXI@Z PROC ; std::vector<ioHashString,std::allocator<ioHashString> >::_Reserve, COMDAT
; _this$ = ecx

; 1290 : 		{	// ensure room for _Count new elements, grow exponentially

  00000	55		 push	 ebp
  00001	8b ec		 mov	 ebp, esp
  00003	56		 push	 esi
  00004	8b f1		 mov	 esi, ecx

; 1291 : 		size_type _Size = size();

  00006	8b 0e		 mov	 ecx, DWORD PTR [esi]
  00008	8b 46 04	 mov	 eax, DWORD PTR [esi+4]
  0000b	2b c1		 sub	 eax, ecx

; 1292 : 		if (max_size() - _Count < _Size)

  0000d	ba ff ff ff 0f	 mov	 edx, 268435455		; 0fffffffH
  00012	2b 55 08	 sub	 edx, DWORD PTR __Count$[ebp]
  00015	c1 f8 04	 sar	 eax, 4
  00018	3b d0		 cmp	 edx, eax
  0001a	73 0b		 jae	 SHORT $LN4@Reserve@3

; 1293 : 			_Xlen();

  0001c	68 00 00 00 00	 push	 OFFSET ??_C@_0BD@OLBABOEK@vector?$DMT?$DO?5too?5long?$AA@
  00021	ff 15 00 00 00
	00		 call	 DWORD PTR __imp_?_Xlength_error@std@@YAXPBD@Z
$LN21@Reserve@3:
$LN4@Reserve@3:

; 1294 : 		else if ((_Size += _Count) <= capacity())

  00027	8b 56 08	 mov	 edx, DWORD PTR [esi+8]
  0002a	03 45 08	 add	 eax, DWORD PTR __Count$[ebp]
  0002d	2b d1		 sub	 edx, ecx
  0002f	c1 fa 04	 sar	 edx, 4
  00032	3b c2		 cmp	 eax, edx
  00034	76 10		 jbe	 SHORT $LN1@Reserve@3

; 1295 : 			;
; 1296 : 		else
; 1297 : 			reserve(_Grow_to(_Size));

  00036	50		 push	 eax
  00037	8b ce		 mov	 ecx, esi
  00039	e8 00 00 00 00	 call	 ?_Grow_to@?$vector@VioHashString@@V?$allocator@VioHashString@@@std@@@std@@IBEII@Z ; std::vector<ioHashString,std::allocator<ioHashString> >::_Grow_to
  0003e	50		 push	 eax
  0003f	8b ce		 mov	 ecx, esi
  00041	e8 00 00 00 00	 call	 ?reserve@?$vector@VioHashString@@V?$allocator@VioHashString@@@std@@@std@@QAEXI@Z ; std::vector<ioHashString,std::allocator<ioHashString> >::reserve
$LN1@Reserve@3:
  00046	5e		 pop	 esi

; 1298 : 		}

  00047	5d		 pop	 ebp
  00048	c2 04 00	 ret	 4
$LN20@Reserve@3:
?_Reserve@?$vector@VioHashString@@V?$allocator@VioHashString@@@std@@@std@@IAEXI@Z ENDP ; std::vector<ioHashString,std::allocator<ioHashString> >::_Reserve
_TEXT	ENDS
PUBLIC	??1?$map@KPAVCustomSoundData@@U?$less@K@std@@V?$allocator@U?$pair@$$CBKPAVCustomSoundData@@@std@@@3@@std@@QAE@XZ ; std::map<unsigned long,CustomSoundData *,std::less<unsigned long>,std::allocator<std::pair<unsigned long const ,CustomSoundData *> > >::~map<unsigned long,CustomSoundData *,std::less<unsigned long>,std::allocator<std::pair<unsigned long const ,CustomSoundData *> > >
; Function compile flags: /Ogsp
;	COMDAT ??1?$map@KPAVCustomSoundData@@U?$less@K@std@@V?$allocator@U?$pair@$$CBKPAVCustomSoundData@@@std@@@3@@std@@QAE@XZ
_TEXT	SEGMENT
??1?$map@KPAVCustomSoundData@@U?$less@K@std@@V?$allocator@U?$pair@$$CBKPAVCustomSoundData@@@std@@@3@@std@@QAE@XZ PROC ; std::map<unsigned long,CustomSoundData *,std::less<unsigned long>,std::allocator<std::pair<unsigned long const ,CustomSoundData *> > >::~map<unsigned long,CustomSoundData *,std::less<unsigned long>,std::allocator<std::pair<unsigned long const ,CustomSoundData *> > >, COMDAT
; _this$ = ecx
  00000	e9 00 00 00 00	 jmp	 ??1?$_Tree@V?$_Tmap_traits@KPAVCustomSoundData@@U?$less@K@std@@V?$allocator@U?$pair@$$CBKPAVCustomSoundData@@@std@@@3@$0A@@std@@@std@@QAE@XZ ; std::_Tree<std::_Tmap_traits<unsigned long,CustomSoundData *,std::less<unsigned long>,std::allocator<std::pair<unsigned long const ,CustomSoundData *> >,0> >::~_Tree<std::_Tmap_traits<unsigned long,CustomSoundData *,std::less<unsigned long>,std::allocator<std::pair<unsigned long const ,CustomSoundData *> >,0> >
??1?$map@KPAVCustomSoundData@@U?$less@K@std@@V?$allocator@U?$pair@$$CBKPAVCustomSoundData@@@std@@@3@@std@@QAE@XZ ENDP ; std::map<unsigned long,CustomSoundData *,std::less<unsigned long>,std::allocator<std::pair<unsigned long const ,CustomSoundData *> > >::~map<unsigned long,CustomSoundData *,std::less<unsigned long>,std::allocator<std::pair<unsigned long const ,CustomSoundData *> > >
_TEXT	ENDS
PUBLIC	??1?$vector@VioHashString@@V?$allocator@VioHashString@@@std@@@std@@QAE@XZ ; std::vector<ioHashString,std::allocator<ioHashString> >::~vector<ioHashString,std::allocator<ioHashString> >
; Function compile flags: /Ogsp
;	COMDAT ??1?$vector@VioHashString@@V?$allocator@VioHashString@@@std@@@std@@QAE@XZ
_TEXT	SEGMENT
??1?$vector@VioHashString@@V?$allocator@VioHashString@@@std@@@std@@QAE@XZ PROC ; std::vector<ioHashString,std::allocator<ioHashString> >::~vector<ioHashString,std::allocator<ioHashString> >, COMDAT
; _this$ = ecx

; 705  : 		_Tidy();

  00000	e9 00 00 00 00	 jmp	 ?_Tidy@?$vector@VioHashString@@V?$allocator@VioHashString@@@std@@@std@@IAEXXZ ; std::vector<ioHashString,std::allocator<ioHashString> >::_Tidy
??1?$vector@VioHashString@@V?$allocator@VioHashString@@@std@@@std@@QAE@XZ ENDP ; std::vector<ioHashString,std::allocator<ioHashString> >::~vector<ioHashString,std::allocator<ioHashString> >
_TEXT	ENDS
PUBLIC	?clear@?$vector@VioHashString@@V?$allocator@VioHashString@@@std@@@std@@QAEXXZ ; std::vector<ioHashString,std::allocator<ioHashString> >::clear
; Function compile flags: /Ogsp
;	COMDAT ?clear@?$vector@VioHashString@@V?$allocator@VioHashString@@@std@@@std@@QAEXXZ
_TEXT	SEGMENT
$T519981 = -4						; size = 4
?clear@?$vector@VioHashString@@V?$allocator@VioHashString@@@std@@@std@@QAEXXZ PROC ; std::vector<ioHashString,std::allocator<ioHashString> >::clear, COMDAT
; _this$ = ecx

; 1217 : 		{	// erase all

  00000	55		 push	 ebp
  00001	8b ec		 mov	 ebp, esp
  00003	51		 push	 ecx

; 1218 : 		erase(begin(), end());

  00004	8b 41 04	 mov	 eax, DWORD PTR [ecx+4]
  00007	8b 11		 mov	 edx, DWORD PTR [ecx]
  00009	50		 push	 eax
  0000a	52		 push	 edx
  0000b	8d 45 fc	 lea	 eax, DWORD PTR $T519981[ebp]
  0000e	50		 push	 eax
  0000f	e8 00 00 00 00	 call	 ?erase@?$vector@VioHashString@@V?$allocator@VioHashString@@@std@@@std@@QAE?AV?$_Vector_iterator@V?$_Vector_val@VioHashString@@V?$allocator@VioHashString@@@std@@@std@@@2@V?$_Vector_const_iterator@V?$_Vector_val@VioHashString@@V?$allocator@VioHashString@@@std@@@std@@@2@0@Z ; std::vector<ioHashString,std::allocator<ioHashString> >::erase

; 1219 : 		}

  00014	c9		 leave
  00015	c3		 ret	 0
?clear@?$vector@VioHashString@@V?$allocator@VioHashString@@@std@@@std@@QAEXXZ ENDP ; std::vector<ioHashString,std::allocator<ioHashString> >::clear
_TEXT	ENDS
PUBLIC	??0?$map@KPAVCustomSoundData@@U?$less@K@std@@V?$allocator@U?$pair@$$CBKPAVCustomSoundData@@@std@@@3@@std@@QAE@XZ ; std::map<unsigned long,CustomSoundData *,std::less<unsigned long>,std::allocator<std::pair<unsigned long const ,CustomSoundData *> > >::map<unsigned long,CustomSoundData *,std::less<unsigned long>,std::allocator<std::pair<unsigned long const ,CustomSoundData *> > >
; Function compile flags: /Ogsp
; File c:\program files (x86)\microsoft visual studio 10.0\vc\include\map
;	COMDAT ??0?$map@KPAVCustomSoundData@@U?$less@K@std@@V?$allocator@U?$pair@$$CBKPAVCustomSoundData@@@std@@@3@@std@@QAE@XZ
_TEXT	SEGMENT
$T520046 = -8						; size = 4
$T520048 = -8						; size = 4
$T520035 = -1						; size = 1
??0?$map@KPAVCustomSoundData@@U?$less@K@std@@V?$allocator@U?$pair@$$CBKPAVCustomSoundData@@@std@@@3@@std@@QAE@XZ PROC ; std::map<unsigned long,CustomSoundData *,std::less<unsigned long>,std::allocator<std::pair<unsigned long const ,CustomSoundData *> > >::map<unsigned long,CustomSoundData *,std::less<unsigned long>,std::allocator<std::pair<unsigned long const ,CustomSoundData *> > >, COMDAT
; _this$ = ecx

; 106  : 		{	// construct empty map from defaults

  00000	55		 push	 ebp
  00001	8b ec		 mov	 ebp, esp
  00003	51		 push	 ecx
  00004	51		 push	 ecx
  00005	56		 push	 esi
  00006	51		 push	 ecx
  00007	89 65 f8	 mov	 DWORD PTR $T520048[ebp], esp
  0000a	8d 45 ff	 lea	 eax, DWORD PTR $T520035[ebp]
  0000d	89 65 f8	 mov	 DWORD PTR $T520046[ebp], esp
  00010	50		 push	 eax
  00011	8b f1		 mov	 esi, ecx
  00013	e8 00 00 00 00	 call	 ??0?$_Tree_val@V?$_Tmap_traits@KPAVCustomSoundData@@U?$less@K@std@@V?$allocator@U?$pair@$$CBKPAVCustomSoundData@@@std@@@3@$0A@@std@@@std@@QAE@ABU?$less@K@1@V?$allocator@U?$pair@$$CBKPAVCustomSoundData@@@std@@@1@@Z ; std::_Tree_val<std::_Tmap_traits<unsigned long,CustomSoundData *,std::less<unsigned long>,std::allocator<std::pair<unsigned long const ,CustomSoundData *> >,0> >::_Tree_val<std::_Tmap_traits<unsigned long,CustomSoundData *,std::less<unsigned long>,std::allocator<std::pair<unsigned long const ,CustomSoundData *> >,0> >

; 107  : 		}

  00018	8b c6		 mov	 eax, esi
  0001a	5e		 pop	 esi
  0001b	c9		 leave
  0001c	c3		 ret	 0
??0?$map@KPAVCustomSoundData@@U?$less@K@std@@V?$allocator@U?$pair@$$CBKPAVCustomSoundData@@@std@@@3@@std@@QAE@XZ ENDP ; std::map<unsigned long,CustomSoundData *,std::less<unsigned long>,std::allocator<std::pair<unsigned long const ,CustomSoundData *> > >::map<unsigned long,CustomSoundData *,std::less<unsigned long>,std::allocator<std::pair<unsigned long const ,CustomSoundData *> > >
_TEXT	ENDS
PUBLIC	??1CustomSoundData@@UAE@XZ			; CustomSoundData::~CustomSoundData
;	COMDAT xdata$x
; File c:\program files (x86)\microsoft visual studio 10.0\vc\include\vector
xdata$x	SEGMENT
__unwindtable$??1CustomSoundData@@UAE@XZ DD 0ffffffffH
	DD	FLAT:__unwindfunclet$??1CustomSoundData@@UAE@XZ$0
	DD	00H
	DD	FLAT:__unwindfunclet$??1CustomSoundData@@UAE@XZ$1
	DD	01H
	DD	FLAT:__unwindfunclet$??1CustomSoundData@@UAE@XZ$2
__ehfuncinfo$??1CustomSoundData@@UAE@XZ DD 019930522H
	DD	03H
	DD	FLAT:__unwindtable$??1CustomSoundData@@UAE@XZ
	DD	2 DUP(00H)
	DD	2 DUP(00H)
	DD	00H
	DD	01H
; Function compile flags: /Ogsp
; File d:\lost saga for developer\youtube\tutorial\source\src\lsclient\iocustomsoundmgr.cpp
xdata$x	ENDS
;	COMDAT ??1CustomSoundData@@UAE@XZ
_TEXT	SEGMENT
_this$ = -16						; size = 4
__$EHRec$ = -12						; size = 12
??1CustomSoundData@@UAE@XZ PROC				; CustomSoundData::~CustomSoundData, COMDAT
; _this$ = ecx

; 17   : {

  00000	6a 04		 push	 4
  00002	b8 00 00 00 00	 mov	 eax, __ehhandler$??1CustomSoundData@@UAE@XZ
  00007	e8 00 00 00 00	 call	 __EH_prolog3
  0000c	8b f1		 mov	 esi, ecx
  0000e	89 75 f0	 mov	 DWORD PTR _this$[ebp], esi
  00011	c7 06 00 00 00
	00		 mov	 DWORD PTR [esi], OFFSET ??_7CustomSoundData@@6B@
  00017	c7 45 fc 02 00
	00 00		 mov	 DWORD PTR __$EHRec$[ebp+8], 2

; 18   : 	Clear();

  0001e	e8 00 00 00 00	 call	 ?Clear@CustomSoundData@@QAEXXZ ; CustomSoundData::Clear

; 19   : }

  00023	8d 4e 30	 lea	 ecx, DWORD PTR [esi+48]
  00026	c6 45 fc 01	 mov	 BYTE PTR __$EHRec$[ebp+8], 1
  0002a	e8 00 00 00 00	 call	 ?_Tidy@?$vector@UtagNetworkInfo@CustomSoundData@@V?$allocator@UtagNetworkInfo@CustomSoundData@@@std@@@std@@IAEXXZ ; std::vector<CustomSoundData::tagNetworkInfo,std::allocator<CustomSoundData::tagNetworkInfo> >::_Tidy
  0002f	8b 3d 00 00 00
	00		 mov	 edi, DWORD PTR __imp_??1ioHashString@@QAE@XZ
  00035	8d 4e 20	 lea	 ecx, DWORD PTR [esi+32]
  00038	c6 45 fc 00	 mov	 BYTE PTR __$EHRec$[ebp+8], 0
  0003c	ff d7		 call	 edi
  0003e	83 4d fc ff	 or	 DWORD PTR __$EHRec$[ebp+8], -1
  00042	8d 4e 10	 lea	 ecx, DWORD PTR [esi+16]
  00045	ff d7		 call	 edi
  00047	e8 00 00 00 00	 call	 __EH_epilog3
  0004c	c3		 ret	 0
_TEXT	ENDS
;	COMDAT text$x
text$x	SEGMENT
__unwindfunclet$??1CustomSoundData@@UAE@XZ$0:
  00000	8b 4d f0	 mov	 ecx, DWORD PTR _this$[ebp]
  00003	83 c1 10	 add	 ecx, 16			; 00000010H
  00006	ff 25 00 00 00
	00		 jmp	 DWORD PTR __imp_??1ioHashString@@QAE@XZ
__unwindfunclet$??1CustomSoundData@@UAE@XZ$1:
  0000c	8b 4d f0	 mov	 ecx, DWORD PTR _this$[ebp]
  0000f	83 c1 20	 add	 ecx, 32			; 00000020H
  00012	ff 25 00 00 00
	00		 jmp	 DWORD PTR __imp_??1ioHashString@@QAE@XZ
__unwindfunclet$??1CustomSoundData@@UAE@XZ$2:
  00018	8b 4d f0	 mov	 ecx, DWORD PTR _this$[ebp]
  0001b	83 c1 30	 add	 ecx, 48			; 00000030H
  0001e	e9 00 00 00 00	 jmp	 ??1?$vector@UtagNetworkInfo@CustomSoundData@@V?$allocator@UtagNetworkInfo@CustomSoundData@@@std@@@std@@QAE@XZ ; std::vector<CustomSoundData::tagNetworkInfo,std::allocator<CustomSoundData::tagNetworkInfo> >::~vector<CustomSoundData::tagNetworkInfo,std::allocator<CustomSoundData::tagNetworkInfo> >
__ehhandler$??1CustomSoundData@@UAE@XZ:
  00023	8b 54 24 08	 mov	 edx, DWORD PTR [esp+8]
  00027	8d 42 0c	 lea	 eax, DWORD PTR [edx+12]
  0002a	8b 4a ec	 mov	 ecx, DWORD PTR [edx-20]
  0002d	33 c8		 xor	 ecx, eax
  0002f	e8 00 00 00 00	 call	 @__security_check_cookie@4
  00034	b8 00 00 00 00	 mov	 eax, OFFSET __ehfuncinfo$??1CustomSoundData@@UAE@XZ
  00039	e9 00 00 00 00	 jmp	 ___CxxFrameHandler3
text$x	ENDS
??1CustomSoundData@@UAE@XZ ENDP				; CustomSoundData::~CustomSoundData
PUBLIC	?AddNetworkInfo@CustomSoundData@@QAEXK@Z	; CustomSoundData::AddNetworkInfo
; Function compile flags: /Ogsp
;	COMDAT ?AddNetworkInfo@CustomSoundData@@QAEXK@Z
_TEXT	SEGMENT
_kInfo$ = -8						; size = 8
_dwUserIndex$ = 8					; size = 4
?AddNetworkInfo@CustomSoundData@@QAEXK@Z PROC		; CustomSoundData::AddNetworkInfo, COMDAT
; _this$ = ecx

; 72   : {

  00000	55		 push	 ebp
  00001	8b ec		 mov	 ebp, esp
  00003	51		 push	 ecx
  00004	51		 push	 ecx
  00005	8b c1		 mov	 eax, ecx

; 73   : 	for(NetworkInfoList::iterator iter = m_vNetworkInfoList.begin(); iter != m_vNetworkInfoList.end(); ++iter)

  00007	8d 48 30	 lea	 ecx, DWORD PTR [eax+48]
  0000a	8b 11		 mov	 edx, DWORD PTR [ecx]
  0000c	8b 40 34	 mov	 eax, DWORD PTR [eax+52]
  0000f	56		 push	 esi
  00010	8b 75 08	 mov	 esi, DWORD PTR _dwUserIndex$[ebp]
  00013	eb 07		 jmp	 SHORT $LN42@AddNetwork
$LL17@AddNetwork:

; 74   : 	{
; 75   : 	    NetworkInfo &rInfo = *iter;
; 76   : 		if( rInfo.m_dwUserIndex == dwUserIndex )

  00015	39 32		 cmp	 DWORD PTR [edx], esi
  00017	74 17		 je	 SHORT $LN5@AddNetwork

; 73   : 	for(NetworkInfoList::iterator iter = m_vNetworkInfoList.begin(); iter != m_vNetworkInfoList.end(); ++iter)

  00019	83 c2 08	 add	 edx, 8
$LN42@AddNetwork:
  0001c	3b d0		 cmp	 edx, eax
  0001e	75 f5		 jne	 SHORT $LL17@AddNetwork

; 77   : 			return;
; 78   : 	}
; 79   : 
; 80   : 	NetworkInfo kInfo;
; 81   : 	kInfo.m_dwUserIndex = dwUserIndex;
; 82   : 	kInfo.m_dwDataPos   = 0;

  00020	83 65 fc 00	 and	 DWORD PTR _kInfo$[ebp+4], 0

; 83   : 	m_vNetworkInfoList.push_back( kInfo );

  00024	8d 45 f8	 lea	 eax, DWORD PTR _kInfo$[ebp]
  00027	50		 push	 eax
  00028	89 75 f8	 mov	 DWORD PTR _kInfo$[ebp], esi
  0002b	e8 00 00 00 00	 call	 ?push_back@?$vector@UtagNetworkInfo@CustomSoundData@@V?$allocator@UtagNetworkInfo@CustomSoundData@@@std@@@std@@QAEXABUtagNetworkInfo@CustomSoundData@@@Z ; std::vector<CustomSoundData::tagNetworkInfo,std::allocator<CustomSoundData::tagNetworkInfo> >::push_back
$LN5@AddNetwork:
  00030	5e		 pop	 esi

; 84   : }

  00031	c9		 leave
  00032	c2 04 00	 ret	 4
?AddNetworkInfo@CustomSoundData@@QAEXK@Z ENDP		; CustomSoundData::AddNetworkInfo
_TEXT	ENDS
PUBLIC	??_7ioCustomSoundMgr@@6B@			; ioCustomSoundMgr::`vftable'
PUBLIC	??0ioCustomSoundMgr@@QAE@XZ			; ioCustomSoundMgr::ioCustomSoundMgr
PUBLIC	??_R4ioCustomSoundMgr@@6B@			; ioCustomSoundMgr::`RTTI Complete Object Locator'
PUBLIC	??_R0?AVioCustomSoundMgr@@@8			; ioCustomSoundMgr `RTTI Type Descriptor'
PUBLIC	??_R3ioCustomSoundMgr@@8			; ioCustomSoundMgr::`RTTI Class Hierarchy Descriptor'
PUBLIC	??_R2ioCustomSoundMgr@@8			; ioCustomSoundMgr::`RTTI Base Class Array'
PUBLIC	??_R1A@?0A@EA@ioCustomSoundMgr@@8		; ioCustomSoundMgr::`RTTI Base Class Descriptor at (0,-1,0,64)'
PUBLIC	??_R13?0A@EA@?$Singleton@VioCustomSoundMgr@@@@8	; Singleton<ioCustomSoundMgr>::`RTTI Base Class Descriptor at (4,-1,0,64)'
PUBLIC	??_R0?AV?$Singleton@VioCustomSoundMgr@@@@@8	; Singleton<ioCustomSoundMgr> `RTTI Type Descriptor'
PUBLIC	??_R3?$Singleton@VioCustomSoundMgr@@@@8		; Singleton<ioCustomSoundMgr>::`RTTI Class Hierarchy Descriptor'
PUBLIC	??_R2?$Singleton@VioCustomSoundMgr@@@@8		; Singleton<ioCustomSoundMgr>::`RTTI Base Class Array'
PUBLIC	??_R1A@?0A@EA@?$Singleton@VioCustomSoundMgr@@@@8 ; Singleton<ioCustomSoundMgr>::`RTTI Base Class Descriptor at (0,-1,0,64)'
EXTRN	??_EioCustomSoundMgr@@UAEPAXI@Z:PROC		; ioCustomSoundMgr::`vector deleting destructor'
;	COMDAT ??_R1A@?0A@EA@?$Singleton@VioCustomSoundMgr@@@@8
; File c:\program files (x86)\microsoft visual studio 10.0\vc\include\xmemory
rdata$r	SEGMENT
??_R1A@?0A@EA@?$Singleton@VioCustomSoundMgr@@@@8 DD FLAT:??_R0?AV?$Singleton@VioCustomSoundMgr@@@@@8 ; Singleton<ioCustomSoundMgr>::`RTTI Base Class Descriptor at (0,-1,0,64)'
	DD	00H
	DD	00H
	DD	0ffffffffH
	DD	00H
	DD	040H
	DD	FLAT:??_R3?$Singleton@VioCustomSoundMgr@@@@8
rdata$r	ENDS
;	COMDAT ??_R2?$Singleton@VioCustomSoundMgr@@@@8
rdata$r	SEGMENT
??_R2?$Singleton@VioCustomSoundMgr@@@@8 DD FLAT:??_R1A@?0A@EA@?$Singleton@VioCustomSoundMgr@@@@8 ; Singleton<ioCustomSoundMgr>::`RTTI Base Class Array'
rdata$r	ENDS
;	COMDAT ??_R3?$Singleton@VioCustomSoundMgr@@@@8
rdata$r	SEGMENT
??_R3?$Singleton@VioCustomSoundMgr@@@@8 DD 00H		; Singleton<ioCustomSoundMgr>::`RTTI Class Hierarchy Descriptor'
	DD	00H
	DD	01H
	DD	FLAT:??_R2?$Singleton@VioCustomSoundMgr@@@@8
rdata$r	ENDS
;	COMDAT ??_R0?AV?$Singleton@VioCustomSoundMgr@@@@@8
_DATA	SEGMENT
??_R0?AV?$Singleton@VioCustomSoundMgr@@@@@8 DD FLAT:??_7type_info@@6B@ ; Singleton<ioCustomSoundMgr> `RTTI Type Descriptor'
	DD	00H
	DB	'.?AV?$Singleton@VioCustomSoundMgr@@@@', 00H
_DATA	ENDS
;	COMDAT ??_R13?0A@EA@?$Singleton@VioCustomSoundMgr@@@@8
rdata$r	SEGMENT
??_R13?0A@EA@?$Singleton@VioCustomSoundMgr@@@@8 DD FLAT:??_R0?AV?$Singleton@VioCustomSoundMgr@@@@@8 ; Singleton<ioCustomSoundMgr>::`RTTI Base Class Descriptor at (4,-1,0,64)'
	DD	00H
	DD	04H
	DD	0ffffffffH
	DD	00H
	DD	040H
	DD	FLAT:??_R3?$Singleton@VioCustomSoundMgr@@@@8
rdata$r	ENDS
;	COMDAT ??_R1A@?0A@EA@ioCustomSoundMgr@@8
rdata$r	SEGMENT
??_R1A@?0A@EA@ioCustomSoundMgr@@8 DD FLAT:??_R0?AVioCustomSoundMgr@@@8 ; ioCustomSoundMgr::`RTTI Base Class Descriptor at (0,-1,0,64)'
	DD	01H
	DD	00H
	DD	0ffffffffH
	DD	00H
	DD	040H
	DD	FLAT:??_R3ioCustomSoundMgr@@8
rdata$r	ENDS
;	COMDAT ??_R2ioCustomSoundMgr@@8
rdata$r	SEGMENT
??_R2ioCustomSoundMgr@@8 DD FLAT:??_R1A@?0A@EA@ioCustomSoundMgr@@8 ; ioCustomSoundMgr::`RTTI Base Class Array'
	DD	FLAT:??_R13?0A@EA@?$Singleton@VioCustomSoundMgr@@@@8
rdata$r	ENDS
;	COMDAT ??_R3ioCustomSoundMgr@@8
rdata$r	SEGMENT
??_R3ioCustomSoundMgr@@8 DD 00H				; ioCustomSoundMgr::`RTTI Class Hierarchy Descriptor'
	DD	00H
	DD	02H
	DD	FLAT:??_R2ioCustomSoundMgr@@8
rdata$r	ENDS
;	COMDAT ??_R0?AVioCustomSoundMgr@@@8
_DATA	SEGMENT
??_R0?AVioCustomSoundMgr@@@8 DD FLAT:??_7type_info@@6B@	; ioCustomSoundMgr `RTTI Type Descriptor'
	DD	00H
	DB	'.?AVioCustomSoundMgr@@', 00H
_DATA	ENDS
;	COMDAT ??_R4ioCustomSoundMgr@@6B@
rdata$r	SEGMENT
??_R4ioCustomSoundMgr@@6B@ DD 00H			; ioCustomSoundMgr::`RTTI Complete Object Locator'
	DD	00H
	DD	00H
	DD	FLAT:??_R0?AVioCustomSoundMgr@@@8
	DD	FLAT:??_R3ioCustomSoundMgr@@8
rdata$r	ENDS
;	COMDAT ??_7ioCustomSoundMgr@@6B@
CONST	SEGMENT
??_7ioCustomSoundMgr@@6B@ DD FLAT:??_R4ioCustomSoundMgr@@6B@ ; ioCustomSoundMgr::`vftable'
	DD	FLAT:??_EioCustomSoundMgr@@UAEPAXI@Z
CONST	ENDS
;	COMDAT xdata$x
xdata$x	SEGMENT
__unwindtable$??0ioCustomSoundMgr@@QAE@XZ DD 0ffffffffH
	DD	FLAT:__unwindfunclet$??0ioCustomSoundMgr@@QAE@XZ$0
	DD	00H
	DD	FLAT:__unwindfunclet$??0ioCustomSoundMgr@@QAE@XZ$1
__ehfuncinfo$??0ioCustomSoundMgr@@QAE@XZ DD 019930522H
	DD	02H
	DD	FLAT:__unwindtable$??0ioCustomSoundMgr@@QAE@XZ
	DD	2 DUP(00H)
	DD	2 DUP(00H)
	DD	00H
	DD	01H
; Function compile flags: /Ogsp
; File d:\lost saga for developer\youtube\tutorial\source\src\lsclient\iocustomsoundmgr.cpp
xdata$x	ENDS
;	COMDAT ??0ioCustomSoundMgr@@QAE@XZ
_TEXT	SEGMENT
_this$ = -16						; size = 4
__$EHRec$ = -12						; size = 12
??0ioCustomSoundMgr@@QAE@XZ PROC			; ioCustomSoundMgr::ioCustomSoundMgr, COMDAT
; _this$ = ecx

; 203  : {

  00000	6a 04		 push	 4
  00002	b8 00 00 00 00	 mov	 eax, __ehhandler$??0ioCustomSoundMgr@@QAE@XZ
  00007	e8 00 00 00 00	 call	 __EH_prolog3
  0000c	8b f1		 mov	 esi, ecx
  0000e	89 75 f0	 mov	 DWORD PTR _this$[ebp], esi
  00011	8b c6		 mov	 eax, esi
  00013	a3 00 00 00 00	 mov	 DWORD PTR ?ms_Singleton@?$Singleton@VioCustomSoundMgr@@@@1PAVioCustomSoundMgr@@A, eax ; Singleton<ioCustomSoundMgr>::ms_Singleton
  00018	33 db		 xor	 ebx, ebx
  0001a	c7 06 00 00 00
	00		 mov	 DWORD PTR [esi], OFFSET ??_7ioCustomSoundMgr@@6B@
  00020	89 5d fc	 mov	 DWORD PTR __$EHRec$[ebp+8], ebx
  00023	89 5e 04	 mov	 DWORD PTR [esi+4], ebx
  00026	89 5e 08	 mov	 DWORD PTR [esi+8], ebx
  00029	89 5e 0c	 mov	 DWORD PTR [esi+12], ebx
  0002c	8d 4e 14	 lea	 ecx, DWORD PTR [esi+20]
  0002f	c6 45 fc 01	 mov	 BYTE PTR __$EHRec$[ebp+8], 1
  00033	ff 15 00 00 00
	00		 call	 DWORD PTR __imp_??0ioHashString@@QAE@XZ
  00039	89 5e 34	 mov	 DWORD PTR [esi+52], ebx
  0003c	89 5e 38	 mov	 DWORD PTR [esi+56], ebx
  0003f	89 5e 3c	 mov	 DWORD PTR [esi+60], ebx

; 204  : 	m_iMaxCustomData    = 0;

  00042	89 5e 24	 mov	 DWORD PTR [esi+36], ebx

; 205  : 	m_dwDelayTimePlayMy = 0;

  00045	89 5e 28	 mov	 DWORD PTR [esi+40], ebx

; 206  : 	m_dwLastTimePlayMy  = 0;

  00048	89 5e 2c	 mov	 DWORD PTR [esi+44], ebx

; 207  : 	m_dwMaxPlayLength   = 0;

  0004b	89 5e 30	 mov	 DWORD PTR [esi+48], ebx

; 208  : 	m_iCurDisableChangeArray = 0;

  0004e	89 5e 44	 mov	 DWORD PTR [esi+68], ebx

; 209  : 	m_bSaveDisableList       = false;

  00051	88 5e 48	 mov	 BYTE PTR [esi+72], bl

; 210  : }

  00054	8b c6		 mov	 eax, esi
  00056	e8 00 00 00 00	 call	 __EH_epilog3
  0005b	c3		 ret	 0
_TEXT	ENDS
;	COMDAT text$x
text$x	SEGMENT
__unwindfunclet$??0ioCustomSoundMgr@@QAE@XZ$0:
  00000	8b 4d f0	 mov	 ecx, DWORD PTR _this$[ebp]
  00003	83 c1 04	 add	 ecx, 4
  00006	e9 00 00 00 00	 jmp	 ??1?$Singleton@VioCustomSoundMgr@@@@QAE@XZ ; Singleton<ioCustomSoundMgr>::~Singleton<ioCustomSoundMgr>
__unwindfunclet$??0ioCustomSoundMgr@@QAE@XZ$1:
  0000b	8b 4d f0	 mov	 ecx, DWORD PTR _this$[ebp]
  0000e	83 c1 04	 add	 ecx, 4
  00011	e9 00 00 00 00	 jmp	 ??1?$vector@PAUtagCustomSoundInfo@ioCustomSoundMgr@@V?$allocator@PAUtagCustomSoundInfo@ioCustomSoundMgr@@@std@@@std@@QAE@XZ ; std::vector<ioCustomSoundMgr::tagCustomSoundInfo *,std::allocator<ioCustomSoundMgr::tagCustomSoundInfo *> >::~vector<ioCustomSoundMgr::tagCustomSoundInfo *,std::allocator<ioCustomSoundMgr::tagCustomSoundInfo *> >
__ehhandler$??0ioCustomSoundMgr@@QAE@XZ:
  00016	8b 54 24 08	 mov	 edx, DWORD PTR [esp+8]
  0001a	8d 42 0c	 lea	 eax, DWORD PTR [edx+12]
  0001d	8b 4a ec	 mov	 ecx, DWORD PTR [edx-20]
  00020	33 c8		 xor	 ecx, eax
  00022	e8 00 00 00 00	 call	 @__security_check_cookie@4
  00027	b8 00 00 00 00	 mov	 eax, OFFSET __ehfuncinfo$??0ioCustomSoundMgr@@QAE@XZ
  0002c	e9 00 00 00 00	 jmp	 ___CxxFrameHandler3
text$x	ENDS
??0ioCustomSoundMgr@@QAE@XZ ENDP			; ioCustomSoundMgr::ioCustomSoundMgr
PUBLIC	??1tagCustomSoundInfo@ioCustomSoundMgr@@QAE@XZ	; ioCustomSoundMgr::tagCustomSoundInfo::~tagCustomSoundInfo
;	COMDAT xdata$x
xdata$x	SEGMENT
__unwindtable$??1tagCustomSoundInfo@ioCustomSoundMgr@@QAE@XZ DD 0ffffffffH
	DD	FLAT:__unwindfunclet$??1tagCustomSoundInfo@ioCustomSoundMgr@@QAE@XZ$0
__ehfuncinfo$??1tagCustomSoundInfo@ioCustomSoundMgr@@QAE@XZ DD 019930522H
	DD	01H
	DD	FLAT:__unwindtable$??1tagCustomSoundInfo@ioCustomSoundMgr@@QAE@XZ
	DD	2 DUP(00H)
	DD	2 DUP(00H)
	DD	00H
	DD	01H
; Function compile flags: /Ogsp
xdata$x	ENDS
;	COMDAT ??1tagCustomSoundInfo@ioCustomSoundMgr@@QAE@XZ
_TEXT	SEGMENT
_this$ = -16						; size = 4
__$EHRec$ = -12						; size = 12
??1tagCustomSoundInfo@ioCustomSoundMgr@@QAE@XZ PROC	; ioCustomSoundMgr::tagCustomSoundInfo::~tagCustomSoundInfo, COMDAT
; _this$ = ecx
  00000	6a 04		 push	 4
  00002	b8 00 00 00 00	 mov	 eax, __ehhandler$??1tagCustomSoundInfo@ioCustomSoundMgr@@QAE@XZ
  00007	e8 00 00 00 00	 call	 __EH_prolog3
  0000c	8b f1		 mov	 esi, ecx
  0000e	89 75 f0	 mov	 DWORD PTR _this$[ebp], esi
  00011	83 65 fc 00	 and	 DWORD PTR __$EHRec$[ebp+8], 0
  00015	8d 4e 14	 lea	 ecx, DWORD PTR [esi+20]
  00018	e8 00 00 00 00	 call	 ??1?$_Tree@V?$_Tmap_traits@KPAVCustomSoundData@@U?$less@K@std@@V?$allocator@U?$pair@$$CBKPAVCustomSoundData@@@std@@@3@$0A@@std@@@std@@QAE@XZ ; std::_Tree<std::_Tmap_traits<unsigned long,CustomSoundData *,std::less<unsigned long>,std::allocator<std::pair<unsigned long const ,CustomSoundData *> >,0> >::~_Tree<std::_Tmap_traits<unsigned long,CustomSoundData *,std::less<unsigned long>,std::allocator<std::pair<unsigned long const ,CustomSoundData *> >,0> >
  0001d	83 4d fc ff	 or	 DWORD PTR __$EHRec$[ebp+8], -1
  00021	8d 4e 04	 lea	 ecx, DWORD PTR [esi+4]
  00024	ff 15 00 00 00
	00		 call	 DWORD PTR __imp_??1ioHashString@@QAE@XZ
  0002a	e8 00 00 00 00	 call	 __EH_epilog3
  0002f	c3		 ret	 0
_TEXT	ENDS
;	COMDAT text$x
text$x	SEGMENT
__unwindfunclet$??1tagCustomSoundInfo@ioCustomSoundMgr@@QAE@XZ$0:
  00000	8b 4d f0	 mov	 ecx, DWORD PTR _this$[ebp]
  00003	83 c1 04	 add	 ecx, 4
  00006	ff 25 00 00 00
	00		 jmp	 DWORD PTR __imp_??1ioHashString@@QAE@XZ
__ehhandler$??1tagCustomSoundInfo@ioCustomSoundMgr@@QAE@XZ:
  0000c	8b 54 24 08	 mov	 edx, DWORD PTR [esp+8]
  00010	8d 42 0c	 lea	 eax, DWORD PTR [edx+12]
  00013	8b 4a ec	 mov	 ecx, DWORD PTR [edx-20]
  00016	33 c8		 xor	 ecx, eax
  00018	e8 00 00 00 00	 call	 @__security_check_cookie@4
  0001d	b8 00 00 00 00	 mov	 eax, OFFSET __ehfuncinfo$??1tagCustomSoundInfo@ioCustomSoundMgr@@QAE@XZ
  00022	e9 00 00 00 00	 jmp	 ___CxxFrameHandler3
text$x	ENDS
??1tagCustomSoundInfo@ioCustomSoundMgr@@QAE@XZ ENDP	; ioCustomSoundMgr::tagCustomSoundInfo::~tagCustomSoundInfo
PUBLIC	?AddSendNetworkInfo@ioCustomSoundMgr@@QAEXKK@Z	; ioCustomSoundMgr::AddSendNetworkInfo
; Function compile flags: /Ogsp
;	COMDAT ?AddSendNetworkInfo@ioCustomSoundMgr@@QAEXKK@Z
_TEXT	SEGMENT
_iter$ = -4						; size = 4
_dwCustomSoundIndex$ = 8				; size = 4
_dwUserIndex$ = 12					; size = 4
?AddSendNetworkInfo@ioCustomSoundMgr@@QAEXKK@Z PROC	; ioCustomSoundMgr::AddSendNetworkInfo, COMDAT
; _this$ = ecx

; 513  : {

  00000	55		 push	 ebp
  00001	8b ec		 mov	 ebp, esp
  00003	51		 push	 ecx
  00004	56		 push	 esi
  00005	8b f1		 mov	 esi, ecx

; 514  : 	if( m_vCustomSoundInfoList.empty() )

  00007	8b 46 04	 mov	 eax, DWORD PTR [esi+4]
  0000a	3b 46 08	 cmp	 eax, DWORD PTR [esi+8]
  0000d	74 40		 je	 SHORT $LN2@AddSendNet

; 515  : 		return;
; 516  : 
; 517  : 	if( m_vCustomSoundInfoList[0]->m_dwUserIndex != g_MyInfo.GetUserIndex() )

  0000f	57		 push	 edi
  00010	8b f8		 mov	 edi, eax
  00012	e8 00 00 00 00	 call	 ?GetSingleton@ioMyInfo@@SAAAV1@XZ ; ioMyInfo::GetSingleton
  00017	8b 0f		 mov	 ecx, DWORD PTR [edi]
  00019	8b 09		 mov	 ecx, DWORD PTR [ecx]
  0001b	5f		 pop	 edi
  0001c	3b 48 08	 cmp	 ecx, DWORD PTR [eax+8]
  0001f	75 2e		 jne	 SHORT $LN2@AddSendNet

; 518  : 		return;
; 519  : 
; 520  : 	CustomSoundDataMap::iterator iter = m_vCustomSoundInfoList[0]->m_CustomSoundDataMap.find( dwCustomSoundIndex );

  00021	8b 46 04	 mov	 eax, DWORD PTR [esi+4]
  00024	8b 30		 mov	 esi, DWORD PTR [eax]
  00026	8d 45 08	 lea	 eax, DWORD PTR _dwCustomSoundIndex$[ebp]
  00029	50		 push	 eax
  0002a	8d 45 fc	 lea	 eax, DWORD PTR _iter$[ebp]
  0002d	50		 push	 eax
  0002e	8d 4e 14	 lea	 ecx, DWORD PTR [esi+20]
  00031	e8 00 00 00 00	 call	 ?find@?$_Tree@V?$_Tmap_traits@KPAVCustomSoundData@@U?$less@K@std@@V?$allocator@U?$pair@$$CBKPAVCustomSoundData@@@std@@@3@$0A@@std@@@std@@QAE?AV?$_Tree_iterator@V?$_Tree_val@V?$_Tmap_traits@KPAVCustomSoundData@@U?$less@K@std@@V?$allocator@U?$pair@$$CBKPAVCustomSoundData@@@std@@@3@$0A@@std@@@std@@@2@ABK@Z ; std::_Tree<std::_Tmap_traits<unsigned long,CustomSoundData *,std::less<unsigned long>,std::allocator<std::pair<unsigned long const ,CustomSoundData *> >,0> >::find

; 521  : 
; 522  : 	if( iter!=m_vCustomSoundInfoList[0]->m_CustomSoundDataMap.end() )

  00036	8b 45 fc	 mov	 eax, DWORD PTR _iter$[ebp]
  00039	3b 46 18	 cmp	 eax, DWORD PTR [esi+24]
  0003c	74 11		 je	 SHORT $LN2@AddSendNet

; 523  : 	{
; 524  : 		CustomSoundData *pData = iter->second;

  0003e	8b 40 10	 mov	 eax, DWORD PTR [eax+16]

; 525  : 		if( !pData )

  00041	85 c0		 test	 eax, eax
  00043	74 0a		 je	 SHORT $LN2@AddSendNet

; 526  : 			return;
; 527  : 		pData->AddNetworkInfo( dwUserIndex );

  00045	ff 75 0c	 push	 DWORD PTR _dwUserIndex$[ebp]
  00048	8b c8		 mov	 ecx, eax
  0004a	e8 00 00 00 00	 call	 ?AddNetworkInfo@CustomSoundData@@QAEXK@Z ; CustomSoundData::AddNetworkInfo
$LN2@AddSendNet:
  0004f	5e		 pop	 esi

; 528  : 	}
; 529  : }

  00050	c9		 leave
  00051	c2 08 00	 ret	 8
?AddSendNetworkInfo@ioCustomSoundMgr@@QAEXKK@Z ENDP	; ioCustomSoundMgr::AddSendNetworkInfo
_TEXT	ENDS
PUBLIC	?push_back@?$vector@VioHashString@@V?$allocator@VioHashString@@@std@@@std@@QAEX$$QAVioHashString@@@Z ; std::vector<ioHashString,std::allocator<ioHashString> >::push_back
; Function compile flags: /Ogsp
; File c:\program files (x86)\microsoft visual studio 10.0\vc\include\vector
;	COMDAT ?push_back@?$vector@VioHashString@@V?$allocator@VioHashString@@@std@@@std@@QAEX$$QAVioHashString@@@Z
_TEXT	SEGMENT
__Val$ = 8						; size = 4
?push_back@?$vector@VioHashString@@V?$allocator@VioHashString@@@std@@@std@@QAEX$$QAVioHashString@@@Z PROC ; std::vector<ioHashString,std::allocator<ioHashString> >::push_back, COMDAT
; _this$ = ecx

; 631  : 		{	// insert element at end

  00000	55		 push	 ebp
  00001	8b ec		 mov	 ebp, esp
  00003	56		 push	 esi
  00004	8b f1		 mov	 esi, ecx

; 632  : 		if (_Inside(_STD addressof(_Val)))

  00006	8b 46 04	 mov	 eax, DWORD PTR [esi+4]
  00009	57		 push	 edi
  0000a	8b 7d 08	 mov	 edi, DWORD PTR __Val$[ebp]
  0000d	3b f8		 cmp	 edi, eax
  0000f	73 1d		 jae	 SHORT $LN4@push_back@3
  00011	8b 0e		 mov	 ecx, DWORD PTR [esi]
  00013	3b cf		 cmp	 ecx, edi
  00015	77 17		 ja	 SHORT $LN4@push_back@3

; 633  : 			{	// push back an element
; 634  : 			size_type _Idx = _STD addressof(_Val) - this->_Myfirst;

  00017	2b f9		 sub	 edi, ecx

; 635  : 			if (this->_Mylast == this->_Myend)

  00019	3b 46 08	 cmp	 eax, DWORD PTR [esi+8]
  0001c	75 09		 jne	 SHORT $LN3@push_back@3

; 636  : 				_Reserve(1);

  0001e	6a 01		 push	 1
  00020	8b ce		 mov	 ecx, esi
  00022	e8 00 00 00 00	 call	 ?_Reserve@?$vector@VioHashString@@V?$allocator@VioHashString@@@std@@@std@@IAEXI@Z ; std::vector<ioHashString,std::allocator<ioHashString> >::_Reserve
$LN3@push_back@3:

; 637  : 			_Orphan_range(this->_Mylast, this->_Mylast);
; 638  : 			_Cons_val(this->_Alval,
; 639  : 				this->_Mylast,
; 640  : 				_STD forward<_Ty>(this->_Myfirst[_Idx]));

  00027	83 e7 f0	 and	 edi, -16		; fffffff0H
  0002a	03 3e		 add	 edi, DWORD PTR [esi]

; 641  : 			++this->_Mylast;
; 642  : 			}
; 643  : 		else

  0002c	eb 0e		 jmp	 SHORT $LN1@push_back@3
$LN4@push_back@3:

; 644  : 			{	// push back a non-element
; 645  : 			if (this->_Mylast == this->_Myend)

  0002e	3b 46 08	 cmp	 eax, DWORD PTR [esi+8]
  00031	75 09		 jne	 SHORT $LN1@push_back@3

; 646  : 				_Reserve(1);

  00033	6a 01		 push	 1
  00035	8b ce		 mov	 ecx, esi
  00037	e8 00 00 00 00	 call	 ?_Reserve@?$vector@VioHashString@@V?$allocator@VioHashString@@@std@@@std@@IAEXI@Z ; std::vector<ioHashString,std::allocator<ioHashString> >::_Reserve
$LN1@push_back@3:

; 647  : 			_Orphan_range(this->_Mylast, this->_Mylast);
; 648  : 			_Cons_val(this->_Alval,
; 649  : 				this->_Mylast,
; 650  : 				_STD forward<_Ty>(_Val));

  0003c	57		 push	 edi
  0003d	ff 76 04	 push	 DWORD PTR [esi+4]
  00040	8d 4e 0c	 lea	 ecx, DWORD PTR [esi+12]
  00043	e8 00 00 00 00	 call	 ?construct@?$allocator@VioHashString@@@std@@QAEXPAVioHashString@@$$QAV3@@Z ; std::allocator<ioHashString>::construct

; 651  : 			++this->_Mylast;

  00048	83 46 04 10	 add	 DWORD PTR [esi+4], 16	; 00000010H
  0004c	5f		 pop	 edi
  0004d	5e		 pop	 esi

; 652  : 			}
; 653  : 		}

  0004e	5d		 pop	 ebp
  0004f	c2 04 00	 ret	 4
?push_back@?$vector@VioHashString@@V?$allocator@VioHashString@@@std@@@std@@QAEX$$QAVioHashString@@@Z ENDP ; std::vector<ioHashString,std::allocator<ioHashString> >::push_back
_TEXT	ENDS
PUBLIC	?push_back@?$vector@VioHashString@@V?$allocator@VioHashString@@@std@@@std@@QAEXABVioHashString@@@Z ; std::vector<ioHashString,std::allocator<ioHashString> >::push_back
; Function compile flags: /Ogsp
;	COMDAT ?push_back@?$vector@VioHashString@@V?$allocator@VioHashString@@@std@@@std@@QAEXABVioHashString@@@Z
_TEXT	SEGMENT
__Val$ = 8						; size = 4
?push_back@?$vector@VioHashString@@V?$allocator@VioHashString@@@std@@@std@@QAEXABVioHashString@@@Z PROC ; std::vector<ioHashString,std::allocator<ioHashString> >::push_back, COMDAT
; _this$ = ecx

; 976  : 		{	// insert element at end

  00000	55		 push	 ebp
  00001	8b ec		 mov	 ebp, esp
  00003	56		 push	 esi
  00004	8b f1		 mov	 esi, ecx

; 977  : 		if (_Inside(_STD addressof(_Val)))

  00006	8b 46 04	 mov	 eax, DWORD PTR [esi+4]
  00009	57		 push	 edi
  0000a	8b 7d 08	 mov	 edi, DWORD PTR __Val$[ebp]
  0000d	3b f8		 cmp	 edi, eax
  0000f	73 29		 jae	 SHORT $LN4@push_back@4
  00011	8b 0e		 mov	 ecx, DWORD PTR [esi]
  00013	3b cf		 cmp	 ecx, edi
  00015	77 23		 ja	 SHORT $LN4@push_back@4

; 978  : 			{	// push back an element
; 979  : 			size_type _Idx = _STD addressof(_Val) - this->_Myfirst;

  00017	2b f9		 sub	 edi, ecx

; 980  : 			if (this->_Mylast == this->_Myend)

  00019	3b 46 08	 cmp	 eax, DWORD PTR [esi+8]
  0001c	75 09		 jne	 SHORT $LN3@push_back@4

; 981  : 				_Reserve(1);

  0001e	6a 01		 push	 1
  00020	8b ce		 mov	 ecx, esi
  00022	e8 00 00 00 00	 call	 ?_Reserve@?$vector@VioHashString@@V?$allocator@VioHashString@@@std@@@std@@IAEXI@Z ; std::vector<ioHashString,std::allocator<ioHashString> >::_Reserve
$LN3@push_back@4:

; 982  : 			_Orphan_range(this->_Mylast, this->_Mylast);
; 983  : 			_Cons_val(this->_Alval,
; 984  : 				this->_Mylast,
; 985  : 				this->_Myfirst[_Idx]);

  00027	83 e7 f0	 and	 edi, -16		; fffffff0H
  0002a	03 3e		 add	 edi, DWORD PTR [esi]
  0002c	8d 4e 0c	 lea	 ecx, DWORD PTR [esi+12]
  0002f	57		 push	 edi
  00030	ff 76 04	 push	 DWORD PTR [esi+4]
  00033	e8 00 00 00 00	 call	 ??$construct@AAVioHashString@@@?$allocator@VioHashString@@@std@@QAEXPAVioHashString@@AAV2@@Z ; std::allocator<ioHashString>::construct<ioHashString &>

; 986  : 			++this->_Mylast;
; 987  : 			}
; 988  : 		else

  00038	eb 19		 jmp	 SHORT $LN30@push_back@4
$LN4@push_back@4:

; 989  : 			{	// push back a non-element
; 990  : 			if (this->_Mylast == this->_Myend)

  0003a	3b 46 08	 cmp	 eax, DWORD PTR [esi+8]
  0003d	75 09		 jne	 SHORT $LN1@push_back@4

; 991  : 				_Reserve(1);

  0003f	6a 01		 push	 1
  00041	8b ce		 mov	 ecx, esi
  00043	e8 00 00 00 00	 call	 ?_Reserve@?$vector@VioHashString@@V?$allocator@VioHashString@@@std@@@std@@IAEXI@Z ; std::vector<ioHashString,std::allocator<ioHashString> >::_Reserve
$LN1@push_back@4:

; 992  : 			_Orphan_range(this->_Mylast, this->_Mylast);
; 993  : 			_Cons_val(this->_Alval,
; 994  : 				this->_Mylast,
; 995  : 				_Val);

  00048	57		 push	 edi
  00049	ff 76 04	 push	 DWORD PTR [esi+4]
  0004c	e8 00 00 00 00	 call	 ??$_Construct@VioHashString@@ABV1@@std@@YAXPAVioHashString@@ABV1@@Z ; std::_Construct<ioHashString,ioHashString const &>
  00051	59		 pop	 ecx
  00052	59		 pop	 ecx
$LN30@push_back@4:

; 996  : 			++this->_Mylast;

  00053	83 46 04 10	 add	 DWORD PTR [esi+4], 16	; 00000010H
  00057	5f		 pop	 edi
  00058	5e		 pop	 esi

; 997  : 			}
; 998  : 		}

  00059	5d		 pop	 ebp
  0005a	c2 04 00	 ret	 4
?push_back@?$vector@VioHashString@@V?$allocator@VioHashString@@@std@@@std@@QAEXABVioHashString@@@Z ENDP ; std::vector<ioHashString,std::allocator<ioHashString> >::push_back
_TEXT	ENDS
PUBLIC	??0tagCustomSoundInfo@ioCustomSoundMgr@@QAE@XZ	; ioCustomSoundMgr::tagCustomSoundInfo::tagCustomSoundInfo
;	COMDAT xdata$x
; File c:\program files (x86)\microsoft visual studio 10.0\vc\include\xmemory
xdata$x	SEGMENT
__unwindtable$??0tagCustomSoundInfo@ioCustomSoundMgr@@QAE@XZ DD 0ffffffffH
	DD	FLAT:__unwindfunclet$??0tagCustomSoundInfo@ioCustomSoundMgr@@QAE@XZ$0
__ehfuncinfo$??0tagCustomSoundInfo@ioCustomSoundMgr@@QAE@XZ DD 019930522H
	DD	01H
	DD	FLAT:__unwindtable$??0tagCustomSoundInfo@ioCustomSoundMgr@@QAE@XZ
	DD	2 DUP(00H)
	DD	2 DUP(00H)
	DD	00H
	DD	01H
; Function compile flags: /Ogsp
; File d:\lost saga for developer\youtube\tutorial\source\src\lsclient\iocustomsoundmgr.h
xdata$x	ENDS
;	COMDAT ??0tagCustomSoundInfo@ioCustomSoundMgr@@QAE@XZ
_TEXT	SEGMENT
$T520450 = -24						; size = 4
$T520462 = -24						; size = 4
_this$ = -20						; size = 4
$T520458 = -13						; size = 1
__$EHRec$ = -12						; size = 12
??0tagCustomSoundInfo@ioCustomSoundMgr@@QAE@XZ PROC	; ioCustomSoundMgr::tagCustomSoundInfo::tagCustomSoundInfo, COMDAT
; _this$ = ecx

; 77   : 		tagCustomSoundInfo()

  00000	6a 0c		 push	 12			; 0000000cH
  00002	b8 00 00 00 00	 mov	 eax, __ehhandler$??0tagCustomSoundInfo@ioCustomSoundMgr@@QAE@XZ
  00007	e8 00 00 00 00	 call	 __EH_prolog3
  0000c	8b f1		 mov	 esi, ecx
  0000e	89 75 ec	 mov	 DWORD PTR _this$[ebp], esi
  00011	8d 4e 04	 lea	 ecx, DWORD PTR [esi+4]
  00014	ff 15 00 00 00
	00		 call	 DWORD PTR __imp_??0ioHashString@@QAE@XZ
  0001a	83 65 fc 00	 and	 DWORD PTR __$EHRec$[ebp+8], 0
  0001e	8d 4e 14	 lea	 ecx, DWORD PTR [esi+20]
  00021	51		 push	 ecx
  00022	89 65 e8	 mov	 DWORD PTR $T520462[ebp], esp
  00025	8d 45 f3	 lea	 eax, DWORD PTR $T520458[ebp]
  00028	89 65 e8	 mov	 DWORD PTR $T520450[ebp], esp
  0002b	50		 push	 eax
  0002c	e8 00 00 00 00	 call	 ??0?$_Tree_val@V?$_Tmap_traits@KPAVCustomSoundData@@U?$less@K@std@@V?$allocator@U?$pair@$$CBKPAVCustomSoundData@@@std@@@3@$0A@@std@@@std@@QAE@ABU?$less@K@1@V?$allocator@U?$pair@$$CBKPAVCustomSoundData@@@std@@@1@@Z ; std::_Tree_val<std::_Tmap_traits<unsigned long,CustomSoundData *,std::less<unsigned long>,std::allocator<std::pair<unsigned long const ,CustomSoundData *> >,0> >::_Tree_val<std::_Tmap_traits<unsigned long,CustomSoundData *,std::less<unsigned long>,std::allocator<std::pair<unsigned long const ,CustomSoundData *> >,0> >

; 78   : 		{
; 79   : 			m_dwUserIndex = 0;

  00031	83 26 00	 and	 DWORD PTR [esi], 0

; 80   : 		}

  00034	8b c6		 mov	 eax, esi
  00036	e8 00 00 00 00	 call	 __EH_epilog3
  0003b	c3		 ret	 0
_TEXT	ENDS
;	COMDAT text$x
text$x	SEGMENT
__unwindfunclet$??0tagCustomSoundInfo@ioCustomSoundMgr@@QAE@XZ$0:
  00000	8b 4d ec	 mov	 ecx, DWORD PTR _this$[ebp]
  00003	83 c1 04	 add	 ecx, 4
  00006	ff 25 00 00 00
	00		 jmp	 DWORD PTR __imp_??1ioHashString@@QAE@XZ
__ehhandler$??0tagCustomSoundInfo@ioCustomSoundMgr@@QAE@XZ:
  0000c	8b 54 24 08	 mov	 edx, DWORD PTR [esp+8]
  00010	8d 42 0c	 lea	 eax, DWORD PTR [edx+12]
  00013	8b 4a e4	 mov	 ecx, DWORD PTR [edx-28]
  00016	33 c8		 xor	 ecx, eax
  00018	e8 00 00 00 00	 call	 @__security_check_cookie@4
  0001d	b8 00 00 00 00	 mov	 eax, OFFSET __ehfuncinfo$??0tagCustomSoundInfo@ioCustomSoundMgr@@QAE@XZ
  00022	e9 00 00 00 00	 jmp	 ___CxxFrameHandler3
text$x	ENDS
??0tagCustomSoundInfo@ioCustomSoundMgr@@QAE@XZ ENDP	; ioCustomSoundMgr::tagCustomSoundInfo::tagCustomSoundInfo
; Function compile flags: /Ogsp
;	COMDAT ??_GCustomSoundData@@UAEPAXI@Z
_TEXT	SEGMENT
___flags$ = 8						; size = 4
??_GCustomSoundData@@UAEPAXI@Z PROC			; CustomSoundData::`scalar deleting destructor', COMDAT
; _this$ = ecx
  00000	55		 push	 ebp
  00001	8b ec		 mov	 ebp, esp
  00003	56		 push	 esi
  00004	8b f1		 mov	 esi, ecx
  00006	e8 00 00 00 00	 call	 ??1CustomSoundData@@UAE@XZ ; CustomSoundData::~CustomSoundData
  0000b	f6 45 08 01	 test	 BYTE PTR ___flags$[ebp], 1
  0000f	74 07		 je	 SHORT $LN1@scalar@4
  00011	56		 push	 esi
  00012	e8 00 00 00 00	 call	 ??3@YAXPAX@Z		; operator delete
  00017	59		 pop	 ecx
$LN1@scalar@4:
  00018	8b c6		 mov	 eax, esi
  0001a	5e		 pop	 esi
  0001b	5d		 pop	 ebp
  0001c	c2 04 00	 ret	 4
??_GCustomSoundData@@UAEPAXI@Z ENDP			; CustomSoundData::`scalar deleting destructor'
_TEXT	ENDS
PUBLIC	??_GtagCustomSoundInfo@ioCustomSoundMgr@@QAEPAXI@Z ; ioCustomSoundMgr::tagCustomSoundInfo::`scalar deleting destructor'
; Function compile flags: /Ogsp
;	COMDAT ??_GtagCustomSoundInfo@ioCustomSoundMgr@@QAEPAXI@Z
_TEXT	SEGMENT
___flags$ = 8						; size = 4
??_GtagCustomSoundInfo@ioCustomSoundMgr@@QAEPAXI@Z PROC	; ioCustomSoundMgr::tagCustomSoundInfo::`scalar deleting destructor', COMDAT
; _this$ = ecx
  00000	55		 push	 ebp
  00001	8b ec		 mov	 ebp, esp
  00003	56		 push	 esi
  00004	8b f1		 mov	 esi, ecx
  00006	e8 00 00 00 00	 call	 ??1tagCustomSoundInfo@ioCustomSoundMgr@@QAE@XZ
  0000b	f6 45 08 01	 test	 BYTE PTR ___flags$[ebp], 1
  0000f	74 07		 je	 SHORT $LN1@scalar@5
  00011	56		 push	 esi
  00012	e8 00 00 00 00	 call	 ??3@YAXPAX@Z		; operator delete
  00017	59		 pop	 ecx
$LN1@scalar@5:
  00018	8b c6		 mov	 eax, esi
  0001a	5e		 pop	 esi
  0001b	5d		 pop	 ebp
  0001c	c2 04 00	 ret	 4
??_GtagCustomSoundInfo@ioCustomSoundMgr@@QAEPAXI@Z ENDP	; ioCustomSoundMgr::tagCustomSoundInfo::`scalar deleting destructor'
_TEXT	ENDS
PUBLIC	?AddCustomSoundData@ioCustomSoundMgr@@QAEXKABVioHashString@@KK@Z ; ioCustomSoundMgr::AddCustomSoundData
;	COMDAT xdata$x
; File c:\program files (x86)\microsoft visual studio 10.0\vc\include\utility
xdata$x	SEGMENT
__unwindtable$?AddCustomSoundData@ioCustomSoundMgr@@QAEXKABVioHashString@@KK@Z DD 0ffffffffH
	DD	FLAT:__unwindfunclet$?AddCustomSoundData@ioCustomSoundMgr@@QAEXKABVioHashString@@KK@Z$0
	DD	0ffffffffH
	DD	FLAT:__unwindfunclet$?AddCustomSoundData@ioCustomSoundMgr@@QAEXKABVioHashString@@KK@Z$1
	DD	0ffffffffH
	DD	FLAT:__unwindfunclet$?AddCustomSoundData@ioCustomSoundMgr@@QAEXKABVioHashString@@KK@Z$2
__ehfuncinfo$?AddCustomSoundData@ioCustomSoundMgr@@QAEXKABVioHashString@@KK@Z DD 019930522H
	DD	03H
	DD	FLAT:__unwindtable$?AddCustomSoundData@ioCustomSoundMgr@@QAEXKABVioHashString@@KK@Z
	DD	2 DUP(00H)
	DD	2 DUP(00H)
	DD	00H
	DD	01H
; Function compile flags: /Ogsp
; File d:\lost saga for developer\youtube\tutorial\source\src\lsclient\iocustomsoundmgr.cpp
xdata$x	ENDS
;	COMDAT ?AddCustomSoundData@ioCustomSoundMgr@@QAEXKABVioHashString@@KK@Z
_TEXT	SEGMENT
$T520496 = -28						; size = 8
$T520495 = -28						; size = 8
$T520486 = -28						; size = 8
$T520485 = -20						; size = 8
$T520488 = -16						; size = 4
_pInfo$ = -16						; size = 4
__$EHRec$ = -12						; size = 12
_dwUserIndex$ = 8					; size = 4
$T520492 = 12						; size = 4
$T520482 = 12						; size = 4
_iter2$506405 = 12					; size = 4
_rszPublicID$ = 12					; size = 4
_dwCustomSoundIndex$ = 16				; size = 4
_dwCustomSoundSize$ = 20				; size = 4
?AddCustomSoundData@ioCustomSoundMgr@@QAEXKABVioHashString@@KK@Z PROC ; ioCustomSoundMgr::AddCustomSoundData, COMDAT
; _this$ = ecx

; 532  : {

  00000	6a 10		 push	 16			; 00000010H
  00002	b8 00 00 00 00	 mov	 eax, __ehhandler$?AddCustomSoundData@ioCustomSoundMgr@@QAEXKABVioHashString@@KK@Z
  00007	e8 00 00 00 00	 call	 __EH_prolog3
  0000c	8b d9		 mov	 ebx, ecx

; 533  : 	// check
; 534  : 	if( dwCustomSoundIndex == 0 )

  0000e	83 7d 10 00	 cmp	 DWORD PTR _dwCustomSoundIndex$[ebp], 0
  00012	0f 84 59 01 00
	00		 je	 $LN8@AddCustomS

; 535  : 		return;
; 536  : 	if( dwCustomSoundSize == 0 )

  00018	83 7d 14 00	 cmp	 DWORD PTR _dwCustomSoundSize$[ebp], 0
  0001c	0f 84 4f 01 00
	00		 je	 $LN8@AddCustomS

; 537  : 		return;
; 538  : 
; 539  : 	CustomSoundInfo *pInfo = GetCustomSoundInfoPtr( dwUserIndex );

  00022	8b 7d 08	 mov	 edi, DWORD PTR _dwUserIndex$[ebp]
  00025	57		 push	 edi
  00026	e8 00 00 00 00	 call	 ?GetCustomSoundInfoPtr@ioCustomSoundMgr@@IAEPAUtagCustomSoundInfo@1@K@Z ; ioCustomSoundMgr::GetCustomSoundInfoPtr
  0002b	8b f0		 mov	 esi, eax

; 540  : 	if( pInfo )

  0002d	85 f6		 test	 esi, esi
  0002f	0f 84 91 00 00
	00		 je	 $LN5@AddCustomS

; 541  : 	{
; 542  : 		CustomSoundDataMap::iterator iter2 = pInfo->m_CustomSoundDataMap.find( dwCustomSoundIndex );

  00035	8d 45 10	 lea	 eax, DWORD PTR _dwCustomSoundIndex$[ebp]
  00038	50		 push	 eax
  00039	8d 45 0c	 lea	 eax, DWORD PTR _iter2$506405[ebp]
  0003c	8d 7e 14	 lea	 edi, DWORD PTR [esi+20]
  0003f	50		 push	 eax
  00040	8b cf		 mov	 ecx, edi
  00042	e8 00 00 00 00	 call	 ?find@?$_Tree@V?$_Tmap_traits@KPAVCustomSoundData@@U?$less@K@std@@V?$allocator@U?$pair@$$CBKPAVCustomSoundData@@@std@@@3@$0A@@std@@@std@@QAE?AV?$_Tree_iterator@V?$_Tree_val@V?$_Tmap_traits@KPAVCustomSoundData@@U?$less@K@std@@V?$allocator@U?$pair@$$CBKPAVCustomSoundData@@@std@@@3@$0A@@std@@@std@@@2@ABK@Z ; std::_Tree<std::_Tmap_traits<unsigned long,CustomSoundData *,std::less<unsigned long>,std::allocator<std::pair<unsigned long const ,CustomSoundData *> >,0> >::find

; 543  : 		if( iter2 == pInfo->m_CustomSoundDataMap.end() && 
; 544  : 			(int)pInfo->m_CustomSoundDataMap.size() < m_iMaxCustomData )

  00047	8b 46 18	 mov	 eax, DWORD PTR [esi+24]
  0004a	39 45 0c	 cmp	 DWORD PTR _iter2$506405[ebp], eax
  0004d	0f 85 1e 01 00
	00		 jne	 $LN8@AddCustomS
  00053	8b 76 1c	 mov	 esi, DWORD PTR [esi+28]
  00056	3b 73 24	 cmp	 esi, DWORD PTR [ebx+36]
  00059	0f 8d 12 01 00
	00		 jge	 $LN8@AddCustomS

; 545  : 		{
; 546  : 			CustomSoundData *pData = new CustomSoundData;

  0005f	6a 40		 push	 64			; 00000040H
  00061	e8 00 00 00 00	 call	 ??2@YAPAXI@Z		; operator new
  00066	59		 pop	 ecx
  00067	89 45 0c	 mov	 DWORD PTR $T520482[ebp], eax
  0006a	83 65 fc 00	 and	 DWORD PTR __$EHRec$[ebp+8], 0
  0006e	85 c0		 test	 eax, eax
  00070	74 0b		 je	 SHORT $LN10@AddCustomS
  00072	8b c8		 mov	 ecx, eax
  00074	e8 00 00 00 00	 call	 ??0CustomSoundData@@QAE@XZ ; CustomSoundData::CustomSoundData
  00079	8b f0		 mov	 esi, eax
  0007b	eb 02		 jmp	 SHORT $LN11@AddCustomS
$LN10@AddCustomS:
  0007d	33 f6		 xor	 esi, esi
$LN11@AddCustomS:
  0007f	83 4d fc ff	 or	 DWORD PTR __$EHRec$[ebp+8], -1

; 547  : 			if( !pData )

  00083	85 f6		 test	 esi, esi
  00085	0f 84 e6 00 00
	00		 je	 $LN8@AddCustomS

; 548  : 				return;
; 549  : 
; 550  : 			pData->NewData( dwCustomSoundSize );

  0008b	ff 75 14	 push	 DWORD PTR _dwCustomSoundSize$[ebp]
  0008e	8b ce		 mov	 ecx, esi
  00090	e8 00 00 00 00	 call	 ?NewData@CustomSoundData@@QAEXK@Z ; CustomSoundData::NewData

; 551  : 			pData->AddNetworkInfo( dwUserIndex );

  00095	ff 75 08	 push	 DWORD PTR _dwUserIndex$[ebp]
  00098	8b ce		 mov	 ecx, esi
  0009a	e8 00 00 00 00	 call	 ?AddNetworkInfo@CustomSoundData@@QAEXK@Z ; CustomSoundData::AddNetworkInfo

; 552  : 			pInfo->m_CustomSoundDataMap.insert( CustomSoundDataMap::value_type(dwCustomSoundIndex, pData) );

  0009f	8b 45 10	 mov	 eax, DWORD PTR _dwCustomSoundIndex$[ebp]
  000a2	89 45 ec	 mov	 DWORD PTR $T520485[ebp], eax
  000a5	6a 00		 push	 0
  000a7	8d 45 ec	 lea	 eax, DWORD PTR $T520485[ebp]
  000aa	50		 push	 eax
  000ab	8b cf		 mov	 ecx, edi
  000ad	89 75 f0	 mov	 DWORD PTR $T520485[ebp+4], esi
  000b0	e8 00 00 00 00	 call	 ??$_Buynode@U?$pair@$$CBKPAVCustomSoundData@@@std@@@?$_Tree_val@V?$_Tmap_traits@KPAVCustomSoundData@@U?$less@K@std@@V?$allocator@U?$pair@$$CBKPAVCustomSoundData@@@std@@@3@$0A@@std@@@std@@QAEPAU_Node@?$_Tree_nod@V?$_Tmap_traits@KPAVCustomSoundData@@U?$less@K@std@@V?$allocator@U?$pair@$$CBKPAVCustomSoundData@@@std@@@3@$0A@@std@@@1@$$QAU?$pair@$$CBKPAVCustomSoundData@@@1@@Z ; std::_Tree_val<std::_Tmap_traits<unsigned long,CustomSoundData *,std::less<unsigned long>,std::allocator<std::pair<unsigned long const ,CustomSoundData *> >,0> >::_Buynode<std::pair<unsigned long const ,CustomSoundData *> >
  000b5	50		 push	 eax
  000b6	8d 45 e4	 lea	 eax, DWORD PTR $T520486[ebp]
  000b9	50		 push	 eax
  000ba	8b cf		 mov	 ecx, edi
  000bc	e8 00 00 00 00	 call	 ?_Linsert@?$_Tree@V?$_Tmap_traits@KPAVCustomSoundData@@U?$less@K@std@@V?$allocator@U?$pair@$$CBKPAVCustomSoundData@@@std@@@3@$0A@@std@@@std@@QAE?AU?$pair@V?$_Tree_iterator@V?$_Tree_val@V?$_Tmap_traits@KPAVCustomSoundData@@U?$less@K@std@@V?$allocator@U?$pair@$$CBKPAVCustomSoundData@@@std@@@3@$0A@@std@@@std@@@std@@_N@2@PAU_Node@?$_Tree_nod@V?$_Tmap_traits@KPAVCustomSoundData@@U?$less@K@std@@V?$allocator@U?$pair@$$CBKPAVCustomSoundData@@@std@@@3@$0A@@std@@@2@_N@Z ; std::_Tree<std::_Tmap_traits<unsigned long,CustomSoundData *,std::less<unsigned long>,std::allocator<std::pair<unsigned long const ,CustomSoundData *> >,0> >::_Linsert

; 553  : 		}
; 554  : 		return;

  000c1	e9 ab 00 00 00	 jmp	 $LN8@AddCustomS
$LN5@AddCustomS:

; 555  : 	}
; 556  : 
; 557  : 	pInfo = new CustomSoundInfo;

  000c6	6a 24		 push	 36			; 00000024H
  000c8	e8 00 00 00 00	 call	 ??2@YAPAXI@Z		; operator new
  000cd	59		 pop	 ecx
  000ce	89 45 f0	 mov	 DWORD PTR $T520488[ebp], eax
  000d1	c7 45 fc 01 00
	00 00		 mov	 DWORD PTR __$EHRec$[ebp+8], 1
  000d8	85 c0		 test	 eax, eax
  000da	74 0b		 je	 SHORT $LN12@AddCustomS
  000dc	8b c8		 mov	 ecx, eax
  000de	e8 00 00 00 00	 call	 ??0tagCustomSoundInfo@ioCustomSoundMgr@@QAE@XZ ; ioCustomSoundMgr::tagCustomSoundInfo::tagCustomSoundInfo
  000e3	8b f0		 mov	 esi, eax
  000e5	eb 02		 jmp	 SHORT $LN13@AddCustomS
$LN12@AddCustomS:
  000e7	33 f6		 xor	 esi, esi
$LN13@AddCustomS:
  000e9	83 4d fc ff	 or	 DWORD PTR __$EHRec$[ebp+8], -1
  000ed	89 75 f0	 mov	 DWORD PTR _pInfo$[ebp], esi

; 558  : 	if( !pInfo )

  000f0	85 f6		 test	 esi, esi
  000f2	74 7d		 je	 SHORT $LN8@AddCustomS

; 559  : 		return;
; 560  : 
; 561  : 	pInfo->m_dwUserIndex = dwUserIndex;
; 562  : 	pInfo->m_szPublicID  = rszPublicID;

  000f4	ff 75 0c	 push	 DWORD PTR _rszPublicID$[ebp]
  000f7	8d 4e 04	 lea	 ecx, DWORD PTR [esi+4]
  000fa	89 3e		 mov	 DWORD PTR [esi], edi
  000fc	ff 15 00 00 00
	00		 call	 DWORD PTR __imp_??4ioHashString@@QAEAAV0@ABV0@@Z

; 563  : 
; 564  : 	CustomSoundData *pData = new CustomSoundData;

  00102	6a 40		 push	 64			; 00000040H
  00104	e8 00 00 00 00	 call	 ??2@YAPAXI@Z		; operator new
  00109	59		 pop	 ecx
  0010a	89 45 0c	 mov	 DWORD PTR $T520492[ebp], eax
  0010d	c7 45 fc 02 00
	00 00		 mov	 DWORD PTR __$EHRec$[ebp+8], 2
  00114	85 c0		 test	 eax, eax
  00116	74 0b		 je	 SHORT $LN14@AddCustomS
  00118	8b c8		 mov	 ecx, eax
  0011a	e8 00 00 00 00	 call	 ??0CustomSoundData@@QAE@XZ ; CustomSoundData::CustomSoundData
  0011f	8b f8		 mov	 edi, eax
  00121	eb 02		 jmp	 SHORT $LN15@AddCustomS
$LN14@AddCustomS:
  00123	33 ff		 xor	 edi, edi
$LN15@AddCustomS:
  00125	83 4d fc ff	 or	 DWORD PTR __$EHRec$[ebp+8], -1

; 565  : 	if( !pData )

  00129	85 ff		 test	 edi, edi
  0012b	74 44		 je	 SHORT $LN8@AddCustomS

; 566  : 		return;
; 567  : 
; 568  : 	pData->NewData( dwCustomSoundSize );

  0012d	ff 75 14	 push	 DWORD PTR _dwCustomSoundSize$[ebp]
  00130	8b cf		 mov	 ecx, edi
  00132	e8 00 00 00 00	 call	 ?NewData@CustomSoundData@@QAEXK@Z ; CustomSoundData::NewData

; 569  : 	pData->AddNetworkInfo( dwUserIndex );

  00137	ff 75 08	 push	 DWORD PTR _dwUserIndex$[ebp]
  0013a	8b cf		 mov	 ecx, edi
  0013c	e8 00 00 00 00	 call	 ?AddNetworkInfo@CustomSoundData@@QAEXK@Z ; CustomSoundData::AddNetworkInfo

; 570  : 	pInfo->m_CustomSoundDataMap.insert( CustomSoundDataMap::value_type(dwCustomSoundIndex, pData) );

  00141	8b 45 10	 mov	 eax, DWORD PTR _dwCustomSoundIndex$[ebp]
  00144	89 45 e4	 mov	 DWORD PTR $T520495[ebp], eax
  00147	6a 00		 push	 0
  00149	8d 45 e4	 lea	 eax, DWORD PTR $T520495[ebp]
  0014c	50		 push	 eax
  0014d	8d 4e 14	 lea	 ecx, DWORD PTR [esi+20]
  00150	89 7d e8	 mov	 DWORD PTR $T520495[ebp+4], edi
  00153	e8 00 00 00 00	 call	 ??$_Buynode@U?$pair@$$CBKPAVCustomSoundData@@@std@@@?$_Tree_val@V?$_Tmap_traits@KPAVCustomSoundData@@U?$less@K@std@@V?$allocator@U?$pair@$$CBKPAVCustomSoundData@@@std@@@3@$0A@@std@@@std@@QAEPAU_Node@?$_Tree_nod@V?$_Tmap_traits@KPAVCustomSoundData@@U?$less@K@std@@V?$allocator@U?$pair@$$CBKPAVCustomSoundData@@@std@@@3@$0A@@std@@@1@$$QAU?$pair@$$CBKPAVCustomSoundData@@@1@@Z ; std::_Tree_val<std::_Tmap_traits<unsigned long,CustomSoundData *,std::less<unsigned long>,std::allocator<std::pair<unsigned long const ,CustomSoundData *> >,0> >::_Buynode<std::pair<unsigned long const ,CustomSoundData *> >
  00158	50		 push	 eax
  00159	8d 45 e4	 lea	 eax, DWORD PTR $T520496[ebp]
  0015c	50		 push	 eax
  0015d	8d 4e 14	 lea	 ecx, DWORD PTR [esi+20]
  00160	e8 00 00 00 00	 call	 ?_Linsert@?$_Tree@V?$_Tmap_traits@KPAVCustomSoundData@@U?$less@K@std@@V?$allocator@U?$pair@$$CBKPAVCustomSoundData@@@std@@@3@$0A@@std@@@std@@QAE?AU?$pair@V?$_Tree_iterator@V?$_Tree_val@V?$_Tmap_traits@KPAVCustomSoundData@@U?$less@K@std@@V?$allocator@U?$pair@$$CBKPAVCustomSoundData@@@std@@@3@$0A@@std@@@std@@@std@@_N@2@PAU_Node@?$_Tree_nod@V?$_Tmap_traits@KPAVCustomSoundData@@U?$less@K@std@@V?$allocator@U?$pair@$$CBKPAVCustomSoundData@@@std@@@3@$0A@@std@@@2@_N@Z ; std::_Tree<std::_Tmap_traits<unsigned long,CustomSoundData *,std::less<unsigned long>,std::allocator<std::pair<unsigned long const ,CustomSoundData *> >,0> >::_Linsert

; 571  : 
; 572  : 	m_vCustomSoundInfoList.push_back( pInfo );

  00165	8d 45 f0	 lea	 eax, DWORD PTR _pInfo$[ebp]
  00168	50		 push	 eax
  00169	8d 4b 04	 lea	 ecx, DWORD PTR [ebx+4]
  0016c	e8 00 00 00 00	 call	 ?push_back@?$vector@PAUtagCustomSoundInfo@ioCustomSoundMgr@@V?$allocator@PAUtagCustomSoundInfo@ioCustomSoundMgr@@@std@@@std@@QAEXABQAUtagCustomSoundInfo@ioCustomSoundMgr@@@Z ; std::vector<ioCustomSoundMgr::tagCustomSoundInfo *,std::allocator<ioCustomSoundMgr::tagCustomSoundInfo *> >::push_back
$LN8@AddCustomS:

; 573  : }

  00171	e8 00 00 00 00	 call	 __EH_epilog3
  00176	c2 10 00	 ret	 16			; 00000010H
_TEXT	ENDS
;	COMDAT text$x
text$x	SEGMENT
__unwindfunclet$?AddCustomSoundData@ioCustomSoundMgr@@QAEXKABVioHashString@@KK@Z$0:
  00000	ff 75 0c	 push	 DWORD PTR $T520482[ebp]
  00003	e8 00 00 00 00	 call	 ??3@YAXPAX@Z		; operator delete
  00008	59		 pop	 ecx
  00009	c3		 ret	 0
__unwindfunclet$?AddCustomSoundData@ioCustomSoundMgr@@QAEXKABVioHashString@@KK@Z$1:
  0000a	ff 75 f0	 push	 DWORD PTR $T520488[ebp]
  0000d	e8 00 00 00 00	 call	 ??3@YAXPAX@Z		; operator delete
  00012	59		 pop	 ecx
  00013	c3		 ret	 0
__unwindfunclet$?AddCustomSoundData@ioCustomSoundMgr@@QAEXKABVioHashString@@KK@Z$2:
  00014	ff 75 0c	 push	 DWORD PTR $T520492[ebp]
  00017	e8 00 00 00 00	 call	 ??3@YAXPAX@Z		; operator delete
  0001c	59		 pop	 ecx
  0001d	c3		 ret	 0
__ehhandler$?AddCustomSoundData@ioCustomSoundMgr@@QAEXKABVioHashString@@KK@Z:
  0001e	8b 54 24 08	 mov	 edx, DWORD PTR [esp+8]
  00022	8d 42 0c	 lea	 eax, DWORD PTR [edx+12]
  00025	8b 4a e0	 mov	 ecx, DWORD PTR [edx-32]
  00028	33 c8		 xor	 ecx, eax
  0002a	e8 00 00 00 00	 call	 @__security_check_cookie@4
  0002f	b8 00 00 00 00	 mov	 eax, OFFSET __ehfuncinfo$?AddCustomSoundData@ioCustomSoundMgr@@QAEXKABVioHashString@@KK@Z
  00034	e9 00 00 00 00	 jmp	 ___CxxFrameHandler3
text$x	ENDS
?AddCustomSoundData@ioCustomSoundMgr@@QAEXKABVioHashString@@KK@Z ENDP ; ioCustomSoundMgr::AddCustomSoundData
PUBLIC	?ClearExceptMe@ioCustomSoundMgr@@QAEXXZ		; ioCustomSoundMgr::ClearExceptMe
; Function compile flags: /Ogsp
;	COMDAT ?ClearExceptMe@ioCustomSoundMgr@@QAEXXZ
_TEXT	SEGMENT
$T520645 = -12						; size = 4
_this$ = -8						; size = 4
_iter3$506457 = -4					; size = 4
_iter2$506448 = -4					; size = 4
?ClearExceptMe@ioCustomSoundMgr@@QAEXXZ PROC		; ioCustomSoundMgr::ClearExceptMe, COMDAT
; _this$ = ecx

; 576  : {

  00000	55		 push	 ebp
  00001	8b ec		 mov	 ebp, esp
  00003	83 ec 0c	 sub	 esp, 12			; 0000000cH
  00006	53		 push	 ebx
  00007	8b d9		 mov	 ebx, ecx
  00009	57		 push	 edi

; 577  : 	CustomSoundInfoList::iterator iter = m_vCustomSoundInfoList.begin();

  0000a	8b 7b 04	 mov	 edi, DWORD PTR [ebx+4]
  0000d	89 5d f8	 mov	 DWORD PTR _this$[ebp], ebx

; 578  : 	while ( iter != m_vCustomSoundInfoList.end() )

  00010	3b 7b 08	 cmp	 edi, DWORD PTR [ebx+8]
  00013	0f 84 b1 00 00
	00		 je	 $LN13@ClearExcep
  00019	56		 push	 esi
$LL14@ClearExcep:

; 579  : 	{
; 580  : 		CustomSoundInfo *pInfo = *iter;

  0001a	8b 37		 mov	 esi, DWORD PTR [edi]

; 581  : 		if( !pInfo ) continue;

  0001c	85 f6		 test	 esi, esi
  0001e	0f 84 9c 00 00
	00		 je	 $LN6@ClearExcep

; 582  : 
; 583  : 		if( pInfo->m_dwUserIndex == g_MyInfo.GetUserIndex() )

  00024	e8 00 00 00 00	 call	 ?GetSingleton@ioMyInfo@@SAAAV1@XZ ; ioMyInfo::GetSingleton
  00029	8b 0e		 mov	 ecx, DWORD PTR [esi]
  0002b	3b 48 08	 cmp	 ecx, DWORD PTR [eax+8]
  0002e	75 2f		 jne	 SHORT $LN11@ClearExcep

; 584  : 		{
; 585  : 			for(CustomSoundDataMap::iterator iter2 = pInfo->m_CustomSoundDataMap.begin(); iter2 != pInfo->m_CustomSoundDataMap.end(); ++iter2)

  00030	8b 4e 18	 mov	 ecx, DWORD PTR [esi+24]
  00033	8b 01		 mov	 eax, DWORD PTR [ecx]
  00035	89 45 fc	 mov	 DWORD PTR _iter2$506448[ebp], eax
  00038	3b c1		 cmp	 eax, ecx
  0003a	74 1e		 je	 SHORT $LN8@ClearExcep
$LL65@ClearExcep:

; 586  : 			{
; 587  : 				CustomSoundData *pData = iter2->second;

  0003c	8b 40 10	 mov	 eax, DWORD PTR [eax+16]

; 588  : 				if( !pData )

  0003f	85 c0		 test	 eax, eax
  00041	74 07		 je	 SHORT $LN9@ClearExcep

; 589  : 					continue;
; 590  : 				pData->ClearNetworkInfo();

  00043	8b c8		 mov	 ecx, eax
  00045	e8 00 00 00 00	 call	 ?ClearNetworkInfo@CustomSoundData@@QAEXXZ ; CustomSoundData::ClearNetworkInfo
$LN9@ClearExcep:

; 584  : 		{
; 585  : 			for(CustomSoundDataMap::iterator iter2 = pInfo->m_CustomSoundDataMap.begin(); iter2 != pInfo->m_CustomSoundDataMap.end(); ++iter2)

  0004a	8d 4d fc	 lea	 ecx, DWORD PTR _iter2$506448[ebp]
  0004d	e8 00 00 00 00	 call	 ??E?$_Tree_unchecked_const_iterator@V?$_Tree_val@V?$_Tmap_traits@KPAVCustomSoundData@@U?$less@K@std@@V?$allocator@U?$pair@$$CBKPAVCustomSoundData@@@std@@@3@$0A@@std@@@std@@U_Iterator_base0@2@@std@@QAEAAV01@XZ ; std::_Tree_unchecked_const_iterator<std::_Tree_val<std::_Tmap_traits<unsigned long,CustomSoundData *,std::less<unsigned long>,std::allocator<std::pair<unsigned long const ,CustomSoundData *> >,0> >,std::_Iterator_base0>::operator++
  00052	8b 45 fc	 mov	 eax, DWORD PTR _iter2$506448[ebp]
  00055	3b 46 18	 cmp	 eax, DWORD PTR [esi+24]
  00058	75 e2		 jne	 SHORT $LL65@ClearExcep
$LN8@ClearExcep:

; 591  : 			}
; 592  : 			++iter;

  0005a	83 c7 04	 add	 edi, 4

; 593  : 		}
; 594  : 		else

  0005d	eb 61		 jmp	 SHORT $LN6@ClearExcep
$LN11@ClearExcep:

; 595  : 		{
; 596  : 			for(CustomSoundDataMap::iterator iter3 = pInfo->m_CustomSoundDataMap.begin(); iter3 != pInfo->m_CustomSoundDataMap.end(); ++iter3)

  0005f	8b 46 18	 mov	 eax, DWORD PTR [esi+24]
  00062	8b 18		 mov	 ebx, DWORD PTR [eax]
  00064	89 5d fc	 mov	 DWORD PTR _iter3$506457[ebp], ebx
  00067	3b d8		 cmp	 ebx, eax
  00069	74 21		 je	 SHORT $LN3@ClearExcep
$LL109@ClearExcep:

; 597  : 			{
; 598  : 				SAFEDELETE( iter3->second );

  0006b	8b 4b 10	 mov	 ecx, DWORD PTR [ebx+16]
  0006e	85 c9		 test	 ecx, ecx
  00070	74 0a		 je	 SHORT $LN4@ClearExcep
  00072	8b 01		 mov	 eax, DWORD PTR [ecx]
  00074	6a 01		 push	 1
  00076	ff 10		 call	 DWORD PTR [eax]
  00078	83 63 10 00	 and	 DWORD PTR [ebx+16], 0
$LN4@ClearExcep:

; 595  : 		{
; 596  : 			for(CustomSoundDataMap::iterator iter3 = pInfo->m_CustomSoundDataMap.begin(); iter3 != pInfo->m_CustomSoundDataMap.end(); ++iter3)

  0007c	8d 4d fc	 lea	 ecx, DWORD PTR _iter3$506457[ebp]
  0007f	e8 00 00 00 00	 call	 ??E?$_Tree_unchecked_const_iterator@V?$_Tree_val@V?$_Tmap_traits@KPAVCustomSoundData@@U?$less@K@std@@V?$allocator@U?$pair@$$CBKPAVCustomSoundData@@@std@@@3@$0A@@std@@@std@@U_Iterator_base0@2@@std@@QAEAAV01@XZ ; std::_Tree_unchecked_const_iterator<std::_Tree_val<std::_Tmap_traits<unsigned long,CustomSoundData *,std::less<unsigned long>,std::allocator<std::pair<unsigned long const ,CustomSoundData *> >,0> >,std::_Iterator_base0>::operator++
  00084	8b 5d fc	 mov	 ebx, DWORD PTR _iter3$506457[ebp]
  00087	3b 5e 18	 cmp	 ebx, DWORD PTR [esi+24]
  0008a	75 df		 jne	 SHORT $LL109@ClearExcep
$LN3@ClearExcep:

; 599  : 			}
; 600  : 			pInfo->m_CustomSoundDataMap.clear();

  0008c	8d 4e 14	 lea	 ecx, DWORD PTR [esi+20]
  0008f	e8 00 00 00 00	 call	 ?clear@?$_Tree@V?$_Tmap_traits@KPAVCustomSoundData@@U?$less@K@std@@V?$allocator@U?$pair@$$CBKPAVCustomSoundData@@@std@@@3@$0A@@std@@@std@@QAEXXZ ; std::_Tree<std::_Tmap_traits<unsigned long,CustomSoundData *,std::less<unsigned long>,std::allocator<std::pair<unsigned long const ,CustomSoundData *> >,0> >::clear

; 601  : 			SAFEDELETE( *iter );

  00094	8b 37		 mov	 esi, DWORD PTR [edi]
  00096	85 f6		 test	 esi, esi
  00098	74 11		 je	 SHORT $LN1@ClearExcep
  0009a	8b ce		 mov	 ecx, esi
  0009c	e8 00 00 00 00	 call	 ??1tagCustomSoundInfo@ioCustomSoundMgr@@QAE@XZ
  000a1	56		 push	 esi
  000a2	e8 00 00 00 00	 call	 ??3@YAXPAX@Z		; operator delete
  000a7	83 27 00	 and	 DWORD PTR [edi], 0
  000aa	59		 pop	 ecx
$LN1@ClearExcep:

; 602  : 			iter = m_vCustomSoundInfoList.erase( iter );

  000ab	8b 4d f8	 mov	 ecx, DWORD PTR _this$[ebp]
  000ae	57		 push	 edi
  000af	8d 45 f4	 lea	 eax, DWORD PTR $T520645[ebp]
  000b2	50		 push	 eax
  000b3	83 c1 04	 add	 ecx, 4
  000b6	e8 00 00 00 00	 call	 ?erase@?$vector@PAUtagCustomSoundInfo@ioCustomSoundMgr@@V?$allocator@PAUtagCustomSoundInfo@ioCustomSoundMgr@@@std@@@std@@QAE?AV?$_Vector_iterator@V?$_Vector_val@PAUtagCustomSoundInfo@ioCustomSoundMgr@@V?$allocator@PAUtagCustomSoundInfo@ioCustomSoundMgr@@@std@@@std@@@2@V?$_Vector_const_iterator@V?$_Vector_val@PAUtagCustomSoundInfo@ioCustomSoundMgr@@V?$allocator@PAUtagCustomSoundInfo@ioCustomSoundMgr@@@std@@@std@@@2@@Z ; std::vector<ioCustomSoundMgr::tagCustomSoundInfo *,std::allocator<ioCustomSoundMgr::tagCustomSoundInfo *> >::erase
  000bb	8b 38		 mov	 edi, DWORD PTR [eax]
  000bd	8b 5d f8	 mov	 ebx, DWORD PTR _this$[ebp]
$LN6@ClearExcep:

; 578  : 	while ( iter != m_vCustomSoundInfoList.end() )

  000c0	3b 7b 08	 cmp	 edi, DWORD PTR [ebx+8]
  000c3	0f 85 51 ff ff
	ff		 jne	 $LL14@ClearExcep
  000c9	5e		 pop	 esi
$LN13@ClearExcep:
  000ca	5f		 pop	 edi
  000cb	5b		 pop	 ebx

; 603  : 		}
; 604  : 	}
; 605  : }

  000cc	c9		 leave
  000cd	c3		 ret	 0
?ClearExceptMe@ioCustomSoundMgr@@QAEXXZ ENDP		; ioCustomSoundMgr::ClearExceptMe
_TEXT	ENDS
PUBLIC	??_C@_0CH@MNFAGMEF@?$CFs?2Usersound?2_Usersoundother?2?$CFs?2@ ; `string'
PUBLIC	_rData$GSCopy$
PUBLIC	?UpdateCustomSoundData@ioCustomSoundMgr@@QAE_NKKABUtagCustomSoundPacket@@@Z ; ioCustomSoundMgr::UpdateCustomSoundData
EXTRN	__imp_?DeleteSound@ioSoundManager@@QAEXABVioHashString@@@Z:PROC
EXTRN	__imp__DeleteFileA@4:PROC
EXTRN	__imp__SetFileAttributesA@8:PROC
EXTRN	__imp__GetCurrentDirectoryA@8:PROC
;	COMDAT ??_C@_0CH@MNFAGMEF@?$CFs?2Usersound?2_Usersoundother?2?$CFs?2@
; File c:\program files (x86)\microsoft visual studio 10.0\vc\include\vector
CONST	SEGMENT
??_C@_0CH@MNFAGMEF@?$CFs?2Usersound?2_Usersoundother?2?$CFs?2@ DB '%s\Use'
	DB	'rsound\_Usersoundother\%s\%d.wav', 00H	; `string'
CONST	ENDS
;	COMDAT xdata$x
xdata$x	SEGMENT
__unwindtable$?UpdateCustomSoundData@ioCustomSoundMgr@@QAE_NKKABUtagCustomSoundPacket@@@Z DD 0ffffffffH
	DD	FLAT:__unwindfunclet$?UpdateCustomSoundData@ioCustomSoundMgr@@QAE_NKKABUtagCustomSoundPacket@@@Z$0
__ehfuncinfo$?UpdateCustomSoundData@ioCustomSoundMgr@@QAE_NKKABUtagCustomSoundPacket@@@Z DD 019930522H
	DD	01H
	DD	FLAT:__unwindtable$?UpdateCustomSoundData@ioCustomSoundMgr@@QAE_NKKABUtagCustomSoundPacket@@@Z
	DD	2 DUP(00H)
	DD	2 DUP(00H)
	DD	00H
	DD	01H
; Function compile flags: /Ogsp
; File d:\lost saga for developer\youtube\tutorial\source\src\lsclient\iocustomsoundmgr.cpp
xdata$x	ENDS
;	COMDAT ?UpdateCustomSoundData@ioCustomSoundMgr@@QAE_NKKABUtagCustomSoundPacket@@@Z
_TEXT	SEGMENT
$T521068 = -828						; size = 16
_iter2$506488 = -812					; size = 4
_rData$GSCopy$ = -808					; size = 4
$T521074 = -808						; size = 4
_iter$506479 = -804					; size = 4
tv514 = -800						; size = 4
$T521080 = -800						; size = 4
_szPath$506498 = -796					; size = 520
_szRootPath$506497 = -276				; size = 260
__$EHRec$ = -12						; size = 12
_dwUserIndex$ = 8					; size = 4
_dwCustomSoundIndex$ = 12				; size = 4
_rData$ = 16						; size = 4
?UpdateCustomSoundData@ioCustomSoundMgr@@QAE_NKKABUtagCustomSoundPacket@@@Z PROC ; ioCustomSoundMgr::UpdateCustomSoundData, COMDAT
; _this$ = ecx

; 608  : {

  00000	68 30 03 00 00	 push	 816			; 00000330H
  00005	b8 00 00 00 00	 mov	 eax, __ehhandler$?UpdateCustomSoundData@ioCustomSoundMgr@@QAE_NKKABUtagCustomSoundPacket@@@Z
  0000a	e8 00 00 00 00	 call	 __EH_prolog3_GS

; 609  : 	// check
; 610  : 	if( dwUserIndex == 0 )

  0000f	8b 55 08	 mov	 edx, DWORD PTR _dwUserIndex$[ebp]
  00012	8b 45 10	 mov	 eax, DWORD PTR _rData$[ebp]

; 635  : 		
; 636  : 		char szRootPath[MAX_PATH]="";

  00015	89 85 d8 fc ff
	ff		 mov	 DWORD PTR _rData$GSCopy$[ebp], eax
  0001b	85 d2		 test	 edx, edx
  0001d	74 2d		 je	 SHORT $LN9@UpdateCust

; 611  : 		return false;
; 612  : 	if( dwCustomSoundIndex == 0 )

  0001f	83 7d 0c 00	 cmp	 DWORD PTR _dwCustomSoundIndex$[ebp], 0

; 613  : 		return false;

  00023	74 27		 je	 SHORT $LN9@UpdateCust

; 614  : 
; 615  : 	for(CustomSoundInfoList::iterator iter = m_vCustomSoundInfoList.begin(); iter != m_vCustomSoundInfoList.end(); ++iter)

  00025	8d 41 04	 lea	 eax, DWORD PTR [ecx+4]
  00028	8b 49 08	 mov	 ecx, DWORD PTR [ecx+8]
  0002b	89 85 e0 fc ff
	ff		 mov	 DWORD PTR tv514[ebp], eax
  00031	8b 00		 mov	 eax, DWORD PTR [eax]
  00033	eb 0d		 jmp	 SHORT $LN117@UpdateCust
$LL31@UpdateCust:

; 616  : 	{
; 617  : 		CustomSoundInfo *pInfo = *iter;

  00035	8b 30		 mov	 esi, DWORD PTR [eax]

; 618  : 		if( !pInfo )

  00037	85 f6		 test	 esi, esi
  00039	74 04		 je	 SHORT $LN10@UpdateCust

; 619  : 			continue;
; 620  : 		if( pInfo->m_dwUserIndex != dwUserIndex )

  0003b	39 16		 cmp	 DWORD PTR [esi], edx
  0003d	74 17		 je	 SHORT $LN7@UpdateCust
$LN10@UpdateCust:

; 614  : 
; 615  : 	for(CustomSoundInfoList::iterator iter = m_vCustomSoundInfoList.begin(); iter != m_vCustomSoundInfoList.end(); ++iter)

  0003f	83 c0 04	 add	 eax, 4
$LN117@UpdateCust:
  00042	89 85 dc fc ff
	ff		 mov	 DWORD PTR _iter$506479[ebp], eax
  00048	3b c1		 cmp	 eax, ecx
  0004a	75 e9		 jne	 SHORT $LL31@UpdateCust
$LN9@UpdateCust:

; 653  : 	}
; 654  : 
; 655  : 	return false;

  0004c	32 c0		 xor	 al, al
$LN14@UpdateCust:

; 656  : }

  0004e	e8 00 00 00 00	 call	 __EH_epilog3_GS
  00053	c2 0c 00	 ret	 12			; 0000000cH
$LN7@UpdateCust:

; 621  : 			continue;
; 622  : 
; 623  : 		CustomSoundDataMap::iterator iter2 = pInfo->m_CustomSoundDataMap.find( dwCustomSoundIndex );

  00056	8d 45 0c	 lea	 eax, DWORD PTR _dwCustomSoundIndex$[ebp]
  00059	50		 push	 eax
  0005a	8d 85 d4 fc ff
	ff		 lea	 eax, DWORD PTR _iter2$506488[ebp]
  00060	8d 4e 14	 lea	 ecx, DWORD PTR [esi+20]
  00063	50		 push	 eax
  00064	e8 00 00 00 00	 call	 ?find@?$_Tree@V?$_Tmap_traits@KPAVCustomSoundData@@U?$less@K@std@@V?$allocator@U?$pair@$$CBKPAVCustomSoundData@@@std@@@3@$0A@@std@@@std@@QAE?AV?$_Tree_iterator@V?$_Tree_val@V?$_Tmap_traits@KPAVCustomSoundData@@U?$less@K@std@@V?$allocator@U?$pair@$$CBKPAVCustomSoundData@@@std@@@3@$0A@@std@@@std@@@2@ABK@Z ; std::_Tree<std::_Tmap_traits<unsigned long,CustomSoundData *,std::less<unsigned long>,std::allocator<std::pair<unsigned long const ,CustomSoundData *> >,0> >::find

; 624  : 		if( iter2==pInfo->m_CustomSoundDataMap.end() )

  00069	8b 46 18	 mov	 eax, DWORD PTR [esi+24]
  0006c	8b bd d4 fc ff
	ff		 mov	 edi, DWORD PTR _iter2$506488[ebp]
  00072	3b f8		 cmp	 edi, eax

; 625  : 			return false;

  00074	74 d6		 je	 SHORT $LN9@UpdateCust

; 626  : 
; 627  : 		CustomSoundData *pData = iter2->second;

  00076	8b 5f 10	 mov	 ebx, DWORD PTR [edi+16]

; 628  : 		if( !pData )

  00079	85 db		 test	 ebx, ebx

; 629  : 			return false;

  0007b	74 cf		 je	 SHORT $LN9@UpdateCust

; 630  : 		DWORD dwDataPos = pData->GetNetworkDataPos( dwUserIndex );

  0007d	ff 75 08	 push	 DWORD PTR _dwUserIndex$[ebp]
  00080	8b cb		 mov	 ecx, ebx
  00082	e8 00 00 00 00	 call	 ?GetNetworkDataPos@CustomSoundData@@QAEKK@Z ; CustomSoundData::GetNetworkDataPos

; 631  : 		DWORD dwNextPos = pData->SetCurData( rData, dwDataPos );

  00087	50		 push	 eax
  00088	ff b5 d8 fc ff
	ff		 push	 DWORD PTR _rData$GSCopy$[ebp]
  0008e	8b cb		 mov	 ecx, ebx
  00090	e8 00 00 00 00	 call	 ?SetCurData@CustomSoundData@@QAEKABUtagCustomSoundPacket@@K@Z ; CustomSoundData::SetCurData

; 632  : 		pData->SetNetworkDataPos( dwUserIndex, dwNextPos );

  00095	50		 push	 eax
  00096	ff 75 08	 push	 DWORD PTR _dwUserIndex$[ebp]
  00099	8b cb		 mov	 ecx, ebx
  0009b	e8 00 00 00 00	 call	 ?SetNetworkDataPos@CustomSoundData@@QAEXKK@Z ; CustomSoundData::SetNetworkDataPos

; 633  : 		if( !pData->IsCompletedData( dwUserIndex ) )

  000a0	ff 75 08	 push	 DWORD PTR _dwUserIndex$[ebp]
  000a3	e8 00 00 00 00	 call	 ?IsCompletedData@CustomSoundData@@QAE_NK@Z ; CustomSoundData::IsCompletedData
  000a8	84 c0		 test	 al, al

; 634  : 			return false;

  000aa	74 a0		 je	 SHORT $LN9@UpdateCust

; 635  : 		
; 636  : 		char szRootPath[MAX_PATH]="";

  000ac	68 03 01 00 00	 push	 259			; 00000103H
  000b1	8d 85 ed fe ff
	ff		 lea	 eax, DWORD PTR _szRootPath$506497[ebp+1]
  000b7	6a 00		 push	 0
  000b9	50		 push	 eax
  000ba	c6 85 ec fe ff
	ff 00		 mov	 BYTE PTR _szRootPath$506497[ebp], 0
  000c1	e8 00 00 00 00	 call	 _memset
  000c6	83 c4 0c	 add	 esp, 12			; 0000000cH

; 637  : 		GetCurrentDirectory( MAX_PATH, szRootPath );

  000c9	8d 85 ec fe ff
	ff		 lea	 eax, DWORD PTR _szRootPath$506497[ebp]
  000cf	50		 push	 eax
  000d0	68 04 01 00 00	 push	 260			; 00000104H
  000d5	ff 15 00 00 00
	00		 call	 DWORD PTR __imp__GetCurrentDirectoryA@8

; 638  : 		char szPath[MAX_PATH*2]="";

  000db	68 07 02 00 00	 push	 519			; 00000207H
  000e0	8d 85 e5 fc ff
	ff		 lea	 eax, DWORD PTR _szPath$506498[ebp+1]
  000e6	6a 00		 push	 0
  000e8	50		 push	 eax
  000e9	c6 85 e4 fc ff
	ff 00		 mov	 BYTE PTR _szPath$506498[ebp], 0
  000f0	e8 00 00 00 00	 call	 _memset
  000f5	83 c4 0c	 add	 esp, 12			; 0000000cH

; 639  : 		StringCbPrintf(szPath, sizeof(szPath),"%s\\Usersound\\_Usersoundother\\%s\\%d.wav",szRootPath,pInfo->m_szPublicID.c_str(),dwCustomSoundIndex);

  000f8	ff 75 0c	 push	 DWORD PTR _dwCustomSoundIndex$[ebp]
  000fb	8d 4e 04	 lea	 ecx, DWORD PTR [esi+4]
  000fe	ff 15 00 00 00
	00		 call	 DWORD PTR __imp_?c_str@ioHashString@@QBEPBDXZ
  00104	50		 push	 eax
  00105	8d 85 ec fe ff
	ff		 lea	 eax, DWORD PTR _szRootPath$506497[ebp]
  0010b	50		 push	 eax
  0010c	68 00 00 00 00	 push	 OFFSET ??_C@_0CH@MNFAGMEF@?$CFs?2Usersound?2_Usersoundother?2?$CFs?2@
  00111	8d 85 e4 fc ff
	ff		 lea	 eax, DWORD PTR _szPath$506498[ebp]
  00117	68 08 02 00 00	 push	 520			; 00000208H
  0011c	50		 push	 eax
  0011d	e8 00 00 00 00	 call	 ?StringCbPrintfA@@YAJPADIPBDZZ ; StringCbPrintfA
  00122	83 c4 18	 add	 esp, 24			; 00000018H

; 640  : 		SetFileAttributes(szPath,FILE_ATTRIBUTE_NORMAL);

  00125	68 80 00 00 00	 push	 128			; 00000080H
  0012a	8d 85 e4 fc ff
	ff		 lea	 eax, DWORD PTR _szPath$506498[ebp]
  00130	50		 push	 eax
  00131	ff 15 00 00 00
	00		 call	 DWORD PTR __imp__SetFileAttributesA@8

; 641  : 		::DeleteFile(szPath);

  00137	8d 85 e4 fc ff
	ff		 lea	 eax, DWORD PTR _szPath$506498[ebp]
  0013d	50		 push	 eax
  0013e	ff 15 00 00 00
	00		 call	 DWORD PTR __imp__DeleteFileA@4

; 642  : 		g_SoundMgr.DeleteSound( ioHashString( szPath ) );

  00144	8d 85 e4 fc ff
	ff		 lea	 eax, DWORD PTR _szPath$506498[ebp]
  0014a	50		 push	 eax
  0014b	8d 8d c4 fc ff
	ff		 lea	 ecx, DWORD PTR $T521068[ebp]
  00151	ff 15 00 00 00
	00		 call	 DWORD PTR __imp_??0ioHashString@@QAE@PBD@Z
  00157	83 65 fc 00	 and	 DWORD PTR __$EHRec$[ebp+8], 0
  0015b	50		 push	 eax
  0015c	ff 15 00 00 00
	00		 call	 DWORD PTR __imp_?GetSingleton@ioSoundManager@@SAAAV1@XZ
  00162	8b c8		 mov	 ecx, eax
  00164	ff 15 00 00 00
	00		 call	 DWORD PTR __imp_?DeleteSound@ioSoundManager@@QAEXABVioHashString@@@Z
  0016a	83 4d fc ff	 or	 DWORD PTR __$EHRec$[ebp+8], -1
  0016e	8d 8d c4 fc ff
	ff		 lea	 ecx, DWORD PTR $T521068[ebp]
  00174	ff 15 00 00 00
	00		 call	 DWORD PTR __imp_??1ioHashString@@QAE@XZ

; 643  : 		pData->UnpacAndSave( szPath );

  0017a	8d 85 e4 fc ff
	ff		 lea	 eax, DWORD PTR _szPath$506498[ebp]
  00180	50		 push	 eax
  00181	8b cb		 mov	 ecx, ebx
  00183	e8 00 00 00 00	 call	 ?UnpacAndSave@CustomSoundData@@QAE_NPBD@Z ; CustomSoundData::UnpacAndSave

; 644  : 		pData->DeleteNetworkInfo( dwUserIndex );

  00188	ff 75 08	 push	 DWORD PTR _dwUserIndex$[ebp]
  0018b	8b cb		 mov	 ecx, ebx
  0018d	e8 00 00 00 00	 call	 ?DeleteNetworkInfo@CustomSoundData@@QAEXK@Z ; CustomSoundData::DeleteNetworkInfo

; 645  : 		SAFEDELETE( iter2->second );

  00192	8b 4f 10	 mov	 ecx, DWORD PTR [edi+16]
  00195	33 db		 xor	 ebx, ebx
  00197	3b cb		 cmp	 ecx, ebx
  00199	74 09		 je	 SHORT $LN3@UpdateCust
  0019b	8b 01		 mov	 eax, DWORD PTR [ecx]
  0019d	6a 01		 push	 1
  0019f	ff 10		 call	 DWORD PTR [eax]
  001a1	89 5f 10	 mov	 DWORD PTR [edi+16], ebx
$LN3@UpdateCust:

; 646  : 		pInfo->m_CustomSoundDataMap.erase( iter2 );

  001a4	57		 push	 edi
  001a5	8d 85 d8 fc ff
	ff		 lea	 eax, DWORD PTR $T521074[ebp]
  001ab	50		 push	 eax
  001ac	8d 4e 14	 lea	 ecx, DWORD PTR [esi+20]
  001af	e8 00 00 00 00	 call	 ?erase@?$_Tree@V?$_Tmap_traits@KPAVCustomSoundData@@U?$less@K@std@@V?$allocator@U?$pair@$$CBKPAVCustomSoundData@@@std@@@3@$0A@@std@@@std@@QAE?AV?$_Tree_iterator@V?$_Tree_val@V?$_Tmap_traits@KPAVCustomSoundData@@U?$less@K@std@@V?$allocator@U?$pair@$$CBKPAVCustomSoundData@@@std@@@3@$0A@@std@@@std@@@2@V?$_Tree_const_iterator@V?$_Tree_val@V?$_Tmap_traits@KPAVCustomSoundData@@U?$less@K@std@@V?$allocator@U?$pair@$$CBKPAVCustomSoundData@@@std@@@3@$0A@@std@@@std@@@2@@Z ; std::_Tree<std::_Tmap_traits<unsigned long,CustomSoundData *,std::less<unsigned long>,std::allocator<std::pair<unsigned long const ,CustomSoundData *> >,0> >::erase

; 647  : 		if( pInfo->m_CustomSoundDataMap.empty() )

  001b4	39 5e 1c	 cmp	 DWORD PTR [esi+28], ebx
  001b7	75 2f		 jne	 SHORT $LN2@UpdateCust

; 648  : 		{
; 649  : 			SAFEDELETE( *iter );

  001b9	8b b5 dc fc ff
	ff		 mov	 esi, DWORD PTR _iter$506479[ebp]
  001bf	8b 3e		 mov	 edi, DWORD PTR [esi]
  001c1	3b fb		 cmp	 edi, ebx
  001c3	74 10		 je	 SHORT $LN1@UpdateCust
  001c5	8b cf		 mov	 ecx, edi
  001c7	e8 00 00 00 00	 call	 ??1tagCustomSoundInfo@ioCustomSoundMgr@@QAE@XZ
  001cc	57		 push	 edi
  001cd	e8 00 00 00 00	 call	 ??3@YAXPAX@Z		; operator delete
  001d2	59		 pop	 ecx
  001d3	89 1e		 mov	 DWORD PTR [esi], ebx
$LN1@UpdateCust:

; 650  : 			m_vCustomSoundInfoList.erase( iter );

  001d5	8b 8d e0 fc ff
	ff		 mov	 ecx, DWORD PTR tv514[ebp]
  001db	56		 push	 esi
  001dc	8d 85 e0 fc ff
	ff		 lea	 eax, DWORD PTR $T521080[ebp]
  001e2	50		 push	 eax
  001e3	e8 00 00 00 00	 call	 ?erase@?$vector@PAUtagCustomSoundInfo@ioCustomSoundMgr@@V?$allocator@PAUtagCustomSoundInfo@ioCustomSoundMgr@@@std@@@std@@QAE?AV?$_Vector_iterator@V?$_Vector_val@PAUtagCustomSoundInfo@ioCustomSoundMgr@@V?$allocator@PAUtagCustomSoundInfo@ioCustomSoundMgr@@@std@@@std@@@2@V?$_Vector_const_iterator@V?$_Vector_val@PAUtagCustomSoundInfo@ioCustomSoundMgr@@V?$allocator@PAUtagCustomSoundInfo@ioCustomSoundMgr@@@std@@@std@@@2@@Z ; std::vector<ioCustomSoundMgr::tagCustomSoundInfo *,std::allocator<ioCustomSoundMgr::tagCustomSoundInfo *> >::erase
$LN2@UpdateCust:

; 651  : 		}
; 652  : 		return true;

  001e8	b0 01		 mov	 al, 1
  001ea	e9 5f fe ff ff	 jmp	 $LN14@UpdateCust
_TEXT	ENDS
;	COMDAT text$x
text$x	SEGMENT
__unwindfunclet$?UpdateCustomSoundData@ioCustomSoundMgr@@QAE_NKKABUtagCustomSoundPacket@@@Z$0:
  00000	8d 8d c4 fc ff
	ff		 lea	 ecx, DWORD PTR $T521068[ebp]
  00006	ff 25 00 00 00
	00		 jmp	 DWORD PTR __imp_??1ioHashString@@QAE@XZ
__ehhandler$?UpdateCustomSoundData@ioCustomSoundMgr@@QAE_NKKABUtagCustomSoundPacket@@@Z:
  0000c	8b 54 24 08	 mov	 edx, DWORD PTR [esp+8]
  00010	8d 42 0c	 lea	 eax, DWORD PTR [edx+12]
  00013	8b 8a c0 fc ff
	ff		 mov	 ecx, DWORD PTR [edx-832]
  00019	33 c8		 xor	 ecx, eax
  0001b	e8 00 00 00 00	 call	 @__security_check_cookie@4
  00020	8b 4a fc	 mov	 ecx, DWORD PTR [edx-4]
  00023	33 c8		 xor	 ecx, eax
  00025	e8 00 00 00 00	 call	 @__security_check_cookie@4
  0002a	b8 00 00 00 00	 mov	 eax, OFFSET __ehfuncinfo$?UpdateCustomSoundData@ioCustomSoundMgr@@QAE_NKKABUtagCustomSoundPacket@@@Z
  0002f	e9 00 00 00 00	 jmp	 ___CxxFrameHandler3
text$x	ENDS
?UpdateCustomSoundData@ioCustomSoundMgr@@QAE_NKKABUtagCustomSoundPacket@@@Z ENDP ; ioCustomSoundMgr::UpdateCustomSoundData
PUBLIC	??_C@_0BA@GLAFFDBF@?$CFs?2Usersound?2?$CFs?$AA@	; `string'
PUBLIC	_szFileName$GSCopy$
PUBLIC	_szKeyword$GSCopy$
PUBLIC	_this$GSCopy$
PUBLIC	?AddMyCustomSoundData@ioCustomSoundMgr@@QAE_NKPBD0@Z ; ioCustomSoundMgr::AddMyCustomSoundData
;	COMDAT ??_C@_0BA@GLAFFDBF@?$CFs?2Usersound?2?$CFs?$AA@
; File c:\program files (x86)\microsoft visual studio 10.0\vc\include\utility
CONST	SEGMENT
??_C@_0BA@GLAFFDBF@?$CFs?2Usersound?2?$CFs?$AA@ DB '%s\Usersound\%s', 00H ; `string'
CONST	ENDS
;	COMDAT xdata$x
xdata$x	SEGMENT
__unwindtable$?AddMyCustomSoundData@ioCustomSoundMgr@@QAE_NKPBD0@Z DD 0ffffffffH
	DD	FLAT:__unwindfunclet$?AddMyCustomSoundData@ioCustomSoundMgr@@QAE_NKPBD0@Z$0
	DD	0ffffffffH
	DD	FLAT:__unwindfunclet$?AddMyCustomSoundData@ioCustomSoundMgr@@QAE_NKPBD0@Z$1
__ehfuncinfo$?AddMyCustomSoundData@ioCustomSoundMgr@@QAE_NKPBD0@Z DD 019930522H
	DD	02H
	DD	FLAT:__unwindtable$?AddMyCustomSoundData@ioCustomSoundMgr@@QAE_NKPBD0@Z
	DD	2 DUP(00H)
	DD	2 DUP(00H)
	DD	00H
	DD	01H
; Function compile flags: /Ogsp
; File d:\lost saga for developer\youtube\tutorial\source\src\lsclient\iocustomsoundmgr.cpp
xdata$x	ENDS
;	COMDAT ?AddMyCustomSoundData@ioCustomSoundMgr@@QAE_NKPBD0@Z
_TEXT	SEGMENT
$T521375 = -1084					; size = 8
tv418 = -1080						; size = 4
_szKeyword$GSCopy$ = -1076				; size = 4
$T521374 = -1072					; size = 8
_szFileName$GSCopy$ = -1068				; size = 4
_this$GSCopy$ = -1064					; size = 4
_dwCurCRC$ = -1064					; size = 4
$T521355 = -1060					; size = 4
_iter$ = -1060						; size = 4
$T521350 = -1060					; size = 4
_pInfo$506550 = -1060					; size = 4
_szCurPath$ = -1056					; size = 520
_szFullPath$ = -536					; size = 520
__$EHRec$ = -12						; size = 12
_dwCustomSoundIndex$ = 8				; size = 4
_szKeyword$ = 12					; size = 4
_szFileName$ = 16					; size = 4
?AddMyCustomSoundData@ioCustomSoundMgr@@QAE_NKPBD0@Z PROC ; ioCustomSoundMgr::AddMyCustomSoundData, COMDAT
; _this$ = ecx

; 695  : {

  00000	68 30 04 00 00	 push	 1072			; 00000430H
  00005	b8 00 00 00 00	 mov	 eax, __ehhandler$?AddMyCustomSoundData@ioCustomSoundMgr@@QAE_NKPBD0@Z
  0000a	e8 00 00 00 00	 call	 __EH_prolog3_GS
  0000f	8b 75 0c	 mov	 esi, DWORD PTR _szKeyword$[ebp]
  00012	8b 55 10	 mov	 edx, DWORD PTR _szFileName$[ebp]
  00015	89 8d d8 fb ff
	ff		 mov	 DWORD PTR _this$GSCopy$[ebp], ecx

; 696  : 	if( strcmp( szKeyword , "" ) == 0 )

  0001b	33 c9		 xor	 ecx, ecx
  0001d	b8 00 00 00 00	 mov	 eax, OFFSET ??_C@_00CNPNBAHC@?$AA@
  00022	41		 inc	 ecx
  00023	8b f8		 mov	 edi, eax
  00025	33 db		 xor	 ebx, ebx

; 698  : 
; 699  : 	if( strcmp( szFileName, "" ) == 0 )

  00027	89 b5 cc fb ff
	ff		 mov	 DWORD PTR _szKeyword$GSCopy$[ebp], esi
  0002d	f3 a6		 repe cmpsb

; 723  : 
; 724  : 	pData->SetKeyWord( szKeyword );

  0002f	89 95 d4 fb ff
	ff		 mov	 DWORD PTR _szFileName$GSCopy$[ebp], edx
  00035	75 07		 jne	 SHORT $LN15@AddMyCusto
$LN84@AddMyCusto:

; 697  : 		return false;

  00037	32 c0		 xor	 al, al
  00039	e9 f8 01 00 00	 jmp	 $LN16@AddMyCusto
$LN15@AddMyCusto:

; 698  : 
; 699  : 	if( strcmp( szFileName, "" ) == 0 )

  0003e	33 db		 xor	 ebx, ebx
  00040	43		 inc	 ebx
  00041	8b f8		 mov	 edi, eax
  00043	8b f2		 mov	 esi, edx
  00045	8b cb		 mov	 ecx, ebx
  00047	33 c0		 xor	 eax, eax
  00049	f3 a6		 repe cmpsb

; 700  : 		return false;

  0004b	74 ea		 je	 SHORT $LN84@AddMyCusto

; 701  : 
; 702  : 	if( m_vCustomSoundInfoList.empty() )

  0004d	8b b5 d8 fb ff
	ff		 mov	 esi, DWORD PTR _this$GSCopy$[ebp]
  00053	83 c6 04	 add	 esi, 4
  00056	8b 06		 mov	 eax, DWORD PTR [esi]
  00058	89 b5 c8 fb ff
	ff		 mov	 DWORD PTR tv418[ebp], esi
  0005e	3b 46 04	 cmp	 eax, DWORD PTR [esi+4]
  00061	75 58		 jne	 SHORT $LN13@AddMyCusto

; 703  : 	{
; 704  : 		CustomSoundInfo *pInfo = new CustomSoundInfo;

  00063	6a 24		 push	 36			; 00000024H
  00065	e8 00 00 00 00	 call	 ??2@YAPAXI@Z		; operator new
  0006a	59		 pop	 ecx
  0006b	89 85 dc fb ff
	ff		 mov	 DWORD PTR $T521350[ebp], eax
  00071	33 ff		 xor	 edi, edi
  00073	89 7d fc	 mov	 DWORD PTR __$EHRec$[ebp+8], edi
  00076	3b c7		 cmp	 eax, edi
  00078	74 09		 je	 SHORT $LN18@AddMyCusto
  0007a	8b c8		 mov	 ecx, eax
  0007c	e8 00 00 00 00	 call	 ??0tagCustomSoundInfo@ioCustomSoundMgr@@QAE@XZ ; ioCustomSoundMgr::tagCustomSoundInfo::tagCustomSoundInfo
  00081	8b f8		 mov	 edi, eax
$LN18@AddMyCusto:
  00083	83 4d fc ff	 or	 DWORD PTR __$EHRec$[ebp+8], -1
  00087	89 bd dc fb ff
	ff		 mov	 DWORD PTR _pInfo$506550[ebp], edi

; 705  : 		if( !pInfo )

  0008d	85 ff		 test	 edi, edi

; 706  : 			return false;

  0008f	74 a6		 je	 SHORT $LN84@AddMyCusto

; 707  : 
; 708  : 		pInfo->m_dwUserIndex = g_MyInfo.GetUserIndex();

  00091	e8 00 00 00 00	 call	 ?GetSingleton@ioMyInfo@@SAAAV1@XZ ; ioMyInfo::GetSingleton
  00096	8b 40 08	 mov	 eax, DWORD PTR [eax+8]
  00099	89 07		 mov	 DWORD PTR [edi], eax

; 709  : 		pInfo->m_szPublicID  = g_MyInfo.GetPublicID();

  0009b	e8 00 00 00 00	 call	 ?GetSingleton@ioMyInfo@@SAAAV1@XZ ; ioMyInfo::GetSingleton
  000a0	83 c0 1c	 add	 eax, 28			; 0000001cH
  000a3	50		 push	 eax
  000a4	8d 4f 04	 lea	 ecx, DWORD PTR [edi+4]
  000a7	ff 15 00 00 00
	00		 call	 DWORD PTR __imp_??4ioHashString@@QAEAAV0@ABV0@@Z

; 710  : 		m_vCustomSoundInfoList.push_back( pInfo );

  000ad	8d 85 dc fb ff
	ff		 lea	 eax, DWORD PTR _pInfo$506550[ebp]
  000b3	50		 push	 eax
  000b4	8b ce		 mov	 ecx, esi
  000b6	e8 00 00 00 00	 call	 ?push_back@?$vector@PAUtagCustomSoundInfo@ioCustomSoundMgr@@V?$allocator@PAUtagCustomSoundInfo@ioCustomSoundMgr@@@std@@@std@@QAEXABQAUtagCustomSoundInfo@ioCustomSoundMgr@@@Z ; std::vector<ioCustomSoundMgr::tagCustomSoundInfo *,std::allocator<ioCustomSoundMgr::tagCustomSoundInfo *> >::push_back
$LN13@AddMyCusto:

; 711  : 	}
; 712  : 
; 713  : 	if( m_vCustomSoundInfoList[0]->m_dwUserIndex != g_MyInfo.GetUserIndex() )

  000bb	8b 3e		 mov	 edi, DWORD PTR [esi]
  000bd	e8 00 00 00 00	 call	 ?GetSingleton@ioMyInfo@@SAAAV1@XZ ; ioMyInfo::GetSingleton
  000c2	8b 0f		 mov	 ecx, DWORD PTR [edi]
  000c4	8b 09		 mov	 ecx, DWORD PTR [ecx]
  000c6	3b 48 08	 cmp	 ecx, DWORD PTR [eax+8]

; 714  : 		return false;

  000c9	0f 85 68 ff ff
	ff		 jne	 $LN84@AddMyCusto

; 715  : 
; 716  : 	CustomSoundDataMap::iterator iter = m_vCustomSoundInfoList[0]->m_CustomSoundDataMap.find( dwCustomSoundIndex );

  000cf	8b 36		 mov	 esi, DWORD PTR [esi]
  000d1	8b 0e		 mov	 ecx, DWORD PTR [esi]
  000d3	8d 45 08	 lea	 eax, DWORD PTR _dwCustomSoundIndex$[ebp]
  000d6	50		 push	 eax
  000d7	8d 85 dc fb ff
	ff		 lea	 eax, DWORD PTR _iter$[ebp]
  000dd	50		 push	 eax
  000de	83 c1 14	 add	 ecx, 20			; 00000014H
  000e1	e8 00 00 00 00	 call	 ?find@?$_Tree@V?$_Tmap_traits@KPAVCustomSoundData@@U?$less@K@std@@V?$allocator@U?$pair@$$CBKPAVCustomSoundData@@@std@@@3@$0A@@std@@@std@@QAE?AV?$_Tree_iterator@V?$_Tree_val@V?$_Tmap_traits@KPAVCustomSoundData@@U?$less@K@std@@V?$allocator@U?$pair@$$CBKPAVCustomSoundData@@@std@@@3@$0A@@std@@@std@@@2@ABK@Z ; std::_Tree<std::_Tmap_traits<unsigned long,CustomSoundData *,std::less<unsigned long>,std::allocator<std::pair<unsigned long const ,CustomSoundData *> >,0> >::find

; 717  : 	if( iter!=m_vCustomSoundInfoList[0]->m_CustomSoundDataMap.end() )

  000e6	8b 06		 mov	 eax, DWORD PTR [esi]
  000e8	8b 40 18	 mov	 eax, DWORD PTR [eax+24]
  000eb	39 85 dc fb ff
	ff		 cmp	 DWORD PTR _iter$[ebp], eax

; 718  : 		return false;

  000f1	0f 85 40 ff ff
	ff		 jne	 $LN84@AddMyCusto

; 719  : 
; 720  : 	CustomSoundData *pData = new CustomSoundData;

  000f7	6a 40		 push	 64			; 00000040H
  000f9	e8 00 00 00 00	 call	 ??2@YAPAXI@Z		; operator new
  000fe	59		 pop	 ecx
  000ff	89 85 dc fb ff
	ff		 mov	 DWORD PTR $T521355[ebp], eax
  00105	89 5d fc	 mov	 DWORD PTR __$EHRec$[ebp+8], ebx
  00108	85 c0		 test	 eax, eax
  0010a	74 0b		 je	 SHORT $LN20@AddMyCusto
  0010c	8b c8		 mov	 ecx, eax
  0010e	e8 00 00 00 00	 call	 ??0CustomSoundData@@QAE@XZ ; CustomSoundData::CustomSoundData
  00113	8b f0		 mov	 esi, eax
  00115	eb 02		 jmp	 SHORT $LN21@AddMyCusto
$LN20@AddMyCusto:
  00117	33 f6		 xor	 esi, esi
$LN21@AddMyCusto:
  00119	83 4d fc ff	 or	 DWORD PTR __$EHRec$[ebp+8], -1

; 721  : 	if( !pData )

  0011d	85 f6		 test	 esi, esi

; 722  : 		return false;

  0011f	0f 84 12 ff ff
	ff		 je	 $LN84@AddMyCusto

; 723  : 
; 724  : 	pData->SetKeyWord( szKeyword );

  00125	ff b5 cc fb ff
	ff		 push	 DWORD PTR _szKeyword$GSCopy$[ebp]
  0012b	8d 4e 10	 lea	 ecx, DWORD PTR [esi+16]
  0012e	ff 15 00 00 00
	00		 call	 DWORD PTR __imp_??4ioHashString@@QAEAAV0@PBD@Z

; 725  : 
; 726  : 	char szCurPath[MAX_PATH*2]="";

  00134	bb 07 02 00 00	 mov	 ebx, 519		; 00000207H
  00139	53		 push	 ebx
  0013a	8d 85 e1 fb ff
	ff		 lea	 eax, DWORD PTR _szCurPath$[ebp+1]
  00140	6a 00		 push	 0
  00142	50		 push	 eax
  00143	c6 85 e0 fb ff
	ff 00		 mov	 BYTE PTR _szCurPath$[ebp], 0
  0014a	e8 00 00 00 00	 call	 _memset
  0014f	83 c4 0c	 add	 esp, 12			; 0000000cH

; 727  : 	GetCurrentDirectory( sizeof( szCurPath ), szCurPath );

  00152	8d 85 e0 fb ff
	ff		 lea	 eax, DWORD PTR _szCurPath$[ebp]
  00158	50		 push	 eax
  00159	8d 7b 01	 lea	 edi, DWORD PTR [ebx+1]
  0015c	57		 push	 edi
  0015d	ff 15 00 00 00
	00		 call	 DWORD PTR __imp__GetCurrentDirectoryA@8

; 728  : 
; 729  : 	char szFullPath[MAX_PATH*2]="";

  00163	53		 push	 ebx
  00164	33 db		 xor	 ebx, ebx
  00166	8d 85 e9 fd ff
	ff		 lea	 eax, DWORD PTR _szFullPath$[ebp+1]
  0016c	53		 push	 ebx
  0016d	50		 push	 eax
  0016e	c6 85 e8 fd ff
	ff 00		 mov	 BYTE PTR _szFullPath$[ebp], 0
  00175	e8 00 00 00 00	 call	 _memset

; 730  : 	StringCbPrintf( szFullPath, sizeof(szFullPath), "%s\\Usersound\\%s", szCurPath, szFileName );

  0017a	ff b5 d4 fb ff
	ff		 push	 DWORD PTR _szFileName$GSCopy$[ebp]
  00180	8d 85 e0 fb ff
	ff		 lea	 eax, DWORD PTR _szCurPath$[ebp]
  00186	50		 push	 eax
  00187	68 00 00 00 00	 push	 OFFSET ??_C@_0BA@GLAFFDBF@?$CFs?2Usersound?2?$CFs?$AA@
  0018c	8d 85 e8 fd ff
	ff		 lea	 eax, DWORD PTR _szFullPath$[ebp]
  00192	57		 push	 edi
  00193	50		 push	 eax
  00194	e8 00 00 00 00	 call	 ?StringCbPrintfA@@YAJPADIPBDZZ ; StringCbPrintfA

; 731  : 
; 732  : 	int iFileSize = Help::GetFileSize( szFullPath );

  00199	8d 85 e8 fd ff
	ff		 lea	 eax, DWORD PTR _szFullPath$[ebp]
  0019f	50		 push	 eax
  001a0	e8 00 00 00 00	 call	 ?GetFileSize@Help@@YAHPBD@Z ; Help::GetFileSize
  001a5	83 c4 24	 add	 esp, 36			; 00000024H

; 733  : 	if( iFileSize < 0 )

  001a8	3b c3		 cmp	 eax, ebx
  001aa	7d 0d		 jge	 SHORT $LN8@AddMyCusto
$LN85@AddMyCusto:

; 734  : 	{
; 735  : 		SAFEDELETE( pData );

  001ac	8b ce		 mov	 ecx, esi
$LN87@AddMyCusto:
  001ae	8b 06		 mov	 eax, DWORD PTR [esi]
  001b0	6a 01		 push	 1
  001b2	ff 10		 call	 DWORD PTR [eax]

; 736  : 		return false;

  001b4	e9 7e fe ff ff	 jmp	 $LN84@AddMyCusto
$LN8@AddMyCusto:

; 737  : 	}
; 738  : 
; 739  : 	if( iFileSize > MAX_WAV_SIZE )

  001b9	3d 50 c3 00 00	 cmp	 eax, 50000		; 0000c350H

; 740  : 	{
; 741  : 		SAFEDELETE( pData );
; 742  : 		return false;

  001be	7f ec		 jg	 SHORT $LN85@AddMyCusto

; 743  : 	}
; 744  : 
; 745  : 	DWORD dwCurCRC = 0;
; 746  : 	CCrc32Static::FileCrc32Streams((LPCTSTR)szFullPath, dwCurCRC);

  001c0	8d 85 d8 fb ff
	ff		 lea	 eax, DWORD PTR _dwCurCRC$[ebp]
  001c6	50		 push	 eax
  001c7	8d 85 e8 fd ff
	ff		 lea	 eax, DWORD PTR _szFullPath$[ebp]
  001cd	50		 push	 eax
  001ce	89 9d d8 fb ff
	ff		 mov	 DWORD PTR _dwCurCRC$[ebp], ebx
  001d4	e8 00 00 00 00	 call	 ?FileCrc32Streams@CCrc32Static@@SAKPBDAAK@Z ; CCrc32Static::FileCrc32Streams
  001d9	59		 pop	 ecx
  001da	59		 pop	 ecx

; 747  : 	if( dwCurCRC == 0 )
; 748  : 	{
; 749  : 		SAFEDELETE( pData );

  001db	8b ce		 mov	 ecx, esi
  001dd	39 9d d8 fb ff
	ff		 cmp	 DWORD PTR _dwCurCRC$[ebp], ebx

; 750  : 		return false;

  001e3	74 c9		 je	 SHORT $LN87@AddMyCusto

; 751  : 	}
; 752  : 
; 753  : 	if( !pData->OpenAndPac( szFullPath, dwCurCRC) )

  001e5	ff b5 d8 fb ff
	ff		 push	 DWORD PTR _dwCurCRC$[ebp]
  001eb	8d 85 e8 fd ff
	ff		 lea	 eax, DWORD PTR _szFullPath$[ebp]
  001f1	50		 push	 eax
  001f2	e8 00 00 00 00	 call	 ?OpenAndPac@CustomSoundData@@QAE_NPBDK@Z ; CustomSoundData::OpenAndPac
  001f7	84 c0		 test	 al, al

; 754  : 	{
; 755  : 		SAFEDELETE( pData );
; 756  : 		return false;

  001f9	74 b1		 je	 SHORT $LN85@AddMyCusto

; 757  : 	}
; 758  : 
; 759  : 	m_vCustomSoundInfoList[0]->m_CustomSoundDataMap.insert( CustomSoundDataMap::value_type( dwCustomSoundIndex, pData) );

  001fb	8b 45 08	 mov	 eax, DWORD PTR _dwCustomSoundIndex$[ebp]
  001fe	89 85 d0 fb ff
	ff		 mov	 DWORD PTR $T521374[ebp], eax
  00204	8b 85 c8 fb ff
	ff		 mov	 eax, DWORD PTR tv418[ebp]
  0020a	8b 00		 mov	 eax, DWORD PTR [eax]
  0020c	89 b5 d4 fb ff
	ff		 mov	 DWORD PTR $T521374[ebp+4], esi
  00212	8b 30		 mov	 esi, DWORD PTR [eax]
  00214	53		 push	 ebx
  00215	8d 85 d0 fb ff
	ff		 lea	 eax, DWORD PTR $T521374[ebp]
  0021b	50		 push	 eax
  0021c	8d 4e 14	 lea	 ecx, DWORD PTR [esi+20]
  0021f	e8 00 00 00 00	 call	 ??$_Buynode@U?$pair@$$CBKPAVCustomSoundData@@@std@@@?$_Tree_val@V?$_Tmap_traits@KPAVCustomSoundData@@U?$less@K@std@@V?$allocator@U?$pair@$$CBKPAVCustomSoundData@@@std@@@3@$0A@@std@@@std@@QAEPAU_Node@?$_Tree_nod@V?$_Tmap_traits@KPAVCustomSoundData@@U?$less@K@std@@V?$allocator@U?$pair@$$CBKPAVCustomSoundData@@@std@@@3@$0A@@std@@@1@$$QAU?$pair@$$CBKPAVCustomSoundData@@@1@@Z ; std::_Tree_val<std::_Tmap_traits<unsigned long,CustomSoundData *,std::less<unsigned long>,std::allocator<std::pair<unsigned long const ,CustomSoundData *> >,0> >::_Buynode<std::pair<unsigned long const ,CustomSoundData *> >
  00224	50		 push	 eax
  00225	8d 85 c4 fb ff
	ff		 lea	 eax, DWORD PTR $T521375[ebp]
  0022b	50		 push	 eax
  0022c	8d 4e 14	 lea	 ecx, DWORD PTR [esi+20]
  0022f	e8 00 00 00 00	 call	 ?_Linsert@?$_Tree@V?$_Tmap_traits@KPAVCustomSoundData@@U?$less@K@std@@V?$allocator@U?$pair@$$CBKPAVCustomSoundData@@@std@@@3@$0A@@std@@@std@@QAE?AU?$pair@V?$_Tree_iterator@V?$_Tree_val@V?$_Tmap_traits@KPAVCustomSoundData@@U?$less@K@std@@V?$allocator@U?$pair@$$CBKPAVCustomSoundData@@@std@@@3@$0A@@std@@@std@@@std@@_N@2@PAU_Node@?$_Tree_nod@V?$_Tmap_traits@KPAVCustomSoundData@@U?$less@K@std@@V?$allocator@U?$pair@$$CBKPAVCustomSoundData@@@std@@@3@$0A@@std@@@2@_N@Z ; std::_Tree<std::_Tmap_traits<unsigned long,CustomSoundData *,std::less<unsigned long>,std::allocator<std::pair<unsigned long const ,CustomSoundData *> >,0> >::_Linsert

; 760  : 	return true;

  00234	b0 01		 mov	 al, 1
$LN16@AddMyCusto:

; 761  : }

  00236	e8 00 00 00 00	 call	 __EH_epilog3_GS
  0023b	c2 0c 00	 ret	 12			; 0000000cH
_TEXT	ENDS
;	COMDAT text$x
text$x	SEGMENT
__unwindfunclet$?AddMyCustomSoundData@ioCustomSoundMgr@@QAE_NKPBD0@Z$0:
  00000	ff b5 dc fb ff
	ff		 push	 DWORD PTR $T521350[ebp]
  00006	e8 00 00 00 00	 call	 ??3@YAXPAX@Z		; operator delete
  0000b	59		 pop	 ecx
  0000c	c3		 ret	 0
__unwindfunclet$?AddMyCustomSoundData@ioCustomSoundMgr@@QAE_NKPBD0@Z$1:
  0000d	ff b5 dc fb ff
	ff		 push	 DWORD PTR $T521355[ebp]
  00013	e8 00 00 00 00	 call	 ??3@YAXPAX@Z		; operator delete
  00018	59		 pop	 ecx
  00019	c3		 ret	 0
__ehhandler$?AddMyCustomSoundData@ioCustomSoundMgr@@QAE_NKPBD0@Z:
  0001a	8b 54 24 08	 mov	 edx, DWORD PTR [esp+8]
  0001e	8d 42 0c	 lea	 eax, DWORD PTR [edx+12]
  00021	8b 8a c0 fb ff
	ff		 mov	 ecx, DWORD PTR [edx-1088]
  00027	33 c8		 xor	 ecx, eax
  00029	e8 00 00 00 00	 call	 @__security_check_cookie@4
  0002e	8b 4a fc	 mov	 ecx, DWORD PTR [edx-4]
  00031	33 c8		 xor	 ecx, eax
  00033	e8 00 00 00 00	 call	 @__security_check_cookie@4
  00038	b8 00 00 00 00	 mov	 eax, OFFSET __ehfuncinfo$?AddMyCustomSoundData@ioCustomSoundMgr@@QAE_NKPBD0@Z
  0003d	e9 00 00 00 00	 jmp	 ___CxxFrameHandler3
text$x	ENDS
?AddMyCustomSoundData@ioCustomSoundMgr@@QAE_NKPBD0@Z ENDP ; ioCustomSoundMgr::AddMyCustomSoundData
PUBLIC	?DeleteCustomSoundInfo@ioCustomSoundMgr@@QAEXABVioHashString@@@Z ; ioCustomSoundMgr::DeleteCustomSoundInfo
; Function compile flags: /Ogsp
;	COMDAT ?DeleteCustomSoundInfo@ioCustomSoundMgr@@QAEXABVioHashString@@@Z
_TEXT	SEGMENT
tv448 = -4						; size = 4
$T521527 = 8						; size = 4
_iter2$507288 = 8					; size = 4
_rszPubicID$ = 8					; size = 4
?DeleteCustomSoundInfo@ioCustomSoundMgr@@QAEXABVioHashString@@@Z PROC ; ioCustomSoundMgr::DeleteCustomSoundInfo, COMDAT
; _this$ = ecx

; 912  : {

  00000	55		 push	 ebp
  00001	8b ec		 mov	 ebp, esp
  00003	51		 push	 ecx
  00004	53		 push	 ebx
  00005	8b d9		 mov	 ebx, ecx

; 913  : 	CustomSoundInfoList::iterator iter = m_vCustomSoundInfoList.begin();

  00007	8d 43 04	 lea	 eax, DWORD PTR [ebx+4]
  0000a	56		 push	 esi
  0000b	8b 30		 mov	 esi, DWORD PTR [eax]
  0000d	89 45 fc	 mov	 DWORD PTR tv448[ebp], eax

; 914  : 	while ( iter != m_vCustomSoundInfoList.end() )

  00010	3b 73 08	 cmp	 esi, DWORD PTR [ebx+8]
  00013	74 7b		 je	 SHORT $LN9@DeleteCust
  00015	57		 push	 edi
$LL10@DeleteCust:

; 915  : 	{
; 916  : 		CustomSoundInfo *pInfo = *iter;

  00016	8b 3e		 mov	 edi, DWORD PTR [esi]

; 917  : 		if( !pInfo ) continue;

  00018	85 ff		 test	 edi, edi
  0001a	74 13		 je	 SHORT $LN116@DeleteCust

; 918  : 
; 919  : 		if( pInfo->m_szPublicID == rszPubicID )

  0001c	ff 75 08	 push	 DWORD PTR _rszPubicID$[ebp]
  0001f	8d 4f 04	 lea	 ecx, DWORD PTR [edi+4]
  00022	ff 15 00 00 00
	00		 call	 DWORD PTR __imp_??8ioHashString@@QBE_NABV0@@Z
  00028	84 c0		 test	 al, al
  0002a	75 0a		 jne	 SHORT $LN121@DeleteCust

; 928  : 			return;
; 929  : 		}
; 930  : 		else
; 931  : 			++iter;

  0002c	83 c6 04	 add	 esi, 4
$LN116@DeleteCust:

; 914  : 	while ( iter != m_vCustomSoundInfoList.end() )

  0002f	3b 73 08	 cmp	 esi, DWORD PTR [ebx+8]
  00032	75 e2		 jne	 SHORT $LL10@DeleteCust

; 918  : 
; 919  : 		if( pInfo->m_szPublicID == rszPubicID )

  00034	eb 59		 jmp	 SHORT $LN123@DeleteCust
$LN121@DeleteCust:

; 920  : 		{
; 921  : 			for(CustomSoundDataMap::iterator iter2 = pInfo->m_CustomSoundDataMap.begin(); iter2 != pInfo->m_CustomSoundDataMap.end(); ++iter2)

  00036	8b 47 18	 mov	 eax, DWORD PTR [edi+24]
  00039	8b 18		 mov	 ebx, DWORD PTR [eax]
  0003b	89 5d 08	 mov	 DWORD PTR _iter2$507288[ebp], ebx
  0003e	3b d8		 cmp	 ebx, eax
  00040	74 21		 je	 SHORT $LN4@DeleteCust
$LL59@DeleteCust:

; 922  : 			{
; 923  : 				SAFEDELETE( iter2->second );

  00042	8b 4b 10	 mov	 ecx, DWORD PTR [ebx+16]
  00045	85 c9		 test	 ecx, ecx
  00047	74 0a		 je	 SHORT $LN5@DeleteCust
  00049	8b 01		 mov	 eax, DWORD PTR [ecx]
  0004b	6a 01		 push	 1
  0004d	ff 10		 call	 DWORD PTR [eax]
  0004f	83 63 10 00	 and	 DWORD PTR [ebx+16], 0
$LN5@DeleteCust:

; 920  : 		{
; 921  : 			for(CustomSoundDataMap::iterator iter2 = pInfo->m_CustomSoundDataMap.begin(); iter2 != pInfo->m_CustomSoundDataMap.end(); ++iter2)

  00053	8d 4d 08	 lea	 ecx, DWORD PTR _iter2$507288[ebp]
  00056	e8 00 00 00 00	 call	 ??E?$_Tree_unchecked_const_iterator@V?$_Tree_val@V?$_Tmap_traits@KPAVCustomSoundData@@U?$less@K@std@@V?$allocator@U?$pair@$$CBKPAVCustomSoundData@@@std@@@3@$0A@@std@@@std@@U_Iterator_base0@2@@std@@QAEAAV01@XZ ; std::_Tree_unchecked_const_iterator<std::_Tree_val<std::_Tmap_traits<unsigned long,CustomSoundData *,std::less<unsigned long>,std::allocator<std::pair<unsigned long const ,CustomSoundData *> >,0> >,std::_Iterator_base0>::operator++
  0005b	8b 5d 08	 mov	 ebx, DWORD PTR _iter2$507288[ebp]
  0005e	3b 5f 18	 cmp	 ebx, DWORD PTR [edi+24]
  00061	75 df		 jne	 SHORT $LL59@DeleteCust
$LN4@DeleteCust:

; 924  : 			}
; 925  : 			pInfo->m_CustomSoundDataMap.clear();

  00063	8d 4f 14	 lea	 ecx, DWORD PTR [edi+20]
  00066	e8 00 00 00 00	 call	 ?clear@?$_Tree@V?$_Tmap_traits@KPAVCustomSoundData@@U?$less@K@std@@V?$allocator@U?$pair@$$CBKPAVCustomSoundData@@@std@@@3@$0A@@std@@@std@@QAEXXZ ; std::_Tree<std::_Tmap_traits<unsigned long,CustomSoundData *,std::less<unsigned long>,std::allocator<std::pair<unsigned long const ,CustomSoundData *> >,0> >::clear

; 926  : 			SAFEDELETE( *iter );

  0006b	8b 3e		 mov	 edi, DWORD PTR [esi]
  0006d	85 ff		 test	 edi, edi
  0006f	74 11		 je	 SHORT $LN2@DeleteCust
  00071	8b cf		 mov	 ecx, edi
  00073	e8 00 00 00 00	 call	 ??1tagCustomSoundInfo@ioCustomSoundMgr@@QAE@XZ
  00078	57		 push	 edi
  00079	e8 00 00 00 00	 call	 ??3@YAXPAX@Z		; operator delete
  0007e	83 26 00	 and	 DWORD PTR [esi], 0
  00081	59		 pop	 ecx
$LN2@DeleteCust:

; 927  : 			m_vCustomSoundInfoList.erase( iter );

  00082	8b 4d fc	 mov	 ecx, DWORD PTR tv448[ebp]
  00085	56		 push	 esi
  00086	8d 45 08	 lea	 eax, DWORD PTR $T521527[ebp]
  00089	50		 push	 eax
  0008a	e8 00 00 00 00	 call	 ?erase@?$vector@PAUtagCustomSoundInfo@ioCustomSoundMgr@@V?$allocator@PAUtagCustomSoundInfo@ioCustomSoundMgr@@@std@@@std@@QAE?AV?$_Vector_iterator@V?$_Vector_val@PAUtagCustomSoundInfo@ioCustomSoundMgr@@V?$allocator@PAUtagCustomSoundInfo@ioCustomSoundMgr@@@std@@@std@@@2@V?$_Vector_const_iterator@V?$_Vector_val@PAUtagCustomSoundInfo@ioCustomSoundMgr@@V?$allocator@PAUtagCustomSoundInfo@ioCustomSoundMgr@@@std@@@std@@@2@@Z ; std::vector<ioCustomSoundMgr::tagCustomSoundInfo *,std::allocator<ioCustomSoundMgr::tagCustomSoundInfo *> >::erase
$LN123@DeleteCust:
  0008f	5f		 pop	 edi
$LN9@DeleteCust:
  00090	5e		 pop	 esi
  00091	5b		 pop	 ebx

; 932  : 	}
; 933  : }

  00092	c9		 leave
  00093	c2 04 00	 ret	 4
?DeleteCustomSoundInfo@ioCustomSoundMgr@@QAEXABVioHashString@@@Z ENDP ; ioCustomSoundMgr::DeleteCustomSoundInfo
_TEXT	ENDS
PUBLIC	?InsertDisable@ioCustomSoundMgr@@QAEXABVioHashString@@@Z ; ioCustomSoundMgr::InsertDisable
; Function compile flags: /Ogsp
;	COMDAT ?InsertDisable@ioCustomSoundMgr@@QAEXABVioHashString@@@Z
_TEXT	SEGMENT
_rszPublicID$ = 8					; size = 4
?InsertDisable@ioCustomSoundMgr@@QAEXABVioHashString@@@Z PROC ; ioCustomSoundMgr::InsertDisable, COMDAT
; _this$ = ecx

; 953  : {

  00000	55		 push	 ebp
  00001	8b ec		 mov	 ebp, esp
  00003	53		 push	 ebx
  00004	56		 push	 esi
  00005	8b f1		 mov	 esi, ecx
  00007	57		 push	 edi

; 954  : 	for(ioHashStringVec::iterator iter = m_vDisableList.begin(); iter != m_vDisableList.end(); ++iter)

  00008	8b 7e 34	 mov	 edi, DWORD PTR [esi+52]
  0000b	eb 1e		 jmp	 SHORT $LN49@InsertDisa
$LL22@InsertDisa:

; 955  : 	{
; 956  : 	    ioHashString &rszPublicIDInList = *iter;
; 957  : 		if( rszPublicIDInList.IsEmpty() )

  0000d	8b cf		 mov	 ecx, edi
  0000f	ff 15 00 00 00
	00		 call	 DWORD PTR __imp_?IsEmpty@ioHashString@@QBE_NXZ
  00015	84 c0		 test	 al, al
  00017	75 0f		 jne	 SHORT $LN8@InsertDisa

; 958  : 			continue;
; 959  : 		if( rszPublicIDInList == rszPublicID )

  00019	ff 75 08	 push	 DWORD PTR _rszPublicID$[ebp]
  0001c	8b cf		 mov	 ecx, edi
  0001e	ff 15 00 00 00
	00		 call	 DWORD PTR __imp_??8ioHashString@@QBE_NABV0@@Z
  00024	84 c0		 test	 al, al
  00026	75 4e		 jne	 SHORT $LN1@InsertDisa
$LN8@InsertDisa:

; 954  : 	for(ioHashStringVec::iterator iter = m_vDisableList.begin(); iter != m_vDisableList.end(); ++iter)

  00028	83 c7 10	 add	 edi, 16			; 00000010H
$LN49@InsertDisa:
  0002b	3b 7e 38	 cmp	 edi, DWORD PTR [esi+56]
  0002e	75 dd		 jne	 SHORT $LL22@InsertDisa

; 960  : 			return;
; 961  : 	}
; 962  : 
; 963  : 	int iSize = m_vDisableList.size();

  00030	8b 46 38	 mov	 eax, DWORD PTR [esi+56]
  00033	2b 46 34	 sub	 eax, DWORD PTR [esi+52]

; 964  : 	if( iSize >= MAX_DISABLE_LIST )

  00036	83 e0 f0	 and	 eax, -16		; fffffff0H
  00039	3d 40 06 00 00	 cmp	 eax, 1600		; 00000640H
  0003e	7c 27		 jl	 SHORT $LN4@InsertDisa

; 965  : 	{
; 966  : 		if( !COMPARE( m_iCurDisableChangeArray, 0, MAX_DISABLE_LIST ) )			

  00040	8b 46 44	 mov	 eax, DWORD PTR [esi+68]
  00043	85 c0		 test	 eax, eax
  00045	78 05		 js	 SHORT $LN2@InsertDisa
  00047	83 f8 64	 cmp	 eax, 100		; 00000064H
  0004a	7c 04		 jl	 SHORT $LN3@InsertDisa
$LN2@InsertDisa:

; 967  : 			m_iCurDisableChangeArray = 0;

  0004c	83 66 44 00	 and	 DWORD PTR [esi+68], 0
$LN3@InsertDisa:

; 968  : 
; 969  : 		m_vDisableList[m_iCurDisableChangeArray] = rszPublicID;

  00050	8b 4e 44	 mov	 ecx, DWORD PTR [esi+68]
  00053	ff 75 08	 push	 DWORD PTR _rszPublicID$[ebp]
  00056	c1 e1 04	 shl	 ecx, 4
  00059	03 4e 34	 add	 ecx, DWORD PTR [esi+52]
  0005c	ff 15 00 00 00
	00		 call	 DWORD PTR __imp_??4ioHashString@@QAEAAV0@ABV0@@Z

; 970  : 		m_iCurDisableChangeArray++;

  00062	ff 46 44	 inc	 DWORD PTR [esi+68]

; 971  : 		m_bSaveDisableList = true;
; 972  : 	}
; 973  : 	else

  00065	eb 0b		 jmp	 SHORT $LN50@InsertDisa
$LN4@InsertDisa:

; 974  : 	{
; 975  : 		m_vDisableList.push_back( rszPublicID );

  00067	ff 75 08	 push	 DWORD PTR _rszPublicID$[ebp]
  0006a	8d 4e 34	 lea	 ecx, DWORD PTR [esi+52]
  0006d	e8 00 00 00 00	 call	 ?push_back@?$vector@VioHashString@@V?$allocator@VioHashString@@@std@@@std@@QAEXABVioHashString@@@Z ; std::vector<ioHashString,std::allocator<ioHashString> >::push_back
$LN50@InsertDisa:

; 976  : 		m_bSaveDisableList = true;

  00072	c6 46 48 01	 mov	 BYTE PTR [esi+72], 1
$LN1@InsertDisa:
  00076	5f		 pop	 edi
  00077	5e		 pop	 esi
  00078	5b		 pop	 ebx

; 977  : 	}
; 978  : }

  00079	5d		 pop	 ebp
  0007a	c2 04 00	 ret	 4
?InsertDisable@ioCustomSoundMgr@@QAEXABVioHashString@@@Z ENDP ; ioCustomSoundMgr::InsertDisable
_TEXT	ENDS
PUBLIC	_rkLoader$GSCopy$
PUBLIC	?LoadINIForDisable@ioCustomSoundMgr@@IAEXAAVioINILoader@@@Z ; ioCustomSoundMgr::LoadINIForDisable
;	COMDAT xdata$x
; File d:\lost saga for developer\youtube\tutorial\source\src\lsclient\stringprotect.h
xdata$x	SEGMENT
__unwindtable$?LoadINIForDisable@ioCustomSoundMgr@@IAEXAAVioINILoader@@@Z DD 0ffffffffH
	DD	FLAT:__unwindfunclet$?LoadINIForDisable@ioCustomSoundMgr@@IAEXAAVioINILoader@@@Z$0
__ehfuncinfo$?LoadINIForDisable@ioCustomSoundMgr@@IAEXAAVioINILoader@@@Z DD 019930522H
	DD	01H
	DD	FLAT:__unwindtable$?LoadINIForDisable@ioCustomSoundMgr@@IAEXAAVioINILoader@@@Z
	DD	2 DUP(00H)
	DD	2 DUP(00H)
	DD	00H
	DD	01H
; Function compile flags: /Ogsp
; File d:\lost saga for developer\youtube\tutorial\source\src\lsclient\iocustomsoundmgr.cpp
xdata$x	ENDS
;	COMDAT ?LoadINIForDisable@ioCustomSoundMgr@@IAEXAAVioINILoader@@@Z
_TEXT	SEGMENT
$T521915 = -584						; size = 16
_rkLoader$GSCopy$ = -568				; size = 4
$T521979 = -564						; size = 4
_iMax$ = -564						; size = 4
tv1743 = -560						; size = 4
_i$507387 = -560					; size = 4
_szKeyName$507391 = -556				; size = 260
_szBuf$507393 = -296					; size = 260
__k$522140 = -36					; size = 15
__t$522012 = -36					; size = 12
__$EHRec$ = -12						; size = 12
_rkLoader$ = 8						; size = 4
?LoadINIForDisable@ioCustomSoundMgr@@IAEXAAVioINILoader@@@Z PROC ; ioCustomSoundMgr::LoadINIForDisable, COMDAT
; _this$ = ecx

; 1026 : {

  00000	68 3c 02 00 00	 push	 572			; 0000023cH
  00005	b8 00 00 00 00	 mov	 eax, __ehhandler$?LoadINIForDisable@ioCustomSoundMgr@@IAEXAAVioINILoader@@@Z
  0000a	e8 00 00 00 00	 call	 __EH_prolog3_GS
  0000f	8b 5d 08	 mov	 ebx, DWORD PTR _rkLoader$[ebp]
  00012	8b f1		 mov	 esi, ecx

; 1027 : 	m_vDisableList.clear();

  00014	8b 46 38	 mov	 eax, DWORD PTR [esi+56]
  00017	8b 4e 34	 mov	 ecx, DWORD PTR [esi+52]
  0001a	50		 push	 eax
  0001b	51		 push	 ecx
  0001c	8d 85 cc fd ff
	ff		 lea	 eax, DWORD PTR $T521979[ebp]
  00022	50		 push	 eax
  00023	8d 4e 34	 lea	 ecx, DWORD PTR [esi+52]

; 1031 : 	m_iCurDisableChangeArray = rkLoader.LoadInt_e( "CurChangeArray", 0 );

  00026	89 9d c8 fd ff
	ff		 mov	 DWORD PTR _rkLoader$GSCopy$[ebp], ebx
  0002c	e8 00 00 00 00	 call	 ?erase@?$vector@VioHashString@@V?$allocator@VioHashString@@@std@@@std@@QAE?AV?$_Vector_iterator@V?$_Vector_val@VioHashString@@V?$allocator@VioHashString@@@std@@@std@@@2@V?$_Vector_const_iterator@V?$_Vector_val@VioHashString@@V?$allocator@VioHashString@@@std@@@std@@@2@0@Z ; std::vector<ioHashString,std::allocator<ioHashString> >::erase
  00031	6a 02		 push	 2
  00033	c7 45 dc a9 85
	98 8b		 mov	 DWORD PTR __t$522012[ebp], -1952938583 ; 8b9885a9H
  0003a	c7 45 e0 8f 80
	8e a6		 mov	 DWORD PTR __t$522012[ebp+4], -1500610417 ; a68e808fH
  00041	8d 45 dc	 lea	 eax, DWORD PTR __t$522012[ebp]
  00044	c7 45 e4 84 9f
	9f 00		 mov	 DWORD PTR __t$522012[ebp+8], 10461060 ; 009f9f84H
  0004b	59		 pop	 ecx
$LL128@LoadINIFor:

; 1028 : 
; 1029 : 	rkLoader.SetTitle_e( "DisableList" );

  0004c	81 30 ed ec eb
	ea		 xor	 DWORD PTR [eax], -353637139 ; eaebecedH
  00052	83 c0 04	 add	 eax, 4
  00055	49		 dec	 ecx
  00056	75 f4		 jne	 SHORT $LL128@LoadINIFor
  00058	6a 08		 push	 8
  0005a	5f		 pop	 edi
$LL125@LoadINIFor:
  0005b	8b c7		 mov	 eax, edi
  0005d	25 03 00 00 80	 and	 eax, -2147483645	; 80000003H
  00062	79 05		 jns	 SHORT $LN248@LoadINIFor
  00064	48		 dec	 eax
  00065	83 c8 fc	 or	 eax, -4			; fffffffcH
  00068	40		 inc	 eax
$LN248@LoadINIFor:
  00069	b1 ed		 mov	 cl, -19			; ffffffedH
  0006b	2a c8		 sub	 cl, al
  0006d	30 4c 3d dc	 xor	 BYTE PTR __t$522012[ebp+edi], cl
  00071	47		 inc	 edi
  00072	83 ff 0b	 cmp	 edi, 11			; 0000000bH
  00075	7c e4		 jl	 SHORT $LL125@LoadINIFor
  00077	8d 45 dc	 lea	 eax, DWORD PTR __t$522012[ebp]
  0007a	50		 push	 eax
  0007b	8b cb		 mov	 ecx, ebx
  0007d	ff 15 00 00 00
	00		 call	 DWORD PTR __imp_?SetTitle@ioINILoader@@QAEXPBD@Z

; 1030 : 	int iMax = rkLoader.LoadInt( "Max", 0 );

  00083	8b 3d 00 00 00
	00		 mov	 edi, DWORD PTR __imp_?LoadInt@ioINILoader@@QAEHPBDH@Z
  00089	6a 00		 push	 0
  0008b	68 00 00 00 00	 push	 OFFSET ??_C@_03BJDGPCOK@Max?$AA@
  00090	8b cb		 mov	 ecx, ebx
  00092	ff d7		 call	 edi
  00094	6a 03		 push	 3
  00096	89 85 cc fd ff
	ff		 mov	 DWORD PTR _iMax$[ebp], eax

; 1031 : 	m_iCurDisableChangeArray = rkLoader.LoadInt_e( "CurChangeArray", 0 );

  0009c	c7 45 dc ae 99
	99 a9		 mov	 DWORD PTR __k$522140[ebp], -1449551442 ; a99999aeH
  000a3	c7 45 e0 85 8d
	85 8d		 mov	 DWORD PTR __k$522140[ebp+4], -1920627323 ; 8d858d85H
  000aa	c7 45 e4 88 ad
	99 98		 mov	 DWORD PTR __k$522140[ebp+8], -1734759032 ; 9899ad88H
  000b1	66 c7 45 e8 8c
	95		 mov	 WORD PTR __k$522140[ebp+12], 38284 ; 0000958cH
  000b7	8d 45 dc	 lea	 eax, DWORD PTR __k$522140[ebp]
  000ba	c6 45 ea 00	 mov	 BYTE PTR __k$522140[ebp+14], 0
  000be	59		 pop	 ecx
$LL234@LoadINIFor:
  000bf	81 30 ed ec eb
	ea		 xor	 DWORD PTR [eax], -353637139 ; eaebecedH
  000c5	83 c0 04	 add	 eax, 4
  000c8	49		 dec	 ecx
  000c9	75 f4		 jne	 SHORT $LL234@LoadINIFor
  000cb	6a 0c		 push	 12			; 0000000cH
  000cd	58		 pop	 eax
$LL231@LoadINIFor:
  000ce	8b c8		 mov	 ecx, eax
  000d0	81 e1 03 00 00
	80		 and	 ecx, -2147483645	; 80000003H
  000d6	79 05		 jns	 SHORT $LN249@LoadINIFor
  000d8	49		 dec	 ecx
  000d9	83 c9 fc	 or	 ecx, -4			; fffffffcH
  000dc	41		 inc	 ecx
$LN249@LoadINIFor:
  000dd	b2 ed		 mov	 dl, -19			; ffffffedH
  000df	2a d1		 sub	 dl, cl
  000e1	30 54 05 dc	 xor	 BYTE PTR __k$522140[ebp+eax], dl
  000e5	40		 inc	 eax
  000e6	83 f8 0e	 cmp	 eax, 14			; 0000000eH
  000e9	7c e3		 jl	 SHORT $LL231@LoadINIFor
  000eb	6a 00		 push	 0
  000ed	8d 45 dc	 lea	 eax, DWORD PTR __k$522140[ebp]
  000f0	50		 push	 eax
  000f1	8b cb		 mov	 ecx, ebx
  000f3	ff d7		 call	 edi

; 1032 : 
; 1033 : 	for (int i = 0; i < iMax ; i++)

  000f5	83 a5 d0 fd ff
	ff 00		 and	 DWORD PTR _i$507387[ebp], 0
  000fc	83 bd cc fd ff
	ff 00		 cmp	 DWORD PTR _iMax$[ebp], 0
  00103	8b ce		 mov	 ecx, esi
  00105	89 41 44	 mov	 DWORD PTR [ecx+68], eax
  00108	0f 8e bf 00 00
	00		 jle	 $LN1@LoadINIFor
  0010e	bb 03 01 00 00	 mov	 ebx, 259		; 00000103H
  00113	8d 7b 01	 lea	 edi, DWORD PTR [ebx+1]
$LL3@LoadINIFor:

; 1034 : 	{
; 1035 : 		char szKeyName[MAX_PATH]="";

  00116	53		 push	 ebx
  00117	8d 85 d5 fd ff
	ff		 lea	 eax, DWORD PTR _szKeyName$507391[ebp+1]
  0011d	6a 00		 push	 0
  0011f	50		 push	 eax
  00120	c6 85 d4 fd ff
	ff 00		 mov	 BYTE PTR _szKeyName$507391[ebp], 0
  00127	e8 00 00 00 00	 call	 _memset

; 1036 : 		StringCbPrintf( szKeyName, sizeof(szKeyName), "ID%d", i+1);

  0012c	8b 85 d0 fd ff
	ff		 mov	 eax, DWORD PTR _i$507387[ebp]
  00132	40		 inc	 eax
  00133	50		 push	 eax
  00134	68 00 00 00 00	 push	 OFFSET ??_C@_04EHFPNHBI@ID?$CFd?$AA@
  00139	89 85 d0 fd ff
	ff		 mov	 DWORD PTR tv1743[ebp], eax
  0013f	8d 85 d4 fd ff
	ff		 lea	 eax, DWORD PTR _szKeyName$507391[ebp]
  00145	57		 push	 edi
  00146	50		 push	 eax
  00147	e8 00 00 00 00	 call	 ?StringCbPrintfA@@YAJPADIPBDZZ ; StringCbPrintfA

; 1037 : 		char szBuf[MAX_PATH]="";

  0014c	53		 push	 ebx
  0014d	8d 85 d9 fe ff
	ff		 lea	 eax, DWORD PTR _szBuf$507393[ebp+1]
  00153	6a 00		 push	 0
  00155	50		 push	 eax
  00156	c6 85 d8 fe ff
	ff 00		 mov	 BYTE PTR _szBuf$507393[ebp], 0
  0015d	e8 00 00 00 00	 call	 _memset

; 1038 : 		rkLoader.LoadString( szKeyName, "", szBuf, sizeof( szBuf ) );

  00162	8b 8d c8 fd ff
	ff		 mov	 ecx, DWORD PTR _rkLoader$GSCopy$[ebp]
  00168	83 c4 28	 add	 esp, 40			; 00000028H
  0016b	57		 push	 edi
  0016c	8d 85 d8 fe ff
	ff		 lea	 eax, DWORD PTR _szBuf$507393[ebp]
  00172	50		 push	 eax
  00173	68 00 00 00 00	 push	 OFFSET ??_C@_00CNPNBAHC@?$AA@
  00178	8d 85 d4 fd ff
	ff		 lea	 eax, DWORD PTR _szKeyName$507391[ebp]
  0017e	50		 push	 eax
  0017f	ff 15 00 00 00
	00		 call	 DWORD PTR __imp_?LoadStringA@ioINILoader@@QAEXPBD0PADH@Z

; 1039 : 		m_vDisableList.push_back( ioHashString( szBuf ) );

  00185	8d 85 d8 fe ff
	ff		 lea	 eax, DWORD PTR _szBuf$507393[ebp]
  0018b	50		 push	 eax
  0018c	8d 8d b8 fd ff
	ff		 lea	 ecx, DWORD PTR $T521915[ebp]
  00192	ff 15 00 00 00
	00		 call	 DWORD PTR __imp_??0ioHashString@@QAE@PBD@Z
  00198	83 65 fc 00	 and	 DWORD PTR __$EHRec$[ebp+8], 0
  0019c	50		 push	 eax
  0019d	8d 4e 34	 lea	 ecx, DWORD PTR [esi+52]
  001a0	e8 00 00 00 00	 call	 ?push_back@?$vector@VioHashString@@V?$allocator@VioHashString@@@std@@@std@@QAEX$$QAVioHashString@@@Z ; std::vector<ioHashString,std::allocator<ioHashString> >::push_back
  001a5	83 4d fc ff	 or	 DWORD PTR __$EHRec$[ebp+8], -1
  001a9	8d 8d b8 fd ff
	ff		 lea	 ecx, DWORD PTR $T521915[ebp]
  001af	ff 15 00 00 00
	00		 call	 DWORD PTR __imp_??1ioHashString@@QAE@XZ
  001b5	8b 85 d0 fd ff
	ff		 mov	 eax, DWORD PTR tv1743[ebp]
  001bb	89 85 d0 fd ff
	ff		 mov	 DWORD PTR _i$507387[ebp], eax
  001c1	3b 85 cc fd ff
	ff		 cmp	 eax, DWORD PTR _iMax$[ebp]
  001c7	0f 8c 49 ff ff
	ff		 jl	 $LL3@LoadINIFor
$LN1@LoadINIFor:

; 1040 : 	}
; 1041 : }

  001cd	e8 00 00 00 00	 call	 __EH_epilog3_GS
  001d2	c2 04 00	 ret	 4
_TEXT	ENDS
;	COMDAT text$x
text$x	SEGMENT
__unwindfunclet$?LoadINIForDisable@ioCustomSoundMgr@@IAEXAAVioINILoader@@@Z$0:
  00000	8d 8d b8 fd ff
	ff		 lea	 ecx, DWORD PTR $T521915[ebp]
  00006	ff 25 00 00 00
	00		 jmp	 DWORD PTR __imp_??1ioHashString@@QAE@XZ
__ehhandler$?LoadINIForDisable@ioCustomSoundMgr@@IAEXAAVioINILoader@@@Z:
  0000c	8b 54 24 08	 mov	 edx, DWORD PTR [esp+8]
  00010	8d 42 0c	 lea	 eax, DWORD PTR [edx+12]
  00013	8b 8a b4 fd ff
	ff		 mov	 ecx, DWORD PTR [edx-588]
  00019	33 c8		 xor	 ecx, eax
  0001b	e8 00 00 00 00	 call	 @__security_check_cookie@4
  00020	8b 4a fc	 mov	 ecx, DWORD PTR [edx-4]
  00023	33 c8		 xor	 ecx, eax
  00025	e8 00 00 00 00	 call	 @__security_check_cookie@4
  0002a	b8 00 00 00 00	 mov	 eax, OFFSET __ehfuncinfo$?LoadINIForDisable@ioCustomSoundMgr@@IAEXAAVioINILoader@@@Z
  0002f	e9 00 00 00 00	 jmp	 ___CxxFrameHandler3
text$x	ENDS
?LoadINIForDisable@ioCustomSoundMgr@@IAEXAAVioINILoader@@@Z ENDP ; ioCustomSoundMgr::LoadINIForDisable
PUBLIC	?Clear@ioCustomSoundMgr@@IAEXXZ			; ioCustomSoundMgr::Clear
; Function compile flags: /Ogsp
;	COMDAT ?Clear@ioCustomSoundMgr@@IAEXXZ
_TEXT	SEGMENT
$T522622 = -12						; size = 4
_this$ = -12						; size = 4
tv512 = -8						; size = 4
_iter2$506286 = -4					; size = 4
?Clear@ioCustomSoundMgr@@IAEXXZ PROC			; ioCustomSoundMgr::Clear, COMDAT
; _this$ = ecx

; 351  : {

  00000	55		 push	 ebp
  00001	8b ec		 mov	 ebp, esp
  00003	83 ec 0c	 sub	 esp, 12			; 0000000cH

; 352  : 	for(CustomSoundInfoList::iterator iter = m_vCustomSoundInfoList.begin(); iter != m_vCustomSoundInfoList.end(); ++iter)

  00006	8d 41 04	 lea	 eax, DWORD PTR [ecx+4]
  00009	56		 push	 esi
  0000a	8b 30		 mov	 esi, DWORD PTR [eax]
  0000c	89 4d f4	 mov	 DWORD PTR _this$[ebp], ecx
  0000f	89 45 f8	 mov	 DWORD PTR tv512[ebp], eax
  00012	3b 71 08	 cmp	 esi, DWORD PTR [ecx+8]
  00015	74 64		 je	 SHORT $LN7@Clear@2
  00017	53		 push	 ebx
  00018	57		 push	 edi
$LL26@Clear@2:

; 353  : 	{
; 354  : 		CustomSoundInfo *pInfo = *iter;

  00019	8b 1e		 mov	 ebx, DWORD PTR [esi]

; 355  : 		if( !pInfo ) continue;

  0001b	85 db		 test	 ebx, ebx
  0001d	74 52		 je	 SHORT $LN8@Clear@2

; 356  : 
; 357  : 		for(CustomSoundDataMap::iterator iter2 = pInfo->m_CustomSoundDataMap.begin(); iter2 != pInfo->m_CustomSoundDataMap.end(); ++iter2)

  0001f	8b 43 18	 mov	 eax, DWORD PTR [ebx+24]
  00022	8b 38		 mov	 edi, DWORD PTR [eax]
  00024	89 7d fc	 mov	 DWORD PTR _iter2$506286[ebp], edi
  00027	3b f8		 cmp	 edi, eax
  00029	74 21		 je	 SHORT $LN3@Clear@2
$LL139@Clear@2:

; 358  : 		{
; 359  : 			SAFEDELETE( iter2->second );

  0002b	8b 4f 10	 mov	 ecx, DWORD PTR [edi+16]
  0002e	85 c9		 test	 ecx, ecx
  00030	74 0a		 je	 SHORT $LN4@Clear@2
  00032	8b 01		 mov	 eax, DWORD PTR [ecx]
  00034	6a 01		 push	 1
  00036	ff 10		 call	 DWORD PTR [eax]
  00038	83 67 10 00	 and	 DWORD PTR [edi+16], 0
$LN4@Clear@2:

; 356  : 
; 357  : 		for(CustomSoundDataMap::iterator iter2 = pInfo->m_CustomSoundDataMap.begin(); iter2 != pInfo->m_CustomSoundDataMap.end(); ++iter2)

  0003c	8d 4d fc	 lea	 ecx, DWORD PTR _iter2$506286[ebp]
  0003f	e8 00 00 00 00	 call	 ??E?$_Tree_unchecked_const_iterator@V?$_Tree_val@V?$_Tmap_traits@KPAVCustomSoundData@@U?$less@K@std@@V?$allocator@U?$pair@$$CBKPAVCustomSoundData@@@std@@@3@$0A@@std@@@std@@U_Iterator_base0@2@@std@@QAEAAV01@XZ ; std::_Tree_unchecked_const_iterator<std::_Tree_val<std::_Tmap_traits<unsigned long,CustomSoundData *,std::less<unsigned long>,std::allocator<std::pair<unsigned long const ,CustomSoundData *> >,0> >,std::_Iterator_base0>::operator++
  00044	8b 7d fc	 mov	 edi, DWORD PTR _iter2$506286[ebp]
  00047	3b 7b 18	 cmp	 edi, DWORD PTR [ebx+24]
  0004a	75 df		 jne	 SHORT $LL139@Clear@2
$LN3@Clear@2:

; 360  : 		}
; 361  : 		pInfo->m_CustomSoundDataMap.clear();

  0004c	8d 4b 14	 lea	 ecx, DWORD PTR [ebx+20]
  0004f	e8 00 00 00 00	 call	 ?clear@?$_Tree@V?$_Tmap_traits@KPAVCustomSoundData@@U?$less@K@std@@V?$allocator@U?$pair@$$CBKPAVCustomSoundData@@@std@@@3@$0A@@std@@@std@@QAEXXZ ; std::_Tree<std::_Tmap_traits<unsigned long,CustomSoundData *,std::less<unsigned long>,std::allocator<std::pair<unsigned long const ,CustomSoundData *> >,0> >::clear

; 362  : 
; 363  : 		SAFEDELETE( *iter );

  00054	8b 3e		 mov	 edi, DWORD PTR [esi]
  00056	85 ff		 test	 edi, edi
  00058	74 11		 je	 SHORT $LN140@Clear@2
  0005a	8b cf		 mov	 ecx, edi
  0005c	e8 00 00 00 00	 call	 ??1tagCustomSoundInfo@ioCustomSoundMgr@@QAE@XZ
  00061	57		 push	 edi
  00062	e8 00 00 00 00	 call	 ??3@YAXPAX@Z		; operator delete
  00067	83 26 00	 and	 DWORD PTR [esi], 0
  0006a	59		 pop	 ecx
$LN140@Clear@2:
  0006b	8b 4d f4	 mov	 ecx, DWORD PTR _this$[ebp]
  0006e	8b 45 f8	 mov	 eax, DWORD PTR tv512[ebp]
$LN8@Clear@2:

; 352  : 	for(CustomSoundInfoList::iterator iter = m_vCustomSoundInfoList.begin(); iter != m_vCustomSoundInfoList.end(); ++iter)

  00071	83 c6 04	 add	 esi, 4
  00074	3b 71 08	 cmp	 esi, DWORD PTR [ecx+8]
  00077	75 a0		 jne	 SHORT $LL26@Clear@2
  00079	5f		 pop	 edi
  0007a	5b		 pop	 ebx
$LN7@Clear@2:

; 364  : 	}
; 365  : 	m_vCustomSoundInfoList.clear();

  0007b	8b 48 04	 mov	 ecx, DWORD PTR [eax+4]
  0007e	8b 10		 mov	 edx, DWORD PTR [eax]
  00080	51		 push	 ecx
  00081	52		 push	 edx
  00082	8d 4d f4	 lea	 ecx, DWORD PTR $T522622[ebp]
  00085	51		 push	 ecx
  00086	8b c8		 mov	 ecx, eax
  00088	e8 00 00 00 00	 call	 ?erase@?$vector@PAUtagCustomSoundInfo@ioCustomSoundMgr@@V?$allocator@PAUtagCustomSoundInfo@ioCustomSoundMgr@@@std@@@std@@QAE?AV?$_Vector_iterator@V?$_Vector_val@PAUtagCustomSoundInfo@ioCustomSoundMgr@@V?$allocator@PAUtagCustomSoundInfo@ioCustomSoundMgr@@@std@@@std@@@2@V?$_Vector_const_iterator@V?$_Vector_val@PAUtagCustomSoundInfo@ioCustomSoundMgr@@V?$allocator@PAUtagCustomSoundInfo@ioCustomSoundMgr@@@std@@@std@@@2@0@Z ; std::vector<ioCustomSoundMgr::tagCustomSoundInfo *,std::allocator<ioCustomSoundMgr::tagCustomSoundInfo *> >::erase
  0008d	5e		 pop	 esi

; 366  : }

  0008e	c9		 leave
  0008f	c3		 ret	 0
?Clear@ioCustomSoundMgr@@IAEXXZ ENDP			; ioCustomSoundMgr::Clear
_TEXT	ENDS
PUBLIC	??1ioCustomSoundMgr@@UAE@XZ			; ioCustomSoundMgr::~ioCustomSoundMgr
;	COMDAT xdata$x
; File d:\lost saga for developer\youtube\tutorial\source\src\io3dengine\iosingleton.h
xdata$x	SEGMENT
__unwindtable$??1ioCustomSoundMgr@@UAE@XZ DD 0ffffffffH
	DD	FLAT:__unwindfunclet$??1ioCustomSoundMgr@@UAE@XZ$0
	DD	00H
	DD	FLAT:__unwindfunclet$??1ioCustomSoundMgr@@UAE@XZ$1
	DD	01H
	DD	FLAT:__unwindfunclet$??1ioCustomSoundMgr@@UAE@XZ$2
	DD	02H
	DD	FLAT:__unwindfunclet$??1ioCustomSoundMgr@@UAE@XZ$3
__ehfuncinfo$??1ioCustomSoundMgr@@UAE@XZ DD 019930522H
	DD	04H
	DD	FLAT:__unwindtable$??1ioCustomSoundMgr@@UAE@XZ
	DD	2 DUP(00H)
	DD	2 DUP(00H)
	DD	00H
	DD	01H
; Function compile flags: /Ogsp
; File d:\lost saga for developer\youtube\tutorial\source\src\lsclient\iocustomsoundmgr.cpp
xdata$x	ENDS
;	COMDAT ??1ioCustomSoundMgr@@UAE@XZ
_TEXT	SEGMENT
$T522715 = -20						; size = 4
_this$ = -16						; size = 4
__$EHRec$ = -12						; size = 12
??1ioCustomSoundMgr@@UAE@XZ PROC			; ioCustomSoundMgr::~ioCustomSoundMgr, COMDAT
; _this$ = ecx

; 213  : {

  00000	6a 08		 push	 8
  00002	b8 00 00 00 00	 mov	 eax, __ehhandler$??1ioCustomSoundMgr@@UAE@XZ
  00007	e8 00 00 00 00	 call	 __EH_prolog3
  0000c	8b f1		 mov	 esi, ecx
  0000e	89 75 f0	 mov	 DWORD PTR _this$[ebp], esi
  00011	c7 06 00 00 00
	00		 mov	 DWORD PTR [esi], OFFSET ??_7ioCustomSoundMgr@@6B@
  00017	c7 45 fc 03 00
	00 00		 mov	 DWORD PTR __$EHRec$[ebp+8], 3

; 214  : 	SaveINIForDisable();

  0001e	e8 00 00 00 00	 call	 ?SaveINIForDisable@ioCustomSoundMgr@@IAEXXZ ; ioCustomSoundMgr::SaveINIForDisable

; 215  : 
; 216  : 	Clear();

  00023	8b ce		 mov	 ecx, esi
  00025	e8 00 00 00 00	 call	 ?Clear@ioCustomSoundMgr@@IAEXXZ ; ioCustomSoundMgr::Clear

; 217  : 	m_vDisableList.clear();

  0002a	8b 46 38	 mov	 eax, DWORD PTR [esi+56]
  0002d	8b 4e 34	 mov	 ecx, DWORD PTR [esi+52]
  00030	50		 push	 eax
  00031	51		 push	 ecx
  00032	8d 45 ec	 lea	 eax, DWORD PTR $T522715[ebp]
  00035	50		 push	 eax
  00036	8d 4e 34	 lea	 ecx, DWORD PTR [esi+52]
  00039	e8 00 00 00 00	 call	 ?erase@?$vector@VioHashString@@V?$allocator@VioHashString@@@std@@@std@@QAE?AV?$_Vector_iterator@V?$_Vector_val@VioHashString@@V?$allocator@VioHashString@@@std@@@std@@@2@V?$_Vector_const_iterator@V?$_Vector_val@VioHashString@@V?$allocator@VioHashString@@@std@@@std@@@2@0@Z ; std::vector<ioHashString,std::allocator<ioHashString> >::erase

; 218  : }

  0003e	8d 4e 34	 lea	 ecx, DWORD PTR [esi+52]
  00041	c6 45 fc 02	 mov	 BYTE PTR __$EHRec$[ebp+8], 2
  00045	e8 00 00 00 00	 call	 ?_Tidy@?$vector@VioHashString@@V?$allocator@VioHashString@@@std@@@std@@IAEXXZ ; std::vector<ioHashString,std::allocator<ioHashString> >::_Tidy
  0004a	8d 4e 14	 lea	 ecx, DWORD PTR [esi+20]
  0004d	c6 45 fc 01	 mov	 BYTE PTR __$EHRec$[ebp+8], 1
  00051	ff 15 00 00 00
	00		 call	 DWORD PTR __imp_??1ioHashString@@QAE@XZ
  00057	8d 4e 04	 lea	 ecx, DWORD PTR [esi+4]
  0005a	c6 45 fc 00	 mov	 BYTE PTR __$EHRec$[ebp+8], 0
  0005e	e8 00 00 00 00	 call	 ?_Tidy@?$vector@PAUtagCustomSoundInfo@ioCustomSoundMgr@@V?$allocator@PAUtagCustomSoundInfo@ioCustomSoundMgr@@@std@@@std@@IAEXXZ ; std::vector<ioCustomSoundMgr::tagCustomSoundInfo *,std::allocator<ioCustomSoundMgr::tagCustomSoundInfo *> >::_Tidy
  00063	83 25 00 00 00
	00 00		 and	 DWORD PTR ?ms_Singleton@?$Singleton@VioCustomSoundMgr@@@@1PAVioCustomSoundMgr@@A, 0 ; Singleton<ioCustomSoundMgr>::ms_Singleton
  0006a	e8 00 00 00 00	 call	 __EH_epilog3
  0006f	c3		 ret	 0
_TEXT	ENDS
;	COMDAT text$x
text$x	SEGMENT
__unwindfunclet$??1ioCustomSoundMgr@@UAE@XZ$0:
  00000	8b 4d f0	 mov	 ecx, DWORD PTR _this$[ebp]
  00003	83 c1 04	 add	 ecx, 4
  00006	e9 00 00 00 00	 jmp	 ??1?$Singleton@VioCustomSoundMgr@@@@QAE@XZ ; Singleton<ioCustomSoundMgr>::~Singleton<ioCustomSoundMgr>
__unwindfunclet$??1ioCustomSoundMgr@@UAE@XZ$1:
  0000b	8b 4d f0	 mov	 ecx, DWORD PTR _this$[ebp]
  0000e	83 c1 04	 add	 ecx, 4
  00011	e9 00 00 00 00	 jmp	 ??1?$vector@PAUtagCustomSoundInfo@ioCustomSoundMgr@@V?$allocator@PAUtagCustomSoundInfo@ioCustomSoundMgr@@@std@@@std@@QAE@XZ ; std::vector<ioCustomSoundMgr::tagCustomSoundInfo *,std::allocator<ioCustomSoundMgr::tagCustomSoundInfo *> >::~vector<ioCustomSoundMgr::tagCustomSoundInfo *,std::allocator<ioCustomSoundMgr::tagCustomSoundInfo *> >
__unwindfunclet$??1ioCustomSoundMgr@@UAE@XZ$2:
  00016	8b 4d f0	 mov	 ecx, DWORD PTR _this$[ebp]
  00019	83 c1 14	 add	 ecx, 20			; 00000014H
  0001c	ff 25 00 00 00
	00		 jmp	 DWORD PTR __imp_??1ioHashString@@QAE@XZ
__unwindfunclet$??1ioCustomSoundMgr@@UAE@XZ$3:
  00022	8b 4d f0	 mov	 ecx, DWORD PTR _this$[ebp]
  00025	83 c1 34	 add	 ecx, 52			; 00000034H
  00028	e9 00 00 00 00	 jmp	 ??1?$vector@VioHashString@@V?$allocator@VioHashString@@@std@@@std@@QAE@XZ ; std::vector<ioHashString,std::allocator<ioHashString> >::~vector<ioHashString,std::allocator<ioHashString> >
__ehhandler$??1ioCustomSoundMgr@@UAE@XZ:
  0002d	8b 54 24 08	 mov	 edx, DWORD PTR [esp+8]
  00031	8d 42 0c	 lea	 eax, DWORD PTR [edx+12]
  00034	8b 4a e8	 mov	 ecx, DWORD PTR [edx-24]
  00037	33 c8		 xor	 ecx, eax
  00039	e8 00 00 00 00	 call	 @__security_check_cookie@4
  0003e	b8 00 00 00 00	 mov	 eax, OFFSET __ehfuncinfo$??1ioCustomSoundMgr@@UAE@XZ
  00043	e9 00 00 00 00	 jmp	 ___CxxFrameHandler3
text$x	ENDS
??1ioCustomSoundMgr@@UAE@XZ ENDP			; ioCustomSoundMgr::~ioCustomSoundMgr
PUBLIC	_rszPublicID$GSCopy$
PUBLIC	_this$GSCopy$
PUBLIC	?LoadINI@ioCustomSoundMgr@@QAEXKABVioHashString@@@Z ; ioCustomSoundMgr::LoadINI
EXTRN	__imp_?SetFileName@ioINILoader@@QAEXPBD_N@Z:PROC
;	COMDAT xdata$x
xdata$x	SEGMENT
__unwindtable$?LoadINI@ioCustomSoundMgr@@QAEXKABVioHashString@@@Z DD 0ffffffffH
	DD	FLAT:__unwindfunclet$?LoadINI@ioCustomSoundMgr@@QAEXKABVioHashString@@@Z$0
	DD	0ffffffffH
	DD	FLAT:__unwindfunclet$?LoadINI@ioCustomSoundMgr@@QAEXKABVioHashString@@@Z$1
	DD	01H
	DD	FLAT:__unwindfunclet$?LoadINI@ioCustomSoundMgr@@QAEXKABVioHashString@@@Z$2
__ehfuncinfo$?LoadINI@ioCustomSoundMgr@@QAEXKABVioHashString@@@Z DD 019930522H
	DD	03H
	DD	FLAT:__unwindtable$?LoadINI@ioCustomSoundMgr@@QAEXKABVioHashString@@@Z
	DD	2 DUP(00H)
	DD	2 DUP(00H)
	DD	00H
	DD	01H
; Function compile flags: /Ogsp
xdata$x	ENDS
;	COMDAT ?LoadINI@ioCustomSoundMgr@@QAEXKABVioHashString@@@Z
_TEXT	SEGMENT
$T522797 = -2840					; size = 8
$T522762 = -2832					; size = 4
_pInfo$ = -2832						; size = 4
_dwCRC$505971 = -2828					; size = 4
$T522766 = -2828					; size = 4
$T522761 = -2824					; size = 4
_rszPublicID$GSCopy$ = -2820				; size = 4
_dwCurCRC$505988 = -2820				; size = 4
_this$GSCopy$ = -2816					; size = 4
tv8417 = -2812						; size = 4
$T522765 = -2808					; size = 4
_kLoader$ = -2804					; size = 912
_szCurPath$505976 = -1892				; size = 520
_szFullPath$505977 = -1372				; size = 520
_szININame$ = -852					; size = 260
_szKeyName$ = -592					; size = 260
_szBuf$ = -332						; size = 260
___encStr$505666 = -72					; size = 7
___encStr$505509 = -60					; size = 7
__t$523554 = -48					; size = 5
__t$523054 = -48					; size = 5
$T522799 = -48						; size = 8
__k$523442 = -36					; size = 14
__k$523317 = -36					; size = 16
__k$523179 = -36					; size = 16
___encStr$505822 = -32					; size = 10
__$EHRec$ = -12						; size = 12
_dwUserIndex$ = 8					; size = 4
_rszPublicID$ = 12					; size = 4
?LoadINI@ioCustomSoundMgr@@QAEXKABVioHashString@@@Z PROC ; ioCustomSoundMgr::LoadINI, COMDAT
; _this$ = ecx

; 246  : {

  00000	68 0c 0b 00 00	 push	 2828			; 00000b0cH
  00005	b8 00 00 00 00	 mov	 eax, __ehhandler$?LoadINI@ioCustomSoundMgr@@QAEXKABVioHashString@@@Z
  0000a	e8 00 00 00 00	 call	 __EH_prolog3_GS

; 247  : 	if(dwUserIndex == 0 ) return;

  0000f	8b 7d 08	 mov	 edi, DWORD PTR _dwUserIndex$[ebp]
  00012	8b 5d 0c	 mov	 ebx, DWORD PTR _rszPublicID$[ebp]
  00015	8b f1		 mov	 esi, ecx

; 275  : 	{
; 276  : 		CustomSoundData *pData = new CustomSoundData;

  00017	89 b5 00 f5 ff
	ff		 mov	 DWORD PTR _this$GSCopy$[ebp], esi
  0001d	89 9d fc f4 ff
	ff		 mov	 DWORD PTR _rszPublicID$GSCopy$[ebp], ebx
  00023	85 ff		 test	 edi, edi
  00025	0f 84 a0 06 00
	00		 je	 $LN319@LoadINI

; 248  : 	if( rszPublicID.IsEmpty() ) return;

  0002b	8b cb		 mov	 ecx, ebx
  0002d	ff 15 00 00 00
	00		 call	 DWORD PTR __imp_?IsEmpty@ioHashString@@QBE_NXZ
  00033	84 c0		 test	 al, al
  00035	0f 85 90 06 00
	00		 jne	 $LN319@LoadINI

; 249  : 
; 250  : 	Clear();

  0003b	8b ce		 mov	 ecx, esi
  0003d	e8 00 00 00 00	 call	 ?Clear@ioCustomSoundMgr@@IAEXXZ ; ioCustomSoundMgr::Clear

; 251  : 
; 252  : 	CustomSoundInfo *pInfo = new CustomSoundInfo;

  00042	6a 24		 push	 36			; 00000024H
  00044	e8 00 00 00 00	 call	 ??2@YAPAXI@Z		; operator new
  00049	59		 pop	 ecx
  0004a	89 85 f0 f4 ff
	ff		 mov	 DWORD PTR $T522762[ebp], eax
  00050	83 65 fc 00	 and	 DWORD PTR __$EHRec$[ebp+8], 0
  00054	85 c0		 test	 eax, eax
  00056	74 0f		 je	 SHORT $LN321@LoadINI
  00058	8b c8		 mov	 ecx, eax
  0005a	e8 00 00 00 00	 call	 ??0tagCustomSoundInfo@ioCustomSoundMgr@@QAE@XZ ; ioCustomSoundMgr::tagCustomSoundInfo::tagCustomSoundInfo
  0005f	89 85 f8 f4 ff
	ff		 mov	 DWORD PTR $T522761[ebp], eax
  00065	eb 0d		 jmp	 SHORT $LN322@LoadINI
$LN321@LoadINI:
  00067	83 a5 f8 f4 ff
	ff 00		 and	 DWORD PTR $T522761[ebp], 0
  0006e	8b 85 f8 f4 ff
	ff		 mov	 eax, DWORD PTR $T522761[ebp]
$LN322@LoadINI:
  00074	83 4d fc ff	 or	 DWORD PTR __$EHRec$[ebp+8], -1
  00078	89 85 f0 f4 ff
	ff		 mov	 DWORD PTR _pInfo$[ebp], eax

; 253  : 	if( !pInfo ) return;

  0007e	85 c0		 test	 eax, eax
  00080	0f 84 45 06 00
	00		 je	 $LN319@LoadINI

; 254  : 	pInfo->m_dwUserIndex = dwUserIndex;
; 255  : 	pInfo->m_szPublicID  = rszPublicID;

  00086	53		 push	 ebx
  00087	8d 48 04	 lea	 ecx, DWORD PTR [eax+4]
  0008a	89 38		 mov	 DWORD PTR [eax], edi
  0008c	ff 15 00 00 00
	00		 call	 DWORD PTR __imp_??4ioHashString@@QAEAAV0@ABV0@@Z
  00092	6a 06		 push	 6

; 256  : 
; 257  : 	ioINILoader_e kLoader( "config/sp2_custom_sound.ini" );

  00094	c7 85 5c f8 ff
	ff 8e 83 85 8c	 mov	 DWORD PTR _kLoader$[ebp+848], -1937407090 ; 8c85838eH
  0009e	c7 85 60 f8 ff
	ff 84 8b c4 99	 mov	 DWORD PTR _kLoader$[ebp+852], -1715172476 ; 99c48b84H
  000a8	c7 85 64 f8 ff
	ff 9d de b4 89	 mov	 DWORD PTR _kLoader$[ebp+856], -1984635235 ; 89b4de9dH
  000b2	c7 85 68 f8 ff
	ff 98 9f 9f 85	 mov	 DWORD PTR _kLoader$[ebp+860], -2053136488 ; 859f9f98H
  000bc	c7 85 6c f8 ff
	ff 80 b3 98 85	 mov	 DWORD PTR _kLoader$[ebp+864], -2053590144 ; 8598b380H
  000c6	c7 85 70 f8 ff
	ff 98 82 8f c4	 mov	 DWORD PTR _kLoader$[ebp+868], -997227880 ; c48f8298H
  000d0	8d 85 5c f8 ff
	ff		 lea	 eax, DWORD PTR _kLoader$[ebp+848]
  000d6	c7 85 74 f8 ff
	ff 84 82 82 00	 mov	 DWORD PTR _kLoader$[ebp+872], 8553092 ; 00828284H
  000e0	59		 pop	 ecx
$LL448@LoadINI:
  000e1	81 30 ed ec eb
	ea		 xor	 DWORD PTR [eax], -353637139 ; eaebecedH
  000e7	83 c0 04	 add	 eax, 4
  000ea	49		 dec	 ecx
  000eb	75 f4		 jne	 SHORT $LL448@LoadINI
  000ed	6a 18		 push	 24			; 00000018H
  000ef	58		 pop	 eax
$LL445@LoadINI:
  000f0	8b c8		 mov	 ecx, eax
  000f2	81 e1 03 00 00
	80		 and	 ecx, -2147483645	; 80000003H
  000f8	79 05		 jns	 SHORT $LN1068@LoadINI
  000fa	49		 dec	 ecx
  000fb	83 c9 fc	 or	 ecx, -4			; fffffffcH
  000fe	41		 inc	 ecx
$LN1068@LoadINI:
  000ff	b2 ed		 mov	 dl, -19			; ffffffedH
  00101	2a d1		 sub	 dl, cl
  00103	30 94 05 5c f8
	ff ff		 xor	 BYTE PTR _kLoader$[ebp+eax+848], dl
  0010a	40		 inc	 eax
  0010b	83 f8 1b	 cmp	 eax, 27			; 0000001bH
  0010e	7c e0		 jl	 SHORT $LL445@LoadINI
  00110	33 ff		 xor	 edi, edi
  00112	47		 inc	 edi
  00113	57		 push	 edi
  00114	8d 85 5c f8 ff
	ff		 lea	 eax, DWORD PTR _kLoader$[ebp+848]
  0011a	50		 push	 eax
  0011b	8d 8d 0c f5 ff
	ff		 lea	 ecx, DWORD PTR _kLoader$[ebp]
  00121	ff 15 00 00 00
	00		 call	 DWORD PTR __imp_??0ioINILoader@@QAE@PBD_N@Z

; 258  : 	kLoader.SetTitle_e( "Info" );

  00127	8d 45 d0	 lea	 eax, DWORD PTR __t$523054[ebp]
  0012a	c7 45 d0 a4 82
	8d 85		 mov	 DWORD PTR __t$523054[ebp], -2054323548 ; 858d82a4H
  00131	bb ed ec eb ea	 mov	 ebx, -353637139		; eaebecedH
  00136	31 5d d0	 xor	 DWORD PTR __t$523054[ebp], ebx
  00139	50		 push	 eax
  0013a	8d 8d 0c f5 ff
	ff		 lea	 ecx, DWORD PTR _kLoader$[ebp]
  00140	89 7d fc	 mov	 DWORD PTR __$EHRec$[ebp+8], edi
  00143	c6 45 d4 00	 mov	 BYTE PTR __t$523054[ebp+4], 0
  00147	ff 15 00 00 00
	00		 call	 DWORD PTR __imp_?SetTitle@ioINILoader@@QAEXPBD@Z

; 259  : 	m_iMaxCustomData = kLoader.LoadInt( "Max", 10 );

  0014d	8b 3d 00 00 00
	00		 mov	 edi, DWORD PTR __imp_?LoadInt@ioINILoader@@QAEHPBDH@Z
  00153	6a 0a		 push	 10			; 0000000aH
  00155	68 00 00 00 00	 push	 OFFSET ??_C@_03BJDGPCOK@Max?$AA@
  0015a	8d 8d 0c f5 ff
	ff		 lea	 ecx, DWORD PTR _kLoader$[ebp]
  00160	ff d7		 call	 edi
  00162	89 46 24	 mov	 DWORD PTR [esi+36], eax

; 260  : 	char szBuf[MAX_PATH]="";

  00165	be 03 01 00 00	 mov	 esi, 259		; 00000103H
  0016a	56		 push	 esi
  0016b	8d 85 b5 fe ff
	ff		 lea	 eax, DWORD PTR _szBuf$[ebp+1]
  00171	6a 00		 push	 0
  00173	50		 push	 eax
  00174	c6 85 b4 fe ff
	ff 00		 mov	 BYTE PTR _szBuf$[ebp], 0
  0017b	e8 00 00 00 00	 call	 _memset
  00180	83 c4 0c	 add	 esp, 12			; 0000000cH
  00183	6a 03		 push	 3

; 261  : 	kLoader.LoadString_e( "DefaultChatIcon", "", szBuf, MAX_PATH );

  00185	c7 45 dc a9 89
	8d 8b		 mov	 DWORD PTR __k$523179[ebp], -1953658455 ; 8b8d89a9H
  0018c	c7 45 e0 98 80
	9f a9		 mov	 DWORD PTR __k$523179[ebp+4], -1449164648 ; a99f8098H
  00193	c7 45 e4 85 8d
	9f a3		 mov	 DWORD PTR __k$523179[ebp+8], -1549824635 ; a39f8d85H
  0019a	8d 45 dc	 lea	 eax, DWORD PTR __k$523179[ebp]
  0019d	c7 45 e8 8e 83
	85 00		 mov	 DWORD PTR __k$523179[ebp+12], 8749966 ; 0085838eH
  001a4	59		 pop	 ecx
$LL660@LoadINI:
  001a5	31 18		 xor	 DWORD PTR [eax], ebx
  001a7	83 c0 04	 add	 eax, 4
  001aa	49		 dec	 ecx
  001ab	75 f8		 jne	 SHORT $LL660@LoadINI
  001ad	6a 0c		 push	 12			; 0000000cH
  001af	58		 pop	 eax
$LL657@LoadINI:
  001b0	8b c8		 mov	 ecx, eax
  001b2	81 e1 03 00 00
	80		 and	 ecx, -2147483645	; 80000003H
  001b8	79 05		 jns	 SHORT $LN1069@LoadINI
  001ba	49		 dec	 ecx
  001bb	83 c9 fc	 or	 ecx, -4			; fffffffcH
  001be	41		 inc	 ecx
$LN1069@LoadINI:
  001bf	b2 ed		 mov	 dl, -19			; ffffffedH
  001c1	2a d1		 sub	 dl, cl
  001c3	30 54 05 dc	 xor	 BYTE PTR __k$523179[ebp+eax], dl
  001c7	40		 inc	 eax
  001c8	83 f8 0f	 cmp	 eax, 15			; 0000000fH
  001cb	7c e3		 jl	 SHORT $LL657@LoadINI
  001cd	bb 04 01 00 00	 mov	 ebx, 260		; 00000104H
  001d2	53		 push	 ebx
  001d3	8d 85 b4 fe ff
	ff		 lea	 eax, DWORD PTR _szBuf$[ebp]
  001d9	50		 push	 eax
  001da	68 00 00 00 00	 push	 OFFSET ??_C@_00CNPNBAHC@?$AA@
  001df	8d 45 dc	 lea	 eax, DWORD PTR __k$523179[ebp]
  001e2	50		 push	 eax
  001e3	8d 8d 0c f5 ff
	ff		 lea	 ecx, DWORD PTR _kLoader$[ebp]
  001e9	ff 15 00 00 00
	00		 call	 DWORD PTR __imp_?LoadStringA@ioINILoader@@QAEXPBD0PADH@Z

; 262  : 	m_szDefaultChatIcon = szBuf;

  001ef	8b 8d 00 f5 ff
	ff		 mov	 ecx, DWORD PTR _this$GSCopy$[ebp]
  001f5	8d 85 b4 fe ff
	ff		 lea	 eax, DWORD PTR _szBuf$[ebp]
  001fb	50		 push	 eax
  001fc	83 c1 14	 add	 ecx, 20			; 00000014H
  001ff	ff 15 00 00 00
	00		 call	 DWORD PTR __imp_??4ioHashString@@QAEAAV0@PBD@Z
  00205	6a 03		 push	 3

; 263  : 
; 264  : 	m_dwDelayTimePlayMy = kLoader.LoadInt_e( "DelayTimePlayMy", 0 );

  00207	c7 45 dc a9 89
	87 8b		 mov	 DWORD PTR __k$523317[ebp], -1954051671 ; 8b8789a9H
  0020e	c7 45 e0 94 b8
	82 87		 mov	 DWORD PTR __k$523317[ebp+4], -2021476204 ; 8782b894H
  00215	c7 45 e4 88 bc
	87 8b		 mov	 DWORD PTR __k$523317[ebp+8], -1954038648 ; 8b87bc88H
  0021c	8d 45 dc	 lea	 eax, DWORD PTR __k$523317[ebp]
  0021f	c7 45 e8 94 a1
	92 00		 mov	 DWORD PTR __k$523317[ebp+12], 9609620 ; 0092a194H
  00226	59		 pop	 ecx
$LL766@LoadINI:
  00227	81 30 ed ec eb
	ea		 xor	 DWORD PTR [eax], -353637139 ; eaebecedH
  0022d	83 c0 04	 add	 eax, 4
  00230	49		 dec	 ecx
  00231	75 f4		 jne	 SHORT $LL766@LoadINI
  00233	6a 0c		 push	 12			; 0000000cH
  00235	58		 pop	 eax
$LL763@LoadINI:
  00236	8b c8		 mov	 ecx, eax
  00238	81 e1 03 00 00
	80		 and	 ecx, -2147483645	; 80000003H
  0023e	79 05		 jns	 SHORT $LN1070@LoadINI
  00240	49		 dec	 ecx
  00241	83 c9 fc	 or	 ecx, -4			; fffffffcH
  00244	41		 inc	 ecx
$LN1070@LoadINI:
  00245	b2 ed		 mov	 dl, -19			; ffffffedH
  00247	2a d1		 sub	 dl, cl
  00249	30 54 05 dc	 xor	 BYTE PTR __k$523317[ebp+eax], dl
  0024d	40		 inc	 eax
  0024e	83 f8 0f	 cmp	 eax, 15			; 0000000fH
  00251	7c e3		 jl	 SHORT $LL763@LoadINI
  00253	6a 00		 push	 0
  00255	8d 45 dc	 lea	 eax, DWORD PTR __k$523317[ebp]
  00258	50		 push	 eax
  00259	8d 8d 0c f5 ff
	ff		 lea	 ecx, DWORD PTR _kLoader$[ebp]
  0025f	ff d7		 call	 edi
  00261	8b 8d 00 f5 ff
	ff		 mov	 ecx, DWORD PTR _this$GSCopy$[ebp]
  00267	89 41 28	 mov	 DWORD PTR [ecx+40], eax
  0026a	6a 03		 push	 3

; 265  : 	m_dwMaxPlayLength   = kLoader.LoadInt_e( "MaxPlayLength", 0 );

  0026c	c7 45 dc a0 8d
	93 ba		 mov	 DWORD PTR __k$523442[ebp], -1164735072 ; ba938da0H
  00273	c7 45 e0 81 8d
	92 a6		 mov	 DWORD PTR __k$523442[ebp+4], -1500344959 ; a6928d81H
  0027a	c7 45 e4 88 82
	8c 9e		 mov	 DWORD PTR __k$523442[ebp+8], -1634958712 ; 9e8c8288H
  00281	8d 45 dc	 lea	 eax, DWORD PTR __k$523442[ebp]
  00284	66 c7 45 e8 85
	00		 mov	 WORD PTR __k$523442[ebp+12], 133 ; 00000085H
  0028a	59		 pop	 ecx
$LL872@LoadINI:
  0028b	81 30 ed ec eb
	ea		 xor	 DWORD PTR [eax], -353637139 ; eaebecedH
  00291	83 c0 04	 add	 eax, 4
  00294	49		 dec	 ecx
  00295	75 f4		 jne	 SHORT $LL872@LoadINI
  00297	80 75 e8 ed	 xor	 BYTE PTR __k$523442[ebp+12], -19 ; ffffffedH
  0029b	51		 push	 ecx
  0029c	8d 45 dc	 lea	 eax, DWORD PTR __k$523442[ebp]
  0029f	50		 push	 eax
  002a0	8d 8d 0c f5 ff
	ff		 lea	 ecx, DWORD PTR _kLoader$[ebp]
  002a6	ff d7		 call	 edi
  002a8	8b bd 00 f5 ff
	ff		 mov	 edi, DWORD PTR _this$GSCopy$[ebp]

; 266  : 	
; 267  : 	char szKeyName[MAX_PATH]="";

  002ae	56		 push	 esi
  002af	89 47 30	 mov	 DWORD PTR [edi+48], eax
  002b2	8d 85 b1 fd ff
	ff		 lea	 eax, DWORD PTR _szKeyName$[ebp+1]
  002b8	6a 00		 push	 0
  002ba	50		 push	 eax
  002bb	c6 85 b0 fd ff
	ff 00		 mov	 BYTE PTR _szKeyName$[ebp], 0
  002c2	e8 00 00 00 00	 call	 _memset

; 268  : 	char szININame[MAX_PATH]="";

  002c7	56		 push	 esi
  002c8	33 f6		 xor	 esi, esi
  002ca	8d 85 ad fc ff
	ff		 lea	 eax, DWORD PTR _szININame$[ebp+1]
  002d0	56		 push	 esi
  002d1	50		 push	 eax
  002d2	c6 85 ac fc ff
	ff 00		 mov	 BYTE PTR _szININame$[ebp], 0
  002d9	e8 00 00 00 00	 call	 _memset

; 269  : 	StringCbPrintf( szININame, sizeof(szININame), "Save\\%s\\CustomSound.ini", rszPublicID.c_str() );

  002de	8b 8d fc f4 ff
	ff		 mov	 ecx, DWORD PTR _rszPublicID$GSCopy$[ebp]
  002e4	83 c4 18	 add	 esp, 24			; 00000018H
  002e7	ff 15 00 00 00
	00		 call	 DWORD PTR __imp_?c_str@ioHashString@@QBEPBDXZ
  002ed	50		 push	 eax
  002ee	68 00 00 00 00	 push	 OFFSET ??_C@_0BI@PIFFLPLN@Save?2?$CFs?2CustomSound?4ini?$AA@
  002f3	8d 85 ac fc ff
	ff		 lea	 eax, DWORD PTR _szININame$[ebp]
  002f9	53		 push	 ebx
  002fa	50		 push	 eax
  002fb	e8 00 00 00 00	 call	 ?StringCbPrintfA@@YAJPADIPBDZZ ; StringCbPrintfA
  00300	83 c4 10	 add	 esp, 16			; 00000010H

; 270  : 
; 271  : 	kLoader.SetFileName( szININame , false );

  00303	56		 push	 esi
  00304	8d 85 ac fc ff
	ff		 lea	 eax, DWORD PTR _szININame$[ebp]
  0030a	50		 push	 eax
  0030b	8d 8d 0c f5 ff
	ff		 lea	 ecx, DWORD PTR _kLoader$[ebp]
  00311	ff 15 00 00 00
	00		 call	 DWORD PTR __imp_?SetFileName@ioINILoader@@QAEXPBD_N@Z

; 272  : 	kLoader.SetTitle_e( "Info" );

  00317	8d 45 d0	 lea	 eax, DWORD PTR __t$523554[ebp]
  0031a	c7 45 d0 a4 82
	8d 85		 mov	 DWORD PTR __t$523554[ebp], -2054323548 ; 858d82a4H
  00321	81 75 d0 ed ec
	eb ea		 xor	 DWORD PTR __t$523554[ebp], -353637139 ; eaebecedH
  00328	50		 push	 eax
  00329	8d 8d 0c f5 ff
	ff		 lea	 ecx, DWORD PTR _kLoader$[ebp]
  0032f	c6 45 d4 00	 mov	 BYTE PTR __t$523554[ebp+4], 0
  00333	ff 15 00 00 00
	00		 call	 DWORD PTR __imp_?SetTitle@ioINILoader@@QAEXPBD@Z

; 273  : 	
; 274  : 	for(int i=0; i < m_iMaxCustomData; i++ )

  00339	39 77 24	 cmp	 DWORD PTR [edi+36], esi
  0033c	0f 8e 5c 03 00
	00		 jle	 $LN313@LoadINI

; 272  : 	kLoader.SetTitle_e( "Info" );

  00342	c7 85 04 f5 ff
	ff 01 00 00 00	 mov	 DWORD PTR tv8417[ebp], 1
  0034c	eb 02		 jmp	 SHORT $LN315@LoadINI
$LL1066@LoadINI:
  0034e	33 f6		 xor	 esi, esi
$LN315@LoadINI:

; 275  : 	{
; 276  : 		CustomSoundData *pData = new CustomSoundData;

  00350	6a 40		 push	 64			; 00000040H
  00352	e8 00 00 00 00	 call	 ??2@YAPAXI@Z		; operator new
  00357	59		 pop	 ecx
  00358	89 85 f4 f4 ff
	ff		 mov	 DWORD PTR $T522766[ebp], eax
  0035e	c6 45 fc 02	 mov	 BYTE PTR __$EHRec$[ebp+8], 2
  00362	3b c6		 cmp	 eax, esi
  00364	74 0f		 je	 SHORT $LN323@LoadINI
  00366	8b c8		 mov	 ecx, eax
  00368	e8 00 00 00 00	 call	 ??0CustomSoundData@@QAE@XZ ; CustomSoundData::CustomSoundData
  0036d	89 85 08 f5 ff
	ff		 mov	 DWORD PTR $T522765[ebp], eax
  00373	eb 06		 jmp	 SHORT $LN324@LoadINI
$LN323@LoadINI:
  00375	89 b5 08 f5 ff
	ff		 mov	 DWORD PTR $T522765[ebp], esi
$LN324@LoadINI:
  0037b	c6 45 fc 01	 mov	 BYTE PTR __$EHRec$[ebp+8], 1

; 277  : 		if( !pData )

  0037f	39 b5 08 f5 ff
	ff		 cmp	 DWORD PTR $T522765[ebp], esi
  00385	0f 84 f7 02 00
	00		 je	 $LN314@LoadINI

; 278  : 			continue;
; 279  : 		ZeroMemory( szKeyName, sizeof( szKeyName ) );

  0038b	53		 push	 ebx
  0038c	8d 85 b0 fd ff
	ff		 lea	 eax, DWORD PTR _szKeyName$[ebp]
  00392	56		 push	 esi
  00393	50		 push	 eax
  00394	e8 00 00 00 00	 call	 _memset

; 280  : 		ZeroMemory( szBuf, sizeof( szBuf ) );

  00399	53		 push	 ebx
  0039a	8d 85 b4 fe ff
	ff		 lea	 eax, DWORD PTR _szBuf$[ebp]
  003a0	56		 push	 esi
  003a1	50		 push	 eax
  003a2	e8 00 00 00 00	 call	 _memset
  003a7	83 c4 18	 add	 esp, 24			; 00000018H

; 281  : 		StringCbPrintf_e(szKeyName, sizeof(szKeyName), "Text%d", i+1);

  003aa	6a 04		 push	 4
  003ac	c7 45 c4 b9 89
	93 9e		 mov	 DWORD PTR ___encStr$505509[ebp], -1634498119 ; 9e9389b9H
  003b3	81 75 c4 ed ec
	eb ea		 xor	 DWORD PTR ___encStr$505509[ebp], -353637139 ; eaebecedH
  003ba	66 c7 45 c8 c8
	88		 mov	 WORD PTR ___encStr$505509[ebp+4], 35016 ; 000088c8H
  003c0	c6 45 ca 00	 mov	 BYTE PTR ___encStr$505509[ebp+6], 0
  003c4	5e		 pop	 esi
$LL983@LoadINI:
  003c5	8b c6		 mov	 eax, esi
  003c7	25 03 00 00 80	 and	 eax, -2147483645	; 80000003H
  003cc	79 05		 jns	 SHORT $LN1071@LoadINI
  003ce	48		 dec	 eax
  003cf	83 c8 fc	 or	 eax, -4			; fffffffcH
  003d2	40		 inc	 eax
$LN1071@LoadINI:
  003d3	b1 ed		 mov	 cl, -19			; ffffffedH
  003d5	2a c8		 sub	 cl, al
  003d7	30 4c 35 c4	 xor	 BYTE PTR ___encStr$505509[ebp+esi], cl
  003db	46		 inc	 esi
  003dc	83 fe 06	 cmp	 esi, 6
  003df	7c e4		 jl	 SHORT $LL983@LoadINI
  003e1	ff b5 04 f5 ff
	ff		 push	 DWORD PTR tv8417[ebp]
  003e7	8d 45 c4	 lea	 eax, DWORD PTR ___encStr$505509[ebp]
  003ea	50		 push	 eax
  003eb	8d 85 b0 fd ff
	ff		 lea	 eax, DWORD PTR _szKeyName$[ebp]
  003f1	53		 push	 ebx
  003f2	50		 push	 eax
  003f3	e8 00 00 00 00	 call	 ?StringCbPrintfA@@YAJPADIPBDZZ ; StringCbPrintfA
  003f8	83 c4 10	 add	 esp, 16			; 00000010H

; 282  : 		kLoader.LoadString( szKeyName, "", szBuf, MAX_PATH );

  003fb	53		 push	 ebx
  003fc	8d 85 b4 fe ff
	ff		 lea	 eax, DWORD PTR _szBuf$[ebp]
  00402	50		 push	 eax
  00403	bf 00 00 00 00	 mov	 edi, OFFSET ??_C@_00CNPNBAHC@?$AA@
  00408	57		 push	 edi
  00409	8d 85 b0 fd ff
	ff		 lea	 eax, DWORD PTR _szKeyName$[ebp]
  0040f	50		 push	 eax
  00410	8d 8d 0c f5 ff
	ff		 lea	 ecx, DWORD PTR _kLoader$[ebp]
  00416	ff 15 00 00 00
	00		 call	 DWORD PTR __imp_?LoadStringA@ioINILoader@@QAEXPBD0PADH@Z

; 283  : 		if( strcmp( szBuf, "") == 0 )

  0041c	33 c9		 xor	 ecx, ecx
  0041e	41		 inc	 ecx
  0041f	8d b5 b4 fe ff
	ff		 lea	 esi, DWORD PTR _szBuf$[ebp]
  00425	33 c0		 xor	 eax, eax
  00427	f3 a6		 repe cmpsb
  00429	74 05		 je	 SHORT $LN1064@LoadINI
  0042b	1b c0		 sbb	 eax, eax
  0042d	83 d8 ff	 sbb	 eax, -1
$LN1064@LoadINI:

; 284  : 		{
; 285  : 			SAFEDELETE( pData );

  00430	8b 8d 08 f5 ff
	ff		 mov	 ecx, DWORD PTR $T522765[ebp]
  00436	85 c0		 test	 eax, eax
  00438	75 0b		 jne	 SHORT $LN212@LoadINI
$LN1073@LoadINI:
  0043a	8b 01		 mov	 eax, DWORD PTR [ecx]
$LN1076@LoadINI:
  0043c	6a 01		 push	 1
  0043e	ff 10		 call	 DWORD PTR [eax]

; 286  : 			continue;

  00440	e9 3d 02 00 00	 jmp	 $LN314@LoadINI
$LN212@LoadINI:

; 287  : 		}
; 288  : 		pData->SetKeyWord( szBuf );

  00445	8d 85 b4 fe ff
	ff		 lea	 eax, DWORD PTR _szBuf$[ebp]
  0044b	50		 push	 eax
  0044c	83 c1 10	 add	 ecx, 16			; 00000010H
  0044f	ff 15 00 00 00
	00		 call	 DWORD PTR __imp_??4ioHashString@@QAEAAV0@PBD@Z

; 289  : 		
; 290  : 		ZeroMemory( szKeyName, sizeof( szKeyName ) );

  00455	53		 push	 ebx
  00456	8d 85 b0 fd ff
	ff		 lea	 eax, DWORD PTR _szKeyName$[ebp]
  0045c	6a 00		 push	 0
  0045e	50		 push	 eax
  0045f	e8 00 00 00 00	 call	 _memset

; 291  : 		ZeroMemory( szBuf, sizeof( szBuf ) );

  00464	53		 push	 ebx
  00465	8d 85 b4 fe ff
	ff		 lea	 eax, DWORD PTR _szBuf$[ebp]
  0046b	6a 00		 push	 0
  0046d	50		 push	 eax
  0046e	e8 00 00 00 00	 call	 _memset
  00473	83 c4 18	 add	 esp, 24			; 00000018H

; 292  : 		StringCbPrintf_e(szKeyName, sizeof(szKeyName), "File%d", i+1);

  00476	6a 04		 push	 4
  00478	c7 45 b8 ab 85
	87 8f		 mov	 DWORD PTR ___encStr$505666[ebp], -1886943829 ; 8f8785abH
  0047f	81 75 b8 ed ec
	eb ea		 xor	 DWORD PTR ___encStr$505666[ebp], -353637139 ; eaebecedH
  00486	66 c7 45 bc c8
	88		 mov	 WORD PTR ___encStr$505666[ebp+4], 35016 ; 000088c8H
  0048c	c6 45 be 00	 mov	 BYTE PTR ___encStr$505666[ebp+6], 0
  00490	5e		 pop	 esi
$LL993@LoadINI:
  00491	8b c6		 mov	 eax, esi
  00493	25 03 00 00 80	 and	 eax, -2147483645	; 80000003H
  00498	79 05		 jns	 SHORT $LN1072@LoadINI
  0049a	48		 dec	 eax
  0049b	83 c8 fc	 or	 eax, -4			; fffffffcH
  0049e	40		 inc	 eax
$LN1072@LoadINI:
  0049f	b1 ed		 mov	 cl, -19			; ffffffedH
  004a1	2a c8		 sub	 cl, al
  004a3	30 4c 35 b8	 xor	 BYTE PTR ___encStr$505666[ebp+esi], cl
  004a7	46		 inc	 esi
  004a8	83 fe 06	 cmp	 esi, 6
  004ab	7c e4		 jl	 SHORT $LL993@LoadINI
  004ad	ff b5 04 f5 ff
	ff		 push	 DWORD PTR tv8417[ebp]
  004b3	8d 45 b8	 lea	 eax, DWORD PTR ___encStr$505666[ebp]
  004b6	50		 push	 eax
  004b7	8d 85 b0 fd ff
	ff		 lea	 eax, DWORD PTR _szKeyName$[ebp]
  004bd	53		 push	 ebx
  004be	50		 push	 eax
  004bf	e8 00 00 00 00	 call	 ?StringCbPrintfA@@YAJPADIPBDZZ ; StringCbPrintfA
  004c4	83 c4 10	 add	 esp, 16			; 00000010H

; 293  : 		kLoader.LoadString( szKeyName, "", szBuf, MAX_PATH );

  004c7	53		 push	 ebx
  004c8	8d 85 b4 fe ff
	ff		 lea	 eax, DWORD PTR _szBuf$[ebp]
  004ce	50		 push	 eax
  004cf	bf 00 00 00 00	 mov	 edi, OFFSET ??_C@_00CNPNBAHC@?$AA@
  004d4	57		 push	 edi
  004d5	8d 85 b0 fd ff
	ff		 lea	 eax, DWORD PTR _szKeyName$[ebp]
  004db	50		 push	 eax
  004dc	8d 8d 0c f5 ff
	ff		 lea	 ecx, DWORD PTR _kLoader$[ebp]
  004e2	ff 15 00 00 00
	00		 call	 DWORD PTR __imp_?LoadStringA@ioINILoader@@QAEXPBD0PADH@Z

; 294  : 		if( strcmp( szBuf, "") == 0 )

  004e8	33 c9		 xor	 ecx, ecx
  004ea	41		 inc	 ecx
  004eb	8d b5 b4 fe ff
	ff		 lea	 esi, DWORD PTR _szBuf$[ebp]
  004f1	33 c0		 xor	 eax, eax
  004f3	f3 a6		 repe cmpsb
  004f5	75 0b		 jne	 SHORT $LN111@LoadINI
$LN1075@LoadINI:

; 295  : 		{
; 296  : 			SAFEDELETE( pData );

  004f7	8b 8d 08 f5 ff
	ff		 mov	 ecx, DWORD PTR $T522765[ebp]

; 297  : 			continue;

  004fd	e9 38 ff ff ff	 jmp	 $LN1073@LoadINI
$LN111@LoadINI:

; 298  : 		}
; 299  : 
; 300  : 		ZeroMemory( szKeyName, sizeof( szKeyName ) );

  00502	53		 push	 ebx
  00503	33 f6		 xor	 esi, esi
  00505	8d 85 b0 fd ff
	ff		 lea	 eax, DWORD PTR _szKeyName$[ebp]
  0050b	56		 push	 esi
  0050c	50		 push	 eax
  0050d	e8 00 00 00 00	 call	 _memset
  00512	83 c4 0c	 add	 esp, 12			; 0000000cH
  00515	6a 02		 push	 2

; 301  : 		StringCbPrintf_e( szKeyName, sizeof(szKeyName), "FileCRC%d", i+1);

  00517	c7 45 e0 ab 85
	87 8f		 mov	 DWORD PTR ___encStr$505822[ebp], -1886943829 ; 8f8785abH
  0051e	c7 45 e4 ae be
	a8 cf		 mov	 DWORD PTR ___encStr$505822[ebp+4], -811024722 ; cfa8beaeH
  00525	8d 45 e0	 lea	 eax, DWORD PTR ___encStr$505822[ebp]
  00528	66 c7 45 e8 89
	00		 mov	 WORD PTR ___encStr$505822[ebp+8], 137 ; 00000089H
  0052e	59		 pop	 ecx
$LL1004@LoadINI:
  0052f	81 30 ed ec eb
	ea		 xor	 DWORD PTR [eax], -353637139 ; eaebecedH
  00535	83 c0 04	 add	 eax, 4
  00538	49		 dec	 ecx
  00539	75 f4		 jne	 SHORT $LL1004@LoadINI
  0053b	ff b5 04 f5 ff
	ff		 push	 DWORD PTR tv8417[ebp]
  00541	80 75 e8 ed	 xor	 BYTE PTR ___encStr$505822[ebp+8], -19 ; ffffffedH
  00545	8d 45 e0	 lea	 eax, DWORD PTR ___encStr$505822[ebp]
  00548	50		 push	 eax
  00549	8d 85 b0 fd ff
	ff		 lea	 eax, DWORD PTR _szKeyName$[ebp]
  0054f	53		 push	 ebx
  00550	50		 push	 eax
  00551	e8 00 00 00 00	 call	 ?StringCbPrintfA@@YAJPADIPBDZZ ; StringCbPrintfA
  00556	83 c4 10	 add	 esp, 16			; 00000010H

; 302  : 		DWORD dwCRC = kLoader.LoadInt( szKeyName, 0 );

  00559	56		 push	 esi
  0055a	8d 85 b0 fd ff
	ff		 lea	 eax, DWORD PTR _szKeyName$[ebp]
  00560	50		 push	 eax
  00561	8d 8d 0c f5 ff
	ff		 lea	 ecx, DWORD PTR _kLoader$[ebp]
  00567	ff 15 00 00 00
	00		 call	 DWORD PTR __imp_?LoadInt@ioINILoader@@QAEHPBDH@Z
  0056d	89 85 f4 f4 ff
	ff		 mov	 DWORD PTR _dwCRC$505971[ebp], eax

; 303  : 		if( dwCRC == 0 )

  00573	3b c6		 cmp	 eax, esi

; 304  : 		{
; 305  : 			SAFEDELETE( pData );
; 306  : 			continue;

  00575	74 80		 je	 SHORT $LN1075@LoadINI

; 307  : 		}
; 308  : 
; 309  : 		
; 310  : 		char szCurPath[MAX_PATH*2]="";

  00577	bf 07 02 00 00	 mov	 edi, 519		; 00000207H
  0057c	57		 push	 edi
  0057d	8d 85 9d f8 ff
	ff		 lea	 eax, DWORD PTR _szCurPath$505976[ebp+1]
  00583	56		 push	 esi
  00584	50		 push	 eax
  00585	c6 85 9c f8 ff
	ff 00		 mov	 BYTE PTR _szCurPath$505976[ebp], 0
  0058c	e8 00 00 00 00	 call	 _memset
  00591	83 c4 0c	 add	 esp, 12			; 0000000cH

; 311  : 		GetCurrentDirectory( sizeof( szCurPath ), szCurPath );

  00594	8d 85 9c f8 ff
	ff		 lea	 eax, DWORD PTR _szCurPath$505976[ebp]
  0059a	50		 push	 eax
  0059b	8d 77 01	 lea	 esi, DWORD PTR [edi+1]
  0059e	56		 push	 esi
  0059f	ff 15 00 00 00
	00		 call	 DWORD PTR __imp__GetCurrentDirectoryA@8

; 312  : 
; 313  : 		char szFullPath[MAX_PATH*2]="";

  005a5	57		 push	 edi
  005a6	33 ff		 xor	 edi, edi
  005a8	8d 85 a5 fa ff
	ff		 lea	 eax, DWORD PTR _szFullPath$505977[ebp+1]
  005ae	57		 push	 edi
  005af	50		 push	 eax
  005b0	c6 85 a4 fa ff
	ff 00		 mov	 BYTE PTR _szFullPath$505977[ebp], 0
  005b7	e8 00 00 00 00	 call	 _memset

; 314  : 		StringCbPrintf( szFullPath, sizeof(szFullPath), "%s\\Usersound\\%s", szCurPath, szBuf );

  005bc	8d 85 b4 fe ff
	ff		 lea	 eax, DWORD PTR _szBuf$[ebp]
  005c2	50		 push	 eax
  005c3	8d 85 9c f8 ff
	ff		 lea	 eax, DWORD PTR _szCurPath$505976[ebp]
  005c9	50		 push	 eax
  005ca	68 00 00 00 00	 push	 OFFSET ??_C@_0BA@GLAFFDBF@?$CFs?2Usersound?2?$CFs?$AA@
  005cf	8d 85 a4 fa ff
	ff		 lea	 eax, DWORD PTR _szFullPath$505977[ebp]
  005d5	56		 push	 esi
  005d6	50		 push	 eax
  005d7	e8 00 00 00 00	 call	 ?StringCbPrintfA@@YAJPADIPBDZZ ; StringCbPrintfA

; 315  : 		int iFileSize = Help::GetFileSize( szFullPath );

  005dc	8d 85 a4 fa ff
	ff		 lea	 eax, DWORD PTR _szFullPath$505977[ebp]
  005e2	50		 push	 eax
  005e3	e8 00 00 00 00	 call	 ?GetFileSize@Help@@YAHPBD@Z ; Help::GetFileSize
  005e8	83 c4 24	 add	 esp, 36			; 00000024H

; 316  : 		if( iFileSize < 0 )

  005eb	3b c7		 cmp	 eax, edi

; 317  : 		{
; 318  : 			SAFEDELETE( pData );
; 319  : 			continue;

  005ed	0f 8c 04 ff ff
	ff		 jl	 $LN1075@LoadINI

; 320  : 		}
; 321  : 
; 322  : 		if( iFileSize > MAX_WAV_SIZE )

  005f3	3d 50 c3 00 00	 cmp	 eax, 50000		; 0000c350H

; 323  : 		{
; 324  : 			SAFEDELETE( pData );
; 325  : 			continue;

  005f8	0f 8f f9 fe ff
	ff		 jg	 $LN1075@LoadINI

; 326  : 		}
; 327  : 
; 328  : 		DWORD dwCurCRC = 0;
; 329  : 		CCrc32Static::FileCrc32Streams((LPCTSTR)szFullPath, dwCurCRC);

  005fe	8d 85 fc f4 ff
	ff		 lea	 eax, DWORD PTR _dwCurCRC$505988[ebp]
  00604	50		 push	 eax
  00605	8d 85 a4 fa ff
	ff		 lea	 eax, DWORD PTR _szFullPath$505977[ebp]
  0060b	50		 push	 eax
  0060c	89 bd fc f4 ff
	ff		 mov	 DWORD PTR _dwCurCRC$505988[ebp], edi
  00612	e8 00 00 00 00	 call	 ?FileCrc32Streams@CCrc32Static@@SAKPBDAAK@Z ; CCrc32Static::FileCrc32Streams

; 330  : 		if( dwCRC != dwCurCRC )

  00617	8b 85 fc f4 ff
	ff		 mov	 eax, DWORD PTR _dwCurCRC$505988[ebp]
  0061d	59		 pop	 ecx
  0061e	59		 pop	 ecx
  0061f	39 85 f4 f4 ff
	ff		 cmp	 DWORD PTR _dwCRC$505971[ebp], eax

; 331  : 		{
; 332  : 			SAFEDELETE( pData );
; 333  : 			continue;

  00625	0f 85 cc fe ff
	ff		 jne	 $LN1075@LoadINI

; 334  : 		}
; 335  : 
; 336  : 		if( !pData->OpenAndPac( szFullPath, dwCurCRC) )

  0062b	8b b5 08 f5 ff
	ff		 mov	 esi, DWORD PTR $T522765[ebp]
  00631	50		 push	 eax
  00632	8d 85 a4 fa ff
	ff		 lea	 eax, DWORD PTR _szFullPath$505977[ebp]
  00638	50		 push	 eax
  00639	8b ce		 mov	 ecx, esi
  0063b	e8 00 00 00 00	 call	 ?OpenAndPac@CustomSoundData@@QAE_NPBDK@Z ; CustomSoundData::OpenAndPac
  00640	84 c0		 test	 al, al
  00642	75 09		 jne	 SHORT $LN2@LoadINI

; 337  : 		{
; 338  : 			SAFEDELETE( pData );

  00644	8b 06		 mov	 eax, DWORD PTR [esi]
  00646	8b ce		 mov	 ecx, esi

; 339  : 			continue;

  00648	e9 ef fd ff ff	 jmp	 $LN1076@LoadINI
$LN2@LoadINI:

; 340  : 		}
; 341  : 
; 342  : 		pInfo->m_CustomSoundDataMap.insert( CustomSoundDataMap::value_type( i+1, pData) );

  0064d	8b 85 04 f5 ff
	ff		 mov	 eax, DWORD PTR tv8417[ebp]
  00653	89 85 e8 f4 ff
	ff		 mov	 DWORD PTR $T522797[ebp], eax
  00659	89 b5 ec f4 ff
	ff		 mov	 DWORD PTR $T522797[ebp+4], esi
  0065f	8b b5 f8 f4 ff
	ff		 mov	 esi, DWORD PTR $T522761[ebp]
  00665	57		 push	 edi
  00666	8d 85 e8 f4 ff
	ff		 lea	 eax, DWORD PTR $T522797[ebp]
  0066c	50		 push	 eax
  0066d	8d 4e 14	 lea	 ecx, DWORD PTR [esi+20]
  00670	e8 00 00 00 00	 call	 ??$_Buynode@U?$pair@$$CBKPAVCustomSoundData@@@std@@@?$_Tree_val@V?$_Tmap_traits@KPAVCustomSoundData@@U?$less@K@std@@V?$allocator@U?$pair@$$CBKPAVCustomSoundData@@@std@@@3@$0A@@std@@@std@@QAEPAU_Node@?$_Tree_nod@V?$_Tmap_traits@KPAVCustomSoundData@@U?$less@K@std@@V?$allocator@U?$pair@$$CBKPAVCustomSoundData@@@std@@@3@$0A@@std@@@1@$$QAU?$pair@$$CBKPAVCustomSoundData@@@1@@Z ; std::_Tree_val<std::_Tmap_traits<unsigned long,CustomSoundData *,std::less<unsigned long>,std::allocator<std::pair<unsigned long const ,CustomSoundData *> >,0> >::_Buynode<std::pair<unsigned long const ,CustomSoundData *> >
  00675	50		 push	 eax
  00676	8d 45 d0	 lea	 eax, DWORD PTR $T522799[ebp]
  00679	50		 push	 eax
  0067a	8d 4e 14	 lea	 ecx, DWORD PTR [esi+20]
  0067d	e8 00 00 00 00	 call	 ?_Linsert@?$_Tree@V?$_Tmap_traits@KPAVCustomSoundData@@U?$less@K@std@@V?$allocator@U?$pair@$$CBKPAVCustomSoundData@@@std@@@3@$0A@@std@@@std@@QAE?AU?$pair@V?$_Tree_iterator@V?$_Tree_val@V?$_Tmap_traits@KPAVCustomSoundData@@U?$less@K@std@@V?$allocator@U?$pair@$$CBKPAVCustomSoundData@@@std@@@3@$0A@@std@@@std@@@std@@_N@2@PAU_Node@?$_Tree_nod@V?$_Tmap_traits@KPAVCustomSoundData@@U?$less@K@std@@V?$allocator@U?$pair@$$CBKPAVCustomSoundData@@@std@@@3@$0A@@std@@@2@_N@Z ; std::_Tree<std::_Tmap_traits<unsigned long,CustomSoundData *,std::less<unsigned long>,std::allocator<std::pair<unsigned long const ,CustomSoundData *> >,0> >::_Linsert
$LN314@LoadINI:

; 273  : 	
; 274  : 	for(int i=0; i < m_iMaxCustomData; i++ )

  00682	ff 85 04 f5 ff
	ff		 inc	 DWORD PTR tv8417[ebp]
  00688	8b 85 04 f5 ff
	ff		 mov	 eax, DWORD PTR tv8417[ebp]
  0068e	8b bd 00 f5 ff
	ff		 mov	 edi, DWORD PTR _this$GSCopy$[ebp]
  00694	48		 dec	 eax
  00695	3b 47 24	 cmp	 eax, DWORD PTR [edi+36]
  00698	0f 8c b0 fc ff
	ff		 jl	 $LL1066@LoadINI
$LN313@LoadINI:

; 343  : 	}
; 344  : 
; 345  : 	m_vCustomSoundInfoList.push_back( pInfo );

  0069e	8d 85 f0 f4 ff
	ff		 lea	 eax, DWORD PTR _pInfo$[ebp]
  006a4	50		 push	 eax
  006a5	8d 4f 04	 lea	 ecx, DWORD PTR [edi+4]
  006a8	e8 00 00 00 00	 call	 ?push_back@?$vector@PAUtagCustomSoundInfo@ioCustomSoundMgr@@V?$allocator@PAUtagCustomSoundInfo@ioCustomSoundMgr@@@std@@@std@@QAEXABQAUtagCustomSoundInfo@ioCustomSoundMgr@@@Z ; std::vector<ioCustomSoundMgr::tagCustomSoundInfo *,std::allocator<ioCustomSoundMgr::tagCustomSoundInfo *> >::push_back

; 346  : 
; 347  : 	LoadINIForDisable( kLoader );

  006ad	8d 85 0c f5 ff
	ff		 lea	 eax, DWORD PTR _kLoader$[ebp]
  006b3	50		 push	 eax
  006b4	8b cf		 mov	 ecx, edi
  006b6	e8 00 00 00 00	 call	 ?LoadINIForDisable@ioCustomSoundMgr@@IAEXAAVioINILoader@@@Z ; ioCustomSoundMgr::LoadINIForDisable

; 348  : }

  006bb	83 4d fc ff	 or	 DWORD PTR __$EHRec$[ebp+8], -1
  006bf	8d 8d 0c f5 ff
	ff		 lea	 ecx, DWORD PTR _kLoader$[ebp]
  006c5	ff 15 00 00 00
	00		 call	 DWORD PTR __imp_??1ioINILoader@@QAE@XZ
$LN319@LoadINI:
  006cb	e8 00 00 00 00	 call	 __EH_epilog3_GS
  006d0	c2 08 00	 ret	 8
_TEXT	ENDS
;	COMDAT text$x
text$x	SEGMENT
__unwindfunclet$?LoadINI@ioCustomSoundMgr@@QAEXKABVioHashString@@@Z$0:
  00000	ff b5 f0 f4 ff
	ff		 push	 DWORD PTR $T522762[ebp]
  00006	e8 00 00 00 00	 call	 ??3@YAXPAX@Z		; operator delete
  0000b	59		 pop	 ecx
  0000c	c3		 ret	 0
__unwindfunclet$?LoadINI@ioCustomSoundMgr@@QAEXKABVioHashString@@@Z$1:
  0000d	8d 8d 0c f5 ff
	ff		 lea	 ecx, DWORD PTR _kLoader$[ebp]
  00013	e9 00 00 00 00	 jmp	 ??1ioINILoader_e@@QAE@XZ
__unwindfunclet$?LoadINI@ioCustomSoundMgr@@QAEXKABVioHashString@@@Z$2:
  00018	ff b5 f4 f4 ff
	ff		 push	 DWORD PTR $T522766[ebp]
  0001e	e8 00 00 00 00	 call	 ??3@YAXPAX@Z		; operator delete
  00023	59		 pop	 ecx
  00024	c3		 ret	 0
__ehhandler$?LoadINI@ioCustomSoundMgr@@QAEXKABVioHashString@@@Z:
  00025	8b 54 24 08	 mov	 edx, DWORD PTR [esp+8]
  00029	8d 42 0c	 lea	 eax, DWORD PTR [edx+12]
  0002c	8b 8a e4 f4 ff
	ff		 mov	 ecx, DWORD PTR [edx-2844]
  00032	33 c8		 xor	 ecx, eax
  00034	e8 00 00 00 00	 call	 @__security_check_cookie@4
  00039	8b 4a fc	 mov	 ecx, DWORD PTR [edx-4]
  0003c	33 c8		 xor	 ecx, eax
  0003e	e8 00 00 00 00	 call	 @__security_check_cookie@4
  00043	b8 00 00 00 00	 mov	 eax, OFFSET __ehfuncinfo$?LoadINI@ioCustomSoundMgr@@QAEXKABVioHashString@@@Z
  00048	e9 00 00 00 00	 jmp	 ___CxxFrameHandler3
text$x	ENDS
?LoadINI@ioCustomSoundMgr@@QAEXKABVioHashString@@@Z ENDP ; ioCustomSoundMgr::LoadINI
; Function compile flags: /Ogsp
;	COMDAT ??_GioCustomSoundMgr@@UAEPAXI@Z
_TEXT	SEGMENT
___flags$ = 8						; size = 4
??_GioCustomSoundMgr@@UAEPAXI@Z PROC			; ioCustomSoundMgr::`scalar deleting destructor', COMDAT
; _this$ = ecx
  00000	55		 push	 ebp
  00001	8b ec		 mov	 ebp, esp
  00003	56		 push	 esi
  00004	8b f1		 mov	 esi, ecx
  00006	e8 00 00 00 00	 call	 ??1ioCustomSoundMgr@@UAE@XZ ; ioCustomSoundMgr::~ioCustomSoundMgr
  0000b	f6 45 08 01	 test	 BYTE PTR ___flags$[ebp], 1
  0000f	74 07		 je	 SHORT $LN1@scalar@6
  00011	56		 push	 esi
  00012	e8 00 00 00 00	 call	 ??3@YAXPAX@Z		; operator delete
  00017	59		 pop	 ecx
$LN1@scalar@6:
  00018	8b c6		 mov	 eax, esi
  0001a	5e		 pop	 esi
  0001b	5d		 pop	 ebp
  0001c	c2 04 00	 ret	 4
??_GioCustomSoundMgr@@UAEPAXI@Z ENDP			; ioCustomSoundMgr::`scalar deleting destructor'
_TEXT	ENDS
END
