; Listing generated by Microsoft (R) Optimizing Compiler Version 16.00.30319.01 

	TITLE	D:\Lost Saga For Developer\Youtube\Tutorial\Source\src\LSClient\ioDamageUpDownBuff.cpp
	.686P
	.XMM
	include listing.inc
	.model	flat

INCLUDELIB MSVCRT
INCLUDELIB OLDNAMES

PUBLIC	?return1@@YAIXZ					; return1
; Function compile flags: /Ogsp
; File d:\lost saga for developer\youtube\tutorial\source\src\lsclient\stdafx.h
;	COMDAT ?return1@@YAIXZ
_TEXT	SEGMENT
?return1@@YAIXZ PROC					; return1, COMDAT

; 17   : 	__forceinline unsigned int return1() { __asm mov eax, 1 };

  00000	b8 01 00 00 00	 mov	 eax, 1
  00005	c3		 ret	 0
?return1@@YAIXZ ENDP					; return1
_TEXT	ENDS
PUBLIC	?GetBlowStopMotionState@ioBaseChar@@QBE_NXZ	; ioBaseChar::GetBlowStopMotionState
; Function compile flags: /Ogsp
; File d:\lost saga for developer\youtube\tutorial\source\src\lsclient\iobasechar.h
;	COMDAT ?GetBlowStopMotionState@ioBaseChar@@QBE_NXZ
_TEXT	SEGMENT
?GetBlowStopMotionState@ioBaseChar@@QBE_NXZ PROC	; ioBaseChar::GetBlowStopMotionState, COMDAT
; _this$ = ecx

; 1566 : 	inline bool GetBlowStopMotionState() const { return m_bBlowStopMotion; }

  00000	8a 81 c7 15 00
	00		 mov	 al, BYTE PTR [ecx+5575]
  00006	c3		 ret	 0
?GetBlowStopMotionState@ioBaseChar@@QBE_NXZ ENDP	; ioBaseChar::GetBlowStopMotionState
_TEXT	ENDS
PUBLIC	?GetBlowFrozenState@ioBaseChar@@QBE_NXZ		; ioBaseChar::GetBlowFrozenState
; Function compile flags: /Ogsp
;	COMDAT ?GetBlowFrozenState@ioBaseChar@@QBE_NXZ
_TEXT	SEGMENT
?GetBlowFrozenState@ioBaseChar@@QBE_NXZ PROC		; ioBaseChar::GetBlowFrozenState, COMDAT
; _this$ = ecx

; 1571 : 	inline bool GetBlowFrozenState() const { return m_bBlowFrozenState; }

  00000	8a 81 c5 15 00
	00		 mov	 al, BYTE PTR [ecx+5573]
  00006	c3		 ret	 0
?GetBlowFrozenState@ioBaseChar@@QBE_NXZ ENDP		; ioBaseChar::GetBlowFrozenState
_TEXT	ENDS
PUBLIC	?GetState@ioBaseChar@@QBE?AW4CharState@@XZ	; ioBaseChar::GetState
; Function compile flags: /Ogsp
;	COMDAT ?GetState@ioBaseChar@@QBE?AW4CharState@@XZ
_TEXT	SEGMENT
?GetState@ioBaseChar@@QBE?AW4CharState@@XZ PROC		; ioBaseChar::GetState, COMDAT
; _this$ = ecx

; 2156 : 	inline CharState GetState() const { return m_CharState; }	

  00000	8a 81 10 03 00
	00		 mov	 al, BYTE PTR [ecx+784]
  00006	c3		 ret	 0
?GetState@ioBaseChar@@QBE?AW4CharState@@XZ ENDP		; ioBaseChar::GetState
_TEXT	ENDS
PUBLIC	??_7bad_alloc@std@@6B@				; std::bad_alloc::`vftable'
PUBLIC	??0bad_alloc@std@@QAE@PBD@Z			; std::bad_alloc::bad_alloc
PUBLIC	??_R4bad_alloc@std@@6B@				; std::bad_alloc::`RTTI Complete Object Locator'
PUBLIC	??_R0?AVbad_alloc@std@@@8			; std::bad_alloc `RTTI Type Descriptor'
PUBLIC	??_R3bad_alloc@std@@8				; std::bad_alloc::`RTTI Class Hierarchy Descriptor'
PUBLIC	??_R2bad_alloc@std@@8				; std::bad_alloc::`RTTI Base Class Array'
PUBLIC	??_R1A@?0A@EA@bad_alloc@std@@8			; std::bad_alloc::`RTTI Base Class Descriptor at (0,-1,0,64)'
PUBLIC	??_R1A@?0A@EA@exception@std@@8			; std::exception::`RTTI Base Class Descriptor at (0,-1,0,64)'
PUBLIC	??_R0?AVexception@std@@@8			; std::exception `RTTI Type Descriptor'
PUBLIC	??_R3exception@std@@8				; std::exception::`RTTI Class Hierarchy Descriptor'
PUBLIC	??_R2exception@std@@8				; std::exception::`RTTI Base Class Array'
EXTRN	__imp_??0exception@std@@QAE@ABQBD@Z:PROC
EXTRN	??_7type_info@@6B@:QWORD			; type_info::`vftable'
EXTRN	??_Ebad_alloc@std@@UAEPAXI@Z:PROC		; std::bad_alloc::`vector deleting destructor'
EXTRN	?what@exception@std@@UBEPBDXZ:PROC		; std::exception::what
;	COMDAT ??_R2exception@std@@8
; File c:\program files (x86)\microsoft visual studio 10.0\vc\include\exception
rdata$r	SEGMENT
??_R2exception@std@@8 DD FLAT:??_R1A@?0A@EA@exception@std@@8 ; std::exception::`RTTI Base Class Array'
rdata$r	ENDS
;	COMDAT ??_R3exception@std@@8
rdata$r	SEGMENT
??_R3exception@std@@8 DD 00H				; std::exception::`RTTI Class Hierarchy Descriptor'
	DD	00H
	DD	01H
	DD	FLAT:??_R2exception@std@@8
rdata$r	ENDS
;	COMDAT ??_R0?AVexception@std@@@8
_DATA	SEGMENT
??_R0?AVexception@std@@@8 DD FLAT:??_7type_info@@6B@	; std::exception `RTTI Type Descriptor'
	DD	00H
	DB	'.?AVexception@std@@', 00H
_DATA	ENDS
;	COMDAT ??_R1A@?0A@EA@exception@std@@8
rdata$r	SEGMENT
??_R1A@?0A@EA@exception@std@@8 DD FLAT:??_R0?AVexception@std@@@8 ; std::exception::`RTTI Base Class Descriptor at (0,-1,0,64)'
	DD	00H
	DD	00H
	DD	0ffffffffH
	DD	00H
	DD	040H
	DD	FLAT:??_R3exception@std@@8
rdata$r	ENDS
;	COMDAT ??_R1A@?0A@EA@bad_alloc@std@@8
rdata$r	SEGMENT
??_R1A@?0A@EA@bad_alloc@std@@8 DD FLAT:??_R0?AVbad_alloc@std@@@8 ; std::bad_alloc::`RTTI Base Class Descriptor at (0,-1,0,64)'
	DD	01H
	DD	00H
	DD	0ffffffffH
	DD	00H
	DD	040H
	DD	FLAT:??_R3bad_alloc@std@@8
rdata$r	ENDS
;	COMDAT ??_R2bad_alloc@std@@8
rdata$r	SEGMENT
??_R2bad_alloc@std@@8 DD FLAT:??_R1A@?0A@EA@bad_alloc@std@@8 ; std::bad_alloc::`RTTI Base Class Array'
	DD	FLAT:??_R1A@?0A@EA@exception@std@@8
rdata$r	ENDS
;	COMDAT ??_R3bad_alloc@std@@8
rdata$r	SEGMENT
??_R3bad_alloc@std@@8 DD 00H				; std::bad_alloc::`RTTI Class Hierarchy Descriptor'
	DD	00H
	DD	02H
	DD	FLAT:??_R2bad_alloc@std@@8
rdata$r	ENDS
;	COMDAT ??_R0?AVbad_alloc@std@@@8
_DATA	SEGMENT
??_R0?AVbad_alloc@std@@@8 DD FLAT:??_7type_info@@6B@	; std::bad_alloc `RTTI Type Descriptor'
	DD	00H
	DB	'.?AVbad_alloc@std@@', 00H
_DATA	ENDS
;	COMDAT ??_R4bad_alloc@std@@6B@
rdata$r	SEGMENT
??_R4bad_alloc@std@@6B@ DD 00H				; std::bad_alloc::`RTTI Complete Object Locator'
	DD	00H
	DD	00H
	DD	FLAT:??_R0?AVbad_alloc@std@@@8
	DD	FLAT:??_R3bad_alloc@std@@8
rdata$r	ENDS
;	COMDAT ??_7bad_alloc@std@@6B@
CONST	SEGMENT
??_7bad_alloc@std@@6B@ DD FLAT:??_R4bad_alloc@std@@6B@	; std::bad_alloc::`vftable'
	DD	FLAT:??_Ebad_alloc@std@@UAEPAXI@Z
	DD	FLAT:?what@exception@std@@UBEPBDXZ
; Function compile flags: /Ogsp
CONST	ENDS
;	COMDAT ??0bad_alloc@std@@QAE@PBD@Z
_TEXT	SEGMENT
__Message$ = 8						; size = 4
??0bad_alloc@std@@QAE@PBD@Z PROC			; std::bad_alloc::bad_alloc, COMDAT
; _this$ = ecx

; 345  : 		{	// construct from message string

  00000	55		 push	 ebp
  00001	8b ec		 mov	 ebp, esp
  00003	56		 push	 esi
  00004	8d 45 08	 lea	 eax, DWORD PTR __Message$[ebp]
  00007	50		 push	 eax
  00008	8b f1		 mov	 esi, ecx
  0000a	ff 15 00 00 00
	00		 call	 DWORD PTR __imp_??0exception@std@@QAE@ABQBD@Z
  00010	c7 06 00 00 00
	00		 mov	 DWORD PTR [esi], OFFSET ??_7bad_alloc@std@@6B@

; 346  : 		}

  00016	8b c6		 mov	 eax, esi
  00018	5e		 pop	 esi
  00019	5d		 pop	 ebp
  0001a	c2 04 00	 ret	 4
??0bad_alloc@std@@QAE@PBD@Z ENDP			; std::bad_alloc::bad_alloc
_TEXT	ENDS
PUBLIC	??1bad_alloc@std@@UAE@XZ			; std::bad_alloc::~bad_alloc
EXTRN	__imp_??1exception@std@@UAE@XZ:PROC
; Function compile flags: /Ogsp
;	COMDAT ??1bad_alloc@std@@UAE@XZ
_TEXT	SEGMENT
??1bad_alloc@std@@UAE@XZ PROC				; std::bad_alloc::~bad_alloc, COMDAT
; _this$ = ecx

; 354  : 		{	// destroy the object

  00000	c7 01 00 00 00
	00		 mov	 DWORD PTR [ecx], OFFSET ??_7bad_alloc@std@@6B@

; 355  : 		}

  00006	ff 25 00 00 00
	00		 jmp	 DWORD PTR __imp_??1exception@std@@UAE@XZ
??1bad_alloc@std@@UAE@XZ ENDP				; std::bad_alloc::~bad_alloc
_TEXT	ENDS
EXTRN	??3@YAXPAX@Z:PROC				; operator delete
; Function compile flags: /Ogsp
;	COMDAT ??_Gbad_alloc@std@@UAEPAXI@Z
_TEXT	SEGMENT
___flags$ = 8						; size = 4
??_Gbad_alloc@std@@UAEPAXI@Z PROC			; std::bad_alloc::`scalar deleting destructor', COMDAT
; _this$ = ecx
  00000	55		 push	 ebp
  00001	8b ec		 mov	 ebp, esp
  00003	56		 push	 esi
  00004	8b f1		 mov	 esi, ecx
  00006	c7 06 00 00 00
	00		 mov	 DWORD PTR [esi], OFFSET ??_7bad_alloc@std@@6B@
  0000c	ff 15 00 00 00
	00		 call	 DWORD PTR __imp_??1exception@std@@UAE@XZ
  00012	f6 45 08 01	 test	 BYTE PTR ___flags$[ebp], 1
  00016	74 07		 je	 SHORT $LN1@scalar
  00018	56		 push	 esi
  00019	e8 00 00 00 00	 call	 ??3@YAXPAX@Z		; operator delete
  0001e	59		 pop	 ecx
$LN1@scalar:
  0001f	8b c6		 mov	 eax, esi
  00021	5e		 pop	 esi
  00022	5d		 pop	 ebp
  00023	c2 04 00	 ret	 4
??_Gbad_alloc@std@@UAEPAXI@Z ENDP			; std::bad_alloc::`scalar deleting destructor'
_TEXT	ENDS
PUBLIC	??2@YAPAXIPAX@Z					; operator new
; Function compile flags: /Ogsp
; File c:\program files (x86)\microsoft visual studio 10.0\vc\include\new
;	COMDAT ??2@YAPAXIPAX@Z
_TEXT	SEGMENT
___formal$ = 8						; size = 4
__Where$ = 12						; size = 4
??2@YAPAXIPAX@Z PROC					; operator new, COMDAT

; 56   : 	{	// construct array with placement at _Where

  00000	55		 push	 ebp
  00001	8b ec		 mov	 ebp, esp

; 57   : 	return (_Where);

  00003	8b 45 0c	 mov	 eax, DWORD PTR __Where$[ebp]

; 58   : 	}

  00006	5d		 pop	 ebp
  00007	c3		 ret	 0
??2@YAPAXIPAX@Z ENDP					; operator new
_TEXT	ENDS
PUBLIC	??3@YAXPAX0@Z					; operator delete
; Function compile flags: /Ogsp
;	COMDAT ??3@YAXPAX0@Z
_TEXT	SEGMENT
___formal$ = 8						; size = 4
___formal$ = 12						; size = 4
??3@YAXPAX0@Z PROC					; operator delete, COMDAT

; 62   : 	}

  00000	c3		 ret	 0
??3@YAXPAX0@Z ENDP					; operator delete
_TEXT	ENDS
PUBLIC	?GetType@ioGrowthUpInfo@@QBE?AW4GrowthType@@XZ	; ioGrowthUpInfo::GetType
; Function compile flags: /Ogsp
; File d:\lost saga for developer\youtube\tutorial\source\src\lsclient\iogrowthupinfo.h
;	COMDAT ?GetType@ioGrowthUpInfo@@QBE?AW4GrowthType@@XZ
_TEXT	SEGMENT
?GetType@ioGrowthUpInfo@@QBE?AW4GrowthType@@XZ PROC	; ioGrowthUpInfo::GetType, COMDAT
; _this$ = ecx

; 23   : 	inline GrowthType GetType() const { return m_GrowthType; }

  00000	8b 41 04	 mov	 eax, DWORD PTR [ecx+4]
  00003	c3		 ret	 0
?GetType@ioGrowthUpInfo@@QBE?AW4GrowthType@@XZ ENDP	; ioGrowthUpInfo::GetType
_TEXT	ENDS
PUBLIC	??_R0?AVioGrowthUpInfo@@@8			; ioGrowthUpInfo `RTTI Type Descriptor'
PUBLIC	??_R0?AVioGrowthNormalUpInfo@@@8		; ioGrowthNormalUpInfo `RTTI Type Descriptor'
PUBLIC	?ToNormalUpInfo@@YAPAVioGrowthNormalUpInfo@@PAVioGrowthUpInfo@@@Z ; ToNormalUpInfo
EXTRN	___RTDynamicCast:PROC
;	COMDAT ??_R0?AVioGrowthUpInfo@@@8
_DATA	SEGMENT
??_R0?AVioGrowthUpInfo@@@8 DD FLAT:??_7type_info@@6B@	; ioGrowthUpInfo `RTTI Type Descriptor'
	DD	00H
	DB	'.?AVioGrowthUpInfo@@', 00H
_DATA	ENDS
;	COMDAT ??_R0?AVioGrowthNormalUpInfo@@@8
_DATA	SEGMENT
??_R0?AVioGrowthNormalUpInfo@@@8 DD FLAT:??_7type_info@@6B@ ; ioGrowthNormalUpInfo `RTTI Type Descriptor'
	DD	00H
	DB	'.?AVioGrowthNormalUpInfo@@', 00H
; Function compile flags: /Ogsp
_DATA	ENDS
;	COMDAT ?ToNormalUpInfo@@YAPAVioGrowthNormalUpInfo@@PAVioGrowthUpInfo@@@Z
_TEXT	SEGMENT
_pUpInfo$ = 8						; size = 4
?ToNormalUpInfo@@YAPAVioGrowthNormalUpInfo@@PAVioGrowthUpInfo@@@Z PROC ; ToNormalUpInfo, COMDAT

; 59   : {

  00000	55		 push	 ebp
  00001	8b ec		 mov	 ebp, esp

; 60   : 	if( !pUpInfo || pUpInfo->GetType() == GT_NONE )

  00003	8b 4d 08	 mov	 ecx, DWORD PTR _pUpInfo$[ebp]
  00006	85 c9		 test	 ecx, ecx
  00008	74 39		 je	 SHORT $LN6@ToNormalUp
  0000a	8b 41 04	 mov	 eax, DWORD PTR [ecx+4]
  0000d	85 c0		 test	 eax, eax
  0000f	74 32		 je	 SHORT $LN6@ToNormalUp

; 62   : 
; 63   : 	if( pUpInfo->GetType() == GT_CHAR_ATTACK || pUpInfo->GetType() == GT_SKILL_ATTACK )

  00011	83 f8 01	 cmp	 eax, 1
  00014	74 2d		 je	 SHORT $LN6@ToNormalUp
  00016	83 f8 07	 cmp	 eax, 7
  00019	74 28		 je	 SHORT $LN6@ToNormalUp

; 64   : 		return NULL;
; 65   : 	if( pUpInfo->GetType() == GT_BLOW_PUSH )

  0001b	83 f8 1e	 cmp	 eax, 30			; 0000001eH

; 66   : 		return NULL;

  0001e	74 23		 je	 SHORT $LN6@ToNormalUp

; 67   : 	if( pUpInfo->GetType() == GT_TELEPORT_ANI_RATE )

  00020	83 f8 20	 cmp	 eax, 32			; 00000020H

; 68   : 		return NULL;

  00023	74 1e		 je	 SHORT $LN6@ToNormalUp

; 69   : 	if( pUpInfo->GetType() == GT_SKILL_ATTACK_FORCE )

  00025	83 f8 1c	 cmp	 eax, 28			; 0000001cH

; 70   : 		return NULL;

  00028	74 19		 je	 SHORT $LN6@ToNormalUp

; 71   : 
; 72   : 	return dynamic_cast< ioGrowthNormalUpInfo* >( pUpInfo );

  0002a	6a 00		 push	 0
  0002c	68 00 00 00 00	 push	 OFFSET ??_R0?AVioGrowthNormalUpInfo@@@8
  00031	68 00 00 00 00	 push	 OFFSET ??_R0?AVioGrowthUpInfo@@@8
  00036	6a 00		 push	 0
  00038	51		 push	 ecx
  00039	e8 00 00 00 00	 call	 ___RTDynamicCast
  0003e	83 c4 14	 add	 esp, 20			; 00000014H

; 73   : }

  00041	5d		 pop	 ebp
  00042	c3		 ret	 0
$LN6@ToNormalUp:

; 61   : 		return NULL;

  00043	33 c0		 xor	 eax, eax

; 73   : }

  00045	5d		 pop	 ebp
  00046	c3		 ret	 0
?ToNormalUpInfo@@YAPAVioGrowthNormalUpInfo@@PAVioGrowthUpInfo@@@Z ENDP ; ToNormalUpInfo
_TEXT	ENDS
PUBLIC	??1AttackRate@@QAE@XZ				; AttackRate::~AttackRate
EXTRN	__imp_??1ioHashString@@QAE@XZ:PROC
; Function compile flags: /Ogsp
;	COMDAT ??1AttackRate@@QAE@XZ
_TEXT	SEGMENT
??1AttackRate@@QAE@XZ PROC				; AttackRate::~AttackRate, COMDAT
; _this$ = ecx
  00000	83 c1 0c	 add	 ecx, 12			; 0000000cH
  00003	ff 25 00 00 00
	00		 jmp	 DWORD PTR __imp_??1ioHashString@@QAE@XZ
??1AttackRate@@QAE@XZ ENDP				; AttackRate::~AttackRate
_TEXT	ENDS
PUBLIC	?GetBuffInfo@ioDamageUpDownBuff@@UAEXAAVSP2Packet@@@Z ; ioDamageUpDownBuff::GetBuffInfo
EXTRN	??6SP2Packet@@QAEAAV0@M@Z:PROC			; SP2Packet::operator<<
EXTRN	?GetBuffInfo@ioBuff@@UAEXAAVSP2Packet@@@Z:PROC	; ioBuff::GetBuffInfo
EXTRN	__fltused:DWORD
; Function compile flags: /Ogsp
; File d:\lost saga for developer\youtube\tutorial\source\src\lsclient\iodamageupdownbuff.cpp
;	COMDAT ?GetBuffInfo@ioDamageUpDownBuff@@UAEXAAVSP2Packet@@@Z
_TEXT	SEGMENT
_rkPacket$ = 8						; size = 4
?GetBuffInfo@ioDamageUpDownBuff@@UAEXAAVSP2Packet@@@Z PROC ; ioDamageUpDownBuff::GetBuffInfo, COMDAT
; _this$ = ecx

; 158  : {

  00000	55		 push	 ebp
  00001	8b ec		 mov	 ebp, esp
  00003	56		 push	 esi

; 159  : 	ioBuff::GetBuffInfo( rkPacket );

  00004	ff 75 08	 push	 DWORD PTR _rkPacket$[ebp]
  00007	8b f1		 mov	 esi, ecx
  00009	e8 00 00 00 00	 call	 ?GetBuffInfo@ioBuff@@UAEXAAVSP2Packet@@@Z ; ioBuff::GetBuffInfo

; 160  : 
; 161  : 	rkPacket << m_fExtraDamageRate;

  0000e	f3 0f 10 86 84
	09 00 00	 movss	 xmm0, DWORD PTR [esi+2436]
  00016	51		 push	 ecx
  00017	8b 4d 08	 mov	 ecx, DWORD PTR _rkPacket$[ebp]
  0001a	f3 0f 11 04 24	 movss	 DWORD PTR [esp], xmm0
  0001f	e8 00 00 00 00	 call	 ??6SP2Packet@@QAEAAV0@M@Z ; SP2Packet::operator<<
  00024	5e		 pop	 esi

; 162  : }

  00025	5d		 pop	 ebp
  00026	c2 04 00	 ret	 4
?GetBuffInfo@ioDamageUpDownBuff@@UAEXAAVSP2Packet@@@Z ENDP ; ioDamageUpDownBuff::GetBuffInfo
_TEXT	ENDS
PUBLIC	?ApplyBuffInfo@ioDamageUpDownBuff@@UAEXAAVSP2Packet@@@Z ; ioDamageUpDownBuff::ApplyBuffInfo
EXTRN	??5SP2Packet@@QAEAAV0@AAM@Z:PROC		; SP2Packet::operator>>
; Function compile flags: /Ogsp
;	COMDAT ?ApplyBuffInfo@ioDamageUpDownBuff@@UAEXAAVSP2Packet@@@Z
_TEXT	SEGMENT
_rkPacket$ = 8						; size = 4
?ApplyBuffInfo@ioDamageUpDownBuff@@UAEXAAVSP2Packet@@@Z PROC ; ioDamageUpDownBuff::ApplyBuffInfo, COMDAT
; _this$ = ecx

; 165  : {

  00000	55		 push	 ebp
  00001	8b ec		 mov	 ebp, esp

; 166  : 	rkPacket >> m_fExtraDamageRate;

  00003	81 c1 84 09 00
	00		 add	 ecx, 2436		; 00000984H
  00009	51		 push	 ecx
  0000a	8b 4d 08	 mov	 ecx, DWORD PTR _rkPacket$[ebp]
  0000d	e8 00 00 00 00	 call	 ??5SP2Packet@@QAEAAV0@AAM@Z ; SP2Packet::operator>>

; 167  : }

  00012	5d		 pop	 ebp
  00013	c2 04 00	 ret	 4
?ApplyBuffInfo@ioDamageUpDownBuff@@UAEXAAVSP2Packet@@@Z ENDP ; ioDamageUpDownBuff::ApplyBuffInfo
_TEXT	ENDS
PUBLIC	?CheckOwnerStateCheck@ioDamageUpDownBuff@@IAEXXZ ; ioDamageUpDownBuff::CheckOwnerStateCheck
EXTRN	?IsApplyDownState@ioBaseChar@@QAE_N_N@Z:PROC	; ioBaseChar::IsApplyDownState
EXTRN	?IsFloatingState@ioBaseChar@@QBE_NXZ:PROC	; ioBaseChar::IsFloatingState
EXTRN	?SetReserveEndBuff@ioBuff@@QAEXXZ:PROC		; ioBuff::SetReserveEndBuff
; Function compile flags: /Ogsp
;	COMDAT ?CheckOwnerStateCheck@ioDamageUpDownBuff@@IAEXXZ
_TEXT	SEGMENT
?CheckOwnerStateCheck@ioDamageUpDownBuff@@IAEXXZ PROC	; ioDamageUpDownBuff::CheckOwnerStateCheck, COMDAT
; _this$ = ecx

; 170  : {

  00000	56		 push	 esi
  00001	8b f1		 mov	 esi, ecx

; 171  : 	if( !m_pOwner ) return;

  00003	8b 8e 74 02 00
	00		 mov	 ecx, DWORD PTR [esi+628]
  00009	33 d2		 xor	 edx, edx
  0000b	3b ca		 cmp	 ecx, edx
  0000d	74 57		 je	 SHORT $LN1@CheckOwner

; 172  : 
; 173  : 	CharState eState = m_pOwner->GetState();

  0000f	8a 81 10 03 00
	00		 mov	 al, BYTE PTR [ecx+784]

; 174  : 
; 175  : 	if( m_bDisableDownState )

  00015	38 96 7c 09 00
	00		 cmp	 BYTE PTR [esi+2428], dl
  0001b	74 49		 je	 SHORT $LN1@CheckOwner

; 176  : 	{
; 177  : 		if( eState == CS_FROZEN && m_pOwner->GetBlowFrozenState() )

  0001d	3c 17		 cmp	 al, 23			; 00000017H
  0001f	75 10		 jne	 SHORT $LN13@CheckOwner
  00021	38 91 c5 15 00
	00		 cmp	 BYTE PTR [ecx+5573], dl
$LN29@CheckOwner:
  00027	74 3d		 je	 SHORT $LN1@CheckOwner
$LN28@CheckOwner:

; 178  : 			SetReserveEndBuff();

  00029	8b ce		 mov	 ecx, esi
  0002b	5e		 pop	 esi
  0002c	e9 00 00 00 00	 jmp	 ?SetReserveEndBuff@ioBuff@@QAEXXZ ; ioBuff::SetReserveEndBuff
$LN13@CheckOwner:

; 179  : 		else if( eState == CS_BLOW_WOUNDED && !m_pOwner->IsFloatingState() )

  00031	3c 0c		 cmp	 al, 12			; 0000000cH
  00033	75 0b		 jne	 SHORT $LN11@CheckOwner
$LN31@CheckOwner:
  00035	e8 00 00 00 00	 call	 ?IsFloatingState@ioBaseChar@@QBE_NXZ ; ioBaseChar::IsFloatingState
  0003a	84 c0		 test	 al, al
  0003c	75 28		 jne	 SHORT $LN1@CheckOwner

; 180  : 			SetReserveEndBuff();

  0003e	eb e9		 jmp	 SHORT $LN28@CheckOwner
$LN11@CheckOwner:

; 181  : 		else if( eState == CS_BOUND_BLOW_WOUNDED && !m_pOwner->IsFloatingState() )

  00040	3c 31		 cmp	 al, 49			; 00000031H

; 182  : 			SetReserveEndBuff();

  00042	74 f1		 je	 SHORT $LN31@CheckOwner

; 183  : 		else if( eState == CS_ETC_STATE && m_pOwner->IsApplyDownState(false) )

  00044	3c 0f		 cmp	 al, 15			; 0000000fH
  00046	75 0a		 jne	 SHORT $LN7@CheckOwner
  00048	52		 push	 edx
  00049	e8 00 00 00 00	 call	 ?IsApplyDownState@ioBaseChar@@QAE_N_N@Z ; ioBaseChar::IsApplyDownState
  0004e	84 c0		 test	 al, al

; 184  : 			SetReserveEndBuff();

  00050	eb d5		 jmp	 SHORT $LN29@CheckOwner
$LN7@CheckOwner:

; 185  : 		else if( eState == CS_STOP_MOTION && m_pOwner->GetBlowStopMotionState() )

  00052	3c 26		 cmp	 al, 38			; 00000026H
  00054	75 08		 jne	 SHORT $LN5@CheckOwner
$LN30@CheckOwner:
  00056	38 91 c7 15 00
	00		 cmp	 BYTE PTR [ecx+5575], dl

; 186  : 			SetReserveEndBuff();

  0005c	eb c9		 jmp	 SHORT $LN29@CheckOwner
$LN5@CheckOwner:

; 187  : 		else if( eState == CS_DROP_ZONE_DOWN )

  0005e	3c 10		 cmp	 al, 16			; 00000010H

; 188  : 			SetReserveEndBuff();

  00060	74 c7		 je	 SHORT $LN28@CheckOwner

; 189  : 		else if( eState == CS_ICE_STATE && m_pOwner->GetBlowStopMotionState() )

  00062	3c 3b		 cmp	 al, 59			; 0000003bH

; 190  : 			SetReserveEndBuff();

  00064	74 f0		 je	 SHORT $LN30@CheckOwner
$LN1@CheckOwner:
  00066	5e		 pop	 esi

; 191  : 	}
; 192  : }

  00067	c3		 ret	 0
?CheckOwnerStateCheck@ioDamageUpDownBuff@@IAEXXZ ENDP	; ioDamageUpDownBuff::CheckOwnerStateCheck
_TEXT	ENDS
PUBLIC	?_Adopt@_Iterator_base0@std@@QAEXPBX@Z		; std::_Iterator_base0::_Adopt
; Function compile flags: /Ogsp
; File c:\program files (x86)\microsoft visual studio 10.0\vc\include\xutility
;	COMDAT ?_Adopt@_Iterator_base0@std@@QAEXPBX@Z
_TEXT	SEGMENT
___formal$ = 8						; size = 4
?_Adopt@_Iterator_base0@std@@QAEXPBX@Z PROC		; std::_Iterator_base0::_Adopt, COMDAT
; _this$ = ecx

; 49   : 		}

  00000	c2 04 00	 ret	 4
?_Adopt@_Iterator_base0@std@@QAEXPBX@Z ENDP		; std::_Iterator_base0::_Adopt
_TEXT	ENDS
PUBLIC	?size@?$vector@UAttackRate@@V?$allocator@UAttackRate@@@std@@@std@@QBEIXZ ; std::vector<AttackRate,std::allocator<AttackRate> >::size
; Function compile flags: /Ogsp
; File c:\program files (x86)\microsoft visual studio 10.0\vc\include\vector
;	COMDAT ?size@?$vector@UAttackRate@@V?$allocator@UAttackRate@@@std@@@std@@QBEIXZ
_TEXT	SEGMENT
?size@?$vector@UAttackRate@@V?$allocator@UAttackRate@@@std@@@std@@QBEIXZ PROC ; std::vector<AttackRate,std::allocator<AttackRate> >::size, COMDAT
; _this$ = ecx

; 879  : 		return (this->_Mylast - this->_Myfirst);

  00000	8b 41 04	 mov	 eax, DWORD PTR [ecx+4]
  00003	2b 01		 sub	 eax, DWORD PTR [ecx]
  00005	6a 1c		 push	 28			; 0000001cH
  00007	99		 cdq
  00008	59		 pop	 ecx
  00009	f7 f9		 idiv	 ecx

; 880  : 		}

  0000b	c3		 ret	 0
?size@?$vector@UAttackRate@@V?$allocator@UAttackRate@@@std@@@std@@QBEIXZ ENDP ; std::vector<AttackRate,std::allocator<AttackRate> >::size
_TEXT	ENDS
PUBLIC	?_Inside@?$vector@UAttackRate@@V?$allocator@UAttackRate@@@std@@@std@@IBE_NPBUAttackRate@@@Z ; std::vector<AttackRate,std::allocator<AttackRate> >::_Inside
; Function compile flags: /Ogsp
;	COMDAT ?_Inside@?$vector@UAttackRate@@V?$allocator@UAttackRate@@@std@@@std@@IBE_NPBUAttackRate@@@Z
_TEXT	SEGMENT
__Ptr$ = 8						; size = 4
?_Inside@?$vector@UAttackRate@@V?$allocator@UAttackRate@@@std@@@std@@IBE_NPBUAttackRate@@@Z PROC ; std::vector<AttackRate,std::allocator<AttackRate> >::_Inside, COMDAT
; _this$ = ecx

; 1285 : 		{	// test if _Ptr points inside vector

  00000	55		 push	 ebp
  00001	8b ec		 mov	 ebp, esp

; 1286 : 		return (_Ptr < this->_Mylast && this->_Myfirst <= _Ptr);

  00003	8b 45 08	 mov	 eax, DWORD PTR __Ptr$[ebp]
  00006	3b 41 04	 cmp	 eax, DWORD PTR [ecx+4]
  00009	73 09		 jae	 SHORT $LN3@Inside
  0000b	39 01		 cmp	 DWORD PTR [ecx], eax
  0000d	77 05		 ja	 SHORT $LN3@Inside
  0000f	33 c0		 xor	 eax, eax
  00011	40		 inc	 eax
  00012	eb 02		 jmp	 SHORT $LN4@Inside
$LN3@Inside:
  00014	33 c0		 xor	 eax, eax
$LN4@Inside:

; 1287 : 		}

  00016	5d		 pop	 ebp
  00017	c2 04 00	 ret	 4
?_Inside@?$vector@UAttackRate@@V?$allocator@UAttackRate@@@std@@@std@@IBE_NPBUAttackRate@@@Z ENDP ; std::vector<AttackRate,std::allocator<AttackRate> >::_Inside
_TEXT	ENDS
PUBLIC	?_Orphan_range@?$vector@UAttackRate@@V?$allocator@UAttackRate@@@std@@@std@@IBEXPAUAttackRate@@0@Z ; std::vector<AttackRate,std::allocator<AttackRate> >::_Orphan_range
; Function compile flags: /Ogsp
;	COMDAT ?_Orphan_range@?$vector@UAttackRate@@V?$allocator@UAttackRate@@@std@@@std@@IBEXPAUAttackRate@@0@Z
_TEXT	SEGMENT
___formal$ = 8						; size = 4
___formal$ = 12						; size = 4
?_Orphan_range@?$vector@UAttackRate@@V?$allocator@UAttackRate@@@std@@@std@@IBEXPAUAttackRate@@0@Z PROC ; std::vector<AttackRate,std::allocator<AttackRate> >::_Orphan_range, COMDAT
; _this$ = ecx

; 1454 : 		}

  00000	c2 08 00	 ret	 8
?_Orphan_range@?$vector@UAttackRate@@V?$allocator@UAttackRate@@@std@@@std@@IBEXPAUAttackRate@@0@Z ENDP ; std::vector<AttackRate,std::allocator<AttackRate> >::_Orphan_range
_TEXT	ENDS
PUBLIC	??1?$_Vector_val@UAttackRate@@V?$allocator@UAttackRate@@@std@@@std@@QAE@XZ ; std::_Vector_val<AttackRate,std::allocator<AttackRate> >::~_Vector_val<AttackRate,std::allocator<AttackRate> >
; Function compile flags: /Ogsp
;	COMDAT ??1?$_Vector_val@UAttackRate@@V?$allocator@UAttackRate@@@std@@@std@@QAE@XZ
_TEXT	SEGMENT
??1?$_Vector_val@UAttackRate@@V?$allocator@UAttackRate@@@std@@@std@@QAE@XZ PROC ; std::_Vector_val<AttackRate,std::allocator<AttackRate> >::~_Vector_val<AttackRate,std::allocator<AttackRate> >, COMDAT
; _this$ = ecx

; 434  : 		}

  00000	c3		 ret	 0
??1?$_Vector_val@UAttackRate@@V?$allocator@UAttackRate@@@std@@@std@@QAE@XZ ENDP ; std::_Vector_val<AttackRate,std::allocator<AttackRate> >::~_Vector_val<AttackRate,std::allocator<AttackRate> >
_TEXT	ENDS
PUBLIC	??0?$allocator@UAttackRate@@@std@@QAE@XZ	; std::allocator<AttackRate>::allocator<AttackRate>
; Function compile flags: /Ogsp
; File c:\program files (x86)\microsoft visual studio 10.0\vc\include\xmemory
;	COMDAT ??0?$allocator@UAttackRate@@@std@@QAE@XZ
_TEXT	SEGMENT
??0?$allocator@UAttackRate@@@std@@QAE@XZ PROC		; std::allocator<AttackRate>::allocator<AttackRate>, COMDAT
; _this$ = ecx

; 161  : 	_ALLOCATOR() _THROW0()

  00000	8b c1		 mov	 eax, ecx

; 162  : 		{	// construct default allocator (do nothing)
; 163  : 		}

  00002	c3		 ret	 0
??0?$allocator@UAttackRate@@@std@@QAE@XZ ENDP		; std::allocator<AttackRate>::allocator<AttackRate>
_TEXT	ENDS
PUBLIC	??0?$allocator@UAttackRate@@@std@@QAE@ABV01@@Z	; std::allocator<AttackRate>::allocator<AttackRate>
; Function compile flags: /Ogsp
;	COMDAT ??0?$allocator@UAttackRate@@@std@@QAE@ABV01@@Z
_TEXT	SEGMENT
___formal$ = 8						; size = 4
??0?$allocator@UAttackRate@@@std@@QAE@ABV01@@Z PROC	; std::allocator<AttackRate>::allocator<AttackRate>, COMDAT
; _this$ = ecx

; 165  : 	_ALLOCATOR(const _ALLOCATOR<_Ty>&) _THROW0()

  00000	8b c1		 mov	 eax, ecx

; 166  : 		{	// construct by copying (do nothing)
; 167  : 		}

  00002	c2 04 00	 ret	 4
??0?$allocator@UAttackRate@@@std@@QAE@ABV01@@Z ENDP	; std::allocator<AttackRate>::allocator<AttackRate>
_TEXT	ENDS
PUBLIC	??D?$_Vector_const_iterator@V?$_Vector_val@UAttackRate@@V?$allocator@UAttackRate@@@std@@@std@@@std@@QBEABUAttackRate@@XZ ; std::_Vector_const_iterator<std::_Vector_val<AttackRate,std::allocator<AttackRate> > >::operator*
; Function compile flags: /Ogsp
; File c:\program files (x86)\microsoft visual studio 10.0\vc\include\vector
;	COMDAT ??D?$_Vector_const_iterator@V?$_Vector_val@UAttackRate@@V?$allocator@UAttackRate@@@std@@@std@@@std@@QBEABUAttackRate@@XZ
_TEXT	SEGMENT
??D?$_Vector_const_iterator@V?$_Vector_val@UAttackRate@@V?$allocator@UAttackRate@@@std@@@std@@@std@@QBEABUAttackRate@@XZ PROC ; std::_Vector_const_iterator<std::_Vector_val<AttackRate,std::allocator<AttackRate> > >::operator*, COMDAT
; _this$ = ecx

; 64   :  #if _ITERATOR_DEBUG_LEVEL == 2
; 65   : 		if (this->_Getcont() == 0
; 66   : 			|| this->_Ptr == 0
; 67   : 			|| this->_Ptr < ((_Myvec *)this->_Getcont())->_Myfirst
; 68   : 			|| ((_Myvec *)this->_Getcont())->_Mylast <= this->_Ptr)
; 69   : 			{	// report error
; 70   : 			_DEBUG_ERROR("vector iterator not dereferencable");
; 71   : 			_SCL_SECURE_OUT_OF_RANGE;
; 72   : 			}
; 73   : 
; 74   :  #elif _ITERATOR_DEBUG_LEVEL == 1
; 75   : 		_SCL_SECURE_VALIDATE(this->_Getcont() != 0);
; 76   : 		_SCL_SECURE_VALIDATE_RANGE(
; 77   : 			this->_Ptr != 0
; 78   : 			&& ((_Myvec *)this->_Getcont())->_Myfirst <= this->_Ptr
; 79   : 			&& this->_Ptr < ((_Myvec *)this->_Getcont())->_Mylast);
; 80   :  #endif /* _ITERATOR_DEBUG_LEVEL */
; 81   : 
; 82   : 		__analysis_assume(this->_Ptr != 0);
; 83   : 
; 84   : 		return (*this->_Ptr);

  00000	8b 01		 mov	 eax, DWORD PTR [ecx]

; 85   : 		}

  00002	c3		 ret	 0
??D?$_Vector_const_iterator@V?$_Vector_val@UAttackRate@@V?$allocator@UAttackRate@@@std@@@std@@@std@@QBEABUAttackRate@@XZ ENDP ; std::_Vector_const_iterator<std::_Vector_val<AttackRate,std::allocator<AttackRate> > >::operator*
_TEXT	ENDS
PUBLIC	??E?$_Vector_const_iterator@V?$_Vector_val@UAttackRate@@V?$allocator@UAttackRate@@@std@@@std@@@std@@QAEAAV01@XZ ; std::_Vector_const_iterator<std::_Vector_val<AttackRate,std::allocator<AttackRate> > >::operator++
; Function compile flags: /Ogsp
;	COMDAT ??E?$_Vector_const_iterator@V?$_Vector_val@UAttackRate@@V?$allocator@UAttackRate@@@std@@@std@@@std@@QAEAAV01@XZ
_TEXT	SEGMENT
??E?$_Vector_const_iterator@V?$_Vector_val@UAttackRate@@V?$allocator@UAttackRate@@@std@@@std@@@std@@QAEAAV01@XZ PROC ; std::_Vector_const_iterator<std::_Vector_val<AttackRate,std::allocator<AttackRate> > >::operator++, COMDAT
; _this$ = ecx

; 93   : 		{	// preincrement

  00000	8b c1		 mov	 eax, ecx

; 94   :  #if _ITERATOR_DEBUG_LEVEL == 2
; 95   : 		if (this->_Getcont() == 0
; 96   : 			|| this->_Ptr == 0
; 97   : 			|| ((_Myvec *)this->_Getcont())->_Mylast <= this->_Ptr)
; 98   : 			{	// report error
; 99   : 			_DEBUG_ERROR("vector iterator not incrementable");
; 100  : 			_SCL_SECURE_OUT_OF_RANGE;
; 101  : 			}
; 102  : 
; 103  :  #elif _ITERATOR_DEBUG_LEVEL == 1
; 104  : 		_SCL_SECURE_VALIDATE(this->_Getcont() != 0);
; 105  : 		_SCL_SECURE_VALIDATE_RANGE(
; 106  : 			this->_Ptr != 0
; 107  : 			&& this->_Ptr < ((_Myvec *)this->_Getcont())->_Mylast);
; 108  :  #endif /* _ITERATOR_DEBUG_LEVEL */
; 109  : 
; 110  : 		++this->_Ptr;

  00002	83 00 1c	 add	 DWORD PTR [eax], 28	; 0000001cH

; 111  : 		return (*this);
; 112  : 		}

  00005	c3		 ret	 0
??E?$_Vector_const_iterator@V?$_Vector_val@UAttackRate@@V?$allocator@UAttackRate@@@std@@@std@@@std@@QAEAAV01@XZ ENDP ; std::_Vector_const_iterator<std::_Vector_val<AttackRate,std::allocator<AttackRate> > >::operator++
_TEXT	ENDS
PUBLIC	?capacity@?$vector@UAttackRate@@V?$allocator@UAttackRate@@@std@@@std@@QBEIXZ ; std::vector<AttackRate,std::allocator<AttackRate> >::capacity
; Function compile flags: /Ogsp
;	COMDAT ?capacity@?$vector@UAttackRate@@V?$allocator@UAttackRate@@@std@@@std@@QBEIXZ
_TEXT	SEGMENT
?capacity@?$vector@UAttackRate@@V?$allocator@UAttackRate@@@std@@@std@@QBEIXZ PROC ; std::vector<AttackRate,std::allocator<AttackRate> >::capacity, COMDAT
; _this$ = ecx

; 777  : 		return (this->_Myend - this->_Myfirst);

  00000	8b 41 08	 mov	 eax, DWORD PTR [ecx+8]
  00003	2b 01		 sub	 eax, DWORD PTR [ecx]
  00005	6a 1c		 push	 28			; 0000001cH
  00007	99		 cdq
  00008	59		 pop	 ecx
  00009	f7 f9		 idiv	 ecx

; 778  : 		}

  0000b	c3		 ret	 0
?capacity@?$vector@UAttackRate@@V?$allocator@UAttackRate@@@std@@@std@@QBEIXZ ENDP ; std::vector<AttackRate,std::allocator<AttackRate> >::capacity
_TEXT	ENDS
PUBLIC	??_C@_0BD@OLBABOEK@vector?$DMT?$DO?5too?5long?$AA@ ; `string'
PUBLIC	?_Xlen@?$vector@UAttackRate@@V?$allocator@UAttackRate@@@std@@@std@@IBEXXZ ; std::vector<AttackRate,std::allocator<AttackRate> >::_Xlen
EXTRN	__imp_?_Xlength_error@std@@YAXPBD@Z:PROC
;	COMDAT ??_C@_0BD@OLBABOEK@vector?$DMT?$DO?5too?5long?$AA@
CONST	SEGMENT
??_C@_0BD@OLBABOEK@vector?$DMT?$DO?5too?5long?$AA@ DB 'vector<T> too long'
	DB	00H						; `string'
; Function compile flags: /Ogsp
CONST	ENDS
;	COMDAT ?_Xlen@?$vector@UAttackRate@@V?$allocator@UAttackRate@@@std@@@std@@IBEXXZ
_TEXT	SEGMENT
?_Xlen@?$vector@UAttackRate@@V?$allocator@UAttackRate@@@std@@@std@@IBEXXZ PROC ; std::vector<AttackRate,std::allocator<AttackRate> >::_Xlen, COMDAT
; _this$ = ecx

; 1427 : 		_Xlength_error("vector<T> too long");

  00000	68 00 00 00 00	 push	 OFFSET ??_C@_0BD@OLBABOEK@vector?$DMT?$DO?5too?5long?$AA@
  00005	ff 15 00 00 00
	00		 call	 DWORD PTR __imp_?_Xlength_error@std@@YAXPBD@Z
$LN4@Xlen:
$LN3@Xlen:
  0000b	cc		 int	 3
?_Xlen@?$vector@UAttackRate@@V?$allocator@UAttackRate@@@std@@@std@@IBEXXZ ENDP ; std::vector<AttackRate,std::allocator<AttackRate> >::_Xlen
_TEXT	ENDS
PUBLIC	?deallocate@?$allocator@UAttackRate@@@std@@QAEXPAUAttackRate@@I@Z ; std::allocator<AttackRate>::deallocate
; Function compile flags: /Ogsp
; File c:\program files (x86)\microsoft visual studio 10.0\vc\include\xmemory
;	COMDAT ?deallocate@?$allocator@UAttackRate@@@std@@QAEXPAUAttackRate@@I@Z
_TEXT	SEGMENT
__Ptr$ = 8						; size = 4
___formal$ = 12						; size = 4
?deallocate@?$allocator@UAttackRate@@@std@@QAEXPAUAttackRate@@I@Z PROC ; std::allocator<AttackRate>::deallocate, COMDAT
; _this$ = ecx

; 181  : 		{	// deallocate object at _Ptr, ignore size

  00000	55		 push	 ebp
  00001	8b ec		 mov	 ebp, esp

; 182  : 		::operator delete(_Ptr);

  00003	ff 75 08	 push	 DWORD PTR __Ptr$[ebp]
  00006	e8 00 00 00 00	 call	 ??3@YAXPAX@Z		; operator delete
  0000b	59		 pop	 ecx

; 183  : 		}

  0000c	5d		 pop	 ebp
  0000d	c2 08 00	 ret	 8
?deallocate@?$allocator@UAttackRate@@@std@@QAEXPAUAttackRate@@I@Z ENDP ; std::allocator<AttackRate>::deallocate
_TEXT	ENDS
PUBLIC	??0?$_Vector_const_iterator@V?$_Vector_val@UAttackRate@@V?$allocator@UAttackRate@@@std@@@std@@@std@@QAE@PAUAttackRate@@PBU_Container_base0@1@@Z ; std::_Vector_const_iterator<std::_Vector_val<AttackRate,std::allocator<AttackRate> > >::_Vector_const_iterator<std::_Vector_val<AttackRate,std::allocator<AttackRate> > >
; Function compile flags: /Ogsp
; File c:\program files (x86)\microsoft visual studio 10.0\vc\include\vector
;	COMDAT ??0?$_Vector_const_iterator@V?$_Vector_val@UAttackRate@@V?$allocator@UAttackRate@@@std@@@std@@@std@@QAE@PAUAttackRate@@PBU_Container_base0@1@@Z
_TEXT	SEGMENT
__Parg$ = 8						; size = 4
__Pvector$ = 12						; size = 4
??0?$_Vector_const_iterator@V?$_Vector_val@UAttackRate@@V?$allocator@UAttackRate@@@std@@@std@@@std@@QAE@PAUAttackRate@@PBU_Container_base0@1@@Z PROC ; std::_Vector_const_iterator<std::_Vector_val<AttackRate,std::allocator<AttackRate> > >::_Vector_const_iterator<std::_Vector_val<AttackRate,std::allocator<AttackRate> > >, COMDAT
; _this$ = ecx

; 45   : 		{	// construct with pointer _Parg

  00000	55		 push	 ebp
  00001	8b ec		 mov	 ebp, esp
  00003	8b c1		 mov	 eax, ecx
  00005	8b 4d 08	 mov	 ecx, DWORD PTR __Parg$[ebp]
  00008	89 08		 mov	 DWORD PTR [eax], ecx

; 46   : 		this->_Adopt(_Pvector);
; 47   : 		}

  0000a	5d		 pop	 ebp
  0000b	c2 08 00	 ret	 8
??0?$_Vector_const_iterator@V?$_Vector_val@UAttackRate@@V?$allocator@UAttackRate@@@std@@@std@@@std@@QAE@PAUAttackRate@@PBU_Container_base0@1@@Z ENDP ; std::_Vector_const_iterator<std::_Vector_val<AttackRate,std::allocator<AttackRate> > >::_Vector_const_iterator<std::_Vector_val<AttackRate,std::allocator<AttackRate> > >
_TEXT	ENDS
PUBLIC	?_Compat@?$_Vector_const_iterator@V?$_Vector_val@UAttackRate@@V?$allocator@UAttackRate@@@std@@@std@@@std@@QBEXABV12@@Z ; std::_Vector_const_iterator<std::_Vector_val<AttackRate,std::allocator<AttackRate> > >::_Compat
; Function compile flags: /Ogsp
;	COMDAT ?_Compat@?$_Vector_const_iterator@V?$_Vector_val@UAttackRate@@V?$allocator@UAttackRate@@@std@@@std@@@std@@QBEXABV12@@Z
_TEXT	SEGMENT
___formal$ = 8						; size = 4
?_Compat@?$_Vector_const_iterator@V?$_Vector_val@UAttackRate@@V?$allocator@UAttackRate@@@std@@@std@@@std@@QBEXABV12@@Z PROC ; std::_Vector_const_iterator<std::_Vector_val<AttackRate,std::allocator<AttackRate> > >::_Compat, COMDAT
; _this$ = ecx

; 253  : 		}

  00000	c2 04 00	 ret	 4
?_Compat@?$_Vector_const_iterator@V?$_Vector_val@UAttackRate@@V?$allocator@UAttackRate@@@std@@@std@@@std@@QBEXABV12@@Z ENDP ; std::_Vector_const_iterator<std::_Vector_val<AttackRate,std::allocator<AttackRate> > >::_Compat
_TEXT	ENDS
PUBLIC	?max_size@?$allocator@UAttackRate@@@std@@QBEIXZ	; std::allocator<AttackRate>::max_size
; Function compile flags: /Ogsp
; File c:\program files (x86)\microsoft visual studio 10.0\vc\include\xmemory
;	COMDAT ?max_size@?$allocator@UAttackRate@@@std@@QBEIXZ
_TEXT	SEGMENT
?max_size@?$allocator@UAttackRate@@@std@@QBEIXZ PROC	; std::allocator<AttackRate>::max_size, COMDAT
; _this$ = ecx

; 218  : 		_SIZT _Count = (_SIZT)(-1) / sizeof (_Ty);
; 219  : 		return (0 < _Count ? _Count : 1);

  00000	b8 49 92 24 09	 mov	 eax, 153391689		; 09249249H

; 220  : 		}

  00005	c3		 ret	 0
?max_size@?$allocator@UAttackRate@@@std@@QBEIXZ ENDP	; std::allocator<AttackRate>::max_size
_TEXT	ENDS
PUBLIC	??$addressof@$$CBUAttackRate@@@std@@YAPBUAttackRate@@ABU1@@Z ; std::addressof<AttackRate const >
; Function compile flags: /Ogsp
;	COMDAT ??$addressof@$$CBUAttackRate@@@std@@YAPBUAttackRate@@ABU1@@Z
_TEXT	SEGMENT
__Val$ = 8						; size = 4
??$addressof@$$CBUAttackRate@@@std@@YAPBUAttackRate@@ABU1@@Z PROC ; std::addressof<AttackRate const >, COMDAT

; 110  : 	{	// return address of _Val

  00000	55		 push	 ebp
  00001	8b ec		 mov	 ebp, esp

; 111  : 	return ((_Ty *) &(char&)_Val);

  00003	8b 45 08	 mov	 eax, DWORD PTR __Val$[ebp]

; 112  : 	}

  00006	5d		 pop	 ebp
  00007	c3		 ret	 0
??$addressof@$$CBUAttackRate@@@std@@YAPBUAttackRate@@ABU1@@Z ENDP ; std::addressof<AttackRate const >
_TEXT	ENDS
PUBLIC	__TI2?AVbad_alloc@std@@
PUBLIC	??$_Allocate@UAttackRate@@@std@@YAPAUAttackRate@@IPAU1@@Z ; std::_Allocate<AttackRate>
PUBLIC	__CTA2?AVbad_alloc@std@@
PUBLIC	__CT??_R0?AVbad_alloc@std@@@8??0bad_alloc@std@@QAE@ABV01@@Z12
PUBLIC	??0bad_alloc@std@@QAE@ABV01@@Z			; std::bad_alloc::bad_alloc
PUBLIC	__CT??_R0?AVexception@std@@@8??0exception@std@@QAE@ABV01@@Z12
EXTRN	??2@YAPAXI@Z:PROC				; operator new
EXTRN	__CxxThrowException@8:PROC
EXTRN	??0exception@std@@QAE@ABV01@@Z:PROC		; std::exception::exception
;	COMDAT __CT??_R0?AVexception@std@@@8??0exception@std@@QAE@ABV01@@Z12
; File c:\program files (x86)\microsoft visual studio 10.0\vc\include\exception
xdata$x	SEGMENT
__CT??_R0?AVexception@std@@@8??0exception@std@@QAE@ABV01@@Z12 DD 00H
	DD	FLAT:??_R0?AVexception@std@@@8
	DD	00H
	DD	0ffffffffH
	ORG $+4
	DD	0cH
	DD	FLAT:??0exception@std@@QAE@ABV01@@Z
xdata$x	ENDS
;	COMDAT __CT??_R0?AVbad_alloc@std@@@8??0bad_alloc@std@@QAE@ABV01@@Z12
xdata$x	SEGMENT
__CT??_R0?AVbad_alloc@std@@@8??0bad_alloc@std@@QAE@ABV01@@Z12 DD 00H
	DD	FLAT:??_R0?AVbad_alloc@std@@@8
	DD	00H
	DD	0ffffffffH
	ORG $+4
	DD	0cH
	DD	FLAT:??0bad_alloc@std@@QAE@ABV01@@Z
xdata$x	ENDS
;	COMDAT __CTA2?AVbad_alloc@std@@
xdata$x	SEGMENT
__CTA2?AVbad_alloc@std@@ DD 02H
	DD	FLAT:__CT??_R0?AVbad_alloc@std@@@8??0bad_alloc@std@@QAE@ABV01@@Z12
	DD	FLAT:__CT??_R0?AVexception@std@@@8??0exception@std@@QAE@ABV01@@Z12
xdata$x	ENDS
;	COMDAT __TI2?AVbad_alloc@std@@
xdata$x	SEGMENT
__TI2?AVbad_alloc@std@@ DD 00H
	DD	FLAT:??1bad_alloc@std@@UAE@XZ
	DD	00H
	DD	FLAT:__CTA2?AVbad_alloc@std@@
; Function compile flags: /Ogsp
; File c:\program files (x86)\microsoft visual studio 10.0\vc\include\xmemory
xdata$x	ENDS
;	COMDAT ??$_Allocate@UAttackRate@@@std@@YAPAUAttackRate@@IPAU1@@Z
_TEXT	SEGMENT
$T526294 = -12						; size = 12
$T526299 = 8						; size = 4
__Count$ = 8						; size = 4
___formal$ = 12						; size = 4
??$_Allocate@UAttackRate@@@std@@YAPAUAttackRate@@IPAU1@@Z PROC ; std::_Allocate<AttackRate>, COMDAT

; 30   : 	{	// allocate storage for _Count elements of type _Ty

  00000	55		 push	 ebp
  00001	8b ec		 mov	 ebp, esp

; 31   : 	void *_Ptr = 0;
; 32   : 
; 33   : 	if (_Count <= 0)

  00003	8b 4d 08	 mov	 ecx, DWORD PTR __Count$[ebp]
  00006	83 ec 0c	 sub	 esp, 12			; 0000000cH
  00009	33 c0		 xor	 eax, eax
  0000b	85 c9		 test	 ecx, ecx

; 34   : 		_Count = 0;
; 35   : 	else if (((_SIZT)(-1) / sizeof (_Ty) < _Count)

  0000d	74 3c		 je	 SHORT $LN5@Allocate

; 36   : 		|| (_Ptr = ::operator new(_Count * sizeof (_Ty))) == 0)

  0000f	81 f9 49 92 24
	09		 cmp	 ecx, 153391689		; 09249249H
  00015	77 0e		 ja	 SHORT $LN1@Allocate
  00017	6b c9 1c	 imul	 ecx, 28			; 0000001cH
  0001a	51		 push	 ecx
  0001b	e8 00 00 00 00	 call	 ??2@YAPAXI@Z		; operator new
  00020	59		 pop	 ecx
  00021	85 c0		 test	 eax, eax

; 38   : 
; 39   : 	return ((_Ty _FARQ *)_Ptr);

  00023	75 26		 jne	 SHORT $LN5@Allocate
$LN1@Allocate:

; 37   : 		_THROW_NCEE(bad_alloc, 0);

  00025	83 65 08 00	 and	 DWORD PTR $T526299[ebp], 0
  00029	8d 45 08	 lea	 eax, DWORD PTR $T526299[ebp]
  0002c	50		 push	 eax
  0002d	8d 4d f4	 lea	 ecx, DWORD PTR $T526294[ebp]
  00030	ff 15 00 00 00
	00		 call	 DWORD PTR __imp_??0exception@std@@QAE@ABQBD@Z
  00036	68 00 00 00 00	 push	 OFFSET __TI2?AVbad_alloc@std@@
  0003b	8d 45 f4	 lea	 eax, DWORD PTR $T526294[ebp]
  0003e	50		 push	 eax
  0003f	c7 45 f4 00 00
	00 00		 mov	 DWORD PTR $T526294[ebp], OFFSET ??_7bad_alloc@std@@6B@
  00046	e8 00 00 00 00	 call	 __CxxThrowException@8
$LN10@Allocate:
$LN5@Allocate:

; 40   : 	}

  0004b	c9		 leave
  0004c	c3		 ret	 0
$LN9@Allocate:
??$_Allocate@UAttackRate@@@std@@YAPAUAttackRate@@IPAU1@@Z ENDP ; std::_Allocate<AttackRate>
_TEXT	ENDS
PUBLIC	??$forward@AAUAttackRate@@@std@@YAAAUAttackRate@@AAU1@@Z ; std::forward<AttackRate &>
; Function compile flags: /Ogsp
; File c:\program files (x86)\microsoft visual studio 10.0\vc\include\utility
;	COMDAT ??$forward@AAUAttackRate@@@std@@YAAAUAttackRate@@AAU1@@Z
_TEXT	SEGMENT
__Arg$ = 8						; size = 4
??$forward@AAUAttackRate@@@std@@YAAAUAttackRate@@AAU1@@Z PROC ; std::forward<AttackRate &>, COMDAT

; 78   : 	{	// forward _Arg, given explicitly specified type parameter

  00000	55		 push	 ebp
  00001	8b ec		 mov	 ebp, esp

; 79   : 	return ((_Ty&&)_Arg);

  00003	8b 45 08	 mov	 eax, DWORD PTR __Arg$[ebp]

; 80   : 	}

  00006	5d		 pop	 ebp
  00007	c3		 ret	 0
??$forward@AAUAttackRate@@@std@@YAAAUAttackRate@@AAU1@@Z ENDP ; std::forward<AttackRate &>
_TEXT	ENDS
PUBLIC	??$forward@ABUAttackRate@@@std@@YAABUAttackRate@@ABU1@@Z ; std::forward<AttackRate const &>
; Function compile flags: /Ogsp
;	COMDAT ??$forward@ABUAttackRate@@@std@@YAABUAttackRate@@ABU1@@Z
_TEXT	SEGMENT
__Arg$ = 8						; size = 4
??$forward@ABUAttackRate@@@std@@YAABUAttackRate@@ABU1@@Z PROC ; std::forward<AttackRate const &>, COMDAT

; 78   : 	{	// forward _Arg, given explicitly specified type parameter

  00000	55		 push	 ebp
  00001	8b ec		 mov	 ebp, esp

; 79   : 	return ((_Ty&&)_Arg);

  00003	8b 45 08	 mov	 eax, DWORD PTR __Arg$[ebp]

; 80   : 	}

  00006	5d		 pop	 ebp
  00007	c3		 ret	 0
??$forward@ABUAttackRate@@@std@@YAABUAttackRate@@ABU1@@Z ENDP ; std::forward<AttackRate const &>
_TEXT	ENDS
PUBLIC	??$_Ptr_cat@UAttackRate@@U1@@std@@YA?AU_Nonscalar_ptr_iterator_tag@0@PAUAttackRate@@0@Z ; std::_Ptr_cat<AttackRate,AttackRate>
; Function compile flags: /Ogsp
; File c:\program files (x86)\microsoft visual studio 10.0\vc\include\xutility
;	COMDAT ??$_Ptr_cat@UAttackRate@@U1@@std@@YA?AU_Nonscalar_ptr_iterator_tag@0@PAUAttackRate@@0@Z
_TEXT	SEGMENT
__Cat$ = -1						; size = 1
___formal$ = 8						; size = 4
___formal$ = 12						; size = 4
??$_Ptr_cat@UAttackRate@@U1@@std@@YA?AU_Nonscalar_ptr_iterator_tag@0@PAUAttackRate@@0@Z PROC ; std::_Ptr_cat<AttackRate,AttackRate>, COMDAT

; 516  : 	{	// return pointer category from pointers

  00000	55		 push	 ebp
  00001	8b ec		 mov	 ebp, esp
  00003	51		 push	 ecx

; 517  : 	typename _Ptr_cat_helper<_Elem1, _Elem2>::_Type _Cat;
; 518  : 	return (_Cat);

  00004	8a 45 ff	 mov	 al, BYTE PTR __Cat$[ebp]

; 519  : 	}

  00007	c9		 leave
  00008	c3		 ret	 0
??$_Ptr_cat@UAttackRate@@U1@@std@@YA?AU_Nonscalar_ptr_iterator_tag@0@PAUAttackRate@@0@Z ENDP ; std::_Ptr_cat<AttackRate,AttackRate>
_TEXT	ENDS
PUBLIC	??0AttackRate@@QAE@ABU0@@Z			; AttackRate::AttackRate
EXTRN	__imp_??0ioHashString@@QAE@ABV0@@Z:PROC
; Function compile flags: /Ogsp
;	COMDAT ??0AttackRate@@QAE@ABU0@@Z
_TEXT	SEGMENT
___that$ = 8						; size = 4
??0AttackRate@@QAE@ABU0@@Z PROC				; AttackRate::AttackRate, COMDAT
; _this$ = ecx
  00000	55		 push	 ebp
  00001	8b ec		 mov	 ebp, esp
  00003	8b 45 08	 mov	 eax, DWORD PTR ___that$[ebp]
  00006	56		 push	 esi
  00007	8b f1		 mov	 esi, ecx
  00009	8b 08		 mov	 ecx, DWORD PTR [eax]
  0000b	89 0e		 mov	 DWORD PTR [esi], ecx
  0000d	d9 40 04	 fld	 DWORD PTR [eax+4]
  00010	d9 5e 04	 fstp	 DWORD PTR [esi+4]
  00013	83 c0 0c	 add	 eax, 12			; 0000000cH
  00016	d9 40 fc	 fld	 DWORD PTR [eax-4]
  00019	50		 push	 eax
  0001a	8d 4e 0c	 lea	 ecx, DWORD PTR [esi+12]
  0001d	d9 5e 08	 fstp	 DWORD PTR [esi+8]
  00020	ff 15 00 00 00
	00		 call	 DWORD PTR __imp_??0ioHashString@@QAE@ABV0@@Z
  00026	8b c6		 mov	 eax, esi
  00028	5e		 pop	 esi
  00029	5d		 pop	 ebp
  0002a	c2 04 00	 ret	 4
??0AttackRate@@QAE@ABU0@@Z ENDP				; AttackRate::AttackRate
_TEXT	ENDS
PUBLIC	??4AttackRate@@QAEAAU0@ABU0@@Z			; AttackRate::operator=
EXTRN	__imp_??4ioHashString@@QAEAAV0@ABV0@@Z:PROC
; Function compile flags: /Ogsp
;	COMDAT ??4AttackRate@@QAEAAU0@ABU0@@Z
_TEXT	SEGMENT
___that$ = 8						; size = 4
??4AttackRate@@QAEAAU0@ABU0@@Z PROC			; AttackRate::operator=, COMDAT
; _this$ = ecx
  00000	55		 push	 ebp
  00001	8b ec		 mov	 ebp, esp
  00003	8b 45 08	 mov	 eax, DWORD PTR ___that$[ebp]
  00006	56		 push	 esi
  00007	8b f1		 mov	 esi, ecx
  00009	8b 08		 mov	 ecx, DWORD PTR [eax]
  0000b	89 0e		 mov	 DWORD PTR [esi], ecx
  0000d	d9 40 04	 fld	 DWORD PTR [eax+4]
  00010	d9 5e 04	 fstp	 DWORD PTR [esi+4]
  00013	83 c0 0c	 add	 eax, 12			; 0000000cH
  00016	d9 40 fc	 fld	 DWORD PTR [eax-4]
  00019	50		 push	 eax
  0001a	8d 4e 0c	 lea	 ecx, DWORD PTR [esi+12]
  0001d	d9 5e 08	 fstp	 DWORD PTR [esi+8]
  00020	ff 15 00 00 00
	00		 call	 DWORD PTR __imp_??4ioHashString@@QAEAAV0@ABV0@@Z
  00026	8b c6		 mov	 eax, esi
  00028	5e		 pop	 esi
  00029	5d		 pop	 ebp
  0002a	c2 04 00	 ret	 4
??4AttackRate@@QAEAAU0@ABU0@@Z ENDP			; AttackRate::operator=
_TEXT	ENDS
PUBLIC	??$_Ptr_cat@V?$_Vector_const_iterator@V?$_Vector_val@UAttackRate@@V?$allocator@UAttackRate@@@std@@@std@@@std@@PAUAttackRate@@@std@@YA?AU_Nonscalar_ptr_iterator_tag@0@AAV?$_Vector_const_iterator@V?$_Vector_val@UAttackRate@@V?$allocator@UAttackRate@@@std@@@std@@@0@AAPAUAttackRate@@@Z ; std::_Ptr_cat<std::_Vector_const_iterator<std::_Vector_val<AttackRate,std::allocator<AttackRate> > >,AttackRate *>
; Function compile flags: /Ogsp
;	COMDAT ??$_Ptr_cat@V?$_Vector_const_iterator@V?$_Vector_val@UAttackRate@@V?$allocator@UAttackRate@@@std@@@std@@@std@@PAUAttackRate@@@std@@YA?AU_Nonscalar_ptr_iterator_tag@0@AAV?$_Vector_const_iterator@V?$_Vector_val@UAttackRate@@V?$allocator@UAttackRate@@@std@@@std@@@0@AAPAUAttackRate@@@Z
_TEXT	SEGMENT
__Cat$ = -1						; size = 1
___formal$ = 8						; size = 4
___formal$ = 12						; size = 4
??$_Ptr_cat@V?$_Vector_const_iterator@V?$_Vector_val@UAttackRate@@V?$allocator@UAttackRate@@@std@@@std@@@std@@PAUAttackRate@@@std@@YA?AU_Nonscalar_ptr_iterator_tag@0@AAV?$_Vector_const_iterator@V?$_Vector_val@UAttackRate@@V?$allocator@UAttackRate@@@std@@@std@@@0@AAPAUAttackRate@@@Z PROC ; std::_Ptr_cat<std::_Vector_const_iterator<std::_Vector_val<AttackRate,std::allocator<AttackRate> > >,AttackRate *>, COMDAT

; 485  : 	{	// return pointer category from arbitrary arguments

  00000	55		 push	 ebp
  00001	8b ec		 mov	 ebp, esp
  00003	51		 push	 ecx

; 486  : 	_Nonscalar_ptr_iterator_tag _Cat;
; 487  : 	return (_Cat);

  00004	8a 45 ff	 mov	 al, BYTE PTR __Cat$[ebp]

; 488  : 	}

  00007	c9		 leave
  00008	c3		 ret	 0
??$_Ptr_cat@V?$_Vector_const_iterator@V?$_Vector_val@UAttackRate@@V?$allocator@UAttackRate@@@std@@@std@@@std@@PAUAttackRate@@@std@@YA?AU_Nonscalar_ptr_iterator_tag@0@AAV?$_Vector_const_iterator@V?$_Vector_val@UAttackRate@@V?$allocator@UAttackRate@@@std@@@std@@@0@AAPAUAttackRate@@@Z ENDP ; std::_Ptr_cat<std::_Vector_const_iterator<std::_Vector_val<AttackRate,std::allocator<AttackRate> > >,AttackRate *>
_TEXT	ENDS
PUBLIC	??$move@AAUAttackRate@@@std@@YA$$QAUAttackRate@@AAU1@@Z ; std::move<AttackRate &>
; Function compile flags: /Ogsp
; File c:\program files (x86)\microsoft visual studio 10.0\vc\include\utility
;	COMDAT ??$move@AAUAttackRate@@@std@@YA$$QAUAttackRate@@AAU1@@Z
_TEXT	SEGMENT
__Arg$ = 8						; size = 4
??$move@AAUAttackRate@@@std@@YA$$QAUAttackRate@@AAU1@@Z PROC ; std::move<AttackRate &>, COMDAT

; 86   : 	{	// forward _Arg as movable

  00000	55		 push	 ebp
  00001	8b ec		 mov	 ebp, esp

; 87   : 	return ((typename tr1::_Remove_reference<_Ty>::_Type&&)_Arg);

  00003	8b 45 08	 mov	 eax, DWORD PTR __Arg$[ebp]

; 88   : 	}

  00006	5d		 pop	 ebp
  00007	c3		 ret	 0
??$move@AAUAttackRate@@@std@@YA$$QAUAttackRate@@AAU1@@Z ENDP ; std::move<AttackRate &>
_TEXT	ENDS
PUBLIC	??$_Val_type@PAUAttackRate@@@std@@YAPAUAttackRate@@PAU1@@Z ; std::_Val_type<AttackRate *>
; Function compile flags: /Ogsp
; File c:\program files (x86)\microsoft visual studio 10.0\vc\include\xutility
;	COMDAT ??$_Val_type@PAUAttackRate@@@std@@YAPAUAttackRate@@PAU1@@Z
_TEXT	SEGMENT
___formal$ = 8						; size = 4
??$_Val_type@PAUAttackRate@@@std@@YAPAUAttackRate@@PAU1@@Z PROC ; std::_Val_type<AttackRate *>, COMDAT

; 790  : 	return (0);

  00000	33 c0		 xor	 eax, eax

; 791  : 	}

  00002	c3		 ret	 0
??$_Val_type@PAUAttackRate@@@std@@YAPAUAttackRate@@PAU1@@Z ENDP ; std::_Val_type<AttackRate *>
_TEXT	ENDS
PUBLIC	??_GAttackRate@@QAEPAXI@Z			; AttackRate::`scalar deleting destructor'
; Function compile flags: /Ogsp
;	COMDAT ??_GAttackRate@@QAEPAXI@Z
_TEXT	SEGMENT
___flags$ = 8						; size = 4
??_GAttackRate@@QAEPAXI@Z PROC				; AttackRate::`scalar deleting destructor', COMDAT
; _this$ = ecx
  00000	55		 push	 ebp
  00001	8b ec		 mov	 ebp, esp
  00003	56		 push	 esi
  00004	8b f1		 mov	 esi, ecx
  00006	8d 4e 0c	 lea	 ecx, DWORD PTR [esi+12]
  00009	ff 15 00 00 00
	00		 call	 DWORD PTR __imp_??1ioHashString@@QAE@XZ
  0000f	f6 45 08 01	 test	 BYTE PTR ___flags$[ebp], 1
  00013	74 07		 je	 SHORT $LN1@scalar@2
  00015	56		 push	 esi
  00016	e8 00 00 00 00	 call	 ??3@YAXPAX@Z		; operator delete
  0001b	59		 pop	 ecx
$LN1@scalar@2:
  0001c	8b c6		 mov	 eax, esi
  0001e	5e		 pop	 esi
  0001f	5d		 pop	 ebp
  00020	c2 04 00	 ret	 4
??_GAttackRate@@QAEPAXI@Z ENDP				; AttackRate::`scalar deleting destructor'
_TEXT	ENDS
PUBLIC	??$forward@UAttackRate@@@std@@YA$$QAUAttackRate@@AAU1@@Z ; std::forward<AttackRate>
; Function compile flags: /Ogsp
; File c:\program files (x86)\microsoft visual studio 10.0\vc\include\utility
;	COMDAT ??$forward@UAttackRate@@@std@@YA$$QAUAttackRate@@AAU1@@Z
_TEXT	SEGMENT
__Arg$ = 8						; size = 4
??$forward@UAttackRate@@@std@@YA$$QAUAttackRate@@AAU1@@Z PROC ; std::forward<AttackRate>, COMDAT

; 78   : 	{	// forward _Arg, given explicitly specified type parameter

  00000	55		 push	 ebp
  00001	8b ec		 mov	 ebp, esp

; 79   : 	return ((_Ty&&)_Arg);

  00003	8b 45 08	 mov	 eax, DWORD PTR __Arg$[ebp]

; 80   : 	}

  00006	5d		 pop	 ebp
  00007	c3		 ret	 0
??$forward@UAttackRate@@@std@@YA$$QAUAttackRate@@AAU1@@Z ENDP ; std::forward<AttackRate>
_TEXT	ENDS
PUBLIC	?_DECSTR@@YAXPADH@Z				; _DECSTR
; Function compile flags: /Ogsp
; File d:\lost saga for developer\youtube\tutorial\source\src\lsclient\stringprotect.h
;	COMDAT ?_DECSTR@@YAXPADH@Z
_TEXT	SEGMENT
_s$ = 8							; size = 4
_l$ = 12						; size = 4
?_DECSTR@@YAXPADH@Z PROC				; _DECSTR, COMDAT

; 40   : __forceinline void _DECSTR(char* s, int l){int i=0,l4=(l-1)/4,*p=(int*)s;s[l-1]=0;for(;i<l4;++i)*(p++)^=0xEAEBECED;for(i=l4*4;i<l-1;++i)s[i]^=0xED-i%4;}

  00000	55		 push	 ebp
  00001	8b ec		 mov	 ebp, esp
  00003	8b 4d 0c	 mov	 ecx, DWORD PTR _l$[ebp]
  00006	56		 push	 esi
  00007	8b 75 08	 mov	 esi, DWORD PTR _s$[ebp]
  0000a	57		 push	 edi
  0000b	8d 79 ff	 lea	 edi, DWORD PTR [ecx-1]
  0000e	8b c7		 mov	 eax, edi
  00010	99		 cdq
  00011	83 e2 03	 and	 edx, 3
  00014	03 c2		 add	 eax, edx
  00016	c1 f8 02	 sar	 eax, 2
  00019	8b d6		 mov	 edx, esi
  0001b	c6 44 0e ff 00	 mov	 BYTE PTR [esi+ecx-1], 0
  00020	85 c0		 test	 eax, eax
  00022	7e 0e		 jle	 SHORT $LN4@DECSTR
  00024	8b c8		 mov	 ecx, eax
$LL6@DECSTR:
  00026	81 32 ed ec eb
	ea		 xor	 DWORD PTR [edx], -353637139 ; eaebecedH
  0002c	83 c2 04	 add	 edx, 4
  0002f	49		 dec	 ecx
  00030	75 f4		 jne	 SHORT $LL6@DECSTR
$LN4@DECSTR:
  00032	c1 e0 02	 shl	 eax, 2
  00035	eb 17		 jmp	 SHORT $LN14@DECSTR
$LL3@DECSTR:
  00037	8b c8		 mov	 ecx, eax
  00039	81 e1 03 00 00
	80		 and	 ecx, -2147483645	; 80000003H
  0003f	79 05		 jns	 SHORT $LN13@DECSTR
  00041	49		 dec	 ecx
  00042	83 c9 fc	 or	 ecx, -4			; fffffffcH
  00045	41		 inc	 ecx
$LN13@DECSTR:
  00046	b2 ed		 mov	 dl, -19			; ffffffedH
  00048	2a d1		 sub	 dl, cl
  0004a	30 14 30	 xor	 BYTE PTR [eax+esi], dl
  0004d	40		 inc	 eax
$LN14@DECSTR:
  0004e	3b c7		 cmp	 eax, edi
  00050	7c e5		 jl	 SHORT $LL3@DECSTR
  00052	5f		 pop	 edi
  00053	5e		 pop	 esi
  00054	5d		 pop	 ebp
  00055	c3		 ret	 0
?_DECSTR@@YAXPADH@Z ENDP				; _DECSTR
_TEXT	ENDS
PUBLIC	__real@4f800000
PUBLIC	??0AttackRate@@QAE@XZ				; AttackRate::AttackRate
EXTRN	__imp_??0ioHashString@@QAE@XZ:PROC
;	COMDAT __real@4f800000
; File d:\lost saga for developer\youtube\tutorial\source\src\lsclient\stdafx.h
CONST	SEGMENT
__real@4f800000 DD 04f800000r			; 4.29497e+009
; Function compile flags: /Ogsp
; File d:\lost saga for developer\youtube\tutorial\source\src\lsclient\playentityhelpstruct.h
CONST	ENDS
;	COMDAT ??0AttackRate@@QAE@XZ
_TEXT	SEGMENT
tv137 = -4						; size = 4
tv133 = -4						; size = 4
??0AttackRate@@QAE@XZ PROC				; AttackRate::AttackRate, COMDAT
; _this$ = ecx

; 780  : 	AttackRate()

  00000	55		 push	 ebp
  00001	8b ec		 mov	 ebp, esp
  00003	51		 push	 ecx
  00004	56		 push	 esi
  00005	8b f1		 mov	 esi, ecx
  00007	8d 4e 0c	 lea	 ecx, DWORD PTR [esi+12]
  0000a	ff 15 00 00 00
	00		 call	 DWORD PTR __imp_??0ioHashString@@QAE@XZ

; 781  : 	{
; 782  : 		iType = 0;

  00010	83 26 00	 and	 DWORD PTR [esi], 0

; 783  : 		fRate = FLOAT1;

  00013	b8 01 00 00 00	 mov	 eax, 1
  00018	89 45 fc	 mov	 DWORD PTR tv137[ebp], eax
  0001b	db 45 fc	 fild	 DWORD PTR tv137[ebp]
  0001e	85 c0		 test	 eax, eax
  00020	79 06		 jns	 SHORT $LN8@AttackRate
  00022	d8 05 00 00 00
	00		 fadd	 DWORD PTR __real@4f800000
$LN8@AttackRate:
  00028	d9 5e 04	 fstp	 DWORD PTR [esi+4]

; 784  : 		fSkillRate = FLOAT1;

  0002b	b8 01 00 00 00	 mov	 eax, 1
  00030	89 45 fc	 mov	 DWORD PTR tv133[ebp], eax
  00033	db 45 fc	 fild	 DWORD PTR tv133[ebp]
  00036	85 c0		 test	 eax, eax
  00038	79 06		 jns	 SHORT $LN9@AttackRate
  0003a	d8 05 00 00 00
	00		 fadd	 DWORD PTR __real@4f800000
$LN9@AttackRate:
  00040	d9 5e 08	 fstp	 DWORD PTR [esi+8]

; 785  : 	}

  00043	8b c6		 mov	 eax, esi
  00045	5e		 pop	 esi
  00046	c9		 leave
  00047	c3		 ret	 0
??0AttackRate@@QAE@XZ ENDP				; AttackRate::AttackRate
_TEXT	ENDS
EXTRN	__imp_??0exception@std@@QAE@ABV01@@Z:PROC
; Function compile flags: /Ogsp
;	COMDAT ??0bad_alloc@std@@QAE@ABV01@@Z
_TEXT	SEGMENT
___that$ = 8						; size = 4
??0bad_alloc@std@@QAE@ABV01@@Z PROC			; std::bad_alloc::bad_alloc, COMDAT
; _this$ = ecx
  00000	55		 push	 ebp
  00001	8b ec		 mov	 ebp, esp
  00003	56		 push	 esi
  00004	ff 75 08	 push	 DWORD PTR ___that$[ebp]
  00007	8b f1		 mov	 esi, ecx
  00009	ff 15 00 00 00
	00		 call	 DWORD PTR __imp_??0exception@std@@QAE@ABV01@@Z
  0000f	c7 06 00 00 00
	00		 mov	 DWORD PTR [esi], OFFSET ??_7bad_alloc@std@@6B@
  00015	8b c6		 mov	 eax, esi
  00017	5e		 pop	 esi
  00018	5d		 pop	 ebp
  00019	c2 04 00	 ret	 4
??0bad_alloc@std@@QAE@ABV01@@Z ENDP			; std::bad_alloc::bad_alloc
_TEXT	ENDS
PUBLIC	?ProcessBuff@ioDamageUpDownBuff@@UAEXM@Z	; ioDamageUpDownBuff::ProcessBuff
EXTRN	?CheckCallingAreaWeapon@ioBuff@@IAEXXZ:PROC	; ioBuff::CheckCallingAreaWeapon
EXTRN	?CheckCallingProcess@ioBuff@@IAEXXZ:PROC	; ioBuff::CheckCallingProcess
EXTRN	?CheckSwitchType@ioBuff@@IAE_NM@Z:PROC		; ioBuff::CheckSwitchType
EXTRN	?ProcessBuff@ioBuff@@UAEXM@Z:PROC		; ioBuff::ProcessBuff
; Function compile flags: /Ogsp
; File d:\lost saga for developer\youtube\tutorial\source\src\lsclient\iodamageupdownbuff.cpp
;	COMDAT ?ProcessBuff@ioDamageUpDownBuff@@UAEXM@Z
_TEXT	SEGMENT
_fTimePerSec$ = 8					; size = 4
?ProcessBuff@ioDamageUpDownBuff@@UAEXM@Z PROC		; ioDamageUpDownBuff::ProcessBuff, COMDAT
; _this$ = ecx

; 76   : {

  00000	55		 push	 ebp
  00001	8b ec		 mov	 ebp, esp
  00003	56		 push	 esi
  00004	8b f1		 mov	 esi, ecx

; 77   : 	CheckOwnerStateCheck();

  00006	e8 00 00 00 00	 call	 ?CheckOwnerStateCheck@ioDamageUpDownBuff@@IAEXXZ ; ioDamageUpDownBuff::CheckOwnerStateCheck

; 78   : 
; 79   : 	if( m_bRemoveBuffByDrop && m_pOwner->GetState() == CS_DROP_ZONE_DOWN  )

  0000b	80 be 7d 09 00
	00 00		 cmp	 BYTE PTR [esi+2429], 0
  00012	74 18		 je	 SHORT $LN7@ProcessBuf
  00014	8b 86 74 02 00
	00		 mov	 eax, DWORD PTR [esi+628]
  0001a	80 b8 10 03 00
	00 10		 cmp	 BYTE PTR [eax+784], 16	; 00000010H
  00021	75 09		 jne	 SHORT $LN7@ProcessBuf

; 80   : 	{
; 81   : 		SetReserveEndBuff();

  00023	8b ce		 mov	 ecx, esi
$LN12@ProcessBuf:
  00025	e8 00 00 00 00	 call	 ?SetReserveEndBuff@ioBuff@@QAEXXZ ; ioBuff::SetReserveEndBuff

; 82   : 		return;

  0002a	eb 4e		 jmp	 SHORT $LN5@ProcessBuf
$LN7@ProcessBuf:

; 83   : 	}
; 84   : 
; 85   : 	switch( m_iOperationType )

  0002c	8b 86 d0 03 00
	00		 mov	 eax, DWORD PTR [esi+976]
  00032	83 e8 00	 sub	 eax, 0
  00035	74 3c		 je	 SHORT $LN1@ProcessBuf
  00037	48		 dec	 eax
  00038	74 06		 je	 SHORT $LN2@ProcessBuf
  0003a	48		 dec	 eax
  0003b	74 17		 je	 SHORT $LN4@ProcessBuf
  0003d	48		 dec	 eax
  0003e	75 3a		 jne	 SHORT $LN5@ProcessBuf
$LN2@ProcessBuf:

; 96   : 	case OT_DELAY:
; 97   : 	case OT_ACTIVE:
; 98   : 		ioBuff::ProcessBuff( fTimePerSec );

  00040	f3 0f 10 45 08	 movss	 xmm0, DWORD PTR _fTimePerSec$[ebp]
  00045	51		 push	 ecx
  00046	8b ce		 mov	 ecx, esi
  00048	f3 0f 11 04 24	 movss	 DWORD PTR [esp], xmm0
  0004d	e8 00 00 00 00	 call	 ?ProcessBuff@ioBuff@@UAEXM@Z ; ioBuff::ProcessBuff

; 99   : 		break;

  00052	eb 26		 jmp	 SHORT $LN5@ProcessBuf
$LN4@ProcessBuf:

; 86   : 	{
; 87   : 	case OT_SWITCH:
; 88   : 		if( !CheckSwitchType( fTimePerSec ) )

  00054	f3 0f 10 45 08	 movss	 xmm0, DWORD PTR _fTimePerSec$[ebp]
  00059	51		 push	 ecx
  0005a	8b ce		 mov	 ecx, esi
  0005c	f3 0f 11 04 24	 movss	 DWORD PTR [esp], xmm0
  00061	e8 00 00 00 00	 call	 ?CheckSwitchType@ioBuff@@IAE_NM@Z ; ioBuff::CheckSwitchType

; 89   : 		{
; 90   : 			SetReserveEndBuff();

  00066	8b ce		 mov	 ecx, esi
  00068	84 c0		 test	 al, al

; 91   : 			return;

  0006a	74 b9		 je	 SHORT $LN12@ProcessBuf

; 92   : 		}
; 93   : 
; 94   : 		CheckCallingProcess();

  0006c	e8 00 00 00 00	 call	 ?CheckCallingProcess@ioBuff@@IAEXXZ ; ioBuff::CheckCallingProcess

; 95   : 		break;

  00071	eb 07		 jmp	 SHORT $LN5@ProcessBuf
$LN1@ProcessBuf:

; 100  : 	case OT_PASSIVE:
; 101  : 		CheckCallingAreaWeapon();

  00073	8b ce		 mov	 ecx, esi
  00075	e8 00 00 00 00	 call	 ?CheckCallingAreaWeapon@ioBuff@@IAEXXZ ; ioBuff::CheckCallingAreaWeapon
$LN5@ProcessBuf:
  0007a	5e		 pop	 esi

; 102  : 		break;
; 103  : 	}
; 104  : }

  0007b	5d		 pop	 ebp
  0007c	c2 04 00	 ret	 4
?ProcessBuff@ioDamageUpDownBuff@@UAEXM@Z ENDP		; ioDamageUpDownBuff::ProcessBuff
_TEXT	ENDS
PUBLIC	??D?$_Vector_iterator@V?$_Vector_val@UAttackRate@@V?$allocator@UAttackRate@@@std@@@std@@@std@@QBEAAUAttackRate@@XZ ; std::_Vector_iterator<std::_Vector_val<AttackRate,std::allocator<AttackRate> > >::operator*
; Function compile flags: /Ogsp
; File c:\program files (x86)\microsoft visual studio 10.0\vc\include\vector
;	COMDAT ??D?$_Vector_iterator@V?$_Vector_val@UAttackRate@@V?$allocator@UAttackRate@@@std@@@std@@@std@@QBEAAUAttackRate@@XZ
_TEXT	SEGMENT
??D?$_Vector_iterator@V?$_Vector_val@UAttackRate@@V?$allocator@UAttackRate@@@std@@@std@@@std@@QBEAAUAttackRate@@XZ PROC ; std::_Vector_iterator<std::_Vector_val<AttackRate,std::allocator<AttackRate> > >::operator*, COMDAT
; _this$ = ecx

; 322  : 		return ((reference)**(_Mybase *)this);

  00000	8b 01		 mov	 eax, DWORD PTR [ecx]

; 323  : 		}

  00002	c3		 ret	 0
??D?$_Vector_iterator@V?$_Vector_val@UAttackRate@@V?$allocator@UAttackRate@@@std@@@std@@@std@@QBEAAUAttackRate@@XZ ENDP ; std::_Vector_iterator<std::_Vector_val<AttackRate,std::allocator<AttackRate> > >::operator*
_TEXT	ENDS
PUBLIC	??E?$_Vector_iterator@V?$_Vector_val@UAttackRate@@V?$allocator@UAttackRate@@@std@@@std@@@std@@QAEAAV01@XZ ; std::_Vector_iterator<std::_Vector_val<AttackRate,std::allocator<AttackRate> > >::operator++
; Function compile flags: /Ogsp
;	COMDAT ??E?$_Vector_iterator@V?$_Vector_val@UAttackRate@@V?$allocator@UAttackRate@@@std@@@std@@@std@@QAEAAV01@XZ
_TEXT	SEGMENT
??E?$_Vector_iterator@V?$_Vector_val@UAttackRate@@V?$allocator@UAttackRate@@@std@@@std@@@std@@QAEAAV01@XZ PROC ; std::_Vector_iterator<std::_Vector_val<AttackRate,std::allocator<AttackRate> > >::operator++, COMDAT
; _this$ = ecx

; 331  : 		{	// preincrement

  00000	8b c1		 mov	 eax, ecx

; 332  : 		++*(_Mybase *)this;

  00002	83 00 1c	 add	 DWORD PTR [eax], 28	; 0000001cH

; 333  : 		return (*this);
; 334  : 		}

  00005	c3		 ret	 0
??E?$_Vector_iterator@V?$_Vector_val@UAttackRate@@V?$allocator@UAttackRate@@@std@@@std@@@std@@QAEAAV01@XZ ENDP ; std::_Vector_iterator<std::_Vector_val<AttackRate,std::allocator<AttackRate> > >::operator++
_TEXT	ENDS
PUBLIC	?begin@?$vector@UAttackRate@@V?$allocator@UAttackRate@@@std@@@std@@QBE?AV?$_Vector_const_iterator@V?$_Vector_val@UAttackRate@@V?$allocator@UAttackRate@@@std@@@std@@@2@XZ ; std::vector<AttackRate,std::allocator<AttackRate> >::begin
; Function compile flags: /Ogsp
;	COMDAT ?begin@?$vector@UAttackRate@@V?$allocator@UAttackRate@@@std@@@std@@QBE?AV?$_Vector_const_iterator@V?$_Vector_val@UAttackRate@@V?$allocator@UAttackRate@@@std@@@std@@@2@XZ
_TEXT	SEGMENT
___$ReturnUdt$ = 8					; size = 4
?begin@?$vector@UAttackRate@@V?$allocator@UAttackRate@@@std@@@std@@QBE?AV?$_Vector_const_iterator@V?$_Vector_val@UAttackRate@@V?$allocator@UAttackRate@@@std@@@std@@@2@XZ PROC ; std::vector<AttackRate,std::allocator<AttackRate> >::begin, COMDAT
; _this$ = ecx

; 786  : 		{	// return iterator for beginning of nonmutable sequence

  00000	55		 push	 ebp
  00001	8b ec		 mov	 ebp, esp

; 787  : 		return (const_iterator(this->_Myfirst, this));

  00003	8b 09		 mov	 ecx, DWORD PTR [ecx]
  00005	8b 45 08	 mov	 eax, DWORD PTR ___$ReturnUdt$[ebp]
  00008	89 08		 mov	 DWORD PTR [eax], ecx

; 788  : 		}

  0000a	5d		 pop	 ebp
  0000b	c2 04 00	 ret	 4
?begin@?$vector@UAttackRate@@V?$allocator@UAttackRate@@@std@@@std@@QBE?AV?$_Vector_const_iterator@V?$_Vector_val@UAttackRate@@V?$allocator@UAttackRate@@@std@@@std@@@2@XZ ENDP ; std::vector<AttackRate,std::allocator<AttackRate> >::begin
_TEXT	ENDS
PUBLIC	?end@?$vector@UAttackRate@@V?$allocator@UAttackRate@@@std@@@std@@QBE?AV?$_Vector_const_iterator@V?$_Vector_val@UAttackRate@@V?$allocator@UAttackRate@@@std@@@std@@@2@XZ ; std::vector<AttackRate,std::allocator<AttackRate> >::end
; Function compile flags: /Ogsp
;	COMDAT ?end@?$vector@UAttackRate@@V?$allocator@UAttackRate@@@std@@@std@@QBE?AV?$_Vector_const_iterator@V?$_Vector_val@UAttackRate@@V?$allocator@UAttackRate@@@std@@@std@@@2@XZ
_TEXT	SEGMENT
___$ReturnUdt$ = 8					; size = 4
?end@?$vector@UAttackRate@@V?$allocator@UAttackRate@@@std@@@std@@QBE?AV?$_Vector_const_iterator@V?$_Vector_val@UAttackRate@@V?$allocator@UAttackRate@@@std@@@std@@@2@XZ PROC ; std::vector<AttackRate,std::allocator<AttackRate> >::end, COMDAT
; _this$ = ecx

; 796  : 		{	// return iterator for end of nonmutable sequence

  00000	55		 push	 ebp
  00001	8b ec		 mov	 ebp, esp

; 797  : 		return (const_iterator(this->_Mylast, this));

  00003	8b 49 04	 mov	 ecx, DWORD PTR [ecx+4]
  00006	8b 45 08	 mov	 eax, DWORD PTR ___$ReturnUdt$[ebp]
  00009	89 08		 mov	 DWORD PTR [eax], ecx

; 798  : 		}

  0000b	5d		 pop	 ebp
  0000c	c2 04 00	 ret	 4
?end@?$vector@UAttackRate@@V?$allocator@UAttackRate@@@std@@@std@@QBE?AV?$_Vector_const_iterator@V?$_Vector_val@UAttackRate@@V?$allocator@UAttackRate@@@std@@@std@@@2@XZ ENDP ; std::vector<AttackRate,std::allocator<AttackRate> >::end
_TEXT	ENDS
PUBLIC	??0?$_Vector_val@UAttackRate@@V?$allocator@UAttackRate@@@std@@@std@@QAE@V?$allocator@UAttackRate@@@1@@Z ; std::_Vector_val<AttackRate,std::allocator<AttackRate> >::_Vector_val<AttackRate,std::allocator<AttackRate> >
; Function compile flags: /Ogsp
;	COMDAT ??0?$_Vector_val@UAttackRate@@V?$allocator@UAttackRate@@@std@@@std@@QAE@V?$allocator@UAttackRate@@@1@@Z
_TEXT	SEGMENT
__Al$ = 8						; size = 1
??0?$_Vector_val@UAttackRate@@V?$allocator@UAttackRate@@@std@@@std@@QAE@V?$allocator@UAttackRate@@@1@@Z PROC ; std::_Vector_val<AttackRate,std::allocator<AttackRate> >::_Vector_val<AttackRate,std::allocator<AttackRate> >, COMDAT
; _this$ = ecx

; 426  : 		{	// construct allocator from _Al

  00000	8b c1		 mov	 eax, ecx

; 427  : 		_Myfirst = 0;

  00002	33 c9		 xor	 ecx, ecx
  00004	89 08		 mov	 DWORD PTR [eax], ecx

; 428  : 		_Mylast = 0;

  00006	89 48 04	 mov	 DWORD PTR [eax+4], ecx

; 429  : 		_Myend = 0;

  00009	89 48 08	 mov	 DWORD PTR [eax+8], ecx

; 430  : 		}

  0000c	c2 04 00	 ret	 4
??0?$_Vector_val@UAttackRate@@V?$allocator@UAttackRate@@@std@@@std@@QAE@V?$allocator@UAttackRate@@@1@@Z ENDP ; std::_Vector_val<AttackRate,std::allocator<AttackRate> >::_Vector_val<AttackRate,std::allocator<AttackRate> >
_TEXT	ENDS
PUBLIC	??0?$_Vector_iterator@V?$_Vector_val@UAttackRate@@V?$allocator@UAttackRate@@@std@@@std@@@std@@QAE@PAUAttackRate@@PBU_Container_base0@1@@Z ; std::_Vector_iterator<std::_Vector_val<AttackRate,std::allocator<AttackRate> > >::_Vector_iterator<std::_Vector_val<AttackRate,std::allocator<AttackRate> > >
; Function compile flags: /Ogsp
;	COMDAT ??0?$_Vector_iterator@V?$_Vector_val@UAttackRate@@V?$allocator@UAttackRate@@@std@@@std@@@std@@QAE@PAUAttackRate@@PBU_Container_base0@1@@Z
_TEXT	SEGMENT
__Parg$ = 8						; size = 4
__Pvector$ = 12						; size = 4
??0?$_Vector_iterator@V?$_Vector_val@UAttackRate@@V?$allocator@UAttackRate@@@std@@@std@@@std@@QAE@PAUAttackRate@@PBU_Container_base0@1@@Z PROC ; std::_Vector_iterator<std::_Vector_val<AttackRate,std::allocator<AttackRate> > >::_Vector_iterator<std::_Vector_val<AttackRate,std::allocator<AttackRate> > >, COMDAT
; _this$ = ecx

; 304  : 		{	// construct with pointer _Parg

  00000	55		 push	 ebp
  00001	8b ec		 mov	 ebp, esp
  00003	8b c1		 mov	 eax, ecx
  00005	8b 4d 08	 mov	 ecx, DWORD PTR __Parg$[ebp]
  00008	89 08		 mov	 DWORD PTR [eax], ecx

; 305  : 		}

  0000a	5d		 pop	 ebp
  0000b	c2 08 00	 ret	 8
??0?$_Vector_iterator@V?$_Vector_val@UAttackRate@@V?$allocator@UAttackRate@@@std@@@std@@@std@@QAE@PAUAttackRate@@PBU_Container_base0@1@@Z ENDP ; std::_Vector_iterator<std::_Vector_val<AttackRate,std::allocator<AttackRate> > >::_Vector_iterator<std::_Vector_val<AttackRate,std::allocator<AttackRate> > >
_TEXT	ENDS
PUBLIC	??8?$_Vector_const_iterator@V?$_Vector_val@UAttackRate@@V?$allocator@UAttackRate@@@std@@@std@@@std@@QBE_NABV01@@Z ; std::_Vector_const_iterator<std::_Vector_val<AttackRate,std::allocator<AttackRate> > >::operator==
; Function compile flags: /Ogsp
;	COMDAT ??8?$_Vector_const_iterator@V?$_Vector_val@UAttackRate@@V?$allocator@UAttackRate@@@std@@@std@@@std@@QBE_NABV01@@Z
_TEXT	SEGMENT
__Right$ = 8						; size = 4
??8?$_Vector_const_iterator@V?$_Vector_val@UAttackRate@@V?$allocator@UAttackRate@@@std@@@std@@@std@@QBE_NABV01@@Z PROC ; std::_Vector_const_iterator<std::_Vector_val<AttackRate,std::allocator<AttackRate> > >::operator==, COMDAT
; _this$ = ecx

; 201  : 		{	// test for iterator equality

  00000	55		 push	 ebp
  00001	8b ec		 mov	 ebp, esp

; 202  : 		_Compat(_Right);
; 203  : 		return (this->_Ptr == _Right._Ptr);

  00003	8b 01		 mov	 eax, DWORD PTR [ecx]
  00005	8b 4d 08	 mov	 ecx, DWORD PTR __Right$[ebp]
  00008	2b 01		 sub	 eax, DWORD PTR [ecx]
  0000a	f7 d8		 neg	 eax
  0000c	1b c0		 sbb	 eax, eax
  0000e	40		 inc	 eax

; 204  : 		}

  0000f	5d		 pop	 ebp
  00010	c2 04 00	 ret	 4
??8?$_Vector_const_iterator@V?$_Vector_val@UAttackRate@@V?$allocator@UAttackRate@@@std@@@std@@@std@@QBE_NABV01@@Z ENDP ; std::_Vector_const_iterator<std::_Vector_val<AttackRate,std::allocator<AttackRate> > >::operator==
_TEXT	ENDS
PUBLIC	?_Make_iter@?$vector@UAttackRate@@V?$allocator@UAttackRate@@@std@@@std@@QBE?AV?$_Vector_iterator@V?$_Vector_val@UAttackRate@@V?$allocator@UAttackRate@@@std@@@std@@@2@V?$_Vector_const_iterator@V?$_Vector_val@UAttackRate@@V?$allocator@UAttackRate@@@std@@@std@@@2@@Z ; std::vector<AttackRate,std::allocator<AttackRate> >::_Make_iter
; Function compile flags: /Ogsp
;	COMDAT ?_Make_iter@?$vector@UAttackRate@@V?$allocator@UAttackRate@@@std@@@std@@QBE?AV?$_Vector_iterator@V?$_Vector_val@UAttackRate@@V?$allocator@UAttackRate@@@std@@@std@@@2@V?$_Vector_const_iterator@V?$_Vector_val@UAttackRate@@V?$allocator@UAttackRate@@@std@@@std@@@2@@Z
_TEXT	SEGMENT
___$ReturnUdt$ = 8					; size = 4
__Where$ = 12						; size = 4
?_Make_iter@?$vector@UAttackRate@@V?$allocator@UAttackRate@@@std@@@std@@QBE?AV?$_Vector_iterator@V?$_Vector_val@UAttackRate@@V?$allocator@UAttackRate@@@std@@@std@@@2@V?$_Vector_const_iterator@V?$_Vector_val@UAttackRate@@V?$allocator@UAttackRate@@@std@@@std@@@2@@Z PROC ; std::vector<AttackRate,std::allocator<AttackRate> >::_Make_iter, COMDAT
; _this$ = ecx

; 801  : 		{	// make iterator from const_iterator

  00000	55		 push	 ebp
  00001	8b ec		 mov	 ebp, esp

; 802  : 		return (iterator(_Where._Ptr, this));

  00003	8b 45 08	 mov	 eax, DWORD PTR ___$ReturnUdt$[ebp]
  00006	8b 4d 0c	 mov	 ecx, DWORD PTR __Where$[ebp]
  00009	89 08		 mov	 DWORD PTR [eax], ecx

; 803  : 		}

  0000b	5d		 pop	 ebp
  0000c	c2 08 00	 ret	 8
?_Make_iter@?$vector@UAttackRate@@V?$allocator@UAttackRate@@@std@@@std@@QBE?AV?$_Vector_iterator@V?$_Vector_val@UAttackRate@@V?$allocator@UAttackRate@@@std@@@std@@@2@V?$_Vector_const_iterator@V?$_Vector_val@UAttackRate@@V?$allocator@UAttackRate@@@std@@@std@@@2@@Z ENDP ; std::vector<AttackRate,std::allocator<AttackRate> >::_Make_iter
_TEXT	ENDS
PUBLIC	?max_size@?$vector@UAttackRate@@V?$allocator@UAttackRate@@@std@@@std@@QBEIXZ ; std::vector<AttackRate,std::allocator<AttackRate> >::max_size
; Function compile flags: /Ogsp
;	COMDAT ?max_size@?$vector@UAttackRate@@V?$allocator@UAttackRate@@@std@@@std@@QBEIXZ
_TEXT	SEGMENT
?max_size@?$vector@UAttackRate@@V?$allocator@UAttackRate@@@std@@@std@@QBEIXZ PROC ; std::vector<AttackRate,std::allocator<AttackRate> >::max_size, COMDAT
; _this$ = ecx

; 884  : 		return (this->_Alval.max_size());

  00000	b8 49 92 24 09	 mov	 eax, 153391689		; 09249249H

; 885  : 		}

  00005	c3		 ret	 0
?max_size@?$vector@UAttackRate@@V?$allocator@UAttackRate@@@std@@@std@@QBEIXZ ENDP ; std::vector<AttackRate,std::allocator<AttackRate> >::max_size
_TEXT	ENDS
PUBLIC	?_Grow_to@?$vector@UAttackRate@@V?$allocator@UAttackRate@@@std@@@std@@IBEII@Z ; std::vector<AttackRate,std::allocator<AttackRate> >::_Grow_to
; Function compile flags: /Ogsp
;	COMDAT ?_Grow_to@?$vector@UAttackRate@@V?$allocator@UAttackRate@@@std@@@std@@IBEII@Z
_TEXT	SEGMENT
__Count$ = 8						; size = 4
?_Grow_to@?$vector@UAttackRate@@V?$allocator@UAttackRate@@@std@@@std@@IBEII@Z PROC ; std::vector<AttackRate,std::allocator<AttackRate> >::_Grow_to, COMDAT
; _this$ = ecx

; 1274 : 		{	// grow by 50% or at least to _Count

  00000	55		 push	 ebp
  00001	8b ec		 mov	 ebp, esp

; 1275 : 		size_type _Capacity = capacity();

  00003	8b 41 08	 mov	 eax, DWORD PTR [ecx+8]
  00006	2b 01		 sub	 eax, DWORD PTR [ecx]
  00008	6a 1c		 push	 28			; 0000001cH
  0000a	99		 cdq
  0000b	59		 pop	 ecx
  0000c	f7 f9		 idiv	 ecx

; 1276 : 
; 1277 : 		_Capacity = max_size() - _Capacity / 2 < _Capacity
; 1278 : 			? 0 : _Capacity + _Capacity / 2;	// try to grow by 50%

  0000e	ba 49 92 24 09	 mov	 edx, 153391689		; 09249249H
  00013	8b c8		 mov	 ecx, eax
  00015	d1 e9		 shr	 ecx, 1
  00017	2b d1		 sub	 edx, ecx
  00019	3b d0		 cmp	 edx, eax
  0001b	73 04		 jae	 SHORT $LN4@Grow_to
  0001d	33 c0		 xor	 eax, eax
  0001f	eb 02		 jmp	 SHORT $LN5@Grow_to
$LN4@Grow_to:
  00021	03 c1		 add	 eax, ecx
$LN5@Grow_to:

; 1279 : 		if (_Capacity < _Count)

  00023	3b 45 08	 cmp	 eax, DWORD PTR __Count$[ebp]

; 1280 : 			_Capacity = _Count;

  00026	0f 42 45 08	 cmovb	 eax, DWORD PTR __Count$[ebp]

; 1281 : 		return (_Capacity);
; 1282 : 		}

  0002a	5d		 pop	 ebp
  0002b	c2 04 00	 ret	 4
?_Grow_to@?$vector@UAttackRate@@V?$allocator@UAttackRate@@@std@@@std@@IBEII@Z ENDP ; std::vector<AttackRate,std::allocator<AttackRate> >::_Grow_to
_TEXT	ENDS
PUBLIC	?allocate@?$allocator@UAttackRate@@@std@@QAEPAUAttackRate@@I@Z ; std::allocator<AttackRate>::allocate
; Function compile flags: /Ogsp
; File c:\program files (x86)\microsoft visual studio 10.0\vc\include\xmemory
;	COMDAT ?allocate@?$allocator@UAttackRate@@@std@@QAEPAUAttackRate@@I@Z
_TEXT	SEGMENT
__Count$ = 8						; size = 4
?allocate@?$allocator@UAttackRate@@@std@@QAEPAUAttackRate@@I@Z PROC ; std::allocator<AttackRate>::allocate, COMDAT
; _this$ = ecx

; 186  : 		{	// allocate array of _Count elements

  00000	55		 push	 ebp
  00001	8b ec		 mov	 ebp, esp

; 187  : 		return (_Allocate(_Count, (pointer)0));

  00003	6a 00		 push	 0
  00005	ff 75 08	 push	 DWORD PTR __Count$[ebp]
  00008	e8 00 00 00 00	 call	 ??$_Allocate@UAttackRate@@@std@@YAPAUAttackRate@@IPAU1@@Z ; std::_Allocate<AttackRate>
  0000d	59		 pop	 ecx
  0000e	59		 pop	 ecx

; 188  : 		}

  0000f	5d		 pop	 ebp
  00010	c2 04 00	 ret	 4
?allocate@?$allocator@UAttackRate@@@std@@QAEPAUAttackRate@@I@Z ENDP ; std::allocator<AttackRate>::allocate
_TEXT	ENDS
PUBLIC	__$ArrayPad$
PUBLIC	??$LoadBool_e@$0BD@@ioINILoader@@QAE_NAAY0BD@$$CBD_N@Z ; ioINILoader::LoadBool_e<19>
EXTRN	__imp_?LoadBool@ioINILoader@@QAE_NPBD_N@Z:PROC
EXTRN	___security_cookie:DWORD
EXTRN	@__security_check_cookie@4:PROC
; Function compile flags: /Ogsp
; File d:\lost saga for developer\youtube\tutorial\source\src\io3dengine\ioiniloader.h
;	COMDAT ??$LoadBool_e@$0BD@@ioINILoader@@QAE_NAAY0BD@$$CBD_N@Z
_TEXT	SEGMENT
__k$ = -28						; size = 19
__$ArrayPad$ = -4					; size = 4
_k$ = 8							; size = 4
_b$ = 12						; size = 1
??$LoadBool_e@$0BD@@ioINILoader@@QAE_NAAY0BD@$$CBD_N@Z PROC ; ioINILoader::LoadBool_e<19>, COMDAT
; _this$ = ecx

; 101  : 	{

  00000	55		 push	 ebp
  00001	8b ec		 mov	 ebp, esp
  00003	83 ec 1c	 sub	 esp, 28			; 0000001cH
  00006	a1 00 00 00 00	 mov	 eax, DWORD PTR ___security_cookie
  0000b	33 c5		 xor	 eax, ebp
  0000d	89 45 fc	 mov	 DWORD PTR __$ArrayPad$[ebp], eax
  00010	8b 45 08	 mov	 eax, DWORD PTR _k$[ebp]

; 102  : 		_ENCSTR(k, _k);

  00013	8a 10		 mov	 dl, BYTE PTR [eax]
  00015	56		 push	 esi
  00016	8b f1		 mov	 esi, ecx
  00018	84 d2		 test	 dl, dl
  0001a	0f 84 cf 01 00
	00		 je	 $LN96@LoadBool_e
  00020	80 f2 ed	 xor	 dl, -19			; ffffffedH
  00023	88 55 e4	 mov	 BYTE PTR __k$[ebp], dl
  00026	8a 50 01	 mov	 dl, BYTE PTR [eax+1]
  00029	84 d2		 test	 dl, dl
  0002b	0f 84 b8 01 00
	00		 je	 $LN95@LoadBool_e
  00031	b1 ec		 mov	 cl, -20			; ffffffecH
  00033	32 d1		 xor	 dl, cl
  00035	88 55 e5	 mov	 BYTE PTR __k$[ebp+1], dl
  00038	8a 50 02	 mov	 dl, BYTE PTR [eax+2]
  0003b	84 d2		 test	 dl, dl
  0003d	0f 84 a0 01 00
	00		 je	 $LN94@LoadBool_e
  00043	80 f2 eb	 xor	 dl, -21			; ffffffebH
  00046	88 55 e6	 mov	 BYTE PTR __k$[ebp+2], dl
  00049	8a 50 03	 mov	 dl, BYTE PTR [eax+3]
  0004c	84 d2		 test	 dl, dl
  0004e	0f 84 89 01 00
	00		 je	 $LN93@LoadBool_e
  00054	80 f2 ea	 xor	 dl, -22			; ffffffeaH
  00057	88 55 e7	 mov	 BYTE PTR __k$[ebp+3], dl
  0005a	8a 50 04	 mov	 dl, BYTE PTR [eax+4]
  0005d	84 d2		 test	 dl, dl
  0005f	0f 84 72 01 00
	00		 je	 $LN92@LoadBool_e
  00065	80 f2 ed	 xor	 dl, -19			; ffffffedH
  00068	88 55 e8	 mov	 BYTE PTR __k$[ebp+4], dl
  0006b	8a 50 05	 mov	 dl, BYTE PTR [eax+5]
  0006e	84 d2		 test	 dl, dl
  00070	0f 84 5c 01 00
	00		 je	 $LN91@LoadBool_e
  00076	32 d1		 xor	 dl, cl
  00078	88 55 e9	 mov	 BYTE PTR __k$[ebp+5], dl
  0007b	8a 50 06	 mov	 dl, BYTE PTR [eax+6]
  0007e	84 d2		 test	 dl, dl
  00080	0f 84 46 01 00
	00		 je	 $LN90@LoadBool_e
  00086	80 f2 eb	 xor	 dl, -21			; ffffffebH
  00089	88 55 ea	 mov	 BYTE PTR __k$[ebp+6], dl
  0008c	8a 50 07	 mov	 dl, BYTE PTR [eax+7]
  0008f	84 d2		 test	 dl, dl
  00091	0f 84 2f 01 00
	00		 je	 $LN89@LoadBool_e
  00097	80 f2 ea	 xor	 dl, -22			; ffffffeaH
  0009a	88 55 eb	 mov	 BYTE PTR __k$[ebp+7], dl
  0009d	8a 50 08	 mov	 dl, BYTE PTR [eax+8]
  000a0	84 d2		 test	 dl, dl
  000a2	0f 84 18 01 00
	00		 je	 $LN88@LoadBool_e
  000a8	80 f2 ed	 xor	 dl, -19			; ffffffedH
  000ab	88 55 ec	 mov	 BYTE PTR __k$[ebp+8], dl
  000ae	8a 50 09	 mov	 dl, BYTE PTR [eax+9]
  000b1	84 d2		 test	 dl, dl
  000b3	0f 84 02 01 00
	00		 je	 $LN87@LoadBool_e
  000b9	32 d1		 xor	 dl, cl
  000bb	88 55 ed	 mov	 BYTE PTR __k$[ebp+9], dl
  000be	8a 50 0a	 mov	 dl, BYTE PTR [eax+10]
  000c1	84 d2		 test	 dl, dl
  000c3	0f 84 ec 00 00
	00		 je	 $LN86@LoadBool_e
  000c9	80 f2 eb	 xor	 dl, -21			; ffffffebH
  000cc	88 55 ee	 mov	 BYTE PTR __k$[ebp+10], dl
  000cf	8a 50 0b	 mov	 dl, BYTE PTR [eax+11]
  000d2	84 d2		 test	 dl, dl
  000d4	0f 84 d5 00 00
	00		 je	 $LN85@LoadBool_e
  000da	80 f2 ea	 xor	 dl, -22			; ffffffeaH
  000dd	88 55 ef	 mov	 BYTE PTR __k$[ebp+11], dl
  000e0	8a 50 0c	 mov	 dl, BYTE PTR [eax+12]
  000e3	84 d2		 test	 dl, dl
  000e5	0f 84 be 00 00
	00		 je	 $LN84@LoadBool_e
  000eb	80 f2 ed	 xor	 dl, -19			; ffffffedH
  000ee	88 55 f0	 mov	 BYTE PTR __k$[ebp+12], dl
  000f1	8a 50 0d	 mov	 dl, BYTE PTR [eax+13]
  000f4	84 d2		 test	 dl, dl
  000f6	0f 84 a8 00 00
	00		 je	 $LN83@LoadBool_e
  000fc	32 d1		 xor	 dl, cl
  000fe	88 55 f1	 mov	 BYTE PTR __k$[ebp+13], dl
  00101	8a 50 0e	 mov	 dl, BYTE PTR [eax+14]
  00104	84 d2		 test	 dl, dl
  00106	0f 84 92 00 00
	00		 je	 $LN82@LoadBool_e
  0010c	80 f2 eb	 xor	 dl, -21			; ffffffebH
  0010f	88 55 f2	 mov	 BYTE PTR __k$[ebp+14], dl
  00112	8a 50 0f	 mov	 dl, BYTE PTR [eax+15]
  00115	84 d2		 test	 dl, dl
  00117	74 7f		 je	 SHORT $LN81@LoadBool_e
  00119	80 f2 ea	 xor	 dl, -22			; ffffffeaH
  0011c	88 55 f3	 mov	 BYTE PTR __k$[ebp+15], dl
  0011f	8a 50 10	 mov	 dl, BYTE PTR [eax+16]
  00122	84 d2		 test	 dl, dl
  00124	74 6c		 je	 SHORT $LN80@LoadBool_e
  00126	80 f2 ed	 xor	 dl, -19			; ffffffedH
  00129	88 55 f4	 mov	 BYTE PTR __k$[ebp+16], dl
  0012c	8a 50 11	 mov	 dl, BYTE PTR [eax+17]
  0012f	84 d2		 test	 dl, dl
  00131	74 5a		 je	 SHORT $LN79@LoadBool_e
  00133	32 d1		 xor	 dl, cl
  00135	80 78 12 00	 cmp	 BYTE PTR [eax+18], 0
  00139	88 55 f5	 mov	 BYTE PTR __k$[ebp+17], dl
  0013c	0f 84 b1 00 00
	00		 je	 $LN1@LoadBool_e
  00142	8a 50 13	 mov	 dl, BYTE PTR [eax+19]
  00145	84 d2		 test	 dl, dl
  00147	74 3e		 je	 SHORT $LN77@LoadBool_e
  00149	80 f2 ea	 xor	 dl, -22			; ffffffeaH
  0014c	88 55 f7	 mov	 BYTE PTR __k$[ebp+19], dl
  0014f	8a 50 14	 mov	 dl, BYTE PTR [eax+20]
  00152	84 d2		 test	 dl, dl
  00154	74 2b		 je	 SHORT $LN76@LoadBool_e
  00156	80 f2 ed	 xor	 dl, -19			; ffffffedH
  00159	88 55 f8	 mov	 BYTE PTR __k$[ebp+20], dl
  0015c	8a 50 15	 mov	 dl, BYTE PTR [eax+21]
  0015f	84 d2		 test	 dl, dl
  00161	74 19		 je	 SHORT $LN75@LoadBool_e
  00163	8a 40 16	 mov	 al, BYTE PTR [eax+22]
  00166	32 d1		 xor	 dl, cl
  00168	88 55 f9	 mov	 BYTE PTR __k$[ebp+21], dl
  0016b	84 c0		 test	 al, al
  0016d	74 07		 je	 SHORT $LN74@LoadBool_e
  0016f	34 eb		 xor	 al, -21			; ffffffebH
  00171	88 45 fa	 mov	 BYTE PTR __k$[ebp+22], al
  00174	eb 7d		 jmp	 SHORT $LN1@LoadBool_e
$LN74@LoadBool_e:
  00176	c6 45 fa eb	 mov	 BYTE PTR __k$[ebp+22], -21 ; ffffffebH
  0017a	eb 77		 jmp	 SHORT $LN1@LoadBool_e
$LN75@LoadBool_e:
  0017c	88 4d f9	 mov	 BYTE PTR __k$[ebp+21], cl
  0017f	eb 72		 jmp	 SHORT $LN1@LoadBool_e
$LN76@LoadBool_e:
  00181	c6 45 f8 ed	 mov	 BYTE PTR __k$[ebp+20], -19 ; ffffffedH
  00185	eb 6c		 jmp	 SHORT $LN1@LoadBool_e
$LN77@LoadBool_e:
  00187	c6 45 f7 ea	 mov	 BYTE PTR __k$[ebp+19], -22 ; ffffffeaH
  0018b	eb 66		 jmp	 SHORT $LN1@LoadBool_e
$LN79@LoadBool_e:
  0018d	88 4d f5	 mov	 BYTE PTR __k$[ebp+17], cl
  00190	eb 61		 jmp	 SHORT $LN1@LoadBool_e
$LN80@LoadBool_e:
  00192	c6 45 f4 ed	 mov	 BYTE PTR __k$[ebp+16], -19 ; ffffffedH
  00196	eb 5b		 jmp	 SHORT $LN1@LoadBool_e
$LN81@LoadBool_e:
  00198	c6 45 f3 ea	 mov	 BYTE PTR __k$[ebp+15], -22 ; ffffffeaH
  0019c	eb 55		 jmp	 SHORT $LN1@LoadBool_e
$LN82@LoadBool_e:
  0019e	c6 45 f2 eb	 mov	 BYTE PTR __k$[ebp+14], -21 ; ffffffebH
  001a2	eb 4f		 jmp	 SHORT $LN1@LoadBool_e
$LN83@LoadBool_e:
  001a4	88 4d f1	 mov	 BYTE PTR __k$[ebp+13], cl
  001a7	eb 4a		 jmp	 SHORT $LN1@LoadBool_e
$LN84@LoadBool_e:
  001a9	c6 45 f0 ed	 mov	 BYTE PTR __k$[ebp+12], -19 ; ffffffedH
  001ad	eb 44		 jmp	 SHORT $LN1@LoadBool_e
$LN85@LoadBool_e:
  001af	c6 45 ef ea	 mov	 BYTE PTR __k$[ebp+11], -22 ; ffffffeaH
  001b3	eb 3e		 jmp	 SHORT $LN1@LoadBool_e
$LN86@LoadBool_e:
  001b5	c6 45 ee eb	 mov	 BYTE PTR __k$[ebp+10], -21 ; ffffffebH
  001b9	eb 38		 jmp	 SHORT $LN1@LoadBool_e
$LN87@LoadBool_e:
  001bb	88 4d ed	 mov	 BYTE PTR __k$[ebp+9], cl
  001be	eb 33		 jmp	 SHORT $LN1@LoadBool_e
$LN88@LoadBool_e:
  001c0	c6 45 ec ed	 mov	 BYTE PTR __k$[ebp+8], -19 ; ffffffedH
  001c4	eb 2d		 jmp	 SHORT $LN1@LoadBool_e
$LN89@LoadBool_e:
  001c6	c6 45 eb ea	 mov	 BYTE PTR __k$[ebp+7], -22 ; ffffffeaH
  001ca	eb 27		 jmp	 SHORT $LN1@LoadBool_e
$LN90@LoadBool_e:
  001cc	c6 45 ea eb	 mov	 BYTE PTR __k$[ebp+6], -21 ; ffffffebH
  001d0	eb 21		 jmp	 SHORT $LN1@LoadBool_e
$LN91@LoadBool_e:
  001d2	88 4d e9	 mov	 BYTE PTR __k$[ebp+5], cl
  001d5	eb 1c		 jmp	 SHORT $LN1@LoadBool_e
$LN92@LoadBool_e:
  001d7	c6 45 e8 ed	 mov	 BYTE PTR __k$[ebp+4], -19 ; ffffffedH
  001db	eb 16		 jmp	 SHORT $LN1@LoadBool_e
$LN93@LoadBool_e:
  001dd	c6 45 e7 ea	 mov	 BYTE PTR __k$[ebp+3], -22 ; ffffffeaH
  001e1	eb 10		 jmp	 SHORT $LN1@LoadBool_e
$LN94@LoadBool_e:
  001e3	c6 45 e6 eb	 mov	 BYTE PTR __k$[ebp+2], -21 ; ffffffebH
  001e7	eb 0a		 jmp	 SHORT $LN1@LoadBool_e
$LN95@LoadBool_e:
  001e9	c6 45 e5 ec	 mov	 BYTE PTR __k$[ebp+1], -20 ; ffffffecH
  001ed	eb 04		 jmp	 SHORT $LN1@LoadBool_e
$LN96@LoadBool_e:
  001ef	c6 45 e4 ed	 mov	 BYTE PTR __k$[ebp], -19	; ffffffedH
$LN1@LoadBool_e:
  001f3	6a 04		 push	 4
  001f5	8d 45 e4	 lea	 eax, DWORD PTR __k$[ebp]
  001f8	c6 45 f6 00	 mov	 BYTE PTR __k$[ebp+18], 0
  001fc	5a		 pop	 edx
$LL104@LoadBool_e:
  001fd	81 30 ed ec eb
	ea		 xor	 DWORD PTR [eax], -353637139 ; eaebecedH
  00203	83 c0 04	 add	 eax, 4
  00206	4a		 dec	 edx
  00207	75 f4		 jne	 SHORT $LL104@LoadBool_e
  00209	6a 10		 push	 16			; 00000010H
  0020b	58		 pop	 eax
$LL101@LoadBool_e:
  0020c	8b c8		 mov	 ecx, eax
  0020e	81 e1 03 00 00
	80		 and	 ecx, -2147483645	; 80000003H
  00214	79 05		 jns	 SHORT $LN111@LoadBool_e
  00216	49		 dec	 ecx
  00217	83 c9 fc	 or	 ecx, -4			; fffffffcH
  0021a	41		 inc	 ecx
$LN111@LoadBool_e:
  0021b	b2 ed		 mov	 dl, -19			; ffffffedH
  0021d	2a d1		 sub	 dl, cl
  0021f	30 54 05 e4	 xor	 BYTE PTR __k$[ebp+eax], dl
  00223	40		 inc	 eax
  00224	83 f8 12	 cmp	 eax, 18			; 00000012H
  00227	7c e3		 jl	 SHORT $LL101@LoadBool_e

; 103  : 		return LoadBool(_k, b);

  00229	ff 75 0c	 push	 DWORD PTR _b$[ebp]
  0022c	8d 45 e4	 lea	 eax, DWORD PTR __k$[ebp]
  0022f	50		 push	 eax
  00230	8b ce		 mov	 ecx, esi
  00232	ff 15 00 00 00
	00		 call	 DWORD PTR __imp_?LoadBool@ioINILoader@@QAE_NPBD_N@Z

; 104  : 	}

  00238	8b 4d fc	 mov	 ecx, DWORD PTR __$ArrayPad$[ebp]
  0023b	33 cd		 xor	 ecx, ebp
  0023d	5e		 pop	 esi
  0023e	e8 00 00 00 00	 call	 @__security_check_cookie@4
  00243	c9		 leave
  00244	c2 08 00	 ret	 8
??$LoadBool_e@$0BD@@ioINILoader@@QAE_NAAY0BD@$$CBD_N@Z ENDP ; ioINILoader::LoadBool_e<19>
_TEXT	ENDS
PUBLIC	__$ArrayPad$
PUBLIC	??$LoadBool_e@$0BB@@ioINILoader@@QAE_NAAY0BB@$$CBD_N@Z ; ioINILoader::LoadBool_e<17>
; Function compile flags: /Ogsp
;	COMDAT ??$LoadBool_e@$0BB@@ioINILoader@@QAE_NAAY0BB@$$CBD_N@Z
_TEXT	SEGMENT
__k$ = -28						; size = 17
__$ArrayPad$ = -4					; size = 4
_k$ = 8							; size = 4
_b$ = 12						; size = 1
??$LoadBool_e@$0BB@@ioINILoader@@QAE_NAAY0BB@$$CBD_N@Z PROC ; ioINILoader::LoadBool_e<17>, COMDAT
; _this$ = ecx

; 101  : 	{

  00000	55		 push	 ebp
  00001	8b ec		 mov	 ebp, esp
  00003	83 ec 1c	 sub	 esp, 28			; 0000001cH
  00006	a1 00 00 00 00	 mov	 eax, DWORD PTR ___security_cookie
  0000b	33 c5		 xor	 eax, ebp
  0000d	89 45 fc	 mov	 DWORD PTR __$ArrayPad$[ebp], eax
  00010	8b 45 08	 mov	 eax, DWORD PTR _k$[ebp]

; 102  : 		_ENCSTR(k, _k);

  00013	8a 10		 mov	 dl, BYTE PTR [eax]
  00015	56		 push	 esi
  00016	8b f1		 mov	 esi, ecx
  00018	84 d2		 test	 dl, dl
  0001a	0f 84 a7 01 00
	00		 je	 $LN96@LoadBool_e@2
  00020	80 f2 ed	 xor	 dl, -19			; ffffffedH
  00023	88 55 e4	 mov	 BYTE PTR __k$[ebp], dl
  00026	8a 50 01	 mov	 dl, BYTE PTR [eax+1]
  00029	84 d2		 test	 dl, dl
  0002b	0f 84 90 01 00
	00		 je	 $LN95@LoadBool_e@2
  00031	b1 ec		 mov	 cl, -20			; ffffffecH
  00033	32 d1		 xor	 dl, cl
  00035	88 55 e5	 mov	 BYTE PTR __k$[ebp+1], dl
  00038	8a 50 02	 mov	 dl, BYTE PTR [eax+2]
  0003b	84 d2		 test	 dl, dl
  0003d	0f 84 78 01 00
	00		 je	 $LN94@LoadBool_e@2
  00043	80 f2 eb	 xor	 dl, -21			; ffffffebH
  00046	88 55 e6	 mov	 BYTE PTR __k$[ebp+2], dl
  00049	8a 50 03	 mov	 dl, BYTE PTR [eax+3]
  0004c	84 d2		 test	 dl, dl
  0004e	0f 84 61 01 00
	00		 je	 $LN93@LoadBool_e@2
  00054	80 f2 ea	 xor	 dl, -22			; ffffffeaH
  00057	88 55 e7	 mov	 BYTE PTR __k$[ebp+3], dl
  0005a	8a 50 04	 mov	 dl, BYTE PTR [eax+4]
  0005d	84 d2		 test	 dl, dl
  0005f	0f 84 4a 01 00
	00		 je	 $LN92@LoadBool_e@2
  00065	80 f2 ed	 xor	 dl, -19			; ffffffedH
  00068	88 55 e8	 mov	 BYTE PTR __k$[ebp+4], dl
  0006b	8a 50 05	 mov	 dl, BYTE PTR [eax+5]
  0006e	84 d2		 test	 dl, dl
  00070	0f 84 34 01 00
	00		 je	 $LN91@LoadBool_e@2
  00076	32 d1		 xor	 dl, cl
  00078	88 55 e9	 mov	 BYTE PTR __k$[ebp+5], dl
  0007b	8a 50 06	 mov	 dl, BYTE PTR [eax+6]
  0007e	84 d2		 test	 dl, dl
  00080	0f 84 1e 01 00
	00		 je	 $LN90@LoadBool_e@2
  00086	80 f2 eb	 xor	 dl, -21			; ffffffebH
  00089	88 55 ea	 mov	 BYTE PTR __k$[ebp+6], dl
  0008c	8a 50 07	 mov	 dl, BYTE PTR [eax+7]
  0008f	84 d2		 test	 dl, dl
  00091	0f 84 07 01 00
	00		 je	 $LN89@LoadBool_e@2
  00097	80 f2 ea	 xor	 dl, -22			; ffffffeaH
  0009a	88 55 eb	 mov	 BYTE PTR __k$[ebp+7], dl
  0009d	8a 50 08	 mov	 dl, BYTE PTR [eax+8]
  000a0	84 d2		 test	 dl, dl
  000a2	0f 84 f0 00 00
	00		 je	 $LN88@LoadBool_e@2
  000a8	80 f2 ed	 xor	 dl, -19			; ffffffedH
  000ab	88 55 ec	 mov	 BYTE PTR __k$[ebp+8], dl
  000ae	8a 50 09	 mov	 dl, BYTE PTR [eax+9]
  000b1	84 d2		 test	 dl, dl
  000b3	0f 84 da 00 00
	00		 je	 $LN87@LoadBool_e@2
  000b9	32 d1		 xor	 dl, cl
  000bb	88 55 ed	 mov	 BYTE PTR __k$[ebp+9], dl
  000be	8a 50 0a	 mov	 dl, BYTE PTR [eax+10]
  000c1	84 d2		 test	 dl, dl
  000c3	0f 84 c4 00 00
	00		 je	 $LN86@LoadBool_e@2
  000c9	80 f2 eb	 xor	 dl, -21			; ffffffebH
  000cc	88 55 ee	 mov	 BYTE PTR __k$[ebp+10], dl
  000cf	8a 50 0b	 mov	 dl, BYTE PTR [eax+11]
  000d2	84 d2		 test	 dl, dl
  000d4	0f 84 ad 00 00
	00		 je	 $LN85@LoadBool_e@2
  000da	80 f2 ea	 xor	 dl, -22			; ffffffeaH
  000dd	88 55 ef	 mov	 BYTE PTR __k$[ebp+11], dl
  000e0	8a 50 0c	 mov	 dl, BYTE PTR [eax+12]
  000e3	84 d2		 test	 dl, dl
  000e5	0f 84 96 00 00
	00		 je	 $LN84@LoadBool_e@2
  000eb	80 f2 ed	 xor	 dl, -19			; ffffffedH
  000ee	88 55 f0	 mov	 BYTE PTR __k$[ebp+12], dl
  000f1	8a 50 0d	 mov	 dl, BYTE PTR [eax+13]
  000f4	84 d2		 test	 dl, dl
  000f6	0f 84 80 00 00
	00		 je	 $LN83@LoadBool_e@2
  000fc	32 d1		 xor	 dl, cl
  000fe	88 55 f1	 mov	 BYTE PTR __k$[ebp+13], dl
  00101	8a 50 0e	 mov	 dl, BYTE PTR [eax+14]
  00104	84 d2		 test	 dl, dl
  00106	74 6e		 je	 SHORT $LN82@LoadBool_e@2
  00108	80 f2 eb	 xor	 dl, -21			; ffffffebH
  0010b	88 55 f2	 mov	 BYTE PTR __k$[ebp+14], dl
  0010e	8a 50 0f	 mov	 dl, BYTE PTR [eax+15]
  00111	84 d2		 test	 dl, dl
  00113	74 5b		 je	 SHORT $LN81@LoadBool_e@2
  00115	80 f2 ea	 xor	 dl, -22			; ffffffeaH
  00118	80 78 10 00	 cmp	 BYTE PTR [eax+16], 0
  0011c	88 55 f3	 mov	 BYTE PTR __k$[ebp+15], dl
  0011f	0f 84 a6 00 00
	00		 je	 $LN1@LoadBool_e@2
  00125	8a 50 11	 mov	 dl, BYTE PTR [eax+17]
  00128	84 d2		 test	 dl, dl
  0012a	74 3f		 je	 SHORT $LN79@LoadBool_e@2
  0012c	32 d1		 xor	 dl, cl
  0012e	88 55 f5	 mov	 BYTE PTR __k$[ebp+17], dl
  00131	8a 50 12	 mov	 dl, BYTE PTR [eax+18]
  00134	84 d2		 test	 dl, dl
  00136	74 2d		 je	 SHORT $LN78@LoadBool_e@2
  00138	80 f2 eb	 xor	 dl, -21			; ffffffebH
  0013b	88 55 f6	 mov	 BYTE PTR __k$[ebp+18], dl
  0013e	8a 50 13	 mov	 dl, BYTE PTR [eax+19]
  00141	84 d2		 test	 dl, dl
  00143	74 1a		 je	 SHORT $LN77@LoadBool_e@2
  00145	8a 40 14	 mov	 al, BYTE PTR [eax+20]
  00148	80 f2 ea	 xor	 dl, -22			; ffffffeaH
  0014b	88 55 f7	 mov	 BYTE PTR __k$[ebp+19], dl
  0014e	84 c0		 test	 al, al
  00150	74 07		 je	 SHORT $LN76@LoadBool_e@2
  00152	34 ed		 xor	 al, -19			; ffffffedH
  00154	88 45 f8	 mov	 BYTE PTR __k$[ebp+20], al
  00157	eb 72		 jmp	 SHORT $LN1@LoadBool_e@2
$LN76@LoadBool_e@2:
  00159	c6 45 f8 ed	 mov	 BYTE PTR __k$[ebp+20], -19 ; ffffffedH
  0015d	eb 6c		 jmp	 SHORT $LN1@LoadBool_e@2
$LN77@LoadBool_e@2:
  0015f	c6 45 f7 ea	 mov	 BYTE PTR __k$[ebp+19], -22 ; ffffffeaH
  00163	eb 66		 jmp	 SHORT $LN1@LoadBool_e@2
$LN78@LoadBool_e@2:
  00165	c6 45 f6 eb	 mov	 BYTE PTR __k$[ebp+18], -21 ; ffffffebH
  00169	eb 60		 jmp	 SHORT $LN1@LoadBool_e@2
$LN79@LoadBool_e@2:
  0016b	88 4d f5	 mov	 BYTE PTR __k$[ebp+17], cl
  0016e	eb 5b		 jmp	 SHORT $LN1@LoadBool_e@2
$LN81@LoadBool_e@2:
  00170	c6 45 f3 ea	 mov	 BYTE PTR __k$[ebp+15], -22 ; ffffffeaH
  00174	eb 55		 jmp	 SHORT $LN1@LoadBool_e@2
$LN82@LoadBool_e@2:
  00176	c6 45 f2 eb	 mov	 BYTE PTR __k$[ebp+14], -21 ; ffffffebH
  0017a	eb 4f		 jmp	 SHORT $LN1@LoadBool_e@2
$LN83@LoadBool_e@2:
  0017c	88 4d f1	 mov	 BYTE PTR __k$[ebp+13], cl
  0017f	eb 4a		 jmp	 SHORT $LN1@LoadBool_e@2
$LN84@LoadBool_e@2:
  00181	c6 45 f0 ed	 mov	 BYTE PTR __k$[ebp+12], -19 ; ffffffedH
  00185	eb 44		 jmp	 SHORT $LN1@LoadBool_e@2
$LN85@LoadBool_e@2:
  00187	c6 45 ef ea	 mov	 BYTE PTR __k$[ebp+11], -22 ; ffffffeaH
  0018b	eb 3e		 jmp	 SHORT $LN1@LoadBool_e@2
$LN86@LoadBool_e@2:
  0018d	c6 45 ee eb	 mov	 BYTE PTR __k$[ebp+10], -21 ; ffffffebH
  00191	eb 38		 jmp	 SHORT $LN1@LoadBool_e@2
$LN87@LoadBool_e@2:
  00193	88 4d ed	 mov	 BYTE PTR __k$[ebp+9], cl
  00196	eb 33		 jmp	 SHORT $LN1@LoadBool_e@2
$LN88@LoadBool_e@2:
  00198	c6 45 ec ed	 mov	 BYTE PTR __k$[ebp+8], -19 ; ffffffedH
  0019c	eb 2d		 jmp	 SHORT $LN1@LoadBool_e@2
$LN89@LoadBool_e@2:
  0019e	c6 45 eb ea	 mov	 BYTE PTR __k$[ebp+7], -22 ; ffffffeaH
  001a2	eb 27		 jmp	 SHORT $LN1@LoadBool_e@2
$LN90@LoadBool_e@2:
  001a4	c6 45 ea eb	 mov	 BYTE PTR __k$[ebp+6], -21 ; ffffffebH
  001a8	eb 21		 jmp	 SHORT $LN1@LoadBool_e@2
$LN91@LoadBool_e@2:
  001aa	88 4d e9	 mov	 BYTE PTR __k$[ebp+5], cl
  001ad	eb 1c		 jmp	 SHORT $LN1@LoadBool_e@2
$LN92@LoadBool_e@2:
  001af	c6 45 e8 ed	 mov	 BYTE PTR __k$[ebp+4], -19 ; ffffffedH
  001b3	eb 16		 jmp	 SHORT $LN1@LoadBool_e@2
$LN93@LoadBool_e@2:
  001b5	c6 45 e7 ea	 mov	 BYTE PTR __k$[ebp+3], -22 ; ffffffeaH
  001b9	eb 10		 jmp	 SHORT $LN1@LoadBool_e@2
$LN94@LoadBool_e@2:
  001bb	c6 45 e6 eb	 mov	 BYTE PTR __k$[ebp+2], -21 ; ffffffebH
  001bf	eb 0a		 jmp	 SHORT $LN1@LoadBool_e@2
$LN95@LoadBool_e@2:
  001c1	c6 45 e5 ec	 mov	 BYTE PTR __k$[ebp+1], -20 ; ffffffecH
  001c5	eb 04		 jmp	 SHORT $LN1@LoadBool_e@2
$LN96@LoadBool_e@2:
  001c7	c6 45 e4 ed	 mov	 BYTE PTR __k$[ebp], -19	; ffffffedH
$LN1@LoadBool_e@2:
  001cb	6a 04		 push	 4
  001cd	8d 45 e4	 lea	 eax, DWORD PTR __k$[ebp]
  001d0	c6 45 f4 00	 mov	 BYTE PTR __k$[ebp+16], 0
  001d4	5a		 pop	 edx
$LL104@LoadBool_e@2:
  001d5	81 30 ed ec eb
	ea		 xor	 DWORD PTR [eax], -353637139 ; eaebecedH
  001db	83 c0 04	 add	 eax, 4
  001de	4a		 dec	 edx
  001df	75 f4		 jne	 SHORT $LL104@LoadBool_e@2

; 103  : 		return LoadBool(_k, b);

  001e1	ff 75 0c	 push	 DWORD PTR _b$[ebp]
  001e4	8d 45 e4	 lea	 eax, DWORD PTR __k$[ebp]
  001e7	50		 push	 eax
  001e8	8b ce		 mov	 ecx, esi
  001ea	ff 15 00 00 00
	00		 call	 DWORD PTR __imp_?LoadBool@ioINILoader@@QAE_NPBD_N@Z

; 104  : 	}

  001f0	8b 4d fc	 mov	 ecx, DWORD PTR __$ArrayPad$[ebp]
  001f3	33 cd		 xor	 ecx, ebp
  001f5	5e		 pop	 esi
  001f6	e8 00 00 00 00	 call	 @__security_check_cookie@4
  001fb	c9		 leave
  001fc	c2 08 00	 ret	 8
??$LoadBool_e@$0BB@@ioINILoader@@QAE_NAAY0BB@$$CBD_N@Z ENDP ; ioINILoader::LoadBool_e<17>
_TEXT	ENDS
PUBLIC	__$ArrayPad$
PUBLIC	??$LoadInt_e@$0L@@ioINILoader@@QAEHAAY0L@$$CBDH@Z ; ioINILoader::LoadInt_e<11>
EXTRN	__imp_?LoadInt@ioINILoader@@QAEHPBDH@Z:PROC
; Function compile flags: /Ogsp
;	COMDAT ??$LoadInt_e@$0L@@ioINILoader@@QAEHAAY0L@$$CBDH@Z
_TEXT	SEGMENT
__k$ = -20						; size = 11
__$ArrayPad$ = -4					; size = 4
_k$ = 8							; size = 4
_i$ = 12						; size = 4
??$LoadInt_e@$0L@@ioINILoader@@QAEHAAY0L@$$CBDH@Z PROC	; ioINILoader::LoadInt_e<11>, COMDAT
; _this$ = ecx

; 118  : 	{

  00000	55		 push	 ebp
  00001	8b ec		 mov	 ebp, esp
  00003	83 ec 14	 sub	 esp, 20			; 00000014H
  00006	a1 00 00 00 00	 mov	 eax, DWORD PTR ___security_cookie
  0000b	33 c5		 xor	 eax, ebp
  0000d	89 45 fc	 mov	 DWORD PTR __$ArrayPad$[ebp], eax
  00010	8b 45 08	 mov	 eax, DWORD PTR _k$[ebp]

; 119  : 		_ENCSTR(k, _k);

  00013	8a 10		 mov	 dl, BYTE PTR [eax]
  00015	56		 push	 esi
  00016	8b f1		 mov	 esi, ecx
  00018	84 d2		 test	 dl, dl
  0001a	0f 84 24 01 00
	00		 je	 $LN96@LoadInt_e
  00020	80 f2 ed	 xor	 dl, -19			; ffffffedH
  00023	88 55 ec	 mov	 BYTE PTR __k$[ebp], dl
  00026	8a 50 01	 mov	 dl, BYTE PTR [eax+1]
  00029	84 d2		 test	 dl, dl
  0002b	0f 84 0d 01 00
	00		 je	 $LN95@LoadInt_e
  00031	80 f2 ec	 xor	 dl, -20			; ffffffecH
  00034	88 55 ed	 mov	 BYTE PTR __k$[ebp+1], dl
  00037	8a 50 02	 mov	 dl, BYTE PTR [eax+2]
  0003a	84 d2		 test	 dl, dl
  0003c	0f 84 f6 00 00
	00		 je	 $LN94@LoadInt_e
  00042	80 f2 eb	 xor	 dl, -21			; ffffffebH
  00045	88 55 ee	 mov	 BYTE PTR __k$[ebp+2], dl
  00048	8a 50 03	 mov	 dl, BYTE PTR [eax+3]
  0004b	84 d2		 test	 dl, dl
  0004d	0f 84 df 00 00
	00		 je	 $LN93@LoadInt_e
  00053	80 f2 ea	 xor	 dl, -22			; ffffffeaH
  00056	88 55 ef	 mov	 BYTE PTR __k$[ebp+3], dl
  00059	8a 50 04	 mov	 dl, BYTE PTR [eax+4]
  0005c	84 d2		 test	 dl, dl
  0005e	0f 84 c8 00 00
	00		 je	 $LN92@LoadInt_e
  00064	80 f2 ed	 xor	 dl, -19			; ffffffedH
  00067	88 55 f0	 mov	 BYTE PTR __k$[ebp+4], dl
  0006a	8a 50 05	 mov	 dl, BYTE PTR [eax+5]
  0006d	84 d2		 test	 dl, dl
  0006f	0f 84 b1 00 00
	00		 je	 $LN91@LoadInt_e
  00075	80 f2 ec	 xor	 dl, -20			; ffffffecH
  00078	88 55 f1	 mov	 BYTE PTR __k$[ebp+5], dl
  0007b	8a 50 06	 mov	 dl, BYTE PTR [eax+6]
  0007e	84 d2		 test	 dl, dl
  00080	0f 84 9a 00 00
	00		 je	 $LN90@LoadInt_e
  00086	80 f2 eb	 xor	 dl, -21			; ffffffebH
  00089	88 55 f2	 mov	 BYTE PTR __k$[ebp+6], dl
  0008c	8a 50 07	 mov	 dl, BYTE PTR [eax+7]
  0008f	84 d2		 test	 dl, dl
  00091	0f 84 83 00 00
	00		 je	 $LN89@LoadInt_e
  00097	80 f2 ea	 xor	 dl, -22			; ffffffeaH
  0009a	88 55 f3	 mov	 BYTE PTR __k$[ebp+7], dl
  0009d	8a 50 08	 mov	 dl, BYTE PTR [eax+8]
  000a0	84 d2		 test	 dl, dl
  000a2	74 70		 je	 SHORT $LN88@LoadInt_e
  000a4	80 f2 ed	 xor	 dl, -19			; ffffffedH
  000a7	88 55 f4	 mov	 BYTE PTR __k$[ebp+8], dl
  000aa	8a 50 09	 mov	 dl, BYTE PTR [eax+9]
  000ad	84 d2		 test	 dl, dl
  000af	74 5d		 je	 SHORT $LN87@LoadInt_e
  000b1	80 f2 ec	 xor	 dl, -20			; ffffffecH
  000b4	80 78 0a 00	 cmp	 BYTE PTR [eax+10], 0
  000b8	88 55 f5	 mov	 BYTE PTR __k$[ebp+9], dl
  000bb	0f 84 87 00 00
	00		 je	 $LN1@LoadInt_e
  000c1	8a 50 0b	 mov	 dl, BYTE PTR [eax+11]
  000c4	84 d2		 test	 dl, dl
  000c6	74 40		 je	 SHORT $LN85@LoadInt_e
  000c8	80 f2 ea	 xor	 dl, -22			; ffffffeaH
  000cb	88 55 f7	 mov	 BYTE PTR __k$[ebp+11], dl
  000ce	8a 50 0c	 mov	 dl, BYTE PTR [eax+12]
  000d1	84 d2		 test	 dl, dl
  000d3	74 2d		 je	 SHORT $LN84@LoadInt_e
  000d5	80 f2 ed	 xor	 dl, -19			; ffffffedH
  000d8	88 55 f8	 mov	 BYTE PTR __k$[ebp+12], dl
  000db	8a 50 0d	 mov	 dl, BYTE PTR [eax+13]
  000de	84 d2		 test	 dl, dl
  000e0	74 1a		 je	 SHORT $LN83@LoadInt_e
  000e2	8a 40 0e	 mov	 al, BYTE PTR [eax+14]
  000e5	80 f2 ec	 xor	 dl, -20			; ffffffecH
  000e8	88 55 f9	 mov	 BYTE PTR __k$[ebp+13], dl
  000eb	84 c0		 test	 al, al
  000ed	74 07		 je	 SHORT $LN82@LoadInt_e
  000ef	34 eb		 xor	 al, -21			; ffffffebH
  000f1	88 45 fa	 mov	 BYTE PTR __k$[ebp+14], al
  000f4	eb 52		 jmp	 SHORT $LN1@LoadInt_e
$LN82@LoadInt_e:
  000f6	c6 45 fa eb	 mov	 BYTE PTR __k$[ebp+14], -21 ; ffffffebH
  000fa	eb 4c		 jmp	 SHORT $LN1@LoadInt_e
$LN83@LoadInt_e:
  000fc	c6 45 f9 ec	 mov	 BYTE PTR __k$[ebp+13], -20 ; ffffffecH
  00100	eb 46		 jmp	 SHORT $LN1@LoadInt_e
$LN84@LoadInt_e:
  00102	c6 45 f8 ed	 mov	 BYTE PTR __k$[ebp+12], -19 ; ffffffedH
  00106	eb 40		 jmp	 SHORT $LN1@LoadInt_e
$LN85@LoadInt_e:
  00108	c6 45 f7 ea	 mov	 BYTE PTR __k$[ebp+11], -22 ; ffffffeaH
  0010c	eb 3a		 jmp	 SHORT $LN1@LoadInt_e
$LN87@LoadInt_e:
  0010e	c6 45 f5 ec	 mov	 BYTE PTR __k$[ebp+9], -20 ; ffffffecH
  00112	eb 34		 jmp	 SHORT $LN1@LoadInt_e
$LN88@LoadInt_e:
  00114	c6 45 f4 ed	 mov	 BYTE PTR __k$[ebp+8], -19 ; ffffffedH
  00118	eb 2e		 jmp	 SHORT $LN1@LoadInt_e
$LN89@LoadInt_e:
  0011a	c6 45 f3 ea	 mov	 BYTE PTR __k$[ebp+7], -22 ; ffffffeaH
  0011e	eb 28		 jmp	 SHORT $LN1@LoadInt_e
$LN90@LoadInt_e:
  00120	c6 45 f2 eb	 mov	 BYTE PTR __k$[ebp+6], -21 ; ffffffebH
  00124	eb 22		 jmp	 SHORT $LN1@LoadInt_e
$LN91@LoadInt_e:
  00126	c6 45 f1 ec	 mov	 BYTE PTR __k$[ebp+5], -20 ; ffffffecH
  0012a	eb 1c		 jmp	 SHORT $LN1@LoadInt_e
$LN92@LoadInt_e:
  0012c	c6 45 f0 ed	 mov	 BYTE PTR __k$[ebp+4], -19 ; ffffffedH
  00130	eb 16		 jmp	 SHORT $LN1@LoadInt_e
$LN93@LoadInt_e:
  00132	c6 45 ef ea	 mov	 BYTE PTR __k$[ebp+3], -22 ; ffffffeaH
  00136	eb 10		 jmp	 SHORT $LN1@LoadInt_e
$LN94@LoadInt_e:
  00138	c6 45 ee eb	 mov	 BYTE PTR __k$[ebp+2], -21 ; ffffffebH
  0013c	eb 0a		 jmp	 SHORT $LN1@LoadInt_e
$LN95@LoadInt_e:
  0013e	c6 45 ed ec	 mov	 BYTE PTR __k$[ebp+1], -20 ; ffffffecH
  00142	eb 04		 jmp	 SHORT $LN1@LoadInt_e
$LN96@LoadInt_e:
  00144	c6 45 ec ed	 mov	 BYTE PTR __k$[ebp], -19	; ffffffedH
$LN1@LoadInt_e:
  00148	6a 02		 push	 2
  0014a	8d 45 ec	 lea	 eax, DWORD PTR __k$[ebp]
  0014d	c6 45 f6 00	 mov	 BYTE PTR __k$[ebp+10], 0
  00151	5a		 pop	 edx
$LL104@LoadInt_e:
  00152	81 30 ed ec eb
	ea		 xor	 DWORD PTR [eax], -353637139 ; eaebecedH
  00158	83 c0 04	 add	 eax, 4
  0015b	4a		 dec	 edx
  0015c	75 f4		 jne	 SHORT $LL104@LoadInt_e
  0015e	6a 08		 push	 8
  00160	58		 pop	 eax
$LL101@LoadInt_e:
  00161	8b c8		 mov	 ecx, eax
  00163	81 e1 03 00 00
	80		 and	 ecx, -2147483645	; 80000003H
  00169	79 05		 jns	 SHORT $LN111@LoadInt_e
  0016b	49		 dec	 ecx
  0016c	83 c9 fc	 or	 ecx, -4			; fffffffcH
  0016f	41		 inc	 ecx
$LN111@LoadInt_e:
  00170	b2 ed		 mov	 dl, -19			; ffffffedH
  00172	2a d1		 sub	 dl, cl
  00174	30 54 05 ec	 xor	 BYTE PTR __k$[ebp+eax], dl
  00178	40		 inc	 eax
  00179	83 f8 0a	 cmp	 eax, 10			; 0000000aH
  0017c	7c e3		 jl	 SHORT $LL101@LoadInt_e

; 120  : 		return LoadInt(_k, i);

  0017e	ff 75 0c	 push	 DWORD PTR _i$[ebp]
  00181	8d 45 ec	 lea	 eax, DWORD PTR __k$[ebp]
  00184	50		 push	 eax
  00185	8b ce		 mov	 ecx, esi
  00187	ff 15 00 00 00
	00		 call	 DWORD PTR __imp_?LoadInt@ioINILoader@@QAEHPBDH@Z

; 121  : 	}

  0018d	8b 4d fc	 mov	 ecx, DWORD PTR __$ArrayPad$[ebp]
  00190	33 cd		 xor	 ecx, ebp
  00192	5e		 pop	 esi
  00193	e8 00 00 00 00	 call	 @__security_check_cookie@4
  00198	c9		 leave
  00199	c2 08 00	 ret	 8
??$LoadInt_e@$0L@@ioINILoader@@QAEHAAY0L@$$CBDH@Z ENDP	; ioINILoader::LoadInt_e<11>
_TEXT	ENDS
PUBLIC	__$ArrayPad$
PUBLIC	??$LoadFloat_e@$0M@@ioINILoader@@QAEMAAY0M@$$CBDM@Z ; ioINILoader::LoadFloat_e<12>
EXTRN	__imp_?LoadFloat@ioINILoader@@QAEMPBDM@Z:PROC
; Function compile flags: /Ogsp
;	COMDAT ??$LoadFloat_e@$0M@@ioINILoader@@QAEMAAY0M@$$CBDM@Z
_TEXT	SEGMENT
__k$ = -20						; size = 12
__$ArrayPad$ = -4					; size = 4
_k$ = 8							; size = 4
_f$ = 12						; size = 4
??$LoadFloat_e@$0M@@ioINILoader@@QAEMAAY0M@$$CBDM@Z PROC ; ioINILoader::LoadFloat_e<12>, COMDAT
; _this$ = ecx

; 135  : 	{

  00000	55		 push	 ebp
  00001	8b ec		 mov	 ebp, esp
  00003	83 ec 14	 sub	 esp, 20			; 00000014H
  00006	a1 00 00 00 00	 mov	 eax, DWORD PTR ___security_cookie
  0000b	33 c5		 xor	 eax, ebp
  0000d	89 45 fc	 mov	 DWORD PTR __$ArrayPad$[ebp], eax
  00010	8b 45 08	 mov	 eax, DWORD PTR _k$[ebp]

; 136  : 		_ENCSTR(k, _k);

  00013	8a 10		 mov	 dl, BYTE PTR [eax]
  00015	56		 push	 esi
  00016	8b f1		 mov	 esi, ecx
  00018	84 d2		 test	 dl, dl
  0001a	0f 84 32 01 00
	00		 je	 $LN96@LoadFloat_
  00020	80 f2 ed	 xor	 dl, -19			; ffffffedH
  00023	88 55 ec	 mov	 BYTE PTR __k$[ebp], dl
  00026	8a 50 01	 mov	 dl, BYTE PTR [eax+1]
  00029	84 d2		 test	 dl, dl
  0002b	0f 84 1b 01 00
	00		 je	 $LN95@LoadFloat_
  00031	80 f2 ec	 xor	 dl, -20			; ffffffecH
  00034	88 55 ed	 mov	 BYTE PTR __k$[ebp+1], dl
  00037	8a 50 02	 mov	 dl, BYTE PTR [eax+2]
  0003a	84 d2		 test	 dl, dl
  0003c	0f 84 04 01 00
	00		 je	 $LN94@LoadFloat_
  00042	b1 eb		 mov	 cl, -21			; ffffffebH
  00044	32 d1		 xor	 dl, cl
  00046	88 55 ee	 mov	 BYTE PTR __k$[ebp+2], dl
  00049	8a 50 03	 mov	 dl, BYTE PTR [eax+3]
  0004c	84 d2		 test	 dl, dl
  0004e	0f 84 ec 00 00
	00		 je	 $LN93@LoadFloat_
  00054	80 f2 ea	 xor	 dl, -22			; ffffffeaH
  00057	88 55 ef	 mov	 BYTE PTR __k$[ebp+3], dl
  0005a	8a 50 04	 mov	 dl, BYTE PTR [eax+4]
  0005d	84 d2		 test	 dl, dl
  0005f	0f 84 d5 00 00
	00		 je	 $LN92@LoadFloat_
  00065	80 f2 ed	 xor	 dl, -19			; ffffffedH
  00068	88 55 f0	 mov	 BYTE PTR __k$[ebp+4], dl
  0006b	8a 50 05	 mov	 dl, BYTE PTR [eax+5]
  0006e	84 d2		 test	 dl, dl
  00070	0f 84 be 00 00
	00		 je	 $LN91@LoadFloat_
  00076	80 f2 ec	 xor	 dl, -20			; ffffffecH
  00079	88 55 f1	 mov	 BYTE PTR __k$[ebp+5], dl
  0007c	8a 50 06	 mov	 dl, BYTE PTR [eax+6]
  0007f	84 d2		 test	 dl, dl
  00081	0f 84 a8 00 00
	00		 je	 $LN90@LoadFloat_
  00087	32 d1		 xor	 dl, cl
  00089	88 55 f2	 mov	 BYTE PTR __k$[ebp+6], dl
  0008c	8a 50 07	 mov	 dl, BYTE PTR [eax+7]
  0008f	84 d2		 test	 dl, dl
  00091	0f 84 92 00 00
	00		 je	 $LN89@LoadFloat_
  00097	80 f2 ea	 xor	 dl, -22			; ffffffeaH
  0009a	88 55 f3	 mov	 BYTE PTR __k$[ebp+7], dl
  0009d	8a 50 08	 mov	 dl, BYTE PTR [eax+8]
  000a0	84 d2		 test	 dl, dl
  000a2	74 7f		 je	 SHORT $LN88@LoadFloat_
  000a4	80 f2 ed	 xor	 dl, -19			; ffffffedH
  000a7	88 55 f4	 mov	 BYTE PTR __k$[ebp+8], dl
  000aa	8a 50 09	 mov	 dl, BYTE PTR [eax+9]
  000ad	84 d2		 test	 dl, dl
  000af	74 6c		 je	 SHORT $LN87@LoadFloat_
  000b1	80 f2 ec	 xor	 dl, -20			; ffffffecH
  000b4	88 55 f5	 mov	 BYTE PTR __k$[ebp+9], dl
  000b7	8a 50 0a	 mov	 dl, BYTE PTR [eax+10]
  000ba	84 d2		 test	 dl, dl
  000bc	74 5a		 je	 SHORT $LN86@LoadFloat_
  000be	32 d1		 xor	 dl, cl
  000c0	80 78 0b 00	 cmp	 BYTE PTR [eax+11], 0
  000c4	88 55 f6	 mov	 BYTE PTR __k$[ebp+10], dl
  000c7	0f 84 89 00 00
	00		 je	 $LN1@LoadFloat_
  000cd	8a 50 0c	 mov	 dl, BYTE PTR [eax+12]
  000d0	84 d2		 test	 dl, dl
  000d2	74 3e		 je	 SHORT $LN84@LoadFloat_
  000d4	80 f2 ed	 xor	 dl, -19			; ffffffedH
  000d7	88 55 f8	 mov	 BYTE PTR __k$[ebp+12], dl
  000da	8a 50 0d	 mov	 dl, BYTE PTR [eax+13]
  000dd	84 d2		 test	 dl, dl
  000df	74 2b		 je	 SHORT $LN83@LoadFloat_
  000e1	80 f2 ec	 xor	 dl, -20			; ffffffecH
  000e4	88 55 f9	 mov	 BYTE PTR __k$[ebp+13], dl
  000e7	8a 50 0e	 mov	 dl, BYTE PTR [eax+14]
  000ea	84 d2		 test	 dl, dl
  000ec	74 19		 je	 SHORT $LN82@LoadFloat_
  000ee	8a 40 0f	 mov	 al, BYTE PTR [eax+15]
  000f1	32 d1		 xor	 dl, cl
  000f3	88 55 fa	 mov	 BYTE PTR __k$[ebp+14], dl
  000f6	84 c0		 test	 al, al
  000f8	74 07		 je	 SHORT $LN81@LoadFloat_
  000fa	34 ea		 xor	 al, -22			; ffffffeaH
  000fc	88 45 fb	 mov	 BYTE PTR __k$[ebp+15], al
  000ff	eb 55		 jmp	 SHORT $LN1@LoadFloat_
$LN81@LoadFloat_:
  00101	c6 45 fb ea	 mov	 BYTE PTR __k$[ebp+15], -22 ; ffffffeaH
  00105	eb 4f		 jmp	 SHORT $LN1@LoadFloat_
$LN82@LoadFloat_:
  00107	88 4d fa	 mov	 BYTE PTR __k$[ebp+14], cl
  0010a	eb 4a		 jmp	 SHORT $LN1@LoadFloat_
$LN83@LoadFloat_:
  0010c	c6 45 f9 ec	 mov	 BYTE PTR __k$[ebp+13], -20 ; ffffffecH
  00110	eb 44		 jmp	 SHORT $LN1@LoadFloat_
$LN84@LoadFloat_:
  00112	c6 45 f8 ed	 mov	 BYTE PTR __k$[ebp+12], -19 ; ffffffedH
  00116	eb 3e		 jmp	 SHORT $LN1@LoadFloat_
$LN86@LoadFloat_:
  00118	88 4d f6	 mov	 BYTE PTR __k$[ebp+10], cl
  0011b	eb 39		 jmp	 SHORT $LN1@LoadFloat_
$LN87@LoadFloat_:
  0011d	c6 45 f5 ec	 mov	 BYTE PTR __k$[ebp+9], -20 ; ffffffecH
  00121	eb 33		 jmp	 SHORT $LN1@LoadFloat_
$LN88@LoadFloat_:
  00123	c6 45 f4 ed	 mov	 BYTE PTR __k$[ebp+8], -19 ; ffffffedH
  00127	eb 2d		 jmp	 SHORT $LN1@LoadFloat_
$LN89@LoadFloat_:
  00129	c6 45 f3 ea	 mov	 BYTE PTR __k$[ebp+7], -22 ; ffffffeaH
  0012d	eb 27		 jmp	 SHORT $LN1@LoadFloat_
$LN90@LoadFloat_:
  0012f	88 4d f2	 mov	 BYTE PTR __k$[ebp+6], cl
  00132	eb 22		 jmp	 SHORT $LN1@LoadFloat_
$LN91@LoadFloat_:
  00134	c6 45 f1 ec	 mov	 BYTE PTR __k$[ebp+5], -20 ; ffffffecH
  00138	eb 1c		 jmp	 SHORT $LN1@LoadFloat_
$LN92@LoadFloat_:
  0013a	c6 45 f0 ed	 mov	 BYTE PTR __k$[ebp+4], -19 ; ffffffedH
  0013e	eb 16		 jmp	 SHORT $LN1@LoadFloat_
$LN93@LoadFloat_:
  00140	c6 45 ef ea	 mov	 BYTE PTR __k$[ebp+3], -22 ; ffffffeaH
  00144	eb 10		 jmp	 SHORT $LN1@LoadFloat_
$LN94@LoadFloat_:
  00146	c6 45 ee eb	 mov	 BYTE PTR __k$[ebp+2], -21 ; ffffffebH
  0014a	eb 0a		 jmp	 SHORT $LN1@LoadFloat_
$LN95@LoadFloat_:
  0014c	c6 45 ed ec	 mov	 BYTE PTR __k$[ebp+1], -20 ; ffffffecH
  00150	eb 04		 jmp	 SHORT $LN1@LoadFloat_
$LN96@LoadFloat_:
  00152	c6 45 ec ed	 mov	 BYTE PTR __k$[ebp], -19	; ffffffedH
$LN1@LoadFloat_:
  00156	6a 02		 push	 2
  00158	8d 45 ec	 lea	 eax, DWORD PTR __k$[ebp]
  0015b	c6 45 f7 00	 mov	 BYTE PTR __k$[ebp+11], 0
  0015f	5a		 pop	 edx
$LL104@LoadFloat_:
  00160	81 30 ed ec eb
	ea		 xor	 DWORD PTR [eax], -353637139 ; eaebecedH
  00166	83 c0 04	 add	 eax, 4
  00169	4a		 dec	 edx
  0016a	75 f4		 jne	 SHORT $LL104@LoadFloat_
  0016c	6a 08		 push	 8
  0016e	58		 pop	 eax
$LL101@LoadFloat_:
  0016f	8b c8		 mov	 ecx, eax
  00171	81 e1 03 00 00
	80		 and	 ecx, -2147483645	; 80000003H
  00177	79 05		 jns	 SHORT $LN111@LoadFloat_
  00179	49		 dec	 ecx
  0017a	83 c9 fc	 or	 ecx, -4			; fffffffcH
  0017d	41		 inc	 ecx
$LN111@LoadFloat_:
  0017e	b2 ed		 mov	 dl, -19			; ffffffedH
  00180	2a d1		 sub	 dl, cl
  00182	30 54 05 ec	 xor	 BYTE PTR __k$[ebp+eax], dl
  00186	40		 inc	 eax
  00187	83 f8 0b	 cmp	 eax, 11			; 0000000bH
  0018a	7c e3		 jl	 SHORT $LL101@LoadFloat_

; 137  : 		return LoadFloat(_k, f);

  0018c	f3 0f 10 45 0c	 movss	 xmm0, DWORD PTR _f$[ebp]
  00191	51		 push	 ecx
  00192	8d 45 ec	 lea	 eax, DWORD PTR __k$[ebp]
  00195	f3 0f 11 04 24	 movss	 DWORD PTR [esp], xmm0
  0019a	50		 push	 eax
  0019b	8b ce		 mov	 ecx, esi
  0019d	ff 15 00 00 00
	00		 call	 DWORD PTR __imp_?LoadFloat@ioINILoader@@QAEMPBDM@Z

; 138  : 	}

  001a3	8b 4d fc	 mov	 ecx, DWORD PTR __$ArrayPad$[ebp]
  001a6	33 cd		 xor	 ecx, ebp
  001a8	5e		 pop	 esi
  001a9	e8 00 00 00 00	 call	 @__security_check_cookie@4
  001ae	c9		 leave
  001af	c2 08 00	 ret	 8
??$LoadFloat_e@$0M@@ioINILoader@@QAEMAAY0M@$$CBDM@Z ENDP ; ioINILoader::LoadFloat_e<12>
_TEXT	ENDS
PUBLIC	??$construct@AAUAttackRate@@@?$allocator@UAttackRate@@@std@@QAEXPAUAttackRate@@AAU2@@Z ; std::allocator<AttackRate>::construct<AttackRate &>
EXTRN	___CxxFrameHandler3:PROC
EXTRN	__EH_epilog3:PROC
EXTRN	__EH_prolog3:PROC
;	COMDAT xdata$x
; File c:\program files (x86)\microsoft visual studio 10.0\vc\include\utility
xdata$x	SEGMENT
__unwindtable$??$construct@AAUAttackRate@@@?$allocator@UAttackRate@@@std@@QAEXPAUAttackRate@@AAU2@@Z DD 0ffffffffH
	DD	FLAT:__unwindfunclet$??$construct@AAUAttackRate@@@?$allocator@UAttackRate@@@std@@QAEXPAUAttackRate@@AAU2@@Z$0
__ehfuncinfo$??$construct@AAUAttackRate@@@?$allocator@UAttackRate@@@std@@QAEXPAUAttackRate@@AAU2@@Z DD 019930522H
	DD	01H
	DD	FLAT:__unwindtable$??$construct@AAUAttackRate@@@?$allocator@UAttackRate@@@std@@QAEXPAUAttackRate@@AAU2@@Z
	DD	2 DUP(00H)
	DD	2 DUP(00H)
	DD	00H
	DD	01H
; Function compile flags: /Ogsp
; File c:\program files (x86)\microsoft visual studio 10.0\vc\include\xmemory
xdata$x	ENDS
;	COMDAT ??$construct@AAUAttackRate@@@?$allocator@UAttackRate@@@std@@QAEXPAUAttackRate@@AAU2@@Z
_TEXT	SEGMENT
$T526562 = -16						; size = 4
__$EHRec$ = -12						; size = 12
__Ptr$ = 8						; size = 4
__Val$ = 12						; size = 4
??$construct@AAUAttackRate@@@?$allocator@UAttackRate@@@std@@QAEXPAUAttackRate@@AAU2@@Z PROC ; std::allocator<AttackRate>::construct<AttackRate &>, COMDAT
; _this$ = ecx

; 206  : 		void construct(pointer _Ptr, _Other&& _Val)

  00000	6a 04		 push	 4
  00002	b8 00 00 00 00	 mov	 eax, __ehhandler$??$construct@AAUAttackRate@@@?$allocator@UAttackRate@@@std@@QAEXPAUAttackRate@@AAU2@@Z
  00007	e8 00 00 00 00	 call	 __EH_prolog3

; 207  : 		{	// construct object at _Ptr with value _Val
; 208  : 		::new ((void _FARQ *)_Ptr) _Ty(_STD forward<_Other>(_Val));

  0000c	8b 4d 08	 mov	 ecx, DWORD PTR __Ptr$[ebp]
  0000f	89 4d f0	 mov	 DWORD PTR $T526562[ebp], ecx
  00012	83 65 fc 00	 and	 DWORD PTR __$EHRec$[ebp+8], 0
  00016	85 c9		 test	 ecx, ecx
  00018	74 08		 je	 SHORT $LN3@construct
  0001a	ff 75 0c	 push	 DWORD PTR __Val$[ebp]
  0001d	e8 00 00 00 00	 call	 ??0AttackRate@@QAE@ABU0@@Z
$LN3@construct:

; 209  : 		}

  00022	e8 00 00 00 00	 call	 __EH_epilog3
  00027	c2 08 00	 ret	 8
_TEXT	ENDS
;	COMDAT text$x
text$x	SEGMENT
__unwindfunclet$??$construct@AAUAttackRate@@@?$allocator@UAttackRate@@@std@@QAEXPAUAttackRate@@AAU2@@Z$0:
  00000	ff 75 08	 push	 DWORD PTR __Ptr$[ebp]
  00003	ff 75 f0	 push	 DWORD PTR $T526562[ebp]
  00006	e8 00 00 00 00	 call	 ??3@YAXPAX0@Z		; operator delete
  0000b	59		 pop	 ecx
  0000c	59		 pop	 ecx
  0000d	c3		 ret	 0
__ehhandler$??$construct@AAUAttackRate@@@?$allocator@UAttackRate@@@std@@QAEXPAUAttackRate@@AAU2@@Z:
  0000e	8b 54 24 08	 mov	 edx, DWORD PTR [esp+8]
  00012	8d 42 0c	 lea	 eax, DWORD PTR [edx+12]
  00015	8b 4a ec	 mov	 ecx, DWORD PTR [edx-20]
  00018	33 c8		 xor	 ecx, eax
  0001a	e8 00 00 00 00	 call	 @__security_check_cookie@4
  0001f	b8 00 00 00 00	 mov	 eax, OFFSET __ehfuncinfo$??$construct@AAUAttackRate@@@?$allocator@UAttackRate@@@std@@QAEXPAUAttackRate@@AAU2@@Z
  00024	e9 00 00 00 00	 jmp	 ___CxxFrameHandler3
text$x	ENDS
??$construct@AAUAttackRate@@@?$allocator@UAttackRate@@@std@@QAEXPAUAttackRate@@AAU2@@Z ENDP ; std::allocator<AttackRate>::construct<AttackRate &>
PUBLIC	??$_Move@PAUAttackRate@@PAU1@@std@@YAPAUAttackRate@@PAU1@00U_Nonscalar_ptr_iterator_tag@0@@Z ; std::_Move<AttackRate *,AttackRate *>
; Function compile flags: /Ogsp
; File c:\program files (x86)\microsoft visual studio 10.0\vc\include\xutility
;	COMDAT ??$_Move@PAUAttackRate@@PAU1@@std@@YAPAUAttackRate@@PAU1@00U_Nonscalar_ptr_iterator_tag@0@@Z
_TEXT	SEGMENT
__First$ = 8						; size = 4
__Last$ = 12						; size = 4
__Dest$ = 16						; size = 4
___formal$ = 20						; size = 1
??$_Move@PAUAttackRate@@PAU1@@std@@YAPAUAttackRate@@PAU1@00U_Nonscalar_ptr_iterator_tag@0@@Z PROC ; std::_Move<AttackRate *,AttackRate *>, COMDAT

; 2512 : 	{	// move [_First, _Last) to [_Dest, ...), arbitrary iterators

  00000	55		 push	 ebp
  00001	8b ec		 mov	 ebp, esp
  00003	56		 push	 esi

; 2513 : 	for (; _First != _Last; ++_Dest, ++_First)

  00004	8b 75 08	 mov	 esi, DWORD PTR __First$[ebp]
  00007	eb 10		 jmp	 SHORT $LN11@Move
$LL3@Move:

; 2514 : 		*_Dest = _STD move(*_First);

  00009	8b 4d 10	 mov	 ecx, DWORD PTR __Dest$[ebp]
  0000c	56		 push	 esi
  0000d	e8 00 00 00 00	 call	 ??4AttackRate@@QAEAAU0@ABU0@@Z
  00012	83 45 10 1c	 add	 DWORD PTR __Dest$[ebp], 28 ; 0000001cH
  00016	83 c6 1c	 add	 esi, 28			; 0000001cH
$LN11@Move:

; 2513 : 	for (; _First != _Last; ++_Dest, ++_First)

  00019	3b 75 0c	 cmp	 esi, DWORD PTR __Last$[ebp]
  0001c	75 eb		 jne	 SHORT $LL3@Move

; 2515 : 	return (_Dest);

  0001e	8b 45 10	 mov	 eax, DWORD PTR __Dest$[ebp]
  00021	5e		 pop	 esi

; 2516 : 	}

  00022	5d		 pop	 ebp
  00023	c3		 ret	 0
??$_Move@PAUAttackRate@@PAU1@@std@@YAPAUAttackRate@@PAU1@00U_Nonscalar_ptr_iterator_tag@0@@Z ENDP ; std::_Move<AttackRate *,AttackRate *>
_TEXT	ENDS
PUBLIC	??$_Construct@UAttackRate@@ABU1@@std@@YAXPAUAttackRate@@ABU1@@Z ; std::_Construct<AttackRate,AttackRate const &>
;	COMDAT xdata$x
; File c:\program files (x86)\microsoft visual studio 10.0\vc\include\utility
xdata$x	SEGMENT
__unwindtable$??$_Construct@UAttackRate@@ABU1@@std@@YAXPAUAttackRate@@ABU1@@Z DD 0ffffffffH
	DD	FLAT:__unwindfunclet$??$_Construct@UAttackRate@@ABU1@@std@@YAXPAUAttackRate@@ABU1@@Z$0
__ehfuncinfo$??$_Construct@UAttackRate@@ABU1@@std@@YAXPAUAttackRate@@ABU1@@Z DD 019930522H
	DD	01H
	DD	FLAT:__unwindtable$??$_Construct@UAttackRate@@ABU1@@std@@YAXPAUAttackRate@@ABU1@@Z
	DD	2 DUP(00H)
	DD	2 DUP(00H)
	DD	00H
	DD	01H
; Function compile flags: /Ogsp
; File c:\program files (x86)\microsoft visual studio 10.0\vc\include\xmemory
xdata$x	ENDS
;	COMDAT ??$_Construct@UAttackRate@@ABU1@@std@@YAXPAUAttackRate@@ABU1@@Z
_TEXT	SEGMENT
$T526595 = -16						; size = 4
__$EHRec$ = -12						; size = 12
__Vptr$ = 8						; size = 4
__Ptr$ = 8						; size = 4
__Val$ = 12						; size = 4
??$_Construct@UAttackRate@@ABU1@@std@@YAXPAUAttackRate@@ABU1@@Z PROC ; std::_Construct<AttackRate,AttackRate const &>, COMDAT

; 46   : 	{	// construct object at _Ptr with value _Val

  00000	6a 04		 push	 4
  00002	b8 00 00 00 00	 mov	 eax, __ehhandler$??$_Construct@UAttackRate@@ABU1@@std@@YAXPAUAttackRate@@ABU1@@Z
  00007	e8 00 00 00 00	 call	 __EH_prolog3

; 47   : 	void _FARQ *_Vptr = _Ptr;

  0000c	8b 4d 08	 mov	 ecx, DWORD PTR __Ptr$[ebp]
  0000f	89 4d 08	 mov	 DWORD PTR __Vptr$[ebp], ecx

; 48   : 	::new (_Vptr) _Ty1(_STD forward<_Ty2>(_Val));

  00012	89 4d f0	 mov	 DWORD PTR $T526595[ebp], ecx
  00015	83 65 fc 00	 and	 DWORD PTR __$EHRec$[ebp+8], 0
  00019	85 c9		 test	 ecx, ecx
  0001b	74 08		 je	 SHORT $LN3@Construct
  0001d	ff 75 0c	 push	 DWORD PTR __Val$[ebp]
  00020	e8 00 00 00 00	 call	 ??0AttackRate@@QAE@ABU0@@Z
$LN3@Construct:

; 49   : 	}

  00025	e8 00 00 00 00	 call	 __EH_epilog3
  0002a	c3		 ret	 0
_TEXT	ENDS
;	COMDAT text$x
text$x	SEGMENT
__unwindfunclet$??$_Construct@UAttackRate@@ABU1@@std@@YAXPAUAttackRate@@ABU1@@Z$0:
  00000	ff 75 08	 push	 DWORD PTR __Vptr$[ebp]
  00003	ff 75 f0	 push	 DWORD PTR $T526595[ebp]
  00006	e8 00 00 00 00	 call	 ??3@YAXPAX0@Z		; operator delete
  0000b	59		 pop	 ecx
  0000c	59		 pop	 ecx
  0000d	c3		 ret	 0
__ehhandler$??$_Construct@UAttackRate@@ABU1@@std@@YAXPAUAttackRate@@ABU1@@Z:
  0000e	8b 54 24 08	 mov	 edx, DWORD PTR [esp+8]
  00012	8d 42 0c	 lea	 eax, DWORD PTR [edx+12]
  00015	8b 4a ec	 mov	 ecx, DWORD PTR [edx-20]
  00018	33 c8		 xor	 ecx, eax
  0001a	e8 00 00 00 00	 call	 @__security_check_cookie@4
  0001f	b8 00 00 00 00	 mov	 eax, OFFSET __ehfuncinfo$??$_Construct@UAttackRate@@ABU1@@std@@YAXPAUAttackRate@@ABU1@@Z
  00024	e9 00 00 00 00	 jmp	 ___CxxFrameHandler3
text$x	ENDS
??$_Construct@UAttackRate@@ABU1@@std@@YAXPAUAttackRate@@ABU1@@Z ENDP ; std::_Construct<AttackRate,AttackRate const &>
PUBLIC	??$_Destroy@UAttackRate@@@std@@YAXPAUAttackRate@@@Z ; std::_Destroy<AttackRate>
; Function compile flags: /Ogsp
;	COMDAT ??$_Destroy@UAttackRate@@@std@@YAXPAUAttackRate@@@Z
_TEXT	SEGMENT
__Ptr$ = 8						; size = 4
??$_Destroy@UAttackRate@@@std@@YAXPAUAttackRate@@@Z PROC ; std::_Destroy<AttackRate>, COMDAT

; 62   : 	{	// destroy object at _Ptr

  00000	55		 push	 ebp
  00001	8b ec		 mov	 ebp, esp

; 63   : 	_Ptr->~_Ty();

  00003	8b 4d 08	 mov	 ecx, DWORD PTR __Ptr$[ebp]
  00006	83 c1 0c	 add	 ecx, 12			; 0000000cH

; 64   : 	}

  00009	5d		 pop	 ebp

; 63   : 	_Ptr->~_Ty();

  0000a	ff 25 00 00 00
	00		 jmp	 DWORD PTR __imp_??1ioHashString@@QAE@XZ
??$_Destroy@UAttackRate@@@std@@YAXPAUAttackRate@@@Z ENDP ; std::_Destroy<AttackRate>
_TEXT	ENDS
PUBLIC	?construct@?$allocator@UAttackRate@@@std@@QAEXPAUAttackRate@@$$QAU3@@Z ; std::allocator<AttackRate>::construct
;	COMDAT xdata$x
; File c:\program files (x86)\microsoft visual studio 10.0\vc\include\utility
xdata$x	SEGMENT
__unwindtable$?construct@?$allocator@UAttackRate@@@std@@QAEXPAUAttackRate@@$$QAU3@@Z DD 0ffffffffH
	DD	FLAT:__unwindfunclet$?construct@?$allocator@UAttackRate@@@std@@QAEXPAUAttackRate@@$$QAU3@@Z$0
__ehfuncinfo$?construct@?$allocator@UAttackRate@@@std@@QAEXPAUAttackRate@@$$QAU3@@Z DD 019930522H
	DD	01H
	DD	FLAT:__unwindtable$?construct@?$allocator@UAttackRate@@@std@@QAEXPAUAttackRate@@$$QAU3@@Z
	DD	2 DUP(00H)
	DD	2 DUP(00H)
	DD	00H
	DD	01H
; Function compile flags: /Ogsp
; File c:\program files (x86)\microsoft visual studio 10.0\vc\include\xmemory
xdata$x	ENDS
;	COMDAT ?construct@?$allocator@UAttackRate@@@std@@QAEXPAUAttackRate@@$$QAU3@@Z
_TEXT	SEGMENT
$T526627 = -16						; size = 4
__$EHRec$ = -12						; size = 12
__Ptr$ = 8						; size = 4
__Val$ = 12						; size = 4
?construct@?$allocator@UAttackRate@@@std@@QAEXPAUAttackRate@@$$QAU3@@Z PROC ; std::allocator<AttackRate>::construct, COMDAT
; _this$ = ecx

; 201  : 		{	// construct object at _Ptr with value _Val

  00000	6a 04		 push	 4
  00002	b8 00 00 00 00	 mov	 eax, __ehhandler$?construct@?$allocator@UAttackRate@@@std@@QAEXPAUAttackRate@@$$QAU3@@Z
  00007	e8 00 00 00 00	 call	 __EH_prolog3

; 202  : 		::new ((void _FARQ *)_Ptr) _Ty(_STD forward<_Ty>(_Val));

  0000c	8b 4d 08	 mov	 ecx, DWORD PTR __Ptr$[ebp]
  0000f	89 4d f0	 mov	 DWORD PTR $T526627[ebp], ecx
  00012	83 65 fc 00	 and	 DWORD PTR __$EHRec$[ebp+8], 0
  00016	85 c9		 test	 ecx, ecx
  00018	74 08		 je	 SHORT $LN3@construct@2
  0001a	ff 75 0c	 push	 DWORD PTR __Val$[ebp]
  0001d	e8 00 00 00 00	 call	 ??0AttackRate@@QAE@ABU0@@Z
$LN3@construct@2:

; 203  : 		}

  00022	e8 00 00 00 00	 call	 __EH_epilog3
  00027	c2 08 00	 ret	 8
_TEXT	ENDS
;	COMDAT text$x
text$x	SEGMENT
__unwindfunclet$?construct@?$allocator@UAttackRate@@@std@@QAEXPAUAttackRate@@$$QAU3@@Z$0:
  00000	ff 75 08	 push	 DWORD PTR __Ptr$[ebp]
  00003	ff 75 f0	 push	 DWORD PTR $T526627[ebp]
  00006	e8 00 00 00 00	 call	 ??3@YAXPAX0@Z		; operator delete
  0000b	59		 pop	 ecx
  0000c	59		 pop	 ecx
  0000d	c3		 ret	 0
__ehhandler$?construct@?$allocator@UAttackRate@@@std@@QAEXPAUAttackRate@@$$QAU3@@Z:
  0000e	8b 54 24 08	 mov	 edx, DWORD PTR [esp+8]
  00012	8d 42 0c	 lea	 eax, DWORD PTR [edx+12]
  00015	8b 4a ec	 mov	 ecx, DWORD PTR [edx-20]
  00018	33 c8		 xor	 ecx, eax
  0001a	e8 00 00 00 00	 call	 @__security_check_cookie@4
  0001f	b8 00 00 00 00	 mov	 eax, OFFSET __ehfuncinfo$?construct@?$allocator@UAttackRate@@@std@@QAEXPAUAttackRate@@$$QAU3@@Z
  00024	e9 00 00 00 00	 jmp	 ___CxxFrameHandler3
text$x	ENDS
?construct@?$allocator@UAttackRate@@@std@@QAEXPAUAttackRate@@$$QAU3@@Z ENDP ; std::allocator<AttackRate>::construct
PUBLIC	??0?$vector@UAttackRate@@V?$allocator@UAttackRate@@@std@@@std@@QAE@XZ ; std::vector<AttackRate,std::allocator<AttackRate> >::vector<AttackRate,std::allocator<AttackRate> >
; Function compile flags: /Ogsp
; File c:\program files (x86)\microsoft visual studio 10.0\vc\include\vector
;	COMDAT ??0?$vector@UAttackRate@@V?$allocator@UAttackRate@@@std@@@std@@QAE@XZ
_TEXT	SEGMENT
??0?$vector@UAttackRate@@V?$allocator@UAttackRate@@@std@@@std@@QAE@XZ PROC ; std::vector<AttackRate,std::allocator<AttackRate> >::vector<AttackRate,std::allocator<AttackRate> >, COMDAT
; _this$ = ecx

; 507  : 		{	// construct empty vector

  00000	8b c1		 mov	 eax, ecx
  00002	33 c9		 xor	 ecx, ecx
  00004	89 08		 mov	 DWORD PTR [eax], ecx
  00006	89 48 04	 mov	 DWORD PTR [eax+4], ecx
  00009	89 48 08	 mov	 DWORD PTR [eax+8], ecx

; 508  : 		}

  0000c	c3		 ret	 0
??0?$vector@UAttackRate@@V?$allocator@UAttackRate@@@std@@@std@@QAE@XZ ENDP ; std::vector<AttackRate,std::allocator<AttackRate> >::vector<AttackRate,std::allocator<AttackRate> >
_TEXT	ENDS
PUBLIC	?begin@?$vector@UAttackRate@@V?$allocator@UAttackRate@@@std@@@std@@QAE?AV?$_Vector_iterator@V?$_Vector_val@UAttackRate@@V?$allocator@UAttackRate@@@std@@@std@@@2@XZ ; std::vector<AttackRate,std::allocator<AttackRate> >::begin
; Function compile flags: /Ogsp
;	COMDAT ?begin@?$vector@UAttackRate@@V?$allocator@UAttackRate@@@std@@@std@@QAE?AV?$_Vector_iterator@V?$_Vector_val@UAttackRate@@V?$allocator@UAttackRate@@@std@@@std@@@2@XZ
_TEXT	SEGMENT
___$ReturnUdt$ = 8					; size = 4
?begin@?$vector@UAttackRate@@V?$allocator@UAttackRate@@@std@@@std@@QAE?AV?$_Vector_iterator@V?$_Vector_val@UAttackRate@@V?$allocator@UAttackRate@@@std@@@std@@@2@XZ PROC ; std::vector<AttackRate,std::allocator<AttackRate> >::begin, COMDAT
; _this$ = ecx

; 781  : 		{	// return iterator for beginning of mutable sequence

  00000	55		 push	 ebp
  00001	8b ec		 mov	 ebp, esp

; 782  : 		return (iterator(this->_Myfirst, this));

  00003	8b 09		 mov	 ecx, DWORD PTR [ecx]
  00005	8b 45 08	 mov	 eax, DWORD PTR ___$ReturnUdt$[ebp]
  00008	89 08		 mov	 DWORD PTR [eax], ecx

; 783  : 		}

  0000a	5d		 pop	 ebp
  0000b	c2 04 00	 ret	 4
?begin@?$vector@UAttackRate@@V?$allocator@UAttackRate@@@std@@@std@@QAE?AV?$_Vector_iterator@V?$_Vector_val@UAttackRate@@V?$allocator@UAttackRate@@@std@@@std@@@2@XZ ENDP ; std::vector<AttackRate,std::allocator<AttackRate> >::begin
_TEXT	ENDS
PUBLIC	?end@?$vector@UAttackRate@@V?$allocator@UAttackRate@@@std@@@std@@QAE?AV?$_Vector_iterator@V?$_Vector_val@UAttackRate@@V?$allocator@UAttackRate@@@std@@@std@@@2@XZ ; std::vector<AttackRate,std::allocator<AttackRate> >::end
; Function compile flags: /Ogsp
;	COMDAT ?end@?$vector@UAttackRate@@V?$allocator@UAttackRate@@@std@@@std@@QAE?AV?$_Vector_iterator@V?$_Vector_val@UAttackRate@@V?$allocator@UAttackRate@@@std@@@std@@@2@XZ
_TEXT	SEGMENT
___$ReturnUdt$ = 8					; size = 4
?end@?$vector@UAttackRate@@V?$allocator@UAttackRate@@@std@@@std@@QAE?AV?$_Vector_iterator@V?$_Vector_val@UAttackRate@@V?$allocator@UAttackRate@@@std@@@std@@@2@XZ PROC ; std::vector<AttackRate,std::allocator<AttackRate> >::end, COMDAT
; _this$ = ecx

; 791  : 		{	// return iterator for end of mutable sequence

  00000	55		 push	 ebp
  00001	8b ec		 mov	 ebp, esp

; 792  : 		return (iterator(this->_Mylast, this));

  00003	8b 49 04	 mov	 ecx, DWORD PTR [ecx+4]
  00006	8b 45 08	 mov	 eax, DWORD PTR ___$ReturnUdt$[ebp]
  00009	89 08		 mov	 DWORD PTR [eax], ecx

; 793  : 		}

  0000b	5d		 pop	 ebp
  0000c	c2 04 00	 ret	 4
?end@?$vector@UAttackRate@@V?$allocator@UAttackRate@@@std@@@std@@QAE?AV?$_Vector_iterator@V?$_Vector_val@UAttackRate@@V?$allocator@UAttackRate@@@std@@@std@@@2@XZ ENDP ; std::vector<AttackRate,std::allocator<AttackRate> >::end
_TEXT	ENDS
PUBLIC	??9?$_Vector_const_iterator@V?$_Vector_val@UAttackRate@@V?$allocator@UAttackRate@@@std@@@std@@@std@@QBE_NABV01@@Z ; std::_Vector_const_iterator<std::_Vector_val<AttackRate,std::allocator<AttackRate> > >::operator!=
; Function compile flags: /Ogsp
;	COMDAT ??9?$_Vector_const_iterator@V?$_Vector_val@UAttackRate@@V?$allocator@UAttackRate@@@std@@@std@@@std@@QBE_NABV01@@Z
_TEXT	SEGMENT
__Right$ = 8						; size = 4
??9?$_Vector_const_iterator@V?$_Vector_val@UAttackRate@@V?$allocator@UAttackRate@@@std@@@std@@@std@@QBE_NABV01@@Z PROC ; std::_Vector_const_iterator<std::_Vector_val<AttackRate,std::allocator<AttackRate> > >::operator!=, COMDAT
; _this$ = ecx

; 207  : 		{	// test for iterator inequality

  00000	55		 push	 ebp
  00001	8b ec		 mov	 ebp, esp

; 208  : 		return (!(*this == _Right));

  00003	8b 01		 mov	 eax, DWORD PTR [ecx]
  00005	8b 55 08	 mov	 edx, DWORD PTR __Right$[ebp]
  00008	33 c9		 xor	 ecx, ecx
  0000a	3b 02		 cmp	 eax, DWORD PTR [edx]
  0000c	0f 95 c0	 setne	 al

; 209  : 		}

  0000f	5d		 pop	 ebp
  00010	c2 04 00	 ret	 4
??9?$_Vector_const_iterator@V?$_Vector_val@UAttackRate@@V?$allocator@UAttackRate@@@std@@@std@@@std@@QBE_NABV01@@Z ENDP ; std::_Vector_const_iterator<std::_Vector_val<AttackRate,std::allocator<AttackRate> > >::operator!=
_TEXT	ENDS
PUBLIC	?_Buy@?$vector@UAttackRate@@V?$allocator@UAttackRate@@@std@@@std@@IAE_NI@Z ; std::vector<AttackRate,std::allocator<AttackRate> >::_Buy
; Function compile flags: /Ogsp
;	COMDAT ?_Buy@?$vector@UAttackRate@@V?$allocator@UAttackRate@@@std@@@std@@IAE_NI@Z
_TEXT	SEGMENT
__Capacity$ = 8						; size = 4
?_Buy@?$vector@UAttackRate@@V?$allocator@UAttackRate@@@std@@@std@@IAE_NI@Z PROC ; std::vector<AttackRate,std::allocator<AttackRate> >::_Buy, COMDAT
; _this$ = ecx

; 1250 : 		{	// allocate array with _Capacity elements

  00000	55		 push	 ebp
  00001	8b ec		 mov	 ebp, esp
  00003	56		 push	 esi

; 1251 : 		this->_Myfirst = 0;

  00004	33 c0		 xor	 eax, eax
  00006	57		 push	 edi

; 1252 : 		this->_Mylast = 0;
; 1253 : 		this->_Myend = 0;
; 1254 : 
; 1255 : 		if (_Capacity == 0)

  00007	8b 7d 08	 mov	 edi, DWORD PTR __Capacity$[ebp]
  0000a	8b f1		 mov	 esi, ecx
  0000c	89 06		 mov	 DWORD PTR [esi], eax
  0000e	89 46 04	 mov	 DWORD PTR [esi+4], eax
  00011	89 46 08	 mov	 DWORD PTR [esi+8], eax
  00014	3b f8		 cmp	 edi, eax
  00016	75 04		 jne	 SHORT $LN4@Buy

; 1256 : 			return (false);

  00018	32 c0		 xor	 al, al
  0001a	eb 2b		 jmp	 SHORT $LN5@Buy
$LN4@Buy:

; 1257 : 		else if (max_size() < _Capacity)

  0001c	81 ff 49 92 24
	09		 cmp	 edi, 153391689		; 09249249H
  00022	76 0b		 jbe	 SHORT $LN2@Buy

; 1258 : 			_Xlen();	// result too long

  00024	68 00 00 00 00	 push	 OFFSET ??_C@_0BD@OLBABOEK@vector?$DMT?$DO?5too?5long?$AA@
  00029	ff 15 00 00 00
	00		 call	 DWORD PTR __imp_?_Xlength_error@std@@YAXPBD@Z
$LN19@Buy:
$LN2@Buy:

; 1259 : 		else
; 1260 : 			{	// nonempty array, allocate storage
; 1261 : 			this->_Myfirst = this->_Alval.allocate(_Capacity);

  0002f	50		 push	 eax
  00030	57		 push	 edi
  00031	e8 00 00 00 00	 call	 ??$_Allocate@UAttackRate@@@std@@YAPAUAttackRate@@IPAU1@@Z ; std::_Allocate<AttackRate>

; 1262 : 			this->_Mylast = this->_Myfirst;
; 1263 : 			this->_Myend = this->_Myfirst + _Capacity;

  00036	6b ff 1c	 imul	 edi, 28			; 0000001cH
  00039	03 f8		 add	 edi, eax
  0003b	59		 pop	 ecx
  0003c	89 06		 mov	 DWORD PTR [esi], eax
  0003e	89 46 04	 mov	 DWORD PTR [esi+4], eax
  00041	59		 pop	 ecx
  00042	89 7e 08	 mov	 DWORD PTR [esi+8], edi

; 1264 : 			}
; 1265 : 		return (true);

  00045	b0 01		 mov	 al, 1
$LN5@Buy:
  00047	5f		 pop	 edi
  00048	5e		 pop	 esi

; 1266 : 		}

  00049	5d		 pop	 ebp
  0004a	c2 04 00	 ret	 4
$LN18@Buy:
?_Buy@?$vector@UAttackRate@@V?$allocator@UAttackRate@@@std@@@std@@IAE_NI@Z ENDP ; std::vector<AttackRate,std::allocator<AttackRate> >::_Buy
_TEXT	ENDS
PUBLIC	??$_Cons_val@V?$allocator@UAttackRate@@@std@@UAttackRate@@AAU3@@std@@YAXAAV?$allocator@UAttackRate@@@0@PAUAttackRate@@AAU2@@Z ; std::_Cons_val<std::allocator<AttackRate>,AttackRate,AttackRate &>
;	COMDAT xdata$x
; File c:\program files (x86)\microsoft visual studio 10.0\vc\include\utility
xdata$x	SEGMENT
__unwindtable$??$_Cons_val@V?$allocator@UAttackRate@@@std@@UAttackRate@@AAU3@@std@@YAXAAV?$allocator@UAttackRate@@@0@PAUAttackRate@@AAU2@@Z DD 0ffffffffH
	DD	FLAT:__unwindfunclet$??$_Cons_val@V?$allocator@UAttackRate@@@std@@UAttackRate@@AAU3@@std@@YAXAAV?$allocator@UAttackRate@@@0@PAUAttackRate@@AAU2@@Z$0
__ehfuncinfo$??$_Cons_val@V?$allocator@UAttackRate@@@std@@UAttackRate@@AAU3@@std@@YAXAAV?$allocator@UAttackRate@@@0@PAUAttackRate@@AAU2@@Z DD 019930522H
	DD	01H
	DD	FLAT:__unwindtable$??$_Cons_val@V?$allocator@UAttackRate@@@std@@UAttackRate@@AAU3@@std@@YAXAAV?$allocator@UAttackRate@@@0@PAUAttackRate@@AAU2@@Z
	DD	2 DUP(00H)
	DD	2 DUP(00H)
	DD	00H
	DD	01H
; Function compile flags: /Ogsp
; File c:\program files (x86)\microsoft visual studio 10.0\vc\include\xmemory
xdata$x	ENDS
;	COMDAT ??$_Cons_val@V?$allocator@UAttackRate@@@std@@UAttackRate@@AAU3@@std@@YAXAAV?$allocator@UAttackRate@@@0@PAUAttackRate@@AAU2@@Z
_TEXT	SEGMENT
$T526753 = -16						; size = 4
__$EHRec$ = -12						; size = 12
__Alval$ = 8						; size = 4
__Pdest$ = 12						; size = 4
__Src$ = 16						; size = 4
??$_Cons_val@V?$allocator@UAttackRate@@@std@@UAttackRate@@AAU3@@std@@YAXAAV?$allocator@UAttackRate@@@0@PAUAttackRate@@AAU2@@Z PROC ; std::_Cons_val<std::allocator<AttackRate>,AttackRate,AttackRate &>, COMDAT

; 279  : 	{	// construct using allocator

  00000	6a 04		 push	 4
  00002	b8 00 00 00 00	 mov	 eax, __ehhandler$??$_Cons_val@V?$allocator@UAttackRate@@@std@@UAttackRate@@AAU3@@std@@YAXAAV?$allocator@UAttackRate@@@0@PAUAttackRate@@AAU2@@Z
  00007	e8 00 00 00 00	 call	 __EH_prolog3

; 280  : 	_Alval.construct(_Pdest, _STD forward<_Ty2>(_Src));

  0000c	8b 4d 0c	 mov	 ecx, DWORD PTR __Pdest$[ebp]
  0000f	89 4d f0	 mov	 DWORD PTR $T526753[ebp], ecx
  00012	83 65 fc 00	 and	 DWORD PTR __$EHRec$[ebp+8], 0
  00016	85 c9		 test	 ecx, ecx
  00018	74 08		 je	 SHORT $LN7@Cons_val
  0001a	ff 75 10	 push	 DWORD PTR __Src$[ebp]
  0001d	e8 00 00 00 00	 call	 ??0AttackRate@@QAE@ABU0@@Z
$LN7@Cons_val:

; 281  : 	}

  00022	e8 00 00 00 00	 call	 __EH_epilog3
  00027	c3		 ret	 0
_TEXT	ENDS
;	COMDAT text$x
text$x	SEGMENT
__unwindfunclet$??$_Cons_val@V?$allocator@UAttackRate@@@std@@UAttackRate@@AAU3@@std@@YAXAAV?$allocator@UAttackRate@@@0@PAUAttackRate@@AAU2@@Z$0:
  00000	ff 75 0c	 push	 DWORD PTR __Pdest$[ebp]
  00003	ff 75 f0	 push	 DWORD PTR $T526753[ebp]
  00006	e8 00 00 00 00	 call	 ??3@YAXPAX0@Z		; operator delete
  0000b	59		 pop	 ecx
  0000c	59		 pop	 ecx
  0000d	c3		 ret	 0
__ehhandler$??$_Cons_val@V?$allocator@UAttackRate@@@std@@UAttackRate@@AAU3@@std@@YAXAAV?$allocator@UAttackRate@@@0@PAUAttackRate@@AAU2@@Z:
  0000e	8b 54 24 08	 mov	 edx, DWORD PTR [esp+8]
  00012	8d 42 0c	 lea	 eax, DWORD PTR [edx+12]
  00015	8b 4a ec	 mov	 ecx, DWORD PTR [edx-20]
  00018	33 c8		 xor	 ecx, eax
  0001a	e8 00 00 00 00	 call	 @__security_check_cookie@4
  0001f	b8 00 00 00 00	 mov	 eax, OFFSET __ehfuncinfo$??$_Cons_val@V?$allocator@UAttackRate@@@std@@UAttackRate@@AAU3@@std@@YAXAAV?$allocator@UAttackRate@@@0@PAUAttackRate@@AAU2@@Z
  00024	e9 00 00 00 00	 jmp	 ___CxxFrameHandler3
text$x	ENDS
??$_Cons_val@V?$allocator@UAttackRate@@@std@@UAttackRate@@AAU3@@std@@YAXAAV?$allocator@UAttackRate@@@0@PAUAttackRate@@AAU2@@Z ENDP ; std::_Cons_val<std::allocator<AttackRate>,AttackRate,AttackRate &>
PUBLIC	??$_Move@PAUAttackRate@@PAU1@@std@@YAPAUAttackRate@@PAU1@00@Z ; std::_Move<AttackRate *,AttackRate *>
; Function compile flags: /Ogsp
; File c:\program files (x86)\microsoft visual studio 10.0\vc\include\xutility
;	COMDAT ??$_Move@PAUAttackRate@@PAU1@@std@@YAPAUAttackRate@@PAU1@00@Z
_TEXT	SEGMENT
__Cat$526771 = -4					; size = 1
__First$ = 8						; size = 4
__Last$ = 12						; size = 4
__Dest$ = 16						; size = 4
??$_Move@PAUAttackRate@@PAU1@@std@@YAPAUAttackRate@@PAU1@00@Z PROC ; std::_Move<AttackRate *,AttackRate *>, COMDAT

; 2533 : 	{	// move [_First, _Last) to [_Dest, ...), unchecked

  00000	55		 push	 ebp
  00001	8b ec		 mov	 ebp, esp
  00003	51		 push	 ecx

; 2534 : 	return (_Move(_First, _Last,
; 2535 : 		_Dest, _Ptr_cat(_First, _Dest)));

  00004	ff 75 fc	 push	 DWORD PTR __Cat$526771[ebp]
  00007	ff 75 10	 push	 DWORD PTR __Dest$[ebp]
  0000a	ff 75 0c	 push	 DWORD PTR __Last$[ebp]
  0000d	ff 75 08	 push	 DWORD PTR __First$[ebp]
  00010	e8 00 00 00 00	 call	 ??$_Move@PAUAttackRate@@PAU1@@std@@YAPAUAttackRate@@PAU1@00U_Nonscalar_ptr_iterator_tag@0@@Z ; std::_Move<AttackRate *,AttackRate *>
  00015	83 c4 10	 add	 esp, 16			; 00000010H

; 2536 : 	}

  00018	c9		 leave
  00019	c3		 ret	 0
??$_Move@PAUAttackRate@@PAU1@@std@@YAPAUAttackRate@@PAU1@00@Z ENDP ; std::_Move<AttackRate *,AttackRate *>
_TEXT	ENDS
PUBLIC	?construct@?$allocator@UAttackRate@@@std@@QAEXPAUAttackRate@@ABU3@@Z ; std::allocator<AttackRate>::construct
; Function compile flags: /Ogsp
; File c:\program files (x86)\microsoft visual studio 10.0\vc\include\xmemory
;	COMDAT ?construct@?$allocator@UAttackRate@@@std@@QAEXPAUAttackRate@@ABU3@@Z
_TEXT	SEGMENT
__Ptr$ = 8						; size = 4
__Val$ = 12						; size = 4
?construct@?$allocator@UAttackRate@@@std@@QAEXPAUAttackRate@@ABU3@@Z PROC ; std::allocator<AttackRate>::construct, COMDAT
; _this$ = ecx

; 196  : 		{	// construct object at _Ptr with value _Val

  00000	55		 push	 ebp
  00001	8b ec		 mov	 ebp, esp

; 197  : 		_Construct(_Ptr, _Val);

  00003	ff 75 0c	 push	 DWORD PTR __Val$[ebp]
  00006	ff 75 08	 push	 DWORD PTR __Ptr$[ebp]
  00009	e8 00 00 00 00	 call	 ??$_Construct@UAttackRate@@ABU1@@std@@YAXPAUAttackRate@@ABU1@@Z ; std::_Construct<AttackRate,AttackRate const &>
  0000e	59		 pop	 ecx
  0000f	59		 pop	 ecx

; 198  : 		}

  00010	5d		 pop	 ebp
  00011	c2 08 00	 ret	 8
?construct@?$allocator@UAttackRate@@@std@@QAEXPAUAttackRate@@ABU3@@Z ENDP ; std::allocator<AttackRate>::construct
_TEXT	ENDS
PUBLIC	?destroy@?$allocator@UAttackRate@@@std@@QAEXPAUAttackRate@@@Z ; std::allocator<AttackRate>::destroy
; Function compile flags: /Ogsp
;	COMDAT ?destroy@?$allocator@UAttackRate@@@std@@QAEXPAUAttackRate@@@Z
_TEXT	SEGMENT
__Ptr$ = 8						; size = 4
?destroy@?$allocator@UAttackRate@@@std@@QAEXPAUAttackRate@@@Z PROC ; std::allocator<AttackRate>::destroy, COMDAT
; _this$ = ecx

; 212  : 		{	// destroy object at _Ptr

  00000	55		 push	 ebp
  00001	8b ec		 mov	 ebp, esp

; 213  : 		_Destroy(_Ptr);

  00003	8b 4d 08	 mov	 ecx, DWORD PTR __Ptr$[ebp]
  00006	83 c1 0c	 add	 ecx, 12			; 0000000cH
  00009	ff 15 00 00 00
	00		 call	 DWORD PTR __imp_??1ioHashString@@QAE@XZ

; 214  : 		}

  0000f	5d		 pop	 ebp
  00010	c2 04 00	 ret	 4
?destroy@?$allocator@UAttackRate@@@std@@QAEXPAUAttackRate@@@Z ENDP ; std::allocator<AttackRate>::destroy
_TEXT	ENDS
PUBLIC	??$_Cons_val@V?$allocator@UAttackRate@@@std@@UAttackRate@@U3@@std@@YAXAAV?$allocator@UAttackRate@@@0@PAUAttackRate@@$$QAU2@@Z ; std::_Cons_val<std::allocator<AttackRate>,AttackRate,AttackRate>
;	COMDAT xdata$x
; File c:\program files (x86)\microsoft visual studio 10.0\vc\include\utility
xdata$x	SEGMENT
__unwindtable$??$_Cons_val@V?$allocator@UAttackRate@@@std@@UAttackRate@@U3@@std@@YAXAAV?$allocator@UAttackRate@@@0@PAUAttackRate@@$$QAU2@@Z DD 0ffffffffH
	DD	FLAT:__unwindfunclet$??$_Cons_val@V?$allocator@UAttackRate@@@std@@UAttackRate@@U3@@std@@YAXAAV?$allocator@UAttackRate@@@0@PAUAttackRate@@$$QAU2@@Z$0
__ehfuncinfo$??$_Cons_val@V?$allocator@UAttackRate@@@std@@UAttackRate@@U3@@std@@YAXAAV?$allocator@UAttackRate@@@0@PAUAttackRate@@$$QAU2@@Z DD 019930522H
	DD	01H
	DD	FLAT:__unwindtable$??$_Cons_val@V?$allocator@UAttackRate@@@std@@UAttackRate@@U3@@std@@YAXAAV?$allocator@UAttackRate@@@0@PAUAttackRate@@$$QAU2@@Z
	DD	2 DUP(00H)
	DD	2 DUP(00H)
	DD	00H
	DD	01H
; Function compile flags: /Ogsp
; File c:\program files (x86)\microsoft visual studio 10.0\vc\include\xmemory
xdata$x	ENDS
;	COMDAT ??$_Cons_val@V?$allocator@UAttackRate@@@std@@UAttackRate@@U3@@std@@YAXAAV?$allocator@UAttackRate@@@0@PAUAttackRate@@$$QAU2@@Z
_TEXT	SEGMENT
$T526814 = -16						; size = 4
__$EHRec$ = -12						; size = 12
__Alval$ = 8						; size = 4
__Pdest$ = 12						; size = 4
__Src$ = 16						; size = 4
??$_Cons_val@V?$allocator@UAttackRate@@@std@@UAttackRate@@U3@@std@@YAXAAV?$allocator@UAttackRate@@@0@PAUAttackRate@@$$QAU2@@Z PROC ; std::_Cons_val<std::allocator<AttackRate>,AttackRate,AttackRate>, COMDAT

; 279  : 	{	// construct using allocator

  00000	6a 04		 push	 4
  00002	b8 00 00 00 00	 mov	 eax, __ehhandler$??$_Cons_val@V?$allocator@UAttackRate@@@std@@UAttackRate@@U3@@std@@YAXAAV?$allocator@UAttackRate@@@0@PAUAttackRate@@$$QAU2@@Z
  00007	e8 00 00 00 00	 call	 __EH_prolog3

; 280  : 	_Alval.construct(_Pdest, _STD forward<_Ty2>(_Src));

  0000c	8b 4d 0c	 mov	 ecx, DWORD PTR __Pdest$[ebp]
  0000f	89 4d f0	 mov	 DWORD PTR $T526814[ebp], ecx
  00012	83 65 fc 00	 and	 DWORD PTR __$EHRec$[ebp+8], 0
  00016	85 c9		 test	 ecx, ecx
  00018	74 08		 je	 SHORT $LN7@Cons_val@2
  0001a	ff 75 10	 push	 DWORD PTR __Src$[ebp]
  0001d	e8 00 00 00 00	 call	 ??0AttackRate@@QAE@ABU0@@Z
$LN7@Cons_val@2:

; 281  : 	}

  00022	e8 00 00 00 00	 call	 __EH_epilog3
  00027	c3		 ret	 0
_TEXT	ENDS
;	COMDAT text$x
text$x	SEGMENT
__unwindfunclet$??$_Cons_val@V?$allocator@UAttackRate@@@std@@UAttackRate@@U3@@std@@YAXAAV?$allocator@UAttackRate@@@0@PAUAttackRate@@$$QAU2@@Z$0:
  00000	ff 75 0c	 push	 DWORD PTR __Pdest$[ebp]
  00003	ff 75 f0	 push	 DWORD PTR $T526814[ebp]
  00006	e8 00 00 00 00	 call	 ??3@YAXPAX0@Z		; operator delete
  0000b	59		 pop	 ecx
  0000c	59		 pop	 ecx
  0000d	c3		 ret	 0
__ehhandler$??$_Cons_val@V?$allocator@UAttackRate@@@std@@UAttackRate@@U3@@std@@YAXAAV?$allocator@UAttackRate@@@0@PAUAttackRate@@$$QAU2@@Z:
  0000e	8b 54 24 08	 mov	 edx, DWORD PTR [esp+8]
  00012	8d 42 0c	 lea	 eax, DWORD PTR [edx+12]
  00015	8b 4a ec	 mov	 ecx, DWORD PTR [edx-20]
  00018	33 c8		 xor	 ecx, eax
  0001a	e8 00 00 00 00	 call	 @__security_check_cookie@4
  0001f	b8 00 00 00 00	 mov	 eax, OFFSET __ehfuncinfo$??$_Cons_val@V?$allocator@UAttackRate@@@std@@UAttackRate@@U3@@std@@YAXAAV?$allocator@UAttackRate@@@0@PAUAttackRate@@$$QAU2@@Z
  00024	e9 00 00 00 00	 jmp	 ___CxxFrameHandler3
text$x	ENDS
??$_Cons_val@V?$allocator@UAttackRate@@@std@@UAttackRate@@U3@@std@@YAXAAV?$allocator@UAttackRate@@@0@PAUAttackRate@@$$QAU2@@Z ENDP ; std::_Cons_val<std::allocator<AttackRate>,AttackRate,AttackRate>
PUBLIC	?CheckDamageRate@ioDamageUpDownBuff@@IAEXXZ	; ioDamageUpDownBuff::CheckDamageRate
; Function compile flags: /Ogsp
; File d:\lost saga for developer\youtube\tutorial\source\src\lsclient\iodamageupdownbuff.cpp
;	COMDAT ?CheckDamageRate@ioDamageUpDownBuff@@IAEXXZ
_TEXT	SEGMENT
?CheckDamageRate@ioDamageUpDownBuff@@IAEXXZ PROC	; ioDamageUpDownBuff::CheckDamageRate, COMDAT
; _this$ = ecx

; 148  : 	AttackRateList::iterator iter = m_AttackRateList.begin();

  00000	8b 81 6c 09 00
	00		 mov	 eax, DWORD PTR [ecx+2412]
  00006	eb 23		 jmp	 SHORT $LN37@CheckDamag
$LL2@CheckDamag:

; 150  : 	{
; 151  : 		(*iter).fRate += m_fExtraDamageRate;

  00008	f3 0f 10 40 04	 movss	 xmm0, DWORD PTR [eax+4]
  0000d	f3 0f 10 89 84
	09 00 00	 movss	 xmm1, DWORD PTR [ecx+2436]
  00015	0f 5a c0	 cvtps2pd xmm0, xmm0
  00018	0f 5a c9	 cvtps2pd xmm1, xmm1
  0001b	f2 0f 58 c1	 addsd	 xmm0, xmm1
  0001f	66 0f 5a c0	 cvtpd2ps xmm0, xmm0
  00023	f3 0f 11 40 04	 movss	 DWORD PTR [eax+4], xmm0

; 152  : 
; 153  : 		++iter;

  00028	83 c0 1c	 add	 eax, 28			; 0000001cH
$LN37@CheckDamag:

; 149  : 	while( iter != m_AttackRateList.end() )

  0002b	3b 81 70 09 00
	00		 cmp	 eax, DWORD PTR [ecx+2416]
  00031	75 d5		 jne	 SHORT $LL2@CheckDamag

; 154  : 	}
; 155  : }

  00033	c3		 ret	 0
?CheckDamageRate@ioDamageUpDownBuff@@IAEXXZ ENDP	; ioDamageUpDownBuff::CheckDamageRate
_TEXT	ENDS
PUBLIC	??$_Cons_val@V?$allocator@UAttackRate@@@std@@UAttackRate@@ABU3@@std@@YAXAAV?$allocator@UAttackRate@@@0@PAUAttackRate@@ABU2@@Z ; std::_Cons_val<std::allocator<AttackRate>,AttackRate,AttackRate const &>
; Function compile flags: /Ogsp
; File c:\program files (x86)\microsoft visual studio 10.0\vc\include\xmemory
;	COMDAT ??$_Cons_val@V?$allocator@UAttackRate@@@std@@UAttackRate@@ABU3@@std@@YAXAAV?$allocator@UAttackRate@@@0@PAUAttackRate@@ABU2@@Z
_TEXT	SEGMENT
__Alval$ = 8						; size = 4
__Pdest$ = 12						; size = 4
__Src$ = 16						; size = 4
??$_Cons_val@V?$allocator@UAttackRate@@@std@@UAttackRate@@ABU3@@std@@YAXAAV?$allocator@UAttackRate@@@0@PAUAttackRate@@ABU2@@Z PROC ; std::_Cons_val<std::allocator<AttackRate>,AttackRate,AttackRate const &>, COMDAT

; 279  : 	{	// construct using allocator

  00000	55		 push	 ebp
  00001	8b ec		 mov	 ebp, esp

; 280  : 	_Alval.construct(_Pdest, _STD forward<_Ty2>(_Src));

  00003	ff 75 10	 push	 DWORD PTR __Src$[ebp]
  00006	ff 75 0c	 push	 DWORD PTR __Pdest$[ebp]
  00009	e8 00 00 00 00	 call	 ??$_Construct@UAttackRate@@ABU1@@std@@YAXPAUAttackRate@@ABU1@@Z ; std::_Construct<AttackRate,AttackRate const &>
  0000e	59		 pop	 ecx
  0000f	59		 pop	 ecx

; 281  : 	}

  00010	5d		 pop	 ebp
  00011	c3		 ret	 0
??$_Cons_val@V?$allocator@UAttackRate@@@std@@UAttackRate@@ABU3@@std@@YAXAAV?$allocator@UAttackRate@@@0@PAUAttackRate@@ABU2@@Z ENDP ; std::_Cons_val<std::allocator<AttackRate>,AttackRate,AttackRate const &>
_TEXT	ENDS
PUBLIC	??$_Dest_val@V?$allocator@UAttackRate@@@std@@UAttackRate@@@std@@YAXAAV?$allocator@UAttackRate@@@0@PAUAttackRate@@@Z ; std::_Dest_val<std::allocator<AttackRate>,AttackRate>
; Function compile flags: /Ogsp
;	COMDAT ??$_Dest_val@V?$allocator@UAttackRate@@@std@@UAttackRate@@@std@@YAXAAV?$allocator@UAttackRate@@@0@PAUAttackRate@@@Z
_TEXT	SEGMENT
__Alval$ = 8						; size = 4
__Pdest$ = 12						; size = 4
??$_Dest_val@V?$allocator@UAttackRate@@@std@@UAttackRate@@@std@@YAXAAV?$allocator@UAttackRate@@@0@PAUAttackRate@@@Z PROC ; std::_Dest_val<std::allocator<AttackRate>,AttackRate>, COMDAT

; 286  : 	{	// destroy using allocator

  00000	55		 push	 ebp
  00001	8b ec		 mov	 ebp, esp

; 287  : 	_Alval.destroy(_Pdest);

  00003	8b 4d 0c	 mov	 ecx, DWORD PTR __Pdest$[ebp]
  00006	83 c1 0c	 add	 ecx, 12			; 0000000cH

; 288  : 	}

  00009	5d		 pop	 ebp

; 287  : 	_Alval.destroy(_Pdest);

  0000a	ff 25 00 00 00
	00		 jmp	 DWORD PTR __imp_??1ioHashString@@QAE@XZ
??$_Dest_val@V?$allocator@UAttackRate@@@std@@UAttackRate@@@std@@YAXAAV?$allocator@UAttackRate@@@0@PAUAttackRate@@@Z ENDP ; std::_Dest_val<std::allocator<AttackRate>,AttackRate>
_TEXT	ENDS
PUBLIC	?StartBuff@ioDamageUpDownBuff@@UAEXPAVioBaseChar@@@Z ; ioDamageUpDownBuff::StartBuff
EXTRN	?ModifyDamageRate@ioBaseChar@@QAEXAAV?$vector@UAttackRate@@V?$allocator@UAttackRate@@@std@@@std@@@Z:PROC ; ioBaseChar::ModifyDamageRate
EXTRN	?GetValue@ioGrowthNormalUpInfo@@QAEMPAVioPlayStage@@@Z:PROC ; ioGrowthNormalUpInfo::GetValue
EXTRN	?GetPlayStage@ioItemMaker@@QAEPAVioPlayStage@@XZ:PROC ; ioItemMaker::GetPlayStage
EXTRN	?GetSingleton@ioItemMaker@@SAAAV1@XZ:PROC	; ioItemMaker::GetSingleton
EXTRN	?GetGrowthUpInfoForItem@ioBuff@@QAEPAVioGrowthUpInfo@@H@Z:PROC ; ioBuff::GetGrowthUpInfoForItem
EXTRN	__imp_?IsEmpty@ioHashString@@QBE_NXZ:PROC
EXTRN	?StartBuff@ioBuff@@UAEXPAVioBaseChar@@@Z:PROC	; ioBuff::StartBuff
; Function compile flags: /Ogsp
; File d:\lost saga for developer\youtube\tutorial\source\src\lsclient\iodamageupdownbuff.cpp
;	COMDAT ?StartBuff@ioDamageUpDownBuff@@UAEXPAVioBaseChar@@@Z
_TEXT	SEGMENT
_pOwner$ = 8						; size = 4
?StartBuff@ioDamageUpDownBuff@@UAEXPAVioBaseChar@@@Z PROC ; ioDamageUpDownBuff::StartBuff, COMDAT
; _this$ = ecx

; 46   : {

  00000	55		 push	 ebp
  00001	8b ec		 mov	 ebp, esp
  00003	56		 push	 esi

; 47   : 	ioBuff::StartBuff( pOwner );

  00004	ff 75 08	 push	 DWORD PTR _pOwner$[ebp]
  00007	8b f1		 mov	 esi, ecx
  00009	e8 00 00 00 00	 call	 ?StartBuff@ioBuff@@UAEXPAVioBaseChar@@@Z ; ioBuff::StartBuff

; 48   : 
; 49   : 	if( !m_ItemName.IsEmpty() )

  0000e	8d 8e 44 02 00
	00		 lea	 ecx, DWORD PTR [esi+580]
  00014	ff 15 00 00 00
	00		 call	 DWORD PTR __imp_?IsEmpty@ioHashString@@QBE_NXZ
  0001a	84 c0		 test	 al, al
  0001c	75 32		 jne	 SHORT $LN1@StartBuff

; 50   : 	{
; 51   : 		ioGrowthUpInfo *pUpInfo = GetGrowthUpInfoForItem(GT_DAMAGE_BUFF_UP);

  0001e	57		 push	 edi
  0001f	6a 14		 push	 20			; 00000014H
  00021	8b ce		 mov	 ecx, esi
  00023	e8 00 00 00 00	 call	 ?GetGrowthUpInfoForItem@ioBuff@@QAEPAVioGrowthUpInfo@@H@Z ; ioBuff::GetGrowthUpInfoForItem

; 52   : 		ioGrowthNormalUpInfo *pNormalInfo = ToNormalUpInfo( pUpInfo );

  00028	50		 push	 eax
  00029	e8 00 00 00 00	 call	 ?ToNormalUpInfo@@YAPAVioGrowthNormalUpInfo@@PAVioGrowthUpInfo@@@Z ; ToNormalUpInfo
  0002e	8b f8		 mov	 edi, eax
  00030	59		 pop	 ecx

; 53   : 		if( pNormalInfo )

  00031	85 ff		 test	 edi, edi
  00033	74 1a		 je	 SHORT $LN5@StartBuff

; 54   : 		{
; 55   : 			ioPlayStage *pStage = g_ItemMaker.GetPlayStage();

  00035	e8 00 00 00 00	 call	 ?GetSingleton@ioItemMaker@@SAAAV1@XZ ; ioItemMaker::GetSingleton
  0003a	8b c8		 mov	 ecx, eax
  0003c	e8 00 00 00 00	 call	 ?GetPlayStage@ioItemMaker@@QAEPAVioPlayStage@@XZ ; ioItemMaker::GetPlayStage

; 56   : 			m_fExtraDamageRate = pNormalInfo->GetValue(pStage);

  00041	50		 push	 eax
  00042	8b cf		 mov	 ecx, edi
  00044	e8 00 00 00 00	 call	 ?GetValue@ioGrowthNormalUpInfo@@QAEMPAVioPlayStage@@@Z ; ioGrowthNormalUpInfo::GetValue
  00049	d9 9e 84 09 00
	00		 fstp	 DWORD PTR [esi+2436]
$LN5@StartBuff:
  0004f	5f		 pop	 edi
$LN1@StartBuff:

; 57   : 		}
; 58   : 	}
; 59   : 
; 60   : 	CheckDamageRate();

  00050	8b ce		 mov	 ecx, esi
  00052	e8 00 00 00 00	 call	 ?CheckDamageRate@ioDamageUpDownBuff@@IAEXXZ ; ioDamageUpDownBuff::CheckDamageRate

; 61   : 
; 62   : 	m_pOwner->ModifyDamageRate( m_AttackRateList );

  00057	8b 8e 74 02 00
	00		 mov	 ecx, DWORD PTR [esi+628]
  0005d	8d 86 6c 09 00
	00		 lea	 eax, DWORD PTR [esi+2412]
  00063	50		 push	 eax
  00064	e8 00 00 00 00	 call	 ?ModifyDamageRate@ioBaseChar@@QAEXAAV?$vector@UAttackRate@@V?$allocator@UAttackRate@@@std@@@std@@@Z ; ioBaseChar::ModifyDamageRate
  00069	5e		 pop	 esi

; 63   : }

  0006a	5d		 pop	 ebp
  0006b	c2 04 00	 ret	 4
?StartBuff@ioDamageUpDownBuff@@UAEXPAVioBaseChar@@@Z ENDP ; ioDamageUpDownBuff::StartBuff
_TEXT	ENDS
PUBLIC	?ApplyStartBuff@ioDamageUpDownBuff@@UAE_NPAVioBaseChar@@KK@Z ; ioDamageUpDownBuff::ApplyStartBuff
EXTRN	?ApplyStartBuff@ioBuff@@UAE_NPAVioBaseChar@@KK@Z:PROC ; ioBuff::ApplyStartBuff
; Function compile flags: /Ogsp
;	COMDAT ?ApplyStartBuff@ioDamageUpDownBuff@@UAE_NPAVioBaseChar@@KK@Z
_TEXT	SEGMENT
_pOwner$ = 8						; size = 4
_dwGlobalTime$ = 12					; size = 4
_dwGapTime$ = 16					; size = 4
?ApplyStartBuff@ioDamageUpDownBuff@@UAE_NPAVioBaseChar@@KK@Z PROC ; ioDamageUpDownBuff::ApplyStartBuff, COMDAT
; _this$ = ecx

; 66   : {

  00000	55		 push	 ebp
  00001	8b ec		 mov	 ebp, esp
  00003	56		 push	 esi

; 67   : 	if( !ioBuff::ApplyStartBuff( pOwner, dwGlobalTime, dwGapTime ) )

  00004	ff 75 10	 push	 DWORD PTR _dwGapTime$[ebp]
  00007	8b f1		 mov	 esi, ecx
  00009	ff 75 0c	 push	 DWORD PTR _dwGlobalTime$[ebp]
  0000c	ff 75 08	 push	 DWORD PTR _pOwner$[ebp]
  0000f	e8 00 00 00 00	 call	 ?ApplyStartBuff@ioBuff@@UAE_NPAVioBaseChar@@KK@Z ; ioBuff::ApplyStartBuff
  00014	84 c0		 test	 al, al
  00016	74 1b		 je	 SHORT $LN2@ApplyStart
$LN1@ApplyStart:

; 68   : 		return false;
; 69   : 
; 70   : 	CheckDamageRate();

  00018	8b ce		 mov	 ecx, esi
  0001a	e8 00 00 00 00	 call	 ?CheckDamageRate@ioDamageUpDownBuff@@IAEXXZ ; ioDamageUpDownBuff::CheckDamageRate

; 71   : 	m_pOwner->ModifyDamageRate( m_AttackRateList );

  0001f	8b 8e 74 02 00
	00		 mov	 ecx, DWORD PTR [esi+628]
  00025	8d 86 6c 09 00
	00		 lea	 eax, DWORD PTR [esi+2412]
  0002b	50		 push	 eax
  0002c	e8 00 00 00 00	 call	 ?ModifyDamageRate@ioBaseChar@@QAEXAAV?$vector@UAttackRate@@V?$allocator@UAttackRate@@@std@@@std@@@Z ; ioBaseChar::ModifyDamageRate

; 72   : 	return true;

  00031	b0 01		 mov	 al, 1
$LN2@ApplyStart:
  00033	5e		 pop	 esi

; 73   : }

  00034	5d		 pop	 ebp
  00035	c2 0c 00	 ret	 12			; 0000000cH
?ApplyStartBuff@ioDamageUpDownBuff@@UAE_NPAVioBaseChar@@KK@Z ENDP ; ioDamageUpDownBuff::ApplyStartBuff
_TEXT	ENDS
PUBLIC	??$_Destroy_range@V?$allocator@UAttackRate@@@std@@@std@@YAXPAUAttackRate@@0AAV?$allocator@UAttackRate@@@0@U_Nonscalar_ptr_iterator_tag@0@@Z ; std::_Destroy_range<std::allocator<AttackRate> >
; Function compile flags: /Ogsp
; File c:\program files (x86)\microsoft visual studio 10.0\vc\include\xmemory
;	COMDAT ??$_Destroy_range@V?$allocator@UAttackRate@@@std@@@std@@YAXPAUAttackRate@@0AAV?$allocator@UAttackRate@@@0@U_Nonscalar_ptr_iterator_tag@0@@Z
_TEXT	SEGMENT
__First$ = 8						; size = 4
__Last$ = 12						; size = 4
__Al$ = 16						; size = 4
___formal$ = 20						; size = 1
??$_Destroy_range@V?$allocator@UAttackRate@@@std@@@std@@YAXPAUAttackRate@@0AAV?$allocator@UAttackRate@@@0@U_Nonscalar_ptr_iterator_tag@0@@Z PROC ; std::_Destroy_range<std::allocator<AttackRate> >, COMDAT

; 95   : 	{	// destroy [_First, _Last), arbitrary type

  00000	55		 push	 ebp
  00001	8b ec		 mov	 ebp, esp
  00003	56		 push	 esi

; 96   : 	for (; _First != _Last; ++_First)

  00004	8b 75 08	 mov	 esi, DWORD PTR __First$[ebp]
  00007	eb 0c		 jmp	 SHORT $LN20@Destroy_ra
$LL3@Destroy_ra:

; 97   : 		_Dest_val(_Al, _First);

  00009	8d 4e 0c	 lea	 ecx, DWORD PTR [esi+12]
  0000c	ff 15 00 00 00
	00		 call	 DWORD PTR __imp_??1ioHashString@@QAE@XZ
  00012	83 c6 1c	 add	 esi, 28			; 0000001cH
$LN20@Destroy_ra:

; 96   : 	for (; _First != _Last; ++_First)

  00015	3b 75 0c	 cmp	 esi, DWORD PTR __Last$[ebp]
  00018	75 ef		 jne	 SHORT $LL3@Destroy_ra
  0001a	5e		 pop	 esi

; 98   : 	}

  0001b	5d		 pop	 ebp
  0001c	c3		 ret	 0
??$_Destroy_range@V?$allocator@UAttackRate@@@std@@@std@@YAXPAUAttackRate@@0AAV?$allocator@UAttackRate@@@0@U_Nonscalar_ptr_iterator_tag@0@@Z ENDP ; std::_Destroy_range<std::allocator<AttackRate> >
_TEXT	ENDS
PUBLIC	??$_Uninit_copy@V?$_Vector_const_iterator@V?$_Vector_val@UAttackRate@@V?$allocator@UAttackRate@@@std@@@std@@@std@@PAUAttackRate@@V?$allocator@UAttackRate@@@2@@std@@YAPAUAttackRate@@V?$_Vector_const_iterator@V?$_Vector_val@UAttackRate@@V?$allocator@UAttackRate@@@std@@@std@@@0@0PAU1@AAV?$allocator@UAttackRate@@@0@U_Nonscalar_ptr_iterator_tag@0@@Z ; std::_Uninit_copy<std::_Vector_const_iterator<std::_Vector_val<AttackRate,std::allocator<AttackRate> > >,AttackRate *,std::allocator<AttackRate> >
EXTRN	__EH_prolog3_catch:PROC
;	COMDAT xdata$x
; File d:\lost saga for developer\youtube\tutorial\source\src\lsclient\iodamageupdownbuff.cpp
xdata$x	SEGMENT
__catchsym$??$_Uninit_copy@V?$_Vector_const_iterator@V?$_Vector_val@UAttackRate@@V?$allocator@UAttackRate@@@std@@@std@@@std@@PAUAttackRate@@V?$allocator@UAttackRate@@@2@@std@@YAPAUAttackRate@@V?$_Vector_const_iterator@V?$_Vector_val@UAttackRate@@V?$allocator@UAttackRate@@@std@@@std@@@0@0PAU1@AAV?$allocator@UAttackRate@@@0@U_Nonscalar_ptr_iterator_tag@0@@Z$3 DD 040H
	DD	00H
	DD	00H
	DD	FLAT:__catch$??$_Uninit_copy@V?$_Vector_const_iterator@V?$_Vector_val@UAttackRate@@V?$allocator@UAttackRate@@@std@@@std@@@std@@PAUAttackRate@@V?$allocator@UAttackRate@@@2@@std@@YAPAUAttackRate@@V?$_Vector_const_iterator@V?$_Vector_val@UAttackRate@@V?$allocator@UAttackRate@@@std@@@std@@@0@0PAU1@AAV?$allocator@UAttackRate@@@0@U_Nonscalar_ptr_iterator_tag@0@@Z$0
__unwindtable$??$_Uninit_copy@V?$_Vector_const_iterator@V?$_Vector_val@UAttackRate@@V?$allocator@UAttackRate@@@std@@@std@@@std@@PAUAttackRate@@V?$allocator@UAttackRate@@@2@@std@@YAPAUAttackRate@@V?$_Vector_const_iterator@V?$_Vector_val@UAttackRate@@V?$allocator@UAttackRate@@@std@@@std@@@0@0PAU1@AAV?$allocator@UAttackRate@@@0@U_Nonscalar_ptr_iterator_tag@0@@Z DD 0ffffffffH
	DD	00H
	DD	0ffffffffH
	DD	00H
__tryblocktable$??$_Uninit_copy@V?$_Vector_const_iterator@V?$_Vector_val@UAttackRate@@V?$allocator@UAttackRate@@@std@@@std@@@std@@PAUAttackRate@@V?$allocator@UAttackRate@@@2@@std@@YAPAUAttackRate@@V?$_Vector_const_iterator@V?$_Vector_val@UAttackRate@@V?$allocator@UAttackRate@@@std@@@std@@@0@0PAU1@AAV?$allocator@UAttackRate@@@0@U_Nonscalar_ptr_iterator_tag@0@@Z DD 00H
	DD	00H
	DD	01H
	DD	01H
	DD	FLAT:__catchsym$??$_Uninit_copy@V?$_Vector_const_iterator@V?$_Vector_val@UAttackRate@@V?$allocator@UAttackRate@@@std@@@std@@@std@@PAUAttackRate@@V?$allocator@UAttackRate@@@2@@std@@YAPAUAttackRate@@V?$_Vector_const_iterator@V?$_Vector_val@UAttackRate@@V?$allocator@UAttackRate@@@std@@@std@@@0@0PAU1@AAV?$allocator@UAttackRate@@@0@U_Nonscalar_ptr_iterator_tag@0@@Z$3
__ehfuncinfo$??$_Uninit_copy@V?$_Vector_const_iterator@V?$_Vector_val@UAttackRate@@V?$allocator@UAttackRate@@@std@@@std@@@std@@PAUAttackRate@@V?$allocator@UAttackRate@@@2@@std@@YAPAUAttackRate@@V?$_Vector_const_iterator@V?$_Vector_val@UAttackRate@@V?$allocator@UAttackRate@@@std@@@std@@@0@0PAU1@AAV?$allocator@UAttackRate@@@0@U_Nonscalar_ptr_iterator_tag@0@@Z DD 019930522H
	DD	02H
	DD	FLAT:__unwindtable$??$_Uninit_copy@V?$_Vector_const_iterator@V?$_Vector_val@UAttackRate@@V?$allocator@UAttackRate@@@std@@@std@@@std@@PAUAttackRate@@V?$allocator@UAttackRate@@@2@@std@@YAPAUAttackRate@@V?$_Vector_const_iterator@V?$_Vector_val@UAttackRate@@V?$allocator@UAttackRate@@@std@@@std@@@0@0PAU1@AAV?$allocator@UAttackRate@@@0@U_Nonscalar_ptr_iterator_tag@0@@Z
	DD	01H
	DD	FLAT:__tryblocktable$??$_Uninit_copy@V?$_Vector_const_iterator@V?$_Vector_val@UAttackRate@@V?$allocator@UAttackRate@@@std@@@std@@@std@@PAUAttackRate@@V?$allocator@UAttackRate@@@2@@std@@YAPAUAttackRate@@V?$_Vector_const_iterator@V?$_Vector_val@UAttackRate@@V?$allocator@UAttackRate@@@std@@@std@@@0@0PAU1@AAV?$allocator@UAttackRate@@@0@U_Nonscalar_ptr_iterator_tag@0@@Z
	DD	2 DUP(00H)
	DD	00H
	DD	01H
; Function compile flags: /Ogsp
; File c:\program files (x86)\microsoft visual studio 10.0\vc\include\memory
xdata$x	ENDS
;	COMDAT ??$_Uninit_copy@V?$_Vector_const_iterator@V?$_Vector_val@UAttackRate@@V?$allocator@UAttackRate@@@std@@@std@@@std@@PAUAttackRate@@V?$allocator@UAttackRate@@@2@@std@@YAPAUAttackRate@@V?$_Vector_const_iterator@V?$_Vector_val@UAttackRate@@V?$allocator@UAttackRate@@@std@@@std@@@0@0PAU1@AAV?$allocator@UAttackRate@@@0@U_Nonscalar_ptr_iterator_tag@0@@Z
_TEXT	SEGMENT
__Next$ = -20						; size = 4
__$EHRec$ = -16						; size = 16
__First$ = 8						; size = 4
__Last$ = 12						; size = 4
__Dest$ = 16						; size = 4
__Al$ = 20						; size = 4
___formal$ = 24						; size = 1
??$_Uninit_copy@V?$_Vector_const_iterator@V?$_Vector_val@UAttackRate@@V?$allocator@UAttackRate@@@std@@@std@@@std@@PAUAttackRate@@V?$allocator@UAttackRate@@@2@@std@@YAPAUAttackRate@@V?$_Vector_const_iterator@V?$_Vector_val@UAttackRate@@V?$allocator@UAttackRate@@@std@@@std@@@0@0PAU1@AAV?$allocator@UAttackRate@@@0@U_Nonscalar_ptr_iterator_tag@0@@Z PROC ; std::_Uninit_copy<std::_Vector_const_iterator<std::_Vector_val<AttackRate,std::allocator<AttackRate> > >,AttackRate *,std::allocator<AttackRate> >, COMDAT

; 369  : 	{	// copy [_First, _Last) to raw _Dest, using _Al, arbitrary type

  00000	6a 08		 push	 8
  00002	b8 00 00 00 00	 mov	 eax, __ehhandler$??$_Uninit_copy@V?$_Vector_const_iterator@V?$_Vector_val@UAttackRate@@V?$allocator@UAttackRate@@@std@@@std@@@std@@PAUAttackRate@@V?$allocator@UAttackRate@@@2@@std@@YAPAUAttackRate@@V?$_Vector_const_iterator@V?$_Vector_val@UAttackRate@@V?$allocator@UAttackRate@@@std@@@std@@@0@0PAU1@AAV?$allocator@UAttackRate@@@0@U_Nonscalar_ptr_iterator_tag@0@@Z
  00007	e8 00 00 00 00	 call	 __EH_prolog3_catch

; 370  : 	_DEBUG_RANGE(_First, _Last);
; 371  : 	_DEBUG_POINTER(_Dest);
; 372  : 	_FwdIt _Next = _Dest;

  0000c	8b 45 10	 mov	 eax, DWORD PTR __Dest$[ebp]

; 373  : 
; 374  : 	_TRY_BEGIN

  0000f	83 65 fc 00	 and	 DWORD PTR __$EHRec$[ebp+12], 0
  00013	89 45 ec	 mov	 DWORD PTR __Next$[ebp], eax

; 375  : 	for (; _First != _Last; ++_Dest, ++_First)

$LL14@Uninit_cop:
  00016	8b 45 08	 mov	 eax, DWORD PTR __First$[ebp]
  00019	3b 45 0c	 cmp	 eax, DWORD PTR __Last$[ebp]
  0001c	74 34		 je	 SHORT $LN4@Uninit_cop

; 376  : 		_Cons_val(_Al, _Dest, *_First);

  0001e	50		 push	 eax
  0001f	ff 75 10	 push	 DWORD PTR __Dest$[ebp]
  00022	e8 00 00 00 00	 call	 ??$_Construct@UAttackRate@@ABU1@@std@@YAXPAUAttackRate@@ABU1@@Z ; std::_Construct<AttackRate,AttackRate const &>
  00027	83 45 10 1c	 add	 DWORD PTR __Dest$[ebp], 28 ; 0000001cH
  0002b	83 45 08 1c	 add	 DWORD PTR __First$[ebp], 28 ; 0000001cH
  0002f	59		 pop	 ecx
  00030	59		 pop	 ecx
  00031	eb e3		 jmp	 SHORT $LL14@Uninit_cop
__catch$??$_Uninit_copy@V?$_Vector_const_iterator@V?$_Vector_val@UAttackRate@@V?$allocator@UAttackRate@@@std@@@std@@@std@@PAUAttackRate@@V?$allocator@UAttackRate@@@2@@std@@YAPAUAttackRate@@V?$_Vector_const_iterator@V?$_Vector_val@UAttackRate@@V?$allocator@UAttackRate@@@std@@@std@@@0@0PAU1@AAV?$allocator@UAttackRate@@@0@U_Nonscalar_ptr_iterator_tag@0@@Z$0:

; 377  : 	_CATCH_ALL
; 378  : 	for (; _Next != _Dest; ++_Next)

  00033	8b 75 ec	 mov	 esi, DWORD PTR __Next$[ebp]
  00036	eb 0c		 jmp	 SHORT $LN48@Uninit_cop
$LL3@Uninit_cop:

; 379  : 		_Dest_val(_Al, _Next);

  00038	8d 4e 0c	 lea	 ecx, DWORD PTR [esi+12]
  0003b	ff 15 00 00 00
	00		 call	 DWORD PTR __imp_??1ioHashString@@QAE@XZ
  00041	83 c6 1c	 add	 esi, 28			; 0000001cH
$LN48@Uninit_cop:

; 377  : 	_CATCH_ALL
; 378  : 	for (; _Next != _Dest; ++_Next)

  00044	3b 75 10	 cmp	 esi, DWORD PTR __Dest$[ebp]
  00047	75 ef		 jne	 SHORT $LL3@Uninit_cop

; 380  : 	_RERAISE;

  00049	6a 00		 push	 0
  0004b	6a 00		 push	 0
  0004d	e8 00 00 00 00	 call	 __CxxThrowException@8
$LN49@Uninit_cop:
$LN4@Uninit_cop:

; 381  : 	_CATCH_END
; 382  : 	return (_Dest);

  00052	8b 45 10	 mov	 eax, DWORD PTR __Dest$[ebp]

; 383  : 	}

  00055	e8 00 00 00 00	 call	 __EH_epilog3
  0005a	c3		 ret	 0
$LN47@Uninit_cop:
_TEXT	ENDS
;	COMDAT text$x
text$x	SEGMENT
__ehhandler$??$_Uninit_copy@V?$_Vector_const_iterator@V?$_Vector_val@UAttackRate@@V?$allocator@UAttackRate@@@std@@@std@@@std@@PAUAttackRate@@V?$allocator@UAttackRate@@@2@@std@@YAPAUAttackRate@@V?$_Vector_const_iterator@V?$_Vector_val@UAttackRate@@V?$allocator@UAttackRate@@@std@@@std@@@0@0PAU1@AAV?$allocator@UAttackRate@@@0@U_Nonscalar_ptr_iterator_tag@0@@Z:
  00000	8b 54 24 08	 mov	 edx, DWORD PTR [esp+8]
  00004	8d 42 0c	 lea	 eax, DWORD PTR [edx+12]
  00007	8b 4a e8	 mov	 ecx, DWORD PTR [edx-24]
  0000a	33 c8		 xor	 ecx, eax
  0000c	e8 00 00 00 00	 call	 @__security_check_cookie@4
  00011	b8 00 00 00 00	 mov	 eax, OFFSET __ehfuncinfo$??$_Uninit_copy@V?$_Vector_const_iterator@V?$_Vector_val@UAttackRate@@V?$allocator@UAttackRate@@@std@@@std@@@std@@PAUAttackRate@@V?$allocator@UAttackRate@@@2@@std@@YAPAUAttackRate@@V?$_Vector_const_iterator@V?$_Vector_val@UAttackRate@@V?$allocator@UAttackRate@@@std@@@std@@@0@0PAU1@AAV?$allocator@UAttackRate@@@0@U_Nonscalar_ptr_iterator_tag@0@@Z
  00016	e9 00 00 00 00	 jmp	 ___CxxFrameHandler3
text$x	ENDS
??$_Uninit_copy@V?$_Vector_const_iterator@V?$_Vector_val@UAttackRate@@V?$allocator@UAttackRate@@@std@@@std@@@std@@PAUAttackRate@@V?$allocator@UAttackRate@@@2@@std@@YAPAUAttackRate@@V?$_Vector_const_iterator@V?$_Vector_val@UAttackRate@@V?$allocator@UAttackRate@@@std@@@std@@@0@0PAU1@AAV?$allocator@UAttackRate@@@0@U_Nonscalar_ptr_iterator_tag@0@@Z ENDP ; std::_Uninit_copy<std::_Vector_const_iterator<std::_Vector_val<AttackRate,std::allocator<AttackRate> > >,AttackRate *,std::allocator<AttackRate> >
PUBLIC	??$_Uninit_move@PAUAttackRate@@PAU1@V?$allocator@UAttackRate@@@std@@U1@@std@@YAPAUAttackRate@@PAU1@00AAV?$allocator@UAttackRate@@@0@0U_Nonscalar_ptr_iterator_tag@0@@Z ; std::_Uninit_move<AttackRate *,AttackRate *,std::allocator<AttackRate>,AttackRate>
;	COMDAT xdata$x
; File d:\lost saga for developer\youtube\tutorial\source\src\lsclient\iodamageupdownbuff.cpp
xdata$x	SEGMENT
__catchsym$??$_Uninit_move@PAUAttackRate@@PAU1@V?$allocator@UAttackRate@@@std@@U1@@std@@YAPAUAttackRate@@PAU1@00AAV?$allocator@UAttackRate@@@0@0U_Nonscalar_ptr_iterator_tag@0@@Z$3 DD 040H
	DD	00H
	DD	00H
	DD	FLAT:__catch$??$_Uninit_move@PAUAttackRate@@PAU1@V?$allocator@UAttackRate@@@std@@U1@@std@@YAPAUAttackRate@@PAU1@00AAV?$allocator@UAttackRate@@@0@0U_Nonscalar_ptr_iterator_tag@0@@Z$0
__unwindtable$??$_Uninit_move@PAUAttackRate@@PAU1@V?$allocator@UAttackRate@@@std@@U1@@std@@YAPAUAttackRate@@PAU1@00AAV?$allocator@UAttackRate@@@0@0U_Nonscalar_ptr_iterator_tag@0@@Z DD 0ffffffffH
	DD	00H
	DD	0ffffffffH
	DD	00H
__tryblocktable$??$_Uninit_move@PAUAttackRate@@PAU1@V?$allocator@UAttackRate@@@std@@U1@@std@@YAPAUAttackRate@@PAU1@00AAV?$allocator@UAttackRate@@@0@0U_Nonscalar_ptr_iterator_tag@0@@Z DD 00H
	DD	00H
	DD	01H
	DD	01H
	DD	FLAT:__catchsym$??$_Uninit_move@PAUAttackRate@@PAU1@V?$allocator@UAttackRate@@@std@@U1@@std@@YAPAUAttackRate@@PAU1@00AAV?$allocator@UAttackRate@@@0@0U_Nonscalar_ptr_iterator_tag@0@@Z$3
__ehfuncinfo$??$_Uninit_move@PAUAttackRate@@PAU1@V?$allocator@UAttackRate@@@std@@U1@@std@@YAPAUAttackRate@@PAU1@00AAV?$allocator@UAttackRate@@@0@0U_Nonscalar_ptr_iterator_tag@0@@Z DD 019930522H
	DD	02H
	DD	FLAT:__unwindtable$??$_Uninit_move@PAUAttackRate@@PAU1@V?$allocator@UAttackRate@@@std@@U1@@std@@YAPAUAttackRate@@PAU1@00AAV?$allocator@UAttackRate@@@0@0U_Nonscalar_ptr_iterator_tag@0@@Z
	DD	01H
	DD	FLAT:__tryblocktable$??$_Uninit_move@PAUAttackRate@@PAU1@V?$allocator@UAttackRate@@@std@@U1@@std@@YAPAUAttackRate@@PAU1@00AAV?$allocator@UAttackRate@@@0@0U_Nonscalar_ptr_iterator_tag@0@@Z
	DD	2 DUP(00H)
	DD	00H
	DD	01H
; Function compile flags: /Ogsp
; File c:\program files (x86)\microsoft visual studio 10.0\vc\include\memory
xdata$x	ENDS
;	COMDAT ??$_Uninit_move@PAUAttackRate@@PAU1@V?$allocator@UAttackRate@@@std@@U1@@std@@YAPAUAttackRate@@PAU1@00AAV?$allocator@UAttackRate@@@0@0U_Nonscalar_ptr_iterator_tag@0@@Z
_TEXT	SEGMENT
__Next$ = -20						; size = 4
__$EHRec$ = -16						; size = 16
__First$ = 8						; size = 4
__Last$ = 12						; size = 4
__Dest$ = 16						; size = 4
__Al$ = 20						; size = 4
___formal$ = 24						; size = 4
___formal$ = 28						; size = 1
??$_Uninit_move@PAUAttackRate@@PAU1@V?$allocator@UAttackRate@@@std@@U1@@std@@YAPAUAttackRate@@PAU1@00AAV?$allocator@UAttackRate@@@0@0U_Nonscalar_ptr_iterator_tag@0@@Z PROC ; std::_Uninit_move<AttackRate *,AttackRate *,std::allocator<AttackRate>,AttackRate>, COMDAT

; 424  : 	{	// move [_First, _Last) to raw _Dest, using _Al, arbitrary type

  00000	6a 08		 push	 8
  00002	b8 00 00 00 00	 mov	 eax, __ehhandler$??$_Uninit_move@PAUAttackRate@@PAU1@V?$allocator@UAttackRate@@@std@@U1@@std@@YAPAUAttackRate@@PAU1@00AAV?$allocator@UAttackRate@@@0@0U_Nonscalar_ptr_iterator_tag@0@@Z
  00007	e8 00 00 00 00	 call	 __EH_prolog3_catch

; 425  : 	_DEBUG_RANGE(_First, _Last);
; 426  : 	_DEBUG_POINTER(_Dest);
; 427  : 	_FwdIt _Next = _Dest;

  0000c	8b 45 10	 mov	 eax, DWORD PTR __Dest$[ebp]

; 428  : 
; 429  : 	_TRY_BEGIN

  0000f	83 65 fc 00	 and	 DWORD PTR __$EHRec$[ebp+12], 0
  00013	8b 75 08	 mov	 esi, DWORD PTR __First$[ebp]
  00016	89 45 ec	 mov	 DWORD PTR __Next$[ebp], eax
$LL6@Uninit_mov:

; 430  : 	for (; _First != _Last; ++_Dest, ++_First)

  00019	3b 75 0c	 cmp	 esi, DWORD PTR __Last$[ebp]
  0001c	74 37		 je	 SHORT $LN4@Uninit_mov

; 431  : 		_Cons_val(_Al, _Dest, (_Valty &&)*_First);

  0001e	56		 push	 esi
  0001f	ff 75 10	 push	 DWORD PTR __Dest$[ebp]
  00022	ff 75 14	 push	 DWORD PTR __Al$[ebp]
  00025	e8 00 00 00 00	 call	 ??$_Cons_val@V?$allocator@UAttackRate@@@std@@UAttackRate@@U3@@std@@YAXAAV?$allocator@UAttackRate@@@0@PAUAttackRate@@$$QAU2@@Z ; std::_Cons_val<std::allocator<AttackRate>,AttackRate,AttackRate>
  0002a	83 45 10 1c	 add	 DWORD PTR __Dest$[ebp], 28 ; 0000001cH
  0002e	83 c4 0c	 add	 esp, 12			; 0000000cH
  00031	83 c6 1c	 add	 esi, 28			; 0000001cH
  00034	eb e3		 jmp	 SHORT $LL6@Uninit_mov
__catch$??$_Uninit_move@PAUAttackRate@@PAU1@V?$allocator@UAttackRate@@@std@@U1@@std@@YAPAUAttackRate@@PAU1@00AAV?$allocator@UAttackRate@@@0@0U_Nonscalar_ptr_iterator_tag@0@@Z$0:

; 432  : 	_CATCH_ALL
; 433  : 	for (; _Next != _Dest; ++_Next)

  00036	8b 75 ec	 mov	 esi, DWORD PTR __Next$[ebp]
  00039	eb 0c		 jmp	 SHORT $LN32@Uninit_mov
$LL3@Uninit_mov:

; 434  : 		_Dest_val(_Al, _Next);

  0003b	8d 4e 0c	 lea	 ecx, DWORD PTR [esi+12]
  0003e	ff 15 00 00 00
	00		 call	 DWORD PTR __imp_??1ioHashString@@QAE@XZ
  00044	83 c6 1c	 add	 esi, 28			; 0000001cH
$LN32@Uninit_mov:

; 432  : 	_CATCH_ALL
; 433  : 	for (; _Next != _Dest; ++_Next)

  00047	3b 75 10	 cmp	 esi, DWORD PTR __Dest$[ebp]
  0004a	75 ef		 jne	 SHORT $LL3@Uninit_mov

; 435  : 	_RERAISE;

  0004c	6a 00		 push	 0
  0004e	6a 00		 push	 0
  00050	e8 00 00 00 00	 call	 __CxxThrowException@8
$LN33@Uninit_mov:
$LN4@Uninit_mov:

; 436  : 	_CATCH_END
; 437  : 	return (_Dest);

  00055	8b 45 10	 mov	 eax, DWORD PTR __Dest$[ebp]

; 438  : 	}

  00058	e8 00 00 00 00	 call	 __EH_epilog3
  0005d	c3		 ret	 0
$LN31@Uninit_mov:
_TEXT	ENDS
;	COMDAT text$x
text$x	SEGMENT
__ehhandler$??$_Uninit_move@PAUAttackRate@@PAU1@V?$allocator@UAttackRate@@@std@@U1@@std@@YAPAUAttackRate@@PAU1@00AAV?$allocator@UAttackRate@@@0@0U_Nonscalar_ptr_iterator_tag@0@@Z:
  00000	8b 54 24 08	 mov	 edx, DWORD PTR [esp+8]
  00004	8d 42 0c	 lea	 eax, DWORD PTR [edx+12]
  00007	8b 4a e8	 mov	 ecx, DWORD PTR [edx-24]
  0000a	33 c8		 xor	 ecx, eax
  0000c	e8 00 00 00 00	 call	 @__security_check_cookie@4
  00011	b8 00 00 00 00	 mov	 eax, OFFSET __ehfuncinfo$??$_Uninit_move@PAUAttackRate@@PAU1@V?$allocator@UAttackRate@@@std@@U1@@std@@YAPAUAttackRate@@PAU1@00AAV?$allocator@UAttackRate@@@0@0U_Nonscalar_ptr_iterator_tag@0@@Z
  00016	e9 00 00 00 00	 jmp	 ___CxxFrameHandler3
text$x	ENDS
??$_Uninit_move@PAUAttackRate@@PAU1@V?$allocator@UAttackRate@@@std@@U1@@std@@YAPAUAttackRate@@PAU1@00AAV?$allocator@UAttackRate@@@0@0U_Nonscalar_ptr_iterator_tag@0@@Z ENDP ; std::_Uninit_move<AttackRate *,AttackRate *,std::allocator<AttackRate>,AttackRate>
PUBLIC	??$_Destroy_range@V?$allocator@UAttackRate@@@std@@@std@@YAXPAUAttackRate@@0AAV?$allocator@UAttackRate@@@0@@Z ; std::_Destroy_range<std::allocator<AttackRate> >
; Function compile flags: /Ogsp
; File c:\program files (x86)\microsoft visual studio 10.0\vc\include\xmemory
;	COMDAT ??$_Destroy_range@V?$allocator@UAttackRate@@@std@@@std@@YAXPAUAttackRate@@0AAV?$allocator@UAttackRate@@@0@@Z
_TEXT	SEGMENT
__First$ = 8						; size = 4
__Last$ = 12						; size = 4
__Al$ = 16						; size = 4
??$_Destroy_range@V?$allocator@UAttackRate@@@std@@@std@@YAXPAUAttackRate@@0AAV?$allocator@UAttackRate@@@0@@Z PROC ; std::_Destroy_range<std::allocator<AttackRate> >, COMDAT

; 87   : 	{	// destroy [_First, _Last)

  00000	55		 push	 ebp
  00001	8b ec		 mov	 ebp, esp
  00003	56		 push	 esi

; 88   : 	_Destroy_range(_First, _Last, _Al, _Ptr_cat(_First, _Last));

  00004	8b 75 08	 mov	 esi, DWORD PTR __First$[ebp]
  00007	eb 0c		 jmp	 SHORT $LN24@Destroy_ra@2
$LL7@Destroy_ra@2:
  00009	8d 4e 0c	 lea	 ecx, DWORD PTR [esi+12]
  0000c	ff 15 00 00 00
	00		 call	 DWORD PTR __imp_??1ioHashString@@QAE@XZ
  00012	83 c6 1c	 add	 esi, 28			; 0000001cH
$LN24@Destroy_ra@2:
  00015	3b 75 0c	 cmp	 esi, DWORD PTR __Last$[ebp]
  00018	75 ef		 jne	 SHORT $LL7@Destroy_ra@2
  0001a	5e		 pop	 esi

; 89   : 	}

  0001b	5d		 pop	 ebp
  0001c	c3		 ret	 0
??$_Destroy_range@V?$allocator@UAttackRate@@@std@@@std@@YAXPAUAttackRate@@0AAV?$allocator@UAttackRate@@@0@@Z ENDP ; std::_Destroy_range<std::allocator<AttackRate> >
_TEXT	ENDS
PUBLIC	??$_Uninitialized_copy@V?$_Vector_const_iterator@V?$_Vector_val@UAttackRate@@V?$allocator@UAttackRate@@@std@@@std@@@std@@PAUAttackRate@@V?$allocator@UAttackRate@@@2@@std@@YAPAUAttackRate@@V?$_Vector_const_iterator@V?$_Vector_val@UAttackRate@@V?$allocator@UAttackRate@@@std@@@std@@@0@0PAU1@AAV?$allocator@UAttackRate@@@0@@Z ; std::_Uninitialized_copy<std::_Vector_const_iterator<std::_Vector_val<AttackRate,std::allocator<AttackRate> > >,AttackRate *,std::allocator<AttackRate> >
; Function compile flags: /Ogsp
; File c:\program files (x86)\microsoft visual studio 10.0\vc\include\memory
;	COMDAT ??$_Uninitialized_copy@V?$_Vector_const_iterator@V?$_Vector_val@UAttackRate@@V?$allocator@UAttackRate@@@std@@@std@@@std@@PAUAttackRate@@V?$allocator@UAttackRate@@@2@@std@@YAPAUAttackRate@@V?$_Vector_const_iterator@V?$_Vector_val@UAttackRate@@V?$allocator@UAttackRate@@@std@@@std@@@0@0PAU1@AAV?$allocator@UAttackRate@@@0@@Z
_TEXT	SEGMENT
__Cat$527236 = -4					; size = 1
__First$ = 8						; size = 4
__Last$ = 12						; size = 4
__Dest$ = 16						; size = 4
__Al$ = 20						; size = 4
??$_Uninitialized_copy@V?$_Vector_const_iterator@V?$_Vector_val@UAttackRate@@V?$allocator@UAttackRate@@@std@@@std@@@std@@PAUAttackRate@@V?$allocator@UAttackRate@@@2@@std@@YAPAUAttackRate@@V?$_Vector_const_iterator@V?$_Vector_val@UAttackRate@@V?$allocator@UAttackRate@@@std@@@std@@@0@0PAU1@AAV?$allocator@UAttackRate@@@0@@Z PROC ; std::_Uninitialized_copy<std::_Vector_const_iterator<std::_Vector_val<AttackRate,std::allocator<AttackRate> > >,AttackRate *,std::allocator<AttackRate> >, COMDAT

; 412  : 	{	// copy [_First, _Last) to raw _Dest, using _Al

  00000	55		 push	 ebp
  00001	8b ec		 mov	 ebp, esp
  00003	51		 push	 ecx

; 413  : 	return (_Uninit_copy(_First, _Last, _Dest, _Al,
; 414  : 		_Ptr_cat(_First, _Dest)));

  00004	ff 75 fc	 push	 DWORD PTR __Cat$527236[ebp]
  00007	ff 75 14	 push	 DWORD PTR __Al$[ebp]
  0000a	ff 75 10	 push	 DWORD PTR __Dest$[ebp]
  0000d	ff 75 0c	 push	 DWORD PTR __Last$[ebp]
  00010	ff 75 08	 push	 DWORD PTR __First$[ebp]
  00013	e8 00 00 00 00	 call	 ??$_Uninit_copy@V?$_Vector_const_iterator@V?$_Vector_val@UAttackRate@@V?$allocator@UAttackRate@@@std@@@std@@@std@@PAUAttackRate@@V?$allocator@UAttackRate@@@2@@std@@YAPAUAttackRate@@V?$_Vector_const_iterator@V?$_Vector_val@UAttackRate@@V?$allocator@UAttackRate@@@std@@@std@@@0@0PAU1@AAV?$allocator@UAttackRate@@@0@U_Nonscalar_ptr_iterator_tag@0@@Z ; std::_Uninit_copy<std::_Vector_const_iterator<std::_Vector_val<AttackRate,std::allocator<AttackRate> > >,AttackRate *,std::allocator<AttackRate> >
  00018	83 c4 14	 add	 esp, 20			; 00000014H

; 415  : 	}

  0001b	c9		 leave
  0001c	c3		 ret	 0
??$_Uninitialized_copy@V?$_Vector_const_iterator@V?$_Vector_val@UAttackRate@@V?$allocator@UAttackRate@@@std@@@std@@@std@@PAUAttackRate@@V?$allocator@UAttackRate@@@2@@std@@YAPAUAttackRate@@V?$_Vector_const_iterator@V?$_Vector_val@UAttackRate@@V?$allocator@UAttackRate@@@std@@@std@@@0@0PAU1@AAV?$allocator@UAttackRate@@@0@@Z ENDP ; std::_Uninitialized_copy<std::_Vector_const_iterator<std::_Vector_val<AttackRate,std::allocator<AttackRate> > >,AttackRate *,std::allocator<AttackRate> >
_TEXT	ENDS
PUBLIC	??$_Uninitialized_move@PAUAttackRate@@PAU1@V?$allocator@UAttackRate@@@std@@@std@@YAPAUAttackRate@@PAU1@00AAV?$allocator@UAttackRate@@@0@@Z ; std::_Uninitialized_move<AttackRate *,AttackRate *,std::allocator<AttackRate> >
; Function compile flags: /Ogsp
;	COMDAT ??$_Uninitialized_move@PAUAttackRate@@PAU1@V?$allocator@UAttackRate@@@std@@@std@@YAPAUAttackRate@@PAU1@00AAV?$allocator@UAttackRate@@@0@@Z
_TEXT	SEGMENT
__Cat$527243 = -4					; size = 1
__First$ = 8						; size = 4
__Last$ = 12						; size = 4
__Dest$ = 16						; size = 4
__Al$ = 20						; size = 4
??$_Uninitialized_move@PAUAttackRate@@PAU1@V?$allocator@UAttackRate@@@std@@@std@@YAPAUAttackRate@@PAU1@00AAV?$allocator@UAttackRate@@@0@@Z PROC ; std::_Uninitialized_move<AttackRate *,AttackRate *,std::allocator<AttackRate> >, COMDAT

; 469  : 	{	// move [_First, _Last) to raw _Dest, using _Al

  00000	55		 push	 ebp
  00001	8b ec		 mov	 ebp, esp
  00003	51		 push	 ecx

; 470  : 	return (_Uninit_move(_First, _Last, _Dest, _Al,
; 471  : 		_Val_type(_First), _Ptr_cat(_First, _Dest)));

  00004	ff 75 fc	 push	 DWORD PTR __Cat$527243[ebp]
  00007	6a 00		 push	 0
  00009	ff 75 14	 push	 DWORD PTR __Al$[ebp]
  0000c	ff 75 10	 push	 DWORD PTR __Dest$[ebp]
  0000f	ff 75 0c	 push	 DWORD PTR __Last$[ebp]
  00012	ff 75 08	 push	 DWORD PTR __First$[ebp]
  00015	e8 00 00 00 00	 call	 ??$_Uninit_move@PAUAttackRate@@PAU1@V?$allocator@UAttackRate@@@std@@U1@@std@@YAPAUAttackRate@@PAU1@00AAV?$allocator@UAttackRate@@@0@0U_Nonscalar_ptr_iterator_tag@0@@Z ; std::_Uninit_move<AttackRate *,AttackRate *,std::allocator<AttackRate>,AttackRate>
  0001a	83 c4 18	 add	 esp, 24			; 00000018H

; 472  : 	}

  0001d	c9		 leave
  0001e	c3		 ret	 0
??$_Uninitialized_move@PAUAttackRate@@PAU1@V?$allocator@UAttackRate@@@std@@@std@@YAPAUAttackRate@@PAU1@00AAV?$allocator@UAttackRate@@@0@@Z ENDP ; std::_Uninitialized_move<AttackRate *,AttackRate *,std::allocator<AttackRate> >
_TEXT	ENDS
PUBLIC	?_Destroy@?$vector@UAttackRate@@V?$allocator@UAttackRate@@@std@@@std@@IAEXPAUAttackRate@@0@Z ; std::vector<AttackRate,std::allocator<AttackRate> >::_Destroy
; Function compile flags: /Ogsp
; File c:\program files (x86)\microsoft visual studio 10.0\vc\include\vector
;	COMDAT ?_Destroy@?$vector@UAttackRate@@V?$allocator@UAttackRate@@@std@@@std@@IAEXPAUAttackRate@@0@Z
_TEXT	SEGMENT
__First$ = 8						; size = 4
__Last$ = 12						; size = 4
?_Destroy@?$vector@UAttackRate@@V?$allocator@UAttackRate@@@std@@@std@@IAEXPAUAttackRate@@0@Z PROC ; std::vector<AttackRate,std::allocator<AttackRate> >::_Destroy, COMDAT
; _this$ = ecx

; 1269 : 		{	// destroy [_First, _Last) using allocator

  00000	55		 push	 ebp
  00001	8b ec		 mov	 ebp, esp

; 1270 : 		_Destroy_range(_First, _Last, this->_Alval);

  00003	83 c1 0c	 add	 ecx, 12			; 0000000cH
  00006	51		 push	 ecx
  00007	ff 75 0c	 push	 DWORD PTR __Last$[ebp]
  0000a	ff 75 08	 push	 DWORD PTR __First$[ebp]
  0000d	e8 00 00 00 00	 call	 ??$_Destroy_range@V?$allocator@UAttackRate@@@std@@@std@@YAXPAUAttackRate@@0AAV?$allocator@UAttackRate@@@0@@Z ; std::_Destroy_range<std::allocator<AttackRate> >
  00012	83 c4 0c	 add	 esp, 12			; 0000000cH

; 1271 : 		}

  00015	5d		 pop	 ebp
  00016	c2 08 00	 ret	 8
?_Destroy@?$vector@UAttackRate@@V?$allocator@UAttackRate@@@std@@@std@@IAEXPAUAttackRate@@0@Z ENDP ; std::vector<AttackRate,std::allocator<AttackRate> >::_Destroy
_TEXT	ENDS
PUBLIC	??$_Ucopy@V?$_Vector_const_iterator@V?$_Vector_val@UAttackRate@@V?$allocator@UAttackRate@@@std@@@std@@@std@@@?$vector@UAttackRate@@V?$allocator@UAttackRate@@@std@@@std@@IAEPAUAttackRate@@V?$_Vector_const_iterator@V?$_Vector_val@UAttackRate@@V?$allocator@UAttackRate@@@std@@@std@@@1@0PAU2@@Z ; std::vector<AttackRate,std::allocator<AttackRate> >::_Ucopy<std::_Vector_const_iterator<std::_Vector_val<AttackRate,std::allocator<AttackRate> > > >
; Function compile flags: /Ogsp
;	COMDAT ??$_Ucopy@V?$_Vector_const_iterator@V?$_Vector_val@UAttackRate@@V?$allocator@UAttackRate@@@std@@@std@@@std@@@?$vector@UAttackRate@@V?$allocator@UAttackRate@@@std@@@std@@IAEPAUAttackRate@@V?$_Vector_const_iterator@V?$_Vector_val@UAttackRate@@V?$allocator@UAttackRate@@@std@@@std@@@1@0PAU2@@Z
_TEXT	SEGMENT
__First$ = 8						; size = 4
__Last$ = 12						; size = 4
__Cat$527262 = 16					; size = 1
__Ptr$ = 16						; size = 4
??$_Ucopy@V?$_Vector_const_iterator@V?$_Vector_val@UAttackRate@@V?$allocator@UAttackRate@@@std@@@std@@@std@@@?$vector@UAttackRate@@V?$allocator@UAttackRate@@@std@@@std@@IAEPAUAttackRate@@V?$_Vector_const_iterator@V?$_Vector_val@UAttackRate@@V?$allocator@UAttackRate@@@std@@@std@@@1@0PAU2@@Z PROC ; std::vector<AttackRate,std::allocator<AttackRate> >::_Ucopy<std::_Vector_const_iterator<std::_Vector_val<AttackRate,std::allocator<AttackRate> > > >, COMDAT
; _this$ = ecx

; 1315 : 		pointer _Ucopy(_Iter _First, _Iter _Last, pointer _Ptr)

  00000	55		 push	 ebp
  00001	8b ec		 mov	 ebp, esp

; 1316 : 		{	// copy initializing [_First, _Last), using allocator
; 1317 : 		return (_Uninitialized_copy(_First, _Last,
; 1318 : 			_Ptr, this->_Alval));

  00003	ff 75 10	 push	 DWORD PTR __Cat$527262[ebp]
  00006	83 c1 0c	 add	 ecx, 12			; 0000000cH
  00009	51		 push	 ecx
  0000a	ff 75 10	 push	 DWORD PTR __Ptr$[ebp]
  0000d	ff 75 0c	 push	 DWORD PTR __Last$[ebp]
  00010	ff 75 08	 push	 DWORD PTR __First$[ebp]
  00013	e8 00 00 00 00	 call	 ??$_Uninit_copy@V?$_Vector_const_iterator@V?$_Vector_val@UAttackRate@@V?$allocator@UAttackRate@@@std@@@std@@@std@@PAUAttackRate@@V?$allocator@UAttackRate@@@2@@std@@YAPAUAttackRate@@V?$_Vector_const_iterator@V?$_Vector_val@UAttackRate@@V?$allocator@UAttackRate@@@std@@@std@@@0@0PAU1@AAV?$allocator@UAttackRate@@@0@U_Nonscalar_ptr_iterator_tag@0@@Z ; std::_Uninit_copy<std::_Vector_const_iterator<std::_Vector_val<AttackRate,std::allocator<AttackRate> > >,AttackRate *,std::allocator<AttackRate> >
  00018	83 c4 14	 add	 esp, 20			; 00000014H

; 1319 : 		}

  0001b	5d		 pop	 ebp
  0001c	c2 0c 00	 ret	 12			; 0000000cH
??$_Ucopy@V?$_Vector_const_iterator@V?$_Vector_val@UAttackRate@@V?$allocator@UAttackRate@@@std@@@std@@@std@@@?$vector@UAttackRate@@V?$allocator@UAttackRate@@@std@@@std@@IAEPAUAttackRate@@V?$_Vector_const_iterator@V?$_Vector_val@UAttackRate@@V?$allocator@UAttackRate@@@std@@@std@@@1@0PAU2@@Z ENDP ; std::vector<AttackRate,std::allocator<AttackRate> >::_Ucopy<std::_Vector_const_iterator<std::_Vector_val<AttackRate,std::allocator<AttackRate> > > >
_TEXT	ENDS
PUBLIC	??$_Umove@PAUAttackRate@@@?$vector@UAttackRate@@V?$allocator@UAttackRate@@@std@@@std@@IAEPAUAttackRate@@PAU2@00@Z ; std::vector<AttackRate,std::allocator<AttackRate> >::_Umove<AttackRate *>
; Function compile flags: /Ogsp
;	COMDAT ??$_Umove@PAUAttackRate@@@?$vector@UAttackRate@@V?$allocator@UAttackRate@@@std@@@std@@IAEPAUAttackRate@@PAU2@00@Z
_TEXT	SEGMENT
__First$ = 8						; size = 4
__Last$ = 12						; size = 4
__Ptr$ = 16						; size = 4
??$_Umove@PAUAttackRate@@@?$vector@UAttackRate@@V?$allocator@UAttackRate@@@std@@@std@@IAEPAUAttackRate@@PAU2@00@Z PROC ; std::vector<AttackRate,std::allocator<AttackRate> >::_Umove<AttackRate *>, COMDAT
; _this$ = ecx

; 1322 : 		pointer _Umove(_Iter _First, _Iter _Last, pointer _Ptr)

  00000	55		 push	 ebp
  00001	8b ec		 mov	 ebp, esp

; 1323 : 		{	// move initializing [_First, _Last), using allocator
; 1324 : 		return (_Uninitialized_move(_First, _Last,
; 1325 : 			_Ptr, this->_Alval));

  00003	83 c1 0c	 add	 ecx, 12			; 0000000cH
  00006	51		 push	 ecx
  00007	ff 75 10	 push	 DWORD PTR __Ptr$[ebp]
  0000a	ff 75 0c	 push	 DWORD PTR __Last$[ebp]
  0000d	ff 75 08	 push	 DWORD PTR __First$[ebp]
  00010	e8 00 00 00 00	 call	 ??$_Uninitialized_move@PAUAttackRate@@PAU1@V?$allocator@UAttackRate@@@std@@@std@@YAPAUAttackRate@@PAU1@00AAV?$allocator@UAttackRate@@@0@@Z ; std::_Uninitialized_move<AttackRate *,AttackRate *,std::allocator<AttackRate> >
  00015	83 c4 10	 add	 esp, 16			; 00000010H

; 1326 : 		}

  00018	5d		 pop	 ebp
  00019	c2 0c 00	 ret	 12			; 0000000cH
??$_Umove@PAUAttackRate@@@?$vector@UAttackRate@@V?$allocator@UAttackRate@@@std@@@std@@IAEPAUAttackRate@@PAU2@00@Z ENDP ; std::vector<AttackRate,std::allocator<AttackRate> >::_Umove<AttackRate *>
_TEXT	ENDS
PUBLIC	?erase@?$vector@UAttackRate@@V?$allocator@UAttackRate@@@std@@@std@@QAE?AV?$_Vector_iterator@V?$_Vector_val@UAttackRate@@V?$allocator@UAttackRate@@@std@@@std@@@2@V?$_Vector_const_iterator@V?$_Vector_val@UAttackRate@@V?$allocator@UAttackRate@@@std@@@std@@@2@0@Z ; std::vector<AttackRate,std::allocator<AttackRate> >::erase
; Function compile flags: /Ogsp
;	COMDAT ?erase@?$vector@UAttackRate@@V?$allocator@UAttackRate@@@std@@@std@@QAE?AV?$_Vector_iterator@V?$_Vector_val@UAttackRate@@V?$allocator@UAttackRate@@@std@@@std@@@2@V?$_Vector_const_iterator@V?$_Vector_val@UAttackRate@@V?$allocator@UAttackRate@@@std@@@std@@@2@0@Z
_TEXT	SEGMENT
___$ReturnUdt$ = 8					; size = 4
__First_arg$ = 12					; size = 4
__Cat$527343 = 16					; size = 1
__Last_arg$ = 16					; size = 4
?erase@?$vector@UAttackRate@@V?$allocator@UAttackRate@@@std@@@std@@QAE?AV?$_Vector_iterator@V?$_Vector_val@UAttackRate@@V?$allocator@UAttackRate@@@std@@@std@@@2@V?$_Vector_const_iterator@V?$_Vector_val@UAttackRate@@V?$allocator@UAttackRate@@@std@@@std@@@2@0@Z PROC ; std::vector<AttackRate,std::allocator<AttackRate> >::erase, COMDAT
; _this$ = ecx

; 1190 : 		{	// erase [_First, _Last)

  00000	55		 push	 ebp
  00001	8b ec		 mov	 ebp, esp

; 1191 : 		iterator _First = _Make_iter(_First_arg);

  00003	8b 45 0c	 mov	 eax, DWORD PTR __First_arg$[ebp]
  00006	53		 push	 ebx
  00007	8b 5d 08	 mov	 ebx, DWORD PTR ___$ReturnUdt$[ebp]
  0000a	56		 push	 esi
  0000b	8b f1		 mov	 esi, ecx
  0000d	89 03		 mov	 DWORD PTR [ebx], eax

; 1192 : 		iterator _Last = _Make_iter(_Last_arg);
; 1193 : 
; 1194 : 		if (_First != _Last)

  0000f	3b 45 10	 cmp	 eax, DWORD PTR __Last_arg$[ebp]
  00012	74 27		 je	 SHORT $LN1@erase

; 1195 : 			{	// worth doing, copy down over hole
; 1196 :  #if _ITERATOR_DEBUG_LEVEL == 2
; 1197 : 			if (_Last < _First || _VICONT(_First) != this
; 1198 : 				|| _VIPTR(_First) < this->_Myfirst
; 1199 : 				|| this->_Mylast < _VIPTR(_Last))
; 1200 : 				_DEBUG_ERROR("vector erase iterator outside range");
; 1201 : 			pointer _Ptr = _Move(_VIPTR(_Last), this->_Mylast,
; 1202 : 				_VIPTR(_First));
; 1203 : 			_Orphan_range(_VIPTR(_First), this->_Mylast);
; 1204 : 
; 1205 :  #else /* _ITERATOR_DEBUG_LEVEL == 2 */
; 1206 : 			pointer _Ptr = _Move(_VIPTR(_Last), this->_Mylast,
; 1207 : 				_VIPTR(_First));

  00014	8b 4e 04	 mov	 ecx, DWORD PTR [esi+4]
  00017	57		 push	 edi
  00018	ff 75 10	 push	 DWORD PTR __Cat$527343[ebp]
  0001b	50		 push	 eax
  0001c	51		 push	 ecx
  0001d	ff 75 10	 push	 DWORD PTR __Last_arg$[ebp]
  00020	e8 00 00 00 00	 call	 ??$_Move@PAUAttackRate@@PAU1@@std@@YAPAUAttackRate@@PAU1@00U_Nonscalar_ptr_iterator_tag@0@@Z ; std::_Move<AttackRate *,AttackRate *>
  00025	8b f8		 mov	 edi, eax

; 1208 :  #endif /* _ITERATOR_DEBUG_LEVEL == 2 */
; 1209 : 
; 1210 : 			_Destroy(_Ptr, this->_Mylast);

  00027	8d 46 0c	 lea	 eax, DWORD PTR [esi+12]
  0002a	50		 push	 eax
  0002b	ff 76 04	 push	 DWORD PTR [esi+4]
  0002e	57		 push	 edi
  0002f	e8 00 00 00 00	 call	 ??$_Destroy_range@V?$allocator@UAttackRate@@@std@@@std@@YAXPAUAttackRate@@0AAV?$allocator@UAttackRate@@@0@@Z ; std::_Destroy_range<std::allocator<AttackRate> >
  00034	83 c4 1c	 add	 esp, 28			; 0000001cH

; 1211 : 			this->_Mylast = _Ptr;

  00037	89 7e 04	 mov	 DWORD PTR [esi+4], edi
  0003a	5f		 pop	 edi
$LN1@erase:

; 1212 : 			}
; 1213 : 		return (_First);

  0003b	5e		 pop	 esi
  0003c	8b c3		 mov	 eax, ebx
  0003e	5b		 pop	 ebx

; 1214 : 		}

  0003f	5d		 pop	 ebp
  00040	c2 0c 00	 ret	 12			; 0000000cH
?erase@?$vector@UAttackRate@@V?$allocator@UAttackRate@@@std@@@std@@QAE?AV?$_Vector_iterator@V?$_Vector_val@UAttackRate@@V?$allocator@UAttackRate@@@std@@@std@@@2@V?$_Vector_const_iterator@V?$_Vector_val@UAttackRate@@V?$allocator@UAttackRate@@@std@@@std@@@2@0@Z ENDP ; std::vector<AttackRate,std::allocator<AttackRate> >::erase
_TEXT	ENDS
PUBLIC	?_Tidy@?$vector@UAttackRate@@V?$allocator@UAttackRate@@@std@@@std@@IAEXXZ ; std::vector<AttackRate,std::allocator<AttackRate> >::_Tidy
EXTRN	__imp_?_Orphan_all@_Container_base0@std@@QAEXXZ:PROC
; Function compile flags: /Ogsp
;	COMDAT ?_Tidy@?$vector@UAttackRate@@V?$allocator@UAttackRate@@@std@@@std@@IAEXXZ
_TEXT	SEGMENT
?_Tidy@?$vector@UAttackRate@@V?$allocator@UAttackRate@@@std@@@std@@IAEXXZ PROC ; std::vector<AttackRate,std::allocator<AttackRate> >::_Tidy, COMDAT
; _this$ = ecx

; 1301 : 		{	// free all storage

  00000	56		 push	 esi
  00001	8b f1		 mov	 esi, ecx

; 1302 : 		if (this->_Myfirst != 0)

  00003	83 3e 00	 cmp	 DWORD PTR [esi], 0
  00006	74 1e		 je	 SHORT $LN6@Tidy

; 1303 : 			{	// something to free, destroy and deallocate it
; 1304 : 			this->_Orphan_all();

  00008	ff 15 00 00 00
	00		 call	 DWORD PTR __imp_?_Orphan_all@_Container_base0@std@@QAEXXZ

; 1305 : 			_Destroy(this->_Myfirst, this->_Mylast);

  0000e	8d 46 0c	 lea	 eax, DWORD PTR [esi+12]
  00011	50		 push	 eax
  00012	ff 76 04	 push	 DWORD PTR [esi+4]
  00015	ff 36		 push	 DWORD PTR [esi]
  00017	e8 00 00 00 00	 call	 ??$_Destroy_range@V?$allocator@UAttackRate@@@std@@@std@@YAXPAUAttackRate@@0AAV?$allocator@UAttackRate@@@0@@Z ; std::_Destroy_range<std::allocator<AttackRate> >

; 1306 : 			this->_Alval.deallocate(this->_Myfirst,
; 1307 : 				this->_Myend - this->_Myfirst);

  0001c	ff 36		 push	 DWORD PTR [esi]
  0001e	e8 00 00 00 00	 call	 ??3@YAXPAX@Z		; operator delete
  00023	83 c4 10	 add	 esp, 16			; 00000010H
$LN6@Tidy:

; 1308 : 			}
; 1309 : 		this->_Myfirst = 0;

  00026	83 26 00	 and	 DWORD PTR [esi], 0

; 1310 : 		this->_Mylast = 0;

  00029	83 66 04 00	 and	 DWORD PTR [esi+4], 0

; 1311 : 		this->_Myend = 0;

  0002d	83 66 08 00	 and	 DWORD PTR [esi+8], 0
  00031	5e		 pop	 esi

; 1312 : 		}

  00032	c3		 ret	 0
?_Tidy@?$vector@UAttackRate@@V?$allocator@UAttackRate@@@std@@@std@@IAEXXZ ENDP ; std::vector<AttackRate,std::allocator<AttackRate> >::_Tidy
_TEXT	ENDS
PUBLIC	?reserve@?$vector@UAttackRate@@V?$allocator@UAttackRate@@@std@@@std@@QAEXI@Z ; std::vector<AttackRate,std::allocator<AttackRate> >::reserve
;	COMDAT xdata$x
; File c:\program files (x86)\microsoft visual studio 10.0\vc\include\xmemory
xdata$x	SEGMENT
__catchsym$?reserve@?$vector@UAttackRate@@V?$allocator@UAttackRate@@@std@@@std@@QAEXI@Z$2 DD 040H
	DD	00H
	DD	00H
	DD	FLAT:__catch$?reserve@?$vector@UAttackRate@@V?$allocator@UAttackRate@@@std@@@std@@QAEXI@Z$0
__unwindtable$?reserve@?$vector@UAttackRate@@V?$allocator@UAttackRate@@@std@@@std@@QAEXI@Z DD 0ffffffffH
	DD	00H
	DD	0ffffffffH
	DD	00H
__tryblocktable$?reserve@?$vector@UAttackRate@@V?$allocator@UAttackRate@@@std@@@std@@QAEXI@Z DD 00H
	DD	00H
	DD	01H
	DD	01H
	DD	FLAT:__catchsym$?reserve@?$vector@UAttackRate@@V?$allocator@UAttackRate@@@std@@@std@@QAEXI@Z$2
__ehfuncinfo$?reserve@?$vector@UAttackRate@@V?$allocator@UAttackRate@@@std@@@std@@QAEXI@Z DD 019930522H
	DD	02H
	DD	FLAT:__unwindtable$?reserve@?$vector@UAttackRate@@V?$allocator@UAttackRate@@@std@@@std@@QAEXI@Z
	DD	01H
	DD	FLAT:__tryblocktable$?reserve@?$vector@UAttackRate@@V?$allocator@UAttackRate@@@std@@@std@@QAEXI@Z
	DD	2 DUP(00H)
	DD	00H
	DD	01H
; Function compile flags: /Ogsp
; File c:\program files (x86)\microsoft visual studio 10.0\vc\include\vector
xdata$x	ENDS
;	COMDAT ?reserve@?$vector@UAttackRate@@V?$allocator@UAttackRate@@@std@@@std@@QAEXI@Z
_TEXT	SEGMENT
__$EHRec$ = -16						; size = 16
__Ptr$524641 = 8					; size = 4
__Count$ = 8						; size = 4
?reserve@?$vector@UAttackRate@@V?$allocator@UAttackRate@@@std@@@std@@QAEXI@Z PROC ; std::vector<AttackRate,std::allocator<AttackRate> >::reserve, COMDAT
; _this$ = ecx

; 746  : 		{	// determine new minimum length of allocated storage

  00000	6a 04		 push	 4
  00002	b8 00 00 00 00	 mov	 eax, __ehhandler$?reserve@?$vector@UAttackRate@@V?$allocator@UAttackRate@@@std@@@std@@QAEXI@Z
  00007	e8 00 00 00 00	 call	 __EH_prolog3_catch
  0000c	8b f1		 mov	 esi, ecx

; 747  : 		if (max_size() < _Count)

  0000e	8b 5d 08	 mov	 ebx, DWORD PTR __Count$[ebp]
  00011	81 fb 49 92 24
	09		 cmp	 ebx, 153391689		; 09249249H
  00017	76 0b		 jbe	 SHORT $LN5@reserve

; 748  : 			_Xlen();	// result too long

  00019	68 00 00 00 00	 push	 OFFSET ??_C@_0BD@OLBABOEK@vector?$DMT?$DO?5too?5long?$AA@
  0001e	ff 15 00 00 00
	00		 call	 DWORD PTR __imp_?_Xlength_error@std@@YAXPBD@Z
$LN38@reserve:
$LN5@reserve:

; 749  : 		else if (capacity() < _Count)

  00024	8b 46 08	 mov	 eax, DWORD PTR [esi+8]
  00027	2b 06		 sub	 eax, DWORD PTR [esi]
  00029	6a 1c		 push	 28			; 0000001cH
  0002b	99		 cdq
  0002c	59		 pop	 ecx
  0002d	f7 f9		 idiv	 ecx
  0002f	3b c3		 cmp	 eax, ebx
  00031	73 70		 jae	 SHORT $LN3@reserve

; 750  : 			{	// not enough room, reallocate
; 751  : 			pointer _Ptr = this->_Alval.allocate(_Count);

  00033	6a 00		 push	 0
  00035	53		 push	 ebx
  00036	e8 00 00 00 00	 call	 ??$_Allocate@UAttackRate@@@std@@YAPAUAttackRate@@IPAU1@@Z ; std::_Allocate<AttackRate>

; 752  : 
; 753  : 			_TRY_BEGIN
; 754  : 			_Umove(this->_Myfirst, this->_Mylast, _Ptr);

  0003b	8b 0e		 mov	 ecx, DWORD PTR [esi]
  0003d	83 65 fc 00	 and	 DWORD PTR __$EHRec$[ebp+12], 0
  00041	8d 56 0c	 lea	 edx, DWORD PTR [esi+12]
  00044	52		 push	 edx
  00045	89 45 08	 mov	 DWORD PTR __Ptr$524641[ebp], eax
  00048	ff 75 08	 push	 DWORD PTR __Ptr$524641[ebp]
  0004b	8b 46 04	 mov	 eax, DWORD PTR [esi+4]
  0004e	50		 push	 eax
  0004f	51		 push	 ecx
  00050	e8 00 00 00 00	 call	 ??$_Uninitialized_move@PAUAttackRate@@PAU1@V?$allocator@UAttackRate@@@std@@@std@@YAPAUAttackRate@@PAU1@00AAV?$allocator@UAttackRate@@@0@@Z ; std::_Uninitialized_move<AttackRate *,AttackRate *,std::allocator<AttackRate> >

; 758  : 			_CATCH_END
; 759  : 
; 760  : 			size_type _Size = size();

  00055	8b 0e		 mov	 ecx, DWORD PTR [esi]
  00057	8b 46 04	 mov	 eax, DWORD PTR [esi+4]
  0005a	83 c4 18	 add	 esp, 24			; 00000018H
  0005d	2b c1		 sub	 eax, ecx
  0005f	6a 1c		 push	 28			; 0000001cH
  00061	99		 cdq
  00062	5f		 pop	 edi
  00063	f7 ff		 idiv	 edi
  00065	83 4d fc ff	 or	 DWORD PTR __$EHRec$[ebp+12], -1
  00069	8b f8		 mov	 edi, eax
  0006b	85 c9		 test	 ecx, ecx
  0006d	74 17		 je	 SHORT $LN33@reserve

; 761  : 			if (this->_Myfirst != 0)
; 762  : 				{	// destroy and deallocate old array
; 763  : 				_Destroy(this->_Myfirst, this->_Mylast);

  0006f	8d 46 0c	 lea	 eax, DWORD PTR [esi+12]
  00072	50		 push	 eax
  00073	ff 76 04	 push	 DWORD PTR [esi+4]
  00076	51		 push	 ecx
  00077	e8 00 00 00 00	 call	 ??$_Destroy_range@V?$allocator@UAttackRate@@@std@@@std@@YAXPAUAttackRate@@0AAV?$allocator@UAttackRate@@@0@@Z ; std::_Destroy_range<std::allocator<AttackRate> >

; 764  : 				this->_Alval.deallocate(this->_Myfirst,
; 765  : 					this->_Myend - this->_Myfirst);

  0007c	ff 36		 push	 DWORD PTR [esi]
  0007e	e8 00 00 00 00	 call	 ??3@YAXPAX@Z		; operator delete
  00083	83 c4 10	 add	 esp, 16			; 00000010H
$LN33@reserve:

; 766  : 				}
; 767  : 
; 768  : 			this->_Orphan_all();

  00086	8b ce		 mov	 ecx, esi
  00088	ff 15 00 00 00
	00		 call	 DWORD PTR __imp_?_Orphan_all@_Container_base0@std@@QAEXXZ

; 769  : 			this->_Myend = _Ptr + _Count;

  0008e	6b db 1c	 imul	 ebx, 28			; 0000001cH

; 770  : 			this->_Mylast = _Ptr + _Size;

  00091	6b ff 1c	 imul	 edi, 28			; 0000001cH
  00094	8b 45 08	 mov	 eax, DWORD PTR __Ptr$524641[ebp]
  00097	03 d8		 add	 ebx, eax
  00099	03 f8		 add	 edi, eax
  0009b	89 5e 08	 mov	 DWORD PTR [esi+8], ebx
  0009e	89 7e 04	 mov	 DWORD PTR [esi+4], edi

; 771  : 			this->_Myfirst = _Ptr;

  000a1	89 06		 mov	 DWORD PTR [esi], eax
$LN3@reserve:

; 772  : 			}
; 773  : 		}

  000a3	e8 00 00 00 00	 call	 __EH_epilog3
  000a8	c2 04 00	 ret	 4
__catch$?reserve@?$vector@UAttackRate@@V?$allocator@UAttackRate@@@std@@@std@@QAEXI@Z$0:

; 755  : 			_CATCH_ALL
; 756  : 			this->_Alval.deallocate(_Ptr, _Count);

  000ab	ff 75 08	 push	 DWORD PTR __Ptr$524641[ebp]
  000ae	e8 00 00 00 00	 call	 ??3@YAXPAX@Z		; operator delete
  000b3	59		 pop	 ecx

; 757  : 			_RERAISE;

  000b4	6a 00		 push	 0
  000b6	6a 00		 push	 0
  000b8	e8 00 00 00 00	 call	 __CxxThrowException@8
$LN39@reserve:
$LN37@reserve:
  000bd	cc		 int	 3
_TEXT	ENDS
;	COMDAT text$x
text$x	SEGMENT
__ehhandler$?reserve@?$vector@UAttackRate@@V?$allocator@UAttackRate@@@std@@@std@@QAEXI@Z:
  00000	8b 54 24 08	 mov	 edx, DWORD PTR [esp+8]
  00004	8d 42 0c	 lea	 eax, DWORD PTR [edx+12]
  00007	8b 4a ec	 mov	 ecx, DWORD PTR [edx-20]
  0000a	33 c8		 xor	 ecx, eax
  0000c	e8 00 00 00 00	 call	 @__security_check_cookie@4
  00011	b8 00 00 00 00	 mov	 eax, OFFSET __ehfuncinfo$?reserve@?$vector@UAttackRate@@V?$allocator@UAttackRate@@@std@@@std@@QAEXI@Z
  00016	e9 00 00 00 00	 jmp	 ___CxxFrameHandler3
text$x	ENDS
?reserve@?$vector@UAttackRate@@V?$allocator@UAttackRate@@@std@@@std@@QAEXI@Z ENDP ; std::vector<AttackRate,std::allocator<AttackRate> >::reserve
PUBLIC	??0?$vector@UAttackRate@@V?$allocator@UAttackRate@@@std@@@std@@QAE@ABV01@@Z ; std::vector<AttackRate,std::allocator<AttackRate> >::vector<AttackRate,std::allocator<AttackRate> >
;	COMDAT xdata$x
; File c:\program files (x86)\microsoft visual studio 10.0\vc\include\xutility
xdata$x	SEGMENT
__catchsym$??0?$vector@UAttackRate@@V?$allocator@UAttackRate@@@std@@@std@@QAE@ABV01@@Z$2 DD 040H
	DD	00H
	DD	00H
	DD	FLAT:__catch$??0?$vector@UAttackRate@@V?$allocator@UAttackRate@@@std@@@std@@QAE@ABV01@@Z$0
__unwindtable$??0?$vector@UAttackRate@@V?$allocator@UAttackRate@@@std@@@std@@QAE@ABV01@@Z DD 0ffffffffH
	DD	00H
	DD	0ffffffffH
	DD	00H
__tryblocktable$??0?$vector@UAttackRate@@V?$allocator@UAttackRate@@@std@@@std@@QAE@ABV01@@Z DD 00H
	DD	00H
	DD	01H
	DD	01H
	DD	FLAT:__catchsym$??0?$vector@UAttackRate@@V?$allocator@UAttackRate@@@std@@@std@@QAE@ABV01@@Z$2
__ehfuncinfo$??0?$vector@UAttackRate@@V?$allocator@UAttackRate@@@std@@@std@@QAE@ABV01@@Z DD 019930522H
	DD	02H
	DD	FLAT:__unwindtable$??0?$vector@UAttackRate@@V?$allocator@UAttackRate@@@std@@@std@@QAE@ABV01@@Z
	DD	01H
	DD	FLAT:__tryblocktable$??0?$vector@UAttackRate@@V?$allocator@UAttackRate@@@std@@@std@@QAE@ABV01@@Z
	DD	2 DUP(00H)
	DD	00H
	DD	01H
; Function compile flags: /Ogsp
; File c:\program files (x86)\microsoft visual studio 10.0\vc\include\vector
xdata$x	ENDS
;	COMDAT ??0?$vector@UAttackRate@@V?$allocator@UAttackRate@@@std@@@std@@QAE@ABV01@@Z
_TEXT	SEGMENT
_this$ = -20						; size = 4
__$EHRec$ = -16						; size = 16
__Cat$527508 = 8					; size = 1
__Right$ = 8						; size = 4
??0?$vector@UAttackRate@@V?$allocator@UAttackRate@@@std@@@std@@QAE@ABV01@@Z PROC ; std::vector<AttackRate,std::allocator<AttackRate> >::vector<AttackRate,std::allocator<AttackRate> >, COMDAT
; _this$ = ecx

; 535  : 		{	// construct by copying _Right

  00000	6a 08		 push	 8
  00002	b8 00 00 00 00	 mov	 eax, __ehhandler$??0?$vector@UAttackRate@@V?$allocator@UAttackRate@@@std@@@std@@QAE@ABV01@@Z
  00007	e8 00 00 00 00	 call	 __EH_prolog3_catch
  0000c	8b f1		 mov	 esi, ecx
  0000e	89 75 ec	 mov	 DWORD PTR _this$[ebp], esi

; 536  : 		if (_Buy(_Right.size()))

  00011	8b 7d 08	 mov	 edi, DWORD PTR __Right$[ebp]
  00014	33 db		 xor	 ebx, ebx
  00016	89 1e		 mov	 DWORD PTR [esi], ebx
  00018	89 5e 04	 mov	 DWORD PTR [esi+4], ebx
  0001b	89 5e 08	 mov	 DWORD PTR [esi+8], ebx
  0001e	8b 47 04	 mov	 eax, DWORD PTR [edi+4]
  00021	2b 07		 sub	 eax, DWORD PTR [edi]
  00023	6a 1c		 push	 28			; 0000001cH
  00025	59		 pop	 ecx
  00026	99		 cdq
  00027	f7 f9		 idiv	 ecx
  00029	8b ce		 mov	 ecx, esi
  0002b	50		 push	 eax
  0002c	e8 00 00 00 00	 call	 ?_Buy@?$vector@UAttackRate@@V?$allocator@UAttackRate@@@std@@@std@@IAE_NI@Z ; std::vector<AttackRate,std::allocator<AttackRate> >::_Buy
  00031	84 c0		 test	 al, al
  00033	74 1f		 je	 SHORT $LN7@vector

; 537  : 			_TRY_BEGIN
; 538  : 			this->_Mylast = _Ucopy(_Right.begin(), _Right.end(),
; 539  : 				this->_Myfirst);

  00035	ff 75 08	 push	 DWORD PTR __Cat$527508[ebp]
  00038	8b 0e		 mov	 ecx, DWORD PTR [esi]
  0003a	8b 47 04	 mov	 eax, DWORD PTR [edi+4]
  0003d	8b 3f		 mov	 edi, DWORD PTR [edi]
  0003f	8d 56 0c	 lea	 edx, DWORD PTR [esi+12]
  00042	52		 push	 edx
  00043	51		 push	 ecx
  00044	50		 push	 eax
  00045	57		 push	 edi
  00046	89 5d fc	 mov	 DWORD PTR __$EHRec$[ebp+12], ebx
  00049	e8 00 00 00 00	 call	 ??$_Uninit_copy@V?$_Vector_const_iterator@V?$_Vector_val@UAttackRate@@V?$allocator@UAttackRate@@@std@@@std@@@std@@PAUAttackRate@@V?$allocator@UAttackRate@@@2@@std@@YAPAUAttackRate@@V?$_Vector_const_iterator@V?$_Vector_val@UAttackRate@@V?$allocator@UAttackRate@@@std@@@std@@@0@0PAU1@AAV?$allocator@UAttackRate@@@0@U_Nonscalar_ptr_iterator_tag@0@@Z ; std::_Uninit_copy<std::_Vector_const_iterator<std::_Vector_val<AttackRate,std::allocator<AttackRate> > >,AttackRate *,std::allocator<AttackRate> >
  0004e	83 c4 14	 add	 esp, 20			; 00000014H
  00051	89 46 04	 mov	 DWORD PTR [esi+4], eax
$LN7@vector:

; 543  : 			_CATCH_END
; 544  : 		}

  00054	8b c6		 mov	 eax, esi
  00056	e8 00 00 00 00	 call	 __EH_epilog3
  0005b	c2 04 00	 ret	 4
__catch$??0?$vector@UAttackRate@@V?$allocator@UAttackRate@@@std@@@std@@QAE@ABV01@@Z$0:

; 540  : 			_CATCH_ALL
; 541  : 			_Tidy();

  0005e	8b 4d ec	 mov	 ecx, DWORD PTR _this$[ebp]
  00061	e8 00 00 00 00	 call	 ?_Tidy@?$vector@UAttackRate@@V?$allocator@UAttackRate@@@std@@@std@@IAEXXZ ; std::vector<AttackRate,std::allocator<AttackRate> >::_Tidy

; 542  : 			_RERAISE;

  00066	33 db		 xor	 ebx, ebx
  00068	53		 push	 ebx
  00069	53		 push	 ebx
  0006a	e8 00 00 00 00	 call	 __CxxThrowException@8
$LN38@vector:
$LN37@vector:
  0006f	cc		 int	 3
_TEXT	ENDS
;	COMDAT text$x
text$x	SEGMENT
__ehhandler$??0?$vector@UAttackRate@@V?$allocator@UAttackRate@@@std@@@std@@QAE@ABV01@@Z:
  00000	8b 54 24 08	 mov	 edx, DWORD PTR [esp+8]
  00004	8d 42 0c	 lea	 eax, DWORD PTR [edx+12]
  00007	8b 4a e8	 mov	 ecx, DWORD PTR [edx-24]
  0000a	33 c8		 xor	 ecx, eax
  0000c	e8 00 00 00 00	 call	 @__security_check_cookie@4
  00011	b8 00 00 00 00	 mov	 eax, OFFSET __ehfuncinfo$??0?$vector@UAttackRate@@V?$allocator@UAttackRate@@@std@@@std@@QAE@ABV01@@Z
  00016	e9 00 00 00 00	 jmp	 ___CxxFrameHandler3
text$x	ENDS
??0?$vector@UAttackRate@@V?$allocator@UAttackRate@@@std@@@std@@QAE@ABV01@@Z ENDP ; std::vector<AttackRate,std::allocator<AttackRate> >::vector<AttackRate,std::allocator<AttackRate> >
PUBLIC	??1?$vector@UAttackRate@@V?$allocator@UAttackRate@@@std@@@std@@QAE@XZ ; std::vector<AttackRate,std::allocator<AttackRate> >::~vector<AttackRate,std::allocator<AttackRate> >
; Function compile flags: /Ogsp
;	COMDAT ??1?$vector@UAttackRate@@V?$allocator@UAttackRate@@@std@@@std@@QAE@XZ
_TEXT	SEGMENT
??1?$vector@UAttackRate@@V?$allocator@UAttackRate@@@std@@@std@@QAE@XZ PROC ; std::vector<AttackRate,std::allocator<AttackRate> >::~vector<AttackRate,std::allocator<AttackRate> >, COMDAT
; _this$ = ecx

; 705  : 		_Tidy();

  00000	e9 00 00 00 00	 jmp	 ?_Tidy@?$vector@UAttackRate@@V?$allocator@UAttackRate@@@std@@@std@@IAEXXZ ; std::vector<AttackRate,std::allocator<AttackRate> >::_Tidy
??1?$vector@UAttackRate@@V?$allocator@UAttackRate@@@std@@@std@@QAE@XZ ENDP ; std::vector<AttackRate,std::allocator<AttackRate> >::~vector<AttackRate,std::allocator<AttackRate> >
_TEXT	ENDS
PUBLIC	?clear@?$vector@UAttackRate@@V?$allocator@UAttackRate@@@std@@@std@@QAEXXZ ; std::vector<AttackRate,std::allocator<AttackRate> >::clear
; Function compile flags: /Ogsp
;	COMDAT ?clear@?$vector@UAttackRate@@V?$allocator@UAttackRate@@@std@@@std@@QAEXXZ
_TEXT	SEGMENT
$T527538 = -4						; size = 4
?clear@?$vector@UAttackRate@@V?$allocator@UAttackRate@@@std@@@std@@QAEXXZ PROC ; std::vector<AttackRate,std::allocator<AttackRate> >::clear, COMDAT
; _this$ = ecx

; 1217 : 		{	// erase all

  00000	55		 push	 ebp
  00001	8b ec		 mov	 ebp, esp
  00003	51		 push	 ecx

; 1218 : 		erase(begin(), end());

  00004	8b 41 04	 mov	 eax, DWORD PTR [ecx+4]
  00007	8b 11		 mov	 edx, DWORD PTR [ecx]
  00009	50		 push	 eax
  0000a	52		 push	 edx
  0000b	8d 45 fc	 lea	 eax, DWORD PTR $T527538[ebp]
  0000e	50		 push	 eax
  0000f	e8 00 00 00 00	 call	 ?erase@?$vector@UAttackRate@@V?$allocator@UAttackRate@@@std@@@std@@QAE?AV?$_Vector_iterator@V?$_Vector_val@UAttackRate@@V?$allocator@UAttackRate@@@std@@@std@@@2@V?$_Vector_const_iterator@V?$_Vector_val@UAttackRate@@V?$allocator@UAttackRate@@@std@@@std@@@2@0@Z ; std::vector<AttackRate,std::allocator<AttackRate> >::erase

; 1219 : 		}

  00014	c9		 leave
  00015	c3		 ret	 0
?clear@?$vector@UAttackRate@@V?$allocator@UAttackRate@@@std@@@std@@QAEXXZ ENDP ; std::vector<AttackRate,std::allocator<AttackRate> >::clear
_TEXT	ENDS
PUBLIC	?_Reserve@?$vector@UAttackRate@@V?$allocator@UAttackRate@@@std@@@std@@IAEXI@Z ; std::vector<AttackRate,std::allocator<AttackRate> >::_Reserve
; Function compile flags: /Ogsp
;	COMDAT ?_Reserve@?$vector@UAttackRate@@V?$allocator@UAttackRate@@@std@@@std@@IAEXI@Z
_TEXT	SEGMENT
__Count$ = 8						; size = 4
?_Reserve@?$vector@UAttackRate@@V?$allocator@UAttackRate@@@std@@@std@@IAEXI@Z PROC ; std::vector<AttackRate,std::allocator<AttackRate> >::_Reserve, COMDAT
; _this$ = ecx

; 1290 : 		{	// ensure room for _Count new elements, grow exponentially

  00000	55		 push	 ebp
  00001	8b ec		 mov	 ebp, esp
  00003	56		 push	 esi
  00004	8b f1		 mov	 esi, ecx

; 1291 : 		size_type _Size = size();

  00006	8b 0e		 mov	 ecx, DWORD PTR [esi]
  00008	8b 46 04	 mov	 eax, DWORD PTR [esi+4]
  0000b	2b c1		 sub	 eax, ecx
  0000d	57		 push	 edi
  0000e	99		 cdq
  0000f	6a 1c		 push	 28			; 0000001cH
  00011	5f		 pop	 edi
  00012	f7 ff		 idiv	 edi
  00014	8b f8		 mov	 edi, eax

; 1292 : 		if (max_size() - _Count < _Size)

  00016	b8 49 92 24 09	 mov	 eax, 153391689		; 09249249H
  0001b	2b 45 08	 sub	 eax, DWORD PTR __Count$[ebp]
  0001e	3b c7		 cmp	 eax, edi
  00020	73 0b		 jae	 SHORT $LN4@Reserve

; 1293 : 			_Xlen();

  00022	68 00 00 00 00	 push	 OFFSET ??_C@_0BD@OLBABOEK@vector?$DMT?$DO?5too?5long?$AA@
  00027	ff 15 00 00 00
	00		 call	 DWORD PTR __imp_?_Xlength_error@std@@YAXPBD@Z
$LN21@Reserve:
$LN4@Reserve:

; 1294 : 		else if ((_Size += _Count) <= capacity())

  0002d	8b 46 08	 mov	 eax, DWORD PTR [esi+8]
  00030	2b c1		 sub	 eax, ecx
  00032	6a 1c		 push	 28			; 0000001cH
  00034	99		 cdq
  00035	59		 pop	 ecx
  00036	f7 f9		 idiv	 ecx
  00038	03 7d 08	 add	 edi, DWORD PTR __Count$[ebp]
  0003b	3b f8		 cmp	 edi, eax
  0003d	76 10		 jbe	 SHORT $LN1@Reserve

; 1295 : 			;
; 1296 : 		else
; 1297 : 			reserve(_Grow_to(_Size));

  0003f	57		 push	 edi
  00040	8b ce		 mov	 ecx, esi
  00042	e8 00 00 00 00	 call	 ?_Grow_to@?$vector@UAttackRate@@V?$allocator@UAttackRate@@@std@@@std@@IBEII@Z ; std::vector<AttackRate,std::allocator<AttackRate> >::_Grow_to
  00047	50		 push	 eax
  00048	8b ce		 mov	 ecx, esi
  0004a	e8 00 00 00 00	 call	 ?reserve@?$vector@UAttackRate@@V?$allocator@UAttackRate@@@std@@@std@@QAEXI@Z ; std::vector<AttackRate,std::allocator<AttackRate> >::reserve
$LN1@Reserve:
  0004f	5f		 pop	 edi
  00050	5e		 pop	 esi

; 1298 : 		}

  00051	5d		 pop	 ebp
  00052	c2 04 00	 ret	 4
$LN20@Reserve:
?_Reserve@?$vector@UAttackRate@@V?$allocator@UAttackRate@@@std@@@std@@IAEXI@Z ENDP ; std::vector<AttackRate,std::allocator<AttackRate> >::_Reserve
_TEXT	ENDS
PUBLIC	??_7ioDamageUpDownBuff@@6B@			; ioDamageUpDownBuff::`vftable'
PUBLIC	??0ioDamageUpDownBuff@@QAE@XZ			; ioDamageUpDownBuff::ioDamageUpDownBuff
PUBLIC	??_R4ioDamageUpDownBuff@@6B@			; ioDamageUpDownBuff::`RTTI Complete Object Locator'
PUBLIC	??_R0?AVioDamageUpDownBuff@@@8			; ioDamageUpDownBuff `RTTI Type Descriptor'
PUBLIC	??_R3ioDamageUpDownBuff@@8			; ioDamageUpDownBuff::`RTTI Class Hierarchy Descriptor'
PUBLIC	??_R2ioDamageUpDownBuff@@8			; ioDamageUpDownBuff::`RTTI Base Class Array'
PUBLIC	??_R1A@?0A@EA@ioDamageUpDownBuff@@8		; ioDamageUpDownBuff::`RTTI Base Class Descriptor at (0,-1,0,64)'
PUBLIC	??_R1A@?0A@EA@ioBuff@@8				; ioBuff::`RTTI Base Class Descriptor at (0,-1,0,64)'
PUBLIC	??_R0?AVioBuff@@@8				; ioBuff `RTTI Type Descriptor'
PUBLIC	??_R3ioBuff@@8					; ioBuff::`RTTI Class Hierarchy Descriptor'
PUBLIC	??_R2ioBuff@@8					; ioBuff::`RTTI Base Class Array'
PUBLIC	?LoadProperty@ioDamageUpDownBuff@@UAEXAAVioINILoader@@@Z ; ioDamageUpDownBuff::LoadProperty
PUBLIC	?Clone@ioDamageUpDownBuff@@UAEPAVioBuff@@XZ	; ioDamageUpDownBuff::Clone
PUBLIC	?EndBuff@ioDamageUpDownBuff@@UAEXXZ		; ioDamageUpDownBuff::EndBuff
PUBLIC	?IsWaitSelfRemove@ioBuff@@UAE_NXZ		; ioBuff::IsWaitSelfRemove
EXTRN	??0ioBuff@@QAE@XZ:PROC				; ioBuff::ioBuff
EXTRN	?StartBuffWithAniTime@ioBuff@@UAEXPAVioBaseChar@@K@Z:PROC ; ioBuff::StartBuffWithAniTime
EXTRN	?CancelBuff@ioBuff@@UAEXXZ:PROC			; ioBuff::CancelBuff
EXTRN	?AccumulateBuff@ioBuff@@UAEXXZ:PROC		; ioBuff::AccumulateBuff
EXTRN	?IsLiveButStopped@ioBuff@@UBE_NXZ:PROC		; ioBuff::IsLiveButStopped
EXTRN	?IsCanJumpAttack@ioBuff@@UBE_NXZ:PROC		; ioBuff::IsCanJumpAttack
EXTRN	?SetAction@ioBuff@@MAEXXZ:PROC			; ioBuff::SetAction
EXTRN	?ProcessDelay@ioBuff@@MAEXM@Z:PROC		; ioBuff::ProcessDelay
EXTRN	?SetExtraDurationByGrowth@ioBuff@@UAEXM@Z:PROC	; ioBuff::SetExtraDurationByGrowth
EXTRN	?SetWeaponIndex@ioBuff@@UAEXK@Z:PROC		; ioBuff::SetWeaponIndex
EXTRN	?OnReduceGauge@ioBuff@@UBE_NXZ:PROC		; ioBuff::OnReduceGauge
EXTRN	?IsCharCollisionSkip@ioBuff@@UBE_NXZ:PROC	; ioBuff::IsCharCollisionSkip
EXTRN	?IsCollisionAvailableWeapon@ioBuff@@UBE_NXZ:PROC ; ioBuff::IsCollisionAvailableWeapon
EXTRN	?IsProtected@ioBuff@@UBE_NXZ:PROC		; ioBuff::IsProtected
EXTRN	?UseActiveCount@ioBuff@@UBE_NXZ:PROC		; ioBuff::UseActiveCount
EXTRN	?CheckActiveCount@ioBuff@@UAEXXZ:PROC		; ioBuff::CheckActiveCount
EXTRN	?CheckRemoveEquipSkillBuff@ioBuff@@UAEX_N@Z:PROC ; ioBuff::CheckRemoveEquipSkillBuff
EXTRN	?ApplyExtraBuffInfo@ioBuff@@UAEXAAVSP2Packet@@@Z:PROC ; ioBuff::ApplyExtraBuffInfo
EXTRN	?SetBuffGrapplingState@ioBuff@@UAE_NPAVioBaseChar@@ABVioHashString@@@Z:PROC ; ioBuff::SetBuffGrapplingState
EXTRN	?GetGrapplingTargetPos@ioBuff@@UAE?AUD3DXVECTOR3@@PAVioBaseChar@@@Z:PROC ; ioBuff::GetGrapplingTargetPos
EXTRN	??_EioDamageUpDownBuff@@UAEPAXI@Z:PROC		; ioDamageUpDownBuff::`vector deleting destructor'
;	COMDAT ??_R2ioBuff@@8
; File c:\program files (x86)\microsoft visual studio 10.0\vc\include\xmemory
rdata$r	SEGMENT
??_R2ioBuff@@8 DD FLAT:??_R1A@?0A@EA@ioBuff@@8		; ioBuff::`RTTI Base Class Array'
rdata$r	ENDS
;	COMDAT ??_R3ioBuff@@8
rdata$r	SEGMENT
??_R3ioBuff@@8 DD 00H					; ioBuff::`RTTI Class Hierarchy Descriptor'
	DD	00H
	DD	01H
	DD	FLAT:??_R2ioBuff@@8
rdata$r	ENDS
;	COMDAT ??_R0?AVioBuff@@@8
_DATA	SEGMENT
??_R0?AVioBuff@@@8 DD FLAT:??_7type_info@@6B@		; ioBuff `RTTI Type Descriptor'
	DD	00H
	DB	'.?AVioBuff@@', 00H
_DATA	ENDS
;	COMDAT ??_R1A@?0A@EA@ioBuff@@8
rdata$r	SEGMENT
??_R1A@?0A@EA@ioBuff@@8 DD FLAT:??_R0?AVioBuff@@@8	; ioBuff::`RTTI Base Class Descriptor at (0,-1,0,64)'
	DD	00H
	DD	00H
	DD	0ffffffffH
	DD	00H
	DD	040H
	DD	FLAT:??_R3ioBuff@@8
rdata$r	ENDS
;	COMDAT ??_R1A@?0A@EA@ioDamageUpDownBuff@@8
rdata$r	SEGMENT
??_R1A@?0A@EA@ioDamageUpDownBuff@@8 DD FLAT:??_R0?AVioDamageUpDownBuff@@@8 ; ioDamageUpDownBuff::`RTTI Base Class Descriptor at (0,-1,0,64)'
	DD	01H
	DD	00H
	DD	0ffffffffH
	DD	00H
	DD	040H
	DD	FLAT:??_R3ioDamageUpDownBuff@@8
rdata$r	ENDS
;	COMDAT ??_R2ioDamageUpDownBuff@@8
rdata$r	SEGMENT
??_R2ioDamageUpDownBuff@@8 DD FLAT:??_R1A@?0A@EA@ioDamageUpDownBuff@@8 ; ioDamageUpDownBuff::`RTTI Base Class Array'
	DD	FLAT:??_R1A@?0A@EA@ioBuff@@8
rdata$r	ENDS
;	COMDAT ??_R3ioDamageUpDownBuff@@8
rdata$r	SEGMENT
??_R3ioDamageUpDownBuff@@8 DD 00H			; ioDamageUpDownBuff::`RTTI Class Hierarchy Descriptor'
	DD	00H
	DD	02H
	DD	FLAT:??_R2ioDamageUpDownBuff@@8
rdata$r	ENDS
;	COMDAT ??_R0?AVioDamageUpDownBuff@@@8
_DATA	SEGMENT
??_R0?AVioDamageUpDownBuff@@@8 DD FLAT:??_7type_info@@6B@ ; ioDamageUpDownBuff `RTTI Type Descriptor'
	DD	00H
	DB	'.?AVioDamageUpDownBuff@@', 00H
_DATA	ENDS
;	COMDAT ??_R4ioDamageUpDownBuff@@6B@
rdata$r	SEGMENT
??_R4ioDamageUpDownBuff@@6B@ DD 00H			; ioDamageUpDownBuff::`RTTI Complete Object Locator'
	DD	00H
	DD	00H
	DD	FLAT:??_R0?AVioDamageUpDownBuff@@@8
	DD	FLAT:??_R3ioDamageUpDownBuff@@8
rdata$r	ENDS
;	COMDAT ??_7ioDamageUpDownBuff@@6B@
CONST	SEGMENT
??_7ioDamageUpDownBuff@@6B@ DD FLAT:??_R4ioDamageUpDownBuff@@6B@ ; ioDamageUpDownBuff::`vftable'
	DD	FLAT:?LoadProperty@ioDamageUpDownBuff@@UAEXAAVioINILoader@@@Z
	DD	FLAT:?Clone@ioDamageUpDownBuff@@UAEPAVioBuff@@XZ
	DD	FLAT:?StartBuff@ioDamageUpDownBuff@@UAEXPAVioBaseChar@@@Z
	DD	FLAT:?StartBuffWithAniTime@ioBuff@@UAEXPAVioBaseChar@@K@Z
	DD	FLAT:?ApplyStartBuff@ioDamageUpDownBuff@@UAE_NPAVioBaseChar@@KK@Z
	DD	FLAT:?ProcessBuff@ioDamageUpDownBuff@@UAEXM@Z
	DD	FLAT:?EndBuff@ioDamageUpDownBuff@@UAEXXZ
	DD	FLAT:?CancelBuff@ioBuff@@UAEXXZ
	DD	FLAT:?GetBuffInfo@ioDamageUpDownBuff@@UAEXAAVSP2Packet@@@Z
	DD	FLAT:?ApplyBuffInfo@ioDamageUpDownBuff@@UAEXAAVSP2Packet@@@Z
	DD	FLAT:?AccumulateBuff@ioBuff@@UAEXXZ
	DD	FLAT:?IsLiveButStopped@ioBuff@@UBE_NXZ
	DD	FLAT:?IsCanJumpAttack@ioBuff@@UBE_NXZ
	DD	FLAT:?SetAction@ioBuff@@MAEXXZ
	DD	FLAT:?ProcessDelay@ioBuff@@MAEXM@Z
	DD	FLAT:?SetExtraDurationByGrowth@ioBuff@@UAEXM@Z
	DD	FLAT:?SetWeaponIndex@ioBuff@@UAEXK@Z
	DD	FLAT:?OnReduceGauge@ioBuff@@UBE_NXZ
	DD	FLAT:?IsCharCollisionSkip@ioBuff@@UBE_NXZ
	DD	FLAT:?IsCollisionAvailableWeapon@ioBuff@@UBE_NXZ
	DD	FLAT:?IsProtected@ioBuff@@UBE_NXZ
	DD	FLAT:?UseActiveCount@ioBuff@@UBE_NXZ
	DD	FLAT:?CheckActiveCount@ioBuff@@UAEXXZ
	DD	FLAT:?CheckRemoveEquipSkillBuff@ioBuff@@UAEX_N@Z
	DD	FLAT:?ApplyExtraBuffInfo@ioBuff@@UAEXAAVSP2Packet@@@Z
	DD	FLAT:?SetBuffGrapplingState@ioBuff@@UAE_NPAVioBaseChar@@ABVioHashString@@@Z
	DD	FLAT:?GetGrapplingTargetPos@ioBuff@@UAE?AUD3DXVECTOR3@@PAVioBaseChar@@@Z
	DD	FLAT:?IsWaitSelfRemove@ioBuff@@UAE_NXZ
	DD	FLAT:??_EioDamageUpDownBuff@@UAEPAXI@Z
; Function compile flags: /Ogsp
; File d:\lost saga for developer\youtube\tutorial\source\src\lsclient\iodamageupdownbuff.cpp
CONST	ENDS
;	COMDAT ??0ioDamageUpDownBuff@@QAE@XZ
_TEXT	SEGMENT
??0ioDamageUpDownBuff@@QAE@XZ PROC			; ioDamageUpDownBuff::ioDamageUpDownBuff, COMDAT
; _this$ = ecx

; 12   : {

  00000	56		 push	 esi
  00001	8b f1		 mov	 esi, ecx
  00003	e8 00 00 00 00	 call	 ??0ioBuff@@QAE@XZ	; ioBuff::ioBuff

; 13   : 	m_fExtraDamageRate = 0.0f;

  00008	0f 57 c0	 xorps	 xmm0, xmm0
  0000b	c7 06 00 00 00
	00		 mov	 DWORD PTR [esi], OFFSET ??_7ioDamageUpDownBuff@@6B@
  00011	33 c9		 xor	 ecx, ecx
  00013	89 8e 6c 09 00
	00		 mov	 DWORD PTR [esi+2412], ecx
  00019	89 8e 70 09 00
	00		 mov	 DWORD PTR [esi+2416], ecx
  0001f	89 8e 74 09 00
	00		 mov	 DWORD PTR [esi+2420], ecx
  00025	f3 0f 11 86 84
	09 00 00	 movss	 DWORD PTR [esi+2436], xmm0

; 14   : }

  0002d	8b c6		 mov	 eax, esi
  0002f	5e		 pop	 esi
  00030	c3		 ret	 0
??0ioDamageUpDownBuff@@QAE@XZ ENDP			; ioDamageUpDownBuff::ioDamageUpDownBuff
; Function compile flags: /Ogsp
; File d:\lost saga for developer\youtube\tutorial\source\src\lsclient\iobuff.h
_TEXT	ENDS
;	COMDAT ?IsWaitSelfRemove@ioBuff@@UAE_NXZ
_TEXT	SEGMENT
?IsWaitSelfRemove@ioBuff@@UAE_NXZ PROC			; ioBuff::IsWaitSelfRemove, COMDAT
; _this$ = ecx

; 519  : 	virtual bool IsWaitSelfRemove() { return m_bWaitSelfRemove; }

  00000	8a 81 65 09 00
	00		 mov	 al, BYTE PTR [ecx+2405]
  00006	c3		 ret	 0
?IsWaitSelfRemove@ioBuff@@UAE_NXZ ENDP			; ioBuff::IsWaitSelfRemove
_TEXT	ENDS
PUBLIC	??0ioDamageUpDownBuff@@QAE@ABV0@@Z		; ioDamageUpDownBuff::ioDamageUpDownBuff
EXTRN	??1ioBuff@@UAE@XZ:PROC				; ioBuff::~ioBuff
EXTRN	??0ioBuff@@QAE@ABV0@@Z:PROC			; ioBuff::ioBuff
;	COMDAT xdata$x
; File d:\lost saga for developer\youtube\tutorial\source\src\lsclient\iodamageupdownbuff.cpp
xdata$x	SEGMENT
__unwindtable$??0ioDamageUpDownBuff@@QAE@ABV0@@Z DD 0ffffffffH
	DD	FLAT:__unwindfunclet$??0ioDamageUpDownBuff@@QAE@ABV0@@Z$0
__ehfuncinfo$??0ioDamageUpDownBuff@@QAE@ABV0@@Z DD 019930522H
	DD	01H
	DD	FLAT:__unwindtable$??0ioDamageUpDownBuff@@QAE@ABV0@@Z
	DD	2 DUP(00H)
	DD	2 DUP(00H)
	DD	00H
	DD	01H
; Function compile flags: /Ogsp
xdata$x	ENDS
;	COMDAT ??0ioDamageUpDownBuff@@QAE@ABV0@@Z
_TEXT	SEGMENT
_this$ = -16						; size = 4
__$EHRec$ = -12						; size = 12
_rhs$ = 8						; size = 4
??0ioDamageUpDownBuff@@QAE@ABV0@@Z PROC			; ioDamageUpDownBuff::ioDamageUpDownBuff, COMDAT
; _this$ = ecx

; 22   : {

  00000	6a 04		 push	 4
  00002	b8 00 00 00 00	 mov	 eax, __ehhandler$??0ioDamageUpDownBuff@@QAE@ABV0@@Z
  00007	e8 00 00 00 00	 call	 __EH_prolog3
  0000c	8b f1		 mov	 esi, ecx
  0000e	89 75 f0	 mov	 DWORD PTR _this$[ebp], esi
  00011	8b 7d 08	 mov	 edi, DWORD PTR _rhs$[ebp]
  00014	57		 push	 edi
  00015	e8 00 00 00 00	 call	 ??0ioBuff@@QAE@ABV0@@Z	; ioBuff::ioBuff
  0001a	83 65 fc 00	 and	 DWORD PTR __$EHRec$[ebp+8], 0
  0001e	8d 87 6c 09 00
	00		 lea	 eax, DWORD PTR [edi+2412]
  00024	50		 push	 eax
  00025	8d 8e 6c 09 00
	00		 lea	 ecx, DWORD PTR [esi+2412]
  0002b	c7 06 00 00 00
	00		 mov	 DWORD PTR [esi], OFFSET ??_7ioDamageUpDownBuff@@6B@
  00031	e8 00 00 00 00	 call	 ??0?$vector@UAttackRate@@V?$allocator@UAttackRate@@@std@@@std@@QAE@ABV01@@Z ; std::vector<AttackRate,std::allocator<AttackRate> >::vector<AttackRate,std::allocator<AttackRate> >
  00036	8a 87 7c 09 00
	00		 mov	 al, BYTE PTR [edi+2428]

; 23   : 	m_fExtraDamageRate = 0.0f;

  0003c	0f 57 c0	 xorps	 xmm0, xmm0
  0003f	88 86 7c 09 00
	00		 mov	 BYTE PTR [esi+2428], al
  00045	8a 87 7d 09 00
	00		 mov	 al, BYTE PTR [edi+2429]
  0004b	88 86 7d 09 00
	00		 mov	 BYTE PTR [esi+2429], al
  00051	d9 87 80 09 00
	00		 fld	 DWORD PTR [edi+2432]
  00057	d9 9e 80 09 00
	00		 fstp	 DWORD PTR [esi+2432]
  0005d	f3 0f 11 86 84
	09 00 00	 movss	 DWORD PTR [esi+2436], xmm0

; 24   : }

  00065	8b c6		 mov	 eax, esi
  00067	e8 00 00 00 00	 call	 __EH_epilog3
  0006c	c2 04 00	 ret	 4
_TEXT	ENDS
;	COMDAT text$x
text$x	SEGMENT
__unwindfunclet$??0ioDamageUpDownBuff@@QAE@ABV0@@Z$0:
  00000	8b 4d f0	 mov	 ecx, DWORD PTR _this$[ebp]
  00003	e9 00 00 00 00	 jmp	 ??1ioBuff@@UAE@XZ	; ioBuff::~ioBuff
__ehhandler$??0ioDamageUpDownBuff@@QAE@ABV0@@Z:
  00008	8b 54 24 08	 mov	 edx, DWORD PTR [esp+8]
  0000c	8d 42 0c	 lea	 eax, DWORD PTR [edx+12]
  0000f	8b 4a ec	 mov	 ecx, DWORD PTR [edx-20]
  00012	33 c8		 xor	 ecx, eax
  00014	e8 00 00 00 00	 call	 @__security_check_cookie@4
  00019	b8 00 00 00 00	 mov	 eax, OFFSET __ehfuncinfo$??0ioDamageUpDownBuff@@QAE@ABV0@@Z
  0001e	e9 00 00 00 00	 jmp	 ___CxxFrameHandler3
text$x	ENDS
??0ioDamageUpDownBuff@@QAE@ABV0@@Z ENDP			; ioDamageUpDownBuff::ioDamageUpDownBuff
PUBLIC	??1ioDamageUpDownBuff@@UAE@XZ			; ioDamageUpDownBuff::~ioDamageUpDownBuff
;	COMDAT xdata$x
; File c:\program files (x86)\microsoft visual studio 10.0\vc\include\vector
xdata$x	SEGMENT
__unwindtable$??1ioDamageUpDownBuff@@UAE@XZ DD 0ffffffffH
	DD	FLAT:__unwindfunclet$??1ioDamageUpDownBuff@@UAE@XZ$0
__ehfuncinfo$??1ioDamageUpDownBuff@@UAE@XZ DD 019930522H
	DD	01H
	DD	FLAT:__unwindtable$??1ioDamageUpDownBuff@@UAE@XZ
	DD	2 DUP(00H)
	DD	2 DUP(00H)
	DD	00H
	DD	01H
; Function compile flags: /Ogsp
; File d:\lost saga for developer\youtube\tutorial\source\src\lsclient\iodamageupdownbuff.cpp
xdata$x	ENDS
;	COMDAT ??1ioDamageUpDownBuff@@UAE@XZ
_TEXT	SEGMENT
_this$ = -16						; size = 4
__$EHRec$ = -12						; size = 12
??1ioDamageUpDownBuff@@UAE@XZ PROC			; ioDamageUpDownBuff::~ioDamageUpDownBuff, COMDAT
; _this$ = ecx

; 27   : {

  00000	6a 04		 push	 4
  00002	b8 00 00 00 00	 mov	 eax, __ehhandler$??1ioDamageUpDownBuff@@UAE@XZ
  00007	e8 00 00 00 00	 call	 __EH_prolog3
  0000c	8b f1		 mov	 esi, ecx
  0000e	89 75 f0	 mov	 DWORD PTR _this$[ebp], esi
  00011	c7 06 00 00 00
	00		 mov	 DWORD PTR [esi], OFFSET ??_7ioDamageUpDownBuff@@6B@
  00017	83 65 fc 00	 and	 DWORD PTR __$EHRec$[ebp+8], 0

; 28   : }

  0001b	8d 8e 6c 09 00
	00		 lea	 ecx, DWORD PTR [esi+2412]
  00021	e8 00 00 00 00	 call	 ?_Tidy@?$vector@UAttackRate@@V?$allocator@UAttackRate@@@std@@@std@@IAEXXZ ; std::vector<AttackRate,std::allocator<AttackRate> >::_Tidy
  00026	83 4d fc ff	 or	 DWORD PTR __$EHRec$[ebp+8], -1
  0002a	8b ce		 mov	 ecx, esi
  0002c	e8 00 00 00 00	 call	 ??1ioBuff@@UAE@XZ	; ioBuff::~ioBuff
  00031	e8 00 00 00 00	 call	 __EH_epilog3
  00036	c3		 ret	 0
_TEXT	ENDS
;	COMDAT text$x
text$x	SEGMENT
__unwindfunclet$??1ioDamageUpDownBuff@@UAE@XZ$0:
  00000	8b 4d f0	 mov	 ecx, DWORD PTR _this$[ebp]
  00003	e9 00 00 00 00	 jmp	 ??1ioBuff@@UAE@XZ	; ioBuff::~ioBuff
__ehhandler$??1ioDamageUpDownBuff@@UAE@XZ:
  00008	8b 54 24 08	 mov	 edx, DWORD PTR [esp+8]
  0000c	8d 42 0c	 lea	 eax, DWORD PTR [edx+12]
  0000f	8b 4a ec	 mov	 ecx, DWORD PTR [edx-20]
  00012	33 c8		 xor	 ecx, eax
  00014	e8 00 00 00 00	 call	 @__security_check_cookie@4
  00019	b8 00 00 00 00	 mov	 eax, OFFSET __ehfuncinfo$??1ioDamageUpDownBuff@@UAE@XZ
  0001e	e9 00 00 00 00	 jmp	 ___CxxFrameHandler3
text$x	ENDS
??1ioDamageUpDownBuff@@UAE@XZ ENDP			; ioDamageUpDownBuff::~ioDamageUpDownBuff
;	COMDAT xdata$x
xdata$x	SEGMENT
__unwindtable$?Clone@ioDamageUpDownBuff@@UAEPAVioBuff@@XZ DD 0ffffffffH
	DD	FLAT:__unwindfunclet$?Clone@ioDamageUpDownBuff@@UAEPAVioBuff@@XZ$0
__ehfuncinfo$?Clone@ioDamageUpDownBuff@@UAEPAVioBuff@@XZ DD 019930522H
	DD	01H
	DD	FLAT:__unwindtable$?Clone@ioDamageUpDownBuff@@UAEPAVioBuff@@XZ
	DD	2 DUP(00H)
	DD	2 DUP(00H)
	DD	00H
	DD	01H
; Function compile flags: /Ogsp
xdata$x	ENDS
;	COMDAT ?Clone@ioDamageUpDownBuff@@UAEPAVioBuff@@XZ
_TEXT	SEGMENT
$T527685 = -16						; size = 4
__$EHRec$ = -12						; size = 12
?Clone@ioDamageUpDownBuff@@UAEPAVioBuff@@XZ PROC	; ioDamageUpDownBuff::Clone, COMDAT
; _this$ = ecx

; 41   : {

  00000	6a 04		 push	 4
  00002	b8 00 00 00 00	 mov	 eax, __ehhandler$?Clone@ioDamageUpDownBuff@@UAEPAVioBuff@@XZ
  00007	e8 00 00 00 00	 call	 __EH_prolog3
  0000c	8b f1		 mov	 esi, ecx

; 42   : 	return new ioDamageUpDownBuff( *this );

  0000e	68 88 09 00 00	 push	 2440			; 00000988H
  00013	e8 00 00 00 00	 call	 ??2@YAPAXI@Z		; operator new
  00018	59		 pop	 ecx
  00019	8b c8		 mov	 ecx, eax
  0001b	89 4d f0	 mov	 DWORD PTR $T527685[ebp], ecx
  0001e	33 c0		 xor	 eax, eax
  00020	89 45 fc	 mov	 DWORD PTR __$EHRec$[ebp+8], eax
  00023	3b c8		 cmp	 ecx, eax
  00025	74 06		 je	 SHORT $LN3@Clone
  00027	56		 push	 esi
  00028	e8 00 00 00 00	 call	 ??0ioDamageUpDownBuff@@QAE@ABV0@@Z ; ioDamageUpDownBuff::ioDamageUpDownBuff
$LN3@Clone:

; 43   : }

  0002d	e8 00 00 00 00	 call	 __EH_epilog3
  00032	c3		 ret	 0
_TEXT	ENDS
;	COMDAT text$x
text$x	SEGMENT
__unwindfunclet$?Clone@ioDamageUpDownBuff@@UAEPAVioBuff@@XZ$0:
  00000	ff 75 f0	 push	 DWORD PTR $T527685[ebp]
  00003	e8 00 00 00 00	 call	 ??3@YAXPAX@Z		; operator delete
  00008	59		 pop	 ecx
  00009	c3		 ret	 0
__ehhandler$?Clone@ioDamageUpDownBuff@@UAEPAVioBuff@@XZ:
  0000a	8b 54 24 08	 mov	 edx, DWORD PTR [esp+8]
  0000e	8d 42 0c	 lea	 eax, DWORD PTR [edx+12]
  00011	8b 4a ec	 mov	 ecx, DWORD PTR [edx-20]
  00014	33 c8		 xor	 ecx, eax
  00016	e8 00 00 00 00	 call	 @__security_check_cookie@4
  0001b	b8 00 00 00 00	 mov	 eax, OFFSET __ehfuncinfo$?Clone@ioDamageUpDownBuff@@UAEPAVioBuff@@XZ
  00020	e9 00 00 00 00	 jmp	 ___CxxFrameHandler3
text$x	ENDS
?Clone@ioDamageUpDownBuff@@UAEPAVioBuff@@XZ ENDP	; ioDamageUpDownBuff::Clone
EXTRN	?EndBuff@ioBuff@@UAEXXZ:PROC			; ioBuff::EndBuff
EXTRN	?RemoveDamageRate@ioBaseChar@@QAEXABV?$vector@UAttackRate@@V?$allocator@UAttackRate@@@std@@@std@@@Z:PROC ; ioBaseChar::RemoveDamageRate
; Function compile flags: /Ogsp
;	COMDAT ?EndBuff@ioDamageUpDownBuff@@UAEXXZ
_TEXT	SEGMENT
$T527759 = -4						; size = 4
?EndBuff@ioDamageUpDownBuff@@UAEXXZ PROC		; ioDamageUpDownBuff::EndBuff, COMDAT
; _this$ = ecx

; 107  : {

  00000	55		 push	 ebp
  00001	8b ec		 mov	 ebp, esp
  00003	51		 push	 ecx
  00004	56		 push	 esi
  00005	57		 push	 edi
  00006	8b f9		 mov	 edi, ecx

; 108  : 	m_pOwner->RemoveDamageRate( m_AttackRateList );

  00008	8b 8f 74 02 00
	00		 mov	 ecx, DWORD PTR [edi+628]
  0000e	8d b7 6c 09 00
	00		 lea	 esi, DWORD PTR [edi+2412]
  00014	56		 push	 esi
  00015	e8 00 00 00 00	 call	 ?RemoveDamageRate@ioBaseChar@@QAEXABV?$vector@UAttackRate@@V?$allocator@UAttackRate@@@std@@@std@@@Z ; ioBaseChar::RemoveDamageRate

; 109  : 	m_AttackRateList.clear();

  0001a	8b 46 04	 mov	 eax, DWORD PTR [esi+4]
  0001d	8b 0e		 mov	 ecx, DWORD PTR [esi]
  0001f	50		 push	 eax
  00020	51		 push	 ecx
  00021	8d 45 fc	 lea	 eax, DWORD PTR $T527759[ebp]
  00024	50		 push	 eax
  00025	8b ce		 mov	 ecx, esi
  00027	e8 00 00 00 00	 call	 ?erase@?$vector@UAttackRate@@V?$allocator@UAttackRate@@@std@@@std@@QAE?AV?$_Vector_iterator@V?$_Vector_val@UAttackRate@@V?$allocator@UAttackRate@@@std@@@std@@@2@V?$_Vector_const_iterator@V?$_Vector_val@UAttackRate@@V?$allocator@UAttackRate@@@std@@@std@@@2@0@Z ; std::vector<AttackRate,std::allocator<AttackRate> >::erase

; 110  : 	ioBuff::EndBuff();

  0002c	8b cf		 mov	 ecx, edi
  0002e	e8 00 00 00 00	 call	 ?EndBuff@ioBuff@@UAEXXZ	; ioBuff::EndBuff
  00033	5f		 pop	 edi
  00034	5e		 pop	 esi

; 111  : }

  00035	c9		 leave
  00036	c3		 ret	 0
?EndBuff@ioDamageUpDownBuff@@UAEXXZ ENDP		; ioDamageUpDownBuff::EndBuff
_TEXT	ENDS
PUBLIC	?push_back@?$vector@UAttackRate@@V?$allocator@UAttackRate@@@std@@@std@@QAEXABUAttackRate@@@Z ; std::vector<AttackRate,std::allocator<AttackRate> >::push_back
; Function compile flags: /Ogsp
; File c:\program files (x86)\microsoft visual studio 10.0\vc\include\vector
;	COMDAT ?push_back@?$vector@UAttackRate@@V?$allocator@UAttackRate@@@std@@@std@@QAEXABUAttackRate@@@Z
_TEXT	SEGMENT
__Val$ = 8						; size = 4
?push_back@?$vector@UAttackRate@@V?$allocator@UAttackRate@@@std@@@std@@QAEXABUAttackRate@@@Z PROC ; std::vector<AttackRate,std::allocator<AttackRate> >::push_back, COMDAT
; _this$ = ecx

; 976  : 		{	// insert element at end

  00000	55		 push	 ebp
  00001	8b ec		 mov	 ebp, esp
  00003	56		 push	 esi
  00004	8b f1		 mov	 esi, ecx

; 977  : 		if (_Inside(_STD addressof(_Val)))

  00006	8b 4e 04	 mov	 ecx, DWORD PTR [esi+4]
  00009	57		 push	 edi
  0000a	8b 7d 08	 mov	 edi, DWORD PTR __Val$[ebp]
  0000d	3b f9		 cmp	 edi, ecx
  0000f	73 37		 jae	 SHORT $LN4@push_back
  00011	8b 16		 mov	 edx, DWORD PTR [esi]
  00013	3b d7		 cmp	 edx, edi
  00015	77 31		 ja	 SHORT $LN4@push_back

; 978  : 			{	// push back an element
; 979  : 			size_type _Idx = _STD addressof(_Val) - this->_Myfirst;

  00017	8b c7		 mov	 eax, edi
  00019	2b c2		 sub	 eax, edx
  0001b	6a 1c		 push	 28			; 0000001cH
  0001d	99		 cdq
  0001e	5f		 pop	 edi
  0001f	f7 ff		 idiv	 edi
  00021	8b f8		 mov	 edi, eax

; 980  : 			if (this->_Mylast == this->_Myend)

  00023	3b 4e 08	 cmp	 ecx, DWORD PTR [esi+8]
  00026	75 09		 jne	 SHORT $LN3@push_back

; 981  : 				_Reserve(1);

  00028	6a 01		 push	 1
  0002a	8b ce		 mov	 ecx, esi
  0002c	e8 00 00 00 00	 call	 ?_Reserve@?$vector@UAttackRate@@V?$allocator@UAttackRate@@@std@@@std@@IAEXI@Z ; std::vector<AttackRate,std::allocator<AttackRate> >::_Reserve
$LN3@push_back:

; 982  : 			_Orphan_range(this->_Mylast, this->_Mylast);
; 983  : 			_Cons_val(this->_Alval,
; 984  : 				this->_Mylast,
; 985  : 				this->_Myfirst[_Idx]);

  00031	6b ff 1c	 imul	 edi, 28			; 0000001cH
  00034	03 3e		 add	 edi, DWORD PTR [esi]
  00036	8d 46 0c	 lea	 eax, DWORD PTR [esi+12]
  00039	57		 push	 edi
  0003a	ff 76 04	 push	 DWORD PTR [esi+4]
  0003d	50		 push	 eax
  0003e	e8 00 00 00 00	 call	 ??$_Cons_val@V?$allocator@UAttackRate@@@std@@UAttackRate@@AAU3@@std@@YAXAAV?$allocator@UAttackRate@@@0@PAUAttackRate@@AAU2@@Z ; std::_Cons_val<std::allocator<AttackRate>,AttackRate,AttackRate &>
  00043	83 c4 0c	 add	 esp, 12			; 0000000cH

; 986  : 			++this->_Mylast;
; 987  : 			}
; 988  : 		else

  00046	eb 19		 jmp	 SHORT $LN26@push_back
$LN4@push_back:

; 989  : 			{	// push back a non-element
; 990  : 			if (this->_Mylast == this->_Myend)

  00048	3b 4e 08	 cmp	 ecx, DWORD PTR [esi+8]
  0004b	75 09		 jne	 SHORT $LN1@push_back

; 991  : 				_Reserve(1);

  0004d	6a 01		 push	 1
  0004f	8b ce		 mov	 ecx, esi
  00051	e8 00 00 00 00	 call	 ?_Reserve@?$vector@UAttackRate@@V?$allocator@UAttackRate@@@std@@@std@@IAEXI@Z ; std::vector<AttackRate,std::allocator<AttackRate> >::_Reserve
$LN1@push_back:

; 992  : 			_Orphan_range(this->_Mylast, this->_Mylast);
; 993  : 			_Cons_val(this->_Alval,
; 994  : 				this->_Mylast,
; 995  : 				_Val);

  00056	57		 push	 edi
  00057	ff 76 04	 push	 DWORD PTR [esi+4]
  0005a	e8 00 00 00 00	 call	 ??$_Construct@UAttackRate@@ABU1@@std@@YAXPAUAttackRate@@ABU1@@Z ; std::_Construct<AttackRate,AttackRate const &>
  0005f	59		 pop	 ecx
  00060	59		 pop	 ecx
$LN26@push_back:

; 996  : 			++this->_Mylast;

  00061	83 46 04 1c	 add	 DWORD PTR [esi+4], 28	; 0000001cH
  00065	5f		 pop	 edi
  00066	5e		 pop	 esi

; 997  : 			}
; 998  : 		}

  00067	5d		 pop	 ebp
  00068	c2 04 00	 ret	 4
?push_back@?$vector@UAttackRate@@V?$allocator@UAttackRate@@@std@@@std@@QAEXABUAttackRate@@@Z ENDP ; std::vector<AttackRate,std::allocator<AttackRate> >::push_back
; Function compile flags: /Ogsp
_TEXT	ENDS
;	COMDAT ??_GioDamageUpDownBuff@@UAEPAXI@Z
_TEXT	SEGMENT
___flags$ = 8						; size = 4
??_GioDamageUpDownBuff@@UAEPAXI@Z PROC			; ioDamageUpDownBuff::`scalar deleting destructor', COMDAT
; _this$ = ecx
  00000	55		 push	 ebp
  00001	8b ec		 mov	 ebp, esp
  00003	56		 push	 esi
  00004	8b f1		 mov	 esi, ecx
  00006	e8 00 00 00 00	 call	 ??1ioDamageUpDownBuff@@UAE@XZ ; ioDamageUpDownBuff::~ioDamageUpDownBuff
  0000b	f6 45 08 01	 test	 BYTE PTR ___flags$[ebp], 1
  0000f	74 07		 je	 SHORT $LN1@scalar@3
  00011	56		 push	 esi
  00012	e8 00 00 00 00	 call	 ??3@YAXPAX@Z		; operator delete
  00017	59		 pop	 ecx
$LN1@scalar@3:
  00018	8b c6		 mov	 eax, esi
  0001a	5e		 pop	 esi
  0001b	5d		 pop	 ebp
  0001c	c2 04 00	 ret	 4
??_GioDamageUpDownBuff@@UAEPAXI@Z ENDP			; ioDamageUpDownBuff::`scalar deleting destructor'
_TEXT	ENDS
PUBLIC	_rkLoader$GSCopy$
PUBLIC	_this$GSCopy$
PUBLIC	?LoadAttackRateList@ioDamageUpDownBuff@@IAEXAAVioINILoader@@@Z ; ioDamageUpDownBuff::LoadAttackRateList
EXTRN	__imp__wsprintfA:PROC
EXTRN	__EH_epilog3_GS:PROC
EXTRN	__EH_prolog3_GS:PROC
;	COMDAT xdata$x
; File d:\lost saga for developer\youtube\tutorial\source\src\lsclient\iodamageupdownbuff.cpp
xdata$x	SEGMENT
__unwindtable$?LoadAttackRateList@ioDamageUpDownBuff@@IAEXAAVioINILoader@@@Z DD 0ffffffffH
	DD	FLAT:__unwindfunclet$?LoadAttackRateList@ioDamageUpDownBuff@@IAEXAAVioINILoader@@@Z$0
	DD	0ffffffffH
	DD	FLAT:__unwindfunclet$?LoadAttackRateList@ioDamageUpDownBuff@@IAEXAAVioINILoader@@@Z$1
__ehfuncinfo$?LoadAttackRateList@ioDamageUpDownBuff@@IAEXAAVioINILoader@@@Z DD 019930522H
	DD	02H
	DD	FLAT:__unwindtable$?LoadAttackRateList@ioDamageUpDownBuff@@IAEXAAVioINILoader@@@Z
	DD	2 DUP(00H)
	DD	2 DUP(00H)
	DD	00H
	DD	01H
; Function compile flags: /Ogsp
xdata$x	ENDS
;	COMDAT ?LoadAttackRateList@ioDamageUpDownBuff@@IAEXAAVioINILoader@@@Z
_TEXT	SEGMENT
_kRate$524052 = -368					; size = 28
_rkLoader$GSCopy$ = -340				; size = 4
_this$GSCopy$ = -336					; size = 4
tv2789 = -332						; size = 4
$T528137 = -332						; size = 4
$T527949 = -332						; size = 4
_iCnt$ = -328						; size = 4
_szBuf$ = -324						; size = 260
___encStr$524056 = -64					; size = 14
_kRate$524047 = -44					; size = 28
__k$527978 = -32					; size = 12
__k$527849 = -32					; size = 11
__$EHRec$ = -12						; size = 12
_rkLoader$ = 8						; size = 4
?LoadAttackRateList@ioDamageUpDownBuff@@IAEXAAVioINILoader@@@Z PROC ; ioDamageUpDownBuff::LoadAttackRateList, COMDAT
; _this$ = ecx

; 114  : {

  00000	68 64 01 00 00	 push	 356			; 00000164H
  00005	b8 00 00 00 00	 mov	 eax, __ehhandler$?LoadAttackRateList@ioDamageUpDownBuff@@IAEXAAVioINILoader@@@Z
  0000a	e8 00 00 00 00	 call	 __EH_prolog3_GS
  0000f	8b 75 08	 mov	 esi, DWORD PTR _rkLoader$[ebp]
  00012	8b d9		 mov	 ebx, ecx

; 115  : 	int iCnt;
; 116  : 	char szBuf[MAX_PATH];
; 117  : 
; 118  : 	iCnt = rkLoader.LoadInt_e( "attack_cnt", 0 );

  00014	6a 02		 push	 2

; 137  : 		
; 138  : 		wsprintf_e( szBuf, "attack%d_type", i+1 );

  00016	89 9d b0 fe ff
	ff		 mov	 DWORD PTR _this$GSCopy$[ebp], ebx
  0001c	89 b5 ac fe ff
	ff		 mov	 DWORD PTR _rkLoader$GSCopy$[ebp], esi
  00022	c7 45 e0 8c 98
	9f 8b		 mov	 DWORD PTR __k$527849[ebp], -1952474996 ; 8b9f988cH
  00029	c7 45 e4 8e 87
	b4 89		 mov	 DWORD PTR __k$527849[ebp+4], -1984657522 ; 89b4878eH
  00030	66 c7 45 e8 83
	98		 mov	 WORD PTR __k$527849[ebp+8], 39043 ; 00009883H
  00036	8d 45 e0	 lea	 eax, DWORD PTR __k$527849[ebp]
  00039	c6 45 ea 00	 mov	 BYTE PTR __k$527849[ebp+10], 0
  0003d	59		 pop	 ecx
$LL214@LoadAttack:

; 115  : 	int iCnt;
; 116  : 	char szBuf[MAX_PATH];
; 117  : 
; 118  : 	iCnt = rkLoader.LoadInt_e( "attack_cnt", 0 );

  0003e	81 30 ed ec eb
	ea		 xor	 DWORD PTR [eax], -353637139 ; eaebecedH
  00044	83 c0 04	 add	 eax, 4
  00047	49		 dec	 ecx
  00048	75 f4		 jne	 SHORT $LL214@LoadAttack
  0004a	6a 08		 push	 8
  0004c	5f		 pop	 edi
$LL211@LoadAttack:
  0004d	8b c7		 mov	 eax, edi
  0004f	25 03 00 00 80	 and	 eax, -2147483645	; 80000003H
  00054	79 05		 jns	 SHORT $LN374@LoadAttack
  00056	48		 dec	 eax
  00057	83 c8 fc	 or	 eax, -4			; fffffffcH
  0005a	40		 inc	 eax
$LN374@LoadAttack:
  0005b	b1 ed		 mov	 cl, -19			; ffffffedH
  0005d	2a c8		 sub	 cl, al
  0005f	30 4c 3d e0	 xor	 BYTE PTR __k$527849[ebp+edi], cl
  00063	47		 inc	 edi
  00064	83 ff 0a	 cmp	 edi, 10			; 0000000aH
  00067	7c e4		 jl	 SHORT $LL211@LoadAttack
  00069	8b 3d 00 00 00
	00		 mov	 edi, DWORD PTR __imp_?LoadInt@ioINILoader@@QAEHPBDH@Z
  0006f	6a 00		 push	 0
  00071	8d 45 e0	 lea	 eax, DWORD PTR __k$527849[ebp]
  00074	50		 push	 eax
  00075	8b ce		 mov	 ecx, esi
  00077	ff d7		 call	 edi
  00079	89 85 b8 fe ff
	ff		 mov	 DWORD PTR _iCnt$[ebp], eax

; 119  : 	m_fDamageRate = rkLoader.LoadFloat_e( "attack_rate", FLOAT1 );

  0007f	b8 01 00 00 00	 mov	 eax, 1
  00084	6a 02		 push	 2
  00086	89 85 b4 fe ff
	ff		 mov	 DWORD PTR $T527949[ebp], eax
  0008c	c7 45 e0 8c 98
	9f 8b		 mov	 DWORD PTR __k$527978[ebp], -1952474996 ; 8b9f988cH
  00093	c7 45 e4 8e 87
	b4 98		 mov	 DWORD PTR __k$527978[ebp+4], -1732999282 ; 98b4878eH
  0009a	8d 4d e0	 lea	 ecx, DWORD PTR __k$527978[ebp]
  0009d	c7 45 e8 8c 98
	8e 00		 mov	 DWORD PTR __k$527978[ebp+8], 9345164 ; 008e988cH
  000a4	58		 pop	 eax
$LL322@LoadAttack:
  000a5	81 31 ed ec eb
	ea		 xor	 DWORD PTR [ecx], -353637139 ; eaebecedH
  000ab	83 c1 04	 add	 ecx, 4
  000ae	48		 dec	 eax
  000af	75 f4		 jne	 SHORT $LL322@LoadAttack
  000b1	6a 08		 push	 8
  000b3	59		 pop	 ecx
$LL319@LoadAttack:
  000b4	8b c1		 mov	 eax, ecx
  000b6	25 03 00 00 80	 and	 eax, -2147483645	; 80000003H
  000bb	79 05		 jns	 SHORT $LN375@LoadAttack
  000bd	48		 dec	 eax
  000be	83 c8 fc	 or	 eax, -4			; fffffffcH
  000c1	40		 inc	 eax
$LN375@LoadAttack:
  000c2	b2 ed		 mov	 dl, -19			; ffffffedH
  000c4	2a d0		 sub	 dl, al
  000c6	30 54 0d e0	 xor	 BYTE PTR __k$527978[ebp+ecx], dl
  000ca	41		 inc	 ecx
  000cb	83 f9 0b	 cmp	 ecx, 11			; 0000000bH
  000ce	7c e4		 jl	 SHORT $LL319@LoadAttack
  000d0	8b 85 b4 fe ff
	ff		 mov	 eax, DWORD PTR $T527949[ebp]
  000d6	db 85 b4 fe ff
	ff		 fild	 DWORD PTR $T527949[ebp]
  000dc	85 c0		 test	 eax, eax
  000de	79 06		 jns	 SHORT $LN376@LoadAttack
  000e0	d8 05 00 00 00
	00		 fadd	 DWORD PTR __real@4f800000
$LN376@LoadAttack:
  000e6	51		 push	 ecx
  000e7	8d 45 e0	 lea	 eax, DWORD PTR __k$527978[ebp]
  000ea	d9 1c 24	 fstp	 DWORD PTR [esp]
  000ed	50		 push	 eax
  000ee	8b ce		 mov	 ecx, esi
  000f0	ff 15 00 00 00
	00		 call	 DWORD PTR __imp_?LoadFloat@ioINILoader@@QAEMPBDM@Z
  000f6	d9 9b 80 09 00
	00		 fstp	 DWORD PTR [ebx+2432]

; 120  : 	m_AttackRateList.clear();

  000fc	8d b3 6c 09 00
	00		 lea	 esi, DWORD PTR [ebx+2412]
  00102	8b 46 04	 mov	 eax, DWORD PTR [esi+4]
  00105	8b 0e		 mov	 ecx, DWORD PTR [esi]
  00107	50		 push	 eax
  00108	51		 push	 ecx
  00109	8d 85 b4 fe ff
	ff		 lea	 eax, DWORD PTR $T528137[ebp]
  0010f	50		 push	 eax
  00110	8b ce		 mov	 ecx, esi
  00112	e8 00 00 00 00	 call	 ?erase@?$vector@UAttackRate@@V?$allocator@UAttackRate@@@std@@@std@@QAE?AV?$_Vector_iterator@V?$_Vector_val@UAttackRate@@V?$allocator@UAttackRate@@@std@@@std@@@2@V?$_Vector_const_iterator@V?$_Vector_val@UAttackRate@@V?$allocator@UAttackRate@@@std@@@std@@@2@0@Z ; std::vector<AttackRate,std::allocator<AttackRate> >::erase

; 121  : 
; 122  : 	if( iCnt == 0 )

  00117	83 bd b8 fe ff
	ff 00		 cmp	 DWORD PTR _iCnt$[ebp], 0
  0011e	75 41		 jne	 SHORT $LN106@LoadAttack

; 123  : 	{
; 124  : 		for (int i=0; i < AWT_MAX-1; i++ )

  00120	33 ff		 xor	 edi, edi
$LL105@LoadAttack:

; 125  : 		{
; 126  : 			AttackRate kRate;

  00122	8d 4d d4	 lea	 ecx, DWORD PTR _kRate$524047[ebp]
  00125	e8 00 00 00 00	 call	 ??0AttackRate@@QAE@XZ	; AttackRate::AttackRate
  0012a	83 65 fc 00	 and	 DWORD PTR __$EHRec$[ebp+8], 0

; 127  : 			kRate.iType = i+1;
; 128  : 			kRate.fRate = m_fDamageRate;

  0012e	f3 0f 10 83 80
	09 00 00	 movss	 xmm0, DWORD PTR [ebx+2432]

; 129  : 			m_AttackRateList.push_back( kRate );

  00136	8d 45 d4	 lea	 eax, DWORD PTR _kRate$524047[ebp]
  00139	47		 inc	 edi
  0013a	50		 push	 eax
  0013b	8b ce		 mov	 ecx, esi
  0013d	89 7d d4	 mov	 DWORD PTR _kRate$524047[ebp], edi
  00140	f3 0f 11 45 d8	 movss	 DWORD PTR _kRate$524047[ebp+4], xmm0
  00145	e8 00 00 00 00	 call	 ?push_back@?$vector@UAttackRate@@V?$allocator@UAttackRate@@@std@@@std@@QAEXABUAttackRate@@@Z ; std::vector<AttackRate,std::allocator<AttackRate> >::push_back

; 130  : 		}

  0014a	83 4d fc ff	 or	 DWORD PTR __$EHRec$[ebp+8], -1
  0014e	8d 4d e0	 lea	 ecx, DWORD PTR _kRate$524047[ebp+12]
  00151	ff 15 00 00 00
	00		 call	 DWORD PTR __imp_??1ioHashString@@QAE@XZ
  00157	83 ff 72	 cmp	 edi, 114		; 00000072H
  0015a	7c c6		 jl	 SHORT $LL105@LoadAttack

; 131  : 		return;

  0015c	e9 be 00 00 00	 jmp	 $LN100@LoadAttack
$LN106@LoadAttack:

; 132  : 	}
; 133  : 
; 134  : 	for( int i=0; i < iCnt; ++i )

  00161	33 db		 xor	 ebx, ebx
  00163	39 9d b8 fe ff
	ff		 cmp	 DWORD PTR _iCnt$[ebp], ebx
  00169	0f 8e b0 00 00
	00		 jle	 $LN100@LoadAttack
$LL102@LoadAttack:

; 135  : 	{
; 136  : 		AttackRate kRate;

  0016f	8d 8d 90 fe ff
	ff		 lea	 ecx, DWORD PTR _kRate$524052[ebp]
  00175	e8 00 00 00 00	 call	 ??0AttackRate@@QAE@XZ	; AttackRate::AttackRate
  0017a	6a 03		 push	 3
  0017c	c7 45 fc 01 00
	00 00		 mov	 DWORD PTR __$EHRec$[ebp+8], 1

; 137  : 		
; 138  : 		wsprintf_e( szBuf, "attack%d_type", i+1 );

  00183	c7 45 c0 8c 98
	9f 8b		 mov	 DWORD PTR ___encStr$524056[ebp], -1952474996 ; 8b9f988cH
  0018a	c7 45 c4 8e 87
	ce 8e		 mov	 DWORD PTR ___encStr$524056[ebp+4], -1899067506 ; 8ece878eH
  00191	c7 45 c8 b2 98
	92 9a		 mov	 DWORD PTR ___encStr$524056[ebp+8], -1701668686 ; 9a9298b2H
  00198	8d 45 c0	 lea	 eax, DWORD PTR ___encStr$524056[ebp]
  0019b	66 c7 45 cc 88
	00		 mov	 WORD PTR ___encStr$524056[ebp+12], 136 ; 00000088H
  001a1	59		 pop	 ecx
$LL351@LoadAttack:
  001a2	81 30 ed ec eb
	ea		 xor	 DWORD PTR [eax], -353637139 ; eaebecedH
  001a8	83 c0 04	 add	 eax, 4
  001ab	49		 dec	 ecx
  001ac	75 f4		 jne	 SHORT $LL351@LoadAttack
  001ae	80 75 cc ed	 xor	 BYTE PTR ___encStr$524056[ebp+12], -19 ; ffffffedH
  001b2	43		 inc	 ebx
  001b3	53		 push	 ebx
  001b4	8d 45 c0	 lea	 eax, DWORD PTR ___encStr$524056[ebp]
  001b7	50		 push	 eax
  001b8	8d 85 bc fe ff
	ff		 lea	 eax, DWORD PTR _szBuf$[ebp]
  001be	50		 push	 eax
  001bf	ff 15 00 00 00
	00		 call	 DWORD PTR __imp__wsprintfA

; 139  : 		kRate.iType = rkLoader.LoadInt( szBuf, 0 );

  001c5	8b 8d ac fe ff
	ff		 mov	 ecx, DWORD PTR _rkLoader$GSCopy$[ebp]
  001cb	83 c4 0c	 add	 esp, 12			; 0000000cH
  001ce	6a 00		 push	 0
  001d0	8d 85 bc fe ff
	ff		 lea	 eax, DWORD PTR _szBuf$[ebp]
  001d6	50		 push	 eax
  001d7	ff d7		 call	 edi
  001d9	89 85 90 fe ff
	ff		 mov	 DWORD PTR _kRate$524052[ebp], eax

; 140  : 		kRate.fRate = m_fDamageRate;

  001df	8b 85 b0 fe ff
	ff		 mov	 eax, DWORD PTR _this$GSCopy$[ebp]
  001e5	f3 0f 10 80 80
	09 00 00	 movss	 xmm0, DWORD PTR [eax+2432]

; 141  : 
; 142  : 		m_AttackRateList.push_back( kRate );

  001ed	8d 85 90 fe ff
	ff		 lea	 eax, DWORD PTR _kRate$524052[ebp]
  001f3	50		 push	 eax
  001f4	8b ce		 mov	 ecx, esi
  001f6	f3 0f 11 85 94
	fe ff ff	 movss	 DWORD PTR _kRate$524052[ebp+4], xmm0
  001fe	e8 00 00 00 00	 call	 ?push_back@?$vector@UAttackRate@@V?$allocator@UAttackRate@@@std@@@std@@QAEXABUAttackRate@@@Z ; std::vector<AttackRate,std::allocator<AttackRate> >::push_back

; 143  : 	}

  00203	83 4d fc ff	 or	 DWORD PTR __$EHRec$[ebp+8], -1
  00207	8d 8d 9c fe ff
	ff		 lea	 ecx, DWORD PTR _kRate$524052[ebp+12]
  0020d	ff 15 00 00 00
	00		 call	 DWORD PTR __imp_??1ioHashString@@QAE@XZ
  00213	3b 9d b8 fe ff
	ff		 cmp	 ebx, DWORD PTR _iCnt$[ebp]
  00219	0f 8c 50 ff ff
	ff		 jl	 $LL102@LoadAttack
$LN100@LoadAttack:

; 144  : }

  0021f	e8 00 00 00 00	 call	 __EH_epilog3_GS
  00224	c2 04 00	 ret	 4
_TEXT	ENDS
;	COMDAT text$x
text$x	SEGMENT
__unwindfunclet$?LoadAttackRateList@ioDamageUpDownBuff@@IAEXAAVioINILoader@@@Z$0:
  00000	8d 4d d4	 lea	 ecx, DWORD PTR _kRate$524047[ebp]
  00003	e9 00 00 00 00	 jmp	 ??1AttackRate@@QAE@XZ
__unwindfunclet$?LoadAttackRateList@ioDamageUpDownBuff@@IAEXAAVioINILoader@@@Z$1:
  00008	8d 8d 90 fe ff
	ff		 lea	 ecx, DWORD PTR _kRate$524052[ebp]
  0000e	e9 00 00 00 00	 jmp	 ??1AttackRate@@QAE@XZ
__ehhandler$?LoadAttackRateList@ioDamageUpDownBuff@@IAEXAAVioINILoader@@@Z:
  00013	8b 54 24 08	 mov	 edx, DWORD PTR [esp+8]
  00017	8d 42 0c	 lea	 eax, DWORD PTR [edx+12]
  0001a	8b 8a 8c fe ff
	ff		 mov	 ecx, DWORD PTR [edx-372]
  00020	33 c8		 xor	 ecx, eax
  00022	e8 00 00 00 00	 call	 @__security_check_cookie@4
  00027	8b 4a fc	 mov	 ecx, DWORD PTR [edx-4]
  0002a	33 c8		 xor	 ecx, eax
  0002c	e8 00 00 00 00	 call	 @__security_check_cookie@4
  00031	b8 00 00 00 00	 mov	 eax, OFFSET __ehfuncinfo$?LoadAttackRateList@ioDamageUpDownBuff@@IAEXAAVioINILoader@@@Z
  00036	e9 00 00 00 00	 jmp	 ___CxxFrameHandler3
text$x	ENDS
?LoadAttackRateList@ioDamageUpDownBuff@@IAEXAAVioINILoader@@@Z ENDP ; ioDamageUpDownBuff::LoadAttackRateList
PUBLIC	__$ArrayPad$
EXTRN	?LoadProperty@ioBuff@@UAEXAAVioINILoader@@@Z:PROC ; ioBuff::LoadProperty
; Function compile flags: /Ogsp
;	COMDAT ?LoadProperty@ioDamageUpDownBuff@@UAEXAAVioINILoader@@@Z
_TEXT	SEGMENT
__k$528346 = -28					; size = 17
__k$528221 = -28					; size = 19
__$ArrayPad$ = -4					; size = 4
_rkLoader$ = 8						; size = 4
?LoadProperty@ioDamageUpDownBuff@@UAEXAAVioINILoader@@@Z PROC ; ioDamageUpDownBuff::LoadProperty, COMDAT
; _this$ = ecx

; 31   : {

  00000	55		 push	 ebp
  00001	8b ec		 mov	 ebp, esp
  00003	83 ec 1c	 sub	 esp, 28			; 0000001cH
  00006	a1 00 00 00 00	 mov	 eax, DWORD PTR ___security_cookie
  0000b	33 c5		 xor	 eax, ebp
  0000d	89 45 fc	 mov	 DWORD PTR __$ArrayPad$[ebp], eax
  00010	53		 push	 ebx
  00011	56		 push	 esi
  00012	57		 push	 edi
  00013	8b 7d 08	 mov	 edi, DWORD PTR _rkLoader$[ebp]

; 32   : 	ioBuff::LoadProperty( rkLoader );

  00016	57		 push	 edi
  00017	8b f1		 mov	 esi, ecx
  00019	e8 00 00 00 00	 call	 ?LoadProperty@ioBuff@@UAEXAAVioINILoader@@@Z ; ioBuff::LoadProperty

; 33   : 
; 34   : 	LoadAttackRateList( rkLoader );

  0001e	57		 push	 edi
  0001f	8b ce		 mov	 ecx, esi
  00021	e8 00 00 00 00	 call	 ?LoadAttackRateList@ioDamageUpDownBuff@@IAEXAAVioINILoader@@@Z ; ioDamageUpDownBuff::LoadAttackRateList

; 35   : 
; 36   : 	m_bDisableDownState  = rkLoader.LoadBool_e( "disable_down_state", false );

  00026	6a 04		 push	 4
  00028	c7 45 e4 89 85
	98 8b		 mov	 DWORD PTR __k$528221[ebp], -1952938615 ; 8b988589H
  0002f	c7 45 e8 8f 80
	8e b5		 mov	 DWORD PTR __k$528221[ebp+4], -1248952177 ; b58e808fH
  00036	c7 45 ec 89 83
	9c 84		 mov	 DWORD PTR __k$528221[ebp+8], -2070117495 ; 849c8389H
  0003d	c7 45 f0 b2 9f
	9f 8b		 mov	 DWORD PTR __k$528221[ebp+12], -1952473166 ; 8b9f9fb2H
  00044	66 c7 45 f4 99
	89		 mov	 WORD PTR __k$528221[ebp+16], 35225 ; 00008999H
  0004a	8d 45 e4	 lea	 eax, DWORD PTR __k$528221[ebp]
  0004d	c6 45 f6 00	 mov	 BYTE PTR __k$528221[ebp+18], 0
  00051	59		 pop	 ecx
$LL106@LoadProper:
  00052	81 30 ed ec eb
	ea		 xor	 DWORD PTR [eax], -353637139 ; eaebecedH
  00058	83 c0 04	 add	 eax, 4
  0005b	49		 dec	 ecx
  0005c	75 f4		 jne	 SHORT $LL106@LoadProper
  0005e	6a 10		 push	 16			; 00000010H
  00060	58		 pop	 eax
$LL103@LoadProper:
  00061	8b c8		 mov	 ecx, eax
  00063	81 e1 03 00 00
	80		 and	 ecx, -2147483645	; 80000003H
  00069	79 05		 jns	 SHORT $LN223@LoadProper
  0006b	49		 dec	 ecx
  0006c	83 c9 fc	 or	 ecx, -4			; fffffffcH
  0006f	41		 inc	 ecx
$LN223@LoadProper:
  00070	b2 ed		 mov	 dl, -19			; ffffffedH
  00072	2a d1		 sub	 dl, cl
  00074	30 54 05 e4	 xor	 BYTE PTR __k$528221[ebp+eax], dl
  00078	40		 inc	 eax
  00079	83 f8 12	 cmp	 eax, 18			; 00000012H
  0007c	7c e3		 jl	 SHORT $LL103@LoadProper
  0007e	8b 1d 00 00 00
	00		 mov	 ebx, DWORD PTR __imp_?LoadBool@ioINILoader@@QAE_NPBD_N@Z
  00084	6a 00		 push	 0
  00086	8d 45 e4	 lea	 eax, DWORD PTR __k$528221[ebp]
  00089	50		 push	 eax
  0008a	8b cf		 mov	 ecx, edi
  0008c	ff d3		 call	 ebx
  0008e	6a 04		 push	 4
  00090	88 86 7c 09 00
	00		 mov	 BYTE PTR [esi+2428], al

; 37   : 	m_bRemoveBuffByDrop = rkLoader.LoadBool_e( "remove_buff_drop", false );

  00096	c7 45 e4 9f 89
	86 85		 mov	 DWORD PTR __k$528346[ebp], -2054780513 ; 8586899fH
  0009d	c7 45 e8 9b 89
	b4 88		 mov	 DWORD PTR __k$528346[ebp+4], -2001434213 ; 88b4899bH
  000a4	c7 45 ec 98 8a
	8d b5		 mov	 DWORD PTR __k$528346[ebp+8], -1249015144 ; b58d8a98H
  000ab	c7 45 f0 89 9e
	84 9a		 mov	 DWORD PTR __k$528346[ebp+12], -1702584695 ; 9a849e89H
  000b2	8d 45 e4	 lea	 eax, DWORD PTR __k$528346[ebp]
  000b5	c6 45 f4 00	 mov	 BYTE PTR __k$528346[ebp+16], 0
  000b9	59		 pop	 ecx
$LL212@LoadProper:
  000ba	81 30 ed ec eb
	ea		 xor	 DWORD PTR [eax], -353637139 ; eaebecedH
  000c0	83 c0 04	 add	 eax, 4
  000c3	49		 dec	 ecx
  000c4	75 f4		 jne	 SHORT $LL212@LoadProper
  000c6	51		 push	 ecx
  000c7	8d 45 e4	 lea	 eax, DWORD PTR __k$528346[ebp]
  000ca	50		 push	 eax
  000cb	8b cf		 mov	 ecx, edi
  000cd	ff d3		 call	 ebx

; 38   : }

  000cf	8b 4d fc	 mov	 ecx, DWORD PTR __$ArrayPad$[ebp]
  000d2	5f		 pop	 edi
  000d3	88 86 7d 09 00
	00		 mov	 BYTE PTR [esi+2429], al
  000d9	5e		 pop	 esi
  000da	33 cd		 xor	 ecx, ebp
  000dc	5b		 pop	 ebx
  000dd	e8 00 00 00 00	 call	 @__security_check_cookie@4
  000e2	c9		 leave
  000e3	c2 04 00	 ret	 4
?LoadProperty@ioDamageUpDownBuff@@UAEXAAVioINILoader@@@Z ENDP ; ioDamageUpDownBuff::LoadProperty
_TEXT	ENDS
END
