; Listing generated by Microsoft (R) Optimizing Compiler Version 16.00.30319.01 

	TITLE	D:\Lost Saga For Developer\Youtube\Tutorial\Source\src\LSClient\ioDamageConvertBuff.cpp
	.686P
	.XMM
	include listing.inc
	.model	flat

INCLUDELIB MSVCRT
INCLUDELIB OLDNAMES

PUBLIC	?_EEM_DS@?$deque@UD3DXVECTOR3@@V?$allocator@UD3DXVECTOR3@@@std@@@std@@2HB ; std::deque<D3DXVECTOR3,std::allocator<D3DXVECTOR3> >::_EEM_DS
;	COMDAT ?_EEM_DS@?$deque@UD3DXVECTOR3@@V?$allocator@UD3DXVECTOR3@@@std@@@std@@2HB
CONST	SEGMENT
?_EEM_DS@?$deque@UD3DXVECTOR3@@V?$allocator@UD3DXVECTOR3@@@std@@@std@@2HB DD 01H ; std::deque<D3DXVECTOR3,std::allocator<D3DXVECTOR3> >::_EEM_DS
CONST	ENDS
PUBLIC	?return1@@YAIXZ					; return1
; Function compile flags: /Ogsp
; File d:\lost saga for developer\youtube\tutorial\source\src\lsclient\stdafx.h
;	COMDAT ?return1@@YAIXZ
_TEXT	SEGMENT
?return1@@YAIXZ PROC					; return1, COMDAT

; 17   : 	__forceinline unsigned int return1() { __asm mov eax, 1 };

  00000	b8 01 00 00 00	 mov	 eax, 1
  00005	c3		 ret	 0
?return1@@YAIXZ ENDP					; return1
_TEXT	ENDS
PUBLIC	?return100@@YAIXZ				; return100
; Function compile flags: /Ogsp
;	COMDAT ?return100@@YAIXZ
_TEXT	SEGMENT
?return100@@YAIXZ PROC					; return100, COMDAT

; 25   : 	__forceinline unsigned int return100() { __asm mov eax, 100 };

  00000	b8 64 00 00 00	 mov	 eax, 100		; 00000064H
  00005	c3		 ret	 0
?return100@@YAIXZ ENDP					; return100
_TEXT	ENDS
PUBLIC	?IsOwnerChar@ioBaseChar@@QBE_NXZ		; ioBaseChar::IsOwnerChar
; Function compile flags: /Ogsp
; File d:\lost saga for developer\youtube\tutorial\source\src\lsclient\iobasechar.h
;	COMDAT ?IsOwnerChar@ioBaseChar@@QBE_NXZ
_TEXT	SEGMENT
?IsOwnerChar@ioBaseChar@@QBE_NXZ PROC			; ioBaseChar::IsOwnerChar, COMDAT
; _this$ = ecx

; 1467 : 	inline bool IsOwnerChar() const { return m_bOwnerChar; }

  00000	8a 81 84 13 00
	00		 mov	 al, BYTE PTR [ecx+4996]
  00006	c3		 ret	 0
?IsOwnerChar@ioBaseChar@@QBE_NXZ ENDP			; ioBaseChar::IsOwnerChar
_TEXT	ENDS
PUBLIC	?GetCharacterInfo@ioBaseChar@@QBEABUCHARACTER@@XZ ; ioBaseChar::GetCharacterInfo
; Function compile flags: /Ogsp
;	COMDAT ?GetCharacterInfo@ioBaseChar@@QBEABUCHARACTER@@XZ
_TEXT	SEGMENT
?GetCharacterInfo@ioBaseChar@@QBEABUCHARACTER@@XZ PROC	; ioBaseChar::GetCharacterInfo, COMDAT
; _this$ = ecx

; 2777 : 	inline const CHARACTER& GetCharacterInfo() const { return m_CharInfo; }

  00000	8d 81 58 03 00
	00		 lea	 eax, DWORD PTR [ecx+856]
  00006	c3		 ret	 0
?GetCharacterInfo@ioBaseChar@@QBEABUCHARACTER@@XZ ENDP	; ioBaseChar::GetCharacterInfo
_TEXT	ENDS
PUBLIC	??_7bad_alloc@std@@6B@				; std::bad_alloc::`vftable'
PUBLIC	??0bad_alloc@std@@QAE@PBD@Z			; std::bad_alloc::bad_alloc
PUBLIC	??_R4bad_alloc@std@@6B@				; std::bad_alloc::`RTTI Complete Object Locator'
PUBLIC	??_R0?AVbad_alloc@std@@@8			; std::bad_alloc `RTTI Type Descriptor'
PUBLIC	??_R3bad_alloc@std@@8				; std::bad_alloc::`RTTI Class Hierarchy Descriptor'
PUBLIC	??_R2bad_alloc@std@@8				; std::bad_alloc::`RTTI Base Class Array'
PUBLIC	??_R1A@?0A@EA@bad_alloc@std@@8			; std::bad_alloc::`RTTI Base Class Descriptor at (0,-1,0,64)'
PUBLIC	??_R1A@?0A@EA@exception@std@@8			; std::exception::`RTTI Base Class Descriptor at (0,-1,0,64)'
PUBLIC	??_R0?AVexception@std@@@8			; std::exception `RTTI Type Descriptor'
PUBLIC	??_R3exception@std@@8				; std::exception::`RTTI Class Hierarchy Descriptor'
PUBLIC	??_R2exception@std@@8				; std::exception::`RTTI Base Class Array'
EXTRN	__imp_??0exception@std@@QAE@ABQBD@Z:PROC
EXTRN	??_7type_info@@6B@:QWORD			; type_info::`vftable'
EXTRN	??_Ebad_alloc@std@@UAEPAXI@Z:PROC		; std::bad_alloc::`vector deleting destructor'
EXTRN	?what@exception@std@@UBEPBDXZ:PROC		; std::exception::what
;	COMDAT ??_R2exception@std@@8
; File c:\program files (x86)\microsoft visual studio 10.0\vc\include\exception
rdata$r	SEGMENT
??_R2exception@std@@8 DD FLAT:??_R1A@?0A@EA@exception@std@@8 ; std::exception::`RTTI Base Class Array'
rdata$r	ENDS
;	COMDAT ??_R3exception@std@@8
rdata$r	SEGMENT
??_R3exception@std@@8 DD 00H				; std::exception::`RTTI Class Hierarchy Descriptor'
	DD	00H
	DD	01H
	DD	FLAT:??_R2exception@std@@8
rdata$r	ENDS
;	COMDAT ??_R0?AVexception@std@@@8
_DATA	SEGMENT
??_R0?AVexception@std@@@8 DD FLAT:??_7type_info@@6B@	; std::exception `RTTI Type Descriptor'
	DD	00H
	DB	'.?AVexception@std@@', 00H
_DATA	ENDS
;	COMDAT ??_R1A@?0A@EA@exception@std@@8
rdata$r	SEGMENT
??_R1A@?0A@EA@exception@std@@8 DD FLAT:??_R0?AVexception@std@@@8 ; std::exception::`RTTI Base Class Descriptor at (0,-1,0,64)'
	DD	00H
	DD	00H
	DD	0ffffffffH
	DD	00H
	DD	040H
	DD	FLAT:??_R3exception@std@@8
rdata$r	ENDS
;	COMDAT ??_R1A@?0A@EA@bad_alloc@std@@8
rdata$r	SEGMENT
??_R1A@?0A@EA@bad_alloc@std@@8 DD FLAT:??_R0?AVbad_alloc@std@@@8 ; std::bad_alloc::`RTTI Base Class Descriptor at (0,-1,0,64)'
	DD	01H
	DD	00H
	DD	0ffffffffH
	DD	00H
	DD	040H
	DD	FLAT:??_R3bad_alloc@std@@8
rdata$r	ENDS
;	COMDAT ??_R2bad_alloc@std@@8
rdata$r	SEGMENT
??_R2bad_alloc@std@@8 DD FLAT:??_R1A@?0A@EA@bad_alloc@std@@8 ; std::bad_alloc::`RTTI Base Class Array'
	DD	FLAT:??_R1A@?0A@EA@exception@std@@8
rdata$r	ENDS
;	COMDAT ??_R3bad_alloc@std@@8
rdata$r	SEGMENT
??_R3bad_alloc@std@@8 DD 00H				; std::bad_alloc::`RTTI Class Hierarchy Descriptor'
	DD	00H
	DD	02H
	DD	FLAT:??_R2bad_alloc@std@@8
rdata$r	ENDS
;	COMDAT ??_R0?AVbad_alloc@std@@@8
_DATA	SEGMENT
??_R0?AVbad_alloc@std@@@8 DD FLAT:??_7type_info@@6B@	; std::bad_alloc `RTTI Type Descriptor'
	DD	00H
	DB	'.?AVbad_alloc@std@@', 00H
_DATA	ENDS
;	COMDAT ??_R4bad_alloc@std@@6B@
rdata$r	SEGMENT
??_R4bad_alloc@std@@6B@ DD 00H				; std::bad_alloc::`RTTI Complete Object Locator'
	DD	00H
	DD	00H
	DD	FLAT:??_R0?AVbad_alloc@std@@@8
	DD	FLAT:??_R3bad_alloc@std@@8
rdata$r	ENDS
;	COMDAT ??_7bad_alloc@std@@6B@
CONST	SEGMENT
??_7bad_alloc@std@@6B@ DD FLAT:??_R4bad_alloc@std@@6B@	; std::bad_alloc::`vftable'
	DD	FLAT:??_Ebad_alloc@std@@UAEPAXI@Z
	DD	FLAT:?what@exception@std@@UBEPBDXZ
; Function compile flags: /Ogsp
CONST	ENDS
;	COMDAT ??0bad_alloc@std@@QAE@PBD@Z
_TEXT	SEGMENT
__Message$ = 8						; size = 4
??0bad_alloc@std@@QAE@PBD@Z PROC			; std::bad_alloc::bad_alloc, COMDAT
; _this$ = ecx

; 345  : 		{	// construct from message string

  00000	55		 push	 ebp
  00001	8b ec		 mov	 ebp, esp
  00003	56		 push	 esi
  00004	8d 45 08	 lea	 eax, DWORD PTR __Message$[ebp]
  00007	50		 push	 eax
  00008	8b f1		 mov	 esi, ecx
  0000a	ff 15 00 00 00
	00		 call	 DWORD PTR __imp_??0exception@std@@QAE@ABQBD@Z
  00010	c7 06 00 00 00
	00		 mov	 DWORD PTR [esi], OFFSET ??_7bad_alloc@std@@6B@

; 346  : 		}

  00016	8b c6		 mov	 eax, esi
  00018	5e		 pop	 esi
  00019	5d		 pop	 ebp
  0001a	c2 04 00	 ret	 4
??0bad_alloc@std@@QAE@PBD@Z ENDP			; std::bad_alloc::bad_alloc
_TEXT	ENDS
PUBLIC	??1bad_alloc@std@@UAE@XZ			; std::bad_alloc::~bad_alloc
EXTRN	__imp_??1exception@std@@UAE@XZ:PROC
; Function compile flags: /Ogsp
;	COMDAT ??1bad_alloc@std@@UAE@XZ
_TEXT	SEGMENT
??1bad_alloc@std@@UAE@XZ PROC				; std::bad_alloc::~bad_alloc, COMDAT
; _this$ = ecx

; 354  : 		{	// destroy the object

  00000	c7 01 00 00 00
	00		 mov	 DWORD PTR [ecx], OFFSET ??_7bad_alloc@std@@6B@

; 355  : 		}

  00006	ff 25 00 00 00
	00		 jmp	 DWORD PTR __imp_??1exception@std@@UAE@XZ
??1bad_alloc@std@@UAE@XZ ENDP				; std::bad_alloc::~bad_alloc
_TEXT	ENDS
EXTRN	??3@YAXPAX@Z:PROC				; operator delete
; Function compile flags: /Ogsp
;	COMDAT ??_Gbad_alloc@std@@UAEPAXI@Z
_TEXT	SEGMENT
___flags$ = 8						; size = 4
??_Gbad_alloc@std@@UAEPAXI@Z PROC			; std::bad_alloc::`scalar deleting destructor', COMDAT
; _this$ = ecx
  00000	55		 push	 ebp
  00001	8b ec		 mov	 ebp, esp
  00003	56		 push	 esi
  00004	8b f1		 mov	 esi, ecx
  00006	c7 06 00 00 00
	00		 mov	 DWORD PTR [esi], OFFSET ??_7bad_alloc@std@@6B@
  0000c	ff 15 00 00 00
	00		 call	 DWORD PTR __imp_??1exception@std@@UAE@XZ
  00012	f6 45 08 01	 test	 BYTE PTR ___flags$[ebp], 1
  00016	74 07		 je	 SHORT $LN1@scalar
  00018	56		 push	 esi
  00019	e8 00 00 00 00	 call	 ??3@YAXPAX@Z		; operator delete
  0001e	59		 pop	 ecx
$LN1@scalar:
  0001f	8b c6		 mov	 eax, esi
  00021	5e		 pop	 esi
  00022	5d		 pop	 ebp
  00023	c2 04 00	 ret	 4
??_Gbad_alloc@std@@UAEPAXI@Z ENDP			; std::bad_alloc::`scalar deleting destructor'
_TEXT	ENDS
PUBLIC	??2@YAPAXIPAX@Z					; operator new
; Function compile flags: /Ogsp
; File c:\program files (x86)\microsoft visual studio 10.0\vc\include\new
;	COMDAT ??2@YAPAXIPAX@Z
_TEXT	SEGMENT
___formal$ = 8						; size = 4
__Where$ = 12						; size = 4
??2@YAPAXIPAX@Z PROC					; operator new, COMDAT

; 56   : 	{	// construct array with placement at _Where

  00000	55		 push	 ebp
  00001	8b ec		 mov	 ebp, esp

; 57   : 	return (_Where);

  00003	8b 45 0c	 mov	 eax, DWORD PTR __Where$[ebp]

; 58   : 	}

  00006	5d		 pop	 ebp
  00007	c3		 ret	 0
??2@YAPAXIPAX@Z ENDP					; operator new
_TEXT	ENDS
PUBLIC	??3@YAXPAX0@Z					; operator delete
; Function compile flags: /Ogsp
;	COMDAT ??3@YAXPAX0@Z
_TEXT	SEGMENT
___formal$ = 8						; size = 4
___formal$ = 12						; size = 4
??3@YAXPAX0@Z PROC					; operator delete, COMDAT

; 62   : 	}

  00000	c3		 ret	 0
??3@YAXPAX0@Z ENDP					; operator delete
_TEXT	ENDS
PUBLIC	?GetCreator@ioBaseChar@@QAEPAVioPlayStage@@XZ	; ioBaseChar::GetCreator
; Function compile flags: /Ogsp
; File d:\lost saga for developer\youtube\tutorial\source\src\lsclient\iobasechar.h
;	COMDAT ?GetCreator@ioBaseChar@@QAEPAVioPlayStage@@XZ
_TEXT	SEGMENT
?GetCreator@ioBaseChar@@QAEPAVioPlayStage@@XZ PROC	; ioBaseChar::GetCreator, COMDAT
; _this$ = ecx

; 4013 : 	inline ioPlayStage* GetCreator() { return m_pCreator; }

  00000	8b 81 44 03 00
	00		 mov	 eax, DWORD PTR [ecx+836]
  00006	c3		 ret	 0
?GetCreator@ioBaseChar@@QAEPAVioPlayStage@@XZ ENDP	; ioBaseChar::GetCreator
_TEXT	ENDS
PUBLIC	?GetType@ioGrowthUpInfo@@QBE?AW4GrowthType@@XZ	; ioGrowthUpInfo::GetType
; Function compile flags: /Ogsp
; File d:\lost saga for developer\youtube\tutorial\source\src\lsclient\iogrowthupinfo.h
;	COMDAT ?GetType@ioGrowthUpInfo@@QBE?AW4GrowthType@@XZ
_TEXT	SEGMENT
?GetType@ioGrowthUpInfo@@QBE?AW4GrowthType@@XZ PROC	; ioGrowthUpInfo::GetType, COMDAT
; _this$ = ecx

; 23   : 	inline GrowthType GetType() const { return m_GrowthType; }

  00000	8b 41 04	 mov	 eax, DWORD PTR [ecx+4]
  00003	c3		 ret	 0
?GetType@ioGrowthUpInfo@@QBE?AW4GrowthType@@XZ ENDP	; ioGrowthUpInfo::GetType
_TEXT	ENDS
PUBLIC	??_R0?AVioGrowthUpInfo@@@8			; ioGrowthUpInfo `RTTI Type Descriptor'
PUBLIC	??_R0?AVioGrowthNormalUpInfo@@@8		; ioGrowthNormalUpInfo `RTTI Type Descriptor'
PUBLIC	?ToNormalUpInfo@@YAPAVioGrowthNormalUpInfo@@PAVioGrowthUpInfo@@@Z ; ToNormalUpInfo
EXTRN	___RTDynamicCast:PROC
;	COMDAT ??_R0?AVioGrowthUpInfo@@@8
_DATA	SEGMENT
??_R0?AVioGrowthUpInfo@@@8 DD FLAT:??_7type_info@@6B@	; ioGrowthUpInfo `RTTI Type Descriptor'
	DD	00H
	DB	'.?AVioGrowthUpInfo@@', 00H
_DATA	ENDS
;	COMDAT ??_R0?AVioGrowthNormalUpInfo@@@8
_DATA	SEGMENT
??_R0?AVioGrowthNormalUpInfo@@@8 DD FLAT:??_7type_info@@6B@ ; ioGrowthNormalUpInfo `RTTI Type Descriptor'
	DD	00H
	DB	'.?AVioGrowthNormalUpInfo@@', 00H
; Function compile flags: /Ogsp
_DATA	ENDS
;	COMDAT ?ToNormalUpInfo@@YAPAVioGrowthNormalUpInfo@@PAVioGrowthUpInfo@@@Z
_TEXT	SEGMENT
_pUpInfo$ = 8						; size = 4
?ToNormalUpInfo@@YAPAVioGrowthNormalUpInfo@@PAVioGrowthUpInfo@@@Z PROC ; ToNormalUpInfo, COMDAT

; 59   : {

  00000	55		 push	 ebp
  00001	8b ec		 mov	 ebp, esp

; 60   : 	if( !pUpInfo || pUpInfo->GetType() == GT_NONE )

  00003	8b 4d 08	 mov	 ecx, DWORD PTR _pUpInfo$[ebp]
  00006	85 c9		 test	 ecx, ecx
  00008	74 39		 je	 SHORT $LN6@ToNormalUp
  0000a	8b 41 04	 mov	 eax, DWORD PTR [ecx+4]
  0000d	85 c0		 test	 eax, eax
  0000f	74 32		 je	 SHORT $LN6@ToNormalUp

; 62   : 
; 63   : 	if( pUpInfo->GetType() == GT_CHAR_ATTACK || pUpInfo->GetType() == GT_SKILL_ATTACK )

  00011	83 f8 01	 cmp	 eax, 1
  00014	74 2d		 je	 SHORT $LN6@ToNormalUp
  00016	83 f8 07	 cmp	 eax, 7
  00019	74 28		 je	 SHORT $LN6@ToNormalUp

; 64   : 		return NULL;
; 65   : 	if( pUpInfo->GetType() == GT_BLOW_PUSH )

  0001b	83 f8 1e	 cmp	 eax, 30			; 0000001eH

; 66   : 		return NULL;

  0001e	74 23		 je	 SHORT $LN6@ToNormalUp

; 67   : 	if( pUpInfo->GetType() == GT_TELEPORT_ANI_RATE )

  00020	83 f8 20	 cmp	 eax, 32			; 00000020H

; 68   : 		return NULL;

  00023	74 1e		 je	 SHORT $LN6@ToNormalUp

; 69   : 	if( pUpInfo->GetType() == GT_SKILL_ATTACK_FORCE )

  00025	83 f8 1c	 cmp	 eax, 28			; 0000001cH

; 70   : 		return NULL;

  00028	74 19		 je	 SHORT $LN6@ToNormalUp

; 71   : 
; 72   : 	return dynamic_cast< ioGrowthNormalUpInfo* >( pUpInfo );

  0002a	6a 00		 push	 0
  0002c	68 00 00 00 00	 push	 OFFSET ??_R0?AVioGrowthNormalUpInfo@@@8
  00031	68 00 00 00 00	 push	 OFFSET ??_R0?AVioGrowthUpInfo@@@8
  00036	6a 00		 push	 0
  00038	51		 push	 ecx
  00039	e8 00 00 00 00	 call	 ___RTDynamicCast
  0003e	83 c4 14	 add	 esp, 20			; 00000014H

; 73   : }

  00041	5d		 pop	 ebp
  00042	c3		 ret	 0
$LN6@ToNormalUp:

; 61   : 		return NULL;

  00043	33 c0		 xor	 eax, eax

; 73   : }

  00045	5d		 pop	 ebp
  00046	c3		 ret	 0
?ToNormalUpInfo@@YAPAVioGrowthNormalUpInfo@@PAVioGrowthUpInfo@@@Z ENDP ; ToNormalUpInfo
_TEXT	ENDS
PUBLIC	?StartBuff@ioDamageConvertBuff@@UAEXPAVioBaseChar@@@Z ; ioDamageConvertBuff::StartBuff
EXTRN	?CheckDamageInfo@ioBaseChar@@QAEX_N@Z:PROC	; ioBaseChar::CheckDamageInfo
EXTRN	?StartBuff@ioBuff@@UAEXPAVioBaseChar@@@Z:PROC	; ioBuff::StartBuff
; Function compile flags: /Ogsp
; File d:\lost saga for developer\youtube\tutorial\source\src\lsclient\iodamageconvertbuff.cpp
;	COMDAT ?StartBuff@ioDamageConvertBuff@@UAEXPAVioBaseChar@@@Z
_TEXT	SEGMENT
_pOwner$ = 8						; size = 4
?StartBuff@ioDamageConvertBuff@@UAEXPAVioBaseChar@@@Z PROC ; ioDamageConvertBuff::StartBuff, COMDAT
; _this$ = ecx

; 88   : {

  00000	55		 push	 ebp
  00001	8b ec		 mov	 ebp, esp
  00003	56		 push	 esi

; 89   : 	ioBuff::StartBuff( pOwner );

  00004	ff 75 08	 push	 DWORD PTR _pOwner$[ebp]
  00007	8b f1		 mov	 esi, ecx
  00009	e8 00 00 00 00	 call	 ?StartBuff@ioBuff@@UAEXPAVioBaseChar@@@Z ; ioBuff::StartBuff

; 90   : 
; 91   : 	m_nCurAttackCnt = 0;
; 92   : 
; 93   : 	pOwner->CheckDamageInfo( true );

  0000e	8b 4d 08	 mov	 ecx, DWORD PTR _pOwner$[ebp]
  00011	83 a6 94 0a 00
	00 00		 and	 DWORD PTR [esi+2708], 0
  00018	6a 01		 push	 1
  0001a	e8 00 00 00 00	 call	 ?CheckDamageInfo@ioBaseChar@@QAEX_N@Z ; ioBaseChar::CheckDamageInfo
  0001f	5e		 pop	 esi

; 94   : }

  00020	5d		 pop	 ebp
  00021	c2 04 00	 ret	 4
?StartBuff@ioDamageConvertBuff@@UAEXPAVioBaseChar@@@Z ENDP ; ioDamageConvertBuff::StartBuff
_TEXT	ENDS
PUBLIC	?ApplyStartBuff@ioDamageConvertBuff@@UAE_NPAVioBaseChar@@KK@Z ; ioDamageConvertBuff::ApplyStartBuff
EXTRN	?ApplyStartBuff@ioBuff@@UAE_NPAVioBaseChar@@KK@Z:PROC ; ioBuff::ApplyStartBuff
; Function compile flags: /Ogsp
;	COMDAT ?ApplyStartBuff@ioDamageConvertBuff@@UAE_NPAVioBaseChar@@KK@Z
_TEXT	SEGMENT
_pOwner$ = 8						; size = 4
_dwGlobalTime$ = 12					; size = 4
_dwGapTime$ = 16					; size = 4
?ApplyStartBuff@ioDamageConvertBuff@@UAE_NPAVioBaseChar@@KK@Z PROC ; ioDamageConvertBuff::ApplyStartBuff, COMDAT
; _this$ = ecx

; 108  : {

  00000	55		 push	 ebp
  00001	8b ec		 mov	 ebp, esp

; 109  : 	if( !ioBuff::ApplyStartBuff( pOwner, dwGlobalTime, dwGapTime ) )

  00003	ff 75 10	 push	 DWORD PTR _dwGapTime$[ebp]
  00006	ff 75 0c	 push	 DWORD PTR _dwGlobalTime$[ebp]
  00009	ff 75 08	 push	 DWORD PTR _pOwner$[ebp]
  0000c	e8 00 00 00 00	 call	 ?ApplyStartBuff@ioBuff@@UAE_NPAVioBaseChar@@KK@Z ; ioBuff::ApplyStartBuff
  00011	84 c0		 test	 al, al
  00013	74 0c		 je	 SHORT $LN2@ApplyStart
$LN1@ApplyStart:

; 110  : 		return false;
; 111  : 
; 112  : 	pOwner->CheckDamageInfo( true );

  00015	8b 4d 08	 mov	 ecx, DWORD PTR _pOwner$[ebp]
  00018	6a 01		 push	 1
  0001a	e8 00 00 00 00	 call	 ?CheckDamageInfo@ioBaseChar@@QAEX_N@Z ; ioBaseChar::CheckDamageInfo

; 113  : 	return true;

  0001f	b0 01		 mov	 al, 1
$LN2@ApplyStart:

; 114  : }

  00021	5d		 pop	 ebp
  00022	c2 0c 00	 ret	 12			; 0000000cH
?ApplyStartBuff@ioDamageConvertBuff@@UAE_NPAVioBaseChar@@KK@Z ENDP ; ioDamageConvertBuff::ApplyStartBuff
_TEXT	ENDS
PUBLIC	?_Adopt@_Iterator_base0@std@@QAEXPBX@Z		; std::_Iterator_base0::_Adopt
; Function compile flags: /Ogsp
; File c:\program files (x86)\microsoft visual studio 10.0\vc\include\xutility
;	COMDAT ?_Adopt@_Iterator_base0@std@@QAEXPBX@Z
_TEXT	SEGMENT
___formal$ = 8						; size = 4
?_Adopt@_Iterator_base0@std@@QAEXPBX@Z PROC		; std::_Iterator_base0::_Adopt, COMDAT
; _this$ = ecx

; 49   : 		}

  00000	c2 04 00	 ret	 4
?_Adopt@_Iterator_base0@std@@QAEXPBX@Z ENDP		; std::_Iterator_base0::_Adopt
_TEXT	ENDS
PUBLIC	?EndBuff@ioDamageConvertBuff@@UAEXXZ		; ioDamageConvertBuff::EndBuff
EXTRN	?EndBuff@ioBuff@@UAEXXZ:PROC			; ioBuff::EndBuff
EXTRN	?EndEffect@ioBaseChar@@QAEXABVioHashString@@_N1@Z:PROC ; ioBaseChar::EndEffect
EXTRN	__imp_?IsEmpty@ioHashString@@QBE_NXZ:PROC
; Function compile flags: /Ogsp
; File d:\lost saga for developer\youtube\tutorial\source\src\lsclient\iodamageconvertbuff.cpp
;	COMDAT ?EndBuff@ioDamageConvertBuff@@UAEXXZ
_TEXT	SEGMENT
?EndBuff@ioDamageConvertBuff@@UAEXXZ PROC		; ioDamageConvertBuff::EndBuff, COMDAT
; _this$ = ecx

; 351  : {

  00000	56		 push	 esi
  00001	57		 push	 edi
  00002	8b f1		 mov	 esi, ecx

; 352  : 	m_pOwner->CheckDamageInfo( false );

  00004	8b 8e 74 02 00
	00		 mov	 ecx, DWORD PTR [esi+628]
  0000a	6a 00		 push	 0
  0000c	e8 00 00 00 00	 call	 ?CheckDamageInfo@ioBaseChar@@QAEX_N@Z ; ioBaseChar::CheckDamageInfo

; 353  : 
; 354  : 	if( !m_DamageConvertEffect.IsEmpty() )

  00011	8d be 70 0a 00
	00		 lea	 edi, DWORD PTR [esi+2672]
  00017	8b cf		 mov	 ecx, edi
  00019	ff 15 00 00 00
	00		 call	 DWORD PTR __imp_?IsEmpty@ioHashString@@QBE_NXZ
  0001f	84 c0		 test	 al, al
  00021	75 10		 jne	 SHORT $LN2@EndBuff

; 355  : 	{
; 356  : 		m_pOwner->EndEffect( m_DamageConvertEffect, false );

  00023	8b 8e 74 02 00
	00		 mov	 ecx, DWORD PTR [esi+628]
  00029	6a 01		 push	 1
  0002b	6a 00		 push	 0
  0002d	57		 push	 edi
  0002e	e8 00 00 00 00	 call	 ?EndEffect@ioBaseChar@@QAEXABVioHashString@@_N1@Z ; ioBaseChar::EndEffect
$LN2@EndBuff:

; 357  : 	}
; 358  : 
; 359  : 	if( !m_HPStealEffect.IsEmpty() )

  00033	8d be 60 0a 00
	00		 lea	 edi, DWORD PTR [esi+2656]
  00039	8b cf		 mov	 ecx, edi
  0003b	ff 15 00 00 00
	00		 call	 DWORD PTR __imp_?IsEmpty@ioHashString@@QBE_NXZ
  00041	84 c0		 test	 al, al
  00043	75 10		 jne	 SHORT $LN1@EndBuff

; 360  : 	{
; 361  : 		m_pOwner->EndEffect( m_HPStealEffect, false );

  00045	8b 8e 74 02 00
	00		 mov	 ecx, DWORD PTR [esi+628]
  0004b	6a 01		 push	 1
  0004d	6a 00		 push	 0
  0004f	57		 push	 edi
  00050	e8 00 00 00 00	 call	 ?EndEffect@ioBaseChar@@QAEXABVioHashString@@_N1@Z ; ioBaseChar::EndEffect
$LN1@EndBuff:

; 362  : 	}
; 363  : 
; 364  : 	ioBuff::EndBuff();

  00055	5f		 pop	 edi
  00056	8b ce		 mov	 ecx, esi
  00058	5e		 pop	 esi
  00059	e9 00 00 00 00	 jmp	 ?EndBuff@ioBuff@@UAEXXZ	; ioBuff::EndBuff
?EndBuff@ioDamageConvertBuff@@UAEXXZ ENDP		; ioDamageConvertBuff::EndBuff
_TEXT	ENDS
PUBLIC	?size@?$vector@UDamageInfo@@V?$allocator@UDamageInfo@@@std@@@std@@QBEIXZ ; std::vector<DamageInfo,std::allocator<DamageInfo> >::size
; Function compile flags: /Ogsp
; File c:\program files (x86)\microsoft visual studio 10.0\vc\include\vector
;	COMDAT ?size@?$vector@UDamageInfo@@V?$allocator@UDamageInfo@@@std@@@std@@QBEIXZ
_TEXT	SEGMENT
?size@?$vector@UDamageInfo@@V?$allocator@UDamageInfo@@@std@@@std@@QBEIXZ PROC ; std::vector<DamageInfo,std::allocator<DamageInfo> >::size, COMDAT
; _this$ = ecx

; 879  : 		return (this->_Mylast - this->_Myfirst);

  00000	8b 41 04	 mov	 eax, DWORD PTR [ecx+4]
  00003	2b 01		 sub	 eax, DWORD PTR [ecx]
  00005	c1 f8 03	 sar	 eax, 3

; 880  : 		}

  00008	c3		 ret	 0
?size@?$vector@UDamageInfo@@V?$allocator@UDamageInfo@@@std@@@std@@QBEIXZ ENDP ; std::vector<DamageInfo,std::allocator<DamageInfo> >::size
_TEXT	ENDS
PUBLIC	??A?$vector@UDamageInfo@@V?$allocator@UDamageInfo@@@std@@@std@@QBEABUDamageInfo@@I@Z ; std::vector<DamageInfo,std::allocator<DamageInfo> >::operator[]
; Function compile flags: /Ogsp
;	COMDAT ??A?$vector@UDamageInfo@@V?$allocator@UDamageInfo@@@std@@@std@@QBEABUDamageInfo@@I@Z
_TEXT	SEGMENT
__Pos$ = 8						; size = 4
??A?$vector@UDamageInfo@@V?$allocator@UDamageInfo@@@std@@@std@@QBEABUDamageInfo@@I@Z PROC ; std::vector<DamageInfo,std::allocator<DamageInfo> >::operator[], COMDAT
; _this$ = ecx

; 912  : 		{	// subscript nonmutable sequence

  00000	55		 push	 ebp
  00001	8b ec		 mov	 ebp, esp

; 913  :  #if _ITERATOR_DEBUG_LEVEL == 2
; 914  : 		if (size() <= _Pos)
; 915  : 			{	// report error
; 916  : 			_DEBUG_ERROR("vector subscript out of range");
; 917  : 			_SCL_SECURE_OUT_OF_RANGE;
; 918  : 			}
; 919  : 
; 920  :  #elif _ITERATOR_DEBUG_LEVEL == 1
; 921  : 		_SCL_SECURE_VALIDATE_RANGE(_Pos < size());
; 922  :  #endif /* _ITERATOR_DEBUG_LEVEL */
; 923  : 
; 924  : 		return (*(this->_Myfirst + _Pos));

  00003	8b 01		 mov	 eax, DWORD PTR [ecx]
  00005	8b 4d 08	 mov	 ecx, DWORD PTR __Pos$[ebp]
  00008	8d 04 c8	 lea	 eax, DWORD PTR [eax+ecx*8]

; 925  : 		}

  0000b	5d		 pop	 ebp
  0000c	c2 04 00	 ret	 4
??A?$vector@UDamageInfo@@V?$allocator@UDamageInfo@@@std@@@std@@QBEABUDamageInfo@@I@Z ENDP ; std::vector<DamageInfo,std::allocator<DamageInfo> >::operator[]
_TEXT	ENDS
PUBLIC	?_Inside@?$vector@HV?$allocator@H@std@@@std@@IBE_NPBH@Z ; std::vector<int,std::allocator<int> >::_Inside
; Function compile flags: /Ogsp
;	COMDAT ?_Inside@?$vector@HV?$allocator@H@std@@@std@@IBE_NPBH@Z
_TEXT	SEGMENT
__Ptr$ = 8						; size = 4
?_Inside@?$vector@HV?$allocator@H@std@@@std@@IBE_NPBH@Z PROC ; std::vector<int,std::allocator<int> >::_Inside, COMDAT
; _this$ = ecx

; 1285 : 		{	// test if _Ptr points inside vector

  00000	55		 push	 ebp
  00001	8b ec		 mov	 ebp, esp

; 1286 : 		return (_Ptr < this->_Mylast && this->_Myfirst <= _Ptr);

  00003	8b 45 08	 mov	 eax, DWORD PTR __Ptr$[ebp]
  00006	3b 41 04	 cmp	 eax, DWORD PTR [ecx+4]
  00009	73 09		 jae	 SHORT $LN3@Inside
  0000b	39 01		 cmp	 DWORD PTR [ecx], eax
  0000d	77 05		 ja	 SHORT $LN3@Inside
  0000f	33 c0		 xor	 eax, eax
  00011	40		 inc	 eax
  00012	eb 02		 jmp	 SHORT $LN4@Inside
$LN3@Inside:
  00014	33 c0		 xor	 eax, eax
$LN4@Inside:

; 1287 : 		}

  00016	5d		 pop	 ebp
  00017	c2 04 00	 ret	 4
?_Inside@?$vector@HV?$allocator@H@std@@@std@@IBE_NPBH@Z ENDP ; std::vector<int,std::allocator<int> >::_Inside
_TEXT	ENDS
PUBLIC	?_Orphan_range@?$vector@HV?$allocator@H@std@@@std@@IBEXPAH0@Z ; std::vector<int,std::allocator<int> >::_Orphan_range
; Function compile flags: /Ogsp
;	COMDAT ?_Orphan_range@?$vector@HV?$allocator@H@std@@@std@@IBEXPAH0@Z
_TEXT	SEGMENT
___formal$ = 8						; size = 4
___formal$ = 12						; size = 4
?_Orphan_range@?$vector@HV?$allocator@H@std@@@std@@IBEXPAH0@Z PROC ; std::vector<int,std::allocator<int> >::_Orphan_range, COMDAT
; _this$ = ecx

; 1454 : 		}

  00000	c2 08 00	 ret	 8
?_Orphan_range@?$vector@HV?$allocator@H@std@@@std@@IBEXPAH0@Z ENDP ; std::vector<int,std::allocator<int> >::_Orphan_range
_TEXT	ENDS
PUBLIC	??$addressof@$$CBH@std@@YAPBHABH@Z		; std::addressof<int const >
; Function compile flags: /Ogsp
; File c:\program files (x86)\microsoft visual studio 10.0\vc\include\xmemory
;	COMDAT ??$addressof@$$CBH@std@@YAPBHABH@Z
_TEXT	SEGMENT
__Val$ = 8						; size = 4
??$addressof@$$CBH@std@@YAPBHABH@Z PROC			; std::addressof<int const >, COMDAT

; 110  : 	{	// return address of _Val

  00000	55		 push	 ebp
  00001	8b ec		 mov	 ebp, esp

; 111  : 	return ((_Ty *) &(char&)_Val);

  00003	8b 45 08	 mov	 eax, DWORD PTR __Val$[ebp]

; 112  : 	}

  00006	5d		 pop	 ebp
  00007	c3		 ret	 0
??$addressof@$$CBH@std@@YAPBHABH@Z ENDP			; std::addressof<int const >
_TEXT	ENDS
PUBLIC	??$forward@ABH@std@@YAABHABH@Z			; std::forward<int const &>
; Function compile flags: /Ogsp
; File c:\program files (x86)\microsoft visual studio 10.0\vc\include\utility
;	COMDAT ??$forward@ABH@std@@YAABHABH@Z
_TEXT	SEGMENT
__Arg$ = 8						; size = 4
??$forward@ABH@std@@YAABHABH@Z PROC			; std::forward<int const &>, COMDAT

; 78   : 	{	// forward _Arg, given explicitly specified type parameter

  00000	55		 push	 ebp
  00001	8b ec		 mov	 ebp, esp

; 79   : 	return ((_Ty&&)_Arg);

  00003	8b 45 08	 mov	 eax, DWORD PTR __Arg$[ebp]

; 80   : 	}

  00006	5d		 pop	 ebp
  00007	c3		 ret	 0
??$forward@ABH@std@@YAABHABH@Z ENDP			; std::forward<int const &>
_TEXT	ENDS
PUBLIC	??$_Construct@HABH@std@@YAXPAHABH@Z		; std::_Construct<int,int const &>
; Function compile flags: /Ogsp
; File c:\program files (x86)\microsoft visual studio 10.0\vc\include\xmemory
;	COMDAT ??$_Construct@HABH@std@@YAXPAHABH@Z
_TEXT	SEGMENT
__Ptr$ = 8						; size = 4
__Val$ = 12						; size = 4
??$_Construct@HABH@std@@YAXPAHABH@Z PROC		; std::_Construct<int,int const &>, COMDAT

; 46   : 	{	// construct object at _Ptr with value _Val

  00000	55		 push	 ebp
  00001	8b ec		 mov	 ebp, esp

; 47   : 	void _FARQ *_Vptr = _Ptr;
; 48   : 	::new (_Vptr) _Ty1(_STD forward<_Ty2>(_Val));

  00003	8b 45 08	 mov	 eax, DWORD PTR __Ptr$[ebp]
  00006	85 c0		 test	 eax, eax
  00008	74 07		 je	 SHORT $LN3@Construct
  0000a	8b 4d 0c	 mov	 ecx, DWORD PTR __Val$[ebp]
  0000d	8b 09		 mov	 ecx, DWORD PTR [ecx]
  0000f	89 08		 mov	 DWORD PTR [eax], ecx
$LN3@Construct:

; 49   : 	}

  00011	5d		 pop	 ebp
  00012	c3		 ret	 0
??$_Construct@HABH@std@@YAXPAHABH@Z ENDP		; std::_Construct<int,int const &>
_TEXT	ENDS
PUBLIC	??$_Ptr_cat@V?$_Vector_const_iterator@V?$_Vector_val@HV?$allocator@H@std@@@std@@@std@@PAH@std@@YA?AU_Nonscalar_ptr_iterator_tag@0@AAV?$_Vector_const_iterator@V?$_Vector_val@HV?$allocator@H@std@@@std@@@0@AAPAH@Z ; std::_Ptr_cat<std::_Vector_const_iterator<std::_Vector_val<int,std::allocator<int> > >,int *>
; Function compile flags: /Ogsp
; File c:\program files (x86)\microsoft visual studio 10.0\vc\include\xutility
;	COMDAT ??$_Ptr_cat@V?$_Vector_const_iterator@V?$_Vector_val@HV?$allocator@H@std@@@std@@@std@@PAH@std@@YA?AU_Nonscalar_ptr_iterator_tag@0@AAV?$_Vector_const_iterator@V?$_Vector_val@HV?$allocator@H@std@@@std@@@0@AAPAH@Z
_TEXT	SEGMENT
__Cat$ = -1						; size = 1
___formal$ = 8						; size = 4
___formal$ = 12						; size = 4
??$_Ptr_cat@V?$_Vector_const_iterator@V?$_Vector_val@HV?$allocator@H@std@@@std@@@std@@PAH@std@@YA?AU_Nonscalar_ptr_iterator_tag@0@AAV?$_Vector_const_iterator@V?$_Vector_val@HV?$allocator@H@std@@@std@@@0@AAPAH@Z PROC ; std::_Ptr_cat<std::_Vector_const_iterator<std::_Vector_val<int,std::allocator<int> > >,int *>, COMDAT

; 485  : 	{	// return pointer category from arbitrary arguments

  00000	55		 push	 ebp
  00001	8b ec		 mov	 ebp, esp
  00003	51		 push	 ecx

; 486  : 	_Nonscalar_ptr_iterator_tag _Cat;
; 487  : 	return (_Cat);

  00004	8a 45 ff	 mov	 al, BYTE PTR __Cat$[ebp]

; 488  : 	}

  00007	c9		 leave
  00008	c3		 ret	 0
??$_Ptr_cat@V?$_Vector_const_iterator@V?$_Vector_val@HV?$allocator@H@std@@@std@@@std@@PAH@std@@YA?AU_Nonscalar_ptr_iterator_tag@0@AAV?$_Vector_const_iterator@V?$_Vector_val@HV?$allocator@H@std@@@std@@@0@AAPAH@Z ENDP ; std::_Ptr_cat<std::_Vector_const_iterator<std::_Vector_val<int,std::allocator<int> > >,int *>
_TEXT	ENDS
PUBLIC	??D?$_Vector_const_iterator@V?$_Vector_val@HV?$allocator@H@std@@@std@@@std@@QBEABHXZ ; std::_Vector_const_iterator<std::_Vector_val<int,std::allocator<int> > >::operator*
; Function compile flags: /Ogsp
; File c:\program files (x86)\microsoft visual studio 10.0\vc\include\vector
;	COMDAT ??D?$_Vector_const_iterator@V?$_Vector_val@HV?$allocator@H@std@@@std@@@std@@QBEABHXZ
_TEXT	SEGMENT
??D?$_Vector_const_iterator@V?$_Vector_val@HV?$allocator@H@std@@@std@@@std@@QBEABHXZ PROC ; std::_Vector_const_iterator<std::_Vector_val<int,std::allocator<int> > >::operator*, COMDAT
; _this$ = ecx

; 64   :  #if _ITERATOR_DEBUG_LEVEL == 2
; 65   : 		if (this->_Getcont() == 0
; 66   : 			|| this->_Ptr == 0
; 67   : 			|| this->_Ptr < ((_Myvec *)this->_Getcont())->_Myfirst
; 68   : 			|| ((_Myvec *)this->_Getcont())->_Mylast <= this->_Ptr)
; 69   : 			{	// report error
; 70   : 			_DEBUG_ERROR("vector iterator not dereferencable");
; 71   : 			_SCL_SECURE_OUT_OF_RANGE;
; 72   : 			}
; 73   : 
; 74   :  #elif _ITERATOR_DEBUG_LEVEL == 1
; 75   : 		_SCL_SECURE_VALIDATE(this->_Getcont() != 0);
; 76   : 		_SCL_SECURE_VALIDATE_RANGE(
; 77   : 			this->_Ptr != 0
; 78   : 			&& ((_Myvec *)this->_Getcont())->_Myfirst <= this->_Ptr
; 79   : 			&& this->_Ptr < ((_Myvec *)this->_Getcont())->_Mylast);
; 80   :  #endif /* _ITERATOR_DEBUG_LEVEL */
; 81   : 
; 82   : 		__analysis_assume(this->_Ptr != 0);
; 83   : 
; 84   : 		return (*this->_Ptr);

  00000	8b 01		 mov	 eax, DWORD PTR [ecx]

; 85   : 		}

  00002	c3		 ret	 0
??D?$_Vector_const_iterator@V?$_Vector_val@HV?$allocator@H@std@@@std@@@std@@QBEABHXZ ENDP ; std::_Vector_const_iterator<std::_Vector_val<int,std::allocator<int> > >::operator*
_TEXT	ENDS
PUBLIC	??E?$_Vector_const_iterator@V?$_Vector_val@HV?$allocator@H@std@@@std@@@std@@QAEAAV01@XZ ; std::_Vector_const_iterator<std::_Vector_val<int,std::allocator<int> > >::operator++
; Function compile flags: /Ogsp
;	COMDAT ??E?$_Vector_const_iterator@V?$_Vector_val@HV?$allocator@H@std@@@std@@@std@@QAEAAV01@XZ
_TEXT	SEGMENT
??E?$_Vector_const_iterator@V?$_Vector_val@HV?$allocator@H@std@@@std@@@std@@QAEAAV01@XZ PROC ; std::_Vector_const_iterator<std::_Vector_val<int,std::allocator<int> > >::operator++, COMDAT
; _this$ = ecx

; 93   : 		{	// preincrement

  00000	8b c1		 mov	 eax, ecx

; 94   :  #if _ITERATOR_DEBUG_LEVEL == 2
; 95   : 		if (this->_Getcont() == 0
; 96   : 			|| this->_Ptr == 0
; 97   : 			|| ((_Myvec *)this->_Getcont())->_Mylast <= this->_Ptr)
; 98   : 			{	// report error
; 99   : 			_DEBUG_ERROR("vector iterator not incrementable");
; 100  : 			_SCL_SECURE_OUT_OF_RANGE;
; 101  : 			}
; 102  : 
; 103  :  #elif _ITERATOR_DEBUG_LEVEL == 1
; 104  : 		_SCL_SECURE_VALIDATE(this->_Getcont() != 0);
; 105  : 		_SCL_SECURE_VALIDATE_RANGE(
; 106  : 			this->_Ptr != 0
; 107  : 			&& this->_Ptr < ((_Myvec *)this->_Getcont())->_Mylast);
; 108  :  #endif /* _ITERATOR_DEBUG_LEVEL */
; 109  : 
; 110  : 		++this->_Ptr;

  00002	83 00 04	 add	 DWORD PTR [eax], 4

; 111  : 		return (*this);
; 112  : 		}

  00005	c3		 ret	 0
??E?$_Vector_const_iterator@V?$_Vector_val@HV?$allocator@H@std@@@std@@@std@@QAEAAV01@XZ ENDP ; std::_Vector_const_iterator<std::_Vector_val<int,std::allocator<int> > >::operator++
_TEXT	ENDS
PUBLIC	??$_Destroy@H@std@@YAXPAH@Z			; std::_Destroy<int>
; Function compile flags: /Ogsp
; File c:\program files (x86)\microsoft visual studio 10.0\vc\include\xmemory
;	COMDAT ??$_Destroy@H@std@@YAXPAH@Z
_TEXT	SEGMENT
__Ptr$ = 8						; size = 4
??$_Destroy@H@std@@YAXPAH@Z PROC			; std::_Destroy<int>, COMDAT

; 63   : 	_Ptr->~_Ty();
; 64   : 	}

  00000	c3		 ret	 0
??$_Destroy@H@std@@YAXPAH@Z ENDP			; std::_Destroy<int>
_TEXT	ENDS
PUBLIC	?_DECSTR@@YAXPADH@Z				; _DECSTR
; Function compile flags: /Ogsp
; File d:\lost saga for developer\youtube\tutorial\source\src\lsclient\stringprotect.h
;	COMDAT ?_DECSTR@@YAXPADH@Z
_TEXT	SEGMENT
_s$ = 8							; size = 4
_l$ = 12						; size = 4
?_DECSTR@@YAXPADH@Z PROC				; _DECSTR, COMDAT

; 40   : __forceinline void _DECSTR(char* s, int l){int i=0,l4=(l-1)/4,*p=(int*)s;s[l-1]=0;for(;i<l4;++i)*(p++)^=0xEAEBECED;for(i=l4*4;i<l-1;++i)s[i]^=0xED-i%4;}

  00000	55		 push	 ebp
  00001	8b ec		 mov	 ebp, esp
  00003	8b 4d 0c	 mov	 ecx, DWORD PTR _l$[ebp]
  00006	56		 push	 esi
  00007	8b 75 08	 mov	 esi, DWORD PTR _s$[ebp]
  0000a	57		 push	 edi
  0000b	8d 79 ff	 lea	 edi, DWORD PTR [ecx-1]
  0000e	8b c7		 mov	 eax, edi
  00010	99		 cdq
  00011	83 e2 03	 and	 edx, 3
  00014	03 c2		 add	 eax, edx
  00016	c1 f8 02	 sar	 eax, 2
  00019	8b d6		 mov	 edx, esi
  0001b	c6 44 0e ff 00	 mov	 BYTE PTR [esi+ecx-1], 0
  00020	85 c0		 test	 eax, eax
  00022	7e 0e		 jle	 SHORT $LN4@DECSTR
  00024	8b c8		 mov	 ecx, eax
$LL6@DECSTR:
  00026	81 32 ed ec eb
	ea		 xor	 DWORD PTR [edx], -353637139 ; eaebecedH
  0002c	83 c2 04	 add	 edx, 4
  0002f	49		 dec	 ecx
  00030	75 f4		 jne	 SHORT $LL6@DECSTR
$LN4@DECSTR:
  00032	c1 e0 02	 shl	 eax, 2
  00035	eb 17		 jmp	 SHORT $LN14@DECSTR
$LL3@DECSTR:
  00037	8b c8		 mov	 ecx, eax
  00039	81 e1 03 00 00
	80		 and	 ecx, -2147483645	; 80000003H
  0003f	79 05		 jns	 SHORT $LN13@DECSTR
  00041	49		 dec	 ecx
  00042	83 c9 fc	 or	 ecx, -4			; fffffffcH
  00045	41		 inc	 ecx
$LN13@DECSTR:
  00046	b2 ed		 mov	 dl, -19			; ffffffedH
  00048	2a d1		 sub	 dl, cl
  0004a	30 14 30	 xor	 BYTE PTR [eax+esi], dl
  0004d	40		 inc	 eax
$LN14@DECSTR:
  0004e	3b c7		 cmp	 eax, edi
  00050	7c e5		 jl	 SHORT $LL3@DECSTR
  00052	5f		 pop	 edi
  00053	5e		 pop	 esi
  00054	5d		 pop	 ebp
  00055	c3		 ret	 0
?_DECSTR@@YAXPADH@Z ENDP				; _DECSTR
_TEXT	ENDS
PUBLIC	?GetName@ioItem@@QBEABVioHashString@@XZ		; ioItem::GetName
; Function compile flags: /Ogsp
; File d:\lost saga for developer\youtube\tutorial\source\src\lsclient\ioitem.h
;	COMDAT ?GetName@ioItem@@QBEABVioHashString@@XZ
_TEXT	SEGMENT
?GetName@ioItem@@QBEABVioHashString@@XZ PROC		; ioItem::GetName, COMDAT
; _this$ = ecx

; 269  : 	inline const ioHashString& GetName() const { return m_Name; }

  00000	8d 81 34 01 00
	00		 lea	 eax, DWORD PTR [ecx+308]
  00006	c3		 ret	 0
?GetName@ioItem@@QBEABVioHashString@@XZ ENDP		; ioItem::GetName
_TEXT	ENDS
PUBLIC	?GetFixedFailReinforce@ioItemCompoundMaterialManager@@QBEHXZ ; ioItemCompoundMaterialManager::GetFixedFailReinforce
; Function compile flags: /Ogsp
; File d:\lost saga for developer\youtube\tutorial\source\src\lsclient\ioitemcompoundmaterialmanager.h
;	COMDAT ?GetFixedFailReinforce@ioItemCompoundMaterialManager@@QBEHXZ
_TEXT	SEGMENT
?GetFixedFailReinforce@ioItemCompoundMaterialManager@@QBEHXZ PROC ; ioItemCompoundMaterialManager::GetFixedFailReinforce, COMDAT
; _this$ = ecx

; 125  : 	inline int GetFixedFailReinforce() const { return m_nFixedFailReinforce; }

  00000	8b 41 4c	 mov	 eax, DWORD PTR [ecx+76]
  00003	c3		 ret	 0
?GetFixedFailReinforce@ioItemCompoundMaterialManager@@QBEHXZ ENDP ; ioItemCompoundMaterialManager::GetFixedFailReinforce
_TEXT	ENDS
PUBLIC	?size@?$vector@HV?$allocator@H@std@@@std@@QBEIXZ ; std::vector<int,std::allocator<int> >::size
; Function compile flags: /Ogsp
; File c:\program files (x86)\microsoft visual studio 10.0\vc\include\vector
;	COMDAT ?size@?$vector@HV?$allocator@H@std@@@std@@QBEIXZ
_TEXT	SEGMENT
?size@?$vector@HV?$allocator@H@std@@@std@@QBEIXZ PROC	; std::vector<int,std::allocator<int> >::size, COMDAT
; _this$ = ecx

; 879  : 		return (this->_Mylast - this->_Myfirst);

  00000	8b 41 04	 mov	 eax, DWORD PTR [ecx+4]
  00003	2b 01		 sub	 eax, DWORD PTR [ecx]
  00005	c1 f8 02	 sar	 eax, 2

; 880  : 		}

  00008	c3		 ret	 0
?size@?$vector@HV?$allocator@H@std@@@std@@QBEIXZ ENDP	; std::vector<int,std::allocator<int> >::size
_TEXT	ENDS
PUBLIC	??A?$vector@HV?$allocator@H@std@@@std@@QAEAAHI@Z ; std::vector<int,std::allocator<int> >::operator[]
; Function compile flags: /Ogsp
;	COMDAT ??A?$vector@HV?$allocator@H@std@@@std@@QAEAAHI@Z
_TEXT	SEGMENT
__Pos$ = 8						; size = 4
??A?$vector@HV?$allocator@H@std@@@std@@QAEAAHI@Z PROC	; std::vector<int,std::allocator<int> >::operator[], COMDAT
; _this$ = ecx

; 928  : 		{	// subscript mutable sequence

  00000	55		 push	 ebp
  00001	8b ec		 mov	 ebp, esp

; 929  :  #if _ITERATOR_DEBUG_LEVEL == 2
; 930  : 		if (size() <= _Pos)
; 931  : 			{	// report error
; 932  : 			_DEBUG_ERROR("vector subscript out of range");
; 933  : 			_SCL_SECURE_OUT_OF_RANGE;
; 934  : 			}
; 935  : 
; 936  :  #elif _ITERATOR_DEBUG_LEVEL == 1
; 937  : 		_SCL_SECURE_VALIDATE_RANGE(_Pos < size());
; 938  :  #endif /* _ITERATOR_DEBUG_LEVEL */
; 939  : 
; 940  : 		return (*(this->_Myfirst + _Pos));

  00003	8b 01		 mov	 eax, DWORD PTR [ecx]
  00005	8b 4d 08	 mov	 ecx, DWORD PTR __Pos$[ebp]
  00008	8d 04 88	 lea	 eax, DWORD PTR [eax+ecx*4]

; 941  : 		}

  0000b	5d		 pop	 ebp
  0000c	c2 04 00	 ret	 4
??A?$vector@HV?$allocator@H@std@@@std@@QAEAAHI@Z ENDP	; std::vector<int,std::allocator<int> >::operator[]
_TEXT	ENDS
PUBLIC	??_7?$CEncrypt@M@@6B@				; CEncrypt<float>::`vftable'
PUBLIC	??1?$CEncrypt@M@@UAE@XZ				; CEncrypt<float>::~CEncrypt<float>
PUBLIC	??_R4?$CEncrypt@M@@6B@				; CEncrypt<float>::`RTTI Complete Object Locator'
PUBLIC	??_R0?AV?$CEncrypt@M@@@8			; CEncrypt<float> `RTTI Type Descriptor'
PUBLIC	??_R3?$CEncrypt@M@@8				; CEncrypt<float>::`RTTI Class Hierarchy Descriptor'
PUBLIC	??_R2?$CEncrypt@M@@8				; CEncrypt<float>::`RTTI Base Class Array'
PUBLIC	??_R1A@?0A@EA@?$CEncrypt@M@@8			; CEncrypt<float>::`RTTI Base Class Descriptor at (0,-1,0,64)'
EXTRN	??1ccddaabb@@UAE@XZ:PROC			; ccddaabb::~ccddaabb
EXTRN	??_E?$CEncrypt@M@@UAEPAXI@Z:PROC		; CEncrypt<float>::`vector deleting destructor'
;	COMDAT ??_R1A@?0A@EA@?$CEncrypt@M@@8
; File d:\lost saga for developer\youtube\tutorial\source\src\lsclient\encryptvalue.h
rdata$r	SEGMENT
??_R1A@?0A@EA@?$CEncrypt@M@@8 DD FLAT:??_R0?AV?$CEncrypt@M@@@8 ; CEncrypt<float>::`RTTI Base Class Descriptor at (0,-1,0,64)'
	DD	00H
	DD	00H
	DD	0ffffffffH
	DD	00H
	DD	040H
	DD	FLAT:??_R3?$CEncrypt@M@@8
rdata$r	ENDS
;	COMDAT ??_R2?$CEncrypt@M@@8
rdata$r	SEGMENT
??_R2?$CEncrypt@M@@8 DD FLAT:??_R1A@?0A@EA@?$CEncrypt@M@@8 ; CEncrypt<float>::`RTTI Base Class Array'
rdata$r	ENDS
;	COMDAT ??_R3?$CEncrypt@M@@8
rdata$r	SEGMENT
??_R3?$CEncrypt@M@@8 DD 00H				; CEncrypt<float>::`RTTI Class Hierarchy Descriptor'
	DD	00H
	DD	01H
	DD	FLAT:??_R2?$CEncrypt@M@@8
rdata$r	ENDS
;	COMDAT ??_R0?AV?$CEncrypt@M@@@8
_DATA	SEGMENT
??_R0?AV?$CEncrypt@M@@@8 DD FLAT:??_7type_info@@6B@	; CEncrypt<float> `RTTI Type Descriptor'
	DD	00H
	DB	'.?AV?$CEncrypt@M@@', 00H
_DATA	ENDS
;	COMDAT ??_R4?$CEncrypt@M@@6B@
rdata$r	SEGMENT
??_R4?$CEncrypt@M@@6B@ DD 00H				; CEncrypt<float>::`RTTI Complete Object Locator'
	DD	00H
	DD	00H
	DD	FLAT:??_R0?AV?$CEncrypt@M@@@8
	DD	FLAT:??_R3?$CEncrypt@M@@8
rdata$r	ENDS
;	COMDAT ??_7?$CEncrypt@M@@6B@
CONST	SEGMENT
??_7?$CEncrypt@M@@6B@ DD FLAT:??_R4?$CEncrypt@M@@6B@	; CEncrypt<float>::`vftable'
	DD	FLAT:??_E?$CEncrypt@M@@UAEPAXI@Z
; Function compile flags: /Ogsp
CONST	ENDS
;	COMDAT ??1?$CEncrypt@M@@UAE@XZ
_TEXT	SEGMENT
??1?$CEncrypt@M@@UAE@XZ PROC				; CEncrypt<float>::~CEncrypt<float>, COMDAT
; _this$ = ecx

; 127  : 	{

  00000	c7 01 00 00 00
	00		 mov	 DWORD PTR [ecx], OFFSET ??_7?$CEncrypt@M@@6B@

; 128  : 	}

  00006	83 c1 0c	 add	 ecx, 12			; 0000000cH
  00009	e9 00 00 00 00	 jmp	 ??1ccddaabb@@UAE@XZ	; ccddaabb::~ccddaabb
??1?$CEncrypt@M@@UAE@XZ ENDP				; CEncrypt<float>::~CEncrypt<float>
; Function compile flags: /Ogsp
_TEXT	ENDS
;	COMDAT ??_G?$CEncrypt@M@@UAEPAXI@Z
_TEXT	SEGMENT
___flags$ = 8						; size = 4
??_G?$CEncrypt@M@@UAEPAXI@Z PROC			; CEncrypt<float>::`scalar deleting destructor', COMDAT
; _this$ = ecx
  00000	55		 push	 ebp
  00001	8b ec		 mov	 ebp, esp
  00003	56		 push	 esi
  00004	8b f1		 mov	 esi, ecx
  00006	8d 4e 0c	 lea	 ecx, DWORD PTR [esi+12]
  00009	c7 06 00 00 00
	00		 mov	 DWORD PTR [esi], OFFSET ??_7?$CEncrypt@M@@6B@
  0000f	e8 00 00 00 00	 call	 ??1ccddaabb@@UAE@XZ	; ccddaabb::~ccddaabb
  00014	f6 45 08 01	 test	 BYTE PTR ___flags$[ebp], 1
  00018	74 07		 je	 SHORT $LN1@scalar@2
  0001a	56		 push	 esi
  0001b	e8 00 00 00 00	 call	 ??3@YAXPAX@Z		; operator delete
  00020	59		 pop	 ecx
$LN1@scalar@2:
  00021	8b c6		 mov	 eax, esi
  00023	5e		 pop	 esi
  00024	5d		 pop	 ebp
  00025	c2 04 00	 ret	 4
??_G?$CEncrypt@M@@UAEPAXI@Z ENDP			; CEncrypt<float>::`scalar deleting destructor'
_TEXT	ENDS
PUBLIC	??0?$allocator@H@std@@QAE@XZ			; std::allocator<int>::allocator<int>
; Function compile flags: /Ogsp
; File c:\program files (x86)\microsoft visual studio 10.0\vc\include\xmemory
;	COMDAT ??0?$allocator@H@std@@QAE@XZ
_TEXT	SEGMENT
??0?$allocator@H@std@@QAE@XZ PROC			; std::allocator<int>::allocator<int>, COMDAT
; _this$ = ecx

; 161  : 	_ALLOCATOR() _THROW0()

  00000	8b c1		 mov	 eax, ecx

; 162  : 		{	// construct default allocator (do nothing)
; 163  : 		}

  00002	c3		 ret	 0
??0?$allocator@H@std@@QAE@XZ ENDP			; std::allocator<int>::allocator<int>
_TEXT	ENDS
PUBLIC	??1?$_Vector_val@HV?$allocator@H@std@@@std@@QAE@XZ ; std::_Vector_val<int,std::allocator<int> >::~_Vector_val<int,std::allocator<int> >
; Function compile flags: /Ogsp
; File c:\program files (x86)\microsoft visual studio 10.0\vc\include\vector
;	COMDAT ??1?$_Vector_val@HV?$allocator@H@std@@@std@@QAE@XZ
_TEXT	SEGMENT
??1?$_Vector_val@HV?$allocator@H@std@@@std@@QAE@XZ PROC	; std::_Vector_val<int,std::allocator<int> >::~_Vector_val<int,std::allocator<int> >, COMDAT
; _this$ = ecx

; 434  : 		}

  00000	c3		 ret	 0
??1?$_Vector_val@HV?$allocator@H@std@@@std@@QAE@XZ ENDP	; std::_Vector_val<int,std::allocator<int> >::~_Vector_val<int,std::allocator<int> >
_TEXT	ENDS
PUBLIC	?EncryptValueToPool@?$CEncrypt@M@@AAEXPBD@Z	; CEncrypt<float>::EncryptValueToPool
EXTRN	?EncryptByte@ccddaabb@@QAEXPBDPADH@Z:PROC	; ccddaabb::EncryptByte
; Function compile flags: /Ogsp
; File d:\lost saga for developer\youtube\tutorial\source\src\lsclient\encryptvalue.h
;	COMDAT ?EncryptValueToPool@?$CEncrypt@M@@AAEXPBD@Z
_TEXT	SEGMENT
_value$ = 8						; size = 4
?EncryptValueToPool@?$CEncrypt@M@@AAEXPBD@Z PROC	; CEncrypt<float>::EncryptValueToPool, COMDAT
; _this$ = ecx

; 67   : 	{

  00000	55		 push	 ebp
  00001	8b ec		 mov	 ebp, esp

; 68   : 		m_RC5.EncryptByte( value, m_MemPool, max(m_ValueSize, DEFAULT_ENCRYPT) );

  00003	0f b7 41 06	 movzx	 eax, WORD PTR [ecx+6]
  00007	83 f8 04	 cmp	 eax, 4
  0000a	77 03		 ja	 SHORT $LN4@EncryptVal
  0000c	6a 04		 push	 4
  0000e	58		 pop	 eax
$LN4@EncryptVal:
  0000f	50		 push	 eax
  00010	8d 41 1c	 lea	 eax, DWORD PTR [ecx+28]
  00013	50		 push	 eax
  00014	ff 75 08	 push	 DWORD PTR _value$[ebp]
  00017	83 c1 0c	 add	 ecx, 12			; 0000000cH
  0001a	e8 00 00 00 00	 call	 ?EncryptByte@ccddaabb@@QAEXPBDPADH@Z ; ccddaabb::EncryptByte

; 69   : 		
; 70   : 	}

  0001f	5d		 pop	 ebp
  00020	c2 04 00	 ret	 4
?EncryptValueToPool@?$CEncrypt@M@@AAEXPBD@Z ENDP	; CEncrypt<float>::EncryptValueToPool
_TEXT	ENDS
PUBLIC	?Init@?$CEncrypt@M@@AAEXXZ			; CEncrypt<float>::Init
EXTRN	?Setup@ccddaabb@@QAEXPBDHH@Z:PROC		; ccddaabb::Setup
EXTRN	__imp__rand:PROC
EXTRN	__imp__timeGetTime@0:PROC
EXTRN	__imp__GetCurrentProcessId@0:PROC
; Function compile flags: /Ogsp
;	COMDAT ?Init@?$CEncrypt@M@@AAEXXZ
_TEXT	SEGMENT
_pid$ = -8						; size = 4
_tick$ = -4						; size = 4
?Init@?$CEncrypt@M@@AAEXXZ PROC				; CEncrypt<float>::Init, COMDAT
; _this$ = ecx

; 73   : 	{

  00000	55		 push	 ebp
  00001	8b ec		 mov	 ebp, esp
  00003	51		 push	 ecx
  00004	51		 push	 ecx
  00005	53		 push	 ebx
  00006	56		 push	 esi
  00007	57		 push	 edi
  00008	8b f1		 mov	 esi, ecx

; 74   : 		DWORD pid = GetCurrentProcessId();

  0000a	ff 15 00 00 00
	00		 call	 DWORD PTR __imp__GetCurrentProcessId@0
  00010	89 45 f8	 mov	 DWORD PTR _pid$[ebp], eax

; 75   : 		DWORD tick = timeGetTime();

  00013	ff 15 00 00 00
	00		 call	 DWORD PTR __imp__timeGetTime@0

; 76   : 		m_ValueSize    = sizeof(type);
; 77   : 		m_MemPoolPos   = (unsigned short)( rand()+pid+tick )%(MAX_MEM_POOL-m_ValueSize);

  00019	8b 3d 00 00 00
	00		 mov	 edi, DWORD PTR __imp__rand
  0001f	89 45 fc	 mov	 DWORD PTR _tick$[ebp], eax
  00022	6a 04		 push	 4
  00024	58		 pop	 eax
  00025	66 89 46 06	 mov	 WORD PTR [esi+6], ax
  00029	ff d7		 call	 edi
  0002b	03 45 f8	 add	 eax, DWORD PTR _pid$[ebp]
  0002e	0f b7 4e 06	 movzx	 ecx, WORD PTR [esi+6]
  00032	03 45 fc	 add	 eax, DWORD PTR _tick$[ebp]
  00035	6a 0c		 push	 12			; 0000000cH
  00037	0f b7 c0	 movzx	 eax, ax
  0003a	5b		 pop	 ebx
  0003b	99		 cdq
  0003c	2b d9		 sub	 ebx, ecx
  0003e	f7 fb		 idiv	 ebx
  00040	66 89 56 04	 mov	 WORD PTR [esi+4], dx

; 78   : 		m_EncryptSeed  = (char)( rand()+pid+tick )%256;

  00044	ff d7		 call	 edi
  00046	02 45 f8	 add	 al, BYTE PTR _pid$[ebp]
  00049	02 45 fc	 add	 al, BYTE PTR _tick$[ebp]
  0004c	0f be c0	 movsx	 eax, al
  0004f	25 ff 00 00 80	 and	 eax, -2147483393	; 800000ffH
  00054	79 07		 jns	 SHORT $LN8@Init
  00056	48		 dec	 eax
  00057	0d 00 ff ff ff	 or	 eax, -256		; ffffff00H
  0005c	40		 inc	 eax
$LN8@Init:
  0005d	88 46 08	 mov	 BYTE PTR [esi+8], al

; 79   : 
; 80   : 		for (int i = 0; i < MAX_MEM_POOL ; i++)

  00060	33 db		 xor	 ebx, ebx
$LL3@Init:

; 81   : 			m_MemPool[i] = (char)( rand()+pid+tick )%256; // 더미

  00062	ff d7		 call	 edi
  00064	02 45 f8	 add	 al, BYTE PTR _pid$[ebp]
  00067	02 45 fc	 add	 al, BYTE PTR _tick$[ebp]
  0006a	0f be c0	 movsx	 eax, al
  0006d	25 ff 00 00 80	 and	 eax, -2147483393	; 800000ffH
  00072	79 07		 jns	 SHORT $LN9@Init
  00074	48		 dec	 eax
  00075	0d 00 ff ff ff	 or	 eax, -256		; ffffff00H
  0007a	40		 inc	 eax
$LN9@Init:
  0007b	88 44 1e 1c	 mov	 BYTE PTR [esi+ebx+28], al
  0007f	43		 inc	 ebx
  00080	83 fb 0c	 cmp	 ebx, 12			; 0000000cH
  00083	7c dd		 jl	 SHORT $LL3@Init

; 82   : 
; 83   : 		//UJ 130913, 최적화: szKey 사용안하도록 간략화
; 84   : 		//char szKey[ccddaabb::KEY_SIZE];//="";
; 85   : 		//for (int i = 0; i < ccddaabb::KEY_SIZE  ; i++)
; 86   : 		//	szKey[i] = (char)( rand()+pid+tick )%256; // 더미
; 87   : 		m_RC5.Setup( NULL, pid, tick );

  00085	ff 75 fc	 push	 DWORD PTR _tick$[ebp]
  00088	8d 4e 0c	 lea	 ecx, DWORD PTR [esi+12]
  0008b	ff 75 f8	 push	 DWORD PTR _pid$[ebp]
  0008e	6a 00		 push	 0
  00090	e8 00 00 00 00	 call	 ?Setup@ccddaabb@@QAEXPBDHH@Z ; ccddaabb::Setup
  00095	5f		 pop	 edi
  00096	5e		 pop	 esi
  00097	5b		 pop	 ebx

; 88   : 
; 89   : #ifdef _NOTUSE
; 90   : 		m_value        = 0;
; 91   : 		EncryptValueToPool((char*)&m_value);
; 92   : 		Debug();
; 93   : #endif
; 94   : 	}

  00098	c9		 leave
  00099	c3		 ret	 0
?Init@?$CEncrypt@M@@AAEXXZ ENDP				; CEncrypt<float>::Init
_TEXT	ENDS
PUBLIC	?DecryptValueToPool@?$CEncrypt@M@@QAEXPAM@Z	; CEncrypt<float>::DecryptValueToPool
EXTRN	?DecryptByte@ccddaabb@@QBEXPBDPADH@Z:PROC	; ccddaabb::DecryptByte
EXTRN	__fltused:DWORD
; Function compile flags: /Ogsp
;	COMDAT ?DecryptValueToPool@?$CEncrypt@M@@QAEXPAM@Z
_TEXT	SEGMENT
_value$ = 8						; size = 4
?DecryptValueToPool@?$CEncrypt@M@@QAEXPAM@Z PROC	; CEncrypt<float>::DecryptValueToPool, COMDAT
; _this$ = ecx

; 1648 : 	{

  00000	55		 push	 ebp
  00001	8b ec		 mov	 ebp, esp
  00003	56		 push	 esi

; 1649 : 		m_RC5.DecryptByte( m_MemPool, m_TempMem, 4 );

  00004	8d 71 28	 lea	 esi, DWORD PTR [ecx+40]
  00007	6a 04		 push	 4
  00009	8d 41 1c	 lea	 eax, DWORD PTR [ecx+28]
  0000c	56		 push	 esi
  0000d	50		 push	 eax
  0000e	83 c1 0c	 add	 ecx, 12			; 0000000cH
  00011	e8 00 00 00 00	 call	 ?DecryptByte@ccddaabb@@QBEXPBDPADH@Z ; ccddaabb::DecryptByte

; 1650 : 		*value = *((float*)m_TempMem);

  00016	d9 06		 fld	 DWORD PTR [esi]
  00018	8b 45 08	 mov	 eax, DWORD PTR _value$[ebp]
  0001b	d9 18		 fstp	 DWORD PTR [eax]
  0001d	5e		 pop	 esi

; 1651 : 	}

  0001e	5d		 pop	 ebp
  0001f	c2 04 00	 ret	 4
?DecryptValueToPool@?$CEncrypt@M@@QAEXPAM@Z ENDP	; CEncrypt<float>::DecryptValueToPool
_TEXT	ENDS
PUBLIC	?EncryptValueToPool@?$CEncrypt@K@@AAEXPBD@Z	; CEncrypt<unsigned long>::EncryptValueToPool
; Function compile flags: /Ogsp
;	COMDAT ?EncryptValueToPool@?$CEncrypt@K@@AAEXPBD@Z
_TEXT	SEGMENT
_value$ = 8						; size = 4
?EncryptValueToPool@?$CEncrypt@K@@AAEXPBD@Z PROC	; CEncrypt<unsigned long>::EncryptValueToPool, COMDAT
; _this$ = ecx

; 67   : 	{

  00000	55		 push	 ebp
  00001	8b ec		 mov	 ebp, esp

; 68   : 		m_RC5.EncryptByte( value, m_MemPool, max(m_ValueSize, DEFAULT_ENCRYPT) );

  00003	0f b7 41 06	 movzx	 eax, WORD PTR [ecx+6]
  00007	83 f8 04	 cmp	 eax, 4
  0000a	77 03		 ja	 SHORT $LN4@EncryptVal@2
  0000c	6a 04		 push	 4
  0000e	58		 pop	 eax
$LN4@EncryptVal@2:
  0000f	50		 push	 eax
  00010	8d 41 1c	 lea	 eax, DWORD PTR [ecx+28]
  00013	50		 push	 eax
  00014	ff 75 08	 push	 DWORD PTR _value$[ebp]
  00017	83 c1 0c	 add	 ecx, 12			; 0000000cH
  0001a	e8 00 00 00 00	 call	 ?EncryptByte@ccddaabb@@QAEXPBDPADH@Z ; ccddaabb::EncryptByte

; 69   : 		
; 70   : 	}

  0001f	5d		 pop	 ebp
  00020	c2 04 00	 ret	 4
?EncryptValueToPool@?$CEncrypt@K@@AAEXPBD@Z ENDP	; CEncrypt<unsigned long>::EncryptValueToPool
_TEXT	ENDS
PUBLIC	?DecryptValueToPool@?$CEncrypt@_N@@QAEXPA_N@Z	; CEncrypt<bool>::DecryptValueToPool
; Function compile flags: /Ogsp
;	COMDAT ?DecryptValueToPool@?$CEncrypt@_N@@QAEXPA_N@Z
_TEXT	SEGMENT
_value$ = 8						; size = 4
?DecryptValueToPool@?$CEncrypt@_N@@QAEXPA_N@Z PROC	; CEncrypt<bool>::DecryptValueToPool, COMDAT
; _this$ = ecx

; 219  : 	{

  00000	55		 push	 ebp
  00001	8b ec		 mov	 ebp, esp
  00003	56		 push	 esi

; 220  : 		m_RC5.DecryptByte( m_MemPool, m_TempMem, 4 );

  00004	8d 71 28	 lea	 esi, DWORD PTR [ecx+40]
  00007	6a 04		 push	 4
  00009	8d 41 1c	 lea	 eax, DWORD PTR [ecx+28]
  0000c	56		 push	 esi
  0000d	50		 push	 eax
  0000e	83 c1 0c	 add	 ecx, 12			; 0000000cH
  00011	e8 00 00 00 00	 call	 ?DecryptByte@ccddaabb@@QBEXPBDPADH@Z ; ccddaabb::DecryptByte

; 221  : 		*value = *((bool*)m_TempMem);

  00016	8a 06		 mov	 al, BYTE PTR [esi]
  00018	8b 4d 08	 mov	 ecx, DWORD PTR _value$[ebp]
  0001b	88 01		 mov	 BYTE PTR [ecx], al
  0001d	5e		 pop	 esi

; 222  : 	}

  0001e	5d		 pop	 ebp
  0001f	c2 04 00	 ret	 4
?DecryptValueToPool@?$CEncrypt@_N@@QAEXPA_N@Z ENDP	; CEncrypt<bool>::DecryptValueToPool
_TEXT	ENDS
PUBLIC	?DecryptValueToPool@?$CEncrypt@H@@QAEXPAH@Z	; CEncrypt<int>::DecryptValueToPool
; Function compile flags: /Ogsp
;	COMDAT ?DecryptValueToPool@?$CEncrypt@H@@QAEXPAH@Z
_TEXT	SEGMENT
_value$ = 8						; size = 4
?DecryptValueToPool@?$CEncrypt@H@@QAEXPAH@Z PROC	; CEncrypt<int>::DecryptValueToPool, COMDAT
; _this$ = ecx

; 837  : 	{

  00000	55		 push	 ebp
  00001	8b ec		 mov	 ebp, esp
  00003	56		 push	 esi

; 838  : 		m_RC5.DecryptByte( m_MemPool, m_TempMem, 4 );

  00004	8d 71 28	 lea	 esi, DWORD PTR [ecx+40]
  00007	6a 04		 push	 4
  00009	8d 41 1c	 lea	 eax, DWORD PTR [ecx+28]
  0000c	56		 push	 esi
  0000d	50		 push	 eax
  0000e	83 c1 0c	 add	 ecx, 12			; 0000000cH
  00011	e8 00 00 00 00	 call	 ?DecryptByte@ccddaabb@@QBEXPBDPADH@Z ; ccddaabb::DecryptByte

; 839  : 		*value = *((int*)m_TempMem);

  00016	8b 06		 mov	 eax, DWORD PTR [esi]
  00018	8b 4d 08	 mov	 ecx, DWORD PTR _value$[ebp]
  0001b	89 01		 mov	 DWORD PTR [ecx], eax
  0001d	5e		 pop	 esi

; 840  : 	}

  0001e	5d		 pop	 ebp
  0001f	c2 04 00	 ret	 4
?DecryptValueToPool@?$CEncrypt@H@@QAEXPAH@Z ENDP	; CEncrypt<int>::DecryptValueToPool
_TEXT	ENDS
PUBLIC	??0?$_Vector_const_iterator@V?$_Vector_val@HV?$allocator@H@std@@@std@@@std@@QAE@PAHPBU_Container_base0@1@@Z ; std::_Vector_const_iterator<std::_Vector_val<int,std::allocator<int> > >::_Vector_const_iterator<std::_Vector_val<int,std::allocator<int> > >
; Function compile flags: /Ogsp
; File c:\program files (x86)\microsoft visual studio 10.0\vc\include\vector
;	COMDAT ??0?$_Vector_const_iterator@V?$_Vector_val@HV?$allocator@H@std@@@std@@@std@@QAE@PAHPBU_Container_base0@1@@Z
_TEXT	SEGMENT
__Parg$ = 8						; size = 4
__Pvector$ = 12						; size = 4
??0?$_Vector_const_iterator@V?$_Vector_val@HV?$allocator@H@std@@@std@@@std@@QAE@PAHPBU_Container_base0@1@@Z PROC ; std::_Vector_const_iterator<std::_Vector_val<int,std::allocator<int> > >::_Vector_const_iterator<std::_Vector_val<int,std::allocator<int> > >, COMDAT
; _this$ = ecx

; 45   : 		{	// construct with pointer _Parg

  00000	55		 push	 ebp
  00001	8b ec		 mov	 ebp, esp
  00003	8b c1		 mov	 eax, ecx
  00005	8b 4d 08	 mov	 ecx, DWORD PTR __Parg$[ebp]
  00008	89 08		 mov	 DWORD PTR [eax], ecx

; 46   : 		this->_Adopt(_Pvector);
; 47   : 		}

  0000a	5d		 pop	 ebp
  0000b	c2 08 00	 ret	 8
??0?$_Vector_const_iterator@V?$_Vector_val@HV?$allocator@H@std@@@std@@@std@@QAE@PAHPBU_Container_base0@1@@Z ENDP ; std::_Vector_const_iterator<std::_Vector_val<int,std::allocator<int> > >::_Vector_const_iterator<std::_Vector_val<int,std::allocator<int> > >
_TEXT	ENDS
PUBLIC	??0?$_Vector_iterator@V?$_Vector_val@HV?$allocator@H@std@@@std@@@std@@QAE@PAHPBU_Container_base0@1@@Z ; std::_Vector_iterator<std::_Vector_val<int,std::allocator<int> > >::_Vector_iterator<std::_Vector_val<int,std::allocator<int> > >
; Function compile flags: /Ogsp
;	COMDAT ??0?$_Vector_iterator@V?$_Vector_val@HV?$allocator@H@std@@@std@@@std@@QAE@PAHPBU_Container_base0@1@@Z
_TEXT	SEGMENT
__Parg$ = 8						; size = 4
__Pvector$ = 12						; size = 4
??0?$_Vector_iterator@V?$_Vector_val@HV?$allocator@H@std@@@std@@@std@@QAE@PAHPBU_Container_base0@1@@Z PROC ; std::_Vector_iterator<std::_Vector_val<int,std::allocator<int> > >::_Vector_iterator<std::_Vector_val<int,std::allocator<int> > >, COMDAT
; _this$ = ecx

; 304  : 		{	// construct with pointer _Parg

  00000	55		 push	 ebp
  00001	8b ec		 mov	 ebp, esp
  00003	8b c1		 mov	 eax, ecx
  00005	8b 4d 08	 mov	 ecx, DWORD PTR __Parg$[ebp]
  00008	89 08		 mov	 DWORD PTR [eax], ecx

; 305  : 		}

  0000a	5d		 pop	 ebp
  0000b	c2 08 00	 ret	 8
??0?$_Vector_iterator@V?$_Vector_val@HV?$allocator@H@std@@@std@@@std@@QAE@PAHPBU_Container_base0@1@@Z ENDP ; std::_Vector_iterator<std::_Vector_val<int,std::allocator<int> > >::_Vector_iterator<std::_Vector_val<int,std::allocator<int> > >
_TEXT	ENDS
PUBLIC	??0?$allocator@H@std@@QAE@ABV01@@Z		; std::allocator<int>::allocator<int>
; Function compile flags: /Ogsp
; File c:\program files (x86)\microsoft visual studio 10.0\vc\include\xmemory
;	COMDAT ??0?$allocator@H@std@@QAE@ABV01@@Z
_TEXT	SEGMENT
___formal$ = 8						; size = 4
??0?$allocator@H@std@@QAE@ABV01@@Z PROC			; std::allocator<int>::allocator<int>, COMDAT
; _this$ = ecx

; 165  : 	_ALLOCATOR(const _ALLOCATOR<_Ty>&) _THROW0()

  00000	8b c1		 mov	 eax, ecx

; 166  : 		{	// construct by copying (do nothing)
; 167  : 		}

  00002	c2 04 00	 ret	 4
??0?$allocator@H@std@@QAE@ABV01@@Z ENDP			; std::allocator<int>::allocator<int>
_TEXT	ENDS
PUBLIC	?deallocate@?$allocator@H@std@@QAEXPAHI@Z	; std::allocator<int>::deallocate
; Function compile flags: /Ogsp
;	COMDAT ?deallocate@?$allocator@H@std@@QAEXPAHI@Z
_TEXT	SEGMENT
__Ptr$ = 8						; size = 4
___formal$ = 12						; size = 4
?deallocate@?$allocator@H@std@@QAEXPAHI@Z PROC		; std::allocator<int>::deallocate, COMDAT
; _this$ = ecx

; 181  : 		{	// deallocate object at _Ptr, ignore size

  00000	55		 push	 ebp
  00001	8b ec		 mov	 ebp, esp

; 182  : 		::operator delete(_Ptr);

  00003	ff 75 08	 push	 DWORD PTR __Ptr$[ebp]
  00006	e8 00 00 00 00	 call	 ??3@YAXPAX@Z		; operator delete
  0000b	59		 pop	 ecx

; 183  : 		}

  0000c	5d		 pop	 ebp
  0000d	c2 08 00	 ret	 8
?deallocate@?$allocator@H@std@@QAEXPAHI@Z ENDP		; std::allocator<int>::deallocate
_TEXT	ENDS
PUBLIC	?capacity@?$vector@HV?$allocator@H@std@@@std@@QBEIXZ ; std::vector<int,std::allocator<int> >::capacity
; Function compile flags: /Ogsp
; File c:\program files (x86)\microsoft visual studio 10.0\vc\include\vector
;	COMDAT ?capacity@?$vector@HV?$allocator@H@std@@@std@@QBEIXZ
_TEXT	SEGMENT
?capacity@?$vector@HV?$allocator@H@std@@@std@@QBEIXZ PROC ; std::vector<int,std::allocator<int> >::capacity, COMDAT
; _this$ = ecx

; 777  : 		return (this->_Myend - this->_Myfirst);

  00000	8b 41 08	 mov	 eax, DWORD PTR [ecx+8]
  00003	2b 01		 sub	 eax, DWORD PTR [ecx]
  00005	c1 f8 02	 sar	 eax, 2

; 778  : 		}

  00008	c3		 ret	 0
?capacity@?$vector@HV?$allocator@H@std@@@std@@QBEIXZ ENDP ; std::vector<int,std::allocator<int> >::capacity
_TEXT	ENDS
PUBLIC	?_Make_iter@?$vector@HV?$allocator@H@std@@@std@@QBE?AV?$_Vector_iterator@V?$_Vector_val@HV?$allocator@H@std@@@std@@@2@V?$_Vector_const_iterator@V?$_Vector_val@HV?$allocator@H@std@@@std@@@2@@Z ; std::vector<int,std::allocator<int> >::_Make_iter
; Function compile flags: /Ogsp
;	COMDAT ?_Make_iter@?$vector@HV?$allocator@H@std@@@std@@QBE?AV?$_Vector_iterator@V?$_Vector_val@HV?$allocator@H@std@@@std@@@2@V?$_Vector_const_iterator@V?$_Vector_val@HV?$allocator@H@std@@@std@@@2@@Z
_TEXT	SEGMENT
___$ReturnUdt$ = 8					; size = 4
__Where$ = 12						; size = 4
?_Make_iter@?$vector@HV?$allocator@H@std@@@std@@QBE?AV?$_Vector_iterator@V?$_Vector_val@HV?$allocator@H@std@@@std@@@2@V?$_Vector_const_iterator@V?$_Vector_val@HV?$allocator@H@std@@@std@@@2@@Z PROC ; std::vector<int,std::allocator<int> >::_Make_iter, COMDAT
; _this$ = ecx

; 801  : 		{	// make iterator from const_iterator

  00000	55		 push	 ebp
  00001	8b ec		 mov	 ebp, esp

; 802  : 		return (iterator(_Where._Ptr, this));

  00003	8b 45 08	 mov	 eax, DWORD PTR ___$ReturnUdt$[ebp]
  00006	8b 4d 0c	 mov	 ecx, DWORD PTR __Where$[ebp]
  00009	89 08		 mov	 DWORD PTR [eax], ecx

; 803  : 		}

  0000b	5d		 pop	 ebp
  0000c	c2 08 00	 ret	 8
?_Make_iter@?$vector@HV?$allocator@H@std@@@std@@QBE?AV?$_Vector_iterator@V?$_Vector_val@HV?$allocator@H@std@@@std@@@2@V?$_Vector_const_iterator@V?$_Vector_val@HV?$allocator@H@std@@@std@@@2@@Z ENDP ; std::vector<int,std::allocator<int> >::_Make_iter
_TEXT	ENDS
PUBLIC	??_C@_0BD@OLBABOEK@vector?$DMT?$DO?5too?5long?$AA@ ; `string'
PUBLIC	?_Xlen@?$vector@HV?$allocator@H@std@@@std@@IBEXXZ ; std::vector<int,std::allocator<int> >::_Xlen
EXTRN	__imp_?_Xlength_error@std@@YAXPBD@Z:PROC
;	COMDAT ??_C@_0BD@OLBABOEK@vector?$DMT?$DO?5too?5long?$AA@
CONST	SEGMENT
??_C@_0BD@OLBABOEK@vector?$DMT?$DO?5too?5long?$AA@ DB 'vector<T> too long'
	DB	00H						; `string'
; Function compile flags: /Ogsp
CONST	ENDS
;	COMDAT ?_Xlen@?$vector@HV?$allocator@H@std@@@std@@IBEXXZ
_TEXT	SEGMENT
?_Xlen@?$vector@HV?$allocator@H@std@@@std@@IBEXXZ PROC	; std::vector<int,std::allocator<int> >::_Xlen, COMDAT
; _this$ = ecx

; 1427 : 		_Xlength_error("vector<T> too long");

  00000	68 00 00 00 00	 push	 OFFSET ??_C@_0BD@OLBABOEK@vector?$DMT?$DO?5too?5long?$AA@
  00005	ff 15 00 00 00
	00		 call	 DWORD PTR __imp_?_Xlength_error@std@@YAXPBD@Z
$LN4@Xlen:
$LN3@Xlen:
  0000b	cc		 int	 3
?_Xlen@?$vector@HV?$allocator@H@std@@@std@@IBEXXZ ENDP	; std::vector<int,std::allocator<int> >::_Xlen
_TEXT	ENDS
PUBLIC	?max_size@?$allocator@H@std@@QBEIXZ		; std::allocator<int>::max_size
; Function compile flags: /Ogsp
; File c:\program files (x86)\microsoft visual studio 10.0\vc\include\xmemory
;	COMDAT ?max_size@?$allocator@H@std@@QBEIXZ
_TEXT	SEGMENT
?max_size@?$allocator@H@std@@QBEIXZ PROC		; std::allocator<int>::max_size, COMDAT
; _this$ = ecx

; 218  : 		_SIZT _Count = (_SIZT)(-1) / sizeof (_Ty);
; 219  : 		return (0 < _Count ? _Count : 1);

  00000	b8 ff ff ff 3f	 mov	 eax, 1073741823		; 3fffffffH

; 220  : 		}

  00005	c3		 ret	 0
?max_size@?$allocator@H@std@@QBEIXZ ENDP		; std::allocator<int>::max_size
_TEXT	ENDS
PUBLIC	?_Compat@?$_Vector_const_iterator@V?$_Vector_val@HV?$allocator@H@std@@@std@@@std@@QBEXABV12@@Z ; std::_Vector_const_iterator<std::_Vector_val<int,std::allocator<int> > >::_Compat
; Function compile flags: /Ogsp
; File c:\program files (x86)\microsoft visual studio 10.0\vc\include\vector
;	COMDAT ?_Compat@?$_Vector_const_iterator@V?$_Vector_val@HV?$allocator@H@std@@@std@@@std@@QBEXABV12@@Z
_TEXT	SEGMENT
___formal$ = 8						; size = 4
?_Compat@?$_Vector_const_iterator@V?$_Vector_val@HV?$allocator@H@std@@@std@@@std@@QBEXABV12@@Z PROC ; std::_Vector_const_iterator<std::_Vector_val<int,std::allocator<int> > >::_Compat, COMDAT
; _this$ = ecx

; 253  : 		}

  00000	c2 04 00	 ret	 4
?_Compat@?$_Vector_const_iterator@V?$_Vector_val@HV?$allocator@H@std@@@std@@@std@@QBEXABV12@@Z ENDP ; std::_Vector_const_iterator<std::_Vector_val<int,std::allocator<int> > >::_Compat
_TEXT	ENDS
PUBLIC	__TI2?AVbad_alloc@std@@
PUBLIC	??$_Allocate@H@std@@YAPAHIPAH@Z			; std::_Allocate<int>
PUBLIC	__CTA2?AVbad_alloc@std@@
PUBLIC	__CT??_R0?AVbad_alloc@std@@@8??0bad_alloc@std@@QAE@ABV01@@Z12
PUBLIC	??0bad_alloc@std@@QAE@ABV01@@Z			; std::bad_alloc::bad_alloc
PUBLIC	__CT??_R0?AVexception@std@@@8??0exception@std@@QAE@ABV01@@Z12
EXTRN	??2@YAPAXI@Z:PROC				; operator new
EXTRN	__CxxThrowException@8:PROC
EXTRN	??0exception@std@@QAE@ABV01@@Z:PROC		; std::exception::exception
;	COMDAT __CT??_R0?AVexception@std@@@8??0exception@std@@QAE@ABV01@@Z12
; File c:\program files (x86)\microsoft visual studio 10.0\vc\include\exception
xdata$x	SEGMENT
__CT??_R0?AVexception@std@@@8??0exception@std@@QAE@ABV01@@Z12 DD 00H
	DD	FLAT:??_R0?AVexception@std@@@8
	DD	00H
	DD	0ffffffffH
	ORG $+4
	DD	0cH
	DD	FLAT:??0exception@std@@QAE@ABV01@@Z
xdata$x	ENDS
;	COMDAT __CT??_R0?AVbad_alloc@std@@@8??0bad_alloc@std@@QAE@ABV01@@Z12
xdata$x	SEGMENT
__CT??_R0?AVbad_alloc@std@@@8??0bad_alloc@std@@QAE@ABV01@@Z12 DD 00H
	DD	FLAT:??_R0?AVbad_alloc@std@@@8
	DD	00H
	DD	0ffffffffH
	ORG $+4
	DD	0cH
	DD	FLAT:??0bad_alloc@std@@QAE@ABV01@@Z
xdata$x	ENDS
;	COMDAT __CTA2?AVbad_alloc@std@@
xdata$x	SEGMENT
__CTA2?AVbad_alloc@std@@ DD 02H
	DD	FLAT:__CT??_R0?AVbad_alloc@std@@@8??0bad_alloc@std@@QAE@ABV01@@Z12
	DD	FLAT:__CT??_R0?AVexception@std@@@8??0exception@std@@QAE@ABV01@@Z12
xdata$x	ENDS
;	COMDAT __TI2?AVbad_alloc@std@@
xdata$x	SEGMENT
__TI2?AVbad_alloc@std@@ DD 00H
	DD	FLAT:??1bad_alloc@std@@UAE@XZ
	DD	00H
	DD	FLAT:__CTA2?AVbad_alloc@std@@
; Function compile flags: /Ogsp
; File c:\program files (x86)\microsoft visual studio 10.0\vc\include\xmemory
xdata$x	ENDS
;	COMDAT ??$_Allocate@H@std@@YAPAHIPAH@Z
_TEXT	SEGMENT
$T533562 = -12						; size = 12
$T533567 = 8						; size = 4
__Count$ = 8						; size = 4
___formal$ = 12						; size = 4
??$_Allocate@H@std@@YAPAHIPAH@Z PROC			; std::_Allocate<int>, COMDAT

; 30   : 	{	// allocate storage for _Count elements of type _Ty

  00000	55		 push	 ebp
  00001	8b ec		 mov	 ebp, esp

; 31   : 	void *_Ptr = 0;
; 32   : 
; 33   : 	if (_Count <= 0)

  00003	8b 4d 08	 mov	 ecx, DWORD PTR __Count$[ebp]
  00006	83 ec 0c	 sub	 esp, 12			; 0000000cH
  00009	33 c0		 xor	 eax, eax
  0000b	85 c9		 test	 ecx, ecx

; 34   : 		_Count = 0;
; 35   : 	else if (((_SIZT)(-1) / sizeof (_Ty) < _Count)

  0000d	74 3e		 je	 SHORT $LN5@Allocate

; 36   : 		|| (_Ptr = ::operator new(_Count * sizeof (_Ty))) == 0)

  0000f	81 f9 ff ff ff
	3f		 cmp	 ecx, 1073741823		; 3fffffffH
  00015	77 10		 ja	 SHORT $LN1@Allocate
  00017	8b c1		 mov	 eax, ecx
  00019	c1 e0 02	 shl	 eax, 2
  0001c	50		 push	 eax
  0001d	e8 00 00 00 00	 call	 ??2@YAPAXI@Z		; operator new
  00022	59		 pop	 ecx
  00023	85 c0		 test	 eax, eax

; 38   : 
; 39   : 	return ((_Ty _FARQ *)_Ptr);

  00025	75 26		 jne	 SHORT $LN5@Allocate
$LN1@Allocate:

; 37   : 		_THROW_NCEE(bad_alloc, 0);

  00027	83 65 08 00	 and	 DWORD PTR $T533567[ebp], 0
  0002b	8d 45 08	 lea	 eax, DWORD PTR $T533567[ebp]
  0002e	50		 push	 eax
  0002f	8d 4d f4	 lea	 ecx, DWORD PTR $T533562[ebp]
  00032	ff 15 00 00 00
	00		 call	 DWORD PTR __imp_??0exception@std@@QAE@ABQBD@Z
  00038	68 00 00 00 00	 push	 OFFSET __TI2?AVbad_alloc@std@@
  0003d	8d 45 f4	 lea	 eax, DWORD PTR $T533562[ebp]
  00040	50		 push	 eax
  00041	c7 45 f4 00 00
	00 00		 mov	 DWORD PTR $T533562[ebp], OFFSET ??_7bad_alloc@std@@6B@
  00048	e8 00 00 00 00	 call	 __CxxThrowException@8
$LN10@Allocate:
$LN5@Allocate:

; 40   : 	}

  0004d	c9		 leave
  0004e	c3		 ret	 0
$LN9@Allocate:
??$_Allocate@H@std@@YAPAHIPAH@Z ENDP			; std::_Allocate<int>
_TEXT	ENDS
EXTRN	__imp_??0exception@std@@QAE@ABV01@@Z:PROC
; Function compile flags: /Ogsp
;	COMDAT ??0bad_alloc@std@@QAE@ABV01@@Z
_TEXT	SEGMENT
___that$ = 8						; size = 4
??0bad_alloc@std@@QAE@ABV01@@Z PROC			; std::bad_alloc::bad_alloc, COMDAT
; _this$ = ecx
  00000	55		 push	 ebp
  00001	8b ec		 mov	 ebp, esp
  00003	56		 push	 esi
  00004	ff 75 08	 push	 DWORD PTR ___that$[ebp]
  00007	8b f1		 mov	 esi, ecx
  00009	ff 15 00 00 00
	00		 call	 DWORD PTR __imp_??0exception@std@@QAE@ABV01@@Z
  0000f	c7 06 00 00 00
	00		 mov	 DWORD PTR [esi], OFFSET ??_7bad_alloc@std@@6B@
  00015	8b c6		 mov	 eax, esi
  00017	5e		 pop	 esi
  00018	5d		 pop	 ebp
  00019	c2 04 00	 ret	 4
??0bad_alloc@std@@QAE@ABV01@@Z ENDP			; std::bad_alloc::bad_alloc
_TEXT	ENDS
PUBLIC	??$forward@AAH@std@@YAAAHAAH@Z			; std::forward<int &>
; Function compile flags: /Ogsp
; File c:\program files (x86)\microsoft visual studio 10.0\vc\include\utility
;	COMDAT ??$forward@AAH@std@@YAAAHAAH@Z
_TEXT	SEGMENT
__Arg$ = 8						; size = 4
??$forward@AAH@std@@YAAAHAAH@Z PROC			; std::forward<int &>, COMDAT

; 78   : 	{	// forward _Arg, given explicitly specified type parameter

  00000	55		 push	 ebp
  00001	8b ec		 mov	 ebp, esp

; 79   : 	return ((_Ty&&)_Arg);

  00003	8b 45 08	 mov	 eax, DWORD PTR __Arg$[ebp]

; 80   : 	}

  00006	5d		 pop	 ebp
  00007	c3		 ret	 0
??$forward@AAH@std@@YAAAHAAH@Z ENDP			; std::forward<int &>
_TEXT	ENDS
PUBLIC	??$_Val_type@PAH@std@@YAPAHPAH@Z		; std::_Val_type<int *>
; Function compile flags: /Ogsp
; File c:\program files (x86)\microsoft visual studio 10.0\vc\include\xutility
;	COMDAT ??$_Val_type@PAH@std@@YAPAHPAH@Z
_TEXT	SEGMENT
___formal$ = 8						; size = 4
??$_Val_type@PAH@std@@YAPAHPAH@Z PROC			; std::_Val_type<int *>, COMDAT

; 790  : 	return (0);

  00000	33 c0		 xor	 eax, eax

; 791  : 	}

  00002	c3		 ret	 0
??$_Val_type@PAH@std@@YAPAHPAH@Z ENDP			; std::_Val_type<int *>
_TEXT	ENDS
PUBLIC	??$_Ptr_cat@HH@std@@YA?AU_Scalar_ptr_iterator_tag@0@PAH0@Z ; std::_Ptr_cat<int,int>
; Function compile flags: /Ogsp
;	COMDAT ??$_Ptr_cat@HH@std@@YA?AU_Scalar_ptr_iterator_tag@0@PAH0@Z
_TEXT	SEGMENT
__Cat$ = -1						; size = 1
___formal$ = 8						; size = 4
___formal$ = 12						; size = 4
??$_Ptr_cat@HH@std@@YA?AU_Scalar_ptr_iterator_tag@0@PAH0@Z PROC ; std::_Ptr_cat<int,int>, COMDAT

; 516  : 	{	// return pointer category from pointers

  00000	55		 push	 ebp
  00001	8b ec		 mov	 ebp, esp
  00003	51		 push	 ecx

; 517  : 	typename _Ptr_cat_helper<_Elem1, _Elem2>::_Type _Cat;
; 518  : 	return (_Cat);

  00004	8a 45 ff	 mov	 al, BYTE PTR __Cat$[ebp]

; 519  : 	}

  00007	c9		 leave
  00008	c3		 ret	 0
??$_Ptr_cat@HH@std@@YA?AU_Scalar_ptr_iterator_tag@0@PAH0@Z ENDP ; std::_Ptr_cat<int,int>
_TEXT	ENDS
PUBLIC	??$_Move@PAHPAH@std@@YAPAHPAH00U_Scalar_ptr_iterator_tag@0@@Z ; std::_Move<int *,int *>
EXTRN	__imp__memmove:PROC
; Function compile flags: /Ogsp
;	COMDAT ??$_Move@PAHPAH@std@@YAPAHPAH00U_Scalar_ptr_iterator_tag@0@@Z
_TEXT	SEGMENT
__First$ = 8						; size = 4
__Last$ = 12						; size = 4
__Dest$ = 16						; size = 4
___formal$ = 20						; size = 1
??$_Move@PAHPAH@std@@YAPAHPAH00U_Scalar_ptr_iterator_tag@0@@Z PROC ; std::_Move<int *,int *>, COMDAT

; 2522 : 	{	// move [_First, _Last) to [_Dest, ...), pointers to scalars

  00000	55		 push	 ebp
  00001	8b ec		 mov	 ebp, esp
  00003	56		 push	 esi

; 2523 : 	ptrdiff_t _Count = _Last - _First;

  00004	8b 75 0c	 mov	 esi, DWORD PTR __Last$[ebp]
  00007	2b 75 08	 sub	 esi, DWORD PTR __First$[ebp]
  0000a	57		 push	 edi

; 2524 : 	_CSTD memmove(&*_Dest, &*_First,
; 2525 : 		_Count * sizeof (*_First));

  0000b	8b 7d 10	 mov	 edi, DWORD PTR __Dest$[ebp]
  0000e	c1 fe 02	 sar	 esi, 2
  00011	c1 e6 02	 shl	 esi, 2
  00014	56		 push	 esi
  00015	ff 75 08	 push	 DWORD PTR __First$[ebp]
  00018	57		 push	 edi
  00019	ff 15 00 00 00
	00		 call	 DWORD PTR __imp__memmove
  0001f	83 c4 0c	 add	 esp, 12			; 0000000cH

; 2526 : 	return (_Dest + _Count);

  00022	8d 04 3e	 lea	 eax, DWORD PTR [esi+edi]
  00025	5f		 pop	 edi
  00026	5e		 pop	 esi

; 2527 : 	}

  00027	5d		 pop	 ebp
  00028	c3		 ret	 0
??$_Move@PAHPAH@std@@YAPAHPAH00U_Scalar_ptr_iterator_tag@0@@Z ENDP ; std::_Move<int *,int *>
_TEXT	ENDS
PUBLIC	??$_Destroy_range@V?$allocator@H@std@@@std@@YAXPAH0AAV?$allocator@H@0@U_Scalar_ptr_iterator_tag@0@@Z ; std::_Destroy_range<std::allocator<int> >
; Function compile flags: /Ogsp
; File c:\program files (x86)\microsoft visual studio 10.0\vc\include\xmemory
;	COMDAT ??$_Destroy_range@V?$allocator@H@std@@@std@@YAXPAH0AAV?$allocator@H@0@U_Scalar_ptr_iterator_tag@0@@Z
_TEXT	SEGMENT
__First$ = 8						; size = 4
__Last$ = 12						; size = 4
__Al$ = 16						; size = 4
___formal$ = 20						; size = 1
??$_Destroy_range@V?$allocator@H@std@@@std@@YAXPAH0AAV?$allocator@H@0@U_Scalar_ptr_iterator_tag@0@@Z PROC ; std::_Destroy_range<std::allocator<int> >, COMDAT

; 105  : 	}

  00000	c3		 ret	 0
??$_Destroy_range@V?$allocator@H@std@@@std@@YAXPAH0AAV?$allocator@H@0@U_Scalar_ptr_iterator_tag@0@@Z ENDP ; std::_Destroy_range<std::allocator<int> >
_TEXT	ENDS
PUBLIC	??$_Uninit_move@HHH@std@@YAPAHPAH00AAV?$allocator@H@0@0U_Scalar_ptr_iterator_tag@0@@Z ; std::_Uninit_move<int,int,int>
; Function compile flags: /Ogsp
; File c:\program files (x86)\microsoft visual studio 10.0\vc\include\memory
;	COMDAT ??$_Uninit_move@HHH@std@@YAPAHPAH00AAV?$allocator@H@0@0U_Scalar_ptr_iterator_tag@0@@Z
_TEXT	SEGMENT
__First$ = 8						; size = 4
__Last$ = 12						; size = 4
__Dest$ = 16						; size = 4
___formal$ = 20						; size = 4
___formal$ = 24						; size = 4
___formal$ = 28						; size = 1
??$_Uninit_move@HHH@std@@YAPAHPAH00AAV?$allocator@H@0@0U_Scalar_ptr_iterator_tag@0@@Z PROC ; std::_Uninit_move<int,int,int>, COMDAT

; 456  : 	{	// move [_First, _Last) to raw _Dest, scalar type

  00000	55		 push	 ebp
  00001	8b ec		 mov	 ebp, esp
  00003	56		 push	 esi

; 457  : 	_DEBUG_RANGE(_First, _Last);
; 458  : 	_DEBUG_POINTER(_Dest);
; 459  : 	size_t _Count = (size_t)(_Last - _First);

  00004	8b 75 0c	 mov	 esi, DWORD PTR __Last$[ebp]
  00007	2b 75 08	 sub	 esi, DWORD PTR __First$[ebp]
  0000a	c1 fe 02	 sar	 esi, 2

; 460  : 	return ((_Ty2 *)_CSTD memmove(&*_Dest, &*_First,
; 461  : 		_Count * sizeof (*_First)) + _Count);	// NB: non-overlapping move

  0000d	c1 e6 02	 shl	 esi, 2
  00010	56		 push	 esi
  00011	ff 75 08	 push	 DWORD PTR __First$[ebp]
  00014	ff 75 10	 push	 DWORD PTR __Dest$[ebp]
  00017	ff 15 00 00 00
	00		 call	 DWORD PTR __imp__memmove
  0001d	83 c4 0c	 add	 esp, 12			; 0000000cH
  00020	03 c6		 add	 eax, esi
  00022	5e		 pop	 esi

; 462  : 	}

  00023	5d		 pop	 ebp
  00024	c3		 ret	 0
??$_Uninit_move@HHH@std@@YAPAHPAH00AAV?$allocator@H@0@0U_Scalar_ptr_iterator_tag@0@@Z ENDP ; std::_Uninit_move<int,int,int>
_TEXT	ENDS
PUBLIC	?CheckElementType@ioDamageConvertBuff@@IAE_NH@Z	; ioDamageConvertBuff::CheckElementType
; Function compile flags: /Ogsp
; File d:\lost saga for developer\youtube\tutorial\source\src\lsclient\iodamageconvertbuff.cpp
;	COMDAT ?CheckElementType@ioDamageConvertBuff@@IAE_NH@Z
_TEXT	SEGMENT
_iType$ = 8						; size = 4
?CheckElementType@ioDamageConvertBuff@@IAE_NH@Z PROC	; ioDamageConvertBuff::CheckElementType, COMDAT
; _this$ = ecx

; 332  : {

  00000	55		 push	 ebp
  00001	8b ec		 mov	 ebp, esp

; 333  : 	if( !m_bCheckElementCheckType )

  00003	33 d2		 xor	 edx, edx
  00005	38 91 c8 0a 00
	00		 cmp	 BYTE PTR [ecx+2760], dl
  0000b	75 04		 jne	 SHORT $LN6@CheckEleme
$LN17@CheckEleme:

; 334  : 		return true;

  0000d	b0 01		 mov	 al, 1
  0000f	eb 29		 jmp	 SHORT $LN7@CheckEleme
$LN6@CheckEleme:

; 335  : 
; 336  : 	int iCnt = m_vAttackTypeList.size();

  00011	8d 81 80 0a 00
	00		 lea	 eax, DWORD PTR [ecx+2688]
  00017	8b 08		 mov	 ecx, DWORD PTR [eax]
  00019	8b 40 04	 mov	 eax, DWORD PTR [eax+4]
  0001c	2b c1		 sub	 eax, ecx
  0001e	c1 f8 02	 sar	 eax, 2

; 337  : 
; 338  : 	// 설정없으면 모두 적용
; 339  : 	if( iCnt == 0 ) return true;

  00021	3b c2		 cmp	 eax, edx
  00023	74 e8		 je	 SHORT $LN17@CheckEleme
  00025	56		 push	 esi

; 340  : 
; 341  : 	for( int i=0; i < iCnt; ++i )

  00026	7e 0f		 jle	 SHORT $LN2@CheckEleme
$LL4@CheckEleme:

; 342  : 	{
; 343  : 		if( iType == m_vAttackTypeList[i] )

  00028	8b 75 08	 mov	 esi, DWORD PTR _iType$[ebp]
  0002b	3b 31		 cmp	 esi, DWORD PTR [ecx]
  0002d	74 0f		 je	 SHORT $LN14@CheckEleme

; 340  : 
; 341  : 	for( int i=0; i < iCnt; ++i )

  0002f	42		 inc	 edx
  00030	83 c1 04	 add	 ecx, 4
  00033	3b d0		 cmp	 edx, eax
  00035	7c f1		 jl	 SHORT $LL4@CheckEleme
$LN2@CheckEleme:

; 345  : 	}
; 346  : 
; 347  : 	return false;

  00037	32 c0		 xor	 al, al
$LN16@CheckEleme:
  00039	5e		 pop	 esi
$LN7@CheckEleme:

; 348  : }

  0003a	5d		 pop	 ebp
  0003b	c2 04 00	 ret	 4
$LN14@CheckEleme:

; 344  : 			return true;

  0003e	b0 01		 mov	 al, 1
  00040	eb f7		 jmp	 SHORT $LN16@CheckEleme
?CheckElementType@ioDamageConvertBuff@@IAE_NH@Z ENDP	; ioDamageConvertBuff::CheckElementType
_TEXT	ENDS
PUBLIC	??D?$CEncrypt@M@@QAEMABH@Z			; CEncrypt<float>::operator*
; Function compile flags: /Ogsp
; File d:\lost saga for developer\youtube\tutorial\source\src\lsclient\encryptvalue.h
;	COMDAT ??D?$CEncrypt@M@@QAEMABH@Z
_TEXT	SEGMENT
_value$ = -4						; size = 4
tv128 = 8						; size = 4
_inValue$ = 8						; size = 4
??D?$CEncrypt@M@@QAEMABH@Z PROC				; CEncrypt<float>::operator*, COMDAT
; _this$ = ecx

; 874  : 	{

  00000	55		 push	 ebp
  00001	8b ec		 mov	 ebp, esp
  00003	51		 push	 ecx

; 875  : 		type value;
; 876  : 		DecryptValueToPool(&value);

  00004	8d 45 fc	 lea	 eax, DWORD PTR _value$[ebp]
  00007	50		 push	 eax
  00008	e8 00 00 00 00	 call	 ?DecryptValueToPool@?$CEncrypt@M@@QAEXPAM@Z ; CEncrypt<float>::DecryptValueToPool

; 877  : #ifdef _NOTUSE
; 878  : 		Debug();
; 879  : #endif
; 880  : 		return value * inValue;

  0000d	8b 45 08	 mov	 eax, DWORD PTR _inValue$[ebp]
  00010	db 00		 fild	 DWORD PTR [eax]
  00012	d8 4d fc	 fmul	 DWORD PTR _value$[ebp]
  00015	d9 5d 08	 fstp	 DWORD PTR tv128[ebp]
  00018	d9 45 08	 fld	 DWORD PTR tv128[ebp]

; 881  : 	}

  0001b	c9		 leave
  0001c	c2 04 00	 ret	 4
??D?$CEncrypt@M@@QAEMABH@Z ENDP				; CEncrypt<float>::operator*
_TEXT	ENDS
PUBLIC	??K?$CEncrypt@M@@QAEMABM@Z			; CEncrypt<float>::operator/
; Function compile flags: /Ogsp
;	COMDAT ??K?$CEncrypt@M@@QAEMABM@Z
_TEXT	SEGMENT
_value$ = -4						; size = 4
tv130 = 8						; size = 4
_inValue$ = 8						; size = 4
??K?$CEncrypt@M@@QAEMABM@Z PROC				; CEncrypt<float>::operator/, COMDAT
; _this$ = ecx

; 1695 : 	{

  00000	55		 push	 ebp
  00001	8b ec		 mov	 ebp, esp
  00003	51		 push	 ecx

; 1696 : 		type value;
; 1697 : 		DecryptValueToPool(&value);

  00004	8d 45 fc	 lea	 eax, DWORD PTR _value$[ebp]
  00007	50		 push	 eax
  00008	e8 00 00 00 00	 call	 ?DecryptValueToPool@?$CEncrypt@M@@QAEXPAM@Z ; CEncrypt<float>::DecryptValueToPool

; 1698 : #ifdef _NOTUSE
; 1699 : 		Debug();
; 1700 : #endif
; 1701 : 		return value / inValue;

  0000d	d9 45 fc	 fld	 DWORD PTR _value$[ebp]
  00010	8b 45 08	 mov	 eax, DWORD PTR _inValue$[ebp]
  00013	d8 30		 fdiv	 DWORD PTR [eax]
  00015	d9 5d 08	 fstp	 DWORD PTR tv130[ebp]
  00018	d9 45 08	 fld	 DWORD PTR tv130[ebp]

; 1702 : 	}

  0001b	c9		 leave
  0001c	c2 04 00	 ret	 4
??K?$CEncrypt@M@@QAEMABM@Z ENDP				; CEncrypt<float>::operator/
_TEXT	ENDS
PUBLIC	??N?$CEncrypt@M@@QAE_NABM@Z			; CEncrypt<float>::operator<=
; Function compile flags: /Ogsp
;	COMDAT ??N?$CEncrypt@M@@QAE_NABM@Z
_TEXT	SEGMENT
_value$ = -4						; size = 4
_inValue$ = 8						; size = 4
??N?$CEncrypt@M@@QAE_NABM@Z PROC			; CEncrypt<float>::operator<=, COMDAT
; _this$ = ecx

; 1821 : 	{

  00000	55		 push	 ebp
  00001	8b ec		 mov	 ebp, esp
  00003	51		 push	 ecx

; 1822 : 		type value;
; 1823 : 		DecryptValueToPool(&value);

  00004	8d 45 fc	 lea	 eax, DWORD PTR _value$[ebp]
  00007	50		 push	 eax
  00008	e8 00 00 00 00	 call	 ?DecryptValueToPool@?$CEncrypt@M@@QAEXPAM@Z ; CEncrypt<float>::DecryptValueToPool

; 1824 : #ifdef _NOTUSE
; 1825 : 		Debug();
; 1826 : #endif
; 1827 : 		return (value <= inValue);

  0000d	8b 45 08	 mov	 eax, DWORD PTR _inValue$[ebp]
  00010	f3 0f 10 08	 movss	 xmm1, DWORD PTR [eax]
  00014	f3 0f 10 45 fc	 movss	 xmm0, DWORD PTR _value$[ebp]
  00019	0f 5a c0	 cvtps2pd xmm0, xmm0
  0001c	0f 5a c9	 cvtps2pd xmm1, xmm1
  0001f	33 c0		 xor	 eax, eax
  00021	66 0f 2f c8	 comisd	 xmm1, xmm0
  00025	72 01		 jb	 SHORT $LN4@operator
  00027	40		 inc	 eax
$LN4@operator:

; 1828 : 	}

  00028	c9		 leave
  00029	c2 04 00	 ret	 4
??N?$CEncrypt@M@@QAE_NABM@Z ENDP			; CEncrypt<float>::operator<=
_TEXT	ENDS
PUBLIC	__$ArrayPad$
PUBLIC	??$LoadFloat_e@$0BH@@ioINILoader@@QAEMAAY0BH@$$CBDM@Z ; ioINILoader::LoadFloat_e<23>
EXTRN	__imp_?LoadFloat@ioINILoader@@QAEMPBDM@Z:PROC
EXTRN	___security_cookie:DWORD
EXTRN	@__security_check_cookie@4:PROC
; Function compile flags: /Ogsp
; File d:\lost saga for developer\youtube\tutorial\source\src\io3dengine\ioiniloader.h
;	COMDAT ??$LoadFloat_e@$0BH@@ioINILoader@@QAEMAAY0BH@$$CBDM@Z
_TEXT	SEGMENT
__k$ = -32						; size = 23
__$ArrayPad$ = -4					; size = 4
_k$ = 8							; size = 4
_f$ = 12						; size = 4
??$LoadFloat_e@$0BH@@ioINILoader@@QAEMAAY0BH@$$CBDM@Z PROC ; ioINILoader::LoadFloat_e<23>, COMDAT
; _this$ = ecx

; 135  : 	{

  00000	55		 push	 ebp
  00001	8b ec		 mov	 ebp, esp
  00003	83 ec 20	 sub	 esp, 32			; 00000020H
  00006	a1 00 00 00 00	 mov	 eax, DWORD PTR ___security_cookie
  0000b	33 c5		 xor	 eax, ebp
  0000d	89 45 fc	 mov	 DWORD PTR __$ArrayPad$[ebp], eax
  00010	8b 45 08	 mov	 eax, DWORD PTR _k$[ebp]

; 136  : 		_ENCSTR(k, _k);

  00013	8a 10		 mov	 dl, BYTE PTR [eax]
  00015	53		 push	 ebx
  00016	56		 push	 esi
  00017	8b f1		 mov	 esi, ecx
  00019	84 d2		 test	 dl, dl
  0001b	0f 84 2d 02 00
	00		 je	 $LN96@LoadFloat_
  00021	80 f2 ed	 xor	 dl, -19			; ffffffedH
  00024	88 55 e0	 mov	 BYTE PTR __k$[ebp], dl
  00027	8a 50 01	 mov	 dl, BYTE PTR [eax+1]
  0002a	84 d2		 test	 dl, dl
  0002c	0f 84 16 02 00
	00		 je	 $LN95@LoadFloat_
  00032	b1 ec		 mov	 cl, -20			; ffffffecH
  00034	32 d1		 xor	 dl, cl
  00036	88 55 e1	 mov	 BYTE PTR __k$[ebp+1], dl
  00039	8a 50 02	 mov	 dl, BYTE PTR [eax+2]
  0003c	84 d2		 test	 dl, dl
  0003e	0f 84 fe 01 00
	00		 je	 $LN94@LoadFloat_
  00044	80 f2 eb	 xor	 dl, -21			; ffffffebH
  00047	88 55 e2	 mov	 BYTE PTR __k$[ebp+2], dl
  0004a	8a 50 03	 mov	 dl, BYTE PTR [eax+3]
  0004d	84 d2		 test	 dl, dl
  0004f	0f 84 e7 01 00
	00		 je	 $LN93@LoadFloat_
  00055	b3 ea		 mov	 bl, -22			; ffffffeaH
  00057	32 d3		 xor	 dl, bl
  00059	88 55 e3	 mov	 BYTE PTR __k$[ebp+3], dl
  0005c	8a 50 04	 mov	 dl, BYTE PTR [eax+4]
  0005f	84 d2		 test	 dl, dl
  00061	0f 84 cf 01 00
	00		 je	 $LN92@LoadFloat_
  00067	80 f2 ed	 xor	 dl, -19			; ffffffedH
  0006a	88 55 e4	 mov	 BYTE PTR __k$[ebp+4], dl
  0006d	8a 50 05	 mov	 dl, BYTE PTR [eax+5]
  00070	84 d2		 test	 dl, dl
  00072	0f 84 b9 01 00
	00		 je	 $LN91@LoadFloat_
  00078	32 d1		 xor	 dl, cl
  0007a	88 55 e5	 mov	 BYTE PTR __k$[ebp+5], dl
  0007d	8a 50 06	 mov	 dl, BYTE PTR [eax+6]
  00080	84 d2		 test	 dl, dl
  00082	0f 84 a3 01 00
	00		 je	 $LN90@LoadFloat_
  00088	80 f2 eb	 xor	 dl, -21			; ffffffebH
  0008b	88 55 e6	 mov	 BYTE PTR __k$[ebp+6], dl
  0008e	8a 50 07	 mov	 dl, BYTE PTR [eax+7]
  00091	84 d2		 test	 dl, dl
  00093	0f 84 8d 01 00
	00		 je	 $LN89@LoadFloat_
  00099	32 d3		 xor	 dl, bl
  0009b	88 55 e7	 mov	 BYTE PTR __k$[ebp+7], dl
  0009e	8a 50 08	 mov	 dl, BYTE PTR [eax+8]
  000a1	84 d2		 test	 dl, dl
  000a3	0f 84 77 01 00
	00		 je	 $LN88@LoadFloat_
  000a9	80 f2 ed	 xor	 dl, -19			; ffffffedH
  000ac	88 55 e8	 mov	 BYTE PTR __k$[ebp+8], dl
  000af	8a 50 09	 mov	 dl, BYTE PTR [eax+9]
  000b2	84 d2		 test	 dl, dl
  000b4	0f 84 61 01 00
	00		 je	 $LN87@LoadFloat_
  000ba	32 d1		 xor	 dl, cl
  000bc	88 55 e9	 mov	 BYTE PTR __k$[ebp+9], dl
  000bf	8a 50 0a	 mov	 dl, BYTE PTR [eax+10]
  000c2	84 d2		 test	 dl, dl
  000c4	0f 84 4b 01 00
	00		 je	 $LN86@LoadFloat_
  000ca	80 f2 eb	 xor	 dl, -21			; ffffffebH
  000cd	88 55 ea	 mov	 BYTE PTR __k$[ebp+10], dl
  000d0	8a 50 0b	 mov	 dl, BYTE PTR [eax+11]
  000d3	84 d2		 test	 dl, dl
  000d5	0f 84 35 01 00
	00		 je	 $LN85@LoadFloat_
  000db	32 d3		 xor	 dl, bl
  000dd	88 55 eb	 mov	 BYTE PTR __k$[ebp+11], dl
  000e0	8a 50 0c	 mov	 dl, BYTE PTR [eax+12]
  000e3	84 d2		 test	 dl, dl
  000e5	0f 84 1f 01 00
	00		 je	 $LN84@LoadFloat_
  000eb	80 f2 ed	 xor	 dl, -19			; ffffffedH
  000ee	88 55 ec	 mov	 BYTE PTR __k$[ebp+12], dl
  000f1	8a 50 0d	 mov	 dl, BYTE PTR [eax+13]
  000f4	84 d2		 test	 dl, dl
  000f6	0f 84 09 01 00
	00		 je	 $LN83@LoadFloat_
  000fc	32 d1		 xor	 dl, cl
  000fe	88 55 ed	 mov	 BYTE PTR __k$[ebp+13], dl
  00101	8a 50 0e	 mov	 dl, BYTE PTR [eax+14]
  00104	84 d2		 test	 dl, dl
  00106	0f 84 f3 00 00
	00		 je	 $LN82@LoadFloat_
  0010c	80 f2 eb	 xor	 dl, -21			; ffffffebH
  0010f	88 55 ee	 mov	 BYTE PTR __k$[ebp+14], dl
  00112	8a 50 0f	 mov	 dl, BYTE PTR [eax+15]
  00115	84 d2		 test	 dl, dl
  00117	0f 84 dd 00 00
	00		 je	 $LN81@LoadFloat_
  0011d	32 d3		 xor	 dl, bl
  0011f	88 55 ef	 mov	 BYTE PTR __k$[ebp+15], dl
  00122	8a 50 10	 mov	 dl, BYTE PTR [eax+16]
  00125	84 d2		 test	 dl, dl
  00127	0f 84 c7 00 00
	00		 je	 $LN80@LoadFloat_
  0012d	80 f2 ed	 xor	 dl, -19			; ffffffedH
  00130	88 55 f0	 mov	 BYTE PTR __k$[ebp+16], dl
  00133	8a 50 11	 mov	 dl, BYTE PTR [eax+17]
  00136	84 d2		 test	 dl, dl
  00138	0f 84 b1 00 00
	00		 je	 $LN79@LoadFloat_
  0013e	32 d1		 xor	 dl, cl
  00140	88 55 f1	 mov	 BYTE PTR __k$[ebp+17], dl
  00143	8a 50 12	 mov	 dl, BYTE PTR [eax+18]
  00146	84 d2		 test	 dl, dl
  00148	0f 84 9b 00 00
	00		 je	 $LN78@LoadFloat_
  0014e	80 f2 eb	 xor	 dl, -21			; ffffffebH
  00151	88 55 f2	 mov	 BYTE PTR __k$[ebp+18], dl
  00154	8a 50 13	 mov	 dl, BYTE PTR [eax+19]
  00157	84 d2		 test	 dl, dl
  00159	0f 84 85 00 00
	00		 je	 $LN77@LoadFloat_
  0015f	32 d3		 xor	 dl, bl
  00161	88 55 f3	 mov	 BYTE PTR __k$[ebp+19], dl
  00164	8a 50 14	 mov	 dl, BYTE PTR [eax+20]
  00167	84 d2		 test	 dl, dl
  00169	74 73		 je	 SHORT $LN76@LoadFloat_
  0016b	80 f2 ed	 xor	 dl, -19			; ffffffedH
  0016e	88 55 f4	 mov	 BYTE PTR __k$[ebp+20], dl
  00171	8a 50 15	 mov	 dl, BYTE PTR [eax+21]
  00174	84 d2		 test	 dl, dl
  00176	74 61		 je	 SHORT $LN75@LoadFloat_
  00178	32 d1		 xor	 dl, cl
  0017a	80 78 16 00	 cmp	 BYTE PTR [eax+22], 0
  0017e	88 55 f5	 mov	 BYTE PTR __k$[ebp+21], dl
  00181	0f 84 cb 00 00
	00		 je	 $LN1@LoadFloat_
  00187	8a 50 17	 mov	 dl, BYTE PTR [eax+23]
  0018a	84 d2		 test	 dl, dl
  0018c	74 46		 je	 SHORT $LN73@LoadFloat_
  0018e	32 d3		 xor	 dl, bl
  00190	88 55 f7	 mov	 BYTE PTR __k$[ebp+23], dl
  00193	8a 50 18	 mov	 dl, BYTE PTR [eax+24]
  00196	84 d2		 test	 dl, dl
  00198	74 34		 je	 SHORT $LN72@LoadFloat_
  0019a	80 f2 ed	 xor	 dl, -19			; ffffffedH
  0019d	88 55 f8	 mov	 BYTE PTR __k$[ebp+24], dl
  001a0	8a 50 19	 mov	 dl, BYTE PTR [eax+25]
  001a3	84 d2		 test	 dl, dl
  001a5	74 1f		 je	 SHORT $LN71@LoadFloat_
  001a7	8a 40 1a	 mov	 al, BYTE PTR [eax+26]
  001aa	32 d1		 xor	 dl, cl
  001ac	88 55 f9	 mov	 BYTE PTR __k$[ebp+25], dl
  001af	84 c0		 test	 al, al
  001b1	74 0a		 je	 SHORT $LN70@LoadFloat_
  001b3	34 eb		 xor	 al, -21			; ffffffebH
  001b5	88 45 fa	 mov	 BYTE PTR __k$[ebp+26], al
  001b8	e9 95 00 00 00	 jmp	 $LN1@LoadFloat_
$LN70@LoadFloat_:
  001bd	c6 45 fa eb	 mov	 BYTE PTR __k$[ebp+26], -21 ; ffffffebH
  001c1	e9 8c 00 00 00	 jmp	 $LN1@LoadFloat_
$LN71@LoadFloat_:
  001c6	88 4d f9	 mov	 BYTE PTR __k$[ebp+25], cl
  001c9	e9 84 00 00 00	 jmp	 $LN1@LoadFloat_
$LN72@LoadFloat_:
  001ce	c6 45 f8 ed	 mov	 BYTE PTR __k$[ebp+24], -19 ; ffffffedH
  001d2	eb 7e		 jmp	 SHORT $LN1@LoadFloat_
$LN73@LoadFloat_:
  001d4	88 5d f7	 mov	 BYTE PTR __k$[ebp+23], bl
  001d7	eb 79		 jmp	 SHORT $LN1@LoadFloat_
$LN75@LoadFloat_:
  001d9	88 4d f5	 mov	 BYTE PTR __k$[ebp+21], cl
  001dc	eb 74		 jmp	 SHORT $LN1@LoadFloat_
$LN76@LoadFloat_:
  001de	c6 45 f4 ed	 mov	 BYTE PTR __k$[ebp+20], -19 ; ffffffedH
  001e2	eb 6e		 jmp	 SHORT $LN1@LoadFloat_
$LN77@LoadFloat_:
  001e4	88 5d f3	 mov	 BYTE PTR __k$[ebp+19], bl
  001e7	eb 69		 jmp	 SHORT $LN1@LoadFloat_
$LN78@LoadFloat_:
  001e9	c6 45 f2 eb	 mov	 BYTE PTR __k$[ebp+18], -21 ; ffffffebH
  001ed	eb 63		 jmp	 SHORT $LN1@LoadFloat_
$LN79@LoadFloat_:
  001ef	88 4d f1	 mov	 BYTE PTR __k$[ebp+17], cl
  001f2	eb 5e		 jmp	 SHORT $LN1@LoadFloat_
$LN80@LoadFloat_:
  001f4	c6 45 f0 ed	 mov	 BYTE PTR __k$[ebp+16], -19 ; ffffffedH
  001f8	eb 58		 jmp	 SHORT $LN1@LoadFloat_
$LN81@LoadFloat_:
  001fa	88 5d ef	 mov	 BYTE PTR __k$[ebp+15], bl
  001fd	eb 53		 jmp	 SHORT $LN1@LoadFloat_
$LN82@LoadFloat_:
  001ff	c6 45 ee eb	 mov	 BYTE PTR __k$[ebp+14], -21 ; ffffffebH
  00203	eb 4d		 jmp	 SHORT $LN1@LoadFloat_
$LN83@LoadFloat_:
  00205	88 4d ed	 mov	 BYTE PTR __k$[ebp+13], cl
  00208	eb 48		 jmp	 SHORT $LN1@LoadFloat_
$LN84@LoadFloat_:
  0020a	c6 45 ec ed	 mov	 BYTE PTR __k$[ebp+12], -19 ; ffffffedH
  0020e	eb 42		 jmp	 SHORT $LN1@LoadFloat_
$LN85@LoadFloat_:
  00210	88 5d eb	 mov	 BYTE PTR __k$[ebp+11], bl
  00213	eb 3d		 jmp	 SHORT $LN1@LoadFloat_
$LN86@LoadFloat_:
  00215	c6 45 ea eb	 mov	 BYTE PTR __k$[ebp+10], -21 ; ffffffebH
  00219	eb 37		 jmp	 SHORT $LN1@LoadFloat_
$LN87@LoadFloat_:
  0021b	88 4d e9	 mov	 BYTE PTR __k$[ebp+9], cl
  0021e	eb 32		 jmp	 SHORT $LN1@LoadFloat_
$LN88@LoadFloat_:
  00220	c6 45 e8 ed	 mov	 BYTE PTR __k$[ebp+8], -19 ; ffffffedH
  00224	eb 2c		 jmp	 SHORT $LN1@LoadFloat_
$LN89@LoadFloat_:
  00226	88 5d e7	 mov	 BYTE PTR __k$[ebp+7], bl
  00229	eb 27		 jmp	 SHORT $LN1@LoadFloat_
$LN90@LoadFloat_:
  0022b	c6 45 e6 eb	 mov	 BYTE PTR __k$[ebp+6], -21 ; ffffffebH
  0022f	eb 21		 jmp	 SHORT $LN1@LoadFloat_
$LN91@LoadFloat_:
  00231	88 4d e5	 mov	 BYTE PTR __k$[ebp+5], cl
  00234	eb 1c		 jmp	 SHORT $LN1@LoadFloat_
$LN92@LoadFloat_:
  00236	c6 45 e4 ed	 mov	 BYTE PTR __k$[ebp+4], -19 ; ffffffedH
  0023a	eb 16		 jmp	 SHORT $LN1@LoadFloat_
$LN93@LoadFloat_:
  0023c	c6 45 e3 ea	 mov	 BYTE PTR __k$[ebp+3], -22 ; ffffffeaH
  00240	eb 10		 jmp	 SHORT $LN1@LoadFloat_
$LN94@LoadFloat_:
  00242	c6 45 e2 eb	 mov	 BYTE PTR __k$[ebp+2], -21 ; ffffffebH
  00246	eb 0a		 jmp	 SHORT $LN1@LoadFloat_
$LN95@LoadFloat_:
  00248	c6 45 e1 ec	 mov	 BYTE PTR __k$[ebp+1], -20 ; ffffffecH
  0024c	eb 04		 jmp	 SHORT $LN1@LoadFloat_
$LN96@LoadFloat_:
  0024e	c6 45 e0 ed	 mov	 BYTE PTR __k$[ebp], -19	; ffffffedH
$LN1@LoadFloat_:
  00252	6a 05		 push	 5
  00254	8d 45 e0	 lea	 eax, DWORD PTR __k$[ebp]
  00257	c6 45 f6 00	 mov	 BYTE PTR __k$[ebp+22], 0
  0025b	5a		 pop	 edx
$LL104@LoadFloat_:
  0025c	81 30 ed ec eb
	ea		 xor	 DWORD PTR [eax], -353637139 ; eaebecedH
  00262	83 c0 04	 add	 eax, 4
  00265	4a		 dec	 edx
  00266	75 f4		 jne	 SHORT $LL104@LoadFloat_
  00268	6a 14		 push	 20			; 00000014H
  0026a	58		 pop	 eax
$LL101@LoadFloat_:
  0026b	8b c8		 mov	 ecx, eax
  0026d	81 e1 03 00 00
	80		 and	 ecx, -2147483645	; 80000003H
  00273	79 05		 jns	 SHORT $LN111@LoadFloat_
  00275	49		 dec	 ecx
  00276	83 c9 fc	 or	 ecx, -4			; fffffffcH
  00279	41		 inc	 ecx
$LN111@LoadFloat_:
  0027a	b2 ed		 mov	 dl, -19			; ffffffedH
  0027c	2a d1		 sub	 dl, cl
  0027e	30 54 05 e0	 xor	 BYTE PTR __k$[ebp+eax], dl
  00282	40		 inc	 eax
  00283	83 f8 16	 cmp	 eax, 22			; 00000016H
  00286	7c e3		 jl	 SHORT $LL101@LoadFloat_

; 137  : 		return LoadFloat(_k, f);

  00288	f3 0f 10 45 0c	 movss	 xmm0, DWORD PTR _f$[ebp]
  0028d	51		 push	 ecx
  0028e	8d 45 e0	 lea	 eax, DWORD PTR __k$[ebp]
  00291	f3 0f 11 04 24	 movss	 DWORD PTR [esp], xmm0
  00296	50		 push	 eax
  00297	8b ce		 mov	 ecx, esi
  00299	ff 15 00 00 00
	00		 call	 DWORD PTR __imp_?LoadFloat@ioINILoader@@QAEMPBDM@Z

; 138  : 	}

  0029f	8b 4d fc	 mov	 ecx, DWORD PTR __$ArrayPad$[ebp]
  002a2	5e		 pop	 esi
  002a3	33 cd		 xor	 ecx, ebp
  002a5	5b		 pop	 ebx
  002a6	e8 00 00 00 00	 call	 @__security_check_cookie@4
  002ab	c9		 leave
  002ac	c2 08 00	 ret	 8
??$LoadFloat_e@$0BH@@ioINILoader@@QAEMAAY0BH@$$CBDM@Z ENDP ; ioINILoader::LoadFloat_e<23>
_TEXT	ENDS
PUBLIC	__$ArrayPad$
PUBLIC	??$LoadFloat_e@$0BG@@ioINILoader@@QAEMAAY0BG@$$CBDM@Z ; ioINILoader::LoadFloat_e<22>
; Function compile flags: /Ogsp
;	COMDAT ??$LoadFloat_e@$0BG@@ioINILoader@@QAEMAAY0BG@$$CBDM@Z
_TEXT	SEGMENT
__k$ = -32						; size = 22
__$ArrayPad$ = -4					; size = 4
_k$ = 8							; size = 4
_f$ = 12						; size = 4
??$LoadFloat_e@$0BG@@ioINILoader@@QAEMAAY0BG@$$CBDM@Z PROC ; ioINILoader::LoadFloat_e<22>, COMDAT
; _this$ = ecx

; 135  : 	{

  00000	55		 push	 ebp
  00001	8b ec		 mov	 ebp, esp
  00003	83 ec 20	 sub	 esp, 32			; 00000020H
  00006	a1 00 00 00 00	 mov	 eax, DWORD PTR ___security_cookie
  0000b	33 c5		 xor	 eax, ebp
  0000d	89 45 fc	 mov	 DWORD PTR __$ArrayPad$[ebp], eax
  00010	8b 45 08	 mov	 eax, DWORD PTR _k$[ebp]

; 136  : 		_ENCSTR(k, _k);

  00013	8a 10		 mov	 dl, BYTE PTR [eax]
  00015	53		 push	 ebx
  00016	56		 push	 esi
  00017	8b f1		 mov	 esi, ecx
  00019	84 d2		 test	 dl, dl
  0001b	0f 84 15 02 00
	00		 je	 $LN96@LoadFloat_@2
  00021	80 f2 ed	 xor	 dl, -19			; ffffffedH
  00024	88 55 e0	 mov	 BYTE PTR __k$[ebp], dl
  00027	8a 50 01	 mov	 dl, BYTE PTR [eax+1]
  0002a	84 d2		 test	 dl, dl
  0002c	0f 84 fe 01 00
	00		 je	 $LN95@LoadFloat_@2
  00032	80 f2 ec	 xor	 dl, -20			; ffffffecH
  00035	88 55 e1	 mov	 BYTE PTR __k$[ebp+1], dl
  00038	8a 50 02	 mov	 dl, BYTE PTR [eax+2]
  0003b	84 d2		 test	 dl, dl
  0003d	0f 84 e7 01 00
	00		 je	 $LN94@LoadFloat_@2
  00043	b1 eb		 mov	 cl, -21			; ffffffebH
  00045	32 d1		 xor	 dl, cl
  00047	88 55 e2	 mov	 BYTE PTR __k$[ebp+2], dl
  0004a	8a 50 03	 mov	 dl, BYTE PTR [eax+3]
  0004d	84 d2		 test	 dl, dl
  0004f	0f 84 cf 01 00
	00		 je	 $LN93@LoadFloat_@2
  00055	b3 ea		 mov	 bl, -22			; ffffffeaH
  00057	32 d3		 xor	 dl, bl
  00059	88 55 e3	 mov	 BYTE PTR __k$[ebp+3], dl
  0005c	8a 50 04	 mov	 dl, BYTE PTR [eax+4]
  0005f	84 d2		 test	 dl, dl
  00061	0f 84 b7 01 00
	00		 je	 $LN92@LoadFloat_@2
  00067	80 f2 ed	 xor	 dl, -19			; ffffffedH
  0006a	88 55 e4	 mov	 BYTE PTR __k$[ebp+4], dl
  0006d	8a 50 05	 mov	 dl, BYTE PTR [eax+5]
  00070	84 d2		 test	 dl, dl
  00072	0f 84 a0 01 00
	00		 je	 $LN91@LoadFloat_@2
  00078	80 f2 ec	 xor	 dl, -20			; ffffffecH
  0007b	88 55 e5	 mov	 BYTE PTR __k$[ebp+5], dl
  0007e	8a 50 06	 mov	 dl, BYTE PTR [eax+6]
  00081	84 d2		 test	 dl, dl
  00083	0f 84 8a 01 00
	00		 je	 $LN90@LoadFloat_@2
  00089	32 d1		 xor	 dl, cl
  0008b	88 55 e6	 mov	 BYTE PTR __k$[ebp+6], dl
  0008e	8a 50 07	 mov	 dl, BYTE PTR [eax+7]
  00091	84 d2		 test	 dl, dl
  00093	0f 84 75 01 00
	00		 je	 $LN89@LoadFloat_@2
  00099	32 d3		 xor	 dl, bl
  0009b	88 55 e7	 mov	 BYTE PTR __k$[ebp+7], dl
  0009e	8a 50 08	 mov	 dl, BYTE PTR [eax+8]
  000a1	84 d2		 test	 dl, dl
  000a3	0f 84 5f 01 00
	00		 je	 $LN88@LoadFloat_@2
  000a9	80 f2 ed	 xor	 dl, -19			; ffffffedH
  000ac	88 55 e8	 mov	 BYTE PTR __k$[ebp+8], dl
  000af	8a 50 09	 mov	 dl, BYTE PTR [eax+9]
  000b2	84 d2		 test	 dl, dl
  000b4	0f 84 48 01 00
	00		 je	 $LN87@LoadFloat_@2
  000ba	80 f2 ec	 xor	 dl, -20			; ffffffecH
  000bd	88 55 e9	 mov	 BYTE PTR __k$[ebp+9], dl
  000c0	8a 50 0a	 mov	 dl, BYTE PTR [eax+10]
  000c3	84 d2		 test	 dl, dl
  000c5	0f 84 32 01 00
	00		 je	 $LN86@LoadFloat_@2
  000cb	32 d1		 xor	 dl, cl
  000cd	88 55 ea	 mov	 BYTE PTR __k$[ebp+10], dl
  000d0	8a 50 0b	 mov	 dl, BYTE PTR [eax+11]
  000d3	84 d2		 test	 dl, dl
  000d5	0f 84 1d 01 00
	00		 je	 $LN85@LoadFloat_@2
  000db	32 d3		 xor	 dl, bl
  000dd	88 55 eb	 mov	 BYTE PTR __k$[ebp+11], dl
  000e0	8a 50 0c	 mov	 dl, BYTE PTR [eax+12]
  000e3	84 d2		 test	 dl, dl
  000e5	0f 84 07 01 00
	00		 je	 $LN84@LoadFloat_@2
  000eb	80 f2 ed	 xor	 dl, -19			; ffffffedH
  000ee	88 55 ec	 mov	 BYTE PTR __k$[ebp+12], dl
  000f1	8a 50 0d	 mov	 dl, BYTE PTR [eax+13]
  000f4	84 d2		 test	 dl, dl
  000f6	0f 84 f0 00 00
	00		 je	 $LN83@LoadFloat_@2
  000fc	80 f2 ec	 xor	 dl, -20			; ffffffecH
  000ff	88 55 ed	 mov	 BYTE PTR __k$[ebp+13], dl
  00102	8a 50 0e	 mov	 dl, BYTE PTR [eax+14]
  00105	84 d2		 test	 dl, dl
  00107	0f 84 da 00 00
	00		 je	 $LN82@LoadFloat_@2
  0010d	32 d1		 xor	 dl, cl
  0010f	88 55 ee	 mov	 BYTE PTR __k$[ebp+14], dl
  00112	8a 50 0f	 mov	 dl, BYTE PTR [eax+15]
  00115	84 d2		 test	 dl, dl
  00117	0f 84 c5 00 00
	00		 je	 $LN81@LoadFloat_@2
  0011d	32 d3		 xor	 dl, bl
  0011f	88 55 ef	 mov	 BYTE PTR __k$[ebp+15], dl
  00122	8a 50 10	 mov	 dl, BYTE PTR [eax+16]
  00125	84 d2		 test	 dl, dl
  00127	0f 84 af 00 00
	00		 je	 $LN80@LoadFloat_@2
  0012d	80 f2 ed	 xor	 dl, -19			; ffffffedH
  00130	88 55 f0	 mov	 BYTE PTR __k$[ebp+16], dl
  00133	8a 50 11	 mov	 dl, BYTE PTR [eax+17]
  00136	84 d2		 test	 dl, dl
  00138	0f 84 98 00 00
	00		 je	 $LN79@LoadFloat_@2
  0013e	80 f2 ec	 xor	 dl, -20			; ffffffecH
  00141	88 55 f1	 mov	 BYTE PTR __k$[ebp+17], dl
  00144	8a 50 12	 mov	 dl, BYTE PTR [eax+18]
  00147	84 d2		 test	 dl, dl
  00149	0f 84 82 00 00
	00		 je	 $LN78@LoadFloat_@2
  0014f	32 d1		 xor	 dl, cl
  00151	88 55 f2	 mov	 BYTE PTR __k$[ebp+18], dl
  00154	8a 50 13	 mov	 dl, BYTE PTR [eax+19]
  00157	84 d2		 test	 dl, dl
  00159	74 71		 je	 SHORT $LN77@LoadFloat_@2
  0015b	32 d3		 xor	 dl, bl
  0015d	88 55 f3	 mov	 BYTE PTR __k$[ebp+19], dl
  00160	8a 50 14	 mov	 dl, BYTE PTR [eax+20]
  00163	84 d2		 test	 dl, dl
  00165	74 5f		 je	 SHORT $LN76@LoadFloat_@2
  00167	80 f2 ed	 xor	 dl, -19			; ffffffedH
  0016a	80 78 15 00	 cmp	 BYTE PTR [eax+21], 0
  0016e	88 55 f4	 mov	 BYTE PTR __k$[ebp+20], dl
  00171	0f 84 c3 00 00
	00		 je	 $LN1@LoadFloat_@2
  00177	8a 50 16	 mov	 dl, BYTE PTR [eax+22]
  0017a	84 d2		 test	 dl, dl
  0017c	74 43		 je	 SHORT $LN74@LoadFloat_@2
  0017e	32 d1		 xor	 dl, cl
  00180	88 55 f6	 mov	 BYTE PTR __k$[ebp+22], dl
  00183	8a 50 17	 mov	 dl, BYTE PTR [eax+23]
  00186	84 d2		 test	 dl, dl
  00188	74 32		 je	 SHORT $LN73@LoadFloat_@2
  0018a	32 d3		 xor	 dl, bl
  0018c	88 55 f7	 mov	 BYTE PTR __k$[ebp+23], dl
  0018f	8a 50 18	 mov	 dl, BYTE PTR [eax+24]
  00192	84 d2		 test	 dl, dl
  00194	74 20		 je	 SHORT $LN72@LoadFloat_@2
  00196	8a 40 19	 mov	 al, BYTE PTR [eax+25]
  00199	80 f2 ed	 xor	 dl, -19			; ffffffedH
  0019c	88 55 f8	 mov	 BYTE PTR __k$[ebp+24], dl
  0019f	84 c0		 test	 al, al
  001a1	74 0a		 je	 SHORT $LN71@LoadFloat_@2
  001a3	34 ec		 xor	 al, -20			; ffffffecH
  001a5	88 45 f9	 mov	 BYTE PTR __k$[ebp+25], al
  001a8	e9 8d 00 00 00	 jmp	 $LN1@LoadFloat_@2
$LN71@LoadFloat_@2:
  001ad	c6 45 f9 ec	 mov	 BYTE PTR __k$[ebp+25], -20 ; ffffffecH
  001b1	e9 84 00 00 00	 jmp	 $LN1@LoadFloat_@2
$LN72@LoadFloat_@2:
  001b6	c6 45 f8 ed	 mov	 BYTE PTR __k$[ebp+24], -19 ; ffffffedH
  001ba	eb 7e		 jmp	 SHORT $LN1@LoadFloat_@2
$LN73@LoadFloat_@2:
  001bc	88 5d f7	 mov	 BYTE PTR __k$[ebp+23], bl
  001bf	eb 79		 jmp	 SHORT $LN1@LoadFloat_@2
$LN74@LoadFloat_@2:
  001c1	88 4d f6	 mov	 BYTE PTR __k$[ebp+22], cl
  001c4	eb 74		 jmp	 SHORT $LN1@LoadFloat_@2
$LN76@LoadFloat_@2:
  001c6	c6 45 f4 ed	 mov	 BYTE PTR __k$[ebp+20], -19 ; ffffffedH
  001ca	eb 6e		 jmp	 SHORT $LN1@LoadFloat_@2
$LN77@LoadFloat_@2:
  001cc	88 5d f3	 mov	 BYTE PTR __k$[ebp+19], bl
  001cf	eb 69		 jmp	 SHORT $LN1@LoadFloat_@2
$LN78@LoadFloat_@2:
  001d1	88 4d f2	 mov	 BYTE PTR __k$[ebp+18], cl
  001d4	eb 64		 jmp	 SHORT $LN1@LoadFloat_@2
$LN79@LoadFloat_@2:
  001d6	c6 45 f1 ec	 mov	 BYTE PTR __k$[ebp+17], -20 ; ffffffecH
  001da	eb 5e		 jmp	 SHORT $LN1@LoadFloat_@2
$LN80@LoadFloat_@2:
  001dc	c6 45 f0 ed	 mov	 BYTE PTR __k$[ebp+16], -19 ; ffffffedH
  001e0	eb 58		 jmp	 SHORT $LN1@LoadFloat_@2
$LN81@LoadFloat_@2:
  001e2	88 5d ef	 mov	 BYTE PTR __k$[ebp+15], bl
  001e5	eb 53		 jmp	 SHORT $LN1@LoadFloat_@2
$LN82@LoadFloat_@2:
  001e7	88 4d ee	 mov	 BYTE PTR __k$[ebp+14], cl
  001ea	eb 4e		 jmp	 SHORT $LN1@LoadFloat_@2
$LN83@LoadFloat_@2:
  001ec	c6 45 ed ec	 mov	 BYTE PTR __k$[ebp+13], -20 ; ffffffecH
  001f0	eb 48		 jmp	 SHORT $LN1@LoadFloat_@2
$LN84@LoadFloat_@2:
  001f2	c6 45 ec ed	 mov	 BYTE PTR __k$[ebp+12], -19 ; ffffffedH
  001f6	eb 42		 jmp	 SHORT $LN1@LoadFloat_@2
$LN85@LoadFloat_@2:
  001f8	88 5d eb	 mov	 BYTE PTR __k$[ebp+11], bl
  001fb	eb 3d		 jmp	 SHORT $LN1@LoadFloat_@2
$LN86@LoadFloat_@2:
  001fd	88 4d ea	 mov	 BYTE PTR __k$[ebp+10], cl
  00200	eb 38		 jmp	 SHORT $LN1@LoadFloat_@2
$LN87@LoadFloat_@2:
  00202	c6 45 e9 ec	 mov	 BYTE PTR __k$[ebp+9], -20 ; ffffffecH
  00206	eb 32		 jmp	 SHORT $LN1@LoadFloat_@2
$LN88@LoadFloat_@2:
  00208	c6 45 e8 ed	 mov	 BYTE PTR __k$[ebp+8], -19 ; ffffffedH
  0020c	eb 2c		 jmp	 SHORT $LN1@LoadFloat_@2
$LN89@LoadFloat_@2:
  0020e	88 5d e7	 mov	 BYTE PTR __k$[ebp+7], bl
  00211	eb 27		 jmp	 SHORT $LN1@LoadFloat_@2
$LN90@LoadFloat_@2:
  00213	88 4d e6	 mov	 BYTE PTR __k$[ebp+6], cl
  00216	eb 22		 jmp	 SHORT $LN1@LoadFloat_@2
$LN91@LoadFloat_@2:
  00218	c6 45 e5 ec	 mov	 BYTE PTR __k$[ebp+5], -20 ; ffffffecH
  0021c	eb 1c		 jmp	 SHORT $LN1@LoadFloat_@2
$LN92@LoadFloat_@2:
  0021e	c6 45 e4 ed	 mov	 BYTE PTR __k$[ebp+4], -19 ; ffffffedH
  00222	eb 16		 jmp	 SHORT $LN1@LoadFloat_@2
$LN93@LoadFloat_@2:
  00224	c6 45 e3 ea	 mov	 BYTE PTR __k$[ebp+3], -22 ; ffffffeaH
  00228	eb 10		 jmp	 SHORT $LN1@LoadFloat_@2
$LN94@LoadFloat_@2:
  0022a	c6 45 e2 eb	 mov	 BYTE PTR __k$[ebp+2], -21 ; ffffffebH
  0022e	eb 0a		 jmp	 SHORT $LN1@LoadFloat_@2
$LN95@LoadFloat_@2:
  00230	c6 45 e1 ec	 mov	 BYTE PTR __k$[ebp+1], -20 ; ffffffecH
  00234	eb 04		 jmp	 SHORT $LN1@LoadFloat_@2
$LN96@LoadFloat_@2:
  00236	c6 45 e0 ed	 mov	 BYTE PTR __k$[ebp], -19	; ffffffedH
$LN1@LoadFloat_@2:
  0023a	6a 05		 push	 5
  0023c	8d 45 e0	 lea	 eax, DWORD PTR __k$[ebp]
  0023f	c6 45 f5 00	 mov	 BYTE PTR __k$[ebp+21], 0
  00243	5a		 pop	 edx
$LL104@LoadFloat_@2:
  00244	81 30 ed ec eb
	ea		 xor	 DWORD PTR [eax], -353637139 ; eaebecedH
  0024a	83 c0 04	 add	 eax, 4
  0024d	4a		 dec	 edx
  0024e	75 f4		 jne	 SHORT $LL104@LoadFloat_@2

; 137  : 		return LoadFloat(_k, f);

  00250	f3 0f 10 45 0c	 movss	 xmm0, DWORD PTR _f$[ebp]
  00255	80 75 f4 ed	 xor	 BYTE PTR __k$[ebp+20], -19 ; ffffffedH
  00259	51		 push	 ecx
  0025a	8d 45 e0	 lea	 eax, DWORD PTR __k$[ebp]
  0025d	f3 0f 11 04 24	 movss	 DWORD PTR [esp], xmm0
  00262	50		 push	 eax
  00263	8b ce		 mov	 ecx, esi
  00265	ff 15 00 00 00
	00		 call	 DWORD PTR __imp_?LoadFloat@ioINILoader@@QAEMPBDM@Z

; 138  : 	}

  0026b	8b 4d fc	 mov	 ecx, DWORD PTR __$ArrayPad$[ebp]
  0026e	5e		 pop	 esi
  0026f	33 cd		 xor	 ecx, ebp
  00271	5b		 pop	 ebx
  00272	e8 00 00 00 00	 call	 @__security_check_cookie@4
  00277	c9		 leave
  00278	c2 08 00	 ret	 8
??$LoadFloat_e@$0BG@@ioINILoader@@QAEMAAY0BG@$$CBDM@Z ENDP ; ioINILoader::LoadFloat_e<22>
_TEXT	ENDS
PUBLIC	__$ArrayPad$
PUBLIC	??$LoadFloat_e@$0BF@@ioINILoader@@QAEMAAY0BF@$$CBDM@Z ; ioINILoader::LoadFloat_e<21>
; Function compile flags: /Ogsp
;	COMDAT ??$LoadFloat_e@$0BF@@ioINILoader@@QAEMAAY0BF@$$CBDM@Z
_TEXT	SEGMENT
__k$ = -32						; size = 21
__$ArrayPad$ = -4					; size = 4
_k$ = 8							; size = 4
_f$ = 12						; size = 4
??$LoadFloat_e@$0BF@@ioINILoader@@QAEMAAY0BF@$$CBDM@Z PROC ; ioINILoader::LoadFloat_e<21>, COMDAT
; _this$ = ecx

; 135  : 	{

  00000	55		 push	 ebp
  00001	8b ec		 mov	 ebp, esp
  00003	83 ec 20	 sub	 esp, 32			; 00000020H
  00006	a1 00 00 00 00	 mov	 eax, DWORD PTR ___security_cookie
  0000b	33 c5		 xor	 eax, ebp
  0000d	89 45 fc	 mov	 DWORD PTR __$ArrayPad$[ebp], eax
  00010	8b 45 08	 mov	 eax, DWORD PTR _k$[ebp]

; 136  : 		_ENCSTR(k, _k);

  00013	8a 10		 mov	 dl, BYTE PTR [eax]
  00015	53		 push	 ebx
  00016	56		 push	 esi
  00017	8b f1		 mov	 esi, ecx
  00019	84 d2		 test	 dl, dl
  0001b	0f 84 f7 01 00
	00		 je	 $LN96@LoadFloat_@3
  00021	80 f2 ed	 xor	 dl, -19			; ffffffedH
  00024	88 55 e0	 mov	 BYTE PTR __k$[ebp], dl
  00027	8a 50 01	 mov	 dl, BYTE PTR [eax+1]
  0002a	84 d2		 test	 dl, dl
  0002c	0f 84 e0 01 00
	00		 je	 $LN95@LoadFloat_@3
  00032	b1 ec		 mov	 cl, -20			; ffffffecH
  00034	32 d1		 xor	 dl, cl
  00036	88 55 e1	 mov	 BYTE PTR __k$[ebp+1], dl
  00039	8a 50 02	 mov	 dl, BYTE PTR [eax+2]
  0003c	84 d2		 test	 dl, dl
  0003e	0f 84 c8 01 00
	00		 je	 $LN94@LoadFloat_@3
  00044	b3 eb		 mov	 bl, -21			; ffffffebH
  00046	32 d3		 xor	 dl, bl
  00048	88 55 e2	 mov	 BYTE PTR __k$[ebp+2], dl
  0004b	8a 50 03	 mov	 dl, BYTE PTR [eax+3]
  0004e	84 d2		 test	 dl, dl
  00050	0f 84 b0 01 00
	00		 je	 $LN93@LoadFloat_@3
  00056	80 f2 ea	 xor	 dl, -22			; ffffffeaH
  00059	88 55 e3	 mov	 BYTE PTR __k$[ebp+3], dl
  0005c	8a 50 04	 mov	 dl, BYTE PTR [eax+4]
  0005f	84 d2		 test	 dl, dl
  00061	0f 84 99 01 00
	00		 je	 $LN92@LoadFloat_@3
  00067	80 f2 ed	 xor	 dl, -19			; ffffffedH
  0006a	88 55 e4	 mov	 BYTE PTR __k$[ebp+4], dl
  0006d	8a 50 05	 mov	 dl, BYTE PTR [eax+5]
  00070	84 d2		 test	 dl, dl
  00072	0f 84 83 01 00
	00		 je	 $LN91@LoadFloat_@3
  00078	32 d1		 xor	 dl, cl
  0007a	88 55 e5	 mov	 BYTE PTR __k$[ebp+5], dl
  0007d	8a 50 06	 mov	 dl, BYTE PTR [eax+6]
  00080	84 d2		 test	 dl, dl
  00082	0f 84 6e 01 00
	00		 je	 $LN90@LoadFloat_@3
  00088	32 d3		 xor	 dl, bl
  0008a	88 55 e6	 mov	 BYTE PTR __k$[ebp+6], dl
  0008d	8a 50 07	 mov	 dl, BYTE PTR [eax+7]
  00090	84 d2		 test	 dl, dl
  00092	0f 84 58 01 00
	00		 je	 $LN89@LoadFloat_@3
  00098	80 f2 ea	 xor	 dl, -22			; ffffffeaH
  0009b	88 55 e7	 mov	 BYTE PTR __k$[ebp+7], dl
  0009e	8a 50 08	 mov	 dl, BYTE PTR [eax+8]
  000a1	84 d2		 test	 dl, dl
  000a3	0f 84 41 01 00
	00		 je	 $LN88@LoadFloat_@3
  000a9	80 f2 ed	 xor	 dl, -19			; ffffffedH
  000ac	88 55 e8	 mov	 BYTE PTR __k$[ebp+8], dl
  000af	8a 50 09	 mov	 dl, BYTE PTR [eax+9]
  000b2	84 d2		 test	 dl, dl
  000b4	0f 84 2b 01 00
	00		 je	 $LN87@LoadFloat_@3
  000ba	32 d1		 xor	 dl, cl
  000bc	88 55 e9	 mov	 BYTE PTR __k$[ebp+9], dl
  000bf	8a 50 0a	 mov	 dl, BYTE PTR [eax+10]
  000c2	84 d2		 test	 dl, dl
  000c4	0f 84 16 01 00
	00		 je	 $LN86@LoadFloat_@3
  000ca	32 d3		 xor	 dl, bl
  000cc	88 55 ea	 mov	 BYTE PTR __k$[ebp+10], dl
  000cf	8a 50 0b	 mov	 dl, BYTE PTR [eax+11]
  000d2	84 d2		 test	 dl, dl
  000d4	0f 84 00 01 00
	00		 je	 $LN85@LoadFloat_@3
  000da	80 f2 ea	 xor	 dl, -22			; ffffffeaH
  000dd	88 55 eb	 mov	 BYTE PTR __k$[ebp+11], dl
  000e0	8a 50 0c	 mov	 dl, BYTE PTR [eax+12]
  000e3	84 d2		 test	 dl, dl
  000e5	0f 84 e9 00 00
	00		 je	 $LN84@LoadFloat_@3
  000eb	80 f2 ed	 xor	 dl, -19			; ffffffedH
  000ee	88 55 ec	 mov	 BYTE PTR __k$[ebp+12], dl
  000f1	8a 50 0d	 mov	 dl, BYTE PTR [eax+13]
  000f4	84 d2		 test	 dl, dl
  000f6	0f 84 d3 00 00
	00		 je	 $LN83@LoadFloat_@3
  000fc	32 d1		 xor	 dl, cl
  000fe	88 55 ed	 mov	 BYTE PTR __k$[ebp+13], dl
  00101	8a 50 0e	 mov	 dl, BYTE PTR [eax+14]
  00104	84 d2		 test	 dl, dl
  00106	0f 84 be 00 00
	00		 je	 $LN82@LoadFloat_@3
  0010c	32 d3		 xor	 dl, bl
  0010e	88 55 ee	 mov	 BYTE PTR __k$[ebp+14], dl
  00111	8a 50 0f	 mov	 dl, BYTE PTR [eax+15]
  00114	84 d2		 test	 dl, dl
  00116	0f 84 a8 00 00
	00		 je	 $LN81@LoadFloat_@3
  0011c	80 f2 ea	 xor	 dl, -22			; ffffffeaH
  0011f	88 55 ef	 mov	 BYTE PTR __k$[ebp+15], dl
  00122	8a 50 10	 mov	 dl, BYTE PTR [eax+16]
  00125	84 d2		 test	 dl, dl
  00127	0f 84 91 00 00
	00		 je	 $LN80@LoadFloat_@3
  0012d	80 f2 ed	 xor	 dl, -19			; ffffffedH
  00130	88 55 f0	 mov	 BYTE PTR __k$[ebp+16], dl
  00133	8a 50 11	 mov	 dl, BYTE PTR [eax+17]
  00136	84 d2		 test	 dl, dl
  00138	74 7f		 je	 SHORT $LN79@LoadFloat_@3
  0013a	32 d1		 xor	 dl, cl
  0013c	88 55 f1	 mov	 BYTE PTR __k$[ebp+17], dl
  0013f	8a 50 12	 mov	 dl, BYTE PTR [eax+18]
  00142	84 d2		 test	 dl, dl
  00144	74 6e		 je	 SHORT $LN78@LoadFloat_@3
  00146	32 d3		 xor	 dl, bl
  00148	88 55 f2	 mov	 BYTE PTR __k$[ebp+18], dl
  0014b	8a 50 13	 mov	 dl, BYTE PTR [eax+19]
  0014e	84 d2		 test	 dl, dl
  00150	74 5c		 je	 SHORT $LN77@LoadFloat_@3
  00152	80 f2 ea	 xor	 dl, -22			; ffffffeaH
  00155	80 78 14 00	 cmp	 BYTE PTR [eax+20], 0
  00159	88 55 f3	 mov	 BYTE PTR __k$[ebp+19], dl
  0015c	0f 84 ba 00 00
	00		 je	 $LN1@LoadFloat_@3
  00162	8a 50 15	 mov	 dl, BYTE PTR [eax+21]
  00165	84 d2		 test	 dl, dl
  00167	74 40		 je	 SHORT $LN75@LoadFloat_@3
  00169	32 d1		 xor	 dl, cl
  0016b	88 55 f5	 mov	 BYTE PTR __k$[ebp+21], dl
  0016e	8a 50 16	 mov	 dl, BYTE PTR [eax+22]
  00171	84 d2		 test	 dl, dl
  00173	74 2f		 je	 SHORT $LN74@LoadFloat_@3
  00175	32 d3		 xor	 dl, bl
  00177	88 55 f6	 mov	 BYTE PTR __k$[ebp+22], dl
  0017a	8a 50 17	 mov	 dl, BYTE PTR [eax+23]
  0017d	84 d2		 test	 dl, dl
  0017f	74 1d		 je	 SHORT $LN73@LoadFloat_@3
  00181	8a 40 18	 mov	 al, BYTE PTR [eax+24]
  00184	80 f2 ea	 xor	 dl, -22			; ffffffeaH
  00187	88 55 f7	 mov	 BYTE PTR __k$[ebp+23], dl
  0018a	84 c0		 test	 al, al
  0018c	74 0a		 je	 SHORT $LN72@LoadFloat_@3
  0018e	34 ed		 xor	 al, -19			; ffffffedH
  00190	88 45 f8	 mov	 BYTE PTR __k$[ebp+24], al
  00193	e9 84 00 00 00	 jmp	 $LN1@LoadFloat_@3
$LN72@LoadFloat_@3:
  00198	c6 45 f8 ed	 mov	 BYTE PTR __k$[ebp+24], -19 ; ffffffedH
  0019c	eb 7e		 jmp	 SHORT $LN1@LoadFloat_@3
$LN73@LoadFloat_@3:
  0019e	c6 45 f7 ea	 mov	 BYTE PTR __k$[ebp+23], -22 ; ffffffeaH
  001a2	eb 78		 jmp	 SHORT $LN1@LoadFloat_@3
$LN74@LoadFloat_@3:
  001a4	88 5d f6	 mov	 BYTE PTR __k$[ebp+22], bl
  001a7	eb 73		 jmp	 SHORT $LN1@LoadFloat_@3
$LN75@LoadFloat_@3:
  001a9	88 4d f5	 mov	 BYTE PTR __k$[ebp+21], cl
  001ac	eb 6e		 jmp	 SHORT $LN1@LoadFloat_@3
$LN77@LoadFloat_@3:
  001ae	c6 45 f3 ea	 mov	 BYTE PTR __k$[ebp+19], -22 ; ffffffeaH
  001b2	eb 68		 jmp	 SHORT $LN1@LoadFloat_@3
$LN78@LoadFloat_@3:
  001b4	88 5d f2	 mov	 BYTE PTR __k$[ebp+18], bl
  001b7	eb 63		 jmp	 SHORT $LN1@LoadFloat_@3
$LN79@LoadFloat_@3:
  001b9	88 4d f1	 mov	 BYTE PTR __k$[ebp+17], cl
  001bc	eb 5e		 jmp	 SHORT $LN1@LoadFloat_@3
$LN80@LoadFloat_@3:
  001be	c6 45 f0 ed	 mov	 BYTE PTR __k$[ebp+16], -19 ; ffffffedH
  001c2	eb 58		 jmp	 SHORT $LN1@LoadFloat_@3
$LN81@LoadFloat_@3:
  001c4	c6 45 ef ea	 mov	 BYTE PTR __k$[ebp+15], -22 ; ffffffeaH
  001c8	eb 52		 jmp	 SHORT $LN1@LoadFloat_@3
$LN82@LoadFloat_@3:
  001ca	88 5d ee	 mov	 BYTE PTR __k$[ebp+14], bl
  001cd	eb 4d		 jmp	 SHORT $LN1@LoadFloat_@3
$LN83@LoadFloat_@3:
  001cf	88 4d ed	 mov	 BYTE PTR __k$[ebp+13], cl
  001d2	eb 48		 jmp	 SHORT $LN1@LoadFloat_@3
$LN84@LoadFloat_@3:
  001d4	c6 45 ec ed	 mov	 BYTE PTR __k$[ebp+12], -19 ; ffffffedH
  001d8	eb 42		 jmp	 SHORT $LN1@LoadFloat_@3
$LN85@LoadFloat_@3:
  001da	c6 45 eb ea	 mov	 BYTE PTR __k$[ebp+11], -22 ; ffffffeaH
  001de	eb 3c		 jmp	 SHORT $LN1@LoadFloat_@3
$LN86@LoadFloat_@3:
  001e0	88 5d ea	 mov	 BYTE PTR __k$[ebp+10], bl
  001e3	eb 37		 jmp	 SHORT $LN1@LoadFloat_@3
$LN87@LoadFloat_@3:
  001e5	88 4d e9	 mov	 BYTE PTR __k$[ebp+9], cl
  001e8	eb 32		 jmp	 SHORT $LN1@LoadFloat_@3
$LN88@LoadFloat_@3:
  001ea	c6 45 e8 ed	 mov	 BYTE PTR __k$[ebp+8], -19 ; ffffffedH
  001ee	eb 2c		 jmp	 SHORT $LN1@LoadFloat_@3
$LN89@LoadFloat_@3:
  001f0	c6 45 e7 ea	 mov	 BYTE PTR __k$[ebp+7], -22 ; ffffffeaH
  001f4	eb 26		 jmp	 SHORT $LN1@LoadFloat_@3
$LN90@LoadFloat_@3:
  001f6	88 5d e6	 mov	 BYTE PTR __k$[ebp+6], bl
  001f9	eb 21		 jmp	 SHORT $LN1@LoadFloat_@3
$LN91@LoadFloat_@3:
  001fb	88 4d e5	 mov	 BYTE PTR __k$[ebp+5], cl
  001fe	eb 1c		 jmp	 SHORT $LN1@LoadFloat_@3
$LN92@LoadFloat_@3:
  00200	c6 45 e4 ed	 mov	 BYTE PTR __k$[ebp+4], -19 ; ffffffedH
  00204	eb 16		 jmp	 SHORT $LN1@LoadFloat_@3
$LN93@LoadFloat_@3:
  00206	c6 45 e3 ea	 mov	 BYTE PTR __k$[ebp+3], -22 ; ffffffeaH
  0020a	eb 10		 jmp	 SHORT $LN1@LoadFloat_@3
$LN94@LoadFloat_@3:
  0020c	c6 45 e2 eb	 mov	 BYTE PTR __k$[ebp+2], -21 ; ffffffebH
  00210	eb 0a		 jmp	 SHORT $LN1@LoadFloat_@3
$LN95@LoadFloat_@3:
  00212	c6 45 e1 ec	 mov	 BYTE PTR __k$[ebp+1], -20 ; ffffffecH
  00216	eb 04		 jmp	 SHORT $LN1@LoadFloat_@3
$LN96@LoadFloat_@3:
  00218	c6 45 e0 ed	 mov	 BYTE PTR __k$[ebp], -19	; ffffffedH
$LN1@LoadFloat_@3:
  0021c	6a 05		 push	 5
  0021e	8d 45 e0	 lea	 eax, DWORD PTR __k$[ebp]
  00221	c6 45 f4 00	 mov	 BYTE PTR __k$[ebp+20], 0
  00225	5a		 pop	 edx
$LL104@LoadFloat_@3:
  00226	81 30 ed ec eb
	ea		 xor	 DWORD PTR [eax], -353637139 ; eaebecedH
  0022c	83 c0 04	 add	 eax, 4
  0022f	4a		 dec	 edx
  00230	75 f4		 jne	 SHORT $LL104@LoadFloat_@3

; 137  : 		return LoadFloat(_k, f);

  00232	f3 0f 10 45 0c	 movss	 xmm0, DWORD PTR _f$[ebp]
  00237	51		 push	 ecx
  00238	8d 45 e0	 lea	 eax, DWORD PTR __k$[ebp]
  0023b	f3 0f 11 04 24	 movss	 DWORD PTR [esp], xmm0
  00240	50		 push	 eax
  00241	8b ce		 mov	 ecx, esi
  00243	ff 15 00 00 00
	00		 call	 DWORD PTR __imp_?LoadFloat@ioINILoader@@QAEMPBDM@Z

; 138  : 	}

  00249	8b 4d fc	 mov	 ecx, DWORD PTR __$ArrayPad$[ebp]
  0024c	5e		 pop	 esi
  0024d	33 cd		 xor	 ecx, ebp
  0024f	5b		 pop	 ebx
  00250	e8 00 00 00 00	 call	 @__security_check_cookie@4
  00255	c9		 leave
  00256	c2 08 00	 ret	 8
??$LoadFloat_e@$0BF@@ioINILoader@@QAEMAAY0BF@$$CBDM@Z ENDP ; ioINILoader::LoadFloat_e<21>
_TEXT	ENDS
PUBLIC	__$ArrayPad$
PUBLIC	??$LoadInt_e@$0L@@ioINILoader@@QAEHAAY0L@$$CBDH@Z ; ioINILoader::LoadInt_e<11>
EXTRN	__imp_?LoadInt@ioINILoader@@QAEHPBDH@Z:PROC
; Function compile flags: /Ogsp
;	COMDAT ??$LoadInt_e@$0L@@ioINILoader@@QAEHAAY0L@$$CBDH@Z
_TEXT	SEGMENT
__k$ = -20						; size = 11
__$ArrayPad$ = -4					; size = 4
_k$ = 8							; size = 4
_i$ = 12						; size = 4
??$LoadInt_e@$0L@@ioINILoader@@QAEHAAY0L@$$CBDH@Z PROC	; ioINILoader::LoadInt_e<11>, COMDAT
; _this$ = ecx

; 118  : 	{

  00000	55		 push	 ebp
  00001	8b ec		 mov	 ebp, esp
  00003	83 ec 14	 sub	 esp, 20			; 00000014H
  00006	a1 00 00 00 00	 mov	 eax, DWORD PTR ___security_cookie
  0000b	33 c5		 xor	 eax, ebp
  0000d	89 45 fc	 mov	 DWORD PTR __$ArrayPad$[ebp], eax
  00010	8b 45 08	 mov	 eax, DWORD PTR _k$[ebp]

; 119  : 		_ENCSTR(k, _k);

  00013	8a 10		 mov	 dl, BYTE PTR [eax]
  00015	56		 push	 esi
  00016	8b f1		 mov	 esi, ecx
  00018	84 d2		 test	 dl, dl
  0001a	0f 84 24 01 00
	00		 je	 $LN96@LoadInt_e
  00020	80 f2 ed	 xor	 dl, -19			; ffffffedH
  00023	88 55 ec	 mov	 BYTE PTR __k$[ebp], dl
  00026	8a 50 01	 mov	 dl, BYTE PTR [eax+1]
  00029	84 d2		 test	 dl, dl
  0002b	0f 84 0d 01 00
	00		 je	 $LN95@LoadInt_e
  00031	80 f2 ec	 xor	 dl, -20			; ffffffecH
  00034	88 55 ed	 mov	 BYTE PTR __k$[ebp+1], dl
  00037	8a 50 02	 mov	 dl, BYTE PTR [eax+2]
  0003a	84 d2		 test	 dl, dl
  0003c	0f 84 f6 00 00
	00		 je	 $LN94@LoadInt_e
  00042	80 f2 eb	 xor	 dl, -21			; ffffffebH
  00045	88 55 ee	 mov	 BYTE PTR __k$[ebp+2], dl
  00048	8a 50 03	 mov	 dl, BYTE PTR [eax+3]
  0004b	84 d2		 test	 dl, dl
  0004d	0f 84 df 00 00
	00		 je	 $LN93@LoadInt_e
  00053	80 f2 ea	 xor	 dl, -22			; ffffffeaH
  00056	88 55 ef	 mov	 BYTE PTR __k$[ebp+3], dl
  00059	8a 50 04	 mov	 dl, BYTE PTR [eax+4]
  0005c	84 d2		 test	 dl, dl
  0005e	0f 84 c8 00 00
	00		 je	 $LN92@LoadInt_e
  00064	80 f2 ed	 xor	 dl, -19			; ffffffedH
  00067	88 55 f0	 mov	 BYTE PTR __k$[ebp+4], dl
  0006a	8a 50 05	 mov	 dl, BYTE PTR [eax+5]
  0006d	84 d2		 test	 dl, dl
  0006f	0f 84 b1 00 00
	00		 je	 $LN91@LoadInt_e
  00075	80 f2 ec	 xor	 dl, -20			; ffffffecH
  00078	88 55 f1	 mov	 BYTE PTR __k$[ebp+5], dl
  0007b	8a 50 06	 mov	 dl, BYTE PTR [eax+6]
  0007e	84 d2		 test	 dl, dl
  00080	0f 84 9a 00 00
	00		 je	 $LN90@LoadInt_e
  00086	80 f2 eb	 xor	 dl, -21			; ffffffebH
  00089	88 55 f2	 mov	 BYTE PTR __k$[ebp+6], dl
  0008c	8a 50 07	 mov	 dl, BYTE PTR [eax+7]
  0008f	84 d2		 test	 dl, dl
  00091	0f 84 83 00 00
	00		 je	 $LN89@LoadInt_e
  00097	80 f2 ea	 xor	 dl, -22			; ffffffeaH
  0009a	88 55 f3	 mov	 BYTE PTR __k$[ebp+7], dl
  0009d	8a 50 08	 mov	 dl, BYTE PTR [eax+8]
  000a0	84 d2		 test	 dl, dl
  000a2	74 70		 je	 SHORT $LN88@LoadInt_e
  000a4	80 f2 ed	 xor	 dl, -19			; ffffffedH
  000a7	88 55 f4	 mov	 BYTE PTR __k$[ebp+8], dl
  000aa	8a 50 09	 mov	 dl, BYTE PTR [eax+9]
  000ad	84 d2		 test	 dl, dl
  000af	74 5d		 je	 SHORT $LN87@LoadInt_e
  000b1	80 f2 ec	 xor	 dl, -20			; ffffffecH
  000b4	80 78 0a 00	 cmp	 BYTE PTR [eax+10], 0
  000b8	88 55 f5	 mov	 BYTE PTR __k$[ebp+9], dl
  000bb	0f 84 87 00 00
	00		 je	 $LN1@LoadInt_e
  000c1	8a 50 0b	 mov	 dl, BYTE PTR [eax+11]
  000c4	84 d2		 test	 dl, dl
  000c6	74 40		 je	 SHORT $LN85@LoadInt_e
  000c8	80 f2 ea	 xor	 dl, -22			; ffffffeaH
  000cb	88 55 f7	 mov	 BYTE PTR __k$[ebp+11], dl
  000ce	8a 50 0c	 mov	 dl, BYTE PTR [eax+12]
  000d1	84 d2		 test	 dl, dl
  000d3	74 2d		 je	 SHORT $LN84@LoadInt_e
  000d5	80 f2 ed	 xor	 dl, -19			; ffffffedH
  000d8	88 55 f8	 mov	 BYTE PTR __k$[ebp+12], dl
  000db	8a 50 0d	 mov	 dl, BYTE PTR [eax+13]
  000de	84 d2		 test	 dl, dl
  000e0	74 1a		 je	 SHORT $LN83@LoadInt_e
  000e2	8a 40 0e	 mov	 al, BYTE PTR [eax+14]
  000e5	80 f2 ec	 xor	 dl, -20			; ffffffecH
  000e8	88 55 f9	 mov	 BYTE PTR __k$[ebp+13], dl
  000eb	84 c0		 test	 al, al
  000ed	74 07		 je	 SHORT $LN82@LoadInt_e
  000ef	34 eb		 xor	 al, -21			; ffffffebH
  000f1	88 45 fa	 mov	 BYTE PTR __k$[ebp+14], al
  000f4	eb 52		 jmp	 SHORT $LN1@LoadInt_e
$LN82@LoadInt_e:
  000f6	c6 45 fa eb	 mov	 BYTE PTR __k$[ebp+14], -21 ; ffffffebH
  000fa	eb 4c		 jmp	 SHORT $LN1@LoadInt_e
$LN83@LoadInt_e:
  000fc	c6 45 f9 ec	 mov	 BYTE PTR __k$[ebp+13], -20 ; ffffffecH
  00100	eb 46		 jmp	 SHORT $LN1@LoadInt_e
$LN84@LoadInt_e:
  00102	c6 45 f8 ed	 mov	 BYTE PTR __k$[ebp+12], -19 ; ffffffedH
  00106	eb 40		 jmp	 SHORT $LN1@LoadInt_e
$LN85@LoadInt_e:
  00108	c6 45 f7 ea	 mov	 BYTE PTR __k$[ebp+11], -22 ; ffffffeaH
  0010c	eb 3a		 jmp	 SHORT $LN1@LoadInt_e
$LN87@LoadInt_e:
  0010e	c6 45 f5 ec	 mov	 BYTE PTR __k$[ebp+9], -20 ; ffffffecH
  00112	eb 34		 jmp	 SHORT $LN1@LoadInt_e
$LN88@LoadInt_e:
  00114	c6 45 f4 ed	 mov	 BYTE PTR __k$[ebp+8], -19 ; ffffffedH
  00118	eb 2e		 jmp	 SHORT $LN1@LoadInt_e
$LN89@LoadInt_e:
  0011a	c6 45 f3 ea	 mov	 BYTE PTR __k$[ebp+7], -22 ; ffffffeaH
  0011e	eb 28		 jmp	 SHORT $LN1@LoadInt_e
$LN90@LoadInt_e:
  00120	c6 45 f2 eb	 mov	 BYTE PTR __k$[ebp+6], -21 ; ffffffebH
  00124	eb 22		 jmp	 SHORT $LN1@LoadInt_e
$LN91@LoadInt_e:
  00126	c6 45 f1 ec	 mov	 BYTE PTR __k$[ebp+5], -20 ; ffffffecH
  0012a	eb 1c		 jmp	 SHORT $LN1@LoadInt_e
$LN92@LoadInt_e:
  0012c	c6 45 f0 ed	 mov	 BYTE PTR __k$[ebp+4], -19 ; ffffffedH
  00130	eb 16		 jmp	 SHORT $LN1@LoadInt_e
$LN93@LoadInt_e:
  00132	c6 45 ef ea	 mov	 BYTE PTR __k$[ebp+3], -22 ; ffffffeaH
  00136	eb 10		 jmp	 SHORT $LN1@LoadInt_e
$LN94@LoadInt_e:
  00138	c6 45 ee eb	 mov	 BYTE PTR __k$[ebp+2], -21 ; ffffffebH
  0013c	eb 0a		 jmp	 SHORT $LN1@LoadInt_e
$LN95@LoadInt_e:
  0013e	c6 45 ed ec	 mov	 BYTE PTR __k$[ebp+1], -20 ; ffffffecH
  00142	eb 04		 jmp	 SHORT $LN1@LoadInt_e
$LN96@LoadInt_e:
  00144	c6 45 ec ed	 mov	 BYTE PTR __k$[ebp], -19	; ffffffedH
$LN1@LoadInt_e:
  00148	6a 02		 push	 2
  0014a	8d 45 ec	 lea	 eax, DWORD PTR __k$[ebp]
  0014d	c6 45 f6 00	 mov	 BYTE PTR __k$[ebp+10], 0
  00151	5a		 pop	 edx
$LL104@LoadInt_e:
  00152	81 30 ed ec eb
	ea		 xor	 DWORD PTR [eax], -353637139 ; eaebecedH
  00158	83 c0 04	 add	 eax, 4
  0015b	4a		 dec	 edx
  0015c	75 f4		 jne	 SHORT $LL104@LoadInt_e
  0015e	6a 08		 push	 8
  00160	58		 pop	 eax
$LL101@LoadInt_e:
  00161	8b c8		 mov	 ecx, eax
  00163	81 e1 03 00 00
	80		 and	 ecx, -2147483645	; 80000003H
  00169	79 05		 jns	 SHORT $LN111@LoadInt_e
  0016b	49		 dec	 ecx
  0016c	83 c9 fc	 or	 ecx, -4			; fffffffcH
  0016f	41		 inc	 ecx
$LN111@LoadInt_e:
  00170	b2 ed		 mov	 dl, -19			; ffffffedH
  00172	2a d1		 sub	 dl, cl
  00174	30 54 05 ec	 xor	 BYTE PTR __k$[ebp+eax], dl
  00178	40		 inc	 eax
  00179	83 f8 0a	 cmp	 eax, 10			; 0000000aH
  0017c	7c e3		 jl	 SHORT $LL101@LoadInt_e

; 120  : 		return LoadInt(_k, i);

  0017e	ff 75 0c	 push	 DWORD PTR _i$[ebp]
  00181	8d 45 ec	 lea	 eax, DWORD PTR __k$[ebp]
  00184	50		 push	 eax
  00185	8b ce		 mov	 ecx, esi
  00187	ff 15 00 00 00
	00		 call	 DWORD PTR __imp_?LoadInt@ioINILoader@@QAEHPBDH@Z

; 121  : 	}

  0018d	8b 4d fc	 mov	 ecx, DWORD PTR __$ArrayPad$[ebp]
  00190	33 cd		 xor	 ecx, ebp
  00192	5e		 pop	 esi
  00193	e8 00 00 00 00	 call	 @__security_check_cookie@4
  00198	c9		 leave
  00199	c2 08 00	 ret	 8
??$LoadInt_e@$0L@@ioINILoader@@QAEHAAY0L@$$CBDH@Z ENDP	; ioINILoader::LoadInt_e<11>
_TEXT	ENDS
PUBLIC	__$ArrayPad$
PUBLIC	??$LoadFloat_e@$0O@@ioINILoader@@QAEMAAY0O@$$CBDM@Z ; ioINILoader::LoadFloat_e<14>
; Function compile flags: /Ogsp
;	COMDAT ??$LoadFloat_e@$0O@@ioINILoader@@QAEMAAY0O@$$CBDM@Z
_TEXT	SEGMENT
__k$ = -24						; size = 14
__$ArrayPad$ = -4					; size = 4
_k$ = 8							; size = 4
_f$ = 12						; size = 4
??$LoadFloat_e@$0O@@ioINILoader@@QAEMAAY0O@$$CBDM@Z PROC ; ioINILoader::LoadFloat_e<14>, COMDAT
; _this$ = ecx

; 135  : 	{

  00000	55		 push	 ebp
  00001	8b ec		 mov	 ebp, esp
  00003	83 ec 18	 sub	 esp, 24			; 00000018H
  00006	a1 00 00 00 00	 mov	 eax, DWORD PTR ___security_cookie
  0000b	33 c5		 xor	 eax, ebp
  0000d	89 45 fc	 mov	 DWORD PTR __$ArrayPad$[ebp], eax
  00010	8b 45 08	 mov	 eax, DWORD PTR _k$[ebp]

; 136  : 		_ENCSTR(k, _k);

  00013	8a 10		 mov	 dl, BYTE PTR [eax]
  00015	56		 push	 esi
  00016	8b f1		 mov	 esi, ecx
  00018	84 d2		 test	 dl, dl
  0001a	0f 84 64 01 00
	00		 je	 $LN96@LoadFloat_@4
  00020	80 f2 ed	 xor	 dl, -19			; ffffffedH
  00023	88 55 e8	 mov	 BYTE PTR __k$[ebp], dl
  00026	8a 50 01	 mov	 dl, BYTE PTR [eax+1]
  00029	84 d2		 test	 dl, dl
  0002b	0f 84 4d 01 00
	00		 je	 $LN95@LoadFloat_@4
  00031	80 f2 ec	 xor	 dl, -20			; ffffffecH
  00034	88 55 e9	 mov	 BYTE PTR __k$[ebp+1], dl
  00037	8a 50 02	 mov	 dl, BYTE PTR [eax+2]
  0003a	84 d2		 test	 dl, dl
  0003c	0f 84 36 01 00
	00		 je	 $LN94@LoadFloat_@4
  00042	b1 eb		 mov	 cl, -21			; ffffffebH
  00044	32 d1		 xor	 dl, cl
  00046	88 55 ea	 mov	 BYTE PTR __k$[ebp+2], dl
  00049	8a 50 03	 mov	 dl, BYTE PTR [eax+3]
  0004c	84 d2		 test	 dl, dl
  0004e	0f 84 1e 01 00
	00		 je	 $LN93@LoadFloat_@4
  00054	80 f2 ea	 xor	 dl, -22			; ffffffeaH
  00057	88 55 eb	 mov	 BYTE PTR __k$[ebp+3], dl
  0005a	8a 50 04	 mov	 dl, BYTE PTR [eax+4]
  0005d	84 d2		 test	 dl, dl
  0005f	0f 84 07 01 00
	00		 je	 $LN92@LoadFloat_@4
  00065	80 f2 ed	 xor	 dl, -19			; ffffffedH
  00068	88 55 ec	 mov	 BYTE PTR __k$[ebp+4], dl
  0006b	8a 50 05	 mov	 dl, BYTE PTR [eax+5]
  0006e	84 d2		 test	 dl, dl
  00070	0f 84 f0 00 00
	00		 je	 $LN91@LoadFloat_@4
  00076	80 f2 ec	 xor	 dl, -20			; ffffffecH
  00079	88 55 ed	 mov	 BYTE PTR __k$[ebp+5], dl
  0007c	8a 50 06	 mov	 dl, BYTE PTR [eax+6]
  0007f	84 d2		 test	 dl, dl
  00081	0f 84 da 00 00
	00		 je	 $LN90@LoadFloat_@4
  00087	32 d1		 xor	 dl, cl
  00089	88 55 ee	 mov	 BYTE PTR __k$[ebp+6], dl
  0008c	8a 50 07	 mov	 dl, BYTE PTR [eax+7]
  0008f	84 d2		 test	 dl, dl
  00091	0f 84 c4 00 00
	00		 je	 $LN89@LoadFloat_@4
  00097	80 f2 ea	 xor	 dl, -22			; ffffffeaH
  0009a	88 55 ef	 mov	 BYTE PTR __k$[ebp+7], dl
  0009d	8a 50 08	 mov	 dl, BYTE PTR [eax+8]
  000a0	84 d2		 test	 dl, dl
  000a2	0f 84 ad 00 00
	00		 je	 $LN88@LoadFloat_@4
  000a8	80 f2 ed	 xor	 dl, -19			; ffffffedH
  000ab	88 55 f0	 mov	 BYTE PTR __k$[ebp+8], dl
  000ae	8a 50 09	 mov	 dl, BYTE PTR [eax+9]
  000b1	84 d2		 test	 dl, dl
  000b3	0f 84 96 00 00
	00		 je	 $LN87@LoadFloat_@4
  000b9	80 f2 ec	 xor	 dl, -20			; ffffffecH
  000bc	88 55 f1	 mov	 BYTE PTR __k$[ebp+9], dl
  000bf	8a 50 0a	 mov	 dl, BYTE PTR [eax+10]
  000c2	84 d2		 test	 dl, dl
  000c4	0f 84 80 00 00
	00		 je	 $LN86@LoadFloat_@4
  000ca	32 d1		 xor	 dl, cl
  000cc	88 55 f2	 mov	 BYTE PTR __k$[ebp+10], dl
  000cf	8a 50 0b	 mov	 dl, BYTE PTR [eax+11]
  000d2	84 d2		 test	 dl, dl
  000d4	74 6e		 je	 SHORT $LN85@LoadFloat_@4
  000d6	80 f2 ea	 xor	 dl, -22			; ffffffeaH
  000d9	88 55 f3	 mov	 BYTE PTR __k$[ebp+11], dl
  000dc	8a 50 0c	 mov	 dl, BYTE PTR [eax+12]
  000df	84 d2		 test	 dl, dl
  000e1	74 5b		 je	 SHORT $LN84@LoadFloat_@4
  000e3	80 f2 ed	 xor	 dl, -19			; ffffffedH
  000e6	80 78 0d 00	 cmp	 BYTE PTR [eax+13], 0
  000ea	88 55 f4	 mov	 BYTE PTR __k$[ebp+12], dl
  000ed	0f 84 95 00 00
	00		 je	 $LN1@LoadFloat_@4
  000f3	8a 50 0e	 mov	 dl, BYTE PTR [eax+14]
  000f6	84 d2		 test	 dl, dl
  000f8	74 3f		 je	 SHORT $LN82@LoadFloat_@4
  000fa	32 d1		 xor	 dl, cl
  000fc	88 55 f6	 mov	 BYTE PTR __k$[ebp+14], dl
  000ff	8a 50 0f	 mov	 dl, BYTE PTR [eax+15]
  00102	84 d2		 test	 dl, dl
  00104	74 2d		 je	 SHORT $LN81@LoadFloat_@4
  00106	80 f2 ea	 xor	 dl, -22			; ffffffeaH
  00109	88 55 f7	 mov	 BYTE PTR __k$[ebp+15], dl
  0010c	8a 50 10	 mov	 dl, BYTE PTR [eax+16]
  0010f	84 d2		 test	 dl, dl
  00111	74 1a		 je	 SHORT $LN80@LoadFloat_@4
  00113	8a 40 11	 mov	 al, BYTE PTR [eax+17]
  00116	80 f2 ed	 xor	 dl, -19			; ffffffedH
  00119	88 55 f8	 mov	 BYTE PTR __k$[ebp+16], dl
  0011c	84 c0		 test	 al, al
  0011e	74 07		 je	 SHORT $LN79@LoadFloat_@4
  00120	34 ec		 xor	 al, -20			; ffffffecH
  00122	88 45 f9	 mov	 BYTE PTR __k$[ebp+17], al
  00125	eb 61		 jmp	 SHORT $LN1@LoadFloat_@4
$LN79@LoadFloat_@4:
  00127	c6 45 f9 ec	 mov	 BYTE PTR __k$[ebp+17], -20 ; ffffffecH
  0012b	eb 5b		 jmp	 SHORT $LN1@LoadFloat_@4
$LN80@LoadFloat_@4:
  0012d	c6 45 f8 ed	 mov	 BYTE PTR __k$[ebp+16], -19 ; ffffffedH
  00131	eb 55		 jmp	 SHORT $LN1@LoadFloat_@4
$LN81@LoadFloat_@4:
  00133	c6 45 f7 ea	 mov	 BYTE PTR __k$[ebp+15], -22 ; ffffffeaH
  00137	eb 4f		 jmp	 SHORT $LN1@LoadFloat_@4
$LN82@LoadFloat_@4:
  00139	88 4d f6	 mov	 BYTE PTR __k$[ebp+14], cl
  0013c	eb 4a		 jmp	 SHORT $LN1@LoadFloat_@4
$LN84@LoadFloat_@4:
  0013e	c6 45 f4 ed	 mov	 BYTE PTR __k$[ebp+12], -19 ; ffffffedH
  00142	eb 44		 jmp	 SHORT $LN1@LoadFloat_@4
$LN85@LoadFloat_@4:
  00144	c6 45 f3 ea	 mov	 BYTE PTR __k$[ebp+11], -22 ; ffffffeaH
  00148	eb 3e		 jmp	 SHORT $LN1@LoadFloat_@4
$LN86@LoadFloat_@4:
  0014a	88 4d f2	 mov	 BYTE PTR __k$[ebp+10], cl
  0014d	eb 39		 jmp	 SHORT $LN1@LoadFloat_@4
$LN87@LoadFloat_@4:
  0014f	c6 45 f1 ec	 mov	 BYTE PTR __k$[ebp+9], -20 ; ffffffecH
  00153	eb 33		 jmp	 SHORT $LN1@LoadFloat_@4
$LN88@LoadFloat_@4:
  00155	c6 45 f0 ed	 mov	 BYTE PTR __k$[ebp+8], -19 ; ffffffedH
  00159	eb 2d		 jmp	 SHORT $LN1@LoadFloat_@4
$LN89@LoadFloat_@4:
  0015b	c6 45 ef ea	 mov	 BYTE PTR __k$[ebp+7], -22 ; ffffffeaH
  0015f	eb 27		 jmp	 SHORT $LN1@LoadFloat_@4
$LN90@LoadFloat_@4:
  00161	88 4d ee	 mov	 BYTE PTR __k$[ebp+6], cl
  00164	eb 22		 jmp	 SHORT $LN1@LoadFloat_@4
$LN91@LoadFloat_@4:
  00166	c6 45 ed ec	 mov	 BYTE PTR __k$[ebp+5], -20 ; ffffffecH
  0016a	eb 1c		 jmp	 SHORT $LN1@LoadFloat_@4
$LN92@LoadFloat_@4:
  0016c	c6 45 ec ed	 mov	 BYTE PTR __k$[ebp+4], -19 ; ffffffedH
  00170	eb 16		 jmp	 SHORT $LN1@LoadFloat_@4
$LN93@LoadFloat_@4:
  00172	c6 45 eb ea	 mov	 BYTE PTR __k$[ebp+3], -22 ; ffffffeaH
  00176	eb 10		 jmp	 SHORT $LN1@LoadFloat_@4
$LN94@LoadFloat_@4:
  00178	c6 45 ea eb	 mov	 BYTE PTR __k$[ebp+2], -21 ; ffffffebH
  0017c	eb 0a		 jmp	 SHORT $LN1@LoadFloat_@4
$LN95@LoadFloat_@4:
  0017e	c6 45 e9 ec	 mov	 BYTE PTR __k$[ebp+1], -20 ; ffffffecH
  00182	eb 04		 jmp	 SHORT $LN1@LoadFloat_@4
$LN96@LoadFloat_@4:
  00184	c6 45 e8 ed	 mov	 BYTE PTR __k$[ebp], -19	; ffffffedH
$LN1@LoadFloat_@4:
  00188	6a 03		 push	 3
  0018a	8d 45 e8	 lea	 eax, DWORD PTR __k$[ebp]
  0018d	c6 45 f5 00	 mov	 BYTE PTR __k$[ebp+13], 0
  00191	5a		 pop	 edx
$LL104@LoadFloat_@4:
  00192	81 30 ed ec eb
	ea		 xor	 DWORD PTR [eax], -353637139 ; eaebecedH
  00198	83 c0 04	 add	 eax, 4
  0019b	4a		 dec	 edx
  0019c	75 f4		 jne	 SHORT $LL104@LoadFloat_@4

; 137  : 		return LoadFloat(_k, f);

  0019e	f3 0f 10 45 0c	 movss	 xmm0, DWORD PTR _f$[ebp]
  001a3	80 75 f4 ed	 xor	 BYTE PTR __k$[ebp+12], -19 ; ffffffedH
  001a7	51		 push	 ecx
  001a8	8d 45 e8	 lea	 eax, DWORD PTR __k$[ebp]
  001ab	f3 0f 11 04 24	 movss	 DWORD PTR [esp], xmm0
  001b0	50		 push	 eax
  001b1	8b ce		 mov	 ecx, esi
  001b3	ff 15 00 00 00
	00		 call	 DWORD PTR __imp_?LoadFloat@ioINILoader@@QAEMPBDM@Z

; 138  : 	}

  001b9	8b 4d fc	 mov	 ecx, DWORD PTR __$ArrayPad$[ebp]
  001bc	33 cd		 xor	 ecx, ebp
  001be	5e		 pop	 esi
  001bf	e8 00 00 00 00	 call	 @__security_check_cookie@4
  001c4	c9		 leave
  001c5	c2 08 00	 ret	 8
??$LoadFloat_e@$0O@@ioINILoader@@QAEMAAY0O@$$CBDM@Z ENDP ; ioINILoader::LoadFloat_e<14>
_TEXT	ENDS
PUBLIC	_this$GSCopy$
PUBLIC	__$ArrayPad$
PUBLIC	??$LoadString_e@$0BJ@@ioINILoader@@QAEXAAY0BJ@$$CBDAAY00$$CBDPADH@Z ; ioINILoader::LoadString_e<25>
EXTRN	__imp_?LoadStringA@ioINILoader@@QAEXPBD0PADH@Z:PROC
; Function compile flags: /Ogsp
;	COMDAT ??$LoadString_e@$0BJ@@ioINILoader@@QAEXAAY0BJ@$$CBDAAY00$$CBDPADH@Z
_TEXT	SEGMENT
_this$GSCopy$ = -40					; size = 4
__k$ = -36						; size = 25
__$ArrayPad$ = -4					; size = 4
_k$ = 8							; size = 4
_d$ = 12						; size = 4
_b$ = 16						; size = 4
_i$ = 20						; size = 4
??$LoadString_e@$0BJ@@ioINILoader@@QAEXAAY0BJ@$$CBDAAY00$$CBDPADH@Z PROC ; ioINILoader::LoadString_e<25>, COMDAT
; _this$ = ecx

; 161  : 	{

  00000	55		 push	 ebp
  00001	8b ec		 mov	 ebp, esp
  00003	83 ec 28	 sub	 esp, 40			; 00000028H
  00006	a1 00 00 00 00	 mov	 eax, DWORD PTR ___security_cookie
  0000b	33 c5		 xor	 eax, ebp
  0000d	89 45 fc	 mov	 DWORD PTR __$ArrayPad$[ebp], eax
  00010	8b 45 08	 mov	 eax, DWORD PTR _k$[ebp]

; 162  : 		_ENCSTR(k, _k);

  00013	8a 10		 mov	 dl, BYTE PTR [eax]
  00015	53		 push	 ebx
  00016	56		 push	 esi
  00017	8b 75 0c	 mov	 esi, DWORD PTR _d$[ebp]
  0001a	57		 push	 edi
  0001b	8b 7d 10	 mov	 edi, DWORD PTR _b$[ebp]
  0001e	89 4d d8	 mov	 DWORD PTR _this$GSCopy$[ebp], ecx
  00021	84 d2		 test	 dl, dl
  00023	0f 84 5f 02 00
	00		 je	 $LN96@LoadString
  00029	80 f2 ed	 xor	 dl, -19			; ffffffedH
  0002c	88 55 dc	 mov	 BYTE PTR __k$[ebp], dl
  0002f	8a 50 01	 mov	 dl, BYTE PTR [eax+1]
  00032	84 d2		 test	 dl, dl
  00034	0f 84 48 02 00
	00		 je	 $LN95@LoadString
  0003a	b1 ec		 mov	 cl, -20			; ffffffecH
  0003c	32 d1		 xor	 dl, cl
  0003e	88 55 dd	 mov	 BYTE PTR __k$[ebp+1], dl
  00041	8a 50 02	 mov	 dl, BYTE PTR [eax+2]
  00044	84 d2		 test	 dl, dl
  00046	0f 84 30 02 00
	00		 je	 $LN94@LoadString
  0004c	b3 eb		 mov	 bl, -21			; ffffffebH
  0004e	32 d3		 xor	 dl, bl
  00050	88 55 de	 mov	 BYTE PTR __k$[ebp+2], dl
  00053	8a 50 03	 mov	 dl, BYTE PTR [eax+3]
  00056	84 d2		 test	 dl, dl
  00058	0f 84 18 02 00
	00		 je	 $LN93@LoadString
  0005e	80 f2 ea	 xor	 dl, -22			; ffffffeaH
  00061	88 55 df	 mov	 BYTE PTR __k$[ebp+3], dl
  00064	8a 50 04	 mov	 dl, BYTE PTR [eax+4]
  00067	84 d2		 test	 dl, dl
  00069	0f 84 01 02 00
	00		 je	 $LN92@LoadString
  0006f	80 f2 ed	 xor	 dl, -19			; ffffffedH
  00072	88 55 e0	 mov	 BYTE PTR __k$[ebp+4], dl
  00075	8a 50 05	 mov	 dl, BYTE PTR [eax+5]
  00078	84 d2		 test	 dl, dl
  0007a	0f 84 eb 01 00
	00		 je	 $LN91@LoadString
  00080	32 d1		 xor	 dl, cl
  00082	88 55 e1	 mov	 BYTE PTR __k$[ebp+5], dl
  00085	8a 50 06	 mov	 dl, BYTE PTR [eax+6]
  00088	84 d2		 test	 dl, dl
  0008a	0f 84 d6 01 00
	00		 je	 $LN90@LoadString
  00090	32 d3		 xor	 dl, bl
  00092	88 55 e2	 mov	 BYTE PTR __k$[ebp+6], dl
  00095	8a 50 07	 mov	 dl, BYTE PTR [eax+7]
  00098	84 d2		 test	 dl, dl
  0009a	0f 84 c0 01 00
	00		 je	 $LN89@LoadString
  000a0	80 f2 ea	 xor	 dl, -22			; ffffffeaH
  000a3	88 55 e3	 mov	 BYTE PTR __k$[ebp+7], dl
  000a6	8a 50 08	 mov	 dl, BYTE PTR [eax+8]
  000a9	84 d2		 test	 dl, dl
  000ab	0f 84 a9 01 00
	00		 je	 $LN88@LoadString
  000b1	80 f2 ed	 xor	 dl, -19			; ffffffedH
  000b4	88 55 e4	 mov	 BYTE PTR __k$[ebp+8], dl
  000b7	8a 50 09	 mov	 dl, BYTE PTR [eax+9]
  000ba	84 d2		 test	 dl, dl
  000bc	0f 84 93 01 00
	00		 je	 $LN87@LoadString
  000c2	32 d1		 xor	 dl, cl
  000c4	88 55 e5	 mov	 BYTE PTR __k$[ebp+9], dl
  000c7	8a 50 0a	 mov	 dl, BYTE PTR [eax+10]
  000ca	84 d2		 test	 dl, dl
  000cc	0f 84 7e 01 00
	00		 je	 $LN86@LoadString
  000d2	32 d3		 xor	 dl, bl
  000d4	88 55 e6	 mov	 BYTE PTR __k$[ebp+10], dl
  000d7	8a 50 0b	 mov	 dl, BYTE PTR [eax+11]
  000da	84 d2		 test	 dl, dl
  000dc	0f 84 68 01 00
	00		 je	 $LN85@LoadString
  000e2	80 f2 ea	 xor	 dl, -22			; ffffffeaH
  000e5	88 55 e7	 mov	 BYTE PTR __k$[ebp+11], dl
  000e8	8a 50 0c	 mov	 dl, BYTE PTR [eax+12]
  000eb	84 d2		 test	 dl, dl
  000ed	0f 84 51 01 00
	00		 je	 $LN84@LoadString
  000f3	80 f2 ed	 xor	 dl, -19			; ffffffedH
  000f6	88 55 e8	 mov	 BYTE PTR __k$[ebp+12], dl
  000f9	8a 50 0d	 mov	 dl, BYTE PTR [eax+13]
  000fc	84 d2		 test	 dl, dl
  000fe	0f 84 3b 01 00
	00		 je	 $LN83@LoadString
  00104	32 d1		 xor	 dl, cl
  00106	88 55 e9	 mov	 BYTE PTR __k$[ebp+13], dl
  00109	8a 50 0e	 mov	 dl, BYTE PTR [eax+14]
  0010c	84 d2		 test	 dl, dl
  0010e	0f 84 26 01 00
	00		 je	 $LN82@LoadString
  00114	32 d3		 xor	 dl, bl
  00116	88 55 ea	 mov	 BYTE PTR __k$[ebp+14], dl
  00119	8a 50 0f	 mov	 dl, BYTE PTR [eax+15]
  0011c	84 d2		 test	 dl, dl
  0011e	0f 84 10 01 00
	00		 je	 $LN81@LoadString
  00124	80 f2 ea	 xor	 dl, -22			; ffffffeaH
  00127	88 55 eb	 mov	 BYTE PTR __k$[ebp+15], dl
  0012a	8a 50 10	 mov	 dl, BYTE PTR [eax+16]
  0012d	84 d2		 test	 dl, dl
  0012f	0f 84 f9 00 00
	00		 je	 $LN80@LoadString
  00135	80 f2 ed	 xor	 dl, -19			; ffffffedH
  00138	88 55 ec	 mov	 BYTE PTR __k$[ebp+16], dl
  0013b	8a 50 11	 mov	 dl, BYTE PTR [eax+17]
  0013e	84 d2		 test	 dl, dl
  00140	0f 84 e3 00 00
	00		 je	 $LN79@LoadString
  00146	32 d1		 xor	 dl, cl
  00148	88 55 ed	 mov	 BYTE PTR __k$[ebp+17], dl
  0014b	8a 50 12	 mov	 dl, BYTE PTR [eax+18]
  0014e	84 d2		 test	 dl, dl
  00150	0f 84 ce 00 00
	00		 je	 $LN78@LoadString
  00156	32 d3		 xor	 dl, bl
  00158	88 55 ee	 mov	 BYTE PTR __k$[ebp+18], dl
  0015b	8a 50 13	 mov	 dl, BYTE PTR [eax+19]
  0015e	84 d2		 test	 dl, dl
  00160	0f 84 b8 00 00
	00		 je	 $LN77@LoadString
  00166	80 f2 ea	 xor	 dl, -22			; ffffffeaH
  00169	88 55 ef	 mov	 BYTE PTR __k$[ebp+19], dl
  0016c	8a 50 14	 mov	 dl, BYTE PTR [eax+20]
  0016f	84 d2		 test	 dl, dl
  00171	0f 84 a1 00 00
	00		 je	 $LN76@LoadString
  00177	80 f2 ed	 xor	 dl, -19			; ffffffedH
  0017a	88 55 f0	 mov	 BYTE PTR __k$[ebp+20], dl
  0017d	8a 50 15	 mov	 dl, BYTE PTR [eax+21]
  00180	84 d2		 test	 dl, dl
  00182	0f 84 8b 00 00
	00		 je	 $LN75@LoadString
  00188	32 d1		 xor	 dl, cl
  0018a	88 55 f1	 mov	 BYTE PTR __k$[ebp+21], dl
  0018d	8a 50 16	 mov	 dl, BYTE PTR [eax+22]
  00190	84 d2		 test	 dl, dl
  00192	74 7a		 je	 SHORT $LN74@LoadString
  00194	32 d3		 xor	 dl, bl
  00196	88 55 f2	 mov	 BYTE PTR __k$[ebp+22], dl
  00199	8a 50 17	 mov	 dl, BYTE PTR [eax+23]
  0019c	84 d2		 test	 dl, dl
  0019e	74 68		 je	 SHORT $LN73@LoadString
  001a0	80 f2 ea	 xor	 dl, -22			; ffffffeaH
  001a3	80 78 18 00	 cmp	 BYTE PTR [eax+24], 0
  001a7	88 55 f3	 mov	 BYTE PTR __k$[ebp+23], dl
  001aa	0f 84 dc 00 00
	00		 je	 $LN111@LoadString
  001b0	8a 50 19	 mov	 dl, BYTE PTR [eax+25]
  001b3	84 d2		 test	 dl, dl
  001b5	74 49		 je	 SHORT $LN71@LoadString
  001b7	32 d1		 xor	 dl, cl
  001b9	88 55 f5	 mov	 BYTE PTR __k$[ebp+25], dl
  001bc	8a 50 1a	 mov	 dl, BYTE PTR [eax+26]
  001bf	84 d2		 test	 dl, dl
  001c1	74 35		 je	 SHORT $LN70@LoadString
  001c3	32 d3		 xor	 dl, bl
  001c5	88 55 f6	 mov	 BYTE PTR __k$[ebp+26], dl
  001c8	8a 50 1b	 mov	 dl, BYTE PTR [eax+27]
  001cb	84 d2		 test	 dl, dl
  001cd	74 20		 je	 SHORT $LN69@LoadString
  001cf	8a 40 1c	 mov	 al, BYTE PTR [eax+28]
  001d2	80 f2 ea	 xor	 dl, -22			; ffffffeaH
  001d5	88 55 f7	 mov	 BYTE PTR __k$[ebp+27], dl
  001d8	84 c0		 test	 al, al
  001da	74 0a		 je	 SHORT $LN68@LoadString
  001dc	34 ed		 xor	 al, -19			; ffffffedH
  001de	88 45 f8	 mov	 BYTE PTR __k$[ebp+28], al
  001e1	e9 a6 00 00 00	 jmp	 $LN111@LoadString
$LN68@LoadString:
  001e6	c6 45 f8 ed	 mov	 BYTE PTR __k$[ebp+28], -19 ; ffffffedH
  001ea	e9 9d 00 00 00	 jmp	 $LN111@LoadString
$LN69@LoadString:
  001ef	c6 45 f7 ea	 mov	 BYTE PTR __k$[ebp+27], -22 ; ffffffeaH
  001f3	e9 94 00 00 00	 jmp	 $LN111@LoadString
$LN70@LoadString:
  001f8	88 5d f6	 mov	 BYTE PTR __k$[ebp+26], bl
  001fb	e9 8c 00 00 00	 jmp	 $LN111@LoadString
$LN71@LoadString:
  00200	88 4d f5	 mov	 BYTE PTR __k$[ebp+25], cl
  00203	e9 84 00 00 00	 jmp	 $LN111@LoadString
$LN73@LoadString:
  00208	c6 45 f3 ea	 mov	 BYTE PTR __k$[ebp+23], -22 ; ffffffeaH
  0020c	eb 7e		 jmp	 SHORT $LN111@LoadString
$LN74@LoadString:
  0020e	88 5d f2	 mov	 BYTE PTR __k$[ebp+22], bl
  00211	eb 79		 jmp	 SHORT $LN111@LoadString
$LN75@LoadString:
  00213	88 4d f1	 mov	 BYTE PTR __k$[ebp+21], cl
  00216	eb 74		 jmp	 SHORT $LN111@LoadString
$LN76@LoadString:
  00218	c6 45 f0 ed	 mov	 BYTE PTR __k$[ebp+20], -19 ; ffffffedH
  0021c	eb 6e		 jmp	 SHORT $LN111@LoadString
$LN77@LoadString:
  0021e	c6 45 ef ea	 mov	 BYTE PTR __k$[ebp+19], -22 ; ffffffeaH
  00222	eb 68		 jmp	 SHORT $LN111@LoadString
$LN78@LoadString:
  00224	88 5d ee	 mov	 BYTE PTR __k$[ebp+18], bl
  00227	eb 63		 jmp	 SHORT $LN111@LoadString
$LN79@LoadString:
  00229	88 4d ed	 mov	 BYTE PTR __k$[ebp+17], cl
  0022c	eb 5e		 jmp	 SHORT $LN111@LoadString
$LN80@LoadString:
  0022e	c6 45 ec ed	 mov	 BYTE PTR __k$[ebp+16], -19 ; ffffffedH
  00232	eb 58		 jmp	 SHORT $LN111@LoadString
$LN81@LoadString:
  00234	c6 45 eb ea	 mov	 BYTE PTR __k$[ebp+15], -22 ; ffffffeaH
  00238	eb 52		 jmp	 SHORT $LN111@LoadString
$LN82@LoadString:
  0023a	88 5d ea	 mov	 BYTE PTR __k$[ebp+14], bl
  0023d	eb 4d		 jmp	 SHORT $LN111@LoadString
$LN83@LoadString:
  0023f	88 4d e9	 mov	 BYTE PTR __k$[ebp+13], cl
  00242	eb 48		 jmp	 SHORT $LN111@LoadString
$LN84@LoadString:
  00244	c6 45 e8 ed	 mov	 BYTE PTR __k$[ebp+12], -19 ; ffffffedH
  00248	eb 42		 jmp	 SHORT $LN111@LoadString
$LN85@LoadString:
  0024a	c6 45 e7 ea	 mov	 BYTE PTR __k$[ebp+11], -22 ; ffffffeaH
  0024e	eb 3c		 jmp	 SHORT $LN111@LoadString
$LN86@LoadString:
  00250	88 5d e6	 mov	 BYTE PTR __k$[ebp+10], bl
  00253	eb 37		 jmp	 SHORT $LN111@LoadString
$LN87@LoadString:
  00255	88 4d e5	 mov	 BYTE PTR __k$[ebp+9], cl
  00258	eb 32		 jmp	 SHORT $LN111@LoadString
$LN88@LoadString:
  0025a	c6 45 e4 ed	 mov	 BYTE PTR __k$[ebp+8], -19 ; ffffffedH
  0025e	eb 2c		 jmp	 SHORT $LN111@LoadString
$LN89@LoadString:
  00260	c6 45 e3 ea	 mov	 BYTE PTR __k$[ebp+7], -22 ; ffffffeaH
  00264	eb 26		 jmp	 SHORT $LN111@LoadString
$LN90@LoadString:
  00266	88 5d e2	 mov	 BYTE PTR __k$[ebp+6], bl
  00269	eb 21		 jmp	 SHORT $LN111@LoadString
$LN91@LoadString:
  0026b	88 4d e1	 mov	 BYTE PTR __k$[ebp+5], cl
  0026e	eb 1c		 jmp	 SHORT $LN111@LoadString
$LN92@LoadString:
  00270	c6 45 e0 ed	 mov	 BYTE PTR __k$[ebp+4], -19 ; ffffffedH
  00274	eb 16		 jmp	 SHORT $LN111@LoadString
$LN93@LoadString:
  00276	c6 45 df ea	 mov	 BYTE PTR __k$[ebp+3], -22 ; ffffffeaH
  0027a	eb 10		 jmp	 SHORT $LN111@LoadString
$LN94@LoadString:
  0027c	c6 45 de eb	 mov	 BYTE PTR __k$[ebp+2], -21 ; ffffffebH
  00280	eb 0a		 jmp	 SHORT $LN111@LoadString
$LN95@LoadString:
  00282	c6 45 dd ec	 mov	 BYTE PTR __k$[ebp+1], -20 ; ffffffecH
  00286	eb 04		 jmp	 SHORT $LN111@LoadString
$LN96@LoadString:
  00288	c6 45 dc ed	 mov	 BYTE PTR __k$[ebp], -19	; ffffffedH
$LN111@LoadString:
  0028c	6a 06		 push	 6
  0028e	8d 45 dc	 lea	 eax, DWORD PTR __k$[ebp]
  00291	c6 45 f4 00	 mov	 BYTE PTR __k$[ebp+24], 0
  00295	5a		 pop	 edx
$LL104@LoadString:
  00296	81 30 ed ec eb
	ea		 xor	 DWORD PTR [eax], -353637139 ; eaebecedH
  0029c	83 c0 04	 add	 eax, 4
  0029f	4a		 dec	 edx
  002a0	75 f4		 jne	 SHORT $LL104@LoadString

; 163  : 		LoadString(_k, d, b, i);

  002a2	ff 75 14	 push	 DWORD PTR _i$[ebp]
  002a5	8b 4d d8	 mov	 ecx, DWORD PTR _this$GSCopy$[ebp]
  002a8	57		 push	 edi
  002a9	56		 push	 esi
  002aa	8d 45 dc	 lea	 eax, DWORD PTR __k$[ebp]
  002ad	50		 push	 eax
  002ae	ff 15 00 00 00
	00		 call	 DWORD PTR __imp_?LoadStringA@ioINILoader@@QAEXPBD0PADH@Z

; 164  : 	}

  002b4	8b 4d fc	 mov	 ecx, DWORD PTR __$ArrayPad$[ebp]
  002b7	5f		 pop	 edi
  002b8	5e		 pop	 esi
  002b9	33 cd		 xor	 ecx, ebp
  002bb	5b		 pop	 ebx
  002bc	e8 00 00 00 00	 call	 @__security_check_cookie@4
  002c1	c9		 leave
  002c2	c2 10 00	 ret	 16			; 00000010H
??$LoadString_e@$0BJ@@ioINILoader@@QAEXAAY0BJ@$$CBDAAY00$$CBDPADH@Z ENDP ; ioINILoader::LoadString_e<25>
_TEXT	ENDS
PUBLIC	_this$GSCopy$
PUBLIC	__$ArrayPad$
PUBLIC	??$LoadString_e@$0BG@@ioINILoader@@QAEXAAY0BG@$$CBDAAY00$$CBDPADH@Z ; ioINILoader::LoadString_e<22>
; Function compile flags: /Ogsp
;	COMDAT ??$LoadString_e@$0BG@@ioINILoader@@QAEXAAY0BG@$$CBDAAY00$$CBDPADH@Z
_TEXT	SEGMENT
_this$GSCopy$ = -36					; size = 4
__k$ = -32						; size = 22
__$ArrayPad$ = -4					; size = 4
_k$ = 8							; size = 4
_d$ = 12						; size = 4
_b$ = 16						; size = 4
_i$ = 20						; size = 4
??$LoadString_e@$0BG@@ioINILoader@@QAEXAAY0BG@$$CBDAAY00$$CBDPADH@Z PROC ; ioINILoader::LoadString_e<22>, COMDAT
; _this$ = ecx

; 161  : 	{

  00000	55		 push	 ebp
  00001	8b ec		 mov	 ebp, esp
  00003	83 ec 24	 sub	 esp, 36			; 00000024H
  00006	a1 00 00 00 00	 mov	 eax, DWORD PTR ___security_cookie
  0000b	33 c5		 xor	 eax, ebp
  0000d	89 45 fc	 mov	 DWORD PTR __$ArrayPad$[ebp], eax
  00010	8b 45 08	 mov	 eax, DWORD PTR _k$[ebp]

; 162  : 		_ENCSTR(k, _k);

  00013	8a 10		 mov	 dl, BYTE PTR [eax]
  00015	53		 push	 ebx
  00016	56		 push	 esi
  00017	8b 75 0c	 mov	 esi, DWORD PTR _d$[ebp]
  0001a	57		 push	 edi
  0001b	8b 7d 10	 mov	 edi, DWORD PTR _b$[ebp]
  0001e	89 4d dc	 mov	 DWORD PTR _this$GSCopy$[ebp], ecx
  00021	84 d2		 test	 dl, dl
  00023	0f 84 15 02 00
	00		 je	 $LN96@LoadString@2
  00029	80 f2 ed	 xor	 dl, -19			; ffffffedH
  0002c	88 55 e0	 mov	 BYTE PTR __k$[ebp], dl
  0002f	8a 50 01	 mov	 dl, BYTE PTR [eax+1]
  00032	84 d2		 test	 dl, dl
  00034	0f 84 fe 01 00
	00		 je	 $LN95@LoadString@2
  0003a	80 f2 ec	 xor	 dl, -20			; ffffffecH
  0003d	88 55 e1	 mov	 BYTE PTR __k$[ebp+1], dl
  00040	8a 50 02	 mov	 dl, BYTE PTR [eax+2]
  00043	84 d2		 test	 dl, dl
  00045	0f 84 e7 01 00
	00		 je	 $LN94@LoadString@2
  0004b	b1 eb		 mov	 cl, -21			; ffffffebH
  0004d	32 d1		 xor	 dl, cl
  0004f	88 55 e2	 mov	 BYTE PTR __k$[ebp+2], dl
  00052	8a 50 03	 mov	 dl, BYTE PTR [eax+3]
  00055	84 d2		 test	 dl, dl
  00057	0f 84 cf 01 00
	00		 je	 $LN93@LoadString@2
  0005d	b3 ea		 mov	 bl, -22			; ffffffeaH
  0005f	32 d3		 xor	 dl, bl
  00061	88 55 e3	 mov	 BYTE PTR __k$[ebp+3], dl
  00064	8a 50 04	 mov	 dl, BYTE PTR [eax+4]
  00067	84 d2		 test	 dl, dl
  00069	0f 84 b7 01 00
	00		 je	 $LN92@LoadString@2
  0006f	80 f2 ed	 xor	 dl, -19			; ffffffedH
  00072	88 55 e4	 mov	 BYTE PTR __k$[ebp+4], dl
  00075	8a 50 05	 mov	 dl, BYTE PTR [eax+5]
  00078	84 d2		 test	 dl, dl
  0007a	0f 84 a0 01 00
	00		 je	 $LN91@LoadString@2
  00080	80 f2 ec	 xor	 dl, -20			; ffffffecH
  00083	88 55 e5	 mov	 BYTE PTR __k$[ebp+5], dl
  00086	8a 50 06	 mov	 dl, BYTE PTR [eax+6]
  00089	84 d2		 test	 dl, dl
  0008b	0f 84 8a 01 00
	00		 je	 $LN90@LoadString@2
  00091	32 d1		 xor	 dl, cl
  00093	88 55 e6	 mov	 BYTE PTR __k$[ebp+6], dl
  00096	8a 50 07	 mov	 dl, BYTE PTR [eax+7]
  00099	84 d2		 test	 dl, dl
  0009b	0f 84 75 01 00
	00		 je	 $LN89@LoadString@2
  000a1	32 d3		 xor	 dl, bl
  000a3	88 55 e7	 mov	 BYTE PTR __k$[ebp+7], dl
  000a6	8a 50 08	 mov	 dl, BYTE PTR [eax+8]
  000a9	84 d2		 test	 dl, dl
  000ab	0f 84 5f 01 00
	00		 je	 $LN88@LoadString@2
  000b1	80 f2 ed	 xor	 dl, -19			; ffffffedH
  000b4	88 55 e8	 mov	 BYTE PTR __k$[ebp+8], dl
  000b7	8a 50 09	 mov	 dl, BYTE PTR [eax+9]
  000ba	84 d2		 test	 dl, dl
  000bc	0f 84 48 01 00
	00		 je	 $LN87@LoadString@2
  000c2	80 f2 ec	 xor	 dl, -20			; ffffffecH
  000c5	88 55 e9	 mov	 BYTE PTR __k$[ebp+9], dl
  000c8	8a 50 0a	 mov	 dl, BYTE PTR [eax+10]
  000cb	84 d2		 test	 dl, dl
  000cd	0f 84 32 01 00
	00		 je	 $LN86@LoadString@2
  000d3	32 d1		 xor	 dl, cl
  000d5	88 55 ea	 mov	 BYTE PTR __k$[ebp+10], dl
  000d8	8a 50 0b	 mov	 dl, BYTE PTR [eax+11]
  000db	84 d2		 test	 dl, dl
  000dd	0f 84 1d 01 00
	00		 je	 $LN85@LoadString@2
  000e3	32 d3		 xor	 dl, bl
  000e5	88 55 eb	 mov	 BYTE PTR __k$[ebp+11], dl
  000e8	8a 50 0c	 mov	 dl, BYTE PTR [eax+12]
  000eb	84 d2		 test	 dl, dl
  000ed	0f 84 07 01 00
	00		 je	 $LN84@LoadString@2
  000f3	80 f2 ed	 xor	 dl, -19			; ffffffedH
  000f6	88 55 ec	 mov	 BYTE PTR __k$[ebp+12], dl
  000f9	8a 50 0d	 mov	 dl, BYTE PTR [eax+13]
  000fc	84 d2		 test	 dl, dl
  000fe	0f 84 f0 00 00
	00		 je	 $LN83@LoadString@2
  00104	80 f2 ec	 xor	 dl, -20			; ffffffecH
  00107	88 55 ed	 mov	 BYTE PTR __k$[ebp+13], dl
  0010a	8a 50 0e	 mov	 dl, BYTE PTR [eax+14]
  0010d	84 d2		 test	 dl, dl
  0010f	0f 84 da 00 00
	00		 je	 $LN82@LoadString@2
  00115	32 d1		 xor	 dl, cl
  00117	88 55 ee	 mov	 BYTE PTR __k$[ebp+14], dl
  0011a	8a 50 0f	 mov	 dl, BYTE PTR [eax+15]
  0011d	84 d2		 test	 dl, dl
  0011f	0f 84 c5 00 00
	00		 je	 $LN81@LoadString@2
  00125	32 d3		 xor	 dl, bl
  00127	88 55 ef	 mov	 BYTE PTR __k$[ebp+15], dl
  0012a	8a 50 10	 mov	 dl, BYTE PTR [eax+16]
  0012d	84 d2		 test	 dl, dl
  0012f	0f 84 af 00 00
	00		 je	 $LN80@LoadString@2
  00135	80 f2 ed	 xor	 dl, -19			; ffffffedH
  00138	88 55 f0	 mov	 BYTE PTR __k$[ebp+16], dl
  0013b	8a 50 11	 mov	 dl, BYTE PTR [eax+17]
  0013e	84 d2		 test	 dl, dl
  00140	0f 84 98 00 00
	00		 je	 $LN79@LoadString@2
  00146	80 f2 ec	 xor	 dl, -20			; ffffffecH
  00149	88 55 f1	 mov	 BYTE PTR __k$[ebp+17], dl
  0014c	8a 50 12	 mov	 dl, BYTE PTR [eax+18]
  0014f	84 d2		 test	 dl, dl
  00151	0f 84 82 00 00
	00		 je	 $LN78@LoadString@2
  00157	32 d1		 xor	 dl, cl
  00159	88 55 f2	 mov	 BYTE PTR __k$[ebp+18], dl
  0015c	8a 50 13	 mov	 dl, BYTE PTR [eax+19]
  0015f	84 d2		 test	 dl, dl
  00161	74 71		 je	 SHORT $LN77@LoadString@2
  00163	32 d3		 xor	 dl, bl
  00165	88 55 f3	 mov	 BYTE PTR __k$[ebp+19], dl
  00168	8a 50 14	 mov	 dl, BYTE PTR [eax+20]
  0016b	84 d2		 test	 dl, dl
  0016d	74 5f		 je	 SHORT $LN76@LoadString@2
  0016f	80 f2 ed	 xor	 dl, -19			; ffffffedH
  00172	80 78 15 00	 cmp	 BYTE PTR [eax+21], 0
  00176	88 55 f4	 mov	 BYTE PTR __k$[ebp+20], dl
  00179	0f 84 c3 00 00
	00		 je	 $LN111@LoadString@2
  0017f	8a 50 16	 mov	 dl, BYTE PTR [eax+22]
  00182	84 d2		 test	 dl, dl
  00184	74 43		 je	 SHORT $LN74@LoadString@2
  00186	32 d1		 xor	 dl, cl
  00188	88 55 f6	 mov	 BYTE PTR __k$[ebp+22], dl
  0018b	8a 50 17	 mov	 dl, BYTE PTR [eax+23]
  0018e	84 d2		 test	 dl, dl
  00190	74 32		 je	 SHORT $LN73@LoadString@2
  00192	32 d3		 xor	 dl, bl
  00194	88 55 f7	 mov	 BYTE PTR __k$[ebp+23], dl
  00197	8a 50 18	 mov	 dl, BYTE PTR [eax+24]
  0019a	84 d2		 test	 dl, dl
  0019c	74 20		 je	 SHORT $LN72@LoadString@2
  0019e	8a 40 19	 mov	 al, BYTE PTR [eax+25]
  001a1	80 f2 ed	 xor	 dl, -19			; ffffffedH
  001a4	88 55 f8	 mov	 BYTE PTR __k$[ebp+24], dl
  001a7	84 c0		 test	 al, al
  001a9	74 0a		 je	 SHORT $LN71@LoadString@2
  001ab	34 ec		 xor	 al, -20			; ffffffecH
  001ad	88 45 f9	 mov	 BYTE PTR __k$[ebp+25], al
  001b0	e9 8d 00 00 00	 jmp	 $LN111@LoadString@2
$LN71@LoadString@2:
  001b5	c6 45 f9 ec	 mov	 BYTE PTR __k$[ebp+25], -20 ; ffffffecH
  001b9	e9 84 00 00 00	 jmp	 $LN111@LoadString@2
$LN72@LoadString@2:
  001be	c6 45 f8 ed	 mov	 BYTE PTR __k$[ebp+24], -19 ; ffffffedH
  001c2	eb 7e		 jmp	 SHORT $LN111@LoadString@2
$LN73@LoadString@2:
  001c4	88 5d f7	 mov	 BYTE PTR __k$[ebp+23], bl
  001c7	eb 79		 jmp	 SHORT $LN111@LoadString@2
$LN74@LoadString@2:
  001c9	88 4d f6	 mov	 BYTE PTR __k$[ebp+22], cl
  001cc	eb 74		 jmp	 SHORT $LN111@LoadString@2
$LN76@LoadString@2:
  001ce	c6 45 f4 ed	 mov	 BYTE PTR __k$[ebp+20], -19 ; ffffffedH
  001d2	eb 6e		 jmp	 SHORT $LN111@LoadString@2
$LN77@LoadString@2:
  001d4	88 5d f3	 mov	 BYTE PTR __k$[ebp+19], bl
  001d7	eb 69		 jmp	 SHORT $LN111@LoadString@2
$LN78@LoadString@2:
  001d9	88 4d f2	 mov	 BYTE PTR __k$[ebp+18], cl
  001dc	eb 64		 jmp	 SHORT $LN111@LoadString@2
$LN79@LoadString@2:
  001de	c6 45 f1 ec	 mov	 BYTE PTR __k$[ebp+17], -20 ; ffffffecH
  001e2	eb 5e		 jmp	 SHORT $LN111@LoadString@2
$LN80@LoadString@2:
  001e4	c6 45 f0 ed	 mov	 BYTE PTR __k$[ebp+16], -19 ; ffffffedH
  001e8	eb 58		 jmp	 SHORT $LN111@LoadString@2
$LN81@LoadString@2:
  001ea	88 5d ef	 mov	 BYTE PTR __k$[ebp+15], bl
  001ed	eb 53		 jmp	 SHORT $LN111@LoadString@2
$LN82@LoadString@2:
  001ef	88 4d ee	 mov	 BYTE PTR __k$[ebp+14], cl
  001f2	eb 4e		 jmp	 SHORT $LN111@LoadString@2
$LN83@LoadString@2:
  001f4	c6 45 ed ec	 mov	 BYTE PTR __k$[ebp+13], -20 ; ffffffecH
  001f8	eb 48		 jmp	 SHORT $LN111@LoadString@2
$LN84@LoadString@2:
  001fa	c6 45 ec ed	 mov	 BYTE PTR __k$[ebp+12], -19 ; ffffffedH
  001fe	eb 42		 jmp	 SHORT $LN111@LoadString@2
$LN85@LoadString@2:
  00200	88 5d eb	 mov	 BYTE PTR __k$[ebp+11], bl
  00203	eb 3d		 jmp	 SHORT $LN111@LoadString@2
$LN86@LoadString@2:
  00205	88 4d ea	 mov	 BYTE PTR __k$[ebp+10], cl
  00208	eb 38		 jmp	 SHORT $LN111@LoadString@2
$LN87@LoadString@2:
  0020a	c6 45 e9 ec	 mov	 BYTE PTR __k$[ebp+9], -20 ; ffffffecH
  0020e	eb 32		 jmp	 SHORT $LN111@LoadString@2
$LN88@LoadString@2:
  00210	c6 45 e8 ed	 mov	 BYTE PTR __k$[ebp+8], -19 ; ffffffedH
  00214	eb 2c		 jmp	 SHORT $LN111@LoadString@2
$LN89@LoadString@2:
  00216	88 5d e7	 mov	 BYTE PTR __k$[ebp+7], bl
  00219	eb 27		 jmp	 SHORT $LN111@LoadString@2
$LN90@LoadString@2:
  0021b	88 4d e6	 mov	 BYTE PTR __k$[ebp+6], cl
  0021e	eb 22		 jmp	 SHORT $LN111@LoadString@2
$LN91@LoadString@2:
  00220	c6 45 e5 ec	 mov	 BYTE PTR __k$[ebp+5], -20 ; ffffffecH
  00224	eb 1c		 jmp	 SHORT $LN111@LoadString@2
$LN92@LoadString@2:
  00226	c6 45 e4 ed	 mov	 BYTE PTR __k$[ebp+4], -19 ; ffffffedH
  0022a	eb 16		 jmp	 SHORT $LN111@LoadString@2
$LN93@LoadString@2:
  0022c	c6 45 e3 ea	 mov	 BYTE PTR __k$[ebp+3], -22 ; ffffffeaH
  00230	eb 10		 jmp	 SHORT $LN111@LoadString@2
$LN94@LoadString@2:
  00232	c6 45 e2 eb	 mov	 BYTE PTR __k$[ebp+2], -21 ; ffffffebH
  00236	eb 0a		 jmp	 SHORT $LN111@LoadString@2
$LN95@LoadString@2:
  00238	c6 45 e1 ec	 mov	 BYTE PTR __k$[ebp+1], -20 ; ffffffecH
  0023c	eb 04		 jmp	 SHORT $LN111@LoadString@2
$LN96@LoadString@2:
  0023e	c6 45 e0 ed	 mov	 BYTE PTR __k$[ebp], -19	; ffffffedH
$LN111@LoadString@2:
  00242	6a 05		 push	 5
  00244	8d 45 e0	 lea	 eax, DWORD PTR __k$[ebp]
  00247	c6 45 f5 00	 mov	 BYTE PTR __k$[ebp+21], 0
  0024b	5a		 pop	 edx
$LL104@LoadString@2:
  0024c	81 30 ed ec eb
	ea		 xor	 DWORD PTR [eax], -353637139 ; eaebecedH
  00252	83 c0 04	 add	 eax, 4
  00255	4a		 dec	 edx
  00256	75 f4		 jne	 SHORT $LL104@LoadString@2

; 163  : 		LoadString(_k, d, b, i);

  00258	ff 75 14	 push	 DWORD PTR _i$[ebp]
  0025b	8b 4d dc	 mov	 ecx, DWORD PTR _this$GSCopy$[ebp]
  0025e	80 75 f4 ed	 xor	 BYTE PTR __k$[ebp+20], -19 ; ffffffedH
  00262	57		 push	 edi
  00263	56		 push	 esi
  00264	8d 45 e0	 lea	 eax, DWORD PTR __k$[ebp]
  00267	50		 push	 eax
  00268	ff 15 00 00 00
	00		 call	 DWORD PTR __imp_?LoadStringA@ioINILoader@@QAEXPBD0PADH@Z

; 164  : 	}

  0026e	8b 4d fc	 mov	 ecx, DWORD PTR __$ArrayPad$[ebp]
  00271	5f		 pop	 edi
  00272	5e		 pop	 esi
  00273	33 cd		 xor	 ecx, ebp
  00275	5b		 pop	 ebx
  00276	e8 00 00 00 00	 call	 @__security_check_cookie@4
  0027b	c9		 leave
  0027c	c2 10 00	 ret	 16			; 00000010H
??$LoadString_e@$0BG@@ioINILoader@@QAEXAAY0BG@$$CBDAAY00$$CBDPADH@Z ENDP ; ioINILoader::LoadString_e<22>
_TEXT	ENDS
PUBLIC	__$ArrayPad$
PUBLIC	??$LoadInt_e@$0BC@@ioINILoader@@QAEHAAY0BC@$$CBDH@Z ; ioINILoader::LoadInt_e<18>
; Function compile flags: /Ogsp
;	COMDAT ??$LoadInt_e@$0BC@@ioINILoader@@QAEHAAY0BC@$$CBDH@Z
_TEXT	SEGMENT
__k$ = -28						; size = 18
__$ArrayPad$ = -4					; size = 4
_k$ = 8							; size = 4
_i$ = 12						; size = 4
??$LoadInt_e@$0BC@@ioINILoader@@QAEHAAY0BC@$$CBDH@Z PROC ; ioINILoader::LoadInt_e<18>, COMDAT
; _this$ = ecx

; 118  : 	{

  00000	55		 push	 ebp
  00001	8b ec		 mov	 ebp, esp
  00003	83 ec 1c	 sub	 esp, 28			; 0000001cH
  00006	a1 00 00 00 00	 mov	 eax, DWORD PTR ___security_cookie
  0000b	33 c5		 xor	 eax, ebp
  0000d	89 45 fc	 mov	 DWORD PTR __$ArrayPad$[ebp], eax
  00010	8b 45 08	 mov	 eax, DWORD PTR _k$[ebp]

; 119  : 		_ENCSTR(k, _k);

  00013	8a 10		 mov	 dl, BYTE PTR [eax]
  00015	56		 push	 esi
  00016	8b f1		 mov	 esi, ecx
  00018	84 d2		 test	 dl, dl
  0001a	0f 84 be 01 00
	00		 je	 $LN96@LoadInt_e@2
  00020	80 f2 ed	 xor	 dl, -19			; ffffffedH
  00023	88 55 e4	 mov	 BYTE PTR __k$[ebp], dl
  00026	8a 50 01	 mov	 dl, BYTE PTR [eax+1]
  00029	84 d2		 test	 dl, dl
  0002b	0f 84 a7 01 00
	00		 je	 $LN95@LoadInt_e@2
  00031	80 f2 ec	 xor	 dl, -20			; ffffffecH
  00034	88 55 e5	 mov	 BYTE PTR __k$[ebp+1], dl
  00037	8a 50 02	 mov	 dl, BYTE PTR [eax+2]
  0003a	84 d2		 test	 dl, dl
  0003c	0f 84 90 01 00
	00		 je	 $LN94@LoadInt_e@2
  00042	b1 eb		 mov	 cl, -21			; ffffffebH
  00044	32 d1		 xor	 dl, cl
  00046	88 55 e6	 mov	 BYTE PTR __k$[ebp+2], dl
  00049	8a 50 03	 mov	 dl, BYTE PTR [eax+3]
  0004c	84 d2		 test	 dl, dl
  0004e	0f 84 78 01 00
	00		 je	 $LN93@LoadInt_e@2
  00054	80 f2 ea	 xor	 dl, -22			; ffffffeaH
  00057	88 55 e7	 mov	 BYTE PTR __k$[ebp+3], dl
  0005a	8a 50 04	 mov	 dl, BYTE PTR [eax+4]
  0005d	84 d2		 test	 dl, dl
  0005f	0f 84 61 01 00
	00		 je	 $LN92@LoadInt_e@2
  00065	80 f2 ed	 xor	 dl, -19			; ffffffedH
  00068	88 55 e8	 mov	 BYTE PTR __k$[ebp+4], dl
  0006b	8a 50 05	 mov	 dl, BYTE PTR [eax+5]
  0006e	84 d2		 test	 dl, dl
  00070	0f 84 4a 01 00
	00		 je	 $LN91@LoadInt_e@2
  00076	80 f2 ec	 xor	 dl, -20			; ffffffecH
  00079	88 55 e9	 mov	 BYTE PTR __k$[ebp+5], dl
  0007c	8a 50 06	 mov	 dl, BYTE PTR [eax+6]
  0007f	84 d2		 test	 dl, dl
  00081	0f 84 34 01 00
	00		 je	 $LN90@LoadInt_e@2
  00087	32 d1		 xor	 dl, cl
  00089	88 55 ea	 mov	 BYTE PTR __k$[ebp+6], dl
  0008c	8a 50 07	 mov	 dl, BYTE PTR [eax+7]
  0008f	84 d2		 test	 dl, dl
  00091	0f 84 1e 01 00
	00		 je	 $LN89@LoadInt_e@2
  00097	80 f2 ea	 xor	 dl, -22			; ffffffeaH
  0009a	88 55 eb	 mov	 BYTE PTR __k$[ebp+7], dl
  0009d	8a 50 08	 mov	 dl, BYTE PTR [eax+8]
  000a0	84 d2		 test	 dl, dl
  000a2	0f 84 07 01 00
	00		 je	 $LN88@LoadInt_e@2
  000a8	80 f2 ed	 xor	 dl, -19			; ffffffedH
  000ab	88 55 ec	 mov	 BYTE PTR __k$[ebp+8], dl
  000ae	8a 50 09	 mov	 dl, BYTE PTR [eax+9]
  000b1	84 d2		 test	 dl, dl
  000b3	0f 84 f0 00 00
	00		 je	 $LN87@LoadInt_e@2
  000b9	80 f2 ec	 xor	 dl, -20			; ffffffecH
  000bc	88 55 ed	 mov	 BYTE PTR __k$[ebp+9], dl
  000bf	8a 50 0a	 mov	 dl, BYTE PTR [eax+10]
  000c2	84 d2		 test	 dl, dl
  000c4	0f 84 da 00 00
	00		 je	 $LN86@LoadInt_e@2
  000ca	32 d1		 xor	 dl, cl
  000cc	88 55 ee	 mov	 BYTE PTR __k$[ebp+10], dl
  000cf	8a 50 0b	 mov	 dl, BYTE PTR [eax+11]
  000d2	84 d2		 test	 dl, dl
  000d4	0f 84 c4 00 00
	00		 je	 $LN85@LoadInt_e@2
  000da	80 f2 ea	 xor	 dl, -22			; ffffffeaH
  000dd	88 55 ef	 mov	 BYTE PTR __k$[ebp+11], dl
  000e0	8a 50 0c	 mov	 dl, BYTE PTR [eax+12]
  000e3	84 d2		 test	 dl, dl
  000e5	0f 84 ad 00 00
	00		 je	 $LN84@LoadInt_e@2
  000eb	80 f2 ed	 xor	 dl, -19			; ffffffedH
  000ee	88 55 f0	 mov	 BYTE PTR __k$[ebp+12], dl
  000f1	8a 50 0d	 mov	 dl, BYTE PTR [eax+13]
  000f4	84 d2		 test	 dl, dl
  000f6	0f 84 96 00 00
	00		 je	 $LN83@LoadInt_e@2
  000fc	80 f2 ec	 xor	 dl, -20			; ffffffecH
  000ff	88 55 f1	 mov	 BYTE PTR __k$[ebp+13], dl
  00102	8a 50 0e	 mov	 dl, BYTE PTR [eax+14]
  00105	84 d2		 test	 dl, dl
  00107	0f 84 80 00 00
	00		 je	 $LN82@LoadInt_e@2
  0010d	32 d1		 xor	 dl, cl
  0010f	88 55 f2	 mov	 BYTE PTR __k$[ebp+14], dl
  00112	8a 50 0f	 mov	 dl, BYTE PTR [eax+15]
  00115	84 d2		 test	 dl, dl
  00117	74 6e		 je	 SHORT $LN81@LoadInt_e@2
  00119	80 f2 ea	 xor	 dl, -22			; ffffffeaH
  0011c	88 55 f3	 mov	 BYTE PTR __k$[ebp+15], dl
  0011f	8a 50 10	 mov	 dl, BYTE PTR [eax+16]
  00122	84 d2		 test	 dl, dl
  00124	74 5b		 je	 SHORT $LN80@LoadInt_e@2
  00126	80 f2 ed	 xor	 dl, -19			; ffffffedH
  00129	80 78 11 00	 cmp	 BYTE PTR [eax+17], 0
  0012d	88 55 f4	 mov	 BYTE PTR __k$[ebp+16], dl
  00130	0f 84 ac 00 00
	00		 je	 $LN1@LoadInt_e@2
  00136	8a 50 12	 mov	 dl, BYTE PTR [eax+18]
  00139	84 d2		 test	 dl, dl
  0013b	74 3f		 je	 SHORT $LN78@LoadInt_e@2
  0013d	32 d1		 xor	 dl, cl
  0013f	88 55 f6	 mov	 BYTE PTR __k$[ebp+18], dl
  00142	8a 50 13	 mov	 dl, BYTE PTR [eax+19]
  00145	84 d2		 test	 dl, dl
  00147	74 2d		 je	 SHORT $LN77@LoadInt_e@2
  00149	80 f2 ea	 xor	 dl, -22			; ffffffeaH
  0014c	88 55 f7	 mov	 BYTE PTR __k$[ebp+19], dl
  0014f	8a 50 14	 mov	 dl, BYTE PTR [eax+20]
  00152	84 d2		 test	 dl, dl
  00154	74 1a		 je	 SHORT $LN76@LoadInt_e@2
  00156	8a 40 15	 mov	 al, BYTE PTR [eax+21]
  00159	80 f2 ed	 xor	 dl, -19			; ffffffedH
  0015c	88 55 f8	 mov	 BYTE PTR __k$[ebp+20], dl
  0015f	84 c0		 test	 al, al
  00161	74 07		 je	 SHORT $LN75@LoadInt_e@2
  00163	34 ec		 xor	 al, -20			; ffffffecH
  00165	88 45 f9	 mov	 BYTE PTR __k$[ebp+21], al
  00168	eb 78		 jmp	 SHORT $LN1@LoadInt_e@2
$LN75@LoadInt_e@2:
  0016a	c6 45 f9 ec	 mov	 BYTE PTR __k$[ebp+21], -20 ; ffffffecH
  0016e	eb 72		 jmp	 SHORT $LN1@LoadInt_e@2
$LN76@LoadInt_e@2:
  00170	c6 45 f8 ed	 mov	 BYTE PTR __k$[ebp+20], -19 ; ffffffedH
  00174	eb 6c		 jmp	 SHORT $LN1@LoadInt_e@2
$LN77@LoadInt_e@2:
  00176	c6 45 f7 ea	 mov	 BYTE PTR __k$[ebp+19], -22 ; ffffffeaH
  0017a	eb 66		 jmp	 SHORT $LN1@LoadInt_e@2
$LN78@LoadInt_e@2:
  0017c	88 4d f6	 mov	 BYTE PTR __k$[ebp+18], cl
  0017f	eb 61		 jmp	 SHORT $LN1@LoadInt_e@2
$LN80@LoadInt_e@2:
  00181	c6 45 f4 ed	 mov	 BYTE PTR __k$[ebp+16], -19 ; ffffffedH
  00185	eb 5b		 jmp	 SHORT $LN1@LoadInt_e@2
$LN81@LoadInt_e@2:
  00187	c6 45 f3 ea	 mov	 BYTE PTR __k$[ebp+15], -22 ; ffffffeaH
  0018b	eb 55		 jmp	 SHORT $LN1@LoadInt_e@2
$LN82@LoadInt_e@2:
  0018d	88 4d f2	 mov	 BYTE PTR __k$[ebp+14], cl
  00190	eb 50		 jmp	 SHORT $LN1@LoadInt_e@2
$LN83@LoadInt_e@2:
  00192	c6 45 f1 ec	 mov	 BYTE PTR __k$[ebp+13], -20 ; ffffffecH
  00196	eb 4a		 jmp	 SHORT $LN1@LoadInt_e@2
$LN84@LoadInt_e@2:
  00198	c6 45 f0 ed	 mov	 BYTE PTR __k$[ebp+12], -19 ; ffffffedH
  0019c	eb 44		 jmp	 SHORT $LN1@LoadInt_e@2
$LN85@LoadInt_e@2:
  0019e	c6 45 ef ea	 mov	 BYTE PTR __k$[ebp+11], -22 ; ffffffeaH
  001a2	eb 3e		 jmp	 SHORT $LN1@LoadInt_e@2
$LN86@LoadInt_e@2:
  001a4	88 4d ee	 mov	 BYTE PTR __k$[ebp+10], cl
  001a7	eb 39		 jmp	 SHORT $LN1@LoadInt_e@2
$LN87@LoadInt_e@2:
  001a9	c6 45 ed ec	 mov	 BYTE PTR __k$[ebp+9], -20 ; ffffffecH
  001ad	eb 33		 jmp	 SHORT $LN1@LoadInt_e@2
$LN88@LoadInt_e@2:
  001af	c6 45 ec ed	 mov	 BYTE PTR __k$[ebp+8], -19 ; ffffffedH
  001b3	eb 2d		 jmp	 SHORT $LN1@LoadInt_e@2
$LN89@LoadInt_e@2:
  001b5	c6 45 eb ea	 mov	 BYTE PTR __k$[ebp+7], -22 ; ffffffeaH
  001b9	eb 27		 jmp	 SHORT $LN1@LoadInt_e@2
$LN90@LoadInt_e@2:
  001bb	88 4d ea	 mov	 BYTE PTR __k$[ebp+6], cl
  001be	eb 22		 jmp	 SHORT $LN1@LoadInt_e@2
$LN91@LoadInt_e@2:
  001c0	c6 45 e9 ec	 mov	 BYTE PTR __k$[ebp+5], -20 ; ffffffecH
  001c4	eb 1c		 jmp	 SHORT $LN1@LoadInt_e@2
$LN92@LoadInt_e@2:
  001c6	c6 45 e8 ed	 mov	 BYTE PTR __k$[ebp+4], -19 ; ffffffedH
  001ca	eb 16		 jmp	 SHORT $LN1@LoadInt_e@2
$LN93@LoadInt_e@2:
  001cc	c6 45 e7 ea	 mov	 BYTE PTR __k$[ebp+3], -22 ; ffffffeaH
  001d0	eb 10		 jmp	 SHORT $LN1@LoadInt_e@2
$LN94@LoadInt_e@2:
  001d2	c6 45 e6 eb	 mov	 BYTE PTR __k$[ebp+2], -21 ; ffffffebH
  001d6	eb 0a		 jmp	 SHORT $LN1@LoadInt_e@2
$LN95@LoadInt_e@2:
  001d8	c6 45 e5 ec	 mov	 BYTE PTR __k$[ebp+1], -20 ; ffffffecH
  001dc	eb 04		 jmp	 SHORT $LN1@LoadInt_e@2
$LN96@LoadInt_e@2:
  001de	c6 45 e4 ed	 mov	 BYTE PTR __k$[ebp], -19	; ffffffedH
$LN1@LoadInt_e@2:
  001e2	6a 04		 push	 4
  001e4	8d 45 e4	 lea	 eax, DWORD PTR __k$[ebp]
  001e7	c6 45 f5 00	 mov	 BYTE PTR __k$[ebp+17], 0
  001eb	5a		 pop	 edx
$LL104@LoadInt_e@2:
  001ec	81 30 ed ec eb
	ea		 xor	 DWORD PTR [eax], -353637139 ; eaebecedH
  001f2	83 c0 04	 add	 eax, 4
  001f5	4a		 dec	 edx
  001f6	75 f4		 jne	 SHORT $LL104@LoadInt_e@2

; 120  : 		return LoadInt(_k, i);

  001f8	ff 75 0c	 push	 DWORD PTR _i$[ebp]
  001fb	80 75 f4 ed	 xor	 BYTE PTR __k$[ebp+16], -19 ; ffffffedH
  001ff	8d 45 e4	 lea	 eax, DWORD PTR __k$[ebp]
  00202	50		 push	 eax
  00203	8b ce		 mov	 ecx, esi
  00205	ff 15 00 00 00
	00		 call	 DWORD PTR __imp_?LoadInt@ioINILoader@@QAEHPBDH@Z

; 121  : 	}

  0020b	8b 4d fc	 mov	 ecx, DWORD PTR __$ArrayPad$[ebp]
  0020e	33 cd		 xor	 ecx, ebp
  00210	5e		 pop	 esi
  00211	e8 00 00 00 00	 call	 @__security_check_cookie@4
  00216	c9		 leave
  00217	c2 08 00	 ret	 8
??$LoadInt_e@$0BC@@ioINILoader@@QAEHAAY0BC@$$CBDH@Z ENDP ; ioINILoader::LoadInt_e<18>
_TEXT	ENDS
PUBLIC	__$ArrayPad$
PUBLIC	??$LoadInt_e@$0P@@ioINILoader@@QAEHAAY0P@$$CBDH@Z ; ioINILoader::LoadInt_e<15>
; Function compile flags: /Ogsp
;	COMDAT ??$LoadInt_e@$0P@@ioINILoader@@QAEHAAY0P@$$CBDH@Z
_TEXT	SEGMENT
__k$ = -24						; size = 15
__$ArrayPad$ = -4					; size = 4
_k$ = 8							; size = 4
_i$ = 12						; size = 4
??$LoadInt_e@$0P@@ioINILoader@@QAEHAAY0P@$$CBDH@Z PROC	; ioINILoader::LoadInt_e<15>, COMDAT
; _this$ = ecx

; 118  : 	{

  00000	55		 push	 ebp
  00001	8b ec		 mov	 ebp, esp
  00003	83 ec 18	 sub	 esp, 24			; 00000018H
  00006	a1 00 00 00 00	 mov	 eax, DWORD PTR ___security_cookie
  0000b	33 c5		 xor	 eax, ebp
  0000d	89 45 fc	 mov	 DWORD PTR __$ArrayPad$[ebp], eax
  00010	8b 45 08	 mov	 eax, DWORD PTR _k$[ebp]

; 119  : 		_ENCSTR(k, _k);

  00013	8a 10		 mov	 dl, BYTE PTR [eax]
  00015	56		 push	 esi
  00016	8b f1		 mov	 esi, ecx
  00018	84 d2		 test	 dl, dl
  0001a	0f 84 75 01 00
	00		 je	 $LN96@LoadInt_e@3
  00020	80 f2 ed	 xor	 dl, -19			; ffffffedH
  00023	88 55 e8	 mov	 BYTE PTR __k$[ebp], dl
  00026	8a 50 01	 mov	 dl, BYTE PTR [eax+1]
  00029	84 d2		 test	 dl, dl
  0002b	0f 84 5e 01 00
	00		 je	 $LN95@LoadInt_e@3
  00031	b1 ec		 mov	 cl, -20			; ffffffecH
  00033	32 d1		 xor	 dl, cl
  00035	88 55 e9	 mov	 BYTE PTR __k$[ebp+1], dl
  00038	8a 50 02	 mov	 dl, BYTE PTR [eax+2]
  0003b	84 d2		 test	 dl, dl
  0003d	0f 84 46 01 00
	00		 je	 $LN94@LoadInt_e@3
  00043	80 f2 eb	 xor	 dl, -21			; ffffffebH
  00046	88 55 ea	 mov	 BYTE PTR __k$[ebp+2], dl
  00049	8a 50 03	 mov	 dl, BYTE PTR [eax+3]
  0004c	84 d2		 test	 dl, dl
  0004e	0f 84 2f 01 00
	00		 je	 $LN93@LoadInt_e@3
  00054	80 f2 ea	 xor	 dl, -22			; ffffffeaH
  00057	88 55 eb	 mov	 BYTE PTR __k$[ebp+3], dl
  0005a	8a 50 04	 mov	 dl, BYTE PTR [eax+4]
  0005d	84 d2		 test	 dl, dl
  0005f	0f 84 18 01 00
	00		 je	 $LN92@LoadInt_e@3
  00065	80 f2 ed	 xor	 dl, -19			; ffffffedH
  00068	88 55 ec	 mov	 BYTE PTR __k$[ebp+4], dl
  0006b	8a 50 05	 mov	 dl, BYTE PTR [eax+5]
  0006e	84 d2		 test	 dl, dl
  00070	0f 84 02 01 00
	00		 je	 $LN91@LoadInt_e@3
  00076	32 d1		 xor	 dl, cl
  00078	88 55 ed	 mov	 BYTE PTR __k$[ebp+5], dl
  0007b	8a 50 06	 mov	 dl, BYTE PTR [eax+6]
  0007e	84 d2		 test	 dl, dl
  00080	0f 84 ec 00 00
	00		 je	 $LN90@LoadInt_e@3
  00086	80 f2 eb	 xor	 dl, -21			; ffffffebH
  00089	88 55 ee	 mov	 BYTE PTR __k$[ebp+6], dl
  0008c	8a 50 07	 mov	 dl, BYTE PTR [eax+7]
  0008f	84 d2		 test	 dl, dl
  00091	0f 84 d5 00 00
	00		 je	 $LN89@LoadInt_e@3
  00097	80 f2 ea	 xor	 dl, -22			; ffffffeaH
  0009a	88 55 ef	 mov	 BYTE PTR __k$[ebp+7], dl
  0009d	8a 50 08	 mov	 dl, BYTE PTR [eax+8]
  000a0	84 d2		 test	 dl, dl
  000a2	0f 84 be 00 00
	00		 je	 $LN88@LoadInt_e@3
  000a8	80 f2 ed	 xor	 dl, -19			; ffffffedH
  000ab	88 55 f0	 mov	 BYTE PTR __k$[ebp+8], dl
  000ae	8a 50 09	 mov	 dl, BYTE PTR [eax+9]
  000b1	84 d2		 test	 dl, dl
  000b3	0f 84 a8 00 00
	00		 je	 $LN87@LoadInt_e@3
  000b9	32 d1		 xor	 dl, cl
  000bb	88 55 f1	 mov	 BYTE PTR __k$[ebp+9], dl
  000be	8a 50 0a	 mov	 dl, BYTE PTR [eax+10]
  000c1	84 d2		 test	 dl, dl
  000c3	0f 84 92 00 00
	00		 je	 $LN86@LoadInt_e@3
  000c9	80 f2 eb	 xor	 dl, -21			; ffffffebH
  000cc	88 55 f2	 mov	 BYTE PTR __k$[ebp+10], dl
  000cf	8a 50 0b	 mov	 dl, BYTE PTR [eax+11]
  000d2	84 d2		 test	 dl, dl
  000d4	74 7f		 je	 SHORT $LN85@LoadInt_e@3
  000d6	80 f2 ea	 xor	 dl, -22			; ffffffeaH
  000d9	88 55 f3	 mov	 BYTE PTR __k$[ebp+11], dl
  000dc	8a 50 0c	 mov	 dl, BYTE PTR [eax+12]
  000df	84 d2		 test	 dl, dl
  000e1	74 6c		 je	 SHORT $LN84@LoadInt_e@3
  000e3	80 f2 ed	 xor	 dl, -19			; ffffffedH
  000e6	88 55 f4	 mov	 BYTE PTR __k$[ebp+12], dl
  000e9	8a 50 0d	 mov	 dl, BYTE PTR [eax+13]
  000ec	84 d2		 test	 dl, dl
  000ee	74 5a		 je	 SHORT $LN83@LoadInt_e@3
  000f0	32 d1		 xor	 dl, cl
  000f2	80 78 0e 00	 cmp	 BYTE PTR [eax+14], 0
  000f6	88 55 f5	 mov	 BYTE PTR __k$[ebp+13], dl
  000f9	0f 84 9a 00 00
	00		 je	 $LN1@LoadInt_e@3
  000ff	8a 50 0f	 mov	 dl, BYTE PTR [eax+15]
  00102	84 d2		 test	 dl, dl
  00104	74 3e		 je	 SHORT $LN81@LoadInt_e@3
  00106	80 f2 ea	 xor	 dl, -22			; ffffffeaH
  00109	88 55 f7	 mov	 BYTE PTR __k$[ebp+15], dl
  0010c	8a 50 10	 mov	 dl, BYTE PTR [eax+16]
  0010f	84 d2		 test	 dl, dl
  00111	74 2b		 je	 SHORT $LN80@LoadInt_e@3
  00113	80 f2 ed	 xor	 dl, -19			; ffffffedH
  00116	88 55 f8	 mov	 BYTE PTR __k$[ebp+16], dl
  00119	8a 50 11	 mov	 dl, BYTE PTR [eax+17]
  0011c	84 d2		 test	 dl, dl
  0011e	74 19		 je	 SHORT $LN79@LoadInt_e@3
  00120	8a 40 12	 mov	 al, BYTE PTR [eax+18]
  00123	32 d1		 xor	 dl, cl
  00125	88 55 f9	 mov	 BYTE PTR __k$[ebp+17], dl
  00128	84 c0		 test	 al, al
  0012a	74 07		 je	 SHORT $LN78@LoadInt_e@3
  0012c	34 eb		 xor	 al, -21			; ffffffebH
  0012e	88 45 fa	 mov	 BYTE PTR __k$[ebp+18], al
  00131	eb 66		 jmp	 SHORT $LN1@LoadInt_e@3
$LN78@LoadInt_e@3:
  00133	c6 45 fa eb	 mov	 BYTE PTR __k$[ebp+18], -21 ; ffffffebH
  00137	eb 60		 jmp	 SHORT $LN1@LoadInt_e@3
$LN79@LoadInt_e@3:
  00139	88 4d f9	 mov	 BYTE PTR __k$[ebp+17], cl
  0013c	eb 5b		 jmp	 SHORT $LN1@LoadInt_e@3
$LN80@LoadInt_e@3:
  0013e	c6 45 f8 ed	 mov	 BYTE PTR __k$[ebp+16], -19 ; ffffffedH
  00142	eb 55		 jmp	 SHORT $LN1@LoadInt_e@3
$LN81@LoadInt_e@3:
  00144	c6 45 f7 ea	 mov	 BYTE PTR __k$[ebp+15], -22 ; ffffffeaH
  00148	eb 4f		 jmp	 SHORT $LN1@LoadInt_e@3
$LN83@LoadInt_e@3:
  0014a	88 4d f5	 mov	 BYTE PTR __k$[ebp+13], cl
  0014d	eb 4a		 jmp	 SHORT $LN1@LoadInt_e@3
$LN84@LoadInt_e@3:
  0014f	c6 45 f4 ed	 mov	 BYTE PTR __k$[ebp+12], -19 ; ffffffedH
  00153	eb 44		 jmp	 SHORT $LN1@LoadInt_e@3
$LN85@LoadInt_e@3:
  00155	c6 45 f3 ea	 mov	 BYTE PTR __k$[ebp+11], -22 ; ffffffeaH
  00159	eb 3e		 jmp	 SHORT $LN1@LoadInt_e@3
$LN86@LoadInt_e@3:
  0015b	c6 45 f2 eb	 mov	 BYTE PTR __k$[ebp+10], -21 ; ffffffebH
  0015f	eb 38		 jmp	 SHORT $LN1@LoadInt_e@3
$LN87@LoadInt_e@3:
  00161	88 4d f1	 mov	 BYTE PTR __k$[ebp+9], cl
  00164	eb 33		 jmp	 SHORT $LN1@LoadInt_e@3
$LN88@LoadInt_e@3:
  00166	c6 45 f0 ed	 mov	 BYTE PTR __k$[ebp+8], -19 ; ffffffedH
  0016a	eb 2d		 jmp	 SHORT $LN1@LoadInt_e@3
$LN89@LoadInt_e@3:
  0016c	c6 45 ef ea	 mov	 BYTE PTR __k$[ebp+7], -22 ; ffffffeaH
  00170	eb 27		 jmp	 SHORT $LN1@LoadInt_e@3
$LN90@LoadInt_e@3:
  00172	c6 45 ee eb	 mov	 BYTE PTR __k$[ebp+6], -21 ; ffffffebH
  00176	eb 21		 jmp	 SHORT $LN1@LoadInt_e@3
$LN91@LoadInt_e@3:
  00178	88 4d ed	 mov	 BYTE PTR __k$[ebp+5], cl
  0017b	eb 1c		 jmp	 SHORT $LN1@LoadInt_e@3
$LN92@LoadInt_e@3:
  0017d	c6 45 ec ed	 mov	 BYTE PTR __k$[ebp+4], -19 ; ffffffedH
  00181	eb 16		 jmp	 SHORT $LN1@LoadInt_e@3
$LN93@LoadInt_e@3:
  00183	c6 45 eb ea	 mov	 BYTE PTR __k$[ebp+3], -22 ; ffffffeaH
  00187	eb 10		 jmp	 SHORT $LN1@LoadInt_e@3
$LN94@LoadInt_e@3:
  00189	c6 45 ea eb	 mov	 BYTE PTR __k$[ebp+2], -21 ; ffffffebH
  0018d	eb 0a		 jmp	 SHORT $LN1@LoadInt_e@3
$LN95@LoadInt_e@3:
  0018f	c6 45 e9 ec	 mov	 BYTE PTR __k$[ebp+1], -20 ; ffffffecH
  00193	eb 04		 jmp	 SHORT $LN1@LoadInt_e@3
$LN96@LoadInt_e@3:
  00195	c6 45 e8 ed	 mov	 BYTE PTR __k$[ebp], -19	; ffffffedH
$LN1@LoadInt_e@3:
  00199	6a 03		 push	 3
  0019b	8d 45 e8	 lea	 eax, DWORD PTR __k$[ebp]
  0019e	c6 45 f6 00	 mov	 BYTE PTR __k$[ebp+14], 0
  001a2	5a		 pop	 edx
$LL104@LoadInt_e@3:
  001a3	81 30 ed ec eb
	ea		 xor	 DWORD PTR [eax], -353637139 ; eaebecedH
  001a9	83 c0 04	 add	 eax, 4
  001ac	4a		 dec	 edx
  001ad	75 f4		 jne	 SHORT $LL104@LoadInt_e@3
  001af	6a 0c		 push	 12			; 0000000cH
  001b1	58		 pop	 eax
$LL101@LoadInt_e@3:
  001b2	8b c8		 mov	 ecx, eax
  001b4	81 e1 03 00 00
	80		 and	 ecx, -2147483645	; 80000003H
  001ba	79 05		 jns	 SHORT $LN111@LoadInt_e@3
  001bc	49		 dec	 ecx
  001bd	83 c9 fc	 or	 ecx, -4			; fffffffcH
  001c0	41		 inc	 ecx
$LN111@LoadInt_e@3:
  001c1	b2 ed		 mov	 dl, -19			; ffffffedH
  001c3	2a d1		 sub	 dl, cl
  001c5	30 54 05 e8	 xor	 BYTE PTR __k$[ebp+eax], dl
  001c9	40		 inc	 eax
  001ca	83 f8 0e	 cmp	 eax, 14			; 0000000eH
  001cd	7c e3		 jl	 SHORT $LL101@LoadInt_e@3

; 120  : 		return LoadInt(_k, i);

  001cf	ff 75 0c	 push	 DWORD PTR _i$[ebp]
  001d2	8d 45 e8	 lea	 eax, DWORD PTR __k$[ebp]
  001d5	50		 push	 eax
  001d6	8b ce		 mov	 ecx, esi
  001d8	ff 15 00 00 00
	00		 call	 DWORD PTR __imp_?LoadInt@ioINILoader@@QAEHPBDH@Z

; 121  : 	}

  001de	8b 4d fc	 mov	 ecx, DWORD PTR __$ArrayPad$[ebp]
  001e1	33 cd		 xor	 ecx, ebp
  001e3	5e		 pop	 esi
  001e4	e8 00 00 00 00	 call	 @__security_check_cookie@4
  001e9	c9		 leave
  001ea	c2 08 00	 ret	 8
??$LoadInt_e@$0P@@ioINILoader@@QAEHAAY0P@$$CBDH@Z ENDP	; ioINILoader::LoadInt_e<15>
_TEXT	ENDS
PUBLIC	__$ArrayPad$
PUBLIC	??$LoadBool_e@$0BD@@ioINILoader@@QAE_NAAY0BD@$$CBD_N@Z ; ioINILoader::LoadBool_e<19>
EXTRN	__imp_?LoadBool@ioINILoader@@QAE_NPBD_N@Z:PROC
; Function compile flags: /Ogsp
;	COMDAT ??$LoadBool_e@$0BD@@ioINILoader@@QAE_NAAY0BD@$$CBD_N@Z
_TEXT	SEGMENT
__k$ = -28						; size = 19
__$ArrayPad$ = -4					; size = 4
_k$ = 8							; size = 4
_b$ = 12						; size = 1
??$LoadBool_e@$0BD@@ioINILoader@@QAE_NAAY0BD@$$CBD_N@Z PROC ; ioINILoader::LoadBool_e<19>, COMDAT
; _this$ = ecx

; 101  : 	{

  00000	55		 push	 ebp
  00001	8b ec		 mov	 ebp, esp
  00003	83 ec 1c	 sub	 esp, 28			; 0000001cH
  00006	a1 00 00 00 00	 mov	 eax, DWORD PTR ___security_cookie
  0000b	33 c5		 xor	 eax, ebp
  0000d	89 45 fc	 mov	 DWORD PTR __$ArrayPad$[ebp], eax
  00010	8b 45 08	 mov	 eax, DWORD PTR _k$[ebp]

; 102  : 		_ENCSTR(k, _k);

  00013	8a 10		 mov	 dl, BYTE PTR [eax]
  00015	56		 push	 esi
  00016	8b f1		 mov	 esi, ecx
  00018	84 d2		 test	 dl, dl
  0001a	0f 84 cf 01 00
	00		 je	 $LN96@LoadBool_e
  00020	80 f2 ed	 xor	 dl, -19			; ffffffedH
  00023	88 55 e4	 mov	 BYTE PTR __k$[ebp], dl
  00026	8a 50 01	 mov	 dl, BYTE PTR [eax+1]
  00029	84 d2		 test	 dl, dl
  0002b	0f 84 b8 01 00
	00		 je	 $LN95@LoadBool_e
  00031	b1 ec		 mov	 cl, -20			; ffffffecH
  00033	32 d1		 xor	 dl, cl
  00035	88 55 e5	 mov	 BYTE PTR __k$[ebp+1], dl
  00038	8a 50 02	 mov	 dl, BYTE PTR [eax+2]
  0003b	84 d2		 test	 dl, dl
  0003d	0f 84 a0 01 00
	00		 je	 $LN94@LoadBool_e
  00043	80 f2 eb	 xor	 dl, -21			; ffffffebH
  00046	88 55 e6	 mov	 BYTE PTR __k$[ebp+2], dl
  00049	8a 50 03	 mov	 dl, BYTE PTR [eax+3]
  0004c	84 d2		 test	 dl, dl
  0004e	0f 84 89 01 00
	00		 je	 $LN93@LoadBool_e
  00054	80 f2 ea	 xor	 dl, -22			; ffffffeaH
  00057	88 55 e7	 mov	 BYTE PTR __k$[ebp+3], dl
  0005a	8a 50 04	 mov	 dl, BYTE PTR [eax+4]
  0005d	84 d2		 test	 dl, dl
  0005f	0f 84 72 01 00
	00		 je	 $LN92@LoadBool_e
  00065	80 f2 ed	 xor	 dl, -19			; ffffffedH
  00068	88 55 e8	 mov	 BYTE PTR __k$[ebp+4], dl
  0006b	8a 50 05	 mov	 dl, BYTE PTR [eax+5]
  0006e	84 d2		 test	 dl, dl
  00070	0f 84 5c 01 00
	00		 je	 $LN91@LoadBool_e
  00076	32 d1		 xor	 dl, cl
  00078	88 55 e9	 mov	 BYTE PTR __k$[ebp+5], dl
  0007b	8a 50 06	 mov	 dl, BYTE PTR [eax+6]
  0007e	84 d2		 test	 dl, dl
  00080	0f 84 46 01 00
	00		 je	 $LN90@LoadBool_e
  00086	80 f2 eb	 xor	 dl, -21			; ffffffebH
  00089	88 55 ea	 mov	 BYTE PTR __k$[ebp+6], dl
  0008c	8a 50 07	 mov	 dl, BYTE PTR [eax+7]
  0008f	84 d2		 test	 dl, dl
  00091	0f 84 2f 01 00
	00		 je	 $LN89@LoadBool_e
  00097	80 f2 ea	 xor	 dl, -22			; ffffffeaH
  0009a	88 55 eb	 mov	 BYTE PTR __k$[ebp+7], dl
  0009d	8a 50 08	 mov	 dl, BYTE PTR [eax+8]
  000a0	84 d2		 test	 dl, dl
  000a2	0f 84 18 01 00
	00		 je	 $LN88@LoadBool_e
  000a8	80 f2 ed	 xor	 dl, -19			; ffffffedH
  000ab	88 55 ec	 mov	 BYTE PTR __k$[ebp+8], dl
  000ae	8a 50 09	 mov	 dl, BYTE PTR [eax+9]
  000b1	84 d2		 test	 dl, dl
  000b3	0f 84 02 01 00
	00		 je	 $LN87@LoadBool_e
  000b9	32 d1		 xor	 dl, cl
  000bb	88 55 ed	 mov	 BYTE PTR __k$[ebp+9], dl
  000be	8a 50 0a	 mov	 dl, BYTE PTR [eax+10]
  000c1	84 d2		 test	 dl, dl
  000c3	0f 84 ec 00 00
	00		 je	 $LN86@LoadBool_e
  000c9	80 f2 eb	 xor	 dl, -21			; ffffffebH
  000cc	88 55 ee	 mov	 BYTE PTR __k$[ebp+10], dl
  000cf	8a 50 0b	 mov	 dl, BYTE PTR [eax+11]
  000d2	84 d2		 test	 dl, dl
  000d4	0f 84 d5 00 00
	00		 je	 $LN85@LoadBool_e
  000da	80 f2 ea	 xor	 dl, -22			; ffffffeaH
  000dd	88 55 ef	 mov	 BYTE PTR __k$[ebp+11], dl
  000e0	8a 50 0c	 mov	 dl, BYTE PTR [eax+12]
  000e3	84 d2		 test	 dl, dl
  000e5	0f 84 be 00 00
	00		 je	 $LN84@LoadBool_e
  000eb	80 f2 ed	 xor	 dl, -19			; ffffffedH
  000ee	88 55 f0	 mov	 BYTE PTR __k$[ebp+12], dl
  000f1	8a 50 0d	 mov	 dl, BYTE PTR [eax+13]
  000f4	84 d2		 test	 dl, dl
  000f6	0f 84 a8 00 00
	00		 je	 $LN83@LoadBool_e
  000fc	32 d1		 xor	 dl, cl
  000fe	88 55 f1	 mov	 BYTE PTR __k$[ebp+13], dl
  00101	8a 50 0e	 mov	 dl, BYTE PTR [eax+14]
  00104	84 d2		 test	 dl, dl
  00106	0f 84 92 00 00
	00		 je	 $LN82@LoadBool_e
  0010c	80 f2 eb	 xor	 dl, -21			; ffffffebH
  0010f	88 55 f2	 mov	 BYTE PTR __k$[ebp+14], dl
  00112	8a 50 0f	 mov	 dl, BYTE PTR [eax+15]
  00115	84 d2		 test	 dl, dl
  00117	74 7f		 je	 SHORT $LN81@LoadBool_e
  00119	80 f2 ea	 xor	 dl, -22			; ffffffeaH
  0011c	88 55 f3	 mov	 BYTE PTR __k$[ebp+15], dl
  0011f	8a 50 10	 mov	 dl, BYTE PTR [eax+16]
  00122	84 d2		 test	 dl, dl
  00124	74 6c		 je	 SHORT $LN80@LoadBool_e
  00126	80 f2 ed	 xor	 dl, -19			; ffffffedH
  00129	88 55 f4	 mov	 BYTE PTR __k$[ebp+16], dl
  0012c	8a 50 11	 mov	 dl, BYTE PTR [eax+17]
  0012f	84 d2		 test	 dl, dl
  00131	74 5a		 je	 SHORT $LN79@LoadBool_e
  00133	32 d1		 xor	 dl, cl
  00135	80 78 12 00	 cmp	 BYTE PTR [eax+18], 0
  00139	88 55 f5	 mov	 BYTE PTR __k$[ebp+17], dl
  0013c	0f 84 b1 00 00
	00		 je	 $LN1@LoadBool_e
  00142	8a 50 13	 mov	 dl, BYTE PTR [eax+19]
  00145	84 d2		 test	 dl, dl
  00147	74 3e		 je	 SHORT $LN77@LoadBool_e
  00149	80 f2 ea	 xor	 dl, -22			; ffffffeaH
  0014c	88 55 f7	 mov	 BYTE PTR __k$[ebp+19], dl
  0014f	8a 50 14	 mov	 dl, BYTE PTR [eax+20]
  00152	84 d2		 test	 dl, dl
  00154	74 2b		 je	 SHORT $LN76@LoadBool_e
  00156	80 f2 ed	 xor	 dl, -19			; ffffffedH
  00159	88 55 f8	 mov	 BYTE PTR __k$[ebp+20], dl
  0015c	8a 50 15	 mov	 dl, BYTE PTR [eax+21]
  0015f	84 d2		 test	 dl, dl
  00161	74 19		 je	 SHORT $LN75@LoadBool_e
  00163	8a 40 16	 mov	 al, BYTE PTR [eax+22]
  00166	32 d1		 xor	 dl, cl
  00168	88 55 f9	 mov	 BYTE PTR __k$[ebp+21], dl
  0016b	84 c0		 test	 al, al
  0016d	74 07		 je	 SHORT $LN74@LoadBool_e
  0016f	34 eb		 xor	 al, -21			; ffffffebH
  00171	88 45 fa	 mov	 BYTE PTR __k$[ebp+22], al
  00174	eb 7d		 jmp	 SHORT $LN1@LoadBool_e
$LN74@LoadBool_e:
  00176	c6 45 fa eb	 mov	 BYTE PTR __k$[ebp+22], -21 ; ffffffebH
  0017a	eb 77		 jmp	 SHORT $LN1@LoadBool_e
$LN75@LoadBool_e:
  0017c	88 4d f9	 mov	 BYTE PTR __k$[ebp+21], cl
  0017f	eb 72		 jmp	 SHORT $LN1@LoadBool_e
$LN76@LoadBool_e:
  00181	c6 45 f8 ed	 mov	 BYTE PTR __k$[ebp+20], -19 ; ffffffedH
  00185	eb 6c		 jmp	 SHORT $LN1@LoadBool_e
$LN77@LoadBool_e:
  00187	c6 45 f7 ea	 mov	 BYTE PTR __k$[ebp+19], -22 ; ffffffeaH
  0018b	eb 66		 jmp	 SHORT $LN1@LoadBool_e
$LN79@LoadBool_e:
  0018d	88 4d f5	 mov	 BYTE PTR __k$[ebp+17], cl
  00190	eb 61		 jmp	 SHORT $LN1@LoadBool_e
$LN80@LoadBool_e:
  00192	c6 45 f4 ed	 mov	 BYTE PTR __k$[ebp+16], -19 ; ffffffedH
  00196	eb 5b		 jmp	 SHORT $LN1@LoadBool_e
$LN81@LoadBool_e:
  00198	c6 45 f3 ea	 mov	 BYTE PTR __k$[ebp+15], -22 ; ffffffeaH
  0019c	eb 55		 jmp	 SHORT $LN1@LoadBool_e
$LN82@LoadBool_e:
  0019e	c6 45 f2 eb	 mov	 BYTE PTR __k$[ebp+14], -21 ; ffffffebH
  001a2	eb 4f		 jmp	 SHORT $LN1@LoadBool_e
$LN83@LoadBool_e:
  001a4	88 4d f1	 mov	 BYTE PTR __k$[ebp+13], cl
  001a7	eb 4a		 jmp	 SHORT $LN1@LoadBool_e
$LN84@LoadBool_e:
  001a9	c6 45 f0 ed	 mov	 BYTE PTR __k$[ebp+12], -19 ; ffffffedH
  001ad	eb 44		 jmp	 SHORT $LN1@LoadBool_e
$LN85@LoadBool_e:
  001af	c6 45 ef ea	 mov	 BYTE PTR __k$[ebp+11], -22 ; ffffffeaH
  001b3	eb 3e		 jmp	 SHORT $LN1@LoadBool_e
$LN86@LoadBool_e:
  001b5	c6 45 ee eb	 mov	 BYTE PTR __k$[ebp+10], -21 ; ffffffebH
  001b9	eb 38		 jmp	 SHORT $LN1@LoadBool_e
$LN87@LoadBool_e:
  001bb	88 4d ed	 mov	 BYTE PTR __k$[ebp+9], cl
  001be	eb 33		 jmp	 SHORT $LN1@LoadBool_e
$LN88@LoadBool_e:
  001c0	c6 45 ec ed	 mov	 BYTE PTR __k$[ebp+8], -19 ; ffffffedH
  001c4	eb 2d		 jmp	 SHORT $LN1@LoadBool_e
$LN89@LoadBool_e:
  001c6	c6 45 eb ea	 mov	 BYTE PTR __k$[ebp+7], -22 ; ffffffeaH
  001ca	eb 27		 jmp	 SHORT $LN1@LoadBool_e
$LN90@LoadBool_e:
  001cc	c6 45 ea eb	 mov	 BYTE PTR __k$[ebp+6], -21 ; ffffffebH
  001d0	eb 21		 jmp	 SHORT $LN1@LoadBool_e
$LN91@LoadBool_e:
  001d2	88 4d e9	 mov	 BYTE PTR __k$[ebp+5], cl
  001d5	eb 1c		 jmp	 SHORT $LN1@LoadBool_e
$LN92@LoadBool_e:
  001d7	c6 45 e8 ed	 mov	 BYTE PTR __k$[ebp+4], -19 ; ffffffedH
  001db	eb 16		 jmp	 SHORT $LN1@LoadBool_e
$LN93@LoadBool_e:
  001dd	c6 45 e7 ea	 mov	 BYTE PTR __k$[ebp+3], -22 ; ffffffeaH
  001e1	eb 10		 jmp	 SHORT $LN1@LoadBool_e
$LN94@LoadBool_e:
  001e3	c6 45 e6 eb	 mov	 BYTE PTR __k$[ebp+2], -21 ; ffffffebH
  001e7	eb 0a		 jmp	 SHORT $LN1@LoadBool_e
$LN95@LoadBool_e:
  001e9	c6 45 e5 ec	 mov	 BYTE PTR __k$[ebp+1], -20 ; ffffffecH
  001ed	eb 04		 jmp	 SHORT $LN1@LoadBool_e
$LN96@LoadBool_e:
  001ef	c6 45 e4 ed	 mov	 BYTE PTR __k$[ebp], -19	; ffffffedH
$LN1@LoadBool_e:
  001f3	6a 04		 push	 4
  001f5	8d 45 e4	 lea	 eax, DWORD PTR __k$[ebp]
  001f8	c6 45 f6 00	 mov	 BYTE PTR __k$[ebp+18], 0
  001fc	5a		 pop	 edx
$LL104@LoadBool_e:
  001fd	81 30 ed ec eb
	ea		 xor	 DWORD PTR [eax], -353637139 ; eaebecedH
  00203	83 c0 04	 add	 eax, 4
  00206	4a		 dec	 edx
  00207	75 f4		 jne	 SHORT $LL104@LoadBool_e
  00209	6a 10		 push	 16			; 00000010H
  0020b	58		 pop	 eax
$LL101@LoadBool_e:
  0020c	8b c8		 mov	 ecx, eax
  0020e	81 e1 03 00 00
	80		 and	 ecx, -2147483645	; 80000003H
  00214	79 05		 jns	 SHORT $LN111@LoadBool_e
  00216	49		 dec	 ecx
  00217	83 c9 fc	 or	 ecx, -4			; fffffffcH
  0021a	41		 inc	 ecx
$LN111@LoadBool_e:
  0021b	b2 ed		 mov	 dl, -19			; ffffffedH
  0021d	2a d1		 sub	 dl, cl
  0021f	30 54 05 e4	 xor	 BYTE PTR __k$[ebp+eax], dl
  00223	40		 inc	 eax
  00224	83 f8 12	 cmp	 eax, 18			; 00000012H
  00227	7c e3		 jl	 SHORT $LL101@LoadBool_e

; 103  : 		return LoadBool(_k, b);

  00229	ff 75 0c	 push	 DWORD PTR _b$[ebp]
  0022c	8d 45 e4	 lea	 eax, DWORD PTR __k$[ebp]
  0022f	50		 push	 eax
  00230	8b ce		 mov	 ecx, esi
  00232	ff 15 00 00 00
	00		 call	 DWORD PTR __imp_?LoadBool@ioINILoader@@QAE_NPBD_N@Z

; 104  : 	}

  00238	8b 4d fc	 mov	 ecx, DWORD PTR __$ArrayPad$[ebp]
  0023b	33 cd		 xor	 ecx, ebp
  0023d	5e		 pop	 esi
  0023e	e8 00 00 00 00	 call	 @__security_check_cookie@4
  00243	c9		 leave
  00244	c2 08 00	 ret	 8
??$LoadBool_e@$0BD@@ioINILoader@@QAE_NAAY0BD@$$CBD_N@Z ENDP ; ioINILoader::LoadBool_e<19>
_TEXT	ENDS
PUBLIC	?construct@?$allocator@H@std@@QAEXPAHABH@Z	; std::allocator<int>::construct
; Function compile flags: /Ogsp
; File c:\program files (x86)\microsoft visual studio 10.0\vc\include\xmemory
;	COMDAT ?construct@?$allocator@H@std@@QAEXPAHABH@Z
_TEXT	SEGMENT
__Ptr$ = 8						; size = 4
__Val$ = 12						; size = 4
?construct@?$allocator@H@std@@QAEXPAHABH@Z PROC		; std::allocator<int>::construct, COMDAT
; _this$ = ecx

; 196  : 		{	// construct object at _Ptr with value _Val

  00000	55		 push	 ebp
  00001	8b ec		 mov	 ebp, esp

; 197  : 		_Construct(_Ptr, _Val);

  00003	8b 45 08	 mov	 eax, DWORD PTR __Ptr$[ebp]
  00006	85 c0		 test	 eax, eax
  00008	74 07		 je	 SHORT $LN5@construct
  0000a	8b 4d 0c	 mov	 ecx, DWORD PTR __Val$[ebp]
  0000d	8b 09		 mov	 ecx, DWORD PTR [ecx]
  0000f	89 08		 mov	 DWORD PTR [eax], ecx
$LN5@construct:

; 198  : 		}

  00011	5d		 pop	 ebp
  00012	c2 08 00	 ret	 8
?construct@?$allocator@H@std@@QAEXPAHABH@Z ENDP		; std::allocator<int>::construct
_TEXT	ENDS
PUBLIC	??$construct@AAH@?$allocator@H@std@@QAEXPAHAAH@Z ; std::allocator<int>::construct<int &>
; Function compile flags: /Ogsp
;	COMDAT ??$construct@AAH@?$allocator@H@std@@QAEXPAHAAH@Z
_TEXT	SEGMENT
__Ptr$ = 8						; size = 4
__Val$ = 12						; size = 4
??$construct@AAH@?$allocator@H@std@@QAEXPAHAAH@Z PROC	; std::allocator<int>::construct<int &>, COMDAT
; _this$ = ecx

; 206  : 		void construct(pointer _Ptr, _Other&& _Val)

  00000	55		 push	 ebp
  00001	8b ec		 mov	 ebp, esp

; 207  : 		{	// construct object at _Ptr with value _Val
; 208  : 		::new ((void _FARQ *)_Ptr) _Ty(_STD forward<_Other>(_Val));

  00003	8b 45 08	 mov	 eax, DWORD PTR __Ptr$[ebp]
  00006	85 c0		 test	 eax, eax
  00008	74 07		 je	 SHORT $LN3@construct@2
  0000a	8b 4d 0c	 mov	 ecx, DWORD PTR __Val$[ebp]
  0000d	8b 09		 mov	 ecx, DWORD PTR [ecx]
  0000f	89 08		 mov	 DWORD PTR [eax], ecx
$LN3@construct@2:

; 209  : 		}

  00011	5d		 pop	 ebp
  00012	c2 08 00	 ret	 8
??$construct@AAH@?$allocator@H@std@@QAEXPAHAAH@Z ENDP	; std::allocator<int>::construct<int &>
_TEXT	ENDS
PUBLIC	?destroy@?$allocator@H@std@@QAEXPAH@Z		; std::allocator<int>::destroy
; Function compile flags: /Ogsp
;	COMDAT ?destroy@?$allocator@H@std@@QAEXPAH@Z
_TEXT	SEGMENT
__Ptr$ = 8						; size = 4
?destroy@?$allocator@H@std@@QAEXPAH@Z PROC		; std::allocator<int>::destroy, COMDAT
; _this$ = ecx

; 213  : 		_Destroy(_Ptr);
; 214  : 		}

  00000	c2 04 00	 ret	 4
?destroy@?$allocator@H@std@@QAEXPAH@Z ENDP		; std::allocator<int>::destroy
_TEXT	ENDS
PUBLIC	?begin@?$vector@HV?$allocator@H@std@@@std@@QAE?AV?$_Vector_iterator@V?$_Vector_val@HV?$allocator@H@std@@@std@@@2@XZ ; std::vector<int,std::allocator<int> >::begin
; Function compile flags: /Ogsp
; File c:\program files (x86)\microsoft visual studio 10.0\vc\include\vector
;	COMDAT ?begin@?$vector@HV?$allocator@H@std@@@std@@QAE?AV?$_Vector_iterator@V?$_Vector_val@HV?$allocator@H@std@@@std@@@2@XZ
_TEXT	SEGMENT
___$ReturnUdt$ = 8					; size = 4
?begin@?$vector@HV?$allocator@H@std@@@std@@QAE?AV?$_Vector_iterator@V?$_Vector_val@HV?$allocator@H@std@@@std@@@2@XZ PROC ; std::vector<int,std::allocator<int> >::begin, COMDAT
; _this$ = ecx

; 781  : 		{	// return iterator for beginning of mutable sequence

  00000	55		 push	 ebp
  00001	8b ec		 mov	 ebp, esp

; 782  : 		return (iterator(this->_Myfirst, this));

  00003	8b 09		 mov	 ecx, DWORD PTR [ecx]
  00005	8b 45 08	 mov	 eax, DWORD PTR ___$ReturnUdt$[ebp]
  00008	89 08		 mov	 DWORD PTR [eax], ecx

; 783  : 		}

  0000a	5d		 pop	 ebp
  0000b	c2 04 00	 ret	 4
?begin@?$vector@HV?$allocator@H@std@@@std@@QAE?AV?$_Vector_iterator@V?$_Vector_val@HV?$allocator@H@std@@@std@@@2@XZ ENDP ; std::vector<int,std::allocator<int> >::begin
_TEXT	ENDS
PUBLIC	?begin@?$vector@HV?$allocator@H@std@@@std@@QBE?AV?$_Vector_const_iterator@V?$_Vector_val@HV?$allocator@H@std@@@std@@@2@XZ ; std::vector<int,std::allocator<int> >::begin
; Function compile flags: /Ogsp
;	COMDAT ?begin@?$vector@HV?$allocator@H@std@@@std@@QBE?AV?$_Vector_const_iterator@V?$_Vector_val@HV?$allocator@H@std@@@std@@@2@XZ
_TEXT	SEGMENT
___$ReturnUdt$ = 8					; size = 4
?begin@?$vector@HV?$allocator@H@std@@@std@@QBE?AV?$_Vector_const_iterator@V?$_Vector_val@HV?$allocator@H@std@@@std@@@2@XZ PROC ; std::vector<int,std::allocator<int> >::begin, COMDAT
; _this$ = ecx

; 786  : 		{	// return iterator for beginning of nonmutable sequence

  00000	55		 push	 ebp
  00001	8b ec		 mov	 ebp, esp

; 787  : 		return (const_iterator(this->_Myfirst, this));

  00003	8b 09		 mov	 ecx, DWORD PTR [ecx]
  00005	8b 45 08	 mov	 eax, DWORD PTR ___$ReturnUdt$[ebp]
  00008	89 08		 mov	 DWORD PTR [eax], ecx

; 788  : 		}

  0000a	5d		 pop	 ebp
  0000b	c2 04 00	 ret	 4
?begin@?$vector@HV?$allocator@H@std@@@std@@QBE?AV?$_Vector_const_iterator@V?$_Vector_val@HV?$allocator@H@std@@@std@@@2@XZ ENDP ; std::vector<int,std::allocator<int> >::begin
_TEXT	ENDS
PUBLIC	?end@?$vector@HV?$allocator@H@std@@@std@@QBE?AV?$_Vector_const_iterator@V?$_Vector_val@HV?$allocator@H@std@@@std@@@2@XZ ; std::vector<int,std::allocator<int> >::end
; Function compile flags: /Ogsp
;	COMDAT ?end@?$vector@HV?$allocator@H@std@@@std@@QBE?AV?$_Vector_const_iterator@V?$_Vector_val@HV?$allocator@H@std@@@std@@@2@XZ
_TEXT	SEGMENT
___$ReturnUdt$ = 8					; size = 4
?end@?$vector@HV?$allocator@H@std@@@std@@QBE?AV?$_Vector_const_iterator@V?$_Vector_val@HV?$allocator@H@std@@@std@@@2@XZ PROC ; std::vector<int,std::allocator<int> >::end, COMDAT
; _this$ = ecx

; 796  : 		{	// return iterator for end of nonmutable sequence

  00000	55		 push	 ebp
  00001	8b ec		 mov	 ebp, esp

; 797  : 		return (const_iterator(this->_Mylast, this));

  00003	8b 49 04	 mov	 ecx, DWORD PTR [ecx+4]
  00006	8b 45 08	 mov	 eax, DWORD PTR ___$ReturnUdt$[ebp]
  00009	89 08		 mov	 DWORD PTR [eax], ecx

; 798  : 		}

  0000b	5d		 pop	 ebp
  0000c	c2 04 00	 ret	 4
?end@?$vector@HV?$allocator@H@std@@@std@@QBE?AV?$_Vector_const_iterator@V?$_Vector_val@HV?$allocator@H@std@@@std@@@2@XZ ENDP ; std::vector<int,std::allocator<int> >::end
_TEXT	ENDS
PUBLIC	??0?$CEncrypt@M@@QAE@XZ				; CEncrypt<float>::CEncrypt<float>
EXTRN	??0ccddaabb@@QAE@XZ:PROC			; ccddaabb::ccddaabb
EXTRN	___CxxFrameHandler3:PROC
EXTRN	__EH_epilog3:PROC
EXTRN	__EH_prolog3:PROC
;	COMDAT xdata$x
; File d:\lost saga for developer\youtube\tutorial\source\src\lsclient\encryptvalue.h
xdata$x	SEGMENT
__unwindtable$??0?$CEncrypt@M@@QAE@XZ DD 0ffffffffH
	DD	FLAT:__unwindfunclet$??0?$CEncrypt@M@@QAE@XZ$0
__ehfuncinfo$??0?$CEncrypt@M@@QAE@XZ DD 019930522H
	DD	01H
	DD	FLAT:__unwindtable$??0?$CEncrypt@M@@QAE@XZ
	DD	2 DUP(00H)
	DD	2 DUP(00H)
	DD	00H
	DD	01H
; Function compile flags: /Ogsp
xdata$x	ENDS
;	COMDAT ??0?$CEncrypt@M@@QAE@XZ
_TEXT	SEGMENT
_this$ = -16						; size = 4
__$EHRec$ = -12						; size = 12
??0?$CEncrypt@M@@QAE@XZ PROC				; CEncrypt<float>::CEncrypt<float>, COMDAT
; _this$ = ecx

; 109  : 	CEncrypt()

  00000	6a 04		 push	 4
  00002	b8 00 00 00 00	 mov	 eax, __ehhandler$??0?$CEncrypt@M@@QAE@XZ
  00007	e8 00 00 00 00	 call	 __EH_prolog3
  0000c	8b f1		 mov	 esi, ecx
  0000e	89 75 f0	 mov	 DWORD PTR _this$[ebp], esi
  00011	8d 4e 0c	 lea	 ecx, DWORD PTR [esi+12]
  00014	c7 06 00 00 00
	00		 mov	 DWORD PTR [esi], OFFSET ??_7?$CEncrypt@M@@6B@
  0001a	e8 00 00 00 00	 call	 ??0ccddaabb@@QAE@XZ	; ccddaabb::ccddaabb
  0001f	83 65 fc 00	 and	 DWORD PTR __$EHRec$[ebp+8], 0

; 110  : 	{
; 111  : 		Init();

  00023	8b ce		 mov	 ecx, esi
  00025	e8 00 00 00 00	 call	 ?Init@?$CEncrypt@M@@AAEXXZ ; CEncrypt<float>::Init

; 112  : 	}

  0002a	8b c6		 mov	 eax, esi
  0002c	e8 00 00 00 00	 call	 __EH_epilog3
  00031	c3		 ret	 0
_TEXT	ENDS
;	COMDAT text$x
text$x	SEGMENT
__unwindfunclet$??0?$CEncrypt@M@@QAE@XZ$0:
  00000	8b 4d f0	 mov	 ecx, DWORD PTR _this$[ebp]
  00003	83 c1 0c	 add	 ecx, 12			; 0000000cH
  00006	e9 00 00 00 00	 jmp	 ??1ccddaabb@@UAE@XZ	; ccddaabb::~ccddaabb
__ehhandler$??0?$CEncrypt@M@@QAE@XZ:
  0000b	8b 54 24 08	 mov	 edx, DWORD PTR [esp+8]
  0000f	8d 42 0c	 lea	 eax, DWORD PTR [edx+12]
  00012	8b 4a ec	 mov	 ecx, DWORD PTR [edx-20]
  00015	33 c8		 xor	 ecx, eax
  00017	e8 00 00 00 00	 call	 @__security_check_cookie@4
  0001c	b8 00 00 00 00	 mov	 eax, OFFSET __ehfuncinfo$??0?$CEncrypt@M@@QAE@XZ
  00021	e9 00 00 00 00	 jmp	 ___CxxFrameHandler3
text$x	ENDS
??0?$CEncrypt@M@@QAE@XZ ENDP				; CEncrypt<float>::CEncrypt<float>
PUBLIC	??B?$CEncrypt@M@@QAEMXZ				; CEncrypt<float>::operator float
; Function compile flags: /Ogsp
;	COMDAT ??B?$CEncrypt@M@@QAEMXZ
_TEXT	SEGMENT
_value$ = -4						; size = 4
??B?$CEncrypt@M@@QAEMXZ PROC				; CEncrypt<float>::operator float, COMDAT
; _this$ = ecx

; 134  : 	{

  00000	55		 push	 ebp
  00001	8b ec		 mov	 ebp, esp
  00003	51		 push	 ecx

; 135  : 		type value;
; 136  : 		DecryptValueToPool(&value);

  00004	8d 45 fc	 lea	 eax, DWORD PTR _value$[ebp]
  00007	50		 push	 eax
  00008	e8 00 00 00 00	 call	 ?DecryptValueToPool@?$CEncrypt@M@@QAEXPAM@Z ; CEncrypt<float>::DecryptValueToPool

; 137  : 
; 138  : #ifdef _NOTUSE
; 139  : 		Debug();
; 140  : #endif
; 141  : 		return value;

  0000d	d9 45 fc	 fld	 DWORD PTR _value$[ebp]

; 142  : 	}

  00010	c9		 leave
  00011	c3		 ret	 0
??B?$CEncrypt@M@@QAEMXZ ENDP				; CEncrypt<float>::operator float
_TEXT	ENDS
PUBLIC	??B?$CEncrypt@M@@QBEMXZ				; CEncrypt<float>::operator float
; Function compile flags: /Ogsp
;	COMDAT ??B?$CEncrypt@M@@QBEMXZ
_TEXT	SEGMENT
_value$ = -4						; size = 4
??B?$CEncrypt@M@@QBEMXZ PROC				; CEncrypt<float>::operator float, COMDAT
; _this$ = ecx

; 145  : 	{

  00000	55		 push	 ebp
  00001	8b ec		 mov	 ebp, esp
  00003	51		 push	 ecx

; 146  : 		//UJ 130829, const도 똑같이 하면 된다 --start
; 147  : 		type value;
; 148  : 		CEncrypt<type>* pThis = const_cast<CEncrypt<type>*>(this);
; 149  : 		pThis->DecryptValueToPool(&value);

  00004	8d 45 fc	 lea	 eax, DWORD PTR _value$[ebp]
  00007	50		 push	 eax
  00008	e8 00 00 00 00	 call	 ?DecryptValueToPool@?$CEncrypt@M@@QAEXPAM@Z ; CEncrypt<float>::DecryptValueToPool

; 150  : 		//// const에서 DecryptValueToPool 사용할 수 없으므로 아래와 같이함.
; 151  :  		//type value;
; 152  : 		//char szTempMem[MAX_ENCRYPT];
; 153  : 		//m_RC5.DecryptByte( m_MemPool, szTempMem, max(m_ValueSize, DEFAULT_ENCRYPT) );
; 154  : 		//memcpy( &value, szTempMem, m_ValueSize );
; 155  : 		//UJ --end
; 156  : 
; 157  : #ifdef _NOTUSE
; 158  : 		Debug();
; 159  : #endif
; 160  : 		return value;

  0000d	d9 45 fc	 fld	 DWORD PTR _value$[ebp]

; 161  : 	}

  00010	c9		 leave
  00011	c3		 ret	 0
??B?$CEncrypt@M@@QBEMXZ ENDP				; CEncrypt<float>::operator float
_TEXT	ENDS
PUBLIC	??4?$CEncrypt@M@@QAEMM@Z			; CEncrypt<float>::operator=
; Function compile flags: /Ogsp
;	COMDAT ??4?$CEncrypt@M@@QAEMM@Z
_TEXT	SEGMENT
_value$ = 8						; size = 4
_inValue$ = 8						; size = 4
??4?$CEncrypt@M@@QAEMM@Z PROC				; CEncrypt<float>::operator=, COMDAT
; _this$ = ecx

; 1654 : 	{	

  00000	55		 push	 ebp
  00001	8b ec		 mov	 ebp, esp

; 1655 : 		type value = inValue;

  00003	d9 45 08	 fld	 DWORD PTR _inValue$[ebp]

; 1656 : 		EncryptValueToPool((char*)&value);

  00006	8d 45 08	 lea	 eax, DWORD PTR _value$[ebp]
  00009	50		 push	 eax
  0000a	d9 5d 08	 fstp	 DWORD PTR _value$[ebp]
  0000d	e8 00 00 00 00	 call	 ?EncryptValueToPool@?$CEncrypt@M@@AAEXPBD@Z ; CEncrypt<float>::EncryptValueToPool

; 1657 : #ifdef _NOTUSE
; 1658 : 		m_value = inValue;
; 1659 : 		Debug();
; 1660 : #endif
; 1661 : 		return value;

  00012	d9 45 08	 fld	 DWORD PTR _value$[ebp]

; 1662 : 	}

  00015	5d		 pop	 ebp
  00016	c2 04 00	 ret	 4
??4?$CEncrypt@M@@QAEMM@Z ENDP				; CEncrypt<float>::operator=
_TEXT	ENDS
PUBLIC	??4?$CEncrypt@K@@QAEKK@Z			; CEncrypt<unsigned long>::operator=
; Function compile flags: /Ogsp
;	COMDAT ??4?$CEncrypt@K@@QAEKK@Z
_TEXT	SEGMENT
_value$ = 8						; size = 4
_inValue$ = 8						; size = 4
??4?$CEncrypt@K@@QAEKK@Z PROC				; CEncrypt<unsigned long>::operator=, COMDAT
; _this$ = ecx

; 1262 : 	{

  00000	55		 push	 ebp
  00001	8b ec		 mov	 ebp, esp

; 1263 : 		
; 1264 : 		type value = inValue;

  00003	8b 45 08	 mov	 eax, DWORD PTR _inValue$[ebp]
  00006	89 45 08	 mov	 DWORD PTR _value$[ebp], eax

; 1265 : 		EncryptValueToPool((char*)&value);

  00009	8d 45 08	 lea	 eax, DWORD PTR _value$[ebp]
  0000c	50		 push	 eax
  0000d	e8 00 00 00 00	 call	 ?EncryptValueToPool@?$CEncrypt@K@@AAEXPBD@Z ; CEncrypt<unsigned long>::EncryptValueToPool

; 1266 : #ifdef _NOTUSE
; 1267 : 		m_value = inValue;
; 1268 : 		Debug();
; 1269 : #endif
; 1270 : 		return value;

  00012	8b 45 08	 mov	 eax, DWORD PTR _value$[ebp]

; 1271 : 	}

  00015	5d		 pop	 ebp
  00016	c2 04 00	 ret	 4
??4?$CEncrypt@K@@QAEKK@Z ENDP				; CEncrypt<unsigned long>::operator=
_TEXT	ENDS
PUBLIC	??B?$CEncrypt@_N@@QBE_NXZ			; CEncrypt<bool>::operator bool
; Function compile flags: /Ogsp
;	COMDAT ??B?$CEncrypt@_N@@QBE_NXZ
_TEXT	SEGMENT
_value$ = -1						; size = 1
??B?$CEncrypt@_N@@QBE_NXZ PROC				; CEncrypt<bool>::operator bool, COMDAT
; _this$ = ecx

; 145  : 	{

  00000	55		 push	 ebp
  00001	8b ec		 mov	 ebp, esp
  00003	51		 push	 ecx

; 146  : 		//UJ 130829, const도 똑같이 하면 된다 --start
; 147  : 		type value;
; 148  : 		CEncrypt<type>* pThis = const_cast<CEncrypt<type>*>(this);
; 149  : 		pThis->DecryptValueToPool(&value);

  00004	8d 45 ff	 lea	 eax, DWORD PTR _value$[ebp]
  00007	50		 push	 eax
  00008	e8 00 00 00 00	 call	 ?DecryptValueToPool@?$CEncrypt@_N@@QAEXPA_N@Z ; CEncrypt<bool>::DecryptValueToPool

; 150  : 		//// const에서 DecryptValueToPool 사용할 수 없으므로 아래와 같이함.
; 151  :  		//type value;
; 152  : 		//char szTempMem[MAX_ENCRYPT];
; 153  : 		//m_RC5.DecryptByte( m_MemPool, szTempMem, max(m_ValueSize, DEFAULT_ENCRYPT) );
; 154  : 		//memcpy( &value, szTempMem, m_ValueSize );
; 155  : 		//UJ --end
; 156  : 
; 157  : #ifdef _NOTUSE
; 158  : 		Debug();
; 159  : #endif
; 160  : 		return value;

  0000d	8a 45 ff	 mov	 al, BYTE PTR _value$[ebp]

; 161  : 	}

  00010	c9		 leave
  00011	c3		 ret	 0
??B?$CEncrypt@_N@@QBE_NXZ ENDP				; CEncrypt<bool>::operator bool
_TEXT	ENDS
PUBLIC	??B?$CEncrypt@H@@QBEHXZ				; CEncrypt<int>::operator int
; Function compile flags: /Ogsp
;	COMDAT ??B?$CEncrypt@H@@QBEHXZ
_TEXT	SEGMENT
_value$ = -4						; size = 4
??B?$CEncrypt@H@@QBEHXZ PROC				; CEncrypt<int>::operator int, COMDAT
; _this$ = ecx

; 145  : 	{

  00000	55		 push	 ebp
  00001	8b ec		 mov	 ebp, esp
  00003	51		 push	 ecx

; 146  : 		//UJ 130829, const도 똑같이 하면 된다 --start
; 147  : 		type value;
; 148  : 		CEncrypt<type>* pThis = const_cast<CEncrypt<type>*>(this);
; 149  : 		pThis->DecryptValueToPool(&value);

  00004	8d 45 fc	 lea	 eax, DWORD PTR _value$[ebp]
  00007	50		 push	 eax
  00008	e8 00 00 00 00	 call	 ?DecryptValueToPool@?$CEncrypt@H@@QAEXPAH@Z ; CEncrypt<int>::DecryptValueToPool

; 150  : 		//// const에서 DecryptValueToPool 사용할 수 없으므로 아래와 같이함.
; 151  :  		//type value;
; 152  : 		//char szTempMem[MAX_ENCRYPT];
; 153  : 		//m_RC5.DecryptByte( m_MemPool, szTempMem, max(m_ValueSize, DEFAULT_ENCRYPT) );
; 154  : 		//memcpy( &value, szTempMem, m_ValueSize );
; 155  : 		//UJ --end
; 156  : 
; 157  : #ifdef _NOTUSE
; 158  : 		Debug();
; 159  : #endif
; 160  : 		return value;

  0000d	8b 45 fc	 mov	 eax, DWORD PTR _value$[ebp]

; 161  : 	}

  00010	c9		 leave
  00011	c3		 ret	 0
??B?$CEncrypt@H@@QBEHXZ ENDP				; CEncrypt<int>::operator int
_TEXT	ENDS
PUBLIC	?end@?$vector@HV?$allocator@H@std@@@std@@QAE?AV?$_Vector_iterator@V?$_Vector_val@HV?$allocator@H@std@@@std@@@2@XZ ; std::vector<int,std::allocator<int> >::end
; Function compile flags: /Ogsp
; File c:\program files (x86)\microsoft visual studio 10.0\vc\include\vector
;	COMDAT ?end@?$vector@HV?$allocator@H@std@@@std@@QAE?AV?$_Vector_iterator@V?$_Vector_val@HV?$allocator@H@std@@@std@@@2@XZ
_TEXT	SEGMENT
___$ReturnUdt$ = 8					; size = 4
?end@?$vector@HV?$allocator@H@std@@@std@@QAE?AV?$_Vector_iterator@V?$_Vector_val@HV?$allocator@H@std@@@std@@@2@XZ PROC ; std::vector<int,std::allocator<int> >::end, COMDAT
; _this$ = ecx

; 791  : 		{	// return iterator for end of mutable sequence

  00000	55		 push	 ebp
  00001	8b ec		 mov	 ebp, esp

; 792  : 		return (iterator(this->_Mylast, this));

  00003	8b 49 04	 mov	 ecx, DWORD PTR [ecx+4]
  00006	8b 45 08	 mov	 eax, DWORD PTR ___$ReturnUdt$[ebp]
  00009	89 08		 mov	 DWORD PTR [eax], ecx

; 793  : 		}

  0000b	5d		 pop	 ebp
  0000c	c2 04 00	 ret	 4
?end@?$vector@HV?$allocator@H@std@@@std@@QAE?AV?$_Vector_iterator@V?$_Vector_val@HV?$allocator@H@std@@@std@@@2@XZ ENDP ; std::vector<int,std::allocator<int> >::end
_TEXT	ENDS
PUBLIC	??0?$_Vector_val@HV?$allocator@H@std@@@std@@QAE@V?$allocator@H@1@@Z ; std::_Vector_val<int,std::allocator<int> >::_Vector_val<int,std::allocator<int> >
; Function compile flags: /Ogsp
;	COMDAT ??0?$_Vector_val@HV?$allocator@H@std@@@std@@QAE@V?$allocator@H@1@@Z
_TEXT	SEGMENT
__Al$ = 8						; size = 1
??0?$_Vector_val@HV?$allocator@H@std@@@std@@QAE@V?$allocator@H@1@@Z PROC ; std::_Vector_val<int,std::allocator<int> >::_Vector_val<int,std::allocator<int> >, COMDAT
; _this$ = ecx

; 426  : 		{	// construct allocator from _Al

  00000	8b c1		 mov	 eax, ecx

; 427  : 		_Myfirst = 0;

  00002	33 c9		 xor	 ecx, ecx
  00004	89 08		 mov	 DWORD PTR [eax], ecx

; 428  : 		_Mylast = 0;

  00006	89 48 04	 mov	 DWORD PTR [eax+4], ecx

; 429  : 		_Myend = 0;

  00009	89 48 08	 mov	 DWORD PTR [eax+8], ecx

; 430  : 		}

  0000c	c2 04 00	 ret	 4
??0?$_Vector_val@HV?$allocator@H@std@@@std@@QAE@V?$allocator@H@1@@Z ENDP ; std::_Vector_val<int,std::allocator<int> >::_Vector_val<int,std::allocator<int> >
_TEXT	ENDS
PUBLIC	?max_size@?$vector@HV?$allocator@H@std@@@std@@QBEIXZ ; std::vector<int,std::allocator<int> >::max_size
; Function compile flags: /Ogsp
;	COMDAT ?max_size@?$vector@HV?$allocator@H@std@@@std@@QBEIXZ
_TEXT	SEGMENT
?max_size@?$vector@HV?$allocator@H@std@@@std@@QBEIXZ PROC ; std::vector<int,std::allocator<int> >::max_size, COMDAT
; _this$ = ecx

; 884  : 		return (this->_Alval.max_size());

  00000	b8 ff ff ff 3f	 mov	 eax, 1073741823		; 3fffffffH

; 885  : 		}

  00005	c3		 ret	 0
?max_size@?$vector@HV?$allocator@H@std@@@std@@QBEIXZ ENDP ; std::vector<int,std::allocator<int> >::max_size
_TEXT	ENDS
PUBLIC	?_Grow_to@?$vector@HV?$allocator@H@std@@@std@@IBEII@Z ; std::vector<int,std::allocator<int> >::_Grow_to
; Function compile flags: /Ogsp
;	COMDAT ?_Grow_to@?$vector@HV?$allocator@H@std@@@std@@IBEII@Z
_TEXT	SEGMENT
__Count$ = 8						; size = 4
?_Grow_to@?$vector@HV?$allocator@H@std@@@std@@IBEII@Z PROC ; std::vector<int,std::allocator<int> >::_Grow_to, COMDAT
; _this$ = ecx

; 1274 : 		{	// grow by 50% or at least to _Count

  00000	55		 push	 ebp
  00001	8b ec		 mov	 ebp, esp

; 1275 : 		size_type _Capacity = capacity();

  00003	8b 41 08	 mov	 eax, DWORD PTR [ecx+8]
  00006	2b 01		 sub	 eax, DWORD PTR [ecx]

; 1276 : 
; 1277 : 		_Capacity = max_size() - _Capacity / 2 < _Capacity
; 1278 : 			? 0 : _Capacity + _Capacity / 2;	// try to grow by 50%

  00008	ba ff ff ff 3f	 mov	 edx, 1073741823		; 3fffffffH
  0000d	c1 f8 02	 sar	 eax, 2
  00010	8b c8		 mov	 ecx, eax
  00012	d1 e9		 shr	 ecx, 1
  00014	2b d1		 sub	 edx, ecx
  00016	3b d0		 cmp	 edx, eax
  00018	73 04		 jae	 SHORT $LN4@Grow_to
  0001a	33 c0		 xor	 eax, eax
  0001c	eb 02		 jmp	 SHORT $LN5@Grow_to
$LN4@Grow_to:
  0001e	03 c1		 add	 eax, ecx
$LN5@Grow_to:

; 1279 : 		if (_Capacity < _Count)

  00020	3b 45 08	 cmp	 eax, DWORD PTR __Count$[ebp]

; 1280 : 			_Capacity = _Count;

  00023	0f 42 45 08	 cmovb	 eax, DWORD PTR __Count$[ebp]

; 1281 : 		return (_Capacity);
; 1282 : 		}

  00027	5d		 pop	 ebp
  00028	c2 04 00	 ret	 4
?_Grow_to@?$vector@HV?$allocator@H@std@@@std@@IBEII@Z ENDP ; std::vector<int,std::allocator<int> >::_Grow_to
_TEXT	ENDS
PUBLIC	?allocate@?$allocator@H@std@@QAEPAHI@Z		; std::allocator<int>::allocate
; Function compile flags: /Ogsp
; File c:\program files (x86)\microsoft visual studio 10.0\vc\include\xmemory
;	COMDAT ?allocate@?$allocator@H@std@@QAEPAHI@Z
_TEXT	SEGMENT
__Count$ = 8						; size = 4
?allocate@?$allocator@H@std@@QAEPAHI@Z PROC		; std::allocator<int>::allocate, COMDAT
; _this$ = ecx

; 186  : 		{	// allocate array of _Count elements

  00000	55		 push	 ebp
  00001	8b ec		 mov	 ebp, esp

; 187  : 		return (_Allocate(_Count, (pointer)0));

  00003	6a 00		 push	 0
  00005	ff 75 08	 push	 DWORD PTR __Count$[ebp]
  00008	e8 00 00 00 00	 call	 ??$_Allocate@H@std@@YAPAHIPAH@Z ; std::_Allocate<int>
  0000d	59		 pop	 ecx
  0000e	59		 pop	 ecx

; 188  : 		}

  0000f	5d		 pop	 ebp
  00010	c2 04 00	 ret	 4
?allocate@?$allocator@H@std@@QAEPAHI@Z ENDP		; std::allocator<int>::allocate
_TEXT	ENDS
PUBLIC	??8?$_Vector_const_iterator@V?$_Vector_val@HV?$allocator@H@std@@@std@@@std@@QBE_NABV01@@Z ; std::_Vector_const_iterator<std::_Vector_val<int,std::allocator<int> > >::operator==
; Function compile flags: /Ogsp
; File c:\program files (x86)\microsoft visual studio 10.0\vc\include\vector
;	COMDAT ??8?$_Vector_const_iterator@V?$_Vector_val@HV?$allocator@H@std@@@std@@@std@@QBE_NABV01@@Z
_TEXT	SEGMENT
__Right$ = 8						; size = 4
??8?$_Vector_const_iterator@V?$_Vector_val@HV?$allocator@H@std@@@std@@@std@@QBE_NABV01@@Z PROC ; std::_Vector_const_iterator<std::_Vector_val<int,std::allocator<int> > >::operator==, COMDAT
; _this$ = ecx

; 201  : 		{	// test for iterator equality

  00000	55		 push	 ebp
  00001	8b ec		 mov	 ebp, esp

; 202  : 		_Compat(_Right);
; 203  : 		return (this->_Ptr == _Right._Ptr);

  00003	8b 01		 mov	 eax, DWORD PTR [ecx]
  00005	8b 4d 08	 mov	 ecx, DWORD PTR __Right$[ebp]
  00008	2b 01		 sub	 eax, DWORD PTR [ecx]
  0000a	f7 d8		 neg	 eax
  0000c	1b c0		 sbb	 eax, eax
  0000e	40		 inc	 eax

; 204  : 		}

  0000f	5d		 pop	 ebp
  00010	c2 04 00	 ret	 4
??8?$_Vector_const_iterator@V?$_Vector_val@HV?$allocator@H@std@@@std@@@std@@QBE_NABV01@@Z ENDP ; std::_Vector_const_iterator<std::_Vector_val<int,std::allocator<int> > >::operator==
_TEXT	ENDS
PUBLIC	??$_Move@PAHPAH@std@@YAPAHPAH00@Z		; std::_Move<int *,int *>
; Function compile flags: /Ogsp
; File c:\program files (x86)\microsoft visual studio 10.0\vc\include\xutility
;	COMDAT ??$_Move@PAHPAH@std@@YAPAHPAH00@Z
_TEXT	SEGMENT
__Cat$534010 = -4					; size = 1
__First$ = 8						; size = 4
__Last$ = 12						; size = 4
__Dest$ = 16						; size = 4
??$_Move@PAHPAH@std@@YAPAHPAH00@Z PROC			; std::_Move<int *,int *>, COMDAT

; 2533 : 	{	// move [_First, _Last) to [_Dest, ...), unchecked

  00000	55		 push	 ebp
  00001	8b ec		 mov	 ebp, esp
  00003	51		 push	 ecx

; 2534 : 	return (_Move(_First, _Last,
; 2535 : 		_Dest, _Ptr_cat(_First, _Dest)));

  00004	ff 75 fc	 push	 DWORD PTR __Cat$534010[ebp]
  00007	ff 75 10	 push	 DWORD PTR __Dest$[ebp]
  0000a	ff 75 0c	 push	 DWORD PTR __Last$[ebp]
  0000d	ff 75 08	 push	 DWORD PTR __First$[ebp]
  00010	e8 00 00 00 00	 call	 ??$_Move@PAHPAH@std@@YAPAHPAH00U_Scalar_ptr_iterator_tag@0@@Z ; std::_Move<int *,int *>
  00015	83 c4 10	 add	 esp, 16			; 00000010H

; 2536 : 	}

  00018	c9		 leave
  00019	c3		 ret	 0
??$_Move@PAHPAH@std@@YAPAHPAH00@Z ENDP			; std::_Move<int *,int *>
_TEXT	ENDS
PUBLIC	??$_Destroy_range@V?$allocator@H@std@@@std@@YAXPAH0AAV?$allocator@H@0@@Z ; std::_Destroy_range<std::allocator<int> >
; Function compile flags: /Ogsp
; File c:\program files (x86)\microsoft visual studio 10.0\vc\include\xmemory
;	COMDAT ??$_Destroy_range@V?$allocator@H@std@@@std@@YAXPAH0AAV?$allocator@H@0@@Z
_TEXT	SEGMENT
__First$ = 8						; size = 4
__Last$ = 12						; size = 4
__Al$ = 16						; size = 4
??$_Destroy_range@V?$allocator@H@std@@@std@@YAXPAH0AAV?$allocator@H@0@@Z PROC ; std::_Destroy_range<std::allocator<int> >, COMDAT

; 88   : 	_Destroy_range(_First, _Last, _Al, _Ptr_cat(_First, _Last));
; 89   : 	}

  00000	c3		 ret	 0
??$_Destroy_range@V?$allocator@H@std@@@std@@YAXPAH0AAV?$allocator@H@0@@Z ENDP ; std::_Destroy_range<std::allocator<int> >
_TEXT	ENDS
PUBLIC	??$_Uninitialized_move@PAHPAHV?$allocator@H@std@@@std@@YAPAHPAH00AAV?$allocator@H@0@@Z ; std::_Uninitialized_move<int *,int *,std::allocator<int> >
; Function compile flags: /Ogsp
; File c:\program files (x86)\microsoft visual studio 10.0\vc\include\memory
;	COMDAT ??$_Uninitialized_move@PAHPAHV?$allocator@H@std@@@std@@YAPAHPAH00AAV?$allocator@H@0@@Z
_TEXT	SEGMENT
__First$ = 8						; size = 4
__Last$ = 12						; size = 4
__Dest$ = 16						; size = 4
__Al$ = 20						; size = 4
??$_Uninitialized_move@PAHPAHV?$allocator@H@std@@@std@@YAPAHPAH00AAV?$allocator@H@0@@Z PROC ; std::_Uninitialized_move<int *,int *,std::allocator<int> >, COMDAT

; 469  : 	{	// move [_First, _Last) to raw _Dest, using _Al

  00000	55		 push	 ebp
  00001	8b ec		 mov	 ebp, esp
  00003	56		 push	 esi

; 470  : 	return (_Uninit_move(_First, _Last, _Dest, _Al,
; 471  : 		_Val_type(_First), _Ptr_cat(_First, _Dest)));

  00004	8b 75 0c	 mov	 esi, DWORD PTR __Last$[ebp]
  00007	2b 75 08	 sub	 esi, DWORD PTR __First$[ebp]
  0000a	c1 fe 02	 sar	 esi, 2
  0000d	c1 e6 02	 shl	 esi, 2
  00010	56		 push	 esi
  00011	ff 75 08	 push	 DWORD PTR __First$[ebp]
  00014	ff 75 10	 push	 DWORD PTR __Dest$[ebp]
  00017	ff 15 00 00 00
	00		 call	 DWORD PTR __imp__memmove
  0001d	83 c4 0c	 add	 esp, 12			; 0000000cH
  00020	03 c6		 add	 eax, esi
  00022	5e		 pop	 esi

; 472  : 	}

  00023	5d		 pop	 ebp
  00024	c3		 ret	 0
??$_Uninitialized_move@PAHPAHV?$allocator@H@std@@@std@@YAPAHPAH00AAV?$allocator@H@0@@Z ENDP ; std::_Uninitialized_move<int *,int *,std::allocator<int> >
_TEXT	ENDS
PUBLIC	?StartBuffWithAniTime@ioDamageConvertBuff@@UAEXPAVioBaseChar@@K@Z ; ioDamageConvertBuff::StartBuffWithAniTime
EXTRN	?GetBuffDuration@ioBuff@@IAEKXZ:PROC		; ioBuff::GetBuffDuration
EXTRN	__imp_?GetLoopSec@ioFrameTimer@@QBEKXZ:PROC
EXTRN	__imp_?GetSingleton@ioFrameTimer@@SAAAV1@XZ:PROC
; Function compile flags: /Ogsp
; File d:\lost saga for developer\youtube\tutorial\source\src\lsclient\iodamageconvertbuff.cpp
;	COMDAT ?StartBuffWithAniTime@ioDamageConvertBuff@@UAEXPAVioBaseChar@@K@Z
_TEXT	SEGMENT
_value$534042 = 8					; size = 4
_pOwner$ = 8						; size = 4
_dwAniTime$ = 12					; size = 4
?StartBuffWithAniTime@ioDamageConvertBuff@@UAEXPAVioBaseChar@@K@Z PROC ; ioDamageConvertBuff::StartBuffWithAniTime, COMDAT
; _this$ = ecx

; 97   : {

  00000	55		 push	 ebp
  00001	8b ec		 mov	 ebp, esp
  00003	56		 push	 esi
  00004	57		 push	 edi

; 98   : 	ioBuff::StartBuff( pOwner );

  00005	ff 75 08	 push	 DWORD PTR _pOwner$[ebp]
  00008	8b f1		 mov	 esi, ecx
  0000a	e8 00 00 00 00	 call	 ?StartBuff@ioBuff@@UAEXPAVioBaseChar@@@Z ; ioBuff::StartBuff

; 99   : 
; 100  : 	pOwner->CheckDamageInfo( true );

  0000f	8b 4d 08	 mov	 ecx, DWORD PTR _pOwner$[ebp]
  00012	6a 01		 push	 1
  00014	e8 00 00 00 00	 call	 ?CheckDamageInfo@ioBaseChar@@QAEX_N@Z ; ioBaseChar::CheckDamageInfo

; 101  : 	m_dwBuffEndTime = FRAMEGETTIME() + GetBuffDuration();

  00019	ff 15 00 00 00
	00		 call	 DWORD PTR __imp_?GetSingleton@ioFrameTimer@@SAAAV1@XZ
  0001f	8b c8		 mov	 ecx, eax
  00021	ff 15 00 00 00
	00		 call	 DWORD PTR __imp_?GetLoopSec@ioFrameTimer@@QBEKXZ
  00027	8b ce		 mov	 ecx, esi
  00029	8b f8		 mov	 edi, eax
  0002b	e8 00 00 00 00	 call	 ?GetBuffDuration@ioBuff@@IAEKXZ ; ioBuff::GetBuffDuration
  00030	03 f8		 add	 edi, eax
  00032	8d 45 08	 lea	 eax, DWORD PTR _value$534042[ebp]
  00035	50		 push	 eax
  00036	8d 8e 9c 03 00
	00		 lea	 ecx, DWORD PTR [esi+924]
  0003c	89 7d 08	 mov	 DWORD PTR _value$534042[ebp], edi
  0003f	e8 00 00 00 00	 call	 ?EncryptValueToPool@?$CEncrypt@K@@AAEXPBD@Z ; CEncrypt<unsigned long>::EncryptValueToPool
  00044	5f		 pop	 edi
  00045	5e		 pop	 esi

; 102  : #ifdef ANTIHACK
; 103  : 	SetRecoverBuff();
; 104  : #endif
; 105  : }

  00046	5d		 pop	 ebp
  00047	c2 08 00	 ret	 8
?StartBuffWithAniTime@ioDamageConvertBuff@@UAEXPAVioBaseChar@@K@Z ENDP ; ioDamageConvertBuff::StartBuffWithAniTime
_TEXT	ENDS
PUBLIC	__real@00000000
PUBLIC	?GetRecoveryGaugeByAttack@ioDamageConvertBuff@@IAEMXZ ; ioDamageConvertBuff::GetRecoveryGaugeByAttack
EXTRN	?GetAttackDamageInfoList@ioBaseChar@@QBEABV?$vector@UDamageInfo@@V?$allocator@UDamageInfo@@@std@@@std@@XZ:PROC ; ioBaseChar::GetAttackDamageInfoList
EXTRN	?GetOwner@ioBuff@@QAEPAVioBaseChar@@XZ:PROC	; ioBuff::GetOwner
;	COMDAT __real@00000000
; File d:\lost saga for developer\youtube\tutorial\source\src\lsclient\encryptvalue.h
CONST	SEGMENT
__real@00000000 DD 000000000r			; 0
; Function compile flags: /Ogsp
; File d:\lost saga for developer\youtube\tutorial\source\src\lsclient\iodamageconvertbuff.cpp
CONST	ENDS
;	COMDAT ?GetRecoveryGaugeByAttack@ioDamageConvertBuff@@IAEMXZ
_TEXT	SEGMENT
_value$534085 = -28					; size = 4
_value$534080 = -24					; size = 4
_value$534076 = -20					; size = 4
_value$534072 = -16					; size = 4
_value$534055 = -12					; size = 4
_fDamage$531072 = -12					; size = 4
_fAttackGauge$ = -8					; size = 4
_this$ = -4						; size = 4
?GetRecoveryGaugeByAttack@ioDamageConvertBuff@@IAEMXZ PROC ; ioDamageConvertBuff::GetRecoveryGaugeByAttack, COMDAT
; _this$ = ecx

; 248  : {

  00000	55		 push	 ebp
  00001	8b ec		 mov	 ebp, esp
  00003	83 ec 1c	 sub	 esp, 28			; 0000001cH
  00006	56		 push	 esi
  00007	8b f1		 mov	 esi, ecx

; 249  : 	if( m_fAttackRecoveryGauge <= 0.0f )

  00009	8d 45 f4	 lea	 eax, DWORD PTR _value$534055[ebp]
  0000c	8d 8e d0 09 00
	00		 lea	 ecx, DWORD PTR [esi+2512]
  00012	50		 push	 eax
  00013	89 75 fc	 mov	 DWORD PTR _this$[ebp], esi
  00016	e8 00 00 00 00	 call	 ?DecryptValueToPool@?$CEncrypt@M@@QAEXPAM@Z ; CEncrypt<float>::DecryptValueToPool
  0001b	0f 57 c0	 xorps	 xmm0, xmm0
  0001e	0f 2f 45 f4	 comiss	 xmm0, DWORD PTR _value$534055[ebp]
  00022	72 07		 jb	 SHORT $LN9@GetRecover
$LN38@GetRecover:

; 250  : 		return 0.0f;

  00024	d9 ee		 fldz
  00026	e9 ff 00 00 00	 jmp	 $LN10@GetRecover
$LN9@GetRecover:

; 251  : 
; 252  : 	ioBaseChar *pOwner = GetOwner();

  0002b	8b ce		 mov	 ecx, esi
  0002d	e8 00 00 00 00	 call	 ?GetOwner@ioBuff@@QAEPAVioBaseChar@@XZ ; ioBuff::GetOwner

; 253  : 	if( !pOwner )

  00032	85 c0		 test	 eax, eax

; 254  : 		return 0.0f;

  00034	74 ee		 je	 SHORT $LN38@GetRecover

; 255  : 
; 256  : 	const DamageInfoList &rkInfoList = pOwner->GetAttackDamageInfoList();

  00036	57		 push	 edi
  00037	8b c8		 mov	 ecx, eax
  00039	e8 00 00 00 00	 call	 ?GetAttackDamageInfoList@ioBaseChar@@QBEABV?$vector@UDamageInfo@@V?$allocator@UDamageInfo@@@std@@@std@@XZ ; ioBaseChar::GetAttackDamageInfoList
  0003e	8b f8		 mov	 edi, eax

; 257  : 
; 258  : 	int iAttackCnt = rkInfoList.size();

  00040	8b 77 04	 mov	 esi, DWORD PTR [edi+4]
  00043	2b 37		 sub	 esi, DWORD PTR [edi]
  00045	c1 fe 03	 sar	 esi, 3

; 259  : 	if( iAttackCnt == 0 )

  00048	85 f6		 test	 esi, esi
  0004a	75 07		 jne	 SHORT $LN7@GetRecover

; 260  : 		return 0.0f;

  0004c	d9 ee		 fldz
  0004e	e9 d6 00 00 00	 jmp	 $LN36@GetRecover
$LN7@GetRecover:

; 261  : 
; 262  : 	float fAttackGauge = 0.0f;

  00053	0f 57 c0	 xorps	 xmm0, xmm0
  00056	53		 push	 ebx

; 263  : 	for( int i=0; i < iAttackCnt; ++i )

  00057	33 db		 xor	 ebx, ebx
  00059	f3 0f 11 45 f8	 movss	 DWORD PTR _fAttackGauge$[ebp], xmm0
  0005e	85 f6		 test	 esi, esi
  00060	0f 8e bf 00 00
	00		 jle	 $LN4@GetRecover
$LL6@GetRecover:
  00066	8b 07		 mov	 eax, DWORD PTR [edi]

; 264  : 	{
; 265  : 		float fDamage = rkInfoList[i].m_fDamage;
; 266  : 		int iAttackType = (int)rkInfoList[i].m_AttackType;
; 267  : 
; 268  : 		if( CheckElementType( iAttackType ) )

  00068	8b 4d fc	 mov	 ecx, DWORD PTR _this$[ebp]
  0006b	8d 04 d8	 lea	 eax, DWORD PTR [eax+ebx*8]
  0006e	f3 0f 10 00	 movss	 xmm0, DWORD PTR [eax]
  00072	ff 70 04	 push	 DWORD PTR [eax+4]
  00075	f3 0f 11 45 f4	 movss	 DWORD PTR _fDamage$531072[ebp], xmm0
  0007a	e8 00 00 00 00	 call	 ?CheckElementType@ioDamageConvertBuff@@IAE_NH@Z ; ioDamageConvertBuff::CheckElementType
  0007f	84 c0		 test	 al, al
  00081	0f 84 95 00 00
	00		 je	 $LN5@GetRecover

; 269  : 		{
; 270  : 			if( m_fAttackRecoveryRate <= 0.0f )

  00087	8b 4d fc	 mov	 ecx, DWORD PTR _this$[ebp]
  0008a	8d 45 f0	 lea	 eax, DWORD PTR _value$534072[ebp]
  0008d	81 c1 00 0a 00
	00		 add	 ecx, 2560		; 00000a00H
  00093	50		 push	 eax
  00094	e8 00 00 00 00	 call	 ?DecryptValueToPool@?$CEncrypt@M@@QAEXPAM@Z ; CEncrypt<float>::DecryptValueToPool
  00099	0f 57 c0	 xorps	 xmm0, xmm0
  0009c	0f 2f 45 f0	 comiss	 xmm0, DWORD PTR _value$534072[ebp]

; 271  : 				fAttackGauge += fDamage * m_fAttackRecoveryGauge;

  000a0	8b 4d fc	 mov	 ecx, DWORD PTR _this$[ebp]
  000a3	72 21		 jb	 SHORT $LN2@GetRecover
  000a5	8d 45 ec	 lea	 eax, DWORD PTR _value$534076[ebp]
  000a8	50		 push	 eax
  000a9	81 c1 d0 09 00
	00		 add	 ecx, 2512		; 000009d0H
  000af	e8 00 00 00 00	 call	 ?DecryptValueToPool@?$CEncrypt@M@@QAEXPAM@Z ; CEncrypt<float>::DecryptValueToPool
  000b4	f3 0f 10 45 ec	 movss	 xmm0, DWORD PTR _value$534076[ebp]
  000b9	f3 0f 10 4d f4	 movss	 xmm1, DWORD PTR _fDamage$531072[ebp]
  000be	0f 5a c0	 cvtps2pd xmm0, xmm0
  000c1	0f 5a c9	 cvtps2pd xmm1, xmm1

; 272  : 			else

  000c4	eb 3d		 jmp	 SHORT $LN37@GetRecover
$LN2@GetRecover:

; 273  : 				fAttackGauge += fDamage * m_fAttackRecoveryRate * m_fAttackRecoveryGauge;

  000c6	8d 45 e8	 lea	 eax, DWORD PTR _value$534080[ebp]
  000c9	50		 push	 eax
  000ca	81 c1 00 0a 00
	00		 add	 ecx, 2560		; 00000a00H
  000d0	e8 00 00 00 00	 call	 ?DecryptValueToPool@?$CEncrypt@M@@QAEXPAM@Z ; CEncrypt<float>::DecryptValueToPool
  000d5	8b 4d fc	 mov	 ecx, DWORD PTR _this$[ebp]
  000d8	8d 45 e4	 lea	 eax, DWORD PTR _value$534085[ebp]
  000db	50		 push	 eax
  000dc	81 c1 d0 09 00
	00		 add	 ecx, 2512		; 000009d0H
  000e2	e8 00 00 00 00	 call	 ?DecryptValueToPool@?$CEncrypt@M@@QAEXPAM@Z ; CEncrypt<float>::DecryptValueToPool
  000e7	f3 0f 10 45 e8	 movss	 xmm0, DWORD PTR _value$534080[ebp]
  000ec	f3 0f 10 4d f4	 movss	 xmm1, DWORD PTR _fDamage$531072[ebp]
  000f1	0f 5a c9	 cvtps2pd xmm1, xmm1
  000f4	0f 5a c0	 cvtps2pd xmm0, xmm0
  000f7	f2 0f 59 c1	 mulsd	 xmm0, xmm1
  000fb	f3 0f 10 4d e4	 movss	 xmm1, DWORD PTR _value$534085[ebp]
  00100	0f 5a c9	 cvtps2pd xmm1, xmm1
$LN37@GetRecover:
  00103	f2 0f 59 c1	 mulsd	 xmm0, xmm1
  00107	f3 0f 10 4d f8	 movss	 xmm1, DWORD PTR _fAttackGauge$[ebp]
  0010c	0f 5a c9	 cvtps2pd xmm1, xmm1
  0010f	f2 0f 58 c1	 addsd	 xmm0, xmm1
  00113	66 0f 5a c0	 cvtpd2ps xmm0, xmm0
  00117	f3 0f 11 45 f8	 movss	 DWORD PTR _fAttackGauge$[ebp], xmm0
$LN5@GetRecover:

; 263  : 	for( int i=0; i < iAttackCnt; ++i )

  0011c	43		 inc	 ebx
  0011d	3b de		 cmp	 ebx, esi
  0011f	0f 8c 41 ff ff
	ff		 jl	 $LL6@GetRecover
$LN4@GetRecover:

; 274  : 		}
; 275  : 	}
; 276  : 
; 277  : 	return fAttackGauge;

  00125	d9 45 f8	 fld	 DWORD PTR _fAttackGauge$[ebp]
  00128	5b		 pop	 ebx
$LN36@GetRecover:
  00129	5f		 pop	 edi
$LN10@GetRecover:
  0012a	5e		 pop	 esi

; 278  : }

  0012b	c9		 leave
  0012c	c3		 ret	 0
?GetRecoveryGaugeByAttack@ioDamageConvertBuff@@IAEMXZ ENDP ; ioDamageConvertBuff::GetRecoveryGaugeByAttack
_TEXT	ENDS
PUBLIC	?GetRecoveryHPByAttack@ioDamageConvertBuff@@IAEMXZ ; ioDamageConvertBuff::GetRecoveryHPByAttack
; Function compile flags: /Ogsp
;	COMDAT ?GetRecoveryHPByAttack@ioDamageConvertBuff@@IAEMXZ
_TEXT	SEGMENT
_fDamage$531092 = -16					; size = 4
_value$534118 = -12					; size = 4
_this$ = -8						; size = 4
_value$534105 = -4					; size = 4
_fAttackHP$ = -4					; size = 4
?GetRecoveryHPByAttack@ioDamageConvertBuff@@IAEMXZ PROC	; ioDamageConvertBuff::GetRecoveryHPByAttack, COMDAT
; _this$ = ecx

; 281  : {

  00000	55		 push	 ebp
  00001	8b ec		 mov	 ebp, esp
  00003	83 ec 10	 sub	 esp, 16			; 00000010H
  00006	56		 push	 esi
  00007	8b f1		 mov	 esi, ecx

; 282  : 	if( m_fHPStealRate <= 0.0f )

  00009	8d 45 fc	 lea	 eax, DWORD PTR _value$534105[ebp]
  0000c	8d 8e 30 0a 00
	00		 lea	 ecx, DWORD PTR [esi+2608]
  00012	50		 push	 eax
  00013	89 75 f8	 mov	 DWORD PTR _this$[ebp], esi
  00016	e8 00 00 00 00	 call	 ?DecryptValueToPool@?$CEncrypt@M@@QAEXPAM@Z ; CEncrypt<float>::DecryptValueToPool
  0001b	0f 57 c0	 xorps	 xmm0, xmm0
  0001e	0f 2f 45 fc	 comiss	 xmm0, DWORD PTR _value$534105[ebp]
  00022	72 07		 jb	 SHORT $LN6@GetRecover@2

; 283  : 		return 0.0f;

  00024	d9 ee		 fldz
  00026	e9 8f 00 00 00	 jmp	 $LN7@GetRecover@2
$LN6@GetRecover@2:

; 284  : 
; 285  : 	const DamageInfoList &rkInfoList = m_pOwner->GetAttackDamageInfoList();

  0002b	8b 8e 74 02 00
	00		 mov	 ecx, DWORD PTR [esi+628]
  00031	57		 push	 edi
  00032	e8 00 00 00 00	 call	 ?GetAttackDamageInfoList@ioBaseChar@@QBEABV?$vector@UDamageInfo@@V?$allocator@UDamageInfo@@@std@@@std@@XZ ; ioBaseChar::GetAttackDamageInfoList
  00037	8b f8		 mov	 edi, eax

; 286  : 
; 287  : 	int iAttackCnt = rkInfoList.size();

  00039	8b 77 04	 mov	 esi, DWORD PTR [edi+4]
  0003c	2b 37		 sub	 esi, DWORD PTR [edi]
  0003e	c1 fe 03	 sar	 esi, 3

; 288  : 	if( iAttackCnt == 0 )

  00041	85 f6		 test	 esi, esi
  00043	75 04		 jne	 SHORT $LN5@GetRecover@2

; 289  : 		return 0.0f;

  00045	d9 ee		 fldz
  00047	eb 70		 jmp	 SHORT $LN24@GetRecover@2
$LN5@GetRecover@2:

; 290  : 
; 291  : 	float fAttackHP = 0.0f;

  00049	0f 57 c0	 xorps	 xmm0, xmm0
  0004c	53		 push	 ebx

; 292  : 	for( int i=0; i < iAttackCnt; ++i )

  0004d	33 db		 xor	 ebx, ebx
  0004f	f3 0f 11 45 fc	 movss	 DWORD PTR _fAttackHP$[ebp], xmm0
  00054	85 f6		 test	 esi, esi
  00056	7e 5d		 jle	 SHORT $LN2@GetRecover@2
$LL4@GetRecover@2:
  00058	8b 07		 mov	 eax, DWORD PTR [edi]

; 293  : 	{
; 294  : 		float fDamage = rkInfoList[i].m_fDamage;
; 295  : 		int iAttackType = (int)rkInfoList[i].m_AttackType;
; 296  : 
; 297  : 		if( CheckElementType( iAttackType ) )

  0005a	8b 4d f8	 mov	 ecx, DWORD PTR _this$[ebp]
  0005d	8d 04 d8	 lea	 eax, DWORD PTR [eax+ebx*8]
  00060	f3 0f 10 00	 movss	 xmm0, DWORD PTR [eax]
  00064	ff 70 04	 push	 DWORD PTR [eax+4]
  00067	f3 0f 11 45 f0	 movss	 DWORD PTR _fDamage$531092[ebp], xmm0
  0006c	e8 00 00 00 00	 call	 ?CheckElementType@ioDamageConvertBuff@@IAE_NH@Z ; ioDamageConvertBuff::CheckElementType
  00071	84 c0		 test	 al, al
  00073	74 3b		 je	 SHORT $LN3@GetRecover@2

; 298  : 			fAttackHP += (fDamage * m_fHPStealRate);

  00075	8b 4d f8	 mov	 ecx, DWORD PTR _this$[ebp]
  00078	8d 45 f4	 lea	 eax, DWORD PTR _value$534118[ebp]
  0007b	50		 push	 eax
  0007c	81 c1 30 0a 00
	00		 add	 ecx, 2608		; 00000a30H
  00082	e8 00 00 00 00	 call	 ?DecryptValueToPool@?$CEncrypt@M@@QAEXPAM@Z ; CEncrypt<float>::DecryptValueToPool
  00087	f3 0f 10 4d f0	 movss	 xmm1, DWORD PTR _fDamage$531092[ebp]
  0008c	f3 0f 10 45 f4	 movss	 xmm0, DWORD PTR _value$534118[ebp]
  00091	0f 5a c0	 cvtps2pd xmm0, xmm0
  00094	0f 5a c9	 cvtps2pd xmm1, xmm1
  00097	f2 0f 59 c1	 mulsd	 xmm0, xmm1
  0009b	f3 0f 10 4d fc	 movss	 xmm1, DWORD PTR _fAttackHP$[ebp]
  000a0	0f 5a c9	 cvtps2pd xmm1, xmm1
  000a3	f2 0f 58 c1	 addsd	 xmm0, xmm1
  000a7	66 0f 5a c0	 cvtpd2ps xmm0, xmm0
  000ab	f3 0f 11 45 fc	 movss	 DWORD PTR _fAttackHP$[ebp], xmm0
$LN3@GetRecover@2:

; 292  : 	for( int i=0; i < iAttackCnt; ++i )

  000b0	43		 inc	 ebx
  000b1	3b de		 cmp	 ebx, esi
  000b3	7c a3		 jl	 SHORT $LL4@GetRecover@2
$LN2@GetRecover@2:

; 299  : 	}
; 300  : 
; 301  : 	return fAttackHP;

  000b5	d9 45 fc	 fld	 DWORD PTR _fAttackHP$[ebp]
  000b8	5b		 pop	 ebx
$LN24@GetRecover@2:
  000b9	5f		 pop	 edi
$LN7@GetRecover@2:
  000ba	5e		 pop	 esi

; 302  : }

  000bb	c9		 leave
  000bc	c3		 ret	 0
?GetRecoveryHPByAttack@ioDamageConvertBuff@@IAEMXZ ENDP	; ioDamageConvertBuff::GetRecoveryHPByAttack
_TEXT	ENDS
PUBLIC	?GetRecoveryGaugeByWounded@ioDamageConvertBuff@@IAEMXZ ; ioDamageConvertBuff::GetRecoveryGaugeByWounded
EXTRN	?GetWoundDamageInfoList@ioBaseChar@@QBEABV?$vector@UDamageInfo@@V?$allocator@UDamageInfo@@@std@@@std@@XZ:PROC ; ioBaseChar::GetWoundDamageInfoList
; Function compile flags: /Ogsp
;	COMDAT ?GetRecoveryGaugeByWounded@ioDamageConvertBuff@@IAEMXZ
_TEXT	SEGMENT
_value$534164 = -24					; size = 4
_value$534159 = -20					; size = 4
_fDamage$531111 = -16					; size = 4
tv291 = -12						; size = 4
tv224 = -12						; size = 4
_value$534149 = -12					; size = 4
_value$534145 = -8					; size = 4
_value$534134 = -8					; size = 4
_fWoundGauge$ = -8					; size = 4
_i$531107 = -4						; size = 4
_iWoundCnt$ = -4					; size = 4
?GetRecoveryGaugeByWounded@ioDamageConvertBuff@@IAEMXZ PROC ; ioDamageConvertBuff::GetRecoveryGaugeByWounded, COMDAT
; _this$ = ecx

; 305  : {

  00000	55		 push	 ebp
  00001	8b ec		 mov	 ebp, esp
  00003	83 ec 18	 sub	 esp, 24			; 00000018H
  00006	53		 push	 ebx
  00007	8b d9		 mov	 ebx, ecx

; 306  : 	if( m_fWoundedRecoveryGauge <= 0.0f )

  00009	8d 45 f8	 lea	 eax, DWORD PTR _value$534134[ebp]
  0000c	8d 8b 70 09 00
	00		 lea	 ecx, DWORD PTR [ebx+2416]
  00012	50		 push	 eax
  00013	89 4d f4	 mov	 DWORD PTR tv224[ebp], ecx
  00016	e8 00 00 00 00	 call	 ?DecryptValueToPool@?$CEncrypt@M@@QAEXPAM@Z ; CEncrypt<float>::DecryptValueToPool
  0001b	0f 57 c0	 xorps	 xmm0, xmm0
  0001e	0f 2f 45 f8	 comiss	 xmm0, DWORD PTR _value$534134[ebp]
  00022	72 07		 jb	 SHORT $LN7@GetRecover@3

; 307  : 		return 0.0f;

  00024	d9 ee		 fldz
  00026	e9 e3 00 00 00	 jmp	 $LN8@GetRecover@3
$LN7@GetRecover@3:

; 308  : 
; 309  : 	const DamageInfoList &rkInfoList = m_pOwner->GetWoundDamageInfoList();

  0002b	8b 8b 74 02 00
	00		 mov	 ecx, DWORD PTR [ebx+628]
  00031	56		 push	 esi
  00032	57		 push	 edi
  00033	e8 00 00 00 00	 call	 ?GetWoundDamageInfoList@ioBaseChar@@QBEABV?$vector@UDamageInfo@@V?$allocator@UDamageInfo@@@std@@@std@@XZ ; ioBaseChar::GetWoundDamageInfoList
  00038	8b f8		 mov	 edi, eax

; 310  : 
; 311  : 	int iWoundCnt = rkInfoList.size();

  0003a	8b 77 04	 mov	 esi, DWORD PTR [edi+4]
  0003d	2b 37		 sub	 esi, DWORD PTR [edi]
  0003f	c1 fe 03	 sar	 esi, 3
  00042	89 75 fc	 mov	 DWORD PTR _iWoundCnt$[ebp], esi

; 312  : 	if( iWoundCnt == 0 )

  00045	85 f6		 test	 esi, esi
  00047	75 07		 jne	 SHORT $LN6@GetRecover@3

; 313  : 		return 0.0f;

  00049	d9 ee		 fldz
  0004b	e9 bc 00 00 00	 jmp	 $LN35@GetRecover@3
$LN6@GetRecover@3:

; 314  : 
; 315  : 	if( m_fWoundedRecoveryRate <= 0.0f )

  00050	8d 45 f8	 lea	 eax, DWORD PTR _value$534145[ebp]
  00053	8d 8b a0 09 00
	00		 lea	 ecx, DWORD PTR [ebx+2464]
  00059	50		 push	 eax
  0005a	e8 00 00 00 00	 call	 ?DecryptValueToPool@?$CEncrypt@M@@QAEXPAM@Z ; CEncrypt<float>::DecryptValueToPool
  0005f	0f 57 c0	 xorps	 xmm0, xmm0
  00062	0f 2f 45 f8	 comiss	 xmm0, DWORD PTR _value$534145[ebp]
  00066	72 1d		 jb	 SHORT $LN5@GetRecover@3

; 316  : 		return m_fWoundedRecoveryGauge * iWoundCnt;

  00068	8b 4d f4	 mov	 ecx, DWORD PTR tv224[ebp]
  0006b	8d 45 f4	 lea	 eax, DWORD PTR _value$534149[ebp]
  0006e	50		 push	 eax
  0006f	e8 00 00 00 00	 call	 ?DecryptValueToPool@?$CEncrypt@M@@QAEXPAM@Z ; CEncrypt<float>::DecryptValueToPool
  00074	db 45 fc	 fild	 DWORD PTR _iWoundCnt$[ebp]
  00077	d8 4d f4	 fmul	 DWORD PTR _value$534149[ebp]
  0007a	d9 5d f4	 fstp	 DWORD PTR tv291[ebp]
  0007d	d9 45 f4	 fld	 DWORD PTR tv291[ebp]
  00080	e9 87 00 00 00	 jmp	 $LN35@GetRecover@3
$LN5@GetRecover@3:

; 317  : 
; 318  : 	float fWoundGauge = 0.0f;
; 319  : 	for( int i=0; i < iWoundCnt; ++i )

  00085	83 65 fc 00	 and	 DWORD PTR _i$531107[ebp], 0
  00089	f3 0f 11 45 f8	 movss	 DWORD PTR _fWoundGauge$[ebp], xmm0
  0008e	85 f6		 test	 esi, esi
  00090	7e 77		 jle	 SHORT $LN2@GetRecover@3
$LL34@GetRecover@3:
  00092	8b 4d fc	 mov	 ecx, DWORD PTR _i$531107[ebp]
  00095	8b 07		 mov	 eax, DWORD PTR [edi]
  00097	8d 04 c8	 lea	 eax, DWORD PTR [eax+ecx*8]

; 320  : 	{
; 321  : 		float fDamage = rkInfoList[i].m_fDamage;

  0009a	f3 0f 10 00	 movss	 xmm0, DWORD PTR [eax]

; 322  : 		int iAttackType = (int)rkInfoList[i].m_AttackType;
; 323  : 
; 324  : 		if( CheckElementType( iAttackType ) )

  0009e	ff 70 04	 push	 DWORD PTR [eax+4]
  000a1	8b cb		 mov	 ecx, ebx
  000a3	f3 0f 11 45 f0	 movss	 DWORD PTR _fDamage$531111[ebp], xmm0
  000a8	e8 00 00 00 00	 call	 ?CheckElementType@ioDamageConvertBuff@@IAE_NH@Z ; ioDamageConvertBuff::CheckElementType
  000ad	84 c0		 test	 al, al
  000af	74 50		 je	 SHORT $LN3@GetRecover@3

; 325  : 			fWoundGauge += (fDamage / m_fWoundedRecoveryRate) * m_fWoundedRecoveryGauge;

  000b1	8d 45 ec	 lea	 eax, DWORD PTR _value$534159[ebp]
  000b4	50		 push	 eax
  000b5	8d 8b a0 09 00
	00		 lea	 ecx, DWORD PTR [ebx+2464]
  000bb	e8 00 00 00 00	 call	 ?DecryptValueToPool@?$CEncrypt@M@@QAEXPAM@Z ; CEncrypt<float>::DecryptValueToPool
  000c0	8b 4d f4	 mov	 ecx, DWORD PTR tv224[ebp]
  000c3	8d 45 e8	 lea	 eax, DWORD PTR _value$534164[ebp]
  000c6	50		 push	 eax
  000c7	e8 00 00 00 00	 call	 ?DecryptValueToPool@?$CEncrypt@M@@QAEXPAM@Z ; CEncrypt<float>::DecryptValueToPool
  000cc	f3 0f 10 4d ec	 movss	 xmm1, DWORD PTR _value$534159[ebp]
  000d1	f3 0f 10 45 f0	 movss	 xmm0, DWORD PTR _fDamage$531111[ebp]
  000d6	0f 5a c9	 cvtps2pd xmm1, xmm1
  000d9	0f 5a c0	 cvtps2pd xmm0, xmm0
  000dc	f2 0f 5e c1	 divsd	 xmm0, xmm1
  000e0	f3 0f 10 4d e8	 movss	 xmm1, DWORD PTR _value$534164[ebp]
  000e5	0f 5a c9	 cvtps2pd xmm1, xmm1
  000e8	f2 0f 59 c1	 mulsd	 xmm0, xmm1
  000ec	f3 0f 10 4d f8	 movss	 xmm1, DWORD PTR _fWoundGauge$[ebp]
  000f1	0f 5a c9	 cvtps2pd xmm1, xmm1
  000f4	f2 0f 58 c1	 addsd	 xmm0, xmm1
  000f8	f2 0f 5a c0	 cvtsd2ss xmm0, xmm0
  000fc	f3 0f 11 45 f8	 movss	 DWORD PTR _fWoundGauge$[ebp], xmm0
$LN3@GetRecover@3:

; 317  : 
; 318  : 	float fWoundGauge = 0.0f;
; 319  : 	for( int i=0; i < iWoundCnt; ++i )

  00101	ff 45 fc	 inc	 DWORD PTR _i$531107[ebp]
  00104	39 75 fc	 cmp	 DWORD PTR _i$531107[ebp], esi
  00107	7c 89		 jl	 SHORT $LL34@GetRecover@3
$LN2@GetRecover@3:

; 326  : 	}
; 327  : 
; 328  : 	return fWoundGauge;

  00109	d9 45 f8	 fld	 DWORD PTR _fWoundGauge$[ebp]
$LN35@GetRecover@3:
  0010c	5f		 pop	 edi
  0010d	5e		 pop	 esi
$LN8@GetRecover@3:
  0010e	5b		 pop	 ebx

; 329  : }

  0010f	c9		 leave
  00110	c3		 ret	 0
?GetRecoveryGaugeByWounded@ioDamageConvertBuff@@IAEMXZ ENDP ; ioDamageConvertBuff::GetRecoveryGaugeByWounded
_TEXT	ENDS
PUBLIC	?_Buy@?$vector@HV?$allocator@H@std@@@std@@IAE_NI@Z ; std::vector<int,std::allocator<int> >::_Buy
; Function compile flags: /Ogsp
; File c:\program files (x86)\microsoft visual studio 10.0\vc\include\vector
;	COMDAT ?_Buy@?$vector@HV?$allocator@H@std@@@std@@IAE_NI@Z
_TEXT	SEGMENT
__Capacity$ = 8						; size = 4
?_Buy@?$vector@HV?$allocator@H@std@@@std@@IAE_NI@Z PROC	; std::vector<int,std::allocator<int> >::_Buy, COMDAT
; _this$ = ecx

; 1250 : 		{	// allocate array with _Capacity elements

  00000	55		 push	 ebp
  00001	8b ec		 mov	 ebp, esp
  00003	56		 push	 esi

; 1251 : 		this->_Myfirst = 0;

  00004	33 c0		 xor	 eax, eax
  00006	57		 push	 edi

; 1252 : 		this->_Mylast = 0;
; 1253 : 		this->_Myend = 0;
; 1254 : 
; 1255 : 		if (_Capacity == 0)

  00007	8b 7d 08	 mov	 edi, DWORD PTR __Capacity$[ebp]
  0000a	8b f1		 mov	 esi, ecx
  0000c	89 06		 mov	 DWORD PTR [esi], eax
  0000e	89 46 04	 mov	 DWORD PTR [esi+4], eax
  00011	89 46 08	 mov	 DWORD PTR [esi+8], eax
  00014	3b f8		 cmp	 edi, eax
  00016	75 04		 jne	 SHORT $LN4@Buy

; 1256 : 			return (false);

  00018	32 c0		 xor	 al, al
  0001a	eb 29		 jmp	 SHORT $LN5@Buy
$LN4@Buy:

; 1257 : 		else if (max_size() < _Capacity)

  0001c	81 ff ff ff ff
	3f		 cmp	 edi, 1073741823		; 3fffffffH
  00022	76 0b		 jbe	 SHORT $LN2@Buy

; 1258 : 			_Xlen();	// result too long

  00024	68 00 00 00 00	 push	 OFFSET ??_C@_0BD@OLBABOEK@vector?$DMT?$DO?5too?5long?$AA@
  00029	ff 15 00 00 00
	00		 call	 DWORD PTR __imp_?_Xlength_error@std@@YAXPBD@Z
$LN19@Buy:
$LN2@Buy:

; 1259 : 		else
; 1260 : 			{	// nonempty array, allocate storage
; 1261 : 			this->_Myfirst = this->_Alval.allocate(_Capacity);

  0002f	50		 push	 eax
  00030	57		 push	 edi
  00031	e8 00 00 00 00	 call	 ??$_Allocate@H@std@@YAPAHIPAH@Z ; std::_Allocate<int>
  00036	89 06		 mov	 DWORD PTR [esi], eax

; 1262 : 			this->_Mylast = this->_Myfirst;

  00038	89 46 04	 mov	 DWORD PTR [esi+4], eax

; 1263 : 			this->_Myend = this->_Myfirst + _Capacity;

  0003b	8d 04 b8	 lea	 eax, DWORD PTR [eax+edi*4]
  0003e	59		 pop	 ecx
  0003f	89 46 08	 mov	 DWORD PTR [esi+8], eax
  00042	59		 pop	 ecx

; 1264 : 			}
; 1265 : 		return (true);

  00043	b0 01		 mov	 al, 1
$LN5@Buy:
  00045	5f		 pop	 edi
  00046	5e		 pop	 esi

; 1266 : 		}

  00047	5d		 pop	 ebp
  00048	c2 04 00	 ret	 4
$LN18@Buy:
?_Buy@?$vector@HV?$allocator@H@std@@@std@@IAE_NI@Z ENDP	; std::vector<int,std::allocator<int> >::_Buy
_TEXT	ENDS
PUBLIC	??$_Cons_val@V?$allocator@H@std@@HAAH@std@@YAXAAV?$allocator@H@0@PAHAAH@Z ; std::_Cons_val<std::allocator<int>,int,int &>
; Function compile flags: /Ogsp
; File c:\program files (x86)\microsoft visual studio 10.0\vc\include\xmemory
;	COMDAT ??$_Cons_val@V?$allocator@H@std@@HAAH@std@@YAXAAV?$allocator@H@0@PAHAAH@Z
_TEXT	SEGMENT
__Alval$ = 8						; size = 4
__Pdest$ = 12						; size = 4
__Src$ = 16						; size = 4
??$_Cons_val@V?$allocator@H@std@@HAAH@std@@YAXAAV?$allocator@H@0@PAHAAH@Z PROC ; std::_Cons_val<std::allocator<int>,int,int &>, COMDAT

; 279  : 	{	// construct using allocator

  00000	55		 push	 ebp
  00001	8b ec		 mov	 ebp, esp

; 280  : 	_Alval.construct(_Pdest, _STD forward<_Ty2>(_Src));

  00003	8b 45 0c	 mov	 eax, DWORD PTR __Pdest$[ebp]
  00006	85 c0		 test	 eax, eax
  00008	74 07		 je	 SHORT $LN7@Cons_val
  0000a	8b 4d 10	 mov	 ecx, DWORD PTR __Src$[ebp]
  0000d	8b 09		 mov	 ecx, DWORD PTR [ecx]
  0000f	89 08		 mov	 DWORD PTR [eax], ecx
$LN7@Cons_val:

; 281  : 	}

  00011	5d		 pop	 ebp
  00012	c3		 ret	 0
??$_Cons_val@V?$allocator@H@std@@HAAH@std@@YAXAAV?$allocator@H@0@PAHAAH@Z ENDP ; std::_Cons_val<std::allocator<int>,int,int &>
_TEXT	ENDS
PUBLIC	??$_Cons_val@V?$allocator@H@std@@HABH@std@@YAXAAV?$allocator@H@0@PAHABH@Z ; std::_Cons_val<std::allocator<int>,int,int const &>
; Function compile flags: /Ogsp
;	COMDAT ??$_Cons_val@V?$allocator@H@std@@HABH@std@@YAXAAV?$allocator@H@0@PAHABH@Z
_TEXT	SEGMENT
__Alval$ = 8						; size = 4
__Pdest$ = 12						; size = 4
__Src$ = 16						; size = 4
??$_Cons_val@V?$allocator@H@std@@HABH@std@@YAXAAV?$allocator@H@0@PAHABH@Z PROC ; std::_Cons_val<std::allocator<int>,int,int const &>, COMDAT

; 279  : 	{	// construct using allocator

  00000	55		 push	 ebp
  00001	8b ec		 mov	 ebp, esp

; 280  : 	_Alval.construct(_Pdest, _STD forward<_Ty2>(_Src));

  00003	8b 45 0c	 mov	 eax, DWORD PTR __Pdest$[ebp]
  00006	85 c0		 test	 eax, eax
  00008	74 07		 je	 SHORT $LN9@Cons_val@2
  0000a	8b 4d 10	 mov	 ecx, DWORD PTR __Src$[ebp]
  0000d	8b 09		 mov	 ecx, DWORD PTR [ecx]
  0000f	89 08		 mov	 DWORD PTR [eax], ecx
$LN9@Cons_val@2:

; 281  : 	}

  00011	5d		 pop	 ebp
  00012	c3		 ret	 0
??$_Cons_val@V?$allocator@H@std@@HABH@std@@YAXAAV?$allocator@H@0@PAHABH@Z ENDP ; std::_Cons_val<std::allocator<int>,int,int const &>
_TEXT	ENDS
PUBLIC	??$_Dest_val@V?$allocator@H@std@@H@std@@YAXAAV?$allocator@H@0@PAH@Z ; std::_Dest_val<std::allocator<int>,int>
; Function compile flags: /Ogsp
;	COMDAT ??$_Dest_val@V?$allocator@H@std@@H@std@@YAXAAV?$allocator@H@0@PAH@Z
_TEXT	SEGMENT
__Alval$ = 8						; size = 4
__Pdest$ = 12						; size = 4
??$_Dest_val@V?$allocator@H@std@@H@std@@YAXAAV?$allocator@H@0@PAH@Z PROC ; std::_Dest_val<std::allocator<int>,int>, COMDAT

; 287  : 	_Alval.destroy(_Pdest);
; 288  : 	}

  00000	c3		 ret	 0
??$_Dest_val@V?$allocator@H@std@@H@std@@YAXAAV?$allocator@H@0@PAH@Z ENDP ; std::_Dest_val<std::allocator<int>,int>
_TEXT	ENDS
PUBLIC	?GetItemReinforce@ioItem@@QBEHXZ		; ioItem::GetItemReinforce
; Function compile flags: /Ogsp
; File d:\lost saga for developer\youtube\tutorial\source\src\lsclient\ioitem.h
;	COMDAT ?GetItemReinforce@ioItem@@QBEHXZ
_TEXT	SEGMENT
_value$534282 = -4					; size = 4
?GetItemReinforce@ioItem@@QBEHXZ PROC			; ioItem::GetItemReinforce, COMDAT
; _this$ = ecx

; 332  : 	inline int GetItemReinforce() const { return m_iReinforce; }

  00000	55		 push	 ebp
  00001	8b ec		 mov	 ebp, esp
  00003	51		 push	 ecx
  00004	8d 45 fc	 lea	 eax, DWORD PTR _value$534282[ebp]
  00007	50		 push	 eax
  00008	83 c1 48	 add	 ecx, 72			; 00000048H
  0000b	e8 00 00 00 00	 call	 ?DecryptValueToPool@?$CEncrypt@H@@QAEXPAH@Z ; CEncrypt<int>::DecryptValueToPool
  00010	8b 45 fc	 mov	 eax, DWORD PTR _value$534282[ebp]
  00013	c9		 leave
  00014	c3		 ret	 0
?GetItemReinforce@ioItem@@QBEHXZ ENDP			; ioItem::GetItemReinforce
_TEXT	ENDS
PUBLIC	?GetCurSkillGuage@ioItem@@QBEMXZ		; ioItem::GetCurSkillGuage
; Function compile flags: /Ogsp
;	COMDAT ?GetCurSkillGuage@ioItem@@QBEMXZ
_TEXT	SEGMENT
_value$534288 = -4					; size = 4
?GetCurSkillGuage@ioItem@@QBEMXZ PROC			; ioItem::GetCurSkillGuage, COMDAT
; _this$ = ecx

; 367  : 	inline float GetCurSkillGuage() const { return m_fCurSkillGauge; }

  00000	55		 push	 ebp
  00001	8b ec		 mov	 ebp, esp
  00003	51		 push	 ecx
  00004	8d 45 fc	 lea	 eax, DWORD PTR _value$534288[ebp]
  00007	50		 push	 eax
  00008	81 c1 f4 03 00
	00		 add	 ecx, 1012		; 000003f4H
  0000e	e8 00 00 00 00	 call	 ?DecryptValueToPool@?$CEncrypt@M@@QAEXPAM@Z ; CEncrypt<float>::DecryptValueToPool
  00013	d9 45 fc	 fld	 DWORD PTR _value$534288[ebp]
  00016	c9		 leave
  00017	c3		 ret	 0
?GetCurSkillGuage@ioItem@@QBEMXZ ENDP			; ioItem::GetCurSkillGuage
_TEXT	ENDS
PUBLIC	?IsLive@ioBuff@@QBE_NXZ				; ioBuff::IsLive
; Function compile flags: /Ogsp
; File d:\lost saga for developer\youtube\tutorial\source\src\lsclient\iobuff.h
;	COMDAT ?IsLive@ioBuff@@QBE_NXZ
_TEXT	SEGMENT
_value$534296 = -1					; size = 1
?IsLive@ioBuff@@QBE_NXZ PROC				; ioBuff::IsLive, COMDAT
; _this$ = ecx

; 428  : 	inline bool IsLive() const { return m_bLive; }

  00000	55		 push	 ebp
  00001	8b ec		 mov	 ebp, esp
  00003	51		 push	 ecx
  00004	8d 45 ff	 lea	 eax, DWORD PTR _value$534296[ebp]
  00007	50		 push	 eax
  00008	81 c1 70 07 00
	00		 add	 ecx, 1904		; 00000770H
  0000e	e8 00 00 00 00	 call	 ?DecryptValueToPool@?$CEncrypt@_N@@QAEXPA_N@Z ; CEncrypt<bool>::DecryptValueToPool
  00013	8a 45 ff	 mov	 al, BYTE PTR _value$534296[ebp]
  00016	c9		 leave
  00017	c3		 ret	 0
?IsLive@ioBuff@@QBE_NXZ ENDP				; ioBuff::IsLive
_TEXT	ENDS
PUBLIC	??0?$vector@HV?$allocator@H@std@@@std@@QAE@XZ	; std::vector<int,std::allocator<int> >::vector<int,std::allocator<int> >
; Function compile flags: /Ogsp
; File c:\program files (x86)\microsoft visual studio 10.0\vc\include\vector
;	COMDAT ??0?$vector@HV?$allocator@H@std@@@std@@QAE@XZ
_TEXT	SEGMENT
??0?$vector@HV?$allocator@H@std@@@std@@QAE@XZ PROC	; std::vector<int,std::allocator<int> >::vector<int,std::allocator<int> >, COMDAT
; _this$ = ecx

; 507  : 		{	// construct empty vector

  00000	8b c1		 mov	 eax, ecx
  00002	33 c9		 xor	 ecx, ecx
  00004	89 08		 mov	 DWORD PTR [eax], ecx
  00006	89 48 04	 mov	 DWORD PTR [eax+4], ecx
  00009	89 48 08	 mov	 DWORD PTR [eax+8], ecx

; 508  : 		}

  0000c	c3		 ret	 0
??0?$vector@HV?$allocator@H@std@@@std@@QAE@XZ ENDP	; std::vector<int,std::allocator<int> >::vector<int,std::allocator<int> >
_TEXT	ENDS
PUBLIC	??0?$CEncrypt@M@@QAE@ABV0@@Z			; CEncrypt<float>::CEncrypt<float>
;	COMDAT xdata$x
; File d:\lost saga for developer\youtube\tutorial\source\src\lsclient\encryptvalue.h
xdata$x	SEGMENT
__unwindtable$??0?$CEncrypt@M@@QAE@ABV0@@Z DD 0ffffffffH
	DD	FLAT:__unwindfunclet$??0?$CEncrypt@M@@QAE@ABV0@@Z$0
__ehfuncinfo$??0?$CEncrypt@M@@QAE@ABV0@@Z DD 019930522H
	DD	01H
	DD	FLAT:__unwindtable$??0?$CEncrypt@M@@QAE@ABV0@@Z
	DD	2 DUP(00H)
	DD	2 DUP(00H)
	DD	00H
	DD	01H
; Function compile flags: /Ogsp
xdata$x	ENDS
;	COMDAT ??0?$CEncrypt@M@@QAE@ABV0@@Z
_TEXT	SEGMENT
_this$ = -16						; size = 4
__$EHRec$ = -12						; size = 12
_value$534325 = 8					; size = 4
_value$534320 = 8					; size = 4
_inValue$ = 8						; size = 4
??0?$CEncrypt@M@@QAE@ABV0@@Z PROC			; CEncrypt<float>::CEncrypt<float>, COMDAT
; _this$ = ecx

; 120  : 	CEncrypt( const CEncrypt<type> &inValue )   // 선언과 동시에 값을 대입하기 위해서

  00000	6a 04		 push	 4
  00002	b8 00 00 00 00	 mov	 eax, __ehhandler$??0?$CEncrypt@M@@QAE@ABV0@@Z
  00007	e8 00 00 00 00	 call	 __EH_prolog3
  0000c	8b f1		 mov	 esi, ecx
  0000e	89 75 f0	 mov	 DWORD PTR _this$[ebp], esi
  00011	8d 4e 0c	 lea	 ecx, DWORD PTR [esi+12]
  00014	c7 06 00 00 00
	00		 mov	 DWORD PTR [esi], OFFSET ??_7?$CEncrypt@M@@6B@
  0001a	e8 00 00 00 00	 call	 ??0ccddaabb@@QAE@XZ	; ccddaabb::ccddaabb
  0001f	83 65 fc 00	 and	 DWORD PTR __$EHRec$[ebp+8], 0

; 121  : 	{
; 122  : 		Init();

  00023	8b ce		 mov	 ecx, esi
  00025	e8 00 00 00 00	 call	 ?Init@?$CEncrypt@M@@AAEXXZ ; CEncrypt<float>::Init

; 123  : 		*this = inValue;

  0002a	8b 4d 08	 mov	 ecx, DWORD PTR _inValue$[ebp]
  0002d	8d 45 08	 lea	 eax, DWORD PTR _value$534320[ebp]
  00030	50		 push	 eax
  00031	e8 00 00 00 00	 call	 ?DecryptValueToPool@?$CEncrypt@M@@QAEXPAM@Z ; CEncrypt<float>::DecryptValueToPool
  00036	f3 0f 10 45 08	 movss	 xmm0, DWORD PTR _value$534320[ebp]
  0003b	8d 45 08	 lea	 eax, DWORD PTR _value$534325[ebp]
  0003e	50		 push	 eax
  0003f	8b ce		 mov	 ecx, esi
  00041	f3 0f 11 45 08	 movss	 DWORD PTR _value$534325[ebp], xmm0
  00046	e8 00 00 00 00	 call	 ?EncryptValueToPool@?$CEncrypt@M@@AAEXPBD@Z ; CEncrypt<float>::EncryptValueToPool

; 124  : 	}

  0004b	8b c6		 mov	 eax, esi
  0004d	e8 00 00 00 00	 call	 __EH_epilog3
  00052	c2 04 00	 ret	 4
_TEXT	ENDS
;	COMDAT text$x
text$x	SEGMENT
__unwindfunclet$??0?$CEncrypt@M@@QAE@ABV0@@Z$0:
  00000	8b 4d f0	 mov	 ecx, DWORD PTR _this$[ebp]
  00003	83 c1 0c	 add	 ecx, 12			; 0000000cH
  00006	e9 00 00 00 00	 jmp	 ??1ccddaabb@@UAE@XZ	; ccddaabb::~ccddaabb
__ehhandler$??0?$CEncrypt@M@@QAE@ABV0@@Z:
  0000b	8b 54 24 08	 mov	 edx, DWORD PTR [esp+8]
  0000f	8d 42 0c	 lea	 eax, DWORD PTR [edx+12]
  00012	8b 4a ec	 mov	 ecx, DWORD PTR [edx-20]
  00015	33 c8		 xor	 ecx, eax
  00017	e8 00 00 00 00	 call	 @__security_check_cookie@4
  0001c	b8 00 00 00 00	 mov	 eax, OFFSET __ehfuncinfo$??0?$CEncrypt@M@@QAE@ABV0@@Z
  00021	e9 00 00 00 00	 jmp	 ___CxxFrameHandler3
text$x	ENDS
??0?$CEncrypt@M@@QAE@ABV0@@Z ENDP			; CEncrypt<float>::CEncrypt<float>
PUBLIC	?_Destroy@?$vector@HV?$allocator@H@std@@@std@@IAEXPAH0@Z ; std::vector<int,std::allocator<int> >::_Destroy
; Function compile flags: /Ogsp
; File c:\program files (x86)\microsoft visual studio 10.0\vc\include\vector
;	COMDAT ?_Destroy@?$vector@HV?$allocator@H@std@@@std@@IAEXPAH0@Z
_TEXT	SEGMENT
__First$ = 8						; size = 4
__Last$ = 12						; size = 4
?_Destroy@?$vector@HV?$allocator@H@std@@@std@@IAEXPAH0@Z PROC ; std::vector<int,std::allocator<int> >::_Destroy, COMDAT
; _this$ = ecx

; 1270 : 		_Destroy_range(_First, _Last, this->_Alval);
; 1271 : 		}

  00000	c2 08 00	 ret	 8
?_Destroy@?$vector@HV?$allocator@H@std@@@std@@IAEXPAH0@Z ENDP ; std::vector<int,std::allocator<int> >::_Destroy
_TEXT	ENDS
PUBLIC	??9?$_Vector_const_iterator@V?$_Vector_val@HV?$allocator@H@std@@@std@@@std@@QBE_NABV01@@Z ; std::_Vector_const_iterator<std::_Vector_val<int,std::allocator<int> > >::operator!=
; Function compile flags: /Ogsp
;	COMDAT ??9?$_Vector_const_iterator@V?$_Vector_val@HV?$allocator@H@std@@@std@@@std@@QBE_NABV01@@Z
_TEXT	SEGMENT
__Right$ = 8						; size = 4
??9?$_Vector_const_iterator@V?$_Vector_val@HV?$allocator@H@std@@@std@@@std@@QBE_NABV01@@Z PROC ; std::_Vector_const_iterator<std::_Vector_val<int,std::allocator<int> > >::operator!=, COMDAT
; _this$ = ecx

; 207  : 		{	// test for iterator inequality

  00000	55		 push	 ebp
  00001	8b ec		 mov	 ebp, esp

; 208  : 		return (!(*this == _Right));

  00003	8b 01		 mov	 eax, DWORD PTR [ecx]
  00005	8b 55 08	 mov	 edx, DWORD PTR __Right$[ebp]
  00008	33 c9		 xor	 ecx, ecx
  0000a	3b 02		 cmp	 eax, DWORD PTR [edx]
  0000c	0f 95 c0	 setne	 al

; 209  : 		}

  0000f	5d		 pop	 ebp
  00010	c2 04 00	 ret	 4
??9?$_Vector_const_iterator@V?$_Vector_val@HV?$allocator@H@std@@@std@@@std@@QBE_NABV01@@Z ENDP ; std::_Vector_const_iterator<std::_Vector_val<int,std::allocator<int> > >::operator!=
_TEXT	ENDS
PUBLIC	??$_Umove@PAH@?$vector@HV?$allocator@H@std@@@std@@IAEPAHPAH00@Z ; std::vector<int,std::allocator<int> >::_Umove<int *>
; Function compile flags: /Ogsp
;	COMDAT ??$_Umove@PAH@?$vector@HV?$allocator@H@std@@@std@@IAEPAHPAH00@Z
_TEXT	SEGMENT
__First$ = 8						; size = 4
__Last$ = 12						; size = 4
__Ptr$ = 16						; size = 4
??$_Umove@PAH@?$vector@HV?$allocator@H@std@@@std@@IAEPAHPAH00@Z PROC ; std::vector<int,std::allocator<int> >::_Umove<int *>, COMDAT
; _this$ = ecx

; 1322 : 		pointer _Umove(_Iter _First, _Iter _Last, pointer _Ptr)

  00000	55		 push	 ebp
  00001	8b ec		 mov	 ebp, esp

; 1323 : 		{	// move initializing [_First, _Last), using allocator
; 1324 : 		return (_Uninitialized_move(_First, _Last,
; 1325 : 			_Ptr, this->_Alval));

  00003	83 c1 0c	 add	 ecx, 12			; 0000000cH
  00006	51		 push	 ecx
  00007	ff 75 10	 push	 DWORD PTR __Ptr$[ebp]
  0000a	ff 75 0c	 push	 DWORD PTR __Last$[ebp]
  0000d	ff 75 08	 push	 DWORD PTR __First$[ebp]
  00010	e8 00 00 00 00	 call	 ??$_Uninitialized_move@PAHPAHV?$allocator@H@std@@@std@@YAPAHPAH00AAV?$allocator@H@0@@Z ; std::_Uninitialized_move<int *,int *,std::allocator<int> >
  00015	83 c4 10	 add	 esp, 16			; 00000010H

; 1326 : 		}

  00018	5d		 pop	 ebp
  00019	c2 0c 00	 ret	 12			; 0000000cH
??$_Umove@PAH@?$vector@HV?$allocator@H@std@@@std@@IAEPAHPAH00@Z ENDP ; std::vector<int,std::allocator<int> >::_Umove<int *>
_TEXT	ENDS
PUBLIC	?GetGrowthUpInfoByType@ioDamageConvertBuff@@IAEPAVioGrowthUpInfo@@HABVioHashString@@@Z ; ioDamageConvertBuff::GetGrowthUpInfoByType
EXTRN	?GetGrowthUpInfo@ioGrowthInfoManager@@QAEPAVioGrowthUpInfo@@HH@Z:PROC ; ioGrowthInfoManager::GetGrowthUpInfo
EXTRN	?GetAwakeCharGrowth@ioBaseChar@@QBEXAAHH@Z:PROC	; ioBaseChar::GetAwakeCharGrowth
EXTRN	?GetPetGrowth@ioBaseChar@@QBEXAAH_NH@Z:PROC	; ioBaseChar::GetPetGrowth
EXTRN	?GetMedalItemGrowth@ioBaseChar@@QBEXAAH_NH@Z:PROC ; ioBaseChar::GetMedalItemGrowth
EXTRN	?GetReinforceAddStat@ioGrowthInfoManager@@QAEHH@Z:PROC ; ioGrowthInfoManager::GetReinforceAddStat
EXTRN	?GetSingleton@ioGrowthInfoManager@@SAAAV1@XZ:PROC ; ioGrowthInfoManager::GetSingleton
EXTRN	?GetSingleton@ioItemCompoundMaterialManager@@SAAAV1@XZ:PROC ; ioItemCompoundMaterialManager::GetSingleton
EXTRN	?GetItemGrowthLevel@ioGrowthLevel@@QAEEHH_N@Z:PROC ; ioGrowthLevel::GetItemGrowthLevel
EXTRN	?GetBaseChar@ioPlayStage@@QAEPAVioBaseChar@@ABVioHashString@@@Z:PROC ; ioPlayStage::GetBaseChar
EXTRN	?GetGrowthLevel@ioPlayStage@@QAEPAVioGrowthLevel@@ABVioHashString@@@Z:PROC ; ioPlayStage::GetGrowthLevel
EXTRN	?GetOwnerItem@ioBuff@@QAEPAVioItem@@XZ:PROC	; ioBuff::GetOwnerItem
; Function compile flags: /Ogsp
; File d:\lost saga for developer\youtube\tutorial\source\src\lsclient\iodamageconvertbuff.cpp
;	COMDAT ?GetGrowthUpInfoByType@ioDamageConvertBuff@@IAEPAVioGrowthUpInfo@@HABVioHashString@@@Z
_TEXT	SEGMENT
_iInfoNum$ = -20					; size = 4
_pChar$ = -16						; size = 4
_pLevel$ = -12						; size = 4
_iClassType$ = -8					; size = 4
_iLevel$ = -4						; size = 4
_value$534388 = 8					; size = 4
_iType$ = 8						; size = 4
_value$534376 = 12					; size = 4
_iGrowthNum$531148 = 12					; size = 4
_szName$ = 12						; size = 4
?GetGrowthUpInfoByType@ioDamageConvertBuff@@IAEPAVioGrowthUpInfo@@HABVioHashString@@@Z PROC ; ioDamageConvertBuff::GetGrowthUpInfoByType, COMDAT
; _this$ = ecx

; 369  : {

  00000	55		 push	 ebp
  00001	8b ec		 mov	 ebp, esp
  00003	83 ec 14	 sub	 esp, 20			; 00000014H
  00006	53		 push	 ebx
  00007	56		 push	 esi

; 370  : 	int iLevel = 0;

  00008	33 db		 xor	 ebx, ebx
  0000a	57		 push	 edi
  0000b	8b f9		 mov	 edi, ecx
  0000d	89 5d fc	 mov	 DWORD PTR _iLevel$[ebp], ebx

; 371  : 	int iInfoNum = 0;
; 372  : 	int iClassType = 0;

  00010	89 5d f8	 mov	 DWORD PTR _iClassType$[ebp], ebx

; 373  : 
; 374  : 	ioGrowthLevel* pLevel = NULL;
; 375  : 	ioBaseChar *pChar = NULL;
; 376  : 	ioItem *pItem = GetOwnerItem();

  00013	e8 00 00 00 00	 call	 ?GetOwnerItem@ioBuff@@QAEPAVioItem@@XZ ; ioBuff::GetOwnerItem
  00018	8b f0		 mov	 esi, eax

; 377  : 	if( pItem )

  0001a	3b f3		 cmp	 esi, ebx
  0001c	0f 84 f3 00 00
	00		 je	 $LN4@GetGrowthU

; 378  : 	{
; 379  : 		ioPlayStage *pStage = m_pOwner->GetCreator();

  00022	8b 87 74 02 00
	00		 mov	 eax, DWORD PTR [edi+628]
  00028	8b b8 44 03 00
	00		 mov	 edi, DWORD PTR [eax+836]

; 380  : 		if( pStage )

  0002e	3b fb		 cmp	 edi, ebx
  00030	0f 84 df 00 00
	00		 je	 $LN4@GetGrowthU

; 381  : 		{
; 382  : 			pLevel = pStage->GetGrowthLevel( szName );

  00036	ff 75 0c	 push	 DWORD PTR _szName$[ebp]
  00039	8b cf		 mov	 ecx, edi
  0003b	e8 00 00 00 00	 call	 ?GetGrowthLevel@ioPlayStage@@QAEPAVioGrowthLevel@@ABVioHashString@@@Z ; ioPlayStage::GetGrowthLevel

; 383  : 
; 384  : 			pChar = pStage->GetBaseChar( szName );

  00040	ff 75 0c	 push	 DWORD PTR _szName$[ebp]
  00043	8b cf		 mov	 ecx, edi
  00045	89 45 f4	 mov	 DWORD PTR _pLevel$[ebp], eax
  00048	e8 00 00 00 00	 call	 ?GetBaseChar@ioPlayStage@@QAEPAVioBaseChar@@ABVioHashString@@@Z ; ioPlayStage::GetBaseChar
  0004d	89 45 f0	 mov	 DWORD PTR _pChar$[ebp], eax

; 385  : 			if( pChar )

  00050	3b c3		 cmp	 eax, ebx
  00052	74 15		 je	 SHORT $LN5@GetGrowthU

; 386  : 			{
; 387  : 				iClassType = pChar->GetCharacterInfo().m_class_type;

  00054	8d 4d 0c	 lea	 ecx, DWORD PTR _value$534376[ebp]
  00057	51		 push	 ecx
  00058	8d 88 58 03 00
	00		 lea	 ecx, DWORD PTR [eax+856]
  0005e	e8 00 00 00 00	 call	 ?DecryptValueToPool@?$CEncrypt@H@@QAEXPAH@Z ; CEncrypt<int>::DecryptValueToPool
  00063	8b 45 0c	 mov	 eax, DWORD PTR _value$534376[ebp]
  00066	89 45 f8	 mov	 DWORD PTR _iClassType$[ebp], eax
$LN5@GetGrowthU:

; 388  : 			}
; 389  : 		}
; 390  : 
; 391  : 		if( pLevel )

  00069	39 5d f4	 cmp	 DWORD PTR _pLevel$[ebp], ebx
  0006c	0f 84 a3 00 00
	00		 je	 $LN4@GetGrowthU

; 392  : 		{
; 393  : 			int iGrowthNum = 0;
; 394  : 			iInfoNum = pItem->GetGrowthInfoNumByType( iType, iGrowthNum );

  00072	8b 06		 mov	 eax, DWORD PTR [esi]
  00074	8d 4d 0c	 lea	 ecx, DWORD PTR _iGrowthNum$531148[ebp]
  00077	51		 push	 ecx
  00078	ff 75 08	 push	 DWORD PTR _iType$[ebp]
  0007b	8b ce		 mov	 ecx, esi
  0007d	89 5d 0c	 mov	 DWORD PTR _iGrowthNum$531148[ebp], ebx
  00080	ff 90 80 00 00
	00		 call	 DWORD PTR [eax+128]
  00086	89 45 ec	 mov	 DWORD PTR _iInfoNum$[ebp], eax

; 395  : 
; 396  : 			int iSlot = pItem->GetType() - 1;

  00089	8b 06		 mov	 eax, DWORD PTR [esi]
  0008b	8b ce		 mov	 ecx, esi
  0008d	ff 50 08	 call	 DWORD PTR [eax+8]
  00090	8d 78 ff	 lea	 edi, DWORD PTR [eax-1]

; 397  : 			int nReinforce = pItem->GetItemReinforce();

  00093	8d 45 08	 lea	 eax, DWORD PTR _value$534388[ebp]
  00096	50		 push	 eax
  00097	8d 4e 48	 lea	 ecx, DWORD PTR [esi+72]
  0009a	e8 00 00 00 00	 call	 ?DecryptValueToPool@?$CEncrypt@H@@QAEXPAH@Z ; CEncrypt<int>::DecryptValueToPool

; 398  : 			iLevel = pLevel->GetItemGrowthLevel( iClassType, iSlot, false );

  0009f	8b 4d f4	 mov	 ecx, DWORD PTR _pLevel$[ebp]
  000a2	53		 push	 ebx
  000a3	57		 push	 edi
  000a4	ff 75 f8	 push	 DWORD PTR _iClassType$[ebp]
  000a7	e8 00 00 00 00	 call	 ?GetItemGrowthLevel@ioGrowthLevel@@QAEEHH_N@Z ; ioGrowthLevel::GetItemGrowthLevel
  000ac	0f b6 c0	 movzx	 eax, al
  000af	89 45 fc	 mov	 DWORD PTR _iLevel$[ebp], eax

; 399  : 
; 400  : 			//강화레벨에 따른 추가 스탯
; 401  : 			if ( nReinforce <= g_CompoundMaterialMgr.GetFixedFailReinforce() )

  000b2	e8 00 00 00 00	 call	 ?GetSingleton@ioItemCompoundMaterialManager@@SAAAV1@XZ ; ioItemCompoundMaterialManager::GetSingleton
  000b7	8b 4d 08	 mov	 ecx, DWORD PTR _value$534388[ebp]
  000ba	3b 48 4c	 cmp	 ecx, DWORD PTR [eax+76]
  000bd	7f 05		 jg	 SHORT $LN3@GetGrowthU

; 402  : 				iLevel += nReinforce;

  000bf	01 4d fc	 add	 DWORD PTR _iLevel$[ebp], ecx

; 403  : 			else

  000c2	eb 10		 jmp	 SHORT $LN2@GetGrowthU
$LN3@GetGrowthU:

; 404  : 				iLevel += g_GrowthInfoMgr.GetReinforceAddStat( nReinforce );

  000c4	51		 push	 ecx
  000c5	e8 00 00 00 00	 call	 ?GetSingleton@ioGrowthInfoManager@@SAAAV1@XZ ; ioGrowthInfoManager::GetSingleton
  000ca	8b c8		 mov	 ecx, eax
  000cc	e8 00 00 00 00	 call	 ?GetReinforceAddStat@ioGrowthInfoManager@@QAEHH@Z ; ioGrowthInfoManager::GetReinforceAddStat
  000d1	01 45 fc	 add	 DWORD PTR _iLevel$[ebp], eax
$LN2@GetGrowthU:

; 405  : 
; 406  : 			if( pChar )

  000d4	8b 75 f0	 mov	 esi, DWORD PTR _pChar$[ebp]
  000d7	3b f3		 cmp	 esi, ebx
  000d9	74 26		 je	 SHORT $LN1@GetGrowthU

; 407  : 			{
; 408  : 				pChar->GetMedalItemGrowth( iLevel, false, iSlot );

  000db	57		 push	 edi
  000dc	53		 push	 ebx
  000dd	8d 45 fc	 lea	 eax, DWORD PTR _iLevel$[ebp]
  000e0	50		 push	 eax
  000e1	8b ce		 mov	 ecx, esi
  000e3	e8 00 00 00 00	 call	 ?GetMedalItemGrowth@ioBaseChar@@QBEXAAH_NH@Z ; ioBaseChar::GetMedalItemGrowth

; 409  : 
; 410  : 				//펫 성장
; 411  : 				pChar->GetPetGrowth( iLevel, false, iSlot );

  000e8	57		 push	 edi
  000e9	53		 push	 ebx
  000ea	8d 45 fc	 lea	 eax, DWORD PTR _iLevel$[ebp]
  000ed	50		 push	 eax
  000ee	8b ce		 mov	 ecx, esi
  000f0	e8 00 00 00 00	 call	 ?GetPetGrowth@ioBaseChar@@QBEXAAH_NH@Z ; ioBaseChar::GetPetGrowth

; 412  : 
; 413  : 				//각성
; 414  : 				pChar->GetAwakeCharGrowth( iLevel, iSlot );

  000f5	57		 push	 edi
  000f6	8d 45 fc	 lea	 eax, DWORD PTR _iLevel$[ebp]
  000f9	50		 push	 eax
  000fa	8b ce		 mov	 ecx, esi
  000fc	e8 00 00 00 00	 call	 ?GetAwakeCharGrowth@ioBaseChar@@QBEXAAHH@Z ; ioBaseChar::GetAwakeCharGrowth
$LN1@GetGrowthU:

; 415  : 			}
; 416  : 
; 417  : 			return g_GrowthInfoMgr.GetGrowthUpInfo( iInfoNum, iLevel );

  00101	ff 75 fc	 push	 DWORD PTR _iLevel$[ebp]
  00104	ff 75 ec	 push	 DWORD PTR _iInfoNum$[ebp]
  00107	e8 00 00 00 00	 call	 ?GetSingleton@ioGrowthInfoManager@@SAAAV1@XZ ; ioGrowthInfoManager::GetSingleton
  0010c	8b c8		 mov	 ecx, eax
  0010e	e8 00 00 00 00	 call	 ?GetGrowthUpInfo@ioGrowthInfoManager@@QAEPAVioGrowthUpInfo@@HH@Z ; ioGrowthInfoManager::GetGrowthUpInfo
  00113	eb 02		 jmp	 SHORT $LN8@GetGrowthU
$LN4@GetGrowthU:

; 418  : 		}
; 419  : 	}
; 420  : 
; 421  : 	return NULL;

  00115	33 c0		 xor	 eax, eax
$LN8@GetGrowthU:
  00117	5f		 pop	 edi
  00118	5e		 pop	 esi
  00119	5b		 pop	 ebx

; 422  : }

  0011a	c9		 leave
  0011b	c2 08 00	 ret	 8
?GetGrowthUpInfoByType@ioDamageConvertBuff@@IAEPAVioGrowthUpInfo@@HABVioHashString@@@Z ENDP ; ioDamageConvertBuff::GetGrowthUpInfoByType
_TEXT	ENDS
PUBLIC	??$_Uninit_copy@V?$_Vector_const_iterator@V?$_Vector_val@HV?$allocator@H@std@@@std@@@std@@PAHV?$allocator@H@2@@std@@YAPAHV?$_Vector_const_iterator@V?$_Vector_val@HV?$allocator@H@std@@@std@@@0@0PAHAAV?$allocator@H@0@U_Nonscalar_ptr_iterator_tag@0@@Z ; std::_Uninit_copy<std::_Vector_const_iterator<std::_Vector_val<int,std::allocator<int> > >,int *,std::allocator<int> >
; Function compile flags: /Ogsp
; File c:\program files (x86)\microsoft visual studio 10.0\vc\include\memory
;	COMDAT ??$_Uninit_copy@V?$_Vector_const_iterator@V?$_Vector_val@HV?$allocator@H@std@@@std@@@std@@PAHV?$allocator@H@2@@std@@YAPAHV?$_Vector_const_iterator@V?$_Vector_val@HV?$allocator@H@std@@@std@@@0@0PAHAAV?$allocator@H@0@U_Nonscalar_ptr_iterator_tag@0@@Z
_TEXT	SEGMENT
__First$ = 8						; size = 4
__Last$ = 12						; size = 4
__Dest$ = 16						; size = 4
__Al$ = 20						; size = 4
___formal$ = 24						; size = 1
??$_Uninit_copy@V?$_Vector_const_iterator@V?$_Vector_val@HV?$allocator@H@std@@@std@@@std@@PAHV?$allocator@H@2@@std@@YAPAHV?$_Vector_const_iterator@V?$_Vector_val@HV?$allocator@H@std@@@std@@@0@0PAHAAV?$allocator@H@0@U_Nonscalar_ptr_iterator_tag@0@@Z PROC ; std::_Uninit_copy<std::_Vector_const_iterator<std::_Vector_val<int,std::allocator<int> > >,int *,std::allocator<int> >, COMDAT

; 369  : 	{	// copy [_First, _Last) to raw _Dest, using _Al, arbitrary type

  00000	55		 push	 ebp
  00001	8b ec		 mov	 ebp, esp

; 370  : 	_DEBUG_RANGE(_First, _Last);
; 371  : 	_DEBUG_POINTER(_Dest);
; 372  : 	_FwdIt _Next = _Dest;
; 373  : 
; 374  : 	_TRY_BEGIN
; 375  : 	for (; _First != _Last; ++_Dest, ++_First)

  00003	8b 45 08	 mov	 eax, DWORD PTR __First$[ebp]
  00006	eb 17		 jmp	 SHORT $LN48@Uninit_cop
$LL14@Uninit_cop:

; 376  : 		_Cons_val(_Al, _Dest, *_First);

  00008	83 7d 10 00	 cmp	 DWORD PTR __Dest$[ebp], 0
  0000c	74 07		 je	 SHORT $LN32@Uninit_cop
  0000e	8b 08		 mov	 ecx, DWORD PTR [eax]
  00010	8b 55 10	 mov	 edx, DWORD PTR __Dest$[ebp]
  00013	89 0a		 mov	 DWORD PTR [edx], ecx
$LN32@Uninit_cop:

; 370  : 	_DEBUG_RANGE(_First, _Last);
; 371  : 	_DEBUG_POINTER(_Dest);
; 372  : 	_FwdIt _Next = _Dest;
; 373  : 
; 374  : 	_TRY_BEGIN
; 375  : 	for (; _First != _Last; ++_Dest, ++_First)

  00015	83 45 10 04	 add	 DWORD PTR __Dest$[ebp], 4
  00019	83 c0 04	 add	 eax, 4
  0001c	89 45 08	 mov	 DWORD PTR __First$[ebp], eax
$LN48@Uninit_cop:
  0001f	3b 45 0c	 cmp	 eax, DWORD PTR __Last$[ebp]
  00022	75 e4		 jne	 SHORT $LL14@Uninit_cop

; 377  : 	_CATCH_ALL
; 378  : 	for (; _Next != _Dest; ++_Next)
; 379  : 		_Dest_val(_Al, _Next);
; 380  : 	_RERAISE;
; 381  : 	_CATCH_END
; 382  : 	return (_Dest);

  00024	8b 45 10	 mov	 eax, DWORD PTR __Dest$[ebp]

; 383  : 	}

  00027	5d		 pop	 ebp
  00028	c3		 ret	 0
??$_Uninit_copy@V?$_Vector_const_iterator@V?$_Vector_val@HV?$allocator@H@std@@@std@@@std@@PAHV?$allocator@H@2@@std@@YAPAHV?$_Vector_const_iterator@V?$_Vector_val@HV?$allocator@H@std@@@std@@@0@0PAHAAV?$allocator@H@0@U_Nonscalar_ptr_iterator_tag@0@@Z ENDP ; std::_Uninit_copy<std::_Vector_const_iterator<std::_Vector_val<int,std::allocator<int> > >,int *,std::allocator<int> >
_TEXT	ENDS
PUBLIC	?erase@?$vector@HV?$allocator@H@std@@@std@@QAE?AV?$_Vector_iterator@V?$_Vector_val@HV?$allocator@H@std@@@std@@@2@V?$_Vector_const_iterator@V?$_Vector_val@HV?$allocator@H@std@@@std@@@2@0@Z ; std::vector<int,std::allocator<int> >::erase
; Function compile flags: /Ogsp
; File c:\program files (x86)\microsoft visual studio 10.0\vc\include\vector
;	COMDAT ?erase@?$vector@HV?$allocator@H@std@@@std@@QAE?AV?$_Vector_iterator@V?$_Vector_val@HV?$allocator@H@std@@@std@@@2@V?$_Vector_const_iterator@V?$_Vector_val@HV?$allocator@H@std@@@std@@@2@0@Z
_TEXT	SEGMENT
___$ReturnUdt$ = 8					; size = 4
__First_arg$ = 12					; size = 4
__Cat$534578 = 16					; size = 1
__Last_arg$ = 16					; size = 4
?erase@?$vector@HV?$allocator@H@std@@@std@@QAE?AV?$_Vector_iterator@V?$_Vector_val@HV?$allocator@H@std@@@std@@@2@V?$_Vector_const_iterator@V?$_Vector_val@HV?$allocator@H@std@@@std@@@2@0@Z PROC ; std::vector<int,std::allocator<int> >::erase, COMDAT
; _this$ = ecx

; 1190 : 		{	// erase [_First, _Last)

  00000	55		 push	 ebp
  00001	8b ec		 mov	 ebp, esp

; 1191 : 		iterator _First = _Make_iter(_First_arg);

  00003	8b 45 0c	 mov	 eax, DWORD PTR __First_arg$[ebp]
  00006	56		 push	 esi
  00007	57		 push	 edi
  00008	8b 7d 08	 mov	 edi, DWORD PTR ___$ReturnUdt$[ebp]
  0000b	8b f1		 mov	 esi, ecx
  0000d	89 07		 mov	 DWORD PTR [edi], eax

; 1192 : 		iterator _Last = _Make_iter(_Last_arg);
; 1193 : 
; 1194 : 		if (_First != _Last)

  0000f	3b 45 10	 cmp	 eax, DWORD PTR __Last_arg$[ebp]
  00012	74 16		 je	 SHORT $LN1@erase

; 1195 : 			{	// worth doing, copy down over hole
; 1196 :  #if _ITERATOR_DEBUG_LEVEL == 2
; 1197 : 			if (_Last < _First || _VICONT(_First) != this
; 1198 : 				|| _VIPTR(_First) < this->_Myfirst
; 1199 : 				|| this->_Mylast < _VIPTR(_Last))
; 1200 : 				_DEBUG_ERROR("vector erase iterator outside range");
; 1201 : 			pointer _Ptr = _Move(_VIPTR(_Last), this->_Mylast,
; 1202 : 				_VIPTR(_First));
; 1203 : 			_Orphan_range(_VIPTR(_First), this->_Mylast);
; 1204 : 
; 1205 :  #else /* _ITERATOR_DEBUG_LEVEL == 2 */
; 1206 : 			pointer _Ptr = _Move(_VIPTR(_Last), this->_Mylast,
; 1207 : 				_VIPTR(_First));

  00014	ff 75 10	 push	 DWORD PTR __Cat$534578[ebp]
  00017	8b 4e 04	 mov	 ecx, DWORD PTR [esi+4]
  0001a	50		 push	 eax
  0001b	51		 push	 ecx
  0001c	ff 75 10	 push	 DWORD PTR __Last_arg$[ebp]
  0001f	e8 00 00 00 00	 call	 ??$_Move@PAHPAH@std@@YAPAHPAH00U_Scalar_ptr_iterator_tag@0@@Z ; std::_Move<int *,int *>
  00024	83 c4 10	 add	 esp, 16			; 00000010H

; 1208 :  #endif /* _ITERATOR_DEBUG_LEVEL == 2 */
; 1209 : 
; 1210 : 			_Destroy(_Ptr, this->_Mylast);
; 1211 : 			this->_Mylast = _Ptr;

  00027	89 46 04	 mov	 DWORD PTR [esi+4], eax
$LN1@erase:

; 1212 : 			}
; 1213 : 		return (_First);

  0002a	8b c7		 mov	 eax, edi
  0002c	5f		 pop	 edi
  0002d	5e		 pop	 esi

; 1214 : 		}

  0002e	5d		 pop	 ebp
  0002f	c2 0c 00	 ret	 12			; 0000000cH
?erase@?$vector@HV?$allocator@H@std@@@std@@QAE?AV?$_Vector_iterator@V?$_Vector_val@HV?$allocator@H@std@@@std@@@2@V?$_Vector_const_iterator@V?$_Vector_val@HV?$allocator@H@std@@@std@@@2@0@Z ENDP ; std::vector<int,std::allocator<int> >::erase
_TEXT	ENDS
PUBLIC	?_Tidy@?$vector@HV?$allocator@H@std@@@std@@IAEXXZ ; std::vector<int,std::allocator<int> >::_Tidy
EXTRN	__imp_?_Orphan_all@_Container_base0@std@@QAEXXZ:PROC
; Function compile flags: /Ogsp
;	COMDAT ?_Tidy@?$vector@HV?$allocator@H@std@@@std@@IAEXXZ
_TEXT	SEGMENT
?_Tidy@?$vector@HV?$allocator@H@std@@@std@@IAEXXZ PROC	; std::vector<int,std::allocator<int> >::_Tidy, COMDAT
; _this$ = ecx

; 1301 : 		{	// free all storage

  00000	56		 push	 esi
  00001	8b f1		 mov	 esi, ecx

; 1302 : 		if (this->_Myfirst != 0)

  00003	83 3e 00	 cmp	 DWORD PTR [esi], 0
  00006	74 0e		 je	 SHORT $LN12@Tidy

; 1303 : 			{	// something to free, destroy and deallocate it
; 1304 : 			this->_Orphan_all();

  00008	ff 15 00 00 00
	00		 call	 DWORD PTR __imp_?_Orphan_all@_Container_base0@std@@QAEXXZ

; 1305 : 			_Destroy(this->_Myfirst, this->_Mylast);
; 1306 : 			this->_Alval.deallocate(this->_Myfirst,
; 1307 : 				this->_Myend - this->_Myfirst);

  0000e	ff 36		 push	 DWORD PTR [esi]
  00010	e8 00 00 00 00	 call	 ??3@YAXPAX@Z		; operator delete
  00015	59		 pop	 ecx
$LN12@Tidy:

; 1308 : 			}
; 1309 : 		this->_Myfirst = 0;

  00016	83 26 00	 and	 DWORD PTR [esi], 0

; 1310 : 		this->_Mylast = 0;

  00019	83 66 04 00	 and	 DWORD PTR [esi+4], 0

; 1311 : 		this->_Myend = 0;

  0001d	83 66 08 00	 and	 DWORD PTR [esi+8], 0
  00021	5e		 pop	 esi

; 1312 : 		}

  00022	c3		 ret	 0
?_Tidy@?$vector@HV?$allocator@H@std@@@std@@IAEXXZ ENDP	; std::vector<int,std::allocator<int> >::_Tidy
_TEXT	ENDS
PUBLIC	?reserve@?$vector@HV?$allocator@H@std@@@std@@QAEXI@Z ; std::vector<int,std::allocator<int> >::reserve
; Function compile flags: /Ogsp
;	COMDAT ?reserve@?$vector@HV?$allocator@H@std@@@std@@QAEXI@Z
_TEXT	SEGMENT
__Count$ = 8						; size = 4
?reserve@?$vector@HV?$allocator@H@std@@@std@@QAEXI@Z PROC ; std::vector<int,std::allocator<int> >::reserve, COMDAT
; _this$ = ecx

; 746  : 		{	// determine new minimum length of allocated storage

  00000	55		 push	 ebp
  00001	8b ec		 mov	 ebp, esp

; 747  : 		if (max_size() < _Count)

  00003	81 7d 08 ff ff
	ff 3f		 cmp	 DWORD PTR __Count$[ebp], 1073741823 ; 3fffffffH
  0000a	56		 push	 esi
  0000b	8b f1		 mov	 esi, ecx
  0000d	76 0b		 jbe	 SHORT $LN5@reserve

; 748  : 			_Xlen();	// result too long

  0000f	68 00 00 00 00	 push	 OFFSET ??_C@_0BD@OLBABOEK@vector?$DMT?$DO?5too?5long?$AA@
  00014	ff 15 00 00 00
	00		 call	 DWORD PTR __imp_?_Xlength_error@std@@YAXPBD@Z
$LN43@reserve:
$LN5@reserve:

; 749  : 		else if (capacity() < _Count)

  0001a	8b 46 08	 mov	 eax, DWORD PTR [esi+8]
  0001d	2b 06		 sub	 eax, DWORD PTR [esi]
  0001f	c1 f8 02	 sar	 eax, 2
  00022	3b 45 08	 cmp	 eax, DWORD PTR __Count$[ebp]
  00025	73 52		 jae	 SHORT $LN3@reserve

; 750  : 			{	// not enough room, reallocate
; 751  : 			pointer _Ptr = this->_Alval.allocate(_Count);

  00027	53		 push	 ebx
  00028	57		 push	 edi
  00029	6a 00		 push	 0
  0002b	ff 75 08	 push	 DWORD PTR __Count$[ebp]
  0002e	e8 00 00 00 00	 call	 ??$_Allocate@H@std@@YAPAHIPAH@Z ; std::_Allocate<int>

; 752  : 
; 753  : 			_TRY_BEGIN
; 754  : 			_Umove(this->_Myfirst, this->_Mylast, _Ptr);

  00033	8b 0e		 mov	 ecx, DWORD PTR [esi]
  00035	8d 56 0c	 lea	 edx, DWORD PTR [esi+12]
  00038	52		 push	 edx
  00039	8b d8		 mov	 ebx, eax
  0003b	8b 46 04	 mov	 eax, DWORD PTR [esi+4]
  0003e	53		 push	 ebx
  0003f	50		 push	 eax
  00040	51		 push	 ecx
  00041	e8 00 00 00 00	 call	 ??$_Uninitialized_move@PAHPAHV?$allocator@H@std@@@std@@YAPAHPAH00AAV?$allocator@H@0@@Z ; std::_Uninitialized_move<int *,int *,std::allocator<int> >

; 755  : 			_CATCH_ALL
; 756  : 			this->_Alval.deallocate(_Ptr, _Count);
; 757  : 			_RERAISE;
; 758  : 			_CATCH_END
; 759  : 
; 760  : 			size_type _Size = size();

  00046	8b 06		 mov	 eax, DWORD PTR [esi]
  00048	8b 7e 04	 mov	 edi, DWORD PTR [esi+4]
  0004b	2b f8		 sub	 edi, eax
  0004d	83 c4 18	 add	 esp, 24			; 00000018H
  00050	c1 ff 02	 sar	 edi, 2

; 761  : 			if (this->_Myfirst != 0)

  00053	85 c0		 test	 eax, eax
  00055	74 07		 je	 SHORT $LN39@reserve

; 762  : 				{	// destroy and deallocate old array
; 763  : 				_Destroy(this->_Myfirst, this->_Mylast);
; 764  : 				this->_Alval.deallocate(this->_Myfirst,
; 765  : 					this->_Myend - this->_Myfirst);

  00057	50		 push	 eax
  00058	e8 00 00 00 00	 call	 ??3@YAXPAX@Z		; operator delete
  0005d	59		 pop	 ecx
$LN39@reserve:

; 766  : 				}
; 767  : 
; 768  : 			this->_Orphan_all();

  0005e	8b ce		 mov	 ecx, esi
  00060	ff 15 00 00 00
	00		 call	 DWORD PTR __imp_?_Orphan_all@_Container_base0@std@@QAEXXZ

; 769  : 			this->_Myend = _Ptr + _Count;

  00066	8b 45 08	 mov	 eax, DWORD PTR __Count$[ebp]
  00069	8d 04 83	 lea	 eax, DWORD PTR [ebx+eax*4]
  0006c	89 46 08	 mov	 DWORD PTR [esi+8], eax

; 770  : 			this->_Mylast = _Ptr + _Size;

  0006f	8d 04 bb	 lea	 eax, DWORD PTR [ebx+edi*4]
  00072	5f		 pop	 edi

; 771  : 			this->_Myfirst = _Ptr;

  00073	89 1e		 mov	 DWORD PTR [esi], ebx
  00075	89 46 04	 mov	 DWORD PTR [esi+4], eax
  00078	5b		 pop	 ebx
$LN3@reserve:
  00079	5e		 pop	 esi

; 772  : 			}
; 773  : 		}

  0007a	5d		 pop	 ebp
  0007b	c2 04 00	 ret	 4
$LN42@reserve:
?reserve@?$vector@HV?$allocator@H@std@@@std@@QAEXI@Z ENDP ; std::vector<int,std::allocator<int> >::reserve
_TEXT	ENDS
PUBLIC	__real@4f800000
PUBLIC	?ProcessBuff@ioDamageConvertBuff@@UAEXM@Z	; ioDamageConvertBuff::ProcessBuff
EXTRN	?InitWoundDamageInfoList@ioBaseChar@@QAEXXZ:PROC ; ioBaseChar::InitWoundDamageInfoList
EXTRN	?InitAttackDamageInfoList@ioBaseChar@@QAEXXZ:PROC ; ioBaseChar::InitAttackDamageInfoList
EXTRN	__imp_??9ioHashString@@QBE_NABV0@@Z:PROC
EXTRN	?GetValue@ioGrowthNormalUpInfo@@QAEMPAVioPlayStage@@@Z:PROC ; ioGrowthNormalUpInfo::GetValue
EXTRN	?SetCurSkillGauge@ioItem@@QAEXM@Z:PROC		; ioItem::SetCurSkillGauge
EXTRN	?GetEquipedSkill@ioBaseChar@@QAEPAVioSkill@@H@Z:PROC ; ioBaseChar::GetEquipedSkill
EXTRN	?GetEquipedItem@ioBaseChar@@QAEPAVioItem@@H@Z:PROC ; ioBaseChar::GetEquipedItem
EXTRN	?GetEquipedItem@ioBaseChar@@QAEPAVioItem@@ABVioHashString@@@Z:PROC ; ioBaseChar::GetEquipedItem
EXTRN	?AttachEffect@ioBaseChar@@QAEPAVioEffect@@ABVioHashString@@PAVioEntityEvent@@_N@Z:PROC ; ioBaseChar::AttachEffect
EXTRN	?RecoveryHP@ioBaseChar@@QAEXM@Z:PROC		; ioBaseChar::RecoveryHP
EXTRN	?SetReserveEndBuff@ioBuff@@QAEXXZ:PROC		; ioBuff::SetReserveEndBuff
EXTRN	?CheckCallingAreaWeapon@ioBuff@@IAEXXZ:PROC	; ioBuff::CheckCallingAreaWeapon
EXTRN	?ProcessBuff@ioBuff@@UAEXM@Z:PROC		; ioBuff::ProcessBuff
;	COMDAT __real@4f800000
; File d:\lost saga for developer\youtube\tutorial\source\src\lsclient\encryptvalue.h
CONST	SEGMENT
__real@4f800000 DD 04f800000r			; 4.29497e+009
; Function compile flags: /Ogsp
; File d:\lost saga for developer\youtube\tutorial\source\src\lsclient\iodamageconvertbuff.cpp
CONST	ENDS
;	COMDAT ?ProcessBuff@ioDamageConvertBuff@@UAEXM@Z
_TEXT	SEGMENT
_value$534787 = -12					; size = 4
_fAttackGauge$531034 = -12				; size = 4
_value$534782 = -8					; size = 4
_value$534756 = -8					; size = 4
_fWoundedGauge$531036 = -8				; size = 4
_fAttackGauge$531014 = -8				; size = 4
_fRecoveryGauge$531019 = -4				; size = 4
_fWoundedGauge$531016 = -4				; size = 4
_pOwner$ = -4						; size = 4
tv472 = 8						; size = 4
tv467 = 8						; size = 4
_fGrowth$531041 = 8					; size = 4
_fAttackHP$531035 = 8					; size = 4
_pOwnerItem$531021 = 8					; size = 4
_fAttackHP$531015 = 8					; size = 4
_fTimePerSec$ = 8					; size = 4
_value$534739 = 11					; size = 1
?ProcessBuff@ioDamageConvertBuff@@UAEXM@Z PROC		; ioDamageConvertBuff::ProcessBuff, COMDAT
; _this$ = ecx

; 117  : {

  00000	55		 push	 ebp
  00001	8b ec		 mov	 ebp, esp
  00003	83 ec 0c	 sub	 esp, 12			; 0000000cH
  00006	56		 push	 esi
  00007	8b f1		 mov	 esi, ecx

; 118  : 	switch( m_iOperationType )

  00009	8b 86 d0 03 00
	00		 mov	 eax, DWORD PTR [esi+976]
  0000f	83 e8 00	 sub	 eax, 0
  00012	74 19		 je	 SHORT $LN26@ProcessBuf
  00014	48		 dec	 eax
  00015	74 04		 je	 SHORT $LN27@ProcessBuf
  00017	48		 dec	 eax
  00018	48		 dec	 eax
  00019	75 17		 jne	 SHORT $LN29@ProcessBuf
$LN27@ProcessBuf:

; 119  : 	{
; 120  : 	case OT_SWITCH:
; 121  : 		break;
; 122  : 	case OT_DELAY:
; 123  : 	case OT_ACTIVE:
; 124  : 		ioBuff::ProcessBuff( fTimePerSec );

  0001b	f3 0f 10 45 08	 movss	 xmm0, DWORD PTR _fTimePerSec$[ebp]
  00020	51		 push	 ecx
  00021	f3 0f 11 04 24	 movss	 DWORD PTR [esp], xmm0
  00026	e8 00 00 00 00	 call	 ?ProcessBuff@ioBuff@@UAEXM@Z ; ioBuff::ProcessBuff

; 125  : 		break;

  0002b	eb 05		 jmp	 SHORT $LN29@ProcessBuf
$LN26@ProcessBuf:

; 126  : 	case OT_PASSIVE:
; 127  : 		CheckCallingAreaWeapon();

  0002d	e8 00 00 00 00	 call	 ?CheckCallingAreaWeapon@ioBuff@@IAEXXZ ; ioBuff::CheckCallingAreaWeapon
$LN29@ProcessBuf:

; 128  : 		break;
; 129  : 	}
; 130  : 
; 131  : 	if( !IsLive() )

  00032	8d 45 0b	 lea	 eax, DWORD PTR _value$534739[ebp]
  00035	50		 push	 eax
  00036	8d 8e 70 07 00
	00		 lea	 ecx, DWORD PTR [esi+1904]
  0003c	e8 00 00 00 00	 call	 ?DecryptValueToPool@?$CEncrypt@_N@@QAEXPA_N@Z ; CEncrypt<bool>::DecryptValueToPool
  00041	80 7d 0b 00	 cmp	 BYTE PTR _value$534739[ebp], 0
  00045	0f 84 f0 02 00
	00		 je	 $LN11@ProcessBuf

; 132  : 		return;
; 133  : 
; 134  : 	ioBaseChar *pOwner = GetOwner();

  0004b	53		 push	 ebx
  0004c	8b ce		 mov	 ecx, esi
  0004e	e8 00 00 00 00	 call	 ?GetOwner@ioBuff@@QAEPAVioBaseChar@@XZ ; ioBuff::GetOwner
  00053	8b d8		 mov	 ebx, eax
  00055	89 5d fc	 mov	 DWORD PTR _pOwner$[ebp], ebx

; 135  : 	if( !pOwner )

  00058	85 db		 test	 ebx, ebx
  0005a	75 0c		 jne	 SHORT $LN24@ProcessBuf

; 136  : 	{
; 137  : 		SetReserveEndBuff();

  0005c	8b ce		 mov	 ecx, esi
  0005e	e8 00 00 00 00	 call	 ?SetReserveEndBuff@ioBuff@@QAEXXZ ; ioBuff::SetReserveEndBuff

; 138  : 		return;

  00063	e9 d2 02 00 00	 jmp	 $LN62@ProcessBuf
$LN24@ProcessBuf:

; 139  : 	}
; 140  : 
; 141  : 	if( m_type == DCVT_NORMAL )

  00068	8b 86 6c 09 00
	00		 mov	 eax, DWORD PTR [esi+2412]
  0006e	57		 push	 edi
  0006f	85 c0		 test	 eax, eax
  00071	0f 85 08 01 00
	00		 jne	 $LN23@ProcessBuf

; 142  : 	{
; 143  : 		if( pOwner->IsOwnerChar() )

  00077	38 83 84 13 00
	00		 cmp	 BYTE PTR [ebx+4996], al
  0007d	0f 84 b6 02 00
	00		 je	 $LN63@ProcessBuf

; 144  : 		{
; 145  : 			//Attack
; 146  : 			float fAttackGauge = GetRecoveryGaugeByAttack();

  00083	8b ce		 mov	 ecx, esi
  00085	e8 00 00 00 00	 call	 ?GetRecoveryGaugeByAttack@ioDamageConvertBuff@@IAEMXZ ; ioDamageConvertBuff::GetRecoveryGaugeByAttack
  0008a	d9 5d f8	 fstp	 DWORD PTR _fAttackGauge$531014[ebp]

; 147  : 			float fAttackHP = GetRecoveryHPByAttack();

  0008d	8b ce		 mov	 ecx, esi
  0008f	e8 00 00 00 00	 call	 ?GetRecoveryHPByAttack@ioDamageConvertBuff@@IAEMXZ ; ioDamageConvertBuff::GetRecoveryHPByAttack
  00094	d9 5d 08	 fstp	 DWORD PTR _fAttackHP$531015[ebp]

; 148  : 
; 149  : 			//Wounded
; 150  : 			float fWoundedGauge = GetRecoveryGaugeByWounded();

  00097	8b ce		 mov	 ecx, esi
  00099	e8 00 00 00 00	 call	 ?GetRecoveryGaugeByWounded@ioDamageConvertBuff@@IAEMXZ ; ioDamageConvertBuff::GetRecoveryGaugeByWounded
  0009e	d9 5d fc	 fstp	 DWORD PTR _fWoundedGauge$531016[ebp]

; 151  : 
; 152  : 			// HP
; 153  : 			if( fAttackHP > 0.0f )

  000a1	d9 ee		 fldz
  000a3	d9 45 08	 fld	 DWORD PTR _fAttackHP$531015[ebp]
  000a6	df f1		 fcomip	 ST(1)
  000a8	dd d8		 fstp	 ST(0)
  000aa	76 34		 jbe	 SHORT $LN61@ProcessBuf

; 154  : 				m_pOwner->RecoveryHP( fAttackHP );

  000ac	f3 0f 10 45 08	 movss	 xmm0, DWORD PTR _fAttackHP$531015[ebp]
  000b1	51		 push	 ecx
  000b2	8b 8e 74 02 00
	00		 mov	 ecx, DWORD PTR [esi+628]
  000b8	f3 0f 11 04 24	 movss	 DWORD PTR [esp], xmm0
  000bd	e8 00 00 00 00	 call	 ?RecoveryHP@ioBaseChar@@QAEXM@Z ; ioBaseChar::RecoveryHP

; 155  : 
; 156  : 			if( fAttackHP > 0.0f && !m_HPStealEffect.IsEmpty() )

  000c2	8d be 60 0a 00
	00		 lea	 edi, DWORD PTR [esi+2656]
  000c8	8b cf		 mov	 ecx, edi
  000ca	ff 15 00 00 00
	00		 call	 DWORD PTR __imp_?IsEmpty@ioHashString@@QBE_NXZ
  000d0	84 c0		 test	 al, al
  000d2	75 0c		 jne	 SHORT $LN61@ProcessBuf

; 157  : 			{
; 158  : 				pOwner->AttachEffect( m_HPStealEffect, NULL );

  000d4	6a 01		 push	 1
  000d6	6a 00		 push	 0
  000d8	57		 push	 edi
  000d9	8b cb		 mov	 ecx, ebx
  000db	e8 00 00 00 00	 call	 ?AttachEffect@ioBaseChar@@QAEPAVioEffect@@ABVioHashString@@PAVioEntityEvent@@_N@Z ; ioBaseChar::AttachEffect
$LN61@ProcessBuf:

; 159  : 			}
; 160  : 
; 161  : 			//Gauge
; 162  : 			float fRecoveryGauge = fAttackGauge + fWoundedGauge;

  000e0	f3 0f 10 45 fc	 movss	 xmm0, DWORD PTR _fWoundedGauge$531016[ebp]
  000e5	f3 0f 10 4d f8	 movss	 xmm1, DWORD PTR _fAttackGauge$531014[ebp]
  000ea	0f 5a c0	 cvtps2pd xmm0, xmm0
  000ed	0f 5a c9	 cvtps2pd xmm1, xmm1
  000f0	f2 0f 58 c1	 addsd	 xmm0, xmm1
  000f4	66 0f 5a c0	 cvtpd2ps xmm0, xmm0

; 163  : 			if( fRecoveryGauge > 0.0f )

  000f8	0f 2f 05 00 00
	00 00		 comiss	 xmm0, DWORD PTR __real@00000000
  000ff	f3 0f 11 45 fc	 movss	 DWORD PTR _fRecoveryGauge$531019[ebp], xmm0
  00104	0f 86 21 02 00
	00		 jbe	 $LN4@ProcessBuf

; 164  : 			{
; 165  : 				ioItem *pOwnerItem = m_pOwner->GetEquipedItem( m_ItemName );

  0010a	8b 8e 74 02 00
	00		 mov	 ecx, DWORD PTR [esi+628]
  00110	8d 86 44 02 00
	00		 lea	 eax, DWORD PTR [esi+580]
  00116	50		 push	 eax
  00117	e8 00 00 00 00	 call	 ?GetEquipedItem@ioBaseChar@@QAEPAVioItem@@ABVioHashString@@@Z ; ioBaseChar::GetEquipedItem
  0011c	89 45 08	 mov	 DWORD PTR _pOwnerItem$531021[ebp], eax

; 166  : 
; 167  : 				for( int iSlot=0; iSlot < 4; ++iSlot )

  0011f	33 ff		 xor	 edi, edi
$LL18@ProcessBuf:

; 168  : 				{
; 169  : 					ioItem *pItem = pOwner->GetEquipedItem( iSlot );

  00121	57		 push	 edi
  00122	8b cb		 mov	 ecx, ebx
  00124	e8 00 00 00 00	 call	 ?GetEquipedItem@ioBaseChar@@QAEPAVioItem@@H@Z ; ioBaseChar::GetEquipedItem

; 170  : 					ioSkill *pSkill = pOwner->GetEquipedSkill( iSlot );

  00129	57		 push	 edi
  0012a	8b cb		 mov	 ecx, ebx
  0012c	8b f0		 mov	 esi, eax
  0012e	e8 00 00 00 00	 call	 ?GetEquipedSkill@ioBaseChar@@QAEPAVioSkill@@H@Z ; ioBaseChar::GetEquipedSkill

; 171  : 
; 172  : 					if( !pItem || !pSkill ) continue;

  00133	85 f6		 test	 esi, esi
  00135	74 3d		 je	 SHORT $LN17@ProcessBuf
  00137	85 c0		 test	 eax, eax
  00139	74 39		 je	 SHORT $LN17@ProcessBuf

; 173  : 					//if( pItem == m_pOwnerItem ) continue;
; 174  : 					if( pItem == pOwnerItem ) continue;

  0013b	3b 75 08	 cmp	 esi, DWORD PTR _pOwnerItem$531021[ebp]
  0013e	74 34		 je	 SHORT $LN17@ProcessBuf

; 175  : 
; 176  : 					float fCurGauge = pItem->GetCurSkillGuage();

  00140	8d 45 f8	 lea	 eax, DWORD PTR _value$534756[ebp]
  00143	50		 push	 eax
  00144	8d 8e f4 03 00
	00		 lea	 ecx, DWORD PTR [esi+1012]
  0014a	e8 00 00 00 00	 call	 ?DecryptValueToPool@?$CEncrypt@M@@QAEXPAM@Z ; CEncrypt<float>::DecryptValueToPool

; 177  : 					fCurGauge += fRecoveryGauge;
; 178  : 					pItem->SetCurSkillGauge( fCurGauge );

  0014f	f3 0f 10 45 f8	 movss	 xmm0, DWORD PTR _value$534756[ebp]
  00154	f3 0f 10 4d fc	 movss	 xmm1, DWORD PTR _fRecoveryGauge$531019[ebp]
  00159	0f 5a c0	 cvtps2pd xmm0, xmm0
  0015c	0f 5a c9	 cvtps2pd xmm1, xmm1
  0015f	51		 push	 ecx
  00160	f2 0f 58 c1	 addsd	 xmm0, xmm1
  00164	66 0f 5a c0	 cvtpd2ps xmm0, xmm0
  00168	8b ce		 mov	 ecx, esi
  0016a	f3 0f 11 04 24	 movss	 DWORD PTR [esp], xmm0
  0016f	e8 00 00 00 00	 call	 ?SetCurSkillGauge@ioItem@@QAEXM@Z ; ioItem::SetCurSkillGauge
$LN17@ProcessBuf:

; 166  : 
; 167  : 				for( int iSlot=0; iSlot < 4; ++iSlot )

  00174	47		 inc	 edi
  00175	83 ff 04	 cmp	 edi, 4
  00178	7c a7		 jl	 SHORT $LL18@ProcessBuf

; 179  : 
; 180  : #ifdef ANTIHACK
; 181  : 					AddRecoverSkillInfo( iSlot, pItem );
; 182  : #endif
; 183  : 					
; 184  : 				}
; 185  : 			}
; 186  : 
; 187  : 			pOwner->InitAttackDamageInfoList();
; 188  : 			pOwner->InitWoundDamageInfoList();
; 189  : 		}
; 190  : 	}

  0017a	e9 ac 01 00 00	 jmp	 $LN4@ProcessBuf
$LN23@ProcessBuf:

; 191  : 	else if( m_type == DCVT_TYPE1 )

  0017f	83 f8 01	 cmp	 eax, 1
  00182	0f 85 b1 01 00
	00		 jne	 $LN63@ProcessBuf

; 192  : 	{
; 193  : 		//Attack
; 194  : 		float fAttackGauge = GetRecoveryGaugeByAttack();

  00188	8b ce		 mov	 ecx, esi
  0018a	e8 00 00 00 00	 call	 ?GetRecoveryGaugeByAttack@ioDamageConvertBuff@@IAEMXZ ; ioDamageConvertBuff::GetRecoveryGaugeByAttack
  0018f	d9 5d f4	 fstp	 DWORD PTR _fAttackGauge$531034[ebp]

; 195  : 		float fAttackHP = GetRecoveryHPByAttack();

  00192	8b ce		 mov	 ecx, esi
  00194	e8 00 00 00 00	 call	 ?GetRecoveryHPByAttack@ioDamageConvertBuff@@IAEMXZ ; ioDamageConvertBuff::GetRecoveryHPByAttack
  00199	d9 5d 08	 fstp	 DWORD PTR _fAttackHP$531035[ebp]

; 196  : 
; 197  : 		//Wounded
; 198  : 		float fWoundedGauge = GetRecoveryGaugeByWounded();

  0019c	8b ce		 mov	 ecx, esi
  0019e	e8 00 00 00 00	 call	 ?GetRecoveryGaugeByWounded@ioDamageConvertBuff@@IAEMXZ ; ioDamageConvertBuff::GetRecoveryGaugeByWounded
  001a3	d9 5d f8	 fstp	 DWORD PTR _fWoundedGauge$531036[ebp]

; 199  : 
; 200  : 		// HP
; 201  : 		if( fAttackHP > 0.0f )

  001a6	d9 ee		 fldz
  001a8	d9 45 08	 fld	 DWORD PTR _fAttackHP$531035[ebp]
  001ab	df f1		 fcomip	 ST(1)
  001ad	dd d8		 fstp	 ST(0)
  001af	76 34		 jbe	 SHORT $LN9@ProcessBuf

; 202  : 			m_pOwner->RecoveryHP( fAttackHP );

  001b1	f3 0f 10 45 08	 movss	 xmm0, DWORD PTR _fAttackHP$531035[ebp]
  001b6	51		 push	 ecx
  001b7	8b 8e 74 02 00
	00		 mov	 ecx, DWORD PTR [esi+628]
  001bd	f3 0f 11 04 24	 movss	 DWORD PTR [esp], xmm0
  001c2	e8 00 00 00 00	 call	 ?RecoveryHP@ioBaseChar@@QAEXM@Z ; ioBaseChar::RecoveryHP

; 203  : 
; 204  : 		if( fAttackHP > 0.0f && !m_HPStealEffect.IsEmpty() )

  001c7	8d be 60 0a 00
	00		 lea	 edi, DWORD PTR [esi+2656]
  001cd	8b cf		 mov	 ecx, edi
  001cf	ff 15 00 00 00
	00		 call	 DWORD PTR __imp_?IsEmpty@ioHashString@@QBE_NXZ
  001d5	84 c0		 test	 al, al
  001d7	75 0c		 jne	 SHORT $LN9@ProcessBuf

; 205  : 		{
; 206  : 			pOwner->AttachEffect( m_HPStealEffect, NULL );

  001d9	6a 01		 push	 1
  001db	6a 00		 push	 0
  001dd	57		 push	 edi
  001de	8b cb		 mov	 ecx, ebx
  001e0	e8 00 00 00 00	 call	 ?AttachEffect@ioBaseChar@@QAEPAVioEffect@@ABVioHashString@@PAVioEntityEvent@@_N@Z ; ioBaseChar::AttachEffect
$LN9@ProcessBuf:

; 207  : 		}
; 208  : 
; 209  : 		ioPlayStage *pStage = m_pOwner->GetCreator();

  001e5	8b 86 74 02 00
	00		 mov	 eax, DWORD PTR [esi+628]
  001eb	8b b8 44 03 00
	00		 mov	 edi, DWORD PTR [eax+836]

; 210  : 		ioGrowthNormalUpInfo *pUpInfo = NULL;
; 211  : 
; 212  : 		float fGrowth = 0.f;

  001f1	0f 57 c0	 xorps	 xmm0, xmm0

; 213  : 		pUpInfo = ToNormalUpInfo( GetGrowthUpInfoByType(GT_SKILL_COOL_TIME, m_CreateChar) );

  001f4	8d 86 88 02 00
	00		 lea	 eax, DWORD PTR [esi+648]
  001fa	50		 push	 eax
  001fb	6a 08		 push	 8
  001fd	8b ce		 mov	 ecx, esi
  001ff	f3 0f 11 45 08	 movss	 DWORD PTR _fGrowth$531041[ebp], xmm0
  00204	e8 00 00 00 00	 call	 ?GetGrowthUpInfoByType@ioDamageConvertBuff@@IAEPAVioGrowthUpInfo@@HABVioHashString@@@Z ; ioDamageConvertBuff::GetGrowthUpInfoByType
  00209	50		 push	 eax
  0020a	e8 00 00 00 00	 call	 ?ToNormalUpInfo@@YAPAVioGrowthNormalUpInfo@@PAVioGrowthUpInfo@@@Z ; ToNormalUpInfo
  0020f	59		 pop	 ecx

; 214  : 		if( pUpInfo )

  00210	85 c0		 test	 eax, eax
  00212	74 0b		 je	 SHORT $LN8@ProcessBuf

; 215  : 			fGrowth = pUpInfo->GetValue(pStage);

  00214	57		 push	 edi
  00215	8b c8		 mov	 ecx, eax
  00217	e8 00 00 00 00	 call	 ?GetValue@ioGrowthNormalUpInfo@@QAEMPAVioPlayStage@@@Z ; ioGrowthNormalUpInfo::GetValue
  0021c	d9 5d 08	 fstp	 DWORD PTR _fGrowth$531041[ebp]
$LN8@ProcessBuf:

; 216  : 
; 217  : 		fGrowth = FLOAT1 + (fGrowth/FLOAT100);

  0021f	b8 01 00 00 00	 mov	 eax, 1
  00224	8b c8		 mov	 ecx, eax
  00226	b8 64 00 00 00	 mov	 eax, 100		; 00000064H
  0022b	d9 45 08	 fld	 DWORD PTR _fGrowth$531041[ebp]
  0022e	89 45 08	 mov	 DWORD PTR tv472[ebp], eax
  00231	db 45 08	 fild	 DWORD PTR tv472[ebp]
  00234	85 c0		 test	 eax, eax
  00236	79 06		 jns	 SHORT $LN64@ProcessBuf
  00238	d8 05 00 00 00
	00		 fadd	 DWORD PTR __real@4f800000
$LN64@ProcessBuf:
  0023e	de f9		 fdivp	 ST(1), ST(0)
  00240	89 4d 08	 mov	 DWORD PTR tv467[ebp], ecx
  00243	db 45 08	 fild	 DWORD PTR tv467[ebp]
  00246	85 c9		 test	 ecx, ecx
  00248	79 06		 jns	 SHORT $LN65@ProcessBuf
  0024a	d8 05 00 00 00
	00		 fadd	 DWORD PTR __real@4f800000
$LN65@ProcessBuf:

; 218  : 
; 219  : 		//Gauge
; 220  : 		float fRecoveryGauge = fAttackGauge + fWoundedGauge;
; 221  : 		if( fRecoveryGauge > 0.0f && m_nCurAttackCnt < m_nGaugeAttackCnt )

  00250	f3 0f 10 45 f8	 movss	 xmm0, DWORD PTR _fWoundedGauge$531036[ebp]
  00255	de c1		 faddp	 ST(1), ST(0)
  00257	f3 0f 10 4d f4	 movss	 xmm1, DWORD PTR _fAttackGauge$531034[ebp]
  0025c	0f 5a c0	 cvtps2pd xmm0, xmm0
  0025f	0f 5a c9	 cvtps2pd xmm1, xmm1
  00262	d9 5d 08	 fstp	 DWORD PTR _fGrowth$531041[ebp]
  00265	f2 0f 58 c1	 addsd	 xmm0, xmm1
  00269	66 0f 5a c0	 cvtpd2ps xmm0, xmm0
  0026d	0f 2f 05 00 00
	00 00		 comiss	 xmm0, DWORD PTR __real@00000000
  00274	0f 86 b1 00 00
	00		 jbe	 $LN4@ProcessBuf
  0027a	8b 86 94 0a 00
	00		 mov	 eax, DWORD PTR [esi+2708]
  00280	3b 86 90 0a 00
	00		 cmp	 eax, DWORD PTR [esi+2704]
  00286	0f 8d 9f 00 00
	00		 jge	 $LN4@ProcessBuf

; 222  : 		{
; 223  : 			for( int iSlot=0; iSlot < 4; ++iSlot )

  0028c	33 db		 xor	 ebx, ebx
$LL6@ProcessBuf:

; 224  : 			{
; 225  : 				ioItem *pItem = pOwner->GetEquipedItem( iSlot );

  0028e	8b 4d fc	 mov	 ecx, DWORD PTR _pOwner$[ebp]
  00291	53		 push	 ebx
  00292	e8 00 00 00 00	 call	 ?GetEquipedItem@ioBaseChar@@QAEPAVioItem@@H@Z ; ioBaseChar::GetEquipedItem

; 226  : 				ioSkill *pSkill = pOwner->GetEquipedSkill( iSlot );

  00297	8b 4d fc	 mov	 ecx, DWORD PTR _pOwner$[ebp]
  0029a	53		 push	 ebx
  0029b	8b f8		 mov	 edi, eax
  0029d	e8 00 00 00 00	 call	 ?GetEquipedSkill@ioBaseChar@@QAEPAVioSkill@@H@Z ; ioBaseChar::GetEquipedSkill

; 227  : 
; 228  : 				if( !pItem || !pSkill ) continue;

  002a2	85 ff		 test	 edi, edi
  002a4	74 78		 je	 SHORT $LN5@ProcessBuf
  002a6	85 c0		 test	 eax, eax
  002a8	74 74		 je	 SHORT $LN5@ProcessBuf

; 229  : 				//if( pItem != m_pOwnerItem ) continue;
; 230  : 				if( pItem->GetName() != m_ItemName  )

  002aa	8d 86 44 02 00
	00		 lea	 eax, DWORD PTR [esi+580]
  002b0	50		 push	 eax
  002b1	8d 8f 34 01 00
	00		 lea	 ecx, DWORD PTR [edi+308]
  002b7	ff 15 00 00 00
	00		 call	 DWORD PTR __imp_??9ioHashString@@QBE_NABV0@@Z
  002bd	84 c0		 test	 al, al
  002bf	75 5d		 jne	 SHORT $LN5@ProcessBuf

; 231  : 					continue;
; 232  : 
; 233  : 				float fCurGauge = pItem->GetCurSkillGuage();

  002c1	8d 45 f8	 lea	 eax, DWORD PTR _value$534782[ebp]
  002c4	50		 push	 eax
  002c5	8d 8f f4 03 00
	00		 lea	 ecx, DWORD PTR [edi+1012]
  002cb	e8 00 00 00 00	 call	 ?DecryptValueToPool@?$CEncrypt@M@@QAEXPAM@Z ; CEncrypt<float>::DecryptValueToPool

; 234  : 				fCurGauge += (m_fAbsoluteRecoveryGague/fGrowth);

  002d0	8d 45 f4	 lea	 eax, DWORD PTR _value$534787[ebp]
  002d3	50		 push	 eax
  002d4	8d 8e 98 0a 00
	00		 lea	 ecx, DWORD PTR [esi+2712]
  002da	e8 00 00 00 00	 call	 ?DecryptValueToPool@?$CEncrypt@M@@QAEXPAM@Z ; CEncrypt<float>::DecryptValueToPool

; 235  : 
; 236  : 				pItem->SetCurSkillGauge( fCurGauge );

  002df	f3 0f 10 45 f4	 movss	 xmm0, DWORD PTR _value$534787[ebp]
  002e4	f3 0f 10 4d 08	 movss	 xmm1, DWORD PTR _fGrowth$531041[ebp]
  002e9	0f 5a c0	 cvtps2pd xmm0, xmm0
  002ec	0f 5a c9	 cvtps2pd xmm1, xmm1
  002ef	f2 0f 5e c1	 divsd	 xmm0, xmm1
  002f3	f3 0f 10 4d f8	 movss	 xmm1, DWORD PTR _value$534782[ebp]
  002f8	66 0f 5a c0	 cvtpd2ps xmm0, xmm0
  002fc	f3 0f 5a c0	 cvtss2sd xmm0, xmm0
  00300	0f 5a c9	 cvtps2pd xmm1, xmm1
  00303	51		 push	 ecx
  00304	f2 0f 58 c1	 addsd	 xmm0, xmm1
  00308	66 0f 5a c0	 cvtpd2ps xmm0, xmm0
  0030c	8b cf		 mov	 ecx, edi
  0030e	f3 0f 11 04 24	 movss	 DWORD PTR [esp], xmm0
  00313	e8 00 00 00 00	 call	 ?SetCurSkillGauge@ioItem@@QAEXM@Z ; ioItem::SetCurSkillGauge

; 237  : 
; 238  : 				m_nCurAttackCnt++;

  00318	ff 86 94 0a 00
	00		 inc	 DWORD PTR [esi+2708]
$LN5@ProcessBuf:

; 222  : 		{
; 223  : 			for( int iSlot=0; iSlot < 4; ++iSlot )

  0031e	43		 inc	 ebx
  0031f	83 fb 04	 cmp	 ebx, 4
  00322	0f 8c 66 ff ff
	ff		 jl	 $LL6@ProcessBuf
  00328	8b 5d fc	 mov	 ebx, DWORD PTR _pOwner$[ebp]
$LN4@ProcessBuf:

; 239  : 			}
; 240  : 		}
; 241  : 
; 242  : 		pOwner->InitAttackDamageInfoList();

  0032b	8b cb		 mov	 ecx, ebx
  0032d	e8 00 00 00 00	 call	 ?InitAttackDamageInfoList@ioBaseChar@@QAEXXZ ; ioBaseChar::InitAttackDamageInfoList

; 243  : 		pOwner->InitWoundDamageInfoList();

  00332	8b cb		 mov	 ecx, ebx
  00334	e8 00 00 00 00	 call	 ?InitWoundDamageInfoList@ioBaseChar@@QAEXXZ ; ioBaseChar::InitWoundDamageInfoList
$LN63@ProcessBuf:
  00339	5f		 pop	 edi
$LN62@ProcessBuf:
  0033a	5b		 pop	 ebx
$LN11@ProcessBuf:
  0033b	5e		 pop	 esi

; 244  : 	}
; 245  : }

  0033c	c9		 leave
  0033d	c2 04 00	 ret	 4
?ProcessBuff@ioDamageConvertBuff@@UAEXM@Z ENDP		; ioDamageConvertBuff::ProcessBuff
_TEXT	ENDS
PUBLIC	??$_Uninitialized_copy@V?$_Vector_const_iterator@V?$_Vector_val@HV?$allocator@H@std@@@std@@@std@@PAHV?$allocator@H@2@@std@@YAPAHV?$_Vector_const_iterator@V?$_Vector_val@HV?$allocator@H@std@@@std@@@0@0PAHAAV?$allocator@H@0@@Z ; std::_Uninitialized_copy<std::_Vector_const_iterator<std::_Vector_val<int,std::allocator<int> > >,int *,std::allocator<int> >
; Function compile flags: /Ogsp
; File c:\program files (x86)\microsoft visual studio 10.0\vc\include\memory
;	COMDAT ??$_Uninitialized_copy@V?$_Vector_const_iterator@V?$_Vector_val@HV?$allocator@H@std@@@std@@@std@@PAHV?$allocator@H@2@@std@@YAPAHV?$_Vector_const_iterator@V?$_Vector_val@HV?$allocator@H@std@@@std@@@0@0PAHAAV?$allocator@H@0@@Z
_TEXT	SEGMENT
__Cat$534805 = -4					; size = 1
__First$ = 8						; size = 4
__Last$ = 12						; size = 4
__Dest$ = 16						; size = 4
__Al$ = 20						; size = 4
??$_Uninitialized_copy@V?$_Vector_const_iterator@V?$_Vector_val@HV?$allocator@H@std@@@std@@@std@@PAHV?$allocator@H@2@@std@@YAPAHV?$_Vector_const_iterator@V?$_Vector_val@HV?$allocator@H@std@@@std@@@0@0PAHAAV?$allocator@H@0@@Z PROC ; std::_Uninitialized_copy<std::_Vector_const_iterator<std::_Vector_val<int,std::allocator<int> > >,int *,std::allocator<int> >, COMDAT

; 412  : 	{	// copy [_First, _Last) to raw _Dest, using _Al

  00000	55		 push	 ebp
  00001	8b ec		 mov	 ebp, esp
  00003	51		 push	 ecx

; 413  : 	return (_Uninit_copy(_First, _Last, _Dest, _Al,
; 414  : 		_Ptr_cat(_First, _Dest)));

  00004	ff 75 fc	 push	 DWORD PTR __Cat$534805[ebp]
  00007	ff 75 14	 push	 DWORD PTR __Al$[ebp]
  0000a	ff 75 10	 push	 DWORD PTR __Dest$[ebp]
  0000d	ff 75 0c	 push	 DWORD PTR __Last$[ebp]
  00010	ff 75 08	 push	 DWORD PTR __First$[ebp]
  00013	e8 00 00 00 00	 call	 ??$_Uninit_copy@V?$_Vector_const_iterator@V?$_Vector_val@HV?$allocator@H@std@@@std@@@std@@PAHV?$allocator@H@2@@std@@YAPAHV?$_Vector_const_iterator@V?$_Vector_val@HV?$allocator@H@std@@@std@@@0@0PAHAAV?$allocator@H@0@U_Nonscalar_ptr_iterator_tag@0@@Z ; std::_Uninit_copy<std::_Vector_const_iterator<std::_Vector_val<int,std::allocator<int> > >,int *,std::allocator<int> >
  00018	83 c4 14	 add	 esp, 20			; 00000014H

; 415  : 	}

  0001b	c9		 leave
  0001c	c3		 ret	 0
??$_Uninitialized_copy@V?$_Vector_const_iterator@V?$_Vector_val@HV?$allocator@H@std@@@std@@@std@@PAHV?$allocator@H@2@@std@@YAPAHV?$_Vector_const_iterator@V?$_Vector_val@HV?$allocator@H@std@@@std@@@0@0PAHAAV?$allocator@H@0@@Z ENDP ; std::_Uninitialized_copy<std::_Vector_const_iterator<std::_Vector_val<int,std::allocator<int> > >,int *,std::allocator<int> >
_TEXT	ENDS
PUBLIC	??1?$vector@HV?$allocator@H@std@@@std@@QAE@XZ	; std::vector<int,std::allocator<int> >::~vector<int,std::allocator<int> >
; Function compile flags: /Ogsp
; File c:\program files (x86)\microsoft visual studio 10.0\vc\include\vector
;	COMDAT ??1?$vector@HV?$allocator@H@std@@@std@@QAE@XZ
_TEXT	SEGMENT
??1?$vector@HV?$allocator@H@std@@@std@@QAE@XZ PROC	; std::vector<int,std::allocator<int> >::~vector<int,std::allocator<int> >, COMDAT
; _this$ = ecx

; 705  : 		_Tidy();

  00000	e9 00 00 00 00	 jmp	 ?_Tidy@?$vector@HV?$allocator@H@std@@@std@@IAEXXZ ; std::vector<int,std::allocator<int> >::_Tidy
??1?$vector@HV?$allocator@H@std@@@std@@QAE@XZ ENDP	; std::vector<int,std::allocator<int> >::~vector<int,std::allocator<int> >
_TEXT	ENDS
PUBLIC	?clear@?$vector@HV?$allocator@H@std@@@std@@QAEXXZ ; std::vector<int,std::allocator<int> >::clear
; Function compile flags: /Ogsp
;	COMDAT ?clear@?$vector@HV?$allocator@H@std@@@std@@QAEXXZ
_TEXT	SEGMENT
$T534819 = -4						; size = 4
?clear@?$vector@HV?$allocator@H@std@@@std@@QAEXXZ PROC	; std::vector<int,std::allocator<int> >::clear, COMDAT
; _this$ = ecx

; 1217 : 		{	// erase all

  00000	55		 push	 ebp
  00001	8b ec		 mov	 ebp, esp
  00003	51		 push	 ecx

; 1218 : 		erase(begin(), end());

  00004	8b 41 04	 mov	 eax, DWORD PTR [ecx+4]
  00007	8b 11		 mov	 edx, DWORD PTR [ecx]
  00009	50		 push	 eax
  0000a	52		 push	 edx
  0000b	8d 45 fc	 lea	 eax, DWORD PTR $T534819[ebp]
  0000e	50		 push	 eax
  0000f	e8 00 00 00 00	 call	 ?erase@?$vector@HV?$allocator@H@std@@@std@@QAE?AV?$_Vector_iterator@V?$_Vector_val@HV?$allocator@H@std@@@std@@@2@V?$_Vector_const_iterator@V?$_Vector_val@HV?$allocator@H@std@@@std@@@2@0@Z ; std::vector<int,std::allocator<int> >::erase

; 1219 : 		}

  00014	c9		 leave
  00015	c3		 ret	 0
?clear@?$vector@HV?$allocator@H@std@@@std@@QAEXXZ ENDP	; std::vector<int,std::allocator<int> >::clear
_TEXT	ENDS
PUBLIC	?_Reserve@?$vector@HV?$allocator@H@std@@@std@@IAEXI@Z ; std::vector<int,std::allocator<int> >::_Reserve
; Function compile flags: /Ogsp
;	COMDAT ?_Reserve@?$vector@HV?$allocator@H@std@@@std@@IAEXI@Z
_TEXT	SEGMENT
__Count$ = 8						; size = 4
?_Reserve@?$vector@HV?$allocator@H@std@@@std@@IAEXI@Z PROC ; std::vector<int,std::allocator<int> >::_Reserve, COMDAT
; _this$ = ecx

; 1290 : 		{	// ensure room for _Count new elements, grow exponentially

  00000	55		 push	 ebp
  00001	8b ec		 mov	 ebp, esp
  00003	56		 push	 esi
  00004	8b f1		 mov	 esi, ecx

; 1291 : 		size_type _Size = size();

  00006	8b 0e		 mov	 ecx, DWORD PTR [esi]
  00008	8b 46 04	 mov	 eax, DWORD PTR [esi+4]
  0000b	2b c1		 sub	 eax, ecx

; 1292 : 		if (max_size() - _Count < _Size)

  0000d	ba ff ff ff 3f	 mov	 edx, 1073741823		; 3fffffffH
  00012	2b 55 08	 sub	 edx, DWORD PTR __Count$[ebp]
  00015	c1 f8 02	 sar	 eax, 2
  00018	3b d0		 cmp	 edx, eax
  0001a	73 0b		 jae	 SHORT $LN4@Reserve

; 1293 : 			_Xlen();

  0001c	68 00 00 00 00	 push	 OFFSET ??_C@_0BD@OLBABOEK@vector?$DMT?$DO?5too?5long?$AA@
  00021	ff 15 00 00 00
	00		 call	 DWORD PTR __imp_?_Xlength_error@std@@YAXPBD@Z
$LN21@Reserve:
$LN4@Reserve:

; 1294 : 		else if ((_Size += _Count) <= capacity())

  00027	8b 56 08	 mov	 edx, DWORD PTR [esi+8]
  0002a	03 45 08	 add	 eax, DWORD PTR __Count$[ebp]
  0002d	2b d1		 sub	 edx, ecx
  0002f	c1 fa 02	 sar	 edx, 2
  00032	3b c2		 cmp	 eax, edx
  00034	76 10		 jbe	 SHORT $LN1@Reserve

; 1295 : 			;
; 1296 : 		else
; 1297 : 			reserve(_Grow_to(_Size));

  00036	50		 push	 eax
  00037	8b ce		 mov	 ecx, esi
  00039	e8 00 00 00 00	 call	 ?_Grow_to@?$vector@HV?$allocator@H@std@@@std@@IBEII@Z ; std::vector<int,std::allocator<int> >::_Grow_to
  0003e	50		 push	 eax
  0003f	8b ce		 mov	 ecx, esi
  00041	e8 00 00 00 00	 call	 ?reserve@?$vector@HV?$allocator@H@std@@@std@@QAEXI@Z ; std::vector<int,std::allocator<int> >::reserve
$LN1@Reserve:
  00046	5e		 pop	 esi

; 1298 : 		}

  00047	5d		 pop	 ebp
  00048	c2 04 00	 ret	 4
$LN20@Reserve:
?_Reserve@?$vector@HV?$allocator@H@std@@@std@@IAEXI@Z ENDP ; std::vector<int,std::allocator<int> >::_Reserve
_TEXT	ENDS
PUBLIC	??_7ioDamageConvertBuff@@6B@			; ioDamageConvertBuff::`vftable'
PUBLIC	??0ioDamageConvertBuff@@QAE@XZ			; ioDamageConvertBuff::ioDamageConvertBuff
PUBLIC	??_R4ioDamageConvertBuff@@6B@			; ioDamageConvertBuff::`RTTI Complete Object Locator'
PUBLIC	??_R0?AVioDamageConvertBuff@@@8			; ioDamageConvertBuff `RTTI Type Descriptor'
PUBLIC	??_R3ioDamageConvertBuff@@8			; ioDamageConvertBuff::`RTTI Class Hierarchy Descriptor'
PUBLIC	??_R2ioDamageConvertBuff@@8			; ioDamageConvertBuff::`RTTI Base Class Array'
PUBLIC	??_R1A@?0A@EA@ioDamageConvertBuff@@8		; ioDamageConvertBuff::`RTTI Base Class Descriptor at (0,-1,0,64)'
PUBLIC	??_R1A@?0A@EA@ioBuff@@8				; ioBuff::`RTTI Base Class Descriptor at (0,-1,0,64)'
PUBLIC	??_R0?AVioBuff@@@8				; ioBuff `RTTI Type Descriptor'
PUBLIC	??_R3ioBuff@@8					; ioBuff::`RTTI Class Hierarchy Descriptor'
PUBLIC	??_R2ioBuff@@8					; ioBuff::`RTTI Base Class Array'
PUBLIC	?LoadProperty@ioDamageConvertBuff@@UAEXAAVioINILoader@@@Z ; ioDamageConvertBuff::LoadProperty
PUBLIC	?Clone@ioDamageConvertBuff@@UAEPAVioBuff@@XZ	; ioDamageConvertBuff::Clone
PUBLIC	?IsWaitSelfRemove@ioBuff@@UAE_NXZ		; ioBuff::IsWaitSelfRemove
EXTRN	__imp_??1ioHashString@@QAE@XZ:PROC
EXTRN	??1ioBuff@@UAE@XZ:PROC				; ioBuff::~ioBuff
EXTRN	__imp_??0ioHashString@@QAE@XZ:PROC
EXTRN	??0ioBuff@@QAE@XZ:PROC				; ioBuff::ioBuff
EXTRN	?CancelBuff@ioBuff@@UAEXXZ:PROC			; ioBuff::CancelBuff
EXTRN	?GetBuffInfo@ioBuff@@UAEXAAVSP2Packet@@@Z:PROC	; ioBuff::GetBuffInfo
EXTRN	?ApplyBuffInfo@ioBuff@@UAEXAAVSP2Packet@@@Z:PROC ; ioBuff::ApplyBuffInfo
EXTRN	?AccumulateBuff@ioBuff@@UAEXXZ:PROC		; ioBuff::AccumulateBuff
EXTRN	?IsLiveButStopped@ioBuff@@UBE_NXZ:PROC		; ioBuff::IsLiveButStopped
EXTRN	?IsCanJumpAttack@ioBuff@@UBE_NXZ:PROC		; ioBuff::IsCanJumpAttack
EXTRN	?SetAction@ioBuff@@MAEXXZ:PROC			; ioBuff::SetAction
EXTRN	?ProcessDelay@ioBuff@@MAEXM@Z:PROC		; ioBuff::ProcessDelay
EXTRN	?SetExtraDurationByGrowth@ioBuff@@UAEXM@Z:PROC	; ioBuff::SetExtraDurationByGrowth
EXTRN	?SetWeaponIndex@ioBuff@@UAEXK@Z:PROC		; ioBuff::SetWeaponIndex
EXTRN	?OnReduceGauge@ioBuff@@UBE_NXZ:PROC		; ioBuff::OnReduceGauge
EXTRN	?IsCharCollisionSkip@ioBuff@@UBE_NXZ:PROC	; ioBuff::IsCharCollisionSkip
EXTRN	?IsCollisionAvailableWeapon@ioBuff@@UBE_NXZ:PROC ; ioBuff::IsCollisionAvailableWeapon
EXTRN	?IsProtected@ioBuff@@UBE_NXZ:PROC		; ioBuff::IsProtected
EXTRN	?UseActiveCount@ioBuff@@UBE_NXZ:PROC		; ioBuff::UseActiveCount
EXTRN	?CheckActiveCount@ioBuff@@UAEXXZ:PROC		; ioBuff::CheckActiveCount
EXTRN	?CheckRemoveEquipSkillBuff@ioBuff@@UAEX_N@Z:PROC ; ioBuff::CheckRemoveEquipSkillBuff
EXTRN	?ApplyExtraBuffInfo@ioBuff@@UAEXAAVSP2Packet@@@Z:PROC ; ioBuff::ApplyExtraBuffInfo
EXTRN	?SetBuffGrapplingState@ioBuff@@UAE_NPAVioBaseChar@@ABVioHashString@@@Z:PROC ; ioBuff::SetBuffGrapplingState
EXTRN	?GetGrapplingTargetPos@ioBuff@@UAE?AUD3DXVECTOR3@@PAVioBaseChar@@@Z:PROC ; ioBuff::GetGrapplingTargetPos
EXTRN	??_EioDamageConvertBuff@@UAEPAXI@Z:PROC		; ioDamageConvertBuff::`vector deleting destructor'
;	COMDAT ??_R2ioBuff@@8
; File c:\program files (x86)\microsoft visual studio 10.0\vc\include\xmemory
rdata$r	SEGMENT
??_R2ioBuff@@8 DD FLAT:??_R1A@?0A@EA@ioBuff@@8		; ioBuff::`RTTI Base Class Array'
rdata$r	ENDS
;	COMDAT ??_R3ioBuff@@8
rdata$r	SEGMENT
??_R3ioBuff@@8 DD 00H					; ioBuff::`RTTI Class Hierarchy Descriptor'
	DD	00H
	DD	01H
	DD	FLAT:??_R2ioBuff@@8
rdata$r	ENDS
;	COMDAT ??_R0?AVioBuff@@@8
_DATA	SEGMENT
??_R0?AVioBuff@@@8 DD FLAT:??_7type_info@@6B@		; ioBuff `RTTI Type Descriptor'
	DD	00H
	DB	'.?AVioBuff@@', 00H
_DATA	ENDS
;	COMDAT ??_R1A@?0A@EA@ioBuff@@8
rdata$r	SEGMENT
??_R1A@?0A@EA@ioBuff@@8 DD FLAT:??_R0?AVioBuff@@@8	; ioBuff::`RTTI Base Class Descriptor at (0,-1,0,64)'
	DD	00H
	DD	00H
	DD	0ffffffffH
	DD	00H
	DD	040H
	DD	FLAT:??_R3ioBuff@@8
rdata$r	ENDS
;	COMDAT ??_R1A@?0A@EA@ioDamageConvertBuff@@8
rdata$r	SEGMENT
??_R1A@?0A@EA@ioDamageConvertBuff@@8 DD FLAT:??_R0?AVioDamageConvertBuff@@@8 ; ioDamageConvertBuff::`RTTI Base Class Descriptor at (0,-1,0,64)'
	DD	01H
	DD	00H
	DD	0ffffffffH
	DD	00H
	DD	040H
	DD	FLAT:??_R3ioDamageConvertBuff@@8
rdata$r	ENDS
;	COMDAT ??_R2ioDamageConvertBuff@@8
rdata$r	SEGMENT
??_R2ioDamageConvertBuff@@8 DD FLAT:??_R1A@?0A@EA@ioDamageConvertBuff@@8 ; ioDamageConvertBuff::`RTTI Base Class Array'
	DD	FLAT:??_R1A@?0A@EA@ioBuff@@8
rdata$r	ENDS
;	COMDAT ??_R3ioDamageConvertBuff@@8
rdata$r	SEGMENT
??_R3ioDamageConvertBuff@@8 DD 00H			; ioDamageConvertBuff::`RTTI Class Hierarchy Descriptor'
	DD	00H
	DD	02H
	DD	FLAT:??_R2ioDamageConvertBuff@@8
rdata$r	ENDS
;	COMDAT ??_R0?AVioDamageConvertBuff@@@8
_DATA	SEGMENT
??_R0?AVioDamageConvertBuff@@@8 DD FLAT:??_7type_info@@6B@ ; ioDamageConvertBuff `RTTI Type Descriptor'
	DD	00H
	DB	'.?AVioDamageConvertBuff@@', 00H
_DATA	ENDS
;	COMDAT ??_R4ioDamageConvertBuff@@6B@
rdata$r	SEGMENT
??_R4ioDamageConvertBuff@@6B@ DD 00H			; ioDamageConvertBuff::`RTTI Complete Object Locator'
	DD	00H
	DD	00H
	DD	FLAT:??_R0?AVioDamageConvertBuff@@@8
	DD	FLAT:??_R3ioDamageConvertBuff@@8
rdata$r	ENDS
;	COMDAT ??_7ioDamageConvertBuff@@6B@
CONST	SEGMENT
??_7ioDamageConvertBuff@@6B@ DD FLAT:??_R4ioDamageConvertBuff@@6B@ ; ioDamageConvertBuff::`vftable'
	DD	FLAT:?LoadProperty@ioDamageConvertBuff@@UAEXAAVioINILoader@@@Z
	DD	FLAT:?Clone@ioDamageConvertBuff@@UAEPAVioBuff@@XZ
	DD	FLAT:?StartBuff@ioDamageConvertBuff@@UAEXPAVioBaseChar@@@Z
	DD	FLAT:?StartBuffWithAniTime@ioDamageConvertBuff@@UAEXPAVioBaseChar@@K@Z
	DD	FLAT:?ApplyStartBuff@ioDamageConvertBuff@@UAE_NPAVioBaseChar@@KK@Z
	DD	FLAT:?ProcessBuff@ioDamageConvertBuff@@UAEXM@Z
	DD	FLAT:?EndBuff@ioDamageConvertBuff@@UAEXXZ
	DD	FLAT:?CancelBuff@ioBuff@@UAEXXZ
	DD	FLAT:?GetBuffInfo@ioBuff@@UAEXAAVSP2Packet@@@Z
	DD	FLAT:?ApplyBuffInfo@ioBuff@@UAEXAAVSP2Packet@@@Z
	DD	FLAT:?AccumulateBuff@ioBuff@@UAEXXZ
	DD	FLAT:?IsLiveButStopped@ioBuff@@UBE_NXZ
	DD	FLAT:?IsCanJumpAttack@ioBuff@@UBE_NXZ
	DD	FLAT:?SetAction@ioBuff@@MAEXXZ
	DD	FLAT:?ProcessDelay@ioBuff@@MAEXM@Z
	DD	FLAT:?SetExtraDurationByGrowth@ioBuff@@UAEXM@Z
	DD	FLAT:?SetWeaponIndex@ioBuff@@UAEXK@Z
	DD	FLAT:?OnReduceGauge@ioBuff@@UBE_NXZ
	DD	FLAT:?IsCharCollisionSkip@ioBuff@@UBE_NXZ
	DD	FLAT:?IsCollisionAvailableWeapon@ioBuff@@UBE_NXZ
	DD	FLAT:?IsProtected@ioBuff@@UBE_NXZ
	DD	FLAT:?UseActiveCount@ioBuff@@UBE_NXZ
	DD	FLAT:?CheckActiveCount@ioBuff@@UAEXXZ
	DD	FLAT:?CheckRemoveEquipSkillBuff@ioBuff@@UAEX_N@Z
	DD	FLAT:?ApplyExtraBuffInfo@ioBuff@@UAEXAAVSP2Packet@@@Z
	DD	FLAT:?SetBuffGrapplingState@ioBuff@@UAE_NPAVioBaseChar@@ABVioHashString@@@Z
	DD	FLAT:?GetGrapplingTargetPos@ioBuff@@UAE?AUD3DXVECTOR3@@PAVioBaseChar@@@Z
	DD	FLAT:?IsWaitSelfRemove@ioBuff@@UAE_NXZ
	DD	FLAT:??_EioDamageConvertBuff@@UAEPAXI@Z
CONST	ENDS
;	COMDAT xdata$x
xdata$x	SEGMENT
__ehfuncinfo$??0ioDamageConvertBuff@@QAE@XZ DD 019930522H
	DD	09H
	DD	FLAT:__unwindtable$??0ioDamageConvertBuff@@QAE@XZ
	DD	2 DUP(00H)
	DD	2 DUP(00H)
	DD	00H
	DD	01H
__unwindtable$??0ioDamageConvertBuff@@QAE@XZ DD 0ffffffffH
	DD	FLAT:__unwindfunclet$??0ioDamageConvertBuff@@QAE@XZ$0
	DD	00H
	DD	FLAT:__unwindfunclet$??0ioDamageConvertBuff@@QAE@XZ$1
	DD	01H
	DD	FLAT:__unwindfunclet$??0ioDamageConvertBuff@@QAE@XZ$2
	DD	02H
	DD	FLAT:__unwindfunclet$??0ioDamageConvertBuff@@QAE@XZ$3
	DD	03H
	DD	FLAT:__unwindfunclet$??0ioDamageConvertBuff@@QAE@XZ$4
	DD	04H
	DD	FLAT:__unwindfunclet$??0ioDamageConvertBuff@@QAE@XZ$5
	DD	05H
	DD	FLAT:__unwindfunclet$??0ioDamageConvertBuff@@QAE@XZ$6
	DD	06H
	DD	FLAT:__unwindfunclet$??0ioDamageConvertBuff@@QAE@XZ$7
	DD	07H
	DD	FLAT:__unwindfunclet$??0ioDamageConvertBuff@@QAE@XZ$8
; Function compile flags: /Ogsp
; File d:\lost saga for developer\youtube\tutorial\source\src\lsclient\iodamageconvertbuff.cpp
xdata$x	ENDS
;	COMDAT ??0ioDamageConvertBuff@@QAE@XZ
_TEXT	SEGMENT
_this$ = -16						; size = 4
__$EHRec$ = -12						; size = 12
??0ioDamageConvertBuff@@QAE@XZ PROC			; ioDamageConvertBuff::ioDamageConvertBuff, COMDAT
; _this$ = ecx

; 13   : {

  00000	6a 04		 push	 4
  00002	b8 00 00 00 00	 mov	 eax, __ehhandler$??0ioDamageConvertBuff@@QAE@XZ
  00007	e8 00 00 00 00	 call	 __EH_prolog3
  0000c	8b f1		 mov	 esi, ecx
  0000e	89 75 f0	 mov	 DWORD PTR _this$[ebp], esi
  00011	e8 00 00 00 00	 call	 ??0ioBuff@@QAE@XZ	; ioBuff::ioBuff
  00016	83 65 fc 00	 and	 DWORD PTR __$EHRec$[ebp+8], 0
  0001a	8d 8e 70 09 00
	00		 lea	 ecx, DWORD PTR [esi+2416]
  00020	c7 06 00 00 00
	00		 mov	 DWORD PTR [esi], OFFSET ??_7ioDamageConvertBuff@@6B@
  00026	e8 00 00 00 00	 call	 ??0?$CEncrypt@M@@QAE@XZ	; CEncrypt<float>::CEncrypt<float>
  0002b	8d 8e a0 09 00
	00		 lea	 ecx, DWORD PTR [esi+2464]
  00031	c6 45 fc 01	 mov	 BYTE PTR __$EHRec$[ebp+8], 1
  00035	e8 00 00 00 00	 call	 ??0?$CEncrypt@M@@QAE@XZ	; CEncrypt<float>::CEncrypt<float>
  0003a	8d 8e d0 09 00
	00		 lea	 ecx, DWORD PTR [esi+2512]
  00040	c6 45 fc 02	 mov	 BYTE PTR __$EHRec$[ebp+8], 2
  00044	e8 00 00 00 00	 call	 ??0?$CEncrypt@M@@QAE@XZ	; CEncrypt<float>::CEncrypt<float>
  00049	8d 8e 00 0a 00
	00		 lea	 ecx, DWORD PTR [esi+2560]
  0004f	c6 45 fc 03	 mov	 BYTE PTR __$EHRec$[ebp+8], 3
  00053	e8 00 00 00 00	 call	 ??0?$CEncrypt@M@@QAE@XZ	; CEncrypt<float>::CEncrypt<float>
  00058	8d 8e 30 0a 00
	00		 lea	 ecx, DWORD PTR [esi+2608]
  0005e	c6 45 fc 04	 mov	 BYTE PTR __$EHRec$[ebp+8], 4
  00062	e8 00 00 00 00	 call	 ??0?$CEncrypt@M@@QAE@XZ	; CEncrypt<float>::CEncrypt<float>
  00067	8b 3d 00 00 00
	00		 mov	 edi, DWORD PTR __imp_??0ioHashString@@QAE@XZ
  0006d	8d 8e 60 0a 00
	00		 lea	 ecx, DWORD PTR [esi+2656]
  00073	c6 45 fc 05	 mov	 BYTE PTR __$EHRec$[ebp+8], 5
  00077	ff d7		 call	 edi
  00079	8d 8e 70 0a 00
	00		 lea	 ecx, DWORD PTR [esi+2672]
  0007f	c6 45 fc 06	 mov	 BYTE PTR __$EHRec$[ebp+8], 6
  00083	ff d7		 call	 edi
  00085	83 a6 80 0a 00
	00 00		 and	 DWORD PTR [esi+2688], 0
  0008c	83 a6 84 0a 00
	00 00		 and	 DWORD PTR [esi+2692], 0
  00093	83 a6 88 0a 00
	00 00		 and	 DWORD PTR [esi+2696], 0
  0009a	8d 8e 98 0a 00
	00		 lea	 ecx, DWORD PTR [esi+2712]
  000a0	c6 45 fc 08	 mov	 BYTE PTR __$EHRec$[ebp+8], 8
  000a4	e8 00 00 00 00	 call	 ??0?$CEncrypt@M@@QAE@XZ	; CEncrypt<float>::CEncrypt<float>

; 14   : }

  000a9	8b c6		 mov	 eax, esi
  000ab	e8 00 00 00 00	 call	 __EH_epilog3
  000b0	c3		 ret	 0
_TEXT	ENDS
;	COMDAT text$x
text$x	SEGMENT
__unwindfunclet$??0ioDamageConvertBuff@@QAE@XZ$0:
  00000	8b 4d f0	 mov	 ecx, DWORD PTR _this$[ebp]
  00003	e9 00 00 00 00	 jmp	 ??1ioBuff@@UAE@XZ	; ioBuff::~ioBuff
__unwindfunclet$??0ioDamageConvertBuff@@QAE@XZ$1:
  00008	8b 4d f0	 mov	 ecx, DWORD PTR _this$[ebp]
  0000b	81 c1 70 09 00
	00		 add	 ecx, 2416		; 00000970H
  00011	e9 00 00 00 00	 jmp	 ??1?$CEncrypt@M@@UAE@XZ	; CEncrypt<float>::~CEncrypt<float>
__unwindfunclet$??0ioDamageConvertBuff@@QAE@XZ$2:
  00016	8b 4d f0	 mov	 ecx, DWORD PTR _this$[ebp]
  00019	81 c1 a0 09 00
	00		 add	 ecx, 2464		; 000009a0H
  0001f	e9 00 00 00 00	 jmp	 ??1?$CEncrypt@M@@UAE@XZ	; CEncrypt<float>::~CEncrypt<float>
__unwindfunclet$??0ioDamageConvertBuff@@QAE@XZ$3:
  00024	8b 4d f0	 mov	 ecx, DWORD PTR _this$[ebp]
  00027	81 c1 d0 09 00
	00		 add	 ecx, 2512		; 000009d0H
  0002d	e9 00 00 00 00	 jmp	 ??1?$CEncrypt@M@@UAE@XZ	; CEncrypt<float>::~CEncrypt<float>
__unwindfunclet$??0ioDamageConvertBuff@@QAE@XZ$4:
  00032	8b 4d f0	 mov	 ecx, DWORD PTR _this$[ebp]
  00035	81 c1 00 0a 00
	00		 add	 ecx, 2560		; 00000a00H
  0003b	e9 00 00 00 00	 jmp	 ??1?$CEncrypt@M@@UAE@XZ	; CEncrypt<float>::~CEncrypt<float>
__unwindfunclet$??0ioDamageConvertBuff@@QAE@XZ$5:
  00040	8b 4d f0	 mov	 ecx, DWORD PTR _this$[ebp]
  00043	81 c1 30 0a 00
	00		 add	 ecx, 2608		; 00000a30H
  00049	e9 00 00 00 00	 jmp	 ??1?$CEncrypt@M@@UAE@XZ	; CEncrypt<float>::~CEncrypt<float>
__unwindfunclet$??0ioDamageConvertBuff@@QAE@XZ$6:
  0004e	8b 4d f0	 mov	 ecx, DWORD PTR _this$[ebp]
  00051	81 c1 60 0a 00
	00		 add	 ecx, 2656		; 00000a60H
  00057	ff 25 00 00 00
	00		 jmp	 DWORD PTR __imp_??1ioHashString@@QAE@XZ
__unwindfunclet$??0ioDamageConvertBuff@@QAE@XZ$7:
  0005d	8b 4d f0	 mov	 ecx, DWORD PTR _this$[ebp]
  00060	81 c1 70 0a 00
	00		 add	 ecx, 2672		; 00000a70H
  00066	ff 25 00 00 00
	00		 jmp	 DWORD PTR __imp_??1ioHashString@@QAE@XZ
__unwindfunclet$??0ioDamageConvertBuff@@QAE@XZ$8:
  0006c	8b 4d f0	 mov	 ecx, DWORD PTR _this$[ebp]
  0006f	81 c1 80 0a 00
	00		 add	 ecx, 2688		; 00000a80H
  00075	e9 00 00 00 00	 jmp	 ??1?$vector@HV?$allocator@H@std@@@std@@QAE@XZ ; std::vector<int,std::allocator<int> >::~vector<int,std::allocator<int> >
__ehhandler$??0ioDamageConvertBuff@@QAE@XZ:
  0007a	8b 54 24 08	 mov	 edx, DWORD PTR [esp+8]
  0007e	8d 42 0c	 lea	 eax, DWORD PTR [edx+12]
  00081	8b 4a ec	 mov	 ecx, DWORD PTR [edx-20]
  00084	33 c8		 xor	 ecx, eax
  00086	e8 00 00 00 00	 call	 @__security_check_cookie@4
  0008b	b8 00 00 00 00	 mov	 eax, OFFSET __ehfuncinfo$??0ioDamageConvertBuff@@QAE@XZ
  00090	e9 00 00 00 00	 jmp	 ___CxxFrameHandler3
text$x	ENDS
??0ioDamageConvertBuff@@QAE@XZ ENDP			; ioDamageConvertBuff::ioDamageConvertBuff
; Function compile flags: /Ogsp
; File d:\lost saga for developer\youtube\tutorial\source\src\lsclient\iobuff.h
;	COMDAT ?IsWaitSelfRemove@ioBuff@@UAE_NXZ
_TEXT	SEGMENT
?IsWaitSelfRemove@ioBuff@@UAE_NXZ PROC			; ioBuff::IsWaitSelfRemove, COMDAT
; _this$ = ecx

; 519  : 	virtual bool IsWaitSelfRemove() { return m_bWaitSelfRemove; }

  00000	8a 81 65 09 00
	00		 mov	 al, BYTE PTR [ecx+2405]
  00006	c3		 ret	 0
?IsWaitSelfRemove@ioBuff@@UAE_NXZ ENDP			; ioBuff::IsWaitSelfRemove
_TEXT	ENDS
PUBLIC	??1ioDamageConvertBuff@@UAE@XZ			; ioDamageConvertBuff::~ioDamageConvertBuff
;	COMDAT xdata$x
; File d:\lost saga for developer\youtube\tutorial\source\src\lsclient\encryptvalue.h
xdata$x	SEGMENT
__ehfuncinfo$??1ioDamageConvertBuff@@UAE@XZ DD 019930522H
	DD	09H
	DD	FLAT:__unwindtable$??1ioDamageConvertBuff@@UAE@XZ
	DD	2 DUP(00H)
	DD	2 DUP(00H)
	DD	00H
	DD	01H
__unwindtable$??1ioDamageConvertBuff@@UAE@XZ DD 0ffffffffH
	DD	FLAT:__unwindfunclet$??1ioDamageConvertBuff@@UAE@XZ$0
	DD	00H
	DD	FLAT:__unwindfunclet$??1ioDamageConvertBuff@@UAE@XZ$1
	DD	01H
	DD	FLAT:__unwindfunclet$??1ioDamageConvertBuff@@UAE@XZ$2
	DD	02H
	DD	FLAT:__unwindfunclet$??1ioDamageConvertBuff@@UAE@XZ$3
	DD	03H
	DD	FLAT:__unwindfunclet$??1ioDamageConvertBuff@@UAE@XZ$4
	DD	04H
	DD	FLAT:__unwindfunclet$??1ioDamageConvertBuff@@UAE@XZ$5
	DD	05H
	DD	FLAT:__unwindfunclet$??1ioDamageConvertBuff@@UAE@XZ$6
	DD	06H
	DD	FLAT:__unwindfunclet$??1ioDamageConvertBuff@@UAE@XZ$7
	DD	07H
	DD	FLAT:__unwindfunclet$??1ioDamageConvertBuff@@UAE@XZ$8
; Function compile flags: /Ogsp
; File d:\lost saga for developer\youtube\tutorial\source\src\lsclient\iodamageconvertbuff.cpp
xdata$x	ENDS
;	COMDAT ??1ioDamageConvertBuff@@UAE@XZ
_TEXT	SEGMENT
_this$ = -16						; size = 4
__$EHRec$ = -12						; size = 12
??1ioDamageConvertBuff@@UAE@XZ PROC			; ioDamageConvertBuff::~ioDamageConvertBuff, COMDAT
; _this$ = ecx

; 35   : {

  00000	6a 04		 push	 4
  00002	b8 00 00 00 00	 mov	 eax, __ehhandler$??1ioDamageConvertBuff@@UAE@XZ
  00007	e8 00 00 00 00	 call	 __EH_prolog3
  0000c	8b f1		 mov	 esi, ecx
  0000e	89 75 f0	 mov	 DWORD PTR _this$[ebp], esi
  00011	c7 06 00 00 00
	00		 mov	 DWORD PTR [esi], OFFSET ??_7ioDamageConvertBuff@@6B@

; 36   : }

  00017	bf 00 00 00 00	 mov	 edi, OFFSET ??_7?$CEncrypt@M@@6B@
  0001c	8d 8e a4 0a 00
	00		 lea	 ecx, DWORD PTR [esi+2724]
  00022	c7 45 fc 08 00
	00 00		 mov	 DWORD PTR __$EHRec$[ebp+8], 8
  00029	89 be 98 0a 00
	00		 mov	 DWORD PTR [esi+2712], edi
  0002f	e8 00 00 00 00	 call	 ??1ccddaabb@@UAE@XZ	; ccddaabb::~ccddaabb
  00034	8d 8e 80 0a 00
	00		 lea	 ecx, DWORD PTR [esi+2688]
  0003a	c6 45 fc 07	 mov	 BYTE PTR __$EHRec$[ebp+8], 7
  0003e	e8 00 00 00 00	 call	 ?_Tidy@?$vector@HV?$allocator@H@std@@@std@@IAEXXZ ; std::vector<int,std::allocator<int> >::_Tidy
  00043	8b 1d 00 00 00
	00		 mov	 ebx, DWORD PTR __imp_??1ioHashString@@QAE@XZ
  00049	8d 8e 70 0a 00
	00		 lea	 ecx, DWORD PTR [esi+2672]
  0004f	c6 45 fc 06	 mov	 BYTE PTR __$EHRec$[ebp+8], 6
  00053	ff d3		 call	 ebx
  00055	8d 8e 60 0a 00
	00		 lea	 ecx, DWORD PTR [esi+2656]
  0005b	c6 45 fc 05	 mov	 BYTE PTR __$EHRec$[ebp+8], 5
  0005f	ff d3		 call	 ebx
  00061	8d 8e 3c 0a 00
	00		 lea	 ecx, DWORD PTR [esi+2620]
  00067	c6 45 fc 04	 mov	 BYTE PTR __$EHRec$[ebp+8], 4
  0006b	89 be 30 0a 00
	00		 mov	 DWORD PTR [esi+2608], edi
  00071	e8 00 00 00 00	 call	 ??1ccddaabb@@UAE@XZ	; ccddaabb::~ccddaabb
  00076	8d 8e 0c 0a 00
	00		 lea	 ecx, DWORD PTR [esi+2572]
  0007c	c6 45 fc 03	 mov	 BYTE PTR __$EHRec$[ebp+8], 3
  00080	89 be 00 0a 00
	00		 mov	 DWORD PTR [esi+2560], edi
  00086	e8 00 00 00 00	 call	 ??1ccddaabb@@UAE@XZ	; ccddaabb::~ccddaabb
  0008b	8d 8e dc 09 00
	00		 lea	 ecx, DWORD PTR [esi+2524]
  00091	c6 45 fc 02	 mov	 BYTE PTR __$EHRec$[ebp+8], 2
  00095	89 be d0 09 00
	00		 mov	 DWORD PTR [esi+2512], edi
  0009b	e8 00 00 00 00	 call	 ??1ccddaabb@@UAE@XZ	; ccddaabb::~ccddaabb
  000a0	8d 8e ac 09 00
	00		 lea	 ecx, DWORD PTR [esi+2476]
  000a6	c6 45 fc 01	 mov	 BYTE PTR __$EHRec$[ebp+8], 1
  000aa	89 be a0 09 00
	00		 mov	 DWORD PTR [esi+2464], edi
  000b0	e8 00 00 00 00	 call	 ??1ccddaabb@@UAE@XZ	; ccddaabb::~ccddaabb
  000b5	8d 8e 7c 09 00
	00		 lea	 ecx, DWORD PTR [esi+2428]
  000bb	c6 45 fc 00	 mov	 BYTE PTR __$EHRec$[ebp+8], 0
  000bf	89 be 70 09 00
	00		 mov	 DWORD PTR [esi+2416], edi
  000c5	e8 00 00 00 00	 call	 ??1ccddaabb@@UAE@XZ	; ccddaabb::~ccddaabb
  000ca	83 4d fc ff	 or	 DWORD PTR __$EHRec$[ebp+8], -1
  000ce	8b ce		 mov	 ecx, esi
  000d0	e8 00 00 00 00	 call	 ??1ioBuff@@UAE@XZ	; ioBuff::~ioBuff
  000d5	e8 00 00 00 00	 call	 __EH_epilog3
  000da	c3		 ret	 0
_TEXT	ENDS
;	COMDAT text$x
text$x	SEGMENT
__unwindfunclet$??1ioDamageConvertBuff@@UAE@XZ$0:
  00000	8b 4d f0	 mov	 ecx, DWORD PTR _this$[ebp]
  00003	e9 00 00 00 00	 jmp	 ??1ioBuff@@UAE@XZ	; ioBuff::~ioBuff
__unwindfunclet$??1ioDamageConvertBuff@@UAE@XZ$1:
  00008	8b 4d f0	 mov	 ecx, DWORD PTR _this$[ebp]
  0000b	81 c1 70 09 00
	00		 add	 ecx, 2416		; 00000970H
  00011	e9 00 00 00 00	 jmp	 ??1?$CEncrypt@M@@UAE@XZ	; CEncrypt<float>::~CEncrypt<float>
__unwindfunclet$??1ioDamageConvertBuff@@UAE@XZ$2:
  00016	8b 4d f0	 mov	 ecx, DWORD PTR _this$[ebp]
  00019	81 c1 a0 09 00
	00		 add	 ecx, 2464		; 000009a0H
  0001f	e9 00 00 00 00	 jmp	 ??1?$CEncrypt@M@@UAE@XZ	; CEncrypt<float>::~CEncrypt<float>
__unwindfunclet$??1ioDamageConvertBuff@@UAE@XZ$3:
  00024	8b 4d f0	 mov	 ecx, DWORD PTR _this$[ebp]
  00027	81 c1 d0 09 00
	00		 add	 ecx, 2512		; 000009d0H
  0002d	e9 00 00 00 00	 jmp	 ??1?$CEncrypt@M@@UAE@XZ	; CEncrypt<float>::~CEncrypt<float>
__unwindfunclet$??1ioDamageConvertBuff@@UAE@XZ$4:
  00032	8b 4d f0	 mov	 ecx, DWORD PTR _this$[ebp]
  00035	81 c1 00 0a 00
	00		 add	 ecx, 2560		; 00000a00H
  0003b	e9 00 00 00 00	 jmp	 ??1?$CEncrypt@M@@UAE@XZ	; CEncrypt<float>::~CEncrypt<float>
__unwindfunclet$??1ioDamageConvertBuff@@UAE@XZ$5:
  00040	8b 4d f0	 mov	 ecx, DWORD PTR _this$[ebp]
  00043	81 c1 30 0a 00
	00		 add	 ecx, 2608		; 00000a30H
  00049	e9 00 00 00 00	 jmp	 ??1?$CEncrypt@M@@UAE@XZ	; CEncrypt<float>::~CEncrypt<float>
__unwindfunclet$??1ioDamageConvertBuff@@UAE@XZ$6:
  0004e	8b 4d f0	 mov	 ecx, DWORD PTR _this$[ebp]
  00051	81 c1 60 0a 00
	00		 add	 ecx, 2656		; 00000a60H
  00057	ff 25 00 00 00
	00		 jmp	 DWORD PTR __imp_??1ioHashString@@QAE@XZ
__unwindfunclet$??1ioDamageConvertBuff@@UAE@XZ$7:
  0005d	8b 4d f0	 mov	 ecx, DWORD PTR _this$[ebp]
  00060	81 c1 70 0a 00
	00		 add	 ecx, 2672		; 00000a70H
  00066	ff 25 00 00 00
	00		 jmp	 DWORD PTR __imp_??1ioHashString@@QAE@XZ
__unwindfunclet$??1ioDamageConvertBuff@@UAE@XZ$8:
  0006c	8b 4d f0	 mov	 ecx, DWORD PTR _this$[ebp]
  0006f	81 c1 80 0a 00
	00		 add	 ecx, 2688		; 00000a80H
  00075	e9 00 00 00 00	 jmp	 ??1?$vector@HV?$allocator@H@std@@@std@@QAE@XZ ; std::vector<int,std::allocator<int> >::~vector<int,std::allocator<int> >
__ehhandler$??1ioDamageConvertBuff@@UAE@XZ:
  0007a	8b 54 24 08	 mov	 edx, DWORD PTR [esp+8]
  0007e	8d 42 0c	 lea	 eax, DWORD PTR [edx+12]
  00081	8b 4a ec	 mov	 ecx, DWORD PTR [edx-20]
  00084	33 c8		 xor	 ecx, eax
  00086	e8 00 00 00 00	 call	 @__security_check_cookie@4
  0008b	b8 00 00 00 00	 mov	 eax, OFFSET __ehfuncinfo$??1ioDamageConvertBuff@@UAE@XZ
  00090	e9 00 00 00 00	 jmp	 ___CxxFrameHandler3
text$x	ENDS
??1ioDamageConvertBuff@@UAE@XZ ENDP			; ioDamageConvertBuff::~ioDamageConvertBuff
PUBLIC	?push_back@?$vector@HV?$allocator@H@std@@@std@@QAEXABH@Z ; std::vector<int,std::allocator<int> >::push_back
; Function compile flags: /Ogsp
; File c:\program files (x86)\microsoft visual studio 10.0\vc\include\vector
;	COMDAT ?push_back@?$vector@HV?$allocator@H@std@@@std@@QAEXABH@Z
_TEXT	SEGMENT
__Val$ = 8						; size = 4
?push_back@?$vector@HV?$allocator@H@std@@@std@@QAEXABH@Z PROC ; std::vector<int,std::allocator<int> >::push_back, COMDAT
; _this$ = ecx

; 976  : 		{	// insert element at end

  00000	55		 push	 ebp
  00001	8b ec		 mov	 ebp, esp
  00003	56		 push	 esi
  00004	8b f1		 mov	 esi, ecx

; 977  : 		if (_Inside(_STD addressof(_Val)))

  00006	8b 46 04	 mov	 eax, DWORD PTR [esi+4]
  00009	57		 push	 edi
  0000a	8b 7d 08	 mov	 edi, DWORD PTR __Val$[ebp]
  0000d	3b f8		 cmp	 edi, eax
  0000f	73 27		 jae	 SHORT $LN4@push_back
  00011	8b 0e		 mov	 ecx, DWORD PTR [esi]
  00013	3b cf		 cmp	 ecx, edi
  00015	77 21		 ja	 SHORT $LN4@push_back

; 978  : 			{	// push back an element
; 979  : 			size_type _Idx = _STD addressof(_Val) - this->_Myfirst;

  00017	2b f9		 sub	 edi, ecx
  00019	c1 ff 02	 sar	 edi, 2

; 980  : 			if (this->_Mylast == this->_Myend)

  0001c	3b 46 08	 cmp	 eax, DWORD PTR [esi+8]
  0001f	75 09		 jne	 SHORT $LN3@push_back

; 981  : 				_Reserve(1);

  00021	6a 01		 push	 1
  00023	8b ce		 mov	 ecx, esi
  00025	e8 00 00 00 00	 call	 ?_Reserve@?$vector@HV?$allocator@H@std@@@std@@IAEXI@Z ; std::vector<int,std::allocator<int> >::_Reserve
$LN3@push_back:

; 982  : 			_Orphan_range(this->_Mylast, this->_Mylast);
; 983  : 			_Cons_val(this->_Alval,
; 984  : 				this->_Mylast,
; 985  : 				this->_Myfirst[_Idx]);

  0002a	8b 46 04	 mov	 eax, DWORD PTR [esi+4]
  0002d	85 c0		 test	 eax, eax
  0002f	74 20		 je	 SHORT $LN39@push_back
  00031	8b 0e		 mov	 ecx, DWORD PTR [esi]
  00033	8b 0c b9	 mov	 ecx, DWORD PTR [ecx+edi*4]

; 986  : 			++this->_Mylast;
; 987  : 			}
; 988  : 		else

  00036	eb 17		 jmp	 SHORT $LN46@push_back
$LN4@push_back:

; 989  : 			{	// push back a non-element
; 990  : 			if (this->_Mylast == this->_Myend)

  00038	3b 46 08	 cmp	 eax, DWORD PTR [esi+8]
  0003b	75 09		 jne	 SHORT $LN1@push_back

; 991  : 				_Reserve(1);

  0003d	6a 01		 push	 1
  0003f	8b ce		 mov	 ecx, esi
  00041	e8 00 00 00 00	 call	 ?_Reserve@?$vector@HV?$allocator@H@std@@@std@@IAEXI@Z ; std::vector<int,std::allocator<int> >::_Reserve
$LN1@push_back:

; 992  : 			_Orphan_range(this->_Mylast, this->_Mylast);
; 993  : 			_Cons_val(this->_Alval,
; 994  : 				this->_Mylast,
; 995  : 				_Val);

  00046	8b 46 04	 mov	 eax, DWORD PTR [esi+4]
  00049	85 c0		 test	 eax, eax
  0004b	74 04		 je	 SHORT $LN39@push_back
  0004d	8b 0f		 mov	 ecx, DWORD PTR [edi]
$LN46@push_back:
  0004f	89 08		 mov	 DWORD PTR [eax], ecx
$LN39@push_back:

; 996  : 			++this->_Mylast;

  00051	83 46 04 04	 add	 DWORD PTR [esi+4], 4
  00055	5f		 pop	 edi
  00056	5e		 pop	 esi

; 997  : 			}
; 998  : 		}

  00057	5d		 pop	 ebp
  00058	c2 04 00	 ret	 4
?push_back@?$vector@HV?$allocator@H@std@@@std@@QAEXABH@Z ENDP ; std::vector<int,std::allocator<int> >::push_back
_TEXT	ENDS
PUBLIC	??$_Ucopy@V?$_Vector_const_iterator@V?$_Vector_val@HV?$allocator@H@std@@@std@@@std@@@?$vector@HV?$allocator@H@std@@@std@@IAEPAHV?$_Vector_const_iterator@V?$_Vector_val@HV?$allocator@H@std@@@std@@@1@0PAH@Z ; std::vector<int,std::allocator<int> >::_Ucopy<std::_Vector_const_iterator<std::_Vector_val<int,std::allocator<int> > > >
; Function compile flags: /Ogsp
;	COMDAT ??$_Ucopy@V?$_Vector_const_iterator@V?$_Vector_val@HV?$allocator@H@std@@@std@@@std@@@?$vector@HV?$allocator@H@std@@@std@@IAEPAHV?$_Vector_const_iterator@V?$_Vector_val@HV?$allocator@H@std@@@std@@@1@0PAH@Z
_TEXT	SEGMENT
__First$ = 8						; size = 4
__Last$ = 12						; size = 4
__Cat$535136 = 16					; size = 1
__Ptr$ = 16						; size = 4
??$_Ucopy@V?$_Vector_const_iterator@V?$_Vector_val@HV?$allocator@H@std@@@std@@@std@@@?$vector@HV?$allocator@H@std@@@std@@IAEPAHV?$_Vector_const_iterator@V?$_Vector_val@HV?$allocator@H@std@@@std@@@1@0PAH@Z PROC ; std::vector<int,std::allocator<int> >::_Ucopy<std::_Vector_const_iterator<std::_Vector_val<int,std::allocator<int> > > >, COMDAT
; _this$ = ecx

; 1315 : 		pointer _Ucopy(_Iter _First, _Iter _Last, pointer _Ptr)

  00000	55		 push	 ebp
  00001	8b ec		 mov	 ebp, esp

; 1316 : 		{	// copy initializing [_First, _Last), using allocator
; 1317 : 		return (_Uninitialized_copy(_First, _Last,
; 1318 : 			_Ptr, this->_Alval));

  00003	ff 75 10	 push	 DWORD PTR __Cat$535136[ebp]
  00006	83 c1 0c	 add	 ecx, 12			; 0000000cH
  00009	51		 push	 ecx
  0000a	ff 75 10	 push	 DWORD PTR __Ptr$[ebp]
  0000d	ff 75 0c	 push	 DWORD PTR __Last$[ebp]
  00010	ff 75 08	 push	 DWORD PTR __First$[ebp]
  00013	e8 00 00 00 00	 call	 ??$_Uninit_copy@V?$_Vector_const_iterator@V?$_Vector_val@HV?$allocator@H@std@@@std@@@std@@PAHV?$allocator@H@2@@std@@YAPAHV?$_Vector_const_iterator@V?$_Vector_val@HV?$allocator@H@std@@@std@@@0@0PAHAAV?$allocator@H@0@U_Nonscalar_ptr_iterator_tag@0@@Z ; std::_Uninit_copy<std::_Vector_const_iterator<std::_Vector_val<int,std::allocator<int> > >,int *,std::allocator<int> >
  00018	83 c4 14	 add	 esp, 20			; 00000014H

; 1319 : 		}

  0001b	5d		 pop	 ebp
  0001c	c2 0c 00	 ret	 12			; 0000000cH
??$_Ucopy@V?$_Vector_const_iterator@V?$_Vector_val@HV?$allocator@H@std@@@std@@@std@@@?$vector@HV?$allocator@H@std@@@std@@IAEPAHV?$_Vector_const_iterator@V?$_Vector_val@HV?$allocator@H@std@@@std@@@1@0PAH@Z ENDP ; std::vector<int,std::allocator<int> >::_Ucopy<std::_Vector_const_iterator<std::_Vector_val<int,std::allocator<int> > > >
; Function compile flags: /Ogsp
_TEXT	ENDS
;	COMDAT ??_GioDamageConvertBuff@@UAEPAXI@Z
_TEXT	SEGMENT
___flags$ = 8						; size = 4
??_GioDamageConvertBuff@@UAEPAXI@Z PROC			; ioDamageConvertBuff::`scalar deleting destructor', COMDAT
; _this$ = ecx
  00000	55		 push	 ebp
  00001	8b ec		 mov	 ebp, esp
  00003	56		 push	 esi
  00004	8b f1		 mov	 esi, ecx
  00006	e8 00 00 00 00	 call	 ??1ioDamageConvertBuff@@UAE@XZ ; ioDamageConvertBuff::~ioDamageConvertBuff
  0000b	f6 45 08 01	 test	 BYTE PTR ___flags$[ebp], 1
  0000f	74 07		 je	 SHORT $LN1@scalar@3
  00011	56		 push	 esi
  00012	e8 00 00 00 00	 call	 ??3@YAXPAX@Z		; operator delete
  00017	59		 pop	 ecx
$LN1@scalar@3:
  00018	8b c6		 mov	 eax, esi
  0001a	5e		 pop	 esi
  0001b	5d		 pop	 ebp
  0001c	c2 04 00	 ret	 4
??_GioDamageConvertBuff@@UAEPAXI@Z ENDP			; ioDamageConvertBuff::`scalar deleting destructor'
_TEXT	ENDS
PUBLIC	??_C@_00CNPNBAHC@?$AA@				; `string'
PUBLIC	__$ArrayPad$
EXTRN	__imp_??4ioHashString@@QAEAAV0@PBD@Z:PROC
EXTRN	__imp__wsprintfA:PROC
EXTRN	?LoadProperty@ioBuff@@UAEXAAVioINILoader@@@Z:PROC ; ioBuff::LoadProperty
EXTRN	_memset:PROC
;	COMDAT ??_C@_00CNPNBAHC@?$AA@
; File d:\lost saga for developer\youtube\tutorial\source\src\lsclient\stringprotect.h
CONST	SEGMENT
??_C@_00CNPNBAHC@?$AA@ DB 00H				; `string'
; Function compile flags: /Ogsp
; File d:\lost saga for developer\youtube\tutorial\source\src\lsclient\iodamageconvertbuff.cpp
CONST	ENDS
;	COMDAT ?LoadProperty@ioDamageConvertBuff@@UAEXAAVioINILoader@@@Z
_TEXT	SEGMENT
_iType$530924 = -308					; size = 4
tv12188 = -304						; size = 4
tv9705 = -304						; size = 4
_value$536644 = -304					; size = 4
_value$536014 = -304					; size = 4
$T535730 = -304						; size = 4
_value$535667 = -300					; size = 4
_value$535532 = -300					; size = 4
_value$535402 = -300					; size = 4
_value$535273 = -300					; size = 4
_iCnt$ = -300						; size = 4
_szBuf$ = -296						; size = 260
__k$536531 = -36					; size = 22
__k$536169 = -36					; size = 22
__k$536044 = -36					; size = 25
__k$535420 = -36					; size = 22
__k$535290 = -36					; size = 22
__k$535185 = -36					; size = 23
__k$536674 = -32					; size = 19
__k$536319 = -32					; size = 18
__k$535555 = -32					; size = 21
__k$536406 = -28					; size = 15
__k$535914 = -28					; size = 14
___encStr$530774 = -28					; size = 14
__k$535777 = -24					; size = 11
__$ArrayPad$ = -4					; size = 4
_rkLoader$ = 8						; size = 4
?LoadProperty@ioDamageConvertBuff@@UAEXAAVioINILoader@@@Z PROC ; ioDamageConvertBuff::LoadProperty, COMDAT
; _this$ = ecx

; 39   : {

  00000	55		 push	 ebp
  00001	8b ec		 mov	 ebp, esp
  00003	81 ec 34 01 00
	00		 sub	 esp, 308		; 00000134H
  00009	a1 00 00 00 00	 mov	 eax, DWORD PTR ___security_cookie
  0000e	33 c5		 xor	 eax, ebp
  00010	89 45 fc	 mov	 DWORD PTR __$ArrayPad$[ebp], eax
  00013	53		 push	 ebx
  00014	56		 push	 esi
  00015	57		 push	 edi
  00016	8b 7d 08	 mov	 edi, DWORD PTR _rkLoader$[ebp]

; 40   : 	ioBuff::LoadProperty( rkLoader );

  00019	57		 push	 edi
  0001a	8b f1		 mov	 esi, ecx
  0001c	e8 00 00 00 00	 call	 ?LoadProperty@ioBuff@@UAEXAAVioINILoader@@@Z ; ioBuff::LoadProperty

; 41   : 
; 42   : 	m_fWoundedRecoveryGauge = rkLoader.LoadFloat_e( "wounded_recovery_gauge", 0.0f );

  00021	33 db		 xor	 ebx, ebx
  00023	6a 05		 push	 5
  00025	c7 45 dc 9a 83
	9e 84		 mov	 DWORD PTR __k$535185[ebp], -2069986406 ; 849e839aH
  0002c	c7 45 e0 89 89
	8f b5		 mov	 DWORD PTR __k$535185[ebp+4], -1248884343 ; b58f8989H
  00033	c7 45 e4 9f 89
	88 85		 mov	 DWORD PTR __k$535185[ebp+8], -2054649441 ; 8588899fH
  0003a	c7 45 e8 9b 89
	99 93		 mov	 DWORD PTR __k$535185[ebp+12], -1818654309 ; 9399899bH
  00041	c7 45 ec b2 8b
	8a 9f		 mov	 DWORD PTR __k$535185[ebp+16], -1618310222 ; 9f8a8bb2H
  00048	66 c7 45 f0 8a
	89		 mov	 WORD PTR __k$535185[ebp+20], 35210 ; 0000898aH
  0004e	8d 45 dc	 lea	 eax, DWORD PTR __k$535185[ebp]
  00051	88 5d f2	 mov	 BYTE PTR __k$535185[ebp+22], bl
  00054	59		 pop	 ecx
$LL209@LoadProper:
  00055	81 30 ed ec eb
	ea		 xor	 DWORD PTR [eax], -353637139 ; eaebecedH
  0005b	83 c0 04	 add	 eax, 4
  0005e	49		 dec	 ecx
  0005f	75 f4		 jne	 SHORT $LL209@LoadProper
  00061	6a 14		 push	 20			; 00000014H
  00063	58		 pop	 eax
$LL206@LoadProper:
  00064	8b c8		 mov	 ecx, eax
  00066	81 e1 03 00 00
	80		 and	 ecx, -2147483645	; 80000003H
  0006c	79 05		 jns	 SHORT $LN1473@LoadProper
  0006e	49		 dec	 ecx
  0006f	83 c9 fc	 or	 ecx, -4			; fffffffcH
  00072	41		 inc	 ecx
$LN1473@LoadProper:
  00073	b2 ed		 mov	 dl, -19			; ffffffedH
  00075	2a d1		 sub	 dl, cl
  00077	30 54 05 dc	 xor	 BYTE PTR __k$535185[ebp+eax], dl
  0007b	40		 inc	 eax
  0007c	83 f8 16	 cmp	 eax, 22			; 00000016H
  0007f	7c e3		 jl	 SHORT $LL206@LoadProper
  00081	0f 57 c0	 xorps	 xmm0, xmm0
  00084	51		 push	 ecx
  00085	8d 45 dc	 lea	 eax, DWORD PTR __k$535185[ebp]
  00088	f3 0f 11 04 24	 movss	 DWORD PTR [esp], xmm0
  0008d	50		 push	 eax
  0008e	8b cf		 mov	 ecx, edi
  00090	ff 15 00 00 00
	00		 call	 DWORD PTR __imp_?LoadFloat@ioINILoader@@QAEMPBDM@Z
  00096	d9 9d d4 fe ff
	ff		 fstp	 DWORD PTR _value$535273[ebp]
  0009c	8d 85 d4 fe ff
	ff		 lea	 eax, DWORD PTR _value$535273[ebp]
  000a2	50		 push	 eax
  000a3	8d 8e 70 09 00
	00		 lea	 ecx, DWORD PTR [esi+2416]
  000a9	e8 00 00 00 00	 call	 ?EncryptValueToPool@?$CEncrypt@M@@AAEXPBD@Z ; CEncrypt<float>::EncryptValueToPool
  000ae	6a 05		 push	 5

; 43   : 	m_fWoundedRecoveryRate = rkLoader.LoadFloat_e( "wounded_recovery_rate", 0.0f );

  000b0	c7 45 dc 9a 83
	9e 84		 mov	 DWORD PTR __k$535290[ebp], -2069986406 ; 849e839aH
  000b7	c7 45 e0 89 89
	8f b5		 mov	 DWORD PTR __k$535290[ebp+4], -1248884343 ; b58f8989H
  000be	c7 45 e4 9f 89
	88 85		 mov	 DWORD PTR __k$535290[ebp+8], -2054649441 ; 8588899fH
  000c5	c7 45 e8 9b 89
	99 93		 mov	 DWORD PTR __k$535290[ebp+12], -1818654309 ; 9399899bH
  000cc	c7 45 ec b2 9e
	8a 9e		 mov	 DWORD PTR __k$535290[ebp+16], -1635082574 ; 9e8a9eb2H
  000d3	8d 45 dc	 lea	 eax, DWORD PTR __k$535290[ebp]
  000d6	66 c7 45 f0 88
	00		 mov	 WORD PTR __k$535290[ebp+20], 136 ; 00000088H
  000dc	59		 pop	 ecx
$LL317@LoadProper:
  000dd	81 30 ed ec eb
	ea		 xor	 DWORD PTR [eax], -353637139 ; eaebecedH
  000e3	83 c0 04	 add	 eax, 4
  000e6	49		 dec	 ecx
  000e7	75 f4		 jne	 SHORT $LL317@LoadProper
  000e9	0f 57 c0	 xorps	 xmm0, xmm0
  000ec	80 75 f0 ed	 xor	 BYTE PTR __k$535290[ebp+20], -19 ; ffffffedH
  000f0	51		 push	 ecx
  000f1	8d 45 dc	 lea	 eax, DWORD PTR __k$535290[ebp]
  000f4	f3 0f 11 04 24	 movss	 DWORD PTR [esp], xmm0
  000f9	50		 push	 eax
  000fa	8b cf		 mov	 ecx, edi
  000fc	ff 15 00 00 00
	00		 call	 DWORD PTR __imp_?LoadFloat@ioINILoader@@QAEMPBDM@Z
  00102	d9 9d d4 fe ff
	ff		 fstp	 DWORD PTR _value$535402[ebp]
  00108	8d 85 d4 fe ff
	ff		 lea	 eax, DWORD PTR _value$535402[ebp]
  0010e	50		 push	 eax
  0010f	8d 8e a0 09 00
	00		 lea	 ecx, DWORD PTR [esi+2464]
  00115	e8 00 00 00 00	 call	 ?EncryptValueToPool@?$CEncrypt@M@@AAEXPBD@Z ; CEncrypt<float>::EncryptValueToPool
  0011a	6a 05		 push	 5

; 44   : 
; 45   : 	m_fAttackRecoveryGauge = rkLoader.LoadFloat_e( "attack_recovery_gauge", 0.0f );

  0011c	c7 45 dc 8c 98
	9f 8b		 mov	 DWORD PTR __k$535420[ebp], -1952474996 ; 8b9f988cH
  00123	c7 45 e0 8e 87
	b4 98		 mov	 DWORD PTR __k$535420[ebp+4], -1732999282 ; 98b4878eH
  0012a	c7 45 e4 88 8f
	84 9c		 mov	 DWORD PTR __k$535420[ebp+8], -1669034104 ; 9c848f88H
  00131	c7 45 e8 88 9e
	92 b5		 mov	 DWORD PTR __k$535420[ebp+12], -1248682360 ; b5929e88H
  00138	c7 45 ec 8a 8d
	9e 8d		 mov	 DWORD PTR __k$535420[ebp+16], -1918988918 ; 8d9e8d8aH
  0013f	8d 45 dc	 lea	 eax, DWORD PTR __k$535420[ebp]
  00142	66 c7 45 f0 88
	00		 mov	 WORD PTR __k$535420[ebp+20], 136 ; 00000088H
  00148	59		 pop	 ecx
$LL425@LoadProper:
  00149	81 30 ed ec eb
	ea		 xor	 DWORD PTR [eax], -353637139 ; eaebecedH
  0014f	83 c0 04	 add	 eax, 4
  00152	49		 dec	 ecx
  00153	75 f4		 jne	 SHORT $LL425@LoadProper
  00155	0f 57 c0	 xorps	 xmm0, xmm0
  00158	80 75 f0 ed	 xor	 BYTE PTR __k$535420[ebp+20], -19 ; ffffffedH
  0015c	51		 push	 ecx
  0015d	8d 45 dc	 lea	 eax, DWORD PTR __k$535420[ebp]
  00160	f3 0f 11 04 24	 movss	 DWORD PTR [esp], xmm0
  00165	50		 push	 eax
  00166	8b cf		 mov	 ecx, edi
  00168	ff 15 00 00 00
	00		 call	 DWORD PTR __imp_?LoadFloat@ioINILoader@@QAEMPBDM@Z
  0016e	d9 9d d4 fe ff
	ff		 fstp	 DWORD PTR _value$535532[ebp]
  00174	8d 85 d4 fe ff
	ff		 lea	 eax, DWORD PTR _value$535532[ebp]
  0017a	50		 push	 eax
  0017b	8d 8e d0 09 00
	00		 lea	 ecx, DWORD PTR [esi+2512]
  00181	e8 00 00 00 00	 call	 ?EncryptValueToPool@?$CEncrypt@M@@AAEXPBD@Z ; CEncrypt<float>::EncryptValueToPool

; 46   : 	m_fAttackRecoveryRate = rkLoader.LoadFloat_e( "attack_recovery_rate", FLOAT1 );

  00186	b8 01 00 00 00	 mov	 eax, 1
  0018b	6a 05		 push	 5
  0018d	c7 45 e0 8c 98
	9f 8b		 mov	 DWORD PTR __k$535555[ebp], -1952474996 ; 8b9f988cH
  00194	c7 45 e4 8e 87
	b4 98		 mov	 DWORD PTR __k$535555[ebp+4], -1732999282 ; 98b4878eH
  0019b	c7 45 e8 88 8f
	84 9c		 mov	 DWORD PTR __k$535555[ebp+8], -1669034104 ; 9c848f88H
  001a2	c7 45 ec 88 9e
	92 b5		 mov	 DWORD PTR __k$535555[ebp+12], -1248682360 ; b5929e88H
  001a9	c7 45 f0 9f 8d
	9f 8f		 mov	 DWORD PTR __k$535555[ebp+16], -1885368929 ; 8f9f8d9fH
  001b0	8d 4d e0	 lea	 ecx, DWORD PTR __k$535555[ebp]
  001b3	88 5d f4	 mov	 BYTE PTR __k$535555[ebp+20], bl
  001b6	5a		 pop	 edx
$LL535@LoadProper:
  001b7	81 31 ed ec eb
	ea		 xor	 DWORD PTR [ecx], -353637139 ; eaebecedH
  001bd	83 c1 04	 add	 ecx, 4
  001c0	4a		 dec	 edx
  001c1	75 f4		 jne	 SHORT $LL535@LoadProper
  001c3	89 85 d0 fe ff
	ff		 mov	 DWORD PTR tv12188[ebp], eax
  001c9	db 85 d0 fe ff
	ff		 fild	 DWORD PTR tv12188[ebp]
  001cf	85 c0		 test	 eax, eax
  001d1	79 06		 jns	 SHORT $LN1474@LoadProper
  001d3	d8 05 00 00 00
	00		 fadd	 DWORD PTR __real@4f800000
$LN1474@LoadProper:
  001d9	51		 push	 ecx
  001da	8d 45 e0	 lea	 eax, DWORD PTR __k$535555[ebp]
  001dd	d9 1c 24	 fstp	 DWORD PTR [esp]
  001e0	50		 push	 eax
  001e1	8b cf		 mov	 ecx, edi
  001e3	ff 15 00 00 00
	00		 call	 DWORD PTR __imp_?LoadFloat@ioINILoader@@QAEMPBDM@Z
  001e9	d9 9d d4 fe ff
	ff		 fstp	 DWORD PTR _value$535667[ebp]
  001ef	8d 85 d4 fe ff
	ff		 lea	 eax, DWORD PTR _value$535667[ebp]
  001f5	50		 push	 eax
  001f6	8d 8e 00 0a 00
	00		 lea	 ecx, DWORD PTR [esi+2560]
  001fc	e8 00 00 00 00	 call	 ?EncryptValueToPool@?$CEncrypt@M@@AAEXPBD@Z ; CEncrypt<float>::EncryptValueToPool

; 47   : 
; 48   : 	m_vAttackTypeList.clear();

  00201	8d 8e 80 0a 00
	00		 lea	 ecx, DWORD PTR [esi+2688]
  00207	8b 41 04	 mov	 eax, DWORD PTR [ecx+4]
  0020a	8b 11		 mov	 edx, DWORD PTR [ecx]
  0020c	50		 push	 eax
  0020d	52		 push	 edx
  0020e	8d 85 d0 fe ff
	ff		 lea	 eax, DWORD PTR $T535730[ebp]
  00214	50		 push	 eax
  00215	e8 00 00 00 00	 call	 ?erase@?$vector@HV?$allocator@H@std@@@std@@QAE?AV?$_Vector_iterator@V?$_Vector_val@HV?$allocator@H@std@@@std@@@2@V?$_Vector_const_iterator@V?$_Vector_val@HV?$allocator@H@std@@@std@@@2@0@Z ; std::vector<int,std::allocator<int> >::erase
  0021a	6a 02		 push	 2

; 49   : 
; 50   : 	int iCnt = rkLoader.LoadInt_e( "attack_cnt", 0 );

  0021c	c7 45 e8 8c 98
	9f 8b		 mov	 DWORD PTR __k$535777[ebp], -1952474996 ; 8b9f988cH
  00223	c7 45 ec 8e 87
	b4 89		 mov	 DWORD PTR __k$535777[ebp+4], -1984657522 ; 89b4878eH
  0022a	66 c7 45 f0 83
	98		 mov	 WORD PTR __k$535777[ebp+8], 39043 ; 00009883H
  00230	8d 45 e8	 lea	 eax, DWORD PTR __k$535777[ebp]
  00233	88 5d f2	 mov	 BYTE PTR __k$535777[ebp+10], bl
  00236	59		 pop	 ecx
$LL661@LoadProper:
  00237	81 30 ed ec eb
	ea		 xor	 DWORD PTR [eax], -353637139 ; eaebecedH
  0023d	83 c0 04	 add	 eax, 4
  00240	49		 dec	 ecx
  00241	75 f4		 jne	 SHORT $LL661@LoadProper
  00243	6a 08		 push	 8
  00245	58		 pop	 eax
$LL658@LoadProper:
  00246	8b c8		 mov	 ecx, eax
  00248	81 e1 03 00 00
	80		 and	 ecx, -2147483645	; 80000003H
  0024e	79 05		 jns	 SHORT $LN1475@LoadProper
  00250	49		 dec	 ecx
  00251	83 c9 fc	 or	 ecx, -4			; fffffffcH
  00254	41		 inc	 ecx
$LN1475@LoadProper:
  00255	b2 ed		 mov	 dl, -19			; ffffffedH
  00257	2a d1		 sub	 dl, cl
  00259	30 54 05 e8	 xor	 BYTE PTR __k$535777[ebp+eax], dl
  0025d	40		 inc	 eax
  0025e	83 f8 0a	 cmp	 eax, 10			; 0000000aH
  00261	7c e3		 jl	 SHORT $LL658@LoadProper
  00263	53		 push	 ebx
  00264	8d 45 e8	 lea	 eax, DWORD PTR __k$535777[ebp]
  00267	50		 push	 eax
  00268	8b cf		 mov	 ecx, edi
  0026a	ff 15 00 00 00
	00		 call	 DWORD PTR __imp_?LoadInt@ioINILoader@@QAEHPBDH@Z
  00270	89 85 d4 fe ff
	ff		 mov	 DWORD PTR _iCnt$[ebp], eax

; 51   : 	if( iCnt > 0 )

  00276	3b c3		 cmp	 eax, ebx
  00278	7e 0c		 jle	 SHORT $LN103@LoadProper

; 52   : 		m_vAttackTypeList.reserve( iCnt );

  0027a	50		 push	 eax
  0027b	8d 8e 80 0a 00
	00		 lea	 ecx, DWORD PTR [esi+2688]
  00281	e8 00 00 00 00	 call	 ?reserve@?$vector@HV?$allocator@H@std@@@std@@QAEXI@Z ; std::vector<int,std::allocator<int> >::reserve
$LN103@LoadProper:

; 53   : 
; 54   : 	char szBuf[MAX_PATH] = "";

  00286	68 03 01 00 00	 push	 259			; 00000103H
  0028b	8d 85 d9 fe ff
	ff		 lea	 eax, DWORD PTR _szBuf$[ebp+1]
  00291	53		 push	 ebx
  00292	50		 push	 eax
  00293	88 9d d8 fe ff
	ff		 mov	 BYTE PTR _szBuf$[ebp], bl
  00299	e8 00 00 00 00	 call	 _memset
  0029e	83 c4 0c	 add	 esp, 12			; 0000000cH

; 55   : 	for( int i=0; i < iCnt; ++i )

  002a1	33 c9		 xor	 ecx, ecx
  002a3	39 9d d4 fe ff
	ff		 cmp	 DWORD PTR _iCnt$[ebp], ebx
  002a9	0f 8e 89 00 00
	00		 jle	 $LN100@LoadProper
$LL102@LoadProper:

; 49   : 
; 50   : 	int iCnt = rkLoader.LoadInt_e( "attack_cnt", 0 );

  002af	6a 03		 push	 3

; 56   : 	{
; 57   : 		wsprintf_e( szBuf, "attack_type%d", i+1 );

  002b1	c7 45 e4 8c 98
	9f 8b		 mov	 DWORD PTR ___encStr$530774[ebp], -1952474996 ; 8b9f988cH
  002b8	c7 45 e8 8e 87
	b4 9e		 mov	 DWORD PTR ___encStr$530774[ebp+4], -1632335986 ; 9eb4878eH
  002bf	c7 45 ec 94 9c
	8e cf		 mov	 DWORD PTR ___encStr$530774[ebp+8], -812737388 ; cf8e9c94H
  002c6	8d 45 e4	 lea	 eax, DWORD PTR ___encStr$530774[ebp]
  002c9	66 c7 45 f0 89
	00		 mov	 WORD PTR ___encStr$530774[ebp+12], 137 ; 00000089H
  002cf	5a		 pop	 edx
$LL669@LoadProper:
  002d0	81 30 ed ec eb
	ea		 xor	 DWORD PTR [eax], -353637139 ; eaebecedH
  002d6	83 c0 04	 add	 eax, 4
  002d9	4a		 dec	 edx
  002da	75 f4		 jne	 SHORT $LL669@LoadProper
  002dc	80 75 f0 ed	 xor	 BYTE PTR ___encStr$530774[ebp+12], -19 ; ffffffedH
  002e0	8d 41 01	 lea	 eax, DWORD PTR [ecx+1]
  002e3	50		 push	 eax
  002e4	89 85 d0 fe ff
	ff		 mov	 DWORD PTR tv9705[ebp], eax
  002ea	8d 45 e4	 lea	 eax, DWORD PTR ___encStr$530774[ebp]
  002ed	50		 push	 eax
  002ee	8d 85 d8 fe ff
	ff		 lea	 eax, DWORD PTR _szBuf$[ebp]
  002f4	50		 push	 eax
  002f5	ff 15 00 00 00
	00		 call	 DWORD PTR __imp__wsprintfA
  002fb	83 c4 0c	 add	 esp, 12			; 0000000cH

; 58   : 
; 59   : 		int iType = rkLoader.LoadInt( szBuf, 0 );

  002fe	53		 push	 ebx
  002ff	8d 85 d8 fe ff
	ff		 lea	 eax, DWORD PTR _szBuf$[ebp]
  00305	50		 push	 eax
  00306	8b cf		 mov	 ecx, edi
  00308	ff 15 00 00 00
	00		 call	 DWORD PTR __imp_?LoadInt@ioINILoader@@QAEHPBDH@Z
  0030e	89 85 cc fe ff
	ff		 mov	 DWORD PTR _iType$530924[ebp], eax

; 60   : 		m_vAttackTypeList.push_back( iType );

  00314	8d 85 cc fe ff
	ff		 lea	 eax, DWORD PTR _iType$530924[ebp]
  0031a	50		 push	 eax
  0031b	8d 8e 80 0a 00
	00		 lea	 ecx, DWORD PTR [esi+2688]
  00321	e8 00 00 00 00	 call	 ?push_back@?$vector@HV?$allocator@H@std@@@std@@QAEXABH@Z ; std::vector<int,std::allocator<int> >::push_back
  00326	8b 8d d0 fe ff
	ff		 mov	 ecx, DWORD PTR tv9705[ebp]
  0032c	3b 8d d4 fe ff
	ff		 cmp	 ecx, DWORD PTR _iCnt$[ebp]
  00332	0f 8c 77 ff ff
	ff		 jl	 $LL102@LoadProper
$LN100@LoadProper:

; 61   : 	}
; 62   : 
; 63   : 	m_fHPStealRate = rkLoader.LoadFloat_e( "hp_steal_rate", 0.0f );

  00338	6a 03		 push	 3
  0033a	c7 45 e4 85 9c
	b4 99		 mov	 DWORD PTR __k$535914[ebp], -1716216699 ; 99b49c85H
  00341	c7 45 e8 99 89
	8a 86		 mov	 DWORD PTR __k$535914[ebp+4], -2037741159 ; 868a8999H
  00348	c7 45 ec b2 9e
	8a 9e		 mov	 DWORD PTR __k$535914[ebp+8], -1635082574 ; 9e8a9eb2H
  0034f	8d 45 e4	 lea	 eax, DWORD PTR __k$535914[ebp]
  00352	66 c7 45 f0 88
	00		 mov	 WORD PTR __k$535914[ebp+12], 136 ; 00000088H
  00358	59		 pop	 ecx
$LL775@LoadProper:
  00359	81 30 ed ec eb
	ea		 xor	 DWORD PTR [eax], -353637139 ; eaebecedH
  0035f	83 c0 04	 add	 eax, 4
  00362	49		 dec	 ecx
  00363	75 f4		 jne	 SHORT $LL775@LoadProper
  00365	0f 57 c0	 xorps	 xmm0, xmm0
  00368	80 75 f0 ed	 xor	 BYTE PTR __k$535914[ebp+12], -19 ; ffffffedH
  0036c	51		 push	 ecx
  0036d	8d 45 e4	 lea	 eax, DWORD PTR __k$535914[ebp]
  00370	f3 0f 11 04 24	 movss	 DWORD PTR [esp], xmm0
  00375	50		 push	 eax
  00376	8b cf		 mov	 ecx, edi
  00378	ff 15 00 00 00
	00		 call	 DWORD PTR __imp_?LoadFloat@ioINILoader@@QAEMPBDM@Z
  0037e	d9 9d d0 fe ff
	ff		 fstp	 DWORD PTR _value$536014[ebp]
  00384	8d 85 d0 fe ff
	ff		 lea	 eax, DWORD PTR _value$536014[ebp]
  0038a	50		 push	 eax
  0038b	8d 8e 30 0a 00
	00		 lea	 ecx, DWORD PTR [esi+2608]
  00391	e8 00 00 00 00	 call	 ?EncryptValueToPool@?$CEncrypt@M@@AAEXPBD@Z ; CEncrypt<float>::EncryptValueToPool
  00396	6a 06		 push	 6

; 64   : 
; 65   : 	rkLoader.LoadString_e( "damage_convert_hp_effect", "", szBuf, MAX_PATH );

  00398	c7 45 dc 89 8d
	86 8b		 mov	 DWORD PTR __k$536044[ebp], -1954116215 ; 8b868d89H
  0039f	c7 45 e0 8a 89
	b4 89		 mov	 DWORD PTR __k$536044[ebp+4], -1984657014 ; 89b4898aH
  003a6	c7 45 e4 82 82
	9d 8f		 mov	 DWORD PTR __k$536044[ebp+8], -1885502846 ; 8f9d8282H
  003ad	c7 45 e8 9f 98
	b4 82		 mov	 DWORD PTR __k$536044[ebp+12], -2102093665 ; 82b4989fH
  003b4	c7 45 ec 9d b3
	8e 8c		 mov	 DWORD PTR __k$536044[ebp+16], -1936804963 ; 8c8eb39dH
  003bb	c7 45 f0 8b 89
	88 9e		 mov	 DWORD PTR __k$536044[ebp+20], -1635219061 ; 9e88898bH
  003c2	8d 45 dc	 lea	 eax, DWORD PTR __k$536044[ebp]
  003c5	88 5d f4	 mov	 BYTE PTR __k$536044[ebp+24], bl
  003c8	59		 pop	 ecx
$LL883@LoadProper:
  003c9	81 30 ed ec eb
	ea		 xor	 DWORD PTR [eax], -353637139 ; eaebecedH
  003cf	83 c0 04	 add	 eax, 4
  003d2	49		 dec	 ecx
  003d3	75 f4		 jne	 SHORT $LL883@LoadProper
  003d5	68 04 01 00 00	 push	 260			; 00000104H
  003da	8d 85 d8 fe ff
	ff		 lea	 eax, DWORD PTR _szBuf$[ebp]
  003e0	50		 push	 eax
  003e1	68 00 00 00 00	 push	 OFFSET ??_C@_00CNPNBAHC@?$AA@
  003e6	8d 45 dc	 lea	 eax, DWORD PTR __k$536044[ebp]
  003e9	50		 push	 eax
  003ea	8b cf		 mov	 ecx, edi
  003ec	ff 15 00 00 00
	00		 call	 DWORD PTR __imp_?LoadStringA@ioINILoader@@QAEXPBD0PADH@Z

; 66   : 	m_HPStealEffect = szBuf;

  003f2	8d 85 d8 fe ff
	ff		 lea	 eax, DWORD PTR _szBuf$[ebp]
  003f8	50		 push	 eax
  003f9	8d 8e 60 0a 00
	00		 lea	 ecx, DWORD PTR [esi+2656]
  003ff	ff 15 00 00 00
	00		 call	 DWORD PTR __imp_??4ioHashString@@QAEAAV0@PBD@Z
  00405	6a 05		 push	 5

; 67   : 
; 68   : 	rkLoader.LoadString_e( "damage_convert_effect", "", szBuf, MAX_PATH );

  00407	c7 45 dc 89 8d
	86 8b		 mov	 DWORD PTR __k$536169[ebp], -1954116215 ; 8b868d89H
  0040e	c7 45 e0 8a 89
	b4 89		 mov	 DWORD PTR __k$536169[ebp+4], -1984657014 ; 89b4898aH
  00415	c7 45 e4 82 82
	9d 8f		 mov	 DWORD PTR __k$536169[ebp+8], -1885502846 ; 8f9d8282H
  0041c	c7 45 e8 9f 98
	b4 8f		 mov	 DWORD PTR __k$536169[ebp+12], -1883989857 ; 8fb4989fH
  00423	c7 45 ec 8b 8a
	8e 89		 mov	 DWORD PTR __k$536169[ebp+16], -1987147125 ; 898e8a8bH
  0042a	8d 45 dc	 lea	 eax, DWORD PTR __k$536169[ebp]
  0042d	66 c7 45 f0 99
	00		 mov	 WORD PTR __k$536169[ebp+20], 153 ; 00000099H
  00433	59		 pop	 ecx
$LL989@LoadProper:
  00434	81 30 ed ec eb
	ea		 xor	 DWORD PTR [eax], -353637139 ; eaebecedH
  0043a	83 c0 04	 add	 eax, 4
  0043d	49		 dec	 ecx
  0043e	75 f4		 jne	 SHORT $LL989@LoadProper
  00440	80 75 f0 ed	 xor	 BYTE PTR __k$536169[ebp+20], -19 ; ffffffedH
  00444	68 04 01 00 00	 push	 260			; 00000104H
  00449	8d 85 d8 fe ff
	ff		 lea	 eax, DWORD PTR _szBuf$[ebp]
  0044f	50		 push	 eax
  00450	68 00 00 00 00	 push	 OFFSET ??_C@_00CNPNBAHC@?$AA@
  00455	8d 45 dc	 lea	 eax, DWORD PTR __k$536169[ebp]
  00458	50		 push	 eax
  00459	8b cf		 mov	 ecx, edi
  0045b	ff 15 00 00 00
	00		 call	 DWORD PTR __imp_?LoadStringA@ioINILoader@@QAEXPBD0PADH@Z

; 69   : 	m_DamageConvertEffect = szBuf;

  00461	8d 85 d8 fe ff
	ff		 lea	 eax, DWORD PTR _szBuf$[ebp]
  00467	50		 push	 eax
  00468	8d 8e 70 0a 00
	00		 lea	 ecx, DWORD PTR [esi+2672]
  0046e	ff 15 00 00 00
	00		 call	 DWORD PTR __imp_??4ioHashString@@QAEAAV0@PBD@Z
  00474	6a 04		 push	 4

; 70   : 
; 71   : 	//////////////////////////////////////////////////////////////////////////
; 72   : 
; 73   : 	m_type = (DamageConvertType)rkLoader.LoadInt_e( "DamageConvertType", DCVT_NORMAL );

  00476	c7 45 e0 a9 8d
	86 8b		 mov	 DWORD PTR __k$536319[ebp], -1954116183 ; 8b868da9H
  0047d	c7 45 e4 8a 89
	a8 85		 mov	 DWORD PTR __k$536319[ebp+4], -2052552310 ; 85a8898aH
  00484	c7 45 e8 83 9a
	8e 98		 mov	 DWORD PTR __k$536319[ebp+8], -1735484797 ; 988e9a83H
  0048b	c7 45 ec 99 b8
	92 9a		 mov	 DWORD PTR __k$536319[ebp+12], -1701660519 ; 9a92b899H
  00492	8d 45 e0	 lea	 eax, DWORD PTR __k$536319[ebp]
  00495	66 c7 45 f0 88
	00		 mov	 WORD PTR __k$536319[ebp+16], 136 ; 00000088H
  0049b	59		 pop	 ecx
$LL1095@LoadProper:
  0049c	81 30 ed ec eb
	ea		 xor	 DWORD PTR [eax], -353637139 ; eaebecedH
  004a2	83 c0 04	 add	 eax, 4
  004a5	49		 dec	 ecx
  004a6	75 f4		 jne	 SHORT $LL1095@LoadProper
  004a8	80 75 f0 ed	 xor	 BYTE PTR __k$536319[ebp+16], -19 ; ffffffedH
  004ac	53		 push	 ebx
  004ad	8d 45 e0	 lea	 eax, DWORD PTR __k$536319[ebp]
  004b0	50		 push	 eax
  004b1	8b cf		 mov	 ecx, edi
  004b3	ff 15 00 00 00
	00		 call	 DWORD PTR __imp_?LoadInt@ioINILoader@@QAEHPBDH@Z
  004b9	6a 03		 push	 3
  004bb	89 86 6c 09 00
	00		 mov	 DWORD PTR [esi+2412], eax

; 74   : 	m_nGaugeAttackCnt = rkLoader.LoadInt_e( "GaugeAttackCnt", 1000 );

  004c1	c7 45 e4 aa 8d
	9e 8d		 mov	 DWORD PTR __k$536406[ebp], -1918988886 ; 8d9e8daaH
  004c8	c7 45 e8 88 ad
	9f 9e		 mov	 DWORD PTR __k$536406[ebp+4], -1633702520 ; 9e9fad88H
  004cf	c7 45 ec 8c 8f
	80 a9		 mov	 DWORD PTR __k$536406[ebp+8], -1451192436 ; a9808f8cH
  004d6	66 c7 45 f0 83
	98		 mov	 WORD PTR __k$536406[ebp+12], 39043 ; 00009883H
  004dc	8d 45 e4	 lea	 eax, DWORD PTR __k$536406[ebp]
  004df	88 5d f2	 mov	 BYTE PTR __k$536406[ebp+14], bl
  004e2	59		 pop	 ecx
$LL1201@LoadProper:
  004e3	81 30 ed ec eb
	ea		 xor	 DWORD PTR [eax], -353637139 ; eaebecedH
  004e9	83 c0 04	 add	 eax, 4
  004ec	49		 dec	 ecx
  004ed	75 f4		 jne	 SHORT $LL1201@LoadProper
  004ef	6a 0c		 push	 12			; 0000000cH
  004f1	58		 pop	 eax
$LL1198@LoadProper:
  004f2	8b c8		 mov	 ecx, eax
  004f4	81 e1 03 00 00
	80		 and	 ecx, -2147483645	; 80000003H
  004fa	79 05		 jns	 SHORT $LN1476@LoadProper
  004fc	49		 dec	 ecx
  004fd	83 c9 fc	 or	 ecx, -4			; fffffffcH
  00500	41		 inc	 ecx
$LN1476@LoadProper:
  00501	b2 ed		 mov	 dl, -19			; ffffffedH
  00503	2a d1		 sub	 dl, cl
  00505	30 54 05 e4	 xor	 BYTE PTR __k$536406[ebp+eax], dl
  00509	40		 inc	 eax
  0050a	83 f8 0e	 cmp	 eax, 14			; 0000000eH
  0050d	7c e3		 jl	 SHORT $LL1198@LoadProper
  0050f	68 e8 03 00 00	 push	 1000			; 000003e8H
  00514	8d 45 e4	 lea	 eax, DWORD PTR __k$536406[ebp]
  00517	50		 push	 eax
  00518	8b cf		 mov	 ecx, edi
  0051a	ff 15 00 00 00
	00		 call	 DWORD PTR __imp_?LoadInt@ioINILoader@@QAEHPBDH@Z
  00520	6a 05		 push	 5
  00522	89 86 90 0a 00
	00		 mov	 DWORD PTR [esi+2704], eax

; 75   : 	m_fAbsoluteRecoveryGague = rkLoader.LoadFloat_e("AbsoluteRecoveryGague", 0.f );

  00528	c7 45 dc ac 8e
	98 85		 mov	 DWORD PTR __k$536531[ebp], -2053599572 ; 85988eacH
  0052f	c7 45 e0 81 99
	9f 8f		 mov	 DWORD PTR __k$536531[ebp+4], -1885365887 ; 8f9f9981H
  00536	c7 45 e4 bf 89
	88 85		 mov	 DWORD PTR __k$536531[ebp+8], -2054649409 ; 858889bfH
  0053d	c7 45 e8 9b 89
	99 93		 mov	 DWORD PTR __k$536531[ebp+12], -1818654309 ; 9399899bH
  00544	c7 45 ec aa 8d
	8c 9f		 mov	 DWORD PTR __k$536531[ebp+16], -1618178646 ; 9f8c8daaH
  0054b	8d 45 dc	 lea	 eax, DWORD PTR __k$536531[ebp]
  0054e	66 c7 45 f0 88
	00		 mov	 WORD PTR __k$536531[ebp+20], 136 ; 00000088H
  00554	59		 pop	 ecx
$LL1307@LoadProper:
  00555	81 30 ed ec eb
	ea		 xor	 DWORD PTR [eax], -353637139 ; eaebecedH
  0055b	83 c0 04	 add	 eax, 4
  0055e	49		 dec	 ecx
  0055f	75 f4		 jne	 SHORT $LL1307@LoadProper
  00561	0f 57 c0	 xorps	 xmm0, xmm0
  00564	80 75 f0 ed	 xor	 BYTE PTR __k$536531[ebp+20], -19 ; ffffffedH
  00568	51		 push	 ecx
  00569	8d 45 dc	 lea	 eax, DWORD PTR __k$536531[ebp]
  0056c	f3 0f 11 04 24	 movss	 DWORD PTR [esp], xmm0
  00571	50		 push	 eax
  00572	8b cf		 mov	 ecx, edi
  00574	ff 15 00 00 00
	00		 call	 DWORD PTR __imp_?LoadFloat@ioINILoader@@QAEMPBDM@Z
  0057a	d9 9d d0 fe ff
	ff		 fstp	 DWORD PTR _value$536644[ebp]
  00580	8d 85 d0 fe ff
	ff		 lea	 eax, DWORD PTR _value$536644[ebp]
  00586	50		 push	 eax
  00587	8d 8e 98 0a 00
	00		 lea	 ecx, DWORD PTR [esi+2712]
  0058d	e8 00 00 00 00	 call	 ?EncryptValueToPool@?$CEncrypt@M@@AAEXPBD@Z ; CEncrypt<float>::EncryptValueToPool
  00592	6a 04		 push	 4

; 76   : 
; 77   : 	//////////////////////////////////////////////////////////////////////////
; 78   : 
; 79   : 	m_bCheckElementCheckType = rkLoader.LoadBool_e( "check_element_type", true );

  00594	c7 45 e0 8e 84
	8e 89		 mov	 DWORD PTR __k$536674[ebp], -1987148658 ; 898e848eH
  0059b	c7 45 e4 86 b3
	8e 86		 mov	 DWORD PTR __k$536674[ebp+4], -2037468282 ; 868eb386H
  005a2	c7 45 e8 88 81
	8e 84		 mov	 DWORD PTR __k$536674[ebp+8], -2071035512 ; 848e8188H
  005a9	c7 45 ec 99 b3
	9f 93		 mov	 DWORD PTR __k$536674[ebp+12], -1818250343 ; 939fb399H
  005b0	66 c7 45 f0 9d
	89		 mov	 WORD PTR __k$536674[ebp+16], 35229 ; 0000899dH
  005b6	8d 45 e0	 lea	 eax, DWORD PTR __k$536674[ebp]
  005b9	88 5d f2	 mov	 BYTE PTR __k$536674[ebp+18], bl
  005bc	59		 pop	 ecx
$LL1415@LoadProper:
  005bd	81 30 ed ec eb
	ea		 xor	 DWORD PTR [eax], -353637139 ; eaebecedH
  005c3	83 c0 04	 add	 eax, 4
  005c6	49		 dec	 ecx
  005c7	75 f4		 jne	 SHORT $LL1415@LoadProper
  005c9	6a 10		 push	 16			; 00000010H
  005cb	58		 pop	 eax
$LL1412@LoadProper:
  005cc	8b c8		 mov	 ecx, eax
  005ce	81 e1 03 00 00
	80		 and	 ecx, -2147483645	; 80000003H
  005d4	79 05		 jns	 SHORT $LN1477@LoadProper
  005d6	49		 dec	 ecx
  005d7	83 c9 fc	 or	 ecx, -4			; fffffffcH
  005da	41		 inc	 ecx
$LN1477@LoadProper:
  005db	b2 ed		 mov	 dl, -19			; ffffffedH
  005dd	2a d1		 sub	 dl, cl
  005df	30 54 05 e0	 xor	 BYTE PTR __k$536674[ebp+eax], dl
  005e3	40		 inc	 eax
  005e4	83 f8 12	 cmp	 eax, 18			; 00000012H
  005e7	7c e3		 jl	 SHORT $LL1412@LoadProper
  005e9	6a 01		 push	 1
  005eb	8d 45 e0	 lea	 eax, DWORD PTR __k$536674[ebp]
  005ee	50		 push	 eax
  005ef	8b cf		 mov	 ecx, edi
  005f1	ff 15 00 00 00
	00		 call	 DWORD PTR __imp_?LoadBool@ioINILoader@@QAE_NPBD_N@Z

; 80   : }

  005f7	8b 4d fc	 mov	 ecx, DWORD PTR __$ArrayPad$[ebp]
  005fa	5f		 pop	 edi
  005fb	88 86 c8 0a 00
	00		 mov	 BYTE PTR [esi+2760], al
  00601	5e		 pop	 esi
  00602	33 cd		 xor	 ecx, ebp
  00604	5b		 pop	 ebx
  00605	e8 00 00 00 00	 call	 @__security_check_cookie@4
  0060a	c9		 leave
  0060b	c2 04 00	 ret	 4
?LoadProperty@ioDamageConvertBuff@@UAEXAAVioINILoader@@@Z ENDP ; ioDamageConvertBuff::LoadProperty
_TEXT	ENDS
PUBLIC	??0?$vector@HV?$allocator@H@std@@@std@@QAE@ABV01@@Z ; std::vector<int,std::allocator<int> >::vector<int,std::allocator<int> >
EXTRN	__EH_prolog3_catch:PROC
;	COMDAT xdata$x
; File c:\program files (x86)\microsoft visual studio 10.0\vc\include\xutility
xdata$x	SEGMENT
__catchsym$??0?$vector@HV?$allocator@H@std@@@std@@QAE@ABV01@@Z$2 DD 040H
	DD	00H
	DD	00H
	DD	FLAT:__catch$??0?$vector@HV?$allocator@H@std@@@std@@QAE@ABV01@@Z$0
__unwindtable$??0?$vector@HV?$allocator@H@std@@@std@@QAE@ABV01@@Z DD 0ffffffffH
	DD	00H
	DD	0ffffffffH
	DD	00H
__tryblocktable$??0?$vector@HV?$allocator@H@std@@@std@@QAE@ABV01@@Z DD 00H
	DD	00H
	DD	01H
	DD	01H
	DD	FLAT:__catchsym$??0?$vector@HV?$allocator@H@std@@@std@@QAE@ABV01@@Z$2
__ehfuncinfo$??0?$vector@HV?$allocator@H@std@@@std@@QAE@ABV01@@Z DD 019930522H
	DD	02H
	DD	FLAT:__unwindtable$??0?$vector@HV?$allocator@H@std@@@std@@QAE@ABV01@@Z
	DD	01H
	DD	FLAT:__tryblocktable$??0?$vector@HV?$allocator@H@std@@@std@@QAE@ABV01@@Z
	DD	2 DUP(00H)
	DD	00H
	DD	01H
; Function compile flags: /Ogsp
; File c:\program files (x86)\microsoft visual studio 10.0\vc\include\vector
xdata$x	ENDS
;	COMDAT ??0?$vector@HV?$allocator@H@std@@@std@@QAE@ABV01@@Z
_TEXT	SEGMENT
_this$ = -20						; size = 4
__$EHRec$ = -16						; size = 16
__Cat$536912 = 8					; size = 1
__Right$ = 8						; size = 4
??0?$vector@HV?$allocator@H@std@@@std@@QAE@ABV01@@Z PROC ; std::vector<int,std::allocator<int> >::vector<int,std::allocator<int> >, COMDAT
; _this$ = ecx

; 535  : 		{	// construct by copying _Right

  00000	6a 08		 push	 8
  00002	b8 00 00 00 00	 mov	 eax, __ehhandler$??0?$vector@HV?$allocator@H@std@@@std@@QAE@ABV01@@Z
  00007	e8 00 00 00 00	 call	 __EH_prolog3_catch
  0000c	8b f1		 mov	 esi, ecx
  0000e	89 75 ec	 mov	 DWORD PTR _this$[ebp], esi

; 536  : 		if (_Buy(_Right.size()))

  00011	8b 7d 08	 mov	 edi, DWORD PTR __Right$[ebp]
  00014	33 db		 xor	 ebx, ebx
  00016	89 1e		 mov	 DWORD PTR [esi], ebx
  00018	89 5e 04	 mov	 DWORD PTR [esi+4], ebx
  0001b	89 5e 08	 mov	 DWORD PTR [esi+8], ebx
  0001e	8b 47 04	 mov	 eax, DWORD PTR [edi+4]
  00021	2b 07		 sub	 eax, DWORD PTR [edi]
  00023	c1 f8 02	 sar	 eax, 2
  00026	50		 push	 eax
  00027	e8 00 00 00 00	 call	 ?_Buy@?$vector@HV?$allocator@H@std@@@std@@IAE_NI@Z ; std::vector<int,std::allocator<int> >::_Buy
  0002c	84 c0		 test	 al, al
  0002e	74 1f		 je	 SHORT $LN7@vector

; 537  : 			_TRY_BEGIN
; 538  : 			this->_Mylast = _Ucopy(_Right.begin(), _Right.end(),
; 539  : 				this->_Myfirst);

  00030	ff 75 08	 push	 DWORD PTR __Cat$536912[ebp]
  00033	8b 0e		 mov	 ecx, DWORD PTR [esi]
  00035	8b 47 04	 mov	 eax, DWORD PTR [edi+4]
  00038	8b 3f		 mov	 edi, DWORD PTR [edi]
  0003a	8d 56 0c	 lea	 edx, DWORD PTR [esi+12]
  0003d	52		 push	 edx
  0003e	51		 push	 ecx
  0003f	50		 push	 eax
  00040	57		 push	 edi
  00041	89 5d fc	 mov	 DWORD PTR __$EHRec$[ebp+12], ebx
  00044	e8 00 00 00 00	 call	 ??$_Uninit_copy@V?$_Vector_const_iterator@V?$_Vector_val@HV?$allocator@H@std@@@std@@@std@@PAHV?$allocator@H@2@@std@@YAPAHV?$_Vector_const_iterator@V?$_Vector_val@HV?$allocator@H@std@@@std@@@0@0PAHAAV?$allocator@H@0@U_Nonscalar_ptr_iterator_tag@0@@Z ; std::_Uninit_copy<std::_Vector_const_iterator<std::_Vector_val<int,std::allocator<int> > >,int *,std::allocator<int> >
  00049	83 c4 14	 add	 esp, 20			; 00000014H
  0004c	89 46 04	 mov	 DWORD PTR [esi+4], eax
$LN7@vector:

; 543  : 			_CATCH_END
; 544  : 		}

  0004f	8b c6		 mov	 eax, esi
  00051	e8 00 00 00 00	 call	 __EH_epilog3
  00056	c2 04 00	 ret	 4
__catch$??0?$vector@HV?$allocator@H@std@@@std@@QAE@ABV01@@Z$0:

; 540  : 			_CATCH_ALL
; 541  : 			_Tidy();

  00059	8b 4d ec	 mov	 ecx, DWORD PTR _this$[ebp]
  0005c	e8 00 00 00 00	 call	 ?_Tidy@?$vector@HV?$allocator@H@std@@@std@@IAEXXZ ; std::vector<int,std::allocator<int> >::_Tidy

; 542  : 			_RERAISE;

  00061	33 db		 xor	 ebx, ebx
  00063	53		 push	 ebx
  00064	53		 push	 ebx
  00065	e8 00 00 00 00	 call	 __CxxThrowException@8
$LN38@vector:
$LN37@vector:
  0006a	cc		 int	 3
_TEXT	ENDS
;	COMDAT text$x
text$x	SEGMENT
__ehhandler$??0?$vector@HV?$allocator@H@std@@@std@@QAE@ABV01@@Z:
  00000	8b 54 24 08	 mov	 edx, DWORD PTR [esp+8]
  00004	8d 42 0c	 lea	 eax, DWORD PTR [edx+12]
  00007	8b 4a e8	 mov	 ecx, DWORD PTR [edx-24]
  0000a	33 c8		 xor	 ecx, eax
  0000c	e8 00 00 00 00	 call	 @__security_check_cookie@4
  00011	b8 00 00 00 00	 mov	 eax, OFFSET __ehfuncinfo$??0?$vector@HV?$allocator@H@std@@@std@@QAE@ABV01@@Z
  00016	e9 00 00 00 00	 jmp	 ___CxxFrameHandler3
text$x	ENDS
??0?$vector@HV?$allocator@H@std@@@std@@QAE@ABV01@@Z ENDP ; std::vector<int,std::allocator<int> >::vector<int,std::allocator<int> >
PUBLIC	??0ioDamageConvertBuff@@QAE@ABV0@@Z		; ioDamageConvertBuff::ioDamageConvertBuff
EXTRN	__imp_??0ioHashString@@QAE@ABV0@@Z:PROC
EXTRN	??0ioBuff@@QAE@ABV0@@Z:PROC			; ioBuff::ioBuff
;	COMDAT xdata$x
; File d:\lost saga for developer\youtube\tutorial\source\src\lsclient\iodamageconvertbuff.cpp
xdata$x	SEGMENT
__ehfuncinfo$??0ioDamageConvertBuff@@QAE@ABV0@@Z DD 019930522H
	DD	09H
	DD	FLAT:__unwindtable$??0ioDamageConvertBuff@@QAE@ABV0@@Z
	DD	2 DUP(00H)
	DD	2 DUP(00H)
	DD	00H
	DD	01H
__unwindtable$??0ioDamageConvertBuff@@QAE@ABV0@@Z DD 0ffffffffH
	DD	FLAT:__unwindfunclet$??0ioDamageConvertBuff@@QAE@ABV0@@Z$0
	DD	00H
	DD	FLAT:__unwindfunclet$??0ioDamageConvertBuff@@QAE@ABV0@@Z$1
	DD	01H
	DD	FLAT:__unwindfunclet$??0ioDamageConvertBuff@@QAE@ABV0@@Z$2
	DD	02H
	DD	FLAT:__unwindfunclet$??0ioDamageConvertBuff@@QAE@ABV0@@Z$3
	DD	03H
	DD	FLAT:__unwindfunclet$??0ioDamageConvertBuff@@QAE@ABV0@@Z$4
	DD	04H
	DD	FLAT:__unwindfunclet$??0ioDamageConvertBuff@@QAE@ABV0@@Z$5
	DD	05H
	DD	FLAT:__unwindfunclet$??0ioDamageConvertBuff@@QAE@ABV0@@Z$6
	DD	06H
	DD	FLAT:__unwindfunclet$??0ioDamageConvertBuff@@QAE@ABV0@@Z$7
	DD	07H
	DD	FLAT:__unwindfunclet$??0ioDamageConvertBuff@@QAE@ABV0@@Z$8
; Function compile flags: /Ogsp
xdata$x	ENDS
;	COMDAT ??0ioDamageConvertBuff@@QAE@ABV0@@Z
_TEXT	SEGMENT
_this$ = -16						; size = 4
__$EHRec$ = -12						; size = 12
_rhs$ = 8						; size = 4
??0ioDamageConvertBuff@@QAE@ABV0@@Z PROC		; ioDamageConvertBuff::ioDamageConvertBuff, COMDAT
; _this$ = ecx

; 30   : {

  00000	6a 04		 push	 4
  00002	b8 00 00 00 00	 mov	 eax, __ehhandler$??0ioDamageConvertBuff@@QAE@ABV0@@Z
  00007	e8 00 00 00 00	 call	 __EH_prolog3
  0000c	8b f1		 mov	 esi, ecx
  0000e	89 75 f0	 mov	 DWORD PTR _this$[ebp], esi
  00011	8b 7d 08	 mov	 edi, DWORD PTR _rhs$[ebp]
  00014	57		 push	 edi
  00015	e8 00 00 00 00	 call	 ??0ioBuff@@QAE@ABV0@@Z	; ioBuff::ioBuff
  0001a	83 65 fc 00	 and	 DWORD PTR __$EHRec$[ebp+8], 0
  0001e	c7 06 00 00 00
	00		 mov	 DWORD PTR [esi], OFFSET ??_7ioDamageConvertBuff@@6B@
  00024	8b 87 6c 09 00
	00		 mov	 eax, DWORD PTR [edi+2412]
  0002a	89 86 6c 09 00
	00		 mov	 DWORD PTR [esi+2412], eax
  00030	8d 87 70 09 00
	00		 lea	 eax, DWORD PTR [edi+2416]
  00036	50		 push	 eax
  00037	8d 8e 70 09 00
	00		 lea	 ecx, DWORD PTR [esi+2416]
  0003d	e8 00 00 00 00	 call	 ??0?$CEncrypt@M@@QAE@ABV0@@Z ; CEncrypt<float>::CEncrypt<float>
  00042	8d 87 a0 09 00
	00		 lea	 eax, DWORD PTR [edi+2464]
  00048	50		 push	 eax
  00049	8d 8e a0 09 00
	00		 lea	 ecx, DWORD PTR [esi+2464]
  0004f	c6 45 fc 01	 mov	 BYTE PTR __$EHRec$[ebp+8], 1
  00053	e8 00 00 00 00	 call	 ??0?$CEncrypt@M@@QAE@ABV0@@Z ; CEncrypt<float>::CEncrypt<float>
  00058	8d 87 d0 09 00
	00		 lea	 eax, DWORD PTR [edi+2512]
  0005e	50		 push	 eax
  0005f	8d 8e d0 09 00
	00		 lea	 ecx, DWORD PTR [esi+2512]
  00065	c6 45 fc 02	 mov	 BYTE PTR __$EHRec$[ebp+8], 2
  00069	e8 00 00 00 00	 call	 ??0?$CEncrypt@M@@QAE@ABV0@@Z ; CEncrypt<float>::CEncrypt<float>
  0006e	8d 87 00 0a 00
	00		 lea	 eax, DWORD PTR [edi+2560]
  00074	50		 push	 eax
  00075	8d 8e 00 0a 00
	00		 lea	 ecx, DWORD PTR [esi+2560]
  0007b	c6 45 fc 03	 mov	 BYTE PTR __$EHRec$[ebp+8], 3
  0007f	e8 00 00 00 00	 call	 ??0?$CEncrypt@M@@QAE@ABV0@@Z ; CEncrypt<float>::CEncrypt<float>
  00084	8d 87 30 0a 00
	00		 lea	 eax, DWORD PTR [edi+2608]
  0008a	50		 push	 eax
  0008b	8d 8e 30 0a 00
	00		 lea	 ecx, DWORD PTR [esi+2608]
  00091	c6 45 fc 04	 mov	 BYTE PTR __$EHRec$[ebp+8], 4
  00095	e8 00 00 00 00	 call	 ??0?$CEncrypt@M@@QAE@ABV0@@Z ; CEncrypt<float>::CEncrypt<float>
  0009a	8b 1d 00 00 00
	00		 mov	 ebx, DWORD PTR __imp_??0ioHashString@@QAE@ABV0@@Z
  000a0	8d 87 60 0a 00
	00		 lea	 eax, DWORD PTR [edi+2656]
  000a6	50		 push	 eax
  000a7	8d 8e 60 0a 00
	00		 lea	 ecx, DWORD PTR [esi+2656]
  000ad	c6 45 fc 05	 mov	 BYTE PTR __$EHRec$[ebp+8], 5
  000b1	ff d3		 call	 ebx
  000b3	8d 87 70 0a 00
	00		 lea	 eax, DWORD PTR [edi+2672]
  000b9	50		 push	 eax
  000ba	8d 8e 70 0a 00
	00		 lea	 ecx, DWORD PTR [esi+2672]
  000c0	c6 45 fc 06	 mov	 BYTE PTR __$EHRec$[ebp+8], 6
  000c4	ff d3		 call	 ebx
  000c6	8d 87 80 0a 00
	00		 lea	 eax, DWORD PTR [edi+2688]
  000cc	50		 push	 eax
  000cd	8d 8e 80 0a 00
	00		 lea	 ecx, DWORD PTR [esi+2688]
  000d3	c6 45 fc 07	 mov	 BYTE PTR __$EHRec$[ebp+8], 7
  000d7	e8 00 00 00 00	 call	 ??0?$vector@HV?$allocator@H@std@@@std@@QAE@ABV01@@Z ; std::vector<int,std::allocator<int> >::vector<int,std::allocator<int> >
  000dc	8b 87 90 0a 00
	00		 mov	 eax, DWORD PTR [edi+2704]
  000e2	89 86 90 0a 00
	00		 mov	 DWORD PTR [esi+2704], eax
  000e8	8d 87 98 0a 00
	00		 lea	 eax, DWORD PTR [edi+2712]
  000ee	50		 push	 eax
  000ef	8d 8e 98 0a 00
	00		 lea	 ecx, DWORD PTR [esi+2712]
  000f5	c6 45 fc 08	 mov	 BYTE PTR __$EHRec$[ebp+8], 8
  000f9	e8 00 00 00 00	 call	 ??0?$CEncrypt@M@@QAE@ABV0@@Z ; CEncrypt<float>::CEncrypt<float>
  000fe	8a 87 c8 0a 00
	00		 mov	 al, BYTE PTR [edi+2760]

; 31   : 	m_nCurAttackCnt = 0;

  00104	83 a6 94 0a 00
	00 00		 and	 DWORD PTR [esi+2708], 0
  0010b	88 86 c8 0a 00
	00		 mov	 BYTE PTR [esi+2760], al

; 32   : }

  00111	8b c6		 mov	 eax, esi
  00113	e8 00 00 00 00	 call	 __EH_epilog3
  00118	c2 04 00	 ret	 4
_TEXT	ENDS
;	COMDAT text$x
text$x	SEGMENT
__unwindfunclet$??0ioDamageConvertBuff@@QAE@ABV0@@Z$0:
  00000	8b 4d f0	 mov	 ecx, DWORD PTR _this$[ebp]
  00003	e9 00 00 00 00	 jmp	 ??1ioBuff@@UAE@XZ	; ioBuff::~ioBuff
__unwindfunclet$??0ioDamageConvertBuff@@QAE@ABV0@@Z$1:
  00008	8b 4d f0	 mov	 ecx, DWORD PTR _this$[ebp]
  0000b	81 c1 70 09 00
	00		 add	 ecx, 2416		; 00000970H
  00011	e9 00 00 00 00	 jmp	 ??1?$CEncrypt@M@@UAE@XZ	; CEncrypt<float>::~CEncrypt<float>
__unwindfunclet$??0ioDamageConvertBuff@@QAE@ABV0@@Z$2:
  00016	8b 4d f0	 mov	 ecx, DWORD PTR _this$[ebp]
  00019	81 c1 a0 09 00
	00		 add	 ecx, 2464		; 000009a0H
  0001f	e9 00 00 00 00	 jmp	 ??1?$CEncrypt@M@@UAE@XZ	; CEncrypt<float>::~CEncrypt<float>
__unwindfunclet$??0ioDamageConvertBuff@@QAE@ABV0@@Z$3:
  00024	8b 4d f0	 mov	 ecx, DWORD PTR _this$[ebp]
  00027	81 c1 d0 09 00
	00		 add	 ecx, 2512		; 000009d0H
  0002d	e9 00 00 00 00	 jmp	 ??1?$CEncrypt@M@@UAE@XZ	; CEncrypt<float>::~CEncrypt<float>
__unwindfunclet$??0ioDamageConvertBuff@@QAE@ABV0@@Z$4:
  00032	8b 4d f0	 mov	 ecx, DWORD PTR _this$[ebp]
  00035	81 c1 00 0a 00
	00		 add	 ecx, 2560		; 00000a00H
  0003b	e9 00 00 00 00	 jmp	 ??1?$CEncrypt@M@@UAE@XZ	; CEncrypt<float>::~CEncrypt<float>
__unwindfunclet$??0ioDamageConvertBuff@@QAE@ABV0@@Z$5:
  00040	8b 4d f0	 mov	 ecx, DWORD PTR _this$[ebp]
  00043	81 c1 30 0a 00
	00		 add	 ecx, 2608		; 00000a30H
  00049	e9 00 00 00 00	 jmp	 ??1?$CEncrypt@M@@UAE@XZ	; CEncrypt<float>::~CEncrypt<float>
__unwindfunclet$??0ioDamageConvertBuff@@QAE@ABV0@@Z$6:
  0004e	8b 4d f0	 mov	 ecx, DWORD PTR _this$[ebp]
  00051	81 c1 60 0a 00
	00		 add	 ecx, 2656		; 00000a60H
  00057	ff 25 00 00 00
	00		 jmp	 DWORD PTR __imp_??1ioHashString@@QAE@XZ
__unwindfunclet$??0ioDamageConvertBuff@@QAE@ABV0@@Z$7:
  0005d	8b 4d f0	 mov	 ecx, DWORD PTR _this$[ebp]
  00060	81 c1 70 0a 00
	00		 add	 ecx, 2672		; 00000a70H
  00066	ff 25 00 00 00
	00		 jmp	 DWORD PTR __imp_??1ioHashString@@QAE@XZ
__unwindfunclet$??0ioDamageConvertBuff@@QAE@ABV0@@Z$8:
  0006c	8b 4d f0	 mov	 ecx, DWORD PTR _this$[ebp]
  0006f	81 c1 80 0a 00
	00		 add	 ecx, 2688		; 00000a80H
  00075	e9 00 00 00 00	 jmp	 ??1?$vector@HV?$allocator@H@std@@@std@@QAE@XZ ; std::vector<int,std::allocator<int> >::~vector<int,std::allocator<int> >
__ehhandler$??0ioDamageConvertBuff@@QAE@ABV0@@Z:
  0007a	8b 54 24 08	 mov	 edx, DWORD PTR [esp+8]
  0007e	8d 42 0c	 lea	 eax, DWORD PTR [edx+12]
  00081	8b 4a ec	 mov	 ecx, DWORD PTR [edx-20]
  00084	33 c8		 xor	 ecx, eax
  00086	e8 00 00 00 00	 call	 @__security_check_cookie@4
  0008b	b8 00 00 00 00	 mov	 eax, OFFSET __ehfuncinfo$??0ioDamageConvertBuff@@QAE@ABV0@@Z
  00090	e9 00 00 00 00	 jmp	 ___CxxFrameHandler3
text$x	ENDS
??0ioDamageConvertBuff@@QAE@ABV0@@Z ENDP		; ioDamageConvertBuff::ioDamageConvertBuff
;	COMDAT xdata$x
xdata$x	SEGMENT
__unwindtable$?Clone@ioDamageConvertBuff@@UAEPAVioBuff@@XZ DD 0ffffffffH
	DD	FLAT:__unwindfunclet$?Clone@ioDamageConvertBuff@@UAEPAVioBuff@@XZ$0
__ehfuncinfo$?Clone@ioDamageConvertBuff@@UAEPAVioBuff@@XZ DD 019930522H
	DD	01H
	DD	FLAT:__unwindtable$?Clone@ioDamageConvertBuff@@UAEPAVioBuff@@XZ
	DD	2 DUP(00H)
	DD	2 DUP(00H)
	DD	00H
	DD	01H
; Function compile flags: /Ogsp
xdata$x	ENDS
;	COMDAT ?Clone@ioDamageConvertBuff@@UAEPAVioBuff@@XZ
_TEXT	SEGMENT
$T536951 = -16						; size = 4
__$EHRec$ = -12						; size = 12
?Clone@ioDamageConvertBuff@@UAEPAVioBuff@@XZ PROC	; ioDamageConvertBuff::Clone, COMDAT
; _this$ = ecx

; 83   : {

  00000	6a 04		 push	 4
  00002	b8 00 00 00 00	 mov	 eax, __ehhandler$?Clone@ioDamageConvertBuff@@UAEPAVioBuff@@XZ
  00007	e8 00 00 00 00	 call	 __EH_prolog3
  0000c	8b f1		 mov	 esi, ecx

; 84   : 	return new ioDamageConvertBuff( *this );

  0000e	68 cc 0a 00 00	 push	 2764			; 00000accH
  00013	e8 00 00 00 00	 call	 ??2@YAPAXI@Z		; operator new
  00018	59		 pop	 ecx
  00019	8b c8		 mov	 ecx, eax
  0001b	89 4d f0	 mov	 DWORD PTR $T536951[ebp], ecx
  0001e	33 c0		 xor	 eax, eax
  00020	89 45 fc	 mov	 DWORD PTR __$EHRec$[ebp+8], eax
  00023	3b c8		 cmp	 ecx, eax
  00025	74 06		 je	 SHORT $LN3@Clone
  00027	56		 push	 esi
  00028	e8 00 00 00 00	 call	 ??0ioDamageConvertBuff@@QAE@ABV0@@Z ; ioDamageConvertBuff::ioDamageConvertBuff
$LN3@Clone:

; 85   : }

  0002d	e8 00 00 00 00	 call	 __EH_epilog3
  00032	c3		 ret	 0
_TEXT	ENDS
;	COMDAT text$x
text$x	SEGMENT
__unwindfunclet$?Clone@ioDamageConvertBuff@@UAEPAVioBuff@@XZ$0:
  00000	ff 75 f0	 push	 DWORD PTR $T536951[ebp]
  00003	e8 00 00 00 00	 call	 ??3@YAXPAX@Z		; operator delete
  00008	59		 pop	 ecx
  00009	c3		 ret	 0
__ehhandler$?Clone@ioDamageConvertBuff@@UAEPAVioBuff@@XZ:
  0000a	8b 54 24 08	 mov	 edx, DWORD PTR [esp+8]
  0000e	8d 42 0c	 lea	 eax, DWORD PTR [edx+12]
  00011	8b 4a ec	 mov	 ecx, DWORD PTR [edx-20]
  00014	33 c8		 xor	 ecx, eax
  00016	e8 00 00 00 00	 call	 @__security_check_cookie@4
  0001b	b8 00 00 00 00	 mov	 eax, OFFSET __ehfuncinfo$?Clone@ioDamageConvertBuff@@UAEPAVioBuff@@XZ
  00020	e9 00 00 00 00	 jmp	 ___CxxFrameHandler3
text$x	ENDS
?Clone@ioDamageConvertBuff@@UAEPAVioBuff@@XZ ENDP	; ioDamageConvertBuff::Clone
END
