; Listing generated by Microsoft (R) Optimizing Compiler Version 16.00.30319.01 

	TITLE	D:\Lost Saga For Developer\Youtube\Tutorial\Source\src\LSClient\ioDefenseController.cpp
	.686P
	.XMM
	include listing.inc
	.model	flat

INCLUDELIB MSVCRT
INCLUDELIB OLDNAMES

PUBLIC	?_EEM_DS@?$deque@UD3DXVECTOR3@@V?$allocator@UD3DXVECTOR3@@@std@@@std@@2HB ; std::deque<D3DXVECTOR3,std::allocator<D3DXVECTOR3> >::_EEM_DS
;	COMDAT ?_EEM_DS@?$deque@UD3DXVECTOR3@@V?$allocator@UD3DXVECTOR3@@@std@@@std@@2HB
CONST	SEGMENT
?_EEM_DS@?$deque@UD3DXVECTOR3@@V?$allocator@UD3DXVECTOR3@@@std@@@std@@2HB DD 01H ; std::deque<D3DXVECTOR3,std::allocator<D3DXVECTOR3> >::_EEM_DS
CONST	ENDS
PUBLIC	??0DefenseData@ioDefenseController@@QAE@XZ	; ioDefenseController::DefenseData::DefenseData
; Function compile flags: /Ogsp
; File d:\lost saga for developer\youtube\tutorial\source\src\lsclient\iodefensecontroller.h
;	COMDAT ??0DefenseData@ioDefenseController@@QAE@XZ
_TEXT	SEGMENT
??0DefenseData@ioDefenseController@@QAE@XZ PROC		; ioDefenseController::DefenseData::DefenseData, COMDAT
; _this$ = ecx

; 11   : 		DefenseData()

  00000	8b c1		 mov	 eax, ecx

; 12   : 		{
; 13   : 			m_wKeyData = 0;

  00002	33 c9		 xor	 ecx, ecx

; 14   : 			m_dwDelayTime = 0;

  00004	21 48 04	 and	 DWORD PTR [eax+4], ecx
  00007	66 89 08	 mov	 WORD PTR [eax], cx

; 15   : 		}

  0000a	c3		 ret	 0
??0DefenseData@ioDefenseController@@QAE@XZ ENDP		; ioDefenseController::DefenseData::DefenseData
_TEXT	ENDS
PUBLIC	?return1@@YAIXZ					; return1
; Function compile flags: /Ogsp
; File d:\lost saga for developer\youtube\tutorial\source\src\lsclient\stdafx.h
;	COMDAT ?return1@@YAIXZ
_TEXT	SEGMENT
?return1@@YAIXZ PROC					; return1, COMDAT

; 17   : 	__forceinline unsigned int return1() { __asm mov eax, 1 };

  00000	b8 01 00 00 00	 mov	 eax, 1
  00005	c3		 ret	 0
?return1@@YAIXZ ENDP					; return1
_TEXT	ENDS
PUBLIC	?return8@@YAIXZ					; return8
; Function compile flags: /Ogsp
;	COMDAT ?return8@@YAIXZ
_TEXT	SEGMENT
?return8@@YAIXZ PROC					; return8, COMDAT

; 19   : 	__forceinline unsigned int return8() { __asm mov eax, 8 };

  00000	b8 08 00 00 00	 mov	 eax, 8
  00005	c3		 ret	 0
?return8@@YAIXZ ENDP					; return8
_TEXT	ENDS
PUBLIC	?return10@@YAIXZ				; return10
; Function compile flags: /Ogsp
;	COMDAT ?return10@@YAIXZ
_TEXT	SEGMENT
?return10@@YAIXZ PROC					; return10, COMDAT

; 21   : 	__forceinline unsigned int return10() { __asm mov eax, 10 };

  00000	b8 0a 00 00 00	 mov	 eax, 10			; 0000000aH
  00005	c3		 ret	 0
?return10@@YAIXZ ENDP					; return10
_TEXT	ENDS
PUBLIC	?return100@@YAIXZ				; return100
; Function compile flags: /Ogsp
;	COMDAT ?return100@@YAIXZ
_TEXT	SEGMENT
?return100@@YAIXZ PROC					; return100, COMDAT

; 25   : 	__forceinline unsigned int return100() { __asm mov eax, 100 };

  00000	b8 64 00 00 00	 mov	 eax, 100		; 00000064H
  00005	c3		 ret	 0
?return100@@YAIXZ ENDP					; return100
_TEXT	ENDS
PUBLIC	?return500@@YAIXZ				; return500
; Function compile flags: /Ogsp
;	COMDAT ?return500@@YAIXZ
_TEXT	SEGMENT
?return500@@YAIXZ PROC					; return500, COMDAT

; 28   : 	__forceinline unsigned int return500() { __asm mov eax, 500 };

  00000	b8 f4 01 00 00	 mov	 eax, 500		; 000001f4H
  00005	c3		 ret	 0
?return500@@YAIXZ ENDP					; return500
_TEXT	ENDS
PUBLIC	_fabsf
EXTRN	__fltused:DWORD
; Function compile flags: /Ogsp
; File c:\program files (x86)\microsoft visual studio 10.0\vc\include\math.h
;	COMDAT _fabsf
_TEXT	SEGMENT
tv129 = 8						; size = 4
__X$ = 8						; size = 4
_fabsf	PROC						; COMDAT

; 395  :         {return ((float)fabs((double)_X)); }

  00000	55		 push	 ebp
  00001	8b ec		 mov	 ebp, esp
  00003	d9 45 08	 fld	 DWORD PTR __X$[ebp]
  00006	d9 e1		 fabs
  00008	d9 5d 08	 fstp	 DWORD PTR tv129[ebp]
  0000b	d9 45 08	 fld	 DWORD PTR tv129[ebp]
  0000e	5d		 pop	 ebp
  0000f	c3		 ret	 0
_fabsf	ENDP
_TEXT	ENDS
PUBLIC	_acosf
EXTRN	__CIacos:PROC
; Function compile flags: /Ogsp
;	COMDAT _acosf
_TEXT	SEGMENT
tv69 = 8						; size = 4
__X$ = 8						; size = 4
_acosf	PROC						; COMDAT

; 400  :         {return ((float)acos((double)_X)); }

  00000	55		 push	 ebp
  00001	8b ec		 mov	 ebp, esp
  00003	d9 45 08	 fld	 DWORD PTR __X$[ebp]
  00006	e8 00 00 00 00	 call	 __CIacos
  0000b	d9 5d 08	 fstp	 DWORD PTR tv69[ebp]
  0000e	d9 45 08	 fld	 DWORD PTR tv69[ebp]
  00011	5d		 pop	 ebp
  00012	c3		 ret	 0
_acosf	ENDP
_TEXT	ENDS
PUBLIC	?GetMoveDir@ioBaseChar@@QBEABUD3DXVECTOR3@@XZ	; ioBaseChar::GetMoveDir
; Function compile flags: /Ogsp
; File d:\lost saga for developer\youtube\tutorial\source\src\lsclient\iobasechar.h
;	COMDAT ?GetMoveDir@ioBaseChar@@QBEABUD3DXVECTOR3@@XZ
_TEXT	SEGMENT
?GetMoveDir@ioBaseChar@@QBEABUD3DXVECTOR3@@XZ PROC	; ioBaseChar::GetMoveDir, COMDAT
; _this$ = ecx

; 2596 : 	inline const D3DXVECTOR3& GetMoveDir() const { return m_vMoveDir; }

  00000	8d 81 b4 06 00
	00		 lea	 eax, DWORD PTR [ecx+1716]
  00006	c3		 ret	 0
?GetMoveDir@ioBaseChar@@QBEABUD3DXVECTOR3@@XZ ENDP	; ioBaseChar::GetMoveDir
_TEXT	ENDS
PUBLIC	?GetTargetRot@ioBaseChar@@QBEABUD3DXQUATERNION@@XZ ; ioBaseChar::GetTargetRot
; Function compile flags: /Ogsp
;	COMDAT ?GetTargetRot@ioBaseChar@@QBEABUD3DXQUATERNION@@XZ
_TEXT	SEGMENT
?GetTargetRot@ioBaseChar@@QBEABUD3DXQUATERNION@@XZ PROC	; ioBaseChar::GetTargetRot, COMDAT
; _this$ = ecx

; 2599 : 	inline const D3DXQUATERNION& GetTargetRot() const { return m_qtTargetRot; }

  00000	8d 81 a4 06 00
	00		 lea	 eax, DWORD PTR [ecx+1700]
  00006	c3		 ret	 0
?GetTargetRot@ioBaseChar@@QBEABUD3DXQUATERNION@@XZ ENDP	; ioBaseChar::GetTargetRot
_TEXT	ENDS
PUBLIC	?acos@@YAMM@Z					; acos
; Function compile flags: /Ogsp
; File c:\program files (x86)\microsoft visual studio 10.0\vc\include\math.h
;	COMDAT ?acos@@YAMM@Z
_TEXT	SEGMENT
tv73 = 8						; size = 4
__X$ = 8						; size = 4
?acos@@YAMM@Z PROC					; acos, COMDAT

; 502  :         {return (acosf(_X)); }

  00000	55		 push	 ebp
  00001	8b ec		 mov	 ebp, esp
  00003	d9 45 08	 fld	 DWORD PTR __X$[ebp]
  00006	e8 00 00 00 00	 call	 __CIacos
  0000b	d9 5d 08	 fstp	 DWORD PTR tv73[ebp]
  0000e	d9 45 08	 fld	 DWORD PTR tv73[ebp]
  00011	5d		 pop	 ebp
  00012	c3		 ret	 0
?acos@@YAMM@Z ENDP					; acos
_TEXT	ENDS
PUBLIC	?fabs@@YAMM@Z					; fabs
; Function compile flags: /Ogsp
;	COMDAT ?fabs@@YAMM@Z
_TEXT	SEGMENT
tv131 = 8						; size = 4
__X$ = 8						; size = 4
?fabs@@YAMM@Z PROC					; fabs, COMDAT

; 518  :         {return (fabsf(_X)); }

  00000	55		 push	 ebp
  00001	8b ec		 mov	 ebp, esp
  00003	d9 45 08	 fld	 DWORD PTR __X$[ebp]
  00006	d9 e1		 fabs
  00008	d9 5d 08	 fstp	 DWORD PTR tv131[ebp]
  0000b	d9 45 08	 fld	 DWORD PTR tv131[ebp]
  0000e	5d		 pop	 ebp
  0000f	c3		 ret	 0
?fabs@@YAMM@Z ENDP					; fabs
_TEXT	ENDS
PUBLIC	??_7bad_alloc@std@@6B@				; std::bad_alloc::`vftable'
PUBLIC	??0bad_alloc@std@@QAE@PBD@Z			; std::bad_alloc::bad_alloc
PUBLIC	??_R4bad_alloc@std@@6B@				; std::bad_alloc::`RTTI Complete Object Locator'
PUBLIC	??_R0?AVbad_alloc@std@@@8			; std::bad_alloc `RTTI Type Descriptor'
PUBLIC	??_R3bad_alloc@std@@8				; std::bad_alloc::`RTTI Class Hierarchy Descriptor'
PUBLIC	??_R2bad_alloc@std@@8				; std::bad_alloc::`RTTI Base Class Array'
PUBLIC	??_R1A@?0A@EA@bad_alloc@std@@8			; std::bad_alloc::`RTTI Base Class Descriptor at (0,-1,0,64)'
PUBLIC	??_R1A@?0A@EA@exception@std@@8			; std::exception::`RTTI Base Class Descriptor at (0,-1,0,64)'
PUBLIC	??_R0?AVexception@std@@@8			; std::exception `RTTI Type Descriptor'
PUBLIC	??_R3exception@std@@8				; std::exception::`RTTI Class Hierarchy Descriptor'
PUBLIC	??_R2exception@std@@8				; std::exception::`RTTI Base Class Array'
EXTRN	__imp_??0exception@std@@QAE@ABQBD@Z:PROC
EXTRN	??_7type_info@@6B@:QWORD			; type_info::`vftable'
EXTRN	??_Ebad_alloc@std@@UAEPAXI@Z:PROC		; std::bad_alloc::`vector deleting destructor'
EXTRN	?what@exception@std@@UBEPBDXZ:PROC		; std::exception::what
;	COMDAT ??_R2exception@std@@8
; File c:\program files (x86)\microsoft visual studio 10.0\vc\include\exception
rdata$r	SEGMENT
??_R2exception@std@@8 DD FLAT:??_R1A@?0A@EA@exception@std@@8 ; std::exception::`RTTI Base Class Array'
rdata$r	ENDS
;	COMDAT ??_R3exception@std@@8
rdata$r	SEGMENT
??_R3exception@std@@8 DD 00H				; std::exception::`RTTI Class Hierarchy Descriptor'
	DD	00H
	DD	01H
	DD	FLAT:??_R2exception@std@@8
rdata$r	ENDS
;	COMDAT ??_R0?AVexception@std@@@8
_DATA	SEGMENT
??_R0?AVexception@std@@@8 DD FLAT:??_7type_info@@6B@	; std::exception `RTTI Type Descriptor'
	DD	00H
	DB	'.?AVexception@std@@', 00H
_DATA	ENDS
;	COMDAT ??_R1A@?0A@EA@exception@std@@8
rdata$r	SEGMENT
??_R1A@?0A@EA@exception@std@@8 DD FLAT:??_R0?AVexception@std@@@8 ; std::exception::`RTTI Base Class Descriptor at (0,-1,0,64)'
	DD	00H
	DD	00H
	DD	0ffffffffH
	DD	00H
	DD	040H
	DD	FLAT:??_R3exception@std@@8
rdata$r	ENDS
;	COMDAT ??_R1A@?0A@EA@bad_alloc@std@@8
rdata$r	SEGMENT
??_R1A@?0A@EA@bad_alloc@std@@8 DD FLAT:??_R0?AVbad_alloc@std@@@8 ; std::bad_alloc::`RTTI Base Class Descriptor at (0,-1,0,64)'
	DD	01H
	DD	00H
	DD	0ffffffffH
	DD	00H
	DD	040H
	DD	FLAT:??_R3bad_alloc@std@@8
rdata$r	ENDS
;	COMDAT ??_R2bad_alloc@std@@8
rdata$r	SEGMENT
??_R2bad_alloc@std@@8 DD FLAT:??_R1A@?0A@EA@bad_alloc@std@@8 ; std::bad_alloc::`RTTI Base Class Array'
	DD	FLAT:??_R1A@?0A@EA@exception@std@@8
rdata$r	ENDS
;	COMDAT ??_R3bad_alloc@std@@8
rdata$r	SEGMENT
??_R3bad_alloc@std@@8 DD 00H				; std::bad_alloc::`RTTI Class Hierarchy Descriptor'
	DD	00H
	DD	02H
	DD	FLAT:??_R2bad_alloc@std@@8
rdata$r	ENDS
;	COMDAT ??_R0?AVbad_alloc@std@@@8
_DATA	SEGMENT
??_R0?AVbad_alloc@std@@@8 DD FLAT:??_7type_info@@6B@	; std::bad_alloc `RTTI Type Descriptor'
	DD	00H
	DB	'.?AVbad_alloc@std@@', 00H
_DATA	ENDS
;	COMDAT ??_R4bad_alloc@std@@6B@
rdata$r	SEGMENT
??_R4bad_alloc@std@@6B@ DD 00H				; std::bad_alloc::`RTTI Complete Object Locator'
	DD	00H
	DD	00H
	DD	FLAT:??_R0?AVbad_alloc@std@@@8
	DD	FLAT:??_R3bad_alloc@std@@8
rdata$r	ENDS
;	COMDAT ??_7bad_alloc@std@@6B@
CONST	SEGMENT
??_7bad_alloc@std@@6B@ DD FLAT:??_R4bad_alloc@std@@6B@	; std::bad_alloc::`vftable'
	DD	FLAT:??_Ebad_alloc@std@@UAEPAXI@Z
	DD	FLAT:?what@exception@std@@UBEPBDXZ
; Function compile flags: /Ogsp
CONST	ENDS
;	COMDAT ??0bad_alloc@std@@QAE@PBD@Z
_TEXT	SEGMENT
__Message$ = 8						; size = 4
??0bad_alloc@std@@QAE@PBD@Z PROC			; std::bad_alloc::bad_alloc, COMDAT
; _this$ = ecx

; 345  : 		{	// construct from message string

  00000	55		 push	 ebp
  00001	8b ec		 mov	 ebp, esp
  00003	56		 push	 esi
  00004	8d 45 08	 lea	 eax, DWORD PTR __Message$[ebp]
  00007	50		 push	 eax
  00008	8b f1		 mov	 esi, ecx
  0000a	ff 15 00 00 00
	00		 call	 DWORD PTR __imp_??0exception@std@@QAE@ABQBD@Z
  00010	c7 06 00 00 00
	00		 mov	 DWORD PTR [esi], OFFSET ??_7bad_alloc@std@@6B@

; 346  : 		}

  00016	8b c6		 mov	 eax, esi
  00018	5e		 pop	 esi
  00019	5d		 pop	 ebp
  0001a	c2 04 00	 ret	 4
??0bad_alloc@std@@QAE@PBD@Z ENDP			; std::bad_alloc::bad_alloc
_TEXT	ENDS
PUBLIC	??1bad_alloc@std@@UAE@XZ			; std::bad_alloc::~bad_alloc
EXTRN	__imp_??1exception@std@@UAE@XZ:PROC
; Function compile flags: /Ogsp
;	COMDAT ??1bad_alloc@std@@UAE@XZ
_TEXT	SEGMENT
??1bad_alloc@std@@UAE@XZ PROC				; std::bad_alloc::~bad_alloc, COMDAT
; _this$ = ecx

; 354  : 		{	// destroy the object

  00000	c7 01 00 00 00
	00		 mov	 DWORD PTR [ecx], OFFSET ??_7bad_alloc@std@@6B@

; 355  : 		}

  00006	ff 25 00 00 00
	00		 jmp	 DWORD PTR __imp_??1exception@std@@UAE@XZ
??1bad_alloc@std@@UAE@XZ ENDP				; std::bad_alloc::~bad_alloc
_TEXT	ENDS
EXTRN	??3@YAXPAX@Z:PROC				; operator delete
; Function compile flags: /Ogsp
;	COMDAT ??_Gbad_alloc@std@@UAEPAXI@Z
_TEXT	SEGMENT
___flags$ = 8						; size = 4
??_Gbad_alloc@std@@UAEPAXI@Z PROC			; std::bad_alloc::`scalar deleting destructor', COMDAT
; _this$ = ecx
  00000	55		 push	 ebp
  00001	8b ec		 mov	 ebp, esp
  00003	56		 push	 esi
  00004	8b f1		 mov	 esi, ecx
  00006	c7 06 00 00 00
	00		 mov	 DWORD PTR [esi], OFFSET ??_7bad_alloc@std@@6B@
  0000c	ff 15 00 00 00
	00		 call	 DWORD PTR __imp_??1exception@std@@UAE@XZ
  00012	f6 45 08 01	 test	 BYTE PTR ___flags$[ebp], 1
  00016	74 07		 je	 SHORT $LN1@scalar
  00018	56		 push	 esi
  00019	e8 00 00 00 00	 call	 ??3@YAXPAX@Z		; operator delete
  0001e	59		 pop	 ecx
$LN1@scalar:
  0001f	8b c6		 mov	 eax, esi
  00021	5e		 pop	 esi
  00022	5d		 pop	 ebp
  00023	c2 04 00	 ret	 4
??_Gbad_alloc@std@@UAEPAXI@Z ENDP			; std::bad_alloc::`scalar deleting destructor'
_TEXT	ENDS
PUBLIC	??2@YAPAXIPAX@Z					; operator new
; Function compile flags: /Ogsp
; File c:\program files (x86)\microsoft visual studio 10.0\vc\include\new
;	COMDAT ??2@YAPAXIPAX@Z
_TEXT	SEGMENT
___formal$ = 8						; size = 4
__Where$ = 12						; size = 4
??2@YAPAXIPAX@Z PROC					; operator new, COMDAT

; 56   : 	{	// construct array with placement at _Where

  00000	55		 push	 ebp
  00001	8b ec		 mov	 ebp, esp

; 57   : 	return (_Where);

  00003	8b 45 0c	 mov	 eax, DWORD PTR __Where$[ebp]

; 58   : 	}

  00006	5d		 pop	 ebp
  00007	c3		 ret	 0
??2@YAPAXIPAX@Z ENDP					; operator new
_TEXT	ENDS
PUBLIC	??3@YAXPAX0@Z					; operator delete
; Function compile flags: /Ogsp
;	COMDAT ??3@YAXPAX0@Z
_TEXT	SEGMENT
___formal$ = 8						; size = 4
___formal$ = 12						; size = 4
??3@YAXPAX0@Z PROC					; operator delete, COMDAT

; 62   : 	}

  00000	c3		 ret	 0
??3@YAXPAX0@Z ENDP					; operator delete
_TEXT	ENDS
PUBLIC	?length@?$char_traits@D@std@@SAIPBD@Z		; std::char_traits<char>::length
; Function compile flags: /Ogsp
; File c:\program files (x86)\microsoft visual studio 10.0\vc\include\iosfwd
;	COMDAT ?length@?$char_traits@D@std@@SAIPBD@Z
_TEXT	SEGMENT
__First$ = 8						; size = 4
?length@?$char_traits@D@std@@SAIPBD@Z PROC		; std::char_traits<char>::length, COMDAT

; 490  : 		{	// find length of null-terminated string

  00000	55		 push	 ebp
  00001	8b ec		 mov	 ebp, esp

; 491  : 		return (_CSTD strlen(_First));

  00003	8b 45 08	 mov	 eax, DWORD PTR __First$[ebp]
  00006	8d 50 01	 lea	 edx, DWORD PTR [eax+1]
$LL3@length:
  00009	8a 08		 mov	 cl, BYTE PTR [eax]
  0000b	40		 inc	 eax
  0000c	84 c9		 test	 cl, cl
  0000e	75 f9		 jne	 SHORT $LL3@length
  00010	2b c2		 sub	 eax, edx

; 492  : 		}

  00012	5d		 pop	 ebp
  00013	c3		 ret	 0
?length@?$char_traits@D@std@@SAIPBD@Z ENDP		; std::char_traits<char>::length
_TEXT	ENDS
PUBLIC	?copy@?$char_traits@D@std@@SAPADPADPBDI@Z	; std::char_traits<char>::copy
EXTRN	_memcpy:PROC
; Function compile flags: /Ogsp
;	COMDAT ?copy@?$char_traits@D@std@@SAPADPADPBDI@Z
_TEXT	SEGMENT
__First1$ = 8						; size = 4
__First2$ = 12						; size = 4
__Count$ = 16						; size = 4
?copy@?$char_traits@D@std@@SAPADPADPBDI@Z PROC		; std::char_traits<char>::copy, COMDAT

; 496  : 		{	// copy [_First1, _First1 + _Count) to [_First2, ...)

  00000	55		 push	 ebp
  00001	8b ec		 mov	 ebp, esp

; 498  : 		}

  00003	5d		 pop	 ebp

; 497  : 		return ((_Elem *)_CSTD memcpy(_First1, _First2, _Count));

  00004	e9 00 00 00 00	 jmp	 _memcpy
?copy@?$char_traits@D@std@@SAPADPADPBDI@Z ENDP		; std::char_traits<char>::copy
_TEXT	ENDS
PUBLIC	?move@?$char_traits@D@std@@SAPADPADPBDI@Z	; std::char_traits<char>::move
EXTRN	__imp__memmove:PROC
; Function compile flags: /Ogsp
;	COMDAT ?move@?$char_traits@D@std@@SAPADPADPBDI@Z
_TEXT	SEGMENT
__First1$ = 8						; size = 4
__First2$ = 12						; size = 4
__Count$ = 16						; size = 4
?move@?$char_traits@D@std@@SAPADPADPBDI@Z PROC		; std::char_traits<char>::move, COMDAT

; 516  : 		{	// copy [_First1, _First1 + _Count) to [_First2, ...)

  00000	55		 push	 ebp
  00001	8b ec		 mov	 ebp, esp

; 518  : 		}

  00003	5d		 pop	 ebp

; 517  : 		return ((_Elem *)_CSTD memmove(_First1, _First2, _Count));

  00004	ff 25 00 00 00
	00		 jmp	 DWORD PTR __imp__memmove
?move@?$char_traits@D@std@@SAPADPADPBDI@Z ENDP		; std::char_traits<char>::move
_TEXT	ENDS
PUBLIC	?assign@?$char_traits@D@std@@SAXAADABD@Z	; std::char_traits<char>::assign
; Function compile flags: /Ogsp
;	COMDAT ?assign@?$char_traits@D@std@@SAXAADABD@Z
_TEXT	SEGMENT
__Left$ = 8						; size = 4
__Right$ = 12						; size = 4
?assign@?$char_traits@D@std@@SAXAADABD@Z PROC		; std::char_traits<char>::assign, COMDAT

; 526  : 		{	// assign an element

  00000	55		 push	 ebp
  00001	8b ec		 mov	 ebp, esp

; 527  : 		_Left = _Right;

  00003	8b 45 0c	 mov	 eax, DWORD PTR __Right$[ebp]
  00006	8a 00		 mov	 al, BYTE PTR [eax]
  00008	8b 4d 08	 mov	 ecx, DWORD PTR __Left$[ebp]
  0000b	88 01		 mov	 BYTE PTR [ecx], al

; 528  : 		}

  0000d	5d		 pop	 ebp
  0000e	c3		 ret	 0
?assign@?$char_traits@D@std@@SAXAADABD@Z ENDP		; std::char_traits<char>::assign
_TEXT	ENDS
PUBLIC	?_Adopt@_Iterator_base0@std@@QAEXPBX@Z		; std::_Iterator_base0::_Adopt
; Function compile flags: /Ogsp
; File c:\program files (x86)\microsoft visual studio 10.0\vc\include\xutility
;	COMDAT ?_Adopt@_Iterator_base0@std@@QAEXPBX@Z
_TEXT	SEGMENT
___formal$ = 8						; size = 4
?_Adopt@_Iterator_base0@std@@QAEXPBX@Z PROC		; std::_Iterator_base0::_Adopt, COMDAT
; _this$ = ecx

; 49   : 		}

  00000	c2 04 00	 ret	 4
?_Adopt@_Iterator_base0@std@@QAEXPBX@Z ENDP		; std::_Iterator_base0::_Adopt
_TEXT	ENDS
PUBLIC	?empty@?$vector@KV?$allocator@K@std@@@std@@QBE_NXZ ; std::vector<unsigned long,std::allocator<unsigned long> >::empty
; Function compile flags: /Ogsp
; File c:\program files (x86)\microsoft visual studio 10.0\vc\include\vector
;	COMDAT ?empty@?$vector@KV?$allocator@K@std@@@std@@QBE_NXZ
_TEXT	SEGMENT
?empty@?$vector@KV?$allocator@K@std@@@std@@QBE_NXZ PROC	; std::vector<unsigned long,std::allocator<unsigned long> >::empty, COMDAT
; _this$ = ecx

; 889  : 		return (this->_Myfirst == this->_Mylast);

  00000	8b 01		 mov	 eax, DWORD PTR [ecx]
  00002	2b 41 04	 sub	 eax, DWORD PTR [ecx+4]
  00005	f7 d8		 neg	 eax
  00007	1b c0		 sbb	 eax, eax
  00009	40		 inc	 eax

; 890  : 		}

  0000a	c3		 ret	 0
?empty@?$vector@KV?$allocator@K@std@@@std@@QBE_NXZ ENDP	; std::vector<unsigned long,std::allocator<unsigned long> >::empty
_TEXT	ENDS
PUBLIC	?size@?$vector@UDefenseData@ioDefenseController@@V?$allocator@UDefenseData@ioDefenseController@@@std@@@std@@QBEIXZ ; std::vector<ioDefenseController::DefenseData,std::allocator<ioDefenseController::DefenseData> >::size
; Function compile flags: /Ogsp
;	COMDAT ?size@?$vector@UDefenseData@ioDefenseController@@V?$allocator@UDefenseData@ioDefenseController@@@std@@@std@@QBEIXZ
_TEXT	SEGMENT
?size@?$vector@UDefenseData@ioDefenseController@@V?$allocator@UDefenseData@ioDefenseController@@@std@@@std@@QBEIXZ PROC ; std::vector<ioDefenseController::DefenseData,std::allocator<ioDefenseController::DefenseData> >::size, COMDAT
; _this$ = ecx

; 879  : 		return (this->_Mylast - this->_Myfirst);

  00000	8b 41 04	 mov	 eax, DWORD PTR [ecx+4]
  00003	2b 01		 sub	 eax, DWORD PTR [ecx]
  00005	c1 f8 03	 sar	 eax, 3

; 880  : 		}

  00008	c3		 ret	 0
?size@?$vector@UDefenseData@ioDefenseController@@V?$allocator@UDefenseData@ioDefenseController@@@std@@@std@@QBEIXZ ENDP ; std::vector<ioDefenseController::DefenseData,std::allocator<ioDefenseController::DefenseData> >::size
_TEXT	ENDS
PUBLIC	?empty@?$vector@UDefenseData@ioDefenseController@@V?$allocator@UDefenseData@ioDefenseController@@@std@@@std@@QBE_NXZ ; std::vector<ioDefenseController::DefenseData,std::allocator<ioDefenseController::DefenseData> >::empty
; Function compile flags: /Ogsp
;	COMDAT ?empty@?$vector@UDefenseData@ioDefenseController@@V?$allocator@UDefenseData@ioDefenseController@@@std@@@std@@QBE_NXZ
_TEXT	SEGMENT
?empty@?$vector@UDefenseData@ioDefenseController@@V?$allocator@UDefenseData@ioDefenseController@@@std@@@std@@QBE_NXZ PROC ; std::vector<ioDefenseController::DefenseData,std::allocator<ioDefenseController::DefenseData> >::empty, COMDAT
; _this$ = ecx

; 889  : 		return (this->_Myfirst == this->_Mylast);

  00000	8b 01		 mov	 eax, DWORD PTR [ecx]
  00002	2b 41 04	 sub	 eax, DWORD PTR [ecx+4]
  00005	f7 d8		 neg	 eax
  00007	1b c0		 sbb	 eax, eax
  00009	40		 inc	 eax

; 890  : 		}

  0000a	c3		 ret	 0
?empty@?$vector@UDefenseData@ioDefenseController@@V?$allocator@UDefenseData@ioDefenseController@@@std@@@std@@QBE_NXZ ENDP ; std::vector<ioDefenseController::DefenseData,std::allocator<ioDefenseController::DefenseData> >::empty
_TEXT	ENDS
PUBLIC	??A?$vector@UDefenseData@ioDefenseController@@V?$allocator@UDefenseData@ioDefenseController@@@std@@@std@@QAEAAUDefenseData@ioDefenseController@@I@Z ; std::vector<ioDefenseController::DefenseData,std::allocator<ioDefenseController::DefenseData> >::operator[]
; Function compile flags: /Ogsp
;	COMDAT ??A?$vector@UDefenseData@ioDefenseController@@V?$allocator@UDefenseData@ioDefenseController@@@std@@@std@@QAEAAUDefenseData@ioDefenseController@@I@Z
_TEXT	SEGMENT
__Pos$ = 8						; size = 4
??A?$vector@UDefenseData@ioDefenseController@@V?$allocator@UDefenseData@ioDefenseController@@@std@@@std@@QAEAAUDefenseData@ioDefenseController@@I@Z PROC ; std::vector<ioDefenseController::DefenseData,std::allocator<ioDefenseController::DefenseData> >::operator[], COMDAT
; _this$ = ecx

; 928  : 		{	// subscript mutable sequence

  00000	55		 push	 ebp
  00001	8b ec		 mov	 ebp, esp

; 929  :  #if _ITERATOR_DEBUG_LEVEL == 2
; 930  : 		if (size() <= _Pos)
; 931  : 			{	// report error
; 932  : 			_DEBUG_ERROR("vector subscript out of range");
; 933  : 			_SCL_SECURE_OUT_OF_RANGE;
; 934  : 			}
; 935  : 
; 936  :  #elif _ITERATOR_DEBUG_LEVEL == 1
; 937  : 		_SCL_SECURE_VALIDATE_RANGE(_Pos < size());
; 938  :  #endif /* _ITERATOR_DEBUG_LEVEL */
; 939  : 
; 940  : 		return (*(this->_Myfirst + _Pos));

  00003	8b 01		 mov	 eax, DWORD PTR [ecx]
  00005	8b 4d 08	 mov	 ecx, DWORD PTR __Pos$[ebp]
  00008	8d 04 c8	 lea	 eax, DWORD PTR [eax+ecx*8]

; 941  : 		}

  0000b	5d		 pop	 ebp
  0000c	c2 04 00	 ret	 4
??A?$vector@UDefenseData@ioDefenseController@@V?$allocator@UDefenseData@ioDefenseController@@@std@@@std@@QAEAAUDefenseData@ioDefenseController@@I@Z ENDP ; std::vector<ioDefenseController::DefenseData,std::allocator<ioDefenseController::DefenseData> >::operator[]
_TEXT	ENDS
PUBLIC	??R?$less@K@std@@QBE_NABK0@Z			; std::less<unsigned long>::operator()
; Function compile flags: /Ogsp
; File c:\program files (x86)\microsoft visual studio 10.0\vc\include\xfunctional
;	COMDAT ??R?$less@K@std@@QBE_NABK0@Z
_TEXT	SEGMENT
__Left$ = 8						; size = 4
__Right$ = 12						; size = 4
??R?$less@K@std@@QBE_NABK0@Z PROC			; std::less<unsigned long>::operator(), COMDAT
; _this$ = ecx

; 124  : 		{	// apply operator< to operands

  00000	55		 push	 ebp
  00001	8b ec		 mov	 ebp, esp

; 125  : 		return (_Left < _Right);

  00003	8b 45 08	 mov	 eax, DWORD PTR __Left$[ebp]
  00006	8b 00		 mov	 eax, DWORD PTR [eax]
  00008	8b 4d 0c	 mov	 ecx, DWORD PTR __Right$[ebp]
  0000b	3b 01		 cmp	 eax, DWORD PTR [ecx]
  0000d	1b c0		 sbb	 eax, eax
  0000f	f7 d8		 neg	 eax

; 126  : 		}

  00011	5d		 pop	 ebp
  00012	c2 08 00	 ret	 8
??R?$less@K@std@@QBE_NABK0@Z ENDP			; std::less<unsigned long>::operator()
_TEXT	ENDS
PUBLIC	?size@?$vector@V?$basic_string@DU?$char_traits@D@std@@V?$allocator@D@2@@std@@V?$allocator@V?$basic_string@DU?$char_traits@D@std@@V?$allocator@D@2@@std@@@2@@std@@QBEIXZ ; std::vector<std::basic_string<char,std::char_traits<char>,std::allocator<char> >,std::allocator<std::basic_string<char,std::char_traits<char>,std::allocator<char> > > >::size
; Function compile flags: /Ogsp
; File c:\program files (x86)\microsoft visual studio 10.0\vc\include\vector
;	COMDAT ?size@?$vector@V?$basic_string@DU?$char_traits@D@std@@V?$allocator@D@2@@std@@V?$allocator@V?$basic_string@DU?$char_traits@D@std@@V?$allocator@D@2@@std@@@2@@std@@QBEIXZ
_TEXT	SEGMENT
?size@?$vector@V?$basic_string@DU?$char_traits@D@std@@V?$allocator@D@2@@std@@V?$allocator@V?$basic_string@DU?$char_traits@D@std@@V?$allocator@D@2@@std@@@2@@std@@QBEIXZ PROC ; std::vector<std::basic_string<char,std::char_traits<char>,std::allocator<char> >,std::allocator<std::basic_string<char,std::char_traits<char>,std::allocator<char> > > >::size, COMDAT
; _this$ = ecx

; 879  : 		return (this->_Mylast - this->_Myfirst);

  00000	8b 41 04	 mov	 eax, DWORD PTR [ecx+4]
  00003	2b 01		 sub	 eax, DWORD PTR [ecx]
  00005	6a 1c		 push	 28			; 0000001cH
  00007	99		 cdq
  00008	59		 pop	 ecx
  00009	f7 f9		 idiv	 ecx

; 880  : 		}

  0000b	c3		 ret	 0
?size@?$vector@V?$basic_string@DU?$char_traits@D@std@@V?$allocator@D@2@@std@@V?$allocator@V?$basic_string@DU?$char_traits@D@std@@V?$allocator@D@2@@std@@@2@@std@@QBEIXZ ENDP ; std::vector<std::basic_string<char,std::char_traits<char>,std::allocator<char> >,std::allocator<std::basic_string<char,std::char_traits<char>,std::allocator<char> > > >::size
_TEXT	ENDS
PUBLIC	??0?$allocator@V?$basic_string@DU?$char_traits@D@std@@V?$allocator@D@2@@std@@@std@@QAE@ABV01@@Z ; std::allocator<std::basic_string<char,std::char_traits<char>,std::allocator<char> > >::allocator<std::basic_string<char,std::char_traits<char>,std::allocator<char> > >
; Function compile flags: /Ogsp
; File c:\program files (x86)\microsoft visual studio 10.0\vc\include\xmemory
;	COMDAT ??0?$allocator@V?$basic_string@DU?$char_traits@D@std@@V?$allocator@D@2@@std@@@std@@QAE@ABV01@@Z
_TEXT	SEGMENT
___formal$ = 8						; size = 4
??0?$allocator@V?$basic_string@DU?$char_traits@D@std@@V?$allocator@D@2@@std@@@std@@QAE@ABV01@@Z PROC ; std::allocator<std::basic_string<char,std::char_traits<char>,std::allocator<char> > >::allocator<std::basic_string<char,std::char_traits<char>,std::allocator<char> > >, COMDAT
; _this$ = ecx

; 165  : 	_ALLOCATOR(const _ALLOCATOR<_Ty>&) _THROW0()

  00000	8b c1		 mov	 eax, ecx

; 166  : 		{	// construct by copying (do nothing)
; 167  : 		}

  00002	c2 04 00	 ret	 4
??0?$allocator@V?$basic_string@DU?$char_traits@D@std@@V?$allocator@D@2@@std@@@std@@QAE@ABV01@@Z ENDP ; std::allocator<std::basic_string<char,std::char_traits<char>,std::allocator<char> > >::allocator<std::basic_string<char,std::char_traits<char>,std::allocator<char> > >
_TEXT	ENDS
PUBLIC	??D?$_Vector_const_iterator@V?$_Vector_val@KV?$allocator@K@std@@@std@@@std@@QBEABKXZ ; std::_Vector_const_iterator<std::_Vector_val<unsigned long,std::allocator<unsigned long> > >::operator*
; Function compile flags: /Ogsp
; File c:\program files (x86)\microsoft visual studio 10.0\vc\include\vector
;	COMDAT ??D?$_Vector_const_iterator@V?$_Vector_val@KV?$allocator@K@std@@@std@@@std@@QBEABKXZ
_TEXT	SEGMENT
??D?$_Vector_const_iterator@V?$_Vector_val@KV?$allocator@K@std@@@std@@@std@@QBEABKXZ PROC ; std::_Vector_const_iterator<std::_Vector_val<unsigned long,std::allocator<unsigned long> > >::operator*, COMDAT
; _this$ = ecx

; 64   :  #if _ITERATOR_DEBUG_LEVEL == 2
; 65   : 		if (this->_Getcont() == 0
; 66   : 			|| this->_Ptr == 0
; 67   : 			|| this->_Ptr < ((_Myvec *)this->_Getcont())->_Myfirst
; 68   : 			|| ((_Myvec *)this->_Getcont())->_Mylast <= this->_Ptr)
; 69   : 			{	// report error
; 70   : 			_DEBUG_ERROR("vector iterator not dereferencable");
; 71   : 			_SCL_SECURE_OUT_OF_RANGE;
; 72   : 			}
; 73   : 
; 74   :  #elif _ITERATOR_DEBUG_LEVEL == 1
; 75   : 		_SCL_SECURE_VALIDATE(this->_Getcont() != 0);
; 76   : 		_SCL_SECURE_VALIDATE_RANGE(
; 77   : 			this->_Ptr != 0
; 78   : 			&& ((_Myvec *)this->_Getcont())->_Myfirst <= this->_Ptr
; 79   : 			&& this->_Ptr < ((_Myvec *)this->_Getcont())->_Mylast);
; 80   :  #endif /* _ITERATOR_DEBUG_LEVEL */
; 81   : 
; 82   : 		__analysis_assume(this->_Ptr != 0);
; 83   : 
; 84   : 		return (*this->_Ptr);

  00000	8b 01		 mov	 eax, DWORD PTR [ecx]

; 85   : 		}

  00002	c3		 ret	 0
??D?$_Vector_const_iterator@V?$_Vector_val@KV?$allocator@K@std@@@std@@@std@@QBEABKXZ ENDP ; std::_Vector_const_iterator<std::_Vector_val<unsigned long,std::allocator<unsigned long> > >::operator*
_TEXT	ENDS
PUBLIC	?_Inside@?$vector@UDefenseData@ioDefenseController@@V?$allocator@UDefenseData@ioDefenseController@@@std@@@std@@IBE_NPBUDefenseData@ioDefenseController@@@Z ; std::vector<ioDefenseController::DefenseData,std::allocator<ioDefenseController::DefenseData> >::_Inside
; Function compile flags: /Ogsp
;	COMDAT ?_Inside@?$vector@UDefenseData@ioDefenseController@@V?$allocator@UDefenseData@ioDefenseController@@@std@@@std@@IBE_NPBUDefenseData@ioDefenseController@@@Z
_TEXT	SEGMENT
__Ptr$ = 8						; size = 4
?_Inside@?$vector@UDefenseData@ioDefenseController@@V?$allocator@UDefenseData@ioDefenseController@@@std@@@std@@IBE_NPBUDefenseData@ioDefenseController@@@Z PROC ; std::vector<ioDefenseController::DefenseData,std::allocator<ioDefenseController::DefenseData> >::_Inside, COMDAT
; _this$ = ecx

; 1285 : 		{	// test if _Ptr points inside vector

  00000	55		 push	 ebp
  00001	8b ec		 mov	 ebp, esp

; 1286 : 		return (_Ptr < this->_Mylast && this->_Myfirst <= _Ptr);

  00003	8b 45 08	 mov	 eax, DWORD PTR __Ptr$[ebp]
  00006	3b 41 04	 cmp	 eax, DWORD PTR [ecx+4]
  00009	73 09		 jae	 SHORT $LN3@Inside
  0000b	39 01		 cmp	 DWORD PTR [ecx], eax
  0000d	77 05		 ja	 SHORT $LN3@Inside
  0000f	33 c0		 xor	 eax, eax
  00011	40		 inc	 eax
  00012	eb 02		 jmp	 SHORT $LN4@Inside
$LN3@Inside:
  00014	33 c0		 xor	 eax, eax
$LN4@Inside:

; 1287 : 		}

  00016	5d		 pop	 ebp
  00017	c2 04 00	 ret	 4
?_Inside@?$vector@UDefenseData@ioDefenseController@@V?$allocator@UDefenseData@ioDefenseController@@@std@@@std@@IBE_NPBUDefenseData@ioDefenseController@@@Z ENDP ; std::vector<ioDefenseController::DefenseData,std::allocator<ioDefenseController::DefenseData> >::_Inside
_TEXT	ENDS
PUBLIC	?_Orphan_range@?$vector@UDefenseData@ioDefenseController@@V?$allocator@UDefenseData@ioDefenseController@@@std@@@std@@IBEXPAUDefenseData@ioDefenseController@@0@Z ; std::vector<ioDefenseController::DefenseData,std::allocator<ioDefenseController::DefenseData> >::_Orphan_range
; Function compile flags: /Ogsp
;	COMDAT ?_Orphan_range@?$vector@UDefenseData@ioDefenseController@@V?$allocator@UDefenseData@ioDefenseController@@@std@@@std@@IBEXPAUDefenseData@ioDefenseController@@0@Z
_TEXT	SEGMENT
___formal$ = 8						; size = 4
___formal$ = 12						; size = 4
?_Orphan_range@?$vector@UDefenseData@ioDefenseController@@V?$allocator@UDefenseData@ioDefenseController@@@std@@@std@@IBEXPAUDefenseData@ioDefenseController@@0@Z PROC ; std::vector<ioDefenseController::DefenseData,std::allocator<ioDefenseController::DefenseData> >::_Orphan_range, COMDAT
; _this$ = ecx

; 1454 : 		}

  00000	c2 08 00	 ret	 8
?_Orphan_range@?$vector@UDefenseData@ioDefenseController@@V?$allocator@UDefenseData@ioDefenseController@@@std@@@std@@IBEXPAUDefenseData@ioDefenseController@@0@Z ENDP ; std::vector<ioDefenseController::DefenseData,std::allocator<ioDefenseController::DefenseData> >::_Orphan_range
_TEXT	ENDS
PUBLIC	??1?$_Vector_val@UDefenseData@ioDefenseController@@V?$allocator@UDefenseData@ioDefenseController@@@std@@@std@@QAE@XZ ; std::_Vector_val<ioDefenseController::DefenseData,std::allocator<ioDefenseController::DefenseData> >::~_Vector_val<ioDefenseController::DefenseData,std::allocator<ioDefenseController::DefenseData> >
; Function compile flags: /Ogsp
;	COMDAT ??1?$_Vector_val@UDefenseData@ioDefenseController@@V?$allocator@UDefenseData@ioDefenseController@@@std@@@std@@QAE@XZ
_TEXT	SEGMENT
??1?$_Vector_val@UDefenseData@ioDefenseController@@V?$allocator@UDefenseData@ioDefenseController@@@std@@@std@@QAE@XZ PROC ; std::_Vector_val<ioDefenseController::DefenseData,std::allocator<ioDefenseController::DefenseData> >::~_Vector_val<ioDefenseController::DefenseData,std::allocator<ioDefenseController::DefenseData> >, COMDAT
; _this$ = ecx

; 434  : 		}

  00000	c3		 ret	 0
??1?$_Vector_val@UDefenseData@ioDefenseController@@V?$allocator@UDefenseData@ioDefenseController@@@std@@@std@@QAE@XZ ENDP ; std::_Vector_val<ioDefenseController::DefenseData,std::allocator<ioDefenseController::DefenseData> >::~_Vector_val<ioDefenseController::DefenseData,std::allocator<ioDefenseController::DefenseData> >
_TEXT	ENDS
PUBLIC	??0?$allocator@UDefenseData@ioDefenseController@@@std@@QAE@XZ ; std::allocator<ioDefenseController::DefenseData>::allocator<ioDefenseController::DefenseData>
; Function compile flags: /Ogsp
; File c:\program files (x86)\microsoft visual studio 10.0\vc\include\xmemory
;	COMDAT ??0?$allocator@UDefenseData@ioDefenseController@@@std@@QAE@XZ
_TEXT	SEGMENT
??0?$allocator@UDefenseData@ioDefenseController@@@std@@QAE@XZ PROC ; std::allocator<ioDefenseController::DefenseData>::allocator<ioDefenseController::DefenseData>, COMDAT
; _this$ = ecx

; 161  : 	_ALLOCATOR() _THROW0()

  00000	8b c1		 mov	 eax, ecx

; 162  : 		{	// construct default allocator (do nothing)
; 163  : 		}

  00002	c3		 ret	 0
??0?$allocator@UDefenseData@ioDefenseController@@@std@@QAE@XZ ENDP ; std::allocator<ioDefenseController::DefenseData>::allocator<ioDefenseController::DefenseData>
_TEXT	ENDS
PUBLIC	?size@?$_Tree@V?$_Tmap_traits@KUDefenseList@ioDefenseController@@U?$less@K@std@@V?$allocator@U?$pair@$$CBKUDefenseList@ioDefenseController@@@std@@@4@$0A@@std@@@std@@QBEIXZ ; std::_Tree<std::_Tmap_traits<unsigned long,ioDefenseController::DefenseList,std::less<unsigned long>,std::allocator<std::pair<unsigned long const ,ioDefenseController::DefenseList> >,0> >::size
; Function compile flags: /Ogsp
; File c:\program files (x86)\microsoft visual studio 10.0\vc\include\xtree
;	COMDAT ?size@?$_Tree@V?$_Tmap_traits@KUDefenseList@ioDefenseController@@U?$less@K@std@@V?$allocator@U?$pair@$$CBKUDefenseList@ioDefenseController@@@std@@@4@$0A@@std@@@std@@QBEIXZ
_TEXT	SEGMENT
?size@?$_Tree@V?$_Tmap_traits@KUDefenseList@ioDefenseController@@U?$less@K@std@@V?$allocator@U?$pair@$$CBKUDefenseList@ioDefenseController@@@std@@@4@$0A@@std@@@std@@QBEIXZ PROC ; std::_Tree<std::_Tmap_traits<unsigned long,ioDefenseController::DefenseList,std::less<unsigned long>,std::allocator<std::pair<unsigned long const ,ioDefenseController::DefenseList> >,0> >::size, COMDAT
; _this$ = ecx

; 869  : 		return (this->_Mysize);

  00000	8b 41 08	 mov	 eax, DWORD PTR [ecx+8]

; 870  : 		}

  00003	c3		 ret	 0
?size@?$_Tree@V?$_Tmap_traits@KUDefenseList@ioDefenseController@@U?$less@K@std@@V?$allocator@U?$pair@$$CBKUDefenseList@ioDefenseController@@@std@@@4@$0A@@std@@@std@@QBEIXZ ENDP ; std::_Tree<std::_Tmap_traits<unsigned long,ioDefenseController::DefenseList,std::less<unsigned long>,std::allocator<std::pair<unsigned long const ,ioDefenseController::DefenseList> >,0> >::size
_TEXT	ENDS
PUBLIC	??0?$allocator@U?$pair@$$CBKUDefenseList@ioDefenseController@@@std@@@std@@QAE@XZ ; std::allocator<std::pair<unsigned long const ,ioDefenseController::DefenseList> >::allocator<std::pair<unsigned long const ,ioDefenseController::DefenseList> >
; Function compile flags: /Ogsp
; File c:\program files (x86)\microsoft visual studio 10.0\vc\include\xmemory
;	COMDAT ??0?$allocator@U?$pair@$$CBKUDefenseList@ioDefenseController@@@std@@@std@@QAE@XZ
_TEXT	SEGMENT
??0?$allocator@U?$pair@$$CBKUDefenseList@ioDefenseController@@@std@@@std@@QAE@XZ PROC ; std::allocator<std::pair<unsigned long const ,ioDefenseController::DefenseList> >::allocator<std::pair<unsigned long const ,ioDefenseController::DefenseList> >, COMDAT
; _this$ = ecx

; 161  : 	_ALLOCATOR() _THROW0()

  00000	8b c1		 mov	 eax, ecx

; 162  : 		{	// construct default allocator (do nothing)
; 163  : 		}

  00002	c3		 ret	 0
??0?$allocator@U?$pair@$$CBKUDefenseList@ioDefenseController@@@std@@@std@@QAE@XZ ENDP ; std::allocator<std::pair<unsigned long const ,ioDefenseController::DefenseList> >::allocator<std::pair<unsigned long const ,ioDefenseController::DefenseList> >
_TEXT	ENDS
PUBLIC	??8?$_Tree_const_iterator@V?$_Tree_val@V?$_Tmap_traits@KUDefenseList@ioDefenseController@@U?$less@K@std@@V?$allocator@U?$pair@$$CBKUDefenseList@ioDefenseController@@@std@@@4@$0A@@std@@@std@@@std@@QBE_NABV01@@Z ; std::_Tree_const_iterator<std::_Tree_val<std::_Tmap_traits<unsigned long,ioDefenseController::DefenseList,std::less<unsigned long>,std::allocator<std::pair<unsigned long const ,ioDefenseController::DefenseList> >,0> > >::operator==
; Function compile flags: /Ogsp
; File c:\program files (x86)\microsoft visual studio 10.0\vc\include\xtree
;	COMDAT ??8?$_Tree_const_iterator@V?$_Tree_val@V?$_Tmap_traits@KUDefenseList@ioDefenseController@@U?$less@K@std@@V?$allocator@U?$pair@$$CBKUDefenseList@ioDefenseController@@@std@@@4@$0A@@std@@@std@@@std@@QBE_NABV01@@Z
_TEXT	SEGMENT
__Right$ = 8						; size = 4
??8?$_Tree_const_iterator@V?$_Tree_val@V?$_Tmap_traits@KUDefenseList@ioDefenseController@@U?$less@K@std@@V?$allocator@U?$pair@$$CBKUDefenseList@ioDefenseController@@@std@@@4@$0A@@std@@@std@@@std@@QBE_NABV01@@Z PROC ; std::_Tree_const_iterator<std::_Tree_val<std::_Tmap_traits<unsigned long,ioDefenseController::DefenseList,std::less<unsigned long>,std::allocator<std::pair<unsigned long const ,ioDefenseController::DefenseList> >,0> > >::operator==, COMDAT
; _this$ = ecx

; 316  : 		{	// test for iterator equality

  00000	55		 push	 ebp
  00001	8b ec		 mov	 ebp, esp

; 317  :  #if _ITERATOR_DEBUG_LEVEL == 2
; 318  : 		if (this->_Getcont() == 0
; 319  : 			|| this->_Getcont() != _Right._Getcont())
; 320  : 			{	// report error
; 321  : 			_DEBUG_ERROR("map/set iterators incompatible");
; 322  : 			_SCL_SECURE_INVALID_ARGUMENT;
; 323  : 			}
; 324  : 
; 325  :  #elif _ITERATOR_DEBUG_LEVEL == 1
; 326  : 		_SCL_SECURE_VALIDATE(this->_Getcont() != 0
; 327  : 			&& this->_Getcont() == _Right._Getcont());
; 328  :  #endif /* _ITERATOR_DEBUG_LEVEL */
; 329  : 
; 330  : 		return (this->_Ptr == _Right._Ptr);

  00003	8b 01		 mov	 eax, DWORD PTR [ecx]
  00005	8b 4d 08	 mov	 ecx, DWORD PTR __Right$[ebp]
  00008	2b 01		 sub	 eax, DWORD PTR [ecx]
  0000a	f7 d8		 neg	 eax
  0000c	1b c0		 sbb	 eax, eax
  0000e	40		 inc	 eax

; 331  : 		}

  0000f	5d		 pop	 ebp
  00010	c2 04 00	 ret	 4
??8?$_Tree_const_iterator@V?$_Tree_val@V?$_Tmap_traits@KUDefenseList@ioDefenseController@@U?$less@K@std@@V?$allocator@U?$pair@$$CBKUDefenseList@ioDefenseController@@@std@@@4@$0A@@std@@@std@@@std@@QBE_NABV01@@Z ENDP ; std::_Tree_const_iterator<std::_Tree_val<std::_Tmap_traits<unsigned long,ioDefenseController::DefenseList,std::less<unsigned long>,std::allocator<std::pair<unsigned long const ,ioDefenseController::DefenseList> >,0> > >::operator==
_TEXT	ENDS
PUBLIC	?_Mynode@?$_Tree_unchecked_const_iterator@V?$_Tree_val@V?$_Tmap_traits@KUDefenseList@ioDefenseController@@U?$less@K@std@@V?$allocator@U?$pair@$$CBKUDefenseList@ioDefenseController@@@std@@@4@$0A@@std@@@std@@U_Iterator_base0@2@@std@@QBEPAU_Node@?$_Tree_nod@V?$_Tmap_traits@KUDefenseList@ioDefenseController@@U?$less@K@std@@V?$allocator@U?$pair@$$CBKUDefenseList@ioDefenseController@@@std@@@4@$0A@@std@@@2@XZ ; std::_Tree_unchecked_const_iterator<std::_Tree_val<std::_Tmap_traits<unsigned long,ioDefenseController::DefenseList,std::less<unsigned long>,std::allocator<std::pair<unsigned long const ,ioDefenseController::DefenseList> >,0> >,std::_Iterator_base0>::_Mynode
; Function compile flags: /Ogsp
;	COMDAT ?_Mynode@?$_Tree_unchecked_const_iterator@V?$_Tree_val@V?$_Tmap_traits@KUDefenseList@ioDefenseController@@U?$less@K@std@@V?$allocator@U?$pair@$$CBKUDefenseList@ioDefenseController@@@std@@@4@$0A@@std@@@std@@U_Iterator_base0@2@@std@@QBEPAU_Node@?$_Tree_nod@V?$_Tmap_traits@KUDefenseList@ioDefenseController@@U?$less@K@std@@V?$allocator@U?$pair@$$CBKUDefenseList@ioDefenseController@@@std@@@4@$0A@@std@@@2@XZ
_TEXT	SEGMENT
?_Mynode@?$_Tree_unchecked_const_iterator@V?$_Tree_val@V?$_Tmap_traits@KUDefenseList@ioDefenseController@@U?$less@K@std@@V?$allocator@U?$pair@$$CBKUDefenseList@ioDefenseController@@@std@@@4@$0A@@std@@@std@@U_Iterator_base0@2@@std@@QBEPAU_Node@?$_Tree_nod@V?$_Tmap_traits@KUDefenseList@ioDefenseController@@U?$less@K@std@@V?$allocator@U?$pair@$$CBKUDefenseList@ioDefenseController@@@std@@@4@$0A@@std@@@2@XZ PROC ; std::_Tree_unchecked_const_iterator<std::_Tree_val<std::_Tmap_traits<unsigned long,ioDefenseController::DefenseList,std::less<unsigned long>,std::allocator<std::pair<unsigned long const ,ioDefenseController::DefenseList> >,0> >,std::_Iterator_base0>::_Mynode, COMDAT
; _this$ = ecx

; 122  : 		return (_Ptr);

  00000	8b 01		 mov	 eax, DWORD PTR [ecx]

; 123  : 		}

  00002	c3		 ret	 0
?_Mynode@?$_Tree_unchecked_const_iterator@V?$_Tree_val@V?$_Tmap_traits@KUDefenseList@ioDefenseController@@U?$less@K@std@@V?$allocator@U?$pair@$$CBKUDefenseList@ioDefenseController@@@std@@@4@$0A@@std@@@std@@U_Iterator_base0@2@@std@@QBEPAU_Node@?$_Tree_nod@V?$_Tmap_traits@KUDefenseList@ioDefenseController@@U?$less@K@std@@V?$allocator@U?$pair@$$CBKUDefenseList@ioDefenseController@@@std@@@4@$0A@@std@@@2@XZ ENDP ; std::_Tree_unchecked_const_iterator<std::_Tree_val<std::_Tmap_traits<unsigned long,ioDefenseController::DefenseList,std::less<unsigned long>,std::allocator<std::pair<unsigned long const ,ioDefenseController::DefenseList> >,0> >,std::_Iterator_base0>::_Mynode
_TEXT	ENDS
PUBLIC	??0?$_Vector_const_iterator@V?$_Vector_val@V?$basic_string@DU?$char_traits@D@std@@V?$allocator@D@2@@std@@V?$allocator@V?$basic_string@DU?$char_traits@D@std@@V?$allocator@D@2@@std@@@2@@std@@@std@@QAE@XZ ; std::_Vector_const_iterator<std::_Vector_val<std::basic_string<char,std::char_traits<char>,std::allocator<char> >,std::allocator<std::basic_string<char,std::char_traits<char>,std::allocator<char> > > > >::_Vector_const_iterator<std::_Vector_val<std::basic_string<char,std::char_traits<char>,std::allocator<char> >,std::allocator<std::basic_string<char,std::char_traits<char>,std::allocator<char> > > > >
; Function compile flags: /Ogsp
; File c:\program files (x86)\microsoft visual studio 10.0\vc\include\vector
;	COMDAT ??0?$_Vector_const_iterator@V?$_Vector_val@V?$basic_string@DU?$char_traits@D@std@@V?$allocator@D@2@@std@@V?$allocator@V?$basic_string@DU?$char_traits@D@std@@V?$allocator@D@2@@std@@@2@@std@@@std@@QAE@XZ
_TEXT	SEGMENT
??0?$_Vector_const_iterator@V?$_Vector_val@V?$basic_string@DU?$char_traits@D@std@@V?$allocator@D@2@@std@@V?$allocator@V?$basic_string@DU?$char_traits@D@std@@V?$allocator@D@2@@std@@@2@@std@@@std@@QAE@XZ PROC ; std::_Vector_const_iterator<std::_Vector_val<std::basic_string<char,std::char_traits<char>,std::allocator<char> >,std::allocator<std::basic_string<char,std::char_traits<char>,std::allocator<char> > > > >::_Vector_const_iterator<std::_Vector_val<std::basic_string<char,std::char_traits<char>,std::allocator<char> >,std::allocator<std::basic_string<char,std::char_traits<char>,std::allocator<char> > > > >, COMDAT
; _this$ = ecx

; 40   : 		{	// construct with null pointer

  00000	8b c1		 mov	 eax, ecx
  00002	83 20 00	 and	 DWORD PTR [eax], 0

; 41   : 		}

  00005	c3		 ret	 0
??0?$_Vector_const_iterator@V?$_Vector_val@V?$basic_string@DU?$char_traits@D@std@@V?$allocator@D@2@@std@@V?$allocator@V?$basic_string@DU?$char_traits@D@std@@V?$allocator@D@2@@std@@@2@@std@@@std@@QAE@XZ ENDP ; std::_Vector_const_iterator<std::_Vector_val<std::basic_string<char,std::char_traits<char>,std::allocator<char> >,std::allocator<std::basic_string<char,std::char_traits<char>,std::allocator<char> > > > >::_Vector_const_iterator<std::_Vector_val<std::basic_string<char,std::char_traits<char>,std::allocator<char> >,std::allocator<std::basic_string<char,std::char_traits<char>,std::allocator<char> > > > >
_TEXT	ENDS
PUBLIC	??E?$_Vector_const_iterator@V?$_Vector_val@V?$basic_string@DU?$char_traits@D@std@@V?$allocator@D@2@@std@@V?$allocator@V?$basic_string@DU?$char_traits@D@std@@V?$allocator@D@2@@std@@@2@@std@@@std@@QAEAAV01@XZ ; std::_Vector_const_iterator<std::_Vector_val<std::basic_string<char,std::char_traits<char>,std::allocator<char> >,std::allocator<std::basic_string<char,std::char_traits<char>,std::allocator<char> > > > >::operator++
; Function compile flags: /Ogsp
;	COMDAT ??E?$_Vector_const_iterator@V?$_Vector_val@V?$basic_string@DU?$char_traits@D@std@@V?$allocator@D@2@@std@@V?$allocator@V?$basic_string@DU?$char_traits@D@std@@V?$allocator@D@2@@std@@@2@@std@@@std@@QAEAAV01@XZ
_TEXT	SEGMENT
??E?$_Vector_const_iterator@V?$_Vector_val@V?$basic_string@DU?$char_traits@D@std@@V?$allocator@D@2@@std@@V?$allocator@V?$basic_string@DU?$char_traits@D@std@@V?$allocator@D@2@@std@@@2@@std@@@std@@QAEAAV01@XZ PROC ; std::_Vector_const_iterator<std::_Vector_val<std::basic_string<char,std::char_traits<char>,std::allocator<char> >,std::allocator<std::basic_string<char,std::char_traits<char>,std::allocator<char> > > > >::operator++, COMDAT
; _this$ = ecx

; 93   : 		{	// preincrement

  00000	8b c1		 mov	 eax, ecx

; 94   :  #if _ITERATOR_DEBUG_LEVEL == 2
; 95   : 		if (this->_Getcont() == 0
; 96   : 			|| this->_Ptr == 0
; 97   : 			|| ((_Myvec *)this->_Getcont())->_Mylast <= this->_Ptr)
; 98   : 			{	// report error
; 99   : 			_DEBUG_ERROR("vector iterator not incrementable");
; 100  : 			_SCL_SECURE_OUT_OF_RANGE;
; 101  : 			}
; 102  : 
; 103  :  #elif _ITERATOR_DEBUG_LEVEL == 1
; 104  : 		_SCL_SECURE_VALIDATE(this->_Getcont() != 0);
; 105  : 		_SCL_SECURE_VALIDATE_RANGE(
; 106  : 			this->_Ptr != 0
; 107  : 			&& this->_Ptr < ((_Myvec *)this->_Getcont())->_Mylast);
; 108  :  #endif /* _ITERATOR_DEBUG_LEVEL */
; 109  : 
; 110  : 		++this->_Ptr;

  00002	83 00 1c	 add	 DWORD PTR [eax], 28	; 0000001cH

; 111  : 		return (*this);
; 112  : 		}

  00005	c3		 ret	 0
??E?$_Vector_const_iterator@V?$_Vector_val@V?$basic_string@DU?$char_traits@D@std@@V?$allocator@D@2@@std@@V?$allocator@V?$basic_string@DU?$char_traits@D@std@@V?$allocator@D@2@@std@@@2@@std@@@std@@QAEAAV01@XZ ENDP ; std::_Vector_const_iterator<std::_Vector_val<std::basic_string<char,std::char_traits<char>,std::allocator<char> >,std::allocator<std::basic_string<char,std::char_traits<char>,std::allocator<char> > > > >::operator++
_TEXT	ENDS
PUBLIC	??_C@_0BD@OLBABOEK@vector?$DMT?$DO?5too?5long?$AA@ ; `string'
PUBLIC	?_Xlen@?$vector@V?$basic_string@DU?$char_traits@D@std@@V?$allocator@D@2@@std@@V?$allocator@V?$basic_string@DU?$char_traits@D@std@@V?$allocator@D@2@@std@@@2@@std@@IBEXXZ ; std::vector<std::basic_string<char,std::char_traits<char>,std::allocator<char> >,std::allocator<std::basic_string<char,std::char_traits<char>,std::allocator<char> > > >::_Xlen
EXTRN	__imp_?_Xlength_error@std@@YAXPBD@Z:PROC
;	COMDAT ??_C@_0BD@OLBABOEK@vector?$DMT?$DO?5too?5long?$AA@
CONST	SEGMENT
??_C@_0BD@OLBABOEK@vector?$DMT?$DO?5too?5long?$AA@ DB 'vector<T> too long'
	DB	00H						; `string'
; Function compile flags: /Ogsp
CONST	ENDS
;	COMDAT ?_Xlen@?$vector@V?$basic_string@DU?$char_traits@D@std@@V?$allocator@D@2@@std@@V?$allocator@V?$basic_string@DU?$char_traits@D@std@@V?$allocator@D@2@@std@@@2@@std@@IBEXXZ
_TEXT	SEGMENT
?_Xlen@?$vector@V?$basic_string@DU?$char_traits@D@std@@V?$allocator@D@2@@std@@V?$allocator@V?$basic_string@DU?$char_traits@D@std@@V?$allocator@D@2@@std@@@2@@std@@IBEXXZ PROC ; std::vector<std::basic_string<char,std::char_traits<char>,std::allocator<char> >,std::allocator<std::basic_string<char,std::char_traits<char>,std::allocator<char> > > >::_Xlen, COMDAT
; _this$ = ecx

; 1427 : 		_Xlength_error("vector<T> too long");

  00000	68 00 00 00 00	 push	 OFFSET ??_C@_0BD@OLBABOEK@vector?$DMT?$DO?5too?5long?$AA@
  00005	ff 15 00 00 00
	00		 call	 DWORD PTR __imp_?_Xlength_error@std@@YAXPBD@Z
$LN4@Xlen:
$LN3@Xlen:
  0000b	cc		 int	 3
?_Xlen@?$vector@V?$basic_string@DU?$char_traits@D@std@@V?$allocator@D@2@@std@@V?$allocator@V?$basic_string@DU?$char_traits@D@std@@V?$allocator@D@2@@std@@@2@@std@@IBEXXZ ENDP ; std::vector<std::basic_string<char,std::char_traits<char>,std::allocator<char> >,std::allocator<std::basic_string<char,std::char_traits<char>,std::allocator<char> > > >::_Xlen
_TEXT	ENDS
PUBLIC	??E?$_Vector_const_iterator@V?$_Vector_val@KV?$allocator@K@std@@@std@@@std@@QAEAAV01@XZ ; std::_Vector_const_iterator<std::_Vector_val<unsigned long,std::allocator<unsigned long> > >::operator++
; Function compile flags: /Ogsp
;	COMDAT ??E?$_Vector_const_iterator@V?$_Vector_val@KV?$allocator@K@std@@@std@@@std@@QAEAAV01@XZ
_TEXT	SEGMENT
??E?$_Vector_const_iterator@V?$_Vector_val@KV?$allocator@K@std@@@std@@@std@@QAEAAV01@XZ PROC ; std::_Vector_const_iterator<std::_Vector_val<unsigned long,std::allocator<unsigned long> > >::operator++, COMDAT
; _this$ = ecx

; 93   : 		{	// preincrement

  00000	8b c1		 mov	 eax, ecx

; 94   :  #if _ITERATOR_DEBUG_LEVEL == 2
; 95   : 		if (this->_Getcont() == 0
; 96   : 			|| this->_Ptr == 0
; 97   : 			|| ((_Myvec *)this->_Getcont())->_Mylast <= this->_Ptr)
; 98   : 			{	// report error
; 99   : 			_DEBUG_ERROR("vector iterator not incrementable");
; 100  : 			_SCL_SECURE_OUT_OF_RANGE;
; 101  : 			}
; 102  : 
; 103  :  #elif _ITERATOR_DEBUG_LEVEL == 1
; 104  : 		_SCL_SECURE_VALIDATE(this->_Getcont() != 0);
; 105  : 		_SCL_SECURE_VALIDATE_RANGE(
; 106  : 			this->_Ptr != 0
; 107  : 			&& this->_Ptr < ((_Myvec *)this->_Getcont())->_Mylast);
; 108  :  #endif /* _ITERATOR_DEBUG_LEVEL */
; 109  : 
; 110  : 		++this->_Ptr;

  00002	83 00 04	 add	 DWORD PTR [eax], 4

; 111  : 		return (*this);
; 112  : 		}

  00005	c3		 ret	 0
??E?$_Vector_const_iterator@V?$_Vector_val@KV?$allocator@K@std@@@std@@@std@@QAEAAV01@XZ ENDP ; std::_Vector_const_iterator<std::_Vector_val<unsigned long,std::allocator<unsigned long> > >::operator++
_TEXT	ENDS
PUBLIC	?capacity@?$vector@UDefenseData@ioDefenseController@@V?$allocator@UDefenseData@ioDefenseController@@@std@@@std@@QBEIXZ ; std::vector<ioDefenseController::DefenseData,std::allocator<ioDefenseController::DefenseData> >::capacity
; Function compile flags: /Ogsp
;	COMDAT ?capacity@?$vector@UDefenseData@ioDefenseController@@V?$allocator@UDefenseData@ioDefenseController@@@std@@@std@@QBEIXZ
_TEXT	SEGMENT
?capacity@?$vector@UDefenseData@ioDefenseController@@V?$allocator@UDefenseData@ioDefenseController@@@std@@@std@@QBEIXZ PROC ; std::vector<ioDefenseController::DefenseData,std::allocator<ioDefenseController::DefenseData> >::capacity, COMDAT
; _this$ = ecx

; 777  : 		return (this->_Myend - this->_Myfirst);

  00000	8b 41 08	 mov	 eax, DWORD PTR [ecx+8]
  00003	2b 01		 sub	 eax, DWORD PTR [ecx]
  00005	c1 f8 03	 sar	 eax, 3

; 778  : 		}

  00008	c3		 ret	 0
?capacity@?$vector@UDefenseData@ioDefenseController@@V?$allocator@UDefenseData@ioDefenseController@@@std@@@std@@QBEIXZ ENDP ; std::vector<ioDefenseController::DefenseData,std::allocator<ioDefenseController::DefenseData> >::capacity
_TEXT	ENDS
PUBLIC	?_Xlen@?$vector@UDefenseData@ioDefenseController@@V?$allocator@UDefenseData@ioDefenseController@@@std@@@std@@IBEXXZ ; std::vector<ioDefenseController::DefenseData,std::allocator<ioDefenseController::DefenseData> >::_Xlen
; Function compile flags: /Ogsp
;	COMDAT ?_Xlen@?$vector@UDefenseData@ioDefenseController@@V?$allocator@UDefenseData@ioDefenseController@@@std@@@std@@IBEXXZ
_TEXT	SEGMENT
?_Xlen@?$vector@UDefenseData@ioDefenseController@@V?$allocator@UDefenseData@ioDefenseController@@@std@@@std@@IBEXXZ PROC ; std::vector<ioDefenseController::DefenseData,std::allocator<ioDefenseController::DefenseData> >::_Xlen, COMDAT
; _this$ = ecx

; 1427 : 		_Xlength_error("vector<T> too long");

  00000	68 00 00 00 00	 push	 OFFSET ??_C@_0BD@OLBABOEK@vector?$DMT?$DO?5too?5long?$AA@
  00005	ff 15 00 00 00
	00		 call	 DWORD PTR __imp_?_Xlength_error@std@@YAXPBD@Z
$LN4@Xlen@2:
$LN3@Xlen@2:
  0000b	cc		 int	 3
?_Xlen@?$vector@UDefenseData@ioDefenseController@@V?$allocator@UDefenseData@ioDefenseController@@@std@@@std@@IBEXXZ ENDP ; std::vector<ioDefenseController::DefenseData,std::allocator<ioDefenseController::DefenseData> >::_Xlen
_TEXT	ENDS
PUBLIC	??0?$allocator@UDefenseData@ioDefenseController@@@std@@QAE@ABV01@@Z ; std::allocator<ioDefenseController::DefenseData>::allocator<ioDefenseController::DefenseData>
; Function compile flags: /Ogsp
; File c:\program files (x86)\microsoft visual studio 10.0\vc\include\xmemory
;	COMDAT ??0?$allocator@UDefenseData@ioDefenseController@@@std@@QAE@ABV01@@Z
_TEXT	SEGMENT
___formal$ = 8						; size = 4
??0?$allocator@UDefenseData@ioDefenseController@@@std@@QAE@ABV01@@Z PROC ; std::allocator<ioDefenseController::DefenseData>::allocator<ioDefenseController::DefenseData>, COMDAT
; _this$ = ecx

; 165  : 	_ALLOCATOR(const _ALLOCATOR<_Ty>&) _THROW0()

  00000	8b c1		 mov	 eax, ecx

; 166  : 		{	// construct by copying (do nothing)
; 167  : 		}

  00002	c2 04 00	 ret	 4
??0?$allocator@UDefenseData@ioDefenseController@@@std@@QAE@ABV01@@Z ENDP ; std::allocator<ioDefenseController::DefenseData>::allocator<ioDefenseController::DefenseData>
_TEXT	ENDS
PUBLIC	?deallocate@?$allocator@UDefenseData@ioDefenseController@@@std@@QAEXPAUDefenseData@ioDefenseController@@I@Z ; std::allocator<ioDefenseController::DefenseData>::deallocate
; Function compile flags: /Ogsp
;	COMDAT ?deallocate@?$allocator@UDefenseData@ioDefenseController@@@std@@QAEXPAUDefenseData@ioDefenseController@@I@Z
_TEXT	SEGMENT
__Ptr$ = 8						; size = 4
___formal$ = 12						; size = 4
?deallocate@?$allocator@UDefenseData@ioDefenseController@@@std@@QAEXPAUDefenseData@ioDefenseController@@I@Z PROC ; std::allocator<ioDefenseController::DefenseData>::deallocate, COMDAT
; _this$ = ecx

; 181  : 		{	// deallocate object at _Ptr, ignore size

  00000	55		 push	 ebp
  00001	8b ec		 mov	 ebp, esp

; 182  : 		::operator delete(_Ptr);

  00003	ff 75 08	 push	 DWORD PTR __Ptr$[ebp]
  00006	e8 00 00 00 00	 call	 ??3@YAXPAX@Z		; operator delete
  0000b	59		 pop	 ecx

; 183  : 		}

  0000c	5d		 pop	 ebp
  0000d	c2 08 00	 ret	 8
?deallocate@?$allocator@UDefenseData@ioDefenseController@@@std@@QAEXPAUDefenseData@ioDefenseController@@I@Z ENDP ; std::allocator<ioDefenseController::DefenseData>::deallocate
_TEXT	ENDS
PUBLIC	?_Left@?$_Tree_val@V?$_Tmap_traits@KUDefenseList@ioDefenseController@@U?$less@K@std@@V?$allocator@U?$pair@$$CBKUDefenseList@ioDefenseController@@@std@@@4@$0A@@std@@@std@@SAAAPAU_Node@?$_Tree_nod@V?$_Tmap_traits@KUDefenseList@ioDefenseController@@U?$less@K@std@@V?$allocator@U?$pair@$$CBKUDefenseList@ioDefenseController@@@std@@@4@$0A@@std@@@2@PAU342@@Z ; std::_Tree_val<std::_Tmap_traits<unsigned long,ioDefenseController::DefenseList,std::less<unsigned long>,std::allocator<std::pair<unsigned long const ,ioDefenseController::DefenseList> >,0> >::_Left
; Function compile flags: /Ogsp
; File c:\program files (x86)\microsoft visual studio 10.0\vc\include\xtree
;	COMDAT ?_Left@?$_Tree_val@V?$_Tmap_traits@KUDefenseList@ioDefenseController@@U?$less@K@std@@V?$allocator@U?$pair@$$CBKUDefenseList@ioDefenseController@@@std@@@4@$0A@@std@@@std@@SAAAPAU_Node@?$_Tree_nod@V?$_Tmap_traits@KUDefenseList@ioDefenseController@@U?$less@K@std@@V?$allocator@U?$pair@$$CBKUDefenseList@ioDefenseController@@@std@@@4@$0A@@std@@@2@PAU342@@Z
_TEXT	SEGMENT
__Pnode$ = 8						; size = 4
?_Left@?$_Tree_val@V?$_Tmap_traits@KUDefenseList@ioDefenseController@@U?$less@K@std@@V?$allocator@U?$pair@$$CBKUDefenseList@ioDefenseController@@@std@@@4@$0A@@std@@@std@@SAAAPAU_Node@?$_Tree_nod@V?$_Tmap_traits@KUDefenseList@ioDefenseController@@U?$less@K@std@@V?$allocator@U?$pair@$$CBKUDefenseList@ioDefenseController@@@std@@@4@$0A@@std@@@2@PAU342@@Z PROC ; std::_Tree_val<std::_Tmap_traits<unsigned long,ioDefenseController::DefenseList,std::less<unsigned long>,std::allocator<std::pair<unsigned long const ,ioDefenseController::DefenseList> >,0> >::_Left, COMDAT

; 621  : 		{	// return reference to left pointer in node

  00000	55		 push	 ebp
  00001	8b ec		 mov	 ebp, esp

; 622  : 		return ((_Nodepref)(*_Pnode)._Left);

  00003	8b 45 08	 mov	 eax, DWORD PTR __Pnode$[ebp]

; 623  : 		}

  00006	5d		 pop	 ebp
  00007	c3		 ret	 0
?_Left@?$_Tree_val@V?$_Tmap_traits@KUDefenseList@ioDefenseController@@U?$less@K@std@@V?$allocator@U?$pair@$$CBKUDefenseList@ioDefenseController@@@std@@@4@$0A@@std@@@std@@SAAAPAU_Node@?$_Tree_nod@V?$_Tmap_traits@KUDefenseList@ioDefenseController@@U?$less@K@std@@V?$allocator@U?$pair@$$CBKUDefenseList@ioDefenseController@@@std@@@4@$0A@@std@@@2@PAU342@@Z ENDP ; std::_Tree_val<std::_Tmap_traits<unsigned long,ioDefenseController::DefenseList,std::less<unsigned long>,std::allocator<std::pair<unsigned long const ,ioDefenseController::DefenseList> >,0> >::_Left
_TEXT	ENDS
PUBLIC	?_Myval@?$_Tree_val@V?$_Tmap_traits@KUDefenseList@ioDefenseController@@U?$less@K@std@@V?$allocator@U?$pair@$$CBKUDefenseList@ioDefenseController@@@std@@@4@$0A@@std@@@std@@SAAAU?$pair@$$CBKUDefenseList@ioDefenseController@@@2@PAU_Node@?$_Tree_nod@V?$_Tmap_traits@KUDefenseList@ioDefenseController@@U?$less@K@std@@V?$allocator@U?$pair@$$CBKUDefenseList@ioDefenseController@@@std@@@4@$0A@@std@@@2@@Z ; std::_Tree_val<std::_Tmap_traits<unsigned long,ioDefenseController::DefenseList,std::less<unsigned long>,std::allocator<std::pair<unsigned long const ,ioDefenseController::DefenseList> >,0> >::_Myval
; Function compile flags: /Ogsp
;	COMDAT ?_Myval@?$_Tree_val@V?$_Tmap_traits@KUDefenseList@ioDefenseController@@U?$less@K@std@@V?$allocator@U?$pair@$$CBKUDefenseList@ioDefenseController@@@std@@@4@$0A@@std@@@std@@SAAAU?$pair@$$CBKUDefenseList@ioDefenseController@@@2@PAU_Node@?$_Tree_nod@V?$_Tmap_traits@KUDefenseList@ioDefenseController@@U?$less@K@std@@V?$allocator@U?$pair@$$CBKUDefenseList@ioDefenseController@@@std@@@4@$0A@@std@@@2@@Z
_TEXT	SEGMENT
__Pnode$ = 8						; size = 4
?_Myval@?$_Tree_val@V?$_Tmap_traits@KUDefenseList@ioDefenseController@@U?$less@K@std@@V?$allocator@U?$pair@$$CBKUDefenseList@ioDefenseController@@@std@@@4@$0A@@std@@@std@@SAAAU?$pair@$$CBKUDefenseList@ioDefenseController@@@2@PAU_Node@?$_Tree_nod@V?$_Tmap_traits@KUDefenseList@ioDefenseController@@U?$less@K@std@@V?$allocator@U?$pair@$$CBKUDefenseList@ioDefenseController@@@std@@@4@$0A@@std@@@2@@Z PROC ; std::_Tree_val<std::_Tmap_traits<unsigned long,ioDefenseController::DefenseList,std::less<unsigned long>,std::allocator<std::pair<unsigned long const ,ioDefenseController::DefenseList> >,0> >::_Myval, COMDAT

; 636  : 		{	// return reference to value in node

  00000	55		 push	 ebp
  00001	8b ec		 mov	 ebp, esp

; 637  : 		return ((reference)(*_Pnode)._Myval);

  00003	8b 45 08	 mov	 eax, DWORD PTR __Pnode$[ebp]
  00006	83 c0 0c	 add	 eax, 12			; 0000000cH

; 638  : 		}

  00009	5d		 pop	 ebp
  0000a	c3		 ret	 0
?_Myval@?$_Tree_val@V?$_Tmap_traits@KUDefenseList@ioDefenseController@@U?$less@K@std@@V?$allocator@U?$pair@$$CBKUDefenseList@ioDefenseController@@@std@@@4@$0A@@std@@@std@@SAAAU?$pair@$$CBKUDefenseList@ioDefenseController@@@2@PAU_Node@?$_Tree_nod@V?$_Tmap_traits@KUDefenseList@ioDefenseController@@U?$less@K@std@@V?$allocator@U?$pair@$$CBKUDefenseList@ioDefenseController@@@std@@@4@$0A@@std@@@2@@Z ENDP ; std::_Tree_val<std::_Tmap_traits<unsigned long,ioDefenseController::DefenseList,std::less<unsigned long>,std::allocator<std::pair<unsigned long const ,ioDefenseController::DefenseList> >,0> >::_Myval
_TEXT	ENDS
PUBLIC	??0?$allocator@U?$pair@$$CBKUDefenseList@ioDefenseController@@@std@@@std@@QAE@ABV01@@Z ; std::allocator<std::pair<unsigned long const ,ioDefenseController::DefenseList> >::allocator<std::pair<unsigned long const ,ioDefenseController::DefenseList> >
; Function compile flags: /Ogsp
; File c:\program files (x86)\microsoft visual studio 10.0\vc\include\xmemory
;	COMDAT ??0?$allocator@U?$pair@$$CBKUDefenseList@ioDefenseController@@@std@@@std@@QAE@ABV01@@Z
_TEXT	SEGMENT
___formal$ = 8						; size = 4
??0?$allocator@U?$pair@$$CBKUDefenseList@ioDefenseController@@@std@@@std@@QAE@ABV01@@Z PROC ; std::allocator<std::pair<unsigned long const ,ioDefenseController::DefenseList> >::allocator<std::pair<unsigned long const ,ioDefenseController::DefenseList> >, COMDAT
; _this$ = ecx

; 165  : 	_ALLOCATOR(const _ALLOCATOR<_Ty>&) _THROW0()

  00000	8b c1		 mov	 eax, ecx

; 166  : 		{	// construct by copying (do nothing)
; 167  : 		}

  00002	c2 04 00	 ret	 4
??0?$allocator@U?$pair@$$CBKUDefenseList@ioDefenseController@@@std@@@std@@QAE@ABV01@@Z ENDP ; std::allocator<std::pair<unsigned long const ,ioDefenseController::DefenseList> >::allocator<std::pair<unsigned long const ,ioDefenseController::DefenseList> >
_TEXT	ENDS
PUBLIC	?deallocate@?$allocator@U_Node@?$_Tree_nod@V?$_Tmap_traits@KUDefenseList@ioDefenseController@@U?$less@K@std@@V?$allocator@U?$pair@$$CBKUDefenseList@ioDefenseController@@@std@@@4@$0A@@std@@@std@@@std@@QAEXPAU_Node@?$_Tree_nod@V?$_Tmap_traits@KUDefenseList@ioDefenseController@@U?$less@K@std@@V?$allocator@U?$pair@$$CBKUDefenseList@ioDefenseController@@@std@@@4@$0A@@std@@@2@I@Z ; std::allocator<std::_Tree_nod<std::_Tmap_traits<unsigned long,ioDefenseController::DefenseList,std::less<unsigned long>,std::allocator<std::pair<unsigned long const ,ioDefenseController::DefenseList> >,0> >::_Node>::deallocate
; Function compile flags: /Ogsp
;	COMDAT ?deallocate@?$allocator@U_Node@?$_Tree_nod@V?$_Tmap_traits@KUDefenseList@ioDefenseController@@U?$less@K@std@@V?$allocator@U?$pair@$$CBKUDefenseList@ioDefenseController@@@std@@@4@$0A@@std@@@std@@@std@@QAEXPAU_Node@?$_Tree_nod@V?$_Tmap_traits@KUDefenseList@ioDefenseController@@U?$less@K@std@@V?$allocator@U?$pair@$$CBKUDefenseList@ioDefenseController@@@std@@@4@$0A@@std@@@2@I@Z
_TEXT	SEGMENT
__Ptr$ = 8						; size = 4
___formal$ = 12						; size = 4
?deallocate@?$allocator@U_Node@?$_Tree_nod@V?$_Tmap_traits@KUDefenseList@ioDefenseController@@U?$less@K@std@@V?$allocator@U?$pair@$$CBKUDefenseList@ioDefenseController@@@std@@@4@$0A@@std@@@std@@@std@@QAEXPAU_Node@?$_Tree_nod@V?$_Tmap_traits@KUDefenseList@ioDefenseController@@U?$less@K@std@@V?$allocator@U?$pair@$$CBKUDefenseList@ioDefenseController@@@std@@@4@$0A@@std@@@2@I@Z PROC ; std::allocator<std::_Tree_nod<std::_Tmap_traits<unsigned long,ioDefenseController::DefenseList,std::less<unsigned long>,std::allocator<std::pair<unsigned long const ,ioDefenseController::DefenseList> >,0> >::_Node>::deallocate, COMDAT
; _this$ = ecx

; 181  : 		{	// deallocate object at _Ptr, ignore size

  00000	55		 push	 ebp
  00001	8b ec		 mov	 ebp, esp

; 182  : 		::operator delete(_Ptr);

  00003	ff 75 08	 push	 DWORD PTR __Ptr$[ebp]
  00006	e8 00 00 00 00	 call	 ??3@YAXPAX@Z		; operator delete
  0000b	59		 pop	 ecx

; 183  : 		}

  0000c	5d		 pop	 ebp
  0000d	c2 08 00	 ret	 8
?deallocate@?$allocator@U_Node@?$_Tree_nod@V?$_Tmap_traits@KUDefenseList@ioDefenseController@@U?$less@K@std@@V?$allocator@U?$pair@$$CBKUDefenseList@ioDefenseController@@@std@@@4@$0A@@std@@@std@@@std@@QAEXPAU_Node@?$_Tree_nod@V?$_Tmap_traits@KUDefenseList@ioDefenseController@@U?$less@K@std@@V?$allocator@U?$pair@$$CBKUDefenseList@ioDefenseController@@@std@@@4@$0A@@std@@@2@I@Z ENDP ; std::allocator<std::_Tree_nod<std::_Tmap_traits<unsigned long,ioDefenseController::DefenseList,std::less<unsigned long>,std::allocator<std::pair<unsigned long const ,ioDefenseController::DefenseList> >,0> >::_Node>::deallocate
_TEXT	ENDS
PUBLIC	??D?$_Tree_const_iterator@V?$_Tree_val@V?$_Tmap_traits@KUDefenseList@ioDefenseController@@U?$less@K@std@@V?$allocator@U?$pair@$$CBKUDefenseList@ioDefenseController@@@std@@@4@$0A@@std@@@std@@@std@@QBEABU?$pair@$$CBKUDefenseList@ioDefenseController@@@1@XZ ; std::_Tree_const_iterator<std::_Tree_val<std::_Tmap_traits<unsigned long,ioDefenseController::DefenseList,std::less<unsigned long>,std::allocator<std::pair<unsigned long const ,ioDefenseController::DefenseList> >,0> > >::operator*
; Function compile flags: /Ogsp
; File c:\program files (x86)\microsoft visual studio 10.0\vc\include\xtree
;	COMDAT ??D?$_Tree_const_iterator@V?$_Tree_val@V?$_Tmap_traits@KUDefenseList@ioDefenseController@@U?$less@K@std@@V?$allocator@U?$pair@$$CBKUDefenseList@ioDefenseController@@@std@@@4@$0A@@std@@@std@@@std@@QBEABU?$pair@$$CBKUDefenseList@ioDefenseController@@@1@XZ
_TEXT	SEGMENT
??D?$_Tree_const_iterator@V?$_Tree_val@V?$_Tmap_traits@KUDefenseList@ioDefenseController@@U?$less@K@std@@V?$allocator@U?$pair@$$CBKUDefenseList@ioDefenseController@@@std@@@4@$0A@@std@@@std@@@std@@QBEABU?$pair@$$CBKUDefenseList@ioDefenseController@@@1@XZ PROC ; std::_Tree_const_iterator<std::_Tree_val<std::_Tmap_traits<unsigned long,ioDefenseController::DefenseList,std::less<unsigned long>,std::allocator<std::pair<unsigned long const ,ioDefenseController::DefenseList> >,0> > >::operator*, COMDAT
; _this$ = ecx

; 231  :  #if _ITERATOR_DEBUG_LEVEL == 2
; 232  : 		if (this->_Getcont() == 0
; 233  : 			|| this->_Ptr == 0
; 234  : 			|| this->_Ptr == ((_Mytree *)this->_Getcont())->_Myhead)
; 235  : 			{	// report error
; 236  : 			_DEBUG_ERROR("map/set iterator not dereferencable");
; 237  : 			_SCL_SECURE_OUT_OF_RANGE;
; 238  : 			}
; 239  : 
; 240  :  #elif _ITERATOR_DEBUG_LEVEL == 1
; 241  : 		_SCL_SECURE_VALIDATE(this->_Getcont() != 0 && this->_Ptr != 0);
; 242  : 		_SCL_SECURE_VALIDATE_RANGE(this->_Ptr !=
; 243  : 			((_Mytree *)this->_Getcont())->_Myhead);
; 244  :  #endif /* _ITERATOR_DEBUG_LEVEL */
; 245  : 
; 246  : 		return (_Mytree::_Myval(this->_Ptr));

  00000	8b 01		 mov	 eax, DWORD PTR [ecx]
  00002	83 c0 0c	 add	 eax, 12			; 0000000cH

; 247  : 		}

  00005	c3		 ret	 0
??D?$_Tree_const_iterator@V?$_Tree_val@V?$_Tmap_traits@KUDefenseList@ioDefenseController@@U?$less@K@std@@V?$allocator@U?$pair@$$CBKUDefenseList@ioDefenseController@@@std@@@4@$0A@@std@@@std@@@std@@QBEABU?$pair@$$CBKUDefenseList@ioDefenseController@@@1@XZ ENDP ; std::_Tree_const_iterator<std::_Tree_val<std::_Tmap_traits<unsigned long,ioDefenseController::DefenseList,std::less<unsigned long>,std::allocator<std::pair<unsigned long const ,ioDefenseController::DefenseList> >,0> > >::operator*
_TEXT	ENDS
PUBLIC	??0?$_Tree_unchecked_const_iterator@V?$_Tree_val@V?$_Tmap_traits@KUDefenseList@ioDefenseController@@U?$less@K@std@@V?$allocator@U?$pair@$$CBKUDefenseList@ioDefenseController@@@std@@@4@$0A@@std@@@std@@U_Iterator_base0@2@@std@@QAE@XZ ; std::_Tree_unchecked_const_iterator<std::_Tree_val<std::_Tmap_traits<unsigned long,ioDefenseController::DefenseList,std::less<unsigned long>,std::allocator<std::pair<unsigned long const ,ioDefenseController::DefenseList> >,0> >,std::_Iterator_base0>::_Tree_unchecked_const_iterator<std::_Tree_val<std::_Tmap_traits<unsigned long,ioDefenseController::DefenseList,std::less<unsigned long>,std::allocator<std::pair<unsigned long const ,ioDefenseController::DefenseList> >,0> >,std::_Iterator_base0>
; Function compile flags: /Ogsp
;	COMDAT ??0?$_Tree_unchecked_const_iterator@V?$_Tree_val@V?$_Tmap_traits@KUDefenseList@ioDefenseController@@U?$less@K@std@@V?$allocator@U?$pair@$$CBKUDefenseList@ioDefenseController@@@std@@@4@$0A@@std@@@std@@U_Iterator_base0@2@@std@@QAE@XZ
_TEXT	SEGMENT
??0?$_Tree_unchecked_const_iterator@V?$_Tree_val@V?$_Tmap_traits@KUDefenseList@ioDefenseController@@U?$less@K@std@@V?$allocator@U?$pair@$$CBKUDefenseList@ioDefenseController@@@std@@@4@$0A@@std@@@std@@U_Iterator_base0@2@@std@@QAE@XZ PROC ; std::_Tree_unchecked_const_iterator<std::_Tree_val<std::_Tmap_traits<unsigned long,ioDefenseController::DefenseList,std::less<unsigned long>,std::allocator<std::pair<unsigned long const ,ioDefenseController::DefenseList> >,0> >,std::_Iterator_base0>::_Tree_unchecked_const_iterator<std::_Tree_val<std::_Tmap_traits<unsigned long,ioDefenseController::DefenseList,std::less<unsigned long>,std::allocator<std::pair<unsigned long const ,ioDefenseController::DefenseList> >,0> >,std::_Iterator_base0>, COMDAT
; _this$ = ecx

; 38   : 		{	// construct with null node pointer

  00000	8b c1		 mov	 eax, ecx
  00002	83 20 00	 and	 DWORD PTR [eax], 0

; 39   : 		}

  00005	c3		 ret	 0
??0?$_Tree_unchecked_const_iterator@V?$_Tree_val@V?$_Tmap_traits@KUDefenseList@ioDefenseController@@U?$less@K@std@@V?$allocator@U?$pair@$$CBKUDefenseList@ioDefenseController@@@std@@@4@$0A@@std@@@std@@U_Iterator_base0@2@@std@@QAE@XZ ENDP ; std::_Tree_unchecked_const_iterator<std::_Tree_val<std::_Tmap_traits<unsigned long,ioDefenseController::DefenseList,std::less<unsigned long>,std::allocator<std::pair<unsigned long const ,ioDefenseController::DefenseList> >,0> >,std::_Iterator_base0>::_Tree_unchecked_const_iterator<std::_Tree_val<std::_Tmap_traits<unsigned long,ioDefenseController::DefenseList,std::less<unsigned long>,std::allocator<std::pair<unsigned long const ,ioDefenseController::DefenseList> >,0> >,std::_Iterator_base0>
_TEXT	ENDS
PUBLIC	??0?$_Vector_const_iterator@V?$_Vector_val@V?$basic_string@DU?$char_traits@D@std@@V?$allocator@D@2@@std@@V?$allocator@V?$basic_string@DU?$char_traits@D@std@@V?$allocator@D@2@@std@@@2@@std@@@std@@QAE@PAV?$basic_string@DU?$char_traits@D@std@@V?$allocator@D@2@@1@PBU_Container_base0@1@@Z ; std::_Vector_const_iterator<std::_Vector_val<std::basic_string<char,std::char_traits<char>,std::allocator<char> >,std::allocator<std::basic_string<char,std::char_traits<char>,std::allocator<char> > > > >::_Vector_const_iterator<std::_Vector_val<std::basic_string<char,std::char_traits<char>,std::allocator<char> >,std::allocator<std::basic_string<char,std::char_traits<char>,std::allocator<char> > > > >
; Function compile flags: /Ogsp
; File c:\program files (x86)\microsoft visual studio 10.0\vc\include\vector
;	COMDAT ??0?$_Vector_const_iterator@V?$_Vector_val@V?$basic_string@DU?$char_traits@D@std@@V?$allocator@D@2@@std@@V?$allocator@V?$basic_string@DU?$char_traits@D@std@@V?$allocator@D@2@@std@@@2@@std@@@std@@QAE@PAV?$basic_string@DU?$char_traits@D@std@@V?$allocator@D@2@@1@PBU_Container_base0@1@@Z
_TEXT	SEGMENT
__Parg$ = 8						; size = 4
__Pvector$ = 12						; size = 4
??0?$_Vector_const_iterator@V?$_Vector_val@V?$basic_string@DU?$char_traits@D@std@@V?$allocator@D@2@@std@@V?$allocator@V?$basic_string@DU?$char_traits@D@std@@V?$allocator@D@2@@std@@@2@@std@@@std@@QAE@PAV?$basic_string@DU?$char_traits@D@std@@V?$allocator@D@2@@1@PBU_Container_base0@1@@Z PROC ; std::_Vector_const_iterator<std::_Vector_val<std::basic_string<char,std::char_traits<char>,std::allocator<char> >,std::allocator<std::basic_string<char,std::char_traits<char>,std::allocator<char> > > > >::_Vector_const_iterator<std::_Vector_val<std::basic_string<char,std::char_traits<char>,std::allocator<char> >,std::allocator<std::basic_string<char,std::char_traits<char>,std::allocator<char> > > > >, COMDAT
; _this$ = ecx

; 45   : 		{	// construct with pointer _Parg

  00000	55		 push	 ebp
  00001	8b ec		 mov	 ebp, esp
  00003	8b c1		 mov	 eax, ecx
  00005	8b 4d 08	 mov	 ecx, DWORD PTR __Parg$[ebp]
  00008	89 08		 mov	 DWORD PTR [eax], ecx

; 46   : 		this->_Adopt(_Pvector);
; 47   : 		}

  0000a	5d		 pop	 ebp
  0000b	c2 08 00	 ret	 8
??0?$_Vector_const_iterator@V?$_Vector_val@V?$basic_string@DU?$char_traits@D@std@@V?$allocator@D@2@@std@@V?$allocator@V?$basic_string@DU?$char_traits@D@std@@V?$allocator@D@2@@std@@@2@@std@@@std@@QAE@PAV?$basic_string@DU?$char_traits@D@std@@V?$allocator@D@2@@1@PBU_Container_base0@1@@Z ENDP ; std::_Vector_const_iterator<std::_Vector_val<std::basic_string<char,std::char_traits<char>,std::allocator<char> >,std::allocator<std::basic_string<char,std::char_traits<char>,std::allocator<char> > > > >::_Vector_const_iterator<std::_Vector_val<std::basic_string<char,std::char_traits<char>,std::allocator<char> >,std::allocator<std::basic_string<char,std::char_traits<char>,std::allocator<char> > > > >
_TEXT	ENDS
PUBLIC	??D?$_Vector_const_iterator@V?$_Vector_val@V?$basic_string@DU?$char_traits@D@std@@V?$allocator@D@2@@std@@V?$allocator@V?$basic_string@DU?$char_traits@D@std@@V?$allocator@D@2@@std@@@2@@std@@@std@@QBEABV?$basic_string@DU?$char_traits@D@std@@V?$allocator@D@2@@1@XZ ; std::_Vector_const_iterator<std::_Vector_val<std::basic_string<char,std::char_traits<char>,std::allocator<char> >,std::allocator<std::basic_string<char,std::char_traits<char>,std::allocator<char> > > > >::operator*
; Function compile flags: /Ogsp
;	COMDAT ??D?$_Vector_const_iterator@V?$_Vector_val@V?$basic_string@DU?$char_traits@D@std@@V?$allocator@D@2@@std@@V?$allocator@V?$basic_string@DU?$char_traits@D@std@@V?$allocator@D@2@@std@@@2@@std@@@std@@QBEABV?$basic_string@DU?$char_traits@D@std@@V?$allocator@D@2@@1@XZ
_TEXT	SEGMENT
??D?$_Vector_const_iterator@V?$_Vector_val@V?$basic_string@DU?$char_traits@D@std@@V?$allocator@D@2@@std@@V?$allocator@V?$basic_string@DU?$char_traits@D@std@@V?$allocator@D@2@@std@@@2@@std@@@std@@QBEABV?$basic_string@DU?$char_traits@D@std@@V?$allocator@D@2@@1@XZ PROC ; std::_Vector_const_iterator<std::_Vector_val<std::basic_string<char,std::char_traits<char>,std::allocator<char> >,std::allocator<std::basic_string<char,std::char_traits<char>,std::allocator<char> > > > >::operator*, COMDAT
; _this$ = ecx

; 64   :  #if _ITERATOR_DEBUG_LEVEL == 2
; 65   : 		if (this->_Getcont() == 0
; 66   : 			|| this->_Ptr == 0
; 67   : 			|| this->_Ptr < ((_Myvec *)this->_Getcont())->_Myfirst
; 68   : 			|| ((_Myvec *)this->_Getcont())->_Mylast <= this->_Ptr)
; 69   : 			{	// report error
; 70   : 			_DEBUG_ERROR("vector iterator not dereferencable");
; 71   : 			_SCL_SECURE_OUT_OF_RANGE;
; 72   : 			}
; 73   : 
; 74   :  #elif _ITERATOR_DEBUG_LEVEL == 1
; 75   : 		_SCL_SECURE_VALIDATE(this->_Getcont() != 0);
; 76   : 		_SCL_SECURE_VALIDATE_RANGE(
; 77   : 			this->_Ptr != 0
; 78   : 			&& ((_Myvec *)this->_Getcont())->_Myfirst <= this->_Ptr
; 79   : 			&& this->_Ptr < ((_Myvec *)this->_Getcont())->_Mylast);
; 80   :  #endif /* _ITERATOR_DEBUG_LEVEL */
; 81   : 
; 82   : 		__analysis_assume(this->_Ptr != 0);
; 83   : 
; 84   : 		return (*this->_Ptr);

  00000	8b 01		 mov	 eax, DWORD PTR [ecx]

; 85   : 		}

  00002	c3		 ret	 0
??D?$_Vector_const_iterator@V?$_Vector_val@V?$basic_string@DU?$char_traits@D@std@@V?$allocator@D@2@@std@@V?$allocator@V?$basic_string@DU?$char_traits@D@std@@V?$allocator@D@2@@std@@@2@@std@@@std@@QBEABV?$basic_string@DU?$char_traits@D@std@@V?$allocator@D@2@@1@XZ ENDP ; std::_Vector_const_iterator<std::_Vector_val<std::basic_string<char,std::char_traits<char>,std::allocator<char> >,std::allocator<std::basic_string<char,std::char_traits<char>,std::allocator<char> > > > >::operator*
_TEXT	ENDS
PUBLIC	?_Compat@?$_Vector_const_iterator@V?$_Vector_val@V?$basic_string@DU?$char_traits@D@std@@V?$allocator@D@2@@std@@V?$allocator@V?$basic_string@DU?$char_traits@D@std@@V?$allocator@D@2@@std@@@2@@std@@@std@@QBEXABV12@@Z ; std::_Vector_const_iterator<std::_Vector_val<std::basic_string<char,std::char_traits<char>,std::allocator<char> >,std::allocator<std::basic_string<char,std::char_traits<char>,std::allocator<char> > > > >::_Compat
; Function compile flags: /Ogsp
;	COMDAT ?_Compat@?$_Vector_const_iterator@V?$_Vector_val@V?$basic_string@DU?$char_traits@D@std@@V?$allocator@D@2@@std@@V?$allocator@V?$basic_string@DU?$char_traits@D@std@@V?$allocator@D@2@@std@@@2@@std@@@std@@QBEXABV12@@Z
_TEXT	SEGMENT
___formal$ = 8						; size = 4
?_Compat@?$_Vector_const_iterator@V?$_Vector_val@V?$basic_string@DU?$char_traits@D@std@@V?$allocator@D@2@@std@@V?$allocator@V?$basic_string@DU?$char_traits@D@std@@V?$allocator@D@2@@std@@@2@@std@@@std@@QBEXABV12@@Z PROC ; std::_Vector_const_iterator<std::_Vector_val<std::basic_string<char,std::char_traits<char>,std::allocator<char> >,std::allocator<std::basic_string<char,std::char_traits<char>,std::allocator<char> > > > >::_Compat, COMDAT
; _this$ = ecx

; 253  : 		}

  00000	c2 04 00	 ret	 4
?_Compat@?$_Vector_const_iterator@V?$_Vector_val@V?$basic_string@DU?$char_traits@D@std@@V?$allocator@D@2@@std@@V?$allocator@V?$basic_string@DU?$char_traits@D@std@@V?$allocator@D@2@@std@@@2@@std@@@std@@QBEXABV12@@Z ENDP ; std::_Vector_const_iterator<std::_Vector_val<std::basic_string<char,std::char_traits<char>,std::allocator<char> >,std::allocator<std::basic_string<char,std::char_traits<char>,std::allocator<char> > > > >::_Compat
_TEXT	ENDS
PUBLIC	??8?$_List_const_iterator@V?$_List_val@PAVioWeapon@@V?$allocator@PAVioWeapon@@@std@@@std@@@std@@QBE_NABV01@@Z ; std::_List_const_iterator<std::_List_val<ioWeapon *,std::allocator<ioWeapon *> > >::operator==
; Function compile flags: /Ogsp
; File c:\program files (x86)\microsoft visual studio 10.0\vc\include\list
;	COMDAT ??8?$_List_const_iterator@V?$_List_val@PAVioWeapon@@V?$allocator@PAVioWeapon@@@std@@@std@@@std@@QBE_NABV01@@Z
_TEXT	SEGMENT
__Right$ = 8						; size = 4
??8?$_List_const_iterator@V?$_List_val@PAVioWeapon@@V?$allocator@PAVioWeapon@@@std@@@std@@@std@@QBE_NABV01@@Z PROC ; std::_List_const_iterator<std::_List_val<ioWeapon *,std::allocator<ioWeapon *> > >::operator==, COMDAT
; _this$ = ecx

; 281  : 		{	// test for iterator equality

  00000	55		 push	 ebp
  00001	8b ec		 mov	 ebp, esp

; 282  :  #if _ITERATOR_DEBUG_LEVEL == 2
; 283  : 		if (this->_Getcont() == 0
; 284  : 			|| this->_Getcont() != _Right._Getcont())
; 285  : 			{	// report error
; 286  : 			_DEBUG_ERROR("list iterators incompatible");
; 287  : 			_SCL_SECURE_INVALID_ARGUMENT;
; 288  : 			}
; 289  : 
; 290  :  #elif _ITERATOR_DEBUG_LEVEL == 1
; 291  : 		_SCL_SECURE_VALIDATE(this->_Getcont() != 0
; 292  : 			&& this->_Getcont() == _Right._Getcont());
; 293  :  #endif /* _ITERATOR_DEBUG_LEVEL */
; 294  : 
; 295  : 		return (this->_Ptr == _Right._Ptr);

  00003	8b 01		 mov	 eax, DWORD PTR [ecx]
  00005	8b 4d 08	 mov	 ecx, DWORD PTR __Right$[ebp]
  00008	2b 01		 sub	 eax, DWORD PTR [ecx]
  0000a	f7 d8		 neg	 eax
  0000c	1b c0		 sbb	 eax, eax
  0000e	40		 inc	 eax

; 296  : 		}

  0000f	5d		 pop	 ebp
  00010	c2 04 00	 ret	 4
??8?$_List_const_iterator@V?$_List_val@PAVioWeapon@@V?$allocator@PAVioWeapon@@@std@@@std@@@std@@QBE_NABV01@@Z ENDP ; std::_List_const_iterator<std::_List_val<ioWeapon *,std::allocator<ioWeapon *> > >::operator==
_TEXT	ENDS
PUBLIC	??0?$_Vector_const_iterator@V?$_Vector_val@UDefenseData@ioDefenseController@@V?$allocator@UDefenseData@ioDefenseController@@@std@@@std@@@std@@QAE@PAUDefenseData@ioDefenseController@@PBU_Container_base0@1@@Z ; std::_Vector_const_iterator<std::_Vector_val<ioDefenseController::DefenseData,std::allocator<ioDefenseController::DefenseData> > >::_Vector_const_iterator<std::_Vector_val<ioDefenseController::DefenseData,std::allocator<ioDefenseController::DefenseData> > >
; Function compile flags: /Ogsp
; File c:\program files (x86)\microsoft visual studio 10.0\vc\include\vector
;	COMDAT ??0?$_Vector_const_iterator@V?$_Vector_val@UDefenseData@ioDefenseController@@V?$allocator@UDefenseData@ioDefenseController@@@std@@@std@@@std@@QAE@PAUDefenseData@ioDefenseController@@PBU_Container_base0@1@@Z
_TEXT	SEGMENT
__Parg$ = 8						; size = 4
__Pvector$ = 12						; size = 4
??0?$_Vector_const_iterator@V?$_Vector_val@UDefenseData@ioDefenseController@@V?$allocator@UDefenseData@ioDefenseController@@@std@@@std@@@std@@QAE@PAUDefenseData@ioDefenseController@@PBU_Container_base0@1@@Z PROC ; std::_Vector_const_iterator<std::_Vector_val<ioDefenseController::DefenseData,std::allocator<ioDefenseController::DefenseData> > >::_Vector_const_iterator<std::_Vector_val<ioDefenseController::DefenseData,std::allocator<ioDefenseController::DefenseData> > >, COMDAT
; _this$ = ecx

; 45   : 		{	// construct with pointer _Parg

  00000	55		 push	 ebp
  00001	8b ec		 mov	 ebp, esp
  00003	8b c1		 mov	 eax, ecx
  00005	8b 4d 08	 mov	 ecx, DWORD PTR __Parg$[ebp]
  00008	89 08		 mov	 DWORD PTR [eax], ecx

; 46   : 		this->_Adopt(_Pvector);
; 47   : 		}

  0000a	5d		 pop	 ebp
  0000b	c2 08 00	 ret	 8
??0?$_Vector_const_iterator@V?$_Vector_val@UDefenseData@ioDefenseController@@V?$allocator@UDefenseData@ioDefenseController@@@std@@@std@@@std@@QAE@PAUDefenseData@ioDefenseController@@PBU_Container_base0@1@@Z ENDP ; std::_Vector_const_iterator<std::_Vector_val<ioDefenseController::DefenseData,std::allocator<ioDefenseController::DefenseData> > >::_Vector_const_iterator<std::_Vector_val<ioDefenseController::DefenseData,std::allocator<ioDefenseController::DefenseData> > >
_TEXT	ENDS
PUBLIC	?max_size@?$allocator@V?$basic_string@DU?$char_traits@D@std@@V?$allocator@D@2@@std@@@std@@QBEIXZ ; std::allocator<std::basic_string<char,std::char_traits<char>,std::allocator<char> > >::max_size
; Function compile flags: /Ogsp
; File c:\program files (x86)\microsoft visual studio 10.0\vc\include\xmemory
;	COMDAT ?max_size@?$allocator@V?$basic_string@DU?$char_traits@D@std@@V?$allocator@D@2@@std@@@std@@QBEIXZ
_TEXT	SEGMENT
?max_size@?$allocator@V?$basic_string@DU?$char_traits@D@std@@V?$allocator@D@2@@std@@@std@@QBEIXZ PROC ; std::allocator<std::basic_string<char,std::char_traits<char>,std::allocator<char> > >::max_size, COMDAT
; _this$ = ecx

; 218  : 		_SIZT _Count = (_SIZT)(-1) / sizeof (_Ty);
; 219  : 		return (0 < _Count ? _Count : 1);

  00000	b8 49 92 24 09	 mov	 eax, 153391689		; 09249249H

; 220  : 		}

  00005	c3		 ret	 0
?max_size@?$allocator@V?$basic_string@DU?$char_traits@D@std@@V?$allocator@D@2@@std@@@std@@QBEIXZ ENDP ; std::allocator<std::basic_string<char,std::char_traits<char>,std::allocator<char> > >::max_size
_TEXT	ENDS
PUBLIC	?_Myval@?$_List_val@PAVioWeapon@@V?$allocator@PAVioWeapon@@@std@@@std@@SAAAPAVioWeapon@@PAU_Node@?$_List_nod@PAVioWeapon@@V?$allocator@PAVioWeapon@@@std@@@2@@Z ; std::_List_val<ioWeapon *,std::allocator<ioWeapon *> >::_Myval
; Function compile flags: /Ogsp
; File c:\program files (x86)\microsoft visual studio 10.0\vc\include\list
;	COMDAT ?_Myval@?$_List_val@PAVioWeapon@@V?$allocator@PAVioWeapon@@@std@@@std@@SAAAPAVioWeapon@@PAU_Node@?$_List_nod@PAVioWeapon@@V?$allocator@PAVioWeapon@@@std@@@2@@Z
_TEXT	SEGMENT
__Pnode$ = 8						; size = 4
?_Myval@?$_List_val@PAVioWeapon@@V?$allocator@PAVioWeapon@@@std@@@std@@SAAAPAVioWeapon@@PAU_Node@?$_List_nod@PAVioWeapon@@V?$allocator@PAVioWeapon@@@std@@@2@@Z PROC ; std::_List_val<ioWeapon *,std::allocator<ioWeapon *> >::_Myval, COMDAT

; 570  : 		{	// return reference to value in node

  00000	55		 push	 ebp
  00001	8b ec		 mov	 ebp, esp

; 571  : 		return ((reference)(*_Pnode)._Myval);

  00003	8b 45 08	 mov	 eax, DWORD PTR __Pnode$[ebp]
  00006	83 c0 08	 add	 eax, 8

; 572  : 		}

  00009	5d		 pop	 ebp
  0000a	c3		 ret	 0
?_Myval@?$_List_val@PAVioWeapon@@V?$allocator@PAVioWeapon@@@std@@@std@@SAAAPAVioWeapon@@PAU_Node@?$_List_nod@PAVioWeapon@@V?$allocator@PAVioWeapon@@@std@@@2@@Z ENDP ; std::_List_val<ioWeapon *,std::allocator<ioWeapon *> >::_Myval
_TEXT	ENDS
PUBLIC	?max_size@?$allocator@UDefenseData@ioDefenseController@@@std@@QBEIXZ ; std::allocator<ioDefenseController::DefenseData>::max_size
; Function compile flags: /Ogsp
; File c:\program files (x86)\microsoft visual studio 10.0\vc\include\xmemory
;	COMDAT ?max_size@?$allocator@UDefenseData@ioDefenseController@@@std@@QBEIXZ
_TEXT	SEGMENT
?max_size@?$allocator@UDefenseData@ioDefenseController@@@std@@QBEIXZ PROC ; std::allocator<ioDefenseController::DefenseData>::max_size, COMDAT
; _this$ = ecx

; 218  : 		_SIZT _Count = (_SIZT)(-1) / sizeof (_Ty);
; 219  : 		return (0 < _Count ? _Count : 1);

  00000	b8 ff ff ff 1f	 mov	 eax, 536870911		; 1fffffffH

; 220  : 		}

  00005	c3		 ret	 0
?max_size@?$allocator@UDefenseData@ioDefenseController@@@std@@QBEIXZ ENDP ; std::allocator<ioDefenseController::DefenseData>::max_size
_TEXT	ENDS
PUBLIC	?_Color@?$_Tree_val@V?$_Tmap_traits@KUDefenseList@ioDefenseController@@U?$less@K@std@@V?$allocator@U?$pair@$$CBKUDefenseList@ioDefenseController@@@std@@@4@$0A@@std@@@std@@SAAADPAU_Node@?$_Tree_nod@V?$_Tmap_traits@KUDefenseList@ioDefenseController@@U?$less@K@std@@V?$allocator@U?$pair@$$CBKUDefenseList@ioDefenseController@@@std@@@4@$0A@@std@@@2@@Z ; std::_Tree_val<std::_Tmap_traits<unsigned long,ioDefenseController::DefenseList,std::less<unsigned long>,std::allocator<std::pair<unsigned long const ,ioDefenseController::DefenseList> >,0> >::_Color
; Function compile flags: /Ogsp
; File c:\program files (x86)\microsoft visual studio 10.0\vc\include\xtree
;	COMDAT ?_Color@?$_Tree_val@V?$_Tmap_traits@KUDefenseList@ioDefenseController@@U?$less@K@std@@V?$allocator@U?$pair@$$CBKUDefenseList@ioDefenseController@@@std@@@4@$0A@@std@@@std@@SAAADPAU_Node@?$_Tree_nod@V?$_Tmap_traits@KUDefenseList@ioDefenseController@@U?$less@K@std@@V?$allocator@U?$pair@$$CBKUDefenseList@ioDefenseController@@@std@@@4@$0A@@std@@@2@@Z
_TEXT	SEGMENT
__Pnode$ = 8						; size = 4
?_Color@?$_Tree_val@V?$_Tmap_traits@KUDefenseList@ioDefenseController@@U?$less@K@std@@V?$allocator@U?$pair@$$CBKUDefenseList@ioDefenseController@@@std@@@4@$0A@@std@@@std@@SAAADPAU_Node@?$_Tree_nod@V?$_Tmap_traits@KUDefenseList@ioDefenseController@@U?$less@K@std@@V?$allocator@U?$pair@$$CBKUDefenseList@ioDefenseController@@@std@@@4@$0A@@std@@@2@@Z PROC ; std::_Tree_val<std::_Tmap_traits<unsigned long,ioDefenseController::DefenseList,std::less<unsigned long>,std::allocator<std::pair<unsigned long const ,ioDefenseController::DefenseList> >,0> >::_Color, COMDAT

; 606  : 		{	// return reference to color in node

  00000	55		 push	 ebp
  00001	8b ec		 mov	 ebp, esp

; 607  : 		return ((char&)(*_Pnode)._Color);

  00003	8b 45 08	 mov	 eax, DWORD PTR __Pnode$[ebp]
  00006	83 c0 3c	 add	 eax, 60			; 0000003cH

; 608  : 		}

  00009	5d		 pop	 ebp
  0000a	c3		 ret	 0
?_Color@?$_Tree_val@V?$_Tmap_traits@KUDefenseList@ioDefenseController@@U?$less@K@std@@V?$allocator@U?$pair@$$CBKUDefenseList@ioDefenseController@@@std@@@4@$0A@@std@@@std@@SAAADPAU_Node@?$_Tree_nod@V?$_Tmap_traits@KUDefenseList@ioDefenseController@@U?$less@K@std@@V?$allocator@U?$pair@$$CBKUDefenseList@ioDefenseController@@@std@@@4@$0A@@std@@@2@@Z ENDP ; std::_Tree_val<std::_Tmap_traits<unsigned long,ioDefenseController::DefenseList,std::less<unsigned long>,std::allocator<std::pair<unsigned long const ,ioDefenseController::DefenseList> >,0> >::_Color
_TEXT	ENDS
PUBLIC	?_Isnil@?$_Tree_val@V?$_Tmap_traits@KUDefenseList@ioDefenseController@@U?$less@K@std@@V?$allocator@U?$pair@$$CBKUDefenseList@ioDefenseController@@@std@@@4@$0A@@std@@@std@@SAAADPAU_Node@?$_Tree_nod@V?$_Tmap_traits@KUDefenseList@ioDefenseController@@U?$less@K@std@@V?$allocator@U?$pair@$$CBKUDefenseList@ioDefenseController@@@std@@@4@$0A@@std@@@2@@Z ; std::_Tree_val<std::_Tmap_traits<unsigned long,ioDefenseController::DefenseList,std::less<unsigned long>,std::allocator<std::pair<unsigned long const ,ioDefenseController::DefenseList> >,0> >::_Isnil
; Function compile flags: /Ogsp
;	COMDAT ?_Isnil@?$_Tree_val@V?$_Tmap_traits@KUDefenseList@ioDefenseController@@U?$less@K@std@@V?$allocator@U?$pair@$$CBKUDefenseList@ioDefenseController@@@std@@@4@$0A@@std@@@std@@SAAADPAU_Node@?$_Tree_nod@V?$_Tmap_traits@KUDefenseList@ioDefenseController@@U?$less@K@std@@V?$allocator@U?$pair@$$CBKUDefenseList@ioDefenseController@@@std@@@4@$0A@@std@@@2@@Z
_TEXT	SEGMENT
__Pnode$ = 8						; size = 4
?_Isnil@?$_Tree_val@V?$_Tmap_traits@KUDefenseList@ioDefenseController@@U?$less@K@std@@V?$allocator@U?$pair@$$CBKUDefenseList@ioDefenseController@@@std@@@4@$0A@@std@@@std@@SAAADPAU_Node@?$_Tree_nod@V?$_Tmap_traits@KUDefenseList@ioDefenseController@@U?$less@K@std@@V?$allocator@U?$pair@$$CBKUDefenseList@ioDefenseController@@@std@@@4@$0A@@std@@@2@@Z PROC ; std::_Tree_val<std::_Tmap_traits<unsigned long,ioDefenseController::DefenseList,std::less<unsigned long>,std::allocator<std::pair<unsigned long const ,ioDefenseController::DefenseList> >,0> >::_Isnil, COMDAT

; 611  : 		{	// return reference to nil flag in node

  00000	55		 push	 ebp
  00001	8b ec		 mov	 ebp, esp

; 612  : 		return ((char&)(*_Pnode)._Isnil);

  00003	8b 45 08	 mov	 eax, DWORD PTR __Pnode$[ebp]
  00006	83 c0 3d	 add	 eax, 61			; 0000003dH

; 613  : 		}

  00009	5d		 pop	 ebp
  0000a	c3		 ret	 0
?_Isnil@?$_Tree_val@V?$_Tmap_traits@KUDefenseList@ioDefenseController@@U?$less@K@std@@V?$allocator@U?$pair@$$CBKUDefenseList@ioDefenseController@@@std@@@4@$0A@@std@@@std@@SAAADPAU_Node@?$_Tree_nod@V?$_Tmap_traits@KUDefenseList@ioDefenseController@@U?$less@K@std@@V?$allocator@U?$pair@$$CBKUDefenseList@ioDefenseController@@@std@@@4@$0A@@std@@@2@@Z ENDP ; std::_Tree_val<std::_Tmap_traits<unsigned long,ioDefenseController::DefenseList,std::less<unsigned long>,std::allocator<std::pair<unsigned long const ,ioDefenseController::DefenseList> >,0> >::_Isnil
_TEXT	ENDS
PUBLIC	?_Parent@?$_Tree_val@V?$_Tmap_traits@KUDefenseList@ioDefenseController@@U?$less@K@std@@V?$allocator@U?$pair@$$CBKUDefenseList@ioDefenseController@@@std@@@4@$0A@@std@@@std@@SAAAPAU_Node@?$_Tree_nod@V?$_Tmap_traits@KUDefenseList@ioDefenseController@@U?$less@K@std@@V?$allocator@U?$pair@$$CBKUDefenseList@ioDefenseController@@@std@@@4@$0A@@std@@@2@PAU342@@Z ; std::_Tree_val<std::_Tmap_traits<unsigned long,ioDefenseController::DefenseList,std::less<unsigned long>,std::allocator<std::pair<unsigned long const ,ioDefenseController::DefenseList> >,0> >::_Parent
; Function compile flags: /Ogsp
;	COMDAT ?_Parent@?$_Tree_val@V?$_Tmap_traits@KUDefenseList@ioDefenseController@@U?$less@K@std@@V?$allocator@U?$pair@$$CBKUDefenseList@ioDefenseController@@@std@@@4@$0A@@std@@@std@@SAAAPAU_Node@?$_Tree_nod@V?$_Tmap_traits@KUDefenseList@ioDefenseController@@U?$less@K@std@@V?$allocator@U?$pair@$$CBKUDefenseList@ioDefenseController@@@std@@@4@$0A@@std@@@2@PAU342@@Z
_TEXT	SEGMENT
__Pnode$ = 8						; size = 4
?_Parent@?$_Tree_val@V?$_Tmap_traits@KUDefenseList@ioDefenseController@@U?$less@K@std@@V?$allocator@U?$pair@$$CBKUDefenseList@ioDefenseController@@@std@@@4@$0A@@std@@@std@@SAAAPAU_Node@?$_Tree_nod@V?$_Tmap_traits@KUDefenseList@ioDefenseController@@U?$less@K@std@@V?$allocator@U?$pair@$$CBKUDefenseList@ioDefenseController@@@std@@@4@$0A@@std@@@2@PAU342@@Z PROC ; std::_Tree_val<std::_Tmap_traits<unsigned long,ioDefenseController::DefenseList,std::less<unsigned long>,std::allocator<std::pair<unsigned long const ,ioDefenseController::DefenseList> >,0> >::_Parent, COMDAT

; 626  : 		{	// return reference to parent pointer in node

  00000	55		 push	 ebp
  00001	8b ec		 mov	 ebp, esp

; 627  : 		return ((_Nodepref)(*_Pnode)._Parent);

  00003	8b 45 08	 mov	 eax, DWORD PTR __Pnode$[ebp]
  00006	83 c0 04	 add	 eax, 4

; 628  : 		}

  00009	5d		 pop	 ebp
  0000a	c3		 ret	 0
?_Parent@?$_Tree_val@V?$_Tmap_traits@KUDefenseList@ioDefenseController@@U?$less@K@std@@V?$allocator@U?$pair@$$CBKUDefenseList@ioDefenseController@@@std@@@4@$0A@@std@@@std@@SAAAPAU_Node@?$_Tree_nod@V?$_Tmap_traits@KUDefenseList@ioDefenseController@@U?$less@K@std@@V?$allocator@U?$pair@$$CBKUDefenseList@ioDefenseController@@@std@@@4@$0A@@std@@@2@PAU342@@Z ENDP ; std::_Tree_val<std::_Tmap_traits<unsigned long,ioDefenseController::DefenseList,std::less<unsigned long>,std::allocator<std::pair<unsigned long const ,ioDefenseController::DefenseList> >,0> >::_Parent
_TEXT	ENDS
PUBLIC	?_Right@?$_Tree_val@V?$_Tmap_traits@KUDefenseList@ioDefenseController@@U?$less@K@std@@V?$allocator@U?$pair@$$CBKUDefenseList@ioDefenseController@@@std@@@4@$0A@@std@@@std@@SAAAPAU_Node@?$_Tree_nod@V?$_Tmap_traits@KUDefenseList@ioDefenseController@@U?$less@K@std@@V?$allocator@U?$pair@$$CBKUDefenseList@ioDefenseController@@@std@@@4@$0A@@std@@@2@PAU342@@Z ; std::_Tree_val<std::_Tmap_traits<unsigned long,ioDefenseController::DefenseList,std::less<unsigned long>,std::allocator<std::pair<unsigned long const ,ioDefenseController::DefenseList> >,0> >::_Right
; Function compile flags: /Ogsp
;	COMDAT ?_Right@?$_Tree_val@V?$_Tmap_traits@KUDefenseList@ioDefenseController@@U?$less@K@std@@V?$allocator@U?$pair@$$CBKUDefenseList@ioDefenseController@@@std@@@4@$0A@@std@@@std@@SAAAPAU_Node@?$_Tree_nod@V?$_Tmap_traits@KUDefenseList@ioDefenseController@@U?$less@K@std@@V?$allocator@U?$pair@$$CBKUDefenseList@ioDefenseController@@@std@@@4@$0A@@std@@@2@PAU342@@Z
_TEXT	SEGMENT
__Pnode$ = 8						; size = 4
?_Right@?$_Tree_val@V?$_Tmap_traits@KUDefenseList@ioDefenseController@@U?$less@K@std@@V?$allocator@U?$pair@$$CBKUDefenseList@ioDefenseController@@@std@@@4@$0A@@std@@@std@@SAAAPAU_Node@?$_Tree_nod@V?$_Tmap_traits@KUDefenseList@ioDefenseController@@U?$less@K@std@@V?$allocator@U?$pair@$$CBKUDefenseList@ioDefenseController@@@std@@@4@$0A@@std@@@2@PAU342@@Z PROC ; std::_Tree_val<std::_Tmap_traits<unsigned long,ioDefenseController::DefenseList,std::less<unsigned long>,std::allocator<std::pair<unsigned long const ,ioDefenseController::DefenseList> >,0> >::_Right, COMDAT

; 631  : 		{	// return reference to right pointer in node

  00000	55		 push	 ebp
  00001	8b ec		 mov	 ebp, esp

; 632  : 		return ((_Nodepref)(*_Pnode)._Right);

  00003	8b 45 08	 mov	 eax, DWORD PTR __Pnode$[ebp]
  00006	83 c0 08	 add	 eax, 8

; 633  : 		}

  00009	5d		 pop	 ebp
  0000a	c3		 ret	 0
?_Right@?$_Tree_val@V?$_Tmap_traits@KUDefenseList@ioDefenseController@@U?$less@K@std@@V?$allocator@U?$pair@$$CBKUDefenseList@ioDefenseController@@@std@@@4@$0A@@std@@@std@@SAAAPAU_Node@?$_Tree_nod@V?$_Tmap_traits@KUDefenseList@ioDefenseController@@U?$less@K@std@@V?$allocator@U?$pair@$$CBKUDefenseList@ioDefenseController@@@std@@@4@$0A@@std@@@2@PAU342@@Z ENDP ; std::_Tree_val<std::_Tmap_traits<unsigned long,ioDefenseController::DefenseList,std::less<unsigned long>,std::allocator<std::pair<unsigned long const ,ioDefenseController::DefenseList> >,0> >::_Right
_TEXT	ENDS
PUBLIC	?_Min@?$_Tree_val@V?$_Tmap_traits@KUDefenseList@ioDefenseController@@U?$less@K@std@@V?$allocator@U?$pair@$$CBKUDefenseList@ioDefenseController@@@std@@@4@$0A@@std@@@std@@SAPAU_Node@?$_Tree_nod@V?$_Tmap_traits@KUDefenseList@ioDefenseController@@U?$less@K@std@@V?$allocator@U?$pair@$$CBKUDefenseList@ioDefenseController@@@std@@@4@$0A@@std@@@2@PAU342@@Z ; std::_Tree_val<std::_Tmap_traits<unsigned long,ioDefenseController::DefenseList,std::less<unsigned long>,std::allocator<std::pair<unsigned long const ,ioDefenseController::DefenseList> >,0> >::_Min
; Function compile flags: /Ogsp
;	COMDAT ?_Min@?$_Tree_val@V?$_Tmap_traits@KUDefenseList@ioDefenseController@@U?$less@K@std@@V?$allocator@U?$pair@$$CBKUDefenseList@ioDefenseController@@@std@@@4@$0A@@std@@@std@@SAPAU_Node@?$_Tree_nod@V?$_Tmap_traits@KUDefenseList@ioDefenseController@@U?$less@K@std@@V?$allocator@U?$pair@$$CBKUDefenseList@ioDefenseController@@@std@@@4@$0A@@std@@@2@PAU342@@Z
_TEXT	SEGMENT
__Pnode$ = 8						; size = 4
?_Min@?$_Tree_val@V?$_Tmap_traits@KUDefenseList@ioDefenseController@@U?$less@K@std@@V?$allocator@U?$pair@$$CBKUDefenseList@ioDefenseController@@@std@@@4@$0A@@std@@@std@@SAPAU_Node@?$_Tree_nod@V?$_Tmap_traits@KUDefenseList@ioDefenseController@@U?$less@K@std@@V?$allocator@U?$pair@$$CBKUDefenseList@ioDefenseController@@@std@@@4@$0A@@std@@@2@PAU342@@Z PROC ; std::_Tree_val<std::_Tmap_traits<unsigned long,ioDefenseController::DefenseList,std::less<unsigned long>,std::allocator<std::pair<unsigned long const ,ioDefenseController::DefenseList> >,0> >::_Min, COMDAT

; 648  : 		{	// return leftmost node in subtree at _Pnode

  00000	55		 push	 ebp
  00001	8b ec		 mov	 ebp, esp

; 649  : 		while (!_Isnil(_Left(_Pnode)))

  00003	8b 45 08	 mov	 eax, DWORD PTR __Pnode$[ebp]
  00006	eb 02		 jmp	 SHORT $LN14@Min
$LL2@Min:

; 650  : 			_Pnode = _Left(_Pnode);

  00008	8b c1		 mov	 eax, ecx
$LN14@Min:

; 649  : 		while (!_Isnil(_Left(_Pnode)))

  0000a	8b 08		 mov	 ecx, DWORD PTR [eax]
  0000c	80 79 3d 00	 cmp	 BYTE PTR [ecx+61], 0
  00010	74 f6		 je	 SHORT $LL2@Min

; 651  : 		return (_Pnode);
; 652  : 		}

  00012	5d		 pop	 ebp
  00013	c3		 ret	 0
?_Min@?$_Tree_val@V?$_Tmap_traits@KUDefenseList@ioDefenseController@@U?$less@K@std@@V?$allocator@U?$pair@$$CBKUDefenseList@ioDefenseController@@@std@@@4@$0A@@std@@@std@@SAPAU_Node@?$_Tree_nod@V?$_Tmap_traits@KUDefenseList@ioDefenseController@@U?$less@K@std@@V?$allocator@U?$pair@$$CBKUDefenseList@ioDefenseController@@@std@@@4@$0A@@std@@@2@PAU342@@Z ENDP ; std::_Tree_val<std::_Tmap_traits<unsigned long,ioDefenseController::DefenseList,std::less<unsigned long>,std::allocator<std::pair<unsigned long const ,ioDefenseController::DefenseList> >,0> >::_Min
_TEXT	ENDS
PUBLIC	??0?$_Tree_unchecked_const_iterator@V?$_Tree_val@V?$_Tmap_traits@KUDefenseList@ioDefenseController@@U?$less@K@std@@V?$allocator@U?$pair@$$CBKUDefenseList@ioDefenseController@@@std@@@4@$0A@@std@@@std@@U_Iterator_base0@2@@std@@QAE@PAU_Node@?$_Tree_nod@V?$_Tmap_traits@KUDefenseList@ioDefenseController@@U?$less@K@std@@V?$allocator@U?$pair@$$CBKUDefenseList@ioDefenseController@@@std@@@4@$0A@@std@@@1@PBV?$_Tree_val@V?$_Tmap_traits@KUDefenseList@ioDefenseController@@U?$less@K@std@@V?$allocator@U?$pair@$$CBKUDefenseList@ioDefenseController@@@std@@@4@$0A@@std@@@1@@Z ; std::_Tree_unchecked_const_iterator<std::_Tree_val<std::_Tmap_traits<unsigned long,ioDefenseController::DefenseList,std::less<unsigned long>,std::allocator<std::pair<unsigned long const ,ioDefenseController::DefenseList> >,0> >,std::_Iterator_base0>::_Tree_unchecked_const_iterator<std::_Tree_val<std::_Tmap_traits<unsigned long,ioDefenseController::DefenseList,std::less<unsigned long>,std::allocator<std::pair<unsigned long const ,ioDefenseController::DefenseList> >,0> >,std::_Iterator_base0>
; Function compile flags: /Ogsp
;	COMDAT ??0?$_Tree_unchecked_const_iterator@V?$_Tree_val@V?$_Tmap_traits@KUDefenseList@ioDefenseController@@U?$less@K@std@@V?$allocator@U?$pair@$$CBKUDefenseList@ioDefenseController@@@std@@@4@$0A@@std@@@std@@U_Iterator_base0@2@@std@@QAE@PAU_Node@?$_Tree_nod@V?$_Tmap_traits@KUDefenseList@ioDefenseController@@U?$less@K@std@@V?$allocator@U?$pair@$$CBKUDefenseList@ioDefenseController@@@std@@@4@$0A@@std@@@1@PBV?$_Tree_val@V?$_Tmap_traits@KUDefenseList@ioDefenseController@@U?$less@K@std@@V?$allocator@U?$pair@$$CBKUDefenseList@ioDefenseController@@@std@@@4@$0A@@std@@@1@@Z
_TEXT	SEGMENT
__Pnode$ = 8						; size = 4
__Plist$ = 12						; size = 4
??0?$_Tree_unchecked_const_iterator@V?$_Tree_val@V?$_Tmap_traits@KUDefenseList@ioDefenseController@@U?$less@K@std@@V?$allocator@U?$pair@$$CBKUDefenseList@ioDefenseController@@@std@@@4@$0A@@std@@@std@@U_Iterator_base0@2@@std@@QAE@PAU_Node@?$_Tree_nod@V?$_Tmap_traits@KUDefenseList@ioDefenseController@@U?$less@K@std@@V?$allocator@U?$pair@$$CBKUDefenseList@ioDefenseController@@@std@@@4@$0A@@std@@@1@PBV?$_Tree_val@V?$_Tmap_traits@KUDefenseList@ioDefenseController@@U?$less@K@std@@V?$allocator@U?$pair@$$CBKUDefenseList@ioDefenseController@@@std@@@4@$0A@@std@@@1@@Z PROC ; std::_Tree_unchecked_const_iterator<std::_Tree_val<std::_Tmap_traits<unsigned long,ioDefenseController::DefenseList,std::less<unsigned long>,std::allocator<std::pair<unsigned long const ,ioDefenseController::DefenseList> >,0> >,std::_Iterator_base0>::_Tree_unchecked_const_iterator<std::_Tree_val<std::_Tmap_traits<unsigned long,ioDefenseController::DefenseList,std::less<unsigned long>,std::allocator<std::pair<unsigned long const ,ioDefenseController::DefenseList> >,0> >,std::_Iterator_base0>, COMDAT
; _this$ = ecx

; 43   : 		{	// construct with node pointer _Pnode

  00000	55		 push	 ebp
  00001	8b ec		 mov	 ebp, esp
  00003	8b c1		 mov	 eax, ecx
  00005	8b 4d 08	 mov	 ecx, DWORD PTR __Pnode$[ebp]
  00008	89 08		 mov	 DWORD PTR [eax], ecx

; 44   : 		this->_Adopt(_Plist);
; 45   : 		}

  0000a	5d		 pop	 ebp
  0000b	c2 08 00	 ret	 8
??0?$_Tree_unchecked_const_iterator@V?$_Tree_val@V?$_Tmap_traits@KUDefenseList@ioDefenseController@@U?$less@K@std@@V?$allocator@U?$pair@$$CBKUDefenseList@ioDefenseController@@@std@@@4@$0A@@std@@@std@@U_Iterator_base0@2@@std@@QAE@PAU_Node@?$_Tree_nod@V?$_Tmap_traits@KUDefenseList@ioDefenseController@@U?$less@K@std@@V?$allocator@U?$pair@$$CBKUDefenseList@ioDefenseController@@@std@@@4@$0A@@std@@@1@PBV?$_Tree_val@V?$_Tmap_traits@KUDefenseList@ioDefenseController@@U?$less@K@std@@V?$allocator@U?$pair@$$CBKUDefenseList@ioDefenseController@@@std@@@4@$0A@@std@@@1@@Z ENDP ; std::_Tree_unchecked_const_iterator<std::_Tree_val<std::_Tmap_traits<unsigned long,ioDefenseController::DefenseList,std::less<unsigned long>,std::allocator<std::pair<unsigned long const ,ioDefenseController::DefenseList> >,0> >,std::_Iterator_base0>::_Tree_unchecked_const_iterator<std::_Tree_val<std::_Tmap_traits<unsigned long,ioDefenseController::DefenseList,std::less<unsigned long>,std::allocator<std::pair<unsigned long const ,ioDefenseController::DefenseList> >,0> >,std::_Iterator_base0>
_TEXT	ENDS
PUBLIC	?_Nextnode@?$_List_val@PAVioWeapon@@V?$allocator@PAVioWeapon@@@std@@@std@@SAAAPAU_Node@?$_List_nod@PAVioWeapon@@V?$allocator@PAVioWeapon@@@std@@@2@PAU342@@Z ; std::_List_val<ioWeapon *,std::allocator<ioWeapon *> >::_Nextnode
; Function compile flags: /Ogsp
; File c:\program files (x86)\microsoft visual studio 10.0\vc\include\list
;	COMDAT ?_Nextnode@?$_List_val@PAVioWeapon@@V?$allocator@PAVioWeapon@@@std@@@std@@SAAAPAU_Node@?$_List_nod@PAVioWeapon@@V?$allocator@PAVioWeapon@@@std@@@2@PAU342@@Z
_TEXT	SEGMENT
__Pnode$ = 8						; size = 4
?_Nextnode@?$_List_val@PAVioWeapon@@V?$allocator@PAVioWeapon@@@std@@@std@@SAAAPAU_Node@?$_List_nod@PAVioWeapon@@V?$allocator@PAVioWeapon@@@std@@@2@PAU342@@Z PROC ; std::_List_val<ioWeapon *,std::allocator<ioWeapon *> >::_Nextnode, COMDAT

; 560  : 		{	// return reference to successor pointer in node

  00000	55		 push	 ebp
  00001	8b ec		 mov	 ebp, esp

; 561  : 		return ((_Nodepref)(*_Pnode)._Next);

  00003	8b 45 08	 mov	 eax, DWORD PTR __Pnode$[ebp]

; 562  : 		}

  00006	5d		 pop	 ebp
  00007	c3		 ret	 0
?_Nextnode@?$_List_val@PAVioWeapon@@V?$allocator@PAVioWeapon@@@std@@@std@@SAAAPAU_Node@?$_List_nod@PAVioWeapon@@V?$allocator@PAVioWeapon@@@std@@@2@PAU342@@Z ENDP ; std::_List_val<ioWeapon *,std::allocator<ioWeapon *> >::_Nextnode
_TEXT	ENDS
PUBLIC	?_Rmost@?$_Tree@V?$_Tmap_traits@KUDefenseList@ioDefenseController@@U?$less@K@std@@V?$allocator@U?$pair@$$CBKUDefenseList@ioDefenseController@@@std@@@4@$0A@@std@@@std@@IBEAAPAU_Node@?$_Tree_nod@V?$_Tmap_traits@KUDefenseList@ioDefenseController@@U?$less@K@std@@V?$allocator@U?$pair@$$CBKUDefenseList@ioDefenseController@@@std@@@4@$0A@@std@@@2@XZ ; std::_Tree<std::_Tmap_traits<unsigned long,ioDefenseController::DefenseList,std::less<unsigned long>,std::allocator<std::pair<unsigned long const ,ioDefenseController::DefenseList> >,0> >::_Rmost
; Function compile flags: /Ogsp
; File c:\program files (x86)\microsoft visual studio 10.0\vc\include\xtree
;	COMDAT ?_Rmost@?$_Tree@V?$_Tmap_traits@KUDefenseList@ioDefenseController@@U?$less@K@std@@V?$allocator@U?$pair@$$CBKUDefenseList@ioDefenseController@@@std@@@4@$0A@@std@@@std@@IBEAAPAU_Node@?$_Tree_nod@V?$_Tmap_traits@KUDefenseList@ioDefenseController@@U?$less@K@std@@V?$allocator@U?$pair@$$CBKUDefenseList@ioDefenseController@@@std@@@4@$0A@@std@@@2@XZ
_TEXT	SEGMENT
?_Rmost@?$_Tree@V?$_Tmap_traits@KUDefenseList@ioDefenseController@@U?$less@K@std@@V?$allocator@U?$pair@$$CBKUDefenseList@ioDefenseController@@@std@@@4@$0A@@std@@@std@@IBEAAPAU_Node@?$_Tree_nod@V?$_Tmap_traits@KUDefenseList@ioDefenseController@@U?$less@K@std@@V?$allocator@U?$pair@$$CBKUDefenseList@ioDefenseController@@@std@@@4@$0A@@std@@@2@XZ PROC ; std::_Tree<std::_Tmap_traits<unsigned long,ioDefenseController::DefenseList,std::less<unsigned long>,std::allocator<std::pair<unsigned long const ,ioDefenseController::DefenseList> >,0> >::_Rmost, COMDAT
; _this$ = ecx

; 1784 : 		return (this->_Right(this->_Myhead));

  00000	8b 41 04	 mov	 eax, DWORD PTR [ecx+4]
  00003	83 c0 08	 add	 eax, 8

; 1785 : 		}

  00006	c3		 ret	 0
?_Rmost@?$_Tree@V?$_Tmap_traits@KUDefenseList@ioDefenseController@@U?$less@K@std@@V?$allocator@U?$pair@$$CBKUDefenseList@ioDefenseController@@@std@@@4@$0A@@std@@@std@@IBEAAPAU_Node@?$_Tree_nod@V?$_Tmap_traits@KUDefenseList@ioDefenseController@@U?$less@K@std@@V?$allocator@U?$pair@$$CBKUDefenseList@ioDefenseController@@@std@@@4@$0A@@std@@@2@XZ ENDP ; std::_Tree<std::_Tmap_traits<unsigned long,ioDefenseController::DefenseList,std::less<unsigned long>,std::allocator<std::pair<unsigned long const ,ioDefenseController::DefenseList> >,0> >::_Rmost
_TEXT	ENDS
PUBLIC	?_Max@?$_Tree_val@V?$_Tmap_traits@KUDefenseList@ioDefenseController@@U?$less@K@std@@V?$allocator@U?$pair@$$CBKUDefenseList@ioDefenseController@@@std@@@4@$0A@@std@@@std@@SAPAU_Node@?$_Tree_nod@V?$_Tmap_traits@KUDefenseList@ioDefenseController@@U?$less@K@std@@V?$allocator@U?$pair@$$CBKUDefenseList@ioDefenseController@@@std@@@4@$0A@@std@@@2@PAU342@@Z ; std::_Tree_val<std::_Tmap_traits<unsigned long,ioDefenseController::DefenseList,std::less<unsigned long>,std::allocator<std::pair<unsigned long const ,ioDefenseController::DefenseList> >,0> >::_Max
; Function compile flags: /Ogsp
;	COMDAT ?_Max@?$_Tree_val@V?$_Tmap_traits@KUDefenseList@ioDefenseController@@U?$less@K@std@@V?$allocator@U?$pair@$$CBKUDefenseList@ioDefenseController@@@std@@@4@$0A@@std@@@std@@SAPAU_Node@?$_Tree_nod@V?$_Tmap_traits@KUDefenseList@ioDefenseController@@U?$less@K@std@@V?$allocator@U?$pair@$$CBKUDefenseList@ioDefenseController@@@std@@@4@$0A@@std@@@2@PAU342@@Z
_TEXT	SEGMENT
__Pnode$ = 8						; size = 4
?_Max@?$_Tree_val@V?$_Tmap_traits@KUDefenseList@ioDefenseController@@U?$less@K@std@@V?$allocator@U?$pair@$$CBKUDefenseList@ioDefenseController@@@std@@@4@$0A@@std@@@std@@SAPAU_Node@?$_Tree_nod@V?$_Tmap_traits@KUDefenseList@ioDefenseController@@U?$less@K@std@@V?$allocator@U?$pair@$$CBKUDefenseList@ioDefenseController@@@std@@@4@$0A@@std@@@2@PAU342@@Z PROC ; std::_Tree_val<std::_Tmap_traits<unsigned long,ioDefenseController::DefenseList,std::less<unsigned long>,std::allocator<std::pair<unsigned long const ,ioDefenseController::DefenseList> >,0> >::_Max, COMDAT

; 641  : 		{	// return rightmost node in subtree at _Pnode

  00000	55		 push	 ebp
  00001	8b ec		 mov	 ebp, esp

; 642  : 		while (!_Isnil(_Right(_Pnode)))

  00003	8b 45 08	 mov	 eax, DWORD PTR __Pnode$[ebp]
  00006	eb 02		 jmp	 SHORT $LN14@Max
$LL2@Max:

; 643  : 			_Pnode = _Right(_Pnode);

  00008	8b c1		 mov	 eax, ecx
$LN14@Max:

; 642  : 		while (!_Isnil(_Right(_Pnode)))

  0000a	8b 48 08	 mov	 ecx, DWORD PTR [eax+8]
  0000d	80 79 3d 00	 cmp	 BYTE PTR [ecx+61], 0
  00011	74 f5		 je	 SHORT $LL2@Max

; 644  : 		return (_Pnode);
; 645  : 		}

  00013	5d		 pop	 ebp
  00014	c3		 ret	 0
?_Max@?$_Tree_val@V?$_Tmap_traits@KUDefenseList@ioDefenseController@@U?$less@K@std@@V?$allocator@U?$pair@$$CBKUDefenseList@ioDefenseController@@@std@@@4@$0A@@std@@@std@@SAPAU_Node@?$_Tree_nod@V?$_Tmap_traits@KUDefenseList@ioDefenseController@@U?$less@K@std@@V?$allocator@U?$pair@$$CBKUDefenseList@ioDefenseController@@@std@@@4@$0A@@std@@@2@PAU342@@Z ENDP ; std::_Tree_val<std::_Tmap_traits<unsigned long,ioDefenseController::DefenseList,std::less<unsigned long>,std::allocator<std::pair<unsigned long const ,ioDefenseController::DefenseList> >,0> >::_Max
_TEXT	ENDS
PUBLIC	??0?$_Tmap_traits@KUDefenseList@ioDefenseController@@U?$less@K@std@@V?$allocator@U?$pair@$$CBKUDefenseList@ioDefenseController@@@std@@@4@$0A@@std@@QAE@U?$less@K@1@@Z ; std::_Tmap_traits<unsigned long,ioDefenseController::DefenseList,std::less<unsigned long>,std::allocator<std::pair<unsigned long const ,ioDefenseController::DefenseList> >,0>::_Tmap_traits<unsigned long,ioDefenseController::DefenseList,std::less<unsigned long>,std::allocator<std::pair<unsigned long const ,ioDefenseController::DefenseList> >,0>
; Function compile flags: /Ogsp
; File c:\program files (x86)\microsoft visual studio 10.0\vc\include\map
;	COMDAT ??0?$_Tmap_traits@KUDefenseList@ioDefenseController@@U?$less@K@std@@V?$allocator@U?$pair@$$CBKUDefenseList@ioDefenseController@@@std@@@4@$0A@@std@@QAE@U?$less@K@1@@Z
_TEXT	SEGMENT
__Parg$ = 8						; size = 1
??0?$_Tmap_traits@KUDefenseList@ioDefenseController@@U?$less@K@std@@V?$allocator@U?$pair@$$CBKUDefenseList@ioDefenseController@@@std@@@4@$0A@@std@@QAE@U?$less@K@1@@Z PROC ; std::_Tmap_traits<unsigned long,ioDefenseController::DefenseList,std::less<unsigned long>,std::allocator<std::pair<unsigned long const ,ioDefenseController::DefenseList> >,0>::_Tmap_traits<unsigned long,ioDefenseController::DefenseList,std::less<unsigned long>,std::allocator<std::pair<unsigned long const ,ioDefenseController::DefenseList> >,0>, COMDAT
; _this$ = ecx

; 40   : 		{	// construct with specified comparator

  00000	8b c1		 mov	 eax, ecx

; 41   : 		}

  00002	c2 04 00	 ret	 4
??0?$_Tmap_traits@KUDefenseList@ioDefenseController@@U?$less@K@std@@V?$allocator@U?$pair@$$CBKUDefenseList@ioDefenseController@@@std@@@4@$0A@@std@@QAE@U?$less@K@1@@Z ENDP ; std::_Tmap_traits<unsigned long,ioDefenseController::DefenseList,std::less<unsigned long>,std::allocator<std::pair<unsigned long const ,ioDefenseController::DefenseList> >,0>::_Tmap_traits<unsigned long,ioDefenseController::DefenseList,std::less<unsigned long>,std::allocator<std::pair<unsigned long const ,ioDefenseController::DefenseList> >,0>
_TEXT	ENDS
PUBLIC	?_Compat@?$_Vector_const_iterator@V?$_Vector_val@UDefenseData@ioDefenseController@@V?$allocator@UDefenseData@ioDefenseController@@@std@@@std@@@std@@QBEXABV12@@Z ; std::_Vector_const_iterator<std::_Vector_val<ioDefenseController::DefenseData,std::allocator<ioDefenseController::DefenseData> > >::_Compat
; Function compile flags: /Ogsp
; File c:\program files (x86)\microsoft visual studio 10.0\vc\include\vector
;	COMDAT ?_Compat@?$_Vector_const_iterator@V?$_Vector_val@UDefenseData@ioDefenseController@@V?$allocator@UDefenseData@ioDefenseController@@@std@@@std@@@std@@QBEXABV12@@Z
_TEXT	SEGMENT
___formal$ = 8						; size = 4
?_Compat@?$_Vector_const_iterator@V?$_Vector_val@UDefenseData@ioDefenseController@@V?$allocator@UDefenseData@ioDefenseController@@@std@@@std@@@std@@QBEXABV12@@Z PROC ; std::_Vector_const_iterator<std::_Vector_val<ioDefenseController::DefenseData,std::allocator<ioDefenseController::DefenseData> > >::_Compat, COMDAT
; _this$ = ecx

; 253  : 		}

  00000	c2 04 00	 ret	 4
?_Compat@?$_Vector_const_iterator@V?$_Vector_val@UDefenseData@ioDefenseController@@V?$allocator@UDefenseData@ioDefenseController@@@std@@@std@@@std@@QBEXABV12@@Z ENDP ; std::_Vector_const_iterator<std::_Vector_val<ioDefenseController::DefenseData,std::allocator<ioDefenseController::DefenseData> > >::_Compat
_TEXT	ENDS
PUBLIC	??$addressof@$$CBUDefenseData@ioDefenseController@@@std@@YAPBUDefenseData@ioDefenseController@@ABU12@@Z ; std::addressof<ioDefenseController::DefenseData const >
; Function compile flags: /Ogsp
; File c:\program files (x86)\microsoft visual studio 10.0\vc\include\xmemory
;	COMDAT ??$addressof@$$CBUDefenseData@ioDefenseController@@@std@@YAPBUDefenseData@ioDefenseController@@ABU12@@Z
_TEXT	SEGMENT
__Val$ = 8						; size = 4
??$addressof@$$CBUDefenseData@ioDefenseController@@@std@@YAPBUDefenseData@ioDefenseController@@ABU12@@Z PROC ; std::addressof<ioDefenseController::DefenseData const >, COMDAT

; 110  : 	{	// return address of _Val

  00000	55		 push	 ebp
  00001	8b ec		 mov	 ebp, esp

; 111  : 	return ((_Ty *) &(char&)_Val);

  00003	8b 45 08	 mov	 eax, DWORD PTR __Val$[ebp]

; 112  : 	}

  00006	5d		 pop	 ebp
  00007	c3		 ret	 0
??$addressof@$$CBUDefenseData@ioDefenseController@@@std@@YAPBUDefenseData@ioDefenseController@@ABU12@@Z ENDP ; std::addressof<ioDefenseController::DefenseData const >
_TEXT	ENDS
PUBLIC	??$_Kfn@$$CBKUDefenseList@ioDefenseController@@@?$_Tmap_traits@KUDefenseList@ioDefenseController@@U?$less@K@std@@V?$allocator@U?$pair@$$CBKUDefenseList@ioDefenseController@@@std@@@4@$0A@@std@@SAABKABU?$pair@$$CBKUDefenseList@ioDefenseController@@@1@@Z ; std::_Tmap_traits<unsigned long,ioDefenseController::DefenseList,std::less<unsigned long>,std::allocator<std::pair<unsigned long const ,ioDefenseController::DefenseList> >,0>::_Kfn<unsigned long const ,ioDefenseController::DefenseList>
; Function compile flags: /Ogsp
; File c:\program files (x86)\microsoft visual studio 10.0\vc\include\map
;	COMDAT ??$_Kfn@$$CBKUDefenseList@ioDefenseController@@@?$_Tmap_traits@KUDefenseList@ioDefenseController@@U?$less@K@std@@V?$allocator@U?$pair@$$CBKUDefenseList@ioDefenseController@@@std@@@4@$0A@@std@@SAABKABU?$pair@$$CBKUDefenseList@ioDefenseController@@@1@@Z
_TEXT	SEGMENT
__Val$ = 8						; size = 4
??$_Kfn@$$CBKUDefenseList@ioDefenseController@@@?$_Tmap_traits@KUDefenseList@ioDefenseController@@U?$less@K@std@@V?$allocator@U?$pair@$$CBKUDefenseList@ioDefenseController@@@std@@@4@$0A@@std@@SAABKABU?$pair@$$CBKUDefenseList@ioDefenseController@@@1@@Z PROC ; std::_Tmap_traits<unsigned long,ioDefenseController::DefenseList,std::less<unsigned long>,std::allocator<std::pair<unsigned long const ,ioDefenseController::DefenseList> >,0>::_Kfn<unsigned long const ,ioDefenseController::DefenseList>, COMDAT

; 66   : 		static const _Kty& _Kfn(const _STD pair<_Ty1, _Ty2>& _Val)

  00000	55		 push	 ebp
  00001	8b ec		 mov	 ebp, esp

; 67   : 		{	// extract key from element value
; 68   : 		return (_Val.first);

  00003	8b 45 08	 mov	 eax, DWORD PTR __Val$[ebp]

; 69   : 		}

  00006	5d		 pop	 ebp
  00007	c3		 ret	 0
??$_Kfn@$$CBKUDefenseList@ioDefenseController@@@?$_Tmap_traits@KUDefenseList@ioDefenseController@@U?$less@K@std@@V?$allocator@U?$pair@$$CBKUDefenseList@ioDefenseController@@@std@@@4@$0A@@std@@SAABKABU?$pair@$$CBKUDefenseList@ioDefenseController@@@1@@Z ENDP ; std::_Tmap_traits<unsigned long,ioDefenseController::DefenseList,std::less<unsigned long>,std::allocator<std::pair<unsigned long const ,ioDefenseController::DefenseList> >,0>::_Kfn<unsigned long const ,ioDefenseController::DefenseList>
_TEXT	ENDS
PUBLIC	__TI2?AVbad_alloc@std@@
PUBLIC	??$_Allocate@V?$basic_string@DU?$char_traits@D@std@@V?$allocator@D@2@@std@@@std@@YAPAV?$basic_string@DU?$char_traits@D@std@@V?$allocator@D@2@@0@IPAV10@@Z ; std::_Allocate<std::basic_string<char,std::char_traits<char>,std::allocator<char> > >
PUBLIC	__CTA2?AVbad_alloc@std@@
PUBLIC	__CT??_R0?AVbad_alloc@std@@@8??0bad_alloc@std@@QAE@ABV01@@Z12
PUBLIC	??0bad_alloc@std@@QAE@ABV01@@Z			; std::bad_alloc::bad_alloc
PUBLIC	__CT??_R0?AVexception@std@@@8??0exception@std@@QAE@ABV01@@Z12
EXTRN	??2@YAPAXI@Z:PROC				; operator new
EXTRN	__CxxThrowException@8:PROC
EXTRN	??0exception@std@@QAE@ABV01@@Z:PROC		; std::exception::exception
;	COMDAT __CT??_R0?AVexception@std@@@8??0exception@std@@QAE@ABV01@@Z12
; File c:\program files (x86)\microsoft visual studio 10.0\vc\include\exception
xdata$x	SEGMENT
__CT??_R0?AVexception@std@@@8??0exception@std@@QAE@ABV01@@Z12 DD 00H
	DD	FLAT:??_R0?AVexception@std@@@8
	DD	00H
	DD	0ffffffffH
	ORG $+4
	DD	0cH
	DD	FLAT:??0exception@std@@QAE@ABV01@@Z
xdata$x	ENDS
;	COMDAT __CT??_R0?AVbad_alloc@std@@@8??0bad_alloc@std@@QAE@ABV01@@Z12
xdata$x	SEGMENT
__CT??_R0?AVbad_alloc@std@@@8??0bad_alloc@std@@QAE@ABV01@@Z12 DD 00H
	DD	FLAT:??_R0?AVbad_alloc@std@@@8
	DD	00H
	DD	0ffffffffH
	ORG $+4
	DD	0cH
	DD	FLAT:??0bad_alloc@std@@QAE@ABV01@@Z
xdata$x	ENDS
;	COMDAT __CTA2?AVbad_alloc@std@@
xdata$x	SEGMENT
__CTA2?AVbad_alloc@std@@ DD 02H
	DD	FLAT:__CT??_R0?AVbad_alloc@std@@@8??0bad_alloc@std@@QAE@ABV01@@Z12
	DD	FLAT:__CT??_R0?AVexception@std@@@8??0exception@std@@QAE@ABV01@@Z12
xdata$x	ENDS
;	COMDAT __TI2?AVbad_alloc@std@@
xdata$x	SEGMENT
__TI2?AVbad_alloc@std@@ DD 00H
	DD	FLAT:??1bad_alloc@std@@UAE@XZ
	DD	00H
	DD	FLAT:__CTA2?AVbad_alloc@std@@
; Function compile flags: /Ogsp
; File c:\program files (x86)\microsoft visual studio 10.0\vc\include\xmemory
xdata$x	ENDS
;	COMDAT ??$_Allocate@V?$basic_string@DU?$char_traits@D@std@@V?$allocator@D@2@@std@@@std@@YAPAV?$basic_string@DU?$char_traits@D@std@@V?$allocator@D@2@@0@IPAV10@@Z
_TEXT	SEGMENT
$T537855 = -12						; size = 12
$T537860 = 8						; size = 4
__Count$ = 8						; size = 4
___formal$ = 12						; size = 4
??$_Allocate@V?$basic_string@DU?$char_traits@D@std@@V?$allocator@D@2@@std@@@std@@YAPAV?$basic_string@DU?$char_traits@D@std@@V?$allocator@D@2@@0@IPAV10@@Z PROC ; std::_Allocate<std::basic_string<char,std::char_traits<char>,std::allocator<char> > >, COMDAT

; 30   : 	{	// allocate storage for _Count elements of type _Ty

  00000	55		 push	 ebp
  00001	8b ec		 mov	 ebp, esp

; 31   : 	void *_Ptr = 0;
; 32   : 
; 33   : 	if (_Count <= 0)

  00003	8b 4d 08	 mov	 ecx, DWORD PTR __Count$[ebp]
  00006	83 ec 0c	 sub	 esp, 12			; 0000000cH
  00009	33 c0		 xor	 eax, eax
  0000b	85 c9		 test	 ecx, ecx

; 34   : 		_Count = 0;
; 35   : 	else if (((_SIZT)(-1) / sizeof (_Ty) < _Count)

  0000d	74 3c		 je	 SHORT $LN5@Allocate

; 36   : 		|| (_Ptr = ::operator new(_Count * sizeof (_Ty))) == 0)

  0000f	81 f9 49 92 24
	09		 cmp	 ecx, 153391689		; 09249249H
  00015	77 0e		 ja	 SHORT $LN1@Allocate
  00017	6b c9 1c	 imul	 ecx, 28			; 0000001cH
  0001a	51		 push	 ecx
  0001b	e8 00 00 00 00	 call	 ??2@YAPAXI@Z		; operator new
  00020	59		 pop	 ecx
  00021	85 c0		 test	 eax, eax

; 38   : 
; 39   : 	return ((_Ty _FARQ *)_Ptr);

  00023	75 26		 jne	 SHORT $LN5@Allocate
$LN1@Allocate:

; 37   : 		_THROW_NCEE(bad_alloc, 0);

  00025	83 65 08 00	 and	 DWORD PTR $T537860[ebp], 0
  00029	8d 45 08	 lea	 eax, DWORD PTR $T537860[ebp]
  0002c	50		 push	 eax
  0002d	8d 4d f4	 lea	 ecx, DWORD PTR $T537855[ebp]
  00030	ff 15 00 00 00
	00		 call	 DWORD PTR __imp_??0exception@std@@QAE@ABQBD@Z
  00036	68 00 00 00 00	 push	 OFFSET __TI2?AVbad_alloc@std@@
  0003b	8d 45 f4	 lea	 eax, DWORD PTR $T537855[ebp]
  0003e	50		 push	 eax
  0003f	c7 45 f4 00 00
	00 00		 mov	 DWORD PTR $T537855[ebp], OFFSET ??_7bad_alloc@std@@6B@
  00046	e8 00 00 00 00	 call	 __CxxThrowException@8
$LN10@Allocate:
$LN5@Allocate:

; 40   : 	}

  0004b	c9		 leave
  0004c	c3		 ret	 0
$LN9@Allocate:
??$_Allocate@V?$basic_string@DU?$char_traits@D@std@@V?$allocator@D@2@@std@@@std@@YAPAV?$basic_string@DU?$char_traits@D@std@@V?$allocator@D@2@@0@IPAV10@@Z ENDP ; std::_Allocate<std::basic_string<char,std::char_traits<char>,std::allocator<char> > >
_TEXT	ENDS
PUBLIC	??$_Allocate@UDefenseData@ioDefenseController@@@std@@YAPAUDefenseData@ioDefenseController@@IPAU12@@Z ; std::_Allocate<ioDefenseController::DefenseData>
; Function compile flags: /Ogsp
;	COMDAT ??$_Allocate@UDefenseData@ioDefenseController@@@std@@YAPAUDefenseData@ioDefenseController@@IPAU12@@Z
_TEXT	SEGMENT
$T537865 = -12						; size = 12
$T537869 = 8						; size = 4
__Count$ = 8						; size = 4
___formal$ = 12						; size = 4
??$_Allocate@UDefenseData@ioDefenseController@@@std@@YAPAUDefenseData@ioDefenseController@@IPAU12@@Z PROC ; std::_Allocate<ioDefenseController::DefenseData>, COMDAT

; 30   : 	{	// allocate storage for _Count elements of type _Ty

  00000	55		 push	 ebp
  00001	8b ec		 mov	 ebp, esp

; 31   : 	void *_Ptr = 0;
; 32   : 
; 33   : 	if (_Count <= 0)

  00003	8b 4d 08	 mov	 ecx, DWORD PTR __Count$[ebp]
  00006	83 ec 0c	 sub	 esp, 12			; 0000000cH
  00009	33 c0		 xor	 eax, eax
  0000b	85 c9		 test	 ecx, ecx

; 34   : 		_Count = 0;
; 35   : 	else if (((_SIZT)(-1) / sizeof (_Ty) < _Count)

  0000d	74 3e		 je	 SHORT $LN5@Allocate@2

; 36   : 		|| (_Ptr = ::operator new(_Count * sizeof (_Ty))) == 0)

  0000f	81 f9 ff ff ff
	1f		 cmp	 ecx, 536870911		; 1fffffffH
  00015	77 10		 ja	 SHORT $LN1@Allocate@2
  00017	8b c1		 mov	 eax, ecx
  00019	c1 e0 03	 shl	 eax, 3
  0001c	50		 push	 eax
  0001d	e8 00 00 00 00	 call	 ??2@YAPAXI@Z		; operator new
  00022	59		 pop	 ecx
  00023	85 c0		 test	 eax, eax

; 38   : 
; 39   : 	return ((_Ty _FARQ *)_Ptr);

  00025	75 26		 jne	 SHORT $LN5@Allocate@2
$LN1@Allocate@2:

; 37   : 		_THROW_NCEE(bad_alloc, 0);

  00027	83 65 08 00	 and	 DWORD PTR $T537869[ebp], 0
  0002b	8d 45 08	 lea	 eax, DWORD PTR $T537869[ebp]
  0002e	50		 push	 eax
  0002f	8d 4d f4	 lea	 ecx, DWORD PTR $T537865[ebp]
  00032	ff 15 00 00 00
	00		 call	 DWORD PTR __imp_??0exception@std@@QAE@ABQBD@Z
  00038	68 00 00 00 00	 push	 OFFSET __TI2?AVbad_alloc@std@@
  0003d	8d 45 f4	 lea	 eax, DWORD PTR $T537865[ebp]
  00040	50		 push	 eax
  00041	c7 45 f4 00 00
	00 00		 mov	 DWORD PTR $T537865[ebp], OFFSET ??_7bad_alloc@std@@6B@
  00048	e8 00 00 00 00	 call	 __CxxThrowException@8
$LN10@Allocate@2:
$LN5@Allocate@2:

; 40   : 	}

  0004d	c9		 leave
  0004e	c3		 ret	 0
$LN9@Allocate@2:
??$_Allocate@UDefenseData@ioDefenseController@@@std@@YAPAUDefenseData@ioDefenseController@@IPAU12@@Z ENDP ; std::_Allocate<ioDefenseController::DefenseData>
_TEXT	ENDS
PUBLIC	??$addressof@U?$pair@$$CBKUDefenseList@ioDefenseController@@@std@@@std@@YAPAU?$pair@$$CBKUDefenseList@ioDefenseController@@@0@AAU10@@Z ; std::addressof<std::pair<unsigned long const ,ioDefenseController::DefenseList> >
; Function compile flags: /Ogsp
;	COMDAT ??$addressof@U?$pair@$$CBKUDefenseList@ioDefenseController@@@std@@@std@@YAPAU?$pair@$$CBKUDefenseList@ioDefenseController@@@0@AAU10@@Z
_TEXT	SEGMENT
__Val$ = 8						; size = 4
??$addressof@U?$pair@$$CBKUDefenseList@ioDefenseController@@@std@@@std@@YAPAU?$pair@$$CBKUDefenseList@ioDefenseController@@@0@AAU10@@Z PROC ; std::addressof<std::pair<unsigned long const ,ioDefenseController::DefenseList> >, COMDAT

; 110  : 	{	// return address of _Val

  00000	55		 push	 ebp
  00001	8b ec		 mov	 ebp, esp

; 111  : 	return ((_Ty *) &(char&)_Val);

  00003	8b 45 08	 mov	 eax, DWORD PTR __Val$[ebp]

; 112  : 	}

  00006	5d		 pop	 ebp
  00007	c3		 ret	 0
??$addressof@U?$pair@$$CBKUDefenseList@ioDefenseController@@@std@@@std@@YAPAU?$pair@$$CBKUDefenseList@ioDefenseController@@@0@AAU10@@Z ENDP ; std::addressof<std::pair<unsigned long const ,ioDefenseController::DefenseList> >
_TEXT	ENDS
PUBLIC	??$?0U?$pair@$$CBKUDefenseList@ioDefenseController@@@std@@@?$allocator@U_Node@?$_Tree_nod@V?$_Tmap_traits@KUDefenseList@ioDefenseController@@U?$less@K@std@@V?$allocator@U?$pair@$$CBKUDefenseList@ioDefenseController@@@std@@@4@$0A@@std@@@std@@@std@@QAE@ABV?$allocator@U?$pair@$$CBKUDefenseList@ioDefenseController@@@std@@@1@@Z ; std::allocator<std::_Tree_nod<std::_Tmap_traits<unsigned long,ioDefenseController::DefenseList,std::less<unsigned long>,std::allocator<std::pair<unsigned long const ,ioDefenseController::DefenseList> >,0> >::_Node>::allocator<std::_Tree_nod<std::_Tmap_traits<unsigned long,ioDefenseController::DefenseList,std::less<unsigned long>,std::allocator<std::pair<unsigned long const ,ioDefenseController::DefenseList> >,0> >::_Node><std::pair<unsigned long const ,ioDefenseController::DefenseList> >
; Function compile flags: /Ogsp
;	COMDAT ??$?0U?$pair@$$CBKUDefenseList@ioDefenseController@@@std@@@?$allocator@U_Node@?$_Tree_nod@V?$_Tmap_traits@KUDefenseList@ioDefenseController@@U?$less@K@std@@V?$allocator@U?$pair@$$CBKUDefenseList@ioDefenseController@@@std@@@4@$0A@@std@@@std@@@std@@QAE@ABV?$allocator@U?$pair@$$CBKUDefenseList@ioDefenseController@@@std@@@1@@Z
_TEXT	SEGMENT
___formal$ = 8						; size = 4
??$?0U?$pair@$$CBKUDefenseList@ioDefenseController@@@std@@@?$allocator@U_Node@?$_Tree_nod@V?$_Tmap_traits@KUDefenseList@ioDefenseController@@U?$less@K@std@@V?$allocator@U?$pair@$$CBKUDefenseList@ioDefenseController@@@std@@@4@$0A@@std@@@std@@@std@@QAE@ABV?$allocator@U?$pair@$$CBKUDefenseList@ioDefenseController@@@std@@@1@@Z PROC ; std::allocator<std::_Tree_nod<std::_Tmap_traits<unsigned long,ioDefenseController::DefenseList,std::less<unsigned long>,std::allocator<std::pair<unsigned long const ,ioDefenseController::DefenseList> >,0> >::_Node>::allocator<std::_Tree_nod<std::_Tmap_traits<unsigned long,ioDefenseController::DefenseList,std::less<unsigned long>,std::allocator<std::pair<unsigned long const ,ioDefenseController::DefenseList> >,0> >::_Node><std::pair<unsigned long const ,ioDefenseController::DefenseList> >, COMDAT
; _this$ = ecx

; 170  : 		_ALLOCATOR(const _ALLOCATOR<_Other>&) _THROW0()

  00000	8b c1		 mov	 eax, ecx

; 171  : 		{	// construct from a related allocator (do nothing)
; 172  : 		}

  00002	c2 04 00	 ret	 4
??$?0U?$pair@$$CBKUDefenseList@ioDefenseController@@@std@@@?$allocator@U_Node@?$_Tree_nod@V?$_Tmap_traits@KUDefenseList@ioDefenseController@@U?$less@K@std@@V?$allocator@U?$pair@$$CBKUDefenseList@ioDefenseController@@@std@@@4@$0A@@std@@@std@@@std@@QAE@ABV?$allocator@U?$pair@$$CBKUDefenseList@ioDefenseController@@@std@@@1@@Z ENDP ; std::allocator<std::_Tree_nod<std::_Tmap_traits<unsigned long,ioDefenseController::DefenseList,std::less<unsigned long>,std::allocator<std::pair<unsigned long const ,ioDefenseController::DefenseList> >,0> >::_Node>::allocator<std::_Tree_nod<std::_Tmap_traits<unsigned long,ioDefenseController::DefenseList,std::less<unsigned long>,std::allocator<std::pair<unsigned long const ,ioDefenseController::DefenseList> >,0> >::_Node><std::pair<unsigned long const ,ioDefenseController::DefenseList> >
_TEXT	ENDS
PUBLIC	??$_Allocate@U_Node@?$_Tree_nod@V?$_Tmap_traits@KUDefenseList@ioDefenseController@@U?$less@K@std@@V?$allocator@U?$pair@$$CBKUDefenseList@ioDefenseController@@@std@@@4@$0A@@std@@@std@@@std@@YAPAU_Node@?$_Tree_nod@V?$_Tmap_traits@KUDefenseList@ioDefenseController@@U?$less@K@std@@V?$allocator@U?$pair@$$CBKUDefenseList@ioDefenseController@@@std@@@4@$0A@@std@@@0@IPAU120@@Z ; std::_Allocate<std::_Tree_nod<std::_Tmap_traits<unsigned long,ioDefenseController::DefenseList,std::less<unsigned long>,std::allocator<std::pair<unsigned long const ,ioDefenseController::DefenseList> >,0> >::_Node>
; Function compile flags: /Ogsp
;	COMDAT ??$_Allocate@U_Node@?$_Tree_nod@V?$_Tmap_traits@KUDefenseList@ioDefenseController@@U?$less@K@std@@V?$allocator@U?$pair@$$CBKUDefenseList@ioDefenseController@@@std@@@4@$0A@@std@@@std@@@std@@YAPAU_Node@?$_Tree_nod@V?$_Tmap_traits@KUDefenseList@ioDefenseController@@U?$less@K@std@@V?$allocator@U?$pair@$$CBKUDefenseList@ioDefenseController@@@std@@@4@$0A@@std@@@0@IPAU120@@Z
_TEXT	SEGMENT
$T537879 = -12						; size = 12
$T537883 = 8						; size = 4
__Count$ = 8						; size = 4
___formal$ = 12						; size = 4
??$_Allocate@U_Node@?$_Tree_nod@V?$_Tmap_traits@KUDefenseList@ioDefenseController@@U?$less@K@std@@V?$allocator@U?$pair@$$CBKUDefenseList@ioDefenseController@@@std@@@4@$0A@@std@@@std@@@std@@YAPAU_Node@?$_Tree_nod@V?$_Tmap_traits@KUDefenseList@ioDefenseController@@U?$less@K@std@@V?$allocator@U?$pair@$$CBKUDefenseList@ioDefenseController@@@std@@@4@$0A@@std@@@0@IPAU120@@Z PROC ; std::_Allocate<std::_Tree_nod<std::_Tmap_traits<unsigned long,ioDefenseController::DefenseList,std::less<unsigned long>,std::allocator<std::pair<unsigned long const ,ioDefenseController::DefenseList> >,0> >::_Node>, COMDAT

; 30   : 	{	// allocate storage for _Count elements of type _Ty

  00000	55		 push	 ebp
  00001	8b ec		 mov	 ebp, esp

; 31   : 	void *_Ptr = 0;
; 32   : 
; 33   : 	if (_Count <= 0)

  00003	8b 4d 08	 mov	 ecx, DWORD PTR __Count$[ebp]
  00006	83 ec 0c	 sub	 esp, 12			; 0000000cH
  00009	33 c0		 xor	 eax, eax
  0000b	85 c9		 test	 ecx, ecx

; 34   : 		_Count = 0;
; 35   : 	else if (((_SIZT)(-1) / sizeof (_Ty) < _Count)

  0000d	74 3c		 je	 SHORT $LN5@Allocate@3

; 36   : 		|| (_Ptr = ::operator new(_Count * sizeof (_Ty))) == 0)

  0000f	81 f9 ff ff ff
	03		 cmp	 ecx, 67108863		; 03ffffffH
  00015	77 0e		 ja	 SHORT $LN1@Allocate@3
  00017	c1 e1 06	 shl	 ecx, 6
  0001a	51		 push	 ecx
  0001b	e8 00 00 00 00	 call	 ??2@YAPAXI@Z		; operator new
  00020	59		 pop	 ecx
  00021	85 c0		 test	 eax, eax

; 38   : 
; 39   : 	return ((_Ty _FARQ *)_Ptr);

  00023	75 26		 jne	 SHORT $LN5@Allocate@3
$LN1@Allocate@3:

; 37   : 		_THROW_NCEE(bad_alloc, 0);

  00025	83 65 08 00	 and	 DWORD PTR $T537883[ebp], 0
  00029	8d 45 08	 lea	 eax, DWORD PTR $T537883[ebp]
  0002c	50		 push	 eax
  0002d	8d 4d f4	 lea	 ecx, DWORD PTR $T537879[ebp]
  00030	ff 15 00 00 00
	00		 call	 DWORD PTR __imp_??0exception@std@@QAE@ABQBD@Z
  00036	68 00 00 00 00	 push	 OFFSET __TI2?AVbad_alloc@std@@
  0003b	8d 45 f4	 lea	 eax, DWORD PTR $T537879[ebp]
  0003e	50		 push	 eax
  0003f	c7 45 f4 00 00
	00 00		 mov	 DWORD PTR $T537879[ebp], OFFSET ??_7bad_alloc@std@@6B@
  00046	e8 00 00 00 00	 call	 __CxxThrowException@8
$LN10@Allocate@3:
$LN5@Allocate@3:

; 40   : 	}

  0004b	c9		 leave
  0004c	c3		 ret	 0
$LN9@Allocate@3:
??$_Allocate@U_Node@?$_Tree_nod@V?$_Tmap_traits@KUDefenseList@ioDefenseController@@U?$less@K@std@@V?$allocator@U?$pair@$$CBKUDefenseList@ioDefenseController@@@std@@@4@$0A@@std@@@std@@@std@@YAPAU_Node@?$_Tree_nod@V?$_Tmap_traits@KUDefenseList@ioDefenseController@@U?$less@K@std@@V?$allocator@U?$pair@$$CBKUDefenseList@ioDefenseController@@@std@@@4@$0A@@std@@@0@IPAU120@@Z ENDP ; std::_Allocate<std::_Tree_nod<std::_Tmap_traits<unsigned long,ioDefenseController::DefenseList,std::less<unsigned long>,std::allocator<std::pair<unsigned long const ,ioDefenseController::DefenseList> >,0> >::_Node>
_TEXT	ENDS
PUBLIC	?max_size@?$allocator@U?$pair@$$CBKUDefenseList@ioDefenseController@@@std@@@std@@QBEIXZ ; std::allocator<std::pair<unsigned long const ,ioDefenseController::DefenseList> >::max_size
; Function compile flags: /Ogsp
;	COMDAT ?max_size@?$allocator@U?$pair@$$CBKUDefenseList@ioDefenseController@@@std@@@std@@QBEIXZ
_TEXT	SEGMENT
?max_size@?$allocator@U?$pair@$$CBKUDefenseList@ioDefenseController@@@std@@@std@@QBEIXZ PROC ; std::allocator<std::pair<unsigned long const ,ioDefenseController::DefenseList> >::max_size, COMDAT
; _this$ = ecx

; 218  : 		_SIZT _Count = (_SIZT)(-1) / sizeof (_Ty);
; 219  : 		return (0 < _Count ? _Count : 1);

  00000	b8 55 55 55 05	 mov	 eax, 89478485		; 05555555H

; 220  : 		}

  00005	c3		 ret	 0
?max_size@?$allocator@U?$pair@$$CBKUDefenseList@ioDefenseController@@@std@@@std@@QBEIXZ ENDP ; std::allocator<std::pair<unsigned long const ,ioDefenseController::DefenseList> >::max_size
_TEXT	ENDS
PUBLIC	??F?$_Tree_unchecked_const_iterator@V?$_Tree_val@V?$_Tmap_traits@KUDefenseList@ioDefenseController@@U?$less@K@std@@V?$allocator@U?$pair@$$CBKUDefenseList@ioDefenseController@@@std@@@4@$0A@@std@@@std@@U_Iterator_base0@2@@std@@QAEAAV01@XZ ; std::_Tree_unchecked_const_iterator<std::_Tree_val<std::_Tmap_traits<unsigned long,ioDefenseController::DefenseList,std::less<unsigned long>,std::allocator<std::pair<unsigned long const ,ioDefenseController::DefenseList> >,0> >,std::_Iterator_base0>::operator--
; Function compile flags: /Ogsp
; File c:\program files (x86)\microsoft visual studio 10.0\vc\include\xtree
;	COMDAT ??F?$_Tree_unchecked_const_iterator@V?$_Tree_val@V?$_Tmap_traits@KUDefenseList@ioDefenseController@@U?$less@K@std@@V?$allocator@U?$pair@$$CBKUDefenseList@ioDefenseController@@@std@@@4@$0A@@std@@@std@@U_Iterator_base0@2@@std@@QAEAAV01@XZ
_TEXT	SEGMENT
??F?$_Tree_unchecked_const_iterator@V?$_Tree_val@V?$_Tmap_traits@KUDefenseList@ioDefenseController@@U?$less@K@std@@V?$allocator@U?$pair@$$CBKUDefenseList@ioDefenseController@@@std@@@4@$0A@@std@@@std@@U_Iterator_base0@2@@std@@QAEAAV01@XZ PROC ; std::_Tree_unchecked_const_iterator<std::_Tree_val<std::_Tmap_traits<unsigned long,ioDefenseController::DefenseList,std::less<unsigned long>,std::allocator<std::pair<unsigned long const ,ioDefenseController::DefenseList> >,0> >,std::_Iterator_base0>::operator--, COMDAT
; _this$ = ecx

; 83   : 		{	// predecrement

  00000	8b c1		 mov	 eax, ecx

; 84   : 		if (_Mytree::_Isnil(_Ptr))

  00002	8b 08		 mov	 ecx, DWORD PTR [eax]
  00004	53		 push	 ebx
  00005	32 db		 xor	 bl, bl
  00007	38 59 3d	 cmp	 BYTE PTR [ecx+61], bl
  0000a	74 07		 je	 SHORT $LN8@operator

; 85   : 			_Ptr = _Mytree::_Right(_Ptr);	// end() ==> rightmost

  0000c	8b 49 08	 mov	 ecx, DWORD PTR [ecx+8]
  0000f	89 08		 mov	 DWORD PTR [eax], ecx
  00011	5b		 pop	 ebx

; 99   : 			}
; 100  : 		return (*this);
; 101  : 		}

  00012	c3		 ret	 0
$LN8@operator:

; 86   : 		else if (!_Mytree::_Isnil(_Mytree::_Left(_Ptr)))

  00013	8b 11		 mov	 edx, DWORD PTR [ecx]
  00015	38 5a 3d	 cmp	 BYTE PTR [edx+61], bl
  00018	74 07		 je	 SHORT $LN44@operator

; 90   : 			{	// climb looking for left subtree
; 91   : 			_Nodeptr _Pnode;
; 92   : 			while (!_Mytree::_Isnil(_Pnode = _Mytree::_Parent(_Ptr))
; 93   : 				&& _Ptr == _Mytree::_Left(_Pnode))

  0001a	8b 51 04	 mov	 edx, DWORD PTR [ecx+4]
  0001d	eb 17		 jmp	 SHORT $LN46@operator

; 87   : 			_Ptr = _Mytree::_Max(
; 88   : 				_Mytree::_Left(_Ptr));	// ==> largest of left subtree

$LL22@operator:
  0001f	8b d1		 mov	 edx, ecx
$LN44@operator:
  00021	8b 4a 08	 mov	 ecx, DWORD PTR [edx+8]
  00024	38 59 3d	 cmp	 BYTE PTR [ecx+61], bl
  00027	74 f6		 je	 SHORT $LL22@operator

; 89   : 		else

  00029	eb 17		 jmp	 SHORT $LN45@operator
$LL4@operator:

; 90   : 			{	// climb looking for left subtree
; 91   : 			_Nodeptr _Pnode;
; 92   : 			while (!_Mytree::_Isnil(_Pnode = _Mytree::_Parent(_Ptr))
; 93   : 				&& _Ptr == _Mytree::_Left(_Pnode))

  0002b	8b 08		 mov	 ecx, DWORD PTR [eax]
  0002d	3b 0a		 cmp	 ecx, DWORD PTR [edx]
  0002f	75 0a		 jne	 SHORT $LN3@operator

; 94   : 				_Ptr = _Pnode;	// ==> parent while left subtree

  00031	89 10		 mov	 DWORD PTR [eax], edx
  00033	8b 52 04	 mov	 edx, DWORD PTR [edx+4]
$LN46@operator:

; 90   : 			{	// climb looking for left subtree
; 91   : 			_Nodeptr _Pnode;
; 92   : 			while (!_Mytree::_Isnil(_Pnode = _Mytree::_Parent(_Ptr))
; 93   : 				&& _Ptr == _Mytree::_Left(_Pnode))

  00036	38 5a 3d	 cmp	 BYTE PTR [edx+61], bl
  00039	74 f0		 je	 SHORT $LL4@operator
$LN3@operator:

; 95   : 			if (_Mytree::_Isnil(_Ptr))

  0003b	8b 08		 mov	 ecx, DWORD PTR [eax]
  0003d	38 59 3d	 cmp	 BYTE PTR [ecx+61], bl
  00040	75 02		 jne	 SHORT $LN1@operator
$LN45@operator:

; 96   : 				;	// begin() shouldn't be decremented, don't move
; 97   : 			else
; 98   : 				_Ptr = _Pnode;	// ==> parent if not head

  00042	89 10		 mov	 DWORD PTR [eax], edx
$LN1@operator:
  00044	5b		 pop	 ebx

; 99   : 			}
; 100  : 		return (*this);
; 101  : 		}

  00045	c3		 ret	 0
??F?$_Tree_unchecked_const_iterator@V?$_Tree_val@V?$_Tmap_traits@KUDefenseList@ioDefenseController@@U?$less@K@std@@V?$allocator@U?$pair@$$CBKUDefenseList@ioDefenseController@@@std@@@4@$0A@@std@@@std@@U_Iterator_base0@2@@std@@QAEAAV01@XZ ENDP ; std::_Tree_unchecked_const_iterator<std::_Tree_val<std::_Tmap_traits<unsigned long,ioDefenseController::DefenseList,std::less<unsigned long>,std::allocator<std::pair<unsigned long const ,ioDefenseController::DefenseList> >,0> >,std::_Iterator_base0>::operator--
_TEXT	ENDS
PUBLIC	??$forward@AAUDefenseList@ioDefenseController@@@std@@YAAAUDefenseList@ioDefenseController@@AAU12@@Z ; std::forward<ioDefenseController::DefenseList &>
; Function compile flags: /Ogsp
; File c:\program files (x86)\microsoft visual studio 10.0\vc\include\utility
;	COMDAT ??$forward@AAUDefenseList@ioDefenseController@@@std@@YAAAUDefenseList@ioDefenseController@@AAU12@@Z
_TEXT	SEGMENT
__Arg$ = 8						; size = 4
??$forward@AAUDefenseList@ioDefenseController@@@std@@YAAAUDefenseList@ioDefenseController@@AAU12@@Z PROC ; std::forward<ioDefenseController::DefenseList &>, COMDAT

; 78   : 	{	// forward _Arg, given explicitly specified type parameter

  00000	55		 push	 ebp
  00001	8b ec		 mov	 ebp, esp

; 79   : 	return ((_Ty&&)_Arg);

  00003	8b 45 08	 mov	 eax, DWORD PTR __Arg$[ebp]

; 80   : 	}

  00006	5d		 pop	 ebp
  00007	c3		 ret	 0
??$forward@AAUDefenseList@ioDefenseController@@@std@@YAAAUDefenseList@ioDefenseController@@AAU12@@Z ENDP ; std::forward<ioDefenseController::DefenseList &>
_TEXT	ENDS
PUBLIC	??$forward@U?$pair@$$CBKUDefenseList@ioDefenseController@@@std@@@std@@YA$$QAU?$pair@$$CBKUDefenseList@ioDefenseController@@@0@AAU10@@Z ; std::forward<std::pair<unsigned long const ,ioDefenseController::DefenseList> >
; Function compile flags: /Ogsp
;	COMDAT ??$forward@U?$pair@$$CBKUDefenseList@ioDefenseController@@@std@@@std@@YA$$QAU?$pair@$$CBKUDefenseList@ioDefenseController@@@0@AAU10@@Z
_TEXT	SEGMENT
__Arg$ = 8						; size = 4
??$forward@U?$pair@$$CBKUDefenseList@ioDefenseController@@@std@@@std@@YA$$QAU?$pair@$$CBKUDefenseList@ioDefenseController@@@0@AAU10@@Z PROC ; std::forward<std::pair<unsigned long const ,ioDefenseController::DefenseList> >, COMDAT

; 78   : 	{	// forward _Arg, given explicitly specified type parameter

  00000	55		 push	 ebp
  00001	8b ec		 mov	 ebp, esp

; 79   : 	return ((_Ty&&)_Arg);

  00003	8b 45 08	 mov	 eax, DWORD PTR __Arg$[ebp]

; 80   : 	}

  00006	5d		 pop	 ebp
  00007	c3		 ret	 0
??$forward@U?$pair@$$CBKUDefenseList@ioDefenseController@@@std@@@std@@YA$$QAU?$pair@$$CBKUDefenseList@ioDefenseController@@@0@AAU10@@Z ENDP ; std::forward<std::pair<unsigned long const ,ioDefenseController::DefenseList> >
_TEXT	ENDS
PUBLIC	??$forward@AAUDefenseData@ioDefenseController@@@std@@YAAAUDefenseData@ioDefenseController@@AAU12@@Z ; std::forward<ioDefenseController::DefenseData &>
; Function compile flags: /Ogsp
;	COMDAT ??$forward@AAUDefenseData@ioDefenseController@@@std@@YAAAUDefenseData@ioDefenseController@@AAU12@@Z
_TEXT	SEGMENT
__Arg$ = 8						; size = 4
??$forward@AAUDefenseData@ioDefenseController@@@std@@YAAAUDefenseData@ioDefenseController@@AAU12@@Z PROC ; std::forward<ioDefenseController::DefenseData &>, COMDAT

; 78   : 	{	// forward _Arg, given explicitly specified type parameter

  00000	55		 push	 ebp
  00001	8b ec		 mov	 ebp, esp

; 79   : 	return ((_Ty&&)_Arg);

  00003	8b 45 08	 mov	 eax, DWORD PTR __Arg$[ebp]

; 80   : 	}

  00006	5d		 pop	 ebp
  00007	c3		 ret	 0
??$forward@AAUDefenseData@ioDefenseController@@@std@@YAAAUDefenseData@ioDefenseController@@AAU12@@Z ENDP ; std::forward<ioDefenseController::DefenseData &>
_TEXT	ENDS
PUBLIC	??$construct@AAUDefenseData@ioDefenseController@@@?$allocator@UDefenseData@ioDefenseController@@@std@@QAEXPAUDefenseData@ioDefenseController@@AAU23@@Z ; std::allocator<ioDefenseController::DefenseData>::construct<ioDefenseController::DefenseData &>
; Function compile flags: /Ogsp
; File c:\program files (x86)\microsoft visual studio 10.0\vc\include\xmemory
;	COMDAT ??$construct@AAUDefenseData@ioDefenseController@@@?$allocator@UDefenseData@ioDefenseController@@@std@@QAEXPAUDefenseData@ioDefenseController@@AAU23@@Z
_TEXT	SEGMENT
__Ptr$ = 8						; size = 4
__Val$ = 12						; size = 4
??$construct@AAUDefenseData@ioDefenseController@@@?$allocator@UDefenseData@ioDefenseController@@@std@@QAEXPAUDefenseData@ioDefenseController@@AAU23@@Z PROC ; std::allocator<ioDefenseController::DefenseData>::construct<ioDefenseController::DefenseData &>, COMDAT
; _this$ = ecx

; 206  : 		void construct(pointer _Ptr, _Other&& _Val)

  00000	55		 push	 ebp
  00001	8b ec		 mov	 ebp, esp

; 207  : 		{	// construct object at _Ptr with value _Val
; 208  : 		::new ((void _FARQ *)_Ptr) _Ty(_STD forward<_Other>(_Val));

  00003	8b 45 08	 mov	 eax, DWORD PTR __Ptr$[ebp]
  00006	85 c0		 test	 eax, eax
  00008	74 0d		 je	 SHORT $LN3@construct
  0000a	8b 4d 0c	 mov	 ecx, DWORD PTR __Val$[ebp]
  0000d	8b 11		 mov	 edx, DWORD PTR [ecx]
  0000f	89 10		 mov	 DWORD PTR [eax], edx
  00011	8b 49 04	 mov	 ecx, DWORD PTR [ecx+4]
  00014	89 48 04	 mov	 DWORD PTR [eax+4], ecx
$LN3@construct:

; 209  : 		}

  00017	5d		 pop	 ebp
  00018	c2 08 00	 ret	 8
??$construct@AAUDefenseData@ioDefenseController@@@?$allocator@UDefenseData@ioDefenseController@@@std@@QAEXPAUDefenseData@ioDefenseController@@AAU23@@Z ENDP ; std::allocator<ioDefenseController::DefenseData>::construct<ioDefenseController::DefenseData &>
_TEXT	ENDS
PUBLIC	??$forward@ABUDefenseData@ioDefenseController@@@std@@YAABUDefenseData@ioDefenseController@@ABU12@@Z ; std::forward<ioDefenseController::DefenseData const &>
; Function compile flags: /Ogsp
; File c:\program files (x86)\microsoft visual studio 10.0\vc\include\utility
;	COMDAT ??$forward@ABUDefenseData@ioDefenseController@@@std@@YAABUDefenseData@ioDefenseController@@ABU12@@Z
_TEXT	SEGMENT
__Arg$ = 8						; size = 4
??$forward@ABUDefenseData@ioDefenseController@@@std@@YAABUDefenseData@ioDefenseController@@ABU12@@Z PROC ; std::forward<ioDefenseController::DefenseData const &>, COMDAT

; 78   : 	{	// forward _Arg, given explicitly specified type parameter

  00000	55		 push	 ebp
  00001	8b ec		 mov	 ebp, esp

; 79   : 	return ((_Ty&&)_Arg);

  00003	8b 45 08	 mov	 eax, DWORD PTR __Arg$[ebp]

; 80   : 	}

  00006	5d		 pop	 ebp
  00007	c3		 ret	 0
??$forward@ABUDefenseData@ioDefenseController@@@std@@YAABUDefenseData@ioDefenseController@@ABU12@@Z ENDP ; std::forward<ioDefenseController::DefenseData const &>
_TEXT	ENDS
PUBLIC	??$_Ptr_cat@UDefenseData@ioDefenseController@@U12@@std@@YA?AU_Nonscalar_ptr_iterator_tag@0@PAUDefenseData@ioDefenseController@@0@Z ; std::_Ptr_cat<ioDefenseController::DefenseData,ioDefenseController::DefenseData>
; Function compile flags: /Ogsp
; File c:\program files (x86)\microsoft visual studio 10.0\vc\include\xutility
;	COMDAT ??$_Ptr_cat@UDefenseData@ioDefenseController@@U12@@std@@YA?AU_Nonscalar_ptr_iterator_tag@0@PAUDefenseData@ioDefenseController@@0@Z
_TEXT	SEGMENT
__Cat$ = -1						; size = 1
___formal$ = 8						; size = 4
___formal$ = 12						; size = 4
??$_Ptr_cat@UDefenseData@ioDefenseController@@U12@@std@@YA?AU_Nonscalar_ptr_iterator_tag@0@PAUDefenseData@ioDefenseController@@0@Z PROC ; std::_Ptr_cat<ioDefenseController::DefenseData,ioDefenseController::DefenseData>, COMDAT

; 516  : 	{	// return pointer category from pointers

  00000	55		 push	 ebp
  00001	8b ec		 mov	 ebp, esp
  00003	51		 push	 ecx

; 517  : 	typename _Ptr_cat_helper<_Elem1, _Elem2>::_Type _Cat;
; 518  : 	return (_Cat);

  00004	8a 45 ff	 mov	 al, BYTE PTR __Cat$[ebp]

; 519  : 	}

  00007	c9		 leave
  00008	c3		 ret	 0
??$_Ptr_cat@UDefenseData@ioDefenseController@@U12@@std@@YA?AU_Nonscalar_ptr_iterator_tag@0@PAUDefenseData@ioDefenseController@@0@Z ENDP ; std::_Ptr_cat<ioDefenseController::DefenseData,ioDefenseController::DefenseData>
_TEXT	ENDS
PUBLIC	??$_Construct@UDefenseData@ioDefenseController@@ABU12@@std@@YAXPAUDefenseData@ioDefenseController@@ABU12@@Z ; std::_Construct<ioDefenseController::DefenseData,ioDefenseController::DefenseData const &>
; Function compile flags: /Ogsp
; File c:\program files (x86)\microsoft visual studio 10.0\vc\include\xmemory
;	COMDAT ??$_Construct@UDefenseData@ioDefenseController@@ABU12@@std@@YAXPAUDefenseData@ioDefenseController@@ABU12@@Z
_TEXT	SEGMENT
__Ptr$ = 8						; size = 4
__Val$ = 12						; size = 4
??$_Construct@UDefenseData@ioDefenseController@@ABU12@@std@@YAXPAUDefenseData@ioDefenseController@@ABU12@@Z PROC ; std::_Construct<ioDefenseController::DefenseData,ioDefenseController::DefenseData const &>, COMDAT

; 46   : 	{	// construct object at _Ptr with value _Val

  00000	55		 push	 ebp
  00001	8b ec		 mov	 ebp, esp

; 47   : 	void _FARQ *_Vptr = _Ptr;
; 48   : 	::new (_Vptr) _Ty1(_STD forward<_Ty2>(_Val));

  00003	8b 45 08	 mov	 eax, DWORD PTR __Ptr$[ebp]
  00006	85 c0		 test	 eax, eax
  00008	74 0d		 je	 SHORT $LN3@Construct
  0000a	8b 4d 0c	 mov	 ecx, DWORD PTR __Val$[ebp]
  0000d	8b 11		 mov	 edx, DWORD PTR [ecx]
  0000f	89 10		 mov	 DWORD PTR [eax], edx
  00011	8b 49 04	 mov	 ecx, DWORD PTR [ecx+4]
  00014	89 48 04	 mov	 DWORD PTR [eax+4], ecx
$LN3@Construct:

; 49   : 	}

  00017	5d		 pop	 ebp
  00018	c3		 ret	 0
??$_Construct@UDefenseData@ioDefenseController@@ABU12@@std@@YAXPAUDefenseData@ioDefenseController@@ABU12@@Z ENDP ; std::_Construct<ioDefenseController::DefenseData,ioDefenseController::DefenseData const &>
_TEXT	ENDS
PUBLIC	??$move@AAV?$_Tree_iterator@V?$_Tree_val@V?$_Tmap_traits@KUDefenseList@ioDefenseController@@U?$less@K@std@@V?$allocator@U?$pair@$$CBKUDefenseList@ioDefenseController@@@std@@@4@$0A@@std@@@std@@@std@@@std@@YA$$QAV?$_Tree_iterator@V?$_Tree_val@V?$_Tmap_traits@KUDefenseList@ioDefenseController@@U?$less@K@std@@V?$allocator@U?$pair@$$CBKUDefenseList@ioDefenseController@@@std@@@4@$0A@@std@@@std@@@0@AAV10@@Z ; std::move<std::_Tree_iterator<std::_Tree_val<std::_Tmap_traits<unsigned long,ioDefenseController::DefenseList,std::less<unsigned long>,std::allocator<std::pair<unsigned long const ,ioDefenseController::DefenseList> >,0> > > &>
; Function compile flags: /Ogsp
; File c:\program files (x86)\microsoft visual studio 10.0\vc\include\utility
;	COMDAT ??$move@AAV?$_Tree_iterator@V?$_Tree_val@V?$_Tmap_traits@KUDefenseList@ioDefenseController@@U?$less@K@std@@V?$allocator@U?$pair@$$CBKUDefenseList@ioDefenseController@@@std@@@4@$0A@@std@@@std@@@std@@@std@@YA$$QAV?$_Tree_iterator@V?$_Tree_val@V?$_Tmap_traits@KUDefenseList@ioDefenseController@@U?$less@K@std@@V?$allocator@U?$pair@$$CBKUDefenseList@ioDefenseController@@@std@@@4@$0A@@std@@@std@@@0@AAV10@@Z
_TEXT	SEGMENT
__Arg$ = 8						; size = 4
??$move@AAV?$_Tree_iterator@V?$_Tree_val@V?$_Tmap_traits@KUDefenseList@ioDefenseController@@U?$less@K@std@@V?$allocator@U?$pair@$$CBKUDefenseList@ioDefenseController@@@std@@@4@$0A@@std@@@std@@@std@@@std@@YA$$QAV?$_Tree_iterator@V?$_Tree_val@V?$_Tmap_traits@KUDefenseList@ioDefenseController@@U?$less@K@std@@V?$allocator@U?$pair@$$CBKUDefenseList@ioDefenseController@@@std@@@4@$0A@@std@@@std@@@0@AAV10@@Z PROC ; std::move<std::_Tree_iterator<std::_Tree_val<std::_Tmap_traits<unsigned long,ioDefenseController::DefenseList,std::less<unsigned long>,std::allocator<std::pair<unsigned long const ,ioDefenseController::DefenseList> >,0> > > &>, COMDAT

; 86   : 	{	// forward _Arg as movable

  00000	55		 push	 ebp
  00001	8b ec		 mov	 ebp, esp

; 87   : 	return ((typename tr1::_Remove_reference<_Ty>::_Type&&)_Arg);

  00003	8b 45 08	 mov	 eax, DWORD PTR __Arg$[ebp]

; 88   : 	}

  00006	5d		 pop	 ebp
  00007	c3		 ret	 0
??$move@AAV?$_Tree_iterator@V?$_Tree_val@V?$_Tmap_traits@KUDefenseList@ioDefenseController@@U?$less@K@std@@V?$allocator@U?$pair@$$CBKUDefenseList@ioDefenseController@@@std@@@4@$0A@@std@@@std@@@std@@@std@@YA$$QAV?$_Tree_iterator@V?$_Tree_val@V?$_Tmap_traits@KUDefenseList@ioDefenseController@@U?$less@K@std@@V?$allocator@U?$pair@$$CBKUDefenseList@ioDefenseController@@@std@@@4@$0A@@std@@@std@@@0@AAV10@@Z ENDP ; std::move<std::_Tree_iterator<std::_Tree_val<std::_Tmap_traits<unsigned long,ioDefenseController::DefenseList,std::less<unsigned long>,std::allocator<std::pair<unsigned long const ,ioDefenseController::DefenseList> >,0> > > &>
_TEXT	ENDS
PUBLIC	?begin@?$vector@UDefenseData@ioDefenseController@@V?$allocator@UDefenseData@ioDefenseController@@@std@@@std@@QBE?AV?$_Vector_const_iterator@V?$_Vector_val@UDefenseData@ioDefenseController@@V?$allocator@UDefenseData@ioDefenseController@@@std@@@std@@@2@XZ ; std::vector<ioDefenseController::DefenseData,std::allocator<ioDefenseController::DefenseData> >::begin
; Function compile flags: /Ogsp
; File c:\program files (x86)\microsoft visual studio 10.0\vc\include\vector
;	COMDAT ?begin@?$vector@UDefenseData@ioDefenseController@@V?$allocator@UDefenseData@ioDefenseController@@@std@@@std@@QBE?AV?$_Vector_const_iterator@V?$_Vector_val@UDefenseData@ioDefenseController@@V?$allocator@UDefenseData@ioDefenseController@@@std@@@std@@@2@XZ
_TEXT	SEGMENT
___$ReturnUdt$ = 8					; size = 4
?begin@?$vector@UDefenseData@ioDefenseController@@V?$allocator@UDefenseData@ioDefenseController@@@std@@@std@@QBE?AV?$_Vector_const_iterator@V?$_Vector_val@UDefenseData@ioDefenseController@@V?$allocator@UDefenseData@ioDefenseController@@@std@@@std@@@2@XZ PROC ; std::vector<ioDefenseController::DefenseData,std::allocator<ioDefenseController::DefenseData> >::begin, COMDAT
; _this$ = ecx

; 786  : 		{	// return iterator for beginning of nonmutable sequence

  00000	55		 push	 ebp
  00001	8b ec		 mov	 ebp, esp

; 787  : 		return (const_iterator(this->_Myfirst, this));

  00003	8b 09		 mov	 ecx, DWORD PTR [ecx]
  00005	8b 45 08	 mov	 eax, DWORD PTR ___$ReturnUdt$[ebp]
  00008	89 08		 mov	 DWORD PTR [eax], ecx

; 788  : 		}

  0000a	5d		 pop	 ebp
  0000b	c2 04 00	 ret	 4
?begin@?$vector@UDefenseData@ioDefenseController@@V?$allocator@UDefenseData@ioDefenseController@@@std@@@std@@QBE?AV?$_Vector_const_iterator@V?$_Vector_val@UDefenseData@ioDefenseController@@V?$allocator@UDefenseData@ioDefenseController@@@std@@@std@@@2@XZ ENDP ; std::vector<ioDefenseController::DefenseData,std::allocator<ioDefenseController::DefenseData> >::begin
_TEXT	ENDS
PUBLIC	?end@?$vector@UDefenseData@ioDefenseController@@V?$allocator@UDefenseData@ioDefenseController@@@std@@@std@@QBE?AV?$_Vector_const_iterator@V?$_Vector_val@UDefenseData@ioDefenseController@@V?$allocator@UDefenseData@ioDefenseController@@@std@@@std@@@2@XZ ; std::vector<ioDefenseController::DefenseData,std::allocator<ioDefenseController::DefenseData> >::end
; Function compile flags: /Ogsp
;	COMDAT ?end@?$vector@UDefenseData@ioDefenseController@@V?$allocator@UDefenseData@ioDefenseController@@@std@@@std@@QBE?AV?$_Vector_const_iterator@V?$_Vector_val@UDefenseData@ioDefenseController@@V?$allocator@UDefenseData@ioDefenseController@@@std@@@std@@@2@XZ
_TEXT	SEGMENT
___$ReturnUdt$ = 8					; size = 4
?end@?$vector@UDefenseData@ioDefenseController@@V?$allocator@UDefenseData@ioDefenseController@@@std@@@std@@QBE?AV?$_Vector_const_iterator@V?$_Vector_val@UDefenseData@ioDefenseController@@V?$allocator@UDefenseData@ioDefenseController@@@std@@@std@@@2@XZ PROC ; std::vector<ioDefenseController::DefenseData,std::allocator<ioDefenseController::DefenseData> >::end, COMDAT
; _this$ = ecx

; 796  : 		{	// return iterator for end of nonmutable sequence

  00000	55		 push	 ebp
  00001	8b ec		 mov	 ebp, esp

; 797  : 		return (const_iterator(this->_Mylast, this));

  00003	8b 49 04	 mov	 ecx, DWORD PTR [ecx+4]
  00006	8b 45 08	 mov	 eax, DWORD PTR ___$ReturnUdt$[ebp]
  00009	89 08		 mov	 DWORD PTR [eax], ecx

; 798  : 		}

  0000b	5d		 pop	 ebp
  0000c	c2 04 00	 ret	 4
?end@?$vector@UDefenseData@ioDefenseController@@V?$allocator@UDefenseData@ioDefenseController@@@std@@@std@@QBE?AV?$_Vector_const_iterator@V?$_Vector_val@UDefenseData@ioDefenseController@@V?$allocator@UDefenseData@ioDefenseController@@@std@@@std@@@2@XZ ENDP ; std::vector<ioDefenseController::DefenseData,std::allocator<ioDefenseController::DefenseData> >::end
_TEXT	ENDS
PUBLIC	??0D3DXQUATERNION@@QAE@XZ			; D3DXQUATERNION::D3DXQUATERNION
; Function compile flags: /Ogsp
; File c:\program files (x86)\microsoft directx sdk (june 2010)\include\d3dx9math.h
;	COMDAT ??0D3DXQUATERNION@@QAE@XZ
_TEXT	SEGMENT
??0D3DXQUATERNION@@QAE@XZ PROC				; D3DXQUATERNION::D3DXQUATERNION, COMDAT
; _this$ = ecx

; 429  :     D3DXQUATERNION() {}

  00000	8b c1		 mov	 eax, ecx
  00002	c3		 ret	 0
??0D3DXQUATERNION@@QAE@XZ ENDP				; D3DXQUATERNION::D3DXQUATERNION
_TEXT	ENDS
PUBLIC	??$_Ptr_cat@V?$_Vector_const_iterator@V?$_Vector_val@V?$basic_string@DU?$char_traits@D@std@@V?$allocator@D@2@@std@@V?$allocator@V?$basic_string@DU?$char_traits@D@std@@V?$allocator@D@2@@std@@@2@@std@@@std@@PAV?$basic_string@DU?$char_traits@D@std@@V?$allocator@D@2@@2@@std@@YA?AU_Nonscalar_ptr_iterator_tag@0@AAV?$_Vector_const_iterator@V?$_Vector_val@V?$basic_string@DU?$char_traits@D@std@@V?$allocator@D@2@@std@@V?$allocator@V?$basic_string@DU?$char_traits@D@std@@V?$allocator@D@2@@std@@@2@@std@@@0@AAPAV?$basic_string@DU?$char_traits@D@std@@V?$allocator@D@2@@0@@Z ; std::_Ptr_cat<std::_Vector_const_iterator<std::_Vector_val<std::basic_string<char,std::char_traits<char>,std::allocator<char> >,std::allocator<std::basic_string<char,std::char_traits<char>,std::allocator<char> > > > >,std::basic_string<char,std::char_traits<char>,std::allocator<char> > *>
; Function compile flags: /Ogsp
; File c:\program files (x86)\microsoft visual studio 10.0\vc\include\xutility
;	COMDAT ??$_Ptr_cat@V?$_Vector_const_iterator@V?$_Vector_val@V?$basic_string@DU?$char_traits@D@std@@V?$allocator@D@2@@std@@V?$allocator@V?$basic_string@DU?$char_traits@D@std@@V?$allocator@D@2@@std@@@2@@std@@@std@@PAV?$basic_string@DU?$char_traits@D@std@@V?$allocator@D@2@@2@@std@@YA?AU_Nonscalar_ptr_iterator_tag@0@AAV?$_Vector_const_iterator@V?$_Vector_val@V?$basic_string@DU?$char_traits@D@std@@V?$allocator@D@2@@std@@V?$allocator@V?$basic_string@DU?$char_traits@D@std@@V?$allocator@D@2@@std@@@2@@std@@@0@AAPAV?$basic_string@DU?$char_traits@D@std@@V?$allocator@D@2@@0@@Z
_TEXT	SEGMENT
__Cat$ = -1						; size = 1
___formal$ = 8						; size = 4
___formal$ = 12						; size = 4
??$_Ptr_cat@V?$_Vector_const_iterator@V?$_Vector_val@V?$basic_string@DU?$char_traits@D@std@@V?$allocator@D@2@@std@@V?$allocator@V?$basic_string@DU?$char_traits@D@std@@V?$allocator@D@2@@std@@@2@@std@@@std@@PAV?$basic_string@DU?$char_traits@D@std@@V?$allocator@D@2@@2@@std@@YA?AU_Nonscalar_ptr_iterator_tag@0@AAV?$_Vector_const_iterator@V?$_Vector_val@V?$basic_string@DU?$char_traits@D@std@@V?$allocator@D@2@@std@@V?$allocator@V?$basic_string@DU?$char_traits@D@std@@V?$allocator@D@2@@std@@@2@@std@@@0@AAPAV?$basic_string@DU?$char_traits@D@std@@V?$allocator@D@2@@0@@Z PROC ; std::_Ptr_cat<std::_Vector_const_iterator<std::_Vector_val<std::basic_string<char,std::char_traits<char>,std::allocator<char> >,std::allocator<std::basic_string<char,std::char_traits<char>,std::allocator<char> > > > >,std::basic_string<char,std::char_traits<char>,std::allocator<char> > *>, COMDAT

; 485  : 	{	// return pointer category from arbitrary arguments

  00000	55		 push	 ebp
  00001	8b ec		 mov	 ebp, esp
  00003	51		 push	 ecx

; 486  : 	_Nonscalar_ptr_iterator_tag _Cat;
; 487  : 	return (_Cat);

  00004	8a 45 ff	 mov	 al, BYTE PTR __Cat$[ebp]

; 488  : 	}

  00007	c9		 leave
  00008	c3		 ret	 0
??$_Ptr_cat@V?$_Vector_const_iterator@V?$_Vector_val@V?$basic_string@DU?$char_traits@D@std@@V?$allocator@D@2@@std@@V?$allocator@V?$basic_string@DU?$char_traits@D@std@@V?$allocator@D@2@@std@@@2@@std@@@std@@PAV?$basic_string@DU?$char_traits@D@std@@V?$allocator@D@2@@2@@std@@YA?AU_Nonscalar_ptr_iterator_tag@0@AAV?$_Vector_const_iterator@V?$_Vector_val@V?$basic_string@DU?$char_traits@D@std@@V?$allocator@D@2@@std@@V?$allocator@V?$basic_string@DU?$char_traits@D@std@@V?$allocator@D@2@@std@@@2@@std@@@0@AAPAV?$basic_string@DU?$char_traits@D@std@@V?$allocator@D@2@@0@@Z ENDP ; std::_Ptr_cat<std::_Vector_const_iterator<std::_Vector_val<std::basic_string<char,std::char_traits<char>,std::allocator<char> >,std::allocator<std::basic_string<char,std::char_traits<char>,std::allocator<char> > > > >,std::basic_string<char,std::char_traits<char>,std::allocator<char> > *>
_TEXT	ENDS
PUBLIC	??$move@AAUDefenseData@ioDefenseController@@@std@@YA$$QAUDefenseData@ioDefenseController@@AAU12@@Z ; std::move<ioDefenseController::DefenseData &>
; Function compile flags: /Ogsp
; File c:\program files (x86)\microsoft visual studio 10.0\vc\include\utility
;	COMDAT ??$move@AAUDefenseData@ioDefenseController@@@std@@YA$$QAUDefenseData@ioDefenseController@@AAU12@@Z
_TEXT	SEGMENT
__Arg$ = 8						; size = 4
??$move@AAUDefenseData@ioDefenseController@@@std@@YA$$QAUDefenseData@ioDefenseController@@AAU12@@Z PROC ; std::move<ioDefenseController::DefenseData &>, COMDAT

; 86   : 	{	// forward _Arg as movable

  00000	55		 push	 ebp
  00001	8b ec		 mov	 ebp, esp

; 87   : 	return ((typename tr1::_Remove_reference<_Ty>::_Type&&)_Arg);

  00003	8b 45 08	 mov	 eax, DWORD PTR __Arg$[ebp]

; 88   : 	}

  00006	5d		 pop	 ebp
  00007	c3		 ret	 0
??$move@AAUDefenseData@ioDefenseController@@@std@@YA$$QAUDefenseData@ioDefenseController@@AAU12@@Z ENDP ; std::move<ioDefenseController::DefenseData &>
_TEXT	ENDS
PUBLIC	??$_Val_type@PAUDefenseData@ioDefenseController@@@std@@YAPAUDefenseData@ioDefenseController@@PAU12@@Z ; std::_Val_type<ioDefenseController::DefenseData *>
; Function compile flags: /Ogsp
; File c:\program files (x86)\microsoft visual studio 10.0\vc\include\xutility
;	COMDAT ??$_Val_type@PAUDefenseData@ioDefenseController@@@std@@YAPAUDefenseData@ioDefenseController@@PAU12@@Z
_TEXT	SEGMENT
___formal$ = 8						; size = 4
??$_Val_type@PAUDefenseData@ioDefenseController@@@std@@YAPAUDefenseData@ioDefenseController@@PAU12@@Z PROC ; std::_Val_type<ioDefenseController::DefenseData *>, COMDAT

; 790  : 	return (0);

  00000	33 c0		 xor	 eax, eax

; 791  : 	}

  00002	c3		 ret	 0
??$_Val_type@PAUDefenseData@ioDefenseController@@@std@@YAPAUDefenseData@ioDefenseController@@PAU12@@Z ENDP ; std::_Val_type<ioDefenseController::DefenseData *>
_TEXT	ENDS
PUBLIC	??$forward@AAV?$_Tree_iterator@V?$_Tree_val@V?$_Tmap_traits@KUDefenseList@ioDefenseController@@U?$less@K@std@@V?$allocator@U?$pair@$$CBKUDefenseList@ioDefenseController@@@std@@@4@$0A@@std@@@std@@@std@@@std@@YAAAV?$_Tree_iterator@V?$_Tree_val@V?$_Tmap_traits@KUDefenseList@ioDefenseController@@U?$less@K@std@@V?$allocator@U?$pair@$$CBKUDefenseList@ioDefenseController@@@std@@@4@$0A@@std@@@std@@@0@AAV10@@Z ; std::forward<std::_Tree_iterator<std::_Tree_val<std::_Tmap_traits<unsigned long,ioDefenseController::DefenseList,std::less<unsigned long>,std::allocator<std::pair<unsigned long const ,ioDefenseController::DefenseList> >,0> > > &>
; Function compile flags: /Ogsp
; File c:\program files (x86)\microsoft visual studio 10.0\vc\include\utility
;	COMDAT ??$forward@AAV?$_Tree_iterator@V?$_Tree_val@V?$_Tmap_traits@KUDefenseList@ioDefenseController@@U?$less@K@std@@V?$allocator@U?$pair@$$CBKUDefenseList@ioDefenseController@@@std@@@4@$0A@@std@@@std@@@std@@@std@@YAAAV?$_Tree_iterator@V?$_Tree_val@V?$_Tmap_traits@KUDefenseList@ioDefenseController@@U?$less@K@std@@V?$allocator@U?$pair@$$CBKUDefenseList@ioDefenseController@@@std@@@4@$0A@@std@@@std@@@0@AAV10@@Z
_TEXT	SEGMENT
__Arg$ = 8						; size = 4
??$forward@AAV?$_Tree_iterator@V?$_Tree_val@V?$_Tmap_traits@KUDefenseList@ioDefenseController@@U?$less@K@std@@V?$allocator@U?$pair@$$CBKUDefenseList@ioDefenseController@@@std@@@4@$0A@@std@@@std@@@std@@@std@@YAAAV?$_Tree_iterator@V?$_Tree_val@V?$_Tmap_traits@KUDefenseList@ioDefenseController@@U?$less@K@std@@V?$allocator@U?$pair@$$CBKUDefenseList@ioDefenseController@@@std@@@4@$0A@@std@@@std@@@0@AAV10@@Z PROC ; std::forward<std::_Tree_iterator<std::_Tree_val<std::_Tmap_traits<unsigned long,ioDefenseController::DefenseList,std::less<unsigned long>,std::allocator<std::pair<unsigned long const ,ioDefenseController::DefenseList> >,0> > > &>, COMDAT

; 78   : 	{	// forward _Arg, given explicitly specified type parameter

  00000	55		 push	 ebp
  00001	8b ec		 mov	 ebp, esp

; 79   : 	return ((_Ty&&)_Arg);

  00003	8b 45 08	 mov	 eax, DWORD PTR __Arg$[ebp]

; 80   : 	}

  00006	5d		 pop	 ebp
  00007	c3		 ret	 0
??$forward@AAV?$_Tree_iterator@V?$_Tree_val@V?$_Tmap_traits@KUDefenseList@ioDefenseController@@U?$less@K@std@@V?$allocator@U?$pair@$$CBKUDefenseList@ioDefenseController@@@std@@@4@$0A@@std@@@std@@@std@@@std@@YAAAV?$_Tree_iterator@V?$_Tree_val@V?$_Tmap_traits@KUDefenseList@ioDefenseController@@U?$less@K@std@@V?$allocator@U?$pair@$$CBKUDefenseList@ioDefenseController@@@std@@@4@$0A@@std@@@std@@@0@AAV10@@Z ENDP ; std::forward<std::_Tree_iterator<std::_Tree_val<std::_Tmap_traits<unsigned long,ioDefenseController::DefenseList,std::less<unsigned long>,std::allocator<std::pair<unsigned long const ,ioDefenseController::DefenseList> >,0> > > &>
_TEXT	ENDS
PUBLIC	??$_Destroy@UDefenseData@ioDefenseController@@@std@@YAXPAUDefenseData@ioDefenseController@@@Z ; std::_Destroy<ioDefenseController::DefenseData>
; Function compile flags: /Ogsp
; File c:\program files (x86)\microsoft visual studio 10.0\vc\include\xmemory
;	COMDAT ??$_Destroy@UDefenseData@ioDefenseController@@@std@@YAXPAUDefenseData@ioDefenseController@@@Z
_TEXT	SEGMENT
__Ptr$ = 8						; size = 4
??$_Destroy@UDefenseData@ioDefenseController@@@std@@YAXPAUDefenseData@ioDefenseController@@@Z PROC ; std::_Destroy<ioDefenseController::DefenseData>, COMDAT

; 63   : 	_Ptr->~_Ty();
; 64   : 	}

  00000	c3		 ret	 0
??$_Destroy@UDefenseData@ioDefenseController@@@std@@YAXPAUDefenseData@ioDefenseController@@@Z ENDP ; std::_Destroy<ioDefenseController::DefenseData>
_TEXT	ENDS
PUBLIC	??$forward@ABV?$basic_string@DU?$char_traits@D@std@@V?$allocator@D@2@@std@@@std@@YAABV?$basic_string@DU?$char_traits@D@std@@V?$allocator@D@2@@0@ABV10@@Z ; std::forward<std::basic_string<char,std::char_traits<char>,std::allocator<char> > const &>
; Function compile flags: /Ogsp
; File c:\program files (x86)\microsoft visual studio 10.0\vc\include\utility
;	COMDAT ??$forward@ABV?$basic_string@DU?$char_traits@D@std@@V?$allocator@D@2@@std@@@std@@YAABV?$basic_string@DU?$char_traits@D@std@@V?$allocator@D@2@@0@ABV10@@Z
_TEXT	SEGMENT
__Arg$ = 8						; size = 4
??$forward@ABV?$basic_string@DU?$char_traits@D@std@@V?$allocator@D@2@@std@@@std@@YAABV?$basic_string@DU?$char_traits@D@std@@V?$allocator@D@2@@0@ABV10@@Z PROC ; std::forward<std::basic_string<char,std::char_traits<char>,std::allocator<char> > const &>, COMDAT

; 78   : 	{	// forward _Arg, given explicitly specified type parameter

  00000	55		 push	 ebp
  00001	8b ec		 mov	 ebp, esp

; 79   : 	return ((_Ty&&)_Arg);

  00003	8b 45 08	 mov	 eax, DWORD PTR __Arg$[ebp]

; 80   : 	}

  00006	5d		 pop	 ebp
  00007	c3		 ret	 0
??$forward@ABV?$basic_string@DU?$char_traits@D@std@@V?$allocator@D@2@@std@@@std@@YAABV?$basic_string@DU?$char_traits@D@std@@V?$allocator@D@2@@0@ABV10@@Z ENDP ; std::forward<std::basic_string<char,std::char_traits<char>,std::allocator<char> > const &>
_TEXT	ENDS
PUBLIC	??$forward@UDefenseData@ioDefenseController@@@std@@YA$$QAUDefenseData@ioDefenseController@@AAU12@@Z ; std::forward<ioDefenseController::DefenseData>
; Function compile flags: /Ogsp
;	COMDAT ??$forward@UDefenseData@ioDefenseController@@@std@@YA$$QAUDefenseData@ioDefenseController@@AAU12@@Z
_TEXT	SEGMENT
__Arg$ = 8						; size = 4
??$forward@UDefenseData@ioDefenseController@@@std@@YA$$QAUDefenseData@ioDefenseController@@AAU12@@Z PROC ; std::forward<ioDefenseController::DefenseData>, COMDAT

; 78   : 	{	// forward _Arg, given explicitly specified type parameter

  00000	55		 push	 ebp
  00001	8b ec		 mov	 ebp, esp

; 79   : 	return ((_Ty&&)_Arg);

  00003	8b 45 08	 mov	 eax, DWORD PTR __Arg$[ebp]

; 80   : 	}

  00006	5d		 pop	 ebp
  00007	c3		 ret	 0
??$forward@UDefenseData@ioDefenseController@@@std@@YA$$QAUDefenseData@ioDefenseController@@AAU12@@Z ENDP ; std::forward<ioDefenseController::DefenseData>
_TEXT	ENDS
PUBLIC	??$_Ptr_cat@V?$_Vector_const_iterator@V?$_Vector_val@KV?$allocator@K@std@@@std@@@std@@PAK@std@@YA?AU_Nonscalar_ptr_iterator_tag@0@AAV?$_Vector_const_iterator@V?$_Vector_val@KV?$allocator@K@std@@@std@@@0@AAPAK@Z ; std::_Ptr_cat<std::_Vector_const_iterator<std::_Vector_val<unsigned long,std::allocator<unsigned long> > >,unsigned long *>
; Function compile flags: /Ogsp
; File c:\program files (x86)\microsoft visual studio 10.0\vc\include\xutility
;	COMDAT ??$_Ptr_cat@V?$_Vector_const_iterator@V?$_Vector_val@KV?$allocator@K@std@@@std@@@std@@PAK@std@@YA?AU_Nonscalar_ptr_iterator_tag@0@AAV?$_Vector_const_iterator@V?$_Vector_val@KV?$allocator@K@std@@@std@@@0@AAPAK@Z
_TEXT	SEGMENT
__Cat$ = -1						; size = 1
___formal$ = 8						; size = 4
___formal$ = 12						; size = 4
??$_Ptr_cat@V?$_Vector_const_iterator@V?$_Vector_val@KV?$allocator@K@std@@@std@@@std@@PAK@std@@YA?AU_Nonscalar_ptr_iterator_tag@0@AAV?$_Vector_const_iterator@V?$_Vector_val@KV?$allocator@K@std@@@std@@@0@AAPAK@Z PROC ; std::_Ptr_cat<std::_Vector_const_iterator<std::_Vector_val<unsigned long,std::allocator<unsigned long> > >,unsigned long *>, COMDAT

; 485  : 	{	// return pointer category from arbitrary arguments

  00000	55		 push	 ebp
  00001	8b ec		 mov	 ebp, esp
  00003	51		 push	 ecx

; 486  : 	_Nonscalar_ptr_iterator_tag _Cat;
; 487  : 	return (_Cat);

  00004	8a 45 ff	 mov	 al, BYTE PTR __Cat$[ebp]

; 488  : 	}

  00007	c9		 leave
  00008	c3		 ret	 0
??$_Ptr_cat@V?$_Vector_const_iterator@V?$_Vector_val@KV?$allocator@K@std@@@std@@@std@@PAK@std@@YA?AU_Nonscalar_ptr_iterator_tag@0@AAV?$_Vector_const_iterator@V?$_Vector_val@KV?$allocator@K@std@@@std@@@0@AAPAK@Z ENDP ; std::_Ptr_cat<std::_Vector_const_iterator<std::_Vector_val<unsigned long,std::allocator<unsigned long> > >,unsigned long *>
_TEXT	ENDS
PUBLIC	??$_Ptr_cat@V?$_Vector_const_iterator@V?$_Vector_val@UDefenseData@ioDefenseController@@V?$allocator@UDefenseData@ioDefenseController@@@std@@@std@@@std@@PAUDefenseData@ioDefenseController@@@std@@YA?AU_Nonscalar_ptr_iterator_tag@0@AAV?$_Vector_const_iterator@V?$_Vector_val@UDefenseData@ioDefenseController@@V?$allocator@UDefenseData@ioDefenseController@@@std@@@std@@@0@AAPAUDefenseData@ioDefenseController@@@Z ; std::_Ptr_cat<std::_Vector_const_iterator<std::_Vector_val<ioDefenseController::DefenseData,std::allocator<ioDefenseController::DefenseData> > >,ioDefenseController::DefenseData *>
; Function compile flags: /Ogsp
;	COMDAT ??$_Ptr_cat@V?$_Vector_const_iterator@V?$_Vector_val@UDefenseData@ioDefenseController@@V?$allocator@UDefenseData@ioDefenseController@@@std@@@std@@@std@@PAUDefenseData@ioDefenseController@@@std@@YA?AU_Nonscalar_ptr_iterator_tag@0@AAV?$_Vector_const_iterator@V?$_Vector_val@UDefenseData@ioDefenseController@@V?$allocator@UDefenseData@ioDefenseController@@@std@@@std@@@0@AAPAUDefenseData@ioDefenseController@@@Z
_TEXT	SEGMENT
__Cat$ = -1						; size = 1
___formal$ = 8						; size = 4
___formal$ = 12						; size = 4
??$_Ptr_cat@V?$_Vector_const_iterator@V?$_Vector_val@UDefenseData@ioDefenseController@@V?$allocator@UDefenseData@ioDefenseController@@@std@@@std@@@std@@PAUDefenseData@ioDefenseController@@@std@@YA?AU_Nonscalar_ptr_iterator_tag@0@AAV?$_Vector_const_iterator@V?$_Vector_val@UDefenseData@ioDefenseController@@V?$allocator@UDefenseData@ioDefenseController@@@std@@@std@@@0@AAPAUDefenseData@ioDefenseController@@@Z PROC ; std::_Ptr_cat<std::_Vector_const_iterator<std::_Vector_val<ioDefenseController::DefenseData,std::allocator<ioDefenseController::DefenseData> > >,ioDefenseController::DefenseData *>, COMDAT

; 485  : 	{	// return pointer category from arbitrary arguments

  00000	55		 push	 ebp
  00001	8b ec		 mov	 ebp, esp
  00003	51		 push	 ecx

; 486  : 	_Nonscalar_ptr_iterator_tag _Cat;
; 487  : 	return (_Cat);

  00004	8a 45 ff	 mov	 al, BYTE PTR __Cat$[ebp]

; 488  : 	}

  00007	c9		 leave
  00008	c3		 ret	 0
??$_Ptr_cat@V?$_Vector_const_iterator@V?$_Vector_val@UDefenseData@ioDefenseController@@V?$allocator@UDefenseData@ioDefenseController@@@std@@@std@@@std@@PAUDefenseData@ioDefenseController@@@std@@YA?AU_Nonscalar_ptr_iterator_tag@0@AAV?$_Vector_const_iterator@V?$_Vector_val@UDefenseData@ioDefenseController@@V?$allocator@UDefenseData@ioDefenseController@@@std@@@std@@@0@AAPAUDefenseData@ioDefenseController@@@Z ENDP ; std::_Ptr_cat<std::_Vector_const_iterator<std::_Vector_val<ioDefenseController::DefenseData,std::allocator<ioDefenseController::DefenseData> > >,ioDefenseController::DefenseData *>
_TEXT	ENDS
PUBLIC	??0D3DXVECTOR3@@QAE@MMM@Z			; D3DXVECTOR3::D3DXVECTOR3
; Function compile flags: /Ogsp
; File c:\program files (x86)\microsoft directx sdk (june 2010)\include\d3dx9math.inl
;	COMDAT ??0D3DXVECTOR3@@QAE@MMM@Z
_TEXT	SEGMENT
_fx$ = 8						; size = 4
_fy$ = 12						; size = 4
_fz$ = 16						; size = 4
??0D3DXVECTOR3@@QAE@MMM@Z PROC				; D3DXVECTOR3::D3DXVECTOR3, COMDAT
; _this$ = ecx

; 303  : {

  00000	55		 push	 ebp
  00001	8b ec		 mov	 ebp, esp

; 304  :     x = fx;

  00003	f3 0f 10 45 08	 movss	 xmm0, DWORD PTR _fx$[ebp]
  00008	8b c1		 mov	 eax, ecx
  0000a	f3 0f 11 00	 movss	 DWORD PTR [eax], xmm0

; 305  :     y = fy;

  0000e	f3 0f 10 45 0c	 movss	 xmm0, DWORD PTR _fy$[ebp]
  00013	f3 0f 11 40 04	 movss	 DWORD PTR [eax+4], xmm0

; 306  :     z = fz;

  00018	f3 0f 10 45 10	 movss	 xmm0, DWORD PTR _fz$[ebp]
  0001d	f3 0f 11 40 08	 movss	 DWORD PTR [eax+8], xmm0

; 307  : }

  00022	5d		 pop	 ebp
  00023	c2 0c 00	 ret	 12			; 0000000cH
??0D3DXVECTOR3@@QAE@MMM@Z ENDP				; D3DXVECTOR3::D3DXVECTOR3
_TEXT	ENDS
PUBLIC	??$forward@$$CBK@std@@YA$$QBKABK@Z		; std::forward<unsigned long const >
; Function compile flags: /Ogsp
; File c:\program files (x86)\microsoft visual studio 10.0\vc\include\utility
;	COMDAT ??$forward@$$CBK@std@@YA$$QBKABK@Z
_TEXT	SEGMENT
__Arg$ = 8						; size = 4
??$forward@$$CBK@std@@YA$$QBKABK@Z PROC			; std::forward<unsigned long const >, COMDAT

; 78   : 	{	// forward _Arg, given explicitly specified type parameter

  00000	55		 push	 ebp
  00001	8b ec		 mov	 ebp, esp

; 79   : 	return ((_Ty&&)_Arg);

  00003	8b 45 08	 mov	 eax, DWORD PTR __Arg$[ebp]

; 80   : 	}

  00006	5d		 pop	 ebp
  00007	c3		 ret	 0
??$forward@$$CBK@std@@YA$$QBKABK@Z ENDP			; std::forward<unsigned long const >
_TEXT	ENDS
PUBLIC	??$forward@UDefenseList@ioDefenseController@@@std@@YA$$QAUDefenseList@ioDefenseController@@AAU12@@Z ; std::forward<ioDefenseController::DefenseList>
; Function compile flags: /Ogsp
;	COMDAT ??$forward@UDefenseList@ioDefenseController@@@std@@YA$$QAUDefenseList@ioDefenseController@@AAU12@@Z
_TEXT	SEGMENT
__Arg$ = 8						; size = 4
??$forward@UDefenseList@ioDefenseController@@@std@@YA$$QAUDefenseList@ioDefenseController@@AAU12@@Z PROC ; std::forward<ioDefenseController::DefenseList>, COMDAT

; 78   : 	{	// forward _Arg, given explicitly specified type parameter

  00000	55		 push	 ebp
  00001	8b ec		 mov	 ebp, esp

; 79   : 	return ((_Ty&&)_Arg);

  00003	8b 45 08	 mov	 eax, DWORD PTR __Arg$[ebp]

; 80   : 	}

  00006	5d		 pop	 ebp
  00007	c3		 ret	 0
??$forward@UDefenseList@ioDefenseController@@@std@@YA$$QAUDefenseList@ioDefenseController@@AAU12@@Z ENDP ; std::forward<ioDefenseController::DefenseList>
_TEXT	ENDS
PUBLIC	??$move@ABK@std@@YA$$QBKABK@Z			; std::move<unsigned long const &>
; Function compile flags: /Ogsp
;	COMDAT ??$move@ABK@std@@YA$$QBKABK@Z
_TEXT	SEGMENT
__Arg$ = 8						; size = 4
??$move@ABK@std@@YA$$QBKABK@Z PROC			; std::move<unsigned long const &>, COMDAT

; 86   : 	{	// forward _Arg as movable

  00000	55		 push	 ebp
  00001	8b ec		 mov	 ebp, esp

; 87   : 	return ((typename tr1::_Remove_reference<_Ty>::_Type&&)_Arg);

  00003	8b 45 08	 mov	 eax, DWORD PTR __Arg$[ebp]

; 88   : 	}

  00006	5d		 pop	 ebp
  00007	c3		 ret	 0
??$move@ABK@std@@YA$$QBKABK@Z ENDP			; std::move<unsigned long const &>
_TEXT	ENDS
PUBLIC	??$move@AAUDefenseList@ioDefenseController@@@std@@YA$$QAUDefenseList@ioDefenseController@@AAU12@@Z ; std::move<ioDefenseController::DefenseList &>
; Function compile flags: /Ogsp
;	COMDAT ??$move@AAUDefenseList@ioDefenseController@@@std@@YA$$QAUDefenseList@ioDefenseController@@AAU12@@Z
_TEXT	SEGMENT
__Arg$ = 8						; size = 4
??$move@AAUDefenseList@ioDefenseController@@@std@@YA$$QAUDefenseList@ioDefenseController@@AAU12@@Z PROC ; std::move<ioDefenseController::DefenseList &>, COMDAT

; 86   : 	{	// forward _Arg as movable

  00000	55		 push	 ebp
  00001	8b ec		 mov	 ebp, esp

; 87   : 	return ((typename tr1::_Remove_reference<_Ty>::_Type&&)_Arg);

  00003	8b 45 08	 mov	 eax, DWORD PTR __Arg$[ebp]

; 88   : 	}

  00006	5d		 pop	 ebp
  00007	c3		 ret	 0
??$move@AAUDefenseList@ioDefenseController@@@std@@YA$$QAUDefenseList@ioDefenseController@@AAU12@@Z ENDP ; std::move<ioDefenseController::DefenseList &>
_TEXT	ENDS
PUBLIC	??D?$_Vector_const_iterator@V?$_Vector_val@UDefenseData@ioDefenseController@@V?$allocator@UDefenseData@ioDefenseController@@@std@@@std@@@std@@QBEABUDefenseData@ioDefenseController@@XZ ; std::_Vector_const_iterator<std::_Vector_val<ioDefenseController::DefenseData,std::allocator<ioDefenseController::DefenseData> > >::operator*
; Function compile flags: /Ogsp
; File c:\program files (x86)\microsoft visual studio 10.0\vc\include\vector
;	COMDAT ??D?$_Vector_const_iterator@V?$_Vector_val@UDefenseData@ioDefenseController@@V?$allocator@UDefenseData@ioDefenseController@@@std@@@std@@@std@@QBEABUDefenseData@ioDefenseController@@XZ
_TEXT	SEGMENT
??D?$_Vector_const_iterator@V?$_Vector_val@UDefenseData@ioDefenseController@@V?$allocator@UDefenseData@ioDefenseController@@@std@@@std@@@std@@QBEABUDefenseData@ioDefenseController@@XZ PROC ; std::_Vector_const_iterator<std::_Vector_val<ioDefenseController::DefenseData,std::allocator<ioDefenseController::DefenseData> > >::operator*, COMDAT
; _this$ = ecx

; 64   :  #if _ITERATOR_DEBUG_LEVEL == 2
; 65   : 		if (this->_Getcont() == 0
; 66   : 			|| this->_Ptr == 0
; 67   : 			|| this->_Ptr < ((_Myvec *)this->_Getcont())->_Myfirst
; 68   : 			|| ((_Myvec *)this->_Getcont())->_Mylast <= this->_Ptr)
; 69   : 			{	// report error
; 70   : 			_DEBUG_ERROR("vector iterator not dereferencable");
; 71   : 			_SCL_SECURE_OUT_OF_RANGE;
; 72   : 			}
; 73   : 
; 74   :  #elif _ITERATOR_DEBUG_LEVEL == 1
; 75   : 		_SCL_SECURE_VALIDATE(this->_Getcont() != 0);
; 76   : 		_SCL_SECURE_VALIDATE_RANGE(
; 77   : 			this->_Ptr != 0
; 78   : 			&& ((_Myvec *)this->_Getcont())->_Myfirst <= this->_Ptr
; 79   : 			&& this->_Ptr < ((_Myvec *)this->_Getcont())->_Mylast);
; 80   :  #endif /* _ITERATOR_DEBUG_LEVEL */
; 81   : 
; 82   : 		__analysis_assume(this->_Ptr != 0);
; 83   : 
; 84   : 		return (*this->_Ptr);

  00000	8b 01		 mov	 eax, DWORD PTR [ecx]

; 85   : 		}

  00002	c3		 ret	 0
??D?$_Vector_const_iterator@V?$_Vector_val@UDefenseData@ioDefenseController@@V?$allocator@UDefenseData@ioDefenseController@@@std@@@std@@@std@@QBEABUDefenseData@ioDefenseController@@XZ ENDP ; std::_Vector_const_iterator<std::_Vector_val<ioDefenseController::DefenseData,std::allocator<ioDefenseController::DefenseData> > >::operator*
_TEXT	ENDS
PUBLIC	??E?$_Vector_const_iterator@V?$_Vector_val@UDefenseData@ioDefenseController@@V?$allocator@UDefenseData@ioDefenseController@@@std@@@std@@@std@@QAEAAV01@XZ ; std::_Vector_const_iterator<std::_Vector_val<ioDefenseController::DefenseData,std::allocator<ioDefenseController::DefenseData> > >::operator++
; Function compile flags: /Ogsp
;	COMDAT ??E?$_Vector_const_iterator@V?$_Vector_val@UDefenseData@ioDefenseController@@V?$allocator@UDefenseData@ioDefenseController@@@std@@@std@@@std@@QAEAAV01@XZ
_TEXT	SEGMENT
??E?$_Vector_const_iterator@V?$_Vector_val@UDefenseData@ioDefenseController@@V?$allocator@UDefenseData@ioDefenseController@@@std@@@std@@@std@@QAEAAV01@XZ PROC ; std::_Vector_const_iterator<std::_Vector_val<ioDefenseController::DefenseData,std::allocator<ioDefenseController::DefenseData> > >::operator++, COMDAT
; _this$ = ecx

; 93   : 		{	// preincrement

  00000	8b c1		 mov	 eax, ecx

; 94   :  #if _ITERATOR_DEBUG_LEVEL == 2
; 95   : 		if (this->_Getcont() == 0
; 96   : 			|| this->_Ptr == 0
; 97   : 			|| ((_Myvec *)this->_Getcont())->_Mylast <= this->_Ptr)
; 98   : 			{	// report error
; 99   : 			_DEBUG_ERROR("vector iterator not incrementable");
; 100  : 			_SCL_SECURE_OUT_OF_RANGE;
; 101  : 			}
; 102  : 
; 103  :  #elif _ITERATOR_DEBUG_LEVEL == 1
; 104  : 		_SCL_SECURE_VALIDATE(this->_Getcont() != 0);
; 105  : 		_SCL_SECURE_VALIDATE_RANGE(
; 106  : 			this->_Ptr != 0
; 107  : 			&& this->_Ptr < ((_Myvec *)this->_Getcont())->_Mylast);
; 108  :  #endif /* _ITERATOR_DEBUG_LEVEL */
; 109  : 
; 110  : 		++this->_Ptr;

  00002	83 00 08	 add	 DWORD PTR [eax], 8

; 111  : 		return (*this);
; 112  : 		}

  00005	c3		 ret	 0
??E?$_Vector_const_iterator@V?$_Vector_val@UDefenseData@ioDefenseController@@V?$allocator@UDefenseData@ioDefenseController@@@std@@@std@@@std@@QAEAAV01@XZ ENDP ; std::_Vector_const_iterator<std::_Vector_val<ioDefenseController::DefenseData,std::allocator<ioDefenseController::DefenseData> > >::operator++
_TEXT	ENDS
PUBLIC	??$_Destroy@K@std@@YAXPAK@Z			; std::_Destroy<unsigned long>
; Function compile flags: /Ogsp
; File c:\program files (x86)\microsoft visual studio 10.0\vc\include\xmemory
;	COMDAT ??$_Destroy@K@std@@YAXPAK@Z
_TEXT	SEGMENT
__Ptr$ = 8						; size = 4
??$_Destroy@K@std@@YAXPAK@Z PROC			; std::_Destroy<unsigned long>, COMDAT

; 63   : 	_Ptr->~_Ty();
; 64   : 	}

  00000	c3		 ret	 0
??$_Destroy@K@std@@YAXPAK@Z ENDP			; std::_Destroy<unsigned long>
_TEXT	ENDS
PUBLIC	__mask@@NegFloat@
PUBLIC	??GD3DXVECTOR3@@QBE?AU0@XZ			; D3DXVECTOR3::operator-
;	COMDAT __mask@@NegFloat@
; File c:\program files (x86)\microsoft directx sdk (june 2010)\include\d3dx9math.inl
CONST	SEGMENT
__mask@@NegFloat@ DB 00H, 00H, 00H, 080H, 00H, 00H, 00H, 080H, 00H, 00H, 00H
	DB	080H, 00H, 00H, 00H, 080H
; Function compile flags: /Ogsp
CONST	ENDS
;	COMDAT ??GD3DXVECTOR3@@QBE?AU0@XZ
_TEXT	SEGMENT
___$ReturnUdt$ = 8					; size = 4
??GD3DXVECTOR3@@QBE?AU0@XZ PROC				; D3DXVECTOR3::operator-, COMDAT
; _this$ = ecx

; 372  : {

  00000	55		 push	 ebp
  00001	8b ec		 mov	 ebp, esp

; 373  :     return D3DXVECTOR3(-x, -y, -z);

  00003	f3 0f 10 05 00
	00 00 00	 movss	 xmm0, DWORD PTR __mask@@NegFloat@
  0000b	8b 45 08	 mov	 eax, DWORD PTR ___$ReturnUdt$[ebp]
  0000e	f3 0f 10 09	 movss	 xmm1, DWORD PTR [ecx]
  00012	0f 57 c8	 xorps	 xmm1, xmm0
  00015	f3 0f 11 08	 movss	 DWORD PTR [eax], xmm1
  00019	f3 0f 10 49 04	 movss	 xmm1, DWORD PTR [ecx+4]
  0001e	0f 57 c8	 xorps	 xmm1, xmm0
  00021	f3 0f 11 48 04	 movss	 DWORD PTR [eax+4], xmm1
  00026	f3 0f 10 49 08	 movss	 xmm1, DWORD PTR [ecx+8]
  0002b	0f 57 c8	 xorps	 xmm1, xmm0
  0002e	f3 0f 11 48 08	 movss	 DWORD PTR [eax+8], xmm1

; 374  : }

  00033	5d		 pop	 ebp
  00034	c2 04 00	 ret	 4
??GD3DXVECTOR3@@QBE?AU0@XZ ENDP				; D3DXVECTOR3::operator-
_TEXT	ENDS
PUBLIC	??HD3DXVECTOR3@@QBE?AU0@ABU0@@Z			; D3DXVECTOR3::operator+
; Function compile flags: /Ogsp
;	COMDAT ??HD3DXVECTOR3@@QBE?AU0@ABU0@@Z
_TEXT	SEGMENT
___$ReturnUdt$ = 8					; size = 4
_v$ = 12						; size = 4
??HD3DXVECTOR3@@QBE?AU0@ABU0@@Z PROC			; D3DXVECTOR3::operator+, COMDAT
; _this$ = ecx

; 380  : {

  00000	55		 push	 ebp
  00001	8b ec		 mov	 ebp, esp

; 381  :     return D3DXVECTOR3(x + v.x, y + v.y, z + v.z);

  00003	8b 55 0c	 mov	 edx, DWORD PTR _v$[ebp]
  00006	f3 0f 10 02	 movss	 xmm0, DWORD PTR [edx]
  0000a	f3 0f 10 09	 movss	 xmm1, DWORD PTR [ecx]
  0000e	8b 45 08	 mov	 eax, DWORD PTR ___$ReturnUdt$[ebp]
  00011	0f 5a c0	 cvtps2pd xmm0, xmm0
  00014	0f 5a c9	 cvtps2pd xmm1, xmm1
  00017	f2 0f 58 c1	 addsd	 xmm0, xmm1
  0001b	f3 0f 10 49 04	 movss	 xmm1, DWORD PTR [ecx+4]
  00020	66 0f 5a c0	 cvtpd2ps xmm0, xmm0
  00024	f3 0f 11 00	 movss	 DWORD PTR [eax], xmm0
  00028	f3 0f 10 42 04	 movss	 xmm0, DWORD PTR [edx+4]
  0002d	0f 5a c0	 cvtps2pd xmm0, xmm0
  00030	0f 5a c9	 cvtps2pd xmm1, xmm1
  00033	f2 0f 58 c1	 addsd	 xmm0, xmm1
  00037	f3 0f 10 49 08	 movss	 xmm1, DWORD PTR [ecx+8]
  0003c	66 0f 5a c0	 cvtpd2ps xmm0, xmm0
  00040	f3 0f 11 40 04	 movss	 DWORD PTR [eax+4], xmm0
  00045	f3 0f 10 42 08	 movss	 xmm0, DWORD PTR [edx+8]
  0004a	0f 5a c0	 cvtps2pd xmm0, xmm0
  0004d	0f 5a c9	 cvtps2pd xmm1, xmm1
  00050	f2 0f 58 c1	 addsd	 xmm0, xmm1
  00054	66 0f 5a c0	 cvtpd2ps xmm0, xmm0
  00058	f3 0f 11 40 08	 movss	 DWORD PTR [eax+8], xmm0

; 382  : }

  0005d	5d		 pop	 ebp
  0005e	c2 08 00	 ret	 8
??HD3DXVECTOR3@@QBE?AU0@ABU0@@Z ENDP			; D3DXVECTOR3::operator+
_TEXT	ENDS
PUBLIC	??GD3DXVECTOR3@@QBE?AU0@ABU0@@Z			; D3DXVECTOR3::operator-
; Function compile flags: /Ogsp
;	COMDAT ??GD3DXVECTOR3@@QBE?AU0@ABU0@@Z
_TEXT	SEGMENT
___$ReturnUdt$ = 8					; size = 4
_v$ = 12						; size = 4
??GD3DXVECTOR3@@QBE?AU0@ABU0@@Z PROC			; D3DXVECTOR3::operator-, COMDAT
; _this$ = ecx

; 386  : {

  00000	55		 push	 ebp
  00001	8b ec		 mov	 ebp, esp

; 387  :     return D3DXVECTOR3(x - v.x, y - v.y, z - v.z);

  00003	8b 55 0c	 mov	 edx, DWORD PTR _v$[ebp]
  00006	f3 0f 10 01	 movss	 xmm0, DWORD PTR [ecx]
  0000a	f3 0f 10 0a	 movss	 xmm1, DWORD PTR [edx]
  0000e	8b 45 08	 mov	 eax, DWORD PTR ___$ReturnUdt$[ebp]
  00011	0f 5a c0	 cvtps2pd xmm0, xmm0
  00014	0f 5a c9	 cvtps2pd xmm1, xmm1
  00017	f2 0f 5c c1	 subsd	 xmm0, xmm1
  0001b	f3 0f 10 4a 04	 movss	 xmm1, DWORD PTR [edx+4]
  00020	66 0f 5a c0	 cvtpd2ps xmm0, xmm0
  00024	f3 0f 11 00	 movss	 DWORD PTR [eax], xmm0
  00028	f3 0f 10 41 04	 movss	 xmm0, DWORD PTR [ecx+4]
  0002d	0f 5a c0	 cvtps2pd xmm0, xmm0
  00030	0f 5a c9	 cvtps2pd xmm1, xmm1
  00033	f2 0f 5c c1	 subsd	 xmm0, xmm1
  00037	f3 0f 10 4a 08	 movss	 xmm1, DWORD PTR [edx+8]
  0003c	66 0f 5a c0	 cvtpd2ps xmm0, xmm0
  00040	f3 0f 11 40 04	 movss	 DWORD PTR [eax+4], xmm0
  00045	f3 0f 10 41 08	 movss	 xmm0, DWORD PTR [ecx+8]
  0004a	0f 5a c0	 cvtps2pd xmm0, xmm0
  0004d	0f 5a c9	 cvtps2pd xmm1, xmm1
  00050	f2 0f 5c c1	 subsd	 xmm0, xmm1
  00054	66 0f 5a c0	 cvtpd2ps xmm0, xmm0
  00058	f3 0f 11 40 08	 movss	 DWORD PTR [eax+8], xmm0

; 388  : }

  0005d	5d		 pop	 ebp
  0005e	c2 08 00	 ret	 8
??GD3DXVECTOR3@@QBE?AU0@ABU0@@Z ENDP			; D3DXVECTOR3::operator-
_TEXT	ENDS
PUBLIC	?D3DXVec3LengthSq@@YAMPBUD3DXVECTOR3@@@Z	; D3DXVec3LengthSq
; Function compile flags: /Ogsp
;	COMDAT ?D3DXVec3LengthSq@@YAMPBUD3DXVECTOR3@@@Z
_TEXT	SEGMENT
tv165 = 8						; size = 4
_pV$ = 8						; size = 4
?D3DXVec3LengthSq@@YAMPBUD3DXVECTOR3@@@Z PROC		; D3DXVec3LengthSq, COMDAT

; 1725 : {

  00000	55		 push	 ebp
  00001	8b ec		 mov	 ebp, esp

; 1726 : #ifdef D3DX_DEBUG
; 1727 :     if(!pV)
; 1728 :         return 0.0f;
; 1729 : #endif
; 1730 : 
; 1731 :     return pV->x * pV->x + pV->y * pV->y + pV->z * pV->z;

  00003	8b 45 08	 mov	 eax, DWORD PTR _pV$[ebp]
  00006	d9 40 04	 fld	 DWORD PTR [eax+4]
  00009	d9 00		 fld	 DWORD PTR [eax]
  0000b	d9 40 08	 fld	 DWORD PTR [eax+8]
  0000e	d9 c1		 fld	 ST(1)
  00010	de ca		 fmulp	 ST(2), ST(0)
  00012	d9 c2		 fld	 ST(2)
  00014	de cb		 fmulp	 ST(3), ST(0)
  00016	d9 c9		 fxch	 ST(1)
  00018	de c2		 faddp	 ST(2), ST(0)
  0001a	d9 c0		 fld	 ST(0)
  0001c	de c9		 fmulp	 ST(1), ST(0)
  0001e	de c1		 faddp	 ST(1), ST(0)
  00020	d9 5d 08	 fstp	 DWORD PTR tv165[ebp]
  00023	d9 45 08	 fld	 DWORD PTR tv165[ebp]

; 1732 : }

  00026	5d		 pop	 ebp
  00027	c3		 ret	 0
?D3DXVec3LengthSq@@YAMPBUD3DXVECTOR3@@@Z ENDP		; D3DXVec3LengthSq
_TEXT	ENDS
PUBLIC	?D3DXVec3Dot@@YAMPBUD3DXVECTOR3@@0@Z		; D3DXVec3Dot
; Function compile flags: /Ogsp
;	COMDAT ?D3DXVec3Dot@@YAMPBUD3DXVECTOR3@@0@Z
_TEXT	SEGMENT
tv188 = 8						; size = 4
_pV1$ = 8						; size = 4
_pV2$ = 12						; size = 4
?D3DXVec3Dot@@YAMPBUD3DXVECTOR3@@0@Z PROC		; D3DXVec3Dot, COMDAT

; 1736 : {

  00000	55		 push	 ebp
  00001	8b ec		 mov	 ebp, esp

; 1737 : #ifdef D3DX_DEBUG
; 1738 :     if(!pV1 || !pV2)
; 1739 :         return 0.0f;
; 1740 : #endif
; 1741 : 
; 1742 :     return pV1->x * pV2->x + pV1->y * pV2->y + pV1->z * pV2->z;

  00003	8b 45 08	 mov	 eax, DWORD PTR _pV1$[ebp]
  00006	8b 4d 0c	 mov	 ecx, DWORD PTR _pV2$[ebp]
  00009	d9 40 04	 fld	 DWORD PTR [eax+4]
  0000c	d8 49 04	 fmul	 DWORD PTR [ecx+4]
  0000f	d9 00		 fld	 DWORD PTR [eax]
  00011	d8 09		 fmul	 DWORD PTR [ecx]
  00013	de c1		 faddp	 ST(1), ST(0)
  00015	d9 40 08	 fld	 DWORD PTR [eax+8]
  00018	d8 49 08	 fmul	 DWORD PTR [ecx+8]
  0001b	de c1		 faddp	 ST(1), ST(0)
  0001d	d9 5d 08	 fstp	 DWORD PTR tv188[ebp]
  00020	d9 45 08	 fld	 DWORD PTR tv188[ebp]

; 1743 : }

  00023	5d		 pop	 ebp
  00024	c3		 ret	 0
?D3DXVec3Dot@@YAMPBUD3DXVECTOR3@@0@Z ENDP		; D3DXVec3Dot
_TEXT	ENDS
PUBLIC	?_DECSTR@@YAXPADH@Z				; _DECSTR
; Function compile flags: /Ogsp
; File d:\lost saga for developer\youtube\tutorial\source\src\lsclient\stringprotect.h
;	COMDAT ?_DECSTR@@YAXPADH@Z
_TEXT	SEGMENT
_s$ = 8							; size = 4
_l$ = 12						; size = 4
?_DECSTR@@YAXPADH@Z PROC				; _DECSTR, COMDAT

; 40   : __forceinline void _DECSTR(char* s, int l){int i=0,l4=(l-1)/4,*p=(int*)s;s[l-1]=0;for(;i<l4;++i)*(p++)^=0xEAEBECED;for(i=l4*4;i<l-1;++i)s[i]^=0xED-i%4;}

  00000	55		 push	 ebp
  00001	8b ec		 mov	 ebp, esp
  00003	8b 4d 0c	 mov	 ecx, DWORD PTR _l$[ebp]
  00006	56		 push	 esi
  00007	8b 75 08	 mov	 esi, DWORD PTR _s$[ebp]
  0000a	57		 push	 edi
  0000b	8d 79 ff	 lea	 edi, DWORD PTR [ecx-1]
  0000e	8b c7		 mov	 eax, edi
  00010	99		 cdq
  00011	83 e2 03	 and	 edx, 3
  00014	03 c2		 add	 eax, edx
  00016	c1 f8 02	 sar	 eax, 2
  00019	8b d6		 mov	 edx, esi
  0001b	c6 44 0e ff 00	 mov	 BYTE PTR [esi+ecx-1], 0
  00020	85 c0		 test	 eax, eax
  00022	7e 0e		 jle	 SHORT $LN4@DECSTR
  00024	8b c8		 mov	 ecx, eax
$LL6@DECSTR:
  00026	81 32 ed ec eb
	ea		 xor	 DWORD PTR [edx], -353637139 ; eaebecedH
  0002c	83 c2 04	 add	 edx, 4
  0002f	49		 dec	 ecx
  00030	75 f4		 jne	 SHORT $LL6@DECSTR
$LN4@DECSTR:
  00032	c1 e0 02	 shl	 eax, 2
  00035	eb 17		 jmp	 SHORT $LN14@DECSTR
$LL3@DECSTR:
  00037	8b c8		 mov	 ecx, eax
  00039	81 e1 03 00 00
	80		 and	 ecx, -2147483645	; 80000003H
  0003f	79 05		 jns	 SHORT $LN13@DECSTR
  00041	49		 dec	 ecx
  00042	83 c9 fc	 or	 ecx, -4			; fffffffcH
  00045	41		 inc	 ecx
$LN13@DECSTR:
  00046	b2 ed		 mov	 dl, -19			; ffffffedH
  00048	2a d1		 sub	 dl, cl
  0004a	30 14 30	 xor	 BYTE PTR [eax+esi], dl
  0004d	40		 inc	 eax
$LN14@DECSTR:
  0004e	3b c7		 cmp	 eax, edi
  00050	7c e5		 jl	 SHORT $LL3@DECSTR
  00052	5f		 pop	 edi
  00053	5e		 pop	 esi
  00054	5d		 pop	 ebp
  00055	c3		 ret	 0
?_DECSTR@@YAXPADH@Z ENDP				; _DECSTR
_TEXT	ENDS
PUBLIC	?return57@@YAIXZ				; return57
; Function compile flags: /Ogsp
; File d:\lost saga for developer\youtube\tutorial\source\src\lsclient\veryoftenusedefine.h
;	COMDAT ?return57@@YAIXZ
_TEXT	SEGMENT
?return57@@YAIXZ PROC					; return57, COMDAT

; 15   : __forceinline unsigned int return57() { __asm mov eax, 57 };

  00000	b8 39 00 00 00	 mov	 eax, 57			; 00000039H
  00005	c3		 ret	 0
?return57@@YAIXZ ENDP					; return57
_TEXT	ENDS
PUBLIC	?IsLive@ioWeapon@@QBE_NXZ			; ioWeapon::IsLive
; Function compile flags: /Ogsp
; File d:\lost saga for developer\youtube\tutorial\source\src\lsclient\ioweapon.h
;	COMDAT ?IsLive@ioWeapon@@QBE_NXZ
_TEXT	SEGMENT
?IsLive@ioWeapon@@QBE_NXZ PROC				; ioWeapon::IsLive, COMDAT
; _this$ = ecx

; 533  : 	inline bool IsLive() const { return m_bLive; }

  00000	8a 81 82 05 00
	00		 mov	 al, BYTE PTR [ecx+1410]
  00006	c3		 ret	 0
?IsLive@ioWeapon@@QBE_NXZ ENDP				; ioWeapon::IsLive
_TEXT	ENDS
PUBLIC	?size@?$basic_string@DU?$char_traits@D@std@@V?$allocator@D@2@@std@@QBEIXZ ; std::basic_string<char,std::char_traits<char>,std::allocator<char> >::size
; Function compile flags: /Ogsp
; File c:\program files (x86)\microsoft visual studio 10.0\vc\include\xstring
;	COMDAT ?size@?$basic_string@DU?$char_traits@D@std@@V?$allocator@D@2@@std@@QBEIXZ
_TEXT	SEGMENT
?size@?$basic_string@DU?$char_traits@D@std@@V?$allocator@D@2@@std@@QBEIXZ PROC ; std::basic_string<char,std::char_traits<char>,std::allocator<char> >::size, COMDAT
; _this$ = ecx

; 1512 : 		return (this->_Mysize);

  00000	8b 41 10	 mov	 eax, DWORD PTR [ecx+16]

; 1513 : 		}

  00003	c3		 ret	 0
?size@?$basic_string@DU?$char_traits@D@std@@V?$allocator@D@2@@std@@QBEIXZ ENDP ; std::basic_string<char,std::char_traits<char>,std::allocator<char> >::size
_TEXT	ENDS
PUBLIC	?size@?$vector@KV?$allocator@K@std@@@std@@QBEIXZ ; std::vector<unsigned long,std::allocator<unsigned long> >::size
; Function compile flags: /Ogsp
; File c:\program files (x86)\microsoft visual studio 10.0\vc\include\vector
;	COMDAT ?size@?$vector@KV?$allocator@K@std@@@std@@QBEIXZ
_TEXT	SEGMENT
?size@?$vector@KV?$allocator@K@std@@@std@@QBEIXZ PROC	; std::vector<unsigned long,std::allocator<unsigned long> >::size, COMDAT
; _this$ = ecx

; 879  : 		return (this->_Mylast - this->_Myfirst);

  00000	8b 41 04	 mov	 eax, DWORD PTR [ecx+4]
  00003	2b 01		 sub	 eax, DWORD PTR [ecx]
  00005	c1 f8 02	 sar	 eax, 2

; 880  : 		}

  00008	c3		 ret	 0
?size@?$vector@KV?$allocator@K@std@@@std@@QBEIXZ ENDP	; std::vector<unsigned long,std::allocator<unsigned long> >::size
_TEXT	ENDS
PUBLIC	??A?$vector@KV?$allocator@K@std@@@std@@QAEAAKI@Z ; std::vector<unsigned long,std::allocator<unsigned long> >::operator[]
; Function compile flags: /Ogsp
;	COMDAT ??A?$vector@KV?$allocator@K@std@@@std@@QAEAAKI@Z
_TEXT	SEGMENT
__Pos$ = 8						; size = 4
??A?$vector@KV?$allocator@K@std@@@std@@QAEAAKI@Z PROC	; std::vector<unsigned long,std::allocator<unsigned long> >::operator[], COMDAT
; _this$ = ecx

; 928  : 		{	// subscript mutable sequence

  00000	55		 push	 ebp
  00001	8b ec		 mov	 ebp, esp

; 929  :  #if _ITERATOR_DEBUG_LEVEL == 2
; 930  : 		if (size() <= _Pos)
; 931  : 			{	// report error
; 932  : 			_DEBUG_ERROR("vector subscript out of range");
; 933  : 			_SCL_SECURE_OUT_OF_RANGE;
; 934  : 			}
; 935  : 
; 936  :  #elif _ITERATOR_DEBUG_LEVEL == 1
; 937  : 		_SCL_SECURE_VALIDATE_RANGE(_Pos < size());
; 938  :  #endif /* _ITERATOR_DEBUG_LEVEL */
; 939  : 
; 940  : 		return (*(this->_Myfirst + _Pos));

  00003	8b 01		 mov	 eax, DWORD PTR [ecx]
  00005	8b 4d 08	 mov	 ecx, DWORD PTR __Pos$[ebp]
  00008	8d 04 88	 lea	 eax, DWORD PTR [eax+ecx*4]

; 941  : 		}

  0000b	5d		 pop	 ebp
  0000c	c2 04 00	 ret	 4
??A?$vector@KV?$allocator@K@std@@@std@@QAEAAKI@Z ENDP	; std::vector<unsigned long,std::allocator<unsigned long> >::operator[]
_TEXT	ENDS
PUBLIC	?_Myptr@?$basic_string@DU?$char_traits@D@std@@V?$allocator@D@2@@std@@QBEPBDXZ ; std::basic_string<char,std::char_traits<char>,std::allocator<char> >::_Myptr
; Function compile flags: /Ogsp
; File c:\program files (x86)\microsoft visual studio 10.0\vc\include\xstring
;	COMDAT ?_Myptr@?$basic_string@DU?$char_traits@D@std@@V?$allocator@D@2@@std@@QBEPBDXZ
_TEXT	SEGMENT
?_Myptr@?$basic_string@DU?$char_traits@D@std@@V?$allocator@D@2@@std@@QBEPBDXZ PROC ; std::basic_string<char,std::char_traits<char>,std::allocator<char> >::_Myptr, COMDAT
; _this$ = ecx

; 2010 : 		return (this->_BUF_SIZE <= this->_Myres ? this->_Bx._Ptr
; 2011 : 			: this->_Bx._Buf);

  00000	83 79 14 10	 cmp	 DWORD PTR [ecx+20], 16	; 00000010H
  00004	72 03		 jb	 SHORT $LN3@Myptr
  00006	8b 01		 mov	 eax, DWORD PTR [ecx]

; 2012 : 		}

  00008	c3		 ret	 0
$LN3@Myptr:

; 2010 : 		return (this->_BUF_SIZE <= this->_Myres ? this->_Bx._Ptr
; 2011 : 			: this->_Bx._Buf);

  00009	8b c1		 mov	 eax, ecx

; 2012 : 		}

  0000b	c3		 ret	 0
?_Myptr@?$basic_string@DU?$char_traits@D@std@@V?$allocator@D@2@@std@@QBEPBDXZ ENDP ; std::basic_string<char,std::char_traits<char>,std::allocator<char> >::_Myptr
_TEXT	ENDS
PUBLIC	??1?$_String_val@DV?$allocator@D@std@@@std@@QAE@XZ ; std::_String_val<char,std::allocator<char> >::~_String_val<char,std::allocator<char> >
; Function compile flags: /Ogsp
;	COMDAT ??1?$_String_val@DV?$allocator@D@std@@@std@@QAE@XZ
_TEXT	SEGMENT
??1?$_String_val@DV?$allocator@D@std@@@std@@QAE@XZ PROC	; std::_String_val<char,std::allocator<char> >::~_String_val<char,std::allocator<char> >, COMDAT
; _this$ = ecx

; 459  : 		}

  00000	c3		 ret	 0
??1?$_String_val@DV?$allocator@D@std@@@std@@QAE@XZ ENDP	; std::_String_val<char,std::allocator<char> >::~_String_val<char,std::allocator<char> >
_TEXT	ENDS
PUBLIC	??0?$allocator@D@std@@QAE@XZ			; std::allocator<char>::allocator<char>
; Function compile flags: /Ogsp
; File c:\program files (x86)\microsoft visual studio 10.0\vc\include\xmemory
;	COMDAT ??0?$allocator@D@std@@QAE@XZ
_TEXT	SEGMENT
??0?$allocator@D@std@@QAE@XZ PROC			; std::allocator<char>::allocator<char>, COMDAT
; _this$ = ecx

; 161  : 	_ALLOCATOR() _THROW0()

  00000	8b c1		 mov	 eax, ecx

; 162  : 		{	// construct default allocator (do nothing)
; 163  : 		}

  00002	c3		 ret	 0
??0?$allocator@D@std@@QAE@XZ ENDP			; std::allocator<char>::allocator<char>
_TEXT	ENDS
PUBLIC	??0?$allocator@D@std@@QAE@ABV01@@Z		; std::allocator<char>::allocator<char>
; Function compile flags: /Ogsp
;	COMDAT ??0?$allocator@D@std@@QAE@ABV01@@Z
_TEXT	SEGMENT
___formal$ = 8						; size = 4
??0?$allocator@D@std@@QAE@ABV01@@Z PROC			; std::allocator<char>::allocator<char>, COMDAT
; _this$ = ecx

; 165  : 	_ALLOCATOR(const _ALLOCATOR<_Ty>&) _THROW0()

  00000	8b c1		 mov	 eax, ecx

; 166  : 		{	// construct by copying (do nothing)
; 167  : 		}

  00002	c2 04 00	 ret	 4
??0?$allocator@D@std@@QAE@ABV01@@Z ENDP			; std::allocator<char>::allocator<char>
_TEXT	ENDS
PUBLIC	?DecryptValueToPool@?$CEncrypt@W4TeamType@@@@QAEXPAW4TeamType@@@Z ; CEncrypt<enum TeamType>::DecryptValueToPool
EXTRN	?DecryptByte@ccddaabb@@QBEXPBDPADH@Z:PROC	; ccddaabb::DecryptByte
; Function compile flags: /Ogsp
; File d:\lost saga for developer\youtube\tutorial\source\src\lsclient\encryptvalue.h
;	COMDAT ?DecryptValueToPool@?$CEncrypt@W4TeamType@@@@QAEXPAW4TeamType@@@Z
_TEXT	SEGMENT
_value$ = 8						; size = 4
?DecryptValueToPool@?$CEncrypt@W4TeamType@@@@QAEXPAW4TeamType@@@Z PROC ; CEncrypt<enum TeamType>::DecryptValueToPool, COMDAT
; _this$ = ecx

; 2959 : 	{

  00000	55		 push	 ebp
  00001	8b ec		 mov	 ebp, esp
  00003	56		 push	 esi

; 2960 : 		m_RC5.DecryptByte( m_MemPool, m_TempMem, sizeof(TeamType) );

  00004	8d 71 28	 lea	 esi, DWORD PTR [ecx+40]
  00007	6a 04		 push	 4
  00009	8d 41 1c	 lea	 eax, DWORD PTR [ecx+28]
  0000c	56		 push	 esi
  0000d	50		 push	 eax
  0000e	83 c1 0c	 add	 ecx, 12			; 0000000cH
  00011	e8 00 00 00 00	 call	 ?DecryptByte@ccddaabb@@QBEXPBDPADH@Z ; ccddaabb::DecryptByte

; 2961 : 		*value = *((TeamType*)m_TempMem);

  00016	8b 06		 mov	 eax, DWORD PTR [esi]
  00018	8b 4d 08	 mov	 ecx, DWORD PTR _value$[ebp]
  0001b	89 01		 mov	 DWORD PTR [ecx], eax
  0001d	5e		 pop	 esi

; 2962 : 	}

  0001e	5d		 pop	 ebp
  0001f	c2 04 00	 ret	 4
?DecryptValueToPool@?$CEncrypt@W4TeamType@@@@QAEXPAW4TeamType@@@Z ENDP ; CEncrypt<enum TeamType>::DecryptValueToPool
_TEXT	ENDS
PUBLIC	?_Inside@?$vector@KV?$allocator@K@std@@@std@@IBE_NPBK@Z ; std::vector<unsigned long,std::allocator<unsigned long> >::_Inside
; Function compile flags: /Ogsp
; File c:\program files (x86)\microsoft visual studio 10.0\vc\include\vector
;	COMDAT ?_Inside@?$vector@KV?$allocator@K@std@@@std@@IBE_NPBK@Z
_TEXT	SEGMENT
__Ptr$ = 8						; size = 4
?_Inside@?$vector@KV?$allocator@K@std@@@std@@IBE_NPBK@Z PROC ; std::vector<unsigned long,std::allocator<unsigned long> >::_Inside, COMDAT
; _this$ = ecx

; 1285 : 		{	// test if _Ptr points inside vector

  00000	55		 push	 ebp
  00001	8b ec		 mov	 ebp, esp

; 1286 : 		return (_Ptr < this->_Mylast && this->_Myfirst <= _Ptr);

  00003	8b 45 08	 mov	 eax, DWORD PTR __Ptr$[ebp]
  00006	3b 41 04	 cmp	 eax, DWORD PTR [ecx+4]
  00009	73 09		 jae	 SHORT $LN3@Inside@2
  0000b	39 01		 cmp	 DWORD PTR [ecx], eax
  0000d	77 05		 ja	 SHORT $LN3@Inside@2
  0000f	33 c0		 xor	 eax, eax
  00011	40		 inc	 eax
  00012	eb 02		 jmp	 SHORT $LN4@Inside@2
$LN3@Inside@2:
  00014	33 c0		 xor	 eax, eax
$LN4@Inside@2:

; 1287 : 		}

  00016	5d		 pop	 ebp
  00017	c2 04 00	 ret	 4
?_Inside@?$vector@KV?$allocator@K@std@@@std@@IBE_NPBK@Z ENDP ; std::vector<unsigned long,std::allocator<unsigned long> >::_Inside
_TEXT	ENDS
PUBLIC	?_Orphan_range@?$vector@KV?$allocator@K@std@@@std@@IBEXPAK0@Z ; std::vector<unsigned long,std::allocator<unsigned long> >::_Orphan_range
; Function compile flags: /Ogsp
;	COMDAT ?_Orphan_range@?$vector@KV?$allocator@K@std@@@std@@IBEXPAK0@Z
_TEXT	SEGMENT
___formal$ = 8						; size = 4
___formal$ = 12						; size = 4
?_Orphan_range@?$vector@KV?$allocator@K@std@@@std@@IBEXPAK0@Z PROC ; std::vector<unsigned long,std::allocator<unsigned long> >::_Orphan_range, COMDAT
; _this$ = ecx

; 1454 : 		}

  00000	c2 08 00	 ret	 8
?_Orphan_range@?$vector@KV?$allocator@K@std@@@std@@IBEXPAK0@Z ENDP ; std::vector<unsigned long,std::allocator<unsigned long> >::_Orphan_range
_TEXT	ENDS
PUBLIC	??1?$_Vector_val@KV?$allocator@K@std@@@std@@QAE@XZ ; std::_Vector_val<unsigned long,std::allocator<unsigned long> >::~_Vector_val<unsigned long,std::allocator<unsigned long> >
; Function compile flags: /Ogsp
;	COMDAT ??1?$_Vector_val@KV?$allocator@K@std@@@std@@QAE@XZ
_TEXT	SEGMENT
??1?$_Vector_val@KV?$allocator@K@std@@@std@@QAE@XZ PROC	; std::_Vector_val<unsigned long,std::allocator<unsigned long> >::~_Vector_val<unsigned long,std::allocator<unsigned long> >, COMDAT
; _this$ = ecx

; 434  : 		}

  00000	c3		 ret	 0
??1?$_Vector_val@KV?$allocator@K@std@@@std@@QAE@XZ ENDP	; std::_Vector_val<unsigned long,std::allocator<unsigned long> >::~_Vector_val<unsigned long,std::allocator<unsigned long> >
_TEXT	ENDS
PUBLIC	??0?$allocator@K@std@@QAE@XZ			; std::allocator<unsigned long>::allocator<unsigned long>
; Function compile flags: /Ogsp
; File c:\program files (x86)\microsoft visual studio 10.0\vc\include\xmemory
;	COMDAT ??0?$allocator@K@std@@QAE@XZ
_TEXT	SEGMENT
??0?$allocator@K@std@@QAE@XZ PROC			; std::allocator<unsigned long>::allocator<unsigned long>, COMDAT
; _this$ = ecx

; 161  : 	_ALLOCATOR() _THROW0()

  00000	8b c1		 mov	 eax, ecx

; 162  : 		{	// construct default allocator (do nothing)
; 163  : 		}

  00002	c3		 ret	 0
??0?$allocator@K@std@@QAE@XZ ENDP			; std::allocator<unsigned long>::allocator<unsigned long>
_TEXT	ENDS
PUBLIC	?get_allocator@?$basic_string@DU?$char_traits@D@std@@V?$allocator@D@2@@std@@QBE?AV?$allocator@D@2@XZ ; std::basic_string<char,std::char_traits<char>,std::allocator<char> >::get_allocator
; Function compile flags: /Ogsp
; File c:\program files (x86)\microsoft visual studio 10.0\vc\include\xstring
;	COMDAT ?get_allocator@?$basic_string@DU?$char_traits@D@std@@V?$allocator@D@2@@std@@QBE?AV?$allocator@D@2@XZ
_TEXT	SEGMENT
___$ReturnUdt$ = 8					; size = 4
?get_allocator@?$basic_string@DU?$char_traits@D@std@@V?$allocator@D@2@@std@@QBE?AV?$allocator@D@2@XZ PROC ; std::basic_string<char,std::char_traits<char>,std::allocator<char> >::get_allocator, COMDAT
; _this$ = ecx

; 1906 : 		{	// return allocator object for values

  00000	55		 push	 ebp
  00001	8b ec		 mov	 ebp, esp

; 1907 : 		return (this->_Alval);

  00003	8b 45 08	 mov	 eax, DWORD PTR ___$ReturnUdt$[ebp]

; 1908 : 		}

  00006	5d		 pop	 ebp
  00007	c2 04 00	 ret	 4
?get_allocator@?$basic_string@DU?$char_traits@D@std@@V?$allocator@D@2@@std@@QBE?AV?$allocator@D@2@XZ ENDP ; std::basic_string<char,std::char_traits<char>,std::allocator<char> >::get_allocator
_TEXT	ENDS
PUBLIC	?_Myptr@?$basic_string@DU?$char_traits@D@std@@V?$allocator@D@2@@std@@QAEPADXZ ; std::basic_string<char,std::char_traits<char>,std::allocator<char> >::_Myptr
; Function compile flags: /Ogsp
;	COMDAT ?_Myptr@?$basic_string@DU?$char_traits@D@std@@V?$allocator@D@2@@std@@QAEPADXZ
_TEXT	SEGMENT
?_Myptr@?$basic_string@DU?$char_traits@D@std@@V?$allocator@D@2@@std@@QAEPADXZ PROC ; std::basic_string<char,std::char_traits<char>,std::allocator<char> >::_Myptr, COMDAT
; _this$ = ecx

; 2004 : 		return (this->_BUF_SIZE <= this->_Myres ? this->_Bx._Ptr
; 2005 : 			: this->_Bx._Buf);

  00000	83 79 14 10	 cmp	 DWORD PTR [ecx+20], 16	; 00000010H
  00004	72 03		 jb	 SHORT $LN3@Myptr@2
  00006	8b 01		 mov	 eax, DWORD PTR [ecx]

; 2006 : 		}

  00008	c3		 ret	 0
$LN3@Myptr@2:

; 2004 : 		return (this->_BUF_SIZE <= this->_Myres ? this->_Bx._Ptr
; 2005 : 			: this->_Bx._Buf);

  00009	8b c1		 mov	 eax, ecx

; 2006 : 		}

  0000b	c3		 ret	 0
?_Myptr@?$basic_string@DU?$char_traits@D@std@@V?$allocator@D@2@@std@@QAEPADXZ ENDP ; std::basic_string<char,std::char_traits<char>,std::allocator<char> >::_Myptr
_TEXT	ENDS
PUBLIC	??_C@_0BA@JFNIOLAK@string?5too?5long?$AA@	; `string'
PUBLIC	?_Xlen@?$basic_string@DU?$char_traits@D@std@@V?$allocator@D@2@@std@@QBEXXZ ; std::basic_string<char,std::char_traits<char>,std::allocator<char> >::_Xlen
;	COMDAT ??_C@_0BA@JFNIOLAK@string?5too?5long?$AA@
CONST	SEGMENT
??_C@_0BA@JFNIOLAK@string?5too?5long?$AA@ DB 'string too long', 00H ; `string'
; Function compile flags: /Ogsp
CONST	ENDS
;	COMDAT ?_Xlen@?$basic_string@DU?$char_traits@D@std@@V?$allocator@D@2@@std@@QBEXXZ
_TEXT	SEGMENT
?_Xlen@?$basic_string@DU?$char_traits@D@std@@V?$allocator@D@2@@std@@QBEXXZ PROC ; std::basic_string<char,std::char_traits<char>,std::allocator<char> >::_Xlen, COMDAT
; _this$ = ecx

; 2016 : 		_Xlength_error("string too long");

  00000	68 00 00 00 00	 push	 OFFSET ??_C@_0BA@JFNIOLAK@string?5too?5long?$AA@
  00005	ff 15 00 00 00
	00		 call	 DWORD PTR __imp_?_Xlength_error@std@@YAXPBD@Z
$LN4@Xlen@3:
$LN3@Xlen@3:
  0000b	cc		 int	 3
?_Xlen@?$basic_string@DU?$char_traits@D@std@@V?$allocator@D@2@@std@@QBEXXZ ENDP ; std::basic_string<char,std::char_traits<char>,std::allocator<char> >::_Xlen
_TEXT	ENDS
PUBLIC	??_C@_0BI@CFPLBAOH@invalid?5string?5position?$AA@ ; `string'
PUBLIC	?_Xran@?$basic_string@DU?$char_traits@D@std@@V?$allocator@D@2@@std@@QBEXXZ ; std::basic_string<char,std::char_traits<char>,std::allocator<char> >::_Xran
EXTRN	__imp_?_Xout_of_range@std@@YAXPBD@Z:PROC
;	COMDAT ??_C@_0BI@CFPLBAOH@invalid?5string?5position?$AA@
CONST	SEGMENT
??_C@_0BI@CFPLBAOH@invalid?5string?5position?$AA@ DB 'invalid string posi'
	DB	'tion', 00H					; `string'
; Function compile flags: /Ogsp
CONST	ENDS
;	COMDAT ?_Xran@?$basic_string@DU?$char_traits@D@std@@V?$allocator@D@2@@std@@QBEXXZ
_TEXT	SEGMENT
?_Xran@?$basic_string@DU?$char_traits@D@std@@V?$allocator@D@2@@std@@QBEXXZ PROC ; std::basic_string<char,std::char_traits<char>,std::allocator<char> >::_Xran, COMDAT
; _this$ = ecx

; 2021 : 		_Xout_of_range("invalid string position");

  00000	68 00 00 00 00	 push	 OFFSET ??_C@_0BI@CFPLBAOH@invalid?5string?5position?$AA@
  00005	ff 15 00 00 00
	00		 call	 DWORD PTR __imp_?_Xout_of_range@std@@YAXPBD@Z
$LN4@Xran:
$LN3@Xran:
  0000b	cc		 int	 3
?_Xran@?$basic_string@DU?$char_traits@D@std@@V?$allocator@D@2@@std@@QBEXXZ ENDP ; std::basic_string<char,std::char_traits<char>,std::allocator<char> >::_Xran
_TEXT	ENDS
PUBLIC	?deallocate@?$allocator@D@std@@QAEXPADI@Z	; std::allocator<char>::deallocate
; Function compile flags: /Ogsp
; File c:\program files (x86)\microsoft visual studio 10.0\vc\include\xmemory
;	COMDAT ?deallocate@?$allocator@D@std@@QAEXPADI@Z
_TEXT	SEGMENT
__Ptr$ = 8						; size = 4
___formal$ = 12						; size = 4
?deallocate@?$allocator@D@std@@QAEXPADI@Z PROC		; std::allocator<char>::deallocate, COMDAT
; _this$ = ecx

; 181  : 		{	// deallocate object at _Ptr, ignore size

  00000	55		 push	 ebp
  00001	8b ec		 mov	 ebp, esp

; 182  : 		::operator delete(_Ptr);

  00003	ff 75 08	 push	 DWORD PTR __Ptr$[ebp]
  00006	e8 00 00 00 00	 call	 ??3@YAXPAX@Z		; operator delete
  0000b	59		 pop	 ecx

; 183  : 		}

  0000c	5d		 pop	 ebp
  0000d	c2 08 00	 ret	 8
?deallocate@?$allocator@D@std@@QAEXPADI@Z ENDP		; std::allocator<char>::deallocate
_TEXT	ENDS
PUBLIC	?capacity@?$vector@KV?$allocator@K@std@@@std@@QBEIXZ ; std::vector<unsigned long,std::allocator<unsigned long> >::capacity
; Function compile flags: /Ogsp
; File c:\program files (x86)\microsoft visual studio 10.0\vc\include\vector
;	COMDAT ?capacity@?$vector@KV?$allocator@K@std@@@std@@QBEIXZ
_TEXT	SEGMENT
?capacity@?$vector@KV?$allocator@K@std@@@std@@QBEIXZ PROC ; std::vector<unsigned long,std::allocator<unsigned long> >::capacity, COMDAT
; _this$ = ecx

; 777  : 		return (this->_Myend - this->_Myfirst);

  00000	8b 41 08	 mov	 eax, DWORD PTR [ecx+8]
  00003	2b 01		 sub	 eax, DWORD PTR [ecx]
  00005	c1 f8 02	 sar	 eax, 2

; 778  : 		}

  00008	c3		 ret	 0
?capacity@?$vector@KV?$allocator@K@std@@@std@@QBEIXZ ENDP ; std::vector<unsigned long,std::allocator<unsigned long> >::capacity
_TEXT	ENDS
PUBLIC	?_Xlen@?$vector@KV?$allocator@K@std@@@std@@IBEXXZ ; std::vector<unsigned long,std::allocator<unsigned long> >::_Xlen
; Function compile flags: /Ogsp
;	COMDAT ?_Xlen@?$vector@KV?$allocator@K@std@@@std@@IBEXXZ
_TEXT	SEGMENT
?_Xlen@?$vector@KV?$allocator@K@std@@@std@@IBEXXZ PROC	; std::vector<unsigned long,std::allocator<unsigned long> >::_Xlen, COMDAT
; _this$ = ecx

; 1427 : 		_Xlength_error("vector<T> too long");

  00000	68 00 00 00 00	 push	 OFFSET ??_C@_0BD@OLBABOEK@vector?$DMT?$DO?5too?5long?$AA@
  00005	ff 15 00 00 00
	00		 call	 DWORD PTR __imp_?_Xlength_error@std@@YAXPBD@Z
$LN4@Xlen@4:
$LN3@Xlen@4:
  0000b	cc		 int	 3
?_Xlen@?$vector@KV?$allocator@K@std@@@std@@IBEXXZ ENDP	; std::vector<unsigned long,std::allocator<unsigned long> >::_Xlen
_TEXT	ENDS
PUBLIC	??0?$allocator@K@std@@QAE@ABV01@@Z		; std::allocator<unsigned long>::allocator<unsigned long>
; Function compile flags: /Ogsp
; File c:\program files (x86)\microsoft visual studio 10.0\vc\include\xmemory
;	COMDAT ??0?$allocator@K@std@@QAE@ABV01@@Z
_TEXT	SEGMENT
___formal$ = 8						; size = 4
??0?$allocator@K@std@@QAE@ABV01@@Z PROC			; std::allocator<unsigned long>::allocator<unsigned long>, COMDAT
; _this$ = ecx

; 165  : 	_ALLOCATOR(const _ALLOCATOR<_Ty>&) _THROW0()

  00000	8b c1		 mov	 eax, ecx

; 166  : 		{	// construct by copying (do nothing)
; 167  : 		}

  00002	c2 04 00	 ret	 4
??0?$allocator@K@std@@QAE@ABV01@@Z ENDP			; std::allocator<unsigned long>::allocator<unsigned long>
_TEXT	ENDS
PUBLIC	?deallocate@?$allocator@K@std@@QAEXPAKI@Z	; std::allocator<unsigned long>::deallocate
; Function compile flags: /Ogsp
;	COMDAT ?deallocate@?$allocator@K@std@@QAEXPAKI@Z
_TEXT	SEGMENT
__Ptr$ = 8						; size = 4
___formal$ = 12						; size = 4
?deallocate@?$allocator@K@std@@QAEXPAKI@Z PROC		; std::allocator<unsigned long>::deallocate, COMDAT
; _this$ = ecx

; 181  : 		{	// deallocate object at _Ptr, ignore size

  00000	55		 push	 ebp
  00001	8b ec		 mov	 ebp, esp

; 182  : 		::operator delete(_Ptr);

  00003	ff 75 08	 push	 DWORD PTR __Ptr$[ebp]
  00006	e8 00 00 00 00	 call	 ??3@YAXPAX@Z		; operator delete
  0000b	59		 pop	 ecx

; 183  : 		}

  0000c	5d		 pop	 ebp
  0000d	c2 08 00	 ret	 8
?deallocate@?$allocator@K@std@@QAEXPAKI@Z ENDP		; std::allocator<unsigned long>::deallocate
_TEXT	ENDS
PUBLIC	?_Inside@?$basic_string@DU?$char_traits@D@std@@V?$allocator@D@2@@std@@QAE_NPBD@Z ; std::basic_string<char,std::char_traits<char>,std::allocator<char> >::_Inside
; Function compile flags: /Ogsp
; File c:\program files (x86)\microsoft visual studio 10.0\vc\include\xstring
;	COMDAT ?_Inside@?$basic_string@DU?$char_traits@D@std@@V?$allocator@D@2@@std@@QAE_NPBD@Z
_TEXT	SEGMENT
__Ptr$ = 8						; size = 4
?_Inside@?$basic_string@DU?$char_traits@D@std@@V?$allocator@D@2@@std@@QAE_NPBD@Z PROC ; std::basic_string<char,std::char_traits<char>,std::allocator<char> >::_Inside, COMDAT
; _this$ = ecx

; 1973 : 		{	// test if _Ptr points inside string

  00000	55		 push	 ebp
  00001	8b ec		 mov	 ebp, esp

; 1974 : 		if (_Ptr == 0 || _Ptr < _Myptr() || _Myptr() + this->_Mysize <= _Ptr)

  00003	83 7d 08 00	 cmp	 DWORD PTR __Ptr$[ebp], 0
  00007	74 2c		 je	 SHORT $LN2@Inside@3
  00009	8b 51 14	 mov	 edx, DWORD PTR [ecx+20]
  0000c	83 fa 10	 cmp	 edx, 16			; 00000010H
  0000f	72 04		 jb	 SHORT $LN8@Inside@3
  00011	8b 01		 mov	 eax, DWORD PTR [ecx]
  00013	eb 02		 jmp	 SHORT $LN9@Inside@3
$LN8@Inside@3:
  00015	8b c1		 mov	 eax, ecx
$LN9@Inside@3:
  00017	39 45 08	 cmp	 DWORD PTR __Ptr$[ebp], eax
  0001a	72 19		 jb	 SHORT $LN2@Inside@3
  0001c	83 fa 10	 cmp	 edx, 16			; 00000010H
  0001f	72 04		 jb	 SHORT $LN12@Inside@3
  00021	8b 01		 mov	 eax, DWORD PTR [ecx]
  00023	eb 02		 jmp	 SHORT $LN13@Inside@3
$LN12@Inside@3:
  00025	8b c1		 mov	 eax, ecx
$LN13@Inside@3:
  00027	8b 49 10	 mov	 ecx, DWORD PTR [ecx+16]
  0002a	03 c8		 add	 ecx, eax
  0002c	3b 4d 08	 cmp	 ecx, DWORD PTR __Ptr$[ebp]
  0002f	76 04		 jbe	 SHORT $LN2@Inside@3

; 1976 : 		else
; 1977 : 			return (true);

  00031	b0 01		 mov	 al, 1
  00033	eb 02		 jmp	 SHORT $LN1@Inside@3
$LN2@Inside@3:

; 1975 : 			return (false);	// don't ask

  00035	32 c0		 xor	 al, al
$LN1@Inside@3:

; 1978 : 		}

  00037	5d		 pop	 ebp
  00038	c2 04 00	 ret	 4
?_Inside@?$basic_string@DU?$char_traits@D@std@@V?$allocator@D@2@@std@@QAE_NPBD@Z ENDP ; std::basic_string<char,std::char_traits<char>,std::allocator<char> >::_Inside
_TEXT	ENDS
PUBLIC	?max_size@?$allocator@K@std@@QBEIXZ		; std::allocator<unsigned long>::max_size
; Function compile flags: /Ogsp
; File c:\program files (x86)\microsoft visual studio 10.0\vc\include\xmemory
;	COMDAT ?max_size@?$allocator@K@std@@QBEIXZ
_TEXT	SEGMENT
?max_size@?$allocator@K@std@@QBEIXZ PROC		; std::allocator<unsigned long>::max_size, COMDAT
; _this$ = ecx

; 218  : 		_SIZT _Count = (_SIZT)(-1) / sizeof (_Ty);
; 219  : 		return (0 < _Count ? _Count : 1);

  00000	b8 ff ff ff 3f	 mov	 eax, 1073741823		; 3fffffffH

; 220  : 		}

  00005	c3		 ret	 0
?max_size@?$allocator@K@std@@QBEIXZ ENDP		; std::allocator<unsigned long>::max_size
_TEXT	ENDS
PUBLIC	??0?$_Vector_const_iterator@V?$_Vector_val@KV?$allocator@K@std@@@std@@@std@@QAE@PAKPBU_Container_base0@1@@Z ; std::_Vector_const_iterator<std::_Vector_val<unsigned long,std::allocator<unsigned long> > >::_Vector_const_iterator<std::_Vector_val<unsigned long,std::allocator<unsigned long> > >
; Function compile flags: /Ogsp
; File c:\program files (x86)\microsoft visual studio 10.0\vc\include\vector
;	COMDAT ??0?$_Vector_const_iterator@V?$_Vector_val@KV?$allocator@K@std@@@std@@@std@@QAE@PAKPBU_Container_base0@1@@Z
_TEXT	SEGMENT
__Parg$ = 8						; size = 4
__Pvector$ = 12						; size = 4
??0?$_Vector_const_iterator@V?$_Vector_val@KV?$allocator@K@std@@@std@@@std@@QAE@PAKPBU_Container_base0@1@@Z PROC ; std::_Vector_const_iterator<std::_Vector_val<unsigned long,std::allocator<unsigned long> > >::_Vector_const_iterator<std::_Vector_val<unsigned long,std::allocator<unsigned long> > >, COMDAT
; _this$ = ecx

; 45   : 		{	// construct with pointer _Parg

  00000	55		 push	 ebp
  00001	8b ec		 mov	 ebp, esp
  00003	8b c1		 mov	 eax, ecx
  00005	8b 4d 08	 mov	 ecx, DWORD PTR __Parg$[ebp]
  00008	89 08		 mov	 DWORD PTR [eax], ecx

; 46   : 		this->_Adopt(_Pvector);
; 47   : 		}

  0000a	5d		 pop	 ebp
  0000b	c2 08 00	 ret	 8
??0?$_Vector_const_iterator@V?$_Vector_val@KV?$allocator@K@std@@@std@@@std@@QAE@PAKPBU_Container_base0@1@@Z ENDP ; std::_Vector_const_iterator<std::_Vector_val<unsigned long,std::allocator<unsigned long> > >::_Vector_const_iterator<std::_Vector_val<unsigned long,std::allocator<unsigned long> > >
_TEXT	ENDS
PUBLIC	?max_size@?$allocator@D@std@@QBEIXZ		; std::allocator<char>::max_size
; Function compile flags: /Ogsp
; File c:\program files (x86)\microsoft visual studio 10.0\vc\include\xmemory
;	COMDAT ?max_size@?$allocator@D@std@@QBEIXZ
_TEXT	SEGMENT
?max_size@?$allocator@D@std@@QBEIXZ PROC		; std::allocator<char>::max_size, COMDAT
; _this$ = ecx

; 218  : 		_SIZT _Count = (_SIZT)(-1) / sizeof (_Ty);
; 219  : 		return (0 < _Count ? _Count : 1);

  00000	83 c8 ff	 or	 eax, -1

; 220  : 		}

  00003	c3		 ret	 0
?max_size@?$allocator@D@std@@QBEIXZ ENDP		; std::allocator<char>::max_size
_TEXT	ENDS
PUBLIC	?_Compat@?$_Vector_const_iterator@V?$_Vector_val@KV?$allocator@K@std@@@std@@@std@@QBEXABV12@@Z ; std::_Vector_const_iterator<std::_Vector_val<unsigned long,std::allocator<unsigned long> > >::_Compat
; Function compile flags: /Ogsp
; File c:\program files (x86)\microsoft visual studio 10.0\vc\include\vector
;	COMDAT ?_Compat@?$_Vector_const_iterator@V?$_Vector_val@KV?$allocator@K@std@@@std@@@std@@QBEXABV12@@Z
_TEXT	SEGMENT
___formal$ = 8						; size = 4
?_Compat@?$_Vector_const_iterator@V?$_Vector_val@KV?$allocator@K@std@@@std@@@std@@QBEXABV12@@Z PROC ; std::_Vector_const_iterator<std::_Vector_val<unsigned long,std::allocator<unsigned long> > >::_Compat, COMDAT
; _this$ = ecx

; 253  : 		}

  00000	c2 04 00	 ret	 4
?_Compat@?$_Vector_const_iterator@V?$_Vector_val@KV?$allocator@K@std@@@std@@@std@@QBEXABV12@@Z ENDP ; std::_Vector_const_iterator<std::_Vector_val<unsigned long,std::allocator<unsigned long> > >::_Compat
_TEXT	ENDS
PUBLIC	??$forward@V?$basic_string@DU?$char_traits@D@std@@V?$allocator@D@2@@std@@@std@@YA$$QAV?$basic_string@DU?$char_traits@D@std@@V?$allocator@D@2@@0@AAV10@@Z ; std::forward<std::basic_string<char,std::char_traits<char>,std::allocator<char> > >
; Function compile flags: /Ogsp
; File c:\program files (x86)\microsoft visual studio 10.0\vc\include\utility
;	COMDAT ??$forward@V?$basic_string@DU?$char_traits@D@std@@V?$allocator@D@2@@std@@@std@@YA$$QAV?$basic_string@DU?$char_traits@D@std@@V?$allocator@D@2@@0@AAV10@@Z
_TEXT	SEGMENT
__Arg$ = 8						; size = 4
??$forward@V?$basic_string@DU?$char_traits@D@std@@V?$allocator@D@2@@std@@@std@@YA$$QAV?$basic_string@DU?$char_traits@D@std@@V?$allocator@D@2@@0@AAV10@@Z PROC ; std::forward<std::basic_string<char,std::char_traits<char>,std::allocator<char> > >, COMDAT

; 78   : 	{	// forward _Arg, given explicitly specified type parameter

  00000	55		 push	 ebp
  00001	8b ec		 mov	 ebp, esp

; 79   : 	return ((_Ty&&)_Arg);

  00003	8b 45 08	 mov	 eax, DWORD PTR __Arg$[ebp]

; 80   : 	}

  00006	5d		 pop	 ebp
  00007	c3		 ret	 0
??$forward@V?$basic_string@DU?$char_traits@D@std@@V?$allocator@D@2@@std@@@std@@YA$$QAV?$basic_string@DU?$char_traits@D@std@@V?$allocator@D@2@@0@AAV10@@Z ENDP ; std::forward<std::basic_string<char,std::char_traits<char>,std::allocator<char> > >
_TEXT	ENDS
PUBLIC	??$addressof@$$CBK@std@@YAPBKABK@Z		; std::addressof<unsigned long const >
; Function compile flags: /Ogsp
; File c:\program files (x86)\microsoft visual studio 10.0\vc\include\xmemory
;	COMDAT ??$addressof@$$CBK@std@@YAPBKABK@Z
_TEXT	SEGMENT
__Val$ = 8						; size = 4
??$addressof@$$CBK@std@@YAPBKABK@Z PROC			; std::addressof<unsigned long const >, COMDAT

; 110  : 	{	// return address of _Val

  00000	55		 push	 ebp
  00001	8b ec		 mov	 ebp, esp

; 111  : 	return ((_Ty *) &(char&)_Val);

  00003	8b 45 08	 mov	 eax, DWORD PTR __Val$[ebp]

; 112  : 	}

  00006	5d		 pop	 ebp
  00007	c3		 ret	 0
??$addressof@$$CBK@std@@YAPBKABK@Z ENDP			; std::addressof<unsigned long const >
_TEXT	ENDS
PUBLIC	??$_Allocate@K@std@@YAPAKIPAK@Z			; std::_Allocate<unsigned long>
; Function compile flags: /Ogsp
;	COMDAT ??$_Allocate@K@std@@YAPAKIPAK@Z
_TEXT	SEGMENT
$T538211 = -12						; size = 12
$T538215 = 8						; size = 4
__Count$ = 8						; size = 4
___formal$ = 12						; size = 4
??$_Allocate@K@std@@YAPAKIPAK@Z PROC			; std::_Allocate<unsigned long>, COMDAT

; 30   : 	{	// allocate storage for _Count elements of type _Ty

  00000	55		 push	 ebp
  00001	8b ec		 mov	 ebp, esp

; 31   : 	void *_Ptr = 0;
; 32   : 
; 33   : 	if (_Count <= 0)

  00003	8b 4d 08	 mov	 ecx, DWORD PTR __Count$[ebp]
  00006	83 ec 0c	 sub	 esp, 12			; 0000000cH
  00009	33 c0		 xor	 eax, eax
  0000b	85 c9		 test	 ecx, ecx

; 34   : 		_Count = 0;
; 35   : 	else if (((_SIZT)(-1) / sizeof (_Ty) < _Count)

  0000d	74 3e		 je	 SHORT $LN5@Allocate@4

; 36   : 		|| (_Ptr = ::operator new(_Count * sizeof (_Ty))) == 0)

  0000f	81 f9 ff ff ff
	3f		 cmp	 ecx, 1073741823		; 3fffffffH
  00015	77 10		 ja	 SHORT $LN1@Allocate@4
  00017	8b c1		 mov	 eax, ecx
  00019	c1 e0 02	 shl	 eax, 2
  0001c	50		 push	 eax
  0001d	e8 00 00 00 00	 call	 ??2@YAPAXI@Z		; operator new
  00022	59		 pop	 ecx
  00023	85 c0		 test	 eax, eax

; 38   : 
; 39   : 	return ((_Ty _FARQ *)_Ptr);

  00025	75 26		 jne	 SHORT $LN5@Allocate@4
$LN1@Allocate@4:

; 37   : 		_THROW_NCEE(bad_alloc, 0);

  00027	83 65 08 00	 and	 DWORD PTR $T538215[ebp], 0
  0002b	8d 45 08	 lea	 eax, DWORD PTR $T538215[ebp]
  0002e	50		 push	 eax
  0002f	8d 4d f4	 lea	 ecx, DWORD PTR $T538211[ebp]
  00032	ff 15 00 00 00
	00		 call	 DWORD PTR __imp_??0exception@std@@QAE@ABQBD@Z
  00038	68 00 00 00 00	 push	 OFFSET __TI2?AVbad_alloc@std@@
  0003d	8d 45 f4	 lea	 eax, DWORD PTR $T538211[ebp]
  00040	50		 push	 eax
  00041	c7 45 f4 00 00
	00 00		 mov	 DWORD PTR $T538211[ebp], OFFSET ??_7bad_alloc@std@@6B@
  00048	e8 00 00 00 00	 call	 __CxxThrowException@8
$LN10@Allocate@4:
$LN5@Allocate@4:

; 40   : 	}

  0004d	c9		 leave
  0004e	c3		 ret	 0
$LN9@Allocate@4:
??$_Allocate@K@std@@YAPAKIPAK@Z ENDP			; std::_Allocate<unsigned long>
_TEXT	ENDS
PUBLIC	??$_Allocate@D@std@@YAPADIPAD@Z			; std::_Allocate<char>
; Function compile flags: /Ogsp
;	COMDAT ??$_Allocate@D@std@@YAPADIPAD@Z
_TEXT	SEGMENT
$T538220 = -12						; size = 12
$T538224 = 8						; size = 4
__Count$ = 8						; size = 4
___formal$ = 12						; size = 4
??$_Allocate@D@std@@YAPADIPAD@Z PROC			; std::_Allocate<char>, COMDAT

; 30   : 	{	// allocate storage for _Count elements of type _Ty

  00000	55		 push	 ebp
  00001	8b ec		 mov	 ebp, esp

; 31   : 	void *_Ptr = 0;

  00003	33 c0		 xor	 eax, eax
  00005	83 ec 0c	 sub	 esp, 12			; 0000000cH

; 32   : 
; 33   : 	if (_Count <= 0)

  00008	39 45 08	 cmp	 DWORD PTR __Count$[ebp], eax

; 34   : 		_Count = 0;
; 35   : 	else if (((_SIZT)(-1) / sizeof (_Ty) < _Count)

  0000b	76 39		 jbe	 SHORT $LN5@Allocate@5

; 36   : 		|| (_Ptr = ::operator new(_Count * sizeof (_Ty))) == 0)

  0000d	83 7d 08 ff	 cmp	 DWORD PTR __Count$[ebp], -1
  00011	77 0d		 ja	 SHORT $LN1@Allocate@5
  00013	ff 75 08	 push	 DWORD PTR __Count$[ebp]
  00016	e8 00 00 00 00	 call	 ??2@YAPAXI@Z		; operator new
  0001b	59		 pop	 ecx
  0001c	85 c0		 test	 eax, eax

; 38   : 
; 39   : 	return ((_Ty _FARQ *)_Ptr);

  0001e	75 26		 jne	 SHORT $LN5@Allocate@5
$LN1@Allocate@5:

; 37   : 		_THROW_NCEE(bad_alloc, 0);

  00020	83 65 08 00	 and	 DWORD PTR $T538224[ebp], 0
  00024	8d 45 08	 lea	 eax, DWORD PTR $T538224[ebp]
  00027	50		 push	 eax
  00028	8d 4d f4	 lea	 ecx, DWORD PTR $T538220[ebp]
  0002b	ff 15 00 00 00
	00		 call	 DWORD PTR __imp_??0exception@std@@QAE@ABQBD@Z
  00031	68 00 00 00 00	 push	 OFFSET __TI2?AVbad_alloc@std@@
  00036	8d 45 f4	 lea	 eax, DWORD PTR $T538220[ebp]
  00039	50		 push	 eax
  0003a	c7 45 f4 00 00
	00 00		 mov	 DWORD PTR $T538220[ebp], OFFSET ??_7bad_alloc@std@@6B@
  00041	e8 00 00 00 00	 call	 __CxxThrowException@8
$LN10@Allocate@5:
$LN5@Allocate@5:

; 40   : 	}

  00046	c9		 leave
  00047	c3		 ret	 0
$LN9@Allocate@5:
??$_Allocate@D@std@@YAPADIPAD@Z ENDP			; std::_Allocate<char>
_TEXT	ENDS
EXTRN	__imp_??0exception@std@@QAE@ABV01@@Z:PROC
; Function compile flags: /Ogsp
;	COMDAT ??0bad_alloc@std@@QAE@ABV01@@Z
_TEXT	SEGMENT
___that$ = 8						; size = 4
??0bad_alloc@std@@QAE@ABV01@@Z PROC			; std::bad_alloc::bad_alloc, COMDAT
; _this$ = ecx
  00000	55		 push	 ebp
  00001	8b ec		 mov	 ebp, esp
  00003	56		 push	 esi
  00004	ff 75 08	 push	 DWORD PTR ___that$[ebp]
  00007	8b f1		 mov	 esi, ecx
  00009	ff 15 00 00 00
	00		 call	 DWORD PTR __imp_??0exception@std@@QAE@ABV01@@Z
  0000f	c7 06 00 00 00
	00		 mov	 DWORD PTR [esi], OFFSET ??_7bad_alloc@std@@6B@
  00015	8b c6		 mov	 eax, esi
  00017	5e		 pop	 esi
  00018	5d		 pop	 ebp
  00019	c2 04 00	 ret	 4
??0bad_alloc@std@@QAE@ABV01@@Z ENDP			; std::bad_alloc::bad_alloc
_TEXT	ENDS
PUBLIC	??$move@AAV?$basic_string@DU?$char_traits@D@std@@V?$allocator@D@2@@std@@@std@@YA$$QAV?$basic_string@DU?$char_traits@D@std@@V?$allocator@D@2@@0@AAV10@@Z ; std::move<std::basic_string<char,std::char_traits<char>,std::allocator<char> > &>
; Function compile flags: /Ogsp
; File c:\program files (x86)\microsoft visual studio 10.0\vc\include\utility
;	COMDAT ??$move@AAV?$basic_string@DU?$char_traits@D@std@@V?$allocator@D@2@@std@@@std@@YA$$QAV?$basic_string@DU?$char_traits@D@std@@V?$allocator@D@2@@0@AAV10@@Z
_TEXT	SEGMENT
__Arg$ = 8						; size = 4
??$move@AAV?$basic_string@DU?$char_traits@D@std@@V?$allocator@D@2@@std@@@std@@YA$$QAV?$basic_string@DU?$char_traits@D@std@@V?$allocator@D@2@@0@AAV10@@Z PROC ; std::move<std::basic_string<char,std::char_traits<char>,std::allocator<char> > &>, COMDAT

; 86   : 	{	// forward _Arg as movable

  00000	55		 push	 ebp
  00001	8b ec		 mov	 ebp, esp

; 87   : 	return ((typename tr1::_Remove_reference<_Ty>::_Type&&)_Arg);

  00003	8b 45 08	 mov	 eax, DWORD PTR __Arg$[ebp]

; 88   : 	}

  00006	5d		 pop	 ebp
  00007	c3		 ret	 0
??$move@AAV?$basic_string@DU?$char_traits@D@std@@V?$allocator@D@2@@std@@@std@@YA$$QAV?$basic_string@DU?$char_traits@D@std@@V?$allocator@D@2@@0@AAV10@@Z ENDP ; std::move<std::basic_string<char,std::char_traits<char>,std::allocator<char> > &>
_TEXT	ENDS
PUBLIC	??$forward@AAK@std@@YAAAKAAK@Z			; std::forward<unsigned long &>
; Function compile flags: /Ogsp
;	COMDAT ??$forward@AAK@std@@YAAAKAAK@Z
_TEXT	SEGMENT
__Arg$ = 8						; size = 4
??$forward@AAK@std@@YAAAKAAK@Z PROC			; std::forward<unsigned long &>, COMDAT

; 78   : 	{	// forward _Arg, given explicitly specified type parameter

  00000	55		 push	 ebp
  00001	8b ec		 mov	 ebp, esp

; 79   : 	return ((_Ty&&)_Arg);

  00003	8b 45 08	 mov	 eax, DWORD PTR __Arg$[ebp]

; 80   : 	}

  00006	5d		 pop	 ebp
  00007	c3		 ret	 0
??$forward@AAK@std@@YAAAKAAK@Z ENDP			; std::forward<unsigned long &>
_TEXT	ENDS
PUBLIC	??$construct@AAK@?$allocator@K@std@@QAEXPAKAAK@Z ; std::allocator<unsigned long>::construct<unsigned long &>
; Function compile flags: /Ogsp
; File c:\program files (x86)\microsoft visual studio 10.0\vc\include\xmemory
;	COMDAT ??$construct@AAK@?$allocator@K@std@@QAEXPAKAAK@Z
_TEXT	SEGMENT
__Ptr$ = 8						; size = 4
__Val$ = 12						; size = 4
??$construct@AAK@?$allocator@K@std@@QAEXPAKAAK@Z PROC	; std::allocator<unsigned long>::construct<unsigned long &>, COMDAT
; _this$ = ecx

; 206  : 		void construct(pointer _Ptr, _Other&& _Val)

  00000	55		 push	 ebp
  00001	8b ec		 mov	 ebp, esp

; 207  : 		{	// construct object at _Ptr with value _Val
; 208  : 		::new ((void _FARQ *)_Ptr) _Ty(_STD forward<_Other>(_Val));

  00003	8b 45 08	 mov	 eax, DWORD PTR __Ptr$[ebp]
  00006	85 c0		 test	 eax, eax
  00008	74 07		 je	 SHORT $LN3@construct@2
  0000a	8b 4d 0c	 mov	 ecx, DWORD PTR __Val$[ebp]
  0000d	8b 09		 mov	 ecx, DWORD PTR [ecx]
  0000f	89 08		 mov	 DWORD PTR [eax], ecx
$LN3@construct@2:

; 209  : 		}

  00011	5d		 pop	 ebp
  00012	c2 08 00	 ret	 8
??$construct@AAK@?$allocator@K@std@@QAEXPAKAAK@Z ENDP	; std::allocator<unsigned long>::construct<unsigned long &>
_TEXT	ENDS
PUBLIC	??$forward@ABK@std@@YAABKABK@Z			; std::forward<unsigned long const &>
; Function compile flags: /Ogsp
; File c:\program files (x86)\microsoft visual studio 10.0\vc\include\utility
;	COMDAT ??$forward@ABK@std@@YAABKABK@Z
_TEXT	SEGMENT
__Arg$ = 8						; size = 4
??$forward@ABK@std@@YAABKABK@Z PROC			; std::forward<unsigned long const &>, COMDAT

; 78   : 	{	// forward _Arg, given explicitly specified type parameter

  00000	55		 push	 ebp
  00001	8b ec		 mov	 ebp, esp

; 79   : 	return ((_Ty&&)_Arg);

  00003	8b 45 08	 mov	 eax, DWORD PTR __Arg$[ebp]

; 80   : 	}

  00006	5d		 pop	 ebp
  00007	c3		 ret	 0
??$forward@ABK@std@@YAABKABK@Z ENDP			; std::forward<unsigned long const &>
_TEXT	ENDS
PUBLIC	??$?8DD@std@@YA_NABV?$allocator@D@0@0@Z		; std::operator==<char,char>
; Function compile flags: /Ogsp
; File c:\program files (x86)\microsoft visual studio 10.0\vc\include\xmemory
;	COMDAT ??$?8DD@std@@YA_NABV?$allocator@D@0@0@Z
_TEXT	SEGMENT
___formal$ = 8						; size = 4
___formal$ = 12						; size = 4
??$?8DD@std@@YA_NABV?$allocator@D@0@0@Z PROC		; std::operator==<char,char>, COMDAT

; 263  : 	return (true);

  00000	b0 01		 mov	 al, 1

; 264  : 	}

  00002	c3		 ret	 0
??$?8DD@std@@YA_NABV?$allocator@D@0@0@Z ENDP		; std::operator==<char,char>
_TEXT	ENDS
PUBLIC	??$_Ptr_cat@KK@std@@YA?AU_Scalar_ptr_iterator_tag@0@PAK0@Z ; std::_Ptr_cat<unsigned long,unsigned long>
; Function compile flags: /Ogsp
; File c:\program files (x86)\microsoft visual studio 10.0\vc\include\xutility
;	COMDAT ??$_Ptr_cat@KK@std@@YA?AU_Scalar_ptr_iterator_tag@0@PAK0@Z
_TEXT	SEGMENT
__Cat$ = -1						; size = 1
___formal$ = 8						; size = 4
___formal$ = 12						; size = 4
??$_Ptr_cat@KK@std@@YA?AU_Scalar_ptr_iterator_tag@0@PAK0@Z PROC ; std::_Ptr_cat<unsigned long,unsigned long>, COMDAT

; 516  : 	{	// return pointer category from pointers

  00000	55		 push	 ebp
  00001	8b ec		 mov	 ebp, esp
  00003	51		 push	 ecx

; 517  : 	typename _Ptr_cat_helper<_Elem1, _Elem2>::_Type _Cat;
; 518  : 	return (_Cat);

  00004	8a 45 ff	 mov	 al, BYTE PTR __Cat$[ebp]

; 519  : 	}

  00007	c9		 leave
  00008	c3		 ret	 0
??$_Ptr_cat@KK@std@@YA?AU_Scalar_ptr_iterator_tag@0@PAK0@Z ENDP ; std::_Ptr_cat<unsigned long,unsigned long>
_TEXT	ENDS
PUBLIC	??$_Destroy_range@V?$allocator@K@std@@@std@@YAXPAK0AAV?$allocator@K@0@U_Scalar_ptr_iterator_tag@0@@Z ; std::_Destroy_range<std::allocator<unsigned long> >
; Function compile flags: /Ogsp
; File c:\program files (x86)\microsoft visual studio 10.0\vc\include\xmemory
;	COMDAT ??$_Destroy_range@V?$allocator@K@std@@@std@@YAXPAK0AAV?$allocator@K@0@U_Scalar_ptr_iterator_tag@0@@Z
_TEXT	SEGMENT
__First$ = 8						; size = 4
__Last$ = 12						; size = 4
__Al$ = 16						; size = 4
___formal$ = 20						; size = 1
??$_Destroy_range@V?$allocator@K@std@@@std@@YAXPAK0AAV?$allocator@K@0@U_Scalar_ptr_iterator_tag@0@@Z PROC ; std::_Destroy_range<std::allocator<unsigned long> >, COMDAT

; 105  : 	}

  00000	c3		 ret	 0
??$_Destroy_range@V?$allocator@K@std@@@std@@YAXPAK0AAV?$allocator@K@0@U_Scalar_ptr_iterator_tag@0@@Z ENDP ; std::_Destroy_range<std::allocator<unsigned long> >
_TEXT	ENDS
PUBLIC	??$_Move@AAD@std@@YA$$QADAAD@Z			; std::_Move<char &>
; Function compile flags: /Ogsp
; File c:\program files (x86)\microsoft visual studio 10.0\vc\include\utility
;	COMDAT ??$_Move@AAD@std@@YA$$QADAAD@Z
_TEXT	SEGMENT
__Arg$ = 8						; size = 4
??$_Move@AAD@std@@YA$$QADAAD@Z PROC			; std::_Move<char &>, COMDAT

; 94   : 	{	// forward _Arg as movable

  00000	55		 push	 ebp
  00001	8b ec		 mov	 ebp, esp

; 95   : 	return ((typename tr1::_Remove_reference<_Ty>::_Type&&)_Arg);

  00003	8b 45 08	 mov	 eax, DWORD PTR __Arg$[ebp]

; 96   : 	}

  00006	5d		 pop	 ebp
  00007	c3		 ret	 0
??$_Move@AAD@std@@YA$$QADAAD@Z ENDP			; std::_Move<char &>
_TEXT	ENDS
PUBLIC	??$_Construct@KABK@std@@YAXPAKABK@Z		; std::_Construct<unsigned long,unsigned long const &>
; Function compile flags: /Ogsp
; File c:\program files (x86)\microsoft visual studio 10.0\vc\include\xmemory
;	COMDAT ??$_Construct@KABK@std@@YAXPAKABK@Z
_TEXT	SEGMENT
__Ptr$ = 8						; size = 4
__Val$ = 12						; size = 4
??$_Construct@KABK@std@@YAXPAKABK@Z PROC		; std::_Construct<unsigned long,unsigned long const &>, COMDAT

; 46   : 	{	// construct object at _Ptr with value _Val

  00000	55		 push	 ebp
  00001	8b ec		 mov	 ebp, esp

; 47   : 	void _FARQ *_Vptr = _Ptr;
; 48   : 	::new (_Vptr) _Ty1(_STD forward<_Ty2>(_Val));

  00003	8b 45 08	 mov	 eax, DWORD PTR __Ptr$[ebp]
  00006	85 c0		 test	 eax, eax
  00008	74 07		 je	 SHORT $LN3@Construct@2
  0000a	8b 4d 0c	 mov	 ecx, DWORD PTR __Val$[ebp]
  0000d	8b 09		 mov	 ecx, DWORD PTR [ecx]
  0000f	89 08		 mov	 DWORD PTR [eax], ecx
$LN3@Construct@2:

; 49   : 	}

  00011	5d		 pop	 ebp
  00012	c3		 ret	 0
??$_Construct@KABK@std@@YAXPAKABK@Z ENDP		; std::_Construct<unsigned long,unsigned long const &>
_TEXT	ENDS
PUBLIC	??$move@AA_N@std@@YA$$QA_NAA_N@Z		; std::move<bool &>
; Function compile flags: /Ogsp
; File c:\program files (x86)\microsoft visual studio 10.0\vc\include\utility
;	COMDAT ??$move@AA_N@std@@YA$$QA_NAA_N@Z
_TEXT	SEGMENT
__Arg$ = 8						; size = 4
??$move@AA_N@std@@YA$$QA_NAA_N@Z PROC			; std::move<bool &>, COMDAT

; 86   : 	{	// forward _Arg as movable

  00000	55		 push	 ebp
  00001	8b ec		 mov	 ebp, esp

; 87   : 	return ((typename tr1::_Remove_reference<_Ty>::_Type&&)_Arg);

  00003	8b 45 08	 mov	 eax, DWORD PTR __Arg$[ebp]

; 88   : 	}

  00006	5d		 pop	 ebp
  00007	c3		 ret	 0
??$move@AA_N@std@@YA$$QA_NAA_N@Z ENDP			; std::move<bool &>
_TEXT	ENDS
PUBLIC	??$_Val_type@PAK@std@@YAPAKPAK@Z		; std::_Val_type<unsigned long *>
; Function compile flags: /Ogsp
; File c:\program files (x86)\microsoft visual studio 10.0\vc\include\xutility
;	COMDAT ??$_Val_type@PAK@std@@YAPAKPAK@Z
_TEXT	SEGMENT
___formal$ = 8						; size = 4
??$_Val_type@PAK@std@@YAPAKPAK@Z PROC			; std::_Val_type<unsigned long *>, COMDAT

; 790  : 	return (0);

  00000	33 c0		 xor	 eax, eax

; 791  : 	}

  00002	c3		 ret	 0
??$_Val_type@PAK@std@@YAPAKPAK@Z ENDP			; std::_Val_type<unsigned long *>
_TEXT	ENDS
PUBLIC	??$_Uninit_move@KKK@std@@YAPAKPAK00AAV?$allocator@K@0@0U_Scalar_ptr_iterator_tag@0@@Z ; std::_Uninit_move<unsigned long,unsigned long,unsigned long>
; Function compile flags: /Ogsp
; File c:\program files (x86)\microsoft visual studio 10.0\vc\include\memory
;	COMDAT ??$_Uninit_move@KKK@std@@YAPAKPAK00AAV?$allocator@K@0@0U_Scalar_ptr_iterator_tag@0@@Z
_TEXT	SEGMENT
__First$ = 8						; size = 4
__Last$ = 12						; size = 4
__Dest$ = 16						; size = 4
___formal$ = 20						; size = 4
___formal$ = 24						; size = 4
___formal$ = 28						; size = 1
??$_Uninit_move@KKK@std@@YAPAKPAK00AAV?$allocator@K@0@0U_Scalar_ptr_iterator_tag@0@@Z PROC ; std::_Uninit_move<unsigned long,unsigned long,unsigned long>, COMDAT

; 456  : 	{	// move [_First, _Last) to raw _Dest, scalar type

  00000	55		 push	 ebp
  00001	8b ec		 mov	 ebp, esp
  00003	56		 push	 esi

; 457  : 	_DEBUG_RANGE(_First, _Last);
; 458  : 	_DEBUG_POINTER(_Dest);
; 459  : 	size_t _Count = (size_t)(_Last - _First);

  00004	8b 75 0c	 mov	 esi, DWORD PTR __Last$[ebp]
  00007	2b 75 08	 sub	 esi, DWORD PTR __First$[ebp]
  0000a	c1 fe 02	 sar	 esi, 2

; 460  : 	return ((_Ty2 *)_CSTD memmove(&*_Dest, &*_First,
; 461  : 		_Count * sizeof (*_First)) + _Count);	// NB: non-overlapping move

  0000d	c1 e6 02	 shl	 esi, 2
  00010	56		 push	 esi
  00011	ff 75 08	 push	 DWORD PTR __First$[ebp]
  00014	ff 75 10	 push	 DWORD PTR __Dest$[ebp]
  00017	ff 15 00 00 00
	00		 call	 DWORD PTR __imp__memmove
  0001d	83 c4 0c	 add	 esp, 12			; 0000000cH
  00020	03 c6		 add	 eax, esi
  00022	5e		 pop	 esi

; 462  : 	}

  00023	5d		 pop	 ebp
  00024	c3		 ret	 0
??$_Uninit_move@KKK@std@@YAPAKPAK00AAV?$allocator@K@0@0U_Scalar_ptr_iterator_tag@0@@Z ENDP ; std::_Uninit_move<unsigned long,unsigned long,unsigned long>
_TEXT	ENDS
PUBLIC	??$forward@_N@std@@YA$$QA_NAA_N@Z		; std::forward<bool>
; Function compile flags: /Ogsp
; File c:\program files (x86)\microsoft visual studio 10.0\vc\include\utility
;	COMDAT ??$forward@_N@std@@YA$$QA_NAA_N@Z
_TEXT	SEGMENT
__Arg$ = 8						; size = 4
??$forward@_N@std@@YA$$QA_NAA_N@Z PROC			; std::forward<bool>, COMDAT

; 78   : 	{	// forward _Arg, given explicitly specified type parameter

  00000	55		 push	 ebp
  00001	8b ec		 mov	 ebp, esp

; 79   : 	return ((_Ty&&)_Arg);

  00003	8b 45 08	 mov	 eax, DWORD PTR __Arg$[ebp]

; 80   : 	}

  00006	5d		 pop	 ebp
  00007	c3		 ret	 0
??$forward@_N@std@@YA$$QA_NAA_N@Z ENDP			; std::forward<bool>
_TEXT	ENDS
PUBLIC	??1?$_Vector_val@V?$basic_string@DU?$char_traits@D@std@@V?$allocator@D@2@@std@@V?$allocator@V?$basic_string@DU?$char_traits@D@std@@V?$allocator@D@2@@std@@@2@@std@@QAE@XZ ; std::_Vector_val<std::basic_string<char,std::char_traits<char>,std::allocator<char> >,std::allocator<std::basic_string<char,std::char_traits<char>,std::allocator<char> > > >::~_Vector_val<std::basic_string<char,std::char_traits<char>,std::allocator<char> >,std::allocator<std::basic_string<char,std::char_traits<char>,std::allocator<char> > > >
; Function compile flags: /Ogsp
; File c:\program files (x86)\microsoft visual studio 10.0\vc\include\vector
;	COMDAT ??1?$_Vector_val@V?$basic_string@DU?$char_traits@D@std@@V?$allocator@D@2@@std@@V?$allocator@V?$basic_string@DU?$char_traits@D@std@@V?$allocator@D@2@@std@@@2@@std@@QAE@XZ
_TEXT	SEGMENT
??1?$_Vector_val@V?$basic_string@DU?$char_traits@D@std@@V?$allocator@D@2@@std@@V?$allocator@V?$basic_string@DU?$char_traits@D@std@@V?$allocator@D@2@@std@@@2@@std@@QAE@XZ PROC ; std::_Vector_val<std::basic_string<char,std::char_traits<char>,std::allocator<char> >,std::allocator<std::basic_string<char,std::char_traits<char>,std::allocator<char> > > >::~_Vector_val<std::basic_string<char,std::char_traits<char>,std::allocator<char> >,std::allocator<std::basic_string<char,std::char_traits<char>,std::allocator<char> > > >, COMDAT
; _this$ = ecx

; 434  : 		}

  00000	c3		 ret	 0
??1?$_Vector_val@V?$basic_string@DU?$char_traits@D@std@@V?$allocator@D@2@@std@@V?$allocator@V?$basic_string@DU?$char_traits@D@std@@V?$allocator@D@2@@std@@@2@@std@@QAE@XZ ENDP ; std::_Vector_val<std::basic_string<char,std::char_traits<char>,std::allocator<char> >,std::allocator<std::basic_string<char,std::char_traits<char>,std::allocator<char> > > >::~_Vector_val<std::basic_string<char,std::char_traits<char>,std::allocator<char> >,std::allocator<std::basic_string<char,std::char_traits<char>,std::allocator<char> > > >
_TEXT	ENDS
PUBLIC	?deallocate@?$allocator@V?$basic_string@DU?$char_traits@D@std@@V?$allocator@D@2@@std@@@std@@QAEXPAV?$basic_string@DU?$char_traits@D@std@@V?$allocator@D@2@@2@I@Z ; std::allocator<std::basic_string<char,std::char_traits<char>,std::allocator<char> > >::deallocate
; Function compile flags: /Ogsp
; File c:\program files (x86)\microsoft visual studio 10.0\vc\include\xmemory
;	COMDAT ?deallocate@?$allocator@V?$basic_string@DU?$char_traits@D@std@@V?$allocator@D@2@@std@@@std@@QAEXPAV?$basic_string@DU?$char_traits@D@std@@V?$allocator@D@2@@2@I@Z
_TEXT	SEGMENT
__Ptr$ = 8						; size = 4
___formal$ = 12						; size = 4
?deallocate@?$allocator@V?$basic_string@DU?$char_traits@D@std@@V?$allocator@D@2@@std@@@std@@QAEXPAV?$basic_string@DU?$char_traits@D@std@@V?$allocator@D@2@@2@I@Z PROC ; std::allocator<std::basic_string<char,std::char_traits<char>,std::allocator<char> > >::deallocate, COMDAT
; _this$ = ecx

; 181  : 		{	// deallocate object at _Ptr, ignore size

  00000	55		 push	 ebp
  00001	8b ec		 mov	 ebp, esp

; 182  : 		::operator delete(_Ptr);

  00003	ff 75 08	 push	 DWORD PTR __Ptr$[ebp]
  00006	e8 00 00 00 00	 call	 ??3@YAXPAX@Z		; operator delete
  0000b	59		 pop	 ecx

; 183  : 		}

  0000c	5d		 pop	 ebp
  0000d	c2 08 00	 ret	 8
?deallocate@?$allocator@V?$basic_string@DU?$char_traits@D@std@@V?$allocator@D@2@@std@@@std@@QAEXPAV?$basic_string@DU?$char_traits@D@std@@V?$allocator@D@2@@2@I@Z ENDP ; std::allocator<std::basic_string<char,std::char_traits<char>,std::allocator<char> > >::deallocate
_TEXT	ENDS
PUBLIC	??$forward@H@std@@YA$$QAHAAH@Z			; std::forward<int>
; Function compile flags: /Ogsp
; File c:\program files (x86)\microsoft visual studio 10.0\vc\include\utility
;	COMDAT ??$forward@H@std@@YA$$QAHAAH@Z
_TEXT	SEGMENT
__Arg$ = 8						; size = 4
??$forward@H@std@@YA$$QAHAAH@Z PROC			; std::forward<int>, COMDAT

; 78   : 	{	// forward _Arg, given explicitly specified type parameter

  00000	55		 push	 ebp
  00001	8b ec		 mov	 ebp, esp

; 79   : 	return ((_Ty&&)_Arg);

  00003	8b 45 08	 mov	 eax, DWORD PTR __Arg$[ebp]

; 80   : 	}

  00006	5d		 pop	 ebp
  00007	c3		 ret	 0
??$forward@H@std@@YA$$QAHAAH@Z ENDP			; std::forward<int>
_TEXT	ENDS
PUBLIC	??$_Ptr_cat@V?$basic_string@DU?$char_traits@D@std@@V?$allocator@D@2@@std@@V12@@std@@YA?AU_Nonscalar_ptr_iterator_tag@0@PAV?$basic_string@DU?$char_traits@D@std@@V?$allocator@D@2@@0@0@Z ; std::_Ptr_cat<std::basic_string<char,std::char_traits<char>,std::allocator<char> >,std::basic_string<char,std::char_traits<char>,std::allocator<char> > >
; Function compile flags: /Ogsp
; File c:\program files (x86)\microsoft visual studio 10.0\vc\include\xutility
;	COMDAT ??$_Ptr_cat@V?$basic_string@DU?$char_traits@D@std@@V?$allocator@D@2@@std@@V12@@std@@YA?AU_Nonscalar_ptr_iterator_tag@0@PAV?$basic_string@DU?$char_traits@D@std@@V?$allocator@D@2@@0@0@Z
_TEXT	SEGMENT
__Cat$ = -1						; size = 1
___formal$ = 8						; size = 4
___formal$ = 12						; size = 4
??$_Ptr_cat@V?$basic_string@DU?$char_traits@D@std@@V?$allocator@D@2@@std@@V12@@std@@YA?AU_Nonscalar_ptr_iterator_tag@0@PAV?$basic_string@DU?$char_traits@D@std@@V?$allocator@D@2@@0@0@Z PROC ; std::_Ptr_cat<std::basic_string<char,std::char_traits<char>,std::allocator<char> >,std::basic_string<char,std::char_traits<char>,std::allocator<char> > >, COMDAT

; 516  : 	{	// return pointer category from pointers

  00000	55		 push	 ebp
  00001	8b ec		 mov	 ebp, esp
  00003	51		 push	 ecx

; 517  : 	typename _Ptr_cat_helper<_Elem1, _Elem2>::_Type _Cat;
; 518  : 	return (_Cat);

  00004	8a 45 ff	 mov	 al, BYTE PTR __Cat$[ebp]

; 519  : 	}

  00007	c9		 leave
  00008	c3		 ret	 0
??$_Ptr_cat@V?$basic_string@DU?$char_traits@D@std@@V?$allocator@D@2@@std@@V12@@std@@YA?AU_Nonscalar_ptr_iterator_tag@0@PAV?$basic_string@DU?$char_traits@D@std@@V?$allocator@D@2@@0@0@Z ENDP ; std::_Ptr_cat<std::basic_string<char,std::char_traits<char>,std::allocator<char> >,std::basic_string<char,std::char_traits<char>,std::allocator<char> > >
_TEXT	ENDS
PUBLIC	?IsDefense@ioDefenseController@@QAE_NXZ		; ioDefenseController::IsDefense
; Function compile flags: /Ogsp
; File d:\lost saga for developer\youtube\tutorial\source\src\lsclient\iodefensecontroller.cpp
;	COMDAT ?IsDefense@ioDefenseController@@QAE_NXZ
_TEXT	SEGMENT
?IsDefense@ioDefenseController@@QAE_NXZ PROC		; ioDefenseController::IsDefense, COMDAT
; _this$ = ecx

; 289  : 	if( m_CurDefense.m_Defense.empty() )

  00000	8b 41 14	 mov	 eax, DWORD PTR [ecx+20]
  00003	3b 41 18	 cmp	 eax, DWORD PTR [ecx+24]
  00006	0f 95 c0	 setne	 al

; 290  : 		return false;
; 291  : 	return true;
; 292  : }

  00009	c3		 ret	 0
?IsDefense@ioDefenseController@@QAE_NXZ ENDP		; ioDefenseController::IsDefense
_TEXT	ENDS
PUBLIC	??D?$_Vector_iterator@V?$_Vector_val@KV?$allocator@K@std@@@std@@@std@@QBEAAKXZ ; std::_Vector_iterator<std::_Vector_val<unsigned long,std::allocator<unsigned long> > >::operator*
; Function compile flags: /Ogsp
; File c:\program files (x86)\microsoft visual studio 10.0\vc\include\vector
;	COMDAT ??D?$_Vector_iterator@V?$_Vector_val@KV?$allocator@K@std@@@std@@@std@@QBEAAKXZ
_TEXT	SEGMENT
??D?$_Vector_iterator@V?$_Vector_val@KV?$allocator@K@std@@@std@@@std@@QBEAAKXZ PROC ; std::_Vector_iterator<std::_Vector_val<unsigned long,std::allocator<unsigned long> > >::operator*, COMDAT
; _this$ = ecx

; 322  : 		return ((reference)**(_Mybase *)this);

  00000	8b 01		 mov	 eax, DWORD PTR [ecx]

; 323  : 		}

  00002	c3		 ret	 0
??D?$_Vector_iterator@V?$_Vector_val@KV?$allocator@K@std@@@std@@@std@@QBEAAKXZ ENDP ; std::_Vector_iterator<std::_Vector_val<unsigned long,std::allocator<unsigned long> > >::operator*
_TEXT	ENDS
PUBLIC	?empty@?$_Tree@V?$_Tmap_traits@KUDefenseList@ioDefenseController@@U?$less@K@std@@V?$allocator@U?$pair@$$CBKUDefenseList@ioDefenseController@@@std@@@4@$0A@@std@@@std@@QBE_NXZ ; std::_Tree<std::_Tmap_traits<unsigned long,ioDefenseController::DefenseList,std::less<unsigned long>,std::allocator<std::pair<unsigned long const ,ioDefenseController::DefenseList> >,0> >::empty
; Function compile flags: /Ogsp
; File c:\program files (x86)\microsoft visual studio 10.0\vc\include\xtree
;	COMDAT ?empty@?$_Tree@V?$_Tmap_traits@KUDefenseList@ioDefenseController@@U?$less@K@std@@V?$allocator@U?$pair@$$CBKUDefenseList@ioDefenseController@@@std@@@4@$0A@@std@@@std@@QBE_NXZ
_TEXT	SEGMENT
?empty@?$_Tree@V?$_Tmap_traits@KUDefenseList@ioDefenseController@@U?$less@K@std@@V?$allocator@U?$pair@$$CBKUDefenseList@ioDefenseController@@@std@@@4@$0A@@std@@@std@@QBE_NXZ PROC ; std::_Tree<std::_Tmap_traits<unsigned long,ioDefenseController::DefenseList,std::less<unsigned long>,std::allocator<std::pair<unsigned long const ,ioDefenseController::DefenseList> >,0> >::empty, COMDAT
; _this$ = ecx

; 879  : 		return (size() == 0);

  00000	33 c0		 xor	 eax, eax
  00002	39 41 08	 cmp	 DWORD PTR [ecx+8], eax
  00005	0f 94 c0	 sete	 al

; 880  : 		}

  00008	c3		 ret	 0
?empty@?$_Tree@V?$_Tmap_traits@KUDefenseList@ioDefenseController@@U?$less@K@std@@V?$allocator@U?$pair@$$CBKUDefenseList@ioDefenseController@@@std@@@4@$0A@@std@@@std@@QBE_NXZ ENDP ; std::_Tree<std::_Tmap_traits<unsigned long,ioDefenseController::DefenseList,std::less<unsigned long>,std::allocator<std::pair<unsigned long const ,ioDefenseController::DefenseList> >,0> >::empty
_TEXT	ENDS
PUBLIC	??9?$_Tree_const_iterator@V?$_Tree_val@V?$_Tmap_traits@KUDefenseList@ioDefenseController@@U?$less@K@std@@V?$allocator@U?$pair@$$CBKUDefenseList@ioDefenseController@@@std@@@4@$0A@@std@@@std@@@std@@QBE_NABV01@@Z ; std::_Tree_const_iterator<std::_Tree_val<std::_Tmap_traits<unsigned long,ioDefenseController::DefenseList,std::less<unsigned long>,std::allocator<std::pair<unsigned long const ,ioDefenseController::DefenseList> >,0> > >::operator!=
; Function compile flags: /Ogsp
;	COMDAT ??9?$_Tree_const_iterator@V?$_Tree_val@V?$_Tmap_traits@KUDefenseList@ioDefenseController@@U?$less@K@std@@V?$allocator@U?$pair@$$CBKUDefenseList@ioDefenseController@@@std@@@4@$0A@@std@@@std@@@std@@QBE_NABV01@@Z
_TEXT	SEGMENT
__Right$ = 8						; size = 4
??9?$_Tree_const_iterator@V?$_Tree_val@V?$_Tmap_traits@KUDefenseList@ioDefenseController@@U?$less@K@std@@V?$allocator@U?$pair@$$CBKUDefenseList@ioDefenseController@@@std@@@4@$0A@@std@@@std@@@std@@QBE_NABV01@@Z PROC ; std::_Tree_const_iterator<std::_Tree_val<std::_Tmap_traits<unsigned long,ioDefenseController::DefenseList,std::less<unsigned long>,std::allocator<std::pair<unsigned long const ,ioDefenseController::DefenseList> >,0> > >::operator!=, COMDAT
; _this$ = ecx

; 334  : 		{	// test for iterator inequality

  00000	55		 push	 ebp
  00001	8b ec		 mov	 ebp, esp

; 335  : 		return (!(*this == _Right));

  00003	8b 01		 mov	 eax, DWORD PTR [ecx]
  00005	8b 55 08	 mov	 edx, DWORD PTR __Right$[ebp]
  00008	33 c9		 xor	 ecx, ecx
  0000a	3b 02		 cmp	 eax, DWORD PTR [edx]
  0000c	0f 95 c0	 setne	 al

; 336  : 		}

  0000f	5d		 pop	 ebp
  00010	c2 04 00	 ret	 4
??9?$_Tree_const_iterator@V?$_Tree_val@V?$_Tmap_traits@KUDefenseList@ioDefenseController@@U?$less@K@std@@V?$allocator@U?$pair@$$CBKUDefenseList@ioDefenseController@@@std@@@4@$0A@@std@@@std@@@std@@QBE_NABV01@@Z ENDP ; std::_Tree_const_iterator<std::_Tree_val<std::_Tmap_traits<unsigned long,ioDefenseController::DefenseList,std::less<unsigned long>,std::allocator<std::pair<unsigned long const ,ioDefenseController::DefenseList> >,0> > >::operator!=
_TEXT	ENDS
PUBLIC	??0?$_Vector_iterator@V?$_Vector_val@V?$basic_string@DU?$char_traits@D@std@@V?$allocator@D@2@@std@@V?$allocator@V?$basic_string@DU?$char_traits@D@std@@V?$allocator@D@2@@std@@@2@@std@@@std@@QAE@XZ ; std::_Vector_iterator<std::_Vector_val<std::basic_string<char,std::char_traits<char>,std::allocator<char> >,std::allocator<std::basic_string<char,std::char_traits<char>,std::allocator<char> > > > >::_Vector_iterator<std::_Vector_val<std::basic_string<char,std::char_traits<char>,std::allocator<char> >,std::allocator<std::basic_string<char,std::char_traits<char>,std::allocator<char> > > > >
; Function compile flags: /Ogsp
; File c:\program files (x86)\microsoft visual studio 10.0\vc\include\vector
;	COMDAT ??0?$_Vector_iterator@V?$_Vector_val@V?$basic_string@DU?$char_traits@D@std@@V?$allocator@D@2@@std@@V?$allocator@V?$basic_string@DU?$char_traits@D@std@@V?$allocator@D@2@@std@@@2@@std@@@std@@QAE@XZ
_TEXT	SEGMENT
??0?$_Vector_iterator@V?$_Vector_val@V?$basic_string@DU?$char_traits@D@std@@V?$allocator@D@2@@std@@V?$allocator@V?$basic_string@DU?$char_traits@D@std@@V?$allocator@D@2@@std@@@2@@std@@@std@@QAE@XZ PROC ; std::_Vector_iterator<std::_Vector_val<std::basic_string<char,std::char_traits<char>,std::allocator<char> >,std::allocator<std::basic_string<char,std::char_traits<char>,std::allocator<char> > > > >::_Vector_iterator<std::_Vector_val<std::basic_string<char,std::char_traits<char>,std::allocator<char> >,std::allocator<std::basic_string<char,std::char_traits<char>,std::allocator<char> > > > >, COMDAT
; _this$ = ecx

; 298  : 	_Vector_iterator()

  00000	8b c1		 mov	 eax, ecx
  00002	83 20 00	 and	 DWORD PTR [eax], 0

; 299  : 		{	// construct with null vector pointer
; 300  : 		}

  00005	c3		 ret	 0
??0?$_Vector_iterator@V?$_Vector_val@V?$basic_string@DU?$char_traits@D@std@@V?$allocator@D@2@@std@@V?$allocator@V?$basic_string@DU?$char_traits@D@std@@V?$allocator@D@2@@std@@@2@@std@@@std@@QAE@XZ ENDP ; std::_Vector_iterator<std::_Vector_val<std::basic_string<char,std::char_traits<char>,std::allocator<char> >,std::allocator<std::basic_string<char,std::char_traits<char>,std::allocator<char> > > > >::_Vector_iterator<std::_Vector_val<std::basic_string<char,std::char_traits<char>,std::allocator<char> >,std::allocator<std::basic_string<char,std::char_traits<char>,std::allocator<char> > > > >
_TEXT	ENDS
PUBLIC	??E?$_Vector_iterator@V?$_Vector_val@V?$basic_string@DU?$char_traits@D@std@@V?$allocator@D@2@@std@@V?$allocator@V?$basic_string@DU?$char_traits@D@std@@V?$allocator@D@2@@std@@@2@@std@@@std@@QAEAAV01@XZ ; std::_Vector_iterator<std::_Vector_val<std::basic_string<char,std::char_traits<char>,std::allocator<char> >,std::allocator<std::basic_string<char,std::char_traits<char>,std::allocator<char> > > > >::operator++
; Function compile flags: /Ogsp
;	COMDAT ??E?$_Vector_iterator@V?$_Vector_val@V?$basic_string@DU?$char_traits@D@std@@V?$allocator@D@2@@std@@V?$allocator@V?$basic_string@DU?$char_traits@D@std@@V?$allocator@D@2@@std@@@2@@std@@@std@@QAEAAV01@XZ
_TEXT	SEGMENT
??E?$_Vector_iterator@V?$_Vector_val@V?$basic_string@DU?$char_traits@D@std@@V?$allocator@D@2@@std@@V?$allocator@V?$basic_string@DU?$char_traits@D@std@@V?$allocator@D@2@@std@@@2@@std@@@std@@QAEAAV01@XZ PROC ; std::_Vector_iterator<std::_Vector_val<std::basic_string<char,std::char_traits<char>,std::allocator<char> >,std::allocator<std::basic_string<char,std::char_traits<char>,std::allocator<char> > > > >::operator++, COMDAT
; _this$ = ecx

; 331  : 		{	// preincrement

  00000	8b c1		 mov	 eax, ecx

; 332  : 		++*(_Mybase *)this;

  00002	83 00 1c	 add	 DWORD PTR [eax], 28	; 0000001cH

; 333  : 		return (*this);
; 334  : 		}

  00005	c3		 ret	 0
??E?$_Vector_iterator@V?$_Vector_val@V?$basic_string@DU?$char_traits@D@std@@V?$allocator@D@2@@std@@V?$allocator@V?$basic_string@DU?$char_traits@D@std@@V?$allocator@D@2@@std@@@2@@std@@@std@@QAEAAV01@XZ ENDP ; std::_Vector_iterator<std::_Vector_val<std::basic_string<char,std::char_traits<char>,std::allocator<char> >,std::allocator<std::basic_string<char,std::char_traits<char>,std::allocator<char> > > > >::operator++
_TEXT	ENDS
PUBLIC	?begin@?$vector@V?$basic_string@DU?$char_traits@D@std@@V?$allocator@D@2@@std@@V?$allocator@V?$basic_string@DU?$char_traits@D@std@@V?$allocator@D@2@@std@@@2@@std@@QBE?AV?$_Vector_const_iterator@V?$_Vector_val@V?$basic_string@DU?$char_traits@D@std@@V?$allocator@D@2@@std@@V?$allocator@V?$basic_string@DU?$char_traits@D@std@@V?$allocator@D@2@@std@@@2@@std@@@2@XZ ; std::vector<std::basic_string<char,std::char_traits<char>,std::allocator<char> >,std::allocator<std::basic_string<char,std::char_traits<char>,std::allocator<char> > > >::begin
; Function compile flags: /Ogsp
;	COMDAT ?begin@?$vector@V?$basic_string@DU?$char_traits@D@std@@V?$allocator@D@2@@std@@V?$allocator@V?$basic_string@DU?$char_traits@D@std@@V?$allocator@D@2@@std@@@2@@std@@QBE?AV?$_Vector_const_iterator@V?$_Vector_val@V?$basic_string@DU?$char_traits@D@std@@V?$allocator@D@2@@std@@V?$allocator@V?$basic_string@DU?$char_traits@D@std@@V?$allocator@D@2@@std@@@2@@std@@@2@XZ
_TEXT	SEGMENT
___$ReturnUdt$ = 8					; size = 4
?begin@?$vector@V?$basic_string@DU?$char_traits@D@std@@V?$allocator@D@2@@std@@V?$allocator@V?$basic_string@DU?$char_traits@D@std@@V?$allocator@D@2@@std@@@2@@std@@QBE?AV?$_Vector_const_iterator@V?$_Vector_val@V?$basic_string@DU?$char_traits@D@std@@V?$allocator@D@2@@std@@V?$allocator@V?$basic_string@DU?$char_traits@D@std@@V?$allocator@D@2@@std@@@2@@std@@@2@XZ PROC ; std::vector<std::basic_string<char,std::char_traits<char>,std::allocator<char> >,std::allocator<std::basic_string<char,std::char_traits<char>,std::allocator<char> > > >::begin, COMDAT
; _this$ = ecx

; 786  : 		{	// return iterator for beginning of nonmutable sequence

  00000	55		 push	 ebp
  00001	8b ec		 mov	 ebp, esp

; 787  : 		return (const_iterator(this->_Myfirst, this));

  00003	8b 09		 mov	 ecx, DWORD PTR [ecx]
  00005	8b 45 08	 mov	 eax, DWORD PTR ___$ReturnUdt$[ebp]
  00008	89 08		 mov	 DWORD PTR [eax], ecx

; 788  : 		}

  0000a	5d		 pop	 ebp
  0000b	c2 04 00	 ret	 4
?begin@?$vector@V?$basic_string@DU?$char_traits@D@std@@V?$allocator@D@2@@std@@V?$allocator@V?$basic_string@DU?$char_traits@D@std@@V?$allocator@D@2@@std@@@2@@std@@QBE?AV?$_Vector_const_iterator@V?$_Vector_val@V?$basic_string@DU?$char_traits@D@std@@V?$allocator@D@2@@std@@V?$allocator@V?$basic_string@DU?$char_traits@D@std@@V?$allocator@D@2@@std@@@2@@std@@@2@XZ ENDP ; std::vector<std::basic_string<char,std::char_traits<char>,std::allocator<char> >,std::allocator<std::basic_string<char,std::char_traits<char>,std::allocator<char> > > >::begin
_TEXT	ENDS
PUBLIC	?end@?$vector@V?$basic_string@DU?$char_traits@D@std@@V?$allocator@D@2@@std@@V?$allocator@V?$basic_string@DU?$char_traits@D@std@@V?$allocator@D@2@@std@@@2@@std@@QBE?AV?$_Vector_const_iterator@V?$_Vector_val@V?$basic_string@DU?$char_traits@D@std@@V?$allocator@D@2@@std@@V?$allocator@V?$basic_string@DU?$char_traits@D@std@@V?$allocator@D@2@@std@@@2@@std@@@2@XZ ; std::vector<std::basic_string<char,std::char_traits<char>,std::allocator<char> >,std::allocator<std::basic_string<char,std::char_traits<char>,std::allocator<char> > > >::end
; Function compile flags: /Ogsp
;	COMDAT ?end@?$vector@V?$basic_string@DU?$char_traits@D@std@@V?$allocator@D@2@@std@@V?$allocator@V?$basic_string@DU?$char_traits@D@std@@V?$allocator@D@2@@std@@@2@@std@@QBE?AV?$_Vector_const_iterator@V?$_Vector_val@V?$basic_string@DU?$char_traits@D@std@@V?$allocator@D@2@@std@@V?$allocator@V?$basic_string@DU?$char_traits@D@std@@V?$allocator@D@2@@std@@@2@@std@@@2@XZ
_TEXT	SEGMENT
___$ReturnUdt$ = 8					; size = 4
?end@?$vector@V?$basic_string@DU?$char_traits@D@std@@V?$allocator@D@2@@std@@V?$allocator@V?$basic_string@DU?$char_traits@D@std@@V?$allocator@D@2@@std@@@2@@std@@QBE?AV?$_Vector_const_iterator@V?$_Vector_val@V?$basic_string@DU?$char_traits@D@std@@V?$allocator@D@2@@std@@V?$allocator@V?$basic_string@DU?$char_traits@D@std@@V?$allocator@D@2@@std@@@2@@std@@@2@XZ PROC ; std::vector<std::basic_string<char,std::char_traits<char>,std::allocator<char> >,std::allocator<std::basic_string<char,std::char_traits<char>,std::allocator<char> > > >::end, COMDAT
; _this$ = ecx

; 796  : 		{	// return iterator for end of nonmutable sequence

  00000	55		 push	 ebp
  00001	8b ec		 mov	 ebp, esp

; 797  : 		return (const_iterator(this->_Mylast, this));

  00003	8b 49 04	 mov	 ecx, DWORD PTR [ecx+4]
  00006	8b 45 08	 mov	 eax, DWORD PTR ___$ReturnUdt$[ebp]
  00009	89 08		 mov	 DWORD PTR [eax], ecx

; 798  : 		}

  0000b	5d		 pop	 ebp
  0000c	c2 04 00	 ret	 4
?end@?$vector@V?$basic_string@DU?$char_traits@D@std@@V?$allocator@D@2@@std@@V?$allocator@V?$basic_string@DU?$char_traits@D@std@@V?$allocator@D@2@@std@@@2@@std@@QBE?AV?$_Vector_const_iterator@V?$_Vector_val@V?$basic_string@DU?$char_traits@D@std@@V?$allocator@D@2@@std@@V?$allocator@V?$basic_string@DU?$char_traits@D@std@@V?$allocator@D@2@@std@@@2@@std@@@2@XZ ENDP ; std::vector<std::basic_string<char,std::char_traits<char>,std::allocator<char> >,std::allocator<std::basic_string<char,std::char_traits<char>,std::allocator<char> > > >::end
_TEXT	ENDS
PUBLIC	??0?$_Vector_val@V?$basic_string@DU?$char_traits@D@std@@V?$allocator@D@2@@std@@V?$allocator@V?$basic_string@DU?$char_traits@D@std@@V?$allocator@D@2@@std@@@2@@std@@QAE@V?$allocator@V?$basic_string@DU?$char_traits@D@std@@V?$allocator@D@2@@std@@@1@@Z ; std::_Vector_val<std::basic_string<char,std::char_traits<char>,std::allocator<char> >,std::allocator<std::basic_string<char,std::char_traits<char>,std::allocator<char> > > >::_Vector_val<std::basic_string<char,std::char_traits<char>,std::allocator<char> >,std::allocator<std::basic_string<char,std::char_traits<char>,std::allocator<char> > > >
; Function compile flags: /Ogsp
;	COMDAT ??0?$_Vector_val@V?$basic_string@DU?$char_traits@D@std@@V?$allocator@D@2@@std@@V?$allocator@V?$basic_string@DU?$char_traits@D@std@@V?$allocator@D@2@@std@@@2@@std@@QAE@V?$allocator@V?$basic_string@DU?$char_traits@D@std@@V?$allocator@D@2@@std@@@1@@Z
_TEXT	SEGMENT
__Al$ = 8						; size = 1
??0?$_Vector_val@V?$basic_string@DU?$char_traits@D@std@@V?$allocator@D@2@@std@@V?$allocator@V?$basic_string@DU?$char_traits@D@std@@V?$allocator@D@2@@std@@@2@@std@@QAE@V?$allocator@V?$basic_string@DU?$char_traits@D@std@@V?$allocator@D@2@@std@@@1@@Z PROC ; std::_Vector_val<std::basic_string<char,std::char_traits<char>,std::allocator<char> >,std::allocator<std::basic_string<char,std::char_traits<char>,std::allocator<char> > > >::_Vector_val<std::basic_string<char,std::char_traits<char>,std::allocator<char> >,std::allocator<std::basic_string<char,std::char_traits<char>,std::allocator<char> > > >, COMDAT
; _this$ = ecx

; 426  : 		{	// construct allocator from _Al

  00000	8b c1		 mov	 eax, ecx

; 427  : 		_Myfirst = 0;

  00002	33 c9		 xor	 ecx, ecx
  00004	89 08		 mov	 DWORD PTR [eax], ecx

; 428  : 		_Mylast = 0;

  00006	89 48 04	 mov	 DWORD PTR [eax+4], ecx

; 429  : 		_Myend = 0;

  00009	89 48 08	 mov	 DWORD PTR [eax+8], ecx

; 430  : 		}

  0000c	c2 04 00	 ret	 4
??0?$_Vector_val@V?$basic_string@DU?$char_traits@D@std@@V?$allocator@D@2@@std@@V?$allocator@V?$basic_string@DU?$char_traits@D@std@@V?$allocator@D@2@@std@@@2@@std@@QAE@V?$allocator@V?$basic_string@DU?$char_traits@D@std@@V?$allocator@D@2@@std@@@1@@Z ENDP ; std::_Vector_val<std::basic_string<char,std::char_traits<char>,std::allocator<char> >,std::allocator<std::basic_string<char,std::char_traits<char>,std::allocator<char> > > >::_Vector_val<std::basic_string<char,std::char_traits<char>,std::allocator<char> >,std::allocator<std::basic_string<char,std::char_traits<char>,std::allocator<char> > > >
_TEXT	ENDS
PUBLIC	??E?$_Vector_iterator@V?$_Vector_val@KV?$allocator@K@std@@@std@@@std@@QAEAAV01@XZ ; std::_Vector_iterator<std::_Vector_val<unsigned long,std::allocator<unsigned long> > >::operator++
; Function compile flags: /Ogsp
;	COMDAT ??E?$_Vector_iterator@V?$_Vector_val@KV?$allocator@K@std@@@std@@@std@@QAEAAV01@XZ
_TEXT	SEGMENT
??E?$_Vector_iterator@V?$_Vector_val@KV?$allocator@K@std@@@std@@@std@@QAEAAV01@XZ PROC ; std::_Vector_iterator<std::_Vector_val<unsigned long,std::allocator<unsigned long> > >::operator++, COMDAT
; _this$ = ecx

; 331  : 		{	// preincrement

  00000	8b c1		 mov	 eax, ecx

; 332  : 		++*(_Mybase *)this;

  00002	83 00 04	 add	 DWORD PTR [eax], 4

; 333  : 		return (*this);
; 334  : 		}

  00005	c3		 ret	 0
??E?$_Vector_iterator@V?$_Vector_val@KV?$allocator@K@std@@@std@@@std@@QAEAAV01@XZ ENDP ; std::_Vector_iterator<std::_Vector_val<unsigned long,std::allocator<unsigned long> > >::operator++
_TEXT	ENDS
PUBLIC	??0?$_Vector_val@UDefenseData@ioDefenseController@@V?$allocator@UDefenseData@ioDefenseController@@@std@@@std@@QAE@V?$allocator@UDefenseData@ioDefenseController@@@1@@Z ; std::_Vector_val<ioDefenseController::DefenseData,std::allocator<ioDefenseController::DefenseData> >::_Vector_val<ioDefenseController::DefenseData,std::allocator<ioDefenseController::DefenseData> >
; Function compile flags: /Ogsp
;	COMDAT ??0?$_Vector_val@UDefenseData@ioDefenseController@@V?$allocator@UDefenseData@ioDefenseController@@@std@@@std@@QAE@V?$allocator@UDefenseData@ioDefenseController@@@1@@Z
_TEXT	SEGMENT
__Al$ = 8						; size = 1
??0?$_Vector_val@UDefenseData@ioDefenseController@@V?$allocator@UDefenseData@ioDefenseController@@@std@@@std@@QAE@V?$allocator@UDefenseData@ioDefenseController@@@1@@Z PROC ; std::_Vector_val<ioDefenseController::DefenseData,std::allocator<ioDefenseController::DefenseData> >::_Vector_val<ioDefenseController::DefenseData,std::allocator<ioDefenseController::DefenseData> >, COMDAT
; _this$ = ecx

; 426  : 		{	// construct allocator from _Al

  00000	8b c1		 mov	 eax, ecx

; 427  : 		_Myfirst = 0;

  00002	33 c9		 xor	 ecx, ecx
  00004	89 08		 mov	 DWORD PTR [eax], ecx

; 428  : 		_Mylast = 0;

  00006	89 48 04	 mov	 DWORD PTR [eax+4], ecx

; 429  : 		_Myend = 0;

  00009	89 48 08	 mov	 DWORD PTR [eax+8], ecx

; 430  : 		}

  0000c	c2 04 00	 ret	 4
??0?$_Vector_val@UDefenseData@ioDefenseController@@V?$allocator@UDefenseData@ioDefenseController@@@std@@@std@@QAE@V?$allocator@UDefenseData@ioDefenseController@@@1@@Z ENDP ; std::_Vector_val<ioDefenseController::DefenseData,std::allocator<ioDefenseController::DefenseData> >::_Vector_val<ioDefenseController::DefenseData,std::allocator<ioDefenseController::DefenseData> >
_TEXT	ENDS
PUBLIC	?_Lmost@?$_Tree@V?$_Tmap_traits@KUDefenseList@ioDefenseController@@U?$less@K@std@@V?$allocator@U?$pair@$$CBKUDefenseList@ioDefenseController@@@std@@@4@$0A@@std@@@std@@IBEAAPAU_Node@?$_Tree_nod@V?$_Tmap_traits@KUDefenseList@ioDefenseController@@U?$less@K@std@@V?$allocator@U?$pair@$$CBKUDefenseList@ioDefenseController@@@std@@@4@$0A@@std@@@2@XZ ; std::_Tree<std::_Tmap_traits<unsigned long,ioDefenseController::DefenseList,std::less<unsigned long>,std::allocator<std::pair<unsigned long const ,ioDefenseController::DefenseList> >,0> >::_Lmost
; Function compile flags: /Ogsp
; File c:\program files (x86)\microsoft visual studio 10.0\vc\include\xtree
;	COMDAT ?_Lmost@?$_Tree@V?$_Tmap_traits@KUDefenseList@ioDefenseController@@U?$less@K@std@@V?$allocator@U?$pair@$$CBKUDefenseList@ioDefenseController@@@std@@@4@$0A@@std@@@std@@IBEAAPAU_Node@?$_Tree_nod@V?$_Tmap_traits@KUDefenseList@ioDefenseController@@U?$less@K@std@@V?$allocator@U?$pair@$$CBKUDefenseList@ioDefenseController@@@std@@@4@$0A@@std@@@2@XZ
_TEXT	SEGMENT
?_Lmost@?$_Tree@V?$_Tmap_traits@KUDefenseList@ioDefenseController@@U?$less@K@std@@V?$allocator@U?$pair@$$CBKUDefenseList@ioDefenseController@@@std@@@4@$0A@@std@@@std@@IBEAAPAU_Node@?$_Tree_nod@V?$_Tmap_traits@KUDefenseList@ioDefenseController@@U?$less@K@std@@V?$allocator@U?$pair@$$CBKUDefenseList@ioDefenseController@@@std@@@4@$0A@@std@@@2@XZ PROC ; std::_Tree<std::_Tmap_traits<unsigned long,ioDefenseController::DefenseList,std::less<unsigned long>,std::allocator<std::pair<unsigned long const ,ioDefenseController::DefenseList> >,0> >::_Lmost, COMDAT
; _this$ = ecx

; 1759 : 		return (this->_Left(this->_Myhead));

  00000	8b 41 04	 mov	 eax, DWORD PTR [ecx+4]

; 1760 : 		}

  00003	c3		 ret	 0
?_Lmost@?$_Tree@V?$_Tmap_traits@KUDefenseList@ioDefenseController@@U?$less@K@std@@V?$allocator@U?$pair@$$CBKUDefenseList@ioDefenseController@@@std@@@4@$0A@@std@@@std@@IBEAAPAU_Node@?$_Tree_nod@V?$_Tmap_traits@KUDefenseList@ioDefenseController@@U?$less@K@std@@V?$allocator@U?$pair@$$CBKUDefenseList@ioDefenseController@@@std@@@4@$0A@@std@@@2@XZ ENDP ; std::_Tree<std::_Tmap_traits<unsigned long,ioDefenseController::DefenseList,std::less<unsigned long>,std::allocator<std::pair<unsigned long const ,ioDefenseController::DefenseList> >,0> >::_Lmost
_TEXT	ENDS
PUBLIC	??1?$_Tree_val@V?$_Tmap_traits@KUDefenseList@ioDefenseController@@U?$less@K@std@@V?$allocator@U?$pair@$$CBKUDefenseList@ioDefenseController@@@std@@@4@$0A@@std@@@std@@QAE@XZ ; std::_Tree_val<std::_Tmap_traits<unsigned long,ioDefenseController::DefenseList,std::less<unsigned long>,std::allocator<std::pair<unsigned long const ,ioDefenseController::DefenseList> >,0> >::~_Tree_val<std::_Tmap_traits<unsigned long,ioDefenseController::DefenseList,std::less<unsigned long>,std::allocator<std::pair<unsigned long const ,ioDefenseController::DefenseList> >,0> >
; Function compile flags: /Ogsp
;	COMDAT ??1?$_Tree_val@V?$_Tmap_traits@KUDefenseList@ioDefenseController@@U?$less@K@std@@V?$allocator@U?$pair@$$CBKUDefenseList@ioDefenseController@@@std@@@4@$0A@@std@@@std@@QAE@XZ
_TEXT	SEGMENT
??1?$_Tree_val@V?$_Tmap_traits@KUDefenseList@ioDefenseController@@U?$less@K@std@@V?$allocator@U?$pair@$$CBKUDefenseList@ioDefenseController@@@std@@@4@$0A@@std@@@std@@QAE@XZ PROC ; std::_Tree_val<std::_Tmap_traits<unsigned long,ioDefenseController::DefenseList,std::less<unsigned long>,std::allocator<std::pair<unsigned long const ,ioDefenseController::DefenseList> >,0> >::~_Tree_val<std::_Tmap_traits<unsigned long,ioDefenseController::DefenseList,std::less<unsigned long>,std::allocator<std::pair<unsigned long const ,ioDefenseController::DefenseList> >,0> >, COMDAT
; _this$ = ecx

; 555  : 		this->_Alnod.deallocate(this->_Myhead, 1);

  00000	ff 71 04	 push	 DWORD PTR [ecx+4]
  00003	e8 00 00 00 00	 call	 ??3@YAXPAX@Z		; operator delete
  00008	59		 pop	 ecx

; 556  : 		}

  00009	c3		 ret	 0
??1?$_Tree_val@V?$_Tmap_traits@KUDefenseList@ioDefenseController@@U?$less@K@std@@V?$allocator@U?$pair@$$CBKUDefenseList@ioDefenseController@@@std@@@4@$0A@@std@@@std@@QAE@XZ ENDP ; std::_Tree_val<std::_Tmap_traits<unsigned long,ioDefenseController::DefenseList,std::less<unsigned long>,std::allocator<std::pair<unsigned long const ,ioDefenseController::DefenseList> >,0> >::~_Tree_val<std::_Tmap_traits<unsigned long,ioDefenseController::DefenseList,std::less<unsigned long>,std::allocator<std::pair<unsigned long const ,ioDefenseController::DefenseList> >,0> >
_TEXT	ENDS
PUBLIC	?_Key@?$_Tree_val@V?$_Tmap_traits@KUDefenseList@ioDefenseController@@U?$less@K@std@@V?$allocator@U?$pair@$$CBKUDefenseList@ioDefenseController@@@std@@@4@$0A@@std@@@std@@SAAAKPAU_Node@?$_Tree_nod@V?$_Tmap_traits@KUDefenseList@ioDefenseController@@U?$less@K@std@@V?$allocator@U?$pair@$$CBKUDefenseList@ioDefenseController@@@std@@@4@$0A@@std@@@2@@Z ; std::_Tree_val<std::_Tmap_traits<unsigned long,ioDefenseController::DefenseList,std::less<unsigned long>,std::allocator<std::pair<unsigned long const ,ioDefenseController::DefenseList> >,0> >::_Key
; Function compile flags: /Ogsp
;	COMDAT ?_Key@?$_Tree_val@V?$_Tmap_traits@KUDefenseList@ioDefenseController@@U?$less@K@std@@V?$allocator@U?$pair@$$CBKUDefenseList@ioDefenseController@@@std@@@4@$0A@@std@@@std@@SAAAKPAU_Node@?$_Tree_nod@V?$_Tmap_traits@KUDefenseList@ioDefenseController@@U?$less@K@std@@V?$allocator@U?$pair@$$CBKUDefenseList@ioDefenseController@@@std@@@4@$0A@@std@@@2@@Z
_TEXT	SEGMENT
__Pnode$ = 8						; size = 4
?_Key@?$_Tree_val@V?$_Tmap_traits@KUDefenseList@ioDefenseController@@U?$less@K@std@@V?$allocator@U?$pair@$$CBKUDefenseList@ioDefenseController@@@std@@@4@$0A@@std@@@std@@SAAAKPAU_Node@?$_Tree_nod@V?$_Tmap_traits@KUDefenseList@ioDefenseController@@U?$less@K@std@@V?$allocator@U?$pair@$$CBKUDefenseList@ioDefenseController@@@std@@@4@$0A@@std@@@2@@Z PROC ; std::_Tree_val<std::_Tmap_traits<unsigned long,ioDefenseController::DefenseList,std::less<unsigned long>,std::allocator<std::pair<unsigned long const ,ioDefenseController::DefenseList> >,0> >::_Key, COMDAT

; 616  : 		{	// return reference to key in node

  00000	55		 push	 ebp
  00001	8b ec		 mov	 ebp, esp

; 617  : 		return ((key_type&)_Traits::_Kfn(_Myval(_Pnode)));

  00003	8b 45 08	 mov	 eax, DWORD PTR __Pnode$[ebp]
  00006	83 c0 0c	 add	 eax, 12			; 0000000cH

; 618  : 		}

  00009	5d		 pop	 ebp
  0000a	c3		 ret	 0
?_Key@?$_Tree_val@V?$_Tmap_traits@KUDefenseList@ioDefenseController@@U?$less@K@std@@V?$allocator@U?$pair@$$CBKUDefenseList@ioDefenseController@@@std@@@4@$0A@@std@@@std@@SAAAKPAU_Node@?$_Tree_nod@V?$_Tmap_traits@KUDefenseList@ioDefenseController@@U?$less@K@std@@V?$allocator@U?$pair@$$CBKUDefenseList@ioDefenseController@@@std@@@4@$0A@@std@@@2@@Z ENDP ; std::_Tree_val<std::_Tmap_traits<unsigned long,ioDefenseController::DefenseList,std::less<unsigned long>,std::allocator<std::pair<unsigned long const ,ioDefenseController::DefenseList> >,0> >::_Key
_TEXT	ENDS
PUBLIC	??D?$_Tree_iterator@V?$_Tree_val@V?$_Tmap_traits@KUDefenseList@ioDefenseController@@U?$less@K@std@@V?$allocator@U?$pair@$$CBKUDefenseList@ioDefenseController@@@std@@@4@$0A@@std@@@std@@@std@@QBEAAU?$pair@$$CBKUDefenseList@ioDefenseController@@@1@XZ ; std::_Tree_iterator<std::_Tree_val<std::_Tmap_traits<unsigned long,ioDefenseController::DefenseList,std::less<unsigned long>,std::allocator<std::pair<unsigned long const ,ioDefenseController::DefenseList> >,0> > >::operator*
; Function compile flags: /Ogsp
;	COMDAT ??D?$_Tree_iterator@V?$_Tree_val@V?$_Tmap_traits@KUDefenseList@ioDefenseController@@U?$less@K@std@@V?$allocator@U?$pair@$$CBKUDefenseList@ioDefenseController@@@std@@@4@$0A@@std@@@std@@@std@@QBEAAU?$pair@$$CBKUDefenseList@ioDefenseController@@@1@XZ
_TEXT	SEGMENT
??D?$_Tree_iterator@V?$_Tree_val@V?$_Tmap_traits@KUDefenseList@ioDefenseController@@U?$less@K@std@@V?$allocator@U?$pair@$$CBKUDefenseList@ioDefenseController@@@std@@@4@$0A@@std@@@std@@@std@@QBEAAU?$pair@$$CBKUDefenseList@ioDefenseController@@@1@XZ PROC ; std::_Tree_iterator<std::_Tree_val<std::_Tmap_traits<unsigned long,ioDefenseController::DefenseList,std::less<unsigned long>,std::allocator<std::pair<unsigned long const ,ioDefenseController::DefenseList> >,0> > >::operator*, COMDAT
; _this$ = ecx

; 396  : 		return ((reference)**(_Mybase *)this);

  00000	8b 01		 mov	 eax, DWORD PTR [ecx]
  00002	83 c0 0c	 add	 eax, 12			; 0000000cH

; 397  : 		}

  00005	c3		 ret	 0
??D?$_Tree_iterator@V?$_Tree_val@V?$_Tmap_traits@KUDefenseList@ioDefenseController@@U?$less@K@std@@V?$allocator@U?$pair@$$CBKUDefenseList@ioDefenseController@@@std@@@4@$0A@@std@@@std@@@std@@QBEAAU?$pair@$$CBKUDefenseList@ioDefenseController@@@1@XZ ENDP ; std::_Tree_iterator<std::_Tree_val<std::_Tmap_traits<unsigned long,ioDefenseController::DefenseList,std::less<unsigned long>,std::allocator<std::pair<unsigned long const ,ioDefenseController::DefenseList> >,0> > >::operator*
_TEXT	ENDS
PUBLIC	??0?$_Tree_const_iterator@V?$_Tree_val@V?$_Tmap_traits@KUDefenseList@ioDefenseController@@U?$less@K@std@@V?$allocator@U?$pair@$$CBKUDefenseList@ioDefenseController@@@std@@@4@$0A@@std@@@std@@@std@@QAE@XZ ; std::_Tree_const_iterator<std::_Tree_val<std::_Tmap_traits<unsigned long,ioDefenseController::DefenseList,std::less<unsigned long>,std::allocator<std::pair<unsigned long const ,ioDefenseController::DefenseList> >,0> > >::_Tree_const_iterator<std::_Tree_val<std::_Tmap_traits<unsigned long,ioDefenseController::DefenseList,std::less<unsigned long>,std::allocator<std::pair<unsigned long const ,ioDefenseController::DefenseList> >,0> > >
; Function compile flags: /Ogsp
;	COMDAT ??0?$_Tree_const_iterator@V?$_Tree_val@V?$_Tmap_traits@KUDefenseList@ioDefenseController@@U?$less@K@std@@V?$allocator@U?$pair@$$CBKUDefenseList@ioDefenseController@@@std@@@4@$0A@@std@@@std@@@std@@QAE@XZ
_TEXT	SEGMENT
??0?$_Tree_const_iterator@V?$_Tree_val@V?$_Tmap_traits@KUDefenseList@ioDefenseController@@U?$less@K@std@@V?$allocator@U?$pair@$$CBKUDefenseList@ioDefenseController@@@std@@@4@$0A@@std@@@std@@@std@@QAE@XZ PROC ; std::_Tree_const_iterator<std::_Tree_val<std::_Tmap_traits<unsigned long,ioDefenseController::DefenseList,std::less<unsigned long>,std::allocator<std::pair<unsigned long const ,ioDefenseController::DefenseList> >,0> > >::_Tree_const_iterator<std::_Tree_val<std::_Tmap_traits<unsigned long,ioDefenseController::DefenseList,std::less<unsigned long>,std::allocator<std::pair<unsigned long const ,ioDefenseController::DefenseList> >,0> > >, COMDAT
; _this$ = ecx

; 208  : 		{	// construct with null node pointer

  00000	8b c1		 mov	 eax, ecx
  00002	83 20 00	 and	 DWORD PTR [eax], 0

; 209  : 		}

  00005	c3		 ret	 0
??0?$_Tree_const_iterator@V?$_Tree_val@V?$_Tmap_traits@KUDefenseList@ioDefenseController@@U?$less@K@std@@V?$allocator@U?$pair@$$CBKUDefenseList@ioDefenseController@@@std@@@4@$0A@@std@@@std@@@std@@QAE@XZ ENDP ; std::_Tree_const_iterator<std::_Tree_val<std::_Tmap_traits<unsigned long,ioDefenseController::DefenseList,std::less<unsigned long>,std::allocator<std::pair<unsigned long const ,ioDefenseController::DefenseList> >,0> > >::_Tree_const_iterator<std::_Tree_val<std::_Tmap_traits<unsigned long,ioDefenseController::DefenseList,std::less<unsigned long>,std::allocator<std::pair<unsigned long const ,ioDefenseController::DefenseList> >,0> > >
_TEXT	ENDS
PUBLIC	??0?$_Vector_iterator@V?$_Vector_val@V?$basic_string@DU?$char_traits@D@std@@V?$allocator@D@2@@std@@V?$allocator@V?$basic_string@DU?$char_traits@D@std@@V?$allocator@D@2@@std@@@2@@std@@@std@@QAE@PAV?$basic_string@DU?$char_traits@D@std@@V?$allocator@D@2@@1@PBU_Container_base0@1@@Z ; std::_Vector_iterator<std::_Vector_val<std::basic_string<char,std::char_traits<char>,std::allocator<char> >,std::allocator<std::basic_string<char,std::char_traits<char>,std::allocator<char> > > > >::_Vector_iterator<std::_Vector_val<std::basic_string<char,std::char_traits<char>,std::allocator<char> >,std::allocator<std::basic_string<char,std::char_traits<char>,std::allocator<char> > > > >
; Function compile flags: /Ogsp
; File c:\program files (x86)\microsoft visual studio 10.0\vc\include\vector
;	COMDAT ??0?$_Vector_iterator@V?$_Vector_val@V?$basic_string@DU?$char_traits@D@std@@V?$allocator@D@2@@std@@V?$allocator@V?$basic_string@DU?$char_traits@D@std@@V?$allocator@D@2@@std@@@2@@std@@@std@@QAE@PAV?$basic_string@DU?$char_traits@D@std@@V?$allocator@D@2@@1@PBU_Container_base0@1@@Z
_TEXT	SEGMENT
__Parg$ = 8						; size = 4
__Pvector$ = 12						; size = 4
??0?$_Vector_iterator@V?$_Vector_val@V?$basic_string@DU?$char_traits@D@std@@V?$allocator@D@2@@std@@V?$allocator@V?$basic_string@DU?$char_traits@D@std@@V?$allocator@D@2@@std@@@2@@std@@@std@@QAE@PAV?$basic_string@DU?$char_traits@D@std@@V?$allocator@D@2@@1@PBU_Container_base0@1@@Z PROC ; std::_Vector_iterator<std::_Vector_val<std::basic_string<char,std::char_traits<char>,std::allocator<char> >,std::allocator<std::basic_string<char,std::char_traits<char>,std::allocator<char> > > > >::_Vector_iterator<std::_Vector_val<std::basic_string<char,std::char_traits<char>,std::allocator<char> >,std::allocator<std::basic_string<char,std::char_traits<char>,std::allocator<char> > > > >, COMDAT
; _this$ = ecx

; 304  : 		{	// construct with pointer _Parg

  00000	55		 push	 ebp
  00001	8b ec		 mov	 ebp, esp
  00003	8b c1		 mov	 eax, ecx
  00005	8b 4d 08	 mov	 ecx, DWORD PTR __Parg$[ebp]
  00008	89 08		 mov	 DWORD PTR [eax], ecx

; 305  : 		}

  0000a	5d		 pop	 ebp
  0000b	c2 08 00	 ret	 8
??0?$_Vector_iterator@V?$_Vector_val@V?$basic_string@DU?$char_traits@D@std@@V?$allocator@D@2@@std@@V?$allocator@V?$basic_string@DU?$char_traits@D@std@@V?$allocator@D@2@@std@@@2@@std@@@std@@QAE@PAV?$basic_string@DU?$char_traits@D@std@@V?$allocator@D@2@@1@PBU_Container_base0@1@@Z ENDP ; std::_Vector_iterator<std::_Vector_val<std::basic_string<char,std::char_traits<char>,std::allocator<char> >,std::allocator<std::basic_string<char,std::char_traits<char>,std::allocator<char> > > > >::_Vector_iterator<std::_Vector_val<std::basic_string<char,std::char_traits<char>,std::allocator<char> >,std::allocator<std::basic_string<char,std::char_traits<char>,std::allocator<char> > > > >
_TEXT	ENDS
PUBLIC	??D?$_Vector_iterator@V?$_Vector_val@V?$basic_string@DU?$char_traits@D@std@@V?$allocator@D@2@@std@@V?$allocator@V?$basic_string@DU?$char_traits@D@std@@V?$allocator@D@2@@std@@@2@@std@@@std@@QBEAAV?$basic_string@DU?$char_traits@D@std@@V?$allocator@D@2@@1@XZ ; std::_Vector_iterator<std::_Vector_val<std::basic_string<char,std::char_traits<char>,std::allocator<char> >,std::allocator<std::basic_string<char,std::char_traits<char>,std::allocator<char> > > > >::operator*
; Function compile flags: /Ogsp
;	COMDAT ??D?$_Vector_iterator@V?$_Vector_val@V?$basic_string@DU?$char_traits@D@std@@V?$allocator@D@2@@std@@V?$allocator@V?$basic_string@DU?$char_traits@D@std@@V?$allocator@D@2@@std@@@2@@std@@@std@@QBEAAV?$basic_string@DU?$char_traits@D@std@@V?$allocator@D@2@@1@XZ
_TEXT	SEGMENT
??D?$_Vector_iterator@V?$_Vector_val@V?$basic_string@DU?$char_traits@D@std@@V?$allocator@D@2@@std@@V?$allocator@V?$basic_string@DU?$char_traits@D@std@@V?$allocator@D@2@@std@@@2@@std@@@std@@QBEAAV?$basic_string@DU?$char_traits@D@std@@V?$allocator@D@2@@1@XZ PROC ; std::_Vector_iterator<std::_Vector_val<std::basic_string<char,std::char_traits<char>,std::allocator<char> >,std::allocator<std::basic_string<char,std::char_traits<char>,std::allocator<char> > > > >::operator*, COMDAT
; _this$ = ecx

; 322  : 		return ((reference)**(_Mybase *)this);

  00000	8b 01		 mov	 eax, DWORD PTR [ecx]

; 323  : 		}

  00002	c3		 ret	 0
??D?$_Vector_iterator@V?$_Vector_val@V?$basic_string@DU?$char_traits@D@std@@V?$allocator@D@2@@std@@V?$allocator@V?$basic_string@DU?$char_traits@D@std@@V?$allocator@D@2@@std@@@2@@std@@@std@@QBEAAV?$basic_string@DU?$char_traits@D@std@@V?$allocator@D@2@@1@XZ ENDP ; std::_Vector_iterator<std::_Vector_val<std::basic_string<char,std::char_traits<char>,std::allocator<char> >,std::allocator<std::basic_string<char,std::char_traits<char>,std::allocator<char> > > > >::operator*
_TEXT	ENDS
PUBLIC	??8?$_Vector_const_iterator@V?$_Vector_val@V?$basic_string@DU?$char_traits@D@std@@V?$allocator@D@2@@std@@V?$allocator@V?$basic_string@DU?$char_traits@D@std@@V?$allocator@D@2@@std@@@2@@std@@@std@@QBE_NABV01@@Z ; std::_Vector_const_iterator<std::_Vector_val<std::basic_string<char,std::char_traits<char>,std::allocator<char> >,std::allocator<std::basic_string<char,std::char_traits<char>,std::allocator<char> > > > >::operator==
; Function compile flags: /Ogsp
;	COMDAT ??8?$_Vector_const_iterator@V?$_Vector_val@V?$basic_string@DU?$char_traits@D@std@@V?$allocator@D@2@@std@@V?$allocator@V?$basic_string@DU?$char_traits@D@std@@V?$allocator@D@2@@std@@@2@@std@@@std@@QBE_NABV01@@Z
_TEXT	SEGMENT
__Right$ = 8						; size = 4
??8?$_Vector_const_iterator@V?$_Vector_val@V?$basic_string@DU?$char_traits@D@std@@V?$allocator@D@2@@std@@V?$allocator@V?$basic_string@DU?$char_traits@D@std@@V?$allocator@D@2@@std@@@2@@std@@@std@@QBE_NABV01@@Z PROC ; std::_Vector_const_iterator<std::_Vector_val<std::basic_string<char,std::char_traits<char>,std::allocator<char> >,std::allocator<std::basic_string<char,std::char_traits<char>,std::allocator<char> > > > >::operator==, COMDAT
; _this$ = ecx

; 201  : 		{	// test for iterator equality

  00000	55		 push	 ebp
  00001	8b ec		 mov	 ebp, esp

; 202  : 		_Compat(_Right);
; 203  : 		return (this->_Ptr == _Right._Ptr);

  00003	8b 01		 mov	 eax, DWORD PTR [ecx]
  00005	8b 4d 08	 mov	 ecx, DWORD PTR __Right$[ebp]
  00008	2b 01		 sub	 eax, DWORD PTR [ecx]
  0000a	f7 d8		 neg	 eax
  0000c	1b c0		 sbb	 eax, eax
  0000e	40		 inc	 eax

; 204  : 		}

  0000f	5d		 pop	 ebp
  00010	c2 04 00	 ret	 4
??8?$_Vector_const_iterator@V?$_Vector_val@V?$basic_string@DU?$char_traits@D@std@@V?$allocator@D@2@@std@@V?$allocator@V?$basic_string@DU?$char_traits@D@std@@V?$allocator@D@2@@std@@@2@@std@@@std@@QBE_NABV01@@Z ENDP ; std::_Vector_const_iterator<std::_Vector_val<std::basic_string<char,std::char_traits<char>,std::allocator<char> >,std::allocator<std::basic_string<char,std::char_traits<char>,std::allocator<char> > > > >::operator==
_TEXT	ENDS
PUBLIC	??9?$_List_const_iterator@V?$_List_val@PAVioWeapon@@V?$allocator@PAVioWeapon@@@std@@@std@@@std@@QBE_NABV01@@Z ; std::_List_const_iterator<std::_List_val<ioWeapon *,std::allocator<ioWeapon *> > >::operator!=
; Function compile flags: /Ogsp
; File c:\program files (x86)\microsoft visual studio 10.0\vc\include\list
;	COMDAT ??9?$_List_const_iterator@V?$_List_val@PAVioWeapon@@V?$allocator@PAVioWeapon@@@std@@@std@@@std@@QBE_NABV01@@Z
_TEXT	SEGMENT
__Right$ = 8						; size = 4
??9?$_List_const_iterator@V?$_List_val@PAVioWeapon@@V?$allocator@PAVioWeapon@@@std@@@std@@@std@@QBE_NABV01@@Z PROC ; std::_List_const_iterator<std::_List_val<ioWeapon *,std::allocator<ioWeapon *> > >::operator!=, COMDAT
; _this$ = ecx

; 299  : 		{	// test for iterator inequality

  00000	55		 push	 ebp
  00001	8b ec		 mov	 ebp, esp

; 300  : 		return (!(*this == _Right));

  00003	8b 01		 mov	 eax, DWORD PTR [ecx]
  00005	8b 55 08	 mov	 edx, DWORD PTR __Right$[ebp]
  00008	33 c9		 xor	 ecx, ecx
  0000a	3b 02		 cmp	 eax, DWORD PTR [edx]
  0000c	0f 95 c0	 setne	 al

; 301  : 		}

  0000f	5d		 pop	 ebp
  00010	c2 04 00	 ret	 4
??9?$_List_const_iterator@V?$_List_val@PAVioWeapon@@V?$allocator@PAVioWeapon@@@std@@@std@@@std@@QBE_NABV01@@Z ENDP ; std::_List_const_iterator<std::_List_val<ioWeapon *,std::allocator<ioWeapon *> > >::operator!=
_TEXT	ENDS
PUBLIC	??0?$_Vector_iterator@V?$_Vector_val@UDefenseData@ioDefenseController@@V?$allocator@UDefenseData@ioDefenseController@@@std@@@std@@@std@@QAE@PAUDefenseData@ioDefenseController@@PBU_Container_base0@1@@Z ; std::_Vector_iterator<std::_Vector_val<ioDefenseController::DefenseData,std::allocator<ioDefenseController::DefenseData> > >::_Vector_iterator<std::_Vector_val<ioDefenseController::DefenseData,std::allocator<ioDefenseController::DefenseData> > >
; Function compile flags: /Ogsp
; File c:\program files (x86)\microsoft visual studio 10.0\vc\include\vector
;	COMDAT ??0?$_Vector_iterator@V?$_Vector_val@UDefenseData@ioDefenseController@@V?$allocator@UDefenseData@ioDefenseController@@@std@@@std@@@std@@QAE@PAUDefenseData@ioDefenseController@@PBU_Container_base0@1@@Z
_TEXT	SEGMENT
__Parg$ = 8						; size = 4
__Pvector$ = 12						; size = 4
??0?$_Vector_iterator@V?$_Vector_val@UDefenseData@ioDefenseController@@V?$allocator@UDefenseData@ioDefenseController@@@std@@@std@@@std@@QAE@PAUDefenseData@ioDefenseController@@PBU_Container_base0@1@@Z PROC ; std::_Vector_iterator<std::_Vector_val<ioDefenseController::DefenseData,std::allocator<ioDefenseController::DefenseData> > >::_Vector_iterator<std::_Vector_val<ioDefenseController::DefenseData,std::allocator<ioDefenseController::DefenseData> > >, COMDAT
; _this$ = ecx

; 304  : 		{	// construct with pointer _Parg

  00000	55		 push	 ebp
  00001	8b ec		 mov	 ebp, esp
  00003	8b c1		 mov	 eax, ecx
  00005	8b 4d 08	 mov	 ecx, DWORD PTR __Parg$[ebp]
  00008	89 08		 mov	 DWORD PTR [eax], ecx

; 305  : 		}

  0000a	5d		 pop	 ebp
  0000b	c2 08 00	 ret	 8
??0?$_Vector_iterator@V?$_Vector_val@UDefenseData@ioDefenseController@@V?$allocator@UDefenseData@ioDefenseController@@@std@@@std@@@std@@QAE@PAUDefenseData@ioDefenseController@@PBU_Container_base0@1@@Z ENDP ; std::_Vector_iterator<std::_Vector_val<ioDefenseController::DefenseData,std::allocator<ioDefenseController::DefenseData> > >::_Vector_iterator<std::_Vector_val<ioDefenseController::DefenseData,std::allocator<ioDefenseController::DefenseData> > >
_TEXT	ENDS
PUBLIC	?_Make_iter@?$vector@V?$basic_string@DU?$char_traits@D@std@@V?$allocator@D@2@@std@@V?$allocator@V?$basic_string@DU?$char_traits@D@std@@V?$allocator@D@2@@std@@@2@@std@@QBE?AV?$_Vector_iterator@V?$_Vector_val@V?$basic_string@DU?$char_traits@D@std@@V?$allocator@D@2@@std@@V?$allocator@V?$basic_string@DU?$char_traits@D@std@@V?$allocator@D@2@@std@@@2@@std@@@2@V?$_Vector_const_iterator@V?$_Vector_val@V?$basic_string@DU?$char_traits@D@std@@V?$allocator@D@2@@std@@V?$allocator@V?$basic_string@DU?$char_traits@D@std@@V?$allocator@D@2@@std@@@2@@std@@@2@@Z ; std::vector<std::basic_string<char,std::char_traits<char>,std::allocator<char> >,std::allocator<std::basic_string<char,std::char_traits<char>,std::allocator<char> > > >::_Make_iter
; Function compile flags: /Ogsp
;	COMDAT ?_Make_iter@?$vector@V?$basic_string@DU?$char_traits@D@std@@V?$allocator@D@2@@std@@V?$allocator@V?$basic_string@DU?$char_traits@D@std@@V?$allocator@D@2@@std@@@2@@std@@QBE?AV?$_Vector_iterator@V?$_Vector_val@V?$basic_string@DU?$char_traits@D@std@@V?$allocator@D@2@@std@@V?$allocator@V?$basic_string@DU?$char_traits@D@std@@V?$allocator@D@2@@std@@@2@@std@@@2@V?$_Vector_const_iterator@V?$_Vector_val@V?$basic_string@DU?$char_traits@D@std@@V?$allocator@D@2@@std@@V?$allocator@V?$basic_string@DU?$char_traits@D@std@@V?$allocator@D@2@@std@@@2@@std@@@2@@Z
_TEXT	SEGMENT
___$ReturnUdt$ = 8					; size = 4
__Where$ = 12						; size = 4
?_Make_iter@?$vector@V?$basic_string@DU?$char_traits@D@std@@V?$allocator@D@2@@std@@V?$allocator@V?$basic_string@DU?$char_traits@D@std@@V?$allocator@D@2@@std@@@2@@std@@QBE?AV?$_Vector_iterator@V?$_Vector_val@V?$basic_string@DU?$char_traits@D@std@@V?$allocator@D@2@@std@@V?$allocator@V?$basic_string@DU?$char_traits@D@std@@V?$allocator@D@2@@std@@@2@@std@@@2@V?$_Vector_const_iterator@V?$_Vector_val@V?$basic_string@DU?$char_traits@D@std@@V?$allocator@D@2@@std@@V?$allocator@V?$basic_string@DU?$char_traits@D@std@@V?$allocator@D@2@@std@@@2@@std@@@2@@Z PROC ; std::vector<std::basic_string<char,std::char_traits<char>,std::allocator<char> >,std::allocator<std::basic_string<char,std::char_traits<char>,std::allocator<char> > > >::_Make_iter, COMDAT
; _this$ = ecx

; 801  : 		{	// make iterator from const_iterator

  00000	55		 push	 ebp
  00001	8b ec		 mov	 ebp, esp

; 802  : 		return (iterator(_Where._Ptr, this));

  00003	8b 45 08	 mov	 eax, DWORD PTR ___$ReturnUdt$[ebp]
  00006	8b 4d 0c	 mov	 ecx, DWORD PTR __Where$[ebp]
  00009	89 08		 mov	 DWORD PTR [eax], ecx

; 803  : 		}

  0000b	5d		 pop	 ebp
  0000c	c2 08 00	 ret	 8
?_Make_iter@?$vector@V?$basic_string@DU?$char_traits@D@std@@V?$allocator@D@2@@std@@V?$allocator@V?$basic_string@DU?$char_traits@D@std@@V?$allocator@D@2@@std@@@2@@std@@QBE?AV?$_Vector_iterator@V?$_Vector_val@V?$basic_string@DU?$char_traits@D@std@@V?$allocator@D@2@@std@@V?$allocator@V?$basic_string@DU?$char_traits@D@std@@V?$allocator@D@2@@std@@@2@@std@@@2@V?$_Vector_const_iterator@V?$_Vector_val@V?$basic_string@DU?$char_traits@D@std@@V?$allocator@D@2@@std@@V?$allocator@V?$basic_string@DU?$char_traits@D@std@@V?$allocator@D@2@@std@@@2@@std@@@2@@Z ENDP ; std::vector<std::basic_string<char,std::char_traits<char>,std::allocator<char> >,std::allocator<std::basic_string<char,std::char_traits<char>,std::allocator<char> > > >::_Make_iter
_TEXT	ENDS
PUBLIC	?max_size@?$vector@V?$basic_string@DU?$char_traits@D@std@@V?$allocator@D@2@@std@@V?$allocator@V?$basic_string@DU?$char_traits@D@std@@V?$allocator@D@2@@std@@@2@@std@@QBEIXZ ; std::vector<std::basic_string<char,std::char_traits<char>,std::allocator<char> >,std::allocator<std::basic_string<char,std::char_traits<char>,std::allocator<char> > > >::max_size
; Function compile flags: /Ogsp
;	COMDAT ?max_size@?$vector@V?$basic_string@DU?$char_traits@D@std@@V?$allocator@D@2@@std@@V?$allocator@V?$basic_string@DU?$char_traits@D@std@@V?$allocator@D@2@@std@@@2@@std@@QBEIXZ
_TEXT	SEGMENT
?max_size@?$vector@V?$basic_string@DU?$char_traits@D@std@@V?$allocator@D@2@@std@@V?$allocator@V?$basic_string@DU?$char_traits@D@std@@V?$allocator@D@2@@std@@@2@@std@@QBEIXZ PROC ; std::vector<std::basic_string<char,std::char_traits<char>,std::allocator<char> >,std::allocator<std::basic_string<char,std::char_traits<char>,std::allocator<char> > > >::max_size, COMDAT
; _this$ = ecx

; 884  : 		return (this->_Alval.max_size());

  00000	b8 49 92 24 09	 mov	 eax, 153391689		; 09249249H

; 885  : 		}

  00005	c3		 ret	 0
?max_size@?$vector@V?$basic_string@DU?$char_traits@D@std@@V?$allocator@D@2@@std@@V?$allocator@V?$basic_string@DU?$char_traits@D@std@@V?$allocator@D@2@@std@@@2@@std@@QBEIXZ ENDP ; std::vector<std::basic_string<char,std::char_traits<char>,std::allocator<char> >,std::allocator<std::basic_string<char,std::char_traits<char>,std::allocator<char> > > >::max_size
_TEXT	ENDS
PUBLIC	?allocate@?$allocator@V?$basic_string@DU?$char_traits@D@std@@V?$allocator@D@2@@std@@@std@@QAEPAV?$basic_string@DU?$char_traits@D@std@@V?$allocator@D@2@@2@I@Z ; std::allocator<std::basic_string<char,std::char_traits<char>,std::allocator<char> > >::allocate
; Function compile flags: /Ogsp
; File c:\program files (x86)\microsoft visual studio 10.0\vc\include\xmemory
;	COMDAT ?allocate@?$allocator@V?$basic_string@DU?$char_traits@D@std@@V?$allocator@D@2@@std@@@std@@QAEPAV?$basic_string@DU?$char_traits@D@std@@V?$allocator@D@2@@2@I@Z
_TEXT	SEGMENT
__Count$ = 8						; size = 4
?allocate@?$allocator@V?$basic_string@DU?$char_traits@D@std@@V?$allocator@D@2@@std@@@std@@QAEPAV?$basic_string@DU?$char_traits@D@std@@V?$allocator@D@2@@2@I@Z PROC ; std::allocator<std::basic_string<char,std::char_traits<char>,std::allocator<char> > >::allocate, COMDAT
; _this$ = ecx

; 186  : 		{	// allocate array of _Count elements

  00000	55		 push	 ebp
  00001	8b ec		 mov	 ebp, esp

; 187  : 		return (_Allocate(_Count, (pointer)0));

  00003	6a 00		 push	 0
  00005	ff 75 08	 push	 DWORD PTR __Count$[ebp]
  00008	e8 00 00 00 00	 call	 ??$_Allocate@V?$basic_string@DU?$char_traits@D@std@@V?$allocator@D@2@@std@@@std@@YAPAV?$basic_string@DU?$char_traits@D@std@@V?$allocator@D@2@@0@IPAV10@@Z ; std::_Allocate<std::basic_string<char,std::char_traits<char>,std::allocator<char> > >
  0000d	59		 pop	 ecx
  0000e	59		 pop	 ecx

; 188  : 		}

  0000f	5d		 pop	 ebp
  00010	c2 04 00	 ret	 4
?allocate@?$allocator@V?$basic_string@DU?$char_traits@D@std@@V?$allocator@D@2@@std@@@std@@QAEPAV?$basic_string@DU?$char_traits@D@std@@V?$allocator@D@2@@2@I@Z ENDP ; std::allocator<std::basic_string<char,std::char_traits<char>,std::allocator<char> > >::allocate
_TEXT	ENDS
PUBLIC	?max_size@?$vector@UDefenseData@ioDefenseController@@V?$allocator@UDefenseData@ioDefenseController@@@std@@@std@@QBEIXZ ; std::vector<ioDefenseController::DefenseData,std::allocator<ioDefenseController::DefenseData> >::max_size
; Function compile flags: /Ogsp
; File c:\program files (x86)\microsoft visual studio 10.0\vc\include\vector
;	COMDAT ?max_size@?$vector@UDefenseData@ioDefenseController@@V?$allocator@UDefenseData@ioDefenseController@@@std@@@std@@QBEIXZ
_TEXT	SEGMENT
?max_size@?$vector@UDefenseData@ioDefenseController@@V?$allocator@UDefenseData@ioDefenseController@@@std@@@std@@QBEIXZ PROC ; std::vector<ioDefenseController::DefenseData,std::allocator<ioDefenseController::DefenseData> >::max_size, COMDAT
; _this$ = ecx

; 884  : 		return (this->_Alval.max_size());

  00000	b8 ff ff ff 1f	 mov	 eax, 536870911		; 1fffffffH

; 885  : 		}

  00005	c3		 ret	 0
?max_size@?$vector@UDefenseData@ioDefenseController@@V?$allocator@UDefenseData@ioDefenseController@@@std@@@std@@QBEIXZ ENDP ; std::vector<ioDefenseController::DefenseData,std::allocator<ioDefenseController::DefenseData> >::max_size
_TEXT	ENDS
PUBLIC	?_Grow_to@?$vector@UDefenseData@ioDefenseController@@V?$allocator@UDefenseData@ioDefenseController@@@std@@@std@@IBEII@Z ; std::vector<ioDefenseController::DefenseData,std::allocator<ioDefenseController::DefenseData> >::_Grow_to
; Function compile flags: /Ogsp
;	COMDAT ?_Grow_to@?$vector@UDefenseData@ioDefenseController@@V?$allocator@UDefenseData@ioDefenseController@@@std@@@std@@IBEII@Z
_TEXT	SEGMENT
__Count$ = 8						; size = 4
?_Grow_to@?$vector@UDefenseData@ioDefenseController@@V?$allocator@UDefenseData@ioDefenseController@@@std@@@std@@IBEII@Z PROC ; std::vector<ioDefenseController::DefenseData,std::allocator<ioDefenseController::DefenseData> >::_Grow_to, COMDAT
; _this$ = ecx

; 1274 : 		{	// grow by 50% or at least to _Count

  00000	55		 push	 ebp
  00001	8b ec		 mov	 ebp, esp

; 1275 : 		size_type _Capacity = capacity();

  00003	8b 41 08	 mov	 eax, DWORD PTR [ecx+8]
  00006	2b 01		 sub	 eax, DWORD PTR [ecx]

; 1276 : 
; 1277 : 		_Capacity = max_size() - _Capacity / 2 < _Capacity
; 1278 : 			? 0 : _Capacity + _Capacity / 2;	// try to grow by 50%

  00008	ba ff ff ff 1f	 mov	 edx, 536870911		; 1fffffffH
  0000d	c1 f8 03	 sar	 eax, 3
  00010	8b c8		 mov	 ecx, eax
  00012	d1 e9		 shr	 ecx, 1
  00014	2b d1		 sub	 edx, ecx
  00016	3b d0		 cmp	 edx, eax
  00018	73 04		 jae	 SHORT $LN4@Grow_to
  0001a	33 c0		 xor	 eax, eax
  0001c	eb 02		 jmp	 SHORT $LN5@Grow_to
$LN4@Grow_to:
  0001e	03 c1		 add	 eax, ecx
$LN5@Grow_to:

; 1279 : 		if (_Capacity < _Count)

  00020	3b 45 08	 cmp	 eax, DWORD PTR __Count$[ebp]

; 1280 : 			_Capacity = _Count;

  00023	0f 42 45 08	 cmovb	 eax, DWORD PTR __Count$[ebp]

; 1281 : 		return (_Capacity);
; 1282 : 		}

  00027	5d		 pop	 ebp
  00028	c2 04 00	 ret	 4
?_Grow_to@?$vector@UDefenseData@ioDefenseController@@V?$allocator@UDefenseData@ioDefenseController@@@std@@@std@@IBEII@Z ENDP ; std::vector<ioDefenseController::DefenseData,std::allocator<ioDefenseController::DefenseData> >::_Grow_to
_TEXT	ENDS
PUBLIC	??0?$_Tree_const_iterator@V?$_Tree_val@V?$_Tmap_traits@KUDefenseList@ioDefenseController@@U?$less@K@std@@V?$allocator@U?$pair@$$CBKUDefenseList@ioDefenseController@@@std@@@4@$0A@@std@@@std@@@std@@QAE@PAU_Node@?$_Tree_nod@V?$_Tmap_traits@KUDefenseList@ioDefenseController@@U?$less@K@std@@V?$allocator@U?$pair@$$CBKUDefenseList@ioDefenseController@@@std@@@4@$0A@@std@@@1@PBV?$_Tree_val@V?$_Tmap_traits@KUDefenseList@ioDefenseController@@U?$less@K@std@@V?$allocator@U?$pair@$$CBKUDefenseList@ioDefenseController@@@std@@@4@$0A@@std@@@1@@Z ; std::_Tree_const_iterator<std::_Tree_val<std::_Tmap_traits<unsigned long,ioDefenseController::DefenseList,std::less<unsigned long>,std::allocator<std::pair<unsigned long const ,ioDefenseController::DefenseList> >,0> > >::_Tree_const_iterator<std::_Tree_val<std::_Tmap_traits<unsigned long,ioDefenseController::DefenseList,std::less<unsigned long>,std::allocator<std::pair<unsigned long const ,ioDefenseController::DefenseList> >,0> > >
; Function compile flags: /Ogsp
; File c:\program files (x86)\microsoft visual studio 10.0\vc\include\xtree
;	COMDAT ??0?$_Tree_const_iterator@V?$_Tree_val@V?$_Tmap_traits@KUDefenseList@ioDefenseController@@U?$less@K@std@@V?$allocator@U?$pair@$$CBKUDefenseList@ioDefenseController@@@std@@@4@$0A@@std@@@std@@@std@@QAE@PAU_Node@?$_Tree_nod@V?$_Tmap_traits@KUDefenseList@ioDefenseController@@U?$less@K@std@@V?$allocator@U?$pair@$$CBKUDefenseList@ioDefenseController@@@std@@@4@$0A@@std@@@1@PBV?$_Tree_val@V?$_Tmap_traits@KUDefenseList@ioDefenseController@@U?$less@K@std@@V?$allocator@U?$pair@$$CBKUDefenseList@ioDefenseController@@@std@@@4@$0A@@std@@@1@@Z
_TEXT	SEGMENT
__Pnode$ = 8						; size = 4
__Plist$ = 12						; size = 4
??0?$_Tree_const_iterator@V?$_Tree_val@V?$_Tmap_traits@KUDefenseList@ioDefenseController@@U?$less@K@std@@V?$allocator@U?$pair@$$CBKUDefenseList@ioDefenseController@@@std@@@4@$0A@@std@@@std@@@std@@QAE@PAU_Node@?$_Tree_nod@V?$_Tmap_traits@KUDefenseList@ioDefenseController@@U?$less@K@std@@V?$allocator@U?$pair@$$CBKUDefenseList@ioDefenseController@@@std@@@4@$0A@@std@@@1@PBV?$_Tree_val@V?$_Tmap_traits@KUDefenseList@ioDefenseController@@U?$less@K@std@@V?$allocator@U?$pair@$$CBKUDefenseList@ioDefenseController@@@std@@@4@$0A@@std@@@1@@Z PROC ; std::_Tree_const_iterator<std::_Tree_val<std::_Tmap_traits<unsigned long,ioDefenseController::DefenseList,std::less<unsigned long>,std::allocator<std::pair<unsigned long const ,ioDefenseController::DefenseList> >,0> > >::_Tree_const_iterator<std::_Tree_val<std::_Tmap_traits<unsigned long,ioDefenseController::DefenseList,std::less<unsigned long>,std::allocator<std::pair<unsigned long const ,ioDefenseController::DefenseList> >,0> > >, COMDAT
; _this$ = ecx

; 213  : 		{	// construct with node pointer _Pnode

  00000	55		 push	 ebp
  00001	8b ec		 mov	 ebp, esp
  00003	8b c1		 mov	 eax, ecx
  00005	8b 4d 08	 mov	 ecx, DWORD PTR __Pnode$[ebp]
  00008	89 08		 mov	 DWORD PTR [eax], ecx

; 214  : 		}

  0000a	5d		 pop	 ebp
  0000b	c2 08 00	 ret	 8
??0?$_Tree_const_iterator@V?$_Tree_val@V?$_Tmap_traits@KUDefenseList@ioDefenseController@@U?$less@K@std@@V?$allocator@U?$pair@$$CBKUDefenseList@ioDefenseController@@@std@@@4@$0A@@std@@@std@@@std@@QAE@PAU_Node@?$_Tree_nod@V?$_Tmap_traits@KUDefenseList@ioDefenseController@@U?$less@K@std@@V?$allocator@U?$pair@$$CBKUDefenseList@ioDefenseController@@@std@@@4@$0A@@std@@@1@PBV?$_Tree_val@V?$_Tmap_traits@KUDefenseList@ioDefenseController@@U?$less@K@std@@V?$allocator@U?$pair@$$CBKUDefenseList@ioDefenseController@@@std@@@4@$0A@@std@@@1@@Z ENDP ; std::_Tree_const_iterator<std::_Tree_val<std::_Tmap_traits<unsigned long,ioDefenseController::DefenseList,std::less<unsigned long>,std::allocator<std::pair<unsigned long const ,ioDefenseController::DefenseList> >,0> > >::_Tree_const_iterator<std::_Tree_val<std::_Tmap_traits<unsigned long,ioDefenseController::DefenseList,std::less<unsigned long>,std::allocator<std::pair<unsigned long const ,ioDefenseController::DefenseList> >,0> > >
_TEXT	ENDS
PUBLIC	??E?$_Tree_unchecked_const_iterator@V?$_Tree_val@V?$_Tmap_traits@KUDefenseList@ioDefenseController@@U?$less@K@std@@V?$allocator@U?$pair@$$CBKUDefenseList@ioDefenseController@@@std@@@4@$0A@@std@@@std@@U_Iterator_base0@2@@std@@QAEAAV01@XZ ; std::_Tree_unchecked_const_iterator<std::_Tree_val<std::_Tmap_traits<unsigned long,ioDefenseController::DefenseList,std::less<unsigned long>,std::allocator<std::pair<unsigned long const ,ioDefenseController::DefenseList> >,0> >,std::_Iterator_base0>::operator++
; Function compile flags: /Ogsp
;	COMDAT ??E?$_Tree_unchecked_const_iterator@V?$_Tree_val@V?$_Tmap_traits@KUDefenseList@ioDefenseController@@U?$less@K@std@@V?$allocator@U?$pair@$$CBKUDefenseList@ioDefenseController@@@std@@@4@$0A@@std@@@std@@U_Iterator_base0@2@@std@@QAEAAV01@XZ
_TEXT	SEGMENT
??E?$_Tree_unchecked_const_iterator@V?$_Tree_val@V?$_Tmap_traits@KUDefenseList@ioDefenseController@@U?$less@K@std@@V?$allocator@U?$pair@$$CBKUDefenseList@ioDefenseController@@@std@@@4@$0A@@std@@@std@@U_Iterator_base0@2@@std@@QAEAAV01@XZ PROC ; std::_Tree_unchecked_const_iterator<std::_Tree_val<std::_Tmap_traits<unsigned long,ioDefenseController::DefenseList,std::less<unsigned long>,std::allocator<std::pair<unsigned long const ,ioDefenseController::DefenseList> >,0> >,std::_Iterator_base0>::operator++, COMDAT
; _this$ = ecx

; 58   : 		{	// preincrement

  00000	8b c1		 mov	 eax, ecx

; 59   : 		if (_Mytree::_Isnil(_Ptr))

  00002	8b 08		 mov	 ecx, DWORD PTR [eax]
  00004	53		 push	 ebx
  00005	32 db		 xor	 bl, bl
  00007	38 59 3d	 cmp	 BYTE PTR [ecx+61], bl
  0000a	75 2d		 jne	 SHORT $LN3@operator@2

; 60   : 			;	// end() shouldn't be incremented, don't move
; 61   : 		else if (!_Mytree::_Isnil(_Mytree::_Right(_Ptr)))

  0000c	8b 51 08	 mov	 edx, DWORD PTR [ecx+8]
  0000f	38 5a 3d	 cmp	 BYTE PTR [edx+61], bl
  00012	75 0d		 jne	 SHORT $LN34@operator@2

; 62   : 			_Ptr = _Mytree::_Min(
; 63   : 				_Mytree::_Right(_Ptr));	// ==> smallest of right subtree

$LL18@operator@2:
  00014	8b ca		 mov	 ecx, edx
  00016	8b 11		 mov	 edx, DWORD PTR [ecx]
  00018	38 5a 3d	 cmp	 BYTE PTR [edx+61], bl
  0001b	74 f7		 je	 SHORT $LL18@operator@2
  0001d	89 08		 mov	 DWORD PTR [eax], ecx
  0001f	5b		 pop	 ebx

; 71   : 			}
; 72   : 		return (*this);
; 73   : 		}

  00020	c3		 ret	 0
$LN34@operator@2:

; 64   : 		else
; 65   : 			{	// climb looking for right subtree
; 66   : 			_Nodeptr _Pnode;
; 67   : 			while (!_Mytree::_Isnil(_Pnode = _Mytree::_Parent(_Ptr))
; 68   : 				&& _Ptr == _Mytree::_Right(_Pnode))

  00021	8b 51 04	 mov	 edx, DWORD PTR [ecx+4]
  00024	eb 0c		 jmp	 SHORT $LN38@operator@2
$LL2@operator@2:
  00026	8b 08		 mov	 ecx, DWORD PTR [eax]
  00028	3b 4a 08	 cmp	 ecx, DWORD PTR [edx+8]
  0002b	75 0a		 jne	 SHORT $LN1@operator@2

; 69   : 				_Ptr = _Pnode;	// ==> parent while right subtree

  0002d	89 10		 mov	 DWORD PTR [eax], edx
  0002f	8b 52 04	 mov	 edx, DWORD PTR [edx+4]
$LN38@operator@2:

; 64   : 		else
; 65   : 			{	// climb looking for right subtree
; 66   : 			_Nodeptr _Pnode;
; 67   : 			while (!_Mytree::_Isnil(_Pnode = _Mytree::_Parent(_Ptr))
; 68   : 				&& _Ptr == _Mytree::_Right(_Pnode))

  00032	38 5a 3d	 cmp	 BYTE PTR [edx+61], bl
  00035	74 ef		 je	 SHORT $LL2@operator@2
$LN1@operator@2:

; 70   : 			_Ptr = _Pnode;	// ==> parent (head if end())

  00037	89 10		 mov	 DWORD PTR [eax], edx
$LN3@operator@2:
  00039	5b		 pop	 ebx

; 71   : 			}
; 72   : 		return (*this);
; 73   : 		}

  0003a	c3		 ret	 0
??E?$_Tree_unchecked_const_iterator@V?$_Tree_val@V?$_Tmap_traits@KUDefenseList@ioDefenseController@@U?$less@K@std@@V?$allocator@U?$pair@$$CBKUDefenseList@ioDefenseController@@@std@@@4@$0A@@std@@@std@@U_Iterator_base0@2@@std@@QAEAAV01@XZ ENDP ; std::_Tree_unchecked_const_iterator<std::_Tree_val<std::_Tmap_traits<unsigned long,ioDefenseController::DefenseList,std::less<unsigned long>,std::allocator<std::pair<unsigned long const ,ioDefenseController::DefenseList> >,0> >,std::_Iterator_base0>::operator++
_TEXT	ENDS
PUBLIC	??D?$_List_const_iterator@V?$_List_val@PAVioWeapon@@V?$allocator@PAVioWeapon@@@std@@@std@@@std@@QBEABQAVioWeapon@@XZ ; std::_List_const_iterator<std::_List_val<ioWeapon *,std::allocator<ioWeapon *> > >::operator*
; Function compile flags: /Ogsp
; File c:\program files (x86)\microsoft visual studio 10.0\vc\include\list
;	COMDAT ??D?$_List_const_iterator@V?$_List_val@PAVioWeapon@@V?$allocator@PAVioWeapon@@@std@@@std@@@std@@QBEABQAVioWeapon@@XZ
_TEXT	SEGMENT
??D?$_List_const_iterator@V?$_List_val@PAVioWeapon@@V?$allocator@PAVioWeapon@@@std@@@std@@@std@@QBEABQAVioWeapon@@XZ PROC ; std::_List_const_iterator<std::_List_val<ioWeapon *,std::allocator<ioWeapon *> > >::operator*, COMDAT
; _this$ = ecx

; 202  :  #if _ITERATOR_DEBUG_LEVEL == 2
; 203  : 		if (this->_Getcont() == 0
; 204  : 			|| this->_Ptr == 0
; 205  : 			|| this->_Ptr == ((_Mylist *)this->_Getcont())->_Myhead)
; 206  : 			{	// report error
; 207  : 			_DEBUG_ERROR("list iterator not dereferencable");
; 208  : 			_SCL_SECURE_OUT_OF_RANGE;
; 209  : 			}
; 210  : 
; 211  :  #elif _ITERATOR_DEBUG_LEVEL == 1
; 212  : 		_SCL_SECURE_VALIDATE(this->_Getcont() != 0 && this->_Ptr != 0);
; 213  : 		_SCL_SECURE_VALIDATE_RANGE(this->_Ptr !=
; 214  : 			((_Mylist *)this->_Getcont())->_Myhead);
; 215  :  #endif /* _ITERATOR_DEBUG_LEVEL */
; 216  : 
; 217  : 		return (_Mylist::_Myval(this->_Ptr));

  00000	8b 01		 mov	 eax, DWORD PTR [ecx]
  00002	83 c0 08	 add	 eax, 8

; 218  : 		}

  00005	c3		 ret	 0
??D?$_List_const_iterator@V?$_List_val@PAVioWeapon@@V?$allocator@PAVioWeapon@@@std@@@std@@@std@@QBEABQAVioWeapon@@XZ ENDP ; std::_List_const_iterator<std::_List_val<ioWeapon *,std::allocator<ioWeapon *> > >::operator*
_TEXT	ENDS
PUBLIC	?allocate@?$allocator@UDefenseData@ioDefenseController@@@std@@QAEPAUDefenseData@ioDefenseController@@I@Z ; std::allocator<ioDefenseController::DefenseData>::allocate
; Function compile flags: /Ogsp
; File c:\program files (x86)\microsoft visual studio 10.0\vc\include\xmemory
;	COMDAT ?allocate@?$allocator@UDefenseData@ioDefenseController@@@std@@QAEPAUDefenseData@ioDefenseController@@I@Z
_TEXT	SEGMENT
__Count$ = 8						; size = 4
?allocate@?$allocator@UDefenseData@ioDefenseController@@@std@@QAEPAUDefenseData@ioDefenseController@@I@Z PROC ; std::allocator<ioDefenseController::DefenseData>::allocate, COMDAT
; _this$ = ecx

; 186  : 		{	// allocate array of _Count elements

  00000	55		 push	 ebp
  00001	8b ec		 mov	 ebp, esp

; 187  : 		return (_Allocate(_Count, (pointer)0));

  00003	6a 00		 push	 0
  00005	ff 75 08	 push	 DWORD PTR __Count$[ebp]
  00008	e8 00 00 00 00	 call	 ??$_Allocate@UDefenseData@ioDefenseController@@@std@@YAPAUDefenseData@ioDefenseController@@IPAU12@@Z ; std::_Allocate<ioDefenseController::DefenseData>
  0000d	59		 pop	 ecx
  0000e	59		 pop	 ecx

; 188  : 		}

  0000f	5d		 pop	 ebp
  00010	c2 04 00	 ret	 4
?allocate@?$allocator@UDefenseData@ioDefenseController@@@std@@QAEPAUDefenseData@ioDefenseController@@I@Z ENDP ; std::allocator<ioDefenseController::DefenseData>::allocate
_TEXT	ENDS
PUBLIC	?_Root@?$_Tree@V?$_Tmap_traits@KUDefenseList@ioDefenseController@@U?$less@K@std@@V?$allocator@U?$pair@$$CBKUDefenseList@ioDefenseController@@@std@@@4@$0A@@std@@@std@@IBEAAPAU_Node@?$_Tree_nod@V?$_Tmap_traits@KUDefenseList@ioDefenseController@@U?$less@K@std@@V?$allocator@U?$pair@$$CBKUDefenseList@ioDefenseController@@@std@@@4@$0A@@std@@@2@XZ ; std::_Tree<std::_Tmap_traits<unsigned long,ioDefenseController::DefenseList,std::less<unsigned long>,std::allocator<std::pair<unsigned long const ,ioDefenseController::DefenseList> >,0> >::_Root
; Function compile flags: /Ogsp
; File c:\program files (x86)\microsoft visual studio 10.0\vc\include\xtree
;	COMDAT ?_Root@?$_Tree@V?$_Tmap_traits@KUDefenseList@ioDefenseController@@U?$less@K@std@@V?$allocator@U?$pair@$$CBKUDefenseList@ioDefenseController@@@std@@@4@$0A@@std@@@std@@IBEAAPAU_Node@?$_Tree_nod@V?$_Tmap_traits@KUDefenseList@ioDefenseController@@U?$less@K@std@@V?$allocator@U?$pair@$$CBKUDefenseList@ioDefenseController@@@std@@@4@$0A@@std@@@2@XZ
_TEXT	SEGMENT
?_Root@?$_Tree@V?$_Tmap_traits@KUDefenseList@ioDefenseController@@U?$less@K@std@@V?$allocator@U?$pair@$$CBKUDefenseList@ioDefenseController@@@std@@@4@$0A@@std@@@std@@IBEAAPAU_Node@?$_Tree_nod@V?$_Tmap_traits@KUDefenseList@ioDefenseController@@U?$less@K@std@@V?$allocator@U?$pair@$$CBKUDefenseList@ioDefenseController@@@std@@@4@$0A@@std@@@2@XZ PROC ; std::_Tree<std::_Tmap_traits<unsigned long,ioDefenseController::DefenseList,std::less<unsigned long>,std::allocator<std::pair<unsigned long const ,ioDefenseController::DefenseList> >,0> >::_Root, COMDAT
; _this$ = ecx

; 1789 : 		return (this->_Parent(this->_Myhead));

  00000	8b 41 04	 mov	 eax, DWORD PTR [ecx+4]
  00003	83 c0 04	 add	 eax, 4

; 1790 : 		}

  00006	c3		 ret	 0
?_Root@?$_Tree@V?$_Tmap_traits@KUDefenseList@ioDefenseController@@U?$less@K@std@@V?$allocator@U?$pair@$$CBKUDefenseList@ioDefenseController@@@std@@@4@$0A@@std@@@std@@IBEAAPAU_Node@?$_Tree_nod@V?$_Tmap_traits@KUDefenseList@ioDefenseController@@U?$less@K@std@@V?$allocator@U?$pair@$$CBKUDefenseList@ioDefenseController@@@std@@@4@$0A@@std@@@2@XZ ENDP ; std::_Tree<std::_Tmap_traits<unsigned long,ioDefenseController::DefenseList,std::less<unsigned long>,std::allocator<std::pair<unsigned long const ,ioDefenseController::DefenseList> >,0> >::_Root
_TEXT	ENDS
PUBLIC	??0?$_Tree_nod@V?$_Tmap_traits@KUDefenseList@ioDefenseController@@U?$less@K@std@@V?$allocator@U?$pair@$$CBKUDefenseList@ioDefenseController@@@std@@@4@$0A@@std@@@std@@QAE@ABU?$less@K@1@V?$allocator@U?$pair@$$CBKUDefenseList@ioDefenseController@@@std@@@1@@Z ; std::_Tree_nod<std::_Tmap_traits<unsigned long,ioDefenseController::DefenseList,std::less<unsigned long>,std::allocator<std::pair<unsigned long const ,ioDefenseController::DefenseList> >,0> >::_Tree_nod<std::_Tmap_traits<unsigned long,ioDefenseController::DefenseList,std::less<unsigned long>,std::allocator<std::pair<unsigned long const ,ioDefenseController::DefenseList> >,0> >
; Function compile flags: /Ogsp
;	COMDAT ??0?$_Tree_nod@V?$_Tmap_traits@KUDefenseList@ioDefenseController@@U?$less@K@std@@V?$allocator@U?$pair@$$CBKUDefenseList@ioDefenseController@@@std@@@4@$0A@@std@@@std@@QAE@ABU?$less@K@1@V?$allocator@U?$pair@$$CBKUDefenseList@ioDefenseController@@@std@@@1@@Z
_TEXT	SEGMENT
__Parg$ = 8						; size = 4
__Al$ = 12						; size = 1
??0?$_Tree_nod@V?$_Tmap_traits@KUDefenseList@ioDefenseController@@U?$less@K@std@@V?$allocator@U?$pair@$$CBKUDefenseList@ioDefenseController@@@std@@@4@$0A@@std@@@std@@QAE@ABU?$less@K@1@V?$allocator@U?$pair@$$CBKUDefenseList@ioDefenseController@@@std@@@1@@Z PROC ; std::_Tree_nod<std::_Tmap_traits<unsigned long,ioDefenseController::DefenseList,std::less<unsigned long>,std::allocator<std::pair<unsigned long const ,ioDefenseController::DefenseList> >,0> >::_Tree_nod<std::_Tmap_traits<unsigned long,ioDefenseController::DefenseList,std::less<unsigned long>,std::allocator<std::pair<unsigned long const ,ioDefenseController::DefenseList> >,0> >, COMDAT
; _this$ = ecx

; 482  : 		{	// construct traits from _Parg and allocators from _Al

  00000	8b c1		 mov	 eax, ecx

; 483  : 		}

  00002	c2 08 00	 ret	 8
??0?$_Tree_nod@V?$_Tmap_traits@KUDefenseList@ioDefenseController@@U?$less@K@std@@V?$allocator@U?$pair@$$CBKUDefenseList@ioDefenseController@@@std@@@4@$0A@@std@@@std@@QAE@ABU?$less@K@1@V?$allocator@U?$pair@$$CBKUDefenseList@ioDefenseController@@@std@@@1@@Z ENDP ; std::_Tree_nod<std::_Tmap_traits<unsigned long,ioDefenseController::DefenseList,std::less<unsigned long>,std::allocator<std::pair<unsigned long const ,ioDefenseController::DefenseList> >,0> >::_Tree_nod<std::_Tmap_traits<unsigned long,ioDefenseController::DefenseList,std::less<unsigned long>,std::allocator<std::pair<unsigned long const ,ioDefenseController::DefenseList> >,0> >
_TEXT	ENDS
PUBLIC	?allocate@?$allocator@U_Node@?$_Tree_nod@V?$_Tmap_traits@KUDefenseList@ioDefenseController@@U?$less@K@std@@V?$allocator@U?$pair@$$CBKUDefenseList@ioDefenseController@@@std@@@4@$0A@@std@@@std@@@std@@QAEPAU_Node@?$_Tree_nod@V?$_Tmap_traits@KUDefenseList@ioDefenseController@@U?$less@K@std@@V?$allocator@U?$pair@$$CBKUDefenseList@ioDefenseController@@@std@@@4@$0A@@std@@@2@I@Z ; std::allocator<std::_Tree_nod<std::_Tmap_traits<unsigned long,ioDefenseController::DefenseList,std::less<unsigned long>,std::allocator<std::pair<unsigned long const ,ioDefenseController::DefenseList> >,0> >::_Node>::allocate
; Function compile flags: /Ogsp
; File c:\program files (x86)\microsoft visual studio 10.0\vc\include\xmemory
;	COMDAT ?allocate@?$allocator@U_Node@?$_Tree_nod@V?$_Tmap_traits@KUDefenseList@ioDefenseController@@U?$less@K@std@@V?$allocator@U?$pair@$$CBKUDefenseList@ioDefenseController@@@std@@@4@$0A@@std@@@std@@@std@@QAEPAU_Node@?$_Tree_nod@V?$_Tmap_traits@KUDefenseList@ioDefenseController@@U?$less@K@std@@V?$allocator@U?$pair@$$CBKUDefenseList@ioDefenseController@@@std@@@4@$0A@@std@@@2@I@Z
_TEXT	SEGMENT
__Count$ = 8						; size = 4
?allocate@?$allocator@U_Node@?$_Tree_nod@V?$_Tmap_traits@KUDefenseList@ioDefenseController@@U?$less@K@std@@V?$allocator@U?$pair@$$CBKUDefenseList@ioDefenseController@@@std@@@4@$0A@@std@@@std@@@std@@QAEPAU_Node@?$_Tree_nod@V?$_Tmap_traits@KUDefenseList@ioDefenseController@@U?$less@K@std@@V?$allocator@U?$pair@$$CBKUDefenseList@ioDefenseController@@@std@@@4@$0A@@std@@@2@I@Z PROC ; std::allocator<std::_Tree_nod<std::_Tmap_traits<unsigned long,ioDefenseController::DefenseList,std::less<unsigned long>,std::allocator<std::pair<unsigned long const ,ioDefenseController::DefenseList> >,0> >::_Node>::allocate, COMDAT
; _this$ = ecx

; 186  : 		{	// allocate array of _Count elements

  00000	55		 push	 ebp
  00001	8b ec		 mov	 ebp, esp

; 187  : 		return (_Allocate(_Count, (pointer)0));

  00003	6a 00		 push	 0
  00005	ff 75 08	 push	 DWORD PTR __Count$[ebp]
  00008	e8 00 00 00 00	 call	 ??$_Allocate@U_Node@?$_Tree_nod@V?$_Tmap_traits@KUDefenseList@ioDefenseController@@U?$less@K@std@@V?$allocator@U?$pair@$$CBKUDefenseList@ioDefenseController@@@std@@@4@$0A@@std@@@std@@@std@@YAPAU_Node@?$_Tree_nod@V?$_Tmap_traits@KUDefenseList@ioDefenseController@@U?$less@K@std@@V?$allocator@U?$pair@$$CBKUDefenseList@ioDefenseController@@@std@@@4@$0A@@std@@@0@IPAU120@@Z ; std::_Allocate<std::_Tree_nod<std::_Tmap_traits<unsigned long,ioDefenseController::DefenseList,std::less<unsigned long>,std::allocator<std::pair<unsigned long const ,ioDefenseController::DefenseList> >,0> >::_Node>
  0000d	59		 pop	 ecx
  0000e	59		 pop	 ecx

; 188  : 		}

  0000f	5d		 pop	 ebp
  00010	c2 04 00	 ret	 4
?allocate@?$allocator@U_Node@?$_Tree_nod@V?$_Tmap_traits@KUDefenseList@ioDefenseController@@U?$less@K@std@@V?$allocator@U?$pair@$$CBKUDefenseList@ioDefenseController@@@std@@@4@$0A@@std@@@std@@@std@@QAEPAU_Node@?$_Tree_nod@V?$_Tmap_traits@KUDefenseList@ioDefenseController@@U?$less@K@std@@V?$allocator@U?$pair@$$CBKUDefenseList@ioDefenseController@@@std@@@4@$0A@@std@@@2@I@Z ENDP ; std::allocator<std::_Tree_nod<std::_Tmap_traits<unsigned long,ioDefenseController::DefenseList,std::less<unsigned long>,std::allocator<std::pair<unsigned long const ,ioDefenseController::DefenseList> >,0> >::_Node>::allocate
_TEXT	ENDS
PUBLIC	??E?$_List_const_iterator@V?$_List_val@PAVioWeapon@@V?$allocator@PAVioWeapon@@@std@@@std@@@std@@QAEAAV01@XZ ; std::_List_const_iterator<std::_List_val<ioWeapon *,std::allocator<ioWeapon *> > >::operator++
; Function compile flags: /Ogsp
; File c:\program files (x86)\microsoft visual studio 10.0\vc\include\list
;	COMDAT ??E?$_List_const_iterator@V?$_List_val@PAVioWeapon@@V?$allocator@PAVioWeapon@@@std@@@std@@@std@@QAEAAV01@XZ
_TEXT	SEGMENT
??E?$_List_const_iterator@V?$_List_val@PAVioWeapon@@V?$allocator@PAVioWeapon@@@std@@@std@@@std@@QAEAAV01@XZ PROC ; std::_List_const_iterator<std::_List_val<ioWeapon *,std::allocator<ioWeapon *> > >::operator++, COMDAT
; _this$ = ecx

; 221  : 		{	// preincrement

  00000	8b c1		 mov	 eax, ecx

; 222  :  #if _ITERATOR_DEBUG_LEVEL == 2
; 223  : 		if (this->_Getcont() == 0
; 224  : 			|| this->_Ptr == 0
; 225  : 			|| this->_Ptr == ((_Mylist *)this->_Getcont())->_Myhead)
; 226  : 			{	// report error
; 227  : 			_DEBUG_ERROR("list iterator not incrementable");
; 228  : 			_SCL_SECURE_OUT_OF_RANGE;
; 229  : 			}
; 230  : 
; 231  :  #elif _ITERATOR_DEBUG_LEVEL == 1
; 232  : 		_SCL_SECURE_VALIDATE(this->_Getcont() != 0 && this->_Ptr != 0);
; 233  : 		_SCL_SECURE_VALIDATE_RANGE(this->_Ptr !=
; 234  : 			((_Mylist *)this->_Getcont())->_Myhead);
; 235  :  #endif /* _ITERATOR_DEBUG_LEVEL */
; 236  : 
; 237  : 		this->_Ptr = _Mylist::_Nextnode(this->_Ptr);

  00002	8b 08		 mov	 ecx, DWORD PTR [eax]
  00004	8b 09		 mov	 ecx, DWORD PTR [ecx]
  00006	89 08		 mov	 DWORD PTR [eax], ecx

; 238  : 		return (*this);
; 239  : 		}

  00008	c3		 ret	 0
??E?$_List_const_iterator@V?$_List_val@PAVioWeapon@@V?$allocator@PAVioWeapon@@@std@@@std@@@std@@QAEAAV01@XZ ENDP ; std::_List_const_iterator<std::_List_val<ioWeapon *,std::allocator<ioWeapon *> > >::operator++
_TEXT	ENDS
PUBLIC	??8?$_Vector_const_iterator@V?$_Vector_val@UDefenseData@ioDefenseController@@V?$allocator@UDefenseData@ioDefenseController@@@std@@@std@@@std@@QBE_NABV01@@Z ; std::_Vector_const_iterator<std::_Vector_val<ioDefenseController::DefenseData,std::allocator<ioDefenseController::DefenseData> > >::operator==
; Function compile flags: /Ogsp
; File c:\program files (x86)\microsoft visual studio 10.0\vc\include\vector
;	COMDAT ??8?$_Vector_const_iterator@V?$_Vector_val@UDefenseData@ioDefenseController@@V?$allocator@UDefenseData@ioDefenseController@@@std@@@std@@@std@@QBE_NABV01@@Z
_TEXT	SEGMENT
__Right$ = 8						; size = 4
??8?$_Vector_const_iterator@V?$_Vector_val@UDefenseData@ioDefenseController@@V?$allocator@UDefenseData@ioDefenseController@@@std@@@std@@@std@@QBE_NABV01@@Z PROC ; std::_Vector_const_iterator<std::_Vector_val<ioDefenseController::DefenseData,std::allocator<ioDefenseController::DefenseData> > >::operator==, COMDAT
; _this$ = ecx

; 201  : 		{	// test for iterator equality

  00000	55		 push	 ebp
  00001	8b ec		 mov	 ebp, esp

; 202  : 		_Compat(_Right);
; 203  : 		return (this->_Ptr == _Right._Ptr);

  00003	8b 01		 mov	 eax, DWORD PTR [ecx]
  00005	8b 4d 08	 mov	 ecx, DWORD PTR __Right$[ebp]
  00008	2b 01		 sub	 eax, DWORD PTR [ecx]
  0000a	f7 d8		 neg	 eax
  0000c	1b c0		 sbb	 eax, eax
  0000e	40		 inc	 eax

; 204  : 		}

  0000f	5d		 pop	 ebp
  00010	c2 04 00	 ret	 4
??8?$_Vector_const_iterator@V?$_Vector_val@UDefenseData@ioDefenseController@@V?$allocator@UDefenseData@ioDefenseController@@@std@@@std@@@std@@QBE_NABV01@@Z ENDP ; std::_Vector_const_iterator<std::_Vector_val<ioDefenseController::DefenseData,std::allocator<ioDefenseController::DefenseData> > >::operator==
_TEXT	ENDS
PUBLIC	?_Lrotate@?$_Tree@V?$_Tmap_traits@KUDefenseList@ioDefenseController@@U?$less@K@std@@V?$allocator@U?$pair@$$CBKUDefenseList@ioDefenseController@@@std@@@4@$0A@@std@@@std@@IAEXPAU_Node@?$_Tree_nod@V?$_Tmap_traits@KUDefenseList@ioDefenseController@@U?$less@K@std@@V?$allocator@U?$pair@$$CBKUDefenseList@ioDefenseController@@@std@@@4@$0A@@std@@@2@@Z ; std::_Tree<std::_Tmap_traits<unsigned long,ioDefenseController::DefenseList,std::less<unsigned long>,std::allocator<std::pair<unsigned long const ,ioDefenseController::DefenseList> >,0> >::_Lrotate
; Function compile flags: /Ogsp
; File c:\program files (x86)\microsoft visual studio 10.0\vc\include\xtree
;	COMDAT ?_Lrotate@?$_Tree@V?$_Tmap_traits@KUDefenseList@ioDefenseController@@U?$less@K@std@@V?$allocator@U?$pair@$$CBKUDefenseList@ioDefenseController@@@std@@@4@$0A@@std@@@std@@IAEXPAU_Node@?$_Tree_nod@V?$_Tmap_traits@KUDefenseList@ioDefenseController@@U?$less@K@std@@V?$allocator@U?$pair@$$CBKUDefenseList@ioDefenseController@@@std@@@4@$0A@@std@@@2@@Z
_TEXT	SEGMENT
__Wherenode$ = 8					; size = 4
?_Lrotate@?$_Tree@V?$_Tmap_traits@KUDefenseList@ioDefenseController@@U?$less@K@std@@V?$allocator@U?$pair@$$CBKUDefenseList@ioDefenseController@@@std@@@4@$0A@@std@@@std@@IAEXPAU_Node@?$_Tree_nod@V?$_Tmap_traits@KUDefenseList@ioDefenseController@@U?$less@K@std@@V?$allocator@U?$pair@$$CBKUDefenseList@ioDefenseController@@@std@@@4@$0A@@std@@@2@@Z PROC ; std::_Tree<std::_Tmap_traits<unsigned long,ioDefenseController::DefenseList,std::less<unsigned long>,std::allocator<std::pair<unsigned long const ,ioDefenseController::DefenseList> >,0> >::_Lrotate, COMDAT
; _this$ = ecx

; 1763 : 		{	// promote right node to root of subtree

  00000	55		 push	 ebp
  00001	8b ec		 mov	 ebp, esp

; 1764 : 		_Nodeptr _Pnode = this->_Right(_Wherenode);

  00003	8b 55 08	 mov	 edx, DWORD PTR __Wherenode$[ebp]
  00006	8b 42 08	 mov	 eax, DWORD PTR [edx+8]
  00009	56		 push	 esi

; 1765 : 		this->_Right(_Wherenode) = this->_Left(_Pnode);

  0000a	8b 30		 mov	 esi, DWORD PTR [eax]
  0000c	89 72 08	 mov	 DWORD PTR [edx+8], esi

; 1766 : 
; 1767 : 		if (!this->_Isnil(this->_Left(_Pnode)))

  0000f	8b 30		 mov	 esi, DWORD PTR [eax]
  00011	80 7e 3d 00	 cmp	 BYTE PTR [esi+61], 0
  00015	75 03		 jne	 SHORT $LN5@Lrotate

; 1768 : 			this->_Parent(this->_Left(_Pnode)) = _Wherenode;

  00017	89 56 04	 mov	 DWORD PTR [esi+4], edx
$LN5@Lrotate:

; 1769 : 		this->_Parent(_Pnode) = this->_Parent(_Wherenode);

  0001a	8b 72 04	 mov	 esi, DWORD PTR [edx+4]
  0001d	89 70 04	 mov	 DWORD PTR [eax+4], esi

; 1770 : 
; 1771 : 		if (_Wherenode == _Root())

  00020	8b 49 04	 mov	 ecx, DWORD PTR [ecx+4]
  00023	5e		 pop	 esi
  00024	3b 51 04	 cmp	 edx, DWORD PTR [ecx+4]
  00027	75 05		 jne	 SHORT $LN4@Lrotate

; 1772 : 			_Root() = _Pnode;

  00029	89 41 04	 mov	 DWORD PTR [ecx+4], eax

; 1773 : 		else if (_Wherenode == this->_Left(this->_Parent(_Wherenode)))

  0002c	eb 0e		 jmp	 SHORT $LN1@Lrotate
$LN4@Lrotate:
  0002e	8b 4a 04	 mov	 ecx, DWORD PTR [edx+4]
  00031	3b 11		 cmp	 edx, DWORD PTR [ecx]
  00033	75 04		 jne	 SHORT $LN2@Lrotate

; 1774 : 			this->_Left(this->_Parent(_Wherenode)) = _Pnode;

  00035	89 01		 mov	 DWORD PTR [ecx], eax

; 1775 : 		else

  00037	eb 03		 jmp	 SHORT $LN1@Lrotate
$LN2@Lrotate:

; 1776 : 			this->_Right(this->_Parent(_Wherenode)) = _Pnode;

  00039	89 41 08	 mov	 DWORD PTR [ecx+8], eax
$LN1@Lrotate:

; 1777 : 
; 1778 : 		this->_Left(_Pnode) = _Wherenode;

  0003c	89 10		 mov	 DWORD PTR [eax], edx

; 1779 : 		this->_Parent(_Wherenode) = _Pnode;

  0003e	89 42 04	 mov	 DWORD PTR [edx+4], eax

; 1780 : 		}

  00041	5d		 pop	 ebp
  00042	c2 04 00	 ret	 4
?_Lrotate@?$_Tree@V?$_Tmap_traits@KUDefenseList@ioDefenseController@@U?$less@K@std@@V?$allocator@U?$pair@$$CBKUDefenseList@ioDefenseController@@@std@@@4@$0A@@std@@@std@@IAEXPAU_Node@?$_Tree_nod@V?$_Tmap_traits@KUDefenseList@ioDefenseController@@U?$less@K@std@@V?$allocator@U?$pair@$$CBKUDefenseList@ioDefenseController@@@std@@@4@$0A@@std@@@2@@Z ENDP ; std::_Tree<std::_Tmap_traits<unsigned long,ioDefenseController::DefenseList,std::less<unsigned long>,std::allocator<std::pair<unsigned long const ,ioDefenseController::DefenseList> >,0> >::_Lrotate
_TEXT	ENDS
PUBLIC	?_Rrotate@?$_Tree@V?$_Tmap_traits@KUDefenseList@ioDefenseController@@U?$less@K@std@@V?$allocator@U?$pair@$$CBKUDefenseList@ioDefenseController@@@std@@@4@$0A@@std@@@std@@IAEXPAU_Node@?$_Tree_nod@V?$_Tmap_traits@KUDefenseList@ioDefenseController@@U?$less@K@std@@V?$allocator@U?$pair@$$CBKUDefenseList@ioDefenseController@@@std@@@4@$0A@@std@@@2@@Z ; std::_Tree<std::_Tmap_traits<unsigned long,ioDefenseController::DefenseList,std::less<unsigned long>,std::allocator<std::pair<unsigned long const ,ioDefenseController::DefenseList> >,0> >::_Rrotate
; Function compile flags: /Ogsp
;	COMDAT ?_Rrotate@?$_Tree@V?$_Tmap_traits@KUDefenseList@ioDefenseController@@U?$less@K@std@@V?$allocator@U?$pair@$$CBKUDefenseList@ioDefenseController@@@std@@@4@$0A@@std@@@std@@IAEXPAU_Node@?$_Tree_nod@V?$_Tmap_traits@KUDefenseList@ioDefenseController@@U?$less@K@std@@V?$allocator@U?$pair@$$CBKUDefenseList@ioDefenseController@@@std@@@4@$0A@@std@@@2@@Z
_TEXT	SEGMENT
__Wherenode$ = 8					; size = 4
?_Rrotate@?$_Tree@V?$_Tmap_traits@KUDefenseList@ioDefenseController@@U?$less@K@std@@V?$allocator@U?$pair@$$CBKUDefenseList@ioDefenseController@@@std@@@4@$0A@@std@@@std@@IAEXPAU_Node@?$_Tree_nod@V?$_Tmap_traits@KUDefenseList@ioDefenseController@@U?$less@K@std@@V?$allocator@U?$pair@$$CBKUDefenseList@ioDefenseController@@@std@@@4@$0A@@std@@@2@@Z PROC ; std::_Tree<std::_Tmap_traits<unsigned long,ioDefenseController::DefenseList,std::less<unsigned long>,std::allocator<std::pair<unsigned long const ,ioDefenseController::DefenseList> >,0> >::_Rrotate, COMDAT
; _this$ = ecx

; 1793 : 		{	// promote left node to root of subtree

  00000	55		 push	 ebp
  00001	8b ec		 mov	 ebp, esp

; 1794 : 		_Nodeptr _Pnode = this->_Left(_Wherenode);

  00003	8b 55 08	 mov	 edx, DWORD PTR __Wherenode$[ebp]
  00006	8b 02		 mov	 eax, DWORD PTR [edx]
  00008	56		 push	 esi

; 1795 : 		this->_Left(_Wherenode) = this->_Right(_Pnode);

  00009	8b 70 08	 mov	 esi, DWORD PTR [eax+8]
  0000c	89 32		 mov	 DWORD PTR [edx], esi

; 1796 : 
; 1797 : 		if (!this->_Isnil(this->_Right(_Pnode)))

  0000e	8b 70 08	 mov	 esi, DWORD PTR [eax+8]
  00011	80 7e 3d 00	 cmp	 BYTE PTR [esi+61], 0
  00015	75 03		 jne	 SHORT $LN5@Rrotate

; 1798 : 			this->_Parent(this->_Right(_Pnode)) = _Wherenode;

  00017	89 56 04	 mov	 DWORD PTR [esi+4], edx
$LN5@Rrotate:

; 1799 : 		this->_Parent(_Pnode) = this->_Parent(_Wherenode);

  0001a	8b 72 04	 mov	 esi, DWORD PTR [edx+4]
  0001d	89 70 04	 mov	 DWORD PTR [eax+4], esi

; 1800 : 
; 1801 : 		if (_Wherenode == _Root())

  00020	8b 49 04	 mov	 ecx, DWORD PTR [ecx+4]
  00023	5e		 pop	 esi
  00024	3b 51 04	 cmp	 edx, DWORD PTR [ecx+4]
  00027	75 05		 jne	 SHORT $LN4@Rrotate

; 1802 : 			_Root() = _Pnode;

  00029	89 41 04	 mov	 DWORD PTR [ecx+4], eax

; 1803 : 		else if (_Wherenode == this->_Right(this->_Parent(_Wherenode)))

  0002c	eb 0f		 jmp	 SHORT $LN1@Rrotate
$LN4@Rrotate:
  0002e	8b 4a 04	 mov	 ecx, DWORD PTR [edx+4]
  00031	3b 51 08	 cmp	 edx, DWORD PTR [ecx+8]
  00034	75 05		 jne	 SHORT $LN2@Rrotate

; 1804 : 			this->_Right(this->_Parent(_Wherenode)) = _Pnode;

  00036	89 41 08	 mov	 DWORD PTR [ecx+8], eax

; 1805 : 		else

  00039	eb 02		 jmp	 SHORT $LN1@Rrotate
$LN2@Rrotate:

; 1806 : 			this->_Left(this->_Parent(_Wherenode)) = _Pnode;

  0003b	89 01		 mov	 DWORD PTR [ecx], eax
$LN1@Rrotate:

; 1807 : 
; 1808 : 		this->_Right(_Pnode) = _Wherenode;

  0003d	89 50 08	 mov	 DWORD PTR [eax+8], edx

; 1809 : 		this->_Parent(_Wherenode) = _Pnode;

  00040	89 42 04	 mov	 DWORD PTR [edx+4], eax

; 1810 : 		}

  00043	5d		 pop	 ebp
  00044	c2 04 00	 ret	 4
?_Rrotate@?$_Tree@V?$_Tmap_traits@KUDefenseList@ioDefenseController@@U?$less@K@std@@V?$allocator@U?$pair@$$CBKUDefenseList@ioDefenseController@@@std@@@4@$0A@@std@@@std@@IAEXPAU_Node@?$_Tree_nod@V?$_Tmap_traits@KUDefenseList@ioDefenseController@@U?$less@K@std@@V?$allocator@U?$pair@$$CBKUDefenseList@ioDefenseController@@@std@@@4@$0A@@std@@@2@@Z ENDP ; std::_Tree<std::_Tmap_traits<unsigned long,ioDefenseController::DefenseList,std::less<unsigned long>,std::allocator<std::pair<unsigned long const ,ioDefenseController::DefenseList> >,0> >::_Rrotate
_TEXT	ENDS
PUBLIC	__$ArrayPad$
PUBLIC	??$SetTitle_e@$0BC@@ioINILoader@@QAEXAAY0BC@$$CBD@Z ; ioINILoader::SetTitle_e<18>
EXTRN	__imp_?SetTitle@ioINILoader@@QAEXPBD@Z:PROC
EXTRN	___security_cookie:DWORD
EXTRN	@__security_check_cookie@4:PROC
; Function compile flags: /Ogsp
; File d:\lost saga for developer\youtube\tutorial\source\src\io3dengine\ioiniloader.h
;	COMDAT ??$SetTitle_e@$0BC@@ioINILoader@@QAEXAAY0BC@$$CBD@Z
_TEXT	SEGMENT
__t$ = -28						; size = 18
__$ArrayPad$ = -4					; size = 4
_t$ = 8							; size = 4
??$SetTitle_e@$0BC@@ioINILoader@@QAEXAAY0BC@$$CBD@Z PROC ; ioINILoader::SetTitle_e<18>, COMDAT
; _this$ = ecx

; 188  : 	{

  00000	55		 push	 ebp
  00001	8b ec		 mov	 ebp, esp
  00003	83 ec 1c	 sub	 esp, 28			; 0000001cH
  00006	a1 00 00 00 00	 mov	 eax, DWORD PTR ___security_cookie
  0000b	33 c5		 xor	 eax, ebp
  0000d	89 45 fc	 mov	 DWORD PTR __$ArrayPad$[ebp], eax
  00010	8b 45 08	 mov	 eax, DWORD PTR _t$[ebp]

; 189  : 		_ENCSTR(t, _t);

  00013	8a 10		 mov	 dl, BYTE PTR [eax]
  00015	56		 push	 esi
  00016	8b f1		 mov	 esi, ecx
  00018	84 d2		 test	 dl, dl
  0001a	0f 84 be 01 00
	00		 je	 $LN96@SetTitle_e
  00020	80 f2 ed	 xor	 dl, -19			; ffffffedH
  00023	88 55 e4	 mov	 BYTE PTR __t$[ebp], dl
  00026	8a 50 01	 mov	 dl, BYTE PTR [eax+1]
  00029	84 d2		 test	 dl, dl
  0002b	0f 84 a7 01 00
	00		 je	 $LN95@SetTitle_e
  00031	80 f2 ec	 xor	 dl, -20			; ffffffecH
  00034	88 55 e5	 mov	 BYTE PTR __t$[ebp+1], dl
  00037	8a 50 02	 mov	 dl, BYTE PTR [eax+2]
  0003a	84 d2		 test	 dl, dl
  0003c	0f 84 90 01 00
	00		 je	 $LN94@SetTitle_e
  00042	b1 eb		 mov	 cl, -21			; ffffffebH
  00044	32 d1		 xor	 dl, cl
  00046	88 55 e6	 mov	 BYTE PTR __t$[ebp+2], dl
  00049	8a 50 03	 mov	 dl, BYTE PTR [eax+3]
  0004c	84 d2		 test	 dl, dl
  0004e	0f 84 78 01 00
	00		 je	 $LN93@SetTitle_e
  00054	80 f2 ea	 xor	 dl, -22			; ffffffeaH
  00057	88 55 e7	 mov	 BYTE PTR __t$[ebp+3], dl
  0005a	8a 50 04	 mov	 dl, BYTE PTR [eax+4]
  0005d	84 d2		 test	 dl, dl
  0005f	0f 84 61 01 00
	00		 je	 $LN92@SetTitle_e
  00065	80 f2 ed	 xor	 dl, -19			; ffffffedH
  00068	88 55 e8	 mov	 BYTE PTR __t$[ebp+4], dl
  0006b	8a 50 05	 mov	 dl, BYTE PTR [eax+5]
  0006e	84 d2		 test	 dl, dl
  00070	0f 84 4a 01 00
	00		 je	 $LN91@SetTitle_e
  00076	80 f2 ec	 xor	 dl, -20			; ffffffecH
  00079	88 55 e9	 mov	 BYTE PTR __t$[ebp+5], dl
  0007c	8a 50 06	 mov	 dl, BYTE PTR [eax+6]
  0007f	84 d2		 test	 dl, dl
  00081	0f 84 34 01 00
	00		 je	 $LN90@SetTitle_e
  00087	32 d1		 xor	 dl, cl
  00089	88 55 ea	 mov	 BYTE PTR __t$[ebp+6], dl
  0008c	8a 50 07	 mov	 dl, BYTE PTR [eax+7]
  0008f	84 d2		 test	 dl, dl
  00091	0f 84 1e 01 00
	00		 je	 $LN89@SetTitle_e
  00097	80 f2 ea	 xor	 dl, -22			; ffffffeaH
  0009a	88 55 eb	 mov	 BYTE PTR __t$[ebp+7], dl
  0009d	8a 50 08	 mov	 dl, BYTE PTR [eax+8]
  000a0	84 d2		 test	 dl, dl
  000a2	0f 84 07 01 00
	00		 je	 $LN88@SetTitle_e
  000a8	80 f2 ed	 xor	 dl, -19			; ffffffedH
  000ab	88 55 ec	 mov	 BYTE PTR __t$[ebp+8], dl
  000ae	8a 50 09	 mov	 dl, BYTE PTR [eax+9]
  000b1	84 d2		 test	 dl, dl
  000b3	0f 84 f0 00 00
	00		 je	 $LN87@SetTitle_e
  000b9	80 f2 ec	 xor	 dl, -20			; ffffffecH
  000bc	88 55 ed	 mov	 BYTE PTR __t$[ebp+9], dl
  000bf	8a 50 0a	 mov	 dl, BYTE PTR [eax+10]
  000c2	84 d2		 test	 dl, dl
  000c4	0f 84 da 00 00
	00		 je	 $LN86@SetTitle_e
  000ca	32 d1		 xor	 dl, cl
  000cc	88 55 ee	 mov	 BYTE PTR __t$[ebp+10], dl
  000cf	8a 50 0b	 mov	 dl, BYTE PTR [eax+11]
  000d2	84 d2		 test	 dl, dl
  000d4	0f 84 c4 00 00
	00		 je	 $LN85@SetTitle_e
  000da	80 f2 ea	 xor	 dl, -22			; ffffffeaH
  000dd	88 55 ef	 mov	 BYTE PTR __t$[ebp+11], dl
  000e0	8a 50 0c	 mov	 dl, BYTE PTR [eax+12]
  000e3	84 d2		 test	 dl, dl
  000e5	0f 84 ad 00 00
	00		 je	 $LN84@SetTitle_e
  000eb	80 f2 ed	 xor	 dl, -19			; ffffffedH
  000ee	88 55 f0	 mov	 BYTE PTR __t$[ebp+12], dl
  000f1	8a 50 0d	 mov	 dl, BYTE PTR [eax+13]
  000f4	84 d2		 test	 dl, dl
  000f6	0f 84 96 00 00
	00		 je	 $LN83@SetTitle_e
  000fc	80 f2 ec	 xor	 dl, -20			; ffffffecH
  000ff	88 55 f1	 mov	 BYTE PTR __t$[ebp+13], dl
  00102	8a 50 0e	 mov	 dl, BYTE PTR [eax+14]
  00105	84 d2		 test	 dl, dl
  00107	0f 84 80 00 00
	00		 je	 $LN82@SetTitle_e
  0010d	32 d1		 xor	 dl, cl
  0010f	88 55 f2	 mov	 BYTE PTR __t$[ebp+14], dl
  00112	8a 50 0f	 mov	 dl, BYTE PTR [eax+15]
  00115	84 d2		 test	 dl, dl
  00117	74 6e		 je	 SHORT $LN81@SetTitle_e
  00119	80 f2 ea	 xor	 dl, -22			; ffffffeaH
  0011c	88 55 f3	 mov	 BYTE PTR __t$[ebp+15], dl
  0011f	8a 50 10	 mov	 dl, BYTE PTR [eax+16]
  00122	84 d2		 test	 dl, dl
  00124	74 5b		 je	 SHORT $LN80@SetTitle_e
  00126	80 f2 ed	 xor	 dl, -19			; ffffffedH
  00129	80 78 11 00	 cmp	 BYTE PTR [eax+17], 0
  0012d	88 55 f4	 mov	 BYTE PTR __t$[ebp+16], dl
  00130	0f 84 ac 00 00
	00		 je	 $LN1@SetTitle_e
  00136	8a 50 12	 mov	 dl, BYTE PTR [eax+18]
  00139	84 d2		 test	 dl, dl
  0013b	74 3f		 je	 SHORT $LN78@SetTitle_e
  0013d	32 d1		 xor	 dl, cl
  0013f	88 55 f6	 mov	 BYTE PTR __t$[ebp+18], dl
  00142	8a 50 13	 mov	 dl, BYTE PTR [eax+19]
  00145	84 d2		 test	 dl, dl
  00147	74 2d		 je	 SHORT $LN77@SetTitle_e
  00149	80 f2 ea	 xor	 dl, -22			; ffffffeaH
  0014c	88 55 f7	 mov	 BYTE PTR __t$[ebp+19], dl
  0014f	8a 50 14	 mov	 dl, BYTE PTR [eax+20]
  00152	84 d2		 test	 dl, dl
  00154	74 1a		 je	 SHORT $LN76@SetTitle_e
  00156	8a 40 15	 mov	 al, BYTE PTR [eax+21]
  00159	80 f2 ed	 xor	 dl, -19			; ffffffedH
  0015c	88 55 f8	 mov	 BYTE PTR __t$[ebp+20], dl
  0015f	84 c0		 test	 al, al
  00161	74 07		 je	 SHORT $LN75@SetTitle_e
  00163	34 ec		 xor	 al, -20			; ffffffecH
  00165	88 45 f9	 mov	 BYTE PTR __t$[ebp+21], al
  00168	eb 78		 jmp	 SHORT $LN1@SetTitle_e
$LN75@SetTitle_e:
  0016a	c6 45 f9 ec	 mov	 BYTE PTR __t$[ebp+21], -20 ; ffffffecH
  0016e	eb 72		 jmp	 SHORT $LN1@SetTitle_e
$LN76@SetTitle_e:
  00170	c6 45 f8 ed	 mov	 BYTE PTR __t$[ebp+20], -19 ; ffffffedH
  00174	eb 6c		 jmp	 SHORT $LN1@SetTitle_e
$LN77@SetTitle_e:
  00176	c6 45 f7 ea	 mov	 BYTE PTR __t$[ebp+19], -22 ; ffffffeaH
  0017a	eb 66		 jmp	 SHORT $LN1@SetTitle_e
$LN78@SetTitle_e:
  0017c	88 4d f6	 mov	 BYTE PTR __t$[ebp+18], cl
  0017f	eb 61		 jmp	 SHORT $LN1@SetTitle_e
$LN80@SetTitle_e:
  00181	c6 45 f4 ed	 mov	 BYTE PTR __t$[ebp+16], -19 ; ffffffedH
  00185	eb 5b		 jmp	 SHORT $LN1@SetTitle_e
$LN81@SetTitle_e:
  00187	c6 45 f3 ea	 mov	 BYTE PTR __t$[ebp+15], -22 ; ffffffeaH
  0018b	eb 55		 jmp	 SHORT $LN1@SetTitle_e
$LN82@SetTitle_e:
  0018d	88 4d f2	 mov	 BYTE PTR __t$[ebp+14], cl
  00190	eb 50		 jmp	 SHORT $LN1@SetTitle_e
$LN83@SetTitle_e:
  00192	c6 45 f1 ec	 mov	 BYTE PTR __t$[ebp+13], -20 ; ffffffecH
  00196	eb 4a		 jmp	 SHORT $LN1@SetTitle_e
$LN84@SetTitle_e:
  00198	c6 45 f0 ed	 mov	 BYTE PTR __t$[ebp+12], -19 ; ffffffedH
  0019c	eb 44		 jmp	 SHORT $LN1@SetTitle_e
$LN85@SetTitle_e:
  0019e	c6 45 ef ea	 mov	 BYTE PTR __t$[ebp+11], -22 ; ffffffeaH
  001a2	eb 3e		 jmp	 SHORT $LN1@SetTitle_e
$LN86@SetTitle_e:
  001a4	88 4d ee	 mov	 BYTE PTR __t$[ebp+10], cl
  001a7	eb 39		 jmp	 SHORT $LN1@SetTitle_e
$LN87@SetTitle_e:
  001a9	c6 45 ed ec	 mov	 BYTE PTR __t$[ebp+9], -20 ; ffffffecH
  001ad	eb 33		 jmp	 SHORT $LN1@SetTitle_e
$LN88@SetTitle_e:
  001af	c6 45 ec ed	 mov	 BYTE PTR __t$[ebp+8], -19 ; ffffffedH
  001b3	eb 2d		 jmp	 SHORT $LN1@SetTitle_e
$LN89@SetTitle_e:
  001b5	c6 45 eb ea	 mov	 BYTE PTR __t$[ebp+7], -22 ; ffffffeaH
  001b9	eb 27		 jmp	 SHORT $LN1@SetTitle_e
$LN90@SetTitle_e:
  001bb	88 4d ea	 mov	 BYTE PTR __t$[ebp+6], cl
  001be	eb 22		 jmp	 SHORT $LN1@SetTitle_e
$LN91@SetTitle_e:
  001c0	c6 45 e9 ec	 mov	 BYTE PTR __t$[ebp+5], -20 ; ffffffecH
  001c4	eb 1c		 jmp	 SHORT $LN1@SetTitle_e
$LN92@SetTitle_e:
  001c6	c6 45 e8 ed	 mov	 BYTE PTR __t$[ebp+4], -19 ; ffffffedH
  001ca	eb 16		 jmp	 SHORT $LN1@SetTitle_e
$LN93@SetTitle_e:
  001cc	c6 45 e7 ea	 mov	 BYTE PTR __t$[ebp+3], -22 ; ffffffeaH
  001d0	eb 10		 jmp	 SHORT $LN1@SetTitle_e
$LN94@SetTitle_e:
  001d2	c6 45 e6 eb	 mov	 BYTE PTR __t$[ebp+2], -21 ; ffffffebH
  001d6	eb 0a		 jmp	 SHORT $LN1@SetTitle_e
$LN95@SetTitle_e:
  001d8	c6 45 e5 ec	 mov	 BYTE PTR __t$[ebp+1], -20 ; ffffffecH
  001dc	eb 04		 jmp	 SHORT $LN1@SetTitle_e
$LN96@SetTitle_e:
  001de	c6 45 e4 ed	 mov	 BYTE PTR __t$[ebp], -19	; ffffffedH
$LN1@SetTitle_e:
  001e2	6a 04		 push	 4
  001e4	8d 45 e4	 lea	 eax, DWORD PTR __t$[ebp]
  001e7	c6 45 f5 00	 mov	 BYTE PTR __t$[ebp+17], 0
  001eb	5a		 pop	 edx
$LL104@SetTitle_e:
  001ec	81 30 ed ec eb
	ea		 xor	 DWORD PTR [eax], -353637139 ; eaebecedH
  001f2	83 c0 04	 add	 eax, 4
  001f5	4a		 dec	 edx
  001f6	75 f4		 jne	 SHORT $LL104@SetTitle_e
  001f8	80 75 f4 ed	 xor	 BYTE PTR __t$[ebp+16], -19 ; ffffffedH

; 190  : 		SetTitle(_t);

  001fc	8d 45 e4	 lea	 eax, DWORD PTR __t$[ebp]
  001ff	50		 push	 eax
  00200	8b ce		 mov	 ecx, esi
  00202	ff 15 00 00 00
	00		 call	 DWORD PTR __imp_?SetTitle@ioINILoader@@QAEXPBD@Z

; 191  : 	}

  00208	8b 4d fc	 mov	 ecx, DWORD PTR __$ArrayPad$[ebp]
  0020b	33 cd		 xor	 ecx, ebp
  0020d	5e		 pop	 esi
  0020e	e8 00 00 00 00	 call	 @__security_check_cookie@4
  00213	c9		 leave
  00214	c2 04 00	 ret	 4
??$SetTitle_e@$0BC@@ioINILoader@@QAEXAAY0BC@$$CBD@Z ENDP ; ioINILoader::SetTitle_e<18>
_TEXT	ENDS
PUBLIC	__$ArrayPad$
PUBLIC	??$LoadInt_e@$0O@@ioINILoader@@QAEHAAY0O@$$CBDH@Z ; ioINILoader::LoadInt_e<14>
EXTRN	__imp_?LoadInt@ioINILoader@@QAEHPBDH@Z:PROC
; Function compile flags: /Ogsp
;	COMDAT ??$LoadInt_e@$0O@@ioINILoader@@QAEHAAY0O@$$CBDH@Z
_TEXT	SEGMENT
__k$ = -24						; size = 14
__$ArrayPad$ = -4					; size = 4
_k$ = 8							; size = 4
_i$ = 12						; size = 4
??$LoadInt_e@$0O@@ioINILoader@@QAEHAAY0O@$$CBDH@Z PROC	; ioINILoader::LoadInt_e<14>, COMDAT
; _this$ = ecx

; 118  : 	{

  00000	55		 push	 ebp
  00001	8b ec		 mov	 ebp, esp
  00003	83 ec 18	 sub	 esp, 24			; 00000018H
  00006	a1 00 00 00 00	 mov	 eax, DWORD PTR ___security_cookie
  0000b	33 c5		 xor	 eax, ebp
  0000d	89 45 fc	 mov	 DWORD PTR __$ArrayPad$[ebp], eax
  00010	8b 45 08	 mov	 eax, DWORD PTR _k$[ebp]

; 119  : 		_ENCSTR(k, _k);

  00013	8a 10		 mov	 dl, BYTE PTR [eax]
  00015	56		 push	 esi
  00016	8b f1		 mov	 esi, ecx
  00018	84 d2		 test	 dl, dl
  0001a	0f 84 64 01 00
	00		 je	 $LN96@LoadInt_e
  00020	80 f2 ed	 xor	 dl, -19			; ffffffedH
  00023	88 55 e8	 mov	 BYTE PTR __k$[ebp], dl
  00026	8a 50 01	 mov	 dl, BYTE PTR [eax+1]
  00029	84 d2		 test	 dl, dl
  0002b	0f 84 4d 01 00
	00		 je	 $LN95@LoadInt_e
  00031	80 f2 ec	 xor	 dl, -20			; ffffffecH
  00034	88 55 e9	 mov	 BYTE PTR __k$[ebp+1], dl
  00037	8a 50 02	 mov	 dl, BYTE PTR [eax+2]
  0003a	84 d2		 test	 dl, dl
  0003c	0f 84 36 01 00
	00		 je	 $LN94@LoadInt_e
  00042	b1 eb		 mov	 cl, -21			; ffffffebH
  00044	32 d1		 xor	 dl, cl
  00046	88 55 ea	 mov	 BYTE PTR __k$[ebp+2], dl
  00049	8a 50 03	 mov	 dl, BYTE PTR [eax+3]
  0004c	84 d2		 test	 dl, dl
  0004e	0f 84 1e 01 00
	00		 je	 $LN93@LoadInt_e
  00054	80 f2 ea	 xor	 dl, -22			; ffffffeaH
  00057	88 55 eb	 mov	 BYTE PTR __k$[ebp+3], dl
  0005a	8a 50 04	 mov	 dl, BYTE PTR [eax+4]
  0005d	84 d2		 test	 dl, dl
  0005f	0f 84 07 01 00
	00		 je	 $LN92@LoadInt_e
  00065	80 f2 ed	 xor	 dl, -19			; ffffffedH
  00068	88 55 ec	 mov	 BYTE PTR __k$[ebp+4], dl
  0006b	8a 50 05	 mov	 dl, BYTE PTR [eax+5]
  0006e	84 d2		 test	 dl, dl
  00070	0f 84 f0 00 00
	00		 je	 $LN91@LoadInt_e
  00076	80 f2 ec	 xor	 dl, -20			; ffffffecH
  00079	88 55 ed	 mov	 BYTE PTR __k$[ebp+5], dl
  0007c	8a 50 06	 mov	 dl, BYTE PTR [eax+6]
  0007f	84 d2		 test	 dl, dl
  00081	0f 84 da 00 00
	00		 je	 $LN90@LoadInt_e
  00087	32 d1		 xor	 dl, cl
  00089	88 55 ee	 mov	 BYTE PTR __k$[ebp+6], dl
  0008c	8a 50 07	 mov	 dl, BYTE PTR [eax+7]
  0008f	84 d2		 test	 dl, dl
  00091	0f 84 c4 00 00
	00		 je	 $LN89@LoadInt_e
  00097	80 f2 ea	 xor	 dl, -22			; ffffffeaH
  0009a	88 55 ef	 mov	 BYTE PTR __k$[ebp+7], dl
  0009d	8a 50 08	 mov	 dl, BYTE PTR [eax+8]
  000a0	84 d2		 test	 dl, dl
  000a2	0f 84 ad 00 00
	00		 je	 $LN88@LoadInt_e
  000a8	80 f2 ed	 xor	 dl, -19			; ffffffedH
  000ab	88 55 f0	 mov	 BYTE PTR __k$[ebp+8], dl
  000ae	8a 50 09	 mov	 dl, BYTE PTR [eax+9]
  000b1	84 d2		 test	 dl, dl
  000b3	0f 84 96 00 00
	00		 je	 $LN87@LoadInt_e
  000b9	80 f2 ec	 xor	 dl, -20			; ffffffecH
  000bc	88 55 f1	 mov	 BYTE PTR __k$[ebp+9], dl
  000bf	8a 50 0a	 mov	 dl, BYTE PTR [eax+10]
  000c2	84 d2		 test	 dl, dl
  000c4	0f 84 80 00 00
	00		 je	 $LN86@LoadInt_e
  000ca	32 d1		 xor	 dl, cl
  000cc	88 55 f2	 mov	 BYTE PTR __k$[ebp+10], dl
  000cf	8a 50 0b	 mov	 dl, BYTE PTR [eax+11]
  000d2	84 d2		 test	 dl, dl
  000d4	74 6e		 je	 SHORT $LN85@LoadInt_e
  000d6	80 f2 ea	 xor	 dl, -22			; ffffffeaH
  000d9	88 55 f3	 mov	 BYTE PTR __k$[ebp+11], dl
  000dc	8a 50 0c	 mov	 dl, BYTE PTR [eax+12]
  000df	84 d2		 test	 dl, dl
  000e1	74 5b		 je	 SHORT $LN84@LoadInt_e
  000e3	80 f2 ed	 xor	 dl, -19			; ffffffedH
  000e6	80 78 0d 00	 cmp	 BYTE PTR [eax+13], 0
  000ea	88 55 f4	 mov	 BYTE PTR __k$[ebp+12], dl
  000ed	0f 84 95 00 00
	00		 je	 $LN1@LoadInt_e
  000f3	8a 50 0e	 mov	 dl, BYTE PTR [eax+14]
  000f6	84 d2		 test	 dl, dl
  000f8	74 3f		 je	 SHORT $LN82@LoadInt_e
  000fa	32 d1		 xor	 dl, cl
  000fc	88 55 f6	 mov	 BYTE PTR __k$[ebp+14], dl
  000ff	8a 50 0f	 mov	 dl, BYTE PTR [eax+15]
  00102	84 d2		 test	 dl, dl
  00104	74 2d		 je	 SHORT $LN81@LoadInt_e
  00106	80 f2 ea	 xor	 dl, -22			; ffffffeaH
  00109	88 55 f7	 mov	 BYTE PTR __k$[ebp+15], dl
  0010c	8a 50 10	 mov	 dl, BYTE PTR [eax+16]
  0010f	84 d2		 test	 dl, dl
  00111	74 1a		 je	 SHORT $LN80@LoadInt_e
  00113	8a 40 11	 mov	 al, BYTE PTR [eax+17]
  00116	80 f2 ed	 xor	 dl, -19			; ffffffedH
  00119	88 55 f8	 mov	 BYTE PTR __k$[ebp+16], dl
  0011c	84 c0		 test	 al, al
  0011e	74 07		 je	 SHORT $LN79@LoadInt_e
  00120	34 ec		 xor	 al, -20			; ffffffecH
  00122	88 45 f9	 mov	 BYTE PTR __k$[ebp+17], al
  00125	eb 61		 jmp	 SHORT $LN1@LoadInt_e
$LN79@LoadInt_e:
  00127	c6 45 f9 ec	 mov	 BYTE PTR __k$[ebp+17], -20 ; ffffffecH
  0012b	eb 5b		 jmp	 SHORT $LN1@LoadInt_e
$LN80@LoadInt_e:
  0012d	c6 45 f8 ed	 mov	 BYTE PTR __k$[ebp+16], -19 ; ffffffedH
  00131	eb 55		 jmp	 SHORT $LN1@LoadInt_e
$LN81@LoadInt_e:
  00133	c6 45 f7 ea	 mov	 BYTE PTR __k$[ebp+15], -22 ; ffffffeaH
  00137	eb 4f		 jmp	 SHORT $LN1@LoadInt_e
$LN82@LoadInt_e:
  00139	88 4d f6	 mov	 BYTE PTR __k$[ebp+14], cl
  0013c	eb 4a		 jmp	 SHORT $LN1@LoadInt_e
$LN84@LoadInt_e:
  0013e	c6 45 f4 ed	 mov	 BYTE PTR __k$[ebp+12], -19 ; ffffffedH
  00142	eb 44		 jmp	 SHORT $LN1@LoadInt_e
$LN85@LoadInt_e:
  00144	c6 45 f3 ea	 mov	 BYTE PTR __k$[ebp+11], -22 ; ffffffeaH
  00148	eb 3e		 jmp	 SHORT $LN1@LoadInt_e
$LN86@LoadInt_e:
  0014a	88 4d f2	 mov	 BYTE PTR __k$[ebp+10], cl
  0014d	eb 39		 jmp	 SHORT $LN1@LoadInt_e
$LN87@LoadInt_e:
  0014f	c6 45 f1 ec	 mov	 BYTE PTR __k$[ebp+9], -20 ; ffffffecH
  00153	eb 33		 jmp	 SHORT $LN1@LoadInt_e
$LN88@LoadInt_e:
  00155	c6 45 f0 ed	 mov	 BYTE PTR __k$[ebp+8], -19 ; ffffffedH
  00159	eb 2d		 jmp	 SHORT $LN1@LoadInt_e
$LN89@LoadInt_e:
  0015b	c6 45 ef ea	 mov	 BYTE PTR __k$[ebp+7], -22 ; ffffffeaH
  0015f	eb 27		 jmp	 SHORT $LN1@LoadInt_e
$LN90@LoadInt_e:
  00161	88 4d ee	 mov	 BYTE PTR __k$[ebp+6], cl
  00164	eb 22		 jmp	 SHORT $LN1@LoadInt_e
$LN91@LoadInt_e:
  00166	c6 45 ed ec	 mov	 BYTE PTR __k$[ebp+5], -20 ; ffffffecH
  0016a	eb 1c		 jmp	 SHORT $LN1@LoadInt_e
$LN92@LoadInt_e:
  0016c	c6 45 ec ed	 mov	 BYTE PTR __k$[ebp+4], -19 ; ffffffedH
  00170	eb 16		 jmp	 SHORT $LN1@LoadInt_e
$LN93@LoadInt_e:
  00172	c6 45 eb ea	 mov	 BYTE PTR __k$[ebp+3], -22 ; ffffffeaH
  00176	eb 10		 jmp	 SHORT $LN1@LoadInt_e
$LN94@LoadInt_e:
  00178	c6 45 ea eb	 mov	 BYTE PTR __k$[ebp+2], -21 ; ffffffebH
  0017c	eb 0a		 jmp	 SHORT $LN1@LoadInt_e
$LN95@LoadInt_e:
  0017e	c6 45 e9 ec	 mov	 BYTE PTR __k$[ebp+1], -20 ; ffffffecH
  00182	eb 04		 jmp	 SHORT $LN1@LoadInt_e
$LN96@LoadInt_e:
  00184	c6 45 e8 ed	 mov	 BYTE PTR __k$[ebp], -19	; ffffffedH
$LN1@LoadInt_e:
  00188	6a 03		 push	 3
  0018a	8d 45 e8	 lea	 eax, DWORD PTR __k$[ebp]
  0018d	c6 45 f5 00	 mov	 BYTE PTR __k$[ebp+13], 0
  00191	5a		 pop	 edx
$LL104@LoadInt_e:
  00192	81 30 ed ec eb
	ea		 xor	 DWORD PTR [eax], -353637139 ; eaebecedH
  00198	83 c0 04	 add	 eax, 4
  0019b	4a		 dec	 edx
  0019c	75 f4		 jne	 SHORT $LL104@LoadInt_e

; 120  : 		return LoadInt(_k, i);

  0019e	ff 75 0c	 push	 DWORD PTR _i$[ebp]
  001a1	80 75 f4 ed	 xor	 BYTE PTR __k$[ebp+12], -19 ; ffffffedH
  001a5	8d 45 e8	 lea	 eax, DWORD PTR __k$[ebp]
  001a8	50		 push	 eax
  001a9	8b ce		 mov	 ecx, esi
  001ab	ff 15 00 00 00
	00		 call	 DWORD PTR __imp_?LoadInt@ioINILoader@@QAEHPBDH@Z

; 121  : 	}

  001b1	8b 4d fc	 mov	 ecx, DWORD PTR __$ArrayPad$[ebp]
  001b4	33 cd		 xor	 ecx, ebp
  001b6	5e		 pop	 esi
  001b7	e8 00 00 00 00	 call	 @__security_check_cookie@4
  001bc	c9		 leave
  001bd	c2 08 00	 ret	 8
??$LoadInt_e@$0O@@ioINILoader@@QAEHAAY0O@$$CBDH@Z ENDP	; ioINILoader::LoadInt_e<14>
_TEXT	ENDS
PUBLIC	__$ArrayPad$
PUBLIC	??$LoadFloat_e@$0M@@ioINILoader@@QAEMAAY0M@$$CBDM@Z ; ioINILoader::LoadFloat_e<12>
EXTRN	__imp_?LoadFloat@ioINILoader@@QAEMPBDM@Z:PROC
; Function compile flags: /Ogsp
;	COMDAT ??$LoadFloat_e@$0M@@ioINILoader@@QAEMAAY0M@$$CBDM@Z
_TEXT	SEGMENT
__k$ = -20						; size = 12
__$ArrayPad$ = -4					; size = 4
_k$ = 8							; size = 4
_f$ = 12						; size = 4
??$LoadFloat_e@$0M@@ioINILoader@@QAEMAAY0M@$$CBDM@Z PROC ; ioINILoader::LoadFloat_e<12>, COMDAT
; _this$ = ecx

; 135  : 	{

  00000	55		 push	 ebp
  00001	8b ec		 mov	 ebp, esp
  00003	83 ec 14	 sub	 esp, 20			; 00000014H
  00006	a1 00 00 00 00	 mov	 eax, DWORD PTR ___security_cookie
  0000b	33 c5		 xor	 eax, ebp
  0000d	89 45 fc	 mov	 DWORD PTR __$ArrayPad$[ebp], eax
  00010	8b 45 08	 mov	 eax, DWORD PTR _k$[ebp]

; 136  : 		_ENCSTR(k, _k);

  00013	8a 10		 mov	 dl, BYTE PTR [eax]
  00015	56		 push	 esi
  00016	8b f1		 mov	 esi, ecx
  00018	84 d2		 test	 dl, dl
  0001a	0f 84 32 01 00
	00		 je	 $LN96@LoadFloat_
  00020	80 f2 ed	 xor	 dl, -19			; ffffffedH
  00023	88 55 ec	 mov	 BYTE PTR __k$[ebp], dl
  00026	8a 50 01	 mov	 dl, BYTE PTR [eax+1]
  00029	84 d2		 test	 dl, dl
  0002b	0f 84 1b 01 00
	00		 je	 $LN95@LoadFloat_
  00031	80 f2 ec	 xor	 dl, -20			; ffffffecH
  00034	88 55 ed	 mov	 BYTE PTR __k$[ebp+1], dl
  00037	8a 50 02	 mov	 dl, BYTE PTR [eax+2]
  0003a	84 d2		 test	 dl, dl
  0003c	0f 84 04 01 00
	00		 je	 $LN94@LoadFloat_
  00042	b1 eb		 mov	 cl, -21			; ffffffebH
  00044	32 d1		 xor	 dl, cl
  00046	88 55 ee	 mov	 BYTE PTR __k$[ebp+2], dl
  00049	8a 50 03	 mov	 dl, BYTE PTR [eax+3]
  0004c	84 d2		 test	 dl, dl
  0004e	0f 84 ec 00 00
	00		 je	 $LN93@LoadFloat_
  00054	80 f2 ea	 xor	 dl, -22			; ffffffeaH
  00057	88 55 ef	 mov	 BYTE PTR __k$[ebp+3], dl
  0005a	8a 50 04	 mov	 dl, BYTE PTR [eax+4]
  0005d	84 d2		 test	 dl, dl
  0005f	0f 84 d5 00 00
	00		 je	 $LN92@LoadFloat_
  00065	80 f2 ed	 xor	 dl, -19			; ffffffedH
  00068	88 55 f0	 mov	 BYTE PTR __k$[ebp+4], dl
  0006b	8a 50 05	 mov	 dl, BYTE PTR [eax+5]
  0006e	84 d2		 test	 dl, dl
  00070	0f 84 be 00 00
	00		 je	 $LN91@LoadFloat_
  00076	80 f2 ec	 xor	 dl, -20			; ffffffecH
  00079	88 55 f1	 mov	 BYTE PTR __k$[ebp+5], dl
  0007c	8a 50 06	 mov	 dl, BYTE PTR [eax+6]
  0007f	84 d2		 test	 dl, dl
  00081	0f 84 a8 00 00
	00		 je	 $LN90@LoadFloat_
  00087	32 d1		 xor	 dl, cl
  00089	88 55 f2	 mov	 BYTE PTR __k$[ebp+6], dl
  0008c	8a 50 07	 mov	 dl, BYTE PTR [eax+7]
  0008f	84 d2		 test	 dl, dl
  00091	0f 84 92 00 00
	00		 je	 $LN89@LoadFloat_
  00097	80 f2 ea	 xor	 dl, -22			; ffffffeaH
  0009a	88 55 f3	 mov	 BYTE PTR __k$[ebp+7], dl
  0009d	8a 50 08	 mov	 dl, BYTE PTR [eax+8]
  000a0	84 d2		 test	 dl, dl
  000a2	74 7f		 je	 SHORT $LN88@LoadFloat_
  000a4	80 f2 ed	 xor	 dl, -19			; ffffffedH
  000a7	88 55 f4	 mov	 BYTE PTR __k$[ebp+8], dl
  000aa	8a 50 09	 mov	 dl, BYTE PTR [eax+9]
  000ad	84 d2		 test	 dl, dl
  000af	74 6c		 je	 SHORT $LN87@LoadFloat_
  000b1	80 f2 ec	 xor	 dl, -20			; ffffffecH
  000b4	88 55 f5	 mov	 BYTE PTR __k$[ebp+9], dl
  000b7	8a 50 0a	 mov	 dl, BYTE PTR [eax+10]
  000ba	84 d2		 test	 dl, dl
  000bc	74 5a		 je	 SHORT $LN86@LoadFloat_
  000be	32 d1		 xor	 dl, cl
  000c0	80 78 0b 00	 cmp	 BYTE PTR [eax+11], 0
  000c4	88 55 f6	 mov	 BYTE PTR __k$[ebp+10], dl
  000c7	0f 84 89 00 00
	00		 je	 $LN1@LoadFloat_
  000cd	8a 50 0c	 mov	 dl, BYTE PTR [eax+12]
  000d0	84 d2		 test	 dl, dl
  000d2	74 3e		 je	 SHORT $LN84@LoadFloat_
  000d4	80 f2 ed	 xor	 dl, -19			; ffffffedH
  000d7	88 55 f8	 mov	 BYTE PTR __k$[ebp+12], dl
  000da	8a 50 0d	 mov	 dl, BYTE PTR [eax+13]
  000dd	84 d2		 test	 dl, dl
  000df	74 2b		 je	 SHORT $LN83@LoadFloat_
  000e1	80 f2 ec	 xor	 dl, -20			; ffffffecH
  000e4	88 55 f9	 mov	 BYTE PTR __k$[ebp+13], dl
  000e7	8a 50 0e	 mov	 dl, BYTE PTR [eax+14]
  000ea	84 d2		 test	 dl, dl
  000ec	74 19		 je	 SHORT $LN82@LoadFloat_
  000ee	8a 40 0f	 mov	 al, BYTE PTR [eax+15]
  000f1	32 d1		 xor	 dl, cl
  000f3	88 55 fa	 mov	 BYTE PTR __k$[ebp+14], dl
  000f6	84 c0		 test	 al, al
  000f8	74 07		 je	 SHORT $LN81@LoadFloat_
  000fa	34 ea		 xor	 al, -22			; ffffffeaH
  000fc	88 45 fb	 mov	 BYTE PTR __k$[ebp+15], al
  000ff	eb 55		 jmp	 SHORT $LN1@LoadFloat_
$LN81@LoadFloat_:
  00101	c6 45 fb ea	 mov	 BYTE PTR __k$[ebp+15], -22 ; ffffffeaH
  00105	eb 4f		 jmp	 SHORT $LN1@LoadFloat_
$LN82@LoadFloat_:
  00107	88 4d fa	 mov	 BYTE PTR __k$[ebp+14], cl
  0010a	eb 4a		 jmp	 SHORT $LN1@LoadFloat_
$LN83@LoadFloat_:
  0010c	c6 45 f9 ec	 mov	 BYTE PTR __k$[ebp+13], -20 ; ffffffecH
  00110	eb 44		 jmp	 SHORT $LN1@LoadFloat_
$LN84@LoadFloat_:
  00112	c6 45 f8 ed	 mov	 BYTE PTR __k$[ebp+12], -19 ; ffffffedH
  00116	eb 3e		 jmp	 SHORT $LN1@LoadFloat_
$LN86@LoadFloat_:
  00118	88 4d f6	 mov	 BYTE PTR __k$[ebp+10], cl
  0011b	eb 39		 jmp	 SHORT $LN1@LoadFloat_
$LN87@LoadFloat_:
  0011d	c6 45 f5 ec	 mov	 BYTE PTR __k$[ebp+9], -20 ; ffffffecH
  00121	eb 33		 jmp	 SHORT $LN1@LoadFloat_
$LN88@LoadFloat_:
  00123	c6 45 f4 ed	 mov	 BYTE PTR __k$[ebp+8], -19 ; ffffffedH
  00127	eb 2d		 jmp	 SHORT $LN1@LoadFloat_
$LN89@LoadFloat_:
  00129	c6 45 f3 ea	 mov	 BYTE PTR __k$[ebp+7], -22 ; ffffffeaH
  0012d	eb 27		 jmp	 SHORT $LN1@LoadFloat_
$LN90@LoadFloat_:
  0012f	88 4d f2	 mov	 BYTE PTR __k$[ebp+6], cl
  00132	eb 22		 jmp	 SHORT $LN1@LoadFloat_
$LN91@LoadFloat_:
  00134	c6 45 f1 ec	 mov	 BYTE PTR __k$[ebp+5], -20 ; ffffffecH
  00138	eb 1c		 jmp	 SHORT $LN1@LoadFloat_
$LN92@LoadFloat_:
  0013a	c6 45 f0 ed	 mov	 BYTE PTR __k$[ebp+4], -19 ; ffffffedH
  0013e	eb 16		 jmp	 SHORT $LN1@LoadFloat_
$LN93@LoadFloat_:
  00140	c6 45 ef ea	 mov	 BYTE PTR __k$[ebp+3], -22 ; ffffffeaH
  00144	eb 10		 jmp	 SHORT $LN1@LoadFloat_
$LN94@LoadFloat_:
  00146	c6 45 ee eb	 mov	 BYTE PTR __k$[ebp+2], -21 ; ffffffebH
  0014a	eb 0a		 jmp	 SHORT $LN1@LoadFloat_
$LN95@LoadFloat_:
  0014c	c6 45 ed ec	 mov	 BYTE PTR __k$[ebp+1], -20 ; ffffffecH
  00150	eb 04		 jmp	 SHORT $LN1@LoadFloat_
$LN96@LoadFloat_:
  00152	c6 45 ec ed	 mov	 BYTE PTR __k$[ebp], -19	; ffffffedH
$LN1@LoadFloat_:
  00156	6a 02		 push	 2
  00158	8d 45 ec	 lea	 eax, DWORD PTR __k$[ebp]
  0015b	c6 45 f7 00	 mov	 BYTE PTR __k$[ebp+11], 0
  0015f	5a		 pop	 edx
$LL104@LoadFloat_:
  00160	81 30 ed ec eb
	ea		 xor	 DWORD PTR [eax], -353637139 ; eaebecedH
  00166	83 c0 04	 add	 eax, 4
  00169	4a		 dec	 edx
  0016a	75 f4		 jne	 SHORT $LL104@LoadFloat_
  0016c	6a 08		 push	 8
  0016e	58		 pop	 eax
$LL101@LoadFloat_:
  0016f	8b c8		 mov	 ecx, eax
  00171	81 e1 03 00 00
	80		 and	 ecx, -2147483645	; 80000003H
  00177	79 05		 jns	 SHORT $LN111@LoadFloat_
  00179	49		 dec	 ecx
  0017a	83 c9 fc	 or	 ecx, -4			; fffffffcH
  0017d	41		 inc	 ecx
$LN111@LoadFloat_:
  0017e	b2 ed		 mov	 dl, -19			; ffffffedH
  00180	2a d1		 sub	 dl, cl
  00182	30 54 05 ec	 xor	 BYTE PTR __k$[ebp+eax], dl
  00186	40		 inc	 eax
  00187	83 f8 0b	 cmp	 eax, 11			; 0000000bH
  0018a	7c e3		 jl	 SHORT $LL101@LoadFloat_

; 137  : 		return LoadFloat(_k, f);

  0018c	f3 0f 10 45 0c	 movss	 xmm0, DWORD PTR _f$[ebp]
  00191	51		 push	 ecx
  00192	8d 45 ec	 lea	 eax, DWORD PTR __k$[ebp]
  00195	f3 0f 11 04 24	 movss	 DWORD PTR [esp], xmm0
  0019a	50		 push	 eax
  0019b	8b ce		 mov	 ecx, esi
  0019d	ff 15 00 00 00
	00		 call	 DWORD PTR __imp_?LoadFloat@ioINILoader@@QAEMPBDM@Z

; 138  : 	}

  001a3	8b 4d fc	 mov	 ecx, DWORD PTR __$ArrayPad$[ebp]
  001a6	33 cd		 xor	 ecx, ebp
  001a8	5e		 pop	 esi
  001a9	e8 00 00 00 00	 call	 @__security_check_cookie@4
  001ae	c9		 leave
  001af	c2 08 00	 ret	 8
??$LoadFloat_e@$0M@@ioINILoader@@QAEMAAY0M@$$CBDM@Z ENDP ; ioINILoader::LoadFloat_e<12>
_TEXT	ENDS
PUBLIC	__$ArrayPad$
PUBLIC	??$LoadFloat_e@$0BB@@ioINILoader@@QAEMAAY0BB@$$CBDM@Z ; ioINILoader::LoadFloat_e<17>
; Function compile flags: /Ogsp
;	COMDAT ??$LoadFloat_e@$0BB@@ioINILoader@@QAEMAAY0BB@$$CBDM@Z
_TEXT	SEGMENT
__k$ = -28						; size = 17
__$ArrayPad$ = -4					; size = 4
_k$ = 8							; size = 4
_f$ = 12						; size = 4
??$LoadFloat_e@$0BB@@ioINILoader@@QAEMAAY0BB@$$CBDM@Z PROC ; ioINILoader::LoadFloat_e<17>, COMDAT
; _this$ = ecx

; 135  : 	{

  00000	55		 push	 ebp
  00001	8b ec		 mov	 ebp, esp
  00003	83 ec 1c	 sub	 esp, 28			; 0000001cH
  00006	a1 00 00 00 00	 mov	 eax, DWORD PTR ___security_cookie
  0000b	33 c5		 xor	 eax, ebp
  0000d	89 45 fc	 mov	 DWORD PTR __$ArrayPad$[ebp], eax
  00010	8b 45 08	 mov	 eax, DWORD PTR _k$[ebp]

; 136  : 		_ENCSTR(k, _k);

  00013	8a 10		 mov	 dl, BYTE PTR [eax]
  00015	56		 push	 esi
  00016	8b f1		 mov	 esi, ecx
  00018	84 d2		 test	 dl, dl
  0001a	0f 84 a7 01 00
	00		 je	 $LN96@LoadFloat_@2
  00020	80 f2 ed	 xor	 dl, -19			; ffffffedH
  00023	88 55 e4	 mov	 BYTE PTR __k$[ebp], dl
  00026	8a 50 01	 mov	 dl, BYTE PTR [eax+1]
  00029	84 d2		 test	 dl, dl
  0002b	0f 84 90 01 00
	00		 je	 $LN95@LoadFloat_@2
  00031	b1 ec		 mov	 cl, -20			; ffffffecH
  00033	32 d1		 xor	 dl, cl
  00035	88 55 e5	 mov	 BYTE PTR __k$[ebp+1], dl
  00038	8a 50 02	 mov	 dl, BYTE PTR [eax+2]
  0003b	84 d2		 test	 dl, dl
  0003d	0f 84 78 01 00
	00		 je	 $LN94@LoadFloat_@2
  00043	80 f2 eb	 xor	 dl, -21			; ffffffebH
  00046	88 55 e6	 mov	 BYTE PTR __k$[ebp+2], dl
  00049	8a 50 03	 mov	 dl, BYTE PTR [eax+3]
  0004c	84 d2		 test	 dl, dl
  0004e	0f 84 61 01 00
	00		 je	 $LN93@LoadFloat_@2
  00054	80 f2 ea	 xor	 dl, -22			; ffffffeaH
  00057	88 55 e7	 mov	 BYTE PTR __k$[ebp+3], dl
  0005a	8a 50 04	 mov	 dl, BYTE PTR [eax+4]
  0005d	84 d2		 test	 dl, dl
  0005f	0f 84 4a 01 00
	00		 je	 $LN92@LoadFloat_@2
  00065	80 f2 ed	 xor	 dl, -19			; ffffffedH
  00068	88 55 e8	 mov	 BYTE PTR __k$[ebp+4], dl
  0006b	8a 50 05	 mov	 dl, BYTE PTR [eax+5]
  0006e	84 d2		 test	 dl, dl
  00070	0f 84 34 01 00
	00		 je	 $LN91@LoadFloat_@2
  00076	32 d1		 xor	 dl, cl
  00078	88 55 e9	 mov	 BYTE PTR __k$[ebp+5], dl
  0007b	8a 50 06	 mov	 dl, BYTE PTR [eax+6]
  0007e	84 d2		 test	 dl, dl
  00080	0f 84 1e 01 00
	00		 je	 $LN90@LoadFloat_@2
  00086	80 f2 eb	 xor	 dl, -21			; ffffffebH
  00089	88 55 ea	 mov	 BYTE PTR __k$[ebp+6], dl
  0008c	8a 50 07	 mov	 dl, BYTE PTR [eax+7]
  0008f	84 d2		 test	 dl, dl
  00091	0f 84 07 01 00
	00		 je	 $LN89@LoadFloat_@2
  00097	80 f2 ea	 xor	 dl, -22			; ffffffeaH
  0009a	88 55 eb	 mov	 BYTE PTR __k$[ebp+7], dl
  0009d	8a 50 08	 mov	 dl, BYTE PTR [eax+8]
  000a0	84 d2		 test	 dl, dl
  000a2	0f 84 f0 00 00
	00		 je	 $LN88@LoadFloat_@2
  000a8	80 f2 ed	 xor	 dl, -19			; ffffffedH
  000ab	88 55 ec	 mov	 BYTE PTR __k$[ebp+8], dl
  000ae	8a 50 09	 mov	 dl, BYTE PTR [eax+9]
  000b1	84 d2		 test	 dl, dl
  000b3	0f 84 da 00 00
	00		 je	 $LN87@LoadFloat_@2
  000b9	32 d1		 xor	 dl, cl
  000bb	88 55 ed	 mov	 BYTE PTR __k$[ebp+9], dl
  000be	8a 50 0a	 mov	 dl, BYTE PTR [eax+10]
  000c1	84 d2		 test	 dl, dl
  000c3	0f 84 c4 00 00
	00		 je	 $LN86@LoadFloat_@2
  000c9	80 f2 eb	 xor	 dl, -21			; ffffffebH
  000cc	88 55 ee	 mov	 BYTE PTR __k$[ebp+10], dl
  000cf	8a 50 0b	 mov	 dl, BYTE PTR [eax+11]
  000d2	84 d2		 test	 dl, dl
  000d4	0f 84 ad 00 00
	00		 je	 $LN85@LoadFloat_@2
  000da	80 f2 ea	 xor	 dl, -22			; ffffffeaH
  000dd	88 55 ef	 mov	 BYTE PTR __k$[ebp+11], dl
  000e0	8a 50 0c	 mov	 dl, BYTE PTR [eax+12]
  000e3	84 d2		 test	 dl, dl
  000e5	0f 84 96 00 00
	00		 je	 $LN84@LoadFloat_@2
  000eb	80 f2 ed	 xor	 dl, -19			; ffffffedH
  000ee	88 55 f0	 mov	 BYTE PTR __k$[ebp+12], dl
  000f1	8a 50 0d	 mov	 dl, BYTE PTR [eax+13]
  000f4	84 d2		 test	 dl, dl
  000f6	0f 84 80 00 00
	00		 je	 $LN83@LoadFloat_@2
  000fc	32 d1		 xor	 dl, cl
  000fe	88 55 f1	 mov	 BYTE PTR __k$[ebp+13], dl
  00101	8a 50 0e	 mov	 dl, BYTE PTR [eax+14]
  00104	84 d2		 test	 dl, dl
  00106	74 6e		 je	 SHORT $LN82@LoadFloat_@2
  00108	80 f2 eb	 xor	 dl, -21			; ffffffebH
  0010b	88 55 f2	 mov	 BYTE PTR __k$[ebp+14], dl
  0010e	8a 50 0f	 mov	 dl, BYTE PTR [eax+15]
  00111	84 d2		 test	 dl, dl
  00113	74 5b		 je	 SHORT $LN81@LoadFloat_@2
  00115	80 f2 ea	 xor	 dl, -22			; ffffffeaH
  00118	80 78 10 00	 cmp	 BYTE PTR [eax+16], 0
  0011c	88 55 f3	 mov	 BYTE PTR __k$[ebp+15], dl
  0011f	0f 84 a6 00 00
	00		 je	 $LN1@LoadFloat_@2
  00125	8a 50 11	 mov	 dl, BYTE PTR [eax+17]
  00128	84 d2		 test	 dl, dl
  0012a	74 3f		 je	 SHORT $LN79@LoadFloat_@2
  0012c	32 d1		 xor	 dl, cl
  0012e	88 55 f5	 mov	 BYTE PTR __k$[ebp+17], dl
  00131	8a 50 12	 mov	 dl, BYTE PTR [eax+18]
  00134	84 d2		 test	 dl, dl
  00136	74 2d		 je	 SHORT $LN78@LoadFloat_@2
  00138	80 f2 eb	 xor	 dl, -21			; ffffffebH
  0013b	88 55 f6	 mov	 BYTE PTR __k$[ebp+18], dl
  0013e	8a 50 13	 mov	 dl, BYTE PTR [eax+19]
  00141	84 d2		 test	 dl, dl
  00143	74 1a		 je	 SHORT $LN77@LoadFloat_@2
  00145	8a 40 14	 mov	 al, BYTE PTR [eax+20]
  00148	80 f2 ea	 xor	 dl, -22			; ffffffeaH
  0014b	88 55 f7	 mov	 BYTE PTR __k$[ebp+19], dl
  0014e	84 c0		 test	 al, al
  00150	74 07		 je	 SHORT $LN76@LoadFloat_@2
  00152	34 ed		 xor	 al, -19			; ffffffedH
  00154	88 45 f8	 mov	 BYTE PTR __k$[ebp+20], al
  00157	eb 72		 jmp	 SHORT $LN1@LoadFloat_@2
$LN76@LoadFloat_@2:
  00159	c6 45 f8 ed	 mov	 BYTE PTR __k$[ebp+20], -19 ; ffffffedH
  0015d	eb 6c		 jmp	 SHORT $LN1@LoadFloat_@2
$LN77@LoadFloat_@2:
  0015f	c6 45 f7 ea	 mov	 BYTE PTR __k$[ebp+19], -22 ; ffffffeaH
  00163	eb 66		 jmp	 SHORT $LN1@LoadFloat_@2
$LN78@LoadFloat_@2:
  00165	c6 45 f6 eb	 mov	 BYTE PTR __k$[ebp+18], -21 ; ffffffebH
  00169	eb 60		 jmp	 SHORT $LN1@LoadFloat_@2
$LN79@LoadFloat_@2:
  0016b	88 4d f5	 mov	 BYTE PTR __k$[ebp+17], cl
  0016e	eb 5b		 jmp	 SHORT $LN1@LoadFloat_@2
$LN81@LoadFloat_@2:
  00170	c6 45 f3 ea	 mov	 BYTE PTR __k$[ebp+15], -22 ; ffffffeaH
  00174	eb 55		 jmp	 SHORT $LN1@LoadFloat_@2
$LN82@LoadFloat_@2:
  00176	c6 45 f2 eb	 mov	 BYTE PTR __k$[ebp+14], -21 ; ffffffebH
  0017a	eb 4f		 jmp	 SHORT $LN1@LoadFloat_@2
$LN83@LoadFloat_@2:
  0017c	88 4d f1	 mov	 BYTE PTR __k$[ebp+13], cl
  0017f	eb 4a		 jmp	 SHORT $LN1@LoadFloat_@2
$LN84@LoadFloat_@2:
  00181	c6 45 f0 ed	 mov	 BYTE PTR __k$[ebp+12], -19 ; ffffffedH
  00185	eb 44		 jmp	 SHORT $LN1@LoadFloat_@2
$LN85@LoadFloat_@2:
  00187	c6 45 ef ea	 mov	 BYTE PTR __k$[ebp+11], -22 ; ffffffeaH
  0018b	eb 3e		 jmp	 SHORT $LN1@LoadFloat_@2
$LN86@LoadFloat_@2:
  0018d	c6 45 ee eb	 mov	 BYTE PTR __k$[ebp+10], -21 ; ffffffebH
  00191	eb 38		 jmp	 SHORT $LN1@LoadFloat_@2
$LN87@LoadFloat_@2:
  00193	88 4d ed	 mov	 BYTE PTR __k$[ebp+9], cl
  00196	eb 33		 jmp	 SHORT $LN1@LoadFloat_@2
$LN88@LoadFloat_@2:
  00198	c6 45 ec ed	 mov	 BYTE PTR __k$[ebp+8], -19 ; ffffffedH
  0019c	eb 2d		 jmp	 SHORT $LN1@LoadFloat_@2
$LN89@LoadFloat_@2:
  0019e	c6 45 eb ea	 mov	 BYTE PTR __k$[ebp+7], -22 ; ffffffeaH
  001a2	eb 27		 jmp	 SHORT $LN1@LoadFloat_@2
$LN90@LoadFloat_@2:
  001a4	c6 45 ea eb	 mov	 BYTE PTR __k$[ebp+6], -21 ; ffffffebH
  001a8	eb 21		 jmp	 SHORT $LN1@LoadFloat_@2
$LN91@LoadFloat_@2:
  001aa	88 4d e9	 mov	 BYTE PTR __k$[ebp+5], cl
  001ad	eb 1c		 jmp	 SHORT $LN1@LoadFloat_@2
$LN92@LoadFloat_@2:
  001af	c6 45 e8 ed	 mov	 BYTE PTR __k$[ebp+4], -19 ; ffffffedH
  001b3	eb 16		 jmp	 SHORT $LN1@LoadFloat_@2
$LN93@LoadFloat_@2:
  001b5	c6 45 e7 ea	 mov	 BYTE PTR __k$[ebp+3], -22 ; ffffffeaH
  001b9	eb 10		 jmp	 SHORT $LN1@LoadFloat_@2
$LN94@LoadFloat_@2:
  001bb	c6 45 e6 eb	 mov	 BYTE PTR __k$[ebp+2], -21 ; ffffffebH
  001bf	eb 0a		 jmp	 SHORT $LN1@LoadFloat_@2
$LN95@LoadFloat_@2:
  001c1	c6 45 e5 ec	 mov	 BYTE PTR __k$[ebp+1], -20 ; ffffffecH
  001c5	eb 04		 jmp	 SHORT $LN1@LoadFloat_@2
$LN96@LoadFloat_@2:
  001c7	c6 45 e4 ed	 mov	 BYTE PTR __k$[ebp], -19	; ffffffedH
$LN1@LoadFloat_@2:
  001cb	6a 04		 push	 4
  001cd	8d 45 e4	 lea	 eax, DWORD PTR __k$[ebp]
  001d0	c6 45 f4 00	 mov	 BYTE PTR __k$[ebp+16], 0
  001d4	5a		 pop	 edx
$LL104@LoadFloat_@2:
  001d5	81 30 ed ec eb
	ea		 xor	 DWORD PTR [eax], -353637139 ; eaebecedH
  001db	83 c0 04	 add	 eax, 4
  001de	4a		 dec	 edx
  001df	75 f4		 jne	 SHORT $LL104@LoadFloat_@2

; 137  : 		return LoadFloat(_k, f);

  001e1	f3 0f 10 45 0c	 movss	 xmm0, DWORD PTR _f$[ebp]
  001e6	51		 push	 ecx
  001e7	8d 45 e4	 lea	 eax, DWORD PTR __k$[ebp]
  001ea	f3 0f 11 04 24	 movss	 DWORD PTR [esp], xmm0
  001ef	50		 push	 eax
  001f0	8b ce		 mov	 ecx, esi
  001f2	ff 15 00 00 00
	00		 call	 DWORD PTR __imp_?LoadFloat@ioINILoader@@QAEMPBDM@Z

; 138  : 	}

  001f8	8b 4d fc	 mov	 ecx, DWORD PTR __$ArrayPad$[ebp]
  001fb	33 cd		 xor	 ecx, ebp
  001fd	5e		 pop	 esi
  001fe	e8 00 00 00 00	 call	 @__security_check_cookie@4
  00203	c9		 leave
  00204	c2 08 00	 ret	 8
??$LoadFloat_e@$0BB@@ioINILoader@@QAEMAAY0BB@$$CBDM@Z ENDP ; ioINILoader::LoadFloat_e<17>
_TEXT	ENDS
PUBLIC	_this$GSCopy$
PUBLIC	__$ArrayPad$
PUBLIC	??$LoadString_e@$0P@@ioINILoader@@QAEXAAY0P@$$CBDAAY00$$CBDPADH@Z ; ioINILoader::LoadString_e<15>
EXTRN	__imp_?LoadStringA@ioINILoader@@QAEXPBD0PADH@Z:PROC
; Function compile flags: /Ogsp
;	COMDAT ??$LoadString_e@$0P@@ioINILoader@@QAEXAAY0P@$$CBDAAY00$$CBDPADH@Z
_TEXT	SEGMENT
_this$GSCopy$ = -28					; size = 4
__k$ = -24						; size = 15
__$ArrayPad$ = -4					; size = 4
_k$ = 8							; size = 4
_d$ = 12						; size = 4
_b$ = 16						; size = 4
_i$ = 20						; size = 4
??$LoadString_e@$0P@@ioINILoader@@QAEXAAY0P@$$CBDAAY00$$CBDPADH@Z PROC ; ioINILoader::LoadString_e<15>, COMDAT
; _this$ = ecx

; 161  : 	{

  00000	55		 push	 ebp
  00001	8b ec		 mov	 ebp, esp
  00003	83 ec 1c	 sub	 esp, 28			; 0000001cH
  00006	a1 00 00 00 00	 mov	 eax, DWORD PTR ___security_cookie
  0000b	33 c5		 xor	 eax, ebp
  0000d	89 45 fc	 mov	 DWORD PTR __$ArrayPad$[ebp], eax
  00010	8b 45 08	 mov	 eax, DWORD PTR _k$[ebp]

; 162  : 		_ENCSTR(k, _k);

  00013	8a 10		 mov	 dl, BYTE PTR [eax]
  00015	56		 push	 esi
  00016	8b 75 0c	 mov	 esi, DWORD PTR _d$[ebp]
  00019	57		 push	 edi
  0001a	8b 7d 10	 mov	 edi, DWORD PTR _b$[ebp]
  0001d	89 4d e4	 mov	 DWORD PTR _this$GSCopy$[ebp], ecx
  00020	84 d2		 test	 dl, dl
  00022	0f 84 75 01 00
	00		 je	 $LN96@LoadString
  00028	80 f2 ed	 xor	 dl, -19			; ffffffedH
  0002b	88 55 e8	 mov	 BYTE PTR __k$[ebp], dl
  0002e	8a 50 01	 mov	 dl, BYTE PTR [eax+1]
  00031	84 d2		 test	 dl, dl
  00033	0f 84 5e 01 00
	00		 je	 $LN95@LoadString
  00039	b1 ec		 mov	 cl, -20			; ffffffecH
  0003b	32 d1		 xor	 dl, cl
  0003d	88 55 e9	 mov	 BYTE PTR __k$[ebp+1], dl
  00040	8a 50 02	 mov	 dl, BYTE PTR [eax+2]
  00043	84 d2		 test	 dl, dl
  00045	0f 84 46 01 00
	00		 je	 $LN94@LoadString
  0004b	80 f2 eb	 xor	 dl, -21			; ffffffebH
  0004e	88 55 ea	 mov	 BYTE PTR __k$[ebp+2], dl
  00051	8a 50 03	 mov	 dl, BYTE PTR [eax+3]
  00054	84 d2		 test	 dl, dl
  00056	0f 84 2f 01 00
	00		 je	 $LN93@LoadString
  0005c	80 f2 ea	 xor	 dl, -22			; ffffffeaH
  0005f	88 55 eb	 mov	 BYTE PTR __k$[ebp+3], dl
  00062	8a 50 04	 mov	 dl, BYTE PTR [eax+4]
  00065	84 d2		 test	 dl, dl
  00067	0f 84 18 01 00
	00		 je	 $LN92@LoadString
  0006d	80 f2 ed	 xor	 dl, -19			; ffffffedH
  00070	88 55 ec	 mov	 BYTE PTR __k$[ebp+4], dl
  00073	8a 50 05	 mov	 dl, BYTE PTR [eax+5]
  00076	84 d2		 test	 dl, dl
  00078	0f 84 02 01 00
	00		 je	 $LN91@LoadString
  0007e	32 d1		 xor	 dl, cl
  00080	88 55 ed	 mov	 BYTE PTR __k$[ebp+5], dl
  00083	8a 50 06	 mov	 dl, BYTE PTR [eax+6]
  00086	84 d2		 test	 dl, dl
  00088	0f 84 ec 00 00
	00		 je	 $LN90@LoadString
  0008e	80 f2 eb	 xor	 dl, -21			; ffffffebH
  00091	88 55 ee	 mov	 BYTE PTR __k$[ebp+6], dl
  00094	8a 50 07	 mov	 dl, BYTE PTR [eax+7]
  00097	84 d2		 test	 dl, dl
  00099	0f 84 d5 00 00
	00		 je	 $LN89@LoadString
  0009f	80 f2 ea	 xor	 dl, -22			; ffffffeaH
  000a2	88 55 ef	 mov	 BYTE PTR __k$[ebp+7], dl
  000a5	8a 50 08	 mov	 dl, BYTE PTR [eax+8]
  000a8	84 d2		 test	 dl, dl
  000aa	0f 84 be 00 00
	00		 je	 $LN88@LoadString
  000b0	80 f2 ed	 xor	 dl, -19			; ffffffedH
  000b3	88 55 f0	 mov	 BYTE PTR __k$[ebp+8], dl
  000b6	8a 50 09	 mov	 dl, BYTE PTR [eax+9]
  000b9	84 d2		 test	 dl, dl
  000bb	0f 84 a8 00 00
	00		 je	 $LN87@LoadString
  000c1	32 d1		 xor	 dl, cl
  000c3	88 55 f1	 mov	 BYTE PTR __k$[ebp+9], dl
  000c6	8a 50 0a	 mov	 dl, BYTE PTR [eax+10]
  000c9	84 d2		 test	 dl, dl
  000cb	0f 84 92 00 00
	00		 je	 $LN86@LoadString
  000d1	80 f2 eb	 xor	 dl, -21			; ffffffebH
  000d4	88 55 f2	 mov	 BYTE PTR __k$[ebp+10], dl
  000d7	8a 50 0b	 mov	 dl, BYTE PTR [eax+11]
  000da	84 d2		 test	 dl, dl
  000dc	74 7f		 je	 SHORT $LN85@LoadString
  000de	80 f2 ea	 xor	 dl, -22			; ffffffeaH
  000e1	88 55 f3	 mov	 BYTE PTR __k$[ebp+11], dl
  000e4	8a 50 0c	 mov	 dl, BYTE PTR [eax+12]
  000e7	84 d2		 test	 dl, dl
  000e9	74 6c		 je	 SHORT $LN84@LoadString
  000eb	80 f2 ed	 xor	 dl, -19			; ffffffedH
  000ee	88 55 f4	 mov	 BYTE PTR __k$[ebp+12], dl
  000f1	8a 50 0d	 mov	 dl, BYTE PTR [eax+13]
  000f4	84 d2		 test	 dl, dl
  000f6	74 5a		 je	 SHORT $LN83@LoadString
  000f8	32 d1		 xor	 dl, cl
  000fa	80 78 0e 00	 cmp	 BYTE PTR [eax+14], 0
  000fe	88 55 f5	 mov	 BYTE PTR __k$[ebp+13], dl
  00101	0f 84 9a 00 00
	00		 je	 $LN111@LoadString
  00107	8a 50 0f	 mov	 dl, BYTE PTR [eax+15]
  0010a	84 d2		 test	 dl, dl
  0010c	74 3e		 je	 SHORT $LN81@LoadString
  0010e	80 f2 ea	 xor	 dl, -22			; ffffffeaH
  00111	88 55 f7	 mov	 BYTE PTR __k$[ebp+15], dl
  00114	8a 50 10	 mov	 dl, BYTE PTR [eax+16]
  00117	84 d2		 test	 dl, dl
  00119	74 2b		 je	 SHORT $LN80@LoadString
  0011b	80 f2 ed	 xor	 dl, -19			; ffffffedH
  0011e	88 55 f8	 mov	 BYTE PTR __k$[ebp+16], dl
  00121	8a 50 11	 mov	 dl, BYTE PTR [eax+17]
  00124	84 d2		 test	 dl, dl
  00126	74 19		 je	 SHORT $LN79@LoadString
  00128	8a 40 12	 mov	 al, BYTE PTR [eax+18]
  0012b	32 d1		 xor	 dl, cl
  0012d	88 55 f9	 mov	 BYTE PTR __k$[ebp+17], dl
  00130	84 c0		 test	 al, al
  00132	74 07		 je	 SHORT $LN78@LoadString
  00134	34 eb		 xor	 al, -21			; ffffffebH
  00136	88 45 fa	 mov	 BYTE PTR __k$[ebp+18], al
  00139	eb 66		 jmp	 SHORT $LN111@LoadString
$LN78@LoadString:
  0013b	c6 45 fa eb	 mov	 BYTE PTR __k$[ebp+18], -21 ; ffffffebH
  0013f	eb 60		 jmp	 SHORT $LN111@LoadString
$LN79@LoadString:
  00141	88 4d f9	 mov	 BYTE PTR __k$[ebp+17], cl
  00144	eb 5b		 jmp	 SHORT $LN111@LoadString
$LN80@LoadString:
  00146	c6 45 f8 ed	 mov	 BYTE PTR __k$[ebp+16], -19 ; ffffffedH
  0014a	eb 55		 jmp	 SHORT $LN111@LoadString
$LN81@LoadString:
  0014c	c6 45 f7 ea	 mov	 BYTE PTR __k$[ebp+15], -22 ; ffffffeaH
  00150	eb 4f		 jmp	 SHORT $LN111@LoadString
$LN83@LoadString:
  00152	88 4d f5	 mov	 BYTE PTR __k$[ebp+13], cl
  00155	eb 4a		 jmp	 SHORT $LN111@LoadString
$LN84@LoadString:
  00157	c6 45 f4 ed	 mov	 BYTE PTR __k$[ebp+12], -19 ; ffffffedH
  0015b	eb 44		 jmp	 SHORT $LN111@LoadString
$LN85@LoadString:
  0015d	c6 45 f3 ea	 mov	 BYTE PTR __k$[ebp+11], -22 ; ffffffeaH
  00161	eb 3e		 jmp	 SHORT $LN111@LoadString
$LN86@LoadString:
  00163	c6 45 f2 eb	 mov	 BYTE PTR __k$[ebp+10], -21 ; ffffffebH
  00167	eb 38		 jmp	 SHORT $LN111@LoadString
$LN87@LoadString:
  00169	88 4d f1	 mov	 BYTE PTR __k$[ebp+9], cl
  0016c	eb 33		 jmp	 SHORT $LN111@LoadString
$LN88@LoadString:
  0016e	c6 45 f0 ed	 mov	 BYTE PTR __k$[ebp+8], -19 ; ffffffedH
  00172	eb 2d		 jmp	 SHORT $LN111@LoadString
$LN89@LoadString:
  00174	c6 45 ef ea	 mov	 BYTE PTR __k$[ebp+7], -22 ; ffffffeaH
  00178	eb 27		 jmp	 SHORT $LN111@LoadString
$LN90@LoadString:
  0017a	c6 45 ee eb	 mov	 BYTE PTR __k$[ebp+6], -21 ; ffffffebH
  0017e	eb 21		 jmp	 SHORT $LN111@LoadString
$LN91@LoadString:
  00180	88 4d ed	 mov	 BYTE PTR __k$[ebp+5], cl
  00183	eb 1c		 jmp	 SHORT $LN111@LoadString
$LN92@LoadString:
  00185	c6 45 ec ed	 mov	 BYTE PTR __k$[ebp+4], -19 ; ffffffedH
  00189	eb 16		 jmp	 SHORT $LN111@LoadString
$LN93@LoadString:
  0018b	c6 45 eb ea	 mov	 BYTE PTR __k$[ebp+3], -22 ; ffffffeaH
  0018f	eb 10		 jmp	 SHORT $LN111@LoadString
$LN94@LoadString:
  00191	c6 45 ea eb	 mov	 BYTE PTR __k$[ebp+2], -21 ; ffffffebH
  00195	eb 0a		 jmp	 SHORT $LN111@LoadString
$LN95@LoadString:
  00197	c6 45 e9 ec	 mov	 BYTE PTR __k$[ebp+1], -20 ; ffffffecH
  0019b	eb 04		 jmp	 SHORT $LN111@LoadString
$LN96@LoadString:
  0019d	c6 45 e8 ed	 mov	 BYTE PTR __k$[ebp], -19	; ffffffedH
$LN111@LoadString:
  001a1	6a 03		 push	 3
  001a3	8d 45 e8	 lea	 eax, DWORD PTR __k$[ebp]
  001a6	c6 45 f6 00	 mov	 BYTE PTR __k$[ebp+14], 0
  001aa	5a		 pop	 edx
$LL104@LoadString:
  001ab	81 30 ed ec eb
	ea		 xor	 DWORD PTR [eax], -353637139 ; eaebecedH
  001b1	83 c0 04	 add	 eax, 4
  001b4	4a		 dec	 edx
  001b5	75 f4		 jne	 SHORT $LL104@LoadString
  001b7	6a 0c		 push	 12			; 0000000cH
  001b9	58		 pop	 eax
$LL101@LoadString:
  001ba	8b c8		 mov	 ecx, eax
  001bc	81 e1 03 00 00
	80		 and	 ecx, -2147483645	; 80000003H
  001c2	79 05		 jns	 SHORT $LN112@LoadString
  001c4	49		 dec	 ecx
  001c5	83 c9 fc	 or	 ecx, -4			; fffffffcH
  001c8	41		 inc	 ecx
$LN112@LoadString:
  001c9	b2 ed		 mov	 dl, -19			; ffffffedH
  001cb	2a d1		 sub	 dl, cl
  001cd	30 54 05 e8	 xor	 BYTE PTR __k$[ebp+eax], dl
  001d1	40		 inc	 eax
  001d2	83 f8 0e	 cmp	 eax, 14			; 0000000eH
  001d5	7c e3		 jl	 SHORT $LL101@LoadString

; 163  : 		LoadString(_k, d, b, i);

  001d7	ff 75 14	 push	 DWORD PTR _i$[ebp]
  001da	8b 4d e4	 mov	 ecx, DWORD PTR _this$GSCopy$[ebp]
  001dd	57		 push	 edi
  001de	56		 push	 esi
  001df	8d 45 e8	 lea	 eax, DWORD PTR __k$[ebp]
  001e2	50		 push	 eax
  001e3	ff 15 00 00 00
	00		 call	 DWORD PTR __imp_?LoadStringA@ioINILoader@@QAEXPBD0PADH@Z

; 164  : 	}

  001e9	8b 4d fc	 mov	 ecx, DWORD PTR __$ArrayPad$[ebp]
  001ec	5f		 pop	 edi
  001ed	33 cd		 xor	 ecx, ebp
  001ef	5e		 pop	 esi
  001f0	e8 00 00 00 00	 call	 @__security_check_cookie@4
  001f5	c9		 leave
  001f6	c2 10 00	 ret	 16			; 00000010H
??$LoadString_e@$0P@@ioINILoader@@QAEXAAY0P@$$CBDAAY00$$CBDPADH@Z ENDP ; ioINILoader::LoadString_e<15>
_TEXT	ENDS
PUBLIC	__$ArrayPad$
PUBLIC	??$LoadInt_e@$06@ioINILoader@@QAEHAAY06$$CBDH@Z	; ioINILoader::LoadInt_e<7>
; Function compile flags: /Ogsp
;	COMDAT ??$LoadInt_e@$06@ioINILoader@@QAEHAAY06$$CBDH@Z
_TEXT	SEGMENT
__k$ = -16						; size = 7
__$ArrayPad$ = -4					; size = 4
_k$ = 8							; size = 4
_i$ = 12						; size = 4
??$LoadInt_e@$06@ioINILoader@@QAEHAAY06$$CBDH@Z PROC	; ioINILoader::LoadInt_e<7>, COMDAT
; _this$ = ecx

; 118  : 	{

  00000	55		 push	 ebp
  00001	8b ec		 mov	 ebp, esp
  00003	83 ec 10	 sub	 esp, 16			; 00000010H
  00006	a1 00 00 00 00	 mov	 eax, DWORD PTR ___security_cookie
  0000b	33 c5		 xor	 eax, ebp
  0000d	89 45 fc	 mov	 DWORD PTR __$ArrayPad$[ebp], eax
  00010	8b 45 08	 mov	 eax, DWORD PTR _k$[ebp]

; 119  : 		_ENCSTR(k, _k);

  00013	8a 10		 mov	 dl, BYTE PTR [eax]
  00015	56		 push	 esi
  00016	8b f1		 mov	 esi, ecx
  00018	84 d2		 test	 dl, dl
  0001a	0f 84 c0 00 00
	00		 je	 $LN96@LoadInt_e@2
  00020	80 f2 ed	 xor	 dl, -19			; ffffffedH
  00023	88 55 f0	 mov	 BYTE PTR __k$[ebp], dl
  00026	8a 50 01	 mov	 dl, BYTE PTR [eax+1]
  00029	84 d2		 test	 dl, dl
  0002b	0f 84 a9 00 00
	00		 je	 $LN95@LoadInt_e@2
  00031	80 f2 ec	 xor	 dl, -20			; ffffffecH
  00034	88 55 f1	 mov	 BYTE PTR __k$[ebp+1], dl
  00037	8a 50 02	 mov	 dl, BYTE PTR [eax+2]
  0003a	84 d2		 test	 dl, dl
  0003c	0f 84 92 00 00
	00		 je	 $LN94@LoadInt_e@2
  00042	80 f2 eb	 xor	 dl, -21			; ffffffebH
  00045	88 55 f2	 mov	 BYTE PTR __k$[ebp+2], dl
  00048	8a 50 03	 mov	 dl, BYTE PTR [eax+3]
  0004b	84 d2		 test	 dl, dl
  0004d	74 7f		 je	 SHORT $LN93@LoadInt_e@2
  0004f	80 f2 ea	 xor	 dl, -22			; ffffffeaH
  00052	88 55 f3	 mov	 BYTE PTR __k$[ebp+3], dl
  00055	8a 50 04	 mov	 dl, BYTE PTR [eax+4]
  00058	84 d2		 test	 dl, dl
  0005a	74 6c		 je	 SHORT $LN92@LoadInt_e@2
  0005c	80 f2 ed	 xor	 dl, -19			; ffffffedH
  0005f	88 55 f4	 mov	 BYTE PTR __k$[ebp+4], dl
  00062	8a 50 05	 mov	 dl, BYTE PTR [eax+5]
  00065	84 d2		 test	 dl, dl
  00067	74 59		 je	 SHORT $LN91@LoadInt_e@2
  00069	80 f2 ec	 xor	 dl, -20			; ffffffecH
  0006c	80 78 06 00	 cmp	 BYTE PTR [eax+6], 0
  00070	88 55 f5	 mov	 BYTE PTR __k$[ebp+5], dl
  00073	74 6f		 je	 SHORT $LN1@LoadInt_e@2
  00075	8a 50 07	 mov	 dl, BYTE PTR [eax+7]
  00078	84 d2		 test	 dl, dl
  0007a	74 40		 je	 SHORT $LN89@LoadInt_e@2
  0007c	80 f2 ea	 xor	 dl, -22			; ffffffeaH
  0007f	88 55 f7	 mov	 BYTE PTR __k$[ebp+7], dl
  00082	8a 50 08	 mov	 dl, BYTE PTR [eax+8]
  00085	84 d2		 test	 dl, dl
  00087	74 2d		 je	 SHORT $LN88@LoadInt_e@2
  00089	80 f2 ed	 xor	 dl, -19			; ffffffedH
  0008c	88 55 f8	 mov	 BYTE PTR __k$[ebp+8], dl
  0008f	8a 50 09	 mov	 dl, BYTE PTR [eax+9]
  00092	84 d2		 test	 dl, dl
  00094	74 1a		 je	 SHORT $LN87@LoadInt_e@2
  00096	8a 40 0a	 mov	 al, BYTE PTR [eax+10]
  00099	80 f2 ec	 xor	 dl, -20			; ffffffecH
  0009c	88 55 f9	 mov	 BYTE PTR __k$[ebp+9], dl
  0009f	84 c0		 test	 al, al
  000a1	74 07		 je	 SHORT $LN86@LoadInt_e@2
  000a3	34 eb		 xor	 al, -21			; ffffffebH
  000a5	88 45 fa	 mov	 BYTE PTR __k$[ebp+10], al
  000a8	eb 3a		 jmp	 SHORT $LN1@LoadInt_e@2
$LN86@LoadInt_e@2:
  000aa	c6 45 fa eb	 mov	 BYTE PTR __k$[ebp+10], -21 ; ffffffebH
  000ae	eb 34		 jmp	 SHORT $LN1@LoadInt_e@2
$LN87@LoadInt_e@2:
  000b0	c6 45 f9 ec	 mov	 BYTE PTR __k$[ebp+9], -20 ; ffffffecH
  000b4	eb 2e		 jmp	 SHORT $LN1@LoadInt_e@2
$LN88@LoadInt_e@2:
  000b6	c6 45 f8 ed	 mov	 BYTE PTR __k$[ebp+8], -19 ; ffffffedH
  000ba	eb 28		 jmp	 SHORT $LN1@LoadInt_e@2
$LN89@LoadInt_e@2:
  000bc	c6 45 f7 ea	 mov	 BYTE PTR __k$[ebp+7], -22 ; ffffffeaH
  000c0	eb 22		 jmp	 SHORT $LN1@LoadInt_e@2
$LN91@LoadInt_e@2:
  000c2	c6 45 f5 ec	 mov	 BYTE PTR __k$[ebp+5], -20 ; ffffffecH
  000c6	eb 1c		 jmp	 SHORT $LN1@LoadInt_e@2
$LN92@LoadInt_e@2:
  000c8	c6 45 f4 ed	 mov	 BYTE PTR __k$[ebp+4], -19 ; ffffffedH
  000cc	eb 16		 jmp	 SHORT $LN1@LoadInt_e@2
$LN93@LoadInt_e@2:
  000ce	c6 45 f3 ea	 mov	 BYTE PTR __k$[ebp+3], -22 ; ffffffeaH
  000d2	eb 10		 jmp	 SHORT $LN1@LoadInt_e@2
$LN94@LoadInt_e@2:
  000d4	c6 45 f2 eb	 mov	 BYTE PTR __k$[ebp+2], -21 ; ffffffebH
  000d8	eb 0a		 jmp	 SHORT $LN1@LoadInt_e@2
$LN95@LoadInt_e@2:
  000da	c6 45 f1 ec	 mov	 BYTE PTR __k$[ebp+1], -20 ; ffffffecH
  000de	eb 04		 jmp	 SHORT $LN1@LoadInt_e@2
$LN96@LoadInt_e@2:
  000e0	c6 45 f0 ed	 mov	 BYTE PTR __k$[ebp], -19	; ffffffedH
$LN1@LoadInt_e@2:
  000e4	81 75 f0 ed ec
	eb ea		 xor	 DWORD PTR __k$[ebp], -353637139 ; eaebecedH
  000eb	6a 04		 push	 4
  000ed	c6 45 f6 00	 mov	 BYTE PTR __k$[ebp+6], 0
  000f1	58		 pop	 eax
$LL101@LoadInt_e@2:
  000f2	8b c8		 mov	 ecx, eax
  000f4	81 e1 03 00 00
	80		 and	 ecx, -2147483645	; 80000003H
  000fa	79 05		 jns	 SHORT $LN111@LoadInt_e@2
  000fc	49		 dec	 ecx
  000fd	83 c9 fc	 or	 ecx, -4			; fffffffcH
  00100	41		 inc	 ecx
$LN111@LoadInt_e@2:
  00101	b2 ed		 mov	 dl, -19			; ffffffedH
  00103	2a d1		 sub	 dl, cl
  00105	30 54 05 f0	 xor	 BYTE PTR __k$[ebp+eax], dl
  00109	40		 inc	 eax
  0010a	83 f8 06	 cmp	 eax, 6
  0010d	7c e3		 jl	 SHORT $LL101@LoadInt_e@2

; 120  : 		return LoadInt(_k, i);

  0010f	ff 75 0c	 push	 DWORD PTR _i$[ebp]
  00112	8d 45 f0	 lea	 eax, DWORD PTR __k$[ebp]
  00115	50		 push	 eax
  00116	8b ce		 mov	 ecx, esi
  00118	ff 15 00 00 00
	00		 call	 DWORD PTR __imp_?LoadInt@ioINILoader@@QAEHPBDH@Z

; 121  : 	}

  0011e	8b 4d fc	 mov	 ecx, DWORD PTR __$ArrayPad$[ebp]
  00121	33 cd		 xor	 ecx, ebp
  00123	5e		 pop	 esi
  00124	e8 00 00 00 00	 call	 @__security_check_cookie@4
  00129	c9		 leave
  0012a	c2 08 00	 ret	 8
??$LoadInt_e@$06@ioINILoader@@QAEHAAY06$$CBDH@Z ENDP	; ioINILoader::LoadInt_e<7>
_TEXT	ENDS
PUBLIC	__real@3fd2ee0d320154cb
PUBLIC	__real@41f0000000000000
PUBLIC	??$RADtoDEG@M@@YAMM@Z				; RADtoDEG<float>
;	COMDAT __real@3fd2ee0d320154cb
; File d:\lost saga for developer\youtube\tutorial\source\src\lsclient\veryoftenusedefine.h
CONST	SEGMENT
__real@3fd2ee0d320154cb DQ 03fd2ee0d320154cbr	; 0.29578
CONST	ENDS
;	COMDAT __real@41f0000000000000
CONST	SEGMENT
__real@41f0000000000000 DQ 041f0000000000000r	; 4.29497e+009
; Function compile flags: /Ogsp
CONST	ENDS
;	COMDAT ??$RADtoDEG@M@@YAMM@Z
_TEXT	SEGMENT
tv130 = -4						; size = 4
tv75 = 8						; size = 4
_val$ = 8						; size = 4
??$RADtoDEG@M@@YAMM@Z PROC				; RADtoDEG<float>, COMDAT

; 18   : type  RADtoDEG (type val) {return (type) (val * (return57() + 0.2957795132)); }

  00000	55		 push	 ebp
  00001	8b ec		 mov	 ebp, esp
  00003	51		 push	 ecx
  00004	b8 39 00 00 00	 mov	 eax, 57			; 00000039H
  00009	89 45 fc	 mov	 DWORD PTR tv130[ebp], eax
  0000c	db 45 fc	 fild	 DWORD PTR tv130[ebp]
  0000f	85 c0		 test	 eax, eax
  00011	79 06		 jns	 SHORT $LN5@RADtoDEG
  00013	dc 05 00 00 00
	00		 fadd	 QWORD PTR __real@41f0000000000000
$LN5@RADtoDEG:
  00019	dc 05 00 00 00
	00		 fadd	 QWORD PTR __real@3fd2ee0d320154cb
  0001f	d8 4d 08	 fmul	 DWORD PTR _val$[ebp]
  00022	d9 5d 08	 fstp	 DWORD PTR tv75[ebp]
  00025	d9 45 08	 fld	 DWORD PTR tv75[ebp]
  00028	c9		 leave
  00029	c3		 ret	 0
??$RADtoDEG@M@@YAMM@Z ENDP				; RADtoDEG<float>
_TEXT	ENDS
PUBLIC	??$_Cons_val@V?$allocator@UDefenseData@ioDefenseController@@@std@@UDefenseData@ioDefenseController@@AAU34@@std@@YAXAAV?$allocator@UDefenseData@ioDefenseController@@@0@PAUDefenseData@ioDefenseController@@AAU23@@Z ; std::_Cons_val<std::allocator<ioDefenseController::DefenseData>,ioDefenseController::DefenseData,ioDefenseController::DefenseData &>
; Function compile flags: /Ogsp
; File c:\program files (x86)\microsoft visual studio 10.0\vc\include\xmemory
;	COMDAT ??$_Cons_val@V?$allocator@UDefenseData@ioDefenseController@@@std@@UDefenseData@ioDefenseController@@AAU34@@std@@YAXAAV?$allocator@UDefenseData@ioDefenseController@@@0@PAUDefenseData@ioDefenseController@@AAU23@@Z
_TEXT	SEGMENT
__Alval$ = 8						; size = 4
__Pdest$ = 12						; size = 4
__Src$ = 16						; size = 4
??$_Cons_val@V?$allocator@UDefenseData@ioDefenseController@@@std@@UDefenseData@ioDefenseController@@AAU34@@std@@YAXAAV?$allocator@UDefenseData@ioDefenseController@@@0@PAUDefenseData@ioDefenseController@@AAU23@@Z PROC ; std::_Cons_val<std::allocator<ioDefenseController::DefenseData>,ioDefenseController::DefenseData,ioDefenseController::DefenseData &>, COMDAT

; 279  : 	{	// construct using allocator

  00000	55		 push	 ebp
  00001	8b ec		 mov	 ebp, esp

; 280  : 	_Alval.construct(_Pdest, _STD forward<_Ty2>(_Src));

  00003	8b 45 0c	 mov	 eax, DWORD PTR __Pdest$[ebp]
  00006	85 c0		 test	 eax, eax
  00008	74 0d		 je	 SHORT $LN7@Cons_val
  0000a	8b 4d 10	 mov	 ecx, DWORD PTR __Src$[ebp]
  0000d	8b 11		 mov	 edx, DWORD PTR [ecx]
  0000f	89 10		 mov	 DWORD PTR [eax], edx
  00011	8b 49 04	 mov	 ecx, DWORD PTR [ecx+4]
  00014	89 48 04	 mov	 DWORD PTR [eax+4], ecx
$LN7@Cons_val:

; 281  : 	}

  00017	5d		 pop	 ebp
  00018	c3		 ret	 0
??$_Cons_val@V?$allocator@UDefenseData@ioDefenseController@@@std@@UDefenseData@ioDefenseController@@AAU34@@std@@YAXAAV?$allocator@UDefenseData@ioDefenseController@@@0@PAUDefenseData@ioDefenseController@@AAU23@@Z ENDP ; std::_Cons_val<std::allocator<ioDefenseController::DefenseData>,ioDefenseController::DefenseData,ioDefenseController::DefenseData &>
_TEXT	ENDS
PUBLIC	?construct@?$allocator@UDefenseData@ioDefenseController@@@std@@QAEXPAUDefenseData@ioDefenseController@@ABU34@@Z ; std::allocator<ioDefenseController::DefenseData>::construct
; Function compile flags: /Ogsp
;	COMDAT ?construct@?$allocator@UDefenseData@ioDefenseController@@@std@@QAEXPAUDefenseData@ioDefenseController@@ABU34@@Z
_TEXT	SEGMENT
__Ptr$ = 8						; size = 4
__Val$ = 12						; size = 4
?construct@?$allocator@UDefenseData@ioDefenseController@@@std@@QAEXPAUDefenseData@ioDefenseController@@ABU34@@Z PROC ; std::allocator<ioDefenseController::DefenseData>::construct, COMDAT
; _this$ = ecx

; 196  : 		{	// construct object at _Ptr with value _Val

  00000	55		 push	 ebp
  00001	8b ec		 mov	 ebp, esp

; 197  : 		_Construct(_Ptr, _Val);

  00003	8b 45 08	 mov	 eax, DWORD PTR __Ptr$[ebp]
  00006	85 c0		 test	 eax, eax
  00008	74 0d		 je	 SHORT $LN5@construct@3
  0000a	8b 4d 0c	 mov	 ecx, DWORD PTR __Val$[ebp]
  0000d	8b 11		 mov	 edx, DWORD PTR [ecx]
  0000f	89 10		 mov	 DWORD PTR [eax], edx
  00011	8b 49 04	 mov	 ecx, DWORD PTR [ecx+4]
  00014	89 48 04	 mov	 DWORD PTR [eax+4], ecx
$LN5@construct@3:

; 198  : 		}

  00017	5d		 pop	 ebp
  00018	c2 08 00	 ret	 8
?construct@?$allocator@UDefenseData@ioDefenseController@@@std@@QAEXPAUDefenseData@ioDefenseController@@ABU34@@Z ENDP ; std::allocator<ioDefenseController::DefenseData>::construct
_TEXT	ENDS
PUBLIC	?max_size@?$_Tree@V?$_Tmap_traits@KUDefenseList@ioDefenseController@@U?$less@K@std@@V?$allocator@U?$pair@$$CBKUDefenseList@ioDefenseController@@@std@@@4@$0A@@std@@@std@@QBEIXZ ; std::_Tree<std::_Tmap_traits<unsigned long,ioDefenseController::DefenseList,std::less<unsigned long>,std::allocator<std::pair<unsigned long const ,ioDefenseController::DefenseList> >,0> >::max_size
; Function compile flags: /Ogsp
; File c:\program files (x86)\microsoft visual studio 10.0\vc\include\xtree
;	COMDAT ?max_size@?$_Tree@V?$_Tmap_traits@KUDefenseList@ioDefenseController@@U?$less@K@std@@V?$allocator@U?$pair@$$CBKUDefenseList@ioDefenseController@@@std@@@4@$0A@@std@@@std@@QBEIXZ
_TEXT	SEGMENT
?max_size@?$_Tree@V?$_Tmap_traits@KUDefenseList@ioDefenseController@@U?$less@K@std@@V?$allocator@U?$pair@$$CBKUDefenseList@ioDefenseController@@@std@@@4@$0A@@std@@@std@@QBEIXZ PROC ; std::_Tree<std::_Tmap_traits<unsigned long,ioDefenseController::DefenseList,std::less<unsigned long>,std::allocator<std::pair<unsigned long const ,ioDefenseController::DefenseList> >,0> >::max_size, COMDAT
; _this$ = ecx

; 874  : 		return (this->_Alval.max_size());

  00000	b8 55 55 55 05	 mov	 eax, 89478485		; 05555555H

; 875  : 		}

  00005	c3		 ret	 0
?max_size@?$_Tree@V?$_Tmap_traits@KUDefenseList@ioDefenseController@@U?$less@K@std@@V?$allocator@U?$pair@$$CBKUDefenseList@ioDefenseController@@@std@@@4@$0A@@std@@@std@@QBEIXZ ENDP ; std::_Tree<std::_Tmap_traits<unsigned long,ioDefenseController::DefenseList,std::less<unsigned long>,std::allocator<std::pair<unsigned long const ,ioDefenseController::DefenseList> >,0> >::max_size
_TEXT	ENDS
PUBLIC	??F?$_Tree_const_iterator@V?$_Tree_val@V?$_Tmap_traits@KUDefenseList@ioDefenseController@@U?$less@K@std@@V?$allocator@U?$pair@$$CBKUDefenseList@ioDefenseController@@@std@@@4@$0A@@std@@@std@@@std@@QAEAAV01@XZ ; std::_Tree_const_iterator<std::_Tree_val<std::_Tmap_traits<unsigned long,ioDefenseController::DefenseList,std::less<unsigned long>,std::allocator<std::pair<unsigned long const ,ioDefenseController::DefenseList> >,0> > >::operator--
; Function compile flags: /Ogsp
;	COMDAT ??F?$_Tree_const_iterator@V?$_Tree_val@V?$_Tmap_traits@KUDefenseList@ioDefenseController@@U?$less@K@std@@V?$allocator@U?$pair@$$CBKUDefenseList@ioDefenseController@@@std@@@4@$0A@@std@@@std@@@std@@QAEAAV01@XZ
_TEXT	SEGMENT
??F?$_Tree_const_iterator@V?$_Tree_val@V?$_Tmap_traits@KUDefenseList@ioDefenseController@@U?$less@K@std@@V?$allocator@U?$pair@$$CBKUDefenseList@ioDefenseController@@@std@@@4@$0A@@std@@@std@@@std@@QAEAAV01@XZ PROC ; std::_Tree_const_iterator<std::_Tree_val<std::_Tmap_traits<unsigned long,ioDefenseController::DefenseList,std::less<unsigned long>,std::allocator<std::pair<unsigned long const ,ioDefenseController::DefenseList> >,0> > >::operator--, COMDAT
; _this$ = ecx

; 277  : 		{	// predecrement

  00000	56		 push	 esi
  00001	8b f1		 mov	 esi, ecx

; 278  :  #if _ITERATOR_DEBUG_LEVEL == 2
; 279  : 		if (this->_Getcont() == 0
; 280  : 			|| this->_Ptr == 0)
; 281  : 			{	// report error
; 282  : 			_DEBUG_ERROR("map/set iterator not decrementable");
; 283  : 			_SCL_SECURE_OUT_OF_RANGE;
; 284  : 			}
; 285  : 
; 286  : 		_Nodeptr _Ptrsav = this->_Ptr;
; 287  : 		--(*(_Mybase *)this);
; 288  : 		if (_Ptrsav == this->_Ptr)
; 289  : 			{	// report error
; 290  : 			_DEBUG_ERROR("map/set iterator not decrementable");
; 291  : 			_SCL_SECURE_OUT_OF_RANGE;
; 292  : 			}
; 293  : 
; 294  :  #elif _ITERATOR_DEBUG_LEVEL == 1
; 295  : 		_SCL_SECURE_VALIDATE(this->_Getcont() != 0 && this->_Ptr != 0);
; 296  : 
; 297  : 		_Nodeptr _Ptrsav = this->_Ptr;
; 298  : 		--(*(_Mybase *)this);
; 299  : 		_SCL_SECURE_VALIDATE(_Ptrsav != this->_Ptr);
; 300  : 
; 301  :  #else /* _ITERATOR_DEBUG_LEVEL == 0 */
; 302  : 		--(*(_Mybase *)this);

  00003	e8 00 00 00 00	 call	 ??F?$_Tree_unchecked_const_iterator@V?$_Tree_val@V?$_Tmap_traits@KUDefenseList@ioDefenseController@@U?$less@K@std@@V?$allocator@U?$pair@$$CBKUDefenseList@ioDefenseController@@@std@@@4@$0A@@std@@@std@@U_Iterator_base0@2@@std@@QAEAAV01@XZ ; std::_Tree_unchecked_const_iterator<std::_Tree_val<std::_Tmap_traits<unsigned long,ioDefenseController::DefenseList,std::less<unsigned long>,std::allocator<std::pair<unsigned long const ,ioDefenseController::DefenseList> >,0> >,std::_Iterator_base0>::operator--

; 303  :  #endif /* _ITERATOR_DEBUG_LEVEL */
; 304  : 
; 305  : 		return (*this);

  00008	8b c6		 mov	 eax, esi
  0000a	5e		 pop	 esi

; 306  : 		}

  0000b	c3		 ret	 0
??F?$_Tree_const_iterator@V?$_Tree_val@V?$_Tmap_traits@KUDefenseList@ioDefenseController@@U?$less@K@std@@V?$allocator@U?$pair@$$CBKUDefenseList@ioDefenseController@@@std@@@4@$0A@@std@@@std@@@std@@QAEAAV01@XZ ENDP ; std::_Tree_const_iterator<std::_Tree_val<std::_Tmap_traits<unsigned long,ioDefenseController::DefenseList,std::less<unsigned long>,std::allocator<std::pair<unsigned long const ,ioDefenseController::DefenseList> >,0> > >::operator--
_TEXT	ENDS
PUBLIC	??0?$_Pair_base@V?$_Tree_iterator@V?$_Tree_val@V?$_Tmap_traits@KUDefenseList@ioDefenseController@@U?$less@K@std@@V?$allocator@U?$pair@$$CBKUDefenseList@ioDefenseController@@@std@@@4@$0A@@std@@@std@@@std@@_N@std@@QAE@$$QAV?$_Tree_iterator@V?$_Tree_val@V?$_Tmap_traits@KUDefenseList@ioDefenseController@@U?$less@K@std@@V?$allocator@U?$pair@$$CBKUDefenseList@ioDefenseController@@@std@@@4@$0A@@std@@@std@@@1@$$QA_N@Z ; std::_Pair_base<std::_Tree_iterator<std::_Tree_val<std::_Tmap_traits<unsigned long,ioDefenseController::DefenseList,std::less<unsigned long>,std::allocator<std::pair<unsigned long const ,ioDefenseController::DefenseList> >,0> > >,bool>::_Pair_base<std::_Tree_iterator<std::_Tree_val<std::_Tmap_traits<unsigned long,ioDefenseController::DefenseList,std::less<unsigned long>,std::allocator<std::pair<unsigned long const ,ioDefenseController::DefenseList> >,0> > >,bool>
; Function compile flags: /Ogsp
; File c:\program files (x86)\microsoft visual studio 10.0\vc\include\utility
;	COMDAT ??0?$_Pair_base@V?$_Tree_iterator@V?$_Tree_val@V?$_Tmap_traits@KUDefenseList@ioDefenseController@@U?$less@K@std@@V?$allocator@U?$pair@$$CBKUDefenseList@ioDefenseController@@@std@@@4@$0A@@std@@@std@@@std@@_N@std@@QAE@$$QAV?$_Tree_iterator@V?$_Tree_val@V?$_Tmap_traits@KUDefenseList@ioDefenseController@@U?$less@K@std@@V?$allocator@U?$pair@$$CBKUDefenseList@ioDefenseController@@@std@@@4@$0A@@std@@@std@@@1@$$QA_N@Z
_TEXT	SEGMENT
__Val1$ = 8						; size = 4
__Val2$ = 12						; size = 4
??0?$_Pair_base@V?$_Tree_iterator@V?$_Tree_val@V?$_Tmap_traits@KUDefenseList@ioDefenseController@@U?$less@K@std@@V?$allocator@U?$pair@$$CBKUDefenseList@ioDefenseController@@@std@@@4@$0A@@std@@@std@@@std@@_N@std@@QAE@$$QAV?$_Tree_iterator@V?$_Tree_val@V?$_Tmap_traits@KUDefenseList@ioDefenseController@@U?$less@K@std@@V?$allocator@U?$pair@$$CBKUDefenseList@ioDefenseController@@@std@@@4@$0A@@std@@@std@@@1@$$QA_N@Z PROC ; std::_Pair_base<std::_Tree_iterator<std::_Tree_val<std::_Tmap_traits<unsigned long,ioDefenseController::DefenseList,std::less<unsigned long>,std::allocator<std::pair<unsigned long const ,ioDefenseController::DefenseList> >,0> > >,bool>::_Pair_base<std::_Tree_iterator<std::_Tree_val<std::_Tmap_traits<unsigned long,ioDefenseController::DefenseList,std::less<unsigned long>,std::allocator<std::pair<unsigned long const ,ioDefenseController::DefenseList> >,0> > >,bool>, COMDAT
; _this$ = ecx

; 145  : 		{	// construct from specified values

  00000	55		 push	 ebp
  00001	8b ec		 mov	 ebp, esp
  00003	8b c1		 mov	 eax, ecx
  00005	8b 4d 08	 mov	 ecx, DWORD PTR __Val1$[ebp]
  00008	8b 09		 mov	 ecx, DWORD PTR [ecx]
  0000a	89 08		 mov	 DWORD PTR [eax], ecx
  0000c	8b 4d 0c	 mov	 ecx, DWORD PTR __Val2$[ebp]
  0000f	8a 09		 mov	 cl, BYTE PTR [ecx]
  00011	88 48 04	 mov	 BYTE PTR [eax+4], cl

; 146  : 		}

  00014	5d		 pop	 ebp
  00015	c2 08 00	 ret	 8
??0?$_Pair_base@V?$_Tree_iterator@V?$_Tree_val@V?$_Tmap_traits@KUDefenseList@ioDefenseController@@U?$less@K@std@@V?$allocator@U?$pair@$$CBKUDefenseList@ioDefenseController@@@std@@@4@$0A@@std@@@std@@@std@@_N@std@@QAE@$$QAV?$_Tree_iterator@V?$_Tree_val@V?$_Tmap_traits@KUDefenseList@ioDefenseController@@U?$less@K@std@@V?$allocator@U?$pair@$$CBKUDefenseList@ioDefenseController@@@std@@@4@$0A@@std@@@std@@@1@$$QA_N@Z ENDP ; std::_Pair_base<std::_Tree_iterator<std::_Tree_val<std::_Tmap_traits<unsigned long,ioDefenseController::DefenseList,std::less<unsigned long>,std::allocator<std::pair<unsigned long const ,ioDefenseController::DefenseList> >,0> > >,bool>::_Pair_base<std::_Tree_iterator<std::_Tree_val<std::_Tmap_traits<unsigned long,ioDefenseController::DefenseList,std::less<unsigned long>,std::allocator<std::pair<unsigned long const ,ioDefenseController::DefenseList> >,0> > >,bool>
_TEXT	ENDS
PUBLIC	??$_Move@PAUDefenseData@ioDefenseController@@PAU12@@std@@YAPAUDefenseData@ioDefenseController@@PAU12@00U_Nonscalar_ptr_iterator_tag@0@@Z ; std::_Move<ioDefenseController::DefenseData *,ioDefenseController::DefenseData *>
; Function compile flags: /Ogsp
; File c:\program files (x86)\microsoft visual studio 10.0\vc\include\xutility
;	COMDAT ??$_Move@PAUDefenseData@ioDefenseController@@PAU12@@std@@YAPAUDefenseData@ioDefenseController@@PAU12@00U_Nonscalar_ptr_iterator_tag@0@@Z
_TEXT	SEGMENT
__First$ = 8						; size = 4
__Last$ = 12						; size = 4
__Dest$ = 16						; size = 4
___formal$ = 20						; size = 1
??$_Move@PAUDefenseData@ioDefenseController@@PAU12@@std@@YAPAUDefenseData@ioDefenseController@@PAU12@00U_Nonscalar_ptr_iterator_tag@0@@Z PROC ; std::_Move<ioDefenseController::DefenseData *,ioDefenseController::DefenseData *>, COMDAT

; 2512 : 	{	// move [_First, _Last) to [_Dest, ...), arbitrary iterators

  00000	55		 push	 ebp
  00001	8b ec		 mov	 ebp, esp

; 2513 : 	for (; _First != _Last; ++_Dest, ++_First)

  00003	8b 4d 08	 mov	 ecx, DWORD PTR __First$[ebp]
  00006	8b 45 10	 mov	 eax, DWORD PTR __Dest$[ebp]
$LN11@Move:
  00009	3b 4d 0c	 cmp	 ecx, DWORD PTR __Last$[ebp]
  0000c	74 12		 je	 SHORT $LN1@Move

; 2514 : 		*_Dest = _STD move(*_First);

  0000e	8b 11		 mov	 edx, DWORD PTR [ecx]
  00010	89 10		 mov	 DWORD PTR [eax], edx
  00012	8b 51 04	 mov	 edx, DWORD PTR [ecx+4]
  00015	89 50 04	 mov	 DWORD PTR [eax+4], edx
  00018	83 c0 08	 add	 eax, 8
  0001b	83 c1 08	 add	 ecx, 8
  0001e	eb e9		 jmp	 SHORT $LN11@Move
$LN1@Move:

; 2515 : 	return (_Dest);
; 2516 : 	}

  00020	5d		 pop	 ebp
  00021	c3		 ret	 0
??$_Move@PAUDefenseData@ioDefenseController@@PAU12@@std@@YAPAUDefenseData@ioDefenseController@@PAU12@00U_Nonscalar_ptr_iterator_tag@0@@Z ENDP ; std::_Move<ioDefenseController::DefenseData *,ioDefenseController::DefenseData *>
_TEXT	ENDS
PUBLIC	?_Buynode@?$_Tree_val@V?$_Tmap_traits@KUDefenseList@ioDefenseController@@U?$less@K@std@@V?$allocator@U?$pair@$$CBKUDefenseList@ioDefenseController@@@std@@@4@$0A@@std@@@std@@QAEPAU_Node@?$_Tree_nod@V?$_Tmap_traits@KUDefenseList@ioDefenseController@@U?$less@K@std@@V?$allocator@U?$pair@$$CBKUDefenseList@ioDefenseController@@@std@@@4@$0A@@std@@@2@XZ ; std::_Tree_val<std::_Tmap_traits<unsigned long,ioDefenseController::DefenseList,std::less<unsigned long>,std::allocator<std::pair<unsigned long const ,ioDefenseController::DefenseList> >,0> >::_Buynode
; Function compile flags: /Ogsp
; File c:\program files (x86)\microsoft visual studio 10.0\vc\include\xtree
;	COMDAT ?_Buynode@?$_Tree_val@V?$_Tmap_traits@KUDefenseList@ioDefenseController@@U?$less@K@std@@V?$allocator@U?$pair@$$CBKUDefenseList@ioDefenseController@@@std@@@4@$0A@@std@@@std@@QAEPAU_Node@?$_Tree_nod@V?$_Tmap_traits@KUDefenseList@ioDefenseController@@U?$less@K@std@@V?$allocator@U?$pair@$$CBKUDefenseList@ioDefenseController@@@std@@@4@$0A@@std@@@2@XZ
_TEXT	SEGMENT
$T539001 = -16						; size = 12
$T538984 = -4						; size = 4
?_Buynode@?$_Tree_val@V?$_Tmap_traits@KUDefenseList@ioDefenseController@@U?$less@K@std@@V?$allocator@U?$pair@$$CBKUDefenseList@ioDefenseController@@@std@@@4@$0A@@std@@@std@@QAEPAU_Node@?$_Tree_nod@V?$_Tmap_traits@KUDefenseList@ioDefenseController@@U?$less@K@std@@V?$allocator@U?$pair@$$CBKUDefenseList@ioDefenseController@@@std@@@4@$0A@@std@@@2@XZ PROC ; std::_Tree_val<std::_Tmap_traits<unsigned long,ioDefenseController::DefenseList,std::less<unsigned long>,std::allocator<std::pair<unsigned long const ,ioDefenseController::DefenseList> >,0> >::_Buynode, COMDAT
; _this$ = ecx

; 559  : 		{	// allocate a node

  00000	55		 push	 ebp
  00001	8b ec		 mov	 ebp, esp
  00003	83 ec 10	 sub	 esp, 16			; 00000010H
  00006	56		 push	 esi

; 560  : 		_Nodeptr _Wherenode = this->_Alnod.allocate(1);

  00007	6a 40		 push	 64			; 00000040H
  00009	8b f1		 mov	 esi, ecx
  0000b	e8 00 00 00 00	 call	 ??2@YAPAXI@Z		; operator new
  00010	59		 pop	 ecx
  00011	33 c9		 xor	 ecx, ecx
  00013	3b c1		 cmp	 eax, ecx
  00015	74 18		 je	 SHORT $LN5@Buynode

; 561  : 
; 562  : 		this->_Left(_Wherenode) = this->_Myhead;

  00017	8b 56 04	 mov	 edx, DWORD PTR [esi+4]
  0001a	89 10		 mov	 DWORD PTR [eax], edx

; 563  : 		this->_Parent(_Wherenode) = this->_Myhead;

  0001c	8b 56 04	 mov	 edx, DWORD PTR [esi+4]
  0001f	89 50 04	 mov	 DWORD PTR [eax+4], edx

; 564  : 		this->_Right(_Wherenode) = this->_Myhead;

  00022	8b 56 04	 mov	 edx, DWORD PTR [esi+4]
  00025	89 50 08	 mov	 DWORD PTR [eax+8], edx

; 565  : 		this->_Color(_Wherenode) = this->_Red;

  00028	66 89 48 3c	 mov	 WORD PTR [eax+60], cx
  0002c	5e		 pop	 esi

; 566  : 		this->_Isnil(_Wherenode) = false;
; 567  : 		return (_Wherenode);
; 568  : 		}

  0002d	c9		 leave
  0002e	c3		 ret	 0

; 560  : 		_Nodeptr _Wherenode = this->_Alnod.allocate(1);

$LN5@Buynode:
  0002f	8d 45 fc	 lea	 eax, DWORD PTR $T538984[ebp]
  00032	89 4d fc	 mov	 DWORD PTR $T538984[ebp], ecx
  00035	50		 push	 eax
  00036	8d 4d f0	 lea	 ecx, DWORD PTR $T539001[ebp]
  00039	ff 15 00 00 00
	00		 call	 DWORD PTR __imp_??0exception@std@@QAE@ABQBD@Z
  0003f	68 00 00 00 00	 push	 OFFSET __TI2?AVbad_alloc@std@@
  00044	8d 45 f0	 lea	 eax, DWORD PTR $T539001[ebp]
  00047	50		 push	 eax
  00048	c7 45 f0 00 00
	00 00		 mov	 DWORD PTR $T539001[ebp], OFFSET ??_7bad_alloc@std@@6B@
  0004f	e8 00 00 00 00	 call	 __CxxThrowException@8
$LN27@Buynode:
$LN26@Buynode:
  00054	cc		 int	 3
?_Buynode@?$_Tree_val@V?$_Tmap_traits@KUDefenseList@ioDefenseController@@U?$less@K@std@@V?$allocator@U?$pair@$$CBKUDefenseList@ioDefenseController@@@std@@@4@$0A@@std@@@std@@QAEPAU_Node@?$_Tree_nod@V?$_Tmap_traits@KUDefenseList@ioDefenseController@@U?$less@K@std@@V?$allocator@U?$pair@$$CBKUDefenseList@ioDefenseController@@@std@@@4@$0A@@std@@@2@XZ ENDP ; std::_Tree_val<std::_Tmap_traits<unsigned long,ioDefenseController::DefenseList,std::less<unsigned long>,std::allocator<std::pair<unsigned long const ,ioDefenseController::DefenseList> >,0> >::_Buynode
_TEXT	ENDS
PUBLIC	?begin@?$vector@KV?$allocator@K@std@@@std@@QBE?AV?$_Vector_const_iterator@V?$_Vector_val@KV?$allocator@K@std@@@std@@@2@XZ ; std::vector<unsigned long,std::allocator<unsigned long> >::begin
; Function compile flags: /Ogsp
; File c:\program files (x86)\microsoft visual studio 10.0\vc\include\vector
;	COMDAT ?begin@?$vector@KV?$allocator@K@std@@@std@@QBE?AV?$_Vector_const_iterator@V?$_Vector_val@KV?$allocator@K@std@@@std@@@2@XZ
_TEXT	SEGMENT
___$ReturnUdt$ = 8					; size = 4
?begin@?$vector@KV?$allocator@K@std@@@std@@QBE?AV?$_Vector_const_iterator@V?$_Vector_val@KV?$allocator@K@std@@@std@@@2@XZ PROC ; std::vector<unsigned long,std::allocator<unsigned long> >::begin, COMDAT
; _this$ = ecx

; 786  : 		{	// return iterator for beginning of nonmutable sequence

  00000	55		 push	 ebp
  00001	8b ec		 mov	 ebp, esp

; 787  : 		return (const_iterator(this->_Myfirst, this));

  00003	8b 09		 mov	 ecx, DWORD PTR [ecx]
  00005	8b 45 08	 mov	 eax, DWORD PTR ___$ReturnUdt$[ebp]
  00008	89 08		 mov	 DWORD PTR [eax], ecx

; 788  : 		}

  0000a	5d		 pop	 ebp
  0000b	c2 04 00	 ret	 4
?begin@?$vector@KV?$allocator@K@std@@@std@@QBE?AV?$_Vector_const_iterator@V?$_Vector_val@KV?$allocator@K@std@@@std@@@2@XZ ENDP ; std::vector<unsigned long,std::allocator<unsigned long> >::begin
_TEXT	ENDS
PUBLIC	?end@?$vector@KV?$allocator@K@std@@@std@@QBE?AV?$_Vector_const_iterator@V?$_Vector_val@KV?$allocator@K@std@@@std@@@2@XZ ; std::vector<unsigned long,std::allocator<unsigned long> >::end
; Function compile flags: /Ogsp
;	COMDAT ?end@?$vector@KV?$allocator@K@std@@@std@@QBE?AV?$_Vector_const_iterator@V?$_Vector_val@KV?$allocator@K@std@@@std@@@2@XZ
_TEXT	SEGMENT
___$ReturnUdt$ = 8					; size = 4
?end@?$vector@KV?$allocator@K@std@@@std@@QBE?AV?$_Vector_const_iterator@V?$_Vector_val@KV?$allocator@K@std@@@std@@@2@XZ PROC ; std::vector<unsigned long,std::allocator<unsigned long> >::end, COMDAT
; _this$ = ecx

; 796  : 		{	// return iterator for end of nonmutable sequence

  00000	55		 push	 ebp
  00001	8b ec		 mov	 ebp, esp

; 797  : 		return (const_iterator(this->_Mylast, this));

  00003	8b 49 04	 mov	 ecx, DWORD PTR [ecx+4]
  00006	8b 45 08	 mov	 eax, DWORD PTR ___$ReturnUdt$[ebp]
  00009	89 08		 mov	 DWORD PTR [eax], ecx

; 798  : 		}

  0000b	5d		 pop	 ebp
  0000c	c2 04 00	 ret	 4
?end@?$vector@KV?$allocator@K@std@@@std@@QBE?AV?$_Vector_const_iterator@V?$_Vector_val@KV?$allocator@K@std@@@std@@@2@XZ ENDP ; std::vector<unsigned long,std::allocator<unsigned long> >::end
_TEXT	ENDS
PUBLIC	?_Buy@?$vector@UDefenseData@ioDefenseController@@V?$allocator@UDefenseData@ioDefenseController@@@std@@@std@@IAE_NI@Z ; std::vector<ioDefenseController::DefenseData,std::allocator<ioDefenseController::DefenseData> >::_Buy
; Function compile flags: /Ogsp
;	COMDAT ?_Buy@?$vector@UDefenseData@ioDefenseController@@V?$allocator@UDefenseData@ioDefenseController@@@std@@@std@@IAE_NI@Z
_TEXT	SEGMENT
__Capacity$ = 8						; size = 4
?_Buy@?$vector@UDefenseData@ioDefenseController@@V?$allocator@UDefenseData@ioDefenseController@@@std@@@std@@IAE_NI@Z PROC ; std::vector<ioDefenseController::DefenseData,std::allocator<ioDefenseController::DefenseData> >::_Buy, COMDAT
; _this$ = ecx

; 1250 : 		{	// allocate array with _Capacity elements

  00000	55		 push	 ebp
  00001	8b ec		 mov	 ebp, esp
  00003	56		 push	 esi

; 1251 : 		this->_Myfirst = 0;

  00004	33 c0		 xor	 eax, eax
  00006	57		 push	 edi

; 1252 : 		this->_Mylast = 0;
; 1253 : 		this->_Myend = 0;
; 1254 : 
; 1255 : 		if (_Capacity == 0)

  00007	8b 7d 08	 mov	 edi, DWORD PTR __Capacity$[ebp]
  0000a	8b f1		 mov	 esi, ecx
  0000c	89 06		 mov	 DWORD PTR [esi], eax
  0000e	89 46 04	 mov	 DWORD PTR [esi+4], eax
  00011	89 46 08	 mov	 DWORD PTR [esi+8], eax
  00014	3b f8		 cmp	 edi, eax
  00016	75 04		 jne	 SHORT $LN4@Buy

; 1256 : 			return (false);

  00018	32 c0		 xor	 al, al
  0001a	eb 29		 jmp	 SHORT $LN5@Buy
$LN4@Buy:

; 1257 : 		else if (max_size() < _Capacity)

  0001c	81 ff ff ff ff
	1f		 cmp	 edi, 536870911		; 1fffffffH
  00022	76 0b		 jbe	 SHORT $LN2@Buy

; 1258 : 			_Xlen();	// result too long

  00024	68 00 00 00 00	 push	 OFFSET ??_C@_0BD@OLBABOEK@vector?$DMT?$DO?5too?5long?$AA@
  00029	ff 15 00 00 00
	00		 call	 DWORD PTR __imp_?_Xlength_error@std@@YAXPBD@Z
$LN19@Buy:
$LN2@Buy:

; 1259 : 		else
; 1260 : 			{	// nonempty array, allocate storage
; 1261 : 			this->_Myfirst = this->_Alval.allocate(_Capacity);

  0002f	50		 push	 eax
  00030	57		 push	 edi
  00031	e8 00 00 00 00	 call	 ??$_Allocate@UDefenseData@ioDefenseController@@@std@@YAPAUDefenseData@ioDefenseController@@IPAU12@@Z ; std::_Allocate<ioDefenseController::DefenseData>
  00036	89 06		 mov	 DWORD PTR [esi], eax

; 1262 : 			this->_Mylast = this->_Myfirst;

  00038	89 46 04	 mov	 DWORD PTR [esi+4], eax

; 1263 : 			this->_Myend = this->_Myfirst + _Capacity;

  0003b	8d 04 f8	 lea	 eax, DWORD PTR [eax+edi*8]
  0003e	59		 pop	 ecx
  0003f	89 46 08	 mov	 DWORD PTR [esi+8], eax
  00042	59		 pop	 ecx

; 1264 : 			}
; 1265 : 		return (true);

  00043	b0 01		 mov	 al, 1
$LN5@Buy:
  00045	5f		 pop	 edi
  00046	5e		 pop	 esi

; 1266 : 		}

  00047	5d		 pop	 ebp
  00048	c2 04 00	 ret	 4
$LN18@Buy:
?_Buy@?$vector@UDefenseData@ioDefenseController@@V?$allocator@UDefenseData@ioDefenseController@@@std@@@std@@IAE_NI@Z ENDP ; std::vector<ioDefenseController::DefenseData,std::allocator<ioDefenseController::DefenseData> >::_Buy
_TEXT	ENDS
PUBLIC	??$?0AAV?$_Tree_iterator@V?$_Tree_val@V?$_Tmap_traits@KUDefenseList@ioDefenseController@@U?$less@K@std@@V?$allocator@U?$pair@$$CBKUDefenseList@ioDefenseController@@@std@@@4@$0A@@std@@@std@@@std@@_N@?$_Pair_base@V?$_Tree_iterator@V?$_Tree_val@V?$_Tmap_traits@KUDefenseList@ioDefenseController@@U?$less@K@std@@V?$allocator@U?$pair@$$CBKUDefenseList@ioDefenseController@@@std@@@4@$0A@@std@@@std@@@std@@_N@std@@QAE@AAV?$_Tree_iterator@V?$_Tree_val@V?$_Tmap_traits@KUDefenseList@ioDefenseController@@U?$less@K@std@@V?$allocator@U?$pair@$$CBKUDefenseList@ioDefenseController@@@std@@@4@$0A@@std@@@std@@@1@$$QA_N@Z ; std::_Pair_base<std::_Tree_iterator<std::_Tree_val<std::_Tmap_traits<unsigned long,ioDefenseController::DefenseList,std::less<unsigned long>,std::allocator<std::pair<unsigned long const ,ioDefenseController::DefenseList> >,0> > >,bool>::_Pair_base<std::_Tree_iterator<std::_Tree_val<std::_Tmap_traits<unsigned long,ioDefenseController::DefenseList,std::less<unsigned long>,std::allocator<std::pair<unsigned long const ,ioDefenseController::DefenseList> >,0> > >,bool><std::_Tree_iterator<std::_Tree_val<std::_Tmap_traits<unsigned long,ioDefenseController::DefenseList,std::less<unsigned long>,std::allocator<std::pair<unsigned long const ,ioDefenseController::DefenseList> >,0> > > &,bool>
; Function compile flags: /Ogsp
; File c:\program files (x86)\microsoft visual studio 10.0\vc\include\utility
;	COMDAT ??$?0AAV?$_Tree_iterator@V?$_Tree_val@V?$_Tmap_traits@KUDefenseList@ioDefenseController@@U?$less@K@std@@V?$allocator@U?$pair@$$CBKUDefenseList@ioDefenseController@@@std@@@4@$0A@@std@@@std@@@std@@_N@?$_Pair_base@V?$_Tree_iterator@V?$_Tree_val@V?$_Tmap_traits@KUDefenseList@ioDefenseController@@U?$less@K@std@@V?$allocator@U?$pair@$$CBKUDefenseList@ioDefenseController@@@std@@@4@$0A@@std@@@std@@@std@@_N@std@@QAE@AAV?$_Tree_iterator@V?$_Tree_val@V?$_Tmap_traits@KUDefenseList@ioDefenseController@@U?$less@K@std@@V?$allocator@U?$pair@$$CBKUDefenseList@ioDefenseController@@@std@@@4@$0A@@std@@@std@@@1@$$QA_N@Z
_TEXT	SEGMENT
__Val1$ = 8						; size = 4
__Val2$ = 12						; size = 4
??$?0AAV?$_Tree_iterator@V?$_Tree_val@V?$_Tmap_traits@KUDefenseList@ioDefenseController@@U?$less@K@std@@V?$allocator@U?$pair@$$CBKUDefenseList@ioDefenseController@@@std@@@4@$0A@@std@@@std@@@std@@_N@?$_Pair_base@V?$_Tree_iterator@V?$_Tree_val@V?$_Tmap_traits@KUDefenseList@ioDefenseController@@U?$less@K@std@@V?$allocator@U?$pair@$$CBKUDefenseList@ioDefenseController@@@std@@@4@$0A@@std@@@std@@@std@@_N@std@@QAE@AAV?$_Tree_iterator@V?$_Tree_val@V?$_Tmap_traits@KUDefenseList@ioDefenseController@@U?$less@K@std@@V?$allocator@U?$pair@$$CBKUDefenseList@ioDefenseController@@@std@@@4@$0A@@std@@@std@@@1@$$QA_N@Z PROC ; std::_Pair_base<std::_Tree_iterator<std::_Tree_val<std::_Tmap_traits<unsigned long,ioDefenseController::DefenseList,std::less<unsigned long>,std::allocator<std::pair<unsigned long const ,ioDefenseController::DefenseList> >,0> > >,bool>::_Pair_base<std::_Tree_iterator<std::_Tree_val<std::_Tmap_traits<unsigned long,ioDefenseController::DefenseList,std::less<unsigned long>,std::allocator<std::pair<unsigned long const ,ioDefenseController::DefenseList> >,0> > >,bool><std::_Tree_iterator<std::_Tree_val<std::_Tmap_traits<unsigned long,ioDefenseController::DefenseList,std::less<unsigned long>,std::allocator<std::pair<unsigned long const ,ioDefenseController::DefenseList> >,0> > > &,bool>, COMDAT
; _this$ = ecx

; 163  : 		{	// construct from moved values

  00000	55		 push	 ebp
  00001	8b ec		 mov	 ebp, esp
  00003	8b c1		 mov	 eax, ecx
  00005	8b 4d 08	 mov	 ecx, DWORD PTR __Val1$[ebp]
  00008	8b 09		 mov	 ecx, DWORD PTR [ecx]
  0000a	89 08		 mov	 DWORD PTR [eax], ecx
  0000c	8b 4d 0c	 mov	 ecx, DWORD PTR __Val2$[ebp]
  0000f	8a 09		 mov	 cl, BYTE PTR [ecx]
  00011	88 48 04	 mov	 BYTE PTR [eax+4], cl

; 164  : 		}

  00014	5d		 pop	 ebp
  00015	c2 08 00	 ret	 8
??$?0AAV?$_Tree_iterator@V?$_Tree_val@V?$_Tmap_traits@KUDefenseList@ioDefenseController@@U?$less@K@std@@V?$allocator@U?$pair@$$CBKUDefenseList@ioDefenseController@@@std@@@4@$0A@@std@@@std@@@std@@_N@?$_Pair_base@V?$_Tree_iterator@V?$_Tree_val@V?$_Tmap_traits@KUDefenseList@ioDefenseController@@U?$less@K@std@@V?$allocator@U?$pair@$$CBKUDefenseList@ioDefenseController@@@std@@@4@$0A@@std@@@std@@@std@@_N@std@@QAE@AAV?$_Tree_iterator@V?$_Tree_val@V?$_Tmap_traits@KUDefenseList@ioDefenseController@@U?$less@K@std@@V?$allocator@U?$pair@$$CBKUDefenseList@ioDefenseController@@@std@@@4@$0A@@std@@@std@@@1@$$QA_N@Z ENDP ; std::_Pair_base<std::_Tree_iterator<std::_Tree_val<std::_Tmap_traits<unsigned long,ioDefenseController::DefenseList,std::less<unsigned long>,std::allocator<std::pair<unsigned long const ,ioDefenseController::DefenseList> >,0> > >,bool>::_Pair_base<std::_Tree_iterator<std::_Tree_val<std::_Tmap_traits<unsigned long,ioDefenseController::DefenseList,std::less<unsigned long>,std::allocator<std::pair<unsigned long const ,ioDefenseController::DefenseList> >,0> > >,bool><std::_Tree_iterator<std::_Tree_val<std::_Tmap_traits<unsigned long,ioDefenseController::DefenseList,std::less<unsigned long>,std::allocator<std::pair<unsigned long const ,ioDefenseController::DefenseList> >,0> > > &,bool>
_TEXT	ENDS
PUBLIC	?destroy@?$allocator@UDefenseData@ioDefenseController@@@std@@QAEXPAUDefenseData@ioDefenseController@@@Z ; std::allocator<ioDefenseController::DefenseData>::destroy
; Function compile flags: /Ogsp
; File c:\program files (x86)\microsoft visual studio 10.0\vc\include\xmemory
;	COMDAT ?destroy@?$allocator@UDefenseData@ioDefenseController@@@std@@QAEXPAUDefenseData@ioDefenseController@@@Z
_TEXT	SEGMENT
__Ptr$ = 8						; size = 4
?destroy@?$allocator@UDefenseData@ioDefenseController@@@std@@QAEXPAUDefenseData@ioDefenseController@@@Z PROC ; std::allocator<ioDefenseController::DefenseData>::destroy, COMDAT
; _this$ = ecx

; 213  : 		_Destroy(_Ptr);
; 214  : 		}

  00000	c2 04 00	 ret	 4
?destroy@?$allocator@UDefenseData@ioDefenseController@@@std@@QAEXPAUDefenseData@ioDefenseController@@@Z ENDP ; std::allocator<ioDefenseController::DefenseData>::destroy
_TEXT	ENDS
PUBLIC	?construct@?$allocator@UDefenseData@ioDefenseController@@@std@@QAEXPAUDefenseData@ioDefenseController@@$$QAU34@@Z ; std::allocator<ioDefenseController::DefenseData>::construct
; Function compile flags: /Ogsp
;	COMDAT ?construct@?$allocator@UDefenseData@ioDefenseController@@@std@@QAEXPAUDefenseData@ioDefenseController@@$$QAU34@@Z
_TEXT	SEGMENT
__Ptr$ = 8						; size = 4
__Val$ = 12						; size = 4
?construct@?$allocator@UDefenseData@ioDefenseController@@@std@@QAEXPAUDefenseData@ioDefenseController@@$$QAU34@@Z PROC ; std::allocator<ioDefenseController::DefenseData>::construct, COMDAT
; _this$ = ecx

; 201  : 		{	// construct object at _Ptr with value _Val

  00000	55		 push	 ebp
  00001	8b ec		 mov	 ebp, esp

; 202  : 		::new ((void _FARQ *)_Ptr) _Ty(_STD forward<_Ty>(_Val));

  00003	8b 45 08	 mov	 eax, DWORD PTR __Ptr$[ebp]
  00006	85 c0		 test	 eax, eax
  00008	74 0d		 je	 SHORT $LN3@construct@4
  0000a	8b 4d 0c	 mov	 ecx, DWORD PTR __Val$[ebp]
  0000d	8b 11		 mov	 edx, DWORD PTR [ecx]
  0000f	89 10		 mov	 DWORD PTR [eax], edx
  00011	8b 49 04	 mov	 ecx, DWORD PTR [ecx+4]
  00014	89 48 04	 mov	 DWORD PTR [eax+4], ecx
$LN3@construct@4:

; 203  : 		}

  00017	5d		 pop	 ebp
  00018	c2 08 00	 ret	 8
?construct@?$allocator@UDefenseData@ioDefenseController@@@std@@QAEXPAUDefenseData@ioDefenseController@@$$QAU34@@Z ENDP ; std::allocator<ioDefenseController::DefenseData>::construct
_TEXT	ENDS
PUBLIC	?destroy@?$allocator@K@std@@QAEXPAK@Z		; std::allocator<unsigned long>::destroy
; Function compile flags: /Ogsp
;	COMDAT ?destroy@?$allocator@K@std@@QAEXPAK@Z
_TEXT	SEGMENT
__Ptr$ = 8						; size = 4
?destroy@?$allocator@K@std@@QAEXPAK@Z PROC		; std::allocator<unsigned long>::destroy, COMDAT
; _this$ = ecx

; 213  : 		_Destroy(_Ptr);
; 214  : 		}

  00000	c2 04 00	 ret	 4
?destroy@?$allocator@K@std@@QAEXPAK@Z ENDP		; std::allocator<unsigned long>::destroy
_TEXT	ENDS
PUBLIC	?c_str@?$basic_string@DU?$char_traits@D@std@@V?$allocator@D@2@@std@@QBEPBDXZ ; std::basic_string<char,std::char_traits<char>,std::allocator<char> >::c_str
; Function compile flags: /Ogsp
; File c:\program files (x86)\microsoft visual studio 10.0\vc\include\xstring
;	COMDAT ?c_str@?$basic_string@DU?$char_traits@D@std@@V?$allocator@D@2@@std@@QBEPBDXZ
_TEXT	SEGMENT
?c_str@?$basic_string@DU?$char_traits@D@std@@V?$allocator@D@2@@std@@QBEPBDXZ PROC ; std::basic_string<char,std::char_traits<char>,std::allocator<char> >::c_str, COMDAT
; _this$ = ecx

; 1497 : 		return (_Myptr());

  00000	83 79 14 10	 cmp	 DWORD PTR [ecx+20], 16	; 00000010H
  00004	72 03		 jb	 SHORT $LN5@c_str
  00006	8b 01		 mov	 eax, DWORD PTR [ecx]

; 1498 : 		}

  00008	c3		 ret	 0

; 1497 : 		return (_Myptr());

$LN5@c_str:
  00009	8b c1		 mov	 eax, ecx

; 1498 : 		}

  0000b	c3		 ret	 0
?c_str@?$basic_string@DU?$char_traits@D@std@@V?$allocator@D@2@@std@@QBEPBDXZ ENDP ; std::basic_string<char,std::char_traits<char>,std::allocator<char> >::c_str
_TEXT	ENDS
PUBLIC	??B?$CEncrypt@W4TeamType@@@@QBE?AW4TeamType@@XZ	; CEncrypt<enum TeamType>::operator enum TeamType
; Function compile flags: /Ogsp
; File d:\lost saga for developer\youtube\tutorial\source\src\lsclient\encryptvalue.h
;	COMDAT ??B?$CEncrypt@W4TeamType@@@@QBE?AW4TeamType@@XZ
_TEXT	SEGMENT
_value$ = -4						; size = 4
??B?$CEncrypt@W4TeamType@@@@QBE?AW4TeamType@@XZ PROC	; CEncrypt<enum TeamType>::operator enum TeamType, COMDAT
; _this$ = ecx

; 145  : 	{

  00000	55		 push	 ebp
  00001	8b ec		 mov	 ebp, esp
  00003	51		 push	 ecx

; 146  : 		//UJ 130829, const    --start
; 147  : 		type value;
; 148  : 		CEncrypt<type>* pThis = const_cast<CEncrypt<type>*>(this);
; 149  : 		pThis->DecryptValueToPool(&value);

  00004	8d 45 fc	 lea	 eax, DWORD PTR _value$[ebp]
  00007	50		 push	 eax
  00008	e8 00 00 00 00	 call	 ?DecryptValueToPool@?$CEncrypt@W4TeamType@@@@QAEXPAW4TeamType@@@Z ; CEncrypt<enum TeamType>::DecryptValueToPool

; 150  : 		//// const DecryptValueToPool     .
; 151  :  		//type value;
; 152  : 		//char szTempMem[MAX_ENCRYPT];
; 153  : 		//m_RC5.DecryptByte( m_MemPool, szTempMem, max(m_ValueSize, DEFAULT_ENCRYPT) );
; 154  : 		//memcpy( &value, szTempMem, m_ValueSize );
; 155  : 		//UJ --end
; 156  : 
; 157  : #ifdef _NOTUSE
; 158  : 		Debug();
; 159  : #endif
; 160  : 		return value;

  0000d	8b 45 fc	 mov	 eax, DWORD PTR _value$[ebp]

; 161  : 	}

  00010	c9		 leave
  00011	c3		 ret	 0
??B?$CEncrypt@W4TeamType@@@@QBE?AW4TeamType@@XZ ENDP	; CEncrypt<enum TeamType>::operator enum TeamType
_TEXT	ENDS
PUBLIC	??0?$_String_val@DV?$allocator@D@std@@@std@@QAE@V?$allocator@D@1@@Z ; std::_String_val<char,std::allocator<char> >::_String_val<char,std::allocator<char> >
; Function compile flags: /Ogsp
; File c:\program files (x86)\microsoft visual studio 10.0\vc\include\xstring
;	COMDAT ??0?$_String_val@DV?$allocator@D@std@@@std@@QAE@V?$allocator@D@1@@Z
_TEXT	SEGMENT
__Al$ = 8						; size = 1
??0?$_String_val@DV?$allocator@D@std@@@std@@QAE@V?$allocator@D@1@@Z PROC ; std::_String_val<char,std::allocator<char> >::_String_val<char,std::allocator<char> >, COMDAT
; _this$ = ecx

; 454  : 		{	// construct allocator from _Al

  00000	8b c1		 mov	 eax, ecx

; 455  : 		}

  00002	c2 04 00	 ret	 4
??0?$_String_val@DV?$allocator@D@std@@@std@@QAE@V?$allocator@D@1@@Z ENDP ; std::_String_val<char,std::allocator<char> >::_String_val<char,std::allocator<char> >
_TEXT	ENDS
PUBLIC	??0?$_Vector_val@KV?$allocator@K@std@@@std@@QAE@V?$allocator@K@1@@Z ; std::_Vector_val<unsigned long,std::allocator<unsigned long> >::_Vector_val<unsigned long,std::allocator<unsigned long> >
; Function compile flags: /Ogsp
; File c:\program files (x86)\microsoft visual studio 10.0\vc\include\vector
;	COMDAT ??0?$_Vector_val@KV?$allocator@K@std@@@std@@QAE@V?$allocator@K@1@@Z
_TEXT	SEGMENT
__Al$ = 8						; size = 1
??0?$_Vector_val@KV?$allocator@K@std@@@std@@QAE@V?$allocator@K@1@@Z PROC ; std::_Vector_val<unsigned long,std::allocator<unsigned long> >::_Vector_val<unsigned long,std::allocator<unsigned long> >, COMDAT
; _this$ = ecx

; 426  : 		{	// construct allocator from _Al

  00000	8b c1		 mov	 eax, ecx

; 427  : 		_Myfirst = 0;

  00002	33 c9		 xor	 ecx, ecx
  00004	89 08		 mov	 DWORD PTR [eax], ecx

; 428  : 		_Mylast = 0;

  00006	89 48 04	 mov	 DWORD PTR [eax+4], ecx

; 429  : 		_Myend = 0;

  00009	89 48 08	 mov	 DWORD PTR [eax+8], ecx

; 430  : 		}

  0000c	c2 04 00	 ret	 4
??0?$_Vector_val@KV?$allocator@K@std@@@std@@QAE@V?$allocator@K@1@@Z ENDP ; std::_Vector_val<unsigned long,std::allocator<unsigned long> >::_Vector_val<unsigned long,std::allocator<unsigned long> >
_TEXT	ENDS
PUBLIC	?_Eos@?$basic_string@DU?$char_traits@D@std@@V?$allocator@D@2@@std@@QAEXI@Z ; std::basic_string<char,std::char_traits<char>,std::allocator<char> >::_Eos
; Function compile flags: /Ogsp
; File c:\program files (x86)\microsoft visual studio 10.0\vc\include\xstring
;	COMDAT ?_Eos@?$basic_string@DU?$char_traits@D@std@@V?$allocator@D@2@@std@@QAEXI@Z
_TEXT	SEGMENT
__Newsize$ = 8						; size = 4
?_Eos@?$basic_string@DU?$char_traits@D@std@@V?$allocator@D@2@@std@@QAEXI@Z PROC ; std::basic_string<char,std::char_traits<char>,std::allocator<char> >::_Eos, COMDAT
; _this$ = ecx

; 1953 : 		{	// set new length and null terminator

  00000	55		 push	 ebp
  00001	8b ec		 mov	 ebp, esp

; 1954 : 		_Traits::assign(_Myptr()[this->_Mysize = _Newsize], _Elem());

  00003	83 79 14 10	 cmp	 DWORD PTR [ecx+20], 16	; 00000010H
  00007	8b 45 08	 mov	 eax, DWORD PTR __Newsize$[ebp]
  0000a	89 41 10	 mov	 DWORD PTR [ecx+16], eax
  0000d	72 02		 jb	 SHORT $LN5@Eos
  0000f	8b 09		 mov	 ecx, DWORD PTR [ecx]
$LN5@Eos:
  00011	c6 04 01 00	 mov	 BYTE PTR [ecx+eax], 0

; 1955 : 		}

  00015	5d		 pop	 ebp
  00016	c2 04 00	 ret	 4
?_Eos@?$basic_string@DU?$char_traits@D@std@@V?$allocator@D@2@@std@@QAEXI@Z ENDP ; std::basic_string<char,std::char_traits<char>,std::allocator<char> >::_Eos
_TEXT	ENDS
PUBLIC	?max_size@?$vector@KV?$allocator@K@std@@@std@@QBEIXZ ; std::vector<unsigned long,std::allocator<unsigned long> >::max_size
; Function compile flags: /Ogsp
; File c:\program files (x86)\microsoft visual studio 10.0\vc\include\vector
;	COMDAT ?max_size@?$vector@KV?$allocator@K@std@@@std@@QBEIXZ
_TEXT	SEGMENT
?max_size@?$vector@KV?$allocator@K@std@@@std@@QBEIXZ PROC ; std::vector<unsigned long,std::allocator<unsigned long> >::max_size, COMDAT
; _this$ = ecx

; 884  : 		return (this->_Alval.max_size());

  00000	b8 ff ff ff 3f	 mov	 eax, 1073741823		; 3fffffffH

; 885  : 		}

  00005	c3		 ret	 0
?max_size@?$vector@KV?$allocator@K@std@@@std@@QBEIXZ ENDP ; std::vector<unsigned long,std::allocator<unsigned long> >::max_size
_TEXT	ENDS
PUBLIC	?_Grow_to@?$vector@KV?$allocator@K@std@@@std@@IBEII@Z ; std::vector<unsigned long,std::allocator<unsigned long> >::_Grow_to
; Function compile flags: /Ogsp
;	COMDAT ?_Grow_to@?$vector@KV?$allocator@K@std@@@std@@IBEII@Z
_TEXT	SEGMENT
__Count$ = 8						; size = 4
?_Grow_to@?$vector@KV?$allocator@K@std@@@std@@IBEII@Z PROC ; std::vector<unsigned long,std::allocator<unsigned long> >::_Grow_to, COMDAT
; _this$ = ecx

; 1274 : 		{	// grow by 50% or at least to _Count

  00000	55		 push	 ebp
  00001	8b ec		 mov	 ebp, esp

; 1275 : 		size_type _Capacity = capacity();

  00003	8b 41 08	 mov	 eax, DWORD PTR [ecx+8]
  00006	2b 01		 sub	 eax, DWORD PTR [ecx]

; 1276 : 
; 1277 : 		_Capacity = max_size() - _Capacity / 2 < _Capacity
; 1278 : 			? 0 : _Capacity + _Capacity / 2;	// try to grow by 50%

  00008	ba ff ff ff 3f	 mov	 edx, 1073741823		; 3fffffffH
  0000d	c1 f8 02	 sar	 eax, 2
  00010	8b c8		 mov	 ecx, eax
  00012	d1 e9		 shr	 ecx, 1
  00014	2b d1		 sub	 edx, ecx
  00016	3b d0		 cmp	 edx, eax
  00018	73 04		 jae	 SHORT $LN4@Grow_to@2
  0001a	33 c0		 xor	 eax, eax
  0001c	eb 02		 jmp	 SHORT $LN5@Grow_to@2
$LN4@Grow_to@2:
  0001e	03 c1		 add	 eax, ecx
$LN5@Grow_to@2:

; 1279 : 		if (_Capacity < _Count)

  00020	3b 45 08	 cmp	 eax, DWORD PTR __Count$[ebp]

; 1280 : 			_Capacity = _Count;

  00023	0f 42 45 08	 cmovb	 eax, DWORD PTR __Count$[ebp]

; 1281 : 		return (_Capacity);
; 1282 : 		}

  00027	5d		 pop	 ebp
  00028	c2 04 00	 ret	 4
?_Grow_to@?$vector@KV?$allocator@K@std@@@std@@IBEII@Z ENDP ; std::vector<unsigned long,std::allocator<unsigned long> >::_Grow_to
_TEXT	ENDS
PUBLIC	??0?$_Vector_iterator@V?$_Vector_val@KV?$allocator@K@std@@@std@@@std@@QAE@PAKPBU_Container_base0@1@@Z ; std::_Vector_iterator<std::_Vector_val<unsigned long,std::allocator<unsigned long> > >::_Vector_iterator<std::_Vector_val<unsigned long,std::allocator<unsigned long> > >
; Function compile flags: /Ogsp
;	COMDAT ??0?$_Vector_iterator@V?$_Vector_val@KV?$allocator@K@std@@@std@@@std@@QAE@PAKPBU_Container_base0@1@@Z
_TEXT	SEGMENT
__Parg$ = 8						; size = 4
__Pvector$ = 12						; size = 4
??0?$_Vector_iterator@V?$_Vector_val@KV?$allocator@K@std@@@std@@@std@@QAE@PAKPBU_Container_base0@1@@Z PROC ; std::_Vector_iterator<std::_Vector_val<unsigned long,std::allocator<unsigned long> > >::_Vector_iterator<std::_Vector_val<unsigned long,std::allocator<unsigned long> > >, COMDAT
; _this$ = ecx

; 304  : 		{	// construct with pointer _Parg

  00000	55		 push	 ebp
  00001	8b ec		 mov	 ebp, esp
  00003	8b c1		 mov	 eax, ecx
  00005	8b 4d 08	 mov	 ecx, DWORD PTR __Parg$[ebp]
  00008	89 08		 mov	 DWORD PTR [eax], ecx

; 305  : 		}

  0000a	5d		 pop	 ebp
  0000b	c2 08 00	 ret	 8
??0?$_Vector_iterator@V?$_Vector_val@KV?$allocator@K@std@@@std@@@std@@QAE@PAKPBU_Container_base0@1@@Z ENDP ; std::_Vector_iterator<std::_Vector_val<unsigned long,std::allocator<unsigned long> > >::_Vector_iterator<std::_Vector_val<unsigned long,std::allocator<unsigned long> > >
_TEXT	ENDS
PUBLIC	?max_size@?$basic_string@DU?$char_traits@D@std@@V?$allocator@D@2@@std@@QBEIXZ ; std::basic_string<char,std::char_traits<char>,std::allocator<char> >::max_size
; Function compile flags: /Ogsp
; File c:\program files (x86)\microsoft visual studio 10.0\vc\include\xstring
;	COMDAT ?max_size@?$basic_string@DU?$char_traits@D@std@@V?$allocator@D@2@@std@@QBEIXZ
_TEXT	SEGMENT
?max_size@?$basic_string@DU?$char_traits@D@std@@V?$allocator@D@2@@std@@QBEIXZ PROC ; std::basic_string<char,std::char_traits<char>,std::allocator<char> >::max_size, COMDAT
; _this$ = ecx

; 1517 : 		size_type _Num = this->_Alval.max_size();
; 1518 : 		return (_Num <= 1 ? 1 : _Num - 1);

  00000	6a fe		 push	 -2			; fffffffeH
  00002	58		 pop	 eax

; 1519 : 		}

  00003	c3		 ret	 0
?max_size@?$basic_string@DU?$char_traits@D@std@@V?$allocator@D@2@@std@@QBEIXZ ENDP ; std::basic_string<char,std::char_traits<char>,std::allocator<char> >::max_size
_TEXT	ENDS
PUBLIC	?allocate@?$allocator@K@std@@QAEPAKI@Z		; std::allocator<unsigned long>::allocate
; Function compile flags: /Ogsp
; File c:\program files (x86)\microsoft visual studio 10.0\vc\include\xmemory
;	COMDAT ?allocate@?$allocator@K@std@@QAEPAKI@Z
_TEXT	SEGMENT
__Count$ = 8						; size = 4
?allocate@?$allocator@K@std@@QAEPAKI@Z PROC		; std::allocator<unsigned long>::allocate, COMDAT
; _this$ = ecx

; 186  : 		{	// allocate array of _Count elements

  00000	55		 push	 ebp
  00001	8b ec		 mov	 ebp, esp

; 187  : 		return (_Allocate(_Count, (pointer)0));

  00003	6a 00		 push	 0
  00005	ff 75 08	 push	 DWORD PTR __Count$[ebp]
  00008	e8 00 00 00 00	 call	 ??$_Allocate@K@std@@YAPAKIPAK@Z ; std::_Allocate<unsigned long>
  0000d	59		 pop	 ecx
  0000e	59		 pop	 ecx

; 188  : 		}

  0000f	5d		 pop	 ebp
  00010	c2 04 00	 ret	 4
?allocate@?$allocator@K@std@@QAEPAKI@Z ENDP		; std::allocator<unsigned long>::allocate
_TEXT	ENDS
PUBLIC	??8?$_Vector_const_iterator@V?$_Vector_val@KV?$allocator@K@std@@@std@@@std@@QBE_NABV01@@Z ; std::_Vector_const_iterator<std::_Vector_val<unsigned long,std::allocator<unsigned long> > >::operator==
; Function compile flags: /Ogsp
; File c:\program files (x86)\microsoft visual studio 10.0\vc\include\vector
;	COMDAT ??8?$_Vector_const_iterator@V?$_Vector_val@KV?$allocator@K@std@@@std@@@std@@QBE_NABV01@@Z
_TEXT	SEGMENT
__Right$ = 8						; size = 4
??8?$_Vector_const_iterator@V?$_Vector_val@KV?$allocator@K@std@@@std@@@std@@QBE_NABV01@@Z PROC ; std::_Vector_const_iterator<std::_Vector_val<unsigned long,std::allocator<unsigned long> > >::operator==, COMDAT
; _this$ = ecx

; 201  : 		{	// test for iterator equality

  00000	55		 push	 ebp
  00001	8b ec		 mov	 ebp, esp

; 202  : 		_Compat(_Right);
; 203  : 		return (this->_Ptr == _Right._Ptr);

  00003	8b 01		 mov	 eax, DWORD PTR [ecx]
  00005	8b 4d 08	 mov	 ecx, DWORD PTR __Right$[ebp]
  00008	2b 01		 sub	 eax, DWORD PTR [ecx]
  0000a	f7 d8		 neg	 eax
  0000c	1b c0		 sbb	 eax, eax
  0000e	40		 inc	 eax

; 204  : 		}

  0000f	5d		 pop	 ebp
  00010	c2 04 00	 ret	 4
??8?$_Vector_const_iterator@V?$_Vector_val@KV?$allocator@K@std@@@std@@@std@@QBE_NABV01@@Z ENDP ; std::_Vector_const_iterator<std::_Vector_val<unsigned long,std::allocator<unsigned long> > >::operator==
_TEXT	ENDS
PUBLIC	?allocate@?$allocator@D@std@@QAEPADI@Z		; std::allocator<char>::allocate
; Function compile flags: /Ogsp
; File c:\program files (x86)\microsoft visual studio 10.0\vc\include\xmemory
;	COMDAT ?allocate@?$allocator@D@std@@QAEPADI@Z
_TEXT	SEGMENT
__Count$ = 8						; size = 4
?allocate@?$allocator@D@std@@QAEPADI@Z PROC		; std::allocator<char>::allocate, COMDAT
; _this$ = ecx

; 186  : 		{	// allocate array of _Count elements

  00000	55		 push	 ebp
  00001	8b ec		 mov	 ebp, esp

; 187  : 		return (_Allocate(_Count, (pointer)0));

  00003	6a 00		 push	 0
  00005	ff 75 08	 push	 DWORD PTR __Count$[ebp]
  00008	e8 00 00 00 00	 call	 ??$_Allocate@D@std@@YAPADIPAD@Z ; std::_Allocate<char>
  0000d	59		 pop	 ecx
  0000e	59		 pop	 ecx

; 188  : 		}

  0000f	5d		 pop	 ebp
  00010	c2 04 00	 ret	 4
?allocate@?$allocator@D@std@@QAEPADI@Z ENDP		; std::allocator<char>::allocate
_TEXT	ENDS
PUBLIC	??$_Cons_val@V?$allocator@K@std@@KAAK@std@@YAXAAV?$allocator@K@0@PAKAAK@Z ; std::_Cons_val<std::allocator<unsigned long>,unsigned long,unsigned long &>
; Function compile flags: /Ogsp
;	COMDAT ??$_Cons_val@V?$allocator@K@std@@KAAK@std@@YAXAAV?$allocator@K@0@PAKAAK@Z
_TEXT	SEGMENT
__Alval$ = 8						; size = 4
__Pdest$ = 12						; size = 4
__Src$ = 16						; size = 4
??$_Cons_val@V?$allocator@K@std@@KAAK@std@@YAXAAV?$allocator@K@0@PAKAAK@Z PROC ; std::_Cons_val<std::allocator<unsigned long>,unsigned long,unsigned long &>, COMDAT

; 279  : 	{	// construct using allocator

  00000	55		 push	 ebp
  00001	8b ec		 mov	 ebp, esp

; 280  : 	_Alval.construct(_Pdest, _STD forward<_Ty2>(_Src));

  00003	8b 45 0c	 mov	 eax, DWORD PTR __Pdest$[ebp]
  00006	85 c0		 test	 eax, eax
  00008	74 07		 je	 SHORT $LN7@Cons_val@2
  0000a	8b 4d 10	 mov	 ecx, DWORD PTR __Src$[ebp]
  0000d	8b 09		 mov	 ecx, DWORD PTR [ecx]
  0000f	89 08		 mov	 DWORD PTR [eax], ecx
$LN7@Cons_val@2:

; 281  : 	}

  00011	5d		 pop	 ebp
  00012	c3		 ret	 0
??$_Cons_val@V?$allocator@K@std@@KAAK@std@@YAXAAV?$allocator@K@0@PAKAAK@Z ENDP ; std::_Cons_val<std::allocator<unsigned long>,unsigned long,unsigned long &>
_TEXT	ENDS
PUBLIC	??$?9DD@std@@YA_NABV?$allocator@D@0@0@Z		; std::operator!=<char,char>
; Function compile flags: /Ogsp
;	COMDAT ??$?9DD@std@@YA_NABV?$allocator@D@0@0@Z
_TEXT	SEGMENT
__Left$ = 8						; size = 4
__Right$ = 12						; size = 4
??$?9DD@std@@YA_NABV?$allocator@D@0@0@Z PROC		; std::operator!=<char,char>, COMDAT

; 271  : 	return (!(_Left == _Right));

  00000	32 c0		 xor	 al, al

; 272  : 	}

  00002	c3		 ret	 0
??$?9DD@std@@YA_NABV?$allocator@D@0@0@Z ENDP		; std::operator!=<char,char>
_TEXT	ENDS
PUBLIC	??$_Destroy_range@V?$allocator@K@std@@@std@@YAXPAK0AAV?$allocator@K@0@@Z ; std::_Destroy_range<std::allocator<unsigned long> >
; Function compile flags: /Ogsp
;	COMDAT ??$_Destroy_range@V?$allocator@K@std@@@std@@YAXPAK0AAV?$allocator@K@0@@Z
_TEXT	SEGMENT
__First$ = 8						; size = 4
__Last$ = 12						; size = 4
__Al$ = 16						; size = 4
??$_Destroy_range@V?$allocator@K@std@@@std@@YAXPAK0AAV?$allocator@K@0@@Z PROC ; std::_Destroy_range<std::allocator<unsigned long> >, COMDAT

; 88   : 	_Destroy_range(_First, _Last, _Al, _Ptr_cat(_First, _Last));
; 89   : 	}

  00000	c3		 ret	 0
??$_Destroy_range@V?$allocator@K@std@@@std@@YAXPAK0AAV?$allocator@K@0@@Z ENDP ; std::_Destroy_range<std::allocator<unsigned long> >
_TEXT	ENDS
PUBLIC	??$swap@D@std@@YAXAAD0@Z			; std::swap<char>
; Function compile flags: /Ogsp
; File c:\program files (x86)\microsoft visual studio 10.0\vc\include\utility
;	COMDAT ??$swap@D@std@@YAXAAD0@Z
_TEXT	SEGMENT
__Left$ = 8						; size = 4
__Right$ = 12						; size = 4
??$swap@D@std@@YAXAAD0@Z PROC				; std::swap<char>, COMDAT

; 101  : 	{	// exchange values stored at _Left and _Right

  00000	55		 push	 ebp
  00001	8b ec		 mov	 ebp, esp

; 102  : 	_Ty _Tmp = _Move(_Left);

  00003	8b 45 08	 mov	 eax, DWORD PTR __Left$[ebp]
  00006	8a 08		 mov	 cl, BYTE PTR [eax]
  00008	56		 push	 esi

; 103  : 	_Left = _Move(_Right);

  00009	8b 75 0c	 mov	 esi, DWORD PTR __Right$[ebp]
  0000c	8a 16		 mov	 dl, BYTE PTR [esi]
  0000e	88 10		 mov	 BYTE PTR [eax], dl

; 104  : 	_Right = _Move(_Tmp);

  00010	88 0e		 mov	 BYTE PTR [esi], cl
  00012	5e		 pop	 esi

; 105  : 	}

  00013	5d		 pop	 ebp
  00014	c3		 ret	 0
??$swap@D@std@@YAXAAD0@Z ENDP				; std::swap<char>
_TEXT	ENDS
PUBLIC	?construct@?$allocator@K@std@@QAEXPAKABK@Z	; std::allocator<unsigned long>::construct
; Function compile flags: /Ogsp
; File c:\program files (x86)\microsoft visual studio 10.0\vc\include\xmemory
;	COMDAT ?construct@?$allocator@K@std@@QAEXPAKABK@Z
_TEXT	SEGMENT
__Ptr$ = 8						; size = 4
__Val$ = 12						; size = 4
?construct@?$allocator@K@std@@QAEXPAKABK@Z PROC		; std::allocator<unsigned long>::construct, COMDAT
; _this$ = ecx

; 196  : 		{	// construct object at _Ptr with value _Val

  00000	55		 push	 ebp
  00001	8b ec		 mov	 ebp, esp

; 197  : 		_Construct(_Ptr, _Val);

  00003	8b 45 08	 mov	 eax, DWORD PTR __Ptr$[ebp]
  00006	85 c0		 test	 eax, eax
  00008	74 07		 je	 SHORT $LN5@construct@5
  0000a	8b 4d 0c	 mov	 ecx, DWORD PTR __Val$[ebp]
  0000d	8b 09		 mov	 ecx, DWORD PTR [ecx]
  0000f	89 08		 mov	 DWORD PTR [eax], ecx
$LN5@construct@5:

; 198  : 		}

  00011	5d		 pop	 ebp
  00012	c2 08 00	 ret	 8
?construct@?$allocator@K@std@@QAEXPAKABK@Z ENDP		; std::allocator<unsigned long>::construct
_TEXT	ENDS
PUBLIC	??$_Uninitialized_move@PAKPAKV?$allocator@K@std@@@std@@YAPAKPAK00AAV?$allocator@K@0@@Z ; std::_Uninitialized_move<unsigned long *,unsigned long *,std::allocator<unsigned long> >
; Function compile flags: /Ogsp
; File c:\program files (x86)\microsoft visual studio 10.0\vc\include\memory
;	COMDAT ??$_Uninitialized_move@PAKPAKV?$allocator@K@std@@@std@@YAPAKPAK00AAV?$allocator@K@0@@Z
_TEXT	SEGMENT
__First$ = 8						; size = 4
__Last$ = 12						; size = 4
__Dest$ = 16						; size = 4
__Al$ = 20						; size = 4
??$_Uninitialized_move@PAKPAKV?$allocator@K@std@@@std@@YAPAKPAK00AAV?$allocator@K@0@@Z PROC ; std::_Uninitialized_move<unsigned long *,unsigned long *,std::allocator<unsigned long> >, COMDAT

; 469  : 	{	// move [_First, _Last) to raw _Dest, using _Al

  00000	55		 push	 ebp
  00001	8b ec		 mov	 ebp, esp
  00003	56		 push	 esi

; 470  : 	return (_Uninit_move(_First, _Last, _Dest, _Al,
; 471  : 		_Val_type(_First), _Ptr_cat(_First, _Dest)));

  00004	8b 75 0c	 mov	 esi, DWORD PTR __Last$[ebp]
  00007	2b 75 08	 sub	 esi, DWORD PTR __First$[ebp]
  0000a	c1 fe 02	 sar	 esi, 2
  0000d	c1 e6 02	 shl	 esi, 2
  00010	56		 push	 esi
  00011	ff 75 08	 push	 DWORD PTR __First$[ebp]
  00014	ff 75 10	 push	 DWORD PTR __Dest$[ebp]
  00017	ff 15 00 00 00
	00		 call	 DWORD PTR __imp__memmove
  0001d	83 c4 0c	 add	 esp, 12			; 0000000cH
  00020	03 c6		 add	 eax, esi
  00022	5e		 pop	 esi

; 472  : 	}

  00023	5d		 pop	 ebp
  00024	c3		 ret	 0
??$_Uninitialized_move@PAKPAKV?$allocator@K@std@@@std@@YAPAKPAK00AAV?$allocator@K@0@@Z ENDP ; std::_Uninitialized_move<unsigned long *,unsigned long *,std::allocator<unsigned long> >
_TEXT	ENDS
PUBLIC	__$ArrayPad$
PUBLIC	?GetAngle@ioDefenseController@@IAEMUD3DXVECTOR3@@0@Z ; ioDefenseController::GetAngle
EXTRN	__imp_?ArrangeHead@ioMath@@SAMM@Z:PROC
EXTRN	__imp_?QuaterToYaw@ioMath@@SAMABUD3DXQUATERNION@@@Z:PROC
EXTRN	__imp_?CalcDirectionQuaternion@ioMath@@SAXAAUD3DXQUATERNION@@ABUD3DXVECTOR3@@@Z:PROC
EXTRN	_D3DXVec3Normalize@8:PROC
; Function compile flags: /Ogsp
; File d:\lost saga for developer\youtube\tutorial\source\src\lsclient\iodefensecontroller.cpp
;	COMDAT ?GetAngle@ioDefenseController@@IAEMUD3DXVECTOR3@@0@Z
_TEXT	SEGMENT
_qtTargetRot$ = -60					; size = 16
_fCurYaw$ = -44						; size = 4
$T533624 = -40						; size = 12
_vSightDir$ = -28					; size = 12
_vXZDir$ = -16						; size = 12
__$ArrayPad$ = -4					; size = 4
_vPos1$ = 8						; size = 12
_vPos2$ = 20						; size = 12
?GetAngle@ioDefenseController@@IAEMUD3DXVECTOR3@@0@Z PROC ; ioDefenseController::GetAngle, COMDAT
; _this$ = ecx

; 79   : {

  00000	55		 push	 ebp
  00001	8b ec		 mov	 ebp, esp
  00003	83 ec 3c	 sub	 esp, 60			; 0000003cH
  00006	a1 00 00 00 00	 mov	 eax, DWORD PTR ___security_cookie
  0000b	33 c5		 xor	 eax, ebp
  0000d	89 45 fc	 mov	 DWORD PTR __$ArrayPad$[ebp], eax

; 80   : 	D3DXVECTOR3 vSightDir = vPos1 - vPos2;

  00010	f3 0f 10 45 08	 movss	 xmm0, DWORD PTR _vPos1$[ebp]
  00015	f3 0f 10 4d 14	 movss	 xmm1, DWORD PTR _vPos2$[ebp]
  0001a	0f 5a c0	 cvtps2pd xmm0, xmm0
  0001d	0f 5a c9	 cvtps2pd xmm1, xmm1
  00020	f2 0f 5c c1	 subsd	 xmm0, xmm1
  00024	f3 0f 10 4d 18	 movss	 xmm1, DWORD PTR _vPos2$[ebp+4]
  00029	66 0f 5a c0	 cvtpd2ps xmm0, xmm0
  0002d	f3 0f 11 45 e4	 movss	 DWORD PTR _vSightDir$[ebp], xmm0
  00032	f3 0f 10 45 0c	 movss	 xmm0, DWORD PTR _vPos1$[ebp+4]
  00037	0f 5a c0	 cvtps2pd xmm0, xmm0
  0003a	0f 5a c9	 cvtps2pd xmm1, xmm1
  0003d	f2 0f 5c c1	 subsd	 xmm0, xmm1
  00041	f3 0f 10 4d 1c	 movss	 xmm1, DWORD PTR _vPos2$[ebp+8]
  00046	66 0f 5a c0	 cvtpd2ps xmm0, xmm0
  0004a	f3 0f 11 45 e8	 movss	 DWORD PTR _vSightDir$[ebp+4], xmm0
  0004f	f3 0f 10 45 10	 movss	 xmm0, DWORD PTR _vPos1$[ebp+8]

; 81   : 	D3DXVec3Normalize( &vSightDir, &vSightDir );

  00054	8d 45 e4	 lea	 eax, DWORD PTR _vSightDir$[ebp]
  00057	0f 5a c0	 cvtps2pd xmm0, xmm0
  0005a	0f 5a c9	 cvtps2pd xmm1, xmm1
  0005d	50		 push	 eax
  0005e	f2 0f 5c c1	 subsd	 xmm0, xmm1
  00062	66 0f 5a c0	 cvtpd2ps xmm0, xmm0
  00066	50		 push	 eax
  00067	f3 0f 11 45 ec	 movss	 DWORD PTR _vSightDir$[ebp+8], xmm0
  0006c	e8 00 00 00 00	 call	 _D3DXVec3Normalize@8

; 82   : 
; 83   : 	D3DXVECTOR3 vXZDir( vSightDir.x, 0.0f, vSightDir.z );

  00071	f3 0f 10 45 e4	 movss	 xmm0, DWORD PTR _vSightDir$[ebp]

; 84   : 	D3DXVec3Normalize( &vXZDir, &vXZDir );

  00076	8d 45 f0	 lea	 eax, DWORD PTR _vXZDir$[ebp]
  00079	f3 0f 11 45 f0	 movss	 DWORD PTR _vXZDir$[ebp], xmm0
  0007e	0f 57 c0	 xorps	 xmm0, xmm0
  00081	50		 push	 eax
  00082	f3 0f 11 45 f4	 movss	 DWORD PTR _vXZDir$[ebp+4], xmm0
  00087	f3 0f 10 45 ec	 movss	 xmm0, DWORD PTR _vSightDir$[ebp+8]
  0008c	50		 push	 eax
  0008d	f3 0f 11 45 f8	 movss	 DWORD PTR _vXZDir$[ebp+8], xmm0
  00092	e8 00 00 00 00	 call	 _D3DXVec3Normalize@8

; 85   : 
; 86   : 	D3DXQUATERNION qtTargetRot;
; 87   : 	ioMath::CalcDirectionQuaternion( qtTargetRot, -vXZDir );

  00097	f3 0f 10 05 00
	00 00 00	 movss	 xmm0, DWORD PTR __mask@@NegFloat@
  0009f	f3 0f 10 4d f0	 movss	 xmm1, DWORD PTR _vXZDir$[ebp]
  000a4	0f 57 c8	 xorps	 xmm1, xmm0
  000a7	f3 0f 11 4d d8	 movss	 DWORD PTR $T533624[ebp], xmm1
  000ac	f3 0f 10 4d f4	 movss	 xmm1, DWORD PTR _vXZDir$[ebp+4]
  000b1	0f 57 c8	 xorps	 xmm1, xmm0
  000b4	8d 45 d8	 lea	 eax, DWORD PTR $T533624[ebp]
  000b7	50		 push	 eax
  000b8	f3 0f 11 4d dc	 movss	 DWORD PTR $T533624[ebp+4], xmm1
  000bd	f3 0f 10 4d f8	 movss	 xmm1, DWORD PTR _vXZDir$[ebp+8]
  000c2	8d 45 c4	 lea	 eax, DWORD PTR _qtTargetRot$[ebp]
  000c5	0f 57 c8	 xorps	 xmm1, xmm0
  000c8	50		 push	 eax
  000c9	f3 0f 11 4d e0	 movss	 DWORD PTR $T533624[ebp+8], xmm1
  000ce	ff 15 00 00 00
	00		 call	 DWORD PTR __imp_?CalcDirectionQuaternion@ioMath@@SAXAAUD3DXQUATERNION@@ABUD3DXVECTOR3@@@Z

; 88   : 
; 89   : 	float fCurYaw;
; 90   : 	fCurYaw = RADtoDEG( ioMath::QuaterToYaw( qtTargetRot ) );

  000d4	8d 45 c4	 lea	 eax, DWORD PTR _qtTargetRot$[ebp]
  000d7	50		 push	 eax
  000d8	ff 15 00 00 00
	00		 call	 DWORD PTR __imp_?QuaterToYaw@ioMath@@SAMABUD3DXQUATERNION@@@Z
  000de	59		 pop	 ecx
  000df	59		 pop	 ecx
  000e0	d9 1c 24	 fstp	 DWORD PTR [esp]
  000e3	e8 00 00 00 00	 call	 ??$RADtoDEG@M@@YAMM@Z	; RADtoDEG<float>
  000e8	d9 5d d4	 fstp	 DWORD PTR _fCurYaw$[ebp]

; 91   : 	fCurYaw = ioMath::ArrangeHead( fCurYaw );

  000eb	f3 0f 10 45 d4	 movss	 xmm0, DWORD PTR _fCurYaw$[ebp]
  000f0	f3 0f 11 04 24	 movss	 DWORD PTR [esp], xmm0
  000f5	ff 15 00 00 00
	00		 call	 DWORD PTR __imp_?ArrangeHead@ioMath@@SAMM@Z
  000fb	59		 pop	 ecx

; 92   : 	return fCurYaw;
; 93   : }

  000fc	8b 4d fc	 mov	 ecx, DWORD PTR __$ArrayPad$[ebp]
  000ff	33 cd		 xor	 ecx, ebp
  00101	e8 00 00 00 00	 call	 @__security_check_cookie@4
  00106	c9		 leave
  00107	c2 18 00	 ret	 24			; 00000018H
?GetAngle@ioDefenseController@@IAEMUD3DXVECTOR3@@0@Z ENDP ; ioDefenseController::GetAngle
_TEXT	ENDS
PUBLIC	?begin@?$vector@V?$basic_string@DU?$char_traits@D@std@@V?$allocator@D@2@@std@@V?$allocator@V?$basic_string@DU?$char_traits@D@std@@V?$allocator@D@2@@std@@@2@@std@@QAE?AV?$_Vector_iterator@V?$_Vector_val@V?$basic_string@DU?$char_traits@D@std@@V?$allocator@D@2@@std@@V?$allocator@V?$basic_string@DU?$char_traits@D@std@@V?$allocator@D@2@@std@@@2@@std@@@2@XZ ; std::vector<std::basic_string<char,std::char_traits<char>,std::allocator<char> >,std::allocator<std::basic_string<char,std::char_traits<char>,std::allocator<char> > > >::begin
; Function compile flags: /Ogsp
; File c:\program files (x86)\microsoft visual studio 10.0\vc\include\vector
;	COMDAT ?begin@?$vector@V?$basic_string@DU?$char_traits@D@std@@V?$allocator@D@2@@std@@V?$allocator@V?$basic_string@DU?$char_traits@D@std@@V?$allocator@D@2@@std@@@2@@std@@QAE?AV?$_Vector_iterator@V?$_Vector_val@V?$basic_string@DU?$char_traits@D@std@@V?$allocator@D@2@@std@@V?$allocator@V?$basic_string@DU?$char_traits@D@std@@V?$allocator@D@2@@std@@@2@@std@@@2@XZ
_TEXT	SEGMENT
___$ReturnUdt$ = 8					; size = 4
?begin@?$vector@V?$basic_string@DU?$char_traits@D@std@@V?$allocator@D@2@@std@@V?$allocator@V?$basic_string@DU?$char_traits@D@std@@V?$allocator@D@2@@std@@@2@@std@@QAE?AV?$_Vector_iterator@V?$_Vector_val@V?$basic_string@DU?$char_traits@D@std@@V?$allocator@D@2@@std@@V?$allocator@V?$basic_string@DU?$char_traits@D@std@@V?$allocator@D@2@@std@@@2@@std@@@2@XZ PROC ; std::vector<std::basic_string<char,std::char_traits<char>,std::allocator<char> >,std::allocator<std::basic_string<char,std::char_traits<char>,std::allocator<char> > > >::begin, COMDAT
; _this$ = ecx

; 781  : 		{	// return iterator for beginning of mutable sequence

  00000	55		 push	 ebp
  00001	8b ec		 mov	 ebp, esp

; 782  : 		return (iterator(this->_Myfirst, this));

  00003	8b 09		 mov	 ecx, DWORD PTR [ecx]
  00005	8b 45 08	 mov	 eax, DWORD PTR ___$ReturnUdt$[ebp]
  00008	89 08		 mov	 DWORD PTR [eax], ecx

; 783  : 		}

  0000a	5d		 pop	 ebp
  0000b	c2 04 00	 ret	 4
?begin@?$vector@V?$basic_string@DU?$char_traits@D@std@@V?$allocator@D@2@@std@@V?$allocator@V?$basic_string@DU?$char_traits@D@std@@V?$allocator@D@2@@std@@@2@@std@@QAE?AV?$_Vector_iterator@V?$_Vector_val@V?$basic_string@DU?$char_traits@D@std@@V?$allocator@D@2@@std@@V?$allocator@V?$basic_string@DU?$char_traits@D@std@@V?$allocator@D@2@@std@@@2@@std@@@2@XZ ENDP ; std::vector<std::basic_string<char,std::char_traits<char>,std::allocator<char> >,std::allocator<std::basic_string<char,std::char_traits<char>,std::allocator<char> > > >::begin
_TEXT	ENDS
PUBLIC	?end@?$vector@V?$basic_string@DU?$char_traits@D@std@@V?$allocator@D@2@@std@@V?$allocator@V?$basic_string@DU?$char_traits@D@std@@V?$allocator@D@2@@std@@@2@@std@@QAE?AV?$_Vector_iterator@V?$_Vector_val@V?$basic_string@DU?$char_traits@D@std@@V?$allocator@D@2@@std@@V?$allocator@V?$basic_string@DU?$char_traits@D@std@@V?$allocator@D@2@@std@@@2@@std@@@2@XZ ; std::vector<std::basic_string<char,std::char_traits<char>,std::allocator<char> >,std::allocator<std::basic_string<char,std::char_traits<char>,std::allocator<char> > > >::end
; Function compile flags: /Ogsp
;	COMDAT ?end@?$vector@V?$basic_string@DU?$char_traits@D@std@@V?$allocator@D@2@@std@@V?$allocator@V?$basic_string@DU?$char_traits@D@std@@V?$allocator@D@2@@std@@@2@@std@@QAE?AV?$_Vector_iterator@V?$_Vector_val@V?$basic_string@DU?$char_traits@D@std@@V?$allocator@D@2@@std@@V?$allocator@V?$basic_string@DU?$char_traits@D@std@@V?$allocator@D@2@@std@@@2@@std@@@2@XZ
_TEXT	SEGMENT
___$ReturnUdt$ = 8					; size = 4
?end@?$vector@V?$basic_string@DU?$char_traits@D@std@@V?$allocator@D@2@@std@@V?$allocator@V?$basic_string@DU?$char_traits@D@std@@V?$allocator@D@2@@std@@@2@@std@@QAE?AV?$_Vector_iterator@V?$_Vector_val@V?$basic_string@DU?$char_traits@D@std@@V?$allocator@D@2@@std@@V?$allocator@V?$basic_string@DU?$char_traits@D@std@@V?$allocator@D@2@@std@@@2@@std@@@2@XZ PROC ; std::vector<std::basic_string<char,std::char_traits<char>,std::allocator<char> >,std::allocator<std::basic_string<char,std::char_traits<char>,std::allocator<char> > > >::end, COMDAT
; _this$ = ecx

; 791  : 		{	// return iterator for end of mutable sequence

  00000	55		 push	 ebp
  00001	8b ec		 mov	 ebp, esp

; 792  : 		return (iterator(this->_Mylast, this));

  00003	8b 49 04	 mov	 ecx, DWORD PTR [ecx+4]
  00006	8b 45 08	 mov	 eax, DWORD PTR ___$ReturnUdt$[ebp]
  00009	89 08		 mov	 DWORD PTR [eax], ecx

; 793  : 		}

  0000b	5d		 pop	 ebp
  0000c	c2 04 00	 ret	 4
?end@?$vector@V?$basic_string@DU?$char_traits@D@std@@V?$allocator@D@2@@std@@V?$allocator@V?$basic_string@DU?$char_traits@D@std@@V?$allocator@D@2@@std@@@2@@std@@QAE?AV?$_Vector_iterator@V?$_Vector_val@V?$basic_string@DU?$char_traits@D@std@@V?$allocator@D@2@@std@@V?$allocator@V?$basic_string@DU?$char_traits@D@std@@V?$allocator@D@2@@std@@@2@@std@@@2@XZ ENDP ; std::vector<std::basic_string<char,std::char_traits<char>,std::allocator<char> >,std::allocator<std::basic_string<char,std::char_traits<char>,std::allocator<char> > > >::end
_TEXT	ENDS
PUBLIC	??E?$_Vector_iterator@V?$_Vector_val@KV?$allocator@K@std@@@std@@@std@@QAE?AV01@H@Z ; std::_Vector_iterator<std::_Vector_val<unsigned long,std::allocator<unsigned long> > >::operator++
; Function compile flags: /Ogsp
;	COMDAT ??E?$_Vector_iterator@V?$_Vector_val@KV?$allocator@K@std@@@std@@@std@@QAE?AV01@H@Z
_TEXT	SEGMENT
___$ReturnUdt$ = 8					; size = 4
___formal$ = 12						; size = 4
??E?$_Vector_iterator@V?$_Vector_val@KV?$allocator@K@std@@@std@@@std@@QAE?AV01@H@Z PROC ; std::_Vector_iterator<std::_Vector_val<unsigned long,std::allocator<unsigned long> > >::operator++, COMDAT
; _this$ = ecx

; 337  : 		{	// postincrement

  00000	55		 push	 ebp
  00001	8b ec		 mov	 ebp, esp

; 338  : 		_Myiter _Tmp = *this;

  00003	8b 11		 mov	 edx, DWORD PTR [ecx]
  00005	8b 45 08	 mov	 eax, DWORD PTR ___$ReturnUdt$[ebp]
  00008	89 10		 mov	 DWORD PTR [eax], edx

; 339  : 		++*this;

  0000a	83 c2 04	 add	 edx, 4
  0000d	89 11		 mov	 DWORD PTR [ecx], edx

; 340  : 		return (_Tmp);
; 341  : 		}

  0000f	5d		 pop	 ebp
  00010	c2 08 00	 ret	 8
??E?$_Vector_iterator@V?$_Vector_val@KV?$allocator@K@std@@@std@@@std@@QAE?AV01@H@Z ENDP ; std::_Vector_iterator<std::_Vector_val<unsigned long,std::allocator<unsigned long> > >::operator++
_TEXT	ENDS
PUBLIC	??0?$vector@UDefenseData@ioDefenseController@@V?$allocator@UDefenseData@ioDefenseController@@@std@@@std@@QAE@XZ ; std::vector<ioDefenseController::DefenseData,std::allocator<ioDefenseController::DefenseData> >::vector<ioDefenseController::DefenseData,std::allocator<ioDefenseController::DefenseData> >
; Function compile flags: /Ogsp
;	COMDAT ??0?$vector@UDefenseData@ioDefenseController@@V?$allocator@UDefenseData@ioDefenseController@@@std@@@std@@QAE@XZ
_TEXT	SEGMENT
??0?$vector@UDefenseData@ioDefenseController@@V?$allocator@UDefenseData@ioDefenseController@@@std@@@std@@QAE@XZ PROC ; std::vector<ioDefenseController::DefenseData,std::allocator<ioDefenseController::DefenseData> >::vector<ioDefenseController::DefenseData,std::allocator<ioDefenseController::DefenseData> >, COMDAT
; _this$ = ecx

; 507  : 		{	// construct empty vector

  00000	8b c1		 mov	 eax, ecx
  00002	33 c9		 xor	 ecx, ecx
  00004	89 08		 mov	 DWORD PTR [eax], ecx
  00006	89 48 04	 mov	 DWORD PTR [eax+4], ecx
  00009	89 48 08	 mov	 DWORD PTR [eax+8], ecx

; 508  : 		}

  0000c	c3		 ret	 0
??0?$vector@UDefenseData@ioDefenseController@@V?$allocator@UDefenseData@ioDefenseController@@@std@@@std@@QAE@XZ ENDP ; std::vector<ioDefenseController::DefenseData,std::allocator<ioDefenseController::DefenseData> >::vector<ioDefenseController::DefenseData,std::allocator<ioDefenseController::DefenseData> >
_TEXT	ENDS
PUBLIC	?begin@?$vector@UDefenseData@ioDefenseController@@V?$allocator@UDefenseData@ioDefenseController@@@std@@@std@@QAE?AV?$_Vector_iterator@V?$_Vector_val@UDefenseData@ioDefenseController@@V?$allocator@UDefenseData@ioDefenseController@@@std@@@std@@@2@XZ ; std::vector<ioDefenseController::DefenseData,std::allocator<ioDefenseController::DefenseData> >::begin
; Function compile flags: /Ogsp
;	COMDAT ?begin@?$vector@UDefenseData@ioDefenseController@@V?$allocator@UDefenseData@ioDefenseController@@@std@@@std@@QAE?AV?$_Vector_iterator@V?$_Vector_val@UDefenseData@ioDefenseController@@V?$allocator@UDefenseData@ioDefenseController@@@std@@@std@@@2@XZ
_TEXT	SEGMENT
___$ReturnUdt$ = 8					; size = 4
?begin@?$vector@UDefenseData@ioDefenseController@@V?$allocator@UDefenseData@ioDefenseController@@@std@@@std@@QAE?AV?$_Vector_iterator@V?$_Vector_val@UDefenseData@ioDefenseController@@V?$allocator@UDefenseData@ioDefenseController@@@std@@@std@@@2@XZ PROC ; std::vector<ioDefenseController::DefenseData,std::allocator<ioDefenseController::DefenseData> >::begin, COMDAT
; _this$ = ecx

; 781  : 		{	// return iterator for beginning of mutable sequence

  00000	55		 push	 ebp
  00001	8b ec		 mov	 ebp, esp

; 782  : 		return (iterator(this->_Myfirst, this));

  00003	8b 09		 mov	 ecx, DWORD PTR [ecx]
  00005	8b 45 08	 mov	 eax, DWORD PTR ___$ReturnUdt$[ebp]
  00008	89 08		 mov	 DWORD PTR [eax], ecx

; 783  : 		}

  0000a	5d		 pop	 ebp
  0000b	c2 04 00	 ret	 4
?begin@?$vector@UDefenseData@ioDefenseController@@V?$allocator@UDefenseData@ioDefenseController@@@std@@@std@@QAE?AV?$_Vector_iterator@V?$_Vector_val@UDefenseData@ioDefenseController@@V?$allocator@UDefenseData@ioDefenseController@@@std@@@std@@@2@XZ ENDP ; std::vector<ioDefenseController::DefenseData,std::allocator<ioDefenseController::DefenseData> >::begin
_TEXT	ENDS
PUBLIC	??0?$_Tree_iterator@V?$_Tree_val@V?$_Tmap_traits@KUDefenseList@ioDefenseController@@U?$less@K@std@@V?$allocator@U?$pair@$$CBKUDefenseList@ioDefenseController@@@std@@@4@$0A@@std@@@std@@@std@@QAE@XZ ; std::_Tree_iterator<std::_Tree_val<std::_Tmap_traits<unsigned long,ioDefenseController::DefenseList,std::less<unsigned long>,std::allocator<std::pair<unsigned long const ,ioDefenseController::DefenseList> >,0> > >::_Tree_iterator<std::_Tree_val<std::_Tmap_traits<unsigned long,ioDefenseController::DefenseList,std::less<unsigned long>,std::allocator<std::pair<unsigned long const ,ioDefenseController::DefenseList> >,0> > >
; Function compile flags: /Ogsp
; File c:\program files (x86)\microsoft visual studio 10.0\vc\include\xtree
;	COMDAT ??0?$_Tree_iterator@V?$_Tree_val@V?$_Tmap_traits@KUDefenseList@ioDefenseController@@U?$less@K@std@@V?$allocator@U?$pair@$$CBKUDefenseList@ioDefenseController@@@std@@@4@$0A@@std@@@std@@@std@@QAE@XZ
_TEXT	SEGMENT
??0?$_Tree_iterator@V?$_Tree_val@V?$_Tmap_traits@KUDefenseList@ioDefenseController@@U?$less@K@std@@V?$allocator@U?$pair@$$CBKUDefenseList@ioDefenseController@@@std@@@4@$0A@@std@@@std@@@std@@QAE@XZ PROC ; std::_Tree_iterator<std::_Tree_val<std::_Tmap_traits<unsigned long,ioDefenseController::DefenseList,std::less<unsigned long>,std::allocator<std::pair<unsigned long const ,ioDefenseController::DefenseList> >,0> > >::_Tree_iterator<std::_Tree_val<std::_Tmap_traits<unsigned long,ioDefenseController::DefenseList,std::less<unsigned long>,std::allocator<std::pair<unsigned long const ,ioDefenseController::DefenseList> >,0> > >, COMDAT
; _this$ = ecx

; 372  : 	_Tree_iterator()

  00000	8b c1		 mov	 eax, ecx
  00002	83 20 00	 and	 DWORD PTR [eax], 0

; 373  : 		{	// construct with null node
; 374  : 		}

  00005	c3		 ret	 0
??0?$_Tree_iterator@V?$_Tree_val@V?$_Tmap_traits@KUDefenseList@ioDefenseController@@U?$less@K@std@@V?$allocator@U?$pair@$$CBKUDefenseList@ioDefenseController@@@std@@@4@$0A@@std@@@std@@@std@@QAE@XZ ENDP ; std::_Tree_iterator<std::_Tree_val<std::_Tmap_traits<unsigned long,ioDefenseController::DefenseList,std::less<unsigned long>,std::allocator<std::pair<unsigned long const ,ioDefenseController::DefenseList> >,0> > >::_Tree_iterator<std::_Tree_val<std::_Tmap_traits<unsigned long,ioDefenseController::DefenseList,std::less<unsigned long>,std::allocator<std::pair<unsigned long const ,ioDefenseController::DefenseList> >,0> > >
_TEXT	ENDS
PUBLIC	??C?$_Tree_iterator@V?$_Tree_val@V?$_Tmap_traits@KUDefenseList@ioDefenseController@@U?$less@K@std@@V?$allocator@U?$pair@$$CBKUDefenseList@ioDefenseController@@@std@@@4@$0A@@std@@@std@@@std@@QBEPAU?$pair@$$CBKUDefenseList@ioDefenseController@@@1@XZ ; std::_Tree_iterator<std::_Tree_val<std::_Tmap_traits<unsigned long,ioDefenseController::DefenseList,std::less<unsigned long>,std::allocator<std::pair<unsigned long const ,ioDefenseController::DefenseList> >,0> > >::operator->
; Function compile flags: /Ogsp
;	COMDAT ??C?$_Tree_iterator@V?$_Tree_val@V?$_Tmap_traits@KUDefenseList@ioDefenseController@@U?$less@K@std@@V?$allocator@U?$pair@$$CBKUDefenseList@ioDefenseController@@@std@@@4@$0A@@std@@@std@@@std@@QBEPAU?$pair@$$CBKUDefenseList@ioDefenseController@@@1@XZ
_TEXT	SEGMENT
??C?$_Tree_iterator@V?$_Tree_val@V?$_Tmap_traits@KUDefenseList@ioDefenseController@@U?$less@K@std@@V?$allocator@U?$pair@$$CBKUDefenseList@ioDefenseController@@@std@@@4@$0A@@std@@@std@@@std@@QBEPAU?$pair@$$CBKUDefenseList@ioDefenseController@@@1@XZ PROC ; std::_Tree_iterator<std::_Tree_val<std::_Tmap_traits<unsigned long,ioDefenseController::DefenseList,std::less<unsigned long>,std::allocator<std::pair<unsigned long const ,ioDefenseController::DefenseList> >,0> > >::operator->, COMDAT
; _this$ = ecx

; 401  : 		return (&**this);

  00000	8b 01		 mov	 eax, DWORD PTR [ecx]
  00002	83 c0 0c	 add	 eax, 12			; 0000000cH

; 402  : 		}

  00005	c3		 ret	 0
??C?$_Tree_iterator@V?$_Tree_val@V?$_Tmap_traits@KUDefenseList@ioDefenseController@@U?$less@K@std@@V?$allocator@U?$pair@$$CBKUDefenseList@ioDefenseController@@@std@@@4@$0A@@std@@@std@@@std@@QBEPAU?$pair@$$CBKUDefenseList@ioDefenseController@@@1@XZ ENDP ; std::_Tree_iterator<std::_Tree_val<std::_Tmap_traits<unsigned long,ioDefenseController::DefenseList,std::less<unsigned long>,std::allocator<std::pair<unsigned long const ,ioDefenseController::DefenseList> >,0> > >::operator->
_TEXT	ENDS
PUBLIC	??C?$_Vector_iterator@V?$_Vector_val@V?$basic_string@DU?$char_traits@D@std@@V?$allocator@D@2@@std@@V?$allocator@V?$basic_string@DU?$char_traits@D@std@@V?$allocator@D@2@@std@@@2@@std@@@std@@QBEPAV?$basic_string@DU?$char_traits@D@std@@V?$allocator@D@2@@1@XZ ; std::_Vector_iterator<std::_Vector_val<std::basic_string<char,std::char_traits<char>,std::allocator<char> >,std::allocator<std::basic_string<char,std::char_traits<char>,std::allocator<char> > > > >::operator->
; Function compile flags: /Ogsp
; File c:\program files (x86)\microsoft visual studio 10.0\vc\include\vector
;	COMDAT ??C?$_Vector_iterator@V?$_Vector_val@V?$basic_string@DU?$char_traits@D@std@@V?$allocator@D@2@@std@@V?$allocator@V?$basic_string@DU?$char_traits@D@std@@V?$allocator@D@2@@std@@@2@@std@@@std@@QBEPAV?$basic_string@DU?$char_traits@D@std@@V?$allocator@D@2@@1@XZ
_TEXT	SEGMENT
??C?$_Vector_iterator@V?$_Vector_val@V?$basic_string@DU?$char_traits@D@std@@V?$allocator@D@2@@std@@V?$allocator@V?$basic_string@DU?$char_traits@D@std@@V?$allocator@D@2@@std@@@2@@std@@@std@@QBEPAV?$basic_string@DU?$char_traits@D@std@@V?$allocator@D@2@@1@XZ PROC ; std::_Vector_iterator<std::_Vector_val<std::basic_string<char,std::char_traits<char>,std::allocator<char> >,std::allocator<std::basic_string<char,std::char_traits<char>,std::allocator<char> > > > >::operator->, COMDAT
; _this$ = ecx

; 327  : 		return (&**this);

  00000	8b 01		 mov	 eax, DWORD PTR [ecx]

; 328  : 		}

  00002	c3		 ret	 0
??C?$_Vector_iterator@V?$_Vector_val@V?$basic_string@DU?$char_traits@D@std@@V?$allocator@D@2@@std@@V?$allocator@V?$basic_string@DU?$char_traits@D@std@@V?$allocator@D@2@@std@@@2@@std@@@std@@QBEPAV?$basic_string@DU?$char_traits@D@std@@V?$allocator@D@2@@1@XZ ENDP ; std::_Vector_iterator<std::_Vector_val<std::basic_string<char,std::char_traits<char>,std::allocator<char> >,std::allocator<std::basic_string<char,std::char_traits<char>,std::allocator<char> > > > >::operator->
_TEXT	ENDS
PUBLIC	??9?$_Vector_const_iterator@V?$_Vector_val@V?$basic_string@DU?$char_traits@D@std@@V?$allocator@D@2@@std@@V?$allocator@V?$basic_string@DU?$char_traits@D@std@@V?$allocator@D@2@@std@@@2@@std@@@std@@QBE_NABV01@@Z ; std::_Vector_const_iterator<std::_Vector_val<std::basic_string<char,std::char_traits<char>,std::allocator<char> >,std::allocator<std::basic_string<char,std::char_traits<char>,std::allocator<char> > > > >::operator!=
; Function compile flags: /Ogsp
;	COMDAT ??9?$_Vector_const_iterator@V?$_Vector_val@V?$basic_string@DU?$char_traits@D@std@@V?$allocator@D@2@@std@@V?$allocator@V?$basic_string@DU?$char_traits@D@std@@V?$allocator@D@2@@std@@@2@@std@@@std@@QBE_NABV01@@Z
_TEXT	SEGMENT
__Right$ = 8						; size = 4
??9?$_Vector_const_iterator@V?$_Vector_val@V?$basic_string@DU?$char_traits@D@std@@V?$allocator@D@2@@std@@V?$allocator@V?$basic_string@DU?$char_traits@D@std@@V?$allocator@D@2@@std@@@2@@std@@@std@@QBE_NABV01@@Z PROC ; std::_Vector_const_iterator<std::_Vector_val<std::basic_string<char,std::char_traits<char>,std::allocator<char> >,std::allocator<std::basic_string<char,std::char_traits<char>,std::allocator<char> > > > >::operator!=, COMDAT
; _this$ = ecx

; 207  : 		{	// test for iterator inequality

  00000	55		 push	 ebp
  00001	8b ec		 mov	 ebp, esp

; 208  : 		return (!(*this == _Right));

  00003	8b 01		 mov	 eax, DWORD PTR [ecx]
  00005	8b 55 08	 mov	 edx, DWORD PTR __Right$[ebp]
  00008	33 c9		 xor	 ecx, ecx
  0000a	3b 02		 cmp	 eax, DWORD PTR [edx]
  0000c	0f 95 c0	 setne	 al

; 209  : 		}

  0000f	5d		 pop	 ebp
  00010	c2 04 00	 ret	 4
??9?$_Vector_const_iterator@V?$_Vector_val@V?$basic_string@DU?$char_traits@D@std@@V?$allocator@D@2@@std@@V?$allocator@V?$basic_string@DU?$char_traits@D@std@@V?$allocator@D@2@@std@@@2@@std@@@std@@QBE_NABV01@@Z ENDP ; std::_Vector_const_iterator<std::_Vector_val<std::basic_string<char,std::char_traits<char>,std::allocator<char> >,std::allocator<std::basic_string<char,std::char_traits<char>,std::allocator<char> > > > >::operator!=
_TEXT	ENDS
PUBLIC	?HasMoreElements@?$ioListIterator@V?$list@PAVioWeapon@@V?$allocator@PAVioWeapon@@@std@@@std@@@@QBE_NXZ ; ioListIterator<std::list<ioWeapon *,std::allocator<ioWeapon *> > >::HasMoreElements
; Function compile flags: /Ogsp
; File d:\lost saga for developer\youtube\tutorial\source\src\io3dengine\iolistiterator.h
;	COMDAT ?HasMoreElements@?$ioListIterator@V?$list@PAVioWeapon@@V?$allocator@PAVioWeapon@@@std@@@std@@@@QBE_NXZ
_TEXT	SEGMENT
?HasMoreElements@?$ioListIterator@V?$list@PAVioWeapon@@V?$allocator@PAVioWeapon@@@std@@@std@@@@QBE_NXZ PROC ; ioListIterator<std::list<ioWeapon *,std::allocator<ioWeapon *> > >::HasMoreElements, COMDAT
; _this$ = ecx

; 23   : 		return m_Current != m_End;

  00000	8b 01		 mov	 eax, DWORD PTR [ecx]
  00002	33 d2		 xor	 edx, edx
  00004	3b 41 04	 cmp	 eax, DWORD PTR [ecx+4]
  00007	0f 95 c0	 setne	 al

; 24   : 	}

  0000a	c3		 ret	 0
?HasMoreElements@?$ioListIterator@V?$list@PAVioWeapon@@V?$allocator@PAVioWeapon@@@std@@@std@@@@QBE_NXZ ENDP ; ioListIterator<std::list<ioWeapon *,std::allocator<ioWeapon *> > >::HasMoreElements
_TEXT	ENDS
PUBLIC	?_Buy@?$vector@V?$basic_string@DU?$char_traits@D@std@@V?$allocator@D@2@@std@@V?$allocator@V?$basic_string@DU?$char_traits@D@std@@V?$allocator@D@2@@std@@@2@@std@@IAE_NI@Z ; std::vector<std::basic_string<char,std::char_traits<char>,std::allocator<char> >,std::allocator<std::basic_string<char,std::char_traits<char>,std::allocator<char> > > >::_Buy
; Function compile flags: /Ogsp
; File c:\program files (x86)\microsoft visual studio 10.0\vc\include\vector
;	COMDAT ?_Buy@?$vector@V?$basic_string@DU?$char_traits@D@std@@V?$allocator@D@2@@std@@V?$allocator@V?$basic_string@DU?$char_traits@D@std@@V?$allocator@D@2@@std@@@2@@std@@IAE_NI@Z
_TEXT	SEGMENT
__Capacity$ = 8						; size = 4
?_Buy@?$vector@V?$basic_string@DU?$char_traits@D@std@@V?$allocator@D@2@@std@@V?$allocator@V?$basic_string@DU?$char_traits@D@std@@V?$allocator@D@2@@std@@@2@@std@@IAE_NI@Z PROC ; std::vector<std::basic_string<char,std::char_traits<char>,std::allocator<char> >,std::allocator<std::basic_string<char,std::char_traits<char>,std::allocator<char> > > >::_Buy, COMDAT
; _this$ = ecx

; 1250 : 		{	// allocate array with _Capacity elements

  00000	55		 push	 ebp
  00001	8b ec		 mov	 ebp, esp
  00003	56		 push	 esi

; 1251 : 		this->_Myfirst = 0;

  00004	33 c0		 xor	 eax, eax
  00006	57		 push	 edi

; 1252 : 		this->_Mylast = 0;
; 1253 : 		this->_Myend = 0;
; 1254 : 
; 1255 : 		if (_Capacity == 0)

  00007	8b 7d 08	 mov	 edi, DWORD PTR __Capacity$[ebp]
  0000a	8b f1		 mov	 esi, ecx
  0000c	89 06		 mov	 DWORD PTR [esi], eax
  0000e	89 46 04	 mov	 DWORD PTR [esi+4], eax
  00011	89 46 08	 mov	 DWORD PTR [esi+8], eax
  00014	3b f8		 cmp	 edi, eax
  00016	75 04		 jne	 SHORT $LN4@Buy@2

; 1256 : 			return (false);

  00018	32 c0		 xor	 al, al
  0001a	eb 2b		 jmp	 SHORT $LN5@Buy@2
$LN4@Buy@2:

; 1257 : 		else if (max_size() < _Capacity)

  0001c	81 ff 49 92 24
	09		 cmp	 edi, 153391689		; 09249249H
  00022	76 0b		 jbe	 SHORT $LN2@Buy@2

; 1258 : 			_Xlen();	// result too long

  00024	68 00 00 00 00	 push	 OFFSET ??_C@_0BD@OLBABOEK@vector?$DMT?$DO?5too?5long?$AA@
  00029	ff 15 00 00 00
	00		 call	 DWORD PTR __imp_?_Xlength_error@std@@YAXPBD@Z
$LN19@Buy@2:
$LN2@Buy@2:

; 1259 : 		else
; 1260 : 			{	// nonempty array, allocate storage
; 1261 : 			this->_Myfirst = this->_Alval.allocate(_Capacity);

  0002f	50		 push	 eax
  00030	57		 push	 edi
  00031	e8 00 00 00 00	 call	 ??$_Allocate@V?$basic_string@DU?$char_traits@D@std@@V?$allocator@D@2@@std@@@std@@YAPAV?$basic_string@DU?$char_traits@D@std@@V?$allocator@D@2@@0@IPAV10@@Z ; std::_Allocate<std::basic_string<char,std::char_traits<char>,std::allocator<char> > >

; 1262 : 			this->_Mylast = this->_Myfirst;
; 1263 : 			this->_Myend = this->_Myfirst + _Capacity;

  00036	6b ff 1c	 imul	 edi, 28			; 0000001cH
  00039	03 f8		 add	 edi, eax
  0003b	59		 pop	 ecx
  0003c	89 06		 mov	 DWORD PTR [esi], eax
  0003e	89 46 04	 mov	 DWORD PTR [esi+4], eax
  00041	59		 pop	 ecx
  00042	89 7e 08	 mov	 DWORD PTR [esi+8], edi

; 1264 : 			}
; 1265 : 		return (true);

  00045	b0 01		 mov	 al, 1
$LN5@Buy@2:
  00047	5f		 pop	 edi
  00048	5e		 pop	 esi

; 1266 : 		}

  00049	5d		 pop	 ebp
  0004a	c2 04 00	 ret	 4
$LN18@Buy@2:
?_Buy@?$vector@V?$basic_string@DU?$char_traits@D@std@@V?$allocator@D@2@@std@@V?$allocator@V?$basic_string@DU?$char_traits@D@std@@V?$allocator@D@2@@std@@@2@@std@@IAE_NI@Z ENDP ; std::vector<std::basic_string<char,std::char_traits<char>,std::allocator<char> >,std::allocator<std::basic_string<char,std::char_traits<char>,std::allocator<char> > > >::_Buy
_TEXT	ENDS
PUBLIC	?end@?$vector@UDefenseData@ioDefenseController@@V?$allocator@UDefenseData@ioDefenseController@@@std@@@std@@QAE?AV?$_Vector_iterator@V?$_Vector_val@UDefenseData@ioDefenseController@@V?$allocator@UDefenseData@ioDefenseController@@@std@@@std@@@2@XZ ; std::vector<ioDefenseController::DefenseData,std::allocator<ioDefenseController::DefenseData> >::end
; Function compile flags: /Ogsp
;	COMDAT ?end@?$vector@UDefenseData@ioDefenseController@@V?$allocator@UDefenseData@ioDefenseController@@@std@@@std@@QAE?AV?$_Vector_iterator@V?$_Vector_val@UDefenseData@ioDefenseController@@V?$allocator@UDefenseData@ioDefenseController@@@std@@@std@@@2@XZ
_TEXT	SEGMENT
___$ReturnUdt$ = 8					; size = 4
?end@?$vector@UDefenseData@ioDefenseController@@V?$allocator@UDefenseData@ioDefenseController@@@std@@@std@@QAE?AV?$_Vector_iterator@V?$_Vector_val@UDefenseData@ioDefenseController@@V?$allocator@UDefenseData@ioDefenseController@@@std@@@std@@@2@XZ PROC ; std::vector<ioDefenseController::DefenseData,std::allocator<ioDefenseController::DefenseData> >::end, COMDAT
; _this$ = ecx

; 791  : 		{	// return iterator for end of mutable sequence

  00000	55		 push	 ebp
  00001	8b ec		 mov	 ebp, esp

; 792  : 		return (iterator(this->_Mylast, this));

  00003	8b 49 04	 mov	 ecx, DWORD PTR [ecx+4]
  00006	8b 45 08	 mov	 eax, DWORD PTR ___$ReturnUdt$[ebp]
  00009	89 08		 mov	 DWORD PTR [eax], ecx

; 793  : 		}

  0000b	5d		 pop	 ebp
  0000c	c2 04 00	 ret	 4
?end@?$vector@UDefenseData@ioDefenseController@@V?$allocator@UDefenseData@ioDefenseController@@@std@@@std@@QAE?AV?$_Vector_iterator@V?$_Vector_val@UDefenseData@ioDefenseController@@V?$allocator@UDefenseData@ioDefenseController@@@std@@@std@@@2@XZ ENDP ; std::vector<ioDefenseController::DefenseData,std::allocator<ioDefenseController::DefenseData> >::end
_TEXT	ENDS
PUBLIC	?_Make_iter@?$vector@UDefenseData@ioDefenseController@@V?$allocator@UDefenseData@ioDefenseController@@@std@@@std@@QBE?AV?$_Vector_iterator@V?$_Vector_val@UDefenseData@ioDefenseController@@V?$allocator@UDefenseData@ioDefenseController@@@std@@@std@@@2@V?$_Vector_const_iterator@V?$_Vector_val@UDefenseData@ioDefenseController@@V?$allocator@UDefenseData@ioDefenseController@@@std@@@std@@@2@@Z ; std::vector<ioDefenseController::DefenseData,std::allocator<ioDefenseController::DefenseData> >::_Make_iter
; Function compile flags: /Ogsp
;	COMDAT ?_Make_iter@?$vector@UDefenseData@ioDefenseController@@V?$allocator@UDefenseData@ioDefenseController@@@std@@@std@@QBE?AV?$_Vector_iterator@V?$_Vector_val@UDefenseData@ioDefenseController@@V?$allocator@UDefenseData@ioDefenseController@@@std@@@std@@@2@V?$_Vector_const_iterator@V?$_Vector_val@UDefenseData@ioDefenseController@@V?$allocator@UDefenseData@ioDefenseController@@@std@@@std@@@2@@Z
_TEXT	SEGMENT
___$ReturnUdt$ = 8					; size = 4
__Where$ = 12						; size = 4
?_Make_iter@?$vector@UDefenseData@ioDefenseController@@V?$allocator@UDefenseData@ioDefenseController@@@std@@@std@@QBE?AV?$_Vector_iterator@V?$_Vector_val@UDefenseData@ioDefenseController@@V?$allocator@UDefenseData@ioDefenseController@@@std@@@std@@@2@V?$_Vector_const_iterator@V?$_Vector_val@UDefenseData@ioDefenseController@@V?$allocator@UDefenseData@ioDefenseController@@@std@@@std@@@2@@Z PROC ; std::vector<ioDefenseController::DefenseData,std::allocator<ioDefenseController::DefenseData> >::_Make_iter, COMDAT
; _this$ = ecx

; 801  : 		{	// make iterator from const_iterator

  00000	55		 push	 ebp
  00001	8b ec		 mov	 ebp, esp

; 802  : 		return (iterator(_Where._Ptr, this));

  00003	8b 45 08	 mov	 eax, DWORD PTR ___$ReturnUdt$[ebp]
  00006	8b 4d 0c	 mov	 ecx, DWORD PTR __Where$[ebp]
  00009	89 08		 mov	 DWORD PTR [eax], ecx

; 803  : 		}

  0000b	5d		 pop	 ebp
  0000c	c2 08 00	 ret	 8
?_Make_iter@?$vector@UDefenseData@ioDefenseController@@V?$allocator@UDefenseData@ioDefenseController@@@std@@@std@@QBE?AV?$_Vector_iterator@V?$_Vector_val@UDefenseData@ioDefenseController@@V?$allocator@UDefenseData@ioDefenseController@@@std@@@std@@@2@V?$_Vector_const_iterator@V?$_Vector_val@UDefenseData@ioDefenseController@@V?$allocator@UDefenseData@ioDefenseController@@@std@@@std@@@2@@Z ENDP ; std::vector<ioDefenseController::DefenseData,std::allocator<ioDefenseController::DefenseData> >::_Make_iter
_TEXT	ENDS
PUBLIC	??0?$_Tree_iterator@V?$_Tree_val@V?$_Tmap_traits@KUDefenseList@ioDefenseController@@U?$less@K@std@@V?$allocator@U?$pair@$$CBKUDefenseList@ioDefenseController@@@std@@@4@$0A@@std@@@std@@@std@@QAE@PAU_Node@?$_Tree_nod@V?$_Tmap_traits@KUDefenseList@ioDefenseController@@U?$less@K@std@@V?$allocator@U?$pair@$$CBKUDefenseList@ioDefenseController@@@std@@@4@$0A@@std@@@1@PBV?$_Tree_val@V?$_Tmap_traits@KUDefenseList@ioDefenseController@@U?$less@K@std@@V?$allocator@U?$pair@$$CBKUDefenseList@ioDefenseController@@@std@@@4@$0A@@std@@@1@@Z ; std::_Tree_iterator<std::_Tree_val<std::_Tmap_traits<unsigned long,ioDefenseController::DefenseList,std::less<unsigned long>,std::allocator<std::pair<unsigned long const ,ioDefenseController::DefenseList> >,0> > >::_Tree_iterator<std::_Tree_val<std::_Tmap_traits<unsigned long,ioDefenseController::DefenseList,std::less<unsigned long>,std::allocator<std::pair<unsigned long const ,ioDefenseController::DefenseList> >,0> > >
; Function compile flags: /Ogsp
; File c:\program files (x86)\microsoft visual studio 10.0\vc\include\xtree
;	COMDAT ??0?$_Tree_iterator@V?$_Tree_val@V?$_Tmap_traits@KUDefenseList@ioDefenseController@@U?$less@K@std@@V?$allocator@U?$pair@$$CBKUDefenseList@ioDefenseController@@@std@@@4@$0A@@std@@@std@@@std@@QAE@PAU_Node@?$_Tree_nod@V?$_Tmap_traits@KUDefenseList@ioDefenseController@@U?$less@K@std@@V?$allocator@U?$pair@$$CBKUDefenseList@ioDefenseController@@@std@@@4@$0A@@std@@@1@PBV?$_Tree_val@V?$_Tmap_traits@KUDefenseList@ioDefenseController@@U?$less@K@std@@V?$allocator@U?$pair@$$CBKUDefenseList@ioDefenseController@@@std@@@4@$0A@@std@@@1@@Z
_TEXT	SEGMENT
__Pnode$ = 8						; size = 4
__Plist$ = 12						; size = 4
??0?$_Tree_iterator@V?$_Tree_val@V?$_Tmap_traits@KUDefenseList@ioDefenseController@@U?$less@K@std@@V?$allocator@U?$pair@$$CBKUDefenseList@ioDefenseController@@@std@@@4@$0A@@std@@@std@@@std@@QAE@PAU_Node@?$_Tree_nod@V?$_Tmap_traits@KUDefenseList@ioDefenseController@@U?$less@K@std@@V?$allocator@U?$pair@$$CBKUDefenseList@ioDefenseController@@@std@@@4@$0A@@std@@@1@PBV?$_Tree_val@V?$_Tmap_traits@KUDefenseList@ioDefenseController@@U?$less@K@std@@V?$allocator@U?$pair@$$CBKUDefenseList@ioDefenseController@@@std@@@4@$0A@@std@@@1@@Z PROC ; std::_Tree_iterator<std::_Tree_val<std::_Tmap_traits<unsigned long,ioDefenseController::DefenseList,std::less<unsigned long>,std::allocator<std::pair<unsigned long const ,ioDefenseController::DefenseList> >,0> > >::_Tree_iterator<std::_Tree_val<std::_Tmap_traits<unsigned long,ioDefenseController::DefenseList,std::less<unsigned long>,std::allocator<std::pair<unsigned long const ,ioDefenseController::DefenseList> >,0> > >, COMDAT
; _this$ = ecx

; 378  : 		{	// construct with node pointer _Pnode

  00000	55		 push	 ebp
  00001	8b ec		 mov	 ebp, esp
  00003	8b c1		 mov	 eax, ecx
  00005	8b 4d 08	 mov	 ecx, DWORD PTR __Pnode$[ebp]
  00008	89 08		 mov	 DWORD PTR [eax], ecx

; 379  : 		}

  0000a	5d		 pop	 ebp
  0000b	c2 08 00	 ret	 8
??0?$_Tree_iterator@V?$_Tree_val@V?$_Tmap_traits@KUDefenseList@ioDefenseController@@U?$less@K@std@@V?$allocator@U?$pair@$$CBKUDefenseList@ioDefenseController@@@std@@@4@$0A@@std@@@std@@@std@@QAE@PAU_Node@?$_Tree_nod@V?$_Tmap_traits@KUDefenseList@ioDefenseController@@U?$less@K@std@@V?$allocator@U?$pair@$$CBKUDefenseList@ioDefenseController@@@std@@@4@$0A@@std@@@1@PBV?$_Tree_val@V?$_Tmap_traits@KUDefenseList@ioDefenseController@@U?$less@K@std@@V?$allocator@U?$pair@$$CBKUDefenseList@ioDefenseController@@@std@@@4@$0A@@std@@@1@@Z ENDP ; std::_Tree_iterator<std::_Tree_val<std::_Tmap_traits<unsigned long,ioDefenseController::DefenseList,std::less<unsigned long>,std::allocator<std::pair<unsigned long const ,ioDefenseController::DefenseList> >,0> > >::_Tree_iterator<std::_Tree_val<std::_Tmap_traits<unsigned long,ioDefenseController::DefenseList,std::less<unsigned long>,std::allocator<std::pair<unsigned long const ,ioDefenseController::DefenseList> >,0> > >
_TEXT	ENDS
PUBLIC	??E?$_Tree_const_iterator@V?$_Tree_val@V?$_Tmap_traits@KUDefenseList@ioDefenseController@@U?$less@K@std@@V?$allocator@U?$pair@$$CBKUDefenseList@ioDefenseController@@@std@@@4@$0A@@std@@@std@@@std@@QAEAAV01@XZ ; std::_Tree_const_iterator<std::_Tree_val<std::_Tmap_traits<unsigned long,ioDefenseController::DefenseList,std::less<unsigned long>,std::allocator<std::pair<unsigned long const ,ioDefenseController::DefenseList> >,0> > >::operator++
; Function compile flags: /Ogsp
;	COMDAT ??E?$_Tree_const_iterator@V?$_Tree_val@V?$_Tmap_traits@KUDefenseList@ioDefenseController@@U?$less@K@std@@V?$allocator@U?$pair@$$CBKUDefenseList@ioDefenseController@@@std@@@4@$0A@@std@@@std@@@std@@QAEAAV01@XZ
_TEXT	SEGMENT
??E?$_Tree_const_iterator@V?$_Tree_val@V?$_Tmap_traits@KUDefenseList@ioDefenseController@@U?$less@K@std@@V?$allocator@U?$pair@$$CBKUDefenseList@ioDefenseController@@@std@@@4@$0A@@std@@@std@@@std@@QAEAAV01@XZ PROC ; std::_Tree_const_iterator<std::_Tree_val<std::_Tmap_traits<unsigned long,ioDefenseController::DefenseList,std::less<unsigned long>,std::allocator<std::pair<unsigned long const ,ioDefenseController::DefenseList> >,0> > >::operator++, COMDAT
; _this$ = ecx

; 250  : 		{	// preincrement

  00000	56		 push	 esi
  00001	8b f1		 mov	 esi, ecx

; 251  :  #if _ITERATOR_DEBUG_LEVEL == 2
; 252  : 		if (this->_Getcont() == 0
; 253  : 			|| this->_Ptr == 0
; 254  : 			|| _Mytree::_Isnil(this->_Ptr))
; 255  : 			{	// report error
; 256  : 			_DEBUG_ERROR("map/set iterator not incrementable");
; 257  : 			_SCL_SECURE_OUT_OF_RANGE;
; 258  : 			}
; 259  : 
; 260  :  #elif _ITERATOR_DEBUG_LEVEL == 1
; 261  : 		_SCL_SECURE_VALIDATE(this->_Getcont() != 0 && this->_Ptr != 0);
; 262  : 		_SCL_SECURE_VALIDATE_RANGE(!_Mytree::_Isnil(this->_Ptr));
; 263  :  #endif /* _ITERATOR_DEBUG_LEVEL */
; 264  : 
; 265  : 		++(*(_Mybase *)this);

  00003	e8 00 00 00 00	 call	 ??E?$_Tree_unchecked_const_iterator@V?$_Tree_val@V?$_Tmap_traits@KUDefenseList@ioDefenseController@@U?$less@K@std@@V?$allocator@U?$pair@$$CBKUDefenseList@ioDefenseController@@@std@@@4@$0A@@std@@@std@@U_Iterator_base0@2@@std@@QAEAAV01@XZ ; std::_Tree_unchecked_const_iterator<std::_Tree_val<std::_Tmap_traits<unsigned long,ioDefenseController::DefenseList,std::less<unsigned long>,std::allocator<std::pair<unsigned long const ,ioDefenseController::DefenseList> >,0> >,std::_Iterator_base0>::operator++

; 266  : 		return (*this);

  00008	8b c6		 mov	 eax, esi
  0000a	5e		 pop	 esi

; 267  : 		}

  0000b	c3		 ret	 0
??E?$_Tree_const_iterator@V?$_Tree_val@V?$_Tmap_traits@KUDefenseList@ioDefenseController@@U?$less@K@std@@V?$allocator@U?$pair@$$CBKUDefenseList@ioDefenseController@@@std@@@4@$0A@@std@@@std@@@std@@QAEAAV01@XZ ENDP ; std::_Tree_const_iterator<std::_Tree_val<std::_Tmap_traits<unsigned long,ioDefenseController::DefenseList,std::less<unsigned long>,std::allocator<std::pair<unsigned long const ,ioDefenseController::DefenseList> >,0> > >::operator++
_TEXT	ENDS
PUBLIC	??D?$_List_iterator@V?$_List_val@PAVioWeapon@@V?$allocator@PAVioWeapon@@@std@@@std@@@std@@QBEAAPAVioWeapon@@XZ ; std::_List_iterator<std::_List_val<ioWeapon *,std::allocator<ioWeapon *> > >::operator*
; Function compile flags: /Ogsp
; File c:\program files (x86)\microsoft visual studio 10.0\vc\include\list
;	COMDAT ??D?$_List_iterator@V?$_List_val@PAVioWeapon@@V?$allocator@PAVioWeapon@@@std@@@std@@@std@@QBEAAPAVioWeapon@@XZ
_TEXT	SEGMENT
??D?$_List_iterator@V?$_List_val@PAVioWeapon@@V?$allocator@PAVioWeapon@@@std@@@std@@@std@@QBEAAPAVioWeapon@@XZ PROC ; std::_List_iterator<std::_List_val<ioWeapon *,std::allocator<ioWeapon *> > >::operator*, COMDAT
; _this$ = ecx

; 360  : 		return ((reference)**(_Mybase *)this);

  00000	8b 01		 mov	 eax, DWORD PTR [ecx]
  00002	83 c0 08	 add	 eax, 8

; 361  : 		}

  00005	c3		 ret	 0
??D?$_List_iterator@V?$_List_val@PAVioWeapon@@V?$allocator@PAVioWeapon@@@std@@@std@@@std@@QBEAAPAVioWeapon@@XZ ENDP ; std::_List_iterator<std::_List_val<ioWeapon *,std::allocator<ioWeapon *> > >::operator*
_TEXT	ENDS
PUBLIC	?_Lbound@?$_Tree@V?$_Tmap_traits@KUDefenseList@ioDefenseController@@U?$less@K@std@@V?$allocator@U?$pair@$$CBKUDefenseList@ioDefenseController@@@std@@@4@$0A@@std@@@std@@IAEPAU_Node@?$_Tree_nod@V?$_Tmap_traits@KUDefenseList@ioDefenseController@@U?$less@K@std@@V?$allocator@U?$pair@$$CBKUDefenseList@ioDefenseController@@@std@@@4@$0A@@std@@@2@ABK@Z ; std::_Tree<std::_Tmap_traits<unsigned long,ioDefenseController::DefenseList,std::less<unsigned long>,std::allocator<std::pair<unsigned long const ,ioDefenseController::DefenseList> >,0> >::_Lbound
; Function compile flags: /Ogsp
; File c:\program files (x86)\microsoft visual studio 10.0\vc\include\xtree
;	COMDAT ?_Lbound@?$_Tree@V?$_Tmap_traits@KUDefenseList@ioDefenseController@@U?$less@K@std@@V?$allocator@U?$pair@$$CBKUDefenseList@ioDefenseController@@@std@@@4@$0A@@std@@@std@@IAEPAU_Node@?$_Tree_nod@V?$_Tmap_traits@KUDefenseList@ioDefenseController@@U?$less@K@std@@V?$allocator@U?$pair@$$CBKUDefenseList@ioDefenseController@@@std@@@4@$0A@@std@@@2@ABK@Z
_TEXT	SEGMENT
__Keyval$ = 8						; size = 4
?_Lbound@?$_Tree@V?$_Tmap_traits@KUDefenseList@ioDefenseController@@U?$less@K@std@@V?$allocator@U?$pair@$$CBKUDefenseList@ioDefenseController@@@std@@@4@$0A@@std@@@std@@IAEPAU_Node@?$_Tree_nod@V?$_Tmap_traits@KUDefenseList@ioDefenseController@@U?$less@K@std@@V?$allocator@U?$pair@$$CBKUDefenseList@ioDefenseController@@@std@@@4@$0A@@std@@@2@ABK@Z PROC ; std::_Tree<std::_Tmap_traits<unsigned long,ioDefenseController::DefenseList,std::less<unsigned long>,std::allocator<std::pair<unsigned long const ,ioDefenseController::DefenseList> >,0> >::_Lbound, COMDAT
; _this$ = ecx

; 1741 : 		{	// find leftmost node not less than _Keyval

  00000	55		 push	 ebp
  00001	8b ec		 mov	 ebp, esp

; 1742 : 		_Nodeptr _Pnode = _Root();

  00003	8b 41 04	 mov	 eax, DWORD PTR [ecx+4]
  00006	8b 48 04	 mov	 ecx, DWORD PTR [eax+4]

; 1743 : 		_Nodeptr _Wherenode = this->_Myhead;	// end() if search fails
; 1744 : 
; 1745 : 		while (!this->_Isnil(_Pnode))

  00009	80 79 3d 00	 cmp	 BYTE PTR [ecx+61], 0
  0000d	75 19		 jne	 SHORT $LN3@Lbound
  0000f	8b 55 08	 mov	 edx, DWORD PTR __Keyval$[ebp]
  00012	8b 12		 mov	 edx, DWORD PTR [edx]
$LL4@Lbound:

; 1746 : 			if (_DEBUG_LT_PRED(this->comp, this->_Key(_Pnode), _Keyval))

  00014	39 51 0c	 cmp	 DWORD PTR [ecx+12], edx
  00017	73 05		 jae	 SHORT $LN2@Lbound

; 1747 : 				_Pnode = this->_Right(_Pnode);	// descend right subtree

  00019	8b 49 08	 mov	 ecx, DWORD PTR [ecx+8]

; 1748 : 			else

  0001c	eb 04		 jmp	 SHORT $LN1@Lbound
$LN2@Lbound:

; 1749 : 				{	// _Pnode not less than _Keyval, remember it
; 1750 : 				_Wherenode = _Pnode;

  0001e	8b c1		 mov	 eax, ecx

; 1751 : 				_Pnode = this->_Left(_Pnode);	// descend left subtree

  00020	8b 09		 mov	 ecx, DWORD PTR [ecx]
$LN1@Lbound:

; 1743 : 		_Nodeptr _Wherenode = this->_Myhead;	// end() if search fails
; 1744 : 
; 1745 : 		while (!this->_Isnil(_Pnode))

  00022	80 79 3d 00	 cmp	 BYTE PTR [ecx+61], 0
  00026	74 ec		 je	 SHORT $LL4@Lbound
$LN3@Lbound:

; 1752 : 				}
; 1753 : 
; 1754 : 		return (_Wherenode);	// return best remembered candidate
; 1755 : 		}

  00028	5d		 pop	 ebp
  00029	c2 04 00	 ret	 4
?_Lbound@?$_Tree@V?$_Tmap_traits@KUDefenseList@ioDefenseController@@U?$less@K@std@@V?$allocator@U?$pair@$$CBKUDefenseList@ioDefenseController@@@std@@@4@$0A@@std@@@std@@IAEPAU_Node@?$_Tree_nod@V?$_Tmap_traits@KUDefenseList@ioDefenseController@@U?$less@K@std@@V?$allocator@U?$pair@$$CBKUDefenseList@ioDefenseController@@@std@@@4@$0A@@std@@@2@ABK@Z ENDP ; std::_Tree<std::_Tmap_traits<unsigned long,ioDefenseController::DefenseList,std::less<unsigned long>,std::allocator<std::pair<unsigned long const ,ioDefenseController::DefenseList> >,0> >::_Lbound
_TEXT	ENDS
PUBLIC	??0?$_Tree_val@V?$_Tmap_traits@KUDefenseList@ioDefenseController@@U?$less@K@std@@V?$allocator@U?$pair@$$CBKUDefenseList@ioDefenseController@@@std@@@4@$0A@@std@@@std@@QAE@ABU?$less@K@1@V?$allocator@U?$pair@$$CBKUDefenseList@ioDefenseController@@@std@@@1@@Z ; std::_Tree_val<std::_Tmap_traits<unsigned long,ioDefenseController::DefenseList,std::less<unsigned long>,std::allocator<std::pair<unsigned long const ,ioDefenseController::DefenseList> >,0> >::_Tree_val<std::_Tmap_traits<unsigned long,ioDefenseController::DefenseList,std::less<unsigned long>,std::allocator<std::pair<unsigned long const ,ioDefenseController::DefenseList> >,0> >
; Function compile flags: /Ogsp
;	COMDAT ??0?$_Tree_val@V?$_Tmap_traits@KUDefenseList@ioDefenseController@@U?$less@K@std@@V?$allocator@U?$pair@$$CBKUDefenseList@ioDefenseController@@@std@@@4@$0A@@std@@@std@@QAE@ABU?$less@K@1@V?$allocator@U?$pair@$$CBKUDefenseList@ioDefenseController@@@std@@@1@@Z
_TEXT	SEGMENT
$T539664 = -16						; size = 12
$T539645 = -4						; size = 4
__Parg$ = 8						; size = 4
__Al$ = 12						; size = 1
??0?$_Tree_val@V?$_Tmap_traits@KUDefenseList@ioDefenseController@@U?$less@K@std@@V?$allocator@U?$pair@$$CBKUDefenseList@ioDefenseController@@@std@@@4@$0A@@std@@@std@@QAE@ABU?$less@K@1@V?$allocator@U?$pair@$$CBKUDefenseList@ioDefenseController@@@std@@@1@@Z PROC ; std::_Tree_val<std::_Tmap_traits<unsigned long,ioDefenseController::DefenseList,std::less<unsigned long>,std::allocator<std::pair<unsigned long const ,ioDefenseController::DefenseList> >,0> >::_Tree_val<std::_Tmap_traits<unsigned long,ioDefenseController::DefenseList,std::less<unsigned long>,std::allocator<std::pair<unsigned long const ,ioDefenseController::DefenseList> >,0> >, COMDAT
; _this$ = ecx

; 542  : 		{	// construct base, and allocator from _Al

  00000	55		 push	 ebp
  00001	8b ec		 mov	 ebp, esp
  00003	83 ec 10	 sub	 esp, 16			; 00000010H
  00006	56		 push	 esi
  00007	8b f1		 mov	 esi, ecx

; 543  : 		this->_Mysize = 0;

  00009	83 66 08 00	 and	 DWORD PTR [esi+8], 0

; 544  : 		this->_Myhead = this->_Alnod.allocate(1);

  0000d	6a 40		 push	 64			; 00000040H
  0000f	e8 00 00 00 00	 call	 ??2@YAPAXI@Z		; operator new
  00014	59		 pop	 ecx
  00015	85 c0		 test	 eax, eax
  00017	74 26		 je	 SHORT $LN15@Tree_val
  00019	89 46 04	 mov	 DWORD PTR [esi+4], eax

; 545  : 
; 546  : 		this->_Left(this->_Myhead) = this->_Myhead;

  0001c	89 00		 mov	 DWORD PTR [eax], eax

; 547  : 		this->_Parent(this->_Myhead) = this->_Myhead;

  0001e	8b 46 04	 mov	 eax, DWORD PTR [esi+4]
  00021	89 40 04	 mov	 DWORD PTR [eax+4], eax

; 548  : 		this->_Right(this->_Myhead) = this->_Myhead;

  00024	8b 46 04	 mov	 eax, DWORD PTR [esi+4]
  00027	89 40 08	 mov	 DWORD PTR [eax+8], eax

; 549  : 		this->_Color(this->_Myhead) = this->_Black;

  0002a	8b 46 04	 mov	 eax, DWORD PTR [esi+4]
  0002d	c6 40 3c 01	 mov	 BYTE PTR [eax+60], 1

; 550  : 		this->_Isnil(this->_Myhead) = true;

  00031	8b 46 04	 mov	 eax, DWORD PTR [esi+4]
  00034	c6 40 3d 01	 mov	 BYTE PTR [eax+61], 1

; 551  : 		}

  00038	8b c6		 mov	 eax, esi
  0003a	5e		 pop	 esi
  0003b	c9		 leave
  0003c	c2 08 00	 ret	 8

; 544  : 		this->_Myhead = this->_Alnod.allocate(1);

$LN15@Tree_val:
  0003f	83 65 fc 00	 and	 DWORD PTR $T539645[ebp], 0
  00043	8d 45 fc	 lea	 eax, DWORD PTR $T539645[ebp]
  00046	50		 push	 eax
  00047	8d 4d f0	 lea	 ecx, DWORD PTR $T539664[ebp]
  0004a	ff 15 00 00 00
	00		 call	 DWORD PTR __imp_??0exception@std@@QAE@ABQBD@Z
  00050	68 00 00 00 00	 push	 OFFSET __TI2?AVbad_alloc@std@@
  00055	8d 45 f0	 lea	 eax, DWORD PTR $T539664[ebp]
  00058	50		 push	 eax
  00059	c7 45 f0 00 00
	00 00		 mov	 DWORD PTR $T539664[ebp], OFFSET ??_7bad_alloc@std@@6B@
  00060	e8 00 00 00 00	 call	 __CxxThrowException@8
$LN37@Tree_val:
$LN36@Tree_val:
  00065	cc		 int	 3
??0?$_Tree_val@V?$_Tmap_traits@KUDefenseList@ioDefenseController@@U?$less@K@std@@V?$allocator@U?$pair@$$CBKUDefenseList@ioDefenseController@@@std@@@4@$0A@@std@@@std@@QAE@ABU?$less@K@1@V?$allocator@U?$pair@$$CBKUDefenseList@ioDefenseController@@@std@@@1@@Z ENDP ; std::_Tree_val<std::_Tmap_traits<unsigned long,ioDefenseController::DefenseList,std::less<unsigned long>,std::allocator<std::pair<unsigned long const ,ioDefenseController::DefenseList> >,0> >::_Tree_val<std::_Tmap_traits<unsigned long,ioDefenseController::DefenseList,std::less<unsigned long>,std::allocator<std::pair<unsigned long const ,ioDefenseController::DefenseList> >,0> >
_TEXT	ENDS
PUBLIC	??E?$_List_iterator@V?$_List_val@PAVioWeapon@@V?$allocator@PAVioWeapon@@@std@@@std@@@std@@QAEAAV01@XZ ; std::_List_iterator<std::_List_val<ioWeapon *,std::allocator<ioWeapon *> > >::operator++
; Function compile flags: /Ogsp
; File c:\program files (x86)\microsoft visual studio 10.0\vc\include\list
;	COMDAT ??E?$_List_iterator@V?$_List_val@PAVioWeapon@@V?$allocator@PAVioWeapon@@@std@@@std@@@std@@QAEAAV01@XZ
_TEXT	SEGMENT
??E?$_List_iterator@V?$_List_val@PAVioWeapon@@V?$allocator@PAVioWeapon@@@std@@@std@@@std@@QAEAAV01@XZ PROC ; std::_List_iterator<std::_List_val<ioWeapon *,std::allocator<ioWeapon *> > >::operator++, COMDAT
; _this$ = ecx

; 369  : 		{	// preincrement

  00000	8b c1		 mov	 eax, ecx

; 370  : 		++(*(_Mybase *)this);

  00002	8b 08		 mov	 ecx, DWORD PTR [eax]
  00004	8b 09		 mov	 ecx, DWORD PTR [ecx]
  00006	89 08		 mov	 DWORD PTR [eax], ecx

; 371  : 		return (*this);
; 372  : 		}

  00008	c3		 ret	 0
??E?$_List_iterator@V?$_List_val@PAVioWeapon@@V?$allocator@PAVioWeapon@@@std@@@std@@@std@@QAEAAV01@XZ ENDP ; std::_List_iterator<std::_List_val<ioWeapon *,std::allocator<ioWeapon *> > >::operator++
_TEXT	ENDS
PUBLIC	??9?$_Vector_const_iterator@V?$_Vector_val@UDefenseData@ioDefenseController@@V?$allocator@UDefenseData@ioDefenseController@@@std@@@std@@@std@@QBE_NABV01@@Z ; std::_Vector_const_iterator<std::_Vector_val<ioDefenseController::DefenseData,std::allocator<ioDefenseController::DefenseData> > >::operator!=
; Function compile flags: /Ogsp
; File c:\program files (x86)\microsoft visual studio 10.0\vc\include\vector
;	COMDAT ??9?$_Vector_const_iterator@V?$_Vector_val@UDefenseData@ioDefenseController@@V?$allocator@UDefenseData@ioDefenseController@@@std@@@std@@@std@@QBE_NABV01@@Z
_TEXT	SEGMENT
__Right$ = 8						; size = 4
??9?$_Vector_const_iterator@V?$_Vector_val@UDefenseData@ioDefenseController@@V?$allocator@UDefenseData@ioDefenseController@@@std@@@std@@@std@@QBE_NABV01@@Z PROC ; std::_Vector_const_iterator<std::_Vector_val<ioDefenseController::DefenseData,std::allocator<ioDefenseController::DefenseData> > >::operator!=, COMDAT
; _this$ = ecx

; 207  : 		{	// test for iterator inequality

  00000	55		 push	 ebp
  00001	8b ec		 mov	 ebp, esp

; 208  : 		return (!(*this == _Right));

  00003	8b 01		 mov	 eax, DWORD PTR [ecx]
  00005	8b 55 08	 mov	 edx, DWORD PTR __Right$[ebp]
  00008	33 c9		 xor	 ecx, ecx
  0000a	3b 02		 cmp	 eax, DWORD PTR [edx]
  0000c	0f 95 c0	 setne	 al

; 209  : 		}

  0000f	5d		 pop	 ebp
  00010	c2 04 00	 ret	 4
??9?$_Vector_const_iterator@V?$_Vector_val@UDefenseData@ioDefenseController@@V?$allocator@UDefenseData@ioDefenseController@@@std@@@std@@@std@@QBE_NABV01@@Z ENDP ; std::_Vector_const_iterator<std::_Vector_val<ioDefenseController::DefenseData,std::allocator<ioDefenseController::DefenseData> > >::operator!=
_TEXT	ENDS
PUBLIC	??E?$_Tree_const_iterator@V?$_Tree_val@V?$_Tmap_traits@KUDefenseList@ioDefenseController@@U?$less@K@std@@V?$allocator@U?$pair@$$CBKUDefenseList@ioDefenseController@@@std@@@4@$0A@@std@@@std@@@std@@QAE?AV01@H@Z ; std::_Tree_const_iterator<std::_Tree_val<std::_Tmap_traits<unsigned long,ioDefenseController::DefenseList,std::less<unsigned long>,std::allocator<std::pair<unsigned long const ,ioDefenseController::DefenseList> >,0> > >::operator++
; Function compile flags: /Ogsp
; File c:\program files (x86)\microsoft visual studio 10.0\vc\include\xtree
;	COMDAT ??E?$_Tree_const_iterator@V?$_Tree_val@V?$_Tmap_traits@KUDefenseList@ioDefenseController@@U?$less@K@std@@V?$allocator@U?$pair@$$CBKUDefenseList@ioDefenseController@@@std@@@4@$0A@@std@@@std@@@std@@QAE?AV01@H@Z
_TEXT	SEGMENT
___$ReturnUdt$ = 8					; size = 4
___formal$ = 12						; size = 4
??E?$_Tree_const_iterator@V?$_Tree_val@V?$_Tmap_traits@KUDefenseList@ioDefenseController@@U?$less@K@std@@V?$allocator@U?$pair@$$CBKUDefenseList@ioDefenseController@@@std@@@4@$0A@@std@@@std@@@std@@QAE?AV01@H@Z PROC ; std::_Tree_const_iterator<std::_Tree_val<std::_Tmap_traits<unsigned long,ioDefenseController::DefenseList,std::less<unsigned long>,std::allocator<std::pair<unsigned long const ,ioDefenseController::DefenseList> >,0> > >::operator++, COMDAT
; _this$ = ecx

; 270  : 		{	// postincrement

  00000	55		 push	 ebp
  00001	8b ec		 mov	 ebp, esp

; 271  : 		_Myiter _Tmp = *this;

  00003	8b 01		 mov	 eax, DWORD PTR [ecx]
  00005	56		 push	 esi
  00006	8b 75 08	 mov	 esi, DWORD PTR ___$ReturnUdt$[ebp]
  00009	89 06		 mov	 DWORD PTR [esi], eax

; 272  : 		++*this;

  0000b	e8 00 00 00 00	 call	 ??E?$_Tree_unchecked_const_iterator@V?$_Tree_val@V?$_Tmap_traits@KUDefenseList@ioDefenseController@@U?$less@K@std@@V?$allocator@U?$pair@$$CBKUDefenseList@ioDefenseController@@@std@@@4@$0A@@std@@@std@@U_Iterator_base0@2@@std@@QAEAAV01@XZ ; std::_Tree_unchecked_const_iterator<std::_Tree_val<std::_Tmap_traits<unsigned long,ioDefenseController::DefenseList,std::less<unsigned long>,std::allocator<std::pair<unsigned long const ,ioDefenseController::DefenseList> >,0> >,std::_Iterator_base0>::operator++

; 273  : 		return (_Tmp);

  00010	8b c6		 mov	 eax, esi
  00012	5e		 pop	 esi

; 274  : 		}

  00013	5d		 pop	 ebp
  00014	c2 08 00	 ret	 8
??E?$_Tree_const_iterator@V?$_Tree_val@V?$_Tmap_traits@KUDefenseList@ioDefenseController@@U?$less@K@std@@V?$allocator@U?$pair@$$CBKUDefenseList@ioDefenseController@@@std@@@4@$0A@@std@@@std@@@std@@QAE?AV01@H@Z ENDP ; std::_Tree_const_iterator<std::_Tree_val<std::_Tmap_traits<unsigned long,ioDefenseController::DefenseList,std::less<unsigned long>,std::allocator<std::pair<unsigned long const ,ioDefenseController::DefenseList> >,0> > >::operator++
_TEXT	ENDS
PUBLIC	??$_Cons_val@V?$allocator@UDefenseData@ioDefenseController@@@std@@UDefenseData@ioDefenseController@@ABU34@@std@@YAXAAV?$allocator@UDefenseData@ioDefenseController@@@0@PAUDefenseData@ioDefenseController@@ABU23@@Z ; std::_Cons_val<std::allocator<ioDefenseController::DefenseData>,ioDefenseController::DefenseData,ioDefenseController::DefenseData const &>
; Function compile flags: /Ogsp
; File c:\program files (x86)\microsoft visual studio 10.0\vc\include\xmemory
;	COMDAT ??$_Cons_val@V?$allocator@UDefenseData@ioDefenseController@@@std@@UDefenseData@ioDefenseController@@ABU34@@std@@YAXAAV?$allocator@UDefenseData@ioDefenseController@@@0@PAUDefenseData@ioDefenseController@@ABU23@@Z
_TEXT	SEGMENT
__Alval$ = 8						; size = 4
__Pdest$ = 12						; size = 4
__Src$ = 16						; size = 4
??$_Cons_val@V?$allocator@UDefenseData@ioDefenseController@@@std@@UDefenseData@ioDefenseController@@ABU34@@std@@YAXAAV?$allocator@UDefenseData@ioDefenseController@@@0@PAUDefenseData@ioDefenseController@@ABU23@@Z PROC ; std::_Cons_val<std::allocator<ioDefenseController::DefenseData>,ioDefenseController::DefenseData,ioDefenseController::DefenseData const &>, COMDAT

; 279  : 	{	// construct using allocator

  00000	55		 push	 ebp
  00001	8b ec		 mov	 ebp, esp

; 280  : 	_Alval.construct(_Pdest, _STD forward<_Ty2>(_Src));

  00003	8b 45 0c	 mov	 eax, DWORD PTR __Pdest$[ebp]
  00006	85 c0		 test	 eax, eax
  00008	74 0d		 je	 SHORT $LN9@Cons_val@3
  0000a	8b 4d 10	 mov	 ecx, DWORD PTR __Src$[ebp]
  0000d	8b 11		 mov	 edx, DWORD PTR [ecx]
  0000f	89 10		 mov	 DWORD PTR [eax], edx
  00011	8b 49 04	 mov	 ecx, DWORD PTR [ecx+4]
  00014	89 48 04	 mov	 DWORD PTR [eax+4], ecx
$LN9@Cons_val@3:

; 281  : 	}

  00017	5d		 pop	 ebp
  00018	c3		 ret	 0
??$_Cons_val@V?$allocator@UDefenseData@ioDefenseController@@@std@@UDefenseData@ioDefenseController@@ABU34@@std@@YAXAAV?$allocator@UDefenseData@ioDefenseController@@@0@PAUDefenseData@ioDefenseController@@ABU23@@Z ENDP ; std::_Cons_val<std::allocator<ioDefenseController::DefenseData>,ioDefenseController::DefenseData,ioDefenseController::DefenseData const &>
_TEXT	ENDS
PUBLIC	??$_Move@PAUDefenseData@ioDefenseController@@PAU12@@std@@YAPAUDefenseData@ioDefenseController@@PAU12@00@Z ; std::_Move<ioDefenseController::DefenseData *,ioDefenseController::DefenseData *>
; Function compile flags: /Ogsp
; File c:\program files (x86)\microsoft visual studio 10.0\vc\include\xutility
;	COMDAT ??$_Move@PAUDefenseData@ioDefenseController@@PAU12@@std@@YAPAUDefenseData@ioDefenseController@@PAU12@00@Z
_TEXT	SEGMENT
__Cat$539766 = -4					; size = 1
__First$ = 8						; size = 4
__Last$ = 12						; size = 4
__Dest$ = 16						; size = 4
??$_Move@PAUDefenseData@ioDefenseController@@PAU12@@std@@YAPAUDefenseData@ioDefenseController@@PAU12@00@Z PROC ; std::_Move<ioDefenseController::DefenseData *,ioDefenseController::DefenseData *>, COMDAT

; 2533 : 	{	// move [_First, _Last) to [_Dest, ...), unchecked

  00000	55		 push	 ebp
  00001	8b ec		 mov	 ebp, esp
  00003	51		 push	 ecx

; 2534 : 	return (_Move(_First, _Last,
; 2535 : 		_Dest, _Ptr_cat(_First, _Dest)));

  00004	ff 75 fc	 push	 DWORD PTR __Cat$539766[ebp]
  00007	ff 75 10	 push	 DWORD PTR __Dest$[ebp]
  0000a	ff 75 0c	 push	 DWORD PTR __Last$[ebp]
  0000d	ff 75 08	 push	 DWORD PTR __First$[ebp]
  00010	e8 00 00 00 00	 call	 ??$_Move@PAUDefenseData@ioDefenseController@@PAU12@@std@@YAPAUDefenseData@ioDefenseController@@PAU12@00U_Nonscalar_ptr_iterator_tag@0@@Z ; std::_Move<ioDefenseController::DefenseData *,ioDefenseController::DefenseData *>
  00015	83 c4 10	 add	 esp, 16			; 00000010H

; 2536 : 	}

  00018	c9		 leave
  00019	c3		 ret	 0
??$_Move@PAUDefenseData@ioDefenseController@@PAU12@@std@@YAPAUDefenseData@ioDefenseController@@PAU12@00@Z ENDP ; std::_Move<ioDefenseController::DefenseData *,ioDefenseController::DefenseData *>
_TEXT	ENDS
PUBLIC	??F?$_Tree_iterator@V?$_Tree_val@V?$_Tmap_traits@KUDefenseList@ioDefenseController@@U?$less@K@std@@V?$allocator@U?$pair@$$CBKUDefenseList@ioDefenseController@@@std@@@4@$0A@@std@@@std@@@std@@QAEAAV01@XZ ; std::_Tree_iterator<std::_Tree_val<std::_Tmap_traits<unsigned long,ioDefenseController::DefenseList,std::less<unsigned long>,std::allocator<std::pair<unsigned long const ,ioDefenseController::DefenseList> >,0> > >::operator--
; Function compile flags: /Ogsp
; File c:\program files (x86)\microsoft visual studio 10.0\vc\include\xtree
;	COMDAT ??F?$_Tree_iterator@V?$_Tree_val@V?$_Tmap_traits@KUDefenseList@ioDefenseController@@U?$less@K@std@@V?$allocator@U?$pair@$$CBKUDefenseList@ioDefenseController@@@std@@@4@$0A@@std@@@std@@@std@@QAEAAV01@XZ
_TEXT	SEGMENT
??F?$_Tree_iterator@V?$_Tree_val@V?$_Tmap_traits@KUDefenseList@ioDefenseController@@U?$less@K@std@@V?$allocator@U?$pair@$$CBKUDefenseList@ioDefenseController@@@std@@@4@$0A@@std@@@std@@@std@@QAEAAV01@XZ PROC ; std::_Tree_iterator<std::_Tree_val<std::_Tmap_traits<unsigned long,ioDefenseController::DefenseList,std::less<unsigned long>,std::allocator<std::pair<unsigned long const ,ioDefenseController::DefenseList> >,0> > >::operator--, COMDAT
; _this$ = ecx

; 418  : 		{	// predecrement

  00000	56		 push	 esi
  00001	8b f1		 mov	 esi, ecx

; 419  : 		--(*(_Mybase *)this);

  00003	e8 00 00 00 00	 call	 ??F?$_Tree_unchecked_const_iterator@V?$_Tree_val@V?$_Tmap_traits@KUDefenseList@ioDefenseController@@U?$less@K@std@@V?$allocator@U?$pair@$$CBKUDefenseList@ioDefenseController@@@std@@@4@$0A@@std@@@std@@U_Iterator_base0@2@@std@@QAEAAV01@XZ ; std::_Tree_unchecked_const_iterator<std::_Tree_val<std::_Tmap_traits<unsigned long,ioDefenseController::DefenseList,std::less<unsigned long>,std::allocator<std::pair<unsigned long const ,ioDefenseController::DefenseList> >,0> >,std::_Iterator_base0>::operator--

; 420  : 		return (*this);

  00008	8b c6		 mov	 eax, esi
  0000a	5e		 pop	 esi

; 421  : 		}

  0000b	c3		 ret	 0
??F?$_Tree_iterator@V?$_Tree_val@V?$_Tmap_traits@KUDefenseList@ioDefenseController@@U?$less@K@std@@V?$allocator@U?$pair@$$CBKUDefenseList@ioDefenseController@@@std@@@4@$0A@@std@@@std@@@std@@QAEAAV01@XZ ENDP ; std::_Tree_iterator<std::_Tree_val<std::_Tmap_traits<unsigned long,ioDefenseController::DefenseList,std::less<unsigned long>,std::allocator<std::pair<unsigned long const ,ioDefenseController::DefenseList> >,0> > >::operator--
_TEXT	ENDS
PUBLIC	??0?$pair@V?$_Tree_iterator@V?$_Tree_val@V?$_Tmap_traits@KUDefenseList@ioDefenseController@@U?$less@K@std@@V?$allocator@U?$pair@$$CBKUDefenseList@ioDefenseController@@@std@@@4@$0A@@std@@@std@@@std@@_N@std@@QAE@$$QAV?$_Tree_iterator@V?$_Tree_val@V?$_Tmap_traits@KUDefenseList@ioDefenseController@@U?$less@K@std@@V?$allocator@U?$pair@$$CBKUDefenseList@ioDefenseController@@@std@@@4@$0A@@std@@@std@@@1@$$QA_N@Z ; std::pair<std::_Tree_iterator<std::_Tree_val<std::_Tmap_traits<unsigned long,ioDefenseController::DefenseList,std::less<unsigned long>,std::allocator<std::pair<unsigned long const ,ioDefenseController::DefenseList> >,0> > >,bool>::pair<std::_Tree_iterator<std::_Tree_val<std::_Tmap_traits<unsigned long,ioDefenseController::DefenseList,std::less<unsigned long>,std::allocator<std::pair<unsigned long const ,ioDefenseController::DefenseList> >,0> > >,bool>
; Function compile flags: /Ogsp
; File c:\program files (x86)\microsoft visual studio 10.0\vc\include\utility
;	COMDAT ??0?$pair@V?$_Tree_iterator@V?$_Tree_val@V?$_Tmap_traits@KUDefenseList@ioDefenseController@@U?$less@K@std@@V?$allocator@U?$pair@$$CBKUDefenseList@ioDefenseController@@@std@@@4@$0A@@std@@@std@@@std@@_N@std@@QAE@$$QAV?$_Tree_iterator@V?$_Tree_val@V?$_Tmap_traits@KUDefenseList@ioDefenseController@@U?$less@K@std@@V?$allocator@U?$pair@$$CBKUDefenseList@ioDefenseController@@@std@@@4@$0A@@std@@@std@@@1@$$QA_N@Z
_TEXT	SEGMENT
__Val1$ = 8						; size = 4
__Val2$ = 12						; size = 4
??0?$pair@V?$_Tree_iterator@V?$_Tree_val@V?$_Tmap_traits@KUDefenseList@ioDefenseController@@U?$less@K@std@@V?$allocator@U?$pair@$$CBKUDefenseList@ioDefenseController@@@std@@@4@$0A@@std@@@std@@@std@@_N@std@@QAE@$$QAV?$_Tree_iterator@V?$_Tree_val@V?$_Tmap_traits@KUDefenseList@ioDefenseController@@U?$less@K@std@@V?$allocator@U?$pair@$$CBKUDefenseList@ioDefenseController@@@std@@@4@$0A@@std@@@std@@@1@$$QA_N@Z PROC ; std::pair<std::_Tree_iterator<std::_Tree_val<std::_Tmap_traits<unsigned long,ioDefenseController::DefenseList,std::less<unsigned long>,std::allocator<std::pair<unsigned long const ,ioDefenseController::DefenseList> >,0> > >,bool>::pair<std::_Tree_iterator<std::_Tree_val<std::_Tmap_traits<unsigned long,ioDefenseController::DefenseList,std::less<unsigned long>,std::allocator<std::pair<unsigned long const ,ioDefenseController::DefenseList> >,0> > >,bool>, COMDAT
; _this$ = ecx

; 227  : 		{	// construct from specified values

  00000	55		 push	 ebp
  00001	8b ec		 mov	 ebp, esp
  00003	8b c1		 mov	 eax, ecx
  00005	8b 4d 08	 mov	 ecx, DWORD PTR __Val1$[ebp]
  00008	8b 09		 mov	 ecx, DWORD PTR [ecx]
  0000a	89 08		 mov	 DWORD PTR [eax], ecx
  0000c	8b 4d 0c	 mov	 ecx, DWORD PTR __Val2$[ebp]
  0000f	8a 09		 mov	 cl, BYTE PTR [ecx]
  00011	88 48 04	 mov	 BYTE PTR [eax+4], cl

; 228  : 		}

  00014	5d		 pop	 ebp
  00015	c2 08 00	 ret	 8
??0?$pair@V?$_Tree_iterator@V?$_Tree_val@V?$_Tmap_traits@KUDefenseList@ioDefenseController@@U?$less@K@std@@V?$allocator@U?$pair@$$CBKUDefenseList@ioDefenseController@@@std@@@4@$0A@@std@@@std@@@std@@_N@std@@QAE@$$QAV?$_Tree_iterator@V?$_Tree_val@V?$_Tmap_traits@KUDefenseList@ioDefenseController@@U?$less@K@std@@V?$allocator@U?$pair@$$CBKUDefenseList@ioDefenseController@@@std@@@4@$0A@@std@@@std@@@1@$$QA_N@Z ENDP ; std::pair<std::_Tree_iterator<std::_Tree_val<std::_Tmap_traits<unsigned long,ioDefenseController::DefenseList,std::less<unsigned long>,std::allocator<std::pair<unsigned long const ,ioDefenseController::DefenseList> >,0> > >,bool>::pair<std::_Tree_iterator<std::_Tree_val<std::_Tmap_traits<unsigned long,ioDefenseController::DefenseList,std::less<unsigned long>,std::allocator<std::pair<unsigned long const ,ioDefenseController::DefenseList> >,0> > >,bool>
_TEXT	ENDS
PUBLIC	??$?0AAV?$_Tree_iterator@V?$_Tree_val@V?$_Tmap_traits@KUDefenseList@ioDefenseController@@U?$less@K@std@@V?$allocator@U?$pair@$$CBKUDefenseList@ioDefenseController@@@std@@@4@$0A@@std@@@std@@@std@@_N@?$pair@V?$_Tree_iterator@V?$_Tree_val@V?$_Tmap_traits@KUDefenseList@ioDefenseController@@U?$less@K@std@@V?$allocator@U?$pair@$$CBKUDefenseList@ioDefenseController@@@std@@@4@$0A@@std@@@std@@@std@@_N@std@@QAE@AAV?$_Tree_iterator@V?$_Tree_val@V?$_Tmap_traits@KUDefenseList@ioDefenseController@@U?$less@K@std@@V?$allocator@U?$pair@$$CBKUDefenseList@ioDefenseController@@@std@@@4@$0A@@std@@@std@@@1@$$QA_N@Z ; std::pair<std::_Tree_iterator<std::_Tree_val<std::_Tmap_traits<unsigned long,ioDefenseController::DefenseList,std::less<unsigned long>,std::allocator<std::pair<unsigned long const ,ioDefenseController::DefenseList> >,0> > >,bool>::pair<std::_Tree_iterator<std::_Tree_val<std::_Tmap_traits<unsigned long,ioDefenseController::DefenseList,std::less<unsigned long>,std::allocator<std::pair<unsigned long const ,ioDefenseController::DefenseList> >,0> > >,bool><std::_Tree_iterator<std::_Tree_val<std::_Tmap_traits<unsigned long,ioDefenseController::DefenseList,std::less<unsigned long>,std::allocator<std::pair<unsigned long const ,ioDefenseController::DefenseList> >,0> > > &,bool>
; Function compile flags: /Ogsp
;	COMDAT ??$?0AAV?$_Tree_iterator@V?$_Tree_val@V?$_Tmap_traits@KUDefenseList@ioDefenseController@@U?$less@K@std@@V?$allocator@U?$pair@$$CBKUDefenseList@ioDefenseController@@@std@@@4@$0A@@std@@@std@@@std@@_N@?$pair@V?$_Tree_iterator@V?$_Tree_val@V?$_Tmap_traits@KUDefenseList@ioDefenseController@@U?$less@K@std@@V?$allocator@U?$pair@$$CBKUDefenseList@ioDefenseController@@@std@@@4@$0A@@std@@@std@@@std@@_N@std@@QAE@AAV?$_Tree_iterator@V?$_Tree_val@V?$_Tmap_traits@KUDefenseList@ioDefenseController@@U?$less@K@std@@V?$allocator@U?$pair@$$CBKUDefenseList@ioDefenseController@@@std@@@4@$0A@@std@@@std@@@1@$$QA_N@Z
_TEXT	SEGMENT
__Val1$ = 8						; size = 4
__Val2$ = 12						; size = 4
??$?0AAV?$_Tree_iterator@V?$_Tree_val@V?$_Tmap_traits@KUDefenseList@ioDefenseController@@U?$less@K@std@@V?$allocator@U?$pair@$$CBKUDefenseList@ioDefenseController@@@std@@@4@$0A@@std@@@std@@@std@@_N@?$pair@V?$_Tree_iterator@V?$_Tree_val@V?$_Tmap_traits@KUDefenseList@ioDefenseController@@U?$less@K@std@@V?$allocator@U?$pair@$$CBKUDefenseList@ioDefenseController@@@std@@@4@$0A@@std@@@std@@@std@@_N@std@@QAE@AAV?$_Tree_iterator@V?$_Tree_val@V?$_Tmap_traits@KUDefenseList@ioDefenseController@@U?$less@K@std@@V?$allocator@U?$pair@$$CBKUDefenseList@ioDefenseController@@@std@@@4@$0A@@std@@@std@@@1@$$QA_N@Z PROC ; std::pair<std::_Tree_iterator<std::_Tree_val<std::_Tmap_traits<unsigned long,ioDefenseController::DefenseList,std::less<unsigned long>,std::allocator<std::pair<unsigned long const ,ioDefenseController::DefenseList> >,0> > >,bool>::pair<std::_Tree_iterator<std::_Tree_val<std::_Tmap_traits<unsigned long,ioDefenseController::DefenseList,std::less<unsigned long>,std::allocator<std::pair<unsigned long const ,ioDefenseController::DefenseList> >,0> > >,bool><std::_Tree_iterator<std::_Tree_val<std::_Tmap_traits<unsigned long,ioDefenseController::DefenseList,std::less<unsigned long>,std::allocator<std::pair<unsigned long const ,ioDefenseController::DefenseList> >,0> > > &,bool>, COMDAT
; _this$ = ecx

; 247  : 		{	// construct from moved values

  00000	55		 push	 ebp
  00001	8b ec		 mov	 ebp, esp
  00003	8b c1		 mov	 eax, ecx
  00005	8b 4d 08	 mov	 ecx, DWORD PTR __Val1$[ebp]
  00008	8b 09		 mov	 ecx, DWORD PTR [ecx]
  0000a	89 08		 mov	 DWORD PTR [eax], ecx
  0000c	8b 4d 0c	 mov	 ecx, DWORD PTR __Val2$[ebp]
  0000f	8a 09		 mov	 cl, BYTE PTR [ecx]
  00011	88 48 04	 mov	 BYTE PTR [eax+4], cl

; 248  : 		}

  00014	5d		 pop	 ebp
  00015	c2 08 00	 ret	 8
??$?0AAV?$_Tree_iterator@V?$_Tree_val@V?$_Tmap_traits@KUDefenseList@ioDefenseController@@U?$less@K@std@@V?$allocator@U?$pair@$$CBKUDefenseList@ioDefenseController@@@std@@@4@$0A@@std@@@std@@@std@@_N@?$pair@V?$_Tree_iterator@V?$_Tree_val@V?$_Tmap_traits@KUDefenseList@ioDefenseController@@U?$less@K@std@@V?$allocator@U?$pair@$$CBKUDefenseList@ioDefenseController@@@std@@@4@$0A@@std@@@std@@@std@@_N@std@@QAE@AAV?$_Tree_iterator@V?$_Tree_val@V?$_Tmap_traits@KUDefenseList@ioDefenseController@@U?$less@K@std@@V?$allocator@U?$pair@$$CBKUDefenseList@ioDefenseController@@@std@@@4@$0A@@std@@@std@@@1@$$QA_N@Z ENDP ; std::pair<std::_Tree_iterator<std::_Tree_val<std::_Tmap_traits<unsigned long,ioDefenseController::DefenseList,std::less<unsigned long>,std::allocator<std::pair<unsigned long const ,ioDefenseController::DefenseList> >,0> > >,bool>::pair<std::_Tree_iterator<std::_Tree_val<std::_Tmap_traits<unsigned long,ioDefenseController::DefenseList,std::less<unsigned long>,std::allocator<std::pair<unsigned long const ,ioDefenseController::DefenseList> >,0> > >,bool><std::_Tree_iterator<std::_Tree_val<std::_Tmap_traits<unsigned long,ioDefenseController::DefenseList,std::less<unsigned long>,std::allocator<std::pair<unsigned long const ,ioDefenseController::DefenseList> >,0> > > &,bool>
_TEXT	ENDS
PUBLIC	?_Buy@?$vector@KV?$allocator@K@std@@@std@@IAE_NI@Z ; std::vector<unsigned long,std::allocator<unsigned long> >::_Buy
; Function compile flags: /Ogsp
; File c:\program files (x86)\microsoft visual studio 10.0\vc\include\vector
;	COMDAT ?_Buy@?$vector@KV?$allocator@K@std@@@std@@IAE_NI@Z
_TEXT	SEGMENT
__Capacity$ = 8						; size = 4
?_Buy@?$vector@KV?$allocator@K@std@@@std@@IAE_NI@Z PROC	; std::vector<unsigned long,std::allocator<unsigned long> >::_Buy, COMDAT
; _this$ = ecx

; 1250 : 		{	// allocate array with _Capacity elements

  00000	55		 push	 ebp
  00001	8b ec		 mov	 ebp, esp
  00003	56		 push	 esi

; 1251 : 		this->_Myfirst = 0;

  00004	33 c0		 xor	 eax, eax
  00006	57		 push	 edi

; 1252 : 		this->_Mylast = 0;
; 1253 : 		this->_Myend = 0;
; 1254 : 
; 1255 : 		if (_Capacity == 0)

  00007	8b 7d 08	 mov	 edi, DWORD PTR __Capacity$[ebp]
  0000a	8b f1		 mov	 esi, ecx
  0000c	89 06		 mov	 DWORD PTR [esi], eax
  0000e	89 46 04	 mov	 DWORD PTR [esi+4], eax
  00011	89 46 08	 mov	 DWORD PTR [esi+8], eax
  00014	3b f8		 cmp	 edi, eax
  00016	75 04		 jne	 SHORT $LN4@Buy@3

; 1256 : 			return (false);

  00018	32 c0		 xor	 al, al
  0001a	eb 29		 jmp	 SHORT $LN5@Buy@3
$LN4@Buy@3:

; 1257 : 		else if (max_size() < _Capacity)

  0001c	81 ff ff ff ff
	3f		 cmp	 edi, 1073741823		; 3fffffffH
  00022	76 0b		 jbe	 SHORT $LN2@Buy@3

; 1258 : 			_Xlen();	// result too long

  00024	68 00 00 00 00	 push	 OFFSET ??_C@_0BD@OLBABOEK@vector?$DMT?$DO?5too?5long?$AA@
  00029	ff 15 00 00 00
	00		 call	 DWORD PTR __imp_?_Xlength_error@std@@YAXPBD@Z
$LN19@Buy@3:
$LN2@Buy@3:

; 1259 : 		else
; 1260 : 			{	// nonempty array, allocate storage
; 1261 : 			this->_Myfirst = this->_Alval.allocate(_Capacity);

  0002f	50		 push	 eax
  00030	57		 push	 edi
  00031	e8 00 00 00 00	 call	 ??$_Allocate@K@std@@YAPAKIPAK@Z ; std::_Allocate<unsigned long>
  00036	89 06		 mov	 DWORD PTR [esi], eax

; 1262 : 			this->_Mylast = this->_Myfirst;

  00038	89 46 04	 mov	 DWORD PTR [esi+4], eax

; 1263 : 			this->_Myend = this->_Myfirst + _Capacity;

  0003b	8d 04 b8	 lea	 eax, DWORD PTR [eax+edi*4]
  0003e	59		 pop	 ecx
  0003f	89 46 08	 mov	 DWORD PTR [esi+8], eax
  00042	59		 pop	 ecx

; 1264 : 			}
; 1265 : 		return (true);

  00043	b0 01		 mov	 al, 1
$LN5@Buy@3:
  00045	5f		 pop	 edi
  00046	5e		 pop	 esi

; 1266 : 		}

  00047	5d		 pop	 ebp
  00048	c2 04 00	 ret	 4
$LN18@Buy@3:
?_Buy@?$vector@KV?$allocator@K@std@@@std@@IAE_NI@Z ENDP	; std::vector<unsigned long,std::allocator<unsigned long> >::_Buy
_TEXT	ENDS
PUBLIC	??$_Dest_val@V?$allocator@UDefenseData@ioDefenseController@@@std@@UDefenseData@ioDefenseController@@@std@@YAXAAV?$allocator@UDefenseData@ioDefenseController@@@0@PAUDefenseData@ioDefenseController@@@Z ; std::_Dest_val<std::allocator<ioDefenseController::DefenseData>,ioDefenseController::DefenseData>
; Function compile flags: /Ogsp
; File c:\program files (x86)\microsoft visual studio 10.0\vc\include\xmemory
;	COMDAT ??$_Dest_val@V?$allocator@UDefenseData@ioDefenseController@@@std@@UDefenseData@ioDefenseController@@@std@@YAXAAV?$allocator@UDefenseData@ioDefenseController@@@0@PAUDefenseData@ioDefenseController@@@Z
_TEXT	SEGMENT
__Alval$ = 8						; size = 4
__Pdest$ = 12						; size = 4
??$_Dest_val@V?$allocator@UDefenseData@ioDefenseController@@@std@@UDefenseData@ioDefenseController@@@std@@YAXAAV?$allocator@UDefenseData@ioDefenseController@@@0@PAUDefenseData@ioDefenseController@@@Z PROC ; std::_Dest_val<std::allocator<ioDefenseController::DefenseData>,ioDefenseController::DefenseData>, COMDAT

; 287  : 	_Alval.destroy(_Pdest);
; 288  : 	}

  00000	c3		 ret	 0
??$_Dest_val@V?$allocator@UDefenseData@ioDefenseController@@@std@@UDefenseData@ioDefenseController@@@std@@YAXAAV?$allocator@UDefenseData@ioDefenseController@@@0@PAUDefenseData@ioDefenseController@@@Z ENDP ; std::_Dest_val<std::allocator<ioDefenseController::DefenseData>,ioDefenseController::DefenseData>
_TEXT	ENDS
PUBLIC	??$_Cons_val@V?$allocator@UDefenseData@ioDefenseController@@@std@@UDefenseData@ioDefenseController@@U34@@std@@YAXAAV?$allocator@UDefenseData@ioDefenseController@@@0@PAUDefenseData@ioDefenseController@@$$QAU23@@Z ; std::_Cons_val<std::allocator<ioDefenseController::DefenseData>,ioDefenseController::DefenseData,ioDefenseController::DefenseData>
; Function compile flags: /Ogsp
;	COMDAT ??$_Cons_val@V?$allocator@UDefenseData@ioDefenseController@@@std@@UDefenseData@ioDefenseController@@U34@@std@@YAXAAV?$allocator@UDefenseData@ioDefenseController@@@0@PAUDefenseData@ioDefenseController@@$$QAU23@@Z
_TEXT	SEGMENT
__Alval$ = 8						; size = 4
__Pdest$ = 12						; size = 4
__Src$ = 16						; size = 4
??$_Cons_val@V?$allocator@UDefenseData@ioDefenseController@@@std@@UDefenseData@ioDefenseController@@U34@@std@@YAXAAV?$allocator@UDefenseData@ioDefenseController@@@0@PAUDefenseData@ioDefenseController@@$$QAU23@@Z PROC ; std::_Cons_val<std::allocator<ioDefenseController::DefenseData>,ioDefenseController::DefenseData,ioDefenseController::DefenseData>, COMDAT

; 279  : 	{	// construct using allocator

  00000	55		 push	 ebp
  00001	8b ec		 mov	 ebp, esp

; 280  : 	_Alval.construct(_Pdest, _STD forward<_Ty2>(_Src));

  00003	8b 45 0c	 mov	 eax, DWORD PTR __Pdest$[ebp]
  00006	85 c0		 test	 eax, eax
  00008	74 0d		 je	 SHORT $LN7@Cons_val@4
  0000a	8b 4d 10	 mov	 ecx, DWORD PTR __Src$[ebp]
  0000d	8b 11		 mov	 edx, DWORD PTR [ecx]
  0000f	89 10		 mov	 DWORD PTR [eax], edx
  00011	8b 49 04	 mov	 ecx, DWORD PTR [ecx+4]
  00014	89 48 04	 mov	 DWORD PTR [eax+4], ecx
$LN7@Cons_val@4:

; 281  : 	}

  00017	5d		 pop	 ebp
  00018	c3		 ret	 0
??$_Cons_val@V?$allocator@UDefenseData@ioDefenseController@@@std@@UDefenseData@ioDefenseController@@U34@@std@@YAXAAV?$allocator@UDefenseData@ioDefenseController@@@0@PAUDefenseData@ioDefenseController@@$$QAU23@@Z ENDP ; std::_Cons_val<std::allocator<ioDefenseController::DefenseData>,ioDefenseController::DefenseData,ioDefenseController::DefenseData>
_TEXT	ENDS
PUBLIC	??$_Uninit_copy@V?$_Vector_const_iterator@V?$_Vector_val@UDefenseData@ioDefenseController@@V?$allocator@UDefenseData@ioDefenseController@@@std@@@std@@@std@@PAUDefenseData@ioDefenseController@@V?$allocator@UDefenseData@ioDefenseController@@@2@@std@@YAPAUDefenseData@ioDefenseController@@V?$_Vector_const_iterator@V?$_Vector_val@UDefenseData@ioDefenseController@@V?$allocator@UDefenseData@ioDefenseController@@@std@@@std@@@0@0PAU12@AAV?$allocator@UDefenseData@ioDefenseController@@@0@U_Nonscalar_ptr_iterator_tag@0@@Z ; std::_Uninit_copy<std::_Vector_const_iterator<std::_Vector_val<ioDefenseController::DefenseData,std::allocator<ioDefenseController::DefenseData> > >,ioDefenseController::DefenseData *,std::allocator<ioDefenseController::DefenseData> >
; Function compile flags: /Ogsp
; File c:\program files (x86)\microsoft visual studio 10.0\vc\include\memory
;	COMDAT ??$_Uninit_copy@V?$_Vector_const_iterator@V?$_Vector_val@UDefenseData@ioDefenseController@@V?$allocator@UDefenseData@ioDefenseController@@@std@@@std@@@std@@PAUDefenseData@ioDefenseController@@V?$allocator@UDefenseData@ioDefenseController@@@2@@std@@YAPAUDefenseData@ioDefenseController@@V?$_Vector_const_iterator@V?$_Vector_val@UDefenseData@ioDefenseController@@V?$allocator@UDefenseData@ioDefenseController@@@std@@@std@@@0@0PAU12@AAV?$allocator@UDefenseData@ioDefenseController@@@0@U_Nonscalar_ptr_iterator_tag@0@@Z
_TEXT	SEGMENT
__First$ = 8						; size = 4
__Last$ = 12						; size = 4
__Dest$ = 16						; size = 4
__Al$ = 20						; size = 4
___formal$ = 24						; size = 1
??$_Uninit_copy@V?$_Vector_const_iterator@V?$_Vector_val@UDefenseData@ioDefenseController@@V?$allocator@UDefenseData@ioDefenseController@@@std@@@std@@@std@@PAUDefenseData@ioDefenseController@@V?$allocator@UDefenseData@ioDefenseController@@@2@@std@@YAPAUDefenseData@ioDefenseController@@V?$_Vector_const_iterator@V?$_Vector_val@UDefenseData@ioDefenseController@@V?$allocator@UDefenseData@ioDefenseController@@@std@@@std@@@0@0PAU12@AAV?$allocator@UDefenseData@ioDefenseController@@@0@U_Nonscalar_ptr_iterator_tag@0@@Z PROC ; std::_Uninit_copy<std::_Vector_const_iterator<std::_Vector_val<ioDefenseController::DefenseData,std::allocator<ioDefenseController::DefenseData> > >,ioDefenseController::DefenseData *,std::allocator<ioDefenseController::DefenseData> >, COMDAT

; 369  : 	{	// copy [_First, _Last) to raw _Dest, using _Al, arbitrary type

  00000	55		 push	 ebp
  00001	8b ec		 mov	 ebp, esp

; 370  : 	_DEBUG_RANGE(_First, _Last);
; 371  : 	_DEBUG_POINTER(_Dest);
; 372  : 	_FwdIt _Next = _Dest;
; 373  : 
; 374  : 	_TRY_BEGIN
; 375  : 	for (; _First != _Last; ++_Dest, ++_First)

  00003	eb 19		 jmp	 SHORT $LN35@Uninit_cop
$LL14@Uninit_cop:

; 376  : 		_Cons_val(_Al, _Dest, *_First);

  00005	ff 75 08	 push	 DWORD PTR __First$[ebp]
  00008	ff 75 10	 push	 DWORD PTR __Dest$[ebp]
  0000b	ff 75 14	 push	 DWORD PTR __Al$[ebp]
  0000e	e8 00 00 00 00	 call	 ??$_Cons_val@V?$allocator@UDefenseData@ioDefenseController@@@std@@UDefenseData@ioDefenseController@@ABU34@@std@@YAXAAV?$allocator@UDefenseData@ioDefenseController@@@0@PAUDefenseData@ioDefenseController@@ABU23@@Z ; std::_Cons_val<std::allocator<ioDefenseController::DefenseData>,ioDefenseController::DefenseData,ioDefenseController::DefenseData const &>
  00013	83 45 10 08	 add	 DWORD PTR __Dest$[ebp], 8
  00017	83 c4 0c	 add	 esp, 12			; 0000000cH
  0001a	83 45 08 08	 add	 DWORD PTR __First$[ebp], 8
$LN35@Uninit_cop:

; 370  : 	_DEBUG_RANGE(_First, _Last);
; 371  : 	_DEBUG_POINTER(_Dest);
; 372  : 	_FwdIt _Next = _Dest;
; 373  : 
; 374  : 	_TRY_BEGIN
; 375  : 	for (; _First != _Last; ++_Dest, ++_First)

  0001e	8b 45 08	 mov	 eax, DWORD PTR __First$[ebp]
  00021	3b 45 0c	 cmp	 eax, DWORD PTR __Last$[ebp]
  00024	75 df		 jne	 SHORT $LL14@Uninit_cop

; 377  : 	_CATCH_ALL
; 378  : 	for (; _Next != _Dest; ++_Next)
; 379  : 		_Dest_val(_Al, _Next);
; 380  : 	_RERAISE;
; 381  : 	_CATCH_END
; 382  : 	return (_Dest);

  00026	8b 45 10	 mov	 eax, DWORD PTR __Dest$[ebp]

; 383  : 	}

  00029	5d		 pop	 ebp
  0002a	c3		 ret	 0
??$_Uninit_copy@V?$_Vector_const_iterator@V?$_Vector_val@UDefenseData@ioDefenseController@@V?$allocator@UDefenseData@ioDefenseController@@@std@@@std@@@std@@PAUDefenseData@ioDefenseController@@V?$allocator@UDefenseData@ioDefenseController@@@2@@std@@YAPAUDefenseData@ioDefenseController@@V?$_Vector_const_iterator@V?$_Vector_val@UDefenseData@ioDefenseController@@V?$allocator@UDefenseData@ioDefenseController@@@std@@@std@@@0@0PAU12@AAV?$allocator@UDefenseData@ioDefenseController@@@0@U_Nonscalar_ptr_iterator_tag@0@@Z ENDP ; std::_Uninit_copy<std::_Vector_const_iterator<std::_Vector_val<ioDefenseController::DefenseData,std::allocator<ioDefenseController::DefenseData> > >,ioDefenseController::DefenseData *,std::allocator<ioDefenseController::DefenseData> >
_TEXT	ENDS
PUBLIC	??$_Dest_val@V?$allocator@K@std@@K@std@@YAXAAV?$allocator@K@0@PAK@Z ; std::_Dest_val<std::allocator<unsigned long>,unsigned long>
; Function compile flags: /Ogsp
; File c:\program files (x86)\microsoft visual studio 10.0\vc\include\xmemory
;	COMDAT ??$_Dest_val@V?$allocator@K@std@@K@std@@YAXAAV?$allocator@K@0@PAK@Z
_TEXT	SEGMENT
__Alval$ = 8						; size = 4
__Pdest$ = 12						; size = 4
??$_Dest_val@V?$allocator@K@std@@K@std@@YAXAAV?$allocator@K@0@PAK@Z PROC ; std::_Dest_val<std::allocator<unsigned long>,unsigned long>, COMDAT

; 287  : 	_Alval.destroy(_Pdest);
; 288  : 	}

  00000	c3		 ret	 0
??$_Dest_val@V?$allocator@K@std@@K@std@@YAXAAV?$allocator@K@0@PAK@Z ENDP ; std::_Dest_val<std::allocator<unsigned long>,unsigned long>
_TEXT	ENDS
PUBLIC	?GetTeam@ioPlayEntity@@QBE?AW4TeamType@@XZ	; ioPlayEntity::GetTeam
; Function compile flags: /Ogsp
; File d:\lost saga for developer\youtube\tutorial\source\src\lsclient\ioplayentity.h
;	COMDAT ?GetTeam@ioPlayEntity@@QBE?AW4TeamType@@XZ
_TEXT	SEGMENT
_value$539947 = -4					; size = 4
?GetTeam@ioPlayEntity@@QBE?AW4TeamType@@XZ PROC		; ioPlayEntity::GetTeam, COMDAT
; _this$ = ecx

; 107  : 	inline TeamType GetTeam() const { return m_TeamType; }

  00000	55		 push	 ebp
  00001	8b ec		 mov	 ebp, esp
  00003	51		 push	 ecx
  00004	8d 45 fc	 lea	 eax, DWORD PTR _value$539947[ebp]
  00007	50		 push	 eax
  00008	81 c1 90 00 00
	00		 add	 ecx, 144		; 00000090H
  0000e	e8 00 00 00 00	 call	 ?DecryptValueToPool@?$CEncrypt@W4TeamType@@@@QAEXPAW4TeamType@@@Z ; CEncrypt<enum TeamType>::DecryptValueToPool
  00013	8b 45 fc	 mov	 eax, DWORD PTR _value$539947[ebp]
  00016	c9		 leave
  00017	c3		 ret	 0
?GetTeam@ioPlayEntity@@QBE?AW4TeamType@@XZ ENDP		; ioPlayEntity::GetTeam
_TEXT	ENDS
PUBLIC	?GetTeam@ioWeapon@@QBE?AW4TeamType@@XZ		; ioWeapon::GetTeam
; Function compile flags: /Ogsp
; File d:\lost saga for developer\youtube\tutorial\source\src\lsclient\ioweapon.h
;	COMDAT ?GetTeam@ioWeapon@@QBE?AW4TeamType@@XZ
_TEXT	SEGMENT
_value$539954 = -4					; size = 4
?GetTeam@ioWeapon@@QBE?AW4TeamType@@XZ PROC		; ioWeapon::GetTeam, COMDAT
; _this$ = ecx

; 534  : 	inline TeamType GetTeam() const { return m_TeamType; }

  00000	55		 push	 ebp
  00001	8b ec		 mov	 ebp, esp
  00003	51		 push	 ecx
  00004	8d 45 fc	 lea	 eax, DWORD PTR _value$539954[ebp]
  00007	50		 push	 eax
  00008	83 c1 30	 add	 ecx, 48			; 00000030H
  0000b	e8 00 00 00 00	 call	 ?DecryptValueToPool@?$CEncrypt@W4TeamType@@@@QAEXPAW4TeamType@@@Z ; CEncrypt<enum TeamType>::DecryptValueToPool
  00010	8b 45 fc	 mov	 eax, DWORD PTR _value$539954[ebp]
  00013	c9		 leave
  00014	c3		 ret	 0
?GetTeam@ioWeapon@@QBE?AW4TeamType@@XZ ENDP		; ioWeapon::GetTeam
_TEXT	ENDS
PUBLIC	??0?$vector@KV?$allocator@K@std@@@std@@QAE@XZ	; std::vector<unsigned long,std::allocator<unsigned long> >::vector<unsigned long,std::allocator<unsigned long> >
; Function compile flags: /Ogsp
; File c:\program files (x86)\microsoft visual studio 10.0\vc\include\vector
;	COMDAT ??0?$vector@KV?$allocator@K@std@@@std@@QAE@XZ
_TEXT	SEGMENT
??0?$vector@KV?$allocator@K@std@@@std@@QAE@XZ PROC	; std::vector<unsigned long,std::allocator<unsigned long> >::vector<unsigned long,std::allocator<unsigned long> >, COMDAT
; _this$ = ecx

; 507  : 		{	// construct empty vector

  00000	8b c1		 mov	 eax, ecx
  00002	33 c9		 xor	 ecx, ecx
  00004	89 08		 mov	 DWORD PTR [eax], ecx
  00006	89 48 04	 mov	 DWORD PTR [eax+4], ecx
  00009	89 48 08	 mov	 DWORD PTR [eax+8], ecx

; 508  : 		}

  0000c	c3		 ret	 0
??0?$vector@KV?$allocator@K@std@@@std@@QAE@XZ ENDP	; std::vector<unsigned long,std::allocator<unsigned long> >::vector<unsigned long,std::allocator<unsigned long> >
_TEXT	ENDS
PUBLIC	?_Tidy@?$basic_string@DU?$char_traits@D@std@@V?$allocator@D@2@@std@@QAEX_NI@Z ; std::basic_string<char,std::char_traits<char>,std::allocator<char> >::_Tidy
; Function compile flags: /Ogsp
; File c:\program files (x86)\microsoft visual studio 10.0\vc\include\xstring
;	COMDAT ?_Tidy@?$basic_string@DU?$char_traits@D@std@@V?$allocator@D@2@@std@@QAEX_NI@Z
_TEXT	SEGMENT
__Built$ = 8						; size = 1
__Newsize$ = 12						; size = 4
?_Tidy@?$basic_string@DU?$char_traits@D@std@@V?$allocator@D@2@@std@@QAEX_NI@Z PROC ; std::basic_string<char,std::char_traits<char>,std::allocator<char> >::_Tidy, COMDAT
; _this$ = ecx

; 1988 : 		{	// initialize buffer, deallocating any storage

  00000	55		 push	 ebp
  00001	8b ec		 mov	 ebp, esp

; 1989 : 		if (!_Built)

  00003	80 7d 08 00	 cmp	 BYTE PTR __Built$[ebp], 0
  00007	56		 push	 esi
  00008	57		 push	 edi
  00009	8b 7d 0c	 mov	 edi, DWORD PTR __Newsize$[ebp]
  0000c	8b f1		 mov	 esi, ecx
  0000e	74 20		 je	 SHORT $LN9@Tidy

; 1990 : 			;
; 1991 : 		else if (this->_BUF_SIZE <= this->_Myres)

  00010	83 7e 14 10	 cmp	 DWORD PTR [esi+20], 16	; 00000010H
  00014	72 1a		 jb	 SHORT $LN9@Tidy

; 1992 : 			{	// copy any leftovers to small buffer and deallocate
; 1993 : 			_Elem *_Ptr = this->_Bx._Ptr;

  00016	53		 push	 ebx
  00017	8b 1e		 mov	 ebx, DWORD PTR [esi]

; 1994 : 			if (0 < _Newsize)

  00019	85 ff		 test	 edi, edi
  0001b	74 0b		 je	 SHORT $LN7@Tidy

; 1995 : 				_Traits::copy(this->_Bx._Buf, _Ptr, _Newsize);

  0001d	57		 push	 edi
  0001e	53		 push	 ebx
  0001f	56		 push	 esi
  00020	e8 00 00 00 00	 call	 _memcpy
  00025	83 c4 0c	 add	 esp, 12			; 0000000cH
$LN7@Tidy:

; 1996 : 			this->_Alval.deallocate(_Ptr, this->_Myres + 1);

  00028	53		 push	 ebx
  00029	e8 00 00 00 00	 call	 ??3@YAXPAX@Z		; operator delete
  0002e	59		 pop	 ecx
  0002f	5b		 pop	 ebx
$LN9@Tidy:

; 1997 : 			}
; 1998 : 		this->_Myres = this->_BUF_SIZE - 1;
; 1999 : 		_Eos(_Newsize);

  00030	89 7e 10	 mov	 DWORD PTR [esi+16], edi
  00033	c7 46 14 0f 00
	00 00		 mov	 DWORD PTR [esi+20], 15	; 0000000fH
  0003a	c6 04 37 00	 mov	 BYTE PTR [edi+esi], 0
  0003e	5f		 pop	 edi
  0003f	5e		 pop	 esi

; 2000 : 		}

  00040	5d		 pop	 ebp
  00041	c2 08 00	 ret	 8
?_Tidy@?$basic_string@DU?$char_traits@D@std@@V?$allocator@D@2@@std@@QAEX_NI@Z ENDP ; std::basic_string<char,std::char_traits<char>,std::allocator<char> >::_Tidy
_TEXT	ENDS
PUBLIC	?begin@?$vector@KV?$allocator@K@std@@@std@@QAE?AV?$_Vector_iterator@V?$_Vector_val@KV?$allocator@K@std@@@std@@@2@XZ ; std::vector<unsigned long,std::allocator<unsigned long> >::begin
; Function compile flags: /Ogsp
; File c:\program files (x86)\microsoft visual studio 10.0\vc\include\vector
;	COMDAT ?begin@?$vector@KV?$allocator@K@std@@@std@@QAE?AV?$_Vector_iterator@V?$_Vector_val@KV?$allocator@K@std@@@std@@@2@XZ
_TEXT	SEGMENT
___$ReturnUdt$ = 8					; size = 4
?begin@?$vector@KV?$allocator@K@std@@@std@@QAE?AV?$_Vector_iterator@V?$_Vector_val@KV?$allocator@K@std@@@std@@@2@XZ PROC ; std::vector<unsigned long,std::allocator<unsigned long> >::begin, COMDAT
; _this$ = ecx

; 781  : 		{	// return iterator for beginning of mutable sequence

  00000	55		 push	 ebp
  00001	8b ec		 mov	 ebp, esp

; 782  : 		return (iterator(this->_Myfirst, this));

  00003	8b 09		 mov	 ecx, DWORD PTR [ecx]
  00005	8b 45 08	 mov	 eax, DWORD PTR ___$ReturnUdt$[ebp]
  00008	89 08		 mov	 DWORD PTR [eax], ecx

; 783  : 		}

  0000a	5d		 pop	 ebp
  0000b	c2 04 00	 ret	 4
?begin@?$vector@KV?$allocator@K@std@@@std@@QAE?AV?$_Vector_iterator@V?$_Vector_val@KV?$allocator@K@std@@@std@@@2@XZ ENDP ; std::vector<unsigned long,std::allocator<unsigned long> >::begin
_TEXT	ENDS
PUBLIC	?end@?$vector@KV?$allocator@K@std@@@std@@QAE?AV?$_Vector_iterator@V?$_Vector_val@KV?$allocator@K@std@@@std@@@2@XZ ; std::vector<unsigned long,std::allocator<unsigned long> >::end
; Function compile flags: /Ogsp
;	COMDAT ?end@?$vector@KV?$allocator@K@std@@@std@@QAE?AV?$_Vector_iterator@V?$_Vector_val@KV?$allocator@K@std@@@std@@@2@XZ
_TEXT	SEGMENT
___$ReturnUdt$ = 8					; size = 4
?end@?$vector@KV?$allocator@K@std@@@std@@QAE?AV?$_Vector_iterator@V?$_Vector_val@KV?$allocator@K@std@@@std@@@2@XZ PROC ; std::vector<unsigned long,std::allocator<unsigned long> >::end, COMDAT
; _this$ = ecx

; 791  : 		{	// return iterator for end of mutable sequence

  00000	55		 push	 ebp
  00001	8b ec		 mov	 ebp, esp

; 792  : 		return (iterator(this->_Mylast, this));

  00003	8b 49 04	 mov	 ecx, DWORD PTR [ecx+4]
  00006	8b 45 08	 mov	 eax, DWORD PTR ___$ReturnUdt$[ebp]
  00009	89 08		 mov	 DWORD PTR [eax], ecx

; 793  : 		}

  0000b	5d		 pop	 ebp
  0000c	c2 04 00	 ret	 4
?end@?$vector@KV?$allocator@K@std@@@std@@QAE?AV?$_Vector_iterator@V?$_Vector_val@KV?$allocator@K@std@@@std@@@2@XZ ENDP ; std::vector<unsigned long,std::allocator<unsigned long> >::end
_TEXT	ENDS
PUBLIC	?erase@?$basic_string@DU?$char_traits@D@std@@V?$allocator@D@2@@std@@QAEAAV12@II@Z ; std::basic_string<char,std::char_traits<char>,std::allocator<char> >::erase
; Function compile flags: /Ogsp
; File c:\program files (x86)\microsoft visual studio 10.0\vc\include\xstring
;	COMDAT ?erase@?$basic_string@DU?$char_traits@D@std@@V?$allocator@D@2@@std@@QAEAAV12@II@Z
_TEXT	SEGMENT
__Off$ = 8						; size = 4
__Count$ = 12						; size = 4
?erase@?$basic_string@DU?$char_traits@D@std@@V?$allocator@D@2@@std@@QAEAAV12@II@Z PROC ; std::basic_string<char,std::char_traits<char>,std::allocator<char> >::erase, COMDAT
; _this$ = ecx

; 1109 : 		{	// erase elements [_Off, _Off + _Count)

  00000	55		 push	 ebp
  00001	8b ec		 mov	 ebp, esp
  00003	53		 push	 ebx
  00004	56		 push	 esi
  00005	8b f1		 mov	 esi, ecx

; 1110 : 		if (this->_Mysize < _Off)

  00007	8b 46 10	 mov	 eax, DWORD PTR [esi+16]
  0000a	8b 4d 08	 mov	 ecx, DWORD PTR __Off$[ebp]
  0000d	3b c1		 cmp	 eax, ecx
  0000f	73 0b		 jae	 SHORT $LN3@erase

; 1111 : 			_Xran();	// _Off off end

  00011	68 00 00 00 00	 push	 OFFSET ??_C@_0BI@CFPLBAOH@invalid?5string?5position?$AA@
  00016	ff 15 00 00 00
	00		 call	 DWORD PTR __imp_?_Xout_of_range@std@@YAXPBD@Z
$LN28@erase:
$LN3@erase:

; 1112 : 		if (this->_Mysize - _Off < _Count)

  0001c	8b 5d 0c	 mov	 ebx, DWORD PTR __Count$[ebp]
  0001f	2b c1		 sub	 eax, ecx
  00021	3b c3		 cmp	 eax, ebx

; 1113 : 			_Count = this->_Mysize - _Off;	// trim _Count

  00023	0f 42 d8	 cmovb	 ebx, eax

; 1114 : 		if (0 < _Count)

  00026	85 db		 test	 ebx, ebx
  00028	74 47		 je	 SHORT $LN25@erase

; 1115 : 			{	// move elements down
; 1116 : 			_Traits::move(_Myptr() + _Off, _Myptr() + _Off + _Count,
; 1117 : 				this->_Mysize - _Off - _Count);

  0002a	8b 56 14	 mov	 edx, DWORD PTR [esi+20]
  0002d	57		 push	 edi
  0002e	83 fa 10	 cmp	 edx, 16			; 00000010H
  00031	72 04		 jb	 SHORT $LN11@erase
  00033	8b 3e		 mov	 edi, DWORD PTR [esi]
  00035	eb 02		 jmp	 SHORT $LN12@erase
$LN11@erase:
  00037	8b fe		 mov	 edi, esi
$LN12@erase:
  00039	83 fa 10	 cmp	 edx, 16			; 00000010H
  0003c	72 04		 jb	 SHORT $LN15@erase
  0003e	8b 16		 mov	 edx, DWORD PTR [esi]
  00040	eb 02		 jmp	 SHORT $LN16@erase
$LN15@erase:
  00042	8b d6		 mov	 edx, esi
$LN16@erase:
  00044	2b c3		 sub	 eax, ebx
  00046	03 f9		 add	 edi, ecx
  00048	50		 push	 eax
  00049	03 fb		 add	 edi, ebx
  0004b	03 d1		 add	 edx, ecx
  0004d	57		 push	 edi
  0004e	52		 push	 edx
  0004f	ff 15 00 00 00
	00		 call	 DWORD PTR __imp__memmove

; 1118 : 			size_type _Newsize = this->_Mysize - _Count;

  00055	8b 46 10	 mov	 eax, DWORD PTR [esi+16]
  00058	83 c4 0c	 add	 esp, 12			; 0000000cH
  0005b	2b c3		 sub	 eax, ebx

; 1119 : 			_Eos(_Newsize);

  0005d	83 7e 14 10	 cmp	 DWORD PTR [esi+20], 16	; 00000010H
  00061	89 46 10	 mov	 DWORD PTR [esi+16], eax
  00064	5f		 pop	 edi
  00065	72 04		 jb	 SHORT $LN23@erase
  00067	8b 0e		 mov	 ecx, DWORD PTR [esi]
  00069	eb 02		 jmp	 SHORT $LN24@erase
$LN23@erase:
  0006b	8b ce		 mov	 ecx, esi
$LN24@erase:
  0006d	c6 04 01 00	 mov	 BYTE PTR [ecx+eax], 0
$LN25@erase:

; 1120 : 			}
; 1121 : 		return (*this);

  00071	8b c6		 mov	 eax, esi
  00073	5e		 pop	 esi
  00074	5b		 pop	 ebx

; 1122 : 		}

  00075	5d		 pop	 ebp
  00076	c2 08 00	 ret	 8
$LN27@erase:
?erase@?$basic_string@DU?$char_traits@D@std@@V?$allocator@D@2@@std@@QAEAAV12@II@Z ENDP ; std::basic_string<char,std::char_traits<char>,std::allocator<char> >::erase
_TEXT	ENDS
PUBLIC	?_Destroy@?$vector@KV?$allocator@K@std@@@std@@IAEXPAK0@Z ; std::vector<unsigned long,std::allocator<unsigned long> >::_Destroy
; Function compile flags: /Ogsp
; File c:\program files (x86)\microsoft visual studio 10.0\vc\include\vector
;	COMDAT ?_Destroy@?$vector@KV?$allocator@K@std@@@std@@IAEXPAK0@Z
_TEXT	SEGMENT
__First$ = 8						; size = 4
__Last$ = 12						; size = 4
?_Destroy@?$vector@KV?$allocator@K@std@@@std@@IAEXPAK0@Z PROC ; std::vector<unsigned long,std::allocator<unsigned long> >::_Destroy, COMDAT
; _this$ = ecx

; 1270 : 		_Destroy_range(_First, _Last, this->_Alval);
; 1271 : 		}

  00000	c2 08 00	 ret	 8
?_Destroy@?$vector@KV?$allocator@K@std@@@std@@IAEXPAK0@Z ENDP ; std::vector<unsigned long,std::allocator<unsigned long> >::_Destroy
_TEXT	ENDS
PUBLIC	??9?$_Vector_const_iterator@V?$_Vector_val@KV?$allocator@K@std@@@std@@@std@@QBE_NABV01@@Z ; std::_Vector_const_iterator<std::_Vector_val<unsigned long,std::allocator<unsigned long> > >::operator!=
; Function compile flags: /Ogsp
;	COMDAT ??9?$_Vector_const_iterator@V?$_Vector_val@KV?$allocator@K@std@@@std@@@std@@QBE_NABV01@@Z
_TEXT	SEGMENT
__Right$ = 8						; size = 4
??9?$_Vector_const_iterator@V?$_Vector_val@KV?$allocator@K@std@@@std@@@std@@QBE_NABV01@@Z PROC ; std::_Vector_const_iterator<std::_Vector_val<unsigned long,std::allocator<unsigned long> > >::operator!=, COMDAT
; _this$ = ecx

; 207  : 		{	// test for iterator inequality

  00000	55		 push	 ebp
  00001	8b ec		 mov	 ebp, esp

; 208  : 		return (!(*this == _Right));

  00003	8b 01		 mov	 eax, DWORD PTR [ecx]
  00005	8b 55 08	 mov	 edx, DWORD PTR __Right$[ebp]
  00008	33 c9		 xor	 ecx, ecx
  0000a	3b 02		 cmp	 eax, DWORD PTR [edx]
  0000c	0f 95 c0	 setne	 al

; 209  : 		}

  0000f	5d		 pop	 ebp
  00010	c2 04 00	 ret	 4
??9?$_Vector_const_iterator@V?$_Vector_val@KV?$allocator@K@std@@@std@@@std@@QBE_NABV01@@Z ENDP ; std::_Vector_const_iterator<std::_Vector_val<unsigned long,std::allocator<unsigned long> > >::operator!=
_TEXT	ENDS
PUBLIC	?_Copy@?$basic_string@DU?$char_traits@D@std@@V?$allocator@D@2@@std@@QAEXII@Z ; std::basic_string<char,std::char_traits<char>,std::allocator<char> >::_Copy
EXTRN	___CxxFrameHandler3:PROC
EXTRN	__EH_epilog3:PROC
EXTRN	__EH_prolog3_catch:PROC
;	COMDAT xdata$x
; File c:\program files (x86)\microsoft visual studio 10.0\vc\include\iosfwd
xdata$x	SEGMENT
__catchsym$?_Copy@?$basic_string@DU?$char_traits@D@std@@V?$allocator@D@2@@std@@QAEXII@Z$5 DD 040H
	DD	00H
	DD	00H
	DD	FLAT:__catch$?_Copy@?$basic_string@DU?$char_traits@D@std@@V?$allocator@D@2@@std@@QAEXII@Z$0
__catchsym$?_Copy@?$basic_string@DU?$char_traits@D@std@@V?$allocator@D@2@@std@@QAEXII@Z$4 DD 040H
	DD	00H
	DD	00H
	DD	FLAT:__catch$?_Copy@?$basic_string@DU?$char_traits@D@std@@V?$allocator@D@2@@std@@QAEXII@Z$1
__unwindtable$?_Copy@?$basic_string@DU?$char_traits@D@std@@V?$allocator@D@2@@std@@QAEXII@Z DD 0ffffffffH
	DD	00H
	DD	0ffffffffH
	DD	00H
	DD	01H
	DD	00H
	DD	01H
	DD	00H
__ehfuncinfo$?_Copy@?$basic_string@DU?$char_traits@D@std@@V?$allocator@D@2@@std@@QAEXII@Z DD 019930522H
	DD	04H
	DD	FLAT:__unwindtable$?_Copy@?$basic_string@DU?$char_traits@D@std@@V?$allocator@D@2@@std@@QAEXII@Z
	DD	02H
	DD	FLAT:__tryblocktable$?_Copy@?$basic_string@DU?$char_traits@D@std@@V?$allocator@D@2@@std@@QAEXII@Z
	DD	2 DUP(00H)
	DD	00H
	DD	01H
__tryblocktable$?_Copy@?$basic_string@DU?$char_traits@D@std@@V?$allocator@D@2@@std@@QAEXII@Z DD 02H
	DD	02H
	DD	03H
	DD	01H
	DD	FLAT:__catchsym$?_Copy@?$basic_string@DU?$char_traits@D@std@@V?$allocator@D@2@@std@@QAEXII@Z$4
	DD	00H
	DD	00H
	DD	03H
	DD	01H
	DD	FLAT:__catchsym$?_Copy@?$basic_string@DU?$char_traits@D@std@@V?$allocator@D@2@@std@@QAEXII@Z$5
; Function compile flags: /Ogsp
; File c:\program files (x86)\microsoft visual studio 10.0\vc\include\xstring
xdata$x	ENDS
;	COMDAT ?_Copy@?$basic_string@DU?$char_traits@D@std@@V?$allocator@D@2@@std@@QAEXII@Z
_TEXT	SEGMENT
_this$ = -24						; size = 4
tv296 = -20						; size = 4
__Newres$ = -20						; size = 4
__$EHRec$ = -16						; size = 16
__Ptr$ = 8						; size = 4
__Newsize$ = 8						; size = 4
__Oldlen$ = 12						; size = 4
?_Copy@?$basic_string@DU?$char_traits@D@std@@V?$allocator@D@2@@std@@QAEXII@Z PROC ; std::basic_string<char,std::char_traits<char>,std::allocator<char> >::_Copy, COMDAT
; _this$ = ecx

; 1919 : 		{	// copy _Oldlen elements to newly allocated buffer

  00000	6a 0c		 push	 12			; 0000000cH
  00002	b8 00 00 00 00	 mov	 eax, __ehhandler$?_Copy@?$basic_string@DU?$char_traits@D@std@@V?$allocator@D@2@@std@@QAEXII@Z
  00007	e8 00 00 00 00	 call	 __EH_prolog3_catch
  0000c	8b f1		 mov	 esi, ecx
  0000e	89 75 e8	 mov	 DWORD PTR _this$[ebp], esi

; 1920 : 		size_type _Newres = _Newsize | this->_ALLOC_MASK;

  00011	8b 7d 08	 mov	 edi, DWORD PTR __Newsize$[ebp]
  00014	83 cf 0f	 or	 edi, 15			; 0000000fH

; 1921 : 		if (max_size() < _Newres)

  00017	83 ff fe	 cmp	 edi, -2			; fffffffeH
  0001a	76 05		 jbe	 SHORT $LN9@Copy

; 1922 : 			_Newres = _Newsize;	// undo roundup if too big

  0001c	8b 7d 08	 mov	 edi, DWORD PTR __Newsize$[ebp]
  0001f	eb 27		 jmp	 SHORT $LN5@Copy
$LN9@Copy:

; 1923 : 		else if (this->_Myres / 2 <= _Newres / 3)

  00021	33 d2		 xor	 edx, edx
  00023	6a 03		 push	 3
  00025	8b c7		 mov	 eax, edi
  00027	5b		 pop	 ebx
  00028	f7 f3		 div	 ebx
  0002a	8b 4e 14	 mov	 ecx, DWORD PTR [esi+20]
  0002d	89 4d ec	 mov	 DWORD PTR tv296[ebp], ecx
  00030	d1 6d ec	 shr	 DWORD PTR tv296[ebp], 1
  00033	8b 55 ec	 mov	 edx, DWORD PTR tv296[ebp]
  00036	3b d0		 cmp	 edx, eax
  00038	76 0e		 jbe	 SHORT $LN5@Copy

; 1924 : 			;
; 1925 : 		else if (this->_Myres <= max_size() - this->_Myres / 2)

  0003a	6a fe		 push	 -2			; fffffffeH
  0003c	5f		 pop	 edi
  0003d	8b c7		 mov	 eax, edi
  0003f	2b c2		 sub	 eax, edx
  00041	3b c8		 cmp	 ecx, eax
  00043	77 03		 ja	 SHORT $LN5@Copy

; 1926 : 			_Newres = this->_Myres
; 1927 : 				+ this->_Myres / 2;	// grow exponentially if possible

  00045	8d 3c 0a	 lea	 edi, DWORD PTR [edx+ecx]
$LN5@Copy:

; 1928 : 		else
; 1929 : 			_Newres = max_size();	// settle for max_size()
; 1930 : 
; 1931 : 		_Elem *_Ptr;
; 1932 : 		_TRY_BEGIN

  00048	83 65 fc 00	 and	 DWORD PTR __$EHRec$[ebp+12], 0

; 1933 : 			_Ptr = this->_Alval.allocate(_Newres + 1);

  0004c	8d 47 01	 lea	 eax, DWORD PTR [edi+1]
  0004f	6a 00		 push	 0
  00051	50		 push	 eax
  00052	e8 00 00 00 00	 call	 ??$_Allocate@D@std@@YAPADIPAD@Z ; std::_Allocate<char>
  00057	59		 pop	 ecx
  00058	59		 pop	 ecx
  00059	89 45 08	 mov	 DWORD PTR __Ptr$[ebp], eax
  0005c	eb 27		 jmp	 SHORT $LN19@Copy
__catch$?_Copy@?$basic_string@DU?$char_traits@D@std@@V?$allocator@D@2@@std@@QAEXII@Z$0:

; 1934 : 		_CATCH_ALL
; 1935 : 			_Newres = _Newsize;	// allocation failed, undo roundup and retry

  0005e	8b 45 08	 mov	 eax, DWORD PTR __Newsize$[ebp]
  00061	89 65 f0	 mov	 DWORD PTR __$EHRec$[ebp], esp
  00064	89 45 ec	 mov	 DWORD PTR __Newres$[ebp], eax

; 1936 : 			_TRY_BEGIN
; 1937 : 				_Ptr = this->_Alval.allocate(_Newres + 1);

  00067	40		 inc	 eax
  00068	6a 00		 push	 0
  0006a	50		 push	 eax
  0006b	c6 45 fc 02	 mov	 BYTE PTR __$EHRec$[ebp+12], 2
  0006f	e8 00 00 00 00	 call	 ??$_Allocate@D@std@@YAPADIPAD@Z ; std::_Allocate<char>
  00074	59		 pop	 ecx
  00075	89 45 08	 mov	 DWORD PTR __Ptr$[ebp], eax
  00078	59		 pop	 ecx

; 1941 : 			_CATCH_END
; 1942 : 		_CATCH_END

  00079	b8 00 00 00 00	 mov	 eax, $LN63@Copy
  0007e	c3		 ret	 0
$LN63@Copy:
  0007f	8b 75 e8	 mov	 esi, DWORD PTR _this$[ebp]
  00082	8b 7d ec	 mov	 edi, DWORD PTR __Newres$[ebp]
$LN19@Copy:

; 1943 : 
; 1944 : 		if (0 < _Oldlen)

  00085	8b 5d 0c	 mov	 ebx, DWORD PTR __Oldlen$[ebp]
  00088	85 db		 test	 ebx, ebx
  0008a	74 19		 je	 SHORT $LN52@Copy

; 1945 : 			_Traits::copy(_Ptr, _Myptr(), _Oldlen);	// copy existing elements

  0008c	83 7e 14 10	 cmp	 DWORD PTR [esi+20], 16	; 00000010H
  00090	72 04		 jb	 SHORT $LN50@Copy
  00092	8b 06		 mov	 eax, DWORD PTR [esi]
  00094	eb 02		 jmp	 SHORT $LN51@Copy
$LN50@Copy:
  00096	8b c6		 mov	 eax, esi
$LN51@Copy:
  00098	53		 push	 ebx
  00099	50		 push	 eax
  0009a	ff 75 08	 push	 DWORD PTR __Ptr$[ebp]
  0009d	e8 00 00 00 00	 call	 _memcpy
  000a2	83 c4 0c	 add	 esp, 12			; 0000000cH
$LN52@Copy:

; 1946 : 		_Tidy(true);

  000a5	6a 00		 push	 0
  000a7	6a 01		 push	 1
  000a9	8b ce		 mov	 ecx, esi
  000ab	e8 00 00 00 00	 call	 ?_Tidy@?$basic_string@DU?$char_traits@D@std@@V?$allocator@D@2@@std@@QAEX_NI@Z ; std::basic_string<char,std::char_traits<char>,std::allocator<char> >::_Tidy

; 1947 : 		this->_Bx._Ptr = _Ptr;

  000b0	8b 45 08	 mov	 eax, DWORD PTR __Ptr$[ebp]
  000b3	89 06		 mov	 DWORD PTR [esi], eax

; 1948 : 		this->_Myres = _Newres;
; 1949 : 		_Eos(_Oldlen);

  000b5	83 ff 10	 cmp	 edi, 16			; 00000010H
  000b8	89 7e 14	 mov	 DWORD PTR [esi+20], edi
  000bb	89 5e 10	 mov	 DWORD PTR [esi+16], ebx
  000be	0f 42 c6	 cmovb	 eax, esi
  000c1	c6 04 18 00	 mov	 BYTE PTR [eax+ebx], 0

; 1950 : 		}

  000c5	e8 00 00 00 00	 call	 __EH_epilog3
  000ca	c2 08 00	 ret	 8
__catch$?_Copy@?$basic_string@DU?$char_traits@D@std@@V?$allocator@D@2@@std@@QAEXII@Z$1:

; 1938 : 			_CATCH_ALL
; 1939 : 			_Tidy(true);	// failed again, discard storage and reraise

  000cd	8b 4d e8	 mov	 ecx, DWORD PTR _this$[ebp]
  000d0	33 f6		 xor	 esi, esi
  000d2	56		 push	 esi
  000d3	6a 01		 push	 1
  000d5	e8 00 00 00 00	 call	 ?_Tidy@?$basic_string@DU?$char_traits@D@std@@V?$allocator@D@2@@std@@QAEX_NI@Z ; std::basic_string<char,std::char_traits<char>,std::allocator<char> >::_Tidy

; 1940 : 			_RERAISE;

  000da	56		 push	 esi
  000db	56		 push	 esi
  000dc	e8 00 00 00 00	 call	 __CxxThrowException@8
$LN67@Copy:
$LN66@Copy:
  000e1	cc		 int	 3
_TEXT	ENDS
;	COMDAT text$x
text$x	SEGMENT
__ehhandler$?_Copy@?$basic_string@DU?$char_traits@D@std@@V?$allocator@D@2@@std@@QAEXII@Z:
  00000	8b 54 24 08	 mov	 edx, DWORD PTR [esp+8]
  00004	8d 42 0c	 lea	 eax, DWORD PTR [edx+12]
  00007	8b 4a e4	 mov	 ecx, DWORD PTR [edx-28]
  0000a	33 c8		 xor	 ecx, eax
  0000c	e8 00 00 00 00	 call	 @__security_check_cookie@4
  00011	b8 00 00 00 00	 mov	 eax, OFFSET __ehfuncinfo$?_Copy@?$basic_string@DU?$char_traits@D@std@@V?$allocator@D@2@@std@@QAEXII@Z
  00016	e9 00 00 00 00	 jmp	 ___CxxFrameHandler3
text$x	ENDS
?_Copy@?$basic_string@DU?$char_traits@D@std@@V?$allocator@D@2@@std@@QAEXII@Z ENDP ; std::basic_string<char,std::char_traits<char>,std::allocator<char> >::_Copy
PUBLIC	??$_Cons_val@V?$allocator@K@std@@KABK@std@@YAXAAV?$allocator@K@0@PAKABK@Z ; std::_Cons_val<std::allocator<unsigned long>,unsigned long,unsigned long const &>
; Function compile flags: /Ogsp
; File c:\program files (x86)\microsoft visual studio 10.0\vc\include\xmemory
;	COMDAT ??$_Cons_val@V?$allocator@K@std@@KABK@std@@YAXAAV?$allocator@K@0@PAKABK@Z
_TEXT	SEGMENT
__Alval$ = 8						; size = 4
__Pdest$ = 12						; size = 4
__Src$ = 16						; size = 4
??$_Cons_val@V?$allocator@K@std@@KABK@std@@YAXAAV?$allocator@K@0@PAKABK@Z PROC ; std::_Cons_val<std::allocator<unsigned long>,unsigned long,unsigned long const &>, COMDAT

; 279  : 	{	// construct using allocator

  00000	55		 push	 ebp
  00001	8b ec		 mov	 ebp, esp

; 280  : 	_Alval.construct(_Pdest, _STD forward<_Ty2>(_Src));

  00003	8b 45 0c	 mov	 eax, DWORD PTR __Pdest$[ebp]
  00006	85 c0		 test	 eax, eax
  00008	74 07		 je	 SHORT $LN9@Cons_val@5
  0000a	8b 4d 10	 mov	 ecx, DWORD PTR __Src$[ebp]
  0000d	8b 09		 mov	 ecx, DWORD PTR [ecx]
  0000f	89 08		 mov	 DWORD PTR [eax], ecx
$LN9@Cons_val@5:

; 281  : 	}

  00011	5d		 pop	 ebp
  00012	c3		 ret	 0
??$_Cons_val@V?$allocator@K@std@@KABK@std@@YAXAAV?$allocator@K@0@PAKABK@Z ENDP ; std::_Cons_val<std::allocator<unsigned long>,unsigned long,unsigned long const &>
_TEXT	ENDS
PUBLIC	??$_Umove@PAK@?$vector@KV?$allocator@K@std@@@std@@IAEPAKPAK00@Z ; std::vector<unsigned long,std::allocator<unsigned long> >::_Umove<unsigned long *>
; Function compile flags: /Ogsp
; File c:\program files (x86)\microsoft visual studio 10.0\vc\include\vector
;	COMDAT ??$_Umove@PAK@?$vector@KV?$allocator@K@std@@@std@@IAEPAKPAK00@Z
_TEXT	SEGMENT
__First$ = 8						; size = 4
__Last$ = 12						; size = 4
__Ptr$ = 16						; size = 4
??$_Umove@PAK@?$vector@KV?$allocator@K@std@@@std@@IAEPAKPAK00@Z PROC ; std::vector<unsigned long,std::allocator<unsigned long> >::_Umove<unsigned long *>, COMDAT
; _this$ = ecx

; 1322 : 		pointer _Umove(_Iter _First, _Iter _Last, pointer _Ptr)

  00000	55		 push	 ebp
  00001	8b ec		 mov	 ebp, esp

; 1323 : 		{	// move initializing [_First, _Last), using allocator
; 1324 : 		return (_Uninitialized_move(_First, _Last,
; 1325 : 			_Ptr, this->_Alval));

  00003	83 c1 0c	 add	 ecx, 12			; 0000000cH
  00006	51		 push	 ecx
  00007	ff 75 10	 push	 DWORD PTR __Ptr$[ebp]
  0000a	ff 75 0c	 push	 DWORD PTR __Last$[ebp]
  0000d	ff 75 08	 push	 DWORD PTR __First$[ebp]
  00010	e8 00 00 00 00	 call	 ??$_Uninitialized_move@PAKPAKV?$allocator@K@std@@@std@@YAPAKPAK00AAV?$allocator@K@0@@Z ; std::_Uninitialized_move<unsigned long *,unsigned long *,std::allocator<unsigned long> >
  00015	83 c4 10	 add	 esp, 16			; 00000010H

; 1326 : 		}

  00018	5d		 pop	 ebp
  00019	c2 0c 00	 ret	 12			; 0000000cH
??$_Umove@PAK@?$vector@KV?$allocator@K@std@@@std@@IAEPAKPAK00@Z ENDP ; std::vector<unsigned long,std::allocator<unsigned long> >::_Umove<unsigned long *>
_TEXT	ENDS
PUBLIC	?IsSkipType@ioDefenseController@@IAE_NAAV?$vector@KV?$allocator@K@std@@@std@@K@Z ; ioDefenseController::IsSkipType
; Function compile flags: /Ogsp
; File d:\lost saga for developer\youtube\tutorial\source\src\lsclient\iodefensecontroller.cpp
;	COMDAT ?IsSkipType@ioDefenseController@@IAE_NAAV?$vector@KV?$allocator@K@std@@@std@@K@Z
_TEXT	SEGMENT
_rkType$ = 8						; size = 4
_dwType$ = 12						; size = 4
?IsSkipType@ioDefenseController@@IAE_NAAV?$vector@KV?$allocator@K@std@@@std@@K@Z PROC ; ioDefenseController::IsSkipType, COMDAT
; _this$ = ecx

; 96   : {

  00000	55		 push	 ebp
  00001	8b ec		 mov	 ebp, esp

; 97   : 	if( rkType.empty() ) 

  00003	8b 45 08	 mov	 eax, DWORD PTR _rkType$[ebp]
  00006	8b 08		 mov	 ecx, DWORD PTR [eax]
  00008	8b 40 04	 mov	 eax, DWORD PTR [eax+4]
  0000b	eb 0a		 jmp	 SHORT $LN45@IsSkipType
$LL5@IsSkipType:

; 102  : 	{
; 103  : 		if( *iter == dwType )

  0000d	8b 11		 mov	 edx, DWORD PTR [ecx]
  0000f	3b 55 0c	 cmp	 edx, DWORD PTR _dwType$[ebp]
  00012	74 0d		 je	 SHORT $LN43@IsSkipType

; 98   : 		return false;
; 99   : 
; 100  : 	DWORDVec::iterator iter = rkType.begin();
; 101  : 	for(;iter != rkType.end();iter++)

  00014	83 c1 04	 add	 ecx, 4
$LN45@IsSkipType:
  00017	3b c8		 cmp	 ecx, eax
  00019	75 f2		 jne	 SHORT $LL5@IsSkipType

; 105  : 	}
; 106  : 	return false;

  0001b	32 c0		 xor	 al, al
$LN6@IsSkipType:

; 107  : }

  0001d	5d		 pop	 ebp
  0001e	c2 08 00	 ret	 8
$LN43@IsSkipType:

; 104  : 			return true;

  00021	b0 01		 mov	 al, 1
  00023	eb f8		 jmp	 SHORT $LN6@IsSkipType
?IsSkipType@ioDefenseController@@IAE_NAAV?$vector@KV?$allocator@K@std@@@std@@K@Z ENDP ; ioDefenseController::IsSkipType
_TEXT	ENDS
PUBLIC	?begin@?$_Tree@V?$_Tmap_traits@KUDefenseList@ioDefenseController@@U?$less@K@std@@V?$allocator@U?$pair@$$CBKUDefenseList@ioDefenseController@@@std@@@4@$0A@@std@@@std@@QAE?AV?$_Tree_iterator@V?$_Tree_val@V?$_Tmap_traits@KUDefenseList@ioDefenseController@@U?$less@K@std@@V?$allocator@U?$pair@$$CBKUDefenseList@ioDefenseController@@@std@@@4@$0A@@std@@@std@@@2@XZ ; std::_Tree<std::_Tmap_traits<unsigned long,ioDefenseController::DefenseList,std::less<unsigned long>,std::allocator<std::pair<unsigned long const ,ioDefenseController::DefenseList> >,0> >::begin
; Function compile flags: /Ogsp
; File c:\program files (x86)\microsoft visual studio 10.0\vc\include\xtree
;	COMDAT ?begin@?$_Tree@V?$_Tmap_traits@KUDefenseList@ioDefenseController@@U?$less@K@std@@V?$allocator@U?$pair@$$CBKUDefenseList@ioDefenseController@@@std@@@4@$0A@@std@@@std@@QAE?AV?$_Tree_iterator@V?$_Tree_val@V?$_Tmap_traits@KUDefenseList@ioDefenseController@@U?$less@K@std@@V?$allocator@U?$pair@$$CBKUDefenseList@ioDefenseController@@@std@@@4@$0A@@std@@@std@@@2@XZ
_TEXT	SEGMENT
___$ReturnUdt$ = 8					; size = 4
?begin@?$_Tree@V?$_Tmap_traits@KUDefenseList@ioDefenseController@@U?$less@K@std@@V?$allocator@U?$pair@$$CBKUDefenseList@ioDefenseController@@@std@@@4@$0A@@std@@@std@@QAE?AV?$_Tree_iterator@V?$_Tree_val@V?$_Tmap_traits@KUDefenseList@ioDefenseController@@U?$less@K@std@@V?$allocator@U?$pair@$$CBKUDefenseList@ioDefenseController@@@std@@@4@$0A@@std@@@std@@@2@XZ PROC ; std::_Tree<std::_Tmap_traits<unsigned long,ioDefenseController::DefenseList,std::less<unsigned long>,std::allocator<std::pair<unsigned long const ,ioDefenseController::DefenseList> >,0> >::begin, COMDAT
; _this$ = ecx

; 806  : 		{	// return iterator for beginning of mutable sequence

  00000	55		 push	 ebp
  00001	8b ec		 mov	 ebp, esp

; 807  : 		return (iterator(_Lmost(), this));

  00003	8b 41 04	 mov	 eax, DWORD PTR [ecx+4]
  00006	8b 08		 mov	 ecx, DWORD PTR [eax]
  00008	8b 45 08	 mov	 eax, DWORD PTR ___$ReturnUdt$[ebp]
  0000b	89 08		 mov	 DWORD PTR [eax], ecx

; 808  : 		}

  0000d	5d		 pop	 ebp
  0000e	c2 04 00	 ret	 4
?begin@?$_Tree@V?$_Tmap_traits@KUDefenseList@ioDefenseController@@U?$less@K@std@@V?$allocator@U?$pair@$$CBKUDefenseList@ioDefenseController@@@std@@@4@$0A@@std@@@std@@QAE?AV?$_Tree_iterator@V?$_Tree_val@V?$_Tmap_traits@KUDefenseList@ioDefenseController@@U?$less@K@std@@V?$allocator@U?$pair@$$CBKUDefenseList@ioDefenseController@@@std@@@4@$0A@@std@@@std@@@2@XZ ENDP ; std::_Tree<std::_Tmap_traits<unsigned long,ioDefenseController::DefenseList,std::less<unsigned long>,std::allocator<std::pair<unsigned long const ,ioDefenseController::DefenseList> >,0> >::begin
_TEXT	ENDS
PUBLIC	?end@?$_Tree@V?$_Tmap_traits@KUDefenseList@ioDefenseController@@U?$less@K@std@@V?$allocator@U?$pair@$$CBKUDefenseList@ioDefenseController@@@std@@@4@$0A@@std@@@std@@QAE?AV?$_Tree_iterator@V?$_Tree_val@V?$_Tmap_traits@KUDefenseList@ioDefenseController@@U?$less@K@std@@V?$allocator@U?$pair@$$CBKUDefenseList@ioDefenseController@@@std@@@4@$0A@@std@@@std@@@2@XZ ; std::_Tree<std::_Tmap_traits<unsigned long,ioDefenseController::DefenseList,std::less<unsigned long>,std::allocator<std::pair<unsigned long const ,ioDefenseController::DefenseList> >,0> >::end
; Function compile flags: /Ogsp
;	COMDAT ?end@?$_Tree@V?$_Tmap_traits@KUDefenseList@ioDefenseController@@U?$less@K@std@@V?$allocator@U?$pair@$$CBKUDefenseList@ioDefenseController@@@std@@@4@$0A@@std@@@std@@QAE?AV?$_Tree_iterator@V?$_Tree_val@V?$_Tmap_traits@KUDefenseList@ioDefenseController@@U?$less@K@std@@V?$allocator@U?$pair@$$CBKUDefenseList@ioDefenseController@@@std@@@4@$0A@@std@@@std@@@2@XZ
_TEXT	SEGMENT
___$ReturnUdt$ = 8					; size = 4
?end@?$_Tree@V?$_Tmap_traits@KUDefenseList@ioDefenseController@@U?$less@K@std@@V?$allocator@U?$pair@$$CBKUDefenseList@ioDefenseController@@@std@@@4@$0A@@std@@@std@@QAE?AV?$_Tree_iterator@V?$_Tree_val@V?$_Tmap_traits@KUDefenseList@ioDefenseController@@U?$less@K@std@@V?$allocator@U?$pair@$$CBKUDefenseList@ioDefenseController@@@std@@@4@$0A@@std@@@std@@@2@XZ PROC ; std::_Tree<std::_Tmap_traits<unsigned long,ioDefenseController::DefenseList,std::less<unsigned long>,std::allocator<std::pair<unsigned long const ,ioDefenseController::DefenseList> >,0> >::end, COMDAT
; _this$ = ecx

; 816  : 		{	// return iterator for end of mutable sequence

  00000	55		 push	 ebp
  00001	8b ec		 mov	 ebp, esp

; 817  : 		return (iterator(this->_Myhead, this));

  00003	8b 49 04	 mov	 ecx, DWORD PTR [ecx+4]
  00006	8b 45 08	 mov	 eax, DWORD PTR ___$ReturnUdt$[ebp]
  00009	89 08		 mov	 DWORD PTR [eax], ecx

; 818  : 		}

  0000b	5d		 pop	 ebp
  0000c	c2 04 00	 ret	 4
?end@?$_Tree@V?$_Tmap_traits@KUDefenseList@ioDefenseController@@U?$less@K@std@@V?$allocator@U?$pair@$$CBKUDefenseList@ioDefenseController@@@std@@@4@$0A@@std@@@std@@QAE?AV?$_Tree_iterator@V?$_Tree_val@V?$_Tmap_traits@KUDefenseList@ioDefenseController@@U?$less@K@std@@V?$allocator@U?$pair@$$CBKUDefenseList@ioDefenseController@@@std@@@4@$0A@@std@@@std@@@2@XZ ENDP ; std::_Tree<std::_Tmap_traits<unsigned long,ioDefenseController::DefenseList,std::less<unsigned long>,std::allocator<std::pair<unsigned long const ,ioDefenseController::DefenseList> >,0> >::end
_TEXT	ENDS
PUBLIC	??E?$_Tree_iterator@V?$_Tree_val@V?$_Tmap_traits@KUDefenseList@ioDefenseController@@U?$less@K@std@@V?$allocator@U?$pair@$$CBKUDefenseList@ioDefenseController@@@std@@@4@$0A@@std@@@std@@@std@@QAEAAV01@XZ ; std::_Tree_iterator<std::_Tree_val<std::_Tmap_traits<unsigned long,ioDefenseController::DefenseList,std::less<unsigned long>,std::allocator<std::pair<unsigned long const ,ioDefenseController::DefenseList> >,0> > >::operator++
; Function compile flags: /Ogsp
;	COMDAT ??E?$_Tree_iterator@V?$_Tree_val@V?$_Tmap_traits@KUDefenseList@ioDefenseController@@U?$less@K@std@@V?$allocator@U?$pair@$$CBKUDefenseList@ioDefenseController@@@std@@@4@$0A@@std@@@std@@@std@@QAEAAV01@XZ
_TEXT	SEGMENT
??E?$_Tree_iterator@V?$_Tree_val@V?$_Tmap_traits@KUDefenseList@ioDefenseController@@U?$less@K@std@@V?$allocator@U?$pair@$$CBKUDefenseList@ioDefenseController@@@std@@@4@$0A@@std@@@std@@@std@@QAEAAV01@XZ PROC ; std::_Tree_iterator<std::_Tree_val<std::_Tmap_traits<unsigned long,ioDefenseController::DefenseList,std::less<unsigned long>,std::allocator<std::pair<unsigned long const ,ioDefenseController::DefenseList> >,0> > >::operator++, COMDAT
; _this$ = ecx

; 405  : 		{	// preincrement

  00000	56		 push	 esi
  00001	8b f1		 mov	 esi, ecx

; 406  : 		++(*(_Mybase *)this);

  00003	e8 00 00 00 00	 call	 ??E?$_Tree_unchecked_const_iterator@V?$_Tree_val@V?$_Tmap_traits@KUDefenseList@ioDefenseController@@U?$less@K@std@@V?$allocator@U?$pair@$$CBKUDefenseList@ioDefenseController@@@std@@@4@$0A@@std@@@std@@U_Iterator_base0@2@@std@@QAEAAV01@XZ ; std::_Tree_unchecked_const_iterator<std::_Tree_val<std::_Tmap_traits<unsigned long,ioDefenseController::DefenseList,std::less<unsigned long>,std::allocator<std::pair<unsigned long const ,ioDefenseController::DefenseList> >,0> >,std::_Iterator_base0>::operator++

; 407  : 		return (*this);

  00008	8b c6		 mov	 eax, esi
  0000a	5e		 pop	 esi

; 408  : 		}

  0000b	c3		 ret	 0
??E?$_Tree_iterator@V?$_Tree_val@V?$_Tmap_traits@KUDefenseList@ioDefenseController@@U?$less@K@std@@V?$allocator@U?$pair@$$CBKUDefenseList@ioDefenseController@@@std@@@4@$0A@@std@@@std@@@std@@QAEAAV01@XZ ENDP ; std::_Tree_iterator<std::_Tree_val<std::_Tmap_traits<unsigned long,ioDefenseController::DefenseList,std::less<unsigned long>,std::allocator<std::pair<unsigned long const ,ioDefenseController::DefenseList> >,0> > >::operator++
_TEXT	ENDS
PUBLIC	??0?$_Tree@V?$_Tmap_traits@KUDefenseList@ioDefenseController@@U?$less@K@std@@V?$allocator@U?$pair@$$CBKUDefenseList@ioDefenseController@@@std@@@4@$0A@@std@@@std@@QAE@ABU?$less@K@1@ABV?$allocator@U?$pair@$$CBKUDefenseList@ioDefenseController@@@std@@@1@@Z ; std::_Tree<std::_Tmap_traits<unsigned long,ioDefenseController::DefenseList,std::less<unsigned long>,std::allocator<std::pair<unsigned long const ,ioDefenseController::DefenseList> >,0> >::_Tree<std::_Tmap_traits<unsigned long,ioDefenseController::DefenseList,std::less<unsigned long>,std::allocator<std::pair<unsigned long const ,ioDefenseController::DefenseList> >,0> >
; Function compile flags: /Ogsp
;	COMDAT ??0?$_Tree@V?$_Tmap_traits@KUDefenseList@ioDefenseController@@U?$less@K@std@@V?$allocator@U?$pair@$$CBKUDefenseList@ioDefenseController@@@std@@@4@$0A@@std@@@std@@QAE@ABU?$less@K@1@ABV?$allocator@U?$pair@$$CBKUDefenseList@ioDefenseController@@@std@@@1@@Z
_TEXT	SEGMENT
$T540463 = -4						; size = 4
$T540458 = -4						; size = 4
__Parg$ = 8						; size = 4
__Al$ = 12						; size = 4
??0?$_Tree@V?$_Tmap_traits@KUDefenseList@ioDefenseController@@U?$less@K@std@@V?$allocator@U?$pair@$$CBKUDefenseList@ioDefenseController@@@std@@@4@$0A@@std@@@std@@QAE@ABU?$less@K@1@ABV?$allocator@U?$pair@$$CBKUDefenseList@ioDefenseController@@@std@@@1@@Z PROC ; std::_Tree<std::_Tmap_traits<unsigned long,ioDefenseController::DefenseList,std::less<unsigned long>,std::allocator<std::pair<unsigned long const ,ioDefenseController::DefenseList> >,0> >::_Tree<std::_Tmap_traits<unsigned long,ioDefenseController::DefenseList,std::less<unsigned long>,std::allocator<std::pair<unsigned long const ,ioDefenseController::DefenseList> >,0> >, COMDAT
; _this$ = ecx

; 698  : 		{	// construct empty tree

  00000	55		 push	 ebp
  00001	8b ec		 mov	 ebp, esp
  00003	51		 push	 ecx
  00004	56		 push	 esi
  00005	51		 push	 ecx
  00006	89 65 fc	 mov	 DWORD PTR $T540458[ebp], esp
  00009	89 65 fc	 mov	 DWORD PTR $T540463[ebp], esp
  0000c	ff 75 08	 push	 DWORD PTR __Parg$[ebp]
  0000f	8b f1		 mov	 esi, ecx
  00011	e8 00 00 00 00	 call	 ??0?$_Tree_val@V?$_Tmap_traits@KUDefenseList@ioDefenseController@@U?$less@K@std@@V?$allocator@U?$pair@$$CBKUDefenseList@ioDefenseController@@@std@@@4@$0A@@std@@@std@@QAE@ABU?$less@K@1@V?$allocator@U?$pair@$$CBKUDefenseList@ioDefenseController@@@std@@@1@@Z ; std::_Tree_val<std::_Tmap_traits<unsigned long,ioDefenseController::DefenseList,std::less<unsigned long>,std::allocator<std::pair<unsigned long const ,ioDefenseController::DefenseList> >,0> >::_Tree_val<std::_Tmap_traits<unsigned long,ioDefenseController::DefenseList,std::less<unsigned long>,std::allocator<std::pair<unsigned long const ,ioDefenseController::DefenseList> >,0> >

; 699  : 		}

  00016	8b c6		 mov	 eax, esi
  00018	5e		 pop	 esi
  00019	c9		 leave
  0001a	c2 08 00	 ret	 8
??0?$_Tree@V?$_Tmap_traits@KUDefenseList@ioDefenseController@@U?$less@K@std@@V?$allocator@U?$pair@$$CBKUDefenseList@ioDefenseController@@@std@@@4@$0A@@std@@@std@@QAE@ABU?$less@K@1@ABV?$allocator@U?$pair@$$CBKUDefenseList@ioDefenseController@@@std@@@1@@Z ENDP ; std::_Tree<std::_Tmap_traits<unsigned long,ioDefenseController::DefenseList,std::less<unsigned long>,std::allocator<std::pair<unsigned long const ,ioDefenseController::DefenseList> >,0> >::_Tree<std::_Tmap_traits<unsigned long,ioDefenseController::DefenseList,std::less<unsigned long>,std::allocator<std::pair<unsigned long const ,ioDefenseController::DefenseList> >,0> >
_TEXT	ENDS
PUBLIC	?lower_bound@?$_Tree@V?$_Tmap_traits@KUDefenseList@ioDefenseController@@U?$less@K@std@@V?$allocator@U?$pair@$$CBKUDefenseList@ioDefenseController@@@std@@@4@$0A@@std@@@std@@QAE?AV?$_Tree_iterator@V?$_Tree_val@V?$_Tmap_traits@KUDefenseList@ioDefenseController@@U?$less@K@std@@V?$allocator@U?$pair@$$CBKUDefenseList@ioDefenseController@@@std@@@4@$0A@@std@@@std@@@2@ABK@Z ; std::_Tree<std::_Tmap_traits<unsigned long,ioDefenseController::DefenseList,std::less<unsigned long>,std::allocator<std::pair<unsigned long const ,ioDefenseController::DefenseList> >,0> >::lower_bound
; Function compile flags: /Ogsp
;	COMDAT ?lower_bound@?$_Tree@V?$_Tmap_traits@KUDefenseList@ioDefenseController@@U?$less@K@std@@V?$allocator@U?$pair@$$CBKUDefenseList@ioDefenseController@@@std@@@4@$0A@@std@@@std@@QAE?AV?$_Tree_iterator@V?$_Tree_val@V?$_Tmap_traits@KUDefenseList@ioDefenseController@@U?$less@K@std@@V?$allocator@U?$pair@$$CBKUDefenseList@ioDefenseController@@@std@@@4@$0A@@std@@@std@@@2@ABK@Z
_TEXT	SEGMENT
___$ReturnUdt$ = 8					; size = 4
__Keyval$ = 12						; size = 4
?lower_bound@?$_Tree@V?$_Tmap_traits@KUDefenseList@ioDefenseController@@U?$less@K@std@@V?$allocator@U?$pair@$$CBKUDefenseList@ioDefenseController@@@std@@@4@$0A@@std@@@std@@QAE?AV?$_Tree_iterator@V?$_Tree_val@V?$_Tmap_traits@KUDefenseList@ioDefenseController@@U?$less@K@std@@V?$allocator@U?$pair@$$CBKUDefenseList@ioDefenseController@@@std@@@4@$0A@@std@@@std@@@2@ABK@Z PROC ; std::_Tree<std::_Tmap_traits<unsigned long,ioDefenseController::DefenseList,std::less<unsigned long>,std::allocator<std::pair<unsigned long const ,ioDefenseController::DefenseList> >,0> >::lower_bound, COMDAT
; _this$ = ecx

; 1449 : 		{	// find leftmost node not less than _Keyval in mutable tree

  00000	55		 push	 ebp
  00001	8b ec		 mov	 ebp, esp

; 1450 : 		return (iterator(_Lbound(_Keyval), this));

  00003	ff 75 0c	 push	 DWORD PTR __Keyval$[ebp]
  00006	e8 00 00 00 00	 call	 ?_Lbound@?$_Tree@V?$_Tmap_traits@KUDefenseList@ioDefenseController@@U?$less@K@std@@V?$allocator@U?$pair@$$CBKUDefenseList@ioDefenseController@@@std@@@4@$0A@@std@@@std@@IAEPAU_Node@?$_Tree_nod@V?$_Tmap_traits@KUDefenseList@ioDefenseController@@U?$less@K@std@@V?$allocator@U?$pair@$$CBKUDefenseList@ioDefenseController@@@std@@@4@$0A@@std@@@2@ABK@Z ; std::_Tree<std::_Tmap_traits<unsigned long,ioDefenseController::DefenseList,std::less<unsigned long>,std::allocator<std::pair<unsigned long const ,ioDefenseController::DefenseList> >,0> >::_Lbound
  0000b	8b 4d 08	 mov	 ecx, DWORD PTR ___$ReturnUdt$[ebp]
  0000e	89 01		 mov	 DWORD PTR [ecx], eax
  00010	8b c1		 mov	 eax, ecx

; 1451 : 		}

  00012	5d		 pop	 ebp
  00013	c2 08 00	 ret	 8
?lower_bound@?$_Tree@V?$_Tmap_traits@KUDefenseList@ioDefenseController@@U?$less@K@std@@V?$allocator@U?$pair@$$CBKUDefenseList@ioDefenseController@@@std@@@4@$0A@@std@@@std@@QAE?AV?$_Tree_iterator@V?$_Tree_val@V?$_Tmap_traits@KUDefenseList@ioDefenseController@@U?$less@K@std@@V?$allocator@U?$pair@$$CBKUDefenseList@ioDefenseController@@@std@@@4@$0A@@std@@@std@@@2@ABK@Z ENDP ; std::_Tree<std::_Tmap_traits<unsigned long,ioDefenseController::DefenseList,std::less<unsigned long>,std::allocator<std::pair<unsigned long const ,ioDefenseController::DefenseList> >,0> >::lower_bound
_TEXT	ENDS
PUBLIC	??E?$_List_iterator@V?$_List_val@PAVioWeapon@@V?$allocator@PAVioWeapon@@@std@@@std@@@std@@QAE?AV01@H@Z ; std::_List_iterator<std::_List_val<ioWeapon *,std::allocator<ioWeapon *> > >::operator++
; Function compile flags: /Ogsp
; File c:\program files (x86)\microsoft visual studio 10.0\vc\include\list
;	COMDAT ??E?$_List_iterator@V?$_List_val@PAVioWeapon@@V?$allocator@PAVioWeapon@@@std@@@std@@@std@@QAE?AV01@H@Z
_TEXT	SEGMENT
___$ReturnUdt$ = 8					; size = 4
___formal$ = 12						; size = 4
??E?$_List_iterator@V?$_List_val@PAVioWeapon@@V?$allocator@PAVioWeapon@@@std@@@std@@@std@@QAE?AV01@H@Z PROC ; std::_List_iterator<std::_List_val<ioWeapon *,std::allocator<ioWeapon *> > >::operator++, COMDAT
; _this$ = ecx

; 375  : 		{	// postincrement

  00000	55		 push	 ebp
  00001	8b ec		 mov	 ebp, esp

; 376  : 		_Myiter _Tmp = *this;

  00003	8b 11		 mov	 edx, DWORD PTR [ecx]
  00005	8b 45 08	 mov	 eax, DWORD PTR ___$ReturnUdt$[ebp]
  00008	89 10		 mov	 DWORD PTR [eax], edx

; 377  : 		++*this;

  0000a	8b 12		 mov	 edx, DWORD PTR [edx]
  0000c	89 11		 mov	 DWORD PTR [ecx], edx

; 378  : 		return (_Tmp);
; 379  : 		}

  0000e	5d		 pop	 ebp
  0000f	c2 08 00	 ret	 8
??E?$_List_iterator@V?$_List_val@PAVioWeapon@@V?$allocator@PAVioWeapon@@@std@@@std@@@std@@QAE?AV01@H@Z ENDP ; std::_List_iterator<std::_List_val<ioWeapon *,std::allocator<ioWeapon *> > >::operator++
_TEXT	ENDS
PUBLIC	??$_Destroy_range@V?$allocator@UDefenseData@ioDefenseController@@@std@@@std@@YAXPAUDefenseData@ioDefenseController@@0AAV?$allocator@UDefenseData@ioDefenseController@@@0@U_Nonscalar_ptr_iterator_tag@0@@Z ; std::_Destroy_range<std::allocator<ioDefenseController::DefenseData> >
; Function compile flags: /Ogsp
; File c:\program files (x86)\microsoft visual studio 10.0\vc\include\xmemory
;	COMDAT ??$_Destroy_range@V?$allocator@UDefenseData@ioDefenseController@@@std@@@std@@YAXPAUDefenseData@ioDefenseController@@0AAV?$allocator@UDefenseData@ioDefenseController@@@0@U_Nonscalar_ptr_iterator_tag@0@@Z
_TEXT	SEGMENT
__First$ = 8						; size = 4
__Last$ = 12						; size = 4
__Al$ = 16						; size = 4
___formal$ = 20						; size = 1
??$_Destroy_range@V?$allocator@UDefenseData@ioDefenseController@@@std@@@std@@YAXPAUDefenseData@ioDefenseController@@0AAV?$allocator@UDefenseData@ioDefenseController@@@0@U_Nonscalar_ptr_iterator_tag@0@@Z PROC ; std::_Destroy_range<std::allocator<ioDefenseController::DefenseData> >, COMDAT

; 96   : 	for (; _First != _Last; ++_First)
; 97   : 		_Dest_val(_Al, _First);
; 98   : 	}

  00000	c3		 ret	 0
??$_Destroy_range@V?$allocator@UDefenseData@ioDefenseController@@@std@@@std@@YAXPAUDefenseData@ioDefenseController@@0AAV?$allocator@UDefenseData@ioDefenseController@@@0@U_Nonscalar_ptr_iterator_tag@0@@Z ENDP ; std::_Destroy_range<std::allocator<ioDefenseController::DefenseData> >
_TEXT	ENDS
PUBLIC	??$_Uninit_move@PAUDefenseData@ioDefenseController@@PAU12@V?$allocator@UDefenseData@ioDefenseController@@@std@@U12@@std@@YAPAUDefenseData@ioDefenseController@@PAU12@00AAV?$allocator@UDefenseData@ioDefenseController@@@0@0U_Nonscalar_ptr_iterator_tag@0@@Z ; std::_Uninit_move<ioDefenseController::DefenseData *,ioDefenseController::DefenseData *,std::allocator<ioDefenseController::DefenseData>,ioDefenseController::DefenseData>
; Function compile flags: /Ogsp
; File c:\program files (x86)\microsoft visual studio 10.0\vc\include\memory
;	COMDAT ??$_Uninit_move@PAUDefenseData@ioDefenseController@@PAU12@V?$allocator@UDefenseData@ioDefenseController@@@std@@U12@@std@@YAPAUDefenseData@ioDefenseController@@PAU12@00AAV?$allocator@UDefenseData@ioDefenseController@@@0@0U_Nonscalar_ptr_iterator_tag@0@@Z
_TEXT	SEGMENT
__First$ = 8						; size = 4
__Last$ = 12						; size = 4
__Dest$ = 16						; size = 4
__Al$ = 20						; size = 4
___formal$ = 24						; size = 4
___formal$ = 28						; size = 1
??$_Uninit_move@PAUDefenseData@ioDefenseController@@PAU12@V?$allocator@UDefenseData@ioDefenseController@@@std@@U12@@std@@YAPAUDefenseData@ioDefenseController@@PAU12@00AAV?$allocator@UDefenseData@ioDefenseController@@@0@0U_Nonscalar_ptr_iterator_tag@0@@Z PROC ; std::_Uninit_move<ioDefenseController::DefenseData *,ioDefenseController::DefenseData *,std::allocator<ioDefenseController::DefenseData>,ioDefenseController::DefenseData>, COMDAT

; 424  : 	{	// move [_First, _Last) to raw _Dest, using _Al, arbitrary type

  00000	55		 push	 ebp
  00001	8b ec		 mov	 ebp, esp
  00003	56		 push	 esi

; 425  : 	_DEBUG_RANGE(_First, _Last);
; 426  : 	_DEBUG_POINTER(_Dest);
; 427  : 	_FwdIt _Next = _Dest;
; 428  : 
; 429  : 	_TRY_BEGIN
; 430  : 	for (; _First != _Last; ++_Dest, ++_First)

  00004	8b 75 08	 mov	 esi, DWORD PTR __First$[ebp]
  00007	eb 16		 jmp	 SHORT $LN24@Uninit_mov
$LL6@Uninit_mov:

; 431  : 		_Cons_val(_Al, _Dest, (_Valty &&)*_First);

  00009	56		 push	 esi
  0000a	ff 75 10	 push	 DWORD PTR __Dest$[ebp]
  0000d	ff 75 14	 push	 DWORD PTR __Al$[ebp]
  00010	e8 00 00 00 00	 call	 ??$_Cons_val@V?$allocator@UDefenseData@ioDefenseController@@@std@@UDefenseData@ioDefenseController@@U34@@std@@YAXAAV?$allocator@UDefenseData@ioDefenseController@@@0@PAUDefenseData@ioDefenseController@@$$QAU23@@Z ; std::_Cons_val<std::allocator<ioDefenseController::DefenseData>,ioDefenseController::DefenseData,ioDefenseController::DefenseData>
  00015	83 45 10 08	 add	 DWORD PTR __Dest$[ebp], 8
  00019	83 c4 0c	 add	 esp, 12			; 0000000cH
  0001c	83 c6 08	 add	 esi, 8
$LN24@Uninit_mov:

; 425  : 	_DEBUG_RANGE(_First, _Last);
; 426  : 	_DEBUG_POINTER(_Dest);
; 427  : 	_FwdIt _Next = _Dest;
; 428  : 
; 429  : 	_TRY_BEGIN
; 430  : 	for (; _First != _Last; ++_Dest, ++_First)

  0001f	3b 75 0c	 cmp	 esi, DWORD PTR __Last$[ebp]
  00022	75 e5		 jne	 SHORT $LL6@Uninit_mov

; 432  : 	_CATCH_ALL
; 433  : 	for (; _Next != _Dest; ++_Next)
; 434  : 		_Dest_val(_Al, _Next);
; 435  : 	_RERAISE;
; 436  : 	_CATCH_END
; 437  : 	return (_Dest);

  00024	8b 45 10	 mov	 eax, DWORD PTR __Dest$[ebp]
  00027	5e		 pop	 esi

; 438  : 	}

  00028	5d		 pop	 ebp
  00029	c3		 ret	 0
??$_Uninit_move@PAUDefenseData@ioDefenseController@@PAU12@V?$allocator@UDefenseData@ioDefenseController@@@std@@U12@@std@@YAPAUDefenseData@ioDefenseController@@PAU12@00AAV?$allocator@UDefenseData@ioDefenseController@@@0@0U_Nonscalar_ptr_iterator_tag@0@@Z ENDP ; std::_Uninit_move<ioDefenseController::DefenseData *,ioDefenseController::DefenseData *,std::allocator<ioDefenseController::DefenseData>,ioDefenseController::DefenseData>
_TEXT	ENDS
PUBLIC	??$_Uninitialized_copy@V?$_Vector_const_iterator@V?$_Vector_val@UDefenseData@ioDefenseController@@V?$allocator@UDefenseData@ioDefenseController@@@std@@@std@@@std@@PAUDefenseData@ioDefenseController@@V?$allocator@UDefenseData@ioDefenseController@@@2@@std@@YAPAUDefenseData@ioDefenseController@@V?$_Vector_const_iterator@V?$_Vector_val@UDefenseData@ioDefenseController@@V?$allocator@UDefenseData@ioDefenseController@@@std@@@std@@@0@0PAU12@AAV?$allocator@UDefenseData@ioDefenseController@@@0@@Z ; std::_Uninitialized_copy<std::_Vector_const_iterator<std::_Vector_val<ioDefenseController::DefenseData,std::allocator<ioDefenseController::DefenseData> > >,ioDefenseController::DefenseData *,std::allocator<ioDefenseController::DefenseData> >
; Function compile flags: /Ogsp
;	COMDAT ??$_Uninitialized_copy@V?$_Vector_const_iterator@V?$_Vector_val@UDefenseData@ioDefenseController@@V?$allocator@UDefenseData@ioDefenseController@@@std@@@std@@@std@@PAUDefenseData@ioDefenseController@@V?$allocator@UDefenseData@ioDefenseController@@@2@@std@@YAPAUDefenseData@ioDefenseController@@V?$_Vector_const_iterator@V?$_Vector_val@UDefenseData@ioDefenseController@@V?$allocator@UDefenseData@ioDefenseController@@@std@@@std@@@0@0PAU12@AAV?$allocator@UDefenseData@ioDefenseController@@@0@@Z
_TEXT	SEGMENT
__Cat$540562 = -4					; size = 1
__First$ = 8						; size = 4
__Last$ = 12						; size = 4
__Dest$ = 16						; size = 4
__Al$ = 20						; size = 4
??$_Uninitialized_copy@V?$_Vector_const_iterator@V?$_Vector_val@UDefenseData@ioDefenseController@@V?$allocator@UDefenseData@ioDefenseController@@@std@@@std@@@std@@PAUDefenseData@ioDefenseController@@V?$allocator@UDefenseData@ioDefenseController@@@2@@std@@YAPAUDefenseData@ioDefenseController@@V?$_Vector_const_iterator@V?$_Vector_val@UDefenseData@ioDefenseController@@V?$allocator@UDefenseData@ioDefenseController@@@std@@@std@@@0@0PAU12@AAV?$allocator@UDefenseData@ioDefenseController@@@0@@Z PROC ; std::_Uninitialized_copy<std::_Vector_const_iterator<std::_Vector_val<ioDefenseController::DefenseData,std::allocator<ioDefenseController::DefenseData> > >,ioDefenseController::DefenseData *,std::allocator<ioDefenseController::DefenseData> >, COMDAT

; 412  : 	{	// copy [_First, _Last) to raw _Dest, using _Al

  00000	55		 push	 ebp
  00001	8b ec		 mov	 ebp, esp
  00003	51		 push	 ecx

; 413  : 	return (_Uninit_copy(_First, _Last, _Dest, _Al,
; 414  : 		_Ptr_cat(_First, _Dest)));

  00004	ff 75 fc	 push	 DWORD PTR __Cat$540562[ebp]
  00007	ff 75 14	 push	 DWORD PTR __Al$[ebp]
  0000a	ff 75 10	 push	 DWORD PTR __Dest$[ebp]
  0000d	ff 75 0c	 push	 DWORD PTR __Last$[ebp]
  00010	ff 75 08	 push	 DWORD PTR __First$[ebp]
  00013	e8 00 00 00 00	 call	 ??$_Uninit_copy@V?$_Vector_const_iterator@V?$_Vector_val@UDefenseData@ioDefenseController@@V?$allocator@UDefenseData@ioDefenseController@@@std@@@std@@@std@@PAUDefenseData@ioDefenseController@@V?$allocator@UDefenseData@ioDefenseController@@@2@@std@@YAPAUDefenseData@ioDefenseController@@V?$_Vector_const_iterator@V?$_Vector_val@UDefenseData@ioDefenseController@@V?$allocator@UDefenseData@ioDefenseController@@@std@@@std@@@0@0PAU12@AAV?$allocator@UDefenseData@ioDefenseController@@@0@U_Nonscalar_ptr_iterator_tag@0@@Z ; std::_Uninit_copy<std::_Vector_const_iterator<std::_Vector_val<ioDefenseController::DefenseData,std::allocator<ioDefenseController::DefenseData> > >,ioDefenseController::DefenseData *,std::allocator<ioDefenseController::DefenseData> >
  00018	83 c4 14	 add	 esp, 20			; 00000014H

; 415  : 	}

  0001b	c9		 leave
  0001c	c3		 ret	 0
??$_Uninitialized_copy@V?$_Vector_const_iterator@V?$_Vector_val@UDefenseData@ioDefenseController@@V?$allocator@UDefenseData@ioDefenseController@@@std@@@std@@@std@@PAUDefenseData@ioDefenseController@@V?$allocator@UDefenseData@ioDefenseController@@@2@@std@@YAPAUDefenseData@ioDefenseController@@V?$_Vector_const_iterator@V?$_Vector_val@UDefenseData@ioDefenseController@@V?$allocator@UDefenseData@ioDefenseController@@@std@@@std@@@0@0PAU12@AAV?$allocator@UDefenseData@ioDefenseController@@@0@@Z ENDP ; std::_Uninitialized_copy<std::_Vector_const_iterator<std::_Vector_val<ioDefenseController::DefenseData,std::allocator<ioDefenseController::DefenseData> > >,ioDefenseController::DefenseData *,std::allocator<ioDefenseController::DefenseData> >
_TEXT	ENDS
PUBLIC	??$_Uninit_copy@V?$_Vector_const_iterator@V?$_Vector_val@KV?$allocator@K@std@@@std@@@std@@PAKV?$allocator@K@2@@std@@YAPAKV?$_Vector_const_iterator@V?$_Vector_val@KV?$allocator@K@std@@@std@@@0@0PAKAAV?$allocator@K@0@U_Nonscalar_ptr_iterator_tag@0@@Z ; std::_Uninit_copy<std::_Vector_const_iterator<std::_Vector_val<unsigned long,std::allocator<unsigned long> > >,unsigned long *,std::allocator<unsigned long> >
; Function compile flags: /Ogsp
;	COMDAT ??$_Uninit_copy@V?$_Vector_const_iterator@V?$_Vector_val@KV?$allocator@K@std@@@std@@@std@@PAKV?$allocator@K@2@@std@@YAPAKV?$_Vector_const_iterator@V?$_Vector_val@KV?$allocator@K@std@@@std@@@0@0PAKAAV?$allocator@K@0@U_Nonscalar_ptr_iterator_tag@0@@Z
_TEXT	SEGMENT
__First$ = 8						; size = 4
__Last$ = 12						; size = 4
__Dest$ = 16						; size = 4
__Al$ = 20						; size = 4
___formal$ = 24						; size = 1
??$_Uninit_copy@V?$_Vector_const_iterator@V?$_Vector_val@KV?$allocator@K@std@@@std@@@std@@PAKV?$allocator@K@2@@std@@YAPAKV?$_Vector_const_iterator@V?$_Vector_val@KV?$allocator@K@std@@@std@@@0@0PAKAAV?$allocator@K@0@U_Nonscalar_ptr_iterator_tag@0@@Z PROC ; std::_Uninit_copy<std::_Vector_const_iterator<std::_Vector_val<unsigned long,std::allocator<unsigned long> > >,unsigned long *,std::allocator<unsigned long> >, COMDAT

; 369  : 	{	// copy [_First, _Last) to raw _Dest, using _Al, arbitrary type

  00000	55		 push	 ebp
  00001	8b ec		 mov	 ebp, esp

; 370  : 	_DEBUG_RANGE(_First, _Last);
; 371  : 	_DEBUG_POINTER(_Dest);
; 372  : 	_FwdIt _Next = _Dest;
; 373  : 
; 374  : 	_TRY_BEGIN
; 375  : 	for (; _First != _Last; ++_Dest, ++_First)

  00003	8b 45 08	 mov	 eax, DWORD PTR __First$[ebp]
  00006	eb 17		 jmp	 SHORT $LN48@Uninit_cop@2
$LL14@Uninit_cop@2:

; 376  : 		_Cons_val(_Al, _Dest, *_First);

  00008	83 7d 10 00	 cmp	 DWORD PTR __Dest$[ebp], 0
  0000c	74 07		 je	 SHORT $LN32@Uninit_cop@2
  0000e	8b 08		 mov	 ecx, DWORD PTR [eax]
  00010	8b 55 10	 mov	 edx, DWORD PTR __Dest$[ebp]
  00013	89 0a		 mov	 DWORD PTR [edx], ecx
$LN32@Uninit_cop@2:

; 370  : 	_DEBUG_RANGE(_First, _Last);
; 371  : 	_DEBUG_POINTER(_Dest);
; 372  : 	_FwdIt _Next = _Dest;
; 373  : 
; 374  : 	_TRY_BEGIN
; 375  : 	for (; _First != _Last; ++_Dest, ++_First)

  00015	83 45 10 04	 add	 DWORD PTR __Dest$[ebp], 4
  00019	83 c0 04	 add	 eax, 4
  0001c	89 45 08	 mov	 DWORD PTR __First$[ebp], eax
$LN48@Uninit_cop@2:
  0001f	3b 45 0c	 cmp	 eax, DWORD PTR __Last$[ebp]
  00022	75 e4		 jne	 SHORT $LL14@Uninit_cop@2

; 377  : 	_CATCH_ALL
; 378  : 	for (; _Next != _Dest; ++_Next)
; 379  : 		_Dest_val(_Al, _Next);
; 380  : 	_RERAISE;
; 381  : 	_CATCH_END
; 382  : 	return (_Dest);

  00024	8b 45 10	 mov	 eax, DWORD PTR __Dest$[ebp]

; 383  : 	}

  00027	5d		 pop	 ebp
  00028	c3		 ret	 0
??$_Uninit_copy@V?$_Vector_const_iterator@V?$_Vector_val@KV?$allocator@K@std@@@std@@@std@@PAKV?$allocator@K@2@@std@@YAPAKV?$_Vector_const_iterator@V?$_Vector_val@KV?$allocator@K@std@@@std@@@0@0PAKAAV?$allocator@K@0@U_Nonscalar_ptr_iterator_tag@0@@Z ENDP ; std::_Uninit_copy<std::_Vector_const_iterator<std::_Vector_val<unsigned long,std::allocator<unsigned long> > >,unsigned long *,std::allocator<unsigned long> >
_TEXT	ENDS
PUBLIC	??1?$basic_string@DU?$char_traits@D@std@@V?$allocator@D@2@@std@@QAE@XZ ; std::basic_string<char,std::char_traits<char>,std::allocator<char> >::~basic_string<char,std::char_traits<char>,std::allocator<char> >
; Function compile flags: /Ogsp
; File c:\program files (x86)\microsoft visual studio 10.0\vc\include\xstring
;	COMDAT ??1?$basic_string@DU?$char_traits@D@std@@V?$allocator@D@2@@std@@QAE@XZ
_TEXT	SEGMENT
??1?$basic_string@DU?$char_traits@D@std@@V?$allocator@D@2@@std@@QAE@XZ PROC ; std::basic_string<char,std::char_traits<char>,std::allocator<char> >::~basic_string<char,std::char_traits<char>,std::allocator<char> >, COMDAT
; _this$ = ecx

; 754  : 		_Tidy(true);

  00000	6a 00		 push	 0
  00002	6a 01		 push	 1
  00004	e8 00 00 00 00	 call	 ?_Tidy@?$basic_string@DU?$char_traits@D@std@@V?$allocator@D@2@@std@@QAEX_NI@Z ; std::basic_string<char,std::char_traits<char>,std::allocator<char> >::_Tidy

; 755  : 		}

  00009	c3		 ret	 0
??1?$basic_string@DU?$char_traits@D@std@@V?$allocator@D@2@@std@@QAE@XZ ENDP ; std::basic_string<char,std::char_traits<char>,std::allocator<char> >::~basic_string<char,std::char_traits<char>,std::allocator<char> >
_TEXT	ENDS
PUBLIC	?_Tidy@?$vector@KV?$allocator@K@std@@@std@@IAEXXZ ; std::vector<unsigned long,std::allocator<unsigned long> >::_Tidy
EXTRN	__imp_?_Orphan_all@_Container_base0@std@@QAEXXZ:PROC
; Function compile flags: /Ogsp
; File c:\program files (x86)\microsoft visual studio 10.0\vc\include\vector
;	COMDAT ?_Tidy@?$vector@KV?$allocator@K@std@@@std@@IAEXXZ
_TEXT	SEGMENT
?_Tidy@?$vector@KV?$allocator@K@std@@@std@@IAEXXZ PROC	; std::vector<unsigned long,std::allocator<unsigned long> >::_Tidy, COMDAT
; _this$ = ecx

; 1301 : 		{	// free all storage

  00000	56		 push	 esi
  00001	8b f1		 mov	 esi, ecx

; 1302 : 		if (this->_Myfirst != 0)

  00003	83 3e 00	 cmp	 DWORD PTR [esi], 0
  00006	74 0e		 je	 SHORT $LN12@Tidy@2

; 1303 : 			{	// something to free, destroy and deallocate it
; 1304 : 			this->_Orphan_all();

  00008	ff 15 00 00 00
	00		 call	 DWORD PTR __imp_?_Orphan_all@_Container_base0@std@@QAEXXZ

; 1305 : 			_Destroy(this->_Myfirst, this->_Mylast);
; 1306 : 			this->_Alval.deallocate(this->_Myfirst,
; 1307 : 				this->_Myend - this->_Myfirst);

  0000e	ff 36		 push	 DWORD PTR [esi]
  00010	e8 00 00 00 00	 call	 ??3@YAXPAX@Z		; operator delete
  00015	59		 pop	 ecx
$LN12@Tidy@2:

; 1308 : 			}
; 1309 : 		this->_Myfirst = 0;

  00016	83 26 00	 and	 DWORD PTR [esi], 0

; 1310 : 		this->_Mylast = 0;

  00019	83 66 04 00	 and	 DWORD PTR [esi+4], 0

; 1311 : 		this->_Myend = 0;

  0001d	83 66 08 00	 and	 DWORD PTR [esi+8], 0
  00021	5e		 pop	 esi

; 1312 : 		}

  00022	c3		 ret	 0
?_Tidy@?$vector@KV?$allocator@K@std@@@std@@IAEXXZ ENDP	; std::vector<unsigned long,std::allocator<unsigned long> >::_Tidy
_TEXT	ENDS
PUBLIC	?_Grow@?$basic_string@DU?$char_traits@D@std@@V?$allocator@D@2@@std@@QAE_NI_N@Z ; std::basic_string<char,std::char_traits<char>,std::allocator<char> >::_Grow
; Function compile flags: /Ogsp
; File c:\program files (x86)\microsoft visual studio 10.0\vc\include\xstring
;	COMDAT ?_Grow@?$basic_string@DU?$char_traits@D@std@@V?$allocator@D@2@@std@@QAE_NI_N@Z
_TEXT	SEGMENT
__Newsize$ = 8						; size = 4
__Trim$ = 12						; size = 1
?_Grow@?$basic_string@DU?$char_traits@D@std@@V?$allocator@D@2@@std@@QAE_NI_N@Z PROC ; std::basic_string<char,std::char_traits<char>,std::allocator<char> >::_Grow, COMDAT
; _this$ = ecx

; 1959 : 		{	// ensure buffer is big enough, trim to size if _Trim is true

  00000	55		 push	 ebp
  00001	8b ec		 mov	 ebp, esp
  00003	56		 push	 esi

; 1960 : 		if (max_size() < _Newsize)

  00004	8b 75 08	 mov	 esi, DWORD PTR __Newsize$[ebp]
  00007	83 fe fe	 cmp	 esi, -2			; fffffffeH
  0000a	76 0b		 jbe	 SHORT $LN6@Grow

; 1961 : 			_Xlen();	// result too long

  0000c	68 00 00 00 00	 push	 OFFSET ??_C@_0BA@JFNIOLAK@string?5too?5long?$AA@
  00011	ff 15 00 00 00
	00		 call	 DWORD PTR __imp_?_Xlength_error@std@@YAXPBD@Z
$LN31@Grow:
$LN6@Grow:

; 1962 : 		if (this->_Myres < _Newsize)

  00017	8b 41 14	 mov	 eax, DWORD PTR [ecx+20]
  0001a	3b c6		 cmp	 eax, esi
  0001c	73 0b		 jae	 SHORT $LN5@Grow

; 1963 : 			_Copy(_Newsize, this->_Mysize);	// reallocate to grow

  0001e	ff 71 10	 push	 DWORD PTR [ecx+16]
  00021	56		 push	 esi
  00022	e8 00 00 00 00	 call	 ?_Copy@?$basic_string@DU?$char_traits@D@std@@V?$allocator@D@2@@std@@QAEXII@Z ; std::basic_string<char,std::char_traits<char>,std::allocator<char> >::_Copy
  00027	eb 2e		 jmp	 SHORT $LN28@Grow
$LN5@Grow:

; 1964 : 		else if (_Trim && _Newsize < this->_BUF_SIZE)

  00029	33 d2		 xor	 edx, edx
  0002b	38 55 0c	 cmp	 BYTE PTR __Trim$[ebp], dl
  0002e	74 17		 je	 SHORT $LN3@Grow
  00030	83 fe 10	 cmp	 esi, 16			; 00000010H
  00033	73 12		 jae	 SHORT $LN3@Grow

; 1965 : 			_Tidy(true,	// copy and deallocate if trimming to small string
; 1966 : 				_Newsize < this->_Mysize ? _Newsize : this->_Mysize);

  00035	8b 41 10	 mov	 eax, DWORD PTR [ecx+16]
  00038	3b f0		 cmp	 esi, eax
  0003a	0f 42 c6	 cmovb	 eax, esi
  0003d	50		 push	 eax
  0003e	6a 01		 push	 1
  00040	e8 00 00 00 00	 call	 ?_Tidy@?$basic_string@DU?$char_traits@D@std@@V?$allocator@D@2@@std@@QAEX_NI@Z ; std::basic_string<char,std::char_traits<char>,std::allocator<char> >::_Tidy
  00045	eb 10		 jmp	 SHORT $LN28@Grow
$LN3@Grow:

; 1967 : 		else if (_Newsize == 0)

  00047	3b f2		 cmp	 esi, edx
  00049	75 0c		 jne	 SHORT $LN28@Grow

; 1968 : 			_Eos(0);	// new size is zero, just null terminate

  0004b	89 51 10	 mov	 DWORD PTR [ecx+16], edx
  0004e	83 f8 10	 cmp	 eax, 16			; 00000010H
  00051	72 02		 jb	 SHORT $LN26@Grow
  00053	8b 09		 mov	 ecx, DWORD PTR [ecx]
$LN26@Grow:
  00055	88 11		 mov	 BYTE PTR [ecx], dl
$LN28@Grow:

; 1969 : 		return (0 < _Newsize);	// return true only if more work to do

  00057	33 c0		 xor	 eax, eax
  00059	3b c6		 cmp	 eax, esi
  0005b	1b c0		 sbb	 eax, eax
  0005d	f7 d8		 neg	 eax
  0005f	5e		 pop	 esi

; 1970 : 		}

  00060	5d		 pop	 ebp
  00061	c2 08 00	 ret	 8
$LN30@Grow:
?_Grow@?$basic_string@DU?$char_traits@D@std@@V?$allocator@D@2@@std@@QAE_NI_N@Z ENDP ; std::basic_string<char,std::char_traits<char>,std::allocator<char> >::_Grow
_TEXT	ENDS
PUBLIC	?reserve@?$vector@KV?$allocator@K@std@@@std@@QAEXI@Z ; std::vector<unsigned long,std::allocator<unsigned long> >::reserve
; Function compile flags: /Ogsp
; File c:\program files (x86)\microsoft visual studio 10.0\vc\include\vector
;	COMDAT ?reserve@?$vector@KV?$allocator@K@std@@@std@@QAEXI@Z
_TEXT	SEGMENT
__Count$ = 8						; size = 4
?reserve@?$vector@KV?$allocator@K@std@@@std@@QAEXI@Z PROC ; std::vector<unsigned long,std::allocator<unsigned long> >::reserve, COMDAT
; _this$ = ecx

; 746  : 		{	// determine new minimum length of allocated storage

  00000	55		 push	 ebp
  00001	8b ec		 mov	 ebp, esp

; 747  : 		if (max_size() < _Count)

  00003	81 7d 08 ff ff
	ff 3f		 cmp	 DWORD PTR __Count$[ebp], 1073741823 ; 3fffffffH
  0000a	56		 push	 esi
  0000b	8b f1		 mov	 esi, ecx
  0000d	76 0b		 jbe	 SHORT $LN5@reserve

; 748  : 			_Xlen();	// result too long

  0000f	68 00 00 00 00	 push	 OFFSET ??_C@_0BD@OLBABOEK@vector?$DMT?$DO?5too?5long?$AA@
  00014	ff 15 00 00 00
	00		 call	 DWORD PTR __imp_?_Xlength_error@std@@YAXPBD@Z
$LN43@reserve:
$LN5@reserve:

; 749  : 		else if (capacity() < _Count)

  0001a	8b 46 08	 mov	 eax, DWORD PTR [esi+8]
  0001d	2b 06		 sub	 eax, DWORD PTR [esi]
  0001f	c1 f8 02	 sar	 eax, 2
  00022	3b 45 08	 cmp	 eax, DWORD PTR __Count$[ebp]
  00025	73 52		 jae	 SHORT $LN3@reserve

; 750  : 			{	// not enough room, reallocate
; 751  : 			pointer _Ptr = this->_Alval.allocate(_Count);

  00027	53		 push	 ebx
  00028	57		 push	 edi
  00029	6a 00		 push	 0
  0002b	ff 75 08	 push	 DWORD PTR __Count$[ebp]
  0002e	e8 00 00 00 00	 call	 ??$_Allocate@K@std@@YAPAKIPAK@Z ; std::_Allocate<unsigned long>

; 752  : 
; 753  : 			_TRY_BEGIN
; 754  : 			_Umove(this->_Myfirst, this->_Mylast, _Ptr);

  00033	8b 0e		 mov	 ecx, DWORD PTR [esi]
  00035	8d 56 0c	 lea	 edx, DWORD PTR [esi+12]
  00038	52		 push	 edx
  00039	8b d8		 mov	 ebx, eax
  0003b	8b 46 04	 mov	 eax, DWORD PTR [esi+4]
  0003e	53		 push	 ebx
  0003f	50		 push	 eax
  00040	51		 push	 ecx
  00041	e8 00 00 00 00	 call	 ??$_Uninitialized_move@PAKPAKV?$allocator@K@std@@@std@@YAPAKPAK00AAV?$allocator@K@0@@Z ; std::_Uninitialized_move<unsigned long *,unsigned long *,std::allocator<unsigned long> >

; 755  : 			_CATCH_ALL
; 756  : 			this->_Alval.deallocate(_Ptr, _Count);
; 757  : 			_RERAISE;
; 758  : 			_CATCH_END
; 759  : 
; 760  : 			size_type _Size = size();

  00046	8b 06		 mov	 eax, DWORD PTR [esi]
  00048	8b 7e 04	 mov	 edi, DWORD PTR [esi+4]
  0004b	2b f8		 sub	 edi, eax
  0004d	83 c4 18	 add	 esp, 24			; 00000018H
  00050	c1 ff 02	 sar	 edi, 2

; 761  : 			if (this->_Myfirst != 0)

  00053	85 c0		 test	 eax, eax
  00055	74 07		 je	 SHORT $LN39@reserve

; 762  : 				{	// destroy and deallocate old array
; 763  : 				_Destroy(this->_Myfirst, this->_Mylast);
; 764  : 				this->_Alval.deallocate(this->_Myfirst,
; 765  : 					this->_Myend - this->_Myfirst);

  00057	50		 push	 eax
  00058	e8 00 00 00 00	 call	 ??3@YAXPAX@Z		; operator delete
  0005d	59		 pop	 ecx
$LN39@reserve:

; 766  : 				}
; 767  : 
; 768  : 			this->_Orphan_all();

  0005e	8b ce		 mov	 ecx, esi
  00060	ff 15 00 00 00
	00		 call	 DWORD PTR __imp_?_Orphan_all@_Container_base0@std@@QAEXXZ

; 769  : 			this->_Myend = _Ptr + _Count;

  00066	8b 45 08	 mov	 eax, DWORD PTR __Count$[ebp]
  00069	8d 04 83	 lea	 eax, DWORD PTR [ebx+eax*4]
  0006c	89 46 08	 mov	 DWORD PTR [esi+8], eax

; 770  : 			this->_Mylast = _Ptr + _Size;

  0006f	8d 04 bb	 lea	 eax, DWORD PTR [ebx+edi*4]
  00072	5f		 pop	 edi

; 771  : 			this->_Myfirst = _Ptr;

  00073	89 1e		 mov	 DWORD PTR [esi], ebx
  00075	89 46 04	 mov	 DWORD PTR [esi+4], eax
  00078	5b		 pop	 ebx
$LN3@reserve:
  00079	5e		 pop	 esi

; 772  : 			}
; 773  : 		}

  0007a	5d		 pop	 ebp
  0007b	c2 04 00	 ret	 4
$LN42@reserve:
?reserve@?$vector@KV?$allocator@K@std@@@std@@QAEXI@Z ENDP ; std::vector<unsigned long,std::allocator<unsigned long> >::reserve
_TEXT	ENDS
PUBLIC	??_G?$basic_string@DU?$char_traits@D@std@@V?$allocator@D@2@@std@@QAEPAXI@Z ; std::basic_string<char,std::char_traits<char>,std::allocator<char> >::`scalar deleting destructor'
; Function compile flags: /Ogsp
;	COMDAT ??_G?$basic_string@DU?$char_traits@D@std@@V?$allocator@D@2@@std@@QAEPAXI@Z
_TEXT	SEGMENT
___flags$ = 8						; size = 4
??_G?$basic_string@DU?$char_traits@D@std@@V?$allocator@D@2@@std@@QAEPAXI@Z PROC ; std::basic_string<char,std::char_traits<char>,std::allocator<char> >::`scalar deleting destructor', COMDAT
; _this$ = ecx
  00000	55		 push	 ebp
  00001	8b ec		 mov	 ebp, esp
  00003	56		 push	 esi
  00004	6a 00		 push	 0
  00006	6a 01		 push	 1
  00008	8b f1		 mov	 esi, ecx
  0000a	e8 00 00 00 00	 call	 ?_Tidy@?$basic_string@DU?$char_traits@D@std@@V?$allocator@D@2@@std@@QAEX_NI@Z ; std::basic_string<char,std::char_traits<char>,std::allocator<char> >::_Tidy
  0000f	f6 45 08 01	 test	 BYTE PTR ___flags$[ebp], 1
  00013	74 07		 je	 SHORT $LN1@scalar@2
  00015	56		 push	 esi
  00016	e8 00 00 00 00	 call	 ??3@YAXPAX@Z		; operator delete
  0001b	59		 pop	 ecx
$LN1@scalar@2:
  0001c	8b c6		 mov	 eax, esi
  0001e	5e		 pop	 esi
  0001f	5d		 pop	 ebp
  00020	c2 04 00	 ret	 4
??_G?$basic_string@DU?$char_traits@D@std@@V?$allocator@D@2@@std@@QAEPAXI@Z ENDP ; std::basic_string<char,std::char_traits<char>,std::allocator<char> >::`scalar deleting destructor'
_TEXT	ENDS
PUBLIC	?find@?$_Tree@V?$_Tmap_traits@KUDefenseList@ioDefenseController@@U?$less@K@std@@V?$allocator@U?$pair@$$CBKUDefenseList@ioDefenseController@@@std@@@4@$0A@@std@@@std@@QAE?AV?$_Tree_iterator@V?$_Tree_val@V?$_Tmap_traits@KUDefenseList@ioDefenseController@@U?$less@K@std@@V?$allocator@U?$pair@$$CBKUDefenseList@ioDefenseController@@@std@@@4@$0A@@std@@@std@@@2@ABK@Z ; std::_Tree<std::_Tmap_traits<unsigned long,ioDefenseController::DefenseList,std::less<unsigned long>,std::allocator<std::pair<unsigned long const ,ioDefenseController::DefenseList> >,0> >::find
; Function compile flags: /Ogsp
; File c:\program files (x86)\microsoft visual studio 10.0\vc\include\xtree
;	COMDAT ?find@?$_Tree@V?$_Tmap_traits@KUDefenseList@ioDefenseController@@U?$less@K@std@@V?$allocator@U?$pair@$$CBKUDefenseList@ioDefenseController@@@std@@@4@$0A@@std@@@std@@QAE?AV?$_Tree_iterator@V?$_Tree_val@V?$_Tmap_traits@KUDefenseList@ioDefenseController@@U?$less@K@std@@V?$allocator@U?$pair@$$CBKUDefenseList@ioDefenseController@@@std@@@4@$0A@@std@@@std@@@2@ABK@Z
_TEXT	SEGMENT
$T540861 = -4						; size = 4
___$ReturnUdt$ = 8					; size = 4
__Where$ = 12						; size = 4
__Keyval$ = 12						; size = 4
?find@?$_Tree@V?$_Tmap_traits@KUDefenseList@ioDefenseController@@U?$less@K@std@@V?$allocator@U?$pair@$$CBKUDefenseList@ioDefenseController@@@std@@@4@$0A@@std@@@std@@QAE?AV?$_Tree_iterator@V?$_Tree_val@V?$_Tmap_traits@KUDefenseList@ioDefenseController@@U?$less@K@std@@V?$allocator@U?$pair@$$CBKUDefenseList@ioDefenseController@@@std@@@4@$0A@@std@@@std@@@2@ABK@Z PROC ; std::_Tree<std::_Tmap_traits<unsigned long,ioDefenseController::DefenseList,std::less<unsigned long>,std::allocator<std::pair<unsigned long const ,ioDefenseController::DefenseList> >,0> >::find, COMDAT
; _this$ = ecx

; 1423 : 		{	// find an element in mutable sequence that matches _Keyval

  00000	55		 push	 ebp
  00001	8b ec		 mov	 ebp, esp
  00003	51		 push	 ecx
  00004	56		 push	 esi
  00005	57		 push	 edi

; 1424 : 		iterator _Where = lower_bound(_Keyval);

  00006	8b 7d 0c	 mov	 edi, DWORD PTR __Keyval$[ebp]
  00009	57		 push	 edi
  0000a	8b f1		 mov	 esi, ecx
  0000c	e8 00 00 00 00	 call	 ?_Lbound@?$_Tree@V?$_Tmap_traits@KUDefenseList@ioDefenseController@@U?$less@K@std@@V?$allocator@U?$pair@$$CBKUDefenseList@ioDefenseController@@@std@@@4@$0A@@std@@@std@@IAEPAU_Node@?$_Tree_nod@V?$_Tmap_traits@KUDefenseList@ioDefenseController@@U?$less@K@std@@V?$allocator@U?$pair@$$CBKUDefenseList@ioDefenseController@@@std@@@4@$0A@@std@@@2@ABK@Z ; std::_Tree<std::_Tmap_traits<unsigned long,ioDefenseController::DefenseList,std::less<unsigned long>,std::allocator<std::pair<unsigned long const ,ioDefenseController::DefenseList> >,0> >::_Lbound

; 1425 : 		return (_Where == end()
; 1426 : 			|| _DEBUG_LT_PRED(this->comp,
; 1427 : 				_Keyval, this->_Key(_Where._Mynode()))
; 1428 : 					? end() : _Where);

  00011	8b 76 04	 mov	 esi, DWORD PTR [esi+4]
  00014	89 45 0c	 mov	 DWORD PTR __Where$[ebp], eax
  00017	3b c6		 cmp	 eax, esi
  00019	74 0c		 je	 SHORT $LN3@find
  0001b	8b 0f		 mov	 ecx, DWORD PTR [edi]
  0001d	3b 48 0c	 cmp	 ecx, DWORD PTR [eax+12]
  00020	72 05		 jb	 SHORT $LN3@find
  00022	8d 45 0c	 lea	 eax, DWORD PTR __Where$[ebp]
  00025	eb 06		 jmp	 SHORT $LN4@find
$LN3@find:
  00027	89 75 fc	 mov	 DWORD PTR $T540861[ebp], esi
  0002a	8d 45 fc	 lea	 eax, DWORD PTR $T540861[ebp]
$LN4@find:
  0002d	8b 08		 mov	 ecx, DWORD PTR [eax]
  0002f	8b 45 08	 mov	 eax, DWORD PTR ___$ReturnUdt$[ebp]
  00032	5f		 pop	 edi
  00033	89 08		 mov	 DWORD PTR [eax], ecx
  00035	5e		 pop	 esi

; 1429 : 		}

  00036	c9		 leave
  00037	c2 08 00	 ret	 8
?find@?$_Tree@V?$_Tmap_traits@KUDefenseList@ioDefenseController@@U?$less@K@std@@V?$allocator@U?$pair@$$CBKUDefenseList@ioDefenseController@@@std@@@4@$0A@@std@@@std@@QAE?AV?$_Tree_iterator@V?$_Tree_val@V?$_Tmap_traits@KUDefenseList@ioDefenseController@@U?$less@K@std@@V?$allocator@U?$pair@$$CBKUDefenseList@ioDefenseController@@@std@@@4@$0A@@std@@@std@@@2@ABK@Z ENDP ; std::_Tree<std::_Tmap_traits<unsigned long,ioDefenseController::DefenseList,std::less<unsigned long>,std::allocator<std::pair<unsigned long const ,ioDefenseController::DefenseList> >,0> >::find
_TEXT	ENDS
PUBLIC	?Next@?$ioListIterator@V?$list@PAVioWeapon@@V?$allocator@PAVioWeapon@@@std@@@std@@@@QAEPAVioWeapon@@XZ ; ioListIterator<std::list<ioWeapon *,std::allocator<ioWeapon *> > >::Next
; Function compile flags: /Ogsp
; File d:\lost saga for developer\youtube\tutorial\source\src\io3dengine\iolistiterator.h
;	COMDAT ?Next@?$ioListIterator@V?$list@PAVioWeapon@@V?$allocator@PAVioWeapon@@@std@@@std@@@@QAEPAVioWeapon@@XZ
_TEXT	SEGMENT
?Next@?$ioListIterator@V?$list@PAVioWeapon@@V?$allocator@PAVioWeapon@@@std@@@std@@@@QAEPAVioWeapon@@XZ PROC ; ioListIterator<std::list<ioWeapon *,std::allocator<ioWeapon *> > >::Next, COMDAT
; _this$ = ecx

; 28   : 		return *m_Current++;

  00000	8b 01		 mov	 eax, DWORD PTR [ecx]
  00002	8b 10		 mov	 edx, DWORD PTR [eax]
  00004	89 11		 mov	 DWORD PTR [ecx], edx
  00006	8b 40 08	 mov	 eax, DWORD PTR [eax+8]

; 29   : 	}

  00009	c3		 ret	 0
?Next@?$ioListIterator@V?$list@PAVioWeapon@@V?$allocator@PAVioWeapon@@@std@@@std@@@@QAEPAVioWeapon@@XZ ENDP ; ioListIterator<std::list<ioWeapon *,std::allocator<ioWeapon *> > >::Next
_TEXT	ENDS
PUBLIC	??$_Destroy_range@V?$allocator@UDefenseData@ioDefenseController@@@std@@@std@@YAXPAUDefenseData@ioDefenseController@@0AAV?$allocator@UDefenseData@ioDefenseController@@@0@@Z ; std::_Destroy_range<std::allocator<ioDefenseController::DefenseData> >
; Function compile flags: /Ogsp
; File c:\program files (x86)\microsoft visual studio 10.0\vc\include\xmemory
;	COMDAT ??$_Destroy_range@V?$allocator@UDefenseData@ioDefenseController@@@std@@@std@@YAXPAUDefenseData@ioDefenseController@@0AAV?$allocator@UDefenseData@ioDefenseController@@@0@@Z
_TEXT	SEGMENT
__First$ = 8						; size = 4
__Last$ = 12						; size = 4
__Al$ = 16						; size = 4
??$_Destroy_range@V?$allocator@UDefenseData@ioDefenseController@@@std@@@std@@YAXPAUDefenseData@ioDefenseController@@0AAV?$allocator@UDefenseData@ioDefenseController@@@0@@Z PROC ; std::_Destroy_range<std::allocator<ioDefenseController::DefenseData> >, COMDAT

; 88   : 	_Destroy_range(_First, _Last, _Al, _Ptr_cat(_First, _Last));
; 89   : 	}

  00000	c3		 ret	 0
??$_Destroy_range@V?$allocator@UDefenseData@ioDefenseController@@@std@@@std@@YAXPAUDefenseData@ioDefenseController@@0AAV?$allocator@UDefenseData@ioDefenseController@@@0@@Z ENDP ; std::_Destroy_range<std::allocator<ioDefenseController::DefenseData> >
_TEXT	ENDS
PUBLIC	??$_Uninitialized_move@PAUDefenseData@ioDefenseController@@PAU12@V?$allocator@UDefenseData@ioDefenseController@@@std@@@std@@YAPAUDefenseData@ioDefenseController@@PAU12@00AAV?$allocator@UDefenseData@ioDefenseController@@@0@@Z ; std::_Uninitialized_move<ioDefenseController::DefenseData *,ioDefenseController::DefenseData *,std::allocator<ioDefenseController::DefenseData> >
; Function compile flags: /Ogsp
; File c:\program files (x86)\microsoft visual studio 10.0\vc\include\memory
;	COMDAT ??$_Uninitialized_move@PAUDefenseData@ioDefenseController@@PAU12@V?$allocator@UDefenseData@ioDefenseController@@@std@@@std@@YAPAUDefenseData@ioDefenseController@@PAU12@00AAV?$allocator@UDefenseData@ioDefenseController@@@0@@Z
_TEXT	SEGMENT
__Cat$541082 = -4					; size = 1
__First$ = 8						; size = 4
__Last$ = 12						; size = 4
__Dest$ = 16						; size = 4
__Al$ = 20						; size = 4
??$_Uninitialized_move@PAUDefenseData@ioDefenseController@@PAU12@V?$allocator@UDefenseData@ioDefenseController@@@std@@@std@@YAPAUDefenseData@ioDefenseController@@PAU12@00AAV?$allocator@UDefenseData@ioDefenseController@@@0@@Z PROC ; std::_Uninitialized_move<ioDefenseController::DefenseData *,ioDefenseController::DefenseData *,std::allocator<ioDefenseController::DefenseData> >, COMDAT

; 469  : 	{	// move [_First, _Last) to raw _Dest, using _Al

  00000	55		 push	 ebp
  00001	8b ec		 mov	 ebp, esp
  00003	51		 push	 ecx

; 470  : 	return (_Uninit_move(_First, _Last, _Dest, _Al,
; 471  : 		_Val_type(_First), _Ptr_cat(_First, _Dest)));

  00004	ff 75 fc	 push	 DWORD PTR __Cat$541082[ebp]
  00007	6a 00		 push	 0
  00009	ff 75 14	 push	 DWORD PTR __Al$[ebp]
  0000c	ff 75 10	 push	 DWORD PTR __Dest$[ebp]
  0000f	ff 75 0c	 push	 DWORD PTR __Last$[ebp]
  00012	ff 75 08	 push	 DWORD PTR __First$[ebp]
  00015	e8 00 00 00 00	 call	 ??$_Uninit_move@PAUDefenseData@ioDefenseController@@PAU12@V?$allocator@UDefenseData@ioDefenseController@@@std@@U12@@std@@YAPAUDefenseData@ioDefenseController@@PAU12@00AAV?$allocator@UDefenseData@ioDefenseController@@@0@0U_Nonscalar_ptr_iterator_tag@0@@Z ; std::_Uninit_move<ioDefenseController::DefenseData *,ioDefenseController::DefenseData *,std::allocator<ioDefenseController::DefenseData>,ioDefenseController::DefenseData>
  0001a	83 c4 18	 add	 esp, 24			; 00000018H

; 472  : 	}

  0001d	c9		 leave
  0001e	c3		 ret	 0
??$_Uninitialized_move@PAUDefenseData@ioDefenseController@@PAU12@V?$allocator@UDefenseData@ioDefenseController@@@std@@@std@@YAPAUDefenseData@ioDefenseController@@PAU12@00AAV?$allocator@UDefenseData@ioDefenseController@@@0@@Z ENDP ; std::_Uninitialized_move<ioDefenseController::DefenseData *,ioDefenseController::DefenseData *,std::allocator<ioDefenseController::DefenseData> >
_TEXT	ENDS
PUBLIC	??$_Ucopy@V?$_Vector_const_iterator@V?$_Vector_val@UDefenseData@ioDefenseController@@V?$allocator@UDefenseData@ioDefenseController@@@std@@@std@@@std@@@?$vector@UDefenseData@ioDefenseController@@V?$allocator@UDefenseData@ioDefenseController@@@std@@@std@@IAEPAUDefenseData@ioDefenseController@@V?$_Vector_const_iterator@V?$_Vector_val@UDefenseData@ioDefenseController@@V?$allocator@UDefenseData@ioDefenseController@@@std@@@std@@@1@0PAU23@@Z ; std::vector<ioDefenseController::DefenseData,std::allocator<ioDefenseController::DefenseData> >::_Ucopy<std::_Vector_const_iterator<std::_Vector_val<ioDefenseController::DefenseData,std::allocator<ioDefenseController::DefenseData> > > >
; Function compile flags: /Ogsp
; File c:\program files (x86)\microsoft visual studio 10.0\vc\include\vector
;	COMDAT ??$_Ucopy@V?$_Vector_const_iterator@V?$_Vector_val@UDefenseData@ioDefenseController@@V?$allocator@UDefenseData@ioDefenseController@@@std@@@std@@@std@@@?$vector@UDefenseData@ioDefenseController@@V?$allocator@UDefenseData@ioDefenseController@@@std@@@std@@IAEPAUDefenseData@ioDefenseController@@V?$_Vector_const_iterator@V?$_Vector_val@UDefenseData@ioDefenseController@@V?$allocator@UDefenseData@ioDefenseController@@@std@@@std@@@1@0PAU23@@Z
_TEXT	SEGMENT
__First$ = 8						; size = 4
__Last$ = 12						; size = 4
__Cat$541098 = 16					; size = 1
__Ptr$ = 16						; size = 4
??$_Ucopy@V?$_Vector_const_iterator@V?$_Vector_val@UDefenseData@ioDefenseController@@V?$allocator@UDefenseData@ioDefenseController@@@std@@@std@@@std@@@?$vector@UDefenseData@ioDefenseController@@V?$allocator@UDefenseData@ioDefenseController@@@std@@@std@@IAEPAUDefenseData@ioDefenseController@@V?$_Vector_const_iterator@V?$_Vector_val@UDefenseData@ioDefenseController@@V?$allocator@UDefenseData@ioDefenseController@@@std@@@std@@@1@0PAU23@@Z PROC ; std::vector<ioDefenseController::DefenseData,std::allocator<ioDefenseController::DefenseData> >::_Ucopy<std::_Vector_const_iterator<std::_Vector_val<ioDefenseController::DefenseData,std::allocator<ioDefenseController::DefenseData> > > >, COMDAT
; _this$ = ecx

; 1315 : 		pointer _Ucopy(_Iter _First, _Iter _Last, pointer _Ptr)

  00000	55		 push	 ebp
  00001	8b ec		 mov	 ebp, esp

; 1316 : 		{	// copy initializing [_First, _Last), using allocator
; 1317 : 		return (_Uninitialized_copy(_First, _Last,
; 1318 : 			_Ptr, this->_Alval));

  00003	ff 75 10	 push	 DWORD PTR __Cat$541098[ebp]
  00006	83 c1 0c	 add	 ecx, 12			; 0000000cH
  00009	51		 push	 ecx
  0000a	ff 75 10	 push	 DWORD PTR __Ptr$[ebp]
  0000d	ff 75 0c	 push	 DWORD PTR __Last$[ebp]
  00010	ff 75 08	 push	 DWORD PTR __First$[ebp]
  00013	e8 00 00 00 00	 call	 ??$_Uninit_copy@V?$_Vector_const_iterator@V?$_Vector_val@UDefenseData@ioDefenseController@@V?$allocator@UDefenseData@ioDefenseController@@@std@@@std@@@std@@PAUDefenseData@ioDefenseController@@V?$allocator@UDefenseData@ioDefenseController@@@2@@std@@YAPAUDefenseData@ioDefenseController@@V?$_Vector_const_iterator@V?$_Vector_val@UDefenseData@ioDefenseController@@V?$allocator@UDefenseData@ioDefenseController@@@std@@@std@@@0@0PAU12@AAV?$allocator@UDefenseData@ioDefenseController@@@0@U_Nonscalar_ptr_iterator_tag@0@@Z ; std::_Uninit_copy<std::_Vector_const_iterator<std::_Vector_val<ioDefenseController::DefenseData,std::allocator<ioDefenseController::DefenseData> > >,ioDefenseController::DefenseData *,std::allocator<ioDefenseController::DefenseData> >
  00018	83 c4 14	 add	 esp, 20			; 00000014H

; 1319 : 		}

  0001b	5d		 pop	 ebp
  0001c	c2 0c 00	 ret	 12			; 0000000cH
??$_Ucopy@V?$_Vector_const_iterator@V?$_Vector_val@UDefenseData@ioDefenseController@@V?$allocator@UDefenseData@ioDefenseController@@@std@@@std@@@std@@@?$vector@UDefenseData@ioDefenseController@@V?$allocator@UDefenseData@ioDefenseController@@@std@@@std@@IAEPAUDefenseData@ioDefenseController@@V?$_Vector_const_iterator@V?$_Vector_val@UDefenseData@ioDefenseController@@V?$allocator@UDefenseData@ioDefenseController@@@std@@@std@@@1@0PAU23@@Z ENDP ; std::vector<ioDefenseController::DefenseData,std::allocator<ioDefenseController::DefenseData> >::_Ucopy<std::_Vector_const_iterator<std::_Vector_val<ioDefenseController::DefenseData,std::allocator<ioDefenseController::DefenseData> > > >
_TEXT	ENDS
PUBLIC	??$_Uninitialized_copy@V?$_Vector_const_iterator@V?$_Vector_val@KV?$allocator@K@std@@@std@@@std@@PAKV?$allocator@K@2@@std@@YAPAKV?$_Vector_const_iterator@V?$_Vector_val@KV?$allocator@K@std@@@std@@@0@0PAKAAV?$allocator@K@0@@Z ; std::_Uninitialized_copy<std::_Vector_const_iterator<std::_Vector_val<unsigned long,std::allocator<unsigned long> > >,unsigned long *,std::allocator<unsigned long> >
; Function compile flags: /Ogsp
; File c:\program files (x86)\microsoft visual studio 10.0\vc\include\memory
;	COMDAT ??$_Uninitialized_copy@V?$_Vector_const_iterator@V?$_Vector_val@KV?$allocator@K@std@@@std@@@std@@PAKV?$allocator@K@2@@std@@YAPAKV?$_Vector_const_iterator@V?$_Vector_val@KV?$allocator@K@std@@@std@@@0@0PAKAAV?$allocator@K@0@@Z
_TEXT	SEGMENT
__Cat$541107 = -4					; size = 1
__First$ = 8						; size = 4
__Last$ = 12						; size = 4
__Dest$ = 16						; size = 4
__Al$ = 20						; size = 4
??$_Uninitialized_copy@V?$_Vector_const_iterator@V?$_Vector_val@KV?$allocator@K@std@@@std@@@std@@PAKV?$allocator@K@2@@std@@YAPAKV?$_Vector_const_iterator@V?$_Vector_val@KV?$allocator@K@std@@@std@@@0@0PAKAAV?$allocator@K@0@@Z PROC ; std::_Uninitialized_copy<std::_Vector_const_iterator<std::_Vector_val<unsigned long,std::allocator<unsigned long> > >,unsigned long *,std::allocator<unsigned long> >, COMDAT

; 412  : 	{	// copy [_First, _Last) to raw _Dest, using _Al

  00000	55		 push	 ebp
  00001	8b ec		 mov	 ebp, esp
  00003	51		 push	 ecx

; 413  : 	return (_Uninit_copy(_First, _Last, _Dest, _Al,
; 414  : 		_Ptr_cat(_First, _Dest)));

  00004	ff 75 fc	 push	 DWORD PTR __Cat$541107[ebp]
  00007	ff 75 14	 push	 DWORD PTR __Al$[ebp]
  0000a	ff 75 10	 push	 DWORD PTR __Dest$[ebp]
  0000d	ff 75 0c	 push	 DWORD PTR __Last$[ebp]
  00010	ff 75 08	 push	 DWORD PTR __First$[ebp]
  00013	e8 00 00 00 00	 call	 ??$_Uninit_copy@V?$_Vector_const_iterator@V?$_Vector_val@KV?$allocator@K@std@@@std@@@std@@PAKV?$allocator@K@2@@std@@YAPAKV?$_Vector_const_iterator@V?$_Vector_val@KV?$allocator@K@std@@@std@@@0@0PAKAAV?$allocator@K@0@U_Nonscalar_ptr_iterator_tag@0@@Z ; std::_Uninit_copy<std::_Vector_const_iterator<std::_Vector_val<unsigned long,std::allocator<unsigned long> > >,unsigned long *,std::allocator<unsigned long> >
  00018	83 c4 14	 add	 esp, 20			; 00000014H

; 415  : 	}

  0001b	c9		 leave
  0001c	c3		 ret	 0
??$_Uninitialized_copy@V?$_Vector_const_iterator@V?$_Vector_val@KV?$allocator@K@std@@@std@@@std@@PAKV?$allocator@K@2@@std@@YAPAKV?$_Vector_const_iterator@V?$_Vector_val@KV?$allocator@K@std@@@std@@@0@0PAKAAV?$allocator@K@0@@Z ENDP ; std::_Uninitialized_copy<std::_Vector_const_iterator<std::_Vector_val<unsigned long,std::allocator<unsigned long> > >,unsigned long *,std::allocator<unsigned long> >
_TEXT	ENDS
PUBLIC	??1?$vector@KV?$allocator@K@std@@@std@@QAE@XZ	; std::vector<unsigned long,std::allocator<unsigned long> >::~vector<unsigned long,std::allocator<unsigned long> >
; Function compile flags: /Ogsp
; File c:\program files (x86)\microsoft visual studio 10.0\vc\include\vector
;	COMDAT ??1?$vector@KV?$allocator@K@std@@@std@@QAE@XZ
_TEXT	SEGMENT
??1?$vector@KV?$allocator@K@std@@@std@@QAE@XZ PROC	; std::vector<unsigned long,std::allocator<unsigned long> >::~vector<unsigned long,std::allocator<unsigned long> >, COMDAT
; _this$ = ecx

; 705  : 		_Tidy();

  00000	e9 00 00 00 00	 jmp	 ?_Tidy@?$vector@KV?$allocator@K@std@@@std@@IAEXXZ ; std::vector<unsigned long,std::allocator<unsigned long> >::_Tidy
??1?$vector@KV?$allocator@K@std@@@std@@QAE@XZ ENDP	; std::vector<unsigned long,std::allocator<unsigned long> >::~vector<unsigned long,std::allocator<unsigned long> >
_TEXT	ENDS
PUBLIC	?_Reserve@?$vector@KV?$allocator@K@std@@@std@@IAEXI@Z ; std::vector<unsigned long,std::allocator<unsigned long> >::_Reserve
; Function compile flags: /Ogsp
;	COMDAT ?_Reserve@?$vector@KV?$allocator@K@std@@@std@@IAEXI@Z
_TEXT	SEGMENT
__Count$ = 8						; size = 4
?_Reserve@?$vector@KV?$allocator@K@std@@@std@@IAEXI@Z PROC ; std::vector<unsigned long,std::allocator<unsigned long> >::_Reserve, COMDAT
; _this$ = ecx

; 1290 : 		{	// ensure room for _Count new elements, grow exponentially

  00000	55		 push	 ebp
  00001	8b ec		 mov	 ebp, esp
  00003	56		 push	 esi
  00004	8b f1		 mov	 esi, ecx

; 1291 : 		size_type _Size = size();

  00006	8b 0e		 mov	 ecx, DWORD PTR [esi]
  00008	8b 46 04	 mov	 eax, DWORD PTR [esi+4]
  0000b	2b c1		 sub	 eax, ecx

; 1292 : 		if (max_size() - _Count < _Size)

  0000d	ba ff ff ff 3f	 mov	 edx, 1073741823		; 3fffffffH
  00012	2b 55 08	 sub	 edx, DWORD PTR __Count$[ebp]
  00015	c1 f8 02	 sar	 eax, 2
  00018	3b d0		 cmp	 edx, eax
  0001a	73 0b		 jae	 SHORT $LN4@Reserve

; 1293 : 			_Xlen();

  0001c	68 00 00 00 00	 push	 OFFSET ??_C@_0BD@OLBABOEK@vector?$DMT?$DO?5too?5long?$AA@
  00021	ff 15 00 00 00
	00		 call	 DWORD PTR __imp_?_Xlength_error@std@@YAXPBD@Z
$LN21@Reserve:
$LN4@Reserve:

; 1294 : 		else if ((_Size += _Count) <= capacity())

  00027	8b 56 08	 mov	 edx, DWORD PTR [esi+8]
  0002a	03 45 08	 add	 eax, DWORD PTR __Count$[ebp]
  0002d	2b d1		 sub	 edx, ecx
  0002f	c1 fa 02	 sar	 edx, 2
  00032	3b c2		 cmp	 eax, edx
  00034	76 10		 jbe	 SHORT $LN1@Reserve

; 1295 : 			;
; 1296 : 		else
; 1297 : 			reserve(_Grow_to(_Size));

  00036	50		 push	 eax
  00037	8b ce		 mov	 ecx, esi
  00039	e8 00 00 00 00	 call	 ?_Grow_to@?$vector@KV?$allocator@K@std@@@std@@IBEII@Z ; std::vector<unsigned long,std::allocator<unsigned long> >::_Grow_to
  0003e	50		 push	 eax
  0003f	8b ce		 mov	 ecx, esi
  00041	e8 00 00 00 00	 call	 ?reserve@?$vector@KV?$allocator@K@std@@@std@@QAEXI@Z ; std::vector<unsigned long,std::allocator<unsigned long> >::reserve
$LN1@Reserve:
  00046	5e		 pop	 esi

; 1298 : 		}

  00047	5d		 pop	 ebp
  00048	c2 04 00	 ret	 4
$LN20@Reserve:
?_Reserve@?$vector@KV?$allocator@K@std@@@std@@IAEXI@Z ENDP ; std::vector<unsigned long,std::allocator<unsigned long> >::_Reserve
_TEXT	ENDS
PUBLIC	?assign@?$basic_string@DU?$char_traits@D@std@@V?$allocator@D@2@@std@@QAEAAV12@ABV12@II@Z ; std::basic_string<char,std::char_traits<char>,std::allocator<char> >::assign
; Function compile flags: /Ogsp
; File c:\program files (x86)\microsoft visual studio 10.0\vc\include\xstring
;	COMDAT ?assign@?$basic_string@DU?$char_traits@D@std@@V?$allocator@D@2@@std@@QAEAAV12@ABV12@II@Z
_TEXT	SEGMENT
__Right$ = 8						; size = 4
__Roff$ = 12						; size = 4
__Count$ = 16						; size = 4
?assign@?$basic_string@DU?$char_traits@D@std@@V?$allocator@D@2@@std@@QAEAAV12@ABV12@II@Z PROC ; std::basic_string<char,std::char_traits<char>,std::allocator<char> >::assign, COMDAT
; _this$ = ecx

; 893  : 		{	// assign _Right [_Roff, _Roff + _Count)

  00000	55		 push	 ebp
  00001	8b ec		 mov	 ebp, esp
  00003	53		 push	 ebx

; 894  : 		if (_Right.size() < _Roff)

  00004	8b 5d 08	 mov	 ebx, DWORD PTR __Right$[ebp]
  00007	8b 43 10	 mov	 eax, DWORD PTR [ebx+16]
  0000a	56		 push	 esi
  0000b	8b f1		 mov	 esi, ecx
  0000d	8b 4d 0c	 mov	 ecx, DWORD PTR __Roff$[ebp]
  00010	57		 push	 edi
  00011	3b c1		 cmp	 eax, ecx
  00013	73 0b		 jae	 SHORT $LN5@assign

; 895  : 			_Xran();	// _Roff off end

  00015	68 00 00 00 00	 push	 OFFSET ??_C@_0BI@CFPLBAOH@invalid?5string?5position?$AA@
  0001a	ff 15 00 00 00
	00		 call	 DWORD PTR __imp_?_Xout_of_range@std@@YAXPBD@Z
$LN34@assign:
$LN5@assign:

; 896  : 		size_type _Num = _Right.size() - _Roff;

  00020	2b c1		 sub	 eax, ecx
  00022	8b f8		 mov	 edi, eax

; 897  : 		if (_Count < _Num)

  00024	39 7d 10	 cmp	 DWORD PTR __Count$[ebp], edi

; 898  : 			_Num = _Count;	// trim _Num to size

  00027	0f 42 7d 10	 cmovb	 edi, DWORD PTR __Count$[ebp]

; 899  : 
; 900  : 		if (this == &_Right)

  0002b	3b f3		 cmp	 esi, ebx
  0002d	75 1a		 jne	 SHORT $LN3@assign

; 901  : 			erase((size_type)(_Roff + _Num)), erase(0, _Roff);	// substring

  0002f	03 f9		 add	 edi, ecx
  00031	6a ff		 push	 -1
  00033	57		 push	 edi
  00034	8b ce		 mov	 ecx, esi
  00036	e8 00 00 00 00	 call	 ?erase@?$basic_string@DU?$char_traits@D@std@@V?$allocator@D@2@@std@@QAEAAV12@II@Z ; std::basic_string<char,std::char_traits<char>,std::allocator<char> >::erase
  0003b	ff 75 0c	 push	 DWORD PTR __Roff$[ebp]
  0003e	8b ce		 mov	 ecx, esi
  00040	6a 00		 push	 0
  00042	e8 00 00 00 00	 call	 ?erase@?$basic_string@DU?$char_traits@D@std@@V?$allocator@D@2@@std@@QAEAAV12@II@Z ; std::basic_string<char,std::char_traits<char>,std::allocator<char> >::erase
  00047	eb 47		 jmp	 SHORT $LN31@assign
$LN3@assign:

; 902  : 		else if (_Grow(_Num))

  00049	6a 00		 push	 0
  0004b	57		 push	 edi
  0004c	8b ce		 mov	 ecx, esi
  0004e	e8 00 00 00 00	 call	 ?_Grow@?$basic_string@DU?$char_traits@D@std@@V?$allocator@D@2@@std@@QAE_NI_N@Z ; std::basic_string<char,std::char_traits<char>,std::allocator<char> >::_Grow
  00053	84 c0		 test	 al, al
  00055	74 39		 je	 SHORT $LN31@assign

; 903  : 			{	// make room and assign new stuff
; 904  : 			_Traits::copy(_Myptr(), _Right._Myptr() + _Roff, _Num);

  00057	83 7b 14 10	 cmp	 DWORD PTR [ebx+20], 16	; 00000010H
  0005b	72 04		 jb	 SHORT $LN17@assign
  0005d	8b 03		 mov	 eax, DWORD PTR [ebx]
  0005f	eb 02		 jmp	 SHORT $LN18@assign
$LN17@assign:
  00061	8b c3		 mov	 eax, ebx
$LN18@assign:
  00063	83 7e 14 10	 cmp	 DWORD PTR [esi+20], 16	; 00000010H
  00067	72 04		 jb	 SHORT $LN21@assign
  00069	8b 0e		 mov	 ecx, DWORD PTR [esi]
  0006b	eb 02		 jmp	 SHORT $LN22@assign
$LN21@assign:
  0006d	8b ce		 mov	 ecx, esi
$LN22@assign:
  0006f	03 45 0c	 add	 eax, DWORD PTR __Roff$[ebp]
  00072	57		 push	 edi
  00073	50		 push	 eax
  00074	51		 push	 ecx
  00075	e8 00 00 00 00	 call	 _memcpy
  0007a	83 c4 0c	 add	 esp, 12			; 0000000cH

; 905  : 			_Eos(_Num);

  0007d	83 7e 14 10	 cmp	 DWORD PTR [esi+20], 16	; 00000010H
  00081	89 7e 10	 mov	 DWORD PTR [esi+16], edi
  00084	72 04		 jb	 SHORT $LN29@assign
  00086	8b 06		 mov	 eax, DWORD PTR [esi]
  00088	eb 02		 jmp	 SHORT $LN30@assign
$LN29@assign:
  0008a	8b c6		 mov	 eax, esi
$LN30@assign:
  0008c	c6 04 38 00	 mov	 BYTE PTR [eax+edi], 0
$LN31@assign:

; 906  : 			}
; 907  : 		return (*this);

  00090	5f		 pop	 edi
  00091	8b c6		 mov	 eax, esi
  00093	5e		 pop	 esi
  00094	5b		 pop	 ebx

; 908  : 		}

  00095	5d		 pop	 ebp
  00096	c2 0c 00	 ret	 12			; 0000000cH
$LN33@assign:
?assign@?$basic_string@DU?$char_traits@D@std@@V?$allocator@D@2@@std@@QAEAAV12@ABV12@II@Z ENDP ; std::basic_string<char,std::char_traits<char>,std::allocator<char> >::assign
_TEXT	ENDS
PUBLIC	?assign@?$basic_string@DU?$char_traits@D@std@@V?$allocator@D@2@@std@@QAEAAV12@PBDI@Z ; std::basic_string<char,std::char_traits<char>,std::allocator<char> >::assign
; Function compile flags: /Ogsp
;	COMDAT ?assign@?$basic_string@DU?$char_traits@D@std@@V?$allocator@D@2@@std@@QAEAAV12@PBDI@Z
_TEXT	SEGMENT
__Ptr$ = 8						; size = 4
__Count$ = 12						; size = 4
?assign@?$basic_string@DU?$char_traits@D@std@@V?$allocator@D@2@@std@@QAEAAV12@PBDI@Z PROC ; std::basic_string<char,std::char_traits<char>,std::allocator<char> >::assign, COMDAT
; _this$ = ecx

; 911  : 		{	// assign [_Ptr, _Ptr + _Count)

  00000	55		 push	 ebp
  00001	8b ec		 mov	 ebp, esp
  00003	53		 push	 ebx

; 912  :  #if _ITERATOR_DEBUG_LEVEL == 2
; 913  : 		if (_Count != 0)
; 914  : 			_DEBUG_POINTER(_Ptr);
; 915  :  #endif /* _ITERATOR_DEBUG_LEVEL == 2 */
; 916  : 
; 917  : 		if (_Inside(_Ptr))

  00004	8b 5d 08	 mov	 ebx, DWORD PTR __Ptr$[ebp]
  00007	56		 push	 esi
  00008	53		 push	 ebx
  00009	8b f1		 mov	 esi, ecx
  0000b	e8 00 00 00 00	 call	 ?_Inside@?$basic_string@DU?$char_traits@D@std@@V?$allocator@D@2@@std@@QAE_NPBD@Z ; std::basic_string<char,std::char_traits<char>,std::allocator<char> >::_Inside
  00010	84 c0		 test	 al, al
  00012	74 1c		 je	 SHORT $LN2@assign@2

; 918  : 			return (assign(*this, _Ptr - _Myptr(), _Count));	// substring

  00014	83 7e 14 10	 cmp	 DWORD PTR [esi+20], 16	; 00000010H
  00018	72 04		 jb	 SHORT $LN7@assign@2
  0001a	8b 06		 mov	 eax, DWORD PTR [esi]
  0001c	eb 02		 jmp	 SHORT $LN8@assign@2
$LN7@assign@2:
  0001e	8b c6		 mov	 eax, esi
$LN8@assign@2:
  00020	ff 75 0c	 push	 DWORD PTR __Count$[ebp]
  00023	2b d8		 sub	 ebx, eax
  00025	53		 push	 ebx
  00026	56		 push	 esi
  00027	8b ce		 mov	 ecx, esi
  00029	e8 00 00 00 00	 call	 ?assign@?$basic_string@DU?$char_traits@D@std@@V?$allocator@D@2@@std@@QAEAAV12@ABV12@II@Z ; std::basic_string<char,std::char_traits<char>,std::allocator<char> >::assign
  0002e	eb 3f		 jmp	 SHORT $LN3@assign@2
$LN2@assign@2:
  00030	57		 push	 edi

; 919  : 
; 920  : 		if (_Grow(_Count))

  00031	8b 7d 0c	 mov	 edi, DWORD PTR __Count$[ebp]
  00034	6a 00		 push	 0
  00036	57		 push	 edi
  00037	8b ce		 mov	 ecx, esi
  00039	e8 00 00 00 00	 call	 ?_Grow@?$basic_string@DU?$char_traits@D@std@@V?$allocator@D@2@@std@@QAE_NI_N@Z ; std::basic_string<char,std::char_traits<char>,std::allocator<char> >::_Grow
  0003e	84 c0		 test	 al, al
  00040	74 2a		 je	 SHORT $LN21@assign@2

; 921  : 			{	// make room and assign new stuff
; 922  : 			_Traits::copy(_Myptr(), _Ptr, _Count);

  00042	83 7e 14 10	 cmp	 DWORD PTR [esi+20], 16	; 00000010H
  00046	72 04		 jb	 SHORT $LN11@assign@2
  00048	8b 06		 mov	 eax, DWORD PTR [esi]
  0004a	eb 02		 jmp	 SHORT $LN12@assign@2
$LN11@assign@2:
  0004c	8b c6		 mov	 eax, esi
$LN12@assign@2:
  0004e	57		 push	 edi
  0004f	53		 push	 ebx
  00050	50		 push	 eax
  00051	e8 00 00 00 00	 call	 _memcpy
  00056	83 c4 0c	 add	 esp, 12			; 0000000cH

; 923  : 			_Eos(_Count);

  00059	83 7e 14 10	 cmp	 DWORD PTR [esi+20], 16	; 00000010H
  0005d	89 7e 10	 mov	 DWORD PTR [esi+16], edi
  00060	72 04		 jb	 SHORT $LN19@assign@2
  00062	8b 06		 mov	 eax, DWORD PTR [esi]
  00064	eb 02		 jmp	 SHORT $LN20@assign@2
$LN19@assign@2:
  00066	8b c6		 mov	 eax, esi
$LN20@assign@2:
  00068	c6 04 38 00	 mov	 BYTE PTR [eax+edi], 0
$LN21@assign@2:

; 924  : 			}
; 925  : 		return (*this);

  0006c	8b c6		 mov	 eax, esi
  0006e	5f		 pop	 edi
$LN3@assign@2:
  0006f	5e		 pop	 esi
  00070	5b		 pop	 ebx

; 926  : 		}

  00071	5d		 pop	 ebp
  00072	c2 08 00	 ret	 8
?assign@?$basic_string@DU?$char_traits@D@std@@V?$allocator@D@2@@std@@QAEAAV12@PBDI@Z ENDP ; std::basic_string<char,std::char_traits<char>,std::allocator<char> >::assign
_TEXT	ENDS
PUBLIC	??$_Destroy@V?$basic_string@DU?$char_traits@D@std@@V?$allocator@D@2@@std@@@std@@YAXPAV?$basic_string@DU?$char_traits@D@std@@V?$allocator@D@2@@0@@Z ; std::_Destroy<std::basic_string<char,std::char_traits<char>,std::allocator<char> > >
; Function compile flags: /Ogsp
; File c:\program files (x86)\microsoft visual studio 10.0\vc\include\xmemory
;	COMDAT ??$_Destroy@V?$basic_string@DU?$char_traits@D@std@@V?$allocator@D@2@@std@@@std@@YAXPAV?$basic_string@DU?$char_traits@D@std@@V?$allocator@D@2@@0@@Z
_TEXT	SEGMENT
__Ptr$ = 8						; size = 4
??$_Destroy@V?$basic_string@DU?$char_traits@D@std@@V?$allocator@D@2@@std@@@std@@YAXPAV?$basic_string@DU?$char_traits@D@std@@V?$allocator@D@2@@0@@Z PROC ; std::_Destroy<std::basic_string<char,std::char_traits<char>,std::allocator<char> > >, COMDAT

; 62   : 	{	// destroy object at _Ptr

  00000	55		 push	 ebp
  00001	8b ec		 mov	 ebp, esp

; 63   : 	_Ptr->~_Ty();

  00003	8b 4d 08	 mov	 ecx, DWORD PTR __Ptr$[ebp]
  00006	6a 00		 push	 0
  00008	6a 01		 push	 1
  0000a	e8 00 00 00 00	 call	 ?_Tidy@?$basic_string@DU?$char_traits@D@std@@V?$allocator@D@2@@std@@QAEX_NI@Z ; std::basic_string<char,std::char_traits<char>,std::allocator<char> >::_Tidy

; 64   : 	}

  0000f	5d		 pop	 ebp
  00010	c3		 ret	 0
??$_Destroy@V?$basic_string@DU?$char_traits@D@std@@V?$allocator@D@2@@std@@@std@@YAXPAV?$basic_string@DU?$char_traits@D@std@@V?$allocator@D@2@@0@@Z ENDP ; std::_Destroy<std::basic_string<char,std::char_traits<char>,std::allocator<char> > >
_TEXT	ENDS
PUBLIC	?_Destroy@?$vector@UDefenseData@ioDefenseController@@V?$allocator@UDefenseData@ioDefenseController@@@std@@@std@@IAEXPAUDefenseData@ioDefenseController@@0@Z ; std::vector<ioDefenseController::DefenseData,std::allocator<ioDefenseController::DefenseData> >::_Destroy
; Function compile flags: /Ogsp
; File c:\program files (x86)\microsoft visual studio 10.0\vc\include\vector
;	COMDAT ?_Destroy@?$vector@UDefenseData@ioDefenseController@@V?$allocator@UDefenseData@ioDefenseController@@@std@@@std@@IAEXPAUDefenseData@ioDefenseController@@0@Z
_TEXT	SEGMENT
__First$ = 8						; size = 4
__Last$ = 12						; size = 4
?_Destroy@?$vector@UDefenseData@ioDefenseController@@V?$allocator@UDefenseData@ioDefenseController@@@std@@@std@@IAEXPAUDefenseData@ioDefenseController@@0@Z PROC ; std::vector<ioDefenseController::DefenseData,std::allocator<ioDefenseController::DefenseData> >::_Destroy, COMDAT
; _this$ = ecx

; 1270 : 		_Destroy_range(_First, _Last, this->_Alval);
; 1271 : 		}

  00000	c2 08 00	 ret	 8
?_Destroy@?$vector@UDefenseData@ioDefenseController@@V?$allocator@UDefenseData@ioDefenseController@@@std@@@std@@IAEXPAUDefenseData@ioDefenseController@@0@Z ENDP ; std::vector<ioDefenseController::DefenseData,std::allocator<ioDefenseController::DefenseData> >::_Destroy
_TEXT	ENDS
PUBLIC	?_Tidy@?$vector@UDefenseData@ioDefenseController@@V?$allocator@UDefenseData@ioDefenseController@@@std@@@std@@IAEXXZ ; std::vector<ioDefenseController::DefenseData,std::allocator<ioDefenseController::DefenseData> >::_Tidy
; Function compile flags: /Ogsp
;	COMDAT ?_Tidy@?$vector@UDefenseData@ioDefenseController@@V?$allocator@UDefenseData@ioDefenseController@@@std@@@std@@IAEXXZ
_TEXT	SEGMENT
?_Tidy@?$vector@UDefenseData@ioDefenseController@@V?$allocator@UDefenseData@ioDefenseController@@@std@@@std@@IAEXXZ PROC ; std::vector<ioDefenseController::DefenseData,std::allocator<ioDefenseController::DefenseData> >::_Tidy, COMDAT
; _this$ = ecx

; 1301 : 		{	// free all storage

  00000	56		 push	 esi
  00001	8b f1		 mov	 esi, ecx

; 1302 : 		if (this->_Myfirst != 0)

  00003	83 3e 00	 cmp	 DWORD PTR [esi], 0
  00006	74 0e		 je	 SHORT $LN21@Tidy@3

; 1303 : 			{	// something to free, destroy and deallocate it
; 1304 : 			this->_Orphan_all();

  00008	ff 15 00 00 00
	00		 call	 DWORD PTR __imp_?_Orphan_all@_Container_base0@std@@QAEXXZ

; 1305 : 			_Destroy(this->_Myfirst, this->_Mylast);
; 1306 : 			this->_Alval.deallocate(this->_Myfirst,
; 1307 : 				this->_Myend - this->_Myfirst);

  0000e	ff 36		 push	 DWORD PTR [esi]
  00010	e8 00 00 00 00	 call	 ??3@YAXPAX@Z		; operator delete
  00015	59		 pop	 ecx
$LN21@Tidy@3:

; 1308 : 			}
; 1309 : 		this->_Myfirst = 0;

  00016	83 26 00	 and	 DWORD PTR [esi], 0

; 1310 : 		this->_Mylast = 0;

  00019	83 66 04 00	 and	 DWORD PTR [esi+4], 0

; 1311 : 		this->_Myend = 0;

  0001d	83 66 08 00	 and	 DWORD PTR [esi+8], 0
  00021	5e		 pop	 esi

; 1312 : 		}

  00022	c3		 ret	 0
?_Tidy@?$vector@UDefenseData@ioDefenseController@@V?$allocator@UDefenseData@ioDefenseController@@@std@@@std@@IAEXXZ ENDP ; std::vector<ioDefenseController::DefenseData,std::allocator<ioDefenseController::DefenseData> >::_Tidy
_TEXT	ENDS
PUBLIC	??$_Umove@PAUDefenseData@ioDefenseController@@@?$vector@UDefenseData@ioDefenseController@@V?$allocator@UDefenseData@ioDefenseController@@@std@@@std@@IAEPAUDefenseData@ioDefenseController@@PAU23@00@Z ; std::vector<ioDefenseController::DefenseData,std::allocator<ioDefenseController::DefenseData> >::_Umove<ioDefenseController::DefenseData *>
; Function compile flags: /Ogsp
;	COMDAT ??$_Umove@PAUDefenseData@ioDefenseController@@@?$vector@UDefenseData@ioDefenseController@@V?$allocator@UDefenseData@ioDefenseController@@@std@@@std@@IAEPAUDefenseData@ioDefenseController@@PAU23@00@Z
_TEXT	SEGMENT
__First$ = 8						; size = 4
__Last$ = 12						; size = 4
__Ptr$ = 16						; size = 4
??$_Umove@PAUDefenseData@ioDefenseController@@@?$vector@UDefenseData@ioDefenseController@@V?$allocator@UDefenseData@ioDefenseController@@@std@@@std@@IAEPAUDefenseData@ioDefenseController@@PAU23@00@Z PROC ; std::vector<ioDefenseController::DefenseData,std::allocator<ioDefenseController::DefenseData> >::_Umove<ioDefenseController::DefenseData *>, COMDAT
; _this$ = ecx

; 1322 : 		pointer _Umove(_Iter _First, _Iter _Last, pointer _Ptr)

  00000	55		 push	 ebp
  00001	8b ec		 mov	 ebp, esp

; 1323 : 		{	// move initializing [_First, _Last), using allocator
; 1324 : 		return (_Uninitialized_move(_First, _Last,
; 1325 : 			_Ptr, this->_Alval));

  00003	83 c1 0c	 add	 ecx, 12			; 0000000cH
  00006	51		 push	 ecx
  00007	ff 75 10	 push	 DWORD PTR __Ptr$[ebp]
  0000a	ff 75 0c	 push	 DWORD PTR __Last$[ebp]
  0000d	ff 75 08	 push	 DWORD PTR __First$[ebp]
  00010	e8 00 00 00 00	 call	 ??$_Uninitialized_move@PAUDefenseData@ioDefenseController@@PAU12@V?$allocator@UDefenseData@ioDefenseController@@@std@@@std@@YAPAUDefenseData@ioDefenseController@@PAU12@00AAV?$allocator@UDefenseData@ioDefenseController@@@0@@Z ; std::_Uninitialized_move<ioDefenseController::DefenseData *,ioDefenseController::DefenseData *,std::allocator<ioDefenseController::DefenseData> >
  00015	83 c4 10	 add	 esp, 16			; 00000010H

; 1326 : 		}

  00018	5d		 pop	 ebp
  00019	c2 0c 00	 ret	 12			; 0000000cH
??$_Umove@PAUDefenseData@ioDefenseController@@@?$vector@UDefenseData@ioDefenseController@@V?$allocator@UDefenseData@ioDefenseController@@@std@@@std@@IAEPAUDefenseData@ioDefenseController@@PAU23@00@Z ENDP ; std::vector<ioDefenseController::DefenseData,std::allocator<ioDefenseController::DefenseData> >::_Umove<ioDefenseController::DefenseData *>
_TEXT	ENDS
PUBLIC	??0?$vector@UDefenseData@ioDefenseController@@V?$allocator@UDefenseData@ioDefenseController@@@std@@@std@@QAE@ABV01@@Z ; std::vector<ioDefenseController::DefenseData,std::allocator<ioDefenseController::DefenseData> >::vector<ioDefenseController::DefenseData,std::allocator<ioDefenseController::DefenseData> >
;	COMDAT xdata$x
; File c:\program files (x86)\microsoft visual studio 10.0\vc\include\xutility
xdata$x	SEGMENT
__catchsym$??0?$vector@UDefenseData@ioDefenseController@@V?$allocator@UDefenseData@ioDefenseController@@@std@@@std@@QAE@ABV01@@Z$2 DD 040H
	DD	00H
	DD	00H
	DD	FLAT:__catch$??0?$vector@UDefenseData@ioDefenseController@@V?$allocator@UDefenseData@ioDefenseController@@@std@@@std@@QAE@ABV01@@Z$0
__unwindtable$??0?$vector@UDefenseData@ioDefenseController@@V?$allocator@UDefenseData@ioDefenseController@@@std@@@std@@QAE@ABV01@@Z DD 0ffffffffH
	DD	00H
	DD	0ffffffffH
	DD	00H
__tryblocktable$??0?$vector@UDefenseData@ioDefenseController@@V?$allocator@UDefenseData@ioDefenseController@@@std@@@std@@QAE@ABV01@@Z DD 00H
	DD	00H
	DD	01H
	DD	01H
	DD	FLAT:__catchsym$??0?$vector@UDefenseData@ioDefenseController@@V?$allocator@UDefenseData@ioDefenseController@@@std@@@std@@QAE@ABV01@@Z$2
__ehfuncinfo$??0?$vector@UDefenseData@ioDefenseController@@V?$allocator@UDefenseData@ioDefenseController@@@std@@@std@@QAE@ABV01@@Z DD 019930522H
	DD	02H
	DD	FLAT:__unwindtable$??0?$vector@UDefenseData@ioDefenseController@@V?$allocator@UDefenseData@ioDefenseController@@@std@@@std@@QAE@ABV01@@Z
	DD	01H
	DD	FLAT:__tryblocktable$??0?$vector@UDefenseData@ioDefenseController@@V?$allocator@UDefenseData@ioDefenseController@@@std@@@std@@QAE@ABV01@@Z
	DD	2 DUP(00H)
	DD	00H
	DD	01H
; Function compile flags: /Ogsp
; File c:\program files (x86)\microsoft visual studio 10.0\vc\include\vector
xdata$x	ENDS
;	COMDAT ??0?$vector@UDefenseData@ioDefenseController@@V?$allocator@UDefenseData@ioDefenseController@@@std@@@std@@QAE@ABV01@@Z
_TEXT	SEGMENT
_this$ = -20						; size = 4
__$EHRec$ = -16						; size = 16
__Cat$541478 = 8					; size = 1
__Right$ = 8						; size = 4
??0?$vector@UDefenseData@ioDefenseController@@V?$allocator@UDefenseData@ioDefenseController@@@std@@@std@@QAE@ABV01@@Z PROC ; std::vector<ioDefenseController::DefenseData,std::allocator<ioDefenseController::DefenseData> >::vector<ioDefenseController::DefenseData,std::allocator<ioDefenseController::DefenseData> >, COMDAT
; _this$ = ecx

; 535  : 		{	// construct by copying _Right

  00000	6a 08		 push	 8
  00002	b8 00 00 00 00	 mov	 eax, __ehhandler$??0?$vector@UDefenseData@ioDefenseController@@V?$allocator@UDefenseData@ioDefenseController@@@std@@@std@@QAE@ABV01@@Z
  00007	e8 00 00 00 00	 call	 __EH_prolog3_catch
  0000c	8b f1		 mov	 esi, ecx
  0000e	89 75 ec	 mov	 DWORD PTR _this$[ebp], esi

; 536  : 		if (_Buy(_Right.size()))

  00011	8b 7d 08	 mov	 edi, DWORD PTR __Right$[ebp]
  00014	33 db		 xor	 ebx, ebx
  00016	89 1e		 mov	 DWORD PTR [esi], ebx
  00018	89 5e 04	 mov	 DWORD PTR [esi+4], ebx
  0001b	89 5e 08	 mov	 DWORD PTR [esi+8], ebx
  0001e	8b 47 04	 mov	 eax, DWORD PTR [edi+4]
  00021	2b 07		 sub	 eax, DWORD PTR [edi]
  00023	c1 f8 03	 sar	 eax, 3
  00026	50		 push	 eax
  00027	e8 00 00 00 00	 call	 ?_Buy@?$vector@UDefenseData@ioDefenseController@@V?$allocator@UDefenseData@ioDefenseController@@@std@@@std@@IAE_NI@Z ; std::vector<ioDefenseController::DefenseData,std::allocator<ioDefenseController::DefenseData> >::_Buy
  0002c	84 c0		 test	 al, al
  0002e	74 1f		 je	 SHORT $LN7@vector

; 537  : 			_TRY_BEGIN
; 538  : 			this->_Mylast = _Ucopy(_Right.begin(), _Right.end(),
; 539  : 				this->_Myfirst);

  00030	ff 75 08	 push	 DWORD PTR __Cat$541478[ebp]
  00033	8b 0e		 mov	 ecx, DWORD PTR [esi]
  00035	8b 47 04	 mov	 eax, DWORD PTR [edi+4]
  00038	8b 3f		 mov	 edi, DWORD PTR [edi]
  0003a	8d 56 0c	 lea	 edx, DWORD PTR [esi+12]
  0003d	52		 push	 edx
  0003e	51		 push	 ecx
  0003f	50		 push	 eax
  00040	57		 push	 edi
  00041	89 5d fc	 mov	 DWORD PTR __$EHRec$[ebp+12], ebx
  00044	e8 00 00 00 00	 call	 ??$_Uninit_copy@V?$_Vector_const_iterator@V?$_Vector_val@UDefenseData@ioDefenseController@@V?$allocator@UDefenseData@ioDefenseController@@@std@@@std@@@std@@PAUDefenseData@ioDefenseController@@V?$allocator@UDefenseData@ioDefenseController@@@2@@std@@YAPAUDefenseData@ioDefenseController@@V?$_Vector_const_iterator@V?$_Vector_val@UDefenseData@ioDefenseController@@V?$allocator@UDefenseData@ioDefenseController@@@std@@@std@@@0@0PAU12@AAV?$allocator@UDefenseData@ioDefenseController@@@0@U_Nonscalar_ptr_iterator_tag@0@@Z ; std::_Uninit_copy<std::_Vector_const_iterator<std::_Vector_val<ioDefenseController::DefenseData,std::allocator<ioDefenseController::DefenseData> > >,ioDefenseController::DefenseData *,std::allocator<ioDefenseController::DefenseData> >
  00049	83 c4 14	 add	 esp, 20			; 00000014H
  0004c	89 46 04	 mov	 DWORD PTR [esi+4], eax
$LN7@vector:

; 543  : 			_CATCH_END
; 544  : 		}

  0004f	8b c6		 mov	 eax, esi
  00051	e8 00 00 00 00	 call	 __EH_epilog3
  00056	c2 04 00	 ret	 4
__catch$??0?$vector@UDefenseData@ioDefenseController@@V?$allocator@UDefenseData@ioDefenseController@@@std@@@std@@QAE@ABV01@@Z$0:

; 540  : 			_CATCH_ALL
; 541  : 			_Tidy();

  00059	8b 4d ec	 mov	 ecx, DWORD PTR _this$[ebp]
  0005c	e8 00 00 00 00	 call	 ?_Tidy@?$vector@UDefenseData@ioDefenseController@@V?$allocator@UDefenseData@ioDefenseController@@@std@@@std@@IAEXXZ ; std::vector<ioDefenseController::DefenseData,std::allocator<ioDefenseController::DefenseData> >::_Tidy

; 542  : 			_RERAISE;

  00061	33 db		 xor	 ebx, ebx
  00063	53		 push	 ebx
  00064	53		 push	 ebx
  00065	e8 00 00 00 00	 call	 __CxxThrowException@8
$LN38@vector:
$LN37@vector:
  0006a	cc		 int	 3
_TEXT	ENDS
;	COMDAT text$x
text$x	SEGMENT
__ehhandler$??0?$vector@UDefenseData@ioDefenseController@@V?$allocator@UDefenseData@ioDefenseController@@@std@@@std@@QAE@ABV01@@Z:
  00000	8b 54 24 08	 mov	 edx, DWORD PTR [esp+8]
  00004	8d 42 0c	 lea	 eax, DWORD PTR [edx+12]
  00007	8b 4a e8	 mov	 ecx, DWORD PTR [edx-24]
  0000a	33 c8		 xor	 ecx, eax
  0000c	e8 00 00 00 00	 call	 @__security_check_cookie@4
  00011	b8 00 00 00 00	 mov	 eax, OFFSET __ehfuncinfo$??0?$vector@UDefenseData@ioDefenseController@@V?$allocator@UDefenseData@ioDefenseController@@@std@@@std@@QAE@ABV01@@Z
  00016	e9 00 00 00 00	 jmp	 ___CxxFrameHandler3
text$x	ENDS
??0?$vector@UDefenseData@ioDefenseController@@V?$allocator@UDefenseData@ioDefenseController@@@std@@@std@@QAE@ABV01@@Z ENDP ; std::vector<ioDefenseController::DefenseData,std::allocator<ioDefenseController::DefenseData> >::vector<ioDefenseController::DefenseData,std::allocator<ioDefenseController::DefenseData> >
PUBLIC	??$_Ucopy@V?$_Vector_const_iterator@V?$_Vector_val@KV?$allocator@K@std@@@std@@@std@@@?$vector@KV?$allocator@K@std@@@std@@IAEPAKV?$_Vector_const_iterator@V?$_Vector_val@KV?$allocator@K@std@@@std@@@1@0PAK@Z ; std::vector<unsigned long,std::allocator<unsigned long> >::_Ucopy<std::_Vector_const_iterator<std::_Vector_val<unsigned long,std::allocator<unsigned long> > > >
; Function compile flags: /Ogsp
;	COMDAT ??$_Ucopy@V?$_Vector_const_iterator@V?$_Vector_val@KV?$allocator@K@std@@@std@@@std@@@?$vector@KV?$allocator@K@std@@@std@@IAEPAKV?$_Vector_const_iterator@V?$_Vector_val@KV?$allocator@K@std@@@std@@@1@0PAK@Z
_TEXT	SEGMENT
__First$ = 8						; size = 4
__Last$ = 12						; size = 4
__Cat$541506 = 16					; size = 1
__Ptr$ = 16						; size = 4
??$_Ucopy@V?$_Vector_const_iterator@V?$_Vector_val@KV?$allocator@K@std@@@std@@@std@@@?$vector@KV?$allocator@K@std@@@std@@IAEPAKV?$_Vector_const_iterator@V?$_Vector_val@KV?$allocator@K@std@@@std@@@1@0PAK@Z PROC ; std::vector<unsigned long,std::allocator<unsigned long> >::_Ucopy<std::_Vector_const_iterator<std::_Vector_val<unsigned long,std::allocator<unsigned long> > > >, COMDAT
; _this$ = ecx

; 1315 : 		pointer _Ucopy(_Iter _First, _Iter _Last, pointer _Ptr)

  00000	55		 push	 ebp
  00001	8b ec		 mov	 ebp, esp

; 1316 : 		{	// copy initializing [_First, _Last), using allocator
; 1317 : 		return (_Uninitialized_copy(_First, _Last,
; 1318 : 			_Ptr, this->_Alval));

  00003	ff 75 10	 push	 DWORD PTR __Cat$541506[ebp]
  00006	83 c1 0c	 add	 ecx, 12			; 0000000cH
  00009	51		 push	 ecx
  0000a	ff 75 10	 push	 DWORD PTR __Ptr$[ebp]
  0000d	ff 75 0c	 push	 DWORD PTR __Last$[ebp]
  00010	ff 75 08	 push	 DWORD PTR __First$[ebp]
  00013	e8 00 00 00 00	 call	 ??$_Uninit_copy@V?$_Vector_const_iterator@V?$_Vector_val@KV?$allocator@K@std@@@std@@@std@@PAKV?$allocator@K@2@@std@@YAPAKV?$_Vector_const_iterator@V?$_Vector_val@KV?$allocator@K@std@@@std@@@0@0PAKAAV?$allocator@K@0@U_Nonscalar_ptr_iterator_tag@0@@Z ; std::_Uninit_copy<std::_Vector_const_iterator<std::_Vector_val<unsigned long,std::allocator<unsigned long> > >,unsigned long *,std::allocator<unsigned long> >
  00018	83 c4 14	 add	 esp, 20			; 00000014H

; 1319 : 		}

  0001b	5d		 pop	 ebp
  0001c	c2 0c 00	 ret	 12			; 0000000cH
??$_Ucopy@V?$_Vector_const_iterator@V?$_Vector_val@KV?$allocator@K@std@@@std@@@std@@@?$vector@KV?$allocator@K@std@@@std@@IAEPAKV?$_Vector_const_iterator@V?$_Vector_val@KV?$allocator@K@std@@@std@@@1@0PAK@Z ENDP ; std::vector<unsigned long,std::allocator<unsigned long> >::_Ucopy<std::_Vector_const_iterator<std::_Vector_val<unsigned long,std::allocator<unsigned long> > > >
_TEXT	ENDS
PUBLIC	?push_back@?$vector@KV?$allocator@K@std@@@std@@QAEXABK@Z ; std::vector<unsigned long,std::allocator<unsigned long> >::push_back
; Function compile flags: /Ogsp
;	COMDAT ?push_back@?$vector@KV?$allocator@K@std@@@std@@QAEXABK@Z
_TEXT	SEGMENT
__Val$ = 8						; size = 4
?push_back@?$vector@KV?$allocator@K@std@@@std@@QAEXABK@Z PROC ; std::vector<unsigned long,std::allocator<unsigned long> >::push_back, COMDAT
; _this$ = ecx

; 976  : 		{	// insert element at end

  00000	55		 push	 ebp
  00001	8b ec		 mov	 ebp, esp
  00003	56		 push	 esi
  00004	8b f1		 mov	 esi, ecx

; 977  : 		if (_Inside(_STD addressof(_Val)))

  00006	8b 46 04	 mov	 eax, DWORD PTR [esi+4]
  00009	57		 push	 edi
  0000a	8b 7d 08	 mov	 edi, DWORD PTR __Val$[ebp]
  0000d	3b f8		 cmp	 edi, eax
  0000f	73 27		 jae	 SHORT $LN4@push_back
  00011	8b 0e		 mov	 ecx, DWORD PTR [esi]
  00013	3b cf		 cmp	 ecx, edi
  00015	77 21		 ja	 SHORT $LN4@push_back

; 978  : 			{	// push back an element
; 979  : 			size_type _Idx = _STD addressof(_Val) - this->_Myfirst;

  00017	2b f9		 sub	 edi, ecx
  00019	c1 ff 02	 sar	 edi, 2

; 980  : 			if (this->_Mylast == this->_Myend)

  0001c	3b 46 08	 cmp	 eax, DWORD PTR [esi+8]
  0001f	75 09		 jne	 SHORT $LN3@push_back

; 981  : 				_Reserve(1);

  00021	6a 01		 push	 1
  00023	8b ce		 mov	 ecx, esi
  00025	e8 00 00 00 00	 call	 ?_Reserve@?$vector@KV?$allocator@K@std@@@std@@IAEXI@Z ; std::vector<unsigned long,std::allocator<unsigned long> >::_Reserve
$LN3@push_back:

; 982  : 			_Orphan_range(this->_Mylast, this->_Mylast);
; 983  : 			_Cons_val(this->_Alval,
; 984  : 				this->_Mylast,
; 985  : 				this->_Myfirst[_Idx]);

  0002a	8b 46 04	 mov	 eax, DWORD PTR [esi+4]
  0002d	85 c0		 test	 eax, eax
  0002f	74 20		 je	 SHORT $LN39@push_back
  00031	8b 0e		 mov	 ecx, DWORD PTR [esi]
  00033	8b 0c b9	 mov	 ecx, DWORD PTR [ecx+edi*4]

; 986  : 			++this->_Mylast;
; 987  : 			}
; 988  : 		else

  00036	eb 17		 jmp	 SHORT $LN46@push_back
$LN4@push_back:

; 989  : 			{	// push back a non-element
; 990  : 			if (this->_Mylast == this->_Myend)

  00038	3b 46 08	 cmp	 eax, DWORD PTR [esi+8]
  0003b	75 09		 jne	 SHORT $LN1@push_back

; 991  : 				_Reserve(1);

  0003d	6a 01		 push	 1
  0003f	8b ce		 mov	 ecx, esi
  00041	e8 00 00 00 00	 call	 ?_Reserve@?$vector@KV?$allocator@K@std@@@std@@IAEXI@Z ; std::vector<unsigned long,std::allocator<unsigned long> >::_Reserve
$LN1@push_back:

; 992  : 			_Orphan_range(this->_Mylast, this->_Mylast);
; 993  : 			_Cons_val(this->_Alval,
; 994  : 				this->_Mylast,
; 995  : 				_Val);

  00046	8b 46 04	 mov	 eax, DWORD PTR [esi+4]
  00049	85 c0		 test	 eax, eax
  0004b	74 04		 je	 SHORT $LN39@push_back
  0004d	8b 0f		 mov	 ecx, DWORD PTR [edi]
$LN46@push_back:
  0004f	89 08		 mov	 DWORD PTR [eax], ecx
$LN39@push_back:

; 996  : 			++this->_Mylast;

  00051	83 46 04 04	 add	 DWORD PTR [esi+4], 4
  00055	5f		 pop	 edi
  00056	5e		 pop	 esi

; 997  : 			}
; 998  : 		}

  00057	5d		 pop	 ebp
  00058	c2 04 00	 ret	 4
?push_back@?$vector@KV?$allocator@K@std@@@std@@QAEXABK@Z ENDP ; std::vector<unsigned long,std::allocator<unsigned long> >::push_back
_TEXT	ENDS
PUBLIC	??0?$basic_string@DU?$char_traits@D@std@@V?$allocator@D@2@@std@@QAE@ABV01@@Z ; std::basic_string<char,std::char_traits<char>,std::allocator<char> >::basic_string<char,std::char_traits<char>,std::allocator<char> >
; Function compile flags: /Ogsp
; File c:\program files (x86)\microsoft visual studio 10.0\vc\include\xstring
;	COMDAT ??0?$basic_string@DU?$char_traits@D@std@@V?$allocator@D@2@@std@@QAE@ABV01@@Z
_TEXT	SEGMENT
__Right$ = 8						; size = 4
??0?$basic_string@DU?$char_traits@D@std@@V?$allocator@D@2@@std@@QAE@ABV01@@Z PROC ; std::basic_string<char,std::char_traits<char>,std::allocator<char> >::basic_string<char,std::char_traits<char>,std::allocator<char> >, COMDAT
; _this$ = ecx

; 543  : 		{	// construct by copying _Right

  00000	55		 push	 ebp
  00001	8b ec		 mov	 ebp, esp
  00003	56		 push	 esi

; 544  : 		_Tidy();

  00004	33 c0		 xor	 eax, eax

; 545  : 		assign(_Right, 0, npos);

  00006	6a ff		 push	 -1
  00008	8b f1		 mov	 esi, ecx
  0000a	50		 push	 eax
  0000b	ff 75 08	 push	 DWORD PTR __Right$[ebp]
  0000e	c7 46 14 0f 00
	00 00		 mov	 DWORD PTR [esi+20], 15	; 0000000fH
  00015	89 46 10	 mov	 DWORD PTR [esi+16], eax
  00018	88 06		 mov	 BYTE PTR [esi], al
  0001a	e8 00 00 00 00	 call	 ?assign@?$basic_string@DU?$char_traits@D@std@@V?$allocator@D@2@@std@@QAEAAV12@ABV12@II@Z ; std::basic_string<char,std::char_traits<char>,std::allocator<char> >::assign

; 546  : 		}

  0001f	8b c6		 mov	 eax, esi
  00021	5e		 pop	 esi
  00022	5d		 pop	 ebp
  00023	c2 04 00	 ret	 4
??0?$basic_string@DU?$char_traits@D@std@@V?$allocator@D@2@@std@@QAE@ABV01@@Z ENDP ; std::basic_string<char,std::char_traits<char>,std::allocator<char> >::basic_string<char,std::char_traits<char>,std::allocator<char> >
_TEXT	ENDS
PUBLIC	?assign@?$basic_string@DU?$char_traits@D@std@@V?$allocator@D@2@@std@@QAEAAV12@ABV12@@Z ; std::basic_string<char,std::char_traits<char>,std::allocator<char> >::assign
; Function compile flags: /Ogsp
;	COMDAT ?assign@?$basic_string@DU?$char_traits@D@std@@V?$allocator@D@2@@std@@QAEAAV12@ABV12@@Z
_TEXT	SEGMENT
__Right$ = 8						; size = 4
?assign@?$basic_string@DU?$char_traits@D@std@@V?$allocator@D@2@@std@@QAEAAV12@ABV12@@Z PROC ; std::basic_string<char,std::char_traits<char>,std::allocator<char> >::assign, COMDAT
; _this$ = ecx

; 887  : 		{	// assign _Right

  00000	55		 push	 ebp
  00001	8b ec		 mov	 ebp, esp

; 888  : 		return (assign(_Right, 0, npos));

  00003	6a ff		 push	 -1
  00005	6a 00		 push	 0
  00007	ff 75 08	 push	 DWORD PTR __Right$[ebp]
  0000a	e8 00 00 00 00	 call	 ?assign@?$basic_string@DU?$char_traits@D@std@@V?$allocator@D@2@@std@@QAEAAV12@ABV12@II@Z ; std::basic_string<char,std::char_traits<char>,std::allocator<char> >::assign

; 889  : 		}

  0000f	5d		 pop	 ebp
  00010	c2 04 00	 ret	 4
?assign@?$basic_string@DU?$char_traits@D@std@@V?$allocator@D@2@@std@@QAEAAV12@ABV12@@Z ENDP ; std::basic_string<char,std::char_traits<char>,std::allocator<char> >::assign
_TEXT	ENDS
PUBLIC	?assign@?$basic_string@DU?$char_traits@D@std@@V?$allocator@D@2@@std@@QAEAAV12@PBD@Z ; std::basic_string<char,std::char_traits<char>,std::allocator<char> >::assign
; Function compile flags: /Ogsp
;	COMDAT ?assign@?$basic_string@DU?$char_traits@D@std@@V?$allocator@D@2@@std@@QAEAAV12@PBD@Z
_TEXT	SEGMENT
__Ptr$ = 8						; size = 4
?assign@?$basic_string@DU?$char_traits@D@std@@V?$allocator@D@2@@std@@QAEAAV12@PBD@Z PROC ; std::basic_string<char,std::char_traits<char>,std::allocator<char> >::assign, COMDAT
; _this$ = ecx

; 929  : 		{	// assign [_Ptr, <null>)

  00000	55		 push	 ebp
  00001	8b ec		 mov	 ebp, esp

; 930  : 		_DEBUG_POINTER(_Ptr);
; 931  : 		return (assign(_Ptr, _Traits::length(_Ptr)));

  00003	8b 45 08	 mov	 eax, DWORD PTR __Ptr$[ebp]
  00006	8d 50 01	 lea	 edx, DWORD PTR [eax+1]
  00009	53		 push	 ebx
$LL5@assign@3:
  0000a	8a 18		 mov	 bl, BYTE PTR [eax]
  0000c	40		 inc	 eax
  0000d	84 db		 test	 bl, bl
  0000f	75 f9		 jne	 SHORT $LL5@assign@3
  00011	2b c2		 sub	 eax, edx
  00013	50		 push	 eax
  00014	ff 75 08	 push	 DWORD PTR __Ptr$[ebp]
  00017	e8 00 00 00 00	 call	 ?assign@?$basic_string@DU?$char_traits@D@std@@V?$allocator@D@2@@std@@QAEAAV12@PBDI@Z ; std::basic_string<char,std::char_traits<char>,std::allocator<char> >::assign
  0001c	5b		 pop	 ebx

; 932  : 		}

  0001d	5d		 pop	 ebp
  0001e	c2 04 00	 ret	 4
?assign@?$basic_string@DU?$char_traits@D@std@@V?$allocator@D@2@@std@@QAEAAV12@PBD@Z ENDP ; std::basic_string<char,std::char_traits<char>,std::allocator<char> >::assign
_TEXT	ENDS
PUBLIC	?destroy@?$allocator@V?$basic_string@DU?$char_traits@D@std@@V?$allocator@D@2@@std@@@std@@QAEXPAV?$basic_string@DU?$char_traits@D@std@@V?$allocator@D@2@@2@@Z ; std::allocator<std::basic_string<char,std::char_traits<char>,std::allocator<char> > >::destroy
; Function compile flags: /Ogsp
; File c:\program files (x86)\microsoft visual studio 10.0\vc\include\xmemory
;	COMDAT ?destroy@?$allocator@V?$basic_string@DU?$char_traits@D@std@@V?$allocator@D@2@@std@@@std@@QAEXPAV?$basic_string@DU?$char_traits@D@std@@V?$allocator@D@2@@2@@Z
_TEXT	SEGMENT
__Ptr$ = 8						; size = 4
?destroy@?$allocator@V?$basic_string@DU?$char_traits@D@std@@V?$allocator@D@2@@std@@@std@@QAEXPAV?$basic_string@DU?$char_traits@D@std@@V?$allocator@D@2@@2@@Z PROC ; std::allocator<std::basic_string<char,std::char_traits<char>,std::allocator<char> > >::destroy, COMDAT
; _this$ = ecx

; 212  : 		{	// destroy object at _Ptr

  00000	55		 push	 ebp
  00001	8b ec		 mov	 ebp, esp

; 213  : 		_Destroy(_Ptr);

  00003	8b 4d 08	 mov	 ecx, DWORD PTR __Ptr$[ebp]
  00006	6a 00		 push	 0
  00008	6a 01		 push	 1
  0000a	e8 00 00 00 00	 call	 ?_Tidy@?$basic_string@DU?$char_traits@D@std@@V?$allocator@D@2@@std@@QAEX_NI@Z ; std::basic_string<char,std::char_traits<char>,std::allocator<char> >::_Tidy

; 214  : 		}

  0000f	5d		 pop	 ebp
  00010	c2 04 00	 ret	 4
?destroy@?$allocator@V?$basic_string@DU?$char_traits@D@std@@V?$allocator@D@2@@std@@@std@@QAEXPAV?$basic_string@DU?$char_traits@D@std@@V?$allocator@D@2@@2@@Z ENDP ; std::allocator<std::basic_string<char,std::char_traits<char>,std::allocator<char> > >::destroy
_TEXT	ENDS
PUBLIC	??1?$vector@UDefenseData@ioDefenseController@@V?$allocator@UDefenseData@ioDefenseController@@@std@@@std@@QAE@XZ ; std::vector<ioDefenseController::DefenseData,std::allocator<ioDefenseController::DefenseData> >::~vector<ioDefenseController::DefenseData,std::allocator<ioDefenseController::DefenseData> >
; Function compile flags: /Ogsp
; File c:\program files (x86)\microsoft visual studio 10.0\vc\include\vector
;	COMDAT ??1?$vector@UDefenseData@ioDefenseController@@V?$allocator@UDefenseData@ioDefenseController@@@std@@@std@@QAE@XZ
_TEXT	SEGMENT
??1?$vector@UDefenseData@ioDefenseController@@V?$allocator@UDefenseData@ioDefenseController@@@std@@@std@@QAE@XZ PROC ; std::vector<ioDefenseController::DefenseData,std::allocator<ioDefenseController::DefenseData> >::~vector<ioDefenseController::DefenseData,std::allocator<ioDefenseController::DefenseData> >, COMDAT
; _this$ = ecx

; 705  : 		_Tidy();

  00000	e9 00 00 00 00	 jmp	 ?_Tidy@?$vector@UDefenseData@ioDefenseController@@V?$allocator@UDefenseData@ioDefenseController@@@std@@@std@@IAEXXZ ; std::vector<ioDefenseController::DefenseData,std::allocator<ioDefenseController::DefenseData> >::_Tidy
??1?$vector@UDefenseData@ioDefenseController@@V?$allocator@UDefenseData@ioDefenseController@@@std@@@std@@QAE@XZ ENDP ; std::vector<ioDefenseController::DefenseData,std::allocator<ioDefenseController::DefenseData> >::~vector<ioDefenseController::DefenseData,std::allocator<ioDefenseController::DefenseData> >
_TEXT	ENDS
PUBLIC	?erase@?$vector@UDefenseData@ioDefenseController@@V?$allocator@UDefenseData@ioDefenseController@@@std@@@std@@QAE?AV?$_Vector_iterator@V?$_Vector_val@UDefenseData@ioDefenseController@@V?$allocator@UDefenseData@ioDefenseController@@@std@@@std@@@2@V?$_Vector_const_iterator@V?$_Vector_val@UDefenseData@ioDefenseController@@V?$allocator@UDefenseData@ioDefenseController@@@std@@@std@@@2@@Z ; std::vector<ioDefenseController::DefenseData,std::allocator<ioDefenseController::DefenseData> >::erase
; Function compile flags: /Ogsp
;	COMDAT ?erase@?$vector@UDefenseData@ioDefenseController@@V?$allocator@UDefenseData@ioDefenseController@@@std@@@std@@QAE?AV?$_Vector_iterator@V?$_Vector_val@UDefenseData@ioDefenseController@@V?$allocator@UDefenseData@ioDefenseController@@@std@@@std@@@2@V?$_Vector_const_iterator@V?$_Vector_val@UDefenseData@ioDefenseController@@V?$allocator@UDefenseData@ioDefenseController@@@std@@@std@@@2@@Z
_TEXT	SEGMENT
___$ReturnUdt$ = 8					; size = 4
__Cat$541752 = 12					; size = 1
__Where$ = 12						; size = 4
?erase@?$vector@UDefenseData@ioDefenseController@@V?$allocator@UDefenseData@ioDefenseController@@@std@@@std@@QAE?AV?$_Vector_iterator@V?$_Vector_val@UDefenseData@ioDefenseController@@V?$allocator@UDefenseData@ioDefenseController@@@std@@@std@@@2@V?$_Vector_const_iterator@V?$_Vector_val@UDefenseData@ioDefenseController@@V?$allocator@UDefenseData@ioDefenseController@@@std@@@std@@@2@@Z PROC ; std::vector<ioDefenseController::DefenseData,std::allocator<ioDefenseController::DefenseData> >::erase, COMDAT
; _this$ = ecx

; 1179 : 		{	// erase element at where

  00000	55		 push	 ebp
  00001	8b ec		 mov	 ebp, esp

; 1180 : 		_Move(_VIPTR(_Where) + 1, this->_Mylast,
; 1181 : 			_VIPTR(_Where));

  00003	8b 45 0c	 mov	 eax, DWORD PTR __Where$[ebp]
  00006	56		 push	 esi
  00007	ff 75 0c	 push	 DWORD PTR __Cat$541752[ebp]
  0000a	8b f1		 mov	 esi, ecx
  0000c	50		 push	 eax
  0000d	ff 76 04	 push	 DWORD PTR [esi+4]
  00010	83 c0 08	 add	 eax, 8
  00013	50		 push	 eax
  00014	e8 00 00 00 00	 call	 ??$_Move@PAUDefenseData@ioDefenseController@@PAU12@@std@@YAPAUDefenseData@ioDefenseController@@PAU12@00U_Nonscalar_ptr_iterator_tag@0@@Z ; std::_Move<ioDefenseController::DefenseData *,ioDefenseController::DefenseData *>

; 1182 : 		_Destroy(this->_Mylast - 1, this->_Mylast);
; 1183 : 		--this->_Mylast;
; 1184 : 		return (_Make_iter(_Where));

  00019	8b 45 08	 mov	 eax, DWORD PTR ___$ReturnUdt$[ebp]
  0001c	8b 4d 0c	 mov	 ecx, DWORD PTR __Where$[ebp]
  0001f	83 c4 10	 add	 esp, 16			; 00000010H
  00022	83 46 04 f8	 add	 DWORD PTR [esi+4], -8	; fffffff8H
  00026	89 08		 mov	 DWORD PTR [eax], ecx
  00028	5e		 pop	 esi

; 1185 : 		}

  00029	5d		 pop	 ebp
  0002a	c2 08 00	 ret	 8
?erase@?$vector@UDefenseData@ioDefenseController@@V?$allocator@UDefenseData@ioDefenseController@@@std@@@std@@QAE?AV?$_Vector_iterator@V?$_Vector_val@UDefenseData@ioDefenseController@@V?$allocator@UDefenseData@ioDefenseController@@@std@@@std@@@2@V?$_Vector_const_iterator@V?$_Vector_val@UDefenseData@ioDefenseController@@V?$allocator@UDefenseData@ioDefenseController@@@std@@@std@@@2@@Z ENDP ; std::vector<ioDefenseController::DefenseData,std::allocator<ioDefenseController::DefenseData> >::erase
_TEXT	ENDS
PUBLIC	?erase@?$vector@UDefenseData@ioDefenseController@@V?$allocator@UDefenseData@ioDefenseController@@@std@@@std@@QAE?AV?$_Vector_iterator@V?$_Vector_val@UDefenseData@ioDefenseController@@V?$allocator@UDefenseData@ioDefenseController@@@std@@@std@@@2@V?$_Vector_const_iterator@V?$_Vector_val@UDefenseData@ioDefenseController@@V?$allocator@UDefenseData@ioDefenseController@@@std@@@std@@@2@0@Z ; std::vector<ioDefenseController::DefenseData,std::allocator<ioDefenseController::DefenseData> >::erase
; Function compile flags: /Ogsp
;	COMDAT ?erase@?$vector@UDefenseData@ioDefenseController@@V?$allocator@UDefenseData@ioDefenseController@@@std@@@std@@QAE?AV?$_Vector_iterator@V?$_Vector_val@UDefenseData@ioDefenseController@@V?$allocator@UDefenseData@ioDefenseController@@@std@@@std@@@2@V?$_Vector_const_iterator@V?$_Vector_val@UDefenseData@ioDefenseController@@V?$allocator@UDefenseData@ioDefenseController@@@std@@@std@@@2@0@Z
_TEXT	SEGMENT
___$ReturnUdt$ = 8					; size = 4
__First_arg$ = 12					; size = 4
__Cat$541927 = 16					; size = 1
__Last_arg$ = 16					; size = 4
?erase@?$vector@UDefenseData@ioDefenseController@@V?$allocator@UDefenseData@ioDefenseController@@@std@@@std@@QAE?AV?$_Vector_iterator@V?$_Vector_val@UDefenseData@ioDefenseController@@V?$allocator@UDefenseData@ioDefenseController@@@std@@@std@@@2@V?$_Vector_const_iterator@V?$_Vector_val@UDefenseData@ioDefenseController@@V?$allocator@UDefenseData@ioDefenseController@@@std@@@std@@@2@0@Z PROC ; std::vector<ioDefenseController::DefenseData,std::allocator<ioDefenseController::DefenseData> >::erase, COMDAT
; _this$ = ecx

; 1190 : 		{	// erase [_First, _Last)

  00000	55		 push	 ebp
  00001	8b ec		 mov	 ebp, esp

; 1191 : 		iterator _First = _Make_iter(_First_arg);

  00003	8b 45 0c	 mov	 eax, DWORD PTR __First_arg$[ebp]
  00006	56		 push	 esi
  00007	57		 push	 edi
  00008	8b 7d 08	 mov	 edi, DWORD PTR ___$ReturnUdt$[ebp]
  0000b	8b f1		 mov	 esi, ecx
  0000d	89 07		 mov	 DWORD PTR [edi], eax

; 1192 : 		iterator _Last = _Make_iter(_Last_arg);
; 1193 : 
; 1194 : 		if (_First != _Last)

  0000f	3b 45 10	 cmp	 eax, DWORD PTR __Last_arg$[ebp]
  00012	74 16		 je	 SHORT $LN1@erase@2

; 1195 : 			{	// worth doing, copy down over hole
; 1196 :  #if _ITERATOR_DEBUG_LEVEL == 2
; 1197 : 			if (_Last < _First || _VICONT(_First) != this
; 1198 : 				|| _VIPTR(_First) < this->_Myfirst
; 1199 : 				|| this->_Mylast < _VIPTR(_Last))
; 1200 : 				_DEBUG_ERROR("vector erase iterator outside range");
; 1201 : 			pointer _Ptr = _Move(_VIPTR(_Last), this->_Mylast,
; 1202 : 				_VIPTR(_First));
; 1203 : 			_Orphan_range(_VIPTR(_First), this->_Mylast);
; 1204 : 
; 1205 :  #else /* _ITERATOR_DEBUG_LEVEL == 2 */
; 1206 : 			pointer _Ptr = _Move(_VIPTR(_Last), this->_Mylast,
; 1207 : 				_VIPTR(_First));

  00014	ff 75 10	 push	 DWORD PTR __Cat$541927[ebp]
  00017	8b 4e 04	 mov	 ecx, DWORD PTR [esi+4]
  0001a	50		 push	 eax
  0001b	51		 push	 ecx
  0001c	ff 75 10	 push	 DWORD PTR __Last_arg$[ebp]
  0001f	e8 00 00 00 00	 call	 ??$_Move@PAUDefenseData@ioDefenseController@@PAU12@@std@@YAPAUDefenseData@ioDefenseController@@PAU12@00U_Nonscalar_ptr_iterator_tag@0@@Z ; std::_Move<ioDefenseController::DefenseData *,ioDefenseController::DefenseData *>
  00024	83 c4 10	 add	 esp, 16			; 00000010H

; 1208 :  #endif /* _ITERATOR_DEBUG_LEVEL == 2 */
; 1209 : 
; 1210 : 			_Destroy(_Ptr, this->_Mylast);
; 1211 : 			this->_Mylast = _Ptr;

  00027	89 46 04	 mov	 DWORD PTR [esi+4], eax
$LN1@erase@2:

; 1212 : 			}
; 1213 : 		return (_First);

  0002a	8b c7		 mov	 eax, edi
  0002c	5f		 pop	 edi
  0002d	5e		 pop	 esi

; 1214 : 		}

  0002e	5d		 pop	 ebp
  0002f	c2 0c 00	 ret	 12			; 0000000cH
?erase@?$vector@UDefenseData@ioDefenseController@@V?$allocator@UDefenseData@ioDefenseController@@@std@@@std@@QAE?AV?$_Vector_iterator@V?$_Vector_val@UDefenseData@ioDefenseController@@V?$allocator@UDefenseData@ioDefenseController@@@std@@@std@@@2@V?$_Vector_const_iterator@V?$_Vector_val@UDefenseData@ioDefenseController@@V?$allocator@UDefenseData@ioDefenseController@@@std@@@std@@@2@0@Z ENDP ; std::vector<ioDefenseController::DefenseData,std::allocator<ioDefenseController::DefenseData> >::erase
_TEXT	ENDS
PUBLIC	?reserve@?$vector@UDefenseData@ioDefenseController@@V?$allocator@UDefenseData@ioDefenseController@@@std@@@std@@QAEXI@Z ; std::vector<ioDefenseController::DefenseData,std::allocator<ioDefenseController::DefenseData> >::reserve
;	COMDAT xdata$x
; File c:\program files (x86)\microsoft visual studio 10.0\vc\include\xmemory
xdata$x	SEGMENT
__catchsym$?reserve@?$vector@UDefenseData@ioDefenseController@@V?$allocator@UDefenseData@ioDefenseController@@@std@@@std@@QAEXI@Z$2 DD 040H
	DD	00H
	DD	00H
	DD	FLAT:__catch$?reserve@?$vector@UDefenseData@ioDefenseController@@V?$allocator@UDefenseData@ioDefenseController@@@std@@@std@@QAEXI@Z$0
__unwindtable$?reserve@?$vector@UDefenseData@ioDefenseController@@V?$allocator@UDefenseData@ioDefenseController@@@std@@@std@@QAEXI@Z DD 0ffffffffH
	DD	00H
	DD	0ffffffffH
	DD	00H
__tryblocktable$?reserve@?$vector@UDefenseData@ioDefenseController@@V?$allocator@UDefenseData@ioDefenseController@@@std@@@std@@QAEXI@Z DD 00H
	DD	00H
	DD	01H
	DD	01H
	DD	FLAT:__catchsym$?reserve@?$vector@UDefenseData@ioDefenseController@@V?$allocator@UDefenseData@ioDefenseController@@@std@@@std@@QAEXI@Z$2
__ehfuncinfo$?reserve@?$vector@UDefenseData@ioDefenseController@@V?$allocator@UDefenseData@ioDefenseController@@@std@@@std@@QAEXI@Z DD 019930522H
	DD	02H
	DD	FLAT:__unwindtable$?reserve@?$vector@UDefenseData@ioDefenseController@@V?$allocator@UDefenseData@ioDefenseController@@@std@@@std@@QAEXI@Z
	DD	01H
	DD	FLAT:__tryblocktable$?reserve@?$vector@UDefenseData@ioDefenseController@@V?$allocator@UDefenseData@ioDefenseController@@@std@@@std@@QAEXI@Z
	DD	2 DUP(00H)
	DD	00H
	DD	01H
; Function compile flags: /Ogsp
; File c:\program files (x86)\microsoft visual studio 10.0\vc\include\vector
xdata$x	ENDS
;	COMDAT ?reserve@?$vector@UDefenseData@ioDefenseController@@V?$allocator@UDefenseData@ioDefenseController@@@std@@@std@@QAEXI@Z
_TEXT	SEGMENT
__Ptr$534594 = -20					; size = 4
__$EHRec$ = -16						; size = 16
__Count$ = 8						; size = 4
?reserve@?$vector@UDefenseData@ioDefenseController@@V?$allocator@UDefenseData@ioDefenseController@@@std@@@std@@QAEXI@Z PROC ; std::vector<ioDefenseController::DefenseData,std::allocator<ioDefenseController::DefenseData> >::reserve, COMDAT
; _this$ = ecx

; 746  : 		{	// determine new minimum length of allocated storage

  00000	6a 08		 push	 8
  00002	b8 00 00 00 00	 mov	 eax, __ehhandler$?reserve@?$vector@UDefenseData@ioDefenseController@@V?$allocator@UDefenseData@ioDefenseController@@@std@@@std@@QAEXI@Z
  00007	e8 00 00 00 00	 call	 __EH_prolog3_catch
  0000c	8b f1		 mov	 esi, ecx

; 747  : 		if (max_size() < _Count)

  0000e	81 7d 08 ff ff
	ff 1f		 cmp	 DWORD PTR __Count$[ebp], 536870911 ; 1fffffffH
  00015	76 0b		 jbe	 SHORT $LN5@reserve@2

; 748  : 			_Xlen();	// result too long

  00017	68 00 00 00 00	 push	 OFFSET ??_C@_0BD@OLBABOEK@vector?$DMT?$DO?5too?5long?$AA@
  0001c	ff 15 00 00 00
	00		 call	 DWORD PTR __imp_?_Xlength_error@std@@YAXPBD@Z
$LN56@reserve@2:
$LN5@reserve@2:

; 749  : 		else if (capacity() < _Count)

  00022	8b 46 08	 mov	 eax, DWORD PTR [esi+8]
  00025	2b 06		 sub	 eax, DWORD PTR [esi]
  00027	c1 f8 03	 sar	 eax, 3
  0002a	3b 45 08	 cmp	 eax, DWORD PTR __Count$[ebp]
  0002d	73 65		 jae	 SHORT $LN3@reserve@2

; 750  : 			{	// not enough room, reallocate
; 751  : 			pointer _Ptr = this->_Alval.allocate(_Count);

  0002f	6a 00		 push	 0
  00031	ff 75 08	 push	 DWORD PTR __Count$[ebp]
  00034	e8 00 00 00 00	 call	 ??$_Allocate@UDefenseData@ioDefenseController@@@std@@YAPAUDefenseData@ioDefenseController@@IPAU12@@Z ; std::_Allocate<ioDefenseController::DefenseData>

; 752  : 
; 753  : 			_TRY_BEGIN
; 754  : 			_Umove(this->_Myfirst, this->_Mylast, _Ptr);

  00039	8b 0e		 mov	 ecx, DWORD PTR [esi]
  0003b	83 65 fc 00	 and	 DWORD PTR __$EHRec$[ebp+12], 0
  0003f	8b d8		 mov	 ebx, eax
  00041	8b 46 04	 mov	 eax, DWORD PTR [esi+4]
  00044	8d 56 0c	 lea	 edx, DWORD PTR [esi+12]
  00047	52		 push	 edx
  00048	53		 push	 ebx
  00049	50		 push	 eax
  0004a	51		 push	 ecx
  0004b	89 5d ec	 mov	 DWORD PTR __Ptr$534594[ebp], ebx
  0004e	e8 00 00 00 00	 call	 ??$_Uninitialized_move@PAUDefenseData@ioDefenseController@@PAU12@V?$allocator@UDefenseData@ioDefenseController@@@std@@@std@@YAPAUDefenseData@ioDefenseController@@PAU12@00AAV?$allocator@UDefenseData@ioDefenseController@@@0@@Z ; std::_Uninitialized_move<ioDefenseController::DefenseData *,ioDefenseController::DefenseData *,std::allocator<ioDefenseController::DefenseData> >

; 758  : 			_CATCH_END
; 759  : 
; 760  : 			size_type _Size = size();

  00053	8b 4e 04	 mov	 ecx, DWORD PTR [esi+4]
  00056	8b 06		 mov	 eax, DWORD PTR [esi]
  00058	83 4d fc ff	 or	 DWORD PTR __$EHRec$[ebp+12], -1
  0005c	8b f9		 mov	 edi, ecx
  0005e	2b f8		 sub	 edi, eax
  00060	83 c4 18	 add	 esp, 24			; 00000018H
  00063	c1 ff 03	 sar	 edi, 3
  00066	85 c0		 test	 eax, eax
  00068	74 11		 je	 SHORT $LN48@reserve@2

; 761  : 			if (this->_Myfirst != 0)

  0006a	eb 03		 jmp	 SHORT $LN55@reserve@2

; 762  : 				{	// destroy and deallocate old array
; 763  : 				_Destroy(this->_Myfirst, this->_Mylast);

$LL39@reserve@2:
  0006c	83 c0 08	 add	 eax, 8
$LN55@reserve@2:
  0006f	3b c1		 cmp	 eax, ecx
  00071	75 f9		 jne	 SHORT $LL39@reserve@2

; 764  : 				this->_Alval.deallocate(this->_Myfirst,
; 765  : 					this->_Myend - this->_Myfirst);

  00073	ff 36		 push	 DWORD PTR [esi]
  00075	e8 00 00 00 00	 call	 ??3@YAXPAX@Z		; operator delete
  0007a	59		 pop	 ecx
$LN48@reserve@2:

; 766  : 				}
; 767  : 
; 768  : 			this->_Orphan_all();

  0007b	8b ce		 mov	 ecx, esi
  0007d	ff 15 00 00 00
	00		 call	 DWORD PTR __imp_?_Orphan_all@_Container_base0@std@@QAEXXZ

; 769  : 			this->_Myend = _Ptr + _Count;

  00083	8b 45 08	 mov	 eax, DWORD PTR __Count$[ebp]
  00086	8d 04 c3	 lea	 eax, DWORD PTR [ebx+eax*8]
  00089	89 46 08	 mov	 DWORD PTR [esi+8], eax

; 770  : 			this->_Mylast = _Ptr + _Size;

  0008c	8d 04 fb	 lea	 eax, DWORD PTR [ebx+edi*8]
  0008f	89 46 04	 mov	 DWORD PTR [esi+4], eax

; 771  : 			this->_Myfirst = _Ptr;

  00092	89 1e		 mov	 DWORD PTR [esi], ebx
$LN3@reserve@2:

; 772  : 			}
; 773  : 		}

  00094	e8 00 00 00 00	 call	 __EH_epilog3
  00099	c2 04 00	 ret	 4
__catch$?reserve@?$vector@UDefenseData@ioDefenseController@@V?$allocator@UDefenseData@ioDefenseController@@@std@@@std@@QAEXI@Z$0:

; 755  : 			_CATCH_ALL
; 756  : 			this->_Alval.deallocate(_Ptr, _Count);

  0009c	ff 75 ec	 push	 DWORD PTR __Ptr$534594[ebp]
  0009f	e8 00 00 00 00	 call	 ??3@YAXPAX@Z		; operator delete
  000a4	59		 pop	 ecx

; 757  : 			_RERAISE;

  000a5	6a 00		 push	 0
  000a7	6a 00		 push	 0
  000a9	e8 00 00 00 00	 call	 __CxxThrowException@8
$LN57@reserve@2:
$LN54@reserve@2:
  000ae	cc		 int	 3
_TEXT	ENDS
;	COMDAT text$x
text$x	SEGMENT
__ehhandler$?reserve@?$vector@UDefenseData@ioDefenseController@@V?$allocator@UDefenseData@ioDefenseController@@@std@@@std@@QAEXI@Z:
  00000	8b 54 24 08	 mov	 edx, DWORD PTR [esp+8]
  00004	8d 42 0c	 lea	 eax, DWORD PTR [edx+12]
  00007	8b 4a e8	 mov	 ecx, DWORD PTR [edx-24]
  0000a	33 c8		 xor	 ecx, eax
  0000c	e8 00 00 00 00	 call	 @__security_check_cookie@4
  00011	b8 00 00 00 00	 mov	 eax, OFFSET __ehfuncinfo$?reserve@?$vector@UDefenseData@ioDefenseController@@V?$allocator@UDefenseData@ioDefenseController@@@std@@@std@@QAEXI@Z
  00016	e9 00 00 00 00	 jmp	 ___CxxFrameHandler3
text$x	ENDS
?reserve@?$vector@UDefenseData@ioDefenseController@@V?$allocator@UDefenseData@ioDefenseController@@@std@@@std@@QAEXI@Z ENDP ; std::vector<ioDefenseController::DefenseData,std::allocator<ioDefenseController::DefenseData> >::reserve
PUBLIC	??0?$vector@KV?$allocator@K@std@@@std@@QAE@ABV01@@Z ; std::vector<unsigned long,std::allocator<unsigned long> >::vector<unsigned long,std::allocator<unsigned long> >
;	COMDAT xdata$x
; File c:\program files (x86)\microsoft visual studio 10.0\vc\include\xutility
xdata$x	SEGMENT
__catchsym$??0?$vector@KV?$allocator@K@std@@@std@@QAE@ABV01@@Z$2 DD 040H
	DD	00H
	DD	00H
	DD	FLAT:__catch$??0?$vector@KV?$allocator@K@std@@@std@@QAE@ABV01@@Z$0
__unwindtable$??0?$vector@KV?$allocator@K@std@@@std@@QAE@ABV01@@Z DD 0ffffffffH
	DD	00H
	DD	0ffffffffH
	DD	00H
__tryblocktable$??0?$vector@KV?$allocator@K@std@@@std@@QAE@ABV01@@Z DD 00H
	DD	00H
	DD	01H
	DD	01H
	DD	FLAT:__catchsym$??0?$vector@KV?$allocator@K@std@@@std@@QAE@ABV01@@Z$2
__ehfuncinfo$??0?$vector@KV?$allocator@K@std@@@std@@QAE@ABV01@@Z DD 019930522H
	DD	02H
	DD	FLAT:__unwindtable$??0?$vector@KV?$allocator@K@std@@@std@@QAE@ABV01@@Z
	DD	01H
	DD	FLAT:__tryblocktable$??0?$vector@KV?$allocator@K@std@@@std@@QAE@ABV01@@Z
	DD	2 DUP(00H)
	DD	00H
	DD	01H
; Function compile flags: /Ogsp
; File c:\program files (x86)\microsoft visual studio 10.0\vc\include\vector
xdata$x	ENDS
;	COMDAT ??0?$vector@KV?$allocator@K@std@@@std@@QAE@ABV01@@Z
_TEXT	SEGMENT
_this$ = -20						; size = 4
__$EHRec$ = -16						; size = 16
__Cat$542218 = 8					; size = 1
__Right$ = 8						; size = 4
??0?$vector@KV?$allocator@K@std@@@std@@QAE@ABV01@@Z PROC ; std::vector<unsigned long,std::allocator<unsigned long> >::vector<unsigned long,std::allocator<unsigned long> >, COMDAT
; _this$ = ecx

; 535  : 		{	// construct by copying _Right

  00000	6a 08		 push	 8
  00002	b8 00 00 00 00	 mov	 eax, __ehhandler$??0?$vector@KV?$allocator@K@std@@@std@@QAE@ABV01@@Z
  00007	e8 00 00 00 00	 call	 __EH_prolog3_catch
  0000c	8b f1		 mov	 esi, ecx
  0000e	89 75 ec	 mov	 DWORD PTR _this$[ebp], esi

; 536  : 		if (_Buy(_Right.size()))

  00011	8b 7d 08	 mov	 edi, DWORD PTR __Right$[ebp]
  00014	33 db		 xor	 ebx, ebx
  00016	89 1e		 mov	 DWORD PTR [esi], ebx
  00018	89 5e 04	 mov	 DWORD PTR [esi+4], ebx
  0001b	89 5e 08	 mov	 DWORD PTR [esi+8], ebx
  0001e	8b 47 04	 mov	 eax, DWORD PTR [edi+4]
  00021	2b 07		 sub	 eax, DWORD PTR [edi]
  00023	c1 f8 02	 sar	 eax, 2
  00026	50		 push	 eax
  00027	e8 00 00 00 00	 call	 ?_Buy@?$vector@KV?$allocator@K@std@@@std@@IAE_NI@Z ; std::vector<unsigned long,std::allocator<unsigned long> >::_Buy
  0002c	84 c0		 test	 al, al
  0002e	74 1f		 je	 SHORT $LN7@vector@2

; 537  : 			_TRY_BEGIN
; 538  : 			this->_Mylast = _Ucopy(_Right.begin(), _Right.end(),
; 539  : 				this->_Myfirst);

  00030	ff 75 08	 push	 DWORD PTR __Cat$542218[ebp]
  00033	8b 0e		 mov	 ecx, DWORD PTR [esi]
  00035	8b 47 04	 mov	 eax, DWORD PTR [edi+4]
  00038	8b 3f		 mov	 edi, DWORD PTR [edi]
  0003a	8d 56 0c	 lea	 edx, DWORD PTR [esi+12]
  0003d	52		 push	 edx
  0003e	51		 push	 ecx
  0003f	50		 push	 eax
  00040	57		 push	 edi
  00041	89 5d fc	 mov	 DWORD PTR __$EHRec$[ebp+12], ebx
  00044	e8 00 00 00 00	 call	 ??$_Uninit_copy@V?$_Vector_const_iterator@V?$_Vector_val@KV?$allocator@K@std@@@std@@@std@@PAKV?$allocator@K@2@@std@@YAPAKV?$_Vector_const_iterator@V?$_Vector_val@KV?$allocator@K@std@@@std@@@0@0PAKAAV?$allocator@K@0@U_Nonscalar_ptr_iterator_tag@0@@Z ; std::_Uninit_copy<std::_Vector_const_iterator<std::_Vector_val<unsigned long,std::allocator<unsigned long> > >,unsigned long *,std::allocator<unsigned long> >
  00049	83 c4 14	 add	 esp, 20			; 00000014H
  0004c	89 46 04	 mov	 DWORD PTR [esi+4], eax
$LN7@vector@2:

; 543  : 			_CATCH_END
; 544  : 		}

  0004f	8b c6		 mov	 eax, esi
  00051	e8 00 00 00 00	 call	 __EH_epilog3
  00056	c2 04 00	 ret	 4
__catch$??0?$vector@KV?$allocator@K@std@@@std@@QAE@ABV01@@Z$0:

; 540  : 			_CATCH_ALL
; 541  : 			_Tidy();

  00059	8b 4d ec	 mov	 ecx, DWORD PTR _this$[ebp]
  0005c	e8 00 00 00 00	 call	 ?_Tidy@?$vector@KV?$allocator@K@std@@@std@@IAEXXZ ; std::vector<unsigned long,std::allocator<unsigned long> >::_Tidy

; 542  : 			_RERAISE;

  00061	33 db		 xor	 ebx, ebx
  00063	53		 push	 ebx
  00064	53		 push	 ebx
  00065	e8 00 00 00 00	 call	 __CxxThrowException@8
$LN38@vector@2:
$LN37@vector@2:
  0006a	cc		 int	 3
_TEXT	ENDS
;	COMDAT text$x
text$x	SEGMENT
__ehhandler$??0?$vector@KV?$allocator@K@std@@@std@@QAE@ABV01@@Z:
  00000	8b 54 24 08	 mov	 edx, DWORD PTR [esp+8]
  00004	8d 42 0c	 lea	 eax, DWORD PTR [edx+12]
  00007	8b 4a e8	 mov	 ecx, DWORD PTR [edx-24]
  0000a	33 c8		 xor	 ecx, eax
  0000c	e8 00 00 00 00	 call	 @__security_check_cookie@4
  00011	b8 00 00 00 00	 mov	 eax, OFFSET __ehfuncinfo$??0?$vector@KV?$allocator@K@std@@@std@@QAE@ABV01@@Z
  00016	e9 00 00 00 00	 jmp	 ___CxxFrameHandler3
text$x	ENDS
??0?$vector@KV?$allocator@K@std@@@std@@QAE@ABV01@@Z ENDP ; std::vector<unsigned long,std::allocator<unsigned long> >::vector<unsigned long,std::allocator<unsigned long> >
PUBLIC	??$_Construct@V?$basic_string@DU?$char_traits@D@std@@V?$allocator@D@2@@std@@ABV12@@std@@YAXPAV?$basic_string@DU?$char_traits@D@std@@V?$allocator@D@2@@0@ABV10@@Z ; std::_Construct<std::basic_string<char,std::char_traits<char>,std::allocator<char> >,std::basic_string<char,std::char_traits<char>,std::allocator<char> > const &>
EXTRN	__EH_prolog3:PROC
;	COMDAT xdata$x
; File c:\program files (x86)\microsoft visual studio 10.0\vc\include\utility
xdata$x	SEGMENT
__unwindtable$??$_Construct@V?$basic_string@DU?$char_traits@D@std@@V?$allocator@D@2@@std@@ABV12@@std@@YAXPAV?$basic_string@DU?$char_traits@D@std@@V?$allocator@D@2@@0@ABV10@@Z DD 0ffffffffH
	DD	FLAT:__unwindfunclet$??$_Construct@V?$basic_string@DU?$char_traits@D@std@@V?$allocator@D@2@@std@@ABV12@@std@@YAXPAV?$basic_string@DU?$char_traits@D@std@@V?$allocator@D@2@@0@ABV10@@Z$0
__ehfuncinfo$??$_Construct@V?$basic_string@DU?$char_traits@D@std@@V?$allocator@D@2@@std@@ABV12@@std@@YAXPAV?$basic_string@DU?$char_traits@D@std@@V?$allocator@D@2@@0@ABV10@@Z DD 019930522H
	DD	01H
	DD	FLAT:__unwindtable$??$_Construct@V?$basic_string@DU?$char_traits@D@std@@V?$allocator@D@2@@std@@ABV12@@std@@YAXPAV?$basic_string@DU?$char_traits@D@std@@V?$allocator@D@2@@0@ABV10@@Z
	DD	2 DUP(00H)
	DD	2 DUP(00H)
	DD	00H
	DD	01H
; Function compile flags: /Ogsp
; File c:\program files (x86)\microsoft visual studio 10.0\vc\include\xmemory
xdata$x	ENDS
;	COMDAT ??$_Construct@V?$basic_string@DU?$char_traits@D@std@@V?$allocator@D@2@@std@@ABV12@@std@@YAXPAV?$basic_string@DU?$char_traits@D@std@@V?$allocator@D@2@@0@ABV10@@Z
_TEXT	SEGMENT
$T542237 = -16						; size = 4
__$EHRec$ = -12						; size = 12
__Vptr$ = 8						; size = 4
__Ptr$ = 8						; size = 4
__Val$ = 12						; size = 4
??$_Construct@V?$basic_string@DU?$char_traits@D@std@@V?$allocator@D@2@@std@@ABV12@@std@@YAXPAV?$basic_string@DU?$char_traits@D@std@@V?$allocator@D@2@@0@ABV10@@Z PROC ; std::_Construct<std::basic_string<char,std::char_traits<char>,std::allocator<char> >,std::basic_string<char,std::char_traits<char>,std::allocator<char> > const &>, COMDAT

; 46   : 	{	// construct object at _Ptr with value _Val

  00000	6a 04		 push	 4
  00002	b8 00 00 00 00	 mov	 eax, __ehhandler$??$_Construct@V?$basic_string@DU?$char_traits@D@std@@V?$allocator@D@2@@std@@ABV12@@std@@YAXPAV?$basic_string@DU?$char_traits@D@std@@V?$allocator@D@2@@0@ABV10@@Z
  00007	e8 00 00 00 00	 call	 __EH_prolog3

; 47   : 	void _FARQ *_Vptr = _Ptr;

  0000c	8b 4d 08	 mov	 ecx, DWORD PTR __Ptr$[ebp]
  0000f	89 4d 08	 mov	 DWORD PTR __Vptr$[ebp], ecx

; 48   : 	::new (_Vptr) _Ty1(_STD forward<_Ty2>(_Val));

  00012	89 4d f0	 mov	 DWORD PTR $T542237[ebp], ecx
  00015	83 65 fc 00	 and	 DWORD PTR __$EHRec$[ebp+8], 0
  00019	85 c9		 test	 ecx, ecx
  0001b	74 08		 je	 SHORT $LN3@Construct@3
  0001d	ff 75 0c	 push	 DWORD PTR __Val$[ebp]
  00020	e8 00 00 00 00	 call	 ??0?$basic_string@DU?$char_traits@D@std@@V?$allocator@D@2@@std@@QAE@ABV01@@Z ; std::basic_string<char,std::char_traits<char>,std::allocator<char> >::basic_string<char,std::char_traits<char>,std::allocator<char> >
$LN3@Construct@3:

; 49   : 	}

  00025	e8 00 00 00 00	 call	 __EH_epilog3
  0002a	c3		 ret	 0
_TEXT	ENDS
;	COMDAT text$x
text$x	SEGMENT
__unwindfunclet$??$_Construct@V?$basic_string@DU?$char_traits@D@std@@V?$allocator@D@2@@std@@ABV12@@std@@YAXPAV?$basic_string@DU?$char_traits@D@std@@V?$allocator@D@2@@0@ABV10@@Z$0:
  00000	ff 75 08	 push	 DWORD PTR __Vptr$[ebp]
  00003	ff 75 f0	 push	 DWORD PTR $T542237[ebp]
  00006	e8 00 00 00 00	 call	 ??3@YAXPAX0@Z		; operator delete
  0000b	59		 pop	 ecx
  0000c	59		 pop	 ecx
  0000d	c3		 ret	 0
__ehhandler$??$_Construct@V?$basic_string@DU?$char_traits@D@std@@V?$allocator@D@2@@std@@ABV12@@std@@YAXPAV?$basic_string@DU?$char_traits@D@std@@V?$allocator@D@2@@0@ABV10@@Z:
  0000e	8b 54 24 08	 mov	 edx, DWORD PTR [esp+8]
  00012	8d 42 0c	 lea	 eax, DWORD PTR [edx+12]
  00015	8b 4a ec	 mov	 ecx, DWORD PTR [edx-20]
  00018	33 c8		 xor	 ecx, eax
  0001a	e8 00 00 00 00	 call	 @__security_check_cookie@4
  0001f	b8 00 00 00 00	 mov	 eax, OFFSET __ehfuncinfo$??$_Construct@V?$basic_string@DU?$char_traits@D@std@@V?$allocator@D@2@@std@@ABV12@@std@@YAXPAV?$basic_string@DU?$char_traits@D@std@@V?$allocator@D@2@@0@ABV10@@Z
  00024	e9 00 00 00 00	 jmp	 ___CxxFrameHandler3
text$x	ENDS
??$_Construct@V?$basic_string@DU?$char_traits@D@std@@V?$allocator@D@2@@std@@ABV12@@std@@YAXPAV?$basic_string@DU?$char_traits@D@std@@V?$allocator@D@2@@0@ABV10@@Z ENDP ; std::_Construct<std::basic_string<char,std::char_traits<char>,std::allocator<char> >,std::basic_string<char,std::char_traits<char>,std::allocator<char> > const &>
PUBLIC	??0?$basic_string@DU?$char_traits@D@std@@V?$allocator@D@2@@std@@QAE@PBD@Z ; std::basic_string<char,std::char_traits<char>,std::allocator<char> >::basic_string<char,std::char_traits<char>,std::allocator<char> >
; Function compile flags: /Ogsp
; File c:\program files (x86)\microsoft visual studio 10.0\vc\include\xstring
;	COMDAT ??0?$basic_string@DU?$char_traits@D@std@@V?$allocator@D@2@@std@@QAE@PBD@Z
_TEXT	SEGMENT
__Ptr$ = 8						; size = 4
??0?$basic_string@DU?$char_traits@D@std@@V?$allocator@D@2@@std@@QAE@PBD@Z PROC ; std::basic_string<char,std::char_traits<char>,std::allocator<char> >::basic_string<char,std::char_traits<char>,std::allocator<char> >, COMDAT
; _this$ = ecx

; 592  : 		{	// construct from [_Ptr, <null>)

  00000	55		 push	 ebp
  00001	8b ec		 mov	 ebp, esp
  00003	56		 push	 esi

; 593  : 		_Tidy();
; 594  : 		assign(_Ptr);

  00004	ff 75 08	 push	 DWORD PTR __Ptr$[ebp]
  00007	8b f1		 mov	 esi, ecx
  00009	83 66 10 00	 and	 DWORD PTR [esi+16], 0
  0000d	c7 46 14 0f 00
	00 00		 mov	 DWORD PTR [esi+20], 15	; 0000000fH
  00014	c6 06 00	 mov	 BYTE PTR [esi], 0
  00017	e8 00 00 00 00	 call	 ?assign@?$basic_string@DU?$char_traits@D@std@@V?$allocator@D@2@@std@@QAEAAV12@PBD@Z ; std::basic_string<char,std::char_traits<char>,std::allocator<char> >::assign

; 595  : 		}

  0001c	8b c6		 mov	 eax, esi
  0001e	5e		 pop	 esi
  0001f	5d		 pop	 ebp
  00020	c2 04 00	 ret	 4
??0?$basic_string@DU?$char_traits@D@std@@V?$allocator@D@2@@std@@QAE@PBD@Z ENDP ; std::basic_string<char,std::char_traits<char>,std::allocator<char> >::basic_string<char,std::char_traits<char>,std::allocator<char> >
_TEXT	ENDS
PUBLIC	??4?$basic_string@DU?$char_traits@D@std@@V?$allocator@D@2@@std@@QAEAAV01@ABV01@@Z ; std::basic_string<char,std::char_traits<char>,std::allocator<char> >::operator=
; Function compile flags: /Ogsp
;	COMDAT ??4?$basic_string@DU?$char_traits@D@std@@V?$allocator@D@2@@std@@QAEAAV01@ABV01@@Z
_TEXT	SEGMENT
__Right$ = 8						; size = 4
??4?$basic_string@DU?$char_traits@D@std@@V?$allocator@D@2@@std@@QAEAAV01@ABV01@@Z PROC ; std::basic_string<char,std::char_traits<char>,std::allocator<char> >::operator=, COMDAT
; _this$ = ecx

; 763  : 		{	// assign _Right

  00000	55		 push	 ebp
  00001	8b ec		 mov	 ebp, esp

; 764  : 		return (assign(_Right));

  00003	6a ff		 push	 -1
  00005	6a 00		 push	 0
  00007	ff 75 08	 push	 DWORD PTR __Right$[ebp]
  0000a	e8 00 00 00 00	 call	 ?assign@?$basic_string@DU?$char_traits@D@std@@V?$allocator@D@2@@std@@QAEAAV12@ABV12@II@Z ; std::basic_string<char,std::char_traits<char>,std::allocator<char> >::assign

; 765  : 		}

  0000f	5d		 pop	 ebp
  00010	c2 04 00	 ret	 4
??4?$basic_string@DU?$char_traits@D@std@@V?$allocator@D@2@@std@@QAEAAV01@ABV01@@Z ENDP ; std::basic_string<char,std::char_traits<char>,std::allocator<char> >::operator=
_TEXT	ENDS
PUBLIC	?assign@?$basic_string@DU?$char_traits@D@std@@V?$allocator@D@2@@std@@QAEAAV12@$$QAV12@@Z ; std::basic_string<char,std::char_traits<char>,std::allocator<char> >::assign
; Function compile flags: /Ogsp
;	COMDAT ?assign@?$basic_string@DU?$char_traits@D@std@@V?$allocator@D@2@@std@@QAEAAV12@$$QAV12@@Z
_TEXT	SEGMENT
__Right$ = 8						; size = 4
?assign@?$basic_string@DU?$char_traits@D@std@@V?$allocator@D@2@@std@@QAEAAV12@$$QAV12@@Z PROC ; std::basic_string<char,std::char_traits<char>,std::allocator<char> >::assign, COMDAT
; _this$ = ecx

; 713  : 		{	// assign by moving _Right

  00000	55		 push	 ebp
  00001	8b ec		 mov	 ebp, esp
  00003	56		 push	 esi

; 714  : 		if (this == &_Right)

  00004	8b 75 08	 mov	 esi, DWORD PTR __Right$[ebp]
  00007	57		 push	 edi
  00008	8b f9		 mov	 edi, ecx
  0000a	3b fe		 cmp	 edi, esi
  0000c	74 3c		 je	 SHORT $LN3@assign@4

; 715  : 			;
; 716  : 		else if (get_allocator() != _Right.get_allocator()
; 717  : 			&& this->_BUF_SIZE <= _Right._Myres)
; 718  : 			*this = _Right;
; 719  : 		else
; 720  : 			{	// not same, clear this and steal from _Right
; 721  : 			_Tidy(true);

  0000e	6a 00		 push	 0
  00010	6a 01		 push	 1
  00012	e8 00 00 00 00	 call	 ?_Tidy@?$basic_string@DU?$char_traits@D@std@@V?$allocator@D@2@@std@@QAEX_NI@Z ; std::basic_string<char,std::char_traits<char>,std::allocator<char> >::_Tidy

; 722  : 			if (_Right._Myres < this->_BUF_SIZE)

  00017	83 7e 14 10	 cmp	 DWORD PTR [esi+20], 16	; 00000010H
  0001b	73 12		 jae	 SHORT $LN2@assign@4

; 723  : 				_Traits::move(this->_Bx._Buf, _Right._Bx._Buf,
; 724  : 					_Right._Mysize + 1);

  0001d	8b 46 10	 mov	 eax, DWORD PTR [esi+16]
  00020	40		 inc	 eax
  00021	50		 push	 eax
  00022	56		 push	 esi
  00023	57		 push	 edi
  00024	ff 15 00 00 00
	00		 call	 DWORD PTR __imp__memmove
  0002a	83 c4 0c	 add	 esp, 12			; 0000000cH

; 725  : 			else

  0002d	eb 07		 jmp	 SHORT $LN1@assign@4
$LN2@assign@4:

; 726  : 				{	// copy pointer
; 727  : 				this->_Bx._Ptr = _Right._Bx._Ptr;

  0002f	8b 06		 mov	 eax, DWORD PTR [esi]
  00031	89 07		 mov	 DWORD PTR [edi], eax

; 728  : 				_Right._Bx._Ptr = 0;

  00033	83 26 00	 and	 DWORD PTR [esi], 0
$LN1@assign@4:

; 729  : 				}
; 730  : 			this->_Mysize = _Right._Mysize;

  00036	8b 46 10	 mov	 eax, DWORD PTR [esi+16]
  00039	89 47 10	 mov	 DWORD PTR [edi+16], eax

; 731  : 			this->_Myres = _Right._Myres;

  0003c	8b 46 14	 mov	 eax, DWORD PTR [esi+20]
  0003f	89 47 14	 mov	 DWORD PTR [edi+20], eax

; 732  : 
; 733  : 			_Right._Mysize = 0;

  00042	83 66 10 00	 and	 DWORD PTR [esi+16], 0

; 734  : 			_Right._Myres = 0;

  00046	83 66 14 00	 and	 DWORD PTR [esi+20], 0
$LN3@assign@4:

; 735  : 			}
; 736  : 		return (*this);

  0004a	8b c7		 mov	 eax, edi
  0004c	5f		 pop	 edi
  0004d	5e		 pop	 esi

; 737  : 		}

  0004e	5d		 pop	 ebp
  0004f	c2 04 00	 ret	 4
?assign@?$basic_string@DU?$char_traits@D@std@@V?$allocator@D@2@@std@@QAEAAV12@$$QAV12@@Z ENDP ; std::basic_string<char,std::char_traits<char>,std::allocator<char> >::assign
_TEXT	ENDS
PUBLIC	??$_Dest_val@V?$allocator@V?$basic_string@DU?$char_traits@D@std@@V?$allocator@D@2@@std@@@std@@V?$basic_string@DU?$char_traits@D@std@@V?$allocator@D@2@@2@@std@@YAXAAV?$allocator@V?$basic_string@DU?$char_traits@D@std@@V?$allocator@D@2@@std@@@0@PAV?$basic_string@DU?$char_traits@D@std@@V?$allocator@D@2@@0@@Z ; std::_Dest_val<std::allocator<std::basic_string<char,std::char_traits<char>,std::allocator<char> > >,std::basic_string<char,std::char_traits<char>,std::allocator<char> > >
; Function compile flags: /Ogsp
; File c:\program files (x86)\microsoft visual studio 10.0\vc\include\xmemory
;	COMDAT ??$_Dest_val@V?$allocator@V?$basic_string@DU?$char_traits@D@std@@V?$allocator@D@2@@std@@@std@@V?$basic_string@DU?$char_traits@D@std@@V?$allocator@D@2@@2@@std@@YAXAAV?$allocator@V?$basic_string@DU?$char_traits@D@std@@V?$allocator@D@2@@std@@@0@PAV?$basic_string@DU?$char_traits@D@std@@V?$allocator@D@2@@0@@Z
_TEXT	SEGMENT
__Alval$ = 8						; size = 4
__Pdest$ = 12						; size = 4
??$_Dest_val@V?$allocator@V?$basic_string@DU?$char_traits@D@std@@V?$allocator@D@2@@std@@@std@@V?$basic_string@DU?$char_traits@D@std@@V?$allocator@D@2@@2@@std@@YAXAAV?$allocator@V?$basic_string@DU?$char_traits@D@std@@V?$allocator@D@2@@std@@@0@PAV?$basic_string@DU?$char_traits@D@std@@V?$allocator@D@2@@0@@Z PROC ; std::_Dest_val<std::allocator<std::basic_string<char,std::char_traits<char>,std::allocator<char> > >,std::basic_string<char,std::char_traits<char>,std::allocator<char> > >, COMDAT

; 286  : 	{	// destroy using allocator

  00000	55		 push	 ebp
  00001	8b ec		 mov	 ebp, esp

; 287  : 	_Alval.destroy(_Pdest);

  00003	8b 4d 0c	 mov	 ecx, DWORD PTR __Pdest$[ebp]
  00006	6a 00		 push	 0
  00008	6a 01		 push	 1
  0000a	e8 00 00 00 00	 call	 ?_Tidy@?$basic_string@DU?$char_traits@D@std@@V?$allocator@D@2@@std@@QAEX_NI@Z ; std::basic_string<char,std::char_traits<char>,std::allocator<char> >::_Tidy

; 288  : 	}

  0000f	5d		 pop	 ebp
  00010	c3		 ret	 0
??$_Dest_val@V?$allocator@V?$basic_string@DU?$char_traits@D@std@@V?$allocator@D@2@@std@@@std@@V?$basic_string@DU?$char_traits@D@std@@V?$allocator@D@2@@2@@std@@YAXAAV?$allocator@V?$basic_string@DU?$char_traits@D@std@@V?$allocator@D@2@@std@@@0@PAV?$basic_string@DU?$char_traits@D@std@@V?$allocator@D@2@@0@@Z ENDP ; std::_Dest_val<std::allocator<std::basic_string<char,std::char_traits<char>,std::allocator<char> > >,std::basic_string<char,std::char_traits<char>,std::allocator<char> > >
_TEXT	ENDS
PUBLIC	??0DefenseList@ioDefenseController@@QAE@XZ	; ioDefenseController::DefenseList::DefenseList
; Function compile flags: /Ogsp
; File d:\lost saga for developer\youtube\tutorial\source\src\lsclient\iodefensecontroller.h
;	COMDAT ??0DefenseList@ioDefenseController@@QAE@XZ
_TEXT	SEGMENT
??0DefenseList@ioDefenseController@@QAE@XZ PROC		; ioDefenseController::DefenseList::DefenseList, COMDAT
; _this$ = ecx

; 26   : 		{
; 27   : 			m_fDefenseRate = m_fDefenseRange = m_fDefenseDirection = 0.0f;

  00000	0f 57 c0	 xorps	 xmm0, xmm0
  00003	8b c1		 mov	 eax, ecx
  00005	33 c9		 xor	 ecx, ecx
  00007	89 08		 mov	 DWORD PTR [eax], ecx
  00009	89 48 04	 mov	 DWORD PTR [eax+4], ecx
  0000c	89 48 08	 mov	 DWORD PTR [eax+8], ecx
  0000f	89 48 10	 mov	 DWORD PTR [eax+16], ecx
  00012	89 48 14	 mov	 DWORD PTR [eax+20], ecx
  00015	89 48 18	 mov	 DWORD PTR [eax+24], ecx
  00018	f3 0f 11 40 28	 movss	 DWORD PTR [eax+40], xmm0
  0001d	f3 0f 11 40 24	 movss	 DWORD PTR [eax+36], xmm0
  00022	f3 0f 11 40 20	 movss	 DWORD PTR [eax+32], xmm0

; 28   : 		}

  00027	c3		 ret	 0
??0DefenseList@ioDefenseController@@QAE@XZ ENDP		; ioDefenseController::DefenseList::DefenseList
_TEXT	ENDS
PUBLIC	??1DefenseList@ioDefenseController@@QAE@XZ	; ioDefenseController::DefenseList::~DefenseList
;	COMDAT xdata$x
xdata$x	SEGMENT
__unwindtable$??1DefenseList@ioDefenseController@@QAE@XZ DD 0ffffffffH
	DD	FLAT:__unwindfunclet$??1DefenseList@ioDefenseController@@QAE@XZ$0
__ehfuncinfo$??1DefenseList@ioDefenseController@@QAE@XZ DD 019930522H
	DD	01H
	DD	FLAT:__unwindtable$??1DefenseList@ioDefenseController@@QAE@XZ
	DD	2 DUP(00H)
	DD	2 DUP(00H)
	DD	00H
	DD	01H
; Function compile flags: /Ogsp
xdata$x	ENDS
;	COMDAT ??1DefenseList@ioDefenseController@@QAE@XZ
_TEXT	SEGMENT
_this$ = -16						; size = 4
__$EHRec$ = -12						; size = 12
??1DefenseList@ioDefenseController@@QAE@XZ PROC		; ioDefenseController::DefenseList::~DefenseList, COMDAT
; _this$ = ecx
  00000	6a 04		 push	 4
  00002	b8 00 00 00 00	 mov	 eax, __ehhandler$??1DefenseList@ioDefenseController@@QAE@XZ
  00007	e8 00 00 00 00	 call	 __EH_prolog3
  0000c	8b f1		 mov	 esi, ecx
  0000e	89 75 f0	 mov	 DWORD PTR _this$[ebp], esi
  00011	83 65 fc 00	 and	 DWORD PTR __$EHRec$[ebp+8], 0
  00015	8d 4e 10	 lea	 ecx, DWORD PTR [esi+16]
  00018	e8 00 00 00 00	 call	 ?_Tidy@?$vector@KV?$allocator@K@std@@@std@@IAEXXZ ; std::vector<unsigned long,std::allocator<unsigned long> >::_Tidy
  0001d	83 4d fc ff	 or	 DWORD PTR __$EHRec$[ebp+8], -1
  00021	8b ce		 mov	 ecx, esi
  00023	e8 00 00 00 00	 call	 ?_Tidy@?$vector@UDefenseData@ioDefenseController@@V?$allocator@UDefenseData@ioDefenseController@@@std@@@std@@IAEXXZ ; std::vector<ioDefenseController::DefenseData,std::allocator<ioDefenseController::DefenseData> >::_Tidy
  00028	e8 00 00 00 00	 call	 __EH_epilog3
  0002d	c3		 ret	 0
_TEXT	ENDS
;	COMDAT text$x
text$x	SEGMENT
__unwindfunclet$??1DefenseList@ioDefenseController@@QAE@XZ$0:
  00000	8b 4d f0	 mov	 ecx, DWORD PTR _this$[ebp]
  00003	e9 00 00 00 00	 jmp	 ??1?$vector@UDefenseData@ioDefenseController@@V?$allocator@UDefenseData@ioDefenseController@@@std@@@std@@QAE@XZ ; std::vector<ioDefenseController::DefenseData,std::allocator<ioDefenseController::DefenseData> >::~vector<ioDefenseController::DefenseData,std::allocator<ioDefenseController::DefenseData> >
__ehhandler$??1DefenseList@ioDefenseController@@QAE@XZ:
  00008	8b 54 24 08	 mov	 edx, DWORD PTR [esp+8]
  0000c	8d 42 0c	 lea	 eax, DWORD PTR [edx+12]
  0000f	8b 4a ec	 mov	 ecx, DWORD PTR [edx-20]
  00012	33 c8		 xor	 ecx, eax
  00014	e8 00 00 00 00	 call	 @__security_check_cookie@4
  00019	b8 00 00 00 00	 mov	 eax, OFFSET __ehfuncinfo$??1DefenseList@ioDefenseController@@QAE@XZ
  0001e	e9 00 00 00 00	 jmp	 ___CxxFrameHandler3
text$x	ENDS
??1DefenseList@ioDefenseController@@QAE@XZ ENDP		; ioDefenseController::DefenseList::~DefenseList
PUBLIC	??1?$_Pair_base@$$CBKUDefenseList@ioDefenseController@@@std@@QAE@XZ ; std::_Pair_base<unsigned long const ,ioDefenseController::DefenseList>::~_Pair_base<unsigned long const ,ioDefenseController::DefenseList>
; Function compile flags: /Ogsp
;	COMDAT ??1?$_Pair_base@$$CBKUDefenseList@ioDefenseController@@@std@@QAE@XZ
_TEXT	SEGMENT
??1?$_Pair_base@$$CBKUDefenseList@ioDefenseController@@@std@@QAE@XZ PROC ; std::_Pair_base<unsigned long const ,ioDefenseController::DefenseList>::~_Pair_base<unsigned long const ,ioDefenseController::DefenseList>, COMDAT
; _this$ = ecx
  00000	83 c1 04	 add	 ecx, 4
  00003	e9 00 00 00 00	 jmp	 ??1DefenseList@ioDefenseController@@QAE@XZ
??1?$_Pair_base@$$CBKUDefenseList@ioDefenseController@@@std@@QAE@XZ ENDP ; std::_Pair_base<unsigned long const ,ioDefenseController::DefenseList>::~_Pair_base<unsigned long const ,ioDefenseController::DefenseList>
_TEXT	ENDS
PUBLIC	?OnDefenseAction@ioDefenseController@@QAE_NPAVioNpcChar@@PAVioBaseChar@@@Z ; ioDefenseController::OnDefenseAction
EXTRN	__imp_?GetLoopSec@ioFrameTimer@@QBEKXZ:PROC
EXTRN	__imp_?GetSingleton@ioFrameTimer@@SAAAV1@XZ:PROC
EXTRN	?SetActionKey@ioNpcChar@@QAEXGGG@Z:PROC		; ioNpcChar::SetActionKey
; Function compile flags: /Ogsp
; File d:\lost saga for developer\youtube\tutorial\source\src\lsclient\iodefensecontroller.cpp
;	COMDAT ?OnDefenseAction@ioDefenseController@@QAE_NPAVioNpcChar@@PAVioBaseChar@@@Z
_TEXT	SEGMENT
_this$ = -4						; size = 4
$T542493 = 8						; size = 4
_pOwner$ = 8						; size = 4
_pTarget$ = 12						; size = 4
?OnDefenseAction@ioDefenseController@@QAE_NPAVioNpcChar@@PAVioBaseChar@@@Z PROC ; ioDefenseController::OnDefenseAction, COMDAT
; _this$ = ecx

; 272  : {

  00000	55		 push	 ebp
  00001	8b ec		 mov	 ebp, esp
  00003	51		 push	 ecx
  00004	56		 push	 esi

; 273  : 	if( m_CurDefense.m_Defense.empty() ) return false;

  00005	8d 71 14	 lea	 esi, DWORD PTR [ecx+20]
  00008	8b 06		 mov	 eax, DWORD PTR [esi]
  0000a	89 4d fc	 mov	 DWORD PTR _this$[ebp], ecx
  0000d	3b 46 04	 cmp	 eax, DWORD PTR [esi+4]
  00010	75 04		 jne	 SHORT $LN2@OnDefenseA
  00012	32 c0		 xor	 al, al
  00014	eb 50		 jmp	 SHORT $LN3@OnDefenseA
$LN2@OnDefenseA:

; 274  : 
; 275  : 	DefenseData &rkData = m_CurDefense.m_Defense[0];
; 276  : 	{
; 277  : 		pOwner->SetActionKey( rkData.m_wKeyData, KEY_NONE, KEY_NONE );

  00016	8b 4d 08	 mov	 ecx, DWORD PTR _pOwner$[ebp]
  00019	53		 push	 ebx
  0001a	57		 push	 edi
  0001b	8b f8		 mov	 edi, eax
  0001d	0f b7 07	 movzx	 eax, WORD PTR [edi]
  00020	6a 00		 push	 0
  00022	6a 00		 push	 0
  00024	50		 push	 eax
  00025	e8 00 00 00 00	 call	 ?SetActionKey@ioNpcChar@@QAEXGGG@Z ; ioNpcChar::SetActionKey

; 278  : 		if( FRAMEGETTIME() - m_dwCurrentTime > rkData.m_dwDelayTime )

  0002a	8b 1d 00 00 00
	00		 mov	 ebx, DWORD PTR __imp_?GetSingleton@ioFrameTimer@@SAAAV1@XZ
  00030	ff d3		 call	 ebx
  00032	8b c8		 mov	 ecx, eax
  00034	ff 15 00 00 00
	00		 call	 DWORD PTR __imp_?GetLoopSec@ioFrameTimer@@QBEKXZ
  0003a	8b 4d fc	 mov	 ecx, DWORD PTR _this$[ebp]
  0003d	2b 41 40	 sub	 eax, DWORD PTR [ecx+64]
  00040	3b 47 04	 cmp	 eax, DWORD PTR [edi+4]
  00043	76 1d		 jbe	 SHORT $LN1@OnDefenseA

; 279  : 		{
; 280  : 			m_dwCurrentTime = FRAMEGETTIME();

  00045	ff d3		 call	 ebx
  00047	8b c8		 mov	 ecx, eax
  00049	ff 15 00 00 00
	00		 call	 DWORD PTR __imp_?GetLoopSec@ioFrameTimer@@QBEKXZ
  0004f	8b 4d fc	 mov	 ecx, DWORD PTR _this$[ebp]

; 281  : 			m_CurDefense.m_Defense.erase( m_CurDefense.m_Defense.begin() );

  00052	ff 36		 push	 DWORD PTR [esi]
  00054	89 41 40	 mov	 DWORD PTR [ecx+64], eax
  00057	8d 45 08	 lea	 eax, DWORD PTR $T542493[ebp]
  0005a	50		 push	 eax
  0005b	8b ce		 mov	 ecx, esi
  0005d	e8 00 00 00 00	 call	 ?erase@?$vector@UDefenseData@ioDefenseController@@V?$allocator@UDefenseData@ioDefenseController@@@std@@@std@@QAE?AV?$_Vector_iterator@V?$_Vector_val@UDefenseData@ioDefenseController@@V?$allocator@UDefenseData@ioDefenseController@@@std@@@std@@@2@V?$_Vector_const_iterator@V?$_Vector_val@UDefenseData@ioDefenseController@@V?$allocator@UDefenseData@ioDefenseController@@@std@@@std@@@2@@Z ; std::vector<ioDefenseController::DefenseData,std::allocator<ioDefenseController::DefenseData> >::erase
$LN1@OnDefenseA:

; 282  : 		}
; 283  : 	}			
; 284  : 	return true;

  00062	5f		 pop	 edi
  00063	b0 01		 mov	 al, 1
  00065	5b		 pop	 ebx
$LN3@OnDefenseA:
  00066	5e		 pop	 esi

; 285  : }

  00067	c9		 leave
  00068	c2 08 00	 ret	 8
?OnDefenseAction@ioDefenseController@@QAE_NPAVioNpcChar@@PAVioBaseChar@@@Z ENDP ; ioDefenseController::OnDefenseAction
_TEXT	ENDS
PUBLIC	?clear@?$vector@UDefenseData@ioDefenseController@@V?$allocator@UDefenseData@ioDefenseController@@@std@@@std@@QAEXXZ ; std::vector<ioDefenseController::DefenseData,std::allocator<ioDefenseController::DefenseData> >::clear
; Function compile flags: /Ogsp
; File c:\program files (x86)\microsoft visual studio 10.0\vc\include\vector
;	COMDAT ?clear@?$vector@UDefenseData@ioDefenseController@@V?$allocator@UDefenseData@ioDefenseController@@@std@@@std@@QAEXXZ
_TEXT	SEGMENT
$T542532 = -4						; size = 4
?clear@?$vector@UDefenseData@ioDefenseController@@V?$allocator@UDefenseData@ioDefenseController@@@std@@@std@@QAEXXZ PROC ; std::vector<ioDefenseController::DefenseData,std::allocator<ioDefenseController::DefenseData> >::clear, COMDAT
; _this$ = ecx

; 1217 : 		{	// erase all

  00000	55		 push	 ebp
  00001	8b ec		 mov	 ebp, esp
  00003	51		 push	 ecx

; 1218 : 		erase(begin(), end());

  00004	8b 41 04	 mov	 eax, DWORD PTR [ecx+4]
  00007	8b 11		 mov	 edx, DWORD PTR [ecx]
  00009	50		 push	 eax
  0000a	52		 push	 edx
  0000b	8d 45 fc	 lea	 eax, DWORD PTR $T542532[ebp]
  0000e	50		 push	 eax
  0000f	e8 00 00 00 00	 call	 ?erase@?$vector@UDefenseData@ioDefenseController@@V?$allocator@UDefenseData@ioDefenseController@@@std@@@std@@QAE?AV?$_Vector_iterator@V?$_Vector_val@UDefenseData@ioDefenseController@@V?$allocator@UDefenseData@ioDefenseController@@@std@@@std@@@2@V?$_Vector_const_iterator@V?$_Vector_val@UDefenseData@ioDefenseController@@V?$allocator@UDefenseData@ioDefenseController@@@std@@@std@@@2@0@Z ; std::vector<ioDefenseController::DefenseData,std::allocator<ioDefenseController::DefenseData> >::erase

; 1219 : 		}

  00014	c9		 leave
  00015	c3		 ret	 0
?clear@?$vector@UDefenseData@ioDefenseController@@V?$allocator@UDefenseData@ioDefenseController@@@std@@@std@@QAEXXZ ENDP ; std::vector<ioDefenseController::DefenseData,std::allocator<ioDefenseController::DefenseData> >::clear
_TEXT	ENDS
PUBLIC	?_Reserve@?$vector@UDefenseData@ioDefenseController@@V?$allocator@UDefenseData@ioDefenseController@@@std@@@std@@IAEXI@Z ; std::vector<ioDefenseController::DefenseData,std::allocator<ioDefenseController::DefenseData> >::_Reserve
; Function compile flags: /Ogsp
;	COMDAT ?_Reserve@?$vector@UDefenseData@ioDefenseController@@V?$allocator@UDefenseData@ioDefenseController@@@std@@@std@@IAEXI@Z
_TEXT	SEGMENT
__Count$ = 8						; size = 4
?_Reserve@?$vector@UDefenseData@ioDefenseController@@V?$allocator@UDefenseData@ioDefenseController@@@std@@@std@@IAEXI@Z PROC ; std::vector<ioDefenseController::DefenseData,std::allocator<ioDefenseController::DefenseData> >::_Reserve, COMDAT
; _this$ = ecx

; 1290 : 		{	// ensure room for _Count new elements, grow exponentially

  00000	55		 push	 ebp
  00001	8b ec		 mov	 ebp, esp
  00003	56		 push	 esi
  00004	8b f1		 mov	 esi, ecx

; 1291 : 		size_type _Size = size();

  00006	8b 0e		 mov	 ecx, DWORD PTR [esi]
  00008	8b 46 04	 mov	 eax, DWORD PTR [esi+4]
  0000b	2b c1		 sub	 eax, ecx

; 1292 : 		if (max_size() - _Count < _Size)

  0000d	ba ff ff ff 1f	 mov	 edx, 536870911		; 1fffffffH
  00012	2b 55 08	 sub	 edx, DWORD PTR __Count$[ebp]
  00015	c1 f8 03	 sar	 eax, 3
  00018	3b d0		 cmp	 edx, eax
  0001a	73 0b		 jae	 SHORT $LN4@Reserve@2

; 1293 : 			_Xlen();

  0001c	68 00 00 00 00	 push	 OFFSET ??_C@_0BD@OLBABOEK@vector?$DMT?$DO?5too?5long?$AA@
  00021	ff 15 00 00 00
	00		 call	 DWORD PTR __imp_?_Xlength_error@std@@YAXPBD@Z
$LN21@Reserve@2:
$LN4@Reserve@2:

; 1294 : 		else if ((_Size += _Count) <= capacity())

  00027	8b 56 08	 mov	 edx, DWORD PTR [esi+8]
  0002a	03 45 08	 add	 eax, DWORD PTR __Count$[ebp]
  0002d	2b d1		 sub	 edx, ecx
  0002f	c1 fa 03	 sar	 edx, 3
  00032	3b c2		 cmp	 eax, edx
  00034	76 10		 jbe	 SHORT $LN1@Reserve@2

; 1295 : 			;
; 1296 : 		else
; 1297 : 			reserve(_Grow_to(_Size));

  00036	50		 push	 eax
  00037	8b ce		 mov	 ecx, esi
  00039	e8 00 00 00 00	 call	 ?_Grow_to@?$vector@UDefenseData@ioDefenseController@@V?$allocator@UDefenseData@ioDefenseController@@@std@@@std@@IBEII@Z ; std::vector<ioDefenseController::DefenseData,std::allocator<ioDefenseController::DefenseData> >::_Grow_to
  0003e	50		 push	 eax
  0003f	8b ce		 mov	 ecx, esi
  00041	e8 00 00 00 00	 call	 ?reserve@?$vector@UDefenseData@ioDefenseController@@V?$allocator@UDefenseData@ioDefenseController@@@std@@@std@@QAEXI@Z ; std::vector<ioDefenseController::DefenseData,std::allocator<ioDefenseController::DefenseData> >::reserve
$LN1@Reserve@2:
  00046	5e		 pop	 esi

; 1298 : 		}

  00047	5d		 pop	 ebp
  00048	c2 04 00	 ret	 4
$LN20@Reserve@2:
?_Reserve@?$vector@UDefenseData@ioDefenseController@@V?$allocator@UDefenseData@ioDefenseController@@@std@@@std@@IAEXI@Z ENDP ; std::vector<ioDefenseController::DefenseData,std::allocator<ioDefenseController::DefenseData> >::_Reserve
_TEXT	ENDS
PUBLIC	??0DefenseList@ioDefenseController@@QAE@ABU01@@Z ; ioDefenseController::DefenseList::DefenseList
;	COMDAT xdata$x
xdata$x	SEGMENT
__unwindtable$??0DefenseList@ioDefenseController@@QAE@ABU01@@Z DD 0ffffffffH
	DD	FLAT:__unwindfunclet$??0DefenseList@ioDefenseController@@QAE@ABU01@@Z$0
__ehfuncinfo$??0DefenseList@ioDefenseController@@QAE@ABU01@@Z DD 019930522H
	DD	01H
	DD	FLAT:__unwindtable$??0DefenseList@ioDefenseController@@QAE@ABU01@@Z
	DD	2 DUP(00H)
	DD	2 DUP(00H)
	DD	00H
	DD	01H
; Function compile flags: /Ogsp
xdata$x	ENDS
;	COMDAT ??0DefenseList@ioDefenseController@@QAE@ABU01@@Z
_TEXT	SEGMENT
_this$ = -16						; size = 4
__$EHRec$ = -12						; size = 12
___that$ = 8						; size = 4
??0DefenseList@ioDefenseController@@QAE@ABU01@@Z PROC	; ioDefenseController::DefenseList::DefenseList, COMDAT
; _this$ = ecx
  00000	6a 04		 push	 4
  00002	b8 00 00 00 00	 mov	 eax, __ehhandler$??0DefenseList@ioDefenseController@@QAE@ABU01@@Z
  00007	e8 00 00 00 00	 call	 __EH_prolog3
  0000c	8b f1		 mov	 esi, ecx
  0000e	89 75 f0	 mov	 DWORD PTR _this$[ebp], esi
  00011	8b 7d 08	 mov	 edi, DWORD PTR ___that$[ebp]
  00014	57		 push	 edi
  00015	e8 00 00 00 00	 call	 ??0?$vector@UDefenseData@ioDefenseController@@V?$allocator@UDefenseData@ioDefenseController@@@std@@@std@@QAE@ABV01@@Z ; std::vector<ioDefenseController::DefenseData,std::allocator<ioDefenseController::DefenseData> >::vector<ioDefenseController::DefenseData,std::allocator<ioDefenseController::DefenseData> >
  0001a	83 65 fc 00	 and	 DWORD PTR __$EHRec$[ebp+8], 0
  0001e	8d 47 10	 lea	 eax, DWORD PTR [edi+16]
  00021	50		 push	 eax
  00022	8d 4e 10	 lea	 ecx, DWORD PTR [esi+16]
  00025	e8 00 00 00 00	 call	 ??0?$vector@KV?$allocator@K@std@@@std@@QAE@ABV01@@Z ; std::vector<unsigned long,std::allocator<unsigned long> >::vector<unsigned long,std::allocator<unsigned long> >
  0002a	d9 47 20	 fld	 DWORD PTR [edi+32]
  0002d	d9 5e 20	 fstp	 DWORD PTR [esi+32]
  00030	8b c6		 mov	 eax, esi
  00032	d9 47 24	 fld	 DWORD PTR [edi+36]
  00035	d9 5e 24	 fstp	 DWORD PTR [esi+36]
  00038	d9 47 28	 fld	 DWORD PTR [edi+40]
  0003b	d9 5e 28	 fstp	 DWORD PTR [esi+40]
  0003e	e8 00 00 00 00	 call	 __EH_epilog3
  00043	c2 04 00	 ret	 4
_TEXT	ENDS
;	COMDAT text$x
text$x	SEGMENT
__unwindfunclet$??0DefenseList@ioDefenseController@@QAE@ABU01@@Z$0:
  00000	8b 4d f0	 mov	 ecx, DWORD PTR _this$[ebp]
  00003	e9 00 00 00 00	 jmp	 ??1?$vector@UDefenseData@ioDefenseController@@V?$allocator@UDefenseData@ioDefenseController@@@std@@@std@@QAE@XZ ; std::vector<ioDefenseController::DefenseData,std::allocator<ioDefenseController::DefenseData> >::~vector<ioDefenseController::DefenseData,std::allocator<ioDefenseController::DefenseData> >
__ehhandler$??0DefenseList@ioDefenseController@@QAE@ABU01@@Z:
  00008	8b 54 24 08	 mov	 edx, DWORD PTR [esp+8]
  0000c	8d 42 0c	 lea	 eax, DWORD PTR [edx+12]
  0000f	8b 4a ec	 mov	 ecx, DWORD PTR [edx-20]
  00012	33 c8		 xor	 ecx, eax
  00014	e8 00 00 00 00	 call	 @__security_check_cookie@4
  00019	b8 00 00 00 00	 mov	 eax, OFFSET __ehfuncinfo$??0DefenseList@ioDefenseController@@QAE@ABU01@@Z
  0001e	e9 00 00 00 00	 jmp	 ___CxxFrameHandler3
text$x	ENDS
??0DefenseList@ioDefenseController@@QAE@ABU01@@Z ENDP	; ioDefenseController::DefenseList::DefenseList
PUBLIC	?construct@?$allocator@V?$basic_string@DU?$char_traits@D@std@@V?$allocator@D@2@@std@@@std@@QAEXPAV?$basic_string@DU?$char_traits@D@std@@V?$allocator@D@2@@2@ABV32@@Z ; std::allocator<std::basic_string<char,std::char_traits<char>,std::allocator<char> > >::construct
; Function compile flags: /Ogsp
; File c:\program files (x86)\microsoft visual studio 10.0\vc\include\xmemory
;	COMDAT ?construct@?$allocator@V?$basic_string@DU?$char_traits@D@std@@V?$allocator@D@2@@std@@@std@@QAEXPAV?$basic_string@DU?$char_traits@D@std@@V?$allocator@D@2@@2@ABV32@@Z
_TEXT	SEGMENT
__Ptr$ = 8						; size = 4
__Val$ = 12						; size = 4
?construct@?$allocator@V?$basic_string@DU?$char_traits@D@std@@V?$allocator@D@2@@std@@@std@@QAEXPAV?$basic_string@DU?$char_traits@D@std@@V?$allocator@D@2@@2@ABV32@@Z PROC ; std::allocator<std::basic_string<char,std::char_traits<char>,std::allocator<char> > >::construct, COMDAT
; _this$ = ecx

; 196  : 		{	// construct object at _Ptr with value _Val

  00000	55		 push	 ebp
  00001	8b ec		 mov	 ebp, esp

; 197  : 		_Construct(_Ptr, _Val);

  00003	ff 75 0c	 push	 DWORD PTR __Val$[ebp]
  00006	ff 75 08	 push	 DWORD PTR __Ptr$[ebp]
  00009	e8 00 00 00 00	 call	 ??$_Construct@V?$basic_string@DU?$char_traits@D@std@@V?$allocator@D@2@@std@@ABV12@@std@@YAXPAV?$basic_string@DU?$char_traits@D@std@@V?$allocator@D@2@@0@ABV10@@Z ; std::_Construct<std::basic_string<char,std::char_traits<char>,std::allocator<char> >,std::basic_string<char,std::char_traits<char>,std::allocator<char> > const &>
  0000e	59		 pop	 ecx
  0000f	59		 pop	 ecx

; 198  : 		}

  00010	5d		 pop	 ebp
  00011	c2 08 00	 ret	 8
?construct@?$allocator@V?$basic_string@DU?$char_traits@D@std@@V?$allocator@D@2@@std@@@std@@QAEXPAV?$basic_string@DU?$char_traits@D@std@@V?$allocator@D@2@@2@ABV32@@Z ENDP ; std::allocator<std::basic_string<char,std::char_traits<char>,std::allocator<char> > >::construct
_TEXT	ENDS
PUBLIC	??0?$_Pair_base@$$CBKUDefenseList@ioDefenseController@@@std@@QAE@$$QBK$$QAUDefenseList@ioDefenseController@@@Z ; std::_Pair_base<unsigned long const ,ioDefenseController::DefenseList>::_Pair_base<unsigned long const ,ioDefenseController::DefenseList>
; Function compile flags: /Ogsp
; File c:\program files (x86)\microsoft visual studio 10.0\vc\include\utility
;	COMDAT ??0?$_Pair_base@$$CBKUDefenseList@ioDefenseController@@@std@@QAE@$$QBK$$QAUDefenseList@ioDefenseController@@@Z
_TEXT	SEGMENT
__Val1$ = 8						; size = 4
__Val2$ = 12						; size = 4
??0?$_Pair_base@$$CBKUDefenseList@ioDefenseController@@@std@@QAE@$$QBK$$QAUDefenseList@ioDefenseController@@@Z PROC ; std::_Pair_base<unsigned long const ,ioDefenseController::DefenseList>::_Pair_base<unsigned long const ,ioDefenseController::DefenseList>, COMDAT
; _this$ = ecx

; 145  : 		{	// construct from specified values

  00000	55		 push	 ebp
  00001	8b ec		 mov	 ebp, esp
  00003	8b 45 08	 mov	 eax, DWORD PTR __Val1$[ebp]
  00006	8b 00		 mov	 eax, DWORD PTR [eax]
  00008	56		 push	 esi
  00009	ff 75 0c	 push	 DWORD PTR __Val2$[ebp]
  0000c	8b f1		 mov	 esi, ecx
  0000e	8d 4e 04	 lea	 ecx, DWORD PTR [esi+4]
  00011	89 06		 mov	 DWORD PTR [esi], eax
  00013	e8 00 00 00 00	 call	 ??0DefenseList@ioDefenseController@@QAE@ABU01@@Z

; 146  : 		}

  00018	8b c6		 mov	 eax, esi
  0001a	5e		 pop	 esi
  0001b	5d		 pop	 ebp
  0001c	c2 08 00	 ret	 8
??0?$_Pair_base@$$CBKUDefenseList@ioDefenseController@@@std@@QAE@$$QBK$$QAUDefenseList@ioDefenseController@@@Z ENDP ; std::_Pair_base<unsigned long const ,ioDefenseController::DefenseList>::_Pair_base<unsigned long const ,ioDefenseController::DefenseList>
_TEXT	ENDS
PUBLIC	??4?$basic_string@DU?$char_traits@D@std@@V?$allocator@D@2@@std@@QAEAAV01@$$QAV01@@Z ; std::basic_string<char,std::char_traits<char>,std::allocator<char> >::operator=
; Function compile flags: /Ogsp
; File c:\program files (x86)\microsoft visual studio 10.0\vc\include\xstring
;	COMDAT ??4?$basic_string@DU?$char_traits@D@std@@V?$allocator@D@2@@std@@QAEAAV01@$$QAV01@@Z
_TEXT	SEGMENT
__Right$ = 8						; size = 4
??4?$basic_string@DU?$char_traits@D@std@@V?$allocator@D@2@@std@@QAEAAV01@$$QAV01@@Z PROC ; std::basic_string<char,std::char_traits<char>,std::allocator<char> >::operator=, COMDAT
; _this$ = ecx

; 708  : 		{	// assign by moving _Right

  00000	55		 push	 ebp
  00001	8b ec		 mov	 ebp, esp

; 710  : 		}

  00003	5d		 pop	 ebp

; 709  : 		return (assign(_STD forward<_Myt>(_Right)));

  00004	e9 00 00 00 00	 jmp	 ?assign@?$basic_string@DU?$char_traits@D@std@@V?$allocator@D@2@@std@@QAEAAV12@$$QAV12@@Z ; std::basic_string<char,std::char_traits<char>,std::allocator<char> >::assign
??4?$basic_string@DU?$char_traits@D@std@@V?$allocator@D@2@@std@@QAEAAV01@$$QAV01@@Z ENDP ; std::basic_string<char,std::char_traits<char>,std::allocator<char> >::operator=
_TEXT	ENDS
PUBLIC	??$_Destroy_range@V?$allocator@V?$basic_string@DU?$char_traits@D@std@@V?$allocator@D@2@@std@@@std@@@std@@YAXPAV?$basic_string@DU?$char_traits@D@std@@V?$allocator@D@2@@0@0AAV?$allocator@V?$basic_string@DU?$char_traits@D@std@@V?$allocator@D@2@@std@@@0@U_Nonscalar_ptr_iterator_tag@0@@Z ; std::_Destroy_range<std::allocator<std::basic_string<char,std::char_traits<char>,std::allocator<char> > > >
; Function compile flags: /Ogsp
; File c:\program files (x86)\microsoft visual studio 10.0\vc\include\xmemory
;	COMDAT ??$_Destroy_range@V?$allocator@V?$basic_string@DU?$char_traits@D@std@@V?$allocator@D@2@@std@@@std@@@std@@YAXPAV?$basic_string@DU?$char_traits@D@std@@V?$allocator@D@2@@0@0AAV?$allocator@V?$basic_string@DU?$char_traits@D@std@@V?$allocator@D@2@@std@@@0@U_Nonscalar_ptr_iterator_tag@0@@Z
_TEXT	SEGMENT
__First$ = 8						; size = 4
__Last$ = 12						; size = 4
__Al$ = 16						; size = 4
___formal$ = 20						; size = 1
??$_Destroy_range@V?$allocator@V?$basic_string@DU?$char_traits@D@std@@V?$allocator@D@2@@std@@@std@@@std@@YAXPAV?$basic_string@DU?$char_traits@D@std@@V?$allocator@D@2@@0@0AAV?$allocator@V?$basic_string@DU?$char_traits@D@std@@V?$allocator@D@2@@std@@@0@U_Nonscalar_ptr_iterator_tag@0@@Z PROC ; std::_Destroy_range<std::allocator<std::basic_string<char,std::char_traits<char>,std::allocator<char> > > >, COMDAT

; 95   : 	{	// destroy [_First, _Last), arbitrary type

  00000	55		 push	 ebp
  00001	8b ec		 mov	 ebp, esp
  00003	56		 push	 esi

; 96   : 	for (; _First != _Last; ++_First)

  00004	8b 75 08	 mov	 esi, DWORD PTR __First$[ebp]
  00007	eb 0e		 jmp	 SHORT $LN21@Destroy_ra
$LL3@Destroy_ra:

; 97   : 		_Dest_val(_Al, _First);

  00009	6a 00		 push	 0
  0000b	6a 01		 push	 1
  0000d	8b ce		 mov	 ecx, esi
  0000f	e8 00 00 00 00	 call	 ?_Tidy@?$basic_string@DU?$char_traits@D@std@@V?$allocator@D@2@@std@@QAEX_NI@Z ; std::basic_string<char,std::char_traits<char>,std::allocator<char> >::_Tidy
  00014	83 c6 1c	 add	 esi, 28			; 0000001cH
$LN21@Destroy_ra:

; 96   : 	for (; _First != _Last; ++_First)

  00017	3b 75 0c	 cmp	 esi, DWORD PTR __Last$[ebp]
  0001a	75 ed		 jne	 SHORT $LL3@Destroy_ra
  0001c	5e		 pop	 esi

; 98   : 	}

  0001d	5d		 pop	 ebp
  0001e	c3		 ret	 0
??$_Destroy_range@V?$allocator@V?$basic_string@DU?$char_traits@D@std@@V?$allocator@D@2@@std@@@std@@@std@@YAXPAV?$basic_string@DU?$char_traits@D@std@@V?$allocator@D@2@@0@0AAV?$allocator@V?$basic_string@DU?$char_traits@D@std@@V?$allocator@D@2@@std@@@0@U_Nonscalar_ptr_iterator_tag@0@@Z ENDP ; std::_Destroy_range<std::allocator<std::basic_string<char,std::char_traits<char>,std::allocator<char> > > >
_TEXT	ENDS
PUBLIC	??1?$pair@$$CBKUDefenseList@ioDefenseController@@@std@@QAE@XZ ; std::pair<unsigned long const ,ioDefenseController::DefenseList>::~pair<unsigned long const ,ioDefenseController::DefenseList>
; Function compile flags: /Ogsp
;	COMDAT ??1?$pair@$$CBKUDefenseList@ioDefenseController@@@std@@QAE@XZ
_TEXT	SEGMENT
??1?$pair@$$CBKUDefenseList@ioDefenseController@@@std@@QAE@XZ PROC ; std::pair<unsigned long const ,ioDefenseController::DefenseList>::~pair<unsigned long const ,ioDefenseController::DefenseList>, COMDAT
; _this$ = ecx
  00000	83 c1 04	 add	 ecx, 4
  00003	e9 00 00 00 00	 jmp	 ??1DefenseList@ioDefenseController@@QAE@XZ
??1?$pair@$$CBKUDefenseList@ioDefenseController@@@std@@QAE@XZ ENDP ; std::pair<unsigned long const ,ioDefenseController::DefenseList>::~pair<unsigned long const ,ioDefenseController::DefenseList>
_TEXT	ENDS
PUBLIC	?ClearCurrentData@ioDefenseController@@QAEXXZ	; ioDefenseController::ClearCurrentData
; Function compile flags: /Ogsp
; File d:\lost saga for developer\youtube\tutorial\source\src\lsclient\iodefensecontroller.cpp
;	COMDAT ?ClearCurrentData@ioDefenseController@@QAEXXZ
_TEXT	SEGMENT
$T542787 = -4						; size = 4
?ClearCurrentData@ioDefenseController@@QAEXXZ PROC	; ioDefenseController::ClearCurrentData, COMDAT
; _this$ = ecx

; 73   : {

  00000	55		 push	 ebp
  00001	8b ec		 mov	 ebp, esp
  00003	51		 push	 ecx

; 74   : 	m_dwCurrentTime = 0;

  00004	83 61 40 00	 and	 DWORD PTR [ecx+64], 0

; 75   : 	m_CurDefense.m_Defense.clear();

  00008	8b 41 18	 mov	 eax, DWORD PTR [ecx+24]
  0000b	83 c1 14	 add	 ecx, 20			; 00000014H
  0000e	8b 11		 mov	 edx, DWORD PTR [ecx]
  00010	50		 push	 eax
  00011	52		 push	 edx
  00012	8d 45 fc	 lea	 eax, DWORD PTR $T542787[ebp]
  00015	50		 push	 eax
  00016	e8 00 00 00 00	 call	 ?erase@?$vector@UDefenseData@ioDefenseController@@V?$allocator@UDefenseData@ioDefenseController@@@std@@@std@@QAE?AV?$_Vector_iterator@V?$_Vector_val@UDefenseData@ioDefenseController@@V?$allocator@UDefenseData@ioDefenseController@@@std@@@std@@@2@V?$_Vector_const_iterator@V?$_Vector_val@UDefenseData@ioDefenseController@@V?$allocator@UDefenseData@ioDefenseController@@@std@@@std@@@2@0@Z ; std::vector<ioDefenseController::DefenseData,std::allocator<ioDefenseController::DefenseData> >::erase

; 76   : }

  0001b	c9		 leave
  0001c	c3		 ret	 0
?ClearCurrentData@ioDefenseController@@QAEXXZ ENDP	; ioDefenseController::ClearCurrentData
_TEXT	ENDS
PUBLIC	?push_back@?$vector@UDefenseData@ioDefenseController@@V?$allocator@UDefenseData@ioDefenseController@@@std@@@std@@QAEXABUDefenseData@ioDefenseController@@@Z ; std::vector<ioDefenseController::DefenseData,std::allocator<ioDefenseController::DefenseData> >::push_back
; Function compile flags: /Ogsp
; File c:\program files (x86)\microsoft visual studio 10.0\vc\include\vector
;	COMDAT ?push_back@?$vector@UDefenseData@ioDefenseController@@V?$allocator@UDefenseData@ioDefenseController@@@std@@@std@@QAEXABUDefenseData@ioDefenseController@@@Z
_TEXT	SEGMENT
__Val$ = 8						; size = 4
?push_back@?$vector@UDefenseData@ioDefenseController@@V?$allocator@UDefenseData@ioDefenseController@@@std@@@std@@QAEXABUDefenseData@ioDefenseController@@@Z PROC ; std::vector<ioDefenseController::DefenseData,std::allocator<ioDefenseController::DefenseData> >::push_back, COMDAT
; _this$ = ecx

; 976  : 		{	// insert element at end

  00000	55		 push	 ebp
  00001	8b ec		 mov	 ebp, esp
  00003	56		 push	 esi
  00004	8b f1		 mov	 esi, ecx

; 977  : 		if (_Inside(_STD addressof(_Val)))

  00006	8b 46 04	 mov	 eax, DWORD PTR [esi+4]
  00009	57		 push	 edi
  0000a	8b 7d 08	 mov	 edi, DWORD PTR __Val$[ebp]
  0000d	3b f8		 cmp	 edi, eax
  0000f	73 2d		 jae	 SHORT $LN4@push_back@2
  00011	8b 0e		 mov	 ecx, DWORD PTR [esi]
  00013	3b cf		 cmp	 ecx, edi
  00015	77 27		 ja	 SHORT $LN4@push_back@2

; 978  : 			{	// push back an element
; 979  : 			size_type _Idx = _STD addressof(_Val) - this->_Myfirst;

  00017	2b f9		 sub	 edi, ecx
  00019	c1 ff 03	 sar	 edi, 3

; 980  : 			if (this->_Mylast == this->_Myend)

  0001c	3b 46 08	 cmp	 eax, DWORD PTR [esi+8]
  0001f	75 09		 jne	 SHORT $LN3@push_back@2

; 981  : 				_Reserve(1);

  00021	6a 01		 push	 1
  00023	8b ce		 mov	 ecx, esi
  00025	e8 00 00 00 00	 call	 ?_Reserve@?$vector@UDefenseData@ioDefenseController@@V?$allocator@UDefenseData@ioDefenseController@@@std@@@std@@IAEXI@Z ; std::vector<ioDefenseController::DefenseData,std::allocator<ioDefenseController::DefenseData> >::_Reserve
$LN3@push_back@2:

; 982  : 			_Orphan_range(this->_Mylast, this->_Mylast);
; 983  : 			_Cons_val(this->_Alval,
; 984  : 				this->_Mylast,
; 985  : 				this->_Myfirst[_Idx]);

  0002a	8b 06		 mov	 eax, DWORD PTR [esi]
  0002c	8d 04 f8	 lea	 eax, DWORD PTR [eax+edi*8]
  0002f	50		 push	 eax
  00030	ff 76 04	 push	 DWORD PTR [esi+4]
  00033	8d 46 0c	 lea	 eax, DWORD PTR [esi+12]
  00036	50		 push	 eax
  00037	e8 00 00 00 00	 call	 ??$_Cons_val@V?$allocator@UDefenseData@ioDefenseController@@@std@@UDefenseData@ioDefenseController@@AAU34@@std@@YAXAAV?$allocator@UDefenseData@ioDefenseController@@@0@PAUDefenseData@ioDefenseController@@AAU23@@Z ; std::_Cons_val<std::allocator<ioDefenseController::DefenseData>,ioDefenseController::DefenseData,ioDefenseController::DefenseData &>

; 986  : 			++this->_Mylast;
; 987  : 			}
; 988  : 		else

  0003c	eb 1b		 jmp	 SHORT $LN20@push_back@2
$LN4@push_back@2:

; 989  : 			{	// push back a non-element
; 990  : 			if (this->_Mylast == this->_Myend)

  0003e	3b 46 08	 cmp	 eax, DWORD PTR [esi+8]
  00041	75 09		 jne	 SHORT $LN1@push_back@2

; 991  : 				_Reserve(1);

  00043	6a 01		 push	 1
  00045	8b ce		 mov	 ecx, esi
  00047	e8 00 00 00 00	 call	 ?_Reserve@?$vector@UDefenseData@ioDefenseController@@V?$allocator@UDefenseData@ioDefenseController@@@std@@@std@@IAEXI@Z ; std::vector<ioDefenseController::DefenseData,std::allocator<ioDefenseController::DefenseData> >::_Reserve
$LN1@push_back@2:

; 992  : 			_Orphan_range(this->_Mylast, this->_Mylast);
; 993  : 			_Cons_val(this->_Alval,
; 994  : 				this->_Mylast,
; 995  : 				_Val);

  0004c	57		 push	 edi
  0004d	ff 76 04	 push	 DWORD PTR [esi+4]
  00050	8d 46 0c	 lea	 eax, DWORD PTR [esi+12]
  00053	50		 push	 eax
  00054	e8 00 00 00 00	 call	 ??$_Cons_val@V?$allocator@UDefenseData@ioDefenseController@@@std@@UDefenseData@ioDefenseController@@ABU34@@std@@YAXAAV?$allocator@UDefenseData@ioDefenseController@@@0@PAUDefenseData@ioDefenseController@@ABU23@@Z ; std::_Cons_val<std::allocator<ioDefenseController::DefenseData>,ioDefenseController::DefenseData,ioDefenseController::DefenseData const &>
$LN20@push_back@2:
  00059	83 c4 0c	 add	 esp, 12			; 0000000cH

; 996  : 			++this->_Mylast;

  0005c	83 46 04 08	 add	 DWORD PTR [esi+4], 8
  00060	5f		 pop	 edi
  00061	5e		 pop	 esi

; 997  : 			}
; 998  : 		}

  00062	5d		 pop	 ebp
  00063	c2 04 00	 ret	 4
?push_back@?$vector@UDefenseData@ioDefenseController@@V?$allocator@UDefenseData@ioDefenseController@@@std@@@std@@QAEXABUDefenseData@ioDefenseController@@@Z ENDP ; std::vector<ioDefenseController::DefenseData,std::allocator<ioDefenseController::DefenseData> >::push_back
_TEXT	ENDS
PUBLIC	??$?0HAAUDefenseList@ioDefenseController@@@?$_Pair_base@$$CBKUDefenseList@ioDefenseController@@@std@@QAE@$$QAHAAUDefenseList@ioDefenseController@@@Z ; std::_Pair_base<unsigned long const ,ioDefenseController::DefenseList>::_Pair_base<unsigned long const ,ioDefenseController::DefenseList><int,ioDefenseController::DefenseList &>
; Function compile flags: /Ogsp
; File c:\program files (x86)\microsoft visual studio 10.0\vc\include\utility
;	COMDAT ??$?0HAAUDefenseList@ioDefenseController@@@?$_Pair_base@$$CBKUDefenseList@ioDefenseController@@@std@@QAE@$$QAHAAUDefenseList@ioDefenseController@@@Z
_TEXT	SEGMENT
__Val1$ = 8						; size = 4
__Val2$ = 12						; size = 4
??$?0HAAUDefenseList@ioDefenseController@@@?$_Pair_base@$$CBKUDefenseList@ioDefenseController@@@std@@QAE@$$QAHAAUDefenseList@ioDefenseController@@@Z PROC ; std::_Pair_base<unsigned long const ,ioDefenseController::DefenseList>::_Pair_base<unsigned long const ,ioDefenseController::DefenseList><int,ioDefenseController::DefenseList &>, COMDAT
; _this$ = ecx

; 163  : 		{	// construct from moved values

  00000	55		 push	 ebp
  00001	8b ec		 mov	 ebp, esp
  00003	8b 45 08	 mov	 eax, DWORD PTR __Val1$[ebp]
  00006	8b 00		 mov	 eax, DWORD PTR [eax]
  00008	56		 push	 esi
  00009	ff 75 0c	 push	 DWORD PTR __Val2$[ebp]
  0000c	8b f1		 mov	 esi, ecx
  0000e	8d 4e 04	 lea	 ecx, DWORD PTR [esi+4]
  00011	89 06		 mov	 DWORD PTR [esi], eax
  00013	e8 00 00 00 00	 call	 ??0DefenseList@ioDefenseController@@QAE@ABU01@@Z

; 164  : 		}

  00018	8b c6		 mov	 eax, esi
  0001a	5e		 pop	 esi
  0001b	5d		 pop	 ebp
  0001c	c2 08 00	 ret	 8
??$?0HAAUDefenseList@ioDefenseController@@@?$_Pair_base@$$CBKUDefenseList@ioDefenseController@@@std@@QAE@$$QAHAAUDefenseList@ioDefenseController@@@Z ENDP ; std::_Pair_base<unsigned long const ,ioDefenseController::DefenseList>::_Pair_base<unsigned long const ,ioDefenseController::DefenseList><int,ioDefenseController::DefenseList &>
_TEXT	ENDS
PUBLIC	??$_Move@PAV?$basic_string@DU?$char_traits@D@std@@V?$allocator@D@2@@std@@PAV12@@std@@YAPAV?$basic_string@DU?$char_traits@D@std@@V?$allocator@D@2@@0@PAV10@00U_Nonscalar_ptr_iterator_tag@0@@Z ; std::_Move<std::basic_string<char,std::char_traits<char>,std::allocator<char> > *,std::basic_string<char,std::char_traits<char>,std::allocator<char> > *>
; Function compile flags: /Ogsp
; File c:\program files (x86)\microsoft visual studio 10.0\vc\include\xutility
;	COMDAT ??$_Move@PAV?$basic_string@DU?$char_traits@D@std@@V?$allocator@D@2@@std@@PAV12@@std@@YAPAV?$basic_string@DU?$char_traits@D@std@@V?$allocator@D@2@@0@PAV10@00U_Nonscalar_ptr_iterator_tag@0@@Z
_TEXT	SEGMENT
__First$ = 8						; size = 4
__Last$ = 12						; size = 4
__Dest$ = 16						; size = 4
___formal$ = 20						; size = 1
??$_Move@PAV?$basic_string@DU?$char_traits@D@std@@V?$allocator@D@2@@std@@PAV12@@std@@YAPAV?$basic_string@DU?$char_traits@D@std@@V?$allocator@D@2@@0@PAV10@00U_Nonscalar_ptr_iterator_tag@0@@Z PROC ; std::_Move<std::basic_string<char,std::char_traits<char>,std::allocator<char> > *,std::basic_string<char,std::char_traits<char>,std::allocator<char> > *>, COMDAT

; 2512 : 	{	// move [_First, _Last) to [_Dest, ...), arbitrary iterators

  00000	55		 push	 ebp
  00001	8b ec		 mov	 ebp, esp
  00003	56		 push	 esi

; 2513 : 	for (; _First != _Last; ++_Dest, ++_First)

  00004	8b 75 08	 mov	 esi, DWORD PTR __First$[ebp]
  00007	eb 10		 jmp	 SHORT $LN15@Move@2
$LL3@Move@2:

; 2514 : 		*_Dest = _STD move(*_First);

  00009	8b 4d 10	 mov	 ecx, DWORD PTR __Dest$[ebp]
  0000c	56		 push	 esi
  0000d	e8 00 00 00 00	 call	 ?assign@?$basic_string@DU?$char_traits@D@std@@V?$allocator@D@2@@std@@QAEAAV12@$$QAV12@@Z ; std::basic_string<char,std::char_traits<char>,std::allocator<char> >::assign
  00012	83 45 10 1c	 add	 DWORD PTR __Dest$[ebp], 28 ; 0000001cH
  00016	83 c6 1c	 add	 esi, 28			; 0000001cH
$LN15@Move@2:

; 2513 : 	for (; _First != _Last; ++_Dest, ++_First)

  00019	3b 75 0c	 cmp	 esi, DWORD PTR __Last$[ebp]
  0001c	75 eb		 jne	 SHORT $LL3@Move@2

; 2515 : 	return (_Dest);

  0001e	8b 45 10	 mov	 eax, DWORD PTR __Dest$[ebp]
  00021	5e		 pop	 esi

; 2516 : 	}

  00022	5d		 pop	 ebp
  00023	c3		 ret	 0
??$_Move@PAV?$basic_string@DU?$char_traits@D@std@@V?$allocator@D@2@@std@@PAV12@@std@@YAPAV?$basic_string@DU?$char_traits@D@std@@V?$allocator@D@2@@0@PAV10@00U_Nonscalar_ptr_iterator_tag@0@@Z ENDP ; std::_Move<std::basic_string<char,std::char_traits<char>,std::allocator<char> > *,std::basic_string<char,std::char_traits<char>,std::allocator<char> > *>
_TEXT	ENDS
PUBLIC	??_G?$pair@$$CBKUDefenseList@ioDefenseController@@@std@@QAEPAXI@Z ; std::pair<unsigned long const ,ioDefenseController::DefenseList>::`scalar deleting destructor'
; Function compile flags: /Ogsp
;	COMDAT ??_G?$pair@$$CBKUDefenseList@ioDefenseController@@@std@@QAEPAXI@Z
_TEXT	SEGMENT
___flags$ = 8						; size = 4
??_G?$pair@$$CBKUDefenseList@ioDefenseController@@@std@@QAEPAXI@Z PROC ; std::pair<unsigned long const ,ioDefenseController::DefenseList>::`scalar deleting destructor', COMDAT
; _this$ = ecx
  00000	55		 push	 ebp
  00001	8b ec		 mov	 ebp, esp
  00003	56		 push	 esi
  00004	8b f1		 mov	 esi, ecx
  00006	8d 4e 04	 lea	 ecx, DWORD PTR [esi+4]
  00009	e8 00 00 00 00	 call	 ??1DefenseList@ioDefenseController@@QAE@XZ
  0000e	f6 45 08 01	 test	 BYTE PTR ___flags$[ebp], 1
  00012	74 07		 je	 SHORT $LN1@scalar@3
  00014	56		 push	 esi
  00015	e8 00 00 00 00	 call	 ??3@YAXPAX@Z		; operator delete
  0001a	59		 pop	 ecx
$LN1@scalar@3:
  0001b	8b c6		 mov	 eax, esi
  0001d	5e		 pop	 esi
  0001e	5d		 pop	 ebp
  0001f	c2 04 00	 ret	 4
??_G?$pair@$$CBKUDefenseList@ioDefenseController@@@std@@QAEPAXI@Z ENDP ; std::pair<unsigned long const ,ioDefenseController::DefenseList>::`scalar deleting destructor'
_TEXT	ENDS
PUBLIC	??$_Cons_val@V?$allocator@V?$basic_string@DU?$char_traits@D@std@@V?$allocator@D@2@@std@@@std@@V?$basic_string@DU?$char_traits@D@std@@V?$allocator@D@2@@2@ABV32@@std@@YAXAAV?$allocator@V?$basic_string@DU?$char_traits@D@std@@V?$allocator@D@2@@std@@@0@PAV?$basic_string@DU?$char_traits@D@std@@V?$allocator@D@2@@0@ABV20@@Z ; std::_Cons_val<std::allocator<std::basic_string<char,std::char_traits<char>,std::allocator<char> > >,std::basic_string<char,std::char_traits<char>,std::allocator<char> >,std::basic_string<char,std::char_traits<char>,std::allocator<char> > const &>
; Function compile flags: /Ogsp
; File c:\program files (x86)\microsoft visual studio 10.0\vc\include\xmemory
;	COMDAT ??$_Cons_val@V?$allocator@V?$basic_string@DU?$char_traits@D@std@@V?$allocator@D@2@@std@@@std@@V?$basic_string@DU?$char_traits@D@std@@V?$allocator@D@2@@2@ABV32@@std@@YAXAAV?$allocator@V?$basic_string@DU?$char_traits@D@std@@V?$allocator@D@2@@std@@@0@PAV?$basic_string@DU?$char_traits@D@std@@V?$allocator@D@2@@0@ABV20@@Z
_TEXT	SEGMENT
__Alval$ = 8						; size = 4
__Pdest$ = 12						; size = 4
__Src$ = 16						; size = 4
??$_Cons_val@V?$allocator@V?$basic_string@DU?$char_traits@D@std@@V?$allocator@D@2@@std@@@std@@V?$basic_string@DU?$char_traits@D@std@@V?$allocator@D@2@@2@ABV32@@std@@YAXAAV?$allocator@V?$basic_string@DU?$char_traits@D@std@@V?$allocator@D@2@@std@@@0@PAV?$basic_string@DU?$char_traits@D@std@@V?$allocator@D@2@@0@ABV20@@Z PROC ; std::_Cons_val<std::allocator<std::basic_string<char,std::char_traits<char>,std::allocator<char> > >,std::basic_string<char,std::char_traits<char>,std::allocator<char> >,std::basic_string<char,std::char_traits<char>,std::allocator<char> > const &>, COMDAT

; 279  : 	{	// construct using allocator

  00000	55		 push	 ebp
  00001	8b ec		 mov	 ebp, esp

; 280  : 	_Alval.construct(_Pdest, _STD forward<_Ty2>(_Src));

  00003	ff 75 10	 push	 DWORD PTR __Src$[ebp]
  00006	ff 75 0c	 push	 DWORD PTR __Pdest$[ebp]
  00009	e8 00 00 00 00	 call	 ??$_Construct@V?$basic_string@DU?$char_traits@D@std@@V?$allocator@D@2@@std@@ABV12@@std@@YAXPAV?$basic_string@DU?$char_traits@D@std@@V?$allocator@D@2@@0@ABV10@@Z ; std::_Construct<std::basic_string<char,std::char_traits<char>,std::allocator<char> >,std::basic_string<char,std::char_traits<char>,std::allocator<char> > const &>
  0000e	59		 pop	 ecx
  0000f	59		 pop	 ecx

; 281  : 	}

  00010	5d		 pop	 ebp
  00011	c3		 ret	 0
??$_Cons_val@V?$allocator@V?$basic_string@DU?$char_traits@D@std@@V?$allocator@D@2@@std@@@std@@V?$basic_string@DU?$char_traits@D@std@@V?$allocator@D@2@@2@ABV32@@std@@YAXAAV?$allocator@V?$basic_string@DU?$char_traits@D@std@@V?$allocator@D@2@@std@@@0@PAV?$basic_string@DU?$char_traits@D@std@@V?$allocator@D@2@@0@ABV20@@Z ENDP ; std::_Cons_val<std::allocator<std::basic_string<char,std::char_traits<char>,std::allocator<char> > >,std::basic_string<char,std::char_traits<char>,std::allocator<char> >,std::basic_string<char,std::char_traits<char>,std::allocator<char> > const &>
_TEXT	ENDS
PUBLIC	??$?0$$CBKUDefenseList@ioDefenseController@@@?$pair@$$CBKUDefenseList@ioDefenseController@@@std@@QAE@$$QAU01@@Z ; std::pair<unsigned long const ,ioDefenseController::DefenseList>::pair<unsigned long const ,ioDefenseController::DefenseList><unsigned long const ,ioDefenseController::DefenseList>
; Function compile flags: /Ogsp
; File c:\program files (x86)\microsoft visual studio 10.0\vc\include\utility
;	COMDAT ??$?0$$CBKUDefenseList@ioDefenseController@@@?$pair@$$CBKUDefenseList@ioDefenseController@@@std@@QAE@$$QAU01@@Z
_TEXT	SEGMENT
__Right$ = 8						; size = 4
??$?0$$CBKUDefenseList@ioDefenseController@@@?$pair@$$CBKUDefenseList@ioDefenseController@@@std@@QAE@$$QAU01@@Z PROC ; std::pair<unsigned long const ,ioDefenseController::DefenseList>::pair<unsigned long const ,ioDefenseController::DefenseList><unsigned long const ,ioDefenseController::DefenseList>, COMDAT
; _this$ = ecx

; 255  : 		{	// construct from moved compatible pair

  00000	55		 push	 ebp
  00001	8b ec		 mov	 ebp, esp
  00003	8b 45 08	 mov	 eax, DWORD PTR __Right$[ebp]
  00006	56		 push	 esi
  00007	8b f1		 mov	 esi, ecx
  00009	8b 08		 mov	 ecx, DWORD PTR [eax]
  0000b	83 c0 04	 add	 eax, 4
  0000e	89 0e		 mov	 DWORD PTR [esi], ecx
  00010	50		 push	 eax
  00011	8d 4e 04	 lea	 ecx, DWORD PTR [esi+4]
  00014	e8 00 00 00 00	 call	 ??0DefenseList@ioDefenseController@@QAE@ABU01@@Z

; 256  : 		}

  00019	8b c6		 mov	 eax, esi
  0001b	5e		 pop	 esi
  0001c	5d		 pop	 ebp
  0001d	c2 04 00	 ret	 4
??$?0$$CBKUDefenseList@ioDefenseController@@@?$pair@$$CBKUDefenseList@ioDefenseController@@@std@@QAE@$$QAU01@@Z ENDP ; std::pair<unsigned long const ,ioDefenseController::DefenseList>::pair<unsigned long const ,ioDefenseController::DefenseList><unsigned long const ,ioDefenseController::DefenseList>
_TEXT	ENDS
PUBLIC	??$_Destroy_range@V?$allocator@V?$basic_string@DU?$char_traits@D@std@@V?$allocator@D@2@@std@@@std@@@std@@YAXPAV?$basic_string@DU?$char_traits@D@std@@V?$allocator@D@2@@0@0AAV?$allocator@V?$basic_string@DU?$char_traits@D@std@@V?$allocator@D@2@@std@@@0@@Z ; std::_Destroy_range<std::allocator<std::basic_string<char,std::char_traits<char>,std::allocator<char> > > >
; Function compile flags: /Ogsp
; File c:\program files (x86)\microsoft visual studio 10.0\vc\include\xmemory
;	COMDAT ??$_Destroy_range@V?$allocator@V?$basic_string@DU?$char_traits@D@std@@V?$allocator@D@2@@std@@@std@@@std@@YAXPAV?$basic_string@DU?$char_traits@D@std@@V?$allocator@D@2@@0@0AAV?$allocator@V?$basic_string@DU?$char_traits@D@std@@V?$allocator@D@2@@std@@@0@@Z
_TEXT	SEGMENT
__Cat$542886 = -4					; size = 1
__First$ = 8						; size = 4
__Last$ = 12						; size = 4
__Al$ = 16						; size = 4
??$_Destroy_range@V?$allocator@V?$basic_string@DU?$char_traits@D@std@@V?$allocator@D@2@@std@@@std@@@std@@YAXPAV?$basic_string@DU?$char_traits@D@std@@V?$allocator@D@2@@0@0AAV?$allocator@V?$basic_string@DU?$char_traits@D@std@@V?$allocator@D@2@@std@@@0@@Z PROC ; std::_Destroy_range<std::allocator<std::basic_string<char,std::char_traits<char>,std::allocator<char> > > >, COMDAT

; 87   : 	{	// destroy [_First, _Last)

  00000	55		 push	 ebp
  00001	8b ec		 mov	 ebp, esp
  00003	51		 push	 ecx

; 88   : 	_Destroy_range(_First, _Last, _Al, _Ptr_cat(_First, _Last));

  00004	ff 75 fc	 push	 DWORD PTR __Cat$542886[ebp]
  00007	ff 75 10	 push	 DWORD PTR __Al$[ebp]
  0000a	ff 75 0c	 push	 DWORD PTR __Last$[ebp]
  0000d	ff 75 08	 push	 DWORD PTR __First$[ebp]
  00010	e8 00 00 00 00	 call	 ??$_Destroy_range@V?$allocator@V?$basic_string@DU?$char_traits@D@std@@V?$allocator@D@2@@std@@@std@@@std@@YAXPAV?$basic_string@DU?$char_traits@D@std@@V?$allocator@D@2@@0@0AAV?$allocator@V?$basic_string@DU?$char_traits@D@std@@V?$allocator@D@2@@std@@@0@U_Nonscalar_ptr_iterator_tag@0@@Z ; std::_Destroy_range<std::allocator<std::basic_string<char,std::char_traits<char>,std::allocator<char> > > >
  00015	83 c4 10	 add	 esp, 16			; 00000010H

; 89   : 	}

  00018	c9		 leave
  00019	c3		 ret	 0
??$_Destroy_range@V?$allocator@V?$basic_string@DU?$char_traits@D@std@@V?$allocator@D@2@@std@@@std@@@std@@YAXPAV?$basic_string@DU?$char_traits@D@std@@V?$allocator@D@2@@0@0AAV?$allocator@V?$basic_string@DU?$char_traits@D@std@@V?$allocator@D@2@@std@@@0@@Z ENDP ; std::_Destroy_range<std::allocator<std::basic_string<char,std::char_traits<char>,std::allocator<char> > > >
_TEXT	ENDS
PUBLIC	?AttachDefenseData@ioDefenseController@@IAEXAAUDefenseList@1@K@Z ; ioDefenseController::AttachDefenseData
; Function compile flags: /Ogsp
; File d:\lost saga for developer\youtube\tutorial\source\src\lsclient\iodefensecontroller.cpp
;	COMDAT ?AttachDefenseData@ioDefenseController@@IAEXAAUDefenseList@1@K@Z
_TEXT	SEGMENT
_kData$533654 = -8					; size = 8
$T542951 = 8						; size = 4
_i$533649 = 8						; size = 4
_rkList$ = 8						; size = 4
_dwPredicTime$ = 12					; size = 4
?AttachDefenseData@ioDefenseController@@IAEXAAUDefenseList@1@K@Z PROC ; ioDefenseController::AttachDefenseData, COMDAT
; _this$ = ecx

; 110  : {

  00000	55		 push	 ebp
  00001	8b ec		 mov	 ebp, esp
  00003	51		 push	 ecx
  00004	51		 push	 ecx
  00005	53		 push	 ebx
  00006	56		 push	 esi

; 111  : 	// Defense Copy
; 112  : 	m_CurDefense.m_fDefenseRange	= rkList.m_fDefenseRange;

  00007	8b 75 08	 mov	 esi, DWORD PTR _rkList$[ebp]
  0000a	d9 46 24	 fld	 DWORD PTR [esi+36]
  0000d	57		 push	 edi
  0000e	8b f9		 mov	 edi, ecx
  00010	d9 5f 38	 fstp	 DWORD PTR [edi+56]

; 113  : 	m_CurDefense.m_fDefenseRate		= rkList.m_fDefenseRate;

  00013	d9 46 20	 fld	 DWORD PTR [esi+32]
  00016	d9 5f 34	 fstp	 DWORD PTR [edi+52]

; 114  : 	m_CurDefense.m_fDefenseDirection= rkList.m_fDefenseDirection;

  00019	d9 46 28	 fld	 DWORD PTR [esi+40]
  0001c	d9 5f 3c	 fstp	 DWORD PTR [edi+60]

; 115  : 	m_CurDefense.m_Defense.clear();

  0001f	8b 47 18	 mov	 eax, DWORD PTR [edi+24]
  00022	8b 4f 14	 mov	 ecx, DWORD PTR [edi+20]
  00025	50		 push	 eax
  00026	51		 push	 ecx
  00027	8d 45 08	 lea	 eax, DWORD PTR $T542951[ebp]
  0002a	50		 push	 eax
  0002b	8d 4f 14	 lea	 ecx, DWORD PTR [edi+20]
  0002e	e8 00 00 00 00	 call	 ?erase@?$vector@UDefenseData@ioDefenseController@@V?$allocator@UDefenseData@ioDefenseController@@@std@@@std@@QAE?AV?$_Vector_iterator@V?$_Vector_val@UDefenseData@ioDefenseController@@V?$allocator@UDefenseData@ioDefenseController@@@std@@@std@@@2@V?$_Vector_const_iterator@V?$_Vector_val@UDefenseData@ioDefenseController@@V?$allocator@UDefenseData@ioDefenseController@@@std@@@std@@@2@0@Z ; std::vector<ioDefenseController::DefenseData,std::allocator<ioDefenseController::DefenseData> >::erase

; 116  : 	for(int i = 0;i < (int)rkList.m_Defense.size();i++)

  00033	8b 06		 mov	 eax, DWORD PTR [esi]
  00035	8b 56 04	 mov	 edx, DWORD PTR [esi+4]
  00038	33 c9		 xor	 ecx, ecx
  0003a	2b d0		 sub	 edx, eax
  0003c	89 4d 08	 mov	 DWORD PTR _i$533649[ebp], ecx
  0003f	f7 c2 f8 ff ff
	ff		 test	 edx, -8			; fffffff8H
  00045	7e 3e		 jle	 SHORT $LN2@AttachDefe
  00047	eb 03		 jmp	 SHORT $LN4@AttachDefe
$LL31@AttachDefe:
  00049	8b 4d 08	 mov	 ecx, DWORD PTR _i$533649[ebp]
$LN4@AttachDefe:

; 117  : 	{
; 118  : 		DefenseData kData = rkList.m_Defense[i];

  0004c	8b 14 c8	 mov	 edx, DWORD PTR [eax+ecx*8]
  0004f	8b 44 c8 04	 mov	 eax, DWORD PTR [eax+ecx*8+4]
  00053	89 55 f8	 mov	 DWORD PTR _kData$533654[ebp], edx
  00056	89 45 fc	 mov	 DWORD PTR _kData$533654[ebp+4], eax

; 119  : 		if( i == 0 && dwPredicTime != 0 )

  00059	85 c9		 test	 ecx, ecx
  0005b	75 0a		 jne	 SHORT $LN1@AttachDefe
  0005d	8b 45 0c	 mov	 eax, DWORD PTR _dwPredicTime$[ebp]
  00060	85 c0		 test	 eax, eax
  00062	74 03		 je	 SHORT $LN1@AttachDefe

; 120  : 		{
; 121  : 			//     .
; 122  : 			kData.m_dwDelayTime = dwPredicTime;

  00064	89 45 fc	 mov	 DWORD PTR _kData$533654[ebp+4], eax
$LN1@AttachDefe:

; 123  : 		}
; 124  : 		m_CurDefense.m_Defense.push_back( kData );

  00067	8d 45 f8	 lea	 eax, DWORD PTR _kData$533654[ebp]
  0006a	50		 push	 eax
  0006b	8d 4f 14	 lea	 ecx, DWORD PTR [edi+20]
  0006e	e8 00 00 00 00	 call	 ?push_back@?$vector@UDefenseData@ioDefenseController@@V?$allocator@UDefenseData@ioDefenseController@@@std@@@std@@QAEXABUDefenseData@ioDefenseController@@@Z ; std::vector<ioDefenseController::DefenseData,std::allocator<ioDefenseController::DefenseData> >::push_back
  00073	8b 06		 mov	 eax, DWORD PTR [esi]
  00075	8b 4e 04	 mov	 ecx, DWORD PTR [esi+4]
  00078	ff 45 08	 inc	 DWORD PTR _i$533649[ebp]
  0007b	2b c8		 sub	 ecx, eax
  0007d	c1 f9 03	 sar	 ecx, 3
  00080	39 4d 08	 cmp	 DWORD PTR _i$533649[ebp], ecx
  00083	7c c4		 jl	 SHORT $LL31@AttachDefe
$LN2@AttachDefe:

; 125  : 		
; 126  : 	}
; 127  : 	m_dwCurrentTime = FRAMEGETTIME();

  00085	ff 15 00 00 00
	00		 call	 DWORD PTR __imp_?GetSingleton@ioFrameTimer@@SAAAV1@XZ
  0008b	8b c8		 mov	 ecx, eax
  0008d	ff 15 00 00 00
	00		 call	 DWORD PTR __imp_?GetLoopSec@ioFrameTimer@@QBEKXZ
  00093	89 47 40	 mov	 DWORD PTR [edi+64], eax
  00096	5f		 pop	 edi
  00097	5e		 pop	 esi
  00098	5b		 pop	 ebx

; 128  : }

  00099	c9		 leave
  0009a	c2 08 00	 ret	 8
?AttachDefenseData@ioDefenseController@@IAEXAAUDefenseList@1@K@Z ENDP ; ioDefenseController::AttachDefenseData
_TEXT	ENDS
PUBLIC	__real@42340000
PUBLIC	__mask@@AbsDouble@
PUBLIC	__real@00000000
PUBLIC	__real@43340000
PUBLIC	__real@4f800000
PUBLIC	_pTarget$GSCopy$
PUBLIC	_this$GSCopy$
PUBLIC	?Attach@ioDefenseController@@QAE_NPAVioNpcChar@@PAVioBaseChar@@M@Z ; ioDefenseController::Attach
EXTRN	__imp_?AngleGap@ioMath@@SAMMM@Z:PROC
EXTRN	?GetOwner@ioWeapon@@QBEPAVioBaseChar@@XZ:PROC	; ioWeapon::GetOwner
EXTRN	?GetDefenseBreakType@ioWeapon@@QBE?AW4DefenseBreakType@@XZ:PROC ; ioWeapon::GetDefenseBreakType
EXTRN	?IsNpcTargetCharListByCylinder@ioBaseChar@@QAE_NABUD3DXVECTOR3@@MMMMPAV1@@Z:PROC ; ioBaseChar::IsNpcTargetCharListByCylinder
EXTRN	?GetMidPositionByRate@ioGameEntity@@QBE?AUD3DXVECTOR3@@M@Z:PROC ; ioGameEntity::GetMidPositionByRate
EXTRN	__imp_??D@YA?AUD3DXVECTOR3@@ABUD3DXQUATERNION@@ABU0@@Z:PROC
EXTRN	__imp__rand:PROC
EXTRN	?GetWeaponIterator@ioWeaponManager@@QAE?AV?$ioListIterator@V?$list@PAVioWeapon@@V?$allocator@PAVioWeapon@@@std@@@std@@@@XZ:PROC ; ioWeaponManager::GetWeaponIterator
EXTRN	?GetSingleton@ioWeaponManager@@SAAAV1@XZ:PROC	; ioWeaponManager::GetSingleton
EXTRN	?GetCurAnimationFireTime@ioBaseChar@@QAEKXZ:PROC ; ioBaseChar::GetCurAnimationFireTime
EXTRN	__EH_epilog3_GS:PROC
EXTRN	__EH_prolog3_GS:PROC
;	COMDAT __real@42340000
; File c:\program files (x86)\microsoft visual studio 10.0\vc\include\vector
CONST	SEGMENT
__real@42340000 DD 042340000r			; 45
CONST	ENDS
;	COMDAT __mask@@AbsDouble@
CONST	SEGMENT
__mask@@AbsDouble@ DB 0ffH, 0ffH, 0ffH, 0ffH, 0ffH, 0ffH, 0ffH, 07fH, 0ffH
	DB	0ffH, 0ffH, 0ffH, 0ffH, 0ffH, 0ffH, 07fH
CONST	ENDS
;	COMDAT __real@00000000
CONST	SEGMENT
__real@00000000 DD 000000000r			; 0
CONST	ENDS
;	COMDAT __real@43340000
CONST	SEGMENT
__real@43340000 DD 043340000r			; 180
CONST	ENDS
;	COMDAT __real@4f800000
CONST	SEGMENT
__real@4f800000 DD 04f800000r			; 4.29497e+009
CONST	ENDS
;	COMDAT xdata$x
xdata$x	SEGMENT
__unwindtable$?Attach@ioDefenseController@@QAE_NPAVioNpcChar@@PAVioBaseChar@@M@Z DD 0ffffffffH
	DD	FLAT:__unwindfunclet$?Attach@ioDefenseController@@QAE_NPAVioNpcChar@@PAVioBaseChar@@M@Z$0
	DD	0ffffffffH
	DD	FLAT:__unwindfunclet$?Attach@ioDefenseController@@QAE_NPAVioNpcChar@@PAVioBaseChar@@M@Z$1
__ehfuncinfo$?Attach@ioDefenseController@@QAE_NPAVioNpcChar@@PAVioBaseChar@@M@Z DD 019930522H
	DD	02H
	DD	FLAT:__unwindtable$?Attach@ioDefenseController@@QAE_NPAVioNpcChar@@PAVioBaseChar@@M@Z
	DD	2 DUP(00H)
	DD	2 DUP(00H)
	DD	00H
	DD	01H
; Function compile flags: /Ogsp
; File d:\lost saga for developer\youtube\tutorial\source\src\lsclient\iodefensecontroller.cpp
xdata$x	ENDS
;	COMDAT ?Attach@ioDefenseController@@QAE_NPAVioNpcChar@@PAVioBaseChar@@M@Z
_TEXT	SEGMENT
_value$543431 = -168					; size = 4
_value$543444 = -164					; size = 4
_pTarget$GSCopy$ = -160					; size = 4
_vDefenseID$533667 = -156				; size = 16
_vDefenseID$533867 = -140				; size = 16
tv1893 = -124						; size = 4
$T543653 = -124						; size = 4
$T543639 = -124						; size = 4
_fAngle1$533888 = -124					; size = 4
_this$GSCopy$ = -120					; size = 4
$T543186 = -116						; size = 4
_pWeapon$533863 = -116					; size = 4
tv2121 = -112						; size = 4
tv2103 = -112						; size = 4
tv2095 = -112						; size = 4
tv2091 = -112						; size = 4
tv2066 = -112						; size = 4
tv2064 = -112						; size = 4
_iter$533913 = -112					; size = 4
_kIter$ = -108						; size = 8
_iCreate$533868 = -100					; size = 4
_iCreate$533668 = -100					; size = 4
tv1994 = -96						; size = 4
tv1901 = -96						; size = 4
tv1889 = -96						; size = 4
tv1885 = -96						; size = 4
tv1864 = -96						; size = 4
tv1862 = -96						; size = 4
tv1827 = -96						; size = 4
$T543657 = -96						; size = 4
_fDeg$533909 = -96					; size = 4
_fRadian$533908 = -96					; size = 4
_fCos$533907 = -96					; size = 4
tv2087 = -92						; size = 4
tv2030 = -92						; size = 4
$T543627 = -92						; size = 4
$T543182 = -92						; size = 4
_fAngle2$533889 = -92					; size = 4
_pWeaponOwner$533884 = -92				; size = 4
_iRandomRate$533876 = -92				; size = 4
_iter$533702 = -92					; size = 4
_fDeg$533698 = -92					; size = 4
_fRadian$533697 = -92					; size = 4
_fCos$533696 = -92					; size = 4
_iRandomRate$533676 = -92				; size = 4
$T533897 = -88						; size = 12
$T533689 = -88						; size = 12
$T533900 = -76						; size = 12
$T533686 = -76						; size = 12
$T533899 = -64						; size = 12
$T533688 = -64						; size = 12
_vPos$533893 = -52					; size = 12
_vPos$533682 = -52					; size = 12
_vCreatorDir$533906 = -40				; size = 12
_vOwnerDir$533694 = -40					; size = 12
_vOwnerDir$533905 = -28					; size = 12
_vCreatorDir$533695 = -28				; size = 12
__$EHRec$ = -12						; size = 12
_pOwner$ = 8						; size = 4
_pTarget$ = 12						; size = 4
_fTargetRange$ = 16					; size = 4
?Attach@ioDefenseController@@QAE_NPAVioNpcChar@@PAVioBaseChar@@M@Z PROC ; ioDefenseController::Attach, COMDAT
; _this$ = ecx

; 131  : {

  00000	68 9c 00 00 00	 push	 156			; 0000009cH
  00005	b8 00 00 00 00	 mov	 eax, __ehhandler$?Attach@ioDefenseController@@QAE_NPAVioNpcChar@@PAVioBaseChar@@M@Z
  0000a	e8 00 00 00 00	 call	 __EH_prolog3_GS
  0000f	8b 5d 08	 mov	 ebx, DWORD PTR _pOwner$[ebp]
  00012	8b f9		 mov	 edi, ecx
  00014	8b 4d 0c	 mov	 ecx, DWORD PTR _pTarget$[ebp]

; 132  : 	if( pOwner == NULL ) return false;

  00017	33 f6		 xor	 esi, esi

; 195  : 	while( kIter.HasMoreElements() )

  00019	89 7d 88	 mov	 DWORD PTR _this$GSCopy$[ebp], edi
  0001c	89 8d 60 ff ff
	ff		 mov	 DWORD PTR _pTarget$GSCopy$[ebp], ecx
  00022	3b de		 cmp	 ebx, esi
  00024	0f 84 00 08 00
	00		 je	 $LN20@Attach

; 133  : 	if( m_DefenseMap.empty() ) return false;

  0002a	39 77 0c	 cmp	 DWORD PTR [edi+12], esi
  0002d	0f 84 f7 07 00
	00		 je	 $LN20@Attach

; 134  : 
; 135  : 	//      fire_s   
; 136  : 	if( pTarget )

  00033	3b ce		 cmp	 ecx, esi
  00035	74 39		 je	 SHORT $LN170@Attach

; 137  : 	{
; 138  : 		DWORD dwFireTime = pTarget->GetCurAnimationFireTime();

  00037	e8 00 00 00 00	 call	 ?GetCurAnimationFireTime@ioBaseChar@@QAEKXZ ; ioBaseChar::GetCurAnimationFireTime

; 139  : 		if( dwFireTime != 0 )

  0003c	3b c6		 cmp	 eax, esi
  0003e	74 30		 je	 SHORT $LN170@Attach

; 140  : 		{
; 141  : 			DWORDVec vDefenseID;

  00040	89 b5 64 ff ff
	ff		 mov	 DWORD PTR _vDefenseID$533667[ebp], esi
  00046	89 b5 68 ff ff
	ff		 mov	 DWORD PTR _vDefenseID$533667[ebp+4], esi
  0004c	89 b5 6c ff ff
	ff		 mov	 DWORD PTR _vDefenseID$533667[ebp+8], esi

; 142  : 			DefenseMap::iterator iCreate;
; 143  : 			for( iCreate = m_DefenseMap.begin() ; iCreate != m_DefenseMap.end() ; ++iCreate )

  00052	8b 47 08	 mov	 eax, DWORD PTR [edi+8]
  00055	89 75 fc	 mov	 DWORD PTR __$EHRec$[ebp+8], esi
  00058	8b 30		 mov	 esi, DWORD PTR [eax]
  0005a	89 75 9c	 mov	 DWORD PTR _iCreate$533668[ebp], esi
  0005d	3b f0		 cmp	 esi, eax
  0005f	75 27		 jne	 SHORT $LN76@Attach
$LN22@Attach:

; 188  : 				}
; 189  : 			}		
; 190  : 		}

  00061	83 4d fc ff	 or	 DWORD PTR __$EHRec$[ebp+8], -1
  00065	8d 8d 64 ff ff
	ff		 lea	 ecx, DWORD PTR _vDefenseID$533667[ebp]
  0006b	e8 00 00 00 00	 call	 ?_Tidy@?$vector@KV?$allocator@K@std@@@std@@IAEXXZ ; std::vector<unsigned long,std::allocator<unsigned long> >::_Tidy
$LN170@Attach:

; 191  : 	}
; 192  : 
; 193  : 	//  
; 194  : 	ioWeaponManager::WeaponIterator kIter = g_WeaponMgr.GetWeaponIterator();

  00070	8d 45 94	 lea	 eax, DWORD PTR _kIter$[ebp]
  00073	50		 push	 eax
  00074	e8 00 00 00 00	 call	 ?GetSingleton@ioWeaponManager@@SAAAV1@XZ ; ioWeaponManager::GetSingleton
  00079	8b c8		 mov	 ecx, eax
  0007b	e8 00 00 00 00	 call	 ?GetWeaponIterator@ioWeaponManager@@QAE?AV?$ioListIterator@V?$list@PAVioWeapon@@V?$allocator@PAVioWeapon@@@std@@@std@@@@XZ ; ioWeaponManager::GetWeaponIterator

; 195  : 	while( kIter.HasMoreElements() )

  00080	e9 99 07 00 00	 jmp	 $LN358@Attach
$LL361@Attach:

; 142  : 			DefenseMap::iterator iCreate;
; 143  : 			for( iCreate = m_DefenseMap.begin() ; iCreate != m_DefenseMap.end() ; ++iCreate )

  00085	8b 75 9c	 mov	 esi, DWORD PTR _iCreate$533668[ebp]
$LN76@Attach:

; 144  : 			{
; 145  : 				DefenseList &rkList = iCreate->second;
; 146  : 
; 147  : 				//  
; 148  : 				if( IsSkipType( rkList.m_WeaponSkipList, 0 ) ) continue;

  00088	6a 00		 push	 0
  0008a	8d 46 20	 lea	 eax, DWORD PTR [esi+32]
  0008d	50		 push	 eax
  0008e	8b cf		 mov	 ecx, edi
  00090	e8 00 00 00 00	 call	 ?IsSkipType@ioDefenseController@@IAE_NAAV?$vector@KV?$allocator@K@std@@@std@@K@Z ; ioDefenseController::IsSkipType
  00095	84 c0		 test	 al, al
  00097	0f 85 4d 02 00
	00		 jne	 $LN32@Attach

; 149  : 
; 150  : 				// 
; 151  : 				int iRandomRate = rand() % 100; 

  0009d	ff 15 00 00 00
	00		 call	 DWORD PTR __imp__rand
  000a3	6a 64		 push	 100			; 00000064H
  000a5	99		 cdq
  000a6	59		 pop	 ecx
  000a7	f7 f9		 idiv	 ecx
  000a9	89 55 a4	 mov	 DWORD PTR _iRandomRate$533676[ebp], edx

; 152  : 				if( iRandomRate > rkList.m_fDefenseRate * FLOAT100 ) continue;       //  

  000ac	b8 64 00 00 00	 mov	 eax, 100		; 00000064H
  000b1	db 45 a4	 fild	 DWORD PTR _iRandomRate$533676[ebp]
  000b4	d9 46 30	 fld	 DWORD PTR [esi+48]
  000b7	89 45 90	 mov	 DWORD PTR tv2121[ebp], eax
  000ba	db 45 90	 fild	 DWORD PTR tv2121[ebp]
  000bd	85 c0		 test	 eax, eax
  000bf	79 06		 jns	 SHORT $LN371@Attach
  000c1	d8 05 00 00 00
	00		 fadd	 DWORD PTR __real@4f800000
$LN371@Attach:
  000c7	de c9		 fmulp	 ST(1), ST(0)
  000c9	d9 c9		 fxch	 ST(1)
  000cb	df f1		 fcomip	 ST(1)
  000cd	dd d8		 fstp	 ST(0)
  000cf	0f 87 15 02 00
	00		 ja	 $LN32@Attach

; 153  : 
; 154  : 				//  
; 155  : 				if( fTargetRange > rkList.m_fDefenseRange * rkList.m_fDefenseRange ) continue;

  000d5	f3 0f 10 46 34	 movss	 xmm0, DWORD PTR [esi+52]
  000da	f3 0f 10 4d 10	 movss	 xmm1, DWORD PTR _fTargetRange$[ebp]
  000df	0f 5a c0	 cvtps2pd xmm0, xmm0
  000e2	0f 5a c9	 cvtps2pd xmm1, xmm1
  000e5	f2 0f 59 c0	 mulsd	 xmm0, xmm0
  000e9	66 0f 2f c8	 comisd	 xmm1, xmm0
  000ed	0f 87 f7 01 00
	00		 ja	 $LN32@Attach

; 156  : 
; 157  : 				//       : 180.0f    
; 158  : 				if( rkList.m_fDefenseDirection != 0.0f )

  000f3	f3 0f 10 4e 38	 movss	 xmm1, DWORD PTR [esi+56]
  000f8	0f 57 c0	 xorps	 xmm0, xmm0
  000fb	0f 2e c8	 ucomiss xmm1, xmm0
  000fe	9f		 lahf
  000ff	f6 c4 44	 test	 ah, 68			; 00000044H
  00102	0f 8b d3 01 00
	00		 jnp	 $LN24@Attach

; 159  : 				{
; 160  : 					if( pTarget )
; 161  : 					{
; 162  : 						//     
; 163  : 						D3DXVECTOR3 vPos = pOwner->GetMidPositionByRate( FLOAT08 ) + ( pOwner->GetTargetRot() * D3DXVECTOR3( 0.0f, 0.0f, -FLOAT1 ) );

  00108	b8 01 00 00 00	 mov	 eax, 1
  0010d	89 45 90	 mov	 DWORD PTR tv2103[ebp], eax
  00110	db 45 90	 fild	 DWORD PTR tv2103[ebp]
  00113	f3 0f 11 45 c0	 movss	 DWORD PTR $T533688[ebp], xmm0
  00118	f3 0f 11 45 c4	 movss	 DWORD PTR $T533688[ebp+4], xmm0
  0011d	85 c0		 test	 eax, eax
  0011f	79 06		 jns	 SHORT $LN372@Attach
  00121	d8 05 00 00 00
	00		 fadd	 DWORD PTR __real@4f800000
$LN372@Attach:
  00127	d9 e0		 fchs
  00129	d9 5d c8	 fstp	 DWORD PTR $T533688[ebp+8]
  0012c	b8 08 00 00 00	 mov	 eax, 8
  00131	89 45 a4	 mov	 DWORD PTR $T543182[ebp], eax
  00134	b8 0a 00 00 00	 mov	 eax, 10			; 0000000aH
  00139	89 45 8c	 mov	 DWORD PTR $T543186[ebp], eax
  0013c	8d 45 c0	 lea	 eax, DWORD PTR $T533688[ebp]
  0013f	50		 push	 eax
  00140	8d 83 a4 06 00
	00		 lea	 eax, DWORD PTR [ebx+1700]
  00146	50		 push	 eax
  00147	8d 45 a8	 lea	 eax, DWORD PTR $T533689[ebp]
  0014a	50		 push	 eax
  0014b	ff 15 00 00 00
	00		 call	 DWORD PTR __imp_??D@YA?AUD3DXVECTOR3@@ABUD3DXQUATERNION@@ABU0@@Z
  00151	db 45 a4	 fild	 DWORD PTR $T543182[ebp]
  00154	8b f0		 mov	 esi, eax
  00156	8b 45 a4	 mov	 eax, DWORD PTR $T543182[ebp]
  00159	85 c0		 test	 eax, eax
  0015b	79 06		 jns	 SHORT $LN373@Attach
  0015d	d8 05 00 00 00
	00		 fadd	 DWORD PTR __real@4f800000
$LN373@Attach:
  00163	8b 45 8c	 mov	 eax, DWORD PTR $T543186[ebp]
  00166	db 45 8c	 fild	 DWORD PTR $T543186[ebp]
  00169	85 c0		 test	 eax, eax
  0016b	79 06		 jns	 SHORT $LN374@Attach
  0016d	d8 05 00 00 00
	00		 fadd	 DWORD PTR __real@4f800000
$LN374@Attach:
  00173	de f9		 fdivp	 ST(1), ST(0)
  00175	83 c4 08	 add	 esp, 8
  00178	8d 45 b4	 lea	 eax, DWORD PTR $T533686[ebp]
  0017b	8b cb		 mov	 ecx, ebx
  0017d	d9 5d a4	 fstp	 DWORD PTR tv2087[ebp]
  00180	d9 45 a4	 fld	 DWORD PTR tv2087[ebp]
  00183	d9 1c 24	 fstp	 DWORD PTR [esp]
  00186	50		 push	 eax
  00187	e8 00 00 00 00	 call	 ?GetMidPositionByRate@ioGameEntity@@QBE?AUD3DXVECTOR3@@M@Z ; ioGameEntity::GetMidPositionByRate
  0018c	f3 0f 10 06	 movss	 xmm0, DWORD PTR [esi]
  00190	f3 0f 10 08	 movss	 xmm1, DWORD PTR [eax]
  00194	f3 0f 10 56 04	 movss	 xmm2, DWORD PTR [esi+4]
  00199	f3 0f 10 5e 08	 movss	 xmm3, DWORD PTR [esi+8]
  0019e	0f 5a c9	 cvtps2pd xmm1, xmm1
  001a1	0f 5a c0	 cvtps2pd xmm0, xmm0
  001a4	f2 0f 58 c1	 addsd	 xmm0, xmm1
  001a8	f3 0f 10 48 04	 movss	 xmm1, DWORD PTR [eax+4]
  001ad	0f 5a d2	 cvtps2pd xmm2, xmm2
  001b0	0f 5a c9	 cvtps2pd xmm1, xmm1
  001b3	f2 0f 58 ca	 addsd	 xmm1, xmm2
  001b7	f3 0f 10 50 08	 movss	 xmm2, DWORD PTR [eax+8]
  001bc	0f 5a d2	 cvtps2pd xmm2, xmm2
  001bf	0f 5a db	 cvtps2pd xmm3, xmm3
  001c2	f2 0f 58 d3	 addsd	 xmm2, xmm3
  001c6	66 0f 5a c0	 cvtpd2ps xmm0, xmm0
  001ca	66 0f 5a c9	 cvtpd2ps xmm1, xmm1
  001ce	66 0f 5a d2	 cvtpd2ps xmm2, xmm2
  001d2	f3 0f 11 45 cc	 movss	 DWORD PTR _vPos$533682[ebp], xmm0
  001d7	f3 0f 11 4d d0	 movss	 DWORD PTR _vPos$533682[ebp+4], xmm1
  001dc	f3 0f 11 55 d4	 movss	 DWORD PTR _vPos$533682[ebp+8], xmm2

; 164  : 						if( !pOwner->IsNpcTargetCharListByCylinder( vPos, rkList.m_fDefenseRange * rkList.m_fDefenseRange, 180.0f, FLOAT500, FLOAT500, pTarget ) ) continue;

  001e1	b8 f4 01 00 00	 mov	 eax, 500		; 000001f4H
  001e6	8b c8		 mov	 ecx, eax
  001e8	b8 f4 01 00 00	 mov	 eax, 500		; 000001f4H
  001ed	8b 55 9c	 mov	 edx, DWORD PTR _iCreate$533668[ebp]
  001f0	f3 0f 10 42 34	 movss	 xmm0, DWORD PTR [edx+52]
  001f5	ff b5 60 ff ff
	ff		 push	 DWORD PTR _pTarget$GSCopy$[ebp]
  001fb	89 4d 90	 mov	 DWORD PTR tv2066[ebp], ecx
  001fe	db 45 90	 fild	 DWORD PTR tv2066[ebp]
  00201	0f 5a c0	 cvtps2pd xmm0, xmm0
  00204	85 c9		 test	 ecx, ecx
  00206	79 06		 jns	 SHORT $LN375@Attach
  00208	d8 05 00 00 00
	00		 fadd	 DWORD PTR __real@4f800000
$LN375@Attach:
  0020e	83 ec 10	 sub	 esp, 16			; 00000010H
  00211	d9 5c 24 0c	 fstp	 DWORD PTR [esp+12]
  00215	89 45 90	 mov	 DWORD PTR tv2064[ebp], eax
  00218	db 45 90	 fild	 DWORD PTR tv2064[ebp]
  0021b	85 c0		 test	 eax, eax
  0021d	79 06		 jns	 SHORT $LN376@Attach
  0021f	d8 05 00 00 00
	00		 fadd	 DWORD PTR __real@4f800000
$LN376@Attach:
  00225	f3 0f 10 0d 00
	00 00 00	 movss	 xmm1, DWORD PTR __real@43340000
  0022d	d9 5c 24 08	 fstp	 DWORD PTR [esp+8]
  00231	f3 0f 11 4c 24
	04		 movss	 DWORD PTR [esp+4], xmm1
  00237	f2 0f 59 c0	 mulsd	 xmm0, xmm0
  0023b	66 0f 5a c0	 cvtpd2ps xmm0, xmm0
  0023f	8d 45 cc	 lea	 eax, DWORD PTR _vPos$533682[ebp]
  00242	f3 0f 11 04 24	 movss	 DWORD PTR [esp], xmm0
  00247	50		 push	 eax
  00248	8b cb		 mov	 ecx, ebx
  0024a	e8 00 00 00 00	 call	 ?IsNpcTargetCharListByCylinder@ioBaseChar@@QAE_NABUD3DXVECTOR3@@MMMMPAV1@@Z ; ioBaseChar::IsNpcTargetCharListByCylinder
  0024f	84 c0		 test	 al, al
  00251	0f 84 93 00 00
	00		 je	 $LN32@Attach

; 165  : 
; 166  : 						D3DXVECTOR3 vOwnerDir   = pOwner->GetMoveDir();

  00257	8d b3 b4 06 00
	00		 lea	 esi, DWORD PTR [ebx+1716]
  0025d	8d 7d d8	 lea	 edi, DWORD PTR _vOwnerDir$533694[ebp]
  00260	a5		 movsd
  00261	a5		 movsd
  00262	a5		 movsd

; 167  : 						D3DXVECTOR3 vCreatorDir = pTarget->GetMoveDir();

  00263	8b b5 60 ff ff
	ff		 mov	 esi, DWORD PTR _pTarget$GSCopy$[ebp]
  00269	81 c6 b4 06 00
	00		 add	 esi, 1716		; 000006b4H
  0026f	8d 7d e4	 lea	 edi, DWORD PTR _vCreatorDir$533695[ebp]
  00272	a5		 movsd

; 168  : 						D3DXVec3Normalize( &vOwnerDir, &vOwnerDir );

  00273	8d 45 d8	 lea	 eax, DWORD PTR _vOwnerDir$533694[ebp]
  00276	a5		 movsd
  00277	50		 push	 eax
  00278	50		 push	 eax
  00279	a5		 movsd
  0027a	e8 00 00 00 00	 call	 _D3DXVec3Normalize@8

; 169  : 						D3DXVec3Normalize( &vCreatorDir, &vCreatorDir );

  0027f	8d 45 e4	 lea	 eax, DWORD PTR _vCreatorDir$533695[ebp]
  00282	50		 push	 eax
  00283	50		 push	 eax
  00284	e8 00 00 00 00	 call	 _D3DXVec3Normalize@8

; 170  : 						float fCos = D3DXVec3Dot( &vCreatorDir, &vOwnerDir );

  00289	d9 45 e8	 fld	 DWORD PTR _vCreatorDir$533695[ebp+4]
  0028c	d8 4d dc	 fmul	 DWORD PTR _vOwnerDir$533694[ebp+4]
  0028f	d9 45 d8	 fld	 DWORD PTR _vOwnerDir$533694[ebp]
  00292	d8 4d e4	 fmul	 DWORD PTR _vCreatorDir$533695[ebp]
  00295	de c1		 faddp	 ST(1), ST(0)
  00297	d9 45 ec	 fld	 DWORD PTR _vCreatorDir$533695[ebp+8]
  0029a	d8 4d e0	 fmul	 DWORD PTR _vOwnerDir$533694[ebp+8]
  0029d	de c1		 faddp	 ST(1), ST(0)
  0029f	d9 5d a4	 fstp	 DWORD PTR _fCos$533696[ebp]

; 171  : 						float fRadian = acos( fCos );

  002a2	d9 45 a4	 fld	 DWORD PTR _fCos$533696[ebp]
  002a5	e8 00 00 00 00	 call	 __CIacos
  002aa	d9 5d a4	 fstp	 DWORD PTR tv2030[ebp]
  002ad	d9 45 a4	 fld	 DWORD PTR tv2030[ebp]

; 172  : 						float fDeg    = RADtoDEG(fRadian);

  002b0	51		 push	 ecx
  002b1	d9 5d a4	 fstp	 DWORD PTR _fRadian$533697[ebp]
  002b4	f3 0f 10 45 a4	 movss	 xmm0, DWORD PTR _fRadian$533697[ebp]
  002b9	f3 0f 11 04 24	 movss	 DWORD PTR [esp], xmm0
  002be	e8 00 00 00 00	 call	 ??$RADtoDEG@M@@YAMM@Z	; RADtoDEG<float>
  002c3	d9 5d a4	 fstp	 DWORD PTR _fDeg$533698[ebp]

; 173  : 						if( fDeg < rkList.m_fDefenseDirection ) continue;

  002c6	d9 45 a4	 fld	 DWORD PTR _fDeg$533698[ebp]
  002c9	8b 45 9c	 mov	 eax, DWORD PTR _iCreate$533668[ebp]
  002cc	d9 40 38	 fld	 DWORD PTR [eax+56]
  002cf	8b 7d 88	 mov	 edi, DWORD PTR _this$GSCopy$[ebp]
  002d2	df f1		 fcomip	 ST(1)
  002d4	dd d8		 fstp	 ST(0)
  002d6	59		 pop	 ecx
  002d7	77 11		 ja	 SHORT $LN32@Attach
  002d9	8b f0		 mov	 esi, eax
$LN24@Attach:

; 174  : 					}
; 175  : 				}
; 176  : 
; 177  : 				vDefenseID.push_back( iCreate->first );

  002db	83 c6 0c	 add	 esi, 12			; 0000000cH
  002de	56		 push	 esi
  002df	8d 8d 64 ff ff
	ff		 lea	 ecx, DWORD PTR _vDefenseID$533667[ebp]
  002e5	e8 00 00 00 00	 call	 ?push_back@?$vector@KV?$allocator@K@std@@@std@@QAEXABK@Z ; std::vector<unsigned long,std::allocator<unsigned long> >::push_back
$LN32@Attach:

; 142  : 			DefenseMap::iterator iCreate;
; 143  : 			for( iCreate = m_DefenseMap.begin() ; iCreate != m_DefenseMap.end() ; ++iCreate )

  002ea	8d 4d 9c	 lea	 ecx, DWORD PTR _iCreate$533668[ebp]
  002ed	e8 00 00 00 00	 call	 ??E?$_Tree_unchecked_const_iterator@V?$_Tree_val@V?$_Tmap_traits@KUDefenseList@ioDefenseController@@U?$less@K@std@@V?$allocator@U?$pair@$$CBKUDefenseList@ioDefenseController@@@std@@@4@$0A@@std@@@std@@U_Iterator_base0@2@@std@@QAEAAV01@XZ ; std::_Tree_unchecked_const_iterator<std::_Tree_val<std::_Tmap_traits<unsigned long,ioDefenseController::DefenseList,std::less<unsigned long>,std::allocator<std::pair<unsigned long const ,ioDefenseController::DefenseList> >,0> >,std::_Iterator_base0>::operator++
  002f2	8b 47 08	 mov	 eax, DWORD PTR [edi+8]
  002f5	39 45 9c	 cmp	 DWORD PTR _iCreate$533668[ebp], eax
  002f8	0f 85 87 fd ff
	ff		 jne	 $LL361@Attach

; 178  : 			}
; 179  : 
; 180  : 			if( !vDefenseID.empty() )

  002fe	8b 85 68 ff ff
	ff		 mov	 eax, DWORD PTR _vDefenseID$533667[ebp+4]
  00304	39 85 64 ff ff
	ff		 cmp	 DWORD PTR _vDefenseID$533667[ebp], eax
  0030a	0f 84 51 fd ff
	ff		 je	 $LN22@Attach

; 181  : 			{
; 182  : 				int r = rand()%vDefenseID.size();

  00310	2b 85 64 ff ff
	ff		 sub	 eax, DWORD PTR _vDefenseID$533667[ebp]
  00316	c1 f8 02	 sar	 eax, 2
  00319	8b f0		 mov	 esi, eax
  0031b	ff 15 00 00 00
	00		 call	 DWORD PTR __imp__rand
  00321	33 d2		 xor	 edx, edx
  00323	f7 f6		 div	 esi

; 183  : 				DefenseMap::iterator iter = m_DefenseMap.find( vDefenseID[r] );

  00325	8b 85 64 ff ff
	ff		 mov	 eax, DWORD PTR _vDefenseID$533667[ebp]
  0032b	8d 4f 04	 lea	 ecx, DWORD PTR [edi+4]
  0032e	8d 04 90	 lea	 eax, DWORD PTR [eax+edx*4]
  00331	50		 push	 eax
  00332	8d 45 a4	 lea	 eax, DWORD PTR _iter$533702[ebp]
  00335	50		 push	 eax
  00336	e8 00 00 00 00	 call	 ?find@?$_Tree@V?$_Tmap_traits@KUDefenseList@ioDefenseController@@U?$less@K@std@@V?$allocator@U?$pair@$$CBKUDefenseList@ioDefenseController@@@std@@@4@$0A@@std@@@std@@QAE?AV?$_Tree_iterator@V?$_Tree_val@V?$_Tmap_traits@KUDefenseList@ioDefenseController@@U?$less@K@std@@V?$allocator@U?$pair@$$CBKUDefenseList@ioDefenseController@@@std@@@4@$0A@@std@@@std@@@2@ABK@Z ; std::_Tree<std::_Tmap_traits<unsigned long,ioDefenseController::DefenseList,std::less<unsigned long>,std::allocator<std::pair<unsigned long const ,ioDefenseController::DefenseList> >,0> >::find

; 184  : 				if( iter != m_DefenseMap.end() )

  0033b	8b 4d a4	 mov	 ecx, DWORD PTR _iter$533702[ebp]
  0033e	3b 4f 08	 cmp	 ecx, DWORD PTR [edi+8]
  00341	0f 84 1a fd ff
	ff		 je	 $LN22@Attach

; 185  : 				{
; 186  : 					AttachDefenseData( iter->second, 0 );

  00347	83 c1 10	 add	 ecx, 16			; 00000010H
  0034a	6a 00		 push	 0
  0034c	51		 push	 ecx
  0034d	8b cf		 mov	 ecx, edi
  0034f	e8 00 00 00 00	 call	 ?AttachDefenseData@ioDefenseController@@IAEXAAUDefenseList@1@K@Z ; ioDefenseController::AttachDefenseData

; 187  : 					return true;

  00354	8d 8d 64 ff ff
	ff		 lea	 ecx, DWORD PTR _vDefenseID$533667[ebp]
$LN386@Attach:
  0035a	83 4d fc ff	 or	 DWORD PTR __$EHRec$[ebp+8], -1
  0035e	e8 00 00 00 00	 call	 ?_Tidy@?$vector@KV?$allocator@K@std@@@std@@IAEXXZ ; std::vector<unsigned long,std::allocator<unsigned long> >::_Tidy
  00363	b0 01		 mov	 al, 1
  00365	e9 c2 04 00 00	 jmp	 $LN38@Attach
$LL21@Attach:

; 196  : 	{
; 197  : 		ioWeapon *pWeapon = kIter.Next();

  0036a	8b 08		 mov	 ecx, DWORD PTR [eax]
  0036c	89 4d 94	 mov	 DWORD PTR _kIter$[ebp], ecx
  0036f	8b 70 08	 mov	 esi, DWORD PTR [eax+8]

; 198  : 		if( !pWeapon->IsLive() ) continue;

  00372	80 be 82 05 00
	00 00		 cmp	 BYTE PTR [esi+1410], 0
  00379	89 75 8c	 mov	 DWORD PTR _pWeapon$533863[ebp], esi
  0037c	0f 84 9c 04 00
	00		 je	 $LN358@Attach

; 199  : 		if( pWeapon->GetDefenseBreakType() != DBT_NONE ) continue;			//      .

  00382	8b ce		 mov	 ecx, esi
  00384	e8 00 00 00 00	 call	 ?GetDefenseBreakType@ioWeapon@@QBE?AW4DefenseBreakType@@XZ ; ioWeapon::GetDefenseBreakType
  00389	85 c0		 test	 eax, eax
  0038b	0f 85 8d 04 00
	00		 jne	 $LN358@Attach

; 200  : 		if( pWeapon->GetTeam() == pOwner->GetTeam() ) continue;

  00391	8d 85 58 ff ff
	ff		 lea	 eax, DWORD PTR _value$543431[ebp]
  00397	8d 4e 30	 lea	 ecx, DWORD PTR [esi+48]
  0039a	50		 push	 eax
  0039b	e8 00 00 00 00	 call	 ?DecryptValueToPool@?$CEncrypt@W4TeamType@@@@QAEXPAW4TeamType@@@Z ; CEncrypt<enum TeamType>::DecryptValueToPool
  003a0	8d 85 5c ff ff
	ff		 lea	 eax, DWORD PTR _value$543444[ebp]
  003a6	8d 8b 90 00 00
	00		 lea	 ecx, DWORD PTR [ebx+144]
  003ac	50		 push	 eax
  003ad	e8 00 00 00 00	 call	 ?DecryptValueToPool@?$CEncrypt@W4TeamType@@@@QAEXPAW4TeamType@@@Z ; CEncrypt<enum TeamType>::DecryptValueToPool
  003b2	8b 85 58 ff ff
	ff		 mov	 eax, DWORD PTR _value$543431[ebp]
  003b8	3b 85 5c ff ff
	ff		 cmp	 eax, DWORD PTR _value$543444[ebp]
  003be	0f 84 5a 04 00
	00		 je	 $LN358@Attach

; 201  : 			
; 202  : 		DWORDVec vDefenseID;

  003c4	33 c0		 xor	 eax, eax
  003c6	89 85 74 ff ff
	ff		 mov	 DWORD PTR _vDefenseID$533867[ebp], eax
  003cc	89 85 78 ff ff
	ff		 mov	 DWORD PTR _vDefenseID$533867[ebp+4], eax
  003d2	89 85 7c ff ff
	ff		 mov	 DWORD PTR _vDefenseID$533867[ebp+8], eax

; 203  : 		DefenseMap::iterator iCreate;
; 204  : 		for( iCreate = m_DefenseMap.begin() ; iCreate != m_DefenseMap.end() ; ++iCreate )

  003d8	8b 47 08	 mov	 eax, DWORD PTR [edi+8]
  003db	8b 08		 mov	 ecx, DWORD PTR [eax]
  003dd	c7 45 fc 01 00
	00 00		 mov	 DWORD PTR __$EHRec$[ebp+8], 1
  003e4	89 4d 9c	 mov	 DWORD PTR _iCreate$533868[ebp], ecx
  003e7	3b c8		 cmp	 ecx, eax
  003e9	0f 84 20 04 00
	00		 je	 $LN359@Attach
$LN236@Attach:

; 205  : 		{
; 206  : 			DefenseList &rkList = iCreate->second;
; 207  : 
; 208  : 			//  
; 209  : 			if( IsSkipType( rkList.m_WeaponSkipList, pWeapon->GetType() ) ) continue;

  003ef	8b 06		 mov	 eax, DWORD PTR [esi]
  003f1	8b ce		 mov	 ecx, esi
  003f3	ff 90 10 01 00
	00		 call	 DWORD PTR [eax+272]
  003f9	50		 push	 eax
  003fa	8b 45 9c	 mov	 eax, DWORD PTR _iCreate$533868[ebp]
  003fd	83 c0 20	 add	 eax, 32			; 00000020H
  00400	50		 push	 eax
  00401	8b cf		 mov	 ecx, edi
  00403	e8 00 00 00 00	 call	 ?IsSkipType@ioDefenseController@@IAE_NAAV?$vector@KV?$allocator@K@std@@@std@@K@Z ; ioDefenseController::IsSkipType
  00408	84 c0		 test	 al, al
  0040a	0f 85 aa 03 00
	00		 jne	 $LN15@Attach

; 210  : 			
; 211  : 			// 
; 212  : 			int iRandomRate = rand() % 100; 

  00410	ff 15 00 00 00
	00		 call	 DWORD PTR __imp__rand
  00416	6a 64		 push	 100			; 00000064H
  00418	99		 cdq
  00419	59		 pop	 ecx
  0041a	f7 f9		 idiv	 ecx
  0041c	89 55 a4	 mov	 DWORD PTR _iRandomRate$533876[ebp], edx

; 213  : 			if( iRandomRate > rkList.m_fDefenseRate * FLOAT100 ) continue;       //  

  0041f	b8 64 00 00 00	 mov	 eax, 100		; 00000064H
  00424	db 45 a4	 fild	 DWORD PTR _iRandomRate$533876[ebp]
  00427	8b 4d 9c	 mov	 ecx, DWORD PTR _iCreate$533868[ebp]
  0042a	d9 41 30	 fld	 DWORD PTR [ecx+48]
  0042d	89 45 a0	 mov	 DWORD PTR tv1994[ebp], eax
  00430	db 45 a0	 fild	 DWORD PTR tv1994[ebp]
  00433	85 c0		 test	 eax, eax
  00435	79 06		 jns	 SHORT $LN377@Attach
  00437	d8 05 00 00 00
	00		 fadd	 DWORD PTR __real@4f800000
$LN377@Attach:
  0043d	de c9		 fmulp	 ST(1), ST(0)
  0043f	d9 c9		 fxch	 ST(1)
  00441	df f1		 fcomip	 ST(1)
  00443	dd d8		 fstp	 ST(0)
  00445	0f 87 6f 03 00
	00		 ja	 $LN15@Attach

; 214  : 			
; 215  : 			//  
; 216  : 			D3DXVECTOR3 vDiff = pWeapon->GetPosition() - pOwner->GetWorldPosition();

  0044b	8b 03		 mov	 eax, DWORD PTR [ebx]
  0044d	8b cb		 mov	 ecx, ebx
  0044f	ff 50 70	 call	 DWORD PTR [eax+112]
  00452	89 45 a4	 mov	 DWORD PTR $T543627[ebp], eax
  00455	8b 06		 mov	 eax, DWORD PTR [esi]
  00457	8b ce		 mov	 ecx, esi
  00459	ff 50 70	 call	 DWORD PTR [eax+112]
  0045c	8b 4d a4	 mov	 ecx, DWORD PTR $T543627[ebp]
  0045f	f3 0f 10 00	 movss	 xmm0, DWORD PTR [eax]
  00463	f3 0f 10 09	 movss	 xmm1, DWORD PTR [ecx]
  00467	f3 0f 10 51 04	 movss	 xmm2, DWORD PTR [ecx+4]
  0046c	f3 0f 10 59 08	 movss	 xmm3, DWORD PTR [ecx+8]
  00471	0f 5a c9	 cvtps2pd xmm1, xmm1
  00474	0f 5a c0	 cvtps2pd xmm0, xmm0
  00477	f2 0f 5c c1	 subsd	 xmm0, xmm1
  0047b	f3 0f 10 48 04	 movss	 xmm1, DWORD PTR [eax+4]
  00480	0f 5a c9	 cvtps2pd xmm1, xmm1
  00483	0f 5a d2	 cvtps2pd xmm2, xmm2
  00486	f2 0f 5c ca	 subsd	 xmm1, xmm2
  0048a	f3 0f 10 50 08	 movss	 xmm2, DWORD PTR [eax+8]

; 217  : 			float fDistSq =  D3DXVec3LengthSq( &vDiff );	
; 218  : 			if( fDistSq > rkList.m_fDefenseRange * rkList.m_fDefenseRange ) continue;

  0048f	8b 45 9c	 mov	 eax, DWORD PTR _iCreate$533868[ebp]
  00492	66 0f 5a c9	 cvtpd2ps xmm1, xmm1
  00496	66 0f 5a c0	 cvtpd2ps xmm0, xmm0
  0049a	0f 5a d2	 cvtps2pd xmm2, xmm2
  0049d	f3 0f 5a c9	 cvtss2sd xmm1, xmm1
  004a1	f3 0f 5a c0	 cvtss2sd xmm0, xmm0
  004a5	0f 5a db	 cvtps2pd xmm3, xmm3
  004a8	f2 0f 5c d3	 subsd	 xmm2, xmm3
  004ac	f2 0f 59 c9	 mulsd	 xmm1, xmm1
  004b0	f2 0f 59 c0	 mulsd	 xmm0, xmm0
  004b4	f2 0f 58 c8	 addsd	 xmm1, xmm0
  004b8	f3 0f 10 40 34	 movss	 xmm0, DWORD PTR [eax+52]
  004bd	66 0f 5a d2	 cvtpd2ps xmm2, xmm2
  004c1	f3 0f 5a d2	 cvtss2sd xmm2, xmm2
  004c5	f2 0f 59 d2	 mulsd	 xmm2, xmm2
  004c9	f2 0f 58 ca	 addsd	 xmm1, xmm2
  004cd	66 0f 5a c9	 cvtpd2ps xmm1, xmm1
  004d1	0f 5a c0	 cvtps2pd xmm0, xmm0
  004d4	f3 0f 5a c9	 cvtss2sd xmm1, xmm1
  004d8	f2 0f 59 c0	 mulsd	 xmm0, xmm0
  004dc	66 0f 2f c8	 comisd	 xmm1, xmm0
  004e0	0f 87 d4 02 00
	00		 ja	 $LN15@Attach

; 219  : 
; 220  : 			//       : 180.0f    
; 221  : 			if( rkList.m_fDefenseDirection != 0.0f )

  004e6	f3 0f 10 40 38	 movss	 xmm0, DWORD PTR [eax+56]
  004eb	0f 2e 05 00 00
	00 00		 ucomiss xmm0, DWORD PTR __real@00000000
  004f2	9f		 lahf
  004f3	f6 c4 44	 test	 ah, 68			; 00000044H
  004f6	0f 8b a7 02 00
	00		 jnp	 $LN3@Attach

; 222  : 			{
; 223  : 				ioBaseChar *pWeaponOwner = pWeapon->GetOwner();

  004fc	8b ce		 mov	 ecx, esi
  004fe	e8 00 00 00 00	 call	 ?GetOwner@ioWeapon@@QBEPAVioBaseChar@@XZ ; ioWeapon::GetOwner
  00503	89 45 a4	 mov	 DWORD PTR _pWeaponOwner$533884[ebp], eax

; 224  : 				if( pWeaponOwner )

  00506	85 c0		 test	 eax, eax
  00508	0f 84 95 02 00
	00		 je	 $LN3@Attach

; 225  : 				{
; 226  : 					//   
; 227  : 					if( pWeapon->GetType() == ioWeapon::WT_MINE )

  0050e	8b 06		 mov	 eax, DWORD PTR [esi]
  00510	8b ce		 mov	 ecx, esi
  00512	ff 90 10 01 00
	00		 call	 DWORD PTR [eax+272]
  00518	83 f8 05	 cmp	 eax, 5
  0051b	0f 85 b1 00 00
	00		 jne	 $LN8@Attach

; 228  : 					{
; 229  : 						if( pTarget )	

  00521	83 bd 60 ff ff
	ff 00		 cmp	 DWORD PTR _pTarget$GSCopy$[ebp], 0
  00528	0f 84 75 02 00
	00		 je	 $LN3@Attach

; 230  : 						{
; 231  : 							//      
; 232  : 							float fAngle1   = GetAngle( pTarget->GetWorldPosition(), pOwner->GetWorldPosition() );

  0052e	8b 03		 mov	 eax, DWORD PTR [ebx]
  00530	8b cb		 mov	 ecx, ebx
  00532	ff 50 70	 call	 DWORD PTR [eax+112]
  00535	8b 8d 60 ff ff
	ff		 mov	 ecx, DWORD PTR _pTarget$GSCopy$[ebp]
  0053b	8b f0		 mov	 esi, eax
  0053d	8b 01		 mov	 eax, DWORD PTR [ecx]
  0053f	ff 50 70	 call	 DWORD PTR [eax+112]
  00542	8b 4d 88	 mov	 ecx, DWORD PTR _this$GSCopy$[ebp]
  00545	83 ec 0c	 sub	 esp, 12			; 0000000cH
  00548	8b fc		 mov	 edi, esp
  0054a	a5		 movsd
  0054b	a5		 movsd
  0054c	a5		 movsd
  0054d	83 ec 0c	 sub	 esp, 12			; 0000000cH
  00550	8b f0		 mov	 esi, eax
  00552	8b fc		 mov	 edi, esp
  00554	a5		 movsd
  00555	a5		 movsd
  00556	a5		 movsd
  00557	e8 00 00 00 00	 call	 ?GetAngle@ioDefenseController@@IAEMUD3DXVECTOR3@@0@Z ; ioDefenseController::GetAngle

; 233  : 							float fAngle2   = GetAngle( pWeapon->GetPosition(), pOwner->GetWorldPosition() );

  0055c	8b 03		 mov	 eax, DWORD PTR [ebx]
  0055e	8b cb		 mov	 ecx, ebx
  00560	d9 5d 84	 fstp	 DWORD PTR _fAngle1$533888[ebp]
  00563	ff 50 70	 call	 DWORD PTR [eax+112]
  00566	8b 4d 8c	 mov	 ecx, DWORD PTR _pWeapon$533863[ebp]
  00569	8b f0		 mov	 esi, eax
  0056b	8b 01		 mov	 eax, DWORD PTR [ecx]
  0056d	ff 50 70	 call	 DWORD PTR [eax+112]
  00570	8b 4d 88	 mov	 ecx, DWORD PTR _this$GSCopy$[ebp]
  00573	83 ec 0c	 sub	 esp, 12			; 0000000cH
  00576	8b fc		 mov	 edi, esp
  00578	a5		 movsd
  00579	a5		 movsd
  0057a	a5		 movsd
  0057b	83 ec 0c	 sub	 esp, 12			; 0000000cH
  0057e	8b f0		 mov	 esi, eax
  00580	8b fc		 mov	 edi, esp
  00582	a5		 movsd
  00583	a5		 movsd
  00584	a5		 movsd
  00585	e8 00 00 00 00	 call	 ?GetAngle@ioDefenseController@@IAEMUD3DXVECTOR3@@0@Z ; ioDefenseController::GetAngle

; 234  : 							float fGapAngle = fabs( ioMath::AngleGap( fAngle1, fAngle2 ) );

  0058a	51		 push	 ecx
  0058b	51		 push	 ecx
  0058c	d9 5d a4	 fstp	 DWORD PTR _fAngle2$533889[ebp]
  0058f	f3 0f 10 45 a4	 movss	 xmm0, DWORD PTR _fAngle2$533889[ebp]
  00594	f3 0f 11 44 24
	04		 movss	 DWORD PTR [esp+4], xmm0
  0059a	f3 0f 10 45 84	 movss	 xmm0, DWORD PTR _fAngle1$533888[ebp]
  0059f	f3 0f 11 04 24	 movss	 DWORD PTR [esp], xmm0
  005a4	ff 15 00 00 00
	00		 call	 DWORD PTR __imp_?AngleGap@ioMath@@SAMMM@Z
  005aa	d9 5d 84	 fstp	 DWORD PTR $T543639[ebp]
  005ad	f3 0f 10 45 84	 movss	 xmm0, DWORD PTR $T543639[ebp]
  005b2	f2 0f 10 0d 00
	00 00 00	 movsd	 xmm1, QWORD PTR __mask@@AbsDouble@
  005ba	0f 5a c0	 cvtps2pd xmm0, xmm0
  005bd	66 0f 54 c1	 andpd	 xmm0, xmm1
  005c1	f2 0f 5a c0	 cvtsd2ss xmm0, xmm0

; 235  : 							if( fGapAngle > 45.0f ) continue;

  005c5	0f 2f 05 00 00
	00 00		 comiss	 xmm0, DWORD PTR __real@42340000
  005cc	59		 pop	 ecx

; 236  : 						}
; 237  : 					}
; 238  : 					else

  005cd	e9 c8 01 00 00	 jmp	 $LN384@Attach
$LN8@Attach:

; 239  : 					{
; 240  : 						//     
; 241  : 						D3DXVECTOR3 vPos = pOwner->GetMidPositionByRate( FLOAT08 ) + ( pOwner->GetTargetRot() * D3DXVECTOR3( 0.0f, 0.0f, -FLOAT1 ) );

  005d2	b8 01 00 00 00	 mov	 eax, 1
  005d7	0f 57 c0	 xorps	 xmm0, xmm0
  005da	89 45 a0	 mov	 DWORD PTR tv1901[ebp], eax
  005dd	db 45 a0	 fild	 DWORD PTR tv1901[ebp]
  005e0	f3 0f 11 45 c0	 movss	 DWORD PTR $T533899[ebp], xmm0
  005e5	f3 0f 11 45 c4	 movss	 DWORD PTR $T533899[ebp+4], xmm0
  005ea	85 c0		 test	 eax, eax
  005ec	79 06		 jns	 SHORT $LN378@Attach
  005ee	d8 05 00 00 00
	00		 fadd	 DWORD PTR __real@4f800000
$LN378@Attach:
  005f4	d9 e0		 fchs
  005f6	d9 5d c8	 fstp	 DWORD PTR $T533899[ebp+8]
  005f9	b8 08 00 00 00	 mov	 eax, 8
  005fe	89 45 84	 mov	 DWORD PTR $T543653[ebp], eax
  00601	b8 0a 00 00 00	 mov	 eax, 10			; 0000000aH
  00606	89 45 a0	 mov	 DWORD PTR $T543657[ebp], eax
  00609	8d 45 c0	 lea	 eax, DWORD PTR $T533899[ebp]
  0060c	50		 push	 eax
  0060d	8d 83 a4 06 00
	00		 lea	 eax, DWORD PTR [ebx+1700]
  00613	50		 push	 eax
  00614	8d 45 b4	 lea	 eax, DWORD PTR $T533900[ebp]
  00617	50		 push	 eax
  00618	ff 15 00 00 00
	00		 call	 DWORD PTR __imp_??D@YA?AUD3DXVECTOR3@@ABUD3DXQUATERNION@@ABU0@@Z
  0061e	db 45 84	 fild	 DWORD PTR $T543653[ebp]
  00621	8b f0		 mov	 esi, eax
  00623	8b 45 84	 mov	 eax, DWORD PTR $T543653[ebp]
  00626	85 c0		 test	 eax, eax
  00628	79 06		 jns	 SHORT $LN379@Attach
  0062a	d8 05 00 00 00
	00		 fadd	 DWORD PTR __real@4f800000
$LN379@Attach:
  00630	8b 45 a0	 mov	 eax, DWORD PTR $T543657[ebp]
  00633	db 45 a0	 fild	 DWORD PTR $T543657[ebp]
  00636	85 c0		 test	 eax, eax
  00638	79 06		 jns	 SHORT $LN380@Attach
  0063a	d8 05 00 00 00
	00		 fadd	 DWORD PTR __real@4f800000
$LN380@Attach:
  00640	de f9		 fdivp	 ST(1), ST(0)
  00642	83 c4 08	 add	 esp, 8
  00645	8d 45 a8	 lea	 eax, DWORD PTR $T533897[ebp]
  00648	8b cb		 mov	 ecx, ebx
  0064a	d9 5d a0	 fstp	 DWORD PTR tv1885[ebp]
  0064d	d9 45 a0	 fld	 DWORD PTR tv1885[ebp]
  00650	d9 1c 24	 fstp	 DWORD PTR [esp]
  00653	50		 push	 eax
  00654	e8 00 00 00 00	 call	 ?GetMidPositionByRate@ioGameEntity@@QBE?AUD3DXVECTOR3@@M@Z ; ioGameEntity::GetMidPositionByRate
  00659	f3 0f 10 00	 movss	 xmm0, DWORD PTR [eax]
  0065d	f3 0f 10 0e	 movss	 xmm1, DWORD PTR [esi]
  00661	f3 0f 10 50 04	 movss	 xmm2, DWORD PTR [eax+4]
  00666	f3 0f 10 58 08	 movss	 xmm3, DWORD PTR [eax+8]
  0066b	0f 5a c9	 cvtps2pd xmm1, xmm1
  0066e	0f 5a c0	 cvtps2pd xmm0, xmm0
  00671	f2 0f 58 c1	 addsd	 xmm0, xmm1
  00675	f3 0f 10 4e 04	 movss	 xmm1, DWORD PTR [esi+4]
  0067a	0f 5a d2	 cvtps2pd xmm2, xmm2
  0067d	0f 5a c9	 cvtps2pd xmm1, xmm1
  00680	f2 0f 58 ca	 addsd	 xmm1, xmm2
  00684	f3 0f 10 56 08	 movss	 xmm2, DWORD PTR [esi+8]
  00689	0f 5a d2	 cvtps2pd xmm2, xmm2
  0068c	0f 5a db	 cvtps2pd xmm3, xmm3
  0068f	f2 0f 58 d3	 addsd	 xmm2, xmm3
  00693	66 0f 5a c0	 cvtpd2ps xmm0, xmm0
  00697	66 0f 5a c9	 cvtpd2ps xmm1, xmm1
  0069b	66 0f 5a d2	 cvtpd2ps xmm2, xmm2
  0069f	f3 0f 11 45 cc	 movss	 DWORD PTR _vPos$533893[ebp], xmm0
  006a4	f3 0f 11 4d d0	 movss	 DWORD PTR _vPos$533893[ebp+4], xmm1
  006a9	f3 0f 11 55 d4	 movss	 DWORD PTR _vPos$533893[ebp+8], xmm2

; 242  : 						if( !pOwner->IsNpcTargetCharListByCylinder( vPos, rkList.m_fDefenseRange * rkList.m_fDefenseRange, 180.0f, FLOAT500, FLOAT500, pWeaponOwner ) ) continue;

  006ae	b8 f4 01 00 00	 mov	 eax, 500		; 000001f4H
  006b3	8b c8		 mov	 ecx, eax
  006b5	b8 f4 01 00 00	 mov	 eax, 500		; 000001f4H
  006ba	8b 55 9c	 mov	 edx, DWORD PTR _iCreate$533868[ebp]
  006bd	f3 0f 10 42 34	 movss	 xmm0, DWORD PTR [edx+52]
  006c2	ff 75 a4	 push	 DWORD PTR _pWeaponOwner$533884[ebp]
  006c5	89 4d a0	 mov	 DWORD PTR tv1864[ebp], ecx
  006c8	db 45 a0	 fild	 DWORD PTR tv1864[ebp]
  006cb	0f 5a c0	 cvtps2pd xmm0, xmm0
  006ce	85 c9		 test	 ecx, ecx
  006d0	79 06		 jns	 SHORT $LN381@Attach
  006d2	d8 05 00 00 00
	00		 fadd	 DWORD PTR __real@4f800000
$LN381@Attach:
  006d8	83 ec 10	 sub	 esp, 16			; 00000010H
  006db	89 45 a0	 mov	 DWORD PTR tv1862[ebp], eax
  006de	d9 5c 24 0c	 fstp	 DWORD PTR [esp+12]
  006e2	db 45 a0	 fild	 DWORD PTR tv1862[ebp]
  006e5	85 c0		 test	 eax, eax
  006e7	79 06		 jns	 SHORT $LN382@Attach
  006e9	d8 05 00 00 00
	00		 fadd	 DWORD PTR __real@4f800000
$LN382@Attach:
  006ef	f3 0f 10 0d 00
	00 00 00	 movss	 xmm1, DWORD PTR __real@43340000
  006f7	d9 5c 24 08	 fstp	 DWORD PTR [esp+8]
  006fb	f3 0f 11 4c 24
	04		 movss	 DWORD PTR [esp+4], xmm1
  00701	f2 0f 59 c0	 mulsd	 xmm0, xmm0
  00705	66 0f 5a c0	 cvtpd2ps xmm0, xmm0
  00709	8d 45 cc	 lea	 eax, DWORD PTR _vPos$533893[ebp]
  0070c	f3 0f 11 04 24	 movss	 DWORD PTR [esp], xmm0
  00711	50		 push	 eax
  00712	8b cb		 mov	 ecx, ebx
  00714	e8 00 00 00 00	 call	 ?IsNpcTargetCharListByCylinder@ioBaseChar@@QAE_NABUD3DXVECTOR3@@MMMMPAV1@@Z ; ioBaseChar::IsNpcTargetCharListByCylinder
  00719	84 c0		 test	 al, al
  0071b	0f 84 96 00 00
	00		 je	 $LN368@Attach

; 243  : 
; 244  : 						D3DXVECTOR3 vOwnerDir   = pOwner->GetMoveDir();

  00721	8d b3 b4 06 00
	00		 lea	 esi, DWORD PTR [ebx+1716]
  00727	8d 7d e4	 lea	 edi, DWORD PTR _vOwnerDir$533905[ebp]
  0072a	a5		 movsd
  0072b	a5		 movsd
  0072c	a5		 movsd

; 245  : 						D3DXVECTOR3 vCreatorDir = pWeaponOwner->GetMoveDir();

  0072d	8b 75 a4	 mov	 esi, DWORD PTR _pWeaponOwner$533884[ebp]
  00730	81 c6 b4 06 00
	00		 add	 esi, 1716		; 000006b4H
  00736	8d 7d d8	 lea	 edi, DWORD PTR _vCreatorDir$533906[ebp]
  00739	a5		 movsd

; 246  : 						D3DXVec3Normalize( &vOwnerDir, &vOwnerDir );

  0073a	8d 45 e4	 lea	 eax, DWORD PTR _vOwnerDir$533905[ebp]
  0073d	a5		 movsd
  0073e	50		 push	 eax
  0073f	50		 push	 eax
  00740	a5		 movsd
  00741	e8 00 00 00 00	 call	 _D3DXVec3Normalize@8

; 247  : 						D3DXVec3Normalize( &vCreatorDir, &vCreatorDir );

  00746	8d 45 d8	 lea	 eax, DWORD PTR _vCreatorDir$533906[ebp]
  00749	50		 push	 eax
  0074a	50		 push	 eax
  0074b	e8 00 00 00 00	 call	 _D3DXVec3Normalize@8

; 248  : 						float fCos = D3DXVec3Dot( &vCreatorDir, &vOwnerDir );

  00750	d9 45 e4	 fld	 DWORD PTR _vOwnerDir$533905[ebp]
  00753	d8 4d d8	 fmul	 DWORD PTR _vCreatorDir$533906[ebp]
  00756	d9 45 dc	 fld	 DWORD PTR _vCreatorDir$533906[ebp+4]
  00759	d8 4d e8	 fmul	 DWORD PTR _vOwnerDir$533905[ebp+4]
  0075c	de c1		 faddp	 ST(1), ST(0)
  0075e	d9 45 e0	 fld	 DWORD PTR _vCreatorDir$533906[ebp+8]
  00761	d8 4d ec	 fmul	 DWORD PTR _vOwnerDir$533905[ebp+8]
  00764	de c1		 faddp	 ST(1), ST(0)
  00766	d9 5d a0	 fstp	 DWORD PTR _fCos$533907[ebp]

; 249  : 						float fRadian = acos( fCos );

  00769	d9 45 a0	 fld	 DWORD PTR _fCos$533907[ebp]
  0076c	e8 00 00 00 00	 call	 __CIacos
  00771	d9 5d a0	 fstp	 DWORD PTR tv1827[ebp]
  00774	d9 45 a0	 fld	 DWORD PTR tv1827[ebp]

; 250  : 						float fDeg    = RADtoDEG(fRadian);

  00777	51		 push	 ecx
  00778	d9 5d a0	 fstp	 DWORD PTR _fRadian$533908[ebp]
  0077b	f3 0f 10 45 a0	 movss	 xmm0, DWORD PTR _fRadian$533908[ebp]
  00780	f3 0f 11 04 24	 movss	 DWORD PTR [esp], xmm0
  00785	e8 00 00 00 00	 call	 ??$RADtoDEG@M@@YAMM@Z	; RADtoDEG<float>
  0078a	d9 5d a0	 fstp	 DWORD PTR _fDeg$533909[ebp]

; 251  : 						if( fDeg < rkList.m_fDefenseDirection ) continue;

  0078d	d9 45 a0	 fld	 DWORD PTR _fDeg$533909[ebp]
  00790	8b 45 9c	 mov	 eax, DWORD PTR _iCreate$533868[ebp]
  00793	d9 40 38	 fld	 DWORD PTR [eax+56]
  00796	df f1		 fcomip	 ST(1)
  00798	dd d8		 fstp	 ST(0)
$LN384@Attach:
  0079a	8b 75 8c	 mov	 esi, DWORD PTR _pWeapon$533863[ebp]
  0079d	8b 7d 88	 mov	 edi, DWORD PTR _this$GSCopy$[ebp]
  007a0	59		 pop	 ecx
  007a1	77 17		 ja	 SHORT $LN15@Attach
$LN3@Attach:

; 252  : 					}
; 253  : 				}
; 254  : 			}
; 255  : 			vDefenseID.push_back( iCreate->first );

  007a3	8b 45 9c	 mov	 eax, DWORD PTR _iCreate$533868[ebp]
  007a6	83 c0 0c	 add	 eax, 12			; 0000000cH
  007a9	50		 push	 eax
  007aa	8d 8d 74 ff ff
	ff		 lea	 ecx, DWORD PTR _vDefenseID$533867[ebp]
  007b0	e8 00 00 00 00	 call	 ?push_back@?$vector@KV?$allocator@K@std@@@std@@QAEXABK@Z ; std::vector<unsigned long,std::allocator<unsigned long> >::push_back
  007b5	eb 03		 jmp	 SHORT $LN15@Attach
$LN368@Attach:
  007b7	8b 75 8c	 mov	 esi, DWORD PTR _pWeapon$533863[ebp]
$LN15@Attach:

; 203  : 		DefenseMap::iterator iCreate;
; 204  : 		for( iCreate = m_DefenseMap.begin() ; iCreate != m_DefenseMap.end() ; ++iCreate )

  007ba	8d 4d 9c	 lea	 ecx, DWORD PTR _iCreate$533868[ebp]
  007bd	e8 00 00 00 00	 call	 ??E?$_Tree_unchecked_const_iterator@V?$_Tree_val@V?$_Tmap_traits@KUDefenseList@ioDefenseController@@U?$less@K@std@@V?$allocator@U?$pair@$$CBKUDefenseList@ioDefenseController@@@std@@@4@$0A@@std@@@std@@U_Iterator_base0@2@@std@@QAEAAV01@XZ ; std::_Tree_unchecked_const_iterator<std::_Tree_val<std::_Tmap_traits<unsigned long,ioDefenseController::DefenseList,std::less<unsigned long>,std::allocator<std::pair<unsigned long const ,ioDefenseController::DefenseList> >,0> >,std::_Iterator_base0>::operator++
  007c2	8b 47 08	 mov	 eax, DWORD PTR [edi+8]
  007c5	39 45 9c	 cmp	 DWORD PTR _iCreate$533868[ebp], eax
  007c8	0f 85 21 fc ff
	ff		 jne	 $LN236@Attach

; 256  : 		}
; 257  : 
; 258  : 		if( vDefenseID.empty() ) continue;

  007ce	8b 85 78 ff ff
	ff		 mov	 eax, DWORD PTR _vDefenseID$533867[ebp+4]
  007d4	39 85 74 ff ff
	ff		 cmp	 DWORD PTR _vDefenseID$533867[ebp], eax
  007da	74 33		 je	 SHORT $LN359@Attach

; 259  : 
; 260  : 		int r = rand()%vDefenseID.size();

  007dc	2b 85 74 ff ff
	ff		 sub	 eax, DWORD PTR _vDefenseID$533867[ebp]
  007e2	c1 f8 02	 sar	 eax, 2
  007e5	8b f0		 mov	 esi, eax
  007e7	ff 15 00 00 00
	00		 call	 DWORD PTR __imp__rand
  007ed	33 d2		 xor	 edx, edx
  007ef	f7 f6		 div	 esi

; 261  : 		DefenseMap::iterator iter = m_DefenseMap.find( vDefenseID[r] );

  007f1	8b 85 74 ff ff
	ff		 mov	 eax, DWORD PTR _vDefenseID$533867[ebp]
  007f7	8d 4f 04	 lea	 ecx, DWORD PTR [edi+4]
  007fa	8d 04 90	 lea	 eax, DWORD PTR [eax+edx*4]
  007fd	50		 push	 eax
  007fe	8d 45 90	 lea	 eax, DWORD PTR _iter$533913[ebp]
  00801	50		 push	 eax
  00802	e8 00 00 00 00	 call	 ?find@?$_Tree@V?$_Tmap_traits@KUDefenseList@ioDefenseController@@U?$less@K@std@@V?$allocator@U?$pair@$$CBKUDefenseList@ioDefenseController@@@std@@@4@$0A@@std@@@std@@QAE?AV?$_Tree_iterator@V?$_Tree_val@V?$_Tmap_traits@KUDefenseList@ioDefenseController@@U?$less@K@std@@V?$allocator@U?$pair@$$CBKUDefenseList@ioDefenseController@@@std@@@4@$0A@@std@@@std@@@2@ABK@Z ; std::_Tree<std::_Tmap_traits<unsigned long,ioDefenseController::DefenseList,std::less<unsigned long>,std::allocator<std::pair<unsigned long const ,ioDefenseController::DefenseList> >,0> >::find

; 262  : 		if( iter != m_DefenseMap.end() )

  00807	8b 4d 90	 mov	 ecx, DWORD PTR _iter$533913[ebp]
  0080a	3b 4f 08	 cmp	 ecx, DWORD PTR [edi+8]
  0080d	75 25		 jne	 SHORT $LN355@Attach
$LN359@Attach:

; 266  : 		}		
; 267  : 	}	

  0080f	83 4d fc ff	 or	 DWORD PTR __$EHRec$[ebp+8], -1
  00813	8d 8d 74 ff ff
	ff		 lea	 ecx, DWORD PTR _vDefenseID$533867[ebp]
  00819	e8 00 00 00 00	 call	 ?_Tidy@?$vector@KV?$allocator@K@std@@@std@@IAEXXZ ; std::vector<unsigned long,std::allocator<unsigned long> >::_Tidy
$LN358@Attach:

; 195  : 	while( kIter.HasMoreElements() )

  0081e	8b 45 94	 mov	 eax, DWORD PTR _kIter$[ebp]
  00821	3b 45 98	 cmp	 eax, DWORD PTR _kIter$[ebp+4]
  00824	0f 85 40 fb ff
	ff		 jne	 $LL21@Attach
$LN20@Attach:

; 268  : 	return false;

  0082a	32 c0		 xor	 al, al
$LN38@Attach:

; 269  : }

  0082c	e8 00 00 00 00	 call	 __EH_epilog3_GS
  00831	c2 0c 00	 ret	 12			; 0000000cH
$LN355@Attach:

; 263  : 		{
; 264  : 			AttachDefenseData( iter->second, 0 );

  00834	83 c1 10	 add	 ecx, 16			; 00000010H
  00837	6a 00		 push	 0
  00839	51		 push	 ecx
  0083a	8b cf		 mov	 ecx, edi
  0083c	e8 00 00 00 00	 call	 ?AttachDefenseData@ioDefenseController@@IAEXAAUDefenseList@1@K@Z ; ioDefenseController::AttachDefenseData

; 265  : 			return true;

  00841	8d 8d 74 ff ff
	ff		 lea	 ecx, DWORD PTR _vDefenseID$533867[ebp]
  00847	e9 0e fb ff ff	 jmp	 $LN386@Attach
_TEXT	ENDS
;	COMDAT text$x
text$x	SEGMENT
__unwindfunclet$?Attach@ioDefenseController@@QAE_NPAVioNpcChar@@PAVioBaseChar@@M@Z$0:
  00000	8d 8d 64 ff ff
	ff		 lea	 ecx, DWORD PTR _vDefenseID$533667[ebp]
  00006	e9 00 00 00 00	 jmp	 ??1?$vector@KV?$allocator@K@std@@@std@@QAE@XZ ; std::vector<unsigned long,std::allocator<unsigned long> >::~vector<unsigned long,std::allocator<unsigned long> >
__unwindfunclet$?Attach@ioDefenseController@@QAE_NPAVioNpcChar@@PAVioBaseChar@@M@Z$1:
  0000b	8d 8d 74 ff ff
	ff		 lea	 ecx, DWORD PTR _vDefenseID$533867[ebp]
  00011	e9 00 00 00 00	 jmp	 ??1?$vector@KV?$allocator@K@std@@@std@@QAE@XZ ; std::vector<unsigned long,std::allocator<unsigned long> >::~vector<unsigned long,std::allocator<unsigned long> >
__ehhandler$?Attach@ioDefenseController@@QAE_NPAVioNpcChar@@PAVioBaseChar@@M@Z:
  00016	8b 54 24 08	 mov	 edx, DWORD PTR [esp+8]
  0001a	8d 42 0c	 lea	 eax, DWORD PTR [edx+12]
  0001d	8b 8a 54 ff ff
	ff		 mov	 ecx, DWORD PTR [edx-172]
  00023	33 c8		 xor	 ecx, eax
  00025	e8 00 00 00 00	 call	 @__security_check_cookie@4
  0002a	8b 4a fc	 mov	 ecx, DWORD PTR [edx-4]
  0002d	33 c8		 xor	 ecx, eax
  0002f	e8 00 00 00 00	 call	 @__security_check_cookie@4
  00034	b8 00 00 00 00	 mov	 eax, OFFSET __ehfuncinfo$?Attach@ioDefenseController@@QAE_NPAVioNpcChar@@PAVioBaseChar@@M@Z
  00039	e9 00 00 00 00	 jmp	 ___CxxFrameHandler3
text$x	ENDS
?Attach@ioDefenseController@@QAE_NPAVioNpcChar@@PAVioBaseChar@@M@Z ENDP ; ioDefenseController::Attach
PUBLIC	??$?0HAAUDefenseList@ioDefenseController@@@?$pair@$$CBKUDefenseList@ioDefenseController@@@std@@QAE@$$QAHAAUDefenseList@ioDefenseController@@@Z ; std::pair<unsigned long const ,ioDefenseController::DefenseList>::pair<unsigned long const ,ioDefenseController::DefenseList><int,ioDefenseController::DefenseList &>
; Function compile flags: /Ogsp
; File c:\program files (x86)\microsoft visual studio 10.0\vc\include\utility
;	COMDAT ??$?0HAAUDefenseList@ioDefenseController@@@?$pair@$$CBKUDefenseList@ioDefenseController@@@std@@QAE@$$QAHAAUDefenseList@ioDefenseController@@@Z
_TEXT	SEGMENT
__Val1$ = 8						; size = 4
__Val2$ = 12						; size = 4
??$?0HAAUDefenseList@ioDefenseController@@@?$pair@$$CBKUDefenseList@ioDefenseController@@@std@@QAE@$$QAHAAUDefenseList@ioDefenseController@@@Z PROC ; std::pair<unsigned long const ,ioDefenseController::DefenseList>::pair<unsigned long const ,ioDefenseController::DefenseList><int,ioDefenseController::DefenseList &>, COMDAT
; _this$ = ecx

; 247  : 		{	// construct from moved values

  00000	55		 push	 ebp
  00001	8b ec		 mov	 ebp, esp
  00003	8b 45 08	 mov	 eax, DWORD PTR __Val1$[ebp]
  00006	8b 00		 mov	 eax, DWORD PTR [eax]
  00008	56		 push	 esi
  00009	ff 75 0c	 push	 DWORD PTR __Val2$[ebp]
  0000c	8b f1		 mov	 esi, ecx
  0000e	8d 4e 04	 lea	 ecx, DWORD PTR [esi+4]
  00011	89 06		 mov	 DWORD PTR [esi], eax
  00013	e8 00 00 00 00	 call	 ??0DefenseList@ioDefenseController@@QAE@ABU01@@Z

; 248  : 		}

  00018	8b c6		 mov	 eax, esi
  0001a	5e		 pop	 esi
  0001b	5d		 pop	 ebp
  0001c	c2 08 00	 ret	 8
??$?0HAAUDefenseList@ioDefenseController@@@?$pair@$$CBKUDefenseList@ioDefenseController@@@std@@QAE@$$QAHAAUDefenseList@ioDefenseController@@@Z ENDP ; std::pair<unsigned long const ,ioDefenseController::DefenseList>::pair<unsigned long const ,ioDefenseController::DefenseList><int,ioDefenseController::DefenseList &>
_TEXT	ENDS
PUBLIC	??$_Move@PAV?$basic_string@DU?$char_traits@D@std@@V?$allocator@D@2@@std@@PAV12@@std@@YAPAV?$basic_string@DU?$char_traits@D@std@@V?$allocator@D@2@@0@PAV10@00@Z ; std::_Move<std::basic_string<char,std::char_traits<char>,std::allocator<char> > *,std::basic_string<char,std::char_traits<char>,std::allocator<char> > *>
; Function compile flags: /Ogsp
; File c:\program files (x86)\microsoft visual studio 10.0\vc\include\xutility
;	COMDAT ??$_Move@PAV?$basic_string@DU?$char_traits@D@std@@V?$allocator@D@2@@std@@PAV12@@std@@YAPAV?$basic_string@DU?$char_traits@D@std@@V?$allocator@D@2@@0@PAV10@00@Z
_TEXT	SEGMENT
__Cat$543908 = -4					; size = 1
__First$ = 8						; size = 4
__Last$ = 12						; size = 4
__Dest$ = 16						; size = 4
??$_Move@PAV?$basic_string@DU?$char_traits@D@std@@V?$allocator@D@2@@std@@PAV12@@std@@YAPAV?$basic_string@DU?$char_traits@D@std@@V?$allocator@D@2@@0@PAV10@00@Z PROC ; std::_Move<std::basic_string<char,std::char_traits<char>,std::allocator<char> > *,std::basic_string<char,std::char_traits<char>,std::allocator<char> > *>, COMDAT

; 2533 : 	{	// move [_First, _Last) to [_Dest, ...), unchecked

  00000	55		 push	 ebp
  00001	8b ec		 mov	 ebp, esp
  00003	51		 push	 ecx

; 2534 : 	return (_Move(_First, _Last,
; 2535 : 		_Dest, _Ptr_cat(_First, _Dest)));

  00004	ff 75 fc	 push	 DWORD PTR __Cat$543908[ebp]
  00007	ff 75 10	 push	 DWORD PTR __Dest$[ebp]
  0000a	ff 75 0c	 push	 DWORD PTR __Last$[ebp]
  0000d	ff 75 08	 push	 DWORD PTR __First$[ebp]
  00010	e8 00 00 00 00	 call	 ??$_Move@PAV?$basic_string@DU?$char_traits@D@std@@V?$allocator@D@2@@std@@PAV12@@std@@YAPAV?$basic_string@DU?$char_traits@D@std@@V?$allocator@D@2@@0@PAV10@00U_Nonscalar_ptr_iterator_tag@0@@Z ; std::_Move<std::basic_string<char,std::char_traits<char>,std::allocator<char> > *,std::basic_string<char,std::char_traits<char>,std::allocator<char> > *>
  00015	83 c4 10	 add	 esp, 16			; 00000010H

; 2536 : 	}

  00018	c9		 leave
  00019	c3		 ret	 0
??$_Move@PAV?$basic_string@DU?$char_traits@D@std@@V?$allocator@D@2@@std@@PAV12@@std@@YAPAV?$basic_string@DU?$char_traits@D@std@@V?$allocator@D@2@@0@PAV10@00@Z ENDP ; std::_Move<std::basic_string<char,std::char_traits<char>,std::allocator<char> > *,std::basic_string<char,std::char_traits<char>,std::allocator<char> > *>
_TEXT	ENDS
PUBLIC	??$_Destroy@U?$pair@$$CBKUDefenseList@ioDefenseController@@@std@@@std@@YAXPAU?$pair@$$CBKUDefenseList@ioDefenseController@@@0@@Z ; std::_Destroy<std::pair<unsigned long const ,ioDefenseController::DefenseList> >
; Function compile flags: /Ogsp
; File c:\program files (x86)\microsoft visual studio 10.0\vc\include\xmemory
;	COMDAT ??$_Destroy@U?$pair@$$CBKUDefenseList@ioDefenseController@@@std@@@std@@YAXPAU?$pair@$$CBKUDefenseList@ioDefenseController@@@0@@Z
_TEXT	SEGMENT
__Ptr$ = 8						; size = 4
??$_Destroy@U?$pair@$$CBKUDefenseList@ioDefenseController@@@std@@@std@@YAXPAU?$pair@$$CBKUDefenseList@ioDefenseController@@@0@@Z PROC ; std::_Destroy<std::pair<unsigned long const ,ioDefenseController::DefenseList> >, COMDAT

; 62   : 	{	// destroy object at _Ptr

  00000	55		 push	 ebp
  00001	8b ec		 mov	 ebp, esp

; 63   : 	_Ptr->~_Ty();

  00003	8b 4d 08	 mov	 ecx, DWORD PTR __Ptr$[ebp]
  00006	83 c1 04	 add	 ecx, 4

; 64   : 	}

  00009	5d		 pop	 ebp

; 63   : 	_Ptr->~_Ty();

  0000a	e9 00 00 00 00	 jmp	 ??1DefenseList@ioDefenseController@@QAE@XZ
??$_Destroy@U?$pair@$$CBKUDefenseList@ioDefenseController@@@std@@@std@@YAXPAU?$pair@$$CBKUDefenseList@ioDefenseController@@@0@@Z ENDP ; std::_Destroy<std::pair<unsigned long const ,ioDefenseController::DefenseList> >
_TEXT	ENDS
PUBLIC	??$_Uninit_copy@V?$_Vector_const_iterator@V?$_Vector_val@V?$basic_string@DU?$char_traits@D@std@@V?$allocator@D@2@@std@@V?$allocator@V?$basic_string@DU?$char_traits@D@std@@V?$allocator@D@2@@std@@@2@@std@@@std@@PAV?$basic_string@DU?$char_traits@D@std@@V?$allocator@D@2@@2@V?$allocator@V?$basic_string@DU?$char_traits@D@std@@V?$allocator@D@2@@std@@@2@@std@@YAPAV?$basic_string@DU?$char_traits@D@std@@V?$allocator@D@2@@0@V?$_Vector_const_iterator@V?$_Vector_val@V?$basic_string@DU?$char_traits@D@std@@V?$allocator@D@2@@std@@V?$allocator@V?$basic_string@DU?$char_traits@D@std@@V?$allocator@D@2@@std@@@2@@std@@@0@0PAV10@AAV?$allocator@V?$basic_string@DU?$char_traits@D@std@@V?$allocator@D@2@@std@@@0@U_Nonscalar_ptr_iterator_tag@0@@Z ; std::_Uninit_copy<std::_Vector_const_iterator<std::_Vector_val<std::basic_string<char,std::char_traits<char>,std::allocator<char> >,std::allocator<std::basic_string<char,std::char_traits<char>,std::allocator<char> > > > >,std::basic_string<char,std::char_traits<char>,std::allocator<char> > *,std::allocator<std::basic_string<char,std::char_traits<char>,std::allocator<char> > > >
;	COMDAT xdata$x
; File c:\program files (x86)\microsoft visual studio 10.0\vc\include\xstring
xdata$x	SEGMENT
__catchsym$??$_Uninit_copy@V?$_Vector_const_iterator@V?$_Vector_val@V?$basic_string@DU?$char_traits@D@std@@V?$allocator@D@2@@std@@V?$allocator@V?$basic_string@DU?$char_traits@D@std@@V?$allocator@D@2@@std@@@2@@std@@@std@@PAV?$basic_string@DU?$char_traits@D@std@@V?$allocator@D@2@@2@V?$allocator@V?$basic_string@DU?$char_traits@D@std@@V?$allocator@D@2@@std@@@2@@std@@YAPAV?$basic_string@DU?$char_traits@D@std@@V?$allocator@D@2@@0@V?$_Vector_const_iterator@V?$_Vector_val@V?$basic_string@DU?$char_traits@D@std@@V?$allocator@D@2@@std@@V?$allocator@V?$basic_string@DU?$char_traits@D@std@@V?$allocator@D@2@@std@@@2@@std@@@0@0PAV10@AAV?$allocator@V?$basic_string@DU?$char_traits@D@std@@V?$allocator@D@2@@std@@@0@U_Nonscalar_ptr_iterator_tag@0@@Z$2 DD 040H
	DD	00H
	DD	00H
	DD	FLAT:__catch$??$_Uninit_copy@V?$_Vector_const_iterator@V?$_Vector_val@V?$basic_string@DU?$char_traits@D@std@@V?$allocator@D@2@@std@@V?$allocator@V?$basic_string@DU?$char_traits@D@std@@V?$allocator@D@2@@std@@@2@@std@@@std@@PAV?$basic_string@DU?$char_traits@D@std@@V?$allocator@D@2@@2@V?$allocator@V?$basic_string@DU?$char_traits@D@std@@V?$allocator@D@2@@std@@@2@@std@@YAPAV?$basic_string@DU?$char_traits@D@std@@V?$allocator@D@2@@0@V?$_Vector_const_iterator@V?$_Vector_val@V?$basic_string@DU?$char_traits@D@std@@V?$allocator@D@2@@std@@V?$allocator@V?$basic_string@DU?$char_traits@D@std@@V?$allocator@D@2@@std@@@2@@std@@@0@0PAV10@AAV?$allocator@V?$basic_string@DU?$char_traits@D@std@@V?$allocator@D@2@@std@@@0@U_Nonscalar_ptr_iterator_tag@0@@Z$0
__unwindtable$??$_Uninit_copy@V?$_Vector_const_iterator@V?$_Vector_val@V?$basic_string@DU?$char_traits@D@std@@V?$allocator@D@2@@std@@V?$allocator@V?$basic_string@DU?$char_traits@D@std@@V?$allocator@D@2@@std@@@2@@std@@@std@@PAV?$basic_string@DU?$char_traits@D@std@@V?$allocator@D@2@@2@V?$allocator@V?$basic_string@DU?$char_traits@D@std@@V?$allocator@D@2@@std@@@2@@std@@YAPAV?$basic_string@DU?$char_traits@D@std@@V?$allocator@D@2@@0@V?$_Vector_const_iterator@V?$_Vector_val@V?$basic_string@DU?$char_traits@D@std@@V?$allocator@D@2@@std@@V?$allocator@V?$basic_string@DU?$char_traits@D@std@@V?$allocator@D@2@@std@@@2@@std@@@0@0PAV10@AAV?$allocator@V?$basic_string@DU?$char_traits@D@std@@V?$allocator@D@2@@std@@@0@U_Nonscalar_ptr_iterator_tag@0@@Z DD 0ffffffffH
	DD	00H
	DD	0ffffffffH
	DD	00H
__tryblocktable$??$_Uninit_copy@V?$_Vector_const_iterator@V?$_Vector_val@V?$basic_string@DU?$char_traits@D@std@@V?$allocator@D@2@@std@@V?$allocator@V?$basic_string@DU?$char_traits@D@std@@V?$allocator@D@2@@std@@@2@@std@@@std@@PAV?$basic_string@DU?$char_traits@D@std@@V?$allocator@D@2@@2@V?$allocator@V?$basic_string@DU?$char_traits@D@std@@V?$allocator@D@2@@std@@@2@@std@@YAPAV?$basic_string@DU?$char_traits@D@std@@V?$allocator@D@2@@0@V?$_Vector_const_iterator@V?$_Vector_val@V?$basic_string@DU?$char_traits@D@std@@V?$allocator@D@2@@std@@V?$allocator@V?$basic_string@DU?$char_traits@D@std@@V?$allocator@D@2@@std@@@2@@std@@@0@0PAV10@AAV?$allocator@V?$basic_string@DU?$char_traits@D@std@@V?$allocator@D@2@@std@@@0@U_Nonscalar_ptr_iterator_tag@0@@Z DD 00H
	DD	00H
	DD	01H
	DD	01H
	DD	FLAT:__catchsym$??$_Uninit_copy@V?$_Vector_const_iterator@V?$_Vector_val@V?$basic_string@DU?$char_traits@D@std@@V?$allocator@D@2@@std@@V?$allocator@V?$basic_string@DU?$char_traits@D@std@@V?$allocator@D@2@@std@@@2@@std@@@std@@PAV?$basic_string@DU?$char_traits@D@std@@V?$allocator@D@2@@2@V?$allocator@V?$basic_string@DU?$char_traits@D@std@@V?$allocator@D@2@@std@@@2@@std@@YAPAV?$basic_string@DU?$char_traits@D@std@@V?$allocator@D@2@@0@V?$_Vector_const_iterator@V?$_Vector_val@V?$basic_string@DU?$char_traits@D@std@@V?$allocator@D@2@@std@@V?$allocator@V?$basic_string@DU?$char_traits@D@std@@V?$allocator@D@2@@std@@@2@@std@@@0@0PAV10@AAV?$allocator@V?$basic_string@DU?$char_traits@D@std@@V?$allocator@D@2@@std@@@0@U_Nonscalar_ptr_iterator_tag@0@@Z$2
__ehfuncinfo$??$_Uninit_copy@V?$_Vector_const_iterator@V?$_Vector_val@V?$basic_string@DU?$char_traits@D@std@@V?$allocator@D@2@@std@@V?$allocator@V?$basic_string@DU?$char_traits@D@std@@V?$allocator@D@2@@std@@@2@@std@@@std@@PAV?$basic_string@DU?$char_traits@D@std@@V?$allocator@D@2@@2@V?$allocator@V?$basic_string@DU?$char_traits@D@std@@V?$allocator@D@2@@std@@@2@@std@@YAPAV?$basic_string@DU?$char_traits@D@std@@V?$allocator@D@2@@0@V?$_Vector_const_iterator@V?$_Vector_val@V?$basic_string@DU?$char_traits@D@std@@V?$allocator@D@2@@std@@V?$allocator@V?$basic_string@DU?$char_traits@D@std@@V?$allocator@D@2@@std@@@2@@std@@@0@0PAV10@AAV?$allocator@V?$basic_string@DU?$char_traits@D@std@@V?$allocator@D@2@@std@@@0@U_Nonscalar_ptr_iterator_tag@0@@Z DD 019930522H
	DD	02H
	DD	FLAT:__unwindtable$??$_Uninit_copy@V?$_Vector_const_iterator@V?$_Vector_val@V?$basic_string@DU?$char_traits@D@std@@V?$allocator@D@2@@std@@V?$allocator@V?$basic_string@DU?$char_traits@D@std@@V?$allocator@D@2@@std@@@2@@std@@@std@@PAV?$basic_string@DU?$char_traits@D@std@@V?$allocator@D@2@@2@V?$allocator@V?$basic_string@DU?$char_traits@D@std@@V?$allocator@D@2@@std@@@2@@std@@YAPAV?$basic_string@DU?$char_traits@D@std@@V?$allocator@D@2@@0@V?$_Vector_const_iterator@V?$_Vector_val@V?$basic_string@DU?$char_traits@D@std@@V?$allocator@D@2@@std@@V?$allocator@V?$basic_string@DU?$char_traits@D@std@@V?$allocator@D@2@@std@@@2@@std@@@0@0PAV10@AAV?$allocator@V?$basic_string@DU?$char_traits@D@std@@V?$allocator@D@2@@std@@@0@U_Nonscalar_ptr_iterator_tag@0@@Z
	DD	01H
	DD	FLAT:__tryblocktable$??$_Uninit_copy@V?$_Vector_const_iterator@V?$_Vector_val@V?$basic_string@DU?$char_traits@D@std@@V?$allocator@D@2@@std@@V?$allocator@V?$basic_string@DU?$char_traits@D@std@@V?$allocator@D@2@@std@@@2@@std@@@std@@PAV?$basic_string@DU?$char_traits@D@std@@V?$allocator@D@2@@2@V?$allocator@V?$basic_string@DU?$char_traits@D@std@@V?$allocator@D@2@@std@@@2@@std@@YAPAV?$basic_string@DU?$char_traits@D@std@@V?$allocator@D@2@@0@V?$_Vector_const_iterator@V?$_Vector_val@V?$basic_string@DU?$char_traits@D@std@@V?$allocator@D@2@@std@@V?$allocator@V?$basic_string@DU?$char_traits@D@std@@V?$allocator@D@2@@std@@@2@@std@@@0@0PAV10@AAV?$allocator@V?$basic_string@DU?$char_traits@D@std@@V?$allocator@D@2@@std@@@0@U_Nonscalar_ptr_iterator_tag@0@@Z
	DD	2 DUP(00H)
	DD	00H
	DD	01H
; Function compile flags: /Ogsp
; File c:\program files (x86)\microsoft visual studio 10.0\vc\include\memory
xdata$x	ENDS
;	COMDAT ??$_Uninit_copy@V?$_Vector_const_iterator@V?$_Vector_val@V?$basic_string@DU?$char_traits@D@std@@V?$allocator@D@2@@std@@V?$allocator@V?$basic_string@DU?$char_traits@D@std@@V?$allocator@D@2@@std@@@2@@std@@@std@@PAV?$basic_string@DU?$char_traits@D@std@@V?$allocator@D@2@@2@V?$allocator@V?$basic_string@DU?$char_traits@D@std@@V?$allocator@D@2@@std@@@2@@std@@YAPAV?$basic_string@DU?$char_traits@D@std@@V?$allocator@D@2@@0@V?$_Vector_const_iterator@V?$_Vector_val@V?$basic_string@DU?$char_traits@D@std@@V?$allocator@D@2@@std@@V?$allocator@V?$basic_string@DU?$char_traits@D@std@@V?$allocator@D@2@@std@@@2@@std@@@0@0PAV10@AAV?$allocator@V?$basic_string@DU?$char_traits@D@std@@V?$allocator@D@2@@std@@@0@U_Nonscalar_ptr_iterator_tag@0@@Z
_TEXT	SEGMENT
__Next$ = -20						; size = 4
__$EHRec$ = -16						; size = 16
__First$ = 8						; size = 4
__Last$ = 12						; size = 4
__Dest$ = 16						; size = 4
__Al$ = 20						; size = 4
___formal$ = 24						; size = 1
??$_Uninit_copy@V?$_Vector_const_iterator@V?$_Vector_val@V?$basic_string@DU?$char_traits@D@std@@V?$allocator@D@2@@std@@V?$allocator@V?$basic_string@DU?$char_traits@D@std@@V?$allocator@D@2@@std@@@2@@std@@@std@@PAV?$basic_string@DU?$char_traits@D@std@@V?$allocator@D@2@@2@V?$allocator@V?$basic_string@DU?$char_traits@D@std@@V?$allocator@D@2@@std@@@2@@std@@YAPAV?$basic_string@DU?$char_traits@D@std@@V?$allocator@D@2@@0@V?$_Vector_const_iterator@V?$_Vector_val@V?$basic_string@DU?$char_traits@D@std@@V?$allocator@D@2@@std@@V?$allocator@V?$basic_string@DU?$char_traits@D@std@@V?$allocator@D@2@@std@@@2@@std@@@0@0PAV10@AAV?$allocator@V?$basic_string@DU?$char_traits@D@std@@V?$allocator@D@2@@std@@@0@U_Nonscalar_ptr_iterator_tag@0@@Z PROC ; std::_Uninit_copy<std::_Vector_const_iterator<std::_Vector_val<std::basic_string<char,std::char_traits<char>,std::allocator<char> >,std::allocator<std::basic_string<char,std::char_traits<char>,std::allocator<char> > > > >,std::basic_string<char,std::char_traits<char>,std::allocator<char> > *,std::allocator<std::basic_string<char,std::char_traits<char>,std::allocator<char> > > >, COMDAT

; 369  : 	{	// copy [_First, _Last) to raw _Dest, using _Al, arbitrary type

  00000	6a 08		 push	 8
  00002	b8 00 00 00 00	 mov	 eax, __ehhandler$??$_Uninit_copy@V?$_Vector_const_iterator@V?$_Vector_val@V?$basic_string@DU?$char_traits@D@std@@V?$allocator@D@2@@std@@V?$allocator@V?$basic_string@DU?$char_traits@D@std@@V?$allocator@D@2@@std@@@2@@std@@@std@@PAV?$basic_string@DU?$char_traits@D@std@@V?$allocator@D@2@@2@V?$allocator@V?$basic_string@DU?$char_traits@D@std@@V?$allocator@D@2@@std@@@2@@std@@YAPAV?$basic_string@DU?$char_traits@D@std@@V?$allocator@D@2@@0@V?$_Vector_const_iterator@V?$_Vector_val@V?$basic_string@DU?$char_traits@D@std@@V?$allocator@D@2@@std@@V?$allocator@V?$basic_string@DU?$char_traits@D@std@@V?$allocator@D@2@@std@@@2@@std@@@0@0PAV10@AAV?$allocator@V?$basic_string@DU?$char_traits@D@std@@V?$allocator@D@2@@std@@@0@U_Nonscalar_ptr_iterator_tag@0@@Z
  00007	e8 00 00 00 00	 call	 __EH_prolog3_catch

; 370  : 	_DEBUG_RANGE(_First, _Last);
; 371  : 	_DEBUG_POINTER(_Dest);
; 372  : 	_FwdIt _Next = _Dest;

  0000c	8b 45 10	 mov	 eax, DWORD PTR __Dest$[ebp]

; 373  : 
; 374  : 	_TRY_BEGIN

  0000f	83 65 fc 00	 and	 DWORD PTR __$EHRec$[ebp+12], 0
  00013	89 45 ec	 mov	 DWORD PTR __Next$[ebp], eax

; 375  : 	for (; _First != _Last; ++_Dest, ++_First)

$LL14@Uninit_cop@3:
  00016	8b 45 08	 mov	 eax, DWORD PTR __First$[ebp]
  00019	3b 45 0c	 cmp	 eax, DWORD PTR __Last$[ebp]
  0001c	74 34		 je	 SHORT $LN4@Uninit_cop@3

; 376  : 		_Cons_val(_Al, _Dest, *_First);

  0001e	50		 push	 eax
  0001f	ff 75 10	 push	 DWORD PTR __Dest$[ebp]
  00022	e8 00 00 00 00	 call	 ??$_Construct@V?$basic_string@DU?$char_traits@D@std@@V?$allocator@D@2@@std@@ABV12@@std@@YAXPAV?$basic_string@DU?$char_traits@D@std@@V?$allocator@D@2@@0@ABV10@@Z ; std::_Construct<std::basic_string<char,std::char_traits<char>,std::allocator<char> >,std::basic_string<char,std::char_traits<char>,std::allocator<char> > const &>
  00027	83 45 10 1c	 add	 DWORD PTR __Dest$[ebp], 28 ; 0000001cH
  0002b	83 45 08 1c	 add	 DWORD PTR __First$[ebp], 28 ; 0000001cH
  0002f	59		 pop	 ecx
  00030	59		 pop	 ecx
  00031	eb e3		 jmp	 SHORT $LL14@Uninit_cop@3
__catch$??$_Uninit_copy@V?$_Vector_const_iterator@V?$_Vector_val@V?$basic_string@DU?$char_traits@D@std@@V?$allocator@D@2@@std@@V?$allocator@V?$basic_string@DU?$char_traits@D@std@@V?$allocator@D@2@@std@@@2@@std@@@std@@PAV?$basic_string@DU?$char_traits@D@std@@V?$allocator@D@2@@2@V?$allocator@V?$basic_string@DU?$char_traits@D@std@@V?$allocator@D@2@@std@@@2@@std@@YAPAV?$basic_string@DU?$char_traits@D@std@@V?$allocator@D@2@@0@V?$_Vector_const_iterator@V?$_Vector_val@V?$basic_string@DU?$char_traits@D@std@@V?$allocator@D@2@@std@@V?$allocator@V?$basic_string@DU?$char_traits@D@std@@V?$allocator@D@2@@std@@@2@@std@@@0@0PAV10@AAV?$allocator@V?$basic_string@DU?$char_traits@D@std@@V?$allocator@D@2@@std@@@0@U_Nonscalar_ptr_iterator_tag@0@@Z$0:

; 377  : 	_CATCH_ALL
; 378  : 	for (; _Next != _Dest; ++_Next)

  00033	8b 75 ec	 mov	 esi, DWORD PTR __Next$[ebp]
  00036	eb 0c		 jmp	 SHORT $LN50@Uninit_cop@3
$LL3@Uninit_cop@3:

; 379  : 		_Dest_val(_Al, _Next);

  00038	6a 01		 push	 1
  0003a	8b ce		 mov	 ecx, esi
  0003c	e8 00 00 00 00	 call	 ?_Tidy@?$basic_string@DU?$char_traits@D@std@@V?$allocator@D@2@@std@@QAEX_NI@Z ; std::basic_string<char,std::char_traits<char>,std::allocator<char> >::_Tidy
  00041	83 c6 1c	 add	 esi, 28			; 0000001cH
$LN50@Uninit_cop@3:

; 380  : 	_RERAISE;

  00044	6a 00		 push	 0
  00046	3b 75 10	 cmp	 esi, DWORD PTR __Dest$[ebp]
  00049	75 ed		 jne	 SHORT $LL3@Uninit_cop@3
  0004b	6a 00		 push	 0
  0004d	e8 00 00 00 00	 call	 __CxxThrowException@8
$LN51@Uninit_cop@3:
$LN4@Uninit_cop@3:

; 381  : 	_CATCH_END
; 382  : 	return (_Dest);

  00052	8b 45 10	 mov	 eax, DWORD PTR __Dest$[ebp]

; 383  : 	}

  00055	e8 00 00 00 00	 call	 __EH_epilog3
  0005a	c3		 ret	 0
$LN49@Uninit_cop@3:
_TEXT	ENDS
;	COMDAT text$x
text$x	SEGMENT
__ehhandler$??$_Uninit_copy@V?$_Vector_const_iterator@V?$_Vector_val@V?$basic_string@DU?$char_traits@D@std@@V?$allocator@D@2@@std@@V?$allocator@V?$basic_string@DU?$char_traits@D@std@@V?$allocator@D@2@@std@@@2@@std@@@std@@PAV?$basic_string@DU?$char_traits@D@std@@V?$allocator@D@2@@2@V?$allocator@V?$basic_string@DU?$char_traits@D@std@@V?$allocator@D@2@@std@@@2@@std@@YAPAV?$basic_string@DU?$char_traits@D@std@@V?$allocator@D@2@@0@V?$_Vector_const_iterator@V?$_Vector_val@V?$basic_string@DU?$char_traits@D@std@@V?$allocator@D@2@@std@@V?$allocator@V?$basic_string@DU?$char_traits@D@std@@V?$allocator@D@2@@std@@@2@@std@@@0@0PAV10@AAV?$allocator@V?$basic_string@DU?$char_traits@D@std@@V?$allocator@D@2@@std@@@0@U_Nonscalar_ptr_iterator_tag@0@@Z:
  00000	8b 54 24 08	 mov	 edx, DWORD PTR [esp+8]
  00004	8d 42 0c	 lea	 eax, DWORD PTR [edx+12]
  00007	8b 4a e8	 mov	 ecx, DWORD PTR [edx-24]
  0000a	33 c8		 xor	 ecx, eax
  0000c	e8 00 00 00 00	 call	 @__security_check_cookie@4
  00011	b8 00 00 00 00	 mov	 eax, OFFSET __ehfuncinfo$??$_Uninit_copy@V?$_Vector_const_iterator@V?$_Vector_val@V?$basic_string@DU?$char_traits@D@std@@V?$allocator@D@2@@std@@V?$allocator@V?$basic_string@DU?$char_traits@D@std@@V?$allocator@D@2@@std@@@2@@std@@@std@@PAV?$basic_string@DU?$char_traits@D@std@@V?$allocator@D@2@@2@V?$allocator@V?$basic_string@DU?$char_traits@D@std@@V?$allocator@D@2@@std@@@2@@std@@YAPAV?$basic_string@DU?$char_traits@D@std@@V?$allocator@D@2@@0@V?$_Vector_const_iterator@V?$_Vector_val@V?$basic_string@DU?$char_traits@D@std@@V?$allocator@D@2@@std@@V?$allocator@V?$basic_string@DU?$char_traits@D@std@@V?$allocator@D@2@@std@@@2@@std@@@0@0PAV10@AAV?$allocator@V?$basic_string@DU?$char_traits@D@std@@V?$allocator@D@2@@std@@@0@U_Nonscalar_ptr_iterator_tag@0@@Z
  00016	e9 00 00 00 00	 jmp	 ___CxxFrameHandler3
text$x	ENDS
??$_Uninit_copy@V?$_Vector_const_iterator@V?$_Vector_val@V?$basic_string@DU?$char_traits@D@std@@V?$allocator@D@2@@std@@V?$allocator@V?$basic_string@DU?$char_traits@D@std@@V?$allocator@D@2@@std@@@2@@std@@@std@@PAV?$basic_string@DU?$char_traits@D@std@@V?$allocator@D@2@@2@V?$allocator@V?$basic_string@DU?$char_traits@D@std@@V?$allocator@D@2@@std@@@2@@std@@YAPAV?$basic_string@DU?$char_traits@D@std@@V?$allocator@D@2@@0@V?$_Vector_const_iterator@V?$_Vector_val@V?$basic_string@DU?$char_traits@D@std@@V?$allocator@D@2@@std@@V?$allocator@V?$basic_string@DU?$char_traits@D@std@@V?$allocator@D@2@@std@@@2@@std@@@0@0PAV10@AAV?$allocator@V?$basic_string@DU?$char_traits@D@std@@V?$allocator@D@2@@std@@@0@U_Nonscalar_ptr_iterator_tag@0@@Z ENDP ; std::_Uninit_copy<std::_Vector_const_iterator<std::_Vector_val<std::basic_string<char,std::char_traits<char>,std::allocator<char> >,std::allocator<std::basic_string<char,std::char_traits<char>,std::allocator<char> > > > >,std::basic_string<char,std::char_traits<char>,std::allocator<char> > *,std::allocator<std::basic_string<char,std::char_traits<char>,std::allocator<char> > > >
PUBLIC	?construct@?$allocator@U?$pair@$$CBKUDefenseList@ioDefenseController@@@std@@@std@@QAEXPAU?$pair@$$CBKUDefenseList@ioDefenseController@@@2@$$QAU32@@Z ; std::allocator<std::pair<unsigned long const ,ioDefenseController::DefenseList> >::construct
;	COMDAT xdata$x
; File c:\program files (x86)\microsoft visual studio 10.0\vc\include\utility
xdata$x	SEGMENT
__unwindtable$?construct@?$allocator@U?$pair@$$CBKUDefenseList@ioDefenseController@@@std@@@std@@QAEXPAU?$pair@$$CBKUDefenseList@ioDefenseController@@@2@$$QAU32@@Z DD 0ffffffffH
	DD	FLAT:__unwindfunclet$?construct@?$allocator@U?$pair@$$CBKUDefenseList@ioDefenseController@@@std@@@std@@QAEXPAU?$pair@$$CBKUDefenseList@ioDefenseController@@@2@$$QAU32@@Z$0
__ehfuncinfo$?construct@?$allocator@U?$pair@$$CBKUDefenseList@ioDefenseController@@@std@@@std@@QAEXPAU?$pair@$$CBKUDefenseList@ioDefenseController@@@2@$$QAU32@@Z DD 019930522H
	DD	01H
	DD	FLAT:__unwindtable$?construct@?$allocator@U?$pair@$$CBKUDefenseList@ioDefenseController@@@std@@@std@@QAEXPAU?$pair@$$CBKUDefenseList@ioDefenseController@@@2@$$QAU32@@Z
	DD	2 DUP(00H)
	DD	2 DUP(00H)
	DD	00H
	DD	01H
; Function compile flags: /Ogsp
; File c:\program files (x86)\microsoft visual studio 10.0\vc\include\xmemory
xdata$x	ENDS
;	COMDAT ?construct@?$allocator@U?$pair@$$CBKUDefenseList@ioDefenseController@@@std@@@std@@QAEXPAU?$pair@$$CBKUDefenseList@ioDefenseController@@@2@$$QAU32@@Z
_TEXT	SEGMENT
$T544044 = -16						; size = 4
__$EHRec$ = -12						; size = 12
__Ptr$ = 8						; size = 4
__Val$ = 12						; size = 4
?construct@?$allocator@U?$pair@$$CBKUDefenseList@ioDefenseController@@@std@@@std@@QAEXPAU?$pair@$$CBKUDefenseList@ioDefenseController@@@2@$$QAU32@@Z PROC ; std::allocator<std::pair<unsigned long const ,ioDefenseController::DefenseList> >::construct, COMDAT
; _this$ = ecx

; 201  : 		{	// construct object at _Ptr with value _Val

  00000	6a 04		 push	 4
  00002	b8 00 00 00 00	 mov	 eax, __ehhandler$?construct@?$allocator@U?$pair@$$CBKUDefenseList@ioDefenseController@@@std@@@std@@QAEXPAU?$pair@$$CBKUDefenseList@ioDefenseController@@@2@$$QAU32@@Z
  00007	e8 00 00 00 00	 call	 __EH_prolog3

; 202  : 		::new ((void _FARQ *)_Ptr) _Ty(_STD forward<_Ty>(_Val));

  0000c	8b 45 08	 mov	 eax, DWORD PTR __Ptr$[ebp]
  0000f	89 45 f0	 mov	 DWORD PTR $T544044[ebp], eax
  00012	83 65 fc 00	 and	 DWORD PTR __$EHRec$[ebp+8], 0
  00016	85 c0		 test	 eax, eax
  00018	74 13		 je	 SHORT $LN3@construct@6
  0001a	8b 4d 0c	 mov	 ecx, DWORD PTR __Val$[ebp]
  0001d	8b 11		 mov	 edx, DWORD PTR [ecx]
  0001f	83 c1 04	 add	 ecx, 4
  00022	51		 push	 ecx
  00023	8d 48 04	 lea	 ecx, DWORD PTR [eax+4]
  00026	89 10		 mov	 DWORD PTR [eax], edx
  00028	e8 00 00 00 00	 call	 ??0DefenseList@ioDefenseController@@QAE@ABU01@@Z
$LN3@construct@6:

; 203  : 		}

  0002d	e8 00 00 00 00	 call	 __EH_epilog3
  00032	c2 08 00	 ret	 8
_TEXT	ENDS
;	COMDAT text$x
text$x	SEGMENT
__unwindfunclet$?construct@?$allocator@U?$pair@$$CBKUDefenseList@ioDefenseController@@@std@@@std@@QAEXPAU?$pair@$$CBKUDefenseList@ioDefenseController@@@2@$$QAU32@@Z$0:
  00000	ff 75 08	 push	 DWORD PTR __Ptr$[ebp]
  00003	ff 75 f0	 push	 DWORD PTR $T544044[ebp]
  00006	e8 00 00 00 00	 call	 ??3@YAXPAX0@Z		; operator delete
  0000b	59		 pop	 ecx
  0000c	59		 pop	 ecx
  0000d	c3		 ret	 0
__ehhandler$?construct@?$allocator@U?$pair@$$CBKUDefenseList@ioDefenseController@@@std@@@std@@QAEXPAU?$pair@$$CBKUDefenseList@ioDefenseController@@@2@$$QAU32@@Z:
  0000e	8b 54 24 08	 mov	 edx, DWORD PTR [esp+8]
  00012	8d 42 0c	 lea	 eax, DWORD PTR [edx+12]
  00015	8b 4a ec	 mov	 ecx, DWORD PTR [edx-20]
  00018	33 c8		 xor	 ecx, eax
  0001a	e8 00 00 00 00	 call	 @__security_check_cookie@4
  0001f	b8 00 00 00 00	 mov	 eax, OFFSET __ehfuncinfo$?construct@?$allocator@U?$pair@$$CBKUDefenseList@ioDefenseController@@@std@@@std@@QAEXPAU?$pair@$$CBKUDefenseList@ioDefenseController@@@2@$$QAU32@@Z
  00024	e9 00 00 00 00	 jmp	 ___CxxFrameHandler3
text$x	ENDS
?construct@?$allocator@U?$pair@$$CBKUDefenseList@ioDefenseController@@@std@@@std@@QAEXPAU?$pair@$$CBKUDefenseList@ioDefenseController@@@2@$$QAU32@@Z ENDP ; std::allocator<std::pair<unsigned long const ,ioDefenseController::DefenseList> >::construct
PUBLIC	?_Destroy@?$vector@V?$basic_string@DU?$char_traits@D@std@@V?$allocator@D@2@@std@@V?$allocator@V?$basic_string@DU?$char_traits@D@std@@V?$allocator@D@2@@std@@@2@@std@@IAEXPAV?$basic_string@DU?$char_traits@D@std@@V?$allocator@D@2@@2@0@Z ; std::vector<std::basic_string<char,std::char_traits<char>,std::allocator<char> >,std::allocator<std::basic_string<char,std::char_traits<char>,std::allocator<char> > > >::_Destroy
; Function compile flags: /Ogsp
; File c:\program files (x86)\microsoft visual studio 10.0\vc\include\vector
;	COMDAT ?_Destroy@?$vector@V?$basic_string@DU?$char_traits@D@std@@V?$allocator@D@2@@std@@V?$allocator@V?$basic_string@DU?$char_traits@D@std@@V?$allocator@D@2@@std@@@2@@std@@IAEXPAV?$basic_string@DU?$char_traits@D@std@@V?$allocator@D@2@@2@0@Z
_TEXT	SEGMENT
__First$ = 8						; size = 4
__Cat$544105 = 12					; size = 1
__Last$ = 12						; size = 4
?_Destroy@?$vector@V?$basic_string@DU?$char_traits@D@std@@V?$allocator@D@2@@std@@V?$allocator@V?$basic_string@DU?$char_traits@D@std@@V?$allocator@D@2@@std@@@2@@std@@IAEXPAV?$basic_string@DU?$char_traits@D@std@@V?$allocator@D@2@@2@0@Z PROC ; std::vector<std::basic_string<char,std::char_traits<char>,std::allocator<char> >,std::allocator<std::basic_string<char,std::char_traits<char>,std::allocator<char> > > >::_Destroy, COMDAT
; _this$ = ecx

; 1269 : 		{	// destroy [_First, _Last) using allocator

  00000	55		 push	 ebp
  00001	8b ec		 mov	 ebp, esp

; 1270 : 		_Destroy_range(_First, _Last, this->_Alval);

  00003	ff 75 0c	 push	 DWORD PTR __Cat$544105[ebp]
  00006	83 c1 0c	 add	 ecx, 12			; 0000000cH
  00009	51		 push	 ecx
  0000a	ff 75 0c	 push	 DWORD PTR __Last$[ebp]
  0000d	ff 75 08	 push	 DWORD PTR __First$[ebp]
  00010	e8 00 00 00 00	 call	 ??$_Destroy_range@V?$allocator@V?$basic_string@DU?$char_traits@D@std@@V?$allocator@D@2@@std@@@std@@@std@@YAXPAV?$basic_string@DU?$char_traits@D@std@@V?$allocator@D@2@@0@0AAV?$allocator@V?$basic_string@DU?$char_traits@D@std@@V?$allocator@D@2@@std@@@0@U_Nonscalar_ptr_iterator_tag@0@@Z ; std::_Destroy_range<std::allocator<std::basic_string<char,std::char_traits<char>,std::allocator<char> > > >
  00015	83 c4 10	 add	 esp, 16			; 00000010H

; 1271 : 		}

  00018	5d		 pop	 ebp
  00019	c2 08 00	 ret	 8
?_Destroy@?$vector@V?$basic_string@DU?$char_traits@D@std@@V?$allocator@D@2@@std@@V?$allocator@V?$basic_string@DU?$char_traits@D@std@@V?$allocator@D@2@@std@@@2@@std@@IAEXPAV?$basic_string@DU?$char_traits@D@std@@V?$allocator@D@2@@2@0@Z ENDP ; std::vector<std::basic_string<char,std::char_traits<char>,std::allocator<char> >,std::allocator<std::basic_string<char,std::char_traits<char>,std::allocator<char> > > >::_Destroy
_TEXT	ENDS
PUBLIC	?erase@?$vector@V?$basic_string@DU?$char_traits@D@std@@V?$allocator@D@2@@std@@V?$allocator@V?$basic_string@DU?$char_traits@D@std@@V?$allocator@D@2@@std@@@2@@std@@QAE?AV?$_Vector_iterator@V?$_Vector_val@V?$basic_string@DU?$char_traits@D@std@@V?$allocator@D@2@@std@@V?$allocator@V?$basic_string@DU?$char_traits@D@std@@V?$allocator@D@2@@std@@@2@@std@@@2@V?$_Vector_const_iterator@V?$_Vector_val@V?$basic_string@DU?$char_traits@D@std@@V?$allocator@D@2@@std@@V?$allocator@V?$basic_string@DU?$char_traits@D@std@@V?$allocator@D@2@@std@@@2@@std@@@2@0@Z ; std::vector<std::basic_string<char,std::char_traits<char>,std::allocator<char> >,std::allocator<std::basic_string<char,std::char_traits<char>,std::allocator<char> > > >::erase
; Function compile flags: /Ogsp
;	COMDAT ?erase@?$vector@V?$basic_string@DU?$char_traits@D@std@@V?$allocator@D@2@@std@@V?$allocator@V?$basic_string@DU?$char_traits@D@std@@V?$allocator@D@2@@std@@@2@@std@@QAE?AV?$_Vector_iterator@V?$_Vector_val@V?$basic_string@DU?$char_traits@D@std@@V?$allocator@D@2@@std@@V?$allocator@V?$basic_string@DU?$char_traits@D@std@@V?$allocator@D@2@@std@@@2@@std@@@2@V?$_Vector_const_iterator@V?$_Vector_val@V?$basic_string@DU?$char_traits@D@std@@V?$allocator@D@2@@std@@V?$allocator@V?$basic_string@DU?$char_traits@D@std@@V?$allocator@D@2@@std@@@2@@std@@@2@0@Z
_TEXT	SEGMENT
___$ReturnUdt$ = 8					; size = 4
__First_arg$ = 12					; size = 4
__Cat$544207 = 16					; size = 1
__Cat$544182 = 16					; size = 1
__Last_arg$ = 16					; size = 4
?erase@?$vector@V?$basic_string@DU?$char_traits@D@std@@V?$allocator@D@2@@std@@V?$allocator@V?$basic_string@DU?$char_traits@D@std@@V?$allocator@D@2@@std@@@2@@std@@QAE?AV?$_Vector_iterator@V?$_Vector_val@V?$basic_string@DU?$char_traits@D@std@@V?$allocator@D@2@@std@@V?$allocator@V?$basic_string@DU?$char_traits@D@std@@V?$allocator@D@2@@std@@@2@@std@@@2@V?$_Vector_const_iterator@V?$_Vector_val@V?$basic_string@DU?$char_traits@D@std@@V?$allocator@D@2@@std@@V?$allocator@V?$basic_string@DU?$char_traits@D@std@@V?$allocator@D@2@@std@@@2@@std@@@2@0@Z PROC ; std::vector<std::basic_string<char,std::char_traits<char>,std::allocator<char> >,std::allocator<std::basic_string<char,std::char_traits<char>,std::allocator<char> > > >::erase, COMDAT
; _this$ = ecx

; 1190 : 		{	// erase [_First, _Last)

  00000	55		 push	 ebp
  00001	8b ec		 mov	 ebp, esp

; 1191 : 		iterator _First = _Make_iter(_First_arg);

  00003	8b 45 0c	 mov	 eax, DWORD PTR __First_arg$[ebp]
  00006	53		 push	 ebx
  00007	8b 5d 08	 mov	 ebx, DWORD PTR ___$ReturnUdt$[ebp]
  0000a	56		 push	 esi
  0000b	8b f1		 mov	 esi, ecx
  0000d	89 03		 mov	 DWORD PTR [ebx], eax

; 1192 : 		iterator _Last = _Make_iter(_Last_arg);
; 1193 : 
; 1194 : 		if (_First != _Last)

  0000f	3b 45 10	 cmp	 eax, DWORD PTR __Last_arg$[ebp]
  00012	74 2a		 je	 SHORT $LN1@erase@3

; 1195 : 			{	// worth doing, copy down over hole
; 1196 :  #if _ITERATOR_DEBUG_LEVEL == 2
; 1197 : 			if (_Last < _First || _VICONT(_First) != this
; 1198 : 				|| _VIPTR(_First) < this->_Myfirst
; 1199 : 				|| this->_Mylast < _VIPTR(_Last))
; 1200 : 				_DEBUG_ERROR("vector erase iterator outside range");
; 1201 : 			pointer _Ptr = _Move(_VIPTR(_Last), this->_Mylast,
; 1202 : 				_VIPTR(_First));
; 1203 : 			_Orphan_range(_VIPTR(_First), this->_Mylast);
; 1204 : 
; 1205 :  #else /* _ITERATOR_DEBUG_LEVEL == 2 */
; 1206 : 			pointer _Ptr = _Move(_VIPTR(_Last), this->_Mylast,
; 1207 : 				_VIPTR(_First));

  00014	8b 4e 04	 mov	 ecx, DWORD PTR [esi+4]
  00017	57		 push	 edi
  00018	ff 75 10	 push	 DWORD PTR __Cat$544182[ebp]
  0001b	50		 push	 eax
  0001c	51		 push	 ecx
  0001d	ff 75 10	 push	 DWORD PTR __Last_arg$[ebp]
  00020	e8 00 00 00 00	 call	 ??$_Move@PAV?$basic_string@DU?$char_traits@D@std@@V?$allocator@D@2@@std@@PAV12@@std@@YAPAV?$basic_string@DU?$char_traits@D@std@@V?$allocator@D@2@@0@PAV10@00U_Nonscalar_ptr_iterator_tag@0@@Z ; std::_Move<std::basic_string<char,std::char_traits<char>,std::allocator<char> > *,std::basic_string<char,std::char_traits<char>,std::allocator<char> > *>

; 1208 :  #endif /* _ITERATOR_DEBUG_LEVEL == 2 */
; 1209 : 
; 1210 : 			_Destroy(_Ptr, this->_Mylast);

  00025	ff 75 10	 push	 DWORD PTR __Cat$544207[ebp]
  00028	8b f8		 mov	 edi, eax
  0002a	8d 46 0c	 lea	 eax, DWORD PTR [esi+12]
  0002d	50		 push	 eax
  0002e	ff 76 04	 push	 DWORD PTR [esi+4]
  00031	57		 push	 edi
  00032	e8 00 00 00 00	 call	 ??$_Destroy_range@V?$allocator@V?$basic_string@DU?$char_traits@D@std@@V?$allocator@D@2@@std@@@std@@@std@@YAXPAV?$basic_string@DU?$char_traits@D@std@@V?$allocator@D@2@@0@0AAV?$allocator@V?$basic_string@DU?$char_traits@D@std@@V?$allocator@D@2@@std@@@0@U_Nonscalar_ptr_iterator_tag@0@@Z ; std::_Destroy_range<std::allocator<std::basic_string<char,std::char_traits<char>,std::allocator<char> > > >
  00037	83 c4 20	 add	 esp, 32			; 00000020H

; 1211 : 			this->_Mylast = _Ptr;

  0003a	89 7e 04	 mov	 DWORD PTR [esi+4], edi
  0003d	5f		 pop	 edi
$LN1@erase@3:

; 1212 : 			}
; 1213 : 		return (_First);

  0003e	5e		 pop	 esi
  0003f	8b c3		 mov	 eax, ebx
  00041	5b		 pop	 ebx

; 1214 : 		}

  00042	5d		 pop	 ebp
  00043	c2 0c 00	 ret	 12			; 0000000cH
?erase@?$vector@V?$basic_string@DU?$char_traits@D@std@@V?$allocator@D@2@@std@@V?$allocator@V?$basic_string@DU?$char_traits@D@std@@V?$allocator@D@2@@std@@@2@@std@@QAE?AV?$_Vector_iterator@V?$_Vector_val@V?$basic_string@DU?$char_traits@D@std@@V?$allocator@D@2@@std@@V?$allocator@V?$basic_string@DU?$char_traits@D@std@@V?$allocator@D@2@@std@@@2@@std@@@2@V?$_Vector_const_iterator@V?$_Vector_val@V?$basic_string@DU?$char_traits@D@std@@V?$allocator@D@2@@std@@V?$allocator@V?$basic_string@DU?$char_traits@D@std@@V?$allocator@D@2@@std@@@2@@std@@@2@0@Z ENDP ; std::vector<std::basic_string<char,std::char_traits<char>,std::allocator<char> >,std::allocator<std::basic_string<char,std::char_traits<char>,std::allocator<char> > > >::erase
_TEXT	ENDS
PUBLIC	?destroy@?$allocator@U?$pair@$$CBKUDefenseList@ioDefenseController@@@std@@@std@@QAEXPAU?$pair@$$CBKUDefenseList@ioDefenseController@@@2@@Z ; std::allocator<std::pair<unsigned long const ,ioDefenseController::DefenseList> >::destroy
; Function compile flags: /Ogsp
; File c:\program files (x86)\microsoft visual studio 10.0\vc\include\xmemory
;	COMDAT ?destroy@?$allocator@U?$pair@$$CBKUDefenseList@ioDefenseController@@@std@@@std@@QAEXPAU?$pair@$$CBKUDefenseList@ioDefenseController@@@2@@Z
_TEXT	SEGMENT
__Ptr$ = 8						; size = 4
?destroy@?$allocator@U?$pair@$$CBKUDefenseList@ioDefenseController@@@std@@@std@@QAEXPAU?$pair@$$CBKUDefenseList@ioDefenseController@@@2@@Z PROC ; std::allocator<std::pair<unsigned long const ,ioDefenseController::DefenseList> >::destroy, COMDAT
; _this$ = ecx

; 212  : 		{	// destroy object at _Ptr

  00000	55		 push	 ebp
  00001	8b ec		 mov	 ebp, esp

; 213  : 		_Destroy(_Ptr);

  00003	8b 4d 08	 mov	 ecx, DWORD PTR __Ptr$[ebp]
  00006	83 c1 04	 add	 ecx, 4
  00009	e8 00 00 00 00	 call	 ??1DefenseList@ioDefenseController@@QAE@XZ

; 214  : 		}

  0000e	5d		 pop	 ebp
  0000f	c2 04 00	 ret	 4
?destroy@?$allocator@U?$pair@$$CBKUDefenseList@ioDefenseController@@@std@@@std@@QAEXPAU?$pair@$$CBKUDefenseList@ioDefenseController@@@2@@Z ENDP ; std::allocator<std::pair<unsigned long const ,ioDefenseController::DefenseList> >::destroy
_TEXT	ENDS
PUBLIC	??$_Uninitialized_copy@V?$_Vector_const_iterator@V?$_Vector_val@V?$basic_string@DU?$char_traits@D@std@@V?$allocator@D@2@@std@@V?$allocator@V?$basic_string@DU?$char_traits@D@std@@V?$allocator@D@2@@std@@@2@@std@@@std@@PAV?$basic_string@DU?$char_traits@D@std@@V?$allocator@D@2@@2@V?$allocator@V?$basic_string@DU?$char_traits@D@std@@V?$allocator@D@2@@std@@@2@@std@@YAPAV?$basic_string@DU?$char_traits@D@std@@V?$allocator@D@2@@0@V?$_Vector_const_iterator@V?$_Vector_val@V?$basic_string@DU?$char_traits@D@std@@V?$allocator@D@2@@std@@V?$allocator@V?$basic_string@DU?$char_traits@D@std@@V?$allocator@D@2@@std@@@2@@std@@@0@0PAV10@AAV?$allocator@V?$basic_string@DU?$char_traits@D@std@@V?$allocator@D@2@@std@@@0@@Z ; std::_Uninitialized_copy<std::_Vector_const_iterator<std::_Vector_val<std::basic_string<char,std::char_traits<char>,std::allocator<char> >,std::allocator<std::basic_string<char,std::char_traits<char>,std::allocator<char> > > > >,std::basic_string<char,std::char_traits<char>,std::allocator<char> > *,std::allocator<std::basic_string<char,std::char_traits<char>,std::allocator<char> > > >
; Function compile flags: /Ogsp
; File c:\program files (x86)\microsoft visual studio 10.0\vc\include\memory
;	COMDAT ??$_Uninitialized_copy@V?$_Vector_const_iterator@V?$_Vector_val@V?$basic_string@DU?$char_traits@D@std@@V?$allocator@D@2@@std@@V?$allocator@V?$basic_string@DU?$char_traits@D@std@@V?$allocator@D@2@@std@@@2@@std@@@std@@PAV?$basic_string@DU?$char_traits@D@std@@V?$allocator@D@2@@2@V?$allocator@V?$basic_string@DU?$char_traits@D@std@@V?$allocator@D@2@@std@@@2@@std@@YAPAV?$basic_string@DU?$char_traits@D@std@@V?$allocator@D@2@@0@V?$_Vector_const_iterator@V?$_Vector_val@V?$basic_string@DU?$char_traits@D@std@@V?$allocator@D@2@@std@@V?$allocator@V?$basic_string@DU?$char_traits@D@std@@V?$allocator@D@2@@std@@@2@@std@@@0@0PAV10@AAV?$allocator@V?$basic_string@DU?$char_traits@D@std@@V?$allocator@D@2@@std@@@0@@Z
_TEXT	SEGMENT
__Cat$544245 = -4					; size = 1
__First$ = 8						; size = 4
__Last$ = 12						; size = 4
__Dest$ = 16						; size = 4
__Al$ = 20						; size = 4
??$_Uninitialized_copy@V?$_Vector_const_iterator@V?$_Vector_val@V?$basic_string@DU?$char_traits@D@std@@V?$allocator@D@2@@std@@V?$allocator@V?$basic_string@DU?$char_traits@D@std@@V?$allocator@D@2@@std@@@2@@std@@@std@@PAV?$basic_string@DU?$char_traits@D@std@@V?$allocator@D@2@@2@V?$allocator@V?$basic_string@DU?$char_traits@D@std@@V?$allocator@D@2@@std@@@2@@std@@YAPAV?$basic_string@DU?$char_traits@D@std@@V?$allocator@D@2@@0@V?$_Vector_const_iterator@V?$_Vector_val@V?$basic_string@DU?$char_traits@D@std@@V?$allocator@D@2@@std@@V?$allocator@V?$basic_string@DU?$char_traits@D@std@@V?$allocator@D@2@@std@@@2@@std@@@0@0PAV10@AAV?$allocator@V?$basic_string@DU?$char_traits@D@std@@V?$allocator@D@2@@std@@@0@@Z PROC ; std::_Uninitialized_copy<std::_Vector_const_iterator<std::_Vector_val<std::basic_string<char,std::char_traits<char>,std::allocator<char> >,std::allocator<std::basic_string<char,std::char_traits<char>,std::allocator<char> > > > >,std::basic_string<char,std::char_traits<char>,std::allocator<char> > *,std::allocator<std::basic_string<char,std::char_traits<char>,std::allocator<char> > > >, COMDAT

; 412  : 	{	// copy [_First, _Last) to raw _Dest, using _Al

  00000	55		 push	 ebp
  00001	8b ec		 mov	 ebp, esp
  00003	51		 push	 ecx

; 413  : 	return (_Uninit_copy(_First, _Last, _Dest, _Al,
; 414  : 		_Ptr_cat(_First, _Dest)));

  00004	ff 75 fc	 push	 DWORD PTR __Cat$544245[ebp]
  00007	ff 75 14	 push	 DWORD PTR __Al$[ebp]
  0000a	ff 75 10	 push	 DWORD PTR __Dest$[ebp]
  0000d	ff 75 0c	 push	 DWORD PTR __Last$[ebp]
  00010	ff 75 08	 push	 DWORD PTR __First$[ebp]
  00013	e8 00 00 00 00	 call	 ??$_Uninit_copy@V?$_Vector_const_iterator@V?$_Vector_val@V?$basic_string@DU?$char_traits@D@std@@V?$allocator@D@2@@std@@V?$allocator@V?$basic_string@DU?$char_traits@D@std@@V?$allocator@D@2@@std@@@2@@std@@@std@@PAV?$basic_string@DU?$char_traits@D@std@@V?$allocator@D@2@@2@V?$allocator@V?$basic_string@DU?$char_traits@D@std@@V?$allocator@D@2@@std@@@2@@std@@YAPAV?$basic_string@DU?$char_traits@D@std@@V?$allocator@D@2@@0@V?$_Vector_const_iterator@V?$_Vector_val@V?$basic_string@DU?$char_traits@D@std@@V?$allocator@D@2@@std@@V?$allocator@V?$basic_string@DU?$char_traits@D@std@@V?$allocator@D@2@@std@@@2@@std@@@0@0PAV10@AAV?$allocator@V?$basic_string@DU?$char_traits@D@std@@V?$allocator@D@2@@std@@@0@U_Nonscalar_ptr_iterator_tag@0@@Z ; std::_Uninit_copy<std::_Vector_const_iterator<std::_Vector_val<std::basic_string<char,std::char_traits<char>,std::allocator<char> >,std::allocator<std::basic_string<char,std::char_traits<char>,std::allocator<char> > > > >,std::basic_string<char,std::char_traits<char>,std::allocator<char> > *,std::allocator<std::basic_string<char,std::char_traits<char>,std::allocator<char> > > >
  00018	83 c4 14	 add	 esp, 20			; 00000014H

; 415  : 	}

  0001b	c9		 leave
  0001c	c3		 ret	 0
??$_Uninitialized_copy@V?$_Vector_const_iterator@V?$_Vector_val@V?$basic_string@DU?$char_traits@D@std@@V?$allocator@D@2@@std@@V?$allocator@V?$basic_string@DU?$char_traits@D@std@@V?$allocator@D@2@@std@@@2@@std@@@std@@PAV?$basic_string@DU?$char_traits@D@std@@V?$allocator@D@2@@2@V?$allocator@V?$basic_string@DU?$char_traits@D@std@@V?$allocator@D@2@@std@@@2@@std@@YAPAV?$basic_string@DU?$char_traits@D@std@@V?$allocator@D@2@@0@V?$_Vector_const_iterator@V?$_Vector_val@V?$basic_string@DU?$char_traits@D@std@@V?$allocator@D@2@@std@@V?$allocator@V?$basic_string@DU?$char_traits@D@std@@V?$allocator@D@2@@std@@@2@@std@@@0@0PAV10@AAV?$allocator@V?$basic_string@DU?$char_traits@D@std@@V?$allocator@D@2@@std@@@0@@Z ENDP ; std::_Uninitialized_copy<std::_Vector_const_iterator<std::_Vector_val<std::basic_string<char,std::char_traits<char>,std::allocator<char> >,std::allocator<std::basic_string<char,std::char_traits<char>,std::allocator<char> > > > >,std::basic_string<char,std::char_traits<char>,std::allocator<char> > *,std::allocator<std::basic_string<char,std::char_traits<char>,std::allocator<char> > > >
_TEXT	ENDS
PUBLIC	??$_Cons_val@V?$allocator@U?$pair@$$CBKUDefenseList@ioDefenseController@@@std@@@std@@U?$pair@$$CBKUDefenseList@ioDefenseController@@@2@U32@@std@@YAXAAV?$allocator@U?$pair@$$CBKUDefenseList@ioDefenseController@@@std@@@0@PAU?$pair@$$CBKUDefenseList@ioDefenseController@@@0@$$QAU20@@Z ; std::_Cons_val<std::allocator<std::pair<unsigned long const ,ioDefenseController::DefenseList> >,std::pair<unsigned long const ,ioDefenseController::DefenseList>,std::pair<unsigned long const ,ioDefenseController::DefenseList> >
; Function compile flags: /Ogsp
; File c:\program files (x86)\microsoft visual studio 10.0\vc\include\xmemory
;	COMDAT ??$_Cons_val@V?$allocator@U?$pair@$$CBKUDefenseList@ioDefenseController@@@std@@@std@@U?$pair@$$CBKUDefenseList@ioDefenseController@@@2@U32@@std@@YAXAAV?$allocator@U?$pair@$$CBKUDefenseList@ioDefenseController@@@std@@@0@PAU?$pair@$$CBKUDefenseList@ioDefenseController@@@0@$$QAU20@@Z
_TEXT	SEGMENT
__Alval$ = 8						; size = 4
__Pdest$ = 12						; size = 4
__Src$ = 16						; size = 4
??$_Cons_val@V?$allocator@U?$pair@$$CBKUDefenseList@ioDefenseController@@@std@@@std@@U?$pair@$$CBKUDefenseList@ioDefenseController@@@2@U32@@std@@YAXAAV?$allocator@U?$pair@$$CBKUDefenseList@ioDefenseController@@@std@@@0@PAU?$pair@$$CBKUDefenseList@ioDefenseController@@@0@$$QAU20@@Z PROC ; std::_Cons_val<std::allocator<std::pair<unsigned long const ,ioDefenseController::DefenseList> >,std::pair<unsigned long const ,ioDefenseController::DefenseList>,std::pair<unsigned long const ,ioDefenseController::DefenseList> >, COMDAT

; 279  : 	{	// construct using allocator

  00000	55		 push	 ebp
  00001	8b ec		 mov	 ebp, esp

; 280  : 	_Alval.construct(_Pdest, _STD forward<_Ty2>(_Src));

  00003	ff 75 10	 push	 DWORD PTR __Src$[ebp]
  00006	8b 4d 08	 mov	 ecx, DWORD PTR __Alval$[ebp]
  00009	ff 75 0c	 push	 DWORD PTR __Pdest$[ebp]
  0000c	e8 00 00 00 00	 call	 ?construct@?$allocator@U?$pair@$$CBKUDefenseList@ioDefenseController@@@std@@@std@@QAEXPAU?$pair@$$CBKUDefenseList@ioDefenseController@@@2@$$QAU32@@Z ; std::allocator<std::pair<unsigned long const ,ioDefenseController::DefenseList> >::construct

; 281  : 	}

  00011	5d		 pop	 ebp
  00012	c3		 ret	 0
??$_Cons_val@V?$allocator@U?$pair@$$CBKUDefenseList@ioDefenseController@@@std@@@std@@U?$pair@$$CBKUDefenseList@ioDefenseController@@@2@U32@@std@@YAXAAV?$allocator@U?$pair@$$CBKUDefenseList@ioDefenseController@@@std@@@0@PAU?$pair@$$CBKUDefenseList@ioDefenseController@@@0@$$QAU20@@Z ENDP ; std::_Cons_val<std::allocator<std::pair<unsigned long const ,ioDefenseController::DefenseList> >,std::pair<unsigned long const ,ioDefenseController::DefenseList>,std::pair<unsigned long const ,ioDefenseController::DefenseList> >
_TEXT	ENDS
PUBLIC	?_Tidy@?$vector@V?$basic_string@DU?$char_traits@D@std@@V?$allocator@D@2@@std@@V?$allocator@V?$basic_string@DU?$char_traits@D@std@@V?$allocator@D@2@@std@@@2@@std@@IAEXXZ ; std::vector<std::basic_string<char,std::char_traits<char>,std::allocator<char> >,std::allocator<std::basic_string<char,std::char_traits<char>,std::allocator<char> > > >::_Tidy
; Function compile flags: /Ogsp
; File c:\program files (x86)\microsoft visual studio 10.0\vc\include\vector
;	COMDAT ?_Tidy@?$vector@V?$basic_string@DU?$char_traits@D@std@@V?$allocator@D@2@@std@@V?$allocator@V?$basic_string@DU?$char_traits@D@std@@V?$allocator@D@2@@std@@@2@@std@@IAEXXZ
_TEXT	SEGMENT
__Cat$544273 = -4					; size = 1
?_Tidy@?$vector@V?$basic_string@DU?$char_traits@D@std@@V?$allocator@D@2@@std@@V?$allocator@V?$basic_string@DU?$char_traits@D@std@@V?$allocator@D@2@@std@@@2@@std@@IAEXXZ PROC ; std::vector<std::basic_string<char,std::char_traits<char>,std::allocator<char> >,std::allocator<std::basic_string<char,std::char_traits<char>,std::allocator<char> > > >::_Tidy, COMDAT
; _this$ = ecx

; 1301 : 		{	// free all storage

  00000	55		 push	 ebp
  00001	8b ec		 mov	 ebp, esp
  00003	51		 push	 ecx
  00004	56		 push	 esi
  00005	8b f1		 mov	 esi, ecx

; 1302 : 		if (this->_Myfirst != 0)

  00007	83 3e 00	 cmp	 DWORD PTR [esi], 0
  0000a	74 21		 je	 SHORT $LN10@Tidy@4

; 1303 : 			{	// something to free, destroy and deallocate it
; 1304 : 			this->_Orphan_all();

  0000c	ff 15 00 00 00
	00		 call	 DWORD PTR __imp_?_Orphan_all@_Container_base0@std@@QAEXXZ

; 1305 : 			_Destroy(this->_Myfirst, this->_Mylast);

  00012	ff 75 fc	 push	 DWORD PTR __Cat$544273[ebp]
  00015	8d 46 0c	 lea	 eax, DWORD PTR [esi+12]
  00018	50		 push	 eax
  00019	ff 76 04	 push	 DWORD PTR [esi+4]
  0001c	ff 36		 push	 DWORD PTR [esi]
  0001e	e8 00 00 00 00	 call	 ??$_Destroy_range@V?$allocator@V?$basic_string@DU?$char_traits@D@std@@V?$allocator@D@2@@std@@@std@@@std@@YAXPAV?$basic_string@DU?$char_traits@D@std@@V?$allocator@D@2@@0@0AAV?$allocator@V?$basic_string@DU?$char_traits@D@std@@V?$allocator@D@2@@std@@@0@U_Nonscalar_ptr_iterator_tag@0@@Z ; std::_Destroy_range<std::allocator<std::basic_string<char,std::char_traits<char>,std::allocator<char> > > >

; 1306 : 			this->_Alval.deallocate(this->_Myfirst,
; 1307 : 				this->_Myend - this->_Myfirst);

  00023	ff 36		 push	 DWORD PTR [esi]
  00025	e8 00 00 00 00	 call	 ??3@YAXPAX@Z		; operator delete
  0002a	83 c4 14	 add	 esp, 20			; 00000014H
$LN10@Tidy@4:

; 1308 : 			}
; 1309 : 		this->_Myfirst = 0;

  0002d	83 26 00	 and	 DWORD PTR [esi], 0

; 1310 : 		this->_Mylast = 0;

  00030	83 66 04 00	 and	 DWORD PTR [esi+4], 0

; 1311 : 		this->_Myend = 0;

  00034	83 66 08 00	 and	 DWORD PTR [esi+8], 0
  00038	5e		 pop	 esi

; 1312 : 		}

  00039	c9		 leave
  0003a	c3		 ret	 0
?_Tidy@?$vector@V?$basic_string@DU?$char_traits@D@std@@V?$allocator@D@2@@std@@V?$allocator@V?$basic_string@DU?$char_traits@D@std@@V?$allocator@D@2@@std@@@2@@std@@IAEXXZ ENDP ; std::vector<std::basic_string<char,std::char_traits<char>,std::allocator<char> >,std::allocator<std::basic_string<char,std::char_traits<char>,std::allocator<char> > > >::_Tidy
_TEXT	ENDS
PUBLIC	?clear@?$vector@V?$basic_string@DU?$char_traits@D@std@@V?$allocator@D@2@@std@@V?$allocator@V?$basic_string@DU?$char_traits@D@std@@V?$allocator@D@2@@std@@@2@@std@@QAEXXZ ; std::vector<std::basic_string<char,std::char_traits<char>,std::allocator<char> >,std::allocator<std::basic_string<char,std::char_traits<char>,std::allocator<char> > > >::clear
; Function compile flags: /Ogsp
;	COMDAT ?clear@?$vector@V?$basic_string@DU?$char_traits@D@std@@V?$allocator@D@2@@std@@V?$allocator@V?$basic_string@DU?$char_traits@D@std@@V?$allocator@D@2@@std@@@2@@std@@QAEXXZ
_TEXT	SEGMENT
$T544288 = -4						; size = 4
?clear@?$vector@V?$basic_string@DU?$char_traits@D@std@@V?$allocator@D@2@@std@@V?$allocator@V?$basic_string@DU?$char_traits@D@std@@V?$allocator@D@2@@std@@@2@@std@@QAEXXZ PROC ; std::vector<std::basic_string<char,std::char_traits<char>,std::allocator<char> >,std::allocator<std::basic_string<char,std::char_traits<char>,std::allocator<char> > > >::clear, COMDAT
; _this$ = ecx

; 1217 : 		{	// erase all

  00000	55		 push	 ebp
  00001	8b ec		 mov	 ebp, esp
  00003	51		 push	 ecx

; 1218 : 		erase(begin(), end());

  00004	8b 41 04	 mov	 eax, DWORD PTR [ecx+4]
  00007	8b 11		 mov	 edx, DWORD PTR [ecx]
  00009	50		 push	 eax
  0000a	52		 push	 edx
  0000b	8d 45 fc	 lea	 eax, DWORD PTR $T544288[ebp]
  0000e	50		 push	 eax
  0000f	e8 00 00 00 00	 call	 ?erase@?$vector@V?$basic_string@DU?$char_traits@D@std@@V?$allocator@D@2@@std@@V?$allocator@V?$basic_string@DU?$char_traits@D@std@@V?$allocator@D@2@@std@@@2@@std@@QAE?AV?$_Vector_iterator@V?$_Vector_val@V?$basic_string@DU?$char_traits@D@std@@V?$allocator@D@2@@std@@V?$allocator@V?$basic_string@DU?$char_traits@D@std@@V?$allocator@D@2@@std@@@2@@std@@@2@V?$_Vector_const_iterator@V?$_Vector_val@V?$basic_string@DU?$char_traits@D@std@@V?$allocator@D@2@@std@@V?$allocator@V?$basic_string@DU?$char_traits@D@std@@V?$allocator@D@2@@std@@@2@@std@@@2@0@Z ; std::vector<std::basic_string<char,std::char_traits<char>,std::allocator<char> >,std::allocator<std::basic_string<char,std::char_traits<char>,std::allocator<char> > > >::erase

; 1219 : 		}

  00014	c9		 leave
  00015	c3		 ret	 0
?clear@?$vector@V?$basic_string@DU?$char_traits@D@std@@V?$allocator@D@2@@std@@V?$allocator@V?$basic_string@DU?$char_traits@D@std@@V?$allocator@D@2@@std@@@2@@std@@QAEXXZ ENDP ; std::vector<std::basic_string<char,std::char_traits<char>,std::allocator<char> >,std::allocator<std::basic_string<char,std::char_traits<char>,std::allocator<char> > > >::clear
_TEXT	ENDS
PUBLIC	??$_Ucopy@V?$_Vector_const_iterator@V?$_Vector_val@V?$basic_string@DU?$char_traits@D@std@@V?$allocator@D@2@@std@@V?$allocator@V?$basic_string@DU?$char_traits@D@std@@V?$allocator@D@2@@std@@@2@@std@@@std@@@?$vector@V?$basic_string@DU?$char_traits@D@std@@V?$allocator@D@2@@std@@V?$allocator@V?$basic_string@DU?$char_traits@D@std@@V?$allocator@D@2@@std@@@2@@std@@IAEPAV?$basic_string@DU?$char_traits@D@std@@V?$allocator@D@2@@1@V?$_Vector_const_iterator@V?$_Vector_val@V?$basic_string@DU?$char_traits@D@std@@V?$allocator@D@2@@std@@V?$allocator@V?$basic_string@DU?$char_traits@D@std@@V?$allocator@D@2@@std@@@2@@std@@@1@0PAV21@@Z ; std::vector<std::basic_string<char,std::char_traits<char>,std::allocator<char> >,std::allocator<std::basic_string<char,std::char_traits<char>,std::allocator<char> > > >::_Ucopy<std::_Vector_const_iterator<std::_Vector_val<std::basic_string<char,std::char_traits<char>,std::allocator<char> >,std::allocator<std::basic_string<char,std::char_traits<char>,std::allocator<char> > > > > >
; Function compile flags: /Ogsp
;	COMDAT ??$_Ucopy@V?$_Vector_const_iterator@V?$_Vector_val@V?$basic_string@DU?$char_traits@D@std@@V?$allocator@D@2@@std@@V?$allocator@V?$basic_string@DU?$char_traits@D@std@@V?$allocator@D@2@@std@@@2@@std@@@std@@@?$vector@V?$basic_string@DU?$char_traits@D@std@@V?$allocator@D@2@@std@@V?$allocator@V?$basic_string@DU?$char_traits@D@std@@V?$allocator@D@2@@std@@@2@@std@@IAEPAV?$basic_string@DU?$char_traits@D@std@@V?$allocator@D@2@@1@V?$_Vector_const_iterator@V?$_Vector_val@V?$basic_string@DU?$char_traits@D@std@@V?$allocator@D@2@@std@@V?$allocator@V?$basic_string@DU?$char_traits@D@std@@V?$allocator@D@2@@std@@@2@@std@@@1@0PAV21@@Z
_TEXT	SEGMENT
__First$ = 8						; size = 4
__Last$ = 12						; size = 4
__Cat$544350 = 16					; size = 1
__Ptr$ = 16						; size = 4
??$_Ucopy@V?$_Vector_const_iterator@V?$_Vector_val@V?$basic_string@DU?$char_traits@D@std@@V?$allocator@D@2@@std@@V?$allocator@V?$basic_string@DU?$char_traits@D@std@@V?$allocator@D@2@@std@@@2@@std@@@std@@@?$vector@V?$basic_string@DU?$char_traits@D@std@@V?$allocator@D@2@@std@@V?$allocator@V?$basic_string@DU?$char_traits@D@std@@V?$allocator@D@2@@std@@@2@@std@@IAEPAV?$basic_string@DU?$char_traits@D@std@@V?$allocator@D@2@@1@V?$_Vector_const_iterator@V?$_Vector_val@V?$basic_string@DU?$char_traits@D@std@@V?$allocator@D@2@@std@@V?$allocator@V?$basic_string@DU?$char_traits@D@std@@V?$allocator@D@2@@std@@@2@@std@@@1@0PAV21@@Z PROC ; std::vector<std::basic_string<char,std::char_traits<char>,std::allocator<char> >,std::allocator<std::basic_string<char,std::char_traits<char>,std::allocator<char> > > >::_Ucopy<std::_Vector_const_iterator<std::_Vector_val<std::basic_string<char,std::char_traits<char>,std::allocator<char> >,std::allocator<std::basic_string<char,std::char_traits<char>,std::allocator<char> > > > > >, COMDAT
; _this$ = ecx

; 1315 : 		pointer _Ucopy(_Iter _First, _Iter _Last, pointer _Ptr)

  00000	55		 push	 ebp
  00001	8b ec		 mov	 ebp, esp

; 1316 : 		{	// copy initializing [_First, _Last), using allocator
; 1317 : 		return (_Uninitialized_copy(_First, _Last,
; 1318 : 			_Ptr, this->_Alval));

  00003	ff 75 10	 push	 DWORD PTR __Cat$544350[ebp]
  00006	83 c1 0c	 add	 ecx, 12			; 0000000cH
  00009	51		 push	 ecx
  0000a	ff 75 10	 push	 DWORD PTR __Ptr$[ebp]
  0000d	ff 75 0c	 push	 DWORD PTR __Last$[ebp]
  00010	ff 75 08	 push	 DWORD PTR __First$[ebp]
  00013	e8 00 00 00 00	 call	 ??$_Uninit_copy@V?$_Vector_const_iterator@V?$_Vector_val@V?$basic_string@DU?$char_traits@D@std@@V?$allocator@D@2@@std@@V?$allocator@V?$basic_string@DU?$char_traits@D@std@@V?$allocator@D@2@@std@@@2@@std@@@std@@PAV?$basic_string@DU?$char_traits@D@std@@V?$allocator@D@2@@2@V?$allocator@V?$basic_string@DU?$char_traits@D@std@@V?$allocator@D@2@@std@@@2@@std@@YAPAV?$basic_string@DU?$char_traits@D@std@@V?$allocator@D@2@@0@V?$_Vector_const_iterator@V?$_Vector_val@V?$basic_string@DU?$char_traits@D@std@@V?$allocator@D@2@@std@@V?$allocator@V?$basic_string@DU?$char_traits@D@std@@V?$allocator@D@2@@std@@@2@@std@@@0@0PAV10@AAV?$allocator@V?$basic_string@DU?$char_traits@D@std@@V?$allocator@D@2@@std@@@0@U_Nonscalar_ptr_iterator_tag@0@@Z ; std::_Uninit_copy<std::_Vector_const_iterator<std::_Vector_val<std::basic_string<char,std::char_traits<char>,std::allocator<char> >,std::allocator<std::basic_string<char,std::char_traits<char>,std::allocator<char> > > > >,std::basic_string<char,std::char_traits<char>,std::allocator<char> > *,std::allocator<std::basic_string<char,std::char_traits<char>,std::allocator<char> > > >
  00018	83 c4 14	 add	 esp, 20			; 00000014H

; 1319 : 		}

  0001b	5d		 pop	 ebp
  0001c	c2 0c 00	 ret	 12			; 0000000cH
??$_Ucopy@V?$_Vector_const_iterator@V?$_Vector_val@V?$basic_string@DU?$char_traits@D@std@@V?$allocator@D@2@@std@@V?$allocator@V?$basic_string@DU?$char_traits@D@std@@V?$allocator@D@2@@std@@@2@@std@@@std@@@?$vector@V?$basic_string@DU?$char_traits@D@std@@V?$allocator@D@2@@std@@V?$allocator@V?$basic_string@DU?$char_traits@D@std@@V?$allocator@D@2@@std@@@2@@std@@IAEPAV?$basic_string@DU?$char_traits@D@std@@V?$allocator@D@2@@1@V?$_Vector_const_iterator@V?$_Vector_val@V?$basic_string@DU?$char_traits@D@std@@V?$allocator@D@2@@std@@V?$allocator@V?$basic_string@DU?$char_traits@D@std@@V?$allocator@D@2@@std@@@2@@std@@@1@0PAV21@@Z ENDP ; std::vector<std::basic_string<char,std::char_traits<char>,std::allocator<char> >,std::allocator<std::basic_string<char,std::char_traits<char>,std::allocator<char> > > >::_Ucopy<std::_Vector_const_iterator<std::_Vector_val<std::basic_string<char,std::char_traits<char>,std::allocator<char> >,std::allocator<std::basic_string<char,std::char_traits<char>,std::allocator<char> > > > > >
_TEXT	ENDS
PUBLIC	??$_Dest_val@V?$allocator@U?$pair@$$CBKUDefenseList@ioDefenseController@@@std@@@std@@U?$pair@$$CBKUDefenseList@ioDefenseController@@@2@@std@@YAXAAV?$allocator@U?$pair@$$CBKUDefenseList@ioDefenseController@@@std@@@0@PAU?$pair@$$CBKUDefenseList@ioDefenseController@@@0@@Z ; std::_Dest_val<std::allocator<std::pair<unsigned long const ,ioDefenseController::DefenseList> >,std::pair<unsigned long const ,ioDefenseController::DefenseList> >
; Function compile flags: /Ogsp
; File c:\program files (x86)\microsoft visual studio 10.0\vc\include\xmemory
;	COMDAT ??$_Dest_val@V?$allocator@U?$pair@$$CBKUDefenseList@ioDefenseController@@@std@@@std@@U?$pair@$$CBKUDefenseList@ioDefenseController@@@2@@std@@YAXAAV?$allocator@U?$pair@$$CBKUDefenseList@ioDefenseController@@@std@@@0@PAU?$pair@$$CBKUDefenseList@ioDefenseController@@@0@@Z
_TEXT	SEGMENT
__Alval$ = 8						; size = 4
__Pdest$ = 12						; size = 4
??$_Dest_val@V?$allocator@U?$pair@$$CBKUDefenseList@ioDefenseController@@@std@@@std@@U?$pair@$$CBKUDefenseList@ioDefenseController@@@2@@std@@YAXAAV?$allocator@U?$pair@$$CBKUDefenseList@ioDefenseController@@@std@@@0@PAU?$pair@$$CBKUDefenseList@ioDefenseController@@@0@@Z PROC ; std::_Dest_val<std::allocator<std::pair<unsigned long const ,ioDefenseController::DefenseList> >,std::pair<unsigned long const ,ioDefenseController::DefenseList> >, COMDAT

; 286  : 	{	// destroy using allocator

  00000	55		 push	 ebp
  00001	8b ec		 mov	 ebp, esp

; 287  : 	_Alval.destroy(_Pdest);

  00003	8b 4d 0c	 mov	 ecx, DWORD PTR __Pdest$[ebp]
  00006	83 c1 04	 add	 ecx, 4

; 288  : 	}

  00009	5d		 pop	 ebp

; 287  : 	_Alval.destroy(_Pdest);

  0000a	e9 00 00 00 00	 jmp	 ??1DefenseList@ioDefenseController@@QAE@XZ
??$_Dest_val@V?$allocator@U?$pair@$$CBKUDefenseList@ioDefenseController@@@std@@@std@@U?$pair@$$CBKUDefenseList@ioDefenseController@@@2@@std@@YAXAAV?$allocator@U?$pair@$$CBKUDefenseList@ioDefenseController@@@std@@@0@PAU?$pair@$$CBKUDefenseList@ioDefenseController@@@0@@Z ENDP ; std::_Dest_val<std::allocator<std::pair<unsigned long const ,ioDefenseController::DefenseList> >,std::pair<unsigned long const ,ioDefenseController::DefenseList> >
_TEXT	ENDS
PUBLIC	??_C@_0BE@JONHPENG@map?1set?$DMT?$DO?5too?5long?$AA@ ; `string'
PUBLIC	?_Insert@?$_Tree@V?$_Tmap_traits@KUDefenseList@ioDefenseController@@U?$less@K@std@@V?$allocator@U?$pair@$$CBKUDefenseList@ioDefenseController@@@std@@@4@$0A@@std@@@std@@IAE?AV?$_Tree_iterator@V?$_Tree_val@V?$_Tmap_traits@KUDefenseList@ioDefenseController@@U?$less@K@std@@V?$allocator@U?$pair@$$CBKUDefenseList@ioDefenseController@@@std@@@4@$0A@@std@@@std@@@2@_NPAU_Node@?$_Tree_nod@V?$_Tmap_traits@KUDefenseList@ioDefenseController@@U?$less@K@std@@V?$allocator@U?$pair@$$CBKUDefenseList@ioDefenseController@@@std@@@4@$0A@@std@@@2@1@Z ; std::_Tree<std::_Tmap_traits<unsigned long,ioDefenseController::DefenseList,std::less<unsigned long>,std::allocator<std::pair<unsigned long const ,ioDefenseController::DefenseList> >,0> >::_Insert
;	COMDAT ??_C@_0BE@JONHPENG@map?1set?$DMT?$DO?5too?5long?$AA@
; File c:\program files (x86)\microsoft visual studio 10.0\vc\include\xutility
CONST	SEGMENT
??_C@_0BE@JONHPENG@map?1set?$DMT?$DO?5too?5long?$AA@ DB 'map/set<T> too l'
	DB	'ong', 00H					; `string'
; Function compile flags: /Ogsp
; File c:\program files (x86)\microsoft visual studio 10.0\vc\include\xtree
CONST	ENDS
;	COMDAT ?_Insert@?$_Tree@V?$_Tmap_traits@KUDefenseList@ioDefenseController@@U?$less@K@std@@V?$allocator@U?$pair@$$CBKUDefenseList@ioDefenseController@@@std@@@4@$0A@@std@@@std@@IAE?AV?$_Tree_iterator@V?$_Tree_val@V?$_Tmap_traits@KUDefenseList@ioDefenseController@@U?$less@K@std@@V?$allocator@U?$pair@$$CBKUDefenseList@ioDefenseController@@@std@@@4@$0A@@std@@@std@@@2@_NPAU_Node@?$_Tree_nod@V?$_Tmap_traits@KUDefenseList@ioDefenseController@@U?$less@K@std@@V?$allocator@U?$pair@$$CBKUDefenseList@ioDefenseController@@@std@@@4@$0A@@std@@@2@1@Z
_TEXT	SEGMENT
___$ReturnUdt$ = 8					; size = 4
__Addleft$ = 12						; size = 1
__Wherenode$ = 16					; size = 4
__Newnode$ = 20						; size = 4
?_Insert@?$_Tree@V?$_Tmap_traits@KUDefenseList@ioDefenseController@@U?$less@K@std@@V?$allocator@U?$pair@$$CBKUDefenseList@ioDefenseController@@@std@@@4@$0A@@std@@@std@@IAE?AV?$_Tree_iterator@V?$_Tree_val@V?$_Tmap_traits@KUDefenseList@ioDefenseController@@U?$less@K@std@@V?$allocator@U?$pair@$$CBKUDefenseList@ioDefenseController@@@std@@@4@$0A@@std@@@std@@@2@_NPAU_Node@?$_Tree_nod@V?$_Tmap_traits@KUDefenseList@ioDefenseController@@U?$less@K@std@@V?$allocator@U?$pair@$$CBKUDefenseList@ioDefenseController@@@std@@@4@$0A@@std@@@2@1@Z PROC ; std::_Tree<std::_Tmap_traits<unsigned long,ioDefenseController::DefenseList,std::less<unsigned long>,std::allocator<std::pair<unsigned long const ,ioDefenseController::DefenseList> >,0> >::_Insert, COMDAT
; _this$ = ecx

; 1631 : 		{	// add node with value next to _Wherenode, to left if _Addleft

  00000	55		 push	 ebp
  00001	8b ec		 mov	 ebp, esp
  00003	53		 push	 ebx
  00004	56		 push	 esi
  00005	57		 push	 edi
  00006	8b f9		 mov	 edi, ecx

; 1632 : 		if (max_size() - 1 <= this->_Mysize)

  00008	8b 47 08	 mov	 eax, DWORD PTR [edi+8]
  0000b	3d 54 55 55 05	 cmp	 eax, 89478484		; 05555554H
  00010	72 1e		 jb	 SHORT $LN17@Insert

; 1633 : 			{	// tree would get too big, fail
; 1634 : 			_Dest_val(this->_Alval,
; 1635 : 				_STD addressof(this->_Myval(_Newnode)));

  00012	8b 75 14	 mov	 esi, DWORD PTR __Newnode$[ebp]
  00015	8d 4e 10	 lea	 ecx, DWORD PTR [esi+16]
  00018	e8 00 00 00 00	 call	 ??1DefenseList@ioDefenseController@@QAE@XZ

; 1636 : 
; 1637 : 			this->_Alnod.deallocate(_Newnode, 1);

  0001d	56		 push	 esi
  0001e	e8 00 00 00 00	 call	 ??3@YAXPAX@Z		; operator delete

; 1638 : 
; 1639 : 			_Xlength_error("map/set<T> too long");

  00023	c7 04 24 00 00
	00 00		 mov	 DWORD PTR [esp], OFFSET ??_C@_0BE@JONHPENG@map?1set?$DMT?$DO?5too?5long?$AA@
  0002a	ff 15 00 00 00
	00		 call	 DWORD PTR __imp_?_Xlength_error@std@@YAXPBD@Z
$LN197@Insert:
$LN17@Insert:

; 1640 : 			}
; 1641 : 		++this->_Mysize;
; 1642 : 		_Newnode->_Parent = _Wherenode;

  00030	8b 5d 14	 mov	 ebx, DWORD PTR __Newnode$[ebp]
  00033	40		 inc	 eax
  00034	89 47 08	 mov	 DWORD PTR [edi+8], eax
  00037	8b 45 10	 mov	 eax, DWORD PTR __Wherenode$[ebp]
  0003a	89 43 04	 mov	 DWORD PTR [ebx+4], eax

; 1643 : 
; 1644 : 		if (_Wherenode == this->_Myhead)

  0003d	8b 4f 04	 mov	 ecx, DWORD PTR [edi+4]
  00040	3b c1		 cmp	 eax, ecx
  00042	75 10		 jne	 SHORT $LN16@Insert

; 1645 : 			{	// first node in tree, just set head values
; 1646 : 			_Root() = _Newnode;

  00044	89 59 04	 mov	 DWORD PTR [ecx+4], ebx

; 1647 : 			_Lmost() = _Newnode;

  00047	8b 47 04	 mov	 eax, DWORD PTR [edi+4]
  0004a	89 18		 mov	 DWORD PTR [eax], ebx

; 1648 : 			_Rmost() = _Newnode;

  0004c	8b 47 04	 mov	 eax, DWORD PTR [edi+4]
  0004f	89 58 08	 mov	 DWORD PTR [eax+8], ebx
  00052	eb 21		 jmp	 SHORT $LN11@Insert
$LN16@Insert:

; 1649 : 			}
; 1650 : 		else if (_Addleft)

  00054	80 7d 0c 00	 cmp	 BYTE PTR __Addleft$[ebp], 0
  00058	74 0d		 je	 SHORT $LN14@Insert

; 1651 : 			{	// add to left of _Wherenode
; 1652 : 			this->_Left(_Wherenode) = _Newnode;

  0005a	89 18		 mov	 DWORD PTR [eax], ebx

; 1653 : 			if (_Wherenode == _Lmost())

  0005c	8b 4f 04	 mov	 ecx, DWORD PTR [edi+4]
  0005f	3b 01		 cmp	 eax, DWORD PTR [ecx]
  00061	75 12		 jne	 SHORT $LN11@Insert

; 1654 : 				_Lmost() = _Newnode;

  00063	89 19		 mov	 DWORD PTR [ecx], ebx

; 1655 : 			}
; 1656 : 		else

  00065	eb 0e		 jmp	 SHORT $LN11@Insert
$LN14@Insert:

; 1657 : 			{	// add to right of _Wherenode
; 1658 : 			this->_Right(_Wherenode) = _Newnode;

  00067	89 58 08	 mov	 DWORD PTR [eax+8], ebx

; 1659 : 			if (_Wherenode == _Rmost())

  0006a	8b 4f 04	 mov	 ecx, DWORD PTR [edi+4]
  0006d	3b 41 08	 cmp	 eax, DWORD PTR [ecx+8]
  00070	75 03		 jne	 SHORT $LN11@Insert

; 1660 : 				_Rmost() = _Newnode;

  00072	89 59 08	 mov	 DWORD PTR [ecx+8], ebx
$LN11@Insert:

; 1661 : 			}
; 1662 : 
; 1663 : 		for (_Nodeptr _Pnode = _Newnode;
; 1664 : 			this->_Color(this->_Parent(_Pnode)) == this->_Red; )

  00075	8b 43 04	 mov	 eax, DWORD PTR [ebx+4]
  00078	8b f3		 mov	 esi, ebx
  0007a	e9 93 00 00 00	 jmp	 $LN195@Insert
$LL10@Insert:

; 1665 : 			if (this->_Parent(_Pnode)
; 1666 : 				== this->_Left(this->_Parent(this->_Parent(_Pnode))))

  0007f	8b 46 04	 mov	 eax, DWORD PTR [esi+4]
  00082	8b 48 04	 mov	 ecx, DWORD PTR [eax+4]
  00085	3b 01		 cmp	 eax, DWORD PTR [ecx]
  00087	75 38		 jne	 SHORT $LN8@Insert

; 1667 : 				{	// fixup red-red in left subtree
; 1668 : 				_Wherenode =
; 1669 : 					this->_Right(this->_Parent(this->_Parent(_Pnode)));

  00089	8b 49 08	 mov	 ecx, DWORD PTR [ecx+8]

; 1670 : 				if (this->_Color(_Wherenode) == this->_Red)

  0008c	80 79 3c 00	 cmp	 BYTE PTR [ecx+60], 0

; 1671 : 					{	// parent has two red children, blacken both
; 1672 : 					this->_Color(this->_Parent(_Pnode)) = this->_Black;
; 1673 : 					this->_Color(_Wherenode) = this->_Black;
; 1674 : 					this->_Color(this->_Parent(this->_Parent(_Pnode)))
; 1675 : 						= this->_Red;
; 1676 : 					_Pnode = this->_Parent(this->_Parent(_Pnode));
; 1677 : 					}
; 1678 : 				else

  00090	74 37		 je	 SHORT $LN196@Insert

; 1679 : 					{	// parent has red and black children
; 1680 : 					if (_Pnode == this->_Right(this->_Parent(_Pnode)))

  00092	3b 70 08	 cmp	 esi, DWORD PTR [eax+8]
  00095	75 0a		 jne	 SHORT $LN5@Insert

; 1681 : 						{	// rotate right child to left
; 1682 : 						_Pnode = this->_Parent(_Pnode);

  00097	8b f0		 mov	 esi, eax

; 1683 : 						_Lrotate(_Pnode);

  00099	56		 push	 esi
  0009a	8b cf		 mov	 ecx, edi
  0009c	e8 00 00 00 00	 call	 ?_Lrotate@?$_Tree@V?$_Tmap_traits@KUDefenseList@ioDefenseController@@U?$less@K@std@@V?$allocator@U?$pair@$$CBKUDefenseList@ioDefenseController@@@std@@@4@$0A@@std@@@std@@IAEXPAU_Node@?$_Tree_nod@V?$_Tmap_traits@KUDefenseList@ioDefenseController@@U?$less@K@std@@V?$allocator@U?$pair@$$CBKUDefenseList@ioDefenseController@@@std@@@4@$0A@@std@@@2@@Z ; std::_Tree<std::_Tmap_traits<unsigned long,ioDefenseController::DefenseList,std::less<unsigned long>,std::allocator<std::pair<unsigned long const ,ioDefenseController::DefenseList> >,0> >::_Lrotate
$LN5@Insert:

; 1684 : 						}
; 1685 : 					this->_Color(this->_Parent(_Pnode)) =
; 1686 : 						this->_Black;	// propagate red up

  000a1	8b 46 04	 mov	 eax, DWORD PTR [esi+4]
  000a4	c6 40 3c 01	 mov	 BYTE PTR [eax+60], 1

; 1687 : 					this->_Color(this->_Parent(this->_Parent(_Pnode))) =
; 1688 : 						this->_Red;

  000a8	8b 46 04	 mov	 eax, DWORD PTR [esi+4]
  000ab	8b 40 04	 mov	 eax, DWORD PTR [eax+4]
  000ae	c6 40 3c 00	 mov	 BYTE PTR [eax+60], 0

; 1689 : 					_Rrotate(this->_Parent(this->_Parent(_Pnode)));

  000b2	8b 46 04	 mov	 eax, DWORD PTR [esi+4]
  000b5	ff 70 04	 push	 DWORD PTR [eax+4]
  000b8	8b cf		 mov	 ecx, edi
  000ba	e8 00 00 00 00	 call	 ?_Rrotate@?$_Tree@V?$_Tmap_traits@KUDefenseList@ioDefenseController@@U?$less@K@std@@V?$allocator@U?$pair@$$CBKUDefenseList@ioDefenseController@@@std@@@4@$0A@@std@@@std@@IAEXPAU_Node@?$_Tree_nod@V?$_Tmap_traits@KUDefenseList@ioDefenseController@@U?$less@K@std@@V?$allocator@U?$pair@$$CBKUDefenseList@ioDefenseController@@@std@@@4@$0A@@std@@@2@@Z ; std::_Tree<std::_Tmap_traits<unsigned long,ioDefenseController::DefenseList,std::less<unsigned long>,std::allocator<std::pair<unsigned long const ,ioDefenseController::DefenseList> >,0> >::_Rrotate

; 1690 : 					}
; 1691 : 				}
; 1692 : 			else

  000bf	eb 4e		 jmp	 SHORT $LN2@Insert
$LN8@Insert:

; 1693 : 				{	// fixup red-red in right subtree
; 1694 : 				_Wherenode =
; 1695 : 					this->_Left(this->_Parent(this->_Parent(_Pnode)));

  000c1	8b 09		 mov	 ecx, DWORD PTR [ecx]

; 1696 : 				if (this->_Color(_Wherenode) == this->_Red)

  000c3	80 79 3c 00	 cmp	 BYTE PTR [ecx+60], 0
  000c7	75 1a		 jne	 SHORT $LN3@Insert
$LN196@Insert:

; 1697 : 					{	// parent has two red children, blacken both
; 1698 : 					this->_Color(this->_Parent(_Pnode)) = this->_Black;

  000c9	c6 40 3c 01	 mov	 BYTE PTR [eax+60], 1

; 1699 : 					this->_Color(_Wherenode) = this->_Black;

  000cd	c6 41 3c 01	 mov	 BYTE PTR [ecx+60], 1

; 1700 : 					this->_Color(this->_Parent(this->_Parent(_Pnode))) =
; 1701 : 						this->_Red;

  000d1	8b 46 04	 mov	 eax, DWORD PTR [esi+4]
  000d4	8b 40 04	 mov	 eax, DWORD PTR [eax+4]
  000d7	c6 40 3c 00	 mov	 BYTE PTR [eax+60], 0

; 1702 : 					_Pnode = this->_Parent(this->_Parent(_Pnode));

  000db	8b 46 04	 mov	 eax, DWORD PTR [esi+4]
  000de	8b 70 04	 mov	 esi, DWORD PTR [eax+4]

; 1703 : 					}
; 1704 : 				else

  000e1	eb 2c		 jmp	 SHORT $LN2@Insert
$LN3@Insert:

; 1705 : 					{	// parent has red and black children
; 1706 : 					if (_Pnode == this->_Left(this->_Parent(_Pnode)))

  000e3	3b 30		 cmp	 esi, DWORD PTR [eax]
  000e5	75 0a		 jne	 SHORT $LN1@Insert

; 1707 : 						{	// rotate left child to right
; 1708 : 						_Pnode = this->_Parent(_Pnode);

  000e7	8b f0		 mov	 esi, eax

; 1709 : 						_Rrotate(_Pnode);

  000e9	56		 push	 esi
  000ea	8b cf		 mov	 ecx, edi
  000ec	e8 00 00 00 00	 call	 ?_Rrotate@?$_Tree@V?$_Tmap_traits@KUDefenseList@ioDefenseController@@U?$less@K@std@@V?$allocator@U?$pair@$$CBKUDefenseList@ioDefenseController@@@std@@@4@$0A@@std@@@std@@IAEXPAU_Node@?$_Tree_nod@V?$_Tmap_traits@KUDefenseList@ioDefenseController@@U?$less@K@std@@V?$allocator@U?$pair@$$CBKUDefenseList@ioDefenseController@@@std@@@4@$0A@@std@@@2@@Z ; std::_Tree<std::_Tmap_traits<unsigned long,ioDefenseController::DefenseList,std::less<unsigned long>,std::allocator<std::pair<unsigned long const ,ioDefenseController::DefenseList> >,0> >::_Rrotate
$LN1@Insert:

; 1710 : 						}
; 1711 : 					this->_Color(this->_Parent(_Pnode)) =
; 1712 : 						this->_Black;	// propagate red up

  000f1	8b 46 04	 mov	 eax, DWORD PTR [esi+4]
  000f4	c6 40 3c 01	 mov	 BYTE PTR [eax+60], 1

; 1713 : 					this->_Color(this->_Parent(this->_Parent(_Pnode))) =
; 1714 : 						this->_Red;

  000f8	8b 46 04	 mov	 eax, DWORD PTR [esi+4]
  000fb	8b 40 04	 mov	 eax, DWORD PTR [eax+4]
  000fe	c6 40 3c 00	 mov	 BYTE PTR [eax+60], 0

; 1715 : 					_Lrotate(this->_Parent(this->_Parent(_Pnode)));

  00102	8b 46 04	 mov	 eax, DWORD PTR [esi+4]
  00105	ff 70 04	 push	 DWORD PTR [eax+4]
  00108	8b cf		 mov	 ecx, edi
  0010a	e8 00 00 00 00	 call	 ?_Lrotate@?$_Tree@V?$_Tmap_traits@KUDefenseList@ioDefenseController@@U?$less@K@std@@V?$allocator@U?$pair@$$CBKUDefenseList@ioDefenseController@@@std@@@4@$0A@@std@@@std@@IAEXPAU_Node@?$_Tree_nod@V?$_Tmap_traits@KUDefenseList@ioDefenseController@@U?$less@K@std@@V?$allocator@U?$pair@$$CBKUDefenseList@ioDefenseController@@@std@@@4@$0A@@std@@@2@@Z ; std::_Tree<std::_Tmap_traits<unsigned long,ioDefenseController::DefenseList,std::less<unsigned long>,std::allocator<std::pair<unsigned long const ,ioDefenseController::DefenseList> >,0> >::_Lrotate
$LN2@Insert:

; 1661 : 			}
; 1662 : 
; 1663 : 		for (_Nodeptr _Pnode = _Newnode;
; 1664 : 			this->_Color(this->_Parent(_Pnode)) == this->_Red; )

  0010f	8b 46 04	 mov	 eax, DWORD PTR [esi+4]
$LN195@Insert:
  00112	80 78 3c 00	 cmp	 BYTE PTR [eax+60], 0
  00116	0f 84 63 ff ff
	ff		 je	 $LL10@Insert

; 1716 : 					}
; 1717 : 				}
; 1718 : 
; 1719 : 		this->_Color(_Root()) = this->_Black;	// root is always black

  0011c	8b 47 04	 mov	 eax, DWORD PTR [edi+4]
  0011f	8b 40 04	 mov	 eax, DWORD PTR [eax+4]
  00122	5f		 pop	 edi
  00123	c6 40 3c 01	 mov	 BYTE PTR [eax+60], 1

; 1720 : 		return (iterator(_Newnode, this));

  00127	8b 45 08	 mov	 eax, DWORD PTR ___$ReturnUdt$[ebp]
  0012a	5e		 pop	 esi
  0012b	89 18		 mov	 DWORD PTR [eax], ebx
  0012d	5b		 pop	 ebx

; 1721 : 		}

  0012e	5d		 pop	 ebp
  0012f	c2 10 00	 ret	 16			; 00000010H
$LN194@Insert:
?_Insert@?$_Tree@V?$_Tmap_traits@KUDefenseList@ioDefenseController@@U?$less@K@std@@V?$allocator@U?$pair@$$CBKUDefenseList@ioDefenseController@@@std@@@4@$0A@@std@@@std@@IAE?AV?$_Tree_iterator@V?$_Tree_val@V?$_Tmap_traits@KUDefenseList@ioDefenseController@@U?$less@K@std@@V?$allocator@U?$pair@$$CBKUDefenseList@ioDefenseController@@@std@@@4@$0A@@std@@@std@@@2@_NPAU_Node@?$_Tree_nod@V?$_Tmap_traits@KUDefenseList@ioDefenseController@@U?$less@K@std@@V?$allocator@U?$pair@$$CBKUDefenseList@ioDefenseController@@@std@@@4@$0A@@std@@@2@1@Z ENDP ; std::_Tree<std::_Tmap_traits<unsigned long,ioDefenseController::DefenseList,std::less<unsigned long>,std::allocator<std::pair<unsigned long const ,ioDefenseController::DefenseList> >,0> >::_Insert
_TEXT	ENDS
PUBLIC	??$_Buynode@U?$pair@$$CBKUDefenseList@ioDefenseController@@@std@@@?$_Tree_val@V?$_Tmap_traits@KUDefenseList@ioDefenseController@@U?$less@K@std@@V?$allocator@U?$pair@$$CBKUDefenseList@ioDefenseController@@@std@@@4@$0A@@std@@@std@@QAEPAU_Node@?$_Tree_nod@V?$_Tmap_traits@KUDefenseList@ioDefenseController@@U?$less@K@std@@V?$allocator@U?$pair@$$CBKUDefenseList@ioDefenseController@@@std@@@4@$0A@@std@@@1@$$QAU?$pair@$$CBKUDefenseList@ioDefenseController@@@1@@Z ; std::_Tree_val<std::_Tmap_traits<unsigned long,ioDefenseController::DefenseList,std::less<unsigned long>,std::allocator<std::pair<unsigned long const ,ioDefenseController::DefenseList> >,0> >::_Buynode<std::pair<unsigned long const ,ioDefenseController::DefenseList> >
;	COMDAT xdata$x
; File c:\program files (x86)\microsoft visual studio 10.0\vc\include\xmemory
xdata$x	SEGMENT
__catchsym$??$_Buynode@U?$pair@$$CBKUDefenseList@ioDefenseController@@@std@@@?$_Tree_val@V?$_Tmap_traits@KUDefenseList@ioDefenseController@@U?$less@K@std@@V?$allocator@U?$pair@$$CBKUDefenseList@ioDefenseController@@@std@@@4@$0A@@std@@@std@@QAEPAU_Node@?$_Tree_nod@V?$_Tmap_traits@KUDefenseList@ioDefenseController@@U?$less@K@std@@V?$allocator@U?$pair@$$CBKUDefenseList@ioDefenseController@@@std@@@4@$0A@@std@@@1@$$QAU?$pair@$$CBKUDefenseList@ioDefenseController@@@1@@Z$2 DD 040H
	DD	00H
	DD	00H
	DD	FLAT:__catch$??$_Buynode@U?$pair@$$CBKUDefenseList@ioDefenseController@@@std@@@?$_Tree_val@V?$_Tmap_traits@KUDefenseList@ioDefenseController@@U?$less@K@std@@V?$allocator@U?$pair@$$CBKUDefenseList@ioDefenseController@@@std@@@4@$0A@@std@@@std@@QAEPAU_Node@?$_Tree_nod@V?$_Tmap_traits@KUDefenseList@ioDefenseController@@U?$less@K@std@@V?$allocator@U?$pair@$$CBKUDefenseList@ioDefenseController@@@std@@@4@$0A@@std@@@1@$$QAU?$pair@$$CBKUDefenseList@ioDefenseController@@@1@@Z$0
__unwindtable$??$_Buynode@U?$pair@$$CBKUDefenseList@ioDefenseController@@@std@@@?$_Tree_val@V?$_Tmap_traits@KUDefenseList@ioDefenseController@@U?$less@K@std@@V?$allocator@U?$pair@$$CBKUDefenseList@ioDefenseController@@@std@@@4@$0A@@std@@@std@@QAEPAU_Node@?$_Tree_nod@V?$_Tmap_traits@KUDefenseList@ioDefenseController@@U?$less@K@std@@V?$allocator@U?$pair@$$CBKUDefenseList@ioDefenseController@@@std@@@4@$0A@@std@@@1@$$QAU?$pair@$$CBKUDefenseList@ioDefenseController@@@1@@Z DD 0ffffffffH
	DD	00H
	DD	0ffffffffH
	DD	00H
__tryblocktable$??$_Buynode@U?$pair@$$CBKUDefenseList@ioDefenseController@@@std@@@?$_Tree_val@V?$_Tmap_traits@KUDefenseList@ioDefenseController@@U?$less@K@std@@V?$allocator@U?$pair@$$CBKUDefenseList@ioDefenseController@@@std@@@4@$0A@@std@@@std@@QAEPAU_Node@?$_Tree_nod@V?$_Tmap_traits@KUDefenseList@ioDefenseController@@U?$less@K@std@@V?$allocator@U?$pair@$$CBKUDefenseList@ioDefenseController@@@std@@@4@$0A@@std@@@1@$$QAU?$pair@$$CBKUDefenseList@ioDefenseController@@@1@@Z DD 00H
	DD	00H
	DD	01H
	DD	01H
	DD	FLAT:__catchsym$??$_Buynode@U?$pair@$$CBKUDefenseList@ioDefenseController@@@std@@@?$_Tree_val@V?$_Tmap_traits@KUDefenseList@ioDefenseController@@U?$less@K@std@@V?$allocator@U?$pair@$$CBKUDefenseList@ioDefenseController@@@std@@@4@$0A@@std@@@std@@QAEPAU_Node@?$_Tree_nod@V?$_Tmap_traits@KUDefenseList@ioDefenseController@@U?$less@K@std@@V?$allocator@U?$pair@$$CBKUDefenseList@ioDefenseController@@@std@@@4@$0A@@std@@@1@$$QAU?$pair@$$CBKUDefenseList@ioDefenseController@@@1@@Z$2
__ehfuncinfo$??$_Buynode@U?$pair@$$CBKUDefenseList@ioDefenseController@@@std@@@?$_Tree_val@V?$_Tmap_traits@KUDefenseList@ioDefenseController@@U?$less@K@std@@V?$allocator@U?$pair@$$CBKUDefenseList@ioDefenseController@@@std@@@4@$0A@@std@@@std@@QAEPAU_Node@?$_Tree_nod@V?$_Tmap_traits@KUDefenseList@ioDefenseController@@U?$less@K@std@@V?$allocator@U?$pair@$$CBKUDefenseList@ioDefenseController@@@std@@@4@$0A@@std@@@1@$$QAU?$pair@$$CBKUDefenseList@ioDefenseController@@@1@@Z DD 019930522H
	DD	02H
	DD	FLAT:__unwindtable$??$_Buynode@U?$pair@$$CBKUDefenseList@ioDefenseController@@@std@@@?$_Tree_val@V?$_Tmap_traits@KUDefenseList@ioDefenseController@@U?$less@K@std@@V?$allocator@U?$pair@$$CBKUDefenseList@ioDefenseController@@@std@@@4@$0A@@std@@@std@@QAEPAU_Node@?$_Tree_nod@V?$_Tmap_traits@KUDefenseList@ioDefenseController@@U?$less@K@std@@V?$allocator@U?$pair@$$CBKUDefenseList@ioDefenseController@@@std@@@4@$0A@@std@@@1@$$QAU?$pair@$$CBKUDefenseList@ioDefenseController@@@1@@Z
	DD	01H
	DD	FLAT:__tryblocktable$??$_Buynode@U?$pair@$$CBKUDefenseList@ioDefenseController@@@std@@@?$_Tree_val@V?$_Tmap_traits@KUDefenseList@ioDefenseController@@U?$less@K@std@@V?$allocator@U?$pair@$$CBKUDefenseList@ioDefenseController@@@std@@@4@$0A@@std@@@std@@QAEPAU_Node@?$_Tree_nod@V?$_Tmap_traits@KUDefenseList@ioDefenseController@@U?$less@K@std@@V?$allocator@U?$pair@$$CBKUDefenseList@ioDefenseController@@@std@@@4@$0A@@std@@@1@$$QAU?$pair@$$CBKUDefenseList@ioDefenseController@@@1@@Z
	DD	2 DUP(00H)
	DD	00H
	DD	01H
; Function compile flags: /Ogsp
; File c:\program files (x86)\microsoft visual studio 10.0\vc\include\xtree
xdata$x	ENDS
;	COMDAT ??$_Buynode@U?$pair@$$CBKUDefenseList@ioDefenseController@@@std@@@?$_Tree_val@V?$_Tmap_traits@KUDefenseList@ioDefenseController@@U?$less@K@std@@V?$allocator@U?$pair@$$CBKUDefenseList@ioDefenseController@@@std@@@4@$0A@@std@@@std@@QAEPAU_Node@?$_Tree_nod@V?$_Tmap_traits@KUDefenseList@ioDefenseController@@U?$less@K@std@@V?$allocator@U?$pair@$$CBKUDefenseList@ioDefenseController@@@std@@@4@$0A@@std@@@1@$$QAU?$pair@$$CBKUDefenseList@ioDefenseController@@@1@@Z
_TEXT	SEGMENT
__Wherenode$ = -20					; size = 4
__$EHRec$ = -16						; size = 16
__Val$ = 8						; size = 4
??$_Buynode@U?$pair@$$CBKUDefenseList@ioDefenseController@@@std@@@?$_Tree_val@V?$_Tmap_traits@KUDefenseList@ioDefenseController@@U?$less@K@std@@V?$allocator@U?$pair@$$CBKUDefenseList@ioDefenseController@@@std@@@4@$0A@@std@@@std@@QAEPAU_Node@?$_Tree_nod@V?$_Tmap_traits@KUDefenseList@ioDefenseController@@U?$less@K@std@@V?$allocator@U?$pair@$$CBKUDefenseList@ioDefenseController@@@std@@@4@$0A@@std@@@1@$$QAU?$pair@$$CBKUDefenseList@ioDefenseController@@@1@@Z PROC ; std::_Tree_val<std::_Tmap_traits<unsigned long,ioDefenseController::DefenseList,std::less<unsigned long>,std::allocator<std::pair<unsigned long const ,ioDefenseController::DefenseList> >,0> >::_Buynode<std::pair<unsigned long const ,ioDefenseController::DefenseList> >, COMDAT
; _this$ = ecx

; 586  : 		_Nodeptr _Buynode(_Valty&& _Val)

  00000	6a 08		 push	 8
  00002	b8 00 00 00 00	 mov	 eax, __ehhandler$??$_Buynode@U?$pair@$$CBKUDefenseList@ioDefenseController@@@std@@@?$_Tree_val@V?$_Tmap_traits@KUDefenseList@ioDefenseController@@U?$less@K@std@@V?$allocator@U?$pair@$$CBKUDefenseList@ioDefenseController@@@std@@@4@$0A@@std@@@std@@QAEPAU_Node@?$_Tree_nod@V?$_Tmap_traits@KUDefenseList@ioDefenseController@@U?$less@K@std@@V?$allocator@U?$pair@$$CBKUDefenseList@ioDefenseController@@@std@@@4@$0A@@std@@@1@$$QAU?$pair@$$CBKUDefenseList@ioDefenseController@@@1@@Z
  00007	e8 00 00 00 00	 call	 __EH_prolog3_catch
  0000c	8b f1		 mov	 esi, ecx

; 587  : 		{	// allocate a node with defaults
; 588  : 		_Nodeptr _Wherenode = _Buynode();

  0000e	e8 00 00 00 00	 call	 ?_Buynode@?$_Tree_val@V?$_Tmap_traits@KUDefenseList@ioDefenseController@@U?$less@K@std@@V?$allocator@U?$pair@$$CBKUDefenseList@ioDefenseController@@@std@@@4@$0A@@std@@@std@@QAEPAU_Node@?$_Tree_nod@V?$_Tmap_traits@KUDefenseList@ioDefenseController@@U?$less@K@std@@V?$allocator@U?$pair@$$CBKUDefenseList@ioDefenseController@@@std@@@4@$0A@@std@@@2@XZ ; std::_Tree_val<std::_Tmap_traits<unsigned long,ioDefenseController::DefenseList,std::less<unsigned long>,std::allocator<std::pair<unsigned long const ,ioDefenseController::DefenseList> >,0> >::_Buynode

; 589  : 
; 590  : 		_TRY_BEGIN
; 591  : 		_Cons_val(this->_Alval, _STD addressof(this->_Myval(_Wherenode)),
; 592  : 			_STD forward<_Valty>(_Val));

  00013	ff 75 08	 push	 DWORD PTR __Val$[ebp]
  00016	83 65 fc 00	 and	 DWORD PTR __$EHRec$[ebp+12], 0
  0001a	8b f8		 mov	 edi, eax
  0001c	8d 47 0c	 lea	 eax, DWORD PTR [edi+12]
  0001f	50		 push	 eax
  00020	8d 4e 0d	 lea	 ecx, DWORD PTR [esi+13]
  00023	89 7d ec	 mov	 DWORD PTR __Wherenode$[ebp], edi
  00026	e8 00 00 00 00	 call	 ?construct@?$allocator@U?$pair@$$CBKUDefenseList@ioDefenseController@@@std@@@std@@QAEXPAU?$pair@$$CBKUDefenseList@ioDefenseController@@@2@$$QAU32@@Z ; std::allocator<std::pair<unsigned long const ,ioDefenseController::DefenseList> >::construct

; 596  : 		_CATCH_END
; 597  : 
; 598  : 		return (_Wherenode);

  0002b	8b c7		 mov	 eax, edi

; 599  : 		}

  0002d	e8 00 00 00 00	 call	 __EH_epilog3
  00032	c2 04 00	 ret	 4
__catch$??$_Buynode@U?$pair@$$CBKUDefenseList@ioDefenseController@@@std@@@?$_Tree_val@V?$_Tmap_traits@KUDefenseList@ioDefenseController@@U?$less@K@std@@V?$allocator@U?$pair@$$CBKUDefenseList@ioDefenseController@@@std@@@4@$0A@@std@@@std@@QAEPAU_Node@?$_Tree_nod@V?$_Tmap_traits@KUDefenseList@ioDefenseController@@U?$less@K@std@@V?$allocator@U?$pair@$$CBKUDefenseList@ioDefenseController@@@std@@@4@$0A@@std@@@1@$$QAU?$pair@$$CBKUDefenseList@ioDefenseController@@@1@@Z$0:

; 593  : 		_CATCH_ALL
; 594  : 		this->_Alnod.deallocate(_Wherenode, 1);

  00035	ff 75 ec	 push	 DWORD PTR __Wherenode$[ebp]
  00038	e8 00 00 00 00	 call	 ??3@YAXPAX@Z		; operator delete
  0003d	59		 pop	 ecx

; 595  : 		_RERAISE;

  0003e	6a 00		 push	 0
  00040	6a 00		 push	 0
  00042	e8 00 00 00 00	 call	 __CxxThrowException@8
$LN23@Buynode@2:
$LN22@Buynode@2:
  00047	cc		 int	 3
_TEXT	ENDS
;	COMDAT text$x
text$x	SEGMENT
__ehhandler$??$_Buynode@U?$pair@$$CBKUDefenseList@ioDefenseController@@@std@@@?$_Tree_val@V?$_Tmap_traits@KUDefenseList@ioDefenseController@@U?$less@K@std@@V?$allocator@U?$pair@$$CBKUDefenseList@ioDefenseController@@@std@@@4@$0A@@std@@@std@@QAEPAU_Node@?$_Tree_nod@V?$_Tmap_traits@KUDefenseList@ioDefenseController@@U?$less@K@std@@V?$allocator@U?$pair@$$CBKUDefenseList@ioDefenseController@@@std@@@4@$0A@@std@@@1@$$QAU?$pair@$$CBKUDefenseList@ioDefenseController@@@1@@Z:
  00000	8b 54 24 08	 mov	 edx, DWORD PTR [esp+8]
  00004	8d 42 0c	 lea	 eax, DWORD PTR [edx+12]
  00007	8b 4a e8	 mov	 ecx, DWORD PTR [edx-24]
  0000a	33 c8		 xor	 ecx, eax
  0000c	e8 00 00 00 00	 call	 @__security_check_cookie@4
  00011	b8 00 00 00 00	 mov	 eax, OFFSET __ehfuncinfo$??$_Buynode@U?$pair@$$CBKUDefenseList@ioDefenseController@@@std@@@?$_Tree_val@V?$_Tmap_traits@KUDefenseList@ioDefenseController@@U?$less@K@std@@V?$allocator@U?$pair@$$CBKUDefenseList@ioDefenseController@@@std@@@4@$0A@@std@@@std@@QAEPAU_Node@?$_Tree_nod@V?$_Tmap_traits@KUDefenseList@ioDefenseController@@U?$less@K@std@@V?$allocator@U?$pair@$$CBKUDefenseList@ioDefenseController@@@std@@@4@$0A@@std@@@1@$$QAU?$pair@$$CBKUDefenseList@ioDefenseController@@@1@@Z
  00016	e9 00 00 00 00	 jmp	 ___CxxFrameHandler3
text$x	ENDS
??$_Buynode@U?$pair@$$CBKUDefenseList@ioDefenseController@@@std@@@?$_Tree_val@V?$_Tmap_traits@KUDefenseList@ioDefenseController@@U?$less@K@std@@V?$allocator@U?$pair@$$CBKUDefenseList@ioDefenseController@@@std@@@4@$0A@@std@@@std@@QAEPAU_Node@?$_Tree_nod@V?$_Tmap_traits@KUDefenseList@ioDefenseController@@U?$less@K@std@@V?$allocator@U?$pair@$$CBKUDefenseList@ioDefenseController@@@std@@@4@$0A@@std@@@1@$$QAU?$pair@$$CBKUDefenseList@ioDefenseController@@@1@@Z ENDP ; std::_Tree_val<std::_Tmap_traits<unsigned long,ioDefenseController::DefenseList,std::less<unsigned long>,std::allocator<std::pair<unsigned long const ,ioDefenseController::DefenseList> >,0> >::_Buynode<std::pair<unsigned long const ,ioDefenseController::DefenseList> >
PUBLIC	??1?$vector@V?$basic_string@DU?$char_traits@D@std@@V?$allocator@D@2@@std@@V?$allocator@V?$basic_string@DU?$char_traits@D@std@@V?$allocator@D@2@@std@@@2@@std@@QAE@XZ ; std::vector<std::basic_string<char,std::char_traits<char>,std::allocator<char> >,std::allocator<std::basic_string<char,std::char_traits<char>,std::allocator<char> > > >::~vector<std::basic_string<char,std::char_traits<char>,std::allocator<char> >,std::allocator<std::basic_string<char,std::char_traits<char>,std::allocator<char> > > >
; Function compile flags: /Ogsp
; File c:\program files (x86)\microsoft visual studio 10.0\vc\include\vector
;	COMDAT ??1?$vector@V?$basic_string@DU?$char_traits@D@std@@V?$allocator@D@2@@std@@V?$allocator@V?$basic_string@DU?$char_traits@D@std@@V?$allocator@D@2@@std@@@2@@std@@QAE@XZ
_TEXT	SEGMENT
??1?$vector@V?$basic_string@DU?$char_traits@D@std@@V?$allocator@D@2@@std@@V?$allocator@V?$basic_string@DU?$char_traits@D@std@@V?$allocator@D@2@@std@@@2@@std@@QAE@XZ PROC ; std::vector<std::basic_string<char,std::char_traits<char>,std::allocator<char> >,std::allocator<std::basic_string<char,std::char_traits<char>,std::allocator<char> > > >::~vector<std::basic_string<char,std::char_traits<char>,std::allocator<char> >,std::allocator<std::basic_string<char,std::char_traits<char>,std::allocator<char> > > >, COMDAT
; _this$ = ecx

; 705  : 		_Tidy();

  00000	e9 00 00 00 00	 jmp	 ?_Tidy@?$vector@V?$basic_string@DU?$char_traits@D@std@@V?$allocator@D@2@@std@@V?$allocator@V?$basic_string@DU?$char_traits@D@std@@V?$allocator@D@2@@std@@@2@@std@@IAEXXZ ; std::vector<std::basic_string<char,std::char_traits<char>,std::allocator<char> >,std::allocator<std::basic_string<char,std::char_traits<char>,std::allocator<char> > > >::_Tidy
??1?$vector@V?$basic_string@DU?$char_traits@D@std@@V?$allocator@D@2@@std@@V?$allocator@V?$basic_string@DU?$char_traits@D@std@@V?$allocator@D@2@@std@@@2@@std@@QAE@XZ ENDP ; std::vector<std::basic_string<char,std::char_traits<char>,std::allocator<char> >,std::allocator<std::basic_string<char,std::char_traits<char>,std::allocator<char> > > >::~vector<std::basic_string<char,std::char_traits<char>,std::allocator<char> >,std::allocator<std::basic_string<char,std::char_traits<char>,std::allocator<char> > > >
_TEXT	ENDS
PUBLIC	??0?$vector@V?$basic_string@DU?$char_traits@D@std@@V?$allocator@D@2@@std@@V?$allocator@V?$basic_string@DU?$char_traits@D@std@@V?$allocator@D@2@@std@@@2@@std@@QAE@ABV01@@Z ; std::vector<std::basic_string<char,std::char_traits<char>,std::allocator<char> >,std::allocator<std::basic_string<char,std::char_traits<char>,std::allocator<char> > > >::vector<std::basic_string<char,std::char_traits<char>,std::allocator<char> >,std::allocator<std::basic_string<char,std::char_traits<char>,std::allocator<char> > > >
;	COMDAT xdata$x
; File c:\program files (x86)\microsoft visual studio 10.0\vc\include\xutility
xdata$x	SEGMENT
__catchsym$??0?$vector@V?$basic_string@DU?$char_traits@D@std@@V?$allocator@D@2@@std@@V?$allocator@V?$basic_string@DU?$char_traits@D@std@@V?$allocator@D@2@@std@@@2@@std@@QAE@ABV01@@Z$2 DD 040H
	DD	00H
	DD	00H
	DD	FLAT:__catch$??0?$vector@V?$basic_string@DU?$char_traits@D@std@@V?$allocator@D@2@@std@@V?$allocator@V?$basic_string@DU?$char_traits@D@std@@V?$allocator@D@2@@std@@@2@@std@@QAE@ABV01@@Z$0
__unwindtable$??0?$vector@V?$basic_string@DU?$char_traits@D@std@@V?$allocator@D@2@@std@@V?$allocator@V?$basic_string@DU?$char_traits@D@std@@V?$allocator@D@2@@std@@@2@@std@@QAE@ABV01@@Z DD 0ffffffffH
	DD	00H
	DD	0ffffffffH
	DD	00H
__tryblocktable$??0?$vector@V?$basic_string@DU?$char_traits@D@std@@V?$allocator@D@2@@std@@V?$allocator@V?$basic_string@DU?$char_traits@D@std@@V?$allocator@D@2@@std@@@2@@std@@QAE@ABV01@@Z DD 00H
	DD	00H
	DD	01H
	DD	01H
	DD	FLAT:__catchsym$??0?$vector@V?$basic_string@DU?$char_traits@D@std@@V?$allocator@D@2@@std@@V?$allocator@V?$basic_string@DU?$char_traits@D@std@@V?$allocator@D@2@@std@@@2@@std@@QAE@ABV01@@Z$2
__ehfuncinfo$??0?$vector@V?$basic_string@DU?$char_traits@D@std@@V?$allocator@D@2@@std@@V?$allocator@V?$basic_string@DU?$char_traits@D@std@@V?$allocator@D@2@@std@@@2@@std@@QAE@ABV01@@Z DD 019930522H
	DD	02H
	DD	FLAT:__unwindtable$??0?$vector@V?$basic_string@DU?$char_traits@D@std@@V?$allocator@D@2@@std@@V?$allocator@V?$basic_string@DU?$char_traits@D@std@@V?$allocator@D@2@@std@@@2@@std@@QAE@ABV01@@Z
	DD	01H
	DD	FLAT:__tryblocktable$??0?$vector@V?$basic_string@DU?$char_traits@D@std@@V?$allocator@D@2@@std@@V?$allocator@V?$basic_string@DU?$char_traits@D@std@@V?$allocator@D@2@@std@@@2@@std@@QAE@ABV01@@Z
	DD	2 DUP(00H)
	DD	00H
	DD	01H
; Function compile flags: /Ogsp
; File c:\program files (x86)\microsoft visual studio 10.0\vc\include\vector
xdata$x	ENDS
;	COMDAT ??0?$vector@V?$basic_string@DU?$char_traits@D@std@@V?$allocator@D@2@@std@@V?$allocator@V?$basic_string@DU?$char_traits@D@std@@V?$allocator@D@2@@std@@@2@@std@@QAE@ABV01@@Z
_TEXT	SEGMENT
_this$ = -20						; size = 4
__$EHRec$ = -16						; size = 16
__Cat$544860 = 8					; size = 1
__Right$ = 8						; size = 4
??0?$vector@V?$basic_string@DU?$char_traits@D@std@@V?$allocator@D@2@@std@@V?$allocator@V?$basic_string@DU?$char_traits@D@std@@V?$allocator@D@2@@std@@@2@@std@@QAE@ABV01@@Z PROC ; std::vector<std::basic_string<char,std::char_traits<char>,std::allocator<char> >,std::allocator<std::basic_string<char,std::char_traits<char>,std::allocator<char> > > >::vector<std::basic_string<char,std::char_traits<char>,std::allocator<char> >,std::allocator<std::basic_string<char,std::char_traits<char>,std::allocator<char> > > >, COMDAT
; _this$ = ecx

; 535  : 		{	// construct by copying _Right

  00000	6a 08		 push	 8
  00002	b8 00 00 00 00	 mov	 eax, __ehhandler$??0?$vector@V?$basic_string@DU?$char_traits@D@std@@V?$allocator@D@2@@std@@V?$allocator@V?$basic_string@DU?$char_traits@D@std@@V?$allocator@D@2@@std@@@2@@std@@QAE@ABV01@@Z
  00007	e8 00 00 00 00	 call	 __EH_prolog3_catch
  0000c	8b f1		 mov	 esi, ecx
  0000e	89 75 ec	 mov	 DWORD PTR _this$[ebp], esi

; 536  : 		if (_Buy(_Right.size()))

  00011	8b 7d 08	 mov	 edi, DWORD PTR __Right$[ebp]
  00014	33 db		 xor	 ebx, ebx
  00016	89 1e		 mov	 DWORD PTR [esi], ebx
  00018	89 5e 04	 mov	 DWORD PTR [esi+4], ebx
  0001b	89 5e 08	 mov	 DWORD PTR [esi+8], ebx
  0001e	8b 47 04	 mov	 eax, DWORD PTR [edi+4]
  00021	2b 07		 sub	 eax, DWORD PTR [edi]
  00023	6a 1c		 push	 28			; 0000001cH
  00025	59		 pop	 ecx
  00026	99		 cdq
  00027	f7 f9		 idiv	 ecx
  00029	8b ce		 mov	 ecx, esi
  0002b	50		 push	 eax
  0002c	e8 00 00 00 00	 call	 ?_Buy@?$vector@V?$basic_string@DU?$char_traits@D@std@@V?$allocator@D@2@@std@@V?$allocator@V?$basic_string@DU?$char_traits@D@std@@V?$allocator@D@2@@std@@@2@@std@@IAE_NI@Z ; std::vector<std::basic_string<char,std::char_traits<char>,std::allocator<char> >,std::allocator<std::basic_string<char,std::char_traits<char>,std::allocator<char> > > >::_Buy
  00031	84 c0		 test	 al, al
  00033	74 1f		 je	 SHORT $LN7@vector@3

; 537  : 			_TRY_BEGIN
; 538  : 			this->_Mylast = _Ucopy(_Right.begin(), _Right.end(),
; 539  : 				this->_Myfirst);

  00035	ff 75 08	 push	 DWORD PTR __Cat$544860[ebp]
  00038	8b 0e		 mov	 ecx, DWORD PTR [esi]
  0003a	8b 47 04	 mov	 eax, DWORD PTR [edi+4]
  0003d	8b 3f		 mov	 edi, DWORD PTR [edi]
  0003f	8d 56 0c	 lea	 edx, DWORD PTR [esi+12]
  00042	52		 push	 edx
  00043	51		 push	 ecx
  00044	50		 push	 eax
  00045	57		 push	 edi
  00046	89 5d fc	 mov	 DWORD PTR __$EHRec$[ebp+12], ebx
  00049	e8 00 00 00 00	 call	 ??$_Uninit_copy@V?$_Vector_const_iterator@V?$_Vector_val@V?$basic_string@DU?$char_traits@D@std@@V?$allocator@D@2@@std@@V?$allocator@V?$basic_string@DU?$char_traits@D@std@@V?$allocator@D@2@@std@@@2@@std@@@std@@PAV?$basic_string@DU?$char_traits@D@std@@V?$allocator@D@2@@2@V?$allocator@V?$basic_string@DU?$char_traits@D@std@@V?$allocator@D@2@@std@@@2@@std@@YAPAV?$basic_string@DU?$char_traits@D@std@@V?$allocator@D@2@@0@V?$_Vector_const_iterator@V?$_Vector_val@V?$basic_string@DU?$char_traits@D@std@@V?$allocator@D@2@@std@@V?$allocator@V?$basic_string@DU?$char_traits@D@std@@V?$allocator@D@2@@std@@@2@@std@@@0@0PAV10@AAV?$allocator@V?$basic_string@DU?$char_traits@D@std@@V?$allocator@D@2@@std@@@0@U_Nonscalar_ptr_iterator_tag@0@@Z ; std::_Uninit_copy<std::_Vector_const_iterator<std::_Vector_val<std::basic_string<char,std::char_traits<char>,std::allocator<char> >,std::allocator<std::basic_string<char,std::char_traits<char>,std::allocator<char> > > > >,std::basic_string<char,std::char_traits<char>,std::allocator<char> > *,std::allocator<std::basic_string<char,std::char_traits<char>,std::allocator<char> > > >
  0004e	83 c4 14	 add	 esp, 20			; 00000014H
  00051	89 46 04	 mov	 DWORD PTR [esi+4], eax
$LN7@vector@3:

; 543  : 			_CATCH_END
; 544  : 		}

  00054	8b c6		 mov	 eax, esi
  00056	e8 00 00 00 00	 call	 __EH_epilog3
  0005b	c2 04 00	 ret	 4
__catch$??0?$vector@V?$basic_string@DU?$char_traits@D@std@@V?$allocator@D@2@@std@@V?$allocator@V?$basic_string@DU?$char_traits@D@std@@V?$allocator@D@2@@std@@@2@@std@@QAE@ABV01@@Z$0:

; 540  : 			_CATCH_ALL
; 541  : 			_Tidy();

  0005e	8b 4d ec	 mov	 ecx, DWORD PTR _this$[ebp]
  00061	e8 00 00 00 00	 call	 ?_Tidy@?$vector@V?$basic_string@DU?$char_traits@D@std@@V?$allocator@D@2@@std@@V?$allocator@V?$basic_string@DU?$char_traits@D@std@@V?$allocator@D@2@@std@@@2@@std@@IAEXXZ ; std::vector<std::basic_string<char,std::char_traits<char>,std::allocator<char> >,std::allocator<std::basic_string<char,std::char_traits<char>,std::allocator<char> > > >::_Tidy

; 542  : 			_RERAISE;

  00066	33 db		 xor	 ebx, ebx
  00068	53		 push	 ebx
  00069	53		 push	 ebx
  0006a	e8 00 00 00 00	 call	 __CxxThrowException@8
$LN38@vector@3:
$LN37@vector@3:
  0006f	cc		 int	 3
_TEXT	ENDS
;	COMDAT text$x
text$x	SEGMENT
__ehhandler$??0?$vector@V?$basic_string@DU?$char_traits@D@std@@V?$allocator@D@2@@std@@V?$allocator@V?$basic_string@DU?$char_traits@D@std@@V?$allocator@D@2@@std@@@2@@std@@QAE@ABV01@@Z:
  00000	8b 54 24 08	 mov	 edx, DWORD PTR [esp+8]
  00004	8d 42 0c	 lea	 eax, DWORD PTR [edx+12]
  00007	8b 4a e8	 mov	 ecx, DWORD PTR [edx-24]
  0000a	33 c8		 xor	 ecx, eax
  0000c	e8 00 00 00 00	 call	 @__security_check_cookie@4
  00011	b8 00 00 00 00	 mov	 eax, OFFSET __ehfuncinfo$??0?$vector@V?$basic_string@DU?$char_traits@D@std@@V?$allocator@D@2@@std@@V?$allocator@V?$basic_string@DU?$char_traits@D@std@@V?$allocator@D@2@@std@@@2@@std@@QAE@ABV01@@Z
  00016	e9 00 00 00 00	 jmp	 ___CxxFrameHandler3
text$x	ENDS
??0?$vector@V?$basic_string@DU?$char_traits@D@std@@V?$allocator@D@2@@std@@V?$allocator@V?$basic_string@DU?$char_traits@D@std@@V?$allocator@D@2@@std@@@2@@std@@QAE@ABV01@@Z ENDP ; std::vector<std::basic_string<char,std::char_traits<char>,std::allocator<char> >,std::allocator<std::basic_string<char,std::char_traits<char>,std::allocator<char> > > >::vector<std::basic_string<char,std::char_traits<char>,std::allocator<char> >,std::allocator<std::basic_string<char,std::char_traits<char>,std::allocator<char> > > >
PUBLIC	??_C@_0BM@PAPJHAGI@invalid?5map?1set?$DMT?$DO?5iterator?$AA@ ; `string'
PUBLIC	?erase@?$_Tree@V?$_Tmap_traits@KUDefenseList@ioDefenseController@@U?$less@K@std@@V?$allocator@U?$pair@$$CBKUDefenseList@ioDefenseController@@@std@@@4@$0A@@std@@@std@@QAE?AV?$_Tree_iterator@V?$_Tree_val@V?$_Tmap_traits@KUDefenseList@ioDefenseController@@U?$less@K@std@@V?$allocator@U?$pair@$$CBKUDefenseList@ioDefenseController@@@std@@@4@$0A@@std@@@std@@@2@V?$_Tree_const_iterator@V?$_Tree_val@V?$_Tmap_traits@KUDefenseList@ioDefenseController@@U?$less@K@std@@V?$allocator@U?$pair@$$CBKUDefenseList@ioDefenseController@@@std@@@4@$0A@@std@@@std@@@2@@Z ; std::_Tree<std::_Tmap_traits<unsigned long,ioDefenseController::DefenseList,std::less<unsigned long>,std::allocator<std::pair<unsigned long const ,ioDefenseController::DefenseList> >,0> >::erase
;	COMDAT ??_C@_0BM@PAPJHAGI@invalid?5map?1set?$DMT?$DO?5iterator?$AA@
; File c:\program files (x86)\microsoft visual studio 10.0\vc\include\xutility
CONST	SEGMENT
??_C@_0BM@PAPJHAGI@invalid?5map?1set?$DMT?$DO?5iterator?$AA@ DB 'invalid '
	DB	'map/set<T> iterator', 00H			; `string'
; Function compile flags: /Ogsp
; File c:\program files (x86)\microsoft visual studio 10.0\vc\include\xtree
CONST	ENDS
;	COMDAT ?erase@?$_Tree@V?$_Tmap_traits@KUDefenseList@ioDefenseController@@U?$less@K@std@@V?$allocator@U?$pair@$$CBKUDefenseList@ioDefenseController@@@std@@@4@$0A@@std@@@std@@QAE?AV?$_Tree_iterator@V?$_Tree_val@V?$_Tmap_traits@KUDefenseList@ioDefenseController@@U?$less@K@std@@V?$allocator@U?$pair@$$CBKUDefenseList@ioDefenseController@@@std@@@4@$0A@@std@@@std@@@2@V?$_Tree_const_iterator@V?$_Tree_val@V?$_Tmap_traits@KUDefenseList@ioDefenseController@@U?$less@K@std@@V?$allocator@U?$pair@$$CBKUDefenseList@ioDefenseController@@@std@@@4@$0A@@std@@@std@@@2@@Z
_TEXT	SEGMENT
_this$ = -4						; size = 4
___$ReturnUdt$ = 8					; size = 4
__Where$ = 12						; size = 4
?erase@?$_Tree@V?$_Tmap_traits@KUDefenseList@ioDefenseController@@U?$less@K@std@@V?$allocator@U?$pair@$$CBKUDefenseList@ioDefenseController@@@std@@@4@$0A@@std@@@std@@QAE?AV?$_Tree_iterator@V?$_Tree_val@V?$_Tmap_traits@KUDefenseList@ioDefenseController@@U?$less@K@std@@V?$allocator@U?$pair@$$CBKUDefenseList@ioDefenseController@@@std@@@4@$0A@@std@@@std@@@2@V?$_Tree_const_iterator@V?$_Tree_val@V?$_Tmap_traits@KUDefenseList@ioDefenseController@@U?$less@K@std@@V?$allocator@U?$pair@$$CBKUDefenseList@ioDefenseController@@@std@@@4@$0A@@std@@@std@@@2@@Z PROC ; std::_Tree<std::_Tmap_traits<unsigned long,ioDefenseController::DefenseList,std::less<unsigned long>,std::allocator<std::pair<unsigned long const ,ioDefenseController::DefenseList> >,0> >::erase, COMDAT
; _this$ = ecx

; 1195 : 		{	// erase element at _Where

  00000	55		 push	 ebp
  00001	8b ec		 mov	 ebp, esp
  00003	51		 push	 ecx
  00004	53		 push	 ebx

; 1196 :  #if _ITERATOR_DEBUG_LEVEL == 2
; 1197 : 		if (_Where._Getcont() != this || this->_Isnil(_Where._Mynode()))
; 1198 : 			_DEBUG_ERROR("map/set erase iterator outside range");
; 1199 : 		_Nodeptr _Erasednode = _Where._Mynode();	// node to erase
; 1200 : 		++_Where;	// save successor iterator for return
; 1201 : 		_Orphan_ptr(*this, _Erasednode);
; 1202 : 
; 1203 :  #else /* _ITERATOR_DEBUG_LEVEL == 2 */
; 1204 : 		if (this->_Isnil(_Where._Mynode()))

  00005	8b 5d 0c	 mov	 ebx, DWORD PTR __Where$[ebp]
  00008	80 7b 3d 00	 cmp	 BYTE PTR [ebx+61], 0
  0000c	56		 push	 esi
  0000d	57		 push	 edi
  0000e	89 4d fc	 mov	 DWORD PTR _this$[ebp], ecx
  00011	74 0b		 je	 SHORT $LN40@erase@4

; 1205 : 			_Xout_of_range("invalid map/set<T> iterator");

  00013	68 00 00 00 00	 push	 OFFSET ??_C@_0BM@PAPJHAGI@invalid?5map?1set?$DMT?$DO?5iterator?$AA@
  00018	ff 15 00 00 00
	00		 call	 DWORD PTR __imp_?_Xout_of_range@std@@YAXPBD@Z
$LN338@erase@4:
$LN40@erase@4:

; 1206 : 		_Nodeptr _Erasednode = _Where._Mynode();	// node to erase
; 1207 : 		++_Where;	// save successor iterator for return

  0001e	8d 4d 0c	 lea	 ecx, DWORD PTR __Where$[ebp]
  00021	e8 00 00 00 00	 call	 ??E?$_Tree_unchecked_const_iterator@V?$_Tree_val@V?$_Tmap_traits@KUDefenseList@ioDefenseController@@U?$less@K@std@@V?$allocator@U?$pair@$$CBKUDefenseList@ioDefenseController@@@std@@@4@$0A@@std@@@std@@U_Iterator_base0@2@@std@@QAEAAV01@XZ ; std::_Tree_unchecked_const_iterator<std::_Tree_val<std::_Tmap_traits<unsigned long,ioDefenseController::DefenseList,std::less<unsigned long>,std::allocator<std::pair<unsigned long const ,ioDefenseController::DefenseList> >,0> >,std::_Iterator_base0>::operator++

; 1208 :  #endif /* _ITERATOR_DEBUG_LEVEL == 2 */
; 1209 : 
; 1210 : 		_Nodeptr _Fixnode;	// the node to recolor as needed
; 1211 : 		_Nodeptr _Fixnodeparent;	// parent of _Fixnode (which may be nil)
; 1212 : 		_Nodeptr _Pnode = _Erasednode;
; 1213 : 
; 1214 : 		if (this->_Isnil(this->_Left(_Pnode)))

  00026	8b 13		 mov	 edx, DWORD PTR [ebx]
  00028	80 7a 3d 00	 cmp	 BYTE PTR [edx+61], 0
  0002c	74 05		 je	 SHORT $LN39@erase@4

; 1215 : 			_Fixnode = this->_Right(_Pnode);	// stitch up right subtree

  0002e	8b 7b 08	 mov	 edi, DWORD PTR [ebx+8]

; 1216 : 		else if (this->_Isnil(this->_Right(_Pnode)))

  00031	eb 17		 jmp	 SHORT $LN330@erase@4
$LN39@erase@4:
  00033	8b 43 08	 mov	 eax, DWORD PTR [ebx+8]
  00036	80 78 3d 00	 cmp	 BYTE PTR [eax+61], 0
  0003a	74 04		 je	 SHORT $LN37@erase@4

; 1217 : 			_Fixnode = this->_Left(_Pnode);	// stitch up left subtree

  0003c	8b fa		 mov	 edi, edx

; 1218 : 		else

  0003e	eb 0a		 jmp	 SHORT $LN330@erase@4
$LN37@erase@4:

; 1219 : 			{	// two subtrees, must lift successor node to replace erased
; 1220 : 			_Pnode = _Where._Mynode();	// _Pnode is successor node

  00040	8b 45 0c	 mov	 eax, DWORD PTR __Where$[ebp]

; 1221 : 			_Fixnode = this->_Right(_Pnode);	// _Fixnode is only subtree

  00043	8b 78 08	 mov	 edi, DWORD PTR [eax+8]

; 1222 : 			}
; 1223 : 
; 1224 : 		if (_Pnode == _Erasednode)

  00046	3b c3		 cmp	 eax, ebx
  00048	75 76		 jne	 SHORT $LN35@erase@4
$LN330@erase@4:

; 1225 : 			{	// at most one subtree, relink it
; 1226 : 			_Fixnodeparent = this->_Parent(_Erasednode);
; 1227 : 			if (!this->_Isnil(_Fixnode))

  0004a	80 7f 3d 00	 cmp	 BYTE PTR [edi+61], 0
  0004e	8b 73 04	 mov	 esi, DWORD PTR [ebx+4]
  00051	75 03		 jne	 SHORT $LN34@erase@4

; 1228 : 				this->_Parent(_Fixnode) = _Fixnodeparent;	// link up

  00053	89 77 04	 mov	 DWORD PTR [edi+4], esi
$LN34@erase@4:

; 1229 : 
; 1230 : 			if (_Root() == _Erasednode)

  00056	8b 4d fc	 mov	 ecx, DWORD PTR _this$[ebp]
  00059	8b 41 04	 mov	 eax, DWORD PTR [ecx+4]
  0005c	39 58 04	 cmp	 DWORD PTR [eax+4], ebx
  0005f	75 05		 jne	 SHORT $LN33@erase@4

; 1231 : 				_Root() = _Fixnode;	// link down from root

  00061	89 78 04	 mov	 DWORD PTR [eax+4], edi

; 1232 : 			else if (this->_Left(_Fixnodeparent) == _Erasednode)

  00064	eb 0b		 jmp	 SHORT $LN30@erase@4
$LN33@erase@4:
  00066	39 1e		 cmp	 DWORD PTR [esi], ebx
  00068	75 04		 jne	 SHORT $LN31@erase@4

; 1233 : 				this->_Left(_Fixnodeparent) = _Fixnode;	// link down to left

  0006a	89 3e		 mov	 DWORD PTR [esi], edi

; 1234 : 			else

  0006c	eb 03		 jmp	 SHORT $LN30@erase@4
$LN31@erase@4:

; 1235 : 				this->_Right(_Fixnodeparent) =
; 1236 : 					_Fixnode;	// link down to right

  0006e	89 7e 08	 mov	 DWORD PTR [esi+8], edi
$LN30@erase@4:

; 1237 : 
; 1238 : 			if (_Lmost() == _Erasednode)

  00071	8b 49 04	 mov	 ecx, DWORD PTR [ecx+4]
  00074	39 19		 cmp	 DWORD PTR [ecx], ebx
  00076	75 1c		 jne	 SHORT $LN29@erase@4

; 1239 : 				_Lmost() = this->_Isnil(_Fixnode)
; 1240 : 					? _Fixnodeparent	// smallest is parent of erased node
; 1241 : 					: this->_Min(_Fixnode);	// smallest in relinked subtree

  00078	80 7f 3d 00	 cmp	 BYTE PTR [edi+61], 0
  0007c	74 04		 je	 SHORT $LN43@erase@4
  0007e	8b d6		 mov	 edx, esi
  00080	eb 10		 jmp	 SHORT $LN97@erase@4
$LN43@erase@4:
  00082	8b 07		 mov	 eax, DWORD PTR [edi]
  00084	8b d7		 mov	 edx, edi
  00086	eb 04		 jmp	 SHORT $LN332@erase@4
$LL98@erase@4:
  00088	8b d0		 mov	 edx, eax
  0008a	8b 02		 mov	 eax, DWORD PTR [edx]
$LN332@erase@4:
  0008c	80 78 3d 00	 cmp	 BYTE PTR [eax+61], 0
  00090	74 f6		 je	 SHORT $LL98@erase@4
$LN97@erase@4:
  00092	89 11		 mov	 DWORD PTR [ecx], edx
$LN29@erase@4:

; 1242 : 
; 1243 : 			if (_Rmost() == _Erasednode)

  00094	8b 45 fc	 mov	 eax, DWORD PTR _this$[ebp]
  00097	8b 48 04	 mov	 ecx, DWORD PTR [eax+4]
  0009a	39 59 08	 cmp	 DWORD PTR [ecx+8], ebx
  0009d	75 7b		 jne	 SHORT $LN185@erase@4

; 1244 : 				_Rmost() = this->_Isnil(_Fixnode)
; 1245 : 					? _Fixnodeparent	// largest is parent of erased node
; 1246 : 					: this->_Max(_Fixnode);	// largest in relinked subtree

  0009f	80 7f 3d 00	 cmp	 BYTE PTR [edi+61], 0
  000a3	74 04		 je	 SHORT $LN45@erase@4
  000a5	8b d6		 mov	 edx, esi
  000a7	eb 12		 jmp	 SHORT $LN117@erase@4
$LN45@erase@4:
  000a9	8b 47 08	 mov	 eax, DWORD PTR [edi+8]
  000ac	8b d7		 mov	 edx, edi
  000ae	eb 05		 jmp	 SHORT $LN333@erase@4
$LL118@erase@4:
  000b0	8b d0		 mov	 edx, eax
  000b2	8b 42 08	 mov	 eax, DWORD PTR [edx+8]
$LN333@erase@4:
  000b5	80 78 3d 00	 cmp	 BYTE PTR [eax+61], 0
  000b9	74 f5		 je	 SHORT $LL118@erase@4
$LN117@erase@4:
  000bb	89 51 08	 mov	 DWORD PTR [ecx+8], edx

; 1247 : 			}
; 1248 : 		else

  000be	eb 5a		 jmp	 SHORT $LN185@erase@4
$LN35@erase@4:

; 1249 : 			{	// erased has two subtrees, _Pnode is successor to erased
; 1250 : 			this->_Parent(this->_Left(_Erasednode)) =
; 1251 : 				_Pnode;	// link left up

  000c0	89 42 04	 mov	 DWORD PTR [edx+4], eax

; 1252 : 			this->_Left(_Pnode) =
; 1253 : 				this->_Left(_Erasednode);	// link successor down

  000c3	8b 13		 mov	 edx, DWORD PTR [ebx]
  000c5	89 10		 mov	 DWORD PTR [eax], edx

; 1254 : 
; 1255 : 			if (_Pnode == this->_Right(_Erasednode))

  000c7	3b 43 08	 cmp	 eax, DWORD PTR [ebx+8]
  000ca	75 04		 jne	 SHORT $LN26@erase@4

; 1256 : 				_Fixnodeparent = _Pnode;	// successor is next to erased

  000cc	8b f0		 mov	 esi, eax

; 1257 : 			else

  000ce	eb 1a		 jmp	 SHORT $LN25@erase@4
$LN26@erase@4:

; 1258 : 				{	// successor further down, link in place of erased
; 1259 : 				_Fixnodeparent =
; 1260 : 					this->_Parent(_Pnode);	// parent is successor's
; 1261 : 				if (!this->_Isnil(_Fixnode))

  000d0	80 7f 3d 00	 cmp	 BYTE PTR [edi+61], 0
  000d4	8b 70 04	 mov	 esi, DWORD PTR [eax+4]
  000d7	75 03		 jne	 SHORT $LN24@erase@4

; 1262 : 					this->_Parent(_Fixnode) = _Fixnodeparent;	// link fix up

  000d9	89 77 04	 mov	 DWORD PTR [edi+4], esi
$LN24@erase@4:

; 1263 : 				this->_Left(_Fixnodeparent) = _Fixnode;	// link fix down

  000dc	89 3e		 mov	 DWORD PTR [esi], edi

; 1264 : 				this->_Right(_Pnode) =
; 1265 : 					this->_Right(_Erasednode);	// link next down

  000de	8b 53 08	 mov	 edx, DWORD PTR [ebx+8]
  000e1	89 50 08	 mov	 DWORD PTR [eax+8], edx

; 1266 : 				this->_Parent(this->_Right(_Erasednode)) =
; 1267 : 					_Pnode;	// right up

  000e4	8b 4b 08	 mov	 ecx, DWORD PTR [ebx+8]
  000e7	89 41 04	 mov	 DWORD PTR [ecx+4], eax
$LN25@erase@4:

; 1268 : 				}
; 1269 : 
; 1270 : 			if (_Root() == _Erasednode)

  000ea	8b 4d fc	 mov	 ecx, DWORD PTR _this$[ebp]
  000ed	8b 49 04	 mov	 ecx, DWORD PTR [ecx+4]
  000f0	39 59 04	 cmp	 DWORD PTR [ecx+4], ebx
  000f3	75 05		 jne	 SHORT $LN23@erase@4

; 1271 : 				_Root() = _Pnode;	// link down from root

  000f5	89 41 04	 mov	 DWORD PTR [ecx+4], eax

; 1272 : 			else if (this->_Left(this->_Parent(_Erasednode)) == _Erasednode)

  000f8	eb 0e		 jmp	 SHORT $LN20@erase@4
$LN23@erase@4:
  000fa	8b 4b 04	 mov	 ecx, DWORD PTR [ebx+4]
  000fd	39 19		 cmp	 DWORD PTR [ecx], ebx
  000ff	75 04		 jne	 SHORT $LN21@erase@4

; 1273 : 				this->_Left(this->_Parent(_Erasednode)) =
; 1274 : 					_Pnode;	// link down to left

  00101	89 01		 mov	 DWORD PTR [ecx], eax

; 1275 : 			else

  00103	eb 03		 jmp	 SHORT $LN20@erase@4
$LN21@erase@4:

; 1276 : 				this->_Right(this->_Parent(_Erasednode)) =
; 1277 : 					_Pnode;	// link down to right

  00105	89 41 08	 mov	 DWORD PTR [ecx+8], eax
$LN20@erase@4:

; 1278 : 
; 1279 : 			this->_Parent(_Pnode) =
; 1280 : 				this->_Parent(_Erasednode);	// link successor up

  00108	8b 4b 04	 mov	 ecx, DWORD PTR [ebx+4]
  0010b	89 48 04	 mov	 DWORD PTR [eax+4], ecx

; 1281 : 			_STD swap(this->_Color(_Pnode),
; 1282 : 				this->_Color(_Erasednode));	// recolor it

  0010e	8a 53 3c	 mov	 dl, BYTE PTR [ebx+60]
  00111	8a 48 3c	 mov	 cl, BYTE PTR [eax+60]
  00114	88 50 3c	 mov	 BYTE PTR [eax+60], dl
  00117	88 4b 3c	 mov	 BYTE PTR [ebx+60], cl
$LN185@erase@4:

; 1283 : 			}
; 1284 : 
; 1285 : 		if (this->_Color(_Erasednode) == this->_Black)

  0011a	80 7b 3c 01	 cmp	 BYTE PTR [ebx+60], 1
  0011e	0f 85 03 01 00
	00		 jne	 $LN19@erase@4

; 1286 : 			{	// erasing black link, must recolor/rebalance tree
; 1287 : 			for (; _Fixnode != _Root()
; 1288 : 				&& this->_Color(_Fixnode) == this->_Black;
; 1289 : 				_Fixnodeparent = this->_Parent(_Fixnode))

  00124	e9 b2 00 00 00	 jmp	 $LN335@erase@4
$LL18@erase@4:
  00129	80 7f 3c 01	 cmp	 BYTE PTR [edi+60], 1
  0012d	0f 85 f0 00 00
	00		 jne	 $LN16@erase@4

; 1290 : 				if (_Fixnode == this->_Left(_Fixnodeparent))

  00133	8b 06		 mov	 eax, DWORD PTR [esi]
  00135	3b f8		 cmp	 edi, eax
  00137	75 6c		 jne	 SHORT $LN15@erase@4

; 1291 : 					{	// fixup left subtree
; 1292 : 					_Pnode = this->_Right(_Fixnodeparent);

  00139	8b 46 08	 mov	 eax, DWORD PTR [esi+8]

; 1293 : 					if (this->_Color(_Pnode) == this->_Red)

  0013c	80 78 3c 00	 cmp	 BYTE PTR [eax+60], 0
  00140	75 11		 jne	 SHORT $LN14@erase@4

; 1294 : 						{	// rotate red up from right subtree
; 1295 : 						this->_Color(_Pnode) = this->_Black;

  00142	c6 40 3c 01	 mov	 BYTE PTR [eax+60], 1

; 1296 : 						this->_Color(_Fixnodeparent) = this->_Red;
; 1297 : 						_Lrotate(_Fixnodeparent);

  00146	56		 push	 esi
  00147	c6 46 3c 00	 mov	 BYTE PTR [esi+60], 0
  0014b	e8 00 00 00 00	 call	 ?_Lrotate@?$_Tree@V?$_Tmap_traits@KUDefenseList@ioDefenseController@@U?$less@K@std@@V?$allocator@U?$pair@$$CBKUDefenseList@ioDefenseController@@@std@@@4@$0A@@std@@@std@@IAEXPAU_Node@?$_Tree_nod@V?$_Tmap_traits@KUDefenseList@ioDefenseController@@U?$less@K@std@@V?$allocator@U?$pair@$$CBKUDefenseList@ioDefenseController@@@std@@@4@$0A@@std@@@2@@Z ; std::_Tree<std::_Tmap_traits<unsigned long,ioDefenseController::DefenseList,std::less<unsigned long>,std::allocator<std::pair<unsigned long const ,ioDefenseController::DefenseList> >,0> >::_Lrotate

; 1298 : 						_Pnode = this->_Right(_Fixnodeparent);

  00150	8b 46 08	 mov	 eax, DWORD PTR [esi+8]
$LN14@erase@4:

; 1299 : 						}
; 1300 : 
; 1301 : 					if (this->_Isnil(_Pnode))

  00153	80 78 3d 00	 cmp	 BYTE PTR [eax+61], 0

; 1302 : 						_Fixnode = _Fixnodeparent;	// shouldn't happen
; 1303 : 					else if (this->_Color(this->_Left(_Pnode)) == this->_Black

  00157	75 7d		 jne	 SHORT $LN336@erase@4

; 1304 : 						&& this->_Color(this->_Right(_Pnode)) == this->_Black)

  00159	8b 08		 mov	 ecx, DWORD PTR [eax]
  0015b	80 79 3c 01	 cmp	 BYTE PTR [ecx+60], 1
  0015f	75 09		 jne	 SHORT $LN11@erase@4
  00161	8b 48 08	 mov	 ecx, DWORD PTR [eax+8]
  00164	80 79 3c 01	 cmp	 BYTE PTR [ecx+60], 1
  00168	74 68		 je	 SHORT $LN337@erase@4
$LN11@erase@4:

; 1305 : 						{	// redden right subtree with black children
; 1306 : 						this->_Color(_Pnode) = this->_Red;
; 1307 : 						_Fixnode = _Fixnodeparent;
; 1308 : 						}
; 1309 : 					else
; 1310 : 						{	// must rearrange right subtree
; 1311 : 						if (this->_Color(this->_Right(_Pnode))
; 1312 : 							== this->_Black)

  0016a	8b 48 08	 mov	 ecx, DWORD PTR [eax+8]
  0016d	80 79 3c 01	 cmp	 BYTE PTR [ecx+60], 1
  00171	75 16		 jne	 SHORT $LN9@erase@4

; 1313 : 							{	// rotate red up from left sub-subtree
; 1314 : 							this->_Color(this->_Left(_Pnode)) = this->_Black;

  00173	8b 08		 mov	 ecx, DWORD PTR [eax]
  00175	c6 41 3c 01	 mov	 BYTE PTR [ecx+60], 1

; 1315 : 							this->_Color(_Pnode) = this->_Red;
; 1316 : 							_Rrotate(_Pnode);

  00179	8b 4d fc	 mov	 ecx, DWORD PTR _this$[ebp]
  0017c	50		 push	 eax
  0017d	c6 40 3c 00	 mov	 BYTE PTR [eax+60], 0
  00181	e8 00 00 00 00	 call	 ?_Rrotate@?$_Tree@V?$_Tmap_traits@KUDefenseList@ioDefenseController@@U?$less@K@std@@V?$allocator@U?$pair@$$CBKUDefenseList@ioDefenseController@@@std@@@4@$0A@@std@@@std@@IAEXPAU_Node@?$_Tree_nod@V?$_Tmap_traits@KUDefenseList@ioDefenseController@@U?$less@K@std@@V?$allocator@U?$pair@$$CBKUDefenseList@ioDefenseController@@@std@@@4@$0A@@std@@@2@@Z ; std::_Tree<std::_Tmap_traits<unsigned long,ioDefenseController::DefenseList,std::less<unsigned long>,std::allocator<std::pair<unsigned long const ,ioDefenseController::DefenseList> >,0> >::_Rrotate

; 1317 : 							_Pnode = this->_Right(_Fixnodeparent);

  00186	8b 46 08	 mov	 eax, DWORD PTR [esi+8]
$LN9@erase@4:

; 1318 : 							}
; 1319 : 
; 1320 : 						this->_Color(_Pnode) = this->_Color(_Fixnodeparent);

  00189	8a 4e 3c	 mov	 cl, BYTE PTR [esi+60]
  0018c	88 48 3c	 mov	 BYTE PTR [eax+60], cl

; 1321 : 						this->_Color(_Fixnodeparent) = this->_Black;
; 1322 : 						this->_Color(this->_Right(_Pnode)) = this->_Black;
; 1323 : 						_Lrotate(_Fixnodeparent);

  0018f	8b 4d fc	 mov	 ecx, DWORD PTR _this$[ebp]
  00192	c6 46 3c 01	 mov	 BYTE PTR [esi+60], 1
  00196	8b 40 08	 mov	 eax, DWORD PTR [eax+8]
  00199	56		 push	 esi
  0019a	c6 40 3c 01	 mov	 BYTE PTR [eax+60], 1
  0019e	e8 00 00 00 00	 call	 ?_Lrotate@?$_Tree@V?$_Tmap_traits@KUDefenseList@ioDefenseController@@U?$less@K@std@@V?$allocator@U?$pair@$$CBKUDefenseList@ioDefenseController@@@std@@@4@$0A@@std@@@std@@IAEXPAU_Node@?$_Tree_nod@V?$_Tmap_traits@KUDefenseList@ioDefenseController@@U?$less@K@std@@V?$allocator@U?$pair@$$CBKUDefenseList@ioDefenseController@@@std@@@4@$0A@@std@@@2@@Z ; std::_Tree<std::_Tmap_traits<unsigned long,ioDefenseController::DefenseList,std::less<unsigned long>,std::allocator<std::pair<unsigned long const ,ioDefenseController::DefenseList> >,0> >::_Lrotate

; 1324 : 						break;	// tree now recolored/rebalanced

  001a3	eb 7e		 jmp	 SHORT $LN16@erase@4
$LN15@erase@4:

; 1325 : 						}
; 1326 : 					}
; 1327 : 				else
; 1328 : 					{	// fixup right subtree
; 1329 : 					_Pnode = this->_Left(_Fixnodeparent);
; 1330 : 					if (this->_Color(_Pnode) == this->_Red)

  001a5	80 78 3c 00	 cmp	 BYTE PTR [eax+60], 0
  001a9	75 10		 jne	 SHORT $LN7@erase@4

; 1331 : 						{	// rotate red up from left subtree
; 1332 : 						this->_Color(_Pnode) = this->_Black;

  001ab	c6 40 3c 01	 mov	 BYTE PTR [eax+60], 1

; 1333 : 						this->_Color(_Fixnodeparent) = this->_Red;
; 1334 : 						_Rrotate(_Fixnodeparent);

  001af	56		 push	 esi
  001b0	c6 46 3c 00	 mov	 BYTE PTR [esi+60], 0
  001b4	e8 00 00 00 00	 call	 ?_Rrotate@?$_Tree@V?$_Tmap_traits@KUDefenseList@ioDefenseController@@U?$less@K@std@@V?$allocator@U?$pair@$$CBKUDefenseList@ioDefenseController@@@std@@@4@$0A@@std@@@std@@IAEXPAU_Node@?$_Tree_nod@V?$_Tmap_traits@KUDefenseList@ioDefenseController@@U?$less@K@std@@V?$allocator@U?$pair@$$CBKUDefenseList@ioDefenseController@@@std@@@4@$0A@@std@@@2@@Z ; std::_Tree<std::_Tmap_traits<unsigned long,ioDefenseController::DefenseList,std::less<unsigned long>,std::allocator<std::pair<unsigned long const ,ioDefenseController::DefenseList> >,0> >::_Rrotate

; 1335 : 						_Pnode = this->_Left(_Fixnodeparent);

  001b9	8b 06		 mov	 eax, DWORD PTR [esi]
$LN7@erase@4:

; 1336 : 						}
; 1337 : 					if (this->_Isnil(_Pnode))

  001bb	80 78 3d 00	 cmp	 BYTE PTR [eax+61], 0

; 1338 : 						_Fixnode = _Fixnodeparent;	// shouldn't happen
; 1339 : 					else if (this->_Color(this->_Right(_Pnode)) ==

  001bf	75 15		 jne	 SHORT $LN336@erase@4

; 1340 : 						this->_Black
; 1341 : 						&& this->_Color(this->_Left(_Pnode)) == this->_Black)

  001c1	8b 48 08	 mov	 ecx, DWORD PTR [eax+8]
  001c4	80 79 3c 01	 cmp	 BYTE PTR [ecx+60], 1
  001c8	75 22		 jne	 SHORT $LN4@erase@4
  001ca	8b 08		 mov	 ecx, DWORD PTR [eax]
  001cc	80 79 3c 01	 cmp	 BYTE PTR [ecx+60], 1
  001d0	75 1a		 jne	 SHORT $LN4@erase@4
$LN337@erase@4:

; 1342 : 						{	// redden left subtree with black children
; 1343 : 						this->_Color(_Pnode) = this->_Red;

  001d2	c6 40 3c 00	 mov	 BYTE PTR [eax+60], 0
$LN336@erase@4:

; 1344 : 						_Fixnode = _Fixnodeparent;

  001d6	8b fe		 mov	 edi, esi
  001d8	8b 76 04	 mov	 esi, DWORD PTR [esi+4]
$LN335@erase@4:

; 1286 : 			{	// erasing black link, must recolor/rebalance tree
; 1287 : 			for (; _Fixnode != _Root()
; 1288 : 				&& this->_Color(_Fixnode) == this->_Black;
; 1289 : 				_Fixnodeparent = this->_Parent(_Fixnode))

  001db	8b 4d fc	 mov	 ecx, DWORD PTR _this$[ebp]
  001de	8b 41 04	 mov	 eax, DWORD PTR [ecx+4]
  001e1	3b 78 04	 cmp	 edi, DWORD PTR [eax+4]
  001e4	0f 85 3f ff ff
	ff		 jne	 $LL18@erase@4
  001ea	eb 37		 jmp	 SHORT $LN16@erase@4
$LN4@erase@4:

; 1345 : 						}
; 1346 : 					else
; 1347 : 						{	// must rearrange left subtree
; 1348 : 						if (this->_Color(this->_Left(_Pnode)) == this->_Black)

  001ec	8b 08		 mov	 ecx, DWORD PTR [eax]
  001ee	80 79 3c 01	 cmp	 BYTE PTR [ecx+60], 1
  001f2	75 16		 jne	 SHORT $LN2@erase@4

; 1349 : 							{	// rotate red up from right sub-subtree
; 1350 : 							this->_Color(this->_Right(_Pnode)) = this->_Black;

  001f4	8b 48 08	 mov	 ecx, DWORD PTR [eax+8]
  001f7	c6 41 3c 01	 mov	 BYTE PTR [ecx+60], 1

; 1351 : 							this->_Color(_Pnode) = this->_Red;
; 1352 : 							_Lrotate(_Pnode);

  001fb	8b 4d fc	 mov	 ecx, DWORD PTR _this$[ebp]
  001fe	50		 push	 eax
  001ff	c6 40 3c 00	 mov	 BYTE PTR [eax+60], 0
  00203	e8 00 00 00 00	 call	 ?_Lrotate@?$_Tree@V?$_Tmap_traits@KUDefenseList@ioDefenseController@@U?$less@K@std@@V?$allocator@U?$pair@$$CBKUDefenseList@ioDefenseController@@@std@@@4@$0A@@std@@@std@@IAEXPAU_Node@?$_Tree_nod@V?$_Tmap_traits@KUDefenseList@ioDefenseController@@U?$less@K@std@@V?$allocator@U?$pair@$$CBKUDefenseList@ioDefenseController@@@std@@@4@$0A@@std@@@2@@Z ; std::_Tree<std::_Tmap_traits<unsigned long,ioDefenseController::DefenseList,std::less<unsigned long>,std::allocator<std::pair<unsigned long const ,ioDefenseController::DefenseList> >,0> >::_Lrotate

; 1353 : 							_Pnode = this->_Left(_Fixnodeparent);

  00208	8b 06		 mov	 eax, DWORD PTR [esi]
$LN2@erase@4:

; 1354 : 							}
; 1355 : 
; 1356 : 						this->_Color(_Pnode) = this->_Color(_Fixnodeparent);

  0020a	8a 4e 3c	 mov	 cl, BYTE PTR [esi+60]
  0020d	88 48 3c	 mov	 BYTE PTR [eax+60], cl

; 1357 : 						this->_Color(_Fixnodeparent) = this->_Black;
; 1358 : 						this->_Color(this->_Left(_Pnode)) = this->_Black;
; 1359 : 						_Rrotate(_Fixnodeparent);

  00210	8b 4d fc	 mov	 ecx, DWORD PTR _this$[ebp]
  00213	c6 46 3c 01	 mov	 BYTE PTR [esi+60], 1
  00217	8b 00		 mov	 eax, DWORD PTR [eax]
  00219	56		 push	 esi
  0021a	c6 40 3c 01	 mov	 BYTE PTR [eax+60], 1
  0021e	e8 00 00 00 00	 call	 ?_Rrotate@?$_Tree@V?$_Tmap_traits@KUDefenseList@ioDefenseController@@U?$less@K@std@@V?$allocator@U?$pair@$$CBKUDefenseList@ioDefenseController@@@std@@@4@$0A@@std@@@std@@IAEXPAU_Node@?$_Tree_nod@V?$_Tmap_traits@KUDefenseList@ioDefenseController@@U?$less@K@std@@V?$allocator@U?$pair@$$CBKUDefenseList@ioDefenseController@@@std@@@4@$0A@@std@@@2@@Z ; std::_Tree<std::_Tmap_traits<unsigned long,ioDefenseController::DefenseList,std::less<unsigned long>,std::allocator<std::pair<unsigned long const ,ioDefenseController::DefenseList> >,0> >::_Rrotate
$LN16@erase@4:

; 1360 : 						break;	// tree now recolored/rebalanced
; 1361 : 						}
; 1362 : 					}
; 1363 : 
; 1364 : 			this->_Color(_Fixnode) = this->_Black;	// stopping node is black

  00223	c6 47 3c 01	 mov	 BYTE PTR [edi+60], 1
$LN19@erase@4:

; 1365 : 			}
; 1366 : 
; 1367 : 		_Dest_val(this->_Alval,
; 1368 : 			_STD addressof(this->_Myval(_Erasednode)));	// delete erased node

  00227	8d 4b 10	 lea	 ecx, DWORD PTR [ebx+16]
  0022a	e8 00 00 00 00	 call	 ??1DefenseList@ioDefenseController@@QAE@XZ

; 1369 : 
; 1370 : 		this->_Alnod.deallocate(_Erasednode, 1);

  0022f	53		 push	 ebx
  00230	e8 00 00 00 00	 call	 ??3@YAXPAX@Z		; operator delete
  00235	59		 pop	 ecx

; 1371 : 
; 1372 : 		if (0 < this->_Mysize)

  00236	8b 4d fc	 mov	 ecx, DWORD PTR _this$[ebp]
  00239	8b 41 08	 mov	 eax, DWORD PTR [ecx+8]
  0023c	5f		 pop	 edi
  0023d	5e		 pop	 esi
  0023e	5b		 pop	 ebx
  0023f	85 c0		 test	 eax, eax
  00241	74 04		 je	 SHORT $LN1@erase@4

; 1373 : 			--this->_Mysize;

  00243	48		 dec	 eax
  00244	89 41 08	 mov	 DWORD PTR [ecx+8], eax
$LN1@erase@4:

; 1374 : 
; 1375 : 		return (iterator(_Where._Ptr, this));	// return successor iterator

  00247	8b 45 08	 mov	 eax, DWORD PTR ___$ReturnUdt$[ebp]
  0024a	8b 4d 0c	 mov	 ecx, DWORD PTR __Where$[ebp]
  0024d	89 08		 mov	 DWORD PTR [eax], ecx

; 1376 : 		}

  0024f	c9		 leave
  00250	c2 08 00	 ret	 8
$LN331@erase@4:
?erase@?$_Tree@V?$_Tmap_traits@KUDefenseList@ioDefenseController@@U?$less@K@std@@V?$allocator@U?$pair@$$CBKUDefenseList@ioDefenseController@@@std@@@4@$0A@@std@@@std@@QAE?AV?$_Tree_iterator@V?$_Tree_val@V?$_Tmap_traits@KUDefenseList@ioDefenseController@@U?$less@K@std@@V?$allocator@U?$pair@$$CBKUDefenseList@ioDefenseController@@@std@@@4@$0A@@std@@@std@@@2@V?$_Tree_const_iterator@V?$_Tree_val@V?$_Tmap_traits@KUDefenseList@ioDefenseController@@U?$less@K@std@@V?$allocator@U?$pair@$$CBKUDefenseList@ioDefenseController@@@std@@@4@$0A@@std@@@std@@@2@@Z ENDP ; std::_Tree<std::_Tmap_traits<unsigned long,ioDefenseController::DefenseList,std::less<unsigned long>,std::allocator<std::pair<unsigned long const ,ioDefenseController::DefenseList> >,0> >::erase
_TEXT	ENDS
PUBLIC	?_Erase@?$_Tree@V?$_Tmap_traits@KUDefenseList@ioDefenseController@@U?$less@K@std@@V?$allocator@U?$pair@$$CBKUDefenseList@ioDefenseController@@@std@@@4@$0A@@std@@@std@@IAEXPAU_Node@?$_Tree_nod@V?$_Tmap_traits@KUDefenseList@ioDefenseController@@U?$less@K@std@@V?$allocator@U?$pair@$$CBKUDefenseList@ioDefenseController@@@std@@@4@$0A@@std@@@2@@Z ; std::_Tree<std::_Tmap_traits<unsigned long,ioDefenseController::DefenseList,std::less<unsigned long>,std::allocator<std::pair<unsigned long const ,ioDefenseController::DefenseList> >,0> >::_Erase
; Function compile flags: /Ogsp
;	COMDAT ?_Erase@?$_Tree@V?$_Tmap_traits@KUDefenseList@ioDefenseController@@U?$less@K@std@@V?$allocator@U?$pair@$$CBKUDefenseList@ioDefenseController@@@std@@@4@$0A@@std@@@std@@IAEXPAU_Node@?$_Tree_nod@V?$_Tmap_traits@KUDefenseList@ioDefenseController@@U?$less@K@std@@V?$allocator@U?$pair@$$CBKUDefenseList@ioDefenseController@@@std@@@4@$0A@@std@@@2@@Z
_TEXT	SEGMENT
__Rootnode$ = 8						; size = 4
?_Erase@?$_Tree@V?$_Tmap_traits@KUDefenseList@ioDefenseController@@U?$less@K@std@@V?$allocator@U?$pair@$$CBKUDefenseList@ioDefenseController@@@std@@@4@$0A@@std@@@std@@IAEXPAU_Node@?$_Tree_nod@V?$_Tmap_traits@KUDefenseList@ioDefenseController@@U?$less@K@std@@V?$allocator@U?$pair@$$CBKUDefenseList@ioDefenseController@@@std@@@4@$0A@@std@@@2@@Z PROC ; std::_Tree<std::_Tmap_traits<unsigned long,ioDefenseController::DefenseList,std::less<unsigned long>,std::allocator<std::pair<unsigned long const ,ioDefenseController::DefenseList> >,0> >::_Erase, COMDAT
; _this$ = ecx

; 1610 : 		{	// free entire subtree, recursively

  00000	55		 push	 ebp
  00001	8b ec		 mov	 ebp, esp
  00003	53		 push	 ebx
  00004	56		 push	 esi
  00005	57		 push	 edi

; 1611 : 		for (_Nodeptr _Pnode = _Rootnode;

  00006	8b 7d 08	 mov	 edi, DWORD PTR __Rootnode$[ebp]

; 1612 : 			!this->_Isnil(_Pnode); _Rootnode = _Pnode)

  00009	80 7f 3d 00	 cmp	 BYTE PTR [edi+61], 0
  0000d	8b d9		 mov	 ebx, ecx
  0000f	8b f7		 mov	 esi, edi
  00011	75 23		 jne	 SHORT $LN1@Erase
$LL3@Erase:

; 1613 : 			{	// free subtrees, then node
; 1614 : 			_Erase(this->_Right(_Pnode));

  00013	ff 76 08	 push	 DWORD PTR [esi+8]
  00016	8b cb		 mov	 ecx, ebx
  00018	e8 00 00 00 00	 call	 ?_Erase@?$_Tree@V?$_Tmap_traits@KUDefenseList@ioDefenseController@@U?$less@K@std@@V?$allocator@U?$pair@$$CBKUDefenseList@ioDefenseController@@@std@@@4@$0A@@std@@@std@@IAEXPAU_Node@?$_Tree_nod@V?$_Tmap_traits@KUDefenseList@ioDefenseController@@U?$less@K@std@@V?$allocator@U?$pair@$$CBKUDefenseList@ioDefenseController@@@std@@@4@$0A@@std@@@2@@Z ; std::_Tree<std::_Tmap_traits<unsigned long,ioDefenseController::DefenseList,std::less<unsigned long>,std::allocator<std::pair<unsigned long const ,ioDefenseController::DefenseList> >,0> >::_Erase

; 1615 : 			_Pnode = this->_Left(_Pnode);

  0001d	8b 36		 mov	 esi, DWORD PTR [esi]

; 1616 : 			_Dest_val(this->_Alval,
; 1617 : 				_STD addressof(this->_Myval(_Rootnode)));

  0001f	8d 4f 10	 lea	 ecx, DWORD PTR [edi+16]
  00022	e8 00 00 00 00	 call	 ??1DefenseList@ioDefenseController@@QAE@XZ

; 1618 : 
; 1619 : 			this->_Alnod.deallocate(_Rootnode, 1);

  00027	57		 push	 edi
  00028	e8 00 00 00 00	 call	 ??3@YAXPAX@Z		; operator delete
  0002d	80 7e 3d 00	 cmp	 BYTE PTR [esi+61], 0
  00031	59		 pop	 ecx
  00032	8b fe		 mov	 edi, esi
  00034	74 dd		 je	 SHORT $LL3@Erase
$LN1@Erase:
  00036	5f		 pop	 edi
  00037	5e		 pop	 esi
  00038	5b		 pop	 ebx

; 1620 : 			}
; 1621 : 		}

  00039	5d		 pop	 ebp
  0003a	c2 04 00	 ret	 4
?_Erase@?$_Tree@V?$_Tmap_traits@KUDefenseList@ioDefenseController@@U?$less@K@std@@V?$allocator@U?$pair@$$CBKUDefenseList@ioDefenseController@@@std@@@4@$0A@@std@@@std@@IAEXPAU_Node@?$_Tree_nod@V?$_Tmap_traits@KUDefenseList@ioDefenseController@@U?$less@K@std@@V?$allocator@U?$pair@$$CBKUDefenseList@ioDefenseController@@@std@@@4@$0A@@std@@@2@@Z ENDP ; std::_Tree<std::_Tmap_traits<unsigned long,ioDefenseController::DefenseList,std::less<unsigned long>,std::allocator<std::pair<unsigned long const ,ioDefenseController::DefenseList> >,0> >::_Erase
_TEXT	ENDS
PUBLIC	?_Linsert@?$_Tree@V?$_Tmap_traits@KUDefenseList@ioDefenseController@@U?$less@K@std@@V?$allocator@U?$pair@$$CBKUDefenseList@ioDefenseController@@@std@@@4@$0A@@std@@@std@@QAE?AU?$pair@V?$_Tree_iterator@V?$_Tree_val@V?$_Tmap_traits@KUDefenseList@ioDefenseController@@U?$less@K@std@@V?$allocator@U?$pair@$$CBKUDefenseList@ioDefenseController@@@std@@@4@$0A@@std@@@std@@@std@@_N@2@PAU_Node@?$_Tree_nod@V?$_Tmap_traits@KUDefenseList@ioDefenseController@@U?$less@K@std@@V?$allocator@U?$pair@$$CBKUDefenseList@ioDefenseController@@@std@@@4@$0A@@std@@@2@_N@Z ; std::_Tree<std::_Tmap_traits<unsigned long,ioDefenseController::DefenseList,std::less<unsigned long>,std::allocator<std::pair<unsigned long const ,ioDefenseController::DefenseList> >,0> >::_Linsert
; Function compile flags: /Ogsp
;	COMDAT ?_Linsert@?$_Tree@V?$_Tmap_traits@KUDefenseList@ioDefenseController@@U?$less@K@std@@V?$allocator@U?$pair@$$CBKUDefenseList@ioDefenseController@@@std@@@4@$0A@@std@@@std@@QAE?AU?$pair@V?$_Tree_iterator@V?$_Tree_val@V?$_Tmap_traits@KUDefenseList@ioDefenseController@@U?$less@K@std@@V?$allocator@U?$pair@$$CBKUDefenseList@ioDefenseController@@@std@@@4@$0A@@std@@@std@@@std@@_N@2@PAU_Node@?$_Tree_nod@V?$_Tmap_traits@KUDefenseList@ioDefenseController@@U?$less@K@std@@V?$allocator@U?$pair@$$CBKUDefenseList@ioDefenseController@@@std@@@4@$0A@@std@@@2@_N@Z
_TEXT	SEGMENT
__Addleft$ = -4						; size = 1
___$ReturnUdt$ = 8					; size = 4
__Node$ = 12						; size = 4
$T545488 = 16						; size = 4
__Where$536240 = 16					; size = 4
__Leftish$ = 16						; size = 1
?_Linsert@?$_Tree@V?$_Tmap_traits@KUDefenseList@ioDefenseController@@U?$less@K@std@@V?$allocator@U?$pair@$$CBKUDefenseList@ioDefenseController@@@std@@@4@$0A@@std@@@std@@QAE?AU?$pair@V?$_Tree_iterator@V?$_Tree_val@V?$_Tmap_traits@KUDefenseList@ioDefenseController@@U?$less@K@std@@V?$allocator@U?$pair@$$CBKUDefenseList@ioDefenseController@@@std@@@4@$0A@@std@@@std@@@std@@_N@2@PAU_Node@?$_Tree_nod@V?$_Tmap_traits@KUDefenseList@ioDefenseController@@U?$less@K@std@@V?$allocator@U?$pair@$$CBKUDefenseList@ioDefenseController@@@std@@@4@$0A@@std@@@2@_N@Z PROC ; std::_Tree<std::_Tmap_traits<unsigned long,ioDefenseController::DefenseList,std::less<unsigned long>,std::allocator<std::pair<unsigned long const ,ioDefenseController::DefenseList> >,0> >::_Linsert, COMDAT
; _this$ = ecx

; 944  : 		{	// try to insert node at _Node, on left if _Leftish

  00000	55		 push	 ebp
  00001	8b ec		 mov	 ebp, esp
  00003	51		 push	 ecx

; 945  : 		const value_type& _Val = this->_Myval(_Node);
; 946  : 
; 947  : 		_Nodeptr _Trynode = _Root();
; 948  : 		_Nodeptr _Wherenode = this->_Myhead;
; 949  : 		bool _Addleft = true;	// add to left of head if tree empty
; 950  : 		while (!this->_Isnil(_Trynode))

  00004	8b 55 0c	 mov	 edx, DWORD PTR __Node$[ebp]
  00007	53		 push	 ebx
  00008	56		 push	 esi
  00009	8b f1		 mov	 esi, ecx
  0000b	8b 4e 04	 mov	 ecx, DWORD PTR [esi+4]
  0000e	8b 41 04	 mov	 eax, DWORD PTR [ecx+4]
  00011	80 78 3d 00	 cmp	 BYTE PTR [eax+61], 0
  00015	8b d9		 mov	 ebx, ecx
  00017	b1 01		 mov	 cl, 1
  00019	57		 push	 edi
  0001a	88 4d fc	 mov	 BYTE PTR __Addleft$[ebp], cl
  0001d	75 2e		 jne	 SHORT $LN11@Linsert
  0001f	8b 7a 0c	 mov	 edi, DWORD PTR [edx+12]
$LL12@Linsert:

; 951  : 			{	// look for leaf to insert before (_Addleft) or after
; 952  : 			_Wherenode = _Trynode;
; 953  : 			if (_Leftish)

  00022	80 7d 10 00	 cmp	 BYTE PTR __Leftish$[ebp], 0
  00026	8b d8		 mov	 ebx, eax
  00028	74 09		 je	 SHORT $LN10@Linsert

; 954  : 				_Addleft = !_DEBUG_LT_PRED(this->comp,

  0002a	39 78 0c	 cmp	 DWORD PTR [eax+12], edi
  0002d	1a c9		 sbb	 cl, cl
  0002f	fe c1		 inc	 cl

; 955  : 					this->_Key(_Trynode),
; 956  : 					this->_Kfn(_Val));	// favor left end
; 957  : 			else

  00031	eb 06		 jmp	 SHORT $LN161@Linsert
$LN10@Linsert:

; 958  : 				_Addleft = _DEBUG_LT_PRED(this->comp,

  00033	3b 78 0c	 cmp	 edi, DWORD PTR [eax+12]
  00036	0f 92 c1	 setb	 cl
$LN161@Linsert:
  00039	88 4d fc	 mov	 BYTE PTR __Addleft$[ebp], cl

; 959  : 					this->_Kfn(_Val),
; 960  : 					this->_Key(_Trynode));	// favor right end
; 961  : 			_Trynode = _Addleft ? this->_Left(_Trynode)
; 962  : 				: this->_Right(_Trynode);

  0003c	84 c9		 test	 cl, cl
  0003e	74 04		 je	 SHORT $LN15@Linsert
  00040	8b 00		 mov	 eax, DWORD PTR [eax]
  00042	eb 03		 jmp	 SHORT $LN16@Linsert
$LN15@Linsert:
  00044	8b 40 08	 mov	 eax, DWORD PTR [eax+8]
$LN16@Linsert:

; 945  : 		const value_type& _Val = this->_Myval(_Node);
; 946  : 
; 947  : 		_Nodeptr _Trynode = _Root();
; 948  : 		_Nodeptr _Wherenode = this->_Myhead;
; 949  : 		bool _Addleft = true;	// add to left of head if tree empty
; 950  : 		while (!this->_Isnil(_Trynode))

  00047	80 78 3d 00	 cmp	 BYTE PTR [eax+61], 0
  0004b	74 d5		 je	 SHORT $LL12@Linsert
$LN11@Linsert:

; 963  : 			}
; 964  : 
; 965  : 		if (this->_Multi)
; 966  : 			return (_Pairib(_Insert(_Addleft, _Wherenode, _Node), true));
; 967  : 		else
; 968  : 			{	// insert only if unique
; 969  : 			iterator _Where = iterator(_Wherenode, this);

  0004d	8b fb		 mov	 edi, ebx
  0004f	89 7d 10	 mov	 DWORD PTR __Where$536240[ebp], edi

; 970  : 			if (!_Addleft)

  00052	84 c9		 test	 cl, cl
  00054	74 31		 je	 SHORT $LN99@Linsert

; 971  : 				;	// need to test if insert after is okay
; 972  : 			else if (_Where == begin())

  00056	8b 46 04	 mov	 eax, DWORD PTR [esi+4]
  00059	3b 18		 cmp	 ebx, DWORD PTR [eax]
  0005b	75 1c		 jne	 SHORT $LN4@Linsert

; 973  : 				return (_Pairib(_Insert(true, _Wherenode, _Node), true));

  0005d	52		 push	 edx
  0005e	53		 push	 ebx
  0005f	6a 01		 push	 1
$LN162@Linsert:
  00061	8d 45 10	 lea	 eax, DWORD PTR $T545488[ebp]
  00064	50		 push	 eax
  00065	8b ce		 mov	 ecx, esi
  00067	e8 00 00 00 00	 call	 ?_Insert@?$_Tree@V?$_Tmap_traits@KUDefenseList@ioDefenseController@@U?$less@K@std@@V?$allocator@U?$pair@$$CBKUDefenseList@ioDefenseController@@@std@@@4@$0A@@std@@@std@@IAE?AV?$_Tree_iterator@V?$_Tree_val@V?$_Tmap_traits@KUDefenseList@ioDefenseController@@U?$less@K@std@@V?$allocator@U?$pair@$$CBKUDefenseList@ioDefenseController@@@std@@@4@$0A@@std@@@std@@@2@_NPAU_Node@?$_Tree_nod@V?$_Tmap_traits@KUDefenseList@ioDefenseController@@U?$less@K@std@@V?$allocator@U?$pair@$$CBKUDefenseList@ioDefenseController@@@std@@@4@$0A@@std@@@2@1@Z ; std::_Tree<std::_Tmap_traits<unsigned long,ioDefenseController::DefenseList,std::less<unsigned long>,std::allocator<std::pair<unsigned long const ,ioDefenseController::DefenseList> >,0> >::_Insert
  0006c	8b 08		 mov	 ecx, DWORD PTR [eax]
  0006e	8b 45 08	 mov	 eax, DWORD PTR ___$ReturnUdt$[ebp]
  00071	89 08		 mov	 DWORD PTR [eax], ecx
  00073	c6 40 04 01	 mov	 BYTE PTR [eax+4], 1
  00077	eb 37		 jmp	 SHORT $LN1@Linsert
$LN4@Linsert:

; 974  : 			else
; 975  : 				--_Where;	// need to test if insert before is okay

  00079	8d 4d 10	 lea	 ecx, DWORD PTR __Where$536240[ebp]
  0007c	e8 00 00 00 00	 call	 ??F?$_Tree_unchecked_const_iterator@V?$_Tree_val@V?$_Tmap_traits@KUDefenseList@ioDefenseController@@U?$less@K@std@@V?$allocator@U?$pair@$$CBKUDefenseList@ioDefenseController@@@std@@@4@$0A@@std@@@std@@U_Iterator_base0@2@@std@@QAEAAV01@XZ ; std::_Tree_unchecked_const_iterator<std::_Tree_val<std::_Tmap_traits<unsigned long,ioDefenseController::DefenseList,std::less<unsigned long>,std::allocator<std::pair<unsigned long const ,ioDefenseController::DefenseList> >,0> >,std::_Iterator_base0>::operator--
  00081	8b 7d 10	 mov	 edi, DWORD PTR __Where$536240[ebp]
  00084	8b 55 0c	 mov	 edx, DWORD PTR __Node$[ebp]
$LN99@Linsert:

; 976  : 
; 977  : 			if (_DEBUG_LT_PRED(this->comp,

  00087	8b 47 0c	 mov	 eax, DWORD PTR [edi+12]
  0008a	3b 42 0c	 cmp	 eax, DWORD PTR [edx+12]
  0008d	73 07		 jae	 SHORT $LN2@Linsert

; 978  : 				this->_Key(_Where._Mynode()),
; 979  : 				this->_Kfn(_Val)))
; 980  : 				return (_Pairib(_Insert(_Addleft, _Wherenode, _Node), true));

  0008f	52		 push	 edx
  00090	53		 push	 ebx
  00091	ff 75 fc	 push	 DWORD PTR __Addleft$[ebp]
  00094	eb cb		 jmp	 SHORT $LN162@Linsert
$LN2@Linsert:

; 981  : 			else
; 982  : 				{	// duplicate, don't insert
; 983  : 				_Dest_val(this->_Alval,
; 984  : 					_STD addressof(this->_Myval(_Node)));

  00096	8d 4a 10	 lea	 ecx, DWORD PTR [edx+16]
  00099	e8 00 00 00 00	 call	 ??1DefenseList@ioDefenseController@@QAE@XZ

; 985  : 
; 986  : 				this->_Alnod.deallocate(_Node, 1);

  0009e	ff 75 0c	 push	 DWORD PTR __Node$[ebp]
  000a1	e8 00 00 00 00	 call	 ??3@YAXPAX@Z		; operator delete

; 987  : 
; 988  : 				return (_Pairib(_Where, false));

  000a6	8b 45 08	 mov	 eax, DWORD PTR ___$ReturnUdt$[ebp]
  000a9	59		 pop	 ecx
  000aa	89 38		 mov	 DWORD PTR [eax], edi
  000ac	c6 40 04 00	 mov	 BYTE PTR [eax+4], 0
$LN1@Linsert:
  000b0	5f		 pop	 edi
  000b1	5e		 pop	 esi
  000b2	5b		 pop	 ebx

; 989  : 				}
; 990  : 			}
; 991  : 		}

  000b3	c9		 leave
  000b4	c2 0c 00	 ret	 12			; 0000000cH
?_Linsert@?$_Tree@V?$_Tmap_traits@KUDefenseList@ioDefenseController@@U?$less@K@std@@V?$allocator@U?$pair@$$CBKUDefenseList@ioDefenseController@@@std@@@4@$0A@@std@@@std@@QAE?AU?$pair@V?$_Tree_iterator@V?$_Tree_val@V?$_Tmap_traits@KUDefenseList@ioDefenseController@@U?$less@K@std@@V?$allocator@U?$pair@$$CBKUDefenseList@ioDefenseController@@@std@@@4@$0A@@std@@@std@@@std@@_N@2@PAU_Node@?$_Tree_nod@V?$_Tmap_traits@KUDefenseList@ioDefenseController@@U?$less@K@std@@V?$allocator@U?$pair@$$CBKUDefenseList@ioDefenseController@@@std@@@4@$0A@@std@@@2@_N@Z ENDP ; std::_Tree<std::_Tmap_traits<unsigned long,ioDefenseController::DefenseList,std::less<unsigned long>,std::allocator<std::pair<unsigned long const ,ioDefenseController::DefenseList> >,0> >::_Linsert
_TEXT	ENDS
PUBLIC	?clear@?$_Tree@V?$_Tmap_traits@KUDefenseList@ioDefenseController@@U?$less@K@std@@V?$allocator@U?$pair@$$CBKUDefenseList@ioDefenseController@@@std@@@4@$0A@@std@@@std@@QAEXXZ ; std::_Tree<std::_Tmap_traits<unsigned long,ioDefenseController::DefenseList,std::less<unsigned long>,std::allocator<std::pair<unsigned long const ,ioDefenseController::DefenseList> >,0> >::clear
; Function compile flags: /Ogsp
;	COMDAT ?clear@?$_Tree@V?$_Tmap_traits@KUDefenseList@ioDefenseController@@U?$less@K@std@@V?$allocator@U?$pair@$$CBKUDefenseList@ioDefenseController@@@std@@@4@$0A@@std@@@std@@QAEXXZ
_TEXT	SEGMENT
?clear@?$_Tree@V?$_Tmap_traits@KUDefenseList@ioDefenseController@@U?$less@K@std@@V?$allocator@U?$pair@$$CBKUDefenseList@ioDefenseController@@@std@@@4@$0A@@std@@@std@@QAEXXZ PROC ; std::_Tree<std::_Tmap_traits<unsigned long,ioDefenseController::DefenseList,std::less<unsigned long>,std::allocator<std::pair<unsigned long const ,ioDefenseController::DefenseList> >,0> >::clear, COMDAT
; _this$ = ecx

; 1410 : 		{	// erase all

  00000	56		 push	 esi
  00001	57		 push	 edi
  00002	8b f9		 mov	 edi, ecx

; 1411 :  #if _ITERATOR_DEBUG_LEVEL == 2
; 1412 : 		this->_Orphan_ptr(*this, 0);
; 1413 :  #endif /* _ITERATOR_DEBUG_LEVEL == 2 */
; 1414 : 
; 1415 : 		_Erase(_Root());

  00004	8b 47 04	 mov	 eax, DWORD PTR [edi+4]
  00007	ff 70 04	 push	 DWORD PTR [eax+4]
  0000a	e8 00 00 00 00	 call	 ?_Erase@?$_Tree@V?$_Tmap_traits@KUDefenseList@ioDefenseController@@U?$less@K@std@@V?$allocator@U?$pair@$$CBKUDefenseList@ioDefenseController@@@std@@@4@$0A@@std@@@std@@IAEXPAU_Node@?$_Tree_nod@V?$_Tmap_traits@KUDefenseList@ioDefenseController@@U?$less@K@std@@V?$allocator@U?$pair@$$CBKUDefenseList@ioDefenseController@@@std@@@4@$0A@@std@@@2@@Z ; std::_Tree<std::_Tmap_traits<unsigned long,ioDefenseController::DefenseList,std::less<unsigned long>,std::allocator<std::pair<unsigned long const ,ioDefenseController::DefenseList> >,0> >::_Erase

; 1416 : 		_Root() = this->_Myhead;

  0000f	8b 47 04	 mov	 eax, DWORD PTR [edi+4]
  00012	89 40 04	 mov	 DWORD PTR [eax+4], eax

; 1417 : 		_Lmost() = this->_Myhead;

  00015	8b 47 04	 mov	 eax, DWORD PTR [edi+4]
  00018	89 00		 mov	 DWORD PTR [eax], eax

; 1418 : 		_Rmost() = this->_Myhead;

  0001a	8b 77 04	 mov	 esi, DWORD PTR [edi+4]
  0001d	89 76 08	 mov	 DWORD PTR [esi+8], esi

; 1419 : 		this->_Mysize = 0;

  00020	83 67 08 00	 and	 DWORD PTR [edi+8], 0
  00024	5f		 pop	 edi
  00025	5e		 pop	 esi

; 1420 : 		}

  00026	c3		 ret	 0
?clear@?$_Tree@V?$_Tmap_traits@KUDefenseList@ioDefenseController@@U?$less@K@std@@V?$allocator@U?$pair@$$CBKUDefenseList@ioDefenseController@@@std@@@4@$0A@@std@@@std@@QAEXXZ ENDP ; std::_Tree<std::_Tmap_traits<unsigned long,ioDefenseController::DefenseList,std::less<unsigned long>,std::allocator<std::pair<unsigned long const ,ioDefenseController::DefenseList> >,0> >::clear
_TEXT	ENDS
PUBLIC	??$insert@U?$pair@$$CBKUDefenseList@ioDefenseController@@@std@@@?$_Tree@V?$_Tmap_traits@KUDefenseList@ioDefenseController@@U?$less@K@std@@V?$allocator@U?$pair@$$CBKUDefenseList@ioDefenseController@@@std@@@4@$0A@@std@@@std@@QAE?AU?$pair@V?$_Tree_iterator@V?$_Tree_val@V?$_Tmap_traits@KUDefenseList@ioDefenseController@@U?$less@K@std@@V?$allocator@U?$pair@$$CBKUDefenseList@ioDefenseController@@@std@@@4@$0A@@std@@@std@@@std@@_N@1@$$QAU?$pair@$$CBKUDefenseList@ioDefenseController@@@1@@Z ; std::_Tree<std::_Tmap_traits<unsigned long,ioDefenseController::DefenseList,std::less<unsigned long>,std::allocator<std::pair<unsigned long const ,ioDefenseController::DefenseList> >,0> >::insert<std::pair<unsigned long const ,ioDefenseController::DefenseList> >
; Function compile flags: /Ogsp
;	COMDAT ??$insert@U?$pair@$$CBKUDefenseList@ioDefenseController@@@std@@@?$_Tree@V?$_Tmap_traits@KUDefenseList@ioDefenseController@@U?$less@K@std@@V?$allocator@U?$pair@$$CBKUDefenseList@ioDefenseController@@@std@@@4@$0A@@std@@@std@@QAE?AU?$pair@V?$_Tree_iterator@V?$_Tree_val@V?$_Tmap_traits@KUDefenseList@ioDefenseController@@U?$less@K@std@@V?$allocator@U?$pair@$$CBKUDefenseList@ioDefenseController@@@std@@@4@$0A@@std@@@std@@@std@@_N@1@$$QAU?$pair@$$CBKUDefenseList@ioDefenseController@@@1@@Z
_TEXT	SEGMENT
___$ReturnUdt$ = 8					; size = 4
__Val$ = 12						; size = 4
??$insert@U?$pair@$$CBKUDefenseList@ioDefenseController@@@std@@@?$_Tree@V?$_Tmap_traits@KUDefenseList@ioDefenseController@@U?$less@K@std@@V?$allocator@U?$pair@$$CBKUDefenseList@ioDefenseController@@@std@@@4@$0A@@std@@@std@@QAE?AU?$pair@V?$_Tree_iterator@V?$_Tree_val@V?$_Tmap_traits@KUDefenseList@ioDefenseController@@U?$less@K@std@@V?$allocator@U?$pair@$$CBKUDefenseList@ioDefenseController@@@std@@@4@$0A@@std@@@std@@@std@@_N@1@$$QAU?$pair@$$CBKUDefenseList@ioDefenseController@@@1@@Z PROC ; std::_Tree<std::_Tmap_traits<unsigned long,ioDefenseController::DefenseList,std::less<unsigned long>,std::allocator<std::pair<unsigned long const ,ioDefenseController::DefenseList> >,0> >::insert<std::pair<unsigned long const ,ioDefenseController::DefenseList> >, COMDAT
; _this$ = ecx

; 753  : 		_Pairib insert(_Valty&& _Val)

  00000	55		 push	 ebp
  00001	8b ec		 mov	 ebp, esp
  00003	56		 push	 esi

; 754  : 		{	// try to insert node with value _Val, favoring right side
; 755  : 		return (_Linsert(this->_Buynode(_STD forward<_Valty>(_Val)),
; 756  : 			false));

  00004	6a 00		 push	 0
  00006	ff 75 0c	 push	 DWORD PTR __Val$[ebp]
  00009	8b f1		 mov	 esi, ecx
  0000b	e8 00 00 00 00	 call	 ??$_Buynode@U?$pair@$$CBKUDefenseList@ioDefenseController@@@std@@@?$_Tree_val@V?$_Tmap_traits@KUDefenseList@ioDefenseController@@U?$less@K@std@@V?$allocator@U?$pair@$$CBKUDefenseList@ioDefenseController@@@std@@@4@$0A@@std@@@std@@QAEPAU_Node@?$_Tree_nod@V?$_Tmap_traits@KUDefenseList@ioDefenseController@@U?$less@K@std@@V?$allocator@U?$pair@$$CBKUDefenseList@ioDefenseController@@@std@@@4@$0A@@std@@@1@$$QAU?$pair@$$CBKUDefenseList@ioDefenseController@@@1@@Z ; std::_Tree_val<std::_Tmap_traits<unsigned long,ioDefenseController::DefenseList,std::less<unsigned long>,std::allocator<std::pair<unsigned long const ,ioDefenseController::DefenseList> >,0> >::_Buynode<std::pair<unsigned long const ,ioDefenseController::DefenseList> >
  00010	50		 push	 eax
  00011	ff 75 08	 push	 DWORD PTR ___$ReturnUdt$[ebp]
  00014	8b ce		 mov	 ecx, esi
  00016	e8 00 00 00 00	 call	 ?_Linsert@?$_Tree@V?$_Tmap_traits@KUDefenseList@ioDefenseController@@U?$less@K@std@@V?$allocator@U?$pair@$$CBKUDefenseList@ioDefenseController@@@std@@@4@$0A@@std@@@std@@QAE?AU?$pair@V?$_Tree_iterator@V?$_Tree_val@V?$_Tmap_traits@KUDefenseList@ioDefenseController@@U?$less@K@std@@V?$allocator@U?$pair@$$CBKUDefenseList@ioDefenseController@@@std@@@4@$0A@@std@@@std@@@std@@_N@2@PAU_Node@?$_Tree_nod@V?$_Tmap_traits@KUDefenseList@ioDefenseController@@U?$less@K@std@@V?$allocator@U?$pair@$$CBKUDefenseList@ioDefenseController@@@std@@@4@$0A@@std@@@2@_N@Z ; std::_Tree<std::_Tmap_traits<unsigned long,ioDefenseController::DefenseList,std::less<unsigned long>,std::allocator<std::pair<unsigned long const ,ioDefenseController::DefenseList> >,0> >::_Linsert
  0001b	8b 45 08	 mov	 eax, DWORD PTR ___$ReturnUdt$[ebp]
  0001e	5e		 pop	 esi

; 757  : 		}

  0001f	5d		 pop	 ebp
  00020	c2 08 00	 ret	 8
??$insert@U?$pair@$$CBKUDefenseList@ioDefenseController@@@std@@@?$_Tree@V?$_Tmap_traits@KUDefenseList@ioDefenseController@@U?$less@K@std@@V?$allocator@U?$pair@$$CBKUDefenseList@ioDefenseController@@@std@@@4@$0A@@std@@@std@@QAE?AU?$pair@V?$_Tree_iterator@V?$_Tree_val@V?$_Tmap_traits@KUDefenseList@ioDefenseController@@U?$less@K@std@@V?$allocator@U?$pair@$$CBKUDefenseList@ioDefenseController@@@std@@@4@$0A@@std@@@std@@@std@@_N@1@$$QAU?$pair@$$CBKUDefenseList@ioDefenseController@@@1@@Z ENDP ; std::_Tree<std::_Tmap_traits<unsigned long,ioDefenseController::DefenseList,std::less<unsigned long>,std::allocator<std::pair<unsigned long const ,ioDefenseController::DefenseList> >,0> >::insert<std::pair<unsigned long const ,ioDefenseController::DefenseList> >
_TEXT	ENDS
PUBLIC	??_C@_01LFCBOECM@?4?$AA@			; `string'
PUBLIC	??_C@_00CNPNBAHC@?$AA@				; `string'
PUBLIC	__real@4cbebc20
PUBLIC	_rkLoader$GSCopy$
PUBLIC	?LoadController@ioDefenseController@@QAEXAAVioINILoader@@@Z ; ioDefenseController::LoadController
EXTRN	__imp__atoi:PROC
EXTRN	__imp_?Split@ioStringConverter@@SAABV?$vector@V?$basic_string@DU?$char_traits@D@std@@V?$allocator@D@2@@std@@V?$allocator@V?$basic_string@DU?$char_traits@D@std@@V?$allocator@D@2@@std@@@2@@std@@ABV?$basic_string@DU?$char_traits@D@std@@V?$allocator@D@2@@3@0H@Z:PROC
EXTRN	__imp__sprintf:PROC
EXTRN	_memset:PROC
;	COMDAT ??_C@_01LFCBOECM@?4?$AA@
; File d:\lost saga for developer\youtube\tutorial\source\src\lsclient\iodefensecontroller.cpp
CONST	SEGMENT
??_C@_01LFCBOECM@?4?$AA@ DB '.', 00H			; `string'
CONST	ENDS
;	COMDAT ??_C@_00CNPNBAHC@?$AA@
CONST	SEGMENT
??_C@_00CNPNBAHC@?$AA@ DB 00H				; `string'
CONST	ENDS
;	COMDAT __real@4cbebc20
CONST	SEGMENT
__real@4cbebc20 DD 04cbebc20r			; 1e+008
CONST	ENDS
;	COMDAT xdata$x
xdata$x	SEGMENT
__ehfuncinfo$?LoadController@ioDefenseController@@QAEXAAVioINILoader@@@Z DD 019930522H
	DD	07H
	DD	FLAT:__unwindtable$?LoadController@ioDefenseController@@QAEXAAVioINILoader@@@Z
	DD	2 DUP(00H)
	DD	2 DUP(00H)
	DD	00H
	DD	01H
__unwindtable$?LoadController@ioDefenseController@@QAEXAAVioINILoader@@@Z DD 0ffffffffH
	DD	FLAT:__unwindfunclet$?LoadController@ioDefenseController@@QAEXAAVioINILoader@@@Z$0
	DD	00H
	DD	FLAT:__unwindfunclet$?LoadController@ioDefenseController@@QAEXAAVioINILoader@@@Z$1
	DD	01H
	DD	FLAT:__unwindfunclet$?LoadController@ioDefenseController@@QAEXAAVioINILoader@@@Z$2
	DD	02H
	DD	FLAT:__unwindfunclet$?LoadController@ioDefenseController@@QAEXAAVioINILoader@@@Z$3
	DD	01H
	DD	FLAT:__unwindfunclet$?LoadController@ioDefenseController@@QAEXAAVioINILoader@@@Z$3
	DD	00H
	DD	FLAT:__unwindfunclet$?LoadController@ioDefenseController@@QAEXAAVioINILoader@@@Z$3
	DD	00H
	DD	FLAT:__unwindfunclet$?LoadController@ioDefenseController@@QAEXAAVioINILoader@@@Z$4
; Function compile flags: /Ogsp
xdata$x	ENDS
;	COMDAT ?LoadController@ioDefenseController@@QAEXAAVioINILoader@@@Z
_TEXT	SEGMENT
$T545905 = -804						; size = 8
$T547139 = -796						; size = 4
_kDefenseList$532977 = -792				; size = 44
_kData$533170 = -748					; size = 8
tv5563 = -740						; size = 4
$T547359 = -736						; size = 4
tv9392 = -732						; size = 4
tv8033 = -728						; size = 4
tv1080 = -728						; size = 4
$T545902 = -728						; size = 4
_rkLoader$GSCopy$ = -724				; size = 4
$T545903 = -720						; size = 48
$T533006 = -700						; size = 28
$T533007 = -672						; size = 28
__k$546521 = -668					; size = 17
__t$545939 = -668					; size = 18
__k$546684 = -664					; size = 15
_szBuf$532989 = -644					; size = 260
_szKey$532823 = -384					; size = 260
___encStr$533174 = -124					; size = 6
___encStr$533326 = -112					; size = 12
__k$546396 = -96					; size = 12
__k$546271 = -80					; size = 12
___encStr$532827 = -64					; size = 10
__k$547180 = -48					; size = 7
__k$546064 = -36					; size = 14
_vStringVector$533005 = -36				; size = 16
__$EHRec$ = -12						; size = 12
_rkLoader$ = 8						; size = 4
?LoadController@ioDefenseController@@QAEXAAVioINILoader@@@Z PROC ; ioDefenseController::LoadController, COMDAT
; _this$ = ecx

; 26   : {

  00000	68 18 03 00 00	 push	 792			; 00000318H
  00005	b8 00 00 00 00	 mov	 eax, __ehhandler$?LoadController@ioDefenseController@@QAEXAAVioINILoader@@@Z
  0000a	e8 00 00 00 00	 call	 __EH_prolog3_GS
  0000f	8b 7d 08	 mov	 edi, DWORD PTR _rkLoader$[ebp]

; 27   : 	rkLoader.SetTitle_e( "DefenseController" );

  00012	6a 04		 push	 4
  00014	8b f1		 mov	 esi, ecx

; 63   : 			sprintf_e( szKey, "Key%d_Delay", j + 1 );

  00016	89 bd 2c fd ff
	ff		 mov	 DWORD PTR _rkLoader$GSCopy$[ebp], edi
  0001c	c7 85 64 fd ff
	ff a9 89 8d 8f	 mov	 DWORD PTR __t$545939[ebp], -1886549591 ; 8f8d89a9H
  00026	c7 85 68 fd ff
	ff 83 9f 8e a9	 mov	 DWORD PTR __t$545939[ebp+4], -1450270845 ; a98e9f83H
  00030	c7 85 6c fd ff
	ff 82 82 9f 98	 mov	 DWORD PTR __t$545939[ebp+8], -1734376830 ; 989f8282H
  0003a	c7 85 70 fd ff
	ff 82 80 87 8f	 mov	 DWORD PTR __t$545939[ebp+12], -1886945150 ; 8f878082H
  00044	8d 85 64 fd ff
	ff		 lea	 eax, DWORD PTR __t$545939[ebp]
  0004a	33 db		 xor	 ebx, ebx
  0004c	66 c7 85 74 fd
	ff ff 9f 00	 mov	 WORD PTR __t$545939[ebp+16], 159 ; 0000009fH
  00055	59		 pop	 ecx
$LL419@LoadContro:

; 27   : 	rkLoader.SetTitle_e( "DefenseController" );

  00056	81 30 ed ec eb
	ea		 xor	 DWORD PTR [eax], -353637139 ; eaebecedH
  0005c	83 c0 04	 add	 eax, 4
  0005f	49		 dec	 ecx
  00060	75 f4		 jne	 SHORT $LL419@LoadContro
  00062	80 b5 74 fd ff
	ff ed		 xor	 BYTE PTR __t$545939[ebp+16], -19 ; ffffffedH
  00069	8d 85 64 fd ff
	ff		 lea	 eax, DWORD PTR __t$545939[ebp]
  0006f	50		 push	 eax
  00070	8b cf		 mov	 ecx, edi
  00072	ff 15 00 00 00
	00		 call	 DWORD PTR __imp_?SetTitle@ioINILoader@@QAEXPBD@Z
  00078	6a 03		 push	 3

; 28   : 	int iMaxController = rkLoader.LoadInt_e( "MaxController", 0 );

  0007a	c7 45 dc a0 8d
	93 a9		 mov	 DWORD PTR __k$546064[ebp], -1449947744 ; a9938da0H
  00081	c7 45 e0 82 82
	9f 98		 mov	 DWORD PTR __k$546064[ebp+4], -1734376830 ; 989f8282H
  00088	c7 45 e4 82 80
	87 8f		 mov	 DWORD PTR __k$546064[ebp+8], -1886945150 ; 8f878082H
  0008f	8d 45 dc	 lea	 eax, DWORD PTR __k$546064[ebp]
  00092	66 c7 45 e8 9f
	00		 mov	 WORD PTR __k$546064[ebp+12], 159 ; 0000009fH
  00098	59		 pop	 ecx
$LL525@LoadContro:
  00099	81 30 ed ec eb
	ea		 xor	 DWORD PTR [eax], -353637139 ; eaebecedH
  0009f	83 c0 04	 add	 eax, 4
  000a2	49		 dec	 ecx
  000a3	75 f4		 jne	 SHORT $LL525@LoadContro
  000a5	80 75 e8 ed	 xor	 BYTE PTR __k$546064[ebp+12], -19 ; ffffffedH
  000a9	53		 push	 ebx
  000aa	8d 45 dc	 lea	 eax, DWORD PTR __k$546064[ebp]
  000ad	50		 push	 eax
  000ae	8b cf		 mov	 ecx, edi
  000b0	ff 15 00 00 00
	00		 call	 DWORD PTR __imp_?LoadInt@ioINILoader@@QAEHPBDH@Z

; 29   : 	for(int i = 0;i < iMaxController;i++)

  000b6	3b c3		 cmp	 eax, ebx
  000b8	0f 8e 5f 05 00
	00		 jle	 $LN306@LoadContro

; 28   : 	int iMaxController = rkLoader.LoadInt_e( "MaxController", 0 );

  000be	83 c6 04	 add	 esi, 4
  000c1	89 b5 20 fd ff
	ff		 mov	 DWORD PTR $T547359[ebp], esi
  000c7	c7 85 24 fd ff
	ff 01 00 00 00	 mov	 DWORD PTR tv9392[ebp], 1
  000d1	89 85 1c fd ff
	ff		 mov	 DWORD PTR tv5563[ebp], eax
$LN308@LoadContro:

; 30   : 	{
; 31   : 		char szKey[MAX_PATH] = "";

  000d7	bf 03 01 00 00	 mov	 edi, 259		; 00000103H
  000dc	57		 push	 edi
  000dd	8d 85 81 fe ff
	ff		 lea	 eax, DWORD PTR _szKey$532823[ebp+1]
  000e3	53		 push	 ebx
  000e4	50		 push	 eax
  000e5	88 9d 80 fe ff
	ff		 mov	 BYTE PTR _szKey$532823[ebp], bl
  000eb	e8 00 00 00 00	 call	 _memset
  000f0	83 c4 0c	 add	 esp, 12			; 0000000cH
  000f3	6a 02		 push	 2

; 32   : 		sprintf_e( szKey, "Defense%d", i + 1 );

  000f5	c7 45 c0 a9 89
	8d 8f		 mov	 DWORD PTR ___encStr$532827[ebp], -1886549591 ; 8f8d89a9H
  000fc	c7 45 c4 83 9f
	8e cf		 mov	 DWORD PTR ___encStr$532827[ebp+4], -812736637 ; cf8e9f83H
  00103	8d 45 c0	 lea	 eax, DWORD PTR ___encStr$532827[ebp]
  00106	66 c7 45 c8 89
	00		 mov	 WORD PTR ___encStr$532827[ebp+8], 137 ; 00000089H
  0010c	59		 pop	 ecx
$LL533@LoadContro:
  0010d	81 30 ed ec eb
	ea		 xor	 DWORD PTR [eax], -353637139 ; eaebecedH
  00113	83 c0 04	 add	 eax, 4
  00116	49		 dec	 ecx
  00117	75 f4		 jne	 SHORT $LL533@LoadContro
  00119	ff b5 24 fd ff
	ff		 push	 DWORD PTR tv9392[ebp]
  0011f	80 75 c8 ed	 xor	 BYTE PTR ___encStr$532827[ebp+8], -19 ; ffffffedH
  00123	8d 45 c0	 lea	 eax, DWORD PTR ___encStr$532827[ebp]
  00126	50		 push	 eax
  00127	8d 85 80 fe ff
	ff		 lea	 eax, DWORD PTR _szKey$532823[ebp]
  0012d	50		 push	 eax
  0012e	ff 15 00 00 00
	00		 call	 DWORD PTR __imp__sprintf

; 33   : 		rkLoader.SetTitle( szKey );

  00134	8b 8d 2c fd ff
	ff		 mov	 ecx, DWORD PTR _rkLoader$GSCopy$[ebp]
  0013a	83 c4 0c	 add	 esp, 12			; 0000000cH
  0013d	8d 85 80 fe ff
	ff		 lea	 eax, DWORD PTR _szKey$532823[ebp]
  00143	50		 push	 eax
  00144	ff 15 00 00 00
	00		 call	 DWORD PTR __imp_?SetTitle@ioINILoader@@QAEXPBD@Z

; 34   : 
; 35   : 		DefenseList kDefenseList;

  0014a	0f 57 c0	 xorps	 xmm0, xmm0
  0014d	89 9d e8 fc ff
	ff		 mov	 DWORD PTR _kDefenseList$532977[ebp], ebx
  00153	89 9d ec fc ff
	ff		 mov	 DWORD PTR _kDefenseList$532977[ebp+4], ebx
  00159	89 9d f0 fc ff
	ff		 mov	 DWORD PTR _kDefenseList$532977[ebp+8], ebx
  0015f	89 9d f8 fc ff
	ff		 mov	 DWORD PTR _kDefenseList$532977[ebp+16], ebx
  00165	89 9d fc fc ff
	ff		 mov	 DWORD PTR _kDefenseList$532977[ebp+20], ebx
  0016b	89 9d 00 fd ff
	ff		 mov	 DWORD PTR _kDefenseList$532977[ebp+24], ebx
  00171	f3 0f 11 85 10
	fd ff ff	 movss	 DWORD PTR _kDefenseList$532977[ebp+40], xmm0
  00179	f3 0f 11 85 0c
	fd ff ff	 movss	 DWORD PTR _kDefenseList$532977[ebp+36], xmm0
  00181	f3 0f 11 85 08
	fd ff ff	 movss	 DWORD PTR _kDefenseList$532977[ebp+32], xmm0
  00189	6a 02		 push	 2
  0018b	89 5d fc	 mov	 DWORD PTR __$EHRec$[ebp+8], ebx

; 36   : 		kDefenseList.m_fDefenseRate		= rkLoader.LoadFloat_e( "DefenseRate", 0.0f );

  0018e	c7 45 b0 a9 89
	8d 8f		 mov	 DWORD PTR __k$546271[ebp], -1886549591 ; 8f8d89a9H
  00195	c7 45 b4 83 9f
	8e b8		 mov	 DWORD PTR __k$546271[ebp+4], -1198612605 ; b88e9f83H
  0019c	8d 45 b0	 lea	 eax, DWORD PTR __k$546271[ebp]
  0019f	c7 45 b8 8c 98
	8e 00		 mov	 DWORD PTR __k$546271[ebp+8], 9345164 ; 008e988cH
  001a6	59		 pop	 ecx
$LL657@LoadContro:
  001a7	81 30 ed ec eb
	ea		 xor	 DWORD PTR [eax], -353637139 ; eaebecedH
  001ad	83 c0 04	 add	 eax, 4
  001b0	49		 dec	 ecx
  001b1	75 f4		 jne	 SHORT $LL657@LoadContro
  001b3	6a 08		 push	 8
  001b5	5e		 pop	 esi
$LL654@LoadContro:
  001b6	8b c6		 mov	 eax, esi
  001b8	25 03 00 00 80	 and	 eax, -2147483645	; 80000003H
  001bd	79 05		 jns	 SHORT $LN1310@LoadContro
  001bf	48		 dec	 eax
  001c0	83 c8 fc	 or	 eax, -4			; fffffffcH
  001c3	40		 inc	 eax
$LN1310@LoadContro:
  001c4	b1 ed		 mov	 cl, -19			; ffffffedH
  001c6	2a c8		 sub	 cl, al
  001c8	30 4c 35 b0	 xor	 BYTE PTR __k$546271[ebp+esi], cl
  001cc	46		 inc	 esi
  001cd	83 fe 0b	 cmp	 esi, 11			; 0000000bH
  001d0	7c e4		 jl	 SHORT $LL654@LoadContro
  001d2	51		 push	 ecx
  001d3	8b 8d 2c fd ff
	ff		 mov	 ecx, DWORD PTR _rkLoader$GSCopy$[ebp]
  001d9	8d 45 b0	 lea	 eax, DWORD PTR __k$546271[ebp]
  001dc	f3 0f 11 04 24	 movss	 DWORD PTR [esp], xmm0
  001e1	50		 push	 eax
  001e2	ff 15 00 00 00
	00		 call	 DWORD PTR __imp_?LoadFloat@ioINILoader@@QAEMPBDM@Z
  001e8	d9 9d 08 fd ff
	ff		 fstp	 DWORD PTR _kDefenseList$532977[ebp+32]
  001ee	6a 02		 push	 2

; 37   : 		kDefenseList.m_fDefenseRange	= rkLoader.LoadFloat_e( "WeaponRange", 99999999.0f );

  001f0	c7 45 a0 ba 89
	8a 9a		 mov	 DWORD PTR __k$546396[ebp], -1702196806 ; 9a8a89baH
  001f7	c7 45 a4 82 82
	b9 8b		 mov	 DWORD PTR __k$546396[ebp+4], -1950776702 ; 8bb98282H
  001fe	8d 45 a0	 lea	 eax, DWORD PTR __k$546396[ebp]
  00201	c7 45 a8 83 8b
	8e 00		 mov	 DWORD PTR __k$546396[ebp+8], 9341827 ; 008e8b83H
  00208	59		 pop	 ecx
$LL763@LoadContro:
  00209	81 30 ed ec eb
	ea		 xor	 DWORD PTR [eax], -353637139 ; eaebecedH
  0020f	83 c0 04	 add	 eax, 4
  00212	49		 dec	 ecx
  00213	75 f4		 jne	 SHORT $LL763@LoadContro
  00215	6a 08		 push	 8
  00217	5e		 pop	 esi
$LL760@LoadContro:
  00218	8b c6		 mov	 eax, esi
  0021a	25 03 00 00 80	 and	 eax, -2147483645	; 80000003H
  0021f	79 05		 jns	 SHORT $LN1311@LoadContro
  00221	48		 dec	 eax
  00222	83 c8 fc	 or	 eax, -4			; fffffffcH
  00225	40		 inc	 eax
$LN1311@LoadContro:
  00226	b1 ed		 mov	 cl, -19			; ffffffedH
  00228	2a c8		 sub	 cl, al
  0022a	30 4c 35 a0	 xor	 BYTE PTR __k$546396[ebp+esi], cl
  0022e	46		 inc	 esi
  0022f	83 fe 0b	 cmp	 esi, 11			; 0000000bH
  00232	7c e4		 jl	 SHORT $LL760@LoadContro
  00234	f3 0f 10 05 00
	00 00 00	 movss	 xmm0, DWORD PTR __real@4cbebc20
  0023c	51		 push	 ecx
  0023d	8b 8d 2c fd ff
	ff		 mov	 ecx, DWORD PTR _rkLoader$GSCopy$[ebp]
  00243	8d 45 a0	 lea	 eax, DWORD PTR __k$546396[ebp]
  00246	f3 0f 11 04 24	 movss	 DWORD PTR [esp], xmm0
  0024b	50		 push	 eax
  0024c	ff 15 00 00 00
	00		 call	 DWORD PTR __imp_?LoadFloat@ioINILoader@@QAEMPBDM@Z
  00252	d9 9d 0c fd ff
	ff		 fstp	 DWORD PTR _kDefenseList$532977[ebp+36]
  00258	6a 04		 push	 4

; 38   : 		kDefenseList.m_fDefenseDirection= rkLoader.LoadFloat_e( "DefenseDirection", 0.0f );

  0025a	c7 85 64 fd ff
	ff a9 89 8d 8f	 mov	 DWORD PTR __k$546521[ebp], -1886549591 ; 8f8d89a9H
  00264	c7 85 68 fd ff
	ff 83 9f 8e ae	 mov	 DWORD PTR __k$546521[ebp+4], -1366384765 ; ae8e9f83H
  0026e	c7 85 6c fd ff
	ff 84 9e 8e 89	 mov	 DWORD PTR __k$546521[ebp+8], -1987142012 ; 898e9e84H
  00278	c7 85 70 fd ff
	ff 99 85 84 84	 mov	 DWORD PTR __k$546521[ebp+12], -2071689831 ; 84848599H
  00282	8d 85 64 fd ff
	ff		 lea	 eax, DWORD PTR __k$546521[ebp]
  00288	88 9d 74 fd ff
	ff		 mov	 BYTE PTR __k$546521[ebp+16], bl
  0028e	59		 pop	 ecx
$LL869@LoadContro:
  0028f	81 30 ed ec eb
	ea		 xor	 DWORD PTR [eax], -353637139 ; eaebecedH
  00295	83 c0 04	 add	 eax, 4
  00298	49		 dec	 ecx
  00299	75 f4		 jne	 SHORT $LL869@LoadContro
  0029b	0f 57 c0	 xorps	 xmm0, xmm0
  0029e	51		 push	 ecx
  0029f	8b 8d 2c fd ff
	ff		 mov	 ecx, DWORD PTR _rkLoader$GSCopy$[ebp]
  002a5	8d 85 64 fd ff
	ff		 lea	 eax, DWORD PTR __k$546521[ebp]
  002ab	f3 0f 11 04 24	 movss	 DWORD PTR [esp], xmm0
  002b0	50		 push	 eax
  002b1	ff 15 00 00 00
	00		 call	 DWORD PTR __imp_?LoadFloat@ioINILoader@@QAEMPBDM@Z
  002b7	d9 9d 10 fd ff
	ff		 fstp	 DWORD PTR _kDefenseList$532977[ebp+40]

; 39   : 
; 40   : 		char szBuf[MAX_PATH] = "";

  002bd	57		 push	 edi
  002be	8d 85 7d fd ff
	ff		 lea	 eax, DWORD PTR _szBuf$532989[ebp+1]
  002c4	53		 push	 ebx
  002c5	50		 push	 eax
  002c6	88 9d 7c fd ff
	ff		 mov	 BYTE PTR _szBuf$532989[ebp], bl
  002cc	e8 00 00 00 00	 call	 _memset
  002d1	83 c4 0c	 add	 esp, 12			; 0000000cH
  002d4	6a 03		 push	 3

; 41   : 		rkLoader.LoadString_e( "WeaponSkipList", "", szBuf, MAX_PATH );

  002d6	c7 85 68 fd ff
	ff ba 89 8a 9a	 mov	 DWORD PTR __k$546684[ebp], -1702196806 ; 9a8a89baH
  002e0	c7 85 6c fd ff
	ff 82 82 b8 81	 mov	 DWORD PTR __k$546684[ebp+4], -2118614398 ; 81b88282H
  002ea	c7 85 70 fd ff
	ff 84 9c a7 83	 mov	 DWORD PTR __k$546684[ebp+8], -2086167420 ; 83a79c84H
  002f4	66 c7 85 74 fd
	ff ff 9e 98	 mov	 WORD PTR __k$546684[ebp+12], 39070 ; 0000989eH
  002fd	8d 85 68 fd ff
	ff		 lea	 eax, DWORD PTR __k$546684[ebp]
  00303	88 9d 76 fd ff
	ff		 mov	 BYTE PTR __k$546684[ebp+14], bl
  00309	59		 pop	 ecx
$LL975@LoadContro:
  0030a	81 30 ed ec eb
	ea		 xor	 DWORD PTR [eax], -353637139 ; eaebecedH
  00310	83 c0 04	 add	 eax, 4
  00313	49		 dec	 ecx
  00314	75 f4		 jne	 SHORT $LL975@LoadContro
  00316	6a 0c		 push	 12			; 0000000cH
  00318	5e		 pop	 esi
$LL972@LoadContro:
  00319	8b c6		 mov	 eax, esi
  0031b	25 03 00 00 80	 and	 eax, -2147483645	; 80000003H
  00320	79 05		 jns	 SHORT $LN1312@LoadContro
  00322	48		 dec	 eax
  00323	83 c8 fc	 or	 eax, -4			; fffffffcH
  00326	40		 inc	 eax
$LN1312@LoadContro:
  00327	b1 ed		 mov	 cl, -19			; ffffffedH
  00329	2a c8		 sub	 cl, al
  0032b	30 8c 35 68 fd
	ff ff		 xor	 BYTE PTR __k$546684[ebp+esi], cl
  00332	46		 inc	 esi
  00333	83 fe 0e	 cmp	 esi, 14			; 0000000eH
  00336	7c e1		 jl	 SHORT $LL972@LoadContro
  00338	8b 8d 2c fd ff
	ff		 mov	 ecx, DWORD PTR _rkLoader$GSCopy$[ebp]
  0033e	68 04 01 00 00	 push	 260			; 00000104H
  00343	8d 85 7c fd ff
	ff		 lea	 eax, DWORD PTR _szBuf$532989[ebp]
  00349	50		 push	 eax
  0034a	68 00 00 00 00	 push	 OFFSET ??_C@_00CNPNBAHC@?$AA@
  0034f	8d 85 68 fd ff
	ff		 lea	 eax, DWORD PTR __k$546684[ebp]
  00355	50		 push	 eax
  00356	ff 15 00 00 00
	00		 call	 DWORD PTR __imp_?LoadStringA@ioINILoader@@QAEXPBD0PADH@Z

; 42   : 		if( strlen( szBuf ) > 0 )

  0035c	8d 85 7c fd ff
	ff		 lea	 eax, DWORD PTR _szBuf$532989[ebp]
  00362	8d 50 01	 lea	 edx, DWORD PTR [eax+1]
$LL1305@LoadContro:
  00365	8a 08		 mov	 cl, BYTE PTR [eax]
  00367	40		 inc	 eax
  00368	3a cb		 cmp	 cl, bl
  0036a	75 f9		 jne	 SHORT $LL1305@LoadContro
  0036c	2b c2		 sub	 eax, edx
  0036e	0f 84 05 01 00
	00		 je	 $LN1106@LoadContro

; 43   : 		{
; 44   : 			StringVector vStringVector = ioStringConverter::Split( szBuf, "." );

  00374	6a 0f		 push	 15			; 0000000fH
  00376	5e		 pop	 esi
  00377	6a 01		 push	 1
  00379	68 00 00 00 00	 push	 OFFSET ??_C@_01LFCBOECM@?4?$AA@
  0037e	8d 8d 44 fd ff
	ff		 lea	 ecx, DWORD PTR $T533006[ebp]
  00384	89 b5 58 fd ff
	ff		 mov	 DWORD PTR $T533006[ebp+20], esi
  0038a	89 9d 54 fd ff
	ff		 mov	 DWORD PTR $T533006[ebp+16], ebx
  00390	88 9d 44 fd ff
	ff		 mov	 BYTE PTR $T533006[ebp], bl
  00396	e8 00 00 00 00	 call	 ?assign@?$basic_string@DU?$char_traits@D@std@@V?$allocator@D@2@@std@@QAEAAV12@PBDI@Z ; std::basic_string<char,std::char_traits<char>,std::allocator<char> >::assign
  0039b	8d 85 7c fd ff
	ff		 lea	 eax, DWORD PTR _szBuf$532989[ebp]
  003a1	89 b5 74 fd ff
	ff		 mov	 DWORD PTR $T533007[ebp+20], esi
  003a7	c6 45 fc 01	 mov	 BYTE PTR __$EHRec$[ebp+8], 1
  003ab	89 9d 70 fd ff
	ff		 mov	 DWORD PTR $T533007[ebp+16], ebx
  003b1	88 9d 60 fd ff
	ff		 mov	 BYTE PTR $T533007[ebp], bl
  003b7	8d 70 01	 lea	 esi, DWORD PTR [eax+1]
$LL1306@LoadContro:
  003ba	8a 08		 mov	 cl, BYTE PTR [eax]
  003bc	40		 inc	 eax
  003bd	3a cb		 cmp	 cl, bl
  003bf	75 f9		 jne	 SHORT $LL1306@LoadContro
  003c1	2b c6		 sub	 eax, esi
  003c3	50		 push	 eax
  003c4	8d 85 7c fd ff
	ff		 lea	 eax, DWORD PTR _szBuf$532989[ebp]
  003ca	50		 push	 eax
  003cb	8d 8d 60 fd ff
	ff		 lea	 ecx, DWORD PTR $T533007[ebp]
  003d1	e8 00 00 00 00	 call	 ?assign@?$basic_string@DU?$char_traits@D@std@@V?$allocator@D@2@@std@@QAEAAV12@PBDI@Z ; std::basic_string<char,std::char_traits<char>,std::allocator<char> >::assign
  003d6	53		 push	 ebx
  003d7	8d 85 44 fd ff
	ff		 lea	 eax, DWORD PTR $T533006[ebp]
  003dd	50		 push	 eax
  003de	8d 85 60 fd ff
	ff		 lea	 eax, DWORD PTR $T533007[ebp]
  003e4	50		 push	 eax
  003e5	c6 45 fc 02	 mov	 BYTE PTR __$EHRec$[ebp+8], 2
  003e9	ff 15 00 00 00
	00		 call	 DWORD PTR __imp_?Split@ioStringConverter@@SAABV?$vector@V?$basic_string@DU?$char_traits@D@std@@V?$allocator@D@2@@std@@V?$allocator@V?$basic_string@DU?$char_traits@D@std@@V?$allocator@D@2@@std@@@2@@std@@ABV?$basic_string@DU?$char_traits@D@std@@V?$allocator@D@2@@3@0H@Z
  003ef	83 c4 0c	 add	 esp, 12			; 0000000cH
  003f2	50		 push	 eax
  003f3	8d 4d dc	 lea	 ecx, DWORD PTR _vStringVector$533005[ebp]
  003f6	e8 00 00 00 00	 call	 ??0?$vector@V?$basic_string@DU?$char_traits@D@std@@V?$allocator@D@2@@std@@V?$allocator@V?$basic_string@DU?$char_traits@D@std@@V?$allocator@D@2@@std@@@2@@std@@QAE@ABV01@@Z ; std::vector<std::basic_string<char,std::char_traits<char>,std::allocator<char> >,std::allocator<std::basic_string<char,std::char_traits<char>,std::allocator<char> > > >::vector<std::basic_string<char,std::char_traits<char>,std::allocator<char> >,std::allocator<std::basic_string<char,std::char_traits<char>,std::allocator<char> > > >
  003fb	53		 push	 ebx
  003fc	6a 01		 push	 1
  003fe	8d 8d 60 fd ff
	ff		 lea	 ecx, DWORD PTR $T533007[ebp]
  00404	e8 00 00 00 00	 call	 ?_Tidy@?$basic_string@DU?$char_traits@D@std@@V?$allocator@D@2@@std@@QAEX_NI@Z ; std::basic_string<char,std::char_traits<char>,std::allocator<char> >::_Tidy
  00409	53		 push	 ebx
  0040a	6a 01		 push	 1
  0040c	8d 8d 44 fd ff
	ff		 lea	 ecx, DWORD PTR $T533006[ebp]
  00412	c6 45 fc 05	 mov	 BYTE PTR __$EHRec$[ebp+8], 5
  00416	e8 00 00 00 00	 call	 ?_Tidy@?$basic_string@DU?$char_traits@D@std@@V?$allocator@D@2@@std@@QAEX_NI@Z ; std::basic_string<char,std::char_traits<char>,std::allocator<char> >::_Tidy

; 45   : 			StringVector::iterator iter;
; 46   : 			for( iter = vStringVector.begin() ; iter!=vStringVector.end() ; ++iter )

  0041b	8b 75 dc	 mov	 esi, DWORD PTR _vStringVector$533005[ebp]
  0041e	eb 34		 jmp	 SHORT $LN1315@LoadContro
$LL1060@LoadContro:

; 47   : 			{
; 48   : 				int iValue = atoi( iter->c_str() );

  00420	83 7e 14 10	 cmp	 DWORD PTR [esi+20], 16	; 00000010H
  00424	72 04		 jb	 SHORT $LN1086@LoadContro
  00426	8b 06		 mov	 eax, DWORD PTR [esi]
  00428	eb 02		 jmp	 SHORT $LN1087@LoadContro
$LN1086@LoadContro:
  0042a	8b c6		 mov	 eax, esi
$LN1087@LoadContro:
  0042c	50		 push	 eax
  0042d	ff 15 00 00 00
	00		 call	 DWORD PTR __imp__atoi
  00433	59		 pop	 ecx

; 49   : 				if( iValue == -1 ) continue;

  00434	83 f8 ff	 cmp	 eax, -1
  00437	74 18		 je	 SHORT $LN204@LoadContro

; 50   : 
; 51   : 				kDefenseList.m_WeaponSkipList.push_back( iValue );

  00439	89 85 28 fd ff
	ff		 mov	 DWORD PTR $T545902[ebp], eax
  0043f	8d 85 28 fd ff
	ff		 lea	 eax, DWORD PTR $T545902[ebp]
  00445	50		 push	 eax
  00446	8d 8d f8 fc ff
	ff		 lea	 ecx, DWORD PTR _kDefenseList$532977[ebp+16]
  0044c	e8 00 00 00 00	 call	 ?push_back@?$vector@KV?$allocator@K@std@@@std@@QAEXABK@Z ; std::vector<unsigned long,std::allocator<unsigned long> >::push_back
$LN204@LoadContro:

; 45   : 			StringVector::iterator iter;
; 46   : 			for( iter = vStringVector.begin() ; iter!=vStringVector.end() ; ++iter )

  00451	83 c6 1c	 add	 esi, 28			; 0000001cH
$LN1315@LoadContro:
  00454	3b 75 e0	 cmp	 esi, DWORD PTR _vStringVector$533005[ebp+4]
  00457	75 c7		 jne	 SHORT $LL1060@LoadContro

; 52   : 			}
; 53   : 			vStringVector.clear();

  00459	ff 75 e0	 push	 DWORD PTR _vStringVector$533005[ebp+4]
  0045c	8d 85 e4 fc ff
	ff		 lea	 eax, DWORD PTR $T547139[ebp]
  00462	ff 75 dc	 push	 DWORD PTR _vStringVector$533005[ebp]
  00465	8d 4d dc	 lea	 ecx, DWORD PTR _vStringVector$533005[ebp]
  00468	50		 push	 eax
  00469	e8 00 00 00 00	 call	 ?erase@?$vector@V?$basic_string@DU?$char_traits@D@std@@V?$allocator@D@2@@std@@V?$allocator@V?$basic_string@DU?$char_traits@D@std@@V?$allocator@D@2@@std@@@2@@std@@QAE?AV?$_Vector_iterator@V?$_Vector_val@V?$basic_string@DU?$char_traits@D@std@@V?$allocator@D@2@@std@@V?$allocator@V?$basic_string@DU?$char_traits@D@std@@V?$allocator@D@2@@std@@@2@@std@@@2@V?$_Vector_const_iterator@V?$_Vector_val@V?$basic_string@DU?$char_traits@D@std@@V?$allocator@D@2@@std@@V?$allocator@V?$basic_string@DU?$char_traits@D@std@@V?$allocator@D@2@@std@@@2@@std@@@2@0@Z ; std::vector<std::basic_string<char,std::char_traits<char>,std::allocator<char> >,std::allocator<std::basic_string<char,std::char_traits<char>,std::allocator<char> > > >::erase

; 54   : 		}

  0046e	8d 4d dc	 lea	 ecx, DWORD PTR _vStringVector$533005[ebp]
  00471	88 5d fc	 mov	 BYTE PTR __$EHRec$[ebp+8], bl
  00474	e8 00 00 00 00	 call	 ?_Tidy@?$vector@V?$basic_string@DU?$char_traits@D@std@@V?$allocator@D@2@@std@@V?$allocator@V?$basic_string@DU?$char_traits@D@std@@V?$allocator@D@2@@std@@@2@@std@@IAEXXZ ; std::vector<std::basic_string<char,std::char_traits<char>,std::allocator<char> >,std::allocator<std::basic_string<char,std::char_traits<char>,std::allocator<char> > > >::_Tidy
$LN1106@LoadContro:

; 55   : 
; 56   : 		int iMaxDefense = rkLoader.LoadInt_e( "MaxKey", 0 );

  00479	6a 04		 push	 4
  0047b	c7 45 d0 a0 8d
	93 a1		 mov	 DWORD PTR __k$547180[ebp], -1584165472 ; a1938da0H
  00482	81 75 d0 ed ec
	eb ea		 xor	 DWORD PTR __k$547180[ebp], -353637139 ; eaebecedH
  00489	66 c7 45 d4 88
	95		 mov	 WORD PTR __k$547180[ebp+4], 38280 ; 00009588H
  0048f	88 5d d6	 mov	 BYTE PTR __k$547180[ebp+6], bl
  00492	5e		 pop	 esi
$LL1210@LoadContro:
  00493	8b c6		 mov	 eax, esi
  00495	25 03 00 00 80	 and	 eax, -2147483645	; 80000003H
  0049a	79 05		 jns	 SHORT $LN1313@LoadContro
  0049c	48		 dec	 eax
  0049d	83 c8 fc	 or	 eax, -4			; fffffffcH
  004a0	40		 inc	 eax
$LN1313@LoadContro:
  004a1	b1 ed		 mov	 cl, -19			; ffffffedH
  004a3	2a c8		 sub	 cl, al
  004a5	30 4c 35 d0	 xor	 BYTE PTR __k$547180[ebp+esi], cl
  004a9	46		 inc	 esi
  004aa	83 fe 06	 cmp	 esi, 6
  004ad	7c e4		 jl	 SHORT $LL1210@LoadContro
  004af	8b 8d 2c fd ff
	ff		 mov	 ecx, DWORD PTR _rkLoader$GSCopy$[ebp]
  004b5	53		 push	 ebx
  004b6	8d 45 d0	 lea	 eax, DWORD PTR __k$547180[ebp]
  004b9	50		 push	 eax
  004ba	ff 15 00 00 00
	00		 call	 DWORD PTR __imp_?LoadInt@ioINILoader@@QAEHPBDH@Z

; 57   : 		for(int j = 0;j < iMaxDefense;j++)

  004c0	3b c3		 cmp	 eax, ebx
  004c2	0f 8e de 00 00
	00		 jle	 $LN199@LoadContro

; 55   : 
; 56   : 		int iMaxDefense = rkLoader.LoadInt_e( "MaxKey", 0 );

  004c8	33 ff		 xor	 edi, edi
  004ca	47		 inc	 edi
  004cb	89 85 28 fd ff
	ff		 mov	 DWORD PTR tv1080[ebp], eax
$LL201@LoadContro:

; 58   : 		{
; 59   : 			DefenseData kData;
; 60   : 
; 61   : 			sprintf_e( szKey, "Key%d", j + 1 );

  004d1	57		 push	 edi
  004d2	8d 45 84	 lea	 eax, DWORD PTR ___encStr$533174[ebp]
  004d5	50		 push	 eax
  004d6	8d 85 80 fe ff
	ff		 lea	 eax, DWORD PTR _szKey$532823[ebp]
  004dc	c7 45 84 a6 89
	92 cf		 mov	 DWORD PTR ___encStr$533174[ebp], -812480090 ; cf9289a6H
  004e3	be ed ec eb ea	 mov	 esi, -353637139		; eaebecedH
  004e8	31 75 84	 xor	 DWORD PTR ___encStr$533174[ebp], esi
  004eb	50		 push	 eax
  004ec	66 c7 45 88 64
	00		 mov	 WORD PTR ___encStr$533174[ebp+4], 100 ; 00000064H
  004f2	ff 15 00 00 00
	00		 call	 DWORD PTR __imp__sprintf

; 62   : 			kData.m_wKeyData  = rkLoader.LoadInt( szKey, 0 );

  004f8	8b 8d 2c fd ff
	ff		 mov	 ecx, DWORD PTR _rkLoader$GSCopy$[ebp]
  004fe	83 c4 0c	 add	 esp, 12			; 0000000cH
  00501	53		 push	 ebx
  00502	8d 85 80 fe ff
	ff		 lea	 eax, DWORD PTR _szKey$532823[ebp]
  00508	50		 push	 eax
  00509	ff 15 00 00 00
	00		 call	 DWORD PTR __imp_?LoadInt@ioINILoader@@QAEHPBDH@Z
  0050f	6a 02		 push	 2
  00511	66 89 85 14 fd
	ff ff		 mov	 WORD PTR _kData$533170[ebp], ax

; 63   : 			sprintf_e( szKey, "Key%d_Delay", j + 1 );

  00518	c7 45 90 a6 89
	92 cf		 mov	 DWORD PTR ___encStr$533326[ebp], -812480090 ; cf9289a6H
  0051f	c7 45 94 89 b3
	af 8f		 mov	 DWORD PTR ___encStr$533326[ebp+4], -1884310647 ; 8fafb389H
  00526	8d 45 90	 lea	 eax, DWORD PTR ___encStr$533326[ebp]
  00529	c7 45 98 81 8d
	92 00		 mov	 DWORD PTR ___encStr$533326[ebp+8], 9604481 ; 00928d81H
  00530	59		 pop	 ecx
$LL1231@LoadContro:
  00531	31 30		 xor	 DWORD PTR [eax], esi
  00533	83 c0 04	 add	 eax, 4
  00536	49		 dec	 ecx
  00537	75 f8		 jne	 SHORT $LL1231@LoadContro
  00539	6a 08		 push	 8
  0053b	5e		 pop	 esi
$LL1228@LoadContro:
  0053c	8b c6		 mov	 eax, esi
  0053e	25 03 00 00 80	 and	 eax, -2147483645	; 80000003H
  00543	79 05		 jns	 SHORT $LN1314@LoadContro
  00545	48		 dec	 eax
  00546	83 c8 fc	 or	 eax, -4			; fffffffcH
  00549	40		 inc	 eax
$LN1314@LoadContro:
  0054a	b1 ed		 mov	 cl, -19			; ffffffedH
  0054c	2a c8		 sub	 cl, al
  0054e	30 4c 35 90	 xor	 BYTE PTR ___encStr$533326[ebp+esi], cl
  00552	46		 inc	 esi
  00553	83 fe 0b	 cmp	 esi, 11			; 0000000bH
  00556	7c e4		 jl	 SHORT $LL1228@LoadContro
  00558	57		 push	 edi
  00559	8d 45 90	 lea	 eax, DWORD PTR ___encStr$533326[ebp]
  0055c	50		 push	 eax
  0055d	8d 85 80 fe ff
	ff		 lea	 eax, DWORD PTR _szKey$532823[ebp]
  00563	50		 push	 eax
  00564	ff 15 00 00 00
	00		 call	 DWORD PTR __imp__sprintf

; 64   : 			kData.m_dwDelayTime = rkLoader.LoadInt( szKey, 0 );

  0056a	8b 8d 2c fd ff
	ff		 mov	 ecx, DWORD PTR _rkLoader$GSCopy$[ebp]
  00570	83 c4 0c	 add	 esp, 12			; 0000000cH
  00573	53		 push	 ebx
  00574	8d 85 80 fe ff
	ff		 lea	 eax, DWORD PTR _szKey$532823[ebp]
  0057a	50		 push	 eax
  0057b	ff 15 00 00 00
	00		 call	 DWORD PTR __imp_?LoadInt@ioINILoader@@QAEHPBDH@Z
  00581	89 85 18 fd ff
	ff		 mov	 DWORD PTR _kData$533170[ebp+4], eax

; 65   : 
; 66   : 			kDefenseList.m_Defense.push_back( kData );

  00587	8d 85 14 fd ff
	ff		 lea	 eax, DWORD PTR _kData$533170[ebp]
  0058d	50		 push	 eax
  0058e	8d 8d e8 fc ff
	ff		 lea	 ecx, DWORD PTR _kDefenseList$532977[ebp]
  00594	e8 00 00 00 00	 call	 ?push_back@?$vector@UDefenseData@ioDefenseController@@V?$allocator@UDefenseData@ioDefenseController@@@std@@@std@@QAEXABUDefenseData@ioDefenseController@@@Z ; std::vector<ioDefenseController::DefenseData,std::allocator<ioDefenseController::DefenseData> >::push_back
  00599	47		 inc	 edi
  0059a	ff 8d 28 fd ff
	ff		 dec	 DWORD PTR tv1080[ebp]
  005a0	0f 85 2b ff ff
	ff		 jne	 $LL201@LoadContro
$LN199@LoadContro:

; 67   : 		}
; 68   : 		m_DefenseMap.insert( DefenseMap::value_type( i + 1, kDefenseList ) );

  005a6	8b 85 24 fd ff
	ff		 mov	 eax, DWORD PTR tv9392[ebp]
  005ac	89 85 30 fd ff
	ff		 mov	 DWORD PTR $T545903[ebp], eax
  005b2	8d 85 e8 fc ff
	ff		 lea	 eax, DWORD PTR _kDefenseList$532977[ebp]
  005b8	50		 push	 eax
  005b9	8d 8d 34 fd ff
	ff		 lea	 ecx, DWORD PTR $T545903[ebp+4]
  005bf	e8 00 00 00 00	 call	 ??0DefenseList@ioDefenseController@@QAE@ABU01@@Z
  005c4	8b 8d 20 fd ff
	ff		 mov	 ecx, DWORD PTR $T547359[ebp]
  005ca	53		 push	 ebx
  005cb	8d 85 30 fd ff
	ff		 lea	 eax, DWORD PTR $T545903[ebp]
  005d1	50		 push	 eax
  005d2	c6 45 fc 06	 mov	 BYTE PTR __$EHRec$[ebp+8], 6
  005d6	e8 00 00 00 00	 call	 ??$_Buynode@U?$pair@$$CBKUDefenseList@ioDefenseController@@@std@@@?$_Tree_val@V?$_Tmap_traits@KUDefenseList@ioDefenseController@@U?$less@K@std@@V?$allocator@U?$pair@$$CBKUDefenseList@ioDefenseController@@@std@@@4@$0A@@std@@@std@@QAEPAU_Node@?$_Tree_nod@V?$_Tmap_traits@KUDefenseList@ioDefenseController@@U?$less@K@std@@V?$allocator@U?$pair@$$CBKUDefenseList@ioDefenseController@@@std@@@4@$0A@@std@@@1@$$QAU?$pair@$$CBKUDefenseList@ioDefenseController@@@1@@Z ; std::_Tree_val<std::_Tmap_traits<unsigned long,ioDefenseController::DefenseList,std::less<unsigned long>,std::allocator<std::pair<unsigned long const ,ioDefenseController::DefenseList> >,0> >::_Buynode<std::pair<unsigned long const ,ioDefenseController::DefenseList> >
  005db	8b 8d 20 fd ff
	ff		 mov	 ecx, DWORD PTR $T547359[ebp]
  005e1	50		 push	 eax
  005e2	8d 85 dc fc ff
	ff		 lea	 eax, DWORD PTR $T545905[ebp]
  005e8	50		 push	 eax
  005e9	e8 00 00 00 00	 call	 ?_Linsert@?$_Tree@V?$_Tmap_traits@KUDefenseList@ioDefenseController@@U?$less@K@std@@V?$allocator@U?$pair@$$CBKUDefenseList@ioDefenseController@@@std@@@4@$0A@@std@@@std@@QAE?AU?$pair@V?$_Tree_iterator@V?$_Tree_val@V?$_Tmap_traits@KUDefenseList@ioDefenseController@@U?$less@K@std@@V?$allocator@U?$pair@$$CBKUDefenseList@ioDefenseController@@@std@@@4@$0A@@std@@@std@@@std@@_N@2@PAU_Node@?$_Tree_nod@V?$_Tmap_traits@KUDefenseList@ioDefenseController@@U?$less@K@std@@V?$allocator@U?$pair@$$CBKUDefenseList@ioDefenseController@@@std@@@4@$0A@@std@@@2@_N@Z ; std::_Tree<std::_Tmap_traits<unsigned long,ioDefenseController::DefenseList,std::less<unsigned long>,std::allocator<std::pair<unsigned long const ,ioDefenseController::DefenseList> >,0> >::_Linsert
  005ee	8d 8d 34 fd ff
	ff		 lea	 ecx, DWORD PTR $T545903[ebp+4]
  005f4	88 5d fc	 mov	 BYTE PTR __$EHRec$[ebp+8], bl
  005f7	e8 00 00 00 00	 call	 ??1DefenseList@ioDefenseController@@QAE@XZ

; 69   : 	}

  005fc	83 4d fc ff	 or	 DWORD PTR __$EHRec$[ebp+8], -1
  00600	8d 8d e8 fc ff
	ff		 lea	 ecx, DWORD PTR _kDefenseList$532977[ebp]
  00606	e8 00 00 00 00	 call	 ??1DefenseList@ioDefenseController@@QAE@XZ
  0060b	ff 85 24 fd ff
	ff		 inc	 DWORD PTR tv9392[ebp]
  00611	ff 8d 1c fd ff
	ff		 dec	 DWORD PTR tv5563[ebp]
  00617	0f 85 ba fa ff
	ff		 jne	 $LN308@LoadContro
$LN306@LoadContro:

; 70   : }

  0061d	e8 00 00 00 00	 call	 __EH_epilog3_GS
  00622	c2 04 00	 ret	 4
_TEXT	ENDS
;	COMDAT text$x
text$x	SEGMENT
__unwindfunclet$?LoadController@ioDefenseController@@QAEXAAVioINILoader@@@Z$0:
  00000	8d 8d e8 fc ff
	ff		 lea	 ecx, DWORD PTR _kDefenseList$532977[ebp]
  00006	e9 00 00 00 00	 jmp	 ??1DefenseList@ioDefenseController@@QAE@XZ
__unwindfunclet$?LoadController@ioDefenseController@@QAEXAAVioINILoader@@@Z$1:
  0000b	8d 8d 44 fd ff
	ff		 lea	 ecx, DWORD PTR $T533006[ebp]
  00011	e9 00 00 00 00	 jmp	 ??1?$basic_string@DU?$char_traits@D@std@@V?$allocator@D@2@@std@@QAE@XZ ; std::basic_string<char,std::char_traits<char>,std::allocator<char> >::~basic_string<char,std::char_traits<char>,std::allocator<char> >
__unwindfunclet$?LoadController@ioDefenseController@@QAEXAAVioINILoader@@@Z$2:
  00016	8d 8d 60 fd ff
	ff		 lea	 ecx, DWORD PTR $T533007[ebp]
  0001c	e9 00 00 00 00	 jmp	 ??1?$basic_string@DU?$char_traits@D@std@@V?$allocator@D@2@@std@@QAE@XZ ; std::basic_string<char,std::char_traits<char>,std::allocator<char> >::~basic_string<char,std::char_traits<char>,std::allocator<char> >
__unwindfunclet$?LoadController@ioDefenseController@@QAEXAAVioINILoader@@@Z$3:
  00021	8d 4d dc	 lea	 ecx, DWORD PTR _vStringVector$533005[ebp]
  00024	e9 00 00 00 00	 jmp	 ??1?$vector@V?$basic_string@DU?$char_traits@D@std@@V?$allocator@D@2@@std@@V?$allocator@V?$basic_string@DU?$char_traits@D@std@@V?$allocator@D@2@@std@@@2@@std@@QAE@XZ ; std::vector<std::basic_string<char,std::char_traits<char>,std::allocator<char> >,std::allocator<std::basic_string<char,std::char_traits<char>,std::allocator<char> > > >::~vector<std::basic_string<char,std::char_traits<char>,std::allocator<char> >,std::allocator<std::basic_string<char,std::char_traits<char>,std::allocator<char> > > >
__unwindfunclet$?LoadController@ioDefenseController@@QAEXAAVioINILoader@@@Z$4:
  00029	8d 8d 30 fd ff
	ff		 lea	 ecx, DWORD PTR $T545903[ebp]
  0002f	e9 00 00 00 00	 jmp	 ??1?$pair@$$CBKUDefenseList@ioDefenseController@@@std@@QAE@XZ
__ehhandler$?LoadController@ioDefenseController@@QAEXAAVioINILoader@@@Z:
  00034	8b 54 24 08	 mov	 edx, DWORD PTR [esp+8]
  00038	8d 42 0c	 lea	 eax, DWORD PTR [edx+12]
  0003b	8b 8a d8 fc ff
	ff		 mov	 ecx, DWORD PTR [edx-808]
  00041	33 c8		 xor	 ecx, eax
  00043	e8 00 00 00 00	 call	 @__security_check_cookie@4
  00048	8b 4a fc	 mov	 ecx, DWORD PTR [edx-4]
  0004b	33 c8		 xor	 ecx, eax
  0004d	e8 00 00 00 00	 call	 @__security_check_cookie@4
  00052	b8 00 00 00 00	 mov	 eax, OFFSET __ehfuncinfo$?LoadController@ioDefenseController@@QAEXAAVioINILoader@@@Z
  00057	e9 00 00 00 00	 jmp	 ___CxxFrameHandler3
text$x	ENDS
?LoadController@ioDefenseController@@QAEXAAVioINILoader@@@Z ENDP ; ioDefenseController::LoadController
PUBLIC	?erase@?$_Tree@V?$_Tmap_traits@KUDefenseList@ioDefenseController@@U?$less@K@std@@V?$allocator@U?$pair@$$CBKUDefenseList@ioDefenseController@@@std@@@4@$0A@@std@@@std@@QAE?AV?$_Tree_iterator@V?$_Tree_val@V?$_Tmap_traits@KUDefenseList@ioDefenseController@@U?$less@K@std@@V?$allocator@U?$pair@$$CBKUDefenseList@ioDefenseController@@@std@@@4@$0A@@std@@@std@@@2@V?$_Tree_const_iterator@V?$_Tree_val@V?$_Tmap_traits@KUDefenseList@ioDefenseController@@U?$less@K@std@@V?$allocator@U?$pair@$$CBKUDefenseList@ioDefenseController@@@std@@@4@$0A@@std@@@std@@@2@0@Z ; std::_Tree<std::_Tmap_traits<unsigned long,ioDefenseController::DefenseList,std::less<unsigned long>,std::allocator<std::pair<unsigned long const ,ioDefenseController::DefenseList> >,0> >::erase
; Function compile flags: /Ogsp
; File c:\program files (x86)\microsoft visual studio 10.0\vc\include\xtree
;	COMDAT ?erase@?$_Tree@V?$_Tmap_traits@KUDefenseList@ioDefenseController@@U?$less@K@std@@V?$allocator@U?$pair@$$CBKUDefenseList@ioDefenseController@@@std@@@4@$0A@@std@@@std@@QAE?AV?$_Tree_iterator@V?$_Tree_val@V?$_Tmap_traits@KUDefenseList@ioDefenseController@@U?$less@K@std@@V?$allocator@U?$pair@$$CBKUDefenseList@ioDefenseController@@@std@@@4@$0A@@std@@@std@@@2@V?$_Tree_const_iterator@V?$_Tree_val@V?$_Tmap_traits@KUDefenseList@ioDefenseController@@U?$less@K@std@@V?$allocator@U?$pair@$$CBKUDefenseList@ioDefenseController@@@std@@@4@$0A@@std@@@std@@@2@0@Z
_TEXT	SEGMENT
$T547444 = -4						; size = 4
___$ReturnUdt$ = 8					; size = 4
__First$ = 12						; size = 4
__Last$ = 16						; size = 4
?erase@?$_Tree@V?$_Tmap_traits@KUDefenseList@ioDefenseController@@U?$less@K@std@@V?$allocator@U?$pair@$$CBKUDefenseList@ioDefenseController@@@std@@@4@$0A@@std@@@std@@QAE?AV?$_Tree_iterator@V?$_Tree_val@V?$_Tmap_traits@KUDefenseList@ioDefenseController@@U?$less@K@std@@V?$allocator@U?$pair@$$CBKUDefenseList@ioDefenseController@@@std@@@4@$0A@@std@@@std@@@2@V?$_Tree_const_iterator@V?$_Tree_val@V?$_Tmap_traits@KUDefenseList@ioDefenseController@@U?$less@K@std@@V?$allocator@U?$pair@$$CBKUDefenseList@ioDefenseController@@@std@@@4@$0A@@std@@@std@@@2@0@Z PROC ; std::_Tree<std::_Tmap_traits<unsigned long,ioDefenseController::DefenseList,std::less<unsigned long>,std::allocator<std::pair<unsigned long const ,ioDefenseController::DefenseList> >,0> >::erase, COMDAT
; _this$ = ecx

; 1379 : 		{	// erase [_First, _Last)

  00000	55		 push	 ebp
  00001	8b ec		 mov	 ebp, esp
  00003	51		 push	 ecx
  00004	56		 push	 esi
  00005	8b f1		 mov	 esi, ecx

; 1380 : 		if (_First == begin() && _Last == end())

  00007	8b 46 04	 mov	 eax, DWORD PTR [esi+4]
  0000a	8b 4d 0c	 mov	 ecx, DWORD PTR __First$[ebp]
  0000d	3b 08		 cmp	 ecx, DWORD PTR [eax]
  0000f	75 13		 jne	 SHORT $LN65@erase@5
  00011	39 45 10	 cmp	 DWORD PTR __Last$[ebp], eax
  00014	75 0e		 jne	 SHORT $LN65@erase@5

; 1381 : 			{	// erase all
; 1382 : 			clear();

  00016	8b ce		 mov	 ecx, esi
  00018	e8 00 00 00 00	 call	 ?clear@?$_Tree@V?$_Tmap_traits@KUDefenseList@ioDefenseController@@U?$less@K@std@@V?$allocator@U?$pair@$$CBKUDefenseList@ioDefenseController@@@std@@@4@$0A@@std@@@std@@QAEXXZ ; std::_Tree<std::_Tmap_traits<unsigned long,ioDefenseController::DefenseList,std::less<unsigned long>,std::allocator<std::pair<unsigned long const ,ioDefenseController::DefenseList> >,0> >::clear

; 1383 : 			return (begin());

  0001d	8b 46 04	 mov	 eax, DWORD PTR [esi+4]
  00020	8b 08		 mov	 ecx, DWORD PTR [eax]
  00022	eb 25		 jmp	 SHORT $LN1@erase@5
$LN65@erase@5:

; 1384 : 			}
; 1385 : 		else
; 1386 : 			{	// partial erase, one at a time
; 1387 : 			while (_First != _Last)

  00024	3b 4d 10	 cmp	 ecx, DWORD PTR __Last$[ebp]
  00027	74 20		 je	 SHORT $LN1@erase@5
  00029	57		 push	 edi
$LL2@erase@5:

; 1388 : 				erase(_First++);

  0002a	8b f9		 mov	 edi, ecx
  0002c	8d 4d 0c	 lea	 ecx, DWORD PTR __First$[ebp]
  0002f	e8 00 00 00 00	 call	 ??E?$_Tree_unchecked_const_iterator@V?$_Tree_val@V?$_Tmap_traits@KUDefenseList@ioDefenseController@@U?$less@K@std@@V?$allocator@U?$pair@$$CBKUDefenseList@ioDefenseController@@@std@@@4@$0A@@std@@@std@@U_Iterator_base0@2@@std@@QAEAAV01@XZ ; std::_Tree_unchecked_const_iterator<std::_Tree_val<std::_Tmap_traits<unsigned long,ioDefenseController::DefenseList,std::less<unsigned long>,std::allocator<std::pair<unsigned long const ,ioDefenseController::DefenseList> >,0> >,std::_Iterator_base0>::operator++
  00034	57		 push	 edi
  00035	8d 45 fc	 lea	 eax, DWORD PTR $T547444[ebp]
  00038	50		 push	 eax
  00039	8b ce		 mov	 ecx, esi
  0003b	e8 00 00 00 00	 call	 ?erase@?$_Tree@V?$_Tmap_traits@KUDefenseList@ioDefenseController@@U?$less@K@std@@V?$allocator@U?$pair@$$CBKUDefenseList@ioDefenseController@@@std@@@4@$0A@@std@@@std@@QAE?AV?$_Tree_iterator@V?$_Tree_val@V?$_Tmap_traits@KUDefenseList@ioDefenseController@@U?$less@K@std@@V?$allocator@U?$pair@$$CBKUDefenseList@ioDefenseController@@@std@@@4@$0A@@std@@@std@@@2@V?$_Tree_const_iterator@V?$_Tree_val@V?$_Tmap_traits@KUDefenseList@ioDefenseController@@U?$less@K@std@@V?$allocator@U?$pair@$$CBKUDefenseList@ioDefenseController@@@std@@@4@$0A@@std@@@std@@@2@@Z ; std::_Tree<std::_Tmap_traits<unsigned long,ioDefenseController::DefenseList,std::less<unsigned long>,std::allocator<std::pair<unsigned long const ,ioDefenseController::DefenseList> >,0> >::erase
  00040	8b 4d 0c	 mov	 ecx, DWORD PTR __First$[ebp]
  00043	3b 4d 10	 cmp	 ecx, DWORD PTR __Last$[ebp]
  00046	75 e2		 jne	 SHORT $LL2@erase@5
  00048	5f		 pop	 edi
$LN1@erase@5:

; 1389 : 			return (iterator(_First._Ptr, this));

  00049	8b 45 08	 mov	 eax, DWORD PTR ___$ReturnUdt$[ebp]
  0004c	89 08		 mov	 DWORD PTR [eax], ecx
  0004e	5e		 pop	 esi

; 1390 : 			}
; 1391 : 		}

  0004f	c9		 leave
  00050	c2 0c 00	 ret	 12			; 0000000cH
?erase@?$_Tree@V?$_Tmap_traits@KUDefenseList@ioDefenseController@@U?$less@K@std@@V?$allocator@U?$pair@$$CBKUDefenseList@ioDefenseController@@@std@@@4@$0A@@std@@@std@@QAE?AV?$_Tree_iterator@V?$_Tree_val@V?$_Tmap_traits@KUDefenseList@ioDefenseController@@U?$less@K@std@@V?$allocator@U?$pair@$$CBKUDefenseList@ioDefenseController@@@std@@@4@$0A@@std@@@std@@@2@V?$_Tree_const_iterator@V?$_Tree_val@V?$_Tmap_traits@KUDefenseList@ioDefenseController@@U?$less@K@std@@V?$allocator@U?$pair@$$CBKUDefenseList@ioDefenseController@@@std@@@4@$0A@@std@@@std@@@2@0@Z ENDP ; std::_Tree<std::_Tmap_traits<unsigned long,ioDefenseController::DefenseList,std::less<unsigned long>,std::allocator<std::pair<unsigned long const ,ioDefenseController::DefenseList> >,0> >::erase
_TEXT	ENDS
PUBLIC	?_Tidy@?$_Tree@V?$_Tmap_traits@KUDefenseList@ioDefenseController@@U?$less@K@std@@V?$allocator@U?$pair@$$CBKUDefenseList@ioDefenseController@@@std@@@4@$0A@@std@@@std@@IAEXXZ ; std::_Tree<std::_Tmap_traits<unsigned long,ioDefenseController::DefenseList,std::less<unsigned long>,std::allocator<std::pair<unsigned long const ,ioDefenseController::DefenseList> >,0> >::_Tidy
; Function compile flags: /Ogsp
;	COMDAT ?_Tidy@?$_Tree@V?$_Tmap_traits@KUDefenseList@ioDefenseController@@U?$less@K@std@@V?$allocator@U?$pair@$$CBKUDefenseList@ioDefenseController@@@std@@@4@$0A@@std@@@std@@IAEXXZ
_TEXT	SEGMENT
$T547635 = -4						; size = 4
?_Tidy@?$_Tree@V?$_Tmap_traits@KUDefenseList@ioDefenseController@@U?$less@K@std@@V?$allocator@U?$pair@$$CBKUDefenseList@ioDefenseController@@@std@@@4@$0A@@std@@@std@@IAEXXZ PROC ; std::_Tree<std::_Tmap_traits<unsigned long,ioDefenseController::DefenseList,std::less<unsigned long>,std::allocator<std::pair<unsigned long const ,ioDefenseController::DefenseList> >,0> >::_Tidy, COMDAT
; _this$ = ecx

; 1865 : 		{	// free all storage

  00000	55		 push	 ebp
  00001	8b ec		 mov	 ebp, esp
  00003	51		 push	 ecx

; 1866 : 		erase(begin(), end());

  00004	8b 41 04	 mov	 eax, DWORD PTR [ecx+4]
  00007	8b 10		 mov	 edx, DWORD PTR [eax]
  00009	50		 push	 eax
  0000a	52		 push	 edx
  0000b	8d 45 fc	 lea	 eax, DWORD PTR $T547635[ebp]
  0000e	50		 push	 eax
  0000f	e8 00 00 00 00	 call	 ?erase@?$_Tree@V?$_Tmap_traits@KUDefenseList@ioDefenseController@@U?$less@K@std@@V?$allocator@U?$pair@$$CBKUDefenseList@ioDefenseController@@@std@@@4@$0A@@std@@@std@@QAE?AV?$_Tree_iterator@V?$_Tree_val@V?$_Tmap_traits@KUDefenseList@ioDefenseController@@U?$less@K@std@@V?$allocator@U?$pair@$$CBKUDefenseList@ioDefenseController@@@std@@@4@$0A@@std@@@std@@@2@V?$_Tree_const_iterator@V?$_Tree_val@V?$_Tmap_traits@KUDefenseList@ioDefenseController@@U?$less@K@std@@V?$allocator@U?$pair@$$CBKUDefenseList@ioDefenseController@@@std@@@4@$0A@@std@@@std@@@2@0@Z ; std::_Tree<std::_Tmap_traits<unsigned long,ioDefenseController::DefenseList,std::less<unsigned long>,std::allocator<std::pair<unsigned long const ,ioDefenseController::DefenseList> >,0> >::erase

; 1867 : 		}

  00014	c9		 leave
  00015	c3		 ret	 0
?_Tidy@?$_Tree@V?$_Tmap_traits@KUDefenseList@ioDefenseController@@U?$less@K@std@@V?$allocator@U?$pair@$$CBKUDefenseList@ioDefenseController@@@std@@@4@$0A@@std@@@std@@IAEXXZ ENDP ; std::_Tree<std::_Tmap_traits<unsigned long,ioDefenseController::DefenseList,std::less<unsigned long>,std::allocator<std::pair<unsigned long const ,ioDefenseController::DefenseList> >,0> >::_Tidy
_TEXT	ENDS
PUBLIC	??1?$_Tree@V?$_Tmap_traits@KUDefenseList@ioDefenseController@@U?$less@K@std@@V?$allocator@U?$pair@$$CBKUDefenseList@ioDefenseController@@@std@@@4@$0A@@std@@@std@@QAE@XZ ; std::_Tree<std::_Tmap_traits<unsigned long,ioDefenseController::DefenseList,std::less<unsigned long>,std::allocator<std::pair<unsigned long const ,ioDefenseController::DefenseList> >,0> >::~_Tree<std::_Tmap_traits<unsigned long,ioDefenseController::DefenseList,std::less<unsigned long>,std::allocator<std::pair<unsigned long const ,ioDefenseController::DefenseList> >,0> >
;	COMDAT xdata$x
; File c:\program files (x86)\microsoft visual studio 10.0\vc\include\xmemory
xdata$x	SEGMENT
__unwindtable$??1?$_Tree@V?$_Tmap_traits@KUDefenseList@ioDefenseController@@U?$less@K@std@@V?$allocator@U?$pair@$$CBKUDefenseList@ioDefenseController@@@std@@@4@$0A@@std@@@std@@QAE@XZ DD 0ffffffffH
	DD	FLAT:__unwindfunclet$??1?$_Tree@V?$_Tmap_traits@KUDefenseList@ioDefenseController@@U?$less@K@std@@V?$allocator@U?$pair@$$CBKUDefenseList@ioDefenseController@@@std@@@4@$0A@@std@@@std@@QAE@XZ$0
__ehfuncinfo$??1?$_Tree@V?$_Tmap_traits@KUDefenseList@ioDefenseController@@U?$less@K@std@@V?$allocator@U?$pair@$$CBKUDefenseList@ioDefenseController@@@std@@@4@$0A@@std@@@std@@QAE@XZ DD 019930522H
	DD	01H
	DD	FLAT:__unwindtable$??1?$_Tree@V?$_Tmap_traits@KUDefenseList@ioDefenseController@@U?$less@K@std@@V?$allocator@U?$pair@$$CBKUDefenseList@ioDefenseController@@@std@@@4@$0A@@std@@@std@@QAE@XZ
	DD	2 DUP(00H)
	DD	2 DUP(00H)
	DD	00H
	DD	01H
; Function compile flags: /Ogsp
; File c:\program files (x86)\microsoft visual studio 10.0\vc\include\xtree
xdata$x	ENDS
;	COMDAT ??1?$_Tree@V?$_Tmap_traits@KUDefenseList@ioDefenseController@@U?$less@K@std@@V?$allocator@U?$pair@$$CBKUDefenseList@ioDefenseController@@@std@@@4@$0A@@std@@@std@@QAE@XZ
_TEXT	SEGMENT
$T547820 = -20						; size = 4
_this$ = -16						; size = 4
__$EHRec$ = -12						; size = 12
??1?$_Tree@V?$_Tmap_traits@KUDefenseList@ioDefenseController@@U?$less@K@std@@V?$allocator@U?$pair@$$CBKUDefenseList@ioDefenseController@@@std@@@4@$0A@@std@@@std@@QAE@XZ PROC ; std::_Tree<std::_Tmap_traits<unsigned long,ioDefenseController::DefenseList,std::less<unsigned long>,std::allocator<std::pair<unsigned long const ,ioDefenseController::DefenseList> >,0> >::~_Tree<std::_Tmap_traits<unsigned long,ioDefenseController::DefenseList,std::less<unsigned long>,std::allocator<std::pair<unsigned long const ,ioDefenseController::DefenseList> >,0> >, COMDAT
; _this$ = ecx

; 790  : 		{	// destroy tree

  00000	6a 08		 push	 8
  00002	b8 00 00 00 00	 mov	 eax, __ehhandler$??1?$_Tree@V?$_Tmap_traits@KUDefenseList@ioDefenseController@@U?$less@K@std@@V?$allocator@U?$pair@$$CBKUDefenseList@ioDefenseController@@@std@@@4@$0A@@std@@@std@@QAE@XZ
  00007	e8 00 00 00 00	 call	 __EH_prolog3
  0000c	8b f1		 mov	 esi, ecx
  0000e	89 75 f0	 mov	 DWORD PTR _this$[ebp], esi

; 791  : 		_Tidy();

  00011	8b 46 04	 mov	 eax, DWORD PTR [esi+4]
  00014	8b 08		 mov	 ecx, DWORD PTR [eax]
  00016	83 65 fc 00	 and	 DWORD PTR __$EHRec$[ebp+8], 0
  0001a	50		 push	 eax
  0001b	51		 push	 ecx
  0001c	8d 45 ec	 lea	 eax, DWORD PTR $T547820[ebp]
  0001f	50		 push	 eax
  00020	8b ce		 mov	 ecx, esi
  00022	e8 00 00 00 00	 call	 ?erase@?$_Tree@V?$_Tmap_traits@KUDefenseList@ioDefenseController@@U?$less@K@std@@V?$allocator@U?$pair@$$CBKUDefenseList@ioDefenseController@@@std@@@4@$0A@@std@@@std@@QAE?AV?$_Tree_iterator@V?$_Tree_val@V?$_Tmap_traits@KUDefenseList@ioDefenseController@@U?$less@K@std@@V?$allocator@U?$pair@$$CBKUDefenseList@ioDefenseController@@@std@@@4@$0A@@std@@@std@@@2@V?$_Tree_const_iterator@V?$_Tree_val@V?$_Tmap_traits@KUDefenseList@ioDefenseController@@U?$less@K@std@@V?$allocator@U?$pair@$$CBKUDefenseList@ioDefenseController@@@std@@@4@$0A@@std@@@std@@@2@0@Z ; std::_Tree<std::_Tmap_traits<unsigned long,ioDefenseController::DefenseList,std::less<unsigned long>,std::allocator<std::pair<unsigned long const ,ioDefenseController::DefenseList> >,0> >::erase

; 792  : 		}

  00027	ff 76 04	 push	 DWORD PTR [esi+4]
  0002a	e8 00 00 00 00	 call	 ??3@YAXPAX@Z		; operator delete
  0002f	59		 pop	 ecx
  00030	e8 00 00 00 00	 call	 __EH_epilog3
  00035	c3		 ret	 0
_TEXT	ENDS
;	COMDAT text$x
text$x	SEGMENT
__unwindfunclet$??1?$_Tree@V?$_Tmap_traits@KUDefenseList@ioDefenseController@@U?$less@K@std@@V?$allocator@U?$pair@$$CBKUDefenseList@ioDefenseController@@@std@@@4@$0A@@std@@@std@@QAE@XZ$0:
  00000	8b 4d f0	 mov	 ecx, DWORD PTR _this$[ebp]
  00003	e9 00 00 00 00	 jmp	 ??1?$_Tree_val@V?$_Tmap_traits@KUDefenseList@ioDefenseController@@U?$less@K@std@@V?$allocator@U?$pair@$$CBKUDefenseList@ioDefenseController@@@std@@@4@$0A@@std@@@std@@QAE@XZ ; std::_Tree_val<std::_Tmap_traits<unsigned long,ioDefenseController::DefenseList,std::less<unsigned long>,std::allocator<std::pair<unsigned long const ,ioDefenseController::DefenseList> >,0> >::~_Tree_val<std::_Tmap_traits<unsigned long,ioDefenseController::DefenseList,std::less<unsigned long>,std::allocator<std::pair<unsigned long const ,ioDefenseController::DefenseList> >,0> >
__ehhandler$??1?$_Tree@V?$_Tmap_traits@KUDefenseList@ioDefenseController@@U?$less@K@std@@V?$allocator@U?$pair@$$CBKUDefenseList@ioDefenseController@@@std@@@4@$0A@@std@@@std@@QAE@XZ:
  00008	8b 54 24 08	 mov	 edx, DWORD PTR [esp+8]
  0000c	8d 42 0c	 lea	 eax, DWORD PTR [edx+12]
  0000f	8b 4a e8	 mov	 ecx, DWORD PTR [edx-24]
  00012	33 c8		 xor	 ecx, eax
  00014	e8 00 00 00 00	 call	 @__security_check_cookie@4
  00019	b8 00 00 00 00	 mov	 eax, OFFSET __ehfuncinfo$??1?$_Tree@V?$_Tmap_traits@KUDefenseList@ioDefenseController@@U?$less@K@std@@V?$allocator@U?$pair@$$CBKUDefenseList@ioDefenseController@@@std@@@4@$0A@@std@@@std@@QAE@XZ
  0001e	e9 00 00 00 00	 jmp	 ___CxxFrameHandler3
text$x	ENDS
??1?$_Tree@V?$_Tmap_traits@KUDefenseList@ioDefenseController@@U?$less@K@std@@V?$allocator@U?$pair@$$CBKUDefenseList@ioDefenseController@@@std@@@4@$0A@@std@@@std@@QAE@XZ ENDP ; std::_Tree<std::_Tmap_traits<unsigned long,ioDefenseController::DefenseList,std::less<unsigned long>,std::allocator<std::pair<unsigned long const ,ioDefenseController::DefenseList> >,0> >::~_Tree<std::_Tmap_traits<unsigned long,ioDefenseController::DefenseList,std::less<unsigned long>,std::allocator<std::pair<unsigned long const ,ioDefenseController::DefenseList> >,0> >
PUBLIC	??1?$map@KUDefenseList@ioDefenseController@@U?$less@K@std@@V?$allocator@U?$pair@$$CBKUDefenseList@ioDefenseController@@@std@@@4@@std@@QAE@XZ ; std::map<unsigned long,ioDefenseController::DefenseList,std::less<unsigned long>,std::allocator<std::pair<unsigned long const ,ioDefenseController::DefenseList> > >::~map<unsigned long,ioDefenseController::DefenseList,std::less<unsigned long>,std::allocator<std::pair<unsigned long const ,ioDefenseController::DefenseList> > >
; Function compile flags: /Ogsp
;	COMDAT ??1?$map@KUDefenseList@ioDefenseController@@U?$less@K@std@@V?$allocator@U?$pair@$$CBKUDefenseList@ioDefenseController@@@std@@@4@@std@@QAE@XZ
_TEXT	SEGMENT
??1?$map@KUDefenseList@ioDefenseController@@U?$less@K@std@@V?$allocator@U?$pair@$$CBKUDefenseList@ioDefenseController@@@std@@@4@@std@@QAE@XZ PROC ; std::map<unsigned long,ioDefenseController::DefenseList,std::less<unsigned long>,std::allocator<std::pair<unsigned long const ,ioDefenseController::DefenseList> > >::~map<unsigned long,ioDefenseController::DefenseList,std::less<unsigned long>,std::allocator<std::pair<unsigned long const ,ioDefenseController::DefenseList> > >, COMDAT
; _this$ = ecx
  00000	e9 00 00 00 00	 jmp	 ??1?$_Tree@V?$_Tmap_traits@KUDefenseList@ioDefenseController@@U?$less@K@std@@V?$allocator@U?$pair@$$CBKUDefenseList@ioDefenseController@@@std@@@4@$0A@@std@@@std@@QAE@XZ ; std::_Tree<std::_Tmap_traits<unsigned long,ioDefenseController::DefenseList,std::less<unsigned long>,std::allocator<std::pair<unsigned long const ,ioDefenseController::DefenseList> >,0> >::~_Tree<std::_Tmap_traits<unsigned long,ioDefenseController::DefenseList,std::less<unsigned long>,std::allocator<std::pair<unsigned long const ,ioDefenseController::DefenseList> >,0> >
??1?$map@KUDefenseList@ioDefenseController@@U?$less@K@std@@V?$allocator@U?$pair@$$CBKUDefenseList@ioDefenseController@@@std@@@4@@std@@QAE@XZ ENDP ; std::map<unsigned long,ioDefenseController::DefenseList,std::less<unsigned long>,std::allocator<std::pair<unsigned long const ,ioDefenseController::DefenseList> > >::~map<unsigned long,ioDefenseController::DefenseList,std::less<unsigned long>,std::allocator<std::pair<unsigned long const ,ioDefenseController::DefenseList> > >
_TEXT	ENDS
PUBLIC	??_7ioDefenseController@@6B@			; ioDefenseController::`vftable'
PUBLIC	??1ioDefenseController@@UAE@XZ			; ioDefenseController::~ioDefenseController
PUBLIC	??_R4ioDefenseController@@6B@			; ioDefenseController::`RTTI Complete Object Locator'
PUBLIC	??_R0?AVioDefenseController@@@8			; ioDefenseController `RTTI Type Descriptor'
PUBLIC	??_R3ioDefenseController@@8			; ioDefenseController::`RTTI Class Hierarchy Descriptor'
PUBLIC	??_R2ioDefenseController@@8			; ioDefenseController::`RTTI Base Class Array'
PUBLIC	??_R1A@?0A@EA@ioDefenseController@@8		; ioDefenseController::`RTTI Base Class Descriptor at (0,-1,0,64)'
EXTRN	??_EioDefenseController@@UAEPAXI@Z:PROC		; ioDefenseController::`vector deleting destructor'
;	COMDAT ??_R1A@?0A@EA@ioDefenseController@@8
; File d:\lost saga for developer\youtube\tutorial\source\src\lsclient\iodefensecontroller.cpp
rdata$r	SEGMENT
??_R1A@?0A@EA@ioDefenseController@@8 DD FLAT:??_R0?AVioDefenseController@@@8 ; ioDefenseController::`RTTI Base Class Descriptor at (0,-1,0,64)'
	DD	00H
	DD	00H
	DD	0ffffffffH
	DD	00H
	DD	040H
	DD	FLAT:??_R3ioDefenseController@@8
rdata$r	ENDS
;	COMDAT ??_R2ioDefenseController@@8
rdata$r	SEGMENT
??_R2ioDefenseController@@8 DD FLAT:??_R1A@?0A@EA@ioDefenseController@@8 ; ioDefenseController::`RTTI Base Class Array'
rdata$r	ENDS
;	COMDAT ??_R3ioDefenseController@@8
rdata$r	SEGMENT
??_R3ioDefenseController@@8 DD 00H			; ioDefenseController::`RTTI Class Hierarchy Descriptor'
	DD	00H
	DD	01H
	DD	FLAT:??_R2ioDefenseController@@8
rdata$r	ENDS
;	COMDAT ??_R0?AVioDefenseController@@@8
_DATA	SEGMENT
??_R0?AVioDefenseController@@@8 DD FLAT:??_7type_info@@6B@ ; ioDefenseController `RTTI Type Descriptor'
	DD	00H
	DB	'.?AVioDefenseController@@', 00H
_DATA	ENDS
;	COMDAT ??_R4ioDefenseController@@6B@
rdata$r	SEGMENT
??_R4ioDefenseController@@6B@ DD 00H			; ioDefenseController::`RTTI Complete Object Locator'
	DD	00H
	DD	00H
	DD	FLAT:??_R0?AVioDefenseController@@@8
	DD	FLAT:??_R3ioDefenseController@@8
rdata$r	ENDS
;	COMDAT ??_7ioDefenseController@@6B@
CONST	SEGMENT
??_7ioDefenseController@@6B@ DD FLAT:??_R4ioDefenseController@@6B@ ; ioDefenseController::`vftable'
	DD	FLAT:??_EioDefenseController@@UAEPAXI@Z
CONST	ENDS
;	COMDAT xdata$x
xdata$x	SEGMENT
__unwindtable$??1ioDefenseController@@UAE@XZ DD 0ffffffffH
	DD	FLAT:__unwindfunclet$??1ioDefenseController@@UAE@XZ$0
__ehfuncinfo$??1ioDefenseController@@UAE@XZ DD 019930522H
	DD	01H
	DD	FLAT:__unwindtable$??1ioDefenseController@@UAE@XZ
	DD	2 DUP(00H)
	DD	2 DUP(00H)
	DD	00H
	DD	01H
; Function compile flags: /Ogsp
xdata$x	ENDS
;	COMDAT ??1ioDefenseController@@UAE@XZ
_TEXT	SEGMENT
$T548152 = -24						; size = 4
$T548073 = -24						; size = 4
_this$ = -20						; size = 4
_iCreate$ = -16						; size = 4
__$EHRec$ = -12						; size = 12
??1ioDefenseController@@UAE@XZ PROC			; ioDefenseController::~ioDefenseController, COMDAT
; _this$ = ecx

; 15   : {

  00000	6a 0c		 push	 12			; 0000000cH
  00002	b8 00 00 00 00	 mov	 eax, __ehhandler$??1ioDefenseController@@UAE@XZ
  00007	e8 00 00 00 00	 call	 __EH_prolog3
  0000c	8b f1		 mov	 esi, ecx
  0000e	89 75 ec	 mov	 DWORD PTR _this$[ebp], esi
  00011	c7 06 00 00 00
	00		 mov	 DWORD PTR [esi], OFFSET ??_7ioDefenseController@@6B@

; 16   : 	DefenseMap::iterator iCreate;
; 17   : 	for( iCreate = m_DefenseMap.begin() ; iCreate != m_DefenseMap.end() ; ++iCreate )

  00017	8b 46 08	 mov	 eax, DWORD PTR [esi+8]
  0001a	8b 08		 mov	 ecx, DWORD PTR [eax]
  0001c	83 65 fc 00	 and	 DWORD PTR __$EHRec$[ebp+8], 0
  00020	89 4d f0	 mov	 DWORD PTR _iCreate$[ebp], ecx
  00023	3b c8		 cmp	 ecx, eax
  00025	74 26		 je	 SHORT $LN1@ioDefenseC
$LL30@ioDefenseC:

; 18   : 	{
; 19   : 		DefenseList &kList = iCreate->second;

  00027	8b 4d f0	 mov	 ecx, DWORD PTR _iCreate$[ebp]

; 20   : 		kList.m_Defense.clear();

  0002a	8b 41 14	 mov	 eax, DWORD PTR [ecx+20]
  0002d	83 c1 10	 add	 ecx, 16			; 00000010H
  00030	8b 11		 mov	 edx, DWORD PTR [ecx]
  00032	50		 push	 eax
  00033	52		 push	 edx
  00034	8d 45 e8	 lea	 eax, DWORD PTR $T548073[ebp]
  00037	50		 push	 eax
  00038	e8 00 00 00 00	 call	 ?erase@?$vector@UDefenseData@ioDefenseController@@V?$allocator@UDefenseData@ioDefenseController@@@std@@@std@@QAE?AV?$_Vector_iterator@V?$_Vector_val@UDefenseData@ioDefenseController@@V?$allocator@UDefenseData@ioDefenseController@@@std@@@std@@@2@V?$_Vector_const_iterator@V?$_Vector_val@UDefenseData@ioDefenseController@@V?$allocator@UDefenseData@ioDefenseController@@@std@@@std@@@2@0@Z ; std::vector<ioDefenseController::DefenseData,std::allocator<ioDefenseController::DefenseData> >::erase
  0003d	8d 4d f0	 lea	 ecx, DWORD PTR _iCreate$[ebp]
  00040	e8 00 00 00 00	 call	 ??E?$_Tree_unchecked_const_iterator@V?$_Tree_val@V?$_Tmap_traits@KUDefenseList@ioDefenseController@@U?$less@K@std@@V?$allocator@U?$pair@$$CBKUDefenseList@ioDefenseController@@@std@@@4@$0A@@std@@@std@@U_Iterator_base0@2@@std@@QAEAAV01@XZ ; std::_Tree_unchecked_const_iterator<std::_Tree_val<std::_Tmap_traits<unsigned long,ioDefenseController::DefenseList,std::less<unsigned long>,std::allocator<std::pair<unsigned long const ,ioDefenseController::DefenseList> >,0> >,std::_Iterator_base0>::operator++
  00045	8b 46 08	 mov	 eax, DWORD PTR [esi+8]
  00048	39 45 f0	 cmp	 DWORD PTR _iCreate$[ebp], eax
  0004b	75 da		 jne	 SHORT $LL30@ioDefenseC
$LN1@ioDefenseC:

; 21   : 	}
; 22   : 	m_CurDefense.m_Defense.clear();

  0004d	8b 46 18	 mov	 eax, DWORD PTR [esi+24]
  00050	8b 4e 14	 mov	 ecx, DWORD PTR [esi+20]
  00053	50		 push	 eax
  00054	51		 push	 ecx
  00055	8d 45 e8	 lea	 eax, DWORD PTR $T548152[ebp]
  00058	50		 push	 eax
  00059	8d 4e 14	 lea	 ecx, DWORD PTR [esi+20]
  0005c	e8 00 00 00 00	 call	 ?erase@?$vector@UDefenseData@ioDefenseController@@V?$allocator@UDefenseData@ioDefenseController@@@std@@@std@@QAE?AV?$_Vector_iterator@V?$_Vector_val@UDefenseData@ioDefenseController@@V?$allocator@UDefenseData@ioDefenseController@@@std@@@std@@@2@V?$_Vector_const_iterator@V?$_Vector_val@UDefenseData@ioDefenseController@@V?$allocator@UDefenseData@ioDefenseController@@@std@@@std@@@2@0@Z ; std::vector<ioDefenseController::DefenseData,std::allocator<ioDefenseController::DefenseData> >::erase

; 23   : }

  00061	8d 4e 14	 lea	 ecx, DWORD PTR [esi+20]
  00064	e8 00 00 00 00	 call	 ??1DefenseList@ioDefenseController@@QAE@XZ
  00069	83 4d fc ff	 or	 DWORD PTR __$EHRec$[ebp+8], -1
  0006d	8d 4e 04	 lea	 ecx, DWORD PTR [esi+4]
  00070	e8 00 00 00 00	 call	 ??1?$_Tree@V?$_Tmap_traits@KUDefenseList@ioDefenseController@@U?$less@K@std@@V?$allocator@U?$pair@$$CBKUDefenseList@ioDefenseController@@@std@@@4@$0A@@std@@@std@@QAE@XZ ; std::_Tree<std::_Tmap_traits<unsigned long,ioDefenseController::DefenseList,std::less<unsigned long>,std::allocator<std::pair<unsigned long const ,ioDefenseController::DefenseList> >,0> >::~_Tree<std::_Tmap_traits<unsigned long,ioDefenseController::DefenseList,std::less<unsigned long>,std::allocator<std::pair<unsigned long const ,ioDefenseController::DefenseList> >,0> >
  00075	e8 00 00 00 00	 call	 __EH_epilog3
  0007a	c3		 ret	 0
_TEXT	ENDS
;	COMDAT text$x
text$x	SEGMENT
__unwindfunclet$??1ioDefenseController@@UAE@XZ$0:
  00000	8b 4d ec	 mov	 ecx, DWORD PTR _this$[ebp]
  00003	83 c1 04	 add	 ecx, 4
  00006	e9 00 00 00 00	 jmp	 ??1?$map@KUDefenseList@ioDefenseController@@U?$less@K@std@@V?$allocator@U?$pair@$$CBKUDefenseList@ioDefenseController@@@std@@@4@@std@@QAE@XZ
__ehhandler$??1ioDefenseController@@UAE@XZ:
  0000b	8b 54 24 08	 mov	 edx, DWORD PTR [esp+8]
  0000f	8d 42 0c	 lea	 eax, DWORD PTR [edx+12]
  00012	8b 4a e4	 mov	 ecx, DWORD PTR [edx-28]
  00015	33 c8		 xor	 ecx, eax
  00017	e8 00 00 00 00	 call	 @__security_check_cookie@4
  0001c	b8 00 00 00 00	 mov	 eax, OFFSET __ehfuncinfo$??1ioDefenseController@@UAE@XZ
  00021	e9 00 00 00 00	 jmp	 ___CxxFrameHandler3
text$x	ENDS
??1ioDefenseController@@UAE@XZ ENDP			; ioDefenseController::~ioDefenseController
PUBLIC	??0?$map@KUDefenseList@ioDefenseController@@U?$less@K@std@@V?$allocator@U?$pair@$$CBKUDefenseList@ioDefenseController@@@std@@@4@@std@@QAE@XZ ; std::map<unsigned long,ioDefenseController::DefenseList,std::less<unsigned long>,std::allocator<std::pair<unsigned long const ,ioDefenseController::DefenseList> > >::map<unsigned long,ioDefenseController::DefenseList,std::less<unsigned long>,std::allocator<std::pair<unsigned long const ,ioDefenseController::DefenseList> > >
; Function compile flags: /Ogsp
; File c:\program files (x86)\microsoft visual studio 10.0\vc\include\map
;	COMDAT ??0?$map@KUDefenseList@ioDefenseController@@U?$less@K@std@@V?$allocator@U?$pair@$$CBKUDefenseList@ioDefenseController@@@std@@@4@@std@@QAE@XZ
_TEXT	SEGMENT
$T548198 = -8						; size = 4
$T548200 = -8						; size = 4
$T548187 = -1						; size = 1
??0?$map@KUDefenseList@ioDefenseController@@U?$less@K@std@@V?$allocator@U?$pair@$$CBKUDefenseList@ioDefenseController@@@std@@@4@@std@@QAE@XZ PROC ; std::map<unsigned long,ioDefenseController::DefenseList,std::less<unsigned long>,std::allocator<std::pair<unsigned long const ,ioDefenseController::DefenseList> > >::map<unsigned long,ioDefenseController::DefenseList,std::less<unsigned long>,std::allocator<std::pair<unsigned long const ,ioDefenseController::DefenseList> > >, COMDAT
; _this$ = ecx

; 106  : 		{	// construct empty map from defaults

  00000	55		 push	 ebp
  00001	8b ec		 mov	 ebp, esp
  00003	51		 push	 ecx
  00004	51		 push	 ecx
  00005	56		 push	 esi
  00006	51		 push	 ecx
  00007	89 65 f8	 mov	 DWORD PTR $T548200[ebp], esp
  0000a	8d 45 ff	 lea	 eax, DWORD PTR $T548187[ebp]
  0000d	89 65 f8	 mov	 DWORD PTR $T548198[ebp], esp
  00010	50		 push	 eax
  00011	8b f1		 mov	 esi, ecx
  00013	e8 00 00 00 00	 call	 ??0?$_Tree_val@V?$_Tmap_traits@KUDefenseList@ioDefenseController@@U?$less@K@std@@V?$allocator@U?$pair@$$CBKUDefenseList@ioDefenseController@@@std@@@4@$0A@@std@@@std@@QAE@ABU?$less@K@1@V?$allocator@U?$pair@$$CBKUDefenseList@ioDefenseController@@@std@@@1@@Z ; std::_Tree_val<std::_Tmap_traits<unsigned long,ioDefenseController::DefenseList,std::less<unsigned long>,std::allocator<std::pair<unsigned long const ,ioDefenseController::DefenseList> >,0> >::_Tree_val<std::_Tmap_traits<unsigned long,ioDefenseController::DefenseList,std::less<unsigned long>,std::allocator<std::pair<unsigned long const ,ioDefenseController::DefenseList> >,0> >

; 107  : 		}

  00018	8b c6		 mov	 eax, esi
  0001a	5e		 pop	 esi
  0001b	c9		 leave
  0001c	c3		 ret	 0
??0?$map@KUDefenseList@ioDefenseController@@U?$less@K@std@@V?$allocator@U?$pair@$$CBKUDefenseList@ioDefenseController@@@std@@@4@@std@@QAE@XZ ENDP ; std::map<unsigned long,ioDefenseController::DefenseList,std::less<unsigned long>,std::allocator<std::pair<unsigned long const ,ioDefenseController::DefenseList> > >::map<unsigned long,ioDefenseController::DefenseList,std::less<unsigned long>,std::allocator<std::pair<unsigned long const ,ioDefenseController::DefenseList> > >
_TEXT	ENDS
PUBLIC	??0ioDefenseController@@QAE@XZ			; ioDefenseController::ioDefenseController
; Function compile flags: /Ogsp
; File d:\lost saga for developer\youtube\tutorial\source\src\lsclient\iodefensecontroller.cpp
;	COMDAT ??0ioDefenseController@@QAE@XZ
_TEXT	SEGMENT
$T548221 = -8						; size = 4
$T548233 = -8						; size = 4
$T548229 = -1						; size = 1
??0ioDefenseController@@QAE@XZ PROC			; ioDefenseController::ioDefenseController, COMDAT
; _this$ = ecx

; 10   : {

  00000	55		 push	 ebp
  00001	8b ec		 mov	 ebp, esp
  00003	51		 push	 ecx
  00004	51		 push	 ecx
  00005	56		 push	 esi
  00006	8b f1		 mov	 esi, ecx
  00008	8d 4e 04	 lea	 ecx, DWORD PTR [esi+4]
  0000b	51		 push	 ecx
  0000c	89 65 f8	 mov	 DWORD PTR $T548233[ebp], esp
  0000f	8d 45 ff	 lea	 eax, DWORD PTR $T548229[ebp]
  00012	89 65 f8	 mov	 DWORD PTR $T548221[ebp], esp
  00015	50		 push	 eax
  00016	c7 06 00 00 00
	00		 mov	 DWORD PTR [esi], OFFSET ??_7ioDefenseController@@6B@
  0001c	e8 00 00 00 00	 call	 ??0?$_Tree_val@V?$_Tmap_traits@KUDefenseList@ioDefenseController@@U?$less@K@std@@V?$allocator@U?$pair@$$CBKUDefenseList@ioDefenseController@@@std@@@4@$0A@@std@@@std@@QAE@ABU?$less@K@1@V?$allocator@U?$pair@$$CBKUDefenseList@ioDefenseController@@@std@@@1@@Z ; std::_Tree_val<std::_Tmap_traits<unsigned long,ioDefenseController::DefenseList,std::less<unsigned long>,std::allocator<std::pair<unsigned long const ,ioDefenseController::DefenseList> >,0> >::_Tree_val<std::_Tmap_traits<unsigned long,ioDefenseController::DefenseList,std::less<unsigned long>,std::allocator<std::pair<unsigned long const ,ioDefenseController::DefenseList> >,0> >
  00021	0f 57 c0	 xorps	 xmm0, xmm0
  00024	33 c0		 xor	 eax, eax
  00026	89 46 14	 mov	 DWORD PTR [esi+20], eax
  00029	89 46 18	 mov	 DWORD PTR [esi+24], eax
  0002c	89 46 1c	 mov	 DWORD PTR [esi+28], eax
  0002f	89 46 24	 mov	 DWORD PTR [esi+36], eax
  00032	89 46 28	 mov	 DWORD PTR [esi+40], eax
  00035	89 46 2c	 mov	 DWORD PTR [esi+44], eax
  00038	f3 0f 11 46 3c	 movss	 DWORD PTR [esi+60], xmm0
  0003d	f3 0f 11 46 38	 movss	 DWORD PTR [esi+56], xmm0
  00042	f3 0f 11 46 34	 movss	 DWORD PTR [esi+52], xmm0

; 11   : 	m_dwCurrentTime = 0;

  00047	89 46 40	 mov	 DWORD PTR [esi+64], eax

; 12   : }

  0004a	8b c6		 mov	 eax, esi
  0004c	5e		 pop	 esi
  0004d	c9		 leave
  0004e	c3		 ret	 0
??0ioDefenseController@@QAE@XZ ENDP			; ioDefenseController::ioDefenseController
; Function compile flags: /Ogsp
_TEXT	ENDS
;	COMDAT ??_GioDefenseController@@UAEPAXI@Z
_TEXT	SEGMENT
___flags$ = 8						; size = 4
??_GioDefenseController@@UAEPAXI@Z PROC			; ioDefenseController::`scalar deleting destructor', COMDAT
; _this$ = ecx
  00000	55		 push	 ebp
  00001	8b ec		 mov	 ebp, esp
  00003	56		 push	 esi
  00004	8b f1		 mov	 esi, ecx
  00006	e8 00 00 00 00	 call	 ??1ioDefenseController@@UAE@XZ ; ioDefenseController::~ioDefenseController
  0000b	f6 45 08 01	 test	 BYTE PTR ___flags$[ebp], 1
  0000f	74 07		 je	 SHORT $LN1@scalar@4
  00011	56		 push	 esi
  00012	e8 00 00 00 00	 call	 ??3@YAXPAX@Z		; operator delete
  00017	59		 pop	 ecx
$LN1@scalar@4:
  00018	8b c6		 mov	 eax, esi
  0001a	5e		 pop	 esi
  0001b	5d		 pop	 ebp
  0001c	c2 04 00	 ret	 4
??_GioDefenseController@@UAEPAXI@Z ENDP			; ioDefenseController::`scalar deleting destructor'
_TEXT	ENDS
END
