; Listing generated by Microsoft (R) Optimizing Compiler Version 16.00.30319.01 

	TITLE	D:\Lost Saga For Developer\Youtube\Tutorial\Source\src\LSClient\ioDraculaItem.cpp
	.686P
	.XMM
	include listing.inc
	.model	flat

INCLUDELIB MSVCRT
INCLUDELIB OLDNAMES

PUBLIC	?_EEM_DS@?$deque@UD3DXVECTOR3@@V?$allocator@UD3DXVECTOR3@@@std@@@std@@2HB ; std::deque<D3DXVECTOR3,std::allocator<D3DXVECTOR3> >::_EEM_DS
;	COMDAT ?_EEM_DS@?$deque@UD3DXVECTOR3@@V?$allocator@UD3DXVECTOR3@@@std@@@std@@2HB
CONST	SEGMENT
?_EEM_DS@?$deque@UD3DXVECTOR3@@V?$allocator@UD3DXVECTOR3@@@std@@@std@@2HB DD 01H ; std::deque<D3DXVECTOR3,std::allocator<D3DXVECTOR3> >::_EEM_DS
CONST	ENDS
PUBLIC	?return1@@YAIXZ					; return1
; Function compile flags: /Ogsp
; File d:\lost saga for developer\youtube\tutorial\source\src\lsclient\stdafx.h
;	COMDAT ?return1@@YAIXZ
_TEXT	SEGMENT
?return1@@YAIXZ PROC					; return1, COMDAT

; 17   : 	__forceinline unsigned int return1() { __asm mov eax, 1 };

  00000	b8 01 00 00 00	 mov	 eax, 1
  00005	c3		 ret	 0
?return1@@YAIXZ ENDP					; return1
_TEXT	ENDS
PUBLIC	?return5@@YAIXZ					; return5
; Function compile flags: /Ogsp
;	COMDAT ?return5@@YAIXZ
_TEXT	SEGMENT
?return5@@YAIXZ PROC					; return5, COMDAT

; 18   : 	__forceinline unsigned int return5() { __asm mov eax, 5 };

  00000	b8 05 00 00 00	 mov	 eax, 5
  00005	c3		 ret	 0
?return5@@YAIXZ ENDP					; return5
_TEXT	ENDS
PUBLIC	?return10@@YAIXZ				; return10
; Function compile flags: /Ogsp
;	COMDAT ?return10@@YAIXZ
_TEXT	SEGMENT
?return10@@YAIXZ PROC					; return10, COMDAT

; 21   : 	__forceinline unsigned int return10() { __asm mov eax, 10 };

  00000	b8 0a 00 00 00	 mov	 eax, 10			; 0000000aH
  00005	c3		 ret	 0
?return10@@YAIXZ ENDP					; return10
_TEXT	ENDS
PUBLIC	?return100@@YAIXZ				; return100
; Function compile flags: /Ogsp
;	COMDAT ?return100@@YAIXZ
_TEXT	SEGMENT
?return100@@YAIXZ PROC					; return100, COMDAT

; 25   : 	__forceinline unsigned int return100() { __asm mov eax, 100 };

  00000	b8 64 00 00 00	 mov	 eax, 100		; 00000064H
  00005	c3		 ret	 0
?return100@@YAIXZ ENDP					; return100
_TEXT	ENDS
PUBLIC	?return360@@YAIXZ				; return360
; Function compile flags: /Ogsp
;	COMDAT ?return360@@YAIXZ
_TEXT	SEGMENT
?return360@@YAIXZ PROC					; return360, COMDAT

; 27   : 	__forceinline unsigned int return360() { __asm mov eax, 360 };

  00000	b8 68 01 00 00	 mov	 eax, 360		; 00000168H
  00005	c3		 ret	 0
?return360@@YAIXZ ENDP					; return360
_TEXT	ENDS
PUBLIC	?return1000@@YAIXZ				; return1000
; Function compile flags: /Ogsp
;	COMDAT ?return1000@@YAIXZ
_TEXT	SEGMENT
?return1000@@YAIXZ PROC					; return1000, COMDAT

; 29   : 	__forceinline unsigned int return1000() { __asm mov eax, 1000 };

  00000	b8 e8 03 00 00	 mov	 eax, 1000		; 000003e8H
  00005	c3		 ret	 0
?return1000@@YAIXZ ENDP					; return1000
_TEXT	ENDS
PUBLIC	?GetState@ioBaseChar@@QBE?AW4CharState@@XZ	; ioBaseChar::GetState
; Function compile flags: /Ogsp
; File d:\lost saga for developer\youtube\tutorial\source\src\lsclient\iobasechar.h
;	COMDAT ?GetState@ioBaseChar@@QBE?AW4CharState@@XZ
_TEXT	SEGMENT
?GetState@ioBaseChar@@QBE?AW4CharState@@XZ PROC		; ioBaseChar::GetState, COMDAT
; _this$ = ecx

; 2156 : 	inline CharState GetState() const { return m_CharState; }	

  00000	8a 81 10 03 00
	00		 mov	 al, BYTE PTR [ecx+784]
  00006	c3		 ret	 0
?GetState@ioBaseChar@@QBE?AW4CharState@@XZ ENDP		; ioBaseChar::GetState
_TEXT	ENDS
PUBLIC	_acosf
EXTRN	__fltused:DWORD
EXTRN	__CIacos:PROC
; Function compile flags: /Ogsp
; File c:\program files (x86)\microsoft visual studio 10.0\vc\include\math.h
;	COMDAT _acosf
_TEXT	SEGMENT
tv69 = 8						; size = 4
__X$ = 8						; size = 4
_acosf	PROC						; COMDAT

; 400  :         {return ((float)acos((double)_X)); }

  00000	55		 push	 ebp
  00001	8b ec		 mov	 ebp, esp
  00003	d9 45 08	 fld	 DWORD PTR __X$[ebp]
  00006	e8 00 00 00 00	 call	 __CIacos
  0000b	d9 5d 08	 fstp	 DWORD PTR tv69[ebp]
  0000e	d9 45 08	 fld	 DWORD PTR tv69[ebp]
  00011	5d		 pop	 ebp
  00012	c3		 ret	 0
_acosf	ENDP
_TEXT	ENDS
PUBLIC	?GetCharName@ioBaseChar@@QBEABVioHashString@@XZ	; ioBaseChar::GetCharName
; Function compile flags: /Ogsp
; File d:\lost saga for developer\youtube\tutorial\source\src\lsclient\iobasechar.h
;	COMDAT ?GetCharName@ioBaseChar@@QBEABVioHashString@@XZ
_TEXT	SEGMENT
?GetCharName@ioBaseChar@@QBEABVioHashString@@XZ PROC	; ioBaseChar::GetCharName, COMDAT
; _this$ = ecx

; 2594 : 	inline const ioHashString& GetCharName() const { return m_Name; }

  00000	8d 81 d4 02 00
	00		 lea	 eax, DWORD PTR [ecx+724]
  00006	c3		 ret	 0
?GetCharName@ioBaseChar@@QBEABVioHashString@@XZ ENDP	; ioBaseChar::GetCharName
_TEXT	ENDS
PUBLIC	?GetTargetRot@ioBaseChar@@QBEABUD3DXQUATERNION@@XZ ; ioBaseChar::GetTargetRot
; Function compile flags: /Ogsp
;	COMDAT ?GetTargetRot@ioBaseChar@@QBEABUD3DXQUATERNION@@XZ
_TEXT	SEGMENT
?GetTargetRot@ioBaseChar@@QBEABUD3DXQUATERNION@@XZ PROC	; ioBaseChar::GetTargetRot, COMDAT
; _this$ = ecx

; 2599 : 	inline const D3DXQUATERNION& GetTargetRot() const { return m_qtTargetRot; }

  00000	8d 81 a4 06 00
	00		 lea	 eax, DWORD PTR [ecx+1700]
  00006	c3		 ret	 0
?GetTargetRot@ioBaseChar@@QBEABUD3DXQUATERNION@@XZ ENDP	; ioBaseChar::GetTargetRot
_TEXT	ENDS
PUBLIC	?SetChargingState@ioBaseChar@@QAEX_N@Z		; ioBaseChar::SetChargingState
; Function compile flags: /Ogsp
;	COMDAT ?SetChargingState@ioBaseChar@@QAEX_N@Z
_TEXT	SEGMENT
_bState$ = 8						; size = 1
?SetChargingState@ioBaseChar@@QAEX_N@Z PROC		; ioBaseChar::SetChargingState, COMDAT
; _this$ = ecx

; 2937 : 	inline void SetChargingState( bool bState ) { m_bChargingState = bState; }

  00000	55		 push	 ebp
  00001	8b ec		 mov	 ebp, esp
  00003	8a 45 08	 mov	 al, BYTE PTR _bState$[ebp]
  00006	88 81 54 20 00
	00		 mov	 BYTE PTR [ecx+8276], al
  0000c	5d		 pop	 ebp
  0000d	c2 04 00	 ret	 4
?SetChargingState@ioBaseChar@@QAEX_N@Z ENDP		; ioBaseChar::SetChargingState
_TEXT	ENDS
PUBLIC	??_7bad_alloc@std@@6B@				; std::bad_alloc::`vftable'
PUBLIC	??0bad_alloc@std@@QAE@PBD@Z			; std::bad_alloc::bad_alloc
PUBLIC	??_R4bad_alloc@std@@6B@				; std::bad_alloc::`RTTI Complete Object Locator'
PUBLIC	??_R0?AVbad_alloc@std@@@8			; std::bad_alloc `RTTI Type Descriptor'
PUBLIC	??_R3bad_alloc@std@@8				; std::bad_alloc::`RTTI Class Hierarchy Descriptor'
PUBLIC	??_R2bad_alloc@std@@8				; std::bad_alloc::`RTTI Base Class Array'
PUBLIC	??_R1A@?0A@EA@bad_alloc@std@@8			; std::bad_alloc::`RTTI Base Class Descriptor at (0,-1,0,64)'
PUBLIC	??_R1A@?0A@EA@exception@std@@8			; std::exception::`RTTI Base Class Descriptor at (0,-1,0,64)'
PUBLIC	??_R0?AVexception@std@@@8			; std::exception `RTTI Type Descriptor'
PUBLIC	??_R3exception@std@@8				; std::exception::`RTTI Class Hierarchy Descriptor'
PUBLIC	??_R2exception@std@@8				; std::exception::`RTTI Base Class Array'
EXTRN	__imp_??0exception@std@@QAE@ABQBD@Z:PROC
EXTRN	??_7type_info@@6B@:QWORD			; type_info::`vftable'
EXTRN	??_Ebad_alloc@std@@UAEPAXI@Z:PROC		; std::bad_alloc::`vector deleting destructor'
EXTRN	?what@exception@std@@UBEPBDXZ:PROC		; std::exception::what
;	COMDAT ??_R2exception@std@@8
; File c:\program files (x86)\microsoft visual studio 10.0\vc\include\exception
rdata$r	SEGMENT
??_R2exception@std@@8 DD FLAT:??_R1A@?0A@EA@exception@std@@8 ; std::exception::`RTTI Base Class Array'
rdata$r	ENDS
;	COMDAT ??_R3exception@std@@8
rdata$r	SEGMENT
??_R3exception@std@@8 DD 00H				; std::exception::`RTTI Class Hierarchy Descriptor'
	DD	00H
	DD	01H
	DD	FLAT:??_R2exception@std@@8
rdata$r	ENDS
;	COMDAT ??_R0?AVexception@std@@@8
_DATA	SEGMENT
??_R0?AVexception@std@@@8 DD FLAT:??_7type_info@@6B@	; std::exception `RTTI Type Descriptor'
	DD	00H
	DB	'.?AVexception@std@@', 00H
_DATA	ENDS
;	COMDAT ??_R1A@?0A@EA@exception@std@@8
rdata$r	SEGMENT
??_R1A@?0A@EA@exception@std@@8 DD FLAT:??_R0?AVexception@std@@@8 ; std::exception::`RTTI Base Class Descriptor at (0,-1,0,64)'
	DD	00H
	DD	00H
	DD	0ffffffffH
	DD	00H
	DD	040H
	DD	FLAT:??_R3exception@std@@8
rdata$r	ENDS
;	COMDAT ??_R1A@?0A@EA@bad_alloc@std@@8
rdata$r	SEGMENT
??_R1A@?0A@EA@bad_alloc@std@@8 DD FLAT:??_R0?AVbad_alloc@std@@@8 ; std::bad_alloc::`RTTI Base Class Descriptor at (0,-1,0,64)'
	DD	01H
	DD	00H
	DD	0ffffffffH
	DD	00H
	DD	040H
	DD	FLAT:??_R3bad_alloc@std@@8
rdata$r	ENDS
;	COMDAT ??_R2bad_alloc@std@@8
rdata$r	SEGMENT
??_R2bad_alloc@std@@8 DD FLAT:??_R1A@?0A@EA@bad_alloc@std@@8 ; std::bad_alloc::`RTTI Base Class Array'
	DD	FLAT:??_R1A@?0A@EA@exception@std@@8
rdata$r	ENDS
;	COMDAT ??_R3bad_alloc@std@@8
rdata$r	SEGMENT
??_R3bad_alloc@std@@8 DD 00H				; std::bad_alloc::`RTTI Class Hierarchy Descriptor'
	DD	00H
	DD	02H
	DD	FLAT:??_R2bad_alloc@std@@8
rdata$r	ENDS
;	COMDAT ??_R0?AVbad_alloc@std@@@8
_DATA	SEGMENT
??_R0?AVbad_alloc@std@@@8 DD FLAT:??_7type_info@@6B@	; std::bad_alloc `RTTI Type Descriptor'
	DD	00H
	DB	'.?AVbad_alloc@std@@', 00H
_DATA	ENDS
;	COMDAT ??_R4bad_alloc@std@@6B@
rdata$r	SEGMENT
??_R4bad_alloc@std@@6B@ DD 00H				; std::bad_alloc::`RTTI Complete Object Locator'
	DD	00H
	DD	00H
	DD	FLAT:??_R0?AVbad_alloc@std@@@8
	DD	FLAT:??_R3bad_alloc@std@@8
rdata$r	ENDS
;	COMDAT ??_7bad_alloc@std@@6B@
CONST	SEGMENT
??_7bad_alloc@std@@6B@ DD FLAT:??_R4bad_alloc@std@@6B@	; std::bad_alloc::`vftable'
	DD	FLAT:??_Ebad_alloc@std@@UAEPAXI@Z
	DD	FLAT:?what@exception@std@@UBEPBDXZ
; Function compile flags: /Ogsp
CONST	ENDS
;	COMDAT ??0bad_alloc@std@@QAE@PBD@Z
_TEXT	SEGMENT
__Message$ = 8						; size = 4
??0bad_alloc@std@@QAE@PBD@Z PROC			; std::bad_alloc::bad_alloc, COMDAT
; _this$ = ecx

; 345  : 		{	// construct from message string

  00000	55		 push	 ebp
  00001	8b ec		 mov	 ebp, esp
  00003	56		 push	 esi
  00004	8d 45 08	 lea	 eax, DWORD PTR __Message$[ebp]
  00007	50		 push	 eax
  00008	8b f1		 mov	 esi, ecx
  0000a	ff 15 00 00 00
	00		 call	 DWORD PTR __imp_??0exception@std@@QAE@ABQBD@Z
  00010	c7 06 00 00 00
	00		 mov	 DWORD PTR [esi], OFFSET ??_7bad_alloc@std@@6B@

; 346  : 		}

  00016	8b c6		 mov	 eax, esi
  00018	5e		 pop	 esi
  00019	5d		 pop	 ebp
  0001a	c2 04 00	 ret	 4
??0bad_alloc@std@@QAE@PBD@Z ENDP			; std::bad_alloc::bad_alloc
_TEXT	ENDS
PUBLIC	??1bad_alloc@std@@UAE@XZ			; std::bad_alloc::~bad_alloc
EXTRN	__imp_??1exception@std@@UAE@XZ:PROC
; Function compile flags: /Ogsp
;	COMDAT ??1bad_alloc@std@@UAE@XZ
_TEXT	SEGMENT
??1bad_alloc@std@@UAE@XZ PROC				; std::bad_alloc::~bad_alloc, COMDAT
; _this$ = ecx

; 354  : 		{	// destroy the object

  00000	c7 01 00 00 00
	00		 mov	 DWORD PTR [ecx], OFFSET ??_7bad_alloc@std@@6B@

; 355  : 		}

  00006	ff 25 00 00 00
	00		 jmp	 DWORD PTR __imp_??1exception@std@@UAE@XZ
??1bad_alloc@std@@UAE@XZ ENDP				; std::bad_alloc::~bad_alloc
_TEXT	ENDS
EXTRN	??3@YAXPAX@Z:PROC				; operator delete
; Function compile flags: /Ogsp
;	COMDAT ??_Gbad_alloc@std@@UAEPAXI@Z
_TEXT	SEGMENT
___flags$ = 8						; size = 4
??_Gbad_alloc@std@@UAEPAXI@Z PROC			; std::bad_alloc::`scalar deleting destructor', COMDAT
; _this$ = ecx
  00000	55		 push	 ebp
  00001	8b ec		 mov	 ebp, esp
  00003	56		 push	 esi
  00004	8b f1		 mov	 esi, ecx
  00006	c7 06 00 00 00
	00		 mov	 DWORD PTR [esi], OFFSET ??_7bad_alloc@std@@6B@
  0000c	ff 15 00 00 00
	00		 call	 DWORD PTR __imp_??1exception@std@@UAE@XZ
  00012	f6 45 08 01	 test	 BYTE PTR ___flags$[ebp], 1
  00016	74 07		 je	 SHORT $LN1@scalar
  00018	56		 push	 esi
  00019	e8 00 00 00 00	 call	 ??3@YAXPAX@Z		; operator delete
  0001e	59		 pop	 ecx
$LN1@scalar:
  0001f	8b c6		 mov	 eax, esi
  00021	5e		 pop	 esi
  00022	5d		 pop	 ebp
  00023	c2 04 00	 ret	 4
??_Gbad_alloc@std@@UAEPAXI@Z ENDP			; std::bad_alloc::`scalar deleting destructor'
_TEXT	ENDS
PUBLIC	??2@YAPAXIPAX@Z					; operator new
; Function compile flags: /Ogsp
; File c:\program files (x86)\microsoft visual studio 10.0\vc\include\new
;	COMDAT ??2@YAPAXIPAX@Z
_TEXT	SEGMENT
___formal$ = 8						; size = 4
__Where$ = 12						; size = 4
??2@YAPAXIPAX@Z PROC					; operator new, COMDAT

; 56   : 	{	// construct array with placement at _Where

  00000	55		 push	 ebp
  00001	8b ec		 mov	 ebp, esp

; 57   : 	return (_Where);

  00003	8b 45 0c	 mov	 eax, DWORD PTR __Where$[ebp]

; 58   : 	}

  00006	5d		 pop	 ebp
  00007	c3		 ret	 0
??2@YAPAXIPAX@Z ENDP					; operator new
_TEXT	ENDS
PUBLIC	??3@YAXPAX0@Z					; operator delete
; Function compile flags: /Ogsp
;	COMDAT ??3@YAXPAX0@Z
_TEXT	SEGMENT
___formal$ = 8						; size = 4
___formal$ = 12						; size = 4
??3@YAXPAX0@Z PROC					; operator delete, COMDAT

; 62   : 	}

  00000	c3		 ret	 0
??3@YAXPAX0@Z ENDP					; operator delete
_TEXT	ENDS
PUBLIC	?GetCreator@ioBaseChar@@QAEPAVioPlayStage@@XZ	; ioBaseChar::GetCreator
; Function compile flags: /Ogsp
; File d:\lost saga for developer\youtube\tutorial\source\src\lsclient\iobasechar.h
;	COMDAT ?GetCreator@ioBaseChar@@QAEPAVioPlayStage@@XZ
_TEXT	SEGMENT
?GetCreator@ioBaseChar@@QAEPAVioPlayStage@@XZ PROC	; ioBaseChar::GetCreator, COMDAT
; _this$ = ecx

; 4013 : 	inline ioPlayStage* GetCreator() { return m_pCreator; }

  00000	8b 81 44 03 00
	00		 mov	 eax, DWORD PTR [ecx+836]
  00006	c3		 ret	 0
?GetCreator@ioBaseChar@@QAEPAVioPlayStage@@XZ ENDP	; ioBaseChar::GetCreator
_TEXT	ENDS
PUBLIC	?CheckGhostState@ioBaseChar@@QBE_NXZ		; ioBaseChar::CheckGhostState
; Function compile flags: /Ogsp
;	COMDAT ?CheckGhostState@ioBaseChar@@QBE_NXZ
_TEXT	SEGMENT
?CheckGhostState@ioBaseChar@@QBE_NXZ PROC		; ioBaseChar::CheckGhostState, COMDAT
; _this$ = ecx

; 4031 : 	inline bool CheckGhostState() const { return m_bUseGhostState; }

  00000	8a 81 e4 38 00
	00		 mov	 al, BYTE PTR [ecx+14564]
  00006	c3		 ret	 0
?CheckGhostState@ioBaseChar@@QBE_NXZ ENDP		; ioBaseChar::CheckGhostState
_TEXT	ENDS
PUBLIC	?GetPreHeightForGhostState@ioBaseChar@@QBEMXZ	; ioBaseChar::GetPreHeightForGhostState
; Function compile flags: /Ogsp
;	COMDAT ?GetPreHeightForGhostState@ioBaseChar@@QBEMXZ
_TEXT	SEGMENT
?GetPreHeightForGhostState@ioBaseChar@@QBEMXZ PROC	; ioBaseChar::GetPreHeightForGhostState, COMDAT
; _this$ = ecx

; 4033 : 	float GetPreHeightForGhostState() const { return m_fPreHeightForGhostState; }

  00000	d9 81 e0 38 00
	00		 fld	 DWORD PTR [ecx+14560]
  00006	c3		 ret	 0
?GetPreHeightForGhostState@ioBaseChar@@QBEMXZ ENDP	; ioBaseChar::GetPreHeightForGhostState
_TEXT	ENDS
PUBLIC	??_R0?AVioWeapon@@@8				; ioWeapon `RTTI Type Descriptor'
PUBLIC	??_R0?AVioZoneEffectWeapon@@@8			; ioZoneEffectWeapon `RTTI Type Descriptor'
PUBLIC	?ToZoneEffectWeapon@@YAPAVioZoneEffectWeapon@@PAVioWeapon@@@Z ; ToZoneEffectWeapon
EXTRN	___RTDynamicCast:PROC
;	COMDAT ??_R0?AVioWeapon@@@8
; File d:\lost saga for developer\youtube\tutorial\source\src\lsclient\iozoneeffectweapon.h
_DATA	SEGMENT
??_R0?AVioWeapon@@@8 DD FLAT:??_7type_info@@6B@		; ioWeapon `RTTI Type Descriptor'
	DD	00H
	DB	'.?AVioWeapon@@', 00H
_DATA	ENDS
;	COMDAT ??_R0?AVioZoneEffectWeapon@@@8
_DATA	SEGMENT
??_R0?AVioZoneEffectWeapon@@@8 DD FLAT:??_7type_info@@6B@ ; ioZoneEffectWeapon `RTTI Type Descriptor'
	DD	00H
	DB	'.?AVioZoneEffectWeapon@@', 00H
; Function compile flags: /Ogsp
_DATA	ENDS
;	COMDAT ?ToZoneEffectWeapon@@YAPAVioZoneEffectWeapon@@PAVioWeapon@@@Z
_TEXT	SEGMENT
_pWeapon$ = 8						; size = 4
?ToZoneEffectWeapon@@YAPAVioZoneEffectWeapon@@PAVioWeapon@@@Z PROC ; ToZoneEffectWeapon, COMDAT

; 217  : {

  00000	55		 push	 ebp
  00001	8b ec		 mov	 ebp, esp
  00003	56		 push	 esi

; 218  : 	if( !pWeapon || pWeapon->GetType() != ioWeapon::WT_ZONE_EFFECT )

  00004	8b 75 08	 mov	 esi, DWORD PTR _pWeapon$[ebp]
  00007	85 f6		 test	 esi, esi
  00009	74 28		 je	 SHORT $LN1@ToZoneEffe
  0000b	8b 06		 mov	 eax, DWORD PTR [esi]
  0000d	8b ce		 mov	 ecx, esi
  0000f	ff 90 10 01 00
	00		 call	 DWORD PTR [eax+272]
  00015	83 f8 08	 cmp	 eax, 8
  00018	75 19		 jne	 SHORT $LN1@ToZoneEffe

; 220  : 
; 221  : 	return dynamic_cast< ioZoneEffectWeapon* >( pWeapon );

  0001a	6a 00		 push	 0
  0001c	68 00 00 00 00	 push	 OFFSET ??_R0?AVioZoneEffectWeapon@@@8
  00021	68 00 00 00 00	 push	 OFFSET ??_R0?AVioWeapon@@@8
  00026	6a 00		 push	 0
  00028	56		 push	 esi
  00029	e8 00 00 00 00	 call	 ___RTDynamicCast
  0002e	83 c4 14	 add	 esp, 20			; 00000014H
  00031	eb 02		 jmp	 SHORT $LN3@ToZoneEffe
$LN1@ToZoneEffe:

; 219  : 		return NULL;

  00033	33 c0		 xor	 eax, eax
$LN3@ToZoneEffe:
  00035	5e		 pop	 esi

; 222  : }

  00036	5d		 pop	 ebp
  00037	c3		 ret	 0
?ToZoneEffectWeapon@@YAPAVioZoneEffectWeapon@@PAVioWeapon@@@Z ENDP ; ToZoneEffectWeapon
_TEXT	ENDS
PUBLIC	?_Adopt@_Iterator_base0@std@@QAEXPBX@Z		; std::_Iterator_base0::_Adopt
; Function compile flags: /Ogsp
; File c:\program files (x86)\microsoft visual studio 10.0\vc\include\xutility
;	COMDAT ?_Adopt@_Iterator_base0@std@@QAEXPBX@Z
_TEXT	SEGMENT
___formal$ = 8						; size = 4
?_Adopt@_Iterator_base0@std@@QAEXPBX@Z PROC		; std::_Iterator_base0::_Adopt, COMDAT
; _this$ = ecx

; 49   : 		}

  00000	c2 04 00	 ret	 4
?_Adopt@_Iterator_base0@std@@QAEXPBX@Z ENDP		; std::_Iterator_base0::_Adopt
_TEXT	ENDS
PUBLIC	??_R0?AVioUroborusWeapon3@@@8			; ioUroborusWeapon3 `RTTI Type Descriptor'
PUBLIC	?ToUroborusWeapon3@@YAPAVioUroborusWeapon3@@PAVioWeapon@@@Z ; ToUroborusWeapon3
;	COMDAT ??_R0?AVioUroborusWeapon3@@@8
; File d:\lost saga for developer\youtube\tutorial\source\src\lsclient\iouroborusweapon3.h
_DATA	SEGMENT
??_R0?AVioUroborusWeapon3@@@8 DD FLAT:??_7type_info@@6B@ ; ioUroborusWeapon3 `RTTI Type Descriptor'
	DD	00H
	DB	'.?AVioUroborusWeapon3@@', 00H
; Function compile flags: /Ogsp
_DATA	ENDS
;	COMDAT ?ToUroborusWeapon3@@YAPAVioUroborusWeapon3@@PAVioWeapon@@@Z
_TEXT	SEGMENT
_pWeapon$ = 8						; size = 4
?ToUroborusWeapon3@@YAPAVioUroborusWeapon3@@PAVioWeapon@@@Z PROC ; ToUroborusWeapon3, COMDAT

; 158  : {

  00000	55		 push	 ebp
  00001	8b ec		 mov	 ebp, esp
  00003	56		 push	 esi

; 159  : 	if( !pWeapon || pWeapon->GetType() != ioWeapon::WT_UROBORUS3 )

  00004	8b 75 08	 mov	 esi, DWORD PTR _pWeapon$[ebp]
  00007	85 f6		 test	 esi, esi
  00009	74 28		 je	 SHORT $LN1@ToUroborus
  0000b	8b 06		 mov	 eax, DWORD PTR [esi]
  0000d	8b ce		 mov	 ecx, esi
  0000f	ff 90 10 01 00
	00		 call	 DWORD PTR [eax+272]
  00015	83 f8 4d	 cmp	 eax, 77			; 0000004dH
  00018	75 19		 jne	 SHORT $LN1@ToUroborus

; 161  : 
; 162  : 	return dynamic_cast< ioUroborusWeapon3* >( pWeapon );

  0001a	6a 00		 push	 0
  0001c	68 00 00 00 00	 push	 OFFSET ??_R0?AVioUroborusWeapon3@@@8
  00021	68 00 00 00 00	 push	 OFFSET ??_R0?AVioWeapon@@@8
  00026	6a 00		 push	 0
  00028	56		 push	 esi
  00029	e8 00 00 00 00	 call	 ___RTDynamicCast
  0002e	83 c4 14	 add	 esp, 20			; 00000014H
  00031	eb 02		 jmp	 SHORT $LN3@ToUroborus
$LN1@ToUroborus:

; 160  : 		return NULL;

  00033	33 c0		 xor	 eax, eax
$LN3@ToUroborus:
  00035	5e		 pop	 esi

; 163  : }

  00036	5d		 pop	 ebp
  00037	c3		 ret	 0
?ToUroborusWeapon3@@YAPAVioUroborusWeapon3@@PAVioWeapon@@@Z ENDP ; ToUroborusWeapon3
_TEXT	ENDS
PUBLIC	??0D3DXVECTOR3@@QAE@XZ				; D3DXVECTOR3::D3DXVECTOR3
; Function compile flags: /Ogsp
; File c:\program files (x86)\microsoft directx sdk (june 2010)\include\d3dx9math.h
;	COMDAT ??0D3DXVECTOR3@@QAE@XZ
_TEXT	SEGMENT
??0D3DXVECTOR3@@QAE@XZ PROC				; D3DXVECTOR3::D3DXVECTOR3, COMDAT
; _this$ = ecx

; 165  :     D3DXVECTOR3() {};

  00000	8b c1		 mov	 eax, ecx
  00002	c3		 ret	 0
??0D3DXVECTOR3@@QAE@XZ ENDP				; D3DXVECTOR3::D3DXVECTOR3
_TEXT	ENDS
PUBLIC	??0D3DXQUATERNION@@QAE@XZ			; D3DXQUATERNION::D3DXQUATERNION
; Function compile flags: /Ogsp
;	COMDAT ??0D3DXQUATERNION@@QAE@XZ
_TEXT	SEGMENT
??0D3DXQUATERNION@@QAE@XZ PROC				; D3DXQUATERNION::D3DXQUATERNION, COMDAT
; _this$ = ecx

; 429  :     D3DXQUATERNION() {}

  00000	8b c1		 mov	 eax, ecx
  00002	c3		 ret	 0
??0D3DXQUATERNION@@QAE@XZ ENDP				; D3DXQUATERNION::D3DXQUATERNION
_TEXT	ENDS
PUBLIC	??0D3DXVECTOR3@@QAE@MMM@Z			; D3DXVECTOR3::D3DXVECTOR3
; Function compile flags: /Ogsp
; File c:\program files (x86)\microsoft directx sdk (june 2010)\include\d3dx9math.inl
;	COMDAT ??0D3DXVECTOR3@@QAE@MMM@Z
_TEXT	SEGMENT
_fx$ = 8						; size = 4
_fy$ = 12						; size = 4
_fz$ = 16						; size = 4
??0D3DXVECTOR3@@QAE@MMM@Z PROC				; D3DXVECTOR3::D3DXVECTOR3, COMDAT
; _this$ = ecx

; 303  : {

  00000	55		 push	 ebp
  00001	8b ec		 mov	 ebp, esp

; 304  :     x = fx;

  00003	f3 0f 10 45 08	 movss	 xmm0, DWORD PTR _fx$[ebp]
  00008	8b c1		 mov	 eax, ecx
  0000a	f3 0f 11 00	 movss	 DWORD PTR [eax], xmm0

; 305  :     y = fy;

  0000e	f3 0f 10 45 0c	 movss	 xmm0, DWORD PTR _fy$[ebp]
  00013	f3 0f 11 40 04	 movss	 DWORD PTR [eax+4], xmm0

; 306  :     z = fz;

  00018	f3 0f 10 45 10	 movss	 xmm0, DWORD PTR _fz$[ebp]
  0001d	f3 0f 11 40 08	 movss	 DWORD PTR [eax+8], xmm0

; 307  : }

  00022	5d		 pop	 ebp
  00023	c2 0c 00	 ret	 12			; 0000000cH
??0D3DXVECTOR3@@QAE@MMM@Z ENDP				; D3DXVECTOR3::D3DXVECTOR3
_TEXT	ENDS
PUBLIC	__mask@@NegFloat@
PUBLIC	??GD3DXVECTOR3@@QBE?AU0@XZ			; D3DXVECTOR3::operator-
;	COMDAT __mask@@NegFloat@
CONST	SEGMENT
__mask@@NegFloat@ DB 00H, 00H, 00H, 080H, 00H, 00H, 00H, 080H, 00H, 00H, 00H
	DB	080H, 00H, 00H, 00H, 080H
; Function compile flags: /Ogsp
CONST	ENDS
;	COMDAT ??GD3DXVECTOR3@@QBE?AU0@XZ
_TEXT	SEGMENT
___$ReturnUdt$ = 8					; size = 4
??GD3DXVECTOR3@@QBE?AU0@XZ PROC				; D3DXVECTOR3::operator-, COMDAT
; _this$ = ecx

; 372  : {

  00000	55		 push	 ebp
  00001	8b ec		 mov	 ebp, esp

; 373  :     return D3DXVECTOR3(-x, -y, -z);

  00003	f3 0f 10 05 00
	00 00 00	 movss	 xmm0, DWORD PTR __mask@@NegFloat@
  0000b	8b 45 08	 mov	 eax, DWORD PTR ___$ReturnUdt$[ebp]
  0000e	f3 0f 10 09	 movss	 xmm1, DWORD PTR [ecx]
  00012	0f 57 c8	 xorps	 xmm1, xmm0
  00015	f3 0f 11 08	 movss	 DWORD PTR [eax], xmm1
  00019	f3 0f 10 49 04	 movss	 xmm1, DWORD PTR [ecx+4]
  0001e	0f 57 c8	 xorps	 xmm1, xmm0
  00021	f3 0f 11 48 04	 movss	 DWORD PTR [eax+4], xmm1
  00026	f3 0f 10 49 08	 movss	 xmm1, DWORD PTR [ecx+8]
  0002b	0f 57 c8	 xorps	 xmm1, xmm0
  0002e	f3 0f 11 48 08	 movss	 DWORD PTR [eax+8], xmm1

; 374  : }

  00033	5d		 pop	 ebp
  00034	c2 04 00	 ret	 4
??GD3DXVECTOR3@@QBE?AU0@XZ ENDP				; D3DXVECTOR3::operator-
_TEXT	ENDS
PUBLIC	??GD3DXVECTOR3@@QBE?AU0@ABU0@@Z			; D3DXVECTOR3::operator-
; Function compile flags: /Ogsp
;	COMDAT ??GD3DXVECTOR3@@QBE?AU0@ABU0@@Z
_TEXT	SEGMENT
___$ReturnUdt$ = 8					; size = 4
_v$ = 12						; size = 4
??GD3DXVECTOR3@@QBE?AU0@ABU0@@Z PROC			; D3DXVECTOR3::operator-, COMDAT
; _this$ = ecx

; 386  : {

  00000	55		 push	 ebp
  00001	8b ec		 mov	 ebp, esp

; 387  :     return D3DXVECTOR3(x - v.x, y - v.y, z - v.z);

  00003	8b 55 0c	 mov	 edx, DWORD PTR _v$[ebp]
  00006	f3 0f 10 01	 movss	 xmm0, DWORD PTR [ecx]
  0000a	f3 0f 10 0a	 movss	 xmm1, DWORD PTR [edx]
  0000e	8b 45 08	 mov	 eax, DWORD PTR ___$ReturnUdt$[ebp]
  00011	0f 5a c0	 cvtps2pd xmm0, xmm0
  00014	0f 5a c9	 cvtps2pd xmm1, xmm1
  00017	f2 0f 5c c1	 subsd	 xmm0, xmm1
  0001b	f3 0f 10 4a 04	 movss	 xmm1, DWORD PTR [edx+4]
  00020	66 0f 5a c0	 cvtpd2ps xmm0, xmm0
  00024	f3 0f 11 00	 movss	 DWORD PTR [eax], xmm0
  00028	f3 0f 10 41 04	 movss	 xmm0, DWORD PTR [ecx+4]
  0002d	0f 5a c0	 cvtps2pd xmm0, xmm0
  00030	0f 5a c9	 cvtps2pd xmm1, xmm1
  00033	f2 0f 5c c1	 subsd	 xmm0, xmm1
  00037	f3 0f 10 4a 08	 movss	 xmm1, DWORD PTR [edx+8]
  0003c	66 0f 5a c0	 cvtpd2ps xmm0, xmm0
  00040	f3 0f 11 40 04	 movss	 DWORD PTR [eax+4], xmm0
  00045	f3 0f 10 41 08	 movss	 xmm0, DWORD PTR [ecx+8]
  0004a	0f 5a c0	 cvtps2pd xmm0, xmm0
  0004d	0f 5a c9	 cvtps2pd xmm1, xmm1
  00050	f2 0f 5c c1	 subsd	 xmm0, xmm1
  00054	66 0f 5a c0	 cvtpd2ps xmm0, xmm0
  00058	f3 0f 11 40 08	 movss	 DWORD PTR [eax+8], xmm0

; 388  : }

  0005d	5d		 pop	 ebp
  0005e	c2 08 00	 ret	 8
??GD3DXVECTOR3@@QBE?AU0@ABU0@@Z ENDP			; D3DXVECTOR3::operator-
_TEXT	ENDS
PUBLIC	??DD3DXVECTOR3@@QBE?AU0@M@Z			; D3DXVECTOR3::operator*
; Function compile flags: /Ogsp
;	COMDAT ??DD3DXVECTOR3@@QBE?AU0@M@Z
_TEXT	SEGMENT
___$ReturnUdt$ = 8					; size = 4
_f$ = 12						; size = 4
??DD3DXVECTOR3@@QBE?AU0@M@Z PROC			; D3DXVECTOR3::operator*, COMDAT
; _this$ = ecx

; 392  : {

  00000	55		 push	 ebp
  00001	8b ec		 mov	 ebp, esp

; 393  :     return D3DXVECTOR3(x * f, y * f, z * f);

  00003	f3 0f 10 4d 0c	 movss	 xmm1, DWORD PTR _f$[ebp]
  00008	f3 0f 10 01	 movss	 xmm0, DWORD PTR [ecx]
  0000c	8b 45 08	 mov	 eax, DWORD PTR ___$ReturnUdt$[ebp]
  0000f	0f 5a c0	 cvtps2pd xmm0, xmm0
  00012	0f 5a c9	 cvtps2pd xmm1, xmm1
  00015	f2 0f 59 c1	 mulsd	 xmm0, xmm1
  00019	f3 0f 10 4d 0c	 movss	 xmm1, DWORD PTR _f$[ebp]
  0001e	66 0f 5a c0	 cvtpd2ps xmm0, xmm0
  00022	f3 0f 11 00	 movss	 DWORD PTR [eax], xmm0
  00026	f3 0f 10 41 04	 movss	 xmm0, DWORD PTR [ecx+4]
  0002b	0f 5a c0	 cvtps2pd xmm0, xmm0
  0002e	0f 5a c9	 cvtps2pd xmm1, xmm1
  00031	f2 0f 59 c1	 mulsd	 xmm0, xmm1
  00035	f3 0f 10 4d 0c	 movss	 xmm1, DWORD PTR _f$[ebp]
  0003a	66 0f 5a c0	 cvtpd2ps xmm0, xmm0
  0003e	f3 0f 11 40 04	 movss	 DWORD PTR [eax+4], xmm0
  00043	f3 0f 10 41 08	 movss	 xmm0, DWORD PTR [ecx+8]
  00048	0f 5a c0	 cvtps2pd xmm0, xmm0
  0004b	0f 5a c9	 cvtps2pd xmm1, xmm1
  0004e	f2 0f 59 c1	 mulsd	 xmm0, xmm1
  00052	66 0f 5a c0	 cvtpd2ps xmm0, xmm0
  00056	f3 0f 11 40 08	 movss	 DWORD PTR [eax+8], xmm0

; 394  : }

  0005b	5d		 pop	 ebp
  0005c	c2 08 00	 ret	 8
??DD3DXVECTOR3@@QBE?AU0@M@Z ENDP			; D3DXVECTOR3::operator*
_TEXT	ENDS
PUBLIC	??8D3DXVECTOR3@@QBEHABU0@@Z			; D3DXVECTOR3::operator==
; Function compile flags: /Ogsp
;	COMDAT ??8D3DXVECTOR3@@QBEHABU0@@Z
_TEXT	SEGMENT
_v$ = 8							; size = 4
??8D3DXVECTOR3@@QBEHABU0@@Z PROC			; D3DXVECTOR3::operator==, COMDAT
; _this$ = ecx

; 413  : {

  00000	55		 push	 ebp
  00001	8b ec		 mov	 ebp, esp

; 414  :     return x == v.x && y == v.y && z == v.z;

  00003	8b 55 08	 mov	 edx, DWORD PTR _v$[ebp]
  00006	f3 0f 10 01	 movss	 xmm0, DWORD PTR [ecx]
  0000a	f3 0f 10 0a	 movss	 xmm1, DWORD PTR [edx]
  0000e	0f 5a c0	 cvtps2pd xmm0, xmm0
  00011	0f 5a c9	 cvtps2pd xmm1, xmm1
  00014	66 0f 2e c1	 ucomisd xmm0, xmm1
  00018	9f		 lahf
  00019	f6 c4 44	 test	 ah, 68			; 00000044H
  0001c	7a 39		 jp	 SHORT $LN3@operator
  0001e	f3 0f 10 41 04	 movss	 xmm0, DWORD PTR [ecx+4]
  00023	f3 0f 10 4a 04	 movss	 xmm1, DWORD PTR [edx+4]
  00028	0f 5a c0	 cvtps2pd xmm0, xmm0
  0002b	0f 5a c9	 cvtps2pd xmm1, xmm1
  0002e	66 0f 2e c1	 ucomisd xmm0, xmm1
  00032	9f		 lahf
  00033	f6 c4 44	 test	 ah, 68			; 00000044H
  00036	7a 1f		 jp	 SHORT $LN3@operator
  00038	f3 0f 10 41 08	 movss	 xmm0, DWORD PTR [ecx+8]
  0003d	f3 0f 10 4a 08	 movss	 xmm1, DWORD PTR [edx+8]
  00042	0f 5a c0	 cvtps2pd xmm0, xmm0
  00045	0f 5a c9	 cvtps2pd xmm1, xmm1
  00048	66 0f 2e c1	 ucomisd xmm0, xmm1
  0004c	9f		 lahf
  0004d	f6 c4 44	 test	 ah, 68			; 00000044H
  00050	7a 05		 jp	 SHORT $LN3@operator
  00052	33 c0		 xor	 eax, eax
  00054	40		 inc	 eax
  00055	eb 02		 jmp	 SHORT $LN4@operator
$LN3@operator:
  00057	33 c0		 xor	 eax, eax
$LN4@operator:

; 415  : }

  00059	5d		 pop	 ebp
  0005a	c2 04 00	 ret	 4
??8D3DXVECTOR3@@QBEHABU0@@Z ENDP			; D3DXVECTOR3::operator==
_TEXT	ENDS
PUBLIC	?D3DXVec3Dot@@YAMPBUD3DXVECTOR3@@0@Z		; D3DXVec3Dot
; Function compile flags: /Ogsp
;	COMDAT ?D3DXVec3Dot@@YAMPBUD3DXVECTOR3@@0@Z
_TEXT	SEGMENT
tv188 = 8						; size = 4
_pV1$ = 8						; size = 4
_pV2$ = 12						; size = 4
?D3DXVec3Dot@@YAMPBUD3DXVECTOR3@@0@Z PROC		; D3DXVec3Dot, COMDAT

; 1736 : {

  00000	55		 push	 ebp
  00001	8b ec		 mov	 ebp, esp

; 1737 : #ifdef D3DX_DEBUG
; 1738 :     if(!pV1 || !pV2)
; 1739 :         return 0.0f;
; 1740 : #endif
; 1741 : 
; 1742 :     return pV1->x * pV2->x + pV1->y * pV2->y + pV1->z * pV2->z;

  00003	8b 45 08	 mov	 eax, DWORD PTR _pV1$[ebp]
  00006	8b 4d 0c	 mov	 ecx, DWORD PTR _pV2$[ebp]
  00009	d9 40 04	 fld	 DWORD PTR [eax+4]
  0000c	d8 49 04	 fmul	 DWORD PTR [ecx+4]
  0000f	d9 00		 fld	 DWORD PTR [eax]
  00011	d8 09		 fmul	 DWORD PTR [ecx]
  00013	de c1		 faddp	 ST(1), ST(0)
  00015	d9 40 08	 fld	 DWORD PTR [eax+8]
  00018	d8 49 08	 fmul	 DWORD PTR [ecx+8]
  0001b	de c1		 faddp	 ST(1), ST(0)
  0001d	d9 5d 08	 fstp	 DWORD PTR tv188[ebp]
  00020	d9 45 08	 fld	 DWORD PTR tv188[ebp]

; 1743 : }

  00023	5d		 pop	 ebp
  00024	c3		 ret	 0
?D3DXVec3Dot@@YAMPBUD3DXVECTOR3@@0@Z ENDP		; D3DXVec3Dot
_TEXT	ENDS
PUBLIC	?D3DXVec3Cross@@YAPAUD3DXVECTOR3@@PAU1@PBU1@1@Z	; D3DXVec3Cross
; Function compile flags: /Ogsp
;	COMDAT ?D3DXVec3Cross@@YAPAUD3DXVECTOR3@@PAU1@PBU1@1@Z
_TEXT	SEGMENT
_v$ = -12						; size = 12
_pOut$ = 8						; size = 4
_pV1$ = 12						; size = 4
_pV2$ = 16						; size = 4
?D3DXVec3Cross@@YAPAUD3DXVECTOR3@@PAU1@PBU1@1@Z PROC	; D3DXVec3Cross, COMDAT

; 1747 : {

  00000	55		 push	 ebp
  00001	8b ec		 mov	 ebp, esp
  00003	83 ec 0c	 sub	 esp, 12			; 0000000cH

; 1757 :     v.z = pV1->x * pV2->y - pV1->y * pV2->x;
; 1758 : 
; 1759 :     *pOut = v;

  00006	56		 push	 esi
  00007	57		 push	 edi

; 1748 :     D3DXVECTOR3 v;
; 1749 : 
; 1750 : #ifdef D3DX_DEBUG
; 1751 :     if(!pOut || !pV1 || !pV2)
; 1752 :         return NULL;
; 1753 : #endif
; 1754 : 
; 1755 :     v.x = pV1->y * pV2->z - pV1->z * pV2->y;

  00008	8b 45 0c	 mov	 eax, DWORD PTR _pV1$[ebp]
  0000b	f3 0f 10 40 04	 movss	 xmm0, DWORD PTR [eax+4]
  00010	f3 0f 10 50 08	 movss	 xmm2, DWORD PTR [eax+8]
  00015	8b 4d 10	 mov	 ecx, DWORD PTR _pV2$[ebp]
  00018	f3 0f 10 49 08	 movss	 xmm1, DWORD PTR [ecx+8]
  0001d	f3 0f 10 59 04	 movss	 xmm3, DWORD PTR [ecx+4]
  00022	0f 5a e8	 cvtps2pd xmm5, xmm0
  00025	0f 5a e1	 cvtps2pd xmm4, xmm1
  00028	0f 5a f2	 cvtps2pd xmm6, xmm2
  0002b	f2 0f 59 e5	 mulsd	 xmm4, xmm5

; 1756 :     v.y = pV1->z * pV2->x - pV1->x * pV2->z;

  0002f	0f 5a d2	 cvtps2pd xmm2, xmm2
  00032	0f 5a c9	 cvtps2pd xmm1, xmm1
  00035	0f 5a eb	 cvtps2pd xmm5, xmm3
  00038	f2 0f 59 ee	 mulsd	 xmm5, xmm6
  0003c	f2 0f 5c e5	 subsd	 xmm4, xmm5
  00040	f3 0f 10 28	 movss	 xmm5, DWORD PTR [eax]

; 1757 :     v.z = pV1->x * pV2->y - pV1->y * pV2->x;
; 1758 : 
; 1759 :     *pOut = v;

  00044	8b 45 08	 mov	 eax, DWORD PTR _pOut$[ebp]
  00047	66 0f 5a e4	 cvtpd2ps xmm4, xmm4
  0004b	f3 0f 11 65 f4	 movss	 DWORD PTR _v$[ebp], xmm4
  00050	f3 0f 10 21	 movss	 xmm4, DWORD PTR [ecx]
  00054	0f 5a f4	 cvtps2pd xmm6, xmm4
  00057	f2 0f 59 f2	 mulsd	 xmm6, xmm2
  0005b	0f 5a d5	 cvtps2pd xmm2, xmm5
  0005e	f2 0f 59 d1	 mulsd	 xmm2, xmm1
  00062	f2 0f 5c f2	 subsd	 xmm6, xmm2
  00066	66 0f 5a ce	 cvtpd2ps xmm1, xmm6
  0006a	f3 0f 11 4d f8	 movss	 DWORD PTR _v$[ebp+4], xmm1
  0006f	0f 5a c0	 cvtps2pd xmm0, xmm0
  00072	0f 5a d3	 cvtps2pd xmm2, xmm3
  00075	0f 5a cd	 cvtps2pd xmm1, xmm5
  00078	f2 0f 59 ca	 mulsd	 xmm1, xmm2
  0007c	8d 75 f4	 lea	 esi, DWORD PTR _v$[ebp]
  0007f	8b f8		 mov	 edi, eax
  00081	0f 5a d4	 cvtps2pd xmm2, xmm4
  00084	f2 0f 59 d0	 mulsd	 xmm2, xmm0
  00088	f2 0f 5c ca	 subsd	 xmm1, xmm2
  0008c	66 0f 5a c1	 cvtpd2ps xmm0, xmm1
  00090	f3 0f 11 45 fc	 movss	 DWORD PTR _v$[ebp+8], xmm0
  00095	a5		 movsd
  00096	a5		 movsd
  00097	a5		 movsd
  00098	5f		 pop	 edi
  00099	5e		 pop	 esi

; 1760 :     return pOut;
; 1761 : }

  0009a	c9		 leave
  0009b	c3		 ret	 0
?D3DXVec3Cross@@YAPAUD3DXVECTOR3@@PAU1@PBU1@1@Z ENDP	; D3DXVec3Cross
_TEXT	ENDS
PUBLIC	??_R0?AVioExtendJump@@@8			; ioExtendJump `RTTI Type Descriptor'
PUBLIC	??_R0?AVioChargeComboJump2@@@8			; ioChargeComboJump2 `RTTI Type Descriptor'
PUBLIC	?ToChargeComboJump2@@YAPAVioChargeComboJump2@@PAVioExtendJump@@@Z ; ToChargeComboJump2
;	COMDAT ??_R0?AVioExtendJump@@@8
; File d:\lost saga for developer\youtube\tutorial\source\src\lsclient\iochargecombojump2.h
_DATA	SEGMENT
??_R0?AVioExtendJump@@@8 DD FLAT:??_7type_info@@6B@	; ioExtendJump `RTTI Type Descriptor'
	DD	00H
	DB	'.?AVioExtendJump@@', 00H
_DATA	ENDS
;	COMDAT ??_R0?AVioChargeComboJump2@@@8
_DATA	SEGMENT
??_R0?AVioChargeComboJump2@@@8 DD FLAT:??_7type_info@@6B@ ; ioChargeComboJump2 `RTTI Type Descriptor'
	DD	00H
	DB	'.?AVioChargeComboJump2@@', 00H
; Function compile flags: /Ogsp
_DATA	ENDS
;	COMDAT ?ToChargeComboJump2@@YAPAVioChargeComboJump2@@PAVioExtendJump@@@Z
_TEXT	SEGMENT
_pJump$ = 8						; size = 4
?ToChargeComboJump2@@YAPAVioChargeComboJump2@@PAVioExtendJump@@@Z PROC ; ToChargeComboJump2, COMDAT

; 686  : {

  00000	55		 push	 ebp
  00001	8b ec		 mov	 ebp, esp
  00003	56		 push	 esi

; 687  : 	if( !pJump || pJump->GetType() != JT_CHARGE_COMBO2 )

  00004	8b 75 08	 mov	 esi, DWORD PTR _pJump$[ebp]
  00007	85 f6		 test	 esi, esi
  00009	74 25		 je	 SHORT $LN1@ToChargeCo
  0000b	8b 06		 mov	 eax, DWORD PTR [esi]
  0000d	8b ce		 mov	 ecx, esi
  0000f	ff 50 08	 call	 DWORD PTR [eax+8]
  00012	83 f8 12	 cmp	 eax, 18			; 00000012H
  00015	75 19		 jne	 SHORT $LN1@ToChargeCo

; 689  : 
; 690  : 	return dynamic_cast< ioChargeComboJump2* >( pJump );

  00017	6a 00		 push	 0
  00019	68 00 00 00 00	 push	 OFFSET ??_R0?AVioChargeComboJump2@@@8
  0001e	68 00 00 00 00	 push	 OFFSET ??_R0?AVioExtendJump@@@8
  00023	6a 00		 push	 0
  00025	56		 push	 esi
  00026	e8 00 00 00 00	 call	 ___RTDynamicCast
  0002b	83 c4 14	 add	 esp, 20			; 00000014H
  0002e	eb 02		 jmp	 SHORT $LN3@ToChargeCo
$LN1@ToChargeCo:

; 688  : 		return NULL;

  00030	33 c0		 xor	 eax, eax
$LN3@ToChargeCo:
  00032	5e		 pop	 esi

; 691  : }

  00033	5d		 pop	 ebp
  00034	c3		 ret	 0
?ToChargeComboJump2@@YAPAVioChargeComboJump2@@PAVioExtendJump@@@Z ENDP ; ToChargeComboJump2
_TEXT	ENDS
PUBLIC	?GetSubType@ioDraculaItem@@UBE?AW4WeaponSubType@ioWeaponItem@@XZ ; ioDraculaItem::GetSubType
; Function compile flags: /Ogsp
; File d:\lost saga for developer\youtube\tutorial\source\src\lsclient\iodraculaitem.cpp
;	COMDAT ?GetSubType@ioDraculaItem@@UBE?AW4WeaponSubType@ioWeaponItem@@XZ
_TEXT	SEGMENT
?GetSubType@ioDraculaItem@@UBE?AW4WeaponSubType@ioWeaponItem@@XZ PROC ; ioDraculaItem::GetSubType, COMDAT
; _this$ = ecx

; 154  : 	return WST_DRACULA;

  00000	6a 49		 push	 73			; 00000049H
  00002	58		 pop	 eax

; 155  : }

  00003	c3		 ret	 0
?GetSubType@ioDraculaItem@@UBE?AW4WeaponSubType@ioWeaponItem@@XZ ENDP ; ioDraculaItem::GetSubType
_TEXT	ENDS
PUBLIC	__real@4f800000
PUBLIC	__real@bf800000
PUBLIC	__$ArrayPad$
PUBLIC	?SetExtraInfoToWeapon@ioDraculaItem@@UAEXPAVioWeapon@@_N@Z ; ioDraculaItem::SetExtraInfoToWeapon
EXTRN	?SetZoneValue@ioZoneEffectWeapon@@QAEX_N0@Z:PROC ; ioZoneEffectWeapon::SetZoneValue
EXTRN	?SetCollisionDir@ioZoneEffectWeapon@@QAEXAAUD3DXVECTOR3@@@Z:PROC ; ioZoneEffectWeapon::SetCollisionDir
EXTRN	?GetBaseChar@ioBaseChar@@QAEPAV1@ABVioHashString@@@Z:PROC ; ioBaseChar::GetBaseChar
EXTRN	__imp_?IsEmpty@ioHashString@@QBE_NXZ:PROC
EXTRN	_D3DXVec3Normalize@8:PROC
EXTRN	__imp_??D@YA?AUD3DXVECTOR3@@ABUD3DXQUATERNION@@ABU0@@Z:PROC
EXTRN	?GetOwner@ioWeapon@@QBEPAVioBaseChar@@XZ:PROC	; ioWeapon::GetOwner
EXTRN	?SetExtraInfoToWeapon@ioAttackableItem@@UAEXPAVioWeapon@@_N@Z:PROC ; ioAttackableItem::SetExtraInfoToWeapon
EXTRN	___security_cookie:DWORD
EXTRN	@__security_check_cookie@4:PROC
;	COMDAT __real@4f800000
; File d:\lost saga for developer\youtube\tutorial\source\src\lsclient\iobasechar.h
CONST	SEGMENT
__real@4f800000 DD 04f800000r			; 4.29497e+009
CONST	ENDS
;	COMDAT __real@bf800000
CONST	SEGMENT
__real@bf800000 DD 0bf800000r			; -1
; Function compile flags: /Ogsp
; File d:\lost saga for developer\youtube\tutorial\source\src\lsclient\iodraculaitem.cpp
CONST	ENDS
;	COMDAT ?SetExtraInfoToWeapon@ioDraculaItem@@UAEXPAVioWeapon@@_N@Z
_TEXT	SEGMENT
tv320 = -32						; size = 4
_pUroborus3$ = -32					; size = 4
_vDir$608028 = -28					; size = 12
$T608023 = -28						; size = 12
$T608018 = -28						; size = 12
$T608030 = -16						; size = 12
_vDir$608017 = -16					; size = 12
__$ArrayPad$ = -4					; size = 4
_pWeapon$ = 8						; size = 4
_bJumpAttack$ = 12					; size = 1
?SetExtraInfoToWeapon@ioDraculaItem@@UAEXPAVioWeapon@@_N@Z PROC ; ioDraculaItem::SetExtraInfoToWeapon, COMDAT
; _this$ = ecx

; 406  : {

  00000	55		 push	 ebp
  00001	8b ec		 mov	 ebp, esp
  00003	83 ec 20	 sub	 esp, 32			; 00000020H
  00006	a1 00 00 00 00	 mov	 eax, DWORD PTR ___security_cookie
  0000b	33 c5		 xor	 eax, ebp
  0000d	89 45 fc	 mov	 DWORD PTR __$ArrayPad$[ebp], eax
  00010	53		 push	 ebx
  00011	8b 5d 08	 mov	 ebx, DWORD PTR _pWeapon$[ebp]
  00014	56		 push	 esi
  00015	57		 push	 edi

; 407  : 	ioAttackableItem::SetExtraInfoToWeapon( pWeapon, bJumpAttack );

  00016	ff 75 0c	 push	 DWORD PTR _bJumpAttack$[ebp]
  00019	8b f9		 mov	 edi, ecx
  0001b	53		 push	 ebx
  0001c	e8 00 00 00 00	 call	 ?SetExtraInfoToWeapon@ioAttackableItem@@UAEXPAVioWeapon@@_N@Z ; ioAttackableItem::SetExtraInfoToWeapon

; 408  : 
; 409  : 	ioUroborusWeapon3 *pUroborus3 = ToUroborusWeapon3( pWeapon );

  00021	53		 push	 ebx
  00022	e8 00 00 00 00	 call	 ?ToUroborusWeapon3@@YAPAVioUroborusWeapon3@@PAVioWeapon@@@Z ; ToUroborusWeapon3
  00027	59		 pop	 ecx
  00028	89 45 e0	 mov	 DWORD PTR _pUroborus3$[ebp], eax

; 410  : 	if( pUroborus3 )

  0002b	85 c0		 test	 eax, eax
  0002d	0f 84 f8 00 00
	00		 je	 $LN25@SetExtraIn

; 411  : 	{
; 412  : 		ioBaseChar *pChar = pWeapon->GetOwner();

  00033	8b cb		 mov	 ecx, ebx
  00035	e8 00 00 00 00	 call	 ?GetOwner@ioWeapon@@QBEPAVioBaseChar@@XZ ; ioWeapon::GetOwner
  0003a	8b f0		 mov	 esi, eax

; 413  : 		if( pChar )

  0003c	85 f6		 test	 esi, esi
  0003e	0f 84 e7 00 00
	00		 je	 $LN25@SetExtraIn

; 414  : 		{
; 415  : 			D3DXVECTOR3 vDir = pChar->GetTargetRot() * D3DXVECTOR3( 0, 0, -1 );

  00044	0f 57 c0	 xorps	 xmm0, xmm0
  00047	8d 45 e4	 lea	 eax, DWORD PTR $T608018[ebp]
  0004a	50		 push	 eax
  0004b	8d 86 a4 06 00
	00		 lea	 eax, DWORD PTR [esi+1700]
  00051	50		 push	 eax
  00052	8d 45 f0	 lea	 eax, DWORD PTR _vDir$608017[ebp]
  00055	f3 0f 11 45 e4	 movss	 DWORD PTR $T608018[ebp], xmm0
  0005a	f3 0f 11 45 e8	 movss	 DWORD PTR $T608018[ebp+4], xmm0
  0005f	f3 0f 10 05 00
	00 00 00	 movss	 xmm0, DWORD PTR __real@bf800000
  00067	50		 push	 eax
  00068	f3 0f 11 45 ec	 movss	 DWORD PTR $T608018[ebp+8], xmm0
  0006d	ff 15 00 00 00
	00		 call	 DWORD PTR __imp_??D@YA?AUD3DXVECTOR3@@ABUD3DXQUATERNION@@ABU0@@Z
  00073	83 c4 0c	 add	 esp, 12			; 0000000cH

; 416  : 			D3DXVec3Normalize( &vDir, &vDir );

  00076	8d 45 f0	 lea	 eax, DWORD PTR _vDir$608017[ebp]
  00079	50		 push	 eax
  0007a	50		 push	 eax
  0007b	e8 00 00 00 00	 call	 _D3DXVec3Normalize@8

; 417  : 
; 418  : 			if( !m_Target.IsEmpty() )

  00080	81 c7 24 1a 00
	00		 add	 edi, 6692		; 00001a24H
  00086	8b cf		 mov	 ecx, edi
  00088	ff 15 00 00 00
	00		 call	 DWORD PTR __imp_?IsEmpty@ioHashString@@QBE_NXZ
  0008e	84 c0		 test	 al, al
  00090	0f 85 86 00 00
	00		 jne	 $LN23@SetExtraIn

; 419  : 			{
; 420  : 				ioBaseChar *pTargetChar = pChar->GetBaseChar( m_Target );

  00096	57		 push	 edi
  00097	8b ce		 mov	 ecx, esi
  00099	e8 00 00 00 00	 call	 ?GetBaseChar@ioBaseChar@@QAEPAV1@ABVioHashString@@@Z ; ioBaseChar::GetBaseChar
  0009e	8b f8		 mov	 edi, eax

; 421  : 				if( pTargetChar )

  000a0	85 ff		 test	 edi, edi
  000a2	74 78		 je	 SHORT $LN23@SetExtraIn

; 422  : 				{
; 423  : 					vDir = pTargetChar->GetWorldPosition() - pChar->GetWorldPosition();

  000a4	8b 06		 mov	 eax, DWORD PTR [esi]
  000a6	8b ce		 mov	 ecx, esi
  000a8	ff 50 70	 call	 DWORD PTR [eax+112]
  000ab	8b f0		 mov	 esi, eax
  000ad	8b 07		 mov	 eax, DWORD PTR [edi]
  000af	8b cf		 mov	 ecx, edi
  000b1	ff 50 70	 call	 DWORD PTR [eax+112]
  000b4	f3 0f 10 00	 movss	 xmm0, DWORD PTR [eax]
  000b8	f3 0f 10 0e	 movss	 xmm1, DWORD PTR [esi]
  000bc	0f 5a c0	 cvtps2pd xmm0, xmm0
  000bf	0f 5a c9	 cvtps2pd xmm1, xmm1
  000c2	f2 0f 5c c1	 subsd	 xmm0, xmm1
  000c6	f3 0f 10 4e 04	 movss	 xmm1, DWORD PTR [esi+4]
  000cb	66 0f 5a c0	 cvtpd2ps xmm0, xmm0
  000cf	f3 0f 11 45 e4	 movss	 DWORD PTR $T608023[ebp], xmm0
  000d4	f3 0f 10 40 04	 movss	 xmm0, DWORD PTR [eax+4]
  000d9	0f 5a c0	 cvtps2pd xmm0, xmm0
  000dc	0f 5a c9	 cvtps2pd xmm1, xmm1
  000df	f2 0f 5c c1	 subsd	 xmm0, xmm1
  000e3	f3 0f 10 4e 08	 movss	 xmm1, DWORD PTR [esi+8]
  000e8	66 0f 5a c0	 cvtpd2ps xmm0, xmm0
  000ec	f3 0f 11 45 e8	 movss	 DWORD PTR $T608023[ebp+4], xmm0
  000f1	f3 0f 10 40 08	 movss	 xmm0, DWORD PTR [eax+8]
  000f6	0f 5a c0	 cvtps2pd xmm0, xmm0
  000f9	0f 5a c9	 cvtps2pd xmm1, xmm1
  000fc	f2 0f 5c c1	 subsd	 xmm0, xmm1
  00100	66 0f 5a c0	 cvtpd2ps xmm0, xmm0
  00104	f3 0f 11 45 ec	 movss	 DWORD PTR $T608023[ebp+8], xmm0
  00109	8d 75 e4	 lea	 esi, DWORD PTR $T608023[ebp]
  0010c	8d 7d f0	 lea	 edi, DWORD PTR _vDir$608017[ebp]
  0010f	a5		 movsd

; 424  : 					D3DXVec3Normalize( &vDir, &vDir );

  00110	8d 45 f0	 lea	 eax, DWORD PTR _vDir$608017[ebp]
  00113	a5		 movsd
  00114	50		 push	 eax
  00115	50		 push	 eax
  00116	a5		 movsd
  00117	e8 00 00 00 00	 call	 _D3DXVec3Normalize@8
$LN23@SetExtraIn:

; 425  : 				}
; 426  : 			}	
; 427  : 			
; 428  : 			pUroborus3->SetMoveDir( vDir );

  0011c	8b 4d e0	 mov	 ecx, DWORD PTR _pUroborus3$[ebp]
  0011f	8b 01		 mov	 eax, DWORD PTR [ecx]
  00121	8d 55 f0	 lea	 edx, DWORD PTR _vDir$608017[ebp]
  00124	52		 push	 edx
  00125	ff 90 b0 00 00
	00		 call	 DWORD PTR [eax+176]
$LN25@SetExtraIn:

; 429  : 		}
; 430  : 	}
; 431  : 
; 432  : 	ioZoneEffectWeapon *pZone = ToZoneEffectWeapon( pWeapon );

  0012b	53		 push	 ebx
  0012c	e8 00 00 00 00	 call	 ?ToZoneEffectWeapon@@YAPAVioZoneEffectWeapon@@PAVioWeapon@@@Z ; ToZoneEffectWeapon
  00131	8b f0		 mov	 esi, eax
  00133	59		 pop	 ecx

; 433  : 	if( pZone )

  00134	85 f6		 test	 esi, esi
  00136	74 62		 je	 SHORT $LN1@SetExtraIn

; 434  : 	{
; 435  : 		ioBaseChar *pChar = pZone->GetOwner();

  00138	8b ce		 mov	 ecx, esi
  0013a	e8 00 00 00 00	 call	 ?GetOwner@ioWeapon@@QBEPAVioBaseChar@@XZ ; ioWeapon::GetOwner
  0013f	8b c8		 mov	 ecx, eax

; 436  : 		if( pChar )

  00141	85 c9		 test	 ecx, ecx
  00143	74 55		 je	 SHORT $LN1@SetExtraIn

; 437  : 		{
; 438  : 			D3DXVECTOR3 vDir = pChar->GetTargetRot() * D3DXVECTOR3( 0.0f, 0.0f, -FLOAT1 );

  00145	b8 01 00 00 00	 mov	 eax, 1
  0014a	0f 57 c0	 xorps	 xmm0, xmm0
  0014d	89 45 e0	 mov	 DWORD PTR tv320[ebp], eax
  00150	db 45 e0	 fild	 DWORD PTR tv320[ebp]
  00153	f3 0f 11 45 f0	 movss	 DWORD PTR $T608030[ebp], xmm0
  00158	f3 0f 11 45 f4	 movss	 DWORD PTR $T608030[ebp+4], xmm0
  0015d	85 c0		 test	 eax, eax
  0015f	79 06		 jns	 SHORT $LN26@SetExtraIn
  00161	d8 05 00 00 00
	00		 fadd	 DWORD PTR __real@4f800000
$LN26@SetExtraIn:
  00167	8d 45 f0	 lea	 eax, DWORD PTR $T608030[ebp]
  0016a	d9 e0		 fchs
  0016c	50		 push	 eax
  0016d	d9 5d f8	 fstp	 DWORD PTR $T608030[ebp+8]
  00170	81 c1 a4 06 00
	00		 add	 ecx, 1700		; 000006a4H
  00176	51		 push	 ecx
  00177	8d 45 e4	 lea	 eax, DWORD PTR _vDir$608028[ebp]
  0017a	50		 push	 eax
  0017b	ff 15 00 00 00
	00		 call	 DWORD PTR __imp_??D@YA?AUD3DXVECTOR3@@ABUD3DXQUATERNION@@ABU0@@Z
  00181	83 c4 0c	 add	 esp, 12			; 0000000cH

; 439  : 			pZone->SetCollisionDir( vDir );

  00184	8d 45 e4	 lea	 eax, DWORD PTR _vDir$608028[ebp]
  00187	50		 push	 eax
  00188	8b ce		 mov	 ecx, esi
  0018a	e8 00 00 00 00	 call	 ?SetCollisionDir@ioZoneEffectWeapon@@QAEXAAUD3DXVECTOR3@@@Z ; ioZoneEffectWeapon::SetCollisionDir

; 440  : 			pZone->SetZoneValue( false, false );

  0018f	6a 00		 push	 0
  00191	6a 00		 push	 0
  00193	8b ce		 mov	 ecx, esi
  00195	e8 00 00 00 00	 call	 ?SetZoneValue@ioZoneEffectWeapon@@QAEX_N0@Z ; ioZoneEffectWeapon::SetZoneValue
$LN1@SetExtraIn:

; 441  : 		}
; 442  : 	}
; 443  : }

  0019a	8b 4d fc	 mov	 ecx, DWORD PTR __$ArrayPad$[ebp]
  0019d	5f		 pop	 edi
  0019e	5e		 pop	 esi
  0019f	33 cd		 xor	 ecx, ebp
  001a1	5b		 pop	 ebx
  001a2	e8 00 00 00 00	 call	 @__security_check_cookie@4
  001a7	c9		 leave
  001a8	c2 08 00	 ret	 8
?SetExtraInfoToWeapon@ioDraculaItem@@UAEXPAVioWeapon@@_N@Z ENDP ; ioDraculaItem::SetExtraInfoToWeapon
_TEXT	ENDS
PUBLIC	?IsDraculaState@ioDraculaItem@@QAE_NXZ		; ioDraculaItem::IsDraculaState
; Function compile flags: /Ogsp
;	COMDAT ?IsDraculaState@ioDraculaItem@@QAE_NXZ
_TEXT	SEGMENT
?IsDraculaState@ioDraculaItem@@QAE_NXZ PROC		; ioDraculaItem::IsDraculaState, COMDAT
; _this$ = ecx

; 995  : 	switch( m_FlyState )

  00000	8b 81 68 19 00
	00		 mov	 eax, DWORD PTR [ecx+6504]
  00006	33 c9		 xor	 ecx, ecx
  00008	48		 dec	 eax
  00009	41		 inc	 ecx
  0000a	3b c8		 cmp	 ecx, eax
  0000c	1a c0		 sbb	 al, al
  0000e	fe c0		 inc	 al

; 996  : 	{
; 997  : 	case LFS_START:
; 998  : 	case LFS_DELAY:
; 999  : 		return true;
; 1000 : 	}
; 1001 : 
; 1002 : 	return false;
; 1003 : }

  00010	c3		 ret	 0
?IsDraculaState@ioDraculaItem@@QAE_NXZ ENDP		; ioDraculaItem::IsDraculaState
_TEXT	ENDS
PUBLIC	?OnEquiped@ioDraculaItem@@UAEXPAVioBaseChar@@@Z	; ioDraculaItem::OnEquiped
EXTRN	?OnEquiped@ioAttackableItem@@UAEXPAVioBaseChar@@@Z:PROC ; ioAttackableItem::OnEquiped
; Function compile flags: /Ogsp
;	COMDAT ?OnEquiped@ioDraculaItem@@UAEXPAVioBaseChar@@@Z
_TEXT	SEGMENT
_pOwner$ = 8						; size = 4
?OnEquiped@ioDraculaItem@@UAEXPAVioBaseChar@@@Z PROC	; ioDraculaItem::OnEquiped, COMDAT
; _this$ = ecx

; 1071 : {

  00000	55		 push	 ebp
  00001	8b ec		 mov	 ebp, esp

; 1073 : 
; 1074 : 	if( !pOwner )
; 1075 : 		return;
; 1076 : }

  00003	5d		 pop	 ebp

; 1072 : 	ioWeaponItem::OnEquiped( pOwner );

  00004	e9 00 00 00 00	 jmp	 ?OnEquiped@ioAttackableItem@@UAEXPAVioBaseChar@@@Z ; ioAttackableItem::OnEquiped
?OnEquiped@ioDraculaItem@@UAEXPAVioBaseChar@@@Z ENDP	; ioDraculaItem::OnEquiped
_TEXT	ENDS
PUBLIC	?ChangeFlyEnd@ioDraculaItem@@QAEXPAVioBaseChar@@@Z ; ioDraculaItem::ChangeFlyEnd
; Function compile flags: /Ogsp
;	COMDAT ?ChangeFlyEnd@ioDraculaItem@@QAEXPAVioBaseChar@@@Z
_TEXT	SEGMENT
_pOwner$ = 8						; size = 4
?ChangeFlyEnd@ioDraculaItem@@QAEXPAVioBaseChar@@@Z PROC	; ioDraculaItem::ChangeFlyEnd, COMDAT
; _this$ = ecx

; 1088 : {

  00000	55		 push	 ebp
  00001	8b ec		 mov	 ebp, esp

; 1089 : 	m_FlyState = LFS_END;

  00003	c7 81 68 19 00
	00 03 00 00 00	 mov	 DWORD PTR [ecx+6504], 3

; 1090 : 
; 1091 : 	if( pOwner && pOwner->IsNeedProcess() )

  0000d	8b 4d 08	 mov	 ecx, DWORD PTR _pOwner$[ebp]
  00010	85 c9		 test	 ecx, ecx
  00012	74 08		 je	 SHORT $LN1@ChangeFlyE
  00014	8b 01		 mov	 eax, DWORD PTR [ecx]
  00016	ff 90 00 01 00
	00		 call	 DWORD PTR [eax+256]
$LN1@ChangeFlyE:

; 1092 : 	{
; 1093 : 		//pOwner->SetExtendAttackEndJump( m_CurFly.m_fFlyJumpAmt, m_fExtendLandingRate );
; 1094 : 		//pOwner->ClearDirDoubleClick();
; 1095 : 	}
; 1096 : }

  0001c	5d		 pop	 ebp
  0001d	c2 04 00	 ret	 4
?ChangeFlyEnd@ioDraculaItem@@QAEXPAVioBaseChar@@@Z ENDP	; ioDraculaItem::ChangeFlyEnd
_TEXT	ENDS
PUBLIC	?GetTargetSkill@ioDraculaItem@@QAEABVioHashString@@XZ ; ioDraculaItem::GetTargetSkill
; Function compile flags: /Ogsp
;	COMDAT ?GetTargetSkill@ioDraculaItem@@QAEABVioHashString@@XZ
_TEXT	SEGMENT
?GetTargetSkill@ioDraculaItem@@QAEABVioHashString@@XZ PROC ; ioDraculaItem::GetTargetSkill, COMDAT
; _this$ = ecx

; 1100 : 	return m_TargetSkill;

  00000	8d 81 34 1a 00
	00		 lea	 eax, DWORD PTR [ecx+6708]

; 1101 : }

  00006	c3		 ret	 0
?GetTargetSkill@ioDraculaItem@@QAEABVioHashString@@XZ ENDP ; ioDraculaItem::GetTargetSkill
_TEXT	ENDS
PUBLIC	?ClearTargetSkill@ioDraculaItem@@QAEXXZ		; ioDraculaItem::ClearTargetSkill
EXTRN	__imp_?Clear@ioHashString@@QAEXXZ:PROC
; Function compile flags: /Ogsp
;	COMDAT ?ClearTargetSkill@ioDraculaItem@@QAEXXZ
_TEXT	SEGMENT
?ClearTargetSkill@ioDraculaItem@@QAEXXZ PROC		; ioDraculaItem::ClearTargetSkill, COMDAT
; _this$ = ecx

; 1105 : 	m_TargetSkill.Clear();

  00000	81 c1 34 1a 00
	00		 add	 ecx, 6708		; 00001a34H
  00006	ff 25 00 00 00
	00		 jmp	 DWORD PTR __imp_?Clear@ioHashString@@QAEXXZ
?ClearTargetSkill@ioDraculaItem@@QAEXXZ ENDP		; ioDraculaItem::ClearTargetSkill
_TEXT	ENDS
PUBLIC	?IsBallTarget@ioDraculaItem@@QAE_NXZ		; ioDraculaItem::IsBallTarget
; Function compile flags: /Ogsp
;	COMDAT ?IsBallTarget@ioDraculaItem@@QAE_NXZ
_TEXT	SEGMENT
?IsBallTarget@ioDraculaItem@@QAE_NXZ PROC		; ioDraculaItem::IsBallTarget, COMDAT
; _this$ = ecx

; 1110 : 	return m_bAimedBall;

  00000	8a 81 98 02 00
	00		 mov	 al, BYTE PTR [ecx+664]

; 1111 : }

  00006	c3		 ret	 0
?IsBallTarget@ioDraculaItem@@QAE_NXZ ENDP		; ioDraculaItem::IsBallTarget
_TEXT	ENDS
PUBLIC	?ChangeLandNormalAttack@ioDraculaItem@@IAEXPAVioBaseChar@@@Z ; ioDraculaItem::ChangeLandNormalAttack
EXTRN	?SetNormalAttack@ioBaseChar@@QAEXH@Z:PROC	; ioBaseChar::SetNormalAttack
; Function compile flags: /Ogsp
;	COMDAT ?ChangeLandNormalAttack@ioDraculaItem@@IAEXPAVioBaseChar@@@Z
_TEXT	SEGMENT
_pOwner$ = 8						; size = 4
?ChangeLandNormalAttack@ioDraculaItem@@IAEXPAVioBaseChar@@@Z PROC ; ioDraculaItem::ChangeLandNormalAttack, COMDAT
; _this$ = ecx

; 1181 : {

  00000	55		 push	 ebp
  00001	8b ec		 mov	 ebp, esp

; 1182 : 	pOwner->SetNormalAttack( 0 );

  00003	8b 4d 08	 mov	 ecx, DWORD PTR _pOwner$[ebp]
  00006	6a 00		 push	 0
  00008	e8 00 00 00 00	 call	 ?SetNormalAttack@ioBaseChar@@QAEXH@Z ; ioBaseChar::SetNormalAttack

; 1183 : }

  0000d	5d		 pop	 ebp
  0000e	c2 04 00	 ret	 4
?ChangeLandNormalAttack@ioDraculaItem@@IAEXPAVioBaseChar@@@Z ENDP ; ioDraculaItem::ChangeLandNormalAttack
_TEXT	ENDS
PUBLIC	__real@00000000
PUBLIC	?ChangeAirNornmalAttack@ioDraculaItem@@IAEXPAVioBaseChar@@_N@Z ; ioDraculaItem::ChangeAirNornmalAttack
EXTRN	?GetCurExtendJump@ioAttackableItem@@QAEPAVioExtendJump@@XZ:PROC ; ioAttackableItem::GetCurExtendJump
EXTRN	?GetPriorityItem@ioBaseChar@@QBEPAVioAttackableItem@@W4StatePriorityType@@@Z:PROC ; ioBaseChar::GetPriorityItem
EXTRN	?SetExtendAttackEndJump@ioBaseChar@@QAEXMM_N000@Z:PROC ; ioBaseChar::SetExtendAttackEndJump
;	COMDAT __real@00000000
; File d:\lost saga for developer\youtube\tutorial\source\src\lsclient\stdafx.h
CONST	SEGMENT
__real@00000000 DD 000000000r			; 0
; Function compile flags: /Ogsp
; File d:\lost saga for developer\youtube\tutorial\source\src\lsclient\iodraculaitem.cpp
CONST	ENDS
;	COMDAT ?ChangeAirNornmalAttack@ioDraculaItem@@IAEXPAVioBaseChar@@_N@Z
_TEXT	SEGMENT
tv172 = -4						; size = 4
_pOwner$ = 8						; size = 4
_bAttack$ = 12						; size = 1
?ChangeAirNornmalAttack@ioDraculaItem@@IAEXPAVioBaseChar@@_N@Z PROC ; ioDraculaItem::ChangeAirNornmalAttack, COMDAT
; _this$ = ecx

; 1186 : {

  00000	55		 push	 ebp
  00001	8b ec		 mov	 ebp, esp
  00003	51		 push	 ecx

; 1187 : 	if( m_fAirJumpPower )

  00004	f3 0f 10 81 58
	1b 00 00	 movss	 xmm0, DWORD PTR [ecx+7000]
  0000c	0f 2e 05 00 00
	00 00		 ucomiss xmm0, DWORD PTR __real@00000000
  00013	9f		 lahf
  00014	f6 c4 44	 test	 ah, 68			; 00000044H
  00017	7b 38		 jnp	 SHORT $LN3@ChangeAirN

; 1188 : 		pOwner->SetExtendAttackEndJump( m_fAirJumpPower, FLOAT1 );

  00019	b8 01 00 00 00	 mov	 eax, 1
  0001e	6a 00		 push	 0
  00020	6a 00		 push	 0
  00022	6a 01		 push	 1
  00024	89 45 fc	 mov	 DWORD PTR tv172[ebp], eax
  00027	db 45 fc	 fild	 DWORD PTR tv172[ebp]
  0002a	6a 00		 push	 0
  0002c	85 c0		 test	 eax, eax
  0002e	79 06		 jns	 SHORT $LN8@ChangeAirN
  00030	d8 05 00 00 00
	00		 fadd	 DWORD PTR __real@4f800000
$LN8@ChangeAirN:
  00036	f3 0f 10 81 58
	1b 00 00	 movss	 xmm0, DWORD PTR [ecx+7000]
  0003e	51		 push	 ecx
  0003f	51		 push	 ecx
  00040	8b 4d 08	 mov	 ecx, DWORD PTR _pOwner$[ebp]
  00043	d9 5c 24 04	 fstp	 DWORD PTR [esp+4]
  00047	f3 0f 11 04 24	 movss	 DWORD PTR [esp], xmm0
  0004c	e8 00 00 00 00	 call	 ?SetExtendAttackEndJump@ioBaseChar@@QAEXMM_N000@Z ; ioBaseChar::SetExtendAttackEndJump
$LN3@ChangeAirN:

; 1189 : 
; 1190 : 	ioAttackableItem *pItem = pOwner->GetPriorityItem( SPT_JUMP );

  00051	8b 4d 08	 mov	 ecx, DWORD PTR _pOwner$[ebp]
  00054	6a 02		 push	 2
  00056	e8 00 00 00 00	 call	 ?GetPriorityItem@ioBaseChar@@QBEPAVioAttackableItem@@W4StatePriorityType@@@Z ; ioBaseChar::GetPriorityItem

; 1191 : 	if( pItem )

  0005b	85 c0		 test	 eax, eax
  0005d	74 22		 je	 SHORT $LN1@ChangeAirN

; 1192 : 	{
; 1193 : 		ioChargeComboJump2 *pChargeComboJump2 = ToChargeComboJump2( pItem->GetCurExtendJump() );

  0005f	8b c8		 mov	 ecx, eax
  00061	e8 00 00 00 00	 call	 ?GetCurExtendJump@ioAttackableItem@@QAEPAVioExtendJump@@XZ ; ioAttackableItem::GetCurExtendJump
  00066	50		 push	 eax
  00067	e8 00 00 00 00	 call	 ?ToChargeComboJump2@@YAPAVioChargeComboJump2@@PAVioExtendJump@@@Z ; ToChargeComboJump2
  0006c	59		 pop	 ecx

; 1194 : 
; 1195 : 		if( pChargeComboJump2 && bAttack )

  0006d	85 c0		 test	 eax, eax
  0006f	74 10		 je	 SHORT $LN1@ChangeAirN
  00071	80 7d 0c 00	 cmp	 BYTE PTR _bAttack$[ebp], 0
  00075	74 0a		 je	 SHORT $LN1@ChangeAirN

; 1196 : 		{
; 1197 : 			pChargeComboJump2->CheckComboJumpAttack( pOwner );

  00077	ff 75 08	 push	 DWORD PTR _pOwner$[ebp]
  0007a	8b 10		 mov	 edx, DWORD PTR [eax]
  0007c	8b c8		 mov	 ecx, eax
  0007e	ff 52 34	 call	 DWORD PTR [edx+52]
$LN1@ChangeAirN:

; 1198 : 		}
; 1199 : 		
; 1200 : 	}
; 1201 : }

  00081	c9		 leave
  00082	c2 08 00	 ret	 8
?ChangeAirNornmalAttack@ioDraculaItem@@IAEXPAVioBaseChar@@_N@Z ENDP ; ioDraculaItem::ChangeAirNornmalAttack
_TEXT	ENDS
PUBLIC	??_7ioDraculaFlySpecialState@@6B@		; ioDraculaFlySpecialState::`vftable'
PUBLIC	??0ioDraculaFlySpecialState@@QAE@XZ		; ioDraculaFlySpecialState::ioDraculaFlySpecialState
PUBLIC	??_R4ioDraculaFlySpecialState@@6B@		; ioDraculaFlySpecialState::`RTTI Complete Object Locator'
PUBLIC	??_R0?AVioDraculaFlySpecialState@@@8		; ioDraculaFlySpecialState `RTTI Type Descriptor'
PUBLIC	??_R3ioDraculaFlySpecialState@@8		; ioDraculaFlySpecialState::`RTTI Class Hierarchy Descriptor'
PUBLIC	??_R2ioDraculaFlySpecialState@@8		; ioDraculaFlySpecialState::`RTTI Base Class Array'
PUBLIC	??_R1A@?0A@EA@ioDraculaFlySpecialState@@8	; ioDraculaFlySpecialState::`RTTI Base Class Descriptor at (0,-1,0,64)'
PUBLIC	??_R1A@?0A@EA@ioSpecialStateBase@@8		; ioSpecialStateBase::`RTTI Base Class Descriptor at (0,-1,0,64)'
PUBLIC	??_R0?AVioSpecialStateBase@@@8			; ioSpecialStateBase `RTTI Type Descriptor'
PUBLIC	??_R3ioSpecialStateBase@@8			; ioSpecialStateBase::`RTTI Class Hierarchy Descriptor'
PUBLIC	??_R2ioSpecialStateBase@@8			; ioSpecialStateBase::`RTTI Base Class Array'
PUBLIC	?Initialize@ioDraculaFlySpecialState@@UAEXPAVioBaseChar@@W4CharState@@@Z ; ioDraculaFlySpecialState::Initialize
PUBLIC	?Finalize@ioDraculaFlySpecialState@@UAEXPAVioBaseChar@@W4CharState@@1@Z ; ioDraculaFlySpecialState::Finalize
PUBLIC	?LoadProperty@ioSpecialStateBase@@UAEXAAVioINILoader@@@Z ; ioSpecialStateBase::LoadProperty
PUBLIC	?GetStateName@ioDraculaFlySpecialState@@UAEPBDXZ ; ioDraculaFlySpecialState::GetStateName
PUBLIC	?GetState@ioDraculaFlySpecialState@@UAE?BW4CharState@@XZ ; ioDraculaFlySpecialState::GetState
PUBLIC	?GetAttackSpeedRate@ioSpecialStateBase@@UAEMPAVioBaseChar@@M@Z ; ioSpecialStateBase::GetAttackSpeedRate
PUBLIC	?CheckSpecialState@ioDraculaFlySpecialState@@UAEXPAVioBaseChar@@@Z ; ioDraculaFlySpecialState::CheckSpecialState
PUBLIC	?ProcessState@ioSpecialStateBase@@UAEXPAVioBaseChar@@@Z ; ioSpecialStateBase::ProcessState
PUBLIC	?ProcessMoveSpeed@ioSpecialStateBase@@UAEXPAVioBaseChar@@@Z ; ioSpecialStateBase::ProcessMoveSpeed
PUBLIC	?ProcessMove@ioDraculaFlySpecialState@@UAE_NPAVioBaseChar@@MKK@Z ; ioDraculaFlySpecialState::ProcessMove
PUBLIC	?IsCanNoWound@ioSpecialStateBase@@UAE_NPAVioBaseChar@@@Z ; ioSpecialStateBase::IsCanNoWound
PUBLIC	?IsCollisionAvailableWeapon@ioSpecialStateBase@@UAE_NPAVioBaseChar@@PAVioWeapon@@@Z ; ioSpecialStateBase::IsCollisionAvailableWeapon
PUBLIC	?IsEntityCollisionSkipState@ioSpecialStateBase@@UBE_NQBVioBaseChar@@PAVioGameEntity@@@Z ; ioSpecialStateBase::IsEntityCollisionSkipState
PUBLIC	?IsSendControlInfoToUser@ioDraculaFlySpecialState@@UAE_NPAVioBaseChar@@@Z ; ioDraculaFlySpecialState::IsSendControlInfoToUser
PUBLIC	?IsIgnoreAttackOverDelay@ioSpecialStateBase@@UAE_NXZ ; ioSpecialStateBase::IsIgnoreAttackOverDelay
PUBLIC	?IsLandingEnable@ioSpecialStateBase@@UAE_NXZ	; ioSpecialStateBase::IsLandingEnable
PUBLIC	?IsFallStateCheck@ioSpecialStateBase@@UAE_NXZ	; ioSpecialStateBase::IsFallStateCheck
PUBLIC	?IsEnableBlowWounded@ioSpecialStateBase@@UAE_NPAVioBaseChar@@@Z ; ioSpecialStateBase::IsEnableBlowWounded
PUBLIC	?IsNoDropState@ioSpecialStateBase@@UAE_NPAVioBaseChar@@@Z ; ioSpecialStateBase::IsNoDropState
PUBLIC	?IsCanChangeJumppingState@ioSpecialStateBase@@UAE_NPAVioBaseChar@@@Z ; ioSpecialStateBase::IsCanChangeJumppingState
PUBLIC	?IsEnableDashState@ioSpecialStateBase@@UAE_NPAVioBaseChar@@@Z ; ioSpecialStateBase::IsEnableDashState
PUBLIC	?IsStateEnd@ioSpecialStateBase@@UAE_NPAVioBaseChar@@@Z ; ioSpecialStateBase::IsStateEnd
PUBLIC	?IsProcessFlyMove@ioSpecialStateBase@@UAE_NXZ	; ioSpecialStateBase::IsProcessFlyMove
PUBLIC	?IsFloatingState@ioSpecialStateBase@@UBE_NQBVioBaseChar@@@Z ; ioSpecialStateBase::IsFloatingState
PUBLIC	?IsInitializeSync@ioSpecialStateBase@@UAE_NXZ	; ioSpecialStateBase::IsInitializeSync
PUBLIC	?IsJoinSync@ioSpecialStateBase@@UAE_NXZ		; ioSpecialStateBase::IsJoinSync
PUBLIC	?CheckFallStateChange@ioDraculaFlySpecialState@@UAEXPAVioBaseChar@@MM_NM@Z ; ioDraculaFlySpecialState::CheckFallStateChange
EXTRN	??0ioSpecialStateBase@@QAE@XZ:PROC		; ioSpecialStateBase::ioSpecialStateBase
EXTRN	?ProcessKeyInput@ioSpecialStateBase@@UAEXPAVioBaseChar@@@Z:PROC ; ioSpecialStateBase::ProcessKeyInput
EXTRN	?IsCharCollisionSkipState@ioSpecialStateBase@@UBE_NQBVioBaseChar@@KKK_N1W4TeamType@@2@Z:PROC ; ioSpecialStateBase::IsCharCollisionSkipState
EXTRN	?GetGravity@ioSpecialStateBase@@UAEXPAVioBaseChar@@AAM@Z:PROC ; ioSpecialStateBase::GetGravity
EXTRN	?FillJoinSync@ioSpecialStateBase@@UAEXAAVSP2Packet@@PAVioBaseChar@@@Z:PROC ; ioSpecialStateBase::FillJoinSync
EXTRN	?ApplyJoinSync@ioSpecialStateBase@@UAEXAAVSP2Packet@@PAVioBaseChar@@@Z:PROC ; ioSpecialStateBase::ApplyJoinSync
EXTRN	?ApplyStateSync@ioSpecialStateBase@@UAEXAAVSP2Packet@@PAVioBaseChar@@@Z:PROC ; ioSpecialStateBase::ApplyStateSync
EXTRN	??_EioDraculaFlySpecialState@@UAEPAXI@Z:PROC	; ioDraculaFlySpecialState::`vector deleting destructor'
;	COMDAT ??_R2ioSpecialStateBase@@8
rdata$r	SEGMENT
??_R2ioSpecialStateBase@@8 DD FLAT:??_R1A@?0A@EA@ioSpecialStateBase@@8 ; ioSpecialStateBase::`RTTI Base Class Array'
rdata$r	ENDS
;	COMDAT ??_R3ioSpecialStateBase@@8
rdata$r	SEGMENT
??_R3ioSpecialStateBase@@8 DD 00H			; ioSpecialStateBase::`RTTI Class Hierarchy Descriptor'
	DD	00H
	DD	01H
	DD	FLAT:??_R2ioSpecialStateBase@@8
rdata$r	ENDS
;	COMDAT ??_R0?AVioSpecialStateBase@@@8
_DATA	SEGMENT
??_R0?AVioSpecialStateBase@@@8 DD FLAT:??_7type_info@@6B@ ; ioSpecialStateBase `RTTI Type Descriptor'
	DD	00H
	DB	'.?AVioSpecialStateBase@@', 00H
_DATA	ENDS
;	COMDAT ??_R1A@?0A@EA@ioSpecialStateBase@@8
rdata$r	SEGMENT
??_R1A@?0A@EA@ioSpecialStateBase@@8 DD FLAT:??_R0?AVioSpecialStateBase@@@8 ; ioSpecialStateBase::`RTTI Base Class Descriptor at (0,-1,0,64)'
	DD	00H
	DD	00H
	DD	0ffffffffH
	DD	00H
	DD	040H
	DD	FLAT:??_R3ioSpecialStateBase@@8
rdata$r	ENDS
;	COMDAT ??_R1A@?0A@EA@ioDraculaFlySpecialState@@8
rdata$r	SEGMENT
??_R1A@?0A@EA@ioDraculaFlySpecialState@@8 DD FLAT:??_R0?AVioDraculaFlySpecialState@@@8 ; ioDraculaFlySpecialState::`RTTI Base Class Descriptor at (0,-1,0,64)'
	DD	01H
	DD	00H
	DD	0ffffffffH
	DD	00H
	DD	040H
	DD	FLAT:??_R3ioDraculaFlySpecialState@@8
rdata$r	ENDS
;	COMDAT ??_R2ioDraculaFlySpecialState@@8
rdata$r	SEGMENT
??_R2ioDraculaFlySpecialState@@8 DD FLAT:??_R1A@?0A@EA@ioDraculaFlySpecialState@@8 ; ioDraculaFlySpecialState::`RTTI Base Class Array'
	DD	FLAT:??_R1A@?0A@EA@ioSpecialStateBase@@8
rdata$r	ENDS
;	COMDAT ??_R3ioDraculaFlySpecialState@@8
rdata$r	SEGMENT
??_R3ioDraculaFlySpecialState@@8 DD 00H			; ioDraculaFlySpecialState::`RTTI Class Hierarchy Descriptor'
	DD	00H
	DD	02H
	DD	FLAT:??_R2ioDraculaFlySpecialState@@8
rdata$r	ENDS
;	COMDAT ??_R0?AVioDraculaFlySpecialState@@@8
_DATA	SEGMENT
??_R0?AVioDraculaFlySpecialState@@@8 DD FLAT:??_7type_info@@6B@ ; ioDraculaFlySpecialState `RTTI Type Descriptor'
	DD	00H
	DB	'.?AVioDraculaFlySpecialState@@', 00H
_DATA	ENDS
;	COMDAT ??_R4ioDraculaFlySpecialState@@6B@
rdata$r	SEGMENT
??_R4ioDraculaFlySpecialState@@6B@ DD 00H		; ioDraculaFlySpecialState::`RTTI Complete Object Locator'
	DD	00H
	DD	00H
	DD	FLAT:??_R0?AVioDraculaFlySpecialState@@@8
	DD	FLAT:??_R3ioDraculaFlySpecialState@@8
rdata$r	ENDS
;	COMDAT ??_7ioDraculaFlySpecialState@@6B@
CONST	SEGMENT
??_7ioDraculaFlySpecialState@@6B@ DD FLAT:??_R4ioDraculaFlySpecialState@@6B@ ; ioDraculaFlySpecialState::`vftable'
	DD	FLAT:?Initialize@ioDraculaFlySpecialState@@UAEXPAVioBaseChar@@W4CharState@@@Z
	DD	FLAT:?Finalize@ioDraculaFlySpecialState@@UAEXPAVioBaseChar@@W4CharState@@1@Z
	DD	FLAT:?LoadProperty@ioSpecialStateBase@@UAEXAAVioINILoader@@@Z
	DD	FLAT:?GetStateName@ioDraculaFlySpecialState@@UAEPBDXZ
	DD	FLAT:?GetState@ioDraculaFlySpecialState@@UAE?BW4CharState@@XZ
	DD	FLAT:?GetAttackSpeedRate@ioSpecialStateBase@@UAEMPAVioBaseChar@@M@Z
	DD	FLAT:?CheckSpecialState@ioDraculaFlySpecialState@@UAEXPAVioBaseChar@@@Z
	DD	FLAT:?ProcessState@ioSpecialStateBase@@UAEXPAVioBaseChar@@@Z
	DD	FLAT:?ProcessMoveSpeed@ioSpecialStateBase@@UAEXPAVioBaseChar@@@Z
	DD	FLAT:?ProcessMove@ioDraculaFlySpecialState@@UAE_NPAVioBaseChar@@MKK@Z
	DD	FLAT:?ProcessKeyInput@ioSpecialStateBase@@UAEXPAVioBaseChar@@@Z
	DD	FLAT:?IsCanNoWound@ioSpecialStateBase@@UAE_NPAVioBaseChar@@@Z
	DD	FLAT:?IsCollisionAvailableWeapon@ioSpecialStateBase@@UAE_NPAVioBaseChar@@PAVioWeapon@@@Z
	DD	FLAT:?IsEntityCollisionSkipState@ioSpecialStateBase@@UBE_NQBVioBaseChar@@PAVioGameEntity@@@Z
	DD	FLAT:?IsCharCollisionSkipState@ioSpecialStateBase@@UBE_NQBVioBaseChar@@KKK_N1W4TeamType@@2@Z
	DD	FLAT:?IsSendControlInfoToUser@ioDraculaFlySpecialState@@UAE_NPAVioBaseChar@@@Z
	DD	FLAT:?IsIgnoreAttackOverDelay@ioSpecialStateBase@@UAE_NXZ
	DD	FLAT:?IsLandingEnable@ioSpecialStateBase@@UAE_NXZ
	DD	FLAT:?IsFallStateCheck@ioSpecialStateBase@@UAE_NXZ
	DD	FLAT:?IsEnableBlowWounded@ioSpecialStateBase@@UAE_NPAVioBaseChar@@@Z
	DD	FLAT:?IsNoDropState@ioSpecialStateBase@@UAE_NPAVioBaseChar@@@Z
	DD	FLAT:?GetGravity@ioSpecialStateBase@@UAEXPAVioBaseChar@@AAM@Z
	DD	FLAT:?IsCanChangeJumppingState@ioSpecialStateBase@@UAE_NPAVioBaseChar@@@Z
	DD	FLAT:?IsEnableDashState@ioSpecialStateBase@@UAE_NPAVioBaseChar@@@Z
	DD	FLAT:?IsStateEnd@ioSpecialStateBase@@UAE_NPAVioBaseChar@@@Z
	DD	FLAT:?IsProcessFlyMove@ioSpecialStateBase@@UAE_NXZ
	DD	FLAT:?IsFloatingState@ioSpecialStateBase@@UBE_NQBVioBaseChar@@@Z
	DD	FLAT:?IsInitializeSync@ioSpecialStateBase@@UAE_NXZ
	DD	FLAT:?IsJoinSync@ioSpecialStateBase@@UAE_NXZ
	DD	FLAT:?FillJoinSync@ioSpecialStateBase@@UAEXAAVSP2Packet@@PAVioBaseChar@@@Z
	DD	FLAT:?ApplyJoinSync@ioSpecialStateBase@@UAEXAAVSP2Packet@@PAVioBaseChar@@@Z
	DD	FLAT:?ApplyStateSync@ioSpecialStateBase@@UAEXAAVSP2Packet@@PAVioBaseChar@@@Z
	DD	FLAT:?CheckFallStateChange@ioDraculaFlySpecialState@@UAEXPAVioBaseChar@@MM_NM@Z
	DD	FLAT:??_EioDraculaFlySpecialState@@UAEPAXI@Z
; Function compile flags: /Ogsp
CONST	ENDS
;	COMDAT ??0ioDraculaFlySpecialState@@QAE@XZ
_TEXT	SEGMENT
??0ioDraculaFlySpecialState@@QAE@XZ PROC		; ioDraculaFlySpecialState::ioDraculaFlySpecialState, COMDAT
; _this$ = ecx

; 1206 : {

  00000	56		 push	 esi
  00001	8b f1		 mov	 esi, ecx
  00003	e8 00 00 00 00	 call	 ??0ioSpecialStateBase@@QAE@XZ ; ioSpecialStateBase::ioSpecialStateBase
  00008	c7 06 00 00 00
	00		 mov	 DWORD PTR [esi], OFFSET ??_7ioDraculaFlySpecialState@@6B@

; 1207 : }

  0000e	8b c6		 mov	 eax, esi
  00010	5e		 pop	 esi
  00011	c3		 ret	 0
??0ioDraculaFlySpecialState@@QAE@XZ ENDP		; ioDraculaFlySpecialState::ioDraculaFlySpecialState
; Function compile flags: /Ogsp
; File d:\lost saga for developer\youtube\tutorial\source\src\lsclient\iospecialstatebase.h
_TEXT	ENDS
;	COMDAT ?LoadProperty@ioSpecialStateBase@@UAEXAAVioINILoader@@@Z
_TEXT	SEGMENT
_rkLoader$ = 8						; size = 4
?LoadProperty@ioSpecialStateBase@@UAEXAAVioINILoader@@@Z PROC ; ioSpecialStateBase::LoadProperty, COMDAT
; _this$ = ecx

; 18   : 	virtual void LoadProperty( ioINILoader &rkLoader ){}

  00000	c2 04 00	 ret	 4
?LoadProperty@ioSpecialStateBase@@UAEXAAVioINILoader@@@Z ENDP ; ioSpecialStateBase::LoadProperty
; Function compile flags: /Ogsp
_TEXT	ENDS
;	COMDAT ?GetAttackSpeedRate@ioSpecialStateBase@@UAEMPAVioBaseChar@@M@Z
_TEXT	SEGMENT
_pOwner$ = 8						; size = 4
_fMaxSpeed$ = 12					; size = 4
?GetAttackSpeedRate@ioSpecialStateBase@@UAEMPAVioBaseChar@@M@Z PROC ; ioSpecialStateBase::GetAttackSpeedRate, COMDAT
; _this$ = ecx

; 26   : 	virtual float GetAttackSpeedRate( ioBaseChar* pOwner, float fMaxSpeed ){ return fMaxSpeed; }

  00000	55		 push	 ebp
  00001	8b ec		 mov	 ebp, esp
  00003	d9 45 0c	 fld	 DWORD PTR _fMaxSpeed$[ebp]
  00006	5d		 pop	 ebp
  00007	c2 08 00	 ret	 8
?GetAttackSpeedRate@ioSpecialStateBase@@UAEMPAVioBaseChar@@M@Z ENDP ; ioSpecialStateBase::GetAttackSpeedRate
; Function compile flags: /Ogsp
_TEXT	ENDS
;	COMDAT ?ProcessState@ioSpecialStateBase@@UAEXPAVioBaseChar@@@Z
_TEXT	SEGMENT
_pOwner$ = 8						; size = 4
?ProcessState@ioSpecialStateBase@@UAEXPAVioBaseChar@@@Z PROC ; ioSpecialStateBase::ProcessState, COMDAT
; _this$ = ecx

; 30   : 	virtual void ProcessState( IN ioBaseChar* pOwner ){}

  00000	c2 04 00	 ret	 4
?ProcessState@ioSpecialStateBase@@UAEXPAVioBaseChar@@@Z ENDP ; ioSpecialStateBase::ProcessState
; Function compile flags: /Ogsp
_TEXT	ENDS
;	COMDAT ?ProcessMoveSpeed@ioSpecialStateBase@@UAEXPAVioBaseChar@@@Z
_TEXT	SEGMENT
_pOwner$ = 8						; size = 4
?ProcessMoveSpeed@ioSpecialStateBase@@UAEXPAVioBaseChar@@@Z PROC ; ioSpecialStateBase::ProcessMoveSpeed, COMDAT
; _this$ = ecx

; 31   : 	virtual void ProcessMoveSpeed( ioBaseChar* pOwner ){}

  00000	c2 04 00	 ret	 4
?ProcessMoveSpeed@ioSpecialStateBase@@UAEXPAVioBaseChar@@@Z ENDP ; ioSpecialStateBase::ProcessMoveSpeed
; Function compile flags: /Ogsp
_TEXT	ENDS
;	COMDAT ?IsCanNoWound@ioSpecialStateBase@@UAE_NPAVioBaseChar@@@Z
_TEXT	SEGMENT
_pOwner$ = 8						; size = 4
?IsCanNoWound@ioSpecialStateBase@@UAE_NPAVioBaseChar@@@Z PROC ; ioSpecialStateBase::IsCanNoWound, COMDAT
; _this$ = ecx

; 37   : 	virtual bool IsCanNoWound( ioBaseChar* pOwner ) { return false; };

  00000	32 c0		 xor	 al, al
  00002	c2 04 00	 ret	 4
?IsCanNoWound@ioSpecialStateBase@@UAE_NPAVioBaseChar@@@Z ENDP ; ioSpecialStateBase::IsCanNoWound
; Function compile flags: /Ogsp
_TEXT	ENDS
;	COMDAT ?IsCollisionAvailableWeapon@ioSpecialStateBase@@UAE_NPAVioBaseChar@@PAVioWeapon@@@Z
_TEXT	SEGMENT
_pOwner$ = 8						; size = 4
_pWeapon$ = 12						; size = 4
?IsCollisionAvailableWeapon@ioSpecialStateBase@@UAE_NPAVioBaseChar@@PAVioWeapon@@@Z PROC ; ioSpecialStateBase::IsCollisionAvailableWeapon, COMDAT
; _this$ = ecx

; 38   : 	virtual bool IsCollisionAvailableWeapon( ioBaseChar* pOwner, ioWeapon *pWeapon ) { return true; }

  00000	b0 01		 mov	 al, 1
  00002	c2 08 00	 ret	 8
?IsCollisionAvailableWeapon@ioSpecialStateBase@@UAE_NPAVioBaseChar@@PAVioWeapon@@@Z ENDP ; ioSpecialStateBase::IsCollisionAvailableWeapon
; Function compile flags: /Ogsp
_TEXT	ENDS
;	COMDAT ?IsEntityCollisionSkipState@ioSpecialStateBase@@UBE_NQBVioBaseChar@@PAVioGameEntity@@@Z
_TEXT	SEGMENT
_pOwner$ = 8						; size = 4
_pColEntity$ = 12					; size = 4
?IsEntityCollisionSkipState@ioSpecialStateBase@@UBE_NQBVioBaseChar@@PAVioGameEntity@@@Z PROC ; ioSpecialStateBase::IsEntityCollisionSkipState, COMDAT
; _this$ = ecx

; 39   : 	virtual bool IsEntityCollisionSkipState( const ioBaseChar *const pOwner, ioGameEntity* pColEntity ) const { return false; }

  00000	32 c0		 xor	 al, al
  00002	c2 08 00	 ret	 8
?IsEntityCollisionSkipState@ioSpecialStateBase@@UBE_NQBVioBaseChar@@PAVioGameEntity@@@Z ENDP ; ioSpecialStateBase::IsEntityCollisionSkipState
; Function compile flags: /Ogsp
_TEXT	ENDS
;	COMDAT ?IsIgnoreAttackOverDelay@ioSpecialStateBase@@UAE_NXZ
_TEXT	SEGMENT
?IsIgnoreAttackOverDelay@ioSpecialStateBase@@UAE_NXZ PROC ; ioSpecialStateBase::IsIgnoreAttackOverDelay, COMDAT
; _this$ = ecx

; 50   : 	virtual bool IsIgnoreAttackOverDelay(){ return false; }

  00000	32 c0		 xor	 al, al
  00002	c3		 ret	 0
?IsIgnoreAttackOverDelay@ioSpecialStateBase@@UAE_NXZ ENDP ; ioSpecialStateBase::IsIgnoreAttackOverDelay
; Function compile flags: /Ogsp
_TEXT	ENDS
;	COMDAT ?IsLandingEnable@ioSpecialStateBase@@UAE_NXZ
_TEXT	SEGMENT
?IsLandingEnable@ioSpecialStateBase@@UAE_NXZ PROC	; ioSpecialStateBase::IsLandingEnable, COMDAT
; _this$ = ecx

; 51   : 	virtual bool IsLandingEnable(){ return true; }

  00000	b0 01		 mov	 al, 1
  00002	c3		 ret	 0
?IsLandingEnable@ioSpecialStateBase@@UAE_NXZ ENDP	; ioSpecialStateBase::IsLandingEnable
; Function compile flags: /Ogsp
_TEXT	ENDS
;	COMDAT ?IsFallStateCheck@ioSpecialStateBase@@UAE_NXZ
_TEXT	SEGMENT
?IsFallStateCheck@ioSpecialStateBase@@UAE_NXZ PROC	; ioSpecialStateBase::IsFallStateCheck, COMDAT
; _this$ = ecx

; 52   : 	virtual bool IsFallStateCheck(){ return true; }

  00000	b0 01		 mov	 al, 1
  00002	c3		 ret	 0
?IsFallStateCheck@ioSpecialStateBase@@UAE_NXZ ENDP	; ioSpecialStateBase::IsFallStateCheck
; Function compile flags: /Ogsp
_TEXT	ENDS
;	COMDAT ?IsEnableBlowWounded@ioSpecialStateBase@@UAE_NPAVioBaseChar@@@Z
_TEXT	SEGMENT
_pOwner$ = 8						; size = 4
?IsEnableBlowWounded@ioSpecialStateBase@@UAE_NPAVioBaseChar@@@Z PROC ; ioSpecialStateBase::IsEnableBlowWounded, COMDAT
; _this$ = ecx

; 53   : 	virtual bool IsEnableBlowWounded( ioBaseChar *pOwner ){ return true; }

  00000	b0 01		 mov	 al, 1
  00002	c2 04 00	 ret	 4
?IsEnableBlowWounded@ioSpecialStateBase@@UAE_NPAVioBaseChar@@@Z ENDP ; ioSpecialStateBase::IsEnableBlowWounded
; Function compile flags: /Ogsp
_TEXT	ENDS
;	COMDAT ?IsNoDropState@ioSpecialStateBase@@UAE_NPAVioBaseChar@@@Z
_TEXT	SEGMENT
_pOwner$ = 8						; size = 4
?IsNoDropState@ioSpecialStateBase@@UAE_NPAVioBaseChar@@@Z PROC ; ioSpecialStateBase::IsNoDropState, COMDAT
; _this$ = ecx

; 54   : 	virtual bool IsNoDropState( ioBaseChar* pOwner ) { return false; }

  00000	32 c0		 xor	 al, al
  00002	c2 04 00	 ret	 4
?IsNoDropState@ioSpecialStateBase@@UAE_NPAVioBaseChar@@@Z ENDP ; ioSpecialStateBase::IsNoDropState
; Function compile flags: /Ogsp
_TEXT	ENDS
;	COMDAT ?IsCanChangeJumppingState@ioSpecialStateBase@@UAE_NPAVioBaseChar@@@Z
_TEXT	SEGMENT
_pOwner$ = 8						; size = 4
?IsCanChangeJumppingState@ioSpecialStateBase@@UAE_NPAVioBaseChar@@@Z PROC ; ioSpecialStateBase::IsCanChangeJumppingState, COMDAT
; _this$ = ecx

; 56   : 	virtual bool IsCanChangeJumppingState( ioBaseChar* pOwner ) { return false; }

  00000	32 c0		 xor	 al, al
  00002	c2 04 00	 ret	 4
?IsCanChangeJumppingState@ioSpecialStateBase@@UAE_NPAVioBaseChar@@@Z ENDP ; ioSpecialStateBase::IsCanChangeJumppingState
; Function compile flags: /Ogsp
_TEXT	ENDS
;	COMDAT ?IsEnableDashState@ioSpecialStateBase@@UAE_NPAVioBaseChar@@@Z
_TEXT	SEGMENT
_pOwner$ = 8						; size = 4
?IsEnableDashState@ioSpecialStateBase@@UAE_NPAVioBaseChar@@@Z PROC ; ioSpecialStateBase::IsEnableDashState, COMDAT
; _this$ = ecx

; 58   : 	virtual bool IsEnableDashState( ioBaseChar* pOwner ){ return false; }

  00000	32 c0		 xor	 al, al
  00002	c2 04 00	 ret	 4
?IsEnableDashState@ioSpecialStateBase@@UAE_NPAVioBaseChar@@@Z ENDP ; ioSpecialStateBase::IsEnableDashState
; Function compile flags: /Ogsp
_TEXT	ENDS
;	COMDAT ?IsStateEnd@ioSpecialStateBase@@UAE_NPAVioBaseChar@@@Z
_TEXT	SEGMENT
_pOwner$ = 8						; size = 4
?IsStateEnd@ioSpecialStateBase@@UAE_NPAVioBaseChar@@@Z PROC ; ioSpecialStateBase::IsStateEnd, COMDAT
; _this$ = ecx

; 61   : 	virtual bool IsStateEnd( ioBaseChar* pOwner ){ return false; }

  00000	32 c0		 xor	 al, al
  00002	c2 04 00	 ret	 4
?IsStateEnd@ioSpecialStateBase@@UAE_NPAVioBaseChar@@@Z ENDP ; ioSpecialStateBase::IsStateEnd
; Function compile flags: /Ogsp
_TEXT	ENDS
;	COMDAT ?IsProcessFlyMove@ioSpecialStateBase@@UAE_NXZ
_TEXT	SEGMENT
?IsProcessFlyMove@ioSpecialStateBase@@UAE_NXZ PROC	; ioSpecialStateBase::IsProcessFlyMove, COMDAT
; _this$ = ecx

; 62   : 	virtual bool IsProcessFlyMove(){ return false; }	

  00000	32 c0		 xor	 al, al
  00002	c3		 ret	 0
?IsProcessFlyMove@ioSpecialStateBase@@UAE_NXZ ENDP	; ioSpecialStateBase::IsProcessFlyMove
; Function compile flags: /Ogsp
_TEXT	ENDS
;	COMDAT ?IsFloatingState@ioSpecialStateBase@@UBE_NQBVioBaseChar@@@Z
_TEXT	SEGMENT
_pOwner$ = 8						; size = 4
?IsFloatingState@ioSpecialStateBase@@UBE_NQBVioBaseChar@@@Z PROC ; ioSpecialStateBase::IsFloatingState, COMDAT
; _this$ = ecx

; 64   : 	virtual bool IsFloatingState( const ioBaseChar * const pOwner ) const { return false; }	

  00000	32 c0		 xor	 al, al
  00002	c2 04 00	 ret	 4
?IsFloatingState@ioSpecialStateBase@@UBE_NQBVioBaseChar@@@Z ENDP ; ioSpecialStateBase::IsFloatingState
; Function compile flags: /Ogsp
_TEXT	ENDS
;	COMDAT ?IsInitializeSync@ioSpecialStateBase@@UAE_NXZ
_TEXT	SEGMENT
?IsInitializeSync@ioSpecialStateBase@@UAE_NXZ PROC	; ioSpecialStateBase::IsInitializeSync, COMDAT
; _this$ = ecx

; 68   : 	virtual bool IsInitializeSync(){ return false; }

  00000	32 c0		 xor	 al, al
  00002	c3		 ret	 0
?IsInitializeSync@ioSpecialStateBase@@UAE_NXZ ENDP	; ioSpecialStateBase::IsInitializeSync
; Function compile flags: /Ogsp
_TEXT	ENDS
;	COMDAT ?IsJoinSync@ioSpecialStateBase@@UAE_NXZ
_TEXT	SEGMENT
?IsJoinSync@ioSpecialStateBase@@UAE_NXZ PROC		; ioSpecialStateBase::IsJoinSync, COMDAT
; _this$ = ecx

; 71   : 	virtual bool IsJoinSync(){ return true; }

  00000	b0 01		 mov	 al, 1
  00002	c3		 ret	 0
?IsJoinSync@ioSpecialStateBase@@UAE_NXZ ENDP		; ioSpecialStateBase::IsJoinSync
_TEXT	ENDS
PUBLIC	??_C@_0P@EPEGKMAM@CS_DRACULA_FLY?$AA@		; `string'
;	COMDAT ??_C@_0P@EPEGKMAM@CS_DRACULA_FLY?$AA@
; File d:\lost saga for developer\youtube\tutorial\source\src\lsclient\iodraculaitem.h
CONST	SEGMENT
??_C@_0P@EPEGKMAM@CS_DRACULA_FLY?$AA@ DB 'CS_DRACULA_FLY', 00H ; `string'
; Function compile flags: /Ogsp
CONST	ENDS
;	COMDAT ?GetStateName@ioDraculaFlySpecialState@@UAEPBDXZ
_TEXT	SEGMENT
?GetStateName@ioDraculaFlySpecialState@@UAEPBDXZ PROC	; ioDraculaFlySpecialState::GetStateName, COMDAT
; _this$ = ecx

; 197  : 	virtual const char* GetStateName(){ return "CS_DRACULA_FLY"; }

  00000	b8 00 00 00 00	 mov	 eax, OFFSET ??_C@_0P@EPEGKMAM@CS_DRACULA_FLY?$AA@
  00005	c3		 ret	 0
?GetStateName@ioDraculaFlySpecialState@@UAEPBDXZ ENDP	; ioDraculaFlySpecialState::GetStateName
; Function compile flags: /Ogsp
_TEXT	ENDS
;	COMDAT ?GetState@ioDraculaFlySpecialState@@UAE?BW4CharState@@XZ
_TEXT	SEGMENT
?GetState@ioDraculaFlySpecialState@@UAE?BW4CharState@@XZ PROC ; ioDraculaFlySpecialState::GetState, COMDAT
; _this$ = ecx

; 198  : 	virtual const CharState GetState(){ return CS_DRACULA_FLY; }	

  00000	b0 68		 mov	 al, 104			; 00000068H
  00002	c3		 ret	 0
?GetState@ioDraculaFlySpecialState@@UAE?BW4CharState@@XZ ENDP ; ioDraculaFlySpecialState::GetState
; Function compile flags: /Ogsp
_TEXT	ENDS
;	COMDAT ?IsSendControlInfoToUser@ioDraculaFlySpecialState@@UAE_NPAVioBaseChar@@@Z
_TEXT	SEGMENT
_pOwner$ = 8						; size = 4
?IsSendControlInfoToUser@ioDraculaFlySpecialState@@UAE_NPAVioBaseChar@@@Z PROC ; ioDraculaFlySpecialState::IsSendControlInfoToUser, COMDAT
; _this$ = ecx

; 199  : 	virtual bool IsSendControlInfoToUser( ioBaseChar* pOwner ){ return false; }	

  00000	32 c0		 xor	 al, al
  00002	c2 04 00	 ret	 4
?IsSendControlInfoToUser@ioDraculaFlySpecialState@@UAE_NPAVioBaseChar@@@Z ENDP ; ioDraculaFlySpecialState::IsSendControlInfoToUser
_TEXT	ENDS
PUBLIC	??1ioDraculaFlySpecialState@@UAE@XZ		; ioDraculaFlySpecialState::~ioDraculaFlySpecialState
EXTRN	??1ioSpecialStateBase@@UAE@XZ:PROC		; ioSpecialStateBase::~ioSpecialStateBase
; Function compile flags: /Ogsp
; File d:\lost saga for developer\youtube\tutorial\source\src\lsclient\iodraculaitem.cpp
;	COMDAT ??1ioDraculaFlySpecialState@@UAE@XZ
_TEXT	SEGMENT
??1ioDraculaFlySpecialState@@UAE@XZ PROC		; ioDraculaFlySpecialState::~ioDraculaFlySpecialState, COMDAT
; _this$ = ecx

; 1210 : {

  00000	c7 01 00 00 00
	00		 mov	 DWORD PTR [ecx], OFFSET ??_7ioDraculaFlySpecialState@@6B@

; 1211 : }

  00006	e9 00 00 00 00	 jmp	 ??1ioSpecialStateBase@@UAE@XZ ; ioSpecialStateBase::~ioSpecialStateBase
??1ioDraculaFlySpecialState@@UAE@XZ ENDP		; ioDraculaFlySpecialState::~ioDraculaFlySpecialState
_TEXT	ENDS
EXTRN	?Initialize@ioSpecialStateBase@@UAEXPAVioBaseChar@@W4CharState@@@Z:PROC ; ioSpecialStateBase::Initialize
; Function compile flags: /Ogsp
;	COMDAT ?Initialize@ioDraculaFlySpecialState@@UAEXPAVioBaseChar@@W4CharState@@@Z
_TEXT	SEGMENT
_pOwner$ = 8						; size = 4
_eCurrState$ = 12					; size = 1
?Initialize@ioDraculaFlySpecialState@@UAEXPAVioBaseChar@@W4CharState@@@Z PROC ; ioDraculaFlySpecialState::Initialize, COMDAT
; _this$ = ecx

; 1214 : {

  00000	55		 push	 ebp
  00001	8b ec		 mov	 ebp, esp

; 1216 : }

  00003	5d		 pop	 ebp

; 1215 : 	ioSpecialStateBase::Initialize( pOwner, eCurrState );

  00004	e9 00 00 00 00	 jmp	 ?Initialize@ioSpecialStateBase@@UAEXPAVioBaseChar@@W4CharState@@@Z ; ioSpecialStateBase::Initialize
?Initialize@ioDraculaFlySpecialState@@UAEXPAVioBaseChar@@W4CharState@@@Z ENDP ; ioDraculaFlySpecialState::Initialize
; Function compile flags: /Ogsp
_TEXT	ENDS
;	COMDAT ?CheckFallStateChange@ioDraculaFlySpecialState@@UAEXPAVioBaseChar@@MM_NM@Z
_TEXT	SEGMENT
_pOwner$ = 8						; size = 4
_fMinFallHeightRate$ = 12				; size = 4
_fBottomHeight$ = 16					; size = 4
_bBottomMaxCheck$ = 20					; size = 1
_fMaxBottomHeight$ = 24					; size = 4
?CheckFallStateChange@ioDraculaFlySpecialState@@UAEXPAVioBaseChar@@MM_NM@Z PROC ; ioDraculaFlySpecialState::CheckFallStateChange, COMDAT
; _this$ = ecx

; 1255 : 	return;
; 1256 : }

  00000	c2 14 00	 ret	 20			; 00000014H
?CheckFallStateChange@ioDraculaFlySpecialState@@UAEXPAVioBaseChar@@MM_NM@Z ENDP ; ioDraculaFlySpecialState::CheckFallStateChange
_TEXT	ENDS
PUBLIC	??A?$vector@VioHashString@@V?$allocator@VioHashString@@@std@@@std@@QAEAAVioHashString@@I@Z ; std::vector<ioHashString,std::allocator<ioHashString> >::operator[]
; Function compile flags: /Ogsp
; File c:\program files (x86)\microsoft visual studio 10.0\vc\include\vector
;	COMDAT ??A?$vector@VioHashString@@V?$allocator@VioHashString@@@std@@@std@@QAEAAVioHashString@@I@Z
_TEXT	SEGMENT
__Pos$ = 8						; size = 4
??A?$vector@VioHashString@@V?$allocator@VioHashString@@@std@@@std@@QAEAAVioHashString@@I@Z PROC ; std::vector<ioHashString,std::allocator<ioHashString> >::operator[], COMDAT
; _this$ = ecx

; 928  : 		{	// subscript mutable sequence

  00000	55		 push	 ebp
  00001	8b ec		 mov	 ebp, esp

; 929  :  #if _ITERATOR_DEBUG_LEVEL == 2
; 930  : 		if (size() <= _Pos)
; 931  : 			{	// report error
; 932  : 			_DEBUG_ERROR("vector subscript out of range");
; 933  : 			_SCL_SECURE_OUT_OF_RANGE;
; 934  : 			}
; 935  : 
; 936  :  #elif _ITERATOR_DEBUG_LEVEL == 1
; 937  : 		_SCL_SECURE_VALIDATE_RANGE(_Pos < size());
; 938  :  #endif /* _ITERATOR_DEBUG_LEVEL */
; 939  : 
; 940  : 		return (*(this->_Myfirst + _Pos));

  00003	8b 45 08	 mov	 eax, DWORD PTR __Pos$[ebp]
  00006	c1 e0 04	 shl	 eax, 4
  00009	03 01		 add	 eax, DWORD PTR [ecx]

; 941  : 		}

  0000b	5d		 pop	 ebp
  0000c	c2 04 00	 ret	 4
??A?$vector@VioHashString@@V?$allocator@VioHashString@@@std@@@std@@QAEAAVioHashString@@I@Z ENDP ; std::vector<ioHashString,std::allocator<ioHashString> >::operator[]
_TEXT	ENDS
PUBLIC	?capacity@?$vector@VioHashString@@V?$allocator@VioHashString@@@std@@@std@@QBEIXZ ; std::vector<ioHashString,std::allocator<ioHashString> >::capacity
; Function compile flags: /Ogsp
;	COMDAT ?capacity@?$vector@VioHashString@@V?$allocator@VioHashString@@@std@@@std@@QBEIXZ
_TEXT	SEGMENT
?capacity@?$vector@VioHashString@@V?$allocator@VioHashString@@@std@@@std@@QBEIXZ PROC ; std::vector<ioHashString,std::allocator<ioHashString> >::capacity, COMDAT
; _this$ = ecx

; 777  : 		return (this->_Myend - this->_Myfirst);

  00000	8b 41 08	 mov	 eax, DWORD PTR [ecx+8]
  00003	2b 01		 sub	 eax, DWORD PTR [ecx]
  00005	c1 f8 04	 sar	 eax, 4

; 778  : 		}

  00008	c3		 ret	 0
?capacity@?$vector@VioHashString@@V?$allocator@VioHashString@@@std@@@std@@QBEIXZ ENDP ; std::vector<ioHashString,std::allocator<ioHashString> >::capacity
_TEXT	ENDS
PUBLIC	?_Inside@?$vector@VioHashString@@V?$allocator@VioHashString@@@std@@@std@@IBE_NPBVioHashString@@@Z ; std::vector<ioHashString,std::allocator<ioHashString> >::_Inside
; Function compile flags: /Ogsp
;	COMDAT ?_Inside@?$vector@VioHashString@@V?$allocator@VioHashString@@@std@@@std@@IBE_NPBVioHashString@@@Z
_TEXT	SEGMENT
__Ptr$ = 8						; size = 4
?_Inside@?$vector@VioHashString@@V?$allocator@VioHashString@@@std@@@std@@IBE_NPBVioHashString@@@Z PROC ; std::vector<ioHashString,std::allocator<ioHashString> >::_Inside, COMDAT
; _this$ = ecx

; 1285 : 		{	// test if _Ptr points inside vector

  00000	55		 push	 ebp
  00001	8b ec		 mov	 ebp, esp

; 1286 : 		return (_Ptr < this->_Mylast && this->_Myfirst <= _Ptr);

  00003	8b 45 08	 mov	 eax, DWORD PTR __Ptr$[ebp]
  00006	3b 41 04	 cmp	 eax, DWORD PTR [ecx+4]
  00009	73 09		 jae	 SHORT $LN3@Inside
  0000b	39 01		 cmp	 DWORD PTR [ecx], eax
  0000d	77 05		 ja	 SHORT $LN3@Inside
  0000f	33 c0		 xor	 eax, eax
  00011	40		 inc	 eax
  00012	eb 02		 jmp	 SHORT $LN4@Inside
$LN3@Inside:
  00014	33 c0		 xor	 eax, eax
$LN4@Inside:

; 1287 : 		}

  00016	5d		 pop	 ebp
  00017	c2 04 00	 ret	 4
?_Inside@?$vector@VioHashString@@V?$allocator@VioHashString@@@std@@@std@@IBE_NPBVioHashString@@@Z ENDP ; std::vector<ioHashString,std::allocator<ioHashString> >::_Inside
_TEXT	ENDS
PUBLIC	?_Orphan_range@?$vector@VioHashString@@V?$allocator@VioHashString@@@std@@@std@@IBEXPAVioHashString@@0@Z ; std::vector<ioHashString,std::allocator<ioHashString> >::_Orphan_range
; Function compile flags: /Ogsp
;	COMDAT ?_Orphan_range@?$vector@VioHashString@@V?$allocator@VioHashString@@@std@@@std@@IBEXPAVioHashString@@0@Z
_TEXT	SEGMENT
___formal$ = 8						; size = 4
___formal$ = 12						; size = 4
?_Orphan_range@?$vector@VioHashString@@V?$allocator@VioHashString@@@std@@@std@@IBEXPAVioHashString@@0@Z PROC ; std::vector<ioHashString,std::allocator<ioHashString> >::_Orphan_range, COMDAT
; _this$ = ecx

; 1454 : 		}

  00000	c2 08 00	 ret	 8
?_Orphan_range@?$vector@VioHashString@@V?$allocator@VioHashString@@@std@@@std@@IBEXPAVioHashString@@0@Z ENDP ; std::vector<ioHashString,std::allocator<ioHashString> >::_Orphan_range
_TEXT	ENDS
PUBLIC	?DecryptValueToPool@?$CEncrypt@W4JumpState@@@@QAEXPAW4JumpState@@@Z ; CEncrypt<enum JumpState>::DecryptValueToPool
EXTRN	?DecryptByte@ccddaabb@@QBEXPBDPADH@Z:PROC	; ccddaabb::DecryptByte
; Function compile flags: /Ogsp
; File d:\lost saga for developer\youtube\tutorial\source\src\lsclient\encryptvalue.h
;	COMDAT ?DecryptValueToPool@?$CEncrypt@W4JumpState@@@@QAEXPAW4JumpState@@@Z
_TEXT	SEGMENT
_value$ = 8						; size = 4
?DecryptValueToPool@?$CEncrypt@W4JumpState@@@@QAEXPAW4JumpState@@@Z PROC ; CEncrypt<enum JumpState>::DecryptValueToPool, COMDAT
; _this$ = ecx

; 2317 : 	{

  00000	55		 push	 ebp
  00001	8b ec		 mov	 ebp, esp
  00003	56		 push	 esi

; 2318 : 		m_RC5.DecryptByte( m_MemPool, m_TempMem, sizeof(JumpState) );

  00004	8d 71 28	 lea	 esi, DWORD PTR [ecx+40]
  00007	6a 04		 push	 4
  00009	8d 41 1c	 lea	 eax, DWORD PTR [ecx+28]
  0000c	56		 push	 esi
  0000d	50		 push	 eax
  0000e	83 c1 0c	 add	 ecx, 12			; 0000000cH
  00011	e8 00 00 00 00	 call	 ?DecryptByte@ccddaabb@@QBEXPBDPADH@Z ; ccddaabb::DecryptByte

; 2319 : 		*value = *((JumpState*)m_TempMem);

  00016	8b 06		 mov	 eax, DWORD PTR [esi]
  00018	8b 4d 08	 mov	 ecx, DWORD PTR _value$[ebp]
  0001b	89 01		 mov	 DWORD PTR [ecx], eax
  0001d	5e		 pop	 esi

; 2320 : 	}

  0001e	5d		 pop	 ebp
  0001f	c2 04 00	 ret	 4
?DecryptValueToPool@?$CEncrypt@W4JumpState@@@@QAEXPAW4JumpState@@@Z ENDP ; CEncrypt<enum JumpState>::DecryptValueToPool
_TEXT	ENDS
PUBLIC	__real@3f91df46a2526c7a
PUBLIC	??$DEGtoRAD@M@@YAMM@Z				; DEGtoRAD<float>
;	COMDAT __real@3f91df46a2526c7a
; File d:\lost saga for developer\youtube\tutorial\source\src\lsclient\veryoftenusedefine.h
CONST	SEGMENT
__real@3f91df46a2526c7a DQ 03f91df46a2526c7ar	; 0.0174533
; Function compile flags: /Ogsp
CONST	ENDS
;	COMDAT ??$DEGtoRAD@M@@YAMM@Z
_TEXT	SEGMENT
tv129 = 8						; size = 4
_val$ = 8						; size = 4
??$DEGtoRAD@M@@YAMM@Z PROC				; DEGtoRAD<float>, COMDAT

; 20   : type  DEGtoRAD (type val) {return (type) (val * 0.0174532925199);}

  00000	55		 push	 ebp
  00001	8b ec		 mov	 ebp, esp
  00003	d9 45 08	 fld	 DWORD PTR _val$[ebp]
  00006	dc 0d 00 00 00
	00		 fmul	 QWORD PTR __real@3f91df46a2526c7a
  0000c	d9 5d 08	 fstp	 DWORD PTR tv129[ebp]
  0000f	d9 45 08	 fld	 DWORD PTR tv129[ebp]
  00012	5d		 pop	 ebp
  00013	c3		 ret	 0
??$DEGtoRAD@M@@YAMM@Z ENDP				; DEGtoRAD<float>
_TEXT	ENDS
PUBLIC	??$addressof@VioHashString@@@std@@YAPAVioHashString@@AAV1@@Z ; std::addressof<ioHashString>
; Function compile flags: /Ogsp
; File c:\program files (x86)\microsoft visual studio 10.0\vc\include\xmemory
;	COMDAT ??$addressof@VioHashString@@@std@@YAPAVioHashString@@AAV1@@Z
_TEXT	SEGMENT
__Val$ = 8						; size = 4
??$addressof@VioHashString@@@std@@YAPAVioHashString@@AAV1@@Z PROC ; std::addressof<ioHashString>, COMDAT

; 110  : 	{	// return address of _Val

  00000	55		 push	 ebp
  00001	8b ec		 mov	 ebp, esp

; 111  : 	return ((_Ty *) &(char&)_Val);

  00003	8b 45 08	 mov	 eax, DWORD PTR __Val$[ebp]

; 112  : 	}

  00006	5d		 pop	 ebp
  00007	c3		 ret	 0
??$addressof@VioHashString@@@std@@YAPAVioHashString@@AAV1@@Z ENDP ; std::addressof<ioHashString>
_TEXT	ENDS
PUBLIC	??$forward@VioHashString@@@std@@YA$$QAVioHashString@@AAV1@@Z ; std::forward<ioHashString>
; Function compile flags: /Ogsp
; File c:\program files (x86)\microsoft visual studio 10.0\vc\include\utility
;	COMDAT ??$forward@VioHashString@@@std@@YA$$QAVioHashString@@AAV1@@Z
_TEXT	SEGMENT
__Arg$ = 8						; size = 4
??$forward@VioHashString@@@std@@YA$$QAVioHashString@@AAV1@@Z PROC ; std::forward<ioHashString>, COMDAT

; 78   : 	{	// forward _Arg, given explicitly specified type parameter

  00000	55		 push	 ebp
  00001	8b ec		 mov	 ebp, esp

; 79   : 	return ((_Ty&&)_Arg);

  00003	8b 45 08	 mov	 eax, DWORD PTR __Arg$[ebp]

; 80   : 	}

  00006	5d		 pop	 ebp
  00007	c3		 ret	 0
??$forward@VioHashString@@@std@@YA$$QAVioHashString@@AAV1@@Z ENDP ; std::forward<ioHashString>
_TEXT	ENDS
PUBLIC	??$addressof@$$CBVioHashString@@@std@@YAPBVioHashString@@ABV1@@Z ; std::addressof<ioHashString const >
; Function compile flags: /Ogsp
; File c:\program files (x86)\microsoft visual studio 10.0\vc\include\xmemory
;	COMDAT ??$addressof@$$CBVioHashString@@@std@@YAPBVioHashString@@ABV1@@Z
_TEXT	SEGMENT
__Val$ = 8						; size = 4
??$addressof@$$CBVioHashString@@@std@@YAPBVioHashString@@ABV1@@Z PROC ; std::addressof<ioHashString const >, COMDAT

; 110  : 	{	// return address of _Val

  00000	55		 push	 ebp
  00001	8b ec		 mov	 ebp, esp

; 111  : 	return ((_Ty *) &(char&)_Val);

  00003	8b 45 08	 mov	 eax, DWORD PTR __Val$[ebp]

; 112  : 	}

  00006	5d		 pop	 ebp
  00007	c3		 ret	 0
??$addressof@$$CBVioHashString@@@std@@YAPBVioHashString@@ABV1@@Z ENDP ; std::addressof<ioHashString const >
_TEXT	ENDS
PUBLIC	?construct@?$allocator@VioHashString@@@std@@QAEXPAVioHashString@@$$QAV3@@Z ; std::allocator<ioHashString>::construct
EXTRN	__imp_??0ioHashString@@QAE@ABV0@@Z:PROC
EXTRN	___CxxFrameHandler3:PROC
EXTRN	__EH_epilog3:PROC
EXTRN	__EH_prolog3:PROC
;	COMDAT xdata$x
; File c:\program files (x86)\microsoft visual studio 10.0\vc\include\utility
xdata$x	SEGMENT
__unwindtable$?construct@?$allocator@VioHashString@@@std@@QAEXPAVioHashString@@$$QAV3@@Z DD 0ffffffffH
	DD	FLAT:__unwindfunclet$?construct@?$allocator@VioHashString@@@std@@QAEXPAVioHashString@@$$QAV3@@Z$0
__ehfuncinfo$?construct@?$allocator@VioHashString@@@std@@QAEXPAVioHashString@@$$QAV3@@Z DD 019930522H
	DD	01H
	DD	FLAT:__unwindtable$?construct@?$allocator@VioHashString@@@std@@QAEXPAVioHashString@@$$QAV3@@Z
	DD	2 DUP(00H)
	DD	2 DUP(00H)
	DD	00H
	DD	01H
; Function compile flags: /Ogsp
; File c:\program files (x86)\microsoft visual studio 10.0\vc\include\xmemory
xdata$x	ENDS
;	COMDAT ?construct@?$allocator@VioHashString@@@std@@QAEXPAVioHashString@@$$QAV3@@Z
_TEXT	SEGMENT
$T613538 = -16						; size = 4
__$EHRec$ = -12						; size = 12
__Ptr$ = 8						; size = 4
__Val$ = 12						; size = 4
?construct@?$allocator@VioHashString@@@std@@QAEXPAVioHashString@@$$QAV3@@Z PROC ; std::allocator<ioHashString>::construct, COMDAT
; _this$ = ecx

; 201  : 		{	// construct object at _Ptr with value _Val

  00000	6a 04		 push	 4
  00002	b8 00 00 00 00	 mov	 eax, __ehhandler$?construct@?$allocator@VioHashString@@@std@@QAEXPAVioHashString@@$$QAV3@@Z
  00007	e8 00 00 00 00	 call	 __EH_prolog3

; 202  : 		::new ((void _FARQ *)_Ptr) _Ty(_STD forward<_Ty>(_Val));

  0000c	8b 4d 08	 mov	 ecx, DWORD PTR __Ptr$[ebp]
  0000f	89 4d f0	 mov	 DWORD PTR $T613538[ebp], ecx
  00012	83 65 fc 00	 and	 DWORD PTR __$EHRec$[ebp+8], 0
  00016	85 c9		 test	 ecx, ecx
  00018	74 09		 je	 SHORT $LN3@construct
  0001a	ff 75 0c	 push	 DWORD PTR __Val$[ebp]
  0001d	ff 15 00 00 00
	00		 call	 DWORD PTR __imp_??0ioHashString@@QAE@ABV0@@Z
$LN3@construct:

; 203  : 		}

  00023	e8 00 00 00 00	 call	 __EH_epilog3
  00028	c2 08 00	 ret	 8
_TEXT	ENDS
;	COMDAT text$x
text$x	SEGMENT
__unwindfunclet$?construct@?$allocator@VioHashString@@@std@@QAEXPAVioHashString@@$$QAV3@@Z$0:
  00000	ff 75 08	 push	 DWORD PTR __Ptr$[ebp]
  00003	ff 75 f0	 push	 DWORD PTR $T613538[ebp]
  00006	e8 00 00 00 00	 call	 ??3@YAXPAX0@Z		; operator delete
  0000b	59		 pop	 ecx
  0000c	59		 pop	 ecx
  0000d	c3		 ret	 0
__ehhandler$?construct@?$allocator@VioHashString@@@std@@QAEXPAVioHashString@@$$QAV3@@Z:
  0000e	8b 54 24 08	 mov	 edx, DWORD PTR [esp+8]
  00012	8d 42 0c	 lea	 eax, DWORD PTR [edx+12]
  00015	8b 4a ec	 mov	 ecx, DWORD PTR [edx-20]
  00018	33 c8		 xor	 ecx, eax
  0001a	e8 00 00 00 00	 call	 @__security_check_cookie@4
  0001f	b8 00 00 00 00	 mov	 eax, OFFSET __ehfuncinfo$?construct@?$allocator@VioHashString@@@std@@QAEXPAVioHashString@@$$QAV3@@Z
  00024	e9 00 00 00 00	 jmp	 ___CxxFrameHandler3
text$x	ENDS
?construct@?$allocator@VioHashString@@@std@@QAEXPAVioHashString@@$$QAV3@@Z ENDP ; std::allocator<ioHashString>::construct
PUBLIC	??$_Copy_impl@PAVioHashString@@PAV1@@std@@YAPAVioHashString@@PAV1@00U_Nonscalar_ptr_iterator_tag@0@@Z ; std::_Copy_impl<ioHashString *,ioHashString *>
EXTRN	__imp_??4ioHashString@@QAEAAV0@ABV0@@Z:PROC
; Function compile flags: /Ogsp
; File c:\program files (x86)\microsoft visual studio 10.0\vc\include\xutility
;	COMDAT ??$_Copy_impl@PAVioHashString@@PAV1@@std@@YAPAVioHashString@@PAV1@00U_Nonscalar_ptr_iterator_tag@0@@Z
_TEXT	SEGMENT
__First$ = 8						; size = 4
__Last$ = 12						; size = 4
__Dest$ = 16						; size = 4
___formal$ = 20						; size = 1
??$_Copy_impl@PAVioHashString@@PAV1@@std@@YAPAVioHashString@@PAV1@00U_Nonscalar_ptr_iterator_tag@0@@Z PROC ; std::_Copy_impl<ioHashString *,ioHashString *>, COMDAT

; 2142 : 	{	// copy [_First, _Last) to [_Dest, ...), arbitrary iterators

  00000	55		 push	 ebp
  00001	8b ec		 mov	 ebp, esp
  00003	56		 push	 esi

; 2143 : 	for (; _First != _Last; ++_Dest, ++_First)

  00004	8b 75 08	 mov	 esi, DWORD PTR __First$[ebp]
  00007	eb 11		 jmp	 SHORT $LN9@Copy_impl
$LL3@Copy_impl:

; 2144 : 		*_Dest = *_First;

  00009	8b 4d 10	 mov	 ecx, DWORD PTR __Dest$[ebp]
  0000c	56		 push	 esi
  0000d	ff 15 00 00 00
	00		 call	 DWORD PTR __imp_??4ioHashString@@QAEAAV0@ABV0@@Z
  00013	83 45 10 10	 add	 DWORD PTR __Dest$[ebp], 16 ; 00000010H
  00017	83 c6 10	 add	 esi, 16			; 00000010H
$LN9@Copy_impl:

; 2143 : 	for (; _First != _Last; ++_Dest, ++_First)

  0001a	3b 75 0c	 cmp	 esi, DWORD PTR __Last$[ebp]
  0001d	75 ea		 jne	 SHORT $LL3@Copy_impl

; 2145 : 	return (_Dest);

  0001f	8b 45 10	 mov	 eax, DWORD PTR __Dest$[ebp]
  00022	5e		 pop	 esi

; 2146 : 	}

  00023	5d		 pop	 ebp
  00024	c3		 ret	 0
??$_Copy_impl@PAVioHashString@@PAV1@@std@@YAPAVioHashString@@PAV1@00U_Nonscalar_ptr_iterator_tag@0@@Z ENDP ; std::_Copy_impl<ioHashString *,ioHashString *>
_TEXT	ENDS
PUBLIC	??$_Val_type@PAVioHashString@@@std@@YAPAVioHashString@@PAV1@@Z ; std::_Val_type<ioHashString *>
; Function compile flags: /Ogsp
;	COMDAT ??$_Val_type@PAVioHashString@@@std@@YAPAVioHashString@@PAV1@@Z
_TEXT	SEGMENT
___formal$ = 8						; size = 4
??$_Val_type@PAVioHashString@@@std@@YAPAVioHashString@@PAV1@@Z PROC ; std::_Val_type<ioHashString *>, COMDAT

; 790  : 	return (0);

  00000	33 c0		 xor	 eax, eax

; 791  : 	}

  00002	c3		 ret	 0
??$_Val_type@PAVioHashString@@@std@@YAPAVioHashString@@PAV1@@Z ENDP ; std::_Val_type<ioHashString *>
_TEXT	ENDS
PUBLIC	?_DECSTR@@YAXPADH@Z				; _DECSTR
; Function compile flags: /Ogsp
; File d:\lost saga for developer\youtube\tutorial\source\src\lsclient\stringprotect.h
;	COMDAT ?_DECSTR@@YAXPADH@Z
_TEXT	SEGMENT
_s$ = 8							; size = 4
_l$ = 12						; size = 4
?_DECSTR@@YAXPADH@Z PROC				; _DECSTR, COMDAT

; 40   : __forceinline void _DECSTR(char* s, int l){int i=0,l4=(l-1)/4,*p=(int*)s;s[l-1]=0;for(;i<l4;++i)*(p++)^=0xEAEBECED;for(i=l4*4;i<l-1;++i)s[i]^=0xED-i%4;}

  00000	55		 push	 ebp
  00001	8b ec		 mov	 ebp, esp
  00003	8b 4d 0c	 mov	 ecx, DWORD PTR _l$[ebp]
  00006	56		 push	 esi
  00007	8b 75 08	 mov	 esi, DWORD PTR _s$[ebp]
  0000a	57		 push	 edi
  0000b	8d 79 ff	 lea	 edi, DWORD PTR [ecx-1]
  0000e	8b c7		 mov	 eax, edi
  00010	99		 cdq
  00011	83 e2 03	 and	 edx, 3
  00014	03 c2		 add	 eax, edx
  00016	c1 f8 02	 sar	 eax, 2
  00019	8b d6		 mov	 edx, esi
  0001b	c6 44 0e ff 00	 mov	 BYTE PTR [esi+ecx-1], 0
  00020	85 c0		 test	 eax, eax
  00022	7e 0e		 jle	 SHORT $LN4@DECSTR
  00024	8b c8		 mov	 ecx, eax
$LL6@DECSTR:
  00026	81 32 ed ec eb
	ea		 xor	 DWORD PTR [edx], -353637139 ; eaebecedH
  0002c	83 c2 04	 add	 edx, 4
  0002f	49		 dec	 ecx
  00030	75 f4		 jne	 SHORT $LL6@DECSTR
$LN4@DECSTR:
  00032	c1 e0 02	 shl	 eax, 2
  00035	eb 17		 jmp	 SHORT $LN14@DECSTR
$LL3@DECSTR:
  00037	8b c8		 mov	 ecx, eax
  00039	81 e1 03 00 00
	80		 and	 ecx, -2147483645	; 80000003H
  0003f	79 05		 jns	 SHORT $LN13@DECSTR
  00041	49		 dec	 ecx
  00042	83 c9 fc	 or	 ecx, -4			; fffffffcH
  00045	41		 inc	 ecx
$LN13@DECSTR:
  00046	b2 ed		 mov	 dl, -19			; ffffffedH
  00048	2a d1		 sub	 dl, cl
  0004a	30 14 30	 xor	 BYTE PTR [eax+esi], dl
  0004d	40		 inc	 eax
$LN14@DECSTR:
  0004e	3b c7		 cmp	 eax, edi
  00050	7c e5		 jl	 SHORT $LL3@DECSTR
  00052	5f		 pop	 edi
  00053	5e		 pop	 esi
  00054	5d		 pop	 ebp
  00055	c3		 ret	 0
?_DECSTR@@YAXPADH@Z ENDP				; _DECSTR
_TEXT	ENDS
PUBLIC	?return57@@YAIXZ				; return57
; Function compile flags: /Ogsp
; File d:\lost saga for developer\youtube\tutorial\source\src\lsclient\veryoftenusedefine.h
;	COMDAT ?return57@@YAIXZ
_TEXT	SEGMENT
?return57@@YAIXZ PROC					; return57, COMDAT

; 15   : __forceinline unsigned int return57() { __asm mov eax, 57 };

  00000	b8 39 00 00 00	 mov	 eax, 57			; 00000039H
  00005	c3		 ret	 0
?return57@@YAIXZ ENDP					; return57
_TEXT	ENDS
PUBLIC	?GetGroup@ioGameEntity@@QBEPAVioEntityGroup@@XZ	; ioGameEntity::GetGroup
; Function compile flags: /Ogsp
; File d:\lost saga for developer\youtube\tutorial\source\src\lsclient\iogameentity.h
;	COMDAT ?GetGroup@ioGameEntity@@QBEPAVioEntityGroup@@XZ
_TEXT	SEGMENT
?GetGroup@ioGameEntity@@QBEPAVioEntityGroup@@XZ PROC	; ioGameEntity::GetGroup, COMDAT
; _this$ = ecx

; 166  : 	inline ioEntityGroup* GetGroup() const { return m_pGroup; }

  00000	8b 41 04	 mov	 eax, DWORD PTR [ecx+4]
  00003	c3		 ret	 0
?GetGroup@ioGameEntity@@QBEPAVioEntityGroup@@XZ ENDP	; ioGameEntity::GetGroup
_TEXT	ENDS
PUBLIC	?Init@tagDraculaFlyInfo@@QAEXXZ			; tagDraculaFlyInfo::Init
; Function compile flags: /Ogsp
; File d:\lost saga for developer\youtube\tutorial\source\src\lsclient\playentityhelpstruct.h
;	COMDAT ?Init@tagDraculaFlyInfo@@QAEXXZ
_TEXT	SEGMENT
?Init@tagDraculaFlyInfo@@QAEXXZ PROC			; tagDraculaFlyInfo::Init, COMDAT
; _this$ = ecx

; 2625 : 		m_fStartAngle = 0.0f;

  00000	0f 57 c0	 xorps	 xmm0, xmm0

; 2626 : 		m_fStartMaxRange = 0.0f;
; 2627 : 		m_dwStartDuration = 0;

  00003	83 61 08 00	 and	 DWORD PTR [ecx+8], 0

; 2628 : 
; 2629 : 		m_dwRotateTime = 0;

  00007	83 61 0c 00	 and	 DWORD PTR [ecx+12], 0
  0000b	f3 0f 11 01	 movss	 DWORD PTR [ecx], xmm0
  0000f	f3 0f 11 41 04	 movss	 DWORD PTR [ecx+4], xmm0

; 2630 : 
; 2631 : 		m_fMoveSpeed = 0.0f;

  00014	f3 0f 11 41 10	 movss	 DWORD PTR [ecx+16], xmm0

; 2632 : 		m_fUpDownSpeed = 0.0f;

  00019	f3 0f 11 41 14	 movss	 DWORD PTR [ecx+20], xmm0

; 2633 : 	}

  0001e	c3		 ret	 0
?Init@tagDraculaFlyInfo@@QAEXXZ ENDP			; tagDraculaFlyInfo::Init
_TEXT	ENDS
PUBLIC	?GetName@ioItem@@QBEABVioHashString@@XZ		; ioItem::GetName
; Function compile flags: /Ogsp
; File d:\lost saga for developer\youtube\tutorial\source\src\lsclient\ioitem.h
;	COMDAT ?GetName@ioItem@@QBEABVioHashString@@XZ
_TEXT	SEGMENT
?GetName@ioItem@@QBEABVioHashString@@XZ PROC		; ioItem::GetName, COMDAT
; _this$ = ecx

; 269  : 	inline const ioHashString& GetName() const { return m_Name; }

  00000	8d 81 34 01 00
	00		 lea	 eax, DWORD PTR [ecx+308]
  00006	c3		 ret	 0
?GetName@ioItem@@QBEABVioHashString@@XZ ENDP		; ioItem::GetName
_TEXT	ENDS
PUBLIC	??_R0?AVioItem@@@8				; ioItem `RTTI Type Descriptor'
PUBLIC	??_R0?AVioWeaponItem@@@8			; ioWeaponItem `RTTI Type Descriptor'
PUBLIC	?ToWeaponItem@@YAPAVioWeaponItem@@PAVioItem@@@Z	; ToWeaponItem
;	COMDAT ??_R0?AVioItem@@@8
; File d:\lost saga for developer\youtube\tutorial\source\src\lsclient\ioweaponitem.h
_DATA	SEGMENT
??_R0?AVioItem@@@8 DD FLAT:??_7type_info@@6B@		; ioItem `RTTI Type Descriptor'
	DD	00H
	DB	'.?AVioItem@@', 00H
_DATA	ENDS
;	COMDAT ??_R0?AVioWeaponItem@@@8
_DATA	SEGMENT
??_R0?AVioWeaponItem@@@8 DD FLAT:??_7type_info@@6B@	; ioWeaponItem `RTTI Type Descriptor'
	DD	00H
	DB	'.?AVioWeaponItem@@', 00H
; Function compile flags: /Ogsp
_DATA	ENDS
;	COMDAT ?ToWeaponItem@@YAPAVioWeaponItem@@PAVioItem@@@Z
_TEXT	SEGMENT
_pItem$ = 8						; size = 4
?ToWeaponItem@@YAPAVioWeaponItem@@PAVioItem@@@Z PROC	; ToWeaponItem, COMDAT

; 303  : {

  00000	55		 push	 ebp
  00001	8b ec		 mov	 ebp, esp
  00003	56		 push	 esi

; 304  : 	if( !pItem || pItem->GetType() != ioItem::IT_WEAPON )

  00004	8b 75 08	 mov	 esi, DWORD PTR _pItem$[ebp]
  00007	85 f6		 test	 esi, esi
  00009	74 25		 je	 SHORT $LN1@ToWeaponIt
  0000b	8b 06		 mov	 eax, DWORD PTR [esi]
  0000d	8b ce		 mov	 ecx, esi
  0000f	ff 50 08	 call	 DWORD PTR [eax+8]
  00012	83 f8 01	 cmp	 eax, 1
  00015	75 19		 jne	 SHORT $LN1@ToWeaponIt

; 306  : 
; 307  : 	return dynamic_cast< ioWeaponItem* >( pItem );

  00017	6a 00		 push	 0
  00019	68 00 00 00 00	 push	 OFFSET ??_R0?AVioWeaponItem@@@8
  0001e	68 00 00 00 00	 push	 OFFSET ??_R0?AVioItem@@@8
  00023	6a 00		 push	 0
  00025	56		 push	 esi
  00026	e8 00 00 00 00	 call	 ___RTDynamicCast
  0002b	83 c4 14	 add	 esp, 20			; 00000014H
  0002e	eb 02		 jmp	 SHORT $LN3@ToWeaponIt
$LN1@ToWeaponIt:

; 305  : 		return NULL;

  00030	33 c0		 xor	 eax, eax
$LN3@ToWeaponIt:
  00032	5e		 pop	 esi

; 308  : }

  00033	5d		 pop	 ebp
  00034	c3		 ret	 0
?ToWeaponItem@@YAPAVioWeaponItem@@PAVioItem@@@Z ENDP	; ToWeaponItem
_TEXT	ENDS
PUBLIC	??_R0?AVioSkill@@@8				; ioSkill `RTTI Type Descriptor'
PUBLIC	??_R0?AVioPassiveSkill@@@8			; ioPassiveSkill `RTTI Type Descriptor'
PUBLIC	?ToPassiveSkill@@YAPAVioPassiveSkill@@PAVioSkill@@@Z ; ToPassiveSkill
;	COMDAT ??_R0?AVioSkill@@@8
; File d:\lost saga for developer\youtube\tutorial\source\src\lsclient\iopassiveskill.h
_DATA	SEGMENT
??_R0?AVioSkill@@@8 DD FLAT:??_7type_info@@6B@		; ioSkill `RTTI Type Descriptor'
	DD	00H
	DB	'.?AVioSkill@@', 00H
_DATA	ENDS
;	COMDAT ??_R0?AVioPassiveSkill@@@8
_DATA	SEGMENT
??_R0?AVioPassiveSkill@@@8 DD FLAT:??_7type_info@@6B@	; ioPassiveSkill `RTTI Type Descriptor'
	DD	00H
	DB	'.?AVioPassiveSkill@@', 00H
; Function compile flags: /Ogsp
_DATA	ENDS
;	COMDAT ?ToPassiveSkill@@YAPAVioPassiveSkill@@PAVioSkill@@@Z
_TEXT	SEGMENT
_pSkill$ = 8						; size = 4
?ToPassiveSkill@@YAPAVioPassiveSkill@@PAVioSkill@@@Z PROC ; ToPassiveSkill, COMDAT

; 200  : {

  00000	55		 push	 ebp
  00001	8b ec		 mov	 ebp, esp
  00003	56		 push	 esi

; 201  : 	if( !pSkill || pSkill->GetTypeID() != ST_PASSIVE )

  00004	8b 75 08	 mov	 esi, DWORD PTR _pSkill$[ebp]
  00007	85 f6		 test	 esi, esi
  00009	74 25		 je	 SHORT $LN1@ToPassiveS
  0000b	8b 06		 mov	 eax, DWORD PTR [esi]
  0000d	8b ce		 mov	 ecx, esi
  0000f	ff 50 08	 call	 DWORD PTR [eax+8]
  00012	83 f8 04	 cmp	 eax, 4
  00015	75 19		 jne	 SHORT $LN1@ToPassiveS

; 203  : 	
; 204  : 	return dynamic_cast< ioPassiveSkill* >( pSkill );

  00017	6a 00		 push	 0
  00019	68 00 00 00 00	 push	 OFFSET ??_R0?AVioPassiveSkill@@@8
  0001e	68 00 00 00 00	 push	 OFFSET ??_R0?AVioSkill@@@8
  00023	6a 00		 push	 0
  00025	56		 push	 esi
  00026	e8 00 00 00 00	 call	 ___RTDynamicCast
  0002b	83 c4 14	 add	 esp, 20			; 00000014H
  0002e	eb 02		 jmp	 SHORT $LN3@ToPassiveS
$LN1@ToPassiveS:

; 202  : 		return NULL;

  00030	33 c0		 xor	 eax, eax
$LN3@ToPassiveS:
  00032	5e		 pop	 esi

; 205  : }

  00033	5d		 pop	 ebp
  00034	c3		 ret	 0
?ToPassiveSkill@@YAPAVioPassiveSkill@@PAVioSkill@@@Z ENDP ; ToPassiveSkill
_TEXT	ENDS
PUBLIC	?size@?$vector@VioHashString@@V?$allocator@VioHashString@@@std@@@std@@QBEIXZ ; std::vector<ioHashString,std::allocator<ioHashString> >::size
; Function compile flags: /Ogsp
; File c:\program files (x86)\microsoft visual studio 10.0\vc\include\vector
;	COMDAT ?size@?$vector@VioHashString@@V?$allocator@VioHashString@@@std@@@std@@QBEIXZ
_TEXT	SEGMENT
?size@?$vector@VioHashString@@V?$allocator@VioHashString@@@std@@@std@@QBEIXZ PROC ; std::vector<ioHashString,std::allocator<ioHashString> >::size, COMDAT
; _this$ = ecx

; 879  : 		return (this->_Mylast - this->_Myfirst);

  00000	8b 41 04	 mov	 eax, DWORD PTR [ecx+4]
  00003	2b 01		 sub	 eax, DWORD PTR [ecx]
  00005	c1 f8 04	 sar	 eax, 4

; 880  : 		}

  00008	c3		 ret	 0
?size@?$vector@VioHashString@@V?$allocator@VioHashString@@@std@@@std@@QBEIXZ ENDP ; std::vector<ioHashString,std::allocator<ioHashString> >::size
_TEXT	ENDS
PUBLIC	??_7?$CEncrypt@M@@6B@				; CEncrypt<float>::`vftable'
PUBLIC	??1?$CEncrypt@M@@UAE@XZ				; CEncrypt<float>::~CEncrypt<float>
PUBLIC	??_R4?$CEncrypt@M@@6B@				; CEncrypt<float>::`RTTI Complete Object Locator'
PUBLIC	??_R0?AV?$CEncrypt@M@@@8			; CEncrypt<float> `RTTI Type Descriptor'
PUBLIC	??_R3?$CEncrypt@M@@8				; CEncrypt<float>::`RTTI Class Hierarchy Descriptor'
PUBLIC	??_R2?$CEncrypt@M@@8				; CEncrypt<float>::`RTTI Base Class Array'
PUBLIC	??_R1A@?0A@EA@?$CEncrypt@M@@8			; CEncrypt<float>::`RTTI Base Class Descriptor at (0,-1,0,64)'
EXTRN	??1ccddaabb@@UAE@XZ:PROC			; ccddaabb::~ccddaabb
EXTRN	??_E?$CEncrypt@M@@UAEPAXI@Z:PROC		; CEncrypt<float>::`vector deleting destructor'
;	COMDAT ??_R1A@?0A@EA@?$CEncrypt@M@@8
; File d:\lost saga for developer\youtube\tutorial\source\src\lsclient\encryptvalue.h
rdata$r	SEGMENT
??_R1A@?0A@EA@?$CEncrypt@M@@8 DD FLAT:??_R0?AV?$CEncrypt@M@@@8 ; CEncrypt<float>::`RTTI Base Class Descriptor at (0,-1,0,64)'
	DD	00H
	DD	00H
	DD	0ffffffffH
	DD	00H
	DD	040H
	DD	FLAT:??_R3?$CEncrypt@M@@8
rdata$r	ENDS
;	COMDAT ??_R2?$CEncrypt@M@@8
rdata$r	SEGMENT
??_R2?$CEncrypt@M@@8 DD FLAT:??_R1A@?0A@EA@?$CEncrypt@M@@8 ; CEncrypt<float>::`RTTI Base Class Array'
rdata$r	ENDS
;	COMDAT ??_R3?$CEncrypt@M@@8
rdata$r	SEGMENT
??_R3?$CEncrypt@M@@8 DD 00H				; CEncrypt<float>::`RTTI Class Hierarchy Descriptor'
	DD	00H
	DD	01H
	DD	FLAT:??_R2?$CEncrypt@M@@8
rdata$r	ENDS
;	COMDAT ??_R0?AV?$CEncrypt@M@@@8
_DATA	SEGMENT
??_R0?AV?$CEncrypt@M@@@8 DD FLAT:??_7type_info@@6B@	; CEncrypt<float> `RTTI Type Descriptor'
	DD	00H
	DB	'.?AV?$CEncrypt@M@@', 00H
_DATA	ENDS
;	COMDAT ??_R4?$CEncrypt@M@@6B@
rdata$r	SEGMENT
??_R4?$CEncrypt@M@@6B@ DD 00H				; CEncrypt<float>::`RTTI Complete Object Locator'
	DD	00H
	DD	00H
	DD	FLAT:??_R0?AV?$CEncrypt@M@@@8
	DD	FLAT:??_R3?$CEncrypt@M@@8
rdata$r	ENDS
;	COMDAT ??_7?$CEncrypt@M@@6B@
CONST	SEGMENT
??_7?$CEncrypt@M@@6B@ DD FLAT:??_R4?$CEncrypt@M@@6B@	; CEncrypt<float>::`vftable'
	DD	FLAT:??_E?$CEncrypt@M@@UAEPAXI@Z
; Function compile flags: /Ogsp
CONST	ENDS
;	COMDAT ??1?$CEncrypt@M@@UAE@XZ
_TEXT	SEGMENT
??1?$CEncrypt@M@@UAE@XZ PROC				; CEncrypt<float>::~CEncrypt<float>, COMDAT
; _this$ = ecx

; 127  : 	{

  00000	c7 01 00 00 00
	00		 mov	 DWORD PTR [ecx], OFFSET ??_7?$CEncrypt@M@@6B@

; 128  : 	}

  00006	83 c1 0c	 add	 ecx, 12			; 0000000cH
  00009	e9 00 00 00 00	 jmp	 ??1ccddaabb@@UAE@XZ	; ccddaabb::~ccddaabb
??1?$CEncrypt@M@@UAE@XZ ENDP				; CEncrypt<float>::~CEncrypt<float>
_TEXT	ENDS
PUBLIC	??_7?$CEncrypt@_N@@6B@				; CEncrypt<bool>::`vftable'
PUBLIC	??1?$CEncrypt@_N@@UAE@XZ			; CEncrypt<bool>::~CEncrypt<bool>
PUBLIC	??_R4?$CEncrypt@_N@@6B@				; CEncrypt<bool>::`RTTI Complete Object Locator'
PUBLIC	??_R0?AV?$CEncrypt@_N@@@8			; CEncrypt<bool> `RTTI Type Descriptor'
PUBLIC	??_R3?$CEncrypt@_N@@8				; CEncrypt<bool>::`RTTI Class Hierarchy Descriptor'
PUBLIC	??_R2?$CEncrypt@_N@@8				; CEncrypt<bool>::`RTTI Base Class Array'
PUBLIC	??_R1A@?0A@EA@?$CEncrypt@_N@@8			; CEncrypt<bool>::`RTTI Base Class Descriptor at (0,-1,0,64)'
EXTRN	??_E?$CEncrypt@_N@@UAEPAXI@Z:PROC		; CEncrypt<bool>::`vector deleting destructor'
;	COMDAT ??_R1A@?0A@EA@?$CEncrypt@_N@@8
rdata$r	SEGMENT
??_R1A@?0A@EA@?$CEncrypt@_N@@8 DD FLAT:??_R0?AV?$CEncrypt@_N@@@8 ; CEncrypt<bool>::`RTTI Base Class Descriptor at (0,-1,0,64)'
	DD	00H
	DD	00H
	DD	0ffffffffH
	DD	00H
	DD	040H
	DD	FLAT:??_R3?$CEncrypt@_N@@8
rdata$r	ENDS
;	COMDAT ??_R2?$CEncrypt@_N@@8
rdata$r	SEGMENT
??_R2?$CEncrypt@_N@@8 DD FLAT:??_R1A@?0A@EA@?$CEncrypt@_N@@8 ; CEncrypt<bool>::`RTTI Base Class Array'
rdata$r	ENDS
;	COMDAT ??_R3?$CEncrypt@_N@@8
rdata$r	SEGMENT
??_R3?$CEncrypt@_N@@8 DD 00H				; CEncrypt<bool>::`RTTI Class Hierarchy Descriptor'
	DD	00H
	DD	01H
	DD	FLAT:??_R2?$CEncrypt@_N@@8
rdata$r	ENDS
;	COMDAT ??_R0?AV?$CEncrypt@_N@@@8
_DATA	SEGMENT
??_R0?AV?$CEncrypt@_N@@@8 DD FLAT:??_7type_info@@6B@	; CEncrypt<bool> `RTTI Type Descriptor'
	DD	00H
	DB	'.?AV?$CEncrypt@_N@@', 00H
_DATA	ENDS
;	COMDAT ??_R4?$CEncrypt@_N@@6B@
rdata$r	SEGMENT
??_R4?$CEncrypt@_N@@6B@ DD 00H				; CEncrypt<bool>::`RTTI Complete Object Locator'
	DD	00H
	DD	00H
	DD	FLAT:??_R0?AV?$CEncrypt@_N@@@8
	DD	FLAT:??_R3?$CEncrypt@_N@@8
rdata$r	ENDS
;	COMDAT ??_7?$CEncrypt@_N@@6B@
CONST	SEGMENT
??_7?$CEncrypt@_N@@6B@ DD FLAT:??_R4?$CEncrypt@_N@@6B@	; CEncrypt<bool>::`vftable'
	DD	FLAT:??_E?$CEncrypt@_N@@UAEPAXI@Z
; Function compile flags: /Ogsp
CONST	ENDS
;	COMDAT ??1?$CEncrypt@_N@@UAE@XZ
_TEXT	SEGMENT
??1?$CEncrypt@_N@@UAE@XZ PROC				; CEncrypt<bool>::~CEncrypt<bool>, COMDAT
; _this$ = ecx

; 127  : 	{

  00000	c7 01 00 00 00
	00		 mov	 DWORD PTR [ecx], OFFSET ??_7?$CEncrypt@_N@@6B@

; 128  : 	}

  00006	83 c1 0c	 add	 ecx, 12			; 0000000cH
  00009	e9 00 00 00 00	 jmp	 ??1ccddaabb@@UAE@XZ	; ccddaabb::~ccddaabb
??1?$CEncrypt@_N@@UAE@XZ ENDP				; CEncrypt<bool>::~CEncrypt<bool>
; Function compile flags: /Ogsp
_TEXT	ENDS
;	COMDAT ??_G?$CEncrypt@M@@UAEPAXI@Z
_TEXT	SEGMENT
___flags$ = 8						; size = 4
??_G?$CEncrypt@M@@UAEPAXI@Z PROC			; CEncrypt<float>::`scalar deleting destructor', COMDAT
; _this$ = ecx
  00000	55		 push	 ebp
  00001	8b ec		 mov	 ebp, esp
  00003	56		 push	 esi
  00004	8b f1		 mov	 esi, ecx
  00006	8d 4e 0c	 lea	 ecx, DWORD PTR [esi+12]
  00009	c7 06 00 00 00
	00		 mov	 DWORD PTR [esi], OFFSET ??_7?$CEncrypt@M@@6B@
  0000f	e8 00 00 00 00	 call	 ??1ccddaabb@@UAE@XZ	; ccddaabb::~ccddaabb
  00014	f6 45 08 01	 test	 BYTE PTR ___flags$[ebp], 1
  00018	74 07		 je	 SHORT $LN1@scalar@2
  0001a	56		 push	 esi
  0001b	e8 00 00 00 00	 call	 ??3@YAXPAX@Z		; operator delete
  00020	59		 pop	 ecx
$LN1@scalar@2:
  00021	8b c6		 mov	 eax, esi
  00023	5e		 pop	 esi
  00024	5d		 pop	 ebp
  00025	c2 04 00	 ret	 4
??_G?$CEncrypt@M@@UAEPAXI@Z ENDP			; CEncrypt<float>::`scalar deleting destructor'
; Function compile flags: /Ogsp
_TEXT	ENDS
;	COMDAT ??_G?$CEncrypt@_N@@UAEPAXI@Z
_TEXT	SEGMENT
___flags$ = 8						; size = 4
??_G?$CEncrypt@_N@@UAEPAXI@Z PROC			; CEncrypt<bool>::`scalar deleting destructor', COMDAT
; _this$ = ecx
  00000	55		 push	 ebp
  00001	8b ec		 mov	 ebp, esp
  00003	56		 push	 esi
  00004	8b f1		 mov	 esi, ecx
  00006	8d 4e 0c	 lea	 ecx, DWORD PTR [esi+12]
  00009	c7 06 00 00 00
	00		 mov	 DWORD PTR [esi], OFFSET ??_7?$CEncrypt@_N@@6B@
  0000f	e8 00 00 00 00	 call	 ??1ccddaabb@@UAE@XZ	; ccddaabb::~ccddaabb
  00014	f6 45 08 01	 test	 BYTE PTR ___flags$[ebp], 1
  00018	74 07		 je	 SHORT $LN1@scalar@3
  0001a	56		 push	 esi
  0001b	e8 00 00 00 00	 call	 ??3@YAXPAX@Z		; operator delete
  00020	59		 pop	 ecx
$LN1@scalar@3:
  00021	8b c6		 mov	 eax, esi
  00023	5e		 pop	 esi
  00024	5d		 pop	 ebp
  00025	c2 04 00	 ret	 4
??_G?$CEncrypt@_N@@UAEPAXI@Z ENDP			; CEncrypt<bool>::`scalar deleting destructor'
_TEXT	ENDS
PUBLIC	??1?$_Vector_val@VioHashString@@V?$allocator@VioHashString@@@std@@@std@@QAE@XZ ; std::_Vector_val<ioHashString,std::allocator<ioHashString> >::~_Vector_val<ioHashString,std::allocator<ioHashString> >
; Function compile flags: /Ogsp
; File c:\program files (x86)\microsoft visual studio 10.0\vc\include\vector
;	COMDAT ??1?$_Vector_val@VioHashString@@V?$allocator@VioHashString@@@std@@@std@@QAE@XZ
_TEXT	SEGMENT
??1?$_Vector_val@VioHashString@@V?$allocator@VioHashString@@@std@@@std@@QAE@XZ PROC ; std::_Vector_val<ioHashString,std::allocator<ioHashString> >::~_Vector_val<ioHashString,std::allocator<ioHashString> >, COMDAT
; _this$ = ecx

; 434  : 		}

  00000	c3		 ret	 0
??1?$_Vector_val@VioHashString@@V?$allocator@VioHashString@@@std@@@std@@QAE@XZ ENDP ; std::_Vector_val<ioHashString,std::allocator<ioHashString> >::~_Vector_val<ioHashString,std::allocator<ioHashString> >
_TEXT	ENDS
PUBLIC	??0?$allocator@VioHashString@@@std@@QAE@XZ	; std::allocator<ioHashString>::allocator<ioHashString>
; Function compile flags: /Ogsp
; File c:\program files (x86)\microsoft visual studio 10.0\vc\include\xmemory
;	COMDAT ??0?$allocator@VioHashString@@@std@@QAE@XZ
_TEXT	SEGMENT
??0?$allocator@VioHashString@@@std@@QAE@XZ PROC		; std::allocator<ioHashString>::allocator<ioHashString>, COMDAT
; _this$ = ecx

; 161  : 	_ALLOCATOR() _THROW0()

  00000	8b c1		 mov	 eax, ecx

; 162  : 		{	// construct default allocator (do nothing)
; 163  : 		}

  00002	c3		 ret	 0
??0?$allocator@VioHashString@@@std@@QAE@XZ ENDP		; std::allocator<ioHashString>::allocator<ioHashString>
_TEXT	ENDS
PUBLIC	??0?$allocator@VioHashString@@@std@@QAE@ABV01@@Z ; std::allocator<ioHashString>::allocator<ioHashString>
; Function compile flags: /Ogsp
;	COMDAT ??0?$allocator@VioHashString@@@std@@QAE@ABV01@@Z
_TEXT	SEGMENT
___formal$ = 8						; size = 4
??0?$allocator@VioHashString@@@std@@QAE@ABV01@@Z PROC	; std::allocator<ioHashString>::allocator<ioHashString>, COMDAT
; _this$ = ecx

; 165  : 	_ALLOCATOR(const _ALLOCATOR<_Ty>&) _THROW0()

  00000	8b c1		 mov	 eax, ecx

; 166  : 		{	// construct by copying (do nothing)
; 167  : 		}

  00002	c2 04 00	 ret	 4
??0?$allocator@VioHashString@@@std@@QAE@ABV01@@Z ENDP	; std::allocator<ioHashString>::allocator<ioHashString>
_TEXT	ENDS
PUBLIC	?EncryptValueToPool@?$CEncrypt@M@@AAEXPBD@Z	; CEncrypt<float>::EncryptValueToPool
EXTRN	?EncryptByte@ccddaabb@@QAEXPBDPADH@Z:PROC	; ccddaabb::EncryptByte
; Function compile flags: /Ogsp
; File d:\lost saga for developer\youtube\tutorial\source\src\lsclient\encryptvalue.h
;	COMDAT ?EncryptValueToPool@?$CEncrypt@M@@AAEXPBD@Z
_TEXT	SEGMENT
_value$ = 8						; size = 4
?EncryptValueToPool@?$CEncrypt@M@@AAEXPBD@Z PROC	; CEncrypt<float>::EncryptValueToPool, COMDAT
; _this$ = ecx

; 67   : 	{

  00000	55		 push	 ebp
  00001	8b ec		 mov	 ebp, esp

; 68   : 		m_RC5.EncryptByte( value, m_MemPool, max(m_ValueSize, DEFAULT_ENCRYPT) );

  00003	0f b7 41 06	 movzx	 eax, WORD PTR [ecx+6]
  00007	83 f8 04	 cmp	 eax, 4
  0000a	77 03		 ja	 SHORT $LN4@EncryptVal
  0000c	6a 04		 push	 4
  0000e	58		 pop	 eax
$LN4@EncryptVal:
  0000f	50		 push	 eax
  00010	8d 41 1c	 lea	 eax, DWORD PTR [ecx+28]
  00013	50		 push	 eax
  00014	ff 75 08	 push	 DWORD PTR _value$[ebp]
  00017	83 c1 0c	 add	 ecx, 12			; 0000000cH
  0001a	e8 00 00 00 00	 call	 ?EncryptByte@ccddaabb@@QAEXPBDPADH@Z ; ccddaabb::EncryptByte

; 69   : 		
; 70   : 	}

  0001f	5d		 pop	 ebp
  00020	c2 04 00	 ret	 4
?EncryptValueToPool@?$CEncrypt@M@@AAEXPBD@Z ENDP	; CEncrypt<float>::EncryptValueToPool
_TEXT	ENDS
PUBLIC	?Init@?$CEncrypt@M@@AAEXXZ			; CEncrypt<float>::Init
EXTRN	?Setup@ccddaabb@@QAEXPBDHH@Z:PROC		; ccddaabb::Setup
EXTRN	__imp__rand:PROC
EXTRN	__imp__timeGetTime@0:PROC
EXTRN	__imp__GetCurrentProcessId@0:PROC
; Function compile flags: /Ogsp
;	COMDAT ?Init@?$CEncrypt@M@@AAEXXZ
_TEXT	SEGMENT
_pid$ = -8						; size = 4
_tick$ = -4						; size = 4
?Init@?$CEncrypt@M@@AAEXXZ PROC				; CEncrypt<float>::Init, COMDAT
; _this$ = ecx

; 73   : 	{

  00000	55		 push	 ebp
  00001	8b ec		 mov	 ebp, esp
  00003	51		 push	 ecx
  00004	51		 push	 ecx
  00005	53		 push	 ebx
  00006	56		 push	 esi
  00007	57		 push	 edi
  00008	8b f1		 mov	 esi, ecx

; 74   : 		DWORD pid = GetCurrentProcessId();

  0000a	ff 15 00 00 00
	00		 call	 DWORD PTR __imp__GetCurrentProcessId@0
  00010	89 45 f8	 mov	 DWORD PTR _pid$[ebp], eax

; 75   : 		DWORD tick = timeGetTime();

  00013	ff 15 00 00 00
	00		 call	 DWORD PTR __imp__timeGetTime@0

; 76   : 		m_ValueSize    = sizeof(type);
; 77   : 		m_MemPoolPos   = (unsigned short)( rand()+pid+tick )%(MAX_MEM_POOL-m_ValueSize);

  00019	8b 3d 00 00 00
	00		 mov	 edi, DWORD PTR __imp__rand
  0001f	89 45 fc	 mov	 DWORD PTR _tick$[ebp], eax
  00022	6a 04		 push	 4
  00024	58		 pop	 eax
  00025	66 89 46 06	 mov	 WORD PTR [esi+6], ax
  00029	ff d7		 call	 edi
  0002b	03 45 f8	 add	 eax, DWORD PTR _pid$[ebp]
  0002e	0f b7 4e 06	 movzx	 ecx, WORD PTR [esi+6]
  00032	03 45 fc	 add	 eax, DWORD PTR _tick$[ebp]
  00035	6a 0c		 push	 12			; 0000000cH
  00037	0f b7 c0	 movzx	 eax, ax
  0003a	5b		 pop	 ebx
  0003b	99		 cdq
  0003c	2b d9		 sub	 ebx, ecx
  0003e	f7 fb		 idiv	 ebx
  00040	66 89 56 04	 mov	 WORD PTR [esi+4], dx

; 78   : 		m_EncryptSeed  = (char)( rand()+pid+tick )%256;

  00044	ff d7		 call	 edi
  00046	02 45 f8	 add	 al, BYTE PTR _pid$[ebp]
  00049	02 45 fc	 add	 al, BYTE PTR _tick$[ebp]
  0004c	0f be c0	 movsx	 eax, al
  0004f	25 ff 00 00 80	 and	 eax, -2147483393	; 800000ffH
  00054	79 07		 jns	 SHORT $LN8@Init
  00056	48		 dec	 eax
  00057	0d 00 ff ff ff	 or	 eax, -256		; ffffff00H
  0005c	40		 inc	 eax
$LN8@Init:
  0005d	88 46 08	 mov	 BYTE PTR [esi+8], al

; 79   : 
; 80   : 		for (int i = 0; i < MAX_MEM_POOL ; i++)

  00060	33 db		 xor	 ebx, ebx
$LL3@Init:

; 81   : 			m_MemPool[i] = (char)( rand()+pid+tick )%256; // 

  00062	ff d7		 call	 edi
  00064	02 45 f8	 add	 al, BYTE PTR _pid$[ebp]
  00067	02 45 fc	 add	 al, BYTE PTR _tick$[ebp]
  0006a	0f be c0	 movsx	 eax, al
  0006d	25 ff 00 00 80	 and	 eax, -2147483393	; 800000ffH
  00072	79 07		 jns	 SHORT $LN9@Init
  00074	48		 dec	 eax
  00075	0d 00 ff ff ff	 or	 eax, -256		; ffffff00H
  0007a	40		 inc	 eax
$LN9@Init:
  0007b	88 44 1e 1c	 mov	 BYTE PTR [esi+ebx+28], al
  0007f	43		 inc	 ebx
  00080	83 fb 0c	 cmp	 ebx, 12			; 0000000cH
  00083	7c dd		 jl	 SHORT $LL3@Init

; 82   : 
; 83   : 		//UJ 130913, : szKey  
; 84   : 		//char szKey[ccddaabb::KEY_SIZE];//="";
; 85   : 		//for (int i = 0; i < ccddaabb::KEY_SIZE  ; i++)
; 86   : 		//	szKey[i] = (char)( rand()+pid+tick )%256; // 
; 87   : 		m_RC5.Setup( NULL, pid, tick );

  00085	ff 75 fc	 push	 DWORD PTR _tick$[ebp]
  00088	8d 4e 0c	 lea	 ecx, DWORD PTR [esi+12]
  0008b	ff 75 f8	 push	 DWORD PTR _pid$[ebp]
  0008e	6a 00		 push	 0
  00090	e8 00 00 00 00	 call	 ?Setup@ccddaabb@@QAEXPBDHH@Z ; ccddaabb::Setup
  00095	5f		 pop	 edi
  00096	5e		 pop	 esi
  00097	5b		 pop	 ebx

; 88   : 
; 89   : #ifdef _NOTUSE
; 90   : 		m_value        = 0;
; 91   : 		EncryptValueToPool((char*)&m_value);
; 92   : 		Debug();
; 93   : #endif
; 94   : 	}

  00098	c9		 leave
  00099	c3		 ret	 0
?Init@?$CEncrypt@M@@AAEXXZ ENDP				; CEncrypt<float>::Init
_TEXT	ENDS
PUBLIC	?DecryptValueToPool@?$CEncrypt@M@@QAEXPAM@Z	; CEncrypt<float>::DecryptValueToPool
; Function compile flags: /Ogsp
;	COMDAT ?DecryptValueToPool@?$CEncrypt@M@@QAEXPAM@Z
_TEXT	SEGMENT
_value$ = 8						; size = 4
?DecryptValueToPool@?$CEncrypt@M@@QAEXPAM@Z PROC	; CEncrypt<float>::DecryptValueToPool, COMDAT
; _this$ = ecx

; 1648 : 	{

  00000	55		 push	 ebp
  00001	8b ec		 mov	 ebp, esp
  00003	56		 push	 esi

; 1649 : 		m_RC5.DecryptByte( m_MemPool, m_TempMem, 4 );

  00004	8d 71 28	 lea	 esi, DWORD PTR [ecx+40]
  00007	6a 04		 push	 4
  00009	8d 41 1c	 lea	 eax, DWORD PTR [ecx+28]
  0000c	56		 push	 esi
  0000d	50		 push	 eax
  0000e	83 c1 0c	 add	 ecx, 12			; 0000000cH
  00011	e8 00 00 00 00	 call	 ?DecryptByte@ccddaabb@@QBEXPBDPADH@Z ; ccddaabb::DecryptByte

; 1650 : 		*value = *((float*)m_TempMem);

  00016	d9 06		 fld	 DWORD PTR [esi]
  00018	8b 45 08	 mov	 eax, DWORD PTR _value$[ebp]
  0001b	d9 18		 fstp	 DWORD PTR [eax]
  0001d	5e		 pop	 esi

; 1651 : 	}

  0001e	5d		 pop	 ebp
  0001f	c2 04 00	 ret	 4
?DecryptValueToPool@?$CEncrypt@M@@QAEXPAM@Z ENDP	; CEncrypt<float>::DecryptValueToPool
_TEXT	ENDS
PUBLIC	?DecryptValueToPool@?$CEncrypt@K@@QAEXPAK@Z	; CEncrypt<unsigned long>::DecryptValueToPool
; Function compile flags: /Ogsp
;	COMDAT ?DecryptValueToPool@?$CEncrypt@K@@QAEXPAK@Z
_TEXT	SEGMENT
_value$ = 8						; size = 4
?DecryptValueToPool@?$CEncrypt@K@@QAEXPAK@Z PROC	; CEncrypt<unsigned long>::DecryptValueToPool, COMDAT
; _this$ = ecx

; 1256 : 	{

  00000	55		 push	 ebp
  00001	8b ec		 mov	 ebp, esp
  00003	56		 push	 esi

; 1257 : 		m_RC5.DecryptByte( m_MemPool, m_TempMem, 4 );

  00004	8d 71 28	 lea	 esi, DWORD PTR [ecx+40]
  00007	6a 04		 push	 4
  00009	8d 41 1c	 lea	 eax, DWORD PTR [ecx+28]
  0000c	56		 push	 esi
  0000d	50		 push	 eax
  0000e	83 c1 0c	 add	 ecx, 12			; 0000000cH
  00011	e8 00 00 00 00	 call	 ?DecryptByte@ccddaabb@@QBEXPBDPADH@Z ; ccddaabb::DecryptByte

; 1258 : 		*value = *((DWORD*)m_TempMem);

  00016	8b 06		 mov	 eax, DWORD PTR [esi]
  00018	8b 4d 08	 mov	 ecx, DWORD PTR _value$[ebp]
  0001b	89 01		 mov	 DWORD PTR [ecx], eax
  0001d	5e		 pop	 esi

; 1259 : 	}

  0001e	5d		 pop	 ebp
  0001f	c2 04 00	 ret	 4
?DecryptValueToPool@?$CEncrypt@K@@QAEXPAK@Z ENDP	; CEncrypt<unsigned long>::DecryptValueToPool
_TEXT	ENDS
PUBLIC	?EncryptValueToPool@?$CEncrypt@_N@@AAEXPBD@Z	; CEncrypt<bool>::EncryptValueToPool
; Function compile flags: /Ogsp
;	COMDAT ?EncryptValueToPool@?$CEncrypt@_N@@AAEXPBD@Z
_TEXT	SEGMENT
_value$ = 8						; size = 4
?EncryptValueToPool@?$CEncrypt@_N@@AAEXPBD@Z PROC	; CEncrypt<bool>::EncryptValueToPool, COMDAT
; _this$ = ecx

; 67   : 	{

  00000	55		 push	 ebp
  00001	8b ec		 mov	 ebp, esp

; 68   : 		m_RC5.EncryptByte( value, m_MemPool, max(m_ValueSize, DEFAULT_ENCRYPT) );

  00003	0f b7 41 06	 movzx	 eax, WORD PTR [ecx+6]
  00007	83 f8 04	 cmp	 eax, 4
  0000a	77 03		 ja	 SHORT $LN4@EncryptVal@2
  0000c	6a 04		 push	 4
  0000e	58		 pop	 eax
$LN4@EncryptVal@2:
  0000f	50		 push	 eax
  00010	8d 41 1c	 lea	 eax, DWORD PTR [ecx+28]
  00013	50		 push	 eax
  00014	ff 75 08	 push	 DWORD PTR _value$[ebp]
  00017	83 c1 0c	 add	 ecx, 12			; 0000000cH
  0001a	e8 00 00 00 00	 call	 ?EncryptByte@ccddaabb@@QAEXPBDPADH@Z ; ccddaabb::EncryptByte

; 69   : 		
; 70   : 	}

  0001f	5d		 pop	 ebp
  00020	c2 04 00	 ret	 4
?EncryptValueToPool@?$CEncrypt@_N@@AAEXPBD@Z ENDP	; CEncrypt<bool>::EncryptValueToPool
_TEXT	ENDS
PUBLIC	?Init@?$CEncrypt@_N@@AAEXXZ			; CEncrypt<bool>::Init
; Function compile flags: /Ogsp
;	COMDAT ?Init@?$CEncrypt@_N@@AAEXXZ
_TEXT	SEGMENT
_pid$ = -8						; size = 4
_tick$ = -4						; size = 4
?Init@?$CEncrypt@_N@@AAEXXZ PROC			; CEncrypt<bool>::Init, COMDAT
; _this$ = ecx

; 73   : 	{

  00000	55		 push	 ebp
  00001	8b ec		 mov	 ebp, esp
  00003	51		 push	 ecx
  00004	51		 push	 ecx
  00005	53		 push	 ebx
  00006	56		 push	 esi
  00007	57		 push	 edi
  00008	8b f1		 mov	 esi, ecx

; 74   : 		DWORD pid = GetCurrentProcessId();

  0000a	ff 15 00 00 00
	00		 call	 DWORD PTR __imp__GetCurrentProcessId@0
  00010	89 45 f8	 mov	 DWORD PTR _pid$[ebp], eax

; 75   : 		DWORD tick = timeGetTime();

  00013	ff 15 00 00 00
	00		 call	 DWORD PTR __imp__timeGetTime@0

; 76   : 		m_ValueSize    = sizeof(type);
; 77   : 		m_MemPoolPos   = (unsigned short)( rand()+pid+tick )%(MAX_MEM_POOL-m_ValueSize);

  00019	8b 3d 00 00 00
	00		 mov	 edi, DWORD PTR __imp__rand
  0001f	89 45 fc	 mov	 DWORD PTR _tick$[ebp], eax
  00022	33 c0		 xor	 eax, eax
  00024	40		 inc	 eax
  00025	66 89 46 06	 mov	 WORD PTR [esi+6], ax
  00029	ff d7		 call	 edi
  0002b	03 45 f8	 add	 eax, DWORD PTR _pid$[ebp]
  0002e	0f b7 4e 06	 movzx	 ecx, WORD PTR [esi+6]
  00032	03 45 fc	 add	 eax, DWORD PTR _tick$[ebp]
  00035	6a 0c		 push	 12			; 0000000cH
  00037	0f b7 c0	 movzx	 eax, ax
  0003a	5b		 pop	 ebx
  0003b	99		 cdq
  0003c	2b d9		 sub	 ebx, ecx
  0003e	f7 fb		 idiv	 ebx
  00040	66 89 56 04	 mov	 WORD PTR [esi+4], dx

; 78   : 		m_EncryptSeed  = (char)( rand()+pid+tick )%256;

  00044	ff d7		 call	 edi
  00046	02 45 f8	 add	 al, BYTE PTR _pid$[ebp]
  00049	02 45 fc	 add	 al, BYTE PTR _tick$[ebp]
  0004c	0f be c0	 movsx	 eax, al
  0004f	25 ff 00 00 80	 and	 eax, -2147483393	; 800000ffH
  00054	79 07		 jns	 SHORT $LN8@Init@2
  00056	48		 dec	 eax
  00057	0d 00 ff ff ff	 or	 eax, -256		; ffffff00H
  0005c	40		 inc	 eax
$LN8@Init@2:
  0005d	88 46 08	 mov	 BYTE PTR [esi+8], al

; 79   : 
; 80   : 		for (int i = 0; i < MAX_MEM_POOL ; i++)

  00060	33 db		 xor	 ebx, ebx
$LL3@Init@2:

; 81   : 			m_MemPool[i] = (char)( rand()+pid+tick )%256; // 

  00062	ff d7		 call	 edi
  00064	02 45 f8	 add	 al, BYTE PTR _pid$[ebp]
  00067	02 45 fc	 add	 al, BYTE PTR _tick$[ebp]
  0006a	0f be c0	 movsx	 eax, al
  0006d	25 ff 00 00 80	 and	 eax, -2147483393	; 800000ffH
  00072	79 07		 jns	 SHORT $LN9@Init@2
  00074	48		 dec	 eax
  00075	0d 00 ff ff ff	 or	 eax, -256		; ffffff00H
  0007a	40		 inc	 eax
$LN9@Init@2:
  0007b	88 44 1e 1c	 mov	 BYTE PTR [esi+ebx+28], al
  0007f	43		 inc	 ebx
  00080	83 fb 0c	 cmp	 ebx, 12			; 0000000cH
  00083	7c dd		 jl	 SHORT $LL3@Init@2

; 82   : 
; 83   : 		//UJ 130913, : szKey  
; 84   : 		//char szKey[ccddaabb::KEY_SIZE];//="";
; 85   : 		//for (int i = 0; i < ccddaabb::KEY_SIZE  ; i++)
; 86   : 		//	szKey[i] = (char)( rand()+pid+tick )%256; // 
; 87   : 		m_RC5.Setup( NULL, pid, tick );

  00085	ff 75 fc	 push	 DWORD PTR _tick$[ebp]
  00088	8d 4e 0c	 lea	 ecx, DWORD PTR [esi+12]
  0008b	ff 75 f8	 push	 DWORD PTR _pid$[ebp]
  0008e	6a 00		 push	 0
  00090	e8 00 00 00 00	 call	 ?Setup@ccddaabb@@QAEXPBDHH@Z ; ccddaabb::Setup
  00095	5f		 pop	 edi
  00096	5e		 pop	 esi
  00097	5b		 pop	 ebx

; 88   : 
; 89   : #ifdef _NOTUSE
; 90   : 		m_value        = 0;
; 91   : 		EncryptValueToPool((char*)&m_value);
; 92   : 		Debug();
; 93   : #endif
; 94   : 	}

  00098	c9		 leave
  00099	c3		 ret	 0
?Init@?$CEncrypt@_N@@AAEXXZ ENDP			; CEncrypt<bool>::Init
_TEXT	ENDS
PUBLIC	?DecryptValueToPool@?$CEncrypt@_N@@QAEXPA_N@Z	; CEncrypt<bool>::DecryptValueToPool
; Function compile flags: /Ogsp
;	COMDAT ?DecryptValueToPool@?$CEncrypt@_N@@QAEXPA_N@Z
_TEXT	SEGMENT
_value$ = 8						; size = 4
?DecryptValueToPool@?$CEncrypt@_N@@QAEXPA_N@Z PROC	; CEncrypt<bool>::DecryptValueToPool, COMDAT
; _this$ = ecx

; 219  : 	{

  00000	55		 push	 ebp
  00001	8b ec		 mov	 ebp, esp
  00003	56		 push	 esi

; 220  : 		m_RC5.DecryptByte( m_MemPool, m_TempMem, 4 );

  00004	8d 71 28	 lea	 esi, DWORD PTR [ecx+40]
  00007	6a 04		 push	 4
  00009	8d 41 1c	 lea	 eax, DWORD PTR [ecx+28]
  0000c	56		 push	 esi
  0000d	50		 push	 eax
  0000e	83 c1 0c	 add	 ecx, 12			; 0000000cH
  00011	e8 00 00 00 00	 call	 ?DecryptByte@ccddaabb@@QBEXPBDPADH@Z ; ccddaabb::DecryptByte

; 221  : 		*value = *((bool*)m_TempMem);

  00016	8a 06		 mov	 al, BYTE PTR [esi]
  00018	8b 4d 08	 mov	 ecx, DWORD PTR _value$[ebp]
  0001b	88 01		 mov	 BYTE PTR [ecx], al
  0001d	5e		 pop	 esi

; 222  : 	}

  0001e	5d		 pop	 ebp
  0001f	c2 04 00	 ret	 4
?DecryptValueToPool@?$CEncrypt@_N@@QAEXPA_N@Z ENDP	; CEncrypt<bool>::DecryptValueToPool
_TEXT	ENDS
PUBLIC	??_C@_0BD@OLBABOEK@vector?$DMT?$DO?5too?5long?$AA@ ; `string'
PUBLIC	?_Xlen@?$vector@VioHashString@@V?$allocator@VioHashString@@@std@@@std@@IBEXXZ ; std::vector<ioHashString,std::allocator<ioHashString> >::_Xlen
EXTRN	__imp_?_Xlength_error@std@@YAXPBD@Z:PROC
;	COMDAT ??_C@_0BD@OLBABOEK@vector?$DMT?$DO?5too?5long?$AA@
; File c:\program files (x86)\microsoft visual studio 10.0\vc\include\vector
CONST	SEGMENT
??_C@_0BD@OLBABOEK@vector?$DMT?$DO?5too?5long?$AA@ DB 'vector<T> too long'
	DB	00H						; `string'
; Function compile flags: /Ogsp
CONST	ENDS
;	COMDAT ?_Xlen@?$vector@VioHashString@@V?$allocator@VioHashString@@@std@@@std@@IBEXXZ
_TEXT	SEGMENT
?_Xlen@?$vector@VioHashString@@V?$allocator@VioHashString@@@std@@@std@@IBEXXZ PROC ; std::vector<ioHashString,std::allocator<ioHashString> >::_Xlen, COMDAT
; _this$ = ecx

; 1427 : 		_Xlength_error("vector<T> too long");

  00000	68 00 00 00 00	 push	 OFFSET ??_C@_0BD@OLBABOEK@vector?$DMT?$DO?5too?5long?$AA@
  00005	ff 15 00 00 00
	00		 call	 DWORD PTR __imp_?_Xlength_error@std@@YAXPBD@Z
$LN4@Xlen:
$LN3@Xlen:
  0000b	cc		 int	 3
?_Xlen@?$vector@VioHashString@@V?$allocator@VioHashString@@@std@@@std@@IBEXXZ ENDP ; std::vector<ioHashString,std::allocator<ioHashString> >::_Xlen
_TEXT	ENDS
PUBLIC	?deallocate@?$allocator@VioHashString@@@std@@QAEXPAVioHashString@@I@Z ; std::allocator<ioHashString>::deallocate
; Function compile flags: /Ogsp
; File c:\program files (x86)\microsoft visual studio 10.0\vc\include\xmemory
;	COMDAT ?deallocate@?$allocator@VioHashString@@@std@@QAEXPAVioHashString@@I@Z
_TEXT	SEGMENT
__Ptr$ = 8						; size = 4
___formal$ = 12						; size = 4
?deallocate@?$allocator@VioHashString@@@std@@QAEXPAVioHashString@@I@Z PROC ; std::allocator<ioHashString>::deallocate, COMDAT
; _this$ = ecx

; 181  : 		{	// deallocate object at _Ptr, ignore size

  00000	55		 push	 ebp
  00001	8b ec		 mov	 ebp, esp

; 182  : 		::operator delete(_Ptr);

  00003	ff 75 08	 push	 DWORD PTR __Ptr$[ebp]
  00006	e8 00 00 00 00	 call	 ??3@YAXPAX@Z		; operator delete
  0000b	59		 pop	 ecx

; 183  : 		}

  0000c	5d		 pop	 ebp
  0000d	c2 08 00	 ret	 8
?deallocate@?$allocator@VioHashString@@@std@@QAEXPAVioHashString@@I@Z ENDP ; std::allocator<ioHashString>::deallocate
_TEXT	ENDS
PUBLIC	??0?$_Vector_const_iterator@V?$_Vector_val@VioHashString@@V?$allocator@VioHashString@@@std@@@std@@@std@@QAE@PAVioHashString@@PBU_Container_base0@1@@Z ; std::_Vector_const_iterator<std::_Vector_val<ioHashString,std::allocator<ioHashString> > >::_Vector_const_iterator<std::_Vector_val<ioHashString,std::allocator<ioHashString> > >
; Function compile flags: /Ogsp
; File c:\program files (x86)\microsoft visual studio 10.0\vc\include\vector
;	COMDAT ??0?$_Vector_const_iterator@V?$_Vector_val@VioHashString@@V?$allocator@VioHashString@@@std@@@std@@@std@@QAE@PAVioHashString@@PBU_Container_base0@1@@Z
_TEXT	SEGMENT
__Parg$ = 8						; size = 4
__Pvector$ = 12						; size = 4
??0?$_Vector_const_iterator@V?$_Vector_val@VioHashString@@V?$allocator@VioHashString@@@std@@@std@@@std@@QAE@PAVioHashString@@PBU_Container_base0@1@@Z PROC ; std::_Vector_const_iterator<std::_Vector_val<ioHashString,std::allocator<ioHashString> > >::_Vector_const_iterator<std::_Vector_val<ioHashString,std::allocator<ioHashString> > >, COMDAT
; _this$ = ecx

; 45   : 		{	// construct with pointer _Parg

  00000	55		 push	 ebp
  00001	8b ec		 mov	 ebp, esp
  00003	8b c1		 mov	 eax, ecx
  00005	8b 4d 08	 mov	 ecx, DWORD PTR __Parg$[ebp]
  00008	89 08		 mov	 DWORD PTR [eax], ecx

; 46   : 		this->_Adopt(_Pvector);
; 47   : 		}

  0000a	5d		 pop	 ebp
  0000b	c2 08 00	 ret	 8
??0?$_Vector_const_iterator@V?$_Vector_val@VioHashString@@V?$allocator@VioHashString@@@std@@@std@@@std@@QAE@PAVioHashString@@PBU_Container_base0@1@@Z ENDP ; std::_Vector_const_iterator<std::_Vector_val<ioHashString,std::allocator<ioHashString> > >::_Vector_const_iterator<std::_Vector_val<ioHashString,std::allocator<ioHashString> > >
_TEXT	ENDS
PUBLIC	??0?$_Vector_iterator@V?$_Vector_val@VioHashString@@V?$allocator@VioHashString@@@std@@@std@@@std@@QAE@PAVioHashString@@PBU_Container_base0@1@@Z ; std::_Vector_iterator<std::_Vector_val<ioHashString,std::allocator<ioHashString> > >::_Vector_iterator<std::_Vector_val<ioHashString,std::allocator<ioHashString> > >
; Function compile flags: /Ogsp
;	COMDAT ??0?$_Vector_iterator@V?$_Vector_val@VioHashString@@V?$allocator@VioHashString@@@std@@@std@@@std@@QAE@PAVioHashString@@PBU_Container_base0@1@@Z
_TEXT	SEGMENT
__Parg$ = 8						; size = 4
__Pvector$ = 12						; size = 4
??0?$_Vector_iterator@V?$_Vector_val@VioHashString@@V?$allocator@VioHashString@@@std@@@std@@@std@@QAE@PAVioHashString@@PBU_Container_base0@1@@Z PROC ; std::_Vector_iterator<std::_Vector_val<ioHashString,std::allocator<ioHashString> > >::_Vector_iterator<std::_Vector_val<ioHashString,std::allocator<ioHashString> > >, COMDAT
; _this$ = ecx

; 304  : 		{	// construct with pointer _Parg

  00000	55		 push	 ebp
  00001	8b ec		 mov	 ebp, esp
  00003	8b c1		 mov	 eax, ecx
  00005	8b 4d 08	 mov	 ecx, DWORD PTR __Parg$[ebp]
  00008	89 08		 mov	 DWORD PTR [eax], ecx

; 305  : 		}

  0000a	5d		 pop	 ebp
  0000b	c2 08 00	 ret	 8
??0?$_Vector_iterator@V?$_Vector_val@VioHashString@@V?$allocator@VioHashString@@@std@@@std@@@std@@QAE@PAVioHashString@@PBU_Container_base0@1@@Z ENDP ; std::_Vector_iterator<std::_Vector_val<ioHashString,std::allocator<ioHashString> > >::_Vector_iterator<std::_Vector_val<ioHashString,std::allocator<ioHashString> > >
_TEXT	ENDS
PUBLIC	?max_size@?$allocator@VioHashString@@@std@@QBEIXZ ; std::allocator<ioHashString>::max_size
; Function compile flags: /Ogsp
; File c:\program files (x86)\microsoft visual studio 10.0\vc\include\xmemory
;	COMDAT ?max_size@?$allocator@VioHashString@@@std@@QBEIXZ
_TEXT	SEGMENT
?max_size@?$allocator@VioHashString@@@std@@QBEIXZ PROC	; std::allocator<ioHashString>::max_size, COMDAT
; _this$ = ecx

; 218  : 		_SIZT _Count = (_SIZT)(-1) / sizeof (_Ty);
; 219  : 		return (0 < _Count ? _Count : 1);

  00000	b8 ff ff ff 0f	 mov	 eax, 268435455		; 0fffffffH

; 220  : 		}

  00005	c3		 ret	 0
?max_size@?$allocator@VioHashString@@@std@@QBEIXZ ENDP	; std::allocator<ioHashString>::max_size
_TEXT	ENDS
PUBLIC	?_Compat@?$_Vector_const_iterator@V?$_Vector_val@VioHashString@@V?$allocator@VioHashString@@@std@@@std@@@std@@QBEXABV12@@Z ; std::_Vector_const_iterator<std::_Vector_val<ioHashString,std::allocator<ioHashString> > >::_Compat
; Function compile flags: /Ogsp
; File c:\program files (x86)\microsoft visual studio 10.0\vc\include\vector
;	COMDAT ?_Compat@?$_Vector_const_iterator@V?$_Vector_val@VioHashString@@V?$allocator@VioHashString@@@std@@@std@@@std@@QBEXABV12@@Z
_TEXT	SEGMENT
___formal$ = 8						; size = 4
?_Compat@?$_Vector_const_iterator@V?$_Vector_val@VioHashString@@V?$allocator@VioHashString@@@std@@@std@@@std@@QBEXABV12@@Z PROC ; std::_Vector_const_iterator<std::_Vector_val<ioHashString,std::allocator<ioHashString> > >::_Compat, COMDAT
; _this$ = ecx

; 253  : 		}

  00000	c2 04 00	 ret	 4
?_Compat@?$_Vector_const_iterator@V?$_Vector_val@VioHashString@@V?$allocator@VioHashString@@@std@@@std@@@std@@QBEXABV12@@Z ENDP ; std::_Vector_const_iterator<std::_Vector_val<ioHashString,std::allocator<ioHashString> > >::_Compat
_TEXT	ENDS
PUBLIC	__TI2?AVbad_alloc@std@@
PUBLIC	??$_Allocate@VioHashString@@@std@@YAPAVioHashString@@IPAV1@@Z ; std::_Allocate<ioHashString>
PUBLIC	__CTA2?AVbad_alloc@std@@
PUBLIC	__CT??_R0?AVbad_alloc@std@@@8??0bad_alloc@std@@QAE@ABV01@@Z12
PUBLIC	??0bad_alloc@std@@QAE@ABV01@@Z			; std::bad_alloc::bad_alloc
PUBLIC	__CT??_R0?AVexception@std@@@8??0exception@std@@QAE@ABV01@@Z12
EXTRN	??2@YAPAXI@Z:PROC				; operator new
EXTRN	__CxxThrowException@8:PROC
EXTRN	??0exception@std@@QAE@ABV01@@Z:PROC		; std::exception::exception
;	COMDAT __CT??_R0?AVexception@std@@@8??0exception@std@@QAE@ABV01@@Z12
; File c:\program files (x86)\microsoft visual studio 10.0\vc\include\exception
xdata$x	SEGMENT
__CT??_R0?AVexception@std@@@8??0exception@std@@QAE@ABV01@@Z12 DD 00H
	DD	FLAT:??_R0?AVexception@std@@@8
	DD	00H
	DD	0ffffffffH
	ORG $+4
	DD	0cH
	DD	FLAT:??0exception@std@@QAE@ABV01@@Z
xdata$x	ENDS
;	COMDAT __CT??_R0?AVbad_alloc@std@@@8??0bad_alloc@std@@QAE@ABV01@@Z12
xdata$x	SEGMENT
__CT??_R0?AVbad_alloc@std@@@8??0bad_alloc@std@@QAE@ABV01@@Z12 DD 00H
	DD	FLAT:??_R0?AVbad_alloc@std@@@8
	DD	00H
	DD	0ffffffffH
	ORG $+4
	DD	0cH
	DD	FLAT:??0bad_alloc@std@@QAE@ABV01@@Z
xdata$x	ENDS
;	COMDAT __CTA2?AVbad_alloc@std@@
xdata$x	SEGMENT
__CTA2?AVbad_alloc@std@@ DD 02H
	DD	FLAT:__CT??_R0?AVbad_alloc@std@@@8??0bad_alloc@std@@QAE@ABV01@@Z12
	DD	FLAT:__CT??_R0?AVexception@std@@@8??0exception@std@@QAE@ABV01@@Z12
xdata$x	ENDS
;	COMDAT __TI2?AVbad_alloc@std@@
xdata$x	SEGMENT
__TI2?AVbad_alloc@std@@ DD 00H
	DD	FLAT:??1bad_alloc@std@@UAE@XZ
	DD	00H
	DD	FLAT:__CTA2?AVbad_alloc@std@@
; Function compile flags: /Ogsp
; File c:\program files (x86)\microsoft visual studio 10.0\vc\include\xmemory
xdata$x	ENDS
;	COMDAT ??$_Allocate@VioHashString@@@std@@YAPAVioHashString@@IPAV1@@Z
_TEXT	SEGMENT
$T613684 = -12						; size = 12
$T613689 = 8						; size = 4
__Count$ = 8						; size = 4
___formal$ = 12						; size = 4
??$_Allocate@VioHashString@@@std@@YAPAVioHashString@@IPAV1@@Z PROC ; std::_Allocate<ioHashString>, COMDAT

; 30   : 	{	// allocate storage for _Count elements of type _Ty

  00000	55		 push	 ebp
  00001	8b ec		 mov	 ebp, esp

; 31   : 	void *_Ptr = 0;
; 32   : 
; 33   : 	if (_Count <= 0)

  00003	8b 4d 08	 mov	 ecx, DWORD PTR __Count$[ebp]
  00006	83 ec 0c	 sub	 esp, 12			; 0000000cH
  00009	33 c0		 xor	 eax, eax
  0000b	85 c9		 test	 ecx, ecx

; 34   : 		_Count = 0;
; 35   : 	else if (((_SIZT)(-1) / sizeof (_Ty) < _Count)

  0000d	74 3c		 je	 SHORT $LN5@Allocate

; 36   : 		|| (_Ptr = ::operator new(_Count * sizeof (_Ty))) == 0)

  0000f	81 f9 ff ff ff
	0f		 cmp	 ecx, 268435455		; 0fffffffH
  00015	77 0e		 ja	 SHORT $LN1@Allocate
  00017	c1 e1 04	 shl	 ecx, 4
  0001a	51		 push	 ecx
  0001b	e8 00 00 00 00	 call	 ??2@YAPAXI@Z		; operator new
  00020	59		 pop	 ecx
  00021	85 c0		 test	 eax, eax

; 38   : 
; 39   : 	return ((_Ty _FARQ *)_Ptr);

  00023	75 26		 jne	 SHORT $LN5@Allocate
$LN1@Allocate:

; 37   : 		_THROW_NCEE(bad_alloc, 0);

  00025	83 65 08 00	 and	 DWORD PTR $T613689[ebp], 0
  00029	8d 45 08	 lea	 eax, DWORD PTR $T613689[ebp]
  0002c	50		 push	 eax
  0002d	8d 4d f4	 lea	 ecx, DWORD PTR $T613684[ebp]
  00030	ff 15 00 00 00
	00		 call	 DWORD PTR __imp_??0exception@std@@QAE@ABQBD@Z
  00036	68 00 00 00 00	 push	 OFFSET __TI2?AVbad_alloc@std@@
  0003b	8d 45 f4	 lea	 eax, DWORD PTR $T613684[ebp]
  0003e	50		 push	 eax
  0003f	c7 45 f4 00 00
	00 00		 mov	 DWORD PTR $T613684[ebp], OFFSET ??_7bad_alloc@std@@6B@
  00046	e8 00 00 00 00	 call	 __CxxThrowException@8
$LN10@Allocate:
$LN5@Allocate:

; 40   : 	}

  0004b	c9		 leave
  0004c	c3		 ret	 0
$LN9@Allocate:
??$_Allocate@VioHashString@@@std@@YAPAVioHashString@@IPAV1@@Z ENDP ; std::_Allocate<ioHashString>
_TEXT	ENDS
EXTRN	__imp_??0exception@std@@QAE@ABV01@@Z:PROC
; Function compile flags: /Ogsp
;	COMDAT ??0bad_alloc@std@@QAE@ABV01@@Z
_TEXT	SEGMENT
___that$ = 8						; size = 4
??0bad_alloc@std@@QAE@ABV01@@Z PROC			; std::bad_alloc::bad_alloc, COMDAT
; _this$ = ecx
  00000	55		 push	 ebp
  00001	8b ec		 mov	 ebp, esp
  00003	56		 push	 esi
  00004	ff 75 08	 push	 DWORD PTR ___that$[ebp]
  00007	8b f1		 mov	 esi, ecx
  00009	ff 15 00 00 00
	00		 call	 DWORD PTR __imp_??0exception@std@@QAE@ABV01@@Z
  0000f	c7 06 00 00 00
	00		 mov	 DWORD PTR [esi], OFFSET ??_7bad_alloc@std@@6B@
  00015	8b c6		 mov	 eax, esi
  00017	5e		 pop	 esi
  00018	5d		 pop	 ebp
  00019	c2 04 00	 ret	 4
??0bad_alloc@std@@QAE@ABV01@@Z ENDP			; std::bad_alloc::bad_alloc
_TEXT	ENDS
PUBLIC	??$forward@ABVioHashString@@@std@@YAABVioHashString@@ABV1@@Z ; std::forward<ioHashString const &>
; Function compile flags: /Ogsp
; File c:\program files (x86)\microsoft visual studio 10.0\vc\include\utility
;	COMDAT ??$forward@ABVioHashString@@@std@@YAABVioHashString@@ABV1@@Z
_TEXT	SEGMENT
__Arg$ = 8						; size = 4
??$forward@ABVioHashString@@@std@@YAABVioHashString@@ABV1@@Z PROC ; std::forward<ioHashString const &>, COMDAT

; 78   : 	{	// forward _Arg, given explicitly specified type parameter

  00000	55		 push	 ebp
  00001	8b ec		 mov	 ebp, esp

; 79   : 	return ((_Ty&&)_Arg);

  00003	8b 45 08	 mov	 eax, DWORD PTR __Arg$[ebp]

; 80   : 	}

  00006	5d		 pop	 ebp
  00007	c3		 ret	 0
??$forward@ABVioHashString@@@std@@YAABVioHashString@@ABV1@@Z ENDP ; std::forward<ioHashString const &>
_TEXT	ENDS
PUBLIC	??$forward@AAVioHashString@@@std@@YAAAVioHashString@@AAV1@@Z ; std::forward<ioHashString &>
; Function compile flags: /Ogsp
;	COMDAT ??$forward@AAVioHashString@@@std@@YAAAVioHashString@@AAV1@@Z
_TEXT	SEGMENT
__Arg$ = 8						; size = 4
??$forward@AAVioHashString@@@std@@YAAAVioHashString@@AAV1@@Z PROC ; std::forward<ioHashString &>, COMDAT

; 78   : 	{	// forward _Arg, given explicitly specified type parameter

  00000	55		 push	 ebp
  00001	8b ec		 mov	 ebp, esp

; 79   : 	return ((_Ty&&)_Arg);

  00003	8b 45 08	 mov	 eax, DWORD PTR __Arg$[ebp]

; 80   : 	}

  00006	5d		 pop	 ebp
  00007	c3		 ret	 0
??$forward@AAVioHashString@@@std@@YAAAVioHashString@@AAV1@@Z ENDP ; std::forward<ioHashString &>
_TEXT	ENDS
PUBLIC	??$_Ptr_cat@VioHashString@@V1@@std@@YA?AU_Nonscalar_ptr_iterator_tag@0@PAVioHashString@@0@Z ; std::_Ptr_cat<ioHashString,ioHashString>
; Function compile flags: /Ogsp
; File c:\program files (x86)\microsoft visual studio 10.0\vc\include\xutility
;	COMDAT ??$_Ptr_cat@VioHashString@@V1@@std@@YA?AU_Nonscalar_ptr_iterator_tag@0@PAVioHashString@@0@Z
_TEXT	SEGMENT
__Cat$ = -1						; size = 1
___formal$ = 8						; size = 4
___formal$ = 12						; size = 4
??$_Ptr_cat@VioHashString@@V1@@std@@YA?AU_Nonscalar_ptr_iterator_tag@0@PAVioHashString@@0@Z PROC ; std::_Ptr_cat<ioHashString,ioHashString>, COMDAT

; 516  : 	{	// return pointer category from pointers

  00000	55		 push	 ebp
  00001	8b ec		 mov	 ebp, esp
  00003	51		 push	 ecx

; 517  : 	typename _Ptr_cat_helper<_Elem1, _Elem2>::_Type _Cat;
; 518  : 	return (_Cat);

  00004	8a 45 ff	 mov	 al, BYTE PTR __Cat$[ebp]

; 519  : 	}

  00007	c9		 leave
  00008	c3		 ret	 0
??$_Ptr_cat@VioHashString@@V1@@std@@YA?AU_Nonscalar_ptr_iterator_tag@0@PAVioHashString@@0@Z ENDP ; std::_Ptr_cat<ioHashString,ioHashString>
_TEXT	ENDS
PUBLIC	??$_Ptr_cat@V?$_Vector_const_iterator@V?$_Vector_val@VioHashString@@V?$allocator@VioHashString@@@std@@@std@@@std@@PAVioHashString@@@std@@YA?AU_Nonscalar_ptr_iterator_tag@0@AAV?$_Vector_const_iterator@V?$_Vector_val@VioHashString@@V?$allocator@VioHashString@@@std@@@std@@@0@AAPAVioHashString@@@Z ; std::_Ptr_cat<std::_Vector_const_iterator<std::_Vector_val<ioHashString,std::allocator<ioHashString> > >,ioHashString *>
; Function compile flags: /Ogsp
;	COMDAT ??$_Ptr_cat@V?$_Vector_const_iterator@V?$_Vector_val@VioHashString@@V?$allocator@VioHashString@@@std@@@std@@@std@@PAVioHashString@@@std@@YA?AU_Nonscalar_ptr_iterator_tag@0@AAV?$_Vector_const_iterator@V?$_Vector_val@VioHashString@@V?$allocator@VioHashString@@@std@@@std@@@0@AAPAVioHashString@@@Z
_TEXT	SEGMENT
__Cat$ = -1						; size = 1
___formal$ = 8						; size = 4
___formal$ = 12						; size = 4
??$_Ptr_cat@V?$_Vector_const_iterator@V?$_Vector_val@VioHashString@@V?$allocator@VioHashString@@@std@@@std@@@std@@PAVioHashString@@@std@@YA?AU_Nonscalar_ptr_iterator_tag@0@AAV?$_Vector_const_iterator@V?$_Vector_val@VioHashString@@V?$allocator@VioHashString@@@std@@@std@@@0@AAPAVioHashString@@@Z PROC ; std::_Ptr_cat<std::_Vector_const_iterator<std::_Vector_val<ioHashString,std::allocator<ioHashString> > >,ioHashString *>, COMDAT

; 485  : 	{	// return pointer category from arbitrary arguments

  00000	55		 push	 ebp
  00001	8b ec		 mov	 ebp, esp
  00003	51		 push	 ecx

; 486  : 	_Nonscalar_ptr_iterator_tag _Cat;
; 487  : 	return (_Cat);

  00004	8a 45 ff	 mov	 al, BYTE PTR __Cat$[ebp]

; 488  : 	}

  00007	c9		 leave
  00008	c3		 ret	 0
??$_Ptr_cat@V?$_Vector_const_iterator@V?$_Vector_val@VioHashString@@V?$allocator@VioHashString@@@std@@@std@@@std@@PAVioHashString@@@std@@YA?AU_Nonscalar_ptr_iterator_tag@0@AAV?$_Vector_const_iterator@V?$_Vector_val@VioHashString@@V?$allocator@VioHashString@@@std@@@std@@@0@AAPAVioHashString@@@Z ENDP ; std::_Ptr_cat<std::_Vector_const_iterator<std::_Vector_val<ioHashString,std::allocator<ioHashString> > >,ioHashString *>
_TEXT	ENDS
PUBLIC	??$move@AAVioHashString@@@std@@YA$$QAVioHashString@@AAV1@@Z ; std::move<ioHashString &>
; Function compile flags: /Ogsp
; File c:\program files (x86)\microsoft visual studio 10.0\vc\include\utility
;	COMDAT ??$move@AAVioHashString@@@std@@YA$$QAVioHashString@@AAV1@@Z
_TEXT	SEGMENT
__Arg$ = 8						; size = 4
??$move@AAVioHashString@@@std@@YA$$QAVioHashString@@AAV1@@Z PROC ; std::move<ioHashString &>, COMDAT

; 86   : 	{	// forward _Arg as movable

  00000	55		 push	 ebp
  00001	8b ec		 mov	 ebp, esp

; 87   : 	return ((typename tr1::_Remove_reference<_Ty>::_Type&&)_Arg);

  00003	8b 45 08	 mov	 eax, DWORD PTR __Arg$[ebp]

; 88   : 	}

  00006	5d		 pop	 ebp
  00007	c3		 ret	 0
??$move@AAVioHashString@@@std@@YA$$QAVioHashString@@AAV1@@Z ENDP ; std::move<ioHashString &>
_TEXT	ENDS
PUBLIC	??D?$_Vector_const_iterator@V?$_Vector_val@VioHashString@@V?$allocator@VioHashString@@@std@@@std@@@std@@QBEABVioHashString@@XZ ; std::_Vector_const_iterator<std::_Vector_val<ioHashString,std::allocator<ioHashString> > >::operator*
; Function compile flags: /Ogsp
; File c:\program files (x86)\microsoft visual studio 10.0\vc\include\vector
;	COMDAT ??D?$_Vector_const_iterator@V?$_Vector_val@VioHashString@@V?$allocator@VioHashString@@@std@@@std@@@std@@QBEABVioHashString@@XZ
_TEXT	SEGMENT
??D?$_Vector_const_iterator@V?$_Vector_val@VioHashString@@V?$allocator@VioHashString@@@std@@@std@@@std@@QBEABVioHashString@@XZ PROC ; std::_Vector_const_iterator<std::_Vector_val<ioHashString,std::allocator<ioHashString> > >::operator*, COMDAT
; _this$ = ecx

; 64   :  #if _ITERATOR_DEBUG_LEVEL == 2
; 65   : 		if (this->_Getcont() == 0
; 66   : 			|| this->_Ptr == 0
; 67   : 			|| this->_Ptr < ((_Myvec *)this->_Getcont())->_Myfirst
; 68   : 			|| ((_Myvec *)this->_Getcont())->_Mylast <= this->_Ptr)
; 69   : 			{	// report error
; 70   : 			_DEBUG_ERROR("vector iterator not dereferencable");
; 71   : 			_SCL_SECURE_OUT_OF_RANGE;
; 72   : 			}
; 73   : 
; 74   :  #elif _ITERATOR_DEBUG_LEVEL == 1
; 75   : 		_SCL_SECURE_VALIDATE(this->_Getcont() != 0);
; 76   : 		_SCL_SECURE_VALIDATE_RANGE(
; 77   : 			this->_Ptr != 0
; 78   : 			&& ((_Myvec *)this->_Getcont())->_Myfirst <= this->_Ptr
; 79   : 			&& this->_Ptr < ((_Myvec *)this->_Getcont())->_Mylast);
; 80   :  #endif /* _ITERATOR_DEBUG_LEVEL */
; 81   : 
; 82   : 		__analysis_assume(this->_Ptr != 0);
; 83   : 
; 84   : 		return (*this->_Ptr);

  00000	8b 01		 mov	 eax, DWORD PTR [ecx]

; 85   : 		}

  00002	c3		 ret	 0
??D?$_Vector_const_iterator@V?$_Vector_val@VioHashString@@V?$allocator@VioHashString@@@std@@@std@@@std@@QBEABVioHashString@@XZ ENDP ; std::_Vector_const_iterator<std::_Vector_val<ioHashString,std::allocator<ioHashString> > >::operator*
_TEXT	ENDS
PUBLIC	??E?$_Vector_const_iterator@V?$_Vector_val@VioHashString@@V?$allocator@VioHashString@@@std@@@std@@@std@@QAEAAV01@XZ ; std::_Vector_const_iterator<std::_Vector_val<ioHashString,std::allocator<ioHashString> > >::operator++
; Function compile flags: /Ogsp
;	COMDAT ??E?$_Vector_const_iterator@V?$_Vector_val@VioHashString@@V?$allocator@VioHashString@@@std@@@std@@@std@@QAEAAV01@XZ
_TEXT	SEGMENT
??E?$_Vector_const_iterator@V?$_Vector_val@VioHashString@@V?$allocator@VioHashString@@@std@@@std@@@std@@QAEAAV01@XZ PROC ; std::_Vector_const_iterator<std::_Vector_val<ioHashString,std::allocator<ioHashString> > >::operator++, COMDAT
; _this$ = ecx

; 93   : 		{	// preincrement

  00000	8b c1		 mov	 eax, ecx

; 94   :  #if _ITERATOR_DEBUG_LEVEL == 2
; 95   : 		if (this->_Getcont() == 0
; 96   : 			|| this->_Ptr == 0
; 97   : 			|| ((_Myvec *)this->_Getcont())->_Mylast <= this->_Ptr)
; 98   : 			{	// report error
; 99   : 			_DEBUG_ERROR("vector iterator not incrementable");
; 100  : 			_SCL_SECURE_OUT_OF_RANGE;
; 101  : 			}
; 102  : 
; 103  :  #elif _ITERATOR_DEBUG_LEVEL == 1
; 104  : 		_SCL_SECURE_VALIDATE(this->_Getcont() != 0);
; 105  : 		_SCL_SECURE_VALIDATE_RANGE(
; 106  : 			this->_Ptr != 0
; 107  : 			&& this->_Ptr < ((_Myvec *)this->_Getcont())->_Mylast);
; 108  :  #endif /* _ITERATOR_DEBUG_LEVEL */
; 109  : 
; 110  : 		++this->_Ptr;

  00002	83 00 10	 add	 DWORD PTR [eax], 16	; 00000010H

; 111  : 		return (*this);
; 112  : 		}

  00005	c3		 ret	 0
??E?$_Vector_const_iterator@V?$_Vector_val@VioHashString@@V?$allocator@VioHashString@@@std@@@std@@@std@@QAEAAV01@XZ ENDP ; std::_Vector_const_iterator<std::_Vector_val<ioHashString,std::allocator<ioHashString> > >::operator++
_TEXT	ENDS
PUBLIC	??_GioHashString@@QAEPAXI@Z			; ioHashString::`scalar deleting destructor'
EXTRN	__imp_??1ioHashString@@QAE@XZ:PROC
; Function compile flags: /Ogsp
;	COMDAT ??_GioHashString@@QAEPAXI@Z
_TEXT	SEGMENT
___flags$ = 8						; size = 4
??_GioHashString@@QAEPAXI@Z PROC			; ioHashString::`scalar deleting destructor', COMDAT
; _this$ = ecx
  00000	55		 push	 ebp
  00001	8b ec		 mov	 ebp, esp
  00003	56		 push	 esi
  00004	8b f1		 mov	 esi, ecx
  00006	ff 15 00 00 00
	00		 call	 DWORD PTR __imp_??1ioHashString@@QAE@XZ
  0000c	f6 45 08 01	 test	 BYTE PTR ___flags$[ebp], 1
  00010	74 07		 je	 SHORT $LN1@scalar@4
  00012	56		 push	 esi
  00013	e8 00 00 00 00	 call	 ??3@YAXPAX@Z		; operator delete
  00018	59		 pop	 ecx
$LN1@scalar@4:
  00019	8b c6		 mov	 eax, esi
  0001b	5e		 pop	 esi
  0001c	5d		 pop	 ebp
  0001d	c2 04 00	 ret	 4
??_GioHashString@@QAEPAXI@Z ENDP			; ioHashString::`scalar deleting destructor'
_TEXT	ENDS
PUBLIC	??$_Construct@VioHashString@@ABV1@@std@@YAXPAVioHashString@@ABV1@@Z ; std::_Construct<ioHashString,ioHashString const &>
;	COMDAT xdata$x
; File c:\program files (x86)\microsoft visual studio 10.0\vc\include\utility
xdata$x	SEGMENT
__unwindtable$??$_Construct@VioHashString@@ABV1@@std@@YAXPAVioHashString@@ABV1@@Z DD 0ffffffffH
	DD	FLAT:__unwindfunclet$??$_Construct@VioHashString@@ABV1@@std@@YAXPAVioHashString@@ABV1@@Z$0
__ehfuncinfo$??$_Construct@VioHashString@@ABV1@@std@@YAXPAVioHashString@@ABV1@@Z DD 019930522H
	DD	01H
	DD	FLAT:__unwindtable$??$_Construct@VioHashString@@ABV1@@std@@YAXPAVioHashString@@ABV1@@Z
	DD	2 DUP(00H)
	DD	2 DUP(00H)
	DD	00H
	DD	01H
; Function compile flags: /Ogsp
; File c:\program files (x86)\microsoft visual studio 10.0\vc\include\xmemory
xdata$x	ENDS
;	COMDAT ??$_Construct@VioHashString@@ABV1@@std@@YAXPAVioHashString@@ABV1@@Z
_TEXT	SEGMENT
$T613716 = -16						; size = 4
__$EHRec$ = -12						; size = 12
__Vptr$ = 8						; size = 4
__Ptr$ = 8						; size = 4
__Val$ = 12						; size = 4
??$_Construct@VioHashString@@ABV1@@std@@YAXPAVioHashString@@ABV1@@Z PROC ; std::_Construct<ioHashString,ioHashString const &>, COMDAT

; 46   : 	{	// construct object at _Ptr with value _Val

  00000	6a 04		 push	 4
  00002	b8 00 00 00 00	 mov	 eax, __ehhandler$??$_Construct@VioHashString@@ABV1@@std@@YAXPAVioHashString@@ABV1@@Z
  00007	e8 00 00 00 00	 call	 __EH_prolog3

; 47   : 	void _FARQ *_Vptr = _Ptr;

  0000c	8b 4d 08	 mov	 ecx, DWORD PTR __Ptr$[ebp]
  0000f	89 4d 08	 mov	 DWORD PTR __Vptr$[ebp], ecx

; 48   : 	::new (_Vptr) _Ty1(_STD forward<_Ty2>(_Val));

  00012	89 4d f0	 mov	 DWORD PTR $T613716[ebp], ecx
  00015	83 65 fc 00	 and	 DWORD PTR __$EHRec$[ebp+8], 0
  00019	85 c9		 test	 ecx, ecx
  0001b	74 09		 je	 SHORT $LN3@Construct
  0001d	ff 75 0c	 push	 DWORD PTR __Val$[ebp]
  00020	ff 15 00 00 00
	00		 call	 DWORD PTR __imp_??0ioHashString@@QAE@ABV0@@Z
$LN3@Construct:

; 49   : 	}

  00026	e8 00 00 00 00	 call	 __EH_epilog3
  0002b	c3		 ret	 0
_TEXT	ENDS
;	COMDAT text$x
text$x	SEGMENT
__unwindfunclet$??$_Construct@VioHashString@@ABV1@@std@@YAXPAVioHashString@@ABV1@@Z$0:
  00000	ff 75 08	 push	 DWORD PTR __Vptr$[ebp]
  00003	ff 75 f0	 push	 DWORD PTR $T613716[ebp]
  00006	e8 00 00 00 00	 call	 ??3@YAXPAX0@Z		; operator delete
  0000b	59		 pop	 ecx
  0000c	59		 pop	 ecx
  0000d	c3		 ret	 0
__ehhandler$??$_Construct@VioHashString@@ABV1@@std@@YAXPAVioHashString@@ABV1@@Z:
  0000e	8b 54 24 08	 mov	 edx, DWORD PTR [esp+8]
  00012	8d 42 0c	 lea	 eax, DWORD PTR [edx+12]
  00015	8b 4a ec	 mov	 ecx, DWORD PTR [edx-20]
  00018	33 c8		 xor	 ecx, eax
  0001a	e8 00 00 00 00	 call	 @__security_check_cookie@4
  0001f	b8 00 00 00 00	 mov	 eax, OFFSET __ehfuncinfo$??$_Construct@VioHashString@@ABV1@@std@@YAXPAVioHashString@@ABV1@@Z
  00024	e9 00 00 00 00	 jmp	 ___CxxFrameHandler3
text$x	ENDS
??$_Construct@VioHashString@@ABV1@@std@@YAXPAVioHashString@@ABV1@@Z ENDP ; std::_Construct<ioHashString,ioHashString const &>
PUBLIC	??_R0?AVioDraculaItem@@@8			; ioDraculaItem `RTTI Type Descriptor'
PUBLIC	?ToDraculaItem@@YAPAVioDraculaItem@@PAVioItem@@@Z ; ToDraculaItem
;	COMDAT ??_R0?AVioDraculaItem@@@8
; File d:\lost saga for developer\youtube\tutorial\source\src\lsclient\iodraculaitem.h
_DATA	SEGMENT
??_R0?AVioDraculaItem@@@8 DD FLAT:??_7type_info@@6B@	; ioDraculaItem `RTTI Type Descriptor'
	DD	00H
	DB	'.?AVioDraculaItem@@', 00H
; Function compile flags: /Ogsp
_DATA	ENDS
;	COMDAT ?ToDraculaItem@@YAPAVioDraculaItem@@PAVioItem@@@Z
_TEXT	SEGMENT
_pItem$ = 8						; size = 4
?ToDraculaItem@@YAPAVioDraculaItem@@PAVioItem@@@Z PROC	; ToDraculaItem, COMDAT

; 181  : {

  00000	55		 push	 ebp
  00001	8b ec		 mov	 ebp, esp

; 182  : 	ioWeaponItem *pWeapon = ToWeaponItem( pItem );

  00003	ff 75 08	 push	 DWORD PTR _pItem$[ebp]
  00006	e8 00 00 00 00	 call	 ?ToWeaponItem@@YAPAVioWeaponItem@@PAVioItem@@@Z ; ToWeaponItem
  0000b	59		 pop	 ecx

; 183  : 	if( !pWeapon || pWeapon->GetSubType() != ioWeaponItem::WST_DRACULA )

  0000c	85 c0		 test	 eax, eax
  0000e	74 2a		 je	 SHORT $LN1@ToDraculaI
  00010	8b 10		 mov	 edx, DWORD PTR [eax]
  00012	8b c8		 mov	 ecx, eax
  00014	ff 92 f0 02 00
	00		 call	 DWORD PTR [edx+752]
  0001a	83 f8 49	 cmp	 eax, 73			; 00000049H
  0001d	75 1b		 jne	 SHORT $LN1@ToDraculaI

; 185  : 
; 186  : 	return dynamic_cast< ioDraculaItem* >( pItem );

  0001f	6a 00		 push	 0
  00021	68 00 00 00 00	 push	 OFFSET ??_R0?AVioDraculaItem@@@8
  00026	68 00 00 00 00	 push	 OFFSET ??_R0?AVioItem@@@8
  0002b	6a 00		 push	 0
  0002d	ff 75 08	 push	 DWORD PTR _pItem$[ebp]
  00030	e8 00 00 00 00	 call	 ___RTDynamicCast
  00035	83 c4 14	 add	 esp, 20			; 00000014H

; 187  : }

  00038	5d		 pop	 ebp
  00039	c3		 ret	 0
$LN1@ToDraculaI:

; 184  : 		return NULL;

  0003a	33 c0		 xor	 eax, eax

; 187  : }

  0003c	5d		 pop	 ebp
  0003d	c3		 ret	 0
?ToDraculaItem@@YAPAVioDraculaItem@@PAVioItem@@@Z ENDP	; ToDraculaItem
_TEXT	ENDS
PUBLIC	?ChangeFlyMove@ioDraculaItem@@QAEXPAVioBaseChar@@@Z ; ioDraculaItem::ChangeFlyMove
EXTRN	__imp_?ClearAllActionAni@ioEntityGroup@@QAEXM_N@Z:PROC
EXTRN	__imp_?ClearAllLoopAni@ioEntityGroup@@QAEXM_N@Z:PROC
; Function compile flags: /Ogsp
; File d:\lost saga for developer\youtube\tutorial\source\src\lsclient\iodraculaitem.cpp
;	COMDAT ?ChangeFlyMove@ioDraculaItem@@QAEXPAVioBaseChar@@@Z
_TEXT	SEGMENT
tv133 = 8						; size = 4
tv128 = 8						; size = 4
_pOwner$ = 8						; size = 4
?ChangeFlyMove@ioDraculaItem@@QAEXPAVioBaseChar@@@Z PROC ; ioDraculaItem::ChangeFlyMove, COMDAT
; _this$ = ecx

; 629  : {

  00000	55		 push	 ebp
  00001	8b ec		 mov	 ebp, esp

; 630  : 	if( !pOwner )

  00003	8b 45 08	 mov	 eax, DWORD PTR _pOwner$[ebp]
  00006	85 c0		 test	 eax, eax
  00008	74 4f		 je	 SHORT $LN3@ChangeFlyM

; 631  : 		return;
; 632  : 
; 633  : 	ioEntityGroup *pGrp = pOwner->GetGroup();

  0000a	56		 push	 esi
  0000b	8b 70 04	 mov	 esi, DWORD PTR [eax+4]

; 634  : 	if( !pGrp )

  0000e	85 f6		 test	 esi, esi
  00010	74 46		 je	 SHORT $LN11@ChangeFlyM

; 635  : 		return;
; 636  : 
; 637  : 	//DWORD dwCurTime = FRAMEGETTIME();
; 638  : 
; 639  : 	// KeyDir
; 640  : 	ioUserKeyInput::DirKeyInput eDir = m_CurDirKey;
; 641  : 
; 642  : 	int iAniID = 0;
; 643  : 	float fTimeRate = 0;
; 644  : 	pGrp->ClearAllLoopAni( FLOAT100, true );

  00012	b8 64 00 00 00	 mov	 eax, 100		; 00000064H
  00017	89 45 08	 mov	 DWORD PTR tv133[ebp], eax
  0001a	db 45 08	 fild	 DWORD PTR tv133[ebp]
  0001d	6a 01		 push	 1
  0001f	85 c0		 test	 eax, eax
  00021	79 06		 jns	 SHORT $LN12@ChangeFlyM
  00023	d8 05 00 00 00
	00		 fadd	 DWORD PTR __real@4f800000
$LN12@ChangeFlyM:
  00029	51		 push	 ecx
  0002a	8b ce		 mov	 ecx, esi
  0002c	d9 1c 24	 fstp	 DWORD PTR [esp]
  0002f	ff 15 00 00 00
	00		 call	 DWORD PTR __imp_?ClearAllLoopAni@ioEntityGroup@@QAEXM_N@Z

; 645  : 	pGrp->ClearAllActionAni( FLOAT100, true );

  00035	b8 64 00 00 00	 mov	 eax, 100		; 00000064H
  0003a	89 45 08	 mov	 DWORD PTR tv128[ebp], eax
  0003d	db 45 08	 fild	 DWORD PTR tv128[ebp]
  00040	6a 01		 push	 1
  00042	85 c0		 test	 eax, eax
  00044	79 06		 jns	 SHORT $LN13@ChangeFlyM
  00046	d8 05 00 00 00
	00		 fadd	 DWORD PTR __real@4f800000
$LN13@ChangeFlyM:
  0004c	51		 push	 ecx
  0004d	8b ce		 mov	 ecx, esi
  0004f	d9 1c 24	 fstp	 DWORD PTR [esp]
  00052	ff 15 00 00 00
	00		 call	 DWORD PTR __imp_?ClearAllActionAni@ioEntityGroup@@QAEXM_N@Z
$LN11@ChangeFlyM:
  00058	5e		 pop	 esi
$LN3@ChangeFlyM:

; 646  : 
; 647  : 	/*if( eDir == ioUserKeyInput::DKI_NONE )
; 648  : 	{
; 649  : 		iAniID = pGrp->GetAnimationIdx( m_CurFly.m_DelayAni );
; 650  : 		fTimeRate = m_CurFly.m_fDelayAniRate;
; 651  : 	}
; 652  : 	else
; 653  : 	{
; 654  : 		iAniID = pGrp->GetAnimationIdx( m_CurFly.m_MoveAni );
; 655  : 		fTimeRate = m_CurFly.m_fMoveAniRate;
; 656  : 	}
; 657  : 
; 658  : 	pGrp->SetLoopAni( iAniID, FLOAT100, FLOAT1, FLOAT1/fTimeRate );*/
; 659  : }

  00059	5d		 pop	 ebp
  0005a	c2 04 00	 ret	 4
?ChangeFlyMove@ioDraculaItem@@QAEXPAVioBaseChar@@@Z ENDP ; ioDraculaItem::ChangeFlyMove
_TEXT	ENDS
PUBLIC	?AddBuff@ioDraculaItem@@IAEXPAVioBaseChar@@@Z	; ioDraculaItem::AddBuff
EXTRN	?AddNewBuff@ioBaseChar@@QAEPAVioBuff@@ABVioHashString@@00PAVioSkill@@_N@Z:PROC ; ioBaseChar::AddNewBuff
;	COMDAT xdata$x
; File d:\lost saga for developer\youtube\tutorial\source\src\lsclient\iobasechar.h
xdata$x	SEGMENT
__unwindtable$?AddBuff@ioDraculaItem@@IAEXPAVioBaseChar@@@Z DD 0ffffffffH
	DD	FLAT:__unwindfunclet$?AddBuff@ioDraculaItem@@IAEXPAVioBaseChar@@@Z$0
__ehfuncinfo$?AddBuff@ioDraculaItem@@IAEXPAVioBaseChar@@@Z DD 019930522H
	DD	01H
	DD	FLAT:__unwindtable$?AddBuff@ioDraculaItem@@IAEXPAVioBaseChar@@@Z
	DD	2 DUP(00H)
	DD	2 DUP(00H)
	DD	00H
	DD	01H
; Function compile flags: /Ogsp
; File d:\lost saga for developer\youtube\tutorial\source\src\lsclient\iodraculaitem.cpp
xdata$x	ENDS
;	COMDAT ?AddBuff@ioDraculaItem@@IAEXPAVioBaseChar@@@Z
_TEXT	SEGMENT
_szBuffName$608420 = -32				; size = 16
tv133 = -16						; size = 4
__$EHRec$ = -12						; size = 12
tv202 = 8						; size = 4
_pOwner$ = 8						; size = 4
?AddBuff@ioDraculaItem@@IAEXPAVioBaseChar@@@Z PROC	; ioDraculaItem::AddBuff, COMDAT
; _this$ = ecx

; 1138 : {

  00000	6a 14		 push	 20			; 00000014H
  00002	b8 00 00 00 00	 mov	 eax, __ehhandler$?AddBuff@ioDraculaItem@@IAEXPAVioBaseChar@@@Z
  00007	e8 00 00 00 00	 call	 __EH_prolog3
  0000c	8b f1		 mov	 esi, ecx

; 1139 : 	// add buff
; 1140 : 	int iBuffCnt = m_CurFly.m_vBuffList.size();

  0000e	8b 86 88 1a 00
	00		 mov	 eax, DWORD PTR [esi+6792]
  00014	2b 86 84 1a 00
	00		 sub	 eax, DWORD PTR [esi+6788]
  0001a	c1 f8 04	 sar	 eax, 4

; 1141 : 	for( int j=0; j < iBuffCnt; ++j )

  0001d	85 c0		 test	 eax, eax
  0001f	7e 53		 jle	 SHORT $LN1@AddBuff
  00021	8b 5d 08	 mov	 ebx, DWORD PTR _pOwner$[ebp]
  00024	83 65 08 00	 and	 DWORD PTR tv202[ebp], 0
  00028	8d be 34 01 00
	00		 lea	 edi, DWORD PTR [esi+308]
  0002e	89 45 f0	 mov	 DWORD PTR tv133[ebp], eax
$LN3@AddBuff:
  00031	8b 86 84 1a 00
	00		 mov	 eax, DWORD PTR [esi+6788]
  00037	03 45 08	 add	 eax, DWORD PTR tv202[ebp]

; 1142 : 	{
; 1143 : 		ioHashString szBuffName = m_CurFly.m_vBuffList[j];

  0003a	8d 4d e0	 lea	 ecx, DWORD PTR _szBuffName$608420[ebp]
  0003d	50		 push	 eax
  0003e	ff 15 00 00 00
	00		 call	 DWORD PTR __imp_??0ioHashString@@QAE@ABV0@@Z
  00044	33 c0		 xor	 eax, eax

; 1144 : 		pOwner->AddNewBuff( szBuffName, pOwner->GetCharName(), GetName(), NULL );

  00046	50		 push	 eax
  00047	50		 push	 eax
  00048	89 45 fc	 mov	 DWORD PTR __$EHRec$[ebp+8], eax
  0004b	57		 push	 edi
  0004c	8d 83 d4 02 00
	00		 lea	 eax, DWORD PTR [ebx+724]
  00052	50		 push	 eax
  00053	8d 45 e0	 lea	 eax, DWORD PTR _szBuffName$608420[ebp]
  00056	50		 push	 eax
  00057	8b cb		 mov	 ecx, ebx
  00059	e8 00 00 00 00	 call	 ?AddNewBuff@ioBaseChar@@QAEPAVioBuff@@ABVioHashString@@00PAVioSkill@@_N@Z ; ioBaseChar::AddNewBuff

; 1145 : 	}

  0005e	83 4d fc ff	 or	 DWORD PTR __$EHRec$[ebp+8], -1
  00062	8d 4d e0	 lea	 ecx, DWORD PTR _szBuffName$608420[ebp]
  00065	ff 15 00 00 00
	00		 call	 DWORD PTR __imp_??1ioHashString@@QAE@XZ
  0006b	83 45 08 10	 add	 DWORD PTR tv202[ebp], 16 ; 00000010H
  0006f	ff 4d f0	 dec	 DWORD PTR tv133[ebp]
  00072	75 bd		 jne	 SHORT $LN3@AddBuff
$LN1@AddBuff:

; 1146 : }

  00074	e8 00 00 00 00	 call	 __EH_epilog3
  00079	c2 04 00	 ret	 4
_TEXT	ENDS
;	COMDAT text$x
text$x	SEGMENT
__unwindfunclet$?AddBuff@ioDraculaItem@@IAEXPAVioBaseChar@@@Z$0:
  00000	8d 4d e0	 lea	 ecx, DWORD PTR _szBuffName$608420[ebp]
  00003	ff 25 00 00 00
	00		 jmp	 DWORD PTR __imp_??1ioHashString@@QAE@XZ
__ehhandler$?AddBuff@ioDraculaItem@@IAEXPAVioBaseChar@@@Z:
  00009	8b 54 24 08	 mov	 edx, DWORD PTR [esp+8]
  0000d	8d 42 0c	 lea	 eax, DWORD PTR [edx+12]
  00010	8b 4a dc	 mov	 ecx, DWORD PTR [edx-36]
  00013	33 c8		 xor	 ecx, eax
  00015	e8 00 00 00 00	 call	 @__security_check_cookie@4
  0001a	b8 00 00 00 00	 mov	 eax, OFFSET __ehfuncinfo$?AddBuff@ioDraculaItem@@IAEXPAVioBaseChar@@@Z
  0001f	e9 00 00 00 00	 jmp	 ___CxxFrameHandler3
text$x	ENDS
?AddBuff@ioDraculaItem@@IAEXPAVioBaseChar@@@Z ENDP	; ioDraculaItem::AddBuff
PUBLIC	?EraseBuff@ioDraculaItem@@IAEXPAVioBaseChar@@@Z	; ioDraculaItem::EraseBuff
EXTRN	?RemoveBuff@ioBaseChar@@QAE_NABVioHashString@@_N@Z:PROC ; ioBaseChar::RemoveBuff
;	COMDAT xdata$x
; File c:\program files (x86)\microsoft visual studio 10.0\vc\include\vector
xdata$x	SEGMENT
__unwindtable$?EraseBuff@ioDraculaItem@@IAEXPAVioBaseChar@@@Z DD 0ffffffffH
	DD	FLAT:__unwindfunclet$?EraseBuff@ioDraculaItem@@IAEXPAVioBaseChar@@@Z$0
__ehfuncinfo$?EraseBuff@ioDraculaItem@@IAEXPAVioBaseChar@@@Z DD 019930522H
	DD	01H
	DD	FLAT:__unwindtable$?EraseBuff@ioDraculaItem@@IAEXPAVioBaseChar@@@Z
	DD	2 DUP(00H)
	DD	2 DUP(00H)
	DD	00H
	DD	01H
; Function compile flags: /Ogsp
; File d:\lost saga for developer\youtube\tutorial\source\src\lsclient\iodraculaitem.cpp
xdata$x	ENDS
;	COMDAT ?EraseBuff@ioDraculaItem@@IAEXPAVioBaseChar@@@Z
_TEXT	SEGMENT
_szBuffName$608430 = -28				; size = 16
__$EHRec$ = -12						; size = 12
_pOwner$ = 8						; size = 4
?EraseBuff@ioDraculaItem@@IAEXPAVioBaseChar@@@Z PROC	; ioDraculaItem::EraseBuff, COMDAT
; _this$ = ecx

; 1149 : {

  00000	6a 10		 push	 16			; 00000010H
  00002	b8 00 00 00 00	 mov	 eax, __ehhandler$?EraseBuff@ioDraculaItem@@IAEXPAVioBaseChar@@@Z
  00007	e8 00 00 00 00	 call	 __EH_prolog3
  0000c	8b f1		 mov	 esi, ecx

; 1150 : 	int iBuffCnt = m_CurFly.m_vBuffList.size();

  0000e	8b 86 88 1a 00
	00		 mov	 eax, DWORD PTR [esi+6792]
  00014	2b 86 84 1a 00
	00		 sub	 eax, DWORD PTR [esi+6788]
  0001a	c1 f8 04	 sar	 eax, 4

; 1151 : 	for( int j=0; j < iBuffCnt; ++j )

  0001d	85 c0		 test	 eax, eax
  0001f	7e 3b		 jle	 SHORT $LN1@EraseBuff

; 1150 : 	int iBuffCnt = m_CurFly.m_vBuffList.size();

  00021	33 ff		 xor	 edi, edi
  00023	8b d8		 mov	 ebx, eax
$LL3@EraseBuff:

; 1151 : 	for( int j=0; j < iBuffCnt; ++j )

  00025	8b 86 84 1a 00
	00		 mov	 eax, DWORD PTR [esi+6788]
  0002b	03 c7		 add	 eax, edi

; 1152 : 	{
; 1153 : 		ioHashString szBuffName = m_CurFly.m_vBuffList[j];

  0002d	50		 push	 eax
  0002e	8d 4d e4	 lea	 ecx, DWORD PTR _szBuffName$608430[ebp]
  00031	ff 15 00 00 00
	00		 call	 DWORD PTR __imp_??0ioHashString@@QAE@ABV0@@Z

; 1154 : 		pOwner->RemoveBuff( szBuffName );

  00037	8b 4d 08	 mov	 ecx, DWORD PTR _pOwner$[ebp]
  0003a	83 65 fc 00	 and	 DWORD PTR __$EHRec$[ebp+8], 0
  0003e	6a 01		 push	 1
  00040	8d 45 e4	 lea	 eax, DWORD PTR _szBuffName$608430[ebp]
  00043	50		 push	 eax
  00044	e8 00 00 00 00	 call	 ?RemoveBuff@ioBaseChar@@QAE_NABVioHashString@@_N@Z ; ioBaseChar::RemoveBuff

; 1155 : 	}

  00049	83 4d fc ff	 or	 DWORD PTR __$EHRec$[ebp+8], -1
  0004d	8d 4d e4	 lea	 ecx, DWORD PTR _szBuffName$608430[ebp]
  00050	ff 15 00 00 00
	00		 call	 DWORD PTR __imp_??1ioHashString@@QAE@XZ
  00056	83 c7 10	 add	 edi, 16			; 00000010H
  00059	4b		 dec	 ebx
  0005a	75 c9		 jne	 SHORT $LL3@EraseBuff
$LN1@EraseBuff:

; 1156 : }

  0005c	e8 00 00 00 00	 call	 __EH_epilog3
  00061	c2 04 00	 ret	 4
_TEXT	ENDS
;	COMDAT text$x
text$x	SEGMENT
__unwindfunclet$?EraseBuff@ioDraculaItem@@IAEXPAVioBaseChar@@@Z$0:
  00000	8d 4d e4	 lea	 ecx, DWORD PTR _szBuffName$608430[ebp]
  00003	ff 25 00 00 00
	00		 jmp	 DWORD PTR __imp_??1ioHashString@@QAE@XZ
__ehhandler$?EraseBuff@ioDraculaItem@@IAEXPAVioBaseChar@@@Z:
  00009	8b 54 24 08	 mov	 edx, DWORD PTR [esp+8]
  0000d	8d 42 0c	 lea	 eax, DWORD PTR [edx+12]
  00010	8b 4a e0	 mov	 ecx, DWORD PTR [edx-32]
  00013	33 c8		 xor	 ecx, eax
  00015	e8 00 00 00 00	 call	 @__security_check_cookie@4
  0001a	b8 00 00 00 00	 mov	 eax, OFFSET __ehfuncinfo$?EraseBuff@ioDraculaItem@@IAEXPAVioBaseChar@@@Z
  0001f	e9 00 00 00 00	 jmp	 ___CxxFrameHandler3
text$x	ENDS
?EraseBuff@ioDraculaItem@@IAEXPAVioBaseChar@@@Z ENDP	; ioDraculaItem::EraseBuff
PUBLIC	?CheckFlyState@ioDraculaItem@@QAEXPAVioBaseChar@@_N@Z ; ioDraculaItem::CheckFlyState
EXTRN	?SetState@ioBaseChar@@QAEXH_N@Z:PROC		; ioBaseChar::SetState
EXTRN	?GetMapHeight@ioPlayStage@@QAEMMMPBVioGameEntity@@_NM1@Z:PROC ; ioPlayStage::GetMapHeight
EXTRN	?GetMidHeightByRate@ioGameEntity@@QBEMM@Z:PROC	; ioGameEntity::GetMidHeightByRate
; Function compile flags: /Ogsp
;	COMDAT ?CheckFlyState@ioDraculaItem@@QAEXPAVioBaseChar@@_N@Z
_TEXT	SEGMENT
_this$ = -4						; size = 4
tv217 = 8						; size = 4
$T613803 = 8						; size = 4
_fMapHeight$ = 8					; size = 4
_pOwner$ = 8						; size = 4
_bAttack$ = 12						; size = 1
?CheckFlyState@ioDraculaItem@@QAEXPAVioBaseChar@@_N@Z PROC ; ioDraculaItem::CheckFlyState, COMDAT
; _this$ = ecx

; 1159 : {

  00000	55		 push	 ebp
  00001	8b ec		 mov	 ebp, esp
  00003	51		 push	 ecx
  00004	56		 push	 esi

; 1160 : 	ioPlayStage *pStage = pOwner->GetCreator();

  00005	8b 75 08	 mov	 esi, DWORD PTR _pOwner$[ebp]
  00008	57		 push	 edi
  00009	8b be 44 03 00
	00		 mov	 edi, DWORD PTR [esi+836]
  0000f	89 4d fc	 mov	 DWORD PTR _this$[ebp], ecx

; 1161 : 	if( !pStage )

  00012	85 ff		 test	 edi, edi
  00014	0f 84 c3 00 00
	00		 je	 $LN1@CheckFlySt

; 1162 : 		return;
; 1163 : 
; 1164 : 	float fMapHeight = pStage->GetMapHeight( pOwner->GetWorldPosition().x, pOwner->GetWorldPosition().z, pOwner, false, pOwner->GetMidHeightByRate(FLOAT1) );

  0001a	53		 push	 ebx
  0001b	b8 01 00 00 00	 mov	 eax, 1
  00020	89 45 08	 mov	 DWORD PTR $T613803[ebp], eax
  00023	8b 06		 mov	 eax, DWORD PTR [esi]
  00025	8b ce		 mov	 ecx, esi
  00027	ff 50 70	 call	 DWORD PTR [eax+112]
  0002a	db 45 08	 fild	 DWORD PTR $T613803[ebp]
  0002d	8b d8		 mov	 ebx, eax
  0002f	8b 45 08	 mov	 eax, DWORD PTR $T613803[ebp]
  00032	6a 00		 push	 0
  00034	85 c0		 test	 eax, eax
  00036	79 06		 jns	 SHORT $LN14@CheckFlySt
  00038	d8 05 00 00 00
	00		 fadd	 DWORD PTR __real@4f800000
$LN14@CheckFlySt:
  0003e	51		 push	 ecx
  0003f	8b ce		 mov	 ecx, esi
  00041	d9 1c 24	 fstp	 DWORD PTR [esp]
  00044	e8 00 00 00 00	 call	 ?GetMidHeightByRate@ioGameEntity@@QBEMM@Z ; ioGameEntity::GetMidHeightByRate
  00049	8b 06		 mov	 eax, DWORD PTR [esi]
  0004b	51		 push	 ecx
  0004c	d9 1c 24	 fstp	 DWORD PTR [esp]
  0004f	6a 00		 push	 0
  00051	56		 push	 esi
  00052	8b ce		 mov	 ecx, esi
  00054	ff 50 70	 call	 DWORD PTR [eax+112]
  00057	f3 0f 10 40 08	 movss	 xmm0, DWORD PTR [eax+8]
  0005c	51		 push	 ecx
  0005d	51		 push	 ecx
  0005e	f3 0f 11 44 24
	04		 movss	 DWORD PTR [esp+4], xmm0
  00064	f3 0f 10 03	 movss	 xmm0, DWORD PTR [ebx]
  00068	8b cf		 mov	 ecx, edi
  0006a	f3 0f 11 04 24	 movss	 DWORD PTR [esp], xmm0
  0006f	e8 00 00 00 00	 call	 ?GetMapHeight@ioPlayStage@@QAEMMMPBVioGameEntity@@_NM1@Z ; ioPlayStage::GetMapHeight
  00074	d9 5d 08	 fstp	 DWORD PTR _fMapHeight$[ebp]

; 1165 : 	float fCharHeight = pOwner->GetWorldPosition().y;

  00077	8b 06		 mov	 eax, DWORD PTR [esi]
  00079	8b ce		 mov	 ecx, esi
  0007b	ff 50 70	 call	 DWORD PTR [eax+112]
  0007e	f3 0f 10 40 04	 movss	 xmm0, DWORD PTR [eax+4]

; 1166 : 
; 1167 : 	if( (fCharHeight > fMapHeight) && ( (fCharHeight - fMapHeight) > m_fCheckLandHeight ) )

  00083	f3 0f 10 55 08	 movss	 xmm2, DWORD PTR _fMapHeight$[ebp]
  00088	0f 5a c8	 cvtps2pd xmm1, xmm0
  0008b	0f 5a d2	 cvtps2pd xmm2, xmm2
  0008e	66 0f 2f ca	 comisd	 xmm1, xmm2
  00092	5b		 pop	 ebx
  00093	76 2e		 jbe	 SHORT $LN4@CheckFlySt
  00095	f3 0f 10 4d 08	 movss	 xmm1, DWORD PTR _fMapHeight$[ebp]
  0009a	8b 4d fc	 mov	 ecx, DWORD PTR _this$[ebp]
  0009d	0f 5a c9	 cvtps2pd xmm1, xmm1
  000a0	0f 5a c0	 cvtps2pd xmm0, xmm0
  000a3	f2 0f 5c c1	 subsd	 xmm0, xmm1
  000a7	f3 0f 10 89 54
	1b 00 00	 movss	 xmm1, DWORD PTR [ecx+6996]
  000af	0f 5a c9	 cvtps2pd xmm1, xmm1
  000b2	66 0f 2f c1	 comisd	 xmm0, xmm1
  000b6	76 0b		 jbe	 SHORT $LN4@CheckFlySt

; 1168 : 	{
; 1169 : 		ChangeAirNornmalAttack( pOwner, bAttack );

  000b8	ff 75 0c	 push	 DWORD PTR _bAttack$[ebp]
  000bb	56		 push	 esi
  000bc	e8 00 00 00 00	 call	 ?ChangeAirNornmalAttack@ioDraculaItem@@IAEXPAVioBaseChar@@_N@Z ; ioDraculaItem::ChangeAirNornmalAttack

; 1170 : 	}
; 1171 : 	else

  000c1	eb 1a		 jmp	 SHORT $LN1@CheckFlySt
$LN4@CheckFlySt:

; 1172 : 	{
; 1173 : 		if( bAttack )

  000c3	80 7d 0c 00	 cmp	 BYTE PTR _bAttack$[ebp], 0

; 1174 : 			ChangeLandNormalAttack( pOwner );

  000c7	8b ce		 mov	 ecx, esi
  000c9	74 09		 je	 SHORT $LN2@CheckFlySt
  000cb	6a 00		 push	 0
  000cd	e8 00 00 00 00	 call	 ?SetNormalAttack@ioBaseChar@@QAEXH@Z ; ioBaseChar::SetNormalAttack

; 1175 : 		else

  000d2	eb 09		 jmp	 SHORT $LN1@CheckFlySt
$LN2@CheckFlySt:

; 1176 : 			pOwner->SetState( CS_DELAY );

  000d4	6a 01		 push	 1
  000d6	6a 00		 push	 0
  000d8	e8 00 00 00 00	 call	 ?SetState@ioBaseChar@@QAEXH_N@Z ; ioBaseChar::SetState
$LN1@CheckFlySt:
  000dd	5f		 pop	 edi
  000de	5e		 pop	 esi

; 1177 : 	}
; 1178 : }

  000df	c9		 leave
  000e0	c2 08 00	 ret	 8
?CheckFlyState@ioDraculaItem@@QAEXPAVioBaseChar@@_N@Z ENDP ; ioDraculaItem::CheckFlyState
; Function compile flags: /Ogsp
_TEXT	ENDS
;	COMDAT ??_GioDraculaFlySpecialState@@UAEPAXI@Z
_TEXT	SEGMENT
___flags$ = 8						; size = 4
??_GioDraculaFlySpecialState@@UAEPAXI@Z PROC		; ioDraculaFlySpecialState::`scalar deleting destructor', COMDAT
; _this$ = ecx
  00000	55		 push	 ebp
  00001	8b ec		 mov	 ebp, esp
  00003	56		 push	 esi
  00004	8b f1		 mov	 esi, ecx
  00006	c7 06 00 00 00
	00		 mov	 DWORD PTR [esi], OFFSET ??_7ioDraculaFlySpecialState@@6B@
  0000c	e8 00 00 00 00	 call	 ??1ioSpecialStateBase@@UAE@XZ ; ioSpecialStateBase::~ioSpecialStateBase
  00011	f6 45 08 01	 test	 BYTE PTR ___flags$[ebp], 1
  00015	74 07		 je	 SHORT $LN1@scalar@5
  00017	56		 push	 esi
  00018	e8 00 00 00 00	 call	 ??3@YAXPAX@Z		; operator delete
  0001d	59		 pop	 ecx
$LN1@scalar@5:
  0001e	8b c6		 mov	 eax, esi
  00020	5e		 pop	 esi
  00021	5d		 pop	 ebp
  00022	c2 04 00	 ret	 4
??_GioDraculaFlySpecialState@@UAEPAXI@Z ENDP		; ioDraculaFlySpecialState::`scalar deleting destructor'
; Function compile flags: /Ogsp
_TEXT	ENDS
;	COMDAT ?ProcessMove@ioDraculaFlySpecialState@@UAE_NPAVioBaseChar@@MKK@Z
_TEXT	SEGMENT
_pOwner$ = 8						; size = 4
_fTimePerSec$ = 12					; size = 4
_dwPreTime$ = 16					; size = 4
_dwCurTime$ = 20					; size = 4
?ProcessMove@ioDraculaFlySpecialState@@UAE_NPAVioBaseChar@@MKK@Z PROC ; ioDraculaFlySpecialState::ProcessMove, COMDAT
; _this$ = ecx

; 1259 : {

  00000	55		 push	 ebp
  00001	8b ec		 mov	 ebp, esp

; 1260 : 	ioDraculaItem *pDraculaItem = ToDraculaItem( pOwner->GetPriorityItem( SPT_ATTACK ) );

  00003	8b 4d 08	 mov	 ecx, DWORD PTR _pOwner$[ebp]
  00006	56		 push	 esi
  00007	6a 05		 push	 5
  00009	e8 00 00 00 00	 call	 ?GetPriorityItem@ioBaseChar@@QBEPAVioAttackableItem@@W4StatePriorityType@@@Z ; ioBaseChar::GetPriorityItem
  0000e	50		 push	 eax
  0000f	e8 00 00 00 00	 call	 ?ToDraculaItem@@YAPAVioDraculaItem@@PAVioItem@@@Z ; ToDraculaItem
  00014	8b f0		 mov	 esi, eax
  00016	59		 pop	 ecx

; 1261 : 	if( !pDraculaItem )

  00017	85 f6		 test	 esi, esi
  00019	75 0b		 jne	 SHORT $LN2@ProcessMov

; 1262 : 		pOwner->SetState( CS_DELAY );

  0001b	8b 4d 08	 mov	 ecx, DWORD PTR _pOwner$[ebp]
  0001e	6a 01		 push	 1
  00020	50		 push	 eax
  00021	e8 00 00 00 00	 call	 ?SetState@ioBaseChar@@QAEXH_N@Z ; ioBaseChar::SetState
$LN2@ProcessMov:

; 1263 : 
; 1264 : 	if( !pDraculaItem->IsDraculaState() )

  00026	8b 86 68 19 00
	00		 mov	 eax, DWORD PTR [esi+6504]
  0002c	48		 dec	 eax
  0002d	5e		 pop	 esi
  0002e	83 f8 01	 cmp	 eax, 1
  00031	76 0c		 jbe	 SHORT $LN1@ProcessMov

; 1265 : 		pOwner->SetState( CS_DELAY );

  00033	8b 4d 08	 mov	 ecx, DWORD PTR _pOwner$[ebp]
  00036	6a 01		 push	 1
  00038	6a 00		 push	 0
  0003a	e8 00 00 00 00	 call	 ?SetState@ioBaseChar@@QAEXH_N@Z ; ioBaseChar::SetState
$LN1@ProcessMov:

; 1266 : 
; 1267 : 	return true;

  0003f	b0 01		 mov	 al, 1

; 1268 : }

  00041	5d		 pop	 ebp
  00042	c2 10 00	 ret	 16			; 00000010H
?ProcessMove@ioDraculaFlySpecialState@@UAE_NPAVioBaseChar@@MKK@Z ENDP ; ioDraculaFlySpecialState::ProcessMove
_TEXT	ENDS
PUBLIC	??H?$CEncrypt@M@@QAEMABM@Z			; CEncrypt<float>::operator+
; Function compile flags: /Ogsp
; File d:\lost saga for developer\youtube\tutorial\source\src\lsclient\encryptvalue.h
;	COMDAT ??H?$CEncrypt@M@@QAEMABM@Z
_TEXT	SEGMENT
_value$ = -4						; size = 4
tv130 = 8						; size = 4
_inValue$ = 8						; size = 4
??H?$CEncrypt@M@@QAEMABM@Z PROC				; CEncrypt<float>::operator+, COMDAT
; _this$ = ecx

; 1675 : 	{	

  00000	55		 push	 ebp
  00001	8b ec		 mov	 ebp, esp
  00003	51		 push	 ecx

; 1676 : 		type value;
; 1677 : 		DecryptValueToPool(&value);

  00004	8d 45 fc	 lea	 eax, DWORD PTR _value$[ebp]
  00007	50		 push	 eax
  00008	e8 00 00 00 00	 call	 ?DecryptValueToPool@?$CEncrypt@M@@QAEXPAM@Z ; CEncrypt<float>::DecryptValueToPool

; 1678 : #ifdef _NOTUSE
; 1679 : 		Debug();
; 1680 : #endif
; 1681 : 		return value + inValue;

  0000d	8b 45 08	 mov	 eax, DWORD PTR _inValue$[ebp]
  00010	d9 00		 fld	 DWORD PTR [eax]
  00012	d8 45 fc	 fadd	 DWORD PTR _value$[ebp]
  00015	d9 5d 08	 fstp	 DWORD PTR tv130[ebp]
  00018	d9 45 08	 fld	 DWORD PTR tv130[ebp]

; 1682 : 	}

  0001b	c9		 leave
  0001c	c2 04 00	 ret	 4
??H?$CEncrypt@M@@QAEMABM@Z ENDP				; CEncrypt<float>::operator+
_TEXT	ENDS
PUBLIC	??D?$CEncrypt@M@@QAEMABM@Z			; CEncrypt<float>::operator*
; Function compile flags: /Ogsp
;	COMDAT ??D?$CEncrypt@M@@QAEMABM@Z
_TEXT	SEGMENT
_value$ = -4						; size = 4
tv130 = 8						; size = 4
_inValue$ = 8						; size = 4
??D?$CEncrypt@M@@QAEMABM@Z PROC				; CEncrypt<float>::operator*, COMDAT
; _this$ = ecx

; 1685 : 	{	

  00000	55		 push	 ebp
  00001	8b ec		 mov	 ebp, esp
  00003	51		 push	 ecx

; 1686 : 		type value;
; 1687 : 		DecryptValueToPool(&value);

  00004	8d 45 fc	 lea	 eax, DWORD PTR _value$[ebp]
  00007	50		 push	 eax
  00008	e8 00 00 00 00	 call	 ?DecryptValueToPool@?$CEncrypt@M@@QAEXPAM@Z ; CEncrypt<float>::DecryptValueToPool

; 1688 : #ifdef _NOTUSE
; 1689 : 		Debug();
; 1690 : #endif
; 1691 : 		return value * inValue;

  0000d	8b 45 08	 mov	 eax, DWORD PTR _inValue$[ebp]
  00010	d9 00		 fld	 DWORD PTR [eax]
  00012	d8 4d fc	 fmul	 DWORD PTR _value$[ebp]
  00015	d9 5d 08	 fstp	 DWORD PTR tv130[ebp]
  00018	d9 45 08	 fld	 DWORD PTR tv130[ebp]

; 1692 : 	}

  0001b	c9		 leave
  0001c	c2 04 00	 ret	 4
??D?$CEncrypt@M@@QAEMABM@Z ENDP				; CEncrypt<float>::operator*
_TEXT	ENDS
PUBLIC	??M?$CEncrypt@M@@QAE_NABM@Z			; CEncrypt<float>::operator<
; Function compile flags: /Ogsp
;	COMDAT ??M?$CEncrypt@M@@QAE_NABM@Z
_TEXT	SEGMENT
_value$ = -4						; size = 4
_inValue$ = 8						; size = 4
??M?$CEncrypt@M@@QAE_NABM@Z PROC			; CEncrypt<float>::operator<, COMDAT
; _this$ = ecx

; 1791 : 	{

  00000	55		 push	 ebp
  00001	8b ec		 mov	 ebp, esp
  00003	51		 push	 ecx

; 1792 : 		type value;
; 1793 : 		DecryptValueToPool(&value);

  00004	8d 45 fc	 lea	 eax, DWORD PTR _value$[ebp]
  00007	50		 push	 eax
  00008	e8 00 00 00 00	 call	 ?DecryptValueToPool@?$CEncrypt@M@@QAEXPAM@Z ; CEncrypt<float>::DecryptValueToPool

; 1794 : #ifdef _NOTUSE
; 1795 : 		Debug();
; 1796 : #endif
; 1797 : 		return (value < inValue);

  0000d	8b 45 08	 mov	 eax, DWORD PTR _inValue$[ebp]
  00010	f3 0f 10 08	 movss	 xmm1, DWORD PTR [eax]
  00014	f3 0f 10 45 fc	 movss	 xmm0, DWORD PTR _value$[ebp]
  00019	0f 5a c0	 cvtps2pd xmm0, xmm0
  0001c	0f 5a c9	 cvtps2pd xmm1, xmm1
  0001f	33 c0		 xor	 eax, eax
  00021	66 0f 2f c8	 comisd	 xmm1, xmm0
  00025	76 01		 jbe	 SHORT $LN4@operator@2
  00027	40		 inc	 eax
$LN4@operator@2:

; 1798 : 	} 

  00028	c9		 leave
  00029	c2 04 00	 ret	 4
??M?$CEncrypt@M@@QAE_NABM@Z ENDP			; CEncrypt<float>::operator<
_TEXT	ENDS
PUBLIC	??P?$CEncrypt@M@@QAE_NABM@Z			; CEncrypt<float>::operator>=
; Function compile flags: /Ogsp
;	COMDAT ??P?$CEncrypt@M@@QAE_NABM@Z
_TEXT	SEGMENT
_value$ = -4						; size = 4
_inValue$ = 8						; size = 4
??P?$CEncrypt@M@@QAE_NABM@Z PROC			; CEncrypt<float>::operator>=, COMDAT
; _this$ = ecx

; 1831 : 	{

  00000	55		 push	 ebp
  00001	8b ec		 mov	 ebp, esp
  00003	51		 push	 ecx

; 1832 : 		type value;
; 1833 : 		DecryptValueToPool(&value);

  00004	8d 45 fc	 lea	 eax, DWORD PTR _value$[ebp]
  00007	50		 push	 eax
  00008	e8 00 00 00 00	 call	 ?DecryptValueToPool@?$CEncrypt@M@@QAEXPAM@Z ; CEncrypt<float>::DecryptValueToPool

; 1834 : #ifdef _NOTUSE
; 1835 : 		Debug();
; 1836 : #endif
; 1837 : 		return (value >= inValue);

  0000d	8b 45 08	 mov	 eax, DWORD PTR _inValue$[ebp]
  00010	f3 0f 10 08	 movss	 xmm1, DWORD PTR [eax]
  00014	f3 0f 10 45 fc	 movss	 xmm0, DWORD PTR _value$[ebp]
  00019	0f 5a c0	 cvtps2pd xmm0, xmm0
  0001c	0f 5a c9	 cvtps2pd xmm1, xmm1
  0001f	33 c0		 xor	 eax, eax
  00021	66 0f 2f c1	 comisd	 xmm0, xmm1
  00025	72 01		 jb	 SHORT $LN4@operator@3
  00027	40		 inc	 eax
$LN4@operator@3:

; 1838 : 	}		

  00028	c9		 leave
  00029	c2 04 00	 ret	 4
??P?$CEncrypt@M@@QAE_NABM@Z ENDP			; CEncrypt<float>::operator>=
_TEXT	ENDS
PUBLIC	??B?$CEncrypt@W4JumpState@@@@QBE?AW4JumpState@@XZ ; CEncrypt<enum JumpState>::operator enum JumpState
; Function compile flags: /Ogsp
;	COMDAT ??B?$CEncrypt@W4JumpState@@@@QBE?AW4JumpState@@XZ
_TEXT	SEGMENT
_value$ = -4						; size = 4
??B?$CEncrypt@W4JumpState@@@@QBE?AW4JumpState@@XZ PROC	; CEncrypt<enum JumpState>::operator enum JumpState, COMDAT
; _this$ = ecx

; 145  : 	{

  00000	55		 push	 ebp
  00001	8b ec		 mov	 ebp, esp
  00003	51		 push	 ecx

; 146  : 		//UJ 130829, const    --start
; 147  : 		type value;
; 148  : 		CEncrypt<type>* pThis = const_cast<CEncrypt<type>*>(this);
; 149  : 		pThis->DecryptValueToPool(&value);

  00004	8d 45 fc	 lea	 eax, DWORD PTR _value$[ebp]
  00007	50		 push	 eax
  00008	e8 00 00 00 00	 call	 ?DecryptValueToPool@?$CEncrypt@W4JumpState@@@@QAEXPAW4JumpState@@@Z ; CEncrypt<enum JumpState>::DecryptValueToPool

; 150  : 		//// const DecryptValueToPool     .
; 151  :  		//type value;
; 152  : 		//char szTempMem[MAX_ENCRYPT];
; 153  : 		//m_RC5.DecryptByte( m_MemPool, szTempMem, max(m_ValueSize, DEFAULT_ENCRYPT) );
; 154  : 		//memcpy( &value, szTempMem, m_ValueSize );
; 155  : 		//UJ --end
; 156  : 
; 157  : #ifdef _NOTUSE
; 158  : 		Debug();
; 159  : #endif
; 160  : 		return value;

  0000d	8b 45 fc	 mov	 eax, DWORD PTR _value$[ebp]

; 161  : 	}

  00010	c9		 leave
  00011	c3		 ret	 0
??B?$CEncrypt@W4JumpState@@@@QBE?AW4JumpState@@XZ ENDP	; CEncrypt<enum JumpState>::operator enum JumpState
_TEXT	ENDS
PUBLIC	__$ArrayPad$
PUBLIC	??$LoadFloat_e@$09@ioINILoader@@QAEMAAY09$$CBDM@Z ; ioINILoader::LoadFloat_e<10>
EXTRN	__imp_?LoadFloat@ioINILoader@@QAEMPBDM@Z:PROC
; Function compile flags: /Ogsp
; File d:\lost saga for developer\youtube\tutorial\source\src\io3dengine\ioiniloader.h
;	COMDAT ??$LoadFloat_e@$09@ioINILoader@@QAEMAAY09$$CBDM@Z
_TEXT	SEGMENT
__k$ = -20						; size = 10
__$ArrayPad$ = -4					; size = 4
_k$ = 8							; size = 4
_f$ = 12						; size = 4
??$LoadFloat_e@$09@ioINILoader@@QAEMAAY09$$CBDM@Z PROC	; ioINILoader::LoadFloat_e<10>, COMDAT
; _this$ = ecx

; 135  : 	{

  00000	55		 push	 ebp
  00001	8b ec		 mov	 ebp, esp
  00003	83 ec 14	 sub	 esp, 20			; 00000014H
  00006	a1 00 00 00 00	 mov	 eax, DWORD PTR ___security_cookie
  0000b	33 c5		 xor	 eax, ebp
  0000d	89 45 fc	 mov	 DWORD PTR __$ArrayPad$[ebp], eax
  00010	8b 45 08	 mov	 eax, DWORD PTR _k$[ebp]

; 136  : 		_ENCSTR(k, _k);

  00013	8a 10		 mov	 dl, BYTE PTR [eax]
  00015	84 d2		 test	 dl, dl
  00017	0f 84 0d 01 00
	00		 je	 $LN96@LoadFloat_
  0001d	80 f2 ed	 xor	 dl, -19			; ffffffedH
  00020	88 55 ec	 mov	 BYTE PTR __k$[ebp], dl
  00023	8a 50 01	 mov	 dl, BYTE PTR [eax+1]
  00026	84 d2		 test	 dl, dl
  00028	0f 84 f6 00 00
	00		 je	 $LN95@LoadFloat_
  0002e	80 f2 ec	 xor	 dl, -20			; ffffffecH
  00031	88 55 ed	 mov	 BYTE PTR __k$[ebp+1], dl
  00034	8a 50 02	 mov	 dl, BYTE PTR [eax+2]
  00037	84 d2		 test	 dl, dl
  00039	0f 84 df 00 00
	00		 je	 $LN94@LoadFloat_
  0003f	80 f2 eb	 xor	 dl, -21			; ffffffebH
  00042	88 55 ee	 mov	 BYTE PTR __k$[ebp+2], dl
  00045	8a 50 03	 mov	 dl, BYTE PTR [eax+3]
  00048	84 d2		 test	 dl, dl
  0004a	0f 84 c8 00 00
	00		 je	 $LN93@LoadFloat_
  00050	80 f2 ea	 xor	 dl, -22			; ffffffeaH
  00053	88 55 ef	 mov	 BYTE PTR __k$[ebp+3], dl
  00056	8a 50 04	 mov	 dl, BYTE PTR [eax+4]
  00059	84 d2		 test	 dl, dl
  0005b	0f 84 b1 00 00
	00		 je	 $LN92@LoadFloat_
  00061	80 f2 ed	 xor	 dl, -19			; ffffffedH
  00064	88 55 f0	 mov	 BYTE PTR __k$[ebp+4], dl
  00067	8a 50 05	 mov	 dl, BYTE PTR [eax+5]
  0006a	84 d2		 test	 dl, dl
  0006c	0f 84 9a 00 00
	00		 je	 $LN91@LoadFloat_
  00072	80 f2 ec	 xor	 dl, -20			; ffffffecH
  00075	88 55 f1	 mov	 BYTE PTR __k$[ebp+5], dl
  00078	8a 50 06	 mov	 dl, BYTE PTR [eax+6]
  0007b	84 d2		 test	 dl, dl
  0007d	0f 84 83 00 00
	00		 je	 $LN90@LoadFloat_
  00083	80 f2 eb	 xor	 dl, -21			; ffffffebH
  00086	88 55 f2	 mov	 BYTE PTR __k$[ebp+6], dl
  00089	8a 50 07	 mov	 dl, BYTE PTR [eax+7]
  0008c	84 d2		 test	 dl, dl
  0008e	74 70		 je	 SHORT $LN89@LoadFloat_
  00090	80 f2 ea	 xor	 dl, -22			; ffffffeaH
  00093	88 55 f3	 mov	 BYTE PTR __k$[ebp+7], dl
  00096	8a 50 08	 mov	 dl, BYTE PTR [eax+8]
  00099	84 d2		 test	 dl, dl
  0009b	74 5d		 je	 SHORT $LN88@LoadFloat_
  0009d	80 f2 ed	 xor	 dl, -19			; ffffffedH
  000a0	80 78 09 00	 cmp	 BYTE PTR [eax+9], 0
  000a4	88 55 f4	 mov	 BYTE PTR __k$[ebp+8], dl
  000a7	0f 84 81 00 00
	00		 je	 $LN1@LoadFloat_
  000ad	8a 50 0a	 mov	 dl, BYTE PTR [eax+10]
  000b0	84 d2		 test	 dl, dl
  000b2	74 40		 je	 SHORT $LN86@LoadFloat_
  000b4	80 f2 eb	 xor	 dl, -21			; ffffffebH
  000b7	88 55 f6	 mov	 BYTE PTR __k$[ebp+10], dl
  000ba	8a 50 0b	 mov	 dl, BYTE PTR [eax+11]
  000bd	84 d2		 test	 dl, dl
  000bf	74 2d		 je	 SHORT $LN85@LoadFloat_
  000c1	80 f2 ea	 xor	 dl, -22			; ffffffeaH
  000c4	88 55 f7	 mov	 BYTE PTR __k$[ebp+11], dl
  000c7	8a 50 0c	 mov	 dl, BYTE PTR [eax+12]
  000ca	84 d2		 test	 dl, dl
  000cc	74 1a		 je	 SHORT $LN84@LoadFloat_
  000ce	8a 40 0d	 mov	 al, BYTE PTR [eax+13]
  000d1	80 f2 ed	 xor	 dl, -19			; ffffffedH
  000d4	88 55 f8	 mov	 BYTE PTR __k$[ebp+12], dl
  000d7	84 c0		 test	 al, al
  000d9	74 07		 je	 SHORT $LN83@LoadFloat_
  000db	34 ec		 xor	 al, -20			; ffffffecH
  000dd	88 45 f9	 mov	 BYTE PTR __k$[ebp+13], al
  000e0	eb 4c		 jmp	 SHORT $LN1@LoadFloat_
$LN83@LoadFloat_:
  000e2	c6 45 f9 ec	 mov	 BYTE PTR __k$[ebp+13], -20 ; ffffffecH
  000e6	eb 46		 jmp	 SHORT $LN1@LoadFloat_
$LN84@LoadFloat_:
  000e8	c6 45 f8 ed	 mov	 BYTE PTR __k$[ebp+12], -19 ; ffffffedH
  000ec	eb 40		 jmp	 SHORT $LN1@LoadFloat_
$LN85@LoadFloat_:
  000ee	c6 45 f7 ea	 mov	 BYTE PTR __k$[ebp+11], -22 ; ffffffeaH
  000f2	eb 3a		 jmp	 SHORT $LN1@LoadFloat_
$LN86@LoadFloat_:
  000f4	c6 45 f6 eb	 mov	 BYTE PTR __k$[ebp+10], -21 ; ffffffebH
  000f8	eb 34		 jmp	 SHORT $LN1@LoadFloat_
$LN88@LoadFloat_:
  000fa	c6 45 f4 ed	 mov	 BYTE PTR __k$[ebp+8], -19 ; ffffffedH
  000fe	eb 2e		 jmp	 SHORT $LN1@LoadFloat_
$LN89@LoadFloat_:
  00100	c6 45 f3 ea	 mov	 BYTE PTR __k$[ebp+7], -22 ; ffffffeaH
  00104	eb 28		 jmp	 SHORT $LN1@LoadFloat_
$LN90@LoadFloat_:
  00106	c6 45 f2 eb	 mov	 BYTE PTR __k$[ebp+6], -21 ; ffffffebH
  0010a	eb 22		 jmp	 SHORT $LN1@LoadFloat_
$LN91@LoadFloat_:
  0010c	c6 45 f1 ec	 mov	 BYTE PTR __k$[ebp+5], -20 ; ffffffecH
  00110	eb 1c		 jmp	 SHORT $LN1@LoadFloat_
$LN92@LoadFloat_:
  00112	c6 45 f0 ed	 mov	 BYTE PTR __k$[ebp+4], -19 ; ffffffedH
  00116	eb 16		 jmp	 SHORT $LN1@LoadFloat_
$LN93@LoadFloat_:
  00118	c6 45 ef ea	 mov	 BYTE PTR __k$[ebp+3], -22 ; ffffffeaH
  0011c	eb 10		 jmp	 SHORT $LN1@LoadFloat_
$LN94@LoadFloat_:
  0011e	c6 45 ee eb	 mov	 BYTE PTR __k$[ebp+2], -21 ; ffffffebH
  00122	eb 0a		 jmp	 SHORT $LN1@LoadFloat_
$LN95@LoadFloat_:
  00124	c6 45 ed ec	 mov	 BYTE PTR __k$[ebp+1], -20 ; ffffffecH
  00128	eb 04		 jmp	 SHORT $LN1@LoadFloat_
$LN96@LoadFloat_:
  0012a	c6 45 ec ed	 mov	 BYTE PTR __k$[ebp], -19	; ffffffedH
$LN1@LoadFloat_:
  0012e	6a 02		 push	 2
  00130	8d 45 ec	 lea	 eax, DWORD PTR __k$[ebp]
  00133	c6 45 f5 00	 mov	 BYTE PTR __k$[ebp+9], 0
  00137	5a		 pop	 edx
$LL104@LoadFloat_:
  00138	81 30 ed ec eb
	ea		 xor	 DWORD PTR [eax], -353637139 ; eaebecedH
  0013e	83 c0 04	 add	 eax, 4
  00141	4a		 dec	 edx
  00142	75 f4		 jne	 SHORT $LL104@LoadFloat_

; 137  : 		return LoadFloat(_k, f);

  00144	f3 0f 10 45 0c	 movss	 xmm0, DWORD PTR _f$[ebp]
  00149	80 75 f4 ed	 xor	 BYTE PTR __k$[ebp+8], -19 ; ffffffedH
  0014d	51		 push	 ecx
  0014e	8d 45 ec	 lea	 eax, DWORD PTR __k$[ebp]
  00151	f3 0f 11 04 24	 movss	 DWORD PTR [esp], xmm0
  00156	50		 push	 eax
  00157	ff 15 00 00 00
	00		 call	 DWORD PTR __imp_?LoadFloat@ioINILoader@@QAEMPBDM@Z

; 138  : 	}

  0015d	8b 4d fc	 mov	 ecx, DWORD PTR __$ArrayPad$[ebp]
  00160	33 cd		 xor	 ecx, ebp
  00162	e8 00 00 00 00	 call	 @__security_check_cookie@4
  00167	c9		 leave
  00168	c2 08 00	 ret	 8
??$LoadFloat_e@$09@ioINILoader@@QAEMAAY09$$CBDM@Z ENDP	; ioINILoader::LoadFloat_e<10>
_TEXT	ENDS
PUBLIC	__$ArrayPad$
PUBLIC	??$LoadFloat_e@$0L@@ioINILoader@@QAEMAAY0L@$$CBDM@Z ; ioINILoader::LoadFloat_e<11>
; Function compile flags: /Ogsp
;	COMDAT ??$LoadFloat_e@$0L@@ioINILoader@@QAEMAAY0L@$$CBDM@Z
_TEXT	SEGMENT
__k$ = -20						; size = 11
__$ArrayPad$ = -4					; size = 4
_k$ = 8							; size = 4
_f$ = 12						; size = 4
??$LoadFloat_e@$0L@@ioINILoader@@QAEMAAY0L@$$CBDM@Z PROC ; ioINILoader::LoadFloat_e<11>, COMDAT
; _this$ = ecx

; 135  : 	{

  00000	55		 push	 ebp
  00001	8b ec		 mov	 ebp, esp
  00003	83 ec 14	 sub	 esp, 20			; 00000014H
  00006	a1 00 00 00 00	 mov	 eax, DWORD PTR ___security_cookie
  0000b	33 c5		 xor	 eax, ebp
  0000d	89 45 fc	 mov	 DWORD PTR __$ArrayPad$[ebp], eax
  00010	8b 45 08	 mov	 eax, DWORD PTR _k$[ebp]

; 136  : 		_ENCSTR(k, _k);

  00013	8a 10		 mov	 dl, BYTE PTR [eax]
  00015	56		 push	 esi
  00016	8b f1		 mov	 esi, ecx
  00018	84 d2		 test	 dl, dl
  0001a	0f 84 24 01 00
	00		 je	 $LN96@LoadFloat_@2
  00020	80 f2 ed	 xor	 dl, -19			; ffffffedH
  00023	88 55 ec	 mov	 BYTE PTR __k$[ebp], dl
  00026	8a 50 01	 mov	 dl, BYTE PTR [eax+1]
  00029	84 d2		 test	 dl, dl
  0002b	0f 84 0d 01 00
	00		 je	 $LN95@LoadFloat_@2
  00031	80 f2 ec	 xor	 dl, -20			; ffffffecH
  00034	88 55 ed	 mov	 BYTE PTR __k$[ebp+1], dl
  00037	8a 50 02	 mov	 dl, BYTE PTR [eax+2]
  0003a	84 d2		 test	 dl, dl
  0003c	0f 84 f6 00 00
	00		 je	 $LN94@LoadFloat_@2
  00042	80 f2 eb	 xor	 dl, -21			; ffffffebH
  00045	88 55 ee	 mov	 BYTE PTR __k$[ebp+2], dl
  00048	8a 50 03	 mov	 dl, BYTE PTR [eax+3]
  0004b	84 d2		 test	 dl, dl
  0004d	0f 84 df 00 00
	00		 je	 $LN93@LoadFloat_@2
  00053	80 f2 ea	 xor	 dl, -22			; ffffffeaH
  00056	88 55 ef	 mov	 BYTE PTR __k$[ebp+3], dl
  00059	8a 50 04	 mov	 dl, BYTE PTR [eax+4]
  0005c	84 d2		 test	 dl, dl
  0005e	0f 84 c8 00 00
	00		 je	 $LN92@LoadFloat_@2
  00064	80 f2 ed	 xor	 dl, -19			; ffffffedH
  00067	88 55 f0	 mov	 BYTE PTR __k$[ebp+4], dl
  0006a	8a 50 05	 mov	 dl, BYTE PTR [eax+5]
  0006d	84 d2		 test	 dl, dl
  0006f	0f 84 b1 00 00
	00		 je	 $LN91@LoadFloat_@2
  00075	80 f2 ec	 xor	 dl, -20			; ffffffecH
  00078	88 55 f1	 mov	 BYTE PTR __k$[ebp+5], dl
  0007b	8a 50 06	 mov	 dl, BYTE PTR [eax+6]
  0007e	84 d2		 test	 dl, dl
  00080	0f 84 9a 00 00
	00		 je	 $LN90@LoadFloat_@2
  00086	80 f2 eb	 xor	 dl, -21			; ffffffebH
  00089	88 55 f2	 mov	 BYTE PTR __k$[ebp+6], dl
  0008c	8a 50 07	 mov	 dl, BYTE PTR [eax+7]
  0008f	84 d2		 test	 dl, dl
  00091	0f 84 83 00 00
	00		 je	 $LN89@LoadFloat_@2
  00097	80 f2 ea	 xor	 dl, -22			; ffffffeaH
  0009a	88 55 f3	 mov	 BYTE PTR __k$[ebp+7], dl
  0009d	8a 50 08	 mov	 dl, BYTE PTR [eax+8]
  000a0	84 d2		 test	 dl, dl
  000a2	74 70		 je	 SHORT $LN88@LoadFloat_@2
  000a4	80 f2 ed	 xor	 dl, -19			; ffffffedH
  000a7	88 55 f4	 mov	 BYTE PTR __k$[ebp+8], dl
  000aa	8a 50 09	 mov	 dl, BYTE PTR [eax+9]
  000ad	84 d2		 test	 dl, dl
  000af	74 5d		 je	 SHORT $LN87@LoadFloat_@2
  000b1	80 f2 ec	 xor	 dl, -20			; ffffffecH
  000b4	80 78 0a 00	 cmp	 BYTE PTR [eax+10], 0
  000b8	88 55 f5	 mov	 BYTE PTR __k$[ebp+9], dl
  000bb	0f 84 87 00 00
	00		 je	 $LN1@LoadFloat_@2
  000c1	8a 50 0b	 mov	 dl, BYTE PTR [eax+11]
  000c4	84 d2		 test	 dl, dl
  000c6	74 40		 je	 SHORT $LN85@LoadFloat_@2
  000c8	80 f2 ea	 xor	 dl, -22			; ffffffeaH
  000cb	88 55 f7	 mov	 BYTE PTR __k$[ebp+11], dl
  000ce	8a 50 0c	 mov	 dl, BYTE PTR [eax+12]
  000d1	84 d2		 test	 dl, dl
  000d3	74 2d		 je	 SHORT $LN84@LoadFloat_@2
  000d5	80 f2 ed	 xor	 dl, -19			; ffffffedH
  000d8	88 55 f8	 mov	 BYTE PTR __k$[ebp+12], dl
  000db	8a 50 0d	 mov	 dl, BYTE PTR [eax+13]
  000de	84 d2		 test	 dl, dl
  000e0	74 1a		 je	 SHORT $LN83@LoadFloat_@2
  000e2	8a 40 0e	 mov	 al, BYTE PTR [eax+14]
  000e5	80 f2 ec	 xor	 dl, -20			; ffffffecH
  000e8	88 55 f9	 mov	 BYTE PTR __k$[ebp+13], dl
  000eb	84 c0		 test	 al, al
  000ed	74 07		 je	 SHORT $LN82@LoadFloat_@2
  000ef	34 eb		 xor	 al, -21			; ffffffebH
  000f1	88 45 fa	 mov	 BYTE PTR __k$[ebp+14], al
  000f4	eb 52		 jmp	 SHORT $LN1@LoadFloat_@2
$LN82@LoadFloat_@2:
  000f6	c6 45 fa eb	 mov	 BYTE PTR __k$[ebp+14], -21 ; ffffffebH
  000fa	eb 4c		 jmp	 SHORT $LN1@LoadFloat_@2
$LN83@LoadFloat_@2:
  000fc	c6 45 f9 ec	 mov	 BYTE PTR __k$[ebp+13], -20 ; ffffffecH
  00100	eb 46		 jmp	 SHORT $LN1@LoadFloat_@2
$LN84@LoadFloat_@2:
  00102	c6 45 f8 ed	 mov	 BYTE PTR __k$[ebp+12], -19 ; ffffffedH
  00106	eb 40		 jmp	 SHORT $LN1@LoadFloat_@2
$LN85@LoadFloat_@2:
  00108	c6 45 f7 ea	 mov	 BYTE PTR __k$[ebp+11], -22 ; ffffffeaH
  0010c	eb 3a		 jmp	 SHORT $LN1@LoadFloat_@2
$LN87@LoadFloat_@2:
  0010e	c6 45 f5 ec	 mov	 BYTE PTR __k$[ebp+9], -20 ; ffffffecH
  00112	eb 34		 jmp	 SHORT $LN1@LoadFloat_@2
$LN88@LoadFloat_@2:
  00114	c6 45 f4 ed	 mov	 BYTE PTR __k$[ebp+8], -19 ; ffffffedH
  00118	eb 2e		 jmp	 SHORT $LN1@LoadFloat_@2
$LN89@LoadFloat_@2:
  0011a	c6 45 f3 ea	 mov	 BYTE PTR __k$[ebp+7], -22 ; ffffffeaH
  0011e	eb 28		 jmp	 SHORT $LN1@LoadFloat_@2
$LN90@LoadFloat_@2:
  00120	c6 45 f2 eb	 mov	 BYTE PTR __k$[ebp+6], -21 ; ffffffebH
  00124	eb 22		 jmp	 SHORT $LN1@LoadFloat_@2
$LN91@LoadFloat_@2:
  00126	c6 45 f1 ec	 mov	 BYTE PTR __k$[ebp+5], -20 ; ffffffecH
  0012a	eb 1c		 jmp	 SHORT $LN1@LoadFloat_@2
$LN92@LoadFloat_@2:
  0012c	c6 45 f0 ed	 mov	 BYTE PTR __k$[ebp+4], -19 ; ffffffedH
  00130	eb 16		 jmp	 SHORT $LN1@LoadFloat_@2
$LN93@LoadFloat_@2:
  00132	c6 45 ef ea	 mov	 BYTE PTR __k$[ebp+3], -22 ; ffffffeaH
  00136	eb 10		 jmp	 SHORT $LN1@LoadFloat_@2
$LN94@LoadFloat_@2:
  00138	c6 45 ee eb	 mov	 BYTE PTR __k$[ebp+2], -21 ; ffffffebH
  0013c	eb 0a		 jmp	 SHORT $LN1@LoadFloat_@2
$LN95@LoadFloat_@2:
  0013e	c6 45 ed ec	 mov	 BYTE PTR __k$[ebp+1], -20 ; ffffffecH
  00142	eb 04		 jmp	 SHORT $LN1@LoadFloat_@2
$LN96@LoadFloat_@2:
  00144	c6 45 ec ed	 mov	 BYTE PTR __k$[ebp], -19	; ffffffedH
$LN1@LoadFloat_@2:
  00148	6a 02		 push	 2
  0014a	8d 45 ec	 lea	 eax, DWORD PTR __k$[ebp]
  0014d	c6 45 f6 00	 mov	 BYTE PTR __k$[ebp+10], 0
  00151	5a		 pop	 edx
$LL104@LoadFloat_@2:
  00152	81 30 ed ec eb
	ea		 xor	 DWORD PTR [eax], -353637139 ; eaebecedH
  00158	83 c0 04	 add	 eax, 4
  0015b	4a		 dec	 edx
  0015c	75 f4		 jne	 SHORT $LL104@LoadFloat_@2
  0015e	6a 08		 push	 8
  00160	58		 pop	 eax
$LL101@LoadFloat_@2:
  00161	8b c8		 mov	 ecx, eax
  00163	81 e1 03 00 00
	80		 and	 ecx, -2147483645	; 80000003H
  00169	79 05		 jns	 SHORT $LN111@LoadFloat_@2
  0016b	49		 dec	 ecx
  0016c	83 c9 fc	 or	 ecx, -4			; fffffffcH
  0016f	41		 inc	 ecx
$LN111@LoadFloat_@2:
  00170	b2 ed		 mov	 dl, -19			; ffffffedH
  00172	2a d1		 sub	 dl, cl
  00174	30 54 05 ec	 xor	 BYTE PTR __k$[ebp+eax], dl
  00178	40		 inc	 eax
  00179	83 f8 0a	 cmp	 eax, 10			; 0000000aH
  0017c	7c e3		 jl	 SHORT $LL101@LoadFloat_@2

; 137  : 		return LoadFloat(_k, f);

  0017e	f3 0f 10 45 0c	 movss	 xmm0, DWORD PTR _f$[ebp]
  00183	51		 push	 ecx
  00184	8d 45 ec	 lea	 eax, DWORD PTR __k$[ebp]
  00187	f3 0f 11 04 24	 movss	 DWORD PTR [esp], xmm0
  0018c	50		 push	 eax
  0018d	8b ce		 mov	 ecx, esi
  0018f	ff 15 00 00 00
	00		 call	 DWORD PTR __imp_?LoadFloat@ioINILoader@@QAEMPBDM@Z

; 138  : 	}

  00195	8b 4d fc	 mov	 ecx, DWORD PTR __$ArrayPad$[ebp]
  00198	33 cd		 xor	 ecx, ebp
  0019a	5e		 pop	 esi
  0019b	e8 00 00 00 00	 call	 @__security_check_cookie@4
  001a0	c9		 leave
  001a1	c2 08 00	 ret	 8
??$LoadFloat_e@$0L@@ioINILoader@@QAEMAAY0L@$$CBDM@Z ENDP ; ioINILoader::LoadFloat_e<11>
_TEXT	ENDS
PUBLIC	__$ArrayPad$
PUBLIC	??$LoadFloat_e@$0P@@ioINILoader@@QAEMAAY0P@$$CBDM@Z ; ioINILoader::LoadFloat_e<15>
; Function compile flags: /Ogsp
;	COMDAT ??$LoadFloat_e@$0P@@ioINILoader@@QAEMAAY0P@$$CBDM@Z
_TEXT	SEGMENT
__k$ = -24						; size = 15
__$ArrayPad$ = -4					; size = 4
_k$ = 8							; size = 4
_f$ = 12						; size = 4
??$LoadFloat_e@$0P@@ioINILoader@@QAEMAAY0P@$$CBDM@Z PROC ; ioINILoader::LoadFloat_e<15>, COMDAT
; _this$ = ecx

; 135  : 	{

  00000	55		 push	 ebp
  00001	8b ec		 mov	 ebp, esp
  00003	83 ec 18	 sub	 esp, 24			; 00000018H
  00006	a1 00 00 00 00	 mov	 eax, DWORD PTR ___security_cookie
  0000b	33 c5		 xor	 eax, ebp
  0000d	89 45 fc	 mov	 DWORD PTR __$ArrayPad$[ebp], eax
  00010	8b 45 08	 mov	 eax, DWORD PTR _k$[ebp]

; 136  : 		_ENCSTR(k, _k);

  00013	8a 10		 mov	 dl, BYTE PTR [eax]
  00015	56		 push	 esi
  00016	8b f1		 mov	 esi, ecx
  00018	84 d2		 test	 dl, dl
  0001a	0f 84 75 01 00
	00		 je	 $LN96@LoadFloat_@3
  00020	80 f2 ed	 xor	 dl, -19			; ffffffedH
  00023	88 55 e8	 mov	 BYTE PTR __k$[ebp], dl
  00026	8a 50 01	 mov	 dl, BYTE PTR [eax+1]
  00029	84 d2		 test	 dl, dl
  0002b	0f 84 5e 01 00
	00		 je	 $LN95@LoadFloat_@3
  00031	b1 ec		 mov	 cl, -20			; ffffffecH
  00033	32 d1		 xor	 dl, cl
  00035	88 55 e9	 mov	 BYTE PTR __k$[ebp+1], dl
  00038	8a 50 02	 mov	 dl, BYTE PTR [eax+2]
  0003b	84 d2		 test	 dl, dl
  0003d	0f 84 46 01 00
	00		 je	 $LN94@LoadFloat_@3
  00043	80 f2 eb	 xor	 dl, -21			; ffffffebH
  00046	88 55 ea	 mov	 BYTE PTR __k$[ebp+2], dl
  00049	8a 50 03	 mov	 dl, BYTE PTR [eax+3]
  0004c	84 d2		 test	 dl, dl
  0004e	0f 84 2f 01 00
	00		 je	 $LN93@LoadFloat_@3
  00054	80 f2 ea	 xor	 dl, -22			; ffffffeaH
  00057	88 55 eb	 mov	 BYTE PTR __k$[ebp+3], dl
  0005a	8a 50 04	 mov	 dl, BYTE PTR [eax+4]
  0005d	84 d2		 test	 dl, dl
  0005f	0f 84 18 01 00
	00		 je	 $LN92@LoadFloat_@3
  00065	80 f2 ed	 xor	 dl, -19			; ffffffedH
  00068	88 55 ec	 mov	 BYTE PTR __k$[ebp+4], dl
  0006b	8a 50 05	 mov	 dl, BYTE PTR [eax+5]
  0006e	84 d2		 test	 dl, dl
  00070	0f 84 02 01 00
	00		 je	 $LN91@LoadFloat_@3
  00076	32 d1		 xor	 dl, cl
  00078	88 55 ed	 mov	 BYTE PTR __k$[ebp+5], dl
  0007b	8a 50 06	 mov	 dl, BYTE PTR [eax+6]
  0007e	84 d2		 test	 dl, dl
  00080	0f 84 ec 00 00
	00		 je	 $LN90@LoadFloat_@3
  00086	80 f2 eb	 xor	 dl, -21			; ffffffebH
  00089	88 55 ee	 mov	 BYTE PTR __k$[ebp+6], dl
  0008c	8a 50 07	 mov	 dl, BYTE PTR [eax+7]
  0008f	84 d2		 test	 dl, dl
  00091	0f 84 d5 00 00
	00		 je	 $LN89@LoadFloat_@3
  00097	80 f2 ea	 xor	 dl, -22			; ffffffeaH
  0009a	88 55 ef	 mov	 BYTE PTR __k$[ebp+7], dl
  0009d	8a 50 08	 mov	 dl, BYTE PTR [eax+8]
  000a0	84 d2		 test	 dl, dl
  000a2	0f 84 be 00 00
	00		 je	 $LN88@LoadFloat_@3
  000a8	80 f2 ed	 xor	 dl, -19			; ffffffedH
  000ab	88 55 f0	 mov	 BYTE PTR __k$[ebp+8], dl
  000ae	8a 50 09	 mov	 dl, BYTE PTR [eax+9]
  000b1	84 d2		 test	 dl, dl
  000b3	0f 84 a8 00 00
	00		 je	 $LN87@LoadFloat_@3
  000b9	32 d1		 xor	 dl, cl
  000bb	88 55 f1	 mov	 BYTE PTR __k$[ebp+9], dl
  000be	8a 50 0a	 mov	 dl, BYTE PTR [eax+10]
  000c1	84 d2		 test	 dl, dl
  000c3	0f 84 92 00 00
	00		 je	 $LN86@LoadFloat_@3
  000c9	80 f2 eb	 xor	 dl, -21			; ffffffebH
  000cc	88 55 f2	 mov	 BYTE PTR __k$[ebp+10], dl
  000cf	8a 50 0b	 mov	 dl, BYTE PTR [eax+11]
  000d2	84 d2		 test	 dl, dl
  000d4	74 7f		 je	 SHORT $LN85@LoadFloat_@3
  000d6	80 f2 ea	 xor	 dl, -22			; ffffffeaH
  000d9	88 55 f3	 mov	 BYTE PTR __k$[ebp+11], dl
  000dc	8a 50 0c	 mov	 dl, BYTE PTR [eax+12]
  000df	84 d2		 test	 dl, dl
  000e1	74 6c		 je	 SHORT $LN84@LoadFloat_@3
  000e3	80 f2 ed	 xor	 dl, -19			; ffffffedH
  000e6	88 55 f4	 mov	 BYTE PTR __k$[ebp+12], dl
  000e9	8a 50 0d	 mov	 dl, BYTE PTR [eax+13]
  000ec	84 d2		 test	 dl, dl
  000ee	74 5a		 je	 SHORT $LN83@LoadFloat_@3
  000f0	32 d1		 xor	 dl, cl
  000f2	80 78 0e 00	 cmp	 BYTE PTR [eax+14], 0
  000f6	88 55 f5	 mov	 BYTE PTR __k$[ebp+13], dl
  000f9	0f 84 9a 00 00
	00		 je	 $LN1@LoadFloat_@3
  000ff	8a 50 0f	 mov	 dl, BYTE PTR [eax+15]
  00102	84 d2		 test	 dl, dl
  00104	74 3e		 je	 SHORT $LN81@LoadFloat_@3
  00106	80 f2 ea	 xor	 dl, -22			; ffffffeaH
  00109	88 55 f7	 mov	 BYTE PTR __k$[ebp+15], dl
  0010c	8a 50 10	 mov	 dl, BYTE PTR [eax+16]
  0010f	84 d2		 test	 dl, dl
  00111	74 2b		 je	 SHORT $LN80@LoadFloat_@3
  00113	80 f2 ed	 xor	 dl, -19			; ffffffedH
  00116	88 55 f8	 mov	 BYTE PTR __k$[ebp+16], dl
  00119	8a 50 11	 mov	 dl, BYTE PTR [eax+17]
  0011c	84 d2		 test	 dl, dl
  0011e	74 19		 je	 SHORT $LN79@LoadFloat_@3
  00120	8a 40 12	 mov	 al, BYTE PTR [eax+18]
  00123	32 d1		 xor	 dl, cl
  00125	88 55 f9	 mov	 BYTE PTR __k$[ebp+17], dl
  00128	84 c0		 test	 al, al
  0012a	74 07		 je	 SHORT $LN78@LoadFloat_@3
  0012c	34 eb		 xor	 al, -21			; ffffffebH
  0012e	88 45 fa	 mov	 BYTE PTR __k$[ebp+18], al
  00131	eb 66		 jmp	 SHORT $LN1@LoadFloat_@3
$LN78@LoadFloat_@3:
  00133	c6 45 fa eb	 mov	 BYTE PTR __k$[ebp+18], -21 ; ffffffebH
  00137	eb 60		 jmp	 SHORT $LN1@LoadFloat_@3
$LN79@LoadFloat_@3:
  00139	88 4d f9	 mov	 BYTE PTR __k$[ebp+17], cl
  0013c	eb 5b		 jmp	 SHORT $LN1@LoadFloat_@3
$LN80@LoadFloat_@3:
  0013e	c6 45 f8 ed	 mov	 BYTE PTR __k$[ebp+16], -19 ; ffffffedH
  00142	eb 55		 jmp	 SHORT $LN1@LoadFloat_@3
$LN81@LoadFloat_@3:
  00144	c6 45 f7 ea	 mov	 BYTE PTR __k$[ebp+15], -22 ; ffffffeaH
  00148	eb 4f		 jmp	 SHORT $LN1@LoadFloat_@3
$LN83@LoadFloat_@3:
  0014a	88 4d f5	 mov	 BYTE PTR __k$[ebp+13], cl
  0014d	eb 4a		 jmp	 SHORT $LN1@LoadFloat_@3
$LN84@LoadFloat_@3:
  0014f	c6 45 f4 ed	 mov	 BYTE PTR __k$[ebp+12], -19 ; ffffffedH
  00153	eb 44		 jmp	 SHORT $LN1@LoadFloat_@3
$LN85@LoadFloat_@3:
  00155	c6 45 f3 ea	 mov	 BYTE PTR __k$[ebp+11], -22 ; ffffffeaH
  00159	eb 3e		 jmp	 SHORT $LN1@LoadFloat_@3
$LN86@LoadFloat_@3:
  0015b	c6 45 f2 eb	 mov	 BYTE PTR __k$[ebp+10], -21 ; ffffffebH
  0015f	eb 38		 jmp	 SHORT $LN1@LoadFloat_@3
$LN87@LoadFloat_@3:
  00161	88 4d f1	 mov	 BYTE PTR __k$[ebp+9], cl
  00164	eb 33		 jmp	 SHORT $LN1@LoadFloat_@3
$LN88@LoadFloat_@3:
  00166	c6 45 f0 ed	 mov	 BYTE PTR __k$[ebp+8], -19 ; ffffffedH
  0016a	eb 2d		 jmp	 SHORT $LN1@LoadFloat_@3
$LN89@LoadFloat_@3:
  0016c	c6 45 ef ea	 mov	 BYTE PTR __k$[ebp+7], -22 ; ffffffeaH
  00170	eb 27		 jmp	 SHORT $LN1@LoadFloat_@3
$LN90@LoadFloat_@3:
  00172	c6 45 ee eb	 mov	 BYTE PTR __k$[ebp+6], -21 ; ffffffebH
  00176	eb 21		 jmp	 SHORT $LN1@LoadFloat_@3
$LN91@LoadFloat_@3:
  00178	88 4d ed	 mov	 BYTE PTR __k$[ebp+5], cl
  0017b	eb 1c		 jmp	 SHORT $LN1@LoadFloat_@3
$LN92@LoadFloat_@3:
  0017d	c6 45 ec ed	 mov	 BYTE PTR __k$[ebp+4], -19 ; ffffffedH
  00181	eb 16		 jmp	 SHORT $LN1@LoadFloat_@3
$LN93@LoadFloat_@3:
  00183	c6 45 eb ea	 mov	 BYTE PTR __k$[ebp+3], -22 ; ffffffeaH
  00187	eb 10		 jmp	 SHORT $LN1@LoadFloat_@3
$LN94@LoadFloat_@3:
  00189	c6 45 ea eb	 mov	 BYTE PTR __k$[ebp+2], -21 ; ffffffebH
  0018d	eb 0a		 jmp	 SHORT $LN1@LoadFloat_@3
$LN95@LoadFloat_@3:
  0018f	c6 45 e9 ec	 mov	 BYTE PTR __k$[ebp+1], -20 ; ffffffecH
  00193	eb 04		 jmp	 SHORT $LN1@LoadFloat_@3
$LN96@LoadFloat_@3:
  00195	c6 45 e8 ed	 mov	 BYTE PTR __k$[ebp], -19	; ffffffedH
$LN1@LoadFloat_@3:
  00199	6a 03		 push	 3
  0019b	8d 45 e8	 lea	 eax, DWORD PTR __k$[ebp]
  0019e	c6 45 f6 00	 mov	 BYTE PTR __k$[ebp+14], 0
  001a2	5a		 pop	 edx
$LL104@LoadFloat_@3:
  001a3	81 30 ed ec eb
	ea		 xor	 DWORD PTR [eax], -353637139 ; eaebecedH
  001a9	83 c0 04	 add	 eax, 4
  001ac	4a		 dec	 edx
  001ad	75 f4		 jne	 SHORT $LL104@LoadFloat_@3
  001af	6a 0c		 push	 12			; 0000000cH
  001b1	58		 pop	 eax
$LL101@LoadFloat_@3:
  001b2	8b c8		 mov	 ecx, eax
  001b4	81 e1 03 00 00
	80		 and	 ecx, -2147483645	; 80000003H
  001ba	79 05		 jns	 SHORT $LN111@LoadFloat_@3
  001bc	49		 dec	 ecx
  001bd	83 c9 fc	 or	 ecx, -4			; fffffffcH
  001c0	41		 inc	 ecx
$LN111@LoadFloat_@3:
  001c1	b2 ed		 mov	 dl, -19			; ffffffedH
  001c3	2a d1		 sub	 dl, cl
  001c5	30 54 05 e8	 xor	 BYTE PTR __k$[ebp+eax], dl
  001c9	40		 inc	 eax
  001ca	83 f8 0e	 cmp	 eax, 14			; 0000000eH
  001cd	7c e3		 jl	 SHORT $LL101@LoadFloat_@3

; 137  : 		return LoadFloat(_k, f);

  001cf	f3 0f 10 45 0c	 movss	 xmm0, DWORD PTR _f$[ebp]
  001d4	51		 push	 ecx
  001d5	8d 45 e8	 lea	 eax, DWORD PTR __k$[ebp]
  001d8	f3 0f 11 04 24	 movss	 DWORD PTR [esp], xmm0
  001dd	50		 push	 eax
  001de	8b ce		 mov	 ecx, esi
  001e0	ff 15 00 00 00
	00		 call	 DWORD PTR __imp_?LoadFloat@ioINILoader@@QAEMPBDM@Z

; 138  : 	}

  001e6	8b 4d fc	 mov	 ecx, DWORD PTR __$ArrayPad$[ebp]
  001e9	33 cd		 xor	 ecx, ebp
  001eb	5e		 pop	 esi
  001ec	e8 00 00 00 00	 call	 @__security_check_cookie@4
  001f1	c9		 leave
  001f2	c2 08 00	 ret	 8
??$LoadFloat_e@$0P@@ioINILoader@@QAEMAAY0P@$$CBDM@Z ENDP ; ioINILoader::LoadFloat_e<15>
_TEXT	ENDS
PUBLIC	__$ArrayPad$
PUBLIC	??$LoadFloat_e@$0BA@@ioINILoader@@QAEMAAY0BA@$$CBDM@Z ; ioINILoader::LoadFloat_e<16>
; Function compile flags: /Ogsp
;	COMDAT ??$LoadFloat_e@$0BA@@ioINILoader@@QAEMAAY0BA@$$CBDM@Z
_TEXT	SEGMENT
__k$ = -24						; size = 16
__$ArrayPad$ = -4					; size = 4
_k$ = 8							; size = 4
_f$ = 12						; size = 4
??$LoadFloat_e@$0BA@@ioINILoader@@QAEMAAY0BA@$$CBDM@Z PROC ; ioINILoader::LoadFloat_e<16>, COMDAT
; _this$ = ecx

; 135  : 	{

  00000	55		 push	 ebp
  00001	8b ec		 mov	 ebp, esp
  00003	83 ec 18	 sub	 esp, 24			; 00000018H
  00006	a1 00 00 00 00	 mov	 eax, DWORD PTR ___security_cookie
  0000b	33 c5		 xor	 eax, ebp
  0000d	89 45 fc	 mov	 DWORD PTR __$ArrayPad$[ebp], eax
  00010	8b 45 08	 mov	 eax, DWORD PTR _k$[ebp]

; 136  : 		_ENCSTR(k, _k);

  00013	8a 10		 mov	 dl, BYTE PTR [eax]
  00015	56		 push	 esi
  00016	8b f1		 mov	 esi, ecx
  00018	84 d2		 test	 dl, dl
  0001a	0f 84 8c 01 00
	00		 je	 $LN96@LoadFloat_@4
  00020	80 f2 ed	 xor	 dl, -19			; ffffffedH
  00023	88 55 e8	 mov	 BYTE PTR __k$[ebp], dl
  00026	8a 50 01	 mov	 dl, BYTE PTR [eax+1]
  00029	84 d2		 test	 dl, dl
  0002b	0f 84 75 01 00
	00		 je	 $LN95@LoadFloat_@4
  00031	80 f2 ec	 xor	 dl, -20			; ffffffecH
  00034	88 55 e9	 mov	 BYTE PTR __k$[ebp+1], dl
  00037	8a 50 02	 mov	 dl, BYTE PTR [eax+2]
  0003a	84 d2		 test	 dl, dl
  0003c	0f 84 5e 01 00
	00		 je	 $LN94@LoadFloat_@4
  00042	b1 eb		 mov	 cl, -21			; ffffffebH
  00044	32 d1		 xor	 dl, cl
  00046	88 55 ea	 mov	 BYTE PTR __k$[ebp+2], dl
  00049	8a 50 03	 mov	 dl, BYTE PTR [eax+3]
  0004c	84 d2		 test	 dl, dl
  0004e	0f 84 46 01 00
	00		 je	 $LN93@LoadFloat_@4
  00054	80 f2 ea	 xor	 dl, -22			; ffffffeaH
  00057	88 55 eb	 mov	 BYTE PTR __k$[ebp+3], dl
  0005a	8a 50 04	 mov	 dl, BYTE PTR [eax+4]
  0005d	84 d2		 test	 dl, dl
  0005f	0f 84 2f 01 00
	00		 je	 $LN92@LoadFloat_@4
  00065	80 f2 ed	 xor	 dl, -19			; ffffffedH
  00068	88 55 ec	 mov	 BYTE PTR __k$[ebp+4], dl
  0006b	8a 50 05	 mov	 dl, BYTE PTR [eax+5]
  0006e	84 d2		 test	 dl, dl
  00070	0f 84 18 01 00
	00		 je	 $LN91@LoadFloat_@4
  00076	80 f2 ec	 xor	 dl, -20			; ffffffecH
  00079	88 55 ed	 mov	 BYTE PTR __k$[ebp+5], dl
  0007c	8a 50 06	 mov	 dl, BYTE PTR [eax+6]
  0007f	84 d2		 test	 dl, dl
  00081	0f 84 02 01 00
	00		 je	 $LN90@LoadFloat_@4
  00087	32 d1		 xor	 dl, cl
  00089	88 55 ee	 mov	 BYTE PTR __k$[ebp+6], dl
  0008c	8a 50 07	 mov	 dl, BYTE PTR [eax+7]
  0008f	84 d2		 test	 dl, dl
  00091	0f 84 ec 00 00
	00		 je	 $LN89@LoadFloat_@4
  00097	80 f2 ea	 xor	 dl, -22			; ffffffeaH
  0009a	88 55 ef	 mov	 BYTE PTR __k$[ebp+7], dl
  0009d	8a 50 08	 mov	 dl, BYTE PTR [eax+8]
  000a0	84 d2		 test	 dl, dl
  000a2	0f 84 d5 00 00
	00		 je	 $LN88@LoadFloat_@4
  000a8	80 f2 ed	 xor	 dl, -19			; ffffffedH
  000ab	88 55 f0	 mov	 BYTE PTR __k$[ebp+8], dl
  000ae	8a 50 09	 mov	 dl, BYTE PTR [eax+9]
  000b1	84 d2		 test	 dl, dl
  000b3	0f 84 be 00 00
	00		 je	 $LN87@LoadFloat_@4
  000b9	80 f2 ec	 xor	 dl, -20			; ffffffecH
  000bc	88 55 f1	 mov	 BYTE PTR __k$[ebp+9], dl
  000bf	8a 50 0a	 mov	 dl, BYTE PTR [eax+10]
  000c2	84 d2		 test	 dl, dl
  000c4	0f 84 a8 00 00
	00		 je	 $LN86@LoadFloat_@4
  000ca	32 d1		 xor	 dl, cl
  000cc	88 55 f2	 mov	 BYTE PTR __k$[ebp+10], dl
  000cf	8a 50 0b	 mov	 dl, BYTE PTR [eax+11]
  000d2	84 d2		 test	 dl, dl
  000d4	0f 84 92 00 00
	00		 je	 $LN85@LoadFloat_@4
  000da	80 f2 ea	 xor	 dl, -22			; ffffffeaH
  000dd	88 55 f3	 mov	 BYTE PTR __k$[ebp+11], dl
  000e0	8a 50 0c	 mov	 dl, BYTE PTR [eax+12]
  000e3	84 d2		 test	 dl, dl
  000e5	74 7f		 je	 SHORT $LN84@LoadFloat_@4
  000e7	80 f2 ed	 xor	 dl, -19			; ffffffedH
  000ea	88 55 f4	 mov	 BYTE PTR __k$[ebp+12], dl
  000ed	8a 50 0d	 mov	 dl, BYTE PTR [eax+13]
  000f0	84 d2		 test	 dl, dl
  000f2	74 6c		 je	 SHORT $LN83@LoadFloat_@4
  000f4	80 f2 ec	 xor	 dl, -20			; ffffffecH
  000f7	88 55 f5	 mov	 BYTE PTR __k$[ebp+13], dl
  000fa	8a 50 0e	 mov	 dl, BYTE PTR [eax+14]
  000fd	84 d2		 test	 dl, dl
  000ff	74 5a		 je	 SHORT $LN82@LoadFloat_@4
  00101	32 d1		 xor	 dl, cl
  00103	80 78 0f 00	 cmp	 BYTE PTR [eax+15], 0
  00107	88 55 f6	 mov	 BYTE PTR __k$[ebp+14], dl
  0010a	0f 84 a0 00 00
	00		 je	 $LN1@LoadFloat_@4
  00110	8a 50 10	 mov	 dl, BYTE PTR [eax+16]
  00113	84 d2		 test	 dl, dl
  00115	74 3e		 je	 SHORT $LN80@LoadFloat_@4
  00117	80 f2 ed	 xor	 dl, -19			; ffffffedH
  0011a	88 55 f8	 mov	 BYTE PTR __k$[ebp+16], dl
  0011d	8a 50 11	 mov	 dl, BYTE PTR [eax+17]
  00120	84 d2		 test	 dl, dl
  00122	74 2b		 je	 SHORT $LN79@LoadFloat_@4
  00124	80 f2 ec	 xor	 dl, -20			; ffffffecH
  00127	88 55 f9	 mov	 BYTE PTR __k$[ebp+17], dl
  0012a	8a 50 12	 mov	 dl, BYTE PTR [eax+18]
  0012d	84 d2		 test	 dl, dl
  0012f	74 19		 je	 SHORT $LN78@LoadFloat_@4
  00131	8a 40 13	 mov	 al, BYTE PTR [eax+19]
  00134	32 d1		 xor	 dl, cl
  00136	88 55 fa	 mov	 BYTE PTR __k$[ebp+18], dl
  00139	84 c0		 test	 al, al
  0013b	74 07		 je	 SHORT $LN77@LoadFloat_@4
  0013d	34 ea		 xor	 al, -22			; ffffffeaH
  0013f	88 45 fb	 mov	 BYTE PTR __k$[ebp+19], al
  00142	eb 6c		 jmp	 SHORT $LN1@LoadFloat_@4
$LN77@LoadFloat_@4:
  00144	c6 45 fb ea	 mov	 BYTE PTR __k$[ebp+19], -22 ; ffffffeaH
  00148	eb 66		 jmp	 SHORT $LN1@LoadFloat_@4
$LN78@LoadFloat_@4:
  0014a	88 4d fa	 mov	 BYTE PTR __k$[ebp+18], cl
  0014d	eb 61		 jmp	 SHORT $LN1@LoadFloat_@4
$LN79@LoadFloat_@4:
  0014f	c6 45 f9 ec	 mov	 BYTE PTR __k$[ebp+17], -20 ; ffffffecH
  00153	eb 5b		 jmp	 SHORT $LN1@LoadFloat_@4
$LN80@LoadFloat_@4:
  00155	c6 45 f8 ed	 mov	 BYTE PTR __k$[ebp+16], -19 ; ffffffedH
  00159	eb 55		 jmp	 SHORT $LN1@LoadFloat_@4
$LN82@LoadFloat_@4:
  0015b	88 4d f6	 mov	 BYTE PTR __k$[ebp+14], cl
  0015e	eb 50		 jmp	 SHORT $LN1@LoadFloat_@4
$LN83@LoadFloat_@4:
  00160	c6 45 f5 ec	 mov	 BYTE PTR __k$[ebp+13], -20 ; ffffffecH
  00164	eb 4a		 jmp	 SHORT $LN1@LoadFloat_@4
$LN84@LoadFloat_@4:
  00166	c6 45 f4 ed	 mov	 BYTE PTR __k$[ebp+12], -19 ; ffffffedH
  0016a	eb 44		 jmp	 SHORT $LN1@LoadFloat_@4
$LN85@LoadFloat_@4:
  0016c	c6 45 f3 ea	 mov	 BYTE PTR __k$[ebp+11], -22 ; ffffffeaH
  00170	eb 3e		 jmp	 SHORT $LN1@LoadFloat_@4
$LN86@LoadFloat_@4:
  00172	88 4d f2	 mov	 BYTE PTR __k$[ebp+10], cl
  00175	eb 39		 jmp	 SHORT $LN1@LoadFloat_@4
$LN87@LoadFloat_@4:
  00177	c6 45 f1 ec	 mov	 BYTE PTR __k$[ebp+9], -20 ; ffffffecH
  0017b	eb 33		 jmp	 SHORT $LN1@LoadFloat_@4
$LN88@LoadFloat_@4:
  0017d	c6 45 f0 ed	 mov	 BYTE PTR __k$[ebp+8], -19 ; ffffffedH
  00181	eb 2d		 jmp	 SHORT $LN1@LoadFloat_@4
$LN89@LoadFloat_@4:
  00183	c6 45 ef ea	 mov	 BYTE PTR __k$[ebp+7], -22 ; ffffffeaH
  00187	eb 27		 jmp	 SHORT $LN1@LoadFloat_@4
$LN90@LoadFloat_@4:
  00189	88 4d ee	 mov	 BYTE PTR __k$[ebp+6], cl
  0018c	eb 22		 jmp	 SHORT $LN1@LoadFloat_@4
$LN91@LoadFloat_@4:
  0018e	c6 45 ed ec	 mov	 BYTE PTR __k$[ebp+5], -20 ; ffffffecH
  00192	eb 1c		 jmp	 SHORT $LN1@LoadFloat_@4
$LN92@LoadFloat_@4:
  00194	c6 45 ec ed	 mov	 BYTE PTR __k$[ebp+4], -19 ; ffffffedH
  00198	eb 16		 jmp	 SHORT $LN1@LoadFloat_@4
$LN93@LoadFloat_@4:
  0019a	c6 45 eb ea	 mov	 BYTE PTR __k$[ebp+3], -22 ; ffffffeaH
  0019e	eb 10		 jmp	 SHORT $LN1@LoadFloat_@4
$LN94@LoadFloat_@4:
  001a0	c6 45 ea eb	 mov	 BYTE PTR __k$[ebp+2], -21 ; ffffffebH
  001a4	eb 0a		 jmp	 SHORT $LN1@LoadFloat_@4
$LN95@LoadFloat_@4:
  001a6	c6 45 e9 ec	 mov	 BYTE PTR __k$[ebp+1], -20 ; ffffffecH
  001aa	eb 04		 jmp	 SHORT $LN1@LoadFloat_@4
$LN96@LoadFloat_@4:
  001ac	c6 45 e8 ed	 mov	 BYTE PTR __k$[ebp], -19	; ffffffedH
$LN1@LoadFloat_@4:
  001b0	6a 03		 push	 3
  001b2	8d 45 e8	 lea	 eax, DWORD PTR __k$[ebp]
  001b5	c6 45 f7 00	 mov	 BYTE PTR __k$[ebp+15], 0
  001b9	5a		 pop	 edx
$LL104@LoadFloat_@4:
  001ba	81 30 ed ec eb
	ea		 xor	 DWORD PTR [eax], -353637139 ; eaebecedH
  001c0	83 c0 04	 add	 eax, 4
  001c3	4a		 dec	 edx
  001c4	75 f4		 jne	 SHORT $LL104@LoadFloat_@4
  001c6	6a 0c		 push	 12			; 0000000cH
  001c8	58		 pop	 eax
$LL101@LoadFloat_@4:
  001c9	8b c8		 mov	 ecx, eax
  001cb	81 e1 03 00 00
	80		 and	 ecx, -2147483645	; 80000003H
  001d1	79 05		 jns	 SHORT $LN111@LoadFloat_@4
  001d3	49		 dec	 ecx
  001d4	83 c9 fc	 or	 ecx, -4			; fffffffcH
  001d7	41		 inc	 ecx
$LN111@LoadFloat_@4:
  001d8	b2 ed		 mov	 dl, -19			; ffffffedH
  001da	2a d1		 sub	 dl, cl
  001dc	30 54 05 e8	 xor	 BYTE PTR __k$[ebp+eax], dl
  001e0	40		 inc	 eax
  001e1	83 f8 0f	 cmp	 eax, 15			; 0000000fH
  001e4	7c e3		 jl	 SHORT $LL101@LoadFloat_@4

; 137  : 		return LoadFloat(_k, f);

  001e6	f3 0f 10 45 0c	 movss	 xmm0, DWORD PTR _f$[ebp]
  001eb	51		 push	 ecx
  001ec	8d 45 e8	 lea	 eax, DWORD PTR __k$[ebp]
  001ef	f3 0f 11 04 24	 movss	 DWORD PTR [esp], xmm0
  001f4	50		 push	 eax
  001f5	8b ce		 mov	 ecx, esi
  001f7	ff 15 00 00 00
	00		 call	 DWORD PTR __imp_?LoadFloat@ioINILoader@@QAEMPBDM@Z

; 138  : 	}

  001fd	8b 4d fc	 mov	 ecx, DWORD PTR __$ArrayPad$[ebp]
  00200	33 cd		 xor	 ecx, ebp
  00202	5e		 pop	 esi
  00203	e8 00 00 00 00	 call	 @__security_check_cookie@4
  00208	c9		 leave
  00209	c2 08 00	 ret	 8
??$LoadFloat_e@$0BA@@ioINILoader@@QAEMAAY0BA@$$CBDM@Z ENDP ; ioINILoader::LoadFloat_e<16>
_TEXT	ENDS
PUBLIC	__$ArrayPad$
PUBLIC	??$LoadFloat_e@$0BE@@ioINILoader@@QAEMAAY0BE@$$CBDM@Z ; ioINILoader::LoadFloat_e<20>
; Function compile flags: /Ogsp
;	COMDAT ??$LoadFloat_e@$0BE@@ioINILoader@@QAEMAAY0BE@$$CBDM@Z
_TEXT	SEGMENT
__k$ = -28						; size = 20
__$ArrayPad$ = -4					; size = 4
_k$ = 8							; size = 4
_f$ = 12						; size = 4
??$LoadFloat_e@$0BE@@ioINILoader@@QAEMAAY0BE@$$CBDM@Z PROC ; ioINILoader::LoadFloat_e<20>, COMDAT
; _this$ = ecx

; 135  : 	{

  00000	55		 push	 ebp
  00001	8b ec		 mov	 ebp, esp
  00003	83 ec 1c	 sub	 esp, 28			; 0000001cH
  00006	a1 00 00 00 00	 mov	 eax, DWORD PTR ___security_cookie
  0000b	33 c5		 xor	 eax, ebp
  0000d	89 45 fc	 mov	 DWORD PTR __$ArrayPad$[ebp], eax
  00010	8b 45 08	 mov	 eax, DWORD PTR _k$[ebp]

; 136  : 		_ENCSTR(k, _k);

  00013	8a 10		 mov	 dl, BYTE PTR [eax]
  00015	53		 push	 ebx
  00016	56		 push	 esi
  00017	8b f1		 mov	 esi, ecx
  00019	84 d2		 test	 dl, dl
  0001b	0f 84 dd 01 00
	00		 je	 $LN96@LoadFloat_@5
  00021	80 f2 ed	 xor	 dl, -19			; ffffffedH
  00024	88 55 e4	 mov	 BYTE PTR __k$[ebp], dl
  00027	8a 50 01	 mov	 dl, BYTE PTR [eax+1]
  0002a	84 d2		 test	 dl, dl
  0002c	0f 84 c6 01 00
	00		 je	 $LN95@LoadFloat_@5
  00032	b3 ec		 mov	 bl, -20			; ffffffecH
  00034	32 d3		 xor	 dl, bl
  00036	88 55 e5	 mov	 BYTE PTR __k$[ebp+1], dl
  00039	8a 50 02	 mov	 dl, BYTE PTR [eax+2]
  0003c	84 d2		 test	 dl, dl
  0003e	0f 84 ae 01 00
	00		 je	 $LN94@LoadFloat_@5
  00044	b1 eb		 mov	 cl, -21			; ffffffebH
  00046	32 d1		 xor	 dl, cl
  00048	88 55 e6	 mov	 BYTE PTR __k$[ebp+2], dl
  0004b	8a 50 03	 mov	 dl, BYTE PTR [eax+3]
  0004e	84 d2		 test	 dl, dl
  00050	0f 84 96 01 00
	00		 je	 $LN93@LoadFloat_@5
  00056	80 f2 ea	 xor	 dl, -22			; ffffffeaH
  00059	88 55 e7	 mov	 BYTE PTR __k$[ebp+3], dl
  0005c	8a 50 04	 mov	 dl, BYTE PTR [eax+4]
  0005f	84 d2		 test	 dl, dl
  00061	0f 84 7f 01 00
	00		 je	 $LN92@LoadFloat_@5
  00067	80 f2 ed	 xor	 dl, -19			; ffffffedH
  0006a	88 55 e8	 mov	 BYTE PTR __k$[ebp+4], dl
  0006d	8a 50 05	 mov	 dl, BYTE PTR [eax+5]
  00070	84 d2		 test	 dl, dl
  00072	0f 84 69 01 00
	00		 je	 $LN91@LoadFloat_@5
  00078	32 d3		 xor	 dl, bl
  0007a	88 55 e9	 mov	 BYTE PTR __k$[ebp+5], dl
  0007d	8a 50 06	 mov	 dl, BYTE PTR [eax+6]
  00080	84 d2		 test	 dl, dl
  00082	0f 84 54 01 00
	00		 je	 $LN90@LoadFloat_@5
  00088	32 d1		 xor	 dl, cl
  0008a	88 55 ea	 mov	 BYTE PTR __k$[ebp+6], dl
  0008d	8a 50 07	 mov	 dl, BYTE PTR [eax+7]
  00090	84 d2		 test	 dl, dl
  00092	0f 84 3e 01 00
	00		 je	 $LN89@LoadFloat_@5
  00098	80 f2 ea	 xor	 dl, -22			; ffffffeaH
  0009b	88 55 eb	 mov	 BYTE PTR __k$[ebp+7], dl
  0009e	8a 50 08	 mov	 dl, BYTE PTR [eax+8]
  000a1	84 d2		 test	 dl, dl
  000a3	0f 84 27 01 00
	00		 je	 $LN88@LoadFloat_@5
  000a9	80 f2 ed	 xor	 dl, -19			; ffffffedH
  000ac	88 55 ec	 mov	 BYTE PTR __k$[ebp+8], dl
  000af	8a 50 09	 mov	 dl, BYTE PTR [eax+9]
  000b2	84 d2		 test	 dl, dl
  000b4	0f 84 11 01 00
	00		 je	 $LN87@LoadFloat_@5
  000ba	32 d3		 xor	 dl, bl
  000bc	88 55 ed	 mov	 BYTE PTR __k$[ebp+9], dl
  000bf	8a 50 0a	 mov	 dl, BYTE PTR [eax+10]
  000c2	84 d2		 test	 dl, dl
  000c4	0f 84 fc 00 00
	00		 je	 $LN86@LoadFloat_@5
  000ca	32 d1		 xor	 dl, cl
  000cc	88 55 ee	 mov	 BYTE PTR __k$[ebp+10], dl
  000cf	8a 50 0b	 mov	 dl, BYTE PTR [eax+11]
  000d2	84 d2		 test	 dl, dl
  000d4	0f 84 e6 00 00
	00		 je	 $LN85@LoadFloat_@5
  000da	80 f2 ea	 xor	 dl, -22			; ffffffeaH
  000dd	88 55 ef	 mov	 BYTE PTR __k$[ebp+11], dl
  000e0	8a 50 0c	 mov	 dl, BYTE PTR [eax+12]
  000e3	84 d2		 test	 dl, dl
  000e5	0f 84 cf 00 00
	00		 je	 $LN84@LoadFloat_@5
  000eb	80 f2 ed	 xor	 dl, -19			; ffffffedH
  000ee	88 55 f0	 mov	 BYTE PTR __k$[ebp+12], dl
  000f1	8a 50 0d	 mov	 dl, BYTE PTR [eax+13]
  000f4	84 d2		 test	 dl, dl
  000f6	0f 84 b9 00 00
	00		 je	 $LN83@LoadFloat_@5
  000fc	32 d3		 xor	 dl, bl
  000fe	88 55 f1	 mov	 BYTE PTR __k$[ebp+13], dl
  00101	8a 50 0e	 mov	 dl, BYTE PTR [eax+14]
  00104	84 d2		 test	 dl, dl
  00106	0f 84 a4 00 00
	00		 je	 $LN82@LoadFloat_@5
  0010c	32 d1		 xor	 dl, cl
  0010e	88 55 f2	 mov	 BYTE PTR __k$[ebp+14], dl
  00111	8a 50 0f	 mov	 dl, BYTE PTR [eax+15]
  00114	84 d2		 test	 dl, dl
  00116	0f 84 8e 00 00
	00		 je	 $LN81@LoadFloat_@5
  0011c	80 f2 ea	 xor	 dl, -22			; ffffffeaH
  0011f	88 55 f3	 mov	 BYTE PTR __k$[ebp+15], dl
  00122	8a 50 10	 mov	 dl, BYTE PTR [eax+16]
  00125	84 d2		 test	 dl, dl
  00127	74 7b		 je	 SHORT $LN80@LoadFloat_@5
  00129	80 f2 ed	 xor	 dl, -19			; ffffffedH
  0012c	88 55 f4	 mov	 BYTE PTR __k$[ebp+16], dl
  0012f	8a 50 11	 mov	 dl, BYTE PTR [eax+17]
  00132	84 d2		 test	 dl, dl
  00134	74 69		 je	 SHORT $LN79@LoadFloat_@5
  00136	32 d3		 xor	 dl, bl
  00138	88 55 f5	 mov	 BYTE PTR __k$[ebp+17], dl
  0013b	8a 50 12	 mov	 dl, BYTE PTR [eax+18]
  0013e	84 d2		 test	 dl, dl
  00140	74 58		 je	 SHORT $LN78@LoadFloat_@5
  00142	32 d1		 xor	 dl, cl
  00144	80 78 13 00	 cmp	 BYTE PTR [eax+19], 0
  00148	88 55 f6	 mov	 BYTE PTR __k$[ebp+18], dl
  0014b	0f 84 b1 00 00
	00		 je	 $LN1@LoadFloat_@5
  00151	8a 50 14	 mov	 dl, BYTE PTR [eax+20]
  00154	84 d2		 test	 dl, dl
  00156	74 3c		 je	 SHORT $LN76@LoadFloat_@5
  00158	80 f2 ed	 xor	 dl, -19			; ffffffedH
  0015b	88 55 f8	 mov	 BYTE PTR __k$[ebp+20], dl
  0015e	8a 50 15	 mov	 dl, BYTE PTR [eax+21]
  00161	84 d2		 test	 dl, dl
  00163	74 2a		 je	 SHORT $LN75@LoadFloat_@5
  00165	32 d3		 xor	 dl, bl
  00167	88 55 f9	 mov	 BYTE PTR __k$[ebp+21], dl
  0016a	8a 50 16	 mov	 dl, BYTE PTR [eax+22]
  0016d	84 d2		 test	 dl, dl
  0016f	74 19		 je	 SHORT $LN74@LoadFloat_@5
  00171	8a 40 17	 mov	 al, BYTE PTR [eax+23]
  00174	32 d1		 xor	 dl, cl
  00176	88 55 fa	 mov	 BYTE PTR __k$[ebp+22], dl
  00179	84 c0		 test	 al, al
  0017b	74 07		 je	 SHORT $LN73@LoadFloat_@5
  0017d	34 ea		 xor	 al, -22			; ffffffeaH
  0017f	88 45 fb	 mov	 BYTE PTR __k$[ebp+23], al
  00182	eb 7e		 jmp	 SHORT $LN1@LoadFloat_@5
$LN73@LoadFloat_@5:
  00184	c6 45 fb ea	 mov	 BYTE PTR __k$[ebp+23], -22 ; ffffffeaH
  00188	eb 78		 jmp	 SHORT $LN1@LoadFloat_@5
$LN74@LoadFloat_@5:
  0018a	88 4d fa	 mov	 BYTE PTR __k$[ebp+22], cl
  0018d	eb 73		 jmp	 SHORT $LN1@LoadFloat_@5
$LN75@LoadFloat_@5:
  0018f	88 5d f9	 mov	 BYTE PTR __k$[ebp+21], bl
  00192	eb 6e		 jmp	 SHORT $LN1@LoadFloat_@5
$LN76@LoadFloat_@5:
  00194	c6 45 f8 ed	 mov	 BYTE PTR __k$[ebp+20], -19 ; ffffffedH
  00198	eb 68		 jmp	 SHORT $LN1@LoadFloat_@5
$LN78@LoadFloat_@5:
  0019a	88 4d f6	 mov	 BYTE PTR __k$[ebp+18], cl
  0019d	eb 63		 jmp	 SHORT $LN1@LoadFloat_@5
$LN79@LoadFloat_@5:
  0019f	88 5d f5	 mov	 BYTE PTR __k$[ebp+17], bl
  001a2	eb 5e		 jmp	 SHORT $LN1@LoadFloat_@5
$LN80@LoadFloat_@5:
  001a4	c6 45 f4 ed	 mov	 BYTE PTR __k$[ebp+16], -19 ; ffffffedH
  001a8	eb 58		 jmp	 SHORT $LN1@LoadFloat_@5
$LN81@LoadFloat_@5:
  001aa	c6 45 f3 ea	 mov	 BYTE PTR __k$[ebp+15], -22 ; ffffffeaH
  001ae	eb 52		 jmp	 SHORT $LN1@LoadFloat_@5
$LN82@LoadFloat_@5:
  001b0	88 4d f2	 mov	 BYTE PTR __k$[ebp+14], cl
  001b3	eb 4d		 jmp	 SHORT $LN1@LoadFloat_@5
$LN83@LoadFloat_@5:
  001b5	88 5d f1	 mov	 BYTE PTR __k$[ebp+13], bl
  001b8	eb 48		 jmp	 SHORT $LN1@LoadFloat_@5
$LN84@LoadFloat_@5:
  001ba	c6 45 f0 ed	 mov	 BYTE PTR __k$[ebp+12], -19 ; ffffffedH
  001be	eb 42		 jmp	 SHORT $LN1@LoadFloat_@5
$LN85@LoadFloat_@5:
  001c0	c6 45 ef ea	 mov	 BYTE PTR __k$[ebp+11], -22 ; ffffffeaH
  001c4	eb 3c		 jmp	 SHORT $LN1@LoadFloat_@5
$LN86@LoadFloat_@5:
  001c6	88 4d ee	 mov	 BYTE PTR __k$[ebp+10], cl
  001c9	eb 37		 jmp	 SHORT $LN1@LoadFloat_@5
$LN87@LoadFloat_@5:
  001cb	88 5d ed	 mov	 BYTE PTR __k$[ebp+9], bl
  001ce	eb 32		 jmp	 SHORT $LN1@LoadFloat_@5
$LN88@LoadFloat_@5:
  001d0	c6 45 ec ed	 mov	 BYTE PTR __k$[ebp+8], -19 ; ffffffedH
  001d4	eb 2c		 jmp	 SHORT $LN1@LoadFloat_@5
$LN89@LoadFloat_@5:
  001d6	c6 45 eb ea	 mov	 BYTE PTR __k$[ebp+7], -22 ; ffffffeaH
  001da	eb 26		 jmp	 SHORT $LN1@LoadFloat_@5
$LN90@LoadFloat_@5:
  001dc	88 4d ea	 mov	 BYTE PTR __k$[ebp+6], cl
  001df	eb 21		 jmp	 SHORT $LN1@LoadFloat_@5
$LN91@LoadFloat_@5:
  001e1	88 5d e9	 mov	 BYTE PTR __k$[ebp+5], bl
  001e4	eb 1c		 jmp	 SHORT $LN1@LoadFloat_@5
$LN92@LoadFloat_@5:
  001e6	c6 45 e8 ed	 mov	 BYTE PTR __k$[ebp+4], -19 ; ffffffedH
  001ea	eb 16		 jmp	 SHORT $LN1@LoadFloat_@5
$LN93@LoadFloat_@5:
  001ec	c6 45 e7 ea	 mov	 BYTE PTR __k$[ebp+3], -22 ; ffffffeaH
  001f0	eb 10		 jmp	 SHORT $LN1@LoadFloat_@5
$LN94@LoadFloat_@5:
  001f2	c6 45 e6 eb	 mov	 BYTE PTR __k$[ebp+2], -21 ; ffffffebH
  001f6	eb 0a		 jmp	 SHORT $LN1@LoadFloat_@5
$LN95@LoadFloat_@5:
  001f8	c6 45 e5 ec	 mov	 BYTE PTR __k$[ebp+1], -20 ; ffffffecH
  001fc	eb 04		 jmp	 SHORT $LN1@LoadFloat_@5
$LN96@LoadFloat_@5:
  001fe	c6 45 e4 ed	 mov	 BYTE PTR __k$[ebp], -19	; ffffffedH
$LN1@LoadFloat_@5:
  00202	6a 04		 push	 4
  00204	8d 45 e4	 lea	 eax, DWORD PTR __k$[ebp]
  00207	c6 45 f7 00	 mov	 BYTE PTR __k$[ebp+19], 0
  0020b	5a		 pop	 edx
$LL104@LoadFloat_@5:
  0020c	81 30 ed ec eb
	ea		 xor	 DWORD PTR [eax], -353637139 ; eaebecedH
  00212	83 c0 04	 add	 eax, 4
  00215	4a		 dec	 edx
  00216	75 f4		 jne	 SHORT $LL104@LoadFloat_@5
  00218	6a 10		 push	 16			; 00000010H
  0021a	58		 pop	 eax
$LL101@LoadFloat_@5:
  0021b	8b c8		 mov	 ecx, eax
  0021d	81 e1 03 00 00
	80		 and	 ecx, -2147483645	; 80000003H
  00223	79 05		 jns	 SHORT $LN111@LoadFloat_@5
  00225	49		 dec	 ecx
  00226	83 c9 fc	 or	 ecx, -4			; fffffffcH
  00229	41		 inc	 ecx
$LN111@LoadFloat_@5:
  0022a	b2 ed		 mov	 dl, -19			; ffffffedH
  0022c	2a d1		 sub	 dl, cl
  0022e	30 54 05 e4	 xor	 BYTE PTR __k$[ebp+eax], dl
  00232	40		 inc	 eax
  00233	83 f8 13	 cmp	 eax, 19			; 00000013H
  00236	7c e3		 jl	 SHORT $LL101@LoadFloat_@5

; 137  : 		return LoadFloat(_k, f);

  00238	f3 0f 10 45 0c	 movss	 xmm0, DWORD PTR _f$[ebp]
  0023d	51		 push	 ecx
  0023e	8d 45 e4	 lea	 eax, DWORD PTR __k$[ebp]
  00241	f3 0f 11 04 24	 movss	 DWORD PTR [esp], xmm0
  00246	50		 push	 eax
  00247	8b ce		 mov	 ecx, esi
  00249	ff 15 00 00 00
	00		 call	 DWORD PTR __imp_?LoadFloat@ioINILoader@@QAEMPBDM@Z

; 138  : 	}

  0024f	8b 4d fc	 mov	 ecx, DWORD PTR __$ArrayPad$[ebp]
  00252	5e		 pop	 esi
  00253	33 cd		 xor	 ecx, ebp
  00255	5b		 pop	 ebx
  00256	e8 00 00 00 00	 call	 @__security_check_cookie@4
  0025b	c9		 leave
  0025c	c2 08 00	 ret	 8
??$LoadFloat_e@$0BE@@ioINILoader@@QAEMAAY0BE@$$CBDM@Z ENDP ; ioINILoader::LoadFloat_e<20>
_TEXT	ENDS
PUBLIC	__$ArrayPad$
PUBLIC	??$LoadInt_e@$0BD@@ioINILoader@@QAEHAAY0BD@$$CBDH@Z ; ioINILoader::LoadInt_e<19>
EXTRN	__imp_?LoadInt@ioINILoader@@QAEHPBDH@Z:PROC
; Function compile flags: /Ogsp
;	COMDAT ??$LoadInt_e@$0BD@@ioINILoader@@QAEHAAY0BD@$$CBDH@Z
_TEXT	SEGMENT
__k$ = -28						; size = 19
__$ArrayPad$ = -4					; size = 4
_k$ = 8							; size = 4
_i$ = 12						; size = 4
??$LoadInt_e@$0BD@@ioINILoader@@QAEHAAY0BD@$$CBDH@Z PROC ; ioINILoader::LoadInt_e<19>, COMDAT
; _this$ = ecx

; 118  : 	{

  00000	55		 push	 ebp
  00001	8b ec		 mov	 ebp, esp
  00003	83 ec 1c	 sub	 esp, 28			; 0000001cH
  00006	a1 00 00 00 00	 mov	 eax, DWORD PTR ___security_cookie
  0000b	33 c5		 xor	 eax, ebp
  0000d	89 45 fc	 mov	 DWORD PTR __$ArrayPad$[ebp], eax
  00010	8b 45 08	 mov	 eax, DWORD PTR _k$[ebp]

; 119  : 		_ENCSTR(k, _k);

  00013	8a 10		 mov	 dl, BYTE PTR [eax]
  00015	56		 push	 esi
  00016	8b f1		 mov	 esi, ecx
  00018	84 d2		 test	 dl, dl
  0001a	0f 84 cf 01 00
	00		 je	 $LN96@LoadInt_e
  00020	80 f2 ed	 xor	 dl, -19			; ffffffedH
  00023	88 55 e4	 mov	 BYTE PTR __k$[ebp], dl
  00026	8a 50 01	 mov	 dl, BYTE PTR [eax+1]
  00029	84 d2		 test	 dl, dl
  0002b	0f 84 b8 01 00
	00		 je	 $LN95@LoadInt_e
  00031	b1 ec		 mov	 cl, -20			; ffffffecH
  00033	32 d1		 xor	 dl, cl
  00035	88 55 e5	 mov	 BYTE PTR __k$[ebp+1], dl
  00038	8a 50 02	 mov	 dl, BYTE PTR [eax+2]
  0003b	84 d2		 test	 dl, dl
  0003d	0f 84 a0 01 00
	00		 je	 $LN94@LoadInt_e
  00043	80 f2 eb	 xor	 dl, -21			; ffffffebH
  00046	88 55 e6	 mov	 BYTE PTR __k$[ebp+2], dl
  00049	8a 50 03	 mov	 dl, BYTE PTR [eax+3]
  0004c	84 d2		 test	 dl, dl
  0004e	0f 84 89 01 00
	00		 je	 $LN93@LoadInt_e
  00054	80 f2 ea	 xor	 dl, -22			; ffffffeaH
  00057	88 55 e7	 mov	 BYTE PTR __k$[ebp+3], dl
  0005a	8a 50 04	 mov	 dl, BYTE PTR [eax+4]
  0005d	84 d2		 test	 dl, dl
  0005f	0f 84 72 01 00
	00		 je	 $LN92@LoadInt_e
  00065	80 f2 ed	 xor	 dl, -19			; ffffffedH
  00068	88 55 e8	 mov	 BYTE PTR __k$[ebp+4], dl
  0006b	8a 50 05	 mov	 dl, BYTE PTR [eax+5]
  0006e	84 d2		 test	 dl, dl
  00070	0f 84 5c 01 00
	00		 je	 $LN91@LoadInt_e
  00076	32 d1		 xor	 dl, cl
  00078	88 55 e9	 mov	 BYTE PTR __k$[ebp+5], dl
  0007b	8a 50 06	 mov	 dl, BYTE PTR [eax+6]
  0007e	84 d2		 test	 dl, dl
  00080	0f 84 46 01 00
	00		 je	 $LN90@LoadInt_e
  00086	80 f2 eb	 xor	 dl, -21			; ffffffebH
  00089	88 55 ea	 mov	 BYTE PTR __k$[ebp+6], dl
  0008c	8a 50 07	 mov	 dl, BYTE PTR [eax+7]
  0008f	84 d2		 test	 dl, dl
  00091	0f 84 2f 01 00
	00		 je	 $LN89@LoadInt_e
  00097	80 f2 ea	 xor	 dl, -22			; ffffffeaH
  0009a	88 55 eb	 mov	 BYTE PTR __k$[ebp+7], dl
  0009d	8a 50 08	 mov	 dl, BYTE PTR [eax+8]
  000a0	84 d2		 test	 dl, dl
  000a2	0f 84 18 01 00
	00		 je	 $LN88@LoadInt_e
  000a8	80 f2 ed	 xor	 dl, -19			; ffffffedH
  000ab	88 55 ec	 mov	 BYTE PTR __k$[ebp+8], dl
  000ae	8a 50 09	 mov	 dl, BYTE PTR [eax+9]
  000b1	84 d2		 test	 dl, dl
  000b3	0f 84 02 01 00
	00		 je	 $LN87@LoadInt_e
  000b9	32 d1		 xor	 dl, cl
  000bb	88 55 ed	 mov	 BYTE PTR __k$[ebp+9], dl
  000be	8a 50 0a	 mov	 dl, BYTE PTR [eax+10]
  000c1	84 d2		 test	 dl, dl
  000c3	0f 84 ec 00 00
	00		 je	 $LN86@LoadInt_e
  000c9	80 f2 eb	 xor	 dl, -21			; ffffffebH
  000cc	88 55 ee	 mov	 BYTE PTR __k$[ebp+10], dl
  000cf	8a 50 0b	 mov	 dl, BYTE PTR [eax+11]
  000d2	84 d2		 test	 dl, dl
  000d4	0f 84 d5 00 00
	00		 je	 $LN85@LoadInt_e
  000da	80 f2 ea	 xor	 dl, -22			; ffffffeaH
  000dd	88 55 ef	 mov	 BYTE PTR __k$[ebp+11], dl
  000e0	8a 50 0c	 mov	 dl, BYTE PTR [eax+12]
  000e3	84 d2		 test	 dl, dl
  000e5	0f 84 be 00 00
	00		 je	 $LN84@LoadInt_e
  000eb	80 f2 ed	 xor	 dl, -19			; ffffffedH
  000ee	88 55 f0	 mov	 BYTE PTR __k$[ebp+12], dl
  000f1	8a 50 0d	 mov	 dl, BYTE PTR [eax+13]
  000f4	84 d2		 test	 dl, dl
  000f6	0f 84 a8 00 00
	00		 je	 $LN83@LoadInt_e
  000fc	32 d1		 xor	 dl, cl
  000fe	88 55 f1	 mov	 BYTE PTR __k$[ebp+13], dl
  00101	8a 50 0e	 mov	 dl, BYTE PTR [eax+14]
  00104	84 d2		 test	 dl, dl
  00106	0f 84 92 00 00
	00		 je	 $LN82@LoadInt_e
  0010c	80 f2 eb	 xor	 dl, -21			; ffffffebH
  0010f	88 55 f2	 mov	 BYTE PTR __k$[ebp+14], dl
  00112	8a 50 0f	 mov	 dl, BYTE PTR [eax+15]
  00115	84 d2		 test	 dl, dl
  00117	74 7f		 je	 SHORT $LN81@LoadInt_e
  00119	80 f2 ea	 xor	 dl, -22			; ffffffeaH
  0011c	88 55 f3	 mov	 BYTE PTR __k$[ebp+15], dl
  0011f	8a 50 10	 mov	 dl, BYTE PTR [eax+16]
  00122	84 d2		 test	 dl, dl
  00124	74 6c		 je	 SHORT $LN80@LoadInt_e
  00126	80 f2 ed	 xor	 dl, -19			; ffffffedH
  00129	88 55 f4	 mov	 BYTE PTR __k$[ebp+16], dl
  0012c	8a 50 11	 mov	 dl, BYTE PTR [eax+17]
  0012f	84 d2		 test	 dl, dl
  00131	74 5a		 je	 SHORT $LN79@LoadInt_e
  00133	32 d1		 xor	 dl, cl
  00135	80 78 12 00	 cmp	 BYTE PTR [eax+18], 0
  00139	88 55 f5	 mov	 BYTE PTR __k$[ebp+17], dl
  0013c	0f 84 b1 00 00
	00		 je	 $LN1@LoadInt_e
  00142	8a 50 13	 mov	 dl, BYTE PTR [eax+19]
  00145	84 d2		 test	 dl, dl
  00147	74 3e		 je	 SHORT $LN77@LoadInt_e
  00149	80 f2 ea	 xor	 dl, -22			; ffffffeaH
  0014c	88 55 f7	 mov	 BYTE PTR __k$[ebp+19], dl
  0014f	8a 50 14	 mov	 dl, BYTE PTR [eax+20]
  00152	84 d2		 test	 dl, dl
  00154	74 2b		 je	 SHORT $LN76@LoadInt_e
  00156	80 f2 ed	 xor	 dl, -19			; ffffffedH
  00159	88 55 f8	 mov	 BYTE PTR __k$[ebp+20], dl
  0015c	8a 50 15	 mov	 dl, BYTE PTR [eax+21]
  0015f	84 d2		 test	 dl, dl
  00161	74 19		 je	 SHORT $LN75@LoadInt_e
  00163	8a 40 16	 mov	 al, BYTE PTR [eax+22]
  00166	32 d1		 xor	 dl, cl
  00168	88 55 f9	 mov	 BYTE PTR __k$[ebp+21], dl
  0016b	84 c0		 test	 al, al
  0016d	74 07		 je	 SHORT $LN74@LoadInt_e
  0016f	34 eb		 xor	 al, -21			; ffffffebH
  00171	88 45 fa	 mov	 BYTE PTR __k$[ebp+22], al
  00174	eb 7d		 jmp	 SHORT $LN1@LoadInt_e
$LN74@LoadInt_e:
  00176	c6 45 fa eb	 mov	 BYTE PTR __k$[ebp+22], -21 ; ffffffebH
  0017a	eb 77		 jmp	 SHORT $LN1@LoadInt_e
$LN75@LoadInt_e:
  0017c	88 4d f9	 mov	 BYTE PTR __k$[ebp+21], cl
  0017f	eb 72		 jmp	 SHORT $LN1@LoadInt_e
$LN76@LoadInt_e:
  00181	c6 45 f8 ed	 mov	 BYTE PTR __k$[ebp+20], -19 ; ffffffedH
  00185	eb 6c		 jmp	 SHORT $LN1@LoadInt_e
$LN77@LoadInt_e:
  00187	c6 45 f7 ea	 mov	 BYTE PTR __k$[ebp+19], -22 ; ffffffeaH
  0018b	eb 66		 jmp	 SHORT $LN1@LoadInt_e
$LN79@LoadInt_e:
  0018d	88 4d f5	 mov	 BYTE PTR __k$[ebp+17], cl
  00190	eb 61		 jmp	 SHORT $LN1@LoadInt_e
$LN80@LoadInt_e:
  00192	c6 45 f4 ed	 mov	 BYTE PTR __k$[ebp+16], -19 ; ffffffedH
  00196	eb 5b		 jmp	 SHORT $LN1@LoadInt_e
$LN81@LoadInt_e:
  00198	c6 45 f3 ea	 mov	 BYTE PTR __k$[ebp+15], -22 ; ffffffeaH
  0019c	eb 55		 jmp	 SHORT $LN1@LoadInt_e
$LN82@LoadInt_e:
  0019e	c6 45 f2 eb	 mov	 BYTE PTR __k$[ebp+14], -21 ; ffffffebH
  001a2	eb 4f		 jmp	 SHORT $LN1@LoadInt_e
$LN83@LoadInt_e:
  001a4	88 4d f1	 mov	 BYTE PTR __k$[ebp+13], cl
  001a7	eb 4a		 jmp	 SHORT $LN1@LoadInt_e
$LN84@LoadInt_e:
  001a9	c6 45 f0 ed	 mov	 BYTE PTR __k$[ebp+12], -19 ; ffffffedH
  001ad	eb 44		 jmp	 SHORT $LN1@LoadInt_e
$LN85@LoadInt_e:
  001af	c6 45 ef ea	 mov	 BYTE PTR __k$[ebp+11], -22 ; ffffffeaH
  001b3	eb 3e		 jmp	 SHORT $LN1@LoadInt_e
$LN86@LoadInt_e:
  001b5	c6 45 ee eb	 mov	 BYTE PTR __k$[ebp+10], -21 ; ffffffebH
  001b9	eb 38		 jmp	 SHORT $LN1@LoadInt_e
$LN87@LoadInt_e:
  001bb	88 4d ed	 mov	 BYTE PTR __k$[ebp+9], cl
  001be	eb 33		 jmp	 SHORT $LN1@LoadInt_e
$LN88@LoadInt_e:
  001c0	c6 45 ec ed	 mov	 BYTE PTR __k$[ebp+8], -19 ; ffffffedH
  001c4	eb 2d		 jmp	 SHORT $LN1@LoadInt_e
$LN89@LoadInt_e:
  001c6	c6 45 eb ea	 mov	 BYTE PTR __k$[ebp+7], -22 ; ffffffeaH
  001ca	eb 27		 jmp	 SHORT $LN1@LoadInt_e
$LN90@LoadInt_e:
  001cc	c6 45 ea eb	 mov	 BYTE PTR __k$[ebp+6], -21 ; ffffffebH
  001d0	eb 21		 jmp	 SHORT $LN1@LoadInt_e
$LN91@LoadInt_e:
  001d2	88 4d e9	 mov	 BYTE PTR __k$[ebp+5], cl
  001d5	eb 1c		 jmp	 SHORT $LN1@LoadInt_e
$LN92@LoadInt_e:
  001d7	c6 45 e8 ed	 mov	 BYTE PTR __k$[ebp+4], -19 ; ffffffedH
  001db	eb 16		 jmp	 SHORT $LN1@LoadInt_e
$LN93@LoadInt_e:
  001dd	c6 45 e7 ea	 mov	 BYTE PTR __k$[ebp+3], -22 ; ffffffeaH
  001e1	eb 10		 jmp	 SHORT $LN1@LoadInt_e
$LN94@LoadInt_e:
  001e3	c6 45 e6 eb	 mov	 BYTE PTR __k$[ebp+2], -21 ; ffffffebH
  001e7	eb 0a		 jmp	 SHORT $LN1@LoadInt_e
$LN95@LoadInt_e:
  001e9	c6 45 e5 ec	 mov	 BYTE PTR __k$[ebp+1], -20 ; ffffffecH
  001ed	eb 04		 jmp	 SHORT $LN1@LoadInt_e
$LN96@LoadInt_e:
  001ef	c6 45 e4 ed	 mov	 BYTE PTR __k$[ebp], -19	; ffffffedH
$LN1@LoadInt_e:
  001f3	6a 04		 push	 4
  001f5	8d 45 e4	 lea	 eax, DWORD PTR __k$[ebp]
  001f8	c6 45 f6 00	 mov	 BYTE PTR __k$[ebp+18], 0
  001fc	5a		 pop	 edx
$LL104@LoadInt_e:
  001fd	81 30 ed ec eb
	ea		 xor	 DWORD PTR [eax], -353637139 ; eaebecedH
  00203	83 c0 04	 add	 eax, 4
  00206	4a		 dec	 edx
  00207	75 f4		 jne	 SHORT $LL104@LoadInt_e
  00209	6a 10		 push	 16			; 00000010H
  0020b	58		 pop	 eax
$LL101@LoadInt_e:
  0020c	8b c8		 mov	 ecx, eax
  0020e	81 e1 03 00 00
	80		 and	 ecx, -2147483645	; 80000003H
  00214	79 05		 jns	 SHORT $LN111@LoadInt_e
  00216	49		 dec	 ecx
  00217	83 c9 fc	 or	 ecx, -4			; fffffffcH
  0021a	41		 inc	 ecx
$LN111@LoadInt_e:
  0021b	b2 ed		 mov	 dl, -19			; ffffffedH
  0021d	2a d1		 sub	 dl, cl
  0021f	30 54 05 e4	 xor	 BYTE PTR __k$[ebp+eax], dl
  00223	40		 inc	 eax
  00224	83 f8 12	 cmp	 eax, 18			; 00000012H
  00227	7c e3		 jl	 SHORT $LL101@LoadInt_e

; 120  : 		return LoadInt(_k, i);

  00229	ff 75 0c	 push	 DWORD PTR _i$[ebp]
  0022c	8d 45 e4	 lea	 eax, DWORD PTR __k$[ebp]
  0022f	50		 push	 eax
  00230	8b ce		 mov	 ecx, esi
  00232	ff 15 00 00 00
	00		 call	 DWORD PTR __imp_?LoadInt@ioINILoader@@QAEHPBDH@Z

; 121  : 	}

  00238	8b 4d fc	 mov	 ecx, DWORD PTR __$ArrayPad$[ebp]
  0023b	33 cd		 xor	 ecx, ebp
  0023d	5e		 pop	 esi
  0023e	e8 00 00 00 00	 call	 @__security_check_cookie@4
  00243	c9		 leave
  00244	c2 08 00	 ret	 8
??$LoadInt_e@$0BD@@ioINILoader@@QAEHAAY0BD@$$CBDH@Z ENDP ; ioINILoader::LoadInt_e<19>
_TEXT	ENDS
PUBLIC	__$ArrayPad$
PUBLIC	??$LoadInt_e@$0BB@@ioINILoader@@QAEHAAY0BB@$$CBDH@Z ; ioINILoader::LoadInt_e<17>
; Function compile flags: /Ogsp
;	COMDAT ??$LoadInt_e@$0BB@@ioINILoader@@QAEHAAY0BB@$$CBDH@Z
_TEXT	SEGMENT
__k$ = -28						; size = 17
__$ArrayPad$ = -4					; size = 4
_k$ = 8							; size = 4
_i$ = 12						; size = 4
??$LoadInt_e@$0BB@@ioINILoader@@QAEHAAY0BB@$$CBDH@Z PROC ; ioINILoader::LoadInt_e<17>, COMDAT
; _this$ = ecx

; 118  : 	{

  00000	55		 push	 ebp
  00001	8b ec		 mov	 ebp, esp
  00003	83 ec 1c	 sub	 esp, 28			; 0000001cH
  00006	a1 00 00 00 00	 mov	 eax, DWORD PTR ___security_cookie
  0000b	33 c5		 xor	 eax, ebp
  0000d	89 45 fc	 mov	 DWORD PTR __$ArrayPad$[ebp], eax
  00010	8b 45 08	 mov	 eax, DWORD PTR _k$[ebp]

; 119  : 		_ENCSTR(k, _k);

  00013	8a 10		 mov	 dl, BYTE PTR [eax]
  00015	56		 push	 esi
  00016	8b f1		 mov	 esi, ecx
  00018	84 d2		 test	 dl, dl
  0001a	0f 84 a7 01 00
	00		 je	 $LN96@LoadInt_e@2
  00020	80 f2 ed	 xor	 dl, -19			; ffffffedH
  00023	88 55 e4	 mov	 BYTE PTR __k$[ebp], dl
  00026	8a 50 01	 mov	 dl, BYTE PTR [eax+1]
  00029	84 d2		 test	 dl, dl
  0002b	0f 84 90 01 00
	00		 je	 $LN95@LoadInt_e@2
  00031	b1 ec		 mov	 cl, -20			; ffffffecH
  00033	32 d1		 xor	 dl, cl
  00035	88 55 e5	 mov	 BYTE PTR __k$[ebp+1], dl
  00038	8a 50 02	 mov	 dl, BYTE PTR [eax+2]
  0003b	84 d2		 test	 dl, dl
  0003d	0f 84 78 01 00
	00		 je	 $LN94@LoadInt_e@2
  00043	80 f2 eb	 xor	 dl, -21			; ffffffebH
  00046	88 55 e6	 mov	 BYTE PTR __k$[ebp+2], dl
  00049	8a 50 03	 mov	 dl, BYTE PTR [eax+3]
  0004c	84 d2		 test	 dl, dl
  0004e	0f 84 61 01 00
	00		 je	 $LN93@LoadInt_e@2
  00054	80 f2 ea	 xor	 dl, -22			; ffffffeaH
  00057	88 55 e7	 mov	 BYTE PTR __k$[ebp+3], dl
  0005a	8a 50 04	 mov	 dl, BYTE PTR [eax+4]
  0005d	84 d2		 test	 dl, dl
  0005f	0f 84 4a 01 00
	00		 je	 $LN92@LoadInt_e@2
  00065	80 f2 ed	 xor	 dl, -19			; ffffffedH
  00068	88 55 e8	 mov	 BYTE PTR __k$[ebp+4], dl
  0006b	8a 50 05	 mov	 dl, BYTE PTR [eax+5]
  0006e	84 d2		 test	 dl, dl
  00070	0f 84 34 01 00
	00		 je	 $LN91@LoadInt_e@2
  00076	32 d1		 xor	 dl, cl
  00078	88 55 e9	 mov	 BYTE PTR __k$[ebp+5], dl
  0007b	8a 50 06	 mov	 dl, BYTE PTR [eax+6]
  0007e	84 d2		 test	 dl, dl
  00080	0f 84 1e 01 00
	00		 je	 $LN90@LoadInt_e@2
  00086	80 f2 eb	 xor	 dl, -21			; ffffffebH
  00089	88 55 ea	 mov	 BYTE PTR __k$[ebp+6], dl
  0008c	8a 50 07	 mov	 dl, BYTE PTR [eax+7]
  0008f	84 d2		 test	 dl, dl
  00091	0f 84 07 01 00
	00		 je	 $LN89@LoadInt_e@2
  00097	80 f2 ea	 xor	 dl, -22			; ffffffeaH
  0009a	88 55 eb	 mov	 BYTE PTR __k$[ebp+7], dl
  0009d	8a 50 08	 mov	 dl, BYTE PTR [eax+8]
  000a0	84 d2		 test	 dl, dl
  000a2	0f 84 f0 00 00
	00		 je	 $LN88@LoadInt_e@2
  000a8	80 f2 ed	 xor	 dl, -19			; ffffffedH
  000ab	88 55 ec	 mov	 BYTE PTR __k$[ebp+8], dl
  000ae	8a 50 09	 mov	 dl, BYTE PTR [eax+9]
  000b1	84 d2		 test	 dl, dl
  000b3	0f 84 da 00 00
	00		 je	 $LN87@LoadInt_e@2
  000b9	32 d1		 xor	 dl, cl
  000bb	88 55 ed	 mov	 BYTE PTR __k$[ebp+9], dl
  000be	8a 50 0a	 mov	 dl, BYTE PTR [eax+10]
  000c1	84 d2		 test	 dl, dl
  000c3	0f 84 c4 00 00
	00		 je	 $LN86@LoadInt_e@2
  000c9	80 f2 eb	 xor	 dl, -21			; ffffffebH
  000cc	88 55 ee	 mov	 BYTE PTR __k$[ebp+10], dl
  000cf	8a 50 0b	 mov	 dl, BYTE PTR [eax+11]
  000d2	84 d2		 test	 dl, dl
  000d4	0f 84 ad 00 00
	00		 je	 $LN85@LoadInt_e@2
  000da	80 f2 ea	 xor	 dl, -22			; ffffffeaH
  000dd	88 55 ef	 mov	 BYTE PTR __k$[ebp+11], dl
  000e0	8a 50 0c	 mov	 dl, BYTE PTR [eax+12]
  000e3	84 d2		 test	 dl, dl
  000e5	0f 84 96 00 00
	00		 je	 $LN84@LoadInt_e@2
  000eb	80 f2 ed	 xor	 dl, -19			; ffffffedH
  000ee	88 55 f0	 mov	 BYTE PTR __k$[ebp+12], dl
  000f1	8a 50 0d	 mov	 dl, BYTE PTR [eax+13]
  000f4	84 d2		 test	 dl, dl
  000f6	0f 84 80 00 00
	00		 je	 $LN83@LoadInt_e@2
  000fc	32 d1		 xor	 dl, cl
  000fe	88 55 f1	 mov	 BYTE PTR __k$[ebp+13], dl
  00101	8a 50 0e	 mov	 dl, BYTE PTR [eax+14]
  00104	84 d2		 test	 dl, dl
  00106	74 6e		 je	 SHORT $LN82@LoadInt_e@2
  00108	80 f2 eb	 xor	 dl, -21			; ffffffebH
  0010b	88 55 f2	 mov	 BYTE PTR __k$[ebp+14], dl
  0010e	8a 50 0f	 mov	 dl, BYTE PTR [eax+15]
  00111	84 d2		 test	 dl, dl
  00113	74 5b		 je	 SHORT $LN81@LoadInt_e@2
  00115	80 f2 ea	 xor	 dl, -22			; ffffffeaH
  00118	80 78 10 00	 cmp	 BYTE PTR [eax+16], 0
  0011c	88 55 f3	 mov	 BYTE PTR __k$[ebp+15], dl
  0011f	0f 84 a6 00 00
	00		 je	 $LN1@LoadInt_e@2
  00125	8a 50 11	 mov	 dl, BYTE PTR [eax+17]
  00128	84 d2		 test	 dl, dl
  0012a	74 3f		 je	 SHORT $LN79@LoadInt_e@2
  0012c	32 d1		 xor	 dl, cl
  0012e	88 55 f5	 mov	 BYTE PTR __k$[ebp+17], dl
  00131	8a 50 12	 mov	 dl, BYTE PTR [eax+18]
  00134	84 d2		 test	 dl, dl
  00136	74 2d		 je	 SHORT $LN78@LoadInt_e@2
  00138	80 f2 eb	 xor	 dl, -21			; ffffffebH
  0013b	88 55 f6	 mov	 BYTE PTR __k$[ebp+18], dl
  0013e	8a 50 13	 mov	 dl, BYTE PTR [eax+19]
  00141	84 d2		 test	 dl, dl
  00143	74 1a		 je	 SHORT $LN77@LoadInt_e@2
  00145	8a 40 14	 mov	 al, BYTE PTR [eax+20]
  00148	80 f2 ea	 xor	 dl, -22			; ffffffeaH
  0014b	88 55 f7	 mov	 BYTE PTR __k$[ebp+19], dl
  0014e	84 c0		 test	 al, al
  00150	74 07		 je	 SHORT $LN76@LoadInt_e@2
  00152	34 ed		 xor	 al, -19			; ffffffedH
  00154	88 45 f8	 mov	 BYTE PTR __k$[ebp+20], al
  00157	eb 72		 jmp	 SHORT $LN1@LoadInt_e@2
$LN76@LoadInt_e@2:
  00159	c6 45 f8 ed	 mov	 BYTE PTR __k$[ebp+20], -19 ; ffffffedH
  0015d	eb 6c		 jmp	 SHORT $LN1@LoadInt_e@2
$LN77@LoadInt_e@2:
  0015f	c6 45 f7 ea	 mov	 BYTE PTR __k$[ebp+19], -22 ; ffffffeaH
  00163	eb 66		 jmp	 SHORT $LN1@LoadInt_e@2
$LN78@LoadInt_e@2:
  00165	c6 45 f6 eb	 mov	 BYTE PTR __k$[ebp+18], -21 ; ffffffebH
  00169	eb 60		 jmp	 SHORT $LN1@LoadInt_e@2
$LN79@LoadInt_e@2:
  0016b	88 4d f5	 mov	 BYTE PTR __k$[ebp+17], cl
  0016e	eb 5b		 jmp	 SHORT $LN1@LoadInt_e@2
$LN81@LoadInt_e@2:
  00170	c6 45 f3 ea	 mov	 BYTE PTR __k$[ebp+15], -22 ; ffffffeaH
  00174	eb 55		 jmp	 SHORT $LN1@LoadInt_e@2
$LN82@LoadInt_e@2:
  00176	c6 45 f2 eb	 mov	 BYTE PTR __k$[ebp+14], -21 ; ffffffebH
  0017a	eb 4f		 jmp	 SHORT $LN1@LoadInt_e@2
$LN83@LoadInt_e@2:
  0017c	88 4d f1	 mov	 BYTE PTR __k$[ebp+13], cl
  0017f	eb 4a		 jmp	 SHORT $LN1@LoadInt_e@2
$LN84@LoadInt_e@2:
  00181	c6 45 f0 ed	 mov	 BYTE PTR __k$[ebp+12], -19 ; ffffffedH
  00185	eb 44		 jmp	 SHORT $LN1@LoadInt_e@2
$LN85@LoadInt_e@2:
  00187	c6 45 ef ea	 mov	 BYTE PTR __k$[ebp+11], -22 ; ffffffeaH
  0018b	eb 3e		 jmp	 SHORT $LN1@LoadInt_e@2
$LN86@LoadInt_e@2:
  0018d	c6 45 ee eb	 mov	 BYTE PTR __k$[ebp+10], -21 ; ffffffebH
  00191	eb 38		 jmp	 SHORT $LN1@LoadInt_e@2
$LN87@LoadInt_e@2:
  00193	88 4d ed	 mov	 BYTE PTR __k$[ebp+9], cl
  00196	eb 33		 jmp	 SHORT $LN1@LoadInt_e@2
$LN88@LoadInt_e@2:
  00198	c6 45 ec ed	 mov	 BYTE PTR __k$[ebp+8], -19 ; ffffffedH
  0019c	eb 2d		 jmp	 SHORT $LN1@LoadInt_e@2
$LN89@LoadInt_e@2:
  0019e	c6 45 eb ea	 mov	 BYTE PTR __k$[ebp+7], -22 ; ffffffeaH
  001a2	eb 27		 jmp	 SHORT $LN1@LoadInt_e@2
$LN90@LoadInt_e@2:
  001a4	c6 45 ea eb	 mov	 BYTE PTR __k$[ebp+6], -21 ; ffffffebH
  001a8	eb 21		 jmp	 SHORT $LN1@LoadInt_e@2
$LN91@LoadInt_e@2:
  001aa	88 4d e9	 mov	 BYTE PTR __k$[ebp+5], cl
  001ad	eb 1c		 jmp	 SHORT $LN1@LoadInt_e@2
$LN92@LoadInt_e@2:
  001af	c6 45 e8 ed	 mov	 BYTE PTR __k$[ebp+4], -19 ; ffffffedH
  001b3	eb 16		 jmp	 SHORT $LN1@LoadInt_e@2
$LN93@LoadInt_e@2:
  001b5	c6 45 e7 ea	 mov	 BYTE PTR __k$[ebp+3], -22 ; ffffffeaH
  001b9	eb 10		 jmp	 SHORT $LN1@LoadInt_e@2
$LN94@LoadInt_e@2:
  001bb	c6 45 e6 eb	 mov	 BYTE PTR __k$[ebp+2], -21 ; ffffffebH
  001bf	eb 0a		 jmp	 SHORT $LN1@LoadInt_e@2
$LN95@LoadInt_e@2:
  001c1	c6 45 e5 ec	 mov	 BYTE PTR __k$[ebp+1], -20 ; ffffffecH
  001c5	eb 04		 jmp	 SHORT $LN1@LoadInt_e@2
$LN96@LoadInt_e@2:
  001c7	c6 45 e4 ed	 mov	 BYTE PTR __k$[ebp], -19	; ffffffedH
$LN1@LoadInt_e@2:
  001cb	6a 04		 push	 4
  001cd	8d 45 e4	 lea	 eax, DWORD PTR __k$[ebp]
  001d0	c6 45 f4 00	 mov	 BYTE PTR __k$[ebp+16], 0
  001d4	5a		 pop	 edx
$LL104@LoadInt_e@2:
  001d5	81 30 ed ec eb
	ea		 xor	 DWORD PTR [eax], -353637139 ; eaebecedH
  001db	83 c0 04	 add	 eax, 4
  001de	4a		 dec	 edx
  001df	75 f4		 jne	 SHORT $LL104@LoadInt_e@2

; 120  : 		return LoadInt(_k, i);

  001e1	ff 75 0c	 push	 DWORD PTR _i$[ebp]
  001e4	8d 45 e4	 lea	 eax, DWORD PTR __k$[ebp]
  001e7	50		 push	 eax
  001e8	8b ce		 mov	 ecx, esi
  001ea	ff 15 00 00 00
	00		 call	 DWORD PTR __imp_?LoadInt@ioINILoader@@QAEHPBDH@Z

; 121  : 	}

  001f0	8b 4d fc	 mov	 ecx, DWORD PTR __$ArrayPad$[ebp]
  001f3	33 cd		 xor	 ecx, ebp
  001f5	5e		 pop	 esi
  001f6	e8 00 00 00 00	 call	 @__security_check_cookie@4
  001fb	c9		 leave
  001fc	c2 08 00	 ret	 8
??$LoadInt_e@$0BB@@ioINILoader@@QAEHAAY0BB@$$CBDH@Z ENDP ; ioINILoader::LoadInt_e<17>
_TEXT	ENDS
PUBLIC	__$ArrayPad$
PUBLIC	??$LoadFloat_e@$0BB@@ioINILoader@@QAEMAAY0BB@$$CBDM@Z ; ioINILoader::LoadFloat_e<17>
; Function compile flags: /Ogsp
;	COMDAT ??$LoadFloat_e@$0BB@@ioINILoader@@QAEMAAY0BB@$$CBDM@Z
_TEXT	SEGMENT
__k$ = -28						; size = 17
__$ArrayPad$ = -4					; size = 4
_k$ = 8							; size = 4
_f$ = 12						; size = 4
??$LoadFloat_e@$0BB@@ioINILoader@@QAEMAAY0BB@$$CBDM@Z PROC ; ioINILoader::LoadFloat_e<17>, COMDAT
; _this$ = ecx

; 135  : 	{

  00000	55		 push	 ebp
  00001	8b ec		 mov	 ebp, esp
  00003	83 ec 1c	 sub	 esp, 28			; 0000001cH
  00006	a1 00 00 00 00	 mov	 eax, DWORD PTR ___security_cookie
  0000b	33 c5		 xor	 eax, ebp
  0000d	89 45 fc	 mov	 DWORD PTR __$ArrayPad$[ebp], eax
  00010	8b 45 08	 mov	 eax, DWORD PTR _k$[ebp]

; 136  : 		_ENCSTR(k, _k);

  00013	8a 10		 mov	 dl, BYTE PTR [eax]
  00015	56		 push	 esi
  00016	8b f1		 mov	 esi, ecx
  00018	84 d2		 test	 dl, dl
  0001a	0f 84 a7 01 00
	00		 je	 $LN96@LoadFloat_@6
  00020	80 f2 ed	 xor	 dl, -19			; ffffffedH
  00023	88 55 e4	 mov	 BYTE PTR __k$[ebp], dl
  00026	8a 50 01	 mov	 dl, BYTE PTR [eax+1]
  00029	84 d2		 test	 dl, dl
  0002b	0f 84 90 01 00
	00		 je	 $LN95@LoadFloat_@6
  00031	b1 ec		 mov	 cl, -20			; ffffffecH
  00033	32 d1		 xor	 dl, cl
  00035	88 55 e5	 mov	 BYTE PTR __k$[ebp+1], dl
  00038	8a 50 02	 mov	 dl, BYTE PTR [eax+2]
  0003b	84 d2		 test	 dl, dl
  0003d	0f 84 78 01 00
	00		 je	 $LN94@LoadFloat_@6
  00043	80 f2 eb	 xor	 dl, -21			; ffffffebH
  00046	88 55 e6	 mov	 BYTE PTR __k$[ebp+2], dl
  00049	8a 50 03	 mov	 dl, BYTE PTR [eax+3]
  0004c	84 d2		 test	 dl, dl
  0004e	0f 84 61 01 00
	00		 je	 $LN93@LoadFloat_@6
  00054	80 f2 ea	 xor	 dl, -22			; ffffffeaH
  00057	88 55 e7	 mov	 BYTE PTR __k$[ebp+3], dl
  0005a	8a 50 04	 mov	 dl, BYTE PTR [eax+4]
  0005d	84 d2		 test	 dl, dl
  0005f	0f 84 4a 01 00
	00		 je	 $LN92@LoadFloat_@6
  00065	80 f2 ed	 xor	 dl, -19			; ffffffedH
  00068	88 55 e8	 mov	 BYTE PTR __k$[ebp+4], dl
  0006b	8a 50 05	 mov	 dl, BYTE PTR [eax+5]
  0006e	84 d2		 test	 dl, dl
  00070	0f 84 34 01 00
	00		 je	 $LN91@LoadFloat_@6
  00076	32 d1		 xor	 dl, cl
  00078	88 55 e9	 mov	 BYTE PTR __k$[ebp+5], dl
  0007b	8a 50 06	 mov	 dl, BYTE PTR [eax+6]
  0007e	84 d2		 test	 dl, dl
  00080	0f 84 1e 01 00
	00		 je	 $LN90@LoadFloat_@6
  00086	80 f2 eb	 xor	 dl, -21			; ffffffebH
  00089	88 55 ea	 mov	 BYTE PTR __k$[ebp+6], dl
  0008c	8a 50 07	 mov	 dl, BYTE PTR [eax+7]
  0008f	84 d2		 test	 dl, dl
  00091	0f 84 07 01 00
	00		 je	 $LN89@LoadFloat_@6
  00097	80 f2 ea	 xor	 dl, -22			; ffffffeaH
  0009a	88 55 eb	 mov	 BYTE PTR __k$[ebp+7], dl
  0009d	8a 50 08	 mov	 dl, BYTE PTR [eax+8]
  000a0	84 d2		 test	 dl, dl
  000a2	0f 84 f0 00 00
	00		 je	 $LN88@LoadFloat_@6
  000a8	80 f2 ed	 xor	 dl, -19			; ffffffedH
  000ab	88 55 ec	 mov	 BYTE PTR __k$[ebp+8], dl
  000ae	8a 50 09	 mov	 dl, BYTE PTR [eax+9]
  000b1	84 d2		 test	 dl, dl
  000b3	0f 84 da 00 00
	00		 je	 $LN87@LoadFloat_@6
  000b9	32 d1		 xor	 dl, cl
  000bb	88 55 ed	 mov	 BYTE PTR __k$[ebp+9], dl
  000be	8a 50 0a	 mov	 dl, BYTE PTR [eax+10]
  000c1	84 d2		 test	 dl, dl
  000c3	0f 84 c4 00 00
	00		 je	 $LN86@LoadFloat_@6
  000c9	80 f2 eb	 xor	 dl, -21			; ffffffebH
  000cc	88 55 ee	 mov	 BYTE PTR __k$[ebp+10], dl
  000cf	8a 50 0b	 mov	 dl, BYTE PTR [eax+11]
  000d2	84 d2		 test	 dl, dl
  000d4	0f 84 ad 00 00
	00		 je	 $LN85@LoadFloat_@6
  000da	80 f2 ea	 xor	 dl, -22			; ffffffeaH
  000dd	88 55 ef	 mov	 BYTE PTR __k$[ebp+11], dl
  000e0	8a 50 0c	 mov	 dl, BYTE PTR [eax+12]
  000e3	84 d2		 test	 dl, dl
  000e5	0f 84 96 00 00
	00		 je	 $LN84@LoadFloat_@6
  000eb	80 f2 ed	 xor	 dl, -19			; ffffffedH
  000ee	88 55 f0	 mov	 BYTE PTR __k$[ebp+12], dl
  000f1	8a 50 0d	 mov	 dl, BYTE PTR [eax+13]
  000f4	84 d2		 test	 dl, dl
  000f6	0f 84 80 00 00
	00		 je	 $LN83@LoadFloat_@6
  000fc	32 d1		 xor	 dl, cl
  000fe	88 55 f1	 mov	 BYTE PTR __k$[ebp+13], dl
  00101	8a 50 0e	 mov	 dl, BYTE PTR [eax+14]
  00104	84 d2		 test	 dl, dl
  00106	74 6e		 je	 SHORT $LN82@LoadFloat_@6
  00108	80 f2 eb	 xor	 dl, -21			; ffffffebH
  0010b	88 55 f2	 mov	 BYTE PTR __k$[ebp+14], dl
  0010e	8a 50 0f	 mov	 dl, BYTE PTR [eax+15]
  00111	84 d2		 test	 dl, dl
  00113	74 5b		 je	 SHORT $LN81@LoadFloat_@6
  00115	80 f2 ea	 xor	 dl, -22			; ffffffeaH
  00118	80 78 10 00	 cmp	 BYTE PTR [eax+16], 0
  0011c	88 55 f3	 mov	 BYTE PTR __k$[ebp+15], dl
  0011f	0f 84 a6 00 00
	00		 je	 $LN1@LoadFloat_@6
  00125	8a 50 11	 mov	 dl, BYTE PTR [eax+17]
  00128	84 d2		 test	 dl, dl
  0012a	74 3f		 je	 SHORT $LN79@LoadFloat_@6
  0012c	32 d1		 xor	 dl, cl
  0012e	88 55 f5	 mov	 BYTE PTR __k$[ebp+17], dl
  00131	8a 50 12	 mov	 dl, BYTE PTR [eax+18]
  00134	84 d2		 test	 dl, dl
  00136	74 2d		 je	 SHORT $LN78@LoadFloat_@6
  00138	80 f2 eb	 xor	 dl, -21			; ffffffebH
  0013b	88 55 f6	 mov	 BYTE PTR __k$[ebp+18], dl
  0013e	8a 50 13	 mov	 dl, BYTE PTR [eax+19]
  00141	84 d2		 test	 dl, dl
  00143	74 1a		 je	 SHORT $LN77@LoadFloat_@6
  00145	8a 40 14	 mov	 al, BYTE PTR [eax+20]
  00148	80 f2 ea	 xor	 dl, -22			; ffffffeaH
  0014b	88 55 f7	 mov	 BYTE PTR __k$[ebp+19], dl
  0014e	84 c0		 test	 al, al
  00150	74 07		 je	 SHORT $LN76@LoadFloat_@6
  00152	34 ed		 xor	 al, -19			; ffffffedH
  00154	88 45 f8	 mov	 BYTE PTR __k$[ebp+20], al
  00157	eb 72		 jmp	 SHORT $LN1@LoadFloat_@6
$LN76@LoadFloat_@6:
  00159	c6 45 f8 ed	 mov	 BYTE PTR __k$[ebp+20], -19 ; ffffffedH
  0015d	eb 6c		 jmp	 SHORT $LN1@LoadFloat_@6
$LN77@LoadFloat_@6:
  0015f	c6 45 f7 ea	 mov	 BYTE PTR __k$[ebp+19], -22 ; ffffffeaH
  00163	eb 66		 jmp	 SHORT $LN1@LoadFloat_@6
$LN78@LoadFloat_@6:
  00165	c6 45 f6 eb	 mov	 BYTE PTR __k$[ebp+18], -21 ; ffffffebH
  00169	eb 60		 jmp	 SHORT $LN1@LoadFloat_@6
$LN79@LoadFloat_@6:
  0016b	88 4d f5	 mov	 BYTE PTR __k$[ebp+17], cl
  0016e	eb 5b		 jmp	 SHORT $LN1@LoadFloat_@6
$LN81@LoadFloat_@6:
  00170	c6 45 f3 ea	 mov	 BYTE PTR __k$[ebp+15], -22 ; ffffffeaH
  00174	eb 55		 jmp	 SHORT $LN1@LoadFloat_@6
$LN82@LoadFloat_@6:
  00176	c6 45 f2 eb	 mov	 BYTE PTR __k$[ebp+14], -21 ; ffffffebH
  0017a	eb 4f		 jmp	 SHORT $LN1@LoadFloat_@6
$LN83@LoadFloat_@6:
  0017c	88 4d f1	 mov	 BYTE PTR __k$[ebp+13], cl
  0017f	eb 4a		 jmp	 SHORT $LN1@LoadFloat_@6
$LN84@LoadFloat_@6:
  00181	c6 45 f0 ed	 mov	 BYTE PTR __k$[ebp+12], -19 ; ffffffedH
  00185	eb 44		 jmp	 SHORT $LN1@LoadFloat_@6
$LN85@LoadFloat_@6:
  00187	c6 45 ef ea	 mov	 BYTE PTR __k$[ebp+11], -22 ; ffffffeaH
  0018b	eb 3e		 jmp	 SHORT $LN1@LoadFloat_@6
$LN86@LoadFloat_@6:
  0018d	c6 45 ee eb	 mov	 BYTE PTR __k$[ebp+10], -21 ; ffffffebH
  00191	eb 38		 jmp	 SHORT $LN1@LoadFloat_@6
$LN87@LoadFloat_@6:
  00193	88 4d ed	 mov	 BYTE PTR __k$[ebp+9], cl
  00196	eb 33		 jmp	 SHORT $LN1@LoadFloat_@6
$LN88@LoadFloat_@6:
  00198	c6 45 ec ed	 mov	 BYTE PTR __k$[ebp+8], -19 ; ffffffedH
  0019c	eb 2d		 jmp	 SHORT $LN1@LoadFloat_@6
$LN89@LoadFloat_@6:
  0019e	c6 45 eb ea	 mov	 BYTE PTR __k$[ebp+7], -22 ; ffffffeaH
  001a2	eb 27		 jmp	 SHORT $LN1@LoadFloat_@6
$LN90@LoadFloat_@6:
  001a4	c6 45 ea eb	 mov	 BYTE PTR __k$[ebp+6], -21 ; ffffffebH
  001a8	eb 21		 jmp	 SHORT $LN1@LoadFloat_@6
$LN91@LoadFloat_@6:
  001aa	88 4d e9	 mov	 BYTE PTR __k$[ebp+5], cl
  001ad	eb 1c		 jmp	 SHORT $LN1@LoadFloat_@6
$LN92@LoadFloat_@6:
  001af	c6 45 e8 ed	 mov	 BYTE PTR __k$[ebp+4], -19 ; ffffffedH
  001b3	eb 16		 jmp	 SHORT $LN1@LoadFloat_@6
$LN93@LoadFloat_@6:
  001b5	c6 45 e7 ea	 mov	 BYTE PTR __k$[ebp+3], -22 ; ffffffeaH
  001b9	eb 10		 jmp	 SHORT $LN1@LoadFloat_@6
$LN94@LoadFloat_@6:
  001bb	c6 45 e6 eb	 mov	 BYTE PTR __k$[ebp+2], -21 ; ffffffebH
  001bf	eb 0a		 jmp	 SHORT $LN1@LoadFloat_@6
$LN95@LoadFloat_@6:
  001c1	c6 45 e5 ec	 mov	 BYTE PTR __k$[ebp+1], -20 ; ffffffecH
  001c5	eb 04		 jmp	 SHORT $LN1@LoadFloat_@6
$LN96@LoadFloat_@6:
  001c7	c6 45 e4 ed	 mov	 BYTE PTR __k$[ebp], -19	; ffffffedH
$LN1@LoadFloat_@6:
  001cb	6a 04		 push	 4
  001cd	8d 45 e4	 lea	 eax, DWORD PTR __k$[ebp]
  001d0	c6 45 f4 00	 mov	 BYTE PTR __k$[ebp+16], 0
  001d4	5a		 pop	 edx
$LL104@LoadFloat_@6:
  001d5	81 30 ed ec eb
	ea		 xor	 DWORD PTR [eax], -353637139 ; eaebecedH
  001db	83 c0 04	 add	 eax, 4
  001de	4a		 dec	 edx
  001df	75 f4		 jne	 SHORT $LL104@LoadFloat_@6

; 137  : 		return LoadFloat(_k, f);

  001e1	f3 0f 10 45 0c	 movss	 xmm0, DWORD PTR _f$[ebp]
  001e6	51		 push	 ecx
  001e7	8d 45 e4	 lea	 eax, DWORD PTR __k$[ebp]
  001ea	f3 0f 11 04 24	 movss	 DWORD PTR [esp], xmm0
  001ef	50		 push	 eax
  001f0	8b ce		 mov	 ecx, esi
  001f2	ff 15 00 00 00
	00		 call	 DWORD PTR __imp_?LoadFloat@ioINILoader@@QAEMPBDM@Z

; 138  : 	}

  001f8	8b 4d fc	 mov	 ecx, DWORD PTR __$ArrayPad$[ebp]
  001fb	33 cd		 xor	 ecx, ebp
  001fd	5e		 pop	 esi
  001fe	e8 00 00 00 00	 call	 @__security_check_cookie@4
  00203	c9		 leave
  00204	c2 08 00	 ret	 8
??$LoadFloat_e@$0BB@@ioINILoader@@QAEMAAY0BB@$$CBDM@Z ENDP ; ioINILoader::LoadFloat_e<17>
_TEXT	ENDS
PUBLIC	__$ArrayPad$
PUBLIC	??$LoadFloat_e@$0BC@@ioINILoader@@QAEMAAY0BC@$$CBDM@Z ; ioINILoader::LoadFloat_e<18>
; Function compile flags: /Ogsp
;	COMDAT ??$LoadFloat_e@$0BC@@ioINILoader@@QAEMAAY0BC@$$CBDM@Z
_TEXT	SEGMENT
__k$ = -28						; size = 18
__$ArrayPad$ = -4					; size = 4
_k$ = 8							; size = 4
_f$ = 12						; size = 4
??$LoadFloat_e@$0BC@@ioINILoader@@QAEMAAY0BC@$$CBDM@Z PROC ; ioINILoader::LoadFloat_e<18>, COMDAT
; _this$ = ecx

; 135  : 	{

  00000	55		 push	 ebp
  00001	8b ec		 mov	 ebp, esp
  00003	83 ec 1c	 sub	 esp, 28			; 0000001cH
  00006	a1 00 00 00 00	 mov	 eax, DWORD PTR ___security_cookie
  0000b	33 c5		 xor	 eax, ebp
  0000d	89 45 fc	 mov	 DWORD PTR __$ArrayPad$[ebp], eax
  00010	8b 45 08	 mov	 eax, DWORD PTR _k$[ebp]

; 136  : 		_ENCSTR(k, _k);

  00013	8a 10		 mov	 dl, BYTE PTR [eax]
  00015	56		 push	 esi
  00016	8b f1		 mov	 esi, ecx
  00018	84 d2		 test	 dl, dl
  0001a	0f 84 be 01 00
	00		 je	 $LN96@LoadFloat_@7
  00020	80 f2 ed	 xor	 dl, -19			; ffffffedH
  00023	88 55 e4	 mov	 BYTE PTR __k$[ebp], dl
  00026	8a 50 01	 mov	 dl, BYTE PTR [eax+1]
  00029	84 d2		 test	 dl, dl
  0002b	0f 84 a7 01 00
	00		 je	 $LN95@LoadFloat_@7
  00031	80 f2 ec	 xor	 dl, -20			; ffffffecH
  00034	88 55 e5	 mov	 BYTE PTR __k$[ebp+1], dl
  00037	8a 50 02	 mov	 dl, BYTE PTR [eax+2]
  0003a	84 d2		 test	 dl, dl
  0003c	0f 84 90 01 00
	00		 je	 $LN94@LoadFloat_@7
  00042	b1 eb		 mov	 cl, -21			; ffffffebH
  00044	32 d1		 xor	 dl, cl
  00046	88 55 e6	 mov	 BYTE PTR __k$[ebp+2], dl
  00049	8a 50 03	 mov	 dl, BYTE PTR [eax+3]
  0004c	84 d2		 test	 dl, dl
  0004e	0f 84 78 01 00
	00		 je	 $LN93@LoadFloat_@7
  00054	80 f2 ea	 xor	 dl, -22			; ffffffeaH
  00057	88 55 e7	 mov	 BYTE PTR __k$[ebp+3], dl
  0005a	8a 50 04	 mov	 dl, BYTE PTR [eax+4]
  0005d	84 d2		 test	 dl, dl
  0005f	0f 84 61 01 00
	00		 je	 $LN92@LoadFloat_@7
  00065	80 f2 ed	 xor	 dl, -19			; ffffffedH
  00068	88 55 e8	 mov	 BYTE PTR __k$[ebp+4], dl
  0006b	8a 50 05	 mov	 dl, BYTE PTR [eax+5]
  0006e	84 d2		 test	 dl, dl
  00070	0f 84 4a 01 00
	00		 je	 $LN91@LoadFloat_@7
  00076	80 f2 ec	 xor	 dl, -20			; ffffffecH
  00079	88 55 e9	 mov	 BYTE PTR __k$[ebp+5], dl
  0007c	8a 50 06	 mov	 dl, BYTE PTR [eax+6]
  0007f	84 d2		 test	 dl, dl
  00081	0f 84 34 01 00
	00		 je	 $LN90@LoadFloat_@7
  00087	32 d1		 xor	 dl, cl
  00089	88 55 ea	 mov	 BYTE PTR __k$[ebp+6], dl
  0008c	8a 50 07	 mov	 dl, BYTE PTR [eax+7]
  0008f	84 d2		 test	 dl, dl
  00091	0f 84 1e 01 00
	00		 je	 $LN89@LoadFloat_@7
  00097	80 f2 ea	 xor	 dl, -22			; ffffffeaH
  0009a	88 55 eb	 mov	 BYTE PTR __k$[ebp+7], dl
  0009d	8a 50 08	 mov	 dl, BYTE PTR [eax+8]
  000a0	84 d2		 test	 dl, dl
  000a2	0f 84 07 01 00
	00		 je	 $LN88@LoadFloat_@7
  000a8	80 f2 ed	 xor	 dl, -19			; ffffffedH
  000ab	88 55 ec	 mov	 BYTE PTR __k$[ebp+8], dl
  000ae	8a 50 09	 mov	 dl, BYTE PTR [eax+9]
  000b1	84 d2		 test	 dl, dl
  000b3	0f 84 f0 00 00
	00		 je	 $LN87@LoadFloat_@7
  000b9	80 f2 ec	 xor	 dl, -20			; ffffffecH
  000bc	88 55 ed	 mov	 BYTE PTR __k$[ebp+9], dl
  000bf	8a 50 0a	 mov	 dl, BYTE PTR [eax+10]
  000c2	84 d2		 test	 dl, dl
  000c4	0f 84 da 00 00
	00		 je	 $LN86@LoadFloat_@7
  000ca	32 d1		 xor	 dl, cl
  000cc	88 55 ee	 mov	 BYTE PTR __k$[ebp+10], dl
  000cf	8a 50 0b	 mov	 dl, BYTE PTR [eax+11]
  000d2	84 d2		 test	 dl, dl
  000d4	0f 84 c4 00 00
	00		 je	 $LN85@LoadFloat_@7
  000da	80 f2 ea	 xor	 dl, -22			; ffffffeaH
  000dd	88 55 ef	 mov	 BYTE PTR __k$[ebp+11], dl
  000e0	8a 50 0c	 mov	 dl, BYTE PTR [eax+12]
  000e3	84 d2		 test	 dl, dl
  000e5	0f 84 ad 00 00
	00		 je	 $LN84@LoadFloat_@7
  000eb	80 f2 ed	 xor	 dl, -19			; ffffffedH
  000ee	88 55 f0	 mov	 BYTE PTR __k$[ebp+12], dl
  000f1	8a 50 0d	 mov	 dl, BYTE PTR [eax+13]
  000f4	84 d2		 test	 dl, dl
  000f6	0f 84 96 00 00
	00		 je	 $LN83@LoadFloat_@7
  000fc	80 f2 ec	 xor	 dl, -20			; ffffffecH
  000ff	88 55 f1	 mov	 BYTE PTR __k$[ebp+13], dl
  00102	8a 50 0e	 mov	 dl, BYTE PTR [eax+14]
  00105	84 d2		 test	 dl, dl
  00107	0f 84 80 00 00
	00		 je	 $LN82@LoadFloat_@7
  0010d	32 d1		 xor	 dl, cl
  0010f	88 55 f2	 mov	 BYTE PTR __k$[ebp+14], dl
  00112	8a 50 0f	 mov	 dl, BYTE PTR [eax+15]
  00115	84 d2		 test	 dl, dl
  00117	74 6e		 je	 SHORT $LN81@LoadFloat_@7
  00119	80 f2 ea	 xor	 dl, -22			; ffffffeaH
  0011c	88 55 f3	 mov	 BYTE PTR __k$[ebp+15], dl
  0011f	8a 50 10	 mov	 dl, BYTE PTR [eax+16]
  00122	84 d2		 test	 dl, dl
  00124	74 5b		 je	 SHORT $LN80@LoadFloat_@7
  00126	80 f2 ed	 xor	 dl, -19			; ffffffedH
  00129	80 78 11 00	 cmp	 BYTE PTR [eax+17], 0
  0012d	88 55 f4	 mov	 BYTE PTR __k$[ebp+16], dl
  00130	0f 84 ac 00 00
	00		 je	 $LN1@LoadFloat_@7
  00136	8a 50 12	 mov	 dl, BYTE PTR [eax+18]
  00139	84 d2		 test	 dl, dl
  0013b	74 3f		 je	 SHORT $LN78@LoadFloat_@7
  0013d	32 d1		 xor	 dl, cl
  0013f	88 55 f6	 mov	 BYTE PTR __k$[ebp+18], dl
  00142	8a 50 13	 mov	 dl, BYTE PTR [eax+19]
  00145	84 d2		 test	 dl, dl
  00147	74 2d		 je	 SHORT $LN77@LoadFloat_@7
  00149	80 f2 ea	 xor	 dl, -22			; ffffffeaH
  0014c	88 55 f7	 mov	 BYTE PTR __k$[ebp+19], dl
  0014f	8a 50 14	 mov	 dl, BYTE PTR [eax+20]
  00152	84 d2		 test	 dl, dl
  00154	74 1a		 je	 SHORT $LN76@LoadFloat_@7
  00156	8a 40 15	 mov	 al, BYTE PTR [eax+21]
  00159	80 f2 ed	 xor	 dl, -19			; ffffffedH
  0015c	88 55 f8	 mov	 BYTE PTR __k$[ebp+20], dl
  0015f	84 c0		 test	 al, al
  00161	74 07		 je	 SHORT $LN75@LoadFloat_@7
  00163	34 ec		 xor	 al, -20			; ffffffecH
  00165	88 45 f9	 mov	 BYTE PTR __k$[ebp+21], al
  00168	eb 78		 jmp	 SHORT $LN1@LoadFloat_@7
$LN75@LoadFloat_@7:
  0016a	c6 45 f9 ec	 mov	 BYTE PTR __k$[ebp+21], -20 ; ffffffecH
  0016e	eb 72		 jmp	 SHORT $LN1@LoadFloat_@7
$LN76@LoadFloat_@7:
  00170	c6 45 f8 ed	 mov	 BYTE PTR __k$[ebp+20], -19 ; ffffffedH
  00174	eb 6c		 jmp	 SHORT $LN1@LoadFloat_@7
$LN77@LoadFloat_@7:
  00176	c6 45 f7 ea	 mov	 BYTE PTR __k$[ebp+19], -22 ; ffffffeaH
  0017a	eb 66		 jmp	 SHORT $LN1@LoadFloat_@7
$LN78@LoadFloat_@7:
  0017c	88 4d f6	 mov	 BYTE PTR __k$[ebp+18], cl
  0017f	eb 61		 jmp	 SHORT $LN1@LoadFloat_@7
$LN80@LoadFloat_@7:
  00181	c6 45 f4 ed	 mov	 BYTE PTR __k$[ebp+16], -19 ; ffffffedH
  00185	eb 5b		 jmp	 SHORT $LN1@LoadFloat_@7
$LN81@LoadFloat_@7:
  00187	c6 45 f3 ea	 mov	 BYTE PTR __k$[ebp+15], -22 ; ffffffeaH
  0018b	eb 55		 jmp	 SHORT $LN1@LoadFloat_@7
$LN82@LoadFloat_@7:
  0018d	88 4d f2	 mov	 BYTE PTR __k$[ebp+14], cl
  00190	eb 50		 jmp	 SHORT $LN1@LoadFloat_@7
$LN83@LoadFloat_@7:
  00192	c6 45 f1 ec	 mov	 BYTE PTR __k$[ebp+13], -20 ; ffffffecH
  00196	eb 4a		 jmp	 SHORT $LN1@LoadFloat_@7
$LN84@LoadFloat_@7:
  00198	c6 45 f0 ed	 mov	 BYTE PTR __k$[ebp+12], -19 ; ffffffedH
  0019c	eb 44		 jmp	 SHORT $LN1@LoadFloat_@7
$LN85@LoadFloat_@7:
  0019e	c6 45 ef ea	 mov	 BYTE PTR __k$[ebp+11], -22 ; ffffffeaH
  001a2	eb 3e		 jmp	 SHORT $LN1@LoadFloat_@7
$LN86@LoadFloat_@7:
  001a4	88 4d ee	 mov	 BYTE PTR __k$[ebp+10], cl
  001a7	eb 39		 jmp	 SHORT $LN1@LoadFloat_@7
$LN87@LoadFloat_@7:
  001a9	c6 45 ed ec	 mov	 BYTE PTR __k$[ebp+9], -20 ; ffffffecH
  001ad	eb 33		 jmp	 SHORT $LN1@LoadFloat_@7
$LN88@LoadFloat_@7:
  001af	c6 45 ec ed	 mov	 BYTE PTR __k$[ebp+8], -19 ; ffffffedH
  001b3	eb 2d		 jmp	 SHORT $LN1@LoadFloat_@7
$LN89@LoadFloat_@7:
  001b5	c6 45 eb ea	 mov	 BYTE PTR __k$[ebp+7], -22 ; ffffffeaH
  001b9	eb 27		 jmp	 SHORT $LN1@LoadFloat_@7
$LN90@LoadFloat_@7:
  001bb	88 4d ea	 mov	 BYTE PTR __k$[ebp+6], cl
  001be	eb 22		 jmp	 SHORT $LN1@LoadFloat_@7
$LN91@LoadFloat_@7:
  001c0	c6 45 e9 ec	 mov	 BYTE PTR __k$[ebp+5], -20 ; ffffffecH
  001c4	eb 1c		 jmp	 SHORT $LN1@LoadFloat_@7
$LN92@LoadFloat_@7:
  001c6	c6 45 e8 ed	 mov	 BYTE PTR __k$[ebp+4], -19 ; ffffffedH
  001ca	eb 16		 jmp	 SHORT $LN1@LoadFloat_@7
$LN93@LoadFloat_@7:
  001cc	c6 45 e7 ea	 mov	 BYTE PTR __k$[ebp+3], -22 ; ffffffeaH
  001d0	eb 10		 jmp	 SHORT $LN1@LoadFloat_@7
$LN94@LoadFloat_@7:
  001d2	c6 45 e6 eb	 mov	 BYTE PTR __k$[ebp+2], -21 ; ffffffebH
  001d6	eb 0a		 jmp	 SHORT $LN1@LoadFloat_@7
$LN95@LoadFloat_@7:
  001d8	c6 45 e5 ec	 mov	 BYTE PTR __k$[ebp+1], -20 ; ffffffecH
  001dc	eb 04		 jmp	 SHORT $LN1@LoadFloat_@7
$LN96@LoadFloat_@7:
  001de	c6 45 e4 ed	 mov	 BYTE PTR __k$[ebp], -19	; ffffffedH
$LN1@LoadFloat_@7:
  001e2	6a 04		 push	 4
  001e4	8d 45 e4	 lea	 eax, DWORD PTR __k$[ebp]
  001e7	c6 45 f5 00	 mov	 BYTE PTR __k$[ebp+17], 0
  001eb	5a		 pop	 edx
$LL104@LoadFloat_@7:
  001ec	81 30 ed ec eb
	ea		 xor	 DWORD PTR [eax], -353637139 ; eaebecedH
  001f2	83 c0 04	 add	 eax, 4
  001f5	4a		 dec	 edx
  001f6	75 f4		 jne	 SHORT $LL104@LoadFloat_@7

; 137  : 		return LoadFloat(_k, f);

  001f8	f3 0f 10 45 0c	 movss	 xmm0, DWORD PTR _f$[ebp]
  001fd	80 75 f4 ed	 xor	 BYTE PTR __k$[ebp+16], -19 ; ffffffedH
  00201	51		 push	 ecx
  00202	8d 45 e4	 lea	 eax, DWORD PTR __k$[ebp]
  00205	f3 0f 11 04 24	 movss	 DWORD PTR [esp], xmm0
  0020a	50		 push	 eax
  0020b	8b ce		 mov	 ecx, esi
  0020d	ff 15 00 00 00
	00		 call	 DWORD PTR __imp_?LoadFloat@ioINILoader@@QAEMPBDM@Z

; 138  : 	}

  00213	8b 4d fc	 mov	 ecx, DWORD PTR __$ArrayPad$[ebp]
  00216	33 cd		 xor	 ecx, ebp
  00218	5e		 pop	 esi
  00219	e8 00 00 00 00	 call	 @__security_check_cookie@4
  0021e	c9		 leave
  0021f	c2 08 00	 ret	 8
??$LoadFloat_e@$0BC@@ioINILoader@@QAEMAAY0BC@$$CBDM@Z ENDP ; ioINILoader::LoadFloat_e<18>
_TEXT	ENDS
PUBLIC	_this$GSCopy$
PUBLIC	__$ArrayPad$
PUBLIC	??$LoadString_e@$0BD@@ioINILoader@@QAEXAAY0BD@$$CBDAAY00$$CBDPADH@Z ; ioINILoader::LoadString_e<19>
EXTRN	__imp_?LoadStringA@ioINILoader@@QAEXPBD0PADH@Z:PROC
; Function compile flags: /Ogsp
;	COMDAT ??$LoadString_e@$0BD@@ioINILoader@@QAEXAAY0BD@$$CBDAAY00$$CBDPADH@Z
_TEXT	SEGMENT
_this$GSCopy$ = -32					; size = 4
__k$ = -28						; size = 19
__$ArrayPad$ = -4					; size = 4
_k$ = 8							; size = 4
_d$ = 12						; size = 4
_b$ = 16						; size = 4
_i$ = 20						; size = 4
??$LoadString_e@$0BD@@ioINILoader@@QAEXAAY0BD@$$CBDAAY00$$CBDPADH@Z PROC ; ioINILoader::LoadString_e<19>, COMDAT
; _this$ = ecx

; 161  : 	{

  00000	55		 push	 ebp
  00001	8b ec		 mov	 ebp, esp
  00003	83 ec 20	 sub	 esp, 32			; 00000020H
  00006	a1 00 00 00 00	 mov	 eax, DWORD PTR ___security_cookie
  0000b	33 c5		 xor	 eax, ebp
  0000d	89 45 fc	 mov	 DWORD PTR __$ArrayPad$[ebp], eax
  00010	8b 45 08	 mov	 eax, DWORD PTR _k$[ebp]

; 162  : 		_ENCSTR(k, _k);

  00013	8a 10		 mov	 dl, BYTE PTR [eax]
  00015	56		 push	 esi
  00016	8b 75 0c	 mov	 esi, DWORD PTR _d$[ebp]
  00019	57		 push	 edi
  0001a	8b 7d 10	 mov	 edi, DWORD PTR _b$[ebp]
  0001d	89 4d e0	 mov	 DWORD PTR _this$GSCopy$[ebp], ecx
  00020	84 d2		 test	 dl, dl
  00022	0f 84 cf 01 00
	00		 je	 $LN96@LoadString
  00028	80 f2 ed	 xor	 dl, -19			; ffffffedH
  0002b	88 55 e4	 mov	 BYTE PTR __k$[ebp], dl
  0002e	8a 50 01	 mov	 dl, BYTE PTR [eax+1]
  00031	84 d2		 test	 dl, dl
  00033	0f 84 b8 01 00
	00		 je	 $LN95@LoadString
  00039	b1 ec		 mov	 cl, -20			; ffffffecH
  0003b	32 d1		 xor	 dl, cl
  0003d	88 55 e5	 mov	 BYTE PTR __k$[ebp+1], dl
  00040	8a 50 02	 mov	 dl, BYTE PTR [eax+2]
  00043	84 d2		 test	 dl, dl
  00045	0f 84 a0 01 00
	00		 je	 $LN94@LoadString
  0004b	80 f2 eb	 xor	 dl, -21			; ffffffebH
  0004e	88 55 e6	 mov	 BYTE PTR __k$[ebp+2], dl
  00051	8a 50 03	 mov	 dl, BYTE PTR [eax+3]
  00054	84 d2		 test	 dl, dl
  00056	0f 84 89 01 00
	00		 je	 $LN93@LoadString
  0005c	80 f2 ea	 xor	 dl, -22			; ffffffeaH
  0005f	88 55 e7	 mov	 BYTE PTR __k$[ebp+3], dl
  00062	8a 50 04	 mov	 dl, BYTE PTR [eax+4]
  00065	84 d2		 test	 dl, dl
  00067	0f 84 72 01 00
	00		 je	 $LN92@LoadString
  0006d	80 f2 ed	 xor	 dl, -19			; ffffffedH
  00070	88 55 e8	 mov	 BYTE PTR __k$[ebp+4], dl
  00073	8a 50 05	 mov	 dl, BYTE PTR [eax+5]
  00076	84 d2		 test	 dl, dl
  00078	0f 84 5c 01 00
	00		 je	 $LN91@LoadString
  0007e	32 d1		 xor	 dl, cl
  00080	88 55 e9	 mov	 BYTE PTR __k$[ebp+5], dl
  00083	8a 50 06	 mov	 dl, BYTE PTR [eax+6]
  00086	84 d2		 test	 dl, dl
  00088	0f 84 46 01 00
	00		 je	 $LN90@LoadString
  0008e	80 f2 eb	 xor	 dl, -21			; ffffffebH
  00091	88 55 ea	 mov	 BYTE PTR __k$[ebp+6], dl
  00094	8a 50 07	 mov	 dl, BYTE PTR [eax+7]
  00097	84 d2		 test	 dl, dl
  00099	0f 84 2f 01 00
	00		 je	 $LN89@LoadString
  0009f	80 f2 ea	 xor	 dl, -22			; ffffffeaH
  000a2	88 55 eb	 mov	 BYTE PTR __k$[ebp+7], dl
  000a5	8a 50 08	 mov	 dl, BYTE PTR [eax+8]
  000a8	84 d2		 test	 dl, dl
  000aa	0f 84 18 01 00
	00		 je	 $LN88@LoadString
  000b0	80 f2 ed	 xor	 dl, -19			; ffffffedH
  000b3	88 55 ec	 mov	 BYTE PTR __k$[ebp+8], dl
  000b6	8a 50 09	 mov	 dl, BYTE PTR [eax+9]
  000b9	84 d2		 test	 dl, dl
  000bb	0f 84 02 01 00
	00		 je	 $LN87@LoadString
  000c1	32 d1		 xor	 dl, cl
  000c3	88 55 ed	 mov	 BYTE PTR __k$[ebp+9], dl
  000c6	8a 50 0a	 mov	 dl, BYTE PTR [eax+10]
  000c9	84 d2		 test	 dl, dl
  000cb	0f 84 ec 00 00
	00		 je	 $LN86@LoadString
  000d1	80 f2 eb	 xor	 dl, -21			; ffffffebH
  000d4	88 55 ee	 mov	 BYTE PTR __k$[ebp+10], dl
  000d7	8a 50 0b	 mov	 dl, BYTE PTR [eax+11]
  000da	84 d2		 test	 dl, dl
  000dc	0f 84 d5 00 00
	00		 je	 $LN85@LoadString
  000e2	80 f2 ea	 xor	 dl, -22			; ffffffeaH
  000e5	88 55 ef	 mov	 BYTE PTR __k$[ebp+11], dl
  000e8	8a 50 0c	 mov	 dl, BYTE PTR [eax+12]
  000eb	84 d2		 test	 dl, dl
  000ed	0f 84 be 00 00
	00		 je	 $LN84@LoadString
  000f3	80 f2 ed	 xor	 dl, -19			; ffffffedH
  000f6	88 55 f0	 mov	 BYTE PTR __k$[ebp+12], dl
  000f9	8a 50 0d	 mov	 dl, BYTE PTR [eax+13]
  000fc	84 d2		 test	 dl, dl
  000fe	0f 84 a8 00 00
	00		 je	 $LN83@LoadString
  00104	32 d1		 xor	 dl, cl
  00106	88 55 f1	 mov	 BYTE PTR __k$[ebp+13], dl
  00109	8a 50 0e	 mov	 dl, BYTE PTR [eax+14]
  0010c	84 d2		 test	 dl, dl
  0010e	0f 84 92 00 00
	00		 je	 $LN82@LoadString
  00114	80 f2 eb	 xor	 dl, -21			; ffffffebH
  00117	88 55 f2	 mov	 BYTE PTR __k$[ebp+14], dl
  0011a	8a 50 0f	 mov	 dl, BYTE PTR [eax+15]
  0011d	84 d2		 test	 dl, dl
  0011f	74 7f		 je	 SHORT $LN81@LoadString
  00121	80 f2 ea	 xor	 dl, -22			; ffffffeaH
  00124	88 55 f3	 mov	 BYTE PTR __k$[ebp+15], dl
  00127	8a 50 10	 mov	 dl, BYTE PTR [eax+16]
  0012a	84 d2		 test	 dl, dl
  0012c	74 6c		 je	 SHORT $LN80@LoadString
  0012e	80 f2 ed	 xor	 dl, -19			; ffffffedH
  00131	88 55 f4	 mov	 BYTE PTR __k$[ebp+16], dl
  00134	8a 50 11	 mov	 dl, BYTE PTR [eax+17]
  00137	84 d2		 test	 dl, dl
  00139	74 5a		 je	 SHORT $LN79@LoadString
  0013b	32 d1		 xor	 dl, cl
  0013d	80 78 12 00	 cmp	 BYTE PTR [eax+18], 0
  00141	88 55 f5	 mov	 BYTE PTR __k$[ebp+17], dl
  00144	0f 84 b1 00 00
	00		 je	 $LN111@LoadString
  0014a	8a 50 13	 mov	 dl, BYTE PTR [eax+19]
  0014d	84 d2		 test	 dl, dl
  0014f	74 3e		 je	 SHORT $LN77@LoadString
  00151	80 f2 ea	 xor	 dl, -22			; ffffffeaH
  00154	88 55 f7	 mov	 BYTE PTR __k$[ebp+19], dl
  00157	8a 50 14	 mov	 dl, BYTE PTR [eax+20]
  0015a	84 d2		 test	 dl, dl
  0015c	74 2b		 je	 SHORT $LN76@LoadString
  0015e	80 f2 ed	 xor	 dl, -19			; ffffffedH
  00161	88 55 f8	 mov	 BYTE PTR __k$[ebp+20], dl
  00164	8a 50 15	 mov	 dl, BYTE PTR [eax+21]
  00167	84 d2		 test	 dl, dl
  00169	74 19		 je	 SHORT $LN75@LoadString
  0016b	8a 40 16	 mov	 al, BYTE PTR [eax+22]
  0016e	32 d1		 xor	 dl, cl
  00170	88 55 f9	 mov	 BYTE PTR __k$[ebp+21], dl
  00173	84 c0		 test	 al, al
  00175	74 07		 je	 SHORT $LN74@LoadString
  00177	34 eb		 xor	 al, -21			; ffffffebH
  00179	88 45 fa	 mov	 BYTE PTR __k$[ebp+22], al
  0017c	eb 7d		 jmp	 SHORT $LN111@LoadString
$LN74@LoadString:
  0017e	c6 45 fa eb	 mov	 BYTE PTR __k$[ebp+22], -21 ; ffffffebH
  00182	eb 77		 jmp	 SHORT $LN111@LoadString
$LN75@LoadString:
  00184	88 4d f9	 mov	 BYTE PTR __k$[ebp+21], cl
  00187	eb 72		 jmp	 SHORT $LN111@LoadString
$LN76@LoadString:
  00189	c6 45 f8 ed	 mov	 BYTE PTR __k$[ebp+20], -19 ; ffffffedH
  0018d	eb 6c		 jmp	 SHORT $LN111@LoadString
$LN77@LoadString:
  0018f	c6 45 f7 ea	 mov	 BYTE PTR __k$[ebp+19], -22 ; ffffffeaH
  00193	eb 66		 jmp	 SHORT $LN111@LoadString
$LN79@LoadString:
  00195	88 4d f5	 mov	 BYTE PTR __k$[ebp+17], cl
  00198	eb 61		 jmp	 SHORT $LN111@LoadString
$LN80@LoadString:
  0019a	c6 45 f4 ed	 mov	 BYTE PTR __k$[ebp+16], -19 ; ffffffedH
  0019e	eb 5b		 jmp	 SHORT $LN111@LoadString
$LN81@LoadString:
  001a0	c6 45 f3 ea	 mov	 BYTE PTR __k$[ebp+15], -22 ; ffffffeaH
  001a4	eb 55		 jmp	 SHORT $LN111@LoadString
$LN82@LoadString:
  001a6	c6 45 f2 eb	 mov	 BYTE PTR __k$[ebp+14], -21 ; ffffffebH
  001aa	eb 4f		 jmp	 SHORT $LN111@LoadString
$LN83@LoadString:
  001ac	88 4d f1	 mov	 BYTE PTR __k$[ebp+13], cl
  001af	eb 4a		 jmp	 SHORT $LN111@LoadString
$LN84@LoadString:
  001b1	c6 45 f0 ed	 mov	 BYTE PTR __k$[ebp+12], -19 ; ffffffedH
  001b5	eb 44		 jmp	 SHORT $LN111@LoadString
$LN85@LoadString:
  001b7	c6 45 ef ea	 mov	 BYTE PTR __k$[ebp+11], -22 ; ffffffeaH
  001bb	eb 3e		 jmp	 SHORT $LN111@LoadString
$LN86@LoadString:
  001bd	c6 45 ee eb	 mov	 BYTE PTR __k$[ebp+10], -21 ; ffffffebH
  001c1	eb 38		 jmp	 SHORT $LN111@LoadString
$LN87@LoadString:
  001c3	88 4d ed	 mov	 BYTE PTR __k$[ebp+9], cl
  001c6	eb 33		 jmp	 SHORT $LN111@LoadString
$LN88@LoadString:
  001c8	c6 45 ec ed	 mov	 BYTE PTR __k$[ebp+8], -19 ; ffffffedH
  001cc	eb 2d		 jmp	 SHORT $LN111@LoadString
$LN89@LoadString:
  001ce	c6 45 eb ea	 mov	 BYTE PTR __k$[ebp+7], -22 ; ffffffeaH
  001d2	eb 27		 jmp	 SHORT $LN111@LoadString
$LN90@LoadString:
  001d4	c6 45 ea eb	 mov	 BYTE PTR __k$[ebp+6], -21 ; ffffffebH
  001d8	eb 21		 jmp	 SHORT $LN111@LoadString
$LN91@LoadString:
  001da	88 4d e9	 mov	 BYTE PTR __k$[ebp+5], cl
  001dd	eb 1c		 jmp	 SHORT $LN111@LoadString
$LN92@LoadString:
  001df	c6 45 e8 ed	 mov	 BYTE PTR __k$[ebp+4], -19 ; ffffffedH
  001e3	eb 16		 jmp	 SHORT $LN111@LoadString
$LN93@LoadString:
  001e5	c6 45 e7 ea	 mov	 BYTE PTR __k$[ebp+3], -22 ; ffffffeaH
  001e9	eb 10		 jmp	 SHORT $LN111@LoadString
$LN94@LoadString:
  001eb	c6 45 e6 eb	 mov	 BYTE PTR __k$[ebp+2], -21 ; ffffffebH
  001ef	eb 0a		 jmp	 SHORT $LN111@LoadString
$LN95@LoadString:
  001f1	c6 45 e5 ec	 mov	 BYTE PTR __k$[ebp+1], -20 ; ffffffecH
  001f5	eb 04		 jmp	 SHORT $LN111@LoadString
$LN96@LoadString:
  001f7	c6 45 e4 ed	 mov	 BYTE PTR __k$[ebp], -19	; ffffffedH
$LN111@LoadString:
  001fb	6a 04		 push	 4
  001fd	8d 45 e4	 lea	 eax, DWORD PTR __k$[ebp]
  00200	c6 45 f6 00	 mov	 BYTE PTR __k$[ebp+18], 0
  00204	5a		 pop	 edx
$LL104@LoadString:
  00205	81 30 ed ec eb
	ea		 xor	 DWORD PTR [eax], -353637139 ; eaebecedH
  0020b	83 c0 04	 add	 eax, 4
  0020e	4a		 dec	 edx
  0020f	75 f4		 jne	 SHORT $LL104@LoadString
  00211	6a 10		 push	 16			; 00000010H
  00213	58		 pop	 eax
$LL101@LoadString:
  00214	8b c8		 mov	 ecx, eax
  00216	81 e1 03 00 00
	80		 and	 ecx, -2147483645	; 80000003H
  0021c	79 05		 jns	 SHORT $LN112@LoadString
  0021e	49		 dec	 ecx
  0021f	83 c9 fc	 or	 ecx, -4			; fffffffcH
  00222	41		 inc	 ecx
$LN112@LoadString:
  00223	b2 ed		 mov	 dl, -19			; ffffffedH
  00225	2a d1		 sub	 dl, cl
  00227	30 54 05 e4	 xor	 BYTE PTR __k$[ebp+eax], dl
  0022b	40		 inc	 eax
  0022c	83 f8 12	 cmp	 eax, 18			; 00000012H
  0022f	7c e3		 jl	 SHORT $LL101@LoadString

; 163  : 		LoadString(_k, d, b, i);

  00231	ff 75 14	 push	 DWORD PTR _i$[ebp]
  00234	8b 4d e0	 mov	 ecx, DWORD PTR _this$GSCopy$[ebp]
  00237	57		 push	 edi
  00238	56		 push	 esi
  00239	8d 45 e4	 lea	 eax, DWORD PTR __k$[ebp]
  0023c	50		 push	 eax
  0023d	ff 15 00 00 00
	00		 call	 DWORD PTR __imp_?LoadStringA@ioINILoader@@QAEXPBD0PADH@Z

; 164  : 	}

  00243	8b 4d fc	 mov	 ecx, DWORD PTR __$ArrayPad$[ebp]
  00246	5f		 pop	 edi
  00247	33 cd		 xor	 ecx, ebp
  00249	5e		 pop	 esi
  0024a	e8 00 00 00 00	 call	 @__security_check_cookie@4
  0024f	c9		 leave
  00250	c2 10 00	 ret	 16			; 00000010H
??$LoadString_e@$0BD@@ioINILoader@@QAEXAAY0BD@$$CBDAAY00$$CBDPADH@Z ENDP ; ioINILoader::LoadString_e<19>
_TEXT	ENDS
PUBLIC	??$GetAnimationEventTime_e@$0L@@ioEntityGroup@@QAEMHAAY0L@$$CBD@Z ; ioEntityGroup::GetAnimationEventTime_e<11>
EXTRN	__imp_?GetAnimationEventTime@ioEntityGroup@@QAEMHABVioHashString@@@Z:PROC
EXTRN	__imp_??0ioHashString@@QAE@PBD@Z:PROC
EXTRN	__EH_epilog3_GS:PROC
EXTRN	__EH_prolog3_GS:PROC
;	COMDAT xdata$x
; File d:\lost saga for developer\youtube\tutorial\source\src\lsclient\stringprotect.h
xdata$x	SEGMENT
__unwindtable$??$GetAnimationEventTime_e@$0L@@ioEntityGroup@@QAEMHAAY0L@$$CBD@Z DD 0ffffffffH
	DD	FLAT:__unwindfunclet$??$GetAnimationEventTime_e@$0L@@ioEntityGroup@@QAEMHAAY0L@$$CBD@Z$0
__ehfuncinfo$??$GetAnimationEventTime_e@$0L@@ioEntityGroup@@QAEMHAAY0L@$$CBD@Z DD 019930522H
	DD	01H
	DD	FLAT:__unwindtable$??$GetAnimationEventTime_e@$0L@@ioEntityGroup@@QAEMHAAY0L@$$CBD@Z
	DD	2 DUP(00H)
	DD	2 DUP(00H)
	DD	00H
	DD	01H
; Function compile flags: /Ogsp
; File d:\lost saga for developer\youtube\tutorial\source\src\io3dengine\ioentitygroup.h
xdata$x	ENDS
;	COMDAT ??$GetAnimationEventTime_e@$0L@@ioEntityGroup@@QAEMHAAY0L@$$CBD@Z
_TEXT	SEGMENT
$T614060 = -52						; size = 16
$T614059 = -36						; size = 4
_szEncEventType$ = -32					; size = 11
__$EHRec$ = -12						; size = 12
_id$ = 8						; size = 4
_szEventType$ = 12					; size = 4
??$GetAnimationEventTime_e@$0L@@ioEntityGroup@@QAEMHAAY0L@$$CBD@Z PROC ; ioEntityGroup::GetAnimationEventTime_e<11>, COMDAT
; _this$ = ecx

; 414  : 	{

  00000	6a 28		 push	 40			; 00000028H
  00002	b8 00 00 00 00	 mov	 eax, __ehhandler$??$GetAnimationEventTime_e@$0L@@ioEntityGroup@@QAEMHAAY0L@$$CBD@Z
  00007	e8 00 00 00 00	 call	 __EH_prolog3_GS
  0000c	8b 45 0c	 mov	 eax, DWORD PTR _szEventType$[ebp]
  0000f	8b f1		 mov	 esi, ecx

; 415  : 		_ENCSTR(szEventType, szEncEventType);

  00011	8a 08		 mov	 cl, BYTE PTR [eax]
  00013	84 c9		 test	 cl, cl
  00015	0f 84 1b 01 00
	00		 je	 $LN96@GetAnimati
  0001b	b2 ed		 mov	 dl, -19			; ffffffedH
  0001d	32 ca		 xor	 cl, dl
  0001f	88 4d e0	 mov	 BYTE PTR _szEncEventType$[ebp], cl
  00022	8a 48 01	 mov	 cl, BYTE PTR [eax+1]
  00025	84 c9		 test	 cl, cl
  00027	0f 84 03 01 00
	00		 je	 $LN95@GetAnimati
  0002d	80 f1 ec	 xor	 cl, -20			; ffffffecH
  00030	88 4d e1	 mov	 BYTE PTR _szEncEventType$[ebp+1], cl
  00033	8a 48 02	 mov	 cl, BYTE PTR [eax+2]
  00036	84 c9		 test	 cl, cl
  00038	0f 84 ec 00 00
	00		 je	 $LN94@GetAnimati
  0003e	80 f1 eb	 xor	 cl, -21			; ffffffebH
  00041	88 4d e2	 mov	 BYTE PTR _szEncEventType$[ebp+2], cl
  00044	8a 48 03	 mov	 cl, BYTE PTR [eax+3]
  00047	84 c9		 test	 cl, cl
  00049	0f 84 d5 00 00
	00		 je	 $LN93@GetAnimati
  0004f	80 f1 ea	 xor	 cl, -22			; ffffffeaH
  00052	88 4d e3	 mov	 BYTE PTR _szEncEventType$[ebp+3], cl
  00055	8a 48 04	 mov	 cl, BYTE PTR [eax+4]
  00058	84 c9		 test	 cl, cl
  0005a	0f 84 bf 00 00
	00		 je	 $LN92@GetAnimati
  00060	32 ca		 xor	 cl, dl
  00062	88 4d e4	 mov	 BYTE PTR _szEncEventType$[ebp+4], cl
  00065	8a 48 05	 mov	 cl, BYTE PTR [eax+5]
  00068	84 c9		 test	 cl, cl
  0006a	0f 84 a9 00 00
	00		 je	 $LN91@GetAnimati
  00070	80 f1 ec	 xor	 cl, -20			; ffffffecH
  00073	88 4d e5	 mov	 BYTE PTR _szEncEventType$[ebp+5], cl
  00076	8a 48 06	 mov	 cl, BYTE PTR [eax+6]
  00079	84 c9		 test	 cl, cl
  0007b	0f 84 92 00 00
	00		 je	 $LN90@GetAnimati
  00081	80 f1 eb	 xor	 cl, -21			; ffffffebH
  00084	88 4d e6	 mov	 BYTE PTR _szEncEventType$[ebp+6], cl
  00087	8a 48 07	 mov	 cl, BYTE PTR [eax+7]
  0008a	84 c9		 test	 cl, cl
  0008c	74 7f		 je	 SHORT $LN89@GetAnimati
  0008e	80 f1 ea	 xor	 cl, -22			; ffffffeaH
  00091	88 4d e7	 mov	 BYTE PTR _szEncEventType$[ebp+7], cl
  00094	8a 48 08	 mov	 cl, BYTE PTR [eax+8]
  00097	84 c9		 test	 cl, cl
  00099	74 6d		 je	 SHORT $LN88@GetAnimati
  0009b	32 ca		 xor	 cl, dl
  0009d	88 4d e8	 mov	 BYTE PTR _szEncEventType$[ebp+8], cl
  000a0	8a 48 09	 mov	 cl, BYTE PTR [eax+9]
  000a3	84 c9		 test	 cl, cl
  000a5	74 5b		 je	 SHORT $LN87@GetAnimati
  000a7	80 f1 ec	 xor	 cl, -20			; ffffffecH
  000aa	80 78 0a 00	 cmp	 BYTE PTR [eax+10], 0
  000ae	88 4d e9	 mov	 BYTE PTR _szEncEventType$[ebp+9], cl
  000b1	0f 84 83 00 00
	00		 je	 $LN1@GetAnimati
  000b7	8a 48 0b	 mov	 cl, BYTE PTR [eax+11]
  000ba	84 c9		 test	 cl, cl
  000bc	74 3e		 je	 SHORT $LN85@GetAnimati
  000be	80 f1 ea	 xor	 cl, -22			; ffffffeaH
  000c1	88 4d eb	 mov	 BYTE PTR _szEncEventType$[ebp+11], cl
  000c4	8a 48 0c	 mov	 cl, BYTE PTR [eax+12]
  000c7	84 c9		 test	 cl, cl
  000c9	74 2c		 je	 SHORT $LN84@GetAnimati
  000cb	32 ca		 xor	 cl, dl
  000cd	88 4d ec	 mov	 BYTE PTR _szEncEventType$[ebp+12], cl
  000d0	8a 48 0d	 mov	 cl, BYTE PTR [eax+13]
  000d3	84 c9		 test	 cl, cl
  000d5	74 1a		 je	 SHORT $LN83@GetAnimati
  000d7	8a 40 0e	 mov	 al, BYTE PTR [eax+14]
  000da	80 f1 ec	 xor	 cl, -20			; ffffffecH
  000dd	88 4d ed	 mov	 BYTE PTR _szEncEventType$[ebp+13], cl
  000e0	84 c0		 test	 al, al
  000e2	74 07		 je	 SHORT $LN82@GetAnimati
  000e4	34 eb		 xor	 al, -21			; ffffffebH
  000e6	88 45 ee	 mov	 BYTE PTR _szEncEventType$[ebp+14], al
  000e9	eb 4f		 jmp	 SHORT $LN1@GetAnimati
$LN82@GetAnimati:
  000eb	c6 45 ee eb	 mov	 BYTE PTR _szEncEventType$[ebp+14], -21 ; ffffffebH
  000ef	eb 49		 jmp	 SHORT $LN1@GetAnimati
$LN83@GetAnimati:
  000f1	c6 45 ed ec	 mov	 BYTE PTR _szEncEventType$[ebp+13], -20 ; ffffffecH
  000f5	eb 43		 jmp	 SHORT $LN1@GetAnimati
$LN84@GetAnimati:
  000f7	88 55 ec	 mov	 BYTE PTR _szEncEventType$[ebp+12], dl
  000fa	eb 3e		 jmp	 SHORT $LN1@GetAnimati
$LN85@GetAnimati:
  000fc	c6 45 eb ea	 mov	 BYTE PTR _szEncEventType$[ebp+11], -22 ; ffffffeaH
  00100	eb 38		 jmp	 SHORT $LN1@GetAnimati
$LN87@GetAnimati:
  00102	c6 45 e9 ec	 mov	 BYTE PTR _szEncEventType$[ebp+9], -20 ; ffffffecH
  00106	eb 32		 jmp	 SHORT $LN1@GetAnimati
$LN88@GetAnimati:
  00108	88 55 e8	 mov	 BYTE PTR _szEncEventType$[ebp+8], dl
  0010b	eb 2d		 jmp	 SHORT $LN1@GetAnimati
$LN89@GetAnimati:
  0010d	c6 45 e7 ea	 mov	 BYTE PTR _szEncEventType$[ebp+7], -22 ; ffffffeaH
  00111	eb 27		 jmp	 SHORT $LN1@GetAnimati
$LN90@GetAnimati:
  00113	c6 45 e6 eb	 mov	 BYTE PTR _szEncEventType$[ebp+6], -21 ; ffffffebH
  00117	eb 21		 jmp	 SHORT $LN1@GetAnimati
$LN91@GetAnimati:
  00119	c6 45 e5 ec	 mov	 BYTE PTR _szEncEventType$[ebp+5], -20 ; ffffffecH
  0011d	eb 1b		 jmp	 SHORT $LN1@GetAnimati
$LN92@GetAnimati:
  0011f	88 55 e4	 mov	 BYTE PTR _szEncEventType$[ebp+4], dl
  00122	eb 16		 jmp	 SHORT $LN1@GetAnimati
$LN93@GetAnimati:
  00124	c6 45 e3 ea	 mov	 BYTE PTR _szEncEventType$[ebp+3], -22 ; ffffffeaH
  00128	eb 10		 jmp	 SHORT $LN1@GetAnimati
$LN94@GetAnimati:
  0012a	c6 45 e2 eb	 mov	 BYTE PTR _szEncEventType$[ebp+2], -21 ; ffffffebH
  0012e	eb 0a		 jmp	 SHORT $LN1@GetAnimati
$LN95@GetAnimati:
  00130	c6 45 e1 ec	 mov	 BYTE PTR _szEncEventType$[ebp+1], -20 ; ffffffecH
  00134	eb 04		 jmp	 SHORT $LN1@GetAnimati
$LN96@GetAnimati:
  00136	c6 45 e0 ed	 mov	 BYTE PTR _szEncEventType$[ebp], -19 ; ffffffedH
$LN1@GetAnimati:
  0013a	6a 02		 push	 2
  0013c	8d 45 e0	 lea	 eax, DWORD PTR _szEncEventType$[ebp]
  0013f	c6 45 ea 00	 mov	 BYTE PTR _szEncEventType$[ebp+10], 0
  00143	59		 pop	 ecx
$LL105@GetAnimati:
  00144	81 30 ed ec eb
	ea		 xor	 DWORD PTR [eax], -353637139 ; eaebecedH
  0014a	83 c0 04	 add	 eax, 4
  0014d	49		 dec	 ecx
  0014e	75 f4		 jne	 SHORT $LL105@GetAnimati
  00150	6a 08		 push	 8
  00152	58		 pop	 eax
$LL102@GetAnimati:
  00153	8b c8		 mov	 ecx, eax
  00155	81 e1 03 00 00
	80		 and	 ecx, -2147483645	; 80000003H
  0015b	79 05		 jns	 SHORT $LN113@GetAnimati
  0015d	49		 dec	 ecx
  0015e	83 c9 fc	 or	 ecx, -4			; fffffffcH
  00161	41		 inc	 ecx
$LN113@GetAnimati:
  00162	b2 ed		 mov	 dl, -19			; ffffffedH
  00164	2a d1		 sub	 dl, cl
  00166	30 54 05 e0	 xor	 BYTE PTR _szEncEventType$[ebp+eax], dl
  0016a	40		 inc	 eax
  0016b	83 f8 0a	 cmp	 eax, 10			; 0000000aH
  0016e	7c e3		 jl	 SHORT $LL102@GetAnimati

; 416  : 		return GetAnimationEventTime(id, szEncEventType);

  00170	8d 45 e0	 lea	 eax, DWORD PTR _szEncEventType$[ebp]
  00173	50		 push	 eax
  00174	8d 4d cc	 lea	 ecx, DWORD PTR $T614060[ebp]
  00177	ff 15 00 00 00
	00		 call	 DWORD PTR __imp_??0ioHashString@@QAE@PBD@Z
  0017d	83 65 fc 00	 and	 DWORD PTR __$EHRec$[ebp+8], 0
  00181	8d 45 cc	 lea	 eax, DWORD PTR $T614060[ebp]
  00184	50		 push	 eax
  00185	ff 75 08	 push	 DWORD PTR _id$[ebp]
  00188	8b ce		 mov	 ecx, esi
  0018a	ff 15 00 00 00
	00		 call	 DWORD PTR __imp_?GetAnimationEventTime@ioEntityGroup@@QAEMHABVioHashString@@@Z
  00190	d9 5d dc	 fstp	 DWORD PTR $T614059[ebp]
  00193	83 4d fc ff	 or	 DWORD PTR __$EHRec$[ebp+8], -1
  00197	8d 4d cc	 lea	 ecx, DWORD PTR $T614060[ebp]
  0019a	ff 15 00 00 00
	00		 call	 DWORD PTR __imp_??1ioHashString@@QAE@XZ
  001a0	d9 45 dc	 fld	 DWORD PTR $T614059[ebp]

; 417  : 	}

  001a3	e8 00 00 00 00	 call	 __EH_epilog3_GS
  001a8	c2 08 00	 ret	 8
_TEXT	ENDS
;	COMDAT text$x
text$x	SEGMENT
__unwindfunclet$??$GetAnimationEventTime_e@$0L@@ioEntityGroup@@QAEMHAAY0L@$$CBD@Z$0:
  00000	8d 4d cc	 lea	 ecx, DWORD PTR $T614060[ebp]
  00003	ff 25 00 00 00
	00		 jmp	 DWORD PTR __imp_??1ioHashString@@QAE@XZ
__ehhandler$??$GetAnimationEventTime_e@$0L@@ioEntityGroup@@QAEMHAAY0L@$$CBD@Z:
  00009	8b 54 24 08	 mov	 edx, DWORD PTR [esp+8]
  0000d	8d 42 0c	 lea	 eax, DWORD PTR [edx+12]
  00010	8b 4a c8	 mov	 ecx, DWORD PTR [edx-56]
  00013	33 c8		 xor	 ecx, eax
  00015	e8 00 00 00 00	 call	 @__security_check_cookie@4
  0001a	8b 4a fc	 mov	 ecx, DWORD PTR [edx-4]
  0001d	33 c8		 xor	 ecx, eax
  0001f	e8 00 00 00 00	 call	 @__security_check_cookie@4
  00024	b8 00 00 00 00	 mov	 eax, OFFSET __ehfuncinfo$??$GetAnimationEventTime_e@$0L@@ioEntityGroup@@QAEMHAAY0L@$$CBD@Z
  00029	e9 00 00 00 00	 jmp	 ___CxxFrameHandler3
text$x	ENDS
??$GetAnimationEventTime_e@$0L@@ioEntityGroup@@QAEMHAAY0L@$$CBD@Z ENDP ; ioEntityGroup::GetAnimationEventTime_e<11>
PUBLIC	__real@3fd2ee0d320154cb
PUBLIC	__real@41f0000000000000
PUBLIC	??$RADtoDEG@M@@YAMM@Z				; RADtoDEG<float>
;	COMDAT __real@3fd2ee0d320154cb
; File d:\lost saga for developer\youtube\tutorial\source\src\lsclient\veryoftenusedefine.h
CONST	SEGMENT
__real@3fd2ee0d320154cb DQ 03fd2ee0d320154cbr	; 0.29578
CONST	ENDS
;	COMDAT __real@41f0000000000000
CONST	SEGMENT
__real@41f0000000000000 DQ 041f0000000000000r	; 4.29497e+009
; Function compile flags: /Ogsp
CONST	ENDS
;	COMDAT ??$RADtoDEG@M@@YAMM@Z
_TEXT	SEGMENT
tv130 = -4						; size = 4
tv75 = 8						; size = 4
_val$ = 8						; size = 4
??$RADtoDEG@M@@YAMM@Z PROC				; RADtoDEG<float>, COMDAT

; 18   : type  RADtoDEG (type val) {return (type) (val * (return57() + 0.2957795132)); }

  00000	55		 push	 ebp
  00001	8b ec		 mov	 ebp, esp
  00003	51		 push	 ecx
  00004	b8 39 00 00 00	 mov	 eax, 57			; 00000039H
  00009	89 45 fc	 mov	 DWORD PTR tv130[ebp], eax
  0000c	db 45 fc	 fild	 DWORD PTR tv130[ebp]
  0000f	85 c0		 test	 eax, eax
  00011	79 06		 jns	 SHORT $LN5@RADtoDEG
  00013	dc 05 00 00 00
	00		 fadd	 QWORD PTR __real@41f0000000000000
$LN5@RADtoDEG:
  00019	dc 05 00 00 00
	00		 fadd	 QWORD PTR __real@3fd2ee0d320154cb
  0001f	d8 4d 08	 fmul	 DWORD PTR _val$[ebp]
  00022	d9 5d 08	 fstp	 DWORD PTR tv75[ebp]
  00025	d9 45 08	 fld	 DWORD PTR tv75[ebp]
  00028	c9		 leave
  00029	c3		 ret	 0
??$RADtoDEG@M@@YAMM@Z ENDP				; RADtoDEG<float>
_TEXT	ENDS
PUBLIC	??$_Cons_val@V?$allocator@VioHashString@@@std@@VioHashString@@V3@@std@@YAXAAV?$allocator@VioHashString@@@0@PAVioHashString@@$$QAV2@@Z ; std::_Cons_val<std::allocator<ioHashString>,ioHashString,ioHashString>
; Function compile flags: /Ogsp
; File c:\program files (x86)\microsoft visual studio 10.0\vc\include\xmemory
;	COMDAT ??$_Cons_val@V?$allocator@VioHashString@@@std@@VioHashString@@V3@@std@@YAXAAV?$allocator@VioHashString@@@0@PAVioHashString@@$$QAV2@@Z
_TEXT	SEGMENT
__Alval$ = 8						; size = 4
__Pdest$ = 12						; size = 4
__Src$ = 16						; size = 4
??$_Cons_val@V?$allocator@VioHashString@@@std@@VioHashString@@V3@@std@@YAXAAV?$allocator@VioHashString@@@0@PAVioHashString@@$$QAV2@@Z PROC ; std::_Cons_val<std::allocator<ioHashString>,ioHashString,ioHashString>, COMDAT

; 279  : 	{	// construct using allocator

  00000	55		 push	 ebp
  00001	8b ec		 mov	 ebp, esp

; 280  : 	_Alval.construct(_Pdest, _STD forward<_Ty2>(_Src));

  00003	ff 75 10	 push	 DWORD PTR __Src$[ebp]
  00006	8b 4d 08	 mov	 ecx, DWORD PTR __Alval$[ebp]
  00009	ff 75 0c	 push	 DWORD PTR __Pdest$[ebp]
  0000c	e8 00 00 00 00	 call	 ?construct@?$allocator@VioHashString@@@std@@QAEXPAVioHashString@@$$QAV3@@Z ; std::allocator<ioHashString>::construct

; 281  : 	}

  00011	5d		 pop	 ebp
  00012	c3		 ret	 0
??$_Cons_val@V?$allocator@VioHashString@@@std@@VioHashString@@V3@@std@@YAXAAV?$allocator@VioHashString@@@0@PAVioHashString@@$$QAV2@@Z ENDP ; std::_Cons_val<std::allocator<ioHashString>,ioHashString,ioHashString>
_TEXT	ENDS
PUBLIC	??$_Copy_impl@PAVioHashString@@PAV1@@std@@YAPAVioHashString@@PAV1@00@Z ; std::_Copy_impl<ioHashString *,ioHashString *>
; Function compile flags: /Ogsp
; File c:\program files (x86)\microsoft visual studio 10.0\vc\include\xutility
;	COMDAT ??$_Copy_impl@PAVioHashString@@PAV1@@std@@YAPAVioHashString@@PAV1@00@Z
_TEXT	SEGMENT
__Cat$614110 = -4					; size = 1
__First$ = 8						; size = 4
__Last$ = 12						; size = 4
__Dest$ = 16						; size = 4
??$_Copy_impl@PAVioHashString@@PAV1@@std@@YAPAVioHashString@@PAV1@00@Z PROC ; std::_Copy_impl<ioHashString *,ioHashString *>, COMDAT

; 2163 : 	{	// copy [_First, _Last) to [_Dest, ...)

  00000	55		 push	 ebp
  00001	8b ec		 mov	 ebp, esp
  00003	51		 push	 ecx

; 2164 : 	return (_Copy_impl(_First, _Last,
; 2165 : 		_Dest, _Ptr_cat(_First, _Dest)));

  00004	ff 75 fc	 push	 DWORD PTR __Cat$614110[ebp]
  00007	ff 75 10	 push	 DWORD PTR __Dest$[ebp]
  0000a	ff 75 0c	 push	 DWORD PTR __Last$[ebp]
  0000d	ff 75 08	 push	 DWORD PTR __First$[ebp]
  00010	e8 00 00 00 00	 call	 ??$_Copy_impl@PAVioHashString@@PAV1@@std@@YAPAVioHashString@@PAV1@00U_Nonscalar_ptr_iterator_tag@0@@Z ; std::_Copy_impl<ioHashString *,ioHashString *>
  00015	83 c4 10	 add	 esp, 16			; 00000010H

; 2166 : 	}

  00018	c9		 leave
  00019	c3		 ret	 0
??$_Copy_impl@PAVioHashString@@PAV1@@std@@YAPAVioHashString@@PAV1@00@Z ENDP ; std::_Copy_impl<ioHashString *,ioHashString *>
_TEXT	ENDS
PUBLIC	??$construct@AAVioHashString@@@?$allocator@VioHashString@@@std@@QAEXPAVioHashString@@AAV2@@Z ; std::allocator<ioHashString>::construct<ioHashString &>
;	COMDAT xdata$x
; File c:\program files (x86)\microsoft visual studio 10.0\vc\include\utility
xdata$x	SEGMENT
__unwindtable$??$construct@AAVioHashString@@@?$allocator@VioHashString@@@std@@QAEXPAVioHashString@@AAV2@@Z DD 0ffffffffH
	DD	FLAT:__unwindfunclet$??$construct@AAVioHashString@@@?$allocator@VioHashString@@@std@@QAEXPAVioHashString@@AAV2@@Z$0
__ehfuncinfo$??$construct@AAVioHashString@@@?$allocator@VioHashString@@@std@@QAEXPAVioHashString@@AAV2@@Z DD 019930522H
	DD	01H
	DD	FLAT:__unwindtable$??$construct@AAVioHashString@@@?$allocator@VioHashString@@@std@@QAEXPAVioHashString@@AAV2@@Z
	DD	2 DUP(00H)
	DD	2 DUP(00H)
	DD	00H
	DD	01H
; Function compile flags: /Ogsp
; File c:\program files (x86)\microsoft visual studio 10.0\vc\include\xmemory
xdata$x	ENDS
;	COMDAT ??$construct@AAVioHashString@@@?$allocator@VioHashString@@@std@@QAEXPAVioHashString@@AAV2@@Z
_TEXT	SEGMENT
$T614115 = -16						; size = 4
__$EHRec$ = -12						; size = 12
__Ptr$ = 8						; size = 4
__Val$ = 12						; size = 4
??$construct@AAVioHashString@@@?$allocator@VioHashString@@@std@@QAEXPAVioHashString@@AAV2@@Z PROC ; std::allocator<ioHashString>::construct<ioHashString &>, COMDAT
; _this$ = ecx

; 206  : 		void construct(pointer _Ptr, _Other&& _Val)

  00000	6a 04		 push	 4
  00002	b8 00 00 00 00	 mov	 eax, __ehhandler$??$construct@AAVioHashString@@@?$allocator@VioHashString@@@std@@QAEXPAVioHashString@@AAV2@@Z
  00007	e8 00 00 00 00	 call	 __EH_prolog3

; 207  : 		{	// construct object at _Ptr with value _Val
; 208  : 		::new ((void _FARQ *)_Ptr) _Ty(_STD forward<_Other>(_Val));

  0000c	8b 4d 08	 mov	 ecx, DWORD PTR __Ptr$[ebp]
  0000f	89 4d f0	 mov	 DWORD PTR $T614115[ebp], ecx
  00012	83 65 fc 00	 and	 DWORD PTR __$EHRec$[ebp+8], 0
  00016	85 c9		 test	 ecx, ecx
  00018	74 09		 je	 SHORT $LN3@construct@2
  0001a	ff 75 0c	 push	 DWORD PTR __Val$[ebp]
  0001d	ff 15 00 00 00
	00		 call	 DWORD PTR __imp_??0ioHashString@@QAE@ABV0@@Z
$LN3@construct@2:

; 209  : 		}

  00023	e8 00 00 00 00	 call	 __EH_epilog3
  00028	c2 08 00	 ret	 8
_TEXT	ENDS
;	COMDAT text$x
text$x	SEGMENT
__unwindfunclet$??$construct@AAVioHashString@@@?$allocator@VioHashString@@@std@@QAEXPAVioHashString@@AAV2@@Z$0:
  00000	ff 75 08	 push	 DWORD PTR __Ptr$[ebp]
  00003	ff 75 f0	 push	 DWORD PTR $T614115[ebp]
  00006	e8 00 00 00 00	 call	 ??3@YAXPAX0@Z		; operator delete
  0000b	59		 pop	 ecx
  0000c	59		 pop	 ecx
  0000d	c3		 ret	 0
__ehhandler$??$construct@AAVioHashString@@@?$allocator@VioHashString@@@std@@QAEXPAVioHashString@@AAV2@@Z:
  0000e	8b 54 24 08	 mov	 edx, DWORD PTR [esp+8]
  00012	8d 42 0c	 lea	 eax, DWORD PTR [edx+12]
  00015	8b 4a ec	 mov	 ecx, DWORD PTR [edx-20]
  00018	33 c8		 xor	 ecx, eax
  0001a	e8 00 00 00 00	 call	 @__security_check_cookie@4
  0001f	b8 00 00 00 00	 mov	 eax, OFFSET __ehfuncinfo$??$construct@AAVioHashString@@@?$allocator@VioHashString@@@std@@QAEXPAVioHashString@@AAV2@@Z
  00024	e9 00 00 00 00	 jmp	 ___CxxFrameHandler3
text$x	ENDS
??$construct@AAVioHashString@@@?$allocator@VioHashString@@@std@@QAEXPAVioHashString@@AAV2@@Z ENDP ; std::allocator<ioHashString>::construct<ioHashString &>
PUBLIC	??0?$CEncrypt@M@@QAE@XZ				; CEncrypt<float>::CEncrypt<float>
EXTRN	??0ccddaabb@@QAE@XZ:PROC			; ccddaabb::ccddaabb
;	COMDAT xdata$x
; File d:\lost saga for developer\youtube\tutorial\source\src\lsclient\encryptvalue.h
xdata$x	SEGMENT
__unwindtable$??0?$CEncrypt@M@@QAE@XZ DD 0ffffffffH
	DD	FLAT:__unwindfunclet$??0?$CEncrypt@M@@QAE@XZ$0
__ehfuncinfo$??0?$CEncrypt@M@@QAE@XZ DD 019930522H
	DD	01H
	DD	FLAT:__unwindtable$??0?$CEncrypt@M@@QAE@XZ
	DD	2 DUP(00H)
	DD	2 DUP(00H)
	DD	00H
	DD	01H
; Function compile flags: /Ogsp
xdata$x	ENDS
;	COMDAT ??0?$CEncrypt@M@@QAE@XZ
_TEXT	SEGMENT
_this$ = -16						; size = 4
__$EHRec$ = -12						; size = 12
??0?$CEncrypt@M@@QAE@XZ PROC				; CEncrypt<float>::CEncrypt<float>, COMDAT
; _this$ = ecx

; 109  : 	CEncrypt()

  00000	6a 04		 push	 4
  00002	b8 00 00 00 00	 mov	 eax, __ehhandler$??0?$CEncrypt@M@@QAE@XZ
  00007	e8 00 00 00 00	 call	 __EH_prolog3
  0000c	8b f1		 mov	 esi, ecx
  0000e	89 75 f0	 mov	 DWORD PTR _this$[ebp], esi
  00011	8d 4e 0c	 lea	 ecx, DWORD PTR [esi+12]
  00014	c7 06 00 00 00
	00		 mov	 DWORD PTR [esi], OFFSET ??_7?$CEncrypt@M@@6B@
  0001a	e8 00 00 00 00	 call	 ??0ccddaabb@@QAE@XZ	; ccddaabb::ccddaabb
  0001f	83 65 fc 00	 and	 DWORD PTR __$EHRec$[ebp+8], 0

; 110  : 	{
; 111  : 		Init();

  00023	8b ce		 mov	 ecx, esi
  00025	e8 00 00 00 00	 call	 ?Init@?$CEncrypt@M@@AAEXXZ ; CEncrypt<float>::Init

; 112  : 	}

  0002a	8b c6		 mov	 eax, esi
  0002c	e8 00 00 00 00	 call	 __EH_epilog3
  00031	c3		 ret	 0
_TEXT	ENDS
;	COMDAT text$x
text$x	SEGMENT
__unwindfunclet$??0?$CEncrypt@M@@QAE@XZ$0:
  00000	8b 4d f0	 mov	 ecx, DWORD PTR _this$[ebp]
  00003	83 c1 0c	 add	 ecx, 12			; 0000000cH
  00006	e9 00 00 00 00	 jmp	 ??1ccddaabb@@UAE@XZ	; ccddaabb::~ccddaabb
__ehhandler$??0?$CEncrypt@M@@QAE@XZ:
  0000b	8b 54 24 08	 mov	 edx, DWORD PTR [esp+8]
  0000f	8d 42 0c	 lea	 eax, DWORD PTR [edx+12]
  00012	8b 4a ec	 mov	 ecx, DWORD PTR [edx-20]
  00015	33 c8		 xor	 ecx, eax
  00017	e8 00 00 00 00	 call	 @__security_check_cookie@4
  0001c	b8 00 00 00 00	 mov	 eax, OFFSET __ehfuncinfo$??0?$CEncrypt@M@@QAE@XZ
  00021	e9 00 00 00 00	 jmp	 ___CxxFrameHandler3
text$x	ENDS
??0?$CEncrypt@M@@QAE@XZ ENDP				; CEncrypt<float>::CEncrypt<float>
PUBLIC	??B?$CEncrypt@M@@QAEMXZ				; CEncrypt<float>::operator float
; Function compile flags: /Ogsp
;	COMDAT ??B?$CEncrypt@M@@QAEMXZ
_TEXT	SEGMENT
_value$ = -4						; size = 4
??B?$CEncrypt@M@@QAEMXZ PROC				; CEncrypt<float>::operator float, COMDAT
; _this$ = ecx

; 134  : 	{

  00000	55		 push	 ebp
  00001	8b ec		 mov	 ebp, esp
  00003	51		 push	 ecx

; 135  : 		type value;
; 136  : 		DecryptValueToPool(&value);

  00004	8d 45 fc	 lea	 eax, DWORD PTR _value$[ebp]
  00007	50		 push	 eax
  00008	e8 00 00 00 00	 call	 ?DecryptValueToPool@?$CEncrypt@M@@QAEXPAM@Z ; CEncrypt<float>::DecryptValueToPool

; 137  : 
; 138  : #ifdef _NOTUSE
; 139  : 		Debug();
; 140  : #endif
; 141  : 		return value;

  0000d	d9 45 fc	 fld	 DWORD PTR _value$[ebp]

; 142  : 	}

  00010	c9		 leave
  00011	c3		 ret	 0
??B?$CEncrypt@M@@QAEMXZ ENDP				; CEncrypt<float>::operator float
_TEXT	ENDS
PUBLIC	??B?$CEncrypt@M@@QBEMXZ				; CEncrypt<float>::operator float
; Function compile flags: /Ogsp
;	COMDAT ??B?$CEncrypt@M@@QBEMXZ
_TEXT	SEGMENT
_value$ = -4						; size = 4
??B?$CEncrypt@M@@QBEMXZ PROC				; CEncrypt<float>::operator float, COMDAT
; _this$ = ecx

; 145  : 	{

  00000	55		 push	 ebp
  00001	8b ec		 mov	 ebp, esp
  00003	51		 push	 ecx

; 146  : 		//UJ 130829, const    --start
; 147  : 		type value;
; 148  : 		CEncrypt<type>* pThis = const_cast<CEncrypt<type>*>(this);
; 149  : 		pThis->DecryptValueToPool(&value);

  00004	8d 45 fc	 lea	 eax, DWORD PTR _value$[ebp]
  00007	50		 push	 eax
  00008	e8 00 00 00 00	 call	 ?DecryptValueToPool@?$CEncrypt@M@@QAEXPAM@Z ; CEncrypt<float>::DecryptValueToPool

; 150  : 		//// const DecryptValueToPool     .
; 151  :  		//type value;
; 152  : 		//char szTempMem[MAX_ENCRYPT];
; 153  : 		//m_RC5.DecryptByte( m_MemPool, szTempMem, max(m_ValueSize, DEFAULT_ENCRYPT) );
; 154  : 		//memcpy( &value, szTempMem, m_ValueSize );
; 155  : 		//UJ --end
; 156  : 
; 157  : #ifdef _NOTUSE
; 158  : 		Debug();
; 159  : #endif
; 160  : 		return value;

  0000d	d9 45 fc	 fld	 DWORD PTR _value$[ebp]

; 161  : 	}

  00010	c9		 leave
  00011	c3		 ret	 0
??B?$CEncrypt@M@@QBEMXZ ENDP				; CEncrypt<float>::operator float
_TEXT	ENDS
PUBLIC	??4?$CEncrypt@M@@QAEMM@Z			; CEncrypt<float>::operator=
; Function compile flags: /Ogsp
;	COMDAT ??4?$CEncrypt@M@@QAEMM@Z
_TEXT	SEGMENT
_value$ = 8						; size = 4
_inValue$ = 8						; size = 4
??4?$CEncrypt@M@@QAEMM@Z PROC				; CEncrypt<float>::operator=, COMDAT
; _this$ = ecx

; 1654 : 	{	

  00000	55		 push	 ebp
  00001	8b ec		 mov	 ebp, esp

; 1655 : 		type value = inValue;

  00003	d9 45 08	 fld	 DWORD PTR _inValue$[ebp]

; 1656 : 		EncryptValueToPool((char*)&value);

  00006	8d 45 08	 lea	 eax, DWORD PTR _value$[ebp]
  00009	50		 push	 eax
  0000a	d9 5d 08	 fstp	 DWORD PTR _value$[ebp]
  0000d	e8 00 00 00 00	 call	 ?EncryptValueToPool@?$CEncrypt@M@@AAEXPBD@Z ; CEncrypt<float>::EncryptValueToPool

; 1657 : #ifdef _NOTUSE
; 1658 : 		m_value = inValue;
; 1659 : 		Debug();
; 1660 : #endif
; 1661 : 		return value;

  00012	d9 45 08	 fld	 DWORD PTR _value$[ebp]

; 1662 : 	}

  00015	5d		 pop	 ebp
  00016	c2 04 00	 ret	 4
??4?$CEncrypt@M@@QAEMM@Z ENDP				; CEncrypt<float>::operator=
_TEXT	ENDS
PUBLIC	??Y?$CEncrypt@M@@QAEAAMABM@Z			; CEncrypt<float>::operator+=
; Function compile flags: /Ogsp
;	COMDAT ??Y?$CEncrypt@M@@QAEAAMABM@Z
_TEXT	SEGMENT
_value$ = -4						; size = 4
_inValue$ = 8						; size = 4
??Y?$CEncrypt@M@@QAEAAMABM@Z PROC			; CEncrypt<float>::operator+=, COMDAT
; _this$ = ecx

; 1715 : 	{

  00000	55		 push	 ebp
  00001	8b ec		 mov	 ebp, esp
  00003	51		 push	 ecx
  00004	56		 push	 esi

; 1716 : 		type value;
; 1717 : 		DecryptValueToPool(&value);

  00005	8d 45 fc	 lea	 eax, DWORD PTR _value$[ebp]
  00008	50		 push	 eax
  00009	8b f1		 mov	 esi, ecx
  0000b	e8 00 00 00 00	 call	 ?DecryptValueToPool@?$CEncrypt@M@@QAEXPAM@Z ; CEncrypt<float>::DecryptValueToPool

; 1718 : 		value += inValue;

  00010	8b 45 08	 mov	 eax, DWORD PTR _inValue$[ebp]
  00013	f3 0f 10 00	 movss	 xmm0, DWORD PTR [eax]
  00017	f3 0f 10 4d fc	 movss	 xmm1, DWORD PTR _value$[ebp]
  0001c	0f 5a c0	 cvtps2pd xmm0, xmm0
  0001f	0f 5a c9	 cvtps2pd xmm1, xmm1

; 1719 : 		EncryptValueToPool((char*)&value);

  00022	8d 45 fc	 lea	 eax, DWORD PTR _value$[ebp]
  00025	f2 0f 58 c1	 addsd	 xmm0, xmm1
  00029	66 0f 5a c0	 cvtpd2ps xmm0, xmm0
  0002d	50		 push	 eax
  0002e	8b ce		 mov	 ecx, esi
  00030	f3 0f 11 45 fc	 movss	 DWORD PTR _value$[ebp], xmm0
  00035	e8 00 00 00 00	 call	 ?EncryptValueToPool@?$CEncrypt@M@@AAEXPBD@Z ; CEncrypt<float>::EncryptValueToPool

; 1720 : #ifdef _NOTUSE
; 1721 : 		m_value += inValue;
; 1722 : 		Debug();
; 1723 : #endif
; 1724 : 		return value;

  0003a	8d 45 fc	 lea	 eax, DWORD PTR _value$[ebp]
  0003d	5e		 pop	 esi

; 1725 : 	} 

  0003e	c9		 leave
  0003f	c2 04 00	 ret	 4
??Y?$CEncrypt@M@@QAEAAMABM@Z ENDP			; CEncrypt<float>::operator+=
_TEXT	ENDS
PUBLIC	??Z?$CEncrypt@M@@QAEAAMABM@Z			; CEncrypt<float>::operator-=
; Function compile flags: /Ogsp
;	COMDAT ??Z?$CEncrypt@M@@QAEAAMABM@Z
_TEXT	SEGMENT
_value$ = -4						; size = 4
_inValue$ = 8						; size = 4
??Z?$CEncrypt@M@@QAEAAMABM@Z PROC			; CEncrypt<float>::operator-=, COMDAT
; _this$ = ecx

; 1728 : 	{

  00000	55		 push	 ebp
  00001	8b ec		 mov	 ebp, esp
  00003	51		 push	 ecx
  00004	56		 push	 esi

; 1729 : 		type value;
; 1730 : 		DecryptValueToPool(&value);

  00005	8d 45 fc	 lea	 eax, DWORD PTR _value$[ebp]
  00008	50		 push	 eax
  00009	8b f1		 mov	 esi, ecx
  0000b	e8 00 00 00 00	 call	 ?DecryptValueToPool@?$CEncrypt@M@@QAEXPAM@Z ; CEncrypt<float>::DecryptValueToPool

; 1731 : 		value -= inValue;

  00010	8b 45 08	 mov	 eax, DWORD PTR _inValue$[ebp]
  00013	f3 0f 10 45 fc	 movss	 xmm0, DWORD PTR _value$[ebp]
  00018	f3 0f 10 08	 movss	 xmm1, DWORD PTR [eax]
  0001c	0f 5a c0	 cvtps2pd xmm0, xmm0
  0001f	0f 5a c9	 cvtps2pd xmm1, xmm1

; 1732 : 		EncryptValueToPool((char*)&value);

  00022	8d 45 fc	 lea	 eax, DWORD PTR _value$[ebp]
  00025	f2 0f 5c c1	 subsd	 xmm0, xmm1
  00029	66 0f 5a c0	 cvtpd2ps xmm0, xmm0
  0002d	50		 push	 eax
  0002e	8b ce		 mov	 ecx, esi
  00030	f3 0f 11 45 fc	 movss	 DWORD PTR _value$[ebp], xmm0
  00035	e8 00 00 00 00	 call	 ?EncryptValueToPool@?$CEncrypt@M@@AAEXPBD@Z ; CEncrypt<float>::EncryptValueToPool

; 1733 : #ifdef _NOTUSE
; 1734 : 		m_value -= inValue;
; 1735 : 		Debug();
; 1736 : #endif
; 1737 : 		return value;

  0003a	8d 45 fc	 lea	 eax, DWORD PTR _value$[ebp]
  0003d	5e		 pop	 esi

; 1738 : 	} 

  0003e	c9		 leave
  0003f	c2 04 00	 ret	 4
??Z?$CEncrypt@M@@QAEAAMABM@Z ENDP			; CEncrypt<float>::operator-=
_TEXT	ENDS
PUBLIC	??B?$CEncrypt@K@@QAEKXZ				; CEncrypt<unsigned long>::operator unsigned long
; Function compile flags: /Ogsp
;	COMDAT ??B?$CEncrypt@K@@QAEKXZ
_TEXT	SEGMENT
_value$ = -4						; size = 4
??B?$CEncrypt@K@@QAEKXZ PROC				; CEncrypt<unsigned long>::operator unsigned long, COMDAT
; _this$ = ecx

; 134  : 	{

  00000	55		 push	 ebp
  00001	8b ec		 mov	 ebp, esp
  00003	51		 push	 ecx

; 135  : 		type value;
; 136  : 		DecryptValueToPool(&value);

  00004	8d 45 fc	 lea	 eax, DWORD PTR _value$[ebp]
  00007	50		 push	 eax
  00008	e8 00 00 00 00	 call	 ?DecryptValueToPool@?$CEncrypt@K@@QAEXPAK@Z ; CEncrypt<unsigned long>::DecryptValueToPool

; 137  : 
; 138  : #ifdef _NOTUSE
; 139  : 		Debug();
; 140  : #endif
; 141  : 		return value;

  0000d	8b 45 fc	 mov	 eax, DWORD PTR _value$[ebp]

; 142  : 	}

  00010	c9		 leave
  00011	c3		 ret	 0
??B?$CEncrypt@K@@QAEKXZ ENDP				; CEncrypt<unsigned long>::operator unsigned long
_TEXT	ENDS
PUBLIC	??0?$CEncrypt@_N@@QAE@XZ			; CEncrypt<bool>::CEncrypt<bool>
;	COMDAT xdata$x
xdata$x	SEGMENT
__unwindtable$??0?$CEncrypt@_N@@QAE@XZ DD 0ffffffffH
	DD	FLAT:__unwindfunclet$??0?$CEncrypt@_N@@QAE@XZ$0
__ehfuncinfo$??0?$CEncrypt@_N@@QAE@XZ DD 019930522H
	DD	01H
	DD	FLAT:__unwindtable$??0?$CEncrypt@_N@@QAE@XZ
	DD	2 DUP(00H)
	DD	2 DUP(00H)
	DD	00H
	DD	01H
; Function compile flags: /Ogsp
xdata$x	ENDS
;	COMDAT ??0?$CEncrypt@_N@@QAE@XZ
_TEXT	SEGMENT
_this$ = -16						; size = 4
__$EHRec$ = -12						; size = 12
??0?$CEncrypt@_N@@QAE@XZ PROC				; CEncrypt<bool>::CEncrypt<bool>, COMDAT
; _this$ = ecx

; 109  : 	CEncrypt()

  00000	6a 04		 push	 4
  00002	b8 00 00 00 00	 mov	 eax, __ehhandler$??0?$CEncrypt@_N@@QAE@XZ
  00007	e8 00 00 00 00	 call	 __EH_prolog3
  0000c	8b f1		 mov	 esi, ecx
  0000e	89 75 f0	 mov	 DWORD PTR _this$[ebp], esi
  00011	8d 4e 0c	 lea	 ecx, DWORD PTR [esi+12]
  00014	c7 06 00 00 00
	00		 mov	 DWORD PTR [esi], OFFSET ??_7?$CEncrypt@_N@@6B@
  0001a	e8 00 00 00 00	 call	 ??0ccddaabb@@QAE@XZ	; ccddaabb::ccddaabb
  0001f	83 65 fc 00	 and	 DWORD PTR __$EHRec$[ebp+8], 0

; 110  : 	{
; 111  : 		Init();

  00023	8b ce		 mov	 ecx, esi
  00025	e8 00 00 00 00	 call	 ?Init@?$CEncrypt@_N@@AAEXXZ ; CEncrypt<bool>::Init

; 112  : 	}

  0002a	8b c6		 mov	 eax, esi
  0002c	e8 00 00 00 00	 call	 __EH_epilog3
  00031	c3		 ret	 0
_TEXT	ENDS
;	COMDAT text$x
text$x	SEGMENT
__unwindfunclet$??0?$CEncrypt@_N@@QAE@XZ$0:
  00000	8b 4d f0	 mov	 ecx, DWORD PTR _this$[ebp]
  00003	83 c1 0c	 add	 ecx, 12			; 0000000cH
  00006	e9 00 00 00 00	 jmp	 ??1ccddaabb@@UAE@XZ	; ccddaabb::~ccddaabb
__ehhandler$??0?$CEncrypt@_N@@QAE@XZ:
  0000b	8b 54 24 08	 mov	 edx, DWORD PTR [esp+8]
  0000f	8d 42 0c	 lea	 eax, DWORD PTR [edx+12]
  00012	8b 4a ec	 mov	 ecx, DWORD PTR [edx-20]
  00015	33 c8		 xor	 ecx, eax
  00017	e8 00 00 00 00	 call	 @__security_check_cookie@4
  0001c	b8 00 00 00 00	 mov	 eax, OFFSET __ehfuncinfo$??0?$CEncrypt@_N@@QAE@XZ
  00021	e9 00 00 00 00	 jmp	 ___CxxFrameHandler3
text$x	ENDS
??0?$CEncrypt@_N@@QAE@XZ ENDP				; CEncrypt<bool>::CEncrypt<bool>
PUBLIC	??B?$CEncrypt@_N@@QAE_NXZ			; CEncrypt<bool>::operator bool
; Function compile flags: /Ogsp
;	COMDAT ??B?$CEncrypt@_N@@QAE_NXZ
_TEXT	SEGMENT
_value$ = -1						; size = 1
??B?$CEncrypt@_N@@QAE_NXZ PROC				; CEncrypt<bool>::operator bool, COMDAT
; _this$ = ecx

; 134  : 	{

  00000	55		 push	 ebp
  00001	8b ec		 mov	 ebp, esp
  00003	51		 push	 ecx

; 135  : 		type value;
; 136  : 		DecryptValueToPool(&value);

  00004	8d 45 ff	 lea	 eax, DWORD PTR _value$[ebp]
  00007	50		 push	 eax
  00008	e8 00 00 00 00	 call	 ?DecryptValueToPool@?$CEncrypt@_N@@QAEXPA_N@Z ; CEncrypt<bool>::DecryptValueToPool

; 137  : 
; 138  : #ifdef _NOTUSE
; 139  : 		Debug();
; 140  : #endif
; 141  : 		return value;

  0000d	8a 45 ff	 mov	 al, BYTE PTR _value$[ebp]

; 142  : 	}

  00010	c9		 leave
  00011	c3		 ret	 0
??B?$CEncrypt@_N@@QAE_NXZ ENDP				; CEncrypt<bool>::operator bool
_TEXT	ENDS
PUBLIC	??4?$CEncrypt@_N@@QAE_N_N@Z			; CEncrypt<bool>::operator=
; Function compile flags: /Ogsp
;	COMDAT ??4?$CEncrypt@_N@@QAE_N_N@Z
_TEXT	SEGMENT
_inValue$ = 8						; size = 1
_value$ = 11						; size = 1
??4?$CEncrypt@_N@@QAE_N_N@Z PROC			; CEncrypt<bool>::operator=, COMDAT
; _this$ = ecx

; 225  : 	{

  00000	55		 push	 ebp
  00001	8b ec		 mov	 ebp, esp

; 226  : 		type value = inValue;

  00003	8a 45 08	 mov	 al, BYTE PTR _inValue$[ebp]
  00006	88 45 0b	 mov	 BYTE PTR _value$[ebp], al

; 227  : 		EncryptValueToPool((char*)&value);

  00009	8d 45 0b	 lea	 eax, DWORD PTR _value$[ebp]
  0000c	50		 push	 eax
  0000d	e8 00 00 00 00	 call	 ?EncryptValueToPool@?$CEncrypt@_N@@AAEXPBD@Z ; CEncrypt<bool>::EncryptValueToPool

; 228  : #ifdef _NOTUSE
; 229  : 		m_value = inValue;
; 230  : 		Debug();
; 231  : #endif
; 232  : 		return value;

  00012	8a 45 0b	 mov	 al, BYTE PTR _value$[ebp]

; 233  : 	}

  00015	5d		 pop	 ebp
  00016	c2 04 00	 ret	 4
??4?$CEncrypt@_N@@QAE_N_N@Z ENDP			; CEncrypt<bool>::operator=
_TEXT	ENDS
PUBLIC	?begin@?$vector@VioHashString@@V?$allocator@VioHashString@@@std@@@std@@QAE?AV?$_Vector_iterator@V?$_Vector_val@VioHashString@@V?$allocator@VioHashString@@@std@@@std@@@2@XZ ; std::vector<ioHashString,std::allocator<ioHashString> >::begin
; Function compile flags: /Ogsp
; File c:\program files (x86)\microsoft visual studio 10.0\vc\include\vector
;	COMDAT ?begin@?$vector@VioHashString@@V?$allocator@VioHashString@@@std@@@std@@QAE?AV?$_Vector_iterator@V?$_Vector_val@VioHashString@@V?$allocator@VioHashString@@@std@@@std@@@2@XZ
_TEXT	SEGMENT
___$ReturnUdt$ = 8					; size = 4
?begin@?$vector@VioHashString@@V?$allocator@VioHashString@@@std@@@std@@QAE?AV?$_Vector_iterator@V?$_Vector_val@VioHashString@@V?$allocator@VioHashString@@@std@@@std@@@2@XZ PROC ; std::vector<ioHashString,std::allocator<ioHashString> >::begin, COMDAT
; _this$ = ecx

; 781  : 		{	// return iterator for beginning of mutable sequence

  00000	55		 push	 ebp
  00001	8b ec		 mov	 ebp, esp

; 782  : 		return (iterator(this->_Myfirst, this));

  00003	8b 09		 mov	 ecx, DWORD PTR [ecx]
  00005	8b 45 08	 mov	 eax, DWORD PTR ___$ReturnUdt$[ebp]
  00008	89 08		 mov	 DWORD PTR [eax], ecx

; 783  : 		}

  0000a	5d		 pop	 ebp
  0000b	c2 04 00	 ret	 4
?begin@?$vector@VioHashString@@V?$allocator@VioHashString@@@std@@@std@@QAE?AV?$_Vector_iterator@V?$_Vector_val@VioHashString@@V?$allocator@VioHashString@@@std@@@std@@@2@XZ ENDP ; std::vector<ioHashString,std::allocator<ioHashString> >::begin
_TEXT	ENDS
PUBLIC	?begin@?$vector@VioHashString@@V?$allocator@VioHashString@@@std@@@std@@QBE?AV?$_Vector_const_iterator@V?$_Vector_val@VioHashString@@V?$allocator@VioHashString@@@std@@@std@@@2@XZ ; std::vector<ioHashString,std::allocator<ioHashString> >::begin
; Function compile flags: /Ogsp
;	COMDAT ?begin@?$vector@VioHashString@@V?$allocator@VioHashString@@@std@@@std@@QBE?AV?$_Vector_const_iterator@V?$_Vector_val@VioHashString@@V?$allocator@VioHashString@@@std@@@std@@@2@XZ
_TEXT	SEGMENT
___$ReturnUdt$ = 8					; size = 4
?begin@?$vector@VioHashString@@V?$allocator@VioHashString@@@std@@@std@@QBE?AV?$_Vector_const_iterator@V?$_Vector_val@VioHashString@@V?$allocator@VioHashString@@@std@@@std@@@2@XZ PROC ; std::vector<ioHashString,std::allocator<ioHashString> >::begin, COMDAT
; _this$ = ecx

; 786  : 		{	// return iterator for beginning of nonmutable sequence

  00000	55		 push	 ebp
  00001	8b ec		 mov	 ebp, esp

; 787  : 		return (const_iterator(this->_Myfirst, this));

  00003	8b 09		 mov	 ecx, DWORD PTR [ecx]
  00005	8b 45 08	 mov	 eax, DWORD PTR ___$ReturnUdt$[ebp]
  00008	89 08		 mov	 DWORD PTR [eax], ecx

; 788  : 		}

  0000a	5d		 pop	 ebp
  0000b	c2 04 00	 ret	 4
?begin@?$vector@VioHashString@@V?$allocator@VioHashString@@@std@@@std@@QBE?AV?$_Vector_const_iterator@V?$_Vector_val@VioHashString@@V?$allocator@VioHashString@@@std@@@std@@@2@XZ ENDP ; std::vector<ioHashString,std::allocator<ioHashString> >::begin
_TEXT	ENDS
PUBLIC	?end@?$vector@VioHashString@@V?$allocator@VioHashString@@@std@@@std@@QAE?AV?$_Vector_iterator@V?$_Vector_val@VioHashString@@V?$allocator@VioHashString@@@std@@@std@@@2@XZ ; std::vector<ioHashString,std::allocator<ioHashString> >::end
; Function compile flags: /Ogsp
;	COMDAT ?end@?$vector@VioHashString@@V?$allocator@VioHashString@@@std@@@std@@QAE?AV?$_Vector_iterator@V?$_Vector_val@VioHashString@@V?$allocator@VioHashString@@@std@@@std@@@2@XZ
_TEXT	SEGMENT
___$ReturnUdt$ = 8					; size = 4
?end@?$vector@VioHashString@@V?$allocator@VioHashString@@@std@@@std@@QAE?AV?$_Vector_iterator@V?$_Vector_val@VioHashString@@V?$allocator@VioHashString@@@std@@@std@@@2@XZ PROC ; std::vector<ioHashString,std::allocator<ioHashString> >::end, COMDAT
; _this$ = ecx

; 791  : 		{	// return iterator for end of mutable sequence

  00000	55		 push	 ebp
  00001	8b ec		 mov	 ebp, esp

; 792  : 		return (iterator(this->_Mylast, this));

  00003	8b 49 04	 mov	 ecx, DWORD PTR [ecx+4]
  00006	8b 45 08	 mov	 eax, DWORD PTR ___$ReturnUdt$[ebp]
  00009	89 08		 mov	 DWORD PTR [eax], ecx

; 793  : 		}

  0000b	5d		 pop	 ebp
  0000c	c2 04 00	 ret	 4
?end@?$vector@VioHashString@@V?$allocator@VioHashString@@@std@@@std@@QAE?AV?$_Vector_iterator@V?$_Vector_val@VioHashString@@V?$allocator@VioHashString@@@std@@@std@@@2@XZ ENDP ; std::vector<ioHashString,std::allocator<ioHashString> >::end
_TEXT	ENDS
PUBLIC	?end@?$vector@VioHashString@@V?$allocator@VioHashString@@@std@@@std@@QBE?AV?$_Vector_const_iterator@V?$_Vector_val@VioHashString@@V?$allocator@VioHashString@@@std@@@std@@@2@XZ ; std::vector<ioHashString,std::allocator<ioHashString> >::end
; Function compile flags: /Ogsp
;	COMDAT ?end@?$vector@VioHashString@@V?$allocator@VioHashString@@@std@@@std@@QBE?AV?$_Vector_const_iterator@V?$_Vector_val@VioHashString@@V?$allocator@VioHashString@@@std@@@std@@@2@XZ
_TEXT	SEGMENT
___$ReturnUdt$ = 8					; size = 4
?end@?$vector@VioHashString@@V?$allocator@VioHashString@@@std@@@std@@QBE?AV?$_Vector_const_iterator@V?$_Vector_val@VioHashString@@V?$allocator@VioHashString@@@std@@@std@@@2@XZ PROC ; std::vector<ioHashString,std::allocator<ioHashString> >::end, COMDAT
; _this$ = ecx

; 796  : 		{	// return iterator for end of nonmutable sequence

  00000	55		 push	 ebp
  00001	8b ec		 mov	 ebp, esp

; 797  : 		return (const_iterator(this->_Mylast, this));

  00003	8b 49 04	 mov	 ecx, DWORD PTR [ecx+4]
  00006	8b 45 08	 mov	 eax, DWORD PTR ___$ReturnUdt$[ebp]
  00009	89 08		 mov	 DWORD PTR [eax], ecx

; 798  : 		}

  0000b	5d		 pop	 ebp
  0000c	c2 04 00	 ret	 4
?end@?$vector@VioHashString@@V?$allocator@VioHashString@@@std@@@std@@QBE?AV?$_Vector_const_iterator@V?$_Vector_val@VioHashString@@V?$allocator@VioHashString@@@std@@@std@@@2@XZ ENDP ; std::vector<ioHashString,std::allocator<ioHashString> >::end
_TEXT	ENDS
PUBLIC	??0?$_Vector_val@VioHashString@@V?$allocator@VioHashString@@@std@@@std@@QAE@V?$allocator@VioHashString@@@1@@Z ; std::_Vector_val<ioHashString,std::allocator<ioHashString> >::_Vector_val<ioHashString,std::allocator<ioHashString> >
; Function compile flags: /Ogsp
;	COMDAT ??0?$_Vector_val@VioHashString@@V?$allocator@VioHashString@@@std@@@std@@QAE@V?$allocator@VioHashString@@@1@@Z
_TEXT	SEGMENT
__Al$ = 8						; size = 1
??0?$_Vector_val@VioHashString@@V?$allocator@VioHashString@@@std@@@std@@QAE@V?$allocator@VioHashString@@@1@@Z PROC ; std::_Vector_val<ioHashString,std::allocator<ioHashString> >::_Vector_val<ioHashString,std::allocator<ioHashString> >, COMDAT
; _this$ = ecx

; 426  : 		{	// construct allocator from _Al

  00000	8b c1		 mov	 eax, ecx

; 427  : 		_Myfirst = 0;

  00002	33 c9		 xor	 ecx, ecx
  00004	89 08		 mov	 DWORD PTR [eax], ecx

; 428  : 		_Mylast = 0;

  00006	89 48 04	 mov	 DWORD PTR [eax+4], ecx

; 429  : 		_Myend = 0;

  00009	89 48 08	 mov	 DWORD PTR [eax+8], ecx

; 430  : 		}

  0000c	c2 04 00	 ret	 4
??0?$_Vector_val@VioHashString@@V?$allocator@VioHashString@@@std@@@std@@QAE@V?$allocator@VioHashString@@@1@@Z ENDP ; std::_Vector_val<ioHashString,std::allocator<ioHashString> >::_Vector_val<ioHashString,std::allocator<ioHashString> >
_TEXT	ENDS
PUBLIC	?_Make_iter@?$vector@VioHashString@@V?$allocator@VioHashString@@@std@@@std@@QBE?AV?$_Vector_iterator@V?$_Vector_val@VioHashString@@V?$allocator@VioHashString@@@std@@@std@@@2@V?$_Vector_const_iterator@V?$_Vector_val@VioHashString@@V?$allocator@VioHashString@@@std@@@std@@@2@@Z ; std::vector<ioHashString,std::allocator<ioHashString> >::_Make_iter
; Function compile flags: /Ogsp
;	COMDAT ?_Make_iter@?$vector@VioHashString@@V?$allocator@VioHashString@@@std@@@std@@QBE?AV?$_Vector_iterator@V?$_Vector_val@VioHashString@@V?$allocator@VioHashString@@@std@@@std@@@2@V?$_Vector_const_iterator@V?$_Vector_val@VioHashString@@V?$allocator@VioHashString@@@std@@@std@@@2@@Z
_TEXT	SEGMENT
___$ReturnUdt$ = 8					; size = 4
__Where$ = 12						; size = 4
?_Make_iter@?$vector@VioHashString@@V?$allocator@VioHashString@@@std@@@std@@QBE?AV?$_Vector_iterator@V?$_Vector_val@VioHashString@@V?$allocator@VioHashString@@@std@@@std@@@2@V?$_Vector_const_iterator@V?$_Vector_val@VioHashString@@V?$allocator@VioHashString@@@std@@@std@@@2@@Z PROC ; std::vector<ioHashString,std::allocator<ioHashString> >::_Make_iter, COMDAT
; _this$ = ecx

; 801  : 		{	// make iterator from const_iterator

  00000	55		 push	 ebp
  00001	8b ec		 mov	 ebp, esp

; 802  : 		return (iterator(_Where._Ptr, this));

  00003	8b 45 08	 mov	 eax, DWORD PTR ___$ReturnUdt$[ebp]
  00006	8b 4d 0c	 mov	 ecx, DWORD PTR __Where$[ebp]
  00009	89 08		 mov	 DWORD PTR [eax], ecx

; 803  : 		}

  0000b	5d		 pop	 ebp
  0000c	c2 08 00	 ret	 8
?_Make_iter@?$vector@VioHashString@@V?$allocator@VioHashString@@@std@@@std@@QBE?AV?$_Vector_iterator@V?$_Vector_val@VioHashString@@V?$allocator@VioHashString@@@std@@@std@@@2@V?$_Vector_const_iterator@V?$_Vector_val@VioHashString@@V?$allocator@VioHashString@@@std@@@std@@@2@@Z ENDP ; std::vector<ioHashString,std::allocator<ioHashString> >::_Make_iter
_TEXT	ENDS
PUBLIC	?max_size@?$vector@VioHashString@@V?$allocator@VioHashString@@@std@@@std@@QBEIXZ ; std::vector<ioHashString,std::allocator<ioHashString> >::max_size
; Function compile flags: /Ogsp
;	COMDAT ?max_size@?$vector@VioHashString@@V?$allocator@VioHashString@@@std@@@std@@QBEIXZ
_TEXT	SEGMENT
?max_size@?$vector@VioHashString@@V?$allocator@VioHashString@@@std@@@std@@QBEIXZ PROC ; std::vector<ioHashString,std::allocator<ioHashString> >::max_size, COMDAT
; _this$ = ecx

; 884  : 		return (this->_Alval.max_size());

  00000	b8 ff ff ff 0f	 mov	 eax, 268435455		; 0fffffffH

; 885  : 		}

  00005	c3		 ret	 0
?max_size@?$vector@VioHashString@@V?$allocator@VioHashString@@@std@@@std@@QBEIXZ ENDP ; std::vector<ioHashString,std::allocator<ioHashString> >::max_size
_TEXT	ENDS
PUBLIC	?allocate@?$allocator@VioHashString@@@std@@QAEPAVioHashString@@I@Z ; std::allocator<ioHashString>::allocate
; Function compile flags: /Ogsp
; File c:\program files (x86)\microsoft visual studio 10.0\vc\include\xmemory
;	COMDAT ?allocate@?$allocator@VioHashString@@@std@@QAEPAVioHashString@@I@Z
_TEXT	SEGMENT
__Count$ = 8						; size = 4
?allocate@?$allocator@VioHashString@@@std@@QAEPAVioHashString@@I@Z PROC ; std::allocator<ioHashString>::allocate, COMDAT
; _this$ = ecx

; 186  : 		{	// allocate array of _Count elements

  00000	55		 push	 ebp
  00001	8b ec		 mov	 ebp, esp

; 187  : 		return (_Allocate(_Count, (pointer)0));

  00003	6a 00		 push	 0
  00005	ff 75 08	 push	 DWORD PTR __Count$[ebp]
  00008	e8 00 00 00 00	 call	 ??$_Allocate@VioHashString@@@std@@YAPAVioHashString@@IPAV1@@Z ; std::_Allocate<ioHashString>
  0000d	59		 pop	 ecx
  0000e	59		 pop	 ecx

; 188  : 		}

  0000f	5d		 pop	 ebp
  00010	c2 04 00	 ret	 4
?allocate@?$allocator@VioHashString@@@std@@QAEPAVioHashString@@I@Z ENDP ; std::allocator<ioHashString>::allocate
_TEXT	ENDS
PUBLIC	??8?$_Vector_const_iterator@V?$_Vector_val@VioHashString@@V?$allocator@VioHashString@@@std@@@std@@@std@@QBE_NABV01@@Z ; std::_Vector_const_iterator<std::_Vector_val<ioHashString,std::allocator<ioHashString> > >::operator==
; Function compile flags: /Ogsp
; File c:\program files (x86)\microsoft visual studio 10.0\vc\include\vector
;	COMDAT ??8?$_Vector_const_iterator@V?$_Vector_val@VioHashString@@V?$allocator@VioHashString@@@std@@@std@@@std@@QBE_NABV01@@Z
_TEXT	SEGMENT
__Right$ = 8						; size = 4
??8?$_Vector_const_iterator@V?$_Vector_val@VioHashString@@V?$allocator@VioHashString@@@std@@@std@@@std@@QBE_NABV01@@Z PROC ; std::_Vector_const_iterator<std::_Vector_val<ioHashString,std::allocator<ioHashString> > >::operator==, COMDAT
; _this$ = ecx

; 201  : 		{	// test for iterator equality

  00000	55		 push	 ebp
  00001	8b ec		 mov	 ebp, esp

; 202  : 		_Compat(_Right);
; 203  : 		return (this->_Ptr == _Right._Ptr);

  00003	8b 01		 mov	 eax, DWORD PTR [ecx]
  00005	8b 4d 08	 mov	 ecx, DWORD PTR __Right$[ebp]
  00008	2b 01		 sub	 eax, DWORD PTR [ecx]
  0000a	f7 d8		 neg	 eax
  0000c	1b c0		 sbb	 eax, eax
  0000e	40		 inc	 eax

; 204  : 		}

  0000f	5d		 pop	 ebp
  00010	c2 04 00	 ret	 4
??8?$_Vector_const_iterator@V?$_Vector_val@VioHashString@@V?$allocator@VioHashString@@@std@@@std@@@std@@QBE_NABV01@@Z ENDP ; std::_Vector_const_iterator<std::_Vector_val<ioHashString,std::allocator<ioHashString> > >::operator==
_TEXT	ENDS
PUBLIC	??$_Move@PAVioHashString@@PAV1@@std@@YAPAVioHashString@@PAV1@00U_Nonscalar_ptr_iterator_tag@0@@Z ; std::_Move<ioHashString *,ioHashString *>
; Function compile flags: /Ogsp
; File c:\program files (x86)\microsoft visual studio 10.0\vc\include\xutility
;	COMDAT ??$_Move@PAVioHashString@@PAV1@@std@@YAPAVioHashString@@PAV1@00U_Nonscalar_ptr_iterator_tag@0@@Z
_TEXT	SEGMENT
__First$ = 8						; size = 4
__Last$ = 12						; size = 4
__Dest$ = 16						; size = 4
___formal$ = 20						; size = 1
??$_Move@PAVioHashString@@PAV1@@std@@YAPAVioHashString@@PAV1@00U_Nonscalar_ptr_iterator_tag@0@@Z PROC ; std::_Move<ioHashString *,ioHashString *>, COMDAT

; 2512 : 	{	// move [_First, _Last) to [_Dest, ...), arbitrary iterators

  00000	55		 push	 ebp
  00001	8b ec		 mov	 ebp, esp
  00003	56		 push	 esi

; 2513 : 	for (; _First != _Last; ++_Dest, ++_First)

  00004	8b 75 08	 mov	 esi, DWORD PTR __First$[ebp]
  00007	eb 11		 jmp	 SHORT $LN11@Move
$LL3@Move:

; 2514 : 		*_Dest = _STD move(*_First);

  00009	8b 4d 10	 mov	 ecx, DWORD PTR __Dest$[ebp]
  0000c	56		 push	 esi
  0000d	ff 15 00 00 00
	00		 call	 DWORD PTR __imp_??4ioHashString@@QAEAAV0@ABV0@@Z
  00013	83 45 10 10	 add	 DWORD PTR __Dest$[ebp], 16 ; 00000010H
  00017	83 c6 10	 add	 esi, 16			; 00000010H
$LN11@Move:

; 2513 : 	for (; _First != _Last; ++_Dest, ++_First)

  0001a	3b 75 0c	 cmp	 esi, DWORD PTR __Last$[ebp]
  0001d	75 ea		 jne	 SHORT $LL3@Move

; 2515 : 	return (_Dest);

  0001f	8b 45 10	 mov	 eax, DWORD PTR __Dest$[ebp]
  00022	5e		 pop	 esi

; 2516 : 	}

  00023	5d		 pop	 ebp
  00024	c3		 ret	 0
??$_Move@PAVioHashString@@PAV1@@std@@YAPAVioHashString@@PAV1@00U_Nonscalar_ptr_iterator_tag@0@@Z ENDP ; std::_Move<ioHashString *,ioHashString *>
_TEXT	ENDS
PUBLIC	??$_Destroy@VioHashString@@@std@@YAXPAVioHashString@@@Z ; std::_Destroy<ioHashString>
; Function compile flags: /Ogsp
; File c:\program files (x86)\microsoft visual studio 10.0\vc\include\xmemory
;	COMDAT ??$_Destroy@VioHashString@@@std@@YAXPAVioHashString@@@Z
_TEXT	SEGMENT
__Ptr$ = 8						; size = 4
??$_Destroy@VioHashString@@@std@@YAXPAVioHashString@@@Z PROC ; std::_Destroy<ioHashString>, COMDAT

; 62   : 	{	// destroy object at _Ptr

  00000	55		 push	 ebp
  00001	8b ec		 mov	 ebp, esp

; 63   : 	_Ptr->~_Ty();

  00003	8b 4d 08	 mov	 ecx, DWORD PTR __Ptr$[ebp]

; 64   : 	}

  00006	5d		 pop	 ebp

; 63   : 	_Ptr->~_Ty();

  00007	ff 25 00 00 00
	00		 jmp	 DWORD PTR __imp_??1ioHashString@@QAE@XZ
??$_Destroy@VioHashString@@@std@@YAXPAVioHashString@@@Z ENDP ; std::_Destroy<ioHashString>
_TEXT	ENDS
PUBLIC	?construct@?$allocator@VioHashString@@@std@@QAEXPAVioHashString@@ABV3@@Z ; std::allocator<ioHashString>::construct
; Function compile flags: /Ogsp
;	COMDAT ?construct@?$allocator@VioHashString@@@std@@QAEXPAVioHashString@@ABV3@@Z
_TEXT	SEGMENT
__Ptr$ = 8						; size = 4
__Val$ = 12						; size = 4
?construct@?$allocator@VioHashString@@@std@@QAEXPAVioHashString@@ABV3@@Z PROC ; std::allocator<ioHashString>::construct, COMDAT
; _this$ = ecx

; 196  : 		{	// construct object at _Ptr with value _Val

  00000	55		 push	 ebp
  00001	8b ec		 mov	 ebp, esp

; 197  : 		_Construct(_Ptr, _Val);

  00003	ff 75 0c	 push	 DWORD PTR __Val$[ebp]
  00006	ff 75 08	 push	 DWORD PTR __Ptr$[ebp]
  00009	e8 00 00 00 00	 call	 ??$_Construct@VioHashString@@ABV1@@std@@YAXPAVioHashString@@ABV1@@Z ; std::_Construct<ioHashString,ioHashString const &>
  0000e	59		 pop	 ecx
  0000f	59		 pop	 ecx

; 198  : 		}

  00010	5d		 pop	 ebp
  00011	c2 08 00	 ret	 8
?construct@?$allocator@VioHashString@@@std@@QAEXPAVioHashString@@ABV3@@Z ENDP ; std::allocator<ioHashString>::construct
_TEXT	ENDS
PUBLIC	?GetJumpState@ioBaseChar@@QBE?AW4JumpState@@XZ	; ioBaseChar::GetJumpState
; Function compile flags: /Ogsp
; File d:\lost saga for developer\youtube\tutorial\source\src\lsclient\iobasechar.h
;	COMDAT ?GetJumpState@ioBaseChar@@QBE?AW4JumpState@@XZ
_TEXT	SEGMENT
_value$614286 = -4					; size = 4
?GetJumpState@ioBaseChar@@QBE?AW4JumpState@@XZ PROC	; ioBaseChar::GetJumpState, COMDAT
; _this$ = ecx

; 2158 : 	inline JumpState GetJumpState() const { return m_JumpState; }

  00000	55		 push	 ebp
  00001	8b ec		 mov	 ebp, esp
  00003	51		 push	 ecx
  00004	8d 45 fc	 lea	 eax, DWORD PTR _value$614286[ebp]
  00007	50		 push	 eax
  00008	81 c1 40 0e 00
	00		 add	 ecx, 3648		; 00000e40H
  0000e	e8 00 00 00 00	 call	 ?DecryptValueToPool@?$CEncrypt@W4JumpState@@@@QAEXPAW4JumpState@@@Z ; CEncrypt<enum JumpState>::DecryptValueToPool
  00013	8b 45 fc	 mov	 eax, DWORD PTR _value$614286[ebp]
  00016	c9		 leave
  00017	c3		 ret	 0
?GetJumpState@ioBaseChar@@QBE?AW4JumpState@@XZ ENDP	; ioBaseChar::GetJumpState
_TEXT	ENDS
PUBLIC	?SetForcePowerAmt@ioBaseChar@@QAEXM@Z		; ioBaseChar::SetForcePowerAmt
; Function compile flags: /Ogsp
;	COMDAT ?SetForcePowerAmt@ioBaseChar@@QAEXM@Z
_TEXT	SEGMENT
_value$614293 = 8					; size = 4
_fAmt$ = 8						; size = 4
?SetForcePowerAmt@ioBaseChar@@QAEXM@Z PROC		; ioBaseChar::SetForcePowerAmt, COMDAT
; _this$ = ecx

; 2641 : 	inline void SetForcePowerAmt( float fAmt ) { m_fForceAmt = fAmt; }

  00000	55		 push	 ebp
  00001	8b ec		 mov	 ebp, esp
  00003	f3 0f 10 45 08	 movss	 xmm0, DWORD PTR _fAmt$[ebp]
  00008	8d 45 08	 lea	 eax, DWORD PTR _value$614293[ebp]
  0000b	50		 push	 eax
  0000c	81 c1 88 0b 00
	00		 add	 ecx, 2952		; 00000b88H
  00012	f3 0f 11 45 08	 movss	 DWORD PTR _value$614293[ebp], xmm0
  00017	e8 00 00 00 00	 call	 ?EncryptValueToPool@?$CEncrypt@M@@AAEXPBD@Z ; CEncrypt<float>::EncryptValueToPool
  0001c	5d		 pop	 ebp
  0001d	c2 04 00	 ret	 4
?SetForcePowerAmt@ioBaseChar@@QAEXM@Z ENDP		; ioBaseChar::SetForcePowerAmt
_TEXT	ENDS
PUBLIC	__real@3f800000
PUBLIC	__$ArrayPad$
PUBLIC	?ChangeToNormalAttack@ioDraculaItem@@IAEXPAVioBaseChar@@@Z ; ioDraculaItem::ChangeToNormalAttack
EXTRN	??1SP2Packet@@UAE@XZ:PROC			; SP2Packet::~SP2Packet
EXTRN	?SendToAllPlayingUser@P2PNetwork@@YAXAAVSP2Packet@@PAVioBaseChar@@@Z:PROC ; P2PNetwork::SendToAllPlayingUser
EXTRN	?FillAutoTargetInfo@ioBaseChar@@QAEXAAVSP2Packet@@@Z:PROC ; ioBaseChar::FillAutoTargetInfo
EXTRN	??6SP2Packet@@QAEAAV0@H@Z:PROC			; SP2Packet::operator<<
EXTRN	?FillItemGaugePacketHeader@ioAttackableItem@@QAEXPAVioBaseChar@@AAVSP2Packet@@@Z:PROC ; ioAttackableItem::FillItemGaugePacketHeader
EXTRN	??0SP2Packet@@QAE@K@Z:PROC			; SP2Packet::SP2Packet
EXTRN	?ApplyNormalAttackResult@ioBaseChar@@QAEXH_N@Z:PROC ; ioBaseChar::ApplyNormalAttackResult
EXTRN	?SetNormalAttackByAttribute@ioBaseChar@@QAEKABUAttackAttribute@@_NMM@Z:PROC ; ioBaseChar::SetNormalAttackByAttribute
EXTRN	?SetAutoTarget@ioBaseChar@@QAEXW4AutoTargetType@@@Z:PROC ; ioBaseChar::SetAutoTarget
EXTRN	?GetAttribute@ioFormalAttackGrp@@QBEPBUAttackAttribute@@W4AttackType@@H@Z:PROC ; ioFormalAttackGrp::GetAttribute
EXTRN	?SetAttackMoveEnable@ioBaseChar@@QAEX_N@Z:PROC	; ioBaseChar::SetAttackMoveEnable
EXTRN	__imp_?GetLoopSec@ioFrameTimer@@QBEKXZ:PROC
EXTRN	__imp_?GetSingleton@ioFrameTimer@@SAAAV1@XZ:PROC
EXTRN	__chkstk:PROC
;	COMDAT __real@3f800000
; File d:\lost saga for developer\youtube\tutorial\source\src\lsclient\encryptvalue.h
CONST	SEGMENT
__real@3f800000 DD 03f800000r			; 1
CONST	ENDS
;	COMDAT xdata$x
xdata$x	SEGMENT
__unwindtable$?ChangeToNormalAttack@ioDraculaItem@@IAEXPAVioBaseChar@@@Z DD 0ffffffffH
	DD	FLAT:__unwindfunclet$?ChangeToNormalAttack@ioDraculaItem@@IAEXPAVioBaseChar@@@Z$0
__ehfuncinfo$?ChangeToNormalAttack@ioDraculaItem@@IAEXPAVioBaseChar@@@Z DD 019930522H
	DD	01H
	DD	FLAT:__unwindtable$?ChangeToNormalAttack@ioDraculaItem@@IAEXPAVioBaseChar@@@Z
	DD	2 DUP(00H)
	DD	2 DUP(00H)
	DD	00H
	DD	01H
; Function compile flags: /Ogsp
; File d:\lost saga for developer\youtube\tutorial\source\src\lsclient\iodraculaitem.cpp
xdata$x	ENDS
;	COMDAT ?ChangeToNormalAttack@ioDraculaItem@@IAEXPAVioBaseChar@@@Z
_TEXT	SEGMENT
_dwCurTime$ = -32820					; size = 4
_value$614308 = -32816					; size = 4
_value$614304 = -32816					; size = 4
_pAttribute$ = -32816					; size = 4
_value$614316 = -32809					; size = 1
_value$614312 = -32809					; size = 1
_kPacket$607967 = -32808				; size = 32792
__$ArrayPad$ = -16					; size = 4
__$EHRec$ = -12						; size = 12
_pOwner$ = 8						; size = 4
?ChangeToNormalAttack@ioDraculaItem@@IAEXPAVioBaseChar@@@Z PROC ; ioDraculaItem::ChangeToNormalAttack, COMDAT
; _this$ = ecx

; 264  : {

  00000	55		 push	 ebp
  00001	8b ec		 mov	 ebp, esp
  00003	6a ff		 push	 -1
  00005	68 00 00 00 00	 push	 __ehhandler$?ChangeToNormalAttack@ioDraculaItem@@IAEXPAVioBaseChar@@@Z
  0000a	64 a1 00 00 00
	00		 mov	 eax, DWORD PTR fs:0
  00010	50		 push	 eax
  00011	b8 28 80 00 00	 mov	 eax, 32808		; 00008028H
  00016	e8 00 00 00 00	 call	 __chkstk
  0001b	a1 00 00 00 00	 mov	 eax, DWORD PTR ___security_cookie
  00020	33 c5		 xor	 eax, ebp
  00022	89 45 f0	 mov	 DWORD PTR __$ArrayPad$[ebp], eax
  00025	53		 push	 ebx
  00026	56		 push	 esi
  00027	57		 push	 edi
  00028	50		 push	 eax
  00029	8d 45 f4	 lea	 eax, DWORD PTR __$EHRec$[ebp]
  0002c	64 a3 00 00 00
	00		 mov	 DWORD PTR fs:0, eax
  00032	8b 7d 08	 mov	 edi, DWORD PTR _pOwner$[ebp]
  00035	8b f1		 mov	 esi, ecx

; 265  : 	DWORD dwCurTime = FRAMEGETTIME();

  00037	ff 15 00 00 00
	00		 call	 DWORD PTR __imp_?GetSingleton@ioFrameTimer@@SAAAV1@XZ
  0003d	8b c8		 mov	 ecx, eax
  0003f	ff 15 00 00 00
	00		 call	 DWORD PTR __imp_?GetLoopSec@ioFrameTimer@@QBEKXZ

; 266  : 
; 267  : 	//
; 268  : 	pOwner->SetAttackMoveEnable( false );

  00045	33 db		 xor	 ebx, ebx
  00047	53		 push	 ebx
  00048	8b cf		 mov	 ecx, edi
  0004a	89 85 cc 7f ff
	ff		 mov	 DWORD PTR _dwCurTime$[ebp], eax
  00050	e8 00 00 00 00	 call	 ?SetAttackMoveEnable@ioBaseChar@@QAEX_N@Z ; ioBaseChar::SetAttackMoveEnable

; 269  : 	pOwner->SetChargingState( false );
; 270  : 
; 271  : 	m_fCurChargeRate = 0.0f;

  00055	0f 57 c0	 xorps	 xmm0, xmm0
  00058	8d 85 d0 7f ff
	ff		 lea	 eax, DWORD PTR _value$614304[ebp]
  0005e	50		 push	 eax
  0005f	8d 8e 8c 0f 00
	00		 lea	 ecx, DWORD PTR [esi+3980]
  00065	88 9f 54 20 00
	00		 mov	 BYTE PTR [edi+8276], bl
  0006b	f3 0f 11 85 d0
	7f ff ff	 movss	 DWORD PTR _value$614304[ebp], xmm0
  00073	e8 00 00 00 00	 call	 ?EncryptValueToPool@?$CEncrypt@M@@AAEXPBD@Z ; CEncrypt<float>::EncryptValueToPool

; 272  : 	m_fCurChargeRateForSkill = 0.0f;

  00078	0f 57 c0	 xorps	 xmm0, xmm0
  0007b	8d 85 d0 7f ff
	ff		 lea	 eax, DWORD PTR _value$614308[ebp]
  00081	50		 push	 eax
  00082	8d 8e bc 0f 00
	00		 lea	 ecx, DWORD PTR [esi+4028]
  00088	f3 0f 11 85 d0
	7f ff ff	 movss	 DWORD PTR _value$614308[ebp], xmm0
  00090	e8 00 00 00 00	 call	 ?EncryptValueToPool@?$CEncrypt@M@@AAEXPBD@Z ; CEncrypt<float>::EncryptValueToPool

; 273  : 
; 274  : 	const AttackAttribute *pAttribute = m_FormalAttack.GetAttribute( AT_NORMAL, m_iCurCombo );

  00095	ff b6 70 19 00
	00		 push	 DWORD PTR [esi+6512]
  0009b	8d 8e 2c 06 00
	00		 lea	 ecx, DWORD PTR [esi+1580]
  000a1	53		 push	 ebx
  000a2	e8 00 00 00 00	 call	 ?GetAttribute@ioFormalAttackGrp@@QBEPBUAttackAttribute@@W4AttackType@@H@Z ; ioFormalAttackGrp::GetAttribute
  000a7	89 85 d0 7f ff
	ff		 mov	 DWORD PTR _pAttribute$[ebp], eax

; 275  : 	if( pAttribute )

  000ad	3b c3		 cmp	 eax, ebx
  000af	74 6a		 je	 SHORT $LN4@ChangeToNo

; 276  : 	{
; 277  : 		if( !m_bChargeAutoTarget )

  000b1	8d 85 d7 7f ff
	ff		 lea	 eax, DWORD PTR _value$614312[ebp]
  000b7	50		 push	 eax
  000b8	8d 8e 54 0e 00
	00		 lea	 ecx, DWORD PTR [esi+3668]
  000be	e8 00 00 00 00	 call	 ?DecryptValueToPool@?$CEncrypt@_N@@QAEXPA_N@Z ; CEncrypt<bool>::DecryptValueToPool
  000c3	38 9d d7 7f ff
	ff		 cmp	 BYTE PTR _value$614312[ebp], bl
  000c9	75 08		 jne	 SHORT $LN3@ChangeToNo

; 278  : 		{
; 279  : 			pOwner->SetAutoTarget( ATT_NORMAL );

  000cb	53		 push	 ebx
  000cc	8b cf		 mov	 ecx, edi
  000ce	e8 00 00 00 00	 call	 ?SetAutoTarget@ioBaseChar@@QAEXW4AutoTargetType@@@Z ; ioBaseChar::SetAutoTarget
$LN3@ChangeToNo:

; 280  : 		}
; 281  : 
; 282  : 		pOwner->SetNormalAttackByAttribute( *pAttribute );

  000d3	f3 0f 10 05 00
	00 00 00	 movss	 xmm0, DWORD PTR __real@3f800000
  000db	51		 push	 ecx
  000dc	51		 push	 ecx
  000dd	f3 0f 11 44 24
	04		 movss	 DWORD PTR [esp+4], xmm0
  000e3	f3 0f 11 04 24	 movss	 DWORD PTR [esp], xmm0
  000e8	6a 01		 push	 1
  000ea	ff b5 d0 7f ff
	ff		 push	 DWORD PTR _pAttribute$[ebp]
  000f0	8b cf		 mov	 ecx, edi
  000f2	e8 00 00 00 00	 call	 ?SetNormalAttackByAttribute@ioBaseChar@@QAEKABUAttackAttribute@@_NMM@Z ; ioBaseChar::SetNormalAttackByAttribute

; 283  : 		m_szCurAni = pAttribute->m_AttackAnimation;

  000f7	ff b5 d0 7f ff
	ff		 push	 DWORD PTR _pAttribute$[ebp]
  000fd	8d 8e 10 0f 00
	00		 lea	 ecx, DWORD PTR [esi+3856]
  00103	ff 15 00 00 00
	00		 call	 DWORD PTR __imp_??4ioHashString@@QAEAAV0@ABV0@@Z

; 284  : 
; 285  : 		m_dwCancelCheckTime = dwCurTime;

  00109	8b 85 cc 7f ff
	ff		 mov	 eax, DWORD PTR _dwCurTime$[ebp]
  0010f	89 86 08 0f 00
	00		 mov	 DWORD PTR [esi+3848], eax

; 286  : 		m_dwInputCancelCheckTime = dwCurTime;

  00115	89 86 0c 0f 00
	00		 mov	 DWORD PTR [esi+3852], eax
$LN4@ChangeToNo:

; 287  : 	}
; 288  : 
; 289  : 	pOwner->ApplyNormalAttackResult( m_iCurCombo );

  0011b	53		 push	 ebx
  0011c	ff b6 70 19 00
	00		 push	 DWORD PTR [esi+6512]
  00122	8b cf		 mov	 ecx, edi
  00124	e8 00 00 00 00	 call	 ?ApplyNormalAttackResult@ioBaseChar@@QAEXH_N@Z ; ioBaseChar::ApplyNormalAttackResult

; 290  : 
; 291  : 	m_ChargeState = CS_NORMAL_ATTACK;

  00129	c7 86 64 19 00
	00 02 00 00 00	 mov	 DWORD PTR [esi+6500], 2

; 292  : 
; 293  : 	if( pOwner->IsNeedSendNetwork() )

  00133	8b 07		 mov	 eax, DWORD PTR [edi]
  00135	8b cf		 mov	 ecx, edi
  00137	ff 90 04 01 00
	00		 call	 DWORD PTR [eax+260]
  0013d	84 c0		 test	 al, al
  0013f	0f 84 8a 00 00
	00		 je	 $LN2@ChangeToNo

; 294  : 	{
; 295  : 		SP2Packet kPacket( CUPK_ITEM_GAUGE_OK );

  00145	68 27 41 00 00	 push	 16679			; 00004127H
  0014a	8d 8d d8 7f ff
	ff		 lea	 ecx, DWORD PTR _kPacket$607967[ebp]
  00150	e8 00 00 00 00	 call	 ??0SP2Packet@@QAE@K@Z	; SP2Packet::SP2Packet

; 296  : 		FillItemGaugePacketHeader( pOwner, kPacket );

  00155	8d 85 d8 7f ff
	ff		 lea	 eax, DWORD PTR _kPacket$607967[ebp]
  0015b	50		 push	 eax
  0015c	57		 push	 edi
  0015d	8b ce		 mov	 ecx, esi
  0015f	89 5d fc	 mov	 DWORD PTR __$EHRec$[ebp+8], ebx
  00162	e8 00 00 00 00	 call	 ?FillItemGaugePacketHeader@ioAttackableItem@@QAEXPAVioBaseChar@@AAVSP2Packet@@@Z ; ioAttackableItem::FillItemGaugePacketHeader

; 297  : 		kPacket << m_ChargeState;

  00167	ff b6 64 19 00
	00		 push	 DWORD PTR [esi+6500]
  0016d	8d 8d d8 7f ff
	ff		 lea	 ecx, DWORD PTR _kPacket$607967[ebp]
  00173	e8 00 00 00 00	 call	 ??6SP2Packet@@QAEAAV0@H@Z ; SP2Packet::operator<<

; 298  : 		kPacket << m_iCurCombo;

  00178	ff b6 70 19 00
	00		 push	 DWORD PTR [esi+6512]
  0017e	8d 8d d8 7f ff
	ff		 lea	 ecx, DWORD PTR _kPacket$607967[ebp]
  00184	e8 00 00 00 00	 call	 ??6SP2Packet@@QAEAAV0@H@Z ; SP2Packet::operator<<

; 299  : 		if( !m_bChargeAutoTarget )

  00189	8d 85 d7 7f ff
	ff		 lea	 eax, DWORD PTR _value$614316[ebp]
  0018f	50		 push	 eax
  00190	8d 8e 54 0e 00
	00		 lea	 ecx, DWORD PTR [esi+3668]
  00196	e8 00 00 00 00	 call	 ?DecryptValueToPool@?$CEncrypt@_N@@QAEXPA_N@Z ; CEncrypt<bool>::DecryptValueToPool
  0019b	38 9d d7 7f ff
	ff		 cmp	 BYTE PTR _value$614316[ebp], bl
  001a1	75 0e		 jne	 SHORT $LN1@ChangeToNo

; 300  : 			pOwner->FillAutoTargetInfo( kPacket );

  001a3	8d 85 d8 7f ff
	ff		 lea	 eax, DWORD PTR _kPacket$607967[ebp]
  001a9	50		 push	 eax
  001aa	8b cf		 mov	 ecx, edi
  001ac	e8 00 00 00 00	 call	 ?FillAutoTargetInfo@ioBaseChar@@QAEXAAVSP2Packet@@@Z ; ioBaseChar::FillAutoTargetInfo
$LN1@ChangeToNo:

; 301  : 		P2PNetwork::SendToAllPlayingUser( kPacket );

  001b1	8d 85 d8 7f ff
	ff		 lea	 eax, DWORD PTR _kPacket$607967[ebp]
  001b7	53		 push	 ebx
  001b8	50		 push	 eax
  001b9	e8 00 00 00 00	 call	 ?SendToAllPlayingUser@P2PNetwork@@YAXAAVSP2Packet@@PAVioBaseChar@@@Z ; P2PNetwork::SendToAllPlayingUser

; 302  : 	}

  001be	83 4d fc ff	 or	 DWORD PTR __$EHRec$[ebp+8], -1
  001c2	59		 pop	 ecx
  001c3	59		 pop	 ecx
  001c4	8d 8d d8 7f ff
	ff		 lea	 ecx, DWORD PTR _kPacket$607967[ebp]
  001ca	e8 00 00 00 00	 call	 ??1SP2Packet@@UAE@XZ	; SP2Packet::~SP2Packet
$LN2@ChangeToNo:

; 303  : }

  001cf	8b 4d f4	 mov	 ecx, DWORD PTR __$EHRec$[ebp]
  001d2	64 89 0d 00 00
	00 00		 mov	 DWORD PTR fs:0, ecx
  001d9	59		 pop	 ecx
  001da	5f		 pop	 edi
  001db	5e		 pop	 esi
  001dc	5b		 pop	 ebx
  001dd	8b 4d f0	 mov	 ecx, DWORD PTR __$ArrayPad$[ebp]
  001e0	33 cd		 xor	 ecx, ebp
  001e2	e8 00 00 00 00	 call	 @__security_check_cookie@4
  001e7	c9		 leave
  001e8	c2 04 00	 ret	 4
_TEXT	ENDS
;	COMDAT text$x
text$x	SEGMENT
__unwindfunclet$?ChangeToNormalAttack@ioDraculaItem@@IAEXPAVioBaseChar@@@Z$0:
  00000	8d 8d d8 7f ff
	ff		 lea	 ecx, DWORD PTR _kPacket$607967[ebp]
  00006	e9 00 00 00 00	 jmp	 ??1SP2Packet@@UAE@XZ	; SP2Packet::~SP2Packet
__ehhandler$?ChangeToNormalAttack@ioDraculaItem@@IAEXPAVioBaseChar@@@Z:
  0000b	8b 54 24 08	 mov	 edx, DWORD PTR [esp+8]
  0000f	8d 42 0c	 lea	 eax, DWORD PTR [edx+12]
  00012	8b 8a c8 7f ff
	ff		 mov	 ecx, DWORD PTR [edx-32824]
  00018	33 c8		 xor	 ecx, eax
  0001a	e8 00 00 00 00	 call	 @__security_check_cookie@4
  0001f	8b 4a fc	 mov	 ecx, DWORD PTR [edx-4]
  00022	33 c8		 xor	 ecx, eax
  00024	e8 00 00 00 00	 call	 @__security_check_cookie@4
  00029	b8 00 00 00 00	 mov	 eax, OFFSET __ehfuncinfo$?ChangeToNormalAttack@ioDraculaItem@@IAEXPAVioBaseChar@@@Z
  0002e	e9 00 00 00 00	 jmp	 ___CxxFrameHandler3
text$x	ENDS
?ChangeToNormalAttack@ioDraculaItem@@IAEXPAVioBaseChar@@@Z ENDP ; ioDraculaItem::ChangeToNormalAttack
PUBLIC	?OnItemGaugeOK@ioDraculaItem@@UAEXPAVioBaseChar@@AAVSP2Packet@@@Z ; ioDraculaItem::OnItemGaugeOK
EXTRN	?ApplyAutoTargetInfo@ioBaseChar@@QAEXAAVSP2Packet@@@Z:PROC ; ioBaseChar::ApplyAutoTargetInfo
EXTRN	??5SP2Packet@@QAEAAV0@AAH@Z:PROC		; SP2Packet::operator>>
; Function compile flags: /Ogsp
;	COMDAT ?OnItemGaugeOK@ioDraculaItem@@UAEXPAVioBaseChar@@AAVSP2Packet@@@Z
_TEXT	SEGMENT
_iState$ = -8						; size = 4
_value$614336 = -1					; size = 1
_pOwner$ = 8						; size = 4
_rkPacket$ = 12						; size = 4
?OnItemGaugeOK@ioDraculaItem@@UAEXPAVioBaseChar@@AAVSP2Packet@@@Z PROC ; ioDraculaItem::OnItemGaugeOK, COMDAT
; _this$ = ecx

; 306  : {

  00000	55		 push	 ebp
  00001	8b ec		 mov	 ebp, esp
  00003	51		 push	 ecx
  00004	51		 push	 ecx
  00005	53		 push	 ebx
  00006	56		 push	 esi

; 307  : 	int iState;
; 308  : 	rkPacket >> iState;

  00007	8d 45 f8	 lea	 eax, DWORD PTR _iState$[ebp]
  0000a	8b f1		 mov	 esi, ecx
  0000c	8b 4d 0c	 mov	 ecx, DWORD PTR _rkPacket$[ebp]
  0000f	50		 push	 eax
  00010	e8 00 00 00 00	 call	 ??5SP2Packet@@QAEAAV0@AAH@Z ; SP2Packet::operator>>

; 309  : 	rkPacket >> m_iCurCombo;

  00015	8b 4d 0c	 mov	 ecx, DWORD PTR _rkPacket$[ebp]
  00018	8d 86 70 19 00
	00		 lea	 eax, DWORD PTR [esi+6512]
  0001e	50		 push	 eax
  0001f	e8 00 00 00 00	 call	 ??5SP2Packet@@QAEAAV0@AAH@Z ; SP2Packet::operator>>

; 310  : 
; 311  : 	switch( iState )

  00024	8b 45 f8	 mov	 eax, DWORD PTR _iState$[ebp]
  00027	33 db		 xor	 ebx, ebx
  00029	2b c3		 sub	 eax, ebx
  0002b	74 2f		 je	 SHORT $LN3@OnItemGaug
  0002d	48		 dec	 eax
  0002e	48		 dec	 eax
  0002f	75 44		 jne	 SHORT $LN4@OnItemGaug

; 318  : 		break;
; 319  : 	case CS_NORMAL_ATTACK:
; 320  : 		if( !m_bChargeAutoTarget )

  00031	8d 45 ff	 lea	 eax, DWORD PTR _value$614336[ebp]
  00034	50		 push	 eax
  00035	8d 8e 54 0e 00
	00		 lea	 ecx, DWORD PTR [esi+3668]
  0003b	e8 00 00 00 00	 call	 ?DecryptValueToPool@?$CEncrypt@_N@@QAEXPA_N@Z ; CEncrypt<bool>::DecryptValueToPool
  00040	38 5d ff	 cmp	 BYTE PTR _value$614336[ebp], bl
  00043	75 0b		 jne	 SHORT $LN1@OnItemGaug

; 321  : 			pOwner->ApplyAutoTargetInfo( rkPacket );

  00045	ff 75 0c	 push	 DWORD PTR _rkPacket$[ebp]
  00048	8b 4d 08	 mov	 ecx, DWORD PTR _pOwner$[ebp]
  0004b	e8 00 00 00 00	 call	 ?ApplyAutoTargetInfo@ioBaseChar@@QAEXAAVSP2Packet@@@Z ; ioBaseChar::ApplyAutoTargetInfo
$LN1@OnItemGaug:

; 322  : 		ChangeToNormalAttack( pOwner );

  00050	ff 75 08	 push	 DWORD PTR _pOwner$[ebp]
  00053	8b ce		 mov	 ecx, esi
  00055	e8 00 00 00 00	 call	 ?ChangeToNormalAttack@ioDraculaItem@@IAEXPAVioBaseChar@@@Z ; ioDraculaItem::ChangeToNormalAttack

; 323  : 		break;

  0005a	eb 19		 jmp	 SHORT $LN4@OnItemGaug
$LN3@OnItemGaug:
  0005c	57		 push	 edi

; 312  : 	{
; 313  : 	case CS_NONE:
; 314  : 		pOwner->SetAttackMoveEnable( false );

  0005d	8b 7d 08	 mov	 edi, DWORD PTR _pOwner$[ebp]
  00060	53		 push	 ebx
  00061	8b cf		 mov	 ecx, edi
  00063	e8 00 00 00 00	 call	 ?SetAttackMoveEnable@ioBaseChar@@QAEX_N@Z ; ioBaseChar::SetAttackMoveEnable

; 315  : 		pOwner->SetChargingState( false );

  00068	88 9f 54 20 00
	00		 mov	 BYTE PTR [edi+8276], bl

; 316  : 
; 317  : 		m_ChargeState = CS_NONE;

  0006e	89 9e 64 19 00
	00		 mov	 DWORD PTR [esi+6500], ebx
  00074	5f		 pop	 edi
$LN4@OnItemGaug:
  00075	5e		 pop	 esi
  00076	5b		 pop	 ebx

; 324  : 	}
; 325  : }

  00077	c9		 leave
  00078	c2 08 00	 ret	 8
?OnItemGaugeOK@ioDraculaItem@@UAEXPAVioBaseChar@@AAVSP2Packet@@@Z ENDP ; ioDraculaItem::OnItemGaugeOK
_TEXT	ENDS
PUBLIC	?OnEndExtendAttack@ioDraculaItem@@UAEXPAVioBaseChar@@_N@Z ; ioDraculaItem::OnEndExtendAttack
EXTRN	?ClearDirDoubleClick@ioBaseChar@@QAEXXZ:PROC	; ioBaseChar::ClearDirDoubleClick
; Function compile flags: /Ogsp
;	COMDAT ?OnEndExtendAttack@ioDraculaItem@@UAEXPAVioBaseChar@@_N@Z
_TEXT	SEGMENT
_value$614345 = 8					; size = 4
_pOwner$ = 8						; size = 4
_bReleaseItem$ = 12					; size = 1
?OnEndExtendAttack@ioDraculaItem@@UAEXPAVioBaseChar@@_N@Z PROC ; ioDraculaItem::OnEndExtendAttack, COMDAT
; _this$ = ecx

; 446  : {

  00000	55		 push	 ebp
  00001	8b ec		 mov	 ebp, esp
  00003	56		 push	 esi
  00004	57		 push	 edi

; 447  : 	m_ChargeState = CS_NONE;
; 448  : 
; 449  : 	pOwner->SetAttackMoveEnable( false );

  00005	8b 7d 08	 mov	 edi, DWORD PTR _pOwner$[ebp]
  00008	8b f1		 mov	 esi, ecx
  0000a	83 a6 64 19 00
	00 00		 and	 DWORD PTR [esi+6500], 0
  00011	6a 00		 push	 0
  00013	8b cf		 mov	 ecx, edi
  00015	e8 00 00 00 00	 call	 ?SetAttackMoveEnable@ioBaseChar@@QAEX_N@Z ; ioBaseChar::SetAttackMoveEnable

; 450  : 	pOwner->SetChargingState( false );
; 451  : 
; 452  : 	pOwner->ClearDirDoubleClick();

  0001a	8b cf		 mov	 ecx, edi
  0001c	c6 87 54 20 00
	00 00		 mov	 BYTE PTR [edi+8276], 0
  00023	e8 00 00 00 00	 call	 ?ClearDirDoubleClick@ioBaseChar@@QAEXXZ ; ioBaseChar::ClearDirDoubleClick

; 453  : 
; 454  : 	m_fCurChargeRate = 0.0f;

  00028	0f 57 c0	 xorps	 xmm0, xmm0
  0002b	8d 45 08	 lea	 eax, DWORD PTR _value$614345[ebp]
  0002e	50		 push	 eax
  0002f	8d 8e 8c 0f 00
	00		 lea	 ecx, DWORD PTR [esi+3980]
  00035	f3 0f 11 45 08	 movss	 DWORD PTR _value$614345[ebp], xmm0
  0003a	e8 00 00 00 00	 call	 ?EncryptValueToPool@?$CEncrypt@M@@AAEXPBD@Z ; CEncrypt<float>::EncryptValueToPool
  0003f	5f		 pop	 edi
  00040	5e		 pop	 esi

; 455  : }

  00041	5d		 pop	 ebp
  00042	c2 08 00	 ret	 8
?OnEndExtendAttack@ioDraculaItem@@UAEXPAVioBaseChar@@_N@Z ENDP ; ioDraculaItem::OnEndExtendAttack
_TEXT	ENDS
PUBLIC	__$ArrayPad$
PUBLIC	?CheckKeyInput@ioDraculaItem@@IAEXPAVioBaseChar@@_N@Z ; ioDraculaItem::CheckKeyInput
EXTRN	??6SP2Packet@@QAEAAV0@AAV?$CEncrypt@_N@@@Z:PROC	; SP2Packet::operator<<
EXTRN	??6SP2Packet@@QAEAAV0@ABUD3DXQUATERNION@@@Z:PROC ; SP2Packet::operator<<
EXTRN	??6SP2Packet@@QAEAAV0@_N@Z:PROC			; SP2Packet::operator<<
EXTRN	?IsDefenseKeyDown@ioBaseChar@@QBE_NXZ:PROC	; ioBaseChar::IsDefenseKeyDown
EXTRN	?IsJumpKeyDown@ioBaseChar@@QBE_NXZ:PROC		; ioBaseChar::IsJumpKeyDown
EXTRN	?CheckCurDirKey@ioBaseChar@@QAE?AW4DirKeyInput@ioUserKeyInput@@XZ:PROC ; ioBaseChar::CheckCurDirKey
;	COMDAT xdata$x
; File d:\lost saga for developer\youtube\tutorial\source\src\lsclient\iobasechar.h
xdata$x	SEGMENT
__unwindtable$?CheckKeyInput@ioDraculaItem@@IAEXPAVioBaseChar@@_N@Z DD 0ffffffffH
	DD	FLAT:__unwindfunclet$?CheckKeyInput@ioDraculaItem@@IAEXPAVioBaseChar@@_N@Z$0
	DD	0ffffffffH
	DD	FLAT:__unwindfunclet$?CheckKeyInput@ioDraculaItem@@IAEXPAVioBaseChar@@_N@Z$1
__ehfuncinfo$?CheckKeyInput@ioDraculaItem@@IAEXPAVioBaseChar@@_N@Z DD 019930522H
	DD	02H
	DD	FLAT:__unwindtable$?CheckKeyInput@ioDraculaItem@@IAEXPAVioBaseChar@@_N@Z
	DD	2 DUP(00H)
	DD	2 DUP(00H)
	DD	00H
	DD	01H
; Function compile flags: /Ogsp
; File d:\lost saga for developer\youtube\tutorial\source\src\lsclient\iodraculaitem.cpp
xdata$x	ENDS
;	COMDAT ?CheckKeyInput@ioDraculaItem@@IAEXPAVioBaseChar@@_N@Z
_TEXT	SEGMENT
_bChangeDir$ = -65609					; size = 1
_bChangeUpDown$ = -65605				; size = 1
_value$614390 = -65601					; size = 1
_value$614386 = -65601					; size = 1
_value$614382 = -65601					; size = 1
_value$614378 = -65601					; size = 1
_value$614374 = -65601					; size = 1
_value$614370 = -65601					; size = 1
_value$614362 = -65601					; size = 1
_value$614358 = -65601					; size = 1
_value$614366 = -65601					; size = 1
_value$614354 = -65601					; size = 1
_kPacket$608061 = -65600				; size = 32792
_kPacket$608067 = -32808				; size = 32792
__$ArrayPad$ = -16					; size = 4
__$EHRec$ = -12						; size = 12
_pOwner$ = 8						; size = 4
_bOptionMove$ = 12					; size = 1
?CheckKeyInput@ioDraculaItem@@IAEXPAVioBaseChar@@_N@Z PROC ; ioDraculaItem::CheckKeyInput, COMDAT
; _this$ = ecx

; 458  : {

  00000	55		 push	 ebp
  00001	8b ec		 mov	 ebp, esp
  00003	6a ff		 push	 -1
  00005	68 00 00 00 00	 push	 __ehhandler$?CheckKeyInput@ioDraculaItem@@IAEXPAVioBaseChar@@_N@Z
  0000a	64 a1 00 00 00
	00		 mov	 eax, DWORD PTR fs:0
  00010	50		 push	 eax
  00011	b8 40 00 01 00	 mov	 eax, 65600		; 00010040H
  00016	e8 00 00 00 00	 call	 __chkstk
  0001b	a1 00 00 00 00	 mov	 eax, DWORD PTR ___security_cookie
  00020	33 c5		 xor	 eax, ebp
  00022	89 45 f0	 mov	 DWORD PTR __$ArrayPad$[ebp], eax
  00025	53		 push	 ebx
  00026	56		 push	 esi
  00027	57		 push	 edi
  00028	50		 push	 eax
  00029	8d 45 f4	 lea	 eax, DWORD PTR __$EHRec$[ebp]
  0002c	64 a3 00 00 00
	00		 mov	 DWORD PTR fs:0, eax
  00032	8b 7d 08	 mov	 edi, DWORD PTR _pOwner$[ebp]

; 459  : 	if( !pOwner ) return;

  00035	33 db		 xor	 ebx, ebx
  00037	8b f1		 mov	 esi, ecx
  00039	3b fb		 cmp	 edi, ebx
  0003b	0f 84 60 03 00
	00		 je	 $LN1@CheckKeyIn

; 460  : 	if( !pOwner->IsNeedProcess() )

  00041	8b 07		 mov	 eax, DWORD PTR [edi]
  00043	8b cf		 mov	 ecx, edi
  00045	ff 90 00 01 00
	00		 call	 DWORD PTR [eax+256]
  0004b	84 c0		 test	 al, al
  0004d	0f 84 4e 03 00
	00		 je	 $LN1@CheckKeyIn

; 461  : 		return;
; 462  : 
; 463  : 	bool bChangeDir = false;
; 464  : 	bool bChangeUpDown = false;
; 465  : 
; 466  : 	// Check Dir
; 467  : 	ioUserKeyInput::DirKeyInput eNewDirKey = pOwner->CheckCurDirKey();

  00053	8b cf		 mov	 ecx, edi
  00055	88 9d b7 ff fe
	ff		 mov	 BYTE PTR _bChangeDir$[ebp], bl
  0005b	88 9d bb ff fe
	ff		 mov	 BYTE PTR _bChangeUpDown$[ebp], bl
  00061	e8 00 00 00 00	 call	 ?CheckCurDirKey@ioBaseChar@@QAE?AW4DirKeyInput@ioUserKeyInput@@XZ ; ioBaseChar::CheckCurDirKey

; 468  : 	if( eNewDirKey != m_CurDirKey )

  00066	8b 8e bc 19 00
	00		 mov	 ecx, DWORD PTR [esi+6588]
  0006c	3b c1		 cmp	 eax, ecx
  0006e	74 13		 je	 SHORT $LN18@CheckKeyIn

; 469  : 	{
; 470  : 		bChangeDir = true;

  00070	c6 85 b7 ff fe
	ff 01		 mov	 BYTE PTR _bChangeDir$[ebp], 1

; 471  : 
; 472  : 		m_PreDirKey = m_CurDirKey;

  00077	89 8e c0 19 00
	00		 mov	 DWORD PTR [esi+6592], ecx

; 473  : 		m_CurDirKey = eNewDirKey;

  0007d	89 86 bc 19 00
	00		 mov	 DWORD PTR [esi+6588], eax
$LN18@CheckKeyIn:

; 474  : 	}
; 475  : 
; 476  : 	// Check UpDown
; 477  : 	if( m_bSetUpKey )

  00083	8d 85 bf ff fe
	ff		 lea	 eax, DWORD PTR _value$614354[ebp]
  00089	8d 8e c4 19 00
	00		 lea	 ecx, DWORD PTR [esi+6596]
  0008f	50		 push	 eax
  00090	e8 00 00 00 00	 call	 ?DecryptValueToPool@?$CEncrypt@_N@@QAEXPA_N@Z ; CEncrypt<bool>::DecryptValueToPool
  00095	38 9d bf ff fe
	ff		 cmp	 BYTE PTR _value$614354[ebp], bl
  0009b	74 49		 je	 SHORT $LN17@CheckKeyIn

; 478  : 	{
; 479  : 		if( !pOwner->IsJumpKeyDown() )

  0009d	8b cf		 mov	 ecx, edi
  0009f	e8 00 00 00 00	 call	 ?IsJumpKeyDown@ioBaseChar@@QBE_NXZ ; ioBaseChar::IsJumpKeyDown
  000a4	84 c0		 test	 al, al
  000a6	0f 85 1f 01 00
	00		 jne	 $LN43@CheckKeyIn

; 480  : 		{
; 481  : 			bChangeUpDown = true;
; 482  : 			m_bSetUpKey = false;

  000ac	8d 85 bf ff fe
	ff		 lea	 eax, DWORD PTR _value$614358[ebp]
  000b2	50		 push	 eax
  000b3	8d 8e c4 19 00
	00		 lea	 ecx, DWORD PTR [esi+6596]
  000b9	c6 85 bb ff fe
	ff 01		 mov	 BYTE PTR _bChangeUpDown$[ebp], 1
  000c0	88 9d bf ff fe
	ff		 mov	 BYTE PTR _value$614358[ebp], bl
  000c6	e8 00 00 00 00	 call	 ?EncryptValueToPool@?$CEncrypt@_N@@AAEXPBD@Z ; CEncrypt<bool>::EncryptValueToPool

; 483  : 
; 484  : 			if( pOwner->IsDefenseKeyDown() )

  000cb	8b cf		 mov	 ecx, edi
  000cd	e8 00 00 00 00	 call	 ?IsDefenseKeyDown@ioBaseChar@@QBE_NXZ ; ioBaseChar::IsDefenseKeyDown
  000d2	84 c0		 test	 al, al
  000d4	0f 84 f1 00 00
	00		 je	 $LN43@CheckKeyIn

; 485  : 				m_bSetDownKey = true;

  000da	c6 85 bf ff fe
	ff 01		 mov	 BYTE PTR _value$614362[ebp], 1

; 486  : 		}
; 487  : 	}

  000e1	e9 d3 00 00 00	 jmp	 $LN50@CheckKeyIn
$LN17@CheckKeyIn:

; 488  : 	else if( m_bSetDownKey )

  000e6	8d 85 bf ff fe
	ff		 lea	 eax, DWORD PTR _value$614366[ebp]
  000ec	8d 8e f4 19 00
	00		 lea	 ecx, DWORD PTR [esi+6644]
  000f2	50		 push	 eax
  000f3	e8 00 00 00 00	 call	 ?DecryptValueToPool@?$CEncrypt@_N@@QAEXPA_N@Z ; CEncrypt<bool>::DecryptValueToPool

; 489  : 	{
; 490  : 		if( !pOwner->IsDefenseKeyDown() )

  000f8	8b cf		 mov	 ecx, edi
  000fa	e8 00 00 00 00	 call	 ?IsDefenseKeyDown@ioBaseChar@@QBE_NXZ ; ioBaseChar::IsDefenseKeyDown
  000ff	38 9d bf ff fe
	ff		 cmp	 BYTE PTR _value$614366[ebp], bl
  00105	74 45		 je	 SHORT $LN13@CheckKeyIn
  00107	84 c0		 test	 al, al
  00109	0f 85 bc 00 00
	00		 jne	 $LN43@CheckKeyIn

; 491  : 		{
; 492  : 			bChangeUpDown = true;
; 493  : 			m_bSetDownKey = false;

  0010f	8d 85 bf ff fe
	ff		 lea	 eax, DWORD PTR _value$614370[ebp]
  00115	50		 push	 eax
  00116	8d 8e f4 19 00
	00		 lea	 ecx, DWORD PTR [esi+6644]
  0011c	c6 85 bb ff fe
	ff 01		 mov	 BYTE PTR _bChangeUpDown$[ebp], 1
  00123	88 9d bf ff fe
	ff		 mov	 BYTE PTR _value$614370[ebp], bl
  00129	e8 00 00 00 00	 call	 ?EncryptValueToPool@?$CEncrypt@_N@@AAEXPBD@Z ; CEncrypt<bool>::EncryptValueToPool

; 494  : 
; 495  : 			if( pOwner->IsJumpKeyDown() )

  0012e	8b cf		 mov	 ecx, edi
  00130	e8 00 00 00 00	 call	 ?IsJumpKeyDown@ioBaseChar@@QBE_NXZ ; ioBaseChar::IsJumpKeyDown
  00135	84 c0		 test	 al, al
  00137	0f 84 8e 00 00
	00		 je	 $LN43@CheckKeyIn

; 496  : 				m_bSetUpKey = true;

  0013d	c6 85 bf ff fe
	ff 01		 mov	 BYTE PTR _value$614374[ebp], 1
  00144	8d 8e c4 19 00
	00		 lea	 ecx, DWORD PTR [esi+6596]

; 497  : 		}
; 498  : 	}
; 499  : 	else

  0014a	eb 73		 jmp	 SHORT $LN51@CheckKeyIn
$LN13@CheckKeyIn:

; 500  : 	{
; 501  : 		if( pOwner->IsDefenseKeyDown() )

  0014c	84 c0		 test	 al, al
  0014e	74 38		 je	 SHORT $LN39@CheckKeyIn

; 502  : 		{
; 503  : 			bChangeUpDown = true;
; 504  : 			m_bSetUpKey = false;

  00150	8d 85 bf ff fe
	ff		 lea	 eax, DWORD PTR _value$614378[ebp]
  00156	50		 push	 eax
  00157	8d 8e c4 19 00
	00		 lea	 ecx, DWORD PTR [esi+6596]
  0015d	c6 85 bb ff fe
	ff 01		 mov	 BYTE PTR _bChangeUpDown$[ebp], 1
  00164	88 9d bf ff fe
	ff		 mov	 BYTE PTR _value$614378[ebp], bl
  0016a	e8 00 00 00 00	 call	 ?EncryptValueToPool@?$CEncrypt@_N@@AAEXPBD@Z ; CEncrypt<bool>::EncryptValueToPool

; 505  : 			m_bSetDownKey = true;

  0016f	8d 85 bf ff fe
	ff		 lea	 eax, DWORD PTR _value$614382[ebp]
  00175	50		 push	 eax
  00176	8d 8e f4 19 00
	00		 lea	 ecx, DWORD PTR [esi+6644]
  0017c	c6 85 bf ff fe
	ff 01		 mov	 BYTE PTR _value$614382[ebp], 1
  00183	e8 00 00 00 00	 call	 ?EncryptValueToPool@?$CEncrypt@_N@@AAEXPBD@Z ; CEncrypt<bool>::EncryptValueToPool
$LN39@CheckKeyIn:

; 506  : 		}
; 507  : 
; 508  : 		if( pOwner->IsJumpKeyDown() )

  00188	8b cf		 mov	 ecx, edi
  0018a	e8 00 00 00 00	 call	 ?IsJumpKeyDown@ioBaseChar@@QBE_NXZ ; ioBaseChar::IsJumpKeyDown
  0018f	84 c0		 test	 al, al
  00191	74 38		 je	 SHORT $LN43@CheckKeyIn

; 509  : 		{
; 510  : 			bChangeUpDown = true;
; 511  : 			m_bSetUpKey = true;

  00193	8d 85 bf ff fe
	ff		 lea	 eax, DWORD PTR _value$614386[ebp]
  00199	50		 push	 eax
  0019a	8d 8e c4 19 00
	00		 lea	 ecx, DWORD PTR [esi+6596]
  001a0	c6 85 bb ff fe
	ff 01		 mov	 BYTE PTR _bChangeUpDown$[ebp], 1
  001a7	c6 85 bf ff fe
	ff 01		 mov	 BYTE PTR _value$614386[ebp], 1
  001ae	e8 00 00 00 00	 call	 ?EncryptValueToPool@?$CEncrypt@_N@@AAEXPBD@Z ; CEncrypt<bool>::EncryptValueToPool

; 512  : 			m_bSetDownKey = false;

  001b3	88 9d bf ff fe
	ff		 mov	 BYTE PTR _value$614390[ebp], bl
$LN50@CheckKeyIn:
  001b9	8d 8e f4 19 00
	00		 lea	 ecx, DWORD PTR [esi+6644]
$LN51@CheckKeyIn:
  001bf	8d 85 bf ff fe
	ff		 lea	 eax, DWORD PTR _value$614390[ebp]
  001c5	50		 push	 eax
  001c6	e8 00 00 00 00	 call	 ?EncryptValueToPool@?$CEncrypt@_N@@AAEXPBD@Z ; CEncrypt<bool>::EncryptValueToPool
$LN43@CheckKeyIn:

; 513  : 		}
; 514  : 	}
; 515  : 
; 516  : 	if( bOptionMove )

  001cb	38 5d 0c	 cmp	 BYTE PTR _bOptionMove$[ebp], bl
  001ce	0f 84 d9 00 00
	00		 je	 $LN7@CheckKeyIn

; 517  : 	{
; 518  : 		if( bChangeDir )

  001d4	38 9d b7 ff fe
	ff		 cmp	 BYTE PTR _bChangeDir$[ebp], bl
  001da	0f 84 c1 01 00
	00		 je	 $LN1@CheckKeyIn

; 519  : 		{
; 520  : 			if( pOwner->IsNeedSendNetwork() )

  001e0	8b 07		 mov	 eax, DWORD PTR [edi]
  001e2	8b cf		 mov	 ecx, edi
  001e4	ff 90 04 01 00
	00		 call	 DWORD PTR [eax+260]
  001ea	84 c0		 test	 al, al
  001ec	0f 84 af 01 00
	00		 je	 $LN1@CheckKeyIn

; 521  : 			{
; 522  : 				SP2Packet kPacket( CUPK_ITEM_GAUGE_CANCEL );

  001f2	68 28 41 00 00	 push	 16680			; 00004128H
  001f7	8d 8d c0 ff fe
	ff		 lea	 ecx, DWORD PTR _kPacket$608061[ebp]
  001fd	e8 00 00 00 00	 call	 ??0SP2Packet@@QAE@K@Z	; SP2Packet::SP2Packet

; 523  : 				FillItemGaugePacketHeader( pOwner, kPacket );

  00202	8d 85 c0 ff fe
	ff		 lea	 eax, DWORD PTR _kPacket$608061[ebp]
  00208	50		 push	 eax
  00209	57		 push	 edi
  0020a	8b ce		 mov	 ecx, esi
  0020c	89 5d fc	 mov	 DWORD PTR __$EHRec$[ebp+8], ebx
  0020f	e8 00 00 00 00	 call	 ?FillItemGaugePacketHeader@ioAttackableItem@@QAEXPAVioBaseChar@@AAVSP2Packet@@@Z ; ioAttackableItem::FillItemGaugePacketHeader

; 524  : 				kPacket << SST_ROTATE;

  00214	6a 01		 push	 1
  00216	8d 8d c0 ff fe
	ff		 lea	 ecx, DWORD PTR _kPacket$608061[ebp]
  0021c	e8 00 00 00 00	 call	 ??6SP2Packet@@QAEAAV0@H@Z ; SP2Packet::operator<<

; 525  : 				kPacket << bChangeDir;

  00221	ff b5 b7 ff fe
	ff		 push	 DWORD PTR _bChangeDir$[ebp]
  00227	8d 8d c0 ff fe
	ff		 lea	 ecx, DWORD PTR _kPacket$608061[ebp]
  0022d	e8 00 00 00 00	 call	 ??6SP2Packet@@QAEAAV0@_N@Z ; SP2Packet::operator<<

; 526  : 				kPacket << false;

  00232	53		 push	 ebx
  00233	8d 8d c0 ff fe
	ff		 lea	 ecx, DWORD PTR _kPacket$608061[ebp]
  00239	e8 00 00 00 00	 call	 ??6SP2Packet@@QAEAAV0@_N@Z ; SP2Packet::operator<<

; 527  : 				kPacket << pOwner->GetTargetRot();

  0023e	81 c7 a4 06 00
	00		 add	 edi, 1700		; 000006a4H
  00244	57		 push	 edi
  00245	8d 8d c0 ff fe
	ff		 lea	 ecx, DWORD PTR _kPacket$608061[ebp]
  0024b	e8 00 00 00 00	 call	 ??6SP2Packet@@QAEAAV0@ABUD3DXQUATERNION@@@Z ; SP2Packet::operator<<

; 528  : 				kPacket << (int)m_CurDirKey;

  00250	ff b6 bc 19 00
	00		 push	 DWORD PTR [esi+6588]
  00256	8d 8d c0 ff fe
	ff		 lea	 ecx, DWORD PTR _kPacket$608061[ebp]
  0025c	e8 00 00 00 00	 call	 ??6SP2Packet@@QAEAAV0@H@Z ; SP2Packet::operator<<

; 529  : 				kPacket << m_bSetUpKey;

  00261	8d 86 c4 19 00
	00		 lea	 eax, DWORD PTR [esi+6596]
  00267	50		 push	 eax
  00268	8d 8d c0 ff fe
	ff		 lea	 ecx, DWORD PTR _kPacket$608061[ebp]
  0026e	e8 00 00 00 00	 call	 ??6SP2Packet@@QAEAAV0@AAV?$CEncrypt@_N@@@Z ; SP2Packet::operator<<

; 530  : 				kPacket << m_bSetDownKey;

  00273	81 c6 f4 19 00
	00		 add	 esi, 6644		; 000019f4H
  00279	56		 push	 esi
  0027a	8d 8d c0 ff fe
	ff		 lea	 ecx, DWORD PTR _kPacket$608061[ebp]
  00280	e8 00 00 00 00	 call	 ??6SP2Packet@@QAEAAV0@AAV?$CEncrypt@_N@@@Z ; SP2Packet::operator<<

; 531  : 				kPacket << bOptionMove;

  00285	ff 75 0c	 push	 DWORD PTR _bOptionMove$[ebp]
  00288	8d 8d c0 ff fe
	ff		 lea	 ecx, DWORD PTR _kPacket$608061[ebp]
  0028e	e8 00 00 00 00	 call	 ??6SP2Packet@@QAEAAV0@_N@Z ; SP2Packet::operator<<

; 532  : 				P2PNetwork::SendToAllPlayingUser( kPacket );

  00293	8d 85 c0 ff fe
	ff		 lea	 eax, DWORD PTR _kPacket$608061[ebp]
  00299	53		 push	 ebx
  0029a	50		 push	 eax
  0029b	e8 00 00 00 00	 call	 ?SendToAllPlayingUser@P2PNetwork@@YAXAAVSP2Packet@@PAVioBaseChar@@@Z ; P2PNetwork::SendToAllPlayingUser
  002a0	59		 pop	 ecx
  002a1	59		 pop	 ecx

; 533  : 			}

  002a2	8d 8d c0 ff fe
	ff		 lea	 ecx, DWORD PTR _kPacket$608061[ebp]

; 534  : 		}
; 535  : 	}
; 536  : 	else

  002a8	e9 eb 00 00 00	 jmp	 $LN52@CheckKeyIn
$LN7@CheckKeyIn:

; 537  : 	{
; 538  : 		if( bChangeDir || bChangeUpDown )

  002ad	38 9d b7 ff fe
	ff		 cmp	 BYTE PTR _bChangeDir$[ebp], bl
  002b3	75 0c		 jne	 SHORT $LN2@CheckKeyIn
  002b5	38 9d bb ff fe
	ff		 cmp	 BYTE PTR _bChangeUpDown$[ebp], bl
  002bb	0f 84 e0 00 00
	00		 je	 $LN1@CheckKeyIn
$LN2@CheckKeyIn:

; 539  : 		{
; 540  : 			ChangeFlyMove( pOwner );

  002c1	57		 push	 edi
  002c2	8b ce		 mov	 ecx, esi
  002c4	e8 00 00 00 00	 call	 ?ChangeFlyMove@ioDraculaItem@@QAEXPAVioBaseChar@@@Z ; ioDraculaItem::ChangeFlyMove

; 541  : 
; 542  : 			//LOG.PrintTimeAndLog( 0, "ioDraculaItem::Send KeyChange %d,%d", (int)m_bSetUpKey, (int)m_bSetDownKey);
; 543  : 
; 544  : 			if( pOwner->IsNeedSendNetwork() )

  002c9	8b 07		 mov	 eax, DWORD PTR [edi]
  002cb	8b cf		 mov	 ecx, edi
  002cd	ff 90 04 01 00
	00		 call	 DWORD PTR [eax+260]
  002d3	84 c0		 test	 al, al
  002d5	0f 84 c6 00 00
	00		 je	 $LN1@CheckKeyIn

; 545  : 			{
; 546  : 				SP2Packet kPacket( CUPK_ITEM_GAUGE_CANCEL );

  002db	68 28 41 00 00	 push	 16680			; 00004128H
  002e0	8d 8d d8 7f ff
	ff		 lea	 ecx, DWORD PTR _kPacket$608067[ebp]
  002e6	e8 00 00 00 00	 call	 ??0SP2Packet@@QAE@K@Z	; SP2Packet::SP2Packet

; 547  : 				FillItemGaugePacketHeader( pOwner, kPacket );

  002eb	8d 85 d8 7f ff
	ff		 lea	 eax, DWORD PTR _kPacket$608067[ebp]
  002f1	50		 push	 eax
  002f2	57		 push	 edi
  002f3	8b ce		 mov	 ecx, esi
  002f5	c7 45 fc 01 00
	00 00		 mov	 DWORD PTR __$EHRec$[ebp+8], 1
  002fc	e8 00 00 00 00	 call	 ?FillItemGaugePacketHeader@ioAttackableItem@@QAEXPAVioBaseChar@@AAVSP2Packet@@@Z ; ioAttackableItem::FillItemGaugePacketHeader

; 548  : 				kPacket << SST_ROTATE;

  00301	6a 01		 push	 1
  00303	8d 8d d8 7f ff
	ff		 lea	 ecx, DWORD PTR _kPacket$608067[ebp]
  00309	e8 00 00 00 00	 call	 ??6SP2Packet@@QAEAAV0@H@Z ; SP2Packet::operator<<

; 549  : 				kPacket << bChangeDir;

  0030e	ff b5 b7 ff fe
	ff		 push	 DWORD PTR _bChangeDir$[ebp]
  00314	8d 8d d8 7f ff
	ff		 lea	 ecx, DWORD PTR _kPacket$608067[ebp]
  0031a	e8 00 00 00 00	 call	 ??6SP2Packet@@QAEAAV0@_N@Z ; SP2Packet::operator<<

; 550  : 				kPacket << bChangeUpDown;

  0031f	ff b5 bb ff fe
	ff		 push	 DWORD PTR _bChangeUpDown$[ebp]
  00325	8d 8d d8 7f ff
	ff		 lea	 ecx, DWORD PTR _kPacket$608067[ebp]
  0032b	e8 00 00 00 00	 call	 ??6SP2Packet@@QAEAAV0@_N@Z ; SP2Packet::operator<<

; 551  : 				kPacket << pOwner->GetTargetRot();

  00330	81 c7 a4 06 00
	00		 add	 edi, 1700		; 000006a4H
  00336	57		 push	 edi
  00337	8d 8d d8 7f ff
	ff		 lea	 ecx, DWORD PTR _kPacket$608067[ebp]
  0033d	e8 00 00 00 00	 call	 ??6SP2Packet@@QAEAAV0@ABUD3DXQUATERNION@@@Z ; SP2Packet::operator<<

; 552  : 				kPacket << (int)m_CurDirKey;

  00342	ff b6 bc 19 00
	00		 push	 DWORD PTR [esi+6588]
  00348	8d 8d d8 7f ff
	ff		 lea	 ecx, DWORD PTR _kPacket$608067[ebp]
  0034e	e8 00 00 00 00	 call	 ??6SP2Packet@@QAEAAV0@H@Z ; SP2Packet::operator<<

; 553  : 				kPacket << m_bSetUpKey;

  00353	8d 86 c4 19 00
	00		 lea	 eax, DWORD PTR [esi+6596]
  00359	50		 push	 eax
  0035a	8d 8d d8 7f ff
	ff		 lea	 ecx, DWORD PTR _kPacket$608067[ebp]
  00360	e8 00 00 00 00	 call	 ??6SP2Packet@@QAEAAV0@AAV?$CEncrypt@_N@@@Z ; SP2Packet::operator<<

; 554  : 				kPacket << m_bSetDownKey;

  00365	81 c6 f4 19 00
	00		 add	 esi, 6644		; 000019f4H
  0036b	56		 push	 esi
  0036c	8d 8d d8 7f ff
	ff		 lea	 ecx, DWORD PTR _kPacket$608067[ebp]
  00372	e8 00 00 00 00	 call	 ??6SP2Packet@@QAEAAV0@AAV?$CEncrypt@_N@@@Z ; SP2Packet::operator<<

; 555  : 				kPacket << bOptionMove;

  00377	53		 push	 ebx
  00378	8d 8d d8 7f ff
	ff		 lea	 ecx, DWORD PTR _kPacket$608067[ebp]
  0037e	e8 00 00 00 00	 call	 ??6SP2Packet@@QAEAAV0@_N@Z ; SP2Packet::operator<<

; 556  : 				P2PNetwork::SendToAllPlayingUser( kPacket );

  00383	8d 85 d8 7f ff
	ff		 lea	 eax, DWORD PTR _kPacket$608067[ebp]
  00389	53		 push	 ebx
  0038a	50		 push	 eax
  0038b	e8 00 00 00 00	 call	 ?SendToAllPlayingUser@P2PNetwork@@YAXAAVSP2Packet@@PAVioBaseChar@@@Z ; P2PNetwork::SendToAllPlayingUser
  00390	59		 pop	 ecx
  00391	59		 pop	 ecx

; 557  : 			}

  00392	8d 8d d8 7f ff
	ff		 lea	 ecx, DWORD PTR _kPacket$608067[ebp]
$LN52@CheckKeyIn:
  00398	83 4d fc ff	 or	 DWORD PTR __$EHRec$[ebp+8], -1
  0039c	e8 00 00 00 00	 call	 ??1SP2Packet@@UAE@XZ	; SP2Packet::~SP2Packet
$LN1@CheckKeyIn:

; 558  : 		}
; 559  : 	}
; 560  : }

  003a1	8b 4d f4	 mov	 ecx, DWORD PTR __$EHRec$[ebp]
  003a4	64 89 0d 00 00
	00 00		 mov	 DWORD PTR fs:0, ecx
  003ab	59		 pop	 ecx
  003ac	5f		 pop	 edi
  003ad	5e		 pop	 esi
  003ae	5b		 pop	 ebx
  003af	8b 4d f0	 mov	 ecx, DWORD PTR __$ArrayPad$[ebp]
  003b2	33 cd		 xor	 ecx, ebp
  003b4	e8 00 00 00 00	 call	 @__security_check_cookie@4
  003b9	c9		 leave
  003ba	c2 08 00	 ret	 8
_TEXT	ENDS
;	COMDAT text$x
text$x	SEGMENT
__unwindfunclet$?CheckKeyInput@ioDraculaItem@@IAEXPAVioBaseChar@@_N@Z$0:
  00000	8d 8d c0 ff fe
	ff		 lea	 ecx, DWORD PTR _kPacket$608061[ebp]
  00006	e9 00 00 00 00	 jmp	 ??1SP2Packet@@UAE@XZ	; SP2Packet::~SP2Packet
__unwindfunclet$?CheckKeyInput@ioDraculaItem@@IAEXPAVioBaseChar@@_N@Z$1:
  0000b	8d 8d d8 7f ff
	ff		 lea	 ecx, DWORD PTR _kPacket$608067[ebp]
  00011	e9 00 00 00 00	 jmp	 ??1SP2Packet@@UAE@XZ	; SP2Packet::~SP2Packet
__ehhandler$?CheckKeyInput@ioDraculaItem@@IAEXPAVioBaseChar@@_N@Z:
  00016	8b 54 24 08	 mov	 edx, DWORD PTR [esp+8]
  0001a	8d 42 0c	 lea	 eax, DWORD PTR [edx+12]
  0001d	8b 8a b0 ff fe
	ff		 mov	 ecx, DWORD PTR [edx-65616]
  00023	33 c8		 xor	 ecx, eax
  00025	e8 00 00 00 00	 call	 @__security_check_cookie@4
  0002a	8b 4a fc	 mov	 ecx, DWORD PTR [edx-4]
  0002d	33 c8		 xor	 ecx, eax
  0002f	e8 00 00 00 00	 call	 @__security_check_cookie@4
  00034	b8 00 00 00 00	 mov	 eax, OFFSET __ehfuncinfo$?CheckKeyInput@ioDraculaItem@@IAEXPAVioBaseChar@@_N@Z
  00039	e9 00 00 00 00	 jmp	 ___CxxFrameHandler3
text$x	ENDS
?CheckKeyInput@ioDraculaItem@@IAEXPAVioBaseChar@@_N@Z ENDP ; ioDraculaItem::CheckKeyInput
PUBLIC	_pOwner$GSCopy$
PUBLIC	__$ArrayPad$
PUBLIC	?ChangeFlyStart@ioDraculaItem@@QAEXPAVioBaseChar@@@Z ; ioDraculaItem::ChangeFlyStart
EXTRN	?GetUniqueID@ioMapEffect@@QBEKXZ:PROC		; ioMapEffect::GetUniqueID
EXTRN	?CreateMapEffectBySkill@ioBaseChar@@QAEPAVioMapEffect@@ABVioHashString@@ABUD3DXVECTOR3@@AAU4@@Z:PROC ; ioBaseChar::CreateMapEffectBySkill
EXTRN	?GetMidPositionByRate@ioGameEntity@@QBE?AUD3DXVECTOR3@@M@Z:PROC ; ioGameEntity::GetMidPositionByRate
EXTRN	?DestroyMapEffect@ioBaseChar@@QAEXK@Z:PROC	; ioBaseChar::DestroyMapEffect
EXTRN	?InitExtendAttackTagInfo@ioBaseChar@@QAEXXZ:PROC ; ioBaseChar::InitExtendAttackTagInfo
; Function compile flags: /Ogsp
;	COMDAT ?ChangeFlyStart@ioDraculaItem@@QAEXPAVioBaseChar@@@Z
_TEXT	SEGMENT
_pGrp$ = -40						; size = 4
_pOwner$GSCopy$ = -36					; size = 4
tv239 = -32						; size = 4
tv234 = -32						; size = 4
tv215 = -32						; size = 4
tv209 = -32						; size = 4
tv205 = -32						; size = 4
_value$614418 = -32					; size = 4
_vScale$ = -28						; size = 12
_vPos$ = -16						; size = 12
__$ArrayPad$ = -4					; size = 4
_pOwner$ = 8						; size = 4
?ChangeFlyStart@ioDraculaItem@@QAEXPAVioBaseChar@@@Z PROC ; ioDraculaItem::ChangeFlyStart, COMDAT
; _this$ = ecx

; 563  : {

  00000	55		 push	 ebp
  00001	8b ec		 mov	 ebp, esp
  00003	83 ec 28	 sub	 esp, 40			; 00000028H
  00006	a1 00 00 00 00	 mov	 eax, DWORD PTR ___security_cookie
  0000b	33 c5		 xor	 eax, ebp
  0000d	89 45 fc	 mov	 DWORD PTR __$ArrayPad$[ebp], eax
  00010	53		 push	 ebx
  00011	57		 push	 edi
  00012	8b 7d 08	 mov	 edi, DWORD PTR _pOwner$[ebp]
  00015	8b d9		 mov	 ebx, ecx

; 599  : 		m_dwMapEffectID = pMapEffect->GetUniqueID();

  00017	89 7d dc	 mov	 DWORD PTR _pOwner$GSCopy$[ebp], edi
  0001a	85 ff		 test	 edi, edi
  0001c	0f 84 56 01 00
	00		 je	 $LN1@ChangeFlyS

; 564  : 	if( !pOwner )
; 565  : 		return;
; 566  : 
; 567  : 	ioEntityGroup *pGrp = pOwner->GetGroup();

  00022	8b 47 04	 mov	 eax, DWORD PTR [edi+4]
  00025	89 45 d8	 mov	 DWORD PTR _pGrp$[ebp], eax

; 568  : 	if( !pGrp )

  00028	85 c0		 test	 eax, eax
  0002a	0f 84 48 01 00
	00		 je	 $LN1@ChangeFlyS

; 569  : 		return;
; 570  : 
; 571  : 
; 572  : 	m_fFlyCurRange = 0.f;

  00030	0f 57 c0	 xorps	 xmm0, xmm0
  00033	56		 push	 esi
  00034	8d 45 e0	 lea	 eax, DWORD PTR _value$614418[ebp]
  00037	50		 push	 eax
  00038	8d 8b 8c 19 00
	00		 lea	 ecx, DWORD PTR [ebx+6540]
  0003e	f3 0f 11 45 e0	 movss	 DWORD PTR _value$614418[ebp], xmm0
  00043	e8 00 00 00 00	 call	 ?EncryptValueToPool@?$CEncrypt@M@@AAEXPBD@Z ; CEncrypt<float>::EncryptValueToPool

; 573  : 
; 574  : 	pOwner->InitExtendAttackTagInfo();

  00048	8b cf		 mov	 ecx, edi
  0004a	e8 00 00 00 00	 call	 ?InitExtendAttackTagInfo@ioBaseChar@@QAEXXZ ; ioBaseChar::InitExtendAttackTagInfo

; 575  : 
; 576  : 	pGrp->ClearAllLoopAni( FLOAT10, true );

  0004f	b8 0a 00 00 00	 mov	 eax, 10			; 0000000aH
  00054	33 f6		 xor	 esi, esi
  00056	46		 inc	 esi
  00057	89 45 e0	 mov	 DWORD PTR tv239[ebp], eax
  0005a	db 45 e0	 fild	 DWORD PTR tv239[ebp]
  0005d	56		 push	 esi
  0005e	85 c0		 test	 eax, eax
  00060	79 06		 jns	 SHORT $LN19@ChangeFlyS
  00062	d8 05 00 00 00
	00		 fadd	 DWORD PTR __real@4f800000
$LN19@ChangeFlyS:
  00068	51		 push	 ecx
  00069	8b 4d d8	 mov	 ecx, DWORD PTR _pGrp$[ebp]
  0006c	d9 1c 24	 fstp	 DWORD PTR [esp]
  0006f	ff 15 00 00 00
	00		 call	 DWORD PTR __imp_?ClearAllLoopAni@ioEntityGroup@@QAEXM_N@Z

; 577  : 	pGrp->ClearAllActionAni( FLOAT10, true );

  00075	b8 0a 00 00 00	 mov	 eax, 10			; 0000000aH
  0007a	89 45 e0	 mov	 DWORD PTR tv234[ebp], eax
  0007d	db 45 e0	 fild	 DWORD PTR tv234[ebp]
  00080	56		 push	 esi
  00081	85 c0		 test	 eax, eax
  00083	79 06		 jns	 SHORT $LN20@ChangeFlyS
  00085	d8 05 00 00 00
	00		 fadd	 DWORD PTR __real@4f800000
$LN20@ChangeFlyS:
  0008b	51		 push	 ecx
  0008c	8b 4d d8	 mov	 ecx, DWORD PTR _pGrp$[ebp]
  0008f	d9 1c 24	 fstp	 DWORD PTR [esp]
  00092	ff 15 00 00 00
	00		 call	 DWORD PTR __imp_?ClearAllActionAni@ioEntityGroup@@QAEXM_N@Z

; 578  : 
; 579  : 	pOwner->SetState( CS_DRACULA_FLY );

  00098	56		 push	 esi
  00099	6a 68		 push	 104			; 00000068H
  0009b	8b cf		 mov	 ecx, edi
  0009d	e8 00 00 00 00	 call	 ?SetState@ioBaseChar@@QAEXH_N@Z ; ioBaseChar::SetState

; 580  : 
; 581  : 	m_FlyState = LFS_START;

  000a2	89 b3 68 19 00
	00		 mov	 DWORD PTR [ebx+6504], esi

; 582  : 
; 583  : 	m_dwFlyStartTime = FRAMEGETTIME(); 

  000a8	8b 35 00 00 00
	00		 mov	 esi, DWORD PTR __imp_?GetSingleton@ioFrameTimer@@SAAAV1@XZ
  000ae	ff d6		 call	 esi
  000b0	8b c8		 mov	 ecx, eax
  000b2	ff 15 00 00 00
	00		 call	 DWORD PTR __imp_?GetLoopSec@ioFrameTimer@@QBEKXZ
  000b8	89 83 74 19 00
	00		 mov	 DWORD PTR [ebx+6516], eax

; 584  : 	m_dwFlyAttackEndTime = 0;

  000be	33 c0		 xor	 eax, eax
  000c0	89 83 84 19 00
	00		 mov	 DWORD PTR [ebx+6532], eax

; 585  : 	m_dwFlyAttackMoveStartTime = 0;

  000c6	89 83 7c 19 00
	00		 mov	 DWORD PTR [ebx+6524], eax

; 586  : 	m_dwFlyAttackMoveEndTime = 0;

  000cc	89 83 80 19 00
	00		 mov	 DWORD PTR [ebx+6528], eax

; 587  : 
; 588  : 	m_dwSpecialStartTime = FRAMEGETTIME();

  000d2	ff d6		 call	 esi
  000d4	8b c8		 mov	 ecx, eax
  000d6	ff 15 00 00 00
	00		 call	 DWORD PTR __imp_?GetLoopSec@ioFrameTimer@@QBEKXZ
  000dc	89 83 60 1b 00
	00		 mov	 DWORD PTR [ebx+7008], eax

; 589  : 	if( m_dwMapEffectID != -1 )

  000e2	8b 83 64 1b 00
	00		 mov	 eax, DWORD PTR [ebx+7012]
  000e8	83 f8 ff	 cmp	 eax, -1
  000eb	74 0f		 je	 SHORT $LN2@ChangeFlyS

; 590  : 	{
; 591  : 		pOwner->DestroyMapEffect( m_dwMapEffectID );

  000ed	50		 push	 eax
  000ee	8b cf		 mov	 ecx, edi
  000f0	e8 00 00 00 00	 call	 ?DestroyMapEffect@ioBaseChar@@QAEXK@Z ; ioBaseChar::DestroyMapEffect

; 592  : 		m_dwMapEffectID = -1;

  000f5	83 8b 64 1b 00
	00 ff		 or	 DWORD PTR [ebx+7012], -1
$LN2@ChangeFlyS:

; 593  : 	}
; 594  : 
; 595  : 	D3DXVECTOR3 vScale = pOwner->GetWorldScale();

  000fc	8b 07		 mov	 eax, DWORD PTR [edi]
  000fe	8b cf		 mov	 ecx, edi
  00100	ff 50 78	 call	 DWORD PTR [eax+120]
  00103	8b f0		 mov	 esi, eax
  00105	8d 7d e4	 lea	 edi, DWORD PTR _vScale$[ebp]
  00108	a5		 movsd
  00109	a5		 movsd
  0010a	a5		 movsd

; 596  : 	D3DXVECTOR3 vPos = pOwner->GetMidPositionByRate();

  0010b	b8 05 00 00 00	 mov	 eax, 5
  00110	8b c8		 mov	 ecx, eax
  00112	b8 0a 00 00 00	 mov	 eax, 10			; 0000000aH
  00117	89 4d e0	 mov	 DWORD PTR tv215[ebp], ecx
  0011a	db 45 e0	 fild	 DWORD PTR tv215[ebp]
  0011d	85 c9		 test	 ecx, ecx
  0011f	79 06		 jns	 SHORT $LN21@ChangeFlyS
  00121	d8 05 00 00 00
	00		 fadd	 DWORD PTR __real@4f800000
$LN21@ChangeFlyS:
  00127	89 45 e0	 mov	 DWORD PTR tv209[ebp], eax
  0012a	db 45 e0	 fild	 DWORD PTR tv209[ebp]
  0012d	85 c0		 test	 eax, eax
  0012f	79 06		 jns	 SHORT $LN22@ChangeFlyS
  00131	d8 05 00 00 00
	00		 fadd	 DWORD PTR __real@4f800000
$LN22@ChangeFlyS:
  00137	de f9		 fdivp	 ST(1), ST(0)
  00139	51		 push	 ecx
  0013a	8b 4d dc	 mov	 ecx, DWORD PTR _pOwner$GSCopy$[ebp]
  0013d	8d 45 f0	 lea	 eax, DWORD PTR _vPos$[ebp]
  00140	d9 5d e0	 fstp	 DWORD PTR tv205[ebp]
  00143	d9 45 e0	 fld	 DWORD PTR tv205[ebp]
  00146	d9 1c 24	 fstp	 DWORD PTR [esp]
  00149	50		 push	 eax
  0014a	e8 00 00 00 00	 call	 ?GetMidPositionByRate@ioGameEntity@@QBE?AUD3DXVECTOR3@@M@Z ; ioGameEntity::GetMidPositionByRate

; 597  : 	ioMapEffect *pMapEffect = pOwner->CreateMapEffectBySkill( m_stMapEffect, vPos, vScale );

  0014f	8b 4d dc	 mov	 ecx, DWORD PTR _pOwner$GSCopy$[ebp]
  00152	8d 45 e4	 lea	 eax, DWORD PTR _vScale$[ebp]
  00155	50		 push	 eax
  00156	8d 45 f0	 lea	 eax, DWORD PTR _vPos$[ebp]
  00159	50		 push	 eax
  0015a	8d 83 68 1b 00
	00		 lea	 eax, DWORD PTR [ebx+7016]
  00160	50		 push	 eax
  00161	e8 00 00 00 00	 call	 ?CreateMapEffectBySkill@ioBaseChar@@QAEPAVioMapEffect@@ABVioHashString@@ABUD3DXVECTOR3@@AAU4@@Z ; ioBaseChar::CreateMapEffectBySkill
  00166	5e		 pop	 esi

; 598  : 	if( pMapEffect )

  00167	85 c0		 test	 eax, eax
  00169	74 0d		 je	 SHORT $LN1@ChangeFlyS

; 599  : 		m_dwMapEffectID = pMapEffect->GetUniqueID();

  0016b	8b c8		 mov	 ecx, eax
  0016d	e8 00 00 00 00	 call	 ?GetUniqueID@ioMapEffect@@QBEKXZ ; ioMapEffect::GetUniqueID
  00172	89 83 64 1b 00
	00		 mov	 DWORD PTR [ebx+7012], eax
$LN1@ChangeFlyS:

; 600  : }

  00178	8b 4d fc	 mov	 ecx, DWORD PTR __$ArrayPad$[ebp]
  0017b	5f		 pop	 edi
  0017c	33 cd		 xor	 ecx, ebp
  0017e	5b		 pop	 ebx
  0017f	e8 00 00 00 00	 call	 @__security_check_cookie@4
  00184	c9		 leave
  00185	c2 04 00	 ret	 4
?ChangeFlyStart@ioDraculaItem@@QAEXPAVioBaseChar@@@Z ENDP ; ioDraculaItem::ChangeFlyStart
_TEXT	ENDS
PUBLIC	?ChangeFlyDelay@ioDraculaItem@@QAEXPAVioBaseChar@@@Z ; ioDraculaItem::ChangeFlyDelay
EXTRN	?ClearReservedSliding@ioBaseChar@@QAEXXZ:PROC	; ioBaseChar::ClearReservedSliding
; Function compile flags: /Ogsp
;	COMDAT ?ChangeFlyDelay@ioDraculaItem@@QAEXPAVioBaseChar@@@Z
_TEXT	SEGMENT
tv184 = -4						; size = 4
tv179 = -4						; size = 4
_value$614454 = -4					; size = 4
_pGrp$ = 8						; size = 4
_pOwner$ = 8						; size = 4
?ChangeFlyDelay@ioDraculaItem@@QAEXPAVioBaseChar@@@Z PROC ; ioDraculaItem::ChangeFlyDelay, COMDAT
; _this$ = ecx

; 603  : {

  00000	55		 push	 ebp
  00001	8b ec		 mov	 ebp, esp
  00003	51		 push	 ecx
  00004	53		 push	 ebx
  00005	56		 push	 esi
  00006	57		 push	 edi

; 604  : 	if( !pOwner )

  00007	8b 7d 08	 mov	 edi, DWORD PTR _pOwner$[ebp]
  0000a	33 db		 xor	 ebx, ebx
  0000c	8b f1		 mov	 esi, ecx
  0000e	3b fb		 cmp	 edi, ebx
  00010	0f 84 a3 00 00
	00		 je	 $LN3@ChangeFlyD

; 605  : 		return;
; 606  : 
; 607  : 	ioEntityGroup *pGrp = pOwner->GetGroup();

  00016	8b 47 04	 mov	 eax, DWORD PTR [edi+4]
  00019	89 45 08	 mov	 DWORD PTR _pGrp$[ebp], eax

; 608  : 	if( !pGrp )

  0001c	3b c3		 cmp	 eax, ebx
  0001e	0f 84 95 00 00
	00		 je	 $LN3@ChangeFlyD

; 609  : 		return;
; 610  : 
; 611  : 	pOwner->InitExtendAttackTagInfo();

  00024	8b cf		 mov	 ecx, edi
  00026	e8 00 00 00 00	 call	 ?InitExtendAttackTagInfo@ioBaseChar@@QAEXXZ ; ioBaseChar::InitExtendAttackTagInfo

; 612  : 
; 613  : 	pOwner->ClearReservedSliding();

  0002b	8b cf		 mov	 ecx, edi
  0002d	e8 00 00 00 00	 call	 ?ClearReservedSliding@ioBaseChar@@QAEXXZ ; ioBaseChar::ClearReservedSliding

; 614  : 	pOwner->SetForcePowerAmt( 0.0f );

  00032	0f 57 c0	 xorps	 xmm0, xmm0
  00035	8d 45 fc	 lea	 eax, DWORD PTR _value$614454[ebp]
  00038	50		 push	 eax
  00039	8d 8f 88 0b 00
	00		 lea	 ecx, DWORD PTR [edi+2952]
  0003f	f3 0f 11 45 fc	 movss	 DWORD PTR _value$614454[ebp], xmm0
  00044	e8 00 00 00 00	 call	 ?EncryptValueToPool@?$CEncrypt@M@@AAEXPBD@Z ; CEncrypt<float>::EncryptValueToPool

; 615  : 
; 616  : 	pGrp->ClearAllLoopAni( FLOAT100, true );

  00049	b8 64 00 00 00	 mov	 eax, 100		; 00000064H
  0004e	89 45 fc	 mov	 DWORD PTR tv184[ebp], eax
  00051	db 45 fc	 fild	 DWORD PTR tv184[ebp]
  00054	6a 01		 push	 1
  00056	85 c0		 test	 eax, eax
  00058	79 06		 jns	 SHORT $LN15@ChangeFlyD
  0005a	d8 05 00 00 00
	00		 fadd	 DWORD PTR __real@4f800000
$LN15@ChangeFlyD:
  00060	51		 push	 ecx
  00061	8b 4d 08	 mov	 ecx, DWORD PTR _pGrp$[ebp]
  00064	d9 1c 24	 fstp	 DWORD PTR [esp]
  00067	ff 15 00 00 00
	00		 call	 DWORD PTR __imp_?ClearAllLoopAni@ioEntityGroup@@QAEXM_N@Z

; 617  : 	pGrp->ClearAllActionAni( FLOAT100, true );

  0006d	b8 64 00 00 00	 mov	 eax, 100		; 00000064H
  00072	89 45 fc	 mov	 DWORD PTR tv179[ebp], eax
  00075	db 45 fc	 fild	 DWORD PTR tv179[ebp]
  00078	6a 01		 push	 1
  0007a	85 c0		 test	 eax, eax
  0007c	79 06		 jns	 SHORT $LN16@ChangeFlyD
  0007e	d8 05 00 00 00
	00		 fadd	 DWORD PTR __real@4f800000
$LN16@ChangeFlyD:
  00084	51		 push	 ecx
  00085	8b 4d 08	 mov	 ecx, DWORD PTR _pGrp$[ebp]
  00088	d9 1c 24	 fstp	 DWORD PTR [esp]
  0008b	ff 15 00 00 00
	00		 call	 DWORD PTR __imp_?ClearAllActionAni@ioEntityGroup@@QAEXM_N@Z

; 618  : 
; 619  : 	m_FlyState = LFS_DELAY;

  00091	c7 86 68 19 00
	00 02 00 00 00	 mov	 DWORD PTR [esi+6504], 2

; 620  : 	m_CurDirKey = ioUserKeyInput::DKI_NONE;

  0009b	89 9e bc 19 00
	00		 mov	 DWORD PTR [esi+6588], ebx

; 621  : 
; 622  : 	m_dwFlyStartTime = 0;

  000a1	89 9e 74 19 00
	00		 mov	 DWORD PTR [esi+6516], ebx

; 623  : 	m_dwFlyAttackEndTime = 0;

  000a7	89 9e 84 19 00
	00		 mov	 DWORD PTR [esi+6532], ebx

; 624  : 	m_dwFlyAttackMoveStartTime = 0;

  000ad	89 9e 7c 19 00
	00		 mov	 DWORD PTR [esi+6524], ebx

; 625  : 	m_dwFlyAttackMoveEndTime = 0;

  000b3	89 9e 80 19 00
	00		 mov	 DWORD PTR [esi+6528], ebx
$LN3@ChangeFlyD:
  000b9	5f		 pop	 edi
  000ba	5e		 pop	 esi
  000bb	5b		 pop	 ebx

; 626  : }

  000bc	c9		 leave
  000bd	c2 04 00	 ret	 4
?ChangeFlyDelay@ioDraculaItem@@QAEXPAVioBaseChar@@@Z ENDP ; ioDraculaItem::ChangeFlyDelay
_TEXT	ENDS
PUBLIC	__real@bfef5c2900000000
PUBLIC	__real@3fef5c2900000000
PUBLIC	__real@4066800000000000
PUBLIC	__real@4046800000000000
PUBLIC	_pOwner$GSCopy$
PUBLIC	_this$GSCopy$
PUBLIC	__$ArrayPad$
PUBLIC	?ProcessRotate@ioDraculaItem@@QAEXPAVioBaseChar@@@Z ; ioDraculaItem::ProcessRotate
EXTRN	?SetTargetRotToRotate@ioBaseChar@@QAEXABUD3DXQUATERNION@@_N1@Z:PROC ; ioBaseChar::SetTargetRotToRotate
EXTRN	__imp_?CalcDirectionQuaternion@ioMath@@SAXAAUD3DXQUATERNION@@ABUD3DXVECTOR3@@@Z:PROC
EXTRN	_D3DXQuaternionRotationAxis@12:PROC
EXTRN	__imp_?UNIT_Y@ioMath@@2UD3DXVECTOR3@@A:BYTE
EXTRN	_D3DXQuaternionRotationYawPitchRoll@16:PROC
EXTRN	__imp_?ArrangeHead@ioMath@@SAMM@Z:PROC
EXTRN	__imp_?GetCurFrameGap@ioFrameTimer@@QBEMXZ:PROC
;	COMDAT __real@bfef5c2900000000
; File c:\program files (x86)\microsoft directx sdk (june 2010)\include\d3dx9math.inl
CONST	SEGMENT
__real@bfef5c2900000000 DQ 0bfef5c2900000000r	; -0.98
CONST	ENDS
;	COMDAT __real@3fef5c2900000000
CONST	SEGMENT
__real@3fef5c2900000000 DQ 03fef5c2900000000r	; 0.98
CONST	ENDS
;	COMDAT __real@4066800000000000
CONST	SEGMENT
__real@4066800000000000 DQ 04066800000000000r	; 180
CONST	ENDS
;	COMDAT __real@4046800000000000
CONST	SEGMENT
__real@4046800000000000 DQ 04046800000000000r	; 45
; Function compile flags: /Ogsp
; File d:\lost saga for developer\youtube\tutorial\source\src\lsclient\iodraculaitem.cpp
CONST	ENDS
;	COMDAT ?ProcessRotate@ioDraculaItem@@QAEXPAVioBaseChar@@@Z
_TEXT	SEGMENT
_qtCurRot$ = -128					; size = 16
_qtRotate$ = -112					; size = 16
_qtNewRot$ = -96					; size = 16
_pOwner$GSCopy$ = -80					; size = 4
tv615 = -76						; size = 4
tv598 = -76						; size = 4
_fDotValue$ = -76					; size = 4
tv620 = -72						; size = 4
_fRotateAngle$ = -72					; size = 4
_fRate$ = -72						; size = 4
_fFrameGap$ = -72					; size = 4
tv572 = -68						; size = 4
tv555 = -68						; size = 4
_this$GSCopy$ = -68					; size = 4
_fGapAngle$ = -68					; size = 4
_fYawR$ = -68						; size = 4
_vAxis$ = -64						; size = 12
_vNewDir$ = -52						; size = 12
_vTargetDir$ = -40					; size = 12
_vCurMoveDir$ = -28					; size = 12
_v$614516 = -16						; size = 12
$T608178 = -16						; size = 12
$T608172 = -16						; size = 12
$T608160 = -16						; size = 12
$T608149 = -16						; size = 12
__$ArrayPad$ = -4					; size = 4
_pOwner$ = 8						; size = 4
?ProcessRotate@ioDraculaItem@@QAEXPAVioBaseChar@@@Z PROC ; ioDraculaItem::ProcessRotate, COMDAT
; _this$ = ecx

; 751  : {

  00000	55		 push	 ebp
  00001	8b ec		 mov	 ebp, esp
  00003	81 ec 80 00 00
	00		 sub	 esp, 128		; 00000080H
  00009	a1 00 00 00 00	 mov	 eax, DWORD PTR ___security_cookie
  0000e	33 c5		 xor	 eax, ebp
  00010	89 45 fc	 mov	 DWORD PTR __$ArrayPad$[ebp], eax
  00013	56		 push	 esi
  00014	8b c1		 mov	 eax, ecx
  00016	57		 push	 edi
  00017	8b 7d 08	 mov	 edi, DWORD PTR _pOwner$[ebp]

; 752  : 	if( m_CurFly.m_dwRotateTime == 0 )

  0001a	8d b0 78 1a 00
	00		 lea	 esi, DWORD PTR [eax+6776]
  00020	83 3e 00	 cmp	 DWORD PTR [esi], 0

; 802  : 
; 803  : 	D3DXVECTOR3 vNewDir = qtNewRot * vCurMoveDir;

  00023	89 45 bc	 mov	 DWORD PTR _this$GSCopy$[ebp], eax
  00026	89 7d b0	 mov	 DWORD PTR _pOwner$GSCopy$[ebp], edi
  00029	0f 84 74 03 00
	00		 je	 $LN8@ProcessRot

; 753  : 		return;
; 754  : 
; 755  : 	if( m_CurDirKey == ioUserKeyInput::DKI_NONE )

  0002f	83 b8 bc 19 00
	00 00		 cmp	 DWORD PTR [eax+6588], 0
  00036	0f 84 67 03 00
	00		 je	 $LN8@ProcessRot

; 756  : 		return;
; 757  : 
; 758  : 	float fFrameGap = g_FrameTimer.GetCurFrameGap();

  0003c	53		 push	 ebx
  0003d	ff 15 00 00 00
	00		 call	 DWORD PTR __imp_?GetSingleton@ioFrameTimer@@SAAAV1@XZ
  00043	8b c8		 mov	 ecx, eax
  00045	ff 15 00 00 00
	00		 call	 DWORD PTR __imp_?GetCurFrameGap@ioFrameTimer@@QBEMXZ
  0004b	d9 5d b8	 fstp	 DWORD PTR _fFrameGap$[ebp]

; 759  : 	float fRate = fFrameGap / m_CurFly.m_dwRotateTime;

  0004e	8b 06		 mov	 eax, DWORD PTR [esi]
  00050	d9 45 b8	 fld	 DWORD PTR _fFrameGap$[ebp]
  00053	db 06		 fild	 DWORD PTR [esi]
  00055	85 c0		 test	 eax, eax
  00057	79 06		 jns	 SHORT $LN51@ProcessRot
  00059	d8 05 00 00 00
	00		 fadd	 DWORD PTR __real@4f800000
$LN51@ProcessRot:
  0005f	de f9		 fdivp	 ST(1), ST(0)
  00061	d9 5d b8	 fstp	 DWORD PTR _fRate$[ebp]

; 760  : 	float fRotateAngle = FLOAT360 * fRate;

  00064	b8 68 01 00 00	 mov	 eax, 360		; 00000168H
  00069	89 45 b4	 mov	 DWORD PTR tv615[ebp], eax
  0006c	db 45 b4	 fild	 DWORD PTR tv615[ebp]
  0006f	85 c0		 test	 eax, eax
  00071	79 06		 jns	 SHORT $LN52@ProcessRot
  00073	d8 05 00 00 00
	00		 fadd	 DWORD PTR __real@4f800000
$LN52@ProcessRot:
  00079	d8 4d b8	 fmul	 DWORD PTR _fRate$[ebp]

; 761  : 
; 762  : 	D3DXQUATERNION qtCurRot = pOwner->GetTargetRot();

  0007c	8d b7 a4 06 00
	00		 lea	 esi, DWORD PTR [edi+1700]
  00082	8d 7d 80	 lea	 edi, DWORD PTR _qtCurRot$[ebp]
  00085	a5		 movsd
  00086	d9 5d b8	 fstp	 DWORD PTR _fRotateAngle$[ebp]
  00089	a5		 movsd
  0008a	a5		 movsd
  0008b	a5		 movsd

; 763  : 	D3DXVECTOR3 vCurMoveDir = qtCurRot * D3DXVECTOR3(0.0f, 0.0f, -FLOAT1);

  0008c	b8 01 00 00 00	 mov	 eax, 1
  00091	0f 57 c0	 xorps	 xmm0, xmm0
  00094	89 45 b4	 mov	 DWORD PTR tv598[ebp], eax
  00097	db 45 b4	 fild	 DWORD PTR tv598[ebp]
  0009a	f3 0f 11 45 f0	 movss	 DWORD PTR $T608149[ebp], xmm0
  0009f	f3 0f 11 45 f4	 movss	 DWORD PTR $T608149[ebp+4], xmm0
  000a4	85 c0		 test	 eax, eax
  000a6	79 06		 jns	 SHORT $LN53@ProcessRot
  000a8	d8 05 00 00 00
	00		 fadd	 DWORD PTR __real@4f800000
$LN53@ProcessRot:
  000ae	8b 1d 00 00 00
	00		 mov	 ebx, DWORD PTR __imp_??D@YA?AUD3DXVECTOR3@@ABUD3DXQUATERNION@@ABU0@@Z
  000b4	d9 e0		 fchs
  000b6	8d 45 f0	 lea	 eax, DWORD PTR $T608149[ebp]
  000b9	d9 5d f8	 fstp	 DWORD PTR $T608149[ebp+8]
  000bc	50		 push	 eax
  000bd	8d 45 80	 lea	 eax, DWORD PTR _qtCurRot$[ebp]
  000c0	50		 push	 eax
  000c1	8d 45 e4	 lea	 eax, DWORD PTR _vCurMoveDir$[ebp]
  000c4	50		 push	 eax
  000c5	ff d3		 call	 ebx
  000c7	83 c4 0c	 add	 esp, 12			; 0000000cH

; 764  : 	D3DXVec3Normalize( &vCurMoveDir, &vCurMoveDir );

  000ca	8d 45 e4	 lea	 eax, DWORD PTR _vCurMoveDir$[ebp]
  000cd	50		 push	 eax
  000ce	50		 push	 eax
  000cf	e8 00 00 00 00	 call	 _D3DXVec3Normalize@8

; 765  : 
; 766  : 	//    
; 767  : 	float fYawD = 180.0f + 45.0f * ( m_CurDirKey - ioUserKeyInput::DKI_UP );

  000d4	8b 45 bc	 mov	 eax, DWORD PTR _this$GSCopy$[ebp]
  000d7	8b 80 bc 19 00
	00		 mov	 eax, DWORD PTR [eax+6588]
  000dd	0f 57 c0	 xorps	 xmm0, xmm0
  000e0	48		 dec	 eax
  000e1	f3 0f 2a c0	 cvtsi2ss xmm0, eax
  000e5	0f 5a c0	 cvtps2pd xmm0, xmm0
  000e8	f2 0f 59 05 00
	00 00 00	 mulsd	 xmm0, QWORD PTR __real@4046800000000000
  000f0	f2 0f 58 05 00
	00 00 00	 addsd	 xmm0, QWORD PTR __real@4066800000000000

; 768  : 	fYawD = ioMath::ArrangeHead( fYawD );

  000f8	51		 push	 ecx
  000f9	66 0f 5a c0	 cvtpd2ps xmm0, xmm0
  000fd	f3 0f 11 04 24	 movss	 DWORD PTR [esp], xmm0
  00102	ff 15 00 00 00
	00		 call	 DWORD PTR __imp_?ArrangeHead@ioMath@@SAMM@Z

; 769  : 
; 770  : 	float fYawR = DEGtoRAD( fYawD );

  00108	dc 0d 00 00 00
	00		 fmul	 QWORD PTR __real@3f91df46a2526c7a

; 771  : 	D3DXQUATERNION qtRotate;
; 772  : 	D3DXQuaternionRotationYawPitchRoll( &qtRotate, fYawR, 0.0f, 0.0f );

  0010e	0f 57 c0	 xorps	 xmm0, xmm0
  00111	f3 0f 11 04 24	 movss	 DWORD PTR [esp], xmm0
  00116	51		 push	 ecx
  00117	d9 5d bc	 fstp	 DWORD PTR _fYawR$[ebp]
  0011a	51		 push	 ecx
  0011b	f3 0f 11 44 24
	04		 movss	 DWORD PTR [esp+4], xmm0
  00121	f3 0f 10 45 bc	 movss	 xmm0, DWORD PTR _fYawR$[ebp]
  00126	8d 45 90	 lea	 eax, DWORD PTR _qtRotate$[ebp]
  00129	f3 0f 11 04 24	 movss	 DWORD PTR [esp], xmm0
  0012e	50		 push	 eax
  0012f	e8 00 00 00 00	 call	 _D3DXQuaternionRotationYawPitchRoll@16

; 773  : 
; 774  : 	D3DXVECTOR3 vTargetDir = qtRotate * D3DXVECTOR3(0.0f, 0.0f, -FLOAT1);

  00134	b8 01 00 00 00	 mov	 eax, 1
  00139	0f 57 c0	 xorps	 xmm0, xmm0
  0013c	89 45 bc	 mov	 DWORD PTR tv572[ebp], eax
  0013f	db 45 bc	 fild	 DWORD PTR tv572[ebp]
  00142	f3 0f 11 45 f0	 movss	 DWORD PTR $T608160[ebp], xmm0
  00147	f3 0f 11 45 f4	 movss	 DWORD PTR $T608160[ebp+4], xmm0
  0014c	85 c0		 test	 eax, eax
  0014e	79 06		 jns	 SHORT $LN54@ProcessRot
  00150	d8 05 00 00 00
	00		 fadd	 DWORD PTR __real@4f800000
$LN54@ProcessRot:
  00156	8d 45 f0	 lea	 eax, DWORD PTR $T608160[ebp]
  00159	d9 e0		 fchs
  0015b	50		 push	 eax
  0015c	d9 5d f8	 fstp	 DWORD PTR $T608160[ebp+8]
  0015f	8d 45 90	 lea	 eax, DWORD PTR _qtRotate$[ebp]
  00162	50		 push	 eax
  00163	8d 45 d8	 lea	 eax, DWORD PTR _vTargetDir$[ebp]
  00166	50		 push	 eax
  00167	ff d3		 call	 ebx
  00169	83 c4 0c	 add	 esp, 12			; 0000000cH

; 775  : 	D3DXVec3Normalize( &vTargetDir, &vTargetDir );

  0016c	8d 45 d8	 lea	 eax, DWORD PTR _vTargetDir$[ebp]
  0016f	50		 push	 eax
  00170	50		 push	 eax
  00171	e8 00 00 00 00	 call	 _D3DXVec3Normalize@8

; 776  : 
; 777  : 	float fDotValue = D3DXVec3Dot( &vCurMoveDir, &vTargetDir );

  00176	f3 0f 10 45 e8	 movss	 xmm0, DWORD PTR _vCurMoveDir$[ebp+4]
  0017b	f3 0f 10 4d dc	 movss	 xmm1, DWORD PTR _vTargetDir$[ebp+4]
  00180	f3 0f 10 55 e4	 movss	 xmm2, DWORD PTR _vCurMoveDir$[ebp]
  00185	0f 5a c9	 cvtps2pd xmm1, xmm1
  00188	0f 5a c0	 cvtps2pd xmm0, xmm0
  0018b	f2 0f 59 c1	 mulsd	 xmm0, xmm1
  0018f	f3 0f 10 4d d8	 movss	 xmm1, DWORD PTR _vTargetDir$[ebp]
  00194	0f 5a c9	 cvtps2pd xmm1, xmm1
  00197	0f 5a d2	 cvtps2pd xmm2, xmm2
  0019a	f2 0f 59 ca	 mulsd	 xmm1, xmm2
  0019e	f3 0f 10 55 e0	 movss	 xmm2, DWORD PTR _vTargetDir$[ebp+8]
  001a3	f2 0f 58 c1	 addsd	 xmm0, xmm1
  001a7	f3 0f 10 4d ec	 movss	 xmm1, DWORD PTR _vCurMoveDir$[ebp+8]
  001ac	0f 5a c9	 cvtps2pd xmm1, xmm1
  001af	0f 5a d2	 cvtps2pd xmm2, xmm2
  001b2	f2 0f 59 ca	 mulsd	 xmm1, xmm2
  001b6	f2 0f 58 c1	 addsd	 xmm0, xmm1
  001ba	66 0f 5a c0	 cvtpd2ps xmm0, xmm0
  001be	f3 0f 11 45 b4	 movss	 DWORD PTR _fDotValue$[ebp], xmm0

; 778  : 	float fGapAngle = RADtoDEG( acosf(fDotValue) );

  001c3	d9 45 b4	 fld	 DWORD PTR _fDotValue$[ebp]
  001c6	e8 00 00 00 00	 call	 __CIacos
  001cb	d9 5d bc	 fstp	 DWORD PTR tv555[ebp]
  001ce	d9 45 bc	 fld	 DWORD PTR tv555[ebp]
  001d1	51		 push	 ecx
  001d2	d9 1c 24	 fstp	 DWORD PTR [esp]
  001d5	e8 00 00 00 00	 call	 ??$RADtoDEG@M@@YAMM@Z	; RADtoDEG<float>

; 779  : 
; 780  : 	if( fDotValue >= 0.98f )

  001da	f3 0f 10 45 b4	 movss	 xmm0, DWORD PTR _fDotValue$[ebp]
  001df	d9 5d bc	 fstp	 DWORD PTR _fGapAngle$[ebp]
  001e2	0f 5a c0	 cvtps2pd xmm0, xmm0
  001e5	66 0f 2f 05 00
	00 00 00	 comisd	 xmm0, QWORD PTR __real@3fef5c2900000000
  001ed	59		 pop	 ecx
  001ee	72 08		 jb	 SHORT $LN5@ProcessRot

; 781  : 	{
; 782  : 		pOwner->SetTargetRotToRotate( qtRotate, true );

  001f0	8d 45 90	 lea	 eax, DWORD PTR _qtRotate$[ebp]

; 783  : 		return;

  001f3	e9 9d 01 00 00	 jmp	 $LN55@ProcessRot
$LN5@ProcessRot:

; 784  : 	}
; 785  : 
; 786  : 	D3DXVECTOR3 vAxis;
; 787  : 	if( fDotValue <= -0.98f )

  001f8	f3 0f 10 45 b4	 movss	 xmm0, DWORD PTR _fDotValue$[ebp]
  001fd	f2 0f 10 0d 00
	00 00 00	 movsd	 xmm1, QWORD PTR __real@bfef5c2900000000
  00205	0f 5a c0	 cvtps2pd xmm0, xmm0
  00208	66 0f 2f c8	 comisd	 xmm1, xmm0
  0020c	f3 0f 10 05 00
	00 00 00	 movss	 xmm0, DWORD PTR __mask@@NegFloat@
  00214	72 11		 jb	 SHORT $LN4@ProcessRot

; 788  : 	{
; 789  : 		vAxis = ioMath::UNIT_Y;

  00216	8b 35 00 00 00
	00		 mov	 esi, DWORD PTR __imp_?UNIT_Y@ioMath@@2UD3DXVECTOR3@@A
  0021c	8d 7d c0	 lea	 edi, DWORD PTR _vAxis$[ebp]
  0021f	a5		 movsd
  00220	a5		 movsd
  00221	a5		 movsd

; 790  : 	}
; 791  : 	else

  00222	e9 cd 00 00 00	 jmp	 $LN3@ProcessRot
$LN4@ProcessRot:

; 792  : 	{
; 793  : 		D3DXVec3Cross( &vAxis, &vTargetDir, &vCurMoveDir );

  00227	f3 0f 10 55 ec	 movss	 xmm2, DWORD PTR _vCurMoveDir$[ebp+8]
  0022c	f3 0f 10 4d dc	 movss	 xmm1, DWORD PTR _vTargetDir$[ebp+4]
  00231	f3 0f 10 5d e0	 movss	 xmm3, DWORD PTR _vTargetDir$[ebp+8]
  00236	f3 0f 10 65 d8	 movss	 xmm4, DWORD PTR _vTargetDir$[ebp]
  0023b	f3 0f 10 6d e4	 movss	 xmm5, DWORD PTR _vCurMoveDir$[ebp]
  00240	0f 5a d2	 cvtps2pd xmm2, xmm2
  00243	0f 5a db	 cvtps2pd xmm3, xmm3
  00246	0f 5a c9	 cvtps2pd xmm1, xmm1
  00249	f2 0f 59 ca	 mulsd	 xmm1, xmm2
  0024d	f3 0f 10 55 e8	 movss	 xmm2, DWORD PTR _vCurMoveDir$[ebp+4]
  00252	0f 5a d2	 cvtps2pd xmm2, xmm2
  00255	f2 0f 59 d3	 mulsd	 xmm2, xmm3
  00259	f3 0f 10 5d e4	 movss	 xmm3, DWORD PTR _vCurMoveDir$[ebp]
  0025e	f2 0f 5c ca	 subsd	 xmm1, xmm2
  00262	f3 0f 10 55 e0	 movss	 xmm2, DWORD PTR _vTargetDir$[ebp+8]
  00267	0f 5a db	 cvtps2pd xmm3, xmm3
  0026a	0f 5a d2	 cvtps2pd xmm2, xmm2
  0026d	f2 0f 59 d3	 mulsd	 xmm2, xmm3
  00271	f3 0f 10 5d ec	 movss	 xmm3, DWORD PTR _vCurMoveDir$[ebp+8]
  00276	0f 5a db	 cvtps2pd xmm3, xmm3
  00279	0f 5a e4	 cvtps2pd xmm4, xmm4
  0027c	f2 0f 59 dc	 mulsd	 xmm3, xmm4
  00280	f3 0f 10 65 d8	 movss	 xmm4, DWORD PTR _vTargetDir$[ebp]
  00285	f2 0f 5c d3	 subsd	 xmm2, xmm3
  00289	f3 0f 10 5d e8	 movss	 xmm3, DWORD PTR _vCurMoveDir$[ebp+4]
  0028e	0f 5a db	 cvtps2pd xmm3, xmm3
  00291	0f 5a e4	 cvtps2pd xmm4, xmm4
  00294	f2 0f 59 dc	 mulsd	 xmm3, xmm4
  00298	f3 0f 10 65 dc	 movss	 xmm4, DWORD PTR _vTargetDir$[ebp+4]
  0029d	0f 5a e4	 cvtps2pd xmm4, xmm4
  002a0	0f 5a ed	 cvtps2pd xmm5, xmm5
  002a3	f2 0f 59 e5	 mulsd	 xmm4, xmm5
  002a7	f2 0f 5c dc	 subsd	 xmm3, xmm4
  002ab	f2 0f 5a c9	 cvtsd2ss xmm1, xmm1
  002af	f3 0f 11 4d f0	 movss	 DWORD PTR _v$614516[ebp], xmm1
  002b4	f2 0f 5a d2	 cvtsd2ss xmm2, xmm2
  002b8	f3 0f 11 55 f4	 movss	 DWORD PTR _v$614516[ebp+4], xmm2
  002bd	f2 0f 5a db	 cvtsd2ss xmm3, xmm3
  002c1	f3 0f 11 5d f8	 movss	 DWORD PTR _v$614516[ebp+8], xmm3
  002c6	8d 75 f0	 lea	 esi, DWORD PTR _v$614516[ebp]
  002c9	8d 7d c0	 lea	 edi, DWORD PTR _vAxis$[ebp]
  002cc	a5		 movsd
  002cd	a5		 movsd

; 794  : 		D3DXVec3Normalize( &vAxis, &-vAxis );

  002ce	8d 45 f0	 lea	 eax, DWORD PTR $T608172[ebp]
  002d1	50		 push	 eax
  002d2	a5		 movsd
  002d3	8d 45 c0	 lea	 eax, DWORD PTR _vAxis$[ebp]
  002d6	0f 57 c8	 xorps	 xmm1, xmm0
  002d9	0f 57 d0	 xorps	 xmm2, xmm0
  002dc	0f 57 d8	 xorps	 xmm3, xmm0
  002df	50		 push	 eax
  002e0	f3 0f 11 4d f0	 movss	 DWORD PTR $T608172[ebp], xmm1
  002e5	f3 0f 11 55 f4	 movss	 DWORD PTR $T608172[ebp+4], xmm2
  002ea	f3 0f 11 5d f8	 movss	 DWORD PTR $T608172[ebp+8], xmm3
  002ef	e8 00 00 00 00	 call	 _D3DXVec3Normalize@8
$LN3@ProcessRot:

; 795  : 	}
; 796  : 
; 797  : 	D3DXQUATERNION qtNewRot;
; 798  : 	if( fGapAngle < fRotateAngle )

  002f4	f3 0f 10 45 bc	 movss	 xmm0, DWORD PTR _fGapAngle$[ebp]
  002f9	f3 0f 10 4d b8	 movss	 xmm1, DWORD PTR _fRotateAngle$[ebp]
  002fe	0f 5a c0	 cvtps2pd xmm0, xmm0
  00301	0f 5a c9	 cvtps2pd xmm1, xmm1
  00304	66 0f 2f c8	 comisd	 xmm1, xmm0

; 799  : 		D3DXQuaternionRotationAxis( &qtNewRot, &vAxis, DEGtoRAD(fGapAngle) );

  00308	51		 push	 ecx
  00309	8d 45 c0	 lea	 eax, DWORD PTR _vAxis$[ebp]
  0030c	76 07		 jbe	 SHORT $LN2@ProcessRot
  0030e	f3 0f 10 45 bc	 movss	 xmm0, DWORD PTR _fGapAngle$[ebp]

; 800  : 	else

  00313	eb 05		 jmp	 SHORT $LN56@ProcessRot
$LN2@ProcessRot:

; 801  : 		D3DXQuaternionRotationAxis( &qtNewRot, &vAxis, DEGtoRAD(fRotateAngle) );

  00315	f3 0f 10 45 b8	 movss	 xmm0, DWORD PTR _fRotateAngle$[ebp]
$LN56@ProcessRot:
  0031a	0f 5a c0	 cvtps2pd xmm0, xmm0
  0031d	f2 0f 59 05 00
	00 00 00	 mulsd	 xmm0, QWORD PTR __real@3f91df46a2526c7a
  00325	f2 0f 5a c0	 cvtsd2ss xmm0, xmm0
  00329	f3 0f 11 04 24	 movss	 DWORD PTR [esp], xmm0
  0032e	50		 push	 eax
  0032f	8d 45 a0	 lea	 eax, DWORD PTR _qtNewRot$[ebp]
  00332	50		 push	 eax
  00333	e8 00 00 00 00	 call	 _D3DXQuaternionRotationAxis@12

; 802  : 
; 803  : 	D3DXVECTOR3 vNewDir = qtNewRot * vCurMoveDir;

  00338	8d 45 e4	 lea	 eax, DWORD PTR _vCurMoveDir$[ebp]
  0033b	50		 push	 eax
  0033c	8d 45 a0	 lea	 eax, DWORD PTR _qtNewRot$[ebp]
  0033f	50		 push	 eax
  00340	8d 45 cc	 lea	 eax, DWORD PTR _vNewDir$[ebp]
  00343	50		 push	 eax
  00344	ff d3		 call	 ebx
  00346	83 c4 0c	 add	 esp, 12			; 0000000cH

; 804  : 	D3DXVec3Normalize( &vNewDir, &vNewDir );

  00349	8d 45 cc	 lea	 eax, DWORD PTR _vNewDir$[ebp]
  0034c	50		 push	 eax
  0034d	50		 push	 eax
  0034e	e8 00 00 00 00	 call	 _D3DXVec3Normalize@8

; 805  : 
; 806  : 	ioMath::CalcDirectionQuaternion( qtNewRot, -vNewDir );

  00353	f3 0f 10 05 00
	00 00 00	 movss	 xmm0, DWORD PTR __mask@@NegFloat@
  0035b	f3 0f 10 4d cc	 movss	 xmm1, DWORD PTR _vNewDir$[ebp]
  00360	0f 57 c8	 xorps	 xmm1, xmm0
  00363	f3 0f 11 4d f0	 movss	 DWORD PTR $T608178[ebp], xmm1
  00368	f3 0f 10 4d d0	 movss	 xmm1, DWORD PTR _vNewDir$[ebp+4]
  0036d	0f 57 c8	 xorps	 xmm1, xmm0
  00370	8d 45 f0	 lea	 eax, DWORD PTR $T608178[ebp]
  00373	50		 push	 eax
  00374	f3 0f 11 4d f4	 movss	 DWORD PTR $T608178[ebp+4], xmm1
  00379	f3 0f 10 4d d4	 movss	 xmm1, DWORD PTR _vNewDir$[ebp+8]
  0037e	8d 45 a0	 lea	 eax, DWORD PTR _qtNewRot$[ebp]
  00381	0f 57 c8	 xorps	 xmm1, xmm0
  00384	50		 push	 eax
  00385	f3 0f 11 4d f8	 movss	 DWORD PTR $T608178[ebp+8], xmm1
  0038a	ff 15 00 00 00
	00		 call	 DWORD PTR __imp_?CalcDirectionQuaternion@ioMath@@SAXAAUD3DXQUATERNION@@ABUD3DXVECTOR3@@@Z
  00390	59		 pop	 ecx
  00391	59		 pop	 ecx

; 807  : 	pOwner->SetTargetRotToRotate( qtNewRot, true );

  00392	8d 45 a0	 lea	 eax, DWORD PTR _qtNewRot$[ebp]
$LN55@ProcessRot:
  00395	8b 4d b0	 mov	 ecx, DWORD PTR _pOwner$GSCopy$[ebp]
  00398	6a 00		 push	 0
  0039a	6a 01		 push	 1
  0039c	50		 push	 eax
  0039d	e8 00 00 00 00	 call	 ?SetTargetRotToRotate@ioBaseChar@@QAEXABUD3DXQUATERNION@@_N1@Z ; ioBaseChar::SetTargetRotToRotate
  003a2	5b		 pop	 ebx
$LN8@ProcessRot:

; 808  : }

  003a3	8b 4d fc	 mov	 ecx, DWORD PTR __$ArrayPad$[ebp]
  003a6	5f		 pop	 edi
  003a7	33 cd		 xor	 ecx, ebp
  003a9	5e		 pop	 esi
  003aa	e8 00 00 00 00	 call	 @__security_check_cookie@4
  003af	c9		 leave
  003b0	c2 04 00	 ret	 4
?ProcessRotate@ioDraculaItem@@QAEXPAVioBaseChar@@@Z ENDP ; ioDraculaItem::ProcessRotate
_TEXT	ENDS
PUBLIC	__real@0000000000000000
PUBLIC	_pOwner$GSCopy$
PUBLIC	__$ArrayPad$
PUBLIC	?ProcessFlyStart@ioDraculaItem@@QAE_NPAVioBaseChar@@@Z ; ioDraculaItem::ProcessFlyStart
EXTRN	?CheckAxisLimit@ioBaseChar@@QAE_NPAUD3DXVECTOR3@@@Z:PROC ; ioBaseChar::CheckAxisLimit
EXTRN	?ReCalculateMoveVectorByTerrain@ioPlayStage@@QAE_NPAVioBaseChar@@PAUD3DXVECTOR3@@AA_N@Z:PROC ; ioPlayStage::ReCalculateMoveVectorByTerrain
EXTRN	__imp_?VEC3_ZERO@ioMath@@2UD3DXVECTOR3@@A:BYTE
EXTRN	__imp_?GetSecPerFrame@ioFrameTimer@@QBEMXZ:PROC
;	COMDAT __real@0000000000000000
; File d:\lost saga for developer\youtube\tutorial\source\src\lsclient\iobasechar.h
CONST	SEGMENT
__real@0000000000000000 DQ 00000000000000000r	; 0
; Function compile flags: /Ogsp
; File d:\lost saga for developer\youtube\tutorial\source\src\lsclient\iodraculaitem.cpp
CONST	ENDS
;	COMDAT ?ProcessFlyStart@ioDraculaItem@@QAE_NPAVioBaseChar@@@Z
_TEXT	SEGMENT
_qtNewRot$ = -112					; size = 16
_pOwner$GSCopy$ = -96					; size = 4
_fDistance$ = -92					; size = 4
_fTimePerSec$ = -92					; size = 4
_value$614633 = -88					; size = 4
_value$614617 = -88					; size = 4
_fCurSpeed$ = -88					; size = 4
tv717 = -84						; size = 4
tv685 = -84						; size = 4
tv681 = -84						; size = 4
tv652 = -84						; size = 4
tv649 = -84						; size = 4
_value$614638 = -84					; size = 4
_fCurAngle$ = -84					; size = 4
_bRangeLimit$ = -78					; size = 1
_bCol$ = -77						; size = 1
_vPos$ = -76						; size = 12
_vAxis$ = -64						; size = 12
_vMoveAmt$ = -52					; size = 12
_vTargetDir$ = -40					; size = 12
_vMoveDir$ = -28					; size = 12
_v$614593 = -16						; size = 12
$T608207 = -16						; size = 12
$T608204 = -16						; size = 12
$T608188 = -16						; size = 12
__$ArrayPad$ = -4					; size = 4
_pOwner$ = 8						; size = 4
?ProcessFlyStart@ioDraculaItem@@QAE_NPAVioBaseChar@@@Z PROC ; ioDraculaItem::ProcessFlyStart, COMDAT
; _this$ = ecx

; 811  : {

  00000	55		 push	 ebp
  00001	8b ec		 mov	 ebp, esp
  00003	83 ec 70	 sub	 esp, 112		; 00000070H
  00006	a1 00 00 00 00	 mov	 eax, DWORD PTR ___security_cookie
  0000b	33 c5		 xor	 eax, ebp
  0000d	89 45 fc	 mov	 DWORD PTR __$ArrayPad$[ebp], eax
  00010	53		 push	 ebx
  00011	57		 push	 edi
  00012	8b 7d 08	 mov	 edi, DWORD PTR _pOwner$[ebp]
  00015	8b d9		 mov	 ebx, ecx

; 853  : 	{
; 854  : 		bRangeLimit = false;

  00017	89 7d a0	 mov	 DWORD PTR _pOwner$GSCopy$[ebp], edi
  0001a	85 ff		 test	 edi, edi
  0001c	75 07		 jne	 SHORT $LN7@ProcessFly

; 812  : 	if( !pOwner )
; 813  : 		return false;

  0001e	32 c0		 xor	 al, al
  00020	e9 f3 03 00 00	 jmp	 $LN8@ProcessFly
$LN7@ProcessFly:
  00025	56		 push	 esi

; 814  : 
; 815  : 	DWORD dwCurTime = FRAMEGETTIME();

  00026	8b 35 00 00 00
	00		 mov	 esi, DWORD PTR __imp_?GetSingleton@ioFrameTimer@@SAAAV1@XZ
  0002c	ff d6		 call	 esi
  0002e	8b c8		 mov	 ecx, eax
  00030	ff 15 00 00 00
	00		 call	 DWORD PTR __imp_?GetLoopSec@ioFrameTimer@@QBEKXZ

; 816  : 	float fTimePerSec = g_FrameTimer.GetSecPerFrame();

  00036	ff d6		 call	 esi
  00038	8b c8		 mov	 ecx, eax
  0003a	ff 15 00 00 00
	00		 call	 DWORD PTR __imp_?GetSecPerFrame@ioFrameTimer@@QBEMXZ
  00040	d9 5d a4	 fstp	 DWORD PTR _fTimePerSec$[ebp]

; 817  : 
; 818  : 	D3DXVECTOR3 vTargetDir = pOwner->GetTargetRot() * D3DXVECTOR3( 0.0f, 0.0f, -FLOAT1 );

  00043	b8 01 00 00 00	 mov	 eax, 1
  00048	0f 57 c0	 xorps	 xmm0, xmm0
  0004b	89 45 ac	 mov	 DWORD PTR tv717[ebp], eax
  0004e	db 45 ac	 fild	 DWORD PTR tv717[ebp]
  00051	f3 0f 11 45 f0	 movss	 DWORD PTR $T608188[ebp], xmm0
  00056	f3 0f 11 45 f4	 movss	 DWORD PTR $T608188[ebp+4], xmm0
  0005b	85 c0		 test	 eax, eax
  0005d	79 06		 jns	 SHORT $LN55@ProcessFly
  0005f	d8 05 00 00 00
	00		 fadd	 DWORD PTR __real@4f800000
$LN55@ProcessFly:
  00065	8d 45 f0	 lea	 eax, DWORD PTR $T608188[ebp]
  00068	d9 e0		 fchs
  0006a	50		 push	 eax
  0006b	d9 5d f8	 fstp	 DWORD PTR $T608188[ebp+8]
  0006e	81 c7 a4 06 00
	00		 add	 edi, 1700		; 000006a4H
  00074	8d 45 d8	 lea	 eax, DWORD PTR _vTargetDir$[ebp]
  00077	57		 push	 edi
  00078	50		 push	 eax
  00079	ff 15 00 00 00
	00		 call	 DWORD PTR __imp_??D@YA?AUD3DXVECTOR3@@ABUD3DXQUATERNION@@ABU0@@Z
  0007f	83 c4 0c	 add	 esp, 12			; 0000000cH

; 819  : 	D3DXVec3Normalize( &vTargetDir, &vTargetDir );

  00082	8d 45 d8	 lea	 eax, DWORD PTR _vTargetDir$[ebp]
  00085	50		 push	 eax
  00086	50		 push	 eax
  00087	e8 00 00 00 00	 call	 _D3DXVec3Normalize@8

; 820  : 
; 821  : 	D3DXVECTOR3 vAxis;
; 822  : 	D3DXVec3Cross( &vAxis, &vTargetDir, &ioMath::UNIT_Y );

  0008c	f3 0f 10 5d dc	 movss	 xmm3, DWORD PTR _vTargetDir$[ebp+4]
  00091	a1 00 00 00 00	 mov	 eax, DWORD PTR __imp_?UNIT_Y@ioMath@@2UD3DXVECTOR3@@A
  00096	f3 0f 10 40 08	 movss	 xmm0, DWORD PTR [eax+8]
  0009b	f3 0f 10 48 04	 movss	 xmm1, DWORD PTR [eax+4]
  000a0	f3 0f 10 65 e0	 movss	 xmm4, DWORD PTR _vTargetDir$[ebp+8]
  000a5	0f 5a d0	 cvtps2pd xmm2, xmm0
  000a8	0f 5a db	 cvtps2pd xmm3, xmm3
  000ab	f2 0f 59 d3	 mulsd	 xmm2, xmm3
  000af	0f 5a e4	 cvtps2pd xmm4, xmm4
  000b2	0f 5a c0	 cvtps2pd xmm0, xmm0
  000b5	8d 75 f0	 lea	 esi, DWORD PTR _v$614593[ebp]
  000b8	8d 7d c0	 lea	 edi, DWORD PTR _vAxis$[ebp]
  000bb	0f 5a d9	 cvtps2pd xmm3, xmm1
  000be	f2 0f 59 dc	 mulsd	 xmm3, xmm4
  000c2	f3 0f 10 65 e0	 movss	 xmm4, DWORD PTR _vTargetDir$[ebp+8]
  000c7	f2 0f 5c d3	 subsd	 xmm2, xmm3
  000cb	66 0f 5a d2	 cvtpd2ps xmm2, xmm2
  000cf	f3 0f 11 55 f0	 movss	 DWORD PTR _v$614593[ebp], xmm2
  000d4	f3 0f 10 10	 movss	 xmm2, DWORD PTR [eax]
  000d8	0f 5a da	 cvtps2pd xmm3, xmm2
  000db	0f 5a e4	 cvtps2pd xmm4, xmm4
  000de	f2 0f 59 dc	 mulsd	 xmm3, xmm4
  000e2	f3 0f 10 65 d8	 movss	 xmm4, DWORD PTR _vTargetDir$[ebp]
  000e7	0f 5a e4	 cvtps2pd xmm4, xmm4
  000ea	f2 0f 59 c4	 mulsd	 xmm0, xmm4
  000ee	f2 0f 5c d8	 subsd	 xmm3, xmm0

; 823  : 	D3DXVec3Normalize( &vAxis, &vAxis );

  000f2	8d 45 c0	 lea	 eax, DWORD PTR _vAxis$[ebp]
  000f5	50		 push	 eax
  000f6	50		 push	 eax
  000f7	66 0f 5a c3	 cvtpd2ps xmm0, xmm3
  000fb	f3 0f 11 45 f4	 movss	 DWORD PTR _v$614593[ebp+4], xmm0
  00100	0f 5a c1	 cvtps2pd xmm0, xmm1
  00103	f3 0f 10 4d d8	 movss	 xmm1, DWORD PTR _vTargetDir$[ebp]
  00108	0f 5a c9	 cvtps2pd xmm1, xmm1
  0010b	f2 0f 59 c1	 mulsd	 xmm0, xmm1
  0010f	0f 5a ca	 cvtps2pd xmm1, xmm2
  00112	f3 0f 10 55 dc	 movss	 xmm2, DWORD PTR _vTargetDir$[ebp+4]
  00117	0f 5a d2	 cvtps2pd xmm2, xmm2
  0011a	f2 0f 59 ca	 mulsd	 xmm1, xmm2
  0011e	f2 0f 5c c1	 subsd	 xmm0, xmm1
  00122	66 0f 5a c0	 cvtpd2ps xmm0, xmm0
  00126	f3 0f 11 45 f8	 movss	 DWORD PTR _v$614593[ebp+8], xmm0
  0012b	a5		 movsd
  0012c	a5		 movsd
  0012d	a5		 movsd
  0012e	e8 00 00 00 00	 call	 _D3DXVec3Normalize@8

; 824  : 
; 825  : 	D3DXQUATERNION qtNewRot;
; 826  : 	float fCurAngle = ioMath::ArrangeHead( m_CurFly.m_fStartAngle );

  00133	f3 0f 10 83 6c
	1a 00 00	 movss	 xmm0, DWORD PTR [ebx+6764]
  0013b	51		 push	 ecx
  0013c	f3 0f 11 04 24	 movss	 DWORD PTR [esp], xmm0
  00141	ff 15 00 00 00
	00		 call	 DWORD PTR __imp_?ArrangeHead@ioMath@@SAMM@Z
  00147	d9 5d ac	 fstp	 DWORD PTR _fCurAngle$[ebp]

; 827  : 	D3DXQuaternionRotationAxis( &qtNewRot, &vAxis, DEGtoRAD(fCurAngle) );

  0014a	d9 45 ac	 fld	 DWORD PTR _fCurAngle$[ebp]
  0014d	8d 45 c0	 lea	 eax, DWORD PTR _vAxis$[ebp]
  00150	dc 0d 00 00 00
	00		 fmul	 QWORD PTR __real@3f91df46a2526c7a
  00156	d9 5d ac	 fstp	 DWORD PTR tv681[ebp]
  00159	d9 45 ac	 fld	 DWORD PTR tv681[ebp]
  0015c	d9 1c 24	 fstp	 DWORD PTR [esp]
  0015f	50		 push	 eax
  00160	8d 45 90	 lea	 eax, DWORD PTR _qtNewRot$[ebp]
  00163	50		 push	 eax
  00164	e8 00 00 00 00	 call	 _D3DXQuaternionRotationAxis@12

; 828  : 
; 829  : 	D3DXVECTOR3 vMoveDir = qtNewRot * vTargetDir;

  00169	8d 45 d8	 lea	 eax, DWORD PTR _vTargetDir$[ebp]
  0016c	50		 push	 eax
  0016d	8d 45 90	 lea	 eax, DWORD PTR _qtNewRot$[ebp]
  00170	50		 push	 eax
  00171	8d 45 e4	 lea	 eax, DWORD PTR _vMoveDir$[ebp]
  00174	50		 push	 eax
  00175	ff 15 00 00 00
	00		 call	 DWORD PTR __imp_??D@YA?AUD3DXVECTOR3@@ABUD3DXQUATERNION@@ABU0@@Z
  0017b	83 c4 0c	 add	 esp, 12			; 0000000cH

; 830  : 	D3DXVec3Normalize( &vMoveDir, &vMoveDir );

  0017e	8d 45 e4	 lea	 eax, DWORD PTR _vMoveDir$[ebp]
  00181	50		 push	 eax
  00182	50		 push	 eax
  00183	e8 00 00 00 00	 call	 _D3DXVec3Normalize@8

; 831  : 
; 832  : 	if( vMoveDir == ioMath::VEC3_ZERO )

  00188	8b 0d 00 00 00
	00		 mov	 ecx, DWORD PTR __imp_?VEC3_ZERO@ioMath@@2UD3DXVECTOR3@@A
  0018e	f3 0f 10 45 e4	 movss	 xmm0, DWORD PTR _vMoveDir$[ebp]
  00193	f3 0f 10 09	 movss	 xmm1, DWORD PTR [ecx]
  00197	0f 5a c0	 cvtps2pd xmm0, xmm0
  0019a	0f 5a c9	 cvtps2pd xmm1, xmm1
  0019d	66 0f 2e c1	 ucomisd xmm0, xmm1
  001a1	9f		 lahf
  001a2	f6 c4 44	 test	 ah, 68			; 00000044H
  001a5	7a 34		 jp	 SHORT $LN6@ProcessFly
  001a7	f3 0f 10 45 e8	 movss	 xmm0, DWORD PTR _vMoveDir$[ebp+4]
  001ac	f3 0f 10 49 04	 movss	 xmm1, DWORD PTR [ecx+4]
  001b1	0f 5a c0	 cvtps2pd xmm0, xmm0
  001b4	0f 5a c9	 cvtps2pd xmm1, xmm1
  001b7	66 0f 2e c1	 ucomisd xmm0, xmm1
  001bb	9f		 lahf
  001bc	f6 c4 44	 test	 ah, 68			; 00000044H
  001bf	7a 1a		 jp	 SHORT $LN6@ProcessFly
  001c1	f3 0f 10 45 ec	 movss	 xmm0, DWORD PTR _vMoveDir$[ebp+8]
  001c6	f3 0f 10 49 08	 movss	 xmm1, DWORD PTR [ecx+8]
  001cb	0f 5a c0	 cvtps2pd xmm0, xmm0
  001ce	0f 5a c9	 cvtps2pd xmm1, xmm1
  001d1	66 0f 2e c1	 ucomisd xmm0, xmm1
  001d5	9f		 lahf
  001d6	f6 c4 44	 test	 ah, 68			; 00000044H

; 833  : 		return false;

  001d9	7b 09		 jnp	 SHORT $LN58@ProcessFly
$LN6@ProcessFly:

; 834  : 
; 835  : 	if( m_CurFly.m_dwStartDuration == 0 )

  001db	83 bb 74 1a 00
	00 00		 cmp	 DWORD PTR [ebx+6772], 0
  001e2	75 07		 jne	 SHORT $LN5@ProcessFly
$LN58@ProcessFly:

; 836  : 		return false;

  001e4	32 c0		 xor	 al, al
  001e6	e9 2c 02 00 00	 jmp	 $LN54@ProcessFly
$LN5@ProcessFly:

; 837  : 
; 838  : 	float fCurSpeed = m_CurFly.m_fStartMaxRange / (float)m_CurFly.m_dwStartDuration * FLOAT1000;

  001eb	b8 e8 03 00 00	 mov	 eax, 1000		; 000003e8H
  001f0	d9 83 70 1a 00
	00		 fld	 DWORD PTR [ebx+6768]
  001f6	8b 8b 74 1a 00
	00		 mov	 ecx, DWORD PTR [ebx+6772]
  001fc	89 4d ac	 mov	 DWORD PTR tv652[ebp], ecx
  001ff	db 45 ac	 fild	 DWORD PTR tv652[ebp]
  00202	85 c9		 test	 ecx, ecx
  00204	79 06		 jns	 SHORT $LN56@ProcessFly
  00206	d8 05 00 00 00
	00		 fadd	 DWORD PTR __real@4f800000
$LN56@ProcessFly:
  0020c	de f9		 fdivp	 ST(1), ST(0)
  0020e	89 45 ac	 mov	 DWORD PTR tv649[ebp], eax
  00211	db 45 ac	 fild	 DWORD PTR tv649[ebp]
  00214	85 c0		 test	 eax, eax
  00216	79 06		 jns	 SHORT $LN57@ProcessFly
  00218	d8 05 00 00 00
	00		 fadd	 DWORD PTR __real@4f800000
$LN57@ProcessFly:

; 839  : 	fCurSpeed = max( 0.0f, fCurSpeed );

  0021e	0f 57 c0	 xorps	 xmm0, xmm0
  00221	de c9		 fmulp	 ST(1), ST(0)
  00223	d9 5d a8	 fstp	 DWORD PTR _fCurSpeed$[ebp]
  00226	d9 45 a8	 fld	 DWORD PTR _fCurSpeed$[ebp]
  00229	d9 ee		 fldz
  0022b	df f1		 fcomip	 ST(1)
  0022d	dd d8		 fstp	 ST(0)
  0022f	76 05		 jbe	 SHORT $LN10@ProcessFly
  00231	f3 0f 11 45 a8	 movss	 DWORD PTR _fCurSpeed$[ebp], xmm0
$LN10@ProcessFly:

; 840  : 
; 841  : 	float fDistance = fCurSpeed * fTimePerSec;

  00236	f3 0f 10 55 a4	 movss	 xmm2, DWORD PTR _fTimePerSec$[ebp]
  0023b	f3 0f 10 4d a8	 movss	 xmm1, DWORD PTR _fCurSpeed$[ebp]
  00240	0f 5a c9	 cvtps2pd xmm1, xmm1
  00243	0f 5a d2	 cvtps2pd xmm2, xmm2

; 842  : 
; 843  : 	bool bRangeLimit = false;
; 844  : 	D3DXVECTOR3 vMoveAmt( 0.0f, 0.0f, 0.0f );
; 845  : 	if( m_fFlyCurRange+fDistance < m_CurFly.m_fStartMaxRange )

  00246	8d b3 8c 19 00
	00		 lea	 esi, DWORD PTR [ebx+6540]
  0024c	8d 45 a8	 lea	 eax, DWORD PTR _value$614617[ebp]
  0024f	f2 0f 59 ca	 mulsd	 xmm1, xmm2
  00253	f2 0f 5a c9	 cvtsd2ss xmm1, xmm1
  00257	50		 push	 eax
  00258	8b ce		 mov	 ecx, esi
  0025a	f3 0f 11 4d a4	 movss	 DWORD PTR _fDistance$[ebp], xmm1
  0025f	f3 0f 11 45 cc	 movss	 DWORD PTR _vMoveAmt$[ebp], xmm0
  00264	f3 0f 11 45 d0	 movss	 DWORD PTR _vMoveAmt$[ebp+4], xmm0
  00269	f3 0f 11 45 d4	 movss	 DWORD PTR _vMoveAmt$[ebp+8], xmm0
  0026e	89 75 ac	 mov	 DWORD PTR tv685[ebp], esi
  00271	e8 00 00 00 00	 call	 ?DecryptValueToPool@?$CEncrypt@M@@QAEXPAM@Z ; CEncrypt<float>::DecryptValueToPool
  00276	f3 0f 10 45 a8	 movss	 xmm0, DWORD PTR _value$614617[ebp]
  0027b	0f 5a c8	 cvtps2pd xmm1, xmm0
  0027e	f3 0f 10 45 a4	 movss	 xmm0, DWORD PTR _fDistance$[ebp]
  00283	0f 5a d0	 cvtps2pd xmm2, xmm0
  00286	f2 0f 58 ca	 addsd	 xmm1, xmm2
  0028a	f3 0f 10 93 70
	1a 00 00	 movss	 xmm2, DWORD PTR [ebx+6768]
  00292	66 0f 5a c9	 cvtpd2ps xmm1, xmm1
  00296	f3 0f 5a c9	 cvtss2sd xmm1, xmm1
  0029a	0f 5a d2	 cvtps2pd xmm2, xmm2
  0029d	66 0f 2f d1	 comisd	 xmm2, xmm1
  002a1	0f 86 92 00 00
	00		 jbe	 $LN4@ProcessFly

; 846  : 	{
; 847  : 		bRangeLimit = true;
; 848  : 		vMoveAmt = vMoveDir * fDistance;

  002a7	f3 0f 10 4d e4	 movss	 xmm1, DWORD PTR _vMoveDir$[ebp]
  002ac	0f 5a c9	 cvtps2pd xmm1, xmm1

; 849  : 
; 850  : 		m_fFlyCurRange += fDistance;

  002af	8b 4d ac	 mov	 ecx, DWORD PTR tv685[ebp]
  002b2	0f 5a d0	 cvtps2pd xmm2, xmm0
  002b5	f2 0f 59 ca	 mulsd	 xmm1, xmm2
  002b9	66 0f 5a c9	 cvtpd2ps xmm1, xmm1
  002bd	f3 0f 11 4d f0	 movss	 DWORD PTR $T608204[ebp], xmm1
  002c2	f3 0f 10 4d e8	 movss	 xmm1, DWORD PTR _vMoveDir$[ebp+4]
  002c7	0f 5a c9	 cvtps2pd xmm1, xmm1
  002ca	0f 5a d0	 cvtps2pd xmm2, xmm0
  002cd	f2 0f 59 ca	 mulsd	 xmm1, xmm2
  002d1	66 0f 5a c9	 cvtpd2ps xmm1, xmm1
  002d5	f3 0f 11 4d f4	 movss	 DWORD PTR $T608204[ebp+4], xmm1
  002da	f3 0f 10 4d ec	 movss	 xmm1, DWORD PTR _vMoveDir$[ebp+8]
  002df	0f 5a c0	 cvtps2pd xmm0, xmm0
  002e2	0f 5a c9	 cvtps2pd xmm1, xmm1
  002e5	f2 0f 59 c8	 mulsd	 xmm1, xmm0
  002e9	0f 57 c0	 xorps	 xmm0, xmm0
  002ec	66 0f 5a c1	 cvtpd2ps xmm0, xmm1
  002f0	f3 0f 11 45 f8	 movss	 DWORD PTR $T608204[ebp+8], xmm0
  002f5	8d 75 f0	 lea	 esi, DWORD PTR $T608204[ebp]
  002f8	8d 7d cc	 lea	 edi, DWORD PTR _vMoveAmt$[ebp]
  002fb	a5		 movsd
  002fc	a5		 movsd
  002fd	8d 45 a8	 lea	 eax, DWORD PTR _value$614633[ebp]
  00300	50		 push	 eax
  00301	c6 45 b2 01	 mov	 BYTE PTR _bRangeLimit$[ebp], 1
  00305	a5		 movsd
  00306	e8 00 00 00 00	 call	 ?DecryptValueToPool@?$CEncrypt@M@@QAEXPAM@Z ; CEncrypt<float>::DecryptValueToPool
  0030b	f3 0f 10 45 a8	 movss	 xmm0, DWORD PTR _value$614633[ebp]
  00310	f3 0f 10 4d a4	 movss	 xmm1, DWORD PTR _fDistance$[ebp]
  00315	8b 4d ac	 mov	 ecx, DWORD PTR tv685[ebp]
  00318	0f 5a c0	 cvtps2pd xmm0, xmm0
  0031b	0f 5a c9	 cvtps2pd xmm1, xmm1
  0031e	8d 45 a8	 lea	 eax, DWORD PTR _value$614633[ebp]
  00321	f2 0f 58 c1	 addsd	 xmm0, xmm1
  00325	66 0f 5a c0	 cvtpd2ps xmm0, xmm0
  00329	50		 push	 eax
  0032a	f3 0f 11 45 a8	 movss	 DWORD PTR _value$614633[ebp], xmm0
  0032f	e8 00 00 00 00	 call	 ?EncryptValueToPool@?$CEncrypt@M@@AAEXPBD@Z ; CEncrypt<float>::EncryptValueToPool

; 851  : 	}
; 852  : 	else

  00334	e9 84 00 00 00	 jmp	 $LN3@ProcessFly
$LN4@ProcessFly:

; 855  : 
; 856  : 		float fGapDistance = m_CurFly.m_fStartMaxRange - m_fFlyCurRange;

  00339	8d 45 ac	 lea	 eax, DWORD PTR _value$614638[ebp]
  0033c	50		 push	 eax
  0033d	8b ce		 mov	 ecx, esi
  0033f	c6 45 b2 00	 mov	 BYTE PTR _bRangeLimit$[ebp], 0
  00343	e8 00 00 00 00	 call	 ?DecryptValueToPool@?$CEncrypt@M@@QAEXPAM@Z ; CEncrypt<float>::DecryptValueToPool
  00348	f3 0f 10 83 70
	1a 00 00	 movss	 xmm0, DWORD PTR [ebx+6768]
  00350	f3 0f 10 4d ac	 movss	 xmm1, DWORD PTR _value$614638[ebp]
  00355	0f 5a c9	 cvtps2pd xmm1, xmm1
  00358	0f 5a c0	 cvtps2pd xmm0, xmm0
  0035b	f2 0f 5c c1	 subsd	 xmm0, xmm1

; 857  : 		vMoveAmt = vMoveDir * fGapDistance;

  0035f	f3 0f 10 4d e4	 movss	 xmm1, DWORD PTR _vMoveDir$[ebp]
  00364	0f 5a c9	 cvtps2pd xmm1, xmm1
  00367	66 0f 5a c0	 cvtpd2ps xmm0, xmm0
  0036b	0f 57 d2	 xorps	 xmm2, xmm2
  0036e	f3 0f 5a d0	 cvtss2sd xmm2, xmm0
  00372	f2 0f 59 ca	 mulsd	 xmm1, xmm2
  00376	66 0f 5a c9	 cvtpd2ps xmm1, xmm1
  0037a	f3 0f 11 4d f0	 movss	 DWORD PTR $T608207[ebp], xmm1
  0037f	f3 0f 10 4d e8	 movss	 xmm1, DWORD PTR _vMoveDir$[ebp+4]
  00384	0f 5a c9	 cvtps2pd xmm1, xmm1
  00387	0f 57 d2	 xorps	 xmm2, xmm2
  0038a	f3 0f 5a d0	 cvtss2sd xmm2, xmm0
  0038e	f2 0f 59 ca	 mulsd	 xmm1, xmm2
  00392	66 0f 5a c9	 cvtpd2ps xmm1, xmm1
  00396	f3 0f 11 4d f4	 movss	 DWORD PTR $T608207[ebp+4], xmm1
  0039b	f3 0f 10 4d ec	 movss	 xmm1, DWORD PTR _vMoveDir$[ebp+8]
  003a0	f3 0f 5a c0	 cvtss2sd xmm0, xmm0
  003a4	0f 5a c9	 cvtps2pd xmm1, xmm1
  003a7	f2 0f 59 c8	 mulsd	 xmm1, xmm0
  003ab	8d 75 f0	 lea	 esi, DWORD PTR $T608207[ebp]
  003ae	8d 7d cc	 lea	 edi, DWORD PTR _vMoveAmt$[ebp]
  003b1	66 0f 5a c1	 cvtpd2ps xmm0, xmm1
  003b5	f3 0f 11 45 f8	 movss	 DWORD PTR $T608207[ebp+8], xmm0
  003ba	a5		 movsd
  003bb	a5		 movsd
  003bc	a5		 movsd
$LN3@ProcessFly:

; 858  : 	}
; 859  : 
; 860  : 	bool bCol = false;
; 861  : 	ioPlayStage *pStage = pOwner->GetCreator();

  003bd	8b 5d a0	 mov	 ebx, DWORD PTR _pOwner$GSCopy$[ebp]
  003c0	8b 8b 44 03 00
	00		 mov	 ecx, DWORD PTR [ebx+836]
  003c6	c6 45 b3 00	 mov	 BYTE PTR _bCol$[ebp], 0

; 862  : 	if( pStage && pStage->ReCalculateMoveVectorByTerrain( pOwner, &vMoveAmt, bCol ) )

  003ca	85 c9		 test	 ecx, ecx
  003cc	74 1d		 je	 SHORT $LN2@ProcessFly
  003ce	8d 45 b3	 lea	 eax, DWORD PTR _bCol$[ebp]
  003d1	50		 push	 eax
  003d2	8d 45 cc	 lea	 eax, DWORD PTR _vMoveAmt$[ebp]
  003d5	50		 push	 eax
  003d6	53		 push	 ebx
  003d7	e8 00 00 00 00	 call	 ?ReCalculateMoveVectorByTerrain@ioPlayStage@@QAE_NPAVioBaseChar@@PAUD3DXVECTOR3@@AA_N@Z ; ioPlayStage::ReCalculateMoveVectorByTerrain
  003dc	84 c0		 test	 al, al
  003de	74 0b		 je	 SHORT $LN2@ProcessFly

; 863  : 	{
; 864  : 		pOwner->Translate( vMoveAmt );

  003e0	8b 03		 mov	 eax, DWORD PTR [ebx]
  003e2	8d 4d cc	 lea	 ecx, DWORD PTR _vMoveAmt$[ebp]
  003e5	51		 push	 ecx
  003e6	8b cb		 mov	 ecx, ebx
  003e8	ff 50 50	 call	 DWORD PTR [eax+80]
$LN2@ProcessFly:

; 865  : 	}
; 866  : 
; 867  : 	D3DXVECTOR3 vPos = pOwner->GetWorldPosition();

  003eb	8b 03		 mov	 eax, DWORD PTR [ebx]
  003ed	8b cb		 mov	 ecx, ebx
  003ef	ff 50 70	 call	 DWORD PTR [eax+112]
  003f2	8b f0		 mov	 esi, eax
  003f4	8d 7d b4	 lea	 edi, DWORD PTR _vPos$[ebp]
  003f7	a5		 movsd
  003f8	a5		 movsd

; 868  : 	if( pOwner->CheckAxisLimit( &vPos ) )

  003f9	8d 45 b4	 lea	 eax, DWORD PTR _vPos$[ebp]
  003fc	50		 push	 eax
  003fd	8b cb		 mov	 ecx, ebx
  003ff	a5		 movsd
  00400	e8 00 00 00 00	 call	 ?CheckAxisLimit@ioBaseChar@@QAE_NPAUD3DXVECTOR3@@@Z ; ioBaseChar::CheckAxisLimit
  00405	84 c0		 test	 al, al
  00407	74 0b		 je	 SHORT $LN1@ProcessFly

; 869  : 		pOwner->SetWorldPosition( vPos );

  00409	8b 03		 mov	 eax, DWORD PTR [ebx]
  0040b	8d 4d b4	 lea	 ecx, DWORD PTR _vPos$[ebp]
  0040e	51		 push	 ecx
  0040f	8b cb		 mov	 ecx, ebx
  00411	ff 50 44	 call	 DWORD PTR [eax+68]
$LN1@ProcessFly:

; 870  : 
; 871  : 	return bRangeLimit;

  00414	8a 45 b2	 mov	 al, BYTE PTR _bRangeLimit$[ebp]
$LN54@ProcessFly:
  00417	5e		 pop	 esi
$LN8@ProcessFly:

; 872  : }

  00418	8b 4d fc	 mov	 ecx, DWORD PTR __$ArrayPad$[ebp]
  0041b	5f		 pop	 edi
  0041c	33 cd		 xor	 ecx, ebp
  0041e	5b		 pop	 ebx
  0041f	e8 00 00 00 00	 call	 @__security_check_cookie@4
  00424	c9		 leave
  00425	c2 04 00	 ret	 4
?ProcessFlyStart@ioDraculaItem@@QAE_NPAVioBaseChar@@@Z ENDP ; ioDraculaItem::ProcessFlyStart
_TEXT	ENDS
PUBLIC	_this$GSCopy$
PUBLIC	__$ArrayPad$
PUBLIC	?ProcessFlyMove@ioDraculaItem@@QAE_NPAVioBaseChar@@@Z ; ioDraculaItem::ProcessFlyMove
EXTRN	?CheckAxisLimit@ioPlayStage@@QAE_NPAUD3DXVECTOR3@@@Z:PROC ; ioPlayStage::CheckAxisLimit
EXTRN	?CheckFlyMapLimit@ioPlayStage@@QAEXPAUD3DXVECTOR3@@@Z:PROC ; ioPlayStage::CheckFlyMapLimit
; Function compile flags: /Ogsp
;	COMDAT ?ProcessFlyMove@ioDraculaItem@@QAE_NPAVioBaseChar@@@Z
_TEXT	SEGMENT
_pStage$ = -60						; size = 4
tv458 = -56						; size = 4
tv426 = -56						; size = 4
_fMapHeight$ = -56					; size = 4
_this$GSCopy$ = -52					; size = 4
_fCurHeightAmt$608236 = -52				; size = 4
_fCurUpDownSpeed$608237 = -48				; size = 4
_fTimePerSec$ = -48					; size = 4
_value$614712 = -41					; size = 1
_value$614708 = -41					; size = 1
_value$614704 = -41					; size = 1
_value$614700 = -41					; size = 1
_bCol$608229 = -41					; size = 1
_vMoveDir$ = -40					; size = 12
_vMoveAmt$608227 = -28					; size = 12
$T608222 = -28						; size = 12
_vCurPos$ = -16						; size = 12
__$ArrayPad$ = -4					; size = 4
_pOwner$ = 8						; size = 4
?ProcessFlyMove@ioDraculaItem@@QAE_NPAVioBaseChar@@@Z PROC ; ioDraculaItem::ProcessFlyMove, COMDAT
; _this$ = ecx

; 875  : {

  00000	55		 push	 ebp
  00001	8b ec		 mov	 ebp, esp
  00003	83 ec 3c	 sub	 esp, 60			; 0000003cH
  00006	a1 00 00 00 00	 mov	 eax, DWORD PTR ___security_cookie
  0000b	33 c5		 xor	 eax, ebp
  0000d	89 45 fc	 mov	 DWORD PTR __$ArrayPad$[ebp], eax
  00010	53		 push	 ebx
  00011	8b 5d 08	 mov	 ebx, DWORD PTR _pOwner$[ebp]
  00014	56		 push	 esi
  00015	8b f1		 mov	 esi, ecx

; 921  : 
; 922  : 	pStage->CheckFlyMapLimit( &vCurPos );

  00017	89 75 cc	 mov	 DWORD PTR _this$GSCopy$[ebp], esi
  0001a	85 db		 test	 ebx, ebx
  0001c	75 07		 jne	 SHORT $LN9@ProcessFly@2

; 876  : 	if( !pOwner )
; 877  : 		return false;

  0001e	32 c0		 xor	 al, al
  00020	e9 7b 02 00 00	 jmp	 $LN10@ProcessFly@2
$LN9@ProcessFly@2:
  00025	57		 push	 edi

; 878  : 
; 879  : 	ioPlayStage *pStage = pOwner->GetCreator();

  00026	8b bb 44 03 00
	00		 mov	 edi, DWORD PTR [ebx+836]
  0002c	89 7d c4	 mov	 DWORD PTR _pStage$[ebp], edi

; 880  : 	if( !pStage )

  0002f	85 ff		 test	 edi, edi
  00031	75 07		 jne	 SHORT $LN8@ProcessFly@2

; 881  : 		return false;

  00033	32 c0		 xor	 al, al
  00035	e9 65 02 00 00	 jmp	 $LN38@ProcessFly@2
$LN8@ProcessFly@2:

; 882  : 
; 883  : 	D3DXVECTOR3 vMoveDir = pOwner->GetTargetRot() * D3DXVECTOR3( 0.0f, 0.0f, -FLOAT1 );

  0003a	b8 01 00 00 00	 mov	 eax, 1
  0003f	0f 57 c0	 xorps	 xmm0, xmm0
  00042	89 45 c8	 mov	 DWORD PTR tv458[ebp], eax
  00045	db 45 c8	 fild	 DWORD PTR tv458[ebp]
  00048	f3 0f 11 45 e4	 movss	 DWORD PTR $T608222[ebp], xmm0
  0004d	f3 0f 11 45 e8	 movss	 DWORD PTR $T608222[ebp+4], xmm0
  00052	85 c0		 test	 eax, eax
  00054	79 06		 jns	 SHORT $LN39@ProcessFly@2
  00056	d8 05 00 00 00
	00		 fadd	 DWORD PTR __real@4f800000
$LN39@ProcessFly@2:
  0005c	8d 45 e4	 lea	 eax, DWORD PTR $T608222[ebp]
  0005f	d9 e0		 fchs
  00061	50		 push	 eax
  00062	d9 5d ec	 fstp	 DWORD PTR $T608222[ebp+8]
  00065	8d 83 a4 06 00
	00		 lea	 eax, DWORD PTR [ebx+1700]
  0006b	50		 push	 eax
  0006c	8d 45 d8	 lea	 eax, DWORD PTR _vMoveDir$[ebp]
  0006f	50		 push	 eax
  00070	ff 15 00 00 00
	00		 call	 DWORD PTR __imp_??D@YA?AUD3DXVECTOR3@@ABUD3DXQUATERNION@@ABU0@@Z
  00076	83 c4 0c	 add	 esp, 12			; 0000000cH

; 884  : 	D3DXVec3Normalize( &vMoveDir, &vMoveDir );

  00079	8d 45 d8	 lea	 eax, DWORD PTR _vMoveDir$[ebp]
  0007c	50		 push	 eax
  0007d	50		 push	 eax
  0007e	e8 00 00 00 00	 call	 _D3DXVec3Normalize@8

; 885  : 
; 886  : 	float fTimePerSec = g_FrameTimer.GetSecPerFrame();

  00083	ff 15 00 00 00
	00		 call	 DWORD PTR __imp_?GetSingleton@ioFrameTimer@@SAAAV1@XZ
  00089	8b c8		 mov	 ecx, eax
  0008b	ff 15 00 00 00
	00		 call	 DWORD PTR __imp_?GetSecPerFrame@ioFrameTimer@@QBEMXZ
  00091	d9 5d d0	 fstp	 DWORD PTR _fTimePerSec$[ebp]

; 887  : 
; 888  : 	// Dir Move
; 889  : 	if( m_CurDirKey != ioUserKeyInput::DKI_NONE )

  00094	83 be bc 19 00
	00 00		 cmp	 DWORD PTR [esi+6588], 0
  0009b	0f 84 92 00 00
	00		 je	 $LN6@ProcessFly@2

; 890  : 	{
; 891  : 		float fCurMoveSpeed = m_CurFly.m_fMoveSpeed * fTimePerSec;

  000a1	f3 0f 10 86 7c
	1a 00 00	 movss	 xmm0, DWORD PTR [esi+6780]
  000a9	f3 0f 10 4d d0	 movss	 xmm1, DWORD PTR _fTimePerSec$[ebp]
  000ae	0f 5a c9	 cvtps2pd xmm1, xmm1
  000b1	0f 5a c0	 cvtps2pd xmm0, xmm0
  000b4	f2 0f 59 c1	 mulsd	 xmm0, xmm1

; 892  : 		D3DXVECTOR3 vMoveAmt = vMoveDir * fCurMoveSpeed;

  000b8	f3 0f 10 4d d8	 movss	 xmm1, DWORD PTR _vMoveDir$[ebp]
  000bd	0f 5a c9	 cvtps2pd xmm1, xmm1
  000c0	66 0f 5a c0	 cvtpd2ps xmm0, xmm0
  000c4	0f 57 d2	 xorps	 xmm2, xmm2
  000c7	f3 0f 5a d0	 cvtss2sd xmm2, xmm0
  000cb	f2 0f 59 ca	 mulsd	 xmm1, xmm2
  000cf	66 0f 5a c9	 cvtpd2ps xmm1, xmm1
  000d3	f3 0f 11 4d e4	 movss	 DWORD PTR _vMoveAmt$608227[ebp], xmm1
  000d8	f3 0f 10 4d dc	 movss	 xmm1, DWORD PTR _vMoveDir$[ebp+4]
  000dd	0f 5a c9	 cvtps2pd xmm1, xmm1
  000e0	0f 57 d2	 xorps	 xmm2, xmm2
  000e3	f3 0f 5a d0	 cvtss2sd xmm2, xmm0
  000e7	f2 0f 59 ca	 mulsd	 xmm1, xmm2
  000eb	66 0f 5a c9	 cvtpd2ps xmm1, xmm1
  000ef	f3 0f 11 4d e8	 movss	 DWORD PTR _vMoveAmt$608227[ebp+4], xmm1
  000f4	f3 0f 10 4d e0	 movss	 xmm1, DWORD PTR _vMoveDir$[ebp+8]

; 893  : 
; 894  : 		bool bCol = false;
; 895  : 		if( pStage->ReCalculateMoveVectorByTerrain( pOwner, &vMoveAmt, bCol ) )

  000f9	8d 45 d7	 lea	 eax, DWORD PTR _bCol$608229[ebp]
  000fc	50		 push	 eax
  000fd	f3 0f 5a c0	 cvtss2sd xmm0, xmm0
  00101	8d 45 e4	 lea	 eax, DWORD PTR _vMoveAmt$608227[ebp]
  00104	0f 5a c9	 cvtps2pd xmm1, xmm1
  00107	f2 0f 59 c8	 mulsd	 xmm1, xmm0
  0010b	50		 push	 eax
  0010c	0f 57 c0	 xorps	 xmm0, xmm0
  0010f	66 0f 5a c1	 cvtpd2ps xmm0, xmm1
  00113	53		 push	 ebx
  00114	8b cf		 mov	 ecx, edi
  00116	f3 0f 11 45 ec	 movss	 DWORD PTR _vMoveAmt$608227[ebp+8], xmm0
  0011b	c6 45 d7 00	 mov	 BYTE PTR _bCol$608229[ebp], 0
  0011f	e8 00 00 00 00	 call	 ?ReCalculateMoveVectorByTerrain@ioPlayStage@@QAE_NPAVioBaseChar@@PAUD3DXVECTOR3@@AA_N@Z ; ioPlayStage::ReCalculateMoveVectorByTerrain
  00124	84 c0		 test	 al, al
  00126	74 0b		 je	 SHORT $LN6@ProcessFly@2

; 896  : 			pOwner->Translate( vMoveAmt );

  00128	8b 03		 mov	 eax, DWORD PTR [ebx]
  0012a	8d 4d e4	 lea	 ecx, DWORD PTR _vMoveAmt$608227[ebp]
  0012d	51		 push	 ecx
  0012e	8b cb		 mov	 ecx, ebx
  00130	ff 50 50	 call	 DWORD PTR [eax+80]
$LN6@ProcessFly@2:

; 897  : 	}
; 898  : 
; 899  : 	D3DXVECTOR3 vCurPos = pOwner->GetWorldPosition();

  00133	8b 03		 mov	 eax, DWORD PTR [ebx]
  00135	8b cb		 mov	 ecx, ebx
  00137	ff 50 70	 call	 DWORD PTR [eax+112]
  0013a	8b f0		 mov	 esi, eax
  0013c	8d 7d f0	 lea	 edi, DWORD PTR _vCurPos$[ebp]
  0013f	a5		 movsd
  00140	a5		 movsd
  00141	a5		 movsd

; 900  : 	float fMapHeight = pStage->GetMapHeight( vCurPos.x, vCurPos.z, pOwner, false, pOwner->GetMidHeightByRate(FLOAT1) );

  00142	b8 01 00 00 00	 mov	 eax, 1
  00147	89 45 c8	 mov	 DWORD PTR tv426[ebp], eax
  0014a	6a 00		 push	 0
  0014c	db 45 c8	 fild	 DWORD PTR tv426[ebp]
  0014f	85 c0		 test	 eax, eax
  00151	79 06		 jns	 SHORT $LN40@ProcessFly@2
  00153	d8 05 00 00 00
	00		 fadd	 DWORD PTR __real@4f800000
$LN40@ProcessFly@2:
  00159	51		 push	 ecx
  0015a	8b cb		 mov	 ecx, ebx
  0015c	d9 1c 24	 fstp	 DWORD PTR [esp]
  0015f	e8 00 00 00 00	 call	 ?GetMidHeightByRate@ioGameEntity@@QBEMM@Z ; ioGameEntity::GetMidHeightByRate
  00164	f3 0f 10 45 f8	 movss	 xmm0, DWORD PTR _vCurPos$[ebp+8]
  00169	51		 push	 ecx
  0016a	d9 1c 24	 fstp	 DWORD PTR [esp]
  0016d	6a 00		 push	 0
  0016f	53		 push	 ebx
  00170	51		 push	 ecx
  00171	51		 push	 ecx
  00172	8b 4d c4	 mov	 ecx, DWORD PTR _pStage$[ebp]
  00175	f3 0f 11 44 24
	04		 movss	 DWORD PTR [esp+4], xmm0
  0017b	f3 0f 10 45 f0	 movss	 xmm0, DWORD PTR _vCurPos$[ebp]
  00180	f3 0f 11 04 24	 movss	 DWORD PTR [esp], xmm0
  00185	e8 00 00 00 00	 call	 ?GetMapHeight@ioPlayStage@@QAEMMMPBVioGameEntity@@_NM1@Z ; ioPlayStage::GetMapHeight
  0018a	d9 5d c8	 fstp	 DWORD PTR _fMapHeight$[ebp]

; 901  : 
; 902  : 	// up_down  .
; 903  : 	//if( bOptionMove == false )
; 904  : 	{
; 905  : 		// UpDown Move
; 906  : 		if( m_bSetUpKey || m_bSetDownKey )

  0018d	8b 75 cc	 mov	 esi, DWORD PTR _this$GSCopy$[ebp]
  00190	8d 45 d7	 lea	 eax, DWORD PTR _value$614700[ebp]
  00193	50		 push	 eax
  00194	8d 8e c4 19 00
	00		 lea	 ecx, DWORD PTR [esi+6596]
  0019a	e8 00 00 00 00	 call	 ?DecryptValueToPool@?$CEncrypt@_N@@QAEXPA_N@Z ; CEncrypt<bool>::DecryptValueToPool
  0019f	80 7d d7 00	 cmp	 BYTE PTR _value$614700[ebp], 0
  001a3	75 19		 jne	 SHORT $LN4@ProcessFly@2
  001a5	8d 45 d7	 lea	 eax, DWORD PTR _value$614704[ebp]
  001a8	50		 push	 eax
  001a9	8d 8e f4 19 00
	00		 lea	 ecx, DWORD PTR [esi+6644]
  001af	e8 00 00 00 00	 call	 ?DecryptValueToPool@?$CEncrypt@_N@@QAEXPA_N@Z ; CEncrypt<bool>::DecryptValueToPool
  001b4	80 7d d7 00	 cmp	 BYTE PTR _value$614704[ebp], 0
  001b8	0f 84 a1 00 00
	00		 je	 $LN36@ProcessFly@2
$LN4@ProcessFly@2:

; 907  : 		{
; 908  : 			float fCurHeightAmt = 0.0f;

  001be	0f 57 c0	 xorps	 xmm0, xmm0

; 909  : 			float fCurUpDownSpeed = m_CurFly.m_fUpDownSpeed * fTimePerSec;

  001c1	f3 0f 10 4d d0	 movss	 xmm1, DWORD PTR _fTimePerSec$[ebp]
  001c6	f3 0f 11 45 cc	 movss	 DWORD PTR _fCurHeightAmt$608236[ebp], xmm0
  001cb	f3 0f 10 86 80
	1a 00 00	 movss	 xmm0, DWORD PTR [esi+6784]
  001d3	0f 5a c0	 cvtps2pd xmm0, xmm0
  001d6	0f 5a c9	 cvtps2pd xmm1, xmm1

; 910  : 
; 911  : 			if( m_bSetUpKey )

  001d9	8d 45 d7	 lea	 eax, DWORD PTR _value$614708[ebp]
  001dc	f2 0f 59 c1	 mulsd	 xmm0, xmm1
  001e0	66 0f 5a c0	 cvtpd2ps xmm0, xmm0
  001e4	50		 push	 eax
  001e5	8d 8e c4 19 00
	00		 lea	 ecx, DWORD PTR [esi+6596]
  001eb	f3 0f 11 45 d0	 movss	 DWORD PTR _fCurUpDownSpeed$608237[ebp], xmm0
  001f0	e8 00 00 00 00	 call	 ?DecryptValueToPool@?$CEncrypt@_N@@QAEXPA_N@Z ; CEncrypt<bool>::DecryptValueToPool
  001f5	80 7d d7 00	 cmp	 BYTE PTR _value$614708[ebp], 0
  001f9	74 16		 je	 SHORT $LN3@ProcessFly@2

; 912  : 				fCurHeightAmt += fCurUpDownSpeed;

  001fb	f3 0f 10 45 d0	 movss	 xmm0, DWORD PTR _fCurUpDownSpeed$608237[ebp]
  00200	0f 5a c0	 cvtps2pd xmm0, xmm0
  00203	f2 0f 58 05 00
	00 00 00	 addsd	 xmm0, QWORD PTR __real@0000000000000000
  0020b	f2 0f 5a c0	 cvtsd2ss xmm0, xmm0
  0020f	eb 32		 jmp	 SHORT $LN1@ProcessFly@2
$LN3@ProcessFly@2:

; 913  : 			else if( m_bSetDownKey )

  00211	8d 45 d7	 lea	 eax, DWORD PTR _value$614712[ebp]
  00214	50		 push	 eax
  00215	8d 8e f4 19 00
	00		 lea	 ecx, DWORD PTR [esi+6644]
  0021b	e8 00 00 00 00	 call	 ?DecryptValueToPool@?$CEncrypt@_N@@QAEXPA_N@Z ; CEncrypt<bool>::DecryptValueToPool
  00220	80 7d d7 00	 cmp	 BYTE PTR _value$614712[ebp], 0
  00224	74 18		 je	 SHORT $LN37@ProcessFly@2

; 914  : 				fCurHeightAmt -= fCurUpDownSpeed;

  00226	f3 0f 10 45 d0	 movss	 xmm0, DWORD PTR _fCurUpDownSpeed$608237[ebp]
  0022b	0f 57 c9	 xorps	 xmm1, xmm1
  0022e	0f 5a c0	 cvtps2pd xmm0, xmm0
  00231	f2 0f 5c c8	 subsd	 xmm1, xmm0
  00235	0f 57 c0	 xorps	 xmm0, xmm0
  00238	66 0f 5a c1	 cvtpd2ps xmm0, xmm1
  0023c	eb 05		 jmp	 SHORT $LN1@ProcessFly@2
$LN37@ProcessFly@2:
  0023e	f3 0f 10 45 cc	 movss	 xmm0, DWORD PTR _fCurHeightAmt$608236[ebp]
$LN1@ProcessFly@2:

; 915  : 
; 916  : 			vCurPos.y += fCurHeightAmt;

  00243	f3 0f 10 4d f4	 movss	 xmm1, DWORD PTR _vCurPos$[ebp+4]
  00248	f3 0f 5a c0	 cvtss2sd xmm0, xmm0
  0024c	0f 5a c9	 cvtps2pd xmm1, xmm1
  0024f	f2 0f 58 c8	 addsd	 xmm1, xmm0
  00253	0f 57 c0	 xorps	 xmm0, xmm0
  00256	66 0f 5a c1	 cvtpd2ps xmm0, xmm1
  0025a	f3 0f 11 45 f4	 movss	 DWORD PTR _vCurPos$[ebp+4], xmm0
$LN36@ProcessFly@2:

; 917  : 		}
; 918  : 	}
; 919  : 
; 920  : 	vCurPos.y = max( vCurPos.y, fMapHeight );

  0025f	f3 0f 10 4d f4	 movss	 xmm1, DWORD PTR _vCurPos$[ebp+4]
  00264	f3 0f 10 45 c8	 movss	 xmm0, DWORD PTR _fMapHeight$[ebp]
  00269	0f 5a c9	 cvtps2pd xmm1, xmm1
  0026c	0f 5a d0	 cvtps2pd xmm2, xmm0
  0026f	66 0f 2f ca	 comisd	 xmm1, xmm2
  00273	77 05		 ja	 SHORT $LN13@ProcessFly@2
  00275	f3 0f 11 45 f4	 movss	 DWORD PTR _vCurPos$[ebp+4], xmm0
$LN13@ProcessFly@2:

; 921  : 
; 922  : 	pStage->CheckFlyMapLimit( &vCurPos );

  0027a	8b 4d c4	 mov	 ecx, DWORD PTR _pStage$[ebp]
  0027d	8d 45 f0	 lea	 eax, DWORD PTR _vCurPos$[ebp]
  00280	50		 push	 eax
  00281	e8 00 00 00 00	 call	 ?CheckFlyMapLimit@ioPlayStage@@QAEXPAUD3DXVECTOR3@@@Z ; ioPlayStage::CheckFlyMapLimit

; 923  : 	pStage->CheckAxisLimit( &vCurPos );

  00286	8b 4d c4	 mov	 ecx, DWORD PTR _pStage$[ebp]
  00289	8d 45 f0	 lea	 eax, DWORD PTR _vCurPos$[ebp]
  0028c	50		 push	 eax
  0028d	e8 00 00 00 00	 call	 ?CheckAxisLimit@ioPlayStage@@QAE_NPAUD3DXVECTOR3@@@Z ; ioPlayStage::CheckAxisLimit

; 924  : 	pOwner->SetWorldPosition( vCurPos );

  00292	8b 03		 mov	 eax, DWORD PTR [ebx]
  00294	8d 4d f0	 lea	 ecx, DWORD PTR _vCurPos$[ebp]
  00297	51		 push	 ecx
  00298	8b cb		 mov	 ecx, ebx
  0029a	ff 50 44	 call	 DWORD PTR [eax+68]

; 925  : 
; 926  : 	return true;

  0029d	b0 01		 mov	 al, 1
$LN38@ProcessFly@2:
  0029f	5f		 pop	 edi
$LN10@ProcessFly@2:

; 927  : }

  002a0	8b 4d fc	 mov	 ecx, DWORD PTR __$ArrayPad$[ebp]
  002a3	5e		 pop	 esi
  002a4	33 cd		 xor	 ecx, ebp
  002a6	5b		 pop	 ebx
  002a7	e8 00 00 00 00	 call	 @__security_check_cookie@4
  002ac	c9		 leave
  002ad	c2 04 00	 ret	 4
?ProcessFlyMove@ioDraculaItem@@QAE_NPAVioBaseChar@@@Z ENDP ; ioDraculaItem::ProcessFlyMove
_TEXT	ENDS
PUBLIC	?GetMaxBullet@ioDraculaItem@@UAEHXZ		; ioDraculaItem::GetMaxBullet
; Function compile flags: /Ogsp
;	COMDAT ?GetMaxBullet@ioDraculaItem@@UAEHXZ
_TEXT	SEGMENT
_value$614725 = -4					; size = 4
?GetMaxBullet@ioDraculaItem@@UAEHXZ PROC		; ioDraculaItem::GetMaxBullet, COMDAT
; _this$ = ecx

; 930  : {

  00000	55		 push	 ebp
  00001	8b ec		 mov	 ebp, esp
  00003	51		 push	 ecx

; 931  : 	return (int)m_fMaxGauge;

  00004	8d 45 fc	 lea	 eax, DWORD PTR _value$614725[ebp]
  00007	50		 push	 eax
  00008	81 c1 94 1a 00
	00		 add	 ecx, 6804		; 00001a94H
  0000e	e8 00 00 00 00	 call	 ?DecryptValueToPool@?$CEncrypt@M@@QAEXPAM@Z ; CEncrypt<float>::DecryptValueToPool
  00013	f3 0f 2c 45 fc	 cvttss2si eax, DWORD PTR _value$614725[ebp]

; 932  : }

  00018	c9		 leave
  00019	c3		 ret	 0
?GetMaxBullet@ioDraculaItem@@UAEHXZ ENDP		; ioDraculaItem::GetMaxBullet
_TEXT	ENDS
PUBLIC	?GetNeedBullet@ioDraculaItem@@QAEHXZ		; ioDraculaItem::GetNeedBullet
; Function compile flags: /Ogsp
;	COMDAT ?GetNeedBullet@ioDraculaItem@@QAEHXZ
_TEXT	SEGMENT
_value$614731 = -4					; size = 4
?GetNeedBullet@ioDraculaItem@@QAEHXZ PROC		; ioDraculaItem::GetNeedBullet, COMDAT
; _this$ = ecx

; 935  : {

  00000	55		 push	 ebp
  00001	8b ec		 mov	 ebp, esp
  00003	51		 push	 ecx

; 936  : 	return (int)m_fNeedGauge;

  00004	8d 45 fc	 lea	 eax, DWORD PTR _value$614731[ebp]
  00007	50		 push	 eax
  00008	81 c1 c4 1a 00
	00		 add	 ecx, 6852		; 00001ac4H
  0000e	e8 00 00 00 00	 call	 ?DecryptValueToPool@?$CEncrypt@M@@QAEXPAM@Z ; CEncrypt<float>::DecryptValueToPool
  00013	f3 0f 2c 45 fc	 cvttss2si eax, DWORD PTR _value$614731[ebp]

; 937  : }

  00018	c9		 leave
  00019	c3		 ret	 0
?GetNeedBullet@ioDraculaItem@@QAEHXZ ENDP		; ioDraculaItem::GetNeedBullet
_TEXT	ENDS
PUBLIC	?GetCurBullet@ioDraculaItem@@UAEHXZ		; ioDraculaItem::GetCurBullet
; Function compile flags: /Ogsp
;	COMDAT ?GetCurBullet@ioDraculaItem@@UAEHXZ
_TEXT	SEGMENT
_fCurCoolTime$ = -12					; size = 4
_value$614759 = -8					; size = 4
_value$614755 = -8					; size = 4
_value$614751 = -8					; size = 4
_value$614747 = -8					; size = 4
_value$614743 = -4					; size = 4
?GetCurBullet@ioDraculaItem@@UAEHXZ PROC		; ioDraculaItem::GetCurBullet, COMDAT
; _this$ = ecx

; 940  : {

  00000	55		 push	 ebp
  00001	8b ec		 mov	 ebp, esp
  00003	83 ec 0c	 sub	 esp, 12			; 0000000cH
  00006	56		 push	 esi
  00007	8b f1		 mov	 esi, ecx

; 941  : 	float fCurCoolTime = m_fCurGauge;

  00009	8d 45 fc	 lea	 eax, DWORD PTR _value$614743[ebp]
  0000c	50		 push	 eax
  0000d	8d 8e 24 1b 00
	00		 lea	 ecx, DWORD PTR [esi+6948]
  00013	e8 00 00 00 00	 call	 ?DecryptValueToPool@?$CEncrypt@M@@QAEXPAM@Z ; CEncrypt<float>::DecryptValueToPool
  00018	f3 0f 10 45 fc	 movss	 xmm0, DWORD PTR _value$614743[ebp]

; 942  : 	fCurCoolTime = max( 0, min( fCurCoolTime, m_fMaxGauge ) );

  0001d	8d 45 f8	 lea	 eax, DWORD PTR _value$614747[ebp]
  00020	81 c6 94 1a 00
	00		 add	 esi, 6804		; 00001a94H
  00026	50		 push	 eax
  00027	8b ce		 mov	 ecx, esi
  00029	f3 0f 11 45 f4	 movss	 DWORD PTR _fCurCoolTime$[ebp], xmm0
  0002e	e8 00 00 00 00	 call	 ?DecryptValueToPool@?$CEncrypt@M@@QAEXPAM@Z ; CEncrypt<float>::DecryptValueToPool
  00033	f3 0f 10 45 fc	 movss	 xmm0, DWORD PTR _value$614743[ebp]
  00038	f3 0f 10 55 f8	 movss	 xmm2, DWORD PTR _value$614747[ebp]
  0003d	0f 57 c9	 xorps	 xmm1, xmm1
  00040	0f 5a c8	 cvtps2pd xmm1, xmm0
  00043	0f 5a d2	 cvtps2pd xmm2, xmm2
  00046	66 0f 2f d1	 comisd	 xmm2, xmm1
  0004a	77 10		 ja	 SHORT $LN4@GetCurBull
  0004c	8d 45 f8	 lea	 eax, DWORD PTR _value$614751[ebp]
  0004f	50		 push	 eax
  00050	8b ce		 mov	 ecx, esi
  00052	e8 00 00 00 00	 call	 ?DecryptValueToPool@?$CEncrypt@M@@QAEXPAM@Z ; CEncrypt<float>::DecryptValueToPool
  00057	f3 0f 10 45 f8	 movss	 xmm0, DWORD PTR _value$614751[ebp]
$LN4@GetCurBull:
  0005c	0f 57 c9	 xorps	 xmm1, xmm1
  0005f	0f 5a c0	 cvtps2pd xmm0, xmm0
  00062	66 0f 2f c8	 comisd	 xmm1, xmm0
  00066	76 05		 jbe	 SHORT $LN7@GetCurBull
  00068	0f 57 c0	 xorps	 xmm0, xmm0
  0006b	eb 38		 jmp	 SHORT $LN6@GetCurBull
$LN7@GetCurBull:
  0006d	8d 45 f8	 lea	 eax, DWORD PTR _value$614755[ebp]
  00070	50		 push	 eax
  00071	8b ce		 mov	 ecx, esi
  00073	e8 00 00 00 00	 call	 ?DecryptValueToPool@?$CEncrypt@M@@QAEXPAM@Z ; CEncrypt<float>::DecryptValueToPool
  00078	f3 0f 10 45 fc	 movss	 xmm0, DWORD PTR _value$614743[ebp]
  0007d	f3 0f 10 4d f8	 movss	 xmm1, DWORD PTR _value$614755[ebp]
  00082	0f 5a c0	 cvtps2pd xmm0, xmm0
  00085	0f 5a c9	 cvtps2pd xmm1, xmm1
  00088	66 0f 2f c8	 comisd	 xmm1, xmm0
  0008c	77 12		 ja	 SHORT $LN19@GetCurBull
  0008e	8d 45 f8	 lea	 eax, DWORD PTR _value$614759[ebp]
  00091	50		 push	 eax
  00092	8b ce		 mov	 ecx, esi
  00094	e8 00 00 00 00	 call	 ?DecryptValueToPool@?$CEncrypt@M@@QAEXPAM@Z ; CEncrypt<float>::DecryptValueToPool
  00099	f3 0f 10 45 f8	 movss	 xmm0, DWORD PTR _value$614759[ebp]
  0009e	eb 05		 jmp	 SHORT $LN6@GetCurBull
$LN19@GetCurBull:
  000a0	f3 0f 10 45 f4	 movss	 xmm0, DWORD PTR _fCurCoolTime$[ebp]
$LN6@GetCurBull:

; 943  : 
; 944  : 	return (int)fCurCoolTime;

  000a5	f3 0f 2c c0	 cvttss2si eax, xmm0
  000a9	5e		 pop	 esi

; 945  : }

  000aa	c9		 leave
  000ab	c3		 ret	 0
?GetCurBullet@ioDraculaItem@@UAEHXZ ENDP		; ioDraculaItem::GetCurBullet
_TEXT	ENDS
PUBLIC	?SetCurBullet@ioDraculaItem@@UAEXH@Z		; ioDraculaItem::SetCurBullet
; Function compile flags: /Ogsp
;	COMDAT ?SetCurBullet@ioDraculaItem@@UAEXH@Z
_TEXT	SEGMENT
_value$614780 = -4					; size = 4
_value$614776 = -4					; size = 4
_value$614772 = -4					; size = 4
_value$614788 = 8					; size = 4
_value$614784 = 8					; size = 4
_fCurBullet$ = 8					; size = 4
_iCurBullet$ = 8					; size = 4
?SetCurBullet@ioDraculaItem@@UAEXH@Z PROC		; ioDraculaItem::SetCurBullet, COMDAT
; _this$ = ecx

; 948  : {

  00000	55		 push	 ebp
  00001	8b ec		 mov	 ebp, esp
  00003	51		 push	 ecx

; 949  : 	if( iCurBullet < 0 )

  00004	83 7d 08 00	 cmp	 DWORD PTR _iCurBullet$[ebp], 0
  00008	57		 push	 edi
  00009	8b f9		 mov	 edi, ecx
  0000b	0f 8c a6 00 00
	00		 jl	 $LN18@SetCurBull

; 950  : 		return;
; 951  : 
; 952  : 	float fCurBullet = iCurBullet;

  00011	66 0f 6e 45 08	 movd	 xmm0, DWORD PTR _iCurBullet$[ebp]
  00016	56		 push	 esi

; 953  : 	fCurBullet = max( 0, min( fCurBullet, m_fMaxGauge ) );

  00017	8d 45 fc	 lea	 eax, DWORD PTR _value$614772[ebp]
  0001a	0f 5b c0	 cvtdq2ps xmm0, xmm0
  0001d	50		 push	 eax
  0001e	8d 8f 94 1a 00
	00		 lea	 ecx, DWORD PTR [edi+6804]
  00024	f3 0f 11 45 08	 movss	 DWORD PTR _fCurBullet$[ebp], xmm0
  00029	e8 00 00 00 00	 call	 ?DecryptValueToPool@?$CEncrypt@M@@QAEXPAM@Z ; CEncrypt<float>::DecryptValueToPool
  0002e	f3 0f 10 45 08	 movss	 xmm0, DWORD PTR _fCurBullet$[ebp]
  00033	f3 0f 10 55 fc	 movss	 xmm2, DWORD PTR _value$614772[ebp]
  00038	0f 5a c8	 cvtps2pd xmm1, xmm0
  0003b	0f 5a d2	 cvtps2pd xmm2, xmm2
  0003e	66 0f 2f d1	 comisd	 xmm2, xmm1
  00042	77 14		 ja	 SHORT $LN5@SetCurBull
  00044	8d 45 fc	 lea	 eax, DWORD PTR _value$614776[ebp]
  00047	50		 push	 eax
  00048	8d 8f 94 1a 00
	00		 lea	 ecx, DWORD PTR [edi+6804]
  0004e	e8 00 00 00 00	 call	 ?DecryptValueToPool@?$CEncrypt@M@@QAEXPAM@Z ; CEncrypt<float>::DecryptValueToPool
  00053	f3 0f 10 45 fc	 movss	 xmm0, DWORD PTR _value$614776[ebp]
$LN5@SetCurBull:
  00058	0f 57 c9	 xorps	 xmm1, xmm1
  0005b	0f 5a c0	 cvtps2pd xmm0, xmm0
  0005e	66 0f 2f c8	 comisd	 xmm1, xmm0
  00062	76 05		 jbe	 SHORT $LN8@SetCurBull
  00064	0f 57 c0	 xorps	 xmm0, xmm0
  00067	eb 39		 jmp	 SHORT $LN7@SetCurBull
$LN8@SetCurBull:
  00069	8d 45 fc	 lea	 eax, DWORD PTR _value$614780[ebp]
  0006c	50		 push	 eax
  0006d	8d 8f 94 1a 00
	00		 lea	 ecx, DWORD PTR [edi+6804]
  00073	e8 00 00 00 00	 call	 ?DecryptValueToPool@?$CEncrypt@M@@QAEXPAM@Z ; CEncrypt<float>::DecryptValueToPool
  00078	f3 0f 10 45 08	 movss	 xmm0, DWORD PTR _fCurBullet$[ebp]
  0007d	f3 0f 10 55 fc	 movss	 xmm2, DWORD PTR _value$614780[ebp]
  00082	0f 5a c8	 cvtps2pd xmm1, xmm0
  00085	0f 5a d2	 cvtps2pd xmm2, xmm2
  00088	66 0f 2f d1	 comisd	 xmm2, xmm1
  0008c	77 14		 ja	 SHORT $LN7@SetCurBull
  0008e	8d 45 08	 lea	 eax, DWORD PTR _value$614784[ebp]
  00091	50		 push	 eax
  00092	8d 8f 94 1a 00
	00		 lea	 ecx, DWORD PTR [edi+6804]
  00098	e8 00 00 00 00	 call	 ?DecryptValueToPool@?$CEncrypt@M@@QAEXPAM@Z ; CEncrypt<float>::DecryptValueToPool
  0009d	f3 0f 10 45 08	 movss	 xmm0, DWORD PTR _value$614784[ebp]
$LN7@SetCurBull:

; 954  : 
; 955  : 	m_fCurGauge = fCurBullet;

  000a2	8d 45 08	 lea	 eax, DWORD PTR _value$614788[ebp]
  000a5	50		 push	 eax
  000a6	8d 8f 24 1b 00
	00		 lea	 ecx, DWORD PTR [edi+6948]
  000ac	f3 0f 11 45 08	 movss	 DWORD PTR _value$614788[ebp], xmm0
  000b1	e8 00 00 00 00	 call	 ?EncryptValueToPool@?$CEncrypt@M@@AAEXPBD@Z ; CEncrypt<float>::EncryptValueToPool
  000b6	5e		 pop	 esi
$LN18@SetCurBull:
  000b7	5f		 pop	 edi

; 956  : }

  000b8	c9		 leave
  000b9	c2 04 00	 ret	 4
?SetCurBullet@ioDraculaItem@@UAEXH@Z ENDP		; ioDraculaItem::SetCurBullet
_TEXT	ENDS
PUBLIC	?InitGauge@ioDraculaItem@@QAEXXZ		; ioDraculaItem::InitGauge
; Function compile flags: /Ogsp
;	COMDAT ?InitGauge@ioDraculaItem@@QAEXXZ
_TEXT	SEGMENT
_value$614794 = -4					; size = 4
?InitGauge@ioDraculaItem@@QAEXXZ PROC			; ioDraculaItem::InitGauge, COMDAT
; _this$ = ecx

; 959  : {

  00000	55		 push	 ebp
  00001	8b ec		 mov	 ebp, esp
  00003	51		 push	 ecx

; 960  : 	m_fCurGauge = 0.0f;

  00004	0f 57 c0	 xorps	 xmm0, xmm0
  00007	8d 45 fc	 lea	 eax, DWORD PTR _value$614794[ebp]
  0000a	50		 push	 eax
  0000b	81 c1 24 1b 00
	00		 add	 ecx, 6948		; 00001b24H
  00011	f3 0f 11 45 fc	 movss	 DWORD PTR _value$614794[ebp], xmm0
  00016	e8 00 00 00 00	 call	 ?EncryptValueToPool@?$CEncrypt@M@@AAEXPBD@Z ; CEncrypt<float>::EncryptValueToPool

; 961  : }

  0001b	c9		 leave
  0001c	c3		 ret	 0
?InitGauge@ioDraculaItem@@QAEXXZ ENDP			; ioDraculaItem::InitGauge
_TEXT	ENDS
PUBLIC	?GetCurGauge@ioDraculaItem@@QAEMXZ		; ioDraculaItem::GetCurGauge
; Function compile flags: /Ogsp
;	COMDAT ?GetCurGauge@ioDraculaItem@@QAEMXZ
_TEXT	SEGMENT
_value$614800 = -4					; size = 4
?GetCurGauge@ioDraculaItem@@QAEMXZ PROC			; ioDraculaItem::GetCurGauge, COMDAT
; _this$ = ecx

; 969  : {

  00000	55		 push	 ebp
  00001	8b ec		 mov	 ebp, esp
  00003	51		 push	 ecx

; 970  : 	return m_fCurGauge;

  00004	8d 45 fc	 lea	 eax, DWORD PTR _value$614800[ebp]
  00007	50		 push	 eax
  00008	81 c1 24 1b 00
	00		 add	 ecx, 6948		; 00001b24H
  0000e	e8 00 00 00 00	 call	 ?DecryptValueToPool@?$CEncrypt@M@@QAEXPAM@Z ; CEncrypt<float>::DecryptValueToPool
  00013	d9 45 fc	 fld	 DWORD PTR _value$614800[ebp]

; 971  : }

  00016	c9		 leave
  00017	c3		 ret	 0
?GetCurGauge@ioDraculaItem@@QAEMXZ ENDP			; ioDraculaItem::GetCurGauge
_TEXT	ENDS
PUBLIC	?IsEnableGauge@ioDraculaItem@@QAE_NXZ		; ioDraculaItem::IsEnableGauge
; Function compile flags: /Ogsp
;	COMDAT ?IsEnableGauge@ioDraculaItem@@QAE_NXZ
_TEXT	SEGMENT
_value$614807 = -8					; size = 4
_value$614812 = -4					; size = 4
?IsEnableGauge@ioDraculaItem@@QAE_NXZ PROC		; ioDraculaItem::IsEnableGauge, COMDAT
; _this$ = ecx

; 986  : {

  00000	55		 push	 ebp
  00001	8b ec		 mov	 ebp, esp
  00003	51		 push	 ecx
  00004	51		 push	 ecx
  00005	56		 push	 esi
  00006	8b f1		 mov	 esi, ecx

; 987  : 	if( m_fCurGauge >= m_fNeedGauge )

  00008	8d 45 f8	 lea	 eax, DWORD PTR _value$614807[ebp]
  0000b	50		 push	 eax
  0000c	8d 8e c4 1a 00
	00		 lea	 ecx, DWORD PTR [esi+6852]
  00012	e8 00 00 00 00	 call	 ?DecryptValueToPool@?$CEncrypt@M@@QAEXPAM@Z ; CEncrypt<float>::DecryptValueToPool
  00017	8d 45 fc	 lea	 eax, DWORD PTR _value$614812[ebp]
  0001a	50		 push	 eax
  0001b	8d 8e 24 1b 00
	00		 lea	 ecx, DWORD PTR [esi+6948]
  00021	e8 00 00 00 00	 call	 ?DecryptValueToPool@?$CEncrypt@M@@QAEXPAM@Z ; CEncrypt<float>::DecryptValueToPool
  00026	f3 0f 10 45 fc	 movss	 xmm0, DWORD PTR _value$614812[ebp]
  0002b	f3 0f 10 4d f8	 movss	 xmm1, DWORD PTR _value$614807[ebp]
  00030	0f 5a c0	 cvtps2pd xmm0, xmm0
  00033	0f 5a c9	 cvtps2pd xmm1, xmm1
  00036	66 0f 2f c1	 comisd	 xmm0, xmm1
  0003a	5e		 pop	 esi
  0003b	72 04		 jb	 SHORT $LN1@IsEnableGa

; 988  : 		return true;

  0003d	b0 01		 mov	 al, 1

; 991  : }

  0003f	c9		 leave
  00040	c3		 ret	 0
$LN1@IsEnableGa:

; 989  : 
; 990  : 	return false;

  00041	32 c0		 xor	 al, al

; 991  : }

  00043	c9		 leave
  00044	c3		 ret	 0
?IsEnableGauge@ioDraculaItem@@QAE_NXZ ENDP		; ioDraculaItem::IsEnableGauge
_TEXT	ENDS
PUBLIC	?ClearState@ioDraculaItem@@QAEXPAVioBaseChar@@_N@Z ; ioDraculaItem::ClearState
; Function compile flags: /Ogsp
;	COMDAT ?ClearState@ioDraculaItem@@QAEXPAVioBaseChar@@_N@Z
_TEXT	SEGMENT
_pOwner$ = 8						; size = 4
_bEraseBuff$ = 12					; size = 1
?ClearState@ioDraculaItem@@QAEXPAVioBaseChar@@_N@Z PROC	; ioDraculaItem::ClearState, COMDAT
; _this$ = ecx

; 1032 : {

  00000	55		 push	 ebp
  00001	8b ec		 mov	 ebp, esp
  00003	53		 push	 ebx

; 1033 : 	m_FlyState = LFS_NONE;

  00004	33 db		 xor	 ebx, ebx
  00006	56		 push	 esi
  00007	8b f1		 mov	 esi, ecx
  00009	89 9e 68 19 00
	00		 mov	 DWORD PTR [esi+6504], ebx

; 1034 : 
; 1035 : 	if( bEraseBuff )

  0000f	38 5d 0c	 cmp	 BYTE PTR _bEraseBuff$[ebp], bl
  00012	74 08		 je	 SHORT $LN2@ClearState

; 1036 : 		EraseBuff( pOwner );

  00014	ff 75 08	 push	 DWORD PTR _pOwner$[ebp]
  00017	e8 00 00 00 00	 call	 ?EraseBuff@ioDraculaItem@@IAEXPAVioBaseChar@@@Z ; ioDraculaItem::EraseBuff
$LN2@ClearState:

; 1037 : 
; 1038 : 	m_CurFly.Init();

  0001c	0f 57 c0	 xorps	 xmm0, xmm0
  0001f	f3 0f 11 86 6c
	1a 00 00	 movss	 DWORD PTR [esi+6764], xmm0
  00027	f3 0f 11 86 70
	1a 00 00	 movss	 DWORD PTR [esi+6768], xmm0
  0002f	89 9e 74 1a 00
	00		 mov	 DWORD PTR [esi+6772], ebx
  00035	89 9e 78 1a 00
	00		 mov	 DWORD PTR [esi+6776], ebx
  0003b	f3 0f 11 86 7c
	1a 00 00	 movss	 DWORD PTR [esi+6780], xmm0
  00043	f3 0f 11 86 80
	1a 00 00	 movss	 DWORD PTR [esi+6784], xmm0

; 1039 : 
; 1040 : 	m_dwFlyStartTime = 0;
; 1041 : 	m_dwFlyMoveTime = 0;
; 1042 : 	m_dwFlyAttackMoveEndTime = 0;
; 1043 : 	m_dwFlyAttackEndTime = 0;
; 1044 : 
; 1045 : 	m_Target.Clear();

  0004b	8d 8e 24 1a 00
	00		 lea	 ecx, DWORD PTR [esi+6692]
  00051	89 9e 74 19 00
	00		 mov	 DWORD PTR [esi+6516], ebx
  00057	89 9e 78 19 00
	00		 mov	 DWORD PTR [esi+6520], ebx
  0005d	89 9e 80 19 00
	00		 mov	 DWORD PTR [esi+6528], ebx
  00063	89 9e 84 19 00
	00		 mov	 DWORD PTR [esi+6532], ebx
  00069	ff 15 00 00 00
	00		 call	 DWORD PTR __imp_?Clear@ioHashString@@QAEXXZ

; 1046 : 
; 1047 : 	if( m_dwMapEffectID != -1 )

  0006f	8b 86 64 1b 00
	00		 mov	 eax, DWORD PTR [esi+7012]
  00075	83 f8 ff	 cmp	 eax, -1
  00078	74 10		 je	 SHORT $LN1@ClearState

; 1048 : 	{
; 1049 : 		pOwner->DestroyMapEffect( m_dwMapEffectID );

  0007a	8b 4d 08	 mov	 ecx, DWORD PTR _pOwner$[ebp]
  0007d	50		 push	 eax
  0007e	e8 00 00 00 00	 call	 ?DestroyMapEffect@ioBaseChar@@QAEXK@Z ; ioBaseChar::DestroyMapEffect

; 1050 : 		m_dwMapEffectID = -1;

  00083	83 8e 64 1b 00
	00 ff		 or	 DWORD PTR [esi+7012], -1
$LN1@ClearState:
  0008a	5e		 pop	 esi
  0008b	5b		 pop	 ebx

; 1051 : 	}
; 1052 : 
; 1053 : }

  0008c	5d		 pop	 ebp
  0008d	c2 08 00	 ret	 8
?ClearState@ioDraculaItem@@QAEXPAVioBaseChar@@_N@Z ENDP	; ioDraculaItem::ClearState
_TEXT	ENDS
PUBLIC	?IsFlyCharCollisionSkipState@ioDraculaItem@@QAE_NXZ ; ioDraculaItem::IsFlyCharCollisionSkipState
; Function compile flags: /Ogsp
;	COMDAT ?IsFlyCharCollisionSkipState@ioDraculaItem@@QAE_NXZ
_TEXT	SEGMENT
_value$614832 = -1					; size = 1
_value$614828 = -1					; size = 1
?IsFlyCharCollisionSkipState@ioDraculaItem@@QAE_NXZ PROC ; ioDraculaItem::IsFlyCharCollisionSkipState, COMDAT
; _this$ = ecx

; 1056 : {

  00000	55		 push	 ebp
  00001	8b ec		 mov	 ebp, esp
  00003	51		 push	 ecx
  00004	56		 push	 esi
  00005	8b f1		 mov	 esi, ecx

; 1057 : 	switch( m_FlyState )

  00007	8b 86 68 19 00
	00		 mov	 eax, DWORD PTR [esi+6504]
  0000d	48		 dec	 eax
  0000e	74 39		 je	 SHORT $LN4@IsFlyCharC
  00010	48		 dec	 eax
  00011	75 32		 jne	 SHORT $LN2@IsFlyCharC

; 1061 : 	//case LFS_MOVE:
; 1062 : 	case LFS_DELAY:
; 1063 : 		if( m_CurDirKey != ioUserKeyInput::DKI_NONE || m_bSetUpKey || m_bSetDownKey )

  00013	39 86 bc 19 00
	00		 cmp	 DWORD PTR [esi+6588], eax
  00019	75 2e		 jne	 SHORT $LN4@IsFlyCharC
  0001b	8d 45 ff	 lea	 eax, DWORD PTR _value$614828[ebp]
  0001e	50		 push	 eax
  0001f	8d 8e c4 19 00
	00		 lea	 ecx, DWORD PTR [esi+6596]
  00025	e8 00 00 00 00	 call	 ?DecryptValueToPool@?$CEncrypt@_N@@QAEXPA_N@Z ; CEncrypt<bool>::DecryptValueToPool
  0002a	80 7d ff 00	 cmp	 BYTE PTR _value$614828[ebp], 0
  0002e	75 19		 jne	 SHORT $LN4@IsFlyCharC
  00030	8d 45 ff	 lea	 eax, DWORD PTR _value$614832[ebp]
  00033	50		 push	 eax
  00034	8d 8e f4 19 00
	00		 lea	 ecx, DWORD PTR [esi+6644]
  0003a	e8 00 00 00 00	 call	 ?DecryptValueToPool@?$CEncrypt@_N@@QAEXPA_N@Z ; CEncrypt<bool>::DecryptValueToPool
  0003f	80 7d ff 00	 cmp	 BYTE PTR _value$614832[ebp], 0
  00043	75 04		 jne	 SHORT $LN4@IsFlyCharC
$LN2@IsFlyCharC:

; 1064 : 			return true;
; 1065 : 	}
; 1066 : 
; 1067 : 	return false;

  00045	32 c0		 xor	 al, al
  00047	eb 02		 jmp	 SHORT $LN7@IsFlyCharC
$LN4@IsFlyCharC:

; 1058 : 	{
; 1059 : 	case LFS_START:
; 1060 : 		return true;

  00049	b0 01		 mov	 al, 1
$LN7@IsFlyCharC:
  0004b	5e		 pop	 esi

; 1068 : }

  0004c	c9		 leave
  0004d	c3		 ret	 0
?IsFlyCharCollisionSkipState@ioDraculaItem@@QAE_NXZ ENDP ; ioDraculaItem::IsFlyCharCollisionSkipState
_TEXT	ENDS
PUBLIC	?OnReleased@ioDraculaItem@@UAEXPAVioBaseChar@@@Z ; ioDraculaItem::OnReleased
EXTRN	?OnReleased@ioAttackableItem@@UAEXPAVioBaseChar@@@Z:PROC ; ioAttackableItem::OnReleased
; Function compile flags: /Ogsp
;	COMDAT ?OnReleased@ioDraculaItem@@UAEXPAVioBaseChar@@@Z
_TEXT	SEGMENT
_value$614838 = -4					; size = 4
_pOwner$ = 8						; size = 4
?OnReleased@ioDraculaItem@@UAEXPAVioBaseChar@@@Z PROC	; ioDraculaItem::OnReleased, COMDAT
; _this$ = ecx

; 1079 : {

  00000	55		 push	 ebp
  00001	8b ec		 mov	 ebp, esp
  00003	51		 push	 ecx
  00004	56		 push	 esi

; 1080 : 	ClearState( pOwner );

  00005	6a 00		 push	 0
  00007	ff 75 08	 push	 DWORD PTR _pOwner$[ebp]
  0000a	8b f1		 mov	 esi, ecx
  0000c	e8 00 00 00 00	 call	 ?ClearState@ioDraculaItem@@QAEXPAVioBaseChar@@_N@Z ; ioDraculaItem::ClearState

; 1081 : 	m_TargetSkill.Clear();

  00011	8d 8e 34 1a 00
	00		 lea	 ecx, DWORD PTR [esi+6708]
  00017	ff 15 00 00 00
	00		 call	 DWORD PTR __imp_?Clear@ioHashString@@QAEXXZ

; 1082 : 	m_fCurGauge = 0.0f;

  0001d	0f 57 c0	 xorps	 xmm0, xmm0
  00020	8d 45 fc	 lea	 eax, DWORD PTR _value$614838[ebp]
  00023	50		 push	 eax
  00024	8d 8e 24 1b 00
	00		 lea	 ecx, DWORD PTR [esi+6948]
  0002a	f3 0f 11 45 fc	 movss	 DWORD PTR _value$614838[ebp], xmm0
  0002f	e8 00 00 00 00	 call	 ?EncryptValueToPool@?$CEncrypt@M@@AAEXPBD@Z ; CEncrypt<float>::EncryptValueToPool

; 1083 : 
; 1084 : 	ioAttackableItem::OnReleased( pOwner );

  00034	ff 75 08	 push	 DWORD PTR _pOwner$[ebp]
  00037	8b ce		 mov	 ecx, esi
  00039	e8 00 00 00 00	 call	 ?OnReleased@ioAttackableItem@@UAEXPAVioBaseChar@@@Z ; ioAttackableItem::OnReleased
  0003e	5e		 pop	 esi

; 1085 : }

  0003f	c9		 leave
  00040	c2 04 00	 ret	 4
?OnReleased@ioDraculaItem@@UAEXPAVioBaseChar@@@Z ENDP	; ioDraculaItem::OnReleased
_TEXT	ENDS
PUBLIC	?InitLuciferGauge@ioDraculaItem@@QAEXXZ		; ioDraculaItem::InitLuciferGauge
; Function compile flags: /Ogsp
;	COMDAT ?InitLuciferGauge@ioDraculaItem@@QAEXXZ
_TEXT	SEGMENT
_value$614844 = -4					; size = 4
?InitLuciferGauge@ioDraculaItem@@QAEXXZ PROC		; ioDraculaItem::InitLuciferGauge, COMDAT
; _this$ = ecx

; 1114 : {

  00000	55		 push	 ebp
  00001	8b ec		 mov	 ebp, esp
  00003	51		 push	 ecx

; 1115 : 	m_fCurGauge = 0.0f;

  00004	0f 57 c0	 xorps	 xmm0, xmm0
  00007	8d 45 fc	 lea	 eax, DWORD PTR _value$614844[ebp]
  0000a	50		 push	 eax
  0000b	81 c1 24 1b 00
	00		 add	 ecx, 6948		; 00001b24H
  00011	f3 0f 11 45 fc	 movss	 DWORD PTR _value$614844[ebp], xmm0
  00016	e8 00 00 00 00	 call	 ?EncryptValueToPool@?$CEncrypt@M@@AAEXPBD@Z ; CEncrypt<float>::EncryptValueToPool

; 1116 : }

  0001b	c9		 leave
  0001c	c3		 ret	 0
?InitLuciferGauge@ioDraculaItem@@QAEXXZ ENDP		; ioDraculaItem::InitLuciferGauge
_TEXT	ENDS
EXTRN	?Finalize@ioSpecialStateBase@@UAEXPAVioBaseChar@@W4CharState@@1@Z:PROC ; ioSpecialStateBase::Finalize
; Function compile flags: /Ogsp
;	COMDAT ?Finalize@ioDraculaFlySpecialState@@UAEXPAVioBaseChar@@W4CharState@@1@Z
_TEXT	SEGMENT
_pOwner$ = 8						; size = 4
_eCurrState$ = 12					; size = 1
_eNewState$ = 16					; size = 1
?Finalize@ioDraculaFlySpecialState@@UAEXPAVioBaseChar@@W4CharState@@1@Z PROC ; ioDraculaFlySpecialState::Finalize, COMDAT
; _this$ = ecx

; 1219 : {

  00000	55		 push	 ebp
  00001	8b ec		 mov	 ebp, esp

; 1220 : 	ioSpecialStateBase::Finalize( pOwner, eCurrState, eNewState );

  00003	ff 75 10	 push	 DWORD PTR _eNewState$[ebp]
  00006	ff 75 0c	 push	 DWORD PTR _eCurrState$[ebp]
  00009	ff 75 08	 push	 DWORD PTR _pOwner$[ebp]
  0000c	e8 00 00 00 00	 call	 ?Finalize@ioSpecialStateBase@@UAEXPAVioBaseChar@@W4CharState@@1@Z ; ioSpecialStateBase::Finalize

; 1221 : 
; 1222 : 	ioDraculaItem *pDraculaItem = ToDraculaItem( pOwner->GetPriorityItem( SPT_ATTACK ) );

  00011	8b 4d 08	 mov	 ecx, DWORD PTR _pOwner$[ebp]
  00014	6a 05		 push	 5
  00016	e8 00 00 00 00	 call	 ?GetPriorityItem@ioBaseChar@@QBEPAVioAttackableItem@@W4StatePriorityType@@@Z ; ioBaseChar::GetPriorityItem
  0001b	50		 push	 eax
  0001c	e8 00 00 00 00	 call	 ?ToDraculaItem@@YAPAVioDraculaItem@@PAVioItem@@@Z ; ToDraculaItem
  00021	59		 pop	 ecx

; 1223 : 	if( pDraculaItem )

  00022	85 c0		 test	 eax, eax
  00024	74 0c		 je	 SHORT $LN1@Finalize

; 1224 : 		pDraculaItem->ClearState( pOwner, true );

  00026	6a 01		 push	 1
  00028	ff 75 08	 push	 DWORD PTR _pOwner$[ebp]
  0002b	8b c8		 mov	 ecx, eax
  0002d	e8 00 00 00 00	 call	 ?ClearState@ioDraculaItem@@QAEXPAVioBaseChar@@_N@Z ; ioDraculaItem::ClearState
$LN1@Finalize:

; 1225 : }

  00032	5d		 pop	 ebp
  00033	c2 0c 00	 ret	 12			; 0000000cH
?Finalize@ioDraculaFlySpecialState@@UAEXPAVioBaseChar@@W4CharState@@1@Z ENDP ; ioDraculaFlySpecialState::Finalize
_TEXT	ENDS
PUBLIC	??4?$CEncrypt@M@@QAE_NAAV0@@Z			; CEncrypt<float>::operator=
; Function compile flags: /Ogsp
; File d:\lost saga for developer\youtube\tutorial\source\src\lsclient\encryptvalue.h
;	COMDAT ??4?$CEncrypt@M@@QAE_NAAV0@@Z
_TEXT	SEGMENT
_value$614854 = -4					; size = 4
_value$ = 8						; size = 4
_inValue$ = 8						; size = 4
??4?$CEncrypt@M@@QAE_NAAV0@@Z PROC			; CEncrypt<float>::operator=, COMDAT
; _this$ = ecx

; 3314 : 	 {

  00000	55		 push	 ebp
  00001	8b ec		 mov	 ebp, esp
  00003	51		 push	 ecx
  00004	56		 push	 esi

; 3315 : 		 type value = inValue;

  00005	8d 45 fc	 lea	 eax, DWORD PTR _value$614854[ebp]
  00008	8b f1		 mov	 esi, ecx
  0000a	8b 4d 08	 mov	 ecx, DWORD PTR _inValue$[ebp]
  0000d	50		 push	 eax
  0000e	e8 00 00 00 00	 call	 ?DecryptValueToPool@?$CEncrypt@M@@QAEXPAM@Z ; CEncrypt<float>::DecryptValueToPool
  00013	f3 0f 10 45 fc	 movss	 xmm0, DWORD PTR _value$614854[ebp]

; 3316 : 		 EncryptValueToPool((char*)&value);

  00018	8d 45 08	 lea	 eax, DWORD PTR _value$[ebp]
  0001b	50		 push	 eax
  0001c	8b ce		 mov	 ecx, esi
  0001e	f3 0f 11 45 08	 movss	 DWORD PTR _value$[ebp], xmm0
  00023	e8 00 00 00 00	 call	 ?EncryptValueToPool@?$CEncrypt@M@@AAEXPBD@Z ; CEncrypt<float>::EncryptValueToPool

; 3317 : #ifdef _NOTUSE
; 3318 : 		 m_value = inValue;
; 3319 : 		 Debug();
; 3320 : #endif
; 3321 : 		 return value;

  00028	f3 0f 10 45 08	 movss	 xmm0, DWORD PTR _value$[ebp]
  0002d	0f 2e 05 00 00
	00 00		 ucomiss xmm0, DWORD PTR __real@00000000
  00034	9f		 lahf
  00035	5e		 pop	 esi
  00036	f6 c4 44	 test	 ah, 68			; 00000044H
  00039	7b 04		 jnp	 SHORT $LN3@operator@4
  0003b	b0 01		 mov	 al, 1
  0003d	eb 02		 jmp	 SHORT $LN4@operator@4
$LN3@operator@4:
  0003f	32 c0		 xor	 al, al
$LN4@operator@4:

; 3322 : 	 }

  00041	c9		 leave
  00042	c2 04 00	 ret	 4
??4?$CEncrypt@M@@QAE_NAAV0@@Z ENDP			; CEncrypt<float>::operator=
_TEXT	ENDS
PUBLIC	?_Grow_to@?$vector@VioHashString@@V?$allocator@VioHashString@@@std@@@std@@IBEII@Z ; std::vector<ioHashString,std::allocator<ioHashString> >::_Grow_to
; Function compile flags: /Ogsp
; File c:\program files (x86)\microsoft visual studio 10.0\vc\include\vector
;	COMDAT ?_Grow_to@?$vector@VioHashString@@V?$allocator@VioHashString@@@std@@@std@@IBEII@Z
_TEXT	SEGMENT
__Count$ = 8						; size = 4
?_Grow_to@?$vector@VioHashString@@V?$allocator@VioHashString@@@std@@@std@@IBEII@Z PROC ; std::vector<ioHashString,std::allocator<ioHashString> >::_Grow_to, COMDAT
; _this$ = ecx

; 1274 : 		{	// grow by 50% or at least to _Count

  00000	55		 push	 ebp
  00001	8b ec		 mov	 ebp, esp

; 1275 : 		size_type _Capacity = capacity();

  00003	8b 41 08	 mov	 eax, DWORD PTR [ecx+8]
  00006	2b 01		 sub	 eax, DWORD PTR [ecx]

; 1276 : 
; 1277 : 		_Capacity = max_size() - _Capacity / 2 < _Capacity
; 1278 : 			? 0 : _Capacity + _Capacity / 2;	// try to grow by 50%

  00008	ba ff ff ff 0f	 mov	 edx, 268435455		; 0fffffffH
  0000d	c1 f8 04	 sar	 eax, 4
  00010	8b c8		 mov	 ecx, eax
  00012	d1 e9		 shr	 ecx, 1
  00014	2b d1		 sub	 edx, ecx
  00016	3b d0		 cmp	 edx, eax
  00018	73 04		 jae	 SHORT $LN4@Grow_to
  0001a	33 c0		 xor	 eax, eax
  0001c	eb 02		 jmp	 SHORT $LN5@Grow_to
$LN4@Grow_to:
  0001e	03 c1		 add	 eax, ecx
$LN5@Grow_to:

; 1279 : 		if (_Capacity < _Count)

  00020	3b 45 08	 cmp	 eax, DWORD PTR __Count$[ebp]

; 1280 : 			_Capacity = _Count;

  00023	0f 42 45 08	 cmovb	 eax, DWORD PTR __Count$[ebp]

; 1281 : 		return (_Capacity);
; 1282 : 		}

  00027	5d		 pop	 ebp
  00028	c2 04 00	 ret	 4
?_Grow_to@?$vector@VioHashString@@V?$allocator@VioHashString@@@std@@@std@@IBEII@Z ENDP ; std::vector<ioHashString,std::allocator<ioHashString> >::_Grow_to
_TEXT	ENDS
PUBLIC	??$_Cons_val@V?$allocator@VioHashString@@@std@@VioHashString@@AAV3@@std@@YAXAAV?$allocator@VioHashString@@@0@PAVioHashString@@AAV2@@Z ; std::_Cons_val<std::allocator<ioHashString>,ioHashString,ioHashString &>
; Function compile flags: /Ogsp
; File c:\program files (x86)\microsoft visual studio 10.0\vc\include\xmemory
;	COMDAT ??$_Cons_val@V?$allocator@VioHashString@@@std@@VioHashString@@AAV3@@std@@YAXAAV?$allocator@VioHashString@@@0@PAVioHashString@@AAV2@@Z
_TEXT	SEGMENT
__Alval$ = 8						; size = 4
__Pdest$ = 12						; size = 4
__Src$ = 16						; size = 4
??$_Cons_val@V?$allocator@VioHashString@@@std@@VioHashString@@AAV3@@std@@YAXAAV?$allocator@VioHashString@@@0@PAVioHashString@@AAV2@@Z PROC ; std::_Cons_val<std::allocator<ioHashString>,ioHashString,ioHashString &>, COMDAT

; 279  : 	{	// construct using allocator

  00000	55		 push	 ebp
  00001	8b ec		 mov	 ebp, esp

; 280  : 	_Alval.construct(_Pdest, _STD forward<_Ty2>(_Src));

  00003	ff 75 10	 push	 DWORD PTR __Src$[ebp]
  00006	8b 4d 08	 mov	 ecx, DWORD PTR __Alval$[ebp]
  00009	ff 75 0c	 push	 DWORD PTR __Pdest$[ebp]
  0000c	e8 00 00 00 00	 call	 ??$construct@AAVioHashString@@@?$allocator@VioHashString@@@std@@QAEXPAVioHashString@@AAV2@@Z ; std::allocator<ioHashString>::construct<ioHashString &>

; 281  : 	}

  00011	5d		 pop	 ebp
  00012	c3		 ret	 0
??$_Cons_val@V?$allocator@VioHashString@@@std@@VioHashString@@AAV3@@std@@YAXAAV?$allocator@VioHashString@@@0@PAVioHashString@@AAV2@@Z ENDP ; std::_Cons_val<std::allocator<ioHashString>,ioHashString,ioHashString &>
_TEXT	ENDS
PUBLIC	??0?$vector@VioHashString@@V?$allocator@VioHashString@@@std@@@std@@QAE@XZ ; std::vector<ioHashString,std::allocator<ioHashString> >::vector<ioHashString,std::allocator<ioHashString> >
; Function compile flags: /Ogsp
; File c:\program files (x86)\microsoft visual studio 10.0\vc\include\vector
;	COMDAT ??0?$vector@VioHashString@@V?$allocator@VioHashString@@@std@@@std@@QAE@XZ
_TEXT	SEGMENT
??0?$vector@VioHashString@@V?$allocator@VioHashString@@@std@@@std@@QAE@XZ PROC ; std::vector<ioHashString,std::allocator<ioHashString> >::vector<ioHashString,std::allocator<ioHashString> >, COMDAT
; _this$ = ecx

; 507  : 		{	// construct empty vector

  00000	8b c1		 mov	 eax, ecx
  00002	33 c9		 xor	 ecx, ecx
  00004	89 08		 mov	 DWORD PTR [eax], ecx
  00006	89 48 04	 mov	 DWORD PTR [eax+4], ecx
  00009	89 48 08	 mov	 DWORD PTR [eax+8], ecx

; 508  : 		}

  0000c	c3		 ret	 0
??0?$vector@VioHashString@@V?$allocator@VioHashString@@@std@@@std@@QAE@XZ ENDP ; std::vector<ioHashString,std::allocator<ioHashString> >::vector<ioHashString,std::allocator<ioHashString> >
_TEXT	ENDS
PUBLIC	??0?$CEncrypt@M@@QAE@ABM@Z			; CEncrypt<float>::CEncrypt<float>
;	COMDAT xdata$x
; File d:\lost saga for developer\youtube\tutorial\source\src\lsclient\encryptvalue.h
xdata$x	SEGMENT
__unwindtable$??0?$CEncrypt@M@@QAE@ABM@Z DD 0ffffffffH
	DD	FLAT:__unwindfunclet$??0?$CEncrypt@M@@QAE@ABM@Z$0
__ehfuncinfo$??0?$CEncrypt@M@@QAE@ABM@Z DD 019930522H
	DD	01H
	DD	FLAT:__unwindtable$??0?$CEncrypt@M@@QAE@ABM@Z
	DD	2 DUP(00H)
	DD	2 DUP(00H)
	DD	00H
	DD	01H
; Function compile flags: /Ogsp
xdata$x	ENDS
;	COMDAT ??0?$CEncrypt@M@@QAE@ABM@Z
_TEXT	SEGMENT
_this$ = -16						; size = 4
__$EHRec$ = -12						; size = 12
_value$614906 = 8					; size = 4
_inValue$ = 8						; size = 4
??0?$CEncrypt@M@@QAE@ABM@Z PROC				; CEncrypt<float>::CEncrypt<float>, COMDAT
; _this$ = ecx

; 114  : 	CEncrypt( const type &inValue )        //     

  00000	6a 04		 push	 4
  00002	b8 00 00 00 00	 mov	 eax, __ehhandler$??0?$CEncrypt@M@@QAE@ABM@Z
  00007	e8 00 00 00 00	 call	 __EH_prolog3
  0000c	8b f1		 mov	 esi, ecx
  0000e	89 75 f0	 mov	 DWORD PTR _this$[ebp], esi
  00011	8d 4e 0c	 lea	 ecx, DWORD PTR [esi+12]
  00014	c7 06 00 00 00
	00		 mov	 DWORD PTR [esi], OFFSET ??_7?$CEncrypt@M@@6B@
  0001a	e8 00 00 00 00	 call	 ??0ccddaabb@@QAE@XZ	; ccddaabb::ccddaabb
  0001f	83 65 fc 00	 and	 DWORD PTR __$EHRec$[ebp+8], 0

; 115  : 	{
; 116  : 		Init();

  00023	8b ce		 mov	 ecx, esi
  00025	e8 00 00 00 00	 call	 ?Init@?$CEncrypt@M@@AAEXXZ ; CEncrypt<float>::Init

; 117  : 		*this = inValue;

  0002a	8b 45 08	 mov	 eax, DWORD PTR _inValue$[ebp]
  0002d	f3 0f 10 00	 movss	 xmm0, DWORD PTR [eax]
  00031	8d 45 08	 lea	 eax, DWORD PTR _value$614906[ebp]
  00034	50		 push	 eax
  00035	8b ce		 mov	 ecx, esi
  00037	f3 0f 11 45 08	 movss	 DWORD PTR _value$614906[ebp], xmm0
  0003c	e8 00 00 00 00	 call	 ?EncryptValueToPool@?$CEncrypt@M@@AAEXPBD@Z ; CEncrypt<float>::EncryptValueToPool

; 118  : 	}

  00041	8b c6		 mov	 eax, esi
  00043	e8 00 00 00 00	 call	 __EH_epilog3
  00048	c2 04 00	 ret	 4
_TEXT	ENDS
;	COMDAT text$x
text$x	SEGMENT
__unwindfunclet$??0?$CEncrypt@M@@QAE@ABM@Z$0:
  00000	8b 4d f0	 mov	 ecx, DWORD PTR _this$[ebp]
  00003	83 c1 0c	 add	 ecx, 12			; 0000000cH
  00006	e9 00 00 00 00	 jmp	 ??1ccddaabb@@UAE@XZ	; ccddaabb::~ccddaabb
__ehhandler$??0?$CEncrypt@M@@QAE@ABM@Z:
  0000b	8b 54 24 08	 mov	 edx, DWORD PTR [esp+8]
  0000f	8d 42 0c	 lea	 eax, DWORD PTR [edx+12]
  00012	8b 4a ec	 mov	 ecx, DWORD PTR [edx-20]
  00015	33 c8		 xor	 ecx, eax
  00017	e8 00 00 00 00	 call	 @__security_check_cookie@4
  0001c	b8 00 00 00 00	 mov	 eax, OFFSET __ehfuncinfo$??0?$CEncrypt@M@@QAE@ABM@Z
  00021	e9 00 00 00 00	 jmp	 ___CxxFrameHandler3
text$x	ENDS
??0?$CEncrypt@M@@QAE@ABM@Z ENDP				; CEncrypt<float>::CEncrypt<float>
PUBLIC	??0?$CEncrypt@M@@QAE@ABV0@@Z			; CEncrypt<float>::CEncrypt<float>
;	COMDAT xdata$x
xdata$x	SEGMENT
__unwindtable$??0?$CEncrypt@M@@QAE@ABV0@@Z DD 0ffffffffH
	DD	FLAT:__unwindfunclet$??0?$CEncrypt@M@@QAE@ABV0@@Z$0
__ehfuncinfo$??0?$CEncrypt@M@@QAE@ABV0@@Z DD 019930522H
	DD	01H
	DD	FLAT:__unwindtable$??0?$CEncrypt@M@@QAE@ABV0@@Z
	DD	2 DUP(00H)
	DD	2 DUP(00H)
	DD	00H
	DD	01H
; Function compile flags: /Ogsp
xdata$x	ENDS
;	COMDAT ??0?$CEncrypt@M@@QAE@ABV0@@Z
_TEXT	SEGMENT
_this$ = -16						; size = 4
__$EHRec$ = -12						; size = 12
_value$614925 = 8					; size = 4
_value$614920 = 8					; size = 4
_inValue$ = 8						; size = 4
??0?$CEncrypt@M@@QAE@ABV0@@Z PROC			; CEncrypt<float>::CEncrypt<float>, COMDAT
; _this$ = ecx

; 120  : 	CEncrypt( const CEncrypt<type> &inValue )   //     

  00000	6a 04		 push	 4
  00002	b8 00 00 00 00	 mov	 eax, __ehhandler$??0?$CEncrypt@M@@QAE@ABV0@@Z
  00007	e8 00 00 00 00	 call	 __EH_prolog3
  0000c	8b f1		 mov	 esi, ecx
  0000e	89 75 f0	 mov	 DWORD PTR _this$[ebp], esi
  00011	8d 4e 0c	 lea	 ecx, DWORD PTR [esi+12]
  00014	c7 06 00 00 00
	00		 mov	 DWORD PTR [esi], OFFSET ??_7?$CEncrypt@M@@6B@
  0001a	e8 00 00 00 00	 call	 ??0ccddaabb@@QAE@XZ	; ccddaabb::ccddaabb
  0001f	83 65 fc 00	 and	 DWORD PTR __$EHRec$[ebp+8], 0

; 121  : 	{
; 122  : 		Init();

  00023	8b ce		 mov	 ecx, esi
  00025	e8 00 00 00 00	 call	 ?Init@?$CEncrypt@M@@AAEXXZ ; CEncrypt<float>::Init

; 123  : 		*this = inValue;

  0002a	8b 4d 08	 mov	 ecx, DWORD PTR _inValue$[ebp]
  0002d	8d 45 08	 lea	 eax, DWORD PTR _value$614920[ebp]
  00030	50		 push	 eax
  00031	e8 00 00 00 00	 call	 ?DecryptValueToPool@?$CEncrypt@M@@QAEXPAM@Z ; CEncrypt<float>::DecryptValueToPool
  00036	f3 0f 10 45 08	 movss	 xmm0, DWORD PTR _value$614920[ebp]
  0003b	8d 45 08	 lea	 eax, DWORD PTR _value$614925[ebp]
  0003e	50		 push	 eax
  0003f	8b ce		 mov	 ecx, esi
  00041	f3 0f 11 45 08	 movss	 DWORD PTR _value$614925[ebp], xmm0
  00046	e8 00 00 00 00	 call	 ?EncryptValueToPool@?$CEncrypt@M@@AAEXPBD@Z ; CEncrypt<float>::EncryptValueToPool

; 124  : 	}

  0004b	8b c6		 mov	 eax, esi
  0004d	e8 00 00 00 00	 call	 __EH_epilog3
  00052	c2 04 00	 ret	 4
_TEXT	ENDS
;	COMDAT text$x
text$x	SEGMENT
__unwindfunclet$??0?$CEncrypt@M@@QAE@ABV0@@Z$0:
  00000	8b 4d f0	 mov	 ecx, DWORD PTR _this$[ebp]
  00003	83 c1 0c	 add	 ecx, 12			; 0000000cH
  00006	e9 00 00 00 00	 jmp	 ??1ccddaabb@@UAE@XZ	; ccddaabb::~ccddaabb
__ehhandler$??0?$CEncrypt@M@@QAE@ABV0@@Z:
  0000b	8b 54 24 08	 mov	 edx, DWORD PTR [esp+8]
  0000f	8d 42 0c	 lea	 eax, DWORD PTR [edx+12]
  00012	8b 4a ec	 mov	 ecx, DWORD PTR [edx-20]
  00015	33 c8		 xor	 ecx, eax
  00017	e8 00 00 00 00	 call	 @__security_check_cookie@4
  0001c	b8 00 00 00 00	 mov	 eax, OFFSET __ehfuncinfo$??0?$CEncrypt@M@@QAE@ABV0@@Z
  00021	e9 00 00 00 00	 jmp	 ___CxxFrameHandler3
text$x	ENDS
??0?$CEncrypt@M@@QAE@ABV0@@Z ENDP			; CEncrypt<float>::CEncrypt<float>
PUBLIC	?_Buy@?$vector@VioHashString@@V?$allocator@VioHashString@@@std@@@std@@IAE_NI@Z ; std::vector<ioHashString,std::allocator<ioHashString> >::_Buy
; Function compile flags: /Ogsp
; File c:\program files (x86)\microsoft visual studio 10.0\vc\include\vector
;	COMDAT ?_Buy@?$vector@VioHashString@@V?$allocator@VioHashString@@@std@@@std@@IAE_NI@Z
_TEXT	SEGMENT
__Capacity$ = 8						; size = 4
?_Buy@?$vector@VioHashString@@V?$allocator@VioHashString@@@std@@@std@@IAE_NI@Z PROC ; std::vector<ioHashString,std::allocator<ioHashString> >::_Buy, COMDAT
; _this$ = ecx

; 1250 : 		{	// allocate array with _Capacity elements

  00000	55		 push	 ebp
  00001	8b ec		 mov	 ebp, esp
  00003	56		 push	 esi

; 1251 : 		this->_Myfirst = 0;

  00004	33 c0		 xor	 eax, eax
  00006	57		 push	 edi

; 1252 : 		this->_Mylast = 0;
; 1253 : 		this->_Myend = 0;
; 1254 : 
; 1255 : 		if (_Capacity == 0)

  00007	8b 7d 08	 mov	 edi, DWORD PTR __Capacity$[ebp]
  0000a	8b f1		 mov	 esi, ecx
  0000c	89 06		 mov	 DWORD PTR [esi], eax
  0000e	89 46 04	 mov	 DWORD PTR [esi+4], eax
  00011	89 46 08	 mov	 DWORD PTR [esi+8], eax
  00014	3b f8		 cmp	 edi, eax
  00016	75 04		 jne	 SHORT $LN4@Buy

; 1256 : 			return (false);

  00018	32 c0		 xor	 al, al
  0001a	eb 2b		 jmp	 SHORT $LN5@Buy
$LN4@Buy:

; 1257 : 		else if (max_size() < _Capacity)

  0001c	81 ff ff ff ff
	0f		 cmp	 edi, 268435455		; 0fffffffH
  00022	76 0b		 jbe	 SHORT $LN2@Buy

; 1258 : 			_Xlen();	// result too long

  00024	68 00 00 00 00	 push	 OFFSET ??_C@_0BD@OLBABOEK@vector?$DMT?$DO?5too?5long?$AA@
  00029	ff 15 00 00 00
	00		 call	 DWORD PTR __imp_?_Xlength_error@std@@YAXPBD@Z
$LN19@Buy:
$LN2@Buy:

; 1259 : 		else
; 1260 : 			{	// nonempty array, allocate storage
; 1261 : 			this->_Myfirst = this->_Alval.allocate(_Capacity);

  0002f	50		 push	 eax
  00030	57		 push	 edi
  00031	e8 00 00 00 00	 call	 ??$_Allocate@VioHashString@@@std@@YAPAVioHashString@@IPAV1@@Z ; std::_Allocate<ioHashString>

; 1262 : 			this->_Mylast = this->_Myfirst;
; 1263 : 			this->_Myend = this->_Myfirst + _Capacity;

  00036	c1 e7 04	 shl	 edi, 4
  00039	03 f8		 add	 edi, eax
  0003b	59		 pop	 ecx
  0003c	89 06		 mov	 DWORD PTR [esi], eax
  0003e	89 46 04	 mov	 DWORD PTR [esi+4], eax
  00041	59		 pop	 ecx
  00042	89 7e 08	 mov	 DWORD PTR [esi+8], edi

; 1264 : 			}
; 1265 : 		return (true);

  00045	b0 01		 mov	 al, 1
$LN5@Buy:
  00047	5f		 pop	 edi
  00048	5e		 pop	 esi

; 1266 : 		}

  00049	5d		 pop	 ebp
  0004a	c2 04 00	 ret	 4
$LN18@Buy:
?_Buy@?$vector@VioHashString@@V?$allocator@VioHashString@@@std@@@std@@IAE_NI@Z ENDP ; std::vector<ioHashString,std::allocator<ioHashString> >::_Buy
_TEXT	ENDS
PUBLIC	??9?$_Vector_const_iterator@V?$_Vector_val@VioHashString@@V?$allocator@VioHashString@@@std@@@std@@@std@@QBE_NABV01@@Z ; std::_Vector_const_iterator<std::_Vector_val<ioHashString,std::allocator<ioHashString> > >::operator!=
; Function compile flags: /Ogsp
;	COMDAT ??9?$_Vector_const_iterator@V?$_Vector_val@VioHashString@@V?$allocator@VioHashString@@@std@@@std@@@std@@QBE_NABV01@@Z
_TEXT	SEGMENT
__Right$ = 8						; size = 4
??9?$_Vector_const_iterator@V?$_Vector_val@VioHashString@@V?$allocator@VioHashString@@@std@@@std@@@std@@QBE_NABV01@@Z PROC ; std::_Vector_const_iterator<std::_Vector_val<ioHashString,std::allocator<ioHashString> > >::operator!=, COMDAT
; _this$ = ecx

; 207  : 		{	// test for iterator inequality

  00000	55		 push	 ebp
  00001	8b ec		 mov	 ebp, esp

; 208  : 		return (!(*this == _Right));

  00003	8b 01		 mov	 eax, DWORD PTR [ecx]
  00005	8b 55 08	 mov	 edx, DWORD PTR __Right$[ebp]
  00008	33 c9		 xor	 ecx, ecx
  0000a	3b 02		 cmp	 eax, DWORD PTR [edx]
  0000c	0f 95 c0	 setne	 al

; 209  : 		}

  0000f	5d		 pop	 ebp
  00010	c2 04 00	 ret	 4
??9?$_Vector_const_iterator@V?$_Vector_val@VioHashString@@V?$allocator@VioHashString@@@std@@@std@@@std@@QBE_NABV01@@Z ENDP ; std::_Vector_const_iterator<std::_Vector_val<ioHashString,std::allocator<ioHashString> > >::operator!=
_TEXT	ENDS
PUBLIC	??$_Move@PAVioHashString@@PAV1@@std@@YAPAVioHashString@@PAV1@00@Z ; std::_Move<ioHashString *,ioHashString *>
; Function compile flags: /Ogsp
; File c:\program files (x86)\microsoft visual studio 10.0\vc\include\xutility
;	COMDAT ??$_Move@PAVioHashString@@PAV1@@std@@YAPAVioHashString@@PAV1@00@Z
_TEXT	SEGMENT
__Cat$614975 = -4					; size = 1
__First$ = 8						; size = 4
__Last$ = 12						; size = 4
__Dest$ = 16						; size = 4
??$_Move@PAVioHashString@@PAV1@@std@@YAPAVioHashString@@PAV1@00@Z PROC ; std::_Move<ioHashString *,ioHashString *>, COMDAT

; 2533 : 	{	// move [_First, _Last) to [_Dest, ...), unchecked

  00000	55		 push	 ebp
  00001	8b ec		 mov	 ebp, esp
  00003	51		 push	 ecx

; 2534 : 	return (_Move(_First, _Last,
; 2535 : 		_Dest, _Ptr_cat(_First, _Dest)));

  00004	ff 75 fc	 push	 DWORD PTR __Cat$614975[ebp]
  00007	ff 75 10	 push	 DWORD PTR __Dest$[ebp]
  0000a	ff 75 0c	 push	 DWORD PTR __Last$[ebp]
  0000d	ff 75 08	 push	 DWORD PTR __First$[ebp]
  00010	e8 00 00 00 00	 call	 ??$_Move@PAVioHashString@@PAV1@@std@@YAPAVioHashString@@PAV1@00U_Nonscalar_ptr_iterator_tag@0@@Z ; std::_Move<ioHashString *,ioHashString *>
  00015	83 c4 10	 add	 esp, 16			; 00000010H

; 2536 : 	}

  00018	c9		 leave
  00019	c3		 ret	 0
??$_Move@PAVioHashString@@PAV1@@std@@YAPAVioHashString@@PAV1@00@Z ENDP ; std::_Move<ioHashString *,ioHashString *>
_TEXT	ENDS
PUBLIC	?destroy@?$allocator@VioHashString@@@std@@QAEXPAVioHashString@@@Z ; std::allocator<ioHashString>::destroy
; Function compile flags: /Ogsp
; File c:\program files (x86)\microsoft visual studio 10.0\vc\include\xmemory
;	COMDAT ?destroy@?$allocator@VioHashString@@@std@@QAEXPAVioHashString@@@Z
_TEXT	SEGMENT
__Ptr$ = 8						; size = 4
?destroy@?$allocator@VioHashString@@@std@@QAEXPAVioHashString@@@Z PROC ; std::allocator<ioHashString>::destroy, COMDAT
; _this$ = ecx

; 212  : 		{	// destroy object at _Ptr

  00000	55		 push	 ebp
  00001	8b ec		 mov	 ebp, esp

; 213  : 		_Destroy(_Ptr);

  00003	8b 4d 08	 mov	 ecx, DWORD PTR __Ptr$[ebp]
  00006	ff 15 00 00 00
	00		 call	 DWORD PTR __imp_??1ioHashString@@QAE@XZ

; 214  : 		}

  0000c	5d		 pop	 ebp
  0000d	c2 04 00	 ret	 4
?destroy@?$allocator@VioHashString@@@std@@QAEXPAVioHashString@@@Z ENDP ; std::allocator<ioHashString>::destroy
_TEXT	ENDS
PUBLIC	??$_Cons_val@V?$allocator@VioHashString@@@std@@VioHashString@@ABV3@@std@@YAXAAV?$allocator@VioHashString@@@0@PAVioHashString@@ABV2@@Z ; std::_Cons_val<std::allocator<ioHashString>,ioHashString,ioHashString const &>
; Function compile flags: /Ogsp
;	COMDAT ??$_Cons_val@V?$allocator@VioHashString@@@std@@VioHashString@@ABV3@@std@@YAXAAV?$allocator@VioHashString@@@0@PAVioHashString@@ABV2@@Z
_TEXT	SEGMENT
__Alval$ = 8						; size = 4
__Pdest$ = 12						; size = 4
__Src$ = 16						; size = 4
??$_Cons_val@V?$allocator@VioHashString@@@std@@VioHashString@@ABV3@@std@@YAXAAV?$allocator@VioHashString@@@0@PAVioHashString@@ABV2@@Z PROC ; std::_Cons_val<std::allocator<ioHashString>,ioHashString,ioHashString const &>, COMDAT

; 279  : 	{	// construct using allocator

  00000	55		 push	 ebp
  00001	8b ec		 mov	 ebp, esp

; 280  : 	_Alval.construct(_Pdest, _STD forward<_Ty2>(_Src));

  00003	ff 75 10	 push	 DWORD PTR __Src$[ebp]
  00006	ff 75 0c	 push	 DWORD PTR __Pdest$[ebp]
  00009	e8 00 00 00 00	 call	 ??$_Construct@VioHashString@@ABV1@@std@@YAXPAVioHashString@@ABV1@@Z ; std::_Construct<ioHashString,ioHashString const &>
  0000e	59		 pop	 ecx
  0000f	59		 pop	 ecx

; 281  : 	}

  00010	5d		 pop	 ebp
  00011	c3		 ret	 0
??$_Cons_val@V?$allocator@VioHashString@@@std@@VioHashString@@ABV3@@std@@YAXAAV?$allocator@VioHashString@@@0@PAVioHashString@@ABV2@@Z ENDP ; std::_Cons_val<std::allocator<ioHashString>,ioHashString,ioHashString const &>
_TEXT	ENDS
PUBLIC	_iCurCombo$GSCopy$
PUBLIC	?SetNormalAttack@ioDraculaItem@@UAEXPAVioBaseChar@@H@Z ; ioDraculaItem::SetNormalAttack
EXTRN	?SetNormalAttack@ioAttackableItem@@UAEXPAVioBaseChar@@H@Z:PROC ; ioAttackableItem::SetNormalAttack
EXTRN	?StopAutoTargetTracking@ioBaseChar@@QAEXXZ:PROC	; ioBaseChar::StopAutoTargetTracking
EXTRN	?SetAutoTargetTrackingEndTime@ioBaseChar@@QAEXK@Z:PROC ; ioBaseChar::SetAutoTargetTrackingEndTime
EXTRN	__imp_?SetActionAni@ioEntityGroup@@QAE_NHMMMMMM_N0@Z:PROC
EXTRN	__imp_?GetAnimationFullTime@ioEntityGroup@@QAEMH@Z:PROC
EXTRN	__imp_?GetAnimationIdx@ioEntityGroup@@QAEHABVioHashString@@@Z:PROC
EXTRN	__ftol2:PROC
;	COMDAT xdata$x
; File d:\lost saga for developer\youtube\tutorial\source\src\lsclient\stringprotect.h
xdata$x	SEGMENT
__unwindtable$?SetNormalAttack@ioDraculaItem@@UAEXPAVioBaseChar@@H@Z DD 0ffffffffH
	DD	FLAT:__unwindfunclet$?SetNormalAttack@ioDraculaItem@@UAEXPAVioBaseChar@@H@Z$0
__ehfuncinfo$?SetNormalAttack@ioDraculaItem@@UAEXPAVioBaseChar@@H@Z DD 019930522H
	DD	01H
	DD	FLAT:__unwindtable$?SetNormalAttack@ioDraculaItem@@UAEXPAVioBaseChar@@H@Z
	DD	2 DUP(00H)
	DD	2 DUP(00H)
	DD	00H
	DD	01H
; Function compile flags: /Ogsp
; File d:\lost saga for developer\youtube\tutorial\source\src\lsclient\iodraculaitem.cpp
xdata$x	ENDS
;	COMDAT ?SetNormalAttack@ioDraculaItem@@UAEXPAVioBaseChar@@H@Z
_TEXT	SEGMENT
$T615183 = -76						; size = 16
_iCurCombo$GSCopy$ = -60				; size = 4
_iAniID$607922 = -56					; size = 4
tv1225 = -52						; size = 4
tv1222 = -52						; size = 4
tv1220 = -52						; size = 4
_pGrp$607919 = -48					; size = 4
tv1248 = -44						; size = 4
tv1243 = -44						; size = 4
tv1236 = -44						; size = 4
tv1218 = -44						; size = 4
tv1216 = -44						; size = 4
tv1191 = -44						; size = 4
$T615182 = -44						; size = 4
$T615053 = -44						; size = 4
tv1183 = -40						; size = 4
_value$615040 = -40					; size = 4
_value$615010 = -40					; size = 4
_value$615006 = -40					; size = 4
_value$615002 = -40					; size = 4
_fTimeRate$607923 = -40					; size = 4
_value$615064 = -33					; size = 1
_value$615018 = -33					; size = 1
_value$615014 = -33					; size = 1
_szEncEventType$615083 = -32				; size = 11
__$EHRec$ = -12						; size = 12
_pOwner$ = 8						; size = 4
_iCurCombo$ = 12					; size = 4
?SetNormalAttack@ioDraculaItem@@UAEXPAVioBaseChar@@H@Z PROC ; ioDraculaItem::SetNormalAttack, COMDAT
; _this$ = ecx

; 158  : {

  00000	6a 40		 push	 64			; 00000040H
  00002	b8 00 00 00 00	 mov	 eax, __ehhandler$?SetNormalAttack@ioDraculaItem@@UAEXPAVioBaseChar@@H@Z
  00007	e8 00 00 00 00	 call	 __EH_prolog3_GS
  0000c	8b 7d 08	 mov	 edi, DWORD PTR _pOwner$[ebp]
  0000f	8b 5d 0c	 mov	 ebx, DWORD PTR _iCurCombo$[ebp]
  00012	8b f1		 mov	 esi, ecx

; 191  : 	}
; 192  : 	else
; 193  : 	{
; 194  : 		ioEntityGroup *pGrp = pOwner->GetGroup();

  00014	89 5d c4	 mov	 DWORD PTR _iCurCombo$GSCopy$[ebp], ebx
  00017	85 ff		 test	 edi, edi
  00019	0f 84 22 03 00
	00		 je	 $LN1@SetNormalA

; 159  : 	if( !pOwner ) return;
; 160  : 
; 161  : 	m_fCurChargeRate = 0.0f;

  0001f	0f 57 c0	 xorps	 xmm0, xmm0
  00022	8d 45 d8	 lea	 eax, DWORD PTR _value$615002[ebp]
  00025	50		 push	 eax
  00026	8d 8e 8c 0f 00
	00		 lea	 ecx, DWORD PTR [esi+3980]
  0002c	f3 0f 11 45 d8	 movss	 DWORD PTR _value$615002[ebp], xmm0
  00031	e8 00 00 00 00	 call	 ?EncryptValueToPool@?$CEncrypt@M@@AAEXPBD@Z ; CEncrypt<float>::EncryptValueToPool

; 162  : 	m_fCurChargeRateForSkill = 0.0f;

  00036	0f 57 c0	 xorps	 xmm0, xmm0
  00039	8d 45 d8	 lea	 eax, DWORD PTR _value$615006[ebp]
  0003c	50		 push	 eax
  0003d	8d 8e bc 0f 00
	00		 lea	 ecx, DWORD PTR [esi+4028]
  00043	f3 0f 11 45 d8	 movss	 DWORD PTR _value$615006[ebp], xmm0
  00048	e8 00 00 00 00	 call	 ?EncryptValueToPool@?$CEncrypt@M@@AAEXPBD@Z ; CEncrypt<float>::EncryptValueToPool

; 163  : 
; 164  : 	m_dwKeyReserveTime = 0;
; 165  : 
; 166  : 	m_iSkillInput = -1;
; 167  : 	m_bEnableDefenseState = false;
; 168  : 	m_bEnableAttackState = false;
; 169  : 	m_bEnableJumpState = false;
; 170  : 
; 171  : 	m_fFlyCurRange = 0.0f;

  0004d	0f 57 c0	 xorps	 xmm0, xmm0
  00050	83 a6 f8 0e 00
	00 00		 and	 DWORD PTR [esi+3832], 0
  00057	83 8e fc 0e 00
	00 ff		 or	 DWORD PTR [esi+3836], -1
  0005e	8d 45 d8	 lea	 eax, DWORD PTR _value$615010[ebp]
  00061	50		 push	 eax
  00062	8d 8e 8c 19 00
	00		 lea	 ecx, DWORD PTR [esi+6540]
  00068	66 c7 86 00 0f
	00 00 00 00	 mov	 WORD PTR [esi+3840], 0
  00071	c6 86 02 0f 00
	00 00		 mov	 BYTE PTR [esi+3842], 0
  00078	f3 0f 11 45 d8	 movss	 DWORD PTR _value$615010[ebp], xmm0
  0007d	e8 00 00 00 00	 call	 ?EncryptValueToPool@?$CEncrypt@M@@AAEXPBD@Z ; CEncrypt<float>::EncryptValueToPool

; 172  : 
; 173  : 	m_CurDirKey = ioUserKeyInput::DKI_NONE;

  00082	83 a6 bc 19 00
	00 00		 and	 DWORD PTR [esi+6588], 0

; 174  : 
; 175  : 	m_bSetUpKey = false;

  00089	8d 45 df	 lea	 eax, DWORD PTR _value$615014[ebp]
  0008c	50		 push	 eax
  0008d	8d 8e c4 19 00
	00		 lea	 ecx, DWORD PTR [esi+6596]
  00093	c6 45 df 00	 mov	 BYTE PTR _value$615014[ebp], 0
  00097	e8 00 00 00 00	 call	 ?EncryptValueToPool@?$CEncrypt@_N@@AAEXPBD@Z ; CEncrypt<bool>::EncryptValueToPool

; 176  : 	m_bSetDownKey = false;

  0009c	8d 45 df	 lea	 eax, DWORD PTR _value$615018[ebp]
  0009f	50		 push	 eax
  000a0	8d 8e f4 19 00
	00		 lea	 ecx, DWORD PTR [esi+6644]
  000a6	c6 45 df 00	 mov	 BYTE PTR _value$615018[ebp], 0
  000aa	e8 00 00 00 00	 call	 ?EncryptValueToPool@?$CEncrypt@_N@@AAEXPBD@Z ; CEncrypt<bool>::EncryptValueToPool

; 177  : 
; 178  : 	ClearState( pOwner );

  000af	6a 00		 push	 0
  000b1	57		 push	 edi
  000b2	8b ce		 mov	 ecx, esi
  000b4	e8 00 00 00 00	 call	 ?ClearState@ioDraculaItem@@QAEXPAVioBaseChar@@_N@Z ; ioDraculaItem::ClearState

; 179  : 	m_TargetSkill.Clear();

  000b9	8d 8e 34 1a 00
	00		 lea	 ecx, DWORD PTR [esi+6708]
  000bf	ff 15 00 00 00
	00		 call	 DWORD PTR __imp_?Clear@ioHashString@@QAEXXZ

; 180  : 
; 181  : 	int iComboCnt = GetMaxCombo();

  000c5	8b 06		 mov	 eax, DWORD PTR [esi]
  000c7	8b ce		 mov	 ecx, esi
  000c9	ff 90 2c 02 00
	00		 call	 DWORD PTR [eax+556]

; 182  : 	if( !COMPARE( iCurCombo, 0, iComboCnt ) )

  000cf	85 db		 test	 ebx, ebx
  000d1	0f 88 44 02 00
	00		 js	 $LN4@SetNormalA
  000d7	3b d8		 cmp	 ebx, eax
  000d9	0f 8d 3c 02 00
	00		 jge	 $LN4@SetNormalA

; 191  : 	}
; 192  : 	else
; 193  : 	{
; 194  : 		ioEntityGroup *pGrp = pOwner->GetGroup();

  000df	8b 4f 04	 mov	 ecx, DWORD PTR [edi+4]
  000e2	89 4d d0	 mov	 DWORD PTR _pGrp$607919[ebp], ecx

; 195  : 		pGrp->ClearAllLoopAni( FLOAT100, true );

  000e5	b8 64 00 00 00	 mov	 eax, 100		; 00000064H
  000ea	33 db		 xor	 ebx, ebx
  000ec	43		 inc	 ebx
  000ed	89 45 d4	 mov	 DWORD PTR tv1248[ebp], eax
  000f0	db 45 d4	 fild	 DWORD PTR tv1248[ebp]
  000f3	53		 push	 ebx
  000f4	85 c0		 test	 eax, eax
  000f6	79 06		 jns	 SHORT $LN155@SetNormalA
  000f8	d8 05 00 00 00
	00		 fadd	 DWORD PTR __real@4f800000
$LN155@SetNormalA:
  000fe	51		 push	 ecx
  000ff	d9 1c 24	 fstp	 DWORD PTR [esp]
  00102	ff 15 00 00 00
	00		 call	 DWORD PTR __imp_?ClearAllLoopAni@ioEntityGroup@@QAEXM_N@Z

; 196  : 		pGrp->ClearAllActionAni( FLOAT100, true );

  00108	b8 64 00 00 00	 mov	 eax, 100		; 00000064H
  0010d	89 45 d4	 mov	 DWORD PTR tv1243[ebp], eax
  00110	db 45 d4	 fild	 DWORD PTR tv1243[ebp]
  00113	53		 push	 ebx
  00114	85 c0		 test	 eax, eax
  00116	79 06		 jns	 SHORT $LN156@SetNormalA
  00118	d8 05 00 00 00
	00		 fadd	 DWORD PTR __real@4f800000
$LN156@SetNormalA:
  0011e	51		 push	 ecx
  0011f	8b 4d d0	 mov	 ecx, DWORD PTR _pGrp$607919[ebp]
  00122	d9 1c 24	 fstp	 DWORD PTR [esp]
  00125	ff 15 00 00 00
	00		 call	 DWORD PTR __imp_?ClearAllActionAni@ioEntityGroup@@QAEXM_N@Z

; 197  : 
; 198  : 		int iAniID = pGrp->GetAnimationIdx( m_AttackReadyAniList[iCurCombo] );

  0012b	8b 45 c4	 mov	 eax, DWORD PTR _iCurCombo$GSCopy$[ebp]
  0012e	8b 4d d0	 mov	 ecx, DWORD PTR _pGrp$607919[ebp]
  00131	c1 e0 04	 shl	 eax, 4
  00134	03 86 54 19 00
	00		 add	 eax, DWORD PTR [esi+6484]
  0013a	50		 push	 eax
  0013b	ff 15 00 00 00
	00		 call	 DWORD PTR __imp_?GetAnimationIdx@ioEntityGroup@@QAEHABVioHashString@@@Z
  00141	89 45 c8	 mov	 DWORD PTR _iAniID$607922[ebp], eax

; 199  : 		float fTimeRate = (float)m_dwChargeTime / pGrp->GetAnimationFullTime( iAniID );

  00144	8d 45 d8	 lea	 eax, DWORD PTR _value$615040[ebp]
  00147	50		 push	 eax
  00148	8d 8e b0 18 00
	00		 lea	 ecx, DWORD PTR [esi+6320]
  0014e	e8 00 00 00 00	 call	 ?DecryptValueToPool@?$CEncrypt@K@@QAEXPAK@Z ; CEncrypt<unsigned long>::DecryptValueToPool
  00153	db 45 d8	 fild	 DWORD PTR _value$615040[ebp]
  00156	8b 45 d8	 mov	 eax, DWORD PTR _value$615040[ebp]
  00159	85 c0		 test	 eax, eax
  0015b	79 06		 jns	 SHORT $LN157@SetNormalA
  0015d	d8 05 00 00 00
	00		 fadd	 DWORD PTR __real@4f800000
$LN157@SetNormalA:
  00163	ff 75 c8	 push	 DWORD PTR _iAniID$607922[ebp]
  00166	d9 5d d8	 fstp	 DWORD PTR tv1183[ebp]
  00169	8b 4d d0	 mov	 ecx, DWORD PTR _pGrp$607919[ebp]
  0016c	ff 15 00 00 00
	00		 call	 DWORD PTR __imp_?GetAnimationFullTime@ioEntityGroup@@QAEMH@Z
  00172	d8 7d d8	 fdivr	 DWORD PTR tv1183[ebp]
  00175	d9 5d d8	 fstp	 DWORD PTR _fTimeRate$607923[ebp]

; 200  : 		pGrp->SetActionAni( iAniID, FLOAT100, FLOAT100, FLOAT1, FLOAT1/fTimeRate, 0.0f, 0.0f, true );

  00178	b8 01 00 00 00	 mov	 eax, 1
  0017d	8b c8		 mov	 ecx, eax
  0017f	b8 01 00 00 00	 mov	 eax, 1
  00184	8b d0		 mov	 edx, eax
  00186	b8 64 00 00 00	 mov	 eax, 100		; 00000064H
  0018b	89 45 d4	 mov	 DWORD PTR $T615053[ebp], eax
  0018e	b8 64 00 00 00	 mov	 eax, 100		; 00000064H
  00193	0f 57 c0	 xorps	 xmm0, xmm0
  00196	53		 push	 ebx
  00197	53		 push	 ebx
  00198	83 ec 18	 sub	 esp, 24			; 00000018H
  0019b	89 4d cc	 mov	 DWORD PTR tv1225[ebp], ecx
  0019e	db 45 cc	 fild	 DWORD PTR tv1225[ebp]
  001a1	f3 0f 11 44 24
	14		 movss	 DWORD PTR [esp+20], xmm0
  001a7	f3 0f 11 44 24
	10		 movss	 DWORD PTR [esp+16], xmm0
  001ad	85 c9		 test	 ecx, ecx
  001af	79 06		 jns	 SHORT $LN158@SetNormalA
  001b1	d8 05 00 00 00
	00		 fadd	 DWORD PTR __real@4f800000
$LN158@SetNormalA:
  001b7	d8 75 d8	 fdiv	 DWORD PTR _fTimeRate$607923[ebp]
  001ba	d9 5d cc	 fstp	 DWORD PTR tv1222[ebp]
  001bd	d9 45 cc	 fld	 DWORD PTR tv1222[ebp]
  001c0	d9 5c 24 0c	 fstp	 DWORD PTR [esp+12]
  001c4	89 55 cc	 mov	 DWORD PTR tv1220[ebp], edx
  001c7	db 45 cc	 fild	 DWORD PTR tv1220[ebp]
  001ca	85 d2		 test	 edx, edx
  001cc	79 06		 jns	 SHORT $LN159@SetNormalA
  001ce	d8 05 00 00 00
	00		 fadd	 DWORD PTR __real@4f800000
$LN159@SetNormalA:
  001d4	8b 4d d4	 mov	 ecx, DWORD PTR $T615053[ebp]
  001d7	d9 5c 24 08	 fstp	 DWORD PTR [esp+8]
  001db	db 45 d4	 fild	 DWORD PTR $T615053[ebp]
  001de	85 c9		 test	 ecx, ecx
  001e0	79 06		 jns	 SHORT $LN160@SetNormalA
  001e2	d8 05 00 00 00
	00		 fadd	 DWORD PTR __real@4f800000
$LN160@SetNormalA:
  001e8	89 45 d4	 mov	 DWORD PTR tv1216[ebp], eax
  001eb	d9 5c 24 04	 fstp	 DWORD PTR [esp+4]
  001ef	db 45 d4	 fild	 DWORD PTR tv1216[ebp]
  001f2	85 c0		 test	 eax, eax
  001f4	79 06		 jns	 SHORT $LN161@SetNormalA
  001f6	d8 05 00 00 00
	00		 fadd	 DWORD PTR __real@4f800000
$LN161@SetNormalA:
  001fc	8b 4d d0	 mov	 ecx, DWORD PTR _pGrp$607919[ebp]
  001ff	d9 1c 24	 fstp	 DWORD PTR [esp]
  00202	ff 75 c8	 push	 DWORD PTR _iAniID$607922[ebp]
  00205	ff 15 00 00 00
	00		 call	 DWORD PTR __imp_?SetActionAni@ioEntityGroup@@QAE_NHMMMMMM_N0@Z

; 201  : 
; 202  : 		m_ChargeState = CS_CHARGING;

  0020b	89 9e 64 19 00
	00		 mov	 DWORD PTR [esi+6500], ebx

; 203  : 		m_dwAttackStartTime = FRAMEGETTIME();

  00211	ff 15 00 00 00
	00		 call	 DWORD PTR __imp_?GetSingleton@ioFrameTimer@@SAAAV1@XZ
  00217	8b c8		 mov	 ecx, eax
  00219	ff 15 00 00 00
	00		 call	 DWORD PTR __imp_?GetLoopSec@ioFrameTimer@@QBEKXZ
  0021f	89 86 6c 19 00
	00		 mov	 DWORD PTR [esi+6508], eax

; 204  : 		m_iCurCombo = iCurCombo;

  00225	8b 45 c4	 mov	 eax, DWORD PTR _iCurCombo$GSCopy$[ebp]

; 205  : 		pOwner->SetState( CS_ATTACK );

  00228	53		 push	 ebx
  00229	6a 05		 push	 5
  0022b	8b cf		 mov	 ecx, edi
  0022d	89 86 70 19 00
	00		 mov	 DWORD PTR [esi+6512], eax
  00233	e8 00 00 00 00	 call	 ?SetState@ioBaseChar@@QAEXH_N@Z ; ioBaseChar::SetState

; 206  : 		pOwner->SetAttackMoveEnable( false );

  00238	6a 00		 push	 0
  0023a	8b cf		 mov	 ecx, edi
  0023c	e8 00 00 00 00	 call	 ?SetAttackMoveEnable@ioBaseChar@@QAEX_N@Z ; ioBaseChar::SetAttackMoveEnable

; 207  : 		pOwner->SetChargingState( true );
; 208  : 
; 209  : 		if( m_bChargeAutoTarget )

  00241	8d 45 df	 lea	 eax, DWORD PTR _value$615064[ebp]
  00244	50		 push	 eax
  00245	8d 8e 54 0e 00
	00		 lea	 ecx, DWORD PTR [esi+3668]
  0024b	88 9f 54 20 00
	00		 mov	 BYTE PTR [edi+8276], bl
  00251	e8 00 00 00 00	 call	 ?DecryptValueToPool@?$CEncrypt@_N@@QAEXPA_N@Z ; CEncrypt<bool>::DecryptValueToPool
  00256	80 7d df 00	 cmp	 BYTE PTR _value$615064[ebp], 0
  0025a	0f 84 b2 00 00
	00		 je	 $LN2@SetNormalA

; 210  : 		{
; 211  : 			DWORD dwTrackingTime = FRAMEGETTIME();

  00260	ff 15 00 00 00
	00		 call	 DWORD PTR __imp_?GetSingleton@ioFrameTimer@@SAAAV1@XZ
  00266	8b c8		 mov	 ecx, eax
  00268	ff 15 00 00 00
	00		 call	 DWORD PTR __imp_?GetLoopSec@ioFrameTimer@@QBEKXZ
  0026e	6a 02		 push	 2
  00270	8b f0		 mov	 esi, eax

; 212  : 			dwTrackingTime += pGrp->GetAnimationEventTime_e( iAniID, "tracking_e" ) * fTimeRate;

  00272	c7 45 e0 99 9e
	8a 89		 mov	 DWORD PTR _szEncEventType$615083[ebp], -1987404135 ; 898a9e99H
  00279	c7 45 e4 86 85
	85 8d		 mov	 DWORD PTR _szEncEventType$615083[ebp+4], -1920629370 ; 8d858586H
  00280	66 c7 45 e8 b2
	89		 mov	 WORD PTR _szEncEventType$615083[ebp+8], 35250 ; 000089b2H
  00286	8d 45 e0	 lea	 eax, DWORD PTR _szEncEventType$615083[ebp]
  00289	c6 45 ea 00	 mov	 BYTE PTR _szEncEventType$615083[ebp+10], 0
  0028d	59		 pop	 ecx
$LL147@SetNormalA:
  0028e	81 30 ed ec eb
	ea		 xor	 DWORD PTR [eax], -353637139 ; eaebecedH
  00294	83 c0 04	 add	 eax, 4
  00297	49		 dec	 ecx
  00298	75 f4		 jne	 SHORT $LL147@SetNormalA
  0029a	6a 08		 push	 8
  0029c	58		 pop	 eax
$LL144@SetNormalA:
  0029d	8b c8		 mov	 ecx, eax
  0029f	81 e1 03 00 00
	80		 and	 ecx, -2147483645	; 80000003H
  002a5	79 05		 jns	 SHORT $LN162@SetNormalA
  002a7	49		 dec	 ecx
  002a8	83 c9 fc	 or	 ecx, -4			; fffffffcH
  002ab	41		 inc	 ecx
$LN162@SetNormalA:
  002ac	b2 ed		 mov	 dl, -19			; ffffffedH
  002ae	2a d1		 sub	 dl, cl
  002b0	30 54 05 e0	 xor	 BYTE PTR _szEncEventType$615083[ebp+eax], dl
  002b4	40		 inc	 eax
  002b5	83 f8 0a	 cmp	 eax, 10			; 0000000aH
  002b8	7c e3		 jl	 SHORT $LL144@SetNormalA
  002ba	8d 45 e0	 lea	 eax, DWORD PTR _szEncEventType$615083[ebp]
  002bd	50		 push	 eax
  002be	8d 4d b4	 lea	 ecx, DWORD PTR $T615183[ebp]
  002c1	ff 15 00 00 00
	00		 call	 DWORD PTR __imp_??0ioHashString@@QAE@PBD@Z
  002c7	8b 4d d0	 mov	 ecx, DWORD PTR _pGrp$607919[ebp]
  002ca	83 65 fc 00	 and	 DWORD PTR __$EHRec$[ebp+8], 0
  002ce	8d 45 b4	 lea	 eax, DWORD PTR $T615183[ebp]
  002d1	50		 push	 eax
  002d2	ff 75 c8	 push	 DWORD PTR _iAniID$607922[ebp]
  002d5	ff 15 00 00 00
	00		 call	 DWORD PTR __imp_?GetAnimationEventTime@ioEntityGroup@@QAEMHABVioHashString@@@Z
  002db	d9 5d d4	 fstp	 DWORD PTR $T615182[ebp]
  002de	83 4d fc ff	 or	 DWORD PTR __$EHRec$[ebp+8], -1
  002e2	8d 4d b4	 lea	 ecx, DWORD PTR $T615183[ebp]
  002e5	ff 15 00 00 00
	00		 call	 DWORD PTR __imp_??1ioHashString@@QAE@XZ

; 213  : 			pOwner->SetAutoTargetTrackingEndTime( dwTrackingTime );

  002eb	d9 45 d4	 fld	 DWORD PTR $T615182[ebp]
  002ee	d8 4d d8	 fmul	 DWORD PTR _fTimeRate$607923[ebp]
  002f1	89 75 d4	 mov	 DWORD PTR tv1191[ebp], esi
  002f4	db 45 d4	 fild	 DWORD PTR tv1191[ebp]
  002f7	85 f6		 test	 esi, esi
  002f9	79 06		 jns	 SHORT $LN163@SetNormalA
  002fb	dc 05 00 00 00
	00		 fadd	 QWORD PTR __real@41f0000000000000
$LN163@SetNormalA:

; 212  : 			dwTrackingTime += pGrp->GetAnimationEventTime_e( iAniID, "tracking_e" ) * fTimeRate;

  00301	de c1		 faddp	 ST(1), ST(0)

; 213  : 			pOwner->SetAutoTargetTrackingEndTime( dwTrackingTime );

  00303	e8 00 00 00 00	 call	 __ftol2
  00308	50		 push	 eax
  00309	8b cf		 mov	 ecx, edi
  0030b	e8 00 00 00 00	 call	 ?SetAutoTargetTrackingEndTime@ioBaseChar@@QAEXK@Z ; ioBaseChar::SetAutoTargetTrackingEndTime

; 214  : 		}
; 215  : 		else

  00310	eb 2f		 jmp	 SHORT $LN1@SetNormalA
$LN2@SetNormalA:

; 216  : 		{
; 217  : 			pOwner->StopAutoTargetTracking();

  00312	8b cf		 mov	 ecx, edi
  00314	e8 00 00 00 00	 call	 ?StopAutoTargetTracking@ioBaseChar@@QAEXXZ ; ioBaseChar::StopAutoTargetTracking
  00319	eb 26		 jmp	 SHORT $LN1@SetNormalA
$LN4@SetNormalA:

; 183  : 	{
; 184  : 		ioWeaponItem::SetNormalAttack( pOwner, iCurCombo );

  0031b	53		 push	 ebx
  0031c	57		 push	 edi
  0031d	8b ce		 mov	 ecx, esi
  0031f	e8 00 00 00 00	 call	 ?SetNormalAttack@ioAttackableItem@@UAEXPAVioBaseChar@@H@Z ; ioAttackableItem::SetNormalAttack

; 185  : 
; 186  : 		m_ChargeState = CS_NONE;

  00324	83 a6 64 19 00
	00 00		 and	 DWORD PTR [esi+6500], 0

; 187  : 		m_iCurCombo = iCurCombo;
; 188  : 
; 189  : 		pOwner->SetAttackMoveEnable( false );

  0032b	6a 00		 push	 0
  0032d	8b cf		 mov	 ecx, edi
  0032f	89 9e 70 19 00
	00		 mov	 DWORD PTR [esi+6512], ebx
  00335	e8 00 00 00 00	 call	 ?SetAttackMoveEnable@ioBaseChar@@QAEX_N@Z ; ioBaseChar::SetAttackMoveEnable

; 190  : 		pOwner->SetChargingState( false );

  0033a	c6 87 54 20 00
	00 00		 mov	 BYTE PTR [edi+8276], 0
$LN1@SetNormalA:

; 218  : 		}
; 219  : 	}
; 220  : }

  00341	e8 00 00 00 00	 call	 __EH_epilog3_GS
  00346	c2 08 00	 ret	 8
_TEXT	ENDS
;	COMDAT text$x
text$x	SEGMENT
__unwindfunclet$?SetNormalAttack@ioDraculaItem@@UAEXPAVioBaseChar@@H@Z$0:
  00000	8d 4d b4	 lea	 ecx, DWORD PTR $T615183[ebp]
  00003	ff 25 00 00 00
	00		 jmp	 DWORD PTR __imp_??1ioHashString@@QAE@XZ
__ehhandler$?SetNormalAttack@ioDraculaItem@@UAEXPAVioBaseChar@@H@Z:
  00009	8b 54 24 08	 mov	 edx, DWORD PTR [esp+8]
  0000d	8d 42 0c	 lea	 eax, DWORD PTR [edx+12]
  00010	8b 4a b0	 mov	 ecx, DWORD PTR [edx-80]
  00013	33 c8		 xor	 ecx, eax
  00015	e8 00 00 00 00	 call	 @__security_check_cookie@4
  0001a	8b 4a fc	 mov	 ecx, DWORD PTR [edx-4]
  0001d	33 c8		 xor	 ecx, eax
  0001f	e8 00 00 00 00	 call	 @__security_check_cookie@4
  00024	b8 00 00 00 00	 mov	 eax, OFFSET __ehfuncinfo$?SetNormalAttack@ioDraculaItem@@UAEXPAVioBaseChar@@H@Z
  00029	e9 00 00 00 00	 jmp	 ___CxxFrameHandler3
text$x	ENDS
?SetNormalAttack@ioDraculaItem@@UAEXPAVioBaseChar@@H@Z ENDP ; ioDraculaItem::SetNormalAttack
PUBLIC	__$ArrayPad$
PUBLIC	?ProcessFlyState@ioDraculaItem@@QAEXPAVioBaseChar@@M@Z ; ioDraculaItem::ProcessFlyState
EXTRN	?SetCurMoveSpeed@ioBaseChar@@QAEXM@Z:PROC	; ioBaseChar::SetCurMoveSpeed
EXTRN	?SetWorldOrientation@ioMapEffect@@QAEXABUD3DXQUATERNION@@@Z:PROC ; ioMapEffect::SetWorldOrientation
EXTRN	?SetWorldPosition@ioMapEffect@@QAEXABUD3DXVECTOR3@@@Z:PROC ; ioMapEffect::SetWorldPosition
EXTRN	?FindMapEffect@ioPlayStage@@QAEPAVioMapEffect@@K@Z:PROC ; ioPlayStage::FindMapEffect
EXTRN	?IsAttackKey@ioBaseChar@@QBE_NXZ:PROC		; ioBaseChar::IsAttackKey
EXTRN	?SetUseSkill@ioBaseChar@@QAE_NHW4SkillUseType@@_N1@Z:PROC ; ioBaseChar::SetUseSkill
EXTRN	?IsBuffLimitSkill@ioBaseChar@@QBE_NXZ:PROC	; ioBaseChar::IsBuffLimitSkill
EXTRN	?IsChatModeState@ioBaseChar@@QBE_N_N@Z:PROC	; ioBaseChar::IsChatModeState
EXTRN	?GetEquipedSkill@ioBaseChar@@QAEPAVioSkill@@H@Z:PROC ; ioBaseChar::GetEquipedSkill
EXTRN	?GetSkillKeyInput@ioBaseChar@@QAEHXZ:PROC	; ioBaseChar::GetSkillKeyInput
; Function compile flags: /Ogsp
;	COMDAT ?ProcessFlyState@ioDraculaItem@@QAEXPAVioBaseChar@@M@Z
_TEXT	SEGMENT
_iSkillNum$608124 = -28					; size = 4
_dwCurTime$ = -24					; size = 4
tv308 = -20						; size = 4
tv304 = -20						; size = 4
tv300 = -20						; size = 4
_pStage$ = -20						; size = 4
$T608134 = -16						; size = 12
__$ArrayPad$ = -4					; size = 4
_pOwner$ = 8						; size = 4
_fHeightGap$ = 12					; size = 4
?ProcessFlyState@ioDraculaItem@@QAEXPAVioBaseChar@@M@Z PROC ; ioDraculaItem::ProcessFlyState, COMDAT
; _this$ = ecx

; 662  : {

  00000	55		 push	 ebp
  00001	8b ec		 mov	 ebp, esp
  00003	83 ec 1c	 sub	 esp, 28			; 0000001cH
  00006	a1 00 00 00 00	 mov	 eax, DWORD PTR ___security_cookie
  0000b	33 c5		 xor	 eax, ebp
  0000d	89 45 fc	 mov	 DWORD PTR __$ArrayPad$[ebp], eax
  00010	53		 push	 ebx
  00011	56		 push	 esi
  00012	57		 push	 edi
  00013	8b 7d 08	 mov	 edi, DWORD PTR _pOwner$[ebp]
  00016	8b f1		 mov	 esi, ecx

; 663  : 	if( !pOwner )

  00018	85 ff		 test	 edi, edi
  0001a	0f 84 c8 01 00
	00		 je	 $LN11@ProcessFly@3

; 664  : 		return;
; 665  : 
; 666  : 	ioPlayStage *pStage = pOwner->GetCreator();

  00020	8b 87 44 03 00
	00		 mov	 eax, DWORD PTR [edi+836]
  00026	89 45 ec	 mov	 DWORD PTR _pStage$[ebp], eax

; 667  : 	if( !pStage )

  00029	85 c0		 test	 eax, eax
  0002b	0f 84 b7 01 00
	00		 je	 $LN11@ProcessFly@3

; 668  : 		return;
; 669  : 
; 670  : 	DWORD dwCurTime = FRAMEGETTIME();

  00031	ff 15 00 00 00
	00		 call	 DWORD PTR __imp_?GetSingleton@ioFrameTimer@@SAAAV1@XZ
  00037	8b c8		 mov	 ecx, eax
  00039	ff 15 00 00 00
	00		 call	 DWORD PTR __imp_?GetLoopSec@ioFrameTimer@@QBEKXZ
  0003f	89 45 e8	 mov	 DWORD PTR _dwCurTime$[ebp], eax

; 671  : 
; 672  : 	switch( m_FlyState )

  00042	8b 86 68 19 00
	00		 mov	 eax, DWORD PTR [esi+6504]
  00048	48		 dec	 eax
  00049	0f 84 64 01 00
	00		 je	 $LN14@ProcessFly@3
  0004f	48		 dec	 eax
  00050	0f 85 92 01 00
	00		 jne	 $LN11@ProcessFly@3

; 685  : 			return;
; 686  : 		}
; 687  : 		break;
; 688  : 	case LFS_DELAY:
; 689  : 		/*if( pOwner->IsNeedProcess() && m_fCurGauge <= 0.0f )
; 690  : 		{
; 691  : 			ChangeFlyEnd( pOwner );
; 692  : 			return;
; 693  : 		}*/
; 694  : 
; 695  : 		if( pOwner->IsNeedProcess() )

  00056	8b 07		 mov	 eax, DWORD PTR [edi]
  00058	8b cf		 mov	 ecx, edi
  0005a	ff 90 00 01 00
	00		 call	 DWORD PTR [eax+256]
  00060	84 c0		 test	 al, al
  00062	0f 84 b3 00 00
	00		 je	 $LN29@ProcessFly@3

; 696  : 		{
; 697  : 			int iSkillNum = pOwner->GetSkillKeyInput();

  00068	8b cf		 mov	 ecx, edi
  0006a	e8 00 00 00 00	 call	 ?GetSkillKeyInput@ioBaseChar@@QAEHXZ ; ioBaseChar::GetSkillKeyInput
  0006f	89 45 e4	 mov	 DWORD PTR _iSkillNum$608124[ebp], eax

; 698  : 			if( iSkillNum >= 0 )

  00072	85 c0		 test	 eax, eax
  00074	78 76		 js	 SHORT $LN28@ProcessFly@3

; 699  : 			{
; 700  : 				//  
; 701  : 				ioSkill *pSkill = pOwner->GetEquipedSkill( iSkillNum );

  00076	50		 push	 eax
  00077	8b cf		 mov	 ecx, edi
  00079	e8 00 00 00 00	 call	 ?GetEquipedSkill@ioBaseChar@@QAEPAVioSkill@@H@Z ; ioBaseChar::GetEquipedSkill
  0007e	8b d8		 mov	 ebx, eax

; 702  : 				if( pSkill &&
; 703  : 					!ToPassiveSkill(pSkill) &&
; 704  : 					pSkill->IsCanJumpingSkill() &&
; 705  : 					!pOwner->IsChatModeState( true ) &&
; 706  : 					!pOwner->IsBuffLimitSkill() )

  00080	85 db		 test	 ebx, ebx
  00082	74 5c		 je	 SHORT $LN27@ProcessFly@3
  00084	53		 push	 ebx
  00085	e8 00 00 00 00	 call	 ?ToPassiveSkill@@YAPAVioPassiveSkill@@PAVioSkill@@@Z ; ToPassiveSkill
  0008a	59		 pop	 ecx
  0008b	85 c0		 test	 eax, eax
  0008d	75 51		 jne	 SHORT $LN27@ProcessFly@3
  0008f	8b 03		 mov	 eax, DWORD PTR [ebx]
  00091	8b cb		 mov	 ecx, ebx
  00093	ff 90 08 01 00
	00		 call	 DWORD PTR [eax+264]
  00099	84 c0		 test	 al, al
  0009b	74 43		 je	 SHORT $LN27@ProcessFly@3
  0009d	6a 01		 push	 1
  0009f	8b cf		 mov	 ecx, edi
  000a1	e8 00 00 00 00	 call	 ?IsChatModeState@ioBaseChar@@QBE_N_N@Z ; ioBaseChar::IsChatModeState
  000a6	84 c0		 test	 al, al
  000a8	75 36		 jne	 SHORT $LN27@ProcessFly@3
  000aa	8b cf		 mov	 ecx, edi
  000ac	e8 00 00 00 00	 call	 ?IsBuffLimitSkill@ioBaseChar@@QBE_NXZ ; ioBaseChar::IsBuffLimitSkill
  000b1	84 c0		 test	 al, al
  000b3	75 2b		 jne	 SHORT $LN27@ProcessFly@3

; 707  : 				{
; 708  : 					m_TargetSkill = m_Target;

  000b5	8d 86 24 1a 00
	00		 lea	 eax, DWORD PTR [esi+6692]
  000bb	50		 push	 eax
  000bc	8d 8e 34 1a 00
	00		 lea	 ecx, DWORD PTR [esi+6708]
  000c2	ff 15 00 00 00
	00		 call	 DWORD PTR __imp_??4ioHashString@@QAEAAV0@ABV0@@Z

; 709  : 					if( pOwner->SetUseSkill(iSkillNum, SUT_JUMP) )

  000c8	6a 00		 push	 0
  000ca	6a 00		 push	 0
  000cc	6a 01		 push	 1
  000ce	ff 75 e4	 push	 DWORD PTR _iSkillNum$608124[ebp]
  000d1	8b cf		 mov	 ecx, edi
  000d3	e8 00 00 00 00	 call	 ?SetUseSkill@ioBaseChar@@QAE_NHW4SkillUseType@@_N1@Z ; ioBaseChar::SetUseSkill
  000d8	84 c0		 test	 al, al
  000da	0f 85 08 01 00
	00		 jne	 $LN11@ProcessFly@3
$LN27@ProcessFly@3:

; 710  : 						return;
; 711  : 				}
; 712  : 
; 713  : 				m_TargetSkill.Clear();

  000e0	8d 8e 34 1a 00
	00		 lea	 ecx, DWORD PTR [esi+6708]
  000e6	ff 15 00 00 00
	00		 call	 DWORD PTR __imp_?Clear@ioHashString@@QAEXXZ
$LN28@ProcessFly@3:

; 714  : 			}
; 715  : 
; 716  : 			if( pOwner->IsAttackKey() )

  000ec	8b cf		 mov	 ecx, edi
  000ee	e8 00 00 00 00	 call	 ?IsAttackKey@ioBaseChar@@QBE_NXZ ; ioBaseChar::IsAttackKey
  000f3	84 c0		 test	 al, al
  000f5	74 0f		 je	 SHORT $LN5@ProcessFly@3

; 717  : 			{
; 718  : 				CheckFlyState( pOwner, true );

  000f7	6a 01		 push	 1
$LN33@ProcessFly@3:
  000f9	57		 push	 edi
  000fa	8b ce		 mov	 ecx, esi
  000fc	e8 00 00 00 00	 call	 ?CheckFlyState@ioDraculaItem@@QAEXPAVioBaseChar@@_N@Z ; ioDraculaItem::CheckFlyState

; 719  : 				return;

  00101	e9 e2 00 00 00	 jmp	 $LN11@ProcessFly@3
$LN5@ProcessFly@3:

; 720  : 			}
; 721  : 
; 722  : 			if( (m_dwSpecialStartTime + m_dwMaxSpecialTime) < dwCurTime )

  00106	8b 86 60 1b 00
	00		 mov	 eax, DWORD PTR [esi+7008]
  0010c	03 86 5c 1b 00
	00		 add	 eax, DWORD PTR [esi+7004]
  00112	3b 45 e8	 cmp	 eax, DWORD PTR _dwCurTime$[ebp]
  00115	73 04		 jae	 SHORT $LN29@ProcessFly@3

; 723  : 			{
; 724  : 				CheckFlyState( pOwner, false );

  00117	6a 00		 push	 0

; 725  : 				return;

  00119	eb de		 jmp	 SHORT $LN33@ProcessFly@3
$LN29@ProcessFly@3:

; 726  : 			}
; 727  : 		}
; 728  : 
; 729  : 		ProcessFlyMove( pOwner );

  0011b	57		 push	 edi
  0011c	8b ce		 mov	 ecx, esi
  0011e	e8 00 00 00 00	 call	 ?ProcessFlyMove@ioDraculaItem@@QAE_NPAVioBaseChar@@@Z ; ioDraculaItem::ProcessFlyMove

; 730  : 		CheckKeyInput( pOwner );

  00123	6a 00		 push	 0
  00125	57		 push	 edi
  00126	8b ce		 mov	 ecx, esi
  00128	e8 00 00 00 00	 call	 ?CheckKeyInput@ioDraculaItem@@IAEXPAVioBaseChar@@_N@Z ; ioDraculaItem::CheckKeyInput

; 731  : 
; 732  : 		ProcessRotate( pOwner );

  0012d	57		 push	 edi
  0012e	8b ce		 mov	 ecx, esi
  00130	e8 00 00 00 00	 call	 ?ProcessRotate@ioDraculaItem@@QAEXPAVioBaseChar@@@Z ; ioDraculaItem::ProcessRotate

; 733  : 
; 734  : 		if( m_dwMapEffectID != -1 )

  00135	8b b6 64 1b 00
	00		 mov	 esi, DWORD PTR [esi+7012]
  0013b	83 fe ff	 cmp	 esi, -1
  0013e	0f 84 a4 00 00
	00		 je	 $LN11@ProcessFly@3

; 735  : 		{
; 736  : 			ioMapEffect *pMapEffect = pStage->FindMapEffect( m_dwMapEffectID );

  00144	8b 4d ec	 mov	 ecx, DWORD PTR _pStage$[ebp]
  00147	56		 push	 esi
  00148	e8 00 00 00 00	 call	 ?FindMapEffect@ioPlayStage@@QAEPAVioMapEffect@@K@Z ; ioPlayStage::FindMapEffect
  0014d	8b f0		 mov	 esi, eax

; 737  : 			if( pMapEffect )

  0014f	85 f6		 test	 esi, esi
  00151	0f 84 91 00 00
	00		 je	 $LN11@ProcessFly@3

; 738  : 			{
; 739  : 				pMapEffect->SetWorldPosition( pOwner->GetMidPositionByRate() );

  00157	b8 05 00 00 00	 mov	 eax, 5
  0015c	8b c8		 mov	 ecx, eax
  0015e	b8 0a 00 00 00	 mov	 eax, 10			; 0000000aH
  00163	89 4d ec	 mov	 DWORD PTR tv308[ebp], ecx
  00166	db 45 ec	 fild	 DWORD PTR tv308[ebp]
  00169	85 c9		 test	 ecx, ecx
  0016b	79 06		 jns	 SHORT $LN30@ProcessFly@3
  0016d	d8 05 00 00 00
	00		 fadd	 DWORD PTR __real@4f800000
$LN30@ProcessFly@3:
  00173	89 45 ec	 mov	 DWORD PTR tv304[ebp], eax
  00176	db 45 ec	 fild	 DWORD PTR tv304[ebp]
  00179	85 c0		 test	 eax, eax
  0017b	79 06		 jns	 SHORT $LN31@ProcessFly@3
  0017d	d8 05 00 00 00
	00		 fadd	 DWORD PTR __real@4f800000
$LN31@ProcessFly@3:
  00183	de f9		 fdivp	 ST(1), ST(0)
  00185	51		 push	 ecx
  00186	8d 45 f0	 lea	 eax, DWORD PTR $T608134[ebp]
  00189	8b cf		 mov	 ecx, edi
  0018b	d9 5d ec	 fstp	 DWORD PTR tv300[ebp]
  0018e	d9 45 ec	 fld	 DWORD PTR tv300[ebp]
  00191	d9 1c 24	 fstp	 DWORD PTR [esp]
  00194	50		 push	 eax
  00195	e8 00 00 00 00	 call	 ?GetMidPositionByRate@ioGameEntity@@QBE?AUD3DXVECTOR3@@M@Z ; ioGameEntity::GetMidPositionByRate
  0019a	50		 push	 eax
  0019b	8b ce		 mov	 ecx, esi
  0019d	e8 00 00 00 00	 call	 ?SetWorldPosition@ioMapEffect@@QAEXABUD3DXVECTOR3@@@Z ; ioMapEffect::SetWorldPosition

; 740  : 				pMapEffect->SetWorldOrientation( pOwner->GetWorldOrientation() );

  001a2	8b 07		 mov	 eax, DWORD PTR [edi]
  001a4	8b cf		 mov	 ecx, edi
  001a6	ff 50 74	 call	 DWORD PTR [eax+116]
  001a9	50		 push	 eax
  001aa	8b ce		 mov	 ecx, esi
  001ac	e8 00 00 00 00	 call	 ?SetWorldOrientation@ioMapEffect@@QAEXABUD3DXQUATERNION@@@Z ; ioMapEffect::SetWorldOrientation

; 741  : 			}
; 742  : 		}
; 743  : 
; 744  : 		break;

  001b1	eb 35		 jmp	 SHORT $LN11@ProcessFly@3
$LN14@ProcessFly@3:

; 673  : 	{
; 674  : 	case LFS_START:
; 675  : 		pOwner->SetCurMoveSpeed( 0 );

  001b3	0f 57 c0	 xorps	 xmm0, xmm0
  001b6	51		 push	 ecx
  001b7	8b cf		 mov	 ecx, edi
  001b9	f3 0f 11 04 24	 movss	 DWORD PTR [esp], xmm0
  001be	e8 00 00 00 00	 call	 ?SetCurMoveSpeed@ioBaseChar@@QAEXM@Z ; ioBaseChar::SetCurMoveSpeed

; 676  : 
; 677  : 		if( m_dwFlyStartTime+m_CurFly.m_dwStartDuration < dwCurTime )

  001c3	8b 86 74 1a 00
	00		 mov	 eax, DWORD PTR [esi+6772]
  001c9	03 86 74 19 00
	00		 add	 eax, DWORD PTR [esi+6516]

; 678  : 		{
; 679  : 			ChangeFlyDelay( pOwner );

  001cf	57		 push	 edi
  001d0	8b ce		 mov	 ecx, esi
  001d2	3b 45 e8	 cmp	 eax, DWORD PTR _dwCurTime$[ebp]

; 680  : 			return;

  001d5	72 0c		 jb	 SHORT $LN32@ProcessFly@3

; 681  : 		}
; 682  : 		else if( !ProcessFlyStart( pOwner ) )

  001d7	e8 00 00 00 00	 call	 ?ProcessFlyStart@ioDraculaItem@@QAE_NPAVioBaseChar@@@Z ; ioDraculaItem::ProcessFlyStart
  001dc	84 c0		 test	 al, al
  001de	75 08		 jne	 SHORT $LN11@ProcessFly@3

; 683  : 		{
; 684  : 			ChangeFlyDelay( pOwner );

  001e0	57		 push	 edi
  001e1	8b ce		 mov	 ecx, esi
$LN32@ProcessFly@3:
  001e3	e8 00 00 00 00	 call	 ?ChangeFlyDelay@ioDraculaItem@@QAEXPAVioBaseChar@@@Z ; ioDraculaItem::ChangeFlyDelay
$LN11@ProcessFly@3:

; 745  : 	case LFS_END:
; 746  : 		break;
; 747  : 	}
; 748  : }

  001e8	8b 4d fc	 mov	 ecx, DWORD PTR __$ArrayPad$[ebp]
  001eb	5f		 pop	 edi
  001ec	5e		 pop	 esi
  001ed	33 cd		 xor	 ecx, ebp
  001ef	5b		 pop	 ebx
  001f0	e8 00 00 00 00	 call	 @__security_check_cookie@4
  001f5	c9		 leave
  001f6	c2 08 00	 ret	 8
?ProcessFlyState@ioDraculaItem@@QAEXPAVioBaseChar@@M@Z ENDP ; ioDraculaItem::ProcessFlyState
_TEXT	ENDS
PUBLIC	?MaxGauge@ioDraculaItem@@QAEXXZ			; ioDraculaItem::MaxGauge
; Function compile flags: /Ogsp
;	COMDAT ?MaxGauge@ioDraculaItem@@QAEXXZ
_TEXT	SEGMENT
?MaxGauge@ioDraculaItem@@QAEXXZ PROC			; ioDraculaItem::MaxGauge, COMDAT
; _this$ = ecx

; 965  : 	m_fCurGauge = m_fMaxGauge;

  00000	8d 81 94 1a 00
	00		 lea	 eax, DWORD PTR [ecx+6804]
  00006	50		 push	 eax
  00007	81 c1 24 1b 00
	00		 add	 ecx, 6948		; 00001b24H
  0000d	e8 00 00 00 00	 call	 ??4?$CEncrypt@M@@QAE_NAAV0@@Z ; CEncrypt<float>::operator=

; 966  : }

  00012	c3		 ret	 0
?MaxGauge@ioDraculaItem@@QAEXXZ ENDP			; ioDraculaItem::MaxGauge
_TEXT	ENDS
PUBLIC	?SetCurGauge@ioDraculaItem@@QAEXM@Z		; ioDraculaItem::SetCurGauge
;	COMDAT xdata$x
; File d:\lost saga for developer\youtube\tutorial\source\src\lsclient\encryptvalue.h
xdata$x	SEGMENT
__unwindtable$?SetCurGauge@ioDraculaItem@@QAEXM@Z DD 0ffffffffH
	DD	FLAT:__unwindfunclet$?SetCurGauge@ioDraculaItem@@QAEXM@Z$0
	DD	00H
	DD	FLAT:__unwindfunclet$?SetCurGauge@ioDraculaItem@@QAEXM@Z$1
__ehfuncinfo$?SetCurGauge@ioDraculaItem@@QAEXM@Z DD 019930522H
	DD	02H
	DD	FLAT:__unwindtable$?SetCurGauge@ioDraculaItem@@QAEXM@Z
	DD	2 DUP(00H)
	DD	2 DUP(00H)
	DD	00H
	DD	01H
; Function compile flags: /Ogsp
; File d:\lost saga for developer\youtube\tutorial\source\src\lsclient\iodraculaitem.cpp
xdata$x	ENDS
;	COMDAT ?SetCurGauge@ioDraculaItem@@QAEXM@Z
_TEXT	SEGMENT
_value$615304 = -128					; size = 4
_value$615288 = -124					; size = 4
_value$615278 = -124					; size = 4
_value$615268 = -124					; size = 4
$T615259 = -120						; size = 4
_value$615294 = -116					; size = 4
_value$615300 = -116					; size = 4
_value$615284 = -116					; size = 4
_value$615272 = -116					; size = 4
$T615252 = -116						; size = 4
$T608283 = -112						; size = 48
$T608280 = -64						; size = 48
__$EHRec$ = -12						; size = 12
_fGauge$ = 8						; size = 4
?SetCurGauge@ioDraculaItem@@QAEXM@Z PROC		; ioDraculaItem::SetCurGauge, COMDAT
; _this$ = ecx

; 974  : {

  00000	6a 74		 push	 116			; 00000074H
  00002	b8 00 00 00 00	 mov	 eax, __ehhandler$?SetCurGauge@ioDraculaItem@@QAEXM@Z
  00007	e8 00 00 00 00	 call	 __EH_prolog3_GS
  0000c	83 65 88 00	 and	 DWORD PTR $T615259[ebp], 0

; 975  : 	m_fCurGauge = fGauge;

  00010	f3 0f 10 45 08	 movss	 xmm0, DWORD PTR _fGauge$[ebp]
  00015	8b f1		 mov	 esi, ecx
  00017	8d 45 84	 lea	 eax, DWORD PTR _value$615268[ebp]
  0001a	8d be 24 1b 00
	00		 lea	 edi, DWORD PTR [esi+6948]
  00020	50		 push	 eax
  00021	8b cf		 mov	 ecx, edi
  00023	f3 0f 11 45 84	 movss	 DWORD PTR _value$615268[ebp], xmm0
  00028	e8 00 00 00 00	 call	 ?EncryptValueToPool@?$CEncrypt@M@@AAEXPBD@Z ; CEncrypt<float>::EncryptValueToPool

; 976  : 	m_fCurGauge = (float)max( 0, min( m_fCurGauge, m_fMaxGauge ) );

  0002d	8d 45 8c	 lea	 eax, DWORD PTR _value$615272[ebp]
  00030	81 c6 94 1a 00
	00		 add	 esi, 6804		; 00001a94H
  00036	50		 push	 eax
  00037	8b ce		 mov	 ecx, esi
  00039	e8 00 00 00 00	 call	 ?DecryptValueToPool@?$CEncrypt@M@@QAEXPAM@Z ; CEncrypt<float>::DecryptValueToPool
  0003e	8d 45 84	 lea	 eax, DWORD PTR _value$615278[ebp]
  00041	50		 push	 eax
  00042	8b cf		 mov	 ecx, edi
  00044	e8 00 00 00 00	 call	 ?DecryptValueToPool@?$CEncrypt@M@@QAEXPAM@Z ; CEncrypt<float>::DecryptValueToPool
  00049	f3 0f 10 45 84	 movss	 xmm0, DWORD PTR _value$615278[ebp]
  0004e	f3 0f 10 4d 8c	 movss	 xmm1, DWORD PTR _value$615272[ebp]
  00053	8d 45 8c	 lea	 eax, DWORD PTR _value$615284[ebp]
  00056	0f 5a c0	 cvtps2pd xmm0, xmm0
  00059	0f 5a c9	 cvtps2pd xmm1, xmm1
  0005c	66 0f 2f c8	 comisd	 xmm1, xmm0
  00060	8b cf		 mov	 ecx, edi
  00062	50		 push	 eax
  00063	0f 46 ce	 cmovbe	 ecx, esi
  00066	e8 00 00 00 00	 call	 ?DecryptValueToPool@?$CEncrypt@M@@QAEXPAM@Z ; CEncrypt<float>::DecryptValueToPool
  0006b	f3 0f 10 45 8c	 movss	 xmm0, DWORD PTR _value$615284[ebp]
  00070	0f 57 c9	 xorps	 xmm1, xmm1
  00073	0f 5a c0	 cvtps2pd xmm0, xmm0
  00076	66 0f 2f c8	 comisd	 xmm1, xmm0
  0007a	76 21		 jbe	 SHORT $LN7@SetCurGaug
  0007c	0f 57 c0	 xorps	 xmm0, xmm0
  0007f	8d 45 8c	 lea	 eax, DWORD PTR $T615252[ebp]
  00082	50		 push	 eax
  00083	8d 4d c0	 lea	 ecx, DWORD PTR $T608280[ebp]
  00086	f3 0f 11 45 8c	 movss	 DWORD PTR $T615252[ebp], xmm0
  0008b	e8 00 00 00 00	 call	 ??0?$CEncrypt@M@@QAE@ABM@Z ; CEncrypt<float>::CEncrypt<float>
  00090	83 65 fc 00	 and	 DWORD PTR __$EHRec$[ebp+8], 0
  00094	c7 45 88 01 00
	00 00		 mov	 DWORD PTR $T615259[ebp], 1
  0009b	eb 44		 jmp	 SHORT $LN8@SetCurGaug
$LN7@SetCurGaug:
  0009d	8d 45 84	 lea	 eax, DWORD PTR _value$615288[ebp]
  000a0	50		 push	 eax
  000a1	8b ce		 mov	 ecx, esi
  000a3	e8 00 00 00 00	 call	 ?DecryptValueToPool@?$CEncrypt@M@@QAEXPAM@Z ; CEncrypt<float>::DecryptValueToPool
  000a8	8d 45 8c	 lea	 eax, DWORD PTR _value$615294[ebp]
  000ab	50		 push	 eax
  000ac	8b cf		 mov	 ecx, edi
  000ae	e8 00 00 00 00	 call	 ?DecryptValueToPool@?$CEncrypt@M@@QAEXPAM@Z ; CEncrypt<float>::DecryptValueToPool
  000b3	f3 0f 10 45 8c	 movss	 xmm0, DWORD PTR _value$615294[ebp]
  000b8	f3 0f 10 4d 84	 movss	 xmm1, DWORD PTR _value$615288[ebp]
  000bd	0f 5a c0	 cvtps2pd xmm0, xmm0
  000c0	0f 5a c9	 cvtps2pd xmm1, xmm1
  000c3	66 0f 2f c8	 comisd	 xmm1, xmm0
  000c7	0f 47 f7	 cmova	 esi, edi
  000ca	56		 push	 esi
  000cb	8d 4d 90	 lea	 ecx, DWORD PTR $T608283[ebp]
  000ce	e8 00 00 00 00	 call	 ??0?$CEncrypt@M@@QAE@ABV0@@Z ; CEncrypt<float>::CEncrypt<float>
  000d3	c7 45 fc 01 00
	00 00		 mov	 DWORD PTR __$EHRec$[ebp+8], 1
  000da	c7 45 88 02 00
	00 00		 mov	 DWORD PTR $T615259[ebp], 2
$LN8@SetCurGaug:
  000e1	8d 4d 8c	 lea	 ecx, DWORD PTR _value$615300[ebp]
  000e4	51		 push	 ecx
  000e5	8b c8		 mov	 ecx, eax
  000e7	e8 00 00 00 00	 call	 ?DecryptValueToPool@?$CEncrypt@M@@QAEXPAM@Z ; CEncrypt<float>::DecryptValueToPool
  000ec	f3 0f 10 45 8c	 movss	 xmm0, DWORD PTR _value$615300[ebp]
  000f1	8d 45 80	 lea	 eax, DWORD PTR _value$615304[ebp]
  000f4	50		 push	 eax
  000f5	8b cf		 mov	 ecx, edi
  000f7	f3 0f 11 45 80	 movss	 DWORD PTR _value$615304[ebp], xmm0
  000fc	e8 00 00 00 00	 call	 ?EncryptValueToPool@?$CEncrypt@M@@AAEXPBD@Z ; CEncrypt<float>::EncryptValueToPool
  00101	83 65 fc 00	 and	 DWORD PTR __$EHRec$[ebp+8], 0
  00105	f6 45 88 02	 test	 BYTE PTR $T615259[ebp], 2
  00109	be 00 00 00 00	 mov	 esi, OFFSET ??_7?$CEncrypt@M@@6B@
  0010e	74 0f		 je	 SHORT $LN13@SetCurGaug
  00110	83 65 88 fd	 and	 DWORD PTR $T615259[ebp], -3 ; fffffffdH
  00114	8d 4d 9c	 lea	 ecx, DWORD PTR $T608283[ebp+12]
  00117	89 75 90	 mov	 DWORD PTR $T608283[ebp], esi
  0011a	e8 00 00 00 00	 call	 ??1ccddaabb@@UAE@XZ	; ccddaabb::~ccddaabb
$LN13@SetCurGaug:
  0011f	83 4d fc ff	 or	 DWORD PTR __$EHRec$[ebp+8], -1
  00123	f6 45 88 01	 test	 BYTE PTR $T615259[ebp], 1
  00127	74 0b		 je	 SHORT $LN14@SetCurGaug
  00129	8d 4d cc	 lea	 ecx, DWORD PTR $T608280[ebp+12]
  0012c	89 75 c0	 mov	 DWORD PTR $T608280[ebp], esi
  0012f	e8 00 00 00 00	 call	 ??1ccddaabb@@UAE@XZ	; ccddaabb::~ccddaabb
$LN14@SetCurGaug:

; 977  : }

  00134	e8 00 00 00 00	 call	 __EH_epilog3_GS
  00139	c2 04 00	 ret	 4
_TEXT	ENDS
;	COMDAT text$x
text$x	SEGMENT
__unwindfunclet$?SetCurGauge@ioDraculaItem@@QAEXM@Z$0:
  00000	8b 45 88	 mov	 eax, DWORD PTR $T615259[ebp]
  00003	83 e0 01	 and	 eax, 1
  00006	0f 84 0c 00 00
	00		 je	 $LN10@SetCurGaug
  0000c	83 65 88 fe	 and	 DWORD PTR $T615259[ebp], -2 ; fffffffeH
  00010	8d 4d c0	 lea	 ecx, DWORD PTR $T608280[ebp]
  00013	e9 00 00 00 00	 jmp	 ??1?$CEncrypt@M@@UAE@XZ	; CEncrypt<float>::~CEncrypt<float>
$LN10@SetCurGaug:
  00018	c3		 ret	 0
__unwindfunclet$?SetCurGauge@ioDraculaItem@@QAEXM@Z$1:
  00019	8b 45 88	 mov	 eax, DWORD PTR $T615259[ebp]
  0001c	83 e0 02	 and	 eax, 2
  0001f	0f 84 0c 00 00
	00		 je	 $LN12@SetCurGaug
  00025	83 65 88 fd	 and	 DWORD PTR $T615259[ebp], -3 ; fffffffdH
  00029	8d 4d 90	 lea	 ecx, DWORD PTR $T608283[ebp]
  0002c	e9 00 00 00 00	 jmp	 ??1?$CEncrypt@M@@UAE@XZ	; CEncrypt<float>::~CEncrypt<float>
$LN12@SetCurGaug:
  00031	c3		 ret	 0
__ehhandler$?SetCurGauge@ioDraculaItem@@QAEXM@Z:
  00032	8b 54 24 08	 mov	 edx, DWORD PTR [esp+8]
  00036	8d 42 0c	 lea	 eax, DWORD PTR [edx+12]
  00039	8b 8a 7c ff ff
	ff		 mov	 ecx, DWORD PTR [edx-132]
  0003f	33 c8		 xor	 ecx, eax
  00041	e8 00 00 00 00	 call	 @__security_check_cookie@4
  00046	8b 4a fc	 mov	 ecx, DWORD PTR [edx-4]
  00049	33 c8		 xor	 ecx, eax
  0004b	e8 00 00 00 00	 call	 @__security_check_cookie@4
  00050	b8 00 00 00 00	 mov	 eax, OFFSET __ehfuncinfo$?SetCurGauge@ioDraculaItem@@QAEXM@Z
  00055	e9 00 00 00 00	 jmp	 ___CxxFrameHandler3
text$x	ENDS
?SetCurGauge@ioDraculaItem@@QAEXM@Z ENDP		; ioDraculaItem::SetCurGauge
PUBLIC	?DecreaseGauge@ioDraculaItem@@IAEXXZ		; ioDraculaItem::DecreaseGauge
;	COMDAT xdata$x
; File d:\lost saga for developer\youtube\tutorial\source\src\lsclient\encryptvalue.h
xdata$x	SEGMENT
__unwindtable$?DecreaseGauge@ioDraculaItem@@IAEXXZ DD 0ffffffffH
	DD	FLAT:__unwindfunclet$?DecreaseGauge@ioDraculaItem@@IAEXXZ$0
	DD	00H
	DD	FLAT:__unwindfunclet$?DecreaseGauge@ioDraculaItem@@IAEXXZ$1
__ehfuncinfo$?DecreaseGauge@ioDraculaItem@@IAEXXZ DD 019930522H
	DD	02H
	DD	FLAT:__unwindtable$?DecreaseGauge@ioDraculaItem@@IAEXXZ
	DD	2 DUP(00H)
	DD	2 DUP(00H)
	DD	00H
	DD	01H
; Function compile flags: /Ogsp
; File d:\lost saga for developer\youtube\tutorial\source\src\lsclient\iodraculaitem.cpp
xdata$x	ENDS
;	COMDAT ?DecreaseGauge@ioDraculaItem@@IAEXXZ
_TEXT	SEGMENT
_value$615390 = -128					; size = 4
$T615340 = -124						; size = 4
_value$615374 = -120					; size = 4
_value$615358 = -120					; size = 4
_value$615353 = -120					; size = 4
_value$615380 = -116					; size = 4
_value$615364 = -116					; size = 4
_value$615386 = -116					; size = 4
_value$615370 = -116					; size = 4
_value$615349 = -116					; size = 4
$T615333 = -116						; size = 4
$T608300 = -112						; size = 48
$T608297 = -64						; size = 48
__$EHRec$ = -12						; size = 12
?DecreaseGauge@ioDraculaItem@@IAEXXZ PROC		; ioDraculaItem::DecreaseGauge, COMDAT
; _this$ = ecx

; 980  : {

  00000	6a 74		 push	 116			; 00000074H
  00002	b8 00 00 00 00	 mov	 eax, __ehhandler$?DecreaseGauge@ioDraculaItem@@IAEXXZ
  00007	e8 00 00 00 00	 call	 __EH_prolog3_GS
  0000c	83 65 84 00	 and	 DWORD PTR $T615340[ebp], 0
  00010	8b f1		 mov	 esi, ecx

; 981  : 	m_fCurGauge -= m_fNeedGauge;

  00012	8d 45 8c	 lea	 eax, DWORD PTR _value$615349[ebp]
  00015	50		 push	 eax
  00016	8d 8e c4 1a 00
	00		 lea	 ecx, DWORD PTR [esi+6852]
  0001c	e8 00 00 00 00	 call	 ?DecryptValueToPool@?$CEncrypt@M@@QAEXPAM@Z ; CEncrypt<float>::DecryptValueToPool
  00021	8d 45 88	 lea	 eax, DWORD PTR _value$615353[ebp]
  00024	8d be 24 1b 00
	00		 lea	 edi, DWORD PTR [esi+6948]
  0002a	50		 push	 eax
  0002b	8b cf		 mov	 ecx, edi
  0002d	e8 00 00 00 00	 call	 ?DecryptValueToPool@?$CEncrypt@M@@QAEXPAM@Z ; CEncrypt<float>::DecryptValueToPool
  00032	f3 0f 10 45 88	 movss	 xmm0, DWORD PTR _value$615353[ebp]
  00037	f3 0f 10 4d 8c	 movss	 xmm1, DWORD PTR _value$615349[ebp]
  0003c	0f 5a c0	 cvtps2pd xmm0, xmm0
  0003f	0f 5a c9	 cvtps2pd xmm1, xmm1
  00042	8d 45 88	 lea	 eax, DWORD PTR _value$615353[ebp]
  00045	f2 0f 5c c1	 subsd	 xmm0, xmm1
  00049	66 0f 5a c0	 cvtpd2ps xmm0, xmm0
  0004d	50		 push	 eax
  0004e	8b cf		 mov	 ecx, edi
  00050	f3 0f 11 45 88	 movss	 DWORD PTR _value$615353[ebp], xmm0
  00055	e8 00 00 00 00	 call	 ?EncryptValueToPool@?$CEncrypt@M@@AAEXPBD@Z ; CEncrypt<float>::EncryptValueToPool

; 982  : 	m_fCurGauge = (float)max( 0, min( m_fCurGauge, m_fMaxGauge ) );

  0005a	8d 45 88	 lea	 eax, DWORD PTR _value$615358[ebp]
  0005d	81 c6 94 1a 00
	00		 add	 esi, 6804		; 00001a94H
  00063	50		 push	 eax
  00064	8b ce		 mov	 ecx, esi
  00066	e8 00 00 00 00	 call	 ?DecryptValueToPool@?$CEncrypt@M@@QAEXPAM@Z ; CEncrypt<float>::DecryptValueToPool
  0006b	8d 45 8c	 lea	 eax, DWORD PTR _value$615364[ebp]
  0006e	50		 push	 eax
  0006f	8b cf		 mov	 ecx, edi
  00071	e8 00 00 00 00	 call	 ?DecryptValueToPool@?$CEncrypt@M@@QAEXPAM@Z ; CEncrypt<float>::DecryptValueToPool
  00076	f3 0f 10 45 8c	 movss	 xmm0, DWORD PTR _value$615364[ebp]
  0007b	f3 0f 10 4d 88	 movss	 xmm1, DWORD PTR _value$615358[ebp]
  00080	8d 45 8c	 lea	 eax, DWORD PTR _value$615370[ebp]
  00083	0f 5a c0	 cvtps2pd xmm0, xmm0
  00086	0f 5a c9	 cvtps2pd xmm1, xmm1
  00089	66 0f 2f c8	 comisd	 xmm1, xmm0
  0008d	8b cf		 mov	 ecx, edi
  0008f	50		 push	 eax
  00090	0f 46 ce	 cmovbe	 ecx, esi
  00093	e8 00 00 00 00	 call	 ?DecryptValueToPool@?$CEncrypt@M@@QAEXPAM@Z ; CEncrypt<float>::DecryptValueToPool
  00098	f3 0f 10 45 8c	 movss	 xmm0, DWORD PTR _value$615370[ebp]
  0009d	0f 57 c9	 xorps	 xmm1, xmm1
  000a0	0f 5a c0	 cvtps2pd xmm0, xmm0
  000a3	66 0f 2f c8	 comisd	 xmm1, xmm0
  000a7	76 21		 jbe	 SHORT $LN7@DecreaseGa
  000a9	0f 57 c0	 xorps	 xmm0, xmm0
  000ac	8d 45 8c	 lea	 eax, DWORD PTR $T615333[ebp]
  000af	50		 push	 eax
  000b0	8d 4d c0	 lea	 ecx, DWORD PTR $T608297[ebp]
  000b3	f3 0f 11 45 8c	 movss	 DWORD PTR $T615333[ebp], xmm0
  000b8	e8 00 00 00 00	 call	 ??0?$CEncrypt@M@@QAE@ABM@Z ; CEncrypt<float>::CEncrypt<float>
  000bd	83 65 fc 00	 and	 DWORD PTR __$EHRec$[ebp+8], 0
  000c1	c7 45 84 01 00
	00 00		 mov	 DWORD PTR $T615340[ebp], 1
  000c8	eb 44		 jmp	 SHORT $LN8@DecreaseGa
$LN7@DecreaseGa:
  000ca	8d 45 88	 lea	 eax, DWORD PTR _value$615374[ebp]
  000cd	50		 push	 eax
  000ce	8b ce		 mov	 ecx, esi
  000d0	e8 00 00 00 00	 call	 ?DecryptValueToPool@?$CEncrypt@M@@QAEXPAM@Z ; CEncrypt<float>::DecryptValueToPool
  000d5	8d 45 8c	 lea	 eax, DWORD PTR _value$615380[ebp]
  000d8	50		 push	 eax
  000d9	8b cf		 mov	 ecx, edi
  000db	e8 00 00 00 00	 call	 ?DecryptValueToPool@?$CEncrypt@M@@QAEXPAM@Z ; CEncrypt<float>::DecryptValueToPool
  000e0	f3 0f 10 45 8c	 movss	 xmm0, DWORD PTR _value$615380[ebp]
  000e5	f3 0f 10 4d 88	 movss	 xmm1, DWORD PTR _value$615374[ebp]
  000ea	0f 5a c0	 cvtps2pd xmm0, xmm0
  000ed	0f 5a c9	 cvtps2pd xmm1, xmm1
  000f0	66 0f 2f c8	 comisd	 xmm1, xmm0
  000f4	0f 47 f7	 cmova	 esi, edi
  000f7	56		 push	 esi
  000f8	8d 4d 90	 lea	 ecx, DWORD PTR $T608300[ebp]
  000fb	e8 00 00 00 00	 call	 ??0?$CEncrypt@M@@QAE@ABV0@@Z ; CEncrypt<float>::CEncrypt<float>
  00100	c7 45 fc 01 00
	00 00		 mov	 DWORD PTR __$EHRec$[ebp+8], 1
  00107	c7 45 84 02 00
	00 00		 mov	 DWORD PTR $T615340[ebp], 2
$LN8@DecreaseGa:
  0010e	8d 4d 8c	 lea	 ecx, DWORD PTR _value$615386[ebp]
  00111	51		 push	 ecx
  00112	8b c8		 mov	 ecx, eax
  00114	e8 00 00 00 00	 call	 ?DecryptValueToPool@?$CEncrypt@M@@QAEXPAM@Z ; CEncrypt<float>::DecryptValueToPool
  00119	f3 0f 10 45 8c	 movss	 xmm0, DWORD PTR _value$615386[ebp]
  0011e	8d 45 80	 lea	 eax, DWORD PTR _value$615390[ebp]
  00121	50		 push	 eax
  00122	8b cf		 mov	 ecx, edi
  00124	f3 0f 11 45 80	 movss	 DWORD PTR _value$615390[ebp], xmm0
  00129	e8 00 00 00 00	 call	 ?EncryptValueToPool@?$CEncrypt@M@@AAEXPBD@Z ; CEncrypt<float>::EncryptValueToPool
  0012e	83 65 fc 00	 and	 DWORD PTR __$EHRec$[ebp+8], 0
  00132	f6 45 84 02	 test	 BYTE PTR $T615340[ebp], 2
  00136	be 00 00 00 00	 mov	 esi, OFFSET ??_7?$CEncrypt@M@@6B@
  0013b	74 0f		 je	 SHORT $LN13@DecreaseGa
  0013d	83 65 84 fd	 and	 DWORD PTR $T615340[ebp], -3 ; fffffffdH
  00141	8d 4d 9c	 lea	 ecx, DWORD PTR $T608300[ebp+12]
  00144	89 75 90	 mov	 DWORD PTR $T608300[ebp], esi
  00147	e8 00 00 00 00	 call	 ??1ccddaabb@@UAE@XZ	; ccddaabb::~ccddaabb
$LN13@DecreaseGa:
  0014c	83 4d fc ff	 or	 DWORD PTR __$EHRec$[ebp+8], -1
  00150	f6 45 84 01	 test	 BYTE PTR $T615340[ebp], 1
  00154	74 0b		 je	 SHORT $LN14@DecreaseGa
  00156	8d 4d cc	 lea	 ecx, DWORD PTR $T608297[ebp+12]
  00159	89 75 c0	 mov	 DWORD PTR $T608297[ebp], esi
  0015c	e8 00 00 00 00	 call	 ??1ccddaabb@@UAE@XZ	; ccddaabb::~ccddaabb
$LN14@DecreaseGa:

; 983  : }

  00161	e8 00 00 00 00	 call	 __EH_epilog3_GS
  00166	c3		 ret	 0
_TEXT	ENDS
;	COMDAT text$x
text$x	SEGMENT
__unwindfunclet$?DecreaseGauge@ioDraculaItem@@IAEXXZ$0:
  00000	8b 45 84	 mov	 eax, DWORD PTR $T615340[ebp]
  00003	83 e0 01	 and	 eax, 1
  00006	0f 84 0c 00 00
	00		 je	 $LN10@DecreaseGa
  0000c	83 65 84 fe	 and	 DWORD PTR $T615340[ebp], -2 ; fffffffeH
  00010	8d 4d c0	 lea	 ecx, DWORD PTR $T608297[ebp]
  00013	e9 00 00 00 00	 jmp	 ??1?$CEncrypt@M@@UAE@XZ	; CEncrypt<float>::~CEncrypt<float>
$LN10@DecreaseGa:
  00018	c3		 ret	 0
__unwindfunclet$?DecreaseGauge@ioDraculaItem@@IAEXXZ$1:
  00019	8b 45 84	 mov	 eax, DWORD PTR $T615340[ebp]
  0001c	83 e0 02	 and	 eax, 2
  0001f	0f 84 0c 00 00
	00		 je	 $LN12@DecreaseGa
  00025	83 65 84 fd	 and	 DWORD PTR $T615340[ebp], -3 ; fffffffdH
  00029	8d 4d 90	 lea	 ecx, DWORD PTR $T608300[ebp]
  0002c	e9 00 00 00 00	 jmp	 ??1?$CEncrypt@M@@UAE@XZ	; CEncrypt<float>::~CEncrypt<float>
$LN12@DecreaseGa:
  00031	c3		 ret	 0
__ehhandler$?DecreaseGauge@ioDraculaItem@@IAEXXZ:
  00032	8b 54 24 08	 mov	 edx, DWORD PTR [esp+8]
  00036	8d 42 0c	 lea	 eax, DWORD PTR [edx+12]
  00039	8b 8a 7c ff ff
	ff		 mov	 ecx, DWORD PTR [edx-132]
  0003f	33 c8		 xor	 ecx, eax
  00041	e8 00 00 00 00	 call	 @__security_check_cookie@4
  00046	8b 4a fc	 mov	 ecx, DWORD PTR [edx-4]
  00049	33 c8		 xor	 ecx, eax
  0004b	e8 00 00 00 00	 call	 @__security_check_cookie@4
  00050	b8 00 00 00 00	 mov	 eax, OFFSET __ehfuncinfo$?DecreaseGauge@ioDraculaItem@@IAEXXZ
  00055	e9 00 00 00 00	 jmp	 ___CxxFrameHandler3
text$x	ENDS
?DecreaseGauge@ioDraculaItem@@IAEXXZ ENDP		; ioDraculaItem::DecreaseGauge
PUBLIC	?UpdateExtraData@ioDraculaItem@@UAEXPAVioBaseChar@@@Z ; ioDraculaItem::UpdateExtraData
EXTRN	?IsSystemState@ioBaseChar@@QAE_NXZ:PROC		; ioBaseChar::IsSystemState
; Function compile flags: /Ogsp
;	COMDAT ?UpdateExtraData@ioDraculaItem@@UAEXPAVioBaseChar@@@Z
_TEXT	SEGMENT
_value$615445 = -8					; size = 4
_fTimePerSec$ = -8					; size = 4
_value$615436 = -4					; size = 4
_value$615423 = -4					; size = 4
_value$615453 = 8					; size = 4
_value$615440 = 8					; size = 4
_value$615432 = 8					; size = 4
_pOwner$ = 8						; size = 4
?UpdateExtraData@ioDraculaItem@@UAEXPAVioBaseChar@@@Z PROC ; ioDraculaItem::UpdateExtraData, COMDAT
; _this$ = ecx

; 1006 : {

  00000	55		 push	 ebp
  00001	8b ec		 mov	 ebp, esp
  00003	51		 push	 ecx
  00004	51		 push	 ecx
  00005	56		 push	 esi
  00006	57		 push	 edi

; 1007 : 	if( !pOwner ) return;

  00007	8b 7d 08	 mov	 edi, DWORD PTR _pOwner$[ebp]
  0000a	8b f1		 mov	 esi, ecx
  0000c	85 ff		 test	 edi, edi
  0000e	0f 84 f6 00 00
	00		 je	 $LN1@UpdateExtr

; 1008 : 
; 1009 : 	// check owner state
; 1010 : 	float fTimePerSec = g_FrameTimer.GetSecPerFrame();

  00014	ff 15 00 00 00
	00		 call	 DWORD PTR __imp_?GetSingleton@ioFrameTimer@@SAAAV1@XZ
  0001a	8b c8		 mov	 ecx, eax
  0001c	ff 15 00 00 00
	00		 call	 DWORD PTR __imp_?GetSecPerFrame@ioFrameTimer@@QBEMXZ
  00022	d9 5d f8	 fstp	 DWORD PTR _fTimePerSec$[ebp]

; 1011 : 
; 1012 : 	if( pOwner->IsSystemState() )

  00025	8b cf		 mov	 ecx, edi
  00027	e8 00 00 00 00	 call	 ?IsSystemState@ioBaseChar@@QAE_NXZ ; ioBaseChar::IsSystemState
  0002c	84 c0		 test	 al, al
  0002e	0f 85 d6 00 00
	00		 jne	 $LN1@UpdateExtr

; 1013 : 		return;
; 1014 : 
; 1015 : 	switch( pOwner->GetState() )

  00034	80 bf 10 03 00
	00 02		 cmp	 BYTE PTR [edi+784], 2
  0003b	0f 87 c9 00 00
	00		 ja	 $LN1@UpdateExtr

; 1016 : 	{
; 1017 : 	case CS_DELAY:
; 1018 : 	case CS_RUN:
; 1019 : 	case CS_DASH:
; 1020 : 		if( m_fCurGauge < m_fMaxGauge )

  00041	53		 push	 ebx
  00042	8d 45 fc	 lea	 eax, DWORD PTR _value$615423[ebp]
  00045	8d 9e 94 1a 00
	00		 lea	 ebx, DWORD PTR [esi+6804]
  0004b	50		 push	 eax
  0004c	8b cb		 mov	 ecx, ebx
  0004e	e8 00 00 00 00	 call	 ?DecryptValueToPool@?$CEncrypt@M@@QAEXPAM@Z ; CEncrypt<float>::DecryptValueToPool
  00053	8d 45 08	 lea	 eax, DWORD PTR _value$615432[ebp]
  00056	8d be 24 1b 00
	00		 lea	 edi, DWORD PTR [esi+6948]
  0005c	50		 push	 eax
  0005d	8b cf		 mov	 ecx, edi
  0005f	e8 00 00 00 00	 call	 ?DecryptValueToPool@?$CEncrypt@M@@QAEXPAM@Z ; CEncrypt<float>::DecryptValueToPool
  00064	f3 0f 10 45 08	 movss	 xmm0, DWORD PTR _value$615432[ebp]
  00069	f3 0f 10 4d fc	 movss	 xmm1, DWORD PTR _value$615423[ebp]
  0006e	0f 5a c0	 cvtps2pd xmm0, xmm0
  00071	0f 5a c9	 cvtps2pd xmm1, xmm1
  00074	66 0f 2f c8	 comisd	 xmm1, xmm0
  00078	0f 86 8b 00 00
	00		 jbe	 $LN31@UpdateExtr

; 1021 : 		{
; 1022 : 			float fGauge = m_fIncreaseGauge * fTimePerSec;

  0007e	8d 45 fc	 lea	 eax, DWORD PTR _value$615436[ebp]
  00081	50		 push	 eax
  00082	8d 8e f4 1a 00
	00		 lea	 ecx, DWORD PTR [esi+6900]
  00088	e8 00 00 00 00	 call	 ?DecryptValueToPool@?$CEncrypt@M@@QAEXPAM@Z ; CEncrypt<float>::DecryptValueToPool

; 1023 : 
; 1024 : 			m_fCurGauge += fGauge;

  0008d	8d 45 08	 lea	 eax, DWORD PTR _value$615440[ebp]
  00090	50		 push	 eax
  00091	8b cf		 mov	 ecx, edi
  00093	e8 00 00 00 00	 call	 ?DecryptValueToPool@?$CEncrypt@M@@QAEXPAM@Z ; CEncrypt<float>::DecryptValueToPool
  00098	f3 0f 10 45 fc	 movss	 xmm0, DWORD PTR _value$615436[ebp]
  0009d	f3 0f 10 4d f8	 movss	 xmm1, DWORD PTR _fTimePerSec$[ebp]
  000a2	0f 5a c0	 cvtps2pd xmm0, xmm0
  000a5	0f 5a c9	 cvtps2pd xmm1, xmm1
  000a8	f2 0f 59 c1	 mulsd	 xmm0, xmm1
  000ac	f3 0f 10 4d 08	 movss	 xmm1, DWORD PTR _value$615440[ebp]
  000b1	66 0f 5a c0	 cvtpd2ps xmm0, xmm0
  000b5	f3 0f 5a c0	 cvtss2sd xmm0, xmm0
  000b9	0f 5a c9	 cvtps2pd xmm1, xmm1
  000bc	8d 45 08	 lea	 eax, DWORD PTR _value$615440[ebp]
  000bf	f2 0f 58 c1	 addsd	 xmm0, xmm1
  000c3	66 0f 5a c0	 cvtpd2ps xmm0, xmm0
  000c7	50		 push	 eax
  000c8	8b cf		 mov	 ecx, edi
  000ca	f3 0f 11 45 08	 movss	 DWORD PTR _value$615440[ebp], xmm0
  000cf	e8 00 00 00 00	 call	 ?EncryptValueToPool@?$CEncrypt@M@@AAEXPBD@Z ; CEncrypt<float>::EncryptValueToPool

; 1025 : 			m_fCurGauge = min( m_fCurGauge, m_fMaxGauge );

  000d4	8d 45 f8	 lea	 eax, DWORD PTR _value$615445[ebp]
  000d7	50		 push	 eax
  000d8	8b cb		 mov	 ecx, ebx
  000da	e8 00 00 00 00	 call	 ?DecryptValueToPool@?$CEncrypt@M@@QAEXPAM@Z ; CEncrypt<float>::DecryptValueToPool
  000df	8d 45 08	 lea	 eax, DWORD PTR _value$615453[ebp]
  000e2	50		 push	 eax
  000e3	8b cf		 mov	 ecx, edi
  000e5	e8 00 00 00 00	 call	 ?DecryptValueToPool@?$CEncrypt@M@@QAEXPAM@Z ; CEncrypt<float>::DecryptValueToPool
  000ea	f3 0f 10 45 08	 movss	 xmm0, DWORD PTR _value$615453[ebp]
  000ef	f3 0f 10 4d f8	 movss	 xmm1, DWORD PTR _value$615445[ebp]
  000f4	0f 5a c0	 cvtps2pd xmm0, xmm0
  000f7	0f 5a c9	 cvtps2pd xmm1, xmm1
  000fa	66 0f 2f c8	 comisd	 xmm1, xmm0
  000fe	0f 47 df	 cmova	 ebx, edi
  00101	53		 push	 ebx
  00102	8b cf		 mov	 ecx, edi
  00104	e8 00 00 00 00	 call	 ??4?$CEncrypt@M@@QAE_NAAV0@@Z ; CEncrypt<float>::operator=
$LN31@UpdateExtr:
  00109	5b		 pop	 ebx
$LN1@UpdateExtr:
  0010a	5f		 pop	 edi
  0010b	5e		 pop	 esi

; 1026 : 		}
; 1027 : 		return;
; 1028 : 	}
; 1029 : }

  0010c	c9		 leave
  0010d	c2 04 00	 ret	 4
?UpdateExtraData@ioDraculaItem@@UAEXPAVioBaseChar@@@Z ENDP ; ioDraculaItem::UpdateExtraData
_TEXT	ENDS
EXTRN	?SetFallState@ioBaseChar@@QAEX_N@Z:PROC		; ioBaseChar::SetFallState
EXTRN	?GetBottomHeight@ioGameEntity@@QBEMXZ:PROC	; ioGameEntity::GetBottomHeight
; Function compile flags: /Ogsp
;	COMDAT ?CheckSpecialState@ioDraculaFlySpecialState@@UAEXPAVioBaseChar@@@Z
_TEXT	SEGMENT
tv93 = -8						; size = 8
_value$615475 = -4					; size = 4
_fPreHeightForGhostState$608491 = 8			; size = 4
_fHeightGap$608489 = 8					; size = 4
_pOwner$ = 8						; size = 4
?CheckSpecialState@ioDraculaFlySpecialState@@UAEXPAVioBaseChar@@@Z PROC ; ioDraculaFlySpecialState::CheckSpecialState, COMDAT
; _this$ = ecx

; 1228 : {

  00000	55		 push	 ebp
  00001	8b ec		 mov	 ebp, esp
  00003	51		 push	 ecx
  00004	51		 push	 ecx
  00005	56		 push	 esi

; 1229 : 	ioDraculaItem *pDracula = ToDraculaItem( pOwner->GetPriorityItem( SPT_ATTACK ) );

  00006	8b 75 08	 mov	 esi, DWORD PTR _pOwner$[ebp]
  00009	57		 push	 edi
  0000a	6a 05		 push	 5
  0000c	8b ce		 mov	 ecx, esi
  0000e	e8 00 00 00 00	 call	 ?GetPriorityItem@ioBaseChar@@QBEPAVioAttackableItem@@W4StatePriorityType@@@Z ; ioBaseChar::GetPriorityItem
  00013	50		 push	 eax
  00014	e8 00 00 00 00	 call	 ?ToDraculaItem@@YAPAVioDraculaItem@@PAVioItem@@@Z ; ToDraculaItem
  00019	8b f8		 mov	 edi, eax
  0001b	59		 pop	 ecx

; 1230 : 	if( pDracula )
; 1231 : 	{
; 1232 : 		float fHeightGap = pOwner->GetWorldPosition().y - pOwner->GetBottomHeight();

  0001c	8b ce		 mov	 ecx, esi
  0001e	85 ff		 test	 edi, edi
  00020	0f 84 94 00 00
	00		 je	 $LN4@CheckSpeci
  00026	8b 06		 mov	 eax, DWORD PTR [esi]
  00028	ff 50 70	 call	 DWORD PTR [eax+112]
  0002b	d9 40 04	 fld	 DWORD PTR [eax+4]
  0002e	8b ce		 mov	 ecx, esi
  00030	dd 5d f8	 fstp	 QWORD PTR tv93[ebp]
  00033	e8 00 00 00 00	 call	 ?GetBottomHeight@ioGameEntity@@QBEMXZ ; ioGameEntity::GetBottomHeight
  00038	dc 6d f8	 fsubr	 QWORD PTR tv93[ebp]

; 1233 : 
; 1234 : 		if( pOwner->CheckGhostState() )

  0003b	80 be e4 38 00
	00 00		 cmp	 BYTE PTR [esi+14564], 0
  00042	d9 5d 08	 fstp	 DWORD PTR _fHeightGap$608489[ebp]
  00045	74 5e		 je	 SHORT $LN15@CheckSpeci

; 1235 : 		{
; 1236 : 			float fPreHeightForGhostState = pOwner->GetPreHeightForGhostState();

  00047	f3 0f 10 86 e0
	38 00 00	 movss	 xmm0, DWORD PTR [esi+14560]

; 1237 : 			if( pOwner->GetJumpState() == JS_JUMP_ATTACK && pOwner->GetBottomHeight() > 0.0f )

  0004f	8d 45 fc	 lea	 eax, DWORD PTR _value$615475[ebp]
  00052	50		 push	 eax
  00053	8d 8e 40 0e 00
	00		 lea	 ecx, DWORD PTR [esi+3648]
  00059	f3 0f 11 45 08	 movss	 DWORD PTR _fPreHeightForGhostState$608491[ebp], xmm0
  0005e	e8 00 00 00 00	 call	 ?DecryptValueToPool@?$CEncrypt@W4JumpState@@@@QAEXPAW4JumpState@@@Z ; CEncrypt<enum JumpState>::DecryptValueToPool
  00063	83 7d fc 04	 cmp	 DWORD PTR _value$615475[ebp], 4
  00067	75 1b		 jne	 SHORT $LN2@CheckSpeci
  00069	8b ce		 mov	 ecx, esi
  0006b	e8 00 00 00 00	 call	 ?GetBottomHeight@ioGameEntity@@QBEMXZ ; ioGameEntity::GetBottomHeight
  00070	d9 ee		 fldz
  00072	d9 c9		 fxch	 ST(1)
  00074	df f1		 fcomip	 ST(1)
  00076	dd d8		 fstp	 ST(0)
  00078	76 0a		 jbe	 SHORT $LN2@CheckSpeci

; 1238 : 				fPreHeightForGhostState = pOwner->GetBottomHeight();

  0007a	8b ce		 mov	 ecx, esi
  0007c	e8 00 00 00 00	 call	 ?GetBottomHeight@ioGameEntity@@QBEMXZ ; ioGameEntity::GetBottomHeight
  00081	d9 5d 08	 fstp	 DWORD PTR _fPreHeightForGhostState$608491[ebp]
$LN2@CheckSpeci:

; 1239 : 
; 1240 : 			fHeightGap = pOwner->GetWorldPosition().y - fPreHeightForGhostState;

  00084	8b 06		 mov	 eax, DWORD PTR [esi]
  00086	8b ce		 mov	 ecx, esi
  00088	ff 50 70	 call	 DWORD PTR [eax+112]
  0008b	f3 0f 10 40 04	 movss	 xmm0, DWORD PTR [eax+4]
  00090	f3 0f 10 4d 08	 movss	 xmm1, DWORD PTR _fPreHeightForGhostState$608491[ebp]
  00095	0f 5a c0	 cvtps2pd xmm0, xmm0
  00098	0f 5a c9	 cvtps2pd xmm1, xmm1
  0009b	f2 0f 5c c1	 subsd	 xmm0, xmm1
  0009f	66 0f 5a c0	 cvtpd2ps xmm0, xmm0
  000a3	eb 05		 jmp	 SHORT $LN3@CheckSpeci
$LN15@CheckSpeci:
  000a5	f3 0f 10 45 08	 movss	 xmm0, DWORD PTR _fHeightGap$608489[ebp]
$LN3@CheckSpeci:

; 1241 : 		}
; 1242 : 		
; 1243 : 		pDracula->ProcessFlyState( pOwner, fHeightGap );

  000aa	51		 push	 ecx
  000ab	f3 0f 11 04 24	 movss	 DWORD PTR [esp], xmm0
  000b0	56		 push	 esi
  000b1	8b cf		 mov	 ecx, edi
  000b3	e8 00 00 00 00	 call	 ?ProcessFlyState@ioDraculaItem@@QAEXPAVioBaseChar@@M@Z ; ioDraculaItem::ProcessFlyState

; 1244 : 	}
; 1245 : 	else

  000b8	eb 12		 jmp	 SHORT $LN1@CheckSpeci
$LN4@CheckSpeci:

; 1246 : 	{
; 1247 : 		pOwner->SetState( CS_DELAY );

  000ba	6a 01		 push	 1
  000bc	6a 00		 push	 0
  000be	e8 00 00 00 00	 call	 ?SetState@ioBaseChar@@QAEXH_N@Z ; ioBaseChar::SetState

; 1248 : 		pOwner->SetFallState( true );

  000c3	6a 01		 push	 1
  000c5	8b ce		 mov	 ecx, esi
  000c7	e8 00 00 00 00	 call	 ?SetFallState@ioBaseChar@@QAEX_N@Z ; ioBaseChar::SetFallState
$LN1@CheckSpeci:
  000cc	5f		 pop	 edi
  000cd	5e		 pop	 esi

; 1249 : 		return;
; 1250 : 	}
; 1251 : }

  000ce	c9		 leave
  000cf	c2 04 00	 ret	 4
?CheckSpecialState@ioDraculaFlySpecialState@@UAEXPAVioBaseChar@@@Z ENDP ; ioDraculaFlySpecialState::CheckSpecialState
_TEXT	ENDS
PUBLIC	??$_Dest_val@V?$allocator@VioHashString@@@std@@VioHashString@@@std@@YAXAAV?$allocator@VioHashString@@@0@PAVioHashString@@@Z ; std::_Dest_val<std::allocator<ioHashString>,ioHashString>
; Function compile flags: /Ogsp
; File c:\program files (x86)\microsoft visual studio 10.0\vc\include\xmemory
;	COMDAT ??$_Dest_val@V?$allocator@VioHashString@@@std@@VioHashString@@@std@@YAXAAV?$allocator@VioHashString@@@0@PAVioHashString@@@Z
_TEXT	SEGMENT
__Alval$ = 8						; size = 4
__Pdest$ = 12						; size = 4
??$_Dest_val@V?$allocator@VioHashString@@@std@@VioHashString@@@std@@YAXAAV?$allocator@VioHashString@@@0@PAVioHashString@@@Z PROC ; std::_Dest_val<std::allocator<ioHashString>,ioHashString>, COMDAT

; 286  : 	{	// destroy using allocator

  00000	55		 push	 ebp
  00001	8b ec		 mov	 ebp, esp

; 287  : 	_Alval.destroy(_Pdest);

  00003	8b 4d 0c	 mov	 ecx, DWORD PTR __Pdest$[ebp]

; 288  : 	}

  00006	5d		 pop	 ebp

; 287  : 	_Alval.destroy(_Pdest);

  00007	ff 25 00 00 00
	00		 jmp	 DWORD PTR __imp_??1ioHashString@@QAE@XZ
??$_Dest_val@V?$allocator@VioHashString@@@std@@VioHashString@@@std@@YAXAAV?$allocator@VioHashString@@@0@PAVioHashString@@@Z ENDP ; std::_Dest_val<std::allocator<ioHashString>,ioHashString>
_TEXT	ENDS
PUBLIC	??$_Uninit_copy@PAVioHashString@@PAV1@V?$allocator@VioHashString@@@std@@@std@@YAPAVioHashString@@PAV1@00AAV?$allocator@VioHashString@@@0@U_Nonscalar_ptr_iterator_tag@0@@Z ; std::_Uninit_copy<ioHashString *,ioHashString *,std::allocator<ioHashString> >
EXTRN	__EH_prolog3_catch:PROC
;	COMDAT xdata$x
; File c:\program files (x86)\microsoft visual studio 10.0\vc\include\vector
xdata$x	SEGMENT
__catchsym$??$_Uninit_copy@PAVioHashString@@PAV1@V?$allocator@VioHashString@@@std@@@std@@YAPAVioHashString@@PAV1@00AAV?$allocator@VioHashString@@@0@U_Nonscalar_ptr_iterator_tag@0@@Z$2 DD 040H
	DD	00H
	DD	00H
	DD	FLAT:__catch$??$_Uninit_copy@PAVioHashString@@PAV1@V?$allocator@VioHashString@@@std@@@std@@YAPAVioHashString@@PAV1@00AAV?$allocator@VioHashString@@@0@U_Nonscalar_ptr_iterator_tag@0@@Z$0
__unwindtable$??$_Uninit_copy@PAVioHashString@@PAV1@V?$allocator@VioHashString@@@std@@@std@@YAPAVioHashString@@PAV1@00AAV?$allocator@VioHashString@@@0@U_Nonscalar_ptr_iterator_tag@0@@Z DD 0ffffffffH
	DD	00H
	DD	0ffffffffH
	DD	00H
__tryblocktable$??$_Uninit_copy@PAVioHashString@@PAV1@V?$allocator@VioHashString@@@std@@@std@@YAPAVioHashString@@PAV1@00AAV?$allocator@VioHashString@@@0@U_Nonscalar_ptr_iterator_tag@0@@Z DD 00H
	DD	00H
	DD	01H
	DD	01H
	DD	FLAT:__catchsym$??$_Uninit_copy@PAVioHashString@@PAV1@V?$allocator@VioHashString@@@std@@@std@@YAPAVioHashString@@PAV1@00AAV?$allocator@VioHashString@@@0@U_Nonscalar_ptr_iterator_tag@0@@Z$2
__ehfuncinfo$??$_Uninit_copy@PAVioHashString@@PAV1@V?$allocator@VioHashString@@@std@@@std@@YAPAVioHashString@@PAV1@00AAV?$allocator@VioHashString@@@0@U_Nonscalar_ptr_iterator_tag@0@@Z DD 019930522H
	DD	02H
	DD	FLAT:__unwindtable$??$_Uninit_copy@PAVioHashString@@PAV1@V?$allocator@VioHashString@@@std@@@std@@YAPAVioHashString@@PAV1@00AAV?$allocator@VioHashString@@@0@U_Nonscalar_ptr_iterator_tag@0@@Z
	DD	01H
	DD	FLAT:__tryblocktable$??$_Uninit_copy@PAVioHashString@@PAV1@V?$allocator@VioHashString@@@std@@@std@@YAPAVioHashString@@PAV1@00AAV?$allocator@VioHashString@@@0@U_Nonscalar_ptr_iterator_tag@0@@Z
	DD	2 DUP(00H)
	DD	00H
	DD	01H
; Function compile flags: /Ogsp
; File c:\program files (x86)\microsoft visual studio 10.0\vc\include\memory
xdata$x	ENDS
;	COMDAT ??$_Uninit_copy@PAVioHashString@@PAV1@V?$allocator@VioHashString@@@std@@@std@@YAPAVioHashString@@PAV1@00AAV?$allocator@VioHashString@@@0@U_Nonscalar_ptr_iterator_tag@0@@Z
_TEXT	SEGMENT
__Next$ = -20						; size = 4
__$EHRec$ = -16						; size = 16
__First$ = 8						; size = 4
__Last$ = 12						; size = 4
__Dest$ = 16						; size = 4
__Al$ = 20						; size = 4
___formal$ = 24						; size = 1
??$_Uninit_copy@PAVioHashString@@PAV1@V?$allocator@VioHashString@@@std@@@std@@YAPAVioHashString@@PAV1@00AAV?$allocator@VioHashString@@@0@U_Nonscalar_ptr_iterator_tag@0@@Z PROC ; std::_Uninit_copy<ioHashString *,ioHashString *,std::allocator<ioHashString> >, COMDAT

; 369  : 	{	// copy [_First, _Last) to raw _Dest, using _Al, arbitrary type

  00000	6a 08		 push	 8
  00002	b8 00 00 00 00	 mov	 eax, __ehhandler$??$_Uninit_copy@PAVioHashString@@PAV1@V?$allocator@VioHashString@@@std@@@std@@YAPAVioHashString@@PAV1@00AAV?$allocator@VioHashString@@@0@U_Nonscalar_ptr_iterator_tag@0@@Z
  00007	e8 00 00 00 00	 call	 __EH_prolog3_catch

; 370  : 	_DEBUG_RANGE(_First, _Last);
; 371  : 	_DEBUG_POINTER(_Dest);
; 372  : 	_FwdIt _Next = _Dest;

  0000c	8b 45 10	 mov	 eax, DWORD PTR __Dest$[ebp]

; 373  : 
; 374  : 	_TRY_BEGIN

  0000f	83 65 fc 00	 and	 DWORD PTR __$EHRec$[ebp+12], 0
  00013	8b 75 08	 mov	 esi, DWORD PTR __First$[ebp]
  00016	89 45 ec	 mov	 DWORD PTR __Next$[ebp], eax
$LL6@Uninit_cop:

; 375  : 	for (; _First != _Last; ++_Dest, ++_First)

  00019	3b 75 0c	 cmp	 esi, DWORD PTR __Last$[ebp]
  0001c	74 33		 je	 SHORT $LN4@Uninit_cop

; 376  : 		_Cons_val(_Al, _Dest, *_First);

  0001e	8b 4d 14	 mov	 ecx, DWORD PTR __Al$[ebp]
  00021	56		 push	 esi
  00022	ff 75 10	 push	 DWORD PTR __Dest$[ebp]
  00025	e8 00 00 00 00	 call	 ??$construct@AAVioHashString@@@?$allocator@VioHashString@@@std@@QAEXPAVioHashString@@AAV2@@Z ; std::allocator<ioHashString>::construct<ioHashString &>
  0002a	83 45 10 10	 add	 DWORD PTR __Dest$[ebp], 16 ; 00000010H
  0002e	83 c6 10	 add	 esi, 16			; 00000010H
  00031	eb e6		 jmp	 SHORT $LL6@Uninit_cop
__catch$??$_Uninit_copy@PAVioHashString@@PAV1@V?$allocator@VioHashString@@@std@@@std@@YAPAVioHashString@@PAV1@00AAV?$allocator@VioHashString@@@0@U_Nonscalar_ptr_iterator_tag@0@@Z$0:

; 377  : 	_CATCH_ALL
; 378  : 	for (; _Next != _Dest; ++_Next)

  00033	8b 75 ec	 mov	 esi, DWORD PTR __Next$[ebp]
  00036	eb 0b		 jmp	 SHORT $LN33@Uninit_cop
$LL3@Uninit_cop:

; 379  : 		_Dest_val(_Al, _Next);

  00038	8b ce		 mov	 ecx, esi
  0003a	ff 15 00 00 00
	00		 call	 DWORD PTR __imp_??1ioHashString@@QAE@XZ
  00040	83 c6 10	 add	 esi, 16			; 00000010H
$LN33@Uninit_cop:

; 377  : 	_CATCH_ALL
; 378  : 	for (; _Next != _Dest; ++_Next)

  00043	3b 75 10	 cmp	 esi, DWORD PTR __Dest$[ebp]
  00046	75 f0		 jne	 SHORT $LL3@Uninit_cop

; 380  : 	_RERAISE;

  00048	6a 00		 push	 0
  0004a	6a 00		 push	 0
  0004c	e8 00 00 00 00	 call	 __CxxThrowException@8
$LN34@Uninit_cop:
$LN4@Uninit_cop:

; 381  : 	_CATCH_END
; 382  : 	return (_Dest);

  00051	8b 45 10	 mov	 eax, DWORD PTR __Dest$[ebp]

; 383  : 	}

  00054	e8 00 00 00 00	 call	 __EH_epilog3
  00059	c3		 ret	 0
$LN32@Uninit_cop:
_TEXT	ENDS
;	COMDAT text$x
text$x	SEGMENT
__ehhandler$??$_Uninit_copy@PAVioHashString@@PAV1@V?$allocator@VioHashString@@@std@@@std@@YAPAVioHashString@@PAV1@00AAV?$allocator@VioHashString@@@0@U_Nonscalar_ptr_iterator_tag@0@@Z:
  00000	8b 54 24 08	 mov	 edx, DWORD PTR [esp+8]
  00004	8d 42 0c	 lea	 eax, DWORD PTR [edx+12]
  00007	8b 4a e8	 mov	 ecx, DWORD PTR [edx-24]
  0000a	33 c8		 xor	 ecx, eax
  0000c	e8 00 00 00 00	 call	 @__security_check_cookie@4
  00011	b8 00 00 00 00	 mov	 eax, OFFSET __ehfuncinfo$??$_Uninit_copy@PAVioHashString@@PAV1@V?$allocator@VioHashString@@@std@@@std@@YAPAVioHashString@@PAV1@00AAV?$allocator@VioHashString@@@0@U_Nonscalar_ptr_iterator_tag@0@@Z
  00016	e9 00 00 00 00	 jmp	 ___CxxFrameHandler3
text$x	ENDS
??$_Uninit_copy@PAVioHashString@@PAV1@V?$allocator@VioHashString@@@std@@@std@@YAPAVioHashString@@PAV1@00AAV?$allocator@VioHashString@@@0@U_Nonscalar_ptr_iterator_tag@0@@Z ENDP ; std::_Uninit_copy<ioHashString *,ioHashString *,std::allocator<ioHashString> >
PUBLIC	??$_Uninit_move@PAVioHashString@@PAV1@V?$allocator@VioHashString@@@std@@V1@@std@@YAPAVioHashString@@PAV1@00AAV?$allocator@VioHashString@@@0@0U_Nonscalar_ptr_iterator_tag@0@@Z ; std::_Uninit_move<ioHashString *,ioHashString *,std::allocator<ioHashString>,ioHashString>
;	COMDAT xdata$x
; File c:\program files (x86)\microsoft visual studio 10.0\vc\include\vector
xdata$x	SEGMENT
__catchsym$??$_Uninit_move@PAVioHashString@@PAV1@V?$allocator@VioHashString@@@std@@V1@@std@@YAPAVioHashString@@PAV1@00AAV?$allocator@VioHashString@@@0@0U_Nonscalar_ptr_iterator_tag@0@@Z$2 DD 040H
	DD	00H
	DD	00H
	DD	FLAT:__catch$??$_Uninit_move@PAVioHashString@@PAV1@V?$allocator@VioHashString@@@std@@V1@@std@@YAPAVioHashString@@PAV1@00AAV?$allocator@VioHashString@@@0@0U_Nonscalar_ptr_iterator_tag@0@@Z$0
__unwindtable$??$_Uninit_move@PAVioHashString@@PAV1@V?$allocator@VioHashString@@@std@@V1@@std@@YAPAVioHashString@@PAV1@00AAV?$allocator@VioHashString@@@0@0U_Nonscalar_ptr_iterator_tag@0@@Z DD 0ffffffffH
	DD	00H
	DD	0ffffffffH
	DD	00H
__tryblocktable$??$_Uninit_move@PAVioHashString@@PAV1@V?$allocator@VioHashString@@@std@@V1@@std@@YAPAVioHashString@@PAV1@00AAV?$allocator@VioHashString@@@0@0U_Nonscalar_ptr_iterator_tag@0@@Z DD 00H
	DD	00H
	DD	01H
	DD	01H
	DD	FLAT:__catchsym$??$_Uninit_move@PAVioHashString@@PAV1@V?$allocator@VioHashString@@@std@@V1@@std@@YAPAVioHashString@@PAV1@00AAV?$allocator@VioHashString@@@0@0U_Nonscalar_ptr_iterator_tag@0@@Z$2
__ehfuncinfo$??$_Uninit_move@PAVioHashString@@PAV1@V?$allocator@VioHashString@@@std@@V1@@std@@YAPAVioHashString@@PAV1@00AAV?$allocator@VioHashString@@@0@0U_Nonscalar_ptr_iterator_tag@0@@Z DD 019930522H
	DD	02H
	DD	FLAT:__unwindtable$??$_Uninit_move@PAVioHashString@@PAV1@V?$allocator@VioHashString@@@std@@V1@@std@@YAPAVioHashString@@PAV1@00AAV?$allocator@VioHashString@@@0@0U_Nonscalar_ptr_iterator_tag@0@@Z
	DD	01H
	DD	FLAT:__tryblocktable$??$_Uninit_move@PAVioHashString@@PAV1@V?$allocator@VioHashString@@@std@@V1@@std@@YAPAVioHashString@@PAV1@00AAV?$allocator@VioHashString@@@0@0U_Nonscalar_ptr_iterator_tag@0@@Z
	DD	2 DUP(00H)
	DD	00H
	DD	01H
; Function compile flags: /Ogsp
; File c:\program files (x86)\microsoft visual studio 10.0\vc\include\memory
xdata$x	ENDS
;	COMDAT ??$_Uninit_move@PAVioHashString@@PAV1@V?$allocator@VioHashString@@@std@@V1@@std@@YAPAVioHashString@@PAV1@00AAV?$allocator@VioHashString@@@0@0U_Nonscalar_ptr_iterator_tag@0@@Z
_TEXT	SEGMENT
__Next$ = -20						; size = 4
__$EHRec$ = -16						; size = 16
__First$ = 8						; size = 4
__Last$ = 12						; size = 4
__Dest$ = 16						; size = 4
__Al$ = 20						; size = 4
___formal$ = 24						; size = 4
___formal$ = 28						; size = 1
??$_Uninit_move@PAVioHashString@@PAV1@V?$allocator@VioHashString@@@std@@V1@@std@@YAPAVioHashString@@PAV1@00AAV?$allocator@VioHashString@@@0@0U_Nonscalar_ptr_iterator_tag@0@@Z PROC ; std::_Uninit_move<ioHashString *,ioHashString *,std::allocator<ioHashString>,ioHashString>, COMDAT

; 424  : 	{	// move [_First, _Last) to raw _Dest, using _Al, arbitrary type

  00000	6a 08		 push	 8
  00002	b8 00 00 00 00	 mov	 eax, __ehhandler$??$_Uninit_move@PAVioHashString@@PAV1@V?$allocator@VioHashString@@@std@@V1@@std@@YAPAVioHashString@@PAV1@00AAV?$allocator@VioHashString@@@0@0U_Nonscalar_ptr_iterator_tag@0@@Z
  00007	e8 00 00 00 00	 call	 __EH_prolog3_catch

; 425  : 	_DEBUG_RANGE(_First, _Last);
; 426  : 	_DEBUG_POINTER(_Dest);
; 427  : 	_FwdIt _Next = _Dest;

  0000c	8b 45 10	 mov	 eax, DWORD PTR __Dest$[ebp]

; 428  : 
; 429  : 	_TRY_BEGIN

  0000f	83 65 fc 00	 and	 DWORD PTR __$EHRec$[ebp+12], 0
  00013	8b 75 08	 mov	 esi, DWORD PTR __First$[ebp]
  00016	89 45 ec	 mov	 DWORD PTR __Next$[ebp], eax
$LL6@Uninit_mov:

; 430  : 	for (; _First != _Last; ++_Dest, ++_First)

  00019	3b 75 0c	 cmp	 esi, DWORD PTR __Last$[ebp]
  0001c	74 33		 je	 SHORT $LN4@Uninit_mov

; 431  : 		_Cons_val(_Al, _Dest, (_Valty &&)*_First);

  0001e	8b 4d 14	 mov	 ecx, DWORD PTR __Al$[ebp]
  00021	56		 push	 esi
  00022	ff 75 10	 push	 DWORD PTR __Dest$[ebp]
  00025	e8 00 00 00 00	 call	 ?construct@?$allocator@VioHashString@@@std@@QAEXPAVioHashString@@$$QAV3@@Z ; std::allocator<ioHashString>::construct
  0002a	83 45 10 10	 add	 DWORD PTR __Dest$[ebp], 16 ; 00000010H
  0002e	83 c6 10	 add	 esi, 16			; 00000010H
  00031	eb e6		 jmp	 SHORT $LL6@Uninit_mov
__catch$??$_Uninit_move@PAVioHashString@@PAV1@V?$allocator@VioHashString@@@std@@V1@@std@@YAPAVioHashString@@PAV1@00AAV?$allocator@VioHashString@@@0@0U_Nonscalar_ptr_iterator_tag@0@@Z$0:

; 432  : 	_CATCH_ALL
; 433  : 	for (; _Next != _Dest; ++_Next)

  00033	8b 75 ec	 mov	 esi, DWORD PTR __Next$[ebp]
  00036	eb 0b		 jmp	 SHORT $LN33@Uninit_mov
$LL3@Uninit_mov:

; 434  : 		_Dest_val(_Al, _Next);

  00038	8b ce		 mov	 ecx, esi
  0003a	ff 15 00 00 00
	00		 call	 DWORD PTR __imp_??1ioHashString@@QAE@XZ
  00040	83 c6 10	 add	 esi, 16			; 00000010H
$LN33@Uninit_mov:

; 432  : 	_CATCH_ALL
; 433  : 	for (; _Next != _Dest; ++_Next)

  00043	3b 75 10	 cmp	 esi, DWORD PTR __Dest$[ebp]
  00046	75 f0		 jne	 SHORT $LL3@Uninit_mov

; 435  : 	_RERAISE;

  00048	6a 00		 push	 0
  0004a	6a 00		 push	 0
  0004c	e8 00 00 00 00	 call	 __CxxThrowException@8
$LN34@Uninit_mov:
$LN4@Uninit_mov:

; 436  : 	_CATCH_END
; 437  : 	return (_Dest);

  00051	8b 45 10	 mov	 eax, DWORD PTR __Dest$[ebp]

; 438  : 	}

  00054	e8 00 00 00 00	 call	 __EH_epilog3
  00059	c3		 ret	 0
$LN32@Uninit_mov:
_TEXT	ENDS
;	COMDAT text$x
text$x	SEGMENT
__ehhandler$??$_Uninit_move@PAVioHashString@@PAV1@V?$allocator@VioHashString@@@std@@V1@@std@@YAPAVioHashString@@PAV1@00AAV?$allocator@VioHashString@@@0@0U_Nonscalar_ptr_iterator_tag@0@@Z:
  00000	8b 54 24 08	 mov	 edx, DWORD PTR [esp+8]
  00004	8d 42 0c	 lea	 eax, DWORD PTR [edx+12]
  00007	8b 4a e8	 mov	 ecx, DWORD PTR [edx-24]
  0000a	33 c8		 xor	 ecx, eax
  0000c	e8 00 00 00 00	 call	 @__security_check_cookie@4
  00011	b8 00 00 00 00	 mov	 eax, OFFSET __ehfuncinfo$??$_Uninit_move@PAVioHashString@@PAV1@V?$allocator@VioHashString@@@std@@V1@@std@@YAPAVioHashString@@PAV1@00AAV?$allocator@VioHashString@@@0@0U_Nonscalar_ptr_iterator_tag@0@@Z
  00016	e9 00 00 00 00	 jmp	 ___CxxFrameHandler3
text$x	ENDS
??$_Uninit_move@PAVioHashString@@PAV1@V?$allocator@VioHashString@@@std@@V1@@std@@YAPAVioHashString@@PAV1@00AAV?$allocator@VioHashString@@@0@0U_Nonscalar_ptr_iterator_tag@0@@Z ENDP ; std::_Uninit_move<ioHashString *,ioHashString *,std::allocator<ioHashString>,ioHashString>
PUBLIC	??$_Destroy_range@V?$allocator@VioHashString@@@std@@@std@@YAXPAVioHashString@@0AAV?$allocator@VioHashString@@@0@U_Nonscalar_ptr_iterator_tag@0@@Z ; std::_Destroy_range<std::allocator<ioHashString> >
; Function compile flags: /Ogsp
; File c:\program files (x86)\microsoft visual studio 10.0\vc\include\xmemory
;	COMDAT ??$_Destroy_range@V?$allocator@VioHashString@@@std@@@std@@YAXPAVioHashString@@0AAV?$allocator@VioHashString@@@0@U_Nonscalar_ptr_iterator_tag@0@@Z
_TEXT	SEGMENT
__First$ = 8						; size = 4
__Last$ = 12						; size = 4
__Al$ = 16						; size = 4
___formal$ = 20						; size = 1
??$_Destroy_range@V?$allocator@VioHashString@@@std@@@std@@YAXPAVioHashString@@0AAV?$allocator@VioHashString@@@0@U_Nonscalar_ptr_iterator_tag@0@@Z PROC ; std::_Destroy_range<std::allocator<ioHashString> >, COMDAT

; 95   : 	{	// destroy [_First, _Last), arbitrary type

  00000	55		 push	 ebp
  00001	8b ec		 mov	 ebp, esp
  00003	56		 push	 esi

; 96   : 	for (; _First != _Last; ++_First)

  00004	8b 75 08	 mov	 esi, DWORD PTR __First$[ebp]
  00007	eb 0b		 jmp	 SHORT $LN17@Destroy_ra
$LL3@Destroy_ra:

; 97   : 		_Dest_val(_Al, _First);

  00009	8b ce		 mov	 ecx, esi
  0000b	ff 15 00 00 00
	00		 call	 DWORD PTR __imp_??1ioHashString@@QAE@XZ
  00011	83 c6 10	 add	 esi, 16			; 00000010H
$LN17@Destroy_ra:

; 96   : 	for (; _First != _Last; ++_First)

  00014	3b 75 0c	 cmp	 esi, DWORD PTR __Last$[ebp]
  00017	75 f0		 jne	 SHORT $LL3@Destroy_ra
  00019	5e		 pop	 esi

; 98   : 	}

  0001a	5d		 pop	 ebp
  0001b	c3		 ret	 0
??$_Destroy_range@V?$allocator@VioHashString@@@std@@@std@@YAXPAVioHashString@@0AAV?$allocator@VioHashString@@@0@U_Nonscalar_ptr_iterator_tag@0@@Z ENDP ; std::_Destroy_range<std::allocator<ioHashString> >
_TEXT	ENDS
PUBLIC	??$_Uninit_copy@V?$_Vector_const_iterator@V?$_Vector_val@VioHashString@@V?$allocator@VioHashString@@@std@@@std@@@std@@PAVioHashString@@V?$allocator@VioHashString@@@2@@std@@YAPAVioHashString@@V?$_Vector_const_iterator@V?$_Vector_val@VioHashString@@V?$allocator@VioHashString@@@std@@@std@@@0@0PAV1@AAV?$allocator@VioHashString@@@0@U_Nonscalar_ptr_iterator_tag@0@@Z ; std::_Uninit_copy<std::_Vector_const_iterator<std::_Vector_val<ioHashString,std::allocator<ioHashString> > >,ioHashString *,std::allocator<ioHashString> >
;	COMDAT xdata$x
; File c:\program files (x86)\microsoft visual studio 10.0\vc\include\vector
xdata$x	SEGMENT
__catchsym$??$_Uninit_copy@V?$_Vector_const_iterator@V?$_Vector_val@VioHashString@@V?$allocator@VioHashString@@@std@@@std@@@std@@PAVioHashString@@V?$allocator@VioHashString@@@2@@std@@YAPAVioHashString@@V?$_Vector_const_iterator@V?$_Vector_val@VioHashString@@V?$allocator@VioHashString@@@std@@@std@@@0@0PAV1@AAV?$allocator@VioHashString@@@0@U_Nonscalar_ptr_iterator_tag@0@@Z$2 DD 040H
	DD	00H
	DD	00H
	DD	FLAT:__catch$??$_Uninit_copy@V?$_Vector_const_iterator@V?$_Vector_val@VioHashString@@V?$allocator@VioHashString@@@std@@@std@@@std@@PAVioHashString@@V?$allocator@VioHashString@@@2@@std@@YAPAVioHashString@@V?$_Vector_const_iterator@V?$_Vector_val@VioHashString@@V?$allocator@VioHashString@@@std@@@std@@@0@0PAV1@AAV?$allocator@VioHashString@@@0@U_Nonscalar_ptr_iterator_tag@0@@Z$0
__unwindtable$??$_Uninit_copy@V?$_Vector_const_iterator@V?$_Vector_val@VioHashString@@V?$allocator@VioHashString@@@std@@@std@@@std@@PAVioHashString@@V?$allocator@VioHashString@@@2@@std@@YAPAVioHashString@@V?$_Vector_const_iterator@V?$_Vector_val@VioHashString@@V?$allocator@VioHashString@@@std@@@std@@@0@0PAV1@AAV?$allocator@VioHashString@@@0@U_Nonscalar_ptr_iterator_tag@0@@Z DD 0ffffffffH
	DD	00H
	DD	0ffffffffH
	DD	00H
__tryblocktable$??$_Uninit_copy@V?$_Vector_const_iterator@V?$_Vector_val@VioHashString@@V?$allocator@VioHashString@@@std@@@std@@@std@@PAVioHashString@@V?$allocator@VioHashString@@@2@@std@@YAPAVioHashString@@V?$_Vector_const_iterator@V?$_Vector_val@VioHashString@@V?$allocator@VioHashString@@@std@@@std@@@0@0PAV1@AAV?$allocator@VioHashString@@@0@U_Nonscalar_ptr_iterator_tag@0@@Z DD 00H
	DD	00H
	DD	01H
	DD	01H
	DD	FLAT:__catchsym$??$_Uninit_copy@V?$_Vector_const_iterator@V?$_Vector_val@VioHashString@@V?$allocator@VioHashString@@@std@@@std@@@std@@PAVioHashString@@V?$allocator@VioHashString@@@2@@std@@YAPAVioHashString@@V?$_Vector_const_iterator@V?$_Vector_val@VioHashString@@V?$allocator@VioHashString@@@std@@@std@@@0@0PAV1@AAV?$allocator@VioHashString@@@0@U_Nonscalar_ptr_iterator_tag@0@@Z$2
__ehfuncinfo$??$_Uninit_copy@V?$_Vector_const_iterator@V?$_Vector_val@VioHashString@@V?$allocator@VioHashString@@@std@@@std@@@std@@PAVioHashString@@V?$allocator@VioHashString@@@2@@std@@YAPAVioHashString@@V?$_Vector_const_iterator@V?$_Vector_val@VioHashString@@V?$allocator@VioHashString@@@std@@@std@@@0@0PAV1@AAV?$allocator@VioHashString@@@0@U_Nonscalar_ptr_iterator_tag@0@@Z DD 019930522H
	DD	02H
	DD	FLAT:__unwindtable$??$_Uninit_copy@V?$_Vector_const_iterator@V?$_Vector_val@VioHashString@@V?$allocator@VioHashString@@@std@@@std@@@std@@PAVioHashString@@V?$allocator@VioHashString@@@2@@std@@YAPAVioHashString@@V?$_Vector_const_iterator@V?$_Vector_val@VioHashString@@V?$allocator@VioHashString@@@std@@@std@@@0@0PAV1@AAV?$allocator@VioHashString@@@0@U_Nonscalar_ptr_iterator_tag@0@@Z
	DD	01H
	DD	FLAT:__tryblocktable$??$_Uninit_copy@V?$_Vector_const_iterator@V?$_Vector_val@VioHashString@@V?$allocator@VioHashString@@@std@@@std@@@std@@PAVioHashString@@V?$allocator@VioHashString@@@2@@std@@YAPAVioHashString@@V?$_Vector_const_iterator@V?$_Vector_val@VioHashString@@V?$allocator@VioHashString@@@std@@@std@@@0@0PAV1@AAV?$allocator@VioHashString@@@0@U_Nonscalar_ptr_iterator_tag@0@@Z
	DD	2 DUP(00H)
	DD	00H
	DD	01H
; Function compile flags: /Ogsp
; File c:\program files (x86)\microsoft visual studio 10.0\vc\include\memory
xdata$x	ENDS
;	COMDAT ??$_Uninit_copy@V?$_Vector_const_iterator@V?$_Vector_val@VioHashString@@V?$allocator@VioHashString@@@std@@@std@@@std@@PAVioHashString@@V?$allocator@VioHashString@@@2@@std@@YAPAVioHashString@@V?$_Vector_const_iterator@V?$_Vector_val@VioHashString@@V?$allocator@VioHashString@@@std@@@std@@@0@0PAV1@AAV?$allocator@VioHashString@@@0@U_Nonscalar_ptr_iterator_tag@0@@Z
_TEXT	SEGMENT
__Next$ = -20						; size = 4
__$EHRec$ = -16						; size = 16
__First$ = 8						; size = 4
__Last$ = 12						; size = 4
__Dest$ = 16						; size = 4
__Al$ = 20						; size = 4
___formal$ = 24						; size = 1
??$_Uninit_copy@V?$_Vector_const_iterator@V?$_Vector_val@VioHashString@@V?$allocator@VioHashString@@@std@@@std@@@std@@PAVioHashString@@V?$allocator@VioHashString@@@2@@std@@YAPAVioHashString@@V?$_Vector_const_iterator@V?$_Vector_val@VioHashString@@V?$allocator@VioHashString@@@std@@@std@@@0@0PAV1@AAV?$allocator@VioHashString@@@0@U_Nonscalar_ptr_iterator_tag@0@@Z PROC ; std::_Uninit_copy<std::_Vector_const_iterator<std::_Vector_val<ioHashString,std::allocator<ioHashString> > >,ioHashString *,std::allocator<ioHashString> >, COMDAT

; 369  : 	{	// copy [_First, _Last) to raw _Dest, using _Al, arbitrary type

  00000	6a 08		 push	 8
  00002	b8 00 00 00 00	 mov	 eax, __ehhandler$??$_Uninit_copy@V?$_Vector_const_iterator@V?$_Vector_val@VioHashString@@V?$allocator@VioHashString@@@std@@@std@@@std@@PAVioHashString@@V?$allocator@VioHashString@@@2@@std@@YAPAVioHashString@@V?$_Vector_const_iterator@V?$_Vector_val@VioHashString@@V?$allocator@VioHashString@@@std@@@std@@@0@0PAV1@AAV?$allocator@VioHashString@@@0@U_Nonscalar_ptr_iterator_tag@0@@Z
  00007	e8 00 00 00 00	 call	 __EH_prolog3_catch

; 370  : 	_DEBUG_RANGE(_First, _Last);
; 371  : 	_DEBUG_POINTER(_Dest);
; 372  : 	_FwdIt _Next = _Dest;

  0000c	8b 45 10	 mov	 eax, DWORD PTR __Dest$[ebp]

; 373  : 
; 374  : 	_TRY_BEGIN

  0000f	83 65 fc 00	 and	 DWORD PTR __$EHRec$[ebp+12], 0
  00013	89 45 ec	 mov	 DWORD PTR __Next$[ebp], eax

; 375  : 	for (; _First != _Last; ++_Dest, ++_First)

$LL14@Uninit_cop@2:
  00016	8b 45 08	 mov	 eax, DWORD PTR __First$[ebp]
  00019	3b 45 0c	 cmp	 eax, DWORD PTR __Last$[ebp]
  0001c	74 33		 je	 SHORT $LN4@Uninit_cop@2

; 376  : 		_Cons_val(_Al, _Dest, *_First);

  0001e	50		 push	 eax
  0001f	ff 75 10	 push	 DWORD PTR __Dest$[ebp]
  00022	e8 00 00 00 00	 call	 ??$_Construct@VioHashString@@ABV1@@std@@YAXPAVioHashString@@ABV1@@Z ; std::_Construct<ioHashString,ioHashString const &>
  00027	83 45 10 10	 add	 DWORD PTR __Dest$[ebp], 16 ; 00000010H
  0002b	83 45 08 10	 add	 DWORD PTR __First$[ebp], 16 ; 00000010H
  0002f	59		 pop	 ecx
  00030	59		 pop	 ecx
  00031	eb e3		 jmp	 SHORT $LL14@Uninit_cop@2
__catch$??$_Uninit_copy@V?$_Vector_const_iterator@V?$_Vector_val@VioHashString@@V?$allocator@VioHashString@@@std@@@std@@@std@@PAVioHashString@@V?$allocator@VioHashString@@@2@@std@@YAPAVioHashString@@V?$_Vector_const_iterator@V?$_Vector_val@VioHashString@@V?$allocator@VioHashString@@@std@@@std@@@0@0PAV1@AAV?$allocator@VioHashString@@@0@U_Nonscalar_ptr_iterator_tag@0@@Z$0:

; 377  : 	_CATCH_ALL
; 378  : 	for (; _Next != _Dest; ++_Next)

  00033	8b 75 ec	 mov	 esi, DWORD PTR __Next$[ebp]
  00036	eb 0b		 jmp	 SHORT $LN45@Uninit_cop@2
$LL3@Uninit_cop@2:

; 379  : 		_Dest_val(_Al, _Next);

  00038	8b ce		 mov	 ecx, esi
  0003a	ff 15 00 00 00
	00		 call	 DWORD PTR __imp_??1ioHashString@@QAE@XZ
  00040	83 c6 10	 add	 esi, 16			; 00000010H
$LN45@Uninit_cop@2:

; 377  : 	_CATCH_ALL
; 378  : 	for (; _Next != _Dest; ++_Next)

  00043	3b 75 10	 cmp	 esi, DWORD PTR __Dest$[ebp]
  00046	75 f0		 jne	 SHORT $LL3@Uninit_cop@2

; 380  : 	_RERAISE;

  00048	6a 00		 push	 0
  0004a	6a 00		 push	 0
  0004c	e8 00 00 00 00	 call	 __CxxThrowException@8
$LN46@Uninit_cop@2:
$LN4@Uninit_cop@2:

; 381  : 	_CATCH_END
; 382  : 	return (_Dest);

  00051	8b 45 10	 mov	 eax, DWORD PTR __Dest$[ebp]

; 383  : 	}

  00054	e8 00 00 00 00	 call	 __EH_epilog3
  00059	c3		 ret	 0
$LN44@Uninit_cop@2:
_TEXT	ENDS
;	COMDAT text$x
text$x	SEGMENT
__ehhandler$??$_Uninit_copy@V?$_Vector_const_iterator@V?$_Vector_val@VioHashString@@V?$allocator@VioHashString@@@std@@@std@@@std@@PAVioHashString@@V?$allocator@VioHashString@@@2@@std@@YAPAVioHashString@@V?$_Vector_const_iterator@V?$_Vector_val@VioHashString@@V?$allocator@VioHashString@@@std@@@std@@@0@0PAV1@AAV?$allocator@VioHashString@@@0@U_Nonscalar_ptr_iterator_tag@0@@Z:
  00000	8b 54 24 08	 mov	 edx, DWORD PTR [esp+8]
  00004	8d 42 0c	 lea	 eax, DWORD PTR [edx+12]
  00007	8b 4a e8	 mov	 ecx, DWORD PTR [edx-24]
  0000a	33 c8		 xor	 ecx, eax
  0000c	e8 00 00 00 00	 call	 @__security_check_cookie@4
  00011	b8 00 00 00 00	 mov	 eax, OFFSET __ehfuncinfo$??$_Uninit_copy@V?$_Vector_const_iterator@V?$_Vector_val@VioHashString@@V?$allocator@VioHashString@@@std@@@std@@@std@@PAVioHashString@@V?$allocator@VioHashString@@@2@@std@@YAPAVioHashString@@V?$_Vector_const_iterator@V?$_Vector_val@VioHashString@@V?$allocator@VioHashString@@@std@@@std@@@0@0PAV1@AAV?$allocator@VioHashString@@@0@U_Nonscalar_ptr_iterator_tag@0@@Z
  00016	e9 00 00 00 00	 jmp	 ___CxxFrameHandler3
text$x	ENDS
??$_Uninit_copy@V?$_Vector_const_iterator@V?$_Vector_val@VioHashString@@V?$allocator@VioHashString@@@std@@@std@@@std@@PAVioHashString@@V?$allocator@VioHashString@@@2@@std@@YAPAVioHashString@@V?$_Vector_const_iterator@V?$_Vector_val@VioHashString@@V?$allocator@VioHashString@@@std@@@std@@@0@0PAV1@AAV?$allocator@VioHashString@@@0@U_Nonscalar_ptr_iterator_tag@0@@Z ENDP ; std::_Uninit_copy<std::_Vector_const_iterator<std::_Vector_val<ioHashString,std::allocator<ioHashString> > >,ioHashString *,std::allocator<ioHashString> >
PUBLIC	??$_Uninitialized_copy@PAVioHashString@@PAV1@V?$allocator@VioHashString@@@std@@@std@@YAPAVioHashString@@PAV1@00AAV?$allocator@VioHashString@@@0@@Z ; std::_Uninitialized_copy<ioHashString *,ioHashString *,std::allocator<ioHashString> >
; Function compile flags: /Ogsp
;	COMDAT ??$_Uninitialized_copy@PAVioHashString@@PAV1@V?$allocator@VioHashString@@@std@@@std@@YAPAVioHashString@@PAV1@00AAV?$allocator@VioHashString@@@0@@Z
_TEXT	SEGMENT
__Cat$615738 = -4					; size = 1
__First$ = 8						; size = 4
__Last$ = 12						; size = 4
__Dest$ = 16						; size = 4
__Al$ = 20						; size = 4
??$_Uninitialized_copy@PAVioHashString@@PAV1@V?$allocator@VioHashString@@@std@@@std@@YAPAVioHashString@@PAV1@00AAV?$allocator@VioHashString@@@0@@Z PROC ; std::_Uninitialized_copy<ioHashString *,ioHashString *,std::allocator<ioHashString> >, COMDAT

; 412  : 	{	// copy [_First, _Last) to raw _Dest, using _Al

  00000	55		 push	 ebp
  00001	8b ec		 mov	 ebp, esp
  00003	51		 push	 ecx

; 413  : 	return (_Uninit_copy(_First, _Last, _Dest, _Al,
; 414  : 		_Ptr_cat(_First, _Dest)));

  00004	ff 75 fc	 push	 DWORD PTR __Cat$615738[ebp]
  00007	ff 75 14	 push	 DWORD PTR __Al$[ebp]
  0000a	ff 75 10	 push	 DWORD PTR __Dest$[ebp]
  0000d	ff 75 0c	 push	 DWORD PTR __Last$[ebp]
  00010	ff 75 08	 push	 DWORD PTR __First$[ebp]
  00013	e8 00 00 00 00	 call	 ??$_Uninit_copy@PAVioHashString@@PAV1@V?$allocator@VioHashString@@@std@@@std@@YAPAVioHashString@@PAV1@00AAV?$allocator@VioHashString@@@0@U_Nonscalar_ptr_iterator_tag@0@@Z ; std::_Uninit_copy<ioHashString *,ioHashString *,std::allocator<ioHashString> >
  00018	83 c4 14	 add	 esp, 20			; 00000014H

; 415  : 	}

  0001b	c9		 leave
  0001c	c3		 ret	 0
??$_Uninitialized_copy@PAVioHashString@@PAV1@V?$allocator@VioHashString@@@std@@@std@@YAPAVioHashString@@PAV1@00AAV?$allocator@VioHashString@@@0@@Z ENDP ; std::_Uninitialized_copy<ioHashString *,ioHashString *,std::allocator<ioHashString> >
_TEXT	ENDS
PUBLIC	??$_Uninitialized_move@PAVioHashString@@PAV1@V?$allocator@VioHashString@@@std@@@std@@YAPAVioHashString@@PAV1@00AAV?$allocator@VioHashString@@@0@@Z ; std::_Uninitialized_move<ioHashString *,ioHashString *,std::allocator<ioHashString> >
; Function compile flags: /Ogsp
;	COMDAT ??$_Uninitialized_move@PAVioHashString@@PAV1@V?$allocator@VioHashString@@@std@@@std@@YAPAVioHashString@@PAV1@00AAV?$allocator@VioHashString@@@0@@Z
_TEXT	SEGMENT
__Cat$615745 = -4					; size = 1
__First$ = 8						; size = 4
__Last$ = 12						; size = 4
__Dest$ = 16						; size = 4
__Al$ = 20						; size = 4
??$_Uninitialized_move@PAVioHashString@@PAV1@V?$allocator@VioHashString@@@std@@@std@@YAPAVioHashString@@PAV1@00AAV?$allocator@VioHashString@@@0@@Z PROC ; std::_Uninitialized_move<ioHashString *,ioHashString *,std::allocator<ioHashString> >, COMDAT

; 469  : 	{	// move [_First, _Last) to raw _Dest, using _Al

  00000	55		 push	 ebp
  00001	8b ec		 mov	 ebp, esp
  00003	51		 push	 ecx

; 470  : 	return (_Uninit_move(_First, _Last, _Dest, _Al,
; 471  : 		_Val_type(_First), _Ptr_cat(_First, _Dest)));

  00004	ff 75 fc	 push	 DWORD PTR __Cat$615745[ebp]
  00007	6a 00		 push	 0
  00009	ff 75 14	 push	 DWORD PTR __Al$[ebp]
  0000c	ff 75 10	 push	 DWORD PTR __Dest$[ebp]
  0000f	ff 75 0c	 push	 DWORD PTR __Last$[ebp]
  00012	ff 75 08	 push	 DWORD PTR __First$[ebp]
  00015	e8 00 00 00 00	 call	 ??$_Uninit_move@PAVioHashString@@PAV1@V?$allocator@VioHashString@@@std@@V1@@std@@YAPAVioHashString@@PAV1@00AAV?$allocator@VioHashString@@@0@0U_Nonscalar_ptr_iterator_tag@0@@Z ; std::_Uninit_move<ioHashString *,ioHashString *,std::allocator<ioHashString>,ioHashString>
  0001a	83 c4 18	 add	 esp, 24			; 00000018H

; 472  : 	}

  0001d	c9		 leave
  0001e	c3		 ret	 0
??$_Uninitialized_move@PAVioHashString@@PAV1@V?$allocator@VioHashString@@@std@@@std@@YAPAVioHashString@@PAV1@00AAV?$allocator@VioHashString@@@0@@Z ENDP ; std::_Uninitialized_move<ioHashString *,ioHashString *,std::allocator<ioHashString> >
_TEXT	ENDS
PUBLIC	??$_Destroy_range@V?$allocator@VioHashString@@@std@@@std@@YAXPAVioHashString@@0AAV?$allocator@VioHashString@@@0@@Z ; std::_Destroy_range<std::allocator<ioHashString> >
; Function compile flags: /Ogsp
; File c:\program files (x86)\microsoft visual studio 10.0\vc\include\xmemory
;	COMDAT ??$_Destroy_range@V?$allocator@VioHashString@@@std@@@std@@YAXPAVioHashString@@0AAV?$allocator@VioHashString@@@0@@Z
_TEXT	SEGMENT
__First$ = 8						; size = 4
__Last$ = 12						; size = 4
__Al$ = 16						; size = 4
??$_Destroy_range@V?$allocator@VioHashString@@@std@@@std@@YAXPAVioHashString@@0AAV?$allocator@VioHashString@@@0@@Z PROC ; std::_Destroy_range<std::allocator<ioHashString> >, COMDAT

; 87   : 	{	// destroy [_First, _Last)

  00000	55		 push	 ebp
  00001	8b ec		 mov	 ebp, esp
  00003	56		 push	 esi

; 88   : 	_Destroy_range(_First, _Last, _Al, _Ptr_cat(_First, _Last));

  00004	8b 75 08	 mov	 esi, DWORD PTR __First$[ebp]
  00007	eb 0b		 jmp	 SHORT $LN21@Destroy_ra@2
$LL7@Destroy_ra@2:
  00009	8b ce		 mov	 ecx, esi
  0000b	ff 15 00 00 00
	00		 call	 DWORD PTR __imp_??1ioHashString@@QAE@XZ
  00011	83 c6 10	 add	 esi, 16			; 00000010H
$LN21@Destroy_ra@2:
  00014	3b 75 0c	 cmp	 esi, DWORD PTR __Last$[ebp]
  00017	75 f0		 jne	 SHORT $LL7@Destroy_ra@2
  00019	5e		 pop	 esi

; 89   : 	}

  0001a	5d		 pop	 ebp
  0001b	c3		 ret	 0
??$_Destroy_range@V?$allocator@VioHashString@@@std@@@std@@YAXPAVioHashString@@0AAV?$allocator@VioHashString@@@0@@Z ENDP ; std::_Destroy_range<std::allocator<ioHashString> >
_TEXT	ENDS
PUBLIC	??$_Uninitialized_copy@V?$_Vector_const_iterator@V?$_Vector_val@VioHashString@@V?$allocator@VioHashString@@@std@@@std@@@std@@PAVioHashString@@V?$allocator@VioHashString@@@2@@std@@YAPAVioHashString@@V?$_Vector_const_iterator@V?$_Vector_val@VioHashString@@V?$allocator@VioHashString@@@std@@@std@@@0@0PAV1@AAV?$allocator@VioHashString@@@0@@Z ; std::_Uninitialized_copy<std::_Vector_const_iterator<std::_Vector_val<ioHashString,std::allocator<ioHashString> > >,ioHashString *,std::allocator<ioHashString> >
; Function compile flags: /Ogsp
; File c:\program files (x86)\microsoft visual studio 10.0\vc\include\memory
;	COMDAT ??$_Uninitialized_copy@V?$_Vector_const_iterator@V?$_Vector_val@VioHashString@@V?$allocator@VioHashString@@@std@@@std@@@std@@PAVioHashString@@V?$allocator@VioHashString@@@2@@std@@YAPAVioHashString@@V?$_Vector_const_iterator@V?$_Vector_val@VioHashString@@V?$allocator@VioHashString@@@std@@@std@@@0@0PAV1@AAV?$allocator@VioHashString@@@0@@Z
_TEXT	SEGMENT
__Cat$615808 = -4					; size = 1
__First$ = 8						; size = 4
__Last$ = 12						; size = 4
__Dest$ = 16						; size = 4
__Al$ = 20						; size = 4
??$_Uninitialized_copy@V?$_Vector_const_iterator@V?$_Vector_val@VioHashString@@V?$allocator@VioHashString@@@std@@@std@@@std@@PAVioHashString@@V?$allocator@VioHashString@@@2@@std@@YAPAVioHashString@@V?$_Vector_const_iterator@V?$_Vector_val@VioHashString@@V?$allocator@VioHashString@@@std@@@std@@@0@0PAV1@AAV?$allocator@VioHashString@@@0@@Z PROC ; std::_Uninitialized_copy<std::_Vector_const_iterator<std::_Vector_val<ioHashString,std::allocator<ioHashString> > >,ioHashString *,std::allocator<ioHashString> >, COMDAT

; 412  : 	{	// copy [_First, _Last) to raw _Dest, using _Al

  00000	55		 push	 ebp
  00001	8b ec		 mov	 ebp, esp
  00003	51		 push	 ecx

; 413  : 	return (_Uninit_copy(_First, _Last, _Dest, _Al,
; 414  : 		_Ptr_cat(_First, _Dest)));

  00004	ff 75 fc	 push	 DWORD PTR __Cat$615808[ebp]
  00007	ff 75 14	 push	 DWORD PTR __Al$[ebp]
  0000a	ff 75 10	 push	 DWORD PTR __Dest$[ebp]
  0000d	ff 75 0c	 push	 DWORD PTR __Last$[ebp]
  00010	ff 75 08	 push	 DWORD PTR __First$[ebp]
  00013	e8 00 00 00 00	 call	 ??$_Uninit_copy@V?$_Vector_const_iterator@V?$_Vector_val@VioHashString@@V?$allocator@VioHashString@@@std@@@std@@@std@@PAVioHashString@@V?$allocator@VioHashString@@@2@@std@@YAPAVioHashString@@V?$_Vector_const_iterator@V?$_Vector_val@VioHashString@@V?$allocator@VioHashString@@@std@@@std@@@0@0PAV1@AAV?$allocator@VioHashString@@@0@U_Nonscalar_ptr_iterator_tag@0@@Z ; std::_Uninit_copy<std::_Vector_const_iterator<std::_Vector_val<ioHashString,std::allocator<ioHashString> > >,ioHashString *,std::allocator<ioHashString> >
  00018	83 c4 14	 add	 esp, 20			; 00000014H

; 415  : 	}

  0001b	c9		 leave
  0001c	c3		 ret	 0
??$_Uninitialized_copy@V?$_Vector_const_iterator@V?$_Vector_val@VioHashString@@V?$allocator@VioHashString@@@std@@@std@@@std@@PAVioHashString@@V?$allocator@VioHashString@@@2@@std@@YAPAVioHashString@@V?$_Vector_const_iterator@V?$_Vector_val@VioHashString@@V?$allocator@VioHashString@@@std@@@std@@@0@0PAV1@AAV?$allocator@VioHashString@@@0@@Z ENDP ; std::_Uninitialized_copy<std::_Vector_const_iterator<std::_Vector_val<ioHashString,std::allocator<ioHashString> > >,ioHashString *,std::allocator<ioHashString> >
_TEXT	ENDS
PUBLIC	??$_Ucopy@PAVioHashString@@@?$vector@VioHashString@@V?$allocator@VioHashString@@@std@@@std@@IAEPAVioHashString@@PAV2@00@Z ; std::vector<ioHashString,std::allocator<ioHashString> >::_Ucopy<ioHashString *>
; Function compile flags: /Ogsp
; File c:\program files (x86)\microsoft visual studio 10.0\vc\include\vector
;	COMDAT ??$_Ucopy@PAVioHashString@@@?$vector@VioHashString@@V?$allocator@VioHashString@@@std@@@std@@IAEPAVioHashString@@PAV2@00@Z
_TEXT	SEGMENT
__First$ = 8						; size = 4
__Last$ = 12						; size = 4
__Cat$615823 = 16					; size = 1
__Ptr$ = 16						; size = 4
??$_Ucopy@PAVioHashString@@@?$vector@VioHashString@@V?$allocator@VioHashString@@@std@@@std@@IAEPAVioHashString@@PAV2@00@Z PROC ; std::vector<ioHashString,std::allocator<ioHashString> >::_Ucopy<ioHashString *>, COMDAT
; _this$ = ecx

; 1315 : 		pointer _Ucopy(_Iter _First, _Iter _Last, pointer _Ptr)

  00000	55		 push	 ebp
  00001	8b ec		 mov	 ebp, esp

; 1316 : 		{	// copy initializing [_First, _Last), using allocator
; 1317 : 		return (_Uninitialized_copy(_First, _Last,
; 1318 : 			_Ptr, this->_Alval));

  00003	ff 75 10	 push	 DWORD PTR __Cat$615823[ebp]
  00006	83 c1 0c	 add	 ecx, 12			; 0000000cH
  00009	51		 push	 ecx
  0000a	ff 75 10	 push	 DWORD PTR __Ptr$[ebp]
  0000d	ff 75 0c	 push	 DWORD PTR __Last$[ebp]
  00010	ff 75 08	 push	 DWORD PTR __First$[ebp]
  00013	e8 00 00 00 00	 call	 ??$_Uninit_copy@PAVioHashString@@PAV1@V?$allocator@VioHashString@@@std@@@std@@YAPAVioHashString@@PAV1@00AAV?$allocator@VioHashString@@@0@U_Nonscalar_ptr_iterator_tag@0@@Z ; std::_Uninit_copy<ioHashString *,ioHashString *,std::allocator<ioHashString> >
  00018	83 c4 14	 add	 esp, 20			; 00000014H

; 1319 : 		}

  0001b	5d		 pop	 ebp
  0001c	c2 0c 00	 ret	 12			; 0000000cH
??$_Ucopy@PAVioHashString@@@?$vector@VioHashString@@V?$allocator@VioHashString@@@std@@@std@@IAEPAVioHashString@@PAV2@00@Z ENDP ; std::vector<ioHashString,std::allocator<ioHashString> >::_Ucopy<ioHashString *>
_TEXT	ENDS
PUBLIC	??$_Umove@PAVioHashString@@@?$vector@VioHashString@@V?$allocator@VioHashString@@@std@@@std@@IAEPAVioHashString@@PAV2@00@Z ; std::vector<ioHashString,std::allocator<ioHashString> >::_Umove<ioHashString *>
; Function compile flags: /Ogsp
;	COMDAT ??$_Umove@PAVioHashString@@@?$vector@VioHashString@@V?$allocator@VioHashString@@@std@@@std@@IAEPAVioHashString@@PAV2@00@Z
_TEXT	SEGMENT
__First$ = 8						; size = 4
__Last$ = 12						; size = 4
__Ptr$ = 16						; size = 4
??$_Umove@PAVioHashString@@@?$vector@VioHashString@@V?$allocator@VioHashString@@@std@@@std@@IAEPAVioHashString@@PAV2@00@Z PROC ; std::vector<ioHashString,std::allocator<ioHashString> >::_Umove<ioHashString *>, COMDAT
; _this$ = ecx

; 1322 : 		pointer _Umove(_Iter _First, _Iter _Last, pointer _Ptr)

  00000	55		 push	 ebp
  00001	8b ec		 mov	 ebp, esp

; 1323 : 		{	// move initializing [_First, _Last), using allocator
; 1324 : 		return (_Uninitialized_move(_First, _Last,
; 1325 : 			_Ptr, this->_Alval));

  00003	83 c1 0c	 add	 ecx, 12			; 0000000cH
  00006	51		 push	 ecx
  00007	ff 75 10	 push	 DWORD PTR __Ptr$[ebp]
  0000a	ff 75 0c	 push	 DWORD PTR __Last$[ebp]
  0000d	ff 75 08	 push	 DWORD PTR __First$[ebp]
  00010	e8 00 00 00 00	 call	 ??$_Uninitialized_move@PAVioHashString@@PAV1@V?$allocator@VioHashString@@@std@@@std@@YAPAVioHashString@@PAV1@00AAV?$allocator@VioHashString@@@0@@Z ; std::_Uninitialized_move<ioHashString *,ioHashString *,std::allocator<ioHashString> >
  00015	83 c4 10	 add	 esp, 16			; 00000010H

; 1326 : 		}

  00018	5d		 pop	 ebp
  00019	c2 0c 00	 ret	 12			; 0000000cH
??$_Umove@PAVioHashString@@@?$vector@VioHashString@@V?$allocator@VioHashString@@@std@@@std@@IAEPAVioHashString@@PAV2@00@Z ENDP ; std::vector<ioHashString,std::allocator<ioHashString> >::_Umove<ioHashString *>
_TEXT	ENDS
PUBLIC	?_Destroy@?$vector@VioHashString@@V?$allocator@VioHashString@@@std@@@std@@IAEXPAVioHashString@@0@Z ; std::vector<ioHashString,std::allocator<ioHashString> >::_Destroy
; Function compile flags: /Ogsp
;	COMDAT ?_Destroy@?$vector@VioHashString@@V?$allocator@VioHashString@@@std@@@std@@IAEXPAVioHashString@@0@Z
_TEXT	SEGMENT
__First$ = 8						; size = 4
__Last$ = 12						; size = 4
?_Destroy@?$vector@VioHashString@@V?$allocator@VioHashString@@@std@@@std@@IAEXPAVioHashString@@0@Z PROC ; std::vector<ioHashString,std::allocator<ioHashString> >::_Destroy, COMDAT
; _this$ = ecx

; 1269 : 		{	// destroy [_First, _Last) using allocator

  00000	55		 push	 ebp
  00001	8b ec		 mov	 ebp, esp
  00003	56		 push	 esi

; 1270 : 		_Destroy_range(_First, _Last, this->_Alval);

  00004	8b 75 08	 mov	 esi, DWORD PTR __First$[ebp]
  00007	eb 0b		 jmp	 SHORT $LN23@Destroy
$LL9@Destroy:
  00009	8b ce		 mov	 ecx, esi
  0000b	ff 15 00 00 00
	00		 call	 DWORD PTR __imp_??1ioHashString@@QAE@XZ
  00011	83 c6 10	 add	 esi, 16			; 00000010H
$LN23@Destroy:
  00014	3b 75 0c	 cmp	 esi, DWORD PTR __Last$[ebp]
  00017	75 f0		 jne	 SHORT $LL9@Destroy
  00019	5e		 pop	 esi

; 1271 : 		}

  0001a	5d		 pop	 ebp
  0001b	c2 08 00	 ret	 8
?_Destroy@?$vector@VioHashString@@V?$allocator@VioHashString@@@std@@@std@@IAEXPAVioHashString@@0@Z ENDP ; std::vector<ioHashString,std::allocator<ioHashString> >::_Destroy
_TEXT	ENDS
PUBLIC	??$_Ucopy@V?$_Vector_const_iterator@V?$_Vector_val@VioHashString@@V?$allocator@VioHashString@@@std@@@std@@@std@@@?$vector@VioHashString@@V?$allocator@VioHashString@@@std@@@std@@IAEPAVioHashString@@V?$_Vector_const_iterator@V?$_Vector_val@VioHashString@@V?$allocator@VioHashString@@@std@@@std@@@1@0PAV2@@Z ; std::vector<ioHashString,std::allocator<ioHashString> >::_Ucopy<std::_Vector_const_iterator<std::_Vector_val<ioHashString,std::allocator<ioHashString> > > >
; Function compile flags: /Ogsp
;	COMDAT ??$_Ucopy@V?$_Vector_const_iterator@V?$_Vector_val@VioHashString@@V?$allocator@VioHashString@@@std@@@std@@@std@@@?$vector@VioHashString@@V?$allocator@VioHashString@@@std@@@std@@IAEPAVioHashString@@V?$_Vector_const_iterator@V?$_Vector_val@VioHashString@@V?$allocator@VioHashString@@@std@@@std@@@1@0PAV2@@Z
_TEXT	SEGMENT
__First$ = 8						; size = 4
__Last$ = 12						; size = 4
__Cat$615913 = 16					; size = 1
__Ptr$ = 16						; size = 4
??$_Ucopy@V?$_Vector_const_iterator@V?$_Vector_val@VioHashString@@V?$allocator@VioHashString@@@std@@@std@@@std@@@?$vector@VioHashString@@V?$allocator@VioHashString@@@std@@@std@@IAEPAVioHashString@@V?$_Vector_const_iterator@V?$_Vector_val@VioHashString@@V?$allocator@VioHashString@@@std@@@std@@@1@0PAV2@@Z PROC ; std::vector<ioHashString,std::allocator<ioHashString> >::_Ucopy<std::_Vector_const_iterator<std::_Vector_val<ioHashString,std::allocator<ioHashString> > > >, COMDAT
; _this$ = ecx

; 1315 : 		pointer _Ucopy(_Iter _First, _Iter _Last, pointer _Ptr)

  00000	55		 push	 ebp
  00001	8b ec		 mov	 ebp, esp

; 1316 : 		{	// copy initializing [_First, _Last), using allocator
; 1317 : 		return (_Uninitialized_copy(_First, _Last,
; 1318 : 			_Ptr, this->_Alval));

  00003	ff 75 10	 push	 DWORD PTR __Cat$615913[ebp]
  00006	83 c1 0c	 add	 ecx, 12			; 0000000cH
  00009	51		 push	 ecx
  0000a	ff 75 10	 push	 DWORD PTR __Ptr$[ebp]
  0000d	ff 75 0c	 push	 DWORD PTR __Last$[ebp]
  00010	ff 75 08	 push	 DWORD PTR __First$[ebp]
  00013	e8 00 00 00 00	 call	 ??$_Uninit_copy@V?$_Vector_const_iterator@V?$_Vector_val@VioHashString@@V?$allocator@VioHashString@@@std@@@std@@@std@@PAVioHashString@@V?$allocator@VioHashString@@@2@@std@@YAPAVioHashString@@V?$_Vector_const_iterator@V?$_Vector_val@VioHashString@@V?$allocator@VioHashString@@@std@@@std@@@0@0PAV1@AAV?$allocator@VioHashString@@@0@U_Nonscalar_ptr_iterator_tag@0@@Z ; std::_Uninit_copy<std::_Vector_const_iterator<std::_Vector_val<ioHashString,std::allocator<ioHashString> > >,ioHashString *,std::allocator<ioHashString> >
  00018	83 c4 14	 add	 esp, 20			; 00000014H

; 1319 : 		}

  0001b	5d		 pop	 ebp
  0001c	c2 0c 00	 ret	 12			; 0000000cH
??$_Ucopy@V?$_Vector_const_iterator@V?$_Vector_val@VioHashString@@V?$allocator@VioHashString@@@std@@@std@@@std@@@?$vector@VioHashString@@V?$allocator@VioHashString@@@std@@@std@@IAEPAVioHashString@@V?$_Vector_const_iterator@V?$_Vector_val@VioHashString@@V?$allocator@VioHashString@@@std@@@std@@@1@0PAV2@@Z ENDP ; std::vector<ioHashString,std::allocator<ioHashString> >::_Ucopy<std::_Vector_const_iterator<std::_Vector_val<ioHashString,std::allocator<ioHashString> > > >
_TEXT	ENDS
PUBLIC	?reserve@?$vector@VioHashString@@V?$allocator@VioHashString@@@std@@@std@@QAEXI@Z ; std::vector<ioHashString,std::allocator<ioHashString> >::reserve
EXTRN	__imp_?_Orphan_all@_Container_base0@std@@QAEXXZ:PROC
;	COMDAT xdata$x
; File c:\program files (x86)\microsoft visual studio 10.0\vc\include\xmemory
xdata$x	SEGMENT
__catchsym$?reserve@?$vector@VioHashString@@V?$allocator@VioHashString@@@std@@@std@@QAEXI@Z$2 DD 040H
	DD	00H
	DD	00H
	DD	FLAT:__catch$?reserve@?$vector@VioHashString@@V?$allocator@VioHashString@@@std@@@std@@QAEXI@Z$0
__unwindtable$?reserve@?$vector@VioHashString@@V?$allocator@VioHashString@@@std@@@std@@QAEXI@Z DD 0ffffffffH
	DD	00H
	DD	0ffffffffH
	DD	00H
__tryblocktable$?reserve@?$vector@VioHashString@@V?$allocator@VioHashString@@@std@@@std@@QAEXI@Z DD 00H
	DD	00H
	DD	01H
	DD	01H
	DD	FLAT:__catchsym$?reserve@?$vector@VioHashString@@V?$allocator@VioHashString@@@std@@@std@@QAEXI@Z$2
__ehfuncinfo$?reserve@?$vector@VioHashString@@V?$allocator@VioHashString@@@std@@@std@@QAEXI@Z DD 019930522H
	DD	02H
	DD	FLAT:__unwindtable$?reserve@?$vector@VioHashString@@V?$allocator@VioHashString@@@std@@@std@@QAEXI@Z
	DD	01H
	DD	FLAT:__tryblocktable$?reserve@?$vector@VioHashString@@V?$allocator@VioHashString@@@std@@@std@@QAEXI@Z
	DD	2 DUP(00H)
	DD	00H
	DD	01H
; Function compile flags: /Ogsp
; File c:\program files (x86)\microsoft visual studio 10.0\vc\include\vector
xdata$x	ENDS
;	COMDAT ?reserve@?$vector@VioHashString@@V?$allocator@VioHashString@@@std@@@std@@QAEXI@Z
_TEXT	SEGMENT
tv300 = -24						; size = 4
__Ptr$609002 = -20					; size = 4
__$EHRec$ = -16						; size = 16
$T616010 = 8						; size = 4
__Count$ = 8						; size = 4
?reserve@?$vector@VioHashString@@V?$allocator@VioHashString@@@std@@@std@@QAEXI@Z PROC ; std::vector<ioHashString,std::allocator<ioHashString> >::reserve, COMDAT
; _this$ = ecx

; 746  : 		{	// determine new minimum length of allocated storage

  00000	6a 0c		 push	 12			; 0000000cH
  00002	b8 00 00 00 00	 mov	 eax, __ehhandler$?reserve@?$vector@VioHashString@@V?$allocator@VioHashString@@@std@@@std@@QAEXI@Z
  00007	e8 00 00 00 00	 call	 __EH_prolog3_catch
  0000c	8b f1		 mov	 esi, ecx

; 747  : 		if (max_size() < _Count)

  0000e	8b 5d 08	 mov	 ebx, DWORD PTR __Count$[ebp]
  00011	81 fb ff ff ff
	0f		 cmp	 ebx, 268435455		; 0fffffffH
  00017	76 0b		 jbe	 SHORT $LN5@reserve

; 748  : 			_Xlen();	// result too long

  00019	68 00 00 00 00	 push	 OFFSET ??_C@_0BD@OLBABOEK@vector?$DMT?$DO?5too?5long?$AA@
  0001e	ff 15 00 00 00
	00		 call	 DWORD PTR __imp_?_Xlength_error@std@@YAXPBD@Z
$LN59@reserve:
$LN5@reserve:

; 749  : 		else if (capacity() < _Count)

  00024	8b 46 08	 mov	 eax, DWORD PTR [esi+8]
  00027	2b 06		 sub	 eax, DWORD PTR [esi]
  00029	c1 f8 04	 sar	 eax, 4
  0002c	3b c3		 cmp	 eax, ebx
  0002e	73 7a		 jae	 SHORT $LN3@reserve

; 750  : 			{	// not enough room, reallocate
; 751  : 			pointer _Ptr = this->_Alval.allocate(_Count);

  00030	6a 00		 push	 0
  00032	53		 push	 ebx
  00033	e8 00 00 00 00	 call	 ??$_Allocate@VioHashString@@@std@@YAPAVioHashString@@IPAV1@@Z ; std::_Allocate<ioHashString>

; 752  : 
; 753  : 			_TRY_BEGIN
; 754  : 			_Umove(this->_Myfirst, this->_Mylast, _Ptr);

  00038	8b 0e		 mov	 ecx, DWORD PTR [esi]
  0003a	83 65 fc 00	 and	 DWORD PTR __$EHRec$[ebp+12], 0
  0003e	8d 56 0c	 lea	 edx, DWORD PTR [esi+12]
  00041	52		 push	 edx
  00042	89 45 ec	 mov	 DWORD PTR __Ptr$609002[ebp], eax
  00045	ff 75 ec	 push	 DWORD PTR __Ptr$609002[ebp]
  00048	8b 46 04	 mov	 eax, DWORD PTR [esi+4]
  0004b	50		 push	 eax
  0004c	51		 push	 ecx
  0004d	e8 00 00 00 00	 call	 ??$_Uninitialized_move@PAVioHashString@@PAV1@V?$allocator@VioHashString@@@std@@@std@@YAPAVioHashString@@PAV1@00AAV?$allocator@VioHashString@@@0@@Z ; std::_Uninitialized_move<ioHashString *,ioHashString *,std::allocator<ioHashString> >

; 758  : 			_CATCH_END
; 759  : 
; 760  : 			size_type _Size = size();

  00052	8b 4e 04	 mov	 ecx, DWORD PTR [esi+4]
  00055	8b 06		 mov	 eax, DWORD PTR [esi]
  00057	83 4d fc ff	 or	 DWORD PTR __$EHRec$[ebp+12], -1
  0005b	8b f9		 mov	 edi, ecx
  0005d	83 c4 18	 add	 esp, 24			; 00000018H
  00060	2b f8		 sub	 edi, eax
  00062	89 4d e8	 mov	 DWORD PTR tv300[ebp], ecx
  00065	85 c0		 test	 eax, eax
  00067	74 24		 je	 SHORT $LN51@reserve

; 761  : 			if (this->_Myfirst != 0)
; 762  : 				{	// destroy and deallocate old array
; 763  : 				_Destroy(this->_Myfirst, this->_Mylast);

  00069	89 45 08	 mov	 DWORD PTR $T616010[ebp], eax
  0006c	3b c1		 cmp	 eax, ecx
  0006e	74 15		 je	 SHORT $LN37@reserve
$LN39@reserve:
  00070	8b 4d 08	 mov	 ecx, DWORD PTR $T616010[ebp]
  00073	ff 15 00 00 00
	00		 call	 DWORD PTR __imp_??1ioHashString@@QAE@XZ
  00079	83 45 08 10	 add	 DWORD PTR $T616010[ebp], 16 ; 00000010H
  0007d	8b 45 08	 mov	 eax, DWORD PTR $T616010[ebp]
  00080	3b 45 e8	 cmp	 eax, DWORD PTR tv300[ebp]
  00083	75 eb		 jne	 SHORT $LN39@reserve
$LN37@reserve:

; 764  : 				this->_Alval.deallocate(this->_Myfirst,
; 765  : 					this->_Myend - this->_Myfirst);

  00085	ff 36		 push	 DWORD PTR [esi]
  00087	e8 00 00 00 00	 call	 ??3@YAXPAX@Z		; operator delete
  0008c	59		 pop	 ecx
$LN51@reserve:

; 766  : 				}
; 767  : 
; 768  : 			this->_Orphan_all();

  0008d	8b ce		 mov	 ecx, esi
  0008f	ff 15 00 00 00
	00		 call	 DWORD PTR __imp_?_Orphan_all@_Container_base0@std@@QAEXXZ

; 769  : 			this->_Myend = _Ptr + _Count;

  00095	8b 45 ec	 mov	 eax, DWORD PTR __Ptr$609002[ebp]
  00098	c1 e3 04	 shl	 ebx, 4
  0009b	03 d8		 add	 ebx, eax

; 770  : 			this->_Mylast = _Ptr + _Size;

  0009d	83 e7 f0	 and	 edi, -16		; fffffff0H
  000a0	03 f8		 add	 edi, eax
  000a2	89 5e 08	 mov	 DWORD PTR [esi+8], ebx
  000a5	89 7e 04	 mov	 DWORD PTR [esi+4], edi

; 771  : 			this->_Myfirst = _Ptr;

  000a8	89 06		 mov	 DWORD PTR [esi], eax
$LN3@reserve:

; 772  : 			}
; 773  : 		}

  000aa	e8 00 00 00 00	 call	 __EH_epilog3
  000af	c2 04 00	 ret	 4
__catch$?reserve@?$vector@VioHashString@@V?$allocator@VioHashString@@@std@@@std@@QAEXI@Z$0:

; 755  : 			_CATCH_ALL
; 756  : 			this->_Alval.deallocate(_Ptr, _Count);

  000b2	ff 75 ec	 push	 DWORD PTR __Ptr$609002[ebp]
  000b5	e8 00 00 00 00	 call	 ??3@YAXPAX@Z		; operator delete
  000ba	59		 pop	 ecx

; 757  : 			_RERAISE;

  000bb	6a 00		 push	 0
  000bd	6a 00		 push	 0
  000bf	e8 00 00 00 00	 call	 __CxxThrowException@8
$LN60@reserve:
$LN58@reserve:
  000c4	cc		 int	 3
_TEXT	ENDS
;	COMDAT text$x
text$x	SEGMENT
__ehhandler$?reserve@?$vector@VioHashString@@V?$allocator@VioHashString@@@std@@@std@@QAEXI@Z:
  00000	8b 54 24 08	 mov	 edx, DWORD PTR [esp+8]
  00004	8d 42 0c	 lea	 eax, DWORD PTR [edx+12]
  00007	8b 4a e4	 mov	 ecx, DWORD PTR [edx-28]
  0000a	33 c8		 xor	 ecx, eax
  0000c	e8 00 00 00 00	 call	 @__security_check_cookie@4
  00011	b8 00 00 00 00	 mov	 eax, OFFSET __ehfuncinfo$?reserve@?$vector@VioHashString@@V?$allocator@VioHashString@@@std@@@std@@QAEXI@Z
  00016	e9 00 00 00 00	 jmp	 ___CxxFrameHandler3
text$x	ENDS
?reserve@?$vector@VioHashString@@V?$allocator@VioHashString@@@std@@@std@@QAEXI@Z ENDP ; std::vector<ioHashString,std::allocator<ioHashString> >::reserve
PUBLIC	?erase@?$vector@VioHashString@@V?$allocator@VioHashString@@@std@@@std@@QAE?AV?$_Vector_iterator@V?$_Vector_val@VioHashString@@V?$allocator@VioHashString@@@std@@@std@@@2@V?$_Vector_const_iterator@V?$_Vector_val@VioHashString@@V?$allocator@VioHashString@@@std@@@std@@@2@0@Z ; std::vector<ioHashString,std::allocator<ioHashString> >::erase
; Function compile flags: /Ogsp
;	COMDAT ?erase@?$vector@VioHashString@@V?$allocator@VioHashString@@@std@@@std@@QAE?AV?$_Vector_iterator@V?$_Vector_val@VioHashString@@V?$allocator@VioHashString@@@std@@@std@@@2@V?$_Vector_const_iterator@V?$_Vector_val@VioHashString@@V?$allocator@VioHashString@@@std@@@std@@@2@0@Z
_TEXT	SEGMENT
$T616205 = -4						; size = 4
___$ReturnUdt$ = 8					; size = 4
__First_arg$ = 12					; size = 4
__Cat$616149 = 16					; size = 1
__Last_arg$ = 16					; size = 4
?erase@?$vector@VioHashString@@V?$allocator@VioHashString@@@std@@@std@@QAE?AV?$_Vector_iterator@V?$_Vector_val@VioHashString@@V?$allocator@VioHashString@@@std@@@std@@@2@V?$_Vector_const_iterator@V?$_Vector_val@VioHashString@@V?$allocator@VioHashString@@@std@@@std@@@2@0@Z PROC ; std::vector<ioHashString,std::allocator<ioHashString> >::erase, COMDAT
; _this$ = ecx

; 1190 : 		{	// erase [_First, _Last)

  00000	55		 push	 ebp
  00001	8b ec		 mov	 ebp, esp
  00003	51		 push	 ecx

; 1191 : 		iterator _First = _Make_iter(_First_arg);

  00004	8b 45 08	 mov	 eax, DWORD PTR ___$ReturnUdt$[ebp]
  00007	56		 push	 esi
  00008	8b f1		 mov	 esi, ecx
  0000a	8b 4d 0c	 mov	 ecx, DWORD PTR __First_arg$[ebp]
  0000d	89 08		 mov	 DWORD PTR [eax], ecx

; 1192 : 		iterator _Last = _Make_iter(_Last_arg);
; 1193 : 
; 1194 : 		if (_First != _Last)

  0000f	3b 4d 10	 cmp	 ecx, DWORD PTR __Last_arg$[ebp]
  00012	74 38		 je	 SHORT $LN1@erase

; 1195 : 			{	// worth doing, copy down over hole
; 1196 :  #if _ITERATOR_DEBUG_LEVEL == 2
; 1197 : 			if (_Last < _First || _VICONT(_First) != this
; 1198 : 				|| _VIPTR(_First) < this->_Myfirst
; 1199 : 				|| this->_Mylast < _VIPTR(_Last))
; 1200 : 				_DEBUG_ERROR("vector erase iterator outside range");
; 1201 : 			pointer _Ptr = _Move(_VIPTR(_Last), this->_Mylast,
; 1202 : 				_VIPTR(_First));
; 1203 : 			_Orphan_range(_VIPTR(_First), this->_Mylast);
; 1204 : 
; 1205 :  #else /* _ITERATOR_DEBUG_LEVEL == 2 */
; 1206 : 			pointer _Ptr = _Move(_VIPTR(_Last), this->_Mylast,
; 1207 : 				_VIPTR(_First));

  00014	8b 46 04	 mov	 eax, DWORD PTR [esi+4]
  00017	53		 push	 ebx
  00018	57		 push	 edi
  00019	ff 75 10	 push	 DWORD PTR __Cat$616149[ebp]
  0001c	51		 push	 ecx
  0001d	50		 push	 eax
  0001e	ff 75 10	 push	 DWORD PTR __Last_arg$[ebp]
  00021	e8 00 00 00 00	 call	 ??$_Move@PAVioHashString@@PAV1@@std@@YAPAVioHashString@@PAV1@00U_Nonscalar_ptr_iterator_tag@0@@Z ; std::_Move<ioHashString *,ioHashString *>

; 1208 :  #endif /* _ITERATOR_DEBUG_LEVEL == 2 */
; 1209 : 
; 1210 : 			_Destroy(_Ptr, this->_Mylast);

  00026	8b 7e 04	 mov	 edi, DWORD PTR [esi+4]
  00029	8b d8		 mov	 ebx, eax
  0002b	83 c4 10	 add	 esp, 16			; 00000010H
  0002e	89 5d fc	 mov	 DWORD PTR $T616205[ebp], ebx
  00031	3b df		 cmp	 ebx, edi
  00033	74 12		 je	 SHORT $LN36@erase
$LL52@erase:
  00035	8b 4d fc	 mov	 ecx, DWORD PTR $T616205[ebp]
  00038	ff 15 00 00 00
	00		 call	 DWORD PTR __imp_??1ioHashString@@QAE@XZ
  0003e	83 45 fc 10	 add	 DWORD PTR $T616205[ebp], 16 ; 00000010H
  00042	39 7d fc	 cmp	 DWORD PTR $T616205[ebp], edi
  00045	75 ee		 jne	 SHORT $LL52@erase
$LN36@erase:

; 1211 : 			this->_Mylast = _Ptr;

  00047	5f		 pop	 edi
  00048	89 5e 04	 mov	 DWORD PTR [esi+4], ebx
  0004b	5b		 pop	 ebx
$LN1@erase:

; 1212 : 			}
; 1213 : 		return (_First);

  0004c	8b 45 08	 mov	 eax, DWORD PTR ___$ReturnUdt$[ebp]
  0004f	5e		 pop	 esi

; 1214 : 		}

  00050	c9		 leave
  00051	c2 0c 00	 ret	 12			; 0000000cH
?erase@?$vector@VioHashString@@V?$allocator@VioHashString@@@std@@@std@@QAE?AV?$_Vector_iterator@V?$_Vector_val@VioHashString@@V?$allocator@VioHashString@@@std@@@std@@@2@V?$_Vector_const_iterator@V?$_Vector_val@VioHashString@@V?$allocator@VioHashString@@@std@@@std@@@2@0@Z ENDP ; std::vector<ioHashString,std::allocator<ioHashString> >::erase
_TEXT	ENDS
PUBLIC	?_Tidy@?$vector@VioHashString@@V?$allocator@VioHashString@@@std@@@std@@IAEXXZ ; std::vector<ioHashString,std::allocator<ioHashString> >::_Tidy
; Function compile flags: /Ogsp
;	COMDAT ?_Tidy@?$vector@VioHashString@@V?$allocator@VioHashString@@@std@@@std@@IAEXXZ
_TEXT	SEGMENT
?_Tidy@?$vector@VioHashString@@V?$allocator@VioHashString@@@std@@@std@@IAEXXZ PROC ; std::vector<ioHashString,std::allocator<ioHashString> >::_Tidy, COMDAT
; _this$ = ecx

; 1301 : 		{	// free all storage

  00000	56		 push	 esi
  00001	8b f1		 mov	 esi, ecx

; 1302 : 		if (this->_Myfirst != 0)

  00003	83 3e 00	 cmp	 DWORD PTR [esi], 0
  00006	74 28		 je	 SHORT $LN24@Tidy

; 1303 : 			{	// something to free, destroy and deallocate it
; 1304 : 			this->_Orphan_all();

  00008	53		 push	 ebx
  00009	57		 push	 edi
  0000a	ff 15 00 00 00
	00		 call	 DWORD PTR __imp_?_Orphan_all@_Container_base0@std@@QAEXXZ

; 1305 : 			_Destroy(this->_Myfirst, this->_Mylast);

  00010	8b 5e 04	 mov	 ebx, DWORD PTR [esi+4]
  00013	8b 3e		 mov	 edi, DWORD PTR [esi]
  00015	eb 0b		 jmp	 SHORT $LN28@Tidy
$LL12@Tidy:
  00017	8b cf		 mov	 ecx, edi
  00019	ff 15 00 00 00
	00		 call	 DWORD PTR __imp_??1ioHashString@@QAE@XZ
  0001f	83 c7 10	 add	 edi, 16			; 00000010H
$LN28@Tidy:
  00022	3b fb		 cmp	 edi, ebx
  00024	75 f1		 jne	 SHORT $LL12@Tidy

; 1306 : 			this->_Alval.deallocate(this->_Myfirst,
; 1307 : 				this->_Myend - this->_Myfirst);

  00026	ff 36		 push	 DWORD PTR [esi]
  00028	e8 00 00 00 00	 call	 ??3@YAXPAX@Z		; operator delete
  0002d	59		 pop	 ecx
  0002e	5f		 pop	 edi
  0002f	5b		 pop	 ebx
$LN24@Tidy:

; 1308 : 			}
; 1309 : 		this->_Myfirst = 0;

  00030	33 c0		 xor	 eax, eax
  00032	89 06		 mov	 DWORD PTR [esi], eax

; 1310 : 		this->_Mylast = 0;

  00034	89 46 04	 mov	 DWORD PTR [esi+4], eax

; 1311 : 		this->_Myend = 0;

  00037	89 46 08	 mov	 DWORD PTR [esi+8], eax
  0003a	5e		 pop	 esi

; 1312 : 		}

  0003b	c3		 ret	 0
?_Tidy@?$vector@VioHashString@@V?$allocator@VioHashString@@@std@@@std@@IAEXXZ ENDP ; std::vector<ioHashString,std::allocator<ioHashString> >::_Tidy
_TEXT	ENDS
PUBLIC	?_Reserve@?$vector@VioHashString@@V?$allocator@VioHashString@@@std@@@std@@IAEXI@Z ; std::vector<ioHashString,std::allocator<ioHashString> >::_Reserve
; Function compile flags: /Ogsp
;	COMDAT ?_Reserve@?$vector@VioHashString@@V?$allocator@VioHashString@@@std@@@std@@IAEXI@Z
_TEXT	SEGMENT
__Count$ = 8						; size = 4
?_Reserve@?$vector@VioHashString@@V?$allocator@VioHashString@@@std@@@std@@IAEXI@Z PROC ; std::vector<ioHashString,std::allocator<ioHashString> >::_Reserve, COMDAT
; _this$ = ecx

; 1290 : 		{	// ensure room for _Count new elements, grow exponentially

  00000	55		 push	 ebp
  00001	8b ec		 mov	 ebp, esp
  00003	56		 push	 esi
  00004	8b f1		 mov	 esi, ecx

; 1291 : 		size_type _Size = size();

  00006	8b 0e		 mov	 ecx, DWORD PTR [esi]
  00008	8b 46 04	 mov	 eax, DWORD PTR [esi+4]
  0000b	2b c1		 sub	 eax, ecx

; 1292 : 		if (max_size() - _Count < _Size)

  0000d	ba ff ff ff 0f	 mov	 edx, 268435455		; 0fffffffH
  00012	2b 55 08	 sub	 edx, DWORD PTR __Count$[ebp]
  00015	c1 f8 04	 sar	 eax, 4
  00018	3b d0		 cmp	 edx, eax
  0001a	73 0b		 jae	 SHORT $LN4@Reserve

; 1293 : 			_Xlen();

  0001c	68 00 00 00 00	 push	 OFFSET ??_C@_0BD@OLBABOEK@vector?$DMT?$DO?5too?5long?$AA@
  00021	ff 15 00 00 00
	00		 call	 DWORD PTR __imp_?_Xlength_error@std@@YAXPBD@Z
$LN21@Reserve:
$LN4@Reserve:

; 1294 : 		else if ((_Size += _Count) <= capacity())

  00027	8b 56 08	 mov	 edx, DWORD PTR [esi+8]
  0002a	03 45 08	 add	 eax, DWORD PTR __Count$[ebp]
  0002d	2b d1		 sub	 edx, ecx
  0002f	c1 fa 04	 sar	 edx, 4
  00032	3b c2		 cmp	 eax, edx
  00034	76 10		 jbe	 SHORT $LN1@Reserve

; 1295 : 			;
; 1296 : 		else
; 1297 : 			reserve(_Grow_to(_Size));

  00036	50		 push	 eax
  00037	8b ce		 mov	 ecx, esi
  00039	e8 00 00 00 00	 call	 ?_Grow_to@?$vector@VioHashString@@V?$allocator@VioHashString@@@std@@@std@@IBEII@Z ; std::vector<ioHashString,std::allocator<ioHashString> >::_Grow_to
  0003e	50		 push	 eax
  0003f	8b ce		 mov	 ecx, esi
  00041	e8 00 00 00 00	 call	 ?reserve@?$vector@VioHashString@@V?$allocator@VioHashString@@@std@@@std@@QAEXI@Z ; std::vector<ioHashString,std::allocator<ioHashString> >::reserve
$LN1@Reserve:
  00046	5e		 pop	 esi

; 1298 : 		}

  00047	5d		 pop	 ebp
  00048	c2 04 00	 ret	 4
$LN20@Reserve:
?_Reserve@?$vector@VioHashString@@V?$allocator@VioHashString@@@std@@@std@@IAEXI@Z ENDP ; std::vector<ioHashString,std::allocator<ioHashString> >::_Reserve
_TEXT	ENDS
PUBLIC	??0?$vector@VioHashString@@V?$allocator@VioHashString@@@std@@@std@@QAE@ABV01@@Z ; std::vector<ioHashString,std::allocator<ioHashString> >::vector<ioHashString,std::allocator<ioHashString> >
;	COMDAT xdata$x
; File c:\program files (x86)\microsoft visual studio 10.0\vc\include\xutility
xdata$x	SEGMENT
__catchsym$??0?$vector@VioHashString@@V?$allocator@VioHashString@@@std@@@std@@QAE@ABV01@@Z$2 DD 040H
	DD	00H
	DD	00H
	DD	FLAT:__catch$??0?$vector@VioHashString@@V?$allocator@VioHashString@@@std@@@std@@QAE@ABV01@@Z$0
__unwindtable$??0?$vector@VioHashString@@V?$allocator@VioHashString@@@std@@@std@@QAE@ABV01@@Z DD 0ffffffffH
	DD	00H
	DD	0ffffffffH
	DD	00H
__tryblocktable$??0?$vector@VioHashString@@V?$allocator@VioHashString@@@std@@@std@@QAE@ABV01@@Z DD 00H
	DD	00H
	DD	01H
	DD	01H
	DD	FLAT:__catchsym$??0?$vector@VioHashString@@V?$allocator@VioHashString@@@std@@@std@@QAE@ABV01@@Z$2
__ehfuncinfo$??0?$vector@VioHashString@@V?$allocator@VioHashString@@@std@@@std@@QAE@ABV01@@Z DD 019930522H
	DD	02H
	DD	FLAT:__unwindtable$??0?$vector@VioHashString@@V?$allocator@VioHashString@@@std@@@std@@QAE@ABV01@@Z
	DD	01H
	DD	FLAT:__tryblocktable$??0?$vector@VioHashString@@V?$allocator@VioHashString@@@std@@@std@@QAE@ABV01@@Z
	DD	2 DUP(00H)
	DD	00H
	DD	01H
; Function compile flags: /Ogsp
; File c:\program files (x86)\microsoft visual studio 10.0\vc\include\vector
xdata$x	ENDS
;	COMDAT ??0?$vector@VioHashString@@V?$allocator@VioHashString@@@std@@@std@@QAE@ABV01@@Z
_TEXT	SEGMENT
_this$ = -20						; size = 4
__$EHRec$ = -16						; size = 16
__Cat$616464 = 8					; size = 1
__Right$ = 8						; size = 4
??0?$vector@VioHashString@@V?$allocator@VioHashString@@@std@@@std@@QAE@ABV01@@Z PROC ; std::vector<ioHashString,std::allocator<ioHashString> >::vector<ioHashString,std::allocator<ioHashString> >, COMDAT
; _this$ = ecx

; 535  : 		{	// construct by copying _Right

  00000	6a 08		 push	 8
  00002	b8 00 00 00 00	 mov	 eax, __ehhandler$??0?$vector@VioHashString@@V?$allocator@VioHashString@@@std@@@std@@QAE@ABV01@@Z
  00007	e8 00 00 00 00	 call	 __EH_prolog3_catch
  0000c	8b f1		 mov	 esi, ecx
  0000e	89 75 ec	 mov	 DWORD PTR _this$[ebp], esi

; 536  : 		if (_Buy(_Right.size()))

  00011	8b 7d 08	 mov	 edi, DWORD PTR __Right$[ebp]
  00014	33 db		 xor	 ebx, ebx
  00016	89 1e		 mov	 DWORD PTR [esi], ebx
  00018	89 5e 04	 mov	 DWORD PTR [esi+4], ebx
  0001b	89 5e 08	 mov	 DWORD PTR [esi+8], ebx
  0001e	8b 47 04	 mov	 eax, DWORD PTR [edi+4]
  00021	2b 07		 sub	 eax, DWORD PTR [edi]
  00023	c1 f8 04	 sar	 eax, 4
  00026	50		 push	 eax
  00027	e8 00 00 00 00	 call	 ?_Buy@?$vector@VioHashString@@V?$allocator@VioHashString@@@std@@@std@@IAE_NI@Z ; std::vector<ioHashString,std::allocator<ioHashString> >::_Buy
  0002c	84 c0		 test	 al, al
  0002e	74 1f		 je	 SHORT $LN7@vector

; 537  : 			_TRY_BEGIN
; 538  : 			this->_Mylast = _Ucopy(_Right.begin(), _Right.end(),
; 539  : 				this->_Myfirst);

  00030	ff 75 08	 push	 DWORD PTR __Cat$616464[ebp]
  00033	8b 0e		 mov	 ecx, DWORD PTR [esi]
  00035	8b 47 04	 mov	 eax, DWORD PTR [edi+4]
  00038	8b 3f		 mov	 edi, DWORD PTR [edi]
  0003a	8d 56 0c	 lea	 edx, DWORD PTR [esi+12]
  0003d	52		 push	 edx
  0003e	51		 push	 ecx
  0003f	50		 push	 eax
  00040	57		 push	 edi
  00041	89 5d fc	 mov	 DWORD PTR __$EHRec$[ebp+12], ebx
  00044	e8 00 00 00 00	 call	 ??$_Uninit_copy@V?$_Vector_const_iterator@V?$_Vector_val@VioHashString@@V?$allocator@VioHashString@@@std@@@std@@@std@@PAVioHashString@@V?$allocator@VioHashString@@@2@@std@@YAPAVioHashString@@V?$_Vector_const_iterator@V?$_Vector_val@VioHashString@@V?$allocator@VioHashString@@@std@@@std@@@0@0PAV1@AAV?$allocator@VioHashString@@@0@U_Nonscalar_ptr_iterator_tag@0@@Z ; std::_Uninit_copy<std::_Vector_const_iterator<std::_Vector_val<ioHashString,std::allocator<ioHashString> > >,ioHashString *,std::allocator<ioHashString> >
  00049	83 c4 14	 add	 esp, 20			; 00000014H
  0004c	89 46 04	 mov	 DWORD PTR [esi+4], eax
$LN7@vector:

; 543  : 			_CATCH_END
; 544  : 		}

  0004f	8b c6		 mov	 eax, esi
  00051	e8 00 00 00 00	 call	 __EH_epilog3
  00056	c2 04 00	 ret	 4
__catch$??0?$vector@VioHashString@@V?$allocator@VioHashString@@@std@@@std@@QAE@ABV01@@Z$0:

; 540  : 			_CATCH_ALL
; 541  : 			_Tidy();

  00059	8b 4d ec	 mov	 ecx, DWORD PTR _this$[ebp]
  0005c	e8 00 00 00 00	 call	 ?_Tidy@?$vector@VioHashString@@V?$allocator@VioHashString@@@std@@@std@@IAEXXZ ; std::vector<ioHashString,std::allocator<ioHashString> >::_Tidy

; 542  : 			_RERAISE;

  00061	33 db		 xor	 ebx, ebx
  00063	53		 push	 ebx
  00064	53		 push	 ebx
  00065	e8 00 00 00 00	 call	 __CxxThrowException@8
$LN38@vector:
$LN37@vector:
  0006a	cc		 int	 3
_TEXT	ENDS
;	COMDAT text$x
text$x	SEGMENT
__ehhandler$??0?$vector@VioHashString@@V?$allocator@VioHashString@@@std@@@std@@QAE@ABV01@@Z:
  00000	8b 54 24 08	 mov	 edx, DWORD PTR [esp+8]
  00004	8d 42 0c	 lea	 eax, DWORD PTR [edx+12]
  00007	8b 4a e8	 mov	 ecx, DWORD PTR [edx-24]
  0000a	33 c8		 xor	 ecx, eax
  0000c	e8 00 00 00 00	 call	 @__security_check_cookie@4
  00011	b8 00 00 00 00	 mov	 eax, OFFSET __ehfuncinfo$??0?$vector@VioHashString@@V?$allocator@VioHashString@@@std@@@std@@QAE@ABV01@@Z
  00016	e9 00 00 00 00	 jmp	 ___CxxFrameHandler3
text$x	ENDS
??0?$vector@VioHashString@@V?$allocator@VioHashString@@@std@@@std@@QAE@ABV01@@Z ENDP ; std::vector<ioHashString,std::allocator<ioHashString> >::vector<ioHashString,std::allocator<ioHashString> >
PUBLIC	??1?$vector@VioHashString@@V?$allocator@VioHashString@@@std@@@std@@QAE@XZ ; std::vector<ioHashString,std::allocator<ioHashString> >::~vector<ioHashString,std::allocator<ioHashString> >
; Function compile flags: /Ogsp
;	COMDAT ??1?$vector@VioHashString@@V?$allocator@VioHashString@@@std@@@std@@QAE@XZ
_TEXT	SEGMENT
??1?$vector@VioHashString@@V?$allocator@VioHashString@@@std@@@std@@QAE@XZ PROC ; std::vector<ioHashString,std::allocator<ioHashString> >::~vector<ioHashString,std::allocator<ioHashString> >, COMDAT
; _this$ = ecx

; 705  : 		_Tidy();

  00000	e9 00 00 00 00	 jmp	 ?_Tidy@?$vector@VioHashString@@V?$allocator@VioHashString@@@std@@@std@@IAEXXZ ; std::vector<ioHashString,std::allocator<ioHashString> >::_Tidy
??1?$vector@VioHashString@@V?$allocator@VioHashString@@@std@@@std@@QAE@XZ ENDP ; std::vector<ioHashString,std::allocator<ioHashString> >::~vector<ioHashString,std::allocator<ioHashString> >
_TEXT	ENDS
PUBLIC	?clear@?$vector@VioHashString@@V?$allocator@VioHashString@@@std@@@std@@QAEXXZ ; std::vector<ioHashString,std::allocator<ioHashString> >::clear
; Function compile flags: /Ogsp
;	COMDAT ?clear@?$vector@VioHashString@@V?$allocator@VioHashString@@@std@@@std@@QAEXXZ
_TEXT	SEGMENT
$T616496 = -4						; size = 4
?clear@?$vector@VioHashString@@V?$allocator@VioHashString@@@std@@@std@@QAEXXZ PROC ; std::vector<ioHashString,std::allocator<ioHashString> >::clear, COMDAT
; _this$ = ecx

; 1217 : 		{	// erase all

  00000	55		 push	 ebp
  00001	8b ec		 mov	 ebp, esp
  00003	51		 push	 ecx

; 1218 : 		erase(begin(), end());

  00004	8b 41 04	 mov	 eax, DWORD PTR [ecx+4]
  00007	8b 11		 mov	 edx, DWORD PTR [ecx]
  00009	50		 push	 eax
  0000a	52		 push	 edx
  0000b	8d 45 fc	 lea	 eax, DWORD PTR $T616496[ebp]
  0000e	50		 push	 eax
  0000f	e8 00 00 00 00	 call	 ?erase@?$vector@VioHashString@@V?$allocator@VioHashString@@@std@@@std@@QAE?AV?$_Vector_iterator@V?$_Vector_val@VioHashString@@V?$allocator@VioHashString@@@std@@@std@@@2@V?$_Vector_const_iterator@V?$_Vector_val@VioHashString@@V?$allocator@VioHashString@@@std@@@std@@@2@0@Z ; std::vector<ioHashString,std::allocator<ioHashString> >::erase

; 1219 : 		}

  00014	c9		 leave
  00015	c3		 ret	 0
?clear@?$vector@VioHashString@@V?$allocator@VioHashString@@@std@@@std@@QAEXXZ ENDP ; std::vector<ioHashString,std::allocator<ioHashString> >::clear
_TEXT	ENDS
PUBLIC	??1tagDraculaFlyInfo@@QAE@XZ			; tagDraculaFlyInfo::~tagDraculaFlyInfo
; Function compile flags: /Ogsp
;	COMDAT ??1tagDraculaFlyInfo@@QAE@XZ
_TEXT	SEGMENT
??1tagDraculaFlyInfo@@QAE@XZ PROC			; tagDraculaFlyInfo::~tagDraculaFlyInfo, COMDAT
; _this$ = ecx
  00000	83 c1 18	 add	 ecx, 24			; 00000018H
  00003	e9 00 00 00 00	 jmp	 ?_Tidy@?$vector@VioHashString@@V?$allocator@VioHashString@@@std@@@std@@IAEXXZ ; std::vector<ioHashString,std::allocator<ioHashString> >::_Tidy
??1tagDraculaFlyInfo@@QAE@XZ ENDP			; tagDraculaFlyInfo::~tagDraculaFlyInfo
_TEXT	ENDS
PUBLIC	??0tagDraculaFlyInfo@@QAE@ABU0@@Z		; tagDraculaFlyInfo::tagDraculaFlyInfo
; Function compile flags: /Ogsp
;	COMDAT ??0tagDraculaFlyInfo@@QAE@ABU0@@Z
_TEXT	SEGMENT
___that$ = 8						; size = 4
??0tagDraculaFlyInfo@@QAE@ABU0@@Z PROC			; tagDraculaFlyInfo::tagDraculaFlyInfo, COMDAT
; _this$ = ecx
  00000	55		 push	 ebp
  00001	8b ec		 mov	 ebp, esp
  00003	8b 45 08	 mov	 eax, DWORD PTR ___that$[ebp]
  00006	d9 00		 fld	 DWORD PTR [eax]
  00008	56		 push	 esi
  00009	8b f1		 mov	 esi, ecx
  0000b	d9 1e		 fstp	 DWORD PTR [esi]
  0000d	83 c0 18	 add	 eax, 24			; 00000018H
  00010	d9 40 ec	 fld	 DWORD PTR [eax-20]
  00013	50		 push	 eax
  00014	d9 5e 04	 fstp	 DWORD PTR [esi+4]
  00017	8b 48 f0	 mov	 ecx, DWORD PTR [eax-16]
  0001a	89 4e 08	 mov	 DWORD PTR [esi+8], ecx
  0001d	8b 48 f4	 mov	 ecx, DWORD PTR [eax-12]
  00020	89 4e 0c	 mov	 DWORD PTR [esi+12], ecx
  00023	d9 40 f8	 fld	 DWORD PTR [eax-8]
  00026	d9 5e 10	 fstp	 DWORD PTR [esi+16]
  00029	8d 4e 18	 lea	 ecx, DWORD PTR [esi+24]
  0002c	d9 40 fc	 fld	 DWORD PTR [eax-4]
  0002f	d9 5e 14	 fstp	 DWORD PTR [esi+20]
  00032	e8 00 00 00 00	 call	 ??0?$vector@VioHashString@@V?$allocator@VioHashString@@@std@@@std@@QAE@ABV01@@Z ; std::vector<ioHashString,std::allocator<ioHashString> >::vector<ioHashString,std::allocator<ioHashString> >
  00037	8b c6		 mov	 eax, esi
  00039	5e		 pop	 esi
  0003a	5d		 pop	 ebp
  0003b	c2 04 00	 ret	 4
??0tagDraculaFlyInfo@@QAE@ABU0@@Z ENDP			; tagDraculaFlyInfo::tagDraculaFlyInfo
_TEXT	ENDS
PUBLIC	??_7ioDraculaItem@@6B@				; ioDraculaItem::`vftable'
PUBLIC	??1ioDraculaItem@@UAE@XZ			; ioDraculaItem::~ioDraculaItem
PUBLIC	??_R4ioDraculaItem@@6B@				; ioDraculaItem::`RTTI Complete Object Locator'
PUBLIC	??_R3ioDraculaItem@@8				; ioDraculaItem::`RTTI Class Hierarchy Descriptor'
PUBLIC	??_R2ioDraculaItem@@8				; ioDraculaItem::`RTTI Base Class Array'
PUBLIC	??_R1A@?0A@EA@ioDraculaItem@@8			; ioDraculaItem::`RTTI Base Class Descriptor at (0,-1,0,64)'
PUBLIC	??_R1A@?0A@EA@ioWeaponItem@@8			; ioWeaponItem::`RTTI Base Class Descriptor at (0,-1,0,64)'
PUBLIC	??_R3ioWeaponItem@@8				; ioWeaponItem::`RTTI Class Hierarchy Descriptor'
PUBLIC	??_R2ioWeaponItem@@8				; ioWeaponItem::`RTTI Base Class Array'
PUBLIC	??_R1A@?0A@EA@ioAttackableItem@@8		; ioAttackableItem::`RTTI Base Class Descriptor at (0,-1,0,64)'
PUBLIC	??_R0?AVioAttackableItem@@@8			; ioAttackableItem `RTTI Type Descriptor'
PUBLIC	??_R3ioAttackableItem@@8			; ioAttackableItem::`RTTI Class Hierarchy Descriptor'
PUBLIC	??_R2ioAttackableItem@@8			; ioAttackableItem::`RTTI Base Class Array'
PUBLIC	??_R1A@?0A@EA@ioItem@@8				; ioItem::`RTTI Base Class Descriptor at (0,-1,0,64)'
PUBLIC	??_R3ioItem@@8					; ioItem::`RTTI Class Hierarchy Descriptor'
PUBLIC	??_R2ioItem@@8					; ioItem::`RTTI Base Class Array'
PUBLIC	?LoadProperty@ioDraculaItem@@UAEXAAVioINILoader@@@Z ; ioDraculaItem::LoadProperty
PUBLIC	?Clone@ioDraculaItem@@UAEPAVioItem@@XZ		; ioDraculaItem::Clone
PUBLIC	?IsEnableExtraGauge@ioItem@@UAE_NPAVioBaseChar@@@Z ; ioItem::IsEnableExtraGauge
PUBLIC	?GetExtraGauge@ioItem@@UAEMXZ			; ioItem::GetExtraGauge
PUBLIC	?CheckNormalAttack@ioDraculaItem@@UAEXPAVioBaseChar@@@Z ; ioDraculaItem::CheckNormalAttack
PUBLIC	?OnItemGaugeCancel@ioDraculaItem@@UAEXPAVioBaseChar@@AAVSP2Packet@@@Z ; ioDraculaItem::OnItemGaugeCancel
PUBLIC	?CheckOnHand@ioAttackableItem@@UAE_NXZ		; ioAttackableItem::CheckOnHand
PUBLIC	?CheckAimState@ioAttackableItem@@UAE_N_N@Z	; ioAttackableItem::CheckAimState
PUBLIC	?SetAimState@ioAttackableItem@@UAE_NPAVioBaseChar@@@Z ; ioAttackableItem::SetAimState
PUBLIC	?CheckExtendDefenseEnable@ioAttackableItem@@UAE_NPAVioBaseChar@@@Z ; ioAttackableItem::CheckExtendDefenseEnable
PUBLIC	?IsChargeAttackState@ioAttackableItem@@UAE_NPAVioBaseChar@@@Z ; ioAttackableItem::IsChargeAttackState
PUBLIC	?IsMoveAttackState@ioAttackableItem@@UAE_NPAVioBaseChar@@@Z ; ioAttackableItem::IsMoveAttackState
PUBLIC	?IsNoGhostWalk@ioAttackableItem@@UAE_NPAVioBaseChar@@@Z ; ioAttackableItem::IsNoGhostWalk
PUBLIC	?IsEnableAttackDashCheck@ioAttackableItem@@UAE_NPAVioBaseChar@@_N@Z ; ioAttackableItem::IsEnableAttackDashCheck
PUBLIC	?IsEnableItemDashCheck@ioAttackableItem@@UAE_NPAVioBaseChar@@_N@Z ; ioAttackableItem::IsEnableItemDashCheck
PUBLIC	?IsEnableAttackRotateCheck@ioAttackableItem@@UAE_NPAVioBaseChar@@@Z ; ioAttackableItem::IsEnableAttackRotateCheck
PUBLIC	?IsEnableChargeDefenseCheck@ioAttackableItem@@UAE_NXZ ; ioAttackableItem::IsEnableChargeDefenseCheck
PUBLIC	?IsUseDefenceCounterAttackEndDash@ioAttackableItem@@UAE_NXZ ; ioAttackableItem::IsUseDefenceCounterAttackEndDash
PUBLIC	?IsAutoTarget@ioAttackableItem@@UBE_NXZ		; ioAttackableItem::IsAutoTarget
PUBLIC	?IsWoundAfterUseExtendState@ioAttackableItem@@UAE_NXZ ; ioAttackableItem::IsWoundAfterUseExtendState
PUBLIC	?CheckWoundAfterUseExtendState@ioAttackableItem@@UAE_NPAVioBaseChar@@W4BlowTargetType@@@Z ; ioAttackableItem::CheckWoundAfterUseExtendState
PUBLIC	?IsCharSkipState@ioAttackableItem@@UAE_NPBVioBaseChar@@@Z ; ioAttackableItem::IsCharSkipState
EXTRN	??1ioWeaponItem@@UAE@XZ:PROC			; ioWeaponItem::~ioWeaponItem
EXTRN	?FindFieldEntityGrp@ioItem@@MBEABVioHashString@@XZ:PROC ; ioItem::FindFieldEntityGrp
EXTRN	?GetType@ioWeaponItem@@UBE?AW4ItemType@ioItem@@XZ:PROC ; ioWeaponItem::GetType
EXTRN	?UseCreateIndexItem@ioItem@@UBE_NXZ:PROC	; ioItem::UseCreateIndexItem
EXTRN	?GetSetFocusColor@ioItem@@UBEKXZ:PROC		; ioItem::GetSetFocusColor
EXTRN	?Initialize@ioItem@@UAEXABVioHashString@@PAVioPlayStage@@@Z:PROC ; ioItem::Initialize
EXTRN	?InitializeBeforeEquip@ioItem@@UAEXABVioHashString@@PAVioPlayStage@@@Z:PROC ; ioItem::InitializeBeforeEquip
EXTRN	?SetExtendEquipEffect@ioItem@@UAEXPAVioBaseChar@@@Z:PROC ; ioItem::SetExtendEquipEffect
EXTRN	?ReleaseExtendEquipEffect@ioItem@@UAEXPAVioBaseChar@@@Z:PROC ; ioItem::ReleaseExtendEquipEffect
EXTRN	?AddGlowLine@ioWeaponItem@@UAEXPAVioBaseChar@@@Z:PROC ; ioWeaponItem::AddGlowLine
EXTRN	?RemoveGlowLine@ioWeaponItem@@UAEXPAVioBaseChar@@@Z:PROC ; ioWeaponItem::RemoveGlowLine
EXTRN	?GetTargetName@ioItem@@UAE?AVioHashString@@XZ:PROC ; ioItem::GetTargetName
EXTRN	?ClearTarget@ioItem@@UAEXXZ:PROC		; ioItem::ClearTarget
EXTRN	?SetItemType@ioWeaponItem@@UAEXXZ:PROC		; ioWeaponItem::SetItemType
EXTRN	?CheckWeaponDefenseState@ioItem@@UAEXPAVioBaseChar@@@Z:PROC ; ioItem::CheckWeaponDefenseState
EXTRN	?CheckWoundedState@ioItem@@UAEXPAVioBaseChar@@@Z:PROC ; ioItem::CheckWoundedState
EXTRN	?SetVisible@ioItem@@UAEXPAVioBaseChar@@_N@Z:PROC ; ioItem::SetVisible
EXTRN	?UpdateSkillGauge@ioItem@@UAEXPAVioBaseChar@@M_N@Z:PROC ; ioItem::UpdateSkillGauge
EXTRN	?ReduceNeedGauge@ioItem@@UAEXMPAVioBaseChar@@@Z:PROC ; ioItem::ReduceNeedGauge
EXTRN	?GetCurSecoundBullet@ioItem@@UAEHXZ:PROC	; ioItem::GetCurSecoundBullet
EXTRN	?GetMaxSecoundBullet@ioItem@@UAEHXZ:PROC	; ioItem::GetMaxSecoundBullet
EXTRN	?SetCurSecoundBullet@ioItem@@UAEXH@Z:PROC	; ioItem::SetCurSecoundBullet
EXTRN	?GetGrowthInfoNum@ioItem@@UBEHH@Z:PROC		; ioItem::GetGrowthInfoNum
EXTRN	?GetGrowthInfoNumByType@ioItem@@UBEHHAAH@Z:PROC	; ioItem::GetGrowthInfoNumByType
EXTRN	?ClearCurChargeRateForSkill@ioItem@@UAEXXZ:PROC	; ioItem::ClearCurChargeRateForSkill
EXTRN	?GetChargeDamageRateForSkill@ioItem@@UAEMXZ:PROC ; ioItem::GetChargeDamageRateForSkill
EXTRN	?GetChargeForceRateForSkill@ioItem@@UAEMXZ:PROC	; ioItem::GetChargeForceRateForSkill
EXTRN	?GetChargeBlowRateForSkill@ioItem@@UAEMXZ:PROC	; ioItem::GetChargeBlowRateForSkill
EXTRN	?GetChargeRangeRateForSkill@ioItem@@UAEMXZ:PROC	; ioItem::GetChargeRangeRateForSkill
EXTRN	?GetChargeSpeedRateForSkill@ioItem@@UAEMXZ:PROC	; ioItem::GetChargeSpeedRateForSkill
EXTRN	?GetChargeFloatRateForSkill@ioItem@@UAEMXZ:PROC	; ioItem::GetChargeFloatRateForSkill
EXTRN	?GetChargeScaleRateForSkill@ioItem@@UAEMXZ:PROC	; ioItem::GetChargeScaleRateForSkill
EXTRN	?GetChargeExplosionRateForSkill@ioItem@@UAEMXZ:PROC ; ioItem::GetChargeExplosionRateForSkill
EXTRN	?GetChargeWoundedTimeRateForSkill@ioItem@@UAEMXZ:PROC ; ioItem::GetChargeWoundedTimeRateForSkill
EXTRN	?SetCurEquipEffect@ioItem@@UAEX_N@Z:PROC	; ioItem::SetCurEquipEffect
EXTRN	?SetCostume@ioItem@@UAEXH_N@Z:PROC		; ioItem::SetCostume
EXTRN	??_EioDraculaItem@@UAEPAXI@Z:PROC		; ioDraculaItem::`vector deleting destructor'
EXTRN	?IsCanFire@ioAttackableItem@@UBE_NPBVioBaseChar@@H_N@Z:PROC ; ioAttackableItem::IsCanFire
EXTRN	?CallItemProcess@ioAttackableItem@@UAEXPAVioBaseChar@@@Z:PROC ; ioAttackableItem::CallItemProcess
EXTRN	?CheckChargeInfo@ioAttackableItem@@UAEXPAVioWeapon@@_N@Z:PROC ; ioAttackableItem::CheckChargeInfo
EXTRN	?SetExtendDefenseState@ioAttackableItem@@UAE_NPAVioBaseChar@@@Z:PROC ; ioAttackableItem::SetExtendDefenseState
EXTRN	?CheckExtendDefenseState@ioAttackableItem@@UAEXPAVioBaseChar@@@Z:PROC ; ioAttackableItem::CheckExtendDefenseState
EXTRN	?CheckDefenseMoveAniState@ioAttackableItem@@UAEXPAVioBaseChar@@@Z:PROC ; ioAttackableItem::CheckDefenseMoveAniState
EXTRN	?SetDodgeDefenseState@ioAttackableItem@@UAE_NPAVioBaseChar@@@Z:PROC ; ioAttackableItem::SetDodgeDefenseState
EXTRN	?CheckDodgeDefenseState@ioAttackableItem@@UAEXPAVioBaseChar@@@Z:PROC ; ioAttackableItem::CheckDodgeDefenseState
EXTRN	?ApplyDodgeDefenseState@ioAttackableItem@@UAEXPAVioBaseChar@@AAVSP2Packet@@@Z:PROC ; ioAttackableItem::ApplyDodgeDefenseState
EXTRN	?SetDefenseAttackState@ioAttackableItem@@UAE_NPAVioBaseChar@@@Z:PROC ; ioAttackableItem::SetDefenseAttackState
EXTRN	?CheckDefenseAttackState@ioAttackableItem@@UAEXPAVioBaseChar@@@Z:PROC ; ioAttackableItem::CheckDefenseAttackState
EXTRN	?ApplyDefenseAttackState@ioAttackableItem@@UAEXPAVioBaseChar@@AAVSP2Packet@@@Z:PROC ; ioAttackableItem::ApplyDefenseAttackState
EXTRN	?SetExtendDashState@ioAttackableItem@@UAE_NPAVioBaseChar@@@Z:PROC ; ioAttackableItem::SetExtendDashState
EXTRN	?CheckExtendDashState@ioAttackableItem@@UAEXPAVioBaseChar@@@Z:PROC ; ioAttackableItem::CheckExtendDashState
EXTRN	?SetJumpAttack@ioAttackableItem@@UAE_NPAVioBaseChar@@HMW4AttackType@@@Z:PROC ; ioAttackableItem::SetJumpAttack
EXTRN	?CheckJumpAttack@ioAttackableItem@@UAEXPAVioBaseChar@@@Z:PROC ; ioAttackableItem::CheckJumpAttack
EXTRN	?SetJumpReloadState@ioAttackableItem@@UAE_NPAVioBaseChar@@@Z:PROC ; ioAttackableItem::SetJumpReloadState
EXTRN	?SetJumpReload@ioAttackableItem@@UAE_NPAVioBaseChar@@@Z:PROC ; ioAttackableItem::SetJumpReload
EXTRN	?CheckJumpReloadState@ioAttackableItem@@UAEXPAVioBaseChar@@@Z:PROC ; ioAttackableItem::CheckJumpReloadState
EXTRN	?CheckJumpReloadReserve@ioAttackableItem@@UAEXPAVioBaseChar@@@Z:PROC ; ioAttackableItem::CheckJumpReloadReserve
EXTRN	?ProcessJumpReloadState@ioAttackableItem@@UAEXPAVioBaseChar@@@Z:PROC ; ioAttackableItem::ProcessJumpReloadState
EXTRN	?ApplyJumpReload@ioAttackableItem@@UAEXPAVioBaseChar@@AAVSP2Packet@@@Z:PROC ; ioAttackableItem::ApplyJumpReload
EXTRN	?OnEndExtendDefense@ioAttackableItem@@UAEXPAVioBaseChar@@@Z:PROC ; ioAttackableItem::OnEndExtendDefense
EXTRN	?OnEndNormalAttack@ioAttackableItem@@UAEXPAVioBaseChar@@@Z:PROC ; ioAttackableItem::OnEndNormalAttack
EXTRN	?OnEndExtendJump@ioAttackableItem@@UAEXPAVioBaseChar@@@Z:PROC ; ioAttackableItem::OnEndExtendJump
EXTRN	?FillNormalAttackExtraInfo@ioAttackableItem@@UAEXAAVSP2Packet@@@Z:PROC ; ioAttackableItem::FillNormalAttackExtraInfo
EXTRN	?ApplyNormalAttackExtraInfo@ioAttackableItem@@UAEXAAVSP2Packet@@@Z:PROC ; ioAttackableItem::ApplyNormalAttackExtraInfo
EXTRN	?CheckLanding@ioAttackableItem@@UAE_NPAVioBaseChar@@@Z:PROC ; ioAttackableItem::CheckLanding
EXTRN	?SetNoneState@ioAttackableItem@@UAEXPAVioBaseChar@@H@Z:PROC ; ioAttackableItem::SetNoneState
EXTRN	?IsCanUpdateGauge@ioAttackableItem@@UAE_NPAVioBaseChar@@@Z:PROC ; ioAttackableItem::IsCanUpdateGauge
EXTRN	?CheckAimJumpState@ioAttackableItem@@UAEXPAVioBaseChar@@@Z:PROC ; ioAttackableItem::CheckAimJumpState
EXTRN	?GetJumppingAnimation@ioAttackableItem@@UBEABVioHashString@@XZ:PROC ; ioAttackableItem::GetJumppingAnimation
EXTRN	?GetExtendJumppingAnimation@ioAttackableItem@@UBEABVioHashString@@XZ:PROC ; ioAttackableItem::GetExtendJumppingAnimation
EXTRN	?CheckRetreatState@ioAttackableItem@@UAEXPAVioBaseChar@@@Z:PROC ; ioAttackableItem::CheckRetreatState
EXTRN	?SetNextItemState@ioAttackableItem@@UAEXPAVioBaseChar@@0PAVioWeapon@@_NM@Z:PROC ; ioAttackableItem::SetNextItemState
EXTRN	?WeaponWounded@ioWeaponItem@@UAEXPAVioWeapon@@PAVioBaseChar@@@Z:PROC ; ioWeaponItem::WeaponWounded
EXTRN	?WeaponMapColDead@ioAttackableItem@@UAEXPAVioWeapon@@@Z:PROC ; ioAttackableItem::WeaponMapColDead
EXTRN	?SetDefenceCounterState@ioAttackableItem@@UAEXPAVioBaseChar@@@Z:PROC ; ioAttackableItem::SetDefenceCounterState
EXTRN	?IsUseDefenceCounterAttack@ioAttackableItem@@UAE_NXZ:PROC ; ioAttackableItem::IsUseDefenceCounterAttack
EXTRN	?ProcessDefenceCounterAttack@ioAttackableItem@@UAEXPAVioBaseChar@@@Z:PROC ; ioAttackableItem::ProcessDefenceCounterAttack
EXTRN	?ProcessExtraJump@ioAttackableItem@@UAEXPAVioBaseChar@@@Z:PROC ; ioAttackableItem::ProcessExtraJump
EXTRN	?SetEndGrappling@ioAttackableItem@@UAEXPAVioBaseChar@@@Z:PROC ; ioAttackableItem::SetEndGrappling
EXTRN	?ClearKeyReserve@ioAttackableItem@@MAEXXZ:PROC	; ioAttackableItem::ClearKeyReserve
EXTRN	?CheckReserve@ioAttackableItem@@MAEXPAVioBaseChar@@@Z:PROC ; ioAttackableItem::CheckReserve
EXTRN	?ProcessReserveKeyInput@ioAttackableItem@@MAEXPAVioBaseChar@@@Z:PROC ; ioAttackableItem::ProcessReserveKeyInput
EXTRN	?SetJumpState@ioAttackableItem@@UAEXXZ:PROC	; ioAttackableItem::SetJumpState
EXTRN	?SetJumpping@ioAttackableItem@@UAEXPAVioBaseChar@@_N@Z:PROC ; ioAttackableItem::SetJumpping
EXTRN	?ProcessJumpping@ioAttackableItem@@UAEXPAVioBaseChar@@M@Z:PROC ; ioAttackableItem::ProcessJumpping
EXTRN	?ProcessJumppingByNoNeedProcess@ioAttackableItem@@UAEXPAVioBaseChar@@M@Z:PROC ; ioAttackableItem::ProcessJumppingByNoNeedProcess
EXTRN	?ProcessLanding@ioAttackableItem@@UAEXPAVioBaseChar@@@Z:PROC ; ioAttackableItem::ProcessLanding
EXTRN	?ProcessJumpAttack@ioAttackableItem@@UAEXPAVioBaseChar@@M@Z:PROC ; ioAttackableItem::ProcessJumpAttack
EXTRN	?ProcessAimJump@ioAttackableItem@@UAE_NPAVioBaseChar@@M@Z:PROC ; ioAttackableItem::ProcessAimJump
EXTRN	?ApplyJump@ioAttackableItem@@UAEXPAVioBaseChar@@AAVSP2Packet@@@Z:PROC ; ioAttackableItem::ApplyJump
EXTRN	?ApplyDash@ioAttackableItem@@UAEXPAVioBaseChar@@AAVSP2Packet@@@Z:PROC ; ioAttackableItem::ApplyDash
EXTRN	?ApplyCounterAttack@ioAttackableItem@@UAEXPAVioBaseChar@@AAVSP2Packet@@@Z:PROC ; ioAttackableItem::ApplyCounterAttack
EXTRN	?CheckComboJumpAttack@ioAttackableItem@@UAEXPAVioBaseChar@@@Z:PROC ; ioAttackableItem::CheckComboJumpAttack
EXTRN	?SetFlashJumpAttack@ioAttackableItem@@UAE_NPAVioBaseChar@@@Z:PROC ; ioAttackableItem::SetFlashJumpAttack
EXTRN	?SetComboFlashAttack@ioAttackableItem@@UAE_NPAVioBaseChar@@@Z:PROC ; ioAttackableItem::SetComboFlashAttack
EXTRN	?SetCollectJumpAttack@ioAttackableItem@@UAE_NPAVioBaseChar@@@Z:PROC ; ioAttackableItem::SetCollectJumpAttack
EXTRN	?SetPowerChargeJumpAttack@ioAttackableItem@@UAE_NPAVioBaseChar@@@Z:PROC ; ioAttackableItem::SetPowerChargeJumpAttack
EXTRN	?GetAttackSpeedRate@ioAttackableItem@@UBEMXZ:PROC ; ioAttackableItem::GetAttackSpeedRate
EXTRN	?GetExtraJumpSpeedRate@ioAttackableItem@@UBEMABUD3DXVECTOR3@@ABUD3DXQUATERNION@@@Z:PROC ; ioAttackableItem::GetExtraJumpSpeedRate
EXTRN	?IsEnableExtendJump@ioAttackableItem@@UAE_NXZ:PROC ; ioAttackableItem::IsEnableExtendJump
EXTRN	?RecevieExtendJumpUse@ioAttackableItem@@UAEXPAVioBaseChar@@@Z:PROC ; ioAttackableItem::RecevieExtendJumpUse
EXTRN	?HasAniFile@ioAttackableItem@@UBE_NW4AttackType@@H@Z:PROC ; ioAttackableItem::HasAniFile
EXTRN	?HasEndAniFile@ioAttackableItem@@UBE_NW4AttackType@@H@Z:PROC ; ioAttackableItem::HasEndAniFile
EXTRN	?GetAttackAttribute@ioAttackableItem@@UBEPBUAttackAttribute@@W4AttackType@@H@Z:PROC ; ioAttackableItem::GetAttackAttribute
EXTRN	?GetAniFile@ioAttackableItem@@UBEABVioHashString@@W4AttackType@@H@Z:PROC ; ioAttackableItem::GetAniFile
EXTRN	?GetAttackAniRate@ioAttackableItem@@UBEMW4AttackType@@H@Z:PROC ; ioAttackableItem::GetAttackAniRate
EXTRN	?GetEndAniFile@ioAttackableItem@@UBEABVioHashString@@W4AttackType@@H@Z:PROC ; ioAttackableItem::GetEndAniFile
EXTRN	?GetAttackEndAniRate@ioAttackableItem@@UBEMW4AttackType@@H@Z:PROC ; ioAttackableItem::GetAttackEndAniRate
EXTRN	?GetAttackAttributeIdx@ioAttackableItem@@UBEABV?$vector@UWeaponInfo@@V?$allocator@UWeaponInfo@@@std@@@std@@W4AttackType@@H@Z:PROC ; ioAttackableItem::GetAttackAttributeIdx
EXTRN	?GetForceInfoList@ioAttackableItem@@UBEABV?$vector@UForceInfo@@V?$allocator@UForceInfo@@@std@@@std@@W4AttackType@@H@Z:PROC ; ioAttackableItem::GetForceInfoList
EXTRN	?GetAttackPreDelay@ioAttackableItem@@UBEKW4AttackType@@H@Z:PROC ; ioAttackableItem::GetAttackPreDelay
EXTRN	?GetAttackAnimationDelay@ioAttackableItem@@UBEKW4AttackType@@H@Z:PROC ; ioAttackableItem::GetAttackAnimationDelay
EXTRN	?GetMaxCombo@ioAttackableItem@@UBEHXZ:PROC	; ioAttackableItem::GetMaxCombo
EXTRN	?GetExtraDashAttackMax@ioAttackableItem@@UBEHXZ:PROC ; ioAttackableItem::GetExtraDashAttackMax
EXTRN	?HasJumpEndAnimation@ioAttackableItem@@UBE_N_NPAVioBaseChar@@@Z:PROC ; ioAttackableItem::HasJumpEndAnimation
EXTRN	?GetJumpEndAnimation@ioAttackableItem@@UBEABVioHashString@@_NPAVioBaseChar@@@Z:PROC ; ioAttackableItem::GetJumpEndAnimation
EXTRN	?ClearCancelInfo@ioAttackableItem@@MAEXXZ:PROC	; ioAttackableItem::ClearCancelInfo
EXTRN	?CheckCancelReserve@ioAttackableItem@@MAEXPAVioBaseChar@@@Z:PROC ; ioAttackableItem::CheckCancelReserve
EXTRN	?SetCurAttackAniForInputJump@ioAttackableItem@@MAEXABVioHashString@@M@Z:PROC ; ioAttackableItem::SetCurAttackAniForInputJump
EXTRN	?ProcessCancel@ioAttackableItem@@MAE_NPAVioBaseChar@@@Z:PROC ; ioAttackableItem::ProcessCancel
EXTRN	?ProcessCancelBySpeicalDash@ioAttackableItem@@MAE_NPAVioBaseChar@@@Z:PROC ; ioAttackableItem::ProcessCancelBySpeicalDash
EXTRN	?SetCurAttackAniForInputDashS@ioAttackableItem@@UAEXABVioHashString@@M@Z:PROC ; ioAttackableItem::SetCurAttackAniForInputDashS
EXTRN	?CheckCancelReserveByConditionalSpecialDash@ioAttackableItem@@UAEXPAVioBaseChar@@@Z:PROC ; ioAttackableItem::CheckCancelReserveByConditionalSpecialDash
EXTRN	?IsConditionalSpecialDashReserve@ioAttackableItem@@UAE_NPAVioBaseChar@@@Z:PROC ; ioAttackableItem::IsConditionalSpecialDashReserve
EXTRN	?SetChangeConditionalSpecialDash@ioAttackableItem@@UAEXPAVioBaseChar@@W4DirKeyInput@ioUserKeyInput@@H@Z:PROC ; ioAttackableItem::SetChangeConditionalSpecialDash
EXTRN	?CheckChangeWereWolfState@ioAttackableItem@@UAE_NPAVioBaseChar@@@Z:PROC ; ioAttackableItem::CheckChangeWereWolfState
EXTRN	?SetChangeWereWolfState@ioAttackableItem@@UAEXPAVioBaseChar@@@Z:PROC ; ioAttackableItem::SetChangeWereWolfState
EXTRN	?CheckReleaseWereWolfState@ioAttackableItem@@UAE_NPAVioBaseChar@@@Z:PROC ; ioAttackableItem::CheckReleaseWereWolfState
EXTRN	?ReleseWereWolfState@ioAttackableItem@@UAEXPAVioBaseChar@@@Z:PROC ; ioAttackableItem::ReleseWereWolfState
EXTRN	?ReleseWereWolfStateByOwner@ioAttackableItem@@UAEXPAVioBaseChar@@@Z:PROC ; ioAttackableItem::ReleseWereWolfStateByOwner
EXTRN	?IncreaseChangeDamage@ioAttackableItem@@UAEXMH_N@Z:PROC ; ioAttackableItem::IncreaseChangeDamage
EXTRN	?IncreaseChangeDamageByWeapon@ioAttackableItem@@UAEXM@Z:PROC ; ioAttackableItem::IncreaseChangeDamageByWeapon
EXTRN	?CheckIncreaseChangeDamage@ioAttackableItem@@UAEXPAVioBaseChar@@@Z:PROC ; ioAttackableItem::CheckIncreaseChangeDamage
EXTRN	?DecreaseChangeDamage@ioAttackableItem@@UAEXPAVioBaseChar@@@Z:PROC ; ioAttackableItem::DecreaseChangeDamage
EXTRN	?IsEnableActionStopDelay@ioAttackableItem@@UAE_NXZ:PROC ; ioAttackableItem::IsEnableActionStopDelay
EXTRN	?SetExtraGaugeTypeByWeapon@ioAttackableItem@@UAEXPAVioBaseChar@@HHM@Z:PROC ; ioAttackableItem::SetExtraGaugeTypeByWeapon
EXTRN	?SetUseExtraGauge@ioAttackableItem@@UAEXM@Z:PROC ; ioAttackableItem::SetUseExtraGauge
EXTRN	?InitExtraGauge@ioAttackableItem@@UAEXXZ:PROC	; ioAttackableItem::InitExtraGauge
EXTRN	?MaxExtraGauge@ioAttackableItem@@UAEXXZ:PROC	; ioAttackableItem::MaxExtraGauge
EXTRN	?GetMaxExtraGauge@ioAttackableItem@@UAEMXZ:PROC	; ioAttackableItem::GetMaxExtraGauge
EXTRN	?GetCurExtraGauge@ioAttackableItem@@UAEMXZ:PROC	; ioAttackableItem::GetCurExtraGauge
EXTRN	?SetCurExtraGauge@ioAttackableItem@@UAEXM@Z:PROC ; ioAttackableItem::SetCurExtraGauge
EXTRN	?GetAutoTargetValue@ioAttackableItem@@UAEXPAVioBaseChar@@AAM11W4AutoTargetType@@@Z:PROC ; ioAttackableItem::GetAutoTargetValue
EXTRN	?ClearAirJump@ioAttackableItem@@UAEXXZ:PROC	; ioAttackableItem::ClearAirJump
EXTRN	?SetAirJump@ioAttackableItem@@UAEXPAVioBaseChar@@HM@Z:PROC ; ioAttackableItem::SetAirJump
EXTRN	?CheckAirJump@ioAttackableItem@@UAEXPAVioBaseChar@@@Z:PROC ; ioAttackableItem::CheckAirJump
EXTRN	?EquipObjectItemByAttakable@ioAttackableItem@@UAEXPAVioBaseChar@@PAVioItem@@@Z:PROC ; ioAttackableItem::EquipObjectItemByAttakable
EXTRN	?ReleaseObjectItemByAttack@ioAttackableItem@@UAEXPAVioBaseChar@@PAVioItem@@@Z:PROC ; ioAttackableItem::ReleaseObjectItemByAttack
EXTRN	?IsBuffFlyChange@ioAttackableItem@@UAE_NPAVioBaseChar@@@Z:PROC ; ioAttackableItem::IsBuffFlyChange
EXTRN	?GetAttackStateText@ioAttackableItem@@UBEPBDXZ:PROC ; ioAttackableItem::GetAttackStateText
EXTRN	?SetJumpLandingExtraState@ioAttackableItem@@UAE_NPAVioBaseChar@@@Z:PROC ; ioAttackableItem::SetJumpLandingExtraState
EXTRN	?ReleaseObjectState@ioWeaponItem@@UAEXPAVioBaseChar@@PAVioObjectItem@@@Z:PROC ; ioWeaponItem::ReleaseObjectState
EXTRN	?IsCmdCheckEnableTime@ioWeaponItem@@UAE_NXZ:PROC ; ioWeaponItem::IsCmdCheckEnableTime
EXTRN	?IsCmdSuccess@ioWeaponItem@@UAE_NXZ:PROC	; ioWeaponItem::IsCmdSuccess
EXTRN	?IsOneTimeWeaponItem@ioWeaponItem@@UBE_NXZ:PROC	; ioWeaponItem::IsOneTimeWeaponItem
EXTRN	?GetEquipMesh@ioWeaponItem@@UBEABVioHashString@@PAVioBaseChar@@@Z:PROC ; ioWeaponItem::GetEquipMesh
EXTRN	?IsCanSendControl@ioWeaponItem@@UBE_NXZ:PROC	; ioWeaponItem::IsCanSendControl
;	COMDAT ??_R2ioItem@@8
rdata$r	SEGMENT
??_R2ioItem@@8 DD FLAT:??_R1A@?0A@EA@ioItem@@8		; ioItem::`RTTI Base Class Array'
rdata$r	ENDS
;	COMDAT ??_R3ioItem@@8
rdata$r	SEGMENT
??_R3ioItem@@8 DD 00H					; ioItem::`RTTI Class Hierarchy Descriptor'
	DD	00H
	DD	01H
	DD	FLAT:??_R2ioItem@@8
rdata$r	ENDS
;	COMDAT ??_R1A@?0A@EA@ioItem@@8
rdata$r	SEGMENT
??_R1A@?0A@EA@ioItem@@8 DD FLAT:??_R0?AVioItem@@@8	; ioItem::`RTTI Base Class Descriptor at (0,-1,0,64)'
	DD	00H
	DD	00H
	DD	0ffffffffH
	DD	00H
	DD	040H
	DD	FLAT:??_R3ioItem@@8
rdata$r	ENDS
;	COMDAT ??_R2ioAttackableItem@@8
rdata$r	SEGMENT
??_R2ioAttackableItem@@8 DD FLAT:??_R1A@?0A@EA@ioAttackableItem@@8 ; ioAttackableItem::`RTTI Base Class Array'
	DD	FLAT:??_R1A@?0A@EA@ioItem@@8
rdata$r	ENDS
;	COMDAT ??_R3ioAttackableItem@@8
rdata$r	SEGMENT
??_R3ioAttackableItem@@8 DD 00H				; ioAttackableItem::`RTTI Class Hierarchy Descriptor'
	DD	00H
	DD	02H
	DD	FLAT:??_R2ioAttackableItem@@8
rdata$r	ENDS
;	COMDAT ??_R0?AVioAttackableItem@@@8
_DATA	SEGMENT
??_R0?AVioAttackableItem@@@8 DD FLAT:??_7type_info@@6B@	; ioAttackableItem `RTTI Type Descriptor'
	DD	00H
	DB	'.?AVioAttackableItem@@', 00H
_DATA	ENDS
;	COMDAT ??_R1A@?0A@EA@ioAttackableItem@@8
rdata$r	SEGMENT
??_R1A@?0A@EA@ioAttackableItem@@8 DD FLAT:??_R0?AVioAttackableItem@@@8 ; ioAttackableItem::`RTTI Base Class Descriptor at (0,-1,0,64)'
	DD	01H
	DD	00H
	DD	0ffffffffH
	DD	00H
	DD	040H
	DD	FLAT:??_R3ioAttackableItem@@8
rdata$r	ENDS
;	COMDAT ??_R2ioWeaponItem@@8
rdata$r	SEGMENT
??_R2ioWeaponItem@@8 DD FLAT:??_R1A@?0A@EA@ioWeaponItem@@8 ; ioWeaponItem::`RTTI Base Class Array'
	DD	FLAT:??_R1A@?0A@EA@ioAttackableItem@@8
	DD	FLAT:??_R1A@?0A@EA@ioItem@@8
rdata$r	ENDS
;	COMDAT ??_R3ioWeaponItem@@8
rdata$r	SEGMENT
??_R3ioWeaponItem@@8 DD 00H				; ioWeaponItem::`RTTI Class Hierarchy Descriptor'
	DD	00H
	DD	03H
	DD	FLAT:??_R2ioWeaponItem@@8
rdata$r	ENDS
;	COMDAT ??_R1A@?0A@EA@ioWeaponItem@@8
rdata$r	SEGMENT
??_R1A@?0A@EA@ioWeaponItem@@8 DD FLAT:??_R0?AVioWeaponItem@@@8 ; ioWeaponItem::`RTTI Base Class Descriptor at (0,-1,0,64)'
	DD	02H
	DD	00H
	DD	0ffffffffH
	DD	00H
	DD	040H
	DD	FLAT:??_R3ioWeaponItem@@8
rdata$r	ENDS
;	COMDAT ??_R1A@?0A@EA@ioDraculaItem@@8
rdata$r	SEGMENT
??_R1A@?0A@EA@ioDraculaItem@@8 DD FLAT:??_R0?AVioDraculaItem@@@8 ; ioDraculaItem::`RTTI Base Class Descriptor at (0,-1,0,64)'
	DD	03H
	DD	00H
	DD	0ffffffffH
	DD	00H
	DD	040H
	DD	FLAT:??_R3ioDraculaItem@@8
rdata$r	ENDS
;	COMDAT ??_R2ioDraculaItem@@8
rdata$r	SEGMENT
??_R2ioDraculaItem@@8 DD FLAT:??_R1A@?0A@EA@ioDraculaItem@@8 ; ioDraculaItem::`RTTI Base Class Array'
	DD	FLAT:??_R1A@?0A@EA@ioWeaponItem@@8
	DD	FLAT:??_R1A@?0A@EA@ioAttackableItem@@8
	DD	FLAT:??_R1A@?0A@EA@ioItem@@8
rdata$r	ENDS
;	COMDAT ??_R3ioDraculaItem@@8
rdata$r	SEGMENT
??_R3ioDraculaItem@@8 DD 00H				; ioDraculaItem::`RTTI Class Hierarchy Descriptor'
	DD	00H
	DD	04H
	DD	FLAT:??_R2ioDraculaItem@@8
rdata$r	ENDS
;	COMDAT ??_R4ioDraculaItem@@6B@
rdata$r	SEGMENT
??_R4ioDraculaItem@@6B@ DD 00H				; ioDraculaItem::`RTTI Complete Object Locator'
	DD	00H
	DD	00H
	DD	FLAT:??_R0?AVioDraculaItem@@@8
	DD	FLAT:??_R3ioDraculaItem@@8
rdata$r	ENDS
;	COMDAT ??_7ioDraculaItem@@6B@
CONST	SEGMENT
??_7ioDraculaItem@@6B@ DD FLAT:??_R4ioDraculaItem@@6B@	; ioDraculaItem::`vftable'
	DD	FLAT:?FindFieldEntityGrp@ioItem@@MBEABVioHashString@@XZ
	DD	FLAT:?LoadProperty@ioDraculaItem@@UAEXAAVioINILoader@@@Z
	DD	FLAT:?GetType@ioWeaponItem@@UBE?AW4ItemType@ioItem@@XZ
	DD	FLAT:?Clone@ioDraculaItem@@UAEPAVioItem@@XZ
	DD	FLAT:?UseCreateIndexItem@ioItem@@UBE_NXZ
	DD	FLAT:?GetSetFocusColor@ioItem@@UBEKXZ
	DD	FLAT:?Initialize@ioItem@@UAEXABVioHashString@@PAVioPlayStage@@@Z
	DD	FLAT:?InitializeBeforeEquip@ioItem@@UAEXABVioHashString@@PAVioPlayStage@@@Z
	DD	FLAT:?OnEquiped@ioDraculaItem@@UAEXPAVioBaseChar@@@Z
	DD	FLAT:?OnReleased@ioDraculaItem@@UAEXPAVioBaseChar@@@Z
	DD	FLAT:?SetExtendEquipEffect@ioItem@@UAEXPAVioBaseChar@@@Z
	DD	FLAT:?ReleaseExtendEquipEffect@ioItem@@UAEXPAVioBaseChar@@@Z
	DD	FLAT:?AddGlowLine@ioWeaponItem@@UAEXPAVioBaseChar@@@Z
	DD	FLAT:?RemoveGlowLine@ioWeaponItem@@UAEXPAVioBaseChar@@@Z
	DD	FLAT:?GetTargetName@ioItem@@UAE?AVioHashString@@XZ
	DD	FLAT:?ClearTarget@ioItem@@UAEXXZ
	DD	FLAT:?SetItemType@ioWeaponItem@@UAEXXZ
	DD	FLAT:?UpdateExtraData@ioDraculaItem@@UAEXPAVioBaseChar@@@Z
	DD	FLAT:?CheckWeaponDefenseState@ioItem@@UAEXPAVioBaseChar@@@Z
	DD	FLAT:?CheckWoundedState@ioItem@@UAEXPAVioBaseChar@@@Z
	DD	FLAT:?SetVisible@ioItem@@UAEXPAVioBaseChar@@_N@Z
	DD	FLAT:?UpdateSkillGauge@ioItem@@UAEXPAVioBaseChar@@M_N@Z
	DD	FLAT:?IsEnableExtraGauge@ioItem@@UAE_NPAVioBaseChar@@@Z
	DD	FLAT:?GetExtraGauge@ioItem@@UAEMXZ
	DD	FLAT:?ReduceNeedGauge@ioItem@@UAEXMPAVioBaseChar@@@Z
	DD	FLAT:?GetCurBullet@ioDraculaItem@@UAEHXZ
	DD	FLAT:?GetMaxBullet@ioDraculaItem@@UAEHXZ
	DD	FLAT:?SetCurBullet@ioDraculaItem@@UAEXH@Z
	DD	FLAT:?GetCurSecoundBullet@ioItem@@UAEHXZ
	DD	FLAT:?GetMaxSecoundBullet@ioItem@@UAEHXZ
	DD	FLAT:?SetCurSecoundBullet@ioItem@@UAEXH@Z
	DD	FLAT:?GetGrowthInfoNum@ioItem@@UBEHH@Z
	DD	FLAT:?GetGrowthInfoNumByType@ioItem@@UBEHHAAH@Z
	DD	FLAT:?ClearCurChargeRateForSkill@ioItem@@UAEXXZ
	DD	FLAT:?GetChargeDamageRateForSkill@ioItem@@UAEMXZ
	DD	FLAT:?GetChargeForceRateForSkill@ioItem@@UAEMXZ
	DD	FLAT:?GetChargeBlowRateForSkill@ioItem@@UAEMXZ
	DD	FLAT:?GetChargeRangeRateForSkill@ioItem@@UAEMXZ
	DD	FLAT:?GetChargeSpeedRateForSkill@ioItem@@UAEMXZ
	DD	FLAT:?GetChargeFloatRateForSkill@ioItem@@UAEMXZ
	DD	FLAT:?GetChargeScaleRateForSkill@ioItem@@UAEMXZ
	DD	FLAT:?GetChargeExplosionRateForSkill@ioItem@@UAEMXZ
	DD	FLAT:?GetChargeWoundedTimeRateForSkill@ioItem@@UAEMXZ
	DD	FLAT:?SetCurEquipEffect@ioItem@@UAEX_N@Z
	DD	FLAT:?SetCostume@ioItem@@UAEXH_N@Z
	DD	FLAT:??_EioDraculaItem@@UAEPAXI@Z
	DD	FLAT:?IsCanFire@ioAttackableItem@@UBE_NPBVioBaseChar@@H_N@Z
	DD	FLAT:?CallItemProcess@ioAttackableItem@@UAEXPAVioBaseChar@@@Z
	DD	FLAT:?SetExtraInfoToWeapon@ioDraculaItem@@UAEXPAVioWeapon@@_N@Z
	DD	FLAT:?CheckChargeInfo@ioAttackableItem@@UAEXPAVioWeapon@@_N@Z
	DD	FLAT:?SetExtendDefenseState@ioAttackableItem@@UAE_NPAVioBaseChar@@@Z
	DD	FLAT:?CheckExtendDefenseState@ioAttackableItem@@UAEXPAVioBaseChar@@@Z
	DD	FLAT:?CheckDefenseMoveAniState@ioAttackableItem@@UAEXPAVioBaseChar@@@Z
	DD	FLAT:?SetDodgeDefenseState@ioAttackableItem@@UAE_NPAVioBaseChar@@@Z
	DD	FLAT:?CheckDodgeDefenseState@ioAttackableItem@@UAEXPAVioBaseChar@@@Z
	DD	FLAT:?ApplyDodgeDefenseState@ioAttackableItem@@UAEXPAVioBaseChar@@AAVSP2Packet@@@Z
	DD	FLAT:?SetDefenseAttackState@ioAttackableItem@@UAE_NPAVioBaseChar@@@Z
	DD	FLAT:?CheckDefenseAttackState@ioAttackableItem@@UAEXPAVioBaseChar@@@Z
	DD	FLAT:?ApplyDefenseAttackState@ioAttackableItem@@UAEXPAVioBaseChar@@AAVSP2Packet@@@Z
	DD	FLAT:?SetExtendDashState@ioAttackableItem@@UAE_NPAVioBaseChar@@@Z
	DD	FLAT:?CheckExtendDashState@ioAttackableItem@@UAEXPAVioBaseChar@@@Z
	DD	FLAT:?SetNormalAttack@ioDraculaItem@@UAEXPAVioBaseChar@@H@Z
	DD	FLAT:?CheckNormalAttack@ioDraculaItem@@UAEXPAVioBaseChar@@@Z
	DD	FLAT:?SetJumpAttack@ioAttackableItem@@UAE_NPAVioBaseChar@@HMW4AttackType@@@Z
	DD	FLAT:?CheckJumpAttack@ioAttackableItem@@UAEXPAVioBaseChar@@@Z
	DD	FLAT:?SetJumpReloadState@ioAttackableItem@@UAE_NPAVioBaseChar@@@Z
	DD	FLAT:?SetJumpReload@ioAttackableItem@@UAE_NPAVioBaseChar@@@Z
	DD	FLAT:?CheckJumpReloadState@ioAttackableItem@@UAEXPAVioBaseChar@@@Z
	DD	FLAT:?CheckJumpReloadReserve@ioAttackableItem@@UAEXPAVioBaseChar@@@Z
	DD	FLAT:?ProcessJumpReloadState@ioAttackableItem@@UAEXPAVioBaseChar@@@Z
	DD	FLAT:?ApplyJumpReload@ioAttackableItem@@UAEXPAVioBaseChar@@AAVSP2Packet@@@Z
	DD	FLAT:?OnItemGaugeOK@ioDraculaItem@@UAEXPAVioBaseChar@@AAVSP2Packet@@@Z
	DD	FLAT:?OnItemGaugeCancel@ioDraculaItem@@UAEXPAVioBaseChar@@AAVSP2Packet@@@Z
	DD	FLAT:?OnEndExtendDefense@ioAttackableItem@@UAEXPAVioBaseChar@@@Z
	DD	FLAT:?OnEndNormalAttack@ioAttackableItem@@UAEXPAVioBaseChar@@@Z
	DD	FLAT:?OnEndExtendAttack@ioDraculaItem@@UAEXPAVioBaseChar@@_N@Z
	DD	FLAT:?OnEndExtendJump@ioAttackableItem@@UAEXPAVioBaseChar@@@Z
	DD	FLAT:?FillNormalAttackExtraInfo@ioAttackableItem@@UAEXAAVSP2Packet@@@Z
	DD	FLAT:?ApplyNormalAttackExtraInfo@ioAttackableItem@@UAEXAAVSP2Packet@@@Z
	DD	FLAT:?CheckOnHand@ioAttackableItem@@UAE_NXZ
	DD	FLAT:?CheckAimState@ioAttackableItem@@UAE_N_N@Z
	DD	FLAT:?SetAimState@ioAttackableItem@@UAE_NPAVioBaseChar@@@Z
	DD	FLAT:?CheckLanding@ioAttackableItem@@UAE_NPAVioBaseChar@@@Z
	DD	FLAT:?SetNoneState@ioAttackableItem@@UAEXPAVioBaseChar@@H@Z
	DD	FLAT:?CheckExtendDefenseEnable@ioAttackableItem@@UAE_NPAVioBaseChar@@@Z
	DD	FLAT:?IsChargeAttackState@ioAttackableItem@@UAE_NPAVioBaseChar@@@Z
	DD	FLAT:?IsMoveAttackState@ioAttackableItem@@UAE_NPAVioBaseChar@@@Z
	DD	FLAT:?IsCanUpdateGauge@ioAttackableItem@@UAE_NPAVioBaseChar@@@Z
	DD	FLAT:?IsNoGhostWalk@ioAttackableItem@@UAE_NPAVioBaseChar@@@Z
	DD	FLAT:?IsEnableAttackDashCheck@ioAttackableItem@@UAE_NPAVioBaseChar@@_N@Z
	DD	FLAT:?IsEnableItemDashCheck@ioAttackableItem@@UAE_NPAVioBaseChar@@_N@Z
	DD	FLAT:?IsEnableAttackRotateCheck@ioAttackableItem@@UAE_NPAVioBaseChar@@@Z
	DD	FLAT:?IsEnableChargeDefenseCheck@ioAttackableItem@@UAE_NXZ
	DD	FLAT:?CheckAimJumpState@ioAttackableItem@@UAEXPAVioBaseChar@@@Z
	DD	FLAT:?GetJumppingAnimation@ioAttackableItem@@UBEABVioHashString@@XZ
	DD	FLAT:?GetExtendJumppingAnimation@ioAttackableItem@@UBEABVioHashString@@XZ
	DD	FLAT:?CheckRetreatState@ioAttackableItem@@UAEXPAVioBaseChar@@@Z
	DD	FLAT:?SetNextItemState@ioAttackableItem@@UAEXPAVioBaseChar@@0PAVioWeapon@@_NM@Z
	DD	FLAT:?WeaponWounded@ioWeaponItem@@UAEXPAVioWeapon@@PAVioBaseChar@@@Z
	DD	FLAT:?WeaponMapColDead@ioAttackableItem@@UAEXPAVioWeapon@@@Z
	DD	FLAT:?SetDefenceCounterState@ioAttackableItem@@UAEXPAVioBaseChar@@@Z
	DD	FLAT:?IsUseDefenceCounterAttack@ioAttackableItem@@UAE_NXZ
	DD	FLAT:?ProcessDefenceCounterAttack@ioAttackableItem@@UAEXPAVioBaseChar@@@Z
	DD	FLAT:?IsUseDefenceCounterAttackEndDash@ioAttackableItem@@UAE_NXZ
	DD	FLAT:?ProcessExtraJump@ioAttackableItem@@UAEXPAVioBaseChar@@@Z
	DD	FLAT:?SetEndGrappling@ioAttackableItem@@UAEXPAVioBaseChar@@@Z
	DD	FLAT:?ClearKeyReserve@ioAttackableItem@@MAEXXZ
	DD	FLAT:?CheckReserve@ioAttackableItem@@MAEXPAVioBaseChar@@@Z
	DD	FLAT:?ProcessReserveKeyInput@ioAttackableItem@@MAEXPAVioBaseChar@@@Z
	DD	FLAT:?SetJumpState@ioAttackableItem@@UAEXXZ
	DD	FLAT:?SetJumpping@ioAttackableItem@@UAEXPAVioBaseChar@@_N@Z
	DD	FLAT:?ProcessJumpping@ioAttackableItem@@UAEXPAVioBaseChar@@M@Z
	DD	FLAT:?ProcessJumppingByNoNeedProcess@ioAttackableItem@@UAEXPAVioBaseChar@@M@Z
	DD	FLAT:?ProcessLanding@ioAttackableItem@@UAEXPAVioBaseChar@@@Z
	DD	FLAT:?ProcessJumpAttack@ioAttackableItem@@UAEXPAVioBaseChar@@M@Z
	DD	FLAT:?ProcessAimJump@ioAttackableItem@@UAE_NPAVioBaseChar@@M@Z
	DD	FLAT:?ApplyJump@ioAttackableItem@@UAEXPAVioBaseChar@@AAVSP2Packet@@@Z
	DD	FLAT:?ApplyDash@ioAttackableItem@@UAEXPAVioBaseChar@@AAVSP2Packet@@@Z
	DD	FLAT:?ApplyCounterAttack@ioAttackableItem@@UAEXPAVioBaseChar@@AAVSP2Packet@@@Z
	DD	FLAT:?CheckComboJumpAttack@ioAttackableItem@@UAEXPAVioBaseChar@@@Z
	DD	FLAT:?SetFlashJumpAttack@ioAttackableItem@@UAE_NPAVioBaseChar@@@Z
	DD	FLAT:?SetComboFlashAttack@ioAttackableItem@@UAE_NPAVioBaseChar@@@Z
	DD	FLAT:?SetCollectJumpAttack@ioAttackableItem@@UAE_NPAVioBaseChar@@@Z
	DD	FLAT:?SetPowerChargeJumpAttack@ioAttackableItem@@UAE_NPAVioBaseChar@@@Z
	DD	FLAT:?GetAttackSpeedRate@ioAttackableItem@@UBEMXZ
	DD	FLAT:?GetExtraJumpSpeedRate@ioAttackableItem@@UBEMABUD3DXVECTOR3@@ABUD3DXQUATERNION@@@Z
	DD	FLAT:?IsEnableExtendJump@ioAttackableItem@@UAE_NXZ
	DD	FLAT:?RecevieExtendJumpUse@ioAttackableItem@@UAEXPAVioBaseChar@@@Z
	DD	FLAT:?HasAniFile@ioAttackableItem@@UBE_NW4AttackType@@H@Z
	DD	FLAT:?HasEndAniFile@ioAttackableItem@@UBE_NW4AttackType@@H@Z
	DD	FLAT:?GetAttackAttribute@ioAttackableItem@@UBEPBUAttackAttribute@@W4AttackType@@H@Z
	DD	FLAT:?GetAniFile@ioAttackableItem@@UBEABVioHashString@@W4AttackType@@H@Z
	DD	FLAT:?GetAttackAniRate@ioAttackableItem@@UBEMW4AttackType@@H@Z
	DD	FLAT:?GetEndAniFile@ioAttackableItem@@UBEABVioHashString@@W4AttackType@@H@Z
	DD	FLAT:?GetAttackEndAniRate@ioAttackableItem@@UBEMW4AttackType@@H@Z
	DD	FLAT:?GetAttackAttributeIdx@ioAttackableItem@@UBEABV?$vector@UWeaponInfo@@V?$allocator@UWeaponInfo@@@std@@@std@@W4AttackType@@H@Z
	DD	FLAT:?GetForceInfoList@ioAttackableItem@@UBEABV?$vector@UForceInfo@@V?$allocator@UForceInfo@@@std@@@std@@W4AttackType@@H@Z
	DD	FLAT:?GetAttackPreDelay@ioAttackableItem@@UBEKW4AttackType@@H@Z
	DD	FLAT:?GetAttackAnimationDelay@ioAttackableItem@@UBEKW4AttackType@@H@Z
	DD	FLAT:?GetMaxCombo@ioAttackableItem@@UBEHXZ
	DD	FLAT:?GetExtraDashAttackMax@ioAttackableItem@@UBEHXZ
	DD	FLAT:?HasJumpEndAnimation@ioAttackableItem@@UBE_N_NPAVioBaseChar@@@Z
	DD	FLAT:?GetJumpEndAnimation@ioAttackableItem@@UBEABVioHashString@@_NPAVioBaseChar@@@Z
	DD	FLAT:?ClearCancelInfo@ioAttackableItem@@MAEXXZ
	DD	FLAT:?CheckCancelReserve@ioAttackableItem@@MAEXPAVioBaseChar@@@Z
	DD	FLAT:?SetCurAttackAniForInputJump@ioAttackableItem@@MAEXABVioHashString@@M@Z
	DD	FLAT:?ProcessCancel@ioAttackableItem@@MAE_NPAVioBaseChar@@@Z
	DD	FLAT:?ProcessCancelBySpeicalDash@ioAttackableItem@@MAE_NPAVioBaseChar@@@Z
	DD	FLAT:?SetCurAttackAniForInputDashS@ioAttackableItem@@UAEXABVioHashString@@M@Z
	DD	FLAT:?CheckCancelReserveByConditionalSpecialDash@ioAttackableItem@@UAEXPAVioBaseChar@@@Z
	DD	FLAT:?IsConditionalSpecialDashReserve@ioAttackableItem@@UAE_NPAVioBaseChar@@@Z
	DD	FLAT:?SetChangeConditionalSpecialDash@ioAttackableItem@@UAEXPAVioBaseChar@@W4DirKeyInput@ioUserKeyInput@@H@Z
	DD	FLAT:?CheckChangeWereWolfState@ioAttackableItem@@UAE_NPAVioBaseChar@@@Z
	DD	FLAT:?SetChangeWereWolfState@ioAttackableItem@@UAEXPAVioBaseChar@@@Z
	DD	FLAT:?CheckReleaseWereWolfState@ioAttackableItem@@UAE_NPAVioBaseChar@@@Z
	DD	FLAT:?ReleseWereWolfState@ioAttackableItem@@UAEXPAVioBaseChar@@@Z
	DD	FLAT:?ReleseWereWolfStateByOwner@ioAttackableItem@@UAEXPAVioBaseChar@@@Z
	DD	FLAT:?IncreaseChangeDamage@ioAttackableItem@@UAEXMH_N@Z
	DD	FLAT:?IncreaseChangeDamageByWeapon@ioAttackableItem@@UAEXM@Z
	DD	FLAT:?CheckIncreaseChangeDamage@ioAttackableItem@@UAEXPAVioBaseChar@@@Z
	DD	FLAT:?DecreaseChangeDamage@ioAttackableItem@@UAEXPAVioBaseChar@@@Z
	DD	FLAT:?IsEnableActionStopDelay@ioAttackableItem@@UAE_NXZ
	DD	FLAT:?SetExtraGaugeTypeByWeapon@ioAttackableItem@@UAEXPAVioBaseChar@@HHM@Z
	DD	FLAT:?SetUseExtraGauge@ioAttackableItem@@UAEXM@Z
	DD	FLAT:?InitExtraGauge@ioAttackableItem@@UAEXXZ
	DD	FLAT:?MaxExtraGauge@ioAttackableItem@@UAEXXZ
	DD	FLAT:?GetMaxExtraGauge@ioAttackableItem@@UAEMXZ
	DD	FLAT:?GetCurExtraGauge@ioAttackableItem@@UAEMXZ
	DD	FLAT:?SetCurExtraGauge@ioAttackableItem@@UAEXM@Z
	DD	FLAT:?GetAutoTargetValue@ioAttackableItem@@UAEXPAVioBaseChar@@AAM11W4AutoTargetType@@@Z
	DD	FLAT:?ClearAirJump@ioAttackableItem@@UAEXXZ
	DD	FLAT:?SetAirJump@ioAttackableItem@@UAEXPAVioBaseChar@@HM@Z
	DD	FLAT:?CheckAirJump@ioAttackableItem@@UAEXPAVioBaseChar@@@Z
	DD	FLAT:?IsAutoTarget@ioAttackableItem@@UBE_NXZ
	DD	FLAT:?EquipObjectItemByAttakable@ioAttackableItem@@UAEXPAVioBaseChar@@PAVioItem@@@Z
	DD	FLAT:?ReleaseObjectItemByAttack@ioAttackableItem@@UAEXPAVioBaseChar@@PAVioItem@@@Z
	DD	FLAT:?IsBuffFlyChange@ioAttackableItem@@UAE_NPAVioBaseChar@@@Z
	DD	FLAT:?GetAttackStateText@ioAttackableItem@@UBEPBDXZ
	DD	FLAT:?SetJumpLandingExtraState@ioAttackableItem@@UAE_NPAVioBaseChar@@@Z
	DD	FLAT:?IsWoundAfterUseExtendState@ioAttackableItem@@UAE_NXZ
	DD	FLAT:?CheckWoundAfterUseExtendState@ioAttackableItem@@UAE_NPAVioBaseChar@@W4BlowTargetType@@@Z
	DD	FLAT:?IsCharSkipState@ioAttackableItem@@UAE_NPBVioBaseChar@@@Z
	DD	FLAT:?ReleaseObjectState@ioWeaponItem@@UAEXPAVioBaseChar@@PAVioObjectItem@@@Z
	DD	FLAT:?IsCmdCheckEnableTime@ioWeaponItem@@UAE_NXZ
	DD	FLAT:?IsCmdSuccess@ioWeaponItem@@UAE_NXZ
	DD	FLAT:?IsOneTimeWeaponItem@ioWeaponItem@@UBE_NXZ
	DD	FLAT:?GetEquipMesh@ioWeaponItem@@UBEABVioHashString@@PAVioBaseChar@@@Z
	DD	FLAT:?IsCanSendControl@ioWeaponItem@@UBE_NXZ
	DD	FLAT:?GetSubType@ioDraculaItem@@UBE?AW4WeaponSubType@ioWeaponItem@@XZ
CONST	ENDS
;	COMDAT xdata$x
xdata$x	SEGMENT
__ehfuncinfo$??1ioDraculaItem@@UAE@XZ DD 019930522H
	DD	0dH
	DD	FLAT:__unwindtable$??1ioDraculaItem@@UAE@XZ
	DD	2 DUP(00H)
	DD	2 DUP(00H)
	DD	00H
	DD	01H
__unwindtable$??1ioDraculaItem@@UAE@XZ DD 0ffffffffH
	DD	FLAT:__unwindfunclet$??1ioDraculaItem@@UAE@XZ$0
	DD	00H
	DD	FLAT:__unwindfunclet$??1ioDraculaItem@@UAE@XZ$1
	DD	01H
	DD	FLAT:__unwindfunclet$??1ioDraculaItem@@UAE@XZ$2
	DD	02H
	DD	FLAT:__unwindfunclet$??1ioDraculaItem@@UAE@XZ$3
	DD	03H
	DD	FLAT:__unwindfunclet$??1ioDraculaItem@@UAE@XZ$4
	DD	04H
	DD	FLAT:__unwindfunclet$??1ioDraculaItem@@UAE@XZ$5
	DD	05H
	DD	FLAT:__unwindfunclet$??1ioDraculaItem@@UAE@XZ$6
	DD	06H
	DD	FLAT:__unwindfunclet$??1ioDraculaItem@@UAE@XZ$7
	DD	07H
	DD	FLAT:__unwindfunclet$??1ioDraculaItem@@UAE@XZ$8
	DD	08H
	DD	FLAT:__unwindfunclet$??1ioDraculaItem@@UAE@XZ$9
	DD	09H
	DD	FLAT:__unwindfunclet$??1ioDraculaItem@@UAE@XZ$10
	DD	0aH
	DD	FLAT:__unwindfunclet$??1ioDraculaItem@@UAE@XZ$11
	DD	0bH
	DD	FLAT:__unwindfunclet$??1ioDraculaItem@@UAE@XZ$12
; Function compile flags: /Ogsp
; File d:\lost saga for developer\youtube\tutorial\source\src\lsclient\iodraculaitem.cpp
xdata$x	ENDS
;	COMDAT ??1ioDraculaItem@@UAE@XZ
_TEXT	SEGMENT
_this$ = -16						; size = 4
__$EHRec$ = -12						; size = 12
??1ioDraculaItem@@UAE@XZ PROC				; ioDraculaItem::~ioDraculaItem, COMDAT
; _this$ = ecx

; 87   : {

  00000	6a 04		 push	 4
  00002	b8 00 00 00 00	 mov	 eax, __ehhandler$??1ioDraculaItem@@UAE@XZ
  00007	e8 00 00 00 00	 call	 __EH_prolog3
  0000c	8b f1		 mov	 esi, ecx
  0000e	89 75 f0	 mov	 DWORD PTR _this$[ebp], esi
  00011	c7 06 00 00 00
	00		 mov	 DWORD PTR [esi], OFFSET ??_7ioDraculaItem@@6B@

; 88   : }

  00017	8b 1d 00 00 00
	00		 mov	 ebx, DWORD PTR __imp_??1ioHashString@@QAE@XZ
  0001d	8d 8e 68 1b 00
	00		 lea	 ecx, DWORD PTR [esi+7016]
  00023	c7 45 fc 0c 00
	00 00		 mov	 DWORD PTR __$EHRec$[ebp+8], 12 ; 0000000cH
  0002a	ff d3		 call	 ebx
  0002c	bf 00 00 00 00	 mov	 edi, OFFSET ??_7?$CEncrypt@M@@6B@
  00031	8d 8e 30 1b 00
	00		 lea	 ecx, DWORD PTR [esi+6960]
  00037	c6 45 fc 0b	 mov	 BYTE PTR __$EHRec$[ebp+8], 11 ; 0000000bH
  0003b	89 be 24 1b 00
	00		 mov	 DWORD PTR [esi+6948], edi
  00041	e8 00 00 00 00	 call	 ??1ccddaabb@@UAE@XZ	; ccddaabb::~ccddaabb
  00046	8d 8e 00 1b 00
	00		 lea	 ecx, DWORD PTR [esi+6912]
  0004c	c6 45 fc 0a	 mov	 BYTE PTR __$EHRec$[ebp+8], 10 ; 0000000aH
  00050	89 be f4 1a 00
	00		 mov	 DWORD PTR [esi+6900], edi
  00056	e8 00 00 00 00	 call	 ??1ccddaabb@@UAE@XZ	; ccddaabb::~ccddaabb
  0005b	8d 8e d0 1a 00
	00		 lea	 ecx, DWORD PTR [esi+6864]
  00061	c6 45 fc 09	 mov	 BYTE PTR __$EHRec$[ebp+8], 9
  00065	89 be c4 1a 00
	00		 mov	 DWORD PTR [esi+6852], edi
  0006b	e8 00 00 00 00	 call	 ??1ccddaabb@@UAE@XZ	; ccddaabb::~ccddaabb
  00070	8d 8e a0 1a 00
	00		 lea	 ecx, DWORD PTR [esi+6816]
  00076	c6 45 fc 08	 mov	 BYTE PTR __$EHRec$[ebp+8], 8
  0007a	89 be 94 1a 00
	00		 mov	 DWORD PTR [esi+6804], edi
  00080	e8 00 00 00 00	 call	 ??1ccddaabb@@UAE@XZ	; ccddaabb::~ccddaabb
  00085	8d 8e 84 1a 00
	00		 lea	 ecx, DWORD PTR [esi+6788]
  0008b	c6 45 fc 07	 mov	 BYTE PTR __$EHRec$[ebp+8], 7
  0008f	e8 00 00 00 00	 call	 ?_Tidy@?$vector@VioHashString@@V?$allocator@VioHashString@@@std@@@std@@IAEXXZ ; std::vector<ioHashString,std::allocator<ioHashString> >::_Tidy
  00094	8d 8e 5c 1a 00
	00		 lea	 ecx, DWORD PTR [esi+6748]
  0009a	c6 45 fc 06	 mov	 BYTE PTR __$EHRec$[ebp+8], 6
  0009e	e8 00 00 00 00	 call	 ?_Tidy@?$vector@VioHashString@@V?$allocator@VioHashString@@@std@@@std@@IAEXXZ ; std::vector<ioHashString,std::allocator<ioHashString> >::_Tidy
  000a3	8d 8e 34 1a 00
	00		 lea	 ecx, DWORD PTR [esi+6708]
  000a9	c6 45 fc 05	 mov	 BYTE PTR __$EHRec$[ebp+8], 5
  000ad	ff d3		 call	 ebx
  000af	8d 8e 24 1a 00
	00		 lea	 ecx, DWORD PTR [esi+6692]
  000b5	c6 45 fc 04	 mov	 BYTE PTR __$EHRec$[ebp+8], 4
  000b9	ff d3		 call	 ebx
  000bb	bb 00 00 00 00	 mov	 ebx, OFFSET ??_7?$CEncrypt@_N@@6B@
  000c0	8d 8e 00 1a 00
	00		 lea	 ecx, DWORD PTR [esi+6656]
  000c6	c6 45 fc 03	 mov	 BYTE PTR __$EHRec$[ebp+8], 3
  000ca	89 9e f4 19 00
	00		 mov	 DWORD PTR [esi+6644], ebx
  000d0	e8 00 00 00 00	 call	 ??1ccddaabb@@UAE@XZ	; ccddaabb::~ccddaabb
  000d5	8d 8e d0 19 00
	00		 lea	 ecx, DWORD PTR [esi+6608]
  000db	c6 45 fc 02	 mov	 BYTE PTR __$EHRec$[ebp+8], 2
  000df	89 9e c4 19 00
	00		 mov	 DWORD PTR [esi+6596], ebx
  000e5	e8 00 00 00 00	 call	 ??1ccddaabb@@UAE@XZ	; ccddaabb::~ccddaabb
  000ea	8d 8e 98 19 00
	00		 lea	 ecx, DWORD PTR [esi+6552]
  000f0	c6 45 fc 01	 mov	 BYTE PTR __$EHRec$[ebp+8], 1
  000f4	89 be 8c 19 00
	00		 mov	 DWORD PTR [esi+6540], edi
  000fa	e8 00 00 00 00	 call	 ??1ccddaabb@@UAE@XZ	; ccddaabb::~ccddaabb
  000ff	8d 8e 54 19 00
	00		 lea	 ecx, DWORD PTR [esi+6484]
  00105	c6 45 fc 00	 mov	 BYTE PTR __$EHRec$[ebp+8], 0
  00109	e8 00 00 00 00	 call	 ?_Tidy@?$vector@VioHashString@@V?$allocator@VioHashString@@@std@@@std@@IAEXXZ ; std::vector<ioHashString,std::allocator<ioHashString> >::_Tidy
  0010e	83 4d fc ff	 or	 DWORD PTR __$EHRec$[ebp+8], -1
  00112	8b ce		 mov	 ecx, esi
  00114	e8 00 00 00 00	 call	 ??1ioWeaponItem@@UAE@XZ	; ioWeaponItem::~ioWeaponItem
  00119	e8 00 00 00 00	 call	 __EH_epilog3
  0011e	c3		 ret	 0
_TEXT	ENDS
;	COMDAT text$x
text$x	SEGMENT
__unwindfunclet$??1ioDraculaItem@@UAE@XZ$0:
  00000	8b 4d f0	 mov	 ecx, DWORD PTR _this$[ebp]
  00003	e9 00 00 00 00	 jmp	 ??1ioWeaponItem@@UAE@XZ	; ioWeaponItem::~ioWeaponItem
__unwindfunclet$??1ioDraculaItem@@UAE@XZ$1:
  00008	8b 4d f0	 mov	 ecx, DWORD PTR _this$[ebp]
  0000b	81 c1 54 19 00
	00		 add	 ecx, 6484		; 00001954H
  00011	e9 00 00 00 00	 jmp	 ??1?$vector@VioHashString@@V?$allocator@VioHashString@@@std@@@std@@QAE@XZ ; std::vector<ioHashString,std::allocator<ioHashString> >::~vector<ioHashString,std::allocator<ioHashString> >
__unwindfunclet$??1ioDraculaItem@@UAE@XZ$2:
  00016	8b 4d f0	 mov	 ecx, DWORD PTR _this$[ebp]
  00019	81 c1 8c 19 00
	00		 add	 ecx, 6540		; 0000198cH
  0001f	e9 00 00 00 00	 jmp	 ??1?$CEncrypt@M@@UAE@XZ	; CEncrypt<float>::~CEncrypt<float>
__unwindfunclet$??1ioDraculaItem@@UAE@XZ$3:
  00024	8b 4d f0	 mov	 ecx, DWORD PTR _this$[ebp]
  00027	81 c1 c4 19 00
	00		 add	 ecx, 6596		; 000019c4H
  0002d	e9 00 00 00 00	 jmp	 ??1?$CEncrypt@_N@@UAE@XZ ; CEncrypt<bool>::~CEncrypt<bool>
__unwindfunclet$??1ioDraculaItem@@UAE@XZ$4:
  00032	8b 4d f0	 mov	 ecx, DWORD PTR _this$[ebp]
  00035	81 c1 f4 19 00
	00		 add	 ecx, 6644		; 000019f4H
  0003b	e9 00 00 00 00	 jmp	 ??1?$CEncrypt@_N@@UAE@XZ ; CEncrypt<bool>::~CEncrypt<bool>
__unwindfunclet$??1ioDraculaItem@@UAE@XZ$5:
  00040	8b 4d f0	 mov	 ecx, DWORD PTR _this$[ebp]
  00043	81 c1 24 1a 00
	00		 add	 ecx, 6692		; 00001a24H
  00049	ff 25 00 00 00
	00		 jmp	 DWORD PTR __imp_??1ioHashString@@QAE@XZ
__unwindfunclet$??1ioDraculaItem@@UAE@XZ$6:
  0004f	8b 4d f0	 mov	 ecx, DWORD PTR _this$[ebp]
  00052	81 c1 34 1a 00
	00		 add	 ecx, 6708		; 00001a34H
  00058	ff 25 00 00 00
	00		 jmp	 DWORD PTR __imp_??1ioHashString@@QAE@XZ
__unwindfunclet$??1ioDraculaItem@@UAE@XZ$7:
  0005e	8b 4d f0	 mov	 ecx, DWORD PTR _this$[ebp]
  00061	81 c1 44 1a 00
	00		 add	 ecx, 6724		; 00001a44H
  00067	e9 00 00 00 00	 jmp	 ??1tagDraculaFlyInfo@@QAE@XZ
__unwindfunclet$??1ioDraculaItem@@UAE@XZ$8:
  0006c	8b 4d f0	 mov	 ecx, DWORD PTR _this$[ebp]
  0006f	81 c1 6c 1a 00
	00		 add	 ecx, 6764		; 00001a6cH
  00075	e9 00 00 00 00	 jmp	 ??1tagDraculaFlyInfo@@QAE@XZ
__unwindfunclet$??1ioDraculaItem@@UAE@XZ$9:
  0007a	8b 4d f0	 mov	 ecx, DWORD PTR _this$[ebp]
  0007d	81 c1 94 1a 00
	00		 add	 ecx, 6804		; 00001a94H
  00083	e9 00 00 00 00	 jmp	 ??1?$CEncrypt@M@@UAE@XZ	; CEncrypt<float>::~CEncrypt<float>
__unwindfunclet$??1ioDraculaItem@@UAE@XZ$10:
  00088	8b 4d f0	 mov	 ecx, DWORD PTR _this$[ebp]
  0008b	81 c1 c4 1a 00
	00		 add	 ecx, 6852		; 00001ac4H
  00091	e9 00 00 00 00	 jmp	 ??1?$CEncrypt@M@@UAE@XZ	; CEncrypt<float>::~CEncrypt<float>
__unwindfunclet$??1ioDraculaItem@@UAE@XZ$11:
  00096	8b 4d f0	 mov	 ecx, DWORD PTR _this$[ebp]
  00099	81 c1 f4 1a 00
	00		 add	 ecx, 6900		; 00001af4H
  0009f	e9 00 00 00 00	 jmp	 ??1?$CEncrypt@M@@UAE@XZ	; CEncrypt<float>::~CEncrypt<float>
__unwindfunclet$??1ioDraculaItem@@UAE@XZ$12:
  000a4	8b 4d f0	 mov	 ecx, DWORD PTR _this$[ebp]
  000a7	81 c1 24 1b 00
	00		 add	 ecx, 6948		; 00001b24H
  000ad	e9 00 00 00 00	 jmp	 ??1?$CEncrypt@M@@UAE@XZ	; CEncrypt<float>::~CEncrypt<float>
__ehhandler$??1ioDraculaItem@@UAE@XZ:
  000b2	8b 54 24 08	 mov	 edx, DWORD PTR [esp+8]
  000b6	8d 42 0c	 lea	 eax, DWORD PTR [edx+12]
  000b9	8b 4a ec	 mov	 ecx, DWORD PTR [edx-20]
  000bc	33 c8		 xor	 ecx, eax
  000be	e8 00 00 00 00	 call	 @__security_check_cookie@4
  000c3	b8 00 00 00 00	 mov	 eax, OFFSET __ehfuncinfo$??1ioDraculaItem@@UAE@XZ
  000c8	e9 00 00 00 00	 jmp	 ___CxxFrameHandler3
text$x	ENDS
??1ioDraculaItem@@UAE@XZ ENDP				; ioDraculaItem::~ioDraculaItem
; Function compile flags: /Ogsp
; File d:\lost saga for developer\youtube\tutorial\source\src\lsclient\ioitem.h
;	COMDAT ?IsEnableExtraGauge@ioItem@@UAE_NPAVioBaseChar@@@Z
_TEXT	SEGMENT
_pChar$ = 8						; size = 4
?IsEnableExtraGauge@ioItem@@UAE_NPAVioBaseChar@@@Z PROC	; ioItem::IsEnableExtraGauge, COMDAT
; _this$ = ecx

; 375  : 	virtual bool IsEnableExtraGauge( ioBaseChar *pChar ) { return true; }

  00000	b0 01		 mov	 al, 1
  00002	c2 04 00	 ret	 4
?IsEnableExtraGauge@ioItem@@UAE_NPAVioBaseChar@@@Z ENDP	; ioItem::IsEnableExtraGauge
; Function compile flags: /Ogsp
_TEXT	ENDS
;	COMDAT ?GetExtraGauge@ioItem@@UAEMXZ
_TEXT	SEGMENT
tv64 = -4						; size = 4
?GetExtraGauge@ioItem@@UAEMXZ PROC			; ioItem::GetExtraGauge, COMDAT
; _this$ = ecx

; 376  : 	virtual float GetExtraGauge() { return FLOAT1; }

  00000	55		 push	 ebp
  00001	8b ec		 mov	 ebp, esp
  00003	51		 push	 ecx
  00004	b8 01 00 00 00	 mov	 eax, 1
  00009	89 45 fc	 mov	 DWORD PTR tv64[ebp], eax
  0000c	db 45 fc	 fild	 DWORD PTR tv64[ebp]
  0000f	85 c0		 test	 eax, eax
  00011	79 06		 jns	 SHORT $LN5@GetExtraGa
  00013	d8 05 00 00 00
	00		 fadd	 DWORD PTR __real@4f800000
$LN5@GetExtraGa:
  00019	c9		 leave
  0001a	c3		 ret	 0
?GetExtraGauge@ioItem@@UAEMXZ ENDP			; ioItem::GetExtraGauge
; Function compile flags: /Ogsp
; File d:\lost saga for developer\youtube\tutorial\source\src\lsclient\ioattackableitem.h
_TEXT	ENDS
;	COMDAT ?CheckOnHand@ioAttackableItem@@UAE_NXZ
_TEXT	SEGMENT
?CheckOnHand@ioAttackableItem@@UAE_NXZ PROC		; ioAttackableItem::CheckOnHand, COMDAT
; _this$ = ecx

; 429  : 	virtual bool CheckOnHand() { return false; }

  00000	32 c0		 xor	 al, al
  00002	c3		 ret	 0
?CheckOnHand@ioAttackableItem@@UAE_NXZ ENDP		; ioAttackableItem::CheckOnHand
; Function compile flags: /Ogsp
_TEXT	ENDS
;	COMDAT ?CheckAimState@ioAttackableItem@@UAE_N_N@Z
_TEXT	SEGMENT
_bAimMove$ = 8						; size = 1
?CheckAimState@ioAttackableItem@@UAE_N_N@Z PROC		; ioAttackableItem::CheckAimState, COMDAT
; _this$ = ecx

; 430  : 	virtual bool CheckAimState( bool bAimMove = false ) { return false; }

  00000	32 c0		 xor	 al, al
  00002	c2 04 00	 ret	 4
?CheckAimState@ioAttackableItem@@UAE_N_N@Z ENDP		; ioAttackableItem::CheckAimState
; Function compile flags: /Ogsp
_TEXT	ENDS
;	COMDAT ?SetAimState@ioAttackableItem@@UAE_NPAVioBaseChar@@@Z
_TEXT	SEGMENT
_pChar$ = 8						; size = 4
?SetAimState@ioAttackableItem@@UAE_NPAVioBaseChar@@@Z PROC ; ioAttackableItem::SetAimState, COMDAT
; _this$ = ecx

; 431  : 	virtual bool SetAimState( ioBaseChar *pChar ) { return false; }

  00000	32 c0		 xor	 al, al
  00002	c2 04 00	 ret	 4
?SetAimState@ioAttackableItem@@UAE_NPAVioBaseChar@@@Z ENDP ; ioAttackableItem::SetAimState
; Function compile flags: /Ogsp
_TEXT	ENDS
;	COMDAT ?CheckExtendDefenseEnable@ioAttackableItem@@UAE_NPAVioBaseChar@@@Z
_TEXT	SEGMENT
_pChar$ = 8						; size = 4
?CheckExtendDefenseEnable@ioAttackableItem@@UAE_NPAVioBaseChar@@@Z PROC ; ioAttackableItem::CheckExtendDefenseEnable, COMDAT
; _this$ = ecx

; 434  : 	virtual bool CheckExtendDefenseEnable( ioBaseChar *pChar ) { return true; }

  00000	b0 01		 mov	 al, 1
  00002	c2 04 00	 ret	 4
?CheckExtendDefenseEnable@ioAttackableItem@@UAE_NPAVioBaseChar@@@Z ENDP ; ioAttackableItem::CheckExtendDefenseEnable
; Function compile flags: /Ogsp
_TEXT	ENDS
;	COMDAT ?IsChargeAttackState@ioAttackableItem@@UAE_NPAVioBaseChar@@@Z
_TEXT	SEGMENT
_pOwner$ = 8						; size = 4
?IsChargeAttackState@ioAttackableItem@@UAE_NPAVioBaseChar@@@Z PROC ; ioAttackableItem::IsChargeAttackState, COMDAT
; _this$ = ecx

; 436  : 	virtual bool IsChargeAttackState( ioBaseChar *pOwner ) { return false; }

  00000	32 c0		 xor	 al, al
  00002	c2 04 00	 ret	 4
?IsChargeAttackState@ioAttackableItem@@UAE_NPAVioBaseChar@@@Z ENDP ; ioAttackableItem::IsChargeAttackState
; Function compile flags: /Ogsp
_TEXT	ENDS
;	COMDAT ?IsMoveAttackState@ioAttackableItem@@UAE_NPAVioBaseChar@@@Z
_TEXT	SEGMENT
_pOwner$ = 8						; size = 4
?IsMoveAttackState@ioAttackableItem@@UAE_NPAVioBaseChar@@@Z PROC ; ioAttackableItem::IsMoveAttackState, COMDAT
; _this$ = ecx

; 437  : 	virtual bool IsMoveAttackState( ioBaseChar *pOwner ) { return false; }

  00000	32 c0		 xor	 al, al
  00002	c2 04 00	 ret	 4
?IsMoveAttackState@ioAttackableItem@@UAE_NPAVioBaseChar@@@Z ENDP ; ioAttackableItem::IsMoveAttackState
; Function compile flags: /Ogsp
_TEXT	ENDS
;	COMDAT ?IsNoGhostWalk@ioAttackableItem@@UAE_NPAVioBaseChar@@@Z
_TEXT	SEGMENT
_pOwner$ = 8						; size = 4
?IsNoGhostWalk@ioAttackableItem@@UAE_NPAVioBaseChar@@@Z PROC ; ioAttackableItem::IsNoGhostWalk, COMDAT
; _this$ = ecx

; 439  : 	virtual bool IsNoGhostWalk( ioBaseChar *pOwner ) { return false; }

  00000	32 c0		 xor	 al, al
  00002	c2 04 00	 ret	 4
?IsNoGhostWalk@ioAttackableItem@@UAE_NPAVioBaseChar@@@Z ENDP ; ioAttackableItem::IsNoGhostWalk
; Function compile flags: /Ogsp
_TEXT	ENDS
;	COMDAT ?IsEnableAttackDashCheck@ioAttackableItem@@UAE_NPAVioBaseChar@@_N@Z
_TEXT	SEGMENT
_pOwner$ = 8						; size = 4
_bCheck$ = 12						; size = 1
?IsEnableAttackDashCheck@ioAttackableItem@@UAE_NPAVioBaseChar@@_N@Z PROC ; ioAttackableItem::IsEnableAttackDashCheck, COMDAT
; _this$ = ecx

; 441  : 	virtual bool IsEnableAttackDashCheck( ioBaseChar *pOwner, bool bCheck ) { return false; }

  00000	32 c0		 xor	 al, al
  00002	c2 08 00	 ret	 8
?IsEnableAttackDashCheck@ioAttackableItem@@UAE_NPAVioBaseChar@@_N@Z ENDP ; ioAttackableItem::IsEnableAttackDashCheck
; Function compile flags: /Ogsp
_TEXT	ENDS
;	COMDAT ?IsEnableItemDashCheck@ioAttackableItem@@UAE_NPAVioBaseChar@@_N@Z
_TEXT	SEGMENT
_pOwner$ = 8						; size = 4
_bCheck$ = 12						; size = 1
?IsEnableItemDashCheck@ioAttackableItem@@UAE_NPAVioBaseChar@@_N@Z PROC ; ioAttackableItem::IsEnableItemDashCheck, COMDAT
; _this$ = ecx

; 442  : 	virtual bool IsEnableItemDashCheck( ioBaseChar *pOwner, bool bCheck ) { return false; }

  00000	32 c0		 xor	 al, al
  00002	c2 08 00	 ret	 8
?IsEnableItemDashCheck@ioAttackableItem@@UAE_NPAVioBaseChar@@_N@Z ENDP ; ioAttackableItem::IsEnableItemDashCheck
; Function compile flags: /Ogsp
_TEXT	ENDS
;	COMDAT ?IsEnableAttackRotateCheck@ioAttackableItem@@UAE_NPAVioBaseChar@@@Z
_TEXT	SEGMENT
_pOwner$ = 8						; size = 4
?IsEnableAttackRotateCheck@ioAttackableItem@@UAE_NPAVioBaseChar@@@Z PROC ; ioAttackableItem::IsEnableAttackRotateCheck, COMDAT
; _this$ = ecx

; 443  : 	virtual bool IsEnableAttackRotateCheck( ioBaseChar *pOwner ) { return false; }

  00000	32 c0		 xor	 al, al
  00002	c2 04 00	 ret	 4
?IsEnableAttackRotateCheck@ioAttackableItem@@UAE_NPAVioBaseChar@@@Z ENDP ; ioAttackableItem::IsEnableAttackRotateCheck
; Function compile flags: /Ogsp
_TEXT	ENDS
;	COMDAT ?IsEnableChargeDefenseCheck@ioAttackableItem@@UAE_NXZ
_TEXT	SEGMENT
?IsEnableChargeDefenseCheck@ioAttackableItem@@UAE_NXZ PROC ; ioAttackableItem::IsEnableChargeDefenseCheck, COMDAT
; _this$ = ecx

; 444  : 	virtual bool IsEnableChargeDefenseCheck() { return false; }

  00000	32 c0		 xor	 al, al
  00002	c3		 ret	 0
?IsEnableChargeDefenseCheck@ioAttackableItem@@UAE_NXZ ENDP ; ioAttackableItem::IsEnableChargeDefenseCheck
; Function compile flags: /Ogsp
_TEXT	ENDS
;	COMDAT ?IsUseDefenceCounterAttackEndDash@ioAttackableItem@@UAE_NXZ
_TEXT	SEGMENT
?IsUseDefenceCounterAttackEndDash@ioAttackableItem@@UAE_NXZ PROC ; ioAttackableItem::IsUseDefenceCounterAttackEndDash, COMDAT
; _this$ = ecx

; 464  : 	virtual bool IsUseDefenceCounterAttackEndDash() { return false; }

  00000	32 c0		 xor	 al, al
  00002	c3		 ret	 0
?IsUseDefenceCounterAttackEndDash@ioAttackableItem@@UAE_NXZ ENDP ; ioAttackableItem::IsUseDefenceCounterAttackEndDash
; Function compile flags: /Ogsp
_TEXT	ENDS
;	COMDAT ?IsAutoTarget@ioAttackableItem@@UBE_NXZ
_TEXT	SEGMENT
?IsAutoTarget@ioAttackableItem@@UBE_NXZ PROC		; ioAttackableItem::IsAutoTarget, COMDAT
; _this$ = ecx

; 707  : 	virtual bool IsAutoTarget() const { return true; }

  00000	b0 01		 mov	 al, 1
  00002	c3		 ret	 0
?IsAutoTarget@ioAttackableItem@@UBE_NXZ ENDP		; ioAttackableItem::IsAutoTarget
; Function compile flags: /Ogsp
_TEXT	ENDS
;	COMDAT ?IsWoundAfterUseExtendState@ioAttackableItem@@UAE_NXZ
_TEXT	SEGMENT
?IsWoundAfterUseExtendState@ioAttackableItem@@UAE_NXZ PROC ; ioAttackableItem::IsWoundAfterUseExtendState, COMDAT
; _this$ = ecx

; 724  : 	virtual bool IsWoundAfterUseExtendState(){ return false; }

  00000	32 c0		 xor	 al, al
  00002	c3		 ret	 0
?IsWoundAfterUseExtendState@ioAttackableItem@@UAE_NXZ ENDP ; ioAttackableItem::IsWoundAfterUseExtendState
; Function compile flags: /Ogsp
_TEXT	ENDS
;	COMDAT ?CheckWoundAfterUseExtendState@ioAttackableItem@@UAE_NPAVioBaseChar@@W4BlowTargetType@@@Z
_TEXT	SEGMENT
_pOwner$ = 8						; size = 4
_eType$ = 12						; size = 4
?CheckWoundAfterUseExtendState@ioAttackableItem@@UAE_NPAVioBaseChar@@W4BlowTargetType@@@Z PROC ; ioAttackableItem::CheckWoundAfterUseExtendState, COMDAT
; _this$ = ecx

; 725  : 	virtual bool CheckWoundAfterUseExtendState( ioBaseChar* pOwner, BlowTargetType eType ){ return false; }

  00000	32 c0		 xor	 al, al
  00002	c2 08 00	 ret	 8
?CheckWoundAfterUseExtendState@ioAttackableItem@@UAE_NPAVioBaseChar@@W4BlowTargetType@@@Z ENDP ; ioAttackableItem::CheckWoundAfterUseExtendState
; Function compile flags: /Ogsp
_TEXT	ENDS
;	COMDAT ?IsCharSkipState@ioAttackableItem@@UAE_NPBVioBaseChar@@@Z
_TEXT	SEGMENT
_pOwner$ = 8						; size = 4
?IsCharSkipState@ioAttackableItem@@UAE_NPBVioBaseChar@@@Z PROC ; ioAttackableItem::IsCharSkipState, COMDAT
; _this$ = ecx

; 728  : 	virtual bool IsCharSkipState( const ioBaseChar* pOwner ){ return false; }

  00000	32 c0		 xor	 al, al
  00002	c2 04 00	 ret	 4
?IsCharSkipState@ioAttackableItem@@UAE_NPBVioBaseChar@@@Z ENDP ; ioAttackableItem::IsCharSkipState
_TEXT	ENDS
PUBLIC	?push_back@?$vector@VioHashString@@V?$allocator@VioHashString@@@std@@@std@@QAEX$$QAVioHashString@@@Z ; std::vector<ioHashString,std::allocator<ioHashString> >::push_back
; Function compile flags: /Ogsp
; File c:\program files (x86)\microsoft visual studio 10.0\vc\include\vector
;	COMDAT ?push_back@?$vector@VioHashString@@V?$allocator@VioHashString@@@std@@@std@@QAEX$$QAVioHashString@@@Z
_TEXT	SEGMENT
__Val$ = 8						; size = 4
?push_back@?$vector@VioHashString@@V?$allocator@VioHashString@@@std@@@std@@QAEX$$QAVioHashString@@@Z PROC ; std::vector<ioHashString,std::allocator<ioHashString> >::push_back, COMDAT
; _this$ = ecx

; 631  : 		{	// insert element at end

  00000	55		 push	 ebp
  00001	8b ec		 mov	 ebp, esp
  00003	56		 push	 esi
  00004	8b f1		 mov	 esi, ecx

; 632  : 		if (_Inside(_STD addressof(_Val)))

  00006	8b 46 04	 mov	 eax, DWORD PTR [esi+4]
  00009	57		 push	 edi
  0000a	8b 7d 08	 mov	 edi, DWORD PTR __Val$[ebp]
  0000d	3b f8		 cmp	 edi, eax
  0000f	73 1d		 jae	 SHORT $LN4@push_back
  00011	8b 0e		 mov	 ecx, DWORD PTR [esi]
  00013	3b cf		 cmp	 ecx, edi
  00015	77 17		 ja	 SHORT $LN4@push_back

; 633  : 			{	// push back an element
; 634  : 			size_type _Idx = _STD addressof(_Val) - this->_Myfirst;

  00017	2b f9		 sub	 edi, ecx

; 635  : 			if (this->_Mylast == this->_Myend)

  00019	3b 46 08	 cmp	 eax, DWORD PTR [esi+8]
  0001c	75 09		 jne	 SHORT $LN3@push_back

; 636  : 				_Reserve(1);

  0001e	6a 01		 push	 1
  00020	8b ce		 mov	 ecx, esi
  00022	e8 00 00 00 00	 call	 ?_Reserve@?$vector@VioHashString@@V?$allocator@VioHashString@@@std@@@std@@IAEXI@Z ; std::vector<ioHashString,std::allocator<ioHashString> >::_Reserve
$LN3@push_back:

; 637  : 			_Orphan_range(this->_Mylast, this->_Mylast);
; 638  : 			_Cons_val(this->_Alval,
; 639  : 				this->_Mylast,
; 640  : 				_STD forward<_Ty>(this->_Myfirst[_Idx]));

  00027	83 e7 f0	 and	 edi, -16		; fffffff0H
  0002a	03 3e		 add	 edi, DWORD PTR [esi]

; 641  : 			++this->_Mylast;
; 642  : 			}
; 643  : 		else

  0002c	eb 0e		 jmp	 SHORT $LN1@push_back
$LN4@push_back:

; 644  : 			{	// push back a non-element
; 645  : 			if (this->_Mylast == this->_Myend)

  0002e	3b 46 08	 cmp	 eax, DWORD PTR [esi+8]
  00031	75 09		 jne	 SHORT $LN1@push_back

; 646  : 				_Reserve(1);

  00033	6a 01		 push	 1
  00035	8b ce		 mov	 ecx, esi
  00037	e8 00 00 00 00	 call	 ?_Reserve@?$vector@VioHashString@@V?$allocator@VioHashString@@@std@@@std@@IAEXI@Z ; std::vector<ioHashString,std::allocator<ioHashString> >::_Reserve
$LN1@push_back:

; 647  : 			_Orphan_range(this->_Mylast, this->_Mylast);
; 648  : 			_Cons_val(this->_Alval,
; 649  : 				this->_Mylast,
; 650  : 				_STD forward<_Ty>(_Val));

  0003c	57		 push	 edi
  0003d	ff 76 04	 push	 DWORD PTR [esi+4]
  00040	8d 4e 0c	 lea	 ecx, DWORD PTR [esi+12]
  00043	e8 00 00 00 00	 call	 ?construct@?$allocator@VioHashString@@@std@@QAEXPAVioHashString@@$$QAV3@@Z ; std::allocator<ioHashString>::construct

; 651  : 			++this->_Mylast;

  00048	83 46 04 10	 add	 DWORD PTR [esi+4], 16	; 00000010H
  0004c	5f		 pop	 edi
  0004d	5e		 pop	 esi

; 652  : 			}
; 653  : 		}

  0004e	5d		 pop	 ebp
  0004f	c2 04 00	 ret	 4
?push_back@?$vector@VioHashString@@V?$allocator@VioHashString@@@std@@@std@@QAEX$$QAVioHashString@@@Z ENDP ; std::vector<ioHashString,std::allocator<ioHashString> >::push_back
_TEXT	ENDS
PUBLIC	??4?$vector@VioHashString@@V?$allocator@VioHashString@@@std@@@std@@QAEAAV01@ABV01@@Z ; std::vector<ioHashString,std::allocator<ioHashString> >::operator=
; Function compile flags: /Ogsp
;	COMDAT ??4?$vector@VioHashString@@V?$allocator@VioHashString@@@std@@@std@@QAEAAV01@ABV01@@Z
_TEXT	SEGMENT
tv555 = 8						; size = 4
__Cat$617138 = 8					; size = 1
__Cat$617011 = 8					; size = 1
__Cat$616988 = 8					; size = 1
__Cat$616866 = 8					; size = 1
$T616922 = 8						; size = 4
$T616834 = 8						; size = 4
__Right$ = 8						; size = 4
??4?$vector@VioHashString@@V?$allocator@VioHashString@@@std@@@std@@QAEAAV01@ABV01@@Z PROC ; std::vector<ioHashString,std::allocator<ioHashString> >::operator=, COMDAT
; _this$ = ecx

; 709  : 		{	// assign _Right

  00000	55		 push	 ebp
  00001	8b ec		 mov	 ebp, esp
  00003	56		 push	 esi
  00004	57		 push	 edi

; 710  : 		if (this != &_Right)

  00005	8b 7d 08	 mov	 edi, DWORD PTR __Right$[ebp]
  00008	8b f1		 mov	 esi, ecx
  0000a	3b f7		 cmp	 esi, edi
  0000c	0f 84 fd 00 00
	00		 je	 $LN1@operator@5

; 711  : 			{	// worth doing
; 712  : 			this->_Orphan_all();

  00012	53		 push	 ebx
  00013	ff 15 00 00 00
	00		 call	 DWORD PTR __imp_?_Orphan_all@_Container_base0@std@@QAEXXZ

; 713  : 
; 714  : 			if (_Right.size() == 0)

  00019	8b 5f 04	 mov	 ebx, DWORD PTR [edi+4]

; 715  : 				clear();	// new sequence empty, erase existing sequence

  0001c	8b 46 04	 mov	 eax, DWORD PTR [esi+4]
  0001f	8b cb		 mov	 ecx, ebx
  00021	2b 0f		 sub	 ecx, DWORD PTR [edi]
  00023	c1 f9 04	 sar	 ecx, 4
  00026	85 c9		 test	 ecx, ecx
  00028	75 14		 jne	 SHORT $LN8@operator@5
  0002a	8b 0e		 mov	 ecx, DWORD PTR [esi]
  0002c	50		 push	 eax
  0002d	51		 push	 ecx
  0002e	8d 45 08	 lea	 eax, DWORD PTR $T616834[ebp]
  00031	50		 push	 eax
  00032	8b ce		 mov	 ecx, esi
  00034	e8 00 00 00 00	 call	 ?erase@?$vector@VioHashString@@V?$allocator@VioHashString@@@std@@@std@@QAE?AV?$_Vector_iterator@V?$_Vector_val@VioHashString@@V?$allocator@VioHashString@@@std@@@std@@@2@V?$_Vector_const_iterator@V?$_Vector_val@VioHashString@@V?$allocator@VioHashString@@@std@@@std@@@2@0@Z ; std::vector<ioHashString,std::allocator<ioHashString> >::erase

; 716  : 			else if (_Right.size() <= size())

  00039	e9 d0 00 00 00	 jmp	 $LN113@operator@5
$LN8@operator@5:
  0003e	8b 16		 mov	 edx, DWORD PTR [esi]
  00040	89 45 08	 mov	 DWORD PTR tv555[ebp], eax
  00043	2b c2		 sub	 eax, edx
  00045	c1 f8 04	 sar	 eax, 4
  00048	3b c8		 cmp	 ecx, eax
  0004a	77 3a		 ja	 SHORT $LN6@operator@5

; 717  : 				{	// enough elements, copy new and destroy old
; 718  : 				pointer _Ptr = _STD _Copy_impl(_Right._Myfirst, _Right._Mylast,
; 719  : 					this->_Myfirst);	// copy new

  0004c	ff 75 08	 push	 DWORD PTR __Cat$616866[ebp]
  0004f	52		 push	 edx
  00050	53		 push	 ebx
  00051	ff 37		 push	 DWORD PTR [edi]
  00053	e8 00 00 00 00	 call	 ??$_Copy_impl@PAVioHashString@@PAV1@@std@@YAPAVioHashString@@PAV1@00U_Nonscalar_ptr_iterator_tag@0@@Z ; std::_Copy_impl<ioHashString *,ioHashString *>

; 720  : 				_Destroy(_Ptr, this->_Mylast);	// destroy old

  00058	8b 5e 04	 mov	 ebx, DWORD PTR [esi+4]
  0005b	83 c4 10	 add	 esp, 16			; 00000010H
  0005e	89 45 08	 mov	 DWORD PTR $T616922[ebp], eax
  00061	3b c3		 cmp	 eax, ebx
  00063	74 12		 je	 SHORT $LN46@operator@5
$LL112@operator@5:
  00065	8b 4d 08	 mov	 ecx, DWORD PTR $T616922[ebp]
  00068	ff 15 00 00 00
	00		 call	 DWORD PTR __imp_??1ioHashString@@QAE@XZ
  0006e	83 45 08 10	 add	 DWORD PTR $T616922[ebp], 16 ; 00000010H
  00072	39 5d 08	 cmp	 DWORD PTR $T616922[ebp], ebx
  00075	75 ee		 jne	 SHORT $LL112@operator@5
$LN46@operator@5:

; 721  : 				this->_Mylast = this->_Myfirst + _Right.size();

  00077	8b 47 04	 mov	 eax, DWORD PTR [edi+4]
  0007a	2b 07		 sub	 eax, DWORD PTR [edi]
  0007c	83 e0 f0	 and	 eax, -16		; fffffff0H
  0007f	03 06		 add	 eax, DWORD PTR [esi]

; 722  : 				}
; 723  : 			else if (_Right.size() <= capacity())

  00081	e9 85 00 00 00	 jmp	 $LN114@operator@5
$LN6@operator@5:
  00086	8b 5e 08	 mov	 ebx, DWORD PTR [esi+8]
  00089	2b da		 sub	 ebx, edx
  0008b	c1 fb 04	 sar	 ebx, 4
  0008e	3b cb		 cmp	 ecx, ebx
  00090	77 2c		 ja	 SHORT $LN4@operator@5

; 724  : 				{	// enough room, copy and construct new
; 725  : 				pointer _Ptr = _Right._Myfirst + size();
; 726  : 				_STD _Copy_impl(_Right._Myfirst, _Ptr, this->_Myfirst);

  00092	ff 75 08	 push	 DWORD PTR __Cat$616988[ebp]
  00095	8b 0f		 mov	 ecx, DWORD PTR [edi]
  00097	03 c0		 add	 eax, eax
  00099	52		 push	 edx
  0009a	8d 1c c1	 lea	 ebx, DWORD PTR [ecx+eax*8]
  0009d	53		 push	 ebx
  0009e	51		 push	 ecx
  0009f	e8 00 00 00 00	 call	 ??$_Copy_impl@PAVioHashString@@PAV1@@std@@YAPAVioHashString@@PAV1@00U_Nonscalar_ptr_iterator_tag@0@@Z ; std::_Copy_impl<ioHashString *,ioHashString *>

; 727  : 				this->_Mylast = _Ucopy(_Ptr, _Right._Mylast, this->_Mylast);

  000a4	ff 75 08	 push	 DWORD PTR __Cat$617011[ebp]
  000a7	8b 46 04	 mov	 eax, DWORD PTR [esi+4]
  000aa	8b 7f 04	 mov	 edi, DWORD PTR [edi+4]
  000ad	8d 4e 0c	 lea	 ecx, DWORD PTR [esi+12]
  000b0	51		 push	 ecx
  000b1	50		 push	 eax
  000b2	57		 push	 edi
  000b3	53		 push	 ebx
  000b4	e8 00 00 00 00	 call	 ??$_Uninit_copy@PAVioHashString@@PAV1@V?$allocator@VioHashString@@@std@@@std@@YAPAVioHashString@@PAV1@00AAV?$allocator@VioHashString@@@0@U_Nonscalar_ptr_iterator_tag@0@@Z ; std::_Uninit_copy<ioHashString *,ioHashString *,std::allocator<ioHashString> >
  000b9	83 c4 24	 add	 esp, 36			; 00000024H

; 728  : 				}
; 729  : 			else

  000bc	eb 4d		 jmp	 SHORT $LN114@operator@5
$LN4@operator@5:

; 730  : 				{	// not enough room, allocate new array and construct new
; 731  : 				if (this->_Myfirst != 0)

  000be	85 d2		 test	 edx, edx
  000c0	74 1c		 je	 SHORT $LN98@operator@5

; 732  : 					{	// discard old array
; 733  : 					_Destroy(this->_Myfirst, this->_Mylast);

  000c2	8b da		 mov	 ebx, edx
  000c4	eb 0b		 jmp	 SHORT $LN115@operator@5
$LL86@operator@5:
  000c6	8b cb		 mov	 ecx, ebx
  000c8	ff 15 00 00 00
	00		 call	 DWORD PTR __imp_??1ioHashString@@QAE@XZ
  000ce	83 c3 10	 add	 ebx, 16			; 00000010H
$LN115@operator@5:
  000d1	3b 5d 08	 cmp	 ebx, DWORD PTR tv555[ebp]
  000d4	75 f0		 jne	 SHORT $LL86@operator@5

; 734  : 					this->_Alval.deallocate(this->_Myfirst,
; 735  : 						this->_Myend - this->_Myfirst);

  000d6	ff 36		 push	 DWORD PTR [esi]
  000d8	e8 00 00 00 00	 call	 ??3@YAXPAX@Z		; operator delete
  000dd	59		 pop	 ecx
$LN98@operator@5:

; 736  : 					}
; 737  : 				if (_Buy(_Right.size()))

  000de	8b 47 04	 mov	 eax, DWORD PTR [edi+4]
  000e1	2b 07		 sub	 eax, DWORD PTR [edi]
  000e3	8b ce		 mov	 ecx, esi
  000e5	c1 f8 04	 sar	 eax, 4
  000e8	50		 push	 eax
  000e9	e8 00 00 00 00	 call	 ?_Buy@?$vector@VioHashString@@V?$allocator@VioHashString@@@std@@@std@@IAE_NI@Z ; std::vector<ioHashString,std::allocator<ioHashString> >::_Buy
  000ee	84 c0		 test	 al, al
  000f0	74 1c		 je	 SHORT $LN113@operator@5

; 738  : 					this->_Mylast = _Ucopy(_Right._Myfirst, _Right._Mylast,
; 739  : 						this->_Myfirst);

  000f2	ff 75 08	 push	 DWORD PTR __Cat$617138[ebp]
  000f5	8b 06		 mov	 eax, DWORD PTR [esi]
  000f7	8b 4f 04	 mov	 ecx, DWORD PTR [edi+4]
  000fa	8b 3f		 mov	 edi, DWORD PTR [edi]
  000fc	8d 56 0c	 lea	 edx, DWORD PTR [esi+12]
  000ff	52		 push	 edx
  00100	50		 push	 eax
  00101	51		 push	 ecx
  00102	57		 push	 edi
  00103	e8 00 00 00 00	 call	 ??$_Uninit_copy@PAVioHashString@@PAV1@V?$allocator@VioHashString@@@std@@@std@@YAPAVioHashString@@PAV1@00AAV?$allocator@VioHashString@@@0@U_Nonscalar_ptr_iterator_tag@0@@Z ; std::_Uninit_copy<ioHashString *,ioHashString *,std::allocator<ioHashString> >
  00108	83 c4 14	 add	 esp, 20			; 00000014H
$LN114@operator@5:
  0010b	89 46 04	 mov	 DWORD PTR [esi+4], eax
$LN113@operator@5:
  0010e	5b		 pop	 ebx
$LN1@operator@5:
  0010f	5f		 pop	 edi

; 740  : 				}
; 741  : 			}
; 742  : 		return (*this);

  00110	8b c6		 mov	 eax, esi
  00112	5e		 pop	 esi

; 743  : 		}

  00113	5d		 pop	 ebp
  00114	c2 04 00	 ret	 4
??4?$vector@VioHashString@@V?$allocator@VioHashString@@@std@@@std@@QAEAAV01@ABV01@@Z ENDP ; std::vector<ioHashString,std::allocator<ioHashString> >::operator=
_TEXT	ENDS
PUBLIC	?push_back@?$vector@VioHashString@@V?$allocator@VioHashString@@@std@@@std@@QAEXABVioHashString@@@Z ; std::vector<ioHashString,std::allocator<ioHashString> >::push_back
; Function compile flags: /Ogsp
;	COMDAT ?push_back@?$vector@VioHashString@@V?$allocator@VioHashString@@@std@@@std@@QAEXABVioHashString@@@Z
_TEXT	SEGMENT
__Val$ = 8						; size = 4
?push_back@?$vector@VioHashString@@V?$allocator@VioHashString@@@std@@@std@@QAEXABVioHashString@@@Z PROC ; std::vector<ioHashString,std::allocator<ioHashString> >::push_back, COMDAT
; _this$ = ecx

; 976  : 		{	// insert element at end

  00000	55		 push	 ebp
  00001	8b ec		 mov	 ebp, esp
  00003	56		 push	 esi
  00004	8b f1		 mov	 esi, ecx

; 977  : 		if (_Inside(_STD addressof(_Val)))

  00006	8b 46 04	 mov	 eax, DWORD PTR [esi+4]
  00009	57		 push	 edi
  0000a	8b 7d 08	 mov	 edi, DWORD PTR __Val$[ebp]
  0000d	3b f8		 cmp	 edi, eax
  0000f	73 29		 jae	 SHORT $LN4@push_back@2
  00011	8b 0e		 mov	 ecx, DWORD PTR [esi]
  00013	3b cf		 cmp	 ecx, edi
  00015	77 23		 ja	 SHORT $LN4@push_back@2

; 978  : 			{	// push back an element
; 979  : 			size_type _Idx = _STD addressof(_Val) - this->_Myfirst;

  00017	2b f9		 sub	 edi, ecx

; 980  : 			if (this->_Mylast == this->_Myend)

  00019	3b 46 08	 cmp	 eax, DWORD PTR [esi+8]
  0001c	75 09		 jne	 SHORT $LN3@push_back@2

; 981  : 				_Reserve(1);

  0001e	6a 01		 push	 1
  00020	8b ce		 mov	 ecx, esi
  00022	e8 00 00 00 00	 call	 ?_Reserve@?$vector@VioHashString@@V?$allocator@VioHashString@@@std@@@std@@IAEXI@Z ; std::vector<ioHashString,std::allocator<ioHashString> >::_Reserve
$LN3@push_back@2:

; 982  : 			_Orphan_range(this->_Mylast, this->_Mylast);
; 983  : 			_Cons_val(this->_Alval,
; 984  : 				this->_Mylast,
; 985  : 				this->_Myfirst[_Idx]);

  00027	83 e7 f0	 and	 edi, -16		; fffffff0H
  0002a	03 3e		 add	 edi, DWORD PTR [esi]
  0002c	8d 4e 0c	 lea	 ecx, DWORD PTR [esi+12]
  0002f	57		 push	 edi
  00030	ff 76 04	 push	 DWORD PTR [esi+4]
  00033	e8 00 00 00 00	 call	 ??$construct@AAVioHashString@@@?$allocator@VioHashString@@@std@@QAEXPAVioHashString@@AAV2@@Z ; std::allocator<ioHashString>::construct<ioHashString &>

; 986  : 			++this->_Mylast;
; 987  : 			}
; 988  : 		else

  00038	eb 19		 jmp	 SHORT $LN30@push_back@2
$LN4@push_back@2:

; 989  : 			{	// push back a non-element
; 990  : 			if (this->_Mylast == this->_Myend)

  0003a	3b 46 08	 cmp	 eax, DWORD PTR [esi+8]
  0003d	75 09		 jne	 SHORT $LN1@push_back@2

; 991  : 				_Reserve(1);

  0003f	6a 01		 push	 1
  00041	8b ce		 mov	 ecx, esi
  00043	e8 00 00 00 00	 call	 ?_Reserve@?$vector@VioHashString@@V?$allocator@VioHashString@@@std@@@std@@IAEXI@Z ; std::vector<ioHashString,std::allocator<ioHashString> >::_Reserve
$LN1@push_back@2:

; 992  : 			_Orphan_range(this->_Mylast, this->_Mylast);
; 993  : 			_Cons_val(this->_Alval,
; 994  : 				this->_Mylast,
; 995  : 				_Val);

  00048	57		 push	 edi
  00049	ff 76 04	 push	 DWORD PTR [esi+4]
  0004c	e8 00 00 00 00	 call	 ??$_Construct@VioHashString@@ABV1@@std@@YAXPAVioHashString@@ABV1@@Z ; std::_Construct<ioHashString,ioHashString const &>
  00051	59		 pop	 ecx
  00052	59		 pop	 ecx
$LN30@push_back@2:

; 996  : 			++this->_Mylast;

  00053	83 46 04 10	 add	 DWORD PTR [esi+4], 16	; 00000010H
  00057	5f		 pop	 edi
  00058	5e		 pop	 esi

; 997  : 			}
; 998  : 		}

  00059	5d		 pop	 ebp
  0005a	c2 04 00	 ret	 4
?push_back@?$vector@VioHashString@@V?$allocator@VioHashString@@@std@@@std@@QAEXABVioHashString@@@Z ENDP ; std::vector<ioHashString,std::allocator<ioHashString> >::push_back
_TEXT	ENDS
PUBLIC	??0tagDraculaFlyInfo@@QAE@XZ			; tagDraculaFlyInfo::tagDraculaFlyInfo
; Function compile flags: /Ogsp
; File d:\lost saga for developer\youtube\tutorial\source\src\lsclient\playentityhelpstruct.h
;	COMDAT ??0tagDraculaFlyInfo@@QAE@XZ
_TEXT	SEGMENT
??0tagDraculaFlyInfo@@QAE@XZ PROC			; tagDraculaFlyInfo::tagDraculaFlyInfo, COMDAT
; _this$ = ecx

; 2619 : 	{
; 2620 : 		Init();

  00000	0f 57 c0	 xorps	 xmm0, xmm0
  00003	8b c1		 mov	 eax, ecx
  00005	33 c9		 xor	 ecx, ecx
  00007	89 48 18	 mov	 DWORD PTR [eax+24], ecx
  0000a	89 48 1c	 mov	 DWORD PTR [eax+28], ecx
  0000d	89 48 20	 mov	 DWORD PTR [eax+32], ecx
  00010	f3 0f 11 00	 movss	 DWORD PTR [eax], xmm0
  00014	f3 0f 11 40 04	 movss	 DWORD PTR [eax+4], xmm0
  00019	89 48 08	 mov	 DWORD PTR [eax+8], ecx
  0001c	89 48 0c	 mov	 DWORD PTR [eax+12], ecx
  0001f	f3 0f 11 40 10	 movss	 DWORD PTR [eax+16], xmm0
  00024	f3 0f 11 40 14	 movss	 DWORD PTR [eax+20], xmm0

; 2621 : 	}

  00029	c3		 ret	 0
??0tagDraculaFlyInfo@@QAE@XZ ENDP			; tagDraculaFlyInfo::tagDraculaFlyInfo
_TEXT	ENDS
PUBLIC	??0ioDraculaItem@@QAE@XZ			; ioDraculaItem::ioDraculaItem
EXTRN	__imp_??0ioHashString@@QAE@XZ:PROC
EXTRN	??0ioWeaponItem@@QAE@XZ:PROC			; ioWeaponItem::ioWeaponItem
;	COMDAT xdata$x
; File d:\lost saga for developer\youtube\tutorial\source\src\lsclient\encryptvalue.h
xdata$x	SEGMENT
__ehfuncinfo$??0ioDraculaItem@@QAE@XZ DD 019930522H
	DD	0eH
	DD	FLAT:__unwindtable$??0ioDraculaItem@@QAE@XZ
	DD	2 DUP(00H)
	DD	2 DUP(00H)
	DD	00H
	DD	01H
__unwindtable$??0ioDraculaItem@@QAE@XZ DD 0ffffffffH
	DD	FLAT:__unwindfunclet$??0ioDraculaItem@@QAE@XZ$0
	DD	00H
	DD	FLAT:__unwindfunclet$??0ioDraculaItem@@QAE@XZ$1
	DD	01H
	DD	FLAT:__unwindfunclet$??0ioDraculaItem@@QAE@XZ$2
	DD	02H
	DD	FLAT:__unwindfunclet$??0ioDraculaItem@@QAE@XZ$3
	DD	03H
	DD	FLAT:__unwindfunclet$??0ioDraculaItem@@QAE@XZ$4
	DD	04H
	DD	FLAT:__unwindfunclet$??0ioDraculaItem@@QAE@XZ$5
	DD	05H
	DD	FLAT:__unwindfunclet$??0ioDraculaItem@@QAE@XZ$6
	DD	06H
	DD	FLAT:__unwindfunclet$??0ioDraculaItem@@QAE@XZ$7
	DD	07H
	DD	FLAT:__unwindfunclet$??0ioDraculaItem@@QAE@XZ$8
	DD	08H
	DD	FLAT:__unwindfunclet$??0ioDraculaItem@@QAE@XZ$9
	DD	09H
	DD	FLAT:__unwindfunclet$??0ioDraculaItem@@QAE@XZ$10
	DD	0aH
	DD	FLAT:__unwindfunclet$??0ioDraculaItem@@QAE@XZ$11
	DD	0bH
	DD	FLAT:__unwindfunclet$??0ioDraculaItem@@QAE@XZ$12
	DD	0cH
	DD	FLAT:__unwindfunclet$??0ioDraculaItem@@QAE@XZ$13
; Function compile flags: /Ogsp
; File d:\lost saga for developer\youtube\tutorial\source\src\lsclient\iodraculaitem.cpp
xdata$x	ENDS
;	COMDAT ??0ioDraculaItem@@QAE@XZ
_TEXT	SEGMENT
_this$ = -24						; size = 4
_value$617383 = -20					; size = 4
_value$617367 = -20					; size = 4
_value$617363 = -20					; size = 4
_value$617359 = -20					; size = 4
_value$617375 = -13					; size = 1
_value$617371 = -13					; size = 1
__$EHRec$ = -12						; size = 12
??0ioDraculaItem@@QAE@XZ PROC				; ioDraculaItem::ioDraculaItem, COMDAT
; _this$ = ecx

; 13   : {

  00000	6a 0c		 push	 12			; 0000000cH
  00002	b8 00 00 00 00	 mov	 eax, __ehhandler$??0ioDraculaItem@@QAE@XZ
  00007	e8 00 00 00 00	 call	 __EH_prolog3
  0000c	8b f1		 mov	 esi, ecx
  0000e	89 75 e8	 mov	 DWORD PTR _this$[ebp], esi
  00011	e8 00 00 00 00	 call	 ??0ioWeaponItem@@QAE@XZ	; ioWeaponItem::ioWeaponItem
  00016	33 db		 xor	 ebx, ebx
  00018	c7 06 00 00 00
	00		 mov	 DWORD PTR [esi], OFFSET ??_7ioDraculaItem@@6B@
  0001e	89 5d fc	 mov	 DWORD PTR __$EHRec$[ebp+8], ebx
  00021	89 9e 54 19 00
	00		 mov	 DWORD PTR [esi+6484], ebx
  00027	89 9e 58 19 00
	00		 mov	 DWORD PTR [esi+6488], ebx
  0002d	89 9e 5c 19 00
	00		 mov	 DWORD PTR [esi+6492], ebx
  00033	8d 8e 8c 19 00
	00		 lea	 ecx, DWORD PTR [esi+6540]
  00039	c6 45 fc 01	 mov	 BYTE PTR __$EHRec$[ebp+8], 1
  0003d	e8 00 00 00 00	 call	 ??0?$CEncrypt@M@@QAE@XZ	; CEncrypt<float>::CEncrypt<float>
  00042	8d 8e c4 19 00
	00		 lea	 ecx, DWORD PTR [esi+6596]
  00048	c6 45 fc 02	 mov	 BYTE PTR __$EHRec$[ebp+8], 2
  0004c	e8 00 00 00 00	 call	 ??0?$CEncrypt@_N@@QAE@XZ ; CEncrypt<bool>::CEncrypt<bool>
  00051	8d 8e f4 19 00
	00		 lea	 ecx, DWORD PTR [esi+6644]
  00057	c6 45 fc 03	 mov	 BYTE PTR __$EHRec$[ebp+8], 3
  0005b	e8 00 00 00 00	 call	 ??0?$CEncrypt@_N@@QAE@XZ ; CEncrypt<bool>::CEncrypt<bool>
  00060	8b 3d 00 00 00
	00		 mov	 edi, DWORD PTR __imp_??0ioHashString@@QAE@XZ
  00066	8d 8e 24 1a 00
	00		 lea	 ecx, DWORD PTR [esi+6692]
  0006c	c6 45 fc 04	 mov	 BYTE PTR __$EHRec$[ebp+8], 4
  00070	ff d7		 call	 edi
  00072	8d 8e 34 1a 00
	00		 lea	 ecx, DWORD PTR [esi+6708]
  00078	c6 45 fc 05	 mov	 BYTE PTR __$EHRec$[ebp+8], 5
  0007c	ff d7		 call	 edi
  0007e	0f 57 c0	 xorps	 xmm0, xmm0
  00081	89 9e 5c 1a 00
	00		 mov	 DWORD PTR [esi+6748], ebx
  00087	89 9e 60 1a 00
	00		 mov	 DWORD PTR [esi+6752], ebx
  0008d	89 9e 64 1a 00
	00		 mov	 DWORD PTR [esi+6756], ebx
  00093	f3 0f 11 86 44
	1a 00 00	 movss	 DWORD PTR [esi+6724], xmm0
  0009b	f3 0f 11 86 48
	1a 00 00	 movss	 DWORD PTR [esi+6728], xmm0
  000a3	89 9e 4c 1a 00
	00		 mov	 DWORD PTR [esi+6732], ebx
  000a9	89 9e 50 1a 00
	00		 mov	 DWORD PTR [esi+6736], ebx
  000af	f3 0f 11 86 54
	1a 00 00	 movss	 DWORD PTR [esi+6740], xmm0
  000b7	f3 0f 11 86 58
	1a 00 00	 movss	 DWORD PTR [esi+6744], xmm0
  000bf	89 9e 84 1a 00
	00		 mov	 DWORD PTR [esi+6788], ebx
  000c5	89 9e 88 1a 00
	00		 mov	 DWORD PTR [esi+6792], ebx
  000cb	89 9e 8c 1a 00
	00		 mov	 DWORD PTR [esi+6796], ebx
  000d1	f3 0f 11 86 6c
	1a 00 00	 movss	 DWORD PTR [esi+6764], xmm0
  000d9	f3 0f 11 86 70
	1a 00 00	 movss	 DWORD PTR [esi+6768], xmm0
  000e1	89 9e 74 1a 00
	00		 mov	 DWORD PTR [esi+6772], ebx
  000e7	89 9e 78 1a 00
	00		 mov	 DWORD PTR [esi+6776], ebx
  000ed	f3 0f 11 86 7c
	1a 00 00	 movss	 DWORD PTR [esi+6780], xmm0
  000f5	f3 0f 11 86 80
	1a 00 00	 movss	 DWORD PTR [esi+6784], xmm0
  000fd	8d 8e 94 1a 00
	00		 lea	 ecx, DWORD PTR [esi+6804]
  00103	c6 45 fc 08	 mov	 BYTE PTR __$EHRec$[ebp+8], 8
  00107	e8 00 00 00 00	 call	 ??0?$CEncrypt@M@@QAE@XZ	; CEncrypt<float>::CEncrypt<float>
  0010c	8d 8e c4 1a 00
	00		 lea	 ecx, DWORD PTR [esi+6852]
  00112	c6 45 fc 09	 mov	 BYTE PTR __$EHRec$[ebp+8], 9
  00116	e8 00 00 00 00	 call	 ??0?$CEncrypt@M@@QAE@XZ	; CEncrypt<float>::CEncrypt<float>
  0011b	8d 8e f4 1a 00
	00		 lea	 ecx, DWORD PTR [esi+6900]
  00121	c6 45 fc 0a	 mov	 BYTE PTR __$EHRec$[ebp+8], 10 ; 0000000aH
  00125	e8 00 00 00 00	 call	 ??0?$CEncrypt@M@@QAE@XZ	; CEncrypt<float>::CEncrypt<float>
  0012a	8d 8e 24 1b 00
	00		 lea	 ecx, DWORD PTR [esi+6948]
  00130	c6 45 fc 0b	 mov	 BYTE PTR __$EHRec$[ebp+8], 11 ; 0000000bH
  00134	e8 00 00 00 00	 call	 ??0?$CEncrypt@M@@QAE@XZ	; CEncrypt<float>::CEncrypt<float>
  00139	8d 8e 68 1b 00
	00		 lea	 ecx, DWORD PTR [esi+7016]
  0013f	c6 45 fc 0c	 mov	 BYTE PTR __$EHRec$[ebp+8], 12 ; 0000000cH
  00143	ff d7		 call	 edi

; 14   : 	m_ChargeState = CS_NONE;
; 15   : 
; 16   : 	m_dwAttackStartTime = 0;
; 17   : 	m_iCurCombo = 0;
; 18   : 
; 19   : 	m_fCurChargeRate = 0.0f;

  00145	0f 57 c0	 xorps	 xmm0, xmm0
  00148	8d 45 ec	 lea	 eax, DWORD PTR _value$617359[ebp]
  0014b	50		 push	 eax
  0014c	8d 8e 8c 0f 00
	00		 lea	 ecx, DWORD PTR [esi+3980]
  00152	c6 45 fc 0d	 mov	 BYTE PTR __$EHRec$[ebp+8], 13 ; 0000000dH
  00156	89 9e 64 19 00
	00		 mov	 DWORD PTR [esi+6500], ebx
  0015c	89 9e 6c 19 00
	00		 mov	 DWORD PTR [esi+6508], ebx
  00162	89 9e 70 19 00
	00		 mov	 DWORD PTR [esi+6512], ebx
  00168	f3 0f 11 45 ec	 movss	 DWORD PTR _value$617359[ebp], xmm0
  0016d	e8 00 00 00 00	 call	 ?EncryptValueToPool@?$CEncrypt@M@@AAEXPBD@Z ; CEncrypt<float>::EncryptValueToPool

; 20   : 	m_fCurChargeRateForSkill = 0.0f;

  00172	0f 57 c0	 xorps	 xmm0, xmm0
  00175	8d 45 ec	 lea	 eax, DWORD PTR _value$617363[ebp]
  00178	50		 push	 eax
  00179	8d 8e bc 0f 00
	00		 lea	 ecx, DWORD PTR [esi+4028]
  0017f	f3 0f 11 45 ec	 movss	 DWORD PTR _value$617363[ebp], xmm0
  00184	e8 00 00 00 00	 call	 ?EncryptValueToPool@?$CEncrypt@M@@AAEXPBD@Z ; CEncrypt<float>::EncryptValueToPool

; 21   : 
; 22   : 	m_fFlyCurRange = 0.0f;

  00189	0f 57 c0	 xorps	 xmm0, xmm0
  0018c	8d 45 ec	 lea	 eax, DWORD PTR _value$617367[ebp]
  0018f	50		 push	 eax
  00190	8d 8e 8c 19 00
	00		 lea	 ecx, DWORD PTR [esi+6540]
  00196	f3 0f 11 45 ec	 movss	 DWORD PTR _value$617367[ebp], xmm0
  0019b	e8 00 00 00 00	 call	 ?EncryptValueToPool@?$CEncrypt@M@@AAEXPBD@Z ; CEncrypt<float>::EncryptValueToPool

; 23   : 
; 24   : 	m_CurDirKey = ioUserKeyInput::DKI_NONE;
; 25   : 	m_PreDirKey = ioUserKeyInput::DKI_NONE;
; 26   : 
; 27   : 	m_bSetUpKey = false;

  001a0	8d 45 f3	 lea	 eax, DWORD PTR _value$617371[ebp]
  001a3	50		 push	 eax
  001a4	8d 8e c4 19 00
	00		 lea	 ecx, DWORD PTR [esi+6596]
  001aa	89 9e bc 19 00
	00		 mov	 DWORD PTR [esi+6588], ebx
  001b0	89 9e c0 19 00
	00		 mov	 DWORD PTR [esi+6592], ebx
  001b6	88 5d f3	 mov	 BYTE PTR _value$617371[ebp], bl
  001b9	e8 00 00 00 00	 call	 ?EncryptValueToPool@?$CEncrypt@_N@@AAEXPBD@Z ; CEncrypt<bool>::EncryptValueToPool

; 28   : 	m_bSetDownKey = false;

  001be	8d 45 f3	 lea	 eax, DWORD PTR _value$617375[ebp]
  001c1	50		 push	 eax
  001c2	8d 8e f4 19 00
	00		 lea	 ecx, DWORD PTR [esi+6644]
  001c8	88 5d f3	 mov	 BYTE PTR _value$617375[ebp], bl
  001cb	e8 00 00 00 00	 call	 ?EncryptValueToPool@?$CEncrypt@_N@@AAEXPBD@Z ; CEncrypt<bool>::EncryptValueToPool

; 29   : 
; 30   : 	m_CurFly.Init();

  001d0	0f 57 c0	 xorps	 xmm0, xmm0

; 31   : 	m_fCurGauge = 0.0f;

  001d3	8d 45 ec	 lea	 eax, DWORD PTR _value$617383[ebp]
  001d6	50		 push	 eax
  001d7	8d 8e 24 1b 00
	00		 lea	 ecx, DWORD PTR [esi+6948]
  001dd	f3 0f 11 86 6c
	1a 00 00	 movss	 DWORD PTR [esi+6764], xmm0
  001e5	f3 0f 11 86 70
	1a 00 00	 movss	 DWORD PTR [esi+6768], xmm0
  001ed	89 9e 74 1a 00
	00		 mov	 DWORD PTR [esi+6772], ebx
  001f3	89 9e 78 1a 00
	00		 mov	 DWORD PTR [esi+6776], ebx
  001f9	f3 0f 11 86 7c
	1a 00 00	 movss	 DWORD PTR [esi+6780], xmm0
  00201	f3 0f 11 86 80
	1a 00 00	 movss	 DWORD PTR [esi+6784], xmm0
  00209	f3 0f 11 45 ec	 movss	 DWORD PTR _value$617383[ebp], xmm0
  0020e	e8 00 00 00 00	 call	 ?EncryptValueToPool@?$CEncrypt@M@@AAEXPBD@Z ; CEncrypt<float>::EncryptValueToPool

; 32   : 
; 33   : 	m_dwFlyStartTime = 0;
; 34   : 	m_dwFlyAttackEndTime = 0;
; 35   : 	m_dwFlyAttackMoveStartTime = 0;
; 36   : 	m_dwFlyAttackMoveEndTime = 0;
; 37   : 
; 38   : 	m_FlyState = LFS_NONE;
; 39   : 
; 40   : 	m_dwMapEffectID = -1;

  00213	83 8e 64 1b 00
	00 ff		 or	 DWORD PTR [esi+7012], -1
  0021a	89 9e 74 19 00
	00		 mov	 DWORD PTR [esi+6516], ebx
  00220	89 9e 84 19 00
	00		 mov	 DWORD PTR [esi+6532], ebx
  00226	89 9e 7c 19 00
	00		 mov	 DWORD PTR [esi+6524], ebx
  0022c	89 9e 80 19 00
	00		 mov	 DWORD PTR [esi+6528], ebx
  00232	89 9e 68 19 00
	00		 mov	 DWORD PTR [esi+6504], ebx

; 41   : }

  00238	8b c6		 mov	 eax, esi
  0023a	e8 00 00 00 00	 call	 __EH_epilog3
  0023f	c3		 ret	 0
_TEXT	ENDS
;	COMDAT text$x
text$x	SEGMENT
__unwindfunclet$??0ioDraculaItem@@QAE@XZ$0:
  00000	8b 4d e8	 mov	 ecx, DWORD PTR _this$[ebp]
  00003	e9 00 00 00 00	 jmp	 ??1ioWeaponItem@@UAE@XZ	; ioWeaponItem::~ioWeaponItem
__unwindfunclet$??0ioDraculaItem@@QAE@XZ$1:
  00008	8b 4d e8	 mov	 ecx, DWORD PTR _this$[ebp]
  0000b	81 c1 54 19 00
	00		 add	 ecx, 6484		; 00001954H
  00011	e9 00 00 00 00	 jmp	 ??1?$vector@VioHashString@@V?$allocator@VioHashString@@@std@@@std@@QAE@XZ ; std::vector<ioHashString,std::allocator<ioHashString> >::~vector<ioHashString,std::allocator<ioHashString> >
__unwindfunclet$??0ioDraculaItem@@QAE@XZ$2:
  00016	8b 4d e8	 mov	 ecx, DWORD PTR _this$[ebp]
  00019	81 c1 8c 19 00
	00		 add	 ecx, 6540		; 0000198cH
  0001f	e9 00 00 00 00	 jmp	 ??1?$CEncrypt@M@@UAE@XZ	; CEncrypt<float>::~CEncrypt<float>
__unwindfunclet$??0ioDraculaItem@@QAE@XZ$3:
  00024	8b 4d e8	 mov	 ecx, DWORD PTR _this$[ebp]
  00027	81 c1 c4 19 00
	00		 add	 ecx, 6596		; 000019c4H
  0002d	e9 00 00 00 00	 jmp	 ??1?$CEncrypt@_N@@UAE@XZ ; CEncrypt<bool>::~CEncrypt<bool>
__unwindfunclet$??0ioDraculaItem@@QAE@XZ$4:
  00032	8b 4d e8	 mov	 ecx, DWORD PTR _this$[ebp]
  00035	81 c1 f4 19 00
	00		 add	 ecx, 6644		; 000019f4H
  0003b	e9 00 00 00 00	 jmp	 ??1?$CEncrypt@_N@@UAE@XZ ; CEncrypt<bool>::~CEncrypt<bool>
__unwindfunclet$??0ioDraculaItem@@QAE@XZ$5:
  00040	8b 4d e8	 mov	 ecx, DWORD PTR _this$[ebp]
  00043	81 c1 24 1a 00
	00		 add	 ecx, 6692		; 00001a24H
  00049	ff 25 00 00 00
	00		 jmp	 DWORD PTR __imp_??1ioHashString@@QAE@XZ
__unwindfunclet$??0ioDraculaItem@@QAE@XZ$6:
  0004f	8b 4d e8	 mov	 ecx, DWORD PTR _this$[ebp]
  00052	81 c1 34 1a 00
	00		 add	 ecx, 6708		; 00001a34H
  00058	ff 25 00 00 00
	00		 jmp	 DWORD PTR __imp_??1ioHashString@@QAE@XZ
__unwindfunclet$??0ioDraculaItem@@QAE@XZ$7:
  0005e	8b 4d e8	 mov	 ecx, DWORD PTR _this$[ebp]
  00061	81 c1 44 1a 00
	00		 add	 ecx, 6724		; 00001a44H
  00067	e9 00 00 00 00	 jmp	 ??1tagDraculaFlyInfo@@QAE@XZ
__unwindfunclet$??0ioDraculaItem@@QAE@XZ$8:
  0006c	8b 4d e8	 mov	 ecx, DWORD PTR _this$[ebp]
  0006f	81 c1 6c 1a 00
	00		 add	 ecx, 6764		; 00001a6cH
  00075	e9 00 00 00 00	 jmp	 ??1tagDraculaFlyInfo@@QAE@XZ
__unwindfunclet$??0ioDraculaItem@@QAE@XZ$9:
  0007a	8b 4d e8	 mov	 ecx, DWORD PTR _this$[ebp]
  0007d	81 c1 94 1a 00
	00		 add	 ecx, 6804		; 00001a94H
  00083	e9 00 00 00 00	 jmp	 ??1?$CEncrypt@M@@UAE@XZ	; CEncrypt<float>::~CEncrypt<float>
__unwindfunclet$??0ioDraculaItem@@QAE@XZ$10:
  00088	8b 4d e8	 mov	 ecx, DWORD PTR _this$[ebp]
  0008b	81 c1 c4 1a 00
	00		 add	 ecx, 6852		; 00001ac4H
  00091	e9 00 00 00 00	 jmp	 ??1?$CEncrypt@M@@UAE@XZ	; CEncrypt<float>::~CEncrypt<float>
__unwindfunclet$??0ioDraculaItem@@QAE@XZ$11:
  00096	8b 4d e8	 mov	 ecx, DWORD PTR _this$[ebp]
  00099	81 c1 f4 1a 00
	00		 add	 ecx, 6900		; 00001af4H
  0009f	e9 00 00 00 00	 jmp	 ??1?$CEncrypt@M@@UAE@XZ	; CEncrypt<float>::~CEncrypt<float>
__unwindfunclet$??0ioDraculaItem@@QAE@XZ$12:
  000a4	8b 4d e8	 mov	 ecx, DWORD PTR _this$[ebp]
  000a7	81 c1 24 1b 00
	00		 add	 ecx, 6948		; 00001b24H
  000ad	e9 00 00 00 00	 jmp	 ??1?$CEncrypt@M@@UAE@XZ	; CEncrypt<float>::~CEncrypt<float>
__unwindfunclet$??0ioDraculaItem@@QAE@XZ$13:
  000b2	8b 4d e8	 mov	 ecx, DWORD PTR _this$[ebp]
  000b5	81 c1 68 1b 00
	00		 add	 ecx, 7016		; 00001b68H
  000bb	ff 25 00 00 00
	00		 jmp	 DWORD PTR __imp_??1ioHashString@@QAE@XZ
__ehhandler$??0ioDraculaItem@@QAE@XZ:
  000c1	8b 54 24 08	 mov	 edx, DWORD PTR [esp+8]
  000c5	8d 42 0c	 lea	 eax, DWORD PTR [edx+12]
  000c8	8b 4a e4	 mov	 ecx, DWORD PTR [edx-28]
  000cb	33 c8		 xor	 ecx, eax
  000cd	e8 00 00 00 00	 call	 @__security_check_cookie@4
  000d2	b8 00 00 00 00	 mov	 eax, OFFSET __ehfuncinfo$??0ioDraculaItem@@QAE@XZ
  000d7	e9 00 00 00 00	 jmp	 ___CxxFrameHandler3
text$x	ENDS
??0ioDraculaItem@@QAE@XZ ENDP				; ioDraculaItem::ioDraculaItem
; Function compile flags: /Ogsp
;	COMDAT ??_GioDraculaItem@@UAEPAXI@Z
_TEXT	SEGMENT
___flags$ = 8						; size = 4
??_GioDraculaItem@@UAEPAXI@Z PROC			; ioDraculaItem::`scalar deleting destructor', COMDAT
; _this$ = ecx
  00000	55		 push	 ebp
  00001	8b ec		 mov	 ebp, esp
  00003	56		 push	 esi
  00004	8b f1		 mov	 esi, ecx
  00006	e8 00 00 00 00	 call	 ??1ioDraculaItem@@UAE@XZ ; ioDraculaItem::~ioDraculaItem
  0000b	f6 45 08 01	 test	 BYTE PTR ___flags$[ebp], 1
  0000f	74 07		 je	 SHORT $LN1@scalar@6
  00011	56		 push	 esi
  00012	e8 00 00 00 00	 call	 ??3@YAXPAX@Z		; operator delete
  00017	59		 pop	 ecx
$LN1@scalar@6:
  00018	8b c6		 mov	 eax, esi
  0001a	5e		 pop	 esi
  0001b	5d		 pop	 ebp
  0001c	c2 04 00	 ret	 4
??_GioDraculaItem@@UAEPAXI@Z ENDP			; ioDraculaItem::`scalar deleting destructor'
_TEXT	ENDS
PUBLIC	??0ioDraculaItem@@QAE@ABV0@@Z			; ioDraculaItem::ioDraculaItem
EXTRN	??0ioWeaponItem@@QAE@ABV0@@Z:PROC		; ioWeaponItem::ioWeaponItem
;	COMDAT xdata$x
; File d:\lost saga for developer\youtube\tutorial\source\src\lsclient\encryptvalue.h
xdata$x	SEGMENT
__ehfuncinfo$??0ioDraculaItem@@QAE@ABV0@@Z DD 019930522H
	DD	0eH
	DD	FLAT:__unwindtable$??0ioDraculaItem@@QAE@ABV0@@Z
	DD	2 DUP(00H)
	DD	2 DUP(00H)
	DD	00H
	DD	01H
__unwindtable$??0ioDraculaItem@@QAE@ABV0@@Z DD 0ffffffffH
	DD	FLAT:__unwindfunclet$??0ioDraculaItem@@QAE@ABV0@@Z$0
	DD	00H
	DD	FLAT:__unwindfunclet$??0ioDraculaItem@@QAE@ABV0@@Z$1
	DD	01H
	DD	FLAT:__unwindfunclet$??0ioDraculaItem@@QAE@ABV0@@Z$2
	DD	02H
	DD	FLAT:__unwindfunclet$??0ioDraculaItem@@QAE@ABV0@@Z$3
	DD	03H
	DD	FLAT:__unwindfunclet$??0ioDraculaItem@@QAE@ABV0@@Z$4
	DD	04H
	DD	FLAT:__unwindfunclet$??0ioDraculaItem@@QAE@ABV0@@Z$5
	DD	05H
	DD	FLAT:__unwindfunclet$??0ioDraculaItem@@QAE@ABV0@@Z$6
	DD	06H
	DD	FLAT:__unwindfunclet$??0ioDraculaItem@@QAE@ABV0@@Z$7
	DD	07H
	DD	FLAT:__unwindfunclet$??0ioDraculaItem@@QAE@ABV0@@Z$8
	DD	08H
	DD	FLAT:__unwindfunclet$??0ioDraculaItem@@QAE@ABV0@@Z$9
	DD	09H
	DD	FLAT:__unwindfunclet$??0ioDraculaItem@@QAE@ABV0@@Z$10
	DD	0aH
	DD	FLAT:__unwindfunclet$??0ioDraculaItem@@QAE@ABV0@@Z$11
	DD	0bH
	DD	FLAT:__unwindfunclet$??0ioDraculaItem@@QAE@ABV0@@Z$12
	DD	0cH
	DD	FLAT:__unwindfunclet$??0ioDraculaItem@@QAE@ABV0@@Z$13
; Function compile flags: /Ogsp
; File d:\lost saga for developer\youtube\tutorial\source\src\lsclient\iodraculaitem.cpp
xdata$x	ENDS
;	COMDAT ??0ioDraculaItem@@QAE@ABV0@@Z
_TEXT	SEGMENT
_this$ = -16						; size = 4
__$EHRec$ = -12						; size = 12
_value$617479 = 8					; size = 4
_value$617462 = 8					; size = 4
_value$617458 = 8					; size = 4
_value$617454 = 8					; size = 4
_rhs$ = 8						; size = 4
_value$617470 = 11					; size = 1
_value$617466 = 11					; size = 1
??0ioDraculaItem@@QAE@ABV0@@Z PROC			; ioDraculaItem::ioDraculaItem, COMDAT
; _this$ = ecx

; 54   : {

  00000	6a 04		 push	 4
  00002	b8 00 00 00 00	 mov	 eax, __ehhandler$??0ioDraculaItem@@QAE@ABV0@@Z
  00007	e8 00 00 00 00	 call	 __EH_prolog3
  0000c	8b f1		 mov	 esi, ecx
  0000e	89 75 f0	 mov	 DWORD PTR _this$[ebp], esi
  00011	8b 7d 08	 mov	 edi, DWORD PTR _rhs$[ebp]
  00014	57		 push	 edi
  00015	e8 00 00 00 00	 call	 ??0ioWeaponItem@@QAE@ABV0@@Z ; ioWeaponItem::ioWeaponItem
  0001a	8d 87 54 19 00
	00		 lea	 eax, DWORD PTR [edi+6484]
  00020	33 db		 xor	 ebx, ebx
  00022	50		 push	 eax
  00023	8d 8e 54 19 00
	00		 lea	 ecx, DWORD PTR [esi+6484]
  00029	89 5d fc	 mov	 DWORD PTR __$EHRec$[ebp+8], ebx
  0002c	c7 06 00 00 00
	00		 mov	 DWORD PTR [esi], OFFSET ??_7ioDraculaItem@@6B@
  00032	e8 00 00 00 00	 call	 ??0?$vector@VioHashString@@V?$allocator@VioHashString@@@std@@@std@@QAE@ABV01@@Z ; std::vector<ioHashString,std::allocator<ioHashString> >::vector<ioHashString,std::allocator<ioHashString> >
  00037	8d 8e 8c 19 00
	00		 lea	 ecx, DWORD PTR [esi+6540]
  0003d	c6 45 fc 01	 mov	 BYTE PTR __$EHRec$[ebp+8], 1
  00041	e8 00 00 00 00	 call	 ??0?$CEncrypt@M@@QAE@XZ	; CEncrypt<float>::CEncrypt<float>
  00046	8d 8e c4 19 00
	00		 lea	 ecx, DWORD PTR [esi+6596]
  0004c	c6 45 fc 02	 mov	 BYTE PTR __$EHRec$[ebp+8], 2
  00050	e8 00 00 00 00	 call	 ??0?$CEncrypt@_N@@QAE@XZ ; CEncrypt<bool>::CEncrypt<bool>
  00055	8d 8e f4 19 00
	00		 lea	 ecx, DWORD PTR [esi+6644]
  0005b	c6 45 fc 03	 mov	 BYTE PTR __$EHRec$[ebp+8], 3
  0005f	e8 00 00 00 00	 call	 ??0?$CEncrypt@_N@@QAE@XZ ; CEncrypt<bool>::CEncrypt<bool>
  00064	8d 8e 24 1a 00
	00		 lea	 ecx, DWORD PTR [esi+6692]
  0006a	c6 45 fc 04	 mov	 BYTE PTR __$EHRec$[ebp+8], 4
  0006e	ff 15 00 00 00
	00		 call	 DWORD PTR __imp_??0ioHashString@@QAE@XZ
  00074	8d 8e 34 1a 00
	00		 lea	 ecx, DWORD PTR [esi+6708]
  0007a	c6 45 fc 05	 mov	 BYTE PTR __$EHRec$[ebp+8], 5
  0007e	ff 15 00 00 00
	00		 call	 DWORD PTR __imp_??0ioHashString@@QAE@XZ
  00084	8d 87 44 1a 00
	00		 lea	 eax, DWORD PTR [edi+6724]
  0008a	50		 push	 eax
  0008b	8d 8e 44 1a 00
	00		 lea	 ecx, DWORD PTR [esi+6724]
  00091	c6 45 fc 06	 mov	 BYTE PTR __$EHRec$[ebp+8], 6
  00095	e8 00 00 00 00	 call	 ??0tagDraculaFlyInfo@@QAE@ABU0@@Z
  0009a	0f 57 c0	 xorps	 xmm0, xmm0
  0009d	89 9e 84 1a 00
	00		 mov	 DWORD PTR [esi+6788], ebx
  000a3	89 9e 88 1a 00
	00		 mov	 DWORD PTR [esi+6792], ebx
  000a9	89 9e 8c 1a 00
	00		 mov	 DWORD PTR [esi+6796], ebx
  000af	f3 0f 11 86 6c
	1a 00 00	 movss	 DWORD PTR [esi+6764], xmm0
  000b7	f3 0f 11 86 70
	1a 00 00	 movss	 DWORD PTR [esi+6768], xmm0
  000bf	89 9e 74 1a 00
	00		 mov	 DWORD PTR [esi+6772], ebx
  000c5	89 9e 78 1a 00
	00		 mov	 DWORD PTR [esi+6776], ebx
  000cb	f3 0f 11 86 7c
	1a 00 00	 movss	 DWORD PTR [esi+6780], xmm0
  000d3	f3 0f 11 86 80
	1a 00 00	 movss	 DWORD PTR [esi+6784], xmm0
  000db	8d 87 94 1a 00
	00		 lea	 eax, DWORD PTR [edi+6804]
  000e1	50		 push	 eax
  000e2	8d 8e 94 1a 00
	00		 lea	 ecx, DWORD PTR [esi+6804]
  000e8	c6 45 fc 08	 mov	 BYTE PTR __$EHRec$[ebp+8], 8
  000ec	e8 00 00 00 00	 call	 ??0?$CEncrypt@M@@QAE@ABV0@@Z ; CEncrypt<float>::CEncrypt<float>
  000f1	8d 87 c4 1a 00
	00		 lea	 eax, DWORD PTR [edi+6852]
  000f7	50		 push	 eax
  000f8	8d 8e c4 1a 00
	00		 lea	 ecx, DWORD PTR [esi+6852]
  000fe	c6 45 fc 09	 mov	 BYTE PTR __$EHRec$[ebp+8], 9
  00102	e8 00 00 00 00	 call	 ??0?$CEncrypt@M@@QAE@ABV0@@Z ; CEncrypt<float>::CEncrypt<float>
  00107	8d 87 f4 1a 00
	00		 lea	 eax, DWORD PTR [edi+6900]
  0010d	50		 push	 eax
  0010e	8d 8e f4 1a 00
	00		 lea	 ecx, DWORD PTR [esi+6900]
  00114	c6 45 fc 0a	 mov	 BYTE PTR __$EHRec$[ebp+8], 10 ; 0000000aH
  00118	e8 00 00 00 00	 call	 ??0?$CEncrypt@M@@QAE@ABV0@@Z ; CEncrypt<float>::CEncrypt<float>
  0011d	8d 8e 24 1b 00
	00		 lea	 ecx, DWORD PTR [esi+6948]
  00123	c6 45 fc 0b	 mov	 BYTE PTR __$EHRec$[ebp+8], 11 ; 0000000bH
  00127	e8 00 00 00 00	 call	 ??0?$CEncrypt@M@@QAE@XZ	; CEncrypt<float>::CEncrypt<float>
  0012c	d9 87 54 1b 00
	00		 fld	 DWORD PTR [edi+6996]
  00132	d9 9e 54 1b 00
	00		 fstp	 DWORD PTR [esi+6996]
  00138	81 c7 68 1b 00
	00		 add	 edi, 7016		; 00001b68H
  0013e	d9 47 f0	 fld	 DWORD PTR [edi-16]
  00141	c6 45 fc 0c	 mov	 BYTE PTR __$EHRec$[ebp+8], 12 ; 0000000cH
  00145	d9 9e 58 1b 00
	00		 fstp	 DWORD PTR [esi+7000]
  0014b	8b 47 f4	 mov	 eax, DWORD PTR [edi-12]
  0014e	89 86 5c 1b 00
	00		 mov	 DWORD PTR [esi+7004], eax
  00154	57		 push	 edi
  00155	8d 8e 68 1b 00
	00		 lea	 ecx, DWORD PTR [esi+7016]
  0015b	ff 15 00 00 00
	00		 call	 DWORD PTR __imp_??0ioHashString@@QAE@ABV0@@Z

; 55   : 	m_ChargeState = CS_NONE;
; 56   : 
; 57   : 	m_dwAttackStartTime = 0;
; 58   : 	m_iCurCombo = 0;
; 59   : 
; 60   : 	m_fCurChargeRate = 0.0f;

  00161	0f 57 c0	 xorps	 xmm0, xmm0
  00164	8d 45 08	 lea	 eax, DWORD PTR _value$617454[ebp]
  00167	50		 push	 eax
  00168	8d 8e 8c 0f 00
	00		 lea	 ecx, DWORD PTR [esi+3980]
  0016e	c6 45 fc 0d	 mov	 BYTE PTR __$EHRec$[ebp+8], 13 ; 0000000dH
  00172	89 9e 64 19 00
	00		 mov	 DWORD PTR [esi+6500], ebx
  00178	89 9e 6c 19 00
	00		 mov	 DWORD PTR [esi+6508], ebx
  0017e	89 9e 70 19 00
	00		 mov	 DWORD PTR [esi+6512], ebx
  00184	f3 0f 11 45 08	 movss	 DWORD PTR _value$617454[ebp], xmm0
  00189	e8 00 00 00 00	 call	 ?EncryptValueToPool@?$CEncrypt@M@@AAEXPBD@Z ; CEncrypt<float>::EncryptValueToPool

; 61   : 	m_fCurChargeRateForSkill = 0.0f;

  0018e	0f 57 c0	 xorps	 xmm0, xmm0
  00191	8d 45 08	 lea	 eax, DWORD PTR _value$617458[ebp]
  00194	50		 push	 eax
  00195	8d 8e bc 0f 00
	00		 lea	 ecx, DWORD PTR [esi+4028]
  0019b	f3 0f 11 45 08	 movss	 DWORD PTR _value$617458[ebp], xmm0
  001a0	e8 00 00 00 00	 call	 ?EncryptValueToPool@?$CEncrypt@M@@AAEXPBD@Z ; CEncrypt<float>::EncryptValueToPool

; 62   : 
; 63   : 	m_fFlyCurRange = 0.0f;

  001a5	0f 57 c0	 xorps	 xmm0, xmm0
  001a8	8d 45 08	 lea	 eax, DWORD PTR _value$617462[ebp]
  001ab	50		 push	 eax
  001ac	8d 8e 8c 19 00
	00		 lea	 ecx, DWORD PTR [esi+6540]
  001b2	f3 0f 11 45 08	 movss	 DWORD PTR _value$617462[ebp], xmm0
  001b7	e8 00 00 00 00	 call	 ?EncryptValueToPool@?$CEncrypt@M@@AAEXPBD@Z ; CEncrypt<float>::EncryptValueToPool

; 64   : 
; 65   : 	m_CurDirKey = ioUserKeyInput::DKI_NONE;
; 66   : 	m_PreDirKey = ioUserKeyInput::DKI_NONE;
; 67   : 
; 68   : 	m_bSetUpKey = false;

  001bc	8d 45 0b	 lea	 eax, DWORD PTR _value$617466[ebp]
  001bf	50		 push	 eax
  001c0	8d 8e c4 19 00
	00		 lea	 ecx, DWORD PTR [esi+6596]
  001c6	89 9e bc 19 00
	00		 mov	 DWORD PTR [esi+6588], ebx
  001cc	89 9e c0 19 00
	00		 mov	 DWORD PTR [esi+6592], ebx
  001d2	88 5d 0b	 mov	 BYTE PTR _value$617466[ebp], bl
  001d5	e8 00 00 00 00	 call	 ?EncryptValueToPool@?$CEncrypt@_N@@AAEXPBD@Z ; CEncrypt<bool>::EncryptValueToPool

; 69   : 	m_bSetDownKey = false;

  001da	8d 45 0b	 lea	 eax, DWORD PTR _value$617470[ebp]
  001dd	50		 push	 eax
  001de	8d 8e f4 19 00
	00		 lea	 ecx, DWORD PTR [esi+6644]
  001e4	88 5d 0b	 mov	 BYTE PTR _value$617470[ebp], bl
  001e7	e8 00 00 00 00	 call	 ?EncryptValueToPool@?$CEncrypt@_N@@AAEXPBD@Z ; CEncrypt<bool>::EncryptValueToPool

; 70   : 
; 71   : 	m_CurFly.Init();

  001ec	0f 57 c0	 xorps	 xmm0, xmm0

; 72   : 	m_fCurGauge = 0.0f;

  001ef	8d 45 08	 lea	 eax, DWORD PTR _value$617479[ebp]
  001f2	50		 push	 eax
  001f3	8d 8e 24 1b 00
	00		 lea	 ecx, DWORD PTR [esi+6948]
  001f9	f3 0f 11 86 6c
	1a 00 00	 movss	 DWORD PTR [esi+6764], xmm0
  00201	f3 0f 11 86 70
	1a 00 00	 movss	 DWORD PTR [esi+6768], xmm0
  00209	89 9e 74 1a 00
	00		 mov	 DWORD PTR [esi+6772], ebx
  0020f	89 9e 78 1a 00
	00		 mov	 DWORD PTR [esi+6776], ebx
  00215	f3 0f 11 86 7c
	1a 00 00	 movss	 DWORD PTR [esi+6780], xmm0
  0021d	f3 0f 11 86 80
	1a 00 00	 movss	 DWORD PTR [esi+6784], xmm0
  00225	f3 0f 11 45 08	 movss	 DWORD PTR _value$617479[ebp], xmm0
  0022a	e8 00 00 00 00	 call	 ?EncryptValueToPool@?$CEncrypt@M@@AAEXPBD@Z ; CEncrypt<float>::EncryptValueToPool

; 73   : 
; 74   : 	m_dwFlyStartTime = 0;
; 75   : 	m_dwFlyAttackEndTime = 0;
; 76   : 	m_dwFlyAttackMoveStartTime = 0;
; 77   : 	m_dwFlyAttackMoveEndTime = 0;
; 78   : 
; 79   : 	m_dwSpecialStartTime = 0;
; 80   : 
; 81   : 	m_FlyState = LFS_NONE;
; 82   : 
; 83   : 	m_dwMapEffectID = -1;

  0022f	83 8e 64 1b 00
	00 ff		 or	 DWORD PTR [esi+7012], -1
  00236	89 9e 74 19 00
	00		 mov	 DWORD PTR [esi+6516], ebx
  0023c	89 9e 84 19 00
	00		 mov	 DWORD PTR [esi+6532], ebx
  00242	89 9e 7c 19 00
	00		 mov	 DWORD PTR [esi+6524], ebx
  00248	89 9e 80 19 00
	00		 mov	 DWORD PTR [esi+6528], ebx
  0024e	89 9e 60 1b 00
	00		 mov	 DWORD PTR [esi+7008], ebx
  00254	89 9e 68 19 00
	00		 mov	 DWORD PTR [esi+6504], ebx

; 84   : }

  0025a	8b c6		 mov	 eax, esi
  0025c	e8 00 00 00 00	 call	 __EH_epilog3
  00261	c2 04 00	 ret	 4
_TEXT	ENDS
;	COMDAT text$x
text$x	SEGMENT
__unwindfunclet$??0ioDraculaItem@@QAE@ABV0@@Z$0:
  00000	8b 4d f0	 mov	 ecx, DWORD PTR _this$[ebp]
  00003	e9 00 00 00 00	 jmp	 ??1ioWeaponItem@@UAE@XZ	; ioWeaponItem::~ioWeaponItem
__unwindfunclet$??0ioDraculaItem@@QAE@ABV0@@Z$1:
  00008	8b 4d f0	 mov	 ecx, DWORD PTR _this$[ebp]
  0000b	81 c1 54 19 00
	00		 add	 ecx, 6484		; 00001954H
  00011	e9 00 00 00 00	 jmp	 ??1?$vector@VioHashString@@V?$allocator@VioHashString@@@std@@@std@@QAE@XZ ; std::vector<ioHashString,std::allocator<ioHashString> >::~vector<ioHashString,std::allocator<ioHashString> >
__unwindfunclet$??0ioDraculaItem@@QAE@ABV0@@Z$2:
  00016	8b 4d f0	 mov	 ecx, DWORD PTR _this$[ebp]
  00019	81 c1 8c 19 00
	00		 add	 ecx, 6540		; 0000198cH
  0001f	e9 00 00 00 00	 jmp	 ??1?$CEncrypt@M@@UAE@XZ	; CEncrypt<float>::~CEncrypt<float>
__unwindfunclet$??0ioDraculaItem@@QAE@ABV0@@Z$3:
  00024	8b 4d f0	 mov	 ecx, DWORD PTR _this$[ebp]
  00027	81 c1 c4 19 00
	00		 add	 ecx, 6596		; 000019c4H
  0002d	e9 00 00 00 00	 jmp	 ??1?$CEncrypt@_N@@UAE@XZ ; CEncrypt<bool>::~CEncrypt<bool>
__unwindfunclet$??0ioDraculaItem@@QAE@ABV0@@Z$4:
  00032	8b 4d f0	 mov	 ecx, DWORD PTR _this$[ebp]
  00035	81 c1 f4 19 00
	00		 add	 ecx, 6644		; 000019f4H
  0003b	e9 00 00 00 00	 jmp	 ??1?$CEncrypt@_N@@UAE@XZ ; CEncrypt<bool>::~CEncrypt<bool>
__unwindfunclet$??0ioDraculaItem@@QAE@ABV0@@Z$5:
  00040	8b 4d f0	 mov	 ecx, DWORD PTR _this$[ebp]
  00043	81 c1 24 1a 00
	00		 add	 ecx, 6692		; 00001a24H
  00049	ff 25 00 00 00
	00		 jmp	 DWORD PTR __imp_??1ioHashString@@QAE@XZ
__unwindfunclet$??0ioDraculaItem@@QAE@ABV0@@Z$6:
  0004f	8b 4d f0	 mov	 ecx, DWORD PTR _this$[ebp]
  00052	81 c1 34 1a 00
	00		 add	 ecx, 6708		; 00001a34H
  00058	ff 25 00 00 00
	00		 jmp	 DWORD PTR __imp_??1ioHashString@@QAE@XZ
__unwindfunclet$??0ioDraculaItem@@QAE@ABV0@@Z$7:
  0005e	8b 4d f0	 mov	 ecx, DWORD PTR _this$[ebp]
  00061	81 c1 44 1a 00
	00		 add	 ecx, 6724		; 00001a44H
  00067	e9 00 00 00 00	 jmp	 ??1tagDraculaFlyInfo@@QAE@XZ
__unwindfunclet$??0ioDraculaItem@@QAE@ABV0@@Z$8:
  0006c	8b 4d f0	 mov	 ecx, DWORD PTR _this$[ebp]
  0006f	81 c1 6c 1a 00
	00		 add	 ecx, 6764		; 00001a6cH
  00075	e9 00 00 00 00	 jmp	 ??1tagDraculaFlyInfo@@QAE@XZ
__unwindfunclet$??0ioDraculaItem@@QAE@ABV0@@Z$9:
  0007a	8b 4d f0	 mov	 ecx, DWORD PTR _this$[ebp]
  0007d	81 c1 94 1a 00
	00		 add	 ecx, 6804		; 00001a94H
  00083	e9 00 00 00 00	 jmp	 ??1?$CEncrypt@M@@UAE@XZ	; CEncrypt<float>::~CEncrypt<float>
__unwindfunclet$??0ioDraculaItem@@QAE@ABV0@@Z$10:
  00088	8b 4d f0	 mov	 ecx, DWORD PTR _this$[ebp]
  0008b	81 c1 c4 1a 00
	00		 add	 ecx, 6852		; 00001ac4H
  00091	e9 00 00 00 00	 jmp	 ??1?$CEncrypt@M@@UAE@XZ	; CEncrypt<float>::~CEncrypt<float>
__unwindfunclet$??0ioDraculaItem@@QAE@ABV0@@Z$11:
  00096	8b 4d f0	 mov	 ecx, DWORD PTR _this$[ebp]
  00099	81 c1 f4 1a 00
	00		 add	 ecx, 6900		; 00001af4H
  0009f	e9 00 00 00 00	 jmp	 ??1?$CEncrypt@M@@UAE@XZ	; CEncrypt<float>::~CEncrypt<float>
__unwindfunclet$??0ioDraculaItem@@QAE@ABV0@@Z$12:
  000a4	8b 4d f0	 mov	 ecx, DWORD PTR _this$[ebp]
  000a7	81 c1 24 1b 00
	00		 add	 ecx, 6948		; 00001b24H
  000ad	e9 00 00 00 00	 jmp	 ??1?$CEncrypt@M@@UAE@XZ	; CEncrypt<float>::~CEncrypt<float>
__unwindfunclet$??0ioDraculaItem@@QAE@ABV0@@Z$13:
  000b2	8b 4d f0	 mov	 ecx, DWORD PTR _this$[ebp]
  000b5	81 c1 68 1b 00
	00		 add	 ecx, 7016		; 00001b68H
  000bb	ff 25 00 00 00
	00		 jmp	 DWORD PTR __imp_??1ioHashString@@QAE@XZ
__ehhandler$??0ioDraculaItem@@QAE@ABV0@@Z:
  000c1	8b 54 24 08	 mov	 edx, DWORD PTR [esp+8]
  000c5	8d 42 0c	 lea	 eax, DWORD PTR [edx+12]
  000c8	8b 4a ec	 mov	 ecx, DWORD PTR [edx-20]
  000cb	33 c8		 xor	 ecx, eax
  000cd	e8 00 00 00 00	 call	 @__security_check_cookie@4
  000d2	b8 00 00 00 00	 mov	 eax, OFFSET __ehfuncinfo$??0ioDraculaItem@@QAE@ABV0@@Z
  000d7	e9 00 00 00 00	 jmp	 ___CxxFrameHandler3
text$x	ENDS
??0ioDraculaItem@@QAE@ABV0@@Z ENDP			; ioDraculaItem::ioDraculaItem
PUBLIC	??_C@_00CNPNBAHC@?$AA@				; `string'
PUBLIC	_rkLoader$GSCopy$
PUBLIC	?LoadFlyInfo@ioDraculaItem@@IAEXAAVioINILoader@@@Z ; ioDraculaItem::LoadFlyInfo
EXTRN	__imp_??4ioHashString@@QAEAAV0@PBD@Z:PROC
EXTRN	__imp__wsprintfA:PROC
;	COMDAT ??_C@_00CNPNBAHC@?$AA@
; File d:\lost saga for developer\youtube\tutorial\source\src\lsclient\stringprotect.h
CONST	SEGMENT
??_C@_00CNPNBAHC@?$AA@ DB 00H				; `string'
CONST	ENDS
;	COMDAT xdata$x
xdata$x	SEGMENT
__unwindtable$?LoadFlyInfo@ioDraculaItem@@IAEXAAVioINILoader@@@Z DD 0ffffffffH
	DD	FLAT:__unwindfunclet$?LoadFlyInfo@ioDraculaItem@@IAEXAAVioINILoader@@@Z$0
__ehfuncinfo$?LoadFlyInfo@ioDraculaItem@@IAEXAAVioINILoader@@@Z DD 019930522H
	DD	01H
	DD	FLAT:__unwindtable$?LoadFlyInfo@ioDraculaItem@@IAEXAAVioINILoader@@@Z
	DD	2 DUP(00H)
	DD	2 DUP(00H)
	DD	00H
	DD	01H
; Function compile flags: /Ogsp
; File d:\lost saga for developer\youtube\tutorial\source\src\lsclient\iodraculaitem.cpp
xdata$x	ENDS
;	COMDAT ?LoadFlyInfo@ioDraculaItem@@IAEXAAVioINILoader@@@Z
_TEXT	SEGMENT
tv11033 = -616						; size = 4
$T618306 = -616						; size = 4
_nBuffCnt$ = -616					; size = 4
tv9113 = -612						; size = 4
_i$618451 = -612					; size = 4
_rkLoader$GSCopy$ = -608				; size = 4
_szKey$ = -604						; size = 260
_szBuf$ = -344						; size = 260
__k$618855 = -84					; size = 19
__k$618009 = -60					; size = 15
_szBuff$607875 = -60					; size = 16
__k$618743 = -40					; size = 17
__k$618584 = -40					; size = 18
__k$618339 = -40					; size = 17
__k$618147 = -40					; size = 17
__k$617897 = -40					; size = 17
__k$617772 = -40					; size = 19
__k$617647 = -40					; size = 20
__k$618618 = -36					; size = 15
__k$617522 = -36					; size = 16
___encStr$607726 = -36					; size = 15
__$EHRec$ = -12						; size = 12
_rkLoader$ = 8						; size = 4
?LoadFlyInfo@ioDraculaItem@@IAEXAAVioINILoader@@@Z PROC	; ioDraculaItem::LoadFlyInfo, COMDAT
; _this$ = ecx

; 114  : {

  00000	68 5c 02 00 00	 push	 604			; 0000025cH
  00005	b8 00 00 00 00	 mov	 eax, __ehhandler$?LoadFlyInfo@ioDraculaItem@@IAEXAAVioINILoader@@@Z
  0000a	e8 00 00 00 00	 call	 __EH_prolog3_GS

; 115  : 	char szBuf[MAX_PATH];
; 116  : 	char szKey[MAX_PATH];
; 117  : 	m_AttackFly.Init();

  0000f	0f 57 c0	 xorps	 xmm0, xmm0
  00012	8b f1		 mov	 esi, ecx
  00014	8b 4d 08	 mov	 ecx, DWORD PTR _rkLoader$[ebp]
  00017	33 db		 xor	 ebx, ebx

; 118  : 
; 119  : 	m_AttackFly.m_fStartAngle = rkLoader.LoadFloat_e( "fly_start_angle", 0.0f );

  00019	6a 03		 push	 3

; 130  : 	{
; 131  : 		wsprintf_e( szKey, "special_buff%d", k+1 );

  0001b	89 8d a0 fd ff
	ff		 mov	 DWORD PTR _rkLoader$GSCopy$[ebp], ecx
  00021	f3 0f 11 86 44
	1a 00 00	 movss	 DWORD PTR [esi+6724], xmm0
  00029	f3 0f 11 86 48
	1a 00 00	 movss	 DWORD PTR [esi+6728], xmm0
  00031	89 9e 4c 1a 00
	00		 mov	 DWORD PTR [esi+6732], ebx
  00037	89 9e 50 1a 00
	00		 mov	 DWORD PTR [esi+6736], ebx
  0003d	f3 0f 11 86 54
	1a 00 00	 movss	 DWORD PTR [esi+6740], xmm0
  00045	f3 0f 11 86 58
	1a 00 00	 movss	 DWORD PTR [esi+6744], xmm0
  0004d	c7 45 dc 8b 80
	92 b5		 mov	 DWORD PTR __k$617522[ebp], -1248690037 ; b592808bH
  00054	c7 45 e0 9e 98
	8a 98		 mov	 DWORD PTR __k$617522[ebp+4], -1735747426 ; 988a989eH
  0005b	c7 45 e4 99 b3
	8a 84		 mov	 DWORD PTR __k$617522[ebp+8], -2071284839 ; 848ab399H
  00062	8d 45 dc	 lea	 eax, DWORD PTR __k$617522[ebp]
  00065	c7 45 e8 8a 80
	8e 00		 mov	 DWORD PTR __k$617522[ebp+12], 9339018 ; 008e808aH
  0006c	5a		 pop	 edx
$LL211@LoadFlyInf:

; 118  : 
; 119  : 	m_AttackFly.m_fStartAngle = rkLoader.LoadFloat_e( "fly_start_angle", 0.0f );

  0006d	81 30 ed ec eb
	ea		 xor	 DWORD PTR [eax], -353637139 ; eaebecedH
  00073	83 c0 04	 add	 eax, 4
  00076	4a		 dec	 edx
  00077	75 f4		 jne	 SHORT $LL211@LoadFlyInf
  00079	6a 0c		 push	 12			; 0000000cH
  0007b	5f		 pop	 edi
$LL208@LoadFlyInf:
  0007c	8b c7		 mov	 eax, edi
  0007e	25 03 00 00 80	 and	 eax, -2147483645	; 80000003H
  00083	79 05		 jns	 SHORT $LN1353@LoadFlyInf
  00085	48		 dec	 eax
  00086	83 c8 fc	 or	 eax, -4			; fffffffcH
  00089	40		 inc	 eax
$LN1353@LoadFlyInf:
  0008a	b2 ed		 mov	 dl, -19			; ffffffedH
  0008c	2a d0		 sub	 dl, al
  0008e	30 54 3d dc	 xor	 BYTE PTR __k$617522[ebp+edi], dl
  00092	47		 inc	 edi
  00093	83 ff 0f	 cmp	 edi, 15			; 0000000fH
  00096	7c e4		 jl	 SHORT $LL208@LoadFlyInf
  00098	51		 push	 ecx
  00099	8d 45 dc	 lea	 eax, DWORD PTR __k$617522[ebp]
  0009c	f3 0f 11 04 24	 movss	 DWORD PTR [esp], xmm0
  000a1	50		 push	 eax
  000a2	ff 15 00 00 00
	00		 call	 DWORD PTR __imp_?LoadFloat@ioINILoader@@QAEMPBDM@Z
  000a8	d9 9e 44 1a 00
	00		 fstp	 DWORD PTR [esi+6724]
  000ae	6a 04		 push	 4

; 120  : 	m_AttackFly.m_fStartMaxRange = rkLoader.LoadFloat_e( "fly_start_max_range", 0.0f );

  000b0	c7 45 d8 8b 80
	92 b5		 mov	 DWORD PTR __k$617647[ebp], -1248690037 ; b592808bH
  000b7	c7 45 dc 9e 98
	8a 98		 mov	 DWORD PTR __k$617647[ebp+4], -1735747426 ; 988a989eH
  000be	c7 45 e0 99 b3
	86 8b		 mov	 DWORD PTR __k$617647[ebp+8], -1954106471 ; 8b86b399H
  000c5	c7 45 e4 95 b3
	99 8b		 mov	 DWORD PTR __k$617647[ebp+12], -1952861291 ; 8b99b395H
  000cc	8d 45 d8	 lea	 eax, DWORD PTR __k$617647[ebp]
  000cf	c7 45 e8 83 8b
	8e 00		 mov	 DWORD PTR __k$617647[ebp+16], 9341827 ; 008e8b83H
  000d6	59		 pop	 ecx
$LL317@LoadFlyInf:
  000d7	81 30 ed ec eb
	ea		 xor	 DWORD PTR [eax], -353637139 ; eaebecedH
  000dd	83 c0 04	 add	 eax, 4
  000e0	49		 dec	 ecx
  000e1	75 f4		 jne	 SHORT $LL317@LoadFlyInf
  000e3	6a 10		 push	 16			; 00000010H
  000e5	5f		 pop	 edi
$LL314@LoadFlyInf:
  000e6	8b c7		 mov	 eax, edi
  000e8	25 03 00 00 80	 and	 eax, -2147483645	; 80000003H
  000ed	79 05		 jns	 SHORT $LN1354@LoadFlyInf
  000ef	48		 dec	 eax
  000f0	83 c8 fc	 or	 eax, -4			; fffffffcH
  000f3	40		 inc	 eax
$LN1354@LoadFlyInf:
  000f4	b1 ed		 mov	 cl, -19			; ffffffedH
  000f6	2a c8		 sub	 cl, al
  000f8	30 4c 3d d8	 xor	 BYTE PTR __k$617647[ebp+edi], cl
  000fc	47		 inc	 edi
  000fd	83 ff 13	 cmp	 edi, 19			; 00000013H
  00100	7c e4		 jl	 SHORT $LL314@LoadFlyInf
  00102	0f 57 c0	 xorps	 xmm0, xmm0
  00105	51		 push	 ecx
  00106	8b 8d a0 fd ff
	ff		 mov	 ecx, DWORD PTR _rkLoader$GSCopy$[ebp]
  0010c	8d 45 d8	 lea	 eax, DWORD PTR __k$617647[ebp]
  0010f	f3 0f 11 04 24	 movss	 DWORD PTR [esp], xmm0
  00114	50		 push	 eax
  00115	ff 15 00 00 00
	00		 call	 DWORD PTR __imp_?LoadFloat@ioINILoader@@QAEMPBDM@Z
  0011b	d9 9e 48 1a 00
	00		 fstp	 DWORD PTR [esi+6728]
  00121	6a 04		 push	 4

; 121  : 	m_AttackFly.m_dwStartDuration = (DWORD)rkLoader.LoadInt_e( "fly_start_duration", 0 );

  00123	c7 45 d8 8b 80
	92 b5		 mov	 DWORD PTR __k$617772[ebp], -1248690037 ; b592808bH
  0012a	c7 45 dc 9e 98
	8a 98		 mov	 DWORD PTR __k$617772[ebp+4], -1735747426 ; 988a989eH
  00131	c7 45 e0 99 b3
	8f 9f		 mov	 DWORD PTR __k$617772[ebp+8], -1617972327 ; 9f8fb399H
  00138	c7 45 e4 9f 8d
	9f 83		 mov	 DWORD PTR __k$617772[ebp+12], -2086695521 ; 839f8d9fH
  0013f	66 c7 45 e8 82
	82		 mov	 WORD PTR __k$617772[ebp+16], 33410 ; 00008282H
  00145	8d 45 d8	 lea	 eax, DWORD PTR __k$617772[ebp]
  00148	88 5d ea	 mov	 BYTE PTR __k$617772[ebp+18], bl
  0014b	59		 pop	 ecx
$LL423@LoadFlyInf:
  0014c	81 30 ed ec eb
	ea		 xor	 DWORD PTR [eax], -353637139 ; eaebecedH
  00152	83 c0 04	 add	 eax, 4
  00155	49		 dec	 ecx
  00156	75 f4		 jne	 SHORT $LL423@LoadFlyInf
  00158	6a 10		 push	 16			; 00000010H
  0015a	5f		 pop	 edi
$LL420@LoadFlyInf:
  0015b	8b c7		 mov	 eax, edi
  0015d	25 03 00 00 80	 and	 eax, -2147483645	; 80000003H
  00162	79 05		 jns	 SHORT $LN1355@LoadFlyInf
  00164	48		 dec	 eax
  00165	83 c8 fc	 or	 eax, -4			; fffffffcH
  00168	40		 inc	 eax
$LN1355@LoadFlyInf:
  00169	b1 ed		 mov	 cl, -19			; ffffffedH
  0016b	2a c8		 sub	 cl, al
  0016d	30 4c 3d d8	 xor	 BYTE PTR __k$617772[ebp+edi], cl
  00171	47		 inc	 edi
  00172	83 ff 12	 cmp	 edi, 18			; 00000012H
  00175	7c e4		 jl	 SHORT $LL420@LoadFlyInf
  00177	8b 8d a0 fd ff
	ff		 mov	 ecx, DWORD PTR _rkLoader$GSCopy$[ebp]
  0017d	8b 3d 00 00 00
	00		 mov	 edi, DWORD PTR __imp_?LoadInt@ioINILoader@@QAEHPBDH@Z
  00183	53		 push	 ebx
  00184	8d 45 d8	 lea	 eax, DWORD PTR __k$617772[ebp]
  00187	50		 push	 eax
  00188	ff d7		 call	 edi
  0018a	6a 04		 push	 4
  0018c	89 86 4c 1a 00
	00		 mov	 DWORD PTR [esi+6732], eax

; 122  : 
; 123  : 	m_AttackFly.m_dwRotateTime = (DWORD)rkLoader.LoadInt_e( "fly_rotate_speed", 0 );

  00192	c7 45 d8 8b 80
	92 b5		 mov	 DWORD PTR __k$617897[ebp], -1248690037 ; b592808bH
  00199	c7 45 dc 9f 83
	9f 8b		 mov	 DWORD PTR __k$617897[ebp+4], -1952480353 ; 8b9f839fH
  001a0	c7 45 e0 99 89
	b4 99		 mov	 DWORD PTR __k$617897[ebp+8], -1716221543 ; 99b48999H
  001a7	c7 45 e4 9d 89
	8e 8e		 mov	 DWORD PTR __k$617897[ebp+12], -1903261283 ; 8e8e899dH
  001ae	8d 45 d8	 lea	 eax, DWORD PTR __k$617897[ebp]
  001b1	88 5d e8	 mov	 BYTE PTR __k$617897[ebp+16], bl
  001b4	59		 pop	 ecx
$LL529@LoadFlyInf:
  001b5	81 30 ed ec eb
	ea		 xor	 DWORD PTR [eax], -353637139 ; eaebecedH
  001bb	83 c0 04	 add	 eax, 4
  001be	49		 dec	 ecx
  001bf	75 f4		 jne	 SHORT $LL529@LoadFlyInf
  001c1	8b 8d a0 fd ff
	ff		 mov	 ecx, DWORD PTR _rkLoader$GSCopy$[ebp]
  001c7	53		 push	 ebx
  001c8	8d 45 d8	 lea	 eax, DWORD PTR __k$617897[ebp]
  001cb	50		 push	 eax
  001cc	ff d7		 call	 edi
  001ce	6a 03		 push	 3
  001d0	89 86 50 1a 00
	00		 mov	 DWORD PTR [esi+6736], eax

; 124  : 	m_AttackFly.m_fMoveSpeed = rkLoader.LoadFloat_e( "fly_move_speed", 0.0f );

  001d6	c7 45 c4 8b 80
	92 b5		 mov	 DWORD PTR __k$618009[ebp], -1248690037 ; b592808bH
  001dd	c7 45 c8 80 83
	9d 8f		 mov	 DWORD PTR __k$618009[ebp+4], -1885502592 ; 8f9d8380H
  001e4	c7 45 cc b2 9f
	9b 8f		 mov	 DWORD PTR __k$618009[ebp+8], -1885626446 ; 8f9b9fb2H
  001eb	66 c7 45 d0 88
	88		 mov	 WORD PTR __k$618009[ebp+12], 34952 ; 00008888H
  001f1	8d 45 c4	 lea	 eax, DWORD PTR __k$618009[ebp]
  001f4	88 5d d2	 mov	 BYTE PTR __k$618009[ebp+14], bl
  001f7	59		 pop	 ecx
$LL635@LoadFlyInf:
  001f8	81 30 ed ec eb
	ea		 xor	 DWORD PTR [eax], -353637139 ; eaebecedH
  001fe	83 c0 04	 add	 eax, 4
  00201	49		 dec	 ecx
  00202	75 f4		 jne	 SHORT $LL635@LoadFlyInf
  00204	6a 0c		 push	 12			; 0000000cH
  00206	5f		 pop	 edi
$LL632@LoadFlyInf:
  00207	8b c7		 mov	 eax, edi
  00209	25 03 00 00 80	 and	 eax, -2147483645	; 80000003H
  0020e	79 05		 jns	 SHORT $LN1356@LoadFlyInf
  00210	48		 dec	 eax
  00211	83 c8 fc	 or	 eax, -4			; fffffffcH
  00214	40		 inc	 eax
$LN1356@LoadFlyInf:
  00215	b1 ed		 mov	 cl, -19			; ffffffedH
  00217	2a c8		 sub	 cl, al
  00219	30 4c 3d c4	 xor	 BYTE PTR __k$618009[ebp+edi], cl
  0021d	47		 inc	 edi
  0021e	83 ff 0e	 cmp	 edi, 14			; 0000000eH
  00221	7c e4		 jl	 SHORT $LL632@LoadFlyInf
  00223	0f 57 c0	 xorps	 xmm0, xmm0
  00226	51		 push	 ecx
  00227	8b 8d a0 fd ff
	ff		 mov	 ecx, DWORD PTR _rkLoader$GSCopy$[ebp]
  0022d	8d 45 c4	 lea	 eax, DWORD PTR __k$618009[ebp]
  00230	f3 0f 11 04 24	 movss	 DWORD PTR [esp], xmm0
  00235	50		 push	 eax
  00236	ff 15 00 00 00
	00		 call	 DWORD PTR __imp_?LoadFloat@ioINILoader@@QAEMPBDM@Z
  0023c	d9 9e 54 1a 00
	00		 fstp	 DWORD PTR [esi+6740]
  00242	6a 04		 push	 4

; 125  : 	m_AttackFly.m_fUpDownSpeed = rkLoader.LoadFloat_e( "fly_updown_speed", 0.0f );

  00244	c7 45 d8 8b 80
	92 b5		 mov	 DWORD PTR __k$618147[ebp], -1248690037 ; b592808bH
  0024b	c7 45 dc 98 9c
	8f 85		 mov	 DWORD PTR __k$618147[ebp+4], -2054185832 ; 858f9c98H
  00252	c7 45 e0 9a 82
	b4 99		 mov	 DWORD PTR __k$618147[ebp+8], -1716223334 ; 99b4829aH
  00259	c7 45 e4 9d 89
	8e 8e		 mov	 DWORD PTR __k$618147[ebp+12], -1903261283 ; 8e8e899dH
  00260	8d 45 d8	 lea	 eax, DWORD PTR __k$618147[ebp]
  00263	88 5d e8	 mov	 BYTE PTR __k$618147[ebp+16], bl
  00266	59		 pop	 ecx
$LL741@LoadFlyInf:
  00267	81 30 ed ec eb
	ea		 xor	 DWORD PTR [eax], -353637139 ; eaebecedH
  0026d	83 c0 04	 add	 eax, 4
  00270	49		 dec	 ecx
  00271	75 f4		 jne	 SHORT $LL741@LoadFlyInf
  00273	0f 57 c0	 xorps	 xmm0, xmm0
  00276	51		 push	 ecx
  00277	8b 8d a0 fd ff
	ff		 mov	 ecx, DWORD PTR _rkLoader$GSCopy$[ebp]
  0027d	8d 45 d8	 lea	 eax, DWORD PTR __k$618147[ebp]
  00280	f3 0f 11 04 24	 movss	 DWORD PTR [esp], xmm0
  00285	50		 push	 eax
  00286	ff 15 00 00 00
	00		 call	 DWORD PTR __imp_?LoadFloat@ioINILoader@@QAEMPBDM@Z
  0028c	d9 9e 58 1a 00
	00		 fstp	 DWORD PTR [esi+6744]

; 126  : 	m_AttackFly.m_vBuffList.clear();

  00292	8b 86 60 1a 00
	00		 mov	 eax, DWORD PTR [esi+6752]
  00298	8b 8e 5c 1a 00
	00		 mov	 ecx, DWORD PTR [esi+6748]
  0029e	50		 push	 eax
  0029f	51		 push	 ecx
  002a0	8d 85 98 fd ff
	ff		 lea	 eax, DWORD PTR $T618306[ebp]
  002a6	50		 push	 eax
  002a7	8d 8e 5c 1a 00
	00		 lea	 ecx, DWORD PTR [esi+6748]
  002ad	e8 00 00 00 00	 call	 ?erase@?$vector@VioHashString@@V?$allocator@VioHashString@@@std@@@std@@QAE?AV?$_Vector_iterator@V?$_Vector_val@VioHashString@@V?$allocator@VioHashString@@@std@@@std@@@2@V?$_Vector_const_iterator@V?$_Vector_val@VioHashString@@V?$allocator@VioHashString@@@std@@@std@@@2@0@Z ; std::vector<ioHashString,std::allocator<ioHashString> >::erase
  002b2	6a 04		 push	 4

; 127  : 
; 128  : 	int nBuffCnt = rkLoader.LoadInt_e( "special_buff_cnt", 0 );

  002b4	c7 45 d8 9e 9c
	8e 89		 mov	 DWORD PTR __k$618339[ebp], -1987142498 ; 898e9c9eH
  002bb	c7 45 dc 84 8d
	87 b5		 mov	 DWORD PTR __k$618339[ebp+4], -1249407612 ; b5878d84H
  002c2	c7 45 e0 8f 99
	8d 8c		 mov	 DWORD PTR __k$618339[ebp+8], -1936877169 ; 8c8d998fH
  002c9	c7 45 e4 b2 8f
	85 9e		 mov	 DWORD PTR __k$618339[ebp+12], -1635414094 ; 9e858fb2H
  002d0	8d 45 d8	 lea	 eax, DWORD PTR __k$618339[ebp]
  002d3	88 5d e8	 mov	 BYTE PTR __k$618339[ebp+16], bl
  002d6	59		 pop	 ecx
$LL865@LoadFlyInf:
  002d7	81 30 ed ec eb
	ea		 xor	 DWORD PTR [eax], -353637139 ; eaebecedH
  002dd	83 c0 04	 add	 eax, 4
  002e0	49		 dec	 ecx
  002e1	75 f4		 jne	 SHORT $LL865@LoadFlyInf
  002e3	8b 8d a0 fd ff
	ff		 mov	 ecx, DWORD PTR _rkLoader$GSCopy$[ebp]
  002e9	53		 push	 ebx
  002ea	8d 45 d8	 lea	 eax, DWORD PTR __k$618339[ebp]
  002ed	50		 push	 eax
  002ee	ff 15 00 00 00
	00		 call	 DWORD PTR __imp_?LoadInt@ioINILoader@@QAEHPBDH@Z

; 129  : 	for( int k=0; k < nBuffCnt; ++k )

  002f4	33 c9		 xor	 ecx, ecx
  002f6	89 85 98 fd ff
	ff		 mov	 DWORD PTR _nBuffCnt$[ebp], eax
  002fc	3b c3		 cmp	 eax, ebx
  002fe	0f 8e ec 00 00
	00		 jle	 $LN100@LoadFlyInf
$LL102@LoadFlyInf:

; 127  : 
; 128  : 	int nBuffCnt = rkLoader.LoadInt_e( "special_buff_cnt", 0 );

  00304	6a 03		 push	 3

; 130  : 	{
; 131  : 		wsprintf_e( szKey, "special_buff%d", k+1 );

  00306	c7 45 dc 9e 9c
	8e 89		 mov	 DWORD PTR ___encStr$607726[ebp], -1987142498 ; 898e9c9eH
  0030d	c7 45 e0 84 8d
	87 b5		 mov	 DWORD PTR ___encStr$607726[ebp+4], -1249407612 ; b5878d84H
  00314	c7 45 e4 8f 99
	8d 8c		 mov	 DWORD PTR ___encStr$607726[ebp+8], -1936877169 ; 8c8d998fH
  0031b	66 c7 45 e8 c8
	88		 mov	 WORD PTR ___encStr$607726[ebp+12], 35016 ; 000088c8H
  00321	8d 45 dc	 lea	 eax, DWORD PTR ___encStr$607726[ebp]
  00324	88 5d ea	 mov	 BYTE PTR ___encStr$607726[ebp+14], bl
  00327	5a		 pop	 edx
$LL873@LoadFlyInf:
  00328	81 30 ed ec eb
	ea		 xor	 DWORD PTR [eax], -353637139 ; eaebecedH
  0032e	83 c0 04	 add	 eax, 4
  00331	4a		 dec	 edx
  00332	75 f4		 jne	 SHORT $LL873@LoadFlyInf
  00334	c7 85 9c fd ff
	ff 0c 00 00 00	 mov	 DWORD PTR _i$618451[ebp], 12 ; 0000000cH
$LL870@LoadFlyInf:
  0033e	8b 85 9c fd ff
	ff		 mov	 eax, DWORD PTR _i$618451[ebp]
  00344	25 03 00 00 80	 and	 eax, -2147483645	; 80000003H
  00349	79 05		 jns	 SHORT $LN1357@LoadFlyInf
  0034b	48		 dec	 eax
  0034c	83 c8 fc	 or	 eax, -4			; fffffffcH
  0034f	40		 inc	 eax
$LN1357@LoadFlyInf:
  00350	b2 ed		 mov	 dl, -19			; ffffffedH
  00352	2a d0		 sub	 dl, al
  00354	8b 85 9c fd ff
	ff		 mov	 eax, DWORD PTR _i$618451[ebp]
  0035a	30 54 05 dc	 xor	 BYTE PTR ___encStr$607726[ebp+eax], dl
  0035e	ff 85 9c fd ff
	ff		 inc	 DWORD PTR _i$618451[ebp]
  00364	83 bd 9c fd ff
	ff 0e		 cmp	 DWORD PTR _i$618451[ebp], 14 ; 0000000eH
  0036b	7c d1		 jl	 SHORT $LL870@LoadFlyInf
  0036d	8d 41 01	 lea	 eax, DWORD PTR [ecx+1]
  00370	50		 push	 eax
  00371	89 85 9c fd ff
	ff		 mov	 DWORD PTR tv9113[ebp], eax
  00377	8d 45 dc	 lea	 eax, DWORD PTR ___encStr$607726[ebp]
  0037a	50		 push	 eax
  0037b	8d 85 a4 fd ff
	ff		 lea	 eax, DWORD PTR _szKey$[ebp]
  00381	50		 push	 eax
  00382	ff 15 00 00 00
	00		 call	 DWORD PTR __imp__wsprintfA

; 132  : 		rkLoader.LoadString( szKey, "", szBuf, MAX_PATH );

  00388	8b 8d a0 fd ff
	ff		 mov	 ecx, DWORD PTR _rkLoader$GSCopy$[ebp]
  0038e	83 c4 0c	 add	 esp, 12			; 0000000cH
  00391	68 04 01 00 00	 push	 260			; 00000104H
  00396	8d 85 a8 fe ff
	ff		 lea	 eax, DWORD PTR _szBuf$[ebp]
  0039c	50		 push	 eax
  0039d	68 00 00 00 00	 push	 OFFSET ??_C@_00CNPNBAHC@?$AA@
  003a2	8d 85 a4 fd ff
	ff		 lea	 eax, DWORD PTR _szKey$[ebp]
  003a8	50		 push	 eax
  003a9	ff 15 00 00 00
	00		 call	 DWORD PTR __imp_?LoadStringA@ioINILoader@@QAEXPBD0PADH@Z

; 133  : 
; 134  : 		ioHashString szBuff = szBuf;

  003af	8d 85 a8 fe ff
	ff		 lea	 eax, DWORD PTR _szBuf$[ebp]
  003b5	50		 push	 eax
  003b6	8d 4d c4	 lea	 ecx, DWORD PTR _szBuff$607875[ebp]
  003b9	ff 15 00 00 00
	00		 call	 DWORD PTR __imp_??0ioHashString@@QAE@PBD@Z

; 135  : 		m_AttackFly.m_vBuffList.push_back( szBuff );

  003bf	8d 45 c4	 lea	 eax, DWORD PTR _szBuff$607875[ebp]
  003c2	50		 push	 eax
  003c3	8d 8e 5c 1a 00
	00		 lea	 ecx, DWORD PTR [esi+6748]
  003c9	89 5d fc	 mov	 DWORD PTR __$EHRec$[ebp+8], ebx
  003cc	e8 00 00 00 00	 call	 ?push_back@?$vector@VioHashString@@V?$allocator@VioHashString@@@std@@@std@@QAEXABVioHashString@@@Z ; std::vector<ioHashString,std::allocator<ioHashString> >::push_back

; 136  : 	}

  003d1	83 4d fc ff	 or	 DWORD PTR __$EHRec$[ebp+8], -1
  003d5	8d 4d c4	 lea	 ecx, DWORD PTR _szBuff$607875[ebp]
  003d8	ff 15 00 00 00
	00		 call	 DWORD PTR __imp_??1ioHashString@@QAE@XZ
  003de	8b 8d 9c fd ff
	ff		 mov	 ecx, DWORD PTR tv9113[ebp]
  003e4	3b 8d 98 fd ff
	ff		 cmp	 ecx, DWORD PTR _nBuffCnt$[ebp]
  003ea	0f 8c 14 ff ff
	ff		 jl	 $LL102@LoadFlyInf
$LN100@LoadFlyInf:

; 137  : 
; 138  : 	m_fCheckLandHeight = rkLoader.LoadFloat_e( "check_land_height", FLOAT10 );

  003f0	b8 0a 00 00 00	 mov	 eax, 10			; 0000000aH
  003f5	6a 04		 push	 4
  003f7	c7 45 d8 8e 84
	8e 89		 mov	 DWORD PTR __k$618584[ebp], -1987148658 ; 898e848eH
  003fe	c7 45 dc 86 b3
	87 8b		 mov	 DWORD PTR __k$618584[ebp+4], -1954040954 ; 8b87b386H
  00405	c7 45 e0 83 88
	b4 82		 mov	 DWORD PTR __k$618584[ebp+8], -2102097789 ; 82b48883H
  0040c	c7 45 e4 88 85
	8c 82		 mov	 DWORD PTR __k$618584[ebp+12], -2104719992 ; 828c8588H
  00413	8d 4d d8	 lea	 ecx, DWORD PTR __k$618584[ebp]
  00416	66 c7 45 e8 99
	00		 mov	 WORD PTR __k$618584[ebp+16], 153 ; 00000099H
  0041c	5a		 pop	 edx
$LL981@LoadFlyInf:
  0041d	81 31 ed ec eb
	ea		 xor	 DWORD PTR [ecx], -353637139 ; eaebecedH
  00423	83 c1 04	 add	 ecx, 4
  00426	4a		 dec	 edx
  00427	75 f4		 jne	 SHORT $LL981@LoadFlyInf
  00429	80 75 e8 ed	 xor	 BYTE PTR __k$618584[ebp+16], -19 ; ffffffedH
  0042d	89 85 98 fd ff
	ff		 mov	 DWORD PTR tv11033[ebp], eax
  00433	db 85 98 fd ff
	ff		 fild	 DWORD PTR tv11033[ebp]
  00439	85 c0		 test	 eax, eax
  0043b	79 06		 jns	 SHORT $LN1358@LoadFlyInf
  0043d	d8 05 00 00 00
	00		 fadd	 DWORD PTR __real@4f800000
$LN1358@LoadFlyInf:
  00443	51		 push	 ecx
  00444	8b 8d a0 fd ff
	ff		 mov	 ecx, DWORD PTR _rkLoader$GSCopy$[ebp]
  0044a	d9 1c 24	 fstp	 DWORD PTR [esp]
  0044d	8d 45 d8	 lea	 eax, DWORD PTR __k$618584[ebp]
  00450	50		 push	 eax
  00451	ff 15 00 00 00
	00		 call	 DWORD PTR __imp_?LoadFloat@ioINILoader@@QAEMPBDM@Z
  00457	d9 9e 54 1b 00
	00		 fstp	 DWORD PTR [esi+6996]
  0045d	6a 03		 push	 3

; 139  : 	m_fAirJumpPower = rkLoader.LoadFloat_e( "air_jump_power", 0.f );

  0045f	c7 45 dc 8c 85
	99 b5		 mov	 DWORD PTR __k$618618[ebp], -1248230004 ; b599858cH
  00466	c7 45 e0 87 99
	86 9a		 mov	 DWORD PTR __k$618618[ebp+4], -1702454905 ; 9a869987H
  0046d	c7 45 e4 b2 9c
	84 9d		 mov	 DWORD PTR __k$618618[ebp+8], -1652253518 ; 9d849cb2H
  00474	66 c7 45 e8 88
	9e		 mov	 WORD PTR __k$618618[ebp+12], 40584 ; 00009e88H
  0047a	8d 45 dc	 lea	 eax, DWORD PTR __k$618618[ebp]
  0047d	88 5d ea	 mov	 BYTE PTR __k$618618[ebp+14], bl
  00480	59		 pop	 ecx
$LL1087@LoadFlyInf:
  00481	81 30 ed ec eb
	ea		 xor	 DWORD PTR [eax], -353637139 ; eaebecedH
  00487	83 c0 04	 add	 eax, 4
  0048a	49		 dec	 ecx
  0048b	75 f4		 jne	 SHORT $LL1087@LoadFlyInf
  0048d	6a 0c		 push	 12			; 0000000cH
  0048f	5f		 pop	 edi
$LL1084@LoadFlyInf:
  00490	8b c7		 mov	 eax, edi
  00492	25 03 00 00 80	 and	 eax, -2147483645	; 80000003H
  00497	79 05		 jns	 SHORT $LN1359@LoadFlyInf
  00499	48		 dec	 eax
  0049a	83 c8 fc	 or	 eax, -4			; fffffffcH
  0049d	40		 inc	 eax
$LN1359@LoadFlyInf:
  0049e	b1 ed		 mov	 cl, -19			; ffffffedH
  004a0	2a c8		 sub	 cl, al
  004a2	30 4c 3d dc	 xor	 BYTE PTR __k$618618[ebp+edi], cl
  004a6	47		 inc	 edi
  004a7	83 ff 0e	 cmp	 edi, 14			; 0000000eH
  004aa	7c e4		 jl	 SHORT $LL1084@LoadFlyInf
  004ac	0f 57 c0	 xorps	 xmm0, xmm0
  004af	51		 push	 ecx
  004b0	8b 8d a0 fd ff
	ff		 mov	 ecx, DWORD PTR _rkLoader$GSCopy$[ebp]
  004b6	8d 45 dc	 lea	 eax, DWORD PTR __k$618618[ebp]
  004b9	f3 0f 11 04 24	 movss	 DWORD PTR [esp], xmm0
  004be	50		 push	 eax
  004bf	ff 15 00 00 00
	00		 call	 DWORD PTR __imp_?LoadFloat@ioINILoader@@QAEMPBDM@Z
  004c5	d9 9e 58 1b 00
	00		 fstp	 DWORD PTR [esi+7000]
  004cb	6a 04		 push	 4
  004cd	5f		 pop	 edi

; 140  : 
; 141  : 	m_dwMaxSpecialTime = (DWORD)rkLoader.LoadInt_e( "max_special_time", 0 );

  004ce	c7 45 d8 80 8d
	93 b5		 mov	 DWORD PTR __k$618743[ebp], -1248621184 ; b5938d80H
  004d5	c7 45 dc 9e 9c
	8e 89		 mov	 DWORD PTR __k$618743[ebp+4], -1987142498 ; 898e9c9eH
  004dc	c7 45 e0 84 8d
	87 b5		 mov	 DWORD PTR __k$618743[ebp+8], -1249407612 ; b5878d84H
  004e3	c7 45 e4 99 85
	86 8f		 mov	 DWORD PTR __k$618743[ebp+12], -1887009383 ; 8f868599H
  004ea	8d 45 d8	 lea	 eax, DWORD PTR __k$618743[ebp]
  004ed	88 5d e8	 mov	 BYTE PTR __k$618743[ebp+16], bl
  004f0	8b cf		 mov	 ecx, edi
$LL1193@LoadFlyInf:
  004f2	81 30 ed ec eb
	ea		 xor	 DWORD PTR [eax], -353637139 ; eaebecedH
  004f8	03 c7		 add	 eax, edi
  004fa	49		 dec	 ecx
  004fb	75 f5		 jne	 SHORT $LL1193@LoadFlyInf
  004fd	8b 8d a0 fd ff
	ff		 mov	 ecx, DWORD PTR _rkLoader$GSCopy$[ebp]
  00503	53		 push	 ebx
  00504	8d 45 d8	 lea	 eax, DWORD PTR __k$618743[ebp]
  00507	50		 push	 eax
  00508	ff 15 00 00 00
	00		 call	 DWORD PTR __imp_?LoadInt@ioINILoader@@QAEHPBDH@Z
  0050e	89 86 5c 1b 00
	00		 mov	 DWORD PTR [esi+7004], eax

; 142  : 
; 143  : 	rkLoader.LoadString_e( "special_map_effect", "", szBuf, MAX_PATH );

  00514	c7 45 ac 9e 9c
	8e 89		 mov	 DWORD PTR __k$618855[ebp], -1987142498 ; 898e9c9eH
  0051b	c7 45 b0 84 8d
	87 b5		 mov	 DWORD PTR __k$618855[ebp+4], -1249407612 ; b5878d84H
  00522	c7 45 b4 80 8d
	9b b5		 mov	 DWORD PTR __k$618855[ebp+8], -1248096896 ; b59b8d80H
  00529	c7 45 b8 88 8a
	8d 8f		 mov	 DWORD PTR __k$618855[ebp+12], -1886549368 ; 8f8d8a88H
  00530	66 c7 45 bc 8e
	98		 mov	 WORD PTR __k$618855[ebp+16], 39054 ; 0000988eH
  00536	8d 45 ac	 lea	 eax, DWORD PTR __k$618855[ebp]
  00539	88 5d be	 mov	 BYTE PTR __k$618855[ebp+18], bl
  0053c	8b cf		 mov	 ecx, edi
$LL1299@LoadFlyInf:
  0053e	81 30 ed ec eb
	ea		 xor	 DWORD PTR [eax], -353637139 ; eaebecedH
  00544	03 c7		 add	 eax, edi
  00546	49		 dec	 ecx
  00547	75 f5		 jne	 SHORT $LL1299@LoadFlyInf
  00549	6a 10		 push	 16			; 00000010H
  0054b	58		 pop	 eax
$LL1296@LoadFlyInf:
  0054c	8b c8		 mov	 ecx, eax
  0054e	81 e1 03 00 00
	80		 and	 ecx, -2147483645	; 80000003H
  00554	79 05		 jns	 SHORT $LN1360@LoadFlyInf
  00556	49		 dec	 ecx
  00557	83 c9 fc	 or	 ecx, -4			; fffffffcH
  0055a	41		 inc	 ecx
$LN1360@LoadFlyInf:
  0055b	b2 ed		 mov	 dl, -19			; ffffffedH
  0055d	2a d1		 sub	 dl, cl
  0055f	30 54 05 ac	 xor	 BYTE PTR __k$618855[ebp+eax], dl
  00563	40		 inc	 eax
  00564	83 f8 12	 cmp	 eax, 18			; 00000012H
  00567	7c e3		 jl	 SHORT $LL1296@LoadFlyInf
  00569	8b 8d a0 fd ff
	ff		 mov	 ecx, DWORD PTR _rkLoader$GSCopy$[ebp]
  0056f	68 04 01 00 00	 push	 260			; 00000104H
  00574	8d 85 a8 fe ff
	ff		 lea	 eax, DWORD PTR _szBuf$[ebp]
  0057a	50		 push	 eax
  0057b	68 00 00 00 00	 push	 OFFSET ??_C@_00CNPNBAHC@?$AA@
  00580	8d 45 ac	 lea	 eax, DWORD PTR __k$618855[ebp]
  00583	50		 push	 eax
  00584	ff 15 00 00 00
	00		 call	 DWORD PTR __imp_?LoadStringA@ioINILoader@@QAEXPBD0PADH@Z

; 144  : 	m_stMapEffect = szBuf;

  0058a	8d 85 a8 fe ff
	ff		 lea	 eax, DWORD PTR _szBuf$[ebp]
  00590	50		 push	 eax
  00591	8d 8e 68 1b 00
	00		 lea	 ecx, DWORD PTR [esi+7016]
  00597	ff 15 00 00 00
	00		 call	 DWORD PTR __imp_??4ioHashString@@QAEAAV0@PBD@Z

; 145  : }

  0059d	e8 00 00 00 00	 call	 __EH_epilog3_GS
  005a2	c2 04 00	 ret	 4
_TEXT	ENDS
;	COMDAT text$x
text$x	SEGMENT
__unwindfunclet$?LoadFlyInfo@ioDraculaItem@@IAEXAAVioINILoader@@@Z$0:
  00000	8d 4d c4	 lea	 ecx, DWORD PTR _szBuff$607875[ebp]
  00003	ff 25 00 00 00
	00		 jmp	 DWORD PTR __imp_??1ioHashString@@QAE@XZ
__ehhandler$?LoadFlyInfo@ioDraculaItem@@IAEXAAVioINILoader@@@Z:
  00009	8b 54 24 08	 mov	 edx, DWORD PTR [esp+8]
  0000d	8d 42 0c	 lea	 eax, DWORD PTR [edx+12]
  00010	8b 8a 94 fd ff
	ff		 mov	 ecx, DWORD PTR [edx-620]
  00016	33 c8		 xor	 ecx, eax
  00018	e8 00 00 00 00	 call	 @__security_check_cookie@4
  0001d	8b 4a fc	 mov	 ecx, DWORD PTR [edx-4]
  00020	33 c8		 xor	 ecx, eax
  00022	e8 00 00 00 00	 call	 @__security_check_cookie@4
  00027	b8 00 00 00 00	 mov	 eax, OFFSET __ehfuncinfo$?LoadFlyInfo@ioDraculaItem@@IAEXAAVioINILoader@@@Z
  0002c	e9 00 00 00 00	 jmp	 ___CxxFrameHandler3
text$x	ENDS
?LoadFlyInfo@ioDraculaItem@@IAEXAAVioINILoader@@@Z ENDP	; ioDraculaItem::LoadFlyInfo
;	COMDAT xdata$x
xdata$x	SEGMENT
__unwindtable$?Clone@ioDraculaItem@@UAEPAVioItem@@XZ DD 0ffffffffH
	DD	FLAT:__unwindfunclet$?Clone@ioDraculaItem@@UAEPAVioItem@@XZ$0
__ehfuncinfo$?Clone@ioDraculaItem@@UAEPAVioItem@@XZ DD 019930522H
	DD	01H
	DD	FLAT:__unwindtable$?Clone@ioDraculaItem@@UAEPAVioItem@@XZ
	DD	2 DUP(00H)
	DD	2 DUP(00H)
	DD	00H
	DD	01H
; Function compile flags: /Ogsp
xdata$x	ENDS
;	COMDAT ?Clone@ioDraculaItem@@UAEPAVioItem@@XZ
_TEXT	SEGMENT
$T619034 = -16						; size = 4
__$EHRec$ = -12						; size = 12
?Clone@ioDraculaItem@@UAEPAVioItem@@XZ PROC		; ioDraculaItem::Clone, COMDAT
; _this$ = ecx

; 148  : {

  00000	6a 04		 push	 4
  00002	b8 00 00 00 00	 mov	 eax, __ehhandler$?Clone@ioDraculaItem@@UAEPAVioItem@@XZ
  00007	e8 00 00 00 00	 call	 __EH_prolog3
  0000c	8b f1		 mov	 esi, ecx

; 149  : 	return new ioDraculaItem( *this );

  0000e	68 78 1b 00 00	 push	 7032			; 00001b78H
  00013	e8 00 00 00 00	 call	 ??2@YAPAXI@Z		; operator new
  00018	59		 pop	 ecx
  00019	8b c8		 mov	 ecx, eax
  0001b	89 4d f0	 mov	 DWORD PTR $T619034[ebp], ecx
  0001e	33 c0		 xor	 eax, eax
  00020	89 45 fc	 mov	 DWORD PTR __$EHRec$[ebp+8], eax
  00023	3b c8		 cmp	 ecx, eax
  00025	74 06		 je	 SHORT $LN3@Clone
  00027	56		 push	 esi
  00028	e8 00 00 00 00	 call	 ??0ioDraculaItem@@QAE@ABV0@@Z ; ioDraculaItem::ioDraculaItem
$LN3@Clone:

; 150  : }

  0002d	e8 00 00 00 00	 call	 __EH_epilog3
  00032	c3		 ret	 0
_TEXT	ENDS
;	COMDAT text$x
text$x	SEGMENT
__unwindfunclet$?Clone@ioDraculaItem@@UAEPAVioItem@@XZ$0:
  00000	ff 75 f0	 push	 DWORD PTR $T619034[ebp]
  00003	e8 00 00 00 00	 call	 ??3@YAXPAX@Z		; operator delete
  00008	59		 pop	 ecx
  00009	c3		 ret	 0
__ehhandler$?Clone@ioDraculaItem@@UAEPAVioItem@@XZ:
  0000a	8b 54 24 08	 mov	 edx, DWORD PTR [esp+8]
  0000e	8d 42 0c	 lea	 eax, DWORD PTR [edx+12]
  00011	8b 4a ec	 mov	 ecx, DWORD PTR [edx-20]
  00014	33 c8		 xor	 ecx, eax
  00016	e8 00 00 00 00	 call	 @__security_check_cookie@4
  0001b	b8 00 00 00 00	 mov	 eax, OFFSET __ehfuncinfo$?Clone@ioDraculaItem@@UAEPAVioItem@@XZ
  00020	e9 00 00 00 00	 jmp	 ___CxxFrameHandler3
text$x	ENDS
?Clone@ioDraculaItem@@UAEPAVioItem@@XZ ENDP		; ioDraculaItem::Clone
PUBLIC	??4tagDraculaFlyInfo@@QAEAAU0@ABU0@@Z		; tagDraculaFlyInfo::operator=
; Function compile flags: /Ogsp
;	COMDAT ??4tagDraculaFlyInfo@@QAEAAU0@ABU0@@Z
_TEXT	SEGMENT
___that$ = 8						; size = 4
??4tagDraculaFlyInfo@@QAEAAU0@ABU0@@Z PROC		; tagDraculaFlyInfo::operator=, COMDAT
; _this$ = ecx
  00000	55		 push	 ebp
  00001	8b ec		 mov	 ebp, esp
  00003	8b 45 08	 mov	 eax, DWORD PTR ___that$[ebp]
  00006	d9 00		 fld	 DWORD PTR [eax]
  00008	56		 push	 esi
  00009	8b f1		 mov	 esi, ecx
  0000b	d9 1e		 fstp	 DWORD PTR [esi]
  0000d	83 c0 18	 add	 eax, 24			; 00000018H
  00010	d9 40 ec	 fld	 DWORD PTR [eax-20]
  00013	50		 push	 eax
  00014	d9 5e 04	 fstp	 DWORD PTR [esi+4]
  00017	8b 48 f0	 mov	 ecx, DWORD PTR [eax-16]
  0001a	89 4e 08	 mov	 DWORD PTR [esi+8], ecx
  0001d	8b 48 f4	 mov	 ecx, DWORD PTR [eax-12]
  00020	89 4e 0c	 mov	 DWORD PTR [esi+12], ecx
  00023	d9 40 f8	 fld	 DWORD PTR [eax-8]
  00026	d9 5e 10	 fstp	 DWORD PTR [esi+16]
  00029	8d 4e 18	 lea	 ecx, DWORD PTR [esi+24]
  0002c	d9 40 fc	 fld	 DWORD PTR [eax-4]
  0002f	d9 5e 14	 fstp	 DWORD PTR [esi+20]
  00032	e8 00 00 00 00	 call	 ??4?$vector@VioHashString@@V?$allocator@VioHashString@@@std@@@std@@QAEAAV01@ABV01@@Z ; std::vector<ioHashString,std::allocator<ioHashString> >::operator=
  00037	8b c6		 mov	 eax, esi
  00039	5e		 pop	 esi
  0003a	5d		 pop	 ebp
  0003b	c2 04 00	 ret	 4
??4tagDraculaFlyInfo@@QAEAAU0@ABU0@@Z ENDP		; tagDraculaFlyInfo::operator=
_TEXT	ENDS
EXTRN	?LoadProperty@ioWeaponItem@@UAEXAAVioINILoader@@@Z:PROC ; ioWeaponItem::LoadProperty
;	COMDAT xdata$x
; File d:\lost saga for developer\youtube\tutorial\source\src\lsclient\encryptvalue.h
xdata$x	SEGMENT
__unwindtable$?LoadProperty@ioDraculaItem@@UAEXAAVioINILoader@@@Z DD 0ffffffffH
	DD	FLAT:__unwindfunclet$?LoadProperty@ioDraculaItem@@UAEXAAVioINILoader@@@Z$0
__ehfuncinfo$?LoadProperty@ioDraculaItem@@UAEXAAVioINILoader@@@Z DD 019930522H
	DD	01H
	DD	FLAT:__unwindtable$?LoadProperty@ioDraculaItem@@UAEXAAVioINILoader@@@Z
	DD	2 DUP(00H)
	DD	2 DUP(00H)
	DD	00H
	DD	01H
; Function compile flags: /Ogsp
; File d:\lost saga for developer\youtube\tutorial\source\src\lsclient\iodraculaitem.cpp
xdata$x	ENDS
;	COMDAT ?LoadProperty@ioDraculaItem@@UAEXAAVioINILoader@@@Z
_TEXT	SEGMENT
_value$619543 = -356					; size = 4
_iMaxCombo$ = -352					; size = 4
tv3603 = -348						; size = 4
tv3592 = -348						; size = 4
tv3581 = -348						; size = 4
tv2997 = -348						; size = 4
_value$619408 = -348					; size = 4
_value$619274 = -348					; size = 4
$T619113 = -348						; size = 4
_szBuf$ = -344						; size = 260
___encStr$607514 = -84					; size = 25
__k$619430 = -52					; size = 15
__k$619374 = -32					; size = 11
__k$619175 = -32					; size = 10
$T619049 = -32						; size = 16
__$EHRec$ = -12						; size = 12
_rkLoader$ = 8						; size = 4
?LoadProperty@ioDraculaItem@@UAEXAAVioINILoader@@@Z PROC ; ioDraculaItem::LoadProperty, COMDAT
; _this$ = ecx

; 91   : {

  00000	68 58 01 00 00	 push	 344			; 00000158H
  00005	b8 00 00 00 00	 mov	 eax, __ehhandler$?LoadProperty@ioDraculaItem@@UAEXAAVioINILoader@@@Z
  0000a	e8 00 00 00 00	 call	 __EH_prolog3_GS
  0000f	8b 5d 08	 mov	 ebx, DWORD PTR _rkLoader$[ebp]

; 92   : 	ioWeaponItem::LoadProperty( rkLoader );

  00012	53		 push	 ebx
  00013	8b f1		 mov	 esi, ecx
  00015	e8 00 00 00 00	 call	 ?LoadProperty@ioWeaponItem@@UAEXAAVioINILoader@@@Z ; ioWeaponItem::LoadProperty

; 93   : 
; 94   : 	char szBuf[MAX_PATH];
; 95   : 
; 96   : 	int iMaxCombo = GetMaxCombo();

  0001a	8b 06		 mov	 eax, DWORD PTR [esi]
  0001c	8b ce		 mov	 ecx, esi
  0001e	ff 90 2c 02 00
	00		 call	 DWORD PTR [eax+556]

; 97   : 	m_AttackReadyAniList.clear();

  00024	8b 8e 54 19 00
	00		 mov	 ecx, DWORD PTR [esi+6484]
  0002a	89 85 a0 fe ff
	ff		 mov	 DWORD PTR _iMaxCombo$[ebp], eax
  00030	8b 86 58 19 00
	00		 mov	 eax, DWORD PTR [esi+6488]
  00036	50		 push	 eax
  00037	51		 push	 ecx
  00038	8d 85 a4 fe ff
	ff		 lea	 eax, DWORD PTR $T619113[ebp]
  0003e	50		 push	 eax
  0003f	8d 8e 54 19 00
	00		 lea	 ecx, DWORD PTR [esi+6484]
  00045	e8 00 00 00 00	 call	 ?erase@?$vector@VioHashString@@V?$allocator@VioHashString@@@std@@@std@@QAE?AV?$_Vector_iterator@V?$_Vector_val@VioHashString@@V?$allocator@VioHashString@@@std@@@std@@@2@V?$_Vector_const_iterator@V?$_Vector_val@VioHashString@@V?$allocator@VioHashString@@@std@@@std@@@2@0@Z ; std::vector<ioHashString,std::allocator<ioHashString> >::erase

; 98   : 	for( int i=0; i < iMaxCombo; ++i )

  0004a	33 c9		 xor	 ecx, ecx
  0004c	39 8d a0 fe ff
	ff		 cmp	 DWORD PTR _iMaxCombo$[ebp], ecx
  00052	0f 8e b7 00 00
	00		 jle	 $LN100@LoadProper
$LL102@LoadProper:

; 97   : 	m_AttackReadyAniList.clear();

  00058	6a 06		 push	 6

; 99   : 	{
; 100  : 		wsprintf_e( szBuf, "attack_ready_animation%d", i+1 );

  0005a	c7 45 ac 8c 98
	9f 8b		 mov	 DWORD PTR ___encStr$607514[ebp], -1952474996 ; 8b9f988cH
  00061	c7 45 b0 8e 87
	b4 98		 mov	 DWORD PTR ___encStr$607514[ebp+4], -1732999282 ; 98b4878eH
  00068	c7 45 b4 88 8d
	8f 93		 mov	 DWORD PTR ___encStr$607514[ebp+8], -1819308664 ; 938f8d88H
  0006f	c7 45 b8 b2 8d
	85 83		 mov	 DWORD PTR ___encStr$607514[ebp+12], -2088399438 ; 83858db2H
  00076	c7 45 bc 80 8d
	9f 83		 mov	 DWORD PTR ___encStr$607514[ebp+16], -2086695552 ; 839f8d80H
  0007d	c7 45 c0 82 82
	ce 8e		 mov	 DWORD PTR ___encStr$607514[ebp+20], -1899068798 ; 8ece8282H
  00084	8d 45 ac	 lea	 eax, DWORD PTR ___encStr$607514[ebp]
  00087	c6 45 c4 00	 mov	 BYTE PTR ___encStr$607514[ebp+24], 0
  0008b	5a		 pop	 edx
$LL129@LoadProper:
  0008c	81 30 ed ec eb
	ea		 xor	 DWORD PTR [eax], -353637139 ; eaebecedH
  00092	83 c0 04	 add	 eax, 4
  00095	4a		 dec	 edx
  00096	75 f4		 jne	 SHORT $LL129@LoadProper
  00098	8d 41 01	 lea	 eax, DWORD PTR [ecx+1]
  0009b	50		 push	 eax
  0009c	89 85 a4 fe ff
	ff		 mov	 DWORD PTR tv2997[ebp], eax
  000a2	8d 45 ac	 lea	 eax, DWORD PTR ___encStr$607514[ebp]
  000a5	50		 push	 eax
  000a6	8d 85 a8 fe ff
	ff		 lea	 eax, DWORD PTR _szBuf$[ebp]
  000ac	50		 push	 eax
  000ad	ff 15 00 00 00
	00		 call	 DWORD PTR __imp__wsprintfA
  000b3	83 c4 0c	 add	 esp, 12			; 0000000cH

; 101  : 		rkLoader.LoadString( szBuf, "", szBuf, MAX_PATH );

  000b6	68 04 01 00 00	 push	 260			; 00000104H
  000bb	8d 85 a8 fe ff
	ff		 lea	 eax, DWORD PTR _szBuf$[ebp]
  000c1	50		 push	 eax
  000c2	68 00 00 00 00	 push	 OFFSET ??_C@_00CNPNBAHC@?$AA@
  000c7	50		 push	 eax
  000c8	8b cb		 mov	 ecx, ebx
  000ca	ff 15 00 00 00
	00		 call	 DWORD PTR __imp_?LoadStringA@ioINILoader@@QAEXPBD0PADH@Z

; 102  : 		m_AttackReadyAniList.push_back( ioHashString(szBuf) );

  000d0	8d 85 a8 fe ff
	ff		 lea	 eax, DWORD PTR _szBuf$[ebp]
  000d6	50		 push	 eax
  000d7	8d 4d e0	 lea	 ecx, DWORD PTR $T619049[ebp]
  000da	ff 15 00 00 00
	00		 call	 DWORD PTR __imp_??0ioHashString@@QAE@PBD@Z
  000e0	83 65 fc 00	 and	 DWORD PTR __$EHRec$[ebp+8], 0
  000e4	50		 push	 eax
  000e5	8d 8e 54 19 00
	00		 lea	 ecx, DWORD PTR [esi+6484]
  000eb	e8 00 00 00 00	 call	 ?push_back@?$vector@VioHashString@@V?$allocator@VioHashString@@@std@@@std@@QAEX$$QAVioHashString@@@Z ; std::vector<ioHashString,std::allocator<ioHashString> >::push_back
  000f0	83 4d fc ff	 or	 DWORD PTR __$EHRec$[ebp+8], -1
  000f4	8d 4d e0	 lea	 ecx, DWORD PTR $T619049[ebp]
  000f7	ff 15 00 00 00
	00		 call	 DWORD PTR __imp_??1ioHashString@@QAE@XZ
  000fd	8b 8d a4 fe ff
	ff		 mov	 ecx, DWORD PTR tv2997[ebp]
  00103	3b 8d a0 fe ff
	ff		 cmp	 ecx, DWORD PTR _iMaxCombo$[ebp]
  00109	0f 8c 49 ff ff
	ff		 jl	 $LL102@LoadProper
$LN100@LoadProper:

; 103  : 	}
; 104  : 
; 105  : 	LoadFlyInfo( rkLoader );

  0010f	53		 push	 ebx
  00110	8b ce		 mov	 ecx, esi
  00112	e8 00 00 00 00	 call	 ?LoadFlyInfo@ioDraculaItem@@IAEXAAVioINILoader@@@Z ; ioDraculaItem::LoadFlyInfo

; 106  : 
; 107  : 	m_fMaxGauge = rkLoader.LoadFloat_e( "max_gauge", FLOAT100 );

  00117	b8 64 00 00 00	 mov	 eax, 100		; 00000064H
  0011c	6a 02		 push	 2
  0011e	c7 45 e0 80 8d
	93 b5		 mov	 DWORD PTR __k$619175[ebp], -1248621184 ; b5938d80H
  00125	c7 45 e4 8a 8d
	9e 8d		 mov	 DWORD PTR __k$619175[ebp+4], -1918988918 ; 8d9e8d8aH
  0012c	8d 4d e0	 lea	 ecx, DWORD PTR __k$619175[ebp]
  0012f	66 c7 45 e8 88
	00		 mov	 WORD PTR __k$619175[ebp+8], 136 ; 00000088H
  00135	5a		 pop	 edx
$LL237@LoadProper:
  00136	81 31 ed ec eb
	ea		 xor	 DWORD PTR [ecx], -353637139 ; eaebecedH
  0013c	83 c1 04	 add	 ecx, 4
  0013f	4a		 dec	 edx
  00140	75 f4		 jne	 SHORT $LL237@LoadProper
  00142	80 75 e8 ed	 xor	 BYTE PTR __k$619175[ebp+8], -19 ; ffffffedH
  00146	89 85 a4 fe ff
	ff		 mov	 DWORD PTR tv3603[ebp], eax
  0014c	db 85 a4 fe ff
	ff		 fild	 DWORD PTR tv3603[ebp]
  00152	85 c0		 test	 eax, eax
  00154	79 06		 jns	 SHORT $LN481@LoadProper
  00156	d8 05 00 00 00
	00		 fadd	 DWORD PTR __real@4f800000
$LN481@LoadProper:
  0015c	51		 push	 ecx
  0015d	8d 45 e0	 lea	 eax, DWORD PTR __k$619175[ebp]
  00160	d9 1c 24	 fstp	 DWORD PTR [esp]
  00163	50		 push	 eax
  00164	8b cb		 mov	 ecx, ebx
  00166	ff 15 00 00 00
	00		 call	 DWORD PTR __imp_?LoadFloat@ioINILoader@@QAEMPBDM@Z
  0016c	d9 9d a4 fe ff
	ff		 fstp	 DWORD PTR _value$619274[ebp]
  00172	8d 85 a4 fe ff
	ff		 lea	 eax, DWORD PTR _value$619274[ebp]
  00178	50		 push	 eax
  00179	8d 8e 94 1a 00
	00		 lea	 ecx, DWORD PTR [esi+6804]
  0017f	e8 00 00 00 00	 call	 ?EncryptValueToPool@?$CEncrypt@M@@AAEXPBD@Z ; CEncrypt<float>::EncryptValueToPool

; 108  : 	m_fNeedGauge = rkLoader.LoadFloat_e( "need_gauge", FLOAT100 );

  00184	b8 64 00 00 00	 mov	 eax, 100		; 00000064H
  00189	6a 02		 push	 2
  0018b	8b f8		 mov	 edi, eax
  0018d	c7 45 e0 83 89
	8e 8e		 mov	 DWORD PTR __k$619374[ebp], -1903261309 ; 8e8e8983H
  00194	c7 45 e4 b2 8b
	8a 9f		 mov	 DWORD PTR __k$619374[ebp+4], -1618310222 ; 9f8a8bb2H
  0019b	66 c7 45 e8 8a
	89		 mov	 WORD PTR __k$619374[ebp+8], 35210 ; 0000898aH
  001a1	8d 4d e0	 lea	 ecx, DWORD PTR __k$619374[ebp]
  001a4	c6 45 ea 00	 mov	 BYTE PTR __k$619374[ebp+10], 0
  001a8	58		 pop	 eax
$LL347@LoadProper:
  001a9	81 31 ed ec eb
	ea		 xor	 DWORD PTR [ecx], -353637139 ; eaebecedH
  001af	83 c1 04	 add	 ecx, 4
  001b2	48		 dec	 eax
  001b3	75 f4		 jne	 SHORT $LL347@LoadProper
  001b5	6a 08		 push	 8
  001b7	58		 pop	 eax
$LL344@LoadProper:
  001b8	8b c8		 mov	 ecx, eax
  001ba	81 e1 03 00 00
	80		 and	 ecx, -2147483645	; 80000003H
  001c0	79 05		 jns	 SHORT $LN482@LoadProper
  001c2	49		 dec	 ecx
  001c3	83 c9 fc	 or	 ecx, -4			; fffffffcH
  001c6	41		 inc	 ecx
$LN482@LoadProper:
  001c7	b2 ed		 mov	 dl, -19			; ffffffedH
  001c9	2a d1		 sub	 dl, cl
  001cb	30 54 05 e0	 xor	 BYTE PTR __k$619374[ebp+eax], dl
  001cf	40		 inc	 eax
  001d0	83 f8 0a	 cmp	 eax, 10			; 0000000aH
  001d3	7c e3		 jl	 SHORT $LL344@LoadProper
  001d5	89 bd a4 fe ff
	ff		 mov	 DWORD PTR tv3592[ebp], edi
  001db	db 85 a4 fe ff
	ff		 fild	 DWORD PTR tv3592[ebp]
  001e1	85 ff		 test	 edi, edi
  001e3	79 06		 jns	 SHORT $LN483@LoadProper
  001e5	d8 05 00 00 00
	00		 fadd	 DWORD PTR __real@4f800000
$LN483@LoadProper:
  001eb	51		 push	 ecx
  001ec	8d 45 e0	 lea	 eax, DWORD PTR __k$619374[ebp]
  001ef	d9 1c 24	 fstp	 DWORD PTR [esp]
  001f2	50		 push	 eax
  001f3	8b cb		 mov	 ecx, ebx
  001f5	ff 15 00 00 00
	00		 call	 DWORD PTR __imp_?LoadFloat@ioINILoader@@QAEMPBDM@Z
  001fb	d9 9d a4 fe ff
	ff		 fstp	 DWORD PTR _value$619408[ebp]
  00201	8d 85 a4 fe ff
	ff		 lea	 eax, DWORD PTR _value$619408[ebp]
  00207	50		 push	 eax
  00208	8d 8e c4 1a 00
	00		 lea	 ecx, DWORD PTR [esi+6852]
  0020e	e8 00 00 00 00	 call	 ?EncryptValueToPool@?$CEncrypt@M@@AAEXPBD@Z ; CEncrypt<float>::EncryptValueToPool

; 109  : 
; 110  : 	m_fIncreaseGauge = rkLoader.LoadFloat_e( "increase_gauge", FLOAT1 );

  00213	b8 01 00 00 00	 mov	 eax, 1
  00218	6a 03		 push	 3
  0021a	c7 45 cc 84 82
	88 98		 mov	 DWORD PTR __k$619430[ebp], -1735884156 ; 98888284H
  00221	c7 45 d0 88 8d
	98 8f		 mov	 DWORD PTR __k$619430[ebp+4], -1885827704 ; 8f988d88H
  00228	c7 45 d4 b2 8b
	8a 9f		 mov	 DWORD PTR __k$619430[ebp+8], -1618310222 ; 9f8a8bb2H
  0022f	66 c7 45 d8 8a
	89		 mov	 WORD PTR __k$619430[ebp+12], 35210 ; 0000898aH
  00235	8d 4d cc	 lea	 ecx, DWORD PTR __k$619430[ebp]
  00238	c6 45 da 00	 mov	 BYTE PTR __k$619430[ebp+14], 0
  0023c	5a		 pop	 edx
$LL457@LoadProper:
  0023d	81 31 ed ec eb
	ea		 xor	 DWORD PTR [ecx], -353637139 ; eaebecedH
  00243	83 c1 04	 add	 ecx, 4
  00246	4a		 dec	 edx
  00247	75 f4		 jne	 SHORT $LL457@LoadProper
  00249	6a 0c		 push	 12			; 0000000cH
  0024b	5f		 pop	 edi
$LL454@LoadProper:
  0024c	8b cf		 mov	 ecx, edi
  0024e	81 e1 03 00 00
	80		 and	 ecx, -2147483645	; 80000003H
  00254	79 05		 jns	 SHORT $LN484@LoadProper
  00256	49		 dec	 ecx
  00257	83 c9 fc	 or	 ecx, -4			; fffffffcH
  0025a	41		 inc	 ecx
$LN484@LoadProper:
  0025b	b2 ed		 mov	 dl, -19			; ffffffedH
  0025d	2a d1		 sub	 dl, cl
  0025f	30 54 3d cc	 xor	 BYTE PTR __k$619430[ebp+edi], dl
  00263	47		 inc	 edi
  00264	83 ff 0e	 cmp	 edi, 14			; 0000000eH
  00267	7c e3		 jl	 SHORT $LL454@LoadProper
  00269	89 85 a4 fe ff
	ff		 mov	 DWORD PTR tv3581[ebp], eax
  0026f	db 85 a4 fe ff
	ff		 fild	 DWORD PTR tv3581[ebp]
  00275	85 c0		 test	 eax, eax
  00277	79 06		 jns	 SHORT $LN485@LoadProper
  00279	d8 05 00 00 00
	00		 fadd	 DWORD PTR __real@4f800000
$LN485@LoadProper:
  0027f	51		 push	 ecx
  00280	8d 45 cc	 lea	 eax, DWORD PTR __k$619430[ebp]
  00283	d9 1c 24	 fstp	 DWORD PTR [esp]
  00286	50		 push	 eax
  00287	8b cb		 mov	 ecx, ebx
  00289	ff 15 00 00 00
	00		 call	 DWORD PTR __imp_?LoadFloat@ioINILoader@@QAEMPBDM@Z
  0028f	d9 9d 9c fe ff
	ff		 fstp	 DWORD PTR _value$619543[ebp]
  00295	8d 85 9c fe ff
	ff		 lea	 eax, DWORD PTR _value$619543[ebp]
  0029b	50		 push	 eax
  0029c	8d 8e f4 1a 00
	00		 lea	 ecx, DWORD PTR [esi+6900]
  002a2	e8 00 00 00 00	 call	 ?EncryptValueToPool@?$CEncrypt@M@@AAEXPBD@Z ; CEncrypt<float>::EncryptValueToPool

; 111  : }

  002a7	e8 00 00 00 00	 call	 __EH_epilog3_GS
  002ac	c2 04 00	 ret	 4
_TEXT	ENDS
;	COMDAT text$x
text$x	SEGMENT
__unwindfunclet$?LoadProperty@ioDraculaItem@@UAEXAAVioINILoader@@@Z$0:
  00000	8d 4d e0	 lea	 ecx, DWORD PTR $T619049[ebp]
  00003	ff 25 00 00 00
	00		 jmp	 DWORD PTR __imp_??1ioHashString@@QAE@XZ
__ehhandler$?LoadProperty@ioDraculaItem@@UAEXAAVioINILoader@@@Z:
  00009	8b 54 24 08	 mov	 edx, DWORD PTR [esp+8]
  0000d	8d 42 0c	 lea	 eax, DWORD PTR [edx+12]
  00010	8b 8a 98 fe ff
	ff		 mov	 ecx, DWORD PTR [edx-360]
  00016	33 c8		 xor	 ecx, eax
  00018	e8 00 00 00 00	 call	 @__security_check_cookie@4
  0001d	8b 4a fc	 mov	 ecx, DWORD PTR [edx-4]
  00020	33 c8		 xor	 ecx, eax
  00022	e8 00 00 00 00	 call	 @__security_check_cookie@4
  00027	b8 00 00 00 00	 mov	 eax, OFFSET __ehfuncinfo$?LoadProperty@ioDraculaItem@@UAEXAAVioINILoader@@@Z
  0002c	e9 00 00 00 00	 jmp	 ___CxxFrameHandler3
text$x	ENDS
?LoadProperty@ioDraculaItem@@UAEXAAVioINILoader@@@Z ENDP ; ioDraculaItem::LoadProperty
PUBLIC	__$ArrayPad$
PUBLIC	?SetFlyState@ioDraculaItem@@QAEXPAVioBaseChar@@ABUtagDraculaFlyInfo@@_N@Z ; ioDraculaItem::SetFlyState
EXTRN	??6SP2Packet@@QAEAAV0@AAV?$CEncrypt@M@@@Z:PROC	; SP2Packet::operator<<
;	COMDAT xdata$x
; File d:\lost saga for developer\youtube\tutorial\source\src\lsclient\iobasechar.h
xdata$x	SEGMENT
__unwindtable$?SetFlyState@ioDraculaItem@@QAEXPAVioBaseChar@@ABUtagDraculaFlyInfo@@_N@Z DD 0ffffffffH
	DD	FLAT:__unwindfunclet$?SetFlyState@ioDraculaItem@@QAEXPAVioBaseChar@@ABUtagDraculaFlyInfo@@_N@Z$0
__ehfuncinfo$?SetFlyState@ioDraculaItem@@QAEXPAVioBaseChar@@ABUtagDraculaFlyInfo@@_N@Z DD 019930522H
	DD	01H
	DD	FLAT:__unwindtable$?SetFlyState@ioDraculaItem@@QAEXPAVioBaseChar@@ABUtagDraculaFlyInfo@@_N@Z
	DD	2 DUP(00H)
	DD	2 DUP(00H)
	DD	00H
	DD	01H
; Function compile flags: /Ogsp
; File d:\lost saga for developer\youtube\tutorial\source\src\lsclient\iodraculaitem.cpp
xdata$x	ENDS
;	COMDAT ?SetFlyState@ioDraculaItem@@QAEXPAVioBaseChar@@ABUtagDraculaFlyInfo@@_N@Z
_TEXT	SEGMENT
_kPacket$608407 = -32808				; size = 32792
__$ArrayPad$ = -16					; size = 4
__$EHRec$ = -12						; size = 12
_pOwner$ = 8						; size = 4
_rkFlyInfo$ = 12					; size = 4
_bSendNet$ = 16						; size = 1
?SetFlyState@ioDraculaItem@@QAEXPAVioBaseChar@@ABUtagDraculaFlyInfo@@_N@Z PROC ; ioDraculaItem::SetFlyState, COMDAT
; _this$ = ecx

; 1119 : {

  00000	55		 push	 ebp
  00001	8b ec		 mov	 ebp, esp
  00003	6a ff		 push	 -1
  00005	68 00 00 00 00	 push	 __ehhandler$?SetFlyState@ioDraculaItem@@QAEXPAVioBaseChar@@ABUtagDraculaFlyInfo@@_N@Z
  0000a	64 a1 00 00 00
	00		 mov	 eax, DWORD PTR fs:0
  00010	50		 push	 eax
  00011	b8 1c 80 00 00	 mov	 eax, 32796		; 0000801cH
  00016	e8 00 00 00 00	 call	 __chkstk
  0001b	a1 00 00 00 00	 mov	 eax, DWORD PTR ___security_cookie
  00020	33 c5		 xor	 eax, ebp
  00022	89 45 f0	 mov	 DWORD PTR __$ArrayPad$[ebp], eax
  00025	56		 push	 esi
  00026	57		 push	 edi
  00027	50		 push	 eax
  00028	8d 45 f4	 lea	 eax, DWORD PTR __$EHRec$[ebp]
  0002b	64 a3 00 00 00
	00		 mov	 DWORD PTR fs:0, eax
  00031	8b 45 0c	 mov	 eax, DWORD PTR _rkFlyInfo$[ebp]
  00034	8b 7d 08	 mov	 edi, DWORD PTR _pOwner$[ebp]
  00037	8b f1		 mov	 esi, ecx

; 1120 : 	m_CurFly = rkFlyInfo;

  00039	50		 push	 eax
  0003a	8d 8e 6c 1a 00
	00		 lea	 ecx, DWORD PTR [esi+6764]
  00040	e8 00 00 00 00	 call	 ??4tagDraculaFlyInfo@@QAEAAU0@ABU0@@Z

; 1121 : 	AddBuff( pOwner );

  00045	57		 push	 edi
  00046	8b ce		 mov	 ecx, esi
  00048	e8 00 00 00 00	 call	 ?AddBuff@ioDraculaItem@@IAEXPAVioBaseChar@@@Z ; ioDraculaItem::AddBuff

; 1122 : 	DecreaseGauge();

  0004d	8b ce		 mov	 ecx, esi
  0004f	e8 00 00 00 00	 call	 ?DecreaseGauge@ioDraculaItem@@IAEXXZ ; ioDraculaItem::DecreaseGauge

; 1123 : 	ChangeFlyStart( pOwner );

  00054	57		 push	 edi
  00055	8b ce		 mov	 ecx, esi
  00057	e8 00 00 00 00	 call	 ?ChangeFlyStart@ioDraculaItem@@QAEXPAVioBaseChar@@@Z ; ioDraculaItem::ChangeFlyStart

; 1124 : 
; 1125 : 	if( bSendNet && pOwner->IsNeedSendNetwork() )

  0005c	80 7d 10 00	 cmp	 BYTE PTR _bSendNet$[ebp], 0
  00060	0f 84 96 00 00
	00		 je	 $LN1@SetFlyStat
  00066	8b 07		 mov	 eax, DWORD PTR [edi]
  00068	8b cf		 mov	 ecx, edi
  0006a	ff 90 04 01 00
	00		 call	 DWORD PTR [eax+260]
  00070	84 c0		 test	 al, al
  00072	0f 84 84 00 00
	00		 je	 $LN1@SetFlyStat

; 1126 : 	{
; 1127 : 		SP2Packet kPacket( CUPK_ITEM_GAUGE_CANCEL );

  00078	68 28 41 00 00	 push	 16680			; 00004128H
  0007d	8d 8d d8 7f ff
	ff		 lea	 ecx, DWORD PTR _kPacket$608407[ebp]
  00083	e8 00 00 00 00	 call	 ??0SP2Packet@@QAE@K@Z	; SP2Packet::SP2Packet
  00088	83 65 fc 00	 and	 DWORD PTR __$EHRec$[ebp+8], 0

; 1128 : 		FillItemGaugePacketHeader( pOwner, kPacket );

  0008c	8d 85 d8 7f ff
	ff		 lea	 eax, DWORD PTR _kPacket$608407[ebp]
  00092	50		 push	 eax
  00093	57		 push	 edi
  00094	8b ce		 mov	 ecx, esi
  00096	e8 00 00 00 00	 call	 ?FillItemGaugePacketHeader@ioAttackableItem@@QAEXPAVioBaseChar@@AAVSP2Packet@@@Z ; ioAttackableItem::FillItemGaugePacketHeader

; 1129 : 		kPacket << SST_FLY_STATE;

  0009b	6a 00		 push	 0
  0009d	8d 8d d8 7f ff
	ff		 lea	 ecx, DWORD PTR _kPacket$608407[ebp]
  000a3	e8 00 00 00 00	 call	 ??6SP2Packet@@QAEAAV0@H@Z ; SP2Packet::operator<<

; 1130 : 		kPacket << m_FlyState;

  000a8	ff b6 68 19 00
	00		 push	 DWORD PTR [esi+6504]
  000ae	8d 8d d8 7f ff
	ff		 lea	 ecx, DWORD PTR _kPacket$608407[ebp]
  000b4	e8 00 00 00 00	 call	 ??6SP2Packet@@QAEAAV0@H@Z ; SP2Packet::operator<<

; 1131 : 		kPacket << pOwner->GetTargetRot();

  000b9	81 c7 a4 06 00
	00		 add	 edi, 1700		; 000006a4H
  000bf	57		 push	 edi
  000c0	8d 8d d8 7f ff
	ff		 lea	 ecx, DWORD PTR _kPacket$608407[ebp]
  000c6	e8 00 00 00 00	 call	 ??6SP2Packet@@QAEAAV0@ABUD3DXQUATERNION@@@Z ; SP2Packet::operator<<

; 1132 : 		kPacket << m_fCurGauge;

  000cb	81 c6 24 1b 00
	00		 add	 esi, 6948		; 00001b24H
  000d1	56		 push	 esi
  000d2	8d 8d d8 7f ff
	ff		 lea	 ecx, DWORD PTR _kPacket$608407[ebp]
  000d8	e8 00 00 00 00	 call	 ??6SP2Packet@@QAEAAV0@AAV?$CEncrypt@M@@@Z ; SP2Packet::operator<<

; 1133 : 		P2PNetwork::SendToAllPlayingUser( kPacket );

  000dd	8d 85 d8 7f ff
	ff		 lea	 eax, DWORD PTR _kPacket$608407[ebp]
  000e3	6a 00		 push	 0
  000e5	50		 push	 eax
  000e6	e8 00 00 00 00	 call	 ?SendToAllPlayingUser@P2PNetwork@@YAXAAVSP2Packet@@PAVioBaseChar@@@Z ; P2PNetwork::SendToAllPlayingUser

; 1134 : 	}

  000eb	83 4d fc ff	 or	 DWORD PTR __$EHRec$[ebp+8], -1
  000ef	59		 pop	 ecx
  000f0	59		 pop	 ecx
  000f1	8d 8d d8 7f ff
	ff		 lea	 ecx, DWORD PTR _kPacket$608407[ebp]
  000f7	e8 00 00 00 00	 call	 ??1SP2Packet@@UAE@XZ	; SP2Packet::~SP2Packet
$LN1@SetFlyStat:

; 1135 : }

  000fc	8b 4d f4	 mov	 ecx, DWORD PTR __$EHRec$[ebp]
  000ff	64 89 0d 00 00
	00 00		 mov	 DWORD PTR fs:0, ecx
  00106	59		 pop	 ecx
  00107	5f		 pop	 edi
  00108	5e		 pop	 esi
  00109	8b 4d f0	 mov	 ecx, DWORD PTR __$ArrayPad$[ebp]
  0010c	33 cd		 xor	 ecx, ebp
  0010e	e8 00 00 00 00	 call	 @__security_check_cookie@4
  00113	c9		 leave
  00114	c2 0c 00	 ret	 12			; 0000000cH
_TEXT	ENDS
;	COMDAT text$x
text$x	SEGMENT
__unwindfunclet$?SetFlyState@ioDraculaItem@@QAEXPAVioBaseChar@@ABUtagDraculaFlyInfo@@_N@Z$0:
  00000	8d 8d d8 7f ff
	ff		 lea	 ecx, DWORD PTR _kPacket$608407[ebp]
  00006	e9 00 00 00 00	 jmp	 ??1SP2Packet@@UAE@XZ	; SP2Packet::~SP2Packet
__ehhandler$?SetFlyState@ioDraculaItem@@QAEXPAVioBaseChar@@ABUtagDraculaFlyInfo@@_N@Z:
  0000b	8b 54 24 08	 mov	 edx, DWORD PTR [esp+8]
  0000f	8d 42 0c	 lea	 eax, DWORD PTR [edx+12]
  00012	8b 8a d8 7f ff
	ff		 mov	 ecx, DWORD PTR [edx-32808]
  00018	33 c8		 xor	 ecx, eax
  0001a	e8 00 00 00 00	 call	 @__security_check_cookie@4
  0001f	8b 4a fc	 mov	 ecx, DWORD PTR [edx-4]
  00022	33 c8		 xor	 ecx, eax
  00024	e8 00 00 00 00	 call	 @__security_check_cookie@4
  00029	b8 00 00 00 00	 mov	 eax, OFFSET __ehfuncinfo$?SetFlyState@ioDraculaItem@@QAEXPAVioBaseChar@@ABUtagDraculaFlyInfo@@_N@Z
  0002e	e9 00 00 00 00	 jmp	 ___CxxFrameHandler3
text$x	ENDS
?SetFlyState@ioDraculaItem@@QAEXPAVioBaseChar@@ABUtagDraculaFlyInfo@@_N@Z ENDP ; ioDraculaItem::SetFlyState
PUBLIC	?OnCharging@ioDraculaItem@@IAEXPAVioBaseChar@@@Z ; ioDraculaItem::OnCharging
EXTRN	?IsHasCrown@ioBaseChar@@QBE_NXZ:PROC		; ioBaseChar::IsHasCrown
EXTRN	?IsAttackKeyDown@ioBaseChar@@QBE_NXZ:PROC	; ioBaseChar::IsAttackKeyDown
; Function compile flags: /Ogsp
;	COMDAT ?OnCharging@ioDraculaItem@@IAEXPAVioBaseChar@@@Z
_TEXT	SEGMENT
_value$619597 = 8					; size = 4
_pOwner$ = 8						; size = 4
?OnCharging@ioDraculaItem@@IAEXPAVioBaseChar@@@Z PROC	; ioDraculaItem::OnCharging, COMDAT
; _this$ = ecx

; 245  : {

  00000	55		 push	 ebp
  00001	8b ec		 mov	 ebp, esp
  00003	56		 push	 esi
  00004	57		 push	 edi

; 246  : 	if( !pOwner ) return;

  00005	8b 7d 08	 mov	 edi, DWORD PTR _pOwner$[ebp]
  00008	8b f1		 mov	 esi, ecx
  0000a	85 ff		 test	 edi, edi
  0000c	74 74		 je	 SHORT $LN1@OnCharging

; 247  : 	if( !pOwner->IsNeedProcess() )	return;

  0000e	8b 07		 mov	 eax, DWORD PTR [edi]
  00010	8b cf		 mov	 ecx, edi
  00012	ff 90 00 01 00
	00		 call	 DWORD PTR [eax+256]
  00018	84 c0		 test	 al, al
  0001a	74 66		 je	 SHORT $LN1@OnCharging

; 248  : 
; 249  : 	if( IsEnableGauge() && pOwner->IsAttackKeyDown() && !pOwner->IsHasCrown() )

  0001c	8b ce		 mov	 ecx, esi
  0001e	e8 00 00 00 00	 call	 ?IsEnableGauge@ioDraculaItem@@QAE_NXZ ; ioDraculaItem::IsEnableGauge
  00023	84 c0		 test	 al, al
  00025	74 53		 je	 SHORT $LN3@OnCharging
  00027	8b cf		 mov	 ecx, edi
  00029	e8 00 00 00 00	 call	 ?IsAttackKeyDown@ioBaseChar@@QBE_NXZ ; ioBaseChar::IsAttackKeyDown
  0002e	84 c0		 test	 al, al
  00030	74 48		 je	 SHORT $LN3@OnCharging
  00032	8b cf		 mov	 ecx, edi
  00034	e8 00 00 00 00	 call	 ?IsHasCrown@ioBaseChar@@QBE_NXZ ; ioBaseChar::IsHasCrown
  00039	84 c0		 test	 al, al
  0003b	75 3d		 jne	 SHORT $LN3@OnCharging

; 250  : 	{
; 251  : 		if( m_dwAttackStartTime + m_dwChargeTime <= FRAMEGETTIME() )

  0003d	8d 45 08	 lea	 eax, DWORD PTR _value$619597[ebp]
  00040	50		 push	 eax
  00041	8d 8e b0 18 00
	00		 lea	 ecx, DWORD PTR [esi+6320]
  00047	e8 00 00 00 00	 call	 ?DecryptValueToPool@?$CEncrypt@K@@QAEXPAK@Z ; CEncrypt<unsigned long>::DecryptValueToPool
  0004c	ff 15 00 00 00
	00		 call	 DWORD PTR __imp_?GetSingleton@ioFrameTimer@@SAAAV1@XZ
  00052	8b c8		 mov	 ecx, eax
  00054	ff 15 00 00 00
	00		 call	 DWORD PTR __imp_?GetLoopSec@ioFrameTimer@@QBEKXZ
  0005a	8b 8e 6c 19 00
	00		 mov	 ecx, DWORD PTR [esi+6508]
  00060	03 4d 08	 add	 ecx, DWORD PTR _value$619597[ebp]
  00063	3b c8		 cmp	 ecx, eax
  00065	77 1b		 ja	 SHORT $LN1@OnCharging

; 252  : 		{
; 253  : 			SetFlyState( pOwner, m_AttackFly, true );

  00067	6a 01		 push	 1
  00069	8d 86 44 1a 00
	00		 lea	 eax, DWORD PTR [esi+6724]
  0006f	50		 push	 eax
  00070	57		 push	 edi
  00071	8b ce		 mov	 ecx, esi
  00073	e8 00 00 00 00	 call	 ?SetFlyState@ioDraculaItem@@QAEXPAVioBaseChar@@ABUtagDraculaFlyInfo@@_N@Z ; ioDraculaItem::SetFlyState

; 254  : 			return;

  00078	eb 08		 jmp	 SHORT $LN1@OnCharging
$LN3@OnCharging:

; 255  : 		}
; 256  : 	}
; 257  : 	else
; 258  : 	{
; 259  : 		ChangeToNormalAttack( pOwner );

  0007a	57		 push	 edi
  0007b	8b ce		 mov	 ecx, esi
  0007d	e8 00 00 00 00	 call	 ?ChangeToNormalAttack@ioDraculaItem@@IAEXPAVioBaseChar@@@Z ; ioDraculaItem::ChangeToNormalAttack
$LN1@OnCharging:
  00082	5f		 pop	 edi
  00083	5e		 pop	 esi

; 260  : 	}
; 261  : }

  00084	5d		 pop	 ebp
  00085	c2 04 00	 ret	 4
?OnCharging@ioDraculaItem@@IAEXPAVioBaseChar@@@Z ENDP	; ioDraculaItem::OnCharging
_TEXT	ENDS
EXTRN	??5SP2Packet@@QAEAAV0@AAM@Z:PROC		; SP2Packet::operator>>
EXTRN	?SetTargetRot@ioBaseChar@@QAEXABUD3DXQUATERNION@@@Z:PROC ; ioBaseChar::SetTargetRot
EXTRN	??5SP2Packet@@QAEAAV0@AAUD3DXQUATERNION@@@Z:PROC ; SP2Packet::operator>>
EXTRN	??5SP2Packet@@QAEAAV0@AA_N@Z:PROC		; SP2Packet::operator>>
; Function compile flags: /Ogsp
;	COMDAT ?OnItemGaugeCancel@ioDraculaItem@@UAEXPAVioBaseChar@@AAVSP2Packet@@@Z
_TEXT	SEGMENT
_qtRot$607999 = -28					; size = 16
_qtRot$607994 = -28					; size = 16
_iDir$608000 = -12					; size = 4
_iFlyState$607993 = -12					; size = 4
_iSyncType$ = -8					; size = 4
_bSetDownKey$608002 = -4				; size = 1
_bSetUpKey$608001 = -3					; size = 1
_bChangeUpDown$607998 = -2				; size = 1
_bOptionMove$608003 = -1				; size = 1
_pOwner$ = 8						; size = 4
_value$619615 = 11					; size = 1
_value$619610 = 11					; size = 1
_fCurGauge$607995 = 12					; size = 4
_rkPacket$ = 12						; size = 4
_bChangeDir$607997 = 15					; size = 1
?OnItemGaugeCancel@ioDraculaItem@@UAEXPAVioBaseChar@@AAVSP2Packet@@@Z PROC ; ioDraculaItem::OnItemGaugeCancel, COMDAT
; _this$ = ecx

; 328  : {

  00000	55		 push	 ebp
  00001	8b ec		 mov	 ebp, esp
  00003	83 ec 1c	 sub	 esp, 28			; 0000001cH
  00006	53		 push	 ebx
  00007	56		 push	 esi
  00008	57		 push	 edi

; 329  : 	int iSyncType;
; 330  : 	rkPacket >> iSyncType;

  00009	8b 7d 0c	 mov	 edi, DWORD PTR _rkPacket$[ebp]
  0000c	8d 45 f8	 lea	 eax, DWORD PTR _iSyncType$[ebp]
  0000f	8b f1		 mov	 esi, ecx
  00011	50		 push	 eax
  00012	8b cf		 mov	 ecx, edi
  00014	e8 00 00 00 00	 call	 ??5SP2Packet@@QAEAAV0@AAH@Z ; SP2Packet::operator>>

; 331  : 
; 332  : 	switch( iSyncType )

  00019	8b 45 f8	 mov	 eax, DWORD PTR _iSyncType$[ebp]
  0001c	33 db		 xor	 ebx, ebx
  0001e	2b c3		 sub	 eax, ebx
  00020	0f 84 be 00 00
	00		 je	 $LN5@OnItemGaug@2
  00026	48		 dec	 eax
  00027	0f 85 0b 01 00
	00		 jne	 $LN6@OnItemGaug@2

; 368  : 		}
; 369  : 		break;
; 370  : 	case SST_ROTATE:
; 371  : 		{
; 372  : 			bool bChangeDir, bChangeUpDown;
; 373  : 			rkPacket >> bChangeDir >> bChangeUpDown;

  0002d	8d 45 fe	 lea	 eax, DWORD PTR _bChangeUpDown$607998[ebp]
  00030	50		 push	 eax
  00031	8d 45 0f	 lea	 eax, DWORD PTR _bChangeDir$607997[ebp]
  00034	50		 push	 eax
  00035	8b cf		 mov	 ecx, edi
  00037	e8 00 00 00 00	 call	 ??5SP2Packet@@QAEAAV0@AA_N@Z ; SP2Packet::operator>>
  0003c	8b c8		 mov	 ecx, eax
  0003e	e8 00 00 00 00	 call	 ??5SP2Packet@@QAEAAV0@AA_N@Z ; SP2Packet::operator>>

; 374  : 
; 375  : 			D3DXQUATERNION qtRot;
; 376  : 			rkPacket >> qtRot;

  00043	8d 45 e4	 lea	 eax, DWORD PTR _qtRot$607999[ebp]
  00046	50		 push	 eax
  00047	8b cf		 mov	 ecx, edi
  00049	e8 00 00 00 00	 call	 ??5SP2Packet@@QAEAAV0@AAUD3DXQUATERNION@@@Z ; SP2Packet::operator>>

; 377  : 
; 378  : 			int iDir;
; 379  : 			rkPacket >> iDir;

  0004e	8d 45 f4	 lea	 eax, DWORD PTR _iDir$608000[ebp]
  00051	50		 push	 eax
  00052	8b cf		 mov	 ecx, edi
  00054	e8 00 00 00 00	 call	 ??5SP2Packet@@QAEAAV0@AAH@Z ; SP2Packet::operator>>

; 380  : 
; 381  : 			bool bSetUpKey, bSetDownKey, bOptionMove;
; 382  : 			rkPacket >> bSetUpKey >> bSetDownKey >> bOptionMove;

  00059	8d 45 ff	 lea	 eax, DWORD PTR _bOptionMove$608003[ebp]
  0005c	50		 push	 eax
  0005d	8d 45 fc	 lea	 eax, DWORD PTR _bSetDownKey$608002[ebp]
  00060	50		 push	 eax
  00061	8d 45 fd	 lea	 eax, DWORD PTR _bSetUpKey$608001[ebp]
  00064	50		 push	 eax
  00065	8b cf		 mov	 ecx, edi
  00067	e8 00 00 00 00	 call	 ??5SP2Packet@@QAEAAV0@AA_N@Z ; SP2Packet::operator>>
  0006c	8b c8		 mov	 ecx, eax
  0006e	e8 00 00 00 00	 call	 ??5SP2Packet@@QAEAAV0@AA_N@Z ; SP2Packet::operator>>
  00073	8b c8		 mov	 ecx, eax
  00075	e8 00 00 00 00	 call	 ??5SP2Packet@@QAEAAV0@AA_N@Z ; SP2Packet::operator>>

; 383  : 
; 384  : 			pOwner->SetTargetRot( qtRot );

  0007a	8b 4d 08	 mov	 ecx, DWORD PTR _pOwner$[ebp]
  0007d	8d 45 e4	 lea	 eax, DWORD PTR _qtRot$607999[ebp]
  00080	50		 push	 eax
  00081	e8 00 00 00 00	 call	 ?SetTargetRot@ioBaseChar@@QAEXABUD3DXQUATERNION@@@Z ; ioBaseChar::SetTargetRot

; 385  : 
; 386  : 			if( bChangeDir )

  00086	38 5d 0f	 cmp	 BYTE PTR _bChangeDir$607997[ebp], bl
  00089	74 24		 je	 SHORT $LN2@OnItemGaug@2

; 387  : 			{
; 388  : 				m_PreDirKey = m_CurDirKey;

  0008b	8b 8e bc 19 00
	00		 mov	 ecx, DWORD PTR [esi+6588]
  00091	89 8e c0 19 00
	00		 mov	 DWORD PTR [esi+6592], ecx

; 389  : 				m_CurDirKey = (ioUserKeyInput::DirKeyInput)iDir;

  00097	8b 4d f4	 mov	 ecx, DWORD PTR _iDir$608000[ebp]
  0009a	89 8e bc 19 00
	00		 mov	 DWORD PTR [esi+6588], ecx

; 390  : 
; 391  : 				if( !bOptionMove )

  000a0	38 5d ff	 cmp	 BYTE PTR _bOptionMove$608003[ebp], bl
  000a3	75 0a		 jne	 SHORT $LN2@OnItemGaug@2

; 392  : 					ChangeFlyMove( pOwner );

  000a5	ff 75 08	 push	 DWORD PTR _pOwner$[ebp]
  000a8	8b ce		 mov	 ecx, esi
  000aa	e8 00 00 00 00	 call	 ?ChangeFlyMove@ioDraculaItem@@QAEXPAVioBaseChar@@@Z ; ioDraculaItem::ChangeFlyMove
$LN2@OnItemGaug@2:

; 393  : 			}
; 394  : 
; 395  : 			if( bChangeUpDown )

  000af	38 5d fe	 cmp	 BYTE PTR _bChangeUpDown$607998[ebp], bl
  000b2	0f 84 80 00 00
	00		 je	 $LN6@OnItemGaug@2

; 396  : 			{
; 397  : 				m_bSetUpKey = bSetUpKey;

  000b8	8a 45 fd	 mov	 al, BYTE PTR _bSetUpKey$608001[ebp]
  000bb	88 45 0b	 mov	 BYTE PTR _value$619610[ebp], al
  000be	8d 45 0b	 lea	 eax, DWORD PTR _value$619610[ebp]
  000c1	50		 push	 eax
  000c2	8d 8e c4 19 00
	00		 lea	 ecx, DWORD PTR [esi+6596]
  000c8	e8 00 00 00 00	 call	 ?EncryptValueToPool@?$CEncrypt@_N@@AAEXPBD@Z ; CEncrypt<bool>::EncryptValueToPool

; 398  : 				m_bSetDownKey = bSetDownKey;

  000cd	8a 45 fc	 mov	 al, BYTE PTR _bSetDownKey$608002[ebp]
  000d0	88 45 0b	 mov	 BYTE PTR _value$619615[ebp], al
  000d3	8d 45 0b	 lea	 eax, DWORD PTR _value$619615[ebp]
  000d6	50		 push	 eax
  000d7	8d 8e f4 19 00
	00		 lea	 ecx, DWORD PTR [esi+6644]
  000dd	e8 00 00 00 00	 call	 ?EncryptValueToPool@?$CEncrypt@_N@@AAEXPBD@Z ; CEncrypt<bool>::EncryptValueToPool

; 399  : 			}
; 400  : 		}
; 401  : 		break;

  000e2	eb 54		 jmp	 SHORT $LN6@OnItemGaug@2
$LN5@OnItemGaug@2:

; 333  : 	{
; 334  : 	/*case SST_FLY_ATTACK_START:
; 335  : 		{
; 336  : 			D3DXQUATERNION qtRot;
; 337  : 			rkPacket >> qtRot;
; 338  : 
; 339  : 			pOwner->SetTargetRot( qtRot );
; 340  : 
; 341  : 			//ChangeFlyAttack( pOwner );
; 342  : 		}
; 343  : 		break;*/
; 344  : 	/*case SST_EFFECT:
; 345  : 		{
; 346  : 			float fGauge;
; 347  : 			rkPacket >> fGauge;
; 348  : 
; 349  : 			SetCurGauge( fGauge );
; 350  : 		}
; 351  : 		break;*/
; 352  : 	case SST_FLY_STATE:
; 353  : 		{
; 354  : 			int iFlyState;
; 355  : 			rkPacket >> iFlyState;

  000e4	8d 45 f4	 lea	 eax, DWORD PTR _iFlyState$607993[ebp]
  000e7	50		 push	 eax
  000e8	8b cf		 mov	 ecx, edi
  000ea	e8 00 00 00 00	 call	 ??5SP2Packet@@QAEAAV0@AAH@Z ; SP2Packet::operator>>

; 356  : 
; 357  : 			D3DXQUATERNION qtRot;
; 358  : 			rkPacket >> qtRot;

  000ef	8d 45 e4	 lea	 eax, DWORD PTR _qtRot$607994[ebp]
  000f2	50		 push	 eax
  000f3	8b cf		 mov	 ecx, edi
  000f5	e8 00 00 00 00	 call	 ??5SP2Packet@@QAEAAV0@AAUD3DXQUATERNION@@@Z ; SP2Packet::operator>>

; 359  : 
; 360  : 			float fCurGauge;
; 361  : 			rkPacket >> fCurGauge;

  000fa	8d 45 0c	 lea	 eax, DWORD PTR _fCurGauge$607995[ebp]
  000fd	50		 push	 eax
  000fe	8b cf		 mov	 ecx, edi
  00100	e8 00 00 00 00	 call	 ??5SP2Packet@@QAEAAV0@AAM@Z ; SP2Packet::operator>>

; 362  : 
; 363  : 			SetCurGauge( fCurGauge );

  00105	f3 0f 10 45 0c	 movss	 xmm0, DWORD PTR _fCurGauge$607995[ebp]
  0010a	51		 push	 ecx
  0010b	8b ce		 mov	 ecx, esi
  0010d	f3 0f 11 04 24	 movss	 DWORD PTR [esp], xmm0
  00112	e8 00 00 00 00	 call	 ?SetCurGauge@ioDraculaItem@@QAEXM@Z ; ioDraculaItem::SetCurGauge

; 364  : 
; 365  : 			pOwner->SetTargetRotToRotate( qtRot, true );

  00117	8b 4d 08	 mov	 ecx, DWORD PTR _pOwner$[ebp]
  0011a	53		 push	 ebx
  0011b	6a 01		 push	 1
  0011d	8d 45 e4	 lea	 eax, DWORD PTR _qtRot$607994[ebp]
  00120	50		 push	 eax
  00121	e8 00 00 00 00	 call	 ?SetTargetRotToRotate@ioBaseChar@@QAEXABUD3DXQUATERNION@@_N1@Z ; ioBaseChar::SetTargetRotToRotate

; 366  : 
; 367  : 			SetFlyState( pOwner, m_AttackFly, false );

  00126	53		 push	 ebx
  00127	8d 86 44 1a 00
	00		 lea	 eax, DWORD PTR [esi+6724]
  0012d	50		 push	 eax
  0012e	ff 75 08	 push	 DWORD PTR _pOwner$[ebp]
  00131	8b ce		 mov	 ecx, esi
  00133	e8 00 00 00 00	 call	 ?SetFlyState@ioDraculaItem@@QAEXPAVioBaseChar@@ABUtagDraculaFlyInfo@@_N@Z ; ioDraculaItem::SetFlyState
$LN6@OnItemGaug@2:
  00138	5f		 pop	 edi
  00139	5e		 pop	 esi
  0013a	5b		 pop	 ebx

; 402  : 	}
; 403  : }

  0013b	c9		 leave
  0013c	c2 08 00	 ret	 8
?OnItemGaugeCancel@ioDraculaItem@@UAEXPAVioBaseChar@@AAVSP2Packet@@@Z ENDP ; ioDraculaItem::OnItemGaugeCancel
_TEXT	ENDS
EXTRN	?CheckNormalAttack@ioAttackableItem@@UAEXPAVioBaseChar@@@Z:PROC ; ioAttackableItem::CheckNormalAttack
; Function compile flags: /Ogsp
;	COMDAT ?CheckNormalAttack@ioDraculaItem@@UAEXPAVioBaseChar@@@Z
_TEXT	SEGMENT
_pOwner$ = 8						; size = 4
?CheckNormalAttack@ioDraculaItem@@UAEXPAVioBaseChar@@@Z PROC ; ioDraculaItem::CheckNormalAttack, COMDAT
; _this$ = ecx

; 223  : {

  00000	55		 push	 ebp
  00001	8b ec		 mov	 ebp, esp
  00003	56		 push	 esi
  00004	8b f1		 mov	 esi, ecx

; 224  : 	switch( m_ChargeState )

  00006	8b 86 64 19 00
	00		 mov	 eax, DWORD PTR [esi+6500]
  0000c	48		 dec	 eax
  0000d	57		 push	 edi
  0000e	74 38		 je	 SHORT $LN4@CheckNorma
  00010	48		 dec	 eax
  00011	75 3d		 jne	 SHORT $LN5@CheckNorma

; 228  : 		break;
; 229  : 	case CS_NORMAL_ATTACK:
; 230  : 
; 231  : 		if( pOwner->IsNeedProcess() )

  00013	8b 7d 08	 mov	 edi, DWORD PTR _pOwner$[ebp]
  00016	8b 07		 mov	 eax, DWORD PTR [edi]
  00018	8b cf		 mov	 ecx, edi
  0001a	ff 90 00 01 00
	00		 call	 DWORD PTR [eax+256]
  00020	84 c0		 test	 al, al
  00022	74 1a		 je	 SHORT $LN1@CheckNorma

; 232  : 		{
; 233  : 			CheckCancelReserve( pOwner );

  00024	8b 06		 mov	 eax, DWORD PTR [esi]
  00026	57		 push	 edi
  00027	8b ce		 mov	 ecx, esi
  00029	ff 90 40 02 00
	00		 call	 DWORD PTR [eax+576]

; 234  : 
; 235  : 			if( ProcessCancel(pOwner) )

  0002f	8b 06		 mov	 eax, DWORD PTR [esi]
  00031	57		 push	 edi
  00032	8b ce		 mov	 ecx, esi
  00034	ff 90 48 02 00
	00		 call	 DWORD PTR [eax+584]
  0003a	84 c0		 test	 al, al
  0003c	75 12		 jne	 SHORT $LN5@CheckNorma
$LN1@CheckNorma:

; 236  : 				return;
; 237  : 		}
; 238  : 
; 239  : 		ioWeaponItem::CheckNormalAttack( pOwner );

  0003e	57		 push	 edi
  0003f	8b ce		 mov	 ecx, esi
  00041	e8 00 00 00 00	 call	 ?CheckNormalAttack@ioAttackableItem@@UAEXPAVioBaseChar@@@Z ; ioAttackableItem::CheckNormalAttack

; 240  : 		break;

  00046	eb 08		 jmp	 SHORT $LN5@CheckNorma
$LN4@CheckNorma:

; 225  : 	{
; 226  : 	case CS_CHARGING:
; 227  : 		OnCharging( pOwner );

  00048	ff 75 08	 push	 DWORD PTR _pOwner$[ebp]
  0004b	e8 00 00 00 00	 call	 ?OnCharging@ioDraculaItem@@IAEXPAVioBaseChar@@@Z ; ioDraculaItem::OnCharging
$LN5@CheckNorma:
  00050	5f		 pop	 edi
  00051	5e		 pop	 esi

; 241  : 	}
; 242  : }

  00052	5d		 pop	 ebp
  00053	c2 04 00	 ret	 4
?CheckNormalAttack@ioDraculaItem@@UAEXPAVioBaseChar@@@Z ENDP ; ioDraculaItem::CheckNormalAttack
_TEXT	ENDS
END
