; Listing generated by Microsoft (R) Optimizing Compiler Version 16.00.30319.01 

	TITLE	D:\Lost Saga For Developer\Youtube\Tutorial\Source\src\LSClient\ioDummyCharAniEventHandler.cpp
	.686P
	.XMM
	include listing.inc
	.model	flat

INCLUDELIB MSVCRT
INCLUDELIB OLDNAMES

PUBLIC	?SetCreateChar@ioDummyCharAniEventHandler@@QAEXPAVioDummyChar@@@Z ; ioDummyCharAniEventHandler::SetCreateChar
; Function compile flags: /Ogsp
; File d:\lost saga for developer\youtube\tutorial\source\src\lsclient\iodummycharanieventhandler.cpp
;	COMDAT ?SetCreateChar@ioDummyCharAniEventHandler@@QAEXPAVioDummyChar@@@Z
_TEXT	SEGMENT
_pChar$ = 8						; size = 4
?SetCreateChar@ioDummyCharAniEventHandler@@QAEXPAVioDummyChar@@@Z PROC ; ioDummyCharAniEventHandler::SetCreateChar, COMDAT
; _this$ = ecx

; 17   : {

  00000	55		 push	 ebp
  00001	8b ec		 mov	 ebp, esp

; 18   : 	m_pChar = pChar;

  00003	8b 45 08	 mov	 eax, DWORD PTR _pChar$[ebp]
  00006	89 41 18	 mov	 DWORD PTR [ecx+24], eax

; 19   : }

  00009	5d		 pop	 ebp
  0000a	c2 04 00	 ret	 4
?SetCreateChar@ioDummyCharAniEventHandler@@QAEXPAVioDummyChar@@@Z ENDP ; ioDummyCharAniEventHandler::SetCreateChar
_TEXT	ENDS
PUBLIC	?OnAutoEffect@ioDummyCharAniEventHandler@@IAEXPBUAniEventTime@@PBVioAnimation@@@Z ; ioDummyCharAniEventHandler::OnAutoEffect
EXTRN	?AttachEffect@ioDummyChar@@QAEPAVioEffect@@ABVioHashString@@PAVioEntityEvent@@@Z:PROC ; ioDummyChar::AttachEffect
; Function compile flags: /Ogsp
;	COMDAT ?OnAutoEffect@ioDummyCharAniEventHandler@@IAEXPBUAniEventTime@@PBVioAnimation@@@Z
_TEXT	SEGMENT
_pEvent$ = 8						; size = 4
_pNotifier$ = 12					; size = 4
?OnAutoEffect@ioDummyCharAniEventHandler@@IAEXPBUAniEventTime@@PBVioAnimation@@@Z PROC ; ioDummyCharAniEventHandler::OnAutoEffect, COMDAT
; _this$ = ecx

; 41   : {

  00000	55		 push	 ebp
  00001	8b ec		 mov	 ebp, esp

; 42   : 	m_pChar->AttachEffect( pEvent->szSubInfo, NULL );

  00003	8b 45 08	 mov	 eax, DWORD PTR _pEvent$[ebp]
  00006	8b 49 18	 mov	 ecx, DWORD PTR [ecx+24]
  00009	6a 00		 push	 0
  0000b	83 c0 14	 add	 eax, 20			; 00000014H
  0000e	50		 push	 eax
  0000f	e8 00 00 00 00	 call	 ?AttachEffect@ioDummyChar@@QAEPAVioEffect@@ABVioHashString@@PAVioEntityEvent@@@Z ; ioDummyChar::AttachEffect

; 43   : }

  00014	5d		 pop	 ebp
  00015	c2 08 00	 ret	 8
?OnAutoEffect@ioDummyCharAniEventHandler@@IAEXPBUAniEventTime@@PBVioAnimation@@@Z ENDP ; ioDummyCharAniEventHandler::OnAutoEffect
_TEXT	ENDS
PUBLIC	??0AniEventInfo@@QAE@XZ				; AniEventInfo::AniEventInfo
EXTRN	__imp_??1ioHashString@@QAE@XZ:PROC
EXTRN	__imp_??0ioHashString@@QAE@XZ:PROC
EXTRN	___CxxFrameHandler3:PROC
EXTRN	@__security_check_cookie@4:PROC
EXTRN	__EH_epilog3:PROC
EXTRN	__EH_prolog3:PROC
;	COMDAT xdata$x
xdata$x	SEGMENT
__unwindtable$??0AniEventInfo@@QAE@XZ DD 0ffffffffH
	DD	FLAT:__unwindfunclet$??0AniEventInfo@@QAE@XZ$0
__ehfuncinfo$??0AniEventInfo@@QAE@XZ DD 019930522H
	DD	01H
	DD	FLAT:__unwindtable$??0AniEventInfo@@QAE@XZ
	DD	2 DUP(00H)
	DD	2 DUP(00H)
	DD	00H
	DD	01H
; Function compile flags: /Ogsp
xdata$x	ENDS
;	COMDAT ??0AniEventInfo@@QAE@XZ
_TEXT	SEGMENT
_this$ = -16						; size = 4
__$EHRec$ = -12						; size = 12
??0AniEventInfo@@QAE@XZ PROC				; AniEventInfo::AniEventInfo, COMDAT
; _this$ = ecx
  00000	6a 04		 push	 4
  00002	b8 00 00 00 00	 mov	 eax, __ehhandler$??0AniEventInfo@@QAE@XZ
  00007	e8 00 00 00 00	 call	 __EH_prolog3
  0000c	8b f9		 mov	 edi, ecx
  0000e	89 7d f0	 mov	 DWORD PTR _this$[ebp], edi
  00011	8b 35 00 00 00
	00		 mov	 esi, DWORD PTR __imp_??0ioHashString@@QAE@XZ
  00017	ff d6		 call	 esi
  00019	83 65 fc 00	 and	 DWORD PTR __$EHRec$[ebp+8], 0
  0001d	8d 4f 10	 lea	 ecx, DWORD PTR [edi+16]
  00020	ff d6		 call	 esi
  00022	8b c7		 mov	 eax, edi
  00024	e8 00 00 00 00	 call	 __EH_epilog3
  00029	c3		 ret	 0
_TEXT	ENDS
;	COMDAT text$x
text$x	SEGMENT
__unwindfunclet$??0AniEventInfo@@QAE@XZ$0:
  00000	8b 4d f0	 mov	 ecx, DWORD PTR _this$[ebp]
  00003	ff 25 00 00 00
	00		 jmp	 DWORD PTR __imp_??1ioHashString@@QAE@XZ
__ehhandler$??0AniEventInfo@@QAE@XZ:
  00009	8b 54 24 08	 mov	 edx, DWORD PTR [esp+8]
  0000d	8d 42 0c	 lea	 eax, DWORD PTR [edx+12]
  00010	8b 4a ec	 mov	 ecx, DWORD PTR [edx-20]
  00013	33 c8		 xor	 ecx, eax
  00015	e8 00 00 00 00	 call	 @__security_check_cookie@4
  0001a	b8 00 00 00 00	 mov	 eax, OFFSET __ehfuncinfo$??0AniEventInfo@@QAE@XZ
  0001f	e9 00 00 00 00	 jmp	 ___CxxFrameHandler3
text$x	ENDS
??0AniEventInfo@@QAE@XZ ENDP				; AniEventInfo::AniEventInfo
PUBLIC	??1AniEventInfo@@QAE@XZ				; AniEventInfo::~AniEventInfo
;	COMDAT xdata$x
xdata$x	SEGMENT
__unwindtable$??1AniEventInfo@@QAE@XZ DD 0ffffffffH
	DD	FLAT:__unwindfunclet$??1AniEventInfo@@QAE@XZ$0
__ehfuncinfo$??1AniEventInfo@@QAE@XZ DD 019930522H
	DD	01H
	DD	FLAT:__unwindtable$??1AniEventInfo@@QAE@XZ
	DD	2 DUP(00H)
	DD	2 DUP(00H)
	DD	00H
	DD	01H
; Function compile flags: /Ogsp
xdata$x	ENDS
;	COMDAT ??1AniEventInfo@@QAE@XZ
_TEXT	SEGMENT
_this$ = -16						; size = 4
__$EHRec$ = -12						; size = 12
??1AniEventInfo@@QAE@XZ PROC				; AniEventInfo::~AniEventInfo, COMDAT
; _this$ = ecx
  00000	6a 04		 push	 4
  00002	b8 00 00 00 00	 mov	 eax, __ehhandler$??1AniEventInfo@@QAE@XZ
  00007	e8 00 00 00 00	 call	 __EH_prolog3
  0000c	8b f9		 mov	 edi, ecx
  0000e	89 7d f0	 mov	 DWORD PTR _this$[ebp], edi
  00011	8b 35 00 00 00
	00		 mov	 esi, DWORD PTR __imp_??1ioHashString@@QAE@XZ
  00017	83 65 fc 00	 and	 DWORD PTR __$EHRec$[ebp+8], 0
  0001b	8d 4f 10	 lea	 ecx, DWORD PTR [edi+16]
  0001e	ff d6		 call	 esi
  00020	83 4d fc ff	 or	 DWORD PTR __$EHRec$[ebp+8], -1
  00024	8b cf		 mov	 ecx, edi
  00026	ff d6		 call	 esi
  00028	e8 00 00 00 00	 call	 __EH_epilog3
  0002d	c3		 ret	 0
_TEXT	ENDS
;	COMDAT text$x
text$x	SEGMENT
__unwindfunclet$??1AniEventInfo@@QAE@XZ$0:
  00000	8b 4d f0	 mov	 ecx, DWORD PTR _this$[ebp]
  00003	ff 25 00 00 00
	00		 jmp	 DWORD PTR __imp_??1ioHashString@@QAE@XZ
__ehhandler$??1AniEventInfo@@QAE@XZ:
  00009	8b 54 24 08	 mov	 edx, DWORD PTR [esp+8]
  0000d	8d 42 0c	 lea	 eax, DWORD PTR [edx+12]
  00010	8b 4a ec	 mov	 ecx, DWORD PTR [edx-20]
  00013	33 c8		 xor	 ecx, eax
  00015	e8 00 00 00 00	 call	 @__security_check_cookie@4
  0001a	b8 00 00 00 00	 mov	 eax, OFFSET __ehfuncinfo$??1AniEventInfo@@QAE@XZ
  0001f	e9 00 00 00 00	 jmp	 ___CxxFrameHandler3
text$x	ENDS
??1AniEventInfo@@QAE@XZ ENDP				; AniEventInfo::~AniEventInfo
PUBLIC	??0AniEventInfo@@QAE@ABU0@@Z			; AniEventInfo::AniEventInfo
EXTRN	__imp_??0ioHashString@@QAE@ABV0@@Z:PROC
;	COMDAT xdata$x
xdata$x	SEGMENT
__unwindtable$??0AniEventInfo@@QAE@ABU0@@Z DD 0ffffffffH
	DD	FLAT:__unwindfunclet$??0AniEventInfo@@QAE@ABU0@@Z$0
__ehfuncinfo$??0AniEventInfo@@QAE@ABU0@@Z DD 019930522H
	DD	01H
	DD	FLAT:__unwindtable$??0AniEventInfo@@QAE@ABU0@@Z
	DD	2 DUP(00H)
	DD	2 DUP(00H)
	DD	00H
	DD	01H
; Function compile flags: /Ogsp
xdata$x	ENDS
;	COMDAT ??0AniEventInfo@@QAE@ABU0@@Z
_TEXT	SEGMENT
_this$ = -16						; size = 4
__$EHRec$ = -12						; size = 12
___that$ = 8						; size = 4
??0AniEventInfo@@QAE@ABU0@@Z PROC			; AniEventInfo::AniEventInfo, COMDAT
; _this$ = ecx
  00000	6a 04		 push	 4
  00002	b8 00 00 00 00	 mov	 eax, __ehhandler$??0AniEventInfo@@QAE@ABU0@@Z
  00007	e8 00 00 00 00	 call	 __EH_prolog3
  0000c	8b f9		 mov	 edi, ecx
  0000e	89 7d f0	 mov	 DWORD PTR _this$[ebp], edi
  00011	8b 5d 08	 mov	 ebx, DWORD PTR ___that$[ebp]
  00014	8b 35 00 00 00
	00		 mov	 esi, DWORD PTR __imp_??0ioHashString@@QAE@ABV0@@Z
  0001a	53		 push	 ebx
  0001b	ff d6		 call	 esi
  0001d	83 65 fc 00	 and	 DWORD PTR __$EHRec$[ebp+8], 0
  00021	83 c3 10	 add	 ebx, 16			; 00000010H
  00024	53		 push	 ebx
  00025	8d 4f 10	 lea	 ecx, DWORD PTR [edi+16]
  00028	ff d6		 call	 esi
  0002a	8b c7		 mov	 eax, edi
  0002c	e8 00 00 00 00	 call	 __EH_epilog3
  00031	c2 04 00	 ret	 4
_TEXT	ENDS
;	COMDAT text$x
text$x	SEGMENT
__unwindfunclet$??0AniEventInfo@@QAE@ABU0@@Z$0:
  00000	8b 4d f0	 mov	 ecx, DWORD PTR _this$[ebp]
  00003	ff 25 00 00 00
	00		 jmp	 DWORD PTR __imp_??1ioHashString@@QAE@XZ
__ehhandler$??0AniEventInfo@@QAE@ABU0@@Z:
  00009	8b 54 24 08	 mov	 edx, DWORD PTR [esp+8]
  0000d	8d 42 0c	 lea	 eax, DWORD PTR [edx+12]
  00010	8b 4a ec	 mov	 ecx, DWORD PTR [edx-20]
  00013	33 c8		 xor	 ecx, eax
  00015	e8 00 00 00 00	 call	 @__security_check_cookie@4
  0001a	b8 00 00 00 00	 mov	 eax, OFFSET __ehfuncinfo$??0AniEventInfo@@QAE@ABU0@@Z
  0001f	e9 00 00 00 00	 jmp	 ___CxxFrameHandler3
text$x	ENDS
??0AniEventInfo@@QAE@ABU0@@Z ENDP			; AniEventInfo::AniEventInfo
PUBLIC	?empty@?$vector@UAniEventInfo@@V?$allocator@UAniEventInfo@@@std@@@std@@QBE_NXZ ; std::vector<AniEventInfo,std::allocator<AniEventInfo> >::empty
; Function compile flags: /Ogsp
; File c:\program files (x86)\microsoft visual studio 10.0\vc\include\vector
;	COMDAT ?empty@?$vector@UAniEventInfo@@V?$allocator@UAniEventInfo@@@std@@@std@@QBE_NXZ
_TEXT	SEGMENT
?empty@?$vector@UAniEventInfo@@V?$allocator@UAniEventInfo@@@std@@@std@@QBE_NXZ PROC ; std::vector<AniEventInfo,std::allocator<AniEventInfo> >::empty, COMDAT
; _this$ = ecx

; 889  : 		return (this->_Myfirst == this->_Mylast);

  00000	8b 01		 mov	 eax, DWORD PTR [ecx]
  00002	2b 41 04	 sub	 eax, DWORD PTR [ecx+4]
  00005	f7 d8		 neg	 eax
  00007	1b c0		 sbb	 eax, eax
  00009	40		 inc	 eax

; 890  : 		}

  0000a	c3		 ret	 0
?empty@?$vector@UAniEventInfo@@V?$allocator@UAniEventInfo@@@std@@@std@@QBE_NXZ ENDP ; std::vector<AniEventInfo,std::allocator<AniEventInfo> >::empty
_TEXT	ENDS
PUBLIC	?_Inside@?$vector@UAniEventInfo@@V?$allocator@UAniEventInfo@@@std@@@std@@IBE_NPBUAniEventInfo@@@Z ; std::vector<AniEventInfo,std::allocator<AniEventInfo> >::_Inside
; Function compile flags: /Ogsp
;	COMDAT ?_Inside@?$vector@UAniEventInfo@@V?$allocator@UAniEventInfo@@@std@@@std@@IBE_NPBUAniEventInfo@@@Z
_TEXT	SEGMENT
__Ptr$ = 8						; size = 4
?_Inside@?$vector@UAniEventInfo@@V?$allocator@UAniEventInfo@@@std@@@std@@IBE_NPBUAniEventInfo@@@Z PROC ; std::vector<AniEventInfo,std::allocator<AniEventInfo> >::_Inside, COMDAT
; _this$ = ecx

; 1285 : 		{	// test if _Ptr points inside vector

  00000	55		 push	 ebp
  00001	8b ec		 mov	 ebp, esp

; 1286 : 		return (_Ptr < this->_Mylast && this->_Myfirst <= _Ptr);

  00003	8b 45 08	 mov	 eax, DWORD PTR __Ptr$[ebp]
  00006	3b 41 04	 cmp	 eax, DWORD PTR [ecx+4]
  00009	73 09		 jae	 SHORT $LN3@Inside
  0000b	39 01		 cmp	 DWORD PTR [ecx], eax
  0000d	77 05		 ja	 SHORT $LN3@Inside
  0000f	33 c0		 xor	 eax, eax
  00011	40		 inc	 eax
  00012	eb 02		 jmp	 SHORT $LN4@Inside
$LN3@Inside:
  00014	33 c0		 xor	 eax, eax
$LN4@Inside:

; 1287 : 		}

  00016	5d		 pop	 ebp
  00017	c2 04 00	 ret	 4
?_Inside@?$vector@UAniEventInfo@@V?$allocator@UAniEventInfo@@@std@@@std@@IBE_NPBUAniEventInfo@@@Z ENDP ; std::vector<AniEventInfo,std::allocator<AniEventInfo> >::_Inside
_TEXT	ENDS
PUBLIC	?_Orphan_range@?$vector@UAniEventInfo@@V?$allocator@UAniEventInfo@@@std@@@std@@IBEXPAUAniEventInfo@@0@Z ; std::vector<AniEventInfo,std::allocator<AniEventInfo> >::_Orphan_range
; Function compile flags: /Ogsp
;	COMDAT ?_Orphan_range@?$vector@UAniEventInfo@@V?$allocator@UAniEventInfo@@@std@@@std@@IBEXPAUAniEventInfo@@0@Z
_TEXT	SEGMENT
___formal$ = 8						; size = 4
___formal$ = 12						; size = 4
?_Orphan_range@?$vector@UAniEventInfo@@V?$allocator@UAniEventInfo@@@std@@@std@@IBEXPAUAniEventInfo@@0@Z PROC ; std::vector<AniEventInfo,std::allocator<AniEventInfo> >::_Orphan_range, COMDAT
; _this$ = ecx

; 1454 : 		}

  00000	c2 08 00	 ret	 8
?_Orphan_range@?$vector@UAniEventInfo@@V?$allocator@UAniEventInfo@@@std@@@std@@IBEXPAUAniEventInfo@@0@Z ENDP ; std::vector<AniEventInfo,std::allocator<AniEventInfo> >::_Orphan_range
_TEXT	ENDS
PUBLIC	??1?$_Vector_val@UAniEventInfo@@V?$allocator@UAniEventInfo@@@std@@@std@@QAE@XZ ; std::_Vector_val<AniEventInfo,std::allocator<AniEventInfo> >::~_Vector_val<AniEventInfo,std::allocator<AniEventInfo> >
; Function compile flags: /Ogsp
;	COMDAT ??1?$_Vector_val@UAniEventInfo@@V?$allocator@UAniEventInfo@@@std@@@std@@QAE@XZ
_TEXT	SEGMENT
??1?$_Vector_val@UAniEventInfo@@V?$allocator@UAniEventInfo@@@std@@@std@@QAE@XZ PROC ; std::_Vector_val<AniEventInfo,std::allocator<AniEventInfo> >::~_Vector_val<AniEventInfo,std::allocator<AniEventInfo> >, COMDAT
; _this$ = ecx

; 434  : 		}

  00000	c3		 ret	 0
??1?$_Vector_val@UAniEventInfo@@V?$allocator@UAniEventInfo@@@std@@@std@@QAE@XZ ENDP ; std::_Vector_val<AniEventInfo,std::allocator<AniEventInfo> >::~_Vector_val<AniEventInfo,std::allocator<AniEventInfo> >
_TEXT	ENDS
PUBLIC	??0?$allocator@UAniEventInfo@@@std@@QAE@XZ	; std::allocator<AniEventInfo>::allocator<AniEventInfo>
; Function compile flags: /Ogsp
; File c:\program files (x86)\microsoft visual studio 10.0\vc\include\xmemory
;	COMDAT ??0?$allocator@UAniEventInfo@@@std@@QAE@XZ
_TEXT	SEGMENT
??0?$allocator@UAniEventInfo@@@std@@QAE@XZ PROC		; std::allocator<AniEventInfo>::allocator<AniEventInfo>, COMDAT
; _this$ = ecx

; 161  : 	_ALLOCATOR() _THROW0()

  00000	8b c1		 mov	 eax, ecx

; 162  : 		{	// construct default allocator (do nothing)
; 163  : 		}

  00002	c3		 ret	 0
??0?$allocator@UAniEventInfo@@@std@@QAE@XZ ENDP		; std::allocator<AniEventInfo>::allocator<AniEventInfo>
_TEXT	ENDS
PUBLIC	??D?$_Vector_const_iterator@V?$_Vector_val@UAniEventInfo@@V?$allocator@UAniEventInfo@@@std@@@std@@@std@@QBEABUAniEventInfo@@XZ ; std::_Vector_const_iterator<std::_Vector_val<AniEventInfo,std::allocator<AniEventInfo> > >::operator*
; Function compile flags: /Ogsp
; File c:\program files (x86)\microsoft visual studio 10.0\vc\include\vector
;	COMDAT ??D?$_Vector_const_iterator@V?$_Vector_val@UAniEventInfo@@V?$allocator@UAniEventInfo@@@std@@@std@@@std@@QBEABUAniEventInfo@@XZ
_TEXT	SEGMENT
??D?$_Vector_const_iterator@V?$_Vector_val@UAniEventInfo@@V?$allocator@UAniEventInfo@@@std@@@std@@@std@@QBEABUAniEventInfo@@XZ PROC ; std::_Vector_const_iterator<std::_Vector_val<AniEventInfo,std::allocator<AniEventInfo> > >::operator*, COMDAT
; _this$ = ecx

; 64   :  #if _ITERATOR_DEBUG_LEVEL == 2
; 65   : 		if (this->_Getcont() == 0
; 66   : 			|| this->_Ptr == 0
; 67   : 			|| this->_Ptr < ((_Myvec *)this->_Getcont())->_Myfirst
; 68   : 			|| ((_Myvec *)this->_Getcont())->_Mylast <= this->_Ptr)
; 69   : 			{	// report error
; 70   : 			_DEBUG_ERROR("vector iterator not dereferencable");
; 71   : 			_SCL_SECURE_OUT_OF_RANGE;
; 72   : 			}
; 73   : 
; 74   :  #elif _ITERATOR_DEBUG_LEVEL == 1
; 75   : 		_SCL_SECURE_VALIDATE(this->_Getcont() != 0);
; 76   : 		_SCL_SECURE_VALIDATE_RANGE(
; 77   : 			this->_Ptr != 0
; 78   : 			&& ((_Myvec *)this->_Getcont())->_Myfirst <= this->_Ptr
; 79   : 			&& this->_Ptr < ((_Myvec *)this->_Getcont())->_Mylast);
; 80   :  #endif /* _ITERATOR_DEBUG_LEVEL */
; 81   : 
; 82   : 		__analysis_assume(this->_Ptr != 0);
; 83   : 
; 84   : 		return (*this->_Ptr);

  00000	8b 01		 mov	 eax, DWORD PTR [ecx]

; 85   : 		}

  00002	c3		 ret	 0
??D?$_Vector_const_iterator@V?$_Vector_val@UAniEventInfo@@V?$allocator@UAniEventInfo@@@std@@@std@@@std@@QBEABUAniEventInfo@@XZ ENDP ; std::_Vector_const_iterator<std::_Vector_val<AniEventInfo,std::allocator<AniEventInfo> > >::operator*
_TEXT	ENDS
PUBLIC	??E?$_Vector_const_iterator@V?$_Vector_val@UAniEventInfo@@V?$allocator@UAniEventInfo@@@std@@@std@@@std@@QAEAAV01@XZ ; std::_Vector_const_iterator<std::_Vector_val<AniEventInfo,std::allocator<AniEventInfo> > >::operator++
; Function compile flags: /Ogsp
;	COMDAT ??E?$_Vector_const_iterator@V?$_Vector_val@UAniEventInfo@@V?$allocator@UAniEventInfo@@@std@@@std@@@std@@QAEAAV01@XZ
_TEXT	SEGMENT
??E?$_Vector_const_iterator@V?$_Vector_val@UAniEventInfo@@V?$allocator@UAniEventInfo@@@std@@@std@@@std@@QAEAAV01@XZ PROC ; std::_Vector_const_iterator<std::_Vector_val<AniEventInfo,std::allocator<AniEventInfo> > >::operator++, COMDAT
; _this$ = ecx

; 93   : 		{	// preincrement

  00000	8b c1		 mov	 eax, ecx

; 94   :  #if _ITERATOR_DEBUG_LEVEL == 2
; 95   : 		if (this->_Getcont() == 0
; 96   : 			|| this->_Ptr == 0
; 97   : 			|| ((_Myvec *)this->_Getcont())->_Mylast <= this->_Ptr)
; 98   : 			{	// report error
; 99   : 			_DEBUG_ERROR("vector iterator not incrementable");
; 100  : 			_SCL_SECURE_OUT_OF_RANGE;
; 101  : 			}
; 102  : 
; 103  :  #elif _ITERATOR_DEBUG_LEVEL == 1
; 104  : 		_SCL_SECURE_VALIDATE(this->_Getcont() != 0);
; 105  : 		_SCL_SECURE_VALIDATE_RANGE(
; 106  : 			this->_Ptr != 0
; 107  : 			&& this->_Ptr < ((_Myvec *)this->_Getcont())->_Mylast);
; 108  :  #endif /* _ITERATOR_DEBUG_LEVEL */
; 109  : 
; 110  : 		++this->_Ptr;

  00002	83 00 20	 add	 DWORD PTR [eax], 32	; 00000020H

; 111  : 		return (*this);
; 112  : 		}

  00005	c3		 ret	 0
??E?$_Vector_const_iterator@V?$_Vector_val@UAniEventInfo@@V?$allocator@UAniEventInfo@@@std@@@std@@@std@@QAEAAV01@XZ ENDP ; std::_Vector_const_iterator<std::_Vector_val<AniEventInfo,std::allocator<AniEventInfo> > >::operator++
_TEXT	ENDS
PUBLIC	?capacity@?$vector@UAniEventInfo@@V?$allocator@UAniEventInfo@@@std@@@std@@QBEIXZ ; std::vector<AniEventInfo,std::allocator<AniEventInfo> >::capacity
; Function compile flags: /Ogsp
;	COMDAT ?capacity@?$vector@UAniEventInfo@@V?$allocator@UAniEventInfo@@@std@@@std@@QBEIXZ
_TEXT	SEGMENT
?capacity@?$vector@UAniEventInfo@@V?$allocator@UAniEventInfo@@@std@@@std@@QBEIXZ PROC ; std::vector<AniEventInfo,std::allocator<AniEventInfo> >::capacity, COMDAT
; _this$ = ecx

; 777  : 		return (this->_Myend - this->_Myfirst);

  00000	8b 41 08	 mov	 eax, DWORD PTR [ecx+8]
  00003	2b 01		 sub	 eax, DWORD PTR [ecx]
  00005	c1 f8 05	 sar	 eax, 5

; 778  : 		}

  00008	c3		 ret	 0
?capacity@?$vector@UAniEventInfo@@V?$allocator@UAniEventInfo@@@std@@@std@@QBEIXZ ENDP ; std::vector<AniEventInfo,std::allocator<AniEventInfo> >::capacity
_TEXT	ENDS
PUBLIC	?size@?$vector@UAniEventInfo@@V?$allocator@UAniEventInfo@@@std@@@std@@QBEIXZ ; std::vector<AniEventInfo,std::allocator<AniEventInfo> >::size
; Function compile flags: /Ogsp
;	COMDAT ?size@?$vector@UAniEventInfo@@V?$allocator@UAniEventInfo@@@std@@@std@@QBEIXZ
_TEXT	SEGMENT
?size@?$vector@UAniEventInfo@@V?$allocator@UAniEventInfo@@@std@@@std@@QBEIXZ PROC ; std::vector<AniEventInfo,std::allocator<AniEventInfo> >::size, COMDAT
; _this$ = ecx

; 879  : 		return (this->_Mylast - this->_Myfirst);

  00000	8b 41 04	 mov	 eax, DWORD PTR [ecx+4]
  00003	2b 01		 sub	 eax, DWORD PTR [ecx]
  00005	c1 f8 05	 sar	 eax, 5

; 880  : 		}

  00008	c3		 ret	 0
?size@?$vector@UAniEventInfo@@V?$allocator@UAniEventInfo@@@std@@@std@@QBEIXZ ENDP ; std::vector<AniEventInfo,std::allocator<AniEventInfo> >::size
_TEXT	ENDS
PUBLIC	??_C@_0BD@OLBABOEK@vector?$DMT?$DO?5too?5long?$AA@ ; `string'
PUBLIC	?_Xlen@?$vector@UAniEventInfo@@V?$allocator@UAniEventInfo@@@std@@@std@@IBEXXZ ; std::vector<AniEventInfo,std::allocator<AniEventInfo> >::_Xlen
EXTRN	__imp_?_Xlength_error@std@@YAXPBD@Z:PROC
;	COMDAT ??_C@_0BD@OLBABOEK@vector?$DMT?$DO?5too?5long?$AA@
CONST	SEGMENT
??_C@_0BD@OLBABOEK@vector?$DMT?$DO?5too?5long?$AA@ DB 'vector<T> too long'
	DB	00H						; `string'
; Function compile flags: /Ogsp
CONST	ENDS
;	COMDAT ?_Xlen@?$vector@UAniEventInfo@@V?$allocator@UAniEventInfo@@@std@@@std@@IBEXXZ
_TEXT	SEGMENT
?_Xlen@?$vector@UAniEventInfo@@V?$allocator@UAniEventInfo@@@std@@@std@@IBEXXZ PROC ; std::vector<AniEventInfo,std::allocator<AniEventInfo> >::_Xlen, COMDAT
; _this$ = ecx

; 1427 : 		_Xlength_error("vector<T> too long");

  00000	68 00 00 00 00	 push	 OFFSET ??_C@_0BD@OLBABOEK@vector?$DMT?$DO?5too?5long?$AA@
  00005	ff 15 00 00 00
	00		 call	 DWORD PTR __imp_?_Xlength_error@std@@YAXPBD@Z
$LN4@Xlen:
$LN3@Xlen:
  0000b	cc		 int	 3
?_Xlen@?$vector@UAniEventInfo@@V?$allocator@UAniEventInfo@@@std@@@std@@IBEXXZ ENDP ; std::vector<AniEventInfo,std::allocator<AniEventInfo> >::_Xlen
_TEXT	ENDS
PUBLIC	??0?$allocator@UAniEventInfo@@@std@@QAE@ABV01@@Z ; std::allocator<AniEventInfo>::allocator<AniEventInfo>
; Function compile flags: /Ogsp
; File c:\program files (x86)\microsoft visual studio 10.0\vc\include\xmemory
;	COMDAT ??0?$allocator@UAniEventInfo@@@std@@QAE@ABV01@@Z
_TEXT	SEGMENT
___formal$ = 8						; size = 4
??0?$allocator@UAniEventInfo@@@std@@QAE@ABV01@@Z PROC	; std::allocator<AniEventInfo>::allocator<AniEventInfo>, COMDAT
; _this$ = ecx

; 165  : 	_ALLOCATOR(const _ALLOCATOR<_Ty>&) _THROW0()

  00000	8b c1		 mov	 eax, ecx

; 166  : 		{	// construct by copying (do nothing)
; 167  : 		}

  00002	c2 04 00	 ret	 4
??0?$allocator@UAniEventInfo@@@std@@QAE@ABV01@@Z ENDP	; std::allocator<AniEventInfo>::allocator<AniEventInfo>
_TEXT	ENDS
PUBLIC	?deallocate@?$allocator@UAniEventInfo@@@std@@QAEXPAUAniEventInfo@@I@Z ; std::allocator<AniEventInfo>::deallocate
EXTRN	??3@YAXPAX@Z:PROC				; operator delete
; Function compile flags: /Ogsp
;	COMDAT ?deallocate@?$allocator@UAniEventInfo@@@std@@QAEXPAUAniEventInfo@@I@Z
_TEXT	SEGMENT
__Ptr$ = 8						; size = 4
___formal$ = 12						; size = 4
?deallocate@?$allocator@UAniEventInfo@@@std@@QAEXPAUAniEventInfo@@I@Z PROC ; std::allocator<AniEventInfo>::deallocate, COMDAT
; _this$ = ecx

; 181  : 		{	// deallocate object at _Ptr, ignore size

  00000	55		 push	 ebp
  00001	8b ec		 mov	 ebp, esp

; 182  : 		::operator delete(_Ptr);

  00003	ff 75 08	 push	 DWORD PTR __Ptr$[ebp]
  00006	e8 00 00 00 00	 call	 ??3@YAXPAX@Z		; operator delete
  0000b	59		 pop	 ecx

; 183  : 		}

  0000c	5d		 pop	 ebp
  0000d	c2 08 00	 ret	 8
?deallocate@?$allocator@UAniEventInfo@@@std@@QAEXPAUAniEventInfo@@I@Z ENDP ; std::allocator<AniEventInfo>::deallocate
_TEXT	ENDS
PUBLIC	?_Compat@?$_Vector_const_iterator@V?$_Vector_val@UAniEventInfo@@V?$allocator@UAniEventInfo@@@std@@@std@@@std@@QBEXABV12@@Z ; std::_Vector_const_iterator<std::_Vector_val<AniEventInfo,std::allocator<AniEventInfo> > >::_Compat
; Function compile flags: /Ogsp
; File c:\program files (x86)\microsoft visual studio 10.0\vc\include\vector
;	COMDAT ?_Compat@?$_Vector_const_iterator@V?$_Vector_val@UAniEventInfo@@V?$allocator@UAniEventInfo@@@std@@@std@@@std@@QBEXABV12@@Z
_TEXT	SEGMENT
___formal$ = 8						; size = 4
?_Compat@?$_Vector_const_iterator@V?$_Vector_val@UAniEventInfo@@V?$allocator@UAniEventInfo@@@std@@@std@@@std@@QBEXABV12@@Z PROC ; std::_Vector_const_iterator<std::_Vector_val<AniEventInfo,std::allocator<AniEventInfo> > >::_Compat, COMDAT
; _this$ = ecx

; 253  : 		}

  00000	c2 04 00	 ret	 4
?_Compat@?$_Vector_const_iterator@V?$_Vector_val@UAniEventInfo@@V?$allocator@UAniEventInfo@@@std@@@std@@@std@@QBEXABV12@@Z ENDP ; std::_Vector_const_iterator<std::_Vector_val<AniEventInfo,std::allocator<AniEventInfo> > >::_Compat
_TEXT	ENDS
PUBLIC	?max_size@?$allocator@UAniEventInfo@@@std@@QBEIXZ ; std::allocator<AniEventInfo>::max_size
; Function compile flags: /Ogsp
; File c:\program files (x86)\microsoft visual studio 10.0\vc\include\xmemory
;	COMDAT ?max_size@?$allocator@UAniEventInfo@@@std@@QBEIXZ
_TEXT	SEGMENT
?max_size@?$allocator@UAniEventInfo@@@std@@QBEIXZ PROC	; std::allocator<AniEventInfo>::max_size, COMDAT
; _this$ = ecx

; 218  : 		_SIZT _Count = (_SIZT)(-1) / sizeof (_Ty);
; 219  : 		return (0 < _Count ? _Count : 1);

  00000	b8 ff ff ff 07	 mov	 eax, 134217727		; 07ffffffH

; 220  : 		}

  00005	c3		 ret	 0
?max_size@?$allocator@UAniEventInfo@@@std@@QBEIXZ ENDP	; std::allocator<AniEventInfo>::max_size
_TEXT	ENDS
PUBLIC	??_7bad_alloc@std@@6B@				; std::bad_alloc::`vftable'
PUBLIC	??0bad_alloc@std@@QAE@PBD@Z			; std::bad_alloc::bad_alloc
PUBLIC	??_R4bad_alloc@std@@6B@				; std::bad_alloc::`RTTI Complete Object Locator'
PUBLIC	??_R0?AVbad_alloc@std@@@8			; std::bad_alloc `RTTI Type Descriptor'
PUBLIC	??_R3bad_alloc@std@@8				; std::bad_alloc::`RTTI Class Hierarchy Descriptor'
PUBLIC	??_R2bad_alloc@std@@8				; std::bad_alloc::`RTTI Base Class Array'
PUBLIC	??_R1A@?0A@EA@bad_alloc@std@@8			; std::bad_alloc::`RTTI Base Class Descriptor at (0,-1,0,64)'
PUBLIC	??_R1A@?0A@EA@exception@std@@8			; std::exception::`RTTI Base Class Descriptor at (0,-1,0,64)'
PUBLIC	??_R0?AVexception@std@@@8			; std::exception `RTTI Type Descriptor'
PUBLIC	??_R3exception@std@@8				; std::exception::`RTTI Class Hierarchy Descriptor'
PUBLIC	??_R2exception@std@@8				; std::exception::`RTTI Base Class Array'
EXTRN	__imp_??0exception@std@@QAE@ABQBD@Z:PROC
EXTRN	??_7type_info@@6B@:QWORD			; type_info::`vftable'
EXTRN	??_Ebad_alloc@std@@UAEPAXI@Z:PROC		; std::bad_alloc::`vector deleting destructor'
EXTRN	?what@exception@std@@UBEPBDXZ:PROC		; std::exception::what
;	COMDAT ??_R2exception@std@@8
; File c:\program files (x86)\microsoft visual studio 10.0\vc\include\exception
rdata$r	SEGMENT
??_R2exception@std@@8 DD FLAT:??_R1A@?0A@EA@exception@std@@8 ; std::exception::`RTTI Base Class Array'
rdata$r	ENDS
;	COMDAT ??_R3exception@std@@8
rdata$r	SEGMENT
??_R3exception@std@@8 DD 00H				; std::exception::`RTTI Class Hierarchy Descriptor'
	DD	00H
	DD	01H
	DD	FLAT:??_R2exception@std@@8
rdata$r	ENDS
;	COMDAT ??_R0?AVexception@std@@@8
_DATA	SEGMENT
??_R0?AVexception@std@@@8 DD FLAT:??_7type_info@@6B@	; std::exception `RTTI Type Descriptor'
	DD	00H
	DB	'.?AVexception@std@@', 00H
_DATA	ENDS
;	COMDAT ??_R1A@?0A@EA@exception@std@@8
rdata$r	SEGMENT
??_R1A@?0A@EA@exception@std@@8 DD FLAT:??_R0?AVexception@std@@@8 ; std::exception::`RTTI Base Class Descriptor at (0,-1,0,64)'
	DD	00H
	DD	00H
	DD	0ffffffffH
	DD	00H
	DD	040H
	DD	FLAT:??_R3exception@std@@8
rdata$r	ENDS
;	COMDAT ??_R1A@?0A@EA@bad_alloc@std@@8
rdata$r	SEGMENT
??_R1A@?0A@EA@bad_alloc@std@@8 DD FLAT:??_R0?AVbad_alloc@std@@@8 ; std::bad_alloc::`RTTI Base Class Descriptor at (0,-1,0,64)'
	DD	01H
	DD	00H
	DD	0ffffffffH
	DD	00H
	DD	040H
	DD	FLAT:??_R3bad_alloc@std@@8
rdata$r	ENDS
;	COMDAT ??_R2bad_alloc@std@@8
rdata$r	SEGMENT
??_R2bad_alloc@std@@8 DD FLAT:??_R1A@?0A@EA@bad_alloc@std@@8 ; std::bad_alloc::`RTTI Base Class Array'
	DD	FLAT:??_R1A@?0A@EA@exception@std@@8
rdata$r	ENDS
;	COMDAT ??_R3bad_alloc@std@@8
rdata$r	SEGMENT
??_R3bad_alloc@std@@8 DD 00H				; std::bad_alloc::`RTTI Class Hierarchy Descriptor'
	DD	00H
	DD	02H
	DD	FLAT:??_R2bad_alloc@std@@8
rdata$r	ENDS
;	COMDAT ??_R0?AVbad_alloc@std@@@8
_DATA	SEGMENT
??_R0?AVbad_alloc@std@@@8 DD FLAT:??_7type_info@@6B@	; std::bad_alloc `RTTI Type Descriptor'
	DD	00H
	DB	'.?AVbad_alloc@std@@', 00H
_DATA	ENDS
;	COMDAT ??_R4bad_alloc@std@@6B@
rdata$r	SEGMENT
??_R4bad_alloc@std@@6B@ DD 00H				; std::bad_alloc::`RTTI Complete Object Locator'
	DD	00H
	DD	00H
	DD	FLAT:??_R0?AVbad_alloc@std@@@8
	DD	FLAT:??_R3bad_alloc@std@@8
rdata$r	ENDS
;	COMDAT ??_7bad_alloc@std@@6B@
CONST	SEGMENT
??_7bad_alloc@std@@6B@ DD FLAT:??_R4bad_alloc@std@@6B@	; std::bad_alloc::`vftable'
	DD	FLAT:??_Ebad_alloc@std@@UAEPAXI@Z
	DD	FLAT:?what@exception@std@@UBEPBDXZ
; Function compile flags: /Ogsp
CONST	ENDS
;	COMDAT ??0bad_alloc@std@@QAE@PBD@Z
_TEXT	SEGMENT
__Message$ = 8						; size = 4
??0bad_alloc@std@@QAE@PBD@Z PROC			; std::bad_alloc::bad_alloc, COMDAT
; _this$ = ecx

; 345  : 		{	// construct from message string

  00000	55		 push	 ebp
  00001	8b ec		 mov	 ebp, esp
  00003	56		 push	 esi
  00004	8d 45 08	 lea	 eax, DWORD PTR __Message$[ebp]
  00007	50		 push	 eax
  00008	8b f1		 mov	 esi, ecx
  0000a	ff 15 00 00 00
	00		 call	 DWORD PTR __imp_??0exception@std@@QAE@ABQBD@Z
  00010	c7 06 00 00 00
	00		 mov	 DWORD PTR [esi], OFFSET ??_7bad_alloc@std@@6B@

; 346  : 		}

  00016	8b c6		 mov	 eax, esi
  00018	5e		 pop	 esi
  00019	5d		 pop	 ebp
  0001a	c2 04 00	 ret	 4
??0bad_alloc@std@@QAE@PBD@Z ENDP			; std::bad_alloc::bad_alloc
_TEXT	ENDS
PUBLIC	??1bad_alloc@std@@UAE@XZ			; std::bad_alloc::~bad_alloc
EXTRN	__imp_??1exception@std@@UAE@XZ:PROC
; Function compile flags: /Ogsp
;	COMDAT ??1bad_alloc@std@@UAE@XZ
_TEXT	SEGMENT
??1bad_alloc@std@@UAE@XZ PROC				; std::bad_alloc::~bad_alloc, COMDAT
; _this$ = ecx

; 354  : 		{	// destroy the object

  00000	c7 01 00 00 00
	00		 mov	 DWORD PTR [ecx], OFFSET ??_7bad_alloc@std@@6B@

; 355  : 		}

  00006	ff 25 00 00 00
	00		 jmp	 DWORD PTR __imp_??1exception@std@@UAE@XZ
??1bad_alloc@std@@UAE@XZ ENDP				; std::bad_alloc::~bad_alloc
; Function compile flags: /Ogsp
_TEXT	ENDS
;	COMDAT ??_Gbad_alloc@std@@UAEPAXI@Z
_TEXT	SEGMENT
___flags$ = 8						; size = 4
??_Gbad_alloc@std@@UAEPAXI@Z PROC			; std::bad_alloc::`scalar deleting destructor', COMDAT
; _this$ = ecx
  00000	55		 push	 ebp
  00001	8b ec		 mov	 ebp, esp
  00003	56		 push	 esi
  00004	8b f1		 mov	 esi, ecx
  00006	c7 06 00 00 00
	00		 mov	 DWORD PTR [esi], OFFSET ??_7bad_alloc@std@@6B@
  0000c	ff 15 00 00 00
	00		 call	 DWORD PTR __imp_??1exception@std@@UAE@XZ
  00012	f6 45 08 01	 test	 BYTE PTR ___flags$[ebp], 1
  00016	74 07		 je	 SHORT $LN1@scalar
  00018	56		 push	 esi
  00019	e8 00 00 00 00	 call	 ??3@YAXPAX@Z		; operator delete
  0001e	59		 pop	 ecx
$LN1@scalar:
  0001f	8b c6		 mov	 eax, esi
  00021	5e		 pop	 esi
  00022	5d		 pop	 ebp
  00023	c2 04 00	 ret	 4
??_Gbad_alloc@std@@UAEPAXI@Z ENDP			; std::bad_alloc::`scalar deleting destructor'
_TEXT	ENDS
PUBLIC	??$addressof@$$CBUAniEventInfo@@@std@@YAPBUAniEventInfo@@ABU1@@Z ; std::addressof<AniEventInfo const >
; Function compile flags: /Ogsp
; File c:\program files (x86)\microsoft visual studio 10.0\vc\include\xmemory
;	COMDAT ??$addressof@$$CBUAniEventInfo@@@std@@YAPBUAniEventInfo@@ABU1@@Z
_TEXT	SEGMENT
__Val$ = 8						; size = 4
??$addressof@$$CBUAniEventInfo@@@std@@YAPBUAniEventInfo@@ABU1@@Z PROC ; std::addressof<AniEventInfo const >, COMDAT

; 110  : 	{	// return address of _Val

  00000	55		 push	 ebp
  00001	8b ec		 mov	 ebp, esp

; 111  : 	return ((_Ty *) &(char&)_Val);

  00003	8b 45 08	 mov	 eax, DWORD PTR __Val$[ebp]

; 112  : 	}

  00006	5d		 pop	 ebp
  00007	c3		 ret	 0
??$addressof@$$CBUAniEventInfo@@@std@@YAPBUAniEventInfo@@ABU1@@Z ENDP ; std::addressof<AniEventInfo const >
_TEXT	ENDS
PUBLIC	??2@YAPAXIPAX@Z					; operator new
; Function compile flags: /Ogsp
; File c:\program files (x86)\microsoft visual studio 10.0\vc\include\new
;	COMDAT ??2@YAPAXIPAX@Z
_TEXT	SEGMENT
___formal$ = 8						; size = 4
__Where$ = 12						; size = 4
??2@YAPAXIPAX@Z PROC					; operator new, COMDAT

; 56   : 	{	// construct array with placement at _Where

  00000	55		 push	 ebp
  00001	8b ec		 mov	 ebp, esp

; 57   : 	return (_Where);

  00003	8b 45 0c	 mov	 eax, DWORD PTR __Where$[ebp]

; 58   : 	}

  00006	5d		 pop	 ebp
  00007	c3		 ret	 0
??2@YAPAXIPAX@Z ENDP					; operator new
_TEXT	ENDS
PUBLIC	??3@YAXPAX0@Z					; operator delete
; Function compile flags: /Ogsp
;	COMDAT ??3@YAXPAX0@Z
_TEXT	SEGMENT
___formal$ = 8						; size = 4
___formal$ = 12						; size = 4
??3@YAXPAX0@Z PROC					; operator delete, COMDAT

; 62   : 	}

  00000	c3		 ret	 0
??3@YAXPAX0@Z ENDP					; operator delete
_TEXT	ENDS
PUBLIC	__TI2?AVbad_alloc@std@@
PUBLIC	??$_Allocate@UAniEventInfo@@@std@@YAPAUAniEventInfo@@IPAU1@@Z ; std::_Allocate<AniEventInfo>
PUBLIC	__CTA2?AVbad_alloc@std@@
PUBLIC	__CT??_R0?AVbad_alloc@std@@@8??0bad_alloc@std@@QAE@ABV01@@Z12
PUBLIC	??0bad_alloc@std@@QAE@ABV01@@Z			; std::bad_alloc::bad_alloc
PUBLIC	__CT??_R0?AVexception@std@@@8??0exception@std@@QAE@ABV01@@Z12
EXTRN	??2@YAPAXI@Z:PROC				; operator new
EXTRN	__CxxThrowException@8:PROC
EXTRN	??0exception@std@@QAE@ABV01@@Z:PROC		; std::exception::exception
;	COMDAT __CT??_R0?AVexception@std@@@8??0exception@std@@QAE@ABV01@@Z12
; File c:\program files (x86)\microsoft visual studio 10.0\vc\include\exception
xdata$x	SEGMENT
__CT??_R0?AVexception@std@@@8??0exception@std@@QAE@ABV01@@Z12 DD 00H
	DD	FLAT:??_R0?AVexception@std@@@8
	DD	00H
	DD	0ffffffffH
	ORG $+4
	DD	0cH
	DD	FLAT:??0exception@std@@QAE@ABV01@@Z
xdata$x	ENDS
;	COMDAT __CT??_R0?AVbad_alloc@std@@@8??0bad_alloc@std@@QAE@ABV01@@Z12
xdata$x	SEGMENT
__CT??_R0?AVbad_alloc@std@@@8??0bad_alloc@std@@QAE@ABV01@@Z12 DD 00H
	DD	FLAT:??_R0?AVbad_alloc@std@@@8
	DD	00H
	DD	0ffffffffH
	ORG $+4
	DD	0cH
	DD	FLAT:??0bad_alloc@std@@QAE@ABV01@@Z
xdata$x	ENDS
;	COMDAT __CTA2?AVbad_alloc@std@@
xdata$x	SEGMENT
__CTA2?AVbad_alloc@std@@ DD 02H
	DD	FLAT:__CT??_R0?AVbad_alloc@std@@@8??0bad_alloc@std@@QAE@ABV01@@Z12
	DD	FLAT:__CT??_R0?AVexception@std@@@8??0exception@std@@QAE@ABV01@@Z12
xdata$x	ENDS
;	COMDAT __TI2?AVbad_alloc@std@@
xdata$x	SEGMENT
__TI2?AVbad_alloc@std@@ DD 00H
	DD	FLAT:??1bad_alloc@std@@UAE@XZ
	DD	00H
	DD	FLAT:__CTA2?AVbad_alloc@std@@
; Function compile flags: /Ogsp
; File c:\program files (x86)\microsoft visual studio 10.0\vc\include\xmemory
xdata$x	ENDS
;	COMDAT ??$_Allocate@UAniEventInfo@@@std@@YAPAUAniEventInfo@@IPAU1@@Z
_TEXT	SEGMENT
$T506401 = -12						; size = 12
$T506406 = 8						; size = 4
__Count$ = 8						; size = 4
___formal$ = 12						; size = 4
??$_Allocate@UAniEventInfo@@@std@@YAPAUAniEventInfo@@IPAU1@@Z PROC ; std::_Allocate<AniEventInfo>, COMDAT

; 30   : 	{	// allocate storage for _Count elements of type _Ty

  00000	55		 push	 ebp
  00001	8b ec		 mov	 ebp, esp

; 31   : 	void *_Ptr = 0;
; 32   : 
; 33   : 	if (_Count <= 0)

  00003	8b 4d 08	 mov	 ecx, DWORD PTR __Count$[ebp]
  00006	83 ec 0c	 sub	 esp, 12			; 0000000cH
  00009	33 c0		 xor	 eax, eax
  0000b	85 c9		 test	 ecx, ecx

; 34   : 		_Count = 0;
; 35   : 	else if (((_SIZT)(-1) / sizeof (_Ty) < _Count)

  0000d	74 3c		 je	 SHORT $LN5@Allocate

; 36   : 		|| (_Ptr = ::operator new(_Count * sizeof (_Ty))) == 0)

  0000f	81 f9 ff ff ff
	07		 cmp	 ecx, 134217727		; 07ffffffH
  00015	77 0e		 ja	 SHORT $LN1@Allocate
  00017	c1 e1 05	 shl	 ecx, 5
  0001a	51		 push	 ecx
  0001b	e8 00 00 00 00	 call	 ??2@YAPAXI@Z		; operator new
  00020	59		 pop	 ecx
  00021	85 c0		 test	 eax, eax

; 38   : 
; 39   : 	return ((_Ty _FARQ *)_Ptr);

  00023	75 26		 jne	 SHORT $LN5@Allocate
$LN1@Allocate:

; 37   : 		_THROW_NCEE(bad_alloc, 0);

  00025	83 65 08 00	 and	 DWORD PTR $T506406[ebp], 0
  00029	8d 45 08	 lea	 eax, DWORD PTR $T506406[ebp]
  0002c	50		 push	 eax
  0002d	8d 4d f4	 lea	 ecx, DWORD PTR $T506401[ebp]
  00030	ff 15 00 00 00
	00		 call	 DWORD PTR __imp_??0exception@std@@QAE@ABQBD@Z
  00036	68 00 00 00 00	 push	 OFFSET __TI2?AVbad_alloc@std@@
  0003b	8d 45 f4	 lea	 eax, DWORD PTR $T506401[ebp]
  0003e	50		 push	 eax
  0003f	c7 45 f4 00 00
	00 00		 mov	 DWORD PTR $T506401[ebp], OFFSET ??_7bad_alloc@std@@6B@
  00046	e8 00 00 00 00	 call	 __CxxThrowException@8
$LN10@Allocate:
$LN5@Allocate:

; 40   : 	}

  0004b	c9		 leave
  0004c	c3		 ret	 0
$LN9@Allocate:
??$_Allocate@UAniEventInfo@@@std@@YAPAUAniEventInfo@@IPAU1@@Z ENDP ; std::_Allocate<AniEventInfo>
_TEXT	ENDS
PUBLIC	??$forward@AAUAniEventInfo@@@std@@YAAAUAniEventInfo@@AAU1@@Z ; std::forward<AniEventInfo &>
; Function compile flags: /Ogsp
; File c:\program files (x86)\microsoft visual studio 10.0\vc\include\utility
;	COMDAT ??$forward@AAUAniEventInfo@@@std@@YAAAUAniEventInfo@@AAU1@@Z
_TEXT	SEGMENT
__Arg$ = 8						; size = 4
??$forward@AAUAniEventInfo@@@std@@YAAAUAniEventInfo@@AAU1@@Z PROC ; std::forward<AniEventInfo &>, COMDAT

; 78   : 	{	// forward _Arg, given explicitly specified type parameter

  00000	55		 push	 ebp
  00001	8b ec		 mov	 ebp, esp

; 79   : 	return ((_Ty&&)_Arg);

  00003	8b 45 08	 mov	 eax, DWORD PTR __Arg$[ebp]

; 80   : 	}

  00006	5d		 pop	 ebp
  00007	c3		 ret	 0
??$forward@AAUAniEventInfo@@@std@@YAAAUAniEventInfo@@AAU1@@Z ENDP ; std::forward<AniEventInfo &>
_TEXT	ENDS
PUBLIC	??$construct@AAUAniEventInfo@@@?$allocator@UAniEventInfo@@@std@@QAEXPAUAniEventInfo@@AAU2@@Z ; std::allocator<AniEventInfo>::construct<AniEventInfo &>
;	COMDAT xdata$x
xdata$x	SEGMENT
__unwindtable$??$construct@AAUAniEventInfo@@@?$allocator@UAniEventInfo@@@std@@QAEXPAUAniEventInfo@@AAU2@@Z DD 0ffffffffH
	DD	FLAT:__unwindfunclet$??$construct@AAUAniEventInfo@@@?$allocator@UAniEventInfo@@@std@@QAEXPAUAniEventInfo@@AAU2@@Z$0
__ehfuncinfo$??$construct@AAUAniEventInfo@@@?$allocator@UAniEventInfo@@@std@@QAEXPAUAniEventInfo@@AAU2@@Z DD 019930522H
	DD	01H
	DD	FLAT:__unwindtable$??$construct@AAUAniEventInfo@@@?$allocator@UAniEventInfo@@@std@@QAEXPAUAniEventInfo@@AAU2@@Z
	DD	2 DUP(00H)
	DD	2 DUP(00H)
	DD	00H
	DD	01H
; Function compile flags: /Ogsp
; File c:\program files (x86)\microsoft visual studio 10.0\vc\include\xmemory
xdata$x	ENDS
;	COMDAT ??$construct@AAUAniEventInfo@@@?$allocator@UAniEventInfo@@@std@@QAEXPAUAniEventInfo@@AAU2@@Z
_TEXT	SEGMENT
$T506414 = -16						; size = 4
__$EHRec$ = -12						; size = 12
__Ptr$ = 8						; size = 4
__Val$ = 12						; size = 4
??$construct@AAUAniEventInfo@@@?$allocator@UAniEventInfo@@@std@@QAEXPAUAniEventInfo@@AAU2@@Z PROC ; std::allocator<AniEventInfo>::construct<AniEventInfo &>, COMDAT
; _this$ = ecx

; 206  : 		void construct(pointer _Ptr, _Other&& _Val)

  00000	6a 04		 push	 4
  00002	b8 00 00 00 00	 mov	 eax, __ehhandler$??$construct@AAUAniEventInfo@@@?$allocator@UAniEventInfo@@@std@@QAEXPAUAniEventInfo@@AAU2@@Z
  00007	e8 00 00 00 00	 call	 __EH_prolog3

; 207  : 		{	// construct object at _Ptr with value _Val
; 208  : 		::new ((void _FARQ *)_Ptr) _Ty(_STD forward<_Other>(_Val));

  0000c	8b 4d 08	 mov	 ecx, DWORD PTR __Ptr$[ebp]
  0000f	89 4d f0	 mov	 DWORD PTR $T506414[ebp], ecx
  00012	83 65 fc 00	 and	 DWORD PTR __$EHRec$[ebp+8], 0
  00016	85 c9		 test	 ecx, ecx
  00018	74 08		 je	 SHORT $LN3@construct
  0001a	ff 75 0c	 push	 DWORD PTR __Val$[ebp]
  0001d	e8 00 00 00 00	 call	 ??0AniEventInfo@@QAE@ABU0@@Z
$LN3@construct:

; 209  : 		}

  00022	e8 00 00 00 00	 call	 __EH_epilog3
  00027	c2 08 00	 ret	 8
_TEXT	ENDS
;	COMDAT text$x
text$x	SEGMENT
__unwindfunclet$??$construct@AAUAniEventInfo@@@?$allocator@UAniEventInfo@@@std@@QAEXPAUAniEventInfo@@AAU2@@Z$0:
  00000	ff 75 08	 push	 DWORD PTR __Ptr$[ebp]
  00003	ff 75 f0	 push	 DWORD PTR $T506414[ebp]
  00006	e8 00 00 00 00	 call	 ??3@YAXPAX0@Z		; operator delete
  0000b	59		 pop	 ecx
  0000c	59		 pop	 ecx
  0000d	c3		 ret	 0
__ehhandler$??$construct@AAUAniEventInfo@@@?$allocator@UAniEventInfo@@@std@@QAEXPAUAniEventInfo@@AAU2@@Z:
  0000e	8b 54 24 08	 mov	 edx, DWORD PTR [esp+8]
  00012	8d 42 0c	 lea	 eax, DWORD PTR [edx+12]
  00015	8b 4a ec	 mov	 ecx, DWORD PTR [edx-20]
  00018	33 c8		 xor	 ecx, eax
  0001a	e8 00 00 00 00	 call	 @__security_check_cookie@4
  0001f	b8 00 00 00 00	 mov	 eax, OFFSET __ehfuncinfo$??$construct@AAUAniEventInfo@@@?$allocator@UAniEventInfo@@@std@@QAEXPAUAniEventInfo@@AAU2@@Z
  00024	e9 00 00 00 00	 jmp	 ___CxxFrameHandler3
text$x	ENDS
??$construct@AAUAniEventInfo@@@?$allocator@UAniEventInfo@@@std@@QAEXPAUAniEventInfo@@AAU2@@Z ENDP ; std::allocator<AniEventInfo>::construct<AniEventInfo &>
PUBLIC	??$forward@ABUAniEventInfo@@@std@@YAABUAniEventInfo@@ABU1@@Z ; std::forward<AniEventInfo const &>
; Function compile flags: /Ogsp
; File c:\program files (x86)\microsoft visual studio 10.0\vc\include\utility
;	COMDAT ??$forward@ABUAniEventInfo@@@std@@YAABUAniEventInfo@@ABU1@@Z
_TEXT	SEGMENT
__Arg$ = 8						; size = 4
??$forward@ABUAniEventInfo@@@std@@YAABUAniEventInfo@@ABU1@@Z PROC ; std::forward<AniEventInfo const &>, COMDAT

; 78   : 	{	// forward _Arg, given explicitly specified type parameter

  00000	55		 push	 ebp
  00001	8b ec		 mov	 ebp, esp

; 79   : 	return ((_Ty&&)_Arg);

  00003	8b 45 08	 mov	 eax, DWORD PTR __Arg$[ebp]

; 80   : 	}

  00006	5d		 pop	 ebp
  00007	c3		 ret	 0
??$forward@ABUAniEventInfo@@@std@@YAABUAniEventInfo@@ABU1@@Z ENDP ; std::forward<AniEventInfo const &>
_TEXT	ENDS
PUBLIC	??$_Ptr_cat@UAniEventInfo@@U1@@std@@YA?AU_Nonscalar_ptr_iterator_tag@0@PAUAniEventInfo@@0@Z ; std::_Ptr_cat<AniEventInfo,AniEventInfo>
; Function compile flags: /Ogsp
; File c:\program files (x86)\microsoft visual studio 10.0\vc\include\xutility
;	COMDAT ??$_Ptr_cat@UAniEventInfo@@U1@@std@@YA?AU_Nonscalar_ptr_iterator_tag@0@PAUAniEventInfo@@0@Z
_TEXT	SEGMENT
__Cat$ = -1						; size = 1
___formal$ = 8						; size = 4
___formal$ = 12						; size = 4
??$_Ptr_cat@UAniEventInfo@@U1@@std@@YA?AU_Nonscalar_ptr_iterator_tag@0@PAUAniEventInfo@@0@Z PROC ; std::_Ptr_cat<AniEventInfo,AniEventInfo>, COMDAT

; 516  : 	{	// return pointer category from pointers

  00000	55		 push	 ebp
  00001	8b ec		 mov	 ebp, esp
  00003	51		 push	 ecx

; 517  : 	typename _Ptr_cat_helper<_Elem1, _Elem2>::_Type _Cat;
; 518  : 	return (_Cat);

  00004	8a 45 ff	 mov	 al, BYTE PTR __Cat$[ebp]

; 519  : 	}

  00007	c9		 leave
  00008	c3		 ret	 0
??$_Ptr_cat@UAniEventInfo@@U1@@std@@YA?AU_Nonscalar_ptr_iterator_tag@0@PAUAniEventInfo@@0@Z ENDP ; std::_Ptr_cat<AniEventInfo,AniEventInfo>
_TEXT	ENDS
PUBLIC	??$_Construct@UAniEventInfo@@ABU1@@std@@YAXPAUAniEventInfo@@ABU1@@Z ; std::_Construct<AniEventInfo,AniEventInfo const &>
;	COMDAT xdata$x
; File c:\program files (x86)\microsoft visual studio 10.0\vc\include\utility
xdata$x	SEGMENT
__unwindtable$??$_Construct@UAniEventInfo@@ABU1@@std@@YAXPAUAniEventInfo@@ABU1@@Z DD 0ffffffffH
	DD	FLAT:__unwindfunclet$??$_Construct@UAniEventInfo@@ABU1@@std@@YAXPAUAniEventInfo@@ABU1@@Z$0
__ehfuncinfo$??$_Construct@UAniEventInfo@@ABU1@@std@@YAXPAUAniEventInfo@@ABU1@@Z DD 019930522H
	DD	01H
	DD	FLAT:__unwindtable$??$_Construct@UAniEventInfo@@ABU1@@std@@YAXPAUAniEventInfo@@ABU1@@Z
	DD	2 DUP(00H)
	DD	2 DUP(00H)
	DD	00H
	DD	01H
; Function compile flags: /Ogsp
; File c:\program files (x86)\microsoft visual studio 10.0\vc\include\xmemory
xdata$x	ENDS
;	COMDAT ??$_Construct@UAniEventInfo@@ABU1@@std@@YAXPAUAniEventInfo@@ABU1@@Z
_TEXT	SEGMENT
$T506437 = -16						; size = 4
__$EHRec$ = -12						; size = 12
__Vptr$ = 8						; size = 4
__Ptr$ = 8						; size = 4
__Val$ = 12						; size = 4
??$_Construct@UAniEventInfo@@ABU1@@std@@YAXPAUAniEventInfo@@ABU1@@Z PROC ; std::_Construct<AniEventInfo,AniEventInfo const &>, COMDAT

; 46   : 	{	// construct object at _Ptr with value _Val

  00000	6a 04		 push	 4
  00002	b8 00 00 00 00	 mov	 eax, __ehhandler$??$_Construct@UAniEventInfo@@ABU1@@std@@YAXPAUAniEventInfo@@ABU1@@Z
  00007	e8 00 00 00 00	 call	 __EH_prolog3

; 47   : 	void _FARQ *_Vptr = _Ptr;

  0000c	8b 4d 08	 mov	 ecx, DWORD PTR __Ptr$[ebp]
  0000f	89 4d 08	 mov	 DWORD PTR __Vptr$[ebp], ecx

; 48   : 	::new (_Vptr) _Ty1(_STD forward<_Ty2>(_Val));

  00012	89 4d f0	 mov	 DWORD PTR $T506437[ebp], ecx
  00015	83 65 fc 00	 and	 DWORD PTR __$EHRec$[ebp+8], 0
  00019	85 c9		 test	 ecx, ecx
  0001b	74 08		 je	 SHORT $LN3@Construct
  0001d	ff 75 0c	 push	 DWORD PTR __Val$[ebp]
  00020	e8 00 00 00 00	 call	 ??0AniEventInfo@@QAE@ABU0@@Z
$LN3@Construct:

; 49   : 	}

  00025	e8 00 00 00 00	 call	 __EH_epilog3
  0002a	c3		 ret	 0
_TEXT	ENDS
;	COMDAT text$x
text$x	SEGMENT
__unwindfunclet$??$_Construct@UAniEventInfo@@ABU1@@std@@YAXPAUAniEventInfo@@ABU1@@Z$0:
  00000	ff 75 08	 push	 DWORD PTR __Vptr$[ebp]
  00003	ff 75 f0	 push	 DWORD PTR $T506437[ebp]
  00006	e8 00 00 00 00	 call	 ??3@YAXPAX0@Z		; operator delete
  0000b	59		 pop	 ecx
  0000c	59		 pop	 ecx
  0000d	c3		 ret	 0
__ehhandler$??$_Construct@UAniEventInfo@@ABU1@@std@@YAXPAUAniEventInfo@@ABU1@@Z:
  0000e	8b 54 24 08	 mov	 edx, DWORD PTR [esp+8]
  00012	8d 42 0c	 lea	 eax, DWORD PTR [edx+12]
  00015	8b 4a ec	 mov	 ecx, DWORD PTR [edx-20]
  00018	33 c8		 xor	 ecx, eax
  0001a	e8 00 00 00 00	 call	 @__security_check_cookie@4
  0001f	b8 00 00 00 00	 mov	 eax, OFFSET __ehfuncinfo$??$_Construct@UAniEventInfo@@ABU1@@std@@YAXPAUAniEventInfo@@ABU1@@Z
  00024	e9 00 00 00 00	 jmp	 ___CxxFrameHandler3
text$x	ENDS
??$_Construct@UAniEventInfo@@ABU1@@std@@YAXPAUAniEventInfo@@ABU1@@Z ENDP ; std::_Construct<AniEventInfo,AniEventInfo const &>
PUBLIC	??4AniEventInfo@@QAEAAU0@ABU0@@Z		; AniEventInfo::operator=
EXTRN	__imp_??4ioHashString@@QAEAAV0@ABV0@@Z:PROC
; Function compile flags: /Ogsp
;	COMDAT ??4AniEventInfo@@QAEAAU0@ABU0@@Z
_TEXT	SEGMENT
___that$ = 8						; size = 4
??4AniEventInfo@@QAEAAU0@ABU0@@Z PROC			; AniEventInfo::operator=, COMDAT
; _this$ = ecx
  00000	55		 push	 ebp
  00001	8b ec		 mov	 ebp, esp
  00003	53		 push	 ebx
  00004	8b 5d 08	 mov	 ebx, DWORD PTR ___that$[ebp]
  00007	56		 push	 esi
  00008	8b 35 00 00 00
	00		 mov	 esi, DWORD PTR __imp_??4ioHashString@@QAEAAV0@ABV0@@Z
  0000e	57		 push	 edi
  0000f	53		 push	 ebx
  00010	8b f9		 mov	 edi, ecx
  00012	ff d6		 call	 esi
  00014	83 c3 10	 add	 ebx, 16			; 00000010H
  00017	53		 push	 ebx
  00018	8d 4f 10	 lea	 ecx, DWORD PTR [edi+16]
  0001b	ff d6		 call	 esi
  0001d	8b c7		 mov	 eax, edi
  0001f	5f		 pop	 edi
  00020	5e		 pop	 esi
  00021	5b		 pop	 ebx
  00022	5d		 pop	 ebp
  00023	c2 04 00	 ret	 4
??4AniEventInfo@@QAEAAU0@ABU0@@Z ENDP			; AniEventInfo::operator=
_TEXT	ENDS
PUBLIC	??$move@AAUAniEventInfo@@@std@@YA$$QAUAniEventInfo@@AAU1@@Z ; std::move<AniEventInfo &>
; Function compile flags: /Ogsp
; File c:\program files (x86)\microsoft visual studio 10.0\vc\include\utility
;	COMDAT ??$move@AAUAniEventInfo@@@std@@YA$$QAUAniEventInfo@@AAU1@@Z
_TEXT	SEGMENT
__Arg$ = 8						; size = 4
??$move@AAUAniEventInfo@@@std@@YA$$QAUAniEventInfo@@AAU1@@Z PROC ; std::move<AniEventInfo &>, COMDAT

; 86   : 	{	// forward _Arg as movable

  00000	55		 push	 ebp
  00001	8b ec		 mov	 ebp, esp

; 87   : 	return ((typename tr1::_Remove_reference<_Ty>::_Type&&)_Arg);

  00003	8b 45 08	 mov	 eax, DWORD PTR __Arg$[ebp]

; 88   : 	}

  00006	5d		 pop	 ebp
  00007	c3		 ret	 0
??$move@AAUAniEventInfo@@@std@@YA$$QAUAniEventInfo@@AAU1@@Z ENDP ; std::move<AniEventInfo &>
_TEXT	ENDS
PUBLIC	??$_Val_type@PAUAniEventInfo@@@std@@YAPAUAniEventInfo@@PAU1@@Z ; std::_Val_type<AniEventInfo *>
; Function compile flags: /Ogsp
; File c:\program files (x86)\microsoft visual studio 10.0\vc\include\xutility
;	COMDAT ??$_Val_type@PAUAniEventInfo@@@std@@YAPAUAniEventInfo@@PAU1@@Z
_TEXT	SEGMENT
___formal$ = 8						; size = 4
??$_Val_type@PAUAniEventInfo@@@std@@YAPAUAniEventInfo@@PAU1@@Z PROC ; std::_Val_type<AniEventInfo *>, COMDAT

; 790  : 	return (0);

  00000	33 c0		 xor	 eax, eax

; 791  : 	}

  00002	c3		 ret	 0
??$_Val_type@PAUAniEventInfo@@@std@@YAPAUAniEventInfo@@PAU1@@Z ENDP ; std::_Val_type<AniEventInfo *>
_TEXT	ENDS
PUBLIC	??_GAniEventInfo@@QAEPAXI@Z			; AniEventInfo::`scalar deleting destructor'
; Function compile flags: /Ogsp
;	COMDAT ??_GAniEventInfo@@QAEPAXI@Z
_TEXT	SEGMENT
___flags$ = 8						; size = 4
??_GAniEventInfo@@QAEPAXI@Z PROC			; AniEventInfo::`scalar deleting destructor', COMDAT
; _this$ = ecx
  00000	55		 push	 ebp
  00001	8b ec		 mov	 ebp, esp
  00003	56		 push	 esi
  00004	8b f1		 mov	 esi, ecx
  00006	e8 00 00 00 00	 call	 ??1AniEventInfo@@QAE@XZ
  0000b	f6 45 08 01	 test	 BYTE PTR ___flags$[ebp], 1
  0000f	74 07		 je	 SHORT $LN1@scalar@2
  00011	56		 push	 esi
  00012	e8 00 00 00 00	 call	 ??3@YAXPAX@Z		; operator delete
  00017	59		 pop	 ecx
$LN1@scalar@2:
  00018	8b c6		 mov	 eax, esi
  0001a	5e		 pop	 esi
  0001b	5d		 pop	 ebp
  0001c	c2 04 00	 ret	 4
??_GAniEventInfo@@QAEPAXI@Z ENDP			; AniEventInfo::`scalar deleting destructor'
_TEXT	ENDS
PUBLIC	??$forward@UAniEventInfo@@@std@@YA$$QAUAniEventInfo@@AAU1@@Z ; std::forward<AniEventInfo>
; Function compile flags: /Ogsp
; File c:\program files (x86)\microsoft visual studio 10.0\vc\include\utility
;	COMDAT ??$forward@UAniEventInfo@@@std@@YA$$QAUAniEventInfo@@AAU1@@Z
_TEXT	SEGMENT
__Arg$ = 8						; size = 4
??$forward@UAniEventInfo@@@std@@YA$$QAUAniEventInfo@@AAU1@@Z PROC ; std::forward<AniEventInfo>, COMDAT

; 78   : 	{	// forward _Arg, given explicitly specified type parameter

  00000	55		 push	 ebp
  00001	8b ec		 mov	 ebp, esp

; 79   : 	return ((_Ty&&)_Arg);

  00003	8b 45 08	 mov	 eax, DWORD PTR __Arg$[ebp]

; 80   : 	}

  00006	5d		 pop	 ebp
  00007	c3		 ret	 0
??$forward@UAniEventInfo@@@std@@YA$$QAUAniEventInfo@@AAU1@@Z ENDP ; std::forward<AniEventInfo>
_TEXT	ENDS
PUBLIC	?_Adopt@_Iterator_base0@std@@QAEXPBX@Z		; std::_Iterator_base0::_Adopt
; Function compile flags: /Ogsp
; File c:\program files (x86)\microsoft visual studio 10.0\vc\include\xutility
;	COMDAT ?_Adopt@_Iterator_base0@std@@QAEXPBX@Z
_TEXT	SEGMENT
___formal$ = 8						; size = 4
?_Adopt@_Iterator_base0@std@@QAEXPBX@Z PROC		; std::_Iterator_base0::_Adopt, COMDAT
; _this$ = ecx

; 49   : 		}

  00000	c2 04 00	 ret	 4
?_Adopt@_Iterator_base0@std@@QAEXPBX@Z ENDP		; std::_Iterator_base0::_Adopt
_TEXT	ENDS
PUBLIC	?_DECSTR@@YAXPADH@Z				; _DECSTR
; Function compile flags: /Ogsp
; File d:\lost saga for developer\youtube\tutorial\source\src\lsclient\stringprotect.h
;	COMDAT ?_DECSTR@@YAXPADH@Z
_TEXT	SEGMENT
_s$ = 8							; size = 4
_l$ = 12						; size = 4
?_DECSTR@@YAXPADH@Z PROC				; _DECSTR, COMDAT

; 40   : __forceinline void _DECSTR(char* s, int l){int i=0,l4=(l-1)/4,*p=(int*)s;s[l-1]=0;for(;i<l4;++i)*(p++)^=0xEAEBECED;for(i=l4*4;i<l-1;++i)s[i]^=0xED-i%4;}

  00000	55		 push	 ebp
  00001	8b ec		 mov	 ebp, esp
  00003	8b 4d 0c	 mov	 ecx, DWORD PTR _l$[ebp]
  00006	56		 push	 esi
  00007	8b 75 08	 mov	 esi, DWORD PTR _s$[ebp]
  0000a	57		 push	 edi
  0000b	8d 79 ff	 lea	 edi, DWORD PTR [ecx-1]
  0000e	8b c7		 mov	 eax, edi
  00010	99		 cdq
  00011	83 e2 03	 and	 edx, 3
  00014	03 c2		 add	 eax, edx
  00016	c1 f8 02	 sar	 eax, 2
  00019	8b d6		 mov	 edx, esi
  0001b	c6 44 0e ff 00	 mov	 BYTE PTR [esi+ecx-1], 0
  00020	85 c0		 test	 eax, eax
  00022	7e 0e		 jle	 SHORT $LN4@DECSTR
  00024	8b c8		 mov	 ecx, eax
$LL6@DECSTR:
  00026	81 32 ed ec eb
	ea		 xor	 DWORD PTR [edx], -353637139 ; eaebecedH
  0002c	83 c2 04	 add	 edx, 4
  0002f	49		 dec	 ecx
  00030	75 f4		 jne	 SHORT $LL6@DECSTR
$LN4@DECSTR:
  00032	c1 e0 02	 shl	 eax, 2
  00035	eb 17		 jmp	 SHORT $LN14@DECSTR
$LL3@DECSTR:
  00037	8b c8		 mov	 ecx, eax
  00039	81 e1 03 00 00
	80		 and	 ecx, -2147483645	; 80000003H
  0003f	79 05		 jns	 SHORT $LN13@DECSTR
  00041	49		 dec	 ecx
  00042	83 c9 fc	 or	 ecx, -4			; fffffffcH
  00045	41		 inc	 ecx
$LN13@DECSTR:
  00046	b2 ed		 mov	 dl, -19			; ffffffedH
  00048	2a d1		 sub	 dl, cl
  0004a	30 14 30	 xor	 BYTE PTR [eax+esi], dl
  0004d	40		 inc	 eax
$LN14@DECSTR:
  0004e	3b c7		 cmp	 eax, edi
  00050	7c e5		 jl	 SHORT $LL3@DECSTR
  00052	5f		 pop	 edi
  00053	5e		 pop	 esi
  00054	5d		 pop	 ebp
  00055	c3		 ret	 0
?_DECSTR@@YAXPADH@Z ENDP				; _DECSTR
_TEXT	ENDS
EXTRN	__imp_??0exception@std@@QAE@ABV01@@Z:PROC
; Function compile flags: /Ogsp
;	COMDAT ??0bad_alloc@std@@QAE@ABV01@@Z
_TEXT	SEGMENT
___that$ = 8						; size = 4
??0bad_alloc@std@@QAE@ABV01@@Z PROC			; std::bad_alloc::bad_alloc, COMDAT
; _this$ = ecx
  00000	55		 push	 ebp
  00001	8b ec		 mov	 ebp, esp
  00003	56		 push	 esi
  00004	ff 75 08	 push	 DWORD PTR ___that$[ebp]
  00007	8b f1		 mov	 esi, ecx
  00009	ff 15 00 00 00
	00		 call	 DWORD PTR __imp_??0exception@std@@QAE@ABV01@@Z
  0000f	c7 06 00 00 00
	00		 mov	 DWORD PTR [esi], OFFSET ??_7bad_alloc@std@@6B@
  00015	8b c6		 mov	 eax, esi
  00017	5e		 pop	 esi
  00018	5d		 pop	 ebp
  00019	c2 04 00	 ret	 4
??0bad_alloc@std@@QAE@ABV01@@Z ENDP			; std::bad_alloc::bad_alloc
_TEXT	ENDS
PUBLIC	??D?$_Vector_iterator@V?$_Vector_val@UAniEventInfo@@V?$allocator@UAniEventInfo@@@std@@@std@@@std@@QBEAAUAniEventInfo@@XZ ; std::_Vector_iterator<std::_Vector_val<AniEventInfo,std::allocator<AniEventInfo> > >::operator*
; Function compile flags: /Ogsp
; File c:\program files (x86)\microsoft visual studio 10.0\vc\include\vector
;	COMDAT ??D?$_Vector_iterator@V?$_Vector_val@UAniEventInfo@@V?$allocator@UAniEventInfo@@@std@@@std@@@std@@QBEAAUAniEventInfo@@XZ
_TEXT	SEGMENT
??D?$_Vector_iterator@V?$_Vector_val@UAniEventInfo@@V?$allocator@UAniEventInfo@@@std@@@std@@@std@@QBEAAUAniEventInfo@@XZ PROC ; std::_Vector_iterator<std::_Vector_val<AniEventInfo,std::allocator<AniEventInfo> > >::operator*, COMDAT
; _this$ = ecx

; 322  : 		return ((reference)**(_Mybase *)this);

  00000	8b 01		 mov	 eax, DWORD PTR [ecx]

; 323  : 		}

  00002	c3		 ret	 0
??D?$_Vector_iterator@V?$_Vector_val@UAniEventInfo@@V?$allocator@UAniEventInfo@@@std@@@std@@@std@@QBEAAUAniEventInfo@@XZ ENDP ; std::_Vector_iterator<std::_Vector_val<AniEventInfo,std::allocator<AniEventInfo> > >::operator*
_TEXT	ENDS
PUBLIC	??E?$_Vector_iterator@V?$_Vector_val@UAniEventInfo@@V?$allocator@UAniEventInfo@@@std@@@std@@@std@@QAEAAV01@XZ ; std::_Vector_iterator<std::_Vector_val<AniEventInfo,std::allocator<AniEventInfo> > >::operator++
; Function compile flags: /Ogsp
;	COMDAT ??E?$_Vector_iterator@V?$_Vector_val@UAniEventInfo@@V?$allocator@UAniEventInfo@@@std@@@std@@@std@@QAEAAV01@XZ
_TEXT	SEGMENT
??E?$_Vector_iterator@V?$_Vector_val@UAniEventInfo@@V?$allocator@UAniEventInfo@@@std@@@std@@@std@@QAEAAV01@XZ PROC ; std::_Vector_iterator<std::_Vector_val<AniEventInfo,std::allocator<AniEventInfo> > >::operator++, COMDAT
; _this$ = ecx

; 331  : 		{	// preincrement

  00000	8b c1		 mov	 eax, ecx

; 332  : 		++*(_Mybase *)this;

  00002	83 00 20	 add	 DWORD PTR [eax], 32	; 00000020H

; 333  : 		return (*this);
; 334  : 		}

  00005	c3		 ret	 0
??E?$_Vector_iterator@V?$_Vector_val@UAniEventInfo@@V?$allocator@UAniEventInfo@@@std@@@std@@@std@@QAEAAV01@XZ ENDP ; std::_Vector_iterator<std::_Vector_val<AniEventInfo,std::allocator<AniEventInfo> > >::operator++
_TEXT	ENDS
PUBLIC	??0?$_Vector_val@UAniEventInfo@@V?$allocator@UAniEventInfo@@@std@@@std@@QAE@V?$allocator@UAniEventInfo@@@1@@Z ; std::_Vector_val<AniEventInfo,std::allocator<AniEventInfo> >::_Vector_val<AniEventInfo,std::allocator<AniEventInfo> >
; Function compile flags: /Ogsp
;	COMDAT ??0?$_Vector_val@UAniEventInfo@@V?$allocator@UAniEventInfo@@@std@@@std@@QAE@V?$allocator@UAniEventInfo@@@1@@Z
_TEXT	SEGMENT
__Al$ = 8						; size = 1
??0?$_Vector_val@UAniEventInfo@@V?$allocator@UAniEventInfo@@@std@@@std@@QAE@V?$allocator@UAniEventInfo@@@1@@Z PROC ; std::_Vector_val<AniEventInfo,std::allocator<AniEventInfo> >::_Vector_val<AniEventInfo,std::allocator<AniEventInfo> >, COMDAT
; _this$ = ecx

; 426  : 		{	// construct allocator from _Al

  00000	8b c1		 mov	 eax, ecx

; 427  : 		_Myfirst = 0;

  00002	33 c9		 xor	 ecx, ecx
  00004	89 08		 mov	 DWORD PTR [eax], ecx

; 428  : 		_Mylast = 0;

  00006	89 48 04	 mov	 DWORD PTR [eax+4], ecx

; 429  : 		_Myend = 0;

  00009	89 48 08	 mov	 DWORD PTR [eax+8], ecx

; 430  : 		}

  0000c	c2 04 00	 ret	 4
??0?$_Vector_val@UAniEventInfo@@V?$allocator@UAniEventInfo@@@std@@@std@@QAE@V?$allocator@UAniEventInfo@@@1@@Z ENDP ; std::_Vector_val<AniEventInfo,std::allocator<AniEventInfo> >::_Vector_val<AniEventInfo,std::allocator<AniEventInfo> >
_TEXT	ENDS
PUBLIC	??8?$_Vector_const_iterator@V?$_Vector_val@UAniEventInfo@@V?$allocator@UAniEventInfo@@@std@@@std@@@std@@QBE_NABV01@@Z ; std::_Vector_const_iterator<std::_Vector_val<AniEventInfo,std::allocator<AniEventInfo> > >::operator==
; Function compile flags: /Ogsp
;	COMDAT ??8?$_Vector_const_iterator@V?$_Vector_val@UAniEventInfo@@V?$allocator@UAniEventInfo@@@std@@@std@@@std@@QBE_NABV01@@Z
_TEXT	SEGMENT
__Right$ = 8						; size = 4
??8?$_Vector_const_iterator@V?$_Vector_val@UAniEventInfo@@V?$allocator@UAniEventInfo@@@std@@@std@@@std@@QBE_NABV01@@Z PROC ; std::_Vector_const_iterator<std::_Vector_val<AniEventInfo,std::allocator<AniEventInfo> > >::operator==, COMDAT
; _this$ = ecx

; 201  : 		{	// test for iterator equality

  00000	55		 push	 ebp
  00001	8b ec		 mov	 ebp, esp

; 202  : 		_Compat(_Right);
; 203  : 		return (this->_Ptr == _Right._Ptr);

  00003	8b 01		 mov	 eax, DWORD PTR [ecx]
  00005	8b 4d 08	 mov	 ecx, DWORD PTR __Right$[ebp]
  00008	2b 01		 sub	 eax, DWORD PTR [ecx]
  0000a	f7 d8		 neg	 eax
  0000c	1b c0		 sbb	 eax, eax
  0000e	40		 inc	 eax

; 204  : 		}

  0000f	5d		 pop	 ebp
  00010	c2 04 00	 ret	 4
??8?$_Vector_const_iterator@V?$_Vector_val@UAniEventInfo@@V?$allocator@UAniEventInfo@@@std@@@std@@@std@@QBE_NABV01@@Z ENDP ; std::_Vector_const_iterator<std::_Vector_val<AniEventInfo,std::allocator<AniEventInfo> > >::operator==
_TEXT	ENDS
PUBLIC	?max_size@?$vector@UAniEventInfo@@V?$allocator@UAniEventInfo@@@std@@@std@@QBEIXZ ; std::vector<AniEventInfo,std::allocator<AniEventInfo> >::max_size
; Function compile flags: /Ogsp
;	COMDAT ?max_size@?$vector@UAniEventInfo@@V?$allocator@UAniEventInfo@@@std@@@std@@QBEIXZ
_TEXT	SEGMENT
?max_size@?$vector@UAniEventInfo@@V?$allocator@UAniEventInfo@@@std@@@std@@QBEIXZ PROC ; std::vector<AniEventInfo,std::allocator<AniEventInfo> >::max_size, COMDAT
; _this$ = ecx

; 884  : 		return (this->_Alval.max_size());

  00000	b8 ff ff ff 07	 mov	 eax, 134217727		; 07ffffffH

; 885  : 		}

  00005	c3		 ret	 0
?max_size@?$vector@UAniEventInfo@@V?$allocator@UAniEventInfo@@@std@@@std@@QBEIXZ ENDP ; std::vector<AniEventInfo,std::allocator<AniEventInfo> >::max_size
_TEXT	ENDS
PUBLIC	?_Grow_to@?$vector@UAniEventInfo@@V?$allocator@UAniEventInfo@@@std@@@std@@IBEII@Z ; std::vector<AniEventInfo,std::allocator<AniEventInfo> >::_Grow_to
; Function compile flags: /Ogsp
;	COMDAT ?_Grow_to@?$vector@UAniEventInfo@@V?$allocator@UAniEventInfo@@@std@@@std@@IBEII@Z
_TEXT	SEGMENT
__Count$ = 8						; size = 4
?_Grow_to@?$vector@UAniEventInfo@@V?$allocator@UAniEventInfo@@@std@@@std@@IBEII@Z PROC ; std::vector<AniEventInfo,std::allocator<AniEventInfo> >::_Grow_to, COMDAT
; _this$ = ecx

; 1274 : 		{	// grow by 50% or at least to _Count

  00000	55		 push	 ebp
  00001	8b ec		 mov	 ebp, esp

; 1275 : 		size_type _Capacity = capacity();

  00003	8b 41 08	 mov	 eax, DWORD PTR [ecx+8]
  00006	2b 01		 sub	 eax, DWORD PTR [ecx]

; 1276 : 
; 1277 : 		_Capacity = max_size() - _Capacity / 2 < _Capacity
; 1278 : 			? 0 : _Capacity + _Capacity / 2;	// try to grow by 50%

  00008	ba ff ff ff 07	 mov	 edx, 134217727		; 07ffffffH
  0000d	c1 f8 05	 sar	 eax, 5
  00010	8b c8		 mov	 ecx, eax
  00012	d1 e9		 shr	 ecx, 1
  00014	2b d1		 sub	 edx, ecx
  00016	3b d0		 cmp	 edx, eax
  00018	73 04		 jae	 SHORT $LN4@Grow_to
  0001a	33 c0		 xor	 eax, eax
  0001c	eb 02		 jmp	 SHORT $LN5@Grow_to
$LN4@Grow_to:
  0001e	03 c1		 add	 eax, ecx
$LN5@Grow_to:

; 1279 : 		if (_Capacity < _Count)

  00020	3b 45 08	 cmp	 eax, DWORD PTR __Count$[ebp]

; 1280 : 			_Capacity = _Count;

  00023	0f 42 45 08	 cmovb	 eax, DWORD PTR __Count$[ebp]

; 1281 : 		return (_Capacity);
; 1282 : 		}

  00027	5d		 pop	 ebp
  00028	c2 04 00	 ret	 4
?_Grow_to@?$vector@UAniEventInfo@@V?$allocator@UAniEventInfo@@@std@@@std@@IBEII@Z ENDP ; std::vector<AniEventInfo,std::allocator<AniEventInfo> >::_Grow_to
_TEXT	ENDS
PUBLIC	??0?$_Vector_const_iterator@V?$_Vector_val@UAniEventInfo@@V?$allocator@UAniEventInfo@@@std@@@std@@@std@@QAE@PAUAniEventInfo@@PBU_Container_base0@1@@Z ; std::_Vector_const_iterator<std::_Vector_val<AniEventInfo,std::allocator<AniEventInfo> > >::_Vector_const_iterator<std::_Vector_val<AniEventInfo,std::allocator<AniEventInfo> > >
; Function compile flags: /Ogsp
;	COMDAT ??0?$_Vector_const_iterator@V?$_Vector_val@UAniEventInfo@@V?$allocator@UAniEventInfo@@@std@@@std@@@std@@QAE@PAUAniEventInfo@@PBU_Container_base0@1@@Z
_TEXT	SEGMENT
__Parg$ = 8						; size = 4
__Pvector$ = 12						; size = 4
??0?$_Vector_const_iterator@V?$_Vector_val@UAniEventInfo@@V?$allocator@UAniEventInfo@@@std@@@std@@@std@@QAE@PAUAniEventInfo@@PBU_Container_base0@1@@Z PROC ; std::_Vector_const_iterator<std::_Vector_val<AniEventInfo,std::allocator<AniEventInfo> > >::_Vector_const_iterator<std::_Vector_val<AniEventInfo,std::allocator<AniEventInfo> > >, COMDAT
; _this$ = ecx

; 45   : 		{	// construct with pointer _Parg

  00000	55		 push	 ebp
  00001	8b ec		 mov	 ebp, esp
  00003	8b c1		 mov	 eax, ecx
  00005	8b 4d 08	 mov	 ecx, DWORD PTR __Parg$[ebp]
  00008	89 08		 mov	 DWORD PTR [eax], ecx

; 46   : 		this->_Adopt(_Pvector);
; 47   : 		}

  0000a	5d		 pop	 ebp
  0000b	c2 08 00	 ret	 8
??0?$_Vector_const_iterator@V?$_Vector_val@UAniEventInfo@@V?$allocator@UAniEventInfo@@@std@@@std@@@std@@QAE@PAUAniEventInfo@@PBU_Container_base0@1@@Z ENDP ; std::_Vector_const_iterator<std::_Vector_val<AniEventInfo,std::allocator<AniEventInfo> > >::_Vector_const_iterator<std::_Vector_val<AniEventInfo,std::allocator<AniEventInfo> > >
_TEXT	ENDS
PUBLIC	?allocate@?$allocator@UAniEventInfo@@@std@@QAEPAUAniEventInfo@@I@Z ; std::allocator<AniEventInfo>::allocate
; Function compile flags: /Ogsp
; File c:\program files (x86)\microsoft visual studio 10.0\vc\include\xmemory
;	COMDAT ?allocate@?$allocator@UAniEventInfo@@@std@@QAEPAUAniEventInfo@@I@Z
_TEXT	SEGMENT
__Count$ = 8						; size = 4
?allocate@?$allocator@UAniEventInfo@@@std@@QAEPAUAniEventInfo@@I@Z PROC ; std::allocator<AniEventInfo>::allocate, COMDAT
; _this$ = ecx

; 186  : 		{	// allocate array of _Count elements

  00000	55		 push	 ebp
  00001	8b ec		 mov	 ebp, esp

; 187  : 		return (_Allocate(_Count, (pointer)0));

  00003	6a 00		 push	 0
  00005	ff 75 08	 push	 DWORD PTR __Count$[ebp]
  00008	e8 00 00 00 00	 call	 ??$_Allocate@UAniEventInfo@@@std@@YAPAUAniEventInfo@@IPAU1@@Z ; std::_Allocate<AniEventInfo>
  0000d	59		 pop	 ecx
  0000e	59		 pop	 ecx

; 188  : 		}

  0000f	5d		 pop	 ebp
  00010	c2 04 00	 ret	 4
?allocate@?$allocator@UAniEventInfo@@@std@@QAEPAUAniEventInfo@@I@Z ENDP ; std::allocator<AniEventInfo>::allocate
_TEXT	ENDS
PUBLIC	__$ArrayPad$
PUBLIC	??$?8$0M@@@YA_NABVioHashString@@AAY0M@$$CBD@Z	; operator==<12>
EXTRN	__imp_?c_str@ioHashString@@QBEPBDXZ:PROC
EXTRN	___security_cookie:DWORD
; Function compile flags: /Ogsp
; File d:\lost saga for developer\youtube\tutorial\source\src\io3dengine\iohashstring.h
;	COMDAT ??$?8$0M@@@YA_NABVioHashString@@AAY0M@$$CBD@Z
_TEXT	SEGMENT
__t$ = -20						; size = 12
__$ArrayPad$ = -4					; size = 4
_lhs$ = 8						; size = 4
_t$ = 12						; size = 4
??$?8$0M@@@YA_NABVioHashString@@AAY0M@$$CBD@Z PROC	; operator==<12>, COMDAT

; 146  : {

  00000	55		 push	 ebp
  00001	8b ec		 mov	 ebp, esp
  00003	83 ec 14	 sub	 esp, 20			; 00000014H
  00006	a1 00 00 00 00	 mov	 eax, DWORD PTR ___security_cookie
  0000b	33 c5		 xor	 eax, ebp
  0000d	89 45 fc	 mov	 DWORD PTR __$ArrayPad$[ebp], eax
  00010	8b 45 0c	 mov	 eax, DWORD PTR _t$[ebp]

; 147  : 	_ENCSTR(t, _t); return ( strcmp( lhs.c_str(), _t ) == 0 );

  00013	8a 10		 mov	 dl, BYTE PTR [eax]
  00015	56		 push	 esi
  00016	57		 push	 edi
  00017	8b 7d 08	 mov	 edi, DWORD PTR _lhs$[ebp]
  0001a	84 d2		 test	 dl, dl
  0001c	0f 84 32 01 00
	00		 je	 $LN96@operator
  00022	80 f2 ed	 xor	 dl, -19			; ffffffedH
  00025	88 55 ec	 mov	 BYTE PTR __t$[ebp], dl
  00028	8a 50 01	 mov	 dl, BYTE PTR [eax+1]
  0002b	84 d2		 test	 dl, dl
  0002d	0f 84 1b 01 00
	00		 je	 $LN95@operator
  00033	80 f2 ec	 xor	 dl, -20			; ffffffecH
  00036	88 55 ed	 mov	 BYTE PTR __t$[ebp+1], dl
  00039	8a 50 02	 mov	 dl, BYTE PTR [eax+2]
  0003c	84 d2		 test	 dl, dl
  0003e	0f 84 04 01 00
	00		 je	 $LN94@operator
  00044	b1 eb		 mov	 cl, -21			; ffffffebH
  00046	32 d1		 xor	 dl, cl
  00048	88 55 ee	 mov	 BYTE PTR __t$[ebp+2], dl
  0004b	8a 50 03	 mov	 dl, BYTE PTR [eax+3]
  0004e	84 d2		 test	 dl, dl
  00050	0f 84 ec 00 00
	00		 je	 $LN93@operator
  00056	80 f2 ea	 xor	 dl, -22			; ffffffeaH
  00059	88 55 ef	 mov	 BYTE PTR __t$[ebp+3], dl
  0005c	8a 50 04	 mov	 dl, BYTE PTR [eax+4]
  0005f	84 d2		 test	 dl, dl
  00061	0f 84 d5 00 00
	00		 je	 $LN92@operator
  00067	80 f2 ed	 xor	 dl, -19			; ffffffedH
  0006a	88 55 f0	 mov	 BYTE PTR __t$[ebp+4], dl
  0006d	8a 50 05	 mov	 dl, BYTE PTR [eax+5]
  00070	84 d2		 test	 dl, dl
  00072	0f 84 be 00 00
	00		 je	 $LN91@operator
  00078	80 f2 ec	 xor	 dl, -20			; ffffffecH
  0007b	88 55 f1	 mov	 BYTE PTR __t$[ebp+5], dl
  0007e	8a 50 06	 mov	 dl, BYTE PTR [eax+6]
  00081	84 d2		 test	 dl, dl
  00083	0f 84 a8 00 00
	00		 je	 $LN90@operator
  00089	32 d1		 xor	 dl, cl
  0008b	88 55 f2	 mov	 BYTE PTR __t$[ebp+6], dl
  0008e	8a 50 07	 mov	 dl, BYTE PTR [eax+7]
  00091	84 d2		 test	 dl, dl
  00093	0f 84 92 00 00
	00		 je	 $LN89@operator
  00099	80 f2 ea	 xor	 dl, -22			; ffffffeaH
  0009c	88 55 f3	 mov	 BYTE PTR __t$[ebp+7], dl
  0009f	8a 50 08	 mov	 dl, BYTE PTR [eax+8]
  000a2	84 d2		 test	 dl, dl
  000a4	74 7f		 je	 SHORT $LN88@operator
  000a6	80 f2 ed	 xor	 dl, -19			; ffffffedH
  000a9	88 55 f4	 mov	 BYTE PTR __t$[ebp+8], dl
  000ac	8a 50 09	 mov	 dl, BYTE PTR [eax+9]
  000af	84 d2		 test	 dl, dl
  000b1	74 6c		 je	 SHORT $LN87@operator
  000b3	80 f2 ec	 xor	 dl, -20			; ffffffecH
  000b6	88 55 f5	 mov	 BYTE PTR __t$[ebp+9], dl
  000b9	8a 50 0a	 mov	 dl, BYTE PTR [eax+10]
  000bc	84 d2		 test	 dl, dl
  000be	74 5a		 je	 SHORT $LN86@operator
  000c0	32 d1		 xor	 dl, cl
  000c2	80 78 0b 00	 cmp	 BYTE PTR [eax+11], 0
  000c6	88 55 f6	 mov	 BYTE PTR __t$[ebp+10], dl
  000c9	0f 84 89 00 00
	00		 je	 $LN1@operator
  000cf	8a 50 0c	 mov	 dl, BYTE PTR [eax+12]
  000d2	84 d2		 test	 dl, dl
  000d4	74 3e		 je	 SHORT $LN84@operator
  000d6	80 f2 ed	 xor	 dl, -19			; ffffffedH
  000d9	88 55 f8	 mov	 BYTE PTR __t$[ebp+12], dl
  000dc	8a 50 0d	 mov	 dl, BYTE PTR [eax+13]
  000df	84 d2		 test	 dl, dl
  000e1	74 2b		 je	 SHORT $LN83@operator
  000e3	80 f2 ec	 xor	 dl, -20			; ffffffecH
  000e6	88 55 f9	 mov	 BYTE PTR __t$[ebp+13], dl
  000e9	8a 50 0e	 mov	 dl, BYTE PTR [eax+14]
  000ec	84 d2		 test	 dl, dl
  000ee	74 19		 je	 SHORT $LN82@operator
  000f0	8a 40 0f	 mov	 al, BYTE PTR [eax+15]
  000f3	32 d1		 xor	 dl, cl
  000f5	88 55 fa	 mov	 BYTE PTR __t$[ebp+14], dl
  000f8	84 c0		 test	 al, al
  000fa	74 07		 je	 SHORT $LN81@operator
  000fc	34 ea		 xor	 al, -22			; ffffffeaH
  000fe	88 45 fb	 mov	 BYTE PTR __t$[ebp+15], al
  00101	eb 55		 jmp	 SHORT $LN1@operator
$LN81@operator:
  00103	c6 45 fb ea	 mov	 BYTE PTR __t$[ebp+15], -22 ; ffffffeaH
  00107	eb 4f		 jmp	 SHORT $LN1@operator
$LN82@operator:
  00109	88 4d fa	 mov	 BYTE PTR __t$[ebp+14], cl
  0010c	eb 4a		 jmp	 SHORT $LN1@operator
$LN83@operator:
  0010e	c6 45 f9 ec	 mov	 BYTE PTR __t$[ebp+13], -20 ; ffffffecH
  00112	eb 44		 jmp	 SHORT $LN1@operator
$LN84@operator:
  00114	c6 45 f8 ed	 mov	 BYTE PTR __t$[ebp+12], -19 ; ffffffedH
  00118	eb 3e		 jmp	 SHORT $LN1@operator
$LN86@operator:
  0011a	88 4d f6	 mov	 BYTE PTR __t$[ebp+10], cl
  0011d	eb 39		 jmp	 SHORT $LN1@operator
$LN87@operator:
  0011f	c6 45 f5 ec	 mov	 BYTE PTR __t$[ebp+9], -20 ; ffffffecH
  00123	eb 33		 jmp	 SHORT $LN1@operator
$LN88@operator:
  00125	c6 45 f4 ed	 mov	 BYTE PTR __t$[ebp+8], -19 ; ffffffedH
  00129	eb 2d		 jmp	 SHORT $LN1@operator
$LN89@operator:
  0012b	c6 45 f3 ea	 mov	 BYTE PTR __t$[ebp+7], -22 ; ffffffeaH
  0012f	eb 27		 jmp	 SHORT $LN1@operator
$LN90@operator:
  00131	88 4d f2	 mov	 BYTE PTR __t$[ebp+6], cl
  00134	eb 22		 jmp	 SHORT $LN1@operator
$LN91@operator:
  00136	c6 45 f1 ec	 mov	 BYTE PTR __t$[ebp+5], -20 ; ffffffecH
  0013a	eb 1c		 jmp	 SHORT $LN1@operator
$LN92@operator:
  0013c	c6 45 f0 ed	 mov	 BYTE PTR __t$[ebp+4], -19 ; ffffffedH
  00140	eb 16		 jmp	 SHORT $LN1@operator
$LN93@operator:
  00142	c6 45 ef ea	 mov	 BYTE PTR __t$[ebp+3], -22 ; ffffffeaH
  00146	eb 10		 jmp	 SHORT $LN1@operator
$LN94@operator:
  00148	c6 45 ee eb	 mov	 BYTE PTR __t$[ebp+2], -21 ; ffffffebH
  0014c	eb 0a		 jmp	 SHORT $LN1@operator
$LN95@operator:
  0014e	c6 45 ed ec	 mov	 BYTE PTR __t$[ebp+1], -20 ; ffffffecH
  00152	eb 04		 jmp	 SHORT $LN1@operator
$LN96@operator:
  00154	c6 45 ec ed	 mov	 BYTE PTR __t$[ebp], -19	; ffffffedH
$LN1@operator:
  00158	6a 02		 push	 2
  0015a	8d 45 ec	 lea	 eax, DWORD PTR __t$[ebp]
  0015d	c6 45 f7 00	 mov	 BYTE PTR __t$[ebp+11], 0
  00161	5a		 pop	 edx
$LL104@operator:
  00162	81 30 ed ec eb
	ea		 xor	 DWORD PTR [eax], -353637139 ; eaebecedH
  00168	83 c0 04	 add	 eax, 4
  0016b	4a		 dec	 edx
  0016c	75 f4		 jne	 SHORT $LL104@operator
  0016e	6a 08		 push	 8
  00170	58		 pop	 eax
$LL101@operator:
  00171	8b c8		 mov	 ecx, eax
  00173	81 e1 03 00 00
	80		 and	 ecx, -2147483645	; 80000003H
  00179	79 05		 jns	 SHORT $LN115@operator
  0017b	49		 dec	 ecx
  0017c	83 c9 fc	 or	 ecx, -4			; fffffffcH
  0017f	41		 inc	 ecx
$LN115@operator:
  00180	b2 ed		 mov	 dl, -19			; ffffffedH
  00182	2a d1		 sub	 dl, cl
  00184	30 54 05 ec	 xor	 BYTE PTR __t$[ebp+eax], dl
  00188	40		 inc	 eax
  00189	83 f8 0b	 cmp	 eax, 11			; 0000000bH
  0018c	7c e3		 jl	 SHORT $LL101@operator
  0018e	8b cf		 mov	 ecx, edi
  00190	8d 75 ec	 lea	 esi, DWORD PTR __t$[ebp]
  00193	ff 15 00 00 00
	00		 call	 DWORD PTR __imp_?c_str@ioHashString@@QBEPBDXZ
$LL111@operator:
  00199	8a 08		 mov	 cl, BYTE PTR [eax]
  0019b	3a 0e		 cmp	 cl, BYTE PTR [esi]
  0019d	75 1a		 jne	 SHORT $LN112@operator
  0019f	84 c9		 test	 cl, cl
  001a1	74 12		 je	 SHORT $LN113@operator
  001a3	8a 48 01	 mov	 cl, BYTE PTR [eax+1]
  001a6	3a 4e 01	 cmp	 cl, BYTE PTR [esi+1]
  001a9	75 0e		 jne	 SHORT $LN112@operator
  001ab	83 c0 02	 add	 eax, 2
  001ae	83 c6 02	 add	 esi, 2
  001b1	84 c9		 test	 cl, cl
  001b3	75 e4		 jne	 SHORT $LL111@operator
$LN113@operator:
  001b5	33 c0		 xor	 eax, eax
  001b7	eb 05		 jmp	 SHORT $LN114@operator
$LN112@operator:
  001b9	1b c0		 sbb	 eax, eax
  001bb	83 d8 ff	 sbb	 eax, -1
$LN114@operator:
  001be	33 c9		 xor	 ecx, ecx
  001c0	85 c0		 test	 eax, eax
  001c2	0f 94 c0	 sete	 al

; 148  : }

  001c5	8b 4d fc	 mov	 ecx, DWORD PTR __$ArrayPad$[ebp]
  001c8	5f		 pop	 edi
  001c9	33 cd		 xor	 ecx, ebp
  001cb	5e		 pop	 esi
  001cc	e8 00 00 00 00	 call	 @__security_check_cookie@4
  001d1	c9		 leave
  001d2	c3		 ret	 0
??$?8$0M@@@YA_NABVioHashString@@AAY0M@$$CBD@Z ENDP	; operator==<12>
_TEXT	ENDS
PUBLIC	??$_Cons_val@V?$allocator@UAniEventInfo@@@std@@UAniEventInfo@@AAU3@@std@@YAXAAV?$allocator@UAniEventInfo@@@0@PAUAniEventInfo@@AAU2@@Z ; std::_Cons_val<std::allocator<AniEventInfo>,AniEventInfo,AniEventInfo &>
;	COMDAT xdata$x
; File c:\program files (x86)\microsoft visual studio 10.0\vc\include\utility
xdata$x	SEGMENT
__unwindtable$??$_Cons_val@V?$allocator@UAniEventInfo@@@std@@UAniEventInfo@@AAU3@@std@@YAXAAV?$allocator@UAniEventInfo@@@0@PAUAniEventInfo@@AAU2@@Z DD 0ffffffffH
	DD	FLAT:__unwindfunclet$??$_Cons_val@V?$allocator@UAniEventInfo@@@std@@UAniEventInfo@@AAU3@@std@@YAXAAV?$allocator@UAniEventInfo@@@0@PAUAniEventInfo@@AAU2@@Z$0
__ehfuncinfo$??$_Cons_val@V?$allocator@UAniEventInfo@@@std@@UAniEventInfo@@AAU3@@std@@YAXAAV?$allocator@UAniEventInfo@@@0@PAUAniEventInfo@@AAU2@@Z DD 019930522H
	DD	01H
	DD	FLAT:__unwindtable$??$_Cons_val@V?$allocator@UAniEventInfo@@@std@@UAniEventInfo@@AAU3@@std@@YAXAAV?$allocator@UAniEventInfo@@@0@PAUAniEventInfo@@AAU2@@Z
	DD	2 DUP(00H)
	DD	2 DUP(00H)
	DD	00H
	DD	01H
; Function compile flags: /Ogsp
; File c:\program files (x86)\microsoft visual studio 10.0\vc\include\xmemory
xdata$x	ENDS
;	COMDAT ??$_Cons_val@V?$allocator@UAniEventInfo@@@std@@UAniEventInfo@@AAU3@@std@@YAXAAV?$allocator@UAniEventInfo@@@0@PAUAniEventInfo@@AAU2@@Z
_TEXT	SEGMENT
$T506590 = -16						; size = 4
__$EHRec$ = -12						; size = 12
__Alval$ = 8						; size = 4
__Pdest$ = 12						; size = 4
__Src$ = 16						; size = 4
??$_Cons_val@V?$allocator@UAniEventInfo@@@std@@UAniEventInfo@@AAU3@@std@@YAXAAV?$allocator@UAniEventInfo@@@0@PAUAniEventInfo@@AAU2@@Z PROC ; std::_Cons_val<std::allocator<AniEventInfo>,AniEventInfo,AniEventInfo &>, COMDAT

; 279  : 	{	// construct using allocator

  00000	6a 04		 push	 4
  00002	b8 00 00 00 00	 mov	 eax, __ehhandler$??$_Cons_val@V?$allocator@UAniEventInfo@@@std@@UAniEventInfo@@AAU3@@std@@YAXAAV?$allocator@UAniEventInfo@@@0@PAUAniEventInfo@@AAU2@@Z
  00007	e8 00 00 00 00	 call	 __EH_prolog3

; 280  : 	_Alval.construct(_Pdest, _STD forward<_Ty2>(_Src));

  0000c	8b 4d 0c	 mov	 ecx, DWORD PTR __Pdest$[ebp]
  0000f	89 4d f0	 mov	 DWORD PTR $T506590[ebp], ecx
  00012	83 65 fc 00	 and	 DWORD PTR __$EHRec$[ebp+8], 0
  00016	85 c9		 test	 ecx, ecx
  00018	74 08		 je	 SHORT $LN7@Cons_val
  0001a	ff 75 10	 push	 DWORD PTR __Src$[ebp]
  0001d	e8 00 00 00 00	 call	 ??0AniEventInfo@@QAE@ABU0@@Z
$LN7@Cons_val:

; 281  : 	}

  00022	e8 00 00 00 00	 call	 __EH_epilog3
  00027	c3		 ret	 0
_TEXT	ENDS
;	COMDAT text$x
text$x	SEGMENT
__unwindfunclet$??$_Cons_val@V?$allocator@UAniEventInfo@@@std@@UAniEventInfo@@AAU3@@std@@YAXAAV?$allocator@UAniEventInfo@@@0@PAUAniEventInfo@@AAU2@@Z$0:
  00000	ff 75 0c	 push	 DWORD PTR __Pdest$[ebp]
  00003	ff 75 f0	 push	 DWORD PTR $T506590[ebp]
  00006	e8 00 00 00 00	 call	 ??3@YAXPAX0@Z		; operator delete
  0000b	59		 pop	 ecx
  0000c	59		 pop	 ecx
  0000d	c3		 ret	 0
__ehhandler$??$_Cons_val@V?$allocator@UAniEventInfo@@@std@@UAniEventInfo@@AAU3@@std@@YAXAAV?$allocator@UAniEventInfo@@@0@PAUAniEventInfo@@AAU2@@Z:
  0000e	8b 54 24 08	 mov	 edx, DWORD PTR [esp+8]
  00012	8d 42 0c	 lea	 eax, DWORD PTR [edx+12]
  00015	8b 4a ec	 mov	 ecx, DWORD PTR [edx-20]
  00018	33 c8		 xor	 ecx, eax
  0001a	e8 00 00 00 00	 call	 @__security_check_cookie@4
  0001f	b8 00 00 00 00	 mov	 eax, OFFSET __ehfuncinfo$??$_Cons_val@V?$allocator@UAniEventInfo@@@std@@UAniEventInfo@@AAU3@@std@@YAXAAV?$allocator@UAniEventInfo@@@0@PAUAniEventInfo@@AAU2@@Z
  00024	e9 00 00 00 00	 jmp	 ___CxxFrameHandler3
text$x	ENDS
??$_Cons_val@V?$allocator@UAniEventInfo@@@std@@UAniEventInfo@@AAU3@@std@@YAXAAV?$allocator@UAniEventInfo@@@0@PAUAniEventInfo@@AAU2@@Z ENDP ; std::_Cons_val<std::allocator<AniEventInfo>,AniEventInfo,AniEventInfo &>
PUBLIC	?construct@?$allocator@UAniEventInfo@@@std@@QAEXPAUAniEventInfo@@ABU3@@Z ; std::allocator<AniEventInfo>::construct
; Function compile flags: /Ogsp
;	COMDAT ?construct@?$allocator@UAniEventInfo@@@std@@QAEXPAUAniEventInfo@@ABU3@@Z
_TEXT	SEGMENT
__Ptr$ = 8						; size = 4
__Val$ = 12						; size = 4
?construct@?$allocator@UAniEventInfo@@@std@@QAEXPAUAniEventInfo@@ABU3@@Z PROC ; std::allocator<AniEventInfo>::construct, COMDAT
; _this$ = ecx

; 196  : 		{	// construct object at _Ptr with value _Val

  00000	55		 push	 ebp
  00001	8b ec		 mov	 ebp, esp

; 197  : 		_Construct(_Ptr, _Val);

  00003	ff 75 0c	 push	 DWORD PTR __Val$[ebp]
  00006	ff 75 08	 push	 DWORD PTR __Ptr$[ebp]
  00009	e8 00 00 00 00	 call	 ??$_Construct@UAniEventInfo@@ABU1@@std@@YAXPAUAniEventInfo@@ABU1@@Z ; std::_Construct<AniEventInfo,AniEventInfo const &>
  0000e	59		 pop	 ecx
  0000f	59		 pop	 ecx

; 198  : 		}

  00010	5d		 pop	 ebp
  00011	c2 08 00	 ret	 8
?construct@?$allocator@UAniEventInfo@@@std@@QAEXPAUAniEventInfo@@ABU3@@Z ENDP ; std::allocator<AniEventInfo>::construct
_TEXT	ENDS
PUBLIC	??$_Move@PAUAniEventInfo@@PAU1@@std@@YAPAUAniEventInfo@@PAU1@00U_Nonscalar_ptr_iterator_tag@0@@Z ; std::_Move<AniEventInfo *,AniEventInfo *>
; Function compile flags: /Ogsp
; File c:\program files (x86)\microsoft visual studio 10.0\vc\include\xutility
;	COMDAT ??$_Move@PAUAniEventInfo@@PAU1@@std@@YAPAUAniEventInfo@@PAU1@00U_Nonscalar_ptr_iterator_tag@0@@Z
_TEXT	SEGMENT
__First$ = 8						; size = 4
__Last$ = 12						; size = 4
__Dest$ = 16						; size = 4
___formal$ = 20						; size = 1
??$_Move@PAUAniEventInfo@@PAU1@@std@@YAPAUAniEventInfo@@PAU1@00U_Nonscalar_ptr_iterator_tag@0@@Z PROC ; std::_Move<AniEventInfo *,AniEventInfo *>, COMDAT

; 2512 : 	{	// move [_First, _Last) to [_Dest, ...), arbitrary iterators

  00000	55		 push	 ebp
  00001	8b ec		 mov	 ebp, esp
  00003	57		 push	 edi

; 2513 : 	for (; _First != _Last; ++_Dest, ++_First)

  00004	8b 7d 08	 mov	 edi, DWORD PTR __First$[ebp]
  00007	3b 7d 0c	 cmp	 edi, DWORD PTR __Last$[ebp]
  0000a	74 26		 je	 SHORT $LN12@Move
  0000c	56		 push	 esi
  0000d	8b 35 00 00 00
	00		 mov	 esi, DWORD PTR __imp_??4ioHashString@@QAEAAV0@ABV0@@Z
$LL3@Move:

; 2514 : 		*_Dest = _STD move(*_First);

  00013	8b 4d 10	 mov	 ecx, DWORD PTR __Dest$[ebp]
  00016	57		 push	 edi
  00017	ff d6		 call	 esi
  00019	8b 4d 10	 mov	 ecx, DWORD PTR __Dest$[ebp]
  0001c	8d 47 10	 lea	 eax, DWORD PTR [edi+16]
  0001f	50		 push	 eax
  00020	83 c1 10	 add	 ecx, 16			; 00000010H
  00023	ff d6		 call	 esi
  00025	83 45 10 20	 add	 DWORD PTR __Dest$[ebp], 32 ; 00000020H
  00029	83 c7 20	 add	 edi, 32			; 00000020H
  0002c	3b 7d 0c	 cmp	 edi, DWORD PTR __Last$[ebp]
  0002f	75 e2		 jne	 SHORT $LL3@Move
  00031	5e		 pop	 esi
$LN12@Move:

; 2515 : 	return (_Dest);

  00032	8b 45 10	 mov	 eax, DWORD PTR __Dest$[ebp]
  00035	5f		 pop	 edi

; 2516 : 	}

  00036	5d		 pop	 ebp
  00037	c3		 ret	 0
??$_Move@PAUAniEventInfo@@PAU1@@std@@YAPAUAniEventInfo@@PAU1@00U_Nonscalar_ptr_iterator_tag@0@@Z ENDP ; std::_Move<AniEventInfo *,AniEventInfo *>
_TEXT	ENDS
PUBLIC	??$_Destroy@UAniEventInfo@@@std@@YAXPAUAniEventInfo@@@Z ; std::_Destroy<AniEventInfo>
; Function compile flags: /Ogsp
; File c:\program files (x86)\microsoft visual studio 10.0\vc\include\xmemory
;	COMDAT ??$_Destroy@UAniEventInfo@@@std@@YAXPAUAniEventInfo@@@Z
_TEXT	SEGMENT
__Ptr$ = 8						; size = 4
??$_Destroy@UAniEventInfo@@@std@@YAXPAUAniEventInfo@@@Z PROC ; std::_Destroy<AniEventInfo>, COMDAT

; 62   : 	{	// destroy object at _Ptr

  00000	55		 push	 ebp
  00001	8b ec		 mov	 ebp, esp

; 63   : 	_Ptr->~_Ty();

  00003	8b 4d 08	 mov	 ecx, DWORD PTR __Ptr$[ebp]

; 64   : 	}

  00006	5d		 pop	 ebp

; 63   : 	_Ptr->~_Ty();

  00007	e9 00 00 00 00	 jmp	 ??1AniEventInfo@@QAE@XZ
??$_Destroy@UAniEventInfo@@@std@@YAXPAUAniEventInfo@@@Z ENDP ; std::_Destroy<AniEventInfo>
_TEXT	ENDS
PUBLIC	?construct@?$allocator@UAniEventInfo@@@std@@QAEXPAUAniEventInfo@@$$QAU3@@Z ; std::allocator<AniEventInfo>::construct
;	COMDAT xdata$x
; File c:\program files (x86)\microsoft visual studio 10.0\vc\include\utility
xdata$x	SEGMENT
__unwindtable$?construct@?$allocator@UAniEventInfo@@@std@@QAEXPAUAniEventInfo@@$$QAU3@@Z DD 0ffffffffH
	DD	FLAT:__unwindfunclet$?construct@?$allocator@UAniEventInfo@@@std@@QAEXPAUAniEventInfo@@$$QAU3@@Z$0
__ehfuncinfo$?construct@?$allocator@UAniEventInfo@@@std@@QAEXPAUAniEventInfo@@$$QAU3@@Z DD 019930522H
	DD	01H
	DD	FLAT:__unwindtable$?construct@?$allocator@UAniEventInfo@@@std@@QAEXPAUAniEventInfo@@$$QAU3@@Z
	DD	2 DUP(00H)
	DD	2 DUP(00H)
	DD	00H
	DD	01H
; Function compile flags: /Ogsp
; File c:\program files (x86)\microsoft visual studio 10.0\vc\include\xmemory
xdata$x	ENDS
;	COMDAT ?construct@?$allocator@UAniEventInfo@@@std@@QAEXPAUAniEventInfo@@$$QAU3@@Z
_TEXT	SEGMENT
$T506627 = -16						; size = 4
__$EHRec$ = -12						; size = 12
__Ptr$ = 8						; size = 4
__Val$ = 12						; size = 4
?construct@?$allocator@UAniEventInfo@@@std@@QAEXPAUAniEventInfo@@$$QAU3@@Z PROC ; std::allocator<AniEventInfo>::construct, COMDAT
; _this$ = ecx

; 201  : 		{	// construct object at _Ptr with value _Val

  00000	6a 04		 push	 4
  00002	b8 00 00 00 00	 mov	 eax, __ehhandler$?construct@?$allocator@UAniEventInfo@@@std@@QAEXPAUAniEventInfo@@$$QAU3@@Z
  00007	e8 00 00 00 00	 call	 __EH_prolog3

; 202  : 		::new ((void _FARQ *)_Ptr) _Ty(_STD forward<_Ty>(_Val));

  0000c	8b 4d 08	 mov	 ecx, DWORD PTR __Ptr$[ebp]
  0000f	89 4d f0	 mov	 DWORD PTR $T506627[ebp], ecx
  00012	83 65 fc 00	 and	 DWORD PTR __$EHRec$[ebp+8], 0
  00016	85 c9		 test	 ecx, ecx
  00018	74 08		 je	 SHORT $LN3@construct@2
  0001a	ff 75 0c	 push	 DWORD PTR __Val$[ebp]
  0001d	e8 00 00 00 00	 call	 ??0AniEventInfo@@QAE@ABU0@@Z
$LN3@construct@2:

; 203  : 		}

  00022	e8 00 00 00 00	 call	 __EH_epilog3
  00027	c2 08 00	 ret	 8
_TEXT	ENDS
;	COMDAT text$x
text$x	SEGMENT
__unwindfunclet$?construct@?$allocator@UAniEventInfo@@@std@@QAEXPAUAniEventInfo@@$$QAU3@@Z$0:
  00000	ff 75 08	 push	 DWORD PTR __Ptr$[ebp]
  00003	ff 75 f0	 push	 DWORD PTR $T506627[ebp]
  00006	e8 00 00 00 00	 call	 ??3@YAXPAX0@Z		; operator delete
  0000b	59		 pop	 ecx
  0000c	59		 pop	 ecx
  0000d	c3		 ret	 0
__ehhandler$?construct@?$allocator@UAniEventInfo@@@std@@QAEXPAUAniEventInfo@@$$QAU3@@Z:
  0000e	8b 54 24 08	 mov	 edx, DWORD PTR [esp+8]
  00012	8d 42 0c	 lea	 eax, DWORD PTR [edx+12]
  00015	8b 4a ec	 mov	 ecx, DWORD PTR [edx-20]
  00018	33 c8		 xor	 ecx, eax
  0001a	e8 00 00 00 00	 call	 @__security_check_cookie@4
  0001f	b8 00 00 00 00	 mov	 eax, OFFSET __ehfuncinfo$?construct@?$allocator@UAniEventInfo@@@std@@QAEXPAUAniEventInfo@@$$QAU3@@Z
  00024	e9 00 00 00 00	 jmp	 ___CxxFrameHandler3
text$x	ENDS
?construct@?$allocator@UAniEventInfo@@@std@@QAEXPAUAniEventInfo@@$$QAU3@@Z ENDP ; std::allocator<AniEventInfo>::construct
PUBLIC	??0?$vector@UAniEventInfo@@V?$allocator@UAniEventInfo@@@std@@@std@@QAE@XZ ; std::vector<AniEventInfo,std::allocator<AniEventInfo> >::vector<AniEventInfo,std::allocator<AniEventInfo> >
; Function compile flags: /Ogsp
; File c:\program files (x86)\microsoft visual studio 10.0\vc\include\vector
;	COMDAT ??0?$vector@UAniEventInfo@@V?$allocator@UAniEventInfo@@@std@@@std@@QAE@XZ
_TEXT	SEGMENT
??0?$vector@UAniEventInfo@@V?$allocator@UAniEventInfo@@@std@@@std@@QAE@XZ PROC ; std::vector<AniEventInfo,std::allocator<AniEventInfo> >::vector<AniEventInfo,std::allocator<AniEventInfo> >, COMDAT
; _this$ = ecx

; 507  : 		{	// construct empty vector

  00000	8b c1		 mov	 eax, ecx
  00002	33 c9		 xor	 ecx, ecx
  00004	89 08		 mov	 DWORD PTR [eax], ecx
  00006	89 48 04	 mov	 DWORD PTR [eax+4], ecx
  00009	89 48 08	 mov	 DWORD PTR [eax+8], ecx

; 508  : 		}

  0000c	c3		 ret	 0
??0?$vector@UAniEventInfo@@V?$allocator@UAniEventInfo@@@std@@@std@@QAE@XZ ENDP ; std::vector<AniEventInfo,std::allocator<AniEventInfo> >::vector<AniEventInfo,std::allocator<AniEventInfo> >
_TEXT	ENDS
PUBLIC	??9?$_Vector_const_iterator@V?$_Vector_val@UAniEventInfo@@V?$allocator@UAniEventInfo@@@std@@@std@@@std@@QBE_NABV01@@Z ; std::_Vector_const_iterator<std::_Vector_val<AniEventInfo,std::allocator<AniEventInfo> > >::operator!=
; Function compile flags: /Ogsp
;	COMDAT ??9?$_Vector_const_iterator@V?$_Vector_val@UAniEventInfo@@V?$allocator@UAniEventInfo@@@std@@@std@@@std@@QBE_NABV01@@Z
_TEXT	SEGMENT
__Right$ = 8						; size = 4
??9?$_Vector_const_iterator@V?$_Vector_val@UAniEventInfo@@V?$allocator@UAniEventInfo@@@std@@@std@@@std@@QBE_NABV01@@Z PROC ; std::_Vector_const_iterator<std::_Vector_val<AniEventInfo,std::allocator<AniEventInfo> > >::operator!=, COMDAT
; _this$ = ecx

; 207  : 		{	// test for iterator inequality

  00000	55		 push	 ebp
  00001	8b ec		 mov	 ebp, esp

; 208  : 		return (!(*this == _Right));

  00003	8b 01		 mov	 eax, DWORD PTR [ecx]
  00005	8b 55 08	 mov	 edx, DWORD PTR __Right$[ebp]
  00008	33 c9		 xor	 ecx, ecx
  0000a	3b 02		 cmp	 eax, DWORD PTR [edx]
  0000c	0f 95 c0	 setne	 al

; 209  : 		}

  0000f	5d		 pop	 ebp
  00010	c2 04 00	 ret	 4
??9?$_Vector_const_iterator@V?$_Vector_val@UAniEventInfo@@V?$allocator@UAniEventInfo@@@std@@@std@@@std@@QBE_NABV01@@Z ENDP ; std::_Vector_const_iterator<std::_Vector_val<AniEventInfo,std::allocator<AniEventInfo> > >::operator!=
_TEXT	ENDS
PUBLIC	??0?$_Vector_iterator@V?$_Vector_val@UAniEventInfo@@V?$allocator@UAniEventInfo@@@std@@@std@@@std@@QAE@PAUAniEventInfo@@PBU_Container_base0@1@@Z ; std::_Vector_iterator<std::_Vector_val<AniEventInfo,std::allocator<AniEventInfo> > >::_Vector_iterator<std::_Vector_val<AniEventInfo,std::allocator<AniEventInfo> > >
; Function compile flags: /Ogsp
;	COMDAT ??0?$_Vector_iterator@V?$_Vector_val@UAniEventInfo@@V?$allocator@UAniEventInfo@@@std@@@std@@@std@@QAE@PAUAniEventInfo@@PBU_Container_base0@1@@Z
_TEXT	SEGMENT
__Parg$ = 8						; size = 4
__Pvector$ = 12						; size = 4
??0?$_Vector_iterator@V?$_Vector_val@UAniEventInfo@@V?$allocator@UAniEventInfo@@@std@@@std@@@std@@QAE@PAUAniEventInfo@@PBU_Container_base0@1@@Z PROC ; std::_Vector_iterator<std::_Vector_val<AniEventInfo,std::allocator<AniEventInfo> > >::_Vector_iterator<std::_Vector_val<AniEventInfo,std::allocator<AniEventInfo> > >, COMDAT
; _this$ = ecx

; 304  : 		{	// construct with pointer _Parg

  00000	55		 push	 ebp
  00001	8b ec		 mov	 ebp, esp
  00003	8b c1		 mov	 eax, ecx
  00005	8b 4d 08	 mov	 ecx, DWORD PTR __Parg$[ebp]
  00008	89 08		 mov	 DWORD PTR [eax], ecx

; 305  : 		}

  0000a	5d		 pop	 ebp
  0000b	c2 08 00	 ret	 8
??0?$_Vector_iterator@V?$_Vector_val@UAniEventInfo@@V?$allocator@UAniEventInfo@@@std@@@std@@@std@@QAE@PAUAniEventInfo@@PBU_Container_base0@1@@Z ENDP ; std::_Vector_iterator<std::_Vector_val<AniEventInfo,std::allocator<AniEventInfo> > >::_Vector_iterator<std::_Vector_val<AniEventInfo,std::allocator<AniEventInfo> > >
_TEXT	ENDS
PUBLIC	??$_Cons_val@V?$allocator@UAniEventInfo@@@std@@UAniEventInfo@@ABU3@@std@@YAXAAV?$allocator@UAniEventInfo@@@0@PAUAniEventInfo@@ABU2@@Z ; std::_Cons_val<std::allocator<AniEventInfo>,AniEventInfo,AniEventInfo const &>
; Function compile flags: /Ogsp
; File c:\program files (x86)\microsoft visual studio 10.0\vc\include\xmemory
;	COMDAT ??$_Cons_val@V?$allocator@UAniEventInfo@@@std@@UAniEventInfo@@ABU3@@std@@YAXAAV?$allocator@UAniEventInfo@@@0@PAUAniEventInfo@@ABU2@@Z
_TEXT	SEGMENT
__Alval$ = 8						; size = 4
__Pdest$ = 12						; size = 4
__Src$ = 16						; size = 4
??$_Cons_val@V?$allocator@UAniEventInfo@@@std@@UAniEventInfo@@ABU3@@std@@YAXAAV?$allocator@UAniEventInfo@@@0@PAUAniEventInfo@@ABU2@@Z PROC ; std::_Cons_val<std::allocator<AniEventInfo>,AniEventInfo,AniEventInfo const &>, COMDAT

; 279  : 	{	// construct using allocator

  00000	55		 push	 ebp
  00001	8b ec		 mov	 ebp, esp

; 280  : 	_Alval.construct(_Pdest, _STD forward<_Ty2>(_Src));

  00003	ff 75 10	 push	 DWORD PTR __Src$[ebp]
  00006	ff 75 0c	 push	 DWORD PTR __Pdest$[ebp]
  00009	e8 00 00 00 00	 call	 ??$_Construct@UAniEventInfo@@ABU1@@std@@YAXPAUAniEventInfo@@ABU1@@Z ; std::_Construct<AniEventInfo,AniEventInfo const &>
  0000e	59		 pop	 ecx
  0000f	59		 pop	 ecx

; 281  : 	}

  00010	5d		 pop	 ebp
  00011	c3		 ret	 0
??$_Cons_val@V?$allocator@UAniEventInfo@@@std@@UAniEventInfo@@ABU3@@std@@YAXAAV?$allocator@UAniEventInfo@@@0@PAUAniEventInfo@@ABU2@@Z ENDP ; std::_Cons_val<std::allocator<AniEventInfo>,AniEventInfo,AniEventInfo const &>
_TEXT	ENDS
PUBLIC	??$_Move@PAUAniEventInfo@@PAU1@@std@@YAPAUAniEventInfo@@PAU1@00@Z ; std::_Move<AniEventInfo *,AniEventInfo *>
; Function compile flags: /Ogsp
; File c:\program files (x86)\microsoft visual studio 10.0\vc\include\xutility
;	COMDAT ??$_Move@PAUAniEventInfo@@PAU1@@std@@YAPAUAniEventInfo@@PAU1@00@Z
_TEXT	SEGMENT
__Cat$506693 = -4					; size = 1
__First$ = 8						; size = 4
__Last$ = 12						; size = 4
__Dest$ = 16						; size = 4
??$_Move@PAUAniEventInfo@@PAU1@@std@@YAPAUAniEventInfo@@PAU1@00@Z PROC ; std::_Move<AniEventInfo *,AniEventInfo *>, COMDAT

; 2533 : 	{	// move [_First, _Last) to [_Dest, ...), unchecked

  00000	55		 push	 ebp
  00001	8b ec		 mov	 ebp, esp
  00003	51		 push	 ecx

; 2534 : 	return (_Move(_First, _Last,
; 2535 : 		_Dest, _Ptr_cat(_First, _Dest)));

  00004	ff 75 fc	 push	 DWORD PTR __Cat$506693[ebp]
  00007	ff 75 10	 push	 DWORD PTR __Dest$[ebp]
  0000a	ff 75 0c	 push	 DWORD PTR __Last$[ebp]
  0000d	ff 75 08	 push	 DWORD PTR __First$[ebp]
  00010	e8 00 00 00 00	 call	 ??$_Move@PAUAniEventInfo@@PAU1@@std@@YAPAUAniEventInfo@@PAU1@00U_Nonscalar_ptr_iterator_tag@0@@Z ; std::_Move<AniEventInfo *,AniEventInfo *>
  00015	83 c4 10	 add	 esp, 16			; 00000010H

; 2536 : 	}

  00018	c9		 leave
  00019	c3		 ret	 0
??$_Move@PAUAniEventInfo@@PAU1@@std@@YAPAUAniEventInfo@@PAU1@00@Z ENDP ; std::_Move<AniEventInfo *,AniEventInfo *>
_TEXT	ENDS
PUBLIC	?destroy@?$allocator@UAniEventInfo@@@std@@QAEXPAUAniEventInfo@@@Z ; std::allocator<AniEventInfo>::destroy
; Function compile flags: /Ogsp
; File c:\program files (x86)\microsoft visual studio 10.0\vc\include\xmemory
;	COMDAT ?destroy@?$allocator@UAniEventInfo@@@std@@QAEXPAUAniEventInfo@@@Z
_TEXT	SEGMENT
__Ptr$ = 8						; size = 4
?destroy@?$allocator@UAniEventInfo@@@std@@QAEXPAUAniEventInfo@@@Z PROC ; std::allocator<AniEventInfo>::destroy, COMDAT
; _this$ = ecx

; 212  : 		{	// destroy object at _Ptr

  00000	55		 push	 ebp
  00001	8b ec		 mov	 ebp, esp

; 213  : 		_Destroy(_Ptr);

  00003	8b 4d 08	 mov	 ecx, DWORD PTR __Ptr$[ebp]
  00006	e8 00 00 00 00	 call	 ??1AniEventInfo@@QAE@XZ

; 214  : 		}

  0000b	5d		 pop	 ebp
  0000c	c2 04 00	 ret	 4
?destroy@?$allocator@UAniEventInfo@@@std@@QAEXPAUAniEventInfo@@@Z ENDP ; std::allocator<AniEventInfo>::destroy
_TEXT	ENDS
PUBLIC	??$_Cons_val@V?$allocator@UAniEventInfo@@@std@@UAniEventInfo@@U3@@std@@YAXAAV?$allocator@UAniEventInfo@@@0@PAUAniEventInfo@@$$QAU2@@Z ; std::_Cons_val<std::allocator<AniEventInfo>,AniEventInfo,AniEventInfo>
;	COMDAT xdata$x
; File c:\program files (x86)\microsoft visual studio 10.0\vc\include\utility
xdata$x	SEGMENT
__unwindtable$??$_Cons_val@V?$allocator@UAniEventInfo@@@std@@UAniEventInfo@@U3@@std@@YAXAAV?$allocator@UAniEventInfo@@@0@PAUAniEventInfo@@$$QAU2@@Z DD 0ffffffffH
	DD	FLAT:__unwindfunclet$??$_Cons_val@V?$allocator@UAniEventInfo@@@std@@UAniEventInfo@@U3@@std@@YAXAAV?$allocator@UAniEventInfo@@@0@PAUAniEventInfo@@$$QAU2@@Z$0
__ehfuncinfo$??$_Cons_val@V?$allocator@UAniEventInfo@@@std@@UAniEventInfo@@U3@@std@@YAXAAV?$allocator@UAniEventInfo@@@0@PAUAniEventInfo@@$$QAU2@@Z DD 019930522H
	DD	01H
	DD	FLAT:__unwindtable$??$_Cons_val@V?$allocator@UAniEventInfo@@@std@@UAniEventInfo@@U3@@std@@YAXAAV?$allocator@UAniEventInfo@@@0@PAUAniEventInfo@@$$QAU2@@Z
	DD	2 DUP(00H)
	DD	2 DUP(00H)
	DD	00H
	DD	01H
; Function compile flags: /Ogsp
; File c:\program files (x86)\microsoft visual studio 10.0\vc\include\xmemory
xdata$x	ENDS
;	COMDAT ??$_Cons_val@V?$allocator@UAniEventInfo@@@std@@UAniEventInfo@@U3@@std@@YAXAAV?$allocator@UAniEventInfo@@@0@PAUAniEventInfo@@$$QAU2@@Z
_TEXT	SEGMENT
$T506727 = -16						; size = 4
__$EHRec$ = -12						; size = 12
__Alval$ = 8						; size = 4
__Pdest$ = 12						; size = 4
__Src$ = 16						; size = 4
??$_Cons_val@V?$allocator@UAniEventInfo@@@std@@UAniEventInfo@@U3@@std@@YAXAAV?$allocator@UAniEventInfo@@@0@PAUAniEventInfo@@$$QAU2@@Z PROC ; std::_Cons_val<std::allocator<AniEventInfo>,AniEventInfo,AniEventInfo>, COMDAT

; 279  : 	{	// construct using allocator

  00000	6a 04		 push	 4
  00002	b8 00 00 00 00	 mov	 eax, __ehhandler$??$_Cons_val@V?$allocator@UAniEventInfo@@@std@@UAniEventInfo@@U3@@std@@YAXAAV?$allocator@UAniEventInfo@@@0@PAUAniEventInfo@@$$QAU2@@Z
  00007	e8 00 00 00 00	 call	 __EH_prolog3

; 280  : 	_Alval.construct(_Pdest, _STD forward<_Ty2>(_Src));

  0000c	8b 4d 0c	 mov	 ecx, DWORD PTR __Pdest$[ebp]
  0000f	89 4d f0	 mov	 DWORD PTR $T506727[ebp], ecx
  00012	83 65 fc 00	 and	 DWORD PTR __$EHRec$[ebp+8], 0
  00016	85 c9		 test	 ecx, ecx
  00018	74 08		 je	 SHORT $LN7@Cons_val@2
  0001a	ff 75 10	 push	 DWORD PTR __Src$[ebp]
  0001d	e8 00 00 00 00	 call	 ??0AniEventInfo@@QAE@ABU0@@Z
$LN7@Cons_val@2:

; 281  : 	}

  00022	e8 00 00 00 00	 call	 __EH_epilog3
  00027	c3		 ret	 0
_TEXT	ENDS
;	COMDAT text$x
text$x	SEGMENT
__unwindfunclet$??$_Cons_val@V?$allocator@UAniEventInfo@@@std@@UAniEventInfo@@U3@@std@@YAXAAV?$allocator@UAniEventInfo@@@0@PAUAniEventInfo@@$$QAU2@@Z$0:
  00000	ff 75 0c	 push	 DWORD PTR __Pdest$[ebp]
  00003	ff 75 f0	 push	 DWORD PTR $T506727[ebp]
  00006	e8 00 00 00 00	 call	 ??3@YAXPAX0@Z		; operator delete
  0000b	59		 pop	 ecx
  0000c	59		 pop	 ecx
  0000d	c3		 ret	 0
__ehhandler$??$_Cons_val@V?$allocator@UAniEventInfo@@@std@@UAniEventInfo@@U3@@std@@YAXAAV?$allocator@UAniEventInfo@@@0@PAUAniEventInfo@@$$QAU2@@Z:
  0000e	8b 54 24 08	 mov	 edx, DWORD PTR [esp+8]
  00012	8d 42 0c	 lea	 eax, DWORD PTR [edx+12]
  00015	8b 4a ec	 mov	 ecx, DWORD PTR [edx-20]
  00018	33 c8		 xor	 ecx, eax
  0001a	e8 00 00 00 00	 call	 @__security_check_cookie@4
  0001f	b8 00 00 00 00	 mov	 eax, OFFSET __ehfuncinfo$??$_Cons_val@V?$allocator@UAniEventInfo@@@std@@UAniEventInfo@@U3@@std@@YAXAAV?$allocator@UAniEventInfo@@@0@PAUAniEventInfo@@$$QAU2@@Z
  00024	e9 00 00 00 00	 jmp	 ___CxxFrameHandler3
text$x	ENDS
??$_Cons_val@V?$allocator@UAniEventInfo@@@std@@UAniEventInfo@@U3@@std@@YAXAAV?$allocator@UAniEventInfo@@@0@PAUAniEventInfo@@$$QAU2@@Z ENDP ; std::_Cons_val<std::allocator<AniEventInfo>,AniEventInfo,AniEventInfo>
PUBLIC	?begin@?$vector@UAniEventInfo@@V?$allocator@UAniEventInfo@@@std@@@std@@QAE?AV?$_Vector_iterator@V?$_Vector_val@UAniEventInfo@@V?$allocator@UAniEventInfo@@@std@@@std@@@2@XZ ; std::vector<AniEventInfo,std::allocator<AniEventInfo> >::begin
; Function compile flags: /Ogsp
; File c:\program files (x86)\microsoft visual studio 10.0\vc\include\vector
;	COMDAT ?begin@?$vector@UAniEventInfo@@V?$allocator@UAniEventInfo@@@std@@@std@@QAE?AV?$_Vector_iterator@V?$_Vector_val@UAniEventInfo@@V?$allocator@UAniEventInfo@@@std@@@std@@@2@XZ
_TEXT	SEGMENT
___$ReturnUdt$ = 8					; size = 4
?begin@?$vector@UAniEventInfo@@V?$allocator@UAniEventInfo@@@std@@@std@@QAE?AV?$_Vector_iterator@V?$_Vector_val@UAniEventInfo@@V?$allocator@UAniEventInfo@@@std@@@std@@@2@XZ PROC ; std::vector<AniEventInfo,std::allocator<AniEventInfo> >::begin, COMDAT
; _this$ = ecx

; 781  : 		{	// return iterator for beginning of mutable sequence

  00000	55		 push	 ebp
  00001	8b ec		 mov	 ebp, esp

; 782  : 		return (iterator(this->_Myfirst, this));

  00003	8b 09		 mov	 ecx, DWORD PTR [ecx]
  00005	8b 45 08	 mov	 eax, DWORD PTR ___$ReturnUdt$[ebp]
  00008	89 08		 mov	 DWORD PTR [eax], ecx

; 783  : 		}

  0000a	5d		 pop	 ebp
  0000b	c2 04 00	 ret	 4
?begin@?$vector@UAniEventInfo@@V?$allocator@UAniEventInfo@@@std@@@std@@QAE?AV?$_Vector_iterator@V?$_Vector_val@UAniEventInfo@@V?$allocator@UAniEventInfo@@@std@@@std@@@2@XZ ENDP ; std::vector<AniEventInfo,std::allocator<AniEventInfo> >::begin
_TEXT	ENDS
PUBLIC	?end@?$vector@UAniEventInfo@@V?$allocator@UAniEventInfo@@@std@@@std@@QAE?AV?$_Vector_iterator@V?$_Vector_val@UAniEventInfo@@V?$allocator@UAniEventInfo@@@std@@@std@@@2@XZ ; std::vector<AniEventInfo,std::allocator<AniEventInfo> >::end
; Function compile flags: /Ogsp
;	COMDAT ?end@?$vector@UAniEventInfo@@V?$allocator@UAniEventInfo@@@std@@@std@@QAE?AV?$_Vector_iterator@V?$_Vector_val@UAniEventInfo@@V?$allocator@UAniEventInfo@@@std@@@std@@@2@XZ
_TEXT	SEGMENT
___$ReturnUdt$ = 8					; size = 4
?end@?$vector@UAniEventInfo@@V?$allocator@UAniEventInfo@@@std@@@std@@QAE?AV?$_Vector_iterator@V?$_Vector_val@UAniEventInfo@@V?$allocator@UAniEventInfo@@@std@@@std@@@2@XZ PROC ; std::vector<AniEventInfo,std::allocator<AniEventInfo> >::end, COMDAT
; _this$ = ecx

; 791  : 		{	// return iterator for end of mutable sequence

  00000	55		 push	 ebp
  00001	8b ec		 mov	 ebp, esp

; 792  : 		return (iterator(this->_Mylast, this));

  00003	8b 49 04	 mov	 ecx, DWORD PTR [ecx+4]
  00006	8b 45 08	 mov	 eax, DWORD PTR ___$ReturnUdt$[ebp]
  00009	89 08		 mov	 DWORD PTR [eax], ecx

; 793  : 		}

  0000b	5d		 pop	 ebp
  0000c	c2 04 00	 ret	 4
?end@?$vector@UAniEventInfo@@V?$allocator@UAniEventInfo@@@std@@@std@@QAE?AV?$_Vector_iterator@V?$_Vector_val@UAniEventInfo@@V?$allocator@UAniEventInfo@@@std@@@std@@@2@XZ ENDP ; std::vector<AniEventInfo,std::allocator<AniEventInfo> >::end
_TEXT	ENDS
PUBLIC	?_Make_iter@?$vector@UAniEventInfo@@V?$allocator@UAniEventInfo@@@std@@@std@@QBE?AV?$_Vector_iterator@V?$_Vector_val@UAniEventInfo@@V?$allocator@UAniEventInfo@@@std@@@std@@@2@V?$_Vector_const_iterator@V?$_Vector_val@UAniEventInfo@@V?$allocator@UAniEventInfo@@@std@@@std@@@2@@Z ; std::vector<AniEventInfo,std::allocator<AniEventInfo> >::_Make_iter
; Function compile flags: /Ogsp
;	COMDAT ?_Make_iter@?$vector@UAniEventInfo@@V?$allocator@UAniEventInfo@@@std@@@std@@QBE?AV?$_Vector_iterator@V?$_Vector_val@UAniEventInfo@@V?$allocator@UAniEventInfo@@@std@@@std@@@2@V?$_Vector_const_iterator@V?$_Vector_val@UAniEventInfo@@V?$allocator@UAniEventInfo@@@std@@@std@@@2@@Z
_TEXT	SEGMENT
___$ReturnUdt$ = 8					; size = 4
__Where$ = 12						; size = 4
?_Make_iter@?$vector@UAniEventInfo@@V?$allocator@UAniEventInfo@@@std@@@std@@QBE?AV?$_Vector_iterator@V?$_Vector_val@UAniEventInfo@@V?$allocator@UAniEventInfo@@@std@@@std@@@2@V?$_Vector_const_iterator@V?$_Vector_val@UAniEventInfo@@V?$allocator@UAniEventInfo@@@std@@@std@@@2@@Z PROC ; std::vector<AniEventInfo,std::allocator<AniEventInfo> >::_Make_iter, COMDAT
; _this$ = ecx

; 801  : 		{	// make iterator from const_iterator

  00000	55		 push	 ebp
  00001	8b ec		 mov	 ebp, esp

; 802  : 		return (iterator(_Where._Ptr, this));

  00003	8b 45 08	 mov	 eax, DWORD PTR ___$ReturnUdt$[ebp]
  00006	8b 4d 0c	 mov	 ecx, DWORD PTR __Where$[ebp]
  00009	89 08		 mov	 DWORD PTR [eax], ecx

; 803  : 		}

  0000b	5d		 pop	 ebp
  0000c	c2 08 00	 ret	 8
?_Make_iter@?$vector@UAniEventInfo@@V?$allocator@UAniEventInfo@@@std@@@std@@QBE?AV?$_Vector_iterator@V?$_Vector_val@UAniEventInfo@@V?$allocator@UAniEventInfo@@@std@@@std@@@2@V?$_Vector_const_iterator@V?$_Vector_val@UAniEventInfo@@V?$allocator@UAniEventInfo@@@std@@@std@@@2@@Z ENDP ; std::vector<AniEventInfo,std::allocator<AniEventInfo> >::_Make_iter
_TEXT	ENDS
PUBLIC	??$_Dest_val@V?$allocator@UAniEventInfo@@@std@@UAniEventInfo@@@std@@YAXAAV?$allocator@UAniEventInfo@@@0@PAUAniEventInfo@@@Z ; std::_Dest_val<std::allocator<AniEventInfo>,AniEventInfo>
; Function compile flags: /Ogsp
; File c:\program files (x86)\microsoft visual studio 10.0\vc\include\xmemory
;	COMDAT ??$_Dest_val@V?$allocator@UAniEventInfo@@@std@@UAniEventInfo@@@std@@YAXAAV?$allocator@UAniEventInfo@@@0@PAUAniEventInfo@@@Z
_TEXT	SEGMENT
__Alval$ = 8						; size = 4
__Pdest$ = 12						; size = 4
??$_Dest_val@V?$allocator@UAniEventInfo@@@std@@UAniEventInfo@@@std@@YAXAAV?$allocator@UAniEventInfo@@@0@PAUAniEventInfo@@@Z PROC ; std::_Dest_val<std::allocator<AniEventInfo>,AniEventInfo>, COMDAT

; 286  : 	{	// destroy using allocator

  00000	55		 push	 ebp
  00001	8b ec		 mov	 ebp, esp

; 287  : 	_Alval.destroy(_Pdest);

  00003	8b 4d 0c	 mov	 ecx, DWORD PTR __Pdest$[ebp]

; 288  : 	}

  00006	5d		 pop	 ebp

; 287  : 	_Alval.destroy(_Pdest);

  00007	e9 00 00 00 00	 jmp	 ??1AniEventInfo@@QAE@XZ
??$_Dest_val@V?$allocator@UAniEventInfo@@@std@@UAniEventInfo@@@std@@YAXAAV?$allocator@UAniEventInfo@@@0@PAUAniEventInfo@@@Z ENDP ; std::_Dest_val<std::allocator<AniEventInfo>,AniEventInfo>
_TEXT	ENDS
PUBLIC	??$_Uninit_move@PAUAniEventInfo@@PAU1@V?$allocator@UAniEventInfo@@@std@@U1@@std@@YAPAUAniEventInfo@@PAU1@00AAV?$allocator@UAniEventInfo@@@0@0U_Nonscalar_ptr_iterator_tag@0@@Z ; std::_Uninit_move<AniEventInfo *,AniEventInfo *,std::allocator<AniEventInfo>,AniEventInfo>
EXTRN	__EH_prolog3_catch:PROC
;	COMDAT xdata$x
xdata$x	SEGMENT
__catchsym$??$_Uninit_move@PAUAniEventInfo@@PAU1@V?$allocator@UAniEventInfo@@@std@@U1@@std@@YAPAUAniEventInfo@@PAU1@00AAV?$allocator@UAniEventInfo@@@0@0U_Nonscalar_ptr_iterator_tag@0@@Z$2 DD 040H
	DD	00H
	DD	00H
	DD	FLAT:__catch$??$_Uninit_move@PAUAniEventInfo@@PAU1@V?$allocator@UAniEventInfo@@@std@@U1@@std@@YAPAUAniEventInfo@@PAU1@00AAV?$allocator@UAniEventInfo@@@0@0U_Nonscalar_ptr_iterator_tag@0@@Z$0
__unwindtable$??$_Uninit_move@PAUAniEventInfo@@PAU1@V?$allocator@UAniEventInfo@@@std@@U1@@std@@YAPAUAniEventInfo@@PAU1@00AAV?$allocator@UAniEventInfo@@@0@0U_Nonscalar_ptr_iterator_tag@0@@Z DD 0ffffffffH
	DD	00H
	DD	0ffffffffH
	DD	00H
__tryblocktable$??$_Uninit_move@PAUAniEventInfo@@PAU1@V?$allocator@UAniEventInfo@@@std@@U1@@std@@YAPAUAniEventInfo@@PAU1@00AAV?$allocator@UAniEventInfo@@@0@0U_Nonscalar_ptr_iterator_tag@0@@Z DD 00H
	DD	00H
	DD	01H
	DD	01H
	DD	FLAT:__catchsym$??$_Uninit_move@PAUAniEventInfo@@PAU1@V?$allocator@UAniEventInfo@@@std@@U1@@std@@YAPAUAniEventInfo@@PAU1@00AAV?$allocator@UAniEventInfo@@@0@0U_Nonscalar_ptr_iterator_tag@0@@Z$2
__ehfuncinfo$??$_Uninit_move@PAUAniEventInfo@@PAU1@V?$allocator@UAniEventInfo@@@std@@U1@@std@@YAPAUAniEventInfo@@PAU1@00AAV?$allocator@UAniEventInfo@@@0@0U_Nonscalar_ptr_iterator_tag@0@@Z DD 019930522H
	DD	02H
	DD	FLAT:__unwindtable$??$_Uninit_move@PAUAniEventInfo@@PAU1@V?$allocator@UAniEventInfo@@@std@@U1@@std@@YAPAUAniEventInfo@@PAU1@00AAV?$allocator@UAniEventInfo@@@0@0U_Nonscalar_ptr_iterator_tag@0@@Z
	DD	01H
	DD	FLAT:__tryblocktable$??$_Uninit_move@PAUAniEventInfo@@PAU1@V?$allocator@UAniEventInfo@@@std@@U1@@std@@YAPAUAniEventInfo@@PAU1@00AAV?$allocator@UAniEventInfo@@@0@0U_Nonscalar_ptr_iterator_tag@0@@Z
	DD	2 DUP(00H)
	DD	00H
	DD	01H
; Function compile flags: /Ogsp
; File c:\program files (x86)\microsoft visual studio 10.0\vc\include\memory
xdata$x	ENDS
;	COMDAT ??$_Uninit_move@PAUAniEventInfo@@PAU1@V?$allocator@UAniEventInfo@@@std@@U1@@std@@YAPAUAniEventInfo@@PAU1@00AAV?$allocator@UAniEventInfo@@@0@0U_Nonscalar_ptr_iterator_tag@0@@Z
_TEXT	SEGMENT
__Next$ = -20						; size = 4
__$EHRec$ = -16						; size = 16
__First$ = 8						; size = 4
__Last$ = 12						; size = 4
__Dest$ = 16						; size = 4
__Al$ = 20						; size = 4
___formal$ = 24						; size = 4
___formal$ = 28						; size = 1
??$_Uninit_move@PAUAniEventInfo@@PAU1@V?$allocator@UAniEventInfo@@@std@@U1@@std@@YAPAUAniEventInfo@@PAU1@00AAV?$allocator@UAniEventInfo@@@0@0U_Nonscalar_ptr_iterator_tag@0@@Z PROC ; std::_Uninit_move<AniEventInfo *,AniEventInfo *,std::allocator<AniEventInfo>,AniEventInfo>, COMDAT

; 424  : 	{	// move [_First, _Last) to raw _Dest, using _Al, arbitrary type

  00000	6a 08		 push	 8
  00002	b8 00 00 00 00	 mov	 eax, __ehhandler$??$_Uninit_move@PAUAniEventInfo@@PAU1@V?$allocator@UAniEventInfo@@@std@@U1@@std@@YAPAUAniEventInfo@@PAU1@00AAV?$allocator@UAniEventInfo@@@0@0U_Nonscalar_ptr_iterator_tag@0@@Z
  00007	e8 00 00 00 00	 call	 __EH_prolog3_catch

; 425  : 	_DEBUG_RANGE(_First, _Last);
; 426  : 	_DEBUG_POINTER(_Dest);
; 427  : 	_FwdIt _Next = _Dest;

  0000c	8b 45 10	 mov	 eax, DWORD PTR __Dest$[ebp]

; 428  : 
; 429  : 	_TRY_BEGIN

  0000f	83 65 fc 00	 and	 DWORD PTR __$EHRec$[ebp+12], 0
  00013	8b 75 08	 mov	 esi, DWORD PTR __First$[ebp]
  00016	89 45 ec	 mov	 DWORD PTR __Next$[ebp], eax
$LL6@Uninit_mov:

; 430  : 	for (; _First != _Last; ++_Dest, ++_First)

  00019	3b 75 0c	 cmp	 esi, DWORD PTR __Last$[ebp]
  0001c	74 35		 je	 SHORT $LN4@Uninit_mov

; 431  : 		_Cons_val(_Al, _Dest, (_Valty &&)*_First);

  0001e	56		 push	 esi
  0001f	ff 75 10	 push	 DWORD PTR __Dest$[ebp]
  00022	ff 75 14	 push	 DWORD PTR __Al$[ebp]
  00025	e8 00 00 00 00	 call	 ??$_Cons_val@V?$allocator@UAniEventInfo@@@std@@UAniEventInfo@@U3@@std@@YAXAAV?$allocator@UAniEventInfo@@@0@PAUAniEventInfo@@$$QAU2@@Z ; std::_Cons_val<std::allocator<AniEventInfo>,AniEventInfo,AniEventInfo>
  0002a	83 45 10 20	 add	 DWORD PTR __Dest$[ebp], 32 ; 00000020H
  0002e	83 c4 0c	 add	 esp, 12			; 0000000cH
  00031	83 c6 20	 add	 esi, 32			; 00000020H
  00034	eb e3		 jmp	 SHORT $LL6@Uninit_mov
__catch$??$_Uninit_move@PAUAniEventInfo@@PAU1@V?$allocator@UAniEventInfo@@@std@@U1@@std@@YAPAUAniEventInfo@@PAU1@00AAV?$allocator@UAniEventInfo@@@0@0U_Nonscalar_ptr_iterator_tag@0@@Z$0:

; 432  : 	_CATCH_ALL
; 433  : 	for (; _Next != _Dest; ++_Next)

  00036	8b 75 ec	 mov	 esi, DWORD PTR __Next$[ebp]
  00039	eb 0a		 jmp	 SHORT $LN29@Uninit_mov
$LL3@Uninit_mov:

; 434  : 		_Dest_val(_Al, _Next);

  0003b	8b ce		 mov	 ecx, esi
  0003d	e8 00 00 00 00	 call	 ??1AniEventInfo@@QAE@XZ
  00042	83 c6 20	 add	 esi, 32			; 00000020H
$LN29@Uninit_mov:

; 432  : 	_CATCH_ALL
; 433  : 	for (; _Next != _Dest; ++_Next)

  00045	3b 75 10	 cmp	 esi, DWORD PTR __Dest$[ebp]
  00048	75 f1		 jne	 SHORT $LL3@Uninit_mov

; 435  : 	_RERAISE;

  0004a	6a 00		 push	 0
  0004c	6a 00		 push	 0
  0004e	e8 00 00 00 00	 call	 __CxxThrowException@8
$LN30@Uninit_mov:
$LN4@Uninit_mov:

; 436  : 	_CATCH_END
; 437  : 	return (_Dest);

  00053	8b 45 10	 mov	 eax, DWORD PTR __Dest$[ebp]

; 438  : 	}

  00056	e8 00 00 00 00	 call	 __EH_epilog3
  0005b	c3		 ret	 0
$LN28@Uninit_mov:
_TEXT	ENDS
;	COMDAT text$x
text$x	SEGMENT
__ehhandler$??$_Uninit_move@PAUAniEventInfo@@PAU1@V?$allocator@UAniEventInfo@@@std@@U1@@std@@YAPAUAniEventInfo@@PAU1@00AAV?$allocator@UAniEventInfo@@@0@0U_Nonscalar_ptr_iterator_tag@0@@Z:
  00000	8b 54 24 08	 mov	 edx, DWORD PTR [esp+8]
  00004	8d 42 0c	 lea	 eax, DWORD PTR [edx+12]
  00007	8b 4a e8	 mov	 ecx, DWORD PTR [edx-24]
  0000a	33 c8		 xor	 ecx, eax
  0000c	e8 00 00 00 00	 call	 @__security_check_cookie@4
  00011	b8 00 00 00 00	 mov	 eax, OFFSET __ehfuncinfo$??$_Uninit_move@PAUAniEventInfo@@PAU1@V?$allocator@UAniEventInfo@@@std@@U1@@std@@YAPAUAniEventInfo@@PAU1@00AAV?$allocator@UAniEventInfo@@@0@0U_Nonscalar_ptr_iterator_tag@0@@Z
  00016	e9 00 00 00 00	 jmp	 ___CxxFrameHandler3
text$x	ENDS
??$_Uninit_move@PAUAniEventInfo@@PAU1@V?$allocator@UAniEventInfo@@@std@@U1@@std@@YAPAUAniEventInfo@@PAU1@00AAV?$allocator@UAniEventInfo@@@0@0U_Nonscalar_ptr_iterator_tag@0@@Z ENDP ; std::_Uninit_move<AniEventInfo *,AniEventInfo *,std::allocator<AniEventInfo>,AniEventInfo>
PUBLIC	??$_Destroy_range@V?$allocator@UAniEventInfo@@@std@@@std@@YAXPAUAniEventInfo@@0AAV?$allocator@UAniEventInfo@@@0@U_Nonscalar_ptr_iterator_tag@0@@Z ; std::_Destroy_range<std::allocator<AniEventInfo> >
; Function compile flags: /Ogsp
; File c:\program files (x86)\microsoft visual studio 10.0\vc\include\xmemory
;	COMDAT ??$_Destroy_range@V?$allocator@UAniEventInfo@@@std@@@std@@YAXPAUAniEventInfo@@0AAV?$allocator@UAniEventInfo@@@0@U_Nonscalar_ptr_iterator_tag@0@@Z
_TEXT	SEGMENT
__First$ = 8						; size = 4
__Last$ = 12						; size = 4
__Al$ = 16						; size = 4
___formal$ = 20						; size = 1
??$_Destroy_range@V?$allocator@UAniEventInfo@@@std@@@std@@YAXPAUAniEventInfo@@0AAV?$allocator@UAniEventInfo@@@0@U_Nonscalar_ptr_iterator_tag@0@@Z PROC ; std::_Destroy_range<std::allocator<AniEventInfo> >, COMDAT

; 95   : 	{	// destroy [_First, _Last), arbitrary type

  00000	55		 push	 ebp
  00001	8b ec		 mov	 ebp, esp
  00003	56		 push	 esi

; 96   : 	for (; _First != _Last; ++_First)

  00004	8b 75 08	 mov	 esi, DWORD PTR __First$[ebp]
  00007	eb 0a		 jmp	 SHORT $LN17@Destroy_ra
$LL3@Destroy_ra:

; 97   : 		_Dest_val(_Al, _First);

  00009	8b ce		 mov	 ecx, esi
  0000b	e8 00 00 00 00	 call	 ??1AniEventInfo@@QAE@XZ
  00010	83 c6 20	 add	 esi, 32			; 00000020H
$LN17@Destroy_ra:

; 96   : 	for (; _First != _Last; ++_First)

  00013	3b 75 0c	 cmp	 esi, DWORD PTR __Last$[ebp]
  00016	75 f1		 jne	 SHORT $LL3@Destroy_ra
  00018	5e		 pop	 esi

; 98   : 	}

  00019	5d		 pop	 ebp
  0001a	c3		 ret	 0
??$_Destroy_range@V?$allocator@UAniEventInfo@@@std@@@std@@YAXPAUAniEventInfo@@0AAV?$allocator@UAniEventInfo@@@0@U_Nonscalar_ptr_iterator_tag@0@@Z ENDP ; std::_Destroy_range<std::allocator<AniEventInfo> >
_TEXT	ENDS
PUBLIC	??$_Uninitialized_move@PAUAniEventInfo@@PAU1@V?$allocator@UAniEventInfo@@@std@@@std@@YAPAUAniEventInfo@@PAU1@00AAV?$allocator@UAniEventInfo@@@0@@Z ; std::_Uninitialized_move<AniEventInfo *,AniEventInfo *,std::allocator<AniEventInfo> >
; Function compile flags: /Ogsp
; File c:\program files (x86)\microsoft visual studio 10.0\vc\include\memory
;	COMDAT ??$_Uninitialized_move@PAUAniEventInfo@@PAU1@V?$allocator@UAniEventInfo@@@std@@@std@@YAPAUAniEventInfo@@PAU1@00AAV?$allocator@UAniEventInfo@@@0@@Z
_TEXT	SEGMENT
__Cat$506904 = -4					; size = 1
__First$ = 8						; size = 4
__Last$ = 12						; size = 4
__Dest$ = 16						; size = 4
__Al$ = 20						; size = 4
??$_Uninitialized_move@PAUAniEventInfo@@PAU1@V?$allocator@UAniEventInfo@@@std@@@std@@YAPAUAniEventInfo@@PAU1@00AAV?$allocator@UAniEventInfo@@@0@@Z PROC ; std::_Uninitialized_move<AniEventInfo *,AniEventInfo *,std::allocator<AniEventInfo> >, COMDAT

; 469  : 	{	// move [_First, _Last) to raw _Dest, using _Al

  00000	55		 push	 ebp
  00001	8b ec		 mov	 ebp, esp
  00003	51		 push	 ecx

; 470  : 	return (_Uninit_move(_First, _Last, _Dest, _Al,
; 471  : 		_Val_type(_First), _Ptr_cat(_First, _Dest)));

  00004	ff 75 fc	 push	 DWORD PTR __Cat$506904[ebp]
  00007	6a 00		 push	 0
  00009	ff 75 14	 push	 DWORD PTR __Al$[ebp]
  0000c	ff 75 10	 push	 DWORD PTR __Dest$[ebp]
  0000f	ff 75 0c	 push	 DWORD PTR __Last$[ebp]
  00012	ff 75 08	 push	 DWORD PTR __First$[ebp]
  00015	e8 00 00 00 00	 call	 ??$_Uninit_move@PAUAniEventInfo@@PAU1@V?$allocator@UAniEventInfo@@@std@@U1@@std@@YAPAUAniEventInfo@@PAU1@00AAV?$allocator@UAniEventInfo@@@0@0U_Nonscalar_ptr_iterator_tag@0@@Z ; std::_Uninit_move<AniEventInfo *,AniEventInfo *,std::allocator<AniEventInfo>,AniEventInfo>
  0001a	83 c4 18	 add	 esp, 24			; 00000018H

; 472  : 	}

  0001d	c9		 leave
  0001e	c3		 ret	 0
??$_Uninitialized_move@PAUAniEventInfo@@PAU1@V?$allocator@UAniEventInfo@@@std@@@std@@YAPAUAniEventInfo@@PAU1@00AAV?$allocator@UAniEventInfo@@@0@@Z ENDP ; std::_Uninitialized_move<AniEventInfo *,AniEventInfo *,std::allocator<AniEventInfo> >
_TEXT	ENDS
PUBLIC	??$_Destroy_range@V?$allocator@UAniEventInfo@@@std@@@std@@YAXPAUAniEventInfo@@0AAV?$allocator@UAniEventInfo@@@0@@Z ; std::_Destroy_range<std::allocator<AniEventInfo> >
; Function compile flags: /Ogsp
; File c:\program files (x86)\microsoft visual studio 10.0\vc\include\xmemory
;	COMDAT ??$_Destroy_range@V?$allocator@UAniEventInfo@@@std@@@std@@YAXPAUAniEventInfo@@0AAV?$allocator@UAniEventInfo@@@0@@Z
_TEXT	SEGMENT
__First$ = 8						; size = 4
__Last$ = 12						; size = 4
__Al$ = 16						; size = 4
??$_Destroy_range@V?$allocator@UAniEventInfo@@@std@@@std@@YAXPAUAniEventInfo@@0AAV?$allocator@UAniEventInfo@@@0@@Z PROC ; std::_Destroy_range<std::allocator<AniEventInfo> >, COMDAT

; 87   : 	{	// destroy [_First, _Last)

  00000	55		 push	 ebp
  00001	8b ec		 mov	 ebp, esp
  00003	56		 push	 esi

; 88   : 	_Destroy_range(_First, _Last, _Al, _Ptr_cat(_First, _Last));

  00004	8b 75 08	 mov	 esi, DWORD PTR __First$[ebp]
  00007	eb 0a		 jmp	 SHORT $LN21@Destroy_ra@2
$LL7@Destroy_ra@2:
  00009	8b ce		 mov	 ecx, esi
  0000b	e8 00 00 00 00	 call	 ??1AniEventInfo@@QAE@XZ
  00010	83 c6 20	 add	 esi, 32			; 00000020H
$LN21@Destroy_ra@2:
  00013	3b 75 0c	 cmp	 esi, DWORD PTR __Last$[ebp]
  00016	75 f1		 jne	 SHORT $LL7@Destroy_ra@2
  00018	5e		 pop	 esi

; 89   : 	}

  00019	5d		 pop	 ebp
  0001a	c3		 ret	 0
??$_Destroy_range@V?$allocator@UAniEventInfo@@@std@@@std@@YAXPAUAniEventInfo@@0AAV?$allocator@UAniEventInfo@@@0@@Z ENDP ; std::_Destroy_range<std::allocator<AniEventInfo> >
_TEXT	ENDS
PUBLIC	??$_Umove@PAUAniEventInfo@@@?$vector@UAniEventInfo@@V?$allocator@UAniEventInfo@@@std@@@std@@IAEPAUAniEventInfo@@PAU2@00@Z ; std::vector<AniEventInfo,std::allocator<AniEventInfo> >::_Umove<AniEventInfo *>
; Function compile flags: /Ogsp
; File c:\program files (x86)\microsoft visual studio 10.0\vc\include\vector
;	COMDAT ??$_Umove@PAUAniEventInfo@@@?$vector@UAniEventInfo@@V?$allocator@UAniEventInfo@@@std@@@std@@IAEPAUAniEventInfo@@PAU2@00@Z
_TEXT	SEGMENT
__First$ = 8						; size = 4
__Last$ = 12						; size = 4
__Ptr$ = 16						; size = 4
??$_Umove@PAUAniEventInfo@@@?$vector@UAniEventInfo@@V?$allocator@UAniEventInfo@@@std@@@std@@IAEPAUAniEventInfo@@PAU2@00@Z PROC ; std::vector<AniEventInfo,std::allocator<AniEventInfo> >::_Umove<AniEventInfo *>, COMDAT
; _this$ = ecx

; 1322 : 		pointer _Umove(_Iter _First, _Iter _Last, pointer _Ptr)

  00000	55		 push	 ebp
  00001	8b ec		 mov	 ebp, esp

; 1323 : 		{	// move initializing [_First, _Last), using allocator
; 1324 : 		return (_Uninitialized_move(_First, _Last,
; 1325 : 			_Ptr, this->_Alval));

  00003	83 c1 0c	 add	 ecx, 12			; 0000000cH
  00006	51		 push	 ecx
  00007	ff 75 10	 push	 DWORD PTR __Ptr$[ebp]
  0000a	ff 75 0c	 push	 DWORD PTR __Last$[ebp]
  0000d	ff 75 08	 push	 DWORD PTR __First$[ebp]
  00010	e8 00 00 00 00	 call	 ??$_Uninitialized_move@PAUAniEventInfo@@PAU1@V?$allocator@UAniEventInfo@@@std@@@std@@YAPAUAniEventInfo@@PAU1@00AAV?$allocator@UAniEventInfo@@@0@@Z ; std::_Uninitialized_move<AniEventInfo *,AniEventInfo *,std::allocator<AniEventInfo> >
  00015	83 c4 10	 add	 esp, 16			; 00000010H

; 1326 : 		}

  00018	5d		 pop	 ebp
  00019	c2 0c 00	 ret	 12			; 0000000cH
??$_Umove@PAUAniEventInfo@@@?$vector@UAniEventInfo@@V?$allocator@UAniEventInfo@@@std@@@std@@IAEPAUAniEventInfo@@PAU2@00@Z ENDP ; std::vector<AniEventInfo,std::allocator<AniEventInfo> >::_Umove<AniEventInfo *>
_TEXT	ENDS
PUBLIC	?_Destroy@?$vector@UAniEventInfo@@V?$allocator@UAniEventInfo@@@std@@@std@@IAEXPAUAniEventInfo@@0@Z ; std::vector<AniEventInfo,std::allocator<AniEventInfo> >::_Destroy
; Function compile flags: /Ogsp
;	COMDAT ?_Destroy@?$vector@UAniEventInfo@@V?$allocator@UAniEventInfo@@@std@@@std@@IAEXPAUAniEventInfo@@0@Z
_TEXT	SEGMENT
__First$ = 8						; size = 4
__Last$ = 12						; size = 4
?_Destroy@?$vector@UAniEventInfo@@V?$allocator@UAniEventInfo@@@std@@@std@@IAEXPAUAniEventInfo@@0@Z PROC ; std::vector<AniEventInfo,std::allocator<AniEventInfo> >::_Destroy, COMDAT
; _this$ = ecx

; 1269 : 		{	// destroy [_First, _Last) using allocator

  00000	55		 push	 ebp
  00001	8b ec		 mov	 ebp, esp
  00003	56		 push	 esi

; 1270 : 		_Destroy_range(_First, _Last, this->_Alval);

  00004	8b 75 08	 mov	 esi, DWORD PTR __First$[ebp]
  00007	eb 0a		 jmp	 SHORT $LN23@Destroy
$LL9@Destroy:
  00009	8b ce		 mov	 ecx, esi
  0000b	e8 00 00 00 00	 call	 ??1AniEventInfo@@QAE@XZ
  00010	83 c6 20	 add	 esi, 32			; 00000020H
$LN23@Destroy:
  00013	3b 75 0c	 cmp	 esi, DWORD PTR __Last$[ebp]
  00016	75 f1		 jne	 SHORT $LL9@Destroy
  00018	5e		 pop	 esi

; 1271 : 		}

  00019	5d		 pop	 ebp
  0001a	c2 08 00	 ret	 8
?_Destroy@?$vector@UAniEventInfo@@V?$allocator@UAniEventInfo@@@std@@@std@@IAEXPAUAniEventInfo@@0@Z ENDP ; std::vector<AniEventInfo,std::allocator<AniEventInfo> >::_Destroy
_TEXT	ENDS
PUBLIC	?_Tidy@?$vector@UAniEventInfo@@V?$allocator@UAniEventInfo@@@std@@@std@@IAEXXZ ; std::vector<AniEventInfo,std::allocator<AniEventInfo> >::_Tidy
EXTRN	__imp_?_Orphan_all@_Container_base0@std@@QAEXXZ:PROC
; Function compile flags: /Ogsp
;	COMDAT ?_Tidy@?$vector@UAniEventInfo@@V?$allocator@UAniEventInfo@@@std@@@std@@IAEXXZ
_TEXT	SEGMENT
?_Tidy@?$vector@UAniEventInfo@@V?$allocator@UAniEventInfo@@@std@@@std@@IAEXXZ PROC ; std::vector<AniEventInfo,std::allocator<AniEventInfo> >::_Tidy, COMDAT
; _this$ = ecx

; 1301 : 		{	// free all storage

  00000	56		 push	 esi
  00001	8b f1		 mov	 esi, ecx

; 1302 : 		if (this->_Myfirst != 0)

  00003	83 3e 00	 cmp	 DWORD PTR [esi], 0
  00006	74 27		 je	 SHORT $LN24@Tidy

; 1303 : 			{	// something to free, destroy and deallocate it
; 1304 : 			this->_Orphan_all();

  00008	53		 push	 ebx
  00009	57		 push	 edi
  0000a	ff 15 00 00 00
	00		 call	 DWORD PTR __imp_?_Orphan_all@_Container_base0@std@@QAEXXZ

; 1305 : 			_Destroy(this->_Myfirst, this->_Mylast);

  00010	8b 5e 04	 mov	 ebx, DWORD PTR [esi+4]
  00013	8b 3e		 mov	 edi, DWORD PTR [esi]
  00015	eb 0a		 jmp	 SHORT $LN28@Tidy
$LL12@Tidy:
  00017	8b cf		 mov	 ecx, edi
  00019	e8 00 00 00 00	 call	 ??1AniEventInfo@@QAE@XZ
  0001e	83 c7 20	 add	 edi, 32			; 00000020H
$LN28@Tidy:
  00021	3b fb		 cmp	 edi, ebx
  00023	75 f2		 jne	 SHORT $LL12@Tidy

; 1306 : 			this->_Alval.deallocate(this->_Myfirst,
; 1307 : 				this->_Myend - this->_Myfirst);

  00025	ff 36		 push	 DWORD PTR [esi]
  00027	e8 00 00 00 00	 call	 ??3@YAXPAX@Z		; operator delete
  0002c	59		 pop	 ecx
  0002d	5f		 pop	 edi
  0002e	5b		 pop	 ebx
$LN24@Tidy:

; 1308 : 			}
; 1309 : 		this->_Myfirst = 0;

  0002f	33 c0		 xor	 eax, eax
  00031	89 06		 mov	 DWORD PTR [esi], eax

; 1310 : 		this->_Mylast = 0;

  00033	89 46 04	 mov	 DWORD PTR [esi+4], eax

; 1311 : 		this->_Myend = 0;

  00036	89 46 08	 mov	 DWORD PTR [esi+8], eax
  00039	5e		 pop	 esi

; 1312 : 		}

  0003a	c3		 ret	 0
?_Tidy@?$vector@UAniEventInfo@@V?$allocator@UAniEventInfo@@@std@@@std@@IAEXXZ ENDP ; std::vector<AniEventInfo,std::allocator<AniEventInfo> >::_Tidy
_TEXT	ENDS
PUBLIC	?reserve@?$vector@UAniEventInfo@@V?$allocator@UAniEventInfo@@@std@@@std@@QAEXI@Z ; std::vector<AniEventInfo,std::allocator<AniEventInfo> >::reserve
;	COMDAT xdata$x
; File c:\program files (x86)\microsoft visual studio 10.0\vc\include\xmemory
xdata$x	SEGMENT
__catchsym$?reserve@?$vector@UAniEventInfo@@V?$allocator@UAniEventInfo@@@std@@@std@@QAEXI@Z$2 DD 040H
	DD	00H
	DD	00H
	DD	FLAT:__catch$?reserve@?$vector@UAniEventInfo@@V?$allocator@UAniEventInfo@@@std@@@std@@QAEXI@Z$0
__unwindtable$?reserve@?$vector@UAniEventInfo@@V?$allocator@UAniEventInfo@@@std@@@std@@QAEXI@Z DD 0ffffffffH
	DD	00H
	DD	0ffffffffH
	DD	00H
__tryblocktable$?reserve@?$vector@UAniEventInfo@@V?$allocator@UAniEventInfo@@@std@@@std@@QAEXI@Z DD 00H
	DD	00H
	DD	01H
	DD	01H
	DD	FLAT:__catchsym$?reserve@?$vector@UAniEventInfo@@V?$allocator@UAniEventInfo@@@std@@@std@@QAEXI@Z$2
__ehfuncinfo$?reserve@?$vector@UAniEventInfo@@V?$allocator@UAniEventInfo@@@std@@@std@@QAEXI@Z DD 019930522H
	DD	02H
	DD	FLAT:__unwindtable$?reserve@?$vector@UAniEventInfo@@V?$allocator@UAniEventInfo@@@std@@@std@@QAEXI@Z
	DD	01H
	DD	FLAT:__tryblocktable$?reserve@?$vector@UAniEventInfo@@V?$allocator@UAniEventInfo@@@std@@@std@@QAEXI@Z
	DD	2 DUP(00H)
	DD	00H
	DD	01H
; Function compile flags: /Ogsp
; File c:\program files (x86)\microsoft visual studio 10.0\vc\include\vector
xdata$x	ENDS
;	COMDAT ?reserve@?$vector@UAniEventInfo@@V?$allocator@UAniEventInfo@@@std@@@std@@QAEXI@Z
_TEXT	SEGMENT
tv300 = -24						; size = 4
__Ptr$505460 = -20					; size = 4
__$EHRec$ = -16						; size = 16
$T507238 = 8						; size = 4
__Count$ = 8						; size = 4
?reserve@?$vector@UAniEventInfo@@V?$allocator@UAniEventInfo@@@std@@@std@@QAEXI@Z PROC ; std::vector<AniEventInfo,std::allocator<AniEventInfo> >::reserve, COMDAT
; _this$ = ecx

; 746  : 		{	// determine new minimum length of allocated storage

  00000	6a 0c		 push	 12			; 0000000cH
  00002	b8 00 00 00 00	 mov	 eax, __ehhandler$?reserve@?$vector@UAniEventInfo@@V?$allocator@UAniEventInfo@@@std@@@std@@QAEXI@Z
  00007	e8 00 00 00 00	 call	 __EH_prolog3_catch
  0000c	8b f1		 mov	 esi, ecx

; 747  : 		if (max_size() < _Count)

  0000e	8b 5d 08	 mov	 ebx, DWORD PTR __Count$[ebp]
  00011	81 fb ff ff ff
	07		 cmp	 ebx, 134217727		; 07ffffffH
  00017	76 0b		 jbe	 SHORT $LN5@reserve

; 748  : 			_Xlen();	// result too long

  00019	68 00 00 00 00	 push	 OFFSET ??_C@_0BD@OLBABOEK@vector?$DMT?$DO?5too?5long?$AA@
  0001e	ff 15 00 00 00
	00		 call	 DWORD PTR __imp_?_Xlength_error@std@@YAXPBD@Z
$LN59@reserve:
$LN5@reserve:

; 749  : 		else if (capacity() < _Count)

  00024	8b 46 08	 mov	 eax, DWORD PTR [esi+8]
  00027	2b 06		 sub	 eax, DWORD PTR [esi]
  00029	c1 f8 05	 sar	 eax, 5
  0002c	3b c3		 cmp	 eax, ebx
  0002e	73 79		 jae	 SHORT $LN3@reserve

; 750  : 			{	// not enough room, reallocate
; 751  : 			pointer _Ptr = this->_Alval.allocate(_Count);

  00030	6a 00		 push	 0
  00032	53		 push	 ebx
  00033	e8 00 00 00 00	 call	 ??$_Allocate@UAniEventInfo@@@std@@YAPAUAniEventInfo@@IPAU1@@Z ; std::_Allocate<AniEventInfo>

; 752  : 
; 753  : 			_TRY_BEGIN
; 754  : 			_Umove(this->_Myfirst, this->_Mylast, _Ptr);

  00038	8b 0e		 mov	 ecx, DWORD PTR [esi]
  0003a	83 65 fc 00	 and	 DWORD PTR __$EHRec$[ebp+12], 0
  0003e	8d 56 0c	 lea	 edx, DWORD PTR [esi+12]
  00041	52		 push	 edx
  00042	89 45 ec	 mov	 DWORD PTR __Ptr$505460[ebp], eax
  00045	ff 75 ec	 push	 DWORD PTR __Ptr$505460[ebp]
  00048	8b 46 04	 mov	 eax, DWORD PTR [esi+4]
  0004b	50		 push	 eax
  0004c	51		 push	 ecx
  0004d	e8 00 00 00 00	 call	 ??$_Uninitialized_move@PAUAniEventInfo@@PAU1@V?$allocator@UAniEventInfo@@@std@@@std@@YAPAUAniEventInfo@@PAU1@00AAV?$allocator@UAniEventInfo@@@0@@Z ; std::_Uninitialized_move<AniEventInfo *,AniEventInfo *,std::allocator<AniEventInfo> >

; 758  : 			_CATCH_END
; 759  : 
; 760  : 			size_type _Size = size();

  00052	8b 4e 04	 mov	 ecx, DWORD PTR [esi+4]
  00055	8b 06		 mov	 eax, DWORD PTR [esi]
  00057	83 4d fc ff	 or	 DWORD PTR __$EHRec$[ebp+12], -1
  0005b	8b f9		 mov	 edi, ecx
  0005d	83 c4 18	 add	 esp, 24			; 00000018H
  00060	2b f8		 sub	 edi, eax
  00062	89 4d e8	 mov	 DWORD PTR tv300[ebp], ecx
  00065	85 c0		 test	 eax, eax
  00067	74 23		 je	 SHORT $LN51@reserve

; 761  : 			if (this->_Myfirst != 0)
; 762  : 				{	// destroy and deallocate old array
; 763  : 				_Destroy(this->_Myfirst, this->_Mylast);

  00069	89 45 08	 mov	 DWORD PTR $T507238[ebp], eax
  0006c	3b c1		 cmp	 eax, ecx
  0006e	74 14		 je	 SHORT $LN37@reserve
$LN39@reserve:
  00070	8b 4d 08	 mov	 ecx, DWORD PTR $T507238[ebp]
  00073	e8 00 00 00 00	 call	 ??1AniEventInfo@@QAE@XZ
  00078	83 45 08 20	 add	 DWORD PTR $T507238[ebp], 32 ; 00000020H
  0007c	8b 45 08	 mov	 eax, DWORD PTR $T507238[ebp]
  0007f	3b 45 e8	 cmp	 eax, DWORD PTR tv300[ebp]
  00082	75 ec		 jne	 SHORT $LN39@reserve
$LN37@reserve:

; 764  : 				this->_Alval.deallocate(this->_Myfirst,
; 765  : 					this->_Myend - this->_Myfirst);

  00084	ff 36		 push	 DWORD PTR [esi]
  00086	e8 00 00 00 00	 call	 ??3@YAXPAX@Z		; operator delete
  0008b	59		 pop	 ecx
$LN51@reserve:

; 766  : 				}
; 767  : 
; 768  : 			this->_Orphan_all();

  0008c	8b ce		 mov	 ecx, esi
  0008e	ff 15 00 00 00
	00		 call	 DWORD PTR __imp_?_Orphan_all@_Container_base0@std@@QAEXXZ

; 769  : 			this->_Myend = _Ptr + _Count;

  00094	8b 45 ec	 mov	 eax, DWORD PTR __Ptr$505460[ebp]
  00097	c1 e3 05	 shl	 ebx, 5
  0009a	03 d8		 add	 ebx, eax

; 770  : 			this->_Mylast = _Ptr + _Size;

  0009c	83 e7 e0	 and	 edi, -32		; ffffffe0H
  0009f	03 f8		 add	 edi, eax
  000a1	89 5e 08	 mov	 DWORD PTR [esi+8], ebx
  000a4	89 7e 04	 mov	 DWORD PTR [esi+4], edi

; 771  : 			this->_Myfirst = _Ptr;

  000a7	89 06		 mov	 DWORD PTR [esi], eax
$LN3@reserve:

; 772  : 			}
; 773  : 		}

  000a9	e8 00 00 00 00	 call	 __EH_epilog3
  000ae	c2 04 00	 ret	 4
__catch$?reserve@?$vector@UAniEventInfo@@V?$allocator@UAniEventInfo@@@std@@@std@@QAEXI@Z$0:

; 755  : 			_CATCH_ALL
; 756  : 			this->_Alval.deallocate(_Ptr, _Count);

  000b1	ff 75 ec	 push	 DWORD PTR __Ptr$505460[ebp]
  000b4	e8 00 00 00 00	 call	 ??3@YAXPAX@Z		; operator delete
  000b9	59		 pop	 ecx

; 757  : 			_RERAISE;

  000ba	6a 00		 push	 0
  000bc	6a 00		 push	 0
  000be	e8 00 00 00 00	 call	 __CxxThrowException@8
$LN60@reserve:
$LN58@reserve:
  000c3	cc		 int	 3
_TEXT	ENDS
;	COMDAT text$x
text$x	SEGMENT
__ehhandler$?reserve@?$vector@UAniEventInfo@@V?$allocator@UAniEventInfo@@@std@@@std@@QAEXI@Z:
  00000	8b 54 24 08	 mov	 edx, DWORD PTR [esp+8]
  00004	8d 42 0c	 lea	 eax, DWORD PTR [edx+12]
  00007	8b 4a e4	 mov	 ecx, DWORD PTR [edx-28]
  0000a	33 c8		 xor	 ecx, eax
  0000c	e8 00 00 00 00	 call	 @__security_check_cookie@4
  00011	b8 00 00 00 00	 mov	 eax, OFFSET __ehfuncinfo$?reserve@?$vector@UAniEventInfo@@V?$allocator@UAniEventInfo@@@std@@@std@@QAEXI@Z
  00016	e9 00 00 00 00	 jmp	 ___CxxFrameHandler3
text$x	ENDS
?reserve@?$vector@UAniEventInfo@@V?$allocator@UAniEventInfo@@@std@@@std@@QAEXI@Z ENDP ; std::vector<AniEventInfo,std::allocator<AniEventInfo> >::reserve
PUBLIC	??1?$vector@UAniEventInfo@@V?$allocator@UAniEventInfo@@@std@@@std@@QAE@XZ ; std::vector<AniEventInfo,std::allocator<AniEventInfo> >::~vector<AniEventInfo,std::allocator<AniEventInfo> >
; Function compile flags: /Ogsp
;	COMDAT ??1?$vector@UAniEventInfo@@V?$allocator@UAniEventInfo@@@std@@@std@@QAE@XZ
_TEXT	SEGMENT
??1?$vector@UAniEventInfo@@V?$allocator@UAniEventInfo@@@std@@@std@@QAE@XZ PROC ; std::vector<AniEventInfo,std::allocator<AniEventInfo> >::~vector<AniEventInfo,std::allocator<AniEventInfo> >, COMDAT
; _this$ = ecx

; 705  : 		_Tidy();

  00000	e9 00 00 00 00	 jmp	 ?_Tidy@?$vector@UAniEventInfo@@V?$allocator@UAniEventInfo@@@std@@@std@@IAEXXZ ; std::vector<AniEventInfo,std::allocator<AniEventInfo> >::_Tidy
??1?$vector@UAniEventInfo@@V?$allocator@UAniEventInfo@@@std@@@std@@QAE@XZ ENDP ; std::vector<AniEventInfo,std::allocator<AniEventInfo> >::~vector<AniEventInfo,std::allocator<AniEventInfo> >
_TEXT	ENDS
PUBLIC	?erase@?$vector@UAniEventInfo@@V?$allocator@UAniEventInfo@@@std@@@std@@QAE?AV?$_Vector_iterator@V?$_Vector_val@UAniEventInfo@@V?$allocator@UAniEventInfo@@@std@@@std@@@2@V?$_Vector_const_iterator@V?$_Vector_val@UAniEventInfo@@V?$allocator@UAniEventInfo@@@std@@@std@@@2@@Z ; std::vector<AniEventInfo,std::allocator<AniEventInfo> >::erase
; Function compile flags: /Ogsp
;	COMDAT ?erase@?$vector@UAniEventInfo@@V?$allocator@UAniEventInfo@@@std@@@std@@QAE?AV?$_Vector_iterator@V?$_Vector_val@UAniEventInfo@@V?$allocator@UAniEventInfo@@@std@@@std@@@2@V?$_Vector_const_iterator@V?$_Vector_val@UAniEventInfo@@V?$allocator@UAniEventInfo@@@std@@@std@@@2@@Z
_TEXT	SEGMENT
___$ReturnUdt$ = 8					; size = 4
__Cat$507321 = 12					; size = 1
__Where$ = 12						; size = 4
?erase@?$vector@UAniEventInfo@@V?$allocator@UAniEventInfo@@@std@@@std@@QAE?AV?$_Vector_iterator@V?$_Vector_val@UAniEventInfo@@V?$allocator@UAniEventInfo@@@std@@@std@@@2@V?$_Vector_const_iterator@V?$_Vector_val@UAniEventInfo@@V?$allocator@UAniEventInfo@@@std@@@std@@@2@@Z PROC ; std::vector<AniEventInfo,std::allocator<AniEventInfo> >::erase, COMDAT
; _this$ = ecx

; 1179 : 		{	// erase element at where

  00000	55		 push	 ebp
  00001	8b ec		 mov	 ebp, esp

; 1180 : 		_Move(_VIPTR(_Where) + 1, this->_Mylast,
; 1181 : 			_VIPTR(_Where));

  00003	8b 45 0c	 mov	 eax, DWORD PTR __Where$[ebp]
  00006	53		 push	 ebx
  00007	56		 push	 esi
  00008	57		 push	 edi
  00009	ff 75 0c	 push	 DWORD PTR __Cat$507321[ebp]
  0000c	8b f1		 mov	 esi, ecx
  0000e	50		 push	 eax
  0000f	ff 76 04	 push	 DWORD PTR [esi+4]
  00012	83 c0 20	 add	 eax, 32			; 00000020H
  00015	50		 push	 eax
  00016	e8 00 00 00 00	 call	 ??$_Move@PAUAniEventInfo@@PAU1@@std@@YAPAUAniEventInfo@@PAU1@00U_Nonscalar_ptr_iterator_tag@0@@Z ; std::_Move<AniEventInfo *,AniEventInfo *>

; 1182 : 		_Destroy(this->_Mylast - 1, this->_Mylast);

  0001b	8b 7e 04	 mov	 edi, DWORD PTR [esi+4]
  0001e	83 c4 10	 add	 esp, 16			; 00000010H
  00021	8d 5f e0	 lea	 ebx, DWORD PTR [edi-32]
  00024	eb 0a		 jmp	 SHORT $LN37@erase
$LL15@erase:
  00026	8b cb		 mov	 ecx, ebx
  00028	e8 00 00 00 00	 call	 ??1AniEventInfo@@QAE@XZ
  0002d	83 c3 20	 add	 ebx, 32			; 00000020H
$LN37@erase:
  00030	3b df		 cmp	 ebx, edi
  00032	75 f2		 jne	 SHORT $LL15@erase

; 1183 : 		--this->_Mylast;

  00034	83 46 04 e0	 add	 DWORD PTR [esi+4], -32	; ffffffe0H

; 1184 : 		return (_Make_iter(_Where));

  00038	8b 45 08	 mov	 eax, DWORD PTR ___$ReturnUdt$[ebp]
  0003b	8b 4d 0c	 mov	 ecx, DWORD PTR __Where$[ebp]
  0003e	5f		 pop	 edi
  0003f	5e		 pop	 esi
  00040	89 08		 mov	 DWORD PTR [eax], ecx
  00042	5b		 pop	 ebx

; 1185 : 		}

  00043	5d		 pop	 ebp
  00044	c2 08 00	 ret	 8
?erase@?$vector@UAniEventInfo@@V?$allocator@UAniEventInfo@@@std@@@std@@QAE?AV?$_Vector_iterator@V?$_Vector_val@UAniEventInfo@@V?$allocator@UAniEventInfo@@@std@@@std@@@2@V?$_Vector_const_iterator@V?$_Vector_val@UAniEventInfo@@V?$allocator@UAniEventInfo@@@std@@@std@@@2@@Z ENDP ; std::vector<AniEventInfo,std::allocator<AniEventInfo> >::erase
_TEXT	ENDS
PUBLIC	?erase@?$vector@UAniEventInfo@@V?$allocator@UAniEventInfo@@@std@@@std@@QAE?AV?$_Vector_iterator@V?$_Vector_val@UAniEventInfo@@V?$allocator@UAniEventInfo@@@std@@@std@@@2@V?$_Vector_const_iterator@V?$_Vector_val@UAniEventInfo@@V?$allocator@UAniEventInfo@@@std@@@std@@@2@0@Z ; std::vector<AniEventInfo,std::allocator<AniEventInfo> >::erase
; Function compile flags: /Ogsp
;	COMDAT ?erase@?$vector@UAniEventInfo@@V?$allocator@UAniEventInfo@@@std@@@std@@QAE?AV?$_Vector_iterator@V?$_Vector_val@UAniEventInfo@@V?$allocator@UAniEventInfo@@@std@@@std@@@2@V?$_Vector_const_iterator@V?$_Vector_val@UAniEventInfo@@V?$allocator@UAniEventInfo@@@std@@@std@@@2@0@Z
_TEXT	SEGMENT
$T507577 = -4						; size = 4
___$ReturnUdt$ = 8					; size = 4
__First_arg$ = 12					; size = 4
__Cat$507521 = 16					; size = 1
__Last_arg$ = 16					; size = 4
?erase@?$vector@UAniEventInfo@@V?$allocator@UAniEventInfo@@@std@@@std@@QAE?AV?$_Vector_iterator@V?$_Vector_val@UAniEventInfo@@V?$allocator@UAniEventInfo@@@std@@@std@@@2@V?$_Vector_const_iterator@V?$_Vector_val@UAniEventInfo@@V?$allocator@UAniEventInfo@@@std@@@std@@@2@0@Z PROC ; std::vector<AniEventInfo,std::allocator<AniEventInfo> >::erase, COMDAT
; _this$ = ecx

; 1190 : 		{	// erase [_First, _Last)

  00000	55		 push	 ebp
  00001	8b ec		 mov	 ebp, esp
  00003	51		 push	 ecx

; 1191 : 		iterator _First = _Make_iter(_First_arg);

  00004	8b 45 08	 mov	 eax, DWORD PTR ___$ReturnUdt$[ebp]
  00007	56		 push	 esi
  00008	8b f1		 mov	 esi, ecx
  0000a	8b 4d 0c	 mov	 ecx, DWORD PTR __First_arg$[ebp]
  0000d	89 08		 mov	 DWORD PTR [eax], ecx

; 1192 : 		iterator _Last = _Make_iter(_Last_arg);
; 1193 : 
; 1194 : 		if (_First != _Last)

  0000f	3b 4d 10	 cmp	 ecx, DWORD PTR __Last_arg$[ebp]
  00012	74 37		 je	 SHORT $LN1@erase@2

; 1195 : 			{	// worth doing, copy down over hole
; 1196 :  #if _ITERATOR_DEBUG_LEVEL == 2
; 1197 : 			if (_Last < _First || _VICONT(_First) != this
; 1198 : 				|| _VIPTR(_First) < this->_Myfirst
; 1199 : 				|| this->_Mylast < _VIPTR(_Last))
; 1200 : 				_DEBUG_ERROR("vector erase iterator outside range");
; 1201 : 			pointer _Ptr = _Move(_VIPTR(_Last), this->_Mylast,
; 1202 : 				_VIPTR(_First));
; 1203 : 			_Orphan_range(_VIPTR(_First), this->_Mylast);
; 1204 : 
; 1205 :  #else /* _ITERATOR_DEBUG_LEVEL == 2 */
; 1206 : 			pointer _Ptr = _Move(_VIPTR(_Last), this->_Mylast,
; 1207 : 				_VIPTR(_First));

  00014	8b 46 04	 mov	 eax, DWORD PTR [esi+4]
  00017	53		 push	 ebx
  00018	57		 push	 edi
  00019	ff 75 10	 push	 DWORD PTR __Cat$507521[ebp]
  0001c	51		 push	 ecx
  0001d	50		 push	 eax
  0001e	ff 75 10	 push	 DWORD PTR __Last_arg$[ebp]
  00021	e8 00 00 00 00	 call	 ??$_Move@PAUAniEventInfo@@PAU1@@std@@YAPAUAniEventInfo@@PAU1@00U_Nonscalar_ptr_iterator_tag@0@@Z ; std::_Move<AniEventInfo *,AniEventInfo *>

; 1208 :  #endif /* _ITERATOR_DEBUG_LEVEL == 2 */
; 1209 : 
; 1210 : 			_Destroy(_Ptr, this->_Mylast);

  00026	8b 7e 04	 mov	 edi, DWORD PTR [esi+4]
  00029	8b d8		 mov	 ebx, eax
  0002b	83 c4 10	 add	 esp, 16			; 00000010H
  0002e	89 5d fc	 mov	 DWORD PTR $T507577[ebp], ebx
  00031	3b df		 cmp	 ebx, edi
  00033	74 11		 je	 SHORT $LN36@erase@2
$LL52@erase@2:
  00035	8b 4d fc	 mov	 ecx, DWORD PTR $T507577[ebp]
  00038	e8 00 00 00 00	 call	 ??1AniEventInfo@@QAE@XZ
  0003d	83 45 fc 20	 add	 DWORD PTR $T507577[ebp], 32 ; 00000020H
  00041	39 7d fc	 cmp	 DWORD PTR $T507577[ebp], edi
  00044	75 ef		 jne	 SHORT $LL52@erase@2
$LN36@erase@2:

; 1211 : 			this->_Mylast = _Ptr;

  00046	5f		 pop	 edi
  00047	89 5e 04	 mov	 DWORD PTR [esi+4], ebx
  0004a	5b		 pop	 ebx
$LN1@erase@2:

; 1212 : 			}
; 1213 : 		return (_First);

  0004b	8b 45 08	 mov	 eax, DWORD PTR ___$ReturnUdt$[ebp]
  0004e	5e		 pop	 esi

; 1214 : 		}

  0004f	c9		 leave
  00050	c2 0c 00	 ret	 12			; 0000000cH
?erase@?$vector@UAniEventInfo@@V?$allocator@UAniEventInfo@@@std@@@std@@QAE?AV?$_Vector_iterator@V?$_Vector_val@UAniEventInfo@@V?$allocator@UAniEventInfo@@@std@@@std@@@2@V?$_Vector_const_iterator@V?$_Vector_val@UAniEventInfo@@V?$allocator@UAniEventInfo@@@std@@@std@@@2@0@Z ENDP ; std::vector<AniEventInfo,std::allocator<AniEventInfo> >::erase
_TEXT	ENDS
PUBLIC	?_Reserve@?$vector@UAniEventInfo@@V?$allocator@UAniEventInfo@@@std@@@std@@IAEXI@Z ; std::vector<AniEventInfo,std::allocator<AniEventInfo> >::_Reserve
; Function compile flags: /Ogsp
;	COMDAT ?_Reserve@?$vector@UAniEventInfo@@V?$allocator@UAniEventInfo@@@std@@@std@@IAEXI@Z
_TEXT	SEGMENT
__Count$ = 8						; size = 4
?_Reserve@?$vector@UAniEventInfo@@V?$allocator@UAniEventInfo@@@std@@@std@@IAEXI@Z PROC ; std::vector<AniEventInfo,std::allocator<AniEventInfo> >::_Reserve, COMDAT
; _this$ = ecx

; 1290 : 		{	// ensure room for _Count new elements, grow exponentially

  00000	55		 push	 ebp
  00001	8b ec		 mov	 ebp, esp
  00003	56		 push	 esi
  00004	8b f1		 mov	 esi, ecx

; 1291 : 		size_type _Size = size();

  00006	8b 0e		 mov	 ecx, DWORD PTR [esi]
  00008	8b 46 04	 mov	 eax, DWORD PTR [esi+4]
  0000b	2b c1		 sub	 eax, ecx

; 1292 : 		if (max_size() - _Count < _Size)

  0000d	ba ff ff ff 07	 mov	 edx, 134217727		; 07ffffffH
  00012	2b 55 08	 sub	 edx, DWORD PTR __Count$[ebp]
  00015	c1 f8 05	 sar	 eax, 5
  00018	3b d0		 cmp	 edx, eax
  0001a	73 0b		 jae	 SHORT $LN4@Reserve

; 1293 : 			_Xlen();

  0001c	68 00 00 00 00	 push	 OFFSET ??_C@_0BD@OLBABOEK@vector?$DMT?$DO?5too?5long?$AA@
  00021	ff 15 00 00 00
	00		 call	 DWORD PTR __imp_?_Xlength_error@std@@YAXPBD@Z
$LN21@Reserve:
$LN4@Reserve:

; 1294 : 		else if ((_Size += _Count) <= capacity())

  00027	8b 56 08	 mov	 edx, DWORD PTR [esi+8]
  0002a	03 45 08	 add	 eax, DWORD PTR __Count$[ebp]
  0002d	2b d1		 sub	 edx, ecx
  0002f	c1 fa 05	 sar	 edx, 5
  00032	3b c2		 cmp	 eax, edx
  00034	76 10		 jbe	 SHORT $LN1@Reserve

; 1295 : 			;
; 1296 : 		else
; 1297 : 			reserve(_Grow_to(_Size));

  00036	50		 push	 eax
  00037	8b ce		 mov	 ecx, esi
  00039	e8 00 00 00 00	 call	 ?_Grow_to@?$vector@UAniEventInfo@@V?$allocator@UAniEventInfo@@@std@@@std@@IBEII@Z ; std::vector<AniEventInfo,std::allocator<AniEventInfo> >::_Grow_to
  0003e	50		 push	 eax
  0003f	8b ce		 mov	 ecx, esi
  00041	e8 00 00 00 00	 call	 ?reserve@?$vector@UAniEventInfo@@V?$allocator@UAniEventInfo@@@std@@@std@@QAEXI@Z ; std::vector<AniEventInfo,std::allocator<AniEventInfo> >::reserve
$LN1@Reserve:
  00046	5e		 pop	 esi

; 1298 : 		}

  00047	5d		 pop	 ebp
  00048	c2 04 00	 ret	 4
$LN20@Reserve:
?_Reserve@?$vector@UAniEventInfo@@V?$allocator@UAniEventInfo@@@std@@@std@@IAEXI@Z ENDP ; std::vector<AniEventInfo,std::allocator<AniEventInfo> >::_Reserve
_TEXT	ENDS
PUBLIC	??_7ioDummyCharAniEventHandler@@6B@		; ioDummyCharAniEventHandler::`vftable'
PUBLIC	??0ioDummyCharAniEventHandler@@QAE@XZ		; ioDummyCharAniEventHandler::ioDummyCharAniEventHandler
PUBLIC	??_R4ioDummyCharAniEventHandler@@6B@		; ioDummyCharAniEventHandler::`RTTI Complete Object Locator'
PUBLIC	??_R0?AVioDummyCharAniEventHandler@@@8		; ioDummyCharAniEventHandler `RTTI Type Descriptor'
PUBLIC	??_R3ioDummyCharAniEventHandler@@8		; ioDummyCharAniEventHandler::`RTTI Class Hierarchy Descriptor'
PUBLIC	??_R2ioDummyCharAniEventHandler@@8		; ioDummyCharAniEventHandler::`RTTI Base Class Array'
PUBLIC	??_R1A@?0A@EA@ioDummyCharAniEventHandler@@8	; ioDummyCharAniEventHandler::`RTTI Base Class Descriptor at (0,-1,0,64)'
PUBLIC	??_R1A@?0A@EA@ioAniEventHandler@@8		; ioAniEventHandler::`RTTI Base Class Descriptor at (0,-1,0,64)'
PUBLIC	??_R0?AVioAniEventHandler@@@8			; ioAniEventHandler `RTTI Type Descriptor'
PUBLIC	??_R3ioAniEventHandler@@8			; ioAniEventHandler::`RTTI Class Hierarchy Descriptor'
PUBLIC	??_R2ioAniEventHandler@@8			; ioAniEventHandler::`RTTI Base Class Array'
PUBLIC	?EventHandling@ioDummyCharAniEventHandler@@UAE_NPBUAniEventTime@@PBVioAnimation@@@Z ; ioDummyCharAniEventHandler::EventHandling
PUBLIC	?OnAnimationClear@ioDummyCharAniEventHandler@@MAEXPBUAniEventTime@@PBVioAnimation@@@Z ; ioDummyCharAniEventHandler::OnAnimationClear
EXTRN	__imp_??0ioAniEventHandler@@QAE@XZ:PROC
EXTRN	?ChangeAniEventHandling@ioAniEventHandler@@UAE_NPBUAniEventTime@@PAVioAnimation@@@Z:PROC ; ioAniEventHandler::ChangeAniEventHandling
EXTRN	?HideMeshExceptionCheck@ioAniEventHandler@@UAEXABVioHashString@@@Z:PROC ; ioAniEventHandler::HideMeshExceptionCheck
EXTRN	?ClearAniEvent@ioAniEventHandler@@UAEXXZ:PROC	; ioAniEventHandler::ClearAniEvent
EXTRN	?ClearAniEffect@ioAniEventHandler@@UAEXXZ:PROC	; ioAniEventHandler::ClearAniEffect
EXTRN	?OnAutoSound@ioAniEventHandler@@MAEXPBUAniEventTime@@PBVioAnimation@@@Z:PROC ; ioAniEventHandler::OnAutoSound
EXTRN	?OnTrailStart@ioAniEventHandler@@MAEXPBUAniEventTime@@PBVioAnimation@@@Z:PROC ; ioAniEventHandler::OnTrailStart
EXTRN	?OnTrailEnd@ioAniEventHandler@@MAEXPBUAniEventTime@@PBVioAnimation@@@Z:PROC ; ioAniEventHandler::OnTrailEnd
EXTRN	?OnAnimationEnd@ioAniEventHandler@@MAEXPBUAniEventTime@@PBVioAnimation@@@Z:PROC ; ioAniEventHandler::OnAnimationEnd
EXTRN	?OnShowMesh@ioAniEventHandler@@MAEXPBUAniEventTime@@PBVioAnimation@@@Z:PROC ; ioAniEventHandler::OnShowMesh
EXTRN	?OnHideMesh@ioAniEventHandler@@MAEXPBUAniEventTime@@PBVioAnimation@@@Z:PROC ; ioAniEventHandler::OnHideMesh
EXTRN	??_EioDummyCharAniEventHandler@@UAEPAXI@Z:PROC	; ioDummyCharAniEventHandler::`vector deleting destructor'
;	COMDAT ??_R2ioAniEventHandler@@8
; File c:\program files (x86)\microsoft visual studio 10.0\vc\include\xmemory
rdata$r	SEGMENT
??_R2ioAniEventHandler@@8 DD FLAT:??_R1A@?0A@EA@ioAniEventHandler@@8 ; ioAniEventHandler::`RTTI Base Class Array'
rdata$r	ENDS
;	COMDAT ??_R3ioAniEventHandler@@8
rdata$r	SEGMENT
??_R3ioAniEventHandler@@8 DD 00H			; ioAniEventHandler::`RTTI Class Hierarchy Descriptor'
	DD	00H
	DD	01H
	DD	FLAT:??_R2ioAniEventHandler@@8
rdata$r	ENDS
;	COMDAT ??_R0?AVioAniEventHandler@@@8
_DATA	SEGMENT
??_R0?AVioAniEventHandler@@@8 DD FLAT:??_7type_info@@6B@ ; ioAniEventHandler `RTTI Type Descriptor'
	DD	00H
	DB	'.?AVioAniEventHandler@@', 00H
_DATA	ENDS
;	COMDAT ??_R1A@?0A@EA@ioAniEventHandler@@8
rdata$r	SEGMENT
??_R1A@?0A@EA@ioAniEventHandler@@8 DD FLAT:??_R0?AVioAniEventHandler@@@8 ; ioAniEventHandler::`RTTI Base Class Descriptor at (0,-1,0,64)'
	DD	00H
	DD	00H
	DD	0ffffffffH
	DD	00H
	DD	040H
	DD	FLAT:??_R3ioAniEventHandler@@8
rdata$r	ENDS
;	COMDAT ??_R1A@?0A@EA@ioDummyCharAniEventHandler@@8
rdata$r	SEGMENT
??_R1A@?0A@EA@ioDummyCharAniEventHandler@@8 DD FLAT:??_R0?AVioDummyCharAniEventHandler@@@8 ; ioDummyCharAniEventHandler::`RTTI Base Class Descriptor at (0,-1,0,64)'
	DD	01H
	DD	00H
	DD	0ffffffffH
	DD	00H
	DD	040H
	DD	FLAT:??_R3ioDummyCharAniEventHandler@@8
rdata$r	ENDS
;	COMDAT ??_R2ioDummyCharAniEventHandler@@8
rdata$r	SEGMENT
??_R2ioDummyCharAniEventHandler@@8 DD FLAT:??_R1A@?0A@EA@ioDummyCharAniEventHandler@@8 ; ioDummyCharAniEventHandler::`RTTI Base Class Array'
	DD	FLAT:??_R1A@?0A@EA@ioAniEventHandler@@8
rdata$r	ENDS
;	COMDAT ??_R3ioDummyCharAniEventHandler@@8
rdata$r	SEGMENT
??_R3ioDummyCharAniEventHandler@@8 DD 00H		; ioDummyCharAniEventHandler::`RTTI Class Hierarchy Descriptor'
	DD	00H
	DD	02H
	DD	FLAT:??_R2ioDummyCharAniEventHandler@@8
rdata$r	ENDS
;	COMDAT ??_R0?AVioDummyCharAniEventHandler@@@8
_DATA	SEGMENT
??_R0?AVioDummyCharAniEventHandler@@@8 DD FLAT:??_7type_info@@6B@ ; ioDummyCharAniEventHandler `RTTI Type Descriptor'
	DD	00H
	DB	'.?AVioDummyCharAniEventHandler@@', 00H
_DATA	ENDS
;	COMDAT ??_R4ioDummyCharAniEventHandler@@6B@
rdata$r	SEGMENT
??_R4ioDummyCharAniEventHandler@@6B@ DD 00H		; ioDummyCharAniEventHandler::`RTTI Complete Object Locator'
	DD	00H
	DD	00H
	DD	FLAT:??_R0?AVioDummyCharAniEventHandler@@@8
	DD	FLAT:??_R3ioDummyCharAniEventHandler@@8
rdata$r	ENDS
;	COMDAT ??_7ioDummyCharAniEventHandler@@6B@
CONST	SEGMENT
??_7ioDummyCharAniEventHandler@@6B@ DD FLAT:??_R4ioDummyCharAniEventHandler@@6B@ ; ioDummyCharAniEventHandler::`vftable'
	DD	FLAT:?EventHandling@ioDummyCharAniEventHandler@@UAE_NPBUAniEventTime@@PBVioAnimation@@@Z
	DD	FLAT:?ChangeAniEventHandling@ioAniEventHandler@@UAE_NPBUAniEventTime@@PAVioAnimation@@@Z
	DD	FLAT:?HideMeshExceptionCheck@ioAniEventHandler@@UAEXABVioHashString@@@Z
	DD	FLAT:?ClearAniEvent@ioAniEventHandler@@UAEXXZ
	DD	FLAT:?ClearAniEffect@ioAniEventHandler@@UAEXXZ
	DD	FLAT:?OnAutoSound@ioAniEventHandler@@MAEXPBUAniEventTime@@PBVioAnimation@@@Z
	DD	FLAT:?OnTrailStart@ioAniEventHandler@@MAEXPBUAniEventTime@@PBVioAnimation@@@Z
	DD	FLAT:?OnTrailEnd@ioAniEventHandler@@MAEXPBUAniEventTime@@PBVioAnimation@@@Z
	DD	FLAT:?OnAnimationEnd@ioAniEventHandler@@MAEXPBUAniEventTime@@PBVioAnimation@@@Z
	DD	FLAT:?OnAnimationClear@ioDummyCharAniEventHandler@@MAEXPBUAniEventTime@@PBVioAnimation@@@Z
	DD	FLAT:?OnShowMesh@ioAniEventHandler@@MAEXPBUAniEventTime@@PBVioAnimation@@@Z
	DD	FLAT:?OnHideMesh@ioAniEventHandler@@MAEXPBUAniEventTime@@PBVioAnimation@@@Z
	DD	FLAT:??_EioDummyCharAniEventHandler@@UAEPAXI@Z
; Function compile flags: /Ogsp
; File d:\lost saga for developer\youtube\tutorial\source\src\lsclient\iodummycharanieventhandler.cpp
CONST	ENDS
;	COMDAT ??0ioDummyCharAniEventHandler@@QAE@XZ
_TEXT	SEGMENT
??0ioDummyCharAniEventHandler@@QAE@XZ PROC		; ioDummyCharAniEventHandler::ioDummyCharAniEventHandler, COMDAT
; _this$ = ecx

; 7    : {

  00000	56		 push	 esi
  00001	8b f1		 mov	 esi, ecx
  00003	ff 15 00 00 00
	00		 call	 DWORD PTR __imp_??0ioAniEventHandler@@QAE@XZ
  00009	33 c0		 xor	 eax, eax
  0000b	c7 06 00 00 00
	00		 mov	 DWORD PTR [esi], OFFSET ??_7ioDummyCharAniEventHandler@@6B@
  00011	89 46 1c	 mov	 DWORD PTR [esi+28], eax
  00014	89 46 20	 mov	 DWORD PTR [esi+32], eax
  00017	89 46 24	 mov	 DWORD PTR [esi+36], eax
  0001a	89 46 2c	 mov	 DWORD PTR [esi+44], eax
  0001d	89 46 30	 mov	 DWORD PTR [esi+48], eax
  00020	89 46 34	 mov	 DWORD PTR [esi+52], eax

; 8    : 	m_pChar = NULL;

  00023	89 46 18	 mov	 DWORD PTR [esi+24], eax

; 9    : }

  00026	8b c6		 mov	 eax, esi
  00028	5e		 pop	 esi
  00029	c3		 ret	 0
??0ioDummyCharAniEventHandler@@QAE@XZ ENDP		; ioDummyCharAniEventHandler::ioDummyCharAniEventHandler
_TEXT	ENDS
EXTRN	__imp_?EndEffect@ioEntityGroup@@QAEXABVioHashString@@_N1@Z:PROC
EXTRN	__imp_?SetEntityVisible@ioEntityGroup@@QAEXABVioHashString@@_N@Z:PROC
EXTRN	__imp_??8ioHashString@@QBE_NABV0@@Z:PROC
EXTRN	__imp_?GetName@ioAnimation@@QBEABVioHashString@@XZ:PROC
;	COMDAT xdata$x
; File c:\program files (x86)\microsoft visual studio 10.0\vc\include\vector
xdata$x	SEGMENT
__unwindtable$?OnAnimationClear@ioDummyCharAniEventHandler@@MAEXPBUAniEventTime@@PBVioAnimation@@@Z DD 0ffffffffH
	DD	FLAT:__unwindfunclet$?OnAnimationClear@ioDummyCharAniEventHandler@@MAEXPBUAniEventTime@@PBVioAnimation@@@Z$0
	DD	0ffffffffH
	DD	FLAT:__unwindfunclet$?OnAnimationClear@ioDummyCharAniEventHandler@@MAEXPBUAniEventTime@@PBVioAnimation@@@Z$1
	DD	0ffffffffH
	DD	FLAT:__unwindfunclet$?OnAnimationClear@ioDummyCharAniEventHandler@@MAEXPBUAniEventTime@@PBVioAnimation@@@Z$2
__ehfuncinfo$?OnAnimationClear@ioDummyCharAniEventHandler@@MAEXPBUAniEventTime@@PBVioAnimation@@@Z DD 019930522H
	DD	03H
	DD	FLAT:__unwindtable$?OnAnimationClear@ioDummyCharAniEventHandler@@MAEXPBUAniEventTime@@PBVioAnimation@@@Z
	DD	2 DUP(00H)
	DD	2 DUP(00H)
	DD	00H
	DD	01H
; Function compile flags: /Ogsp
; File d:\lost saga for developer\youtube\tutorial\source\src\lsclient\iodummycharanieventhandler.cpp
xdata$x	ENDS
;	COMDAT ?OnAnimationClear@ioDummyCharAniEventHandler@@MAEXPBUAniEventTime@@PBVioAnimation@@@Z
_TEXT	SEGMENT
_kInfo$505306 = -84					; size = 32
_kInfo$505294 = -52					; size = 32
_kInfo$505282 = -52					; size = 32
$T507720 = -20						; size = 4
$T507717 = -16						; size = 4
$T507714 = -16						; size = 4
__$EHRec$ = -12						; size = 12
_pEvent$ = 8						; size = 4
_pNotifier$ = 12					; size = 4
?OnAnimationClear@ioDummyCharAniEventHandler@@MAEXPBUAniEventTime@@PBVioAnimation@@@Z PROC ; ioDummyCharAniEventHandler::OnAnimationClear, COMDAT
; _this$ = ecx

; 74   : {

  00000	6a 48		 push	 72			; 00000048H
  00002	b8 00 00 00 00	 mov	 eax, __ehhandler$?OnAnimationClear@ioDummyCharAniEventHandler@@MAEXPBUAniEventTime@@PBVioAnimation@@@Z
  00007	e8 00 00 00 00	 call	 __EH_prolog3
  0000c	8b f1		 mov	 esi, ecx

; 75   : 	// Hide  
; 76   : 	if( !m_HideMeshList.empty() )

  0000e	8b 46 08	 mov	 eax, DWORD PTR [esi+8]
  00011	3b 46 0c	 cmp	 eax, DWORD PTR [esi+12]
  00014	74 5c		 je	 SHORT $LN13@OnAnimatio

; 77   : 	{
; 78   : 		AniEventInfoList::iterator iter = m_HideMeshList.begin();

  00016	8b d8		 mov	 ebx, eax
  00018	eb 53		 jmp	 SHORT $LN125@OnAnimatio
$LL14@OnAnimatio:

; 80   : 		{
; 81   : 			AniEventInfo kInfo = *iter;

  0001a	53		 push	 ebx
  0001b	8d 4d cc	 lea	 ecx, DWORD PTR _kInfo$505282[ebp]
  0001e	e8 00 00 00 00	 call	 ??0AniEventInfo@@QAE@ABU0@@Z

; 82   : 
; 83   : 			if( kInfo.m_AniName == pNotifier->GetName() )

  00023	8b 4d 0c	 mov	 ecx, DWORD PTR _pNotifier$[ebp]
  00026	83 65 fc 00	 and	 DWORD PTR __$EHRec$[ebp+8], 0
  0002a	ff 15 00 00 00
	00		 call	 DWORD PTR __imp_?GetName@ioAnimation@@QBEABVioHashString@@XZ
  00030	50		 push	 eax
  00031	8d 4d cc	 lea	 ecx, DWORD PTR _kInfo$505282[ebp]
  00034	ff 15 00 00 00
	00		 call	 DWORD PTR __imp_??8ioHashString@@QBE_NABV0@@Z
  0003a	84 c0		 test	 al, al
  0003c	74 20		 je	 SHORT $LN12@OnAnimatio

; 84   : 			{
; 85   : 				m_pOwner->SetEntityVisible( kInfo.m_EventName, true );

  0003e	8b 4e 04	 mov	 ecx, DWORD PTR [esi+4]
  00041	6a 01		 push	 1
  00043	8d 45 dc	 lea	 eax, DWORD PTR _kInfo$505282[ebp+16]
  00046	50		 push	 eax
  00047	ff 15 00 00 00
	00		 call	 DWORD PTR __imp_?SetEntityVisible@ioEntityGroup@@QAEXABVioHashString@@_N@Z

; 86   : 				iter = m_HideMeshList.erase( iter );

  0004d	53		 push	 ebx
  0004e	8d 45 f0	 lea	 eax, DWORD PTR $T507714[ebp]
  00051	50		 push	 eax
  00052	8d 4e 08	 lea	 ecx, DWORD PTR [esi+8]
  00055	e8 00 00 00 00	 call	 ?erase@?$vector@UAniEventInfo@@V?$allocator@UAniEventInfo@@@std@@@std@@QAE?AV?$_Vector_iterator@V?$_Vector_val@UAniEventInfo@@V?$allocator@UAniEventInfo@@@std@@@std@@@2@V?$_Vector_const_iterator@V?$_Vector_val@UAniEventInfo@@V?$allocator@UAniEventInfo@@@std@@@std@@@2@@Z ; std::vector<AniEventInfo,std::allocator<AniEventInfo> >::erase
  0005a	8b 18		 mov	 ebx, DWORD PTR [eax]

; 87   : 			}
; 88   : 			else

  0005c	eb 03		 jmp	 SHORT $LN51@OnAnimatio
$LN12@OnAnimatio:

; 89   : 			{
; 90   : 				++iter;

  0005e	83 c3 20	 add	 ebx, 32			; 00000020H
$LN51@OnAnimatio:

; 91   : 			}
; 92   : 		}

  00061	83 4d fc ff	 or	 DWORD PTR __$EHRec$[ebp+8], -1
  00065	8d 4d cc	 lea	 ecx, DWORD PTR _kInfo$505282[ebp]
  00068	e8 00 00 00 00	 call	 ??1AniEventInfo@@QAE@XZ
$LN125@OnAnimatio:

; 79   : 		while( iter != m_HideMeshList.end() )

  0006d	3b 5e 0c	 cmp	 ebx, DWORD PTR [esi+12]
  00070	75 a8		 jne	 SHORT $LL14@OnAnimatio
$LN13@OnAnimatio:

; 93   : 	}
; 94   : 
; 95   : 	// Hide    
; 96   : 	if( !m_HideMeshLinkEffectList.empty() )

  00072	8b 46 2c	 mov	 eax, DWORD PTR [esi+44]
  00075	3b 46 30	 cmp	 eax, DWORD PTR [esi+48]
  00078	74 5e		 je	 SHORT $LN8@OnAnimatio

; 97   : 	{
; 98   : 		AniEventInfoList::iterator iter = m_HideMeshLinkEffectList.begin();

  0007a	8b f8		 mov	 edi, eax
  0007c	eb 55		 jmp	 SHORT $LN126@OnAnimatio
$LL9@OnAnimatio:

; 100  : 		{
; 101  : 			AniEventInfo kInfo = *iter;

  0007e	57		 push	 edi
  0007f	8d 4d cc	 lea	 ecx, DWORD PTR _kInfo$505294[ebp]
  00082	e8 00 00 00 00	 call	 ??0AniEventInfo@@QAE@ABU0@@Z

; 102  : 
; 103  : 			if( kInfo.m_AniName == pNotifier->GetName() )

  00087	8b 4d 0c	 mov	 ecx, DWORD PTR _pNotifier$[ebp]
  0008a	c7 45 fc 01 00
	00 00		 mov	 DWORD PTR __$EHRec$[ebp+8], 1
  00091	ff 15 00 00 00
	00		 call	 DWORD PTR __imp_?GetName@ioAnimation@@QBEABVioHashString@@XZ
  00097	50		 push	 eax
  00098	8d 4d cc	 lea	 ecx, DWORD PTR _kInfo$505294[ebp]
  0009b	ff 15 00 00 00
	00		 call	 DWORD PTR __imp_??8ioHashString@@QBE_NABV0@@Z
  000a1	84 c0		 test	 al, al
  000a3	74 1f		 je	 SHORT $LN7@OnAnimatio

; 104  : 			{
; 105  : 				m_pChar->AttachEffect( kInfo.m_EventName, NULL );

  000a5	8b 4e 18	 mov	 ecx, DWORD PTR [esi+24]
  000a8	6a 00		 push	 0
  000aa	8d 45 dc	 lea	 eax, DWORD PTR _kInfo$505294[ebp+16]
  000ad	50		 push	 eax
  000ae	e8 00 00 00 00	 call	 ?AttachEffect@ioDummyChar@@QAEPAVioEffect@@ABVioHashString@@PAVioEntityEvent@@@Z ; ioDummyChar::AttachEffect

; 106  : 				iter = m_HideMeshLinkEffectList.erase( iter );

  000b3	57		 push	 edi
  000b4	8d 45 f0	 lea	 eax, DWORD PTR $T507717[ebp]
  000b7	50		 push	 eax
  000b8	8d 4e 2c	 lea	 ecx, DWORD PTR [esi+44]
  000bb	e8 00 00 00 00	 call	 ?erase@?$vector@UAniEventInfo@@V?$allocator@UAniEventInfo@@@std@@@std@@QAE?AV?$_Vector_iterator@V?$_Vector_val@UAniEventInfo@@V?$allocator@UAniEventInfo@@@std@@@std@@@2@V?$_Vector_const_iterator@V?$_Vector_val@UAniEventInfo@@V?$allocator@UAniEventInfo@@@std@@@std@@@2@@Z ; std::vector<AniEventInfo,std::allocator<AniEventInfo> >::erase
  000c0	8b 38		 mov	 edi, DWORD PTR [eax]

; 107  : 			}
; 108  : 			else

  000c2	eb 03		 jmp	 SHORT $LN83@OnAnimatio
$LN7@OnAnimatio:

; 109  : 			{
; 110  : 				++iter;

  000c4	83 c7 20	 add	 edi, 32			; 00000020H
$LN83@OnAnimatio:

; 111  : 			}
; 112  : 		}

  000c7	83 4d fc ff	 or	 DWORD PTR __$EHRec$[ebp+8], -1
  000cb	8d 4d cc	 lea	 ecx, DWORD PTR _kInfo$505294[ebp]
  000ce	e8 00 00 00 00	 call	 ??1AniEventInfo@@QAE@XZ
$LN126@OnAnimatio:

; 99   : 		while( iter != m_HideMeshLinkEffectList.end() )

  000d3	3b 7e 30	 cmp	 edi, DWORD PTR [esi+48]
  000d6	75 a6		 jne	 SHORT $LL9@OnAnimatio
$LN8@OnAnimatio:

; 113  : 	}
; 114  : 
; 115  : 	// ShopEffect 
; 116  : 	if( !m_ShopEffectList.empty() )

  000d8	8b 46 1c	 mov	 eax, DWORD PTR [esi+28]
  000db	3b 46 20	 cmp	 eax, DWORD PTR [esi+32]
  000de	74 61		 je	 SHORT $LN3@OnAnimatio

; 117  : 	{
; 118  : 		AniEventInfoList::iterator iter = m_ShopEffectList.begin();

  000e0	8b f8		 mov	 edi, eax
  000e2	eb 58		 jmp	 SHORT $LN127@OnAnimatio
$LL4@OnAnimatio:

; 120  : 		{
; 121  : 			AniEventInfo kInfo = *iter;

  000e4	57		 push	 edi
  000e5	8d 4d ac	 lea	 ecx, DWORD PTR _kInfo$505306[ebp]
  000e8	e8 00 00 00 00	 call	 ??0AniEventInfo@@QAE@ABU0@@Z

; 122  : 
; 123  : 			if( kInfo.m_AniName == pNotifier->GetName() )

  000ed	8b 4d 0c	 mov	 ecx, DWORD PTR _pNotifier$[ebp]
  000f0	c7 45 fc 02 00
	00 00		 mov	 DWORD PTR __$EHRec$[ebp+8], 2
  000f7	ff 15 00 00 00
	00		 call	 DWORD PTR __imp_?GetName@ioAnimation@@QBEABVioHashString@@XZ
  000fd	50		 push	 eax
  000fe	8d 4d ac	 lea	 ecx, DWORD PTR _kInfo$505306[ebp]
  00101	ff 15 00 00 00
	00		 call	 DWORD PTR __imp_??8ioHashString@@QBE_NABV0@@Z
  00107	84 c0		 test	 al, al
  00109	74 22		 je	 SHORT $LN2@OnAnimatio

; 124  : 			{
; 125  : 				m_pOwner->EndEffect( kInfo.m_EventName, false );

  0010b	8b 4e 04	 mov	 ecx, DWORD PTR [esi+4]
  0010e	6a 01		 push	 1
  00110	6a 00		 push	 0
  00112	8d 45 bc	 lea	 eax, DWORD PTR _kInfo$505306[ebp+16]
  00115	50		 push	 eax
  00116	ff 15 00 00 00
	00		 call	 DWORD PTR __imp_?EndEffect@ioEntityGroup@@QAEXABVioHashString@@_N1@Z

; 126  : 				iter = m_ShopEffectList.erase( iter );

  0011c	57		 push	 edi
  0011d	8d 45 ec	 lea	 eax, DWORD PTR $T507720[ebp]
  00120	50		 push	 eax
  00121	8d 4e 1c	 lea	 ecx, DWORD PTR [esi+28]
  00124	e8 00 00 00 00	 call	 ?erase@?$vector@UAniEventInfo@@V?$allocator@UAniEventInfo@@@std@@@std@@QAE?AV?$_Vector_iterator@V?$_Vector_val@UAniEventInfo@@V?$allocator@UAniEventInfo@@@std@@@std@@@2@V?$_Vector_const_iterator@V?$_Vector_val@UAniEventInfo@@V?$allocator@UAniEventInfo@@@std@@@std@@@2@@Z ; std::vector<AniEventInfo,std::allocator<AniEventInfo> >::erase
  00129	8b 38		 mov	 edi, DWORD PTR [eax]

; 127  : 			}
; 128  : 			else

  0012b	eb 03		 jmp	 SHORT $LN115@OnAnimatio
$LN2@OnAnimatio:

; 129  : 			{
; 130  : 				++iter;

  0012d	83 c7 20	 add	 edi, 32			; 00000020H
$LN115@OnAnimatio:

; 131  : 			}
; 132  : 		}

  00130	83 4d fc ff	 or	 DWORD PTR __$EHRec$[ebp+8], -1
  00134	8d 4d ac	 lea	 ecx, DWORD PTR _kInfo$505306[ebp]
  00137	e8 00 00 00 00	 call	 ??1AniEventInfo@@QAE@XZ
$LN127@OnAnimatio:

; 119  : 		while( iter != m_ShopEffectList.end() )

  0013c	3b 7e 20	 cmp	 edi, DWORD PTR [esi+32]
  0013f	75 a3		 jne	 SHORT $LL4@OnAnimatio
$LN3@OnAnimatio:

; 133  : 	}
; 134  : }

  00141	e8 00 00 00 00	 call	 __EH_epilog3
  00146	c2 08 00	 ret	 8
_TEXT	ENDS
;	COMDAT text$x
text$x	SEGMENT
__unwindfunclet$?OnAnimationClear@ioDummyCharAniEventHandler@@MAEXPBUAniEventTime@@PBVioAnimation@@@Z$0:
  00000	8d 4d cc	 lea	 ecx, DWORD PTR _kInfo$505282[ebp]
  00003	e9 00 00 00 00	 jmp	 ??1AniEventInfo@@QAE@XZ
__unwindfunclet$?OnAnimationClear@ioDummyCharAniEventHandler@@MAEXPBUAniEventTime@@PBVioAnimation@@@Z$1:
  00008	8d 4d cc	 lea	 ecx, DWORD PTR _kInfo$505294[ebp]
  0000b	e9 00 00 00 00	 jmp	 ??1AniEventInfo@@QAE@XZ
__unwindfunclet$?OnAnimationClear@ioDummyCharAniEventHandler@@MAEXPBUAniEventTime@@PBVioAnimation@@@Z$2:
  00010	8d 4d ac	 lea	 ecx, DWORD PTR _kInfo$505306[ebp]
  00013	e9 00 00 00 00	 jmp	 ??1AniEventInfo@@QAE@XZ
__ehhandler$?OnAnimationClear@ioDummyCharAniEventHandler@@MAEXPBUAniEventTime@@PBVioAnimation@@@Z:
  00018	8b 54 24 08	 mov	 edx, DWORD PTR [esp+8]
  0001c	8d 42 0c	 lea	 eax, DWORD PTR [edx+12]
  0001f	8b 4a a8	 mov	 ecx, DWORD PTR [edx-88]
  00022	33 c8		 xor	 ecx, eax
  00024	e8 00 00 00 00	 call	 @__security_check_cookie@4
  00029	b8 00 00 00 00	 mov	 eax, OFFSET __ehfuncinfo$?OnAnimationClear@ioDummyCharAniEventHandler@@MAEXPBUAniEventTime@@PBVioAnimation@@@Z
  0002e	e9 00 00 00 00	 jmp	 ___CxxFrameHandler3
text$x	ENDS
?OnAnimationClear@ioDummyCharAniEventHandler@@MAEXPBUAniEventTime@@PBVioAnimation@@@Z ENDP ; ioDummyCharAniEventHandler::OnAnimationClear
PUBLIC	?push_back@?$vector@UAniEventInfo@@V?$allocator@UAniEventInfo@@@std@@@std@@QAEXABUAniEventInfo@@@Z ; std::vector<AniEventInfo,std::allocator<AniEventInfo> >::push_back
; Function compile flags: /Ogsp
; File c:\program files (x86)\microsoft visual studio 10.0\vc\include\vector
;	COMDAT ?push_back@?$vector@UAniEventInfo@@V?$allocator@UAniEventInfo@@@std@@@std@@QAEXABUAniEventInfo@@@Z
_TEXT	SEGMENT
__Val$ = 8						; size = 4
?push_back@?$vector@UAniEventInfo@@V?$allocator@UAniEventInfo@@@std@@@std@@QAEXABUAniEventInfo@@@Z PROC ; std::vector<AniEventInfo,std::allocator<AniEventInfo> >::push_back, COMDAT
; _this$ = ecx

; 976  : 		{	// insert element at end

  00000	55		 push	 ebp
  00001	8b ec		 mov	 ebp, esp
  00003	56		 push	 esi
  00004	8b f1		 mov	 esi, ecx

; 977  : 		if (_Inside(_STD addressof(_Val)))

  00006	8b 46 04	 mov	 eax, DWORD PTR [esi+4]
  00009	57		 push	 edi
  0000a	8b 7d 08	 mov	 edi, DWORD PTR __Val$[ebp]
  0000d	3b f8		 cmp	 edi, eax
  0000f	73 2d		 jae	 SHORT $LN4@push_back
  00011	8b 0e		 mov	 ecx, DWORD PTR [esi]
  00013	3b cf		 cmp	 ecx, edi
  00015	77 27		 ja	 SHORT $LN4@push_back

; 978  : 			{	// push back an element
; 979  : 			size_type _Idx = _STD addressof(_Val) - this->_Myfirst;

  00017	2b f9		 sub	 edi, ecx

; 980  : 			if (this->_Mylast == this->_Myend)

  00019	3b 46 08	 cmp	 eax, DWORD PTR [esi+8]
  0001c	75 09		 jne	 SHORT $LN3@push_back

; 981  : 				_Reserve(1);

  0001e	6a 01		 push	 1
  00020	8b ce		 mov	 ecx, esi
  00022	e8 00 00 00 00	 call	 ?_Reserve@?$vector@UAniEventInfo@@V?$allocator@UAniEventInfo@@@std@@@std@@IAEXI@Z ; std::vector<AniEventInfo,std::allocator<AniEventInfo> >::_Reserve
$LN3@push_back:

; 982  : 			_Orphan_range(this->_Mylast, this->_Mylast);
; 983  : 			_Cons_val(this->_Alval,
; 984  : 				this->_Mylast,
; 985  : 				this->_Myfirst[_Idx]);

  00027	83 e7 e0	 and	 edi, -32		; ffffffe0H
  0002a	03 3e		 add	 edi, DWORD PTR [esi]
  0002c	8d 46 0c	 lea	 eax, DWORD PTR [esi+12]
  0002f	57		 push	 edi
  00030	ff 76 04	 push	 DWORD PTR [esi+4]
  00033	50		 push	 eax
  00034	e8 00 00 00 00	 call	 ??$_Cons_val@V?$allocator@UAniEventInfo@@@std@@UAniEventInfo@@AAU3@@std@@YAXAAV?$allocator@UAniEventInfo@@@0@PAUAniEventInfo@@AAU2@@Z ; std::_Cons_val<std::allocator<AniEventInfo>,AniEventInfo,AniEventInfo &>
  00039	83 c4 0c	 add	 esp, 12			; 0000000cH

; 986  : 			++this->_Mylast;
; 987  : 			}
; 988  : 		else

  0003c	eb 19		 jmp	 SHORT $LN26@push_back
$LN4@push_back:

; 989  : 			{	// push back a non-element
; 990  : 			if (this->_Mylast == this->_Myend)

  0003e	3b 46 08	 cmp	 eax, DWORD PTR [esi+8]
  00041	75 09		 jne	 SHORT $LN1@push_back

; 991  : 				_Reserve(1);

  00043	6a 01		 push	 1
  00045	8b ce		 mov	 ecx, esi
  00047	e8 00 00 00 00	 call	 ?_Reserve@?$vector@UAniEventInfo@@V?$allocator@UAniEventInfo@@@std@@@std@@IAEXI@Z ; std::vector<AniEventInfo,std::allocator<AniEventInfo> >::_Reserve
$LN1@push_back:

; 992  : 			_Orphan_range(this->_Mylast, this->_Mylast);
; 993  : 			_Cons_val(this->_Alval,
; 994  : 				this->_Mylast,
; 995  : 				_Val);

  0004c	57		 push	 edi
  0004d	ff 76 04	 push	 DWORD PTR [esi+4]
  00050	e8 00 00 00 00	 call	 ??$_Construct@UAniEventInfo@@ABU1@@std@@YAXPAUAniEventInfo@@ABU1@@Z ; std::_Construct<AniEventInfo,AniEventInfo const &>
  00055	59		 pop	 ecx
  00056	59		 pop	 ecx
$LN26@push_back:

; 996  : 			++this->_Mylast;

  00057	83 46 04 20	 add	 DWORD PTR [esi+4], 32	; 00000020H
  0005b	5f		 pop	 edi
  0005c	5e		 pop	 esi

; 997  : 			}
; 998  : 		}

  0005d	5d		 pop	 ebp
  0005e	c2 04 00	 ret	 4
?push_back@?$vector@UAniEventInfo@@V?$allocator@UAniEventInfo@@@std@@@std@@QAEXABUAniEventInfo@@@Z ENDP ; std::vector<AniEventInfo,std::allocator<AniEventInfo> >::push_back
_TEXT	ENDS
PUBLIC	?clear@?$vector@UAniEventInfo@@V?$allocator@UAniEventInfo@@@std@@@std@@QAEXXZ ; std::vector<AniEventInfo,std::allocator<AniEventInfo> >::clear
; Function compile flags: /Ogsp
;	COMDAT ?clear@?$vector@UAniEventInfo@@V?$allocator@UAniEventInfo@@@std@@@std@@QAEXXZ
_TEXT	SEGMENT
$T508041 = -4						; size = 4
?clear@?$vector@UAniEventInfo@@V?$allocator@UAniEventInfo@@@std@@@std@@QAEXXZ PROC ; std::vector<AniEventInfo,std::allocator<AniEventInfo> >::clear, COMDAT
; _this$ = ecx

; 1217 : 		{	// erase all

  00000	55		 push	 ebp
  00001	8b ec		 mov	 ebp, esp
  00003	51		 push	 ecx

; 1218 : 		erase(begin(), end());

  00004	8b 41 04	 mov	 eax, DWORD PTR [ecx+4]
  00007	8b 11		 mov	 edx, DWORD PTR [ecx]
  00009	50		 push	 eax
  0000a	52		 push	 edx
  0000b	8d 45 fc	 lea	 eax, DWORD PTR $T508041[ebp]
  0000e	50		 push	 eax
  0000f	e8 00 00 00 00	 call	 ?erase@?$vector@UAniEventInfo@@V?$allocator@UAniEventInfo@@@std@@@std@@QAE?AV?$_Vector_iterator@V?$_Vector_val@UAniEventInfo@@V?$allocator@UAniEventInfo@@@std@@@std@@@2@V?$_Vector_const_iterator@V?$_Vector_val@UAniEventInfo@@V?$allocator@UAniEventInfo@@@std@@@std@@@2@0@Z ; std::vector<AniEventInfo,std::allocator<AniEventInfo> >::erase

; 1219 : 		}

  00014	c9		 leave
  00015	c3		 ret	 0
?clear@?$vector@UAniEventInfo@@V?$allocator@UAniEventInfo@@@std@@@std@@QAEXXZ ENDP ; std::vector<AniEventInfo,std::allocator<AniEventInfo> >::clear
_TEXT	ENDS
PUBLIC	??1ioDummyCharAniEventHandler@@UAE@XZ		; ioDummyCharAniEventHandler::~ioDummyCharAniEventHandler
EXTRN	__imp_??1ioAniEventHandler@@UAE@XZ:PROC
;	COMDAT xdata$x
xdata$x	SEGMENT
__unwindtable$??1ioDummyCharAniEventHandler@@UAE@XZ DD 0ffffffffH
	DD	FLAT:__unwindfunclet$??1ioDummyCharAniEventHandler@@UAE@XZ$0
	DD	00H
	DD	FLAT:__unwindfunclet$??1ioDummyCharAniEventHandler@@UAE@XZ$1
	DD	01H
	DD	FLAT:__unwindfunclet$??1ioDummyCharAniEventHandler@@UAE@XZ$2
__ehfuncinfo$??1ioDummyCharAniEventHandler@@UAE@XZ DD 019930522H
	DD	03H
	DD	FLAT:__unwindtable$??1ioDummyCharAniEventHandler@@UAE@XZ
	DD	2 DUP(00H)
	DD	2 DUP(00H)
	DD	00H
	DD	01H
; Function compile flags: /Ogsp
; File d:\lost saga for developer\youtube\tutorial\source\src\lsclient\iodummycharanieventhandler.cpp
xdata$x	ENDS
;	COMDAT ??1ioDummyCharAniEventHandler@@UAE@XZ
_TEXT	SEGMENT
$T508158 = -20						; size = 4
_this$ = -16						; size = 4
__$EHRec$ = -12						; size = 12
??1ioDummyCharAniEventHandler@@UAE@XZ PROC		; ioDummyCharAniEventHandler::~ioDummyCharAniEventHandler, COMDAT
; _this$ = ecx

; 12   : {

  00000	6a 08		 push	 8
  00002	b8 00 00 00 00	 mov	 eax, __ehhandler$??1ioDummyCharAniEventHandler@@UAE@XZ
  00007	e8 00 00 00 00	 call	 __EH_prolog3
  0000c	8b f1		 mov	 esi, ecx
  0000e	89 75 f0	 mov	 DWORD PTR _this$[ebp], esi
  00011	c7 06 00 00 00
	00		 mov	 DWORD PTR [esi], OFFSET ??_7ioDummyCharAniEventHandler@@6B@

; 13   : 	m_ShopEffectList.clear();

  00017	8b 46 20	 mov	 eax, DWORD PTR [esi+32]
  0001a	8b 4e 1c	 mov	 ecx, DWORD PTR [esi+28]
  0001d	50		 push	 eax
  0001e	51		 push	 ecx
  0001f	8d 45 ec	 lea	 eax, DWORD PTR $T508158[ebp]
  00022	50		 push	 eax
  00023	8d 4e 1c	 lea	 ecx, DWORD PTR [esi+28]
  00026	c7 45 fc 02 00
	00 00		 mov	 DWORD PTR __$EHRec$[ebp+8], 2
  0002d	e8 00 00 00 00	 call	 ?erase@?$vector@UAniEventInfo@@V?$allocator@UAniEventInfo@@@std@@@std@@QAE?AV?$_Vector_iterator@V?$_Vector_val@UAniEventInfo@@V?$allocator@UAniEventInfo@@@std@@@std@@@2@V?$_Vector_const_iterator@V?$_Vector_val@UAniEventInfo@@V?$allocator@UAniEventInfo@@@std@@@std@@@2@0@Z ; std::vector<AniEventInfo,std::allocator<AniEventInfo> >::erase

; 14   : }

  00032	8d 4e 2c	 lea	 ecx, DWORD PTR [esi+44]
  00035	c6 45 fc 01	 mov	 BYTE PTR __$EHRec$[ebp+8], 1
  00039	e8 00 00 00 00	 call	 ?_Tidy@?$vector@UAniEventInfo@@V?$allocator@UAniEventInfo@@@std@@@std@@IAEXXZ ; std::vector<AniEventInfo,std::allocator<AniEventInfo> >::_Tidy
  0003e	8d 4e 1c	 lea	 ecx, DWORD PTR [esi+28]
  00041	c6 45 fc 00	 mov	 BYTE PTR __$EHRec$[ebp+8], 0
  00045	e8 00 00 00 00	 call	 ?_Tidy@?$vector@UAniEventInfo@@V?$allocator@UAniEventInfo@@@std@@@std@@IAEXXZ ; std::vector<AniEventInfo,std::allocator<AniEventInfo> >::_Tidy
  0004a	83 4d fc ff	 or	 DWORD PTR __$EHRec$[ebp+8], -1
  0004e	8b ce		 mov	 ecx, esi
  00050	ff 15 00 00 00
	00		 call	 DWORD PTR __imp_??1ioAniEventHandler@@UAE@XZ
  00056	e8 00 00 00 00	 call	 __EH_epilog3
  0005b	c3		 ret	 0
_TEXT	ENDS
;	COMDAT text$x
text$x	SEGMENT
__unwindfunclet$??1ioDummyCharAniEventHandler@@UAE@XZ$0:
  00000	8b 4d f0	 mov	 ecx, DWORD PTR _this$[ebp]
  00003	ff 25 00 00 00
	00		 jmp	 DWORD PTR __imp_??1ioAniEventHandler@@UAE@XZ
__unwindfunclet$??1ioDummyCharAniEventHandler@@UAE@XZ$1:
  00009	8b 4d f0	 mov	 ecx, DWORD PTR _this$[ebp]
  0000c	83 c1 1c	 add	 ecx, 28			; 0000001cH
  0000f	e9 00 00 00 00	 jmp	 ??1?$vector@UAniEventInfo@@V?$allocator@UAniEventInfo@@@std@@@std@@QAE@XZ ; std::vector<AniEventInfo,std::allocator<AniEventInfo> >::~vector<AniEventInfo,std::allocator<AniEventInfo> >
__unwindfunclet$??1ioDummyCharAniEventHandler@@UAE@XZ$2:
  00014	8b 4d f0	 mov	 ecx, DWORD PTR _this$[ebp]
  00017	83 c1 2c	 add	 ecx, 44			; 0000002cH
  0001a	e9 00 00 00 00	 jmp	 ??1?$vector@UAniEventInfo@@V?$allocator@UAniEventInfo@@@std@@@std@@QAE@XZ ; std::vector<AniEventInfo,std::allocator<AniEventInfo> >::~vector<AniEventInfo,std::allocator<AniEventInfo> >
__ehhandler$??1ioDummyCharAniEventHandler@@UAE@XZ:
  0001f	8b 54 24 08	 mov	 edx, DWORD PTR [esp+8]
  00023	8d 42 0c	 lea	 eax, DWORD PTR [edx+12]
  00026	8b 4a e8	 mov	 ecx, DWORD PTR [edx-24]
  00029	33 c8		 xor	 ecx, eax
  0002b	e8 00 00 00 00	 call	 @__security_check_cookie@4
  00030	b8 00 00 00 00	 mov	 eax, OFFSET __ehfuncinfo$??1ioDummyCharAniEventHandler@@UAE@XZ
  00035	e9 00 00 00 00	 jmp	 ___CxxFrameHandler3
text$x	ENDS
??1ioDummyCharAniEventHandler@@UAE@XZ ENDP		; ioDummyCharAniEventHandler::~ioDummyCharAniEventHandler
PUBLIC	?OnShopEffect@ioDummyCharAniEventHandler@@IAEXPBUAniEventTime@@PBVioAnimation@@@Z ; ioDummyCharAniEventHandler::OnShopEffect
EXTRN	?EndEffect@ioDummyChar@@QAEXABVioHashString@@_N@Z:PROC ; ioDummyChar::EndEffect
;	COMDAT xdata$x
xdata$x	SEGMENT
__unwindtable$?OnShopEffect@ioDummyCharAniEventHandler@@IAEXPBUAniEventTime@@PBVioAnimation@@@Z DD 0ffffffffH
	DD	FLAT:__unwindfunclet$?OnShopEffect@ioDummyCharAniEventHandler@@IAEXPBUAniEventTime@@PBVioAnimation@@@Z$1
	DD	0ffffffffH
	DD	FLAT:__unwindfunclet$?OnShopEffect@ioDummyCharAniEventHandler@@IAEXPBUAniEventTime@@PBVioAnimation@@@Z$0
__ehfuncinfo$?OnShopEffect@ioDummyCharAniEventHandler@@IAEXPBUAniEventTime@@PBVioAnimation@@@Z DD 019930522H
	DD	02H
	DD	FLAT:__unwindtable$?OnShopEffect@ioDummyCharAniEventHandler@@IAEXPBUAniEventTime@@PBVioAnimation@@@Z
	DD	2 DUP(00H)
	DD	2 DUP(00H)
	DD	00H
	DD	01H
; Function compile flags: /Ogsp
xdata$x	ENDS
;	COMDAT ?OnShopEffect@ioDummyCharAniEventHandler@@IAEXPBUAniEventTime@@PBVioAnimation@@@Z
_TEXT	SEGMENT
_kInfo$ = -48						; size = 32
$T508203 = -16						; size = 4
__$EHRec$ = -12						; size = 12
_pEvent$ = 8						; size = 4
_pNotifier$ = 12					; size = 4
?OnShopEffect@ioDummyCharAniEventHandler@@IAEXPBUAniEventTime@@PBVioAnimation@@@Z PROC ; ioDummyCharAniEventHandler::OnShopEffect, COMDAT
; _this$ = ecx

; 46   : {

  00000	6a 24		 push	 36			; 00000024H
  00002	b8 00 00 00 00	 mov	 eax, __ehhandler$?OnShopEffect@ioDummyCharAniEventHandler@@IAEXPBUAniEventTime@@PBVioAnimation@@@Z
  00007	e8 00 00 00 00	 call	 __EH_prolog3
  0000c	8b f1		 mov	 esi, ecx

; 47   : 	if( !m_pChar ) return;

  0000e	83 7e 18 00	 cmp	 DWORD PTR [esi+24], 0
  00012	0f 84 a0 00 00
	00		 je	 $LN6@OnShopEffe

; 48   : 
; 49   : 	AniEventInfoList::iterator iter = m_ShopEffectList.begin();

  00018	8d 5e 1c	 lea	 ebx, DWORD PTR [esi+28]
  0001b	8b 3b		 mov	 edi, DWORD PTR [ebx]
  0001d	eb 17		 jmp	 SHORT $LN47@OnShopEffe
$LN4@OnShopEffe:

; 51   : 	{
; 52   : 		if( (*iter).m_EventName == pEvent->szSubInfo )

  0001f	8b 45 08	 mov	 eax, DWORD PTR _pEvent$[ebp]
  00022	83 c0 14	 add	 eax, 20			; 00000014H
  00025	50		 push	 eax
  00026	8d 4f 10	 lea	 ecx, DWORD PTR [edi+16]
  00029	ff 15 00 00 00
	00		 call	 DWORD PTR __imp_??8ioHashString@@QBE_NABV0@@Z
  0002f	84 c0		 test	 al, al
  00031	75 0a		 jne	 SHORT $LN44@OnShopEffe

; 56   : 			break;
; 57   : 		}
; 58   : 		else
; 59   : 		{
; 60   : 			++iter;

  00033	83 c7 20	 add	 edi, 32			; 00000020H
$LN47@OnShopEffe:

; 50   : 	while( iter != m_ShopEffectList.end() )

  00036	3b 7e 20	 cmp	 edi, DWORD PTR [esi+32]
  00039	75 e4		 jne	 SHORT $LN4@OnShopEffe

; 51   : 	{
; 52   : 		if( (*iter).m_EventName == pEvent->szSubInfo )

  0003b	eb 1d		 jmp	 SHORT $LN3@OnShopEffe
$LN44@OnShopEffe:

; 53   : 		{
; 54   : 			m_pChar->EndEffect( pEvent->szSubInfo, false );

  0003d	8b 45 08	 mov	 eax, DWORD PTR _pEvent$[ebp]
  00040	8b 4e 18	 mov	 ecx, DWORD PTR [esi+24]
  00043	6a 00		 push	 0
  00045	83 c0 14	 add	 eax, 20			; 00000014H
  00048	50		 push	 eax
  00049	e8 00 00 00 00	 call	 ?EndEffect@ioDummyChar@@QAEXABVioHashString@@_N@Z ; ioDummyChar::EndEffect

; 55   : 			m_ShopEffectList.erase( iter );

  0004e	57		 push	 edi
  0004f	8d 45 f0	 lea	 eax, DWORD PTR $T508203[ebp]
  00052	50		 push	 eax
  00053	8b cb		 mov	 ecx, ebx
  00055	e8 00 00 00 00	 call	 ?erase@?$vector@UAniEventInfo@@V?$allocator@UAniEventInfo@@@std@@@std@@QAE?AV?$_Vector_iterator@V?$_Vector_val@UAniEventInfo@@V?$allocator@UAniEventInfo@@@std@@@std@@@2@V?$_Vector_const_iterator@V?$_Vector_val@UAniEventInfo@@V?$allocator@UAniEventInfo@@@std@@@std@@@2@@Z ; std::vector<AniEventInfo,std::allocator<AniEventInfo> >::erase
$LN3@OnShopEffe:

; 61   : 		}
; 62   : 	}
; 63   : 
; 64   : 	m_pChar->AttachEffect( pEvent->szSubInfo, NULL );

  0005a	8b 7d 08	 mov	 edi, DWORD PTR _pEvent$[ebp]
  0005d	8b 4e 18	 mov	 ecx, DWORD PTR [esi+24]
  00060	6a 00		 push	 0
  00062	83 c7 14	 add	 edi, 20			; 00000014H
  00065	57		 push	 edi
  00066	e8 00 00 00 00	 call	 ?AttachEffect@ioDummyChar@@QAEPAVioEffect@@ABVioHashString@@PAVioEntityEvent@@@Z ; ioDummyChar::AttachEffect

; 65   : 
; 66   : 	AniEventInfo kInfo;

  0006b	8b 35 00 00 00
	00		 mov	 esi, DWORD PTR __imp_??0ioHashString@@QAE@XZ
  00071	8d 4d d0	 lea	 ecx, DWORD PTR _kInfo$[ebp]
  00074	ff d6		 call	 esi
  00076	83 65 fc 00	 and	 DWORD PTR __$EHRec$[ebp+8], 0
  0007a	8d 4d e0	 lea	 ecx, DWORD PTR _kInfo$[ebp+16]
  0007d	ff d6		 call	 esi

; 67   : 	kInfo.m_AniName = pNotifier->GetName();

  0007f	8b 4d 0c	 mov	 ecx, DWORD PTR _pNotifier$[ebp]
  00082	c7 45 fc 01 00
	00 00		 mov	 DWORD PTR __$EHRec$[ebp+8], 1
  00089	ff 15 00 00 00
	00		 call	 DWORD PTR __imp_?GetName@ioAnimation@@QBEABVioHashString@@XZ
  0008f	8b 35 00 00 00
	00		 mov	 esi, DWORD PTR __imp_??4ioHashString@@QAEAAV0@ABV0@@Z
  00095	50		 push	 eax
  00096	8d 4d d0	 lea	 ecx, DWORD PTR _kInfo$[ebp]
  00099	ff d6		 call	 esi

; 68   : 	kInfo.m_EventName = pEvent->szSubInfo;

  0009b	57		 push	 edi
  0009c	8d 4d e0	 lea	 ecx, DWORD PTR _kInfo$[ebp+16]
  0009f	ff d6		 call	 esi

; 69   : 
; 70   : 	m_ShopEffectList.push_back( kInfo );

  000a1	8d 45 d0	 lea	 eax, DWORD PTR _kInfo$[ebp]
  000a4	50		 push	 eax
  000a5	8b cb		 mov	 ecx, ebx
  000a7	e8 00 00 00 00	 call	 ?push_back@?$vector@UAniEventInfo@@V?$allocator@UAniEventInfo@@@std@@@std@@QAEXABUAniEventInfo@@@Z ; std::vector<AniEventInfo,std::allocator<AniEventInfo> >::push_back

; 71   : }

  000ac	83 4d fc ff	 or	 DWORD PTR __$EHRec$[ebp+8], -1
  000b0	8d 4d d0	 lea	 ecx, DWORD PTR _kInfo$[ebp]
  000b3	e8 00 00 00 00	 call	 ??1AniEventInfo@@QAE@XZ
$LN6@OnShopEffe:
  000b8	e8 00 00 00 00	 call	 __EH_epilog3
  000bd	c2 08 00	 ret	 8
_TEXT	ENDS
;	COMDAT text$x
text$x	SEGMENT
__unwindfunclet$?OnShopEffect@ioDummyCharAniEventHandler@@IAEXPBUAniEventTime@@PBVioAnimation@@@Z$1:
  00000	8d 4d d0	 lea	 ecx, DWORD PTR _kInfo$[ebp]
  00003	ff 25 00 00 00
	00		 jmp	 DWORD PTR __imp_??1ioHashString@@QAE@XZ
__unwindfunclet$?OnShopEffect@ioDummyCharAniEventHandler@@IAEXPBUAniEventTime@@PBVioAnimation@@@Z$0:
  00009	8d 4d d0	 lea	 ecx, DWORD PTR _kInfo$[ebp]
  0000c	e9 00 00 00 00	 jmp	 ??1AniEventInfo@@QAE@XZ
__ehhandler$?OnShopEffect@ioDummyCharAniEventHandler@@IAEXPBUAniEventTime@@PBVioAnimation@@@Z:
  00011	8b 54 24 08	 mov	 edx, DWORD PTR [esp+8]
  00015	8d 42 0c	 lea	 eax, DWORD PTR [edx+12]
  00018	8b 4a cc	 mov	 ecx, DWORD PTR [edx-52]
  0001b	33 c8		 xor	 ecx, eax
  0001d	e8 00 00 00 00	 call	 @__security_check_cookie@4
  00022	b8 00 00 00 00	 mov	 eax, OFFSET __ehfuncinfo$?OnShopEffect@ioDummyCharAniEventHandler@@IAEXPBUAniEventTime@@PBVioAnimation@@@Z
  00027	e9 00 00 00 00	 jmp	 ___CxxFrameHandler3
text$x	ENDS
?OnShopEffect@ioDummyCharAniEventHandler@@IAEXPBUAniEventTime@@PBVioAnimation@@@Z ENDP ; ioDummyCharAniEventHandler::OnShopEffect
; Function compile flags: /Ogsp
;	COMDAT ??_GioDummyCharAniEventHandler@@UAEPAXI@Z
_TEXT	SEGMENT
___flags$ = 8						; size = 4
??_GioDummyCharAniEventHandler@@UAEPAXI@Z PROC		; ioDummyCharAniEventHandler::`scalar deleting destructor', COMDAT
; _this$ = ecx
  00000	55		 push	 ebp
  00001	8b ec		 mov	 ebp, esp
  00003	56		 push	 esi
  00004	8b f1		 mov	 esi, ecx
  00006	e8 00 00 00 00	 call	 ??1ioDummyCharAniEventHandler@@UAE@XZ ; ioDummyCharAniEventHandler::~ioDummyCharAniEventHandler
  0000b	f6 45 08 01	 test	 BYTE PTR ___flags$[ebp], 1
  0000f	74 07		 je	 SHORT $LN1@scalar@3
  00011	56		 push	 esi
  00012	e8 00 00 00 00	 call	 ??3@YAXPAX@Z		; operator delete
  00017	59		 pop	 ecx
$LN1@scalar@3:
  00018	8b c6		 mov	 eax, esi
  0001a	5e		 pop	 esi
  0001b	5d		 pop	 ebp
  0001c	c2 04 00	 ret	 4
??_GioDummyCharAniEventHandler@@UAEPAXI@Z ENDP		; ioDummyCharAniEventHandler::`scalar deleting destructor'
_TEXT	ENDS
PUBLIC	_pEvent$GSCopy$
PUBLIC	_pNotifier$GSCopy$
PUBLIC	_this$GSCopy$
PUBLIC	__$ArrayPad$
EXTRN	__imp_?EventHandling@ioAniEventHandler@@UAE_NPBUAniEventTime@@PBVioAnimation@@@Z:PROC
; Function compile flags: /Ogsp
;	COMDAT ?EventHandling@ioDummyCharAniEventHandler@@UAE_NPBUAniEventTime@@PBVioAnimation@@@Z
_TEXT	SEGMENT
_pNotifier$GSCopy$ = -32				; size = 4
_this$GSCopy$ = -28					; size = 4
_pEvent$GSCopy$ = -24					; size = 4
__t$508459 = -20					; size = 12
__t$508334 = -20					; size = 12
__$ArrayPad$ = -4					; size = 4
_pEvent$ = 8						; size = 4
_pNotifier$ = 12					; size = 4
?EventHandling@ioDummyCharAniEventHandler@@UAE_NPBUAniEventTime@@PBVioAnimation@@@Z PROC ; ioDummyCharAniEventHandler::EventHandling, COMDAT
; _this$ = ecx

; 22   : {

  00000	55		 push	 ebp
  00001	8b ec		 mov	 ebp, esp
  00003	83 ec 20	 sub	 esp, 32			; 00000020H
  00006	a1 00 00 00 00	 mov	 eax, DWORD PTR ___security_cookie
  0000b	33 c5		 xor	 eax, ebp
  0000d	89 45 fc	 mov	 DWORD PTR __$ArrayPad$[ebp], eax
  00010	8b 45 08	 mov	 eax, DWORD PTR _pEvent$[ebp]
  00013	89 4d e4	 mov	 DWORD PTR _this$GSCopy$[ebp], ecx
  00016	8b 4d 0c	 mov	 ecx, DWORD PTR _pNotifier$[ebp]

; 23   : 	if( ioAniEventHandler::EventHandling( pEvent, pNotifier ) )

  00019	51		 push	 ecx

; 30   : 	}
; 31   : 	else if( pEvent->szEventType == "shop_effect" )

  0001a	89 4d e0	 mov	 DWORD PTR _pNotifier$GSCopy$[ebp], ecx
  0001d	8b 4d e4	 mov	 ecx, DWORD PTR _this$GSCopy$[ebp]
  00020	50		 push	 eax
  00021	89 45 e8	 mov	 DWORD PTR _pEvent$GSCopy$[ebp], eax
  00024	ff 15 00 00 00
	00		 call	 DWORD PTR __imp_?EventHandling@ioAniEventHandler@@UAE_NPBUAniEventTime@@PBVioAnimation@@@Z
  0002a	84 c0		 test	 al, al
  0002c	74 07		 je	 SHORT $LN227@EventHandl

; 24   : 		return true;

  0002e	b0 01		 mov	 al, 1
  00030	e9 25 01 00 00	 jmp	 $LN5@EventHandl
$LN227@EventHandl:
  00035	53		 push	 ebx
  00036	57		 push	 edi

; 25   : 
; 26   : 	if( pEvent->szEventType == "auto_effect" )

  00037	6a 02		 push	 2
  00039	5f		 pop	 edi
  0003a	c7 45 ec 8c 99
	9f 85		 mov	 DWORD PTR __t$508334[ebp], -2053138036 ; 859f998cH
  00041	c7 45 f0 b2 89
	8d 8c		 mov	 DWORD PTR __t$508334[ebp+4], -1936881230 ; 8c8d89b2H
  00048	8d 45 ec	 lea	 eax, DWORD PTR __t$508334[ebp]
  0004b	c7 45 f4 88 8f
	9f 00		 mov	 DWORD PTR __t$508334[ebp+8], 10456968 ; 009f8f88H
  00052	8b cf		 mov	 ecx, edi
  00054	bb ed ec eb ea	 mov	 ebx, -353637139		; eaebecedH
$LL110@EventHandl:
  00059	31 18		 xor	 DWORD PTR [eax], ebx
  0005b	83 c0 04	 add	 eax, 4
  0005e	49		 dec	 ecx
  0005f	75 f8		 jne	 SHORT $LL110@EventHandl
  00061	6a 08		 push	 8
  00063	58		 pop	 eax
$LL107@EventHandl:
  00064	8b c8		 mov	 ecx, eax
  00066	81 e1 03 00 00
	80		 and	 ecx, -2147483645	; 80000003H
  0006c	79 05		 jns	 SHORT $LN240@EventHandl
  0006e	49		 dec	 ecx
  0006f	83 c9 fc	 or	 ecx, -4			; fffffffcH
  00072	41		 inc	 ecx
$LN240@EventHandl:
  00073	b2 ed		 mov	 dl, -19			; ffffffedH
  00075	2a d1		 sub	 dl, cl
  00077	30 54 05 ec	 xor	 BYTE PTR __t$508334[ebp+eax], dl
  0007b	40		 inc	 eax
  0007c	83 f8 0b	 cmp	 eax, 11			; 0000000bH
  0007f	7c e3		 jl	 SHORT $LL107@EventHandl
  00081	8b 4d e8	 mov	 ecx, DWORD PTR _pEvent$GSCopy$[ebp]
  00084	56		 push	 esi
  00085	83 c1 04	 add	 ecx, 4
  00088	8d 75 ec	 lea	 esi, DWORD PTR __t$508334[ebp]
  0008b	ff 15 00 00 00
	00		 call	 DWORD PTR __imp_?c_str@ioHashString@@QBEPBDXZ
$LL229@EventHandl:
  00091	8a 08		 mov	 cl, BYTE PTR [eax]
  00093	3a 0e		 cmp	 cl, BYTE PTR [esi]
  00095	75 18		 jne	 SHORT $LN230@EventHandl
  00097	84 c9		 test	 cl, cl
  00099	74 10		 je	 SHORT $LN231@EventHandl
  0009b	8a 48 01	 mov	 cl, BYTE PTR [eax+1]
  0009e	3a 4e 01	 cmp	 cl, BYTE PTR [esi+1]
  000a1	75 0c		 jne	 SHORT $LN230@EventHandl
  000a3	03 c7		 add	 eax, edi
  000a5	03 f7		 add	 esi, edi
  000a7	84 c9		 test	 cl, cl
  000a9	75 e6		 jne	 SHORT $LL229@EventHandl
$LN231@EventHandl:
  000ab	33 c0		 xor	 eax, eax
  000ad	eb 05		 jmp	 SHORT $LN232@EventHandl
$LN230@EventHandl:
  000af	1b c0		 sbb	 eax, eax
  000b1	83 d8 ff	 sbb	 eax, -1
$LN232@EventHandl:
  000b4	85 c0		 test	 eax, eax
  000b6	75 13		 jne	 SHORT $LN228@EventHandl

; 27   : 	{
; 28   : 		OnAutoEffect( pEvent, pNotifier );

  000b8	ff 75 e0	 push	 DWORD PTR _pNotifier$GSCopy$[ebp]
  000bb	8b 4d e4	 mov	 ecx, DWORD PTR _this$GSCopy$[ebp]
  000be	ff 75 e8	 push	 DWORD PTR _pEvent$GSCopy$[ebp]
  000c1	e8 00 00 00 00	 call	 ?OnAutoEffect@ioDummyCharAniEventHandler@@IAEXPBUAniEventTime@@PBVioAnimation@@@Z ; ioDummyCharAniEventHandler::OnAutoEffect

; 29   : 		return true;

  000c6	e9 86 00 00 00	 jmp	 $LN242@EventHandl
$LN228@EventHandl:

; 30   : 	}
; 31   : 	else if( pEvent->szEventType == "shop_effect" )

  000cb	c7 45 ec 9e 84
	84 9a		 mov	 DWORD PTR __t$508459[ebp], -1702591330 ; 9a84849eH
  000d2	c7 45 f0 b2 89
	8d 8c		 mov	 DWORD PTR __t$508459[ebp+4], -1936881230 ; 8c8d89b2H
  000d9	8d 45 ec	 lea	 eax, DWORD PTR __t$508459[ebp]
  000dc	c7 45 f4 88 8f
	9f 00		 mov	 DWORD PTR __t$508459[ebp+8], 10456968 ; 009f8f88H
  000e3	8b cf		 mov	 ecx, edi
$LL216@EventHandl:
  000e5	31 18		 xor	 DWORD PTR [eax], ebx
  000e7	83 c0 04	 add	 eax, 4
  000ea	49		 dec	 ecx
  000eb	75 f8		 jne	 SHORT $LL216@EventHandl
  000ed	6a 08		 push	 8
  000ef	58		 pop	 eax
$LL213@EventHandl:
  000f0	8b c8		 mov	 ecx, eax
  000f2	81 e1 03 00 00
	80		 and	 ecx, -2147483645	; 80000003H
  000f8	79 05		 jns	 SHORT $LN241@EventHandl
  000fa	49		 dec	 ecx
  000fb	83 c9 fc	 or	 ecx, -4			; fffffffcH
  000fe	41		 inc	 ecx
$LN241@EventHandl:
  000ff	b2 ed		 mov	 dl, -19			; ffffffedH
  00101	2a d1		 sub	 dl, cl
  00103	30 54 05 ec	 xor	 BYTE PTR __t$508459[ebp+eax], dl
  00107	40		 inc	 eax
  00108	83 f8 0b	 cmp	 eax, 11			; 0000000bH
  0010b	7c e3		 jl	 SHORT $LL213@EventHandl
  0010d	8b 4d e8	 mov	 ecx, DWORD PTR _pEvent$GSCopy$[ebp]
  00110	83 c1 04	 add	 ecx, 4
  00113	8d 75 ec	 lea	 esi, DWORD PTR __t$508459[ebp]
  00116	ff 15 00 00 00
	00		 call	 DWORD PTR __imp_?c_str@ioHashString@@QBEPBDXZ
$LL233@EventHandl:
  0011c	8a 08		 mov	 cl, BYTE PTR [eax]
  0011e	3a 0e		 cmp	 cl, BYTE PTR [esi]
  00120	75 18		 jne	 SHORT $LN234@EventHandl
  00122	84 c9		 test	 cl, cl
  00124	74 10		 je	 SHORT $LN235@EventHandl
  00126	8a 48 01	 mov	 cl, BYTE PTR [eax+1]
  00129	3a 4e 01	 cmp	 cl, BYTE PTR [esi+1]
  0012c	75 0c		 jne	 SHORT $LN234@EventHandl
  0012e	03 c7		 add	 eax, edi
  00130	03 f7		 add	 esi, edi
  00132	84 c9		 test	 cl, cl
  00134	75 e6		 jne	 SHORT $LL233@EventHandl
$LN235@EventHandl:
  00136	33 c0		 xor	 eax, eax
  00138	eb 05		 jmp	 SHORT $LN236@EventHandl
$LN234@EventHandl:
  0013a	1b c0		 sbb	 eax, eax
  0013c	83 d8 ff	 sbb	 eax, -1
$LN236@EventHandl:
  0013f	85 c0		 test	 eax, eax
  00141	75 12		 jne	 SHORT $LN1@EventHandl

; 32   : 	{
; 33   : 		OnShopEffect( pEvent, pNotifier );

  00143	ff 75 e0	 push	 DWORD PTR _pNotifier$GSCopy$[ebp]
  00146	8b 4d e4	 mov	 ecx, DWORD PTR _this$GSCopy$[ebp]
  00149	ff 75 e8	 push	 DWORD PTR _pEvent$GSCopy$[ebp]
  0014c	e8 00 00 00 00	 call	 ?OnShopEffect@ioDummyCharAniEventHandler@@IAEXPBUAniEventTime@@PBVioAnimation@@@Z ; ioDummyCharAniEventHandler::OnShopEffect
$LN242@EventHandl:

; 34   : 		return true;

  00151	b0 01		 mov	 al, 1
  00153	eb 02		 jmp	 SHORT $LN239@EventHandl
$LN1@EventHandl:

; 35   : 	}
; 36   : 
; 37   : 	return false;

  00155	32 c0		 xor	 al, al
$LN239@EventHandl:
  00157	5e		 pop	 esi
  00158	5f		 pop	 edi
  00159	5b		 pop	 ebx
$LN5@EventHandl:

; 38   : }

  0015a	8b 4d fc	 mov	 ecx, DWORD PTR __$ArrayPad$[ebp]
  0015d	33 cd		 xor	 ecx, ebp
  0015f	e8 00 00 00 00	 call	 @__security_check_cookie@4
  00164	c9		 leave
  00165	c2 08 00	 ret	 8
?EventHandling@ioDummyCharAniEventHandler@@UAE_NPBUAniEventTime@@PBVioAnimation@@@Z ENDP ; ioDummyCharAniEventHandler::EventHandling
_TEXT	ENDS
END
