; Listing generated by Microsoft (R) Optimizing Compiler Version 16.00.30319.01 

	TITLE	D:\Lost Saga For Developer\Youtube\Tutorial\Source\src\LSClient\ioDummyStruct.cpp
	.686P
	.XMM
	include listing.inc
	.model	flat

INCLUDELIB MSVCRT
INCLUDELIB OLDNAMES

PUBLIC	?_EEM_DS@?$deque@UD3DXVECTOR3@@V?$allocator@UD3DXVECTOR3@@@std@@@std@@2HB ; std::deque<D3DXVECTOR3,std::allocator<D3DXVECTOR3> >::_EEM_DS
;	COMDAT ?_EEM_DS@?$deque@UD3DXVECTOR3@@V?$allocator@UD3DXVECTOR3@@@std@@@std@@2HB
CONST	SEGMENT
?_EEM_DS@?$deque@UD3DXVECTOR3@@V?$allocator@UD3DXVECTOR3@@@std@@@std@@2HB DD 01H ; std::deque<D3DXVECTOR3,std::allocator<D3DXVECTOR3> >::_EEM_DS
CONST	ENDS
PUBLIC	?GetCharName@ioBaseChar@@QBEABVioHashString@@XZ	; ioBaseChar::GetCharName
; Function compile flags: /Ogsp
; File d:\lost saga for developer\youtube\tutorial\source\src\lsclient\iobasechar.h
;	COMDAT ?GetCharName@ioBaseChar@@QBEABVioHashString@@XZ
_TEXT	SEGMENT
?GetCharName@ioBaseChar@@QBEABVioHashString@@XZ PROC	; ioBaseChar::GetCharName, COMDAT
; _this$ = ecx

; 2594 : 	inline const ioHashString& GetCharName() const { return m_Name; }

  00000	8d 81 d4 02 00
	00		 lea	 eax, DWORD PTR [ecx+724]
  00006	c3		 ret	 0
?GetCharName@ioBaseChar@@QBEABVioHashString@@XZ ENDP	; ioBaseChar::GetCharName
_TEXT	ENDS
PUBLIC	??_7bad_alloc@std@@6B@				; std::bad_alloc::`vftable'
PUBLIC	??0bad_alloc@std@@QAE@PBD@Z			; std::bad_alloc::bad_alloc
PUBLIC	??_R4bad_alloc@std@@6B@				; std::bad_alloc::`RTTI Complete Object Locator'
PUBLIC	??_R0?AVbad_alloc@std@@@8			; std::bad_alloc `RTTI Type Descriptor'
PUBLIC	??_R3bad_alloc@std@@8				; std::bad_alloc::`RTTI Class Hierarchy Descriptor'
PUBLIC	??_R2bad_alloc@std@@8				; std::bad_alloc::`RTTI Base Class Array'
PUBLIC	??_R1A@?0A@EA@bad_alloc@std@@8			; std::bad_alloc::`RTTI Base Class Descriptor at (0,-1,0,64)'
PUBLIC	??_R1A@?0A@EA@exception@std@@8			; std::exception::`RTTI Base Class Descriptor at (0,-1,0,64)'
PUBLIC	??_R0?AVexception@std@@@8			; std::exception `RTTI Type Descriptor'
PUBLIC	??_R3exception@std@@8				; std::exception::`RTTI Class Hierarchy Descriptor'
PUBLIC	??_R2exception@std@@8				; std::exception::`RTTI Base Class Array'
EXTRN	__imp_??0exception@std@@QAE@ABQBD@Z:PROC
EXTRN	??_7type_info@@6B@:QWORD			; type_info::`vftable'
EXTRN	??_Ebad_alloc@std@@UAEPAXI@Z:PROC		; std::bad_alloc::`vector deleting destructor'
EXTRN	?what@exception@std@@UBEPBDXZ:PROC		; std::exception::what
;	COMDAT ??_R2exception@std@@8
; File c:\program files (x86)\microsoft visual studio 10.0\vc\include\exception
rdata$r	SEGMENT
??_R2exception@std@@8 DD FLAT:??_R1A@?0A@EA@exception@std@@8 ; std::exception::`RTTI Base Class Array'
rdata$r	ENDS
;	COMDAT ??_R3exception@std@@8
rdata$r	SEGMENT
??_R3exception@std@@8 DD 00H				; std::exception::`RTTI Class Hierarchy Descriptor'
	DD	00H
	DD	01H
	DD	FLAT:??_R2exception@std@@8
rdata$r	ENDS
;	COMDAT ??_R0?AVexception@std@@@8
_DATA	SEGMENT
??_R0?AVexception@std@@@8 DD FLAT:??_7type_info@@6B@	; std::exception `RTTI Type Descriptor'
	DD	00H
	DB	'.?AVexception@std@@', 00H
_DATA	ENDS
;	COMDAT ??_R1A@?0A@EA@exception@std@@8
rdata$r	SEGMENT
??_R1A@?0A@EA@exception@std@@8 DD FLAT:??_R0?AVexception@std@@@8 ; std::exception::`RTTI Base Class Descriptor at (0,-1,0,64)'
	DD	00H
	DD	00H
	DD	0ffffffffH
	DD	00H
	DD	040H
	DD	FLAT:??_R3exception@std@@8
rdata$r	ENDS
;	COMDAT ??_R1A@?0A@EA@bad_alloc@std@@8
rdata$r	SEGMENT
??_R1A@?0A@EA@bad_alloc@std@@8 DD FLAT:??_R0?AVbad_alloc@std@@@8 ; std::bad_alloc::`RTTI Base Class Descriptor at (0,-1,0,64)'
	DD	01H
	DD	00H
	DD	0ffffffffH
	DD	00H
	DD	040H
	DD	FLAT:??_R3bad_alloc@std@@8
rdata$r	ENDS
;	COMDAT ??_R2bad_alloc@std@@8
rdata$r	SEGMENT
??_R2bad_alloc@std@@8 DD FLAT:??_R1A@?0A@EA@bad_alloc@std@@8 ; std::bad_alloc::`RTTI Base Class Array'
	DD	FLAT:??_R1A@?0A@EA@exception@std@@8
rdata$r	ENDS
;	COMDAT ??_R3bad_alloc@std@@8
rdata$r	SEGMENT
??_R3bad_alloc@std@@8 DD 00H				; std::bad_alloc::`RTTI Class Hierarchy Descriptor'
	DD	00H
	DD	02H
	DD	FLAT:??_R2bad_alloc@std@@8
rdata$r	ENDS
;	COMDAT ??_R0?AVbad_alloc@std@@@8
_DATA	SEGMENT
??_R0?AVbad_alloc@std@@@8 DD FLAT:??_7type_info@@6B@	; std::bad_alloc `RTTI Type Descriptor'
	DD	00H
	DB	'.?AVbad_alloc@std@@', 00H
_DATA	ENDS
;	COMDAT ??_R4bad_alloc@std@@6B@
rdata$r	SEGMENT
??_R4bad_alloc@std@@6B@ DD 00H				; std::bad_alloc::`RTTI Complete Object Locator'
	DD	00H
	DD	00H
	DD	FLAT:??_R0?AVbad_alloc@std@@@8
	DD	FLAT:??_R3bad_alloc@std@@8
rdata$r	ENDS
;	COMDAT ??_7bad_alloc@std@@6B@
CONST	SEGMENT
??_7bad_alloc@std@@6B@ DD FLAT:??_R4bad_alloc@std@@6B@	; std::bad_alloc::`vftable'
	DD	FLAT:??_Ebad_alloc@std@@UAEPAXI@Z
	DD	FLAT:?what@exception@std@@UBEPBDXZ
; Function compile flags: /Ogsp
CONST	ENDS
;	COMDAT ??0bad_alloc@std@@QAE@PBD@Z
_TEXT	SEGMENT
__Message$ = 8						; size = 4
??0bad_alloc@std@@QAE@PBD@Z PROC			; std::bad_alloc::bad_alloc, COMDAT
; _this$ = ecx

; 345  : 		{	// construct from message string

  00000	55		 push	 ebp
  00001	8b ec		 mov	 ebp, esp
  00003	56		 push	 esi
  00004	8d 45 08	 lea	 eax, DWORD PTR __Message$[ebp]
  00007	50		 push	 eax
  00008	8b f1		 mov	 esi, ecx
  0000a	ff 15 00 00 00
	00		 call	 DWORD PTR __imp_??0exception@std@@QAE@ABQBD@Z
  00010	c7 06 00 00 00
	00		 mov	 DWORD PTR [esi], OFFSET ??_7bad_alloc@std@@6B@

; 346  : 		}

  00016	8b c6		 mov	 eax, esi
  00018	5e		 pop	 esi
  00019	5d		 pop	 ebp
  0001a	c2 04 00	 ret	 4
??0bad_alloc@std@@QAE@PBD@Z ENDP			; std::bad_alloc::bad_alloc
_TEXT	ENDS
PUBLIC	??1bad_alloc@std@@UAE@XZ			; std::bad_alloc::~bad_alloc
EXTRN	__imp_??1exception@std@@UAE@XZ:PROC
; Function compile flags: /Ogsp
;	COMDAT ??1bad_alloc@std@@UAE@XZ
_TEXT	SEGMENT
??1bad_alloc@std@@UAE@XZ PROC				; std::bad_alloc::~bad_alloc, COMDAT
; _this$ = ecx

; 354  : 		{	// destroy the object

  00000	c7 01 00 00 00
	00		 mov	 DWORD PTR [ecx], OFFSET ??_7bad_alloc@std@@6B@

; 355  : 		}

  00006	ff 25 00 00 00
	00		 jmp	 DWORD PTR __imp_??1exception@std@@UAE@XZ
??1bad_alloc@std@@UAE@XZ ENDP				; std::bad_alloc::~bad_alloc
_TEXT	ENDS
EXTRN	??3@YAXPAX@Z:PROC				; operator delete
; Function compile flags: /Ogsp
;	COMDAT ??_Gbad_alloc@std@@UAEPAXI@Z
_TEXT	SEGMENT
___flags$ = 8						; size = 4
??_Gbad_alloc@std@@UAEPAXI@Z PROC			; std::bad_alloc::`scalar deleting destructor', COMDAT
; _this$ = ecx
  00000	55		 push	 ebp
  00001	8b ec		 mov	 ebp, esp
  00003	56		 push	 esi
  00004	8b f1		 mov	 esi, ecx
  00006	c7 06 00 00 00
	00		 mov	 DWORD PTR [esi], OFFSET ??_7bad_alloc@std@@6B@
  0000c	ff 15 00 00 00
	00		 call	 DWORD PTR __imp_??1exception@std@@UAE@XZ
  00012	f6 45 08 01	 test	 BYTE PTR ___flags$[ebp], 1
  00016	74 07		 je	 SHORT $LN1@scalar
  00018	56		 push	 esi
  00019	e8 00 00 00 00	 call	 ??3@YAXPAX@Z		; operator delete
  0001e	59		 pop	 ecx
$LN1@scalar:
  0001f	8b c6		 mov	 eax, esi
  00021	5e		 pop	 esi
  00022	5d		 pop	 ebp
  00023	c2 04 00	 ret	 4
??_Gbad_alloc@std@@UAEPAXI@Z ENDP			; std::bad_alloc::`scalar deleting destructor'
_TEXT	ENDS
PUBLIC	??2@YAPAXIPAX@Z					; operator new
; Function compile flags: /Ogsp
; File c:\program files (x86)\microsoft visual studio 10.0\vc\include\new
;	COMDAT ??2@YAPAXIPAX@Z
_TEXT	SEGMENT
___formal$ = 8						; size = 4
__Where$ = 12						; size = 4
??2@YAPAXIPAX@Z PROC					; operator new, COMDAT

; 56   : 	{	// construct array with placement at _Where

  00000	55		 push	 ebp
  00001	8b ec		 mov	 ebp, esp

; 57   : 	return (_Where);

  00003	8b 45 0c	 mov	 eax, DWORD PTR __Where$[ebp]

; 58   : 	}

  00006	5d		 pop	 ebp
  00007	c3		 ret	 0
??2@YAPAXIPAX@Z ENDP					; operator new
_TEXT	ENDS
PUBLIC	??3@YAXPAX0@Z					; operator delete
; Function compile flags: /Ogsp
;	COMDAT ??3@YAXPAX0@Z
_TEXT	SEGMENT
___formal$ = 8						; size = 4
___formal$ = 12						; size = 4
??3@YAXPAX0@Z PROC					; operator delete, COMDAT

; 62   : 	}

  00000	c3		 ret	 0
??3@YAXPAX0@Z ENDP					; operator delete
_TEXT	ENDS
PUBLIC	?_Adopt@_Iterator_base0@std@@QAEXPBX@Z		; std::_Iterator_base0::_Adopt
; Function compile flags: /Ogsp
; File c:\program files (x86)\microsoft visual studio 10.0\vc\include\xutility
;	COMDAT ?_Adopt@_Iterator_base0@std@@QAEXPBX@Z
_TEXT	SEGMENT
___formal$ = 8						; size = 4
?_Adopt@_Iterator_base0@std@@QAEXPBX@Z PROC		; std::_Iterator_base0::_Adopt, COMDAT
; _this$ = ecx

; 49   : 		}

  00000	c2 04 00	 ret	 4
?_Adopt@_Iterator_base0@std@@QAEXPBX@Z ENDP		; std::_Iterator_base0::_Adopt
_TEXT	ENDS
PUBLIC	?ApplyDummyCharSync@ioDummyStruct@@UAEXPAVioPlayStage@@AAVSP2Packet@@@Z ; ioDummyStruct::ApplyDummyCharSync
EXTRN	??5SP2Packet@@QAEAAV0@AAH@Z:PROC		; SP2Packet::operator>>
; Function compile flags: /Ogsp
; File d:\lost saga for developer\youtube\tutorial\source\src\lsclient\iodummystruct.cpp
;	COMDAT ?ApplyDummyCharSync@ioDummyStruct@@UAEXPAVioPlayStage@@AAVSP2Packet@@@Z
_TEXT	SEGMENT
_iType$ = 8						; size = 4
_pStage$ = 8						; size = 4
_rkPacket$ = 12						; size = 4
?ApplyDummyCharSync@ioDummyStruct@@UAEXPAVioPlayStage@@AAVSP2Packet@@@Z PROC ; ioDummyStruct::ApplyDummyCharSync, COMDAT
; _this$ = ecx

; 156  : {

  00000	55		 push	 ebp
  00001	8b ec		 mov	 ebp, esp

; 157  : 	if( !pStage ) 

  00003	83 7d 08 00	 cmp	 DWORD PTR _pStage$[ebp], 0
  00007	74 0c		 je	 SHORT $LN2@ApplyDummy

; 158  : 		return;	
; 159  : 	
; 160  : 	int iType;
; 161  : 	rkPacket >> iType;	

  00009	8b 4d 0c	 mov	 ecx, DWORD PTR _rkPacket$[ebp]
  0000c	8d 45 08	 lea	 eax, DWORD PTR _iType$[ebp]
  0000f	50		 push	 eax
  00010	e8 00 00 00 00	 call	 ??5SP2Packet@@QAEAAV0@AAH@Z ; SP2Packet::operator>>
$LN2@ApplyDummy:

; 162  : }

  00015	5d		 pop	 ebp
  00016	c2 08 00	 ret	 8
?ApplyDummyCharSync@ioDummyStruct@@UAEXPAVioPlayStage@@AAVSP2Packet@@@Z ENDP ; ioDummyStruct::ApplyDummyCharSync
_TEXT	ENDS
PUBLIC	?TranslateByConveyer@ioDummyStruct@@UAEXABUD3DXVECTOR3@@@Z ; ioDummyStruct::TranslateByConveyer
; Function compile flags: /Ogsp
;	COMDAT ?TranslateByConveyer@ioDummyStruct@@UAEXABUD3DXVECTOR3@@@Z
_TEXT	SEGMENT
_vMove$ = 8						; size = 4
?TranslateByConveyer@ioDummyStruct@@UAEXABUD3DXVECTOR3@@@Z PROC ; ioDummyStruct::TranslateByConveyer, COMDAT
; _this$ = ecx

; 166  : }

  00000	c2 04 00	 ret	 4
?TranslateByConveyer@ioDummyStruct@@UAEXABUD3DXVECTOR3@@@Z ENDP ; ioDummyStruct::TranslateByConveyer
_TEXT	ENDS
PUBLIC	?DontMoveEntityLevel@ioDummyStruct@@UBEHXZ	; ioDummyStruct::DontMoveEntityLevel
; Function compile flags: /Ogsp
;	COMDAT ?DontMoveEntityLevel@ioDummyStruct@@UBEHXZ
_TEXT	SEGMENT
?DontMoveEntityLevel@ioDummyStruct@@UBEHXZ PROC		; ioDummyStruct::DontMoveEntityLevel, COMDAT
; _this$ = ecx

; 170  : 	return 2;

  00000	6a 02		 push	 2
  00002	58		 pop	 eax

; 171  : }

  00003	c3		 ret	 0
?DontMoveEntityLevel@ioDummyStruct@@UBEHXZ ENDP		; ioDummyStruct::DontMoveEntityLevel
_TEXT	ENDS
PUBLIC	?IsActivateWeapon@ioDummyStruct@@UAE_NXZ	; ioDummyStruct::IsActivateWeapon
; Function compile flags: /Ogsp
;	COMDAT ?IsActivateWeapon@ioDummyStruct@@UAE_NXZ
_TEXT	SEGMENT
?IsActivateWeapon@ioDummyStruct@@UAE_NXZ PROC		; ioDummyStruct::IsActivateWeapon, COMDAT
; _this$ = ecx

; 183  : 	return true;

  00000	b0 01		 mov	 al, 1

; 184  : }

  00002	c3		 ret	 0
?IsActivateWeapon@ioDummyStruct@@UAE_NXZ ENDP		; ioDummyStruct::IsActivateWeapon
_TEXT	ENDS
PUBLIC	?IsAllWeaponDefence@ioDummyStruct@@UBE_NXZ	; ioDummyStruct::IsAllWeaponDefence
; Function compile flags: /Ogsp
;	COMDAT ?IsAllWeaponDefence@ioDummyStruct@@UBE_NXZ
_TEXT	SEGMENT
?IsAllWeaponDefence@ioDummyStruct@@UBE_NXZ PROC		; ioDummyStruct::IsAllWeaponDefence, COMDAT
; _this$ = ecx

; 245  : 	return m_bSetAllWeaponDefence;

  00000	8a 81 94 14 00
	00		 mov	 al, BYTE PTR [ecx+5268]

; 246  : }

  00006	c3		 ret	 0
?IsAllWeaponDefence@ioDummyStruct@@UBE_NXZ ENDP		; ioDummyStruct::IsAllWeaponDefence
_TEXT	ENDS
PUBLIC	?IsDummyVsDummyCollisionSkipState@ioDummyStruct@@UAE_NPBVioDummyChar@@@Z ; ioDummyStruct::IsDummyVsDummyCollisionSkipState
EXTRN	?IsDummyVsDummyCollisionSkipState@ioDummyChar@@UAE_NPBV1@@Z:PROC ; ioDummyChar::IsDummyVsDummyCollisionSkipState
; Function compile flags: /Ogsp
;	COMDAT ?IsDummyVsDummyCollisionSkipState@ioDummyStruct@@UAE_NPBVioDummyChar@@@Z
_TEXT	SEGMENT
_pDummy$ = 8						; size = 4
?IsDummyVsDummyCollisionSkipState@ioDummyStruct@@UAE_NPBVioDummyChar@@@Z PROC ; ioDummyStruct::IsDummyVsDummyCollisionSkipState, COMDAT
; _this$ = ecx

; 260  : {

  00000	55		 push	 ebp
  00001	8b ec		 mov	 ebp, esp

; 261  : 	if( pDummy )

  00003	83 7d 08 00	 cmp	 DWORD PTR _pDummy$[ebp], 0
  00007	74 04		 je	 SHORT $LN1@IsDummyVsD

; 262  : 		return true;

  00009	b0 01		 mov	 al, 1
  0000b	eb 07		 jmp	 SHORT $LN2@IsDummyVsD
$LN1@IsDummyVsD:

; 263  : 
; 264  : 	return ioDummyChar::IsDummyVsDummyCollisionSkipState( pDummy );

  0000d	6a 00		 push	 0
  0000f	e8 00 00 00 00	 call	 ?IsDummyVsDummyCollisionSkipState@ioDummyChar@@UAE_NPBV1@@Z ; ioDummyChar::IsDummyVsDummyCollisionSkipState
$LN2@IsDummyVsD:

; 265  : }

  00014	5d		 pop	 ebp
  00015	c2 04 00	 ret	 4
?IsDummyVsDummyCollisionSkipState@ioDummyStruct@@UAE_NPBVioDummyChar@@@Z ENDP ; ioDummyStruct::IsDummyVsDummyCollisionSkipState
_TEXT	ENDS
PUBLIC	??A?$vector@VioHashString@@V?$allocator@VioHashString@@@std@@@std@@QAEAAVioHashString@@I@Z ; std::vector<ioHashString,std::allocator<ioHashString> >::operator[]
; Function compile flags: /Ogsp
; File c:\program files (x86)\microsoft visual studio 10.0\vc\include\vector
;	COMDAT ??A?$vector@VioHashString@@V?$allocator@VioHashString@@@std@@@std@@QAEAAVioHashString@@I@Z
_TEXT	SEGMENT
__Pos$ = 8						; size = 4
??A?$vector@VioHashString@@V?$allocator@VioHashString@@@std@@@std@@QAEAAVioHashString@@I@Z PROC ; std::vector<ioHashString,std::allocator<ioHashString> >::operator[], COMDAT
; _this$ = ecx

; 928  : 		{	// subscript mutable sequence

  00000	55		 push	 ebp
  00001	8b ec		 mov	 ebp, esp

; 929  :  #if _ITERATOR_DEBUG_LEVEL == 2
; 930  : 		if (size() <= _Pos)
; 931  : 			{	// report error
; 932  : 			_DEBUG_ERROR("vector subscript out of range");
; 933  : 			_SCL_SECURE_OUT_OF_RANGE;
; 934  : 			}
; 935  : 
; 936  :  #elif _ITERATOR_DEBUG_LEVEL == 1
; 937  : 		_SCL_SECURE_VALIDATE_RANGE(_Pos < size());
; 938  :  #endif /* _ITERATOR_DEBUG_LEVEL */
; 939  : 
; 940  : 		return (*(this->_Myfirst + _Pos));

  00003	8b 45 08	 mov	 eax, DWORD PTR __Pos$[ebp]
  00006	c1 e0 04	 shl	 eax, 4
  00009	03 01		 add	 eax, DWORD PTR [ecx]

; 941  : 		}

  0000b	5d		 pop	 ebp
  0000c	c2 04 00	 ret	 4
??A?$vector@VioHashString@@V?$allocator@VioHashString@@@std@@@std@@QAEAAVioHashString@@I@Z ENDP ; std::vector<ioHashString,std::allocator<ioHashString> >::operator[]
_TEXT	ENDS
PUBLIC	?capacity@?$vector@VioHashString@@V?$allocator@VioHashString@@@std@@@std@@QBEIXZ ; std::vector<ioHashString,std::allocator<ioHashString> >::capacity
; Function compile flags: /Ogsp
;	COMDAT ?capacity@?$vector@VioHashString@@V?$allocator@VioHashString@@@std@@@std@@QBEIXZ
_TEXT	SEGMENT
?capacity@?$vector@VioHashString@@V?$allocator@VioHashString@@@std@@@std@@QBEIXZ PROC ; std::vector<ioHashString,std::allocator<ioHashString> >::capacity, COMDAT
; _this$ = ecx

; 777  : 		return (this->_Myend - this->_Myfirst);

  00000	8b 41 08	 mov	 eax, DWORD PTR [ecx+8]
  00003	2b 01		 sub	 eax, DWORD PTR [ecx]
  00005	c1 f8 04	 sar	 eax, 4

; 778  : 		}

  00008	c3		 ret	 0
?capacity@?$vector@VioHashString@@V?$allocator@VioHashString@@@std@@@std@@QBEIXZ ENDP ; std::vector<ioHashString,std::allocator<ioHashString> >::capacity
_TEXT	ENDS
PUBLIC	?_Inside@?$vector@VioHashString@@V?$allocator@VioHashString@@@std@@@std@@IBE_NPBVioHashString@@@Z ; std::vector<ioHashString,std::allocator<ioHashString> >::_Inside
; Function compile flags: /Ogsp
;	COMDAT ?_Inside@?$vector@VioHashString@@V?$allocator@VioHashString@@@std@@@std@@IBE_NPBVioHashString@@@Z
_TEXT	SEGMENT
__Ptr$ = 8						; size = 4
?_Inside@?$vector@VioHashString@@V?$allocator@VioHashString@@@std@@@std@@IBE_NPBVioHashString@@@Z PROC ; std::vector<ioHashString,std::allocator<ioHashString> >::_Inside, COMDAT
; _this$ = ecx

; 1285 : 		{	// test if _Ptr points inside vector

  00000	55		 push	 ebp
  00001	8b ec		 mov	 ebp, esp

; 1286 : 		return (_Ptr < this->_Mylast && this->_Myfirst <= _Ptr);

  00003	8b 45 08	 mov	 eax, DWORD PTR __Ptr$[ebp]
  00006	3b 41 04	 cmp	 eax, DWORD PTR [ecx+4]
  00009	73 09		 jae	 SHORT $LN3@Inside
  0000b	39 01		 cmp	 DWORD PTR [ecx], eax
  0000d	77 05		 ja	 SHORT $LN3@Inside
  0000f	33 c0		 xor	 eax, eax
  00011	40		 inc	 eax
  00012	eb 02		 jmp	 SHORT $LN4@Inside
$LN3@Inside:
  00014	33 c0		 xor	 eax, eax
$LN4@Inside:

; 1287 : 		}

  00016	5d		 pop	 ebp
  00017	c2 04 00	 ret	 4
?_Inside@?$vector@VioHashString@@V?$allocator@VioHashString@@@std@@@std@@IBE_NPBVioHashString@@@Z ENDP ; std::vector<ioHashString,std::allocator<ioHashString> >::_Inside
_TEXT	ENDS
PUBLIC	?_Orphan_range@?$vector@VioHashString@@V?$allocator@VioHashString@@@std@@@std@@IBEXPAVioHashString@@0@Z ; std::vector<ioHashString,std::allocator<ioHashString> >::_Orphan_range
; Function compile flags: /Ogsp
;	COMDAT ?_Orphan_range@?$vector@VioHashString@@V?$allocator@VioHashString@@@std@@@std@@IBEXPAVioHashString@@0@Z
_TEXT	SEGMENT
___formal$ = 8						; size = 4
___formal$ = 12						; size = 4
?_Orphan_range@?$vector@VioHashString@@V?$allocator@VioHashString@@@std@@@std@@IBEXPAVioHashString@@0@Z PROC ; std::vector<ioHashString,std::allocator<ioHashString> >::_Orphan_range, COMDAT
; _this$ = ecx

; 1454 : 		}

  00000	c2 08 00	 ret	 8
?_Orphan_range@?$vector@VioHashString@@V?$allocator@VioHashString@@@std@@@std@@IBEXPAVioHashString@@0@Z ENDP ; std::vector<ioHashString,std::allocator<ioHashString> >::_Orphan_range
_TEXT	ENDS
PUBLIC	??$addressof@$$CBVioHashString@@@std@@YAPBVioHashString@@ABV1@@Z ; std::addressof<ioHashString const >
; Function compile flags: /Ogsp
; File c:\program files (x86)\microsoft visual studio 10.0\vc\include\xmemory
;	COMDAT ??$addressof@$$CBVioHashString@@@std@@YAPBVioHashString@@ABV1@@Z
_TEXT	SEGMENT
__Val$ = 8						; size = 4
??$addressof@$$CBVioHashString@@@std@@YAPBVioHashString@@ABV1@@Z PROC ; std::addressof<ioHashString const >, COMDAT

; 110  : 	{	// return address of _Val

  00000	55		 push	 ebp
  00001	8b ec		 mov	 ebp, esp

; 111  : 	return ((_Ty *) &(char&)_Val);

  00003	8b 45 08	 mov	 eax, DWORD PTR __Val$[ebp]

; 112  : 	}

  00006	5d		 pop	 ebp
  00007	c3		 ret	 0
??$addressof@$$CBVioHashString@@@std@@YAPBVioHashString@@ABV1@@Z ENDP ; std::addressof<ioHashString const >
_TEXT	ENDS
PUBLIC	??$_Val_type@PAVioHashString@@@std@@YAPAVioHashString@@PAV1@@Z ; std::_Val_type<ioHashString *>
; Function compile flags: /Ogsp
; File c:\program files (x86)\microsoft visual studio 10.0\vc\include\xutility
;	COMDAT ??$_Val_type@PAVioHashString@@@std@@YAPAVioHashString@@PAV1@@Z
_TEXT	SEGMENT
___formal$ = 8						; size = 4
??$_Val_type@PAVioHashString@@@std@@YAPAVioHashString@@PAV1@@Z PROC ; std::_Val_type<ioHashString *>, COMDAT

; 790  : 	return (0);

  00000	33 c0		 xor	 eax, eax

; 791  : 	}

  00002	c3		 ret	 0
??$_Val_type@PAVioHashString@@@std@@YAPAVioHashString@@PAV1@@Z ENDP ; std::_Val_type<ioHashString *>
_TEXT	ENDS
PUBLIC	??$forward@VioHashString@@@std@@YA$$QAVioHashString@@AAV1@@Z ; std::forward<ioHashString>
; Function compile flags: /Ogsp
; File c:\program files (x86)\microsoft visual studio 10.0\vc\include\utility
;	COMDAT ??$forward@VioHashString@@@std@@YA$$QAVioHashString@@AAV1@@Z
_TEXT	SEGMENT
__Arg$ = 8						; size = 4
??$forward@VioHashString@@@std@@YA$$QAVioHashString@@AAV1@@Z PROC ; std::forward<ioHashString>, COMDAT

; 78   : 	{	// forward _Arg, given explicitly specified type parameter

  00000	55		 push	 ebp
  00001	8b ec		 mov	 ebp, esp

; 79   : 	return ((_Ty&&)_Arg);

  00003	8b 45 08	 mov	 eax, DWORD PTR __Arg$[ebp]

; 80   : 	}

  00006	5d		 pop	 ebp
  00007	c3		 ret	 0
??$forward@VioHashString@@@std@@YA$$QAVioHashString@@AAV1@@Z ENDP ; std::forward<ioHashString>
_TEXT	ENDS
PUBLIC	??0D3DXVECTOR3@@QAE@MMM@Z			; D3DXVECTOR3::D3DXVECTOR3
EXTRN	__fltused:DWORD
; Function compile flags: /Ogsp
; File c:\program files (x86)\microsoft directx sdk (june 2010)\include\d3dx9math.inl
;	COMDAT ??0D3DXVECTOR3@@QAE@MMM@Z
_TEXT	SEGMENT
_fx$ = 8						; size = 4
_fy$ = 12						; size = 4
_fz$ = 16						; size = 4
??0D3DXVECTOR3@@QAE@MMM@Z PROC				; D3DXVECTOR3::D3DXVECTOR3, COMDAT
; _this$ = ecx

; 303  : {

  00000	55		 push	 ebp
  00001	8b ec		 mov	 ebp, esp

; 304  :     x = fx;

  00003	f3 0f 10 45 08	 movss	 xmm0, DWORD PTR _fx$[ebp]
  00008	8b c1		 mov	 eax, ecx
  0000a	f3 0f 11 00	 movss	 DWORD PTR [eax], xmm0

; 305  :     y = fy;

  0000e	f3 0f 10 45 0c	 movss	 xmm0, DWORD PTR _fy$[ebp]
  00013	f3 0f 11 40 04	 movss	 DWORD PTR [eax+4], xmm0

; 306  :     z = fz;

  00018	f3 0f 10 45 10	 movss	 xmm0, DWORD PTR _fz$[ebp]
  0001d	f3 0f 11 40 08	 movss	 DWORD PTR [eax+8], xmm0

; 307  : }

  00022	5d		 pop	 ebp
  00023	c2 0c 00	 ret	 12			; 0000000cH
??0D3DXVECTOR3@@QAE@MMM@Z ENDP				; D3DXVECTOR3::D3DXVECTOR3
_TEXT	ENDS
PUBLIC	??GD3DXVECTOR3@@QBE?AU0@ABU0@@Z			; D3DXVECTOR3::operator-
; Function compile flags: /Ogsp
;	COMDAT ??GD3DXVECTOR3@@QBE?AU0@ABU0@@Z
_TEXT	SEGMENT
___$ReturnUdt$ = 8					; size = 4
_v$ = 12						; size = 4
??GD3DXVECTOR3@@QBE?AU0@ABU0@@Z PROC			; D3DXVECTOR3::operator-, COMDAT
; _this$ = ecx

; 386  : {

  00000	55		 push	 ebp
  00001	8b ec		 mov	 ebp, esp

; 387  :     return D3DXVECTOR3(x - v.x, y - v.y, z - v.z);

  00003	8b 55 0c	 mov	 edx, DWORD PTR _v$[ebp]
  00006	f3 0f 10 01	 movss	 xmm0, DWORD PTR [ecx]
  0000a	f3 0f 10 0a	 movss	 xmm1, DWORD PTR [edx]
  0000e	8b 45 08	 mov	 eax, DWORD PTR ___$ReturnUdt$[ebp]
  00011	0f 5a c0	 cvtps2pd xmm0, xmm0
  00014	0f 5a c9	 cvtps2pd xmm1, xmm1
  00017	f2 0f 5c c1	 subsd	 xmm0, xmm1
  0001b	f3 0f 10 4a 04	 movss	 xmm1, DWORD PTR [edx+4]
  00020	66 0f 5a c0	 cvtpd2ps xmm0, xmm0
  00024	f3 0f 11 00	 movss	 DWORD PTR [eax], xmm0
  00028	f3 0f 10 41 04	 movss	 xmm0, DWORD PTR [ecx+4]
  0002d	0f 5a c0	 cvtps2pd xmm0, xmm0
  00030	0f 5a c9	 cvtps2pd xmm1, xmm1
  00033	f2 0f 5c c1	 subsd	 xmm0, xmm1
  00037	f3 0f 10 4a 08	 movss	 xmm1, DWORD PTR [edx+8]
  0003c	66 0f 5a c0	 cvtpd2ps xmm0, xmm0
  00040	f3 0f 11 40 04	 movss	 DWORD PTR [eax+4], xmm0
  00045	f3 0f 10 41 08	 movss	 xmm0, DWORD PTR [ecx+8]
  0004a	0f 5a c0	 cvtps2pd xmm0, xmm0
  0004d	0f 5a c9	 cvtps2pd xmm1, xmm1
  00050	f2 0f 5c c1	 subsd	 xmm0, xmm1
  00054	66 0f 5a c0	 cvtpd2ps xmm0, xmm0
  00058	f3 0f 11 40 08	 movss	 DWORD PTR [eax+8], xmm0

; 388  : }

  0005d	5d		 pop	 ebp
  0005e	c2 08 00	 ret	 8
??GD3DXVECTOR3@@QBE?AU0@ABU0@@Z ENDP			; D3DXVECTOR3::operator-
_TEXT	ENDS
PUBLIC	?D3DXVec3LengthSq@@YAMPBUD3DXVECTOR3@@@Z	; D3DXVec3LengthSq
; Function compile flags: /Ogsp
;	COMDAT ?D3DXVec3LengthSq@@YAMPBUD3DXVECTOR3@@@Z
_TEXT	SEGMENT
tv165 = 8						; size = 4
_pV$ = 8						; size = 4
?D3DXVec3LengthSq@@YAMPBUD3DXVECTOR3@@@Z PROC		; D3DXVec3LengthSq, COMDAT

; 1725 : {

  00000	55		 push	 ebp
  00001	8b ec		 mov	 ebp, esp

; 1726 : #ifdef D3DX_DEBUG
; 1727 :     if(!pV)
; 1728 :         return 0.0f;
; 1729 : #endif
; 1730 : 
; 1731 :     return pV->x * pV->x + pV->y * pV->y + pV->z * pV->z;

  00003	8b 45 08	 mov	 eax, DWORD PTR _pV$[ebp]
  00006	d9 40 04	 fld	 DWORD PTR [eax+4]
  00009	d9 00		 fld	 DWORD PTR [eax]
  0000b	d9 40 08	 fld	 DWORD PTR [eax+8]
  0000e	d9 c1		 fld	 ST(1)
  00010	de ca		 fmulp	 ST(2), ST(0)
  00012	d9 c2		 fld	 ST(2)
  00014	de cb		 fmulp	 ST(3), ST(0)
  00016	d9 c9		 fxch	 ST(1)
  00018	de c2		 faddp	 ST(2), ST(0)
  0001a	d9 c0		 fld	 ST(0)
  0001c	de c9		 fmulp	 ST(1), ST(0)
  0001e	de c1		 faddp	 ST(1), ST(0)
  00020	d9 5d 08	 fstp	 DWORD PTR tv165[ebp]
  00023	d9 45 08	 fld	 DWORD PTR tv165[ebp]

; 1732 : }

  00026	5d		 pop	 ebp
  00027	c3		 ret	 0
?D3DXVec3LengthSq@@YAMPBUD3DXVECTOR3@@@Z ENDP		; D3DXVec3LengthSq
_TEXT	ENDS
PUBLIC	?_DECSTR@@YAXPADH@Z				; _DECSTR
; Function compile flags: /Ogsp
; File d:\lost saga for developer\youtube\tutorial\source\src\lsclient\stringprotect.h
;	COMDAT ?_DECSTR@@YAXPADH@Z
_TEXT	SEGMENT
_s$ = 8							; size = 4
_l$ = 12						; size = 4
?_DECSTR@@YAXPADH@Z PROC				; _DECSTR, COMDAT

; 40   : __forceinline void _DECSTR(char* s, int l){int i=0,l4=(l-1)/4,*p=(int*)s;s[l-1]=0;for(;i<l4;++i)*(p++)^=0xEAEBECED;for(i=l4*4;i<l-1;++i)s[i]^=0xED-i%4;}

  00000	55		 push	 ebp
  00001	8b ec		 mov	 ebp, esp
  00003	8b 4d 0c	 mov	 ecx, DWORD PTR _l$[ebp]
  00006	56		 push	 esi
  00007	8b 75 08	 mov	 esi, DWORD PTR _s$[ebp]
  0000a	57		 push	 edi
  0000b	8d 79 ff	 lea	 edi, DWORD PTR [ecx-1]
  0000e	8b c7		 mov	 eax, edi
  00010	99		 cdq
  00011	83 e2 03	 and	 edx, 3
  00014	03 c2		 add	 eax, edx
  00016	c1 f8 02	 sar	 eax, 2
  00019	8b d6		 mov	 edx, esi
  0001b	c6 44 0e ff 00	 mov	 BYTE PTR [esi+ecx-1], 0
  00020	85 c0		 test	 eax, eax
  00022	7e 0e		 jle	 SHORT $LN4@DECSTR
  00024	8b c8		 mov	 ecx, eax
$LL6@DECSTR:
  00026	81 32 ed ec eb
	ea		 xor	 DWORD PTR [edx], -353637139 ; eaebecedH
  0002c	83 c2 04	 add	 edx, 4
  0002f	49		 dec	 ecx
  00030	75 f4		 jne	 SHORT $LL6@DECSTR
$LN4@DECSTR:
  00032	c1 e0 02	 shl	 eax, 2
  00035	eb 17		 jmp	 SHORT $LN14@DECSTR
$LL3@DECSTR:
  00037	8b c8		 mov	 ecx, eax
  00039	81 e1 03 00 00
	80		 and	 ecx, -2147483645	; 80000003H
  0003f	79 05		 jns	 SHORT $LN13@DECSTR
  00041	49		 dec	 ecx
  00042	83 c9 fc	 or	 ecx, -4			; fffffffcH
  00045	41		 inc	 ecx
$LN13@DECSTR:
  00046	b2 ed		 mov	 dl, -19			; ffffffedH
  00048	2a d1		 sub	 dl, cl
  0004a	30 14 30	 xor	 BYTE PTR [eax+esi], dl
  0004d	40		 inc	 eax
$LN14@DECSTR:
  0004e	3b c7		 cmp	 eax, edi
  00050	7c e5		 jl	 SHORT $LL3@DECSTR
  00052	5f		 pop	 edi
  00053	5e		 pop	 esi
  00054	5d		 pop	 ebp
  00055	c3		 ret	 0
?_DECSTR@@YAXPADH@Z ENDP				; _DECSTR
_TEXT	ENDS
PUBLIC	?CheckWeaponBySkill@ioWeapon@@QBE_NXZ		; ioWeapon::CheckWeaponBySkill
; Function compile flags: /Ogsp
; File d:\lost saga for developer\youtube\tutorial\source\src\lsclient\ioweapon.h
;	COMDAT ?CheckWeaponBySkill@ioWeapon@@QBE_NXZ
_TEXT	SEGMENT
?CheckWeaponBySkill@ioWeapon@@QBE_NXZ PROC		; ioWeapon::CheckWeaponBySkill, COMDAT
; _this$ = ecx

; 484  : 	inline bool CheckWeaponBySkill() const { return m_bUseSkill; }

  00000	8a 81 7e 05 00
	00		 mov	 al, BYTE PTR [ecx+1406]
  00006	c3		 ret	 0
?CheckWeaponBySkill@ioWeapon@@QBE_NXZ ENDP		; ioWeapon::CheckWeaponBySkill
_TEXT	ENDS
PUBLIC	?CheckWeaponByStruct@ioWeapon@@QBE_NXZ		; ioWeapon::CheckWeaponByStruct
; Function compile flags: /Ogsp
;	COMDAT ?CheckWeaponByStruct@ioWeapon@@QBE_NXZ
_TEXT	SEGMENT
?CheckWeaponByStruct@ioWeapon@@QBE_NXZ PROC		; ioWeapon::CheckWeaponByStruct, COMDAT
; _this$ = ecx

; 488  : 	inline bool CheckWeaponByStruct() const { return m_bStructWeapon; }

  00000	8a 81 8c 05 00
	00		 mov	 al, BYTE PTR [ecx+1420]
  00006	c3		 ret	 0
?CheckWeaponByStruct@ioWeapon@@QBE_NXZ ENDP		; ioWeapon::CheckWeaponByStruct
_TEXT	ENDS
PUBLIC	?CheckWeaponByDummyChar@ioWeapon@@QBE_NXZ	; ioWeapon::CheckWeaponByDummyChar
; Function compile flags: /Ogsp
;	COMDAT ?CheckWeaponByDummyChar@ioWeapon@@QBE_NXZ
_TEXT	SEGMENT
?CheckWeaponByDummyChar@ioWeapon@@QBE_NXZ PROC		; ioWeapon::CheckWeaponByDummyChar, COMDAT
; _this$ = ecx

; 489  : 	inline bool CheckWeaponByDummyChar() const { return m_bDummyCharWeapon; }

  00000	8a 81 9c 05 00
	00		 mov	 al, BYTE PTR [ecx+1436]
  00006	c3		 ret	 0
?CheckWeaponByDummyChar@ioWeapon@@QBE_NXZ ENDP		; ioWeapon::CheckWeaponByDummyChar
_TEXT	ENDS
PUBLIC	?GetOwnerName@ioWeapon@@QBEABVioHashString@@XZ	; ioWeapon::GetOwnerName
; Function compile flags: /Ogsp
;	COMDAT ?GetOwnerName@ioWeapon@@QBEABVioHashString@@XZ
_TEXT	SEGMENT
?GetOwnerName@ioWeapon@@QBEABVioHashString@@XZ PROC	; ioWeapon::GetOwnerName, COMDAT
; _this$ = ecx

; 636  : 	inline const ioHashString& GetOwnerName() const { return m_OwnerName; }

  00000	8d 41 10	 lea	 eax, DWORD PTR [ecx+16]
  00003	c3		 ret	 0
?GetOwnerName@ioWeapon@@QBEABVioHashString@@XZ ENDP	; ioWeapon::GetOwnerName
_TEXT	ENDS
PUBLIC	?GetWeaponByDummyChar@ioWeapon@@QAE?BHXZ	; ioWeapon::GetWeaponByDummyChar
; Function compile flags: /Ogsp
;	COMDAT ?GetWeaponByDummyChar@ioWeapon@@QAE?BHXZ
_TEXT	SEGMENT
?GetWeaponByDummyChar@ioWeapon@@QAE?BHXZ PROC		; ioWeapon::GetWeaponByDummyChar, COMDAT
; _this$ = ecx

; 638  : 	inline const int GetWeaponByDummyChar() { return m_iDummyIndex; }

  00000	8b 81 98 05 00
	00		 mov	 eax, DWORD PTR [ecx+1432]
  00006	c3		 ret	 0
?GetWeaponByDummyChar@ioWeapon@@QAE?BHXZ ENDP		; ioWeapon::GetWeaponByDummyChar
_TEXT	ENDS
PUBLIC	?GetCreator@ioPlayMode@@QBEPAVioPlayStage@@XZ	; ioPlayMode::GetCreator
; Function compile flags: /Ogsp
; File d:\lost saga for developer\youtube\tutorial\source\src\lsclient\ioplaymode.h
;	COMDAT ?GetCreator@ioPlayMode@@QBEPAVioPlayStage@@XZ
_TEXT	SEGMENT
?GetCreator@ioPlayMode@@QBEPAVioPlayStage@@XZ PROC	; ioPlayMode::GetCreator, COMDAT
; _this$ = ecx

; 631  : 	inline ioPlayStage* GetCreator() const { return m_pCreator; }

  00000	8b 41 34	 mov	 eax, DWORD PTR [ecx+52]
  00003	c3		 ret	 0
?GetCreator@ioPlayMode@@QBEPAVioPlayStage@@XZ ENDP	; ioPlayMode::GetCreator
_TEXT	ENDS
PUBLIC	?size@?$vector@VioHashString@@V?$allocator@VioHashString@@@std@@@std@@QBEIXZ ; std::vector<ioHashString,std::allocator<ioHashString> >::size
; Function compile flags: /Ogsp
; File c:\program files (x86)\microsoft visual studio 10.0\vc\include\vector
;	COMDAT ?size@?$vector@VioHashString@@V?$allocator@VioHashString@@@std@@@std@@QBEIXZ
_TEXT	SEGMENT
?size@?$vector@VioHashString@@V?$allocator@VioHashString@@@std@@@std@@QBEIXZ PROC ; std::vector<ioHashString,std::allocator<ioHashString> >::size, COMDAT
; _this$ = ecx

; 879  : 		return (this->_Mylast - this->_Myfirst);

  00000	8b 41 04	 mov	 eax, DWORD PTR [ecx+4]
  00003	2b 01		 sub	 eax, DWORD PTR [ecx]
  00005	c1 f8 04	 sar	 eax, 4

; 880  : 		}

  00008	c3		 ret	 0
?size@?$vector@VioHashString@@V?$allocator@VioHashString@@@std@@@std@@QBEIXZ ENDP ; std::vector<ioHashString,std::allocator<ioHashString> >::size
_TEXT	ENDS
PUBLIC	??1?$_Vector_val@VioHashString@@V?$allocator@VioHashString@@@std@@@std@@QAE@XZ ; std::_Vector_val<ioHashString,std::allocator<ioHashString> >::~_Vector_val<ioHashString,std::allocator<ioHashString> >
; Function compile flags: /Ogsp
;	COMDAT ??1?$_Vector_val@VioHashString@@V?$allocator@VioHashString@@@std@@@std@@QAE@XZ
_TEXT	SEGMENT
??1?$_Vector_val@VioHashString@@V?$allocator@VioHashString@@@std@@@std@@QAE@XZ PROC ; std::_Vector_val<ioHashString,std::allocator<ioHashString> >::~_Vector_val<ioHashString,std::allocator<ioHashString> >, COMDAT
; _this$ = ecx

; 434  : 		}

  00000	c3		 ret	 0
??1?$_Vector_val@VioHashString@@V?$allocator@VioHashString@@@std@@@std@@QAE@XZ ENDP ; std::_Vector_val<ioHashString,std::allocator<ioHashString> >::~_Vector_val<ioHashString,std::allocator<ioHashString> >
_TEXT	ENDS
PUBLIC	??0?$allocator@VioHashString@@@std@@QAE@XZ	; std::allocator<ioHashString>::allocator<ioHashString>
; Function compile flags: /Ogsp
; File c:\program files (x86)\microsoft visual studio 10.0\vc\include\xmemory
;	COMDAT ??0?$allocator@VioHashString@@@std@@QAE@XZ
_TEXT	SEGMENT
??0?$allocator@VioHashString@@@std@@QAE@XZ PROC		; std::allocator<ioHashString>::allocator<ioHashString>, COMDAT
; _this$ = ecx

; 161  : 	_ALLOCATOR() _THROW0()

  00000	8b c1		 mov	 eax, ecx

; 162  : 		{	// construct default allocator (do nothing)
; 163  : 		}

  00002	c3		 ret	 0
??0?$allocator@VioHashString@@@std@@QAE@XZ ENDP		; std::allocator<ioHashString>::allocator<ioHashString>
_TEXT	ENDS
PUBLIC	??0?$allocator@VioHashString@@@std@@QAE@ABV01@@Z ; std::allocator<ioHashString>::allocator<ioHashString>
; Function compile flags: /Ogsp
;	COMDAT ??0?$allocator@VioHashString@@@std@@QAE@ABV01@@Z
_TEXT	SEGMENT
___formal$ = 8						; size = 4
??0?$allocator@VioHashString@@@std@@QAE@ABV01@@Z PROC	; std::allocator<ioHashString>::allocator<ioHashString>, COMDAT
; _this$ = ecx

; 165  : 	_ALLOCATOR(const _ALLOCATOR<_Ty>&) _THROW0()

  00000	8b c1		 mov	 eax, ecx

; 166  : 		{	// construct by copying (do nothing)
; 167  : 		}

  00002	c2 04 00	 ret	 4
??0?$allocator@VioHashString@@@std@@QAE@ABV01@@Z ENDP	; std::allocator<ioHashString>::allocator<ioHashString>
_TEXT	ENDS
PUBLIC	?EncryptValueToPool@?$CEncrypt@M@@AAEXPBD@Z	; CEncrypt<float>::EncryptValueToPool
EXTRN	?EncryptByte@ccddaabb@@QAEXPBDPADH@Z:PROC	; ccddaabb::EncryptByte
; Function compile flags: /Ogsp
; File d:\lost saga for developer\youtube\tutorial\source\src\lsclient\encryptvalue.h
;	COMDAT ?EncryptValueToPool@?$CEncrypt@M@@AAEXPBD@Z
_TEXT	SEGMENT
_value$ = 8						; size = 4
?EncryptValueToPool@?$CEncrypt@M@@AAEXPBD@Z PROC	; CEncrypt<float>::EncryptValueToPool, COMDAT
; _this$ = ecx

; 67   : 	{

  00000	55		 push	 ebp
  00001	8b ec		 mov	 ebp, esp

; 68   : 		m_RC5.EncryptByte( value, m_MemPool, max(m_ValueSize, DEFAULT_ENCRYPT) );

  00003	0f b7 41 06	 movzx	 eax, WORD PTR [ecx+6]
  00007	83 f8 04	 cmp	 eax, 4
  0000a	77 03		 ja	 SHORT $LN4@EncryptVal
  0000c	6a 04		 push	 4
  0000e	58		 pop	 eax
$LN4@EncryptVal:
  0000f	50		 push	 eax
  00010	8d 41 1c	 lea	 eax, DWORD PTR [ecx+28]
  00013	50		 push	 eax
  00014	ff 75 08	 push	 DWORD PTR _value$[ebp]
  00017	83 c1 0c	 add	 ecx, 12			; 0000000cH
  0001a	e8 00 00 00 00	 call	 ?EncryptByte@ccddaabb@@QAEXPBDPADH@Z ; ccddaabb::EncryptByte

; 69   : 		
; 70   : 	}

  0001f	5d		 pop	 ebp
  00020	c2 04 00	 ret	 4
?EncryptValueToPool@?$CEncrypt@M@@AAEXPBD@Z ENDP	; CEncrypt<float>::EncryptValueToPool
_TEXT	ENDS
PUBLIC	?DecryptValueToPool@?$CEncrypt@M@@QAEXPAM@Z	; CEncrypt<float>::DecryptValueToPool
EXTRN	?DecryptByte@ccddaabb@@QBEXPBDPADH@Z:PROC	; ccddaabb::DecryptByte
; Function compile flags: /Ogsp
;	COMDAT ?DecryptValueToPool@?$CEncrypt@M@@QAEXPAM@Z
_TEXT	SEGMENT
_value$ = 8						; size = 4
?DecryptValueToPool@?$CEncrypt@M@@QAEXPAM@Z PROC	; CEncrypt<float>::DecryptValueToPool, COMDAT
; _this$ = ecx

; 1648 : 	{

  00000	55		 push	 ebp
  00001	8b ec		 mov	 ebp, esp
  00003	56		 push	 esi

; 1649 : 		m_RC5.DecryptByte( m_MemPool, m_TempMem, 4 );

  00004	8d 71 28	 lea	 esi, DWORD PTR [ecx+40]
  00007	6a 04		 push	 4
  00009	8d 41 1c	 lea	 eax, DWORD PTR [ecx+28]
  0000c	56		 push	 esi
  0000d	50		 push	 eax
  0000e	83 c1 0c	 add	 ecx, 12			; 0000000cH
  00011	e8 00 00 00 00	 call	 ?DecryptByte@ccddaabb@@QBEXPBDPADH@Z ; ccddaabb::DecryptByte

; 1650 : 		*value = *((float*)m_TempMem);

  00016	d9 06		 fld	 DWORD PTR [esi]
  00018	8b 45 08	 mov	 eax, DWORD PTR _value$[ebp]
  0001b	d9 18		 fstp	 DWORD PTR [eax]
  0001d	5e		 pop	 esi

; 1651 : 	}

  0001e	5d		 pop	 ebp
  0001f	c2 04 00	 ret	 4
?DecryptValueToPool@?$CEncrypt@M@@QAEXPAM@Z ENDP	; CEncrypt<float>::DecryptValueToPool
_TEXT	ENDS
PUBLIC	?DecryptValueToPool@?$CEncrypt@_N@@QAEXPA_N@Z	; CEncrypt<bool>::DecryptValueToPool
; Function compile flags: /Ogsp
;	COMDAT ?DecryptValueToPool@?$CEncrypt@_N@@QAEXPA_N@Z
_TEXT	SEGMENT
_value$ = 8						; size = 4
?DecryptValueToPool@?$CEncrypt@_N@@QAEXPA_N@Z PROC	; CEncrypt<bool>::DecryptValueToPool, COMDAT
; _this$ = ecx

; 219  : 	{

  00000	55		 push	 ebp
  00001	8b ec		 mov	 ebp, esp
  00003	56		 push	 esi

; 220  : 		m_RC5.DecryptByte( m_MemPool, m_TempMem, 4 );

  00004	8d 71 28	 lea	 esi, DWORD PTR [ecx+40]
  00007	6a 04		 push	 4
  00009	8d 41 1c	 lea	 eax, DWORD PTR [ecx+28]
  0000c	56		 push	 esi
  0000d	50		 push	 eax
  0000e	83 c1 0c	 add	 ecx, 12			; 0000000cH
  00011	e8 00 00 00 00	 call	 ?DecryptByte@ccddaabb@@QBEXPBDPADH@Z ; ccddaabb::DecryptByte

; 221  : 		*value = *((bool*)m_TempMem);

  00016	8a 06		 mov	 al, BYTE PTR [esi]
  00018	8b 4d 08	 mov	 ecx, DWORD PTR _value$[ebp]
  0001b	88 01		 mov	 BYTE PTR [ecx], al
  0001d	5e		 pop	 esi

; 222  : 	}

  0001e	5d		 pop	 ebp
  0001f	c2 04 00	 ret	 4
?DecryptValueToPool@?$CEncrypt@_N@@QAEXPA_N@Z ENDP	; CEncrypt<bool>::DecryptValueToPool
_TEXT	ENDS
PUBLIC	??_C@_0BD@OLBABOEK@vector?$DMT?$DO?5too?5long?$AA@ ; `string'
PUBLIC	?_Xlen@?$vector@VioHashString@@V?$allocator@VioHashString@@@std@@@std@@IBEXXZ ; std::vector<ioHashString,std::allocator<ioHashString> >::_Xlen
EXTRN	__imp_?_Xlength_error@std@@YAXPBD@Z:PROC
;	COMDAT ??_C@_0BD@OLBABOEK@vector?$DMT?$DO?5too?5long?$AA@
; File c:\program files (x86)\microsoft visual studio 10.0\vc\include\vector
CONST	SEGMENT
??_C@_0BD@OLBABOEK@vector?$DMT?$DO?5too?5long?$AA@ DB 'vector<T> too long'
	DB	00H						; `string'
; Function compile flags: /Ogsp
CONST	ENDS
;	COMDAT ?_Xlen@?$vector@VioHashString@@V?$allocator@VioHashString@@@std@@@std@@IBEXXZ
_TEXT	SEGMENT
?_Xlen@?$vector@VioHashString@@V?$allocator@VioHashString@@@std@@@std@@IBEXXZ PROC ; std::vector<ioHashString,std::allocator<ioHashString> >::_Xlen, COMDAT
; _this$ = ecx

; 1427 : 		_Xlength_error("vector<T> too long");

  00000	68 00 00 00 00	 push	 OFFSET ??_C@_0BD@OLBABOEK@vector?$DMT?$DO?5too?5long?$AA@
  00005	ff 15 00 00 00
	00		 call	 DWORD PTR __imp_?_Xlength_error@std@@YAXPBD@Z
$LN4@Xlen:
$LN3@Xlen:
  0000b	cc		 int	 3
?_Xlen@?$vector@VioHashString@@V?$allocator@VioHashString@@@std@@@std@@IBEXXZ ENDP ; std::vector<ioHashString,std::allocator<ioHashString> >::_Xlen
_TEXT	ENDS
PUBLIC	?deallocate@?$allocator@VioHashString@@@std@@QAEXPAVioHashString@@I@Z ; std::allocator<ioHashString>::deallocate
; Function compile flags: /Ogsp
; File c:\program files (x86)\microsoft visual studio 10.0\vc\include\xmemory
;	COMDAT ?deallocate@?$allocator@VioHashString@@@std@@QAEXPAVioHashString@@I@Z
_TEXT	SEGMENT
__Ptr$ = 8						; size = 4
___formal$ = 12						; size = 4
?deallocate@?$allocator@VioHashString@@@std@@QAEXPAVioHashString@@I@Z PROC ; std::allocator<ioHashString>::deallocate, COMDAT
; _this$ = ecx

; 181  : 		{	// deallocate object at _Ptr, ignore size

  00000	55		 push	 ebp
  00001	8b ec		 mov	 ebp, esp

; 182  : 		::operator delete(_Ptr);

  00003	ff 75 08	 push	 DWORD PTR __Ptr$[ebp]
  00006	e8 00 00 00 00	 call	 ??3@YAXPAX@Z		; operator delete
  0000b	59		 pop	 ecx

; 183  : 		}

  0000c	5d		 pop	 ebp
  0000d	c2 08 00	 ret	 8
?deallocate@?$allocator@VioHashString@@@std@@QAEXPAVioHashString@@I@Z ENDP ; std::allocator<ioHashString>::deallocate
_TEXT	ENDS
PUBLIC	??0?$_Vector_const_iterator@V?$_Vector_val@VioHashString@@V?$allocator@VioHashString@@@std@@@std@@@std@@QAE@PAVioHashString@@PBU_Container_base0@1@@Z ; std::_Vector_const_iterator<std::_Vector_val<ioHashString,std::allocator<ioHashString> > >::_Vector_const_iterator<std::_Vector_val<ioHashString,std::allocator<ioHashString> > >
; Function compile flags: /Ogsp
; File c:\program files (x86)\microsoft visual studio 10.0\vc\include\vector
;	COMDAT ??0?$_Vector_const_iterator@V?$_Vector_val@VioHashString@@V?$allocator@VioHashString@@@std@@@std@@@std@@QAE@PAVioHashString@@PBU_Container_base0@1@@Z
_TEXT	SEGMENT
__Parg$ = 8						; size = 4
__Pvector$ = 12						; size = 4
??0?$_Vector_const_iterator@V?$_Vector_val@VioHashString@@V?$allocator@VioHashString@@@std@@@std@@@std@@QAE@PAVioHashString@@PBU_Container_base0@1@@Z PROC ; std::_Vector_const_iterator<std::_Vector_val<ioHashString,std::allocator<ioHashString> > >::_Vector_const_iterator<std::_Vector_val<ioHashString,std::allocator<ioHashString> > >, COMDAT
; _this$ = ecx

; 45   : 		{	// construct with pointer _Parg

  00000	55		 push	 ebp
  00001	8b ec		 mov	 ebp, esp
  00003	8b c1		 mov	 eax, ecx
  00005	8b 4d 08	 mov	 ecx, DWORD PTR __Parg$[ebp]
  00008	89 08		 mov	 DWORD PTR [eax], ecx

; 46   : 		this->_Adopt(_Pvector);
; 47   : 		}

  0000a	5d		 pop	 ebp
  0000b	c2 08 00	 ret	 8
??0?$_Vector_const_iterator@V?$_Vector_val@VioHashString@@V?$allocator@VioHashString@@@std@@@std@@@std@@QAE@PAVioHashString@@PBU_Container_base0@1@@Z ENDP ; std::_Vector_const_iterator<std::_Vector_val<ioHashString,std::allocator<ioHashString> > >::_Vector_const_iterator<std::_Vector_val<ioHashString,std::allocator<ioHashString> > >
_TEXT	ENDS
PUBLIC	??0?$_Vector_iterator@V?$_Vector_val@VioHashString@@V?$allocator@VioHashString@@@std@@@std@@@std@@QAE@PAVioHashString@@PBU_Container_base0@1@@Z ; std::_Vector_iterator<std::_Vector_val<ioHashString,std::allocator<ioHashString> > >::_Vector_iterator<std::_Vector_val<ioHashString,std::allocator<ioHashString> > >
; Function compile flags: /Ogsp
;	COMDAT ??0?$_Vector_iterator@V?$_Vector_val@VioHashString@@V?$allocator@VioHashString@@@std@@@std@@@std@@QAE@PAVioHashString@@PBU_Container_base0@1@@Z
_TEXT	SEGMENT
__Parg$ = 8						; size = 4
__Pvector$ = 12						; size = 4
??0?$_Vector_iterator@V?$_Vector_val@VioHashString@@V?$allocator@VioHashString@@@std@@@std@@@std@@QAE@PAVioHashString@@PBU_Container_base0@1@@Z PROC ; std::_Vector_iterator<std::_Vector_val<ioHashString,std::allocator<ioHashString> > >::_Vector_iterator<std::_Vector_val<ioHashString,std::allocator<ioHashString> > >, COMDAT
; _this$ = ecx

; 304  : 		{	// construct with pointer _Parg

  00000	55		 push	 ebp
  00001	8b ec		 mov	 ebp, esp
  00003	8b c1		 mov	 eax, ecx
  00005	8b 4d 08	 mov	 ecx, DWORD PTR __Parg$[ebp]
  00008	89 08		 mov	 DWORD PTR [eax], ecx

; 305  : 		}

  0000a	5d		 pop	 ebp
  0000b	c2 08 00	 ret	 8
??0?$_Vector_iterator@V?$_Vector_val@VioHashString@@V?$allocator@VioHashString@@@std@@@std@@@std@@QAE@PAVioHashString@@PBU_Container_base0@1@@Z ENDP ; std::_Vector_iterator<std::_Vector_val<ioHashString,std::allocator<ioHashString> > >::_Vector_iterator<std::_Vector_val<ioHashString,std::allocator<ioHashString> > >
_TEXT	ENDS
PUBLIC	?max_size@?$allocator@VioHashString@@@std@@QBEIXZ ; std::allocator<ioHashString>::max_size
; Function compile flags: /Ogsp
; File c:\program files (x86)\microsoft visual studio 10.0\vc\include\xmemory
;	COMDAT ?max_size@?$allocator@VioHashString@@@std@@QBEIXZ
_TEXT	SEGMENT
?max_size@?$allocator@VioHashString@@@std@@QBEIXZ PROC	; std::allocator<ioHashString>::max_size, COMDAT
; _this$ = ecx

; 218  : 		_SIZT _Count = (_SIZT)(-1) / sizeof (_Ty);
; 219  : 		return (0 < _Count ? _Count : 1);

  00000	b8 ff ff ff 0f	 mov	 eax, 268435455		; 0fffffffH

; 220  : 		}

  00005	c3		 ret	 0
?max_size@?$allocator@VioHashString@@@std@@QBEIXZ ENDP	; std::allocator<ioHashString>::max_size
_TEXT	ENDS
PUBLIC	?_Compat@?$_Vector_const_iterator@V?$_Vector_val@VioHashString@@V?$allocator@VioHashString@@@std@@@std@@@std@@QBEXABV12@@Z ; std::_Vector_const_iterator<std::_Vector_val<ioHashString,std::allocator<ioHashString> > >::_Compat
; Function compile flags: /Ogsp
; File c:\program files (x86)\microsoft visual studio 10.0\vc\include\vector
;	COMDAT ?_Compat@?$_Vector_const_iterator@V?$_Vector_val@VioHashString@@V?$allocator@VioHashString@@@std@@@std@@@std@@QBEXABV12@@Z
_TEXT	SEGMENT
___formal$ = 8						; size = 4
?_Compat@?$_Vector_const_iterator@V?$_Vector_val@VioHashString@@V?$allocator@VioHashString@@@std@@@std@@@std@@QBEXABV12@@Z PROC ; std::_Vector_const_iterator<std::_Vector_val<ioHashString,std::allocator<ioHashString> > >::_Compat, COMDAT
; _this$ = ecx

; 253  : 		}

  00000	c2 04 00	 ret	 4
?_Compat@?$_Vector_const_iterator@V?$_Vector_val@VioHashString@@V?$allocator@VioHashString@@@std@@@std@@@std@@QBEXABV12@@Z ENDP ; std::_Vector_const_iterator<std::_Vector_val<ioHashString,std::allocator<ioHashString> > >::_Compat
_TEXT	ENDS
PUBLIC	__TI2?AVbad_alloc@std@@
PUBLIC	??$_Allocate@VioHashString@@@std@@YAPAVioHashString@@IPAV1@@Z ; std::_Allocate<ioHashString>
PUBLIC	__CTA2?AVbad_alloc@std@@
PUBLIC	__CT??_R0?AVbad_alloc@std@@@8??0bad_alloc@std@@QAE@ABV01@@Z12
PUBLIC	??0bad_alloc@std@@QAE@ABV01@@Z			; std::bad_alloc::bad_alloc
PUBLIC	__CT??_R0?AVexception@std@@@8??0exception@std@@QAE@ABV01@@Z12
EXTRN	??2@YAPAXI@Z:PROC				; operator new
EXTRN	__CxxThrowException@8:PROC
EXTRN	??0exception@std@@QAE@ABV01@@Z:PROC		; std::exception::exception
;	COMDAT __CT??_R0?AVexception@std@@@8??0exception@std@@QAE@ABV01@@Z12
; File c:\program files (x86)\microsoft visual studio 10.0\vc\include\exception
xdata$x	SEGMENT
__CT??_R0?AVexception@std@@@8??0exception@std@@QAE@ABV01@@Z12 DD 00H
	DD	FLAT:??_R0?AVexception@std@@@8
	DD	00H
	DD	0ffffffffH
	ORG $+4
	DD	0cH
	DD	FLAT:??0exception@std@@QAE@ABV01@@Z
xdata$x	ENDS
;	COMDAT __CT??_R0?AVbad_alloc@std@@@8??0bad_alloc@std@@QAE@ABV01@@Z12
xdata$x	SEGMENT
__CT??_R0?AVbad_alloc@std@@@8??0bad_alloc@std@@QAE@ABV01@@Z12 DD 00H
	DD	FLAT:??_R0?AVbad_alloc@std@@@8
	DD	00H
	DD	0ffffffffH
	ORG $+4
	DD	0cH
	DD	FLAT:??0bad_alloc@std@@QAE@ABV01@@Z
xdata$x	ENDS
;	COMDAT __CTA2?AVbad_alloc@std@@
xdata$x	SEGMENT
__CTA2?AVbad_alloc@std@@ DD 02H
	DD	FLAT:__CT??_R0?AVbad_alloc@std@@@8??0bad_alloc@std@@QAE@ABV01@@Z12
	DD	FLAT:__CT??_R0?AVexception@std@@@8??0exception@std@@QAE@ABV01@@Z12
xdata$x	ENDS
;	COMDAT __TI2?AVbad_alloc@std@@
xdata$x	SEGMENT
__TI2?AVbad_alloc@std@@ DD 00H
	DD	FLAT:??1bad_alloc@std@@UAE@XZ
	DD	00H
	DD	FLAT:__CTA2?AVbad_alloc@std@@
; Function compile flags: /Ogsp
; File c:\program files (x86)\microsoft visual studio 10.0\vc\include\xmemory
xdata$x	ENDS
;	COMDAT ??$_Allocate@VioHashString@@@std@@YAPAVioHashString@@IPAV1@@Z
_TEXT	SEGMENT
$T552806 = -12						; size = 12
$T552811 = 8						; size = 4
__Count$ = 8						; size = 4
___formal$ = 12						; size = 4
??$_Allocate@VioHashString@@@std@@YAPAVioHashString@@IPAV1@@Z PROC ; std::_Allocate<ioHashString>, COMDAT

; 30   : 	{	// allocate storage for _Count elements of type _Ty

  00000	55		 push	 ebp
  00001	8b ec		 mov	 ebp, esp

; 31   : 	void *_Ptr = 0;
; 32   : 
; 33   : 	if (_Count <= 0)

  00003	8b 4d 08	 mov	 ecx, DWORD PTR __Count$[ebp]
  00006	83 ec 0c	 sub	 esp, 12			; 0000000cH
  00009	33 c0		 xor	 eax, eax
  0000b	85 c9		 test	 ecx, ecx

; 34   : 		_Count = 0;
; 35   : 	else if (((_SIZT)(-1) / sizeof (_Ty) < _Count)

  0000d	74 3c		 je	 SHORT $LN5@Allocate

; 36   : 		|| (_Ptr = ::operator new(_Count * sizeof (_Ty))) == 0)

  0000f	81 f9 ff ff ff
	0f		 cmp	 ecx, 268435455		; 0fffffffH
  00015	77 0e		 ja	 SHORT $LN1@Allocate
  00017	c1 e1 04	 shl	 ecx, 4
  0001a	51		 push	 ecx
  0001b	e8 00 00 00 00	 call	 ??2@YAPAXI@Z		; operator new
  00020	59		 pop	 ecx
  00021	85 c0		 test	 eax, eax

; 38   : 
; 39   : 	return ((_Ty _FARQ *)_Ptr);

  00023	75 26		 jne	 SHORT $LN5@Allocate
$LN1@Allocate:

; 37   : 		_THROW_NCEE(bad_alloc, 0);

  00025	83 65 08 00	 and	 DWORD PTR $T552811[ebp], 0
  00029	8d 45 08	 lea	 eax, DWORD PTR $T552811[ebp]
  0002c	50		 push	 eax
  0002d	8d 4d f4	 lea	 ecx, DWORD PTR $T552806[ebp]
  00030	ff 15 00 00 00
	00		 call	 DWORD PTR __imp_??0exception@std@@QAE@ABQBD@Z
  00036	68 00 00 00 00	 push	 OFFSET __TI2?AVbad_alloc@std@@
  0003b	8d 45 f4	 lea	 eax, DWORD PTR $T552806[ebp]
  0003e	50		 push	 eax
  0003f	c7 45 f4 00 00
	00 00		 mov	 DWORD PTR $T552806[ebp], OFFSET ??_7bad_alloc@std@@6B@
  00046	e8 00 00 00 00	 call	 __CxxThrowException@8
$LN10@Allocate:
$LN5@Allocate:

; 40   : 	}

  0004b	c9		 leave
  0004c	c3		 ret	 0
$LN9@Allocate:
??$_Allocate@VioHashString@@@std@@YAPAVioHashString@@IPAV1@@Z ENDP ; std::_Allocate<ioHashString>
_TEXT	ENDS
EXTRN	__imp_??0exception@std@@QAE@ABV01@@Z:PROC
; Function compile flags: /Ogsp
;	COMDAT ??0bad_alloc@std@@QAE@ABV01@@Z
_TEXT	SEGMENT
___that$ = 8						; size = 4
??0bad_alloc@std@@QAE@ABV01@@Z PROC			; std::bad_alloc::bad_alloc, COMDAT
; _this$ = ecx
  00000	55		 push	 ebp
  00001	8b ec		 mov	 ebp, esp
  00003	56		 push	 esi
  00004	ff 75 08	 push	 DWORD PTR ___that$[ebp]
  00007	8b f1		 mov	 esi, ecx
  00009	ff 15 00 00 00
	00		 call	 DWORD PTR __imp_??0exception@std@@QAE@ABV01@@Z
  0000f	c7 06 00 00 00
	00		 mov	 DWORD PTR [esi], OFFSET ??_7bad_alloc@std@@6B@
  00015	8b c6		 mov	 eax, esi
  00017	5e		 pop	 esi
  00018	5d		 pop	 ebp
  00019	c2 04 00	 ret	 4
??0bad_alloc@std@@QAE@ABV01@@Z ENDP			; std::bad_alloc::bad_alloc
_TEXT	ENDS
PUBLIC	??$forward@ABVioHashString@@@std@@YAABVioHashString@@ABV1@@Z ; std::forward<ioHashString const &>
; Function compile flags: /Ogsp
; File c:\program files (x86)\microsoft visual studio 10.0\vc\include\utility
;	COMDAT ??$forward@ABVioHashString@@@std@@YAABVioHashString@@ABV1@@Z
_TEXT	SEGMENT
__Arg$ = 8						; size = 4
??$forward@ABVioHashString@@@std@@YAABVioHashString@@ABV1@@Z PROC ; std::forward<ioHashString const &>, COMDAT

; 78   : 	{	// forward _Arg, given explicitly specified type parameter

  00000	55		 push	 ebp
  00001	8b ec		 mov	 ebp, esp

; 79   : 	return ((_Ty&&)_Arg);

  00003	8b 45 08	 mov	 eax, DWORD PTR __Arg$[ebp]

; 80   : 	}

  00006	5d		 pop	 ebp
  00007	c3		 ret	 0
??$forward@ABVioHashString@@@std@@YAABVioHashString@@ABV1@@Z ENDP ; std::forward<ioHashString const &>
_TEXT	ENDS
PUBLIC	??$forward@AAVioHashString@@@std@@YAAAVioHashString@@AAV1@@Z ; std::forward<ioHashString &>
; Function compile flags: /Ogsp
;	COMDAT ??$forward@AAVioHashString@@@std@@YAAAVioHashString@@AAV1@@Z
_TEXT	SEGMENT
__Arg$ = 8						; size = 4
??$forward@AAVioHashString@@@std@@YAAAVioHashString@@AAV1@@Z PROC ; std::forward<ioHashString &>, COMDAT

; 78   : 	{	// forward _Arg, given explicitly specified type parameter

  00000	55		 push	 ebp
  00001	8b ec		 mov	 ebp, esp

; 79   : 	return ((_Ty&&)_Arg);

  00003	8b 45 08	 mov	 eax, DWORD PTR __Arg$[ebp]

; 80   : 	}

  00006	5d		 pop	 ebp
  00007	c3		 ret	 0
??$forward@AAVioHashString@@@std@@YAAAVioHashString@@AAV1@@Z ENDP ; std::forward<ioHashString &>
_TEXT	ENDS
PUBLIC	??$_Ptr_cat@VioHashString@@V1@@std@@YA?AU_Nonscalar_ptr_iterator_tag@0@PAVioHashString@@0@Z ; std::_Ptr_cat<ioHashString,ioHashString>
; Function compile flags: /Ogsp
; File c:\program files (x86)\microsoft visual studio 10.0\vc\include\xutility
;	COMDAT ??$_Ptr_cat@VioHashString@@V1@@std@@YA?AU_Nonscalar_ptr_iterator_tag@0@PAVioHashString@@0@Z
_TEXT	SEGMENT
__Cat$ = -1						; size = 1
___formal$ = 8						; size = 4
___formal$ = 12						; size = 4
??$_Ptr_cat@VioHashString@@V1@@std@@YA?AU_Nonscalar_ptr_iterator_tag@0@PAVioHashString@@0@Z PROC ; std::_Ptr_cat<ioHashString,ioHashString>, COMDAT

; 516  : 	{	// return pointer category from pointers

  00000	55		 push	 ebp
  00001	8b ec		 mov	 ebp, esp
  00003	51		 push	 ecx

; 517  : 	typename _Ptr_cat_helper<_Elem1, _Elem2>::_Type _Cat;
; 518  : 	return (_Cat);

  00004	8a 45 ff	 mov	 al, BYTE PTR __Cat$[ebp]

; 519  : 	}

  00007	c9		 leave
  00008	c3		 ret	 0
??$_Ptr_cat@VioHashString@@V1@@std@@YA?AU_Nonscalar_ptr_iterator_tag@0@PAVioHashString@@0@Z ENDP ; std::_Ptr_cat<ioHashString,ioHashString>
_TEXT	ENDS
PUBLIC	??$move@AAVioHashString@@@std@@YA$$QAVioHashString@@AAV1@@Z ; std::move<ioHashString &>
; Function compile flags: /Ogsp
; File c:\program files (x86)\microsoft visual studio 10.0\vc\include\utility
;	COMDAT ??$move@AAVioHashString@@@std@@YA$$QAVioHashString@@AAV1@@Z
_TEXT	SEGMENT
__Arg$ = 8						; size = 4
??$move@AAVioHashString@@@std@@YA$$QAVioHashString@@AAV1@@Z PROC ; std::move<ioHashString &>, COMDAT

; 86   : 	{	// forward _Arg as movable

  00000	55		 push	 ebp
  00001	8b ec		 mov	 ebp, esp

; 87   : 	return ((typename tr1::_Remove_reference<_Ty>::_Type&&)_Arg);

  00003	8b 45 08	 mov	 eax, DWORD PTR __Arg$[ebp]

; 88   : 	}

  00006	5d		 pop	 ebp
  00007	c3		 ret	 0
??$move@AAVioHashString@@@std@@YA$$QAVioHashString@@AAV1@@Z ENDP ; std::move<ioHashString &>
_TEXT	ENDS
PUBLIC	??_GioHashString@@QAEPAXI@Z			; ioHashString::`scalar deleting destructor'
EXTRN	__imp_??1ioHashString@@QAE@XZ:PROC
; Function compile flags: /Ogsp
;	COMDAT ??_GioHashString@@QAEPAXI@Z
_TEXT	SEGMENT
___flags$ = 8						; size = 4
??_GioHashString@@QAEPAXI@Z PROC			; ioHashString::`scalar deleting destructor', COMDAT
; _this$ = ecx
  00000	55		 push	 ebp
  00001	8b ec		 mov	 ebp, esp
  00003	56		 push	 esi
  00004	8b f1		 mov	 esi, ecx
  00006	ff 15 00 00 00
	00		 call	 DWORD PTR __imp_??1ioHashString@@QAE@XZ
  0000c	f6 45 08 01	 test	 BYTE PTR ___flags$[ebp], 1
  00010	74 07		 je	 SHORT $LN1@scalar@2
  00012	56		 push	 esi
  00013	e8 00 00 00 00	 call	 ??3@YAXPAX@Z		; operator delete
  00018	59		 pop	 ecx
$LN1@scalar@2:
  00019	8b c6		 mov	 eax, esi
  0001b	5e		 pop	 esi
  0001c	5d		 pop	 ebp
  0001d	c2 04 00	 ret	 4
??_GioHashString@@QAEPAXI@Z ENDP			; ioHashString::`scalar deleting destructor'
_TEXT	ENDS
PUBLIC	??$_Construct@VioHashString@@ABV1@@std@@YAXPAVioHashString@@ABV1@@Z ; std::_Construct<ioHashString,ioHashString const &>
EXTRN	__imp_??0ioHashString@@QAE@ABV0@@Z:PROC
EXTRN	___CxxFrameHandler3:PROC
EXTRN	@__security_check_cookie@4:PROC
EXTRN	__EH_epilog3:PROC
EXTRN	__EH_prolog3:PROC
;	COMDAT xdata$x
xdata$x	SEGMENT
__unwindtable$??$_Construct@VioHashString@@ABV1@@std@@YAXPAVioHashString@@ABV1@@Z DD 0ffffffffH
	DD	FLAT:__unwindfunclet$??$_Construct@VioHashString@@ABV1@@std@@YAXPAVioHashString@@ABV1@@Z$0
__ehfuncinfo$??$_Construct@VioHashString@@ABV1@@std@@YAXPAVioHashString@@ABV1@@Z DD 019930522H
	DD	01H
	DD	FLAT:__unwindtable$??$_Construct@VioHashString@@ABV1@@std@@YAXPAVioHashString@@ABV1@@Z
	DD	2 DUP(00H)
	DD	2 DUP(00H)
	DD	00H
	DD	01H
; Function compile flags: /Ogsp
; File c:\program files (x86)\microsoft visual studio 10.0\vc\include\xmemory
xdata$x	ENDS
;	COMDAT ??$_Construct@VioHashString@@ABV1@@std@@YAXPAVioHashString@@ABV1@@Z
_TEXT	SEGMENT
$T552830 = -16						; size = 4
__$EHRec$ = -12						; size = 12
__Vptr$ = 8						; size = 4
__Ptr$ = 8						; size = 4
__Val$ = 12						; size = 4
??$_Construct@VioHashString@@ABV1@@std@@YAXPAVioHashString@@ABV1@@Z PROC ; std::_Construct<ioHashString,ioHashString const &>, COMDAT

; 46   : 	{	// construct object at _Ptr with value _Val

  00000	6a 04		 push	 4
  00002	b8 00 00 00 00	 mov	 eax, __ehhandler$??$_Construct@VioHashString@@ABV1@@std@@YAXPAVioHashString@@ABV1@@Z
  00007	e8 00 00 00 00	 call	 __EH_prolog3

; 47   : 	void _FARQ *_Vptr = _Ptr;

  0000c	8b 4d 08	 mov	 ecx, DWORD PTR __Ptr$[ebp]
  0000f	89 4d 08	 mov	 DWORD PTR __Vptr$[ebp], ecx

; 48   : 	::new (_Vptr) _Ty1(_STD forward<_Ty2>(_Val));

  00012	89 4d f0	 mov	 DWORD PTR $T552830[ebp], ecx
  00015	83 65 fc 00	 and	 DWORD PTR __$EHRec$[ebp+8], 0
  00019	85 c9		 test	 ecx, ecx
  0001b	74 09		 je	 SHORT $LN3@Construct
  0001d	ff 75 0c	 push	 DWORD PTR __Val$[ebp]
  00020	ff 15 00 00 00
	00		 call	 DWORD PTR __imp_??0ioHashString@@QAE@ABV0@@Z
$LN3@Construct:

; 49   : 	}

  00026	e8 00 00 00 00	 call	 __EH_epilog3
  0002b	c3		 ret	 0
_TEXT	ENDS
;	COMDAT text$x
text$x	SEGMENT
__unwindfunclet$??$_Construct@VioHashString@@ABV1@@std@@YAXPAVioHashString@@ABV1@@Z$0:
  00000	ff 75 08	 push	 DWORD PTR __Vptr$[ebp]
  00003	ff 75 f0	 push	 DWORD PTR $T552830[ebp]
  00006	e8 00 00 00 00	 call	 ??3@YAXPAX0@Z		; operator delete
  0000b	59		 pop	 ecx
  0000c	59		 pop	 ecx
  0000d	c3		 ret	 0
__ehhandler$??$_Construct@VioHashString@@ABV1@@std@@YAXPAVioHashString@@ABV1@@Z:
  0000e	8b 54 24 08	 mov	 edx, DWORD PTR [esp+8]
  00012	8d 42 0c	 lea	 eax, DWORD PTR [edx+12]
  00015	8b 4a ec	 mov	 ecx, DWORD PTR [edx-20]
  00018	33 c8		 xor	 ecx, eax
  0001a	e8 00 00 00 00	 call	 @__security_check_cookie@4
  0001f	b8 00 00 00 00	 mov	 eax, OFFSET __ehfuncinfo$??$_Construct@VioHashString@@ABV1@@std@@YAXPAVioHashString@@ABV1@@Z
  00024	e9 00 00 00 00	 jmp	 ___CxxFrameHandler3
text$x	ENDS
??$_Construct@VioHashString@@ABV1@@std@@YAXPAVioHashString@@ABV1@@Z ENDP ; std::_Construct<ioHashString,ioHashString const &>
PUBLIC	?CheckBuff@ioDummyStruct@@IAEXXZ		; ioDummyStruct::CheckBuff
EXTRN	?HasBuff@ioBaseChar@@QBE_NABVioHashString@@@Z:PROC ; ioBaseChar::HasBuff
EXTRN	?GetBaseChar@ioPlayStage@@QAEPAVioBaseChar@@ABVioHashString@@@Z:PROC ; ioPlayStage::GetBaseChar
EXTRN	__imp_?IsEmpty@ioHashString@@QBE_NXZ:PROC
; Function compile flags: /Ogsp
; File d:\lost saga for developer\youtube\tutorial\source\src\lsclient\iodummystruct.cpp
;	COMDAT ?CheckBuff@ioDummyStruct@@IAEXXZ
_TEXT	SEGMENT
?CheckBuff@ioDummyStruct@@IAEXXZ PROC			; ioDummyStruct::CheckBuff, COMDAT
; _this$ = ecx

; 227  : {

  00000	56		 push	 esi
  00001	8b f1		 mov	 esi, ecx

; 228  : 	if( !m_pModeParent || m_szCheckBuff.IsEmpty() )

  00003	83 be 8c 00 00
	00 00		 cmp	 DWORD PTR [esi+140], 0
  0000a	57		 push	 edi
  0000b	74 49		 je	 SHORT $LN4@CheckBuff
  0000d	53		 push	 ebx
  0000e	8d 9e 80 14 00
	00		 lea	 ebx, DWORD PTR [esi+5248]
  00014	8b cb		 mov	 ecx, ebx
  00016	ff 15 00 00 00
	00		 call	 DWORD PTR __imp_?IsEmpty@ioHashString@@QBE_NXZ
  0001c	84 c0		 test	 al, al
  0001e	75 35		 jne	 SHORT $LN10@CheckBuff

; 229  : 		return;
; 230  : 
; 231  : 	ioPlayStage *pStage = m_pModeParent->GetCreator();

  00020	8b 86 8c 00 00
	00		 mov	 eax, DWORD PTR [esi+140]
  00026	8b 48 34	 mov	 ecx, DWORD PTR [eax+52]

; 232  : 	if( !pStage )

  00029	85 c9		 test	 ecx, ecx
  0002b	74 28		 je	 SHORT $LN10@CheckBuff

; 233  : 		return;
; 234  : 
; 235  : 	ioBaseChar *pOwner = pStage->GetBaseChar( m_OwnerName );

  0002d	8d 86 cc 01 00
	00		 lea	 eax, DWORD PTR [esi+460]
  00033	50		 push	 eax
  00034	e8 00 00 00 00	 call	 ?GetBaseChar@ioPlayStage@@QAEPAVioBaseChar@@ABVioHashString@@@Z ; ioPlayStage::GetBaseChar

; 236  : 	if ( pOwner )

  00039	85 c0		 test	 eax, eax
  0003b	74 18		 je	 SHORT $LN10@CheckBuff

; 237  : 	{
; 238  : 		if ( !pOwner->HasBuff( m_szCheckBuff ) )

  0003d	53		 push	 ebx
  0003e	8b c8		 mov	 ecx, eax
  00040	e8 00 00 00 00	 call	 ?HasBuff@ioBaseChar@@QBE_NABVioHashString@@@Z ; ioBaseChar::HasBuff
  00045	84 c0		 test	 al, al
  00047	75 0c		 jne	 SHORT $LN10@CheckBuff

; 239  : 			SetDieState( true );

  00049	8b 06		 mov	 eax, DWORD PTR [esi]
  0004b	6a 01		 push	 1
  0004d	8b ce		 mov	 ecx, esi
  0004f	ff 90 60 01 00
	00		 call	 DWORD PTR [eax+352]
$LN10@CheckBuff:
  00055	5b		 pop	 ebx
$LN4@CheckBuff:
  00056	5f		 pop	 edi
  00057	5e		 pop	 esi

; 240  : 	}
; 241  : }

  00058	c3		 ret	 0
?CheckBuff@ioDummyStruct@@IAEXXZ ENDP			; ioDummyStruct::CheckBuff
_TEXT	ENDS
PUBLIC	?ProcessEnd@ioDummyStruct@@IAEXXZ		; ioDummyStruct::ProcessEnd
EXTRN	?RemoveBuff@ioBaseChar@@QAE_NABVioHashString@@_N@Z:PROC ; ioBaseChar::RemoveBuff
EXTRN	?GetOwner@ioDummyChar@@QBEPAVioBaseChar@@XZ:PROC ; ioDummyChar::GetOwner
; Function compile flags: /Ogsp
;	COMDAT ?ProcessEnd@ioDummyStruct@@IAEXXZ
_TEXT	SEGMENT
_pOwner$ = -4						; size = 4
?ProcessEnd@ioDummyStruct@@IAEXXZ PROC			; ioDummyStruct::ProcessEnd, COMDAT
; _this$ = ecx

; 249  : {

  00000	55		 push	 ebp
  00001	8b ec		 mov	 ebp, esp
  00003	51		 push	 ecx
  00004	56		 push	 esi
  00005	8b f1		 mov	 esi, ecx

; 250  : 	ioBaseChar *pOwner = GetOwner();

  00007	e8 00 00 00 00	 call	 ?GetOwner@ioDummyChar@@QBEPAVioBaseChar@@XZ ; ioDummyChar::GetOwner
  0000c	89 45 fc	 mov	 DWORD PTR _pOwner$[ebp], eax

; 251  : 	if ( !pOwner )

  0000f	85 c0		 test	 eax, eax
  00011	74 34		 je	 SHORT $LN1@ProcessEnd

; 252  : 		return;
; 253  : 	
; 254  : 	int nBuffCnt = (int)m_RemoveBuffList.size();	

  00013	8b 86 ac 14 00
	00		 mov	 eax, DWORD PTR [esi+5292]
  00019	2b 86 a8 14 00
	00		 sub	 eax, DWORD PTR [esi+5288]
  0001f	c1 f8 04	 sar	 eax, 4

; 255  : 	for ( int i=0; i<nBuffCnt; ++i )

  00022	85 c0		 test	 eax, eax
  00024	7e 21		 jle	 SHORT $LN1@ProcessEnd

; 252  : 		return;
; 253  : 	
; 254  : 	int nBuffCnt = (int)m_RemoveBuffList.size();	

  00026	53		 push	 ebx
  00027	57		 push	 edi
  00028	33 ff		 xor	 edi, edi
  0002a	8b d8		 mov	 ebx, eax
$LL13@ProcessEnd:

; 255  : 	for ( int i=0; i<nBuffCnt; ++i )

  0002c	8b 86 a8 14 00
	00		 mov	 eax, DWORD PTR [esi+5288]

; 256  : 		pOwner->RemoveBuff( m_RemoveBuffList[i], true );

  00032	8b 4d fc	 mov	 ecx, DWORD PTR _pOwner$[ebp]
  00035	6a 01		 push	 1
  00037	03 c7		 add	 eax, edi
  00039	50		 push	 eax
  0003a	e8 00 00 00 00	 call	 ?RemoveBuff@ioBaseChar@@QAE_NABVioHashString@@_N@Z ; ioBaseChar::RemoveBuff
  0003f	83 c7 10	 add	 edi, 16			; 00000010H
  00042	4b		 dec	 ebx
  00043	75 e7		 jne	 SHORT $LL13@ProcessEnd
  00045	5f		 pop	 edi
  00046	5b		 pop	 ebx
$LN1@ProcessEnd:
  00047	5e		 pop	 esi

; 257  : }

  00048	c9		 leave
  00049	c3		 ret	 0
?ProcessEnd@ioDummyStruct@@IAEXXZ ENDP			; ioDummyStruct::ProcessEnd
_TEXT	ENDS
PUBLIC	??_C@_00CNPNBAHC@?$AA@				; `string'
PUBLIC	?SetOwenrBuff@ioDummyStruct@@IAEXXZ		; ioDummyStruct::SetOwenrBuff
EXTRN	?AddNewBuff@ioBaseChar@@QAEPAVioBuff@@ABVioHashString@@00PAVioSkill@@_N@Z:PROC ; ioBaseChar::AddNewBuff
EXTRN	__imp_??0ioHashString@@QAE@PBD@Z:PROC
;	COMDAT ??_C@_00CNPNBAHC@?$AA@
; File c:\program files (x86)\microsoft visual studio 10.0\vc\include\vector
CONST	SEGMENT
??_C@_00CNPNBAHC@?$AA@ DB 00H				; `string'
CONST	ENDS
;	COMDAT xdata$x
xdata$x	SEGMENT
__unwindtable$?SetOwenrBuff@ioDummyStruct@@IAEXXZ DD 0ffffffffH
	DD	FLAT:__unwindfunclet$?SetOwenrBuff@ioDummyStruct@@IAEXXZ$0
__ehfuncinfo$?SetOwenrBuff@ioDummyStruct@@IAEXXZ DD 019930522H
	DD	01H
	DD	FLAT:__unwindtable$?SetOwenrBuff@ioDummyStruct@@IAEXXZ
	DD	2 DUP(00H)
	DD	2 DUP(00H)
	DD	00H
	DD	01H
; Function compile flags: /Ogsp
; File d:\lost saga for developer\youtube\tutorial\source\src\lsclient\iodummystruct.cpp
xdata$x	ENDS
;	COMDAT ?SetOwenrBuff@ioDummyStruct@@IAEXXZ
_TEXT	SEGMENT
$T552873 = -36						; size = 16
tv142 = -20						; size = 4
tv212 = -16						; size = 4
__$EHRec$ = -12						; size = 12
?SetOwenrBuff@ioDummyStruct@@IAEXXZ PROC		; ioDummyStruct::SetOwenrBuff, COMDAT
; _this$ = ecx

; 268  : {

  00000	6a 18		 push	 24			; 00000018H
  00002	b8 00 00 00 00	 mov	 eax, __ehhandler$?SetOwenrBuff@ioDummyStruct@@IAEXXZ
  00007	e8 00 00 00 00	 call	 __EH_prolog3
  0000c	8b f1		 mov	 esi, ecx

; 269  : 	ioBaseChar *pOwner = GetOwner();

  0000e	e8 00 00 00 00	 call	 ?GetOwner@ioDummyChar@@QBEPAVioBaseChar@@XZ ; ioDummyChar::GetOwner
  00013	8b f8		 mov	 edi, eax

; 270  : 	if ( !pOwner )

  00015	85 ff		 test	 edi, edi
  00017	74 78		 je	 SHORT $LN1@SetOwenrBu

; 271  : 		return;
; 272  : 
; 273  : 	if ( m_bOnlyOwnerAddBuff && !pOwner->IsNeedProcess() )

  00019	80 be c0 14 00
	00 00		 cmp	 BYTE PTR [esi+5312], 0
  00020	74 0e		 je	 SHORT $LN4@SetOwenrBu
  00022	8b 07		 mov	 eax, DWORD PTR [edi]
  00024	8b cf		 mov	 ecx, edi
  00026	ff 90 00 01 00
	00		 call	 DWORD PTR [eax+256]
  0002c	84 c0		 test	 al, al
  0002e	74 61		 je	 SHORT $LN1@SetOwenrBu
$LN4@SetOwenrBu:

; 274  : 		return;
; 275  : 
; 276  : 	int nBuffCnt = (int)m_OwnerBuffList.size();	

  00030	8b 86 9c 14 00
	00		 mov	 eax, DWORD PTR [esi+5276]
  00036	2b 86 98 14 00
	00		 sub	 eax, DWORD PTR [esi+5272]
  0003c	c1 f8 04	 sar	 eax, 4

; 277  : 	for ( int i=0; i<nBuffCnt; ++i )

  0003f	85 c0		 test	 eax, eax
  00041	7e 4e		 jle	 SHORT $LN1@SetOwenrBu

; 274  : 		return;
; 275  : 
; 276  : 	int nBuffCnt = (int)m_OwnerBuffList.size();	

  00043	83 65 f0 00	 and	 DWORD PTR tv212[ebp], 0
  00047	8d 9f d4 02 00
	00		 lea	 ebx, DWORD PTR [edi+724]
  0004d	89 45 ec	 mov	 DWORD PTR tv142[ebp], eax
$LL3@SetOwenrBu:

; 278  : 		pOwner->AddNewBuff( m_OwnerBuffList[i], pOwner->GetCharName(), "", NULL );

  00050	68 00 00 00 00	 push	 OFFSET ??_C@_00CNPNBAHC@?$AA@
  00055	8d 4d dc	 lea	 ecx, DWORD PTR $T552873[ebp]
  00058	ff 15 00 00 00
	00		 call	 DWORD PTR __imp_??0ioHashString@@QAE@PBD@Z
  0005e	33 c0		 xor	 eax, eax
  00060	50		 push	 eax
  00061	50		 push	 eax
  00062	89 45 fc	 mov	 DWORD PTR __$EHRec$[ebp+8], eax
  00065	8d 45 dc	 lea	 eax, DWORD PTR $T552873[ebp]
  00068	50		 push	 eax
  00069	8b 86 98 14 00
	00		 mov	 eax, DWORD PTR [esi+5272]
  0006f	03 45 f0	 add	 eax, DWORD PTR tv212[ebp]
  00072	53		 push	 ebx
  00073	50		 push	 eax
  00074	8b cf		 mov	 ecx, edi
  00076	e8 00 00 00 00	 call	 ?AddNewBuff@ioBaseChar@@QAEPAVioBuff@@ABVioHashString@@00PAVioSkill@@_N@Z ; ioBaseChar::AddNewBuff
  0007b	83 4d fc ff	 or	 DWORD PTR __$EHRec$[ebp+8], -1
  0007f	8d 4d dc	 lea	 ecx, DWORD PTR $T552873[ebp]
  00082	ff 15 00 00 00
	00		 call	 DWORD PTR __imp_??1ioHashString@@QAE@XZ
  00088	83 45 f0 10	 add	 DWORD PTR tv212[ebp], 16 ; 00000010H
  0008c	ff 4d ec	 dec	 DWORD PTR tv142[ebp]
  0008f	75 bf		 jne	 SHORT $LL3@SetOwenrBu
$LN1@SetOwenrBu:

; 279  : }

  00091	e8 00 00 00 00	 call	 __EH_epilog3
  00096	c3		 ret	 0
_TEXT	ENDS
;	COMDAT text$x
text$x	SEGMENT
__unwindfunclet$?SetOwenrBuff@ioDummyStruct@@IAEXXZ$0:
  00000	8d 4d dc	 lea	 ecx, DWORD PTR $T552873[ebp]
  00003	ff 25 00 00 00
	00		 jmp	 DWORD PTR __imp_??1ioHashString@@QAE@XZ
__ehhandler$?SetOwenrBuff@ioDummyStruct@@IAEXXZ:
  00009	8b 54 24 08	 mov	 edx, DWORD PTR [esp+8]
  0000d	8d 42 0c	 lea	 eax, DWORD PTR [edx+12]
  00010	8b 4a d8	 mov	 ecx, DWORD PTR [edx-40]
  00013	33 c8		 xor	 ecx, eax
  00015	e8 00 00 00 00	 call	 @__security_check_cookie@4
  0001a	b8 00 00 00 00	 mov	 eax, OFFSET __ehfuncinfo$?SetOwenrBuff@ioDummyStruct@@IAEXXZ
  0001f	e9 00 00 00 00	 jmp	 ___CxxFrameHandler3
text$x	ENDS
?SetOwenrBuff@ioDummyStruct@@IAEXXZ ENDP		; ioDummyStruct::SetOwenrBuff
PUBLIC	?CheckRange@ioDummyStruct@@IAEXXZ		; ioDummyStruct::CheckRange
; Function compile flags: /Ogsp
;	COMDAT ?CheckRange@ioDummyStruct@@IAEXXZ
_TEXT	SEGMENT
?CheckRange@ioDummyStruct@@IAEXXZ PROC			; ioDummyStruct::CheckRange, COMDAT
; _this$ = ecx

; 282  : {

  00000	56		 push	 esi
  00001	8b f1		 mov	 esi, ecx

; 283  : 	if ( !m_bCheckRange )

  00003	80 be b8 14 00
	00 00		 cmp	 BYTE PTR [esi+5304], 0
  0000a	0f 84 b0 00 00
	00		 je	 $LN1@CheckRange

; 284  : 		return;
; 285  : 
; 286  : 	ioBaseChar *pOwner = GetOwner();

  00010	e8 00 00 00 00	 call	 ?GetOwner@ioDummyChar@@QBEPAVioBaseChar@@XZ ; ioDummyChar::GetOwner

; 287  : 	if ( !pOwner )

  00015	85 c0		 test	 eax, eax
  00017	0f 84 a3 00 00
	00		 je	 $LN1@CheckRange

; 288  : 		return;
; 289  : 
; 290  : 	D3DXVECTOR3 vDist = GetWorldPosition() - pOwner->GetWorldPosition();

  0001d	8b 10		 mov	 edx, DWORD PTR [eax]
  0001f	57		 push	 edi
  00020	8b c8		 mov	 ecx, eax
  00022	ff 52 70	 call	 DWORD PTR [edx+112]
  00025	8b f8		 mov	 edi, eax
  00027	8b 06		 mov	 eax, DWORD PTR [esi]
  00029	8b ce		 mov	 ecx, esi
  0002b	ff 50 70	 call	 DWORD PTR [eax+112]
  0002e	f3 0f 10 00	 movss	 xmm0, DWORD PTR [eax]
  00032	f3 0f 10 0f	 movss	 xmm1, DWORD PTR [edi]
  00036	f3 0f 10 57 04	 movss	 xmm2, DWORD PTR [edi+4]
  0003b	f3 0f 10 5f 08	 movss	 xmm3, DWORD PTR [edi+8]
  00040	0f 5a c9	 cvtps2pd xmm1, xmm1
  00043	0f 5a c0	 cvtps2pd xmm0, xmm0
  00046	f2 0f 5c c1	 subsd	 xmm0, xmm1
  0004a	f3 0f 10 48 04	 movss	 xmm1, DWORD PTR [eax+4]
  0004f	0f 5a d2	 cvtps2pd xmm2, xmm2
  00052	0f 5a c9	 cvtps2pd xmm1, xmm1
  00055	f2 0f 5c ca	 subsd	 xmm1, xmm2
  00059	f3 0f 10 50 08	 movss	 xmm2, DWORD PTR [eax+8]
  0005e	66 0f 5a c0	 cvtpd2ps xmm0, xmm0
  00062	0f 5a d2	 cvtps2pd xmm2, xmm2
  00065	0f 5a db	 cvtps2pd xmm3, xmm3
  00068	f2 0f 5c d3	 subsd	 xmm2, xmm3

; 291  : 	if ( D3DXVec3LengthSq( &vDist ) > m_fRange * m_fRange )

  0006c	f3 0f 10 9e bc
	14 00 00	 movss	 xmm3, DWORD PTR [esi+5308]
  00074	66 0f 5a c9	 cvtpd2ps xmm1, xmm1
  00078	f3 0f 5a c0	 cvtss2sd xmm0, xmm0
  0007c	f3 0f 5a c9	 cvtss2sd xmm1, xmm1
  00080	f2 0f 59 c0	 mulsd	 xmm0, xmm0
  00084	66 0f 5a d2	 cvtpd2ps xmm2, xmm2
  00088	f2 0f 59 c9	 mulsd	 xmm1, xmm1
  0008c	f2 0f 58 c8	 addsd	 xmm1, xmm0
  00090	f3 0f 5a d2	 cvtss2sd xmm2, xmm2
  00094	f2 0f 59 d2	 mulsd	 xmm2, xmm2
  00098	0f 57 c0	 xorps	 xmm0, xmm0
  0009b	f2 0f 58 ca	 addsd	 xmm1, xmm2
  0009f	0f 5a db	 cvtps2pd xmm3, xmm3
  000a2	66 0f 5a c1	 cvtpd2ps xmm0, xmm1
  000a6	0f 5a c0	 cvtps2pd xmm0, xmm0
  000a9	f2 0f 59 db	 mulsd	 xmm3, xmm3
  000ad	66 0f 2f c3	 comisd	 xmm0, xmm3
  000b1	5f		 pop	 edi
  000b2	76 0c		 jbe	 SHORT $LN1@CheckRange

; 292  : 		SetDieState( true );

  000b4	8b 06		 mov	 eax, DWORD PTR [esi]
  000b6	6a 01		 push	 1
  000b8	8b ce		 mov	 ecx, esi
  000ba	ff 90 60 01 00
	00		 call	 DWORD PTR [eax+352]
$LN1@CheckRange:
  000c0	5e		 pop	 esi

; 293  : }

  000c1	c3		 ret	 0
?CheckRange@ioDummyStruct@@IAEXXZ ENDP			; ioDummyStruct::CheckRange
_TEXT	ENDS
PUBLIC	??N?$CEncrypt@M@@QAE_NABM@Z			; CEncrypt<float>::operator<=
; Function compile flags: /Ogsp
; File d:\lost saga for developer\youtube\tutorial\source\src\lsclient\encryptvalue.h
;	COMDAT ??N?$CEncrypt@M@@QAE_NABM@Z
_TEXT	SEGMENT
_value$ = -4						; size = 4
_inValue$ = 8						; size = 4
??N?$CEncrypt@M@@QAE_NABM@Z PROC			; CEncrypt<float>::operator<=, COMDAT
; _this$ = ecx

; 1821 : 	{

  00000	55		 push	 ebp
  00001	8b ec		 mov	 ebp, esp
  00003	51		 push	 ecx

; 1822 : 		type value;
; 1823 : 		DecryptValueToPool(&value);

  00004	8d 45 fc	 lea	 eax, DWORD PTR _value$[ebp]
  00007	50		 push	 eax
  00008	e8 00 00 00 00	 call	 ?DecryptValueToPool@?$CEncrypt@M@@QAEXPAM@Z ; CEncrypt<float>::DecryptValueToPool

; 1824 : #ifdef _NOTUSE
; 1825 : 		Debug();
; 1826 : #endif
; 1827 : 		return (value <= inValue);

  0000d	8b 45 08	 mov	 eax, DWORD PTR _inValue$[ebp]
  00010	f3 0f 10 08	 movss	 xmm1, DWORD PTR [eax]
  00014	f3 0f 10 45 fc	 movss	 xmm0, DWORD PTR _value$[ebp]
  00019	0f 5a c0	 cvtps2pd xmm0, xmm0
  0001c	0f 5a c9	 cvtps2pd xmm1, xmm1
  0001f	33 c0		 xor	 eax, eax
  00021	66 0f 2f c8	 comisd	 xmm1, xmm0
  00025	72 01		 jb	 SHORT $LN4@operator
  00027	40		 inc	 eax
$LN4@operator:

; 1828 : 	}

  00028	c9		 leave
  00029	c2 04 00	 ret	 4
??N?$CEncrypt@M@@QAE_NABM@Z ENDP			; CEncrypt<float>::operator<=
_TEXT	ENDS
PUBLIC	__$ArrayPad$
PUBLIC	??$LoadString_e@$0L@@ioINILoader@@QAEXAAY0L@$$CBDAAY00$$CBDPADH@Z ; ioINILoader::LoadString_e<11>
EXTRN	__imp_?LoadStringA@ioINILoader@@QAEXPBD0PADH@Z:PROC
EXTRN	___security_cookie:DWORD
; Function compile flags: /Ogsp
; File d:\lost saga for developer\youtube\tutorial\source\src\io3dengine\ioiniloader.h
;	COMDAT ??$LoadString_e@$0L@@ioINILoader@@QAEXAAY0L@$$CBDAAY00$$CBDPADH@Z
_TEXT	SEGMENT
__k$ = -20						; size = 11
__$ArrayPad$ = -4					; size = 4
_k$ = 8							; size = 4
_d$ = 12						; size = 4
_b$ = 16						; size = 4
_i$ = 20						; size = 4
??$LoadString_e@$0L@@ioINILoader@@QAEXAAY0L@$$CBDAAY00$$CBDPADH@Z PROC ; ioINILoader::LoadString_e<11>, COMDAT
; _this$ = ecx

; 161  : 	{

  00000	55		 push	 ebp
  00001	8b ec		 mov	 ebp, esp
  00003	83 ec 14	 sub	 esp, 20			; 00000014H
  00006	a1 00 00 00 00	 mov	 eax, DWORD PTR ___security_cookie
  0000b	33 c5		 xor	 eax, ebp
  0000d	89 45 fc	 mov	 DWORD PTR __$ArrayPad$[ebp], eax
  00010	8b 45 08	 mov	 eax, DWORD PTR _k$[ebp]

; 162  : 		_ENCSTR(k, _k);

  00013	8a 10		 mov	 dl, BYTE PTR [eax]
  00015	53		 push	 ebx
  00016	56		 push	 esi
  00017	8b 75 0c	 mov	 esi, DWORD PTR _d$[ebp]
  0001a	57		 push	 edi
  0001b	8b 7d 10	 mov	 edi, DWORD PTR _b$[ebp]
  0001e	84 d2		 test	 dl, dl
  00020	0f 84 1b 01 00
	00		 je	 $LN96@LoadString
  00026	80 f2 ed	 xor	 dl, -19			; ffffffedH
  00029	88 55 ec	 mov	 BYTE PTR __k$[ebp], dl
  0002c	8a 50 01	 mov	 dl, BYTE PTR [eax+1]
  0002f	84 d2		 test	 dl, dl
  00031	0f 84 04 01 00
	00		 je	 $LN95@LoadString
  00037	b3 ec		 mov	 bl, -20			; ffffffecH
  00039	32 d3		 xor	 dl, bl
  0003b	88 55 ed	 mov	 BYTE PTR __k$[ebp+1], dl
  0003e	8a 50 02	 mov	 dl, BYTE PTR [eax+2]
  00041	84 d2		 test	 dl, dl
  00043	0f 84 ec 00 00
	00		 je	 $LN94@LoadString
  00049	80 f2 eb	 xor	 dl, -21			; ffffffebH
  0004c	88 55 ee	 mov	 BYTE PTR __k$[ebp+2], dl
  0004f	8a 50 03	 mov	 dl, BYTE PTR [eax+3]
  00052	84 d2		 test	 dl, dl
  00054	0f 84 d5 00 00
	00		 je	 $LN93@LoadString
  0005a	80 f2 ea	 xor	 dl, -22			; ffffffeaH
  0005d	88 55 ef	 mov	 BYTE PTR __k$[ebp+3], dl
  00060	8a 50 04	 mov	 dl, BYTE PTR [eax+4]
  00063	84 d2		 test	 dl, dl
  00065	0f 84 be 00 00
	00		 je	 $LN92@LoadString
  0006b	80 f2 ed	 xor	 dl, -19			; ffffffedH
  0006e	88 55 f0	 mov	 BYTE PTR __k$[ebp+4], dl
  00071	8a 50 05	 mov	 dl, BYTE PTR [eax+5]
  00074	84 d2		 test	 dl, dl
  00076	0f 84 a8 00 00
	00		 je	 $LN91@LoadString
  0007c	32 d3		 xor	 dl, bl
  0007e	88 55 f1	 mov	 BYTE PTR __k$[ebp+5], dl
  00081	8a 50 06	 mov	 dl, BYTE PTR [eax+6]
  00084	84 d2		 test	 dl, dl
  00086	0f 84 92 00 00
	00		 je	 $LN90@LoadString
  0008c	80 f2 eb	 xor	 dl, -21			; ffffffebH
  0008f	88 55 f2	 mov	 BYTE PTR __k$[ebp+6], dl
  00092	8a 50 07	 mov	 dl, BYTE PTR [eax+7]
  00095	84 d2		 test	 dl, dl
  00097	74 7f		 je	 SHORT $LN89@LoadString
  00099	80 f2 ea	 xor	 dl, -22			; ffffffeaH
  0009c	88 55 f3	 mov	 BYTE PTR __k$[ebp+7], dl
  0009f	8a 50 08	 mov	 dl, BYTE PTR [eax+8]
  000a2	84 d2		 test	 dl, dl
  000a4	74 6c		 je	 SHORT $LN88@LoadString
  000a6	80 f2 ed	 xor	 dl, -19			; ffffffedH
  000a9	88 55 f4	 mov	 BYTE PTR __k$[ebp+8], dl
  000ac	8a 50 09	 mov	 dl, BYTE PTR [eax+9]
  000af	84 d2		 test	 dl, dl
  000b1	74 5a		 je	 SHORT $LN87@LoadString
  000b3	32 d3		 xor	 dl, bl
  000b5	80 78 0a 00	 cmp	 BYTE PTR [eax+10], 0
  000b9	88 55 f5	 mov	 BYTE PTR __k$[ebp+9], dl
  000bc	0f 84 83 00 00
	00		 je	 $LN1@LoadString
  000c2	8a 50 0b	 mov	 dl, BYTE PTR [eax+11]
  000c5	84 d2		 test	 dl, dl
  000c7	74 3e		 je	 SHORT $LN85@LoadString
  000c9	80 f2 ea	 xor	 dl, -22			; ffffffeaH
  000cc	88 55 f7	 mov	 BYTE PTR __k$[ebp+11], dl
  000cf	8a 50 0c	 mov	 dl, BYTE PTR [eax+12]
  000d2	84 d2		 test	 dl, dl
  000d4	74 2b		 je	 SHORT $LN84@LoadString
  000d6	80 f2 ed	 xor	 dl, -19			; ffffffedH
  000d9	88 55 f8	 mov	 BYTE PTR __k$[ebp+12], dl
  000dc	8a 50 0d	 mov	 dl, BYTE PTR [eax+13]
  000df	84 d2		 test	 dl, dl
  000e1	74 19		 je	 SHORT $LN83@LoadString
  000e3	8a 40 0e	 mov	 al, BYTE PTR [eax+14]
  000e6	32 d3		 xor	 dl, bl
  000e8	88 55 f9	 mov	 BYTE PTR __k$[ebp+13], dl
  000eb	84 c0		 test	 al, al
  000ed	74 07		 je	 SHORT $LN82@LoadString
  000ef	34 eb		 xor	 al, -21			; ffffffebH
  000f1	88 45 fa	 mov	 BYTE PTR __k$[ebp+14], al
  000f4	eb 4f		 jmp	 SHORT $LN1@LoadString
$LN82@LoadString:
  000f6	c6 45 fa eb	 mov	 BYTE PTR __k$[ebp+14], -21 ; ffffffebH
  000fa	eb 49		 jmp	 SHORT $LN1@LoadString
$LN83@LoadString:
  000fc	88 5d f9	 mov	 BYTE PTR __k$[ebp+13], bl
  000ff	eb 44		 jmp	 SHORT $LN1@LoadString
$LN84@LoadString:
  00101	c6 45 f8 ed	 mov	 BYTE PTR __k$[ebp+12], -19 ; ffffffedH
  00105	eb 3e		 jmp	 SHORT $LN1@LoadString
$LN85@LoadString:
  00107	c6 45 f7 ea	 mov	 BYTE PTR __k$[ebp+11], -22 ; ffffffeaH
  0010b	eb 38		 jmp	 SHORT $LN1@LoadString
$LN87@LoadString:
  0010d	88 5d f5	 mov	 BYTE PTR __k$[ebp+9], bl
  00110	eb 33		 jmp	 SHORT $LN1@LoadString
$LN88@LoadString:
  00112	c6 45 f4 ed	 mov	 BYTE PTR __k$[ebp+8], -19 ; ffffffedH
  00116	eb 2d		 jmp	 SHORT $LN1@LoadString
$LN89@LoadString:
  00118	c6 45 f3 ea	 mov	 BYTE PTR __k$[ebp+7], -22 ; ffffffeaH
  0011c	eb 27		 jmp	 SHORT $LN1@LoadString
$LN90@LoadString:
  0011e	c6 45 f2 eb	 mov	 BYTE PTR __k$[ebp+6], -21 ; ffffffebH
  00122	eb 21		 jmp	 SHORT $LN1@LoadString
$LN91@LoadString:
  00124	88 5d f1	 mov	 BYTE PTR __k$[ebp+5], bl
  00127	eb 1c		 jmp	 SHORT $LN1@LoadString
$LN92@LoadString:
  00129	c6 45 f0 ed	 mov	 BYTE PTR __k$[ebp+4], -19 ; ffffffedH
  0012d	eb 16		 jmp	 SHORT $LN1@LoadString
$LN93@LoadString:
  0012f	c6 45 ef ea	 mov	 BYTE PTR __k$[ebp+3], -22 ; ffffffeaH
  00133	eb 10		 jmp	 SHORT $LN1@LoadString
$LN94@LoadString:
  00135	c6 45 ee eb	 mov	 BYTE PTR __k$[ebp+2], -21 ; ffffffebH
  00139	eb 0a		 jmp	 SHORT $LN1@LoadString
$LN95@LoadString:
  0013b	c6 45 ed ec	 mov	 BYTE PTR __k$[ebp+1], -20 ; ffffffecH
  0013f	eb 04		 jmp	 SHORT $LN1@LoadString
$LN96@LoadString:
  00141	c6 45 ec ed	 mov	 BYTE PTR __k$[ebp], -19	; ffffffedH
$LN1@LoadString:
  00145	6a 02		 push	 2
  00147	8d 45 ec	 lea	 eax, DWORD PTR __k$[ebp]
  0014a	c6 45 f6 00	 mov	 BYTE PTR __k$[ebp+10], 0
  0014e	5a		 pop	 edx
$LL104@LoadString:
  0014f	81 30 ed ec eb
	ea		 xor	 DWORD PTR [eax], -353637139 ; eaebecedH
  00155	83 c0 04	 add	 eax, 4
  00158	4a		 dec	 edx
  00159	75 f4		 jne	 SHORT $LL104@LoadString
  0015b	6a 08		 push	 8
  0015d	58		 pop	 eax
$LL101@LoadString:
  0015e	8b d0		 mov	 edx, eax
  00160	81 e2 03 00 00
	80		 and	 edx, -2147483645	; 80000003H
  00166	79 05		 jns	 SHORT $LN111@LoadString
  00168	4a		 dec	 edx
  00169	83 ca fc	 or	 edx, -4			; fffffffcH
  0016c	42		 inc	 edx
$LN111@LoadString:
  0016d	b3 ed		 mov	 bl, -19			; ffffffedH
  0016f	2a da		 sub	 bl, dl
  00171	30 5c 05 ec	 xor	 BYTE PTR __k$[ebp+eax], bl
  00175	40		 inc	 eax
  00176	83 f8 0a	 cmp	 eax, 10			; 0000000aH
  00179	7c e3		 jl	 SHORT $LL101@LoadString

; 163  : 		LoadString(_k, d, b, i);

  0017b	ff 75 14	 push	 DWORD PTR _i$[ebp]
  0017e	8d 45 ec	 lea	 eax, DWORD PTR __k$[ebp]
  00181	57		 push	 edi
  00182	56		 push	 esi
  00183	50		 push	 eax
  00184	ff 15 00 00 00
	00		 call	 DWORD PTR __imp_?LoadStringA@ioINILoader@@QAEXPBD0PADH@Z

; 164  : 	}

  0018a	8b 4d fc	 mov	 ecx, DWORD PTR __$ArrayPad$[ebp]
  0018d	5f		 pop	 edi
  0018e	5e		 pop	 esi
  0018f	33 cd		 xor	 ecx, ebp
  00191	5b		 pop	 ebx
  00192	e8 00 00 00 00	 call	 @__security_check_cookie@4
  00197	c9		 leave
  00198	c2 10 00	 ret	 16			; 00000010H
??$LoadString_e@$0L@@ioINILoader@@QAEXAAY0L@$$CBDAAY00$$CBDPADH@Z ENDP ; ioINILoader::LoadString_e<11>
_TEXT	ENDS
PUBLIC	__$ArrayPad$
PUBLIC	??$LoadBool_e@$0BH@@ioINILoader@@QAE_NAAY0BH@$$CBD_N@Z ; ioINILoader::LoadBool_e<23>
EXTRN	__imp_?LoadBool@ioINILoader@@QAE_NPBD_N@Z:PROC
; Function compile flags: /Ogsp
;	COMDAT ??$LoadBool_e@$0BH@@ioINILoader@@QAE_NAAY0BH@$$CBD_N@Z
_TEXT	SEGMENT
__k$ = -32						; size = 23
__$ArrayPad$ = -4					; size = 4
_k$ = 8							; size = 4
_b$ = 12						; size = 1
??$LoadBool_e@$0BH@@ioINILoader@@QAE_NAAY0BH@$$CBD_N@Z PROC ; ioINILoader::LoadBool_e<23>, COMDAT
; _this$ = ecx

; 101  : 	{

  00000	55		 push	 ebp
  00001	8b ec		 mov	 ebp, esp
  00003	83 ec 20	 sub	 esp, 32			; 00000020H
  00006	a1 00 00 00 00	 mov	 eax, DWORD PTR ___security_cookie
  0000b	33 c5		 xor	 eax, ebp
  0000d	89 45 fc	 mov	 DWORD PTR __$ArrayPad$[ebp], eax
  00010	8b 45 08	 mov	 eax, DWORD PTR _k$[ebp]

; 102  : 		_ENCSTR(k, _k);

  00013	8a 10		 mov	 dl, BYTE PTR [eax]
  00015	53		 push	 ebx
  00016	56		 push	 esi
  00017	8b f1		 mov	 esi, ecx
  00019	84 d2		 test	 dl, dl
  0001b	0f 84 2d 02 00
	00		 je	 $LN96@LoadBool_e
  00021	80 f2 ed	 xor	 dl, -19			; ffffffedH
  00024	88 55 e0	 mov	 BYTE PTR __k$[ebp], dl
  00027	8a 50 01	 mov	 dl, BYTE PTR [eax+1]
  0002a	84 d2		 test	 dl, dl
  0002c	0f 84 16 02 00
	00		 je	 $LN95@LoadBool_e
  00032	b1 ec		 mov	 cl, -20			; ffffffecH
  00034	32 d1		 xor	 dl, cl
  00036	88 55 e1	 mov	 BYTE PTR __k$[ebp+1], dl
  00039	8a 50 02	 mov	 dl, BYTE PTR [eax+2]
  0003c	84 d2		 test	 dl, dl
  0003e	0f 84 fe 01 00
	00		 je	 $LN94@LoadBool_e
  00044	80 f2 eb	 xor	 dl, -21			; ffffffebH
  00047	88 55 e2	 mov	 BYTE PTR __k$[ebp+2], dl
  0004a	8a 50 03	 mov	 dl, BYTE PTR [eax+3]
  0004d	84 d2		 test	 dl, dl
  0004f	0f 84 e7 01 00
	00		 je	 $LN93@LoadBool_e
  00055	b3 ea		 mov	 bl, -22			; ffffffeaH
  00057	32 d3		 xor	 dl, bl
  00059	88 55 e3	 mov	 BYTE PTR __k$[ebp+3], dl
  0005c	8a 50 04	 mov	 dl, BYTE PTR [eax+4]
  0005f	84 d2		 test	 dl, dl
  00061	0f 84 cf 01 00
	00		 je	 $LN92@LoadBool_e
  00067	80 f2 ed	 xor	 dl, -19			; ffffffedH
  0006a	88 55 e4	 mov	 BYTE PTR __k$[ebp+4], dl
  0006d	8a 50 05	 mov	 dl, BYTE PTR [eax+5]
  00070	84 d2		 test	 dl, dl
  00072	0f 84 b9 01 00
	00		 je	 $LN91@LoadBool_e
  00078	32 d1		 xor	 dl, cl
  0007a	88 55 e5	 mov	 BYTE PTR __k$[ebp+5], dl
  0007d	8a 50 06	 mov	 dl, BYTE PTR [eax+6]
  00080	84 d2		 test	 dl, dl
  00082	0f 84 a3 01 00
	00		 je	 $LN90@LoadBool_e
  00088	80 f2 eb	 xor	 dl, -21			; ffffffebH
  0008b	88 55 e6	 mov	 BYTE PTR __k$[ebp+6], dl
  0008e	8a 50 07	 mov	 dl, BYTE PTR [eax+7]
  00091	84 d2		 test	 dl, dl
  00093	0f 84 8d 01 00
	00		 je	 $LN89@LoadBool_e
  00099	32 d3		 xor	 dl, bl
  0009b	88 55 e7	 mov	 BYTE PTR __k$[ebp+7], dl
  0009e	8a 50 08	 mov	 dl, BYTE PTR [eax+8]
  000a1	84 d2		 test	 dl, dl
  000a3	0f 84 77 01 00
	00		 je	 $LN88@LoadBool_e
  000a9	80 f2 ed	 xor	 dl, -19			; ffffffedH
  000ac	88 55 e8	 mov	 BYTE PTR __k$[ebp+8], dl
  000af	8a 50 09	 mov	 dl, BYTE PTR [eax+9]
  000b2	84 d2		 test	 dl, dl
  000b4	0f 84 61 01 00
	00		 je	 $LN87@LoadBool_e
  000ba	32 d1		 xor	 dl, cl
  000bc	88 55 e9	 mov	 BYTE PTR __k$[ebp+9], dl
  000bf	8a 50 0a	 mov	 dl, BYTE PTR [eax+10]
  000c2	84 d2		 test	 dl, dl
  000c4	0f 84 4b 01 00
	00		 je	 $LN86@LoadBool_e
  000ca	80 f2 eb	 xor	 dl, -21			; ffffffebH
  000cd	88 55 ea	 mov	 BYTE PTR __k$[ebp+10], dl
  000d0	8a 50 0b	 mov	 dl, BYTE PTR [eax+11]
  000d3	84 d2		 test	 dl, dl
  000d5	0f 84 35 01 00
	00		 je	 $LN85@LoadBool_e
  000db	32 d3		 xor	 dl, bl
  000dd	88 55 eb	 mov	 BYTE PTR __k$[ebp+11], dl
  000e0	8a 50 0c	 mov	 dl, BYTE PTR [eax+12]
  000e3	84 d2		 test	 dl, dl
  000e5	0f 84 1f 01 00
	00		 je	 $LN84@LoadBool_e
  000eb	80 f2 ed	 xor	 dl, -19			; ffffffedH
  000ee	88 55 ec	 mov	 BYTE PTR __k$[ebp+12], dl
  000f1	8a 50 0d	 mov	 dl, BYTE PTR [eax+13]
  000f4	84 d2		 test	 dl, dl
  000f6	0f 84 09 01 00
	00		 je	 $LN83@LoadBool_e
  000fc	32 d1		 xor	 dl, cl
  000fe	88 55 ed	 mov	 BYTE PTR __k$[ebp+13], dl
  00101	8a 50 0e	 mov	 dl, BYTE PTR [eax+14]
  00104	84 d2		 test	 dl, dl
  00106	0f 84 f3 00 00
	00		 je	 $LN82@LoadBool_e
  0010c	80 f2 eb	 xor	 dl, -21			; ffffffebH
  0010f	88 55 ee	 mov	 BYTE PTR __k$[ebp+14], dl
  00112	8a 50 0f	 mov	 dl, BYTE PTR [eax+15]
  00115	84 d2		 test	 dl, dl
  00117	0f 84 dd 00 00
	00		 je	 $LN81@LoadBool_e
  0011d	32 d3		 xor	 dl, bl
  0011f	88 55 ef	 mov	 BYTE PTR __k$[ebp+15], dl
  00122	8a 50 10	 mov	 dl, BYTE PTR [eax+16]
  00125	84 d2		 test	 dl, dl
  00127	0f 84 c7 00 00
	00		 je	 $LN80@LoadBool_e
  0012d	80 f2 ed	 xor	 dl, -19			; ffffffedH
  00130	88 55 f0	 mov	 BYTE PTR __k$[ebp+16], dl
  00133	8a 50 11	 mov	 dl, BYTE PTR [eax+17]
  00136	84 d2		 test	 dl, dl
  00138	0f 84 b1 00 00
	00		 je	 $LN79@LoadBool_e
  0013e	32 d1		 xor	 dl, cl
  00140	88 55 f1	 mov	 BYTE PTR __k$[ebp+17], dl
  00143	8a 50 12	 mov	 dl, BYTE PTR [eax+18]
  00146	84 d2		 test	 dl, dl
  00148	0f 84 9b 00 00
	00		 je	 $LN78@LoadBool_e
  0014e	80 f2 eb	 xor	 dl, -21			; ffffffebH
  00151	88 55 f2	 mov	 BYTE PTR __k$[ebp+18], dl
  00154	8a 50 13	 mov	 dl, BYTE PTR [eax+19]
  00157	84 d2		 test	 dl, dl
  00159	0f 84 85 00 00
	00		 je	 $LN77@LoadBool_e
  0015f	32 d3		 xor	 dl, bl
  00161	88 55 f3	 mov	 BYTE PTR __k$[ebp+19], dl
  00164	8a 50 14	 mov	 dl, BYTE PTR [eax+20]
  00167	84 d2		 test	 dl, dl
  00169	74 73		 je	 SHORT $LN76@LoadBool_e
  0016b	80 f2 ed	 xor	 dl, -19			; ffffffedH
  0016e	88 55 f4	 mov	 BYTE PTR __k$[ebp+20], dl
  00171	8a 50 15	 mov	 dl, BYTE PTR [eax+21]
  00174	84 d2		 test	 dl, dl
  00176	74 61		 je	 SHORT $LN75@LoadBool_e
  00178	32 d1		 xor	 dl, cl
  0017a	80 78 16 00	 cmp	 BYTE PTR [eax+22], 0
  0017e	88 55 f5	 mov	 BYTE PTR __k$[ebp+21], dl
  00181	0f 84 cb 00 00
	00		 je	 $LN1@LoadBool_e
  00187	8a 50 17	 mov	 dl, BYTE PTR [eax+23]
  0018a	84 d2		 test	 dl, dl
  0018c	74 46		 je	 SHORT $LN73@LoadBool_e
  0018e	32 d3		 xor	 dl, bl
  00190	88 55 f7	 mov	 BYTE PTR __k$[ebp+23], dl
  00193	8a 50 18	 mov	 dl, BYTE PTR [eax+24]
  00196	84 d2		 test	 dl, dl
  00198	74 34		 je	 SHORT $LN72@LoadBool_e
  0019a	80 f2 ed	 xor	 dl, -19			; ffffffedH
  0019d	88 55 f8	 mov	 BYTE PTR __k$[ebp+24], dl
  001a0	8a 50 19	 mov	 dl, BYTE PTR [eax+25]
  001a3	84 d2		 test	 dl, dl
  001a5	74 1f		 je	 SHORT $LN71@LoadBool_e
  001a7	8a 40 1a	 mov	 al, BYTE PTR [eax+26]
  001aa	32 d1		 xor	 dl, cl
  001ac	88 55 f9	 mov	 BYTE PTR __k$[ebp+25], dl
  001af	84 c0		 test	 al, al
  001b1	74 0a		 je	 SHORT $LN70@LoadBool_e
  001b3	34 eb		 xor	 al, -21			; ffffffebH
  001b5	88 45 fa	 mov	 BYTE PTR __k$[ebp+26], al
  001b8	e9 95 00 00 00	 jmp	 $LN1@LoadBool_e
$LN70@LoadBool_e:
  001bd	c6 45 fa eb	 mov	 BYTE PTR __k$[ebp+26], -21 ; ffffffebH
  001c1	e9 8c 00 00 00	 jmp	 $LN1@LoadBool_e
$LN71@LoadBool_e:
  001c6	88 4d f9	 mov	 BYTE PTR __k$[ebp+25], cl
  001c9	e9 84 00 00 00	 jmp	 $LN1@LoadBool_e
$LN72@LoadBool_e:
  001ce	c6 45 f8 ed	 mov	 BYTE PTR __k$[ebp+24], -19 ; ffffffedH
  001d2	eb 7e		 jmp	 SHORT $LN1@LoadBool_e
$LN73@LoadBool_e:
  001d4	88 5d f7	 mov	 BYTE PTR __k$[ebp+23], bl
  001d7	eb 79		 jmp	 SHORT $LN1@LoadBool_e
$LN75@LoadBool_e:
  001d9	88 4d f5	 mov	 BYTE PTR __k$[ebp+21], cl
  001dc	eb 74		 jmp	 SHORT $LN1@LoadBool_e
$LN76@LoadBool_e:
  001de	c6 45 f4 ed	 mov	 BYTE PTR __k$[ebp+20], -19 ; ffffffedH
  001e2	eb 6e		 jmp	 SHORT $LN1@LoadBool_e
$LN77@LoadBool_e:
  001e4	88 5d f3	 mov	 BYTE PTR __k$[ebp+19], bl
  001e7	eb 69		 jmp	 SHORT $LN1@LoadBool_e
$LN78@LoadBool_e:
  001e9	c6 45 f2 eb	 mov	 BYTE PTR __k$[ebp+18], -21 ; ffffffebH
  001ed	eb 63		 jmp	 SHORT $LN1@LoadBool_e
$LN79@LoadBool_e:
  001ef	88 4d f1	 mov	 BYTE PTR __k$[ebp+17], cl
  001f2	eb 5e		 jmp	 SHORT $LN1@LoadBool_e
$LN80@LoadBool_e:
  001f4	c6 45 f0 ed	 mov	 BYTE PTR __k$[ebp+16], -19 ; ffffffedH
  001f8	eb 58		 jmp	 SHORT $LN1@LoadBool_e
$LN81@LoadBool_e:
  001fa	88 5d ef	 mov	 BYTE PTR __k$[ebp+15], bl
  001fd	eb 53		 jmp	 SHORT $LN1@LoadBool_e
$LN82@LoadBool_e:
  001ff	c6 45 ee eb	 mov	 BYTE PTR __k$[ebp+14], -21 ; ffffffebH
  00203	eb 4d		 jmp	 SHORT $LN1@LoadBool_e
$LN83@LoadBool_e:
  00205	88 4d ed	 mov	 BYTE PTR __k$[ebp+13], cl
  00208	eb 48		 jmp	 SHORT $LN1@LoadBool_e
$LN84@LoadBool_e:
  0020a	c6 45 ec ed	 mov	 BYTE PTR __k$[ebp+12], -19 ; ffffffedH
  0020e	eb 42		 jmp	 SHORT $LN1@LoadBool_e
$LN85@LoadBool_e:
  00210	88 5d eb	 mov	 BYTE PTR __k$[ebp+11], bl
  00213	eb 3d		 jmp	 SHORT $LN1@LoadBool_e
$LN86@LoadBool_e:
  00215	c6 45 ea eb	 mov	 BYTE PTR __k$[ebp+10], -21 ; ffffffebH
  00219	eb 37		 jmp	 SHORT $LN1@LoadBool_e
$LN87@LoadBool_e:
  0021b	88 4d e9	 mov	 BYTE PTR __k$[ebp+9], cl
  0021e	eb 32		 jmp	 SHORT $LN1@LoadBool_e
$LN88@LoadBool_e:
  00220	c6 45 e8 ed	 mov	 BYTE PTR __k$[ebp+8], -19 ; ffffffedH
  00224	eb 2c		 jmp	 SHORT $LN1@LoadBool_e
$LN89@LoadBool_e:
  00226	88 5d e7	 mov	 BYTE PTR __k$[ebp+7], bl
  00229	eb 27		 jmp	 SHORT $LN1@LoadBool_e
$LN90@LoadBool_e:
  0022b	c6 45 e6 eb	 mov	 BYTE PTR __k$[ebp+6], -21 ; ffffffebH
  0022f	eb 21		 jmp	 SHORT $LN1@LoadBool_e
$LN91@LoadBool_e:
  00231	88 4d e5	 mov	 BYTE PTR __k$[ebp+5], cl
  00234	eb 1c		 jmp	 SHORT $LN1@LoadBool_e
$LN92@LoadBool_e:
  00236	c6 45 e4 ed	 mov	 BYTE PTR __k$[ebp+4], -19 ; ffffffedH
  0023a	eb 16		 jmp	 SHORT $LN1@LoadBool_e
$LN93@LoadBool_e:
  0023c	c6 45 e3 ea	 mov	 BYTE PTR __k$[ebp+3], -22 ; ffffffeaH
  00240	eb 10		 jmp	 SHORT $LN1@LoadBool_e
$LN94@LoadBool_e:
  00242	c6 45 e2 eb	 mov	 BYTE PTR __k$[ebp+2], -21 ; ffffffebH
  00246	eb 0a		 jmp	 SHORT $LN1@LoadBool_e
$LN95@LoadBool_e:
  00248	c6 45 e1 ec	 mov	 BYTE PTR __k$[ebp+1], -20 ; ffffffecH
  0024c	eb 04		 jmp	 SHORT $LN1@LoadBool_e
$LN96@LoadBool_e:
  0024e	c6 45 e0 ed	 mov	 BYTE PTR __k$[ebp], -19	; ffffffedH
$LN1@LoadBool_e:
  00252	6a 05		 push	 5
  00254	8d 45 e0	 lea	 eax, DWORD PTR __k$[ebp]
  00257	c6 45 f6 00	 mov	 BYTE PTR __k$[ebp+22], 0
  0025b	5a		 pop	 edx
$LL104@LoadBool_e:
  0025c	81 30 ed ec eb
	ea		 xor	 DWORD PTR [eax], -353637139 ; eaebecedH
  00262	83 c0 04	 add	 eax, 4
  00265	4a		 dec	 edx
  00266	75 f4		 jne	 SHORT $LL104@LoadBool_e
  00268	6a 14		 push	 20			; 00000014H
  0026a	58		 pop	 eax
$LL101@LoadBool_e:
  0026b	8b c8		 mov	 ecx, eax
  0026d	81 e1 03 00 00
	80		 and	 ecx, -2147483645	; 80000003H
  00273	79 05		 jns	 SHORT $LN111@LoadBool_e
  00275	49		 dec	 ecx
  00276	83 c9 fc	 or	 ecx, -4			; fffffffcH
  00279	41		 inc	 ecx
$LN111@LoadBool_e:
  0027a	b2 ed		 mov	 dl, -19			; ffffffedH
  0027c	2a d1		 sub	 dl, cl
  0027e	30 54 05 e0	 xor	 BYTE PTR __k$[ebp+eax], dl
  00282	40		 inc	 eax
  00283	83 f8 16	 cmp	 eax, 22			; 00000016H
  00286	7c e3		 jl	 SHORT $LL101@LoadBool_e

; 103  : 		return LoadBool(_k, b);

  00288	ff 75 0c	 push	 DWORD PTR _b$[ebp]
  0028b	8d 45 e0	 lea	 eax, DWORD PTR __k$[ebp]
  0028e	50		 push	 eax
  0028f	8b ce		 mov	 ecx, esi
  00291	ff 15 00 00 00
	00		 call	 DWORD PTR __imp_?LoadBool@ioINILoader@@QAE_NPBD_N@Z

; 104  : 	}

  00297	8b 4d fc	 mov	 ecx, DWORD PTR __$ArrayPad$[ebp]
  0029a	5e		 pop	 esi
  0029b	33 cd		 xor	 ecx, ebp
  0029d	5b		 pop	 ebx
  0029e	e8 00 00 00 00	 call	 @__security_check_cookie@4
  002a3	c9		 leave
  002a4	c2 08 00	 ret	 8
??$LoadBool_e@$0BH@@ioINILoader@@QAE_NAAY0BH@$$CBD_N@Z ENDP ; ioINILoader::LoadBool_e<23>
_TEXT	ENDS
PUBLIC	__$ArrayPad$
PUBLIC	??$LoadBool_e@$0BA@@ioINILoader@@QAE_NAAY0BA@$$CBD_N@Z ; ioINILoader::LoadBool_e<16>
; Function compile flags: /Ogsp
;	COMDAT ??$LoadBool_e@$0BA@@ioINILoader@@QAE_NAAY0BA@$$CBD_N@Z
_TEXT	SEGMENT
__k$ = -24						; size = 16
__$ArrayPad$ = -4					; size = 4
_k$ = 8							; size = 4
_b$ = 12						; size = 1
??$LoadBool_e@$0BA@@ioINILoader@@QAE_NAAY0BA@$$CBD_N@Z PROC ; ioINILoader::LoadBool_e<16>, COMDAT
; _this$ = ecx

; 101  : 	{

  00000	55		 push	 ebp
  00001	8b ec		 mov	 ebp, esp
  00003	83 ec 18	 sub	 esp, 24			; 00000018H
  00006	a1 00 00 00 00	 mov	 eax, DWORD PTR ___security_cookie
  0000b	33 c5		 xor	 eax, ebp
  0000d	89 45 fc	 mov	 DWORD PTR __$ArrayPad$[ebp], eax
  00010	8b 45 08	 mov	 eax, DWORD PTR _k$[ebp]

; 102  : 		_ENCSTR(k, _k);

  00013	8a 10		 mov	 dl, BYTE PTR [eax]
  00015	56		 push	 esi
  00016	8b f1		 mov	 esi, ecx
  00018	84 d2		 test	 dl, dl
  0001a	0f 84 8c 01 00
	00		 je	 $LN96@LoadBool_e@2
  00020	80 f2 ed	 xor	 dl, -19			; ffffffedH
  00023	88 55 e8	 mov	 BYTE PTR __k$[ebp], dl
  00026	8a 50 01	 mov	 dl, BYTE PTR [eax+1]
  00029	84 d2		 test	 dl, dl
  0002b	0f 84 75 01 00
	00		 je	 $LN95@LoadBool_e@2
  00031	80 f2 ec	 xor	 dl, -20			; ffffffecH
  00034	88 55 e9	 mov	 BYTE PTR __k$[ebp+1], dl
  00037	8a 50 02	 mov	 dl, BYTE PTR [eax+2]
  0003a	84 d2		 test	 dl, dl
  0003c	0f 84 5e 01 00
	00		 je	 $LN94@LoadBool_e@2
  00042	b1 eb		 mov	 cl, -21			; ffffffebH
  00044	32 d1		 xor	 dl, cl
  00046	88 55 ea	 mov	 BYTE PTR __k$[ebp+2], dl
  00049	8a 50 03	 mov	 dl, BYTE PTR [eax+3]
  0004c	84 d2		 test	 dl, dl
  0004e	0f 84 46 01 00
	00		 je	 $LN93@LoadBool_e@2
  00054	80 f2 ea	 xor	 dl, -22			; ffffffeaH
  00057	88 55 eb	 mov	 BYTE PTR __k$[ebp+3], dl
  0005a	8a 50 04	 mov	 dl, BYTE PTR [eax+4]
  0005d	84 d2		 test	 dl, dl
  0005f	0f 84 2f 01 00
	00		 je	 $LN92@LoadBool_e@2
  00065	80 f2 ed	 xor	 dl, -19			; ffffffedH
  00068	88 55 ec	 mov	 BYTE PTR __k$[ebp+4], dl
  0006b	8a 50 05	 mov	 dl, BYTE PTR [eax+5]
  0006e	84 d2		 test	 dl, dl
  00070	0f 84 18 01 00
	00		 je	 $LN91@LoadBool_e@2
  00076	80 f2 ec	 xor	 dl, -20			; ffffffecH
  00079	88 55 ed	 mov	 BYTE PTR __k$[ebp+5], dl
  0007c	8a 50 06	 mov	 dl, BYTE PTR [eax+6]
  0007f	84 d2		 test	 dl, dl
  00081	0f 84 02 01 00
	00		 je	 $LN90@LoadBool_e@2
  00087	32 d1		 xor	 dl, cl
  00089	88 55 ee	 mov	 BYTE PTR __k$[ebp+6], dl
  0008c	8a 50 07	 mov	 dl, BYTE PTR [eax+7]
  0008f	84 d2		 test	 dl, dl
  00091	0f 84 ec 00 00
	00		 je	 $LN89@LoadBool_e@2
  00097	80 f2 ea	 xor	 dl, -22			; ffffffeaH
  0009a	88 55 ef	 mov	 BYTE PTR __k$[ebp+7], dl
  0009d	8a 50 08	 mov	 dl, BYTE PTR [eax+8]
  000a0	84 d2		 test	 dl, dl
  000a2	0f 84 d5 00 00
	00		 je	 $LN88@LoadBool_e@2
  000a8	80 f2 ed	 xor	 dl, -19			; ffffffedH
  000ab	88 55 f0	 mov	 BYTE PTR __k$[ebp+8], dl
  000ae	8a 50 09	 mov	 dl, BYTE PTR [eax+9]
  000b1	84 d2		 test	 dl, dl
  000b3	0f 84 be 00 00
	00		 je	 $LN87@LoadBool_e@2
  000b9	80 f2 ec	 xor	 dl, -20			; ffffffecH
  000bc	88 55 f1	 mov	 BYTE PTR __k$[ebp+9], dl
  000bf	8a 50 0a	 mov	 dl, BYTE PTR [eax+10]
  000c2	84 d2		 test	 dl, dl
  000c4	0f 84 a8 00 00
	00		 je	 $LN86@LoadBool_e@2
  000ca	32 d1		 xor	 dl, cl
  000cc	88 55 f2	 mov	 BYTE PTR __k$[ebp+10], dl
  000cf	8a 50 0b	 mov	 dl, BYTE PTR [eax+11]
  000d2	84 d2		 test	 dl, dl
  000d4	0f 84 92 00 00
	00		 je	 $LN85@LoadBool_e@2
  000da	80 f2 ea	 xor	 dl, -22			; ffffffeaH
  000dd	88 55 f3	 mov	 BYTE PTR __k$[ebp+11], dl
  000e0	8a 50 0c	 mov	 dl, BYTE PTR [eax+12]
  000e3	84 d2		 test	 dl, dl
  000e5	74 7f		 je	 SHORT $LN84@LoadBool_e@2
  000e7	80 f2 ed	 xor	 dl, -19			; ffffffedH
  000ea	88 55 f4	 mov	 BYTE PTR __k$[ebp+12], dl
  000ed	8a 50 0d	 mov	 dl, BYTE PTR [eax+13]
  000f0	84 d2		 test	 dl, dl
  000f2	74 6c		 je	 SHORT $LN83@LoadBool_e@2
  000f4	80 f2 ec	 xor	 dl, -20			; ffffffecH
  000f7	88 55 f5	 mov	 BYTE PTR __k$[ebp+13], dl
  000fa	8a 50 0e	 mov	 dl, BYTE PTR [eax+14]
  000fd	84 d2		 test	 dl, dl
  000ff	74 5a		 je	 SHORT $LN82@LoadBool_e@2
  00101	32 d1		 xor	 dl, cl
  00103	80 78 0f 00	 cmp	 BYTE PTR [eax+15], 0
  00107	88 55 f6	 mov	 BYTE PTR __k$[ebp+14], dl
  0010a	0f 84 a0 00 00
	00		 je	 $LN1@LoadBool_e@2
  00110	8a 50 10	 mov	 dl, BYTE PTR [eax+16]
  00113	84 d2		 test	 dl, dl
  00115	74 3e		 je	 SHORT $LN80@LoadBool_e@2
  00117	80 f2 ed	 xor	 dl, -19			; ffffffedH
  0011a	88 55 f8	 mov	 BYTE PTR __k$[ebp+16], dl
  0011d	8a 50 11	 mov	 dl, BYTE PTR [eax+17]
  00120	84 d2		 test	 dl, dl
  00122	74 2b		 je	 SHORT $LN79@LoadBool_e@2
  00124	80 f2 ec	 xor	 dl, -20			; ffffffecH
  00127	88 55 f9	 mov	 BYTE PTR __k$[ebp+17], dl
  0012a	8a 50 12	 mov	 dl, BYTE PTR [eax+18]
  0012d	84 d2		 test	 dl, dl
  0012f	74 19		 je	 SHORT $LN78@LoadBool_e@2
  00131	8a 40 13	 mov	 al, BYTE PTR [eax+19]
  00134	32 d1		 xor	 dl, cl
  00136	88 55 fa	 mov	 BYTE PTR __k$[ebp+18], dl
  00139	84 c0		 test	 al, al
  0013b	74 07		 je	 SHORT $LN77@LoadBool_e@2
  0013d	34 ea		 xor	 al, -22			; ffffffeaH
  0013f	88 45 fb	 mov	 BYTE PTR __k$[ebp+19], al
  00142	eb 6c		 jmp	 SHORT $LN1@LoadBool_e@2
$LN77@LoadBool_e@2:
  00144	c6 45 fb ea	 mov	 BYTE PTR __k$[ebp+19], -22 ; ffffffeaH
  00148	eb 66		 jmp	 SHORT $LN1@LoadBool_e@2
$LN78@LoadBool_e@2:
  0014a	88 4d fa	 mov	 BYTE PTR __k$[ebp+18], cl
  0014d	eb 61		 jmp	 SHORT $LN1@LoadBool_e@2
$LN79@LoadBool_e@2:
  0014f	c6 45 f9 ec	 mov	 BYTE PTR __k$[ebp+17], -20 ; ffffffecH
  00153	eb 5b		 jmp	 SHORT $LN1@LoadBool_e@2
$LN80@LoadBool_e@2:
  00155	c6 45 f8 ed	 mov	 BYTE PTR __k$[ebp+16], -19 ; ffffffedH
  00159	eb 55		 jmp	 SHORT $LN1@LoadBool_e@2
$LN82@LoadBool_e@2:
  0015b	88 4d f6	 mov	 BYTE PTR __k$[ebp+14], cl
  0015e	eb 50		 jmp	 SHORT $LN1@LoadBool_e@2
$LN83@LoadBool_e@2:
  00160	c6 45 f5 ec	 mov	 BYTE PTR __k$[ebp+13], -20 ; ffffffecH
  00164	eb 4a		 jmp	 SHORT $LN1@LoadBool_e@2
$LN84@LoadBool_e@2:
  00166	c6 45 f4 ed	 mov	 BYTE PTR __k$[ebp+12], -19 ; ffffffedH
  0016a	eb 44		 jmp	 SHORT $LN1@LoadBool_e@2
$LN85@LoadBool_e@2:
  0016c	c6 45 f3 ea	 mov	 BYTE PTR __k$[ebp+11], -22 ; ffffffeaH
  00170	eb 3e		 jmp	 SHORT $LN1@LoadBool_e@2
$LN86@LoadBool_e@2:
  00172	88 4d f2	 mov	 BYTE PTR __k$[ebp+10], cl
  00175	eb 39		 jmp	 SHORT $LN1@LoadBool_e@2
$LN87@LoadBool_e@2:
  00177	c6 45 f1 ec	 mov	 BYTE PTR __k$[ebp+9], -20 ; ffffffecH
  0017b	eb 33		 jmp	 SHORT $LN1@LoadBool_e@2
$LN88@LoadBool_e@2:
  0017d	c6 45 f0 ed	 mov	 BYTE PTR __k$[ebp+8], -19 ; ffffffedH
  00181	eb 2d		 jmp	 SHORT $LN1@LoadBool_e@2
$LN89@LoadBool_e@2:
  00183	c6 45 ef ea	 mov	 BYTE PTR __k$[ebp+7], -22 ; ffffffeaH
  00187	eb 27		 jmp	 SHORT $LN1@LoadBool_e@2
$LN90@LoadBool_e@2:
  00189	88 4d ee	 mov	 BYTE PTR __k$[ebp+6], cl
  0018c	eb 22		 jmp	 SHORT $LN1@LoadBool_e@2
$LN91@LoadBool_e@2:
  0018e	c6 45 ed ec	 mov	 BYTE PTR __k$[ebp+5], -20 ; ffffffecH
  00192	eb 1c		 jmp	 SHORT $LN1@LoadBool_e@2
$LN92@LoadBool_e@2:
  00194	c6 45 ec ed	 mov	 BYTE PTR __k$[ebp+4], -19 ; ffffffedH
  00198	eb 16		 jmp	 SHORT $LN1@LoadBool_e@2
$LN93@LoadBool_e@2:
  0019a	c6 45 eb ea	 mov	 BYTE PTR __k$[ebp+3], -22 ; ffffffeaH
  0019e	eb 10		 jmp	 SHORT $LN1@LoadBool_e@2
$LN94@LoadBool_e@2:
  001a0	c6 45 ea eb	 mov	 BYTE PTR __k$[ebp+2], -21 ; ffffffebH
  001a4	eb 0a		 jmp	 SHORT $LN1@LoadBool_e@2
$LN95@LoadBool_e@2:
  001a6	c6 45 e9 ec	 mov	 BYTE PTR __k$[ebp+1], -20 ; ffffffecH
  001aa	eb 04		 jmp	 SHORT $LN1@LoadBool_e@2
$LN96@LoadBool_e@2:
  001ac	c6 45 e8 ed	 mov	 BYTE PTR __k$[ebp], -19	; ffffffedH
$LN1@LoadBool_e@2:
  001b0	6a 03		 push	 3
  001b2	8d 45 e8	 lea	 eax, DWORD PTR __k$[ebp]
  001b5	c6 45 f7 00	 mov	 BYTE PTR __k$[ebp+15], 0
  001b9	5a		 pop	 edx
$LL104@LoadBool_e@2:
  001ba	81 30 ed ec eb
	ea		 xor	 DWORD PTR [eax], -353637139 ; eaebecedH
  001c0	83 c0 04	 add	 eax, 4
  001c3	4a		 dec	 edx
  001c4	75 f4		 jne	 SHORT $LL104@LoadBool_e@2
  001c6	6a 0c		 push	 12			; 0000000cH
  001c8	58		 pop	 eax
$LL101@LoadBool_e@2:
  001c9	8b c8		 mov	 ecx, eax
  001cb	81 e1 03 00 00
	80		 and	 ecx, -2147483645	; 80000003H
  001d1	79 05		 jns	 SHORT $LN111@LoadBool_e@2
  001d3	49		 dec	 ecx
  001d4	83 c9 fc	 or	 ecx, -4			; fffffffcH
  001d7	41		 inc	 ecx
$LN111@LoadBool_e@2:
  001d8	b2 ed		 mov	 dl, -19			; ffffffedH
  001da	2a d1		 sub	 dl, cl
  001dc	30 54 05 e8	 xor	 BYTE PTR __k$[ebp+eax], dl
  001e0	40		 inc	 eax
  001e1	83 f8 0f	 cmp	 eax, 15			; 0000000fH
  001e4	7c e3		 jl	 SHORT $LL101@LoadBool_e@2

; 103  : 		return LoadBool(_k, b);

  001e6	ff 75 0c	 push	 DWORD PTR _b$[ebp]
  001e9	8d 45 e8	 lea	 eax, DWORD PTR __k$[ebp]
  001ec	50		 push	 eax
  001ed	8b ce		 mov	 ecx, esi
  001ef	ff 15 00 00 00
	00		 call	 DWORD PTR __imp_?LoadBool@ioINILoader@@QAE_NPBD_N@Z

; 104  : 	}

  001f5	8b 4d fc	 mov	 ecx, DWORD PTR __$ArrayPad$[ebp]
  001f8	33 cd		 xor	 ecx, ebp
  001fa	5e		 pop	 esi
  001fb	e8 00 00 00 00	 call	 @__security_check_cookie@4
  00200	c9		 leave
  00201	c2 08 00	 ret	 8
??$LoadBool_e@$0BA@@ioINILoader@@QAE_NAAY0BA@$$CBD_N@Z ENDP ; ioINILoader::LoadBool_e<16>
_TEXT	ENDS
PUBLIC	__$ArrayPad$
PUBLIC	??$LoadFloat_e@$0BB@@ioINILoader@@QAEMAAY0BB@$$CBDM@Z ; ioINILoader::LoadFloat_e<17>
EXTRN	__imp_?LoadFloat@ioINILoader@@QAEMPBDM@Z:PROC
; Function compile flags: /Ogsp
;	COMDAT ??$LoadFloat_e@$0BB@@ioINILoader@@QAEMAAY0BB@$$CBDM@Z
_TEXT	SEGMENT
__k$ = -28						; size = 17
__$ArrayPad$ = -4					; size = 4
_k$ = 8							; size = 4
_f$ = 12						; size = 4
??$LoadFloat_e@$0BB@@ioINILoader@@QAEMAAY0BB@$$CBDM@Z PROC ; ioINILoader::LoadFloat_e<17>, COMDAT
; _this$ = ecx

; 135  : 	{

  00000	55		 push	 ebp
  00001	8b ec		 mov	 ebp, esp
  00003	83 ec 1c	 sub	 esp, 28			; 0000001cH
  00006	a1 00 00 00 00	 mov	 eax, DWORD PTR ___security_cookie
  0000b	33 c5		 xor	 eax, ebp
  0000d	89 45 fc	 mov	 DWORD PTR __$ArrayPad$[ebp], eax
  00010	8b 45 08	 mov	 eax, DWORD PTR _k$[ebp]

; 136  : 		_ENCSTR(k, _k);

  00013	8a 10		 mov	 dl, BYTE PTR [eax]
  00015	56		 push	 esi
  00016	8b f1		 mov	 esi, ecx
  00018	84 d2		 test	 dl, dl
  0001a	0f 84 a7 01 00
	00		 je	 $LN96@LoadFloat_
  00020	80 f2 ed	 xor	 dl, -19			; ffffffedH
  00023	88 55 e4	 mov	 BYTE PTR __k$[ebp], dl
  00026	8a 50 01	 mov	 dl, BYTE PTR [eax+1]
  00029	84 d2		 test	 dl, dl
  0002b	0f 84 90 01 00
	00		 je	 $LN95@LoadFloat_
  00031	b1 ec		 mov	 cl, -20			; ffffffecH
  00033	32 d1		 xor	 dl, cl
  00035	88 55 e5	 mov	 BYTE PTR __k$[ebp+1], dl
  00038	8a 50 02	 mov	 dl, BYTE PTR [eax+2]
  0003b	84 d2		 test	 dl, dl
  0003d	0f 84 78 01 00
	00		 je	 $LN94@LoadFloat_
  00043	80 f2 eb	 xor	 dl, -21			; ffffffebH
  00046	88 55 e6	 mov	 BYTE PTR __k$[ebp+2], dl
  00049	8a 50 03	 mov	 dl, BYTE PTR [eax+3]
  0004c	84 d2		 test	 dl, dl
  0004e	0f 84 61 01 00
	00		 je	 $LN93@LoadFloat_
  00054	80 f2 ea	 xor	 dl, -22			; ffffffeaH
  00057	88 55 e7	 mov	 BYTE PTR __k$[ebp+3], dl
  0005a	8a 50 04	 mov	 dl, BYTE PTR [eax+4]
  0005d	84 d2		 test	 dl, dl
  0005f	0f 84 4a 01 00
	00		 je	 $LN92@LoadFloat_
  00065	80 f2 ed	 xor	 dl, -19			; ffffffedH
  00068	88 55 e8	 mov	 BYTE PTR __k$[ebp+4], dl
  0006b	8a 50 05	 mov	 dl, BYTE PTR [eax+5]
  0006e	84 d2		 test	 dl, dl
  00070	0f 84 34 01 00
	00		 je	 $LN91@LoadFloat_
  00076	32 d1		 xor	 dl, cl
  00078	88 55 e9	 mov	 BYTE PTR __k$[ebp+5], dl
  0007b	8a 50 06	 mov	 dl, BYTE PTR [eax+6]
  0007e	84 d2		 test	 dl, dl
  00080	0f 84 1e 01 00
	00		 je	 $LN90@LoadFloat_
  00086	80 f2 eb	 xor	 dl, -21			; ffffffebH
  00089	88 55 ea	 mov	 BYTE PTR __k$[ebp+6], dl
  0008c	8a 50 07	 mov	 dl, BYTE PTR [eax+7]
  0008f	84 d2		 test	 dl, dl
  00091	0f 84 07 01 00
	00		 je	 $LN89@LoadFloat_
  00097	80 f2 ea	 xor	 dl, -22			; ffffffeaH
  0009a	88 55 eb	 mov	 BYTE PTR __k$[ebp+7], dl
  0009d	8a 50 08	 mov	 dl, BYTE PTR [eax+8]
  000a0	84 d2		 test	 dl, dl
  000a2	0f 84 f0 00 00
	00		 je	 $LN88@LoadFloat_
  000a8	80 f2 ed	 xor	 dl, -19			; ffffffedH
  000ab	88 55 ec	 mov	 BYTE PTR __k$[ebp+8], dl
  000ae	8a 50 09	 mov	 dl, BYTE PTR [eax+9]
  000b1	84 d2		 test	 dl, dl
  000b3	0f 84 da 00 00
	00		 je	 $LN87@LoadFloat_
  000b9	32 d1		 xor	 dl, cl
  000bb	88 55 ed	 mov	 BYTE PTR __k$[ebp+9], dl
  000be	8a 50 0a	 mov	 dl, BYTE PTR [eax+10]
  000c1	84 d2		 test	 dl, dl
  000c3	0f 84 c4 00 00
	00		 je	 $LN86@LoadFloat_
  000c9	80 f2 eb	 xor	 dl, -21			; ffffffebH
  000cc	88 55 ee	 mov	 BYTE PTR __k$[ebp+10], dl
  000cf	8a 50 0b	 mov	 dl, BYTE PTR [eax+11]
  000d2	84 d2		 test	 dl, dl
  000d4	0f 84 ad 00 00
	00		 je	 $LN85@LoadFloat_
  000da	80 f2 ea	 xor	 dl, -22			; ffffffeaH
  000dd	88 55 ef	 mov	 BYTE PTR __k$[ebp+11], dl
  000e0	8a 50 0c	 mov	 dl, BYTE PTR [eax+12]
  000e3	84 d2		 test	 dl, dl
  000e5	0f 84 96 00 00
	00		 je	 $LN84@LoadFloat_
  000eb	80 f2 ed	 xor	 dl, -19			; ffffffedH
  000ee	88 55 f0	 mov	 BYTE PTR __k$[ebp+12], dl
  000f1	8a 50 0d	 mov	 dl, BYTE PTR [eax+13]
  000f4	84 d2		 test	 dl, dl
  000f6	0f 84 80 00 00
	00		 je	 $LN83@LoadFloat_
  000fc	32 d1		 xor	 dl, cl
  000fe	88 55 f1	 mov	 BYTE PTR __k$[ebp+13], dl
  00101	8a 50 0e	 mov	 dl, BYTE PTR [eax+14]
  00104	84 d2		 test	 dl, dl
  00106	74 6e		 je	 SHORT $LN82@LoadFloat_
  00108	80 f2 eb	 xor	 dl, -21			; ffffffebH
  0010b	88 55 f2	 mov	 BYTE PTR __k$[ebp+14], dl
  0010e	8a 50 0f	 mov	 dl, BYTE PTR [eax+15]
  00111	84 d2		 test	 dl, dl
  00113	74 5b		 je	 SHORT $LN81@LoadFloat_
  00115	80 f2 ea	 xor	 dl, -22			; ffffffeaH
  00118	80 78 10 00	 cmp	 BYTE PTR [eax+16], 0
  0011c	88 55 f3	 mov	 BYTE PTR __k$[ebp+15], dl
  0011f	0f 84 a6 00 00
	00		 je	 $LN1@LoadFloat_
  00125	8a 50 11	 mov	 dl, BYTE PTR [eax+17]
  00128	84 d2		 test	 dl, dl
  0012a	74 3f		 je	 SHORT $LN79@LoadFloat_
  0012c	32 d1		 xor	 dl, cl
  0012e	88 55 f5	 mov	 BYTE PTR __k$[ebp+17], dl
  00131	8a 50 12	 mov	 dl, BYTE PTR [eax+18]
  00134	84 d2		 test	 dl, dl
  00136	74 2d		 je	 SHORT $LN78@LoadFloat_
  00138	80 f2 eb	 xor	 dl, -21			; ffffffebH
  0013b	88 55 f6	 mov	 BYTE PTR __k$[ebp+18], dl
  0013e	8a 50 13	 mov	 dl, BYTE PTR [eax+19]
  00141	84 d2		 test	 dl, dl
  00143	74 1a		 je	 SHORT $LN77@LoadFloat_
  00145	8a 40 14	 mov	 al, BYTE PTR [eax+20]
  00148	80 f2 ea	 xor	 dl, -22			; ffffffeaH
  0014b	88 55 f7	 mov	 BYTE PTR __k$[ebp+19], dl
  0014e	84 c0		 test	 al, al
  00150	74 07		 je	 SHORT $LN76@LoadFloat_
  00152	34 ed		 xor	 al, -19			; ffffffedH
  00154	88 45 f8	 mov	 BYTE PTR __k$[ebp+20], al
  00157	eb 72		 jmp	 SHORT $LN1@LoadFloat_
$LN76@LoadFloat_:
  00159	c6 45 f8 ed	 mov	 BYTE PTR __k$[ebp+20], -19 ; ffffffedH
  0015d	eb 6c		 jmp	 SHORT $LN1@LoadFloat_
$LN77@LoadFloat_:
  0015f	c6 45 f7 ea	 mov	 BYTE PTR __k$[ebp+19], -22 ; ffffffeaH
  00163	eb 66		 jmp	 SHORT $LN1@LoadFloat_
$LN78@LoadFloat_:
  00165	c6 45 f6 eb	 mov	 BYTE PTR __k$[ebp+18], -21 ; ffffffebH
  00169	eb 60		 jmp	 SHORT $LN1@LoadFloat_
$LN79@LoadFloat_:
  0016b	88 4d f5	 mov	 BYTE PTR __k$[ebp+17], cl
  0016e	eb 5b		 jmp	 SHORT $LN1@LoadFloat_
$LN81@LoadFloat_:
  00170	c6 45 f3 ea	 mov	 BYTE PTR __k$[ebp+15], -22 ; ffffffeaH
  00174	eb 55		 jmp	 SHORT $LN1@LoadFloat_
$LN82@LoadFloat_:
  00176	c6 45 f2 eb	 mov	 BYTE PTR __k$[ebp+14], -21 ; ffffffebH
  0017a	eb 4f		 jmp	 SHORT $LN1@LoadFloat_
$LN83@LoadFloat_:
  0017c	88 4d f1	 mov	 BYTE PTR __k$[ebp+13], cl
  0017f	eb 4a		 jmp	 SHORT $LN1@LoadFloat_
$LN84@LoadFloat_:
  00181	c6 45 f0 ed	 mov	 BYTE PTR __k$[ebp+12], -19 ; ffffffedH
  00185	eb 44		 jmp	 SHORT $LN1@LoadFloat_
$LN85@LoadFloat_:
  00187	c6 45 ef ea	 mov	 BYTE PTR __k$[ebp+11], -22 ; ffffffeaH
  0018b	eb 3e		 jmp	 SHORT $LN1@LoadFloat_
$LN86@LoadFloat_:
  0018d	c6 45 ee eb	 mov	 BYTE PTR __k$[ebp+10], -21 ; ffffffebH
  00191	eb 38		 jmp	 SHORT $LN1@LoadFloat_
$LN87@LoadFloat_:
  00193	88 4d ed	 mov	 BYTE PTR __k$[ebp+9], cl
  00196	eb 33		 jmp	 SHORT $LN1@LoadFloat_
$LN88@LoadFloat_:
  00198	c6 45 ec ed	 mov	 BYTE PTR __k$[ebp+8], -19 ; ffffffedH
  0019c	eb 2d		 jmp	 SHORT $LN1@LoadFloat_
$LN89@LoadFloat_:
  0019e	c6 45 eb ea	 mov	 BYTE PTR __k$[ebp+7], -22 ; ffffffeaH
  001a2	eb 27		 jmp	 SHORT $LN1@LoadFloat_
$LN90@LoadFloat_:
  001a4	c6 45 ea eb	 mov	 BYTE PTR __k$[ebp+6], -21 ; ffffffebH
  001a8	eb 21		 jmp	 SHORT $LN1@LoadFloat_
$LN91@LoadFloat_:
  001aa	88 4d e9	 mov	 BYTE PTR __k$[ebp+5], cl
  001ad	eb 1c		 jmp	 SHORT $LN1@LoadFloat_
$LN92@LoadFloat_:
  001af	c6 45 e8 ed	 mov	 BYTE PTR __k$[ebp+4], -19 ; ffffffedH
  001b3	eb 16		 jmp	 SHORT $LN1@LoadFloat_
$LN93@LoadFloat_:
  001b5	c6 45 e7 ea	 mov	 BYTE PTR __k$[ebp+3], -22 ; ffffffeaH
  001b9	eb 10		 jmp	 SHORT $LN1@LoadFloat_
$LN94@LoadFloat_:
  001bb	c6 45 e6 eb	 mov	 BYTE PTR __k$[ebp+2], -21 ; ffffffebH
  001bf	eb 0a		 jmp	 SHORT $LN1@LoadFloat_
$LN95@LoadFloat_:
  001c1	c6 45 e5 ec	 mov	 BYTE PTR __k$[ebp+1], -20 ; ffffffecH
  001c5	eb 04		 jmp	 SHORT $LN1@LoadFloat_
$LN96@LoadFloat_:
  001c7	c6 45 e4 ed	 mov	 BYTE PTR __k$[ebp], -19	; ffffffedH
$LN1@LoadFloat_:
  001cb	6a 04		 push	 4
  001cd	8d 45 e4	 lea	 eax, DWORD PTR __k$[ebp]
  001d0	c6 45 f4 00	 mov	 BYTE PTR __k$[ebp+16], 0
  001d4	5a		 pop	 edx
$LL104@LoadFloat_:
  001d5	81 30 ed ec eb
	ea		 xor	 DWORD PTR [eax], -353637139 ; eaebecedH
  001db	83 c0 04	 add	 eax, 4
  001de	4a		 dec	 edx
  001df	75 f4		 jne	 SHORT $LL104@LoadFloat_

; 137  : 		return LoadFloat(_k, f);

  001e1	f3 0f 10 45 0c	 movss	 xmm0, DWORD PTR _f$[ebp]
  001e6	51		 push	 ecx
  001e7	8d 45 e4	 lea	 eax, DWORD PTR __k$[ebp]
  001ea	f3 0f 11 04 24	 movss	 DWORD PTR [esp], xmm0
  001ef	50		 push	 eax
  001f0	8b ce		 mov	 ecx, esi
  001f2	ff 15 00 00 00
	00		 call	 DWORD PTR __imp_?LoadFloat@ioINILoader@@QAEMPBDM@Z

; 138  : 	}

  001f8	8b 4d fc	 mov	 ecx, DWORD PTR __$ArrayPad$[ebp]
  001fb	33 cd		 xor	 ecx, ebp
  001fd	5e		 pop	 esi
  001fe	e8 00 00 00 00	 call	 @__security_check_cookie@4
  00203	c9		 leave
  00204	c2 08 00	 ret	 8
??$LoadFloat_e@$0BB@@ioINILoader@@QAEMAAY0BB@$$CBDM@Z ENDP ; ioINILoader::LoadFloat_e<17>
_TEXT	ENDS
PUBLIC	__$ArrayPad$
PUBLIC	??$LoadBool_e@$0BD@@ioINILoader@@QAE_NAAY0BD@$$CBD_N@Z ; ioINILoader::LoadBool_e<19>
; Function compile flags: /Ogsp
;	COMDAT ??$LoadBool_e@$0BD@@ioINILoader@@QAE_NAAY0BD@$$CBD_N@Z
_TEXT	SEGMENT
__k$ = -28						; size = 19
__$ArrayPad$ = -4					; size = 4
_k$ = 8							; size = 4
_b$ = 12						; size = 1
??$LoadBool_e@$0BD@@ioINILoader@@QAE_NAAY0BD@$$CBD_N@Z PROC ; ioINILoader::LoadBool_e<19>, COMDAT
; _this$ = ecx

; 101  : 	{

  00000	55		 push	 ebp
  00001	8b ec		 mov	 ebp, esp
  00003	83 ec 1c	 sub	 esp, 28			; 0000001cH
  00006	a1 00 00 00 00	 mov	 eax, DWORD PTR ___security_cookie
  0000b	33 c5		 xor	 eax, ebp
  0000d	89 45 fc	 mov	 DWORD PTR __$ArrayPad$[ebp], eax
  00010	8b 45 08	 mov	 eax, DWORD PTR _k$[ebp]

; 102  : 		_ENCSTR(k, _k);

  00013	8a 10		 mov	 dl, BYTE PTR [eax]
  00015	56		 push	 esi
  00016	8b f1		 mov	 esi, ecx
  00018	84 d2		 test	 dl, dl
  0001a	0f 84 cf 01 00
	00		 je	 $LN96@LoadBool_e@3
  00020	80 f2 ed	 xor	 dl, -19			; ffffffedH
  00023	88 55 e4	 mov	 BYTE PTR __k$[ebp], dl
  00026	8a 50 01	 mov	 dl, BYTE PTR [eax+1]
  00029	84 d2		 test	 dl, dl
  0002b	0f 84 b8 01 00
	00		 je	 $LN95@LoadBool_e@3
  00031	b1 ec		 mov	 cl, -20			; ffffffecH
  00033	32 d1		 xor	 dl, cl
  00035	88 55 e5	 mov	 BYTE PTR __k$[ebp+1], dl
  00038	8a 50 02	 mov	 dl, BYTE PTR [eax+2]
  0003b	84 d2		 test	 dl, dl
  0003d	0f 84 a0 01 00
	00		 je	 $LN94@LoadBool_e@3
  00043	80 f2 eb	 xor	 dl, -21			; ffffffebH
  00046	88 55 e6	 mov	 BYTE PTR __k$[ebp+2], dl
  00049	8a 50 03	 mov	 dl, BYTE PTR [eax+3]
  0004c	84 d2		 test	 dl, dl
  0004e	0f 84 89 01 00
	00		 je	 $LN93@LoadBool_e@3
  00054	80 f2 ea	 xor	 dl, -22			; ffffffeaH
  00057	88 55 e7	 mov	 BYTE PTR __k$[ebp+3], dl
  0005a	8a 50 04	 mov	 dl, BYTE PTR [eax+4]
  0005d	84 d2		 test	 dl, dl
  0005f	0f 84 72 01 00
	00		 je	 $LN92@LoadBool_e@3
  00065	80 f2 ed	 xor	 dl, -19			; ffffffedH
  00068	88 55 e8	 mov	 BYTE PTR __k$[ebp+4], dl
  0006b	8a 50 05	 mov	 dl, BYTE PTR [eax+5]
  0006e	84 d2		 test	 dl, dl
  00070	0f 84 5c 01 00
	00		 je	 $LN91@LoadBool_e@3
  00076	32 d1		 xor	 dl, cl
  00078	88 55 e9	 mov	 BYTE PTR __k$[ebp+5], dl
  0007b	8a 50 06	 mov	 dl, BYTE PTR [eax+6]
  0007e	84 d2		 test	 dl, dl
  00080	0f 84 46 01 00
	00		 je	 $LN90@LoadBool_e@3
  00086	80 f2 eb	 xor	 dl, -21			; ffffffebH
  00089	88 55 ea	 mov	 BYTE PTR __k$[ebp+6], dl
  0008c	8a 50 07	 mov	 dl, BYTE PTR [eax+7]
  0008f	84 d2		 test	 dl, dl
  00091	0f 84 2f 01 00
	00		 je	 $LN89@LoadBool_e@3
  00097	80 f2 ea	 xor	 dl, -22			; ffffffeaH
  0009a	88 55 eb	 mov	 BYTE PTR __k$[ebp+7], dl
  0009d	8a 50 08	 mov	 dl, BYTE PTR [eax+8]
  000a0	84 d2		 test	 dl, dl
  000a2	0f 84 18 01 00
	00		 je	 $LN88@LoadBool_e@3
  000a8	80 f2 ed	 xor	 dl, -19			; ffffffedH
  000ab	88 55 ec	 mov	 BYTE PTR __k$[ebp+8], dl
  000ae	8a 50 09	 mov	 dl, BYTE PTR [eax+9]
  000b1	84 d2		 test	 dl, dl
  000b3	0f 84 02 01 00
	00		 je	 $LN87@LoadBool_e@3
  000b9	32 d1		 xor	 dl, cl
  000bb	88 55 ed	 mov	 BYTE PTR __k$[ebp+9], dl
  000be	8a 50 0a	 mov	 dl, BYTE PTR [eax+10]
  000c1	84 d2		 test	 dl, dl
  000c3	0f 84 ec 00 00
	00		 je	 $LN86@LoadBool_e@3
  000c9	80 f2 eb	 xor	 dl, -21			; ffffffebH
  000cc	88 55 ee	 mov	 BYTE PTR __k$[ebp+10], dl
  000cf	8a 50 0b	 mov	 dl, BYTE PTR [eax+11]
  000d2	84 d2		 test	 dl, dl
  000d4	0f 84 d5 00 00
	00		 je	 $LN85@LoadBool_e@3
  000da	80 f2 ea	 xor	 dl, -22			; ffffffeaH
  000dd	88 55 ef	 mov	 BYTE PTR __k$[ebp+11], dl
  000e0	8a 50 0c	 mov	 dl, BYTE PTR [eax+12]
  000e3	84 d2		 test	 dl, dl
  000e5	0f 84 be 00 00
	00		 je	 $LN84@LoadBool_e@3
  000eb	80 f2 ed	 xor	 dl, -19			; ffffffedH
  000ee	88 55 f0	 mov	 BYTE PTR __k$[ebp+12], dl
  000f1	8a 50 0d	 mov	 dl, BYTE PTR [eax+13]
  000f4	84 d2		 test	 dl, dl
  000f6	0f 84 a8 00 00
	00		 je	 $LN83@LoadBool_e@3
  000fc	32 d1		 xor	 dl, cl
  000fe	88 55 f1	 mov	 BYTE PTR __k$[ebp+13], dl
  00101	8a 50 0e	 mov	 dl, BYTE PTR [eax+14]
  00104	84 d2		 test	 dl, dl
  00106	0f 84 92 00 00
	00		 je	 $LN82@LoadBool_e@3
  0010c	80 f2 eb	 xor	 dl, -21			; ffffffebH
  0010f	88 55 f2	 mov	 BYTE PTR __k$[ebp+14], dl
  00112	8a 50 0f	 mov	 dl, BYTE PTR [eax+15]
  00115	84 d2		 test	 dl, dl
  00117	74 7f		 je	 SHORT $LN81@LoadBool_e@3
  00119	80 f2 ea	 xor	 dl, -22			; ffffffeaH
  0011c	88 55 f3	 mov	 BYTE PTR __k$[ebp+15], dl
  0011f	8a 50 10	 mov	 dl, BYTE PTR [eax+16]
  00122	84 d2		 test	 dl, dl
  00124	74 6c		 je	 SHORT $LN80@LoadBool_e@3
  00126	80 f2 ed	 xor	 dl, -19			; ffffffedH
  00129	88 55 f4	 mov	 BYTE PTR __k$[ebp+16], dl
  0012c	8a 50 11	 mov	 dl, BYTE PTR [eax+17]
  0012f	84 d2		 test	 dl, dl
  00131	74 5a		 je	 SHORT $LN79@LoadBool_e@3
  00133	32 d1		 xor	 dl, cl
  00135	80 78 12 00	 cmp	 BYTE PTR [eax+18], 0
  00139	88 55 f5	 mov	 BYTE PTR __k$[ebp+17], dl
  0013c	0f 84 b1 00 00
	00		 je	 $LN1@LoadBool_e@3
  00142	8a 50 13	 mov	 dl, BYTE PTR [eax+19]
  00145	84 d2		 test	 dl, dl
  00147	74 3e		 je	 SHORT $LN77@LoadBool_e@3
  00149	80 f2 ea	 xor	 dl, -22			; ffffffeaH
  0014c	88 55 f7	 mov	 BYTE PTR __k$[ebp+19], dl
  0014f	8a 50 14	 mov	 dl, BYTE PTR [eax+20]
  00152	84 d2		 test	 dl, dl
  00154	74 2b		 je	 SHORT $LN76@LoadBool_e@3
  00156	80 f2 ed	 xor	 dl, -19			; ffffffedH
  00159	88 55 f8	 mov	 BYTE PTR __k$[ebp+20], dl
  0015c	8a 50 15	 mov	 dl, BYTE PTR [eax+21]
  0015f	84 d2		 test	 dl, dl
  00161	74 19		 je	 SHORT $LN75@LoadBool_e@3
  00163	8a 40 16	 mov	 al, BYTE PTR [eax+22]
  00166	32 d1		 xor	 dl, cl
  00168	88 55 f9	 mov	 BYTE PTR __k$[ebp+21], dl
  0016b	84 c0		 test	 al, al
  0016d	74 07		 je	 SHORT $LN74@LoadBool_e@3
  0016f	34 eb		 xor	 al, -21			; ffffffebH
  00171	88 45 fa	 mov	 BYTE PTR __k$[ebp+22], al
  00174	eb 7d		 jmp	 SHORT $LN1@LoadBool_e@3
$LN74@LoadBool_e@3:
  00176	c6 45 fa eb	 mov	 BYTE PTR __k$[ebp+22], -21 ; ffffffebH
  0017a	eb 77		 jmp	 SHORT $LN1@LoadBool_e@3
$LN75@LoadBool_e@3:
  0017c	88 4d f9	 mov	 BYTE PTR __k$[ebp+21], cl
  0017f	eb 72		 jmp	 SHORT $LN1@LoadBool_e@3
$LN76@LoadBool_e@3:
  00181	c6 45 f8 ed	 mov	 BYTE PTR __k$[ebp+20], -19 ; ffffffedH
  00185	eb 6c		 jmp	 SHORT $LN1@LoadBool_e@3
$LN77@LoadBool_e@3:
  00187	c6 45 f7 ea	 mov	 BYTE PTR __k$[ebp+19], -22 ; ffffffeaH
  0018b	eb 66		 jmp	 SHORT $LN1@LoadBool_e@3
$LN79@LoadBool_e@3:
  0018d	88 4d f5	 mov	 BYTE PTR __k$[ebp+17], cl
  00190	eb 61		 jmp	 SHORT $LN1@LoadBool_e@3
$LN80@LoadBool_e@3:
  00192	c6 45 f4 ed	 mov	 BYTE PTR __k$[ebp+16], -19 ; ffffffedH
  00196	eb 5b		 jmp	 SHORT $LN1@LoadBool_e@3
$LN81@LoadBool_e@3:
  00198	c6 45 f3 ea	 mov	 BYTE PTR __k$[ebp+15], -22 ; ffffffeaH
  0019c	eb 55		 jmp	 SHORT $LN1@LoadBool_e@3
$LN82@LoadBool_e@3:
  0019e	c6 45 f2 eb	 mov	 BYTE PTR __k$[ebp+14], -21 ; ffffffebH
  001a2	eb 4f		 jmp	 SHORT $LN1@LoadBool_e@3
$LN83@LoadBool_e@3:
  001a4	88 4d f1	 mov	 BYTE PTR __k$[ebp+13], cl
  001a7	eb 4a		 jmp	 SHORT $LN1@LoadBool_e@3
$LN84@LoadBool_e@3:
  001a9	c6 45 f0 ed	 mov	 BYTE PTR __k$[ebp+12], -19 ; ffffffedH
  001ad	eb 44		 jmp	 SHORT $LN1@LoadBool_e@3
$LN85@LoadBool_e@3:
  001af	c6 45 ef ea	 mov	 BYTE PTR __k$[ebp+11], -22 ; ffffffeaH
  001b3	eb 3e		 jmp	 SHORT $LN1@LoadBool_e@3
$LN86@LoadBool_e@3:
  001b5	c6 45 ee eb	 mov	 BYTE PTR __k$[ebp+10], -21 ; ffffffebH
  001b9	eb 38		 jmp	 SHORT $LN1@LoadBool_e@3
$LN87@LoadBool_e@3:
  001bb	88 4d ed	 mov	 BYTE PTR __k$[ebp+9], cl
  001be	eb 33		 jmp	 SHORT $LN1@LoadBool_e@3
$LN88@LoadBool_e@3:
  001c0	c6 45 ec ed	 mov	 BYTE PTR __k$[ebp+8], -19 ; ffffffedH
  001c4	eb 2d		 jmp	 SHORT $LN1@LoadBool_e@3
$LN89@LoadBool_e@3:
  001c6	c6 45 eb ea	 mov	 BYTE PTR __k$[ebp+7], -22 ; ffffffeaH
  001ca	eb 27		 jmp	 SHORT $LN1@LoadBool_e@3
$LN90@LoadBool_e@3:
  001cc	c6 45 ea eb	 mov	 BYTE PTR __k$[ebp+6], -21 ; ffffffebH
  001d0	eb 21		 jmp	 SHORT $LN1@LoadBool_e@3
$LN91@LoadBool_e@3:
  001d2	88 4d e9	 mov	 BYTE PTR __k$[ebp+5], cl
  001d5	eb 1c		 jmp	 SHORT $LN1@LoadBool_e@3
$LN92@LoadBool_e@3:
  001d7	c6 45 e8 ed	 mov	 BYTE PTR __k$[ebp+4], -19 ; ffffffedH
  001db	eb 16		 jmp	 SHORT $LN1@LoadBool_e@3
$LN93@LoadBool_e@3:
  001dd	c6 45 e7 ea	 mov	 BYTE PTR __k$[ebp+3], -22 ; ffffffeaH
  001e1	eb 10		 jmp	 SHORT $LN1@LoadBool_e@3
$LN94@LoadBool_e@3:
  001e3	c6 45 e6 eb	 mov	 BYTE PTR __k$[ebp+2], -21 ; ffffffebH
  001e7	eb 0a		 jmp	 SHORT $LN1@LoadBool_e@3
$LN95@LoadBool_e@3:
  001e9	c6 45 e5 ec	 mov	 BYTE PTR __k$[ebp+1], -20 ; ffffffecH
  001ed	eb 04		 jmp	 SHORT $LN1@LoadBool_e@3
$LN96@LoadBool_e@3:
  001ef	c6 45 e4 ed	 mov	 BYTE PTR __k$[ebp], -19	; ffffffedH
$LN1@LoadBool_e@3:
  001f3	6a 04		 push	 4
  001f5	8d 45 e4	 lea	 eax, DWORD PTR __k$[ebp]
  001f8	c6 45 f6 00	 mov	 BYTE PTR __k$[ebp+18], 0
  001fc	5a		 pop	 edx
$LL104@LoadBool_e@3:
  001fd	81 30 ed ec eb
	ea		 xor	 DWORD PTR [eax], -353637139 ; eaebecedH
  00203	83 c0 04	 add	 eax, 4
  00206	4a		 dec	 edx
  00207	75 f4		 jne	 SHORT $LL104@LoadBool_e@3
  00209	6a 10		 push	 16			; 00000010H
  0020b	58		 pop	 eax
$LL101@LoadBool_e@3:
  0020c	8b c8		 mov	 ecx, eax
  0020e	81 e1 03 00 00
	80		 and	 ecx, -2147483645	; 80000003H
  00214	79 05		 jns	 SHORT $LN111@LoadBool_e@3
  00216	49		 dec	 ecx
  00217	83 c9 fc	 or	 ecx, -4			; fffffffcH
  0021a	41		 inc	 ecx
$LN111@LoadBool_e@3:
  0021b	b2 ed		 mov	 dl, -19			; ffffffedH
  0021d	2a d1		 sub	 dl, cl
  0021f	30 54 05 e4	 xor	 BYTE PTR __k$[ebp+eax], dl
  00223	40		 inc	 eax
  00224	83 f8 12	 cmp	 eax, 18			; 00000012H
  00227	7c e3		 jl	 SHORT $LL101@LoadBool_e@3

; 103  : 		return LoadBool(_k, b);

  00229	ff 75 0c	 push	 DWORD PTR _b$[ebp]
  0022c	8d 45 e4	 lea	 eax, DWORD PTR __k$[ebp]
  0022f	50		 push	 eax
  00230	8b ce		 mov	 ecx, esi
  00232	ff 15 00 00 00
	00		 call	 DWORD PTR __imp_?LoadBool@ioINILoader@@QAE_NPBD_N@Z

; 104  : 	}

  00238	8b 4d fc	 mov	 ecx, DWORD PTR __$ArrayPad$[ebp]
  0023b	33 cd		 xor	 ecx, ebp
  0023d	5e		 pop	 esi
  0023e	e8 00 00 00 00	 call	 @__security_check_cookie@4
  00243	c9		 leave
  00244	c2 08 00	 ret	 8
??$LoadBool_e@$0BD@@ioINILoader@@QAE_NAAY0BD@$$CBD_N@Z ENDP ; ioINILoader::LoadBool_e<19>
_TEXT	ENDS
PUBLIC	__$ArrayPad$
PUBLIC	??$LoadInt_e@$0P@@ioINILoader@@QAEHAAY0P@$$CBDH@Z ; ioINILoader::LoadInt_e<15>
EXTRN	__imp_?LoadInt@ioINILoader@@QAEHPBDH@Z:PROC
; Function compile flags: /Ogsp
;	COMDAT ??$LoadInt_e@$0P@@ioINILoader@@QAEHAAY0P@$$CBDH@Z
_TEXT	SEGMENT
__k$ = -24						; size = 15
__$ArrayPad$ = -4					; size = 4
_k$ = 8							; size = 4
_i$ = 12						; size = 4
??$LoadInt_e@$0P@@ioINILoader@@QAEHAAY0P@$$CBDH@Z PROC	; ioINILoader::LoadInt_e<15>, COMDAT
; _this$ = ecx

; 118  : 	{

  00000	55		 push	 ebp
  00001	8b ec		 mov	 ebp, esp
  00003	83 ec 18	 sub	 esp, 24			; 00000018H
  00006	a1 00 00 00 00	 mov	 eax, DWORD PTR ___security_cookie
  0000b	33 c5		 xor	 eax, ebp
  0000d	89 45 fc	 mov	 DWORD PTR __$ArrayPad$[ebp], eax
  00010	8b 45 08	 mov	 eax, DWORD PTR _k$[ebp]

; 119  : 		_ENCSTR(k, _k);

  00013	8a 10		 mov	 dl, BYTE PTR [eax]
  00015	56		 push	 esi
  00016	8b f1		 mov	 esi, ecx
  00018	84 d2		 test	 dl, dl
  0001a	0f 84 75 01 00
	00		 je	 $LN96@LoadInt_e
  00020	80 f2 ed	 xor	 dl, -19			; ffffffedH
  00023	88 55 e8	 mov	 BYTE PTR __k$[ebp], dl
  00026	8a 50 01	 mov	 dl, BYTE PTR [eax+1]
  00029	84 d2		 test	 dl, dl
  0002b	0f 84 5e 01 00
	00		 je	 $LN95@LoadInt_e
  00031	b1 ec		 mov	 cl, -20			; ffffffecH
  00033	32 d1		 xor	 dl, cl
  00035	88 55 e9	 mov	 BYTE PTR __k$[ebp+1], dl
  00038	8a 50 02	 mov	 dl, BYTE PTR [eax+2]
  0003b	84 d2		 test	 dl, dl
  0003d	0f 84 46 01 00
	00		 je	 $LN94@LoadInt_e
  00043	80 f2 eb	 xor	 dl, -21			; ffffffebH
  00046	88 55 ea	 mov	 BYTE PTR __k$[ebp+2], dl
  00049	8a 50 03	 mov	 dl, BYTE PTR [eax+3]
  0004c	84 d2		 test	 dl, dl
  0004e	0f 84 2f 01 00
	00		 je	 $LN93@LoadInt_e
  00054	80 f2 ea	 xor	 dl, -22			; ffffffeaH
  00057	88 55 eb	 mov	 BYTE PTR __k$[ebp+3], dl
  0005a	8a 50 04	 mov	 dl, BYTE PTR [eax+4]
  0005d	84 d2		 test	 dl, dl
  0005f	0f 84 18 01 00
	00		 je	 $LN92@LoadInt_e
  00065	80 f2 ed	 xor	 dl, -19			; ffffffedH
  00068	88 55 ec	 mov	 BYTE PTR __k$[ebp+4], dl
  0006b	8a 50 05	 mov	 dl, BYTE PTR [eax+5]
  0006e	84 d2		 test	 dl, dl
  00070	0f 84 02 01 00
	00		 je	 $LN91@LoadInt_e
  00076	32 d1		 xor	 dl, cl
  00078	88 55 ed	 mov	 BYTE PTR __k$[ebp+5], dl
  0007b	8a 50 06	 mov	 dl, BYTE PTR [eax+6]
  0007e	84 d2		 test	 dl, dl
  00080	0f 84 ec 00 00
	00		 je	 $LN90@LoadInt_e
  00086	80 f2 eb	 xor	 dl, -21			; ffffffebH
  00089	88 55 ee	 mov	 BYTE PTR __k$[ebp+6], dl
  0008c	8a 50 07	 mov	 dl, BYTE PTR [eax+7]
  0008f	84 d2		 test	 dl, dl
  00091	0f 84 d5 00 00
	00		 je	 $LN89@LoadInt_e
  00097	80 f2 ea	 xor	 dl, -22			; ffffffeaH
  0009a	88 55 ef	 mov	 BYTE PTR __k$[ebp+7], dl
  0009d	8a 50 08	 mov	 dl, BYTE PTR [eax+8]
  000a0	84 d2		 test	 dl, dl
  000a2	0f 84 be 00 00
	00		 je	 $LN88@LoadInt_e
  000a8	80 f2 ed	 xor	 dl, -19			; ffffffedH
  000ab	88 55 f0	 mov	 BYTE PTR __k$[ebp+8], dl
  000ae	8a 50 09	 mov	 dl, BYTE PTR [eax+9]
  000b1	84 d2		 test	 dl, dl
  000b3	0f 84 a8 00 00
	00		 je	 $LN87@LoadInt_e
  000b9	32 d1		 xor	 dl, cl
  000bb	88 55 f1	 mov	 BYTE PTR __k$[ebp+9], dl
  000be	8a 50 0a	 mov	 dl, BYTE PTR [eax+10]
  000c1	84 d2		 test	 dl, dl
  000c3	0f 84 92 00 00
	00		 je	 $LN86@LoadInt_e
  000c9	80 f2 eb	 xor	 dl, -21			; ffffffebH
  000cc	88 55 f2	 mov	 BYTE PTR __k$[ebp+10], dl
  000cf	8a 50 0b	 mov	 dl, BYTE PTR [eax+11]
  000d2	84 d2		 test	 dl, dl
  000d4	74 7f		 je	 SHORT $LN85@LoadInt_e
  000d6	80 f2 ea	 xor	 dl, -22			; ffffffeaH
  000d9	88 55 f3	 mov	 BYTE PTR __k$[ebp+11], dl
  000dc	8a 50 0c	 mov	 dl, BYTE PTR [eax+12]
  000df	84 d2		 test	 dl, dl
  000e1	74 6c		 je	 SHORT $LN84@LoadInt_e
  000e3	80 f2 ed	 xor	 dl, -19			; ffffffedH
  000e6	88 55 f4	 mov	 BYTE PTR __k$[ebp+12], dl
  000e9	8a 50 0d	 mov	 dl, BYTE PTR [eax+13]
  000ec	84 d2		 test	 dl, dl
  000ee	74 5a		 je	 SHORT $LN83@LoadInt_e
  000f0	32 d1		 xor	 dl, cl
  000f2	80 78 0e 00	 cmp	 BYTE PTR [eax+14], 0
  000f6	88 55 f5	 mov	 BYTE PTR __k$[ebp+13], dl
  000f9	0f 84 9a 00 00
	00		 je	 $LN1@LoadInt_e
  000ff	8a 50 0f	 mov	 dl, BYTE PTR [eax+15]
  00102	84 d2		 test	 dl, dl
  00104	74 3e		 je	 SHORT $LN81@LoadInt_e
  00106	80 f2 ea	 xor	 dl, -22			; ffffffeaH
  00109	88 55 f7	 mov	 BYTE PTR __k$[ebp+15], dl
  0010c	8a 50 10	 mov	 dl, BYTE PTR [eax+16]
  0010f	84 d2		 test	 dl, dl
  00111	74 2b		 je	 SHORT $LN80@LoadInt_e
  00113	80 f2 ed	 xor	 dl, -19			; ffffffedH
  00116	88 55 f8	 mov	 BYTE PTR __k$[ebp+16], dl
  00119	8a 50 11	 mov	 dl, BYTE PTR [eax+17]
  0011c	84 d2		 test	 dl, dl
  0011e	74 19		 je	 SHORT $LN79@LoadInt_e
  00120	8a 40 12	 mov	 al, BYTE PTR [eax+18]
  00123	32 d1		 xor	 dl, cl
  00125	88 55 f9	 mov	 BYTE PTR __k$[ebp+17], dl
  00128	84 c0		 test	 al, al
  0012a	74 07		 je	 SHORT $LN78@LoadInt_e
  0012c	34 eb		 xor	 al, -21			; ffffffebH
  0012e	88 45 fa	 mov	 BYTE PTR __k$[ebp+18], al
  00131	eb 66		 jmp	 SHORT $LN1@LoadInt_e
$LN78@LoadInt_e:
  00133	c6 45 fa eb	 mov	 BYTE PTR __k$[ebp+18], -21 ; ffffffebH
  00137	eb 60		 jmp	 SHORT $LN1@LoadInt_e
$LN79@LoadInt_e:
  00139	88 4d f9	 mov	 BYTE PTR __k$[ebp+17], cl
  0013c	eb 5b		 jmp	 SHORT $LN1@LoadInt_e
$LN80@LoadInt_e:
  0013e	c6 45 f8 ed	 mov	 BYTE PTR __k$[ebp+16], -19 ; ffffffedH
  00142	eb 55		 jmp	 SHORT $LN1@LoadInt_e
$LN81@LoadInt_e:
  00144	c6 45 f7 ea	 mov	 BYTE PTR __k$[ebp+15], -22 ; ffffffeaH
  00148	eb 4f		 jmp	 SHORT $LN1@LoadInt_e
$LN83@LoadInt_e:
  0014a	88 4d f5	 mov	 BYTE PTR __k$[ebp+13], cl
  0014d	eb 4a		 jmp	 SHORT $LN1@LoadInt_e
$LN84@LoadInt_e:
  0014f	c6 45 f4 ed	 mov	 BYTE PTR __k$[ebp+12], -19 ; ffffffedH
  00153	eb 44		 jmp	 SHORT $LN1@LoadInt_e
$LN85@LoadInt_e:
  00155	c6 45 f3 ea	 mov	 BYTE PTR __k$[ebp+11], -22 ; ffffffeaH
  00159	eb 3e		 jmp	 SHORT $LN1@LoadInt_e
$LN86@LoadInt_e:
  0015b	c6 45 f2 eb	 mov	 BYTE PTR __k$[ebp+10], -21 ; ffffffebH
  0015f	eb 38		 jmp	 SHORT $LN1@LoadInt_e
$LN87@LoadInt_e:
  00161	88 4d f1	 mov	 BYTE PTR __k$[ebp+9], cl
  00164	eb 33		 jmp	 SHORT $LN1@LoadInt_e
$LN88@LoadInt_e:
  00166	c6 45 f0 ed	 mov	 BYTE PTR __k$[ebp+8], -19 ; ffffffedH
  0016a	eb 2d		 jmp	 SHORT $LN1@LoadInt_e
$LN89@LoadInt_e:
  0016c	c6 45 ef ea	 mov	 BYTE PTR __k$[ebp+7], -22 ; ffffffeaH
  00170	eb 27		 jmp	 SHORT $LN1@LoadInt_e
$LN90@LoadInt_e:
  00172	c6 45 ee eb	 mov	 BYTE PTR __k$[ebp+6], -21 ; ffffffebH
  00176	eb 21		 jmp	 SHORT $LN1@LoadInt_e
$LN91@LoadInt_e:
  00178	88 4d ed	 mov	 BYTE PTR __k$[ebp+5], cl
  0017b	eb 1c		 jmp	 SHORT $LN1@LoadInt_e
$LN92@LoadInt_e:
  0017d	c6 45 ec ed	 mov	 BYTE PTR __k$[ebp+4], -19 ; ffffffedH
  00181	eb 16		 jmp	 SHORT $LN1@LoadInt_e
$LN93@LoadInt_e:
  00183	c6 45 eb ea	 mov	 BYTE PTR __k$[ebp+3], -22 ; ffffffeaH
  00187	eb 10		 jmp	 SHORT $LN1@LoadInt_e
$LN94@LoadInt_e:
  00189	c6 45 ea eb	 mov	 BYTE PTR __k$[ebp+2], -21 ; ffffffebH
  0018d	eb 0a		 jmp	 SHORT $LN1@LoadInt_e
$LN95@LoadInt_e:
  0018f	c6 45 e9 ec	 mov	 BYTE PTR __k$[ebp+1], -20 ; ffffffecH
  00193	eb 04		 jmp	 SHORT $LN1@LoadInt_e
$LN96@LoadInt_e:
  00195	c6 45 e8 ed	 mov	 BYTE PTR __k$[ebp], -19	; ffffffedH
$LN1@LoadInt_e:
  00199	6a 03		 push	 3
  0019b	8d 45 e8	 lea	 eax, DWORD PTR __k$[ebp]
  0019e	c6 45 f6 00	 mov	 BYTE PTR __k$[ebp+14], 0
  001a2	5a		 pop	 edx
$LL104@LoadInt_e:
  001a3	81 30 ed ec eb
	ea		 xor	 DWORD PTR [eax], -353637139 ; eaebecedH
  001a9	83 c0 04	 add	 eax, 4
  001ac	4a		 dec	 edx
  001ad	75 f4		 jne	 SHORT $LL104@LoadInt_e
  001af	6a 0c		 push	 12			; 0000000cH
  001b1	58		 pop	 eax
$LL101@LoadInt_e:
  001b2	8b c8		 mov	 ecx, eax
  001b4	81 e1 03 00 00
	80		 and	 ecx, -2147483645	; 80000003H
  001ba	79 05		 jns	 SHORT $LN111@LoadInt_e
  001bc	49		 dec	 ecx
  001bd	83 c9 fc	 or	 ecx, -4			; fffffffcH
  001c0	41		 inc	 ecx
$LN111@LoadInt_e:
  001c1	b2 ed		 mov	 dl, -19			; ffffffedH
  001c3	2a d1		 sub	 dl, cl
  001c5	30 54 05 e8	 xor	 BYTE PTR __k$[ebp+eax], dl
  001c9	40		 inc	 eax
  001ca	83 f8 0e	 cmp	 eax, 14			; 0000000eH
  001cd	7c e3		 jl	 SHORT $LL101@LoadInt_e

; 120  : 		return LoadInt(_k, i);

  001cf	ff 75 0c	 push	 DWORD PTR _i$[ebp]
  001d2	8d 45 e8	 lea	 eax, DWORD PTR __k$[ebp]
  001d5	50		 push	 eax
  001d6	8b ce		 mov	 ecx, esi
  001d8	ff 15 00 00 00
	00		 call	 DWORD PTR __imp_?LoadInt@ioINILoader@@QAEHPBDH@Z

; 121  : 	}

  001de	8b 4d fc	 mov	 ecx, DWORD PTR __$ArrayPad$[ebp]
  001e1	33 cd		 xor	 ecx, ebp
  001e3	5e		 pop	 esi
  001e4	e8 00 00 00 00	 call	 @__security_check_cookie@4
  001e9	c9		 leave
  001ea	c2 08 00	 ret	 8
??$LoadInt_e@$0P@@ioINILoader@@QAEHAAY0P@$$CBDH@Z ENDP	; ioINILoader::LoadInt_e<15>
_TEXT	ENDS
PUBLIC	__$ArrayPad$
PUBLIC	??$LoadInt_e@$0BA@@ioINILoader@@QAEHAAY0BA@$$CBDH@Z ; ioINILoader::LoadInt_e<16>
; Function compile flags: /Ogsp
;	COMDAT ??$LoadInt_e@$0BA@@ioINILoader@@QAEHAAY0BA@$$CBDH@Z
_TEXT	SEGMENT
__k$ = -24						; size = 16
__$ArrayPad$ = -4					; size = 4
_k$ = 8							; size = 4
_i$ = 12						; size = 4
??$LoadInt_e@$0BA@@ioINILoader@@QAEHAAY0BA@$$CBDH@Z PROC ; ioINILoader::LoadInt_e<16>, COMDAT
; _this$ = ecx

; 118  : 	{

  00000	55		 push	 ebp
  00001	8b ec		 mov	 ebp, esp
  00003	83 ec 18	 sub	 esp, 24			; 00000018H
  00006	a1 00 00 00 00	 mov	 eax, DWORD PTR ___security_cookie
  0000b	33 c5		 xor	 eax, ebp
  0000d	89 45 fc	 mov	 DWORD PTR __$ArrayPad$[ebp], eax
  00010	8b 45 08	 mov	 eax, DWORD PTR _k$[ebp]

; 119  : 		_ENCSTR(k, _k);

  00013	8a 10		 mov	 dl, BYTE PTR [eax]
  00015	56		 push	 esi
  00016	8b f1		 mov	 esi, ecx
  00018	84 d2		 test	 dl, dl
  0001a	0f 84 8c 01 00
	00		 je	 $LN96@LoadInt_e@2
  00020	80 f2 ed	 xor	 dl, -19			; ffffffedH
  00023	88 55 e8	 mov	 BYTE PTR __k$[ebp], dl
  00026	8a 50 01	 mov	 dl, BYTE PTR [eax+1]
  00029	84 d2		 test	 dl, dl
  0002b	0f 84 75 01 00
	00		 je	 $LN95@LoadInt_e@2
  00031	80 f2 ec	 xor	 dl, -20			; ffffffecH
  00034	88 55 e9	 mov	 BYTE PTR __k$[ebp+1], dl
  00037	8a 50 02	 mov	 dl, BYTE PTR [eax+2]
  0003a	84 d2		 test	 dl, dl
  0003c	0f 84 5e 01 00
	00		 je	 $LN94@LoadInt_e@2
  00042	b1 eb		 mov	 cl, -21			; ffffffebH
  00044	32 d1		 xor	 dl, cl
  00046	88 55 ea	 mov	 BYTE PTR __k$[ebp+2], dl
  00049	8a 50 03	 mov	 dl, BYTE PTR [eax+3]
  0004c	84 d2		 test	 dl, dl
  0004e	0f 84 46 01 00
	00		 je	 $LN93@LoadInt_e@2
  00054	80 f2 ea	 xor	 dl, -22			; ffffffeaH
  00057	88 55 eb	 mov	 BYTE PTR __k$[ebp+3], dl
  0005a	8a 50 04	 mov	 dl, BYTE PTR [eax+4]
  0005d	84 d2		 test	 dl, dl
  0005f	0f 84 2f 01 00
	00		 je	 $LN92@LoadInt_e@2
  00065	80 f2 ed	 xor	 dl, -19			; ffffffedH
  00068	88 55 ec	 mov	 BYTE PTR __k$[ebp+4], dl
  0006b	8a 50 05	 mov	 dl, BYTE PTR [eax+5]
  0006e	84 d2		 test	 dl, dl
  00070	0f 84 18 01 00
	00		 je	 $LN91@LoadInt_e@2
  00076	80 f2 ec	 xor	 dl, -20			; ffffffecH
  00079	88 55 ed	 mov	 BYTE PTR __k$[ebp+5], dl
  0007c	8a 50 06	 mov	 dl, BYTE PTR [eax+6]
  0007f	84 d2		 test	 dl, dl
  00081	0f 84 02 01 00
	00		 je	 $LN90@LoadInt_e@2
  00087	32 d1		 xor	 dl, cl
  00089	88 55 ee	 mov	 BYTE PTR __k$[ebp+6], dl
  0008c	8a 50 07	 mov	 dl, BYTE PTR [eax+7]
  0008f	84 d2		 test	 dl, dl
  00091	0f 84 ec 00 00
	00		 je	 $LN89@LoadInt_e@2
  00097	80 f2 ea	 xor	 dl, -22			; ffffffeaH
  0009a	88 55 ef	 mov	 BYTE PTR __k$[ebp+7], dl
  0009d	8a 50 08	 mov	 dl, BYTE PTR [eax+8]
  000a0	84 d2		 test	 dl, dl
  000a2	0f 84 d5 00 00
	00		 je	 $LN88@LoadInt_e@2
  000a8	80 f2 ed	 xor	 dl, -19			; ffffffedH
  000ab	88 55 f0	 mov	 BYTE PTR __k$[ebp+8], dl
  000ae	8a 50 09	 mov	 dl, BYTE PTR [eax+9]
  000b1	84 d2		 test	 dl, dl
  000b3	0f 84 be 00 00
	00		 je	 $LN87@LoadInt_e@2
  000b9	80 f2 ec	 xor	 dl, -20			; ffffffecH
  000bc	88 55 f1	 mov	 BYTE PTR __k$[ebp+9], dl
  000bf	8a 50 0a	 mov	 dl, BYTE PTR [eax+10]
  000c2	84 d2		 test	 dl, dl
  000c4	0f 84 a8 00 00
	00		 je	 $LN86@LoadInt_e@2
  000ca	32 d1		 xor	 dl, cl
  000cc	88 55 f2	 mov	 BYTE PTR __k$[ebp+10], dl
  000cf	8a 50 0b	 mov	 dl, BYTE PTR [eax+11]
  000d2	84 d2		 test	 dl, dl
  000d4	0f 84 92 00 00
	00		 je	 $LN85@LoadInt_e@2
  000da	80 f2 ea	 xor	 dl, -22			; ffffffeaH
  000dd	88 55 f3	 mov	 BYTE PTR __k$[ebp+11], dl
  000e0	8a 50 0c	 mov	 dl, BYTE PTR [eax+12]
  000e3	84 d2		 test	 dl, dl
  000e5	74 7f		 je	 SHORT $LN84@LoadInt_e@2
  000e7	80 f2 ed	 xor	 dl, -19			; ffffffedH
  000ea	88 55 f4	 mov	 BYTE PTR __k$[ebp+12], dl
  000ed	8a 50 0d	 mov	 dl, BYTE PTR [eax+13]
  000f0	84 d2		 test	 dl, dl
  000f2	74 6c		 je	 SHORT $LN83@LoadInt_e@2
  000f4	80 f2 ec	 xor	 dl, -20			; ffffffecH
  000f7	88 55 f5	 mov	 BYTE PTR __k$[ebp+13], dl
  000fa	8a 50 0e	 mov	 dl, BYTE PTR [eax+14]
  000fd	84 d2		 test	 dl, dl
  000ff	74 5a		 je	 SHORT $LN82@LoadInt_e@2
  00101	32 d1		 xor	 dl, cl
  00103	80 78 0f 00	 cmp	 BYTE PTR [eax+15], 0
  00107	88 55 f6	 mov	 BYTE PTR __k$[ebp+14], dl
  0010a	0f 84 a0 00 00
	00		 je	 $LN1@LoadInt_e@2
  00110	8a 50 10	 mov	 dl, BYTE PTR [eax+16]
  00113	84 d2		 test	 dl, dl
  00115	74 3e		 je	 SHORT $LN80@LoadInt_e@2
  00117	80 f2 ed	 xor	 dl, -19			; ffffffedH
  0011a	88 55 f8	 mov	 BYTE PTR __k$[ebp+16], dl
  0011d	8a 50 11	 mov	 dl, BYTE PTR [eax+17]
  00120	84 d2		 test	 dl, dl
  00122	74 2b		 je	 SHORT $LN79@LoadInt_e@2
  00124	80 f2 ec	 xor	 dl, -20			; ffffffecH
  00127	88 55 f9	 mov	 BYTE PTR __k$[ebp+17], dl
  0012a	8a 50 12	 mov	 dl, BYTE PTR [eax+18]
  0012d	84 d2		 test	 dl, dl
  0012f	74 19		 je	 SHORT $LN78@LoadInt_e@2
  00131	8a 40 13	 mov	 al, BYTE PTR [eax+19]
  00134	32 d1		 xor	 dl, cl
  00136	88 55 fa	 mov	 BYTE PTR __k$[ebp+18], dl
  00139	84 c0		 test	 al, al
  0013b	74 07		 je	 SHORT $LN77@LoadInt_e@2
  0013d	34 ea		 xor	 al, -22			; ffffffeaH
  0013f	88 45 fb	 mov	 BYTE PTR __k$[ebp+19], al
  00142	eb 6c		 jmp	 SHORT $LN1@LoadInt_e@2
$LN77@LoadInt_e@2:
  00144	c6 45 fb ea	 mov	 BYTE PTR __k$[ebp+19], -22 ; ffffffeaH
  00148	eb 66		 jmp	 SHORT $LN1@LoadInt_e@2
$LN78@LoadInt_e@2:
  0014a	88 4d fa	 mov	 BYTE PTR __k$[ebp+18], cl
  0014d	eb 61		 jmp	 SHORT $LN1@LoadInt_e@2
$LN79@LoadInt_e@2:
  0014f	c6 45 f9 ec	 mov	 BYTE PTR __k$[ebp+17], -20 ; ffffffecH
  00153	eb 5b		 jmp	 SHORT $LN1@LoadInt_e@2
$LN80@LoadInt_e@2:
  00155	c6 45 f8 ed	 mov	 BYTE PTR __k$[ebp+16], -19 ; ffffffedH
  00159	eb 55		 jmp	 SHORT $LN1@LoadInt_e@2
$LN82@LoadInt_e@2:
  0015b	88 4d f6	 mov	 BYTE PTR __k$[ebp+14], cl
  0015e	eb 50		 jmp	 SHORT $LN1@LoadInt_e@2
$LN83@LoadInt_e@2:
  00160	c6 45 f5 ec	 mov	 BYTE PTR __k$[ebp+13], -20 ; ffffffecH
  00164	eb 4a		 jmp	 SHORT $LN1@LoadInt_e@2
$LN84@LoadInt_e@2:
  00166	c6 45 f4 ed	 mov	 BYTE PTR __k$[ebp+12], -19 ; ffffffedH
  0016a	eb 44		 jmp	 SHORT $LN1@LoadInt_e@2
$LN85@LoadInt_e@2:
  0016c	c6 45 f3 ea	 mov	 BYTE PTR __k$[ebp+11], -22 ; ffffffeaH
  00170	eb 3e		 jmp	 SHORT $LN1@LoadInt_e@2
$LN86@LoadInt_e@2:
  00172	88 4d f2	 mov	 BYTE PTR __k$[ebp+10], cl
  00175	eb 39		 jmp	 SHORT $LN1@LoadInt_e@2
$LN87@LoadInt_e@2:
  00177	c6 45 f1 ec	 mov	 BYTE PTR __k$[ebp+9], -20 ; ffffffecH
  0017b	eb 33		 jmp	 SHORT $LN1@LoadInt_e@2
$LN88@LoadInt_e@2:
  0017d	c6 45 f0 ed	 mov	 BYTE PTR __k$[ebp+8], -19 ; ffffffedH
  00181	eb 2d		 jmp	 SHORT $LN1@LoadInt_e@2
$LN89@LoadInt_e@2:
  00183	c6 45 ef ea	 mov	 BYTE PTR __k$[ebp+7], -22 ; ffffffeaH
  00187	eb 27		 jmp	 SHORT $LN1@LoadInt_e@2
$LN90@LoadInt_e@2:
  00189	88 4d ee	 mov	 BYTE PTR __k$[ebp+6], cl
  0018c	eb 22		 jmp	 SHORT $LN1@LoadInt_e@2
$LN91@LoadInt_e@2:
  0018e	c6 45 ed ec	 mov	 BYTE PTR __k$[ebp+5], -20 ; ffffffecH
  00192	eb 1c		 jmp	 SHORT $LN1@LoadInt_e@2
$LN92@LoadInt_e@2:
  00194	c6 45 ec ed	 mov	 BYTE PTR __k$[ebp+4], -19 ; ffffffedH
  00198	eb 16		 jmp	 SHORT $LN1@LoadInt_e@2
$LN93@LoadInt_e@2:
  0019a	c6 45 eb ea	 mov	 BYTE PTR __k$[ebp+3], -22 ; ffffffeaH
  0019e	eb 10		 jmp	 SHORT $LN1@LoadInt_e@2
$LN94@LoadInt_e@2:
  001a0	c6 45 ea eb	 mov	 BYTE PTR __k$[ebp+2], -21 ; ffffffebH
  001a4	eb 0a		 jmp	 SHORT $LN1@LoadInt_e@2
$LN95@LoadInt_e@2:
  001a6	c6 45 e9 ec	 mov	 BYTE PTR __k$[ebp+1], -20 ; ffffffecH
  001aa	eb 04		 jmp	 SHORT $LN1@LoadInt_e@2
$LN96@LoadInt_e@2:
  001ac	c6 45 e8 ed	 mov	 BYTE PTR __k$[ebp], -19	; ffffffedH
$LN1@LoadInt_e@2:
  001b0	6a 03		 push	 3
  001b2	8d 45 e8	 lea	 eax, DWORD PTR __k$[ebp]
  001b5	c6 45 f7 00	 mov	 BYTE PTR __k$[ebp+15], 0
  001b9	5a		 pop	 edx
$LL104@LoadInt_e@2:
  001ba	81 30 ed ec eb
	ea		 xor	 DWORD PTR [eax], -353637139 ; eaebecedH
  001c0	83 c0 04	 add	 eax, 4
  001c3	4a		 dec	 edx
  001c4	75 f4		 jne	 SHORT $LL104@LoadInt_e@2
  001c6	6a 0c		 push	 12			; 0000000cH
  001c8	58		 pop	 eax
$LL101@LoadInt_e@2:
  001c9	8b c8		 mov	 ecx, eax
  001cb	81 e1 03 00 00
	80		 and	 ecx, -2147483645	; 80000003H
  001d1	79 05		 jns	 SHORT $LN111@LoadInt_e@2
  001d3	49		 dec	 ecx
  001d4	83 c9 fc	 or	 ecx, -4			; fffffffcH
  001d7	41		 inc	 ecx
$LN111@LoadInt_e@2:
  001d8	b2 ed		 mov	 dl, -19			; ffffffedH
  001da	2a d1		 sub	 dl, cl
  001dc	30 54 05 e8	 xor	 BYTE PTR __k$[ebp+eax], dl
  001e0	40		 inc	 eax
  001e1	83 f8 0f	 cmp	 eax, 15			; 0000000fH
  001e4	7c e3		 jl	 SHORT $LL101@LoadInt_e@2

; 120  : 		return LoadInt(_k, i);

  001e6	ff 75 0c	 push	 DWORD PTR _i$[ebp]
  001e9	8d 45 e8	 lea	 eax, DWORD PTR __k$[ebp]
  001ec	50		 push	 eax
  001ed	8b ce		 mov	 ecx, esi
  001ef	ff 15 00 00 00
	00		 call	 DWORD PTR __imp_?LoadInt@ioINILoader@@QAEHPBDH@Z

; 121  : 	}

  001f5	8b 4d fc	 mov	 ecx, DWORD PTR __$ArrayPad$[ebp]
  001f8	33 cd		 xor	 ecx, ebp
  001fa	5e		 pop	 esi
  001fb	e8 00 00 00 00	 call	 @__security_check_cookie@4
  00200	c9		 leave
  00201	c2 08 00	 ret	 8
??$LoadInt_e@$0BA@@ioINILoader@@QAEHAAY0BA@$$CBDH@Z ENDP ; ioINILoader::LoadInt_e<16>
_TEXT	ENDS
PUBLIC	??$construct@AAVioHashString@@@?$allocator@VioHashString@@@std@@QAEXPAVioHashString@@AAV2@@Z ; std::allocator<ioHashString>::construct<ioHashString &>
;	COMDAT xdata$x
; File c:\program files (x86)\microsoft visual studio 10.0\vc\include\utility
xdata$x	SEGMENT
__unwindtable$??$construct@AAVioHashString@@@?$allocator@VioHashString@@@std@@QAEXPAVioHashString@@AAV2@@Z DD 0ffffffffH
	DD	FLAT:__unwindfunclet$??$construct@AAVioHashString@@@?$allocator@VioHashString@@@std@@QAEXPAVioHashString@@AAV2@@Z$0
__ehfuncinfo$??$construct@AAVioHashString@@@?$allocator@VioHashString@@@std@@QAEXPAVioHashString@@AAV2@@Z DD 019930522H
	DD	01H
	DD	FLAT:__unwindtable$??$construct@AAVioHashString@@@?$allocator@VioHashString@@@std@@QAEXPAVioHashString@@AAV2@@Z
	DD	2 DUP(00H)
	DD	2 DUP(00H)
	DD	00H
	DD	01H
; Function compile flags: /Ogsp
; File c:\program files (x86)\microsoft visual studio 10.0\vc\include\xmemory
xdata$x	ENDS
;	COMDAT ??$construct@AAVioHashString@@@?$allocator@VioHashString@@@std@@QAEXPAVioHashString@@AAV2@@Z
_TEXT	SEGMENT
$T553076 = -16						; size = 4
__$EHRec$ = -12						; size = 12
__Ptr$ = 8						; size = 4
__Val$ = 12						; size = 4
??$construct@AAVioHashString@@@?$allocator@VioHashString@@@std@@QAEXPAVioHashString@@AAV2@@Z PROC ; std::allocator<ioHashString>::construct<ioHashString &>, COMDAT
; _this$ = ecx

; 206  : 		void construct(pointer _Ptr, _Other&& _Val)

  00000	6a 04		 push	 4
  00002	b8 00 00 00 00	 mov	 eax, __ehhandler$??$construct@AAVioHashString@@@?$allocator@VioHashString@@@std@@QAEXPAVioHashString@@AAV2@@Z
  00007	e8 00 00 00 00	 call	 __EH_prolog3

; 207  : 		{	// construct object at _Ptr with value _Val
; 208  : 		::new ((void _FARQ *)_Ptr) _Ty(_STD forward<_Other>(_Val));

  0000c	8b 4d 08	 mov	 ecx, DWORD PTR __Ptr$[ebp]
  0000f	89 4d f0	 mov	 DWORD PTR $T553076[ebp], ecx
  00012	83 65 fc 00	 and	 DWORD PTR __$EHRec$[ebp+8], 0
  00016	85 c9		 test	 ecx, ecx
  00018	74 09		 je	 SHORT $LN3@construct
  0001a	ff 75 0c	 push	 DWORD PTR __Val$[ebp]
  0001d	ff 15 00 00 00
	00		 call	 DWORD PTR __imp_??0ioHashString@@QAE@ABV0@@Z
$LN3@construct:

; 209  : 		}

  00023	e8 00 00 00 00	 call	 __EH_epilog3
  00028	c2 08 00	 ret	 8
_TEXT	ENDS
;	COMDAT text$x
text$x	SEGMENT
__unwindfunclet$??$construct@AAVioHashString@@@?$allocator@VioHashString@@@std@@QAEXPAVioHashString@@AAV2@@Z$0:
  00000	ff 75 08	 push	 DWORD PTR __Ptr$[ebp]
  00003	ff 75 f0	 push	 DWORD PTR $T553076[ebp]
  00006	e8 00 00 00 00	 call	 ??3@YAXPAX0@Z		; operator delete
  0000b	59		 pop	 ecx
  0000c	59		 pop	 ecx
  0000d	c3		 ret	 0
__ehhandler$??$construct@AAVioHashString@@@?$allocator@VioHashString@@@std@@QAEXPAVioHashString@@AAV2@@Z:
  0000e	8b 54 24 08	 mov	 edx, DWORD PTR [esp+8]
  00012	8d 42 0c	 lea	 eax, DWORD PTR [edx+12]
  00015	8b 4a ec	 mov	 ecx, DWORD PTR [edx-20]
  00018	33 c8		 xor	 ecx, eax
  0001a	e8 00 00 00 00	 call	 @__security_check_cookie@4
  0001f	b8 00 00 00 00	 mov	 eax, OFFSET __ehfuncinfo$??$construct@AAVioHashString@@@?$allocator@VioHashString@@@std@@QAEXPAVioHashString@@AAV2@@Z
  00024	e9 00 00 00 00	 jmp	 ___CxxFrameHandler3
text$x	ENDS
??$construct@AAVioHashString@@@?$allocator@VioHashString@@@std@@QAEXPAVioHashString@@AAV2@@Z ENDP ; std::allocator<ioHashString>::construct<ioHashString &>
PUBLIC	?construct@?$allocator@VioHashString@@@std@@QAEXPAVioHashString@@$$QAV3@@Z ; std::allocator<ioHashString>::construct
;	COMDAT xdata$x
; File c:\program files (x86)\microsoft visual studio 10.0\vc\include\utility
xdata$x	SEGMENT
__unwindtable$?construct@?$allocator@VioHashString@@@std@@QAEXPAVioHashString@@$$QAV3@@Z DD 0ffffffffH
	DD	FLAT:__unwindfunclet$?construct@?$allocator@VioHashString@@@std@@QAEXPAVioHashString@@$$QAV3@@Z$0
__ehfuncinfo$?construct@?$allocator@VioHashString@@@std@@QAEXPAVioHashString@@$$QAV3@@Z DD 019930522H
	DD	01H
	DD	FLAT:__unwindtable$?construct@?$allocator@VioHashString@@@std@@QAEXPAVioHashString@@$$QAV3@@Z
	DD	2 DUP(00H)
	DD	2 DUP(00H)
	DD	00H
	DD	01H
; Function compile flags: /Ogsp
; File c:\program files (x86)\microsoft visual studio 10.0\vc\include\xmemory
xdata$x	ENDS
;	COMDAT ?construct@?$allocator@VioHashString@@@std@@QAEXPAVioHashString@@$$QAV3@@Z
_TEXT	SEGMENT
$T553095 = -16						; size = 4
__$EHRec$ = -12						; size = 12
__Ptr$ = 8						; size = 4
__Val$ = 12						; size = 4
?construct@?$allocator@VioHashString@@@std@@QAEXPAVioHashString@@$$QAV3@@Z PROC ; std::allocator<ioHashString>::construct, COMDAT
; _this$ = ecx

; 201  : 		{	// construct object at _Ptr with value _Val

  00000	6a 04		 push	 4
  00002	b8 00 00 00 00	 mov	 eax, __ehhandler$?construct@?$allocator@VioHashString@@@std@@QAEXPAVioHashString@@$$QAV3@@Z
  00007	e8 00 00 00 00	 call	 __EH_prolog3

; 202  : 		::new ((void _FARQ *)_Ptr) _Ty(_STD forward<_Ty>(_Val));

  0000c	8b 4d 08	 mov	 ecx, DWORD PTR __Ptr$[ebp]
  0000f	89 4d f0	 mov	 DWORD PTR $T553095[ebp], ecx
  00012	83 65 fc 00	 and	 DWORD PTR __$EHRec$[ebp+8], 0
  00016	85 c9		 test	 ecx, ecx
  00018	74 09		 je	 SHORT $LN3@construct@2
  0001a	ff 75 0c	 push	 DWORD PTR __Val$[ebp]
  0001d	ff 15 00 00 00
	00		 call	 DWORD PTR __imp_??0ioHashString@@QAE@ABV0@@Z
$LN3@construct@2:

; 203  : 		}

  00023	e8 00 00 00 00	 call	 __EH_epilog3
  00028	c2 08 00	 ret	 8
_TEXT	ENDS
;	COMDAT text$x
text$x	SEGMENT
__unwindfunclet$?construct@?$allocator@VioHashString@@@std@@QAEXPAVioHashString@@$$QAV3@@Z$0:
  00000	ff 75 08	 push	 DWORD PTR __Ptr$[ebp]
  00003	ff 75 f0	 push	 DWORD PTR $T553095[ebp]
  00006	e8 00 00 00 00	 call	 ??3@YAXPAX0@Z		; operator delete
  0000b	59		 pop	 ecx
  0000c	59		 pop	 ecx
  0000d	c3		 ret	 0
__ehhandler$?construct@?$allocator@VioHashString@@@std@@QAEXPAVioHashString@@$$QAV3@@Z:
  0000e	8b 54 24 08	 mov	 edx, DWORD PTR [esp+8]
  00012	8d 42 0c	 lea	 eax, DWORD PTR [edx+12]
  00015	8b 4a ec	 mov	 ecx, DWORD PTR [edx-20]
  00018	33 c8		 xor	 ecx, eax
  0001a	e8 00 00 00 00	 call	 @__security_check_cookie@4
  0001f	b8 00 00 00 00	 mov	 eax, OFFSET __ehfuncinfo$?construct@?$allocator@VioHashString@@@std@@QAEXPAVioHashString@@$$QAV3@@Z
  00024	e9 00 00 00 00	 jmp	 ___CxxFrameHandler3
text$x	ENDS
?construct@?$allocator@VioHashString@@@std@@QAEXPAVioHashString@@$$QAV3@@Z ENDP ; std::allocator<ioHashString>::construct
PUBLIC	??B?$CEncrypt@M@@QAEMXZ				; CEncrypt<float>::operator float
; Function compile flags: /Ogsp
; File d:\lost saga for developer\youtube\tutorial\source\src\lsclient\encryptvalue.h
;	COMDAT ??B?$CEncrypt@M@@QAEMXZ
_TEXT	SEGMENT
_value$ = -4						; size = 4
??B?$CEncrypt@M@@QAEMXZ PROC				; CEncrypt<float>::operator float, COMDAT
; _this$ = ecx

; 134  : 	{

  00000	55		 push	 ebp
  00001	8b ec		 mov	 ebp, esp
  00003	51		 push	 ecx

; 135  : 		type value;
; 136  : 		DecryptValueToPool(&value);

  00004	8d 45 fc	 lea	 eax, DWORD PTR _value$[ebp]
  00007	50		 push	 eax
  00008	e8 00 00 00 00	 call	 ?DecryptValueToPool@?$CEncrypt@M@@QAEXPAM@Z ; CEncrypt<float>::DecryptValueToPool

; 137  : 
; 138  : #ifdef _NOTUSE
; 139  : 		Debug();
; 140  : #endif
; 141  : 		return value;

  0000d	d9 45 fc	 fld	 DWORD PTR _value$[ebp]

; 142  : 	}

  00010	c9		 leave
  00011	c3		 ret	 0
??B?$CEncrypt@M@@QAEMXZ ENDP				; CEncrypt<float>::operator float
_TEXT	ENDS
PUBLIC	??4?$CEncrypt@M@@QAEMM@Z			; CEncrypt<float>::operator=
; Function compile flags: /Ogsp
;	COMDAT ??4?$CEncrypt@M@@QAEMM@Z
_TEXT	SEGMENT
_value$ = 8						; size = 4
_inValue$ = 8						; size = 4
??4?$CEncrypt@M@@QAEMM@Z PROC				; CEncrypt<float>::operator=, COMDAT
; _this$ = ecx

; 1654 : 	{	

  00000	55		 push	 ebp
  00001	8b ec		 mov	 ebp, esp

; 1655 : 		type value = inValue;

  00003	d9 45 08	 fld	 DWORD PTR _inValue$[ebp]

; 1656 : 		EncryptValueToPool((char*)&value);

  00006	8d 45 08	 lea	 eax, DWORD PTR _value$[ebp]
  00009	50		 push	 eax
  0000a	d9 5d 08	 fstp	 DWORD PTR _value$[ebp]
  0000d	e8 00 00 00 00	 call	 ?EncryptValueToPool@?$CEncrypt@M@@AAEXPBD@Z ; CEncrypt<float>::EncryptValueToPool

; 1657 : #ifdef _NOTUSE
; 1658 : 		m_value = inValue;
; 1659 : 		Debug();
; 1660 : #endif
; 1661 : 		return value;

  00012	d9 45 08	 fld	 DWORD PTR _value$[ebp]

; 1662 : 	}

  00015	5d		 pop	 ebp
  00016	c2 04 00	 ret	 4
??4?$CEncrypt@M@@QAEMM@Z ENDP				; CEncrypt<float>::operator=
_TEXT	ENDS
PUBLIC	??Z?$CEncrypt@M@@QAEAAMABM@Z			; CEncrypt<float>::operator-=
; Function compile flags: /Ogsp
;	COMDAT ??Z?$CEncrypt@M@@QAEAAMABM@Z
_TEXT	SEGMENT
_value$ = -4						; size = 4
_inValue$ = 8						; size = 4
??Z?$CEncrypt@M@@QAEAAMABM@Z PROC			; CEncrypt<float>::operator-=, COMDAT
; _this$ = ecx

; 1728 : 	{

  00000	55		 push	 ebp
  00001	8b ec		 mov	 ebp, esp
  00003	51		 push	 ecx
  00004	56		 push	 esi

; 1729 : 		type value;
; 1730 : 		DecryptValueToPool(&value);

  00005	8d 45 fc	 lea	 eax, DWORD PTR _value$[ebp]
  00008	50		 push	 eax
  00009	8b f1		 mov	 esi, ecx
  0000b	e8 00 00 00 00	 call	 ?DecryptValueToPool@?$CEncrypt@M@@QAEXPAM@Z ; CEncrypt<float>::DecryptValueToPool

; 1731 : 		value -= inValue;

  00010	8b 45 08	 mov	 eax, DWORD PTR _inValue$[ebp]
  00013	f3 0f 10 45 fc	 movss	 xmm0, DWORD PTR _value$[ebp]
  00018	f3 0f 10 08	 movss	 xmm1, DWORD PTR [eax]
  0001c	0f 5a c0	 cvtps2pd xmm0, xmm0
  0001f	0f 5a c9	 cvtps2pd xmm1, xmm1

; 1732 : 		EncryptValueToPool((char*)&value);

  00022	8d 45 fc	 lea	 eax, DWORD PTR _value$[ebp]
  00025	f2 0f 5c c1	 subsd	 xmm0, xmm1
  00029	66 0f 5a c0	 cvtpd2ps xmm0, xmm0
  0002d	50		 push	 eax
  0002e	8b ce		 mov	 ecx, esi
  00030	f3 0f 11 45 fc	 movss	 DWORD PTR _value$[ebp], xmm0
  00035	e8 00 00 00 00	 call	 ?EncryptValueToPool@?$CEncrypt@M@@AAEXPBD@Z ; CEncrypt<float>::EncryptValueToPool

; 1733 : #ifdef _NOTUSE
; 1734 : 		m_value -= inValue;
; 1735 : 		Debug();
; 1736 : #endif
; 1737 : 		return value;

  0003a	8d 45 fc	 lea	 eax, DWORD PTR _value$[ebp]
  0003d	5e		 pop	 esi

; 1738 : 	} 

  0003e	c9		 leave
  0003f	c2 04 00	 ret	 4
??Z?$CEncrypt@M@@QAEAAMABM@Z ENDP			; CEncrypt<float>::operator-=
_TEXT	ENDS
PUBLIC	??B?$CEncrypt@_N@@QAE_NXZ			; CEncrypt<bool>::operator bool
; Function compile flags: /Ogsp
;	COMDAT ??B?$CEncrypt@_N@@QAE_NXZ
_TEXT	SEGMENT
_value$ = -1						; size = 1
??B?$CEncrypt@_N@@QAE_NXZ PROC				; CEncrypt<bool>::operator bool, COMDAT
; _this$ = ecx

; 134  : 	{

  00000	55		 push	 ebp
  00001	8b ec		 mov	 ebp, esp
  00003	51		 push	 ecx

; 135  : 		type value;
; 136  : 		DecryptValueToPool(&value);

  00004	8d 45 ff	 lea	 eax, DWORD PTR _value$[ebp]
  00007	50		 push	 eax
  00008	e8 00 00 00 00	 call	 ?DecryptValueToPool@?$CEncrypt@_N@@QAEXPA_N@Z ; CEncrypt<bool>::DecryptValueToPool

; 137  : 
; 138  : #ifdef _NOTUSE
; 139  : 		Debug();
; 140  : #endif
; 141  : 		return value;

  0000d	8a 45 ff	 mov	 al, BYTE PTR _value$[ebp]

; 142  : 	}

  00010	c9		 leave
  00011	c3		 ret	 0
??B?$CEncrypt@_N@@QAE_NXZ ENDP				; CEncrypt<bool>::operator bool
_TEXT	ENDS
PUBLIC	??B?$CEncrypt@_N@@QBE_NXZ			; CEncrypt<bool>::operator bool
; Function compile flags: /Ogsp
;	COMDAT ??B?$CEncrypt@_N@@QBE_NXZ
_TEXT	SEGMENT
_value$ = -1						; size = 1
??B?$CEncrypt@_N@@QBE_NXZ PROC				; CEncrypt<bool>::operator bool, COMDAT
; _this$ = ecx

; 145  : 	{

  00000	55		 push	 ebp
  00001	8b ec		 mov	 ebp, esp
  00003	51		 push	 ecx

; 146  : 		//UJ 130829, const    --start
; 147  : 		type value;
; 148  : 		CEncrypt<type>* pThis = const_cast<CEncrypt<type>*>(this);
; 149  : 		pThis->DecryptValueToPool(&value);

  00004	8d 45 ff	 lea	 eax, DWORD PTR _value$[ebp]
  00007	50		 push	 eax
  00008	e8 00 00 00 00	 call	 ?DecryptValueToPool@?$CEncrypt@_N@@QAEXPA_N@Z ; CEncrypt<bool>::DecryptValueToPool

; 150  : 		//// const DecryptValueToPool     .
; 151  :  		//type value;
; 152  : 		//char szTempMem[MAX_ENCRYPT];
; 153  : 		//m_RC5.DecryptByte( m_MemPool, szTempMem, max(m_ValueSize, DEFAULT_ENCRYPT) );
; 154  : 		//memcpy( &value, szTempMem, m_ValueSize );
; 155  : 		//UJ --end
; 156  : 
; 157  : #ifdef _NOTUSE
; 158  : 		Debug();
; 159  : #endif
; 160  : 		return value;

  0000d	8a 45 ff	 mov	 al, BYTE PTR _value$[ebp]

; 161  : 	}

  00010	c9		 leave
  00011	c3		 ret	 0
??B?$CEncrypt@_N@@QBE_NXZ ENDP				; CEncrypt<bool>::operator bool
_TEXT	ENDS
PUBLIC	?begin@?$vector@VioHashString@@V?$allocator@VioHashString@@@std@@@std@@QAE?AV?$_Vector_iterator@V?$_Vector_val@VioHashString@@V?$allocator@VioHashString@@@std@@@std@@@2@XZ ; std::vector<ioHashString,std::allocator<ioHashString> >::begin
; Function compile flags: /Ogsp
; File c:\program files (x86)\microsoft visual studio 10.0\vc\include\vector
;	COMDAT ?begin@?$vector@VioHashString@@V?$allocator@VioHashString@@@std@@@std@@QAE?AV?$_Vector_iterator@V?$_Vector_val@VioHashString@@V?$allocator@VioHashString@@@std@@@std@@@2@XZ
_TEXT	SEGMENT
___$ReturnUdt$ = 8					; size = 4
?begin@?$vector@VioHashString@@V?$allocator@VioHashString@@@std@@@std@@QAE?AV?$_Vector_iterator@V?$_Vector_val@VioHashString@@V?$allocator@VioHashString@@@std@@@std@@@2@XZ PROC ; std::vector<ioHashString,std::allocator<ioHashString> >::begin, COMDAT
; _this$ = ecx

; 781  : 		{	// return iterator for beginning of mutable sequence

  00000	55		 push	 ebp
  00001	8b ec		 mov	 ebp, esp

; 782  : 		return (iterator(this->_Myfirst, this));

  00003	8b 09		 mov	 ecx, DWORD PTR [ecx]
  00005	8b 45 08	 mov	 eax, DWORD PTR ___$ReturnUdt$[ebp]
  00008	89 08		 mov	 DWORD PTR [eax], ecx

; 783  : 		}

  0000a	5d		 pop	 ebp
  0000b	c2 04 00	 ret	 4
?begin@?$vector@VioHashString@@V?$allocator@VioHashString@@@std@@@std@@QAE?AV?$_Vector_iterator@V?$_Vector_val@VioHashString@@V?$allocator@VioHashString@@@std@@@std@@@2@XZ ENDP ; std::vector<ioHashString,std::allocator<ioHashString> >::begin
_TEXT	ENDS
PUBLIC	?end@?$vector@VioHashString@@V?$allocator@VioHashString@@@std@@@std@@QAE?AV?$_Vector_iterator@V?$_Vector_val@VioHashString@@V?$allocator@VioHashString@@@std@@@std@@@2@XZ ; std::vector<ioHashString,std::allocator<ioHashString> >::end
; Function compile flags: /Ogsp
;	COMDAT ?end@?$vector@VioHashString@@V?$allocator@VioHashString@@@std@@@std@@QAE?AV?$_Vector_iterator@V?$_Vector_val@VioHashString@@V?$allocator@VioHashString@@@std@@@std@@@2@XZ
_TEXT	SEGMENT
___$ReturnUdt$ = 8					; size = 4
?end@?$vector@VioHashString@@V?$allocator@VioHashString@@@std@@@std@@QAE?AV?$_Vector_iterator@V?$_Vector_val@VioHashString@@V?$allocator@VioHashString@@@std@@@std@@@2@XZ PROC ; std::vector<ioHashString,std::allocator<ioHashString> >::end, COMDAT
; _this$ = ecx

; 791  : 		{	// return iterator for end of mutable sequence

  00000	55		 push	 ebp
  00001	8b ec		 mov	 ebp, esp

; 792  : 		return (iterator(this->_Mylast, this));

  00003	8b 49 04	 mov	 ecx, DWORD PTR [ecx+4]
  00006	8b 45 08	 mov	 eax, DWORD PTR ___$ReturnUdt$[ebp]
  00009	89 08		 mov	 DWORD PTR [eax], ecx

; 793  : 		}

  0000b	5d		 pop	 ebp
  0000c	c2 04 00	 ret	 4
?end@?$vector@VioHashString@@V?$allocator@VioHashString@@@std@@@std@@QAE?AV?$_Vector_iterator@V?$_Vector_val@VioHashString@@V?$allocator@VioHashString@@@std@@@std@@@2@XZ ENDP ; std::vector<ioHashString,std::allocator<ioHashString> >::end
_TEXT	ENDS
PUBLIC	??0?$_Vector_val@VioHashString@@V?$allocator@VioHashString@@@std@@@std@@QAE@V?$allocator@VioHashString@@@1@@Z ; std::_Vector_val<ioHashString,std::allocator<ioHashString> >::_Vector_val<ioHashString,std::allocator<ioHashString> >
; Function compile flags: /Ogsp
;	COMDAT ??0?$_Vector_val@VioHashString@@V?$allocator@VioHashString@@@std@@@std@@QAE@V?$allocator@VioHashString@@@1@@Z
_TEXT	SEGMENT
__Al$ = 8						; size = 1
??0?$_Vector_val@VioHashString@@V?$allocator@VioHashString@@@std@@@std@@QAE@V?$allocator@VioHashString@@@1@@Z PROC ; std::_Vector_val<ioHashString,std::allocator<ioHashString> >::_Vector_val<ioHashString,std::allocator<ioHashString> >, COMDAT
; _this$ = ecx

; 426  : 		{	// construct allocator from _Al

  00000	8b c1		 mov	 eax, ecx

; 427  : 		_Myfirst = 0;

  00002	33 c9		 xor	 ecx, ecx
  00004	89 08		 mov	 DWORD PTR [eax], ecx

; 428  : 		_Mylast = 0;

  00006	89 48 04	 mov	 DWORD PTR [eax+4], ecx

; 429  : 		_Myend = 0;

  00009	89 48 08	 mov	 DWORD PTR [eax+8], ecx

; 430  : 		}

  0000c	c2 04 00	 ret	 4
??0?$_Vector_val@VioHashString@@V?$allocator@VioHashString@@@std@@@std@@QAE@V?$allocator@VioHashString@@@1@@Z ENDP ; std::_Vector_val<ioHashString,std::allocator<ioHashString> >::_Vector_val<ioHashString,std::allocator<ioHashString> >
_TEXT	ENDS
PUBLIC	?_Make_iter@?$vector@VioHashString@@V?$allocator@VioHashString@@@std@@@std@@QBE?AV?$_Vector_iterator@V?$_Vector_val@VioHashString@@V?$allocator@VioHashString@@@std@@@std@@@2@V?$_Vector_const_iterator@V?$_Vector_val@VioHashString@@V?$allocator@VioHashString@@@std@@@std@@@2@@Z ; std::vector<ioHashString,std::allocator<ioHashString> >::_Make_iter
; Function compile flags: /Ogsp
;	COMDAT ?_Make_iter@?$vector@VioHashString@@V?$allocator@VioHashString@@@std@@@std@@QBE?AV?$_Vector_iterator@V?$_Vector_val@VioHashString@@V?$allocator@VioHashString@@@std@@@std@@@2@V?$_Vector_const_iterator@V?$_Vector_val@VioHashString@@V?$allocator@VioHashString@@@std@@@std@@@2@@Z
_TEXT	SEGMENT
___$ReturnUdt$ = 8					; size = 4
__Where$ = 12						; size = 4
?_Make_iter@?$vector@VioHashString@@V?$allocator@VioHashString@@@std@@@std@@QBE?AV?$_Vector_iterator@V?$_Vector_val@VioHashString@@V?$allocator@VioHashString@@@std@@@std@@@2@V?$_Vector_const_iterator@V?$_Vector_val@VioHashString@@V?$allocator@VioHashString@@@std@@@std@@@2@@Z PROC ; std::vector<ioHashString,std::allocator<ioHashString> >::_Make_iter, COMDAT
; _this$ = ecx

; 801  : 		{	// make iterator from const_iterator

  00000	55		 push	 ebp
  00001	8b ec		 mov	 ebp, esp

; 802  : 		return (iterator(_Where._Ptr, this));

  00003	8b 45 08	 mov	 eax, DWORD PTR ___$ReturnUdt$[ebp]
  00006	8b 4d 0c	 mov	 ecx, DWORD PTR __Where$[ebp]
  00009	89 08		 mov	 DWORD PTR [eax], ecx

; 803  : 		}

  0000b	5d		 pop	 ebp
  0000c	c2 08 00	 ret	 8
?_Make_iter@?$vector@VioHashString@@V?$allocator@VioHashString@@@std@@@std@@QBE?AV?$_Vector_iterator@V?$_Vector_val@VioHashString@@V?$allocator@VioHashString@@@std@@@std@@@2@V?$_Vector_const_iterator@V?$_Vector_val@VioHashString@@V?$allocator@VioHashString@@@std@@@std@@@2@@Z ENDP ; std::vector<ioHashString,std::allocator<ioHashString> >::_Make_iter
_TEXT	ENDS
PUBLIC	?max_size@?$vector@VioHashString@@V?$allocator@VioHashString@@@std@@@std@@QBEIXZ ; std::vector<ioHashString,std::allocator<ioHashString> >::max_size
; Function compile flags: /Ogsp
;	COMDAT ?max_size@?$vector@VioHashString@@V?$allocator@VioHashString@@@std@@@std@@QBEIXZ
_TEXT	SEGMENT
?max_size@?$vector@VioHashString@@V?$allocator@VioHashString@@@std@@@std@@QBEIXZ PROC ; std::vector<ioHashString,std::allocator<ioHashString> >::max_size, COMDAT
; _this$ = ecx

; 884  : 		return (this->_Alval.max_size());

  00000	b8 ff ff ff 0f	 mov	 eax, 268435455		; 0fffffffH

; 885  : 		}

  00005	c3		 ret	 0
?max_size@?$vector@VioHashString@@V?$allocator@VioHashString@@@std@@@std@@QBEIXZ ENDP ; std::vector<ioHashString,std::allocator<ioHashString> >::max_size
_TEXT	ENDS
PUBLIC	?allocate@?$allocator@VioHashString@@@std@@QAEPAVioHashString@@I@Z ; std::allocator<ioHashString>::allocate
; Function compile flags: /Ogsp
; File c:\program files (x86)\microsoft visual studio 10.0\vc\include\xmemory
;	COMDAT ?allocate@?$allocator@VioHashString@@@std@@QAEPAVioHashString@@I@Z
_TEXT	SEGMENT
__Count$ = 8						; size = 4
?allocate@?$allocator@VioHashString@@@std@@QAEPAVioHashString@@I@Z PROC ; std::allocator<ioHashString>::allocate, COMDAT
; _this$ = ecx

; 186  : 		{	// allocate array of _Count elements

  00000	55		 push	 ebp
  00001	8b ec		 mov	 ebp, esp

; 187  : 		return (_Allocate(_Count, (pointer)0));

  00003	6a 00		 push	 0
  00005	ff 75 08	 push	 DWORD PTR __Count$[ebp]
  00008	e8 00 00 00 00	 call	 ??$_Allocate@VioHashString@@@std@@YAPAVioHashString@@IPAV1@@Z ; std::_Allocate<ioHashString>
  0000d	59		 pop	 ecx
  0000e	59		 pop	 ecx

; 188  : 		}

  0000f	5d		 pop	 ebp
  00010	c2 04 00	 ret	 4
?allocate@?$allocator@VioHashString@@@std@@QAEPAVioHashString@@I@Z ENDP ; std::allocator<ioHashString>::allocate
_TEXT	ENDS
PUBLIC	??8?$_Vector_const_iterator@V?$_Vector_val@VioHashString@@V?$allocator@VioHashString@@@std@@@std@@@std@@QBE_NABV01@@Z ; std::_Vector_const_iterator<std::_Vector_val<ioHashString,std::allocator<ioHashString> > >::operator==
; Function compile flags: /Ogsp
; File c:\program files (x86)\microsoft visual studio 10.0\vc\include\vector
;	COMDAT ??8?$_Vector_const_iterator@V?$_Vector_val@VioHashString@@V?$allocator@VioHashString@@@std@@@std@@@std@@QBE_NABV01@@Z
_TEXT	SEGMENT
__Right$ = 8						; size = 4
??8?$_Vector_const_iterator@V?$_Vector_val@VioHashString@@V?$allocator@VioHashString@@@std@@@std@@@std@@QBE_NABV01@@Z PROC ; std::_Vector_const_iterator<std::_Vector_val<ioHashString,std::allocator<ioHashString> > >::operator==, COMDAT
; _this$ = ecx

; 201  : 		{	// test for iterator equality

  00000	55		 push	 ebp
  00001	8b ec		 mov	 ebp, esp

; 202  : 		_Compat(_Right);
; 203  : 		return (this->_Ptr == _Right._Ptr);

  00003	8b 01		 mov	 eax, DWORD PTR [ecx]
  00005	8b 4d 08	 mov	 ecx, DWORD PTR __Right$[ebp]
  00008	2b 01		 sub	 eax, DWORD PTR [ecx]
  0000a	f7 d8		 neg	 eax
  0000c	1b c0		 sbb	 eax, eax
  0000e	40		 inc	 eax

; 204  : 		}

  0000f	5d		 pop	 ebp
  00010	c2 04 00	 ret	 4
??8?$_Vector_const_iterator@V?$_Vector_val@VioHashString@@V?$allocator@VioHashString@@@std@@@std@@@std@@QBE_NABV01@@Z ENDP ; std::_Vector_const_iterator<std::_Vector_val<ioHashString,std::allocator<ioHashString> > >::operator==
_TEXT	ENDS
PUBLIC	??$_Move@PAVioHashString@@PAV1@@std@@YAPAVioHashString@@PAV1@00U_Nonscalar_ptr_iterator_tag@0@@Z ; std::_Move<ioHashString *,ioHashString *>
EXTRN	__imp_??4ioHashString@@QAEAAV0@ABV0@@Z:PROC
; Function compile flags: /Ogsp
; File c:\program files (x86)\microsoft visual studio 10.0\vc\include\xutility
;	COMDAT ??$_Move@PAVioHashString@@PAV1@@std@@YAPAVioHashString@@PAV1@00U_Nonscalar_ptr_iterator_tag@0@@Z
_TEXT	SEGMENT
__First$ = 8						; size = 4
__Last$ = 12						; size = 4
__Dest$ = 16						; size = 4
___formal$ = 20						; size = 1
??$_Move@PAVioHashString@@PAV1@@std@@YAPAVioHashString@@PAV1@00U_Nonscalar_ptr_iterator_tag@0@@Z PROC ; std::_Move<ioHashString *,ioHashString *>, COMDAT

; 2512 : 	{	// move [_First, _Last) to [_Dest, ...), arbitrary iterators

  00000	55		 push	 ebp
  00001	8b ec		 mov	 ebp, esp
  00003	56		 push	 esi

; 2513 : 	for (; _First != _Last; ++_Dest, ++_First)

  00004	8b 75 08	 mov	 esi, DWORD PTR __First$[ebp]
  00007	eb 11		 jmp	 SHORT $LN11@Move
$LL3@Move:

; 2514 : 		*_Dest = _STD move(*_First);

  00009	8b 4d 10	 mov	 ecx, DWORD PTR __Dest$[ebp]
  0000c	56		 push	 esi
  0000d	ff 15 00 00 00
	00		 call	 DWORD PTR __imp_??4ioHashString@@QAEAAV0@ABV0@@Z
  00013	83 45 10 10	 add	 DWORD PTR __Dest$[ebp], 16 ; 00000010H
  00017	83 c6 10	 add	 esi, 16			; 00000010H
$LN11@Move:

; 2513 : 	for (; _First != _Last; ++_Dest, ++_First)

  0001a	3b 75 0c	 cmp	 esi, DWORD PTR __Last$[ebp]
  0001d	75 ea		 jne	 SHORT $LL3@Move

; 2515 : 	return (_Dest);

  0001f	8b 45 10	 mov	 eax, DWORD PTR __Dest$[ebp]
  00022	5e		 pop	 esi

; 2516 : 	}

  00023	5d		 pop	 ebp
  00024	c3		 ret	 0
??$_Move@PAVioHashString@@PAV1@@std@@YAPAVioHashString@@PAV1@00U_Nonscalar_ptr_iterator_tag@0@@Z ENDP ; std::_Move<ioHashString *,ioHashString *>
_TEXT	ENDS
PUBLIC	??$_Destroy@VioHashString@@@std@@YAXPAVioHashString@@@Z ; std::_Destroy<ioHashString>
; Function compile flags: /Ogsp
; File c:\program files (x86)\microsoft visual studio 10.0\vc\include\xmemory
;	COMDAT ??$_Destroy@VioHashString@@@std@@YAXPAVioHashString@@@Z
_TEXT	SEGMENT
__Ptr$ = 8						; size = 4
??$_Destroy@VioHashString@@@std@@YAXPAVioHashString@@@Z PROC ; std::_Destroy<ioHashString>, COMDAT

; 62   : 	{	// destroy object at _Ptr

  00000	55		 push	 ebp
  00001	8b ec		 mov	 ebp, esp

; 63   : 	_Ptr->~_Ty();

  00003	8b 4d 08	 mov	 ecx, DWORD PTR __Ptr$[ebp]

; 64   : 	}

  00006	5d		 pop	 ebp

; 63   : 	_Ptr->~_Ty();

  00007	ff 25 00 00 00
	00		 jmp	 DWORD PTR __imp_??1ioHashString@@QAE@XZ
??$_Destroy@VioHashString@@@std@@YAXPAVioHashString@@@Z ENDP ; std::_Destroy<ioHashString>
_TEXT	ENDS
PUBLIC	?construct@?$allocator@VioHashString@@@std@@QAEXPAVioHashString@@ABV3@@Z ; std::allocator<ioHashString>::construct
; Function compile flags: /Ogsp
;	COMDAT ?construct@?$allocator@VioHashString@@@std@@QAEXPAVioHashString@@ABV3@@Z
_TEXT	SEGMENT
__Ptr$ = 8						; size = 4
__Val$ = 12						; size = 4
?construct@?$allocator@VioHashString@@@std@@QAEXPAVioHashString@@ABV3@@Z PROC ; std::allocator<ioHashString>::construct, COMDAT
; _this$ = ecx

; 196  : 		{	// construct object at _Ptr with value _Val

  00000	55		 push	 ebp
  00001	8b ec		 mov	 ebp, esp

; 197  : 		_Construct(_Ptr, _Val);

  00003	ff 75 0c	 push	 DWORD PTR __Val$[ebp]
  00006	ff 75 08	 push	 DWORD PTR __Ptr$[ebp]
  00009	e8 00 00 00 00	 call	 ??$_Construct@VioHashString@@ABV1@@std@@YAXPAVioHashString@@ABV1@@Z ; std::_Construct<ioHashString,ioHashString const &>
  0000e	59		 pop	 ecx
  0000f	59		 pop	 ecx

; 198  : 		}

  00010	5d		 pop	 ebp
  00011	c2 08 00	 ret	 8
?construct@?$allocator@VioHashString@@@std@@QAEXPAVioHashString@@ABV3@@Z ENDP ; std::allocator<ioHashString>::construct
_TEXT	ENDS
PUBLIC	?ProcessState@ioDummyStruct@@MAEXMK@Z		; ioDummyStruct::ProcessState
EXTRN	?SetAttachWeapon@ioDummyChar@@IAEXXZ:PROC	; ioDummyChar::SetAttachWeapon
EXTRN	__imp_?AttachEffect@ioEntityGroup@@QAEPAVioEffect@@ABVioHashString@@PAVioEntityEvent@@ABUD3DXQUATERNION@@ABUD3DXVECTOR3@@_N@Z:PROC
EXTRN	__imp_?QUAT_IDENTITY@ioMath@@2UD3DXQUATERNION@@A:BYTE
EXTRN	__imp_?VEC3_ZERO@ioMath@@2UD3DXVECTOR3@@A:BYTE
; Function compile flags: /Ogsp
; File d:\lost saga for developer\youtube\tutorial\source\src\lsclient\iodummystruct.cpp
;	COMDAT ?ProcessState@ioDummyStruct@@MAEXMK@Z
_TEXT	SEGMENT
_fTimePerSec$ = 8					; size = 4
_dwPreTime$ = 12					; size = 4
?ProcessState@ioDummyStruct@@MAEXMK@Z PROC		; ioDummyStruct::ProcessState, COMDAT
; _this$ = ecx

; 41   : {

  00000	56		 push	 esi
  00001	8b f1		 mov	 esi, ecx

; 42   : 	switch( m_DummyStructState )

  00003	8b 86 90 14 00
	00		 mov	 eax, DWORD PTR [esi+5264]
  00009	83 e8 00	 sub	 eax, 0
  0000c	74 11		 je	 SHORT $LN3@ProcessSta
  0000e	48		 dec	 eax
  0000f	75 5b		 jne	 SHORT $LN4@ProcessSta

; 56   : 		}
; 57   : 		break;
; 58   : 	case DSS_LOOP:
; 59   : 		{
; 60   : 			CheckBuff();

  00011	e8 00 00 00 00	 call	 ?CheckBuff@ioDummyStruct@@IAEXXZ ; ioDummyStruct::CheckBuff

; 61   : 			CheckRange();

  00016	8b ce		 mov	 ecx, esi
  00018	e8 00 00 00 00	 call	 ?CheckRange@ioDummyStruct@@IAEXXZ ; ioDummyStruct::CheckRange

; 62   : 		}
; 63   : 		break;

  0001d	eb 4d		 jmp	 SHORT $LN4@ProcessSta
$LN3@ProcessSta:
  0001f	57		 push	 edi

; 43   : 	{
; 44   : 	case DSS_START:
; 45   : 		{
; 46   : 			if( !m_DummyEffect.IsEmpty() )

  00020	8d be 50 05 00
	00		 lea	 edi, DWORD PTR [esi+1360]
  00026	8b cf		 mov	 ecx, edi
  00028	ff 15 00 00 00
	00		 call	 DWORD PTR __imp_?IsEmpty@ioHashString@@QBE_NXZ
  0002e	84 c0		 test	 al, al
  00030	75 21		 jne	 SHORT $LN2@ProcessSta

; 47   : 			{
; 48   : 				m_pGroup->AttachEffect( m_DummyEffect, NULL );

  00032	8b 4e 04	 mov	 ecx, DWORD PTR [esi+4]
  00035	6a 01		 push	 1
  00037	ff 35 00 00 00
	00		 push	 DWORD PTR __imp_?VEC3_ZERO@ioMath@@2UD3DXVECTOR3@@A
  0003d	ff 35 00 00 00
	00		 push	 DWORD PTR __imp_?QUAT_IDENTITY@ioMath@@2UD3DXQUATERNION@@A
  00043	6a 00		 push	 0
  00045	57		 push	 edi
  00046	ff 15 00 00 00
	00		 call	 DWORD PTR __imp_?AttachEffect@ioEntityGroup@@QAEPAVioEffect@@ABVioHashString@@PAVioEntityEvent@@ABUD3DXQUATERNION@@ABUD3DXVECTOR3@@_N@Z

; 49   : 				m_bMoveEffectCreated = true;

  0004c	c6 86 60 05 00
	00 01		 mov	 BYTE PTR [esi+1376], 1
$LN2@ProcessSta:

; 50   : 			}
; 51   : 
; 52   : 			SetAttachWeapon();

  00053	8b ce		 mov	 ecx, esi
  00055	e8 00 00 00 00	 call	 ?SetAttachWeapon@ioDummyChar@@IAEXXZ ; ioDummyChar::SetAttachWeapon

; 53   : 			SetOwenrBuff();

  0005a	8b ce		 mov	 ecx, esi
  0005c	e8 00 00 00 00	 call	 ?SetOwenrBuff@ioDummyStruct@@IAEXXZ ; ioDummyStruct::SetOwenrBuff

; 54   : 
; 55   : 			m_DummyStructState = DSS_LOOP;

  00061	c7 86 90 14 00
	00 01 00 00 00	 mov	 DWORD PTR [esi+5264], 1
  0006b	5f		 pop	 edi
$LN4@ProcessSta:
  0006c	5e		 pop	 esi

; 64   : 	}
; 65   : }

  0006d	c2 08 00	 ret	 8
?ProcessState@ioDummyStruct@@MAEXMK@Z ENDP		; ioDummyStruct::ProcessState
_TEXT	ENDS
PUBLIC	?SetDieState@ioDummyStruct@@UAEX_N@Z		; ioDummyStruct::SetDieState
EXTRN	?SetDieState@ioDummyChar@@UAEX_N0@Z:PROC	; ioDummyChar::SetDieState
; Function compile flags: /Ogsp
;	COMDAT ?SetDieState@ioDummyStruct@@UAEX_N@Z
_TEXT	SEGMENT
_bEffect$ = 8						; size = 1
?SetDieState@ioDummyStruct@@UAEX_N@Z PROC		; ioDummyStruct::SetDieState, COMDAT
; _this$ = ecx

; 175  : {

  00000	55		 push	 ebp
  00001	8b ec		 mov	 ebp, esp
  00003	56		 push	 esi
  00004	8b f1		 mov	 esi, ecx

; 176  : 	ProcessEnd();

  00006	e8 00 00 00 00	 call	 ?ProcessEnd@ioDummyStruct@@IAEXXZ ; ioDummyStruct::ProcessEnd

; 177  : 
; 178  : 	ioDummyChar::SetDieState( bEffect );

  0000b	6a 00		 push	 0
  0000d	ff 75 08	 push	 DWORD PTR _bEffect$[ebp]
  00010	8b ce		 mov	 ecx, esi
  00012	e8 00 00 00 00	 call	 ?SetDieState@ioDummyChar@@UAEX_N0@Z ; ioDummyChar::SetDieState
  00017	5e		 pop	 esi

; 179  : }

  00018	5d		 pop	 ebp
  00019	c2 04 00	 ret	 4
?SetDieState@ioDummyStruct@@UAEX_N@Z ENDP		; ioDummyStruct::SetDieState
_TEXT	ENDS
PUBLIC	?_Grow_to@?$vector@VioHashString@@V?$allocator@VioHashString@@@std@@@std@@IBEII@Z ; std::vector<ioHashString,std::allocator<ioHashString> >::_Grow_to
; Function compile flags: /Ogsp
; File c:\program files (x86)\microsoft visual studio 10.0\vc\include\vector
;	COMDAT ?_Grow_to@?$vector@VioHashString@@V?$allocator@VioHashString@@@std@@@std@@IBEII@Z
_TEXT	SEGMENT
__Count$ = 8						; size = 4
?_Grow_to@?$vector@VioHashString@@V?$allocator@VioHashString@@@std@@@std@@IBEII@Z PROC ; std::vector<ioHashString,std::allocator<ioHashString> >::_Grow_to, COMDAT
; _this$ = ecx

; 1274 : 		{	// grow by 50% or at least to _Count

  00000	55		 push	 ebp
  00001	8b ec		 mov	 ebp, esp

; 1275 : 		size_type _Capacity = capacity();

  00003	8b 41 08	 mov	 eax, DWORD PTR [ecx+8]
  00006	2b 01		 sub	 eax, DWORD PTR [ecx]

; 1276 : 
; 1277 : 		_Capacity = max_size() - _Capacity / 2 < _Capacity
; 1278 : 			? 0 : _Capacity + _Capacity / 2;	// try to grow by 50%

  00008	ba ff ff ff 0f	 mov	 edx, 268435455		; 0fffffffH
  0000d	c1 f8 04	 sar	 eax, 4
  00010	8b c8		 mov	 ecx, eax
  00012	d1 e9		 shr	 ecx, 1
  00014	2b d1		 sub	 edx, ecx
  00016	3b d0		 cmp	 edx, eax
  00018	73 04		 jae	 SHORT $LN4@Grow_to
  0001a	33 c0		 xor	 eax, eax
  0001c	eb 02		 jmp	 SHORT $LN5@Grow_to
$LN4@Grow_to:
  0001e	03 c1		 add	 eax, ecx
$LN5@Grow_to:

; 1279 : 		if (_Capacity < _Count)

  00020	3b 45 08	 cmp	 eax, DWORD PTR __Count$[ebp]

; 1280 : 			_Capacity = _Count;

  00023	0f 42 45 08	 cmovb	 eax, DWORD PTR __Count$[ebp]

; 1281 : 		return (_Capacity);
; 1282 : 		}

  00027	5d		 pop	 ebp
  00028	c2 04 00	 ret	 4
?_Grow_to@?$vector@VioHashString@@V?$allocator@VioHashString@@@std@@@std@@IBEII@Z ENDP ; std::vector<ioHashString,std::allocator<ioHashString> >::_Grow_to
_TEXT	ENDS
PUBLIC	??$_Cons_val@V?$allocator@VioHashString@@@std@@VioHashString@@AAV3@@std@@YAXAAV?$allocator@VioHashString@@@0@PAVioHashString@@AAV2@@Z ; std::_Cons_val<std::allocator<ioHashString>,ioHashString,ioHashString &>
; Function compile flags: /Ogsp
; File c:\program files (x86)\microsoft visual studio 10.0\vc\include\xmemory
;	COMDAT ??$_Cons_val@V?$allocator@VioHashString@@@std@@VioHashString@@AAV3@@std@@YAXAAV?$allocator@VioHashString@@@0@PAVioHashString@@AAV2@@Z
_TEXT	SEGMENT
__Alval$ = 8						; size = 4
__Pdest$ = 12						; size = 4
__Src$ = 16						; size = 4
??$_Cons_val@V?$allocator@VioHashString@@@std@@VioHashString@@AAV3@@std@@YAXAAV?$allocator@VioHashString@@@0@PAVioHashString@@AAV2@@Z PROC ; std::_Cons_val<std::allocator<ioHashString>,ioHashString,ioHashString &>, COMDAT

; 279  : 	{	// construct using allocator

  00000	55		 push	 ebp
  00001	8b ec		 mov	 ebp, esp

; 280  : 	_Alval.construct(_Pdest, _STD forward<_Ty2>(_Src));

  00003	ff 75 10	 push	 DWORD PTR __Src$[ebp]
  00006	8b 4d 08	 mov	 ecx, DWORD PTR __Alval$[ebp]
  00009	ff 75 0c	 push	 DWORD PTR __Pdest$[ebp]
  0000c	e8 00 00 00 00	 call	 ??$construct@AAVioHashString@@@?$allocator@VioHashString@@@std@@QAEXPAVioHashString@@AAV2@@Z ; std::allocator<ioHashString>::construct<ioHashString &>

; 281  : 	}

  00011	5d		 pop	 ebp
  00012	c3		 ret	 0
??$_Cons_val@V?$allocator@VioHashString@@@std@@VioHashString@@AAV3@@std@@YAXAAV?$allocator@VioHashString@@@0@PAVioHashString@@AAV2@@Z ENDP ; std::_Cons_val<std::allocator<ioHashString>,ioHashString,ioHashString &>
_TEXT	ENDS
PUBLIC	??$_Cons_val@V?$allocator@VioHashString@@@std@@VioHashString@@V3@@std@@YAXAAV?$allocator@VioHashString@@@0@PAVioHashString@@$$QAV2@@Z ; std::_Cons_val<std::allocator<ioHashString>,ioHashString,ioHashString>
; Function compile flags: /Ogsp
;	COMDAT ??$_Cons_val@V?$allocator@VioHashString@@@std@@VioHashString@@V3@@std@@YAXAAV?$allocator@VioHashString@@@0@PAVioHashString@@$$QAV2@@Z
_TEXT	SEGMENT
__Alval$ = 8						; size = 4
__Pdest$ = 12						; size = 4
__Src$ = 16						; size = 4
??$_Cons_val@V?$allocator@VioHashString@@@std@@VioHashString@@V3@@std@@YAXAAV?$allocator@VioHashString@@@0@PAVioHashString@@$$QAV2@@Z PROC ; std::_Cons_val<std::allocator<ioHashString>,ioHashString,ioHashString>, COMDAT

; 279  : 	{	// construct using allocator

  00000	55		 push	 ebp
  00001	8b ec		 mov	 ebp, esp

; 280  : 	_Alval.construct(_Pdest, _STD forward<_Ty2>(_Src));

  00003	ff 75 10	 push	 DWORD PTR __Src$[ebp]
  00006	8b 4d 08	 mov	 ecx, DWORD PTR __Alval$[ebp]
  00009	ff 75 0c	 push	 DWORD PTR __Pdest$[ebp]
  0000c	e8 00 00 00 00	 call	 ?construct@?$allocator@VioHashString@@@std@@QAEXPAVioHashString@@$$QAV3@@Z ; std::allocator<ioHashString>::construct

; 281  : 	}

  00011	5d		 pop	 ebp
  00012	c3		 ret	 0
??$_Cons_val@V?$allocator@VioHashString@@@std@@VioHashString@@V3@@std@@YAXAAV?$allocator@VioHashString@@@0@PAVioHashString@@$$QAV2@@Z ENDP ; std::_Cons_val<std::allocator<ioHashString>,ioHashString,ioHashString>
_TEXT	ENDS
PUBLIC	?IsNoWoundedWeapon@ioWeapon@@QBE_NXZ		; ioWeapon::IsNoWoundedWeapon
; Function compile flags: /Ogsp
; File d:\lost saga for developer\youtube\tutorial\source\src\lsclient\ioweapon.h
;	COMDAT ?IsNoWoundedWeapon@ioWeapon@@QBE_NXZ
_TEXT	SEGMENT
_value$553259 = -1					; size = 1
?IsNoWoundedWeapon@ioWeapon@@QBE_NXZ PROC		; ioWeapon::IsNoWoundedWeapon, COMDAT
; _this$ = ecx

; 552  : 	inline bool IsNoWoundedWeapon() const { return m_bNoWoundedWeapon; }

  00000	55		 push	 ebp
  00001	8b ec		 mov	 ebp, esp
  00003	51		 push	 ecx
  00004	8d 45 ff	 lea	 eax, DWORD PTR _value$553259[ebp]
  00007	50		 push	 eax
  00008	81 c1 a0 06 00
	00		 add	 ecx, 1696		; 000006a0H
  0000e	e8 00 00 00 00	 call	 ?DecryptValueToPool@?$CEncrypt@_N@@QAEXPA_N@Z ; CEncrypt<bool>::DecryptValueToPool
  00013	8a 45 ff	 mov	 al, BYTE PTR _value$553259[ebp]
  00016	c9		 leave
  00017	c3		 ret	 0
?IsNoWoundedWeapon@ioWeapon@@QBE_NXZ ENDP		; ioWeapon::IsNoWoundedWeapon
_TEXT	ENDS
PUBLIC	??0?$vector@VioHashString@@V?$allocator@VioHashString@@@std@@@std@@QAE@XZ ; std::vector<ioHashString,std::allocator<ioHashString> >::vector<ioHashString,std::allocator<ioHashString> >
; Function compile flags: /Ogsp
; File c:\program files (x86)\microsoft visual studio 10.0\vc\include\vector
;	COMDAT ??0?$vector@VioHashString@@V?$allocator@VioHashString@@@std@@@std@@QAE@XZ
_TEXT	SEGMENT
??0?$vector@VioHashString@@V?$allocator@VioHashString@@@std@@@std@@QAE@XZ PROC ; std::vector<ioHashString,std::allocator<ioHashString> >::vector<ioHashString,std::allocator<ioHashString> >, COMDAT
; _this$ = ecx

; 507  : 		{	// construct empty vector

  00000	8b c1		 mov	 eax, ecx
  00002	33 c9		 xor	 ecx, ecx
  00004	89 08		 mov	 DWORD PTR [eax], ecx
  00006	89 48 04	 mov	 DWORD PTR [eax+4], ecx
  00009	89 48 08	 mov	 DWORD PTR [eax+8], ecx

; 508  : 		}

  0000c	c3		 ret	 0
??0?$vector@VioHashString@@V?$allocator@VioHashString@@@std@@@std@@QAE@XZ ENDP ; std::vector<ioHashString,std::allocator<ioHashString> >::vector<ioHashString,std::allocator<ioHashString> >
_TEXT	ENDS
PUBLIC	??9?$_Vector_const_iterator@V?$_Vector_val@VioHashString@@V?$allocator@VioHashString@@@std@@@std@@@std@@QBE_NABV01@@Z ; std::_Vector_const_iterator<std::_Vector_val<ioHashString,std::allocator<ioHashString> > >::operator!=
; Function compile flags: /Ogsp
;	COMDAT ??9?$_Vector_const_iterator@V?$_Vector_val@VioHashString@@V?$allocator@VioHashString@@@std@@@std@@@std@@QBE_NABV01@@Z
_TEXT	SEGMENT
__Right$ = 8						; size = 4
??9?$_Vector_const_iterator@V?$_Vector_val@VioHashString@@V?$allocator@VioHashString@@@std@@@std@@@std@@QBE_NABV01@@Z PROC ; std::_Vector_const_iterator<std::_Vector_val<ioHashString,std::allocator<ioHashString> > >::operator!=, COMDAT
; _this$ = ecx

; 207  : 		{	// test for iterator inequality

  00000	55		 push	 ebp
  00001	8b ec		 mov	 ebp, esp

; 208  : 		return (!(*this == _Right));

  00003	8b 01		 mov	 eax, DWORD PTR [ecx]
  00005	8b 55 08	 mov	 edx, DWORD PTR __Right$[ebp]
  00008	33 c9		 xor	 ecx, ecx
  0000a	3b 02		 cmp	 eax, DWORD PTR [edx]
  0000c	0f 95 c0	 setne	 al

; 209  : 		}

  0000f	5d		 pop	 ebp
  00010	c2 04 00	 ret	 4
??9?$_Vector_const_iterator@V?$_Vector_val@VioHashString@@V?$allocator@VioHashString@@@std@@@std@@@std@@QBE_NABV01@@Z ENDP ; std::_Vector_const_iterator<std::_Vector_val<ioHashString,std::allocator<ioHashString> > >::operator!=
_TEXT	ENDS
PUBLIC	??$_Move@PAVioHashString@@PAV1@@std@@YAPAVioHashString@@PAV1@00@Z ; std::_Move<ioHashString *,ioHashString *>
; Function compile flags: /Ogsp
; File c:\program files (x86)\microsoft visual studio 10.0\vc\include\xutility
;	COMDAT ??$_Move@PAVioHashString@@PAV1@@std@@YAPAVioHashString@@PAV1@00@Z
_TEXT	SEGMENT
__Cat$553294 = -4					; size = 1
__First$ = 8						; size = 4
__Last$ = 12						; size = 4
__Dest$ = 16						; size = 4
??$_Move@PAVioHashString@@PAV1@@std@@YAPAVioHashString@@PAV1@00@Z PROC ; std::_Move<ioHashString *,ioHashString *>, COMDAT

; 2533 : 	{	// move [_First, _Last) to [_Dest, ...), unchecked

  00000	55		 push	 ebp
  00001	8b ec		 mov	 ebp, esp
  00003	51		 push	 ecx

; 2534 : 	return (_Move(_First, _Last,
; 2535 : 		_Dest, _Ptr_cat(_First, _Dest)));

  00004	ff 75 fc	 push	 DWORD PTR __Cat$553294[ebp]
  00007	ff 75 10	 push	 DWORD PTR __Dest$[ebp]
  0000a	ff 75 0c	 push	 DWORD PTR __Last$[ebp]
  0000d	ff 75 08	 push	 DWORD PTR __First$[ebp]
  00010	e8 00 00 00 00	 call	 ??$_Move@PAVioHashString@@PAV1@@std@@YAPAVioHashString@@PAV1@00U_Nonscalar_ptr_iterator_tag@0@@Z ; std::_Move<ioHashString *,ioHashString *>
  00015	83 c4 10	 add	 esp, 16			; 00000010H

; 2536 : 	}

  00018	c9		 leave
  00019	c3		 ret	 0
??$_Move@PAVioHashString@@PAV1@@std@@YAPAVioHashString@@PAV1@00@Z ENDP ; std::_Move<ioHashString *,ioHashString *>
_TEXT	ENDS
PUBLIC	?destroy@?$allocator@VioHashString@@@std@@QAEXPAVioHashString@@@Z ; std::allocator<ioHashString>::destroy
; Function compile flags: /Ogsp
; File c:\program files (x86)\microsoft visual studio 10.0\vc\include\xmemory
;	COMDAT ?destroy@?$allocator@VioHashString@@@std@@QAEXPAVioHashString@@@Z
_TEXT	SEGMENT
__Ptr$ = 8						; size = 4
?destroy@?$allocator@VioHashString@@@std@@QAEXPAVioHashString@@@Z PROC ; std::allocator<ioHashString>::destroy, COMDAT
; _this$ = ecx

; 212  : 		{	// destroy object at _Ptr

  00000	55		 push	 ebp
  00001	8b ec		 mov	 ebp, esp

; 213  : 		_Destroy(_Ptr);

  00003	8b 4d 08	 mov	 ecx, DWORD PTR __Ptr$[ebp]
  00006	ff 15 00 00 00
	00		 call	 DWORD PTR __imp_??1ioHashString@@QAE@XZ

; 214  : 		}

  0000c	5d		 pop	 ebp
  0000d	c2 04 00	 ret	 4
?destroy@?$allocator@VioHashString@@@std@@QAEXPAVioHashString@@@Z ENDP ; std::allocator<ioHashString>::destroy
_TEXT	ENDS
PUBLIC	??$_Cons_val@V?$allocator@VioHashString@@@std@@VioHashString@@ABV3@@std@@YAXAAV?$allocator@VioHashString@@@0@PAVioHashString@@ABV2@@Z ; std::_Cons_val<std::allocator<ioHashString>,ioHashString,ioHashString const &>
; Function compile flags: /Ogsp
;	COMDAT ??$_Cons_val@V?$allocator@VioHashString@@@std@@VioHashString@@ABV3@@std@@YAXAAV?$allocator@VioHashString@@@0@PAVioHashString@@ABV2@@Z
_TEXT	SEGMENT
__Alval$ = 8						; size = 4
__Pdest$ = 12						; size = 4
__Src$ = 16						; size = 4
??$_Cons_val@V?$allocator@VioHashString@@@std@@VioHashString@@ABV3@@std@@YAXAAV?$allocator@VioHashString@@@0@PAVioHashString@@ABV2@@Z PROC ; std::_Cons_val<std::allocator<ioHashString>,ioHashString,ioHashString const &>, COMDAT

; 279  : 	{	// construct using allocator

  00000	55		 push	 ebp
  00001	8b ec		 mov	 ebp, esp

; 280  : 	_Alval.construct(_Pdest, _STD forward<_Ty2>(_Src));

  00003	ff 75 10	 push	 DWORD PTR __Src$[ebp]
  00006	ff 75 0c	 push	 DWORD PTR __Pdest$[ebp]
  00009	e8 00 00 00 00	 call	 ??$_Construct@VioHashString@@ABV1@@std@@YAXPAVioHashString@@ABV1@@Z ; std::_Construct<ioHashString,ioHashString const &>
  0000e	59		 pop	 ecx
  0000f	59		 pop	 ecx

; 281  : 	}

  00010	5d		 pop	 ebp
  00011	c3		 ret	 0
??$_Cons_val@V?$allocator@VioHashString@@@std@@VioHashString@@ABV3@@std@@YAXAAV?$allocator@VioHashString@@@0@PAVioHashString@@ABV2@@Z ENDP ; std::_Cons_val<std::allocator<ioHashString>,ioHashString,ioHashString const &>
_TEXT	ENDS
PUBLIC	__real@3fe0000000000000
PUBLIC	??_C@_0CI@IACIOAIO@ioDummyChar?3?3ApplyWeapon?5?9?5?$CFs?5No@ ; `string'
PUBLIC	?ApplyWeapon@ioDummyStruct@@UAE?AW4ApplyWeaponExp@@PAVioWeapon@@@Z ; ioDummyStruct::ApplyWeapon
EXTRN	?CheckEntityCollision@ioDummyCharManager@@QAEXPAVioBaseChar@@PAVioPlayEntity@@H@Z:PROC ; ioDummyCharManager::CheckEntityCollision
EXTRN	?GetSingleton@ioDummyCharManager@@SAAAV1@XZ:PROC ; ioDummyCharManager::GetSingleton
EXTRN	__imp_?Clear@ioHashString@@QAEXXZ:PROC
EXTRN	?ClearAttackFireTimeAndSkill@ioBaseChar@@QAEXW4ClearAttackFireType@@@Z:PROC ; ioBaseChar::ClearAttackFireTimeAndSkill
EXTRN	?IsCurUsingSkill@ioBaseChar@@QAE_NVioHashString@@@Z:PROC ; ioBaseChar::IsCurUsingSkill
EXTRN	?SetActionStopDuration@ioWeapon@@QAEXKM@Z:PROC	; ioWeapon::SetActionStopDuration
EXTRN	?CalcActionStopDelay@ioBaseChar@@SAKM_N@Z:PROC	; ioBaseChar::CalcActionStopDelay
EXTRN	?GetActionStopLooseRate@ioBaseChar@@SAM_N@Z:PROC ; ioBaseChar::GetActionStopLooseRate
EXTRN	?SetActionStopDelay@ioBaseChar@@QAEXM_NH@Z:PROC	; ioBaseChar::SetActionStopDelay
EXTRN	?GetShakeCamera@ioWeapon@@QBEHXZ:PROC		; ioWeapon::GetShakeCamera
EXTRN	?SetDisableAttackEmoticon@ioBaseGUISupport@@QAEXXZ:PROC ; ioBaseGUISupport::SetDisableAttackEmoticon
EXTRN	?ReverseReflectPush@ioBaseChar@@QAEXABUD3DXVECTOR3@@M@Z:PROC ; ioBaseChar::ReverseReflectPush
EXTRN	?IgnoreBlock@ioBaseChar@@QAE_NXZ:PROC		; ioBaseChar::IgnoreBlock
EXTRN	?IsChangeJumpping@ioWeapon@@QAE_N_N0@Z:PROC	; ioWeapon::IsChangeJumpping
EXTRN	?IsEnableAttackCancelState@ioBaseChar@@QAE_NXZ:PROC ; ioBaseChar::IsEnableAttackCancelState
EXTRN	__imp_?PrintTimeAndLog@CLog@@QAAXHPADZZ:PROC
EXTRN	__imp_?LOG@@3VCLog@@A:BYTE
EXTRN	__imp_?c_str@ioHashString@@QBEPBDXZ:PROC
EXTRN	?GetOwner@ioWeapon@@QBEPAVioBaseChar@@XZ:PROC	; ioWeapon::GetOwner
EXTRN	__EH_epilog3_GS:PROC
EXTRN	__EH_prolog3_GS:PROC
;	COMDAT __real@3fe0000000000000
; File d:\lost saga for developer\youtube\tutorial\source\src\lsclient\ioweapon.h
CONST	SEGMENT
__real@3fe0000000000000 DQ 03fe0000000000000r	; 0.5
CONST	ENDS
;	COMDAT ??_C@_0CI@IACIOAIO@ioDummyChar?3?3ApplyWeapon?5?9?5?$CFs?5No@
CONST	SEGMENT
??_C@_0CI@IACIOAIO@ioDummyChar?3?3ApplyWeapon?5?9?5?$CFs?5No@ DB 'ioDummy'
	DB	'Char::ApplyWeapon - %s Not Exist', 00H	; `string'
CONST	ENDS
;	COMDAT xdata$x
xdata$x	SEGMENT
__unwindtable$?ApplyWeapon@ioDummyStruct@@UAE?AW4ApplyWeaponExp@@PAVioWeapon@@@Z DD 0ffffffffH
	DD	FLAT:__unwindfunclet$?ApplyWeapon@ioDummyStruct@@UAE?AW4ApplyWeaponExp@@PAVioWeapon@@@Z$0
	DD	00H
	DD	FLAT:__unwindfunclet$?ApplyWeapon@ioDummyStruct@@UAE?AW4ApplyWeaponExp@@PAVioWeapon@@@Z$1
	DD	0ffffffffH
	DD	FLAT:__unwindfunclet$?ApplyWeapon@ioDummyStruct@@UAE?AW4ApplyWeaponExp@@PAVioWeapon@@@Z$2
__ehfuncinfo$?ApplyWeapon@ioDummyStruct@@UAE?AW4ApplyWeaponExp@@PAVioWeapon@@@Z DD 019930522H
	DD	03H
	DD	FLAT:__unwindtable$?ApplyWeapon@ioDummyStruct@@UAE?AW4ApplyWeaponExp@@PAVioWeapon@@@Z
	DD	2 DUP(00H)
	DD	2 DUP(00H)
	DD	00H
	DD	01H
; Function compile flags: /Ogsp
; File d:\lost saga for developer\youtube\tutorial\source\src\lsclient\iodummystruct.cpp
xdata$x	ENDS
;	COMDAT ?ApplyWeapon@ioDummyStruct@@UAE?AW4ApplyWeaponExp@@PAVioWeapon@@@Z
_TEXT	SEGMENT
$T553318 = -84						; size = 16
$T553319 = -68						; size = 16
_value$553384 = -52					; size = 4
_value$553380 = -48					; size = 4
$T553321 = -48						; size = 4
_fPushPower$ = -48					; size = 4
_value$553359 = -44					; size = 4
_value$553346 = -44					; size = 4
_fDamage$ = -40						; size = 4
_pAttacker$ = -36					; size = 4
_value$553355 = -29					; size = 1
_value$553351 = -29					; size = 1
_value$553338 = -29					; size = 1
_bStructWeapon$ = -29					; size = 1
_vAttackDir$ = -28					; size = 12
__$EHRec$ = -12						; size = 12
_pWeapon$ = 8						; size = 4
?ApplyWeapon@ioDummyStruct@@UAE?AW4ApplyWeaponExp@@PAVioWeapon@@@Z PROC ; ioDummyStruct::ApplyWeapon, COMDAT
; _this$ = ecx

; 68   : {

  00000	6a 48		 push	 72			; 00000048H
  00002	b8 00 00 00 00	 mov	 eax, __ehhandler$?ApplyWeapon@ioDummyStruct@@UAE?AW4ApplyWeaponExp@@PAVioWeapon@@@Z
  00007	e8 00 00 00 00	 call	 __EH_prolog3_GS
  0000c	8b 75 08	 mov	 esi, DWORD PTR _pWeapon$[ebp]
  0000f	8b f9		 mov	 edi, ecx

; 69   : 	ioBaseChar *pAttacker = pWeapon->GetOwner();

  00011	8b ce		 mov	 ecx, esi
  00013	e8 00 00 00 00	 call	 ?GetOwner@ioWeapon@@QBEPAVioBaseChar@@XZ ; ioWeapon::GetOwner
  00018	89 45 dc	 mov	 DWORD PTR _pAttacker$[ebp], eax

; 70   : 	if( !pAttacker )

  0001b	85 c0		 test	 eax, eax
  0001d	75 25		 jne	 SHORT $LN19@ApplyWeapo

; 71   : 	{
; 72   : 		LOG.PrintTimeAndLog( 0, "ioDummyChar::ApplyWeapon - %s Not Exist", pWeapon->GetOwnerName().c_str() );

  0001f	8d 4e 10	 lea	 ecx, DWORD PTR [esi+16]
  00022	ff 15 00 00 00
	00		 call	 DWORD PTR __imp_?c_str@ioHashString@@QBEPBDXZ
  00028	50		 push	 eax
  00029	68 00 00 00 00	 push	 OFFSET ??_C@_0CI@IACIOAIO@ioDummyChar?3?3ApplyWeapon?5?9?5?$CFs?5No@
  0002e	6a 00		 push	 0
  00030	ff 35 00 00 00
	00		 push	 DWORD PTR __imp_?LOG@@3VCLog@@A
  00036	ff 15 00 00 00
	00		 call	 DWORD PTR __imp_?PrintTimeAndLog@CLog@@QAAXHPADZZ
  0003c	83 c4 10	 add	 esp, 16			; 00000010H

; 73   : 		return AWE_EXPLOSION;

  0003f	e9 4d 03 00 00	 jmp	 $LN62@ApplyWeapo
$LN19@ApplyWeapo:

; 74   : 	}
; 75   : 
; 76   : 	if( pWeapon->IsNoWoundedWeapon() )

  00044	8d 45 e3	 lea	 eax, DWORD PTR _value$553338[ebp]
  00047	8d 8e a0 06 00
	00		 lea	 ecx, DWORD PTR [esi+1696]
  0004d	50		 push	 eax
  0004e	e8 00 00 00 00	 call	 ?DecryptValueToPool@?$CEncrypt@_N@@QAEXPA_N@Z ; CEncrypt<bool>::DecryptValueToPool
  00053	80 7d e3 00	 cmp	 BYTE PTR _value$553338[ebp], 0
  00057	74 07		 je	 SHORT $LN18@ApplyWeapo

; 77   : 		return AWE_NO_EXPLOSION;

  00059	33 c0		 xor	 eax, eax
  0005b	e9 34 03 00 00	 jmp	 $LN20@ApplyWeapo
$LN18@ApplyWeapo:

; 78   : 
; 79   : 	m_LastAttacker = pWeapon->GetOwnerName();

  00060	8d 46 10	 lea	 eax, DWORD PTR [esi+16]
  00063	50		 push	 eax
  00064	8d 8f 30 05 00
	00		 lea	 ecx, DWORD PTR [edi+1328]
  0006a	ff 15 00 00 00
	00		 call	 DWORD PTR __imp_??4ioHashString@@QAEAAV0@ABV0@@Z

; 80   : 
; 81   : 	float fDamage = pWeapon->GetDamage( this ) * m_fDamageRate;

  00070	8d 45 d4	 lea	 eax, DWORD PTR _value$553346[ebp]
  00073	50		 push	 eax
  00074	8d 8f d0 04 00
	00		 lea	 ecx, DWORD PTR [edi+1232]
  0007a	e8 00 00 00 00	 call	 ?DecryptValueToPool@?$CEncrypt@M@@QAEXPAM@Z ; CEncrypt<float>::DecryptValueToPool
  0007f	8b 06		 mov	 eax, DWORD PTR [esi]
  00081	57		 push	 edi
  00082	8b ce		 mov	 ecx, esi
  00084	ff 90 d4 00 00
	00		 call	 DWORD PTR [eax+212]
  0008a	d8 4d d4	 fmul	 DWORD PTR _value$553346[ebp]

; 82   : 	float fPushPower = pWeapon->GetDefensePushPower( fDamage );

  0008d	8b 06		 mov	 eax, DWORD PTR [esi]
  0008f	51		 push	 ecx
  00090	d9 5d d8	 fstp	 DWORD PTR _fDamage$[ebp]
  00093	8b ce		 mov	 ecx, esi
  00095	f3 0f 10 45 d8	 movss	 xmm0, DWORD PTR _fDamage$[ebp]
  0009a	f3 0f 11 04 24	 movss	 DWORD PTR [esp], xmm0
  0009f	ff 90 88 00 00
	00		 call	 DWORD PTR [eax+136]
  000a5	d9 5d d0	 fstp	 DWORD PTR _fPushPower$[ebp]

; 83   : 
; 84   : 	if( !m_bNoDamage && !m_bPiercingProtected )

  000a8	8d 45 e3	 lea	 eax, DWORD PTR _value$553351[ebp]
  000ab	50		 push	 eax
  000ac	8d 8f 80 03 00
	00		 lea	 ecx, DWORD PTR [edi+896]
  000b2	e8 00 00 00 00	 call	 ?DecryptValueToPool@?$CEncrypt@_N@@QAEXPA_N@Z ; CEncrypt<bool>::DecryptValueToPool
  000b7	80 7d e3 00	 cmp	 BYTE PTR _value$553351[ebp], 0
  000bb	75 4e		 jne	 SHORT $LN39@ApplyWeapo
  000bd	8d 45 e3	 lea	 eax, DWORD PTR _value$553355[ebp]
  000c0	50		 push	 eax
  000c1	8d 8f 70 04 00
	00		 lea	 ecx, DWORD PTR [edi+1136]
  000c7	e8 00 00 00 00	 call	 ?DecryptValueToPool@?$CEncrypt@_N@@QAEXPA_N@Z ; CEncrypt<bool>::DecryptValueToPool
  000cc	80 7d e3 00	 cmp	 BYTE PTR _value$553355[ebp], 0
  000d0	75 39		 jne	 SHORT $LN39@ApplyWeapo

; 85   : 		m_HP.m_fCurValue -= fDamage;

  000d2	8d 45 d4	 lea	 eax, DWORD PTR _value$553359[ebp]
  000d5	8d 9f c0 00 00
	00		 lea	 ebx, DWORD PTR [edi+192]
  000db	50		 push	 eax
  000dc	8b cb		 mov	 ecx, ebx
  000de	e8 00 00 00 00	 call	 ?DecryptValueToPool@?$CEncrypt@M@@QAEXPAM@Z ; CEncrypt<float>::DecryptValueToPool
  000e3	f3 0f 10 45 d4	 movss	 xmm0, DWORD PTR _value$553359[ebp]
  000e8	f3 0f 10 4d d8	 movss	 xmm1, DWORD PTR _fDamage$[ebp]
  000ed	0f 5a c0	 cvtps2pd xmm0, xmm0
  000f0	0f 5a c9	 cvtps2pd xmm1, xmm1
  000f3	8d 45 d4	 lea	 eax, DWORD PTR _value$553359[ebp]
  000f6	f2 0f 5c c1	 subsd	 xmm0, xmm1
  000fa	66 0f 5a c0	 cvtpd2ps xmm0, xmm0
  000fe	50		 push	 eax
  000ff	8b cb		 mov	 ecx, ebx
  00101	f3 0f 11 45 d4	 movss	 DWORD PTR _value$553359[ebp], xmm0
  00106	e8 00 00 00 00	 call	 ?EncryptValueToPool@?$CEncrypt@M@@AAEXPBD@Z ; CEncrypt<float>::EncryptValueToPool
$LN39@ApplyWeapo:

; 86   : 	AddHeadDamageInfo( (int)fDamage );

  0010b	f3 0f 2c 4d d8	 cvttss2si ecx, DWORD PTR _fDamage$[ebp]
  00110	8b 07		 mov	 eax, DWORD PTR [edi]
  00112	6a 00		 push	 0
  00114	51		 push	 ecx
  00115	8b cf		 mov	 ecx, edi
  00117	ff 90 d0 00 00
	00		 call	 DWORD PTR [eax+208]

; 87   : 
; 88   : 	bool bContactType = false;
; 89   : 	if( pWeapon->GetType() == ioWeapon::WT_CONTACT ||
; 90   : 		pWeapon->GetType() == ioWeapon::WT_RUN_CONTACT ||
; 91   : 		pWeapon->GetType() == ioWeapon::WT_CONTACT2 )

  0011d	8b 06		 mov	 eax, DWORD PTR [esi]
  0011f	8b ce		 mov	 ecx, esi
  00121	32 db		 xor	 bl, bl
  00123	ff 90 10 01 00
	00		 call	 DWORD PTR [eax+272]
  00129	83 f8 01	 cmp	 eax, 1
  0012c	74 1e		 je	 SHORT $LN15@ApplyWeapo
  0012e	8b 06		 mov	 eax, DWORD PTR [esi]
  00130	8b ce		 mov	 ecx, esi
  00132	ff 90 10 01 00
	00		 call	 DWORD PTR [eax+272]
  00138	83 f8 1e	 cmp	 eax, 30			; 0000001eH
  0013b	74 0f		 je	 SHORT $LN15@ApplyWeapo
  0013d	8b 06		 mov	 eax, DWORD PTR [esi]
  0013f	8b ce		 mov	 ecx, esi
  00141	ff 90 10 01 00
	00		 call	 DWORD PTR [eax+272]
  00147	83 f8 2b	 cmp	 eax, 43			; 0000002bH
  0014a	75 02		 jne	 SHORT $LN16@ApplyWeapo
$LN15@ApplyWeapo:

; 92   : 		bContactType = true;

  0014c	b3 01		 mov	 bl, 1
$LN16@ApplyWeapo:

; 93   : 
; 94   : 	bool bStructWeapon = false;
; 95   : 	if( pWeapon->CheckWeaponByStruct() || pWeapon->CheckWeaponByDummyChar() )

  0014e	80 be 8c 05 00
	00 00		 cmp	 BYTE PTR [esi+1420], 0
  00155	c6 45 e3 00	 mov	 BYTE PTR _bStructWeapon$[ebp], 0
  00159	75 09		 jne	 SHORT $LN13@ApplyWeapo
  0015b	80 be 9c 05 00
	00 00		 cmp	 BYTE PTR [esi+1436], 0
  00162	74 04		 je	 SHORT $LN14@ApplyWeapo
$LN13@ApplyWeapo:

; 96   : 		bStructWeapon = true;

  00164	c6 45 e3 01	 mov	 BYTE PTR _bStructWeapon$[ebp], 1
$LN14@ApplyWeapo:

; 97   : 
; 98   : 	D3DXVECTOR3 vAttackDir = pWeapon->GetAttackDir(this);

  00168	8b 06		 mov	 eax, DWORD PTR [esi]
  0016a	57		 push	 edi
  0016b	8d 4d e4	 lea	 ecx, DWORD PTR _vAttackDir$[ebp]
  0016e	51		 push	 ecx
  0016f	8b ce		 mov	 ecx, esi
  00171	ff 90 fc 00 00
	00		 call	 DWORD PTR [eax+252]

; 99   : 
; 100  : 	if( bContactType && !bStructWeapon && !pWeapon->CheckWeaponBySkill() && !m_BlockBuff.IsEmpty() )

  00177	84 db		 test	 bl, bl
  00179	0f 84 d5 00 00
	00		 je	 $LN11@ApplyWeapo
  0017f	80 7d e3 00	 cmp	 BYTE PTR _bStructWeapon$[ebp], 0
  00183	0f 85 cb 00 00
	00		 jne	 $LN11@ApplyWeapo
  00189	80 be 7e 05 00
	00 00		 cmp	 BYTE PTR [esi+1406], 0
  00190	0f 85 be 00 00
	00		 jne	 $LN11@ApplyWeapo
  00196	8d 8f b0 02 00
	00		 lea	 ecx, DWORD PTR [edi+688]
  0019c	ff 15 00 00 00
	00		 call	 DWORD PTR __imp_?IsEmpty@ioHashString@@QBE_NXZ
  001a2	84 c0		 test	 al, al
  001a4	0f 85 aa 00 00
	00		 jne	 $LN11@ApplyWeapo

; 101  : 	{
; 102  : 		if( pAttacker->IsEnableAttackCancelState() && !pWeapon->IsChangeJumpping( false, false )
; 103  : 			&& !pAttacker->IgnoreBlock() )

  001aa	8b 4d dc	 mov	 ecx, DWORD PTR _pAttacker$[ebp]
  001ad	e8 00 00 00 00	 call	 ?IsEnableAttackCancelState@ioBaseChar@@QAE_NXZ ; ioBaseChar::IsEnableAttackCancelState
  001b2	84 c0		 test	 al, al
  001b4	0f 84 9a 00 00
	00		 je	 $LN11@ApplyWeapo
  001ba	6a 00		 push	 0
  001bc	6a 00		 push	 0
  001be	8b ce		 mov	 ecx, esi
  001c0	e8 00 00 00 00	 call	 ?IsChangeJumpping@ioWeapon@@QAE_N_N0@Z ; ioWeapon::IsChangeJumpping
  001c5	84 c0		 test	 al, al
  001c7	0f 85 87 00 00
	00		 jne	 $LN11@ApplyWeapo
  001cd	8b 4d dc	 mov	 ecx, DWORD PTR _pAttacker$[ebp]
  001d0	e8 00 00 00 00	 call	 ?IgnoreBlock@ioBaseChar@@QAE_NXZ ; ioBaseChar::IgnoreBlock
  001d5	84 c0		 test	 al, al
  001d7	75 7b		 jne	 SHORT $LN11@ApplyWeapo

; 104  : 		{
; 105  : 			pAttacker->AddNewBuff( m_BlockBuff, "", "", NULL );

  001d9	8b 1d 00 00 00
	00		 mov	 ebx, DWORD PTR __imp_??0ioHashString@@QAE@PBD@Z
  001df	68 00 00 00 00	 push	 OFFSET ??_C@_00CNPNBAHC@?$AA@
  001e4	8d 4d ac	 lea	 ecx, DWORD PTR $T553318[ebp]
  001e7	ff d3		 call	 ebx
  001e9	83 65 fc 00	 and	 DWORD PTR __$EHRec$[ebp+8], 0
  001ed	68 00 00 00 00	 push	 OFFSET ??_C@_00CNPNBAHC@?$AA@
  001f2	8d 4d bc	 lea	 ecx, DWORD PTR $T553319[ebp]
  001f5	ff d3		 call	 ebx
  001f7	8b 4d dc	 mov	 ecx, DWORD PTR _pAttacker$[ebp]
  001fa	6a 00		 push	 0
  001fc	6a 00		 push	 0
  001fe	8d 45 ac	 lea	 eax, DWORD PTR $T553318[ebp]
  00201	50		 push	 eax
  00202	8d 45 bc	 lea	 eax, DWORD PTR $T553319[ebp]
  00205	50		 push	 eax
  00206	8d 87 b0 02 00
	00		 lea	 eax, DWORD PTR [edi+688]
  0020c	50		 push	 eax
  0020d	c6 45 fc 01	 mov	 BYTE PTR __$EHRec$[ebp+8], 1
  00211	e8 00 00 00 00	 call	 ?AddNewBuff@ioBaseChar@@QAEPAVioBuff@@ABVioHashString@@00PAVioSkill@@_N@Z ; ioBaseChar::AddNewBuff
  00216	8b 1d 00 00 00
	00		 mov	 ebx, DWORD PTR __imp_??1ioHashString@@QAE@XZ
  0021c	8d 4d bc	 lea	 ecx, DWORD PTR $T553319[ebp]
  0021f	c6 45 fc 00	 mov	 BYTE PTR __$EHRec$[ebp+8], 0
  00223	ff d3		 call	 ebx
  00225	83 4d fc ff	 or	 DWORD PTR __$EHRec$[ebp+8], -1
  00229	8d 4d ac	 lea	 ecx, DWORD PTR $T553318[ebp]
  0022c	ff d3		 call	 ebx

; 106  : 			pAttacker->ReverseReflectPush( vAttackDir, fPushPower * 0.5f );

  0022e	f3 0f 10 45 d0	 movss	 xmm0, DWORD PTR _fPushPower$[ebp]
  00233	0f 5a c0	 cvtps2pd xmm0, xmm0
  00236	f2 0f 59 05 00
	00 00 00	 mulsd	 xmm0, QWORD PTR __real@3fe0000000000000
  0023e	51		 push	 ecx
  0023f	8b 4d dc	 mov	 ecx, DWORD PTR _pAttacker$[ebp]
  00242	66 0f 5a c0	 cvtpd2ps xmm0, xmm0
  00246	8d 45 e4	 lea	 eax, DWORD PTR _vAttackDir$[ebp]
  00249	f3 0f 11 04 24	 movss	 DWORD PTR [esp], xmm0
  0024e	50		 push	 eax
  0024f	e8 00 00 00 00	 call	 ?ReverseReflectPush@ioBaseChar@@QAEXABUD3DXVECTOR3@@M@Z ; ioBaseChar::ReverseReflectPush
$LN11@ApplyWeapo:

; 107  : 		}
; 108  : 	}
; 109  : 
; 110  : 	if( !m_BlockBuff.IsEmpty() )

  00254	8d 8f b0 02 00
	00		 lea	 ecx, DWORD PTR [edi+688]
  0025a	ff 15 00 00 00
	00		 call	 DWORD PTR __imp_?IsEmpty@ioHashString@@QBE_NXZ
  00260	84 c0		 test	 al, al
  00262	75 0e		 jne	 SHORT $LN10@ApplyWeapo

; 111  : 		pAttacker->SetDisableAttackEmoticon();

  00264	8b 4d dc	 mov	 ecx, DWORD PTR _pAttacker$[ebp]
  00267	81 c1 cc 01 00
	00		 add	 ecx, 460		; 000001ccH
  0026d	e8 00 00 00 00	 call	 ?SetDisableAttackEmoticon@ioBaseGUISupport@@QAEXXZ ; ioBaseGUISupport::SetDisableAttackEmoticon
$LN10@ApplyWeapo:

; 112  : 
; 113  : 	int iShakeCamera = pWeapon->GetShakeCamera();

  00272	8b ce		 mov	 ecx, esi
  00274	e8 00 00 00 00	 call	 ?GetShakeCamera@ioWeapon@@QBEHXZ ; ioWeapon::GetShakeCamera
  00279	8b d8		 mov	 ebx, eax

; 114  : 	ActionStopType eActionStop = pWeapon->GetActionStopType();

  0027b	8b 06		 mov	 eax, DWORD PTR [esi]
  0027d	8b ce		 mov	 ecx, esi
  0027f	ff 90 14 01 00
	00		 call	 DWORD PTR [eax+276]

; 115  : 
; 116  : 	if( eActionStop == AST_BOTH || eActionStop == AST_ATTACKER )

  00285	83 f8 01	 cmp	 eax, 1
  00288	74 05		 je	 SHORT $LN8@ApplyWeapo
  0028a	83 f8 02	 cmp	 eax, 2
  0028d	75 3b		 jne	 SHORT $LN9@ApplyWeapo
$LN8@ApplyWeapo:

; 117  : 	{
; 118  : 		pAttacker->SetActionStopDelay( fDamage, false, iShakeCamera );

  0028f	f3 0f 10 45 d8	 movss	 xmm0, DWORD PTR _fDamage$[ebp]
  00294	53		 push	 ebx
  00295	33 db		 xor	 ebx, ebx
  00297	53		 push	 ebx
  00298	51		 push	 ecx
  00299	8b 4d dc	 mov	 ecx, DWORD PTR _pAttacker$[ebp]
  0029c	f3 0f 11 04 24	 movss	 DWORD PTR [esp], xmm0
  002a1	e8 00 00 00 00	 call	 ?SetActionStopDelay@ioBaseChar@@QAEXM_NH@Z ; ioBaseChar::SetActionStopDelay

; 119  : 		pWeapon->SetActionStopDuration( ioBaseChar::CalcActionStopDelay( fDamage, false ),
; 120  : 			ioBaseChar::GetActionStopLooseRate( false ) );

  002a6	53		 push	 ebx
  002a7	e8 00 00 00 00	 call	 ?GetActionStopLooseRate@ioBaseChar@@SAM_N@Z ; ioBaseChar::GetActionStopLooseRate
  002ac	d9 1c 24	 fstp	 DWORD PTR [esp]
  002af	f3 0f 10 45 d8	 movss	 xmm0, DWORD PTR _fDamage$[ebp]
  002b4	53		 push	 ebx
  002b5	51		 push	 ecx
  002b6	f3 0f 11 04 24	 movss	 DWORD PTR [esp], xmm0
  002bb	e8 00 00 00 00	 call	 ?CalcActionStopDelay@ioBaseChar@@SAKM_N@Z ; ioBaseChar::CalcActionStopDelay
  002c0	59		 pop	 ecx
  002c1	59		 pop	 ecx
  002c2	50		 push	 eax
  002c3	8b ce		 mov	 ecx, esi
  002c5	e8 00 00 00 00	 call	 ?SetActionStopDuration@ioWeapon@@QAEXKM@Z ; ioWeapon::SetActionStopDuration
$LN9@ApplyWeapo:

; 121  : 	}
; 122  : 
; 123  : 	if( m_HP.m_fCurValue <= 0.0f )

  002ca	8d 45 d0	 lea	 eax, DWORD PTR _value$553380[ebp]
  002cd	50		 push	 eax
  002ce	8d 8f c0 00 00
	00		 lea	 ecx, DWORD PTR [edi+192]
  002d4	e8 00 00 00 00	 call	 ?DecryptValueToPool@?$CEncrypt@M@@QAEXPAM@Z ; CEncrypt<float>::DecryptValueToPool
  002d9	0f 57 c0	 xorps	 xmm0, xmm0
  002dc	0f 2f 45 d0	 comiss	 xmm0, DWORD PTR _value$553380[ebp]
  002e0	0f 82 95 00 00
	00		 jb	 $LN2@ApplyWeapo

; 124  : 	{
; 125  : 		m_HP.m_fCurValue = 0.0f;

  002e6	8d 45 cc	 lea	 eax, DWORD PTR _value$553384[ebp]
  002e9	50		 push	 eax
  002ea	8d 8f c0 00 00
	00		 lea	 ecx, DWORD PTR [edi+192]
  002f0	f3 0f 11 45 cc	 movss	 DWORD PTR _value$553384[ebp], xmm0
  002f5	e8 00 00 00 00	 call	 ?EncryptValueToPool@?$CEncrypt@M@@AAEXPBD@Z ; CEncrypt<float>::EncryptValueToPool

; 126  : 		SetDieState( true );

  002fa	8b 07		 mov	 eax, DWORD PTR [edi]
  002fc	6a 01		 push	 1
  002fe	8b cf		 mov	 ecx, edi
  00300	ff 90 60 01 00
	00		 call	 DWORD PTR [eax+352]

; 127  : 
; 128  : 		//     
; 129  : 		switch( m_DummyCharType )

  00306	8b 87 2c 02 00
	00		 mov	 eax, DWORD PTR [edi+556]
  0030c	83 e8 03	 sub	 eax, 3
  0030f	74 09		 je	 SHORT $LN4@ApplyWeapo
  00311	48		 dec	 eax
  00312	48		 dec	 eax
  00313	74 05		 je	 SHORT $LN4@ApplyWeapo
  00315	83 e8 18	 sub	 eax, 24			; 00000018H
  00318	75 61		 jne	 SHORT $LN2@ApplyWeapo
$LN4@ApplyWeapo:

; 130  : 		{
; 131  : 		case DCT_OWNER_CONTROL:
; 132  : 		case DCT_OWNER_CONTROL3:
; 133  : 		case DCT_OWNER_ATTACH:
; 134  : 			if( !m_ControlSkillName.IsEmpty() )

  0031a	8d 9f 98 0d 00
	00		 lea	 ebx, DWORD PTR [edi+3480]
  00320	8b cb		 mov	 ecx, ebx
  00322	ff 15 00 00 00
	00		 call	 DWORD PTR __imp_?IsEmpty@ioHashString@@QBE_NXZ
  00328	84 c0		 test	 al, al
  0032a	75 4f		 jne	 SHORT $LN2@ApplyWeapo

; 135  : 			{
; 136  : 				if( GetOwner() && GetOwner()->IsCurUsingSkill( m_ControlSkillName ) )

  0032c	8b cf		 mov	 ecx, edi
  0032e	e8 00 00 00 00	 call	 ?GetOwner@ioDummyChar@@QBEPAVioBaseChar@@XZ ; ioDummyChar::GetOwner
  00333	85 c0		 test	 eax, eax
  00335	74 44		 je	 SHORT $LN2@ApplyWeapo
  00337	83 ec 10	 sub	 esp, 16			; 00000010H
  0033a	8b cc		 mov	 ecx, esp
  0033c	89 65 d0	 mov	 DWORD PTR $T553321[ebp], esp
  0033f	53		 push	 ebx
  00340	ff 15 00 00 00
	00		 call	 DWORD PTR __imp_??0ioHashString@@QAE@ABV0@@Z
  00346	8b cf		 mov	 ecx, edi
  00348	c7 45 fc 02 00
	00 00		 mov	 DWORD PTR __$EHRec$[ebp+8], 2
  0034f	e8 00 00 00 00	 call	 ?GetOwner@ioDummyChar@@QBEPAVioBaseChar@@XZ ; ioDummyChar::GetOwner
  00354	83 4d fc ff	 or	 DWORD PTR __$EHRec$[ebp+8], -1
  00358	8b c8		 mov	 ecx, eax
  0035a	e8 00 00 00 00	 call	 ?IsCurUsingSkill@ioBaseChar@@QAE_NVioHashString@@@Z ; ioBaseChar::IsCurUsingSkill
  0035f	84 c0		 test	 al, al
  00361	74 18		 je	 SHORT $LN2@ApplyWeapo

; 137  : 				{
; 138  : 					GetOwner()->ClearAttackFireTimeAndSkill( CAFT_APPLY_WOUNDED_BY_DUMMY );

  00363	6a 02		 push	 2
  00365	8b cf		 mov	 ecx, edi
  00367	e8 00 00 00 00	 call	 ?GetOwner@ioDummyChar@@QBEPAVioBaseChar@@XZ ; ioDummyChar::GetOwner
  0036c	8b c8		 mov	 ecx, eax
  0036e	e8 00 00 00 00	 call	 ?ClearAttackFireTimeAndSkill@ioBaseChar@@QAEXW4ClearAttackFireType@@@Z ; ioBaseChar::ClearAttackFireTimeAndSkill

; 139  : 					m_ControlSkillName.Clear();

  00373	8b cb		 mov	 ecx, ebx
  00375	ff 15 00 00 00
	00		 call	 DWORD PTR __imp_?Clear@ioHashString@@QAEXXZ
$LN2@ApplyWeapo:

; 140  : 				}
; 141  : 			}
; 142  : 			break;
; 143  : 		}
; 144  : 	}
; 145  : 
; 146  : 	if( pWeapon )
; 147  : 	{
; 148  : 		int iDummyIndex = pWeapon->GetWeaponByDummyChar();
; 149  : 		g_DummyCharMgr.CheckEntityCollision( pAttacker, this, iDummyIndex );

  0037b	ff b6 98 05 00
	00		 push	 DWORD PTR [esi+1432]
  00381	57		 push	 edi
  00382	ff 75 dc	 push	 DWORD PTR _pAttacker$[ebp]
  00385	e8 00 00 00 00	 call	 ?GetSingleton@ioDummyCharManager@@SAAAV1@XZ ; ioDummyCharManager::GetSingleton
  0038a	8b c8		 mov	 ecx, eax
  0038c	e8 00 00 00 00	 call	 ?CheckEntityCollision@ioDummyCharManager@@QAEXPAVioBaseChar@@PAVioPlayEntity@@H@Z ; ioDummyCharManager::CheckEntityCollision
$LN62@ApplyWeapo:

; 150  : 	}
; 151  : 
; 152  : 	return AWE_EXPLOSION;

  00391	33 c0		 xor	 eax, eax
  00393	40		 inc	 eax
$LN20@ApplyWeapo:

; 153  : }

  00394	e8 00 00 00 00	 call	 __EH_epilog3_GS
  00399	c2 04 00	 ret	 4
_TEXT	ENDS
;	COMDAT text$x
text$x	SEGMENT
__unwindfunclet$?ApplyWeapon@ioDummyStruct@@UAE?AW4ApplyWeaponExp@@PAVioWeapon@@@Z$0:
  00000	8d 4d ac	 lea	 ecx, DWORD PTR $T553318[ebp]
  00003	ff 25 00 00 00
	00		 jmp	 DWORD PTR __imp_??1ioHashString@@QAE@XZ
__unwindfunclet$?ApplyWeapon@ioDummyStruct@@UAE?AW4ApplyWeaponExp@@PAVioWeapon@@@Z$1:
  00009	8d 4d bc	 lea	 ecx, DWORD PTR $T553319[ebp]
  0000c	ff 25 00 00 00
	00		 jmp	 DWORD PTR __imp_??1ioHashString@@QAE@XZ
__unwindfunclet$?ApplyWeapon@ioDummyStruct@@UAE?AW4ApplyWeaponExp@@PAVioWeapon@@@Z$2:
  00012	8b 4d d0	 mov	 ecx, DWORD PTR $T553321[ebp]
  00015	ff 25 00 00 00
	00		 jmp	 DWORD PTR __imp_??1ioHashString@@QAE@XZ
__ehhandler$?ApplyWeapon@ioDummyStruct@@UAE?AW4ApplyWeaponExp@@PAVioWeapon@@@Z:
  0001b	8b 54 24 08	 mov	 edx, DWORD PTR [esp+8]
  0001f	8d 42 0c	 lea	 eax, DWORD PTR [edx+12]
  00022	8b 4a a8	 mov	 ecx, DWORD PTR [edx-88]
  00025	33 c8		 xor	 ecx, eax
  00027	e8 00 00 00 00	 call	 @__security_check_cookie@4
  0002c	8b 4a fc	 mov	 ecx, DWORD PTR [edx-4]
  0002f	33 c8		 xor	 ecx, eax
  00031	e8 00 00 00 00	 call	 @__security_check_cookie@4
  00036	b8 00 00 00 00	 mov	 eax, OFFSET __ehfuncinfo$?ApplyWeapon@ioDummyStruct@@UAE?AW4ApplyWeaponExp@@PAVioWeapon@@@Z
  0003b	e9 00 00 00 00	 jmp	 ___CxxFrameHandler3
text$x	ENDS
?ApplyWeapon@ioDummyStruct@@UAE?AW4ApplyWeaponExp@@PAVioWeapon@@@Z ENDP ; ioDummyStruct::ApplyWeapon
PUBLIC	??$_Dest_val@V?$allocator@VioHashString@@@std@@VioHashString@@@std@@YAXAAV?$allocator@VioHashString@@@0@PAVioHashString@@@Z ; std::_Dest_val<std::allocator<ioHashString>,ioHashString>
; Function compile flags: /Ogsp
; File c:\program files (x86)\microsoft visual studio 10.0\vc\include\xmemory
;	COMDAT ??$_Dest_val@V?$allocator@VioHashString@@@std@@VioHashString@@@std@@YAXAAV?$allocator@VioHashString@@@0@PAVioHashString@@@Z
_TEXT	SEGMENT
__Alval$ = 8						; size = 4
__Pdest$ = 12						; size = 4
??$_Dest_val@V?$allocator@VioHashString@@@std@@VioHashString@@@std@@YAXAAV?$allocator@VioHashString@@@0@PAVioHashString@@@Z PROC ; std::_Dest_val<std::allocator<ioHashString>,ioHashString>, COMDAT

; 286  : 	{	// destroy using allocator

  00000	55		 push	 ebp
  00001	8b ec		 mov	 ebp, esp

; 287  : 	_Alval.destroy(_Pdest);

  00003	8b 4d 0c	 mov	 ecx, DWORD PTR __Pdest$[ebp]

; 288  : 	}

  00006	5d		 pop	 ebp

; 287  : 	_Alval.destroy(_Pdest);

  00007	ff 25 00 00 00
	00		 jmp	 DWORD PTR __imp_??1ioHashString@@QAE@XZ
??$_Dest_val@V?$allocator@VioHashString@@@std@@VioHashString@@@std@@YAXAAV?$allocator@VioHashString@@@0@PAVioHashString@@@Z ENDP ; std::_Dest_val<std::allocator<ioHashString>,ioHashString>
_TEXT	ENDS
PUBLIC	??$_Uninit_move@PAVioHashString@@PAV1@V?$allocator@VioHashString@@@std@@V1@@std@@YAPAVioHashString@@PAV1@00AAV?$allocator@VioHashString@@@0@0U_Nonscalar_ptr_iterator_tag@0@@Z ; std::_Uninit_move<ioHashString *,ioHashString *,std::allocator<ioHashString>,ioHashString>
EXTRN	__EH_prolog3_catch:PROC
;	COMDAT xdata$x
; File c:\program files (x86)\microsoft visual studio 10.0\vc\include\vector
xdata$x	SEGMENT
__catchsym$??$_Uninit_move@PAVioHashString@@PAV1@V?$allocator@VioHashString@@@std@@V1@@std@@YAPAVioHashString@@PAV1@00AAV?$allocator@VioHashString@@@0@0U_Nonscalar_ptr_iterator_tag@0@@Z$2 DD 040H
	DD	00H
	DD	00H
	DD	FLAT:__catch$??$_Uninit_move@PAVioHashString@@PAV1@V?$allocator@VioHashString@@@std@@V1@@std@@YAPAVioHashString@@PAV1@00AAV?$allocator@VioHashString@@@0@0U_Nonscalar_ptr_iterator_tag@0@@Z$0
__unwindtable$??$_Uninit_move@PAVioHashString@@PAV1@V?$allocator@VioHashString@@@std@@V1@@std@@YAPAVioHashString@@PAV1@00AAV?$allocator@VioHashString@@@0@0U_Nonscalar_ptr_iterator_tag@0@@Z DD 0ffffffffH
	DD	00H
	DD	0ffffffffH
	DD	00H
__tryblocktable$??$_Uninit_move@PAVioHashString@@PAV1@V?$allocator@VioHashString@@@std@@V1@@std@@YAPAVioHashString@@PAV1@00AAV?$allocator@VioHashString@@@0@0U_Nonscalar_ptr_iterator_tag@0@@Z DD 00H
	DD	00H
	DD	01H
	DD	01H
	DD	FLAT:__catchsym$??$_Uninit_move@PAVioHashString@@PAV1@V?$allocator@VioHashString@@@std@@V1@@std@@YAPAVioHashString@@PAV1@00AAV?$allocator@VioHashString@@@0@0U_Nonscalar_ptr_iterator_tag@0@@Z$2
__ehfuncinfo$??$_Uninit_move@PAVioHashString@@PAV1@V?$allocator@VioHashString@@@std@@V1@@std@@YAPAVioHashString@@PAV1@00AAV?$allocator@VioHashString@@@0@0U_Nonscalar_ptr_iterator_tag@0@@Z DD 019930522H
	DD	02H
	DD	FLAT:__unwindtable$??$_Uninit_move@PAVioHashString@@PAV1@V?$allocator@VioHashString@@@std@@V1@@std@@YAPAVioHashString@@PAV1@00AAV?$allocator@VioHashString@@@0@0U_Nonscalar_ptr_iterator_tag@0@@Z
	DD	01H
	DD	FLAT:__tryblocktable$??$_Uninit_move@PAVioHashString@@PAV1@V?$allocator@VioHashString@@@std@@V1@@std@@YAPAVioHashString@@PAV1@00AAV?$allocator@VioHashString@@@0@0U_Nonscalar_ptr_iterator_tag@0@@Z
	DD	2 DUP(00H)
	DD	00H
	DD	01H
; Function compile flags: /Ogsp
; File c:\program files (x86)\microsoft visual studio 10.0\vc\include\memory
xdata$x	ENDS
;	COMDAT ??$_Uninit_move@PAVioHashString@@PAV1@V?$allocator@VioHashString@@@std@@V1@@std@@YAPAVioHashString@@PAV1@00AAV?$allocator@VioHashString@@@0@0U_Nonscalar_ptr_iterator_tag@0@@Z
_TEXT	SEGMENT
__Next$ = -20						; size = 4
__$EHRec$ = -16						; size = 16
__First$ = 8						; size = 4
__Last$ = 12						; size = 4
__Dest$ = 16						; size = 4
__Al$ = 20						; size = 4
___formal$ = 24						; size = 4
___formal$ = 28						; size = 1
??$_Uninit_move@PAVioHashString@@PAV1@V?$allocator@VioHashString@@@std@@V1@@std@@YAPAVioHashString@@PAV1@00AAV?$allocator@VioHashString@@@0@0U_Nonscalar_ptr_iterator_tag@0@@Z PROC ; std::_Uninit_move<ioHashString *,ioHashString *,std::allocator<ioHashString>,ioHashString>, COMDAT

; 424  : 	{	// move [_First, _Last) to raw _Dest, using _Al, arbitrary type

  00000	6a 08		 push	 8
  00002	b8 00 00 00 00	 mov	 eax, __ehhandler$??$_Uninit_move@PAVioHashString@@PAV1@V?$allocator@VioHashString@@@std@@V1@@std@@YAPAVioHashString@@PAV1@00AAV?$allocator@VioHashString@@@0@0U_Nonscalar_ptr_iterator_tag@0@@Z
  00007	e8 00 00 00 00	 call	 __EH_prolog3_catch

; 425  : 	_DEBUG_RANGE(_First, _Last);
; 426  : 	_DEBUG_POINTER(_Dest);
; 427  : 	_FwdIt _Next = _Dest;

  0000c	8b 45 10	 mov	 eax, DWORD PTR __Dest$[ebp]

; 428  : 
; 429  : 	_TRY_BEGIN

  0000f	83 65 fc 00	 and	 DWORD PTR __$EHRec$[ebp+12], 0
  00013	8b 75 08	 mov	 esi, DWORD PTR __First$[ebp]
  00016	89 45 ec	 mov	 DWORD PTR __Next$[ebp], eax
$LL6@Uninit_mov:

; 430  : 	for (; _First != _Last; ++_Dest, ++_First)

  00019	3b 75 0c	 cmp	 esi, DWORD PTR __Last$[ebp]
  0001c	74 33		 je	 SHORT $LN4@Uninit_mov

; 431  : 		_Cons_val(_Al, _Dest, (_Valty &&)*_First);

  0001e	8b 4d 14	 mov	 ecx, DWORD PTR __Al$[ebp]
  00021	56		 push	 esi
  00022	ff 75 10	 push	 DWORD PTR __Dest$[ebp]
  00025	e8 00 00 00 00	 call	 ?construct@?$allocator@VioHashString@@@std@@QAEXPAVioHashString@@$$QAV3@@Z ; std::allocator<ioHashString>::construct
  0002a	83 45 10 10	 add	 DWORD PTR __Dest$[ebp], 16 ; 00000010H
  0002e	83 c6 10	 add	 esi, 16			; 00000010H
  00031	eb e6		 jmp	 SHORT $LL6@Uninit_mov
__catch$??$_Uninit_move@PAVioHashString@@PAV1@V?$allocator@VioHashString@@@std@@V1@@std@@YAPAVioHashString@@PAV1@00AAV?$allocator@VioHashString@@@0@0U_Nonscalar_ptr_iterator_tag@0@@Z$0:

; 432  : 	_CATCH_ALL
; 433  : 	for (; _Next != _Dest; ++_Next)

  00033	8b 75 ec	 mov	 esi, DWORD PTR __Next$[ebp]
  00036	eb 0b		 jmp	 SHORT $LN33@Uninit_mov
$LL3@Uninit_mov:

; 434  : 		_Dest_val(_Al, _Next);

  00038	8b ce		 mov	 ecx, esi
  0003a	ff 15 00 00 00
	00		 call	 DWORD PTR __imp_??1ioHashString@@QAE@XZ
  00040	83 c6 10	 add	 esi, 16			; 00000010H
$LN33@Uninit_mov:

; 432  : 	_CATCH_ALL
; 433  : 	for (; _Next != _Dest; ++_Next)

  00043	3b 75 10	 cmp	 esi, DWORD PTR __Dest$[ebp]
  00046	75 f0		 jne	 SHORT $LL3@Uninit_mov

; 435  : 	_RERAISE;

  00048	6a 00		 push	 0
  0004a	6a 00		 push	 0
  0004c	e8 00 00 00 00	 call	 __CxxThrowException@8
$LN34@Uninit_mov:
$LN4@Uninit_mov:

; 436  : 	_CATCH_END
; 437  : 	return (_Dest);

  00051	8b 45 10	 mov	 eax, DWORD PTR __Dest$[ebp]

; 438  : 	}

  00054	e8 00 00 00 00	 call	 __EH_epilog3
  00059	c3		 ret	 0
$LN32@Uninit_mov:
_TEXT	ENDS
;	COMDAT text$x
text$x	SEGMENT
__ehhandler$??$_Uninit_move@PAVioHashString@@PAV1@V?$allocator@VioHashString@@@std@@V1@@std@@YAPAVioHashString@@PAV1@00AAV?$allocator@VioHashString@@@0@0U_Nonscalar_ptr_iterator_tag@0@@Z:
  00000	8b 54 24 08	 mov	 edx, DWORD PTR [esp+8]
  00004	8d 42 0c	 lea	 eax, DWORD PTR [edx+12]
  00007	8b 4a e8	 mov	 ecx, DWORD PTR [edx-24]
  0000a	33 c8		 xor	 ecx, eax
  0000c	e8 00 00 00 00	 call	 @__security_check_cookie@4
  00011	b8 00 00 00 00	 mov	 eax, OFFSET __ehfuncinfo$??$_Uninit_move@PAVioHashString@@PAV1@V?$allocator@VioHashString@@@std@@V1@@std@@YAPAVioHashString@@PAV1@00AAV?$allocator@VioHashString@@@0@0U_Nonscalar_ptr_iterator_tag@0@@Z
  00016	e9 00 00 00 00	 jmp	 ___CxxFrameHandler3
text$x	ENDS
??$_Uninit_move@PAVioHashString@@PAV1@V?$allocator@VioHashString@@@std@@V1@@std@@YAPAVioHashString@@PAV1@00AAV?$allocator@VioHashString@@@0@0U_Nonscalar_ptr_iterator_tag@0@@Z ENDP ; std::_Uninit_move<ioHashString *,ioHashString *,std::allocator<ioHashString>,ioHashString>
PUBLIC	??$_Destroy_range@V?$allocator@VioHashString@@@std@@@std@@YAXPAVioHashString@@0AAV?$allocator@VioHashString@@@0@U_Nonscalar_ptr_iterator_tag@0@@Z ; std::_Destroy_range<std::allocator<ioHashString> >
; Function compile flags: /Ogsp
; File c:\program files (x86)\microsoft visual studio 10.0\vc\include\xmemory
;	COMDAT ??$_Destroy_range@V?$allocator@VioHashString@@@std@@@std@@YAXPAVioHashString@@0AAV?$allocator@VioHashString@@@0@U_Nonscalar_ptr_iterator_tag@0@@Z
_TEXT	SEGMENT
__First$ = 8						; size = 4
__Last$ = 12						; size = 4
__Al$ = 16						; size = 4
___formal$ = 20						; size = 1
??$_Destroy_range@V?$allocator@VioHashString@@@std@@@std@@YAXPAVioHashString@@0AAV?$allocator@VioHashString@@@0@U_Nonscalar_ptr_iterator_tag@0@@Z PROC ; std::_Destroy_range<std::allocator<ioHashString> >, COMDAT

; 95   : 	{	// destroy [_First, _Last), arbitrary type

  00000	55		 push	 ebp
  00001	8b ec		 mov	 ebp, esp
  00003	56		 push	 esi

; 96   : 	for (; _First != _Last; ++_First)

  00004	8b 75 08	 mov	 esi, DWORD PTR __First$[ebp]
  00007	eb 0b		 jmp	 SHORT $LN17@Destroy_ra
$LL3@Destroy_ra:

; 97   : 		_Dest_val(_Al, _First);

  00009	8b ce		 mov	 ecx, esi
  0000b	ff 15 00 00 00
	00		 call	 DWORD PTR __imp_??1ioHashString@@QAE@XZ
  00011	83 c6 10	 add	 esi, 16			; 00000010H
$LN17@Destroy_ra:

; 96   : 	for (; _First != _Last; ++_First)

  00014	3b 75 0c	 cmp	 esi, DWORD PTR __Last$[ebp]
  00017	75 f0		 jne	 SHORT $LL3@Destroy_ra
  00019	5e		 pop	 esi

; 98   : 	}

  0001a	5d		 pop	 ebp
  0001b	c3		 ret	 0
??$_Destroy_range@V?$allocator@VioHashString@@@std@@@std@@YAXPAVioHashString@@0AAV?$allocator@VioHashString@@@0@U_Nonscalar_ptr_iterator_tag@0@@Z ENDP ; std::_Destroy_range<std::allocator<ioHashString> >
_TEXT	ENDS
PUBLIC	??$_Uninitialized_move@PAVioHashString@@PAV1@V?$allocator@VioHashString@@@std@@@std@@YAPAVioHashString@@PAV1@00AAV?$allocator@VioHashString@@@0@@Z ; std::_Uninitialized_move<ioHashString *,ioHashString *,std::allocator<ioHashString> >
; Function compile flags: /Ogsp
; File c:\program files (x86)\microsoft visual studio 10.0\vc\include\memory
;	COMDAT ??$_Uninitialized_move@PAVioHashString@@PAV1@V?$allocator@VioHashString@@@std@@@std@@YAPAVioHashString@@PAV1@00AAV?$allocator@VioHashString@@@0@@Z
_TEXT	SEGMENT
__Cat$553526 = -4					; size = 1
__First$ = 8						; size = 4
__Last$ = 12						; size = 4
__Dest$ = 16						; size = 4
__Al$ = 20						; size = 4
??$_Uninitialized_move@PAVioHashString@@PAV1@V?$allocator@VioHashString@@@std@@@std@@YAPAVioHashString@@PAV1@00AAV?$allocator@VioHashString@@@0@@Z PROC ; std::_Uninitialized_move<ioHashString *,ioHashString *,std::allocator<ioHashString> >, COMDAT

; 469  : 	{	// move [_First, _Last) to raw _Dest, using _Al

  00000	55		 push	 ebp
  00001	8b ec		 mov	 ebp, esp
  00003	51		 push	 ecx

; 470  : 	return (_Uninit_move(_First, _Last, _Dest, _Al,
; 471  : 		_Val_type(_First), _Ptr_cat(_First, _Dest)));

  00004	ff 75 fc	 push	 DWORD PTR __Cat$553526[ebp]
  00007	6a 00		 push	 0
  00009	ff 75 14	 push	 DWORD PTR __Al$[ebp]
  0000c	ff 75 10	 push	 DWORD PTR __Dest$[ebp]
  0000f	ff 75 0c	 push	 DWORD PTR __Last$[ebp]
  00012	ff 75 08	 push	 DWORD PTR __First$[ebp]
  00015	e8 00 00 00 00	 call	 ??$_Uninit_move@PAVioHashString@@PAV1@V?$allocator@VioHashString@@@std@@V1@@std@@YAPAVioHashString@@PAV1@00AAV?$allocator@VioHashString@@@0@0U_Nonscalar_ptr_iterator_tag@0@@Z ; std::_Uninit_move<ioHashString *,ioHashString *,std::allocator<ioHashString>,ioHashString>
  0001a	83 c4 18	 add	 esp, 24			; 00000018H

; 472  : 	}

  0001d	c9		 leave
  0001e	c3		 ret	 0
??$_Uninitialized_move@PAVioHashString@@PAV1@V?$allocator@VioHashString@@@std@@@std@@YAPAVioHashString@@PAV1@00AAV?$allocator@VioHashString@@@0@@Z ENDP ; std::_Uninitialized_move<ioHashString *,ioHashString *,std::allocator<ioHashString> >
_TEXT	ENDS
PUBLIC	??$_Destroy_range@V?$allocator@VioHashString@@@std@@@std@@YAXPAVioHashString@@0AAV?$allocator@VioHashString@@@0@@Z ; std::_Destroy_range<std::allocator<ioHashString> >
; Function compile flags: /Ogsp
; File c:\program files (x86)\microsoft visual studio 10.0\vc\include\xmemory
;	COMDAT ??$_Destroy_range@V?$allocator@VioHashString@@@std@@@std@@YAXPAVioHashString@@0AAV?$allocator@VioHashString@@@0@@Z
_TEXT	SEGMENT
__First$ = 8						; size = 4
__Last$ = 12						; size = 4
__Al$ = 16						; size = 4
??$_Destroy_range@V?$allocator@VioHashString@@@std@@@std@@YAXPAVioHashString@@0AAV?$allocator@VioHashString@@@0@@Z PROC ; std::_Destroy_range<std::allocator<ioHashString> >, COMDAT

; 87   : 	{	// destroy [_First, _Last)

  00000	55		 push	 ebp
  00001	8b ec		 mov	 ebp, esp
  00003	56		 push	 esi

; 88   : 	_Destroy_range(_First, _Last, _Al, _Ptr_cat(_First, _Last));

  00004	8b 75 08	 mov	 esi, DWORD PTR __First$[ebp]
  00007	eb 0b		 jmp	 SHORT $LN21@Destroy_ra@2
$LL7@Destroy_ra@2:
  00009	8b ce		 mov	 ecx, esi
  0000b	ff 15 00 00 00
	00		 call	 DWORD PTR __imp_??1ioHashString@@QAE@XZ
  00011	83 c6 10	 add	 esi, 16			; 00000010H
$LN21@Destroy_ra@2:
  00014	3b 75 0c	 cmp	 esi, DWORD PTR __Last$[ebp]
  00017	75 f0		 jne	 SHORT $LL7@Destroy_ra@2
  00019	5e		 pop	 esi

; 89   : 	}

  0001a	5d		 pop	 ebp
  0001b	c3		 ret	 0
??$_Destroy_range@V?$allocator@VioHashString@@@std@@@std@@YAXPAVioHashString@@0AAV?$allocator@VioHashString@@@0@@Z ENDP ; std::_Destroy_range<std::allocator<ioHashString> >
_TEXT	ENDS
PUBLIC	??$_Umove@PAVioHashString@@@?$vector@VioHashString@@V?$allocator@VioHashString@@@std@@@std@@IAEPAVioHashString@@PAV2@00@Z ; std::vector<ioHashString,std::allocator<ioHashString> >::_Umove<ioHashString *>
; Function compile flags: /Ogsp
; File c:\program files (x86)\microsoft visual studio 10.0\vc\include\vector
;	COMDAT ??$_Umove@PAVioHashString@@@?$vector@VioHashString@@V?$allocator@VioHashString@@@std@@@std@@IAEPAVioHashString@@PAV2@00@Z
_TEXT	SEGMENT
__First$ = 8						; size = 4
__Last$ = 12						; size = 4
__Ptr$ = 16						; size = 4
??$_Umove@PAVioHashString@@@?$vector@VioHashString@@V?$allocator@VioHashString@@@std@@@std@@IAEPAVioHashString@@PAV2@00@Z PROC ; std::vector<ioHashString,std::allocator<ioHashString> >::_Umove<ioHashString *>, COMDAT
; _this$ = ecx

; 1322 : 		pointer _Umove(_Iter _First, _Iter _Last, pointer _Ptr)

  00000	55		 push	 ebp
  00001	8b ec		 mov	 ebp, esp

; 1323 : 		{	// move initializing [_First, _Last), using allocator
; 1324 : 		return (_Uninitialized_move(_First, _Last,
; 1325 : 			_Ptr, this->_Alval));

  00003	83 c1 0c	 add	 ecx, 12			; 0000000cH
  00006	51		 push	 ecx
  00007	ff 75 10	 push	 DWORD PTR __Ptr$[ebp]
  0000a	ff 75 0c	 push	 DWORD PTR __Last$[ebp]
  0000d	ff 75 08	 push	 DWORD PTR __First$[ebp]
  00010	e8 00 00 00 00	 call	 ??$_Uninitialized_move@PAVioHashString@@PAV1@V?$allocator@VioHashString@@@std@@@std@@YAPAVioHashString@@PAV1@00AAV?$allocator@VioHashString@@@0@@Z ; std::_Uninitialized_move<ioHashString *,ioHashString *,std::allocator<ioHashString> >
  00015	83 c4 10	 add	 esp, 16			; 00000010H

; 1326 : 		}

  00018	5d		 pop	 ebp
  00019	c2 0c 00	 ret	 12			; 0000000cH
??$_Umove@PAVioHashString@@@?$vector@VioHashString@@V?$allocator@VioHashString@@@std@@@std@@IAEPAVioHashString@@PAV2@00@Z ENDP ; std::vector<ioHashString,std::allocator<ioHashString> >::_Umove<ioHashString *>
_TEXT	ENDS
PUBLIC	?_Destroy@?$vector@VioHashString@@V?$allocator@VioHashString@@@std@@@std@@IAEXPAVioHashString@@0@Z ; std::vector<ioHashString,std::allocator<ioHashString> >::_Destroy
; Function compile flags: /Ogsp
;	COMDAT ?_Destroy@?$vector@VioHashString@@V?$allocator@VioHashString@@@std@@@std@@IAEXPAVioHashString@@0@Z
_TEXT	SEGMENT
__First$ = 8						; size = 4
__Last$ = 12						; size = 4
?_Destroy@?$vector@VioHashString@@V?$allocator@VioHashString@@@std@@@std@@IAEXPAVioHashString@@0@Z PROC ; std::vector<ioHashString,std::allocator<ioHashString> >::_Destroy, COMDAT
; _this$ = ecx

; 1269 : 		{	// destroy [_First, _Last) using allocator

  00000	55		 push	 ebp
  00001	8b ec		 mov	 ebp, esp
  00003	56		 push	 esi

; 1270 : 		_Destroy_range(_First, _Last, this->_Alval);

  00004	8b 75 08	 mov	 esi, DWORD PTR __First$[ebp]
  00007	eb 0b		 jmp	 SHORT $LN23@Destroy
$LL9@Destroy:
  00009	8b ce		 mov	 ecx, esi
  0000b	ff 15 00 00 00
	00		 call	 DWORD PTR __imp_??1ioHashString@@QAE@XZ
  00011	83 c6 10	 add	 esi, 16			; 00000010H
$LN23@Destroy:
  00014	3b 75 0c	 cmp	 esi, DWORD PTR __Last$[ebp]
  00017	75 f0		 jne	 SHORT $LL9@Destroy
  00019	5e		 pop	 esi

; 1271 : 		}

  0001a	5d		 pop	 ebp
  0001b	c2 08 00	 ret	 8
?_Destroy@?$vector@VioHashString@@V?$allocator@VioHashString@@@std@@@std@@IAEXPAVioHashString@@0@Z ENDP ; std::vector<ioHashString,std::allocator<ioHashString> >::_Destroy
_TEXT	ENDS
PUBLIC	?reserve@?$vector@VioHashString@@V?$allocator@VioHashString@@@std@@@std@@QAEXI@Z ; std::vector<ioHashString,std::allocator<ioHashString> >::reserve
EXTRN	__imp_?_Orphan_all@_Container_base0@std@@QAEXXZ:PROC
;	COMDAT xdata$x
; File c:\program files (x86)\microsoft visual studio 10.0\vc\include\xmemory
xdata$x	SEGMENT
__catchsym$?reserve@?$vector@VioHashString@@V?$allocator@VioHashString@@@std@@@std@@QAEXI@Z$2 DD 040H
	DD	00H
	DD	00H
	DD	FLAT:__catch$?reserve@?$vector@VioHashString@@V?$allocator@VioHashString@@@std@@@std@@QAEXI@Z$0
__unwindtable$?reserve@?$vector@VioHashString@@V?$allocator@VioHashString@@@std@@@std@@QAEXI@Z DD 0ffffffffH
	DD	00H
	DD	0ffffffffH
	DD	00H
__tryblocktable$?reserve@?$vector@VioHashString@@V?$allocator@VioHashString@@@std@@@std@@QAEXI@Z DD 00H
	DD	00H
	DD	01H
	DD	01H
	DD	FLAT:__catchsym$?reserve@?$vector@VioHashString@@V?$allocator@VioHashString@@@std@@@std@@QAEXI@Z$2
__ehfuncinfo$?reserve@?$vector@VioHashString@@V?$allocator@VioHashString@@@std@@@std@@QAEXI@Z DD 019930522H
	DD	02H
	DD	FLAT:__unwindtable$?reserve@?$vector@VioHashString@@V?$allocator@VioHashString@@@std@@@std@@QAEXI@Z
	DD	01H
	DD	FLAT:__tryblocktable$?reserve@?$vector@VioHashString@@V?$allocator@VioHashString@@@std@@@std@@QAEXI@Z
	DD	2 DUP(00H)
	DD	00H
	DD	01H
; Function compile flags: /Ogsp
; File c:\program files (x86)\microsoft visual studio 10.0\vc\include\vector
xdata$x	ENDS
;	COMDAT ?reserve@?$vector@VioHashString@@V?$allocator@VioHashString@@@std@@@std@@QAEXI@Z
_TEXT	SEGMENT
tv300 = -24						; size = 4
__Ptr$550750 = -20					; size = 4
__$EHRec$ = -16						; size = 16
$T553755 = 8						; size = 4
__Count$ = 8						; size = 4
?reserve@?$vector@VioHashString@@V?$allocator@VioHashString@@@std@@@std@@QAEXI@Z PROC ; std::vector<ioHashString,std::allocator<ioHashString> >::reserve, COMDAT
; _this$ = ecx

; 746  : 		{	// determine new minimum length of allocated storage

  00000	6a 0c		 push	 12			; 0000000cH
  00002	b8 00 00 00 00	 mov	 eax, __ehhandler$?reserve@?$vector@VioHashString@@V?$allocator@VioHashString@@@std@@@std@@QAEXI@Z
  00007	e8 00 00 00 00	 call	 __EH_prolog3_catch
  0000c	8b f1		 mov	 esi, ecx

; 747  : 		if (max_size() < _Count)

  0000e	8b 5d 08	 mov	 ebx, DWORD PTR __Count$[ebp]
  00011	81 fb ff ff ff
	0f		 cmp	 ebx, 268435455		; 0fffffffH
  00017	76 0b		 jbe	 SHORT $LN5@reserve

; 748  : 			_Xlen();	// result too long

  00019	68 00 00 00 00	 push	 OFFSET ??_C@_0BD@OLBABOEK@vector?$DMT?$DO?5too?5long?$AA@
  0001e	ff 15 00 00 00
	00		 call	 DWORD PTR __imp_?_Xlength_error@std@@YAXPBD@Z
$LN59@reserve:
$LN5@reserve:

; 749  : 		else if (capacity() < _Count)

  00024	8b 46 08	 mov	 eax, DWORD PTR [esi+8]
  00027	2b 06		 sub	 eax, DWORD PTR [esi]
  00029	c1 f8 04	 sar	 eax, 4
  0002c	3b c3		 cmp	 eax, ebx
  0002e	73 7a		 jae	 SHORT $LN3@reserve

; 750  : 			{	// not enough room, reallocate
; 751  : 			pointer _Ptr = this->_Alval.allocate(_Count);

  00030	6a 00		 push	 0
  00032	53		 push	 ebx
  00033	e8 00 00 00 00	 call	 ??$_Allocate@VioHashString@@@std@@YAPAVioHashString@@IPAV1@@Z ; std::_Allocate<ioHashString>

; 752  : 
; 753  : 			_TRY_BEGIN
; 754  : 			_Umove(this->_Myfirst, this->_Mylast, _Ptr);

  00038	8b 0e		 mov	 ecx, DWORD PTR [esi]
  0003a	83 65 fc 00	 and	 DWORD PTR __$EHRec$[ebp+12], 0
  0003e	8d 56 0c	 lea	 edx, DWORD PTR [esi+12]
  00041	52		 push	 edx
  00042	89 45 ec	 mov	 DWORD PTR __Ptr$550750[ebp], eax
  00045	ff 75 ec	 push	 DWORD PTR __Ptr$550750[ebp]
  00048	8b 46 04	 mov	 eax, DWORD PTR [esi+4]
  0004b	50		 push	 eax
  0004c	51		 push	 ecx
  0004d	e8 00 00 00 00	 call	 ??$_Uninitialized_move@PAVioHashString@@PAV1@V?$allocator@VioHashString@@@std@@@std@@YAPAVioHashString@@PAV1@00AAV?$allocator@VioHashString@@@0@@Z ; std::_Uninitialized_move<ioHashString *,ioHashString *,std::allocator<ioHashString> >

; 758  : 			_CATCH_END
; 759  : 
; 760  : 			size_type _Size = size();

  00052	8b 4e 04	 mov	 ecx, DWORD PTR [esi+4]
  00055	8b 06		 mov	 eax, DWORD PTR [esi]
  00057	83 4d fc ff	 or	 DWORD PTR __$EHRec$[ebp+12], -1
  0005b	8b f9		 mov	 edi, ecx
  0005d	83 c4 18	 add	 esp, 24			; 00000018H
  00060	2b f8		 sub	 edi, eax
  00062	89 4d e8	 mov	 DWORD PTR tv300[ebp], ecx
  00065	85 c0		 test	 eax, eax
  00067	74 24		 je	 SHORT $LN51@reserve

; 761  : 			if (this->_Myfirst != 0)
; 762  : 				{	// destroy and deallocate old array
; 763  : 				_Destroy(this->_Myfirst, this->_Mylast);

  00069	89 45 08	 mov	 DWORD PTR $T553755[ebp], eax
  0006c	3b c1		 cmp	 eax, ecx
  0006e	74 15		 je	 SHORT $LN37@reserve
$LN39@reserve:
  00070	8b 4d 08	 mov	 ecx, DWORD PTR $T553755[ebp]
  00073	ff 15 00 00 00
	00		 call	 DWORD PTR __imp_??1ioHashString@@QAE@XZ
  00079	83 45 08 10	 add	 DWORD PTR $T553755[ebp], 16 ; 00000010H
  0007d	8b 45 08	 mov	 eax, DWORD PTR $T553755[ebp]
  00080	3b 45 e8	 cmp	 eax, DWORD PTR tv300[ebp]
  00083	75 eb		 jne	 SHORT $LN39@reserve
$LN37@reserve:

; 764  : 				this->_Alval.deallocate(this->_Myfirst,
; 765  : 					this->_Myend - this->_Myfirst);

  00085	ff 36		 push	 DWORD PTR [esi]
  00087	e8 00 00 00 00	 call	 ??3@YAXPAX@Z		; operator delete
  0008c	59		 pop	 ecx
$LN51@reserve:

; 766  : 				}
; 767  : 
; 768  : 			this->_Orphan_all();

  0008d	8b ce		 mov	 ecx, esi
  0008f	ff 15 00 00 00
	00		 call	 DWORD PTR __imp_?_Orphan_all@_Container_base0@std@@QAEXXZ

; 769  : 			this->_Myend = _Ptr + _Count;

  00095	8b 45 ec	 mov	 eax, DWORD PTR __Ptr$550750[ebp]
  00098	c1 e3 04	 shl	 ebx, 4
  0009b	03 d8		 add	 ebx, eax

; 770  : 			this->_Mylast = _Ptr + _Size;

  0009d	83 e7 f0	 and	 edi, -16		; fffffff0H
  000a0	03 f8		 add	 edi, eax
  000a2	89 5e 08	 mov	 DWORD PTR [esi+8], ebx
  000a5	89 7e 04	 mov	 DWORD PTR [esi+4], edi

; 771  : 			this->_Myfirst = _Ptr;

  000a8	89 06		 mov	 DWORD PTR [esi], eax
$LN3@reserve:

; 772  : 			}
; 773  : 		}

  000aa	e8 00 00 00 00	 call	 __EH_epilog3
  000af	c2 04 00	 ret	 4
__catch$?reserve@?$vector@VioHashString@@V?$allocator@VioHashString@@@std@@@std@@QAEXI@Z$0:

; 755  : 			_CATCH_ALL
; 756  : 			this->_Alval.deallocate(_Ptr, _Count);

  000b2	ff 75 ec	 push	 DWORD PTR __Ptr$550750[ebp]
  000b5	e8 00 00 00 00	 call	 ??3@YAXPAX@Z		; operator delete
  000ba	59		 pop	 ecx

; 757  : 			_RERAISE;

  000bb	6a 00		 push	 0
  000bd	6a 00		 push	 0
  000bf	e8 00 00 00 00	 call	 __CxxThrowException@8
$LN60@reserve:
$LN58@reserve:
  000c4	cc		 int	 3
_TEXT	ENDS
;	COMDAT text$x
text$x	SEGMENT
__ehhandler$?reserve@?$vector@VioHashString@@V?$allocator@VioHashString@@@std@@@std@@QAEXI@Z:
  00000	8b 54 24 08	 mov	 edx, DWORD PTR [esp+8]
  00004	8d 42 0c	 lea	 eax, DWORD PTR [edx+12]
  00007	8b 4a e4	 mov	 ecx, DWORD PTR [edx-28]
  0000a	33 c8		 xor	 ecx, eax
  0000c	e8 00 00 00 00	 call	 @__security_check_cookie@4
  00011	b8 00 00 00 00	 mov	 eax, OFFSET __ehfuncinfo$?reserve@?$vector@VioHashString@@V?$allocator@VioHashString@@@std@@@std@@QAEXI@Z
  00016	e9 00 00 00 00	 jmp	 ___CxxFrameHandler3
text$x	ENDS
?reserve@?$vector@VioHashString@@V?$allocator@VioHashString@@@std@@@std@@QAEXI@Z ENDP ; std::vector<ioHashString,std::allocator<ioHashString> >::reserve
PUBLIC	?_Reserve@?$vector@VioHashString@@V?$allocator@VioHashString@@@std@@@std@@IAEXI@Z ; std::vector<ioHashString,std::allocator<ioHashString> >::_Reserve
; Function compile flags: /Ogsp
;	COMDAT ?_Reserve@?$vector@VioHashString@@V?$allocator@VioHashString@@@std@@@std@@IAEXI@Z
_TEXT	SEGMENT
__Count$ = 8						; size = 4
?_Reserve@?$vector@VioHashString@@V?$allocator@VioHashString@@@std@@@std@@IAEXI@Z PROC ; std::vector<ioHashString,std::allocator<ioHashString> >::_Reserve, COMDAT
; _this$ = ecx

; 1290 : 		{	// ensure room for _Count new elements, grow exponentially

  00000	55		 push	 ebp
  00001	8b ec		 mov	 ebp, esp
  00003	56		 push	 esi
  00004	8b f1		 mov	 esi, ecx

; 1291 : 		size_type _Size = size();

  00006	8b 0e		 mov	 ecx, DWORD PTR [esi]
  00008	8b 46 04	 mov	 eax, DWORD PTR [esi+4]
  0000b	2b c1		 sub	 eax, ecx

; 1292 : 		if (max_size() - _Count < _Size)

  0000d	ba ff ff ff 0f	 mov	 edx, 268435455		; 0fffffffH
  00012	2b 55 08	 sub	 edx, DWORD PTR __Count$[ebp]
  00015	c1 f8 04	 sar	 eax, 4
  00018	3b d0		 cmp	 edx, eax
  0001a	73 0b		 jae	 SHORT $LN4@Reserve

; 1293 : 			_Xlen();

  0001c	68 00 00 00 00	 push	 OFFSET ??_C@_0BD@OLBABOEK@vector?$DMT?$DO?5too?5long?$AA@
  00021	ff 15 00 00 00
	00		 call	 DWORD PTR __imp_?_Xlength_error@std@@YAXPBD@Z
$LN21@Reserve:
$LN4@Reserve:

; 1294 : 		else if ((_Size += _Count) <= capacity())

  00027	8b 56 08	 mov	 edx, DWORD PTR [esi+8]
  0002a	03 45 08	 add	 eax, DWORD PTR __Count$[ebp]
  0002d	2b d1		 sub	 edx, ecx
  0002f	c1 fa 04	 sar	 edx, 4
  00032	3b c2		 cmp	 eax, edx
  00034	76 10		 jbe	 SHORT $LN1@Reserve

; 1295 : 			;
; 1296 : 		else
; 1297 : 			reserve(_Grow_to(_Size));

  00036	50		 push	 eax
  00037	8b ce		 mov	 ecx, esi
  00039	e8 00 00 00 00	 call	 ?_Grow_to@?$vector@VioHashString@@V?$allocator@VioHashString@@@std@@@std@@IBEII@Z ; std::vector<ioHashString,std::allocator<ioHashString> >::_Grow_to
  0003e	50		 push	 eax
  0003f	8b ce		 mov	 ecx, esi
  00041	e8 00 00 00 00	 call	 ?reserve@?$vector@VioHashString@@V?$allocator@VioHashString@@@std@@@std@@QAEXI@Z ; std::vector<ioHashString,std::allocator<ioHashString> >::reserve
$LN1@Reserve:
  00046	5e		 pop	 esi

; 1298 : 		}

  00047	5d		 pop	 ebp
  00048	c2 04 00	 ret	 4
$LN20@Reserve:
?_Reserve@?$vector@VioHashString@@V?$allocator@VioHashString@@@std@@@std@@IAEXI@Z ENDP ; std::vector<ioHashString,std::allocator<ioHashString> >::_Reserve
_TEXT	ENDS
PUBLIC	?erase@?$vector@VioHashString@@V?$allocator@VioHashString@@@std@@@std@@QAE?AV?$_Vector_iterator@V?$_Vector_val@VioHashString@@V?$allocator@VioHashString@@@std@@@std@@@2@V?$_Vector_const_iterator@V?$_Vector_val@VioHashString@@V?$allocator@VioHashString@@@std@@@std@@@2@0@Z ; std::vector<ioHashString,std::allocator<ioHashString> >::erase
; Function compile flags: /Ogsp
;	COMDAT ?erase@?$vector@VioHashString@@V?$allocator@VioHashString@@@std@@@std@@QAE?AV?$_Vector_iterator@V?$_Vector_val@VioHashString@@V?$allocator@VioHashString@@@std@@@std@@@2@V?$_Vector_const_iterator@V?$_Vector_val@VioHashString@@V?$allocator@VioHashString@@@std@@@std@@@2@0@Z
_TEXT	SEGMENT
$T553980 = -4						; size = 4
___$ReturnUdt$ = 8					; size = 4
__First_arg$ = 12					; size = 4
__Cat$553925 = 16					; size = 1
__Last_arg$ = 16					; size = 4
?erase@?$vector@VioHashString@@V?$allocator@VioHashString@@@std@@@std@@QAE?AV?$_Vector_iterator@V?$_Vector_val@VioHashString@@V?$allocator@VioHashString@@@std@@@std@@@2@V?$_Vector_const_iterator@V?$_Vector_val@VioHashString@@V?$allocator@VioHashString@@@std@@@std@@@2@0@Z PROC ; std::vector<ioHashString,std::allocator<ioHashString> >::erase, COMDAT
; _this$ = ecx

; 1190 : 		{	// erase [_First, _Last)

  00000	55		 push	 ebp
  00001	8b ec		 mov	 ebp, esp
  00003	51		 push	 ecx

; 1191 : 		iterator _First = _Make_iter(_First_arg);

  00004	8b 45 08	 mov	 eax, DWORD PTR ___$ReturnUdt$[ebp]
  00007	56		 push	 esi
  00008	8b f1		 mov	 esi, ecx
  0000a	8b 4d 0c	 mov	 ecx, DWORD PTR __First_arg$[ebp]
  0000d	89 08		 mov	 DWORD PTR [eax], ecx

; 1192 : 		iterator _Last = _Make_iter(_Last_arg);
; 1193 : 
; 1194 : 		if (_First != _Last)

  0000f	3b 4d 10	 cmp	 ecx, DWORD PTR __Last_arg$[ebp]
  00012	74 38		 je	 SHORT $LN1@erase

; 1195 : 			{	// worth doing, copy down over hole
; 1196 :  #if _ITERATOR_DEBUG_LEVEL == 2
; 1197 : 			if (_Last < _First || _VICONT(_First) != this
; 1198 : 				|| _VIPTR(_First) < this->_Myfirst
; 1199 : 				|| this->_Mylast < _VIPTR(_Last))
; 1200 : 				_DEBUG_ERROR("vector erase iterator outside range");
; 1201 : 			pointer _Ptr = _Move(_VIPTR(_Last), this->_Mylast,
; 1202 : 				_VIPTR(_First));
; 1203 : 			_Orphan_range(_VIPTR(_First), this->_Mylast);
; 1204 : 
; 1205 :  #else /* _ITERATOR_DEBUG_LEVEL == 2 */
; 1206 : 			pointer _Ptr = _Move(_VIPTR(_Last), this->_Mylast,
; 1207 : 				_VIPTR(_First));

  00014	8b 46 04	 mov	 eax, DWORD PTR [esi+4]
  00017	53		 push	 ebx
  00018	57		 push	 edi
  00019	ff 75 10	 push	 DWORD PTR __Cat$553925[ebp]
  0001c	51		 push	 ecx
  0001d	50		 push	 eax
  0001e	ff 75 10	 push	 DWORD PTR __Last_arg$[ebp]
  00021	e8 00 00 00 00	 call	 ??$_Move@PAVioHashString@@PAV1@@std@@YAPAVioHashString@@PAV1@00U_Nonscalar_ptr_iterator_tag@0@@Z ; std::_Move<ioHashString *,ioHashString *>

; 1208 :  #endif /* _ITERATOR_DEBUG_LEVEL == 2 */
; 1209 : 
; 1210 : 			_Destroy(_Ptr, this->_Mylast);

  00026	8b 7e 04	 mov	 edi, DWORD PTR [esi+4]
  00029	8b d8		 mov	 ebx, eax
  0002b	83 c4 10	 add	 esp, 16			; 00000010H
  0002e	89 5d fc	 mov	 DWORD PTR $T553980[ebp], ebx
  00031	3b df		 cmp	 ebx, edi
  00033	74 12		 je	 SHORT $LN36@erase
$LL52@erase:
  00035	8b 4d fc	 mov	 ecx, DWORD PTR $T553980[ebp]
  00038	ff 15 00 00 00
	00		 call	 DWORD PTR __imp_??1ioHashString@@QAE@XZ
  0003e	83 45 fc 10	 add	 DWORD PTR $T553980[ebp], 16 ; 00000010H
  00042	39 7d fc	 cmp	 DWORD PTR $T553980[ebp], edi
  00045	75 ee		 jne	 SHORT $LL52@erase
$LN36@erase:

; 1211 : 			this->_Mylast = _Ptr;

  00047	5f		 pop	 edi
  00048	89 5e 04	 mov	 DWORD PTR [esi+4], ebx
  0004b	5b		 pop	 ebx
$LN1@erase:

; 1212 : 			}
; 1213 : 		return (_First);

  0004c	8b 45 08	 mov	 eax, DWORD PTR ___$ReturnUdt$[ebp]
  0004f	5e		 pop	 esi

; 1214 : 		}

  00050	c9		 leave
  00051	c2 0c 00	 ret	 12			; 0000000cH
?erase@?$vector@VioHashString@@V?$allocator@VioHashString@@@std@@@std@@QAE?AV?$_Vector_iterator@V?$_Vector_val@VioHashString@@V?$allocator@VioHashString@@@std@@@std@@@2@V?$_Vector_const_iterator@V?$_Vector_val@VioHashString@@V?$allocator@VioHashString@@@std@@@std@@@2@0@Z ENDP ; std::vector<ioHashString,std::allocator<ioHashString> >::erase
_TEXT	ENDS
PUBLIC	?_Tidy@?$vector@VioHashString@@V?$allocator@VioHashString@@@std@@@std@@IAEXXZ ; std::vector<ioHashString,std::allocator<ioHashString> >::_Tidy
; Function compile flags: /Ogsp
;	COMDAT ?_Tidy@?$vector@VioHashString@@V?$allocator@VioHashString@@@std@@@std@@IAEXXZ
_TEXT	SEGMENT
?_Tidy@?$vector@VioHashString@@V?$allocator@VioHashString@@@std@@@std@@IAEXXZ PROC ; std::vector<ioHashString,std::allocator<ioHashString> >::_Tidy, COMDAT
; _this$ = ecx

; 1301 : 		{	// free all storage

  00000	56		 push	 esi
  00001	8b f1		 mov	 esi, ecx

; 1302 : 		if (this->_Myfirst != 0)

  00003	83 3e 00	 cmp	 DWORD PTR [esi], 0
  00006	74 28		 je	 SHORT $LN24@Tidy

; 1303 : 			{	// something to free, destroy and deallocate it
; 1304 : 			this->_Orphan_all();

  00008	53		 push	 ebx
  00009	57		 push	 edi
  0000a	ff 15 00 00 00
	00		 call	 DWORD PTR __imp_?_Orphan_all@_Container_base0@std@@QAEXXZ

; 1305 : 			_Destroy(this->_Myfirst, this->_Mylast);

  00010	8b 5e 04	 mov	 ebx, DWORD PTR [esi+4]
  00013	8b 3e		 mov	 edi, DWORD PTR [esi]
  00015	eb 0b		 jmp	 SHORT $LN28@Tidy
$LL12@Tidy:
  00017	8b cf		 mov	 ecx, edi
  00019	ff 15 00 00 00
	00		 call	 DWORD PTR __imp_??1ioHashString@@QAE@XZ
  0001f	83 c7 10	 add	 edi, 16			; 00000010H
$LN28@Tidy:
  00022	3b fb		 cmp	 edi, ebx
  00024	75 f1		 jne	 SHORT $LL12@Tidy

; 1306 : 			this->_Alval.deallocate(this->_Myfirst,
; 1307 : 				this->_Myend - this->_Myfirst);

  00026	ff 36		 push	 DWORD PTR [esi]
  00028	e8 00 00 00 00	 call	 ??3@YAXPAX@Z		; operator delete
  0002d	59		 pop	 ecx
  0002e	5f		 pop	 edi
  0002f	5b		 pop	 ebx
$LN24@Tidy:

; 1308 : 			}
; 1309 : 		this->_Myfirst = 0;

  00030	33 c0		 xor	 eax, eax
  00032	89 06		 mov	 DWORD PTR [esi], eax

; 1310 : 		this->_Mylast = 0;

  00034	89 46 04	 mov	 DWORD PTR [esi+4], eax

; 1311 : 		this->_Myend = 0;

  00037	89 46 08	 mov	 DWORD PTR [esi+8], eax
  0003a	5e		 pop	 esi

; 1312 : 		}

  0003b	c3		 ret	 0
?_Tidy@?$vector@VioHashString@@V?$allocator@VioHashString@@@std@@@std@@IAEXXZ ENDP ; std::vector<ioHashString,std::allocator<ioHashString> >::_Tidy
_TEXT	ENDS
PUBLIC	?push_back@?$vector@VioHashString@@V?$allocator@VioHashString@@@std@@@std@@QAEXABVioHashString@@@Z ; std::vector<ioHashString,std::allocator<ioHashString> >::push_back
; Function compile flags: /Ogsp
;	COMDAT ?push_back@?$vector@VioHashString@@V?$allocator@VioHashString@@@std@@@std@@QAEXABVioHashString@@@Z
_TEXT	SEGMENT
__Val$ = 8						; size = 4
?push_back@?$vector@VioHashString@@V?$allocator@VioHashString@@@std@@@std@@QAEXABVioHashString@@@Z PROC ; std::vector<ioHashString,std::allocator<ioHashString> >::push_back, COMDAT
; _this$ = ecx

; 976  : 		{	// insert element at end

  00000	55		 push	 ebp
  00001	8b ec		 mov	 ebp, esp
  00003	56		 push	 esi
  00004	8b f1		 mov	 esi, ecx

; 977  : 		if (_Inside(_STD addressof(_Val)))

  00006	8b 46 04	 mov	 eax, DWORD PTR [esi+4]
  00009	57		 push	 edi
  0000a	8b 7d 08	 mov	 edi, DWORD PTR __Val$[ebp]
  0000d	3b f8		 cmp	 edi, eax
  0000f	73 29		 jae	 SHORT $LN4@push_back
  00011	8b 0e		 mov	 ecx, DWORD PTR [esi]
  00013	3b cf		 cmp	 ecx, edi
  00015	77 23		 ja	 SHORT $LN4@push_back

; 978  : 			{	// push back an element
; 979  : 			size_type _Idx = _STD addressof(_Val) - this->_Myfirst;

  00017	2b f9		 sub	 edi, ecx

; 980  : 			if (this->_Mylast == this->_Myend)

  00019	3b 46 08	 cmp	 eax, DWORD PTR [esi+8]
  0001c	75 09		 jne	 SHORT $LN3@push_back

; 981  : 				_Reserve(1);

  0001e	6a 01		 push	 1
  00020	8b ce		 mov	 ecx, esi
  00022	e8 00 00 00 00	 call	 ?_Reserve@?$vector@VioHashString@@V?$allocator@VioHashString@@@std@@@std@@IAEXI@Z ; std::vector<ioHashString,std::allocator<ioHashString> >::_Reserve
$LN3@push_back:

; 982  : 			_Orphan_range(this->_Mylast, this->_Mylast);
; 983  : 			_Cons_val(this->_Alval,
; 984  : 				this->_Mylast,
; 985  : 				this->_Myfirst[_Idx]);

  00027	83 e7 f0	 and	 edi, -16		; fffffff0H
  0002a	03 3e		 add	 edi, DWORD PTR [esi]
  0002c	8d 4e 0c	 lea	 ecx, DWORD PTR [esi+12]
  0002f	57		 push	 edi
  00030	ff 76 04	 push	 DWORD PTR [esi+4]
  00033	e8 00 00 00 00	 call	 ??$construct@AAVioHashString@@@?$allocator@VioHashString@@@std@@QAEXPAVioHashString@@AAV2@@Z ; std::allocator<ioHashString>::construct<ioHashString &>

; 986  : 			++this->_Mylast;
; 987  : 			}
; 988  : 		else

  00038	eb 19		 jmp	 SHORT $LN30@push_back
$LN4@push_back:

; 989  : 			{	// push back a non-element
; 990  : 			if (this->_Mylast == this->_Myend)

  0003a	3b 46 08	 cmp	 eax, DWORD PTR [esi+8]
  0003d	75 09		 jne	 SHORT $LN1@push_back

; 991  : 				_Reserve(1);

  0003f	6a 01		 push	 1
  00041	8b ce		 mov	 ecx, esi
  00043	e8 00 00 00 00	 call	 ?_Reserve@?$vector@VioHashString@@V?$allocator@VioHashString@@@std@@@std@@IAEXI@Z ; std::vector<ioHashString,std::allocator<ioHashString> >::_Reserve
$LN1@push_back:

; 992  : 			_Orphan_range(this->_Mylast, this->_Mylast);
; 993  : 			_Cons_val(this->_Alval,
; 994  : 				this->_Mylast,
; 995  : 				_Val);

  00048	57		 push	 edi
  00049	ff 76 04	 push	 DWORD PTR [esi+4]
  0004c	e8 00 00 00 00	 call	 ??$_Construct@VioHashString@@ABV1@@std@@YAXPAVioHashString@@ABV1@@Z ; std::_Construct<ioHashString,ioHashString const &>
  00051	59		 pop	 ecx
  00052	59		 pop	 ecx
$LN30@push_back:

; 996  : 			++this->_Mylast;

  00053	83 46 04 10	 add	 DWORD PTR [esi+4], 16	; 00000010H
  00057	5f		 pop	 edi
  00058	5e		 pop	 esi

; 997  : 			}
; 998  : 		}

  00059	5d		 pop	 ebp
  0005a	c2 04 00	 ret	 4
?push_back@?$vector@VioHashString@@V?$allocator@VioHashString@@@std@@@std@@QAEXABVioHashString@@@Z ENDP ; std::vector<ioHashString,std::allocator<ioHashString> >::push_back
_TEXT	ENDS
PUBLIC	??1?$vector@VioHashString@@V?$allocator@VioHashString@@@std@@@std@@QAE@XZ ; std::vector<ioHashString,std::allocator<ioHashString> >::~vector<ioHashString,std::allocator<ioHashString> >
; Function compile flags: /Ogsp
;	COMDAT ??1?$vector@VioHashString@@V?$allocator@VioHashString@@@std@@@std@@QAE@XZ
_TEXT	SEGMENT
??1?$vector@VioHashString@@V?$allocator@VioHashString@@@std@@@std@@QAE@XZ PROC ; std::vector<ioHashString,std::allocator<ioHashString> >::~vector<ioHashString,std::allocator<ioHashString> >, COMDAT
; _this$ = ecx

; 705  : 		_Tidy();

  00000	e9 00 00 00 00	 jmp	 ?_Tidy@?$vector@VioHashString@@V?$allocator@VioHashString@@@std@@@std@@IAEXXZ ; std::vector<ioHashString,std::allocator<ioHashString> >::_Tidy
??1?$vector@VioHashString@@V?$allocator@VioHashString@@@std@@@std@@QAE@XZ ENDP ; std::vector<ioHashString,std::allocator<ioHashString> >::~vector<ioHashString,std::allocator<ioHashString> >
_TEXT	ENDS
PUBLIC	?clear@?$vector@VioHashString@@V?$allocator@VioHashString@@@std@@@std@@QAEXXZ ; std::vector<ioHashString,std::allocator<ioHashString> >::clear
; Function compile flags: /Ogsp
;	COMDAT ?clear@?$vector@VioHashString@@V?$allocator@VioHashString@@@std@@@std@@QAEXXZ
_TEXT	SEGMENT
$T554193 = -4						; size = 4
?clear@?$vector@VioHashString@@V?$allocator@VioHashString@@@std@@@std@@QAEXXZ PROC ; std::vector<ioHashString,std::allocator<ioHashString> >::clear, COMDAT
; _this$ = ecx

; 1217 : 		{	// erase all

  00000	55		 push	 ebp
  00001	8b ec		 mov	 ebp, esp
  00003	51		 push	 ecx

; 1218 : 		erase(begin(), end());

  00004	8b 41 04	 mov	 eax, DWORD PTR [ecx+4]
  00007	8b 11		 mov	 edx, DWORD PTR [ecx]
  00009	50		 push	 eax
  0000a	52		 push	 edx
  0000b	8d 45 fc	 lea	 eax, DWORD PTR $T554193[ebp]
  0000e	50		 push	 eax
  0000f	e8 00 00 00 00	 call	 ?erase@?$vector@VioHashString@@V?$allocator@VioHashString@@@std@@@std@@QAE?AV?$_Vector_iterator@V?$_Vector_val@VioHashString@@V?$allocator@VioHashString@@@std@@@std@@@2@V?$_Vector_const_iterator@V?$_Vector_val@VioHashString@@V?$allocator@VioHashString@@@std@@@std@@@2@0@Z ; std::vector<ioHashString,std::allocator<ioHashString> >::erase

; 1219 : 		}

  00014	c9		 leave
  00015	c3		 ret	 0
?clear@?$vector@VioHashString@@V?$allocator@VioHashString@@@std@@@std@@QAEXXZ ENDP ; std::vector<ioHashString,std::allocator<ioHashString> >::clear
_TEXT	ENDS
PUBLIC	??_7ioDummyStruct@@6BioWorldEventReceiver@@@	; ioDummyStruct::`vftable'
PUBLIC	??_7ioDummyStruct@@6BioPlayEntity@@@		; ioDummyStruct::`vftable'
PUBLIC	??0ioDummyStruct@@QAE@PAVioEntityGroup@@PAVioPlayMode@@@Z ; ioDummyStruct::ioDummyStruct
PUBLIC	??_R4ioDummyStruct@@6BioPlayEntity@@@		; ioDummyStruct::`RTTI Complete Object Locator'
PUBLIC	??_R0?AVioDummyStruct@@@8			; ioDummyStruct `RTTI Type Descriptor'
PUBLIC	??_R3ioDummyStruct@@8				; ioDummyStruct::`RTTI Class Hierarchy Descriptor'
PUBLIC	??_R2ioDummyStruct@@8				; ioDummyStruct::`RTTI Base Class Array'
PUBLIC	??_R1A@?0A@EA@ioDummyStruct@@8			; ioDummyStruct::`RTTI Base Class Descriptor at (0,-1,0,64)'
PUBLIC	??_R1A@?0A@EA@ioDummyChar@@8			; ioDummyChar::`RTTI Base Class Descriptor at (0,-1,0,64)'
PUBLIC	??_R0?AVioDummyChar@@@8				; ioDummyChar `RTTI Type Descriptor'
PUBLIC	??_R3ioDummyChar@@8				; ioDummyChar::`RTTI Class Hierarchy Descriptor'
PUBLIC	??_R2ioDummyChar@@8				; ioDummyChar::`RTTI Base Class Array'
PUBLIC	??_R1A@?0A@EA@ioPlayEntity@@8			; ioPlayEntity::`RTTI Base Class Descriptor at (0,-1,0,64)'
PUBLIC	??_R0?AVioPlayEntity@@@8			; ioPlayEntity `RTTI Type Descriptor'
PUBLIC	??_R3ioPlayEntity@@8				; ioPlayEntity::`RTTI Class Hierarchy Descriptor'
PUBLIC	??_R2ioPlayEntity@@8				; ioPlayEntity::`RTTI Base Class Array'
PUBLIC	??_R1A@?0A@EA@ioGameEntity@@8			; ioGameEntity::`RTTI Base Class Descriptor at (0,-1,0,64)'
PUBLIC	??_R0?AVioGameEntity@@@8			; ioGameEntity `RTTI Type Descriptor'
PUBLIC	??_R3ioGameEntity@@8				; ioGameEntity::`RTTI Class Hierarchy Descriptor'
PUBLIC	??_R2ioGameEntity@@8				; ioGameEntity::`RTTI Base Class Array'
PUBLIC	??_R1A@?0A@EA@ioEntityEvent@@8			; ioEntityEvent::`RTTI Base Class Descriptor at (0,-1,0,64)'
PUBLIC	??_R0?AVioEntityEvent@@@8			; ioEntityEvent `RTTI Type Descriptor'
PUBLIC	??_R3ioEntityEvent@@8				; ioEntityEvent::`RTTI Class Hierarchy Descriptor'
PUBLIC	??_R2ioEntityEvent@@8				; ioEntityEvent::`RTTI Base Class Array'
PUBLIC	??_R1BMI@?0A@EA@ioWorldEventReceiver@@8		; ioWorldEventReceiver::`RTTI Base Class Descriptor at (456,-1,0,64)'
PUBLIC	??_R0?AVioWorldEventReceiver@@@8		; ioWorldEventReceiver `RTTI Type Descriptor'
PUBLIC	??_R3ioWorldEventReceiver@@8			; ioWorldEventReceiver::`RTTI Class Hierarchy Descriptor'
PUBLIC	??_R2ioWorldEventReceiver@@8			; ioWorldEventReceiver::`RTTI Base Class Array'
PUBLIC	??_R1A@?0A@EA@ioWorldEventReceiver@@8		; ioWorldEventReceiver::`RTTI Base Class Descriptor at (0,-1,0,64)'
PUBLIC	?LoadProperty@ioDummyStruct@@UAEXAAVioINILoader@@@Z ; ioDummyStruct::LoadProperty
PUBLIC	?SetTeam@ioPlayEntity@@UAEXW4TeamType@@@Z	; ioPlayEntity::SetTeam
PUBLIC	?IsDummyCharMidSync@ioDummyChar@@UAE_NXZ	; ioDummyChar::IsDummyCharMidSync
PUBLIC	??_R4ioDummyStruct@@6BioWorldEventReceiver@@@	; ioDummyStruct::`RTTI Complete Object Locator'
PUBLIC	??_EioDummyStruct@@WBMI@AEPAXI@Z		; [thunk]:ioDummyStruct::`vector deleting destructor'
EXTRN	??1ioDummyChar@@UAE@XZ:PROC			; ioDummyChar::~ioDummyChar
EXTRN	__imp_??0ioHashString@@QAE@XZ:PROC
EXTRN	??0ioDummyChar@@QAE@PAVioEntityGroup@@PAVioPlayMode@@@Z:PROC ; ioDummyChar::ioDummyChar
EXTRN	?AddEntityEvent@ioDummyChar@@UAEXPAVioEntity@@@Z:PROC ; ioDummyChar::AddEntityEvent
EXTRN	??_EioDummyStruct@@UAEPAXI@Z:PROC		; ioDummyStruct::`vector deleting destructor'
EXTRN	?Update@ioDummyChar@@UAEXMKK@Z:PROC		; ioDummyChar::Update
EXTRN	?UpdateAfter@ioDummyChar@@UAEXM@Z:PROC		; ioDummyChar::UpdateAfter
EXTRN	?GetTypeID@ioPlayEntity@@UBEHXZ:PROC		; ioPlayEntity::GetTypeID
EXTRN	?IsNeedCheckMapCollision@ioDummyChar@@UBE_NXZ:PROC ; ioDummyChar::IsNeedCheckMapCollision
EXTRN	?IsMountAvailable@ioDummyChar@@UBE_NXZ:PROC	; ioDummyChar::IsMountAvailable
EXTRN	?IsMountingAvailable@ioDummyChar@@UBE_NXZ:PROC	; ioDummyChar::IsMountingAvailable
EXTRN	?IsNowMountEnable@ioDummyChar@@UBE_NXZ:PROC	; ioDummyChar::IsNowMountEnable
EXTRN	?HasEntity@ioGameEntity@@UAE_NABVioHashString@@@Z:PROC ; ioGameEntity::HasEntity
EXTRN	?AddEntity@ioGameEntity@@UAEPAVioEntity@@ABVioHashString@@@Z:PROC ; ioGameEntity::AddEntity
EXTRN	?DestroyEntity@ioGameEntity@@UAE_NABVioHashString@@@Z:PROC ; ioGameEntity::DestroyEntity
EXTRN	?GetEntity@ioGameEntity@@UAEPAVioEntity@@ABVioHashString@@@Z:PROC ; ioGameEntity::GetEntity
EXTRN	?UpdateBound@ioGameEntity@@MBEXXZ:PROC		; ioGameEntity::UpdateBound
EXTRN	?UpdateBottomHeight@ioDummyChar@@MBEXXZ:PROC	; ioDummyChar::UpdateBottomHeight
EXTRN	?NeedUpdateBottomHeight@ioDummyChar@@UAEXXZ:PROC ; ioDummyChar::NeedUpdateBottomHeight
EXTRN	?SetWorldPosition@ioGameEntity@@UAEXABUD3DXVECTOR3@@@Z:PROC ; ioGameEntity::SetWorldPosition
EXTRN	?SetWorldOrientation@ioGameEntity@@UAEXABUD3DXQUATERNION@@@Z:PROC ; ioGameEntity::SetWorldOrientation
EXTRN	?SetWorldScale@ioGameEntity@@UAEXABUD3DXVECTOR3@@@Z:PROC ; ioGameEntity::SetWorldScale
EXTRN	?Translate@ioDummyChar@@UAEXABUD3DXVECTOR3@@@Z:PROC ; ioDummyChar::Translate
EXTRN	?TranslateByWorldEntity@ioDummyChar@@UAEXABUD3DXVECTOR3@@@Z:PROC ; ioDummyChar::TranslateByWorldEntity
EXTRN	?MapCollisionPushingTranslate@ioDummyChar@@UAEXABUD3DXVECTOR3@@@Z:PROC ; ioDummyChar::MapCollisionPushingTranslate
EXTRN	?DontMoveCollisionPushingTranslate@ioGameEntity@@UAEXPAV1@ABUD3DXVECTOR3@@@Z:PROC ; ioGameEntity::DontMoveCollisionPushingTranslate
EXTRN	?Rotate@ioGameEntity@@UAEXABUD3DXVECTOR3@@MW4TransformSpace@ioNode@@@Z:PROC ; ioGameEntity::Rotate
EXTRN	?Scale@ioGameEntity@@UAEXMMM@Z:PROC		; ioGameEntity::Scale
EXTRN	?Scale@ioGameEntity@@UAEXABUD3DXVECTOR3@@@Z:PROC ; ioGameEntity::Scale
EXTRN	?GetWorldPosition@ioGameEntity@@UBEABUD3DXVECTOR3@@XZ:PROC ; ioGameEntity::GetWorldPosition
EXTRN	?GetWorldOrientation@ioGameEntity@@UBEABUD3DXQUATERNION@@XZ:PROC ; ioGameEntity::GetWorldOrientation
EXTRN	?GetWorldScale@ioGameEntity@@UBEABUD3DXVECTOR3@@XZ:PROC ; ioGameEntity::GetWorldScale
EXTRN	?IsCollisionAvailableWeapon@ioDummyChar@@UAE_NPAVioWeapon@@@Z:PROC ; ioDummyChar::IsCollisionAvailableWeapon
EXTRN	?IsCollisionAvailableRange@ioPlayEntity@@UAE_NPAVioWeapon@@@Z:PROC ; ioPlayEntity::IsCollisionAvailableRange
EXTRN	?IsEntityCollisionSkipState@ioDummyChar@@UBE_NPAVioGameEntity@@@Z:PROC ; ioDummyChar::IsEntityCollisionSkipState
EXTRN	?IsCharCollisionSkipState@ioDummyChar@@UBE_NW4TeamType@@H@Z:PROC ; ioDummyChar::IsCharCollisionSkipState
EXTRN	?IsWoundedCollision@ioPlayEntity@@UBE_NABVioOrientBox@@PAUD3DXVECTOR3@@@Z:PROC ; ioPlayEntity::IsWoundedCollision
EXTRN	?GetAttackCollisionBox@ioDummyChar@@UAE?AVioOrientBox@@W4AniCollisionType@@_N@Z:PROC ; ioDummyChar::GetAttackCollisionBox
EXTRN	?CheckSphereDistance@ioPlayEntity@@UBE_NABUD3DXVECTOR3@@MAAM@Z:PROC ; ioPlayEntity::CheckSphereDistance
EXTRN	?CheckSpherePoint@ioPlayEntity@@UBE_NABUD3DXVECTOR3@@MAAU2@@Z:PROC ; ioPlayEntity::CheckSpherePoint
EXTRN	?CheckCylinderPoint@ioPlayEntity@@UBE_NABVioCylinder@@ABUD3DXVECTOR3@@AAU3@@Z:PROC ; ioPlayEntity::CheckCylinderPoint
EXTRN	?GetSubType@ioDummyChar@@UBE?AW4PlaySubType@ioPlayEntity@@XZ:PROC ; ioDummyChar::GetSubType
EXTRN	?GetArmorType@ioDummyChar@@UBE?AW4ArmorType@@XZ:PROC ; ioDummyChar::GetArmorType
EXTRN	?NotifyDontMoveCollisionPushingSkip@ioPlayEntity@@UAEXPAVioGameEntity@@@Z:PROC ; ioPlayEntity::NotifyDontMoveCollisionPushingSkip
EXTRN	?GetWorldEventReceiver@ioDummyChar@@UAEPAVioWorldEventReceiver@@XZ:PROC ; ioDummyChar::GetWorldEventReceiver
EXTRN	?Revival@ioPlayEntity@@UAEXXZ:PROC		; ioPlayEntity::Revival
EXTRN	?UpdateGauge@ioDummyChar@@UAEXXZ:PROC		; ioDummyChar::UpdateGauge
EXTRN	?RenderGauge@ioDummyChar@@UAEXXZ:PROC		; ioDummyChar::RenderGauge
EXTRN	?FillMaxHP@ioPlayEntity@@UAEXXZ:PROC		; ioPlayEntity::FillMaxHP
EXTRN	?ProcessRecovery@ioPlayEntity@@MAEXXZ:PROC	; ioPlayEntity::ProcessRecovery
EXTRN	?AddHeadDamageInfo@ioPlayEntity@@UAEXH_N@Z:PROC	; ioPlayEntity::AddHeadDamageInfo
EXTRN	?RenderHeadInfoList@ioPlayEntity@@UAEXHH@Z:PROC	; ioPlayEntity::RenderHeadInfoList
EXTRN	?UpdateHeadInfoList@ioPlayEntity@@MAEXK@Z:PROC	; ioPlayEntity::UpdateHeadInfoList
EXTRN	?InitDummyCharInfo@ioDummyChar@@UAEXHKABUD3DXVECTOR3@@0M_N@Z:PROC ; ioDummyChar::InitDummyCharInfo
EXTRN	?TestMapCollision@ioDummyChar@@UAE_NPAVioOpcodeShape@@PAVioPlayStage@@PBUD3DXMATRIX@@@Z:PROC ; ioDummyChar::TestMapCollision
EXTRN	?CheckEntityCollision@ioDummyChar@@UAEXPAVioPlayEntity@@@Z:PROC ; ioDummyChar::CheckEntityCollision
EXTRN	?GetDummyGrassType@ioDummyChar@@UAEHXZ:PROC	; ioDummyChar::GetDummyGrassType
EXTRN	?ProcessPos@ioDummyChar@@MAEXM@Z:PROC		; ioDummyChar::ProcessPos
EXTRN	?ProcessDelayState@ioDummyChar@@MAEXM@Z:PROC	; ioDummyChar::ProcessDelayState
EXTRN	?ProcessMoveState@ioDummyChar@@MAEXM@Z:PROC	; ioDummyChar::ProcessMoveState
EXTRN	?ProcessDashState@ioDummyChar@@MAEXM@Z:PROC	; ioDummyChar::ProcessDashState
EXTRN	?ProcessAttackState@ioDummyChar@@MAEXMK@Z:PROC	; ioDummyChar::ProcessAttackState
EXTRN	?SetDelayState@ioDummyChar@@UAEX_N@Z:PROC	; ioDummyChar::SetDelayState
EXTRN	?SetMoveState@ioDummyChar@@UAEXXZ:PROC		; ioDummyChar::SetMoveState
EXTRN	?SetDashState@ioDummyChar@@UAEXXZ:PROC		; ioDummyChar::SetDashState
EXTRN	?SetAttackState@ioDummyChar@@UAEXXZ:PROC	; ioDummyChar::SetAttackState
EXTRN	?DropZoneCheck@ioDummyChar@@MAEXXZ:PROC		; ioDummyChar::DropZoneCheck
EXTRN	?SendAttackInfoToSkill@ioDummyChar@@MAEXXZ:PROC	; ioDummyChar::SendAttackInfoToSkill
EXTRN	?CheckCollisionWeapon@ioDummyChar@@UAEXPAVioBaseChar@@@Z:PROC ; ioDummyChar::CheckCollisionWeapon
EXTRN	?TranslateMountEntity@ioDummyChar@@MAEXABUD3DXVECTOR3@@@Z:PROC ; ioDummyChar::TranslateMountEntity
EXTRN	?ClearMountEntity@ioDummyChar@@MAEXXZ:PROC	; ioDummyChar::ClearMountEntity
EXTRN	?UpdateMountedEntityList@ioDummyChar@@MAEXXZ:PROC ; ioDummyChar::UpdateMountedEntityList
EXTRN	?UpdateMountedWeaponList@ioDummyChar@@MAEXXZ:PROC ; ioDummyChar::UpdateMountedWeaponList
EXTRN	?SetWorldPositionMountEntity@ioDummyChar@@MAEXM@Z:PROC ; ioDummyChar::SetWorldPositionMountEntity
EXTRN	?DummyDieClearMountEntity@ioDummyChar@@MAEXXZ:PROC ; ioDummyChar::DummyDieClearMountEntity
EXTRN	?FillDummyCharMidSync@ioDummyChar@@UAEXPAVioBaseChar@@AAVSP2Packet@@@Z:PROC ; ioDummyChar::FillDummyCharMidSync
EXTRN	?ApplyDummyCharMidSync@ioDummyChar@@UAEXPAVioBaseChar@@AAVSP2Packet@@@Z:PROC ; ioDummyChar::ApplyDummyCharMidSync
EXTRN	?GetSkillMaxActiveCnt@ioDummyChar@@UAEHXZ:PROC	; ioDummyChar::GetSkillMaxActiveCnt
EXTRN	?GetSkillCurActiveCnt@ioDummyChar@@UAEHXZ:PROC	; ioDummyChar::GetSkillCurActiveCnt
EXTRN	?OnTelepotation@ioDummyChar@@UAEXABUD3DXVECTOR3@@@Z:PROC ; ioDummyChar::OnTelepotation
EXTRN	?OnFireZoneDamage@ioDummyChar@@UAEXMABVioHashString@@@Z:PROC ; ioDummyChar::OnFireZoneDamage
EXTRN	?OnPoisonZoneDamage@ioDummyChar@@UAEXXZ:PROC	; ioDummyChar::OnPoisonZoneDamage
;	COMDAT ??_R4ioDummyStruct@@6BioWorldEventReceiver@@@
; File c:\program files (x86)\microsoft visual studio 10.0\vc\include\xmemory
rdata$r	SEGMENT
??_R4ioDummyStruct@@6BioWorldEventReceiver@@@ DD 00H	; ioDummyStruct::`RTTI Complete Object Locator'
	DD	01c8H
	DD	00H
	DD	FLAT:??_R0?AVioDummyStruct@@@8
	DD	FLAT:??_R3ioDummyStruct@@8
rdata$r	ENDS
;	COMDAT ??_R1A@?0A@EA@ioWorldEventReceiver@@8
rdata$r	SEGMENT
??_R1A@?0A@EA@ioWorldEventReceiver@@8 DD FLAT:??_R0?AVioWorldEventReceiver@@@8 ; ioWorldEventReceiver::`RTTI Base Class Descriptor at (0,-1,0,64)'
	DD	00H
	DD	00H
	DD	0ffffffffH
	DD	00H
	DD	040H
	DD	FLAT:??_R3ioWorldEventReceiver@@8
rdata$r	ENDS
;	COMDAT ??_R2ioWorldEventReceiver@@8
rdata$r	SEGMENT
??_R2ioWorldEventReceiver@@8 DD FLAT:??_R1A@?0A@EA@ioWorldEventReceiver@@8 ; ioWorldEventReceiver::`RTTI Base Class Array'
rdata$r	ENDS
;	COMDAT ??_R3ioWorldEventReceiver@@8
rdata$r	SEGMENT
??_R3ioWorldEventReceiver@@8 DD 00H			; ioWorldEventReceiver::`RTTI Class Hierarchy Descriptor'
	DD	00H
	DD	01H
	DD	FLAT:??_R2ioWorldEventReceiver@@8
rdata$r	ENDS
;	COMDAT ??_R0?AVioWorldEventReceiver@@@8
_DATA	SEGMENT
??_R0?AVioWorldEventReceiver@@@8 DD FLAT:??_7type_info@@6B@ ; ioWorldEventReceiver `RTTI Type Descriptor'
	DD	00H
	DB	'.?AVioWorldEventReceiver@@', 00H
_DATA	ENDS
;	COMDAT ??_R1BMI@?0A@EA@ioWorldEventReceiver@@8
rdata$r	SEGMENT
??_R1BMI@?0A@EA@ioWorldEventReceiver@@8 DD FLAT:??_R0?AVioWorldEventReceiver@@@8 ; ioWorldEventReceiver::`RTTI Base Class Descriptor at (456,-1,0,64)'
	DD	00H
	DD	01c8H
	DD	0ffffffffH
	DD	00H
	DD	040H
	DD	FLAT:??_R3ioWorldEventReceiver@@8
rdata$r	ENDS
;	COMDAT ??_R2ioEntityEvent@@8
rdata$r	SEGMENT
??_R2ioEntityEvent@@8 DD FLAT:??_R1A@?0A@EA@ioEntityEvent@@8 ; ioEntityEvent::`RTTI Base Class Array'
rdata$r	ENDS
;	COMDAT ??_R3ioEntityEvent@@8
rdata$r	SEGMENT
??_R3ioEntityEvent@@8 DD 00H				; ioEntityEvent::`RTTI Class Hierarchy Descriptor'
	DD	00H
	DD	01H
	DD	FLAT:??_R2ioEntityEvent@@8
rdata$r	ENDS
;	COMDAT ??_R0?AVioEntityEvent@@@8
_DATA	SEGMENT
??_R0?AVioEntityEvent@@@8 DD FLAT:??_7type_info@@6B@	; ioEntityEvent `RTTI Type Descriptor'
	DD	00H
	DB	'.?AVioEntityEvent@@', 00H
_DATA	ENDS
;	COMDAT ??_R1A@?0A@EA@ioEntityEvent@@8
rdata$r	SEGMENT
??_R1A@?0A@EA@ioEntityEvent@@8 DD FLAT:??_R0?AVioEntityEvent@@@8 ; ioEntityEvent::`RTTI Base Class Descriptor at (0,-1,0,64)'
	DD	00H
	DD	00H
	DD	0ffffffffH
	DD	00H
	DD	040H
	DD	FLAT:??_R3ioEntityEvent@@8
rdata$r	ENDS
;	COMDAT ??_R2ioGameEntity@@8
rdata$r	SEGMENT
??_R2ioGameEntity@@8 DD FLAT:??_R1A@?0A@EA@ioGameEntity@@8 ; ioGameEntity::`RTTI Base Class Array'
	DD	FLAT:??_R1A@?0A@EA@ioEntityEvent@@8
rdata$r	ENDS
;	COMDAT ??_R3ioGameEntity@@8
rdata$r	SEGMENT
??_R3ioGameEntity@@8 DD 00H				; ioGameEntity::`RTTI Class Hierarchy Descriptor'
	DD	00H
	DD	02H
	DD	FLAT:??_R2ioGameEntity@@8
rdata$r	ENDS
;	COMDAT ??_R0?AVioGameEntity@@@8
_DATA	SEGMENT
??_R0?AVioGameEntity@@@8 DD FLAT:??_7type_info@@6B@	; ioGameEntity `RTTI Type Descriptor'
	DD	00H
	DB	'.?AVioGameEntity@@', 00H
_DATA	ENDS
;	COMDAT ??_R1A@?0A@EA@ioGameEntity@@8
rdata$r	SEGMENT
??_R1A@?0A@EA@ioGameEntity@@8 DD FLAT:??_R0?AVioGameEntity@@@8 ; ioGameEntity::`RTTI Base Class Descriptor at (0,-1,0,64)'
	DD	01H
	DD	00H
	DD	0ffffffffH
	DD	00H
	DD	040H
	DD	FLAT:??_R3ioGameEntity@@8
rdata$r	ENDS
;	COMDAT ??_R2ioPlayEntity@@8
rdata$r	SEGMENT
??_R2ioPlayEntity@@8 DD FLAT:??_R1A@?0A@EA@ioPlayEntity@@8 ; ioPlayEntity::`RTTI Base Class Array'
	DD	FLAT:??_R1A@?0A@EA@ioGameEntity@@8
	DD	FLAT:??_R1A@?0A@EA@ioEntityEvent@@8
rdata$r	ENDS
;	COMDAT ??_R3ioPlayEntity@@8
rdata$r	SEGMENT
??_R3ioPlayEntity@@8 DD 00H				; ioPlayEntity::`RTTI Class Hierarchy Descriptor'
	DD	00H
	DD	03H
	DD	FLAT:??_R2ioPlayEntity@@8
rdata$r	ENDS
;	COMDAT ??_R0?AVioPlayEntity@@@8
_DATA	SEGMENT
??_R0?AVioPlayEntity@@@8 DD FLAT:??_7type_info@@6B@	; ioPlayEntity `RTTI Type Descriptor'
	DD	00H
	DB	'.?AVioPlayEntity@@', 00H
_DATA	ENDS
;	COMDAT ??_R1A@?0A@EA@ioPlayEntity@@8
rdata$r	SEGMENT
??_R1A@?0A@EA@ioPlayEntity@@8 DD FLAT:??_R0?AVioPlayEntity@@@8 ; ioPlayEntity::`RTTI Base Class Descriptor at (0,-1,0,64)'
	DD	02H
	DD	00H
	DD	0ffffffffH
	DD	00H
	DD	040H
	DD	FLAT:??_R3ioPlayEntity@@8
rdata$r	ENDS
;	COMDAT ??_R2ioDummyChar@@8
rdata$r	SEGMENT
??_R2ioDummyChar@@8 DD FLAT:??_R1A@?0A@EA@ioDummyChar@@8 ; ioDummyChar::`RTTI Base Class Array'
	DD	FLAT:??_R1A@?0A@EA@ioPlayEntity@@8
	DD	FLAT:??_R1A@?0A@EA@ioGameEntity@@8
	DD	FLAT:??_R1A@?0A@EA@ioEntityEvent@@8
	DD	FLAT:??_R1BMI@?0A@EA@ioWorldEventReceiver@@8
rdata$r	ENDS
;	COMDAT ??_R3ioDummyChar@@8
rdata$r	SEGMENT
??_R3ioDummyChar@@8 DD 00H				; ioDummyChar::`RTTI Class Hierarchy Descriptor'
	DD	01H
	DD	05H
	DD	FLAT:??_R2ioDummyChar@@8
rdata$r	ENDS
;	COMDAT ??_R0?AVioDummyChar@@@8
_DATA	SEGMENT
??_R0?AVioDummyChar@@@8 DD FLAT:??_7type_info@@6B@	; ioDummyChar `RTTI Type Descriptor'
	DD	00H
	DB	'.?AVioDummyChar@@', 00H
_DATA	ENDS
;	COMDAT ??_R1A@?0A@EA@ioDummyChar@@8
rdata$r	SEGMENT
??_R1A@?0A@EA@ioDummyChar@@8 DD FLAT:??_R0?AVioDummyChar@@@8 ; ioDummyChar::`RTTI Base Class Descriptor at (0,-1,0,64)'
	DD	04H
	DD	00H
	DD	0ffffffffH
	DD	00H
	DD	040H
	DD	FLAT:??_R3ioDummyChar@@8
rdata$r	ENDS
;	COMDAT ??_R1A@?0A@EA@ioDummyStruct@@8
rdata$r	SEGMENT
??_R1A@?0A@EA@ioDummyStruct@@8 DD FLAT:??_R0?AVioDummyStruct@@@8 ; ioDummyStruct::`RTTI Base Class Descriptor at (0,-1,0,64)'
	DD	05H
	DD	00H
	DD	0ffffffffH
	DD	00H
	DD	040H
	DD	FLAT:??_R3ioDummyStruct@@8
rdata$r	ENDS
;	COMDAT ??_R2ioDummyStruct@@8
rdata$r	SEGMENT
??_R2ioDummyStruct@@8 DD FLAT:??_R1A@?0A@EA@ioDummyStruct@@8 ; ioDummyStruct::`RTTI Base Class Array'
	DD	FLAT:??_R1A@?0A@EA@ioDummyChar@@8
	DD	FLAT:??_R1A@?0A@EA@ioPlayEntity@@8
	DD	FLAT:??_R1A@?0A@EA@ioGameEntity@@8
	DD	FLAT:??_R1A@?0A@EA@ioEntityEvent@@8
	DD	FLAT:??_R1BMI@?0A@EA@ioWorldEventReceiver@@8
rdata$r	ENDS
;	COMDAT ??_R3ioDummyStruct@@8
rdata$r	SEGMENT
??_R3ioDummyStruct@@8 DD 00H				; ioDummyStruct::`RTTI Class Hierarchy Descriptor'
	DD	01H
	DD	06H
	DD	FLAT:??_R2ioDummyStruct@@8
rdata$r	ENDS
;	COMDAT ??_R0?AVioDummyStruct@@@8
_DATA	SEGMENT
??_R0?AVioDummyStruct@@@8 DD FLAT:??_7type_info@@6B@	; ioDummyStruct `RTTI Type Descriptor'
	DD	00H
	DB	'.?AVioDummyStruct@@', 00H
_DATA	ENDS
;	COMDAT ??_R4ioDummyStruct@@6BioPlayEntity@@@
rdata$r	SEGMENT
??_R4ioDummyStruct@@6BioPlayEntity@@@ DD 00H		; ioDummyStruct::`RTTI Complete Object Locator'
	DD	00H
	DD	00H
	DD	FLAT:??_R0?AVioDummyStruct@@@8
	DD	FLAT:??_R3ioDummyStruct@@8
rdata$r	ENDS
;	COMDAT ??_7ioDummyStruct@@6BioWorldEventReceiver@@@
CONST	SEGMENT
??_7ioDummyStruct@@6BioWorldEventReceiver@@@ DD FLAT:??_R4ioDummyStruct@@6BioWorldEventReceiver@@@ ; ioDummyStruct::`vftable'
	DD	FLAT:?OnTelepotation@ioDummyChar@@UAEXABUD3DXVECTOR3@@@Z
	DD	FLAT:?OnFireZoneDamage@ioDummyChar@@UAEXMABVioHashString@@@Z
	DD	FLAT:?OnPoisonZoneDamage@ioDummyChar@@UAEXXZ
	DD	FLAT:??_EioDummyStruct@@WBMI@AEPAXI@Z
CONST	ENDS
;	COMDAT ??_7ioDummyStruct@@6BioPlayEntity@@@
CONST	SEGMENT
??_7ioDummyStruct@@6BioPlayEntity@@@ DD FLAT:??_R4ioDummyStruct@@6BioPlayEntity@@@ ; ioDummyStruct::`vftable'
	DD	FLAT:?AddEntityEvent@ioDummyChar@@UAEXPAVioEntity@@@Z
	DD	FLAT:??_EioDummyStruct@@UAEPAXI@Z
	DD	FLAT:?Update@ioDummyChar@@UAEXMKK@Z
	DD	FLAT:?UpdateAfter@ioDummyChar@@UAEXM@Z
	DD	FLAT:?GetTypeID@ioPlayEntity@@UBEHXZ
	DD	FLAT:?IsNeedCheckMapCollision@ioDummyChar@@UBE_NXZ
	DD	FLAT:?IsMountAvailable@ioDummyChar@@UBE_NXZ
	DD	FLAT:?IsMountingAvailable@ioDummyChar@@UBE_NXZ
	DD	FLAT:?IsNowMountEnable@ioDummyChar@@UBE_NXZ
	DD	FLAT:?IsAllWeaponDefence@ioDummyStruct@@UBE_NXZ
	DD	FLAT:?HasEntity@ioGameEntity@@UAE_NABVioHashString@@@Z
	DD	FLAT:?AddEntity@ioGameEntity@@UAEPAVioEntity@@ABVioHashString@@@Z
	DD	FLAT:?DestroyEntity@ioGameEntity@@UAE_NABVioHashString@@@Z
	DD	FLAT:?GetEntity@ioGameEntity@@UAEPAVioEntity@@ABVioHashString@@@Z
	DD	FLAT:?UpdateBound@ioGameEntity@@MBEXXZ
	DD	FLAT:?UpdateBottomHeight@ioDummyChar@@MBEXXZ
	DD	FLAT:?NeedUpdateBottomHeight@ioDummyChar@@UAEXXZ
	DD	FLAT:?SetWorldPosition@ioGameEntity@@UAEXABUD3DXVECTOR3@@@Z
	DD	FLAT:?SetWorldOrientation@ioGameEntity@@UAEXABUD3DXQUATERNION@@@Z
	DD	FLAT:?SetWorldScale@ioGameEntity@@UAEXABUD3DXVECTOR3@@@Z
	DD	FLAT:?Translate@ioDummyChar@@UAEXABUD3DXVECTOR3@@@Z
	DD	FLAT:?TranslateByConveyer@ioDummyStruct@@UAEXABUD3DXVECTOR3@@@Z
	DD	FLAT:?TranslateByWorldEntity@ioDummyChar@@UAEXABUD3DXVECTOR3@@@Z
	DD	FLAT:?MapCollisionPushingTranslate@ioDummyChar@@UAEXABUD3DXVECTOR3@@@Z
	DD	FLAT:?DontMoveCollisionPushingTranslate@ioGameEntity@@UAEXPAV1@ABUD3DXVECTOR3@@@Z
	DD	FLAT:?Rotate@ioGameEntity@@UAEXABUD3DXVECTOR3@@MW4TransformSpace@ioNode@@@Z
	DD	FLAT:?Scale@ioGameEntity@@UAEXMMM@Z
	DD	FLAT:?Scale@ioGameEntity@@UAEXABUD3DXVECTOR3@@@Z
	DD	FLAT:?GetWorldPosition@ioGameEntity@@UBEABUD3DXVECTOR3@@XZ
	DD	FLAT:?GetWorldOrientation@ioGameEntity@@UBEABUD3DXQUATERNION@@XZ
	DD	FLAT:?GetWorldScale@ioGameEntity@@UBEABUD3DXVECTOR3@@XZ
	DD	FLAT:?ApplyWeapon@ioDummyStruct@@UAE?AW4ApplyWeaponExp@@PAVioWeapon@@@Z
	DD	FLAT:?IsCollisionAvailableWeapon@ioDummyChar@@UAE_NPAVioWeapon@@@Z
	DD	FLAT:?IsCollisionAvailableRange@ioPlayEntity@@UAE_NPAVioWeapon@@@Z
	DD	FLAT:?IsEntityCollisionSkipState@ioDummyChar@@UBE_NPAVioGameEntity@@@Z
	DD	FLAT:?IsCharCollisionSkipState@ioDummyChar@@UBE_NW4TeamType@@H@Z
	DD	FLAT:?IsWoundedCollision@ioPlayEntity@@UBE_NABVioOrientBox@@PAUD3DXVECTOR3@@@Z
	DD	FLAT:?GetAttackCollisionBox@ioDummyChar@@UAE?AVioOrientBox@@W4AniCollisionType@@_N@Z
	DD	FLAT:?CheckSphereDistance@ioPlayEntity@@UBE_NABUD3DXVECTOR3@@MAAM@Z
	DD	FLAT:?CheckSpherePoint@ioPlayEntity@@UBE_NABUD3DXVECTOR3@@MAAU2@@Z
	DD	FLAT:?CheckCylinderPoint@ioPlayEntity@@UBE_NABVioCylinder@@ABUD3DXVECTOR3@@AAU3@@Z
	DD	FLAT:?GetSubType@ioDummyChar@@UBE?AW4PlaySubType@ioPlayEntity@@XZ
	DD	FLAT:?GetArmorType@ioDummyChar@@UBE?AW4ArmorType@@XZ
	DD	FLAT:?DontMoveEntityLevel@ioDummyStruct@@UBEHXZ
	DD	FLAT:?NotifyDontMoveCollisionPushingSkip@ioPlayEntity@@UAEXPAVioGameEntity@@@Z
	DD	FLAT:?LoadProperty@ioDummyStruct@@UAEXAAVioINILoader@@@Z
	DD	FLAT:?GetWorldEventReceiver@ioDummyChar@@UAEPAVioWorldEventReceiver@@XZ
	DD	FLAT:?Revival@ioPlayEntity@@UAEXXZ
	DD	FLAT:?UpdateGauge@ioDummyChar@@UAEXXZ
	DD	FLAT:?RenderGauge@ioDummyChar@@UAEXXZ
	DD	FLAT:?FillMaxHP@ioPlayEntity@@UAEXXZ
	DD	FLAT:?ProcessRecovery@ioPlayEntity@@MAEXXZ
	DD	FLAT:?AddHeadDamageInfo@ioPlayEntity@@UAEXH_N@Z
	DD	FLAT:?RenderHeadInfoList@ioPlayEntity@@UAEXHH@Z
	DD	FLAT:?UpdateHeadInfoList@ioPlayEntity@@MAEXK@Z
	DD	FLAT:?SetTeam@ioPlayEntity@@UAEXW4TeamType@@@Z
	DD	FLAT:?InitDummyCharInfo@ioDummyChar@@UAEXHKABUD3DXVECTOR3@@0M_N@Z
	DD	FLAT:?TestMapCollision@ioDummyChar@@UAE_NPAVioOpcodeShape@@PAVioPlayStage@@PBUD3DXMATRIX@@@Z
	DD	FLAT:?CheckEntityCollision@ioDummyChar@@UAEXPAVioPlayEntity@@@Z
	DD	FLAT:?GetDummyGrassType@ioDummyChar@@UAEHXZ
	DD	FLAT:?IsActivateWeapon@ioDummyStruct@@UAE_NXZ
	DD	FLAT:?IsDummyVsDummyCollisionSkipState@ioDummyStruct@@UAE_NPBVioDummyChar@@@Z
	DD	FLAT:?ProcessState@ioDummyStruct@@MAEXMK@Z
	DD	FLAT:?ProcessPos@ioDummyChar@@MAEXM@Z
	DD	FLAT:?ProcessDelayState@ioDummyChar@@MAEXM@Z
	DD	FLAT:?ProcessMoveState@ioDummyChar@@MAEXM@Z
	DD	FLAT:?ProcessDashState@ioDummyChar@@MAEXM@Z
	DD	FLAT:?ProcessAttackState@ioDummyChar@@MAEXMK@Z
	DD	FLAT:?ApplyDummyCharSync@ioDummyStruct@@UAEXPAVioPlayStage@@AAVSP2Packet@@@Z
	DD	FLAT:?SetDelayState@ioDummyChar@@UAEX_N@Z
	DD	FLAT:?SetMoveState@ioDummyChar@@UAEXXZ
	DD	FLAT:?SetDieState@ioDummyChar@@UAEX_N0@Z
	DD	FLAT:?SetDashState@ioDummyChar@@UAEXXZ
	DD	FLAT:?SetAttackState@ioDummyChar@@UAEXXZ
	DD	FLAT:?DropZoneCheck@ioDummyChar@@MAEXXZ
	DD	FLAT:?SendAttackInfoToSkill@ioDummyChar@@MAEXXZ
	DD	FLAT:?CheckCollisionWeapon@ioDummyChar@@UAEXPAVioBaseChar@@@Z
	DD	FLAT:?TranslateMountEntity@ioDummyChar@@MAEXABUD3DXVECTOR3@@@Z
	DD	FLAT:?ClearMountEntity@ioDummyChar@@MAEXXZ
	DD	FLAT:?UpdateMountedEntityList@ioDummyChar@@MAEXXZ
	DD	FLAT:?UpdateMountedWeaponList@ioDummyChar@@MAEXXZ
	DD	FLAT:?SetWorldPositionMountEntity@ioDummyChar@@MAEXM@Z
	DD	FLAT:?DummyDieClearMountEntity@ioDummyChar@@MAEXXZ
	DD	FLAT:?IsDummyCharMidSync@ioDummyChar@@UAE_NXZ
	DD	FLAT:?FillDummyCharMidSync@ioDummyChar@@UAEXPAVioBaseChar@@AAVSP2Packet@@@Z
	DD	FLAT:?ApplyDummyCharMidSync@ioDummyChar@@UAEXPAVioBaseChar@@AAVSP2Packet@@@Z
	DD	FLAT:?GetSkillMaxActiveCnt@ioDummyChar@@UAEHXZ
	DD	FLAT:?GetSkillCurActiveCnt@ioDummyChar@@UAEHXZ
	DD	FLAT:?SetDieState@ioDummyStruct@@UAEX_N@Z
CONST	ENDS
;	COMDAT xdata$x
xdata$x	SEGMENT
__unwindtable$??0ioDummyStruct@@QAE@PAVioEntityGroup@@PAVioPlayMode@@@Z DD 0ffffffffH
	DD	FLAT:__unwindfunclet$??0ioDummyStruct@@QAE@PAVioEntityGroup@@PAVioPlayMode@@@Z$0
__ehfuncinfo$??0ioDummyStruct@@QAE@PAVioEntityGroup@@PAVioPlayMode@@@Z DD 019930522H
	DD	01H
	DD	FLAT:__unwindtable$??0ioDummyStruct@@QAE@PAVioEntityGroup@@PAVioPlayMode@@@Z
	DD	2 DUP(00H)
	DD	2 DUP(00H)
	DD	00H
	DD	01H
; Function compile flags: /Ogsp
; File d:\lost saga for developer\youtube\tutorial\source\src\lsclient\iodummystruct.cpp
xdata$x	ENDS
;	COMDAT ??0ioDummyStruct@@QAE@PAVioEntityGroup@@PAVioPlayMode@@@Z
_TEXT	SEGMENT
_this$ = -16						; size = 4
__$EHRec$ = -12						; size = 12
_pGrp$ = 8						; size = 4
_pMode$ = 12						; size = 4
??0ioDummyStruct@@QAE@PAVioEntityGroup@@PAVioPlayMode@@@Z PROC ; ioDummyStruct::ioDummyStruct, COMDAT
; _this$ = ecx

; 12   : {

  00000	6a 04		 push	 4
  00002	b8 00 00 00 00	 mov	 eax, __ehhandler$??0ioDummyStruct@@QAE@PAVioEntityGroup@@PAVioPlayMode@@@Z
  00007	e8 00 00 00 00	 call	 __EH_prolog3
  0000c	8b f1		 mov	 esi, ecx
  0000e	89 75 f0	 mov	 DWORD PTR _this$[ebp], esi
  00011	ff 75 0c	 push	 DWORD PTR _pMode$[ebp]
  00014	ff 75 08	 push	 DWORD PTR _pGrp$[ebp]
  00017	e8 00 00 00 00	 call	 ??0ioDummyChar@@QAE@PAVioEntityGroup@@PAVioPlayMode@@@Z ; ioDummyChar::ioDummyChar
  0001c	33 ff		 xor	 edi, edi
  0001e	8d 8e 80 14 00
	00		 lea	 ecx, DWORD PTR [esi+5248]
  00024	89 7d fc	 mov	 DWORD PTR __$EHRec$[ebp+8], edi
  00027	c7 06 00 00 00
	00		 mov	 DWORD PTR [esi], OFFSET ??_7ioDummyStruct@@6BioPlayEntity@@@
  0002d	c7 86 c8 01 00
	00 00 00 00 00	 mov	 DWORD PTR [esi+456], OFFSET ??_7ioDummyStruct@@6BioWorldEventReceiver@@@
  00037	ff 15 00 00 00
	00		 call	 DWORD PTR __imp_??0ioHashString@@QAE@XZ
  0003d	89 be 98 14 00
	00		 mov	 DWORD PTR [esi+5272], edi
  00043	89 be 9c 14 00
	00		 mov	 DWORD PTR [esi+5276], edi
  00049	89 be a0 14 00
	00		 mov	 DWORD PTR [esi+5280], edi
  0004f	89 be a8 14 00
	00		 mov	 DWORD PTR [esi+5288], edi
  00055	89 be ac 14 00
	00		 mov	 DWORD PTR [esi+5292], edi
  0005b	89 be b0 14 00
	00		 mov	 DWORD PTR [esi+5296], edi

; 13   : 	m_DummyStructState = DSS_START;

  00061	89 be 90 14 00
	00		 mov	 DWORD PTR [esi+5264], edi

; 14   : }

  00067	8b c6		 mov	 eax, esi
  00069	e8 00 00 00 00	 call	 __EH_epilog3
  0006e	c2 08 00	 ret	 8
_TEXT	ENDS
;	COMDAT text$x
text$x	SEGMENT
__unwindfunclet$??0ioDummyStruct@@QAE@PAVioEntityGroup@@PAVioPlayMode@@@Z$0:
  00000	8b 4d f0	 mov	 ecx, DWORD PTR _this$[ebp]
  00003	e9 00 00 00 00	 jmp	 ??1ioDummyChar@@UAE@XZ	; ioDummyChar::~ioDummyChar
__ehhandler$??0ioDummyStruct@@QAE@PAVioEntityGroup@@PAVioPlayMode@@@Z:
  00008	8b 54 24 08	 mov	 edx, DWORD PTR [esp+8]
  0000c	8d 42 0c	 lea	 eax, DWORD PTR [edx+12]
  0000f	8b 4a ec	 mov	 ecx, DWORD PTR [edx-20]
  00012	33 c8		 xor	 ecx, eax
  00014	e8 00 00 00 00	 call	 @__security_check_cookie@4
  00019	b8 00 00 00 00	 mov	 eax, OFFSET __ehfuncinfo$??0ioDummyStruct@@QAE@PAVioEntityGroup@@PAVioPlayMode@@@Z
  0001e	e9 00 00 00 00	 jmp	 ___CxxFrameHandler3
text$x	ENDS
??0ioDummyStruct@@QAE@PAVioEntityGroup@@PAVioPlayMode@@@Z ENDP ; ioDummyStruct::ioDummyStruct
; Function compile flags: /Odsp
;	COMDAT ??_EioDummyStruct@@WBMI@AEPAXI@Z
_TEXT	SEGMENT
??_EioDummyStruct@@WBMI@AEPAXI@Z PROC			; [thunk]:ioDummyStruct::`vector deleting destructor', COMDAT
  00000	81 e9 c8 01 00
	00		 sub	 ecx, 456		; 000001c8H
  00006	e9 00 00 00 00	 jmp	 ??_EioDummyStruct@@UAEPAXI@Z
??_EioDummyStruct@@WBMI@AEPAXI@Z ENDP			; [thunk]:ioDummyStruct::`vector deleting destructor'
; Function compile flags: /Ogsp
; File d:\lost saga for developer\youtube\tutorial\source\src\lsclient\iodummychar.h
_TEXT	ENDS
;	COMDAT ?IsDummyCharMidSync@ioDummyChar@@UAE_NXZ
_TEXT	SEGMENT
?IsDummyCharMidSync@ioDummyChar@@UAE_NXZ PROC		; ioDummyChar::IsDummyCharMidSync, COMDAT
; _this$ = ecx

; 742  : 	virtual bool IsDummyCharMidSync(){ return false; }

  00000	32 c0		 xor	 al, al
  00002	c3		 ret	 0
?IsDummyCharMidSync@ioDummyChar@@UAE_NXZ ENDP		; ioDummyChar::IsDummyCharMidSync
_TEXT	ENDS
PUBLIC	?EncryptValueToPool@?$CEncrypt@W4TeamType@@@@AAEXPBD@Z ; CEncrypt<enum TeamType>::EncryptValueToPool
; Function compile flags: /Ogsp
; File d:\lost saga for developer\youtube\tutorial\source\src\lsclient\encryptvalue.h
;	COMDAT ?EncryptValueToPool@?$CEncrypt@W4TeamType@@@@AAEXPBD@Z
_TEXT	SEGMENT
_value$ = 8						; size = 4
?EncryptValueToPool@?$CEncrypt@W4TeamType@@@@AAEXPBD@Z PROC ; CEncrypt<enum TeamType>::EncryptValueToPool, COMDAT
; _this$ = ecx

; 67   : 	{

  00000	55		 push	 ebp
  00001	8b ec		 mov	 ebp, esp

; 68   : 		m_RC5.EncryptByte( value, m_MemPool, max(m_ValueSize, DEFAULT_ENCRYPT) );

  00003	0f b7 41 06	 movzx	 eax, WORD PTR [ecx+6]
  00007	83 f8 04	 cmp	 eax, 4
  0000a	77 03		 ja	 SHORT $LN4@EncryptVal@2
  0000c	6a 04		 push	 4
  0000e	58		 pop	 eax
$LN4@EncryptVal@2:
  0000f	50		 push	 eax
  00010	8d 41 1c	 lea	 eax, DWORD PTR [ecx+28]
  00013	50		 push	 eax
  00014	ff 75 08	 push	 DWORD PTR _value$[ebp]
  00017	83 c1 0c	 add	 ecx, 12			; 0000000cH
  0001a	e8 00 00 00 00	 call	 ?EncryptByte@ccddaabb@@QAEXPBDPADH@Z ; ccddaabb::EncryptByte

; 69   : 		
; 70   : 	}

  0001f	5d		 pop	 ebp
  00020	c2 04 00	 ret	 4
?EncryptValueToPool@?$CEncrypt@W4TeamType@@@@AAEXPBD@Z ENDP ; CEncrypt<enum TeamType>::EncryptValueToPool
_TEXT	ENDS
PUBLIC	??4?$CEncrypt@W4TeamType@@@@QAE?AW4TeamType@@W41@@Z ; CEncrypt<enum TeamType>::operator=
; Function compile flags: /Ogsp
;	COMDAT ??4?$CEncrypt@W4TeamType@@@@QAE?AW4TeamType@@W41@@Z
_TEXT	SEGMENT
_value$ = 8						; size = 4
_inValue$ = 8						; size = 4
??4?$CEncrypt@W4TeamType@@@@QAE?AW4TeamType@@W41@@Z PROC ; CEncrypt<enum TeamType>::operator=, COMDAT
; _this$ = ecx

; 2965 : 	{

  00000	55		 push	 ebp
  00001	8b ec		 mov	 ebp, esp

; 2966 : 		type value = inValue;

  00003	8b 45 08	 mov	 eax, DWORD PTR _inValue$[ebp]
  00006	89 45 08	 mov	 DWORD PTR _value$[ebp], eax

; 2967 : 		EncryptValueToPool((char*)&value);

  00009	8d 45 08	 lea	 eax, DWORD PTR _value$[ebp]
  0000c	50		 push	 eax
  0000d	e8 00 00 00 00	 call	 ?EncryptValueToPool@?$CEncrypt@W4TeamType@@@@AAEXPBD@Z ; CEncrypt<enum TeamType>::EncryptValueToPool

; 2968 : #ifdef _NOTUSE
; 2969 : 		m_value = inValue;
; 2970 : 		Debug();
; 2971 : #endif
; 2972 : 		return value;

  00012	8b 45 08	 mov	 eax, DWORD PTR _value$[ebp]

; 2973 : 	}

  00015	5d		 pop	 ebp
  00016	c2 04 00	 ret	 4
??4?$CEncrypt@W4TeamType@@@@QAE?AW4TeamType@@W41@@Z ENDP ; CEncrypt<enum TeamType>::operator=
; Function compile flags: /Ogsp
; File d:\lost saga for developer\youtube\tutorial\source\src\lsclient\ioplayentity.h
_TEXT	ENDS
;	COMDAT ?SetTeam@ioPlayEntity@@UAEXW4TeamType@@@Z
_TEXT	SEGMENT
_value$554322 = 8					; size = 4
_eType$ = 8						; size = 4
?SetTeam@ioPlayEntity@@UAEXW4TeamType@@@Z PROC		; ioPlayEntity::SetTeam, COMDAT
; _this$ = ecx

; 106  : 	virtual void SetTeam( TeamType eType ) { m_TeamType = eType; }

  00000	55		 push	 ebp
  00001	8b ec		 mov	 ebp, esp
  00003	8b 45 08	 mov	 eax, DWORD PTR _eType$[ebp]
  00006	89 45 08	 mov	 DWORD PTR _value$554322[ebp], eax
  00009	8d 45 08	 lea	 eax, DWORD PTR _value$554322[ebp]
  0000c	50		 push	 eax
  0000d	81 c1 90 00 00
	00		 add	 ecx, 144		; 00000090H
  00013	e8 00 00 00 00	 call	 ?EncryptValueToPool@?$CEncrypt@W4TeamType@@@@AAEXPBD@Z ; CEncrypt<enum TeamType>::EncryptValueToPool
  00018	5d		 pop	 ebp
  00019	c2 04 00	 ret	 4
?SetTeam@ioPlayEntity@@UAEXW4TeamType@@@Z ENDP		; ioPlayEntity::SetTeam
_TEXT	ENDS
PUBLIC	??1ioDummyStruct@@UAE@XZ			; ioDummyStruct::~ioDummyStruct
;	COMDAT xdata$x
; File c:\program files (x86)\microsoft visual studio 10.0\vc\include\vector
xdata$x	SEGMENT
__unwindtable$??1ioDummyStruct@@UAE@XZ DD 0ffffffffH
	DD	FLAT:__unwindfunclet$??1ioDummyStruct@@UAE@XZ$0
	DD	00H
	DD	FLAT:__unwindfunclet$??1ioDummyStruct@@UAE@XZ$1
	DD	01H
	DD	FLAT:__unwindfunclet$??1ioDummyStruct@@UAE@XZ$2
	DD	02H
	DD	FLAT:__unwindfunclet$??1ioDummyStruct@@UAE@XZ$3
__ehfuncinfo$??1ioDummyStruct@@UAE@XZ DD 019930522H
	DD	04H
	DD	FLAT:__unwindtable$??1ioDummyStruct@@UAE@XZ
	DD	2 DUP(00H)
	DD	2 DUP(00H)
	DD	00H
	DD	01H
; Function compile flags: /Ogsp
; File d:\lost saga for developer\youtube\tutorial\source\src\lsclient\iodummystruct.cpp
xdata$x	ENDS
;	COMDAT ??1ioDummyStruct@@UAE@XZ
_TEXT	SEGMENT
$T554471 = -20						; size = 4
$T554391 = -20						; size = 4
_this$ = -16						; size = 4
__$EHRec$ = -12						; size = 12
??1ioDummyStruct@@UAE@XZ PROC				; ioDummyStruct::~ioDummyStruct, COMDAT
; _this$ = ecx

; 17   : {

  00000	6a 08		 push	 8
  00002	b8 00 00 00 00	 mov	 eax, __ehhandler$??1ioDummyStruct@@UAE@XZ
  00007	e8 00 00 00 00	 call	 __EH_prolog3
  0000c	8b f1		 mov	 esi, ecx
  0000e	89 75 f0	 mov	 DWORD PTR _this$[ebp], esi
  00011	c7 06 00 00 00
	00		 mov	 DWORD PTR [esi], OFFSET ??_7ioDummyStruct@@6BioPlayEntity@@@
  00017	c7 86 c8 01 00
	00 00 00 00 00	 mov	 DWORD PTR [esi+456], OFFSET ??_7ioDummyStruct@@6BioWorldEventReceiver@@@

; 18   : 	m_OwnerBuffList.clear();

  00021	8b 86 9c 14 00
	00		 mov	 eax, DWORD PTR [esi+5276]
  00027	8b 8e 98 14 00
	00		 mov	 ecx, DWORD PTR [esi+5272]
  0002d	50		 push	 eax
  0002e	51		 push	 ecx
  0002f	8d 45 ec	 lea	 eax, DWORD PTR $T554391[ebp]
  00032	50		 push	 eax
  00033	8d 8e 98 14 00
	00		 lea	 ecx, DWORD PTR [esi+5272]
  00039	c7 45 fc 03 00
	00 00		 mov	 DWORD PTR __$EHRec$[ebp+8], 3
  00040	e8 00 00 00 00	 call	 ?erase@?$vector@VioHashString@@V?$allocator@VioHashString@@@std@@@std@@QAE?AV?$_Vector_iterator@V?$_Vector_val@VioHashString@@V?$allocator@VioHashString@@@std@@@std@@@2@V?$_Vector_const_iterator@V?$_Vector_val@VioHashString@@V?$allocator@VioHashString@@@std@@@std@@@2@0@Z ; std::vector<ioHashString,std::allocator<ioHashString> >::erase

; 19   : 	m_RemoveBuffList.clear();

  00045	8b 86 ac 14 00
	00		 mov	 eax, DWORD PTR [esi+5292]
  0004b	8b 8e a8 14 00
	00		 mov	 ecx, DWORD PTR [esi+5288]
  00051	50		 push	 eax
  00052	51		 push	 ecx
  00053	8d 45 ec	 lea	 eax, DWORD PTR $T554471[ebp]
  00056	50		 push	 eax
  00057	8d 8e a8 14 00
	00		 lea	 ecx, DWORD PTR [esi+5288]
  0005d	e8 00 00 00 00	 call	 ?erase@?$vector@VioHashString@@V?$allocator@VioHashString@@@std@@@std@@QAE?AV?$_Vector_iterator@V?$_Vector_val@VioHashString@@V?$allocator@VioHashString@@@std@@@std@@@2@V?$_Vector_const_iterator@V?$_Vector_val@VioHashString@@V?$allocator@VioHashString@@@std@@@std@@@2@0@Z ; std::vector<ioHashString,std::allocator<ioHashString> >::erase

; 20   : }

  00062	8d 8e a8 14 00
	00		 lea	 ecx, DWORD PTR [esi+5288]
  00068	c6 45 fc 02	 mov	 BYTE PTR __$EHRec$[ebp+8], 2
  0006c	e8 00 00 00 00	 call	 ?_Tidy@?$vector@VioHashString@@V?$allocator@VioHashString@@@std@@@std@@IAEXXZ ; std::vector<ioHashString,std::allocator<ioHashString> >::_Tidy
  00071	8d 8e 98 14 00
	00		 lea	 ecx, DWORD PTR [esi+5272]
  00077	c6 45 fc 01	 mov	 BYTE PTR __$EHRec$[ebp+8], 1
  0007b	e8 00 00 00 00	 call	 ?_Tidy@?$vector@VioHashString@@V?$allocator@VioHashString@@@std@@@std@@IAEXXZ ; std::vector<ioHashString,std::allocator<ioHashString> >::_Tidy
  00080	8d 8e 80 14 00
	00		 lea	 ecx, DWORD PTR [esi+5248]
  00086	c6 45 fc 00	 mov	 BYTE PTR __$EHRec$[ebp+8], 0
  0008a	ff 15 00 00 00
	00		 call	 DWORD PTR __imp_??1ioHashString@@QAE@XZ
  00090	83 4d fc ff	 or	 DWORD PTR __$EHRec$[ebp+8], -1
  00094	8b ce		 mov	 ecx, esi
  00096	e8 00 00 00 00	 call	 ??1ioDummyChar@@UAE@XZ	; ioDummyChar::~ioDummyChar
  0009b	e8 00 00 00 00	 call	 __EH_epilog3
  000a0	c3		 ret	 0
_TEXT	ENDS
;	COMDAT text$x
text$x	SEGMENT
__unwindfunclet$??1ioDummyStruct@@UAE@XZ$0:
  00000	8b 4d f0	 mov	 ecx, DWORD PTR _this$[ebp]
  00003	e9 00 00 00 00	 jmp	 ??1ioDummyChar@@UAE@XZ	; ioDummyChar::~ioDummyChar
__unwindfunclet$??1ioDummyStruct@@UAE@XZ$1:
  00008	8b 4d f0	 mov	 ecx, DWORD PTR _this$[ebp]
  0000b	81 c1 80 14 00
	00		 add	 ecx, 5248		; 00001480H
  00011	ff 25 00 00 00
	00		 jmp	 DWORD PTR __imp_??1ioHashString@@QAE@XZ
__unwindfunclet$??1ioDummyStruct@@UAE@XZ$2:
  00017	8b 4d f0	 mov	 ecx, DWORD PTR _this$[ebp]
  0001a	81 c1 98 14 00
	00		 add	 ecx, 5272		; 00001498H
  00020	e9 00 00 00 00	 jmp	 ??1?$vector@VioHashString@@V?$allocator@VioHashString@@@std@@@std@@QAE@XZ ; std::vector<ioHashString,std::allocator<ioHashString> >::~vector<ioHashString,std::allocator<ioHashString> >
__unwindfunclet$??1ioDummyStruct@@UAE@XZ$3:
  00025	8b 4d f0	 mov	 ecx, DWORD PTR _this$[ebp]
  00028	81 c1 a8 14 00
	00		 add	 ecx, 5288		; 000014a8H
  0002e	e9 00 00 00 00	 jmp	 ??1?$vector@VioHashString@@V?$allocator@VioHashString@@@std@@@std@@QAE@XZ ; std::vector<ioHashString,std::allocator<ioHashString> >::~vector<ioHashString,std::allocator<ioHashString> >
__ehhandler$??1ioDummyStruct@@UAE@XZ:
  00033	8b 54 24 08	 mov	 edx, DWORD PTR [esp+8]
  00037	8d 42 0c	 lea	 eax, DWORD PTR [edx+12]
  0003a	8b 4a e8	 mov	 ecx, DWORD PTR [edx-24]
  0003d	33 c8		 xor	 ecx, eax
  0003f	e8 00 00 00 00	 call	 @__security_check_cookie@4
  00044	b8 00 00 00 00	 mov	 eax, OFFSET __ehfuncinfo$??1ioDummyStruct@@UAE@XZ
  00049	e9 00 00 00 00	 jmp	 ___CxxFrameHandler3
text$x	ENDS
??1ioDummyStruct@@UAE@XZ ENDP				; ioDummyStruct::~ioDummyStruct
PUBLIC	?LoadOwnerBuffList@ioDummyStruct@@IAEXAAVioINILoader@@@Z ; ioDummyStruct::LoadOwnerBuffList
EXTRN	__imp__wsprintfA:PROC
;	COMDAT xdata$x
; File d:\lost saga for developer\youtube\tutorial\source\src\lsclient\stringprotect.h
xdata$x	SEGMENT
__unwindtable$?LoadOwnerBuffList@ioDummyStruct@@IAEXAAVioINILoader@@@Z DD 0ffffffffH
	DD	FLAT:__unwindfunclet$?LoadOwnerBuffList@ioDummyStruct@@IAEXAAVioINILoader@@@Z$0
__ehfuncinfo$?LoadOwnerBuffList@ioDummyStruct@@IAEXAAVioINILoader@@@Z DD 019930522H
	DD	01H
	DD	FLAT:__unwindtable$?LoadOwnerBuffList@ioDummyStruct@@IAEXAAVioINILoader@@@Z
	DD	2 DUP(00H)
	DD	2 DUP(00H)
	DD	00H
	DD	01H
; Function compile flags: /Ogsp
; File d:\lost saga for developer\youtube\tutorial\source\src\lsclient\iodummystruct.cpp
xdata$x	ENDS
;	COMDAT ?LoadOwnerBuffList@ioDummyStruct@@IAEXAAVioINILoader@@@Z
_TEXT	SEGMENT
$T554514 = -580						; size = 16
$T554703 = -564						; size = 4
_iCnt$ = -560						; size = 4
_szTitle$ = -556					; size = 260
_szBuf$ = -296						; size = 260
__k$554544 = -36					; size = 15
___encStr$550373 = -36					; size = 13
__$EHRec$ = -12						; size = 12
_rkLoader$ = 8						; size = 4
?LoadOwnerBuffList@ioDummyStruct@@IAEXAAVioINILoader@@@Z PROC ; ioDummyStruct::LoadOwnerBuffList, COMDAT
; _this$ = ecx

; 187  : {

  00000	68 38 02 00 00	 push	 568			; 00000238H
  00005	b8 00 00 00 00	 mov	 eax, __ehhandler$?LoadOwnerBuffList@ioDummyStruct@@IAEXAAVioINILoader@@@Z
  0000a	e8 00 00 00 00	 call	 __EH_prolog3_GS
  0000f	8b 5d 08	 mov	 ebx, DWORD PTR _rkLoader$[ebp]

; 188  : 	int iCnt = rkLoader.LoadInt_e( "owner_buff_cnt", 0 );

  00012	6a 03		 push	 3
  00014	8b f1		 mov	 esi, ecx
  00016	c7 45 dc 82 9b
	85 8f		 mov	 DWORD PTR __k$554544[ebp], -1887069310 ; 8f859b82H
  0001d	c7 45 e0 9f b3
	89 9f		 mov	 DWORD PTR __k$554544[ebp+4], -1618365537 ; 9f89b39fH
  00024	c7 45 e4 8b 8a
	b4 89		 mov	 DWORD PTR __k$554544[ebp+8], -1984656757 ; 89b48a8bH
  0002b	66 c7 45 e8 83
	98		 mov	 WORD PTR __k$554544[ebp+12], 39043 ; 00009883H
  00031	8d 45 dc	 lea	 eax, DWORD PTR __k$554544[ebp]
  00034	c6 45 ea 00	 mov	 BYTE PTR __k$554544[ebp+14], 0
  00038	59		 pop	 ecx
$LL210@LoadOwnerB:
  00039	81 30 ed ec eb
	ea		 xor	 DWORD PTR [eax], -353637139 ; eaebecedH
  0003f	83 c0 04	 add	 eax, 4
  00042	49		 dec	 ecx
  00043	75 f4		 jne	 SHORT $LL210@LoadOwnerB
  00045	6a 0c		 push	 12			; 0000000cH
  00047	5f		 pop	 edi
$LL207@LoadOwnerB:
  00048	8b c7		 mov	 eax, edi
  0004a	25 03 00 00 80	 and	 eax, -2147483645	; 80000003H
  0004f	79 05		 jns	 SHORT $LN250@LoadOwnerB
  00051	48		 dec	 eax
  00052	83 c8 fc	 or	 eax, -4			; fffffffcH
  00055	40		 inc	 eax
$LN250@LoadOwnerB:
  00056	b1 ed		 mov	 cl, -19			; ffffffedH
  00058	2a c8		 sub	 cl, al
  0005a	30 4c 3d dc	 xor	 BYTE PTR __k$554544[ebp+edi], cl
  0005e	47		 inc	 edi
  0005f	83 ff 0e	 cmp	 edi, 14			; 0000000eH
  00062	7c e4		 jl	 SHORT $LL207@LoadOwnerB
  00064	33 ff		 xor	 edi, edi
  00066	57		 push	 edi
  00067	8d 45 dc	 lea	 eax, DWORD PTR __k$554544[ebp]
  0006a	50		 push	 eax
  0006b	8b cb		 mov	 ecx, ebx
  0006d	ff 15 00 00 00
	00		 call	 DWORD PTR __imp_?LoadInt@ioINILoader@@QAEHPBDH@Z

; 189  : 	m_OwnerBuffList.clear();

  00073	81 c6 98 14 00
	00		 add	 esi, 5272		; 00001498H
  00079	8b 0e		 mov	 ecx, DWORD PTR [esi]
  0007b	89 85 d0 fd ff
	ff		 mov	 DWORD PTR _iCnt$[ebp], eax
  00081	8b 46 04	 mov	 eax, DWORD PTR [esi+4]
  00084	50		 push	 eax
  00085	51		 push	 ecx
  00086	8d 85 cc fd ff
	ff		 lea	 eax, DWORD PTR $T554703[ebp]
  0008c	50		 push	 eax
  0008d	8b ce		 mov	 ecx, esi
  0008f	e8 00 00 00 00	 call	 ?erase@?$vector@VioHashString@@V?$allocator@VioHashString@@@std@@@std@@QAE?AV?$_Vector_iterator@V?$_Vector_val@VioHashString@@V?$allocator@VioHashString@@@std@@@std@@@2@V?$_Vector_const_iterator@V?$_Vector_val@VioHashString@@V?$allocator@VioHashString@@@std@@@std@@@2@0@Z ; std::vector<ioHashString,std::allocator<ioHashString> >::erase

; 190  : 
; 191  : 	if( iCnt <= 0 ) 

  00094	39 bd d0 fd ff
	ff		 cmp	 DWORD PTR _iCnt$[ebp], edi
  0009a	0f 8e bb 00 00
	00		 jle	 $LN100@LoadOwnerB

; 192  : 		return;
; 193  : 
; 194  : 	m_OwnerBuffList.reserve( iCnt );

  000a0	ff b5 d0 fd ff
	ff		 push	 DWORD PTR _iCnt$[ebp]
  000a6	8b ce		 mov	 ecx, esi
  000a8	e8 00 00 00 00	 call	 ?reserve@?$vector@VioHashString@@V?$allocator@VioHashString@@@std@@@std@@QAEXI@Z ; std::vector<ioHashString,std::allocator<ioHashString> >::reserve

; 195  : 
; 196  : 	char szTitle[MAX_PATH], szBuf[MAX_PATH];
; 197  : 	for( int i=0; i < iCnt; ++i )

  000ad	39 bd d0 fd ff
	ff		 cmp	 DWORD PTR _iCnt$[ebp], edi
  000b3	0f 8e a2 00 00
	00		 jle	 $LN100@LoadOwnerB
$LL102@LoadOwnerB:

; 189  : 	m_OwnerBuffList.clear();

  000b9	6a 03		 push	 3

; 198  : 	{
; 199  : 		wsprintf_e( szTitle, "owner_buff%d", i+1 );

  000bb	c7 45 dc 82 9b
	85 8f		 mov	 DWORD PTR ___encStr$550373[ebp], -1887069310 ; 8f859b82H
  000c2	c7 45 e0 9f b3
	89 9f		 mov	 DWORD PTR ___encStr$550373[ebp+4], -1618365537 ; 9f89b39fH
  000c9	c7 45 e4 8b 8a
	ce 8e		 mov	 DWORD PTR ___encStr$550373[ebp+8], -1899066741 ; 8ece8a8bH
  000d0	8d 45 dc	 lea	 eax, DWORD PTR ___encStr$550373[ebp]
  000d3	c6 45 e8 00	 mov	 BYTE PTR ___encStr$550373[ebp+12], 0
  000d7	59		 pop	 ecx
$LL236@LoadOwnerB:
  000d8	81 30 ed ec eb
	ea		 xor	 DWORD PTR [eax], -353637139 ; eaebecedH
  000de	83 c0 04	 add	 eax, 4
  000e1	49		 dec	 ecx
  000e2	75 f4		 jne	 SHORT $LL236@LoadOwnerB
  000e4	47		 inc	 edi
  000e5	57		 push	 edi
  000e6	8d 45 dc	 lea	 eax, DWORD PTR ___encStr$550373[ebp]
  000e9	50		 push	 eax
  000ea	8d 85 d4 fd ff
	ff		 lea	 eax, DWORD PTR _szTitle$[ebp]
  000f0	50		 push	 eax
  000f1	ff 15 00 00 00
	00		 call	 DWORD PTR __imp__wsprintfA
  000f7	83 c4 0c	 add	 esp, 12			; 0000000cH

; 200  : 		rkLoader.LoadString( szTitle, "", szBuf, MAX_PATH );

  000fa	68 04 01 00 00	 push	 260			; 00000104H
  000ff	8d 85 d8 fe ff
	ff		 lea	 eax, DWORD PTR _szBuf$[ebp]
  00105	50		 push	 eax
  00106	68 00 00 00 00	 push	 OFFSET ??_C@_00CNPNBAHC@?$AA@
  0010b	8d 85 d4 fd ff
	ff		 lea	 eax, DWORD PTR _szTitle$[ebp]
  00111	50		 push	 eax
  00112	8b cb		 mov	 ecx, ebx
  00114	ff 15 00 00 00
	00		 call	 DWORD PTR __imp_?LoadStringA@ioINILoader@@QAEXPBD0PADH@Z

; 201  : 
; 202  : 		m_OwnerBuffList.push_back( szBuf );

  0011a	8d 85 d8 fe ff
	ff		 lea	 eax, DWORD PTR _szBuf$[ebp]
  00120	50		 push	 eax
  00121	8d 8d bc fd ff
	ff		 lea	 ecx, DWORD PTR $T554514[ebp]
  00127	ff 15 00 00 00
	00		 call	 DWORD PTR __imp_??0ioHashString@@QAE@PBD@Z
  0012d	83 65 fc 00	 and	 DWORD PTR __$EHRec$[ebp+8], 0
  00131	8d 85 bc fd ff
	ff		 lea	 eax, DWORD PTR $T554514[ebp]
  00137	50		 push	 eax
  00138	8b ce		 mov	 ecx, esi
  0013a	e8 00 00 00 00	 call	 ?push_back@?$vector@VioHashString@@V?$allocator@VioHashString@@@std@@@std@@QAEXABVioHashString@@@Z ; std::vector<ioHashString,std::allocator<ioHashString> >::push_back
  0013f	83 4d fc ff	 or	 DWORD PTR __$EHRec$[ebp+8], -1
  00143	8d 8d bc fd ff
	ff		 lea	 ecx, DWORD PTR $T554514[ebp]
  00149	ff 15 00 00 00
	00		 call	 DWORD PTR __imp_??1ioHashString@@QAE@XZ
  0014f	3b bd d0 fd ff
	ff		 cmp	 edi, DWORD PTR _iCnt$[ebp]
  00155	0f 8c 5e ff ff
	ff		 jl	 $LL102@LoadOwnerB
$LN100@LoadOwnerB:

; 203  : 	}
; 204  : }

  0015b	e8 00 00 00 00	 call	 __EH_epilog3_GS
  00160	c2 04 00	 ret	 4
_TEXT	ENDS
;	COMDAT text$x
text$x	SEGMENT
__unwindfunclet$?LoadOwnerBuffList@ioDummyStruct@@IAEXAAVioINILoader@@@Z$0:
  00000	8d 8d bc fd ff
	ff		 lea	 ecx, DWORD PTR $T554514[ebp]
  00006	ff 25 00 00 00
	00		 jmp	 DWORD PTR __imp_??1ioHashString@@QAE@XZ
__ehhandler$?LoadOwnerBuffList@ioDummyStruct@@IAEXAAVioINILoader@@@Z:
  0000c	8b 54 24 08	 mov	 edx, DWORD PTR [esp+8]
  00010	8d 42 0c	 lea	 eax, DWORD PTR [edx+12]
  00013	8b 8a b8 fd ff
	ff		 mov	 ecx, DWORD PTR [edx-584]
  00019	33 c8		 xor	 ecx, eax
  0001b	e8 00 00 00 00	 call	 @__security_check_cookie@4
  00020	8b 4a fc	 mov	 ecx, DWORD PTR [edx-4]
  00023	33 c8		 xor	 ecx, eax
  00025	e8 00 00 00 00	 call	 @__security_check_cookie@4
  0002a	b8 00 00 00 00	 mov	 eax, OFFSET __ehfuncinfo$?LoadOwnerBuffList@ioDummyStruct@@IAEXAAVioINILoader@@@Z
  0002f	e9 00 00 00 00	 jmp	 ___CxxFrameHandler3
text$x	ENDS
?LoadOwnerBuffList@ioDummyStruct@@IAEXAAVioINILoader@@@Z ENDP ; ioDummyStruct::LoadOwnerBuffList
PUBLIC	?LoadRemoveBuffList@ioDummyStruct@@IAEXAAVioINILoader@@@Z ; ioDummyStruct::LoadRemoveBuffList
;	COMDAT xdata$x
; File d:\lost saga for developer\youtube\tutorial\source\src\lsclient\stringprotect.h
xdata$x	SEGMENT
__unwindtable$?LoadRemoveBuffList@ioDummyStruct@@IAEXAAVioINILoader@@@Z DD 0ffffffffH
	DD	FLAT:__unwindfunclet$?LoadRemoveBuffList@ioDummyStruct@@IAEXAAVioINILoader@@@Z$0
__ehfuncinfo$?LoadRemoveBuffList@ioDummyStruct@@IAEXAAVioINILoader@@@Z DD 019930522H
	DD	01H
	DD	FLAT:__unwindtable$?LoadRemoveBuffList@ioDummyStruct@@IAEXAAVioINILoader@@@Z
	DD	2 DUP(00H)
	DD	2 DUP(00H)
	DD	00H
	DD	01H
; Function compile flags: /Ogsp
; File d:\lost saga for developer\youtube\tutorial\source\src\lsclient\iodummystruct.cpp
xdata$x	ENDS
;	COMDAT ?LoadRemoveBuffList@ioDummyStruct@@IAEXAAVioINILoader@@@Z
_TEXT	SEGMENT
$T554755 = -580						; size = 16
$T554944 = -564						; size = 4
_iCnt$ = -560						; size = 4
_szTitle$ = -556					; size = 260
_szBuf$ = -296						; size = 260
__k$554799 = -36					; size = 16
___encStr$550544 = -36					; size = 14
__$EHRec$ = -12						; size = 12
_rkLoader$ = 8						; size = 4
?LoadRemoveBuffList@ioDummyStruct@@IAEXAAVioINILoader@@@Z PROC ; ioDummyStruct::LoadRemoveBuffList, COMDAT
; _this$ = ecx

; 207  : {

  00000	68 38 02 00 00	 push	 568			; 00000238H
  00005	b8 00 00 00 00	 mov	 eax, __ehhandler$?LoadRemoveBuffList@ioDummyStruct@@IAEXAAVioINILoader@@@Z
  0000a	e8 00 00 00 00	 call	 __EH_prolog3_GS
  0000f	8b 5d 08	 mov	 ebx, DWORD PTR _rkLoader$[ebp]

; 208  : 	int iCnt = rkLoader.LoadInt_e( "remove_buff_cnt", 0 );

  00012	6a 03		 push	 3
  00014	8b f1		 mov	 esi, ecx
  00016	c7 45 dc 9f 89
	86 85		 mov	 DWORD PTR __k$554799[ebp], -2054780513 ; 8586899fH
  0001d	c7 45 e0 9b 89
	b4 88		 mov	 DWORD PTR __k$554799[ebp+4], -2001434213 ; 88b4899bH
  00024	c7 45 e4 98 8a
	8d b5		 mov	 DWORD PTR __k$554799[ebp+8], -1249015144 ; b58d8a98H
  0002b	8d 45 dc	 lea	 eax, DWORD PTR __k$554799[ebp]
  0002e	c7 45 e8 8e 82
	9f 00		 mov	 DWORD PTR __k$554799[ebp+12], 10453646 ; 009f828eH
  00035	59		 pop	 ecx
$LL210@LoadRemove:
  00036	81 30 ed ec eb
	ea		 xor	 DWORD PTR [eax], -353637139 ; eaebecedH
  0003c	83 c0 04	 add	 eax, 4
  0003f	49		 dec	 ecx
  00040	75 f4		 jne	 SHORT $LL210@LoadRemove
  00042	6a 0c		 push	 12			; 0000000cH
  00044	5f		 pop	 edi
$LL207@LoadRemove:
  00045	8b c7		 mov	 eax, edi
  00047	25 03 00 00 80	 and	 eax, -2147483645	; 80000003H
  0004c	79 05		 jns	 SHORT $LN250@LoadRemove
  0004e	48		 dec	 eax
  0004f	83 c8 fc	 or	 eax, -4			; fffffffcH
  00052	40		 inc	 eax
$LN250@LoadRemove:
  00053	b1 ed		 mov	 cl, -19			; ffffffedH
  00055	2a c8		 sub	 cl, al
  00057	30 4c 3d dc	 xor	 BYTE PTR __k$554799[ebp+edi], cl
  0005b	47		 inc	 edi
  0005c	83 ff 0f	 cmp	 edi, 15			; 0000000fH
  0005f	7c e4		 jl	 SHORT $LL207@LoadRemove
  00061	33 ff		 xor	 edi, edi
  00063	57		 push	 edi
  00064	8d 45 dc	 lea	 eax, DWORD PTR __k$554799[ebp]
  00067	50		 push	 eax
  00068	8b cb		 mov	 ecx, ebx
  0006a	ff 15 00 00 00
	00		 call	 DWORD PTR __imp_?LoadInt@ioINILoader@@QAEHPBDH@Z

; 209  : 	m_RemoveBuffList.clear();

  00070	81 c6 a8 14 00
	00		 add	 esi, 5288		; 000014a8H
  00076	8b 0e		 mov	 ecx, DWORD PTR [esi]
  00078	89 85 d0 fd ff
	ff		 mov	 DWORD PTR _iCnt$[ebp], eax
  0007e	8b 46 04	 mov	 eax, DWORD PTR [esi+4]
  00081	50		 push	 eax
  00082	51		 push	 ecx
  00083	8d 85 cc fd ff
	ff		 lea	 eax, DWORD PTR $T554944[ebp]
  00089	50		 push	 eax
  0008a	8b ce		 mov	 ecx, esi
  0008c	e8 00 00 00 00	 call	 ?erase@?$vector@VioHashString@@V?$allocator@VioHashString@@@std@@@std@@QAE?AV?$_Vector_iterator@V?$_Vector_val@VioHashString@@V?$allocator@VioHashString@@@std@@@std@@@2@V?$_Vector_const_iterator@V?$_Vector_val@VioHashString@@V?$allocator@VioHashString@@@std@@@std@@@2@0@Z ; std::vector<ioHashString,std::allocator<ioHashString> >::erase

; 210  : 
; 211  : 	if( iCnt <= 0 ) 

  00091	39 bd d0 fd ff
	ff		 cmp	 DWORD PTR _iCnt$[ebp], edi
  00097	0f 8e c1 00 00
	00		 jle	 $LN100@LoadRemove

; 212  : 		return;
; 213  : 
; 214  : 	m_RemoveBuffList.reserve( iCnt );

  0009d	ff b5 d0 fd ff
	ff		 push	 DWORD PTR _iCnt$[ebp]
  000a3	8b ce		 mov	 ecx, esi
  000a5	e8 00 00 00 00	 call	 ?reserve@?$vector@VioHashString@@V?$allocator@VioHashString@@@std@@@std@@QAEXI@Z ; std::vector<ioHashString,std::allocator<ioHashString> >::reserve

; 215  : 
; 216  : 	char szTitle[MAX_PATH], szBuf[MAX_PATH];
; 217  : 	for( int i=0; i < iCnt; ++i )

  000aa	39 bd d0 fd ff
	ff		 cmp	 DWORD PTR _iCnt$[ebp], edi
  000b0	0f 8e a8 00 00
	00		 jle	 $LN100@LoadRemove
$LL102@LoadRemove:

; 209  : 	m_RemoveBuffList.clear();

  000b6	6a 03		 push	 3

; 218  : 	{
; 219  : 		wsprintf_e( szTitle, "remove_buff%d", i+1 );

  000b8	c7 45 dc 9f 89
	86 85		 mov	 DWORD PTR ___encStr$550544[ebp], -2054780513 ; 8586899fH
  000bf	c7 45 e0 9b 89
	b4 88		 mov	 DWORD PTR ___encStr$550544[ebp+4], -2001434213 ; 88b4899bH
  000c6	c7 45 e4 98 8a
	8d cf		 mov	 DWORD PTR ___encStr$550544[ebp+8], -812807528 ; cf8d8a98H
  000cd	8d 45 dc	 lea	 eax, DWORD PTR ___encStr$550544[ebp]
  000d0	66 c7 45 e8 89
	00		 mov	 WORD PTR ___encStr$550544[ebp+12], 137 ; 00000089H
  000d6	59		 pop	 ecx
$LL236@LoadRemove:
  000d7	81 30 ed ec eb
	ea		 xor	 DWORD PTR [eax], -353637139 ; eaebecedH
  000dd	83 c0 04	 add	 eax, 4
  000e0	49		 dec	 ecx
  000e1	75 f4		 jne	 SHORT $LL236@LoadRemove
  000e3	80 75 e8 ed	 xor	 BYTE PTR ___encStr$550544[ebp+12], -19 ; ffffffedH
  000e7	47		 inc	 edi
  000e8	57		 push	 edi
  000e9	8d 45 dc	 lea	 eax, DWORD PTR ___encStr$550544[ebp]
  000ec	50		 push	 eax
  000ed	8d 85 d4 fd ff
	ff		 lea	 eax, DWORD PTR _szTitle$[ebp]
  000f3	50		 push	 eax
  000f4	ff 15 00 00 00
	00		 call	 DWORD PTR __imp__wsprintfA
  000fa	83 c4 0c	 add	 esp, 12			; 0000000cH

; 220  : 		rkLoader.LoadString( szTitle, "", szBuf, MAX_PATH );

  000fd	68 04 01 00 00	 push	 260			; 00000104H
  00102	8d 85 d8 fe ff
	ff		 lea	 eax, DWORD PTR _szBuf$[ebp]
  00108	50		 push	 eax
  00109	68 00 00 00 00	 push	 OFFSET ??_C@_00CNPNBAHC@?$AA@
  0010e	8d 85 d4 fd ff
	ff		 lea	 eax, DWORD PTR _szTitle$[ebp]
  00114	50		 push	 eax
  00115	8b cb		 mov	 ecx, ebx
  00117	ff 15 00 00 00
	00		 call	 DWORD PTR __imp_?LoadStringA@ioINILoader@@QAEXPBD0PADH@Z

; 221  : 
; 222  : 		m_RemoveBuffList.push_back( szBuf );

  0011d	8d 85 d8 fe ff
	ff		 lea	 eax, DWORD PTR _szBuf$[ebp]
  00123	50		 push	 eax
  00124	8d 8d bc fd ff
	ff		 lea	 ecx, DWORD PTR $T554755[ebp]
  0012a	ff 15 00 00 00
	00		 call	 DWORD PTR __imp_??0ioHashString@@QAE@PBD@Z
  00130	83 65 fc 00	 and	 DWORD PTR __$EHRec$[ebp+8], 0
  00134	8d 85 bc fd ff
	ff		 lea	 eax, DWORD PTR $T554755[ebp]
  0013a	50		 push	 eax
  0013b	8b ce		 mov	 ecx, esi
  0013d	e8 00 00 00 00	 call	 ?push_back@?$vector@VioHashString@@V?$allocator@VioHashString@@@std@@@std@@QAEXABVioHashString@@@Z ; std::vector<ioHashString,std::allocator<ioHashString> >::push_back
  00142	83 4d fc ff	 or	 DWORD PTR __$EHRec$[ebp+8], -1
  00146	8d 8d bc fd ff
	ff		 lea	 ecx, DWORD PTR $T554755[ebp]
  0014c	ff 15 00 00 00
	00		 call	 DWORD PTR __imp_??1ioHashString@@QAE@XZ
  00152	3b bd d0 fd ff
	ff		 cmp	 edi, DWORD PTR _iCnt$[ebp]
  00158	0f 8c 58 ff ff
	ff		 jl	 $LL102@LoadRemove
$LN100@LoadRemove:

; 223  : 	}
; 224  : }

  0015e	e8 00 00 00 00	 call	 __EH_epilog3_GS
  00163	c2 04 00	 ret	 4
_TEXT	ENDS
;	COMDAT text$x
text$x	SEGMENT
__unwindfunclet$?LoadRemoveBuffList@ioDummyStruct@@IAEXAAVioINILoader@@@Z$0:
  00000	8d 8d bc fd ff
	ff		 lea	 ecx, DWORD PTR $T554755[ebp]
  00006	ff 25 00 00 00
	00		 jmp	 DWORD PTR __imp_??1ioHashString@@QAE@XZ
__ehhandler$?LoadRemoveBuffList@ioDummyStruct@@IAEXAAVioINILoader@@@Z:
  0000c	8b 54 24 08	 mov	 edx, DWORD PTR [esp+8]
  00010	8d 42 0c	 lea	 eax, DWORD PTR [edx+12]
  00013	8b 8a b8 fd ff
	ff		 mov	 ecx, DWORD PTR [edx-584]
  00019	33 c8		 xor	 ecx, eax
  0001b	e8 00 00 00 00	 call	 @__security_check_cookie@4
  00020	8b 4a fc	 mov	 ecx, DWORD PTR [edx-4]
  00023	33 c8		 xor	 ecx, eax
  00025	e8 00 00 00 00	 call	 @__security_check_cookie@4
  0002a	b8 00 00 00 00	 mov	 eax, OFFSET __ehfuncinfo$?LoadRemoveBuffList@ioDummyStruct@@IAEXAAVioINILoader@@@Z
  0002f	e9 00 00 00 00	 jmp	 ___CxxFrameHandler3
text$x	ENDS
?LoadRemoveBuffList@ioDummyStruct@@IAEXAAVioINILoader@@@Z ENDP ; ioDummyStruct::LoadRemoveBuffList
; Function compile flags: /Ogsp
;	COMDAT ??_GioDummyStruct@@UAEPAXI@Z
_TEXT	SEGMENT
___flags$ = 8						; size = 4
??_GioDummyStruct@@UAEPAXI@Z PROC			; ioDummyStruct::`scalar deleting destructor', COMDAT
; _this$ = ecx
  00000	55		 push	 ebp
  00001	8b ec		 mov	 ebp, esp
  00003	56		 push	 esi
  00004	8b f1		 mov	 esi, ecx
  00006	e8 00 00 00 00	 call	 ??1ioDummyStruct@@UAE@XZ ; ioDummyStruct::~ioDummyStruct
  0000b	f6 45 08 01	 test	 BYTE PTR ___flags$[ebp], 1
  0000f	74 07		 je	 SHORT $LN1@scalar@3
  00011	56		 push	 esi
  00012	e8 00 00 00 00	 call	 ??3@YAXPAX@Z		; operator delete
  00017	59		 pop	 ecx
$LN1@scalar@3:
  00018	8b c6		 mov	 eax, esi
  0001a	5e		 pop	 esi
  0001b	5d		 pop	 ebp
  0001c	c2 04 00	 ret	 4
??_GioDummyStruct@@UAEPAXI@Z ENDP			; ioDummyStruct::`scalar deleting destructor'
_TEXT	ENDS
PUBLIC	__$ArrayPad$
EXTRN	__imp_??4ioHashString@@QAEAAV0@PBD@Z:PROC
EXTRN	?LoadProperty@ioDummyChar@@UAEXAAVioINILoader@@@Z:PROC ; ioDummyChar::LoadProperty
; Function compile flags: /Ogsp
;	COMDAT ?LoadProperty@ioDummyStruct@@UAEXAAVioINILoader@@@Z
_TEXT	SEGMENT
_szBuf$ = -292						; size = 260
__k$555151 = -32					; size = 23
__k$555526 = -28					; size = 19
__k$555401 = -28					; size = 17
__k$555276 = -28					; size = 16
__k$555017 = -20					; size = 11
__$ArrayPad$ = -4					; size = 4
_rkLoader$ = 8						; size = 4
?LoadProperty@ioDummyStruct@@UAEXAAVioINILoader@@@Z PROC ; ioDummyStruct::LoadProperty, COMDAT
; _this$ = ecx

; 23   : {

  00000	55		 push	 ebp
  00001	8b ec		 mov	 ebp, esp
  00003	81 ec 24 01 00
	00		 sub	 esp, 292		; 00000124H
  00009	a1 00 00 00 00	 mov	 eax, DWORD PTR ___security_cookie
  0000e	33 c5		 xor	 eax, ebp
  00010	89 45 fc	 mov	 DWORD PTR __$ArrayPad$[ebp], eax
  00013	53		 push	 ebx
  00014	8b 5d 08	 mov	 ebx, DWORD PTR _rkLoader$[ebp]
  00017	56		 push	 esi
  00018	57		 push	 edi

; 24   : 	ioDummyChar::LoadProperty( rkLoader );

  00019	53		 push	 ebx
  0001a	8b f1		 mov	 esi, ecx
  0001c	e8 00 00 00 00	 call	 ?LoadProperty@ioDummyChar@@UAEXAAVioINILoader@@@Z ; ioDummyChar::LoadProperty

; 25   : 
; 26   : 	char szBuf[MAX_PATH];
; 27   : 
; 28   : 	rkLoader.LoadString_e( "check_buff", "", szBuf, MAX_PATH );

  00021	6a 02		 push	 2
  00023	c7 45 ec 8e 84
	8e 89		 mov	 DWORD PTR __k$555017[ebp], -1987148658 ; 898e848eH
  0002a	c7 45 f0 86 b3
	89 9f		 mov	 DWORD PTR __k$555017[ebp+4], -1618365562 ; 9f89b386H
  00031	66 c7 45 f4 8b
	8a		 mov	 WORD PTR __k$555017[ebp+8], 35467 ; 00008a8bH
  00037	8d 45 ec	 lea	 eax, DWORD PTR __k$555017[ebp]
  0003a	c6 45 f6 00	 mov	 BYTE PTR __k$555017[ebp+10], 0
  0003e	59		 pop	 ecx
$LL106@LoadProper:
  0003f	81 30 ed ec eb
	ea		 xor	 DWORD PTR [eax], -353637139 ; eaebecedH
  00045	83 c0 04	 add	 eax, 4
  00048	49		 dec	 ecx
  00049	75 f4		 jne	 SHORT $LL106@LoadProper
  0004b	6a 08		 push	 8
  0004d	5f		 pop	 edi
$LL103@LoadProper:
  0004e	8b c7		 mov	 eax, edi
  00050	25 03 00 00 80	 and	 eax, -2147483645	; 80000003H
  00055	79 05		 jns	 SHORT $LN553@LoadProper
  00057	48		 dec	 eax
  00058	83 c8 fc	 or	 eax, -4			; fffffffcH
  0005b	40		 inc	 eax
$LN553@LoadProper:
  0005c	b1 ed		 mov	 cl, -19			; ffffffedH
  0005e	2a c8		 sub	 cl, al
  00060	30 4c 3d ec	 xor	 BYTE PTR __k$555017[ebp+edi], cl
  00064	47		 inc	 edi
  00065	83 ff 0a	 cmp	 edi, 10			; 0000000aH
  00068	7c e4		 jl	 SHORT $LL103@LoadProper
  0006a	68 04 01 00 00	 push	 260			; 00000104H
  0006f	8d 85 dc fe ff
	ff		 lea	 eax, DWORD PTR _szBuf$[ebp]
  00075	50		 push	 eax
  00076	68 00 00 00 00	 push	 OFFSET ??_C@_00CNPNBAHC@?$AA@
  0007b	8d 45 ec	 lea	 eax, DWORD PTR __k$555017[ebp]
  0007e	50		 push	 eax
  0007f	8b cb		 mov	 ecx, ebx
  00081	ff 15 00 00 00
	00		 call	 DWORD PTR __imp_?LoadStringA@ioINILoader@@QAEXPBD0PADH@Z

; 29   : 	m_szCheckBuff = szBuf;

  00087	8d 85 dc fe ff
	ff		 lea	 eax, DWORD PTR _szBuf$[ebp]
  0008d	50		 push	 eax
  0008e	8d 8e 80 14 00
	00		 lea	 ecx, DWORD PTR [esi+5248]
  00094	ff 15 00 00 00
	00		 call	 DWORD PTR __imp_??4ioHashString@@QAEAAV0@PBD@Z
  0009a	6a 05		 push	 5

; 30   : 
; 31   : 	m_bSetAllWeaponDefence = rkLoader.LoadBool_e( "set_all_weapon_defence", false );

  0009c	c7 45 e0 9e 89
	9f b5		 mov	 DWORD PTR __k$555151[ebp], -1247835746 ; b59f899eH
  000a3	c7 45 e4 8c 80
	87 b5		 mov	 DWORD PTR __k$555151[ebp+4], -1249410932 ; b587808cH
  000aa	c7 45 e8 9a 89
	8a 9a		 mov	 DWORD PTR __k$555151[ebp+8], -1702196838 ; 9a8a899aH
  000b1	c7 45 ec 82 82
	b4 8e		 mov	 DWORD PTR __k$555151[ebp+12], -1900772734 ; 8eb48282H
  000b8	c7 45 f0 88 8a
	8e 84		 mov	 DWORD PTR __k$555151[ebp+16], -2071033208 ; 848e8a88H
  000bf	66 c7 45 f4 8e
	89		 mov	 WORD PTR __k$555151[ebp+20], 35214 ; 0000898eH
  000c5	8d 45 e0	 lea	 eax, DWORD PTR __k$555151[ebp]
  000c8	c6 45 f6 00	 mov	 BYTE PTR __k$555151[ebp+22], 0
  000cc	59		 pop	 ecx
$LL212@LoadProper:
  000cd	81 30 ed ec eb
	ea		 xor	 DWORD PTR [eax], -353637139 ; eaebecedH
  000d3	83 c0 04	 add	 eax, 4
  000d6	49		 dec	 ecx
  000d7	75 f4		 jne	 SHORT $LL212@LoadProper
  000d9	6a 14		 push	 20			; 00000014H
  000db	5f		 pop	 edi
$LL209@LoadProper:
  000dc	8b c7		 mov	 eax, edi
  000de	25 03 00 00 80	 and	 eax, -2147483645	; 80000003H
  000e3	79 05		 jns	 SHORT $LN554@LoadProper
  000e5	48		 dec	 eax
  000e6	83 c8 fc	 or	 eax, -4			; fffffffcH
  000e9	40		 inc	 eax
$LN554@LoadProper:
  000ea	b1 ed		 mov	 cl, -19			; ffffffedH
  000ec	2a c8		 sub	 cl, al
  000ee	30 4c 3d e0	 xor	 BYTE PTR __k$555151[ebp+edi], cl
  000f2	47		 inc	 edi
  000f3	83 ff 16	 cmp	 edi, 22			; 00000016H
  000f6	7c e4		 jl	 SHORT $LL209@LoadProper
  000f8	8b 3d 00 00 00
	00		 mov	 edi, DWORD PTR __imp_?LoadBool@ioINILoader@@QAE_NPBD_N@Z
  000fe	6a 00		 push	 0
  00100	8d 45 e0	 lea	 eax, DWORD PTR __k$555151[ebp]
  00103	50		 push	 eax
  00104	8b cb		 mov	 ecx, ebx
  00106	ff d7		 call	 edi
  00108	6a 03		 push	 3
  0010a	88 86 94 14 00
	00		 mov	 BYTE PTR [esi+5268], al

; 32   : 	m_bCheckRange = rkLoader.LoadBool_e( "set_check_range", false );

  00110	c7 45 e4 9e 89
	9f b5		 mov	 DWORD PTR __k$555276[ebp], -1247835746 ; b59f899eH
  00117	c7 45 e8 8e 84
	8e 89		 mov	 DWORD PTR __k$555276[ebp+4], -1987148658 ; 898e848eH
  0011e	c7 45 ec 86 b3
	99 8b		 mov	 DWORD PTR __k$555276[ebp+8], -1952861306 ; 8b99b386H
  00125	8d 45 e4	 lea	 eax, DWORD PTR __k$555276[ebp]
  00128	c7 45 f0 83 8b
	8e 00		 mov	 DWORD PTR __k$555276[ebp+12], 9341827 ; 008e8b83H
  0012f	59		 pop	 ecx
$LL318@LoadProper:
  00130	81 30 ed ec eb
	ea		 xor	 DWORD PTR [eax], -353637139 ; eaebecedH
  00136	83 c0 04	 add	 eax, 4
  00139	49		 dec	 ecx
  0013a	75 f4		 jne	 SHORT $LL318@LoadProper
  0013c	6a 0c		 push	 12			; 0000000cH
  0013e	58		 pop	 eax
$LL315@LoadProper:
  0013f	8b c8		 mov	 ecx, eax
  00141	81 e1 03 00 00
	80		 and	 ecx, -2147483645	; 80000003H
  00147	79 05		 jns	 SHORT $LN555@LoadProper
  00149	49		 dec	 ecx
  0014a	83 c9 fc	 or	 ecx, -4			; fffffffcH
  0014d	41		 inc	 ecx
$LN555@LoadProper:
  0014e	b2 ed		 mov	 dl, -19			; ffffffedH
  00150	2a d1		 sub	 dl, cl
  00152	30 54 05 e4	 xor	 BYTE PTR __k$555276[ebp+eax], dl
  00156	40		 inc	 eax
  00157	83 f8 0f	 cmp	 eax, 15			; 0000000fH
  0015a	7c e3		 jl	 SHORT $LL315@LoadProper
  0015c	6a 00		 push	 0
  0015e	8d 45 e4	 lea	 eax, DWORD PTR __k$555276[ebp]
  00161	50		 push	 eax
  00162	8b cb		 mov	 ecx, ebx
  00164	ff d7		 call	 edi
  00166	6a 04		 push	 4
  00168	88 86 b8 14 00
	00		 mov	 BYTE PTR [esi+5304], al

; 33   : 	m_fRange = rkLoader.LoadFloat_e( "check_range_dist", 0.0f );

  0016e	c7 45 e4 8e 84
	8e 89		 mov	 DWORD PTR __k$555401[ebp], -1987148658 ; 898e848eH
  00175	c7 45 e8 86 b3
	99 8b		 mov	 DWORD PTR __k$555401[ebp+4], -1952861306 ; 8b99b386H
  0017c	c7 45 ec 83 8b
	8e b5		 mov	 DWORD PTR __k$555401[ebp+8], -1248949373 ; b58e8b83H
  00183	c7 45 f0 89 85
	98 9e		 mov	 DWORD PTR __k$555401[ebp+12], -1634171511 ; 9e988589H
  0018a	8d 45 e4	 lea	 eax, DWORD PTR __k$555401[ebp]
  0018d	c6 45 f4 00	 mov	 BYTE PTR __k$555401[ebp+16], 0
  00191	59		 pop	 ecx
$LL424@LoadProper:
  00192	81 30 ed ec eb
	ea		 xor	 DWORD PTR [eax], -353637139 ; eaebecedH
  00198	83 c0 04	 add	 eax, 4
  0019b	49		 dec	 ecx
  0019c	75 f4		 jne	 SHORT $LL424@LoadProper
  0019e	0f 57 c0	 xorps	 xmm0, xmm0
  001a1	51		 push	 ecx
  001a2	8d 45 e4	 lea	 eax, DWORD PTR __k$555401[ebp]
  001a5	f3 0f 11 04 24	 movss	 DWORD PTR [esp], xmm0
  001aa	50		 push	 eax
  001ab	8b cb		 mov	 ecx, ebx
  001ad	ff 15 00 00 00
	00		 call	 DWORD PTR __imp_?LoadFloat@ioINILoader@@QAEMPBDM@Z
  001b3	d9 9e bc 14 00
	00		 fstp	 DWORD PTR [esi+5308]
  001b9	6a 04		 push	 4

; 34   : 	m_bOnlyOwnerAddBuff = rkLoader.LoadBool_e( "set_owner_add_buff", false );

  001bb	c7 45 e4 9e 89
	9f b5		 mov	 DWORD PTR __k$555526[ebp], -1247835746 ; b59f899eH
  001c2	c7 45 e8 82 9b
	85 8f		 mov	 DWORD PTR __k$555526[ebp+4], -1887069310 ; 8f859b82H
  001c9	c7 45 ec 9f b3
	8a 8e		 mov	 DWORD PTR __k$555526[ebp+8], -1903512673 ; 8e8ab39fH
  001d0	c7 45 f0 89 b3
	89 9f		 mov	 DWORD PTR __k$555526[ebp+12], -1618365559 ; 9f89b389H
  001d7	66 c7 45 f4 8b
	8a		 mov	 WORD PTR __k$555526[ebp+16], 35467 ; 00008a8bH
  001dd	8d 45 e4	 lea	 eax, DWORD PTR __k$555526[ebp]
  001e0	c6 45 f6 00	 mov	 BYTE PTR __k$555526[ebp+18], 0
  001e4	59		 pop	 ecx
$LL530@LoadProper:
  001e5	81 30 ed ec eb
	ea		 xor	 DWORD PTR [eax], -353637139 ; eaebecedH
  001eb	83 c0 04	 add	 eax, 4
  001ee	49		 dec	 ecx
  001ef	75 f4		 jne	 SHORT $LL530@LoadProper
  001f1	6a 10		 push	 16			; 00000010H
  001f3	58		 pop	 eax
$LL527@LoadProper:
  001f4	8b c8		 mov	 ecx, eax
  001f6	81 e1 03 00 00
	80		 and	 ecx, -2147483645	; 80000003H
  001fc	79 05		 jns	 SHORT $LN556@LoadProper
  001fe	49		 dec	 ecx
  001ff	83 c9 fc	 or	 ecx, -4			; fffffffcH
  00202	41		 inc	 ecx
$LN556@LoadProper:
  00203	b2 ed		 mov	 dl, -19			; ffffffedH
  00205	2a d1		 sub	 dl, cl
  00207	30 54 05 e4	 xor	 BYTE PTR __k$555526[ebp+eax], dl
  0020b	40		 inc	 eax
  0020c	83 f8 12	 cmp	 eax, 18			; 00000012H
  0020f	7c e3		 jl	 SHORT $LL527@LoadProper
  00211	6a 00		 push	 0
  00213	8d 45 e4	 lea	 eax, DWORD PTR __k$555526[ebp]
  00216	50		 push	 eax
  00217	8b cb		 mov	 ecx, ebx
  00219	ff d7		 call	 edi

; 35   : 
; 36   : 	LoadOwnerBuffList( rkLoader );

  0021b	53		 push	 ebx
  0021c	8b ce		 mov	 ecx, esi
  0021e	88 86 c0 14 00
	00		 mov	 BYTE PTR [esi+5312], al
  00224	e8 00 00 00 00	 call	 ?LoadOwnerBuffList@ioDummyStruct@@IAEXAAVioINILoader@@@Z ; ioDummyStruct::LoadOwnerBuffList

; 37   : 	LoadRemoveBuffList( rkLoader );

  00229	53		 push	 ebx
  0022a	8b ce		 mov	 ecx, esi
  0022c	e8 00 00 00 00	 call	 ?LoadRemoveBuffList@ioDummyStruct@@IAEXAAVioINILoader@@@Z ; ioDummyStruct::LoadRemoveBuffList

; 38   : }

  00231	8b 4d fc	 mov	 ecx, DWORD PTR __$ArrayPad$[ebp]
  00234	5f		 pop	 edi
  00235	5e		 pop	 esi
  00236	33 cd		 xor	 ecx, ebp
  00238	5b		 pop	 ebx
  00239	e8 00 00 00 00	 call	 @__security_check_cookie@4
  0023e	c9		 leave
  0023f	c2 04 00	 ret	 4
?LoadProperty@ioDummyStruct@@UAEXAAVioINILoader@@@Z ENDP ; ioDummyStruct::LoadProperty
_TEXT	ENDS
END
