; Listing generated by Microsoft (R) Optimizing Compiler Version 16.00.30319.01 

	TITLE	D:\Lost Saga For Developer\Youtube\Tutorial\Source\src\LSClient\ioDummyWarpMine.cpp
	.686P
	.XMM
	include listing.inc
	.model	flat

INCLUDELIB MSVCRT
INCLUDELIB OLDNAMES

PUBLIC	?_EEM_DS@?$deque@UD3DXVECTOR3@@V?$allocator@UD3DXVECTOR3@@@std@@@std@@2HB ; std::deque<D3DXVECTOR3,std::allocator<D3DXVECTOR3> >::_EEM_DS
;	COMDAT ?_EEM_DS@?$deque@UD3DXVECTOR3@@V?$allocator@UD3DXVECTOR3@@@std@@@std@@2HB
CONST	SEGMENT
?_EEM_DS@?$deque@UD3DXVECTOR3@@V?$allocator@UD3DXVECTOR3@@@std@@@std@@2HB DD 01H ; std::deque<D3DXVECTOR3,std::allocator<D3DXVECTOR3> >::_EEM_DS
CONST	ENDS
PUBLIC	?GetBaseCharList@ioPlayStage@@QBEABV?$vector@PAVioBaseChar@@V?$allocator@PAVioBaseChar@@@std@@@std@@XZ ; ioPlayStage::GetBaseCharList
; Function compile flags: /Ogsp
; File d:\lost saga for developer\youtube\tutorial\source\src\lsclient\ioplaystage.h
;	COMDAT ?GetBaseCharList@ioPlayStage@@QBEABV?$vector@PAVioBaseChar@@V?$allocator@PAVioBaseChar@@@std@@@std@@XZ
_TEXT	SEGMENT
?GetBaseCharList@ioPlayStage@@QBEABV?$vector@PAVioBaseChar@@V?$allocator@PAVioBaseChar@@@std@@@std@@XZ PROC ; ioPlayStage::GetBaseCharList, COMDAT
; _this$ = ecx

; 755  : 	const BaseCharList& GetBaseCharList() const { return m_BaseCharList; }

  00000	8d 41 2c	 lea	 eax, DWORD PTR [ecx+44]
  00003	c3		 ret	 0
?GetBaseCharList@ioPlayStage@@QBEABV?$vector@PAVioBaseChar@@V?$allocator@PAVioBaseChar@@@std@@@std@@XZ ENDP ; ioPlayStage::GetBaseCharList
_TEXT	ENDS
PUBLIC	_cosf
EXTRN	__fltused:DWORD
EXTRN	__CIcos:PROC
; Function compile flags: /Ogsp
; File c:\program files (x86)\microsoft visual studio 10.0\vc\include\math.h
;	COMDAT _cosf
_TEXT	SEGMENT
tv69 = 8						; size = 4
__X$ = 8						; size = 4
_cosf	PROC						; COMDAT

; 410  :         {return ((float)cos((double)_X)); }

  00000	55		 push	 ebp
  00001	8b ec		 mov	 ebp, esp
  00003	d9 45 08	 fld	 DWORD PTR __X$[ebp]
  00006	e8 00 00 00 00	 call	 __CIcos
  0000b	d9 5d 08	 fstp	 DWORD PTR tv69[ebp]
  0000e	d9 45 08	 fld	 DWORD PTR tv69[ebp]
  00011	5d		 pop	 ebp
  00012	c3		 ret	 0
_cosf	ENDP
_TEXT	ENDS
PUBLIC	??_7bad_alloc@std@@6B@				; std::bad_alloc::`vftable'
PUBLIC	??0bad_alloc@std@@QAE@PBD@Z			; std::bad_alloc::bad_alloc
PUBLIC	??_R4bad_alloc@std@@6B@				; std::bad_alloc::`RTTI Complete Object Locator'
PUBLIC	??_R0?AVbad_alloc@std@@@8			; std::bad_alloc `RTTI Type Descriptor'
PUBLIC	??_R3bad_alloc@std@@8				; std::bad_alloc::`RTTI Class Hierarchy Descriptor'
PUBLIC	??_R2bad_alloc@std@@8				; std::bad_alloc::`RTTI Base Class Array'
PUBLIC	??_R1A@?0A@EA@bad_alloc@std@@8			; std::bad_alloc::`RTTI Base Class Descriptor at (0,-1,0,64)'
PUBLIC	??_R1A@?0A@EA@exception@std@@8			; std::exception::`RTTI Base Class Descriptor at (0,-1,0,64)'
PUBLIC	??_R0?AVexception@std@@@8			; std::exception `RTTI Type Descriptor'
PUBLIC	??_R3exception@std@@8				; std::exception::`RTTI Class Hierarchy Descriptor'
PUBLIC	??_R2exception@std@@8				; std::exception::`RTTI Base Class Array'
EXTRN	__imp_??0exception@std@@QAE@ABQBD@Z:PROC
EXTRN	??_7type_info@@6B@:QWORD			; type_info::`vftable'
EXTRN	??_Ebad_alloc@std@@UAEPAXI@Z:PROC		; std::bad_alloc::`vector deleting destructor'
EXTRN	?what@exception@std@@UBEPBDXZ:PROC		; std::exception::what
;	COMDAT ??_R2exception@std@@8
; File c:\program files (x86)\microsoft visual studio 10.0\vc\include\exception
rdata$r	SEGMENT
??_R2exception@std@@8 DD FLAT:??_R1A@?0A@EA@exception@std@@8 ; std::exception::`RTTI Base Class Array'
rdata$r	ENDS
;	COMDAT ??_R3exception@std@@8
rdata$r	SEGMENT
??_R3exception@std@@8 DD 00H				; std::exception::`RTTI Class Hierarchy Descriptor'
	DD	00H
	DD	01H
	DD	FLAT:??_R2exception@std@@8
rdata$r	ENDS
;	COMDAT ??_R0?AVexception@std@@@8
_DATA	SEGMENT
??_R0?AVexception@std@@@8 DD FLAT:??_7type_info@@6B@	; std::exception `RTTI Type Descriptor'
	DD	00H
	DB	'.?AVexception@std@@', 00H
_DATA	ENDS
;	COMDAT ??_R1A@?0A@EA@exception@std@@8
rdata$r	SEGMENT
??_R1A@?0A@EA@exception@std@@8 DD FLAT:??_R0?AVexception@std@@@8 ; std::exception::`RTTI Base Class Descriptor at (0,-1,0,64)'
	DD	00H
	DD	00H
	DD	0ffffffffH
	DD	00H
	DD	040H
	DD	FLAT:??_R3exception@std@@8
rdata$r	ENDS
;	COMDAT ??_R1A@?0A@EA@bad_alloc@std@@8
rdata$r	SEGMENT
??_R1A@?0A@EA@bad_alloc@std@@8 DD FLAT:??_R0?AVbad_alloc@std@@@8 ; std::bad_alloc::`RTTI Base Class Descriptor at (0,-1,0,64)'
	DD	01H
	DD	00H
	DD	0ffffffffH
	DD	00H
	DD	040H
	DD	FLAT:??_R3bad_alloc@std@@8
rdata$r	ENDS
;	COMDAT ??_R2bad_alloc@std@@8
rdata$r	SEGMENT
??_R2bad_alloc@std@@8 DD FLAT:??_R1A@?0A@EA@bad_alloc@std@@8 ; std::bad_alloc::`RTTI Base Class Array'
	DD	FLAT:??_R1A@?0A@EA@exception@std@@8
rdata$r	ENDS
;	COMDAT ??_R3bad_alloc@std@@8
rdata$r	SEGMENT
??_R3bad_alloc@std@@8 DD 00H				; std::bad_alloc::`RTTI Class Hierarchy Descriptor'
	DD	00H
	DD	02H
	DD	FLAT:??_R2bad_alloc@std@@8
rdata$r	ENDS
;	COMDAT ??_R0?AVbad_alloc@std@@@8
_DATA	SEGMENT
??_R0?AVbad_alloc@std@@@8 DD FLAT:??_7type_info@@6B@	; std::bad_alloc `RTTI Type Descriptor'
	DD	00H
	DB	'.?AVbad_alloc@std@@', 00H
_DATA	ENDS
;	COMDAT ??_R4bad_alloc@std@@6B@
rdata$r	SEGMENT
??_R4bad_alloc@std@@6B@ DD 00H				; std::bad_alloc::`RTTI Complete Object Locator'
	DD	00H
	DD	00H
	DD	FLAT:??_R0?AVbad_alloc@std@@@8
	DD	FLAT:??_R3bad_alloc@std@@8
rdata$r	ENDS
;	COMDAT ??_7bad_alloc@std@@6B@
CONST	SEGMENT
??_7bad_alloc@std@@6B@ DD FLAT:??_R4bad_alloc@std@@6B@	; std::bad_alloc::`vftable'
	DD	FLAT:??_Ebad_alloc@std@@UAEPAXI@Z
	DD	FLAT:?what@exception@std@@UBEPBDXZ
; Function compile flags: /Ogsp
CONST	ENDS
;	COMDAT ??0bad_alloc@std@@QAE@PBD@Z
_TEXT	SEGMENT
__Message$ = 8						; size = 4
??0bad_alloc@std@@QAE@PBD@Z PROC			; std::bad_alloc::bad_alloc, COMDAT
; _this$ = ecx

; 345  : 		{	// construct from message string

  00000	55		 push	 ebp
  00001	8b ec		 mov	 ebp, esp
  00003	56		 push	 esi
  00004	8d 45 08	 lea	 eax, DWORD PTR __Message$[ebp]
  00007	50		 push	 eax
  00008	8b f1		 mov	 esi, ecx
  0000a	ff 15 00 00 00
	00		 call	 DWORD PTR __imp_??0exception@std@@QAE@ABQBD@Z
  00010	c7 06 00 00 00
	00		 mov	 DWORD PTR [esi], OFFSET ??_7bad_alloc@std@@6B@

; 346  : 		}

  00016	8b c6		 mov	 eax, esi
  00018	5e		 pop	 esi
  00019	5d		 pop	 ebp
  0001a	c2 04 00	 ret	 4
??0bad_alloc@std@@QAE@PBD@Z ENDP			; std::bad_alloc::bad_alloc
_TEXT	ENDS
PUBLIC	??1bad_alloc@std@@UAE@XZ			; std::bad_alloc::~bad_alloc
EXTRN	__imp_??1exception@std@@UAE@XZ:PROC
; Function compile flags: /Ogsp
;	COMDAT ??1bad_alloc@std@@UAE@XZ
_TEXT	SEGMENT
??1bad_alloc@std@@UAE@XZ PROC				; std::bad_alloc::~bad_alloc, COMDAT
; _this$ = ecx

; 354  : 		{	// destroy the object

  00000	c7 01 00 00 00
	00		 mov	 DWORD PTR [ecx], OFFSET ??_7bad_alloc@std@@6B@

; 355  : 		}

  00006	ff 25 00 00 00
	00		 jmp	 DWORD PTR __imp_??1exception@std@@UAE@XZ
??1bad_alloc@std@@UAE@XZ ENDP				; std::bad_alloc::~bad_alloc
_TEXT	ENDS
EXTRN	??3@YAXPAX@Z:PROC				; operator delete
; Function compile flags: /Ogsp
;	COMDAT ??_Gbad_alloc@std@@UAEPAXI@Z
_TEXT	SEGMENT
___flags$ = 8						; size = 4
??_Gbad_alloc@std@@UAEPAXI@Z PROC			; std::bad_alloc::`scalar deleting destructor', COMDAT
; _this$ = ecx
  00000	55		 push	 ebp
  00001	8b ec		 mov	 ebp, esp
  00003	56		 push	 esi
  00004	8b f1		 mov	 esi, ecx
  00006	c7 06 00 00 00
	00		 mov	 DWORD PTR [esi], OFFSET ??_7bad_alloc@std@@6B@
  0000c	ff 15 00 00 00
	00		 call	 DWORD PTR __imp_??1exception@std@@UAE@XZ
  00012	f6 45 08 01	 test	 BYTE PTR ___flags$[ebp], 1
  00016	74 07		 je	 SHORT $LN1@scalar
  00018	56		 push	 esi
  00019	e8 00 00 00 00	 call	 ??3@YAXPAX@Z		; operator delete
  0001e	59		 pop	 ecx
$LN1@scalar:
  0001f	8b c6		 mov	 eax, esi
  00021	5e		 pop	 esi
  00022	5d		 pop	 ebp
  00023	c2 04 00	 ret	 4
??_Gbad_alloc@std@@UAEPAXI@Z ENDP			; std::bad_alloc::`scalar deleting destructor'
_TEXT	ENDS
PUBLIC	??2@YAPAXIPAX@Z					; operator new
; Function compile flags: /Ogsp
; File c:\program files (x86)\microsoft visual studio 10.0\vc\include\new
;	COMDAT ??2@YAPAXIPAX@Z
_TEXT	SEGMENT
___formal$ = 8						; size = 4
__Where$ = 12						; size = 4
??2@YAPAXIPAX@Z PROC					; operator new, COMDAT

; 56   : 	{	// construct array with placement at _Where

  00000	55		 push	 ebp
  00001	8b ec		 mov	 ebp, esp

; 57   : 	return (_Where);

  00003	8b 45 0c	 mov	 eax, DWORD PTR __Where$[ebp]

; 58   : 	}

  00006	5d		 pop	 ebp
  00007	c3		 ret	 0
??2@YAPAXIPAX@Z ENDP					; operator new
_TEXT	ENDS
PUBLIC	??3@YAXPAX0@Z					; operator delete
; Function compile flags: /Ogsp
;	COMDAT ??3@YAXPAX0@Z
_TEXT	SEGMENT
___formal$ = 8						; size = 4
___formal$ = 12						; size = 4
??3@YAXPAX0@Z PROC					; operator delete, COMDAT

; 62   : 	}

  00000	c3		 ret	 0
??3@YAXPAX0@Z ENDP					; operator delete
_TEXT	ENDS
PUBLIC	?GetCreator@ioBaseChar@@QAEPAVioPlayStage@@XZ	; ioBaseChar::GetCreator
; Function compile flags: /Ogsp
; File d:\lost saga for developer\youtube\tutorial\source\src\lsclient\iobasechar.h
;	COMDAT ?GetCreator@ioBaseChar@@QAEPAVioPlayStage@@XZ
_TEXT	SEGMENT
?GetCreator@ioBaseChar@@QAEPAVioPlayStage@@XZ PROC	; ioBaseChar::GetCreator, COMDAT
; _this$ = ecx

; 4013 : 	inline ioPlayStage* GetCreator() { return m_pCreator; }

  00000	8b 81 44 03 00
	00		 mov	 eax, DWORD PTR [ecx+836]
  00006	c3		 ret	 0
?GetCreator@ioBaseChar@@QAEPAVioPlayStage@@XZ ENDP	; ioBaseChar::GetCreator
_TEXT	ENDS
PUBLIC	?_Adopt@_Iterator_base0@std@@QAEXPBX@Z		; std::_Iterator_base0::_Adopt
; Function compile flags: /Ogsp
; File c:\program files (x86)\microsoft visual studio 10.0\vc\include\xutility
;	COMDAT ?_Adopt@_Iterator_base0@std@@QAEXPBX@Z
_TEXT	SEGMENT
___formal$ = 8						; size = 4
?_Adopt@_Iterator_base0@std@@QAEXPBX@Z PROC		; std::_Iterator_base0::_Adopt, COMDAT
; _this$ = ecx

; 49   : 		}

  00000	c2 04 00	 ret	 4
?_Adopt@_Iterator_base0@std@@QAEXPBX@Z ENDP		; std::_Iterator_base0::_Adopt
_TEXT	ENDS
PUBLIC	??_7ioDummyWarpMine@@6BioWorldEventReceiver@@@	; ioDummyWarpMine::`vftable'
PUBLIC	??_7ioDummyWarpMine@@6BioPlayEntity@@@		; ioDummyWarpMine::`vftable'
PUBLIC	??1ioDummyWarpMine@@UAE@XZ			; ioDummyWarpMine::~ioDummyWarpMine
PUBLIC	??_R4ioDummyWarpMine@@6BioPlayEntity@@@		; ioDummyWarpMine::`RTTI Complete Object Locator'
PUBLIC	??_R0?AVioDummyWarpMine@@@8			; ioDummyWarpMine `RTTI Type Descriptor'
PUBLIC	??_R3ioDummyWarpMine@@8				; ioDummyWarpMine::`RTTI Class Hierarchy Descriptor'
PUBLIC	??_R2ioDummyWarpMine@@8				; ioDummyWarpMine::`RTTI Base Class Array'
PUBLIC	??_R1A@?0A@EA@ioDummyWarpMine@@8		; ioDummyWarpMine::`RTTI Base Class Descriptor at (0,-1,0,64)'
PUBLIC	??_R1A@?0A@EA@ioDummyChar@@8			; ioDummyChar::`RTTI Base Class Descriptor at (0,-1,0,64)'
PUBLIC	??_R0?AVioDummyChar@@@8				; ioDummyChar `RTTI Type Descriptor'
PUBLIC	??_R3ioDummyChar@@8				; ioDummyChar::`RTTI Class Hierarchy Descriptor'
PUBLIC	??_R2ioDummyChar@@8				; ioDummyChar::`RTTI Base Class Array'
PUBLIC	??_R1A@?0A@EA@ioPlayEntity@@8			; ioPlayEntity::`RTTI Base Class Descriptor at (0,-1,0,64)'
PUBLIC	??_R0?AVioPlayEntity@@@8			; ioPlayEntity `RTTI Type Descriptor'
PUBLIC	??_R3ioPlayEntity@@8				; ioPlayEntity::`RTTI Class Hierarchy Descriptor'
PUBLIC	??_R2ioPlayEntity@@8				; ioPlayEntity::`RTTI Base Class Array'
PUBLIC	??_R1A@?0A@EA@ioGameEntity@@8			; ioGameEntity::`RTTI Base Class Descriptor at (0,-1,0,64)'
PUBLIC	??_R0?AVioGameEntity@@@8			; ioGameEntity `RTTI Type Descriptor'
PUBLIC	??_R3ioGameEntity@@8				; ioGameEntity::`RTTI Class Hierarchy Descriptor'
PUBLIC	??_R2ioGameEntity@@8				; ioGameEntity::`RTTI Base Class Array'
PUBLIC	??_R1A@?0A@EA@ioEntityEvent@@8			; ioEntityEvent::`RTTI Base Class Descriptor at (0,-1,0,64)'
PUBLIC	??_R0?AVioEntityEvent@@@8			; ioEntityEvent `RTTI Type Descriptor'
PUBLIC	??_R3ioEntityEvent@@8				; ioEntityEvent::`RTTI Class Hierarchy Descriptor'
PUBLIC	??_R2ioEntityEvent@@8				; ioEntityEvent::`RTTI Base Class Array'
PUBLIC	??_R1BMI@?0A@EA@ioWorldEventReceiver@@8		; ioWorldEventReceiver::`RTTI Base Class Descriptor at (456,-1,0,64)'
PUBLIC	??_R0?AVioWorldEventReceiver@@@8		; ioWorldEventReceiver `RTTI Type Descriptor'
PUBLIC	??_R3ioWorldEventReceiver@@8			; ioWorldEventReceiver::`RTTI Class Hierarchy Descriptor'
PUBLIC	??_R2ioWorldEventReceiver@@8			; ioWorldEventReceiver::`RTTI Base Class Array'
PUBLIC	??_R1A@?0A@EA@ioWorldEventReceiver@@8		; ioWorldEventReceiver::`RTTI Base Class Descriptor at (0,-1,0,64)'
PUBLIC	?TranslateByConveyer@ioDummyWarpMine@@UAEXABUD3DXVECTOR3@@@Z ; ioDummyWarpMine::TranslateByConveyer
PUBLIC	?ApplyWeapon@ioDummyWarpMine@@UAE?AW4ApplyWeaponExp@@PAVioWeapon@@@Z ; ioDummyWarpMine::ApplyWeapon
PUBLIC	?LoadProperty@ioDummyWarpMine@@UAEXAAVioINILoader@@@Z ; ioDummyWarpMine::LoadProperty
PUBLIC	?SetTeam@ioPlayEntity@@UAEXW4TeamType@@@Z	; ioPlayEntity::SetTeam
PUBLIC	?IsActivateWeapon@ioDummyWarpMine@@UAE_NXZ	; ioDummyWarpMine::IsActivateWeapon
PUBLIC	?ProcessState@ioDummyWarpMine@@MAEXMK@Z		; ioDummyWarpMine::ProcessState
PUBLIC	?ApplyDummyCharSync@ioDummyWarpMine@@UAEXPAVioPlayStage@@AAVSP2Packet@@@Z ; ioDummyWarpMine::ApplyDummyCharSync
PUBLIC	?IsDummyCharMidSync@ioDummyChar@@UAE_NXZ	; ioDummyChar::IsDummyCharMidSync
PUBLIC	?SetDieState@ioDummyWarpMine@@UAEX_N@Z		; ioDummyWarpMine::SetDieState
PUBLIC	??_R4ioDummyWarpMine@@6BioWorldEventReceiver@@@	; ioDummyWarpMine::`RTTI Complete Object Locator'
PUBLIC	??_EioDummyWarpMine@@WBMI@AEPAXI@Z		; [thunk]:ioDummyWarpMine::`vector deleting destructor'
EXTRN	??1ioDummyChar@@UAE@XZ:PROC			; ioDummyChar::~ioDummyChar
EXTRN	__imp_??1ioHashString@@QAE@XZ:PROC
EXTRN	___CxxFrameHandler3:PROC
EXTRN	@__security_check_cookie@4:PROC
EXTRN	__EH_epilog3:PROC
EXTRN	__EH_prolog3:PROC
EXTRN	?AddEntityEvent@ioDummyChar@@UAEXPAVioEntity@@@Z:PROC ; ioDummyChar::AddEntityEvent
EXTRN	??_EioDummyWarpMine@@UAEPAXI@Z:PROC		; ioDummyWarpMine::`vector deleting destructor'
EXTRN	?Update@ioDummyChar@@UAEXMKK@Z:PROC		; ioDummyChar::Update
EXTRN	?UpdateAfter@ioDummyChar@@UAEXM@Z:PROC		; ioDummyChar::UpdateAfter
EXTRN	?GetTypeID@ioPlayEntity@@UBEHXZ:PROC		; ioPlayEntity::GetTypeID
EXTRN	?IsNeedCheckMapCollision@ioDummyChar@@UBE_NXZ:PROC ; ioDummyChar::IsNeedCheckMapCollision
EXTRN	?IsMountAvailable@ioDummyChar@@UBE_NXZ:PROC	; ioDummyChar::IsMountAvailable
EXTRN	?IsMountingAvailable@ioDummyChar@@UBE_NXZ:PROC	; ioDummyChar::IsMountingAvailable
EXTRN	?IsNowMountEnable@ioDummyChar@@UBE_NXZ:PROC	; ioDummyChar::IsNowMountEnable
EXTRN	?IsAllWeaponDefence@ioGameEntity@@UBE_NXZ:PROC	; ioGameEntity::IsAllWeaponDefence
EXTRN	?HasEntity@ioGameEntity@@UAE_NABVioHashString@@@Z:PROC ; ioGameEntity::HasEntity
EXTRN	?AddEntity@ioGameEntity@@UAEPAVioEntity@@ABVioHashString@@@Z:PROC ; ioGameEntity::AddEntity
EXTRN	?DestroyEntity@ioGameEntity@@UAE_NABVioHashString@@@Z:PROC ; ioGameEntity::DestroyEntity
EXTRN	?GetEntity@ioGameEntity@@UAEPAVioEntity@@ABVioHashString@@@Z:PROC ; ioGameEntity::GetEntity
EXTRN	?UpdateBound@ioGameEntity@@MBEXXZ:PROC		; ioGameEntity::UpdateBound
EXTRN	?UpdateBottomHeight@ioDummyChar@@MBEXXZ:PROC	; ioDummyChar::UpdateBottomHeight
EXTRN	?NeedUpdateBottomHeight@ioDummyChar@@UAEXXZ:PROC ; ioDummyChar::NeedUpdateBottomHeight
EXTRN	?SetWorldPosition@ioGameEntity@@UAEXABUD3DXVECTOR3@@@Z:PROC ; ioGameEntity::SetWorldPosition
EXTRN	?SetWorldOrientation@ioGameEntity@@UAEXABUD3DXQUATERNION@@@Z:PROC ; ioGameEntity::SetWorldOrientation
EXTRN	?SetWorldScale@ioGameEntity@@UAEXABUD3DXVECTOR3@@@Z:PROC ; ioGameEntity::SetWorldScale
EXTRN	?Translate@ioDummyChar@@UAEXABUD3DXVECTOR3@@@Z:PROC ; ioDummyChar::Translate
EXTRN	?TranslateByWorldEntity@ioDummyChar@@UAEXABUD3DXVECTOR3@@@Z:PROC ; ioDummyChar::TranslateByWorldEntity
EXTRN	?MapCollisionPushingTranslate@ioDummyChar@@UAEXABUD3DXVECTOR3@@@Z:PROC ; ioDummyChar::MapCollisionPushingTranslate
EXTRN	?DontMoveCollisionPushingTranslate@ioGameEntity@@UAEXPAV1@ABUD3DXVECTOR3@@@Z:PROC ; ioGameEntity::DontMoveCollisionPushingTranslate
EXTRN	?Rotate@ioGameEntity@@UAEXABUD3DXVECTOR3@@MW4TransformSpace@ioNode@@@Z:PROC ; ioGameEntity::Rotate
EXTRN	?Scale@ioGameEntity@@UAEXMMM@Z:PROC		; ioGameEntity::Scale
EXTRN	?Scale@ioGameEntity@@UAEXABUD3DXVECTOR3@@@Z:PROC ; ioGameEntity::Scale
EXTRN	?GetWorldPosition@ioGameEntity@@UBEABUD3DXVECTOR3@@XZ:PROC ; ioGameEntity::GetWorldPosition
EXTRN	?GetWorldOrientation@ioGameEntity@@UBEABUD3DXQUATERNION@@XZ:PROC ; ioGameEntity::GetWorldOrientation
EXTRN	?GetWorldScale@ioGameEntity@@UBEABUD3DXVECTOR3@@XZ:PROC ; ioGameEntity::GetWorldScale
EXTRN	?IsCollisionAvailableWeapon@ioDummyChar@@UAE_NPAVioWeapon@@@Z:PROC ; ioDummyChar::IsCollisionAvailableWeapon
EXTRN	?IsCollisionAvailableRange@ioPlayEntity@@UAE_NPAVioWeapon@@@Z:PROC ; ioPlayEntity::IsCollisionAvailableRange
EXTRN	?IsEntityCollisionSkipState@ioDummyChar@@UBE_NPAVioGameEntity@@@Z:PROC ; ioDummyChar::IsEntityCollisionSkipState
EXTRN	?IsCharCollisionSkipState@ioDummyChar@@UBE_NW4TeamType@@H@Z:PROC ; ioDummyChar::IsCharCollisionSkipState
EXTRN	?IsWoundedCollision@ioPlayEntity@@UBE_NABVioOrientBox@@PAUD3DXVECTOR3@@@Z:PROC ; ioPlayEntity::IsWoundedCollision
EXTRN	?GetAttackCollisionBox@ioDummyChar@@UAE?AVioOrientBox@@W4AniCollisionType@@_N@Z:PROC ; ioDummyChar::GetAttackCollisionBox
EXTRN	?CheckSphereDistance@ioPlayEntity@@UBE_NABUD3DXVECTOR3@@MAAM@Z:PROC ; ioPlayEntity::CheckSphereDistance
EXTRN	?CheckSpherePoint@ioPlayEntity@@UBE_NABUD3DXVECTOR3@@MAAU2@@Z:PROC ; ioPlayEntity::CheckSpherePoint
EXTRN	?CheckCylinderPoint@ioPlayEntity@@UBE_NABVioCylinder@@ABUD3DXVECTOR3@@AAU3@@Z:PROC ; ioPlayEntity::CheckCylinderPoint
EXTRN	?GetSubType@ioDummyChar@@UBE?AW4PlaySubType@ioPlayEntity@@XZ:PROC ; ioDummyChar::GetSubType
EXTRN	?GetArmorType@ioDummyChar@@UBE?AW4ArmorType@@XZ:PROC ; ioDummyChar::GetArmorType
EXTRN	?DontMoveEntityLevel@ioDummyChar@@UBEHXZ:PROC	; ioDummyChar::DontMoveEntityLevel
EXTRN	?NotifyDontMoveCollisionPushingSkip@ioPlayEntity@@UAEXPAVioGameEntity@@@Z:PROC ; ioPlayEntity::NotifyDontMoveCollisionPushingSkip
EXTRN	?GetWorldEventReceiver@ioDummyChar@@UAEPAVioWorldEventReceiver@@XZ:PROC ; ioDummyChar::GetWorldEventReceiver
EXTRN	?Revival@ioPlayEntity@@UAEXXZ:PROC		; ioPlayEntity::Revival
EXTRN	?UpdateGauge@ioDummyChar@@UAEXXZ:PROC		; ioDummyChar::UpdateGauge
EXTRN	?RenderGauge@ioDummyChar@@UAEXXZ:PROC		; ioDummyChar::RenderGauge
EXTRN	?FillMaxHP@ioPlayEntity@@UAEXXZ:PROC		; ioPlayEntity::FillMaxHP
EXTRN	?ProcessRecovery@ioPlayEntity@@MAEXXZ:PROC	; ioPlayEntity::ProcessRecovery
EXTRN	?AddHeadDamageInfo@ioPlayEntity@@UAEXH_N@Z:PROC	; ioPlayEntity::AddHeadDamageInfo
EXTRN	?RenderHeadInfoList@ioPlayEntity@@UAEXHH@Z:PROC	; ioPlayEntity::RenderHeadInfoList
EXTRN	?UpdateHeadInfoList@ioPlayEntity@@MAEXK@Z:PROC	; ioPlayEntity::UpdateHeadInfoList
EXTRN	?InitDummyCharInfo@ioDummyChar@@UAEXHKABUD3DXVECTOR3@@0M_N@Z:PROC ; ioDummyChar::InitDummyCharInfo
EXTRN	?TestMapCollision@ioDummyChar@@UAE_NPAVioOpcodeShape@@PAVioPlayStage@@PBUD3DXMATRIX@@@Z:PROC ; ioDummyChar::TestMapCollision
EXTRN	?CheckEntityCollision@ioDummyChar@@UAEXPAVioPlayEntity@@@Z:PROC ; ioDummyChar::CheckEntityCollision
EXTRN	?GetDummyGrassType@ioDummyChar@@UAEHXZ:PROC	; ioDummyChar::GetDummyGrassType
EXTRN	?IsDummyVsDummyCollisionSkipState@ioDummyChar@@UAE_NPBV1@@Z:PROC ; ioDummyChar::IsDummyVsDummyCollisionSkipState
EXTRN	?ProcessPos@ioDummyChar@@MAEXM@Z:PROC		; ioDummyChar::ProcessPos
EXTRN	?ProcessDelayState@ioDummyChar@@MAEXM@Z:PROC	; ioDummyChar::ProcessDelayState
EXTRN	?ProcessMoveState@ioDummyChar@@MAEXM@Z:PROC	; ioDummyChar::ProcessMoveState
EXTRN	?ProcessDashState@ioDummyChar@@MAEXM@Z:PROC	; ioDummyChar::ProcessDashState
EXTRN	?ProcessAttackState@ioDummyChar@@MAEXMK@Z:PROC	; ioDummyChar::ProcessAttackState
EXTRN	?SetDelayState@ioDummyChar@@UAEX_N@Z:PROC	; ioDummyChar::SetDelayState
EXTRN	?SetMoveState@ioDummyChar@@UAEXXZ:PROC		; ioDummyChar::SetMoveState
EXTRN	?SetDieState@ioDummyChar@@UAEX_N0@Z:PROC	; ioDummyChar::SetDieState
EXTRN	?SetDashState@ioDummyChar@@UAEXXZ:PROC		; ioDummyChar::SetDashState
EXTRN	?SetAttackState@ioDummyChar@@UAEXXZ:PROC	; ioDummyChar::SetAttackState
EXTRN	?DropZoneCheck@ioDummyChar@@MAEXXZ:PROC		; ioDummyChar::DropZoneCheck
EXTRN	?SendAttackInfoToSkill@ioDummyChar@@MAEXXZ:PROC	; ioDummyChar::SendAttackInfoToSkill
EXTRN	?CheckCollisionWeapon@ioDummyChar@@UAEXPAVioBaseChar@@@Z:PROC ; ioDummyChar::CheckCollisionWeapon
EXTRN	?TranslateMountEntity@ioDummyChar@@MAEXABUD3DXVECTOR3@@@Z:PROC ; ioDummyChar::TranslateMountEntity
EXTRN	?ClearMountEntity@ioDummyChar@@MAEXXZ:PROC	; ioDummyChar::ClearMountEntity
EXTRN	?UpdateMountedEntityList@ioDummyChar@@MAEXXZ:PROC ; ioDummyChar::UpdateMountedEntityList
EXTRN	?UpdateMountedWeaponList@ioDummyChar@@MAEXXZ:PROC ; ioDummyChar::UpdateMountedWeaponList
EXTRN	?SetWorldPositionMountEntity@ioDummyChar@@MAEXM@Z:PROC ; ioDummyChar::SetWorldPositionMountEntity
EXTRN	?DummyDieClearMountEntity@ioDummyChar@@MAEXXZ:PROC ; ioDummyChar::DummyDieClearMountEntity
EXTRN	?FillDummyCharMidSync@ioDummyChar@@UAEXPAVioBaseChar@@AAVSP2Packet@@@Z:PROC ; ioDummyChar::FillDummyCharMidSync
EXTRN	?ApplyDummyCharMidSync@ioDummyChar@@UAEXPAVioBaseChar@@AAVSP2Packet@@@Z:PROC ; ioDummyChar::ApplyDummyCharMidSync
EXTRN	?GetSkillMaxActiveCnt@ioDummyChar@@UAEHXZ:PROC	; ioDummyChar::GetSkillMaxActiveCnt
EXTRN	?GetSkillCurActiveCnt@ioDummyChar@@UAEHXZ:PROC	; ioDummyChar::GetSkillCurActiveCnt
EXTRN	?OnTelepotation@ioDummyChar@@UAEXABUD3DXVECTOR3@@@Z:PROC ; ioDummyChar::OnTelepotation
EXTRN	?OnFireZoneDamage@ioDummyChar@@UAEXMABVioHashString@@@Z:PROC ; ioDummyChar::OnFireZoneDamage
EXTRN	?OnPoisonZoneDamage@ioDummyChar@@UAEXXZ:PROC	; ioDummyChar::OnPoisonZoneDamage
;	COMDAT ??_R4ioDummyWarpMine@@6BioWorldEventReceiver@@@
; File d:\lost saga for developer\youtube\tutorial\source\src\lsclient\iodummywarpmine.cpp
rdata$r	SEGMENT
??_R4ioDummyWarpMine@@6BioWorldEventReceiver@@@ DD 00H	; ioDummyWarpMine::`RTTI Complete Object Locator'
	DD	01c8H
	DD	00H
	DD	FLAT:??_R0?AVioDummyWarpMine@@@8
	DD	FLAT:??_R3ioDummyWarpMine@@8
rdata$r	ENDS
;	COMDAT ??_R1A@?0A@EA@ioWorldEventReceiver@@8
rdata$r	SEGMENT
??_R1A@?0A@EA@ioWorldEventReceiver@@8 DD FLAT:??_R0?AVioWorldEventReceiver@@@8 ; ioWorldEventReceiver::`RTTI Base Class Descriptor at (0,-1,0,64)'
	DD	00H
	DD	00H
	DD	0ffffffffH
	DD	00H
	DD	040H
	DD	FLAT:??_R3ioWorldEventReceiver@@8
rdata$r	ENDS
;	COMDAT ??_R2ioWorldEventReceiver@@8
rdata$r	SEGMENT
??_R2ioWorldEventReceiver@@8 DD FLAT:??_R1A@?0A@EA@ioWorldEventReceiver@@8 ; ioWorldEventReceiver::`RTTI Base Class Array'
rdata$r	ENDS
;	COMDAT ??_R3ioWorldEventReceiver@@8
rdata$r	SEGMENT
??_R3ioWorldEventReceiver@@8 DD 00H			; ioWorldEventReceiver::`RTTI Class Hierarchy Descriptor'
	DD	00H
	DD	01H
	DD	FLAT:??_R2ioWorldEventReceiver@@8
rdata$r	ENDS
;	COMDAT ??_R0?AVioWorldEventReceiver@@@8
_DATA	SEGMENT
??_R0?AVioWorldEventReceiver@@@8 DD FLAT:??_7type_info@@6B@ ; ioWorldEventReceiver `RTTI Type Descriptor'
	DD	00H
	DB	'.?AVioWorldEventReceiver@@', 00H
_DATA	ENDS
;	COMDAT ??_R1BMI@?0A@EA@ioWorldEventReceiver@@8
rdata$r	SEGMENT
??_R1BMI@?0A@EA@ioWorldEventReceiver@@8 DD FLAT:??_R0?AVioWorldEventReceiver@@@8 ; ioWorldEventReceiver::`RTTI Base Class Descriptor at (456,-1,0,64)'
	DD	00H
	DD	01c8H
	DD	0ffffffffH
	DD	00H
	DD	040H
	DD	FLAT:??_R3ioWorldEventReceiver@@8
rdata$r	ENDS
;	COMDAT ??_R2ioEntityEvent@@8
rdata$r	SEGMENT
??_R2ioEntityEvent@@8 DD FLAT:??_R1A@?0A@EA@ioEntityEvent@@8 ; ioEntityEvent::`RTTI Base Class Array'
rdata$r	ENDS
;	COMDAT ??_R3ioEntityEvent@@8
rdata$r	SEGMENT
??_R3ioEntityEvent@@8 DD 00H				; ioEntityEvent::`RTTI Class Hierarchy Descriptor'
	DD	00H
	DD	01H
	DD	FLAT:??_R2ioEntityEvent@@8
rdata$r	ENDS
;	COMDAT ??_R0?AVioEntityEvent@@@8
_DATA	SEGMENT
??_R0?AVioEntityEvent@@@8 DD FLAT:??_7type_info@@6B@	; ioEntityEvent `RTTI Type Descriptor'
	DD	00H
	DB	'.?AVioEntityEvent@@', 00H
_DATA	ENDS
;	COMDAT ??_R1A@?0A@EA@ioEntityEvent@@8
rdata$r	SEGMENT
??_R1A@?0A@EA@ioEntityEvent@@8 DD FLAT:??_R0?AVioEntityEvent@@@8 ; ioEntityEvent::`RTTI Base Class Descriptor at (0,-1,0,64)'
	DD	00H
	DD	00H
	DD	0ffffffffH
	DD	00H
	DD	040H
	DD	FLAT:??_R3ioEntityEvent@@8
rdata$r	ENDS
;	COMDAT ??_R2ioGameEntity@@8
rdata$r	SEGMENT
??_R2ioGameEntity@@8 DD FLAT:??_R1A@?0A@EA@ioGameEntity@@8 ; ioGameEntity::`RTTI Base Class Array'
	DD	FLAT:??_R1A@?0A@EA@ioEntityEvent@@8
rdata$r	ENDS
;	COMDAT ??_R3ioGameEntity@@8
rdata$r	SEGMENT
??_R3ioGameEntity@@8 DD 00H				; ioGameEntity::`RTTI Class Hierarchy Descriptor'
	DD	00H
	DD	02H
	DD	FLAT:??_R2ioGameEntity@@8
rdata$r	ENDS
;	COMDAT ??_R0?AVioGameEntity@@@8
_DATA	SEGMENT
??_R0?AVioGameEntity@@@8 DD FLAT:??_7type_info@@6B@	; ioGameEntity `RTTI Type Descriptor'
	DD	00H
	DB	'.?AVioGameEntity@@', 00H
_DATA	ENDS
;	COMDAT ??_R1A@?0A@EA@ioGameEntity@@8
rdata$r	SEGMENT
??_R1A@?0A@EA@ioGameEntity@@8 DD FLAT:??_R0?AVioGameEntity@@@8 ; ioGameEntity::`RTTI Base Class Descriptor at (0,-1,0,64)'
	DD	01H
	DD	00H
	DD	0ffffffffH
	DD	00H
	DD	040H
	DD	FLAT:??_R3ioGameEntity@@8
rdata$r	ENDS
;	COMDAT ??_R2ioPlayEntity@@8
rdata$r	SEGMENT
??_R2ioPlayEntity@@8 DD FLAT:??_R1A@?0A@EA@ioPlayEntity@@8 ; ioPlayEntity::`RTTI Base Class Array'
	DD	FLAT:??_R1A@?0A@EA@ioGameEntity@@8
	DD	FLAT:??_R1A@?0A@EA@ioEntityEvent@@8
rdata$r	ENDS
;	COMDAT ??_R3ioPlayEntity@@8
rdata$r	SEGMENT
??_R3ioPlayEntity@@8 DD 00H				; ioPlayEntity::`RTTI Class Hierarchy Descriptor'
	DD	00H
	DD	03H
	DD	FLAT:??_R2ioPlayEntity@@8
rdata$r	ENDS
;	COMDAT ??_R0?AVioPlayEntity@@@8
_DATA	SEGMENT
??_R0?AVioPlayEntity@@@8 DD FLAT:??_7type_info@@6B@	; ioPlayEntity `RTTI Type Descriptor'
	DD	00H
	DB	'.?AVioPlayEntity@@', 00H
_DATA	ENDS
;	COMDAT ??_R1A@?0A@EA@ioPlayEntity@@8
rdata$r	SEGMENT
??_R1A@?0A@EA@ioPlayEntity@@8 DD FLAT:??_R0?AVioPlayEntity@@@8 ; ioPlayEntity::`RTTI Base Class Descriptor at (0,-1,0,64)'
	DD	02H
	DD	00H
	DD	0ffffffffH
	DD	00H
	DD	040H
	DD	FLAT:??_R3ioPlayEntity@@8
rdata$r	ENDS
;	COMDAT ??_R2ioDummyChar@@8
rdata$r	SEGMENT
??_R2ioDummyChar@@8 DD FLAT:??_R1A@?0A@EA@ioDummyChar@@8 ; ioDummyChar::`RTTI Base Class Array'
	DD	FLAT:??_R1A@?0A@EA@ioPlayEntity@@8
	DD	FLAT:??_R1A@?0A@EA@ioGameEntity@@8
	DD	FLAT:??_R1A@?0A@EA@ioEntityEvent@@8
	DD	FLAT:??_R1BMI@?0A@EA@ioWorldEventReceiver@@8
rdata$r	ENDS
;	COMDAT ??_R3ioDummyChar@@8
rdata$r	SEGMENT
??_R3ioDummyChar@@8 DD 00H				; ioDummyChar::`RTTI Class Hierarchy Descriptor'
	DD	01H
	DD	05H
	DD	FLAT:??_R2ioDummyChar@@8
rdata$r	ENDS
;	COMDAT ??_R0?AVioDummyChar@@@8
_DATA	SEGMENT
??_R0?AVioDummyChar@@@8 DD FLAT:??_7type_info@@6B@	; ioDummyChar `RTTI Type Descriptor'
	DD	00H
	DB	'.?AVioDummyChar@@', 00H
_DATA	ENDS
;	COMDAT ??_R1A@?0A@EA@ioDummyChar@@8
rdata$r	SEGMENT
??_R1A@?0A@EA@ioDummyChar@@8 DD FLAT:??_R0?AVioDummyChar@@@8 ; ioDummyChar::`RTTI Base Class Descriptor at (0,-1,0,64)'
	DD	04H
	DD	00H
	DD	0ffffffffH
	DD	00H
	DD	040H
	DD	FLAT:??_R3ioDummyChar@@8
rdata$r	ENDS
;	COMDAT ??_R1A@?0A@EA@ioDummyWarpMine@@8
rdata$r	SEGMENT
??_R1A@?0A@EA@ioDummyWarpMine@@8 DD FLAT:??_R0?AVioDummyWarpMine@@@8 ; ioDummyWarpMine::`RTTI Base Class Descriptor at (0,-1,0,64)'
	DD	05H
	DD	00H
	DD	0ffffffffH
	DD	00H
	DD	040H
	DD	FLAT:??_R3ioDummyWarpMine@@8
rdata$r	ENDS
;	COMDAT ??_R2ioDummyWarpMine@@8
rdata$r	SEGMENT
??_R2ioDummyWarpMine@@8 DD FLAT:??_R1A@?0A@EA@ioDummyWarpMine@@8 ; ioDummyWarpMine::`RTTI Base Class Array'
	DD	FLAT:??_R1A@?0A@EA@ioDummyChar@@8
	DD	FLAT:??_R1A@?0A@EA@ioPlayEntity@@8
	DD	FLAT:??_R1A@?0A@EA@ioGameEntity@@8
	DD	FLAT:??_R1A@?0A@EA@ioEntityEvent@@8
	DD	FLAT:??_R1BMI@?0A@EA@ioWorldEventReceiver@@8
rdata$r	ENDS
;	COMDAT ??_R3ioDummyWarpMine@@8
rdata$r	SEGMENT
??_R3ioDummyWarpMine@@8 DD 00H				; ioDummyWarpMine::`RTTI Class Hierarchy Descriptor'
	DD	01H
	DD	06H
	DD	FLAT:??_R2ioDummyWarpMine@@8
rdata$r	ENDS
;	COMDAT ??_R0?AVioDummyWarpMine@@@8
_DATA	SEGMENT
??_R0?AVioDummyWarpMine@@@8 DD FLAT:??_7type_info@@6B@	; ioDummyWarpMine `RTTI Type Descriptor'
	DD	00H
	DB	'.?AVioDummyWarpMine@@', 00H
_DATA	ENDS
;	COMDAT ??_R4ioDummyWarpMine@@6BioPlayEntity@@@
rdata$r	SEGMENT
??_R4ioDummyWarpMine@@6BioPlayEntity@@@ DD 00H		; ioDummyWarpMine::`RTTI Complete Object Locator'
	DD	00H
	DD	00H
	DD	FLAT:??_R0?AVioDummyWarpMine@@@8
	DD	FLAT:??_R3ioDummyWarpMine@@8
rdata$r	ENDS
;	COMDAT ??_7ioDummyWarpMine@@6BioWorldEventReceiver@@@
CONST	SEGMENT
??_7ioDummyWarpMine@@6BioWorldEventReceiver@@@ DD FLAT:??_R4ioDummyWarpMine@@6BioWorldEventReceiver@@@ ; ioDummyWarpMine::`vftable'
	DD	FLAT:?OnTelepotation@ioDummyChar@@UAEXABUD3DXVECTOR3@@@Z
	DD	FLAT:?OnFireZoneDamage@ioDummyChar@@UAEXMABVioHashString@@@Z
	DD	FLAT:?OnPoisonZoneDamage@ioDummyChar@@UAEXXZ
	DD	FLAT:??_EioDummyWarpMine@@WBMI@AEPAXI@Z
CONST	ENDS
;	COMDAT ??_7ioDummyWarpMine@@6BioPlayEntity@@@
CONST	SEGMENT
??_7ioDummyWarpMine@@6BioPlayEntity@@@ DD FLAT:??_R4ioDummyWarpMine@@6BioPlayEntity@@@ ; ioDummyWarpMine::`vftable'
	DD	FLAT:?AddEntityEvent@ioDummyChar@@UAEXPAVioEntity@@@Z
	DD	FLAT:??_EioDummyWarpMine@@UAEPAXI@Z
	DD	FLAT:?Update@ioDummyChar@@UAEXMKK@Z
	DD	FLAT:?UpdateAfter@ioDummyChar@@UAEXM@Z
	DD	FLAT:?GetTypeID@ioPlayEntity@@UBEHXZ
	DD	FLAT:?IsNeedCheckMapCollision@ioDummyChar@@UBE_NXZ
	DD	FLAT:?IsMountAvailable@ioDummyChar@@UBE_NXZ
	DD	FLAT:?IsMountingAvailable@ioDummyChar@@UBE_NXZ
	DD	FLAT:?IsNowMountEnable@ioDummyChar@@UBE_NXZ
	DD	FLAT:?IsAllWeaponDefence@ioGameEntity@@UBE_NXZ
	DD	FLAT:?HasEntity@ioGameEntity@@UAE_NABVioHashString@@@Z
	DD	FLAT:?AddEntity@ioGameEntity@@UAEPAVioEntity@@ABVioHashString@@@Z
	DD	FLAT:?DestroyEntity@ioGameEntity@@UAE_NABVioHashString@@@Z
	DD	FLAT:?GetEntity@ioGameEntity@@UAEPAVioEntity@@ABVioHashString@@@Z
	DD	FLAT:?UpdateBound@ioGameEntity@@MBEXXZ
	DD	FLAT:?UpdateBottomHeight@ioDummyChar@@MBEXXZ
	DD	FLAT:?NeedUpdateBottomHeight@ioDummyChar@@UAEXXZ
	DD	FLAT:?SetWorldPosition@ioGameEntity@@UAEXABUD3DXVECTOR3@@@Z
	DD	FLAT:?SetWorldOrientation@ioGameEntity@@UAEXABUD3DXQUATERNION@@@Z
	DD	FLAT:?SetWorldScale@ioGameEntity@@UAEXABUD3DXVECTOR3@@@Z
	DD	FLAT:?Translate@ioDummyChar@@UAEXABUD3DXVECTOR3@@@Z
	DD	FLAT:?TranslateByConveyer@ioDummyWarpMine@@UAEXABUD3DXVECTOR3@@@Z
	DD	FLAT:?TranslateByWorldEntity@ioDummyChar@@UAEXABUD3DXVECTOR3@@@Z
	DD	FLAT:?MapCollisionPushingTranslate@ioDummyChar@@UAEXABUD3DXVECTOR3@@@Z
	DD	FLAT:?DontMoveCollisionPushingTranslate@ioGameEntity@@UAEXPAV1@ABUD3DXVECTOR3@@@Z
	DD	FLAT:?Rotate@ioGameEntity@@UAEXABUD3DXVECTOR3@@MW4TransformSpace@ioNode@@@Z
	DD	FLAT:?Scale@ioGameEntity@@UAEXMMM@Z
	DD	FLAT:?Scale@ioGameEntity@@UAEXABUD3DXVECTOR3@@@Z
	DD	FLAT:?GetWorldPosition@ioGameEntity@@UBEABUD3DXVECTOR3@@XZ
	DD	FLAT:?GetWorldOrientation@ioGameEntity@@UBEABUD3DXQUATERNION@@XZ
	DD	FLAT:?GetWorldScale@ioGameEntity@@UBEABUD3DXVECTOR3@@XZ
	DD	FLAT:?ApplyWeapon@ioDummyWarpMine@@UAE?AW4ApplyWeaponExp@@PAVioWeapon@@@Z
	DD	FLAT:?IsCollisionAvailableWeapon@ioDummyChar@@UAE_NPAVioWeapon@@@Z
	DD	FLAT:?IsCollisionAvailableRange@ioPlayEntity@@UAE_NPAVioWeapon@@@Z
	DD	FLAT:?IsEntityCollisionSkipState@ioDummyChar@@UBE_NPAVioGameEntity@@@Z
	DD	FLAT:?IsCharCollisionSkipState@ioDummyChar@@UBE_NW4TeamType@@H@Z
	DD	FLAT:?IsWoundedCollision@ioPlayEntity@@UBE_NABVioOrientBox@@PAUD3DXVECTOR3@@@Z
	DD	FLAT:?GetAttackCollisionBox@ioDummyChar@@UAE?AVioOrientBox@@W4AniCollisionType@@_N@Z
	DD	FLAT:?CheckSphereDistance@ioPlayEntity@@UBE_NABUD3DXVECTOR3@@MAAM@Z
	DD	FLAT:?CheckSpherePoint@ioPlayEntity@@UBE_NABUD3DXVECTOR3@@MAAU2@@Z
	DD	FLAT:?CheckCylinderPoint@ioPlayEntity@@UBE_NABVioCylinder@@ABUD3DXVECTOR3@@AAU3@@Z
	DD	FLAT:?GetSubType@ioDummyChar@@UBE?AW4PlaySubType@ioPlayEntity@@XZ
	DD	FLAT:?GetArmorType@ioDummyChar@@UBE?AW4ArmorType@@XZ
	DD	FLAT:?DontMoveEntityLevel@ioDummyChar@@UBEHXZ
	DD	FLAT:?NotifyDontMoveCollisionPushingSkip@ioPlayEntity@@UAEXPAVioGameEntity@@@Z
	DD	FLAT:?LoadProperty@ioDummyWarpMine@@UAEXAAVioINILoader@@@Z
	DD	FLAT:?GetWorldEventReceiver@ioDummyChar@@UAEPAVioWorldEventReceiver@@XZ
	DD	FLAT:?Revival@ioPlayEntity@@UAEXXZ
	DD	FLAT:?UpdateGauge@ioDummyChar@@UAEXXZ
	DD	FLAT:?RenderGauge@ioDummyChar@@UAEXXZ
	DD	FLAT:?FillMaxHP@ioPlayEntity@@UAEXXZ
	DD	FLAT:?ProcessRecovery@ioPlayEntity@@MAEXXZ
	DD	FLAT:?AddHeadDamageInfo@ioPlayEntity@@UAEXH_N@Z
	DD	FLAT:?RenderHeadInfoList@ioPlayEntity@@UAEXHH@Z
	DD	FLAT:?UpdateHeadInfoList@ioPlayEntity@@MAEXK@Z
	DD	FLAT:?SetTeam@ioPlayEntity@@UAEXW4TeamType@@@Z
	DD	FLAT:?InitDummyCharInfo@ioDummyChar@@UAEXHKABUD3DXVECTOR3@@0M_N@Z
	DD	FLAT:?TestMapCollision@ioDummyChar@@UAE_NPAVioOpcodeShape@@PAVioPlayStage@@PBUD3DXMATRIX@@@Z
	DD	FLAT:?CheckEntityCollision@ioDummyChar@@UAEXPAVioPlayEntity@@@Z
	DD	FLAT:?GetDummyGrassType@ioDummyChar@@UAEHXZ
	DD	FLAT:?IsActivateWeapon@ioDummyWarpMine@@UAE_NXZ
	DD	FLAT:?IsDummyVsDummyCollisionSkipState@ioDummyChar@@UAE_NPBV1@@Z
	DD	FLAT:?ProcessState@ioDummyWarpMine@@MAEXMK@Z
	DD	FLAT:?ProcessPos@ioDummyChar@@MAEXM@Z
	DD	FLAT:?ProcessDelayState@ioDummyChar@@MAEXM@Z
	DD	FLAT:?ProcessMoveState@ioDummyChar@@MAEXM@Z
	DD	FLAT:?ProcessDashState@ioDummyChar@@MAEXM@Z
	DD	FLAT:?ProcessAttackState@ioDummyChar@@MAEXMK@Z
	DD	FLAT:?ApplyDummyCharSync@ioDummyWarpMine@@UAEXPAVioPlayStage@@AAVSP2Packet@@@Z
	DD	FLAT:?SetDelayState@ioDummyChar@@UAEX_N@Z
	DD	FLAT:?SetMoveState@ioDummyChar@@UAEXXZ
	DD	FLAT:?SetDieState@ioDummyChar@@UAEX_N0@Z
	DD	FLAT:?SetDashState@ioDummyChar@@UAEXXZ
	DD	FLAT:?SetAttackState@ioDummyChar@@UAEXXZ
	DD	FLAT:?DropZoneCheck@ioDummyChar@@MAEXXZ
	DD	FLAT:?SendAttackInfoToSkill@ioDummyChar@@MAEXXZ
	DD	FLAT:?CheckCollisionWeapon@ioDummyChar@@UAEXPAVioBaseChar@@@Z
	DD	FLAT:?TranslateMountEntity@ioDummyChar@@MAEXABUD3DXVECTOR3@@@Z
	DD	FLAT:?ClearMountEntity@ioDummyChar@@MAEXXZ
	DD	FLAT:?UpdateMountedEntityList@ioDummyChar@@MAEXXZ
	DD	FLAT:?UpdateMountedWeaponList@ioDummyChar@@MAEXXZ
	DD	FLAT:?SetWorldPositionMountEntity@ioDummyChar@@MAEXM@Z
	DD	FLAT:?DummyDieClearMountEntity@ioDummyChar@@MAEXXZ
	DD	FLAT:?IsDummyCharMidSync@ioDummyChar@@UAE_NXZ
	DD	FLAT:?FillDummyCharMidSync@ioDummyChar@@UAEXPAVioBaseChar@@AAVSP2Packet@@@Z
	DD	FLAT:?ApplyDummyCharMidSync@ioDummyChar@@UAEXPAVioBaseChar@@AAVSP2Packet@@@Z
	DD	FLAT:?GetSkillMaxActiveCnt@ioDummyChar@@UAEHXZ
	DD	FLAT:?GetSkillCurActiveCnt@ioDummyChar@@UAEHXZ
	DD	FLAT:?SetDieState@ioDummyWarpMine@@UAEX_N@Z
CONST	ENDS
;	COMDAT xdata$x
xdata$x	SEGMENT
__unwindtable$??1ioDummyWarpMine@@UAE@XZ DD 0ffffffffH
	DD	FLAT:__unwindfunclet$??1ioDummyWarpMine@@UAE@XZ$0
	DD	00H
	DD	FLAT:__unwindfunclet$??1ioDummyWarpMine@@UAE@XZ$1
	DD	01H
	DD	FLAT:__unwindfunclet$??1ioDummyWarpMine@@UAE@XZ$2
__ehfuncinfo$??1ioDummyWarpMine@@UAE@XZ DD 019930522H
	DD	03H
	DD	FLAT:__unwindtable$??1ioDummyWarpMine@@UAE@XZ
	DD	2 DUP(00H)
	DD	2 DUP(00H)
	DD	00H
	DD	01H
; Function compile flags: /Ogsp
xdata$x	ENDS
;	COMDAT ??1ioDummyWarpMine@@UAE@XZ
_TEXT	SEGMENT
_this$ = -16						; size = 4
__$EHRec$ = -12						; size = 12
??1ioDummyWarpMine@@UAE@XZ PROC				; ioDummyWarpMine::~ioDummyWarpMine, COMDAT
; _this$ = ecx

; 20   : {

  00000	6a 04		 push	 4
  00002	b8 00 00 00 00	 mov	 eax, __ehhandler$??1ioDummyWarpMine@@UAE@XZ
  00007	e8 00 00 00 00	 call	 __EH_prolog3
  0000c	8b f1		 mov	 esi, ecx
  0000e	89 75 f0	 mov	 DWORD PTR _this$[ebp], esi
  00011	c7 06 00 00 00
	00		 mov	 DWORD PTR [esi], OFFSET ??_7ioDummyWarpMine@@6BioPlayEntity@@@
  00017	c7 86 c8 01 00
	00 00 00 00 00	 mov	 DWORD PTR [esi+456], OFFSET ??_7ioDummyWarpMine@@6BioWorldEventReceiver@@@

; 21   : }

  00021	8b 3d 00 00 00
	00		 mov	 edi, DWORD PTR __imp_??1ioHashString@@QAE@XZ
  00027	8d 8e e4 14 00
	00		 lea	 ecx, DWORD PTR [esi+5348]
  0002d	c7 45 fc 02 00
	00 00		 mov	 DWORD PTR __$EHRec$[ebp+8], 2
  00034	ff d7		 call	 edi
  00036	8d 8e d4 14 00
	00		 lea	 ecx, DWORD PTR [esi+5332]
  0003c	c6 45 fc 01	 mov	 BYTE PTR __$EHRec$[ebp+8], 1
  00040	ff d7		 call	 edi
  00042	8d 8e c0 14 00
	00		 lea	 ecx, DWORD PTR [esi+5312]
  00048	c6 45 fc 00	 mov	 BYTE PTR __$EHRec$[ebp+8], 0
  0004c	ff d7		 call	 edi
  0004e	83 4d fc ff	 or	 DWORD PTR __$EHRec$[ebp+8], -1
  00052	8b ce		 mov	 ecx, esi
  00054	e8 00 00 00 00	 call	 ??1ioDummyChar@@UAE@XZ	; ioDummyChar::~ioDummyChar
  00059	e8 00 00 00 00	 call	 __EH_epilog3
  0005e	c3		 ret	 0
_TEXT	ENDS
;	COMDAT text$x
text$x	SEGMENT
__unwindfunclet$??1ioDummyWarpMine@@UAE@XZ$0:
  00000	8b 4d f0	 mov	 ecx, DWORD PTR _this$[ebp]
  00003	e9 00 00 00 00	 jmp	 ??1ioDummyChar@@UAE@XZ	; ioDummyChar::~ioDummyChar
__unwindfunclet$??1ioDummyWarpMine@@UAE@XZ$1:
  00008	8b 4d f0	 mov	 ecx, DWORD PTR _this$[ebp]
  0000b	81 c1 c0 14 00
	00		 add	 ecx, 5312		; 000014c0H
  00011	ff 25 00 00 00
	00		 jmp	 DWORD PTR __imp_??1ioHashString@@QAE@XZ
__unwindfunclet$??1ioDummyWarpMine@@UAE@XZ$2:
  00017	8b 4d f0	 mov	 ecx, DWORD PTR _this$[ebp]
  0001a	81 c1 d4 14 00
	00		 add	 ecx, 5332		; 000014d4H
  00020	ff 25 00 00 00
	00		 jmp	 DWORD PTR __imp_??1ioHashString@@QAE@XZ
__ehhandler$??1ioDummyWarpMine@@UAE@XZ:
  00026	8b 54 24 08	 mov	 edx, DWORD PTR [esp+8]
  0002a	8d 42 0c	 lea	 eax, DWORD PTR [edx+12]
  0002d	8b 4a ec	 mov	 ecx, DWORD PTR [edx-20]
  00030	33 c8		 xor	 ecx, eax
  00032	e8 00 00 00 00	 call	 @__security_check_cookie@4
  00037	b8 00 00 00 00	 mov	 eax, OFFSET __ehfuncinfo$??1ioDummyWarpMine@@UAE@XZ
  0003c	e9 00 00 00 00	 jmp	 ___CxxFrameHandler3
text$x	ENDS
??1ioDummyWarpMine@@UAE@XZ ENDP				; ioDummyWarpMine::~ioDummyWarpMine
EXTRN	??5SP2Packet@@QAEAAV0@AAH@Z:PROC		; SP2Packet::operator>>
; Function compile flags: /Ogsp
;	COMDAT ?ApplyDummyCharSync@ioDummyWarpMine@@UAEXPAVioPlayStage@@AAVSP2Packet@@@Z
_TEXT	SEGMENT
_iType$ = 8						; size = 4
_pStage$ = 8						; size = 4
_rkPacket$ = 12						; size = 4
?ApplyDummyCharSync@ioDummyWarpMine@@UAEXPAVioPlayStage@@AAVSP2Packet@@@Z PROC ; ioDummyWarpMine::ApplyDummyCharSync, COMDAT
; _this$ = ecx

; 240  : {

  00000	55		 push	 ebp
  00001	8b ec		 mov	 ebp, esp

; 241  : 	if( !pStage ) return;	

  00003	83 7d 08 00	 cmp	 DWORD PTR _pStage$[ebp], 0
  00007	74 0c		 je	 SHORT $LN2@ApplyDummy

; 242  : 	
; 243  : 	int iType;
; 244  : 	rkPacket >> iType;

  00009	8b 4d 0c	 mov	 ecx, DWORD PTR _rkPacket$[ebp]
  0000c	8d 45 08	 lea	 eax, DWORD PTR _iType$[ebp]
  0000f	50		 push	 eax
  00010	e8 00 00 00 00	 call	 ??5SP2Packet@@QAEAAV0@AAH@Z ; SP2Packet::operator>>
$LN2@ApplyDummy:

; 245  : 	
; 246  : }

  00015	5d		 pop	 ebp
  00016	c2 08 00	 ret	 8
?ApplyDummyCharSync@ioDummyWarpMine@@UAEXPAVioPlayStage@@AAVSP2Packet@@@Z ENDP ; ioDummyWarpMine::ApplyDummyCharSync
; Function compile flags: /Ogsp
_TEXT	ENDS
;	COMDAT ?TranslateByConveyer@ioDummyWarpMine@@UAEXABUD3DXVECTOR3@@@Z
_TEXT	SEGMENT
_vMove$ = 8						; size = 4
?TranslateByConveyer@ioDummyWarpMine@@UAEXABUD3DXVECTOR3@@@Z PROC ; ioDummyWarpMine::TranslateByConveyer, COMDAT
; _this$ = ecx

; 250  : }

  00000	c2 04 00	 ret	 4
?TranslateByConveyer@ioDummyWarpMine@@UAEXABUD3DXVECTOR3@@@Z ENDP ; ioDummyWarpMine::TranslateByConveyer
_TEXT	ENDS
EXTRN	__imp_?PlaySoundA@ioSoundManager@@QAEKABVioHashString@@HK@Z:PROC
EXTRN	__imp_?GetSingleton@ioSoundManager@@SAAAV1@XZ:PROC
EXTRN	__imp_?IsEmpty@ioHashString@@QBE_NXZ:PROC
; Function compile flags: /Ogsp
;	COMDAT ?SetDieState@ioDummyWarpMine@@UAEX_N@Z
_TEXT	SEGMENT
_bEffect$ = 8						; size = 1
?SetDieState@ioDummyWarpMine@@UAEX_N@Z PROC		; ioDummyWarpMine::SetDieState, COMDAT
; _this$ = ecx

; 254  : {

  00000	55		 push	 ebp
  00001	8b ec		 mov	 ebp, esp
  00003	56		 push	 esi
  00004	57		 push	 edi
  00005	8b f9		 mov	 edi, ecx

; 255  : 	if ( !m_szExplosionSound.IsEmpty() )

  00007	8d b7 c0 14 00
	00		 lea	 esi, DWORD PTR [edi+5312]
  0000d	8b ce		 mov	 ecx, esi
  0000f	ff 15 00 00 00
	00		 call	 DWORD PTR __imp_?IsEmpty@ioHashString@@QBE_NXZ
  00015	84 c0		 test	 al, al
  00017	75 13		 jne	 SHORT $LN1@SetDieStat

; 256  : 		g_SoundMgr.PlaySound( m_szExplosionSound );

  00019	6a 04		 push	 4
  0001b	6a 00		 push	 0
  0001d	56		 push	 esi
  0001e	ff 15 00 00 00
	00		 call	 DWORD PTR __imp_?GetSingleton@ioSoundManager@@SAAAV1@XZ
  00024	8b c8		 mov	 ecx, eax
  00026	ff 15 00 00 00
	00		 call	 DWORD PTR __imp_?PlaySoundA@ioSoundManager@@QAEKABVioHashString@@HK@Z
$LN1@SetDieStat:

; 257  : 
; 258  : 	ioDummyChar::SetDieState( bEffect );

  0002c	6a 00		 push	 0
  0002e	ff 75 08	 push	 DWORD PTR _bEffect$[ebp]
  00031	8b cf		 mov	 ecx, edi
  00033	e8 00 00 00 00	 call	 ?SetDieState@ioDummyChar@@UAEX_N0@Z ; ioDummyChar::SetDieState
  00038	5f		 pop	 edi
  00039	5e		 pop	 esi

; 259  : }

  0003a	5d		 pop	 ebp
  0003b	c2 04 00	 ret	 4
?SetDieState@ioDummyWarpMine@@UAEX_N@Z ENDP		; ioDummyWarpMine::SetDieState
; Function compile flags: /Ogsp
_TEXT	ENDS
;	COMDAT ?IsActivateWeapon@ioDummyWarpMine@@UAE_NXZ
_TEXT	SEGMENT
?IsActivateWeapon@ioDummyWarpMine@@UAE_NXZ PROC		; ioDummyWarpMine::IsActivateWeapon, COMDAT
; _this$ = ecx

; 263  : 	if( m_MineState == DMS_START )

  00000	83 b9 80 14 00
	00 00		 cmp	 DWORD PTR [ecx+5248], 0
  00007	0f 95 c0	 setne	 al

; 264  : 		return false;
; 265  : 
; 266  : 	return true;
; 267  : }

  0000a	c3		 ret	 0
?IsActivateWeapon@ioDummyWarpMine@@UAE_NXZ ENDP		; ioDummyWarpMine::IsActivateWeapon
_TEXT	ENDS
PUBLIC	??1FireTime@@QAE@XZ				; FireTime::~FireTime
;	COMDAT xdata$x
xdata$x	SEGMENT
__unwindtable$??1FireTime@@QAE@XZ DD 0ffffffffH
	DD	FLAT:__unwindfunclet$??1FireTime@@QAE@XZ$0
	DD	00H
	DD	FLAT:__unwindfunclet$??1FireTime@@QAE@XZ$1
__ehfuncinfo$??1FireTime@@QAE@XZ DD 019930522H
	DD	02H
	DD	FLAT:__unwindtable$??1FireTime@@QAE@XZ
	DD	2 DUP(00H)
	DD	2 DUP(00H)
	DD	00H
	DD	01H
; Function compile flags: /Ogsp
xdata$x	ENDS
;	COMDAT ??1FireTime@@QAE@XZ
_TEXT	SEGMENT
_this$ = -16						; size = 4
__$EHRec$ = -12						; size = 12
??1FireTime@@QAE@XZ PROC				; FireTime::~FireTime, COMDAT
; _this$ = ecx
  00000	6a 04		 push	 4
  00002	b8 00 00 00 00	 mov	 eax, __ehhandler$??1FireTime@@QAE@XZ
  00007	e8 00 00 00 00	 call	 __EH_prolog3
  0000c	8b f9		 mov	 edi, ecx
  0000e	89 7d f0	 mov	 DWORD PTR _this$[ebp], edi
  00011	8b 35 00 00 00
	00		 mov	 esi, DWORD PTR __imp_??1ioHashString@@QAE@XZ
  00017	8d 4f 44	 lea	 ecx, DWORD PTR [edi+68]
  0001a	c7 45 fc 01 00
	00 00		 mov	 DWORD PTR __$EHRec$[ebp+8], 1
  00021	ff d6		 call	 esi
  00023	8d 4f 30	 lea	 ecx, DWORD PTR [edi+48]
  00026	c6 45 fc 00	 mov	 BYTE PTR __$EHRec$[ebp+8], 0
  0002a	ff d6		 call	 esi
  0002c	83 4d fc ff	 or	 DWORD PTR __$EHRec$[ebp+8], -1
  00030	8d 4f 14	 lea	 ecx, DWORD PTR [edi+20]
  00033	ff d6		 call	 esi
  00035	e8 00 00 00 00	 call	 __EH_epilog3
  0003a	c3		 ret	 0
_TEXT	ENDS
;	COMDAT text$x
text$x	SEGMENT
__unwindfunclet$??1FireTime@@QAE@XZ$0:
  00000	8b 4d f0	 mov	 ecx, DWORD PTR _this$[ebp]
  00003	83 c1 14	 add	 ecx, 20			; 00000014H
  00006	ff 25 00 00 00
	00		 jmp	 DWORD PTR __imp_??1ioHashString@@QAE@XZ
__unwindfunclet$??1FireTime@@QAE@XZ$1:
  0000c	8b 4d f0	 mov	 ecx, DWORD PTR _this$[ebp]
  0000f	83 c1 30	 add	 ecx, 48			; 00000030H
  00012	ff 25 00 00 00
	00		 jmp	 DWORD PTR __imp_??1ioHashString@@QAE@XZ
__ehhandler$??1FireTime@@QAE@XZ:
  00018	8b 54 24 08	 mov	 edx, DWORD PTR [esp+8]
  0001c	8d 42 0c	 lea	 eax, DWORD PTR [edx+12]
  0001f	8b 4a ec	 mov	 ecx, DWORD PTR [edx-20]
  00022	33 c8		 xor	 ecx, eax
  00024	e8 00 00 00 00	 call	 @__security_check_cookie@4
  00029	b8 00 00 00 00	 mov	 eax, OFFSET __ehfuncinfo$??1FireTime@@QAE@XZ
  0002e	e9 00 00 00 00	 jmp	 ___CxxFrameHandler3
text$x	ENDS
??1FireTime@@QAE@XZ ENDP				; FireTime::~FireTime
PUBLIC	?SetExplosionState@ioDummyWarpMine@@QAEXXZ	; ioDummyWarpMine::SetExplosionState
; Function compile flags: /Ogsp
;	COMDAT ?SetExplosionState@ioDummyWarpMine@@QAEXXZ
_TEXT	SEGMENT
?SetExplosionState@ioDummyWarpMine@@QAEXXZ PROC		; ioDummyWarpMine::SetExplosionState, COMDAT
; _this$ = ecx

; 420  : 	m_MineState = DMS_EXPLOSION;

  00000	c7 81 80 14 00
	00 02 00 00 00	 mov	 DWORD PTR [ecx+5248], 2

; 421  : }

  0000a	c3		 ret	 0
?SetExplosionState@ioDummyWarpMine@@QAEXXZ ENDP		; ioDummyWarpMine::SetExplosionState
_TEXT	ENDS
PUBLIC	?size@?$vector@PAVioBaseChar@@V?$allocator@PAVioBaseChar@@@std@@@std@@QBEIXZ ; std::vector<ioBaseChar *,std::allocator<ioBaseChar *> >::size
; Function compile flags: /Ogsp
; File c:\program files (x86)\microsoft visual studio 10.0\vc\include\vector
;	COMDAT ?size@?$vector@PAVioBaseChar@@V?$allocator@PAVioBaseChar@@@std@@@std@@QBEIXZ
_TEXT	SEGMENT
?size@?$vector@PAVioBaseChar@@V?$allocator@PAVioBaseChar@@@std@@@std@@QBEIXZ PROC ; std::vector<ioBaseChar *,std::allocator<ioBaseChar *> >::size, COMDAT
; _this$ = ecx

; 879  : 		return (this->_Mylast - this->_Myfirst);

  00000	8b 41 04	 mov	 eax, DWORD PTR [ecx+4]
  00003	2b 01		 sub	 eax, DWORD PTR [ecx]
  00005	c1 f8 02	 sar	 eax, 2

; 880  : 		}

  00008	c3		 ret	 0
?size@?$vector@PAVioBaseChar@@V?$allocator@PAVioBaseChar@@@std@@@std@@QBEIXZ ENDP ; std::vector<ioBaseChar *,std::allocator<ioBaseChar *> >::size
_TEXT	ENDS
PUBLIC	?empty@?$vector@PAVioBaseChar@@V?$allocator@PAVioBaseChar@@@std@@@std@@QBE_NXZ ; std::vector<ioBaseChar *,std::allocator<ioBaseChar *> >::empty
; Function compile flags: /Ogsp
;	COMDAT ?empty@?$vector@PAVioBaseChar@@V?$allocator@PAVioBaseChar@@@std@@@std@@QBE_NXZ
_TEXT	SEGMENT
?empty@?$vector@PAVioBaseChar@@V?$allocator@PAVioBaseChar@@@std@@@std@@QBE_NXZ PROC ; std::vector<ioBaseChar *,std::allocator<ioBaseChar *> >::empty, COMDAT
; _this$ = ecx

; 889  : 		return (this->_Myfirst == this->_Mylast);

  00000	8b 01		 mov	 eax, DWORD PTR [ecx]
  00002	2b 41 04	 sub	 eax, DWORD PTR [ecx+4]
  00005	f7 d8		 neg	 eax
  00007	1b c0		 sbb	 eax, eax
  00009	40		 inc	 eax

; 890  : 		}

  0000a	c3		 ret	 0
?empty@?$vector@PAVioBaseChar@@V?$allocator@PAVioBaseChar@@@std@@@std@@QBE_NXZ ENDP ; std::vector<ioBaseChar *,std::allocator<ioBaseChar *> >::empty
_TEXT	ENDS
PUBLIC	??A?$vector@PAVioBaseChar@@V?$allocator@PAVioBaseChar@@@std@@@std@@QAEAAPAVioBaseChar@@I@Z ; std::vector<ioBaseChar *,std::allocator<ioBaseChar *> >::operator[]
; Function compile flags: /Ogsp
;	COMDAT ??A?$vector@PAVioBaseChar@@V?$allocator@PAVioBaseChar@@@std@@@std@@QAEAAPAVioBaseChar@@I@Z
_TEXT	SEGMENT
__Pos$ = 8						; size = 4
??A?$vector@PAVioBaseChar@@V?$allocator@PAVioBaseChar@@@std@@@std@@QAEAAPAVioBaseChar@@I@Z PROC ; std::vector<ioBaseChar *,std::allocator<ioBaseChar *> >::operator[], COMDAT
; _this$ = ecx

; 928  : 		{	// subscript mutable sequence

  00000	55		 push	 ebp
  00001	8b ec		 mov	 ebp, esp

; 929  :  #if _ITERATOR_DEBUG_LEVEL == 2
; 930  : 		if (size() <= _Pos)
; 931  : 			{	// report error
; 932  : 			_DEBUG_ERROR("vector subscript out of range");
; 933  : 			_SCL_SECURE_OUT_OF_RANGE;
; 934  : 			}
; 935  : 
; 936  :  #elif _ITERATOR_DEBUG_LEVEL == 1
; 937  : 		_SCL_SECURE_VALIDATE_RANGE(_Pos < size());
; 938  :  #endif /* _ITERATOR_DEBUG_LEVEL */
; 939  : 
; 940  : 		return (*(this->_Myfirst + _Pos));

  00003	8b 01		 mov	 eax, DWORD PTR [ecx]
  00005	8b 4d 08	 mov	 ecx, DWORD PTR __Pos$[ebp]
  00008	8d 04 88	 lea	 eax, DWORD PTR [eax+ecx*4]

; 941  : 		}

  0000b	5d		 pop	 ebp
  0000c	c2 04 00	 ret	 4
??A?$vector@PAVioBaseChar@@V?$allocator@PAVioBaseChar@@@std@@@std@@QAEAAPAVioBaseChar@@I@Z ENDP ; std::vector<ioBaseChar *,std::allocator<ioBaseChar *> >::operator[]
_TEXT	ENDS
PUBLIC	??0?$_Vector_const_iterator@V?$_Vector_val@PAVioBaseChar@@V?$allocator@PAVioBaseChar@@@std@@@std@@@std@@QAE@XZ ; std::_Vector_const_iterator<std::_Vector_val<ioBaseChar *,std::allocator<ioBaseChar *> > >::_Vector_const_iterator<std::_Vector_val<ioBaseChar *,std::allocator<ioBaseChar *> > >
; Function compile flags: /Ogsp
;	COMDAT ??0?$_Vector_const_iterator@V?$_Vector_val@PAVioBaseChar@@V?$allocator@PAVioBaseChar@@@std@@@std@@@std@@QAE@XZ
_TEXT	SEGMENT
??0?$_Vector_const_iterator@V?$_Vector_val@PAVioBaseChar@@V?$allocator@PAVioBaseChar@@@std@@@std@@@std@@QAE@XZ PROC ; std::_Vector_const_iterator<std::_Vector_val<ioBaseChar *,std::allocator<ioBaseChar *> > >::_Vector_const_iterator<std::_Vector_val<ioBaseChar *,std::allocator<ioBaseChar *> > >, COMDAT
; _this$ = ecx

; 40   : 		{	// construct with null pointer

  00000	8b c1		 mov	 eax, ecx
  00002	83 20 00	 and	 DWORD PTR [eax], 0

; 41   : 		}

  00005	c3		 ret	 0
??0?$_Vector_const_iterator@V?$_Vector_val@PAVioBaseChar@@V?$allocator@PAVioBaseChar@@@std@@@std@@@std@@QAE@XZ ENDP ; std::_Vector_const_iterator<std::_Vector_val<ioBaseChar *,std::allocator<ioBaseChar *> > >::_Vector_const_iterator<std::_Vector_val<ioBaseChar *,std::allocator<ioBaseChar *> > >
_TEXT	ENDS
PUBLIC	??D?$_Vector_const_iterator@V?$_Vector_val@PAVioBaseChar@@V?$allocator@PAVioBaseChar@@@std@@@std@@@std@@QBEABQAVioBaseChar@@XZ ; std::_Vector_const_iterator<std::_Vector_val<ioBaseChar *,std::allocator<ioBaseChar *> > >::operator*
; Function compile flags: /Ogsp
;	COMDAT ??D?$_Vector_const_iterator@V?$_Vector_val@PAVioBaseChar@@V?$allocator@PAVioBaseChar@@@std@@@std@@@std@@QBEABQAVioBaseChar@@XZ
_TEXT	SEGMENT
??D?$_Vector_const_iterator@V?$_Vector_val@PAVioBaseChar@@V?$allocator@PAVioBaseChar@@@std@@@std@@@std@@QBEABQAVioBaseChar@@XZ PROC ; std::_Vector_const_iterator<std::_Vector_val<ioBaseChar *,std::allocator<ioBaseChar *> > >::operator*, COMDAT
; _this$ = ecx

; 64   :  #if _ITERATOR_DEBUG_LEVEL == 2
; 65   : 		if (this->_Getcont() == 0
; 66   : 			|| this->_Ptr == 0
; 67   : 			|| this->_Ptr < ((_Myvec *)this->_Getcont())->_Myfirst
; 68   : 			|| ((_Myvec *)this->_Getcont())->_Mylast <= this->_Ptr)
; 69   : 			{	// report error
; 70   : 			_DEBUG_ERROR("vector iterator not dereferencable");
; 71   : 			_SCL_SECURE_OUT_OF_RANGE;
; 72   : 			}
; 73   : 
; 74   :  #elif _ITERATOR_DEBUG_LEVEL == 1
; 75   : 		_SCL_SECURE_VALIDATE(this->_Getcont() != 0);
; 76   : 		_SCL_SECURE_VALIDATE_RANGE(
; 77   : 			this->_Ptr != 0
; 78   : 			&& ((_Myvec *)this->_Getcont())->_Myfirst <= this->_Ptr
; 79   : 			&& this->_Ptr < ((_Myvec *)this->_Getcont())->_Mylast);
; 80   :  #endif /* _ITERATOR_DEBUG_LEVEL */
; 81   : 
; 82   : 		__analysis_assume(this->_Ptr != 0);
; 83   : 
; 84   : 		return (*this->_Ptr);

  00000	8b 01		 mov	 eax, DWORD PTR [ecx]

; 85   : 		}

  00002	c3		 ret	 0
??D?$_Vector_const_iterator@V?$_Vector_val@PAVioBaseChar@@V?$allocator@PAVioBaseChar@@@std@@@std@@@std@@QBEABQAVioBaseChar@@XZ ENDP ; std::_Vector_const_iterator<std::_Vector_val<ioBaseChar *,std::allocator<ioBaseChar *> > >::operator*
_TEXT	ENDS
PUBLIC	??E?$_Vector_const_iterator@V?$_Vector_val@PAVioBaseChar@@V?$allocator@PAVioBaseChar@@@std@@@std@@@std@@QAEAAV01@XZ ; std::_Vector_const_iterator<std::_Vector_val<ioBaseChar *,std::allocator<ioBaseChar *> > >::operator++
; Function compile flags: /Ogsp
;	COMDAT ??E?$_Vector_const_iterator@V?$_Vector_val@PAVioBaseChar@@V?$allocator@PAVioBaseChar@@@std@@@std@@@std@@QAEAAV01@XZ
_TEXT	SEGMENT
??E?$_Vector_const_iterator@V?$_Vector_val@PAVioBaseChar@@V?$allocator@PAVioBaseChar@@@std@@@std@@@std@@QAEAAV01@XZ PROC ; std::_Vector_const_iterator<std::_Vector_val<ioBaseChar *,std::allocator<ioBaseChar *> > >::operator++, COMDAT
; _this$ = ecx

; 93   : 		{	// preincrement

  00000	8b c1		 mov	 eax, ecx

; 94   :  #if _ITERATOR_DEBUG_LEVEL == 2
; 95   : 		if (this->_Getcont() == 0
; 96   : 			|| this->_Ptr == 0
; 97   : 			|| ((_Myvec *)this->_Getcont())->_Mylast <= this->_Ptr)
; 98   : 			{	// report error
; 99   : 			_DEBUG_ERROR("vector iterator not incrementable");
; 100  : 			_SCL_SECURE_OUT_OF_RANGE;
; 101  : 			}
; 102  : 
; 103  :  #elif _ITERATOR_DEBUG_LEVEL == 1
; 104  : 		_SCL_SECURE_VALIDATE(this->_Getcont() != 0);
; 105  : 		_SCL_SECURE_VALIDATE_RANGE(
; 106  : 			this->_Ptr != 0
; 107  : 			&& this->_Ptr < ((_Myvec *)this->_Getcont())->_Mylast);
; 108  :  #endif /* _ITERATOR_DEBUG_LEVEL */
; 109  : 
; 110  : 		++this->_Ptr;

  00002	83 00 04	 add	 DWORD PTR [eax], 4

; 111  : 		return (*this);
; 112  : 		}

  00005	c3		 ret	 0
??E?$_Vector_const_iterator@V?$_Vector_val@PAVioBaseChar@@V?$allocator@PAVioBaseChar@@@std@@@std@@@std@@QAEAAV01@XZ ENDP ; std::_Vector_const_iterator<std::_Vector_val<ioBaseChar *,std::allocator<ioBaseChar *> > >::operator++
_TEXT	ENDS
PUBLIC	?_Inside@?$vector@PAVioBaseChar@@V?$allocator@PAVioBaseChar@@@std@@@std@@IBE_NPBQAVioBaseChar@@@Z ; std::vector<ioBaseChar *,std::allocator<ioBaseChar *> >::_Inside
; Function compile flags: /Ogsp
;	COMDAT ?_Inside@?$vector@PAVioBaseChar@@V?$allocator@PAVioBaseChar@@@std@@@std@@IBE_NPBQAVioBaseChar@@@Z
_TEXT	SEGMENT
__Ptr$ = 8						; size = 4
?_Inside@?$vector@PAVioBaseChar@@V?$allocator@PAVioBaseChar@@@std@@@std@@IBE_NPBQAVioBaseChar@@@Z PROC ; std::vector<ioBaseChar *,std::allocator<ioBaseChar *> >::_Inside, COMDAT
; _this$ = ecx

; 1285 : 		{	// test if _Ptr points inside vector

  00000	55		 push	 ebp
  00001	8b ec		 mov	 ebp, esp

; 1286 : 		return (_Ptr < this->_Mylast && this->_Myfirst <= _Ptr);

  00003	8b 45 08	 mov	 eax, DWORD PTR __Ptr$[ebp]
  00006	3b 41 04	 cmp	 eax, DWORD PTR [ecx+4]
  00009	73 09		 jae	 SHORT $LN3@Inside
  0000b	39 01		 cmp	 DWORD PTR [ecx], eax
  0000d	77 05		 ja	 SHORT $LN3@Inside
  0000f	33 c0		 xor	 eax, eax
  00011	40		 inc	 eax
  00012	eb 02		 jmp	 SHORT $LN4@Inside
$LN3@Inside:
  00014	33 c0		 xor	 eax, eax
$LN4@Inside:

; 1287 : 		}

  00016	5d		 pop	 ebp
  00017	c2 04 00	 ret	 4
?_Inside@?$vector@PAVioBaseChar@@V?$allocator@PAVioBaseChar@@@std@@@std@@IBE_NPBQAVioBaseChar@@@Z ENDP ; std::vector<ioBaseChar *,std::allocator<ioBaseChar *> >::_Inside
_TEXT	ENDS
PUBLIC	?_Orphan_range@?$vector@PAVioBaseChar@@V?$allocator@PAVioBaseChar@@@std@@@std@@IBEXPAPAVioBaseChar@@0@Z ; std::vector<ioBaseChar *,std::allocator<ioBaseChar *> >::_Orphan_range
; Function compile flags: /Ogsp
;	COMDAT ?_Orphan_range@?$vector@PAVioBaseChar@@V?$allocator@PAVioBaseChar@@@std@@@std@@IBEXPAPAVioBaseChar@@0@Z
_TEXT	SEGMENT
___formal$ = 8						; size = 4
___formal$ = 12						; size = 4
?_Orphan_range@?$vector@PAVioBaseChar@@V?$allocator@PAVioBaseChar@@@std@@@std@@IBEXPAPAVioBaseChar@@0@Z PROC ; std::vector<ioBaseChar *,std::allocator<ioBaseChar *> >::_Orphan_range, COMDAT
; _this$ = ecx

; 1454 : 		}

  00000	c2 08 00	 ret	 8
?_Orphan_range@?$vector@PAVioBaseChar@@V?$allocator@PAVioBaseChar@@@std@@@std@@IBEXPAPAVioBaseChar@@0@Z ENDP ; std::vector<ioBaseChar *,std::allocator<ioBaseChar *> >::_Orphan_range
_TEXT	ENDS
PUBLIC	??1?$_Vector_val@PAVioBaseChar@@V?$allocator@PAVioBaseChar@@@std@@@std@@QAE@XZ ; std::_Vector_val<ioBaseChar *,std::allocator<ioBaseChar *> >::~_Vector_val<ioBaseChar *,std::allocator<ioBaseChar *> >
; Function compile flags: /Ogsp
;	COMDAT ??1?$_Vector_val@PAVioBaseChar@@V?$allocator@PAVioBaseChar@@@std@@@std@@QAE@XZ
_TEXT	SEGMENT
??1?$_Vector_val@PAVioBaseChar@@V?$allocator@PAVioBaseChar@@@std@@@std@@QAE@XZ PROC ; std::_Vector_val<ioBaseChar *,std::allocator<ioBaseChar *> >::~_Vector_val<ioBaseChar *,std::allocator<ioBaseChar *> >, COMDAT
; _this$ = ecx

; 434  : 		}

  00000	c3		 ret	 0
??1?$_Vector_val@PAVioBaseChar@@V?$allocator@PAVioBaseChar@@@std@@@std@@QAE@XZ ENDP ; std::_Vector_val<ioBaseChar *,std::allocator<ioBaseChar *> >::~_Vector_val<ioBaseChar *,std::allocator<ioBaseChar *> >
_TEXT	ENDS
PUBLIC	??0?$allocator@PAVioBaseChar@@@std@@QAE@XZ	; std::allocator<ioBaseChar *>::allocator<ioBaseChar *>
; Function compile flags: /Ogsp
; File c:\program files (x86)\microsoft visual studio 10.0\vc\include\xmemory
;	COMDAT ??0?$allocator@PAVioBaseChar@@@std@@QAE@XZ
_TEXT	SEGMENT
??0?$allocator@PAVioBaseChar@@@std@@QAE@XZ PROC		; std::allocator<ioBaseChar *>::allocator<ioBaseChar *>, COMDAT
; _this$ = ecx

; 161  : 	_ALLOCATOR() _THROW0()

  00000	8b c1		 mov	 eax, ecx

; 162  : 		{	// construct default allocator (do nothing)
; 163  : 		}

  00002	c3		 ret	 0
??0?$allocator@PAVioBaseChar@@@std@@QAE@XZ ENDP		; std::allocator<ioBaseChar *>::allocator<ioBaseChar *>
_TEXT	ENDS
PUBLIC	??0?$_Vector_const_iterator@V?$_Vector_val@PAVioBaseChar@@V?$allocator@PAVioBaseChar@@@std@@@std@@@std@@QAE@PAPAVioBaseChar@@PBU_Container_base0@1@@Z ; std::_Vector_const_iterator<std::_Vector_val<ioBaseChar *,std::allocator<ioBaseChar *> > >::_Vector_const_iterator<std::_Vector_val<ioBaseChar *,std::allocator<ioBaseChar *> > >
; Function compile flags: /Ogsp
; File c:\program files (x86)\microsoft visual studio 10.0\vc\include\vector
;	COMDAT ??0?$_Vector_const_iterator@V?$_Vector_val@PAVioBaseChar@@V?$allocator@PAVioBaseChar@@@std@@@std@@@std@@QAE@PAPAVioBaseChar@@PBU_Container_base0@1@@Z
_TEXT	SEGMENT
__Parg$ = 8						; size = 4
__Pvector$ = 12						; size = 4
??0?$_Vector_const_iterator@V?$_Vector_val@PAVioBaseChar@@V?$allocator@PAVioBaseChar@@@std@@@std@@@std@@QAE@PAPAVioBaseChar@@PBU_Container_base0@1@@Z PROC ; std::_Vector_const_iterator<std::_Vector_val<ioBaseChar *,std::allocator<ioBaseChar *> > >::_Vector_const_iterator<std::_Vector_val<ioBaseChar *,std::allocator<ioBaseChar *> > >, COMDAT
; _this$ = ecx

; 45   : 		{	// construct with pointer _Parg

  00000	55		 push	 ebp
  00001	8b ec		 mov	 ebp, esp
  00003	8b c1		 mov	 eax, ecx
  00005	8b 4d 08	 mov	 ecx, DWORD PTR __Parg$[ebp]
  00008	89 08		 mov	 DWORD PTR [eax], ecx

; 46   : 		this->_Adopt(_Pvector);
; 47   : 		}

  0000a	5d		 pop	 ebp
  0000b	c2 08 00	 ret	 8
??0?$_Vector_const_iterator@V?$_Vector_val@PAVioBaseChar@@V?$allocator@PAVioBaseChar@@@std@@@std@@@std@@QAE@PAPAVioBaseChar@@PBU_Container_base0@1@@Z ENDP ; std::_Vector_const_iterator<std::_Vector_val<ioBaseChar *,std::allocator<ioBaseChar *> > >::_Vector_const_iterator<std::_Vector_val<ioBaseChar *,std::allocator<ioBaseChar *> > >
_TEXT	ENDS
PUBLIC	?capacity@?$vector@PAVioBaseChar@@V?$allocator@PAVioBaseChar@@@std@@@std@@QBEIXZ ; std::vector<ioBaseChar *,std::allocator<ioBaseChar *> >::capacity
; Function compile flags: /Ogsp
;	COMDAT ?capacity@?$vector@PAVioBaseChar@@V?$allocator@PAVioBaseChar@@@std@@@std@@QBEIXZ
_TEXT	SEGMENT
?capacity@?$vector@PAVioBaseChar@@V?$allocator@PAVioBaseChar@@@std@@@std@@QBEIXZ PROC ; std::vector<ioBaseChar *,std::allocator<ioBaseChar *> >::capacity, COMDAT
; _this$ = ecx

; 777  : 		return (this->_Myend - this->_Myfirst);

  00000	8b 41 08	 mov	 eax, DWORD PTR [ecx+8]
  00003	2b 01		 sub	 eax, DWORD PTR [ecx]
  00005	c1 f8 02	 sar	 eax, 2

; 778  : 		}

  00008	c3		 ret	 0
?capacity@?$vector@PAVioBaseChar@@V?$allocator@PAVioBaseChar@@@std@@@std@@QBEIXZ ENDP ; std::vector<ioBaseChar *,std::allocator<ioBaseChar *> >::capacity
_TEXT	ENDS
PUBLIC	??_C@_0BD@OLBABOEK@vector?$DMT?$DO?5too?5long?$AA@ ; `string'
PUBLIC	?_Xlen@?$vector@PAVioBaseChar@@V?$allocator@PAVioBaseChar@@@std@@@std@@IBEXXZ ; std::vector<ioBaseChar *,std::allocator<ioBaseChar *> >::_Xlen
EXTRN	__imp_?_Xlength_error@std@@YAXPBD@Z:PROC
;	COMDAT ??_C@_0BD@OLBABOEK@vector?$DMT?$DO?5too?5long?$AA@
CONST	SEGMENT
??_C@_0BD@OLBABOEK@vector?$DMT?$DO?5too?5long?$AA@ DB 'vector<T> too long'
	DB	00H						; `string'
; Function compile flags: /Ogsp
CONST	ENDS
;	COMDAT ?_Xlen@?$vector@PAVioBaseChar@@V?$allocator@PAVioBaseChar@@@std@@@std@@IBEXXZ
_TEXT	SEGMENT
?_Xlen@?$vector@PAVioBaseChar@@V?$allocator@PAVioBaseChar@@@std@@@std@@IBEXXZ PROC ; std::vector<ioBaseChar *,std::allocator<ioBaseChar *> >::_Xlen, COMDAT
; _this$ = ecx

; 1427 : 		_Xlength_error("vector<T> too long");

  00000	68 00 00 00 00	 push	 OFFSET ??_C@_0BD@OLBABOEK@vector?$DMT?$DO?5too?5long?$AA@
  00005	ff 15 00 00 00
	00		 call	 DWORD PTR __imp_?_Xlength_error@std@@YAXPBD@Z
$LN4@Xlen:
$LN3@Xlen:
  0000b	cc		 int	 3
?_Xlen@?$vector@PAVioBaseChar@@V?$allocator@PAVioBaseChar@@@std@@@std@@IBEXXZ ENDP ; std::vector<ioBaseChar *,std::allocator<ioBaseChar *> >::_Xlen
_TEXT	ENDS
PUBLIC	??0?$allocator@PAVioBaseChar@@@std@@QAE@ABV01@@Z ; std::allocator<ioBaseChar *>::allocator<ioBaseChar *>
; Function compile flags: /Ogsp
; File c:\program files (x86)\microsoft visual studio 10.0\vc\include\xmemory
;	COMDAT ??0?$allocator@PAVioBaseChar@@@std@@QAE@ABV01@@Z
_TEXT	SEGMENT
___formal$ = 8						; size = 4
??0?$allocator@PAVioBaseChar@@@std@@QAE@ABV01@@Z PROC	; std::allocator<ioBaseChar *>::allocator<ioBaseChar *>, COMDAT
; _this$ = ecx

; 165  : 	_ALLOCATOR(const _ALLOCATOR<_Ty>&) _THROW0()

  00000	8b c1		 mov	 eax, ecx

; 166  : 		{	// construct by copying (do nothing)
; 167  : 		}

  00002	c2 04 00	 ret	 4
??0?$allocator@PAVioBaseChar@@@std@@QAE@ABV01@@Z ENDP	; std::allocator<ioBaseChar *>::allocator<ioBaseChar *>
_TEXT	ENDS
PUBLIC	?deallocate@?$allocator@PAVioBaseChar@@@std@@QAEXPAPAVioBaseChar@@I@Z ; std::allocator<ioBaseChar *>::deallocate
; Function compile flags: /Ogsp
;	COMDAT ?deallocate@?$allocator@PAVioBaseChar@@@std@@QAEXPAPAVioBaseChar@@I@Z
_TEXT	SEGMENT
__Ptr$ = 8						; size = 4
___formal$ = 12						; size = 4
?deallocate@?$allocator@PAVioBaseChar@@@std@@QAEXPAPAVioBaseChar@@I@Z PROC ; std::allocator<ioBaseChar *>::deallocate, COMDAT
; _this$ = ecx

; 181  : 		{	// deallocate object at _Ptr, ignore size

  00000	55		 push	 ebp
  00001	8b ec		 mov	 ebp, esp

; 182  : 		::operator delete(_Ptr);

  00003	ff 75 08	 push	 DWORD PTR __Ptr$[ebp]
  00006	e8 00 00 00 00	 call	 ??3@YAXPAX@Z		; operator delete
  0000b	59		 pop	 ecx

; 183  : 		}

  0000c	5d		 pop	 ebp
  0000d	c2 08 00	 ret	 8
?deallocate@?$allocator@PAVioBaseChar@@@std@@QAEXPAPAVioBaseChar@@I@Z ENDP ; std::allocator<ioBaseChar *>::deallocate
_TEXT	ENDS
PUBLIC	?_Compat@?$_Vector_const_iterator@V?$_Vector_val@PAVioBaseChar@@V?$allocator@PAVioBaseChar@@@std@@@std@@@std@@QBEXABV12@@Z ; std::_Vector_const_iterator<std::_Vector_val<ioBaseChar *,std::allocator<ioBaseChar *> > >::_Compat
; Function compile flags: /Ogsp
; File c:\program files (x86)\microsoft visual studio 10.0\vc\include\vector
;	COMDAT ?_Compat@?$_Vector_const_iterator@V?$_Vector_val@PAVioBaseChar@@V?$allocator@PAVioBaseChar@@@std@@@std@@@std@@QBEXABV12@@Z
_TEXT	SEGMENT
___formal$ = 8						; size = 4
?_Compat@?$_Vector_const_iterator@V?$_Vector_val@PAVioBaseChar@@V?$allocator@PAVioBaseChar@@@std@@@std@@@std@@QBEXABV12@@Z PROC ; std::_Vector_const_iterator<std::_Vector_val<ioBaseChar *,std::allocator<ioBaseChar *> > >::_Compat, COMDAT
; _this$ = ecx

; 253  : 		}

  00000	c2 04 00	 ret	 4
?_Compat@?$_Vector_const_iterator@V?$_Vector_val@PAVioBaseChar@@V?$allocator@PAVioBaseChar@@@std@@@std@@@std@@QBEXABV12@@Z ENDP ; std::_Vector_const_iterator<std::_Vector_val<ioBaseChar *,std::allocator<ioBaseChar *> > >::_Compat
_TEXT	ENDS
PUBLIC	??0?$_Vector_iterator@V?$_Vector_val@PAVioBaseChar@@V?$allocator@PAVioBaseChar@@@std@@@std@@@std@@QAE@PAPAVioBaseChar@@PBU_Container_base0@1@@Z ; std::_Vector_iterator<std::_Vector_val<ioBaseChar *,std::allocator<ioBaseChar *> > >::_Vector_iterator<std::_Vector_val<ioBaseChar *,std::allocator<ioBaseChar *> > >
; Function compile flags: /Ogsp
;	COMDAT ??0?$_Vector_iterator@V?$_Vector_val@PAVioBaseChar@@V?$allocator@PAVioBaseChar@@@std@@@std@@@std@@QAE@PAPAVioBaseChar@@PBU_Container_base0@1@@Z
_TEXT	SEGMENT
__Parg$ = 8						; size = 4
__Pvector$ = 12						; size = 4
??0?$_Vector_iterator@V?$_Vector_val@PAVioBaseChar@@V?$allocator@PAVioBaseChar@@@std@@@std@@@std@@QAE@PAPAVioBaseChar@@PBU_Container_base0@1@@Z PROC ; std::_Vector_iterator<std::_Vector_val<ioBaseChar *,std::allocator<ioBaseChar *> > >::_Vector_iterator<std::_Vector_val<ioBaseChar *,std::allocator<ioBaseChar *> > >, COMDAT
; _this$ = ecx

; 304  : 		{	// construct with pointer _Parg

  00000	55		 push	 ebp
  00001	8b ec		 mov	 ebp, esp
  00003	8b c1		 mov	 eax, ecx
  00005	8b 4d 08	 mov	 ecx, DWORD PTR __Parg$[ebp]
  00008	89 08		 mov	 DWORD PTR [eax], ecx

; 305  : 		}

  0000a	5d		 pop	 ebp
  0000b	c2 08 00	 ret	 8
??0?$_Vector_iterator@V?$_Vector_val@PAVioBaseChar@@V?$allocator@PAVioBaseChar@@@std@@@std@@@std@@QAE@PAPAVioBaseChar@@PBU_Container_base0@1@@Z ENDP ; std::_Vector_iterator<std::_Vector_val<ioBaseChar *,std::allocator<ioBaseChar *> > >::_Vector_iterator<std::_Vector_val<ioBaseChar *,std::allocator<ioBaseChar *> > >
_TEXT	ENDS
PUBLIC	?max_size@?$allocator@PAVioBaseChar@@@std@@QBEIXZ ; std::allocator<ioBaseChar *>::max_size
; Function compile flags: /Ogsp
; File c:\program files (x86)\microsoft visual studio 10.0\vc\include\xmemory
;	COMDAT ?max_size@?$allocator@PAVioBaseChar@@@std@@QBEIXZ
_TEXT	SEGMENT
?max_size@?$allocator@PAVioBaseChar@@@std@@QBEIXZ PROC	; std::allocator<ioBaseChar *>::max_size, COMDAT
; _this$ = ecx

; 218  : 		_SIZT _Count = (_SIZT)(-1) / sizeof (_Ty);
; 219  : 		return (0 < _Count ? _Count : 1);

  00000	b8 ff ff ff 3f	 mov	 eax, 1073741823		; 3fffffffH

; 220  : 		}

  00005	c3		 ret	 0
?max_size@?$allocator@PAVioBaseChar@@@std@@QBEIXZ ENDP	; std::allocator<ioBaseChar *>::max_size
_TEXT	ENDS
PUBLIC	??0D3DXVECTOR3@@QAE@XZ				; D3DXVECTOR3::D3DXVECTOR3
; Function compile flags: /Ogsp
; File c:\program files (x86)\microsoft directx sdk (june 2010)\include\d3dx9math.h
;	COMDAT ??0D3DXVECTOR3@@QAE@XZ
_TEXT	SEGMENT
??0D3DXVECTOR3@@QAE@XZ PROC				; D3DXVECTOR3::D3DXVECTOR3, COMDAT
; _this$ = ecx

; 165  :     D3DXVECTOR3() {};

  00000	8b c1		 mov	 eax, ecx
  00002	c3		 ret	 0
??0D3DXVECTOR3@@QAE@XZ ENDP				; D3DXVECTOR3::D3DXVECTOR3
_TEXT	ENDS
PUBLIC	??0D3DXVECTOR3@@QAE@MMM@Z			; D3DXVECTOR3::D3DXVECTOR3
; Function compile flags: /Ogsp
; File c:\program files (x86)\microsoft directx sdk (june 2010)\include\d3dx9math.inl
;	COMDAT ??0D3DXVECTOR3@@QAE@MMM@Z
_TEXT	SEGMENT
_fx$ = 8						; size = 4
_fy$ = 12						; size = 4
_fz$ = 16						; size = 4
??0D3DXVECTOR3@@QAE@MMM@Z PROC				; D3DXVECTOR3::D3DXVECTOR3, COMDAT
; _this$ = ecx

; 303  : {

  00000	55		 push	 ebp
  00001	8b ec		 mov	 ebp, esp

; 304  :     x = fx;

  00003	f3 0f 10 45 08	 movss	 xmm0, DWORD PTR _fx$[ebp]
  00008	8b c1		 mov	 eax, ecx
  0000a	f3 0f 11 00	 movss	 DWORD PTR [eax], xmm0

; 305  :     y = fy;

  0000e	f3 0f 10 45 0c	 movss	 xmm0, DWORD PTR _fy$[ebp]
  00013	f3 0f 11 40 04	 movss	 DWORD PTR [eax+4], xmm0

; 306  :     z = fz;

  00018	f3 0f 10 45 10	 movss	 xmm0, DWORD PTR _fz$[ebp]
  0001d	f3 0f 11 40 08	 movss	 DWORD PTR [eax+8], xmm0

; 307  : }

  00022	5d		 pop	 ebp
  00023	c2 0c 00	 ret	 12			; 0000000cH
??0D3DXVECTOR3@@QAE@MMM@Z ENDP				; D3DXVECTOR3::D3DXVECTOR3
_TEXT	ENDS
PUBLIC	??HD3DXVECTOR3@@QBE?AU0@ABU0@@Z			; D3DXVECTOR3::operator+
; Function compile flags: /Ogsp
;	COMDAT ??HD3DXVECTOR3@@QBE?AU0@ABU0@@Z
_TEXT	SEGMENT
___$ReturnUdt$ = 8					; size = 4
_v$ = 12						; size = 4
??HD3DXVECTOR3@@QBE?AU0@ABU0@@Z PROC			; D3DXVECTOR3::operator+, COMDAT
; _this$ = ecx

; 380  : {

  00000	55		 push	 ebp
  00001	8b ec		 mov	 ebp, esp

; 381  :     return D3DXVECTOR3(x + v.x, y + v.y, z + v.z);

  00003	8b 55 0c	 mov	 edx, DWORD PTR _v$[ebp]
  00006	f3 0f 10 02	 movss	 xmm0, DWORD PTR [edx]
  0000a	f3 0f 10 09	 movss	 xmm1, DWORD PTR [ecx]
  0000e	8b 45 08	 mov	 eax, DWORD PTR ___$ReturnUdt$[ebp]
  00011	0f 5a c0	 cvtps2pd xmm0, xmm0
  00014	0f 5a c9	 cvtps2pd xmm1, xmm1
  00017	f2 0f 58 c1	 addsd	 xmm0, xmm1
  0001b	f3 0f 10 49 04	 movss	 xmm1, DWORD PTR [ecx+4]
  00020	66 0f 5a c0	 cvtpd2ps xmm0, xmm0
  00024	f3 0f 11 00	 movss	 DWORD PTR [eax], xmm0
  00028	f3 0f 10 42 04	 movss	 xmm0, DWORD PTR [edx+4]
  0002d	0f 5a c0	 cvtps2pd xmm0, xmm0
  00030	0f 5a c9	 cvtps2pd xmm1, xmm1
  00033	f2 0f 58 c1	 addsd	 xmm0, xmm1
  00037	f3 0f 10 49 08	 movss	 xmm1, DWORD PTR [ecx+8]
  0003c	66 0f 5a c0	 cvtpd2ps xmm0, xmm0
  00040	f3 0f 11 40 04	 movss	 DWORD PTR [eax+4], xmm0
  00045	f3 0f 10 42 08	 movss	 xmm0, DWORD PTR [edx+8]
  0004a	0f 5a c0	 cvtps2pd xmm0, xmm0
  0004d	0f 5a c9	 cvtps2pd xmm1, xmm1
  00050	f2 0f 58 c1	 addsd	 xmm0, xmm1
  00054	66 0f 5a c0	 cvtpd2ps xmm0, xmm0
  00058	f3 0f 11 40 08	 movss	 DWORD PTR [eax+8], xmm0

; 382  : }

  0005d	5d		 pop	 ebp
  0005e	c2 08 00	 ret	 8
??HD3DXVECTOR3@@QBE?AU0@ABU0@@Z ENDP			; D3DXVECTOR3::operator+
_TEXT	ENDS
PUBLIC	??GD3DXVECTOR3@@QBE?AU0@ABU0@@Z			; D3DXVECTOR3::operator-
; Function compile flags: /Ogsp
;	COMDAT ??GD3DXVECTOR3@@QBE?AU0@ABU0@@Z
_TEXT	SEGMENT
___$ReturnUdt$ = 8					; size = 4
_v$ = 12						; size = 4
??GD3DXVECTOR3@@QBE?AU0@ABU0@@Z PROC			; D3DXVECTOR3::operator-, COMDAT
; _this$ = ecx

; 386  : {

  00000	55		 push	 ebp
  00001	8b ec		 mov	 ebp, esp

; 387  :     return D3DXVECTOR3(x - v.x, y - v.y, z - v.z);

  00003	8b 55 0c	 mov	 edx, DWORD PTR _v$[ebp]
  00006	f3 0f 10 01	 movss	 xmm0, DWORD PTR [ecx]
  0000a	f3 0f 10 0a	 movss	 xmm1, DWORD PTR [edx]
  0000e	8b 45 08	 mov	 eax, DWORD PTR ___$ReturnUdt$[ebp]
  00011	0f 5a c0	 cvtps2pd xmm0, xmm0
  00014	0f 5a c9	 cvtps2pd xmm1, xmm1
  00017	f2 0f 5c c1	 subsd	 xmm0, xmm1
  0001b	f3 0f 10 4a 04	 movss	 xmm1, DWORD PTR [edx+4]
  00020	66 0f 5a c0	 cvtpd2ps xmm0, xmm0
  00024	f3 0f 11 00	 movss	 DWORD PTR [eax], xmm0
  00028	f3 0f 10 41 04	 movss	 xmm0, DWORD PTR [ecx+4]
  0002d	0f 5a c0	 cvtps2pd xmm0, xmm0
  00030	0f 5a c9	 cvtps2pd xmm1, xmm1
  00033	f2 0f 5c c1	 subsd	 xmm0, xmm1
  00037	f3 0f 10 4a 08	 movss	 xmm1, DWORD PTR [edx+8]
  0003c	66 0f 5a c0	 cvtpd2ps xmm0, xmm0
  00040	f3 0f 11 40 04	 movss	 DWORD PTR [eax+4], xmm0
  00045	f3 0f 10 41 08	 movss	 xmm0, DWORD PTR [ecx+8]
  0004a	0f 5a c0	 cvtps2pd xmm0, xmm0
  0004d	0f 5a c9	 cvtps2pd xmm1, xmm1
  00050	f2 0f 5c c1	 subsd	 xmm0, xmm1
  00054	66 0f 5a c0	 cvtpd2ps xmm0, xmm0
  00058	f3 0f 11 40 08	 movss	 DWORD PTR [eax+8], xmm0

; 388  : }

  0005d	5d		 pop	 ebp
  0005e	c2 08 00	 ret	 8
??GD3DXVECTOR3@@QBE?AU0@ABU0@@Z ENDP			; D3DXVECTOR3::operator-
_TEXT	ENDS
PUBLIC	__real@3f91df46a2526c7a
PUBLIC	??$DEGtoRAD@M@@YAMM@Z				; DEGtoRAD<float>
;	COMDAT __real@3f91df46a2526c7a
; File d:\lost saga for developer\youtube\tutorial\source\src\lsclient\veryoftenusedefine.h
CONST	SEGMENT
__real@3f91df46a2526c7a DQ 03f91df46a2526c7ar	; 0.0174533
; Function compile flags: /Ogsp
CONST	ENDS
;	COMDAT ??$DEGtoRAD@M@@YAMM@Z
_TEXT	SEGMENT
tv129 = 8						; size = 4
_val$ = 8						; size = 4
??$DEGtoRAD@M@@YAMM@Z PROC				; DEGtoRAD<float>, COMDAT

; 20   : type  DEGtoRAD (type val) {return (type) (val * 0.0174532925199);}

  00000	55		 push	 ebp
  00001	8b ec		 mov	 ebp, esp
  00003	d9 45 08	 fld	 DWORD PTR _val$[ebp]
  00006	dc 0d 00 00 00
	00		 fmul	 QWORD PTR __real@3f91df46a2526c7a
  0000c	d9 5d 08	 fstp	 DWORD PTR tv129[ebp]
  0000f	d9 45 08	 fld	 DWORD PTR tv129[ebp]
  00012	5d		 pop	 ebp
  00013	c3		 ret	 0
??$DEGtoRAD@M@@YAMM@Z ENDP				; DEGtoRAD<float>
_TEXT	ENDS
PUBLIC	??$addressof@QAVioBaseChar@@@std@@YAPBQAVioBaseChar@@ABQAV1@@Z ; std::addressof<ioBaseChar * const>
; Function compile flags: /Ogsp
; File c:\program files (x86)\microsoft visual studio 10.0\vc\include\xmemory
;	COMDAT ??$addressof@QAVioBaseChar@@@std@@YAPBQAVioBaseChar@@ABQAV1@@Z
_TEXT	SEGMENT
__Val$ = 8						; size = 4
??$addressof@QAVioBaseChar@@@std@@YAPBQAVioBaseChar@@ABQAV1@@Z PROC ; std::addressof<ioBaseChar * const>, COMDAT

; 110  : 	{	// return address of _Val

  00000	55		 push	 ebp
  00001	8b ec		 mov	 ebp, esp

; 111  : 	return ((_Ty *) &(char&)_Val);

  00003	8b 45 08	 mov	 eax, DWORD PTR __Val$[ebp]

; 112  : 	}

  00006	5d		 pop	 ebp
  00007	c3		 ret	 0
??$addressof@QAVioBaseChar@@@std@@YAPBQAVioBaseChar@@ABQAV1@@Z ENDP ; std::addressof<ioBaseChar * const>
_TEXT	ENDS
PUBLIC	__TI2?AVbad_alloc@std@@
PUBLIC	??$_Allocate@PAVioBaseChar@@@std@@YAPAPAVioBaseChar@@IPAPAV1@@Z ; std::_Allocate<ioBaseChar *>
PUBLIC	__CTA2?AVbad_alloc@std@@
PUBLIC	__CT??_R0?AVbad_alloc@std@@@8??0bad_alloc@std@@QAE@ABV01@@Z12
PUBLIC	??0bad_alloc@std@@QAE@ABV01@@Z			; std::bad_alloc::bad_alloc
PUBLIC	__CT??_R0?AVexception@std@@@8??0exception@std@@QAE@ABV01@@Z12
EXTRN	??2@YAPAXI@Z:PROC				; operator new
EXTRN	__CxxThrowException@8:PROC
EXTRN	??0exception@std@@QAE@ABV01@@Z:PROC		; std::exception::exception
;	COMDAT __CT??_R0?AVexception@std@@@8??0exception@std@@QAE@ABV01@@Z12
; File c:\program files (x86)\microsoft visual studio 10.0\vc\include\exception
xdata$x	SEGMENT
__CT??_R0?AVexception@std@@@8??0exception@std@@QAE@ABV01@@Z12 DD 00H
	DD	FLAT:??_R0?AVexception@std@@@8
	DD	00H
	DD	0ffffffffH
	ORG $+4
	DD	0cH
	DD	FLAT:??0exception@std@@QAE@ABV01@@Z
xdata$x	ENDS
;	COMDAT __CT??_R0?AVbad_alloc@std@@@8??0bad_alloc@std@@QAE@ABV01@@Z12
xdata$x	SEGMENT
__CT??_R0?AVbad_alloc@std@@@8??0bad_alloc@std@@QAE@ABV01@@Z12 DD 00H
	DD	FLAT:??_R0?AVbad_alloc@std@@@8
	DD	00H
	DD	0ffffffffH
	ORG $+4
	DD	0cH
	DD	FLAT:??0bad_alloc@std@@QAE@ABV01@@Z
xdata$x	ENDS
;	COMDAT __CTA2?AVbad_alloc@std@@
xdata$x	SEGMENT
__CTA2?AVbad_alloc@std@@ DD 02H
	DD	FLAT:__CT??_R0?AVbad_alloc@std@@@8??0bad_alloc@std@@QAE@ABV01@@Z12
	DD	FLAT:__CT??_R0?AVexception@std@@@8??0exception@std@@QAE@ABV01@@Z12
xdata$x	ENDS
;	COMDAT __TI2?AVbad_alloc@std@@
xdata$x	SEGMENT
__TI2?AVbad_alloc@std@@ DD 00H
	DD	FLAT:??1bad_alloc@std@@UAE@XZ
	DD	00H
	DD	FLAT:__CTA2?AVbad_alloc@std@@
; Function compile flags: /Ogsp
; File c:\program files (x86)\microsoft visual studio 10.0\vc\include\xmemory
xdata$x	ENDS
;	COMDAT ??$_Allocate@PAVioBaseChar@@@std@@YAPAPAVioBaseChar@@IPAPAV1@@Z
_TEXT	SEGMENT
$T554449 = -12						; size = 12
$T554454 = 8						; size = 4
__Count$ = 8						; size = 4
___formal$ = 12						; size = 4
??$_Allocate@PAVioBaseChar@@@std@@YAPAPAVioBaseChar@@IPAPAV1@@Z PROC ; std::_Allocate<ioBaseChar *>, COMDAT

; 30   : 	{	// allocate storage for _Count elements of type _Ty

  00000	55		 push	 ebp
  00001	8b ec		 mov	 ebp, esp

; 31   : 	void *_Ptr = 0;
; 32   : 
; 33   : 	if (_Count <= 0)

  00003	8b 4d 08	 mov	 ecx, DWORD PTR __Count$[ebp]
  00006	83 ec 0c	 sub	 esp, 12			; 0000000cH
  00009	33 c0		 xor	 eax, eax
  0000b	85 c9		 test	 ecx, ecx

; 34   : 		_Count = 0;
; 35   : 	else if (((_SIZT)(-1) / sizeof (_Ty) < _Count)

  0000d	74 3e		 je	 SHORT $LN5@Allocate

; 36   : 		|| (_Ptr = ::operator new(_Count * sizeof (_Ty))) == 0)

  0000f	81 f9 ff ff ff
	3f		 cmp	 ecx, 1073741823		; 3fffffffH
  00015	77 10		 ja	 SHORT $LN1@Allocate
  00017	8b c1		 mov	 eax, ecx
  00019	c1 e0 02	 shl	 eax, 2
  0001c	50		 push	 eax
  0001d	e8 00 00 00 00	 call	 ??2@YAPAXI@Z		; operator new
  00022	59		 pop	 ecx
  00023	85 c0		 test	 eax, eax

; 38   : 
; 39   : 	return ((_Ty _FARQ *)_Ptr);

  00025	75 26		 jne	 SHORT $LN5@Allocate
$LN1@Allocate:

; 37   : 		_THROW_NCEE(bad_alloc, 0);

  00027	83 65 08 00	 and	 DWORD PTR $T554454[ebp], 0
  0002b	8d 45 08	 lea	 eax, DWORD PTR $T554454[ebp]
  0002e	50		 push	 eax
  0002f	8d 4d f4	 lea	 ecx, DWORD PTR $T554449[ebp]
  00032	ff 15 00 00 00
	00		 call	 DWORD PTR __imp_??0exception@std@@QAE@ABQBD@Z
  00038	68 00 00 00 00	 push	 OFFSET __TI2?AVbad_alloc@std@@
  0003d	8d 45 f4	 lea	 eax, DWORD PTR $T554449[ebp]
  00040	50		 push	 eax
  00041	c7 45 f4 00 00
	00 00		 mov	 DWORD PTR $T554449[ebp], OFFSET ??_7bad_alloc@std@@6B@
  00048	e8 00 00 00 00	 call	 __CxxThrowException@8
$LN10@Allocate:
$LN5@Allocate:

; 40   : 	}

  0004d	c9		 leave
  0004e	c3		 ret	 0
$LN9@Allocate:
??$_Allocate@PAVioBaseChar@@@std@@YAPAPAVioBaseChar@@IPAPAV1@@Z ENDP ; std::_Allocate<ioBaseChar *>
_TEXT	ENDS
PUBLIC	??$forward@AAPAVioBaseChar@@@std@@YAAAPAVioBaseChar@@AAPAV1@@Z ; std::forward<ioBaseChar * &>
; Function compile flags: /Ogsp
; File c:\program files (x86)\microsoft visual studio 10.0\vc\include\utility
;	COMDAT ??$forward@AAPAVioBaseChar@@@std@@YAAAPAVioBaseChar@@AAPAV1@@Z
_TEXT	SEGMENT
__Arg$ = 8						; size = 4
??$forward@AAPAVioBaseChar@@@std@@YAAAPAVioBaseChar@@AAPAV1@@Z PROC ; std::forward<ioBaseChar * &>, COMDAT

; 78   : 	{	// forward _Arg, given explicitly specified type parameter

  00000	55		 push	 ebp
  00001	8b ec		 mov	 ebp, esp

; 79   : 	return ((_Ty&&)_Arg);

  00003	8b 45 08	 mov	 eax, DWORD PTR __Arg$[ebp]

; 80   : 	}

  00006	5d		 pop	 ebp
  00007	c3		 ret	 0
??$forward@AAPAVioBaseChar@@@std@@YAAAPAVioBaseChar@@AAPAV1@@Z ENDP ; std::forward<ioBaseChar * &>
_TEXT	ENDS
PUBLIC	??$construct@AAPAVioBaseChar@@@?$allocator@PAVioBaseChar@@@std@@QAEXPAPAVioBaseChar@@AAPAV2@@Z ; std::allocator<ioBaseChar *>::construct<ioBaseChar * &>
; Function compile flags: /Ogsp
; File c:\program files (x86)\microsoft visual studio 10.0\vc\include\xmemory
;	COMDAT ??$construct@AAPAVioBaseChar@@@?$allocator@PAVioBaseChar@@@std@@QAEXPAPAVioBaseChar@@AAPAV2@@Z
_TEXT	SEGMENT
__Ptr$ = 8						; size = 4
__Val$ = 12						; size = 4
??$construct@AAPAVioBaseChar@@@?$allocator@PAVioBaseChar@@@std@@QAEXPAPAVioBaseChar@@AAPAV2@@Z PROC ; std::allocator<ioBaseChar *>::construct<ioBaseChar * &>, COMDAT
; _this$ = ecx

; 206  : 		void construct(pointer _Ptr, _Other&& _Val)

  00000	55		 push	 ebp
  00001	8b ec		 mov	 ebp, esp

; 207  : 		{	// construct object at _Ptr with value _Val
; 208  : 		::new ((void _FARQ *)_Ptr) _Ty(_STD forward<_Other>(_Val));

  00003	8b 45 08	 mov	 eax, DWORD PTR __Ptr$[ebp]
  00006	85 c0		 test	 eax, eax
  00008	74 07		 je	 SHORT $LN3@construct
  0000a	8b 4d 0c	 mov	 ecx, DWORD PTR __Val$[ebp]
  0000d	8b 09		 mov	 ecx, DWORD PTR [ecx]
  0000f	89 08		 mov	 DWORD PTR [eax], ecx
$LN3@construct:

; 209  : 		}

  00011	5d		 pop	 ebp
  00012	c2 08 00	 ret	 8
??$construct@AAPAVioBaseChar@@@?$allocator@PAVioBaseChar@@@std@@QAEXPAPAVioBaseChar@@AAPAV2@@Z ENDP ; std::allocator<ioBaseChar *>::construct<ioBaseChar * &>
_TEXT	ENDS
PUBLIC	??$forward@ABQAVioBaseChar@@@std@@YAABQAVioBaseChar@@ABQAV1@@Z ; std::forward<ioBaseChar * const &>
; Function compile flags: /Ogsp
; File c:\program files (x86)\microsoft visual studio 10.0\vc\include\utility
;	COMDAT ??$forward@ABQAVioBaseChar@@@std@@YAABQAVioBaseChar@@ABQAV1@@Z
_TEXT	SEGMENT
__Arg$ = 8						; size = 4
??$forward@ABQAVioBaseChar@@@std@@YAABQAVioBaseChar@@ABQAV1@@Z PROC ; std::forward<ioBaseChar * const &>, COMDAT

; 78   : 	{	// forward _Arg, given explicitly specified type parameter

  00000	55		 push	 ebp
  00001	8b ec		 mov	 ebp, esp

; 79   : 	return ((_Ty&&)_Arg);

  00003	8b 45 08	 mov	 eax, DWORD PTR __Arg$[ebp]

; 80   : 	}

  00006	5d		 pop	 ebp
  00007	c3		 ret	 0
??$forward@ABQAVioBaseChar@@@std@@YAABQAVioBaseChar@@ABQAV1@@Z ENDP ; std::forward<ioBaseChar * const &>
_TEXT	ENDS
PUBLIC	??$_Ptr_cat@PAVioBaseChar@@PAV1@@std@@YA?AU_Scalar_ptr_iterator_tag@0@PAPAVioBaseChar@@0@Z ; std::_Ptr_cat<ioBaseChar *,ioBaseChar *>
; Function compile flags: /Ogsp
; File c:\program files (x86)\microsoft visual studio 10.0\vc\include\xutility
;	COMDAT ??$_Ptr_cat@PAVioBaseChar@@PAV1@@std@@YA?AU_Scalar_ptr_iterator_tag@0@PAPAVioBaseChar@@0@Z
_TEXT	SEGMENT
__Cat$ = -1						; size = 1
___formal$ = 8						; size = 4
___formal$ = 12						; size = 4
??$_Ptr_cat@PAVioBaseChar@@PAV1@@std@@YA?AU_Scalar_ptr_iterator_tag@0@PAPAVioBaseChar@@0@Z PROC ; std::_Ptr_cat<ioBaseChar *,ioBaseChar *>, COMDAT

; 516  : 	{	// return pointer category from pointers

  00000	55		 push	 ebp
  00001	8b ec		 mov	 ebp, esp
  00003	51		 push	 ecx

; 517  : 	typename _Ptr_cat_helper<_Elem1, _Elem2>::_Type _Cat;
; 518  : 	return (_Cat);

  00004	8a 45 ff	 mov	 al, BYTE PTR __Cat$[ebp]

; 519  : 	}

  00007	c9		 leave
  00008	c3		 ret	 0
??$_Ptr_cat@PAVioBaseChar@@PAV1@@std@@YA?AU_Scalar_ptr_iterator_tag@0@PAPAVioBaseChar@@0@Z ENDP ; std::_Ptr_cat<ioBaseChar *,ioBaseChar *>
_TEXT	ENDS
PUBLIC	??$_Move@PAPAVioBaseChar@@PAPAV1@@std@@YAPAPAVioBaseChar@@PAPAV1@00U_Scalar_ptr_iterator_tag@0@@Z ; std::_Move<ioBaseChar * *,ioBaseChar * *>
EXTRN	__imp__memmove:PROC
; Function compile flags: /Ogsp
;	COMDAT ??$_Move@PAPAVioBaseChar@@PAPAV1@@std@@YAPAPAVioBaseChar@@PAPAV1@00U_Scalar_ptr_iterator_tag@0@@Z
_TEXT	SEGMENT
__First$ = 8						; size = 4
__Last$ = 12						; size = 4
__Dest$ = 16						; size = 4
___formal$ = 20						; size = 1
??$_Move@PAPAVioBaseChar@@PAPAV1@@std@@YAPAPAVioBaseChar@@PAPAV1@00U_Scalar_ptr_iterator_tag@0@@Z PROC ; std::_Move<ioBaseChar * *,ioBaseChar * *>, COMDAT

; 2522 : 	{	// move [_First, _Last) to [_Dest, ...), pointers to scalars

  00000	55		 push	 ebp
  00001	8b ec		 mov	 ebp, esp
  00003	56		 push	 esi

; 2523 : 	ptrdiff_t _Count = _Last - _First;

  00004	8b 75 0c	 mov	 esi, DWORD PTR __Last$[ebp]
  00007	2b 75 08	 sub	 esi, DWORD PTR __First$[ebp]
  0000a	57		 push	 edi

; 2524 : 	_CSTD memmove(&*_Dest, &*_First,
; 2525 : 		_Count * sizeof (*_First));

  0000b	8b 7d 10	 mov	 edi, DWORD PTR __Dest$[ebp]
  0000e	c1 fe 02	 sar	 esi, 2
  00011	c1 e6 02	 shl	 esi, 2
  00014	56		 push	 esi
  00015	ff 75 08	 push	 DWORD PTR __First$[ebp]
  00018	57		 push	 edi
  00019	ff 15 00 00 00
	00		 call	 DWORD PTR __imp__memmove
  0001f	83 c4 0c	 add	 esp, 12			; 0000000cH

; 2526 : 	return (_Dest + _Count);

  00022	8d 04 3e	 lea	 eax, DWORD PTR [esi+edi]
  00025	5f		 pop	 edi
  00026	5e		 pop	 esi

; 2527 : 	}

  00027	5d		 pop	 ebp
  00028	c3		 ret	 0
??$_Move@PAPAVioBaseChar@@PAPAV1@@std@@YAPAPAVioBaseChar@@PAPAV1@00U_Scalar_ptr_iterator_tag@0@@Z ENDP ; std::_Move<ioBaseChar * *,ioBaseChar * *>
_TEXT	ENDS
PUBLIC	??$_Destroy_range@V?$allocator@PAVioBaseChar@@@std@@@std@@YAXPAPAVioBaseChar@@0AAV?$allocator@PAVioBaseChar@@@0@U_Scalar_ptr_iterator_tag@0@@Z ; std::_Destroy_range<std::allocator<ioBaseChar *> >
; Function compile flags: /Ogsp
; File c:\program files (x86)\microsoft visual studio 10.0\vc\include\xmemory
;	COMDAT ??$_Destroy_range@V?$allocator@PAVioBaseChar@@@std@@@std@@YAXPAPAVioBaseChar@@0AAV?$allocator@PAVioBaseChar@@@0@U_Scalar_ptr_iterator_tag@0@@Z
_TEXT	SEGMENT
__First$ = 8						; size = 4
__Last$ = 12						; size = 4
__Al$ = 16						; size = 4
___formal$ = 20						; size = 1
??$_Destroy_range@V?$allocator@PAVioBaseChar@@@std@@@std@@YAXPAPAVioBaseChar@@0AAV?$allocator@PAVioBaseChar@@@0@U_Scalar_ptr_iterator_tag@0@@Z PROC ; std::_Destroy_range<std::allocator<ioBaseChar *> >, COMDAT

; 105  : 	}

  00000	c3		 ret	 0
??$_Destroy_range@V?$allocator@PAVioBaseChar@@@std@@@std@@YAXPAPAVioBaseChar@@0AAV?$allocator@PAVioBaseChar@@@0@U_Scalar_ptr_iterator_tag@0@@Z ENDP ; std::_Destroy_range<std::allocator<ioBaseChar *> >
_TEXT	ENDS
PUBLIC	??$_Construct@PAVioBaseChar@@ABQAV1@@std@@YAXPAPAVioBaseChar@@ABQAV1@@Z ; std::_Construct<ioBaseChar *,ioBaseChar * const &>
; Function compile flags: /Ogsp
;	COMDAT ??$_Construct@PAVioBaseChar@@ABQAV1@@std@@YAXPAPAVioBaseChar@@ABQAV1@@Z
_TEXT	SEGMENT
__Ptr$ = 8						; size = 4
__Val$ = 12						; size = 4
??$_Construct@PAVioBaseChar@@ABQAV1@@std@@YAXPAPAVioBaseChar@@ABQAV1@@Z PROC ; std::_Construct<ioBaseChar *,ioBaseChar * const &>, COMDAT

; 46   : 	{	// construct object at _Ptr with value _Val

  00000	55		 push	 ebp
  00001	8b ec		 mov	 ebp, esp

; 47   : 	void _FARQ *_Vptr = _Ptr;
; 48   : 	::new (_Vptr) _Ty1(_STD forward<_Ty2>(_Val));

  00003	8b 45 08	 mov	 eax, DWORD PTR __Ptr$[ebp]
  00006	85 c0		 test	 eax, eax
  00008	74 07		 je	 SHORT $LN3@Construct
  0000a	8b 4d 0c	 mov	 ecx, DWORD PTR __Val$[ebp]
  0000d	8b 09		 mov	 ecx, DWORD PTR [ecx]
  0000f	89 08		 mov	 DWORD PTR [eax], ecx
$LN3@Construct:

; 49   : 	}

  00011	5d		 pop	 ebp
  00012	c3		 ret	 0
??$_Construct@PAVioBaseChar@@ABQAV1@@std@@YAXPAPAVioBaseChar@@ABQAV1@@Z ENDP ; std::_Construct<ioBaseChar *,ioBaseChar * const &>
_TEXT	ENDS
PUBLIC	??$_Val_type@PAPAVioBaseChar@@@std@@YAPAPAVioBaseChar@@PAPAV1@@Z ; std::_Val_type<ioBaseChar * *>
; Function compile flags: /Ogsp
; File c:\program files (x86)\microsoft visual studio 10.0\vc\include\xutility
;	COMDAT ??$_Val_type@PAPAVioBaseChar@@@std@@YAPAPAVioBaseChar@@PAPAV1@@Z
_TEXT	SEGMENT
___formal$ = 8						; size = 4
??$_Val_type@PAPAVioBaseChar@@@std@@YAPAPAVioBaseChar@@PAPAV1@@Z PROC ; std::_Val_type<ioBaseChar * *>, COMDAT

; 790  : 	return (0);

  00000	33 c0		 xor	 eax, eax

; 791  : 	}

  00002	c3		 ret	 0
??$_Val_type@PAPAVioBaseChar@@@std@@YAPAPAVioBaseChar@@PAPAV1@@Z ENDP ; std::_Val_type<ioBaseChar * *>
_TEXT	ENDS
PUBLIC	??$_Uninit_move@PAVioBaseChar@@PAV1@PAV1@@std@@YAPAPAVioBaseChar@@PAPAV1@00AAV?$allocator@PAVioBaseChar@@@0@0U_Scalar_ptr_iterator_tag@0@@Z ; std::_Uninit_move<ioBaseChar *,ioBaseChar *,ioBaseChar *>
; Function compile flags: /Ogsp
; File c:\program files (x86)\microsoft visual studio 10.0\vc\include\memory
;	COMDAT ??$_Uninit_move@PAVioBaseChar@@PAV1@PAV1@@std@@YAPAPAVioBaseChar@@PAPAV1@00AAV?$allocator@PAVioBaseChar@@@0@0U_Scalar_ptr_iterator_tag@0@@Z
_TEXT	SEGMENT
__First$ = 8						; size = 4
__Last$ = 12						; size = 4
__Dest$ = 16						; size = 4
___formal$ = 20						; size = 4
___formal$ = 24						; size = 4
___formal$ = 28						; size = 1
??$_Uninit_move@PAVioBaseChar@@PAV1@PAV1@@std@@YAPAPAVioBaseChar@@PAPAV1@00AAV?$allocator@PAVioBaseChar@@@0@0U_Scalar_ptr_iterator_tag@0@@Z PROC ; std::_Uninit_move<ioBaseChar *,ioBaseChar *,ioBaseChar *>, COMDAT

; 456  : 	{	// move [_First, _Last) to raw _Dest, scalar type

  00000	55		 push	 ebp
  00001	8b ec		 mov	 ebp, esp
  00003	56		 push	 esi

; 457  : 	_DEBUG_RANGE(_First, _Last);
; 458  : 	_DEBUG_POINTER(_Dest);
; 459  : 	size_t _Count = (size_t)(_Last - _First);

  00004	8b 75 0c	 mov	 esi, DWORD PTR __Last$[ebp]
  00007	2b 75 08	 sub	 esi, DWORD PTR __First$[ebp]
  0000a	c1 fe 02	 sar	 esi, 2

; 460  : 	return ((_Ty2 *)_CSTD memmove(&*_Dest, &*_First,
; 461  : 		_Count * sizeof (*_First)) + _Count);	// NB: non-overlapping move

  0000d	c1 e6 02	 shl	 esi, 2
  00010	56		 push	 esi
  00011	ff 75 08	 push	 DWORD PTR __First$[ebp]
  00014	ff 75 10	 push	 DWORD PTR __Dest$[ebp]
  00017	ff 15 00 00 00
	00		 call	 DWORD PTR __imp__memmove
  0001d	83 c4 0c	 add	 esp, 12			; 0000000cH
  00020	03 c6		 add	 eax, esi
  00022	5e		 pop	 esi

; 462  : 	}

  00023	5d		 pop	 ebp
  00024	c3		 ret	 0
??$_Uninit_move@PAVioBaseChar@@PAV1@PAV1@@std@@YAPAPAVioBaseChar@@PAPAV1@00AAV?$allocator@PAVioBaseChar@@@0@0U_Scalar_ptr_iterator_tag@0@@Z ENDP ; std::_Uninit_move<ioBaseChar *,ioBaseChar *,ioBaseChar *>
; Function compile flags: /Odsp
_TEXT	ENDS
;	COMDAT ??_EioDummyWarpMine@@WBMI@AEPAXI@Z
_TEXT	SEGMENT
??_EioDummyWarpMine@@WBMI@AEPAXI@Z PROC			; [thunk]:ioDummyWarpMine::`vector deleting destructor', COMDAT
  00000	81 e9 c8 01 00
	00		 sub	 ecx, 456		; 000001c8H
  00006	e9 00 00 00 00	 jmp	 ??_EioDummyWarpMine@@UAEPAXI@Z
??_EioDummyWarpMine@@WBMI@AEPAXI@Z ENDP			; [thunk]:ioDummyWarpMine::`vector deleting destructor'
_TEXT	ENDS
PUBLIC	?D3DXVec3LengthSq@@YAMPBUD3DXVECTOR3@@@Z	; D3DXVec3LengthSq
; Function compile flags: /Ogsp
; File c:\program files (x86)\microsoft directx sdk (june 2010)\include\d3dx9math.inl
;	COMDAT ?D3DXVec3LengthSq@@YAMPBUD3DXVECTOR3@@@Z
_TEXT	SEGMENT
tv165 = 8						; size = 4
_pV$ = 8						; size = 4
?D3DXVec3LengthSq@@YAMPBUD3DXVECTOR3@@@Z PROC		; D3DXVec3LengthSq, COMDAT

; 1725 : {

  00000	55		 push	 ebp
  00001	8b ec		 mov	 ebp, esp

; 1726 : #ifdef D3DX_DEBUG
; 1727 :     if(!pV)
; 1728 :         return 0.0f;
; 1729 : #endif
; 1730 : 
; 1731 :     return pV->x * pV->x + pV->y * pV->y + pV->z * pV->z;

  00003	8b 45 08	 mov	 eax, DWORD PTR _pV$[ebp]
  00006	d9 40 04	 fld	 DWORD PTR [eax+4]
  00009	d9 00		 fld	 DWORD PTR [eax]
  0000b	d9 40 08	 fld	 DWORD PTR [eax+8]
  0000e	d9 c1		 fld	 ST(1)
  00010	de ca		 fmulp	 ST(2), ST(0)
  00012	d9 c2		 fld	 ST(2)
  00014	de cb		 fmulp	 ST(3), ST(0)
  00016	d9 c9		 fxch	 ST(1)
  00018	de c2		 faddp	 ST(2), ST(0)
  0001a	d9 c0		 fld	 ST(0)
  0001c	de c9		 fmulp	 ST(1), ST(0)
  0001e	de c1		 faddp	 ST(1), ST(0)
  00020	d9 5d 08	 fstp	 DWORD PTR tv165[ebp]
  00023	d9 45 08	 fld	 DWORD PTR tv165[ebp]

; 1732 : }

  00026	5d		 pop	 ebp
  00027	c3		 ret	 0
?D3DXVec3LengthSq@@YAMPBUD3DXVECTOR3@@@Z ENDP		; D3DXVec3LengthSq
_TEXT	ENDS
PUBLIC	?D3DXVec3Dot@@YAMPBUD3DXVECTOR3@@0@Z		; D3DXVec3Dot
; Function compile flags: /Ogsp
;	COMDAT ?D3DXVec3Dot@@YAMPBUD3DXVECTOR3@@0@Z
_TEXT	SEGMENT
tv188 = 8						; size = 4
_pV1$ = 8						; size = 4
_pV2$ = 12						; size = 4
?D3DXVec3Dot@@YAMPBUD3DXVECTOR3@@0@Z PROC		; D3DXVec3Dot, COMDAT

; 1736 : {

  00000	55		 push	 ebp
  00001	8b ec		 mov	 ebp, esp

; 1737 : #ifdef D3DX_DEBUG
; 1738 :     if(!pV1 || !pV2)
; 1739 :         return 0.0f;
; 1740 : #endif
; 1741 : 
; 1742 :     return pV1->x * pV2->x + pV1->y * pV2->y + pV1->z * pV2->z;

  00003	8b 45 08	 mov	 eax, DWORD PTR _pV1$[ebp]
  00006	8b 4d 0c	 mov	 ecx, DWORD PTR _pV2$[ebp]
  00009	d9 40 04	 fld	 DWORD PTR [eax+4]
  0000c	d8 49 04	 fmul	 DWORD PTR [ecx+4]
  0000f	d9 00		 fld	 DWORD PTR [eax]
  00011	d8 09		 fmul	 DWORD PTR [ecx]
  00013	de c1		 faddp	 ST(1), ST(0)
  00015	d9 40 08	 fld	 DWORD PTR [eax+8]
  00018	d8 49 08	 fmul	 DWORD PTR [ecx+8]
  0001b	de c1		 faddp	 ST(1), ST(0)
  0001d	d9 5d 08	 fstp	 DWORD PTR tv188[ebp]
  00020	d9 45 08	 fld	 DWORD PTR tv188[ebp]

; 1743 : }

  00023	5d		 pop	 ebp
  00024	c3		 ret	 0
?D3DXVec3Dot@@YAMPBUD3DXVECTOR3@@0@Z ENDP		; D3DXVec3Dot
_TEXT	ENDS
PUBLIC	?_DECSTR@@YAXPADH@Z				; _DECSTR
; Function compile flags: /Ogsp
; File d:\lost saga for developer\youtube\tutorial\source\src\lsclient\stringprotect.h
;	COMDAT ?_DECSTR@@YAXPADH@Z
_TEXT	SEGMENT
_s$ = 8							; size = 4
_l$ = 12						; size = 4
?_DECSTR@@YAXPADH@Z PROC				; _DECSTR, COMDAT

; 40   : __forceinline void _DECSTR(char* s, int l){int i=0,l4=(l-1)/4,*p=(int*)s;s[l-1]=0;for(;i<l4;++i)*(p++)^=0xEAEBECED;for(i=l4*4;i<l-1;++i)s[i]^=0xED-i%4;}

  00000	55		 push	 ebp
  00001	8b ec		 mov	 ebp, esp
  00003	8b 4d 0c	 mov	 ecx, DWORD PTR _l$[ebp]
  00006	56		 push	 esi
  00007	8b 75 08	 mov	 esi, DWORD PTR _s$[ebp]
  0000a	57		 push	 edi
  0000b	8d 79 ff	 lea	 edi, DWORD PTR [ecx-1]
  0000e	8b c7		 mov	 eax, edi
  00010	99		 cdq
  00011	83 e2 03	 and	 edx, 3
  00014	03 c2		 add	 eax, edx
  00016	c1 f8 02	 sar	 eax, 2
  00019	8b d6		 mov	 edx, esi
  0001b	c6 44 0e ff 00	 mov	 BYTE PTR [esi+ecx-1], 0
  00020	85 c0		 test	 eax, eax
  00022	7e 0e		 jle	 SHORT $LN4@DECSTR
  00024	8b c8		 mov	 ecx, eax
$LL6@DECSTR:
  00026	81 32 ed ec eb
	ea		 xor	 DWORD PTR [edx], -353637139 ; eaebecedH
  0002c	83 c2 04	 add	 edx, 4
  0002f	49		 dec	 ecx
  00030	75 f4		 jne	 SHORT $LL6@DECSTR
$LN4@DECSTR:
  00032	c1 e0 02	 shl	 eax, 2
  00035	eb 17		 jmp	 SHORT $LN14@DECSTR
$LL3@DECSTR:
  00037	8b c8		 mov	 ecx, eax
  00039	81 e1 03 00 00
	80		 and	 ecx, -2147483645	; 80000003H
  0003f	79 05		 jns	 SHORT $LN13@DECSTR
  00041	49		 dec	 ecx
  00042	83 c9 fc	 or	 ecx, -4			; fffffffcH
  00045	41		 inc	 ecx
$LN13@DECSTR:
  00046	b2 ed		 mov	 dl, -19			; ffffffedH
  00048	2a d1		 sub	 dl, cl
  0004a	30 14 30	 xor	 BYTE PTR [eax+esi], dl
  0004d	40		 inc	 eax
$LN14@DECSTR:
  0004e	3b c7		 cmp	 eax, edi
  00050	7c e5		 jl	 SHORT $LL3@DECSTR
  00052	5f		 pop	 edi
  00053	5e		 pop	 esi
  00054	5d		 pop	 ebp
  00055	c3		 ret	 0
?_DECSTR@@YAXPADH@Z ENDP				; _DECSTR
_TEXT	ENDS
PUBLIC	??0FireTime@@QAE@XZ				; FireTime::FireTime
EXTRN	__imp_??0ioHashString@@QAE@XZ:PROC
;	COMDAT xdata$x
; File d:\lost saga for developer\youtube\tutorial\source\src\lsclient\playentityhelpstruct.h
xdata$x	SEGMENT
__unwindtable$??0FireTime@@QAE@XZ DD 0ffffffffH
	DD	FLAT:__unwindfunclet$??0FireTime@@QAE@XZ$0
	DD	00H
	DD	FLAT:__unwindfunclet$??0FireTime@@QAE@XZ$1
__ehfuncinfo$??0FireTime@@QAE@XZ DD 019930522H
	DD	02H
	DD	FLAT:__unwindtable$??0FireTime@@QAE@XZ
	DD	2 DUP(00H)
	DD	2 DUP(00H)
	DD	00H
	DD	01H
; Function compile flags: /Ogsp
xdata$x	ENDS
;	COMDAT ??0FireTime@@QAE@XZ
_TEXT	SEGMENT
_this$ = -16						; size = 4
__$EHRec$ = -12						; size = 12
??0FireTime@@QAE@XZ PROC				; FireTime::FireTime, COMDAT
; _this$ = ecx

; 219  : 	FireTime()

  00000	6a 04		 push	 4
  00002	b8 00 00 00 00	 mov	 eax, __ehhandler$??0FireTime@@QAE@XZ
  00007	e8 00 00 00 00	 call	 __EH_prolog3
  0000c	8b f1		 mov	 esi, ecx
  0000e	89 75 f0	 mov	 DWORD PTR _this$[ebp], esi
  00011	8b 3d 00 00 00
	00		 mov	 edi, DWORD PTR __imp_??0ioHashString@@QAE@XZ
  00017	8d 4e 14	 lea	 ecx, DWORD PTR [esi+20]
  0001a	ff d7		 call	 edi
  0001c	33 db		 xor	 ebx, ebx
  0001e	8d 4e 30	 lea	 ecx, DWORD PTR [esi+48]
  00021	89 5d fc	 mov	 DWORD PTR __$EHRec$[ebp+8], ebx
  00024	ff d7		 call	 edi
  00026	8d 4e 44	 lea	 ecx, DWORD PTR [esi+68]
  00029	c6 45 fc 01	 mov	 BYTE PTR __$EHRec$[ebp+8], 1
  0002d	ff d7		 call	 edi

; 220  : 	{
; 221  : 		dwStart = 0;

  0002f	89 1e		 mov	 DWORD PTR [esi], ebx

; 222  : 		dwDuration = 0;

  00031	89 5e 04	 mov	 DWORD PTR [esi+4], ebx

; 223  : 
; 224  : 		iAttributeIdx = 0;

  00034	89 5e 08	 mov	 DWORD PTR [esi+8], ebx

; 225  : 		iResistanceIdx = 0;

  00037	89 5e 0c	 mov	 DWORD PTR [esi+12], ebx

; 226  : 
; 227  : 		bLoopWoundedAni = false;

  0003a	88 5e 10	 mov	 BYTE PTR [esi+16], bl

; 228  : 		dwWoundedAniDuration = 0;

  0003d	89 5e 24	 mov	 DWORD PTR [esi+36], ebx

; 229  : 
; 230  : 		dwWeaponIdx = 0;

  00040	89 5e 28	 mov	 DWORD PTR [esi+40], ebx

; 231  : 		eCollisionType = ACT_NONE;

  00043	c7 46 2c 06 00
	00 00		 mov	 DWORD PTR [esi+44], 6

; 232  : 		eFireTimeType = FTT_NORMAL_ATTACK;

  0004a	89 5e 40	 mov	 DWORD PTR [esi+64], ebx

; 233  : 
; 234  : 		m_iExtraValue = 0;

  0004d	89 5e 54	 mov	 DWORD PTR [esi+84], ebx

; 235  : 	}

  00050	8b c6		 mov	 eax, esi
  00052	e8 00 00 00 00	 call	 __EH_epilog3
  00057	c3		 ret	 0
_TEXT	ENDS
;	COMDAT text$x
text$x	SEGMENT
__unwindfunclet$??0FireTime@@QAE@XZ$0:
  00000	8b 4d f0	 mov	 ecx, DWORD PTR _this$[ebp]
  00003	83 c1 14	 add	 ecx, 20			; 00000014H
  00006	ff 25 00 00 00
	00		 jmp	 DWORD PTR __imp_??1ioHashString@@QAE@XZ
__unwindfunclet$??0FireTime@@QAE@XZ$1:
  0000c	8b 4d f0	 mov	 ecx, DWORD PTR _this$[ebp]
  0000f	83 c1 30	 add	 ecx, 48			; 00000030H
  00012	ff 25 00 00 00
	00		 jmp	 DWORD PTR __imp_??1ioHashString@@QAE@XZ
__ehhandler$??0FireTime@@QAE@XZ:
  00018	8b 54 24 08	 mov	 edx, DWORD PTR [esp+8]
  0001c	8d 42 0c	 lea	 eax, DWORD PTR [edx+12]
  0001f	8b 4a ec	 mov	 ecx, DWORD PTR [edx-20]
  00022	33 c8		 xor	 ecx, eax
  00024	e8 00 00 00 00	 call	 @__security_check_cookie@4
  00029	b8 00 00 00 00	 mov	 eax, OFFSET __ehfuncinfo$??0FireTime@@QAE@XZ
  0002e	e9 00 00 00 00	 jmp	 ___CxxFrameHandler3
text$x	ENDS
??0FireTime@@QAE@XZ ENDP				; FireTime::FireTime
; Function compile flags: /Ogsp
; File d:\lost saga for developer\youtube\tutorial\source\src\lsclient\iodummychar.h
;	COMDAT ?IsDummyCharMidSync@ioDummyChar@@UAE_NXZ
_TEXT	SEGMENT
?IsDummyCharMidSync@ioDummyChar@@UAE_NXZ PROC		; ioDummyChar::IsDummyCharMidSync, COMDAT
; _this$ = ecx

; 742  : 	virtual bool IsDummyCharMidSync(){ return false; }

  00000	32 c0		 xor	 al, al
  00002	c3		 ret	 0
?IsDummyCharMidSync@ioDummyChar@@UAE_NXZ ENDP		; ioDummyChar::IsDummyCharMidSync
_TEXT	ENDS
PUBLIC	?CheckWeaponBySkill@ioWeapon@@QBE_NXZ		; ioWeapon::CheckWeaponBySkill
; Function compile flags: /Ogsp
; File d:\lost saga for developer\youtube\tutorial\source\src\lsclient\ioweapon.h
;	COMDAT ?CheckWeaponBySkill@ioWeapon@@QBE_NXZ
_TEXT	SEGMENT
?CheckWeaponBySkill@ioWeapon@@QBE_NXZ PROC		; ioWeapon::CheckWeaponBySkill, COMDAT
; _this$ = ecx

; 484  : 	inline bool CheckWeaponBySkill() const { return m_bUseSkill; }

  00000	8a 81 7e 05 00
	00		 mov	 al, BYTE PTR [ecx+1406]
  00006	c3		 ret	 0
?CheckWeaponBySkill@ioWeapon@@QBE_NXZ ENDP		; ioWeapon::CheckWeaponBySkill
_TEXT	ENDS
PUBLIC	?CheckWeaponByStruct@ioWeapon@@QBE_NXZ		; ioWeapon::CheckWeaponByStruct
; Function compile flags: /Ogsp
;	COMDAT ?CheckWeaponByStruct@ioWeapon@@QBE_NXZ
_TEXT	SEGMENT
?CheckWeaponByStruct@ioWeapon@@QBE_NXZ PROC		; ioWeapon::CheckWeaponByStruct, COMDAT
; _this$ = ecx

; 488  : 	inline bool CheckWeaponByStruct() const { return m_bStructWeapon; }

  00000	8a 81 8c 05 00
	00		 mov	 al, BYTE PTR [ecx+1420]
  00006	c3		 ret	 0
?CheckWeaponByStruct@ioWeapon@@QBE_NXZ ENDP		; ioWeapon::CheckWeaponByStruct
_TEXT	ENDS
PUBLIC	?CheckWeaponByDummyChar@ioWeapon@@QBE_NXZ	; ioWeapon::CheckWeaponByDummyChar
; Function compile flags: /Ogsp
;	COMDAT ?CheckWeaponByDummyChar@ioWeapon@@QBE_NXZ
_TEXT	SEGMENT
?CheckWeaponByDummyChar@ioWeapon@@QBE_NXZ PROC		; ioWeapon::CheckWeaponByDummyChar, COMDAT
; _this$ = ecx

; 489  : 	inline bool CheckWeaponByDummyChar() const { return m_bDummyCharWeapon; }

  00000	8a 81 9c 05 00
	00		 mov	 al, BYTE PTR [ecx+1436]
  00006	c3		 ret	 0
?CheckWeaponByDummyChar@ioWeapon@@QBE_NXZ ENDP		; ioWeapon::CheckWeaponByDummyChar
_TEXT	ENDS
PUBLIC	?GetOwnerName@ioWeapon@@QBEABVioHashString@@XZ	; ioWeapon::GetOwnerName
; Function compile flags: /Ogsp
;	COMDAT ?GetOwnerName@ioWeapon@@QBEABVioHashString@@XZ
_TEXT	SEGMENT
?GetOwnerName@ioWeapon@@QBEABVioHashString@@XZ PROC	; ioWeapon::GetOwnerName, COMDAT
; _this$ = ecx

; 636  : 	inline const ioHashString& GetOwnerName() const { return m_OwnerName; }

  00000	8d 41 10	 lea	 eax, DWORD PTR [ecx+16]
  00003	c3		 ret	 0
?GetOwnerName@ioWeapon@@QBEABVioHashString@@XZ ENDP	; ioWeapon::GetOwnerName
_TEXT	ENDS
PUBLIC	?GetWeaponByDummyChar@ioWeapon@@QAE?BHXZ	; ioWeapon::GetWeaponByDummyChar
; Function compile flags: /Ogsp
;	COMDAT ?GetWeaponByDummyChar@ioWeapon@@QAE?BHXZ
_TEXT	SEGMENT
?GetWeaponByDummyChar@ioWeapon@@QAE?BHXZ PROC		; ioWeapon::GetWeaponByDummyChar, COMDAT
; _this$ = ecx

; 638  : 	inline const int GetWeaponByDummyChar() { return m_iDummyIndex; }

  00000	8b 81 98 05 00
	00		 mov	 eax, DWORD PTR [ecx+1432]
  00006	c3		 ret	 0
?GetWeaponByDummyChar@ioWeapon@@QAE?BHXZ ENDP		; ioWeapon::GetWeaponByDummyChar
_TEXT	ENDS
PUBLIC	?GetAreaWeaponIndex@ioAreaWeapon@@QBEKXZ	; ioAreaWeapon::GetAreaWeaponIndex
; Function compile flags: /Ogsp
; File d:\lost saga for developer\youtube\tutorial\source\src\lsclient\ioareaweapon.h
;	COMDAT ?GetAreaWeaponIndex@ioAreaWeapon@@QBEKXZ
_TEXT	SEGMENT
?GetAreaWeaponIndex@ioAreaWeapon@@QBEKXZ PROC		; ioAreaWeapon::GetAreaWeaponIndex, COMDAT
; _this$ = ecx

; 431  : 	inline DWORD GetAreaWeaponIndex() const { return m_dwAreaWeaponIndex; }

  00000	8b 41 14	 mov	 eax, DWORD PTR [ecx+20]
  00003	c3		 ret	 0
?GetAreaWeaponIndex@ioAreaWeapon@@QBEKXZ ENDP		; ioAreaWeapon::GetAreaWeaponIndex
_TEXT	ENDS
PUBLIC	?EncryptValueToPool@?$CEncrypt@M@@AAEXPBD@Z	; CEncrypt<float>::EncryptValueToPool
EXTRN	?EncryptByte@ccddaabb@@QAEXPBDPADH@Z:PROC	; ccddaabb::EncryptByte
; Function compile flags: /Ogsp
; File d:\lost saga for developer\youtube\tutorial\source\src\lsclient\encryptvalue.h
;	COMDAT ?EncryptValueToPool@?$CEncrypt@M@@AAEXPBD@Z
_TEXT	SEGMENT
_value$ = 8						; size = 4
?EncryptValueToPool@?$CEncrypt@M@@AAEXPBD@Z PROC	; CEncrypt<float>::EncryptValueToPool, COMDAT
; _this$ = ecx

; 67   : 	{

  00000	55		 push	 ebp
  00001	8b ec		 mov	 ebp, esp

; 68   : 		m_RC5.EncryptByte( value, m_MemPool, max(m_ValueSize, DEFAULT_ENCRYPT) );

  00003	0f b7 41 06	 movzx	 eax, WORD PTR [ecx+6]
  00007	83 f8 04	 cmp	 eax, 4
  0000a	77 03		 ja	 SHORT $LN4@EncryptVal
  0000c	6a 04		 push	 4
  0000e	58		 pop	 eax
$LN4@EncryptVal:
  0000f	50		 push	 eax
  00010	8d 41 1c	 lea	 eax, DWORD PTR [ecx+28]
  00013	50		 push	 eax
  00014	ff 75 08	 push	 DWORD PTR _value$[ebp]
  00017	83 c1 0c	 add	 ecx, 12			; 0000000cH
  0001a	e8 00 00 00 00	 call	 ?EncryptByte@ccddaabb@@QAEXPBDPADH@Z ; ccddaabb::EncryptByte

; 69   : 		
; 70   : 	}

  0001f	5d		 pop	 ebp
  00020	c2 04 00	 ret	 4
?EncryptValueToPool@?$CEncrypt@M@@AAEXPBD@Z ENDP	; CEncrypt<float>::EncryptValueToPool
_TEXT	ENDS
PUBLIC	?DecryptValueToPool@?$CEncrypt@M@@QAEXPAM@Z	; CEncrypt<float>::DecryptValueToPool
EXTRN	?DecryptByte@ccddaabb@@QBEXPBDPADH@Z:PROC	; ccddaabb::DecryptByte
; Function compile flags: /Ogsp
;	COMDAT ?DecryptValueToPool@?$CEncrypt@M@@QAEXPAM@Z
_TEXT	SEGMENT
_value$ = 8						; size = 4
?DecryptValueToPool@?$CEncrypt@M@@QAEXPAM@Z PROC	; CEncrypt<float>::DecryptValueToPool, COMDAT
; _this$ = ecx

; 1648 : 	{

  00000	55		 push	 ebp
  00001	8b ec		 mov	 ebp, esp
  00003	56		 push	 esi

; 1649 : 		m_RC5.DecryptByte( m_MemPool, m_TempMem, 4 );

  00004	8d 71 28	 lea	 esi, DWORD PTR [ecx+40]
  00007	6a 04		 push	 4
  00009	8d 41 1c	 lea	 eax, DWORD PTR [ecx+28]
  0000c	56		 push	 esi
  0000d	50		 push	 eax
  0000e	83 c1 0c	 add	 ecx, 12			; 0000000cH
  00011	e8 00 00 00 00	 call	 ?DecryptByte@ccddaabb@@QBEXPBDPADH@Z ; ccddaabb::DecryptByte

; 1650 : 		*value = *((float*)m_TempMem);

  00016	d9 06		 fld	 DWORD PTR [esi]
  00018	8b 45 08	 mov	 eax, DWORD PTR _value$[ebp]
  0001b	d9 18		 fstp	 DWORD PTR [eax]
  0001d	5e		 pop	 esi

; 1651 : 	}

  0001e	5d		 pop	 ebp
  0001f	c2 04 00	 ret	 4
?DecryptValueToPool@?$CEncrypt@M@@QAEXPAM@Z ENDP	; CEncrypt<float>::DecryptValueToPool
_TEXT	ENDS
PUBLIC	?DecryptValueToPool@?$CEncrypt@_N@@QAEXPA_N@Z	; CEncrypt<bool>::DecryptValueToPool
; Function compile flags: /Ogsp
;	COMDAT ?DecryptValueToPool@?$CEncrypt@_N@@QAEXPA_N@Z
_TEXT	SEGMENT
_value$ = 8						; size = 4
?DecryptValueToPool@?$CEncrypt@_N@@QAEXPA_N@Z PROC	; CEncrypt<bool>::DecryptValueToPool, COMDAT
; _this$ = ecx

; 219  : 	{

  00000	55		 push	 ebp
  00001	8b ec		 mov	 ebp, esp
  00003	56		 push	 esi

; 220  : 		m_RC5.DecryptByte( m_MemPool, m_TempMem, 4 );

  00004	8d 71 28	 lea	 esi, DWORD PTR [ecx+40]
  00007	6a 04		 push	 4
  00009	8d 41 1c	 lea	 eax, DWORD PTR [ecx+28]
  0000c	56		 push	 esi
  0000d	50		 push	 eax
  0000e	83 c1 0c	 add	 ecx, 12			; 0000000cH
  00011	e8 00 00 00 00	 call	 ?DecryptByte@ccddaabb@@QBEXPBDPADH@Z ; ccddaabb::DecryptByte

; 221  : 		*value = *((bool*)m_TempMem);

  00016	8a 06		 mov	 al, BYTE PTR [esi]
  00018	8b 4d 08	 mov	 ecx, DWORD PTR _value$[ebp]
  0001b	88 01		 mov	 BYTE PTR [ecx], al
  0001d	5e		 pop	 esi

; 222  : 	}

  0001e	5d		 pop	 ebp
  0001f	c2 04 00	 ret	 4
?DecryptValueToPool@?$CEncrypt@_N@@QAEXPA_N@Z ENDP	; CEncrypt<bool>::DecryptValueToPool
_TEXT	ENDS
PUBLIC	?EncryptValueToPool@?$CEncrypt@W4TeamType@@@@AAEXPBD@Z ; CEncrypt<enum TeamType>::EncryptValueToPool
; Function compile flags: /Ogsp
;	COMDAT ?EncryptValueToPool@?$CEncrypt@W4TeamType@@@@AAEXPBD@Z
_TEXT	SEGMENT
_value$ = 8						; size = 4
?EncryptValueToPool@?$CEncrypt@W4TeamType@@@@AAEXPBD@Z PROC ; CEncrypt<enum TeamType>::EncryptValueToPool, COMDAT
; _this$ = ecx

; 67   : 	{

  00000	55		 push	 ebp
  00001	8b ec		 mov	 ebp, esp

; 68   : 		m_RC5.EncryptByte( value, m_MemPool, max(m_ValueSize, DEFAULT_ENCRYPT) );

  00003	0f b7 41 06	 movzx	 eax, WORD PTR [ecx+6]
  00007	83 f8 04	 cmp	 eax, 4
  0000a	77 03		 ja	 SHORT $LN4@EncryptVal@2
  0000c	6a 04		 push	 4
  0000e	58		 pop	 eax
$LN4@EncryptVal@2:
  0000f	50		 push	 eax
  00010	8d 41 1c	 lea	 eax, DWORD PTR [ecx+28]
  00013	50		 push	 eax
  00014	ff 75 08	 push	 DWORD PTR _value$[ebp]
  00017	83 c1 0c	 add	 ecx, 12			; 0000000cH
  0001a	e8 00 00 00 00	 call	 ?EncryptByte@ccddaabb@@QAEXPBDPADH@Z ; ccddaabb::EncryptByte

; 69   : 		
; 70   : 	}

  0001f	5d		 pop	 ebp
  00020	c2 04 00	 ret	 4
?EncryptValueToPool@?$CEncrypt@W4TeamType@@@@AAEXPBD@Z ENDP ; CEncrypt<enum TeamType>::EncryptValueToPool
_TEXT	ENDS
PUBLIC	?DecryptValueToPool@?$CEncrypt@W4TeamType@@@@QAEXPAW4TeamType@@@Z ; CEncrypt<enum TeamType>::DecryptValueToPool
; Function compile flags: /Ogsp
;	COMDAT ?DecryptValueToPool@?$CEncrypt@W4TeamType@@@@QAEXPAW4TeamType@@@Z
_TEXT	SEGMENT
_value$ = 8						; size = 4
?DecryptValueToPool@?$CEncrypt@W4TeamType@@@@QAEXPAW4TeamType@@@Z PROC ; CEncrypt<enum TeamType>::DecryptValueToPool, COMDAT
; _this$ = ecx

; 2959 : 	{

  00000	55		 push	 ebp
  00001	8b ec		 mov	 ebp, esp
  00003	56		 push	 esi

; 2960 : 		m_RC5.DecryptByte( m_MemPool, m_TempMem, sizeof(TeamType) );

  00004	8d 71 28	 lea	 esi, DWORD PTR [ecx+40]
  00007	6a 04		 push	 4
  00009	8d 41 1c	 lea	 eax, DWORD PTR [ecx+28]
  0000c	56		 push	 esi
  0000d	50		 push	 eax
  0000e	83 c1 0c	 add	 ecx, 12			; 0000000cH
  00011	e8 00 00 00 00	 call	 ?DecryptByte@ccddaabb@@QBEXPBDPADH@Z ; ccddaabb::DecryptByte

; 2961 : 		*value = *((TeamType*)m_TempMem);

  00016	8b 06		 mov	 eax, DWORD PTR [esi]
  00018	8b 4d 08	 mov	 ecx, DWORD PTR _value$[ebp]
  0001b	89 01		 mov	 DWORD PTR [ecx], eax
  0001d	5e		 pop	 esi

; 2962 : 	}

  0001e	5d		 pop	 ebp
  0001f	c2 04 00	 ret	 4
?DecryptValueToPool@?$CEncrypt@W4TeamType@@@@QAEXPAW4TeamType@@@Z ENDP ; CEncrypt<enum TeamType>::DecryptValueToPool
_TEXT	ENDS
EXTRN	__imp_??0exception@std@@QAE@ABV01@@Z:PROC
; Function compile flags: /Ogsp
;	COMDAT ??0bad_alloc@std@@QAE@ABV01@@Z
_TEXT	SEGMENT
___that$ = 8						; size = 4
??0bad_alloc@std@@QAE@ABV01@@Z PROC			; std::bad_alloc::bad_alloc, COMDAT
; _this$ = ecx
  00000	55		 push	 ebp
  00001	8b ec		 mov	 ebp, esp
  00003	56		 push	 esi
  00004	ff 75 08	 push	 DWORD PTR ___that$[ebp]
  00007	8b f1		 mov	 esi, ecx
  00009	ff 15 00 00 00
	00		 call	 DWORD PTR __imp_??0exception@std@@QAE@ABV01@@Z
  0000f	c7 06 00 00 00
	00		 mov	 DWORD PTR [esi], OFFSET ??_7bad_alloc@std@@6B@
  00015	8b c6		 mov	 eax, esi
  00017	5e		 pop	 esi
  00018	5d		 pop	 ebp
  00019	c2 04 00	 ret	 4
??0bad_alloc@std@@QAE@ABV01@@Z ENDP			; std::bad_alloc::bad_alloc
_TEXT	ENDS
PUBLIC	??0ioDummyWarpMine@@QAE@PAVioEntityGroup@@PAVioPlayMode@@@Z ; ioDummyWarpMine::ioDummyWarpMine
EXTRN	??0ioDummyChar@@QAE@PAVioEntityGroup@@PAVioPlayMode@@@Z:PROC ; ioDummyChar::ioDummyChar
;	COMDAT xdata$x
; File c:\program files (x86)\microsoft directx sdk (june 2010)\include\d3dx9math.h
xdata$x	SEGMENT
__unwindtable$??0ioDummyWarpMine@@QAE@PAVioEntityGroup@@PAVioPlayMode@@@Z DD 0ffffffffH
	DD	FLAT:__unwindfunclet$??0ioDummyWarpMine@@QAE@PAVioEntityGroup@@PAVioPlayMode@@@Z$0
	DD	00H
	DD	FLAT:__unwindfunclet$??0ioDummyWarpMine@@QAE@PAVioEntityGroup@@PAVioPlayMode@@@Z$1
	DD	01H
	DD	FLAT:__unwindfunclet$??0ioDummyWarpMine@@QAE@PAVioEntityGroup@@PAVioPlayMode@@@Z$2
__ehfuncinfo$??0ioDummyWarpMine@@QAE@PAVioEntityGroup@@PAVioPlayMode@@@Z DD 019930522H
	DD	03H
	DD	FLAT:__unwindtable$??0ioDummyWarpMine@@QAE@PAVioEntityGroup@@PAVioPlayMode@@@Z
	DD	2 DUP(00H)
	DD	2 DUP(00H)
	DD	00H
	DD	01H
; Function compile flags: /Ogsp
; File d:\lost saga for developer\youtube\tutorial\source\src\lsclient\iodummywarpmine.cpp
xdata$x	ENDS
;	COMDAT ??0ioDummyWarpMine@@QAE@PAVioEntityGroup@@PAVioPlayMode@@@Z
_TEXT	SEGMENT
_this$ = -16						; size = 4
__$EHRec$ = -12						; size = 12
_pGrp$ = 8						; size = 4
_pMode$ = 12						; size = 4
??0ioDummyWarpMine@@QAE@PAVioEntityGroup@@PAVioPlayMode@@@Z PROC ; ioDummyWarpMine::ioDummyWarpMine, COMDAT
; _this$ = ecx

; 12   : {

  00000	6a 04		 push	 4
  00002	b8 00 00 00 00	 mov	 eax, __ehhandler$??0ioDummyWarpMine@@QAE@PAVioEntityGroup@@PAVioPlayMode@@@Z
  00007	e8 00 00 00 00	 call	 __EH_prolog3
  0000c	8b f1		 mov	 esi, ecx
  0000e	89 75 f0	 mov	 DWORD PTR _this$[ebp], esi
  00011	ff 75 0c	 push	 DWORD PTR _pMode$[ebp]
  00014	ff 75 08	 push	 DWORD PTR _pGrp$[ebp]
  00017	e8 00 00 00 00	 call	 ??0ioDummyChar@@QAE@PAVioEntityGroup@@PAVioPlayMode@@@Z ; ioDummyChar::ioDummyChar
  0001c	8b 3d 00 00 00
	00		 mov	 edi, DWORD PTR __imp_??0ioHashString@@QAE@XZ
  00022	83 65 fc 00	 and	 DWORD PTR __$EHRec$[ebp+8], 0
  00026	8d 8e c0 14 00
	00		 lea	 ecx, DWORD PTR [esi+5312]
  0002c	c7 06 00 00 00
	00		 mov	 DWORD PTR [esi], OFFSET ??_7ioDummyWarpMine@@6BioPlayEntity@@@
  00032	c7 86 c8 01 00
	00 00 00 00 00	 mov	 DWORD PTR [esi+456], OFFSET ??_7ioDummyWarpMine@@6BioWorldEventReceiver@@@
  0003c	ff d7		 call	 edi
  0003e	8d 8e d4 14 00
	00		 lea	 ecx, DWORD PTR [esi+5332]
  00044	c6 45 fc 01	 mov	 BYTE PTR __$EHRec$[ebp+8], 1
  00048	ff d7		 call	 edi
  0004a	8d 8e e4 14 00
	00		 lea	 ecx, DWORD PTR [esi+5348]
  00050	c6 45 fc 02	 mov	 BYTE PTR __$EHRec$[ebp+8], 2
  00054	ff d7		 call	 edi

; 13   : 	m_bMineVisible = false;
; 14   : 	m_MineState = DMS_START;

  00056	83 a6 80 14 00
	00 00		 and	 DWORD PTR [esi+5248], 0

; 15   : 	m_dwCheckEndDelayTime = 0;

  0005d	83 a6 b8 14 00
	00 00		 and	 DWORD PTR [esi+5304], 0

; 16   : 	m_dwAreaWeaponIdx = -1;

  00064	83 8e f4 14 00
	00 ff		 or	 DWORD PTR [esi+5364], -1
  0006b	c6 86 88 14 00
	00 00		 mov	 BYTE PTR [esi+5256], 0

; 17   : }

  00072	8b c6		 mov	 eax, esi
  00074	e8 00 00 00 00	 call	 __EH_epilog3
  00079	c2 08 00	 ret	 8
_TEXT	ENDS
;	COMDAT text$x
text$x	SEGMENT
__unwindfunclet$??0ioDummyWarpMine@@QAE@PAVioEntityGroup@@PAVioPlayMode@@@Z$0:
  00000	8b 4d f0	 mov	 ecx, DWORD PTR _this$[ebp]
  00003	e9 00 00 00 00	 jmp	 ??1ioDummyChar@@UAE@XZ	; ioDummyChar::~ioDummyChar
__unwindfunclet$??0ioDummyWarpMine@@QAE@PAVioEntityGroup@@PAVioPlayMode@@@Z$1:
  00008	8b 4d f0	 mov	 ecx, DWORD PTR _this$[ebp]
  0000b	81 c1 c0 14 00
	00		 add	 ecx, 5312		; 000014c0H
  00011	ff 25 00 00 00
	00		 jmp	 DWORD PTR __imp_??1ioHashString@@QAE@XZ
__unwindfunclet$??0ioDummyWarpMine@@QAE@PAVioEntityGroup@@PAVioPlayMode@@@Z$2:
  00017	8b 4d f0	 mov	 ecx, DWORD PTR _this$[ebp]
  0001a	81 c1 d4 14 00
	00		 add	 ecx, 5332		; 000014d4H
  00020	ff 25 00 00 00
	00		 jmp	 DWORD PTR __imp_??1ioHashString@@QAE@XZ
__ehhandler$??0ioDummyWarpMine@@QAE@PAVioEntityGroup@@PAVioPlayMode@@@Z:
  00026	8b 54 24 08	 mov	 edx, DWORD PTR [esp+8]
  0002a	8d 42 0c	 lea	 eax, DWORD PTR [edx+12]
  0002d	8b 4a ec	 mov	 ecx, DWORD PTR [edx-20]
  00030	33 c8		 xor	 ecx, eax
  00032	e8 00 00 00 00	 call	 @__security_check_cookie@4
  00037	b8 00 00 00 00	 mov	 eax, OFFSET __ehfuncinfo$??0ioDummyWarpMine@@QAE@PAVioEntityGroup@@PAVioPlayMode@@@Z
  0003c	e9 00 00 00 00	 jmp	 ___CxxFrameHandler3
text$x	ENDS
??0ioDummyWarpMine@@QAE@PAVioEntityGroup@@PAVioPlayMode@@@Z ENDP ; ioDummyWarpMine::ioDummyWarpMine
; Function compile flags: /Ogsp
;	COMDAT ??_GioDummyWarpMine@@UAEPAXI@Z
_TEXT	SEGMENT
___flags$ = 8						; size = 4
??_GioDummyWarpMine@@UAEPAXI@Z PROC			; ioDummyWarpMine::`scalar deleting destructor', COMDAT
; _this$ = ecx
  00000	55		 push	 ebp
  00001	8b ec		 mov	 ebp, esp
  00003	56		 push	 esi
  00004	8b f1		 mov	 esi, ecx
  00006	e8 00 00 00 00	 call	 ??1ioDummyWarpMine@@UAE@XZ ; ioDummyWarpMine::~ioDummyWarpMine
  0000b	f6 45 08 01	 test	 BYTE PTR ___flags$[ebp], 1
  0000f	74 07		 je	 SHORT $LN1@scalar@2
  00011	56		 push	 esi
  00012	e8 00 00 00 00	 call	 ??3@YAXPAX@Z		; operator delete
  00017	59		 pop	 ecx
$LN1@scalar@2:
  00018	8b c6		 mov	 eax, esi
  0001a	5e		 pop	 esi
  0001b	5d		 pop	 ebp
  0001c	c2 04 00	 ret	 4
??_GioDummyWarpMine@@UAEPAXI@Z ENDP			; ioDummyWarpMine::`scalar deleting destructor'
_TEXT	ENDS
PUBLIC	??_C@_00CNPNBAHC@?$AA@				; `string'
PUBLIC	?ProcessStartState@ioDummyWarpMine@@IAEXM@Z	; ioDummyWarpMine::ProcessStartState
EXTRN	__imp_?GetLoopSec@ioFrameTimer@@QBEKXZ:PROC
EXTRN	__imp_?GetSingleton@ioFrameTimer@@SAAAV1@XZ:PROC
EXTRN	?CreateAreaWeapon@ioAreaWeaponManager@@QAEPAVioAreaWeapon@@ABVioHashString@@000ABUD3DXVECTOR3@@ABUD3DXQUATERNION@@H@Z:PROC ; ioAreaWeaponManager::CreateAreaWeapon
EXTRN	?GetSingleton@ioAreaWeaponManager@@SAAAV1@XZ:PROC ; ioAreaWeaponManager::GetSingleton
EXTRN	__imp_??0ioHashString@@QAE@PBD@Z:PROC
EXTRN	__imp_?AttachEffect@ioEntityGroup@@QAEPAVioEffect@@ABVioHashString@@PAVioEntityEvent@@ABUD3DXQUATERNION@@ABUD3DXVECTOR3@@_N@Z:PROC
EXTRN	__imp_?QUAT_IDENTITY@ioMath@@2UD3DXQUATERNION@@A:BYTE
EXTRN	__imp_?VEC3_ZERO@ioMath@@2UD3DXVECTOR3@@A:BYTE
EXTRN	?SetAttachWeapon@ioDummyChar@@IAEXXZ:PROC	; ioDummyChar::SetAttachWeapon
EXTRN	__EH_epilog3_GS:PROC
EXTRN	__EH_prolog3_GS:PROC
;	COMDAT ??_C@_00CNPNBAHC@?$AA@
; File d:\lost saga for developer\youtube\tutorial\source\src\lsclient\ioareaweapon.h
CONST	SEGMENT
??_C@_00CNPNBAHC@?$AA@ DB 00H				; `string'
CONST	ENDS
;	COMDAT xdata$x
xdata$x	SEGMENT
__unwindtable$?ProcessStartState@ioDummyWarpMine@@IAEXM@Z DD 0ffffffffH
	DD	FLAT:__unwindfunclet$?ProcessStartState@ioDummyWarpMine@@IAEXM@Z$0
	DD	00H
	DD	FLAT:__unwindfunclet$?ProcessStartState@ioDummyWarpMine@@IAEXM@Z$1
__ehfuncinfo$?ProcessStartState@ioDummyWarpMine@@IAEXM@Z DD 019930522H
	DD	02H
	DD	FLAT:__unwindtable$?ProcessStartState@ioDummyWarpMine@@IAEXM@Z
	DD	2 DUP(00H)
	DD	2 DUP(00H)
	DD	00H
	DD	01H
; Function compile flags: /Ogsp
; File d:\lost saga for developer\youtube\tutorial\source\src\lsclient\iodummywarpmine.cpp
xdata$x	ENDS
;	COMDAT ?ProcessStartState@ioDummyWarpMine@@IAEXM@Z
_TEXT	SEGMENT
$T554582 = -60						; size = 16
$T554583 = -44						; size = 16
_vPos$ = -28						; size = 12
__$EHRec$ = -12						; size = 12
_fTimePerSec$ = 8					; size = 4
?ProcessStartState@ioDummyWarpMine@@IAEXM@Z PROC	; ioDummyWarpMine::ProcessStartState, COMDAT
; _this$ = ecx

; 90   : {	

  00000	6a 30		 push	 48			; 00000030H
  00002	b8 00 00 00 00	 mov	 eax, __ehhandler$?ProcessStartState@ioDummyWarpMine@@IAEXM@Z
  00007	e8 00 00 00 00	 call	 __EH_prolog3_GS
  0000c	8b d9		 mov	 ebx, ecx

; 91   : 	SetAttachWeapon();

  0000e	e8 00 00 00 00	 call	 ?SetAttachWeapon@ioDummyChar@@IAEXXZ ; ioDummyChar::SetAttachWeapon

; 92   : 
; 93   : 	//  
; 94   : 	D3DXVECTOR3 vPos = GetWorldPosition();

  00013	8b 03		 mov	 eax, DWORD PTR [ebx]
  00015	8b cb		 mov	 ecx, ebx
  00017	ff 50 70	 call	 DWORD PTR [eax+112]

; 95   : 	vPos.y += m_fHeightOffset;

  0001a	f3 0f 10 83 2c
	07 00 00	 movss	 xmm0, DWORD PTR [ebx+1836]
  00022	8b f0		 mov	 esi, eax

; 96   : 	SetWorldPosition( vPos );

  00024	8b 03		 mov	 eax, DWORD PTR [ebx]
  00026	8d 7d e4	 lea	 edi, DWORD PTR _vPos$[ebp]
  00029	a5		 movsd
  0002a	a5		 movsd
  0002b	a5		 movsd
  0002c	f3 0f 10 4d e8	 movss	 xmm1, DWORD PTR _vPos$[ebp+4]
  00031	0f 5a c0	 cvtps2pd xmm0, xmm0
  00034	8d 4d e4	 lea	 ecx, DWORD PTR _vPos$[ebp]
  00037	0f 5a c9	 cvtps2pd xmm1, xmm1
  0003a	f2 0f 58 c1	 addsd	 xmm0, xmm1
  0003e	51		 push	 ecx
  0003f	66 0f 5a c0	 cvtpd2ps xmm0, xmm0
  00043	8b cb		 mov	 ecx, ebx
  00045	f3 0f 11 45 e8	 movss	 DWORD PTR _vPos$[ebp+4], xmm0
  0004a	ff 50 44	 call	 DWORD PTR [eax+68]

; 97   : 
; 98   : 	if ( !m_szAttachEffect.IsEmpty() )

  0004d	8d b3 e4 14 00
	00		 lea	 esi, DWORD PTR [ebx+5348]
  00053	8b ce		 mov	 ecx, esi
  00055	ff 15 00 00 00
	00		 call	 DWORD PTR __imp_?IsEmpty@ioHashString@@QBE_NXZ
  0005b	84 c0		 test	 al, al
  0005d	75 1a		 jne	 SHORT $LN3@ProcessSta

; 99   : 		m_pGroup->AttachEffect( m_szAttachEffect, NULL );

  0005f	8b 4b 04	 mov	 ecx, DWORD PTR [ebx+4]
  00062	6a 01		 push	 1
  00064	ff 35 00 00 00
	00		 push	 DWORD PTR __imp_?VEC3_ZERO@ioMath@@2UD3DXVECTOR3@@A
  0006a	ff 35 00 00 00
	00		 push	 DWORD PTR __imp_?QUAT_IDENTITY@ioMath@@2UD3DXQUATERNION@@A
  00070	6a 00		 push	 0
  00072	56		 push	 esi
  00073	ff 15 00 00 00
	00		 call	 DWORD PTR __imp_?AttachEffect@ioEntityGroup@@QAEPAVioEffect@@ABVioHashString@@PAVioEntityEvent@@ABUD3DXQUATERNION@@ABUD3DXVECTOR3@@_N@Z
$LN3@ProcessSta:

; 100  : 
; 101  : 	if ( !m_szAreaWeaponName.IsEmpty() )

  00079	8d 8b d4 14 00
	00		 lea	 ecx, DWORD PTR [ebx+5332]
  0007f	ff 15 00 00 00
	00		 call	 DWORD PTR __imp_?IsEmpty@ioHashString@@QBE_NXZ
  00085	84 c0		 test	 al, al
  00087	75 7a		 jne	 SHORT $LN1@ProcessSta

; 102  : 	{
; 103  : 		ioAreaWeapon *pAreaWeapon = g_AreaWeaponMgr.CreateAreaWeapon( m_OwnerName,
; 104  : 			"",
; 105  : 			"",
; 106  : 			m_szAreaWeaponName,
; 107  : 			GetWorldPosition(),
; 108  : 			GetWorldOrientation(),		
; 109  : 			ioAreaWeapon::CT_NORMAL );

  00089	8b 35 00 00 00
	00		 mov	 esi, DWORD PTR __imp_??0ioHashString@@QAE@PBD@Z
  0008f	bf 00 00 00 00	 mov	 edi, OFFSET ??_C@_00CNPNBAHC@?$AA@
  00094	57		 push	 edi
  00095	8d 4d c4	 lea	 ecx, DWORD PTR $T554582[ebp]
  00098	ff d6		 call	 esi
  0009a	83 65 fc 00	 and	 DWORD PTR __$EHRec$[ebp+8], 0
  0009e	57		 push	 edi
  0009f	8d 4d d4	 lea	 ecx, DWORD PTR $T554583[ebp]
  000a2	ff d6		 call	 esi
  000a4	8b 03		 mov	 eax, DWORD PTR [ebx]
  000a6	6a 00		 push	 0
  000a8	8b cb		 mov	 ecx, ebx
  000aa	c6 45 fc 01	 mov	 BYTE PTR __$EHRec$[ebp+8], 1
  000ae	ff 50 74	 call	 DWORD PTR [eax+116]
  000b1	50		 push	 eax
  000b2	8b 03		 mov	 eax, DWORD PTR [ebx]
  000b4	8b cb		 mov	 ecx, ebx
  000b6	ff 50 70	 call	 DWORD PTR [eax+112]
  000b9	50		 push	 eax
  000ba	8d 83 d4 14 00
	00		 lea	 eax, DWORD PTR [ebx+5332]
  000c0	50		 push	 eax
  000c1	8d 45 c4	 lea	 eax, DWORD PTR $T554582[ebp]
  000c4	50		 push	 eax
  000c5	8d 45 d4	 lea	 eax, DWORD PTR $T554583[ebp]
  000c8	50		 push	 eax
  000c9	8d 83 cc 01 00
	00		 lea	 eax, DWORD PTR [ebx+460]
  000cf	50		 push	 eax
  000d0	e8 00 00 00 00	 call	 ?GetSingleton@ioAreaWeaponManager@@SAAAV1@XZ ; ioAreaWeaponManager::GetSingleton
  000d5	8b c8		 mov	 ecx, eax
  000d7	e8 00 00 00 00	 call	 ?CreateAreaWeapon@ioAreaWeaponManager@@QAEPAVioAreaWeapon@@ABVioHashString@@000ABUD3DXVECTOR3@@ABUD3DXQUATERNION@@H@Z ; ioAreaWeaponManager::CreateAreaWeapon
  000dc	8b 35 00 00 00
	00		 mov	 esi, DWORD PTR __imp_??1ioHashString@@QAE@XZ
  000e2	8d 4d d4	 lea	 ecx, DWORD PTR $T554583[ebp]
  000e5	8b f8		 mov	 edi, eax
  000e7	c6 45 fc 00	 mov	 BYTE PTR __$EHRec$[ebp+8], 0
  000eb	ff d6		 call	 esi
  000ed	83 4d fc ff	 or	 DWORD PTR __$EHRec$[ebp+8], -1
  000f1	8d 4d c4	 lea	 ecx, DWORD PTR $T554582[ebp]
  000f4	ff d6		 call	 esi

; 110  : 
; 111  : 		if ( pAreaWeapon )

  000f6	85 ff		 test	 edi, edi
  000f8	74 09		 je	 SHORT $LN1@ProcessSta

; 112  : 			m_dwAreaWeaponIdx = pAreaWeapon->GetAreaWeaponIndex();

  000fa	8b 47 14	 mov	 eax, DWORD PTR [edi+20]
  000fd	89 83 f4 14 00
	00		 mov	 DWORD PTR [ebx+5364], eax
$LN1@ProcessSta:

; 113  : 	}
; 114  : 
; 115  : 	m_MineState = DMS_SENSING;

  00103	c7 83 80 14 00
	00 01 00 00 00	 mov	 DWORD PTR [ebx+5248], 1

; 116  : 	m_dwCheckSensingTime = FRAMEGETTIME();

  0010d	ff 15 00 00 00
	00		 call	 DWORD PTR __imp_?GetSingleton@ioFrameTimer@@SAAAV1@XZ
  00113	8b c8		 mov	 ecx, eax
  00115	ff 15 00 00 00
	00		 call	 DWORD PTR __imp_?GetLoopSec@ioFrameTimer@@QBEKXZ

; 117  : 	m_dwCheckEndDelayTime = 0;

  0011b	83 a3 b8 14 00
	00 00		 and	 DWORD PTR [ebx+5304], 0
  00122	89 83 b0 14 00
	00		 mov	 DWORD PTR [ebx+5296], eax

; 118  : }

  00128	e8 00 00 00 00	 call	 __EH_epilog3_GS
  0012d	c2 04 00	 ret	 4
_TEXT	ENDS
;	COMDAT text$x
text$x	SEGMENT
__unwindfunclet$?ProcessStartState@ioDummyWarpMine@@IAEXM@Z$0:
  00000	8d 4d c4	 lea	 ecx, DWORD PTR $T554582[ebp]
  00003	ff 25 00 00 00
	00		 jmp	 DWORD PTR __imp_??1ioHashString@@QAE@XZ
__unwindfunclet$?ProcessStartState@ioDummyWarpMine@@IAEXM@Z$1:
  00009	8d 4d d4	 lea	 ecx, DWORD PTR $T554583[ebp]
  0000c	ff 25 00 00 00
	00		 jmp	 DWORD PTR __imp_??1ioHashString@@QAE@XZ
__ehhandler$?ProcessStartState@ioDummyWarpMine@@IAEXM@Z:
  00012	8b 54 24 08	 mov	 edx, DWORD PTR [esp+8]
  00016	8d 42 0c	 lea	 eax, DWORD PTR [edx+12]
  00019	8b 4a c0	 mov	 ecx, DWORD PTR [edx-64]
  0001c	33 c8		 xor	 ecx, eax
  0001e	e8 00 00 00 00	 call	 @__security_check_cookie@4
  00023	8b 4a fc	 mov	 ecx, DWORD PTR [edx-4]
  00026	33 c8		 xor	 ecx, eax
  00028	e8 00 00 00 00	 call	 @__security_check_cookie@4
  0002d	b8 00 00 00 00	 mov	 eax, OFFSET __ehfuncinfo$?ProcessStartState@ioDummyWarpMine@@IAEXM@Z
  00032	e9 00 00 00 00	 jmp	 ___CxxFrameHandler3
text$x	ENDS
?ProcessStartState@ioDummyWarpMine@@IAEXM@Z ENDP	; ioDummyWarpMine::ProcessStartState
PUBLIC	?CreateWeapon@ioDummyWarpMine@@IAEXHABUD3DXVECTOR3@@0@Z ; ioDummyWarpMine::CreateWeapon
EXTRN	?SetPosition@ioWeapon@@QAEXABUD3DXVECTOR3@@@Z:PROC ; ioWeapon::SetPosition
EXTRN	?ExtendFireExplicit@ioBaseChar@@QAEPAVioWeapon@@ABUFireTime@@ABUD3DXVECTOR3@@1ABVioHashString@@@Z:PROC ; ioBaseChar::ExtendFireExplicit
EXTRN	?SetWeaponIndexBase@ioBaseChar@@QAEXK@Z:PROC	; ioBaseChar::SetWeaponIndexBase
EXTRN	__imp_??4ioHashString@@QAEAAV0@PBD@Z:PROC
EXTRN	?GetWeaponIndexBase@ioBaseChar@@QBEKXZ:PROC	; ioBaseChar::GetWeaponIndexBase
EXTRN	?GetOwner@ioDummyChar@@QBEPAVioBaseChar@@XZ:PROC ; ioDummyChar::GetOwner
;	COMDAT xdata$x
xdata$x	SEGMENT
__unwindtable$?CreateWeapon@ioDummyWarpMine@@IAEXHABUD3DXVECTOR3@@0@Z DD 0ffffffffH
	DD	FLAT:__unwindfunclet$?CreateWeapon@ioDummyWarpMine@@IAEXHABUD3DXVECTOR3@@0@Z$0
	DD	00H
	DD	FLAT:__unwindfunclet$?CreateWeapon@ioDummyWarpMine@@IAEXHABUD3DXVECTOR3@@0@Z$1
__ehfuncinfo$?CreateWeapon@ioDummyWarpMine@@IAEXHABUD3DXVECTOR3@@0@Z DD 019930522H
	DD	02H
	DD	FLAT:__unwindtable$?CreateWeapon@ioDummyWarpMine@@IAEXHABUD3DXVECTOR3@@0@Z
	DD	2 DUP(00H)
	DD	2 DUP(00H)
	DD	00H
	DD	01H
; Function compile flags: /Ogsp
xdata$x	ENDS
;	COMDAT ?CreateWeapon@ioDummyWarpMine@@IAEXHABUD3DXVECTOR3@@0@Z
_TEXT	SEGMENT
_kFireTime$ = -120					; size = 88
$T554603 = -32						; size = 16
_pOwner$ = -16						; size = 4
__$EHRec$ = -12						; size = 12
_nAttackIndex$ = 8					; size = 4
_vPos$ = 12						; size = 4
_vDir$ = 16						; size = 4
?CreateWeapon@ioDummyWarpMine@@IAEXHABUD3DXVECTOR3@@0@Z PROC ; ioDummyWarpMine::CreateWeapon, COMDAT
; _this$ = ecx

; 272  : {

  00000	6a 6c		 push	 108			; 0000006cH
  00002	b8 00 00 00 00	 mov	 eax, __ehhandler$?CreateWeapon@ioDummyWarpMine@@IAEXHABUD3DXVECTOR3@@0@Z
  00007	e8 00 00 00 00	 call	 __EH_prolog3
  0000c	8b f9		 mov	 edi, ecx

; 273  : 	ioBaseChar *pOwner = GetOwner();

  0000e	e8 00 00 00 00	 call	 ?GetOwner@ioDummyChar@@QBEPAVioBaseChar@@XZ ; ioDummyChar::GetOwner
  00013	8b c8		 mov	 ecx, eax

; 274  : 
; 275  : 	if ( !pOwner )

  00015	33 db		 xor	 ebx, ebx
  00017	89 4d f0	 mov	 DWORD PTR _pOwner$[ebp], ecx
  0001a	3b cb		 cmp	 ecx, ebx
  0001c	0f 84 ab 00 00
	00		 je	 $LN3@CreateWeap

; 276  : 		return;
; 277  : 	
; 278  : 	m_dwBaseWeaponIndex = pOwner->GetWeaponIndexBase() + 1;

  00022	e8 00 00 00 00	 call	 ?GetWeaponIndexBase@ioBaseChar@@QBEKXZ ; ioBaseChar::GetWeaponIndexBase
  00027	40		 inc	 eax

; 279  : 
; 280  : 	FireTime kFireTime;

  00028	8d 4d 88	 lea	 ecx, DWORD PTR _kFireTime$[ebp]
  0002b	89 87 30 06 00
	00		 mov	 DWORD PTR [edi+1584], eax
  00031	e8 00 00 00 00	 call	 ??0FireTime@@QAE@XZ	; FireTime::FireTime
  00036	89 5d fc	 mov	 DWORD PTR __$EHRec$[ebp+8], ebx

; 281  : 	kFireTime.dwStart = FRAMEGETTIME();

  00039	ff 15 00 00 00
	00		 call	 DWORD PTR __imp_?GetSingleton@ioFrameTimer@@SAAAV1@XZ
  0003f	8b c8		 mov	 ecx, eax
  00041	ff 15 00 00 00
	00		 call	 DWORD PTR __imp_?GetLoopSec@ioFrameTimer@@QBEKXZ
  00047	89 45 88	 mov	 DWORD PTR _kFireTime$[ebp], eax

; 282  : 
; 283  : 	kFireTime.iAttributeIdx = nAttackIndex;

  0004a	8b 45 08	 mov	 eax, DWORD PTR _nAttackIndex$[ebp]

; 284  : 	kFireTime.iResistanceIdx = 0;
; 285  : 	kFireTime.szWoundedAni  = "";

  0004d	be 00 00 00 00	 mov	 esi, OFFSET ??_C@_00CNPNBAHC@?$AA@
  00052	56		 push	 esi
  00053	8d 4d 9c	 lea	 ecx, DWORD PTR _kFireTime$[ebp+20]
  00056	89 45 90	 mov	 DWORD PTR _kFireTime$[ebp+8], eax
  00059	89 5d 94	 mov	 DWORD PTR _kFireTime$[ebp+12], ebx
  0005c	ff 15 00 00 00
	00		 call	 DWORD PTR __imp_??4ioHashString@@QAEAAV0@PBD@Z

; 286  : 	kFireTime.dwWoundedAniDuration = 0;
; 287  : 	kFireTime.bLoopWoundedAni = false;
; 288  : 	kFireTime.dwWeaponIdx = m_dwBaseWeaponIndex;

  00062	8b 87 30 06 00
	00		 mov	 eax, DWORD PTR [edi+1584]

; 289  : 	kFireTime.eFireTimeType = FTT_DUMMY_CHAR_ATTACK;
; 290  : 
; 291  : 	pOwner->SetWeaponIndexBase( m_dwBaseWeaponIndex );

  00068	8b 4d f0	 mov	 ecx, DWORD PTR _pOwner$[ebp]
  0006b	50		 push	 eax
  0006c	89 5d ac	 mov	 DWORD PTR _kFireTime$[ebp+36], ebx
  0006f	88 5d 98	 mov	 BYTE PTR _kFireTime$[ebp+16], bl
  00072	89 45 b0	 mov	 DWORD PTR _kFireTime$[ebp+40], eax
  00075	c7 45 c8 0b 00
	00 00		 mov	 DWORD PTR _kFireTime$[ebp+64], 11 ; 0000000bH
  0007c	e8 00 00 00 00	 call	 ?SetWeaponIndexBase@ioBaseChar@@QAEXK@Z ; ioBaseChar::SetWeaponIndexBase

; 292  : 
; 293  : 	ioWeapon *pWeapon = pOwner->ExtendFireExplicit( kFireTime, vPos, vDir, "" );

  00081	56		 push	 esi
  00082	8d 4d e0	 lea	 ecx, DWORD PTR $T554603[ebp]
  00085	ff 15 00 00 00
	00		 call	 DWORD PTR __imp_??0ioHashString@@QAE@PBD@Z
  0008b	8b 4d f0	 mov	 ecx, DWORD PTR _pOwner$[ebp]
  0008e	8d 45 e0	 lea	 eax, DWORD PTR $T554603[ebp]
  00091	50		 push	 eax
  00092	ff 75 10	 push	 DWORD PTR _vDir$[ebp]
  00095	8d 45 88	 lea	 eax, DWORD PTR _kFireTime$[ebp]
  00098	ff 75 0c	 push	 DWORD PTR _vPos$[ebp]
  0009b	c6 45 fc 01	 mov	 BYTE PTR __$EHRec$[ebp+8], 1
  0009f	50		 push	 eax
  000a0	e8 00 00 00 00	 call	 ?ExtendFireExplicit@ioBaseChar@@QAEPAVioWeapon@@ABUFireTime@@ABUD3DXVECTOR3@@1ABVioHashString@@@Z ; ioBaseChar::ExtendFireExplicit
  000a5	8d 4d e0	 lea	 ecx, DWORD PTR $T554603[ebp]
  000a8	8b f0		 mov	 esi, eax
  000aa	88 5d fc	 mov	 BYTE PTR __$EHRec$[ebp+8], bl
  000ad	ff 15 00 00 00
	00		 call	 DWORD PTR __imp_??1ioHashString@@QAE@XZ

; 294  : 	if ( pWeapon )

  000b3	3b f3		 cmp	 esi, ebx
  000b5	74 0a		 je	 SHORT $LN1@CreateWeap

; 295  : 		pWeapon->SetPosition( vPos );

  000b7	ff 75 0c	 push	 DWORD PTR _vPos$[ebp]
  000ba	8b ce		 mov	 ecx, esi
  000bc	e8 00 00 00 00	 call	 ?SetPosition@ioWeapon@@QAEXABUD3DXVECTOR3@@@Z ; ioWeapon::SetPosition
$LN1@CreateWeap:

; 296  : }

  000c1	83 4d fc ff	 or	 DWORD PTR __$EHRec$[ebp+8], -1
  000c5	8d 4d 88	 lea	 ecx, DWORD PTR _kFireTime$[ebp]
  000c8	e8 00 00 00 00	 call	 ??1FireTime@@QAE@XZ
$LN3@CreateWeap:
  000cd	e8 00 00 00 00	 call	 __EH_epilog3
  000d2	c2 0c 00	 ret	 12			; 0000000cH
_TEXT	ENDS
;	COMDAT text$x
text$x	SEGMENT
__unwindfunclet$?CreateWeapon@ioDummyWarpMine@@IAEXHABUD3DXVECTOR3@@0@Z$0:
  00000	8d 4d 88	 lea	 ecx, DWORD PTR _kFireTime$[ebp]
  00003	e9 00 00 00 00	 jmp	 ??1FireTime@@QAE@XZ
__unwindfunclet$?CreateWeapon@ioDummyWarpMine@@IAEXHABUD3DXVECTOR3@@0@Z$1:
  00008	8d 4d e0	 lea	 ecx, DWORD PTR $T554603[ebp]
  0000b	ff 25 00 00 00
	00		 jmp	 DWORD PTR __imp_??1ioHashString@@QAE@XZ
__ehhandler$?CreateWeapon@ioDummyWarpMine@@IAEXHABUD3DXVECTOR3@@0@Z:
  00011	8b 54 24 08	 mov	 edx, DWORD PTR [esp+8]
  00015	8d 42 0c	 lea	 eax, DWORD PTR [edx+12]
  00018	8b 4a 84	 mov	 ecx, DWORD PTR [edx-124]
  0001b	33 c8		 xor	 ecx, eax
  0001d	e8 00 00 00 00	 call	 @__security_check_cookie@4
  00022	b8 00 00 00 00	 mov	 eax, OFFSET __ehfuncinfo$?CreateWeapon@ioDummyWarpMine@@IAEXHABUD3DXVECTOR3@@0@Z
  00027	e9 00 00 00 00	 jmp	 ___CxxFrameHandler3
text$x	ENDS
?CreateWeapon@ioDummyWarpMine@@IAEXHABUD3DXVECTOR3@@0@Z ENDP ; ioDummyWarpMine::CreateWeapon
PUBLIC	??N?$CEncrypt@M@@QAE_NABM@Z			; CEncrypt<float>::operator<=
; Function compile flags: /Ogsp
; File d:\lost saga for developer\youtube\tutorial\source\src\lsclient\encryptvalue.h
;	COMDAT ??N?$CEncrypt@M@@QAE_NABM@Z
_TEXT	SEGMENT
_value$ = -4						; size = 4
_inValue$ = 8						; size = 4
??N?$CEncrypt@M@@QAE_NABM@Z PROC			; CEncrypt<float>::operator<=, COMDAT
; _this$ = ecx

; 1821 : 	{

  00000	55		 push	 ebp
  00001	8b ec		 mov	 ebp, esp
  00003	51		 push	 ecx

; 1822 : 		type value;
; 1823 : 		DecryptValueToPool(&value);

  00004	8d 45 fc	 lea	 eax, DWORD PTR _value$[ebp]
  00007	50		 push	 eax
  00008	e8 00 00 00 00	 call	 ?DecryptValueToPool@?$CEncrypt@M@@QAEXPAM@Z ; CEncrypt<float>::DecryptValueToPool

; 1824 : #ifdef _NOTUSE
; 1825 : 		Debug();
; 1826 : #endif
; 1827 : 		return (value <= inValue);

  0000d	8b 45 08	 mov	 eax, DWORD PTR _inValue$[ebp]
  00010	f3 0f 10 08	 movss	 xmm1, DWORD PTR [eax]
  00014	f3 0f 10 45 fc	 movss	 xmm0, DWORD PTR _value$[ebp]
  00019	0f 5a c0	 cvtps2pd xmm0, xmm0
  0001c	0f 5a c9	 cvtps2pd xmm1, xmm1
  0001f	33 c0		 xor	 eax, eax
  00021	66 0f 2f c8	 comisd	 xmm1, xmm0
  00025	72 01		 jb	 SHORT $LN4@operator
  00027	40		 inc	 eax
$LN4@operator:

; 1828 : 	}

  00028	c9		 leave
  00029	c2 04 00	 ret	 4
??N?$CEncrypt@M@@QAE_NABM@Z ENDP			; CEncrypt<float>::operator<=
_TEXT	ENDS
PUBLIC	?begin@?$vector@PAVioBaseChar@@V?$allocator@PAVioBaseChar@@@std@@@std@@QBE?AV?$_Vector_const_iterator@V?$_Vector_val@PAVioBaseChar@@V?$allocator@PAVioBaseChar@@@std@@@std@@@2@XZ ; std::vector<ioBaseChar *,std::allocator<ioBaseChar *> >::begin
; Function compile flags: /Ogsp
; File c:\program files (x86)\microsoft visual studio 10.0\vc\include\vector
;	COMDAT ?begin@?$vector@PAVioBaseChar@@V?$allocator@PAVioBaseChar@@@std@@@std@@QBE?AV?$_Vector_const_iterator@V?$_Vector_val@PAVioBaseChar@@V?$allocator@PAVioBaseChar@@@std@@@std@@@2@XZ
_TEXT	SEGMENT
___$ReturnUdt$ = 8					; size = 4
?begin@?$vector@PAVioBaseChar@@V?$allocator@PAVioBaseChar@@@std@@@std@@QBE?AV?$_Vector_const_iterator@V?$_Vector_val@PAVioBaseChar@@V?$allocator@PAVioBaseChar@@@std@@@std@@@2@XZ PROC ; std::vector<ioBaseChar *,std::allocator<ioBaseChar *> >::begin, COMDAT
; _this$ = ecx

; 786  : 		{	// return iterator for beginning of nonmutable sequence

  00000	55		 push	 ebp
  00001	8b ec		 mov	 ebp, esp

; 787  : 		return (const_iterator(this->_Myfirst, this));

  00003	8b 09		 mov	 ecx, DWORD PTR [ecx]
  00005	8b 45 08	 mov	 eax, DWORD PTR ___$ReturnUdt$[ebp]
  00008	89 08		 mov	 DWORD PTR [eax], ecx

; 788  : 		}

  0000a	5d		 pop	 ebp
  0000b	c2 04 00	 ret	 4
?begin@?$vector@PAVioBaseChar@@V?$allocator@PAVioBaseChar@@@std@@@std@@QBE?AV?$_Vector_const_iterator@V?$_Vector_val@PAVioBaseChar@@V?$allocator@PAVioBaseChar@@@std@@@std@@@2@XZ ENDP ; std::vector<ioBaseChar *,std::allocator<ioBaseChar *> >::begin
_TEXT	ENDS
PUBLIC	?end@?$vector@PAVioBaseChar@@V?$allocator@PAVioBaseChar@@@std@@@std@@QBE?AV?$_Vector_const_iterator@V?$_Vector_val@PAVioBaseChar@@V?$allocator@PAVioBaseChar@@@std@@@std@@@2@XZ ; std::vector<ioBaseChar *,std::allocator<ioBaseChar *> >::end
; Function compile flags: /Ogsp
;	COMDAT ?end@?$vector@PAVioBaseChar@@V?$allocator@PAVioBaseChar@@@std@@@std@@QBE?AV?$_Vector_const_iterator@V?$_Vector_val@PAVioBaseChar@@V?$allocator@PAVioBaseChar@@@std@@@std@@@2@XZ
_TEXT	SEGMENT
___$ReturnUdt$ = 8					; size = 4
?end@?$vector@PAVioBaseChar@@V?$allocator@PAVioBaseChar@@@std@@@std@@QBE?AV?$_Vector_const_iterator@V?$_Vector_val@PAVioBaseChar@@V?$allocator@PAVioBaseChar@@@std@@@std@@@2@XZ PROC ; std::vector<ioBaseChar *,std::allocator<ioBaseChar *> >::end, COMDAT
; _this$ = ecx

; 796  : 		{	// return iterator for end of nonmutable sequence

  00000	55		 push	 ebp
  00001	8b ec		 mov	 ebp, esp

; 797  : 		return (const_iterator(this->_Mylast, this));

  00003	8b 49 04	 mov	 ecx, DWORD PTR [ecx+4]
  00006	8b 45 08	 mov	 eax, DWORD PTR ___$ReturnUdt$[ebp]
  00009	89 08		 mov	 DWORD PTR [eax], ecx

; 798  : 		}

  0000b	5d		 pop	 ebp
  0000c	c2 04 00	 ret	 4
?end@?$vector@PAVioBaseChar@@V?$allocator@PAVioBaseChar@@@std@@@std@@QBE?AV?$_Vector_const_iterator@V?$_Vector_val@PAVioBaseChar@@V?$allocator@PAVioBaseChar@@@std@@@std@@@2@XZ ENDP ; std::vector<ioBaseChar *,std::allocator<ioBaseChar *> >::end
_TEXT	ENDS
PUBLIC	?begin@?$vector@PAVioBaseChar@@V?$allocator@PAVioBaseChar@@@std@@@std@@QAE?AV?$_Vector_iterator@V?$_Vector_val@PAVioBaseChar@@V?$allocator@PAVioBaseChar@@@std@@@std@@@2@XZ ; std::vector<ioBaseChar *,std::allocator<ioBaseChar *> >::begin
; Function compile flags: /Ogsp
;	COMDAT ?begin@?$vector@PAVioBaseChar@@V?$allocator@PAVioBaseChar@@@std@@@std@@QAE?AV?$_Vector_iterator@V?$_Vector_val@PAVioBaseChar@@V?$allocator@PAVioBaseChar@@@std@@@std@@@2@XZ
_TEXT	SEGMENT
___$ReturnUdt$ = 8					; size = 4
?begin@?$vector@PAVioBaseChar@@V?$allocator@PAVioBaseChar@@@std@@@std@@QAE?AV?$_Vector_iterator@V?$_Vector_val@PAVioBaseChar@@V?$allocator@PAVioBaseChar@@@std@@@std@@@2@XZ PROC ; std::vector<ioBaseChar *,std::allocator<ioBaseChar *> >::begin, COMDAT
; _this$ = ecx

; 781  : 		{	// return iterator for beginning of mutable sequence

  00000	55		 push	 ebp
  00001	8b ec		 mov	 ebp, esp

; 782  : 		return (iterator(this->_Myfirst, this));

  00003	8b 09		 mov	 ecx, DWORD PTR [ecx]
  00005	8b 45 08	 mov	 eax, DWORD PTR ___$ReturnUdt$[ebp]
  00008	89 08		 mov	 DWORD PTR [eax], ecx

; 783  : 		}

  0000a	5d		 pop	 ebp
  0000b	c2 04 00	 ret	 4
?begin@?$vector@PAVioBaseChar@@V?$allocator@PAVioBaseChar@@@std@@@std@@QAE?AV?$_Vector_iterator@V?$_Vector_val@PAVioBaseChar@@V?$allocator@PAVioBaseChar@@@std@@@std@@@2@XZ ENDP ; std::vector<ioBaseChar *,std::allocator<ioBaseChar *> >::begin
_TEXT	ENDS
PUBLIC	?end@?$vector@PAVioBaseChar@@V?$allocator@PAVioBaseChar@@@std@@@std@@QAE?AV?$_Vector_iterator@V?$_Vector_val@PAVioBaseChar@@V?$allocator@PAVioBaseChar@@@std@@@std@@@2@XZ ; std::vector<ioBaseChar *,std::allocator<ioBaseChar *> >::end
; Function compile flags: /Ogsp
;	COMDAT ?end@?$vector@PAVioBaseChar@@V?$allocator@PAVioBaseChar@@@std@@@std@@QAE?AV?$_Vector_iterator@V?$_Vector_val@PAVioBaseChar@@V?$allocator@PAVioBaseChar@@@std@@@std@@@2@XZ
_TEXT	SEGMENT
___$ReturnUdt$ = 8					; size = 4
?end@?$vector@PAVioBaseChar@@V?$allocator@PAVioBaseChar@@@std@@@std@@QAE?AV?$_Vector_iterator@V?$_Vector_val@PAVioBaseChar@@V?$allocator@PAVioBaseChar@@@std@@@std@@@2@XZ PROC ; std::vector<ioBaseChar *,std::allocator<ioBaseChar *> >::end, COMDAT
; _this$ = ecx

; 791  : 		{	// return iterator for end of mutable sequence

  00000	55		 push	 ebp
  00001	8b ec		 mov	 ebp, esp

; 792  : 		return (iterator(this->_Mylast, this));

  00003	8b 49 04	 mov	 ecx, DWORD PTR [ecx+4]
  00006	8b 45 08	 mov	 eax, DWORD PTR ___$ReturnUdt$[ebp]
  00009	89 08		 mov	 DWORD PTR [eax], ecx

; 793  : 		}

  0000b	5d		 pop	 ebp
  0000c	c2 04 00	 ret	 4
?end@?$vector@PAVioBaseChar@@V?$allocator@PAVioBaseChar@@@std@@@std@@QAE?AV?$_Vector_iterator@V?$_Vector_val@PAVioBaseChar@@V?$allocator@PAVioBaseChar@@@std@@@std@@@2@XZ ENDP ; std::vector<ioBaseChar *,std::allocator<ioBaseChar *> >::end
_TEXT	ENDS
PUBLIC	??0?$_Vector_val@PAVioBaseChar@@V?$allocator@PAVioBaseChar@@@std@@@std@@QAE@V?$allocator@PAVioBaseChar@@@1@@Z ; std::_Vector_val<ioBaseChar *,std::allocator<ioBaseChar *> >::_Vector_val<ioBaseChar *,std::allocator<ioBaseChar *> >
; Function compile flags: /Ogsp
;	COMDAT ??0?$_Vector_val@PAVioBaseChar@@V?$allocator@PAVioBaseChar@@@std@@@std@@QAE@V?$allocator@PAVioBaseChar@@@1@@Z
_TEXT	SEGMENT
__Al$ = 8						; size = 1
??0?$_Vector_val@PAVioBaseChar@@V?$allocator@PAVioBaseChar@@@std@@@std@@QAE@V?$allocator@PAVioBaseChar@@@1@@Z PROC ; std::_Vector_val<ioBaseChar *,std::allocator<ioBaseChar *> >::_Vector_val<ioBaseChar *,std::allocator<ioBaseChar *> >, COMDAT
; _this$ = ecx

; 426  : 		{	// construct allocator from _Al

  00000	8b c1		 mov	 eax, ecx

; 427  : 		_Myfirst = 0;

  00002	33 c9		 xor	 ecx, ecx
  00004	89 08		 mov	 DWORD PTR [eax], ecx

; 428  : 		_Mylast = 0;

  00006	89 48 04	 mov	 DWORD PTR [eax+4], ecx

; 429  : 		_Myend = 0;

  00009	89 48 08	 mov	 DWORD PTR [eax+8], ecx

; 430  : 		}

  0000c	c2 04 00	 ret	 4
??0?$_Vector_val@PAVioBaseChar@@V?$allocator@PAVioBaseChar@@@std@@@std@@QAE@V?$allocator@PAVioBaseChar@@@1@@Z ENDP ; std::_Vector_val<ioBaseChar *,std::allocator<ioBaseChar *> >::_Vector_val<ioBaseChar *,std::allocator<ioBaseChar *> >
_TEXT	ENDS
PUBLIC	??8?$_Vector_const_iterator@V?$_Vector_val@PAVioBaseChar@@V?$allocator@PAVioBaseChar@@@std@@@std@@@std@@QBE_NABV01@@Z ; std::_Vector_const_iterator<std::_Vector_val<ioBaseChar *,std::allocator<ioBaseChar *> > >::operator==
; Function compile flags: /Ogsp
;	COMDAT ??8?$_Vector_const_iterator@V?$_Vector_val@PAVioBaseChar@@V?$allocator@PAVioBaseChar@@@std@@@std@@@std@@QBE_NABV01@@Z
_TEXT	SEGMENT
__Right$ = 8						; size = 4
??8?$_Vector_const_iterator@V?$_Vector_val@PAVioBaseChar@@V?$allocator@PAVioBaseChar@@@std@@@std@@@std@@QBE_NABV01@@Z PROC ; std::_Vector_const_iterator<std::_Vector_val<ioBaseChar *,std::allocator<ioBaseChar *> > >::operator==, COMDAT
; _this$ = ecx

; 201  : 		{	// test for iterator equality

  00000	55		 push	 ebp
  00001	8b ec		 mov	 ebp, esp

; 202  : 		_Compat(_Right);
; 203  : 		return (this->_Ptr == _Right._Ptr);

  00003	8b 01		 mov	 eax, DWORD PTR [ecx]
  00005	8b 4d 08	 mov	 ecx, DWORD PTR __Right$[ebp]
  00008	2b 01		 sub	 eax, DWORD PTR [ecx]
  0000a	f7 d8		 neg	 eax
  0000c	1b c0		 sbb	 eax, eax
  0000e	40		 inc	 eax

; 204  : 		}

  0000f	5d		 pop	 ebp
  00010	c2 04 00	 ret	 4
??8?$_Vector_const_iterator@V?$_Vector_val@PAVioBaseChar@@V?$allocator@PAVioBaseChar@@@std@@@std@@@std@@QBE_NABV01@@Z ENDP ; std::_Vector_const_iterator<std::_Vector_val<ioBaseChar *,std::allocator<ioBaseChar *> > >::operator==
_TEXT	ENDS
PUBLIC	?_Make_iter@?$vector@PAVioBaseChar@@V?$allocator@PAVioBaseChar@@@std@@@std@@QBE?AV?$_Vector_iterator@V?$_Vector_val@PAVioBaseChar@@V?$allocator@PAVioBaseChar@@@std@@@std@@@2@V?$_Vector_const_iterator@V?$_Vector_val@PAVioBaseChar@@V?$allocator@PAVioBaseChar@@@std@@@std@@@2@@Z ; std::vector<ioBaseChar *,std::allocator<ioBaseChar *> >::_Make_iter
; Function compile flags: /Ogsp
;	COMDAT ?_Make_iter@?$vector@PAVioBaseChar@@V?$allocator@PAVioBaseChar@@@std@@@std@@QBE?AV?$_Vector_iterator@V?$_Vector_val@PAVioBaseChar@@V?$allocator@PAVioBaseChar@@@std@@@std@@@2@V?$_Vector_const_iterator@V?$_Vector_val@PAVioBaseChar@@V?$allocator@PAVioBaseChar@@@std@@@std@@@2@@Z
_TEXT	SEGMENT
___$ReturnUdt$ = 8					; size = 4
__Where$ = 12						; size = 4
?_Make_iter@?$vector@PAVioBaseChar@@V?$allocator@PAVioBaseChar@@@std@@@std@@QBE?AV?$_Vector_iterator@V?$_Vector_val@PAVioBaseChar@@V?$allocator@PAVioBaseChar@@@std@@@std@@@2@V?$_Vector_const_iterator@V?$_Vector_val@PAVioBaseChar@@V?$allocator@PAVioBaseChar@@@std@@@std@@@2@@Z PROC ; std::vector<ioBaseChar *,std::allocator<ioBaseChar *> >::_Make_iter, COMDAT
; _this$ = ecx

; 801  : 		{	// make iterator from const_iterator

  00000	55		 push	 ebp
  00001	8b ec		 mov	 ebp, esp

; 802  : 		return (iterator(_Where._Ptr, this));

  00003	8b 45 08	 mov	 eax, DWORD PTR ___$ReturnUdt$[ebp]
  00006	8b 4d 0c	 mov	 ecx, DWORD PTR __Where$[ebp]
  00009	89 08		 mov	 DWORD PTR [eax], ecx

; 803  : 		}

  0000b	5d		 pop	 ebp
  0000c	c2 08 00	 ret	 8
?_Make_iter@?$vector@PAVioBaseChar@@V?$allocator@PAVioBaseChar@@@std@@@std@@QBE?AV?$_Vector_iterator@V?$_Vector_val@PAVioBaseChar@@V?$allocator@PAVioBaseChar@@@std@@@std@@@2@V?$_Vector_const_iterator@V?$_Vector_val@PAVioBaseChar@@V?$allocator@PAVioBaseChar@@@std@@@std@@@2@@Z ENDP ; std::vector<ioBaseChar *,std::allocator<ioBaseChar *> >::_Make_iter
_TEXT	ENDS
PUBLIC	?max_size@?$vector@PAVioBaseChar@@V?$allocator@PAVioBaseChar@@@std@@@std@@QBEIXZ ; std::vector<ioBaseChar *,std::allocator<ioBaseChar *> >::max_size
; Function compile flags: /Ogsp
;	COMDAT ?max_size@?$vector@PAVioBaseChar@@V?$allocator@PAVioBaseChar@@@std@@@std@@QBEIXZ
_TEXT	SEGMENT
?max_size@?$vector@PAVioBaseChar@@V?$allocator@PAVioBaseChar@@@std@@@std@@QBEIXZ PROC ; std::vector<ioBaseChar *,std::allocator<ioBaseChar *> >::max_size, COMDAT
; _this$ = ecx

; 884  : 		return (this->_Alval.max_size());

  00000	b8 ff ff ff 3f	 mov	 eax, 1073741823		; 3fffffffH

; 885  : 		}

  00005	c3		 ret	 0
?max_size@?$vector@PAVioBaseChar@@V?$allocator@PAVioBaseChar@@@std@@@std@@QBEIXZ ENDP ; std::vector<ioBaseChar *,std::allocator<ioBaseChar *> >::max_size
_TEXT	ENDS
PUBLIC	?_Grow_to@?$vector@PAVioBaseChar@@V?$allocator@PAVioBaseChar@@@std@@@std@@IBEII@Z ; std::vector<ioBaseChar *,std::allocator<ioBaseChar *> >::_Grow_to
; Function compile flags: /Ogsp
;	COMDAT ?_Grow_to@?$vector@PAVioBaseChar@@V?$allocator@PAVioBaseChar@@@std@@@std@@IBEII@Z
_TEXT	SEGMENT
__Count$ = 8						; size = 4
?_Grow_to@?$vector@PAVioBaseChar@@V?$allocator@PAVioBaseChar@@@std@@@std@@IBEII@Z PROC ; std::vector<ioBaseChar *,std::allocator<ioBaseChar *> >::_Grow_to, COMDAT
; _this$ = ecx

; 1274 : 		{	// grow by 50% or at least to _Count

  00000	55		 push	 ebp
  00001	8b ec		 mov	 ebp, esp

; 1275 : 		size_type _Capacity = capacity();

  00003	8b 41 08	 mov	 eax, DWORD PTR [ecx+8]
  00006	2b 01		 sub	 eax, DWORD PTR [ecx]

; 1276 : 
; 1277 : 		_Capacity = max_size() - _Capacity / 2 < _Capacity
; 1278 : 			? 0 : _Capacity + _Capacity / 2;	// try to grow by 50%

  00008	ba ff ff ff 3f	 mov	 edx, 1073741823		; 3fffffffH
  0000d	c1 f8 02	 sar	 eax, 2
  00010	8b c8		 mov	 ecx, eax
  00012	d1 e9		 shr	 ecx, 1
  00014	2b d1		 sub	 edx, ecx
  00016	3b d0		 cmp	 edx, eax
  00018	73 04		 jae	 SHORT $LN4@Grow_to
  0001a	33 c0		 xor	 eax, eax
  0001c	eb 02		 jmp	 SHORT $LN5@Grow_to
$LN4@Grow_to:
  0001e	03 c1		 add	 eax, ecx
$LN5@Grow_to:

; 1279 : 		if (_Capacity < _Count)

  00020	3b 45 08	 cmp	 eax, DWORD PTR __Count$[ebp]

; 1280 : 			_Capacity = _Count;

  00023	0f 42 45 08	 cmovb	 eax, DWORD PTR __Count$[ebp]

; 1281 : 		return (_Capacity);
; 1282 : 		}

  00027	5d		 pop	 ebp
  00028	c2 04 00	 ret	 4
?_Grow_to@?$vector@PAVioBaseChar@@V?$allocator@PAVioBaseChar@@@std@@@std@@IBEII@Z ENDP ; std::vector<ioBaseChar *,std::allocator<ioBaseChar *> >::_Grow_to
_TEXT	ENDS
PUBLIC	?allocate@?$allocator@PAVioBaseChar@@@std@@QAEPAPAVioBaseChar@@I@Z ; std::allocator<ioBaseChar *>::allocate
; Function compile flags: /Ogsp
; File c:\program files (x86)\microsoft visual studio 10.0\vc\include\xmemory
;	COMDAT ?allocate@?$allocator@PAVioBaseChar@@@std@@QAEPAPAVioBaseChar@@I@Z
_TEXT	SEGMENT
__Count$ = 8						; size = 4
?allocate@?$allocator@PAVioBaseChar@@@std@@QAEPAPAVioBaseChar@@I@Z PROC ; std::allocator<ioBaseChar *>::allocate, COMDAT
; _this$ = ecx

; 186  : 		{	// allocate array of _Count elements

  00000	55		 push	 ebp
  00001	8b ec		 mov	 ebp, esp

; 187  : 		return (_Allocate(_Count, (pointer)0));

  00003	6a 00		 push	 0
  00005	ff 75 08	 push	 DWORD PTR __Count$[ebp]
  00008	e8 00 00 00 00	 call	 ??$_Allocate@PAVioBaseChar@@@std@@YAPAPAVioBaseChar@@IPAPAV1@@Z ; std::_Allocate<ioBaseChar *>
  0000d	59		 pop	 ecx
  0000e	59		 pop	 ecx

; 188  : 		}

  0000f	5d		 pop	 ebp
  00010	c2 04 00	 ret	 4
?allocate@?$allocator@PAVioBaseChar@@@std@@QAEPAPAVioBaseChar@@I@Z ENDP ; std::allocator<ioBaseChar *>::allocate
_TEXT	ENDS
PUBLIC	__$ArrayPad$
PUBLIC	??$LoadFloat_e@$0BD@@ioINILoader@@QAEMAAY0BD@$$CBDM@Z ; ioINILoader::LoadFloat_e<19>
EXTRN	__imp_?LoadFloat@ioINILoader@@QAEMPBDM@Z:PROC
EXTRN	___security_cookie:DWORD
; Function compile flags: /Ogsp
; File d:\lost saga for developer\youtube\tutorial\source\src\io3dengine\ioiniloader.h
;	COMDAT ??$LoadFloat_e@$0BD@@ioINILoader@@QAEMAAY0BD@$$CBDM@Z
_TEXT	SEGMENT
__k$ = -28						; size = 19
__$ArrayPad$ = -4					; size = 4
_k$ = 8							; size = 4
_f$ = 12						; size = 4
??$LoadFloat_e@$0BD@@ioINILoader@@QAEMAAY0BD@$$CBDM@Z PROC ; ioINILoader::LoadFloat_e<19>, COMDAT
; _this$ = ecx

; 135  : 	{

  00000	55		 push	 ebp
  00001	8b ec		 mov	 ebp, esp
  00003	83 ec 1c	 sub	 esp, 28			; 0000001cH
  00006	a1 00 00 00 00	 mov	 eax, DWORD PTR ___security_cookie
  0000b	33 c5		 xor	 eax, ebp
  0000d	89 45 fc	 mov	 DWORD PTR __$ArrayPad$[ebp], eax
  00010	8b 45 08	 mov	 eax, DWORD PTR _k$[ebp]

; 136  : 		_ENCSTR(k, _k);

  00013	8a 10		 mov	 dl, BYTE PTR [eax]
  00015	56		 push	 esi
  00016	8b f1		 mov	 esi, ecx
  00018	84 d2		 test	 dl, dl
  0001a	0f 84 cf 01 00
	00		 je	 $LN96@LoadFloat_
  00020	80 f2 ed	 xor	 dl, -19			; ffffffedH
  00023	88 55 e4	 mov	 BYTE PTR __k$[ebp], dl
  00026	8a 50 01	 mov	 dl, BYTE PTR [eax+1]
  00029	84 d2		 test	 dl, dl
  0002b	0f 84 b8 01 00
	00		 je	 $LN95@LoadFloat_
  00031	b1 ec		 mov	 cl, -20			; ffffffecH
  00033	32 d1		 xor	 dl, cl
  00035	88 55 e5	 mov	 BYTE PTR __k$[ebp+1], dl
  00038	8a 50 02	 mov	 dl, BYTE PTR [eax+2]
  0003b	84 d2		 test	 dl, dl
  0003d	0f 84 a0 01 00
	00		 je	 $LN94@LoadFloat_
  00043	80 f2 eb	 xor	 dl, -21			; ffffffebH
  00046	88 55 e6	 mov	 BYTE PTR __k$[ebp+2], dl
  00049	8a 50 03	 mov	 dl, BYTE PTR [eax+3]
  0004c	84 d2		 test	 dl, dl
  0004e	0f 84 89 01 00
	00		 je	 $LN93@LoadFloat_
  00054	80 f2 ea	 xor	 dl, -22			; ffffffeaH
  00057	88 55 e7	 mov	 BYTE PTR __k$[ebp+3], dl
  0005a	8a 50 04	 mov	 dl, BYTE PTR [eax+4]
  0005d	84 d2		 test	 dl, dl
  0005f	0f 84 72 01 00
	00		 je	 $LN92@LoadFloat_
  00065	80 f2 ed	 xor	 dl, -19			; ffffffedH
  00068	88 55 e8	 mov	 BYTE PTR __k$[ebp+4], dl
  0006b	8a 50 05	 mov	 dl, BYTE PTR [eax+5]
  0006e	84 d2		 test	 dl, dl
  00070	0f 84 5c 01 00
	00		 je	 $LN91@LoadFloat_
  00076	32 d1		 xor	 dl, cl
  00078	88 55 e9	 mov	 BYTE PTR __k$[ebp+5], dl
  0007b	8a 50 06	 mov	 dl, BYTE PTR [eax+6]
  0007e	84 d2		 test	 dl, dl
  00080	0f 84 46 01 00
	00		 je	 $LN90@LoadFloat_
  00086	80 f2 eb	 xor	 dl, -21			; ffffffebH
  00089	88 55 ea	 mov	 BYTE PTR __k$[ebp+6], dl
  0008c	8a 50 07	 mov	 dl, BYTE PTR [eax+7]
  0008f	84 d2		 test	 dl, dl
  00091	0f 84 2f 01 00
	00		 je	 $LN89@LoadFloat_
  00097	80 f2 ea	 xor	 dl, -22			; ffffffeaH
  0009a	88 55 eb	 mov	 BYTE PTR __k$[ebp+7], dl
  0009d	8a 50 08	 mov	 dl, BYTE PTR [eax+8]
  000a0	84 d2		 test	 dl, dl
  000a2	0f 84 18 01 00
	00		 je	 $LN88@LoadFloat_
  000a8	80 f2 ed	 xor	 dl, -19			; ffffffedH
  000ab	88 55 ec	 mov	 BYTE PTR __k$[ebp+8], dl
  000ae	8a 50 09	 mov	 dl, BYTE PTR [eax+9]
  000b1	84 d2		 test	 dl, dl
  000b3	0f 84 02 01 00
	00		 je	 $LN87@LoadFloat_
  000b9	32 d1		 xor	 dl, cl
  000bb	88 55 ed	 mov	 BYTE PTR __k$[ebp+9], dl
  000be	8a 50 0a	 mov	 dl, BYTE PTR [eax+10]
  000c1	84 d2		 test	 dl, dl
  000c3	0f 84 ec 00 00
	00		 je	 $LN86@LoadFloat_
  000c9	80 f2 eb	 xor	 dl, -21			; ffffffebH
  000cc	88 55 ee	 mov	 BYTE PTR __k$[ebp+10], dl
  000cf	8a 50 0b	 mov	 dl, BYTE PTR [eax+11]
  000d2	84 d2		 test	 dl, dl
  000d4	0f 84 d5 00 00
	00		 je	 $LN85@LoadFloat_
  000da	80 f2 ea	 xor	 dl, -22			; ffffffeaH
  000dd	88 55 ef	 mov	 BYTE PTR __k$[ebp+11], dl
  000e0	8a 50 0c	 mov	 dl, BYTE PTR [eax+12]
  000e3	84 d2		 test	 dl, dl
  000e5	0f 84 be 00 00
	00		 je	 $LN84@LoadFloat_
  000eb	80 f2 ed	 xor	 dl, -19			; ffffffedH
  000ee	88 55 f0	 mov	 BYTE PTR __k$[ebp+12], dl
  000f1	8a 50 0d	 mov	 dl, BYTE PTR [eax+13]
  000f4	84 d2		 test	 dl, dl
  000f6	0f 84 a8 00 00
	00		 je	 $LN83@LoadFloat_
  000fc	32 d1		 xor	 dl, cl
  000fe	88 55 f1	 mov	 BYTE PTR __k$[ebp+13], dl
  00101	8a 50 0e	 mov	 dl, BYTE PTR [eax+14]
  00104	84 d2		 test	 dl, dl
  00106	0f 84 92 00 00
	00		 je	 $LN82@LoadFloat_
  0010c	80 f2 eb	 xor	 dl, -21			; ffffffebH
  0010f	88 55 f2	 mov	 BYTE PTR __k$[ebp+14], dl
  00112	8a 50 0f	 mov	 dl, BYTE PTR [eax+15]
  00115	84 d2		 test	 dl, dl
  00117	74 7f		 je	 SHORT $LN81@LoadFloat_
  00119	80 f2 ea	 xor	 dl, -22			; ffffffeaH
  0011c	88 55 f3	 mov	 BYTE PTR __k$[ebp+15], dl
  0011f	8a 50 10	 mov	 dl, BYTE PTR [eax+16]
  00122	84 d2		 test	 dl, dl
  00124	74 6c		 je	 SHORT $LN80@LoadFloat_
  00126	80 f2 ed	 xor	 dl, -19			; ffffffedH
  00129	88 55 f4	 mov	 BYTE PTR __k$[ebp+16], dl
  0012c	8a 50 11	 mov	 dl, BYTE PTR [eax+17]
  0012f	84 d2		 test	 dl, dl
  00131	74 5a		 je	 SHORT $LN79@LoadFloat_
  00133	32 d1		 xor	 dl, cl
  00135	80 78 12 00	 cmp	 BYTE PTR [eax+18], 0
  00139	88 55 f5	 mov	 BYTE PTR __k$[ebp+17], dl
  0013c	0f 84 b1 00 00
	00		 je	 $LN1@LoadFloat_
  00142	8a 50 13	 mov	 dl, BYTE PTR [eax+19]
  00145	84 d2		 test	 dl, dl
  00147	74 3e		 je	 SHORT $LN77@LoadFloat_
  00149	80 f2 ea	 xor	 dl, -22			; ffffffeaH
  0014c	88 55 f7	 mov	 BYTE PTR __k$[ebp+19], dl
  0014f	8a 50 14	 mov	 dl, BYTE PTR [eax+20]
  00152	84 d2		 test	 dl, dl
  00154	74 2b		 je	 SHORT $LN76@LoadFloat_
  00156	80 f2 ed	 xor	 dl, -19			; ffffffedH
  00159	88 55 f8	 mov	 BYTE PTR __k$[ebp+20], dl
  0015c	8a 50 15	 mov	 dl, BYTE PTR [eax+21]
  0015f	84 d2		 test	 dl, dl
  00161	74 19		 je	 SHORT $LN75@LoadFloat_
  00163	8a 40 16	 mov	 al, BYTE PTR [eax+22]
  00166	32 d1		 xor	 dl, cl
  00168	88 55 f9	 mov	 BYTE PTR __k$[ebp+21], dl
  0016b	84 c0		 test	 al, al
  0016d	74 07		 je	 SHORT $LN74@LoadFloat_
  0016f	34 eb		 xor	 al, -21			; ffffffebH
  00171	88 45 fa	 mov	 BYTE PTR __k$[ebp+22], al
  00174	eb 7d		 jmp	 SHORT $LN1@LoadFloat_
$LN74@LoadFloat_:
  00176	c6 45 fa eb	 mov	 BYTE PTR __k$[ebp+22], -21 ; ffffffebH
  0017a	eb 77		 jmp	 SHORT $LN1@LoadFloat_
$LN75@LoadFloat_:
  0017c	88 4d f9	 mov	 BYTE PTR __k$[ebp+21], cl
  0017f	eb 72		 jmp	 SHORT $LN1@LoadFloat_
$LN76@LoadFloat_:
  00181	c6 45 f8 ed	 mov	 BYTE PTR __k$[ebp+20], -19 ; ffffffedH
  00185	eb 6c		 jmp	 SHORT $LN1@LoadFloat_
$LN77@LoadFloat_:
  00187	c6 45 f7 ea	 mov	 BYTE PTR __k$[ebp+19], -22 ; ffffffeaH
  0018b	eb 66		 jmp	 SHORT $LN1@LoadFloat_
$LN79@LoadFloat_:
  0018d	88 4d f5	 mov	 BYTE PTR __k$[ebp+17], cl
  00190	eb 61		 jmp	 SHORT $LN1@LoadFloat_
$LN80@LoadFloat_:
  00192	c6 45 f4 ed	 mov	 BYTE PTR __k$[ebp+16], -19 ; ffffffedH
  00196	eb 5b		 jmp	 SHORT $LN1@LoadFloat_
$LN81@LoadFloat_:
  00198	c6 45 f3 ea	 mov	 BYTE PTR __k$[ebp+15], -22 ; ffffffeaH
  0019c	eb 55		 jmp	 SHORT $LN1@LoadFloat_
$LN82@LoadFloat_:
  0019e	c6 45 f2 eb	 mov	 BYTE PTR __k$[ebp+14], -21 ; ffffffebH
  001a2	eb 4f		 jmp	 SHORT $LN1@LoadFloat_
$LN83@LoadFloat_:
  001a4	88 4d f1	 mov	 BYTE PTR __k$[ebp+13], cl
  001a7	eb 4a		 jmp	 SHORT $LN1@LoadFloat_
$LN84@LoadFloat_:
  001a9	c6 45 f0 ed	 mov	 BYTE PTR __k$[ebp+12], -19 ; ffffffedH
  001ad	eb 44		 jmp	 SHORT $LN1@LoadFloat_
$LN85@LoadFloat_:
  001af	c6 45 ef ea	 mov	 BYTE PTR __k$[ebp+11], -22 ; ffffffeaH
  001b3	eb 3e		 jmp	 SHORT $LN1@LoadFloat_
$LN86@LoadFloat_:
  001b5	c6 45 ee eb	 mov	 BYTE PTR __k$[ebp+10], -21 ; ffffffebH
  001b9	eb 38		 jmp	 SHORT $LN1@LoadFloat_
$LN87@LoadFloat_:
  001bb	88 4d ed	 mov	 BYTE PTR __k$[ebp+9], cl
  001be	eb 33		 jmp	 SHORT $LN1@LoadFloat_
$LN88@LoadFloat_:
  001c0	c6 45 ec ed	 mov	 BYTE PTR __k$[ebp+8], -19 ; ffffffedH
  001c4	eb 2d		 jmp	 SHORT $LN1@LoadFloat_
$LN89@LoadFloat_:
  001c6	c6 45 eb ea	 mov	 BYTE PTR __k$[ebp+7], -22 ; ffffffeaH
  001ca	eb 27		 jmp	 SHORT $LN1@LoadFloat_
$LN90@LoadFloat_:
  001cc	c6 45 ea eb	 mov	 BYTE PTR __k$[ebp+6], -21 ; ffffffebH
  001d0	eb 21		 jmp	 SHORT $LN1@LoadFloat_
$LN91@LoadFloat_:
  001d2	88 4d e9	 mov	 BYTE PTR __k$[ebp+5], cl
  001d5	eb 1c		 jmp	 SHORT $LN1@LoadFloat_
$LN92@LoadFloat_:
  001d7	c6 45 e8 ed	 mov	 BYTE PTR __k$[ebp+4], -19 ; ffffffedH
  001db	eb 16		 jmp	 SHORT $LN1@LoadFloat_
$LN93@LoadFloat_:
  001dd	c6 45 e7 ea	 mov	 BYTE PTR __k$[ebp+3], -22 ; ffffffeaH
  001e1	eb 10		 jmp	 SHORT $LN1@LoadFloat_
$LN94@LoadFloat_:
  001e3	c6 45 e6 eb	 mov	 BYTE PTR __k$[ebp+2], -21 ; ffffffebH
  001e7	eb 0a		 jmp	 SHORT $LN1@LoadFloat_
$LN95@LoadFloat_:
  001e9	c6 45 e5 ec	 mov	 BYTE PTR __k$[ebp+1], -20 ; ffffffecH
  001ed	eb 04		 jmp	 SHORT $LN1@LoadFloat_
$LN96@LoadFloat_:
  001ef	c6 45 e4 ed	 mov	 BYTE PTR __k$[ebp], -19	; ffffffedH
$LN1@LoadFloat_:
  001f3	6a 04		 push	 4
  001f5	8d 45 e4	 lea	 eax, DWORD PTR __k$[ebp]
  001f8	c6 45 f6 00	 mov	 BYTE PTR __k$[ebp+18], 0
  001fc	5a		 pop	 edx
$LL104@LoadFloat_:
  001fd	81 30 ed ec eb
	ea		 xor	 DWORD PTR [eax], -353637139 ; eaebecedH
  00203	83 c0 04	 add	 eax, 4
  00206	4a		 dec	 edx
  00207	75 f4		 jne	 SHORT $LL104@LoadFloat_
  00209	6a 10		 push	 16			; 00000010H
  0020b	58		 pop	 eax
$LL101@LoadFloat_:
  0020c	8b c8		 mov	 ecx, eax
  0020e	81 e1 03 00 00
	80		 and	 ecx, -2147483645	; 80000003H
  00214	79 05		 jns	 SHORT $LN111@LoadFloat_
  00216	49		 dec	 ecx
  00217	83 c9 fc	 or	 ecx, -4			; fffffffcH
  0021a	41		 inc	 ecx
$LN111@LoadFloat_:
  0021b	b2 ed		 mov	 dl, -19			; ffffffedH
  0021d	2a d1		 sub	 dl, cl
  0021f	30 54 05 e4	 xor	 BYTE PTR __k$[ebp+eax], dl
  00223	40		 inc	 eax
  00224	83 f8 12	 cmp	 eax, 18			; 00000012H
  00227	7c e3		 jl	 SHORT $LL101@LoadFloat_

; 137  : 		return LoadFloat(_k, f);

  00229	f3 0f 10 45 0c	 movss	 xmm0, DWORD PTR _f$[ebp]
  0022e	51		 push	 ecx
  0022f	8d 45 e4	 lea	 eax, DWORD PTR __k$[ebp]
  00232	f3 0f 11 04 24	 movss	 DWORD PTR [esp], xmm0
  00237	50		 push	 eax
  00238	8b ce		 mov	 ecx, esi
  0023a	ff 15 00 00 00
	00		 call	 DWORD PTR __imp_?LoadFloat@ioINILoader@@QAEMPBDM@Z

; 138  : 	}

  00240	8b 4d fc	 mov	 ecx, DWORD PTR __$ArrayPad$[ebp]
  00243	33 cd		 xor	 ecx, ebp
  00245	5e		 pop	 esi
  00246	e8 00 00 00 00	 call	 @__security_check_cookie@4
  0024b	c9		 leave
  0024c	c2 08 00	 ret	 8
??$LoadFloat_e@$0BD@@ioINILoader@@QAEMAAY0BD@$$CBDM@Z ENDP ; ioINILoader::LoadFloat_e<19>
_TEXT	ENDS
PUBLIC	__$ArrayPad$
PUBLIC	??$LoadFloat_e@$0N@@ioINILoader@@QAEMAAY0N@$$CBDM@Z ; ioINILoader::LoadFloat_e<13>
; Function compile flags: /Ogsp
;	COMDAT ??$LoadFloat_e@$0N@@ioINILoader@@QAEMAAY0N@$$CBDM@Z
_TEXT	SEGMENT
__k$ = -24						; size = 13
__$ArrayPad$ = -4					; size = 4
_k$ = 8							; size = 4
_f$ = 12						; size = 4
??$LoadFloat_e@$0N@@ioINILoader@@QAEMAAY0N@$$CBDM@Z PROC ; ioINILoader::LoadFloat_e<13>, COMDAT
; _this$ = ecx

; 135  : 	{

  00000	55		 push	 ebp
  00001	8b ec		 mov	 ebp, esp
  00003	83 ec 18	 sub	 esp, 24			; 00000018H
  00006	a1 00 00 00 00	 mov	 eax, DWORD PTR ___security_cookie
  0000b	33 c5		 xor	 eax, ebp
  0000d	89 45 fc	 mov	 DWORD PTR __$ArrayPad$[ebp], eax
  00010	8b 45 08	 mov	 eax, DWORD PTR _k$[ebp]

; 136  : 		_ENCSTR(k, _k);

  00013	8a 10		 mov	 dl, BYTE PTR [eax]
  00015	56		 push	 esi
  00016	8b f1		 mov	 esi, ecx
  00018	84 d2		 test	 dl, dl
  0001a	0f 84 4d 01 00
	00		 je	 $LN96@LoadFloat_@2
  00020	80 f2 ed	 xor	 dl, -19			; ffffffedH
  00023	88 55 e8	 mov	 BYTE PTR __k$[ebp], dl
  00026	8a 50 01	 mov	 dl, BYTE PTR [eax+1]
  00029	84 d2		 test	 dl, dl
  0002b	0f 84 36 01 00
	00		 je	 $LN95@LoadFloat_@2
  00031	b1 ec		 mov	 cl, -20			; ffffffecH
  00033	32 d1		 xor	 dl, cl
  00035	88 55 e9	 mov	 BYTE PTR __k$[ebp+1], dl
  00038	8a 50 02	 mov	 dl, BYTE PTR [eax+2]
  0003b	84 d2		 test	 dl, dl
  0003d	0f 84 1e 01 00
	00		 je	 $LN94@LoadFloat_@2
  00043	80 f2 eb	 xor	 dl, -21			; ffffffebH
  00046	88 55 ea	 mov	 BYTE PTR __k$[ebp+2], dl
  00049	8a 50 03	 mov	 dl, BYTE PTR [eax+3]
  0004c	84 d2		 test	 dl, dl
  0004e	0f 84 07 01 00
	00		 je	 $LN93@LoadFloat_@2
  00054	80 f2 ea	 xor	 dl, -22			; ffffffeaH
  00057	88 55 eb	 mov	 BYTE PTR __k$[ebp+3], dl
  0005a	8a 50 04	 mov	 dl, BYTE PTR [eax+4]
  0005d	84 d2		 test	 dl, dl
  0005f	0f 84 f0 00 00
	00		 je	 $LN92@LoadFloat_@2
  00065	80 f2 ed	 xor	 dl, -19			; ffffffedH
  00068	88 55 ec	 mov	 BYTE PTR __k$[ebp+4], dl
  0006b	8a 50 05	 mov	 dl, BYTE PTR [eax+5]
  0006e	84 d2		 test	 dl, dl
  00070	0f 84 da 00 00
	00		 je	 $LN91@LoadFloat_@2
  00076	32 d1		 xor	 dl, cl
  00078	88 55 ed	 mov	 BYTE PTR __k$[ebp+5], dl
  0007b	8a 50 06	 mov	 dl, BYTE PTR [eax+6]
  0007e	84 d2		 test	 dl, dl
  00080	0f 84 c4 00 00
	00		 je	 $LN90@LoadFloat_@2
  00086	80 f2 eb	 xor	 dl, -21			; ffffffebH
  00089	88 55 ee	 mov	 BYTE PTR __k$[ebp+6], dl
  0008c	8a 50 07	 mov	 dl, BYTE PTR [eax+7]
  0008f	84 d2		 test	 dl, dl
  00091	0f 84 ad 00 00
	00		 je	 $LN89@LoadFloat_@2
  00097	80 f2 ea	 xor	 dl, -22			; ffffffeaH
  0009a	88 55 ef	 mov	 BYTE PTR __k$[ebp+7], dl
  0009d	8a 50 08	 mov	 dl, BYTE PTR [eax+8]
  000a0	84 d2		 test	 dl, dl
  000a2	0f 84 96 00 00
	00		 je	 $LN88@LoadFloat_@2
  000a8	80 f2 ed	 xor	 dl, -19			; ffffffedH
  000ab	88 55 f0	 mov	 BYTE PTR __k$[ebp+8], dl
  000ae	8a 50 09	 mov	 dl, BYTE PTR [eax+9]
  000b1	84 d2		 test	 dl, dl
  000b3	0f 84 80 00 00
	00		 je	 $LN87@LoadFloat_@2
  000b9	32 d1		 xor	 dl, cl
  000bb	88 55 f1	 mov	 BYTE PTR __k$[ebp+9], dl
  000be	8a 50 0a	 mov	 dl, BYTE PTR [eax+10]
  000c1	84 d2		 test	 dl, dl
  000c3	74 6e		 je	 SHORT $LN86@LoadFloat_@2
  000c5	80 f2 eb	 xor	 dl, -21			; ffffffebH
  000c8	88 55 f2	 mov	 BYTE PTR __k$[ebp+10], dl
  000cb	8a 50 0b	 mov	 dl, BYTE PTR [eax+11]
  000ce	84 d2		 test	 dl, dl
  000d0	74 5b		 je	 SHORT $LN85@LoadFloat_@2
  000d2	80 f2 ea	 xor	 dl, -22			; ffffffeaH
  000d5	80 78 0c 00	 cmp	 BYTE PTR [eax+12], 0
  000d9	88 55 f3	 mov	 BYTE PTR __k$[ebp+11], dl
  000dc	0f 84 8f 00 00
	00		 je	 $LN1@LoadFloat_@2
  000e2	8a 50 0d	 mov	 dl, BYTE PTR [eax+13]
  000e5	84 d2		 test	 dl, dl
  000e7	74 3f		 je	 SHORT $LN83@LoadFloat_@2
  000e9	32 d1		 xor	 dl, cl
  000eb	88 55 f5	 mov	 BYTE PTR __k$[ebp+13], dl
  000ee	8a 50 0e	 mov	 dl, BYTE PTR [eax+14]
  000f1	84 d2		 test	 dl, dl
  000f3	74 2d		 je	 SHORT $LN82@LoadFloat_@2
  000f5	80 f2 eb	 xor	 dl, -21			; ffffffebH
  000f8	88 55 f6	 mov	 BYTE PTR __k$[ebp+14], dl
  000fb	8a 50 0f	 mov	 dl, BYTE PTR [eax+15]
  000fe	84 d2		 test	 dl, dl
  00100	74 1a		 je	 SHORT $LN81@LoadFloat_@2
  00102	8a 40 10	 mov	 al, BYTE PTR [eax+16]
  00105	80 f2 ea	 xor	 dl, -22			; ffffffeaH
  00108	88 55 f7	 mov	 BYTE PTR __k$[ebp+15], dl
  0010b	84 c0		 test	 al, al
  0010d	74 07		 je	 SHORT $LN80@LoadFloat_@2
  0010f	34 ed		 xor	 al, -19			; ffffffedH
  00111	88 45 f8	 mov	 BYTE PTR __k$[ebp+16], al
  00114	eb 5b		 jmp	 SHORT $LN1@LoadFloat_@2
$LN80@LoadFloat_@2:
  00116	c6 45 f8 ed	 mov	 BYTE PTR __k$[ebp+16], -19 ; ffffffedH
  0011a	eb 55		 jmp	 SHORT $LN1@LoadFloat_@2
$LN81@LoadFloat_@2:
  0011c	c6 45 f7 ea	 mov	 BYTE PTR __k$[ebp+15], -22 ; ffffffeaH
  00120	eb 4f		 jmp	 SHORT $LN1@LoadFloat_@2
$LN82@LoadFloat_@2:
  00122	c6 45 f6 eb	 mov	 BYTE PTR __k$[ebp+14], -21 ; ffffffebH
  00126	eb 49		 jmp	 SHORT $LN1@LoadFloat_@2
$LN83@LoadFloat_@2:
  00128	88 4d f5	 mov	 BYTE PTR __k$[ebp+13], cl
  0012b	eb 44		 jmp	 SHORT $LN1@LoadFloat_@2
$LN85@LoadFloat_@2:
  0012d	c6 45 f3 ea	 mov	 BYTE PTR __k$[ebp+11], -22 ; ffffffeaH
  00131	eb 3e		 jmp	 SHORT $LN1@LoadFloat_@2
$LN86@LoadFloat_@2:
  00133	c6 45 f2 eb	 mov	 BYTE PTR __k$[ebp+10], -21 ; ffffffebH
  00137	eb 38		 jmp	 SHORT $LN1@LoadFloat_@2
$LN87@LoadFloat_@2:
  00139	88 4d f1	 mov	 BYTE PTR __k$[ebp+9], cl
  0013c	eb 33		 jmp	 SHORT $LN1@LoadFloat_@2
$LN88@LoadFloat_@2:
  0013e	c6 45 f0 ed	 mov	 BYTE PTR __k$[ebp+8], -19 ; ffffffedH
  00142	eb 2d		 jmp	 SHORT $LN1@LoadFloat_@2
$LN89@LoadFloat_@2:
  00144	c6 45 ef ea	 mov	 BYTE PTR __k$[ebp+7], -22 ; ffffffeaH
  00148	eb 27		 jmp	 SHORT $LN1@LoadFloat_@2
$LN90@LoadFloat_@2:
  0014a	c6 45 ee eb	 mov	 BYTE PTR __k$[ebp+6], -21 ; ffffffebH
  0014e	eb 21		 jmp	 SHORT $LN1@LoadFloat_@2
$LN91@LoadFloat_@2:
  00150	88 4d ed	 mov	 BYTE PTR __k$[ebp+5], cl
  00153	eb 1c		 jmp	 SHORT $LN1@LoadFloat_@2
$LN92@LoadFloat_@2:
  00155	c6 45 ec ed	 mov	 BYTE PTR __k$[ebp+4], -19 ; ffffffedH
  00159	eb 16		 jmp	 SHORT $LN1@LoadFloat_@2
$LN93@LoadFloat_@2:
  0015b	c6 45 eb ea	 mov	 BYTE PTR __k$[ebp+3], -22 ; ffffffeaH
  0015f	eb 10		 jmp	 SHORT $LN1@LoadFloat_@2
$LN94@LoadFloat_@2:
  00161	c6 45 ea eb	 mov	 BYTE PTR __k$[ebp+2], -21 ; ffffffebH
  00165	eb 0a		 jmp	 SHORT $LN1@LoadFloat_@2
$LN95@LoadFloat_@2:
  00167	c6 45 e9 ec	 mov	 BYTE PTR __k$[ebp+1], -20 ; ffffffecH
  0016b	eb 04		 jmp	 SHORT $LN1@LoadFloat_@2
$LN96@LoadFloat_@2:
  0016d	c6 45 e8 ed	 mov	 BYTE PTR __k$[ebp], -19	; ffffffedH
$LN1@LoadFloat_@2:
  00171	6a 03		 push	 3
  00173	8d 45 e8	 lea	 eax, DWORD PTR __k$[ebp]
  00176	c6 45 f4 00	 mov	 BYTE PTR __k$[ebp+12], 0
  0017a	5a		 pop	 edx
$LL104@LoadFloat_@2:
  0017b	81 30 ed ec eb
	ea		 xor	 DWORD PTR [eax], -353637139 ; eaebecedH
  00181	83 c0 04	 add	 eax, 4
  00184	4a		 dec	 edx
  00185	75 f4		 jne	 SHORT $LL104@LoadFloat_@2

; 137  : 		return LoadFloat(_k, f);

  00187	f3 0f 10 45 0c	 movss	 xmm0, DWORD PTR _f$[ebp]
  0018c	51		 push	 ecx
  0018d	8d 45 e8	 lea	 eax, DWORD PTR __k$[ebp]
  00190	f3 0f 11 04 24	 movss	 DWORD PTR [esp], xmm0
  00195	50		 push	 eax
  00196	8b ce		 mov	 ecx, esi
  00198	ff 15 00 00 00
	00		 call	 DWORD PTR __imp_?LoadFloat@ioINILoader@@QAEMPBDM@Z

; 138  : 	}

  0019e	8b 4d fc	 mov	 ecx, DWORD PTR __$ArrayPad$[ebp]
  001a1	33 cd		 xor	 ecx, ebp
  001a3	5e		 pop	 esi
  001a4	e8 00 00 00 00	 call	 @__security_check_cookie@4
  001a9	c9		 leave
  001aa	c2 08 00	 ret	 8
??$LoadFloat_e@$0N@@ioINILoader@@QAEMAAY0N@$$CBDM@Z ENDP ; ioINILoader::LoadFloat_e<13>
_TEXT	ENDS
PUBLIC	__$ArrayPad$
PUBLIC	??$LoadFloat_e@$0BB@@ioINILoader@@QAEMAAY0BB@$$CBDM@Z ; ioINILoader::LoadFloat_e<17>
; Function compile flags: /Ogsp
;	COMDAT ??$LoadFloat_e@$0BB@@ioINILoader@@QAEMAAY0BB@$$CBDM@Z
_TEXT	SEGMENT
__k$ = -28						; size = 17
__$ArrayPad$ = -4					; size = 4
_k$ = 8							; size = 4
_f$ = 12						; size = 4
??$LoadFloat_e@$0BB@@ioINILoader@@QAEMAAY0BB@$$CBDM@Z PROC ; ioINILoader::LoadFloat_e<17>, COMDAT
; _this$ = ecx

; 135  : 	{

  00000	55		 push	 ebp
  00001	8b ec		 mov	 ebp, esp
  00003	83 ec 1c	 sub	 esp, 28			; 0000001cH
  00006	a1 00 00 00 00	 mov	 eax, DWORD PTR ___security_cookie
  0000b	33 c5		 xor	 eax, ebp
  0000d	89 45 fc	 mov	 DWORD PTR __$ArrayPad$[ebp], eax
  00010	8b 45 08	 mov	 eax, DWORD PTR _k$[ebp]

; 136  : 		_ENCSTR(k, _k);

  00013	8a 10		 mov	 dl, BYTE PTR [eax]
  00015	56		 push	 esi
  00016	8b f1		 mov	 esi, ecx
  00018	84 d2		 test	 dl, dl
  0001a	0f 84 a7 01 00
	00		 je	 $LN96@LoadFloat_@3
  00020	80 f2 ed	 xor	 dl, -19			; ffffffedH
  00023	88 55 e4	 mov	 BYTE PTR __k$[ebp], dl
  00026	8a 50 01	 mov	 dl, BYTE PTR [eax+1]
  00029	84 d2		 test	 dl, dl
  0002b	0f 84 90 01 00
	00		 je	 $LN95@LoadFloat_@3
  00031	b1 ec		 mov	 cl, -20			; ffffffecH
  00033	32 d1		 xor	 dl, cl
  00035	88 55 e5	 mov	 BYTE PTR __k$[ebp+1], dl
  00038	8a 50 02	 mov	 dl, BYTE PTR [eax+2]
  0003b	84 d2		 test	 dl, dl
  0003d	0f 84 78 01 00
	00		 je	 $LN94@LoadFloat_@3
  00043	80 f2 eb	 xor	 dl, -21			; ffffffebH
  00046	88 55 e6	 mov	 BYTE PTR __k$[ebp+2], dl
  00049	8a 50 03	 mov	 dl, BYTE PTR [eax+3]
  0004c	84 d2		 test	 dl, dl
  0004e	0f 84 61 01 00
	00		 je	 $LN93@LoadFloat_@3
  00054	80 f2 ea	 xor	 dl, -22			; ffffffeaH
  00057	88 55 e7	 mov	 BYTE PTR __k$[ebp+3], dl
  0005a	8a 50 04	 mov	 dl, BYTE PTR [eax+4]
  0005d	84 d2		 test	 dl, dl
  0005f	0f 84 4a 01 00
	00		 je	 $LN92@LoadFloat_@3
  00065	80 f2 ed	 xor	 dl, -19			; ffffffedH
  00068	88 55 e8	 mov	 BYTE PTR __k$[ebp+4], dl
  0006b	8a 50 05	 mov	 dl, BYTE PTR [eax+5]
  0006e	84 d2		 test	 dl, dl
  00070	0f 84 34 01 00
	00		 je	 $LN91@LoadFloat_@3
  00076	32 d1		 xor	 dl, cl
  00078	88 55 e9	 mov	 BYTE PTR __k$[ebp+5], dl
  0007b	8a 50 06	 mov	 dl, BYTE PTR [eax+6]
  0007e	84 d2		 test	 dl, dl
  00080	0f 84 1e 01 00
	00		 je	 $LN90@LoadFloat_@3
  00086	80 f2 eb	 xor	 dl, -21			; ffffffebH
  00089	88 55 ea	 mov	 BYTE PTR __k$[ebp+6], dl
  0008c	8a 50 07	 mov	 dl, BYTE PTR [eax+7]
  0008f	84 d2		 test	 dl, dl
  00091	0f 84 07 01 00
	00		 je	 $LN89@LoadFloat_@3
  00097	80 f2 ea	 xor	 dl, -22			; ffffffeaH
  0009a	88 55 eb	 mov	 BYTE PTR __k$[ebp+7], dl
  0009d	8a 50 08	 mov	 dl, BYTE PTR [eax+8]
  000a0	84 d2		 test	 dl, dl
  000a2	0f 84 f0 00 00
	00		 je	 $LN88@LoadFloat_@3
  000a8	80 f2 ed	 xor	 dl, -19			; ffffffedH
  000ab	88 55 ec	 mov	 BYTE PTR __k$[ebp+8], dl
  000ae	8a 50 09	 mov	 dl, BYTE PTR [eax+9]
  000b1	84 d2		 test	 dl, dl
  000b3	0f 84 da 00 00
	00		 je	 $LN87@LoadFloat_@3
  000b9	32 d1		 xor	 dl, cl
  000bb	88 55 ed	 mov	 BYTE PTR __k$[ebp+9], dl
  000be	8a 50 0a	 mov	 dl, BYTE PTR [eax+10]
  000c1	84 d2		 test	 dl, dl
  000c3	0f 84 c4 00 00
	00		 je	 $LN86@LoadFloat_@3
  000c9	80 f2 eb	 xor	 dl, -21			; ffffffebH
  000cc	88 55 ee	 mov	 BYTE PTR __k$[ebp+10], dl
  000cf	8a 50 0b	 mov	 dl, BYTE PTR [eax+11]
  000d2	84 d2		 test	 dl, dl
  000d4	0f 84 ad 00 00
	00		 je	 $LN85@LoadFloat_@3
  000da	80 f2 ea	 xor	 dl, -22			; ffffffeaH
  000dd	88 55 ef	 mov	 BYTE PTR __k$[ebp+11], dl
  000e0	8a 50 0c	 mov	 dl, BYTE PTR [eax+12]
  000e3	84 d2		 test	 dl, dl
  000e5	0f 84 96 00 00
	00		 je	 $LN84@LoadFloat_@3
  000eb	80 f2 ed	 xor	 dl, -19			; ffffffedH
  000ee	88 55 f0	 mov	 BYTE PTR __k$[ebp+12], dl
  000f1	8a 50 0d	 mov	 dl, BYTE PTR [eax+13]
  000f4	84 d2		 test	 dl, dl
  000f6	0f 84 80 00 00
	00		 je	 $LN83@LoadFloat_@3
  000fc	32 d1		 xor	 dl, cl
  000fe	88 55 f1	 mov	 BYTE PTR __k$[ebp+13], dl
  00101	8a 50 0e	 mov	 dl, BYTE PTR [eax+14]
  00104	84 d2		 test	 dl, dl
  00106	74 6e		 je	 SHORT $LN82@LoadFloat_@3
  00108	80 f2 eb	 xor	 dl, -21			; ffffffebH
  0010b	88 55 f2	 mov	 BYTE PTR __k$[ebp+14], dl
  0010e	8a 50 0f	 mov	 dl, BYTE PTR [eax+15]
  00111	84 d2		 test	 dl, dl
  00113	74 5b		 je	 SHORT $LN81@LoadFloat_@3
  00115	80 f2 ea	 xor	 dl, -22			; ffffffeaH
  00118	80 78 10 00	 cmp	 BYTE PTR [eax+16], 0
  0011c	88 55 f3	 mov	 BYTE PTR __k$[ebp+15], dl
  0011f	0f 84 a6 00 00
	00		 je	 $LN1@LoadFloat_@3
  00125	8a 50 11	 mov	 dl, BYTE PTR [eax+17]
  00128	84 d2		 test	 dl, dl
  0012a	74 3f		 je	 SHORT $LN79@LoadFloat_@3
  0012c	32 d1		 xor	 dl, cl
  0012e	88 55 f5	 mov	 BYTE PTR __k$[ebp+17], dl
  00131	8a 50 12	 mov	 dl, BYTE PTR [eax+18]
  00134	84 d2		 test	 dl, dl
  00136	74 2d		 je	 SHORT $LN78@LoadFloat_@3
  00138	80 f2 eb	 xor	 dl, -21			; ffffffebH
  0013b	88 55 f6	 mov	 BYTE PTR __k$[ebp+18], dl
  0013e	8a 50 13	 mov	 dl, BYTE PTR [eax+19]
  00141	84 d2		 test	 dl, dl
  00143	74 1a		 je	 SHORT $LN77@LoadFloat_@3
  00145	8a 40 14	 mov	 al, BYTE PTR [eax+20]
  00148	80 f2 ea	 xor	 dl, -22			; ffffffeaH
  0014b	88 55 f7	 mov	 BYTE PTR __k$[ebp+19], dl
  0014e	84 c0		 test	 al, al
  00150	74 07		 je	 SHORT $LN76@LoadFloat_@3
  00152	34 ed		 xor	 al, -19			; ffffffedH
  00154	88 45 f8	 mov	 BYTE PTR __k$[ebp+20], al
  00157	eb 72		 jmp	 SHORT $LN1@LoadFloat_@3
$LN76@LoadFloat_@3:
  00159	c6 45 f8 ed	 mov	 BYTE PTR __k$[ebp+20], -19 ; ffffffedH
  0015d	eb 6c		 jmp	 SHORT $LN1@LoadFloat_@3
$LN77@LoadFloat_@3:
  0015f	c6 45 f7 ea	 mov	 BYTE PTR __k$[ebp+19], -22 ; ffffffeaH
  00163	eb 66		 jmp	 SHORT $LN1@LoadFloat_@3
$LN78@LoadFloat_@3:
  00165	c6 45 f6 eb	 mov	 BYTE PTR __k$[ebp+18], -21 ; ffffffebH
  00169	eb 60		 jmp	 SHORT $LN1@LoadFloat_@3
$LN79@LoadFloat_@3:
  0016b	88 4d f5	 mov	 BYTE PTR __k$[ebp+17], cl
  0016e	eb 5b		 jmp	 SHORT $LN1@LoadFloat_@3
$LN81@LoadFloat_@3:
  00170	c6 45 f3 ea	 mov	 BYTE PTR __k$[ebp+15], -22 ; ffffffeaH
  00174	eb 55		 jmp	 SHORT $LN1@LoadFloat_@3
$LN82@LoadFloat_@3:
  00176	c6 45 f2 eb	 mov	 BYTE PTR __k$[ebp+14], -21 ; ffffffebH
  0017a	eb 4f		 jmp	 SHORT $LN1@LoadFloat_@3
$LN83@LoadFloat_@3:
  0017c	88 4d f1	 mov	 BYTE PTR __k$[ebp+13], cl
  0017f	eb 4a		 jmp	 SHORT $LN1@LoadFloat_@3
$LN84@LoadFloat_@3:
  00181	c6 45 f0 ed	 mov	 BYTE PTR __k$[ebp+12], -19 ; ffffffedH
  00185	eb 44		 jmp	 SHORT $LN1@LoadFloat_@3
$LN85@LoadFloat_@3:
  00187	c6 45 ef ea	 mov	 BYTE PTR __k$[ebp+11], -22 ; ffffffeaH
  0018b	eb 3e		 jmp	 SHORT $LN1@LoadFloat_@3
$LN86@LoadFloat_@3:
  0018d	c6 45 ee eb	 mov	 BYTE PTR __k$[ebp+10], -21 ; ffffffebH
  00191	eb 38		 jmp	 SHORT $LN1@LoadFloat_@3
$LN87@LoadFloat_@3:
  00193	88 4d ed	 mov	 BYTE PTR __k$[ebp+9], cl
  00196	eb 33		 jmp	 SHORT $LN1@LoadFloat_@3
$LN88@LoadFloat_@3:
  00198	c6 45 ec ed	 mov	 BYTE PTR __k$[ebp+8], -19 ; ffffffedH
  0019c	eb 2d		 jmp	 SHORT $LN1@LoadFloat_@3
$LN89@LoadFloat_@3:
  0019e	c6 45 eb ea	 mov	 BYTE PTR __k$[ebp+7], -22 ; ffffffeaH
  001a2	eb 27		 jmp	 SHORT $LN1@LoadFloat_@3
$LN90@LoadFloat_@3:
  001a4	c6 45 ea eb	 mov	 BYTE PTR __k$[ebp+6], -21 ; ffffffebH
  001a8	eb 21		 jmp	 SHORT $LN1@LoadFloat_@3
$LN91@LoadFloat_@3:
  001aa	88 4d e9	 mov	 BYTE PTR __k$[ebp+5], cl
  001ad	eb 1c		 jmp	 SHORT $LN1@LoadFloat_@3
$LN92@LoadFloat_@3:
  001af	c6 45 e8 ed	 mov	 BYTE PTR __k$[ebp+4], -19 ; ffffffedH
  001b3	eb 16		 jmp	 SHORT $LN1@LoadFloat_@3
$LN93@LoadFloat_@3:
  001b5	c6 45 e7 ea	 mov	 BYTE PTR __k$[ebp+3], -22 ; ffffffeaH
  001b9	eb 10		 jmp	 SHORT $LN1@LoadFloat_@3
$LN94@LoadFloat_@3:
  001bb	c6 45 e6 eb	 mov	 BYTE PTR __k$[ebp+2], -21 ; ffffffebH
  001bf	eb 0a		 jmp	 SHORT $LN1@LoadFloat_@3
$LN95@LoadFloat_@3:
  001c1	c6 45 e5 ec	 mov	 BYTE PTR __k$[ebp+1], -20 ; ffffffecH
  001c5	eb 04		 jmp	 SHORT $LN1@LoadFloat_@3
$LN96@LoadFloat_@3:
  001c7	c6 45 e4 ed	 mov	 BYTE PTR __k$[ebp], -19	; ffffffedH
$LN1@LoadFloat_@3:
  001cb	6a 04		 push	 4
  001cd	8d 45 e4	 lea	 eax, DWORD PTR __k$[ebp]
  001d0	c6 45 f4 00	 mov	 BYTE PTR __k$[ebp+16], 0
  001d4	5a		 pop	 edx
$LL104@LoadFloat_@3:
  001d5	81 30 ed ec eb
	ea		 xor	 DWORD PTR [eax], -353637139 ; eaebecedH
  001db	83 c0 04	 add	 eax, 4
  001de	4a		 dec	 edx
  001df	75 f4		 jne	 SHORT $LL104@LoadFloat_@3

; 137  : 		return LoadFloat(_k, f);

  001e1	f3 0f 10 45 0c	 movss	 xmm0, DWORD PTR _f$[ebp]
  001e6	51		 push	 ecx
  001e7	8d 45 e4	 lea	 eax, DWORD PTR __k$[ebp]
  001ea	f3 0f 11 04 24	 movss	 DWORD PTR [esp], xmm0
  001ef	50		 push	 eax
  001f0	8b ce		 mov	 ecx, esi
  001f2	ff 15 00 00 00
	00		 call	 DWORD PTR __imp_?LoadFloat@ioINILoader@@QAEMPBDM@Z

; 138  : 	}

  001f8	8b 4d fc	 mov	 ecx, DWORD PTR __$ArrayPad$[ebp]
  001fb	33 cd		 xor	 ecx, ebp
  001fd	5e		 pop	 esi
  001fe	e8 00 00 00 00	 call	 @__security_check_cookie@4
  00203	c9		 leave
  00204	c2 08 00	 ret	 8
??$LoadFloat_e@$0BB@@ioINILoader@@QAEMAAY0BB@$$CBDM@Z ENDP ; ioINILoader::LoadFloat_e<17>
_TEXT	ENDS
PUBLIC	__$ArrayPad$
PUBLIC	??$LoadFloat_e@$0BE@@ioINILoader@@QAEMAAY0BE@$$CBDM@Z ; ioINILoader::LoadFloat_e<20>
; Function compile flags: /Ogsp
;	COMDAT ??$LoadFloat_e@$0BE@@ioINILoader@@QAEMAAY0BE@$$CBDM@Z
_TEXT	SEGMENT
__k$ = -28						; size = 20
__$ArrayPad$ = -4					; size = 4
_k$ = 8							; size = 4
_f$ = 12						; size = 4
??$LoadFloat_e@$0BE@@ioINILoader@@QAEMAAY0BE@$$CBDM@Z PROC ; ioINILoader::LoadFloat_e<20>, COMDAT
; _this$ = ecx

; 135  : 	{

  00000	55		 push	 ebp
  00001	8b ec		 mov	 ebp, esp
  00003	83 ec 1c	 sub	 esp, 28			; 0000001cH
  00006	a1 00 00 00 00	 mov	 eax, DWORD PTR ___security_cookie
  0000b	33 c5		 xor	 eax, ebp
  0000d	89 45 fc	 mov	 DWORD PTR __$ArrayPad$[ebp], eax
  00010	8b 45 08	 mov	 eax, DWORD PTR _k$[ebp]

; 136  : 		_ENCSTR(k, _k);

  00013	8a 10		 mov	 dl, BYTE PTR [eax]
  00015	53		 push	 ebx
  00016	56		 push	 esi
  00017	8b f1		 mov	 esi, ecx
  00019	84 d2		 test	 dl, dl
  0001b	0f 84 dd 01 00
	00		 je	 $LN96@LoadFloat_@4
  00021	80 f2 ed	 xor	 dl, -19			; ffffffedH
  00024	88 55 e4	 mov	 BYTE PTR __k$[ebp], dl
  00027	8a 50 01	 mov	 dl, BYTE PTR [eax+1]
  0002a	84 d2		 test	 dl, dl
  0002c	0f 84 c6 01 00
	00		 je	 $LN95@LoadFloat_@4
  00032	b3 ec		 mov	 bl, -20			; ffffffecH
  00034	32 d3		 xor	 dl, bl
  00036	88 55 e5	 mov	 BYTE PTR __k$[ebp+1], dl
  00039	8a 50 02	 mov	 dl, BYTE PTR [eax+2]
  0003c	84 d2		 test	 dl, dl
  0003e	0f 84 ae 01 00
	00		 je	 $LN94@LoadFloat_@4
  00044	b1 eb		 mov	 cl, -21			; ffffffebH
  00046	32 d1		 xor	 dl, cl
  00048	88 55 e6	 mov	 BYTE PTR __k$[ebp+2], dl
  0004b	8a 50 03	 mov	 dl, BYTE PTR [eax+3]
  0004e	84 d2		 test	 dl, dl
  00050	0f 84 96 01 00
	00		 je	 $LN93@LoadFloat_@4
  00056	80 f2 ea	 xor	 dl, -22			; ffffffeaH
  00059	88 55 e7	 mov	 BYTE PTR __k$[ebp+3], dl
  0005c	8a 50 04	 mov	 dl, BYTE PTR [eax+4]
  0005f	84 d2		 test	 dl, dl
  00061	0f 84 7f 01 00
	00		 je	 $LN92@LoadFloat_@4
  00067	80 f2 ed	 xor	 dl, -19			; ffffffedH
  0006a	88 55 e8	 mov	 BYTE PTR __k$[ebp+4], dl
  0006d	8a 50 05	 mov	 dl, BYTE PTR [eax+5]
  00070	84 d2		 test	 dl, dl
  00072	0f 84 69 01 00
	00		 je	 $LN91@LoadFloat_@4
  00078	32 d3		 xor	 dl, bl
  0007a	88 55 e9	 mov	 BYTE PTR __k$[ebp+5], dl
  0007d	8a 50 06	 mov	 dl, BYTE PTR [eax+6]
  00080	84 d2		 test	 dl, dl
  00082	0f 84 54 01 00
	00		 je	 $LN90@LoadFloat_@4
  00088	32 d1		 xor	 dl, cl
  0008a	88 55 ea	 mov	 BYTE PTR __k$[ebp+6], dl
  0008d	8a 50 07	 mov	 dl, BYTE PTR [eax+7]
  00090	84 d2		 test	 dl, dl
  00092	0f 84 3e 01 00
	00		 je	 $LN89@LoadFloat_@4
  00098	80 f2 ea	 xor	 dl, -22			; ffffffeaH
  0009b	88 55 eb	 mov	 BYTE PTR __k$[ebp+7], dl
  0009e	8a 50 08	 mov	 dl, BYTE PTR [eax+8]
  000a1	84 d2		 test	 dl, dl
  000a3	0f 84 27 01 00
	00		 je	 $LN88@LoadFloat_@4
  000a9	80 f2 ed	 xor	 dl, -19			; ffffffedH
  000ac	88 55 ec	 mov	 BYTE PTR __k$[ebp+8], dl
  000af	8a 50 09	 mov	 dl, BYTE PTR [eax+9]
  000b2	84 d2		 test	 dl, dl
  000b4	0f 84 11 01 00
	00		 je	 $LN87@LoadFloat_@4
  000ba	32 d3		 xor	 dl, bl
  000bc	88 55 ed	 mov	 BYTE PTR __k$[ebp+9], dl
  000bf	8a 50 0a	 mov	 dl, BYTE PTR [eax+10]
  000c2	84 d2		 test	 dl, dl
  000c4	0f 84 fc 00 00
	00		 je	 $LN86@LoadFloat_@4
  000ca	32 d1		 xor	 dl, cl
  000cc	88 55 ee	 mov	 BYTE PTR __k$[ebp+10], dl
  000cf	8a 50 0b	 mov	 dl, BYTE PTR [eax+11]
  000d2	84 d2		 test	 dl, dl
  000d4	0f 84 e6 00 00
	00		 je	 $LN85@LoadFloat_@4
  000da	80 f2 ea	 xor	 dl, -22			; ffffffeaH
  000dd	88 55 ef	 mov	 BYTE PTR __k$[ebp+11], dl
  000e0	8a 50 0c	 mov	 dl, BYTE PTR [eax+12]
  000e3	84 d2		 test	 dl, dl
  000e5	0f 84 cf 00 00
	00		 je	 $LN84@LoadFloat_@4
  000eb	80 f2 ed	 xor	 dl, -19			; ffffffedH
  000ee	88 55 f0	 mov	 BYTE PTR __k$[ebp+12], dl
  000f1	8a 50 0d	 mov	 dl, BYTE PTR [eax+13]
  000f4	84 d2		 test	 dl, dl
  000f6	0f 84 b9 00 00
	00		 je	 $LN83@LoadFloat_@4
  000fc	32 d3		 xor	 dl, bl
  000fe	88 55 f1	 mov	 BYTE PTR __k$[ebp+13], dl
  00101	8a 50 0e	 mov	 dl, BYTE PTR [eax+14]
  00104	84 d2		 test	 dl, dl
  00106	0f 84 a4 00 00
	00		 je	 $LN82@LoadFloat_@4
  0010c	32 d1		 xor	 dl, cl
  0010e	88 55 f2	 mov	 BYTE PTR __k$[ebp+14], dl
  00111	8a 50 0f	 mov	 dl, BYTE PTR [eax+15]
  00114	84 d2		 test	 dl, dl
  00116	0f 84 8e 00 00
	00		 je	 $LN81@LoadFloat_@4
  0011c	80 f2 ea	 xor	 dl, -22			; ffffffeaH
  0011f	88 55 f3	 mov	 BYTE PTR __k$[ebp+15], dl
  00122	8a 50 10	 mov	 dl, BYTE PTR [eax+16]
  00125	84 d2		 test	 dl, dl
  00127	74 7b		 je	 SHORT $LN80@LoadFloat_@4
  00129	80 f2 ed	 xor	 dl, -19			; ffffffedH
  0012c	88 55 f4	 mov	 BYTE PTR __k$[ebp+16], dl
  0012f	8a 50 11	 mov	 dl, BYTE PTR [eax+17]
  00132	84 d2		 test	 dl, dl
  00134	74 69		 je	 SHORT $LN79@LoadFloat_@4
  00136	32 d3		 xor	 dl, bl
  00138	88 55 f5	 mov	 BYTE PTR __k$[ebp+17], dl
  0013b	8a 50 12	 mov	 dl, BYTE PTR [eax+18]
  0013e	84 d2		 test	 dl, dl
  00140	74 58		 je	 SHORT $LN78@LoadFloat_@4
  00142	32 d1		 xor	 dl, cl
  00144	80 78 13 00	 cmp	 BYTE PTR [eax+19], 0
  00148	88 55 f6	 mov	 BYTE PTR __k$[ebp+18], dl
  0014b	0f 84 b1 00 00
	00		 je	 $LN1@LoadFloat_@4
  00151	8a 50 14	 mov	 dl, BYTE PTR [eax+20]
  00154	84 d2		 test	 dl, dl
  00156	74 3c		 je	 SHORT $LN76@LoadFloat_@4
  00158	80 f2 ed	 xor	 dl, -19			; ffffffedH
  0015b	88 55 f8	 mov	 BYTE PTR __k$[ebp+20], dl
  0015e	8a 50 15	 mov	 dl, BYTE PTR [eax+21]
  00161	84 d2		 test	 dl, dl
  00163	74 2a		 je	 SHORT $LN75@LoadFloat_@4
  00165	32 d3		 xor	 dl, bl
  00167	88 55 f9	 mov	 BYTE PTR __k$[ebp+21], dl
  0016a	8a 50 16	 mov	 dl, BYTE PTR [eax+22]
  0016d	84 d2		 test	 dl, dl
  0016f	74 19		 je	 SHORT $LN74@LoadFloat_@4
  00171	8a 40 17	 mov	 al, BYTE PTR [eax+23]
  00174	32 d1		 xor	 dl, cl
  00176	88 55 fa	 mov	 BYTE PTR __k$[ebp+22], dl
  00179	84 c0		 test	 al, al
  0017b	74 07		 je	 SHORT $LN73@LoadFloat_@4
  0017d	34 ea		 xor	 al, -22			; ffffffeaH
  0017f	88 45 fb	 mov	 BYTE PTR __k$[ebp+23], al
  00182	eb 7e		 jmp	 SHORT $LN1@LoadFloat_@4
$LN73@LoadFloat_@4:
  00184	c6 45 fb ea	 mov	 BYTE PTR __k$[ebp+23], -22 ; ffffffeaH
  00188	eb 78		 jmp	 SHORT $LN1@LoadFloat_@4
$LN74@LoadFloat_@4:
  0018a	88 4d fa	 mov	 BYTE PTR __k$[ebp+22], cl
  0018d	eb 73		 jmp	 SHORT $LN1@LoadFloat_@4
$LN75@LoadFloat_@4:
  0018f	88 5d f9	 mov	 BYTE PTR __k$[ebp+21], bl
  00192	eb 6e		 jmp	 SHORT $LN1@LoadFloat_@4
$LN76@LoadFloat_@4:
  00194	c6 45 f8 ed	 mov	 BYTE PTR __k$[ebp+20], -19 ; ffffffedH
  00198	eb 68		 jmp	 SHORT $LN1@LoadFloat_@4
$LN78@LoadFloat_@4:
  0019a	88 4d f6	 mov	 BYTE PTR __k$[ebp+18], cl
  0019d	eb 63		 jmp	 SHORT $LN1@LoadFloat_@4
$LN79@LoadFloat_@4:
  0019f	88 5d f5	 mov	 BYTE PTR __k$[ebp+17], bl
  001a2	eb 5e		 jmp	 SHORT $LN1@LoadFloat_@4
$LN80@LoadFloat_@4:
  001a4	c6 45 f4 ed	 mov	 BYTE PTR __k$[ebp+16], -19 ; ffffffedH
  001a8	eb 58		 jmp	 SHORT $LN1@LoadFloat_@4
$LN81@LoadFloat_@4:
  001aa	c6 45 f3 ea	 mov	 BYTE PTR __k$[ebp+15], -22 ; ffffffeaH
  001ae	eb 52		 jmp	 SHORT $LN1@LoadFloat_@4
$LN82@LoadFloat_@4:
  001b0	88 4d f2	 mov	 BYTE PTR __k$[ebp+14], cl
  001b3	eb 4d		 jmp	 SHORT $LN1@LoadFloat_@4
$LN83@LoadFloat_@4:
  001b5	88 5d f1	 mov	 BYTE PTR __k$[ebp+13], bl
  001b8	eb 48		 jmp	 SHORT $LN1@LoadFloat_@4
$LN84@LoadFloat_@4:
  001ba	c6 45 f0 ed	 mov	 BYTE PTR __k$[ebp+12], -19 ; ffffffedH
  001be	eb 42		 jmp	 SHORT $LN1@LoadFloat_@4
$LN85@LoadFloat_@4:
  001c0	c6 45 ef ea	 mov	 BYTE PTR __k$[ebp+11], -22 ; ffffffeaH
  001c4	eb 3c		 jmp	 SHORT $LN1@LoadFloat_@4
$LN86@LoadFloat_@4:
  001c6	88 4d ee	 mov	 BYTE PTR __k$[ebp+10], cl
  001c9	eb 37		 jmp	 SHORT $LN1@LoadFloat_@4
$LN87@LoadFloat_@4:
  001cb	88 5d ed	 mov	 BYTE PTR __k$[ebp+9], bl
  001ce	eb 32		 jmp	 SHORT $LN1@LoadFloat_@4
$LN88@LoadFloat_@4:
  001d0	c6 45 ec ed	 mov	 BYTE PTR __k$[ebp+8], -19 ; ffffffedH
  001d4	eb 2c		 jmp	 SHORT $LN1@LoadFloat_@4
$LN89@LoadFloat_@4:
  001d6	c6 45 eb ea	 mov	 BYTE PTR __k$[ebp+7], -22 ; ffffffeaH
  001da	eb 26		 jmp	 SHORT $LN1@LoadFloat_@4
$LN90@LoadFloat_@4:
  001dc	88 4d ea	 mov	 BYTE PTR __k$[ebp+6], cl
  001df	eb 21		 jmp	 SHORT $LN1@LoadFloat_@4
$LN91@LoadFloat_@4:
  001e1	88 5d e9	 mov	 BYTE PTR __k$[ebp+5], bl
  001e4	eb 1c		 jmp	 SHORT $LN1@LoadFloat_@4
$LN92@LoadFloat_@4:
  001e6	c6 45 e8 ed	 mov	 BYTE PTR __k$[ebp+4], -19 ; ffffffedH
  001ea	eb 16		 jmp	 SHORT $LN1@LoadFloat_@4
$LN93@LoadFloat_@4:
  001ec	c6 45 e7 ea	 mov	 BYTE PTR __k$[ebp+3], -22 ; ffffffeaH
  001f0	eb 10		 jmp	 SHORT $LN1@LoadFloat_@4
$LN94@LoadFloat_@4:
  001f2	c6 45 e6 eb	 mov	 BYTE PTR __k$[ebp+2], -21 ; ffffffebH
  001f6	eb 0a		 jmp	 SHORT $LN1@LoadFloat_@4
$LN95@LoadFloat_@4:
  001f8	c6 45 e5 ec	 mov	 BYTE PTR __k$[ebp+1], -20 ; ffffffecH
  001fc	eb 04		 jmp	 SHORT $LN1@LoadFloat_@4
$LN96@LoadFloat_@4:
  001fe	c6 45 e4 ed	 mov	 BYTE PTR __k$[ebp], -19	; ffffffedH
$LN1@LoadFloat_@4:
  00202	6a 04		 push	 4
  00204	8d 45 e4	 lea	 eax, DWORD PTR __k$[ebp]
  00207	c6 45 f7 00	 mov	 BYTE PTR __k$[ebp+19], 0
  0020b	5a		 pop	 edx
$LL104@LoadFloat_@4:
  0020c	81 30 ed ec eb
	ea		 xor	 DWORD PTR [eax], -353637139 ; eaebecedH
  00212	83 c0 04	 add	 eax, 4
  00215	4a		 dec	 edx
  00216	75 f4		 jne	 SHORT $LL104@LoadFloat_@4
  00218	6a 10		 push	 16			; 00000010H
  0021a	58		 pop	 eax
$LL101@LoadFloat_@4:
  0021b	8b c8		 mov	 ecx, eax
  0021d	81 e1 03 00 00
	80		 and	 ecx, -2147483645	; 80000003H
  00223	79 05		 jns	 SHORT $LN111@LoadFloat_@4
  00225	49		 dec	 ecx
  00226	83 c9 fc	 or	 ecx, -4			; fffffffcH
  00229	41		 inc	 ecx
$LN111@LoadFloat_@4:
  0022a	b2 ed		 mov	 dl, -19			; ffffffedH
  0022c	2a d1		 sub	 dl, cl
  0022e	30 54 05 e4	 xor	 BYTE PTR __k$[ebp+eax], dl
  00232	40		 inc	 eax
  00233	83 f8 13	 cmp	 eax, 19			; 00000013H
  00236	7c e3		 jl	 SHORT $LL101@LoadFloat_@4

; 137  : 		return LoadFloat(_k, f);

  00238	f3 0f 10 45 0c	 movss	 xmm0, DWORD PTR _f$[ebp]
  0023d	51		 push	 ecx
  0023e	8d 45 e4	 lea	 eax, DWORD PTR __k$[ebp]
  00241	f3 0f 11 04 24	 movss	 DWORD PTR [esp], xmm0
  00246	50		 push	 eax
  00247	8b ce		 mov	 ecx, esi
  00249	ff 15 00 00 00
	00		 call	 DWORD PTR __imp_?LoadFloat@ioINILoader@@QAEMPBDM@Z

; 138  : 	}

  0024f	8b 4d fc	 mov	 ecx, DWORD PTR __$ArrayPad$[ebp]
  00252	5e		 pop	 esi
  00253	33 cd		 xor	 ecx, ebp
  00255	5b		 pop	 ebx
  00256	e8 00 00 00 00	 call	 @__security_check_cookie@4
  0025b	c9		 leave
  0025c	c2 08 00	 ret	 8
??$LoadFloat_e@$0BE@@ioINILoader@@QAEMAAY0BE@$$CBDM@Z ENDP ; ioINILoader::LoadFloat_e<20>
_TEXT	ENDS
PUBLIC	__$ArrayPad$
PUBLIC	??$LoadInt_e@$0BG@@ioINILoader@@QAEHAAY0BG@$$CBDH@Z ; ioINILoader::LoadInt_e<22>
EXTRN	__imp_?LoadInt@ioINILoader@@QAEHPBDH@Z:PROC
; Function compile flags: /Ogsp
;	COMDAT ??$LoadInt_e@$0BG@@ioINILoader@@QAEHAAY0BG@$$CBDH@Z
_TEXT	SEGMENT
__k$ = -32						; size = 22
__$ArrayPad$ = -4					; size = 4
_k$ = 8							; size = 4
_i$ = 12						; size = 4
??$LoadInt_e@$0BG@@ioINILoader@@QAEHAAY0BG@$$CBDH@Z PROC ; ioINILoader::LoadInt_e<22>, COMDAT
; _this$ = ecx

; 118  : 	{

  00000	55		 push	 ebp
  00001	8b ec		 mov	 ebp, esp
  00003	83 ec 20	 sub	 esp, 32			; 00000020H
  00006	a1 00 00 00 00	 mov	 eax, DWORD PTR ___security_cookie
  0000b	33 c5		 xor	 eax, ebp
  0000d	89 45 fc	 mov	 DWORD PTR __$ArrayPad$[ebp], eax
  00010	8b 45 08	 mov	 eax, DWORD PTR _k$[ebp]

; 119  : 		_ENCSTR(k, _k);

  00013	8a 10		 mov	 dl, BYTE PTR [eax]
  00015	53		 push	 ebx
  00016	56		 push	 esi
  00017	8b f1		 mov	 esi, ecx
  00019	84 d2		 test	 dl, dl
  0001b	0f 84 15 02 00
	00		 je	 $LN96@LoadInt_e
  00021	80 f2 ed	 xor	 dl, -19			; ffffffedH
  00024	88 55 e0	 mov	 BYTE PTR __k$[ebp], dl
  00027	8a 50 01	 mov	 dl, BYTE PTR [eax+1]
  0002a	84 d2		 test	 dl, dl
  0002c	0f 84 fe 01 00
	00		 je	 $LN95@LoadInt_e
  00032	80 f2 ec	 xor	 dl, -20			; ffffffecH
  00035	88 55 e1	 mov	 BYTE PTR __k$[ebp+1], dl
  00038	8a 50 02	 mov	 dl, BYTE PTR [eax+2]
  0003b	84 d2		 test	 dl, dl
  0003d	0f 84 e7 01 00
	00		 je	 $LN94@LoadInt_e
  00043	b1 eb		 mov	 cl, -21			; ffffffebH
  00045	32 d1		 xor	 dl, cl
  00047	88 55 e2	 mov	 BYTE PTR __k$[ebp+2], dl
  0004a	8a 50 03	 mov	 dl, BYTE PTR [eax+3]
  0004d	84 d2		 test	 dl, dl
  0004f	0f 84 cf 01 00
	00		 je	 $LN93@LoadInt_e
  00055	b3 ea		 mov	 bl, -22			; ffffffeaH
  00057	32 d3		 xor	 dl, bl
  00059	88 55 e3	 mov	 BYTE PTR __k$[ebp+3], dl
  0005c	8a 50 04	 mov	 dl, BYTE PTR [eax+4]
  0005f	84 d2		 test	 dl, dl
  00061	0f 84 b7 01 00
	00		 je	 $LN92@LoadInt_e
  00067	80 f2 ed	 xor	 dl, -19			; ffffffedH
  0006a	88 55 e4	 mov	 BYTE PTR __k$[ebp+4], dl
  0006d	8a 50 05	 mov	 dl, BYTE PTR [eax+5]
  00070	84 d2		 test	 dl, dl
  00072	0f 84 a0 01 00
	00		 je	 $LN91@LoadInt_e
  00078	80 f2 ec	 xor	 dl, -20			; ffffffecH
  0007b	88 55 e5	 mov	 BYTE PTR __k$[ebp+5], dl
  0007e	8a 50 06	 mov	 dl, BYTE PTR [eax+6]
  00081	84 d2		 test	 dl, dl
  00083	0f 84 8a 01 00
	00		 je	 $LN90@LoadInt_e
  00089	32 d1		 xor	 dl, cl
  0008b	88 55 e6	 mov	 BYTE PTR __k$[ebp+6], dl
  0008e	8a 50 07	 mov	 dl, BYTE PTR [eax+7]
  00091	84 d2		 test	 dl, dl
  00093	0f 84 75 01 00
	00		 je	 $LN89@LoadInt_e
  00099	32 d3		 xor	 dl, bl
  0009b	88 55 e7	 mov	 BYTE PTR __k$[ebp+7], dl
  0009e	8a 50 08	 mov	 dl, BYTE PTR [eax+8]
  000a1	84 d2		 test	 dl, dl
  000a3	0f 84 5f 01 00
	00		 je	 $LN88@LoadInt_e
  000a9	80 f2 ed	 xor	 dl, -19			; ffffffedH
  000ac	88 55 e8	 mov	 BYTE PTR __k$[ebp+8], dl
  000af	8a 50 09	 mov	 dl, BYTE PTR [eax+9]
  000b2	84 d2		 test	 dl, dl
  000b4	0f 84 48 01 00
	00		 je	 $LN87@LoadInt_e
  000ba	80 f2 ec	 xor	 dl, -20			; ffffffecH
  000bd	88 55 e9	 mov	 BYTE PTR __k$[ebp+9], dl
  000c0	8a 50 0a	 mov	 dl, BYTE PTR [eax+10]
  000c3	84 d2		 test	 dl, dl
  000c5	0f 84 32 01 00
	00		 je	 $LN86@LoadInt_e
  000cb	32 d1		 xor	 dl, cl
  000cd	88 55 ea	 mov	 BYTE PTR __k$[ebp+10], dl
  000d0	8a 50 0b	 mov	 dl, BYTE PTR [eax+11]
  000d3	84 d2		 test	 dl, dl
  000d5	0f 84 1d 01 00
	00		 je	 $LN85@LoadInt_e
  000db	32 d3		 xor	 dl, bl
  000dd	88 55 eb	 mov	 BYTE PTR __k$[ebp+11], dl
  000e0	8a 50 0c	 mov	 dl, BYTE PTR [eax+12]
  000e3	84 d2		 test	 dl, dl
  000e5	0f 84 07 01 00
	00		 je	 $LN84@LoadInt_e
  000eb	80 f2 ed	 xor	 dl, -19			; ffffffedH
  000ee	88 55 ec	 mov	 BYTE PTR __k$[ebp+12], dl
  000f1	8a 50 0d	 mov	 dl, BYTE PTR [eax+13]
  000f4	84 d2		 test	 dl, dl
  000f6	0f 84 f0 00 00
	00		 je	 $LN83@LoadInt_e
  000fc	80 f2 ec	 xor	 dl, -20			; ffffffecH
  000ff	88 55 ed	 mov	 BYTE PTR __k$[ebp+13], dl
  00102	8a 50 0e	 mov	 dl, BYTE PTR [eax+14]
  00105	84 d2		 test	 dl, dl
  00107	0f 84 da 00 00
	00		 je	 $LN82@LoadInt_e
  0010d	32 d1		 xor	 dl, cl
  0010f	88 55 ee	 mov	 BYTE PTR __k$[ebp+14], dl
  00112	8a 50 0f	 mov	 dl, BYTE PTR [eax+15]
  00115	84 d2		 test	 dl, dl
  00117	0f 84 c5 00 00
	00		 je	 $LN81@LoadInt_e
  0011d	32 d3		 xor	 dl, bl
  0011f	88 55 ef	 mov	 BYTE PTR __k$[ebp+15], dl
  00122	8a 50 10	 mov	 dl, BYTE PTR [eax+16]
  00125	84 d2		 test	 dl, dl
  00127	0f 84 af 00 00
	00		 je	 $LN80@LoadInt_e
  0012d	80 f2 ed	 xor	 dl, -19			; ffffffedH
  00130	88 55 f0	 mov	 BYTE PTR __k$[ebp+16], dl
  00133	8a 50 11	 mov	 dl, BYTE PTR [eax+17]
  00136	84 d2		 test	 dl, dl
  00138	0f 84 98 00 00
	00		 je	 $LN79@LoadInt_e
  0013e	80 f2 ec	 xor	 dl, -20			; ffffffecH
  00141	88 55 f1	 mov	 BYTE PTR __k$[ebp+17], dl
  00144	8a 50 12	 mov	 dl, BYTE PTR [eax+18]
  00147	84 d2		 test	 dl, dl
  00149	0f 84 82 00 00
	00		 je	 $LN78@LoadInt_e
  0014f	32 d1		 xor	 dl, cl
  00151	88 55 f2	 mov	 BYTE PTR __k$[ebp+18], dl
  00154	8a 50 13	 mov	 dl, BYTE PTR [eax+19]
  00157	84 d2		 test	 dl, dl
  00159	74 71		 je	 SHORT $LN77@LoadInt_e
  0015b	32 d3		 xor	 dl, bl
  0015d	88 55 f3	 mov	 BYTE PTR __k$[ebp+19], dl
  00160	8a 50 14	 mov	 dl, BYTE PTR [eax+20]
  00163	84 d2		 test	 dl, dl
  00165	74 5f		 je	 SHORT $LN76@LoadInt_e
  00167	80 f2 ed	 xor	 dl, -19			; ffffffedH
  0016a	80 78 15 00	 cmp	 BYTE PTR [eax+21], 0
  0016e	88 55 f4	 mov	 BYTE PTR __k$[ebp+20], dl
  00171	0f 84 c3 00 00
	00		 je	 $LN1@LoadInt_e
  00177	8a 50 16	 mov	 dl, BYTE PTR [eax+22]
  0017a	84 d2		 test	 dl, dl
  0017c	74 43		 je	 SHORT $LN74@LoadInt_e
  0017e	32 d1		 xor	 dl, cl
  00180	88 55 f6	 mov	 BYTE PTR __k$[ebp+22], dl
  00183	8a 50 17	 mov	 dl, BYTE PTR [eax+23]
  00186	84 d2		 test	 dl, dl
  00188	74 32		 je	 SHORT $LN73@LoadInt_e
  0018a	32 d3		 xor	 dl, bl
  0018c	88 55 f7	 mov	 BYTE PTR __k$[ebp+23], dl
  0018f	8a 50 18	 mov	 dl, BYTE PTR [eax+24]
  00192	84 d2		 test	 dl, dl
  00194	74 20		 je	 SHORT $LN72@LoadInt_e
  00196	8a 40 19	 mov	 al, BYTE PTR [eax+25]
  00199	80 f2 ed	 xor	 dl, -19			; ffffffedH
  0019c	88 55 f8	 mov	 BYTE PTR __k$[ebp+24], dl
  0019f	84 c0		 test	 al, al
  001a1	74 0a		 je	 SHORT $LN71@LoadInt_e
  001a3	34 ec		 xor	 al, -20			; ffffffecH
  001a5	88 45 f9	 mov	 BYTE PTR __k$[ebp+25], al
  001a8	e9 8d 00 00 00	 jmp	 $LN1@LoadInt_e
$LN71@LoadInt_e:
  001ad	c6 45 f9 ec	 mov	 BYTE PTR __k$[ebp+25], -20 ; ffffffecH
  001b1	e9 84 00 00 00	 jmp	 $LN1@LoadInt_e
$LN72@LoadInt_e:
  001b6	c6 45 f8 ed	 mov	 BYTE PTR __k$[ebp+24], -19 ; ffffffedH
  001ba	eb 7e		 jmp	 SHORT $LN1@LoadInt_e
$LN73@LoadInt_e:
  001bc	88 5d f7	 mov	 BYTE PTR __k$[ebp+23], bl
  001bf	eb 79		 jmp	 SHORT $LN1@LoadInt_e
$LN74@LoadInt_e:
  001c1	88 4d f6	 mov	 BYTE PTR __k$[ebp+22], cl
  001c4	eb 74		 jmp	 SHORT $LN1@LoadInt_e
$LN76@LoadInt_e:
  001c6	c6 45 f4 ed	 mov	 BYTE PTR __k$[ebp+20], -19 ; ffffffedH
  001ca	eb 6e		 jmp	 SHORT $LN1@LoadInt_e
$LN77@LoadInt_e:
  001cc	88 5d f3	 mov	 BYTE PTR __k$[ebp+19], bl
  001cf	eb 69		 jmp	 SHORT $LN1@LoadInt_e
$LN78@LoadInt_e:
  001d1	88 4d f2	 mov	 BYTE PTR __k$[ebp+18], cl
  001d4	eb 64		 jmp	 SHORT $LN1@LoadInt_e
$LN79@LoadInt_e:
  001d6	c6 45 f1 ec	 mov	 BYTE PTR __k$[ebp+17], -20 ; ffffffecH
  001da	eb 5e		 jmp	 SHORT $LN1@LoadInt_e
$LN80@LoadInt_e:
  001dc	c6 45 f0 ed	 mov	 BYTE PTR __k$[ebp+16], -19 ; ffffffedH
  001e0	eb 58		 jmp	 SHORT $LN1@LoadInt_e
$LN81@LoadInt_e:
  001e2	88 5d ef	 mov	 BYTE PTR __k$[ebp+15], bl
  001e5	eb 53		 jmp	 SHORT $LN1@LoadInt_e
$LN82@LoadInt_e:
  001e7	88 4d ee	 mov	 BYTE PTR __k$[ebp+14], cl
  001ea	eb 4e		 jmp	 SHORT $LN1@LoadInt_e
$LN83@LoadInt_e:
  001ec	c6 45 ed ec	 mov	 BYTE PTR __k$[ebp+13], -20 ; ffffffecH
  001f0	eb 48		 jmp	 SHORT $LN1@LoadInt_e
$LN84@LoadInt_e:
  001f2	c6 45 ec ed	 mov	 BYTE PTR __k$[ebp+12], -19 ; ffffffedH
  001f6	eb 42		 jmp	 SHORT $LN1@LoadInt_e
$LN85@LoadInt_e:
  001f8	88 5d eb	 mov	 BYTE PTR __k$[ebp+11], bl
  001fb	eb 3d		 jmp	 SHORT $LN1@LoadInt_e
$LN86@LoadInt_e:
  001fd	88 4d ea	 mov	 BYTE PTR __k$[ebp+10], cl
  00200	eb 38		 jmp	 SHORT $LN1@LoadInt_e
$LN87@LoadInt_e:
  00202	c6 45 e9 ec	 mov	 BYTE PTR __k$[ebp+9], -20 ; ffffffecH
  00206	eb 32		 jmp	 SHORT $LN1@LoadInt_e
$LN88@LoadInt_e:
  00208	c6 45 e8 ed	 mov	 BYTE PTR __k$[ebp+8], -19 ; ffffffedH
  0020c	eb 2c		 jmp	 SHORT $LN1@LoadInt_e
$LN89@LoadInt_e:
  0020e	88 5d e7	 mov	 BYTE PTR __k$[ebp+7], bl
  00211	eb 27		 jmp	 SHORT $LN1@LoadInt_e
$LN90@LoadInt_e:
  00213	88 4d e6	 mov	 BYTE PTR __k$[ebp+6], cl
  00216	eb 22		 jmp	 SHORT $LN1@LoadInt_e
$LN91@LoadInt_e:
  00218	c6 45 e5 ec	 mov	 BYTE PTR __k$[ebp+5], -20 ; ffffffecH
  0021c	eb 1c		 jmp	 SHORT $LN1@LoadInt_e
$LN92@LoadInt_e:
  0021e	c6 45 e4 ed	 mov	 BYTE PTR __k$[ebp+4], -19 ; ffffffedH
  00222	eb 16		 jmp	 SHORT $LN1@LoadInt_e
$LN93@LoadInt_e:
  00224	c6 45 e3 ea	 mov	 BYTE PTR __k$[ebp+3], -22 ; ffffffeaH
  00228	eb 10		 jmp	 SHORT $LN1@LoadInt_e
$LN94@LoadInt_e:
  0022a	c6 45 e2 eb	 mov	 BYTE PTR __k$[ebp+2], -21 ; ffffffebH
  0022e	eb 0a		 jmp	 SHORT $LN1@LoadInt_e
$LN95@LoadInt_e:
  00230	c6 45 e1 ec	 mov	 BYTE PTR __k$[ebp+1], -20 ; ffffffecH
  00234	eb 04		 jmp	 SHORT $LN1@LoadInt_e
$LN96@LoadInt_e:
  00236	c6 45 e0 ed	 mov	 BYTE PTR __k$[ebp], -19	; ffffffedH
$LN1@LoadInt_e:
  0023a	6a 05		 push	 5
  0023c	8d 45 e0	 lea	 eax, DWORD PTR __k$[ebp]
  0023f	c6 45 f5 00	 mov	 BYTE PTR __k$[ebp+21], 0
  00243	5a		 pop	 edx
$LL104@LoadInt_e:
  00244	81 30 ed ec eb
	ea		 xor	 DWORD PTR [eax], -353637139 ; eaebecedH
  0024a	83 c0 04	 add	 eax, 4
  0024d	4a		 dec	 edx
  0024e	75 f4		 jne	 SHORT $LL104@LoadInt_e

; 120  : 		return LoadInt(_k, i);

  00250	ff 75 0c	 push	 DWORD PTR _i$[ebp]
  00253	80 75 f4 ed	 xor	 BYTE PTR __k$[ebp+20], -19 ; ffffffedH
  00257	8d 45 e0	 lea	 eax, DWORD PTR __k$[ebp]
  0025a	50		 push	 eax
  0025b	8b ce		 mov	 ecx, esi
  0025d	ff 15 00 00 00
	00		 call	 DWORD PTR __imp_?LoadInt@ioINILoader@@QAEHPBDH@Z

; 121  : 	}

  00263	8b 4d fc	 mov	 ecx, DWORD PTR __$ArrayPad$[ebp]
  00266	5e		 pop	 esi
  00267	33 cd		 xor	 ecx, ebp
  00269	5b		 pop	 ebx
  0026a	e8 00 00 00 00	 call	 @__security_check_cookie@4
  0026f	c9		 leave
  00270	c2 08 00	 ret	 8
??$LoadInt_e@$0BG@@ioINILoader@@QAEHAAY0BG@$$CBDH@Z ENDP ; ioINILoader::LoadInt_e<22>
_TEXT	ENDS
PUBLIC	__$ArrayPad$
PUBLIC	??$LoadFloat_e@$0BK@@ioINILoader@@QAEMAAY0BK@$$CBDM@Z ; ioINILoader::LoadFloat_e<26>
; Function compile flags: /Ogsp
;	COMDAT ??$LoadFloat_e@$0BK@@ioINILoader@@QAEMAAY0BK@$$CBDM@Z
_TEXT	SEGMENT
__k$ = -36						; size = 26
__$ArrayPad$ = -4					; size = 4
_k$ = 8							; size = 4
_f$ = 12						; size = 4
??$LoadFloat_e@$0BK@@ioINILoader@@QAEMAAY0BK@$$CBDM@Z PROC ; ioINILoader::LoadFloat_e<26>, COMDAT
; _this$ = ecx

; 135  : 	{

  00000	55		 push	 ebp
  00001	8b ec		 mov	 ebp, esp
  00003	83 ec 24	 sub	 esp, 36			; 00000024H
  00006	a1 00 00 00 00	 mov	 eax, DWORD PTR ___security_cookie
  0000b	33 c5		 xor	 eax, ebp
  0000d	89 45 fc	 mov	 DWORD PTR __$ArrayPad$[ebp], eax
  00010	8b 45 08	 mov	 eax, DWORD PTR _k$[ebp]

; 136  : 		_ENCSTR(k, _k);

  00013	8a 10		 mov	 dl, BYTE PTR [eax]
  00015	53		 push	 ebx
  00016	56		 push	 esi
  00017	8b f1		 mov	 esi, ecx
  00019	84 d2		 test	 dl, dl
  0001b	0f 84 79 02 00
	00		 je	 $LN96@LoadFloat_@5
  00021	80 f2 ed	 xor	 dl, -19			; ffffffedH
  00024	88 55 dc	 mov	 BYTE PTR __k$[ebp], dl
  00027	8a 50 01	 mov	 dl, BYTE PTR [eax+1]
  0002a	84 d2		 test	 dl, dl
  0002c	0f 84 62 02 00
	00		 je	 $LN95@LoadFloat_@5
  00032	80 f2 ec	 xor	 dl, -20			; ffffffecH
  00035	88 55 dd	 mov	 BYTE PTR __k$[ebp+1], dl
  00038	8a 50 02	 mov	 dl, BYTE PTR [eax+2]
  0003b	84 d2		 test	 dl, dl
  0003d	0f 84 4b 02 00
	00		 je	 $LN94@LoadFloat_@5
  00043	b1 eb		 mov	 cl, -21			; ffffffebH
  00045	32 d1		 xor	 dl, cl
  00047	88 55 de	 mov	 BYTE PTR __k$[ebp+2], dl
  0004a	8a 50 03	 mov	 dl, BYTE PTR [eax+3]
  0004d	84 d2		 test	 dl, dl
  0004f	0f 84 33 02 00
	00		 je	 $LN93@LoadFloat_@5
  00055	b3 ea		 mov	 bl, -22			; ffffffeaH
  00057	32 d3		 xor	 dl, bl
  00059	88 55 df	 mov	 BYTE PTR __k$[ebp+3], dl
  0005c	8a 50 04	 mov	 dl, BYTE PTR [eax+4]
  0005f	84 d2		 test	 dl, dl
  00061	0f 84 1b 02 00
	00		 je	 $LN92@LoadFloat_@5
  00067	80 f2 ed	 xor	 dl, -19			; ffffffedH
  0006a	88 55 e0	 mov	 BYTE PTR __k$[ebp+4], dl
  0006d	8a 50 05	 mov	 dl, BYTE PTR [eax+5]
  00070	84 d2		 test	 dl, dl
  00072	0f 84 04 02 00
	00		 je	 $LN91@LoadFloat_@5
  00078	80 f2 ec	 xor	 dl, -20			; ffffffecH
  0007b	88 55 e1	 mov	 BYTE PTR __k$[ebp+5], dl
  0007e	8a 50 06	 mov	 dl, BYTE PTR [eax+6]
  00081	84 d2		 test	 dl, dl
  00083	0f 84 ee 01 00
	00		 je	 $LN90@LoadFloat_@5
  00089	32 d1		 xor	 dl, cl
  0008b	88 55 e2	 mov	 BYTE PTR __k$[ebp+6], dl
  0008e	8a 50 07	 mov	 dl, BYTE PTR [eax+7]
  00091	84 d2		 test	 dl, dl
  00093	0f 84 d9 01 00
	00		 je	 $LN89@LoadFloat_@5
  00099	32 d3		 xor	 dl, bl
  0009b	88 55 e3	 mov	 BYTE PTR __k$[ebp+7], dl
  0009e	8a 50 08	 mov	 dl, BYTE PTR [eax+8]
  000a1	84 d2		 test	 dl, dl
  000a3	0f 84 c3 01 00
	00		 je	 $LN88@LoadFloat_@5
  000a9	80 f2 ed	 xor	 dl, -19			; ffffffedH
  000ac	88 55 e4	 mov	 BYTE PTR __k$[ebp+8], dl
  000af	8a 50 09	 mov	 dl, BYTE PTR [eax+9]
  000b2	84 d2		 test	 dl, dl
  000b4	0f 84 ac 01 00
	00		 je	 $LN87@LoadFloat_@5
  000ba	80 f2 ec	 xor	 dl, -20			; ffffffecH
  000bd	88 55 e5	 mov	 BYTE PTR __k$[ebp+9], dl
  000c0	8a 50 0a	 mov	 dl, BYTE PTR [eax+10]
  000c3	84 d2		 test	 dl, dl
  000c5	0f 84 96 01 00
	00		 je	 $LN86@LoadFloat_@5
  000cb	32 d1		 xor	 dl, cl
  000cd	88 55 e6	 mov	 BYTE PTR __k$[ebp+10], dl
  000d0	8a 50 0b	 mov	 dl, BYTE PTR [eax+11]
  000d3	84 d2		 test	 dl, dl
  000d5	0f 84 81 01 00
	00		 je	 $LN85@LoadFloat_@5
  000db	32 d3		 xor	 dl, bl
  000dd	88 55 e7	 mov	 BYTE PTR __k$[ebp+11], dl
  000e0	8a 50 0c	 mov	 dl, BYTE PTR [eax+12]
  000e3	84 d2		 test	 dl, dl
  000e5	0f 84 6b 01 00
	00		 je	 $LN84@LoadFloat_@5
  000eb	80 f2 ed	 xor	 dl, -19			; ffffffedH
  000ee	88 55 e8	 mov	 BYTE PTR __k$[ebp+12], dl
  000f1	8a 50 0d	 mov	 dl, BYTE PTR [eax+13]
  000f4	84 d2		 test	 dl, dl
  000f6	0f 84 54 01 00
	00		 je	 $LN83@LoadFloat_@5
  000fc	80 f2 ec	 xor	 dl, -20			; ffffffecH
  000ff	88 55 e9	 mov	 BYTE PTR __k$[ebp+13], dl
  00102	8a 50 0e	 mov	 dl, BYTE PTR [eax+14]
  00105	84 d2		 test	 dl, dl
  00107	0f 84 3e 01 00
	00		 je	 $LN82@LoadFloat_@5
  0010d	32 d1		 xor	 dl, cl
  0010f	88 55 ea	 mov	 BYTE PTR __k$[ebp+14], dl
  00112	8a 50 0f	 mov	 dl, BYTE PTR [eax+15]
  00115	84 d2		 test	 dl, dl
  00117	0f 84 29 01 00
	00		 je	 $LN81@LoadFloat_@5
  0011d	32 d3		 xor	 dl, bl
  0011f	88 55 eb	 mov	 BYTE PTR __k$[ebp+15], dl
  00122	8a 50 10	 mov	 dl, BYTE PTR [eax+16]
  00125	84 d2		 test	 dl, dl
  00127	0f 84 13 01 00
	00		 je	 $LN80@LoadFloat_@5
  0012d	80 f2 ed	 xor	 dl, -19			; ffffffedH
  00130	88 55 ec	 mov	 BYTE PTR __k$[ebp+16], dl
  00133	8a 50 11	 mov	 dl, BYTE PTR [eax+17]
  00136	84 d2		 test	 dl, dl
  00138	0f 84 fc 00 00
	00		 je	 $LN79@LoadFloat_@5
  0013e	80 f2 ec	 xor	 dl, -20			; ffffffecH
  00141	88 55 ed	 mov	 BYTE PTR __k$[ebp+17], dl
  00144	8a 50 12	 mov	 dl, BYTE PTR [eax+18]
  00147	84 d2		 test	 dl, dl
  00149	0f 84 e6 00 00
	00		 je	 $LN78@LoadFloat_@5
  0014f	32 d1		 xor	 dl, cl
  00151	88 55 ee	 mov	 BYTE PTR __k$[ebp+18], dl
  00154	8a 50 13	 mov	 dl, BYTE PTR [eax+19]
  00157	84 d2		 test	 dl, dl
  00159	0f 84 d1 00 00
	00		 je	 $LN77@LoadFloat_@5
  0015f	32 d3		 xor	 dl, bl
  00161	88 55 ef	 mov	 BYTE PTR __k$[ebp+19], dl
  00164	8a 50 14	 mov	 dl, BYTE PTR [eax+20]
  00167	84 d2		 test	 dl, dl
  00169	0f 84 bb 00 00
	00		 je	 $LN76@LoadFloat_@5
  0016f	80 f2 ed	 xor	 dl, -19			; ffffffedH
  00172	88 55 f0	 mov	 BYTE PTR __k$[ebp+20], dl
  00175	8a 50 15	 mov	 dl, BYTE PTR [eax+21]
  00178	84 d2		 test	 dl, dl
  0017a	0f 84 a4 00 00
	00		 je	 $LN75@LoadFloat_@5
  00180	80 f2 ec	 xor	 dl, -20			; ffffffecH
  00183	88 55 f1	 mov	 BYTE PTR __k$[ebp+21], dl
  00186	8a 50 16	 mov	 dl, BYTE PTR [eax+22]
  00189	84 d2		 test	 dl, dl
  0018b	0f 84 8e 00 00
	00		 je	 $LN74@LoadFloat_@5
  00191	32 d1		 xor	 dl, cl
  00193	88 55 f2	 mov	 BYTE PTR __k$[ebp+22], dl
  00196	8a 50 17	 mov	 dl, BYTE PTR [eax+23]
  00199	84 d2		 test	 dl, dl
  0019b	74 7d		 je	 SHORT $LN73@LoadFloat_@5
  0019d	32 d3		 xor	 dl, bl
  0019f	88 55 f3	 mov	 BYTE PTR __k$[ebp+23], dl
  001a2	8a 50 18	 mov	 dl, BYTE PTR [eax+24]
  001a5	84 d2		 test	 dl, dl
  001a7	74 68		 je	 SHORT $LN72@LoadFloat_@5
  001a9	80 f2 ed	 xor	 dl, -19			; ffffffedH
  001ac	80 78 19 00	 cmp	 BYTE PTR [eax+25], 0
  001b0	88 55 f4	 mov	 BYTE PTR __k$[ebp+24], dl
  001b3	0f 84 e5 00 00
	00		 je	 $LN1@LoadFloat_@5
  001b9	8a 50 1a	 mov	 dl, BYTE PTR [eax+26]
  001bc	84 d2		 test	 dl, dl
  001be	74 49		 je	 SHORT $LN70@LoadFloat_@5
  001c0	32 d1		 xor	 dl, cl
  001c2	88 55 f6	 mov	 BYTE PTR __k$[ebp+26], dl
  001c5	8a 50 1b	 mov	 dl, BYTE PTR [eax+27]
  001c8	84 d2		 test	 dl, dl
  001ca	74 35		 je	 SHORT $LN69@LoadFloat_@5
  001cc	32 d3		 xor	 dl, bl
  001ce	88 55 f7	 mov	 BYTE PTR __k$[ebp+27], dl
  001d1	8a 50 1c	 mov	 dl, BYTE PTR [eax+28]
  001d4	84 d2		 test	 dl, dl
  001d6	74 20		 je	 SHORT $LN68@LoadFloat_@5
  001d8	8a 40 1d	 mov	 al, BYTE PTR [eax+29]
  001db	80 f2 ed	 xor	 dl, -19			; ffffffedH
  001de	88 55 f8	 mov	 BYTE PTR __k$[ebp+28], dl
  001e1	84 c0		 test	 al, al
  001e3	74 0a		 je	 SHORT $LN67@LoadFloat_@5
  001e5	34 ec		 xor	 al, -20			; ffffffecH
  001e7	88 45 f9	 mov	 BYTE PTR __k$[ebp+29], al
  001ea	e9 af 00 00 00	 jmp	 $LN1@LoadFloat_@5
$LN67@LoadFloat_@5:
  001ef	c6 45 f9 ec	 mov	 BYTE PTR __k$[ebp+29], -20 ; ffffffecH
  001f3	e9 a6 00 00 00	 jmp	 $LN1@LoadFloat_@5
$LN68@LoadFloat_@5:
  001f8	c6 45 f8 ed	 mov	 BYTE PTR __k$[ebp+28], -19 ; ffffffedH
  001fc	e9 9d 00 00 00	 jmp	 $LN1@LoadFloat_@5
$LN69@LoadFloat_@5:
  00201	88 5d f7	 mov	 BYTE PTR __k$[ebp+27], bl
  00204	e9 95 00 00 00	 jmp	 $LN1@LoadFloat_@5
$LN70@LoadFloat_@5:
  00209	88 4d f6	 mov	 BYTE PTR __k$[ebp+26], cl
  0020c	e9 8d 00 00 00	 jmp	 $LN1@LoadFloat_@5
$LN72@LoadFloat_@5:
  00211	c6 45 f4 ed	 mov	 BYTE PTR __k$[ebp+24], -19 ; ffffffedH
  00215	e9 84 00 00 00	 jmp	 $LN1@LoadFloat_@5
$LN73@LoadFloat_@5:
  0021a	88 5d f3	 mov	 BYTE PTR __k$[ebp+23], bl
  0021d	eb 7f		 jmp	 SHORT $LN1@LoadFloat_@5
$LN74@LoadFloat_@5:
  0021f	88 4d f2	 mov	 BYTE PTR __k$[ebp+22], cl
  00222	eb 7a		 jmp	 SHORT $LN1@LoadFloat_@5
$LN75@LoadFloat_@5:
  00224	c6 45 f1 ec	 mov	 BYTE PTR __k$[ebp+21], -20 ; ffffffecH
  00228	eb 74		 jmp	 SHORT $LN1@LoadFloat_@5
$LN76@LoadFloat_@5:
  0022a	c6 45 f0 ed	 mov	 BYTE PTR __k$[ebp+20], -19 ; ffffffedH
  0022e	eb 6e		 jmp	 SHORT $LN1@LoadFloat_@5
$LN77@LoadFloat_@5:
  00230	88 5d ef	 mov	 BYTE PTR __k$[ebp+19], bl
  00233	eb 69		 jmp	 SHORT $LN1@LoadFloat_@5
$LN78@LoadFloat_@5:
  00235	88 4d ee	 mov	 BYTE PTR __k$[ebp+18], cl
  00238	eb 64		 jmp	 SHORT $LN1@LoadFloat_@5
$LN79@LoadFloat_@5:
  0023a	c6 45 ed ec	 mov	 BYTE PTR __k$[ebp+17], -20 ; ffffffecH
  0023e	eb 5e		 jmp	 SHORT $LN1@LoadFloat_@5
$LN80@LoadFloat_@5:
  00240	c6 45 ec ed	 mov	 BYTE PTR __k$[ebp+16], -19 ; ffffffedH
  00244	eb 58		 jmp	 SHORT $LN1@LoadFloat_@5
$LN81@LoadFloat_@5:
  00246	88 5d eb	 mov	 BYTE PTR __k$[ebp+15], bl
  00249	eb 53		 jmp	 SHORT $LN1@LoadFloat_@5
$LN82@LoadFloat_@5:
  0024b	88 4d ea	 mov	 BYTE PTR __k$[ebp+14], cl
  0024e	eb 4e		 jmp	 SHORT $LN1@LoadFloat_@5
$LN83@LoadFloat_@5:
  00250	c6 45 e9 ec	 mov	 BYTE PTR __k$[ebp+13], -20 ; ffffffecH
  00254	eb 48		 jmp	 SHORT $LN1@LoadFloat_@5
$LN84@LoadFloat_@5:
  00256	c6 45 e8 ed	 mov	 BYTE PTR __k$[ebp+12], -19 ; ffffffedH
  0025a	eb 42		 jmp	 SHORT $LN1@LoadFloat_@5
$LN85@LoadFloat_@5:
  0025c	88 5d e7	 mov	 BYTE PTR __k$[ebp+11], bl
  0025f	eb 3d		 jmp	 SHORT $LN1@LoadFloat_@5
$LN86@LoadFloat_@5:
  00261	88 4d e6	 mov	 BYTE PTR __k$[ebp+10], cl
  00264	eb 38		 jmp	 SHORT $LN1@LoadFloat_@5
$LN87@LoadFloat_@5:
  00266	c6 45 e5 ec	 mov	 BYTE PTR __k$[ebp+9], -20 ; ffffffecH
  0026a	eb 32		 jmp	 SHORT $LN1@LoadFloat_@5
$LN88@LoadFloat_@5:
  0026c	c6 45 e4 ed	 mov	 BYTE PTR __k$[ebp+8], -19 ; ffffffedH
  00270	eb 2c		 jmp	 SHORT $LN1@LoadFloat_@5
$LN89@LoadFloat_@5:
  00272	88 5d e3	 mov	 BYTE PTR __k$[ebp+7], bl
  00275	eb 27		 jmp	 SHORT $LN1@LoadFloat_@5
$LN90@LoadFloat_@5:
  00277	88 4d e2	 mov	 BYTE PTR __k$[ebp+6], cl
  0027a	eb 22		 jmp	 SHORT $LN1@LoadFloat_@5
$LN91@LoadFloat_@5:
  0027c	c6 45 e1 ec	 mov	 BYTE PTR __k$[ebp+5], -20 ; ffffffecH
  00280	eb 1c		 jmp	 SHORT $LN1@LoadFloat_@5
$LN92@LoadFloat_@5:
  00282	c6 45 e0 ed	 mov	 BYTE PTR __k$[ebp+4], -19 ; ffffffedH
  00286	eb 16		 jmp	 SHORT $LN1@LoadFloat_@5
$LN93@LoadFloat_@5:
  00288	c6 45 df ea	 mov	 BYTE PTR __k$[ebp+3], -22 ; ffffffeaH
  0028c	eb 10		 jmp	 SHORT $LN1@LoadFloat_@5
$LN94@LoadFloat_@5:
  0028e	c6 45 de eb	 mov	 BYTE PTR __k$[ebp+2], -21 ; ffffffebH
  00292	eb 0a		 jmp	 SHORT $LN1@LoadFloat_@5
$LN95@LoadFloat_@5:
  00294	c6 45 dd ec	 mov	 BYTE PTR __k$[ebp+1], -20 ; ffffffecH
  00298	eb 04		 jmp	 SHORT $LN1@LoadFloat_@5
$LN96@LoadFloat_@5:
  0029a	c6 45 dc ed	 mov	 BYTE PTR __k$[ebp], -19	; ffffffedH
$LN1@LoadFloat_@5:
  0029e	6a 06		 push	 6
  002a0	8d 45 dc	 lea	 eax, DWORD PTR __k$[ebp]
  002a3	c6 45 f5 00	 mov	 BYTE PTR __k$[ebp+25], 0
  002a7	5a		 pop	 edx
$LL104@LoadFloat_@5:
  002a8	81 30 ed ec eb
	ea		 xor	 DWORD PTR [eax], -353637139 ; eaebecedH
  002ae	83 c0 04	 add	 eax, 4
  002b1	4a		 dec	 edx
  002b2	75 f4		 jne	 SHORT $LL104@LoadFloat_@5

; 137  : 		return LoadFloat(_k, f);

  002b4	f3 0f 10 45 0c	 movss	 xmm0, DWORD PTR _f$[ebp]
  002b9	80 75 f4 ed	 xor	 BYTE PTR __k$[ebp+24], -19 ; ffffffedH
  002bd	51		 push	 ecx
  002be	8d 45 dc	 lea	 eax, DWORD PTR __k$[ebp]
  002c1	f3 0f 11 04 24	 movss	 DWORD PTR [esp], xmm0
  002c6	50		 push	 eax
  002c7	8b ce		 mov	 ecx, esi
  002c9	ff 15 00 00 00
	00		 call	 DWORD PTR __imp_?LoadFloat@ioINILoader@@QAEMPBDM@Z

; 138  : 	}

  002cf	8b 4d fc	 mov	 ecx, DWORD PTR __$ArrayPad$[ebp]
  002d2	5e		 pop	 esi
  002d3	33 cd		 xor	 ecx, ebp
  002d5	5b		 pop	 ebx
  002d6	e8 00 00 00 00	 call	 @__security_check_cookie@4
  002db	c9		 leave
  002dc	c2 08 00	 ret	 8
??$LoadFloat_e@$0BK@@ioINILoader@@QAEMAAY0BK@$$CBDM@Z ENDP ; ioINILoader::LoadFloat_e<26>
_TEXT	ENDS
PUBLIC	__$ArrayPad$
PUBLIC	??$LoadInt_e@$0BD@@ioINILoader@@QAEHAAY0BD@$$CBDH@Z ; ioINILoader::LoadInt_e<19>
; Function compile flags: /Ogsp
;	COMDAT ??$LoadInt_e@$0BD@@ioINILoader@@QAEHAAY0BD@$$CBDH@Z
_TEXT	SEGMENT
__k$ = -28						; size = 19
__$ArrayPad$ = -4					; size = 4
_k$ = 8							; size = 4
_i$ = 12						; size = 4
??$LoadInt_e@$0BD@@ioINILoader@@QAEHAAY0BD@$$CBDH@Z PROC ; ioINILoader::LoadInt_e<19>, COMDAT
; _this$ = ecx

; 118  : 	{

  00000	55		 push	 ebp
  00001	8b ec		 mov	 ebp, esp
  00003	83 ec 1c	 sub	 esp, 28			; 0000001cH
  00006	a1 00 00 00 00	 mov	 eax, DWORD PTR ___security_cookie
  0000b	33 c5		 xor	 eax, ebp
  0000d	89 45 fc	 mov	 DWORD PTR __$ArrayPad$[ebp], eax
  00010	8b 45 08	 mov	 eax, DWORD PTR _k$[ebp]

; 119  : 		_ENCSTR(k, _k);

  00013	8a 10		 mov	 dl, BYTE PTR [eax]
  00015	56		 push	 esi
  00016	8b f1		 mov	 esi, ecx
  00018	84 d2		 test	 dl, dl
  0001a	0f 84 cf 01 00
	00		 je	 $LN96@LoadInt_e@2
  00020	80 f2 ed	 xor	 dl, -19			; ffffffedH
  00023	88 55 e4	 mov	 BYTE PTR __k$[ebp], dl
  00026	8a 50 01	 mov	 dl, BYTE PTR [eax+1]
  00029	84 d2		 test	 dl, dl
  0002b	0f 84 b8 01 00
	00		 je	 $LN95@LoadInt_e@2
  00031	b1 ec		 mov	 cl, -20			; ffffffecH
  00033	32 d1		 xor	 dl, cl
  00035	88 55 e5	 mov	 BYTE PTR __k$[ebp+1], dl
  00038	8a 50 02	 mov	 dl, BYTE PTR [eax+2]
  0003b	84 d2		 test	 dl, dl
  0003d	0f 84 a0 01 00
	00		 je	 $LN94@LoadInt_e@2
  00043	80 f2 eb	 xor	 dl, -21			; ffffffebH
  00046	88 55 e6	 mov	 BYTE PTR __k$[ebp+2], dl
  00049	8a 50 03	 mov	 dl, BYTE PTR [eax+3]
  0004c	84 d2		 test	 dl, dl
  0004e	0f 84 89 01 00
	00		 je	 $LN93@LoadInt_e@2
  00054	80 f2 ea	 xor	 dl, -22			; ffffffeaH
  00057	88 55 e7	 mov	 BYTE PTR __k$[ebp+3], dl
  0005a	8a 50 04	 mov	 dl, BYTE PTR [eax+4]
  0005d	84 d2		 test	 dl, dl
  0005f	0f 84 72 01 00
	00		 je	 $LN92@LoadInt_e@2
  00065	80 f2 ed	 xor	 dl, -19			; ffffffedH
  00068	88 55 e8	 mov	 BYTE PTR __k$[ebp+4], dl
  0006b	8a 50 05	 mov	 dl, BYTE PTR [eax+5]
  0006e	84 d2		 test	 dl, dl
  00070	0f 84 5c 01 00
	00		 je	 $LN91@LoadInt_e@2
  00076	32 d1		 xor	 dl, cl
  00078	88 55 e9	 mov	 BYTE PTR __k$[ebp+5], dl
  0007b	8a 50 06	 mov	 dl, BYTE PTR [eax+6]
  0007e	84 d2		 test	 dl, dl
  00080	0f 84 46 01 00
	00		 je	 $LN90@LoadInt_e@2
  00086	80 f2 eb	 xor	 dl, -21			; ffffffebH
  00089	88 55 ea	 mov	 BYTE PTR __k$[ebp+6], dl
  0008c	8a 50 07	 mov	 dl, BYTE PTR [eax+7]
  0008f	84 d2		 test	 dl, dl
  00091	0f 84 2f 01 00
	00		 je	 $LN89@LoadInt_e@2
  00097	80 f2 ea	 xor	 dl, -22			; ffffffeaH
  0009a	88 55 eb	 mov	 BYTE PTR __k$[ebp+7], dl
  0009d	8a 50 08	 mov	 dl, BYTE PTR [eax+8]
  000a0	84 d2		 test	 dl, dl
  000a2	0f 84 18 01 00
	00		 je	 $LN88@LoadInt_e@2
  000a8	80 f2 ed	 xor	 dl, -19			; ffffffedH
  000ab	88 55 ec	 mov	 BYTE PTR __k$[ebp+8], dl
  000ae	8a 50 09	 mov	 dl, BYTE PTR [eax+9]
  000b1	84 d2		 test	 dl, dl
  000b3	0f 84 02 01 00
	00		 je	 $LN87@LoadInt_e@2
  000b9	32 d1		 xor	 dl, cl
  000bb	88 55 ed	 mov	 BYTE PTR __k$[ebp+9], dl
  000be	8a 50 0a	 mov	 dl, BYTE PTR [eax+10]
  000c1	84 d2		 test	 dl, dl
  000c3	0f 84 ec 00 00
	00		 je	 $LN86@LoadInt_e@2
  000c9	80 f2 eb	 xor	 dl, -21			; ffffffebH
  000cc	88 55 ee	 mov	 BYTE PTR __k$[ebp+10], dl
  000cf	8a 50 0b	 mov	 dl, BYTE PTR [eax+11]
  000d2	84 d2		 test	 dl, dl
  000d4	0f 84 d5 00 00
	00		 je	 $LN85@LoadInt_e@2
  000da	80 f2 ea	 xor	 dl, -22			; ffffffeaH
  000dd	88 55 ef	 mov	 BYTE PTR __k$[ebp+11], dl
  000e0	8a 50 0c	 mov	 dl, BYTE PTR [eax+12]
  000e3	84 d2		 test	 dl, dl
  000e5	0f 84 be 00 00
	00		 je	 $LN84@LoadInt_e@2
  000eb	80 f2 ed	 xor	 dl, -19			; ffffffedH
  000ee	88 55 f0	 mov	 BYTE PTR __k$[ebp+12], dl
  000f1	8a 50 0d	 mov	 dl, BYTE PTR [eax+13]
  000f4	84 d2		 test	 dl, dl
  000f6	0f 84 a8 00 00
	00		 je	 $LN83@LoadInt_e@2
  000fc	32 d1		 xor	 dl, cl
  000fe	88 55 f1	 mov	 BYTE PTR __k$[ebp+13], dl
  00101	8a 50 0e	 mov	 dl, BYTE PTR [eax+14]
  00104	84 d2		 test	 dl, dl
  00106	0f 84 92 00 00
	00		 je	 $LN82@LoadInt_e@2
  0010c	80 f2 eb	 xor	 dl, -21			; ffffffebH
  0010f	88 55 f2	 mov	 BYTE PTR __k$[ebp+14], dl
  00112	8a 50 0f	 mov	 dl, BYTE PTR [eax+15]
  00115	84 d2		 test	 dl, dl
  00117	74 7f		 je	 SHORT $LN81@LoadInt_e@2
  00119	80 f2 ea	 xor	 dl, -22			; ffffffeaH
  0011c	88 55 f3	 mov	 BYTE PTR __k$[ebp+15], dl
  0011f	8a 50 10	 mov	 dl, BYTE PTR [eax+16]
  00122	84 d2		 test	 dl, dl
  00124	74 6c		 je	 SHORT $LN80@LoadInt_e@2
  00126	80 f2 ed	 xor	 dl, -19			; ffffffedH
  00129	88 55 f4	 mov	 BYTE PTR __k$[ebp+16], dl
  0012c	8a 50 11	 mov	 dl, BYTE PTR [eax+17]
  0012f	84 d2		 test	 dl, dl
  00131	74 5a		 je	 SHORT $LN79@LoadInt_e@2
  00133	32 d1		 xor	 dl, cl
  00135	80 78 12 00	 cmp	 BYTE PTR [eax+18], 0
  00139	88 55 f5	 mov	 BYTE PTR __k$[ebp+17], dl
  0013c	0f 84 b1 00 00
	00		 je	 $LN1@LoadInt_e@2
  00142	8a 50 13	 mov	 dl, BYTE PTR [eax+19]
  00145	84 d2		 test	 dl, dl
  00147	74 3e		 je	 SHORT $LN77@LoadInt_e@2
  00149	80 f2 ea	 xor	 dl, -22			; ffffffeaH
  0014c	88 55 f7	 mov	 BYTE PTR __k$[ebp+19], dl
  0014f	8a 50 14	 mov	 dl, BYTE PTR [eax+20]
  00152	84 d2		 test	 dl, dl
  00154	74 2b		 je	 SHORT $LN76@LoadInt_e@2
  00156	80 f2 ed	 xor	 dl, -19			; ffffffedH
  00159	88 55 f8	 mov	 BYTE PTR __k$[ebp+20], dl
  0015c	8a 50 15	 mov	 dl, BYTE PTR [eax+21]
  0015f	84 d2		 test	 dl, dl
  00161	74 19		 je	 SHORT $LN75@LoadInt_e@2
  00163	8a 40 16	 mov	 al, BYTE PTR [eax+22]
  00166	32 d1		 xor	 dl, cl
  00168	88 55 f9	 mov	 BYTE PTR __k$[ebp+21], dl
  0016b	84 c0		 test	 al, al
  0016d	74 07		 je	 SHORT $LN74@LoadInt_e@2
  0016f	34 eb		 xor	 al, -21			; ffffffebH
  00171	88 45 fa	 mov	 BYTE PTR __k$[ebp+22], al
  00174	eb 7d		 jmp	 SHORT $LN1@LoadInt_e@2
$LN74@LoadInt_e@2:
  00176	c6 45 fa eb	 mov	 BYTE PTR __k$[ebp+22], -21 ; ffffffebH
  0017a	eb 77		 jmp	 SHORT $LN1@LoadInt_e@2
$LN75@LoadInt_e@2:
  0017c	88 4d f9	 mov	 BYTE PTR __k$[ebp+21], cl
  0017f	eb 72		 jmp	 SHORT $LN1@LoadInt_e@2
$LN76@LoadInt_e@2:
  00181	c6 45 f8 ed	 mov	 BYTE PTR __k$[ebp+20], -19 ; ffffffedH
  00185	eb 6c		 jmp	 SHORT $LN1@LoadInt_e@2
$LN77@LoadInt_e@2:
  00187	c6 45 f7 ea	 mov	 BYTE PTR __k$[ebp+19], -22 ; ffffffeaH
  0018b	eb 66		 jmp	 SHORT $LN1@LoadInt_e@2
$LN79@LoadInt_e@2:
  0018d	88 4d f5	 mov	 BYTE PTR __k$[ebp+17], cl
  00190	eb 61		 jmp	 SHORT $LN1@LoadInt_e@2
$LN80@LoadInt_e@2:
  00192	c6 45 f4 ed	 mov	 BYTE PTR __k$[ebp+16], -19 ; ffffffedH
  00196	eb 5b		 jmp	 SHORT $LN1@LoadInt_e@2
$LN81@LoadInt_e@2:
  00198	c6 45 f3 ea	 mov	 BYTE PTR __k$[ebp+15], -22 ; ffffffeaH
  0019c	eb 55		 jmp	 SHORT $LN1@LoadInt_e@2
$LN82@LoadInt_e@2:
  0019e	c6 45 f2 eb	 mov	 BYTE PTR __k$[ebp+14], -21 ; ffffffebH
  001a2	eb 4f		 jmp	 SHORT $LN1@LoadInt_e@2
$LN83@LoadInt_e@2:
  001a4	88 4d f1	 mov	 BYTE PTR __k$[ebp+13], cl
  001a7	eb 4a		 jmp	 SHORT $LN1@LoadInt_e@2
$LN84@LoadInt_e@2:
  001a9	c6 45 f0 ed	 mov	 BYTE PTR __k$[ebp+12], -19 ; ffffffedH
  001ad	eb 44		 jmp	 SHORT $LN1@LoadInt_e@2
$LN85@LoadInt_e@2:
  001af	c6 45 ef ea	 mov	 BYTE PTR __k$[ebp+11], -22 ; ffffffeaH
  001b3	eb 3e		 jmp	 SHORT $LN1@LoadInt_e@2
$LN86@LoadInt_e@2:
  001b5	c6 45 ee eb	 mov	 BYTE PTR __k$[ebp+10], -21 ; ffffffebH
  001b9	eb 38		 jmp	 SHORT $LN1@LoadInt_e@2
$LN87@LoadInt_e@2:
  001bb	88 4d ed	 mov	 BYTE PTR __k$[ebp+9], cl
  001be	eb 33		 jmp	 SHORT $LN1@LoadInt_e@2
$LN88@LoadInt_e@2:
  001c0	c6 45 ec ed	 mov	 BYTE PTR __k$[ebp+8], -19 ; ffffffedH
  001c4	eb 2d		 jmp	 SHORT $LN1@LoadInt_e@2
$LN89@LoadInt_e@2:
  001c6	c6 45 eb ea	 mov	 BYTE PTR __k$[ebp+7], -22 ; ffffffeaH
  001ca	eb 27		 jmp	 SHORT $LN1@LoadInt_e@2
$LN90@LoadInt_e@2:
  001cc	c6 45 ea eb	 mov	 BYTE PTR __k$[ebp+6], -21 ; ffffffebH
  001d0	eb 21		 jmp	 SHORT $LN1@LoadInt_e@2
$LN91@LoadInt_e@2:
  001d2	88 4d e9	 mov	 BYTE PTR __k$[ebp+5], cl
  001d5	eb 1c		 jmp	 SHORT $LN1@LoadInt_e@2
$LN92@LoadInt_e@2:
  001d7	c6 45 e8 ed	 mov	 BYTE PTR __k$[ebp+4], -19 ; ffffffedH
  001db	eb 16		 jmp	 SHORT $LN1@LoadInt_e@2
$LN93@LoadInt_e@2:
  001dd	c6 45 e7 ea	 mov	 BYTE PTR __k$[ebp+3], -22 ; ffffffeaH
  001e1	eb 10		 jmp	 SHORT $LN1@LoadInt_e@2
$LN94@LoadInt_e@2:
  001e3	c6 45 e6 eb	 mov	 BYTE PTR __k$[ebp+2], -21 ; ffffffebH
  001e7	eb 0a		 jmp	 SHORT $LN1@LoadInt_e@2
$LN95@LoadInt_e@2:
  001e9	c6 45 e5 ec	 mov	 BYTE PTR __k$[ebp+1], -20 ; ffffffecH
  001ed	eb 04		 jmp	 SHORT $LN1@LoadInt_e@2
$LN96@LoadInt_e@2:
  001ef	c6 45 e4 ed	 mov	 BYTE PTR __k$[ebp], -19	; ffffffedH
$LN1@LoadInt_e@2:
  001f3	6a 04		 push	 4
  001f5	8d 45 e4	 lea	 eax, DWORD PTR __k$[ebp]
  001f8	c6 45 f6 00	 mov	 BYTE PTR __k$[ebp+18], 0
  001fc	5a		 pop	 edx
$LL104@LoadInt_e@2:
  001fd	81 30 ed ec eb
	ea		 xor	 DWORD PTR [eax], -353637139 ; eaebecedH
  00203	83 c0 04	 add	 eax, 4
  00206	4a		 dec	 edx
  00207	75 f4		 jne	 SHORT $LL104@LoadInt_e@2
  00209	6a 10		 push	 16			; 00000010H
  0020b	58		 pop	 eax
$LL101@LoadInt_e@2:
  0020c	8b c8		 mov	 ecx, eax
  0020e	81 e1 03 00 00
	80		 and	 ecx, -2147483645	; 80000003H
  00214	79 05		 jns	 SHORT $LN111@LoadInt_e@2
  00216	49		 dec	 ecx
  00217	83 c9 fc	 or	 ecx, -4			; fffffffcH
  0021a	41		 inc	 ecx
$LN111@LoadInt_e@2:
  0021b	b2 ed		 mov	 dl, -19			; ffffffedH
  0021d	2a d1		 sub	 dl, cl
  0021f	30 54 05 e4	 xor	 BYTE PTR __k$[ebp+eax], dl
  00223	40		 inc	 eax
  00224	83 f8 12	 cmp	 eax, 18			; 00000012H
  00227	7c e3		 jl	 SHORT $LL101@LoadInt_e@2

; 120  : 		return LoadInt(_k, i);

  00229	ff 75 0c	 push	 DWORD PTR _i$[ebp]
  0022c	8d 45 e4	 lea	 eax, DWORD PTR __k$[ebp]
  0022f	50		 push	 eax
  00230	8b ce		 mov	 ecx, esi
  00232	ff 15 00 00 00
	00		 call	 DWORD PTR __imp_?LoadInt@ioINILoader@@QAEHPBDH@Z

; 121  : 	}

  00238	8b 4d fc	 mov	 ecx, DWORD PTR __$ArrayPad$[ebp]
  0023b	33 cd		 xor	 ecx, ebp
  0023d	5e		 pop	 esi
  0023e	e8 00 00 00 00	 call	 @__security_check_cookie@4
  00243	c9		 leave
  00244	c2 08 00	 ret	 8
??$LoadInt_e@$0BD@@ioINILoader@@QAEHAAY0BD@$$CBDH@Z ENDP ; ioINILoader::LoadInt_e<19>
_TEXT	ENDS
PUBLIC	__$ArrayPad$
PUBLIC	??$LoadInt_e@$0P@@ioINILoader@@QAEHAAY0P@$$CBDH@Z ; ioINILoader::LoadInt_e<15>
; Function compile flags: /Ogsp
;	COMDAT ??$LoadInt_e@$0P@@ioINILoader@@QAEHAAY0P@$$CBDH@Z
_TEXT	SEGMENT
__k$ = -24						; size = 15
__$ArrayPad$ = -4					; size = 4
_k$ = 8							; size = 4
_i$ = 12						; size = 4
??$LoadInt_e@$0P@@ioINILoader@@QAEHAAY0P@$$CBDH@Z PROC	; ioINILoader::LoadInt_e<15>, COMDAT
; _this$ = ecx

; 118  : 	{

  00000	55		 push	 ebp
  00001	8b ec		 mov	 ebp, esp
  00003	83 ec 18	 sub	 esp, 24			; 00000018H
  00006	a1 00 00 00 00	 mov	 eax, DWORD PTR ___security_cookie
  0000b	33 c5		 xor	 eax, ebp
  0000d	89 45 fc	 mov	 DWORD PTR __$ArrayPad$[ebp], eax
  00010	8b 45 08	 mov	 eax, DWORD PTR _k$[ebp]

; 119  : 		_ENCSTR(k, _k);

  00013	8a 10		 mov	 dl, BYTE PTR [eax]
  00015	56		 push	 esi
  00016	8b f1		 mov	 esi, ecx
  00018	84 d2		 test	 dl, dl
  0001a	0f 84 75 01 00
	00		 je	 $LN96@LoadInt_e@3
  00020	80 f2 ed	 xor	 dl, -19			; ffffffedH
  00023	88 55 e8	 mov	 BYTE PTR __k$[ebp], dl
  00026	8a 50 01	 mov	 dl, BYTE PTR [eax+1]
  00029	84 d2		 test	 dl, dl
  0002b	0f 84 5e 01 00
	00		 je	 $LN95@LoadInt_e@3
  00031	b1 ec		 mov	 cl, -20			; ffffffecH
  00033	32 d1		 xor	 dl, cl
  00035	88 55 e9	 mov	 BYTE PTR __k$[ebp+1], dl
  00038	8a 50 02	 mov	 dl, BYTE PTR [eax+2]
  0003b	84 d2		 test	 dl, dl
  0003d	0f 84 46 01 00
	00		 je	 $LN94@LoadInt_e@3
  00043	80 f2 eb	 xor	 dl, -21			; ffffffebH
  00046	88 55 ea	 mov	 BYTE PTR __k$[ebp+2], dl
  00049	8a 50 03	 mov	 dl, BYTE PTR [eax+3]
  0004c	84 d2		 test	 dl, dl
  0004e	0f 84 2f 01 00
	00		 je	 $LN93@LoadInt_e@3
  00054	80 f2 ea	 xor	 dl, -22			; ffffffeaH
  00057	88 55 eb	 mov	 BYTE PTR __k$[ebp+3], dl
  0005a	8a 50 04	 mov	 dl, BYTE PTR [eax+4]
  0005d	84 d2		 test	 dl, dl
  0005f	0f 84 18 01 00
	00		 je	 $LN92@LoadInt_e@3
  00065	80 f2 ed	 xor	 dl, -19			; ffffffedH
  00068	88 55 ec	 mov	 BYTE PTR __k$[ebp+4], dl
  0006b	8a 50 05	 mov	 dl, BYTE PTR [eax+5]
  0006e	84 d2		 test	 dl, dl
  00070	0f 84 02 01 00
	00		 je	 $LN91@LoadInt_e@3
  00076	32 d1		 xor	 dl, cl
  00078	88 55 ed	 mov	 BYTE PTR __k$[ebp+5], dl
  0007b	8a 50 06	 mov	 dl, BYTE PTR [eax+6]
  0007e	84 d2		 test	 dl, dl
  00080	0f 84 ec 00 00
	00		 je	 $LN90@LoadInt_e@3
  00086	80 f2 eb	 xor	 dl, -21			; ffffffebH
  00089	88 55 ee	 mov	 BYTE PTR __k$[ebp+6], dl
  0008c	8a 50 07	 mov	 dl, BYTE PTR [eax+7]
  0008f	84 d2		 test	 dl, dl
  00091	0f 84 d5 00 00
	00		 je	 $LN89@LoadInt_e@3
  00097	80 f2 ea	 xor	 dl, -22			; ffffffeaH
  0009a	88 55 ef	 mov	 BYTE PTR __k$[ebp+7], dl
  0009d	8a 50 08	 mov	 dl, BYTE PTR [eax+8]
  000a0	84 d2		 test	 dl, dl
  000a2	0f 84 be 00 00
	00		 je	 $LN88@LoadInt_e@3
  000a8	80 f2 ed	 xor	 dl, -19			; ffffffedH
  000ab	88 55 f0	 mov	 BYTE PTR __k$[ebp+8], dl
  000ae	8a 50 09	 mov	 dl, BYTE PTR [eax+9]
  000b1	84 d2		 test	 dl, dl
  000b3	0f 84 a8 00 00
	00		 je	 $LN87@LoadInt_e@3
  000b9	32 d1		 xor	 dl, cl
  000bb	88 55 f1	 mov	 BYTE PTR __k$[ebp+9], dl
  000be	8a 50 0a	 mov	 dl, BYTE PTR [eax+10]
  000c1	84 d2		 test	 dl, dl
  000c3	0f 84 92 00 00
	00		 je	 $LN86@LoadInt_e@3
  000c9	80 f2 eb	 xor	 dl, -21			; ffffffebH
  000cc	88 55 f2	 mov	 BYTE PTR __k$[ebp+10], dl
  000cf	8a 50 0b	 mov	 dl, BYTE PTR [eax+11]
  000d2	84 d2		 test	 dl, dl
  000d4	74 7f		 je	 SHORT $LN85@LoadInt_e@3
  000d6	80 f2 ea	 xor	 dl, -22			; ffffffeaH
  000d9	88 55 f3	 mov	 BYTE PTR __k$[ebp+11], dl
  000dc	8a 50 0c	 mov	 dl, BYTE PTR [eax+12]
  000df	84 d2		 test	 dl, dl
  000e1	74 6c		 je	 SHORT $LN84@LoadInt_e@3
  000e3	80 f2 ed	 xor	 dl, -19			; ffffffedH
  000e6	88 55 f4	 mov	 BYTE PTR __k$[ebp+12], dl
  000e9	8a 50 0d	 mov	 dl, BYTE PTR [eax+13]
  000ec	84 d2		 test	 dl, dl
  000ee	74 5a		 je	 SHORT $LN83@LoadInt_e@3
  000f0	32 d1		 xor	 dl, cl
  000f2	80 78 0e 00	 cmp	 BYTE PTR [eax+14], 0
  000f6	88 55 f5	 mov	 BYTE PTR __k$[ebp+13], dl
  000f9	0f 84 9a 00 00
	00		 je	 $LN1@LoadInt_e@3
  000ff	8a 50 0f	 mov	 dl, BYTE PTR [eax+15]
  00102	84 d2		 test	 dl, dl
  00104	74 3e		 je	 SHORT $LN81@LoadInt_e@3
  00106	80 f2 ea	 xor	 dl, -22			; ffffffeaH
  00109	88 55 f7	 mov	 BYTE PTR __k$[ebp+15], dl
  0010c	8a 50 10	 mov	 dl, BYTE PTR [eax+16]
  0010f	84 d2		 test	 dl, dl
  00111	74 2b		 je	 SHORT $LN80@LoadInt_e@3
  00113	80 f2 ed	 xor	 dl, -19			; ffffffedH
  00116	88 55 f8	 mov	 BYTE PTR __k$[ebp+16], dl
  00119	8a 50 11	 mov	 dl, BYTE PTR [eax+17]
  0011c	84 d2		 test	 dl, dl
  0011e	74 19		 je	 SHORT $LN79@LoadInt_e@3
  00120	8a 40 12	 mov	 al, BYTE PTR [eax+18]
  00123	32 d1		 xor	 dl, cl
  00125	88 55 f9	 mov	 BYTE PTR __k$[ebp+17], dl
  00128	84 c0		 test	 al, al
  0012a	74 07		 je	 SHORT $LN78@LoadInt_e@3
  0012c	34 eb		 xor	 al, -21			; ffffffebH
  0012e	88 45 fa	 mov	 BYTE PTR __k$[ebp+18], al
  00131	eb 66		 jmp	 SHORT $LN1@LoadInt_e@3
$LN78@LoadInt_e@3:
  00133	c6 45 fa eb	 mov	 BYTE PTR __k$[ebp+18], -21 ; ffffffebH
  00137	eb 60		 jmp	 SHORT $LN1@LoadInt_e@3
$LN79@LoadInt_e@3:
  00139	88 4d f9	 mov	 BYTE PTR __k$[ebp+17], cl
  0013c	eb 5b		 jmp	 SHORT $LN1@LoadInt_e@3
$LN80@LoadInt_e@3:
  0013e	c6 45 f8 ed	 mov	 BYTE PTR __k$[ebp+16], -19 ; ffffffedH
  00142	eb 55		 jmp	 SHORT $LN1@LoadInt_e@3
$LN81@LoadInt_e@3:
  00144	c6 45 f7 ea	 mov	 BYTE PTR __k$[ebp+15], -22 ; ffffffeaH
  00148	eb 4f		 jmp	 SHORT $LN1@LoadInt_e@3
$LN83@LoadInt_e@3:
  0014a	88 4d f5	 mov	 BYTE PTR __k$[ebp+13], cl
  0014d	eb 4a		 jmp	 SHORT $LN1@LoadInt_e@3
$LN84@LoadInt_e@3:
  0014f	c6 45 f4 ed	 mov	 BYTE PTR __k$[ebp+12], -19 ; ffffffedH
  00153	eb 44		 jmp	 SHORT $LN1@LoadInt_e@3
$LN85@LoadInt_e@3:
  00155	c6 45 f3 ea	 mov	 BYTE PTR __k$[ebp+11], -22 ; ffffffeaH
  00159	eb 3e		 jmp	 SHORT $LN1@LoadInt_e@3
$LN86@LoadInt_e@3:
  0015b	c6 45 f2 eb	 mov	 BYTE PTR __k$[ebp+10], -21 ; ffffffebH
  0015f	eb 38		 jmp	 SHORT $LN1@LoadInt_e@3
$LN87@LoadInt_e@3:
  00161	88 4d f1	 mov	 BYTE PTR __k$[ebp+9], cl
  00164	eb 33		 jmp	 SHORT $LN1@LoadInt_e@3
$LN88@LoadInt_e@3:
  00166	c6 45 f0 ed	 mov	 BYTE PTR __k$[ebp+8], -19 ; ffffffedH
  0016a	eb 2d		 jmp	 SHORT $LN1@LoadInt_e@3
$LN89@LoadInt_e@3:
  0016c	c6 45 ef ea	 mov	 BYTE PTR __k$[ebp+7], -22 ; ffffffeaH
  00170	eb 27		 jmp	 SHORT $LN1@LoadInt_e@3
$LN90@LoadInt_e@3:
  00172	c6 45 ee eb	 mov	 BYTE PTR __k$[ebp+6], -21 ; ffffffebH
  00176	eb 21		 jmp	 SHORT $LN1@LoadInt_e@3
$LN91@LoadInt_e@3:
  00178	88 4d ed	 mov	 BYTE PTR __k$[ebp+5], cl
  0017b	eb 1c		 jmp	 SHORT $LN1@LoadInt_e@3
$LN92@LoadInt_e@3:
  0017d	c6 45 ec ed	 mov	 BYTE PTR __k$[ebp+4], -19 ; ffffffedH
  00181	eb 16		 jmp	 SHORT $LN1@LoadInt_e@3
$LN93@LoadInt_e@3:
  00183	c6 45 eb ea	 mov	 BYTE PTR __k$[ebp+3], -22 ; ffffffeaH
  00187	eb 10		 jmp	 SHORT $LN1@LoadInt_e@3
$LN94@LoadInt_e@3:
  00189	c6 45 ea eb	 mov	 BYTE PTR __k$[ebp+2], -21 ; ffffffebH
  0018d	eb 0a		 jmp	 SHORT $LN1@LoadInt_e@3
$LN95@LoadInt_e@3:
  0018f	c6 45 e9 ec	 mov	 BYTE PTR __k$[ebp+1], -20 ; ffffffecH
  00193	eb 04		 jmp	 SHORT $LN1@LoadInt_e@3
$LN96@LoadInt_e@3:
  00195	c6 45 e8 ed	 mov	 BYTE PTR __k$[ebp], -19	; ffffffedH
$LN1@LoadInt_e@3:
  00199	6a 03		 push	 3
  0019b	8d 45 e8	 lea	 eax, DWORD PTR __k$[ebp]
  0019e	c6 45 f6 00	 mov	 BYTE PTR __k$[ebp+14], 0
  001a2	5a		 pop	 edx
$LL104@LoadInt_e@3:
  001a3	81 30 ed ec eb
	ea		 xor	 DWORD PTR [eax], -353637139 ; eaebecedH
  001a9	83 c0 04	 add	 eax, 4
  001ac	4a		 dec	 edx
  001ad	75 f4		 jne	 SHORT $LL104@LoadInt_e@3
  001af	6a 0c		 push	 12			; 0000000cH
  001b1	58		 pop	 eax
$LL101@LoadInt_e@3:
  001b2	8b c8		 mov	 ecx, eax
  001b4	81 e1 03 00 00
	80		 and	 ecx, -2147483645	; 80000003H
  001ba	79 05		 jns	 SHORT $LN111@LoadInt_e@3
  001bc	49		 dec	 ecx
  001bd	83 c9 fc	 or	 ecx, -4			; fffffffcH
  001c0	41		 inc	 ecx
$LN111@LoadInt_e@3:
  001c1	b2 ed		 mov	 dl, -19			; ffffffedH
  001c3	2a d1		 sub	 dl, cl
  001c5	30 54 05 e8	 xor	 BYTE PTR __k$[ebp+eax], dl
  001c9	40		 inc	 eax
  001ca	83 f8 0e	 cmp	 eax, 14			; 0000000eH
  001cd	7c e3		 jl	 SHORT $LL101@LoadInt_e@3

; 120  : 		return LoadInt(_k, i);

  001cf	ff 75 0c	 push	 DWORD PTR _i$[ebp]
  001d2	8d 45 e8	 lea	 eax, DWORD PTR __k$[ebp]
  001d5	50		 push	 eax
  001d6	8b ce		 mov	 ecx, esi
  001d8	ff 15 00 00 00
	00		 call	 DWORD PTR __imp_?LoadInt@ioINILoader@@QAEHPBDH@Z

; 121  : 	}

  001de	8b 4d fc	 mov	 ecx, DWORD PTR __$ArrayPad$[ebp]
  001e1	33 cd		 xor	 ecx, ebp
  001e3	5e		 pop	 esi
  001e4	e8 00 00 00 00	 call	 @__security_check_cookie@4
  001e9	c9		 leave
  001ea	c2 08 00	 ret	 8
??$LoadInt_e@$0P@@ioINILoader@@QAEHAAY0P@$$CBDH@Z ENDP	; ioINILoader::LoadInt_e<15>
_TEXT	ENDS
PUBLIC	__$ArrayPad$
PUBLIC	??$LoadInt_e@$0BE@@ioINILoader@@QAEHAAY0BE@$$CBDH@Z ; ioINILoader::LoadInt_e<20>
; Function compile flags: /Ogsp
;	COMDAT ??$LoadInt_e@$0BE@@ioINILoader@@QAEHAAY0BE@$$CBDH@Z
_TEXT	SEGMENT
__k$ = -28						; size = 20
__$ArrayPad$ = -4					; size = 4
_k$ = 8							; size = 4
_i$ = 12						; size = 4
??$LoadInt_e@$0BE@@ioINILoader@@QAEHAAY0BE@$$CBDH@Z PROC ; ioINILoader::LoadInt_e<20>, COMDAT
; _this$ = ecx

; 118  : 	{

  00000	55		 push	 ebp
  00001	8b ec		 mov	 ebp, esp
  00003	83 ec 1c	 sub	 esp, 28			; 0000001cH
  00006	a1 00 00 00 00	 mov	 eax, DWORD PTR ___security_cookie
  0000b	33 c5		 xor	 eax, ebp
  0000d	89 45 fc	 mov	 DWORD PTR __$ArrayPad$[ebp], eax
  00010	8b 45 08	 mov	 eax, DWORD PTR _k$[ebp]

; 119  : 		_ENCSTR(k, _k);

  00013	8a 10		 mov	 dl, BYTE PTR [eax]
  00015	53		 push	 ebx
  00016	56		 push	 esi
  00017	8b f1		 mov	 esi, ecx
  00019	84 d2		 test	 dl, dl
  0001b	0f 84 dd 01 00
	00		 je	 $LN96@LoadInt_e@4
  00021	80 f2 ed	 xor	 dl, -19			; ffffffedH
  00024	88 55 e4	 mov	 BYTE PTR __k$[ebp], dl
  00027	8a 50 01	 mov	 dl, BYTE PTR [eax+1]
  0002a	84 d2		 test	 dl, dl
  0002c	0f 84 c6 01 00
	00		 je	 $LN95@LoadInt_e@4
  00032	b3 ec		 mov	 bl, -20			; ffffffecH
  00034	32 d3		 xor	 dl, bl
  00036	88 55 e5	 mov	 BYTE PTR __k$[ebp+1], dl
  00039	8a 50 02	 mov	 dl, BYTE PTR [eax+2]
  0003c	84 d2		 test	 dl, dl
  0003e	0f 84 ae 01 00
	00		 je	 $LN94@LoadInt_e@4
  00044	b1 eb		 mov	 cl, -21			; ffffffebH
  00046	32 d1		 xor	 dl, cl
  00048	88 55 e6	 mov	 BYTE PTR __k$[ebp+2], dl
  0004b	8a 50 03	 mov	 dl, BYTE PTR [eax+3]
  0004e	84 d2		 test	 dl, dl
  00050	0f 84 96 01 00
	00		 je	 $LN93@LoadInt_e@4
  00056	80 f2 ea	 xor	 dl, -22			; ffffffeaH
  00059	88 55 e7	 mov	 BYTE PTR __k$[ebp+3], dl
  0005c	8a 50 04	 mov	 dl, BYTE PTR [eax+4]
  0005f	84 d2		 test	 dl, dl
  00061	0f 84 7f 01 00
	00		 je	 $LN92@LoadInt_e@4
  00067	80 f2 ed	 xor	 dl, -19			; ffffffedH
  0006a	88 55 e8	 mov	 BYTE PTR __k$[ebp+4], dl
  0006d	8a 50 05	 mov	 dl, BYTE PTR [eax+5]
  00070	84 d2		 test	 dl, dl
  00072	0f 84 69 01 00
	00		 je	 $LN91@LoadInt_e@4
  00078	32 d3		 xor	 dl, bl
  0007a	88 55 e9	 mov	 BYTE PTR __k$[ebp+5], dl
  0007d	8a 50 06	 mov	 dl, BYTE PTR [eax+6]
  00080	84 d2		 test	 dl, dl
  00082	0f 84 54 01 00
	00		 je	 $LN90@LoadInt_e@4
  00088	32 d1		 xor	 dl, cl
  0008a	88 55 ea	 mov	 BYTE PTR __k$[ebp+6], dl
  0008d	8a 50 07	 mov	 dl, BYTE PTR [eax+7]
  00090	84 d2		 test	 dl, dl
  00092	0f 84 3e 01 00
	00		 je	 $LN89@LoadInt_e@4
  00098	80 f2 ea	 xor	 dl, -22			; ffffffeaH
  0009b	88 55 eb	 mov	 BYTE PTR __k$[ebp+7], dl
  0009e	8a 50 08	 mov	 dl, BYTE PTR [eax+8]
  000a1	84 d2		 test	 dl, dl
  000a3	0f 84 27 01 00
	00		 je	 $LN88@LoadInt_e@4
  000a9	80 f2 ed	 xor	 dl, -19			; ffffffedH
  000ac	88 55 ec	 mov	 BYTE PTR __k$[ebp+8], dl
  000af	8a 50 09	 mov	 dl, BYTE PTR [eax+9]
  000b2	84 d2		 test	 dl, dl
  000b4	0f 84 11 01 00
	00		 je	 $LN87@LoadInt_e@4
  000ba	32 d3		 xor	 dl, bl
  000bc	88 55 ed	 mov	 BYTE PTR __k$[ebp+9], dl
  000bf	8a 50 0a	 mov	 dl, BYTE PTR [eax+10]
  000c2	84 d2		 test	 dl, dl
  000c4	0f 84 fc 00 00
	00		 je	 $LN86@LoadInt_e@4
  000ca	32 d1		 xor	 dl, cl
  000cc	88 55 ee	 mov	 BYTE PTR __k$[ebp+10], dl
  000cf	8a 50 0b	 mov	 dl, BYTE PTR [eax+11]
  000d2	84 d2		 test	 dl, dl
  000d4	0f 84 e6 00 00
	00		 je	 $LN85@LoadInt_e@4
  000da	80 f2 ea	 xor	 dl, -22			; ffffffeaH
  000dd	88 55 ef	 mov	 BYTE PTR __k$[ebp+11], dl
  000e0	8a 50 0c	 mov	 dl, BYTE PTR [eax+12]
  000e3	84 d2		 test	 dl, dl
  000e5	0f 84 cf 00 00
	00		 je	 $LN84@LoadInt_e@4
  000eb	80 f2 ed	 xor	 dl, -19			; ffffffedH
  000ee	88 55 f0	 mov	 BYTE PTR __k$[ebp+12], dl
  000f1	8a 50 0d	 mov	 dl, BYTE PTR [eax+13]
  000f4	84 d2		 test	 dl, dl
  000f6	0f 84 b9 00 00
	00		 je	 $LN83@LoadInt_e@4
  000fc	32 d3		 xor	 dl, bl
  000fe	88 55 f1	 mov	 BYTE PTR __k$[ebp+13], dl
  00101	8a 50 0e	 mov	 dl, BYTE PTR [eax+14]
  00104	84 d2		 test	 dl, dl
  00106	0f 84 a4 00 00
	00		 je	 $LN82@LoadInt_e@4
  0010c	32 d1		 xor	 dl, cl
  0010e	88 55 f2	 mov	 BYTE PTR __k$[ebp+14], dl
  00111	8a 50 0f	 mov	 dl, BYTE PTR [eax+15]
  00114	84 d2		 test	 dl, dl
  00116	0f 84 8e 00 00
	00		 je	 $LN81@LoadInt_e@4
  0011c	80 f2 ea	 xor	 dl, -22			; ffffffeaH
  0011f	88 55 f3	 mov	 BYTE PTR __k$[ebp+15], dl
  00122	8a 50 10	 mov	 dl, BYTE PTR [eax+16]
  00125	84 d2		 test	 dl, dl
  00127	74 7b		 je	 SHORT $LN80@LoadInt_e@4
  00129	80 f2 ed	 xor	 dl, -19			; ffffffedH
  0012c	88 55 f4	 mov	 BYTE PTR __k$[ebp+16], dl
  0012f	8a 50 11	 mov	 dl, BYTE PTR [eax+17]
  00132	84 d2		 test	 dl, dl
  00134	74 69		 je	 SHORT $LN79@LoadInt_e@4
  00136	32 d3		 xor	 dl, bl
  00138	88 55 f5	 mov	 BYTE PTR __k$[ebp+17], dl
  0013b	8a 50 12	 mov	 dl, BYTE PTR [eax+18]
  0013e	84 d2		 test	 dl, dl
  00140	74 58		 je	 SHORT $LN78@LoadInt_e@4
  00142	32 d1		 xor	 dl, cl
  00144	80 78 13 00	 cmp	 BYTE PTR [eax+19], 0
  00148	88 55 f6	 mov	 BYTE PTR __k$[ebp+18], dl
  0014b	0f 84 b1 00 00
	00		 je	 $LN1@LoadInt_e@4
  00151	8a 50 14	 mov	 dl, BYTE PTR [eax+20]
  00154	84 d2		 test	 dl, dl
  00156	74 3c		 je	 SHORT $LN76@LoadInt_e@4
  00158	80 f2 ed	 xor	 dl, -19			; ffffffedH
  0015b	88 55 f8	 mov	 BYTE PTR __k$[ebp+20], dl
  0015e	8a 50 15	 mov	 dl, BYTE PTR [eax+21]
  00161	84 d2		 test	 dl, dl
  00163	74 2a		 je	 SHORT $LN75@LoadInt_e@4
  00165	32 d3		 xor	 dl, bl
  00167	88 55 f9	 mov	 BYTE PTR __k$[ebp+21], dl
  0016a	8a 50 16	 mov	 dl, BYTE PTR [eax+22]
  0016d	84 d2		 test	 dl, dl
  0016f	74 19		 je	 SHORT $LN74@LoadInt_e@4
  00171	8a 40 17	 mov	 al, BYTE PTR [eax+23]
  00174	32 d1		 xor	 dl, cl
  00176	88 55 fa	 mov	 BYTE PTR __k$[ebp+22], dl
  00179	84 c0		 test	 al, al
  0017b	74 07		 je	 SHORT $LN73@LoadInt_e@4
  0017d	34 ea		 xor	 al, -22			; ffffffeaH
  0017f	88 45 fb	 mov	 BYTE PTR __k$[ebp+23], al
  00182	eb 7e		 jmp	 SHORT $LN1@LoadInt_e@4
$LN73@LoadInt_e@4:
  00184	c6 45 fb ea	 mov	 BYTE PTR __k$[ebp+23], -22 ; ffffffeaH
  00188	eb 78		 jmp	 SHORT $LN1@LoadInt_e@4
$LN74@LoadInt_e@4:
  0018a	88 4d fa	 mov	 BYTE PTR __k$[ebp+22], cl
  0018d	eb 73		 jmp	 SHORT $LN1@LoadInt_e@4
$LN75@LoadInt_e@4:
  0018f	88 5d f9	 mov	 BYTE PTR __k$[ebp+21], bl
  00192	eb 6e		 jmp	 SHORT $LN1@LoadInt_e@4
$LN76@LoadInt_e@4:
  00194	c6 45 f8 ed	 mov	 BYTE PTR __k$[ebp+20], -19 ; ffffffedH
  00198	eb 68		 jmp	 SHORT $LN1@LoadInt_e@4
$LN78@LoadInt_e@4:
  0019a	88 4d f6	 mov	 BYTE PTR __k$[ebp+18], cl
  0019d	eb 63		 jmp	 SHORT $LN1@LoadInt_e@4
$LN79@LoadInt_e@4:
  0019f	88 5d f5	 mov	 BYTE PTR __k$[ebp+17], bl
  001a2	eb 5e		 jmp	 SHORT $LN1@LoadInt_e@4
$LN80@LoadInt_e@4:
  001a4	c6 45 f4 ed	 mov	 BYTE PTR __k$[ebp+16], -19 ; ffffffedH
  001a8	eb 58		 jmp	 SHORT $LN1@LoadInt_e@4
$LN81@LoadInt_e@4:
  001aa	c6 45 f3 ea	 mov	 BYTE PTR __k$[ebp+15], -22 ; ffffffeaH
  001ae	eb 52		 jmp	 SHORT $LN1@LoadInt_e@4
$LN82@LoadInt_e@4:
  001b0	88 4d f2	 mov	 BYTE PTR __k$[ebp+14], cl
  001b3	eb 4d		 jmp	 SHORT $LN1@LoadInt_e@4
$LN83@LoadInt_e@4:
  001b5	88 5d f1	 mov	 BYTE PTR __k$[ebp+13], bl
  001b8	eb 48		 jmp	 SHORT $LN1@LoadInt_e@4
$LN84@LoadInt_e@4:
  001ba	c6 45 f0 ed	 mov	 BYTE PTR __k$[ebp+12], -19 ; ffffffedH
  001be	eb 42		 jmp	 SHORT $LN1@LoadInt_e@4
$LN85@LoadInt_e@4:
  001c0	c6 45 ef ea	 mov	 BYTE PTR __k$[ebp+11], -22 ; ffffffeaH
  001c4	eb 3c		 jmp	 SHORT $LN1@LoadInt_e@4
$LN86@LoadInt_e@4:
  001c6	88 4d ee	 mov	 BYTE PTR __k$[ebp+10], cl
  001c9	eb 37		 jmp	 SHORT $LN1@LoadInt_e@4
$LN87@LoadInt_e@4:
  001cb	88 5d ed	 mov	 BYTE PTR __k$[ebp+9], bl
  001ce	eb 32		 jmp	 SHORT $LN1@LoadInt_e@4
$LN88@LoadInt_e@4:
  001d0	c6 45 ec ed	 mov	 BYTE PTR __k$[ebp+8], -19 ; ffffffedH
  001d4	eb 2c		 jmp	 SHORT $LN1@LoadInt_e@4
$LN89@LoadInt_e@4:
  001d6	c6 45 eb ea	 mov	 BYTE PTR __k$[ebp+7], -22 ; ffffffeaH
  001da	eb 26		 jmp	 SHORT $LN1@LoadInt_e@4
$LN90@LoadInt_e@4:
  001dc	88 4d ea	 mov	 BYTE PTR __k$[ebp+6], cl
  001df	eb 21		 jmp	 SHORT $LN1@LoadInt_e@4
$LN91@LoadInt_e@4:
  001e1	88 5d e9	 mov	 BYTE PTR __k$[ebp+5], bl
  001e4	eb 1c		 jmp	 SHORT $LN1@LoadInt_e@4
$LN92@LoadInt_e@4:
  001e6	c6 45 e8 ed	 mov	 BYTE PTR __k$[ebp+4], -19 ; ffffffedH
  001ea	eb 16		 jmp	 SHORT $LN1@LoadInt_e@4
$LN93@LoadInt_e@4:
  001ec	c6 45 e7 ea	 mov	 BYTE PTR __k$[ebp+3], -22 ; ffffffeaH
  001f0	eb 10		 jmp	 SHORT $LN1@LoadInt_e@4
$LN94@LoadInt_e@4:
  001f2	c6 45 e6 eb	 mov	 BYTE PTR __k$[ebp+2], -21 ; ffffffebH
  001f6	eb 0a		 jmp	 SHORT $LN1@LoadInt_e@4
$LN95@LoadInt_e@4:
  001f8	c6 45 e5 ec	 mov	 BYTE PTR __k$[ebp+1], -20 ; ffffffecH
  001fc	eb 04		 jmp	 SHORT $LN1@LoadInt_e@4
$LN96@LoadInt_e@4:
  001fe	c6 45 e4 ed	 mov	 BYTE PTR __k$[ebp], -19	; ffffffedH
$LN1@LoadInt_e@4:
  00202	6a 04		 push	 4
  00204	8d 45 e4	 lea	 eax, DWORD PTR __k$[ebp]
  00207	c6 45 f7 00	 mov	 BYTE PTR __k$[ebp+19], 0
  0020b	5a		 pop	 edx
$LL104@LoadInt_e@4:
  0020c	81 30 ed ec eb
	ea		 xor	 DWORD PTR [eax], -353637139 ; eaebecedH
  00212	83 c0 04	 add	 eax, 4
  00215	4a		 dec	 edx
  00216	75 f4		 jne	 SHORT $LL104@LoadInt_e@4
  00218	6a 10		 push	 16			; 00000010H
  0021a	58		 pop	 eax
$LL101@LoadInt_e@4:
  0021b	8b c8		 mov	 ecx, eax
  0021d	81 e1 03 00 00
	80		 and	 ecx, -2147483645	; 80000003H
  00223	79 05		 jns	 SHORT $LN111@LoadInt_e@4
  00225	49		 dec	 ecx
  00226	83 c9 fc	 or	 ecx, -4			; fffffffcH
  00229	41		 inc	 ecx
$LN111@LoadInt_e@4:
  0022a	b2 ed		 mov	 dl, -19			; ffffffedH
  0022c	2a d1		 sub	 dl, cl
  0022e	30 54 05 e4	 xor	 BYTE PTR __k$[ebp+eax], dl
  00232	40		 inc	 eax
  00233	83 f8 13	 cmp	 eax, 19			; 00000013H
  00236	7c e3		 jl	 SHORT $LL101@LoadInt_e@4

; 120  : 		return LoadInt(_k, i);

  00238	ff 75 0c	 push	 DWORD PTR _i$[ebp]
  0023b	8d 45 e4	 lea	 eax, DWORD PTR __k$[ebp]
  0023e	50		 push	 eax
  0023f	8b ce		 mov	 ecx, esi
  00241	ff 15 00 00 00
	00		 call	 DWORD PTR __imp_?LoadInt@ioINILoader@@QAEHPBDH@Z

; 121  : 	}

  00247	8b 4d fc	 mov	 ecx, DWORD PTR __$ArrayPad$[ebp]
  0024a	5e		 pop	 esi
  0024b	33 cd		 xor	 ecx, ebp
  0024d	5b		 pop	 ebx
  0024e	e8 00 00 00 00	 call	 @__security_check_cookie@4
  00253	c9		 leave
  00254	c2 08 00	 ret	 8
??$LoadInt_e@$0BE@@ioINILoader@@QAEHAAY0BE@$$CBDH@Z ENDP ; ioINILoader::LoadInt_e<20>
_TEXT	ENDS
PUBLIC	__$ArrayPad$
PUBLIC	??$LoadBool_e@$0BC@@ioINILoader@@QAE_NAAY0BC@$$CBD_N@Z ; ioINILoader::LoadBool_e<18>
EXTRN	__imp_?LoadBool@ioINILoader@@QAE_NPBD_N@Z:PROC
; Function compile flags: /Ogsp
;	COMDAT ??$LoadBool_e@$0BC@@ioINILoader@@QAE_NAAY0BC@$$CBD_N@Z
_TEXT	SEGMENT
__k$ = -28						; size = 18
__$ArrayPad$ = -4					; size = 4
_k$ = 8							; size = 4
_b$ = 12						; size = 1
??$LoadBool_e@$0BC@@ioINILoader@@QAE_NAAY0BC@$$CBD_N@Z PROC ; ioINILoader::LoadBool_e<18>, COMDAT
; _this$ = ecx

; 101  : 	{

  00000	55		 push	 ebp
  00001	8b ec		 mov	 ebp, esp
  00003	83 ec 1c	 sub	 esp, 28			; 0000001cH
  00006	a1 00 00 00 00	 mov	 eax, DWORD PTR ___security_cookie
  0000b	33 c5		 xor	 eax, ebp
  0000d	89 45 fc	 mov	 DWORD PTR __$ArrayPad$[ebp], eax
  00010	8b 45 08	 mov	 eax, DWORD PTR _k$[ebp]

; 102  : 		_ENCSTR(k, _k);

  00013	8a 10		 mov	 dl, BYTE PTR [eax]
  00015	56		 push	 esi
  00016	8b f1		 mov	 esi, ecx
  00018	84 d2		 test	 dl, dl
  0001a	0f 84 be 01 00
	00		 je	 $LN96@LoadBool_e
  00020	80 f2 ed	 xor	 dl, -19			; ffffffedH
  00023	88 55 e4	 mov	 BYTE PTR __k$[ebp], dl
  00026	8a 50 01	 mov	 dl, BYTE PTR [eax+1]
  00029	84 d2		 test	 dl, dl
  0002b	0f 84 a7 01 00
	00		 je	 $LN95@LoadBool_e
  00031	80 f2 ec	 xor	 dl, -20			; ffffffecH
  00034	88 55 e5	 mov	 BYTE PTR __k$[ebp+1], dl
  00037	8a 50 02	 mov	 dl, BYTE PTR [eax+2]
  0003a	84 d2		 test	 dl, dl
  0003c	0f 84 90 01 00
	00		 je	 $LN94@LoadBool_e
  00042	b1 eb		 mov	 cl, -21			; ffffffebH
  00044	32 d1		 xor	 dl, cl
  00046	88 55 e6	 mov	 BYTE PTR __k$[ebp+2], dl
  00049	8a 50 03	 mov	 dl, BYTE PTR [eax+3]
  0004c	84 d2		 test	 dl, dl
  0004e	0f 84 78 01 00
	00		 je	 $LN93@LoadBool_e
  00054	80 f2 ea	 xor	 dl, -22			; ffffffeaH
  00057	88 55 e7	 mov	 BYTE PTR __k$[ebp+3], dl
  0005a	8a 50 04	 mov	 dl, BYTE PTR [eax+4]
  0005d	84 d2		 test	 dl, dl
  0005f	0f 84 61 01 00
	00		 je	 $LN92@LoadBool_e
  00065	80 f2 ed	 xor	 dl, -19			; ffffffedH
  00068	88 55 e8	 mov	 BYTE PTR __k$[ebp+4], dl
  0006b	8a 50 05	 mov	 dl, BYTE PTR [eax+5]
  0006e	84 d2		 test	 dl, dl
  00070	0f 84 4a 01 00
	00		 je	 $LN91@LoadBool_e
  00076	80 f2 ec	 xor	 dl, -20			; ffffffecH
  00079	88 55 e9	 mov	 BYTE PTR __k$[ebp+5], dl
  0007c	8a 50 06	 mov	 dl, BYTE PTR [eax+6]
  0007f	84 d2		 test	 dl, dl
  00081	0f 84 34 01 00
	00		 je	 $LN90@LoadBool_e
  00087	32 d1		 xor	 dl, cl
  00089	88 55 ea	 mov	 BYTE PTR __k$[ebp+6], dl
  0008c	8a 50 07	 mov	 dl, BYTE PTR [eax+7]
  0008f	84 d2		 test	 dl, dl
  00091	0f 84 1e 01 00
	00		 je	 $LN89@LoadBool_e
  00097	80 f2 ea	 xor	 dl, -22			; ffffffeaH
  0009a	88 55 eb	 mov	 BYTE PTR __k$[ebp+7], dl
  0009d	8a 50 08	 mov	 dl, BYTE PTR [eax+8]
  000a0	84 d2		 test	 dl, dl
  000a2	0f 84 07 01 00
	00		 je	 $LN88@LoadBool_e
  000a8	80 f2 ed	 xor	 dl, -19			; ffffffedH
  000ab	88 55 ec	 mov	 BYTE PTR __k$[ebp+8], dl
  000ae	8a 50 09	 mov	 dl, BYTE PTR [eax+9]
  000b1	84 d2		 test	 dl, dl
  000b3	0f 84 f0 00 00
	00		 je	 $LN87@LoadBool_e
  000b9	80 f2 ec	 xor	 dl, -20			; ffffffecH
  000bc	88 55 ed	 mov	 BYTE PTR __k$[ebp+9], dl
  000bf	8a 50 0a	 mov	 dl, BYTE PTR [eax+10]
  000c2	84 d2		 test	 dl, dl
  000c4	0f 84 da 00 00
	00		 je	 $LN86@LoadBool_e
  000ca	32 d1		 xor	 dl, cl
  000cc	88 55 ee	 mov	 BYTE PTR __k$[ebp+10], dl
  000cf	8a 50 0b	 mov	 dl, BYTE PTR [eax+11]
  000d2	84 d2		 test	 dl, dl
  000d4	0f 84 c4 00 00
	00		 je	 $LN85@LoadBool_e
  000da	80 f2 ea	 xor	 dl, -22			; ffffffeaH
  000dd	88 55 ef	 mov	 BYTE PTR __k$[ebp+11], dl
  000e0	8a 50 0c	 mov	 dl, BYTE PTR [eax+12]
  000e3	84 d2		 test	 dl, dl
  000e5	0f 84 ad 00 00
	00		 je	 $LN84@LoadBool_e
  000eb	80 f2 ed	 xor	 dl, -19			; ffffffedH
  000ee	88 55 f0	 mov	 BYTE PTR __k$[ebp+12], dl
  000f1	8a 50 0d	 mov	 dl, BYTE PTR [eax+13]
  000f4	84 d2		 test	 dl, dl
  000f6	0f 84 96 00 00
	00		 je	 $LN83@LoadBool_e
  000fc	80 f2 ec	 xor	 dl, -20			; ffffffecH
  000ff	88 55 f1	 mov	 BYTE PTR __k$[ebp+13], dl
  00102	8a 50 0e	 mov	 dl, BYTE PTR [eax+14]
  00105	84 d2		 test	 dl, dl
  00107	0f 84 80 00 00
	00		 je	 $LN82@LoadBool_e
  0010d	32 d1		 xor	 dl, cl
  0010f	88 55 f2	 mov	 BYTE PTR __k$[ebp+14], dl
  00112	8a 50 0f	 mov	 dl, BYTE PTR [eax+15]
  00115	84 d2		 test	 dl, dl
  00117	74 6e		 je	 SHORT $LN81@LoadBool_e
  00119	80 f2 ea	 xor	 dl, -22			; ffffffeaH
  0011c	88 55 f3	 mov	 BYTE PTR __k$[ebp+15], dl
  0011f	8a 50 10	 mov	 dl, BYTE PTR [eax+16]
  00122	84 d2		 test	 dl, dl
  00124	74 5b		 je	 SHORT $LN80@LoadBool_e
  00126	80 f2 ed	 xor	 dl, -19			; ffffffedH
  00129	80 78 11 00	 cmp	 BYTE PTR [eax+17], 0
  0012d	88 55 f4	 mov	 BYTE PTR __k$[ebp+16], dl
  00130	0f 84 ac 00 00
	00		 je	 $LN1@LoadBool_e
  00136	8a 50 12	 mov	 dl, BYTE PTR [eax+18]
  00139	84 d2		 test	 dl, dl
  0013b	74 3f		 je	 SHORT $LN78@LoadBool_e
  0013d	32 d1		 xor	 dl, cl
  0013f	88 55 f6	 mov	 BYTE PTR __k$[ebp+18], dl
  00142	8a 50 13	 mov	 dl, BYTE PTR [eax+19]
  00145	84 d2		 test	 dl, dl
  00147	74 2d		 je	 SHORT $LN77@LoadBool_e
  00149	80 f2 ea	 xor	 dl, -22			; ffffffeaH
  0014c	88 55 f7	 mov	 BYTE PTR __k$[ebp+19], dl
  0014f	8a 50 14	 mov	 dl, BYTE PTR [eax+20]
  00152	84 d2		 test	 dl, dl
  00154	74 1a		 je	 SHORT $LN76@LoadBool_e
  00156	8a 40 15	 mov	 al, BYTE PTR [eax+21]
  00159	80 f2 ed	 xor	 dl, -19			; ffffffedH
  0015c	88 55 f8	 mov	 BYTE PTR __k$[ebp+20], dl
  0015f	84 c0		 test	 al, al
  00161	74 07		 je	 SHORT $LN75@LoadBool_e
  00163	34 ec		 xor	 al, -20			; ffffffecH
  00165	88 45 f9	 mov	 BYTE PTR __k$[ebp+21], al
  00168	eb 78		 jmp	 SHORT $LN1@LoadBool_e
$LN75@LoadBool_e:
  0016a	c6 45 f9 ec	 mov	 BYTE PTR __k$[ebp+21], -20 ; ffffffecH
  0016e	eb 72		 jmp	 SHORT $LN1@LoadBool_e
$LN76@LoadBool_e:
  00170	c6 45 f8 ed	 mov	 BYTE PTR __k$[ebp+20], -19 ; ffffffedH
  00174	eb 6c		 jmp	 SHORT $LN1@LoadBool_e
$LN77@LoadBool_e:
  00176	c6 45 f7 ea	 mov	 BYTE PTR __k$[ebp+19], -22 ; ffffffeaH
  0017a	eb 66		 jmp	 SHORT $LN1@LoadBool_e
$LN78@LoadBool_e:
  0017c	88 4d f6	 mov	 BYTE PTR __k$[ebp+18], cl
  0017f	eb 61		 jmp	 SHORT $LN1@LoadBool_e
$LN80@LoadBool_e:
  00181	c6 45 f4 ed	 mov	 BYTE PTR __k$[ebp+16], -19 ; ffffffedH
  00185	eb 5b		 jmp	 SHORT $LN1@LoadBool_e
$LN81@LoadBool_e:
  00187	c6 45 f3 ea	 mov	 BYTE PTR __k$[ebp+15], -22 ; ffffffeaH
  0018b	eb 55		 jmp	 SHORT $LN1@LoadBool_e
$LN82@LoadBool_e:
  0018d	88 4d f2	 mov	 BYTE PTR __k$[ebp+14], cl
  00190	eb 50		 jmp	 SHORT $LN1@LoadBool_e
$LN83@LoadBool_e:
  00192	c6 45 f1 ec	 mov	 BYTE PTR __k$[ebp+13], -20 ; ffffffecH
  00196	eb 4a		 jmp	 SHORT $LN1@LoadBool_e
$LN84@LoadBool_e:
  00198	c6 45 f0 ed	 mov	 BYTE PTR __k$[ebp+12], -19 ; ffffffedH
  0019c	eb 44		 jmp	 SHORT $LN1@LoadBool_e
$LN85@LoadBool_e:
  0019e	c6 45 ef ea	 mov	 BYTE PTR __k$[ebp+11], -22 ; ffffffeaH
  001a2	eb 3e		 jmp	 SHORT $LN1@LoadBool_e
$LN86@LoadBool_e:
  001a4	88 4d ee	 mov	 BYTE PTR __k$[ebp+10], cl
  001a7	eb 39		 jmp	 SHORT $LN1@LoadBool_e
$LN87@LoadBool_e:
  001a9	c6 45 ed ec	 mov	 BYTE PTR __k$[ebp+9], -20 ; ffffffecH
  001ad	eb 33		 jmp	 SHORT $LN1@LoadBool_e
$LN88@LoadBool_e:
  001af	c6 45 ec ed	 mov	 BYTE PTR __k$[ebp+8], -19 ; ffffffedH
  001b3	eb 2d		 jmp	 SHORT $LN1@LoadBool_e
$LN89@LoadBool_e:
  001b5	c6 45 eb ea	 mov	 BYTE PTR __k$[ebp+7], -22 ; ffffffeaH
  001b9	eb 27		 jmp	 SHORT $LN1@LoadBool_e
$LN90@LoadBool_e:
  001bb	88 4d ea	 mov	 BYTE PTR __k$[ebp+6], cl
  001be	eb 22		 jmp	 SHORT $LN1@LoadBool_e
$LN91@LoadBool_e:
  001c0	c6 45 e9 ec	 mov	 BYTE PTR __k$[ebp+5], -20 ; ffffffecH
  001c4	eb 1c		 jmp	 SHORT $LN1@LoadBool_e
$LN92@LoadBool_e:
  001c6	c6 45 e8 ed	 mov	 BYTE PTR __k$[ebp+4], -19 ; ffffffedH
  001ca	eb 16		 jmp	 SHORT $LN1@LoadBool_e
$LN93@LoadBool_e:
  001cc	c6 45 e7 ea	 mov	 BYTE PTR __k$[ebp+3], -22 ; ffffffeaH
  001d0	eb 10		 jmp	 SHORT $LN1@LoadBool_e
$LN94@LoadBool_e:
  001d2	c6 45 e6 eb	 mov	 BYTE PTR __k$[ebp+2], -21 ; ffffffebH
  001d6	eb 0a		 jmp	 SHORT $LN1@LoadBool_e
$LN95@LoadBool_e:
  001d8	c6 45 e5 ec	 mov	 BYTE PTR __k$[ebp+1], -20 ; ffffffecH
  001dc	eb 04		 jmp	 SHORT $LN1@LoadBool_e
$LN96@LoadBool_e:
  001de	c6 45 e4 ed	 mov	 BYTE PTR __k$[ebp], -19	; ffffffedH
$LN1@LoadBool_e:
  001e2	6a 04		 push	 4
  001e4	8d 45 e4	 lea	 eax, DWORD PTR __k$[ebp]
  001e7	c6 45 f5 00	 mov	 BYTE PTR __k$[ebp+17], 0
  001eb	5a		 pop	 edx
$LL104@LoadBool_e:
  001ec	81 30 ed ec eb
	ea		 xor	 DWORD PTR [eax], -353637139 ; eaebecedH
  001f2	83 c0 04	 add	 eax, 4
  001f5	4a		 dec	 edx
  001f6	75 f4		 jne	 SHORT $LL104@LoadBool_e

; 103  : 		return LoadBool(_k, b);

  001f8	ff 75 0c	 push	 DWORD PTR _b$[ebp]
  001fb	80 75 f4 ed	 xor	 BYTE PTR __k$[ebp+16], -19 ; ffffffedH
  001ff	8d 45 e4	 lea	 eax, DWORD PTR __k$[ebp]
  00202	50		 push	 eax
  00203	8b ce		 mov	 ecx, esi
  00205	ff 15 00 00 00
	00		 call	 DWORD PTR __imp_?LoadBool@ioINILoader@@QAE_NPBD_N@Z

; 104  : 	}

  0020b	8b 4d fc	 mov	 ecx, DWORD PTR __$ArrayPad$[ebp]
  0020e	33 cd		 xor	 ecx, ebp
  00210	5e		 pop	 esi
  00211	e8 00 00 00 00	 call	 @__security_check_cookie@4
  00216	c9		 leave
  00217	c2 08 00	 ret	 8
??$LoadBool_e@$0BC@@ioINILoader@@QAE_NAAY0BC@$$CBD_N@Z ENDP ; ioINILoader::LoadBool_e<18>
_TEXT	ENDS
PUBLIC	__$ArrayPad$
PUBLIC	??$LoadBool_e@$0BB@@ioINILoader@@QAE_NAAY0BB@$$CBD_N@Z ; ioINILoader::LoadBool_e<17>
; Function compile flags: /Ogsp
;	COMDAT ??$LoadBool_e@$0BB@@ioINILoader@@QAE_NAAY0BB@$$CBD_N@Z
_TEXT	SEGMENT
__k$ = -28						; size = 17
__$ArrayPad$ = -4					; size = 4
_k$ = 8							; size = 4
_b$ = 12						; size = 1
??$LoadBool_e@$0BB@@ioINILoader@@QAE_NAAY0BB@$$CBD_N@Z PROC ; ioINILoader::LoadBool_e<17>, COMDAT
; _this$ = ecx

; 101  : 	{

  00000	55		 push	 ebp
  00001	8b ec		 mov	 ebp, esp
  00003	83 ec 1c	 sub	 esp, 28			; 0000001cH
  00006	a1 00 00 00 00	 mov	 eax, DWORD PTR ___security_cookie
  0000b	33 c5		 xor	 eax, ebp
  0000d	89 45 fc	 mov	 DWORD PTR __$ArrayPad$[ebp], eax
  00010	8b 45 08	 mov	 eax, DWORD PTR _k$[ebp]

; 102  : 		_ENCSTR(k, _k);

  00013	8a 10		 mov	 dl, BYTE PTR [eax]
  00015	56		 push	 esi
  00016	8b f1		 mov	 esi, ecx
  00018	84 d2		 test	 dl, dl
  0001a	0f 84 a7 01 00
	00		 je	 $LN96@LoadBool_e@2
  00020	80 f2 ed	 xor	 dl, -19			; ffffffedH
  00023	88 55 e4	 mov	 BYTE PTR __k$[ebp], dl
  00026	8a 50 01	 mov	 dl, BYTE PTR [eax+1]
  00029	84 d2		 test	 dl, dl
  0002b	0f 84 90 01 00
	00		 je	 $LN95@LoadBool_e@2
  00031	b1 ec		 mov	 cl, -20			; ffffffecH
  00033	32 d1		 xor	 dl, cl
  00035	88 55 e5	 mov	 BYTE PTR __k$[ebp+1], dl
  00038	8a 50 02	 mov	 dl, BYTE PTR [eax+2]
  0003b	84 d2		 test	 dl, dl
  0003d	0f 84 78 01 00
	00		 je	 $LN94@LoadBool_e@2
  00043	80 f2 eb	 xor	 dl, -21			; ffffffebH
  00046	88 55 e6	 mov	 BYTE PTR __k$[ebp+2], dl
  00049	8a 50 03	 mov	 dl, BYTE PTR [eax+3]
  0004c	84 d2		 test	 dl, dl
  0004e	0f 84 61 01 00
	00		 je	 $LN93@LoadBool_e@2
  00054	80 f2 ea	 xor	 dl, -22			; ffffffeaH
  00057	88 55 e7	 mov	 BYTE PTR __k$[ebp+3], dl
  0005a	8a 50 04	 mov	 dl, BYTE PTR [eax+4]
  0005d	84 d2		 test	 dl, dl
  0005f	0f 84 4a 01 00
	00		 je	 $LN92@LoadBool_e@2
  00065	80 f2 ed	 xor	 dl, -19			; ffffffedH
  00068	88 55 e8	 mov	 BYTE PTR __k$[ebp+4], dl
  0006b	8a 50 05	 mov	 dl, BYTE PTR [eax+5]
  0006e	84 d2		 test	 dl, dl
  00070	0f 84 34 01 00
	00		 je	 $LN91@LoadBool_e@2
  00076	32 d1		 xor	 dl, cl
  00078	88 55 e9	 mov	 BYTE PTR __k$[ebp+5], dl
  0007b	8a 50 06	 mov	 dl, BYTE PTR [eax+6]
  0007e	84 d2		 test	 dl, dl
  00080	0f 84 1e 01 00
	00		 je	 $LN90@LoadBool_e@2
  00086	80 f2 eb	 xor	 dl, -21			; ffffffebH
  00089	88 55 ea	 mov	 BYTE PTR __k$[ebp+6], dl
  0008c	8a 50 07	 mov	 dl, BYTE PTR [eax+7]
  0008f	84 d2		 test	 dl, dl
  00091	0f 84 07 01 00
	00		 je	 $LN89@LoadBool_e@2
  00097	80 f2 ea	 xor	 dl, -22			; ffffffeaH
  0009a	88 55 eb	 mov	 BYTE PTR __k$[ebp+7], dl
  0009d	8a 50 08	 mov	 dl, BYTE PTR [eax+8]
  000a0	84 d2		 test	 dl, dl
  000a2	0f 84 f0 00 00
	00		 je	 $LN88@LoadBool_e@2
  000a8	80 f2 ed	 xor	 dl, -19			; ffffffedH
  000ab	88 55 ec	 mov	 BYTE PTR __k$[ebp+8], dl
  000ae	8a 50 09	 mov	 dl, BYTE PTR [eax+9]
  000b1	84 d2		 test	 dl, dl
  000b3	0f 84 da 00 00
	00		 je	 $LN87@LoadBool_e@2
  000b9	32 d1		 xor	 dl, cl
  000bb	88 55 ed	 mov	 BYTE PTR __k$[ebp+9], dl
  000be	8a 50 0a	 mov	 dl, BYTE PTR [eax+10]
  000c1	84 d2		 test	 dl, dl
  000c3	0f 84 c4 00 00
	00		 je	 $LN86@LoadBool_e@2
  000c9	80 f2 eb	 xor	 dl, -21			; ffffffebH
  000cc	88 55 ee	 mov	 BYTE PTR __k$[ebp+10], dl
  000cf	8a 50 0b	 mov	 dl, BYTE PTR [eax+11]
  000d2	84 d2		 test	 dl, dl
  000d4	0f 84 ad 00 00
	00		 je	 $LN85@LoadBool_e@2
  000da	80 f2 ea	 xor	 dl, -22			; ffffffeaH
  000dd	88 55 ef	 mov	 BYTE PTR __k$[ebp+11], dl
  000e0	8a 50 0c	 mov	 dl, BYTE PTR [eax+12]
  000e3	84 d2		 test	 dl, dl
  000e5	0f 84 96 00 00
	00		 je	 $LN84@LoadBool_e@2
  000eb	80 f2 ed	 xor	 dl, -19			; ffffffedH
  000ee	88 55 f0	 mov	 BYTE PTR __k$[ebp+12], dl
  000f1	8a 50 0d	 mov	 dl, BYTE PTR [eax+13]
  000f4	84 d2		 test	 dl, dl
  000f6	0f 84 80 00 00
	00		 je	 $LN83@LoadBool_e@2
  000fc	32 d1		 xor	 dl, cl
  000fe	88 55 f1	 mov	 BYTE PTR __k$[ebp+13], dl
  00101	8a 50 0e	 mov	 dl, BYTE PTR [eax+14]
  00104	84 d2		 test	 dl, dl
  00106	74 6e		 je	 SHORT $LN82@LoadBool_e@2
  00108	80 f2 eb	 xor	 dl, -21			; ffffffebH
  0010b	88 55 f2	 mov	 BYTE PTR __k$[ebp+14], dl
  0010e	8a 50 0f	 mov	 dl, BYTE PTR [eax+15]
  00111	84 d2		 test	 dl, dl
  00113	74 5b		 je	 SHORT $LN81@LoadBool_e@2
  00115	80 f2 ea	 xor	 dl, -22			; ffffffeaH
  00118	80 78 10 00	 cmp	 BYTE PTR [eax+16], 0
  0011c	88 55 f3	 mov	 BYTE PTR __k$[ebp+15], dl
  0011f	0f 84 a6 00 00
	00		 je	 $LN1@LoadBool_e@2
  00125	8a 50 11	 mov	 dl, BYTE PTR [eax+17]
  00128	84 d2		 test	 dl, dl
  0012a	74 3f		 je	 SHORT $LN79@LoadBool_e@2
  0012c	32 d1		 xor	 dl, cl
  0012e	88 55 f5	 mov	 BYTE PTR __k$[ebp+17], dl
  00131	8a 50 12	 mov	 dl, BYTE PTR [eax+18]
  00134	84 d2		 test	 dl, dl
  00136	74 2d		 je	 SHORT $LN78@LoadBool_e@2
  00138	80 f2 eb	 xor	 dl, -21			; ffffffebH
  0013b	88 55 f6	 mov	 BYTE PTR __k$[ebp+18], dl
  0013e	8a 50 13	 mov	 dl, BYTE PTR [eax+19]
  00141	84 d2		 test	 dl, dl
  00143	74 1a		 je	 SHORT $LN77@LoadBool_e@2
  00145	8a 40 14	 mov	 al, BYTE PTR [eax+20]
  00148	80 f2 ea	 xor	 dl, -22			; ffffffeaH
  0014b	88 55 f7	 mov	 BYTE PTR __k$[ebp+19], dl
  0014e	84 c0		 test	 al, al
  00150	74 07		 je	 SHORT $LN76@LoadBool_e@2
  00152	34 ed		 xor	 al, -19			; ffffffedH
  00154	88 45 f8	 mov	 BYTE PTR __k$[ebp+20], al
  00157	eb 72		 jmp	 SHORT $LN1@LoadBool_e@2
$LN76@LoadBool_e@2:
  00159	c6 45 f8 ed	 mov	 BYTE PTR __k$[ebp+20], -19 ; ffffffedH
  0015d	eb 6c		 jmp	 SHORT $LN1@LoadBool_e@2
$LN77@LoadBool_e@2:
  0015f	c6 45 f7 ea	 mov	 BYTE PTR __k$[ebp+19], -22 ; ffffffeaH
  00163	eb 66		 jmp	 SHORT $LN1@LoadBool_e@2
$LN78@LoadBool_e@2:
  00165	c6 45 f6 eb	 mov	 BYTE PTR __k$[ebp+18], -21 ; ffffffebH
  00169	eb 60		 jmp	 SHORT $LN1@LoadBool_e@2
$LN79@LoadBool_e@2:
  0016b	88 4d f5	 mov	 BYTE PTR __k$[ebp+17], cl
  0016e	eb 5b		 jmp	 SHORT $LN1@LoadBool_e@2
$LN81@LoadBool_e@2:
  00170	c6 45 f3 ea	 mov	 BYTE PTR __k$[ebp+15], -22 ; ffffffeaH
  00174	eb 55		 jmp	 SHORT $LN1@LoadBool_e@2
$LN82@LoadBool_e@2:
  00176	c6 45 f2 eb	 mov	 BYTE PTR __k$[ebp+14], -21 ; ffffffebH
  0017a	eb 4f		 jmp	 SHORT $LN1@LoadBool_e@2
$LN83@LoadBool_e@2:
  0017c	88 4d f1	 mov	 BYTE PTR __k$[ebp+13], cl
  0017f	eb 4a		 jmp	 SHORT $LN1@LoadBool_e@2
$LN84@LoadBool_e@2:
  00181	c6 45 f0 ed	 mov	 BYTE PTR __k$[ebp+12], -19 ; ffffffedH
  00185	eb 44		 jmp	 SHORT $LN1@LoadBool_e@2
$LN85@LoadBool_e@2:
  00187	c6 45 ef ea	 mov	 BYTE PTR __k$[ebp+11], -22 ; ffffffeaH
  0018b	eb 3e		 jmp	 SHORT $LN1@LoadBool_e@2
$LN86@LoadBool_e@2:
  0018d	c6 45 ee eb	 mov	 BYTE PTR __k$[ebp+10], -21 ; ffffffebH
  00191	eb 38		 jmp	 SHORT $LN1@LoadBool_e@2
$LN87@LoadBool_e@2:
  00193	88 4d ed	 mov	 BYTE PTR __k$[ebp+9], cl
  00196	eb 33		 jmp	 SHORT $LN1@LoadBool_e@2
$LN88@LoadBool_e@2:
  00198	c6 45 ec ed	 mov	 BYTE PTR __k$[ebp+8], -19 ; ffffffedH
  0019c	eb 2d		 jmp	 SHORT $LN1@LoadBool_e@2
$LN89@LoadBool_e@2:
  0019e	c6 45 eb ea	 mov	 BYTE PTR __k$[ebp+7], -22 ; ffffffeaH
  001a2	eb 27		 jmp	 SHORT $LN1@LoadBool_e@2
$LN90@LoadBool_e@2:
  001a4	c6 45 ea eb	 mov	 BYTE PTR __k$[ebp+6], -21 ; ffffffebH
  001a8	eb 21		 jmp	 SHORT $LN1@LoadBool_e@2
$LN91@LoadBool_e@2:
  001aa	88 4d e9	 mov	 BYTE PTR __k$[ebp+5], cl
  001ad	eb 1c		 jmp	 SHORT $LN1@LoadBool_e@2
$LN92@LoadBool_e@2:
  001af	c6 45 e8 ed	 mov	 BYTE PTR __k$[ebp+4], -19 ; ffffffedH
  001b3	eb 16		 jmp	 SHORT $LN1@LoadBool_e@2
$LN93@LoadBool_e@2:
  001b5	c6 45 e7 ea	 mov	 BYTE PTR __k$[ebp+3], -22 ; ffffffeaH
  001b9	eb 10		 jmp	 SHORT $LN1@LoadBool_e@2
$LN94@LoadBool_e@2:
  001bb	c6 45 e6 eb	 mov	 BYTE PTR __k$[ebp+2], -21 ; ffffffebH
  001bf	eb 0a		 jmp	 SHORT $LN1@LoadBool_e@2
$LN95@LoadBool_e@2:
  001c1	c6 45 e5 ec	 mov	 BYTE PTR __k$[ebp+1], -20 ; ffffffecH
  001c5	eb 04		 jmp	 SHORT $LN1@LoadBool_e@2
$LN96@LoadBool_e@2:
  001c7	c6 45 e4 ed	 mov	 BYTE PTR __k$[ebp], -19	; ffffffedH
$LN1@LoadBool_e@2:
  001cb	6a 04		 push	 4
  001cd	8d 45 e4	 lea	 eax, DWORD PTR __k$[ebp]
  001d0	c6 45 f4 00	 mov	 BYTE PTR __k$[ebp+16], 0
  001d4	5a		 pop	 edx
$LL104@LoadBool_e@2:
  001d5	81 30 ed ec eb
	ea		 xor	 DWORD PTR [eax], -353637139 ; eaebecedH
  001db	83 c0 04	 add	 eax, 4
  001de	4a		 dec	 edx
  001df	75 f4		 jne	 SHORT $LL104@LoadBool_e@2

; 103  : 		return LoadBool(_k, b);

  001e1	ff 75 0c	 push	 DWORD PTR _b$[ebp]
  001e4	8d 45 e4	 lea	 eax, DWORD PTR __k$[ebp]
  001e7	50		 push	 eax
  001e8	8b ce		 mov	 ecx, esi
  001ea	ff 15 00 00 00
	00		 call	 DWORD PTR __imp_?LoadBool@ioINILoader@@QAE_NPBD_N@Z

; 104  : 	}

  001f0	8b 4d fc	 mov	 ecx, DWORD PTR __$ArrayPad$[ebp]
  001f3	33 cd		 xor	 ecx, ebp
  001f5	5e		 pop	 esi
  001f6	e8 00 00 00 00	 call	 @__security_check_cookie@4
  001fb	c9		 leave
  001fc	c2 08 00	 ret	 8
??$LoadBool_e@$0BB@@ioINILoader@@QAE_NAAY0BB@$$CBD_N@Z ENDP ; ioINILoader::LoadBool_e<17>
_TEXT	ENDS
PUBLIC	__$ArrayPad$
PUBLIC	??$LoadBool_e@$0BD@@ioINILoader@@QAE_NAAY0BD@$$CBD_N@Z ; ioINILoader::LoadBool_e<19>
; Function compile flags: /Ogsp
;	COMDAT ??$LoadBool_e@$0BD@@ioINILoader@@QAE_NAAY0BD@$$CBD_N@Z
_TEXT	SEGMENT
__k$ = -28						; size = 19
__$ArrayPad$ = -4					; size = 4
_k$ = 8							; size = 4
_b$ = 12						; size = 1
??$LoadBool_e@$0BD@@ioINILoader@@QAE_NAAY0BD@$$CBD_N@Z PROC ; ioINILoader::LoadBool_e<19>, COMDAT
; _this$ = ecx

; 101  : 	{

  00000	55		 push	 ebp
  00001	8b ec		 mov	 ebp, esp
  00003	83 ec 1c	 sub	 esp, 28			; 0000001cH
  00006	a1 00 00 00 00	 mov	 eax, DWORD PTR ___security_cookie
  0000b	33 c5		 xor	 eax, ebp
  0000d	89 45 fc	 mov	 DWORD PTR __$ArrayPad$[ebp], eax
  00010	8b 45 08	 mov	 eax, DWORD PTR _k$[ebp]

; 102  : 		_ENCSTR(k, _k);

  00013	8a 10		 mov	 dl, BYTE PTR [eax]
  00015	56		 push	 esi
  00016	8b f1		 mov	 esi, ecx
  00018	84 d2		 test	 dl, dl
  0001a	0f 84 cf 01 00
	00		 je	 $LN96@LoadBool_e@3
  00020	80 f2 ed	 xor	 dl, -19			; ffffffedH
  00023	88 55 e4	 mov	 BYTE PTR __k$[ebp], dl
  00026	8a 50 01	 mov	 dl, BYTE PTR [eax+1]
  00029	84 d2		 test	 dl, dl
  0002b	0f 84 b8 01 00
	00		 je	 $LN95@LoadBool_e@3
  00031	b1 ec		 mov	 cl, -20			; ffffffecH
  00033	32 d1		 xor	 dl, cl
  00035	88 55 e5	 mov	 BYTE PTR __k$[ebp+1], dl
  00038	8a 50 02	 mov	 dl, BYTE PTR [eax+2]
  0003b	84 d2		 test	 dl, dl
  0003d	0f 84 a0 01 00
	00		 je	 $LN94@LoadBool_e@3
  00043	80 f2 eb	 xor	 dl, -21			; ffffffebH
  00046	88 55 e6	 mov	 BYTE PTR __k$[ebp+2], dl
  00049	8a 50 03	 mov	 dl, BYTE PTR [eax+3]
  0004c	84 d2		 test	 dl, dl
  0004e	0f 84 89 01 00
	00		 je	 $LN93@LoadBool_e@3
  00054	80 f2 ea	 xor	 dl, -22			; ffffffeaH
  00057	88 55 e7	 mov	 BYTE PTR __k$[ebp+3], dl
  0005a	8a 50 04	 mov	 dl, BYTE PTR [eax+4]
  0005d	84 d2		 test	 dl, dl
  0005f	0f 84 72 01 00
	00		 je	 $LN92@LoadBool_e@3
  00065	80 f2 ed	 xor	 dl, -19			; ffffffedH
  00068	88 55 e8	 mov	 BYTE PTR __k$[ebp+4], dl
  0006b	8a 50 05	 mov	 dl, BYTE PTR [eax+5]
  0006e	84 d2		 test	 dl, dl
  00070	0f 84 5c 01 00
	00		 je	 $LN91@LoadBool_e@3
  00076	32 d1		 xor	 dl, cl
  00078	88 55 e9	 mov	 BYTE PTR __k$[ebp+5], dl
  0007b	8a 50 06	 mov	 dl, BYTE PTR [eax+6]
  0007e	84 d2		 test	 dl, dl
  00080	0f 84 46 01 00
	00		 je	 $LN90@LoadBool_e@3
  00086	80 f2 eb	 xor	 dl, -21			; ffffffebH
  00089	88 55 ea	 mov	 BYTE PTR __k$[ebp+6], dl
  0008c	8a 50 07	 mov	 dl, BYTE PTR [eax+7]
  0008f	84 d2		 test	 dl, dl
  00091	0f 84 2f 01 00
	00		 je	 $LN89@LoadBool_e@3
  00097	80 f2 ea	 xor	 dl, -22			; ffffffeaH
  0009a	88 55 eb	 mov	 BYTE PTR __k$[ebp+7], dl
  0009d	8a 50 08	 mov	 dl, BYTE PTR [eax+8]
  000a0	84 d2		 test	 dl, dl
  000a2	0f 84 18 01 00
	00		 je	 $LN88@LoadBool_e@3
  000a8	80 f2 ed	 xor	 dl, -19			; ffffffedH
  000ab	88 55 ec	 mov	 BYTE PTR __k$[ebp+8], dl
  000ae	8a 50 09	 mov	 dl, BYTE PTR [eax+9]
  000b1	84 d2		 test	 dl, dl
  000b3	0f 84 02 01 00
	00		 je	 $LN87@LoadBool_e@3
  000b9	32 d1		 xor	 dl, cl
  000bb	88 55 ed	 mov	 BYTE PTR __k$[ebp+9], dl
  000be	8a 50 0a	 mov	 dl, BYTE PTR [eax+10]
  000c1	84 d2		 test	 dl, dl
  000c3	0f 84 ec 00 00
	00		 je	 $LN86@LoadBool_e@3
  000c9	80 f2 eb	 xor	 dl, -21			; ffffffebH
  000cc	88 55 ee	 mov	 BYTE PTR __k$[ebp+10], dl
  000cf	8a 50 0b	 mov	 dl, BYTE PTR [eax+11]
  000d2	84 d2		 test	 dl, dl
  000d4	0f 84 d5 00 00
	00		 je	 $LN85@LoadBool_e@3
  000da	80 f2 ea	 xor	 dl, -22			; ffffffeaH
  000dd	88 55 ef	 mov	 BYTE PTR __k$[ebp+11], dl
  000e0	8a 50 0c	 mov	 dl, BYTE PTR [eax+12]
  000e3	84 d2		 test	 dl, dl
  000e5	0f 84 be 00 00
	00		 je	 $LN84@LoadBool_e@3
  000eb	80 f2 ed	 xor	 dl, -19			; ffffffedH
  000ee	88 55 f0	 mov	 BYTE PTR __k$[ebp+12], dl
  000f1	8a 50 0d	 mov	 dl, BYTE PTR [eax+13]
  000f4	84 d2		 test	 dl, dl
  000f6	0f 84 a8 00 00
	00		 je	 $LN83@LoadBool_e@3
  000fc	32 d1		 xor	 dl, cl
  000fe	88 55 f1	 mov	 BYTE PTR __k$[ebp+13], dl
  00101	8a 50 0e	 mov	 dl, BYTE PTR [eax+14]
  00104	84 d2		 test	 dl, dl
  00106	0f 84 92 00 00
	00		 je	 $LN82@LoadBool_e@3
  0010c	80 f2 eb	 xor	 dl, -21			; ffffffebH
  0010f	88 55 f2	 mov	 BYTE PTR __k$[ebp+14], dl
  00112	8a 50 0f	 mov	 dl, BYTE PTR [eax+15]
  00115	84 d2		 test	 dl, dl
  00117	74 7f		 je	 SHORT $LN81@LoadBool_e@3
  00119	80 f2 ea	 xor	 dl, -22			; ffffffeaH
  0011c	88 55 f3	 mov	 BYTE PTR __k$[ebp+15], dl
  0011f	8a 50 10	 mov	 dl, BYTE PTR [eax+16]
  00122	84 d2		 test	 dl, dl
  00124	74 6c		 je	 SHORT $LN80@LoadBool_e@3
  00126	80 f2 ed	 xor	 dl, -19			; ffffffedH
  00129	88 55 f4	 mov	 BYTE PTR __k$[ebp+16], dl
  0012c	8a 50 11	 mov	 dl, BYTE PTR [eax+17]
  0012f	84 d2		 test	 dl, dl
  00131	74 5a		 je	 SHORT $LN79@LoadBool_e@3
  00133	32 d1		 xor	 dl, cl
  00135	80 78 12 00	 cmp	 BYTE PTR [eax+18], 0
  00139	88 55 f5	 mov	 BYTE PTR __k$[ebp+17], dl
  0013c	0f 84 b1 00 00
	00		 je	 $LN1@LoadBool_e@3
  00142	8a 50 13	 mov	 dl, BYTE PTR [eax+19]
  00145	84 d2		 test	 dl, dl
  00147	74 3e		 je	 SHORT $LN77@LoadBool_e@3
  00149	80 f2 ea	 xor	 dl, -22			; ffffffeaH
  0014c	88 55 f7	 mov	 BYTE PTR __k$[ebp+19], dl
  0014f	8a 50 14	 mov	 dl, BYTE PTR [eax+20]
  00152	84 d2		 test	 dl, dl
  00154	74 2b		 je	 SHORT $LN76@LoadBool_e@3
  00156	80 f2 ed	 xor	 dl, -19			; ffffffedH
  00159	88 55 f8	 mov	 BYTE PTR __k$[ebp+20], dl
  0015c	8a 50 15	 mov	 dl, BYTE PTR [eax+21]
  0015f	84 d2		 test	 dl, dl
  00161	74 19		 je	 SHORT $LN75@LoadBool_e@3
  00163	8a 40 16	 mov	 al, BYTE PTR [eax+22]
  00166	32 d1		 xor	 dl, cl
  00168	88 55 f9	 mov	 BYTE PTR __k$[ebp+21], dl
  0016b	84 c0		 test	 al, al
  0016d	74 07		 je	 SHORT $LN74@LoadBool_e@3
  0016f	34 eb		 xor	 al, -21			; ffffffebH
  00171	88 45 fa	 mov	 BYTE PTR __k$[ebp+22], al
  00174	eb 7d		 jmp	 SHORT $LN1@LoadBool_e@3
$LN74@LoadBool_e@3:
  00176	c6 45 fa eb	 mov	 BYTE PTR __k$[ebp+22], -21 ; ffffffebH
  0017a	eb 77		 jmp	 SHORT $LN1@LoadBool_e@3
$LN75@LoadBool_e@3:
  0017c	88 4d f9	 mov	 BYTE PTR __k$[ebp+21], cl
  0017f	eb 72		 jmp	 SHORT $LN1@LoadBool_e@3
$LN76@LoadBool_e@3:
  00181	c6 45 f8 ed	 mov	 BYTE PTR __k$[ebp+20], -19 ; ffffffedH
  00185	eb 6c		 jmp	 SHORT $LN1@LoadBool_e@3
$LN77@LoadBool_e@3:
  00187	c6 45 f7 ea	 mov	 BYTE PTR __k$[ebp+19], -22 ; ffffffeaH
  0018b	eb 66		 jmp	 SHORT $LN1@LoadBool_e@3
$LN79@LoadBool_e@3:
  0018d	88 4d f5	 mov	 BYTE PTR __k$[ebp+17], cl
  00190	eb 61		 jmp	 SHORT $LN1@LoadBool_e@3
$LN80@LoadBool_e@3:
  00192	c6 45 f4 ed	 mov	 BYTE PTR __k$[ebp+16], -19 ; ffffffedH
  00196	eb 5b		 jmp	 SHORT $LN1@LoadBool_e@3
$LN81@LoadBool_e@3:
  00198	c6 45 f3 ea	 mov	 BYTE PTR __k$[ebp+15], -22 ; ffffffeaH
  0019c	eb 55		 jmp	 SHORT $LN1@LoadBool_e@3
$LN82@LoadBool_e@3:
  0019e	c6 45 f2 eb	 mov	 BYTE PTR __k$[ebp+14], -21 ; ffffffebH
  001a2	eb 4f		 jmp	 SHORT $LN1@LoadBool_e@3
$LN83@LoadBool_e@3:
  001a4	88 4d f1	 mov	 BYTE PTR __k$[ebp+13], cl
  001a7	eb 4a		 jmp	 SHORT $LN1@LoadBool_e@3
$LN84@LoadBool_e@3:
  001a9	c6 45 f0 ed	 mov	 BYTE PTR __k$[ebp+12], -19 ; ffffffedH
  001ad	eb 44		 jmp	 SHORT $LN1@LoadBool_e@3
$LN85@LoadBool_e@3:
  001af	c6 45 ef ea	 mov	 BYTE PTR __k$[ebp+11], -22 ; ffffffeaH
  001b3	eb 3e		 jmp	 SHORT $LN1@LoadBool_e@3
$LN86@LoadBool_e@3:
  001b5	c6 45 ee eb	 mov	 BYTE PTR __k$[ebp+10], -21 ; ffffffebH
  001b9	eb 38		 jmp	 SHORT $LN1@LoadBool_e@3
$LN87@LoadBool_e@3:
  001bb	88 4d ed	 mov	 BYTE PTR __k$[ebp+9], cl
  001be	eb 33		 jmp	 SHORT $LN1@LoadBool_e@3
$LN88@LoadBool_e@3:
  001c0	c6 45 ec ed	 mov	 BYTE PTR __k$[ebp+8], -19 ; ffffffedH
  001c4	eb 2d		 jmp	 SHORT $LN1@LoadBool_e@3
$LN89@LoadBool_e@3:
  001c6	c6 45 eb ea	 mov	 BYTE PTR __k$[ebp+7], -22 ; ffffffeaH
  001ca	eb 27		 jmp	 SHORT $LN1@LoadBool_e@3
$LN90@LoadBool_e@3:
  001cc	c6 45 ea eb	 mov	 BYTE PTR __k$[ebp+6], -21 ; ffffffebH
  001d0	eb 21		 jmp	 SHORT $LN1@LoadBool_e@3
$LN91@LoadBool_e@3:
  001d2	88 4d e9	 mov	 BYTE PTR __k$[ebp+5], cl
  001d5	eb 1c		 jmp	 SHORT $LN1@LoadBool_e@3
$LN92@LoadBool_e@3:
  001d7	c6 45 e8 ed	 mov	 BYTE PTR __k$[ebp+4], -19 ; ffffffedH
  001db	eb 16		 jmp	 SHORT $LN1@LoadBool_e@3
$LN93@LoadBool_e@3:
  001dd	c6 45 e7 ea	 mov	 BYTE PTR __k$[ebp+3], -22 ; ffffffeaH
  001e1	eb 10		 jmp	 SHORT $LN1@LoadBool_e@3
$LN94@LoadBool_e@3:
  001e3	c6 45 e6 eb	 mov	 BYTE PTR __k$[ebp+2], -21 ; ffffffebH
  001e7	eb 0a		 jmp	 SHORT $LN1@LoadBool_e@3
$LN95@LoadBool_e@3:
  001e9	c6 45 e5 ec	 mov	 BYTE PTR __k$[ebp+1], -20 ; ffffffecH
  001ed	eb 04		 jmp	 SHORT $LN1@LoadBool_e@3
$LN96@LoadBool_e@3:
  001ef	c6 45 e4 ed	 mov	 BYTE PTR __k$[ebp], -19	; ffffffedH
$LN1@LoadBool_e@3:
  001f3	6a 04		 push	 4
  001f5	8d 45 e4	 lea	 eax, DWORD PTR __k$[ebp]
  001f8	c6 45 f6 00	 mov	 BYTE PTR __k$[ebp+18], 0
  001fc	5a		 pop	 edx
$LL104@LoadBool_e@3:
  001fd	81 30 ed ec eb
	ea		 xor	 DWORD PTR [eax], -353637139 ; eaebecedH
  00203	83 c0 04	 add	 eax, 4
  00206	4a		 dec	 edx
  00207	75 f4		 jne	 SHORT $LL104@LoadBool_e@3
  00209	6a 10		 push	 16			; 00000010H
  0020b	58		 pop	 eax
$LL101@LoadBool_e@3:
  0020c	8b c8		 mov	 ecx, eax
  0020e	81 e1 03 00 00
	80		 and	 ecx, -2147483645	; 80000003H
  00214	79 05		 jns	 SHORT $LN111@LoadBool_e@3
  00216	49		 dec	 ecx
  00217	83 c9 fc	 or	 ecx, -4			; fffffffcH
  0021a	41		 inc	 ecx
$LN111@LoadBool_e@3:
  0021b	b2 ed		 mov	 dl, -19			; ffffffedH
  0021d	2a d1		 sub	 dl, cl
  0021f	30 54 05 e4	 xor	 BYTE PTR __k$[ebp+eax], dl
  00223	40		 inc	 eax
  00224	83 f8 12	 cmp	 eax, 18			; 00000012H
  00227	7c e3		 jl	 SHORT $LL101@LoadBool_e@3

; 103  : 		return LoadBool(_k, b);

  00229	ff 75 0c	 push	 DWORD PTR _b$[ebp]
  0022c	8d 45 e4	 lea	 eax, DWORD PTR __k$[ebp]
  0022f	50		 push	 eax
  00230	8b ce		 mov	 ecx, esi
  00232	ff 15 00 00 00
	00		 call	 DWORD PTR __imp_?LoadBool@ioINILoader@@QAE_NPBD_N@Z

; 104  : 	}

  00238	8b 4d fc	 mov	 ecx, DWORD PTR __$ArrayPad$[ebp]
  0023b	33 cd		 xor	 ecx, ebp
  0023d	5e		 pop	 esi
  0023e	e8 00 00 00 00	 call	 @__security_check_cookie@4
  00243	c9		 leave
  00244	c2 08 00	 ret	 8
??$LoadBool_e@$0BD@@ioINILoader@@QAE_NAAY0BD@$$CBD_N@Z ENDP ; ioINILoader::LoadBool_e<19>
_TEXT	ENDS
PUBLIC	_this$GSCopy$
PUBLIC	__$ArrayPad$
PUBLIC	??$LoadString_e@$0BB@@ioINILoader@@QAEXAAY0BB@$$CBDAAY00$$CBDPADH@Z ; ioINILoader::LoadString_e<17>
EXTRN	__imp_?LoadStringA@ioINILoader@@QAEXPBD0PADH@Z:PROC
; Function compile flags: /Ogsp
;	COMDAT ??$LoadString_e@$0BB@@ioINILoader@@QAEXAAY0BB@$$CBDAAY00$$CBDPADH@Z
_TEXT	SEGMENT
_this$GSCopy$ = -32					; size = 4
__k$ = -28						; size = 17
__$ArrayPad$ = -4					; size = 4
_k$ = 8							; size = 4
_d$ = 12						; size = 4
_b$ = 16						; size = 4
_i$ = 20						; size = 4
??$LoadString_e@$0BB@@ioINILoader@@QAEXAAY0BB@$$CBDAAY00$$CBDPADH@Z PROC ; ioINILoader::LoadString_e<17>, COMDAT
; _this$ = ecx

; 161  : 	{

  00000	55		 push	 ebp
  00001	8b ec		 mov	 ebp, esp
  00003	83 ec 20	 sub	 esp, 32			; 00000020H
  00006	a1 00 00 00 00	 mov	 eax, DWORD PTR ___security_cookie
  0000b	33 c5		 xor	 eax, ebp
  0000d	89 45 fc	 mov	 DWORD PTR __$ArrayPad$[ebp], eax
  00010	8b 45 08	 mov	 eax, DWORD PTR _k$[ebp]

; 162  : 		_ENCSTR(k, _k);

  00013	8a 10		 mov	 dl, BYTE PTR [eax]
  00015	56		 push	 esi
  00016	8b 75 0c	 mov	 esi, DWORD PTR _d$[ebp]
  00019	57		 push	 edi
  0001a	8b 7d 10	 mov	 edi, DWORD PTR _b$[ebp]
  0001d	89 4d e0	 mov	 DWORD PTR _this$GSCopy$[ebp], ecx
  00020	84 d2		 test	 dl, dl
  00022	0f 84 a7 01 00
	00		 je	 $LN96@LoadString
  00028	80 f2 ed	 xor	 dl, -19			; ffffffedH
  0002b	88 55 e4	 mov	 BYTE PTR __k$[ebp], dl
  0002e	8a 50 01	 mov	 dl, BYTE PTR [eax+1]
  00031	84 d2		 test	 dl, dl
  00033	0f 84 90 01 00
	00		 je	 $LN95@LoadString
  00039	b1 ec		 mov	 cl, -20			; ffffffecH
  0003b	32 d1		 xor	 dl, cl
  0003d	88 55 e5	 mov	 BYTE PTR __k$[ebp+1], dl
  00040	8a 50 02	 mov	 dl, BYTE PTR [eax+2]
  00043	84 d2		 test	 dl, dl
  00045	0f 84 78 01 00
	00		 je	 $LN94@LoadString
  0004b	80 f2 eb	 xor	 dl, -21			; ffffffebH
  0004e	88 55 e6	 mov	 BYTE PTR __k$[ebp+2], dl
  00051	8a 50 03	 mov	 dl, BYTE PTR [eax+3]
  00054	84 d2		 test	 dl, dl
  00056	0f 84 61 01 00
	00		 je	 $LN93@LoadString
  0005c	80 f2 ea	 xor	 dl, -22			; ffffffeaH
  0005f	88 55 e7	 mov	 BYTE PTR __k$[ebp+3], dl
  00062	8a 50 04	 mov	 dl, BYTE PTR [eax+4]
  00065	84 d2		 test	 dl, dl
  00067	0f 84 4a 01 00
	00		 je	 $LN92@LoadString
  0006d	80 f2 ed	 xor	 dl, -19			; ffffffedH
  00070	88 55 e8	 mov	 BYTE PTR __k$[ebp+4], dl
  00073	8a 50 05	 mov	 dl, BYTE PTR [eax+5]
  00076	84 d2		 test	 dl, dl
  00078	0f 84 34 01 00
	00		 je	 $LN91@LoadString
  0007e	32 d1		 xor	 dl, cl
  00080	88 55 e9	 mov	 BYTE PTR __k$[ebp+5], dl
  00083	8a 50 06	 mov	 dl, BYTE PTR [eax+6]
  00086	84 d2		 test	 dl, dl
  00088	0f 84 1e 01 00
	00		 je	 $LN90@LoadString
  0008e	80 f2 eb	 xor	 dl, -21			; ffffffebH
  00091	88 55 ea	 mov	 BYTE PTR __k$[ebp+6], dl
  00094	8a 50 07	 mov	 dl, BYTE PTR [eax+7]
  00097	84 d2		 test	 dl, dl
  00099	0f 84 07 01 00
	00		 je	 $LN89@LoadString
  0009f	80 f2 ea	 xor	 dl, -22			; ffffffeaH
  000a2	88 55 eb	 mov	 BYTE PTR __k$[ebp+7], dl
  000a5	8a 50 08	 mov	 dl, BYTE PTR [eax+8]
  000a8	84 d2		 test	 dl, dl
  000aa	0f 84 f0 00 00
	00		 je	 $LN88@LoadString
  000b0	80 f2 ed	 xor	 dl, -19			; ffffffedH
  000b3	88 55 ec	 mov	 BYTE PTR __k$[ebp+8], dl
  000b6	8a 50 09	 mov	 dl, BYTE PTR [eax+9]
  000b9	84 d2		 test	 dl, dl
  000bb	0f 84 da 00 00
	00		 je	 $LN87@LoadString
  000c1	32 d1		 xor	 dl, cl
  000c3	88 55 ed	 mov	 BYTE PTR __k$[ebp+9], dl
  000c6	8a 50 0a	 mov	 dl, BYTE PTR [eax+10]
  000c9	84 d2		 test	 dl, dl
  000cb	0f 84 c4 00 00
	00		 je	 $LN86@LoadString
  000d1	80 f2 eb	 xor	 dl, -21			; ffffffebH
  000d4	88 55 ee	 mov	 BYTE PTR __k$[ebp+10], dl
  000d7	8a 50 0b	 mov	 dl, BYTE PTR [eax+11]
  000da	84 d2		 test	 dl, dl
  000dc	0f 84 ad 00 00
	00		 je	 $LN85@LoadString
  000e2	80 f2 ea	 xor	 dl, -22			; ffffffeaH
  000e5	88 55 ef	 mov	 BYTE PTR __k$[ebp+11], dl
  000e8	8a 50 0c	 mov	 dl, BYTE PTR [eax+12]
  000eb	84 d2		 test	 dl, dl
  000ed	0f 84 96 00 00
	00		 je	 $LN84@LoadString
  000f3	80 f2 ed	 xor	 dl, -19			; ffffffedH
  000f6	88 55 f0	 mov	 BYTE PTR __k$[ebp+12], dl
  000f9	8a 50 0d	 mov	 dl, BYTE PTR [eax+13]
  000fc	84 d2		 test	 dl, dl
  000fe	0f 84 80 00 00
	00		 je	 $LN83@LoadString
  00104	32 d1		 xor	 dl, cl
  00106	88 55 f1	 mov	 BYTE PTR __k$[ebp+13], dl
  00109	8a 50 0e	 mov	 dl, BYTE PTR [eax+14]
  0010c	84 d2		 test	 dl, dl
  0010e	74 6e		 je	 SHORT $LN82@LoadString
  00110	80 f2 eb	 xor	 dl, -21			; ffffffebH
  00113	88 55 f2	 mov	 BYTE PTR __k$[ebp+14], dl
  00116	8a 50 0f	 mov	 dl, BYTE PTR [eax+15]
  00119	84 d2		 test	 dl, dl
  0011b	74 5b		 je	 SHORT $LN81@LoadString
  0011d	80 f2 ea	 xor	 dl, -22			; ffffffeaH
  00120	80 78 10 00	 cmp	 BYTE PTR [eax+16], 0
  00124	88 55 f3	 mov	 BYTE PTR __k$[ebp+15], dl
  00127	0f 84 a6 00 00
	00		 je	 $LN111@LoadString
  0012d	8a 50 11	 mov	 dl, BYTE PTR [eax+17]
  00130	84 d2		 test	 dl, dl
  00132	74 3f		 je	 SHORT $LN79@LoadString
  00134	32 d1		 xor	 dl, cl
  00136	88 55 f5	 mov	 BYTE PTR __k$[ebp+17], dl
  00139	8a 50 12	 mov	 dl, BYTE PTR [eax+18]
  0013c	84 d2		 test	 dl, dl
  0013e	74 2d		 je	 SHORT $LN78@LoadString
  00140	80 f2 eb	 xor	 dl, -21			; ffffffebH
  00143	88 55 f6	 mov	 BYTE PTR __k$[ebp+18], dl
  00146	8a 50 13	 mov	 dl, BYTE PTR [eax+19]
  00149	84 d2		 test	 dl, dl
  0014b	74 1a		 je	 SHORT $LN77@LoadString
  0014d	8a 40 14	 mov	 al, BYTE PTR [eax+20]
  00150	80 f2 ea	 xor	 dl, -22			; ffffffeaH
  00153	88 55 f7	 mov	 BYTE PTR __k$[ebp+19], dl
  00156	84 c0		 test	 al, al
  00158	74 07		 je	 SHORT $LN76@LoadString
  0015a	34 ed		 xor	 al, -19			; ffffffedH
  0015c	88 45 f8	 mov	 BYTE PTR __k$[ebp+20], al
  0015f	eb 72		 jmp	 SHORT $LN111@LoadString
$LN76@LoadString:
  00161	c6 45 f8 ed	 mov	 BYTE PTR __k$[ebp+20], -19 ; ffffffedH
  00165	eb 6c		 jmp	 SHORT $LN111@LoadString
$LN77@LoadString:
  00167	c6 45 f7 ea	 mov	 BYTE PTR __k$[ebp+19], -22 ; ffffffeaH
  0016b	eb 66		 jmp	 SHORT $LN111@LoadString
$LN78@LoadString:
  0016d	c6 45 f6 eb	 mov	 BYTE PTR __k$[ebp+18], -21 ; ffffffebH
  00171	eb 60		 jmp	 SHORT $LN111@LoadString
$LN79@LoadString:
  00173	88 4d f5	 mov	 BYTE PTR __k$[ebp+17], cl
  00176	eb 5b		 jmp	 SHORT $LN111@LoadString
$LN81@LoadString:
  00178	c6 45 f3 ea	 mov	 BYTE PTR __k$[ebp+15], -22 ; ffffffeaH
  0017c	eb 55		 jmp	 SHORT $LN111@LoadString
$LN82@LoadString:
  0017e	c6 45 f2 eb	 mov	 BYTE PTR __k$[ebp+14], -21 ; ffffffebH
  00182	eb 4f		 jmp	 SHORT $LN111@LoadString
$LN83@LoadString:
  00184	88 4d f1	 mov	 BYTE PTR __k$[ebp+13], cl
  00187	eb 4a		 jmp	 SHORT $LN111@LoadString
$LN84@LoadString:
  00189	c6 45 f0 ed	 mov	 BYTE PTR __k$[ebp+12], -19 ; ffffffedH
  0018d	eb 44		 jmp	 SHORT $LN111@LoadString
$LN85@LoadString:
  0018f	c6 45 ef ea	 mov	 BYTE PTR __k$[ebp+11], -22 ; ffffffeaH
  00193	eb 3e		 jmp	 SHORT $LN111@LoadString
$LN86@LoadString:
  00195	c6 45 ee eb	 mov	 BYTE PTR __k$[ebp+10], -21 ; ffffffebH
  00199	eb 38		 jmp	 SHORT $LN111@LoadString
$LN87@LoadString:
  0019b	88 4d ed	 mov	 BYTE PTR __k$[ebp+9], cl
  0019e	eb 33		 jmp	 SHORT $LN111@LoadString
$LN88@LoadString:
  001a0	c6 45 ec ed	 mov	 BYTE PTR __k$[ebp+8], -19 ; ffffffedH
  001a4	eb 2d		 jmp	 SHORT $LN111@LoadString
$LN89@LoadString:
  001a6	c6 45 eb ea	 mov	 BYTE PTR __k$[ebp+7], -22 ; ffffffeaH
  001aa	eb 27		 jmp	 SHORT $LN111@LoadString
$LN90@LoadString:
  001ac	c6 45 ea eb	 mov	 BYTE PTR __k$[ebp+6], -21 ; ffffffebH
  001b0	eb 21		 jmp	 SHORT $LN111@LoadString
$LN91@LoadString:
  001b2	88 4d e9	 mov	 BYTE PTR __k$[ebp+5], cl
  001b5	eb 1c		 jmp	 SHORT $LN111@LoadString
$LN92@LoadString:
  001b7	c6 45 e8 ed	 mov	 BYTE PTR __k$[ebp+4], -19 ; ffffffedH
  001bb	eb 16		 jmp	 SHORT $LN111@LoadString
$LN93@LoadString:
  001bd	c6 45 e7 ea	 mov	 BYTE PTR __k$[ebp+3], -22 ; ffffffeaH
  001c1	eb 10		 jmp	 SHORT $LN111@LoadString
$LN94@LoadString:
  001c3	c6 45 e6 eb	 mov	 BYTE PTR __k$[ebp+2], -21 ; ffffffebH
  001c7	eb 0a		 jmp	 SHORT $LN111@LoadString
$LN95@LoadString:
  001c9	c6 45 e5 ec	 mov	 BYTE PTR __k$[ebp+1], -20 ; ffffffecH
  001cd	eb 04		 jmp	 SHORT $LN111@LoadString
$LN96@LoadString:
  001cf	c6 45 e4 ed	 mov	 BYTE PTR __k$[ebp], -19	; ffffffedH
$LN111@LoadString:
  001d3	6a 04		 push	 4
  001d5	8d 45 e4	 lea	 eax, DWORD PTR __k$[ebp]
  001d8	c6 45 f4 00	 mov	 BYTE PTR __k$[ebp+16], 0
  001dc	5a		 pop	 edx
$LL104@LoadString:
  001dd	81 30 ed ec eb
	ea		 xor	 DWORD PTR [eax], -353637139 ; eaebecedH
  001e3	83 c0 04	 add	 eax, 4
  001e6	4a		 dec	 edx
  001e7	75 f4		 jne	 SHORT $LL104@LoadString

; 163  : 		LoadString(_k, d, b, i);

  001e9	ff 75 14	 push	 DWORD PTR _i$[ebp]
  001ec	8b 4d e0	 mov	 ecx, DWORD PTR _this$GSCopy$[ebp]
  001ef	57		 push	 edi
  001f0	56		 push	 esi
  001f1	8d 45 e4	 lea	 eax, DWORD PTR __k$[ebp]
  001f4	50		 push	 eax
  001f5	ff 15 00 00 00
	00		 call	 DWORD PTR __imp_?LoadStringA@ioINILoader@@QAEXPBD0PADH@Z

; 164  : 	}

  001fb	8b 4d fc	 mov	 ecx, DWORD PTR __$ArrayPad$[ebp]
  001fe	5f		 pop	 edi
  001ff	33 cd		 xor	 ecx, ebp
  00201	5e		 pop	 esi
  00202	e8 00 00 00 00	 call	 @__security_check_cookie@4
  00207	c9		 leave
  00208	c2 10 00	 ret	 16			; 00000010H
??$LoadString_e@$0BB@@ioINILoader@@QAEXAAY0BB@$$CBDAAY00$$CBDPADH@Z ENDP ; ioINILoader::LoadString_e<17>
_TEXT	ENDS
PUBLIC	_this$GSCopy$
PUBLIC	__$ArrayPad$
PUBLIC	??$LoadString_e@$0BA@@ioINILoader@@QAEXAAY0BA@$$CBDAAY00$$CBDPADH@Z ; ioINILoader::LoadString_e<16>
; Function compile flags: /Ogsp
;	COMDAT ??$LoadString_e@$0BA@@ioINILoader@@QAEXAAY0BA@$$CBDAAY00$$CBDPADH@Z
_TEXT	SEGMENT
_this$GSCopy$ = -28					; size = 4
__k$ = -24						; size = 16
__$ArrayPad$ = -4					; size = 4
_k$ = 8							; size = 4
_d$ = 12						; size = 4
_b$ = 16						; size = 4
_i$ = 20						; size = 4
??$LoadString_e@$0BA@@ioINILoader@@QAEXAAY0BA@$$CBDAAY00$$CBDPADH@Z PROC ; ioINILoader::LoadString_e<16>, COMDAT
; _this$ = ecx

; 161  : 	{

  00000	55		 push	 ebp
  00001	8b ec		 mov	 ebp, esp
  00003	83 ec 1c	 sub	 esp, 28			; 0000001cH
  00006	a1 00 00 00 00	 mov	 eax, DWORD PTR ___security_cookie
  0000b	33 c5		 xor	 eax, ebp
  0000d	89 45 fc	 mov	 DWORD PTR __$ArrayPad$[ebp], eax
  00010	8b 45 08	 mov	 eax, DWORD PTR _k$[ebp]

; 162  : 		_ENCSTR(k, _k);

  00013	8a 10		 mov	 dl, BYTE PTR [eax]
  00015	56		 push	 esi
  00016	8b 75 0c	 mov	 esi, DWORD PTR _d$[ebp]
  00019	57		 push	 edi
  0001a	8b 7d 10	 mov	 edi, DWORD PTR _b$[ebp]
  0001d	89 4d e4	 mov	 DWORD PTR _this$GSCopy$[ebp], ecx
  00020	84 d2		 test	 dl, dl
  00022	0f 84 8c 01 00
	00		 je	 $LN96@LoadString@2
  00028	80 f2 ed	 xor	 dl, -19			; ffffffedH
  0002b	88 55 e8	 mov	 BYTE PTR __k$[ebp], dl
  0002e	8a 50 01	 mov	 dl, BYTE PTR [eax+1]
  00031	84 d2		 test	 dl, dl
  00033	0f 84 75 01 00
	00		 je	 $LN95@LoadString@2
  00039	80 f2 ec	 xor	 dl, -20			; ffffffecH
  0003c	88 55 e9	 mov	 BYTE PTR __k$[ebp+1], dl
  0003f	8a 50 02	 mov	 dl, BYTE PTR [eax+2]
  00042	84 d2		 test	 dl, dl
  00044	0f 84 5e 01 00
	00		 je	 $LN94@LoadString@2
  0004a	b1 eb		 mov	 cl, -21			; ffffffebH
  0004c	32 d1		 xor	 dl, cl
  0004e	88 55 ea	 mov	 BYTE PTR __k$[ebp+2], dl
  00051	8a 50 03	 mov	 dl, BYTE PTR [eax+3]
  00054	84 d2		 test	 dl, dl
  00056	0f 84 46 01 00
	00		 je	 $LN93@LoadString@2
  0005c	80 f2 ea	 xor	 dl, -22			; ffffffeaH
  0005f	88 55 eb	 mov	 BYTE PTR __k$[ebp+3], dl
  00062	8a 50 04	 mov	 dl, BYTE PTR [eax+4]
  00065	84 d2		 test	 dl, dl
  00067	0f 84 2f 01 00
	00		 je	 $LN92@LoadString@2
  0006d	80 f2 ed	 xor	 dl, -19			; ffffffedH
  00070	88 55 ec	 mov	 BYTE PTR __k$[ebp+4], dl
  00073	8a 50 05	 mov	 dl, BYTE PTR [eax+5]
  00076	84 d2		 test	 dl, dl
  00078	0f 84 18 01 00
	00		 je	 $LN91@LoadString@2
  0007e	80 f2 ec	 xor	 dl, -20			; ffffffecH
  00081	88 55 ed	 mov	 BYTE PTR __k$[ebp+5], dl
  00084	8a 50 06	 mov	 dl, BYTE PTR [eax+6]
  00087	84 d2		 test	 dl, dl
  00089	0f 84 02 01 00
	00		 je	 $LN90@LoadString@2
  0008f	32 d1		 xor	 dl, cl
  00091	88 55 ee	 mov	 BYTE PTR __k$[ebp+6], dl
  00094	8a 50 07	 mov	 dl, BYTE PTR [eax+7]
  00097	84 d2		 test	 dl, dl
  00099	0f 84 ec 00 00
	00		 je	 $LN89@LoadString@2
  0009f	80 f2 ea	 xor	 dl, -22			; ffffffeaH
  000a2	88 55 ef	 mov	 BYTE PTR __k$[ebp+7], dl
  000a5	8a 50 08	 mov	 dl, BYTE PTR [eax+8]
  000a8	84 d2		 test	 dl, dl
  000aa	0f 84 d5 00 00
	00		 je	 $LN88@LoadString@2
  000b0	80 f2 ed	 xor	 dl, -19			; ffffffedH
  000b3	88 55 f0	 mov	 BYTE PTR __k$[ebp+8], dl
  000b6	8a 50 09	 mov	 dl, BYTE PTR [eax+9]
  000b9	84 d2		 test	 dl, dl
  000bb	0f 84 be 00 00
	00		 je	 $LN87@LoadString@2
  000c1	80 f2 ec	 xor	 dl, -20			; ffffffecH
  000c4	88 55 f1	 mov	 BYTE PTR __k$[ebp+9], dl
  000c7	8a 50 0a	 mov	 dl, BYTE PTR [eax+10]
  000ca	84 d2		 test	 dl, dl
  000cc	0f 84 a8 00 00
	00		 je	 $LN86@LoadString@2
  000d2	32 d1		 xor	 dl, cl
  000d4	88 55 f2	 mov	 BYTE PTR __k$[ebp+10], dl
  000d7	8a 50 0b	 mov	 dl, BYTE PTR [eax+11]
  000da	84 d2		 test	 dl, dl
  000dc	0f 84 92 00 00
	00		 je	 $LN85@LoadString@2
  000e2	80 f2 ea	 xor	 dl, -22			; ffffffeaH
  000e5	88 55 f3	 mov	 BYTE PTR __k$[ebp+11], dl
  000e8	8a 50 0c	 mov	 dl, BYTE PTR [eax+12]
  000eb	84 d2		 test	 dl, dl
  000ed	74 7f		 je	 SHORT $LN84@LoadString@2
  000ef	80 f2 ed	 xor	 dl, -19			; ffffffedH
  000f2	88 55 f4	 mov	 BYTE PTR __k$[ebp+12], dl
  000f5	8a 50 0d	 mov	 dl, BYTE PTR [eax+13]
  000f8	84 d2		 test	 dl, dl
  000fa	74 6c		 je	 SHORT $LN83@LoadString@2
  000fc	80 f2 ec	 xor	 dl, -20			; ffffffecH
  000ff	88 55 f5	 mov	 BYTE PTR __k$[ebp+13], dl
  00102	8a 50 0e	 mov	 dl, BYTE PTR [eax+14]
  00105	84 d2		 test	 dl, dl
  00107	74 5a		 je	 SHORT $LN82@LoadString@2
  00109	32 d1		 xor	 dl, cl
  0010b	80 78 0f 00	 cmp	 BYTE PTR [eax+15], 0
  0010f	88 55 f6	 mov	 BYTE PTR __k$[ebp+14], dl
  00112	0f 84 a0 00 00
	00		 je	 $LN111@LoadString@2
  00118	8a 50 10	 mov	 dl, BYTE PTR [eax+16]
  0011b	84 d2		 test	 dl, dl
  0011d	74 3e		 je	 SHORT $LN80@LoadString@2
  0011f	80 f2 ed	 xor	 dl, -19			; ffffffedH
  00122	88 55 f8	 mov	 BYTE PTR __k$[ebp+16], dl
  00125	8a 50 11	 mov	 dl, BYTE PTR [eax+17]
  00128	84 d2		 test	 dl, dl
  0012a	74 2b		 je	 SHORT $LN79@LoadString@2
  0012c	80 f2 ec	 xor	 dl, -20			; ffffffecH
  0012f	88 55 f9	 mov	 BYTE PTR __k$[ebp+17], dl
  00132	8a 50 12	 mov	 dl, BYTE PTR [eax+18]
  00135	84 d2		 test	 dl, dl
  00137	74 19		 je	 SHORT $LN78@LoadString@2
  00139	8a 40 13	 mov	 al, BYTE PTR [eax+19]
  0013c	32 d1		 xor	 dl, cl
  0013e	88 55 fa	 mov	 BYTE PTR __k$[ebp+18], dl
  00141	84 c0		 test	 al, al
  00143	74 07		 je	 SHORT $LN77@LoadString@2
  00145	34 ea		 xor	 al, -22			; ffffffeaH
  00147	88 45 fb	 mov	 BYTE PTR __k$[ebp+19], al
  0014a	eb 6c		 jmp	 SHORT $LN111@LoadString@2
$LN77@LoadString@2:
  0014c	c6 45 fb ea	 mov	 BYTE PTR __k$[ebp+19], -22 ; ffffffeaH
  00150	eb 66		 jmp	 SHORT $LN111@LoadString@2
$LN78@LoadString@2:
  00152	88 4d fa	 mov	 BYTE PTR __k$[ebp+18], cl
  00155	eb 61		 jmp	 SHORT $LN111@LoadString@2
$LN79@LoadString@2:
  00157	c6 45 f9 ec	 mov	 BYTE PTR __k$[ebp+17], -20 ; ffffffecH
  0015b	eb 5b		 jmp	 SHORT $LN111@LoadString@2
$LN80@LoadString@2:
  0015d	c6 45 f8 ed	 mov	 BYTE PTR __k$[ebp+16], -19 ; ffffffedH
  00161	eb 55		 jmp	 SHORT $LN111@LoadString@2
$LN82@LoadString@2:
  00163	88 4d f6	 mov	 BYTE PTR __k$[ebp+14], cl
  00166	eb 50		 jmp	 SHORT $LN111@LoadString@2
$LN83@LoadString@2:
  00168	c6 45 f5 ec	 mov	 BYTE PTR __k$[ebp+13], -20 ; ffffffecH
  0016c	eb 4a		 jmp	 SHORT $LN111@LoadString@2
$LN84@LoadString@2:
  0016e	c6 45 f4 ed	 mov	 BYTE PTR __k$[ebp+12], -19 ; ffffffedH
  00172	eb 44		 jmp	 SHORT $LN111@LoadString@2
$LN85@LoadString@2:
  00174	c6 45 f3 ea	 mov	 BYTE PTR __k$[ebp+11], -22 ; ffffffeaH
  00178	eb 3e		 jmp	 SHORT $LN111@LoadString@2
$LN86@LoadString@2:
  0017a	88 4d f2	 mov	 BYTE PTR __k$[ebp+10], cl
  0017d	eb 39		 jmp	 SHORT $LN111@LoadString@2
$LN87@LoadString@2:
  0017f	c6 45 f1 ec	 mov	 BYTE PTR __k$[ebp+9], -20 ; ffffffecH
  00183	eb 33		 jmp	 SHORT $LN111@LoadString@2
$LN88@LoadString@2:
  00185	c6 45 f0 ed	 mov	 BYTE PTR __k$[ebp+8], -19 ; ffffffedH
  00189	eb 2d		 jmp	 SHORT $LN111@LoadString@2
$LN89@LoadString@2:
  0018b	c6 45 ef ea	 mov	 BYTE PTR __k$[ebp+7], -22 ; ffffffeaH
  0018f	eb 27		 jmp	 SHORT $LN111@LoadString@2
$LN90@LoadString@2:
  00191	88 4d ee	 mov	 BYTE PTR __k$[ebp+6], cl
  00194	eb 22		 jmp	 SHORT $LN111@LoadString@2
$LN91@LoadString@2:
  00196	c6 45 ed ec	 mov	 BYTE PTR __k$[ebp+5], -20 ; ffffffecH
  0019a	eb 1c		 jmp	 SHORT $LN111@LoadString@2
$LN92@LoadString@2:
  0019c	c6 45 ec ed	 mov	 BYTE PTR __k$[ebp+4], -19 ; ffffffedH
  001a0	eb 16		 jmp	 SHORT $LN111@LoadString@2
$LN93@LoadString@2:
  001a2	c6 45 eb ea	 mov	 BYTE PTR __k$[ebp+3], -22 ; ffffffeaH
  001a6	eb 10		 jmp	 SHORT $LN111@LoadString@2
$LN94@LoadString@2:
  001a8	c6 45 ea eb	 mov	 BYTE PTR __k$[ebp+2], -21 ; ffffffebH
  001ac	eb 0a		 jmp	 SHORT $LN111@LoadString@2
$LN95@LoadString@2:
  001ae	c6 45 e9 ec	 mov	 BYTE PTR __k$[ebp+1], -20 ; ffffffecH
  001b2	eb 04		 jmp	 SHORT $LN111@LoadString@2
$LN96@LoadString@2:
  001b4	c6 45 e8 ed	 mov	 BYTE PTR __k$[ebp], -19	; ffffffedH
$LN111@LoadString@2:
  001b8	6a 03		 push	 3
  001ba	8d 45 e8	 lea	 eax, DWORD PTR __k$[ebp]
  001bd	c6 45 f7 00	 mov	 BYTE PTR __k$[ebp+15], 0
  001c1	5a		 pop	 edx
$LL104@LoadString@2:
  001c2	81 30 ed ec eb
	ea		 xor	 DWORD PTR [eax], -353637139 ; eaebecedH
  001c8	83 c0 04	 add	 eax, 4
  001cb	4a		 dec	 edx
  001cc	75 f4		 jne	 SHORT $LL104@LoadString@2
  001ce	6a 0c		 push	 12			; 0000000cH
  001d0	58		 pop	 eax
$LL101@LoadString@2:
  001d1	8b c8		 mov	 ecx, eax
  001d3	81 e1 03 00 00
	80		 and	 ecx, -2147483645	; 80000003H
  001d9	79 05		 jns	 SHORT $LN112@LoadString@2
  001db	49		 dec	 ecx
  001dc	83 c9 fc	 or	 ecx, -4			; fffffffcH
  001df	41		 inc	 ecx
$LN112@LoadString@2:
  001e0	b2 ed		 mov	 dl, -19			; ffffffedH
  001e2	2a d1		 sub	 dl, cl
  001e4	30 54 05 e8	 xor	 BYTE PTR __k$[ebp+eax], dl
  001e8	40		 inc	 eax
  001e9	83 f8 0f	 cmp	 eax, 15			; 0000000fH
  001ec	7c e3		 jl	 SHORT $LL101@LoadString@2

; 163  : 		LoadString(_k, d, b, i);

  001ee	ff 75 14	 push	 DWORD PTR _i$[ebp]
  001f1	8b 4d e4	 mov	 ecx, DWORD PTR _this$GSCopy$[ebp]
  001f4	57		 push	 edi
  001f5	56		 push	 esi
  001f6	8d 45 e8	 lea	 eax, DWORD PTR __k$[ebp]
  001f9	50		 push	 eax
  001fa	ff 15 00 00 00
	00		 call	 DWORD PTR __imp_?LoadStringA@ioINILoader@@QAEXPBD0PADH@Z

; 164  : 	}

  00200	8b 4d fc	 mov	 ecx, DWORD PTR __$ArrayPad$[ebp]
  00203	5f		 pop	 edi
  00204	33 cd		 xor	 ecx, ebp
  00206	5e		 pop	 esi
  00207	e8 00 00 00 00	 call	 @__security_check_cookie@4
  0020c	c9		 leave
  0020d	c2 10 00	 ret	 16			; 00000010H
??$LoadString_e@$0BA@@ioINILoader@@QAEXAAY0BA@$$CBDAAY00$$CBDPADH@Z ENDP ; ioINILoader::LoadString_e<16>
_TEXT	ENDS
PUBLIC	_this$GSCopy$
PUBLIC	__$ArrayPad$
PUBLIC	??$LoadString_e@$0O@@ioINILoader@@QAEXAAY0O@$$CBDAAY00$$CBDPADH@Z ; ioINILoader::LoadString_e<14>
; Function compile flags: /Ogsp
;	COMDAT ??$LoadString_e@$0O@@ioINILoader@@QAEXAAY0O@$$CBDAAY00$$CBDPADH@Z
_TEXT	SEGMENT
_this$GSCopy$ = -28					; size = 4
__k$ = -24						; size = 14
__$ArrayPad$ = -4					; size = 4
_k$ = 8							; size = 4
_d$ = 12						; size = 4
_b$ = 16						; size = 4
_i$ = 20						; size = 4
??$LoadString_e@$0O@@ioINILoader@@QAEXAAY0O@$$CBDAAY00$$CBDPADH@Z PROC ; ioINILoader::LoadString_e<14>, COMDAT
; _this$ = ecx

; 161  : 	{

  00000	55		 push	 ebp
  00001	8b ec		 mov	 ebp, esp
  00003	83 ec 1c	 sub	 esp, 28			; 0000001cH
  00006	a1 00 00 00 00	 mov	 eax, DWORD PTR ___security_cookie
  0000b	33 c5		 xor	 eax, ebp
  0000d	89 45 fc	 mov	 DWORD PTR __$ArrayPad$[ebp], eax
  00010	8b 45 08	 mov	 eax, DWORD PTR _k$[ebp]

; 162  : 		_ENCSTR(k, _k);

  00013	8a 10		 mov	 dl, BYTE PTR [eax]
  00015	56		 push	 esi
  00016	8b 75 0c	 mov	 esi, DWORD PTR _d$[ebp]
  00019	57		 push	 edi
  0001a	8b 7d 10	 mov	 edi, DWORD PTR _b$[ebp]
  0001d	89 4d e4	 mov	 DWORD PTR _this$GSCopy$[ebp], ecx
  00020	84 d2		 test	 dl, dl
  00022	0f 84 64 01 00
	00		 je	 $LN96@LoadString@3
  00028	80 f2 ed	 xor	 dl, -19			; ffffffedH
  0002b	88 55 e8	 mov	 BYTE PTR __k$[ebp], dl
  0002e	8a 50 01	 mov	 dl, BYTE PTR [eax+1]
  00031	84 d2		 test	 dl, dl
  00033	0f 84 4d 01 00
	00		 je	 $LN95@LoadString@3
  00039	80 f2 ec	 xor	 dl, -20			; ffffffecH
  0003c	88 55 e9	 mov	 BYTE PTR __k$[ebp+1], dl
  0003f	8a 50 02	 mov	 dl, BYTE PTR [eax+2]
  00042	84 d2		 test	 dl, dl
  00044	0f 84 36 01 00
	00		 je	 $LN94@LoadString@3
  0004a	b1 eb		 mov	 cl, -21			; ffffffebH
  0004c	32 d1		 xor	 dl, cl
  0004e	88 55 ea	 mov	 BYTE PTR __k$[ebp+2], dl
  00051	8a 50 03	 mov	 dl, BYTE PTR [eax+3]
  00054	84 d2		 test	 dl, dl
  00056	0f 84 1e 01 00
	00		 je	 $LN93@LoadString@3
  0005c	80 f2 ea	 xor	 dl, -22			; ffffffeaH
  0005f	88 55 eb	 mov	 BYTE PTR __k$[ebp+3], dl
  00062	8a 50 04	 mov	 dl, BYTE PTR [eax+4]
  00065	84 d2		 test	 dl, dl
  00067	0f 84 07 01 00
	00		 je	 $LN92@LoadString@3
  0006d	80 f2 ed	 xor	 dl, -19			; ffffffedH
  00070	88 55 ec	 mov	 BYTE PTR __k$[ebp+4], dl
  00073	8a 50 05	 mov	 dl, BYTE PTR [eax+5]
  00076	84 d2		 test	 dl, dl
  00078	0f 84 f0 00 00
	00		 je	 $LN91@LoadString@3
  0007e	80 f2 ec	 xor	 dl, -20			; ffffffecH
  00081	88 55 ed	 mov	 BYTE PTR __k$[ebp+5], dl
  00084	8a 50 06	 mov	 dl, BYTE PTR [eax+6]
  00087	84 d2		 test	 dl, dl
  00089	0f 84 da 00 00
	00		 je	 $LN90@LoadString@3
  0008f	32 d1		 xor	 dl, cl
  00091	88 55 ee	 mov	 BYTE PTR __k$[ebp+6], dl
  00094	8a 50 07	 mov	 dl, BYTE PTR [eax+7]
  00097	84 d2		 test	 dl, dl
  00099	0f 84 c4 00 00
	00		 je	 $LN89@LoadString@3
  0009f	80 f2 ea	 xor	 dl, -22			; ffffffeaH
  000a2	88 55 ef	 mov	 BYTE PTR __k$[ebp+7], dl
  000a5	8a 50 08	 mov	 dl, BYTE PTR [eax+8]
  000a8	84 d2		 test	 dl, dl
  000aa	0f 84 ad 00 00
	00		 je	 $LN88@LoadString@3
  000b0	80 f2 ed	 xor	 dl, -19			; ffffffedH
  000b3	88 55 f0	 mov	 BYTE PTR __k$[ebp+8], dl
  000b6	8a 50 09	 mov	 dl, BYTE PTR [eax+9]
  000b9	84 d2		 test	 dl, dl
  000bb	0f 84 96 00 00
	00		 je	 $LN87@LoadString@3
  000c1	80 f2 ec	 xor	 dl, -20			; ffffffecH
  000c4	88 55 f1	 mov	 BYTE PTR __k$[ebp+9], dl
  000c7	8a 50 0a	 mov	 dl, BYTE PTR [eax+10]
  000ca	84 d2		 test	 dl, dl
  000cc	0f 84 80 00 00
	00		 je	 $LN86@LoadString@3
  000d2	32 d1		 xor	 dl, cl
  000d4	88 55 f2	 mov	 BYTE PTR __k$[ebp+10], dl
  000d7	8a 50 0b	 mov	 dl, BYTE PTR [eax+11]
  000da	84 d2		 test	 dl, dl
  000dc	74 6e		 je	 SHORT $LN85@LoadString@3
  000de	80 f2 ea	 xor	 dl, -22			; ffffffeaH
  000e1	88 55 f3	 mov	 BYTE PTR __k$[ebp+11], dl
  000e4	8a 50 0c	 mov	 dl, BYTE PTR [eax+12]
  000e7	84 d2		 test	 dl, dl
  000e9	74 5b		 je	 SHORT $LN84@LoadString@3
  000eb	80 f2 ed	 xor	 dl, -19			; ffffffedH
  000ee	80 78 0d 00	 cmp	 BYTE PTR [eax+13], 0
  000f2	88 55 f4	 mov	 BYTE PTR __k$[ebp+12], dl
  000f5	0f 84 95 00 00
	00		 je	 $LN111@LoadString@3
  000fb	8a 50 0e	 mov	 dl, BYTE PTR [eax+14]
  000fe	84 d2		 test	 dl, dl
  00100	74 3f		 je	 SHORT $LN82@LoadString@3
  00102	32 d1		 xor	 dl, cl
  00104	88 55 f6	 mov	 BYTE PTR __k$[ebp+14], dl
  00107	8a 50 0f	 mov	 dl, BYTE PTR [eax+15]
  0010a	84 d2		 test	 dl, dl
  0010c	74 2d		 je	 SHORT $LN81@LoadString@3
  0010e	80 f2 ea	 xor	 dl, -22			; ffffffeaH
  00111	88 55 f7	 mov	 BYTE PTR __k$[ebp+15], dl
  00114	8a 50 10	 mov	 dl, BYTE PTR [eax+16]
  00117	84 d2		 test	 dl, dl
  00119	74 1a		 je	 SHORT $LN80@LoadString@3
  0011b	8a 40 11	 mov	 al, BYTE PTR [eax+17]
  0011e	80 f2 ed	 xor	 dl, -19			; ffffffedH
  00121	88 55 f8	 mov	 BYTE PTR __k$[ebp+16], dl
  00124	84 c0		 test	 al, al
  00126	74 07		 je	 SHORT $LN79@LoadString@3
  00128	34 ec		 xor	 al, -20			; ffffffecH
  0012a	88 45 f9	 mov	 BYTE PTR __k$[ebp+17], al
  0012d	eb 61		 jmp	 SHORT $LN111@LoadString@3
$LN79@LoadString@3:
  0012f	c6 45 f9 ec	 mov	 BYTE PTR __k$[ebp+17], -20 ; ffffffecH
  00133	eb 5b		 jmp	 SHORT $LN111@LoadString@3
$LN80@LoadString@3:
  00135	c6 45 f8 ed	 mov	 BYTE PTR __k$[ebp+16], -19 ; ffffffedH
  00139	eb 55		 jmp	 SHORT $LN111@LoadString@3
$LN81@LoadString@3:
  0013b	c6 45 f7 ea	 mov	 BYTE PTR __k$[ebp+15], -22 ; ffffffeaH
  0013f	eb 4f		 jmp	 SHORT $LN111@LoadString@3
$LN82@LoadString@3:
  00141	88 4d f6	 mov	 BYTE PTR __k$[ebp+14], cl
  00144	eb 4a		 jmp	 SHORT $LN111@LoadString@3
$LN84@LoadString@3:
  00146	c6 45 f4 ed	 mov	 BYTE PTR __k$[ebp+12], -19 ; ffffffedH
  0014a	eb 44		 jmp	 SHORT $LN111@LoadString@3
$LN85@LoadString@3:
  0014c	c6 45 f3 ea	 mov	 BYTE PTR __k$[ebp+11], -22 ; ffffffeaH
  00150	eb 3e		 jmp	 SHORT $LN111@LoadString@3
$LN86@LoadString@3:
  00152	88 4d f2	 mov	 BYTE PTR __k$[ebp+10], cl
  00155	eb 39		 jmp	 SHORT $LN111@LoadString@3
$LN87@LoadString@3:
  00157	c6 45 f1 ec	 mov	 BYTE PTR __k$[ebp+9], -20 ; ffffffecH
  0015b	eb 33		 jmp	 SHORT $LN111@LoadString@3
$LN88@LoadString@3:
  0015d	c6 45 f0 ed	 mov	 BYTE PTR __k$[ebp+8], -19 ; ffffffedH
  00161	eb 2d		 jmp	 SHORT $LN111@LoadString@3
$LN89@LoadString@3:
  00163	c6 45 ef ea	 mov	 BYTE PTR __k$[ebp+7], -22 ; ffffffeaH
  00167	eb 27		 jmp	 SHORT $LN111@LoadString@3
$LN90@LoadString@3:
  00169	88 4d ee	 mov	 BYTE PTR __k$[ebp+6], cl
  0016c	eb 22		 jmp	 SHORT $LN111@LoadString@3
$LN91@LoadString@3:
  0016e	c6 45 ed ec	 mov	 BYTE PTR __k$[ebp+5], -20 ; ffffffecH
  00172	eb 1c		 jmp	 SHORT $LN111@LoadString@3
$LN92@LoadString@3:
  00174	c6 45 ec ed	 mov	 BYTE PTR __k$[ebp+4], -19 ; ffffffedH
  00178	eb 16		 jmp	 SHORT $LN111@LoadString@3
$LN93@LoadString@3:
  0017a	c6 45 eb ea	 mov	 BYTE PTR __k$[ebp+3], -22 ; ffffffeaH
  0017e	eb 10		 jmp	 SHORT $LN111@LoadString@3
$LN94@LoadString@3:
  00180	c6 45 ea eb	 mov	 BYTE PTR __k$[ebp+2], -21 ; ffffffebH
  00184	eb 0a		 jmp	 SHORT $LN111@LoadString@3
$LN95@LoadString@3:
  00186	c6 45 e9 ec	 mov	 BYTE PTR __k$[ebp+1], -20 ; ffffffecH
  0018a	eb 04		 jmp	 SHORT $LN111@LoadString@3
$LN96@LoadString@3:
  0018c	c6 45 e8 ed	 mov	 BYTE PTR __k$[ebp], -19	; ffffffedH
$LN111@LoadString@3:
  00190	6a 03		 push	 3
  00192	8d 45 e8	 lea	 eax, DWORD PTR __k$[ebp]
  00195	c6 45 f5 00	 mov	 BYTE PTR __k$[ebp+13], 0
  00199	5a		 pop	 edx
$LL104@LoadString@3:
  0019a	81 30 ed ec eb
	ea		 xor	 DWORD PTR [eax], -353637139 ; eaebecedH
  001a0	83 c0 04	 add	 eax, 4
  001a3	4a		 dec	 edx
  001a4	75 f4		 jne	 SHORT $LL104@LoadString@3

; 163  : 		LoadString(_k, d, b, i);

  001a6	ff 75 14	 push	 DWORD PTR _i$[ebp]
  001a9	8b 4d e4	 mov	 ecx, DWORD PTR _this$GSCopy$[ebp]
  001ac	80 75 f4 ed	 xor	 BYTE PTR __k$[ebp+12], -19 ; ffffffedH
  001b0	57		 push	 edi
  001b1	56		 push	 esi
  001b2	8d 45 e8	 lea	 eax, DWORD PTR __k$[ebp]
  001b5	50		 push	 eax
  001b6	ff 15 00 00 00
	00		 call	 DWORD PTR __imp_?LoadStringA@ioINILoader@@QAEXPBD0PADH@Z

; 164  : 	}

  001bc	8b 4d fc	 mov	 ecx, DWORD PTR __$ArrayPad$[ebp]
  001bf	5f		 pop	 edi
  001c0	33 cd		 xor	 ecx, ebp
  001c2	5e		 pop	 esi
  001c3	e8 00 00 00 00	 call	 @__security_check_cookie@4
  001c8	c9		 leave
  001c9	c2 10 00	 ret	 16			; 00000010H
??$LoadString_e@$0O@@ioINILoader@@QAEXAAY0O@$$CBDAAY00$$CBDPADH@Z ENDP ; ioINILoader::LoadString_e<14>
_TEXT	ENDS
PUBLIC	??$_Cons_val@V?$allocator@PAVioBaseChar@@@std@@PAVioBaseChar@@AAPAV3@@std@@YAXAAV?$allocator@PAVioBaseChar@@@0@PAPAVioBaseChar@@AAPAV2@@Z ; std::_Cons_val<std::allocator<ioBaseChar *>,ioBaseChar *,ioBaseChar * &>
; Function compile flags: /Ogsp
; File c:\program files (x86)\microsoft visual studio 10.0\vc\include\xmemory
;	COMDAT ??$_Cons_val@V?$allocator@PAVioBaseChar@@@std@@PAVioBaseChar@@AAPAV3@@std@@YAXAAV?$allocator@PAVioBaseChar@@@0@PAPAVioBaseChar@@AAPAV2@@Z
_TEXT	SEGMENT
__Alval$ = 8						; size = 4
__Pdest$ = 12						; size = 4
__Src$ = 16						; size = 4
??$_Cons_val@V?$allocator@PAVioBaseChar@@@std@@PAVioBaseChar@@AAPAV3@@std@@YAXAAV?$allocator@PAVioBaseChar@@@0@PAPAVioBaseChar@@AAPAV2@@Z PROC ; std::_Cons_val<std::allocator<ioBaseChar *>,ioBaseChar *,ioBaseChar * &>, COMDAT

; 279  : 	{	// construct using allocator

  00000	55		 push	 ebp
  00001	8b ec		 mov	 ebp, esp

; 280  : 	_Alval.construct(_Pdest, _STD forward<_Ty2>(_Src));

  00003	8b 45 0c	 mov	 eax, DWORD PTR __Pdest$[ebp]
  00006	85 c0		 test	 eax, eax
  00008	74 07		 je	 SHORT $LN7@Cons_val
  0000a	8b 4d 10	 mov	 ecx, DWORD PTR __Src$[ebp]
  0000d	8b 09		 mov	 ecx, DWORD PTR [ecx]
  0000f	89 08		 mov	 DWORD PTR [eax], ecx
$LN7@Cons_val:

; 281  : 	}

  00011	5d		 pop	 ebp
  00012	c3		 ret	 0
??$_Cons_val@V?$allocator@PAVioBaseChar@@@std@@PAVioBaseChar@@AAPAV3@@std@@YAXAAV?$allocator@PAVioBaseChar@@@0@PAPAVioBaseChar@@AAPAV2@@Z ENDP ; std::_Cons_val<std::allocator<ioBaseChar *>,ioBaseChar *,ioBaseChar * &>
_TEXT	ENDS
PUBLIC	??$_Move@PAPAVioBaseChar@@PAPAV1@@std@@YAPAPAVioBaseChar@@PAPAV1@00@Z ; std::_Move<ioBaseChar * *,ioBaseChar * *>
; Function compile flags: /Ogsp
; File c:\program files (x86)\microsoft visual studio 10.0\vc\include\xutility
;	COMDAT ??$_Move@PAPAVioBaseChar@@PAPAV1@@std@@YAPAPAVioBaseChar@@PAPAV1@00@Z
_TEXT	SEGMENT
__Cat$555102 = -4					; size = 1
__First$ = 8						; size = 4
__Last$ = 12						; size = 4
__Dest$ = 16						; size = 4
??$_Move@PAPAVioBaseChar@@PAPAV1@@std@@YAPAPAVioBaseChar@@PAPAV1@00@Z PROC ; std::_Move<ioBaseChar * *,ioBaseChar * *>, COMDAT

; 2533 : 	{	// move [_First, _Last) to [_Dest, ...), unchecked

  00000	55		 push	 ebp
  00001	8b ec		 mov	 ebp, esp
  00003	51		 push	 ecx

; 2534 : 	return (_Move(_First, _Last,
; 2535 : 		_Dest, _Ptr_cat(_First, _Dest)));

  00004	ff 75 fc	 push	 DWORD PTR __Cat$555102[ebp]
  00007	ff 75 10	 push	 DWORD PTR __Dest$[ebp]
  0000a	ff 75 0c	 push	 DWORD PTR __Last$[ebp]
  0000d	ff 75 08	 push	 DWORD PTR __First$[ebp]
  00010	e8 00 00 00 00	 call	 ??$_Move@PAPAVioBaseChar@@PAPAV1@@std@@YAPAPAVioBaseChar@@PAPAV1@00U_Scalar_ptr_iterator_tag@0@@Z ; std::_Move<ioBaseChar * *,ioBaseChar * *>
  00015	83 c4 10	 add	 esp, 16			; 00000010H

; 2536 : 	}

  00018	c9		 leave
  00019	c3		 ret	 0
??$_Move@PAPAVioBaseChar@@PAPAV1@@std@@YAPAPAVioBaseChar@@PAPAV1@00@Z ENDP ; std::_Move<ioBaseChar * *,ioBaseChar * *>
_TEXT	ENDS
PUBLIC	??$_Destroy_range@V?$allocator@PAVioBaseChar@@@std@@@std@@YAXPAPAVioBaseChar@@0AAV?$allocator@PAVioBaseChar@@@0@@Z ; std::_Destroy_range<std::allocator<ioBaseChar *> >
; Function compile flags: /Ogsp
; File c:\program files (x86)\microsoft visual studio 10.0\vc\include\xmemory
;	COMDAT ??$_Destroy_range@V?$allocator@PAVioBaseChar@@@std@@@std@@YAXPAPAVioBaseChar@@0AAV?$allocator@PAVioBaseChar@@@0@@Z
_TEXT	SEGMENT
__First$ = 8						; size = 4
__Last$ = 12						; size = 4
__Al$ = 16						; size = 4
??$_Destroy_range@V?$allocator@PAVioBaseChar@@@std@@@std@@YAXPAPAVioBaseChar@@0AAV?$allocator@PAVioBaseChar@@@0@@Z PROC ; std::_Destroy_range<std::allocator<ioBaseChar *> >, COMDAT

; 88   : 	_Destroy_range(_First, _Last, _Al, _Ptr_cat(_First, _Last));
; 89   : 	}

  00000	c3		 ret	 0
??$_Destroy_range@V?$allocator@PAVioBaseChar@@@std@@@std@@YAXPAPAVioBaseChar@@0AAV?$allocator@PAVioBaseChar@@@0@@Z ENDP ; std::_Destroy_range<std::allocator<ioBaseChar *> >
_TEXT	ENDS
PUBLIC	?construct@?$allocator@PAVioBaseChar@@@std@@QAEXPAPAVioBaseChar@@ABQAV3@@Z ; std::allocator<ioBaseChar *>::construct
; Function compile flags: /Ogsp
;	COMDAT ?construct@?$allocator@PAVioBaseChar@@@std@@QAEXPAPAVioBaseChar@@ABQAV3@@Z
_TEXT	SEGMENT
__Ptr$ = 8						; size = 4
__Val$ = 12						; size = 4
?construct@?$allocator@PAVioBaseChar@@@std@@QAEXPAPAVioBaseChar@@ABQAV3@@Z PROC ; std::allocator<ioBaseChar *>::construct, COMDAT
; _this$ = ecx

; 196  : 		{	// construct object at _Ptr with value _Val

  00000	55		 push	 ebp
  00001	8b ec		 mov	 ebp, esp

; 197  : 		_Construct(_Ptr, _Val);

  00003	8b 45 08	 mov	 eax, DWORD PTR __Ptr$[ebp]
  00006	85 c0		 test	 eax, eax
  00008	74 07		 je	 SHORT $LN5@construct@2
  0000a	8b 4d 0c	 mov	 ecx, DWORD PTR __Val$[ebp]
  0000d	8b 09		 mov	 ecx, DWORD PTR [ecx]
  0000f	89 08		 mov	 DWORD PTR [eax], ecx
$LN5@construct@2:

; 198  : 		}

  00011	5d		 pop	 ebp
  00012	c2 08 00	 ret	 8
?construct@?$allocator@PAVioBaseChar@@@std@@QAEXPAPAVioBaseChar@@ABQAV3@@Z ENDP ; std::allocator<ioBaseChar *>::construct
_TEXT	ENDS
PUBLIC	??$_Uninitialized_move@PAPAVioBaseChar@@PAPAV1@V?$allocator@PAVioBaseChar@@@std@@@std@@YAPAPAVioBaseChar@@PAPAV1@00AAV?$allocator@PAVioBaseChar@@@0@@Z ; std::_Uninitialized_move<ioBaseChar * *,ioBaseChar * *,std::allocator<ioBaseChar *> >
; Function compile flags: /Ogsp
; File c:\program files (x86)\microsoft visual studio 10.0\vc\include\memory
;	COMDAT ??$_Uninitialized_move@PAPAVioBaseChar@@PAPAV1@V?$allocator@PAVioBaseChar@@@std@@@std@@YAPAPAVioBaseChar@@PAPAV1@00AAV?$allocator@PAVioBaseChar@@@0@@Z
_TEXT	SEGMENT
__First$ = 8						; size = 4
__Last$ = 12						; size = 4
__Dest$ = 16						; size = 4
__Al$ = 20						; size = 4
??$_Uninitialized_move@PAPAVioBaseChar@@PAPAV1@V?$allocator@PAVioBaseChar@@@std@@@std@@YAPAPAVioBaseChar@@PAPAV1@00AAV?$allocator@PAVioBaseChar@@@0@@Z PROC ; std::_Uninitialized_move<ioBaseChar * *,ioBaseChar * *,std::allocator<ioBaseChar *> >, COMDAT

; 469  : 	{	// move [_First, _Last) to raw _Dest, using _Al

  00000	55		 push	 ebp
  00001	8b ec		 mov	 ebp, esp
  00003	56		 push	 esi

; 470  : 	return (_Uninit_move(_First, _Last, _Dest, _Al,
; 471  : 		_Val_type(_First), _Ptr_cat(_First, _Dest)));

  00004	8b 75 0c	 mov	 esi, DWORD PTR __Last$[ebp]
  00007	2b 75 08	 sub	 esi, DWORD PTR __First$[ebp]
  0000a	c1 fe 02	 sar	 esi, 2
  0000d	c1 e6 02	 shl	 esi, 2
  00010	56		 push	 esi
  00011	ff 75 08	 push	 DWORD PTR __First$[ebp]
  00014	ff 75 10	 push	 DWORD PTR __Dest$[ebp]
  00017	ff 15 00 00 00
	00		 call	 DWORD PTR __imp__memmove
  0001d	83 c4 0c	 add	 esp, 12			; 0000000cH
  00020	03 c6		 add	 eax, esi
  00022	5e		 pop	 esi

; 472  : 	}

  00023	5d		 pop	 ebp
  00024	c3		 ret	 0
??$_Uninitialized_move@PAPAVioBaseChar@@PAPAV1@V?$allocator@PAVioBaseChar@@@std@@@std@@YAPAPAVioBaseChar@@PAPAV1@00AAV?$allocator@PAVioBaseChar@@@0@@Z ENDP ; std::_Uninitialized_move<ioBaseChar * *,ioBaseChar * *,std::allocator<ioBaseChar *> >
_TEXT	ENDS
PUBLIC	??B?$CEncrypt@M@@QAEMXZ				; CEncrypt<float>::operator float
; Function compile flags: /Ogsp
; File d:\lost saga for developer\youtube\tutorial\source\src\lsclient\encryptvalue.h
;	COMDAT ??B?$CEncrypt@M@@QAEMXZ
_TEXT	SEGMENT
_value$ = -4						; size = 4
??B?$CEncrypt@M@@QAEMXZ PROC				; CEncrypt<float>::operator float, COMDAT
; _this$ = ecx

; 134  : 	{

  00000	55		 push	 ebp
  00001	8b ec		 mov	 ebp, esp
  00003	51		 push	 ecx

; 135  : 		type value;
; 136  : 		DecryptValueToPool(&value);

  00004	8d 45 fc	 lea	 eax, DWORD PTR _value$[ebp]
  00007	50		 push	 eax
  00008	e8 00 00 00 00	 call	 ?DecryptValueToPool@?$CEncrypt@M@@QAEXPAM@Z ; CEncrypt<float>::DecryptValueToPool

; 137  : 
; 138  : #ifdef _NOTUSE
; 139  : 		Debug();
; 140  : #endif
; 141  : 		return value;

  0000d	d9 45 fc	 fld	 DWORD PTR _value$[ebp]

; 142  : 	}

  00010	c9		 leave
  00011	c3		 ret	 0
??B?$CEncrypt@M@@QAEMXZ ENDP				; CEncrypt<float>::operator float
_TEXT	ENDS
PUBLIC	??4?$CEncrypt@M@@QAEMM@Z			; CEncrypt<float>::operator=
; Function compile flags: /Ogsp
;	COMDAT ??4?$CEncrypt@M@@QAEMM@Z
_TEXT	SEGMENT
_value$ = 8						; size = 4
_inValue$ = 8						; size = 4
??4?$CEncrypt@M@@QAEMM@Z PROC				; CEncrypt<float>::operator=, COMDAT
; _this$ = ecx

; 1654 : 	{	

  00000	55		 push	 ebp
  00001	8b ec		 mov	 ebp, esp

; 1655 : 		type value = inValue;

  00003	d9 45 08	 fld	 DWORD PTR _inValue$[ebp]

; 1656 : 		EncryptValueToPool((char*)&value);

  00006	8d 45 08	 lea	 eax, DWORD PTR _value$[ebp]
  00009	50		 push	 eax
  0000a	d9 5d 08	 fstp	 DWORD PTR _value$[ebp]
  0000d	e8 00 00 00 00	 call	 ?EncryptValueToPool@?$CEncrypt@M@@AAEXPBD@Z ; CEncrypt<float>::EncryptValueToPool

; 1657 : #ifdef _NOTUSE
; 1658 : 		m_value = inValue;
; 1659 : 		Debug();
; 1660 : #endif
; 1661 : 		return value;

  00012	d9 45 08	 fld	 DWORD PTR _value$[ebp]

; 1662 : 	}

  00015	5d		 pop	 ebp
  00016	c2 04 00	 ret	 4
??4?$CEncrypt@M@@QAEMM@Z ENDP				; CEncrypt<float>::operator=
_TEXT	ENDS
PUBLIC	??Z?$CEncrypt@M@@QAEAAMABM@Z			; CEncrypt<float>::operator-=
; Function compile flags: /Ogsp
;	COMDAT ??Z?$CEncrypt@M@@QAEAAMABM@Z
_TEXT	SEGMENT
_value$ = -4						; size = 4
_inValue$ = 8						; size = 4
??Z?$CEncrypt@M@@QAEAAMABM@Z PROC			; CEncrypt<float>::operator-=, COMDAT
; _this$ = ecx

; 1728 : 	{

  00000	55		 push	 ebp
  00001	8b ec		 mov	 ebp, esp
  00003	51		 push	 ecx
  00004	56		 push	 esi

; 1729 : 		type value;
; 1730 : 		DecryptValueToPool(&value);

  00005	8d 45 fc	 lea	 eax, DWORD PTR _value$[ebp]
  00008	50		 push	 eax
  00009	8b f1		 mov	 esi, ecx
  0000b	e8 00 00 00 00	 call	 ?DecryptValueToPool@?$CEncrypt@M@@QAEXPAM@Z ; CEncrypt<float>::DecryptValueToPool

; 1731 : 		value -= inValue;

  00010	8b 45 08	 mov	 eax, DWORD PTR _inValue$[ebp]
  00013	f3 0f 10 45 fc	 movss	 xmm0, DWORD PTR _value$[ebp]
  00018	f3 0f 10 08	 movss	 xmm1, DWORD PTR [eax]
  0001c	0f 5a c0	 cvtps2pd xmm0, xmm0
  0001f	0f 5a c9	 cvtps2pd xmm1, xmm1

; 1732 : 		EncryptValueToPool((char*)&value);

  00022	8d 45 fc	 lea	 eax, DWORD PTR _value$[ebp]
  00025	f2 0f 5c c1	 subsd	 xmm0, xmm1
  00029	66 0f 5a c0	 cvtpd2ps xmm0, xmm0
  0002d	50		 push	 eax
  0002e	8b ce		 mov	 ecx, esi
  00030	f3 0f 11 45 fc	 movss	 DWORD PTR _value$[ebp], xmm0
  00035	e8 00 00 00 00	 call	 ?EncryptValueToPool@?$CEncrypt@M@@AAEXPBD@Z ; CEncrypt<float>::EncryptValueToPool

; 1733 : #ifdef _NOTUSE
; 1734 : 		m_value -= inValue;
; 1735 : 		Debug();
; 1736 : #endif
; 1737 : 		return value;

  0003a	8d 45 fc	 lea	 eax, DWORD PTR _value$[ebp]
  0003d	5e		 pop	 esi

; 1738 : 	} 

  0003e	c9		 leave
  0003f	c2 04 00	 ret	 4
??Z?$CEncrypt@M@@QAEAAMABM@Z ENDP			; CEncrypt<float>::operator-=
_TEXT	ENDS
PUBLIC	??B?$CEncrypt@_N@@QAE_NXZ			; CEncrypt<bool>::operator bool
; Function compile flags: /Ogsp
;	COMDAT ??B?$CEncrypt@_N@@QAE_NXZ
_TEXT	SEGMENT
_value$ = -1						; size = 1
??B?$CEncrypt@_N@@QAE_NXZ PROC				; CEncrypt<bool>::operator bool, COMDAT
; _this$ = ecx

; 134  : 	{

  00000	55		 push	 ebp
  00001	8b ec		 mov	 ebp, esp
  00003	51		 push	 ecx

; 135  : 		type value;
; 136  : 		DecryptValueToPool(&value);

  00004	8d 45 ff	 lea	 eax, DWORD PTR _value$[ebp]
  00007	50		 push	 eax
  00008	e8 00 00 00 00	 call	 ?DecryptValueToPool@?$CEncrypt@_N@@QAEXPA_N@Z ; CEncrypt<bool>::DecryptValueToPool

; 137  : 
; 138  : #ifdef _NOTUSE
; 139  : 		Debug();
; 140  : #endif
; 141  : 		return value;

  0000d	8a 45 ff	 mov	 al, BYTE PTR _value$[ebp]

; 142  : 	}

  00010	c9		 leave
  00011	c3		 ret	 0
??B?$CEncrypt@_N@@QAE_NXZ ENDP				; CEncrypt<bool>::operator bool
_TEXT	ENDS
PUBLIC	??B?$CEncrypt@_N@@QBE_NXZ			; CEncrypt<bool>::operator bool
; Function compile flags: /Ogsp
;	COMDAT ??B?$CEncrypt@_N@@QBE_NXZ
_TEXT	SEGMENT
_value$ = -1						; size = 1
??B?$CEncrypt@_N@@QBE_NXZ PROC				; CEncrypt<bool>::operator bool, COMDAT
; _this$ = ecx

; 145  : 	{

  00000	55		 push	 ebp
  00001	8b ec		 mov	 ebp, esp
  00003	51		 push	 ecx

; 146  : 		//UJ 130829, const    --start
; 147  : 		type value;
; 148  : 		CEncrypt<type>* pThis = const_cast<CEncrypt<type>*>(this);
; 149  : 		pThis->DecryptValueToPool(&value);

  00004	8d 45 ff	 lea	 eax, DWORD PTR _value$[ebp]
  00007	50		 push	 eax
  00008	e8 00 00 00 00	 call	 ?DecryptValueToPool@?$CEncrypt@_N@@QAEXPA_N@Z ; CEncrypt<bool>::DecryptValueToPool

; 150  : 		//// const DecryptValueToPool     .
; 151  :  		//type value;
; 152  : 		//char szTempMem[MAX_ENCRYPT];
; 153  : 		//m_RC5.DecryptByte( m_MemPool, szTempMem, max(m_ValueSize, DEFAULT_ENCRYPT) );
; 154  : 		//memcpy( &value, szTempMem, m_ValueSize );
; 155  : 		//UJ --end
; 156  : 
; 157  : #ifdef _NOTUSE
; 158  : 		Debug();
; 159  : #endif
; 160  : 		return value;

  0000d	8a 45 ff	 mov	 al, BYTE PTR _value$[ebp]

; 161  : 	}

  00010	c9		 leave
  00011	c3		 ret	 0
??B?$CEncrypt@_N@@QBE_NXZ ENDP				; CEncrypt<bool>::operator bool
_TEXT	ENDS
PUBLIC	??B?$CEncrypt@W4TeamType@@@@QBE?AW4TeamType@@XZ	; CEncrypt<enum TeamType>::operator enum TeamType
; Function compile flags: /Ogsp
;	COMDAT ??B?$CEncrypt@W4TeamType@@@@QBE?AW4TeamType@@XZ
_TEXT	SEGMENT
_value$ = -4						; size = 4
??B?$CEncrypt@W4TeamType@@@@QBE?AW4TeamType@@XZ PROC	; CEncrypt<enum TeamType>::operator enum TeamType, COMDAT
; _this$ = ecx

; 145  : 	{

  00000	55		 push	 ebp
  00001	8b ec		 mov	 ebp, esp
  00003	51		 push	 ecx

; 146  : 		//UJ 130829, const    --start
; 147  : 		type value;
; 148  : 		CEncrypt<type>* pThis = const_cast<CEncrypt<type>*>(this);
; 149  : 		pThis->DecryptValueToPool(&value);

  00004	8d 45 fc	 lea	 eax, DWORD PTR _value$[ebp]
  00007	50		 push	 eax
  00008	e8 00 00 00 00	 call	 ?DecryptValueToPool@?$CEncrypt@W4TeamType@@@@QAEXPAW4TeamType@@@Z ; CEncrypt<enum TeamType>::DecryptValueToPool

; 150  : 		//// const DecryptValueToPool     .
; 151  :  		//type value;
; 152  : 		//char szTempMem[MAX_ENCRYPT];
; 153  : 		//m_RC5.DecryptByte( m_MemPool, szTempMem, max(m_ValueSize, DEFAULT_ENCRYPT) );
; 154  : 		//memcpy( &value, szTempMem, m_ValueSize );
; 155  : 		//UJ --end
; 156  : 
; 157  : #ifdef _NOTUSE
; 158  : 		Debug();
; 159  : #endif
; 160  : 		return value;

  0000d	8b 45 fc	 mov	 eax, DWORD PTR _value$[ebp]

; 161  : 	}

  00010	c9		 leave
  00011	c3		 ret	 0
??B?$CEncrypt@W4TeamType@@@@QBE?AW4TeamType@@XZ ENDP	; CEncrypt<enum TeamType>::operator enum TeamType
_TEXT	ENDS
PUBLIC	??4?$CEncrypt@W4TeamType@@@@QAE?AW4TeamType@@W41@@Z ; CEncrypt<enum TeamType>::operator=
; Function compile flags: /Ogsp
;	COMDAT ??4?$CEncrypt@W4TeamType@@@@QAE?AW4TeamType@@W41@@Z
_TEXT	SEGMENT
_value$ = 8						; size = 4
_inValue$ = 8						; size = 4
??4?$CEncrypt@W4TeamType@@@@QAE?AW4TeamType@@W41@@Z PROC ; CEncrypt<enum TeamType>::operator=, COMDAT
; _this$ = ecx

; 2965 : 	{

  00000	55		 push	 ebp
  00001	8b ec		 mov	 ebp, esp

; 2966 : 		type value = inValue;

  00003	8b 45 08	 mov	 eax, DWORD PTR _inValue$[ebp]
  00006	89 45 08	 mov	 DWORD PTR _value$[ebp], eax

; 2967 : 		EncryptValueToPool((char*)&value);

  00009	8d 45 08	 lea	 eax, DWORD PTR _value$[ebp]
  0000c	50		 push	 eax
  0000d	e8 00 00 00 00	 call	 ?EncryptValueToPool@?$CEncrypt@W4TeamType@@@@AAEXPBD@Z ; CEncrypt<enum TeamType>::EncryptValueToPool

; 2968 : #ifdef _NOTUSE
; 2969 : 		m_value = inValue;
; 2970 : 		Debug();
; 2971 : #endif
; 2972 : 		return value;

  00012	8b 45 08	 mov	 eax, DWORD PTR _value$[ebp]

; 2973 : 	}

  00015	5d		 pop	 ebp
  00016	c2 04 00	 ret	 4
??4?$CEncrypt@W4TeamType@@@@QAE?AW4TeamType@@W41@@Z ENDP ; CEncrypt<enum TeamType>::operator=
_TEXT	ENDS
PUBLIC	__real@3f800000
PUBLIC	__real@3ff0000000000000
PUBLIC	_rkLoader$GSCopy$
PUBLIC	__$ArrayPad$
PUBLIC	?LoadInitProperty@ioDummyWarpMine@@IAEXAAVioINILoader@@@Z ; ioDummyWarpMine::LoadInitProperty
;	COMDAT __real@3f800000
; File d:\lost saga for developer\youtube\tutorial\source\src\lsclient\stringprotect.h
CONST	SEGMENT
__real@3f800000 DD 03f800000r			; 1
CONST	ENDS
;	COMDAT __real@3ff0000000000000
CONST	SEGMENT
__real@3ff0000000000000 DQ 03ff0000000000000r	; 1
; Function compile flags: /Ogsp
; File d:\lost saga for developer\youtube\tutorial\source\src\lsclient\iodummywarpmine.cpp
CONST	ENDS
;	COMDAT ?LoadInitProperty@ioDummyWarpMine@@IAEXAAVioINILoader@@@Z
_TEXT	SEGMENT
tv2762 = -304						; size = 4
tv2245 = -304						; size = 4
_rkLoader$GSCopy$ = -300				; size = 4
_szBuf$ = -296						; size = 260
__k$556203 = -36					; size = 26
__k$556078 = -36					; size = 26
__k$555940 = -36					; size = 26
__k$556938 = -32					; size = 19
__k$556563 = -32					; size = 20
__k$556313 = -32					; size = 19
__k$555813 = -32					; size = 22
__k$555688 = -32					; size = 20
__k$555188 = -32					; size = 19
__k$557188 = -28					; size = 16
__k$557084 = -28					; size = 17
__k$556813 = -28					; size = 17
__k$556688 = -28					; size = 18
__k$556438 = -28					; size = 15
__k$555563 = -28					; size = 17
__k$557313 = -24					; size = 14
__k$555438 = -24					; size = 13
__k$555313 = -24					; size = 13
__$ArrayPad$ = -4					; size = 4
_rkLoader$ = 8						; size = 4
?LoadInitProperty@ioDummyWarpMine@@IAEXAAVioINILoader@@@Z PROC ; ioDummyWarpMine::LoadInitProperty, COMDAT
; _this$ = ecx

; 31   : {

  00000	55		 push	 ebp
  00001	8b ec		 mov	 ebp, esp
  00003	81 ec 30 01 00
	00		 sub	 esp, 304		; 00000130H
  00009	a1 00 00 00 00	 mov	 eax, DWORD PTR ___security_cookie
  0000e	33 c5		 xor	 eax, ebp
  00010	89 45 fc	 mov	 DWORD PTR __$ArrayPad$[ebp], eax

; 40   : 
; 41   : 	m_nExplosionWeaponIndex = rkLoader.LoadInt_e( "explosion_attack_type", NO_WEAPON_ATTRIBUTE );

  00013	8b 45 08	 mov	 eax, DWORD PTR _rkLoader$[ebp]
  00016	53		 push	 ebx
  00017	56		 push	 esi
  00018	57		 push	 edi
  00019	33 db		 xor	 ebx, ebx
  0001b	6a 04		 push	 4
  0001d	8b f1		 mov	 esi, ecx
  0001f	89 85 d4 fe ff
	ff		 mov	 DWORD PTR _rkLoader$GSCopy$[ebp], eax
  00025	c7 45 e0 80 85
	85 8f		 mov	 DWORD PTR __k$555188[ebp], -1887074944 ; 8f858580H
  0002c	c7 45 e4 b2 9a
	82 99		 mov	 DWORD PTR __k$555188[ebp+4], -1719493966 ; 99829ab2H
  00033	c7 45 e8 84 8e
	87 8f		 mov	 DWORD PTR __k$555188[ebp+8], -1886941564 ; 8f878e84H
  0003a	c7 45 ec b2 9e
	8a 84		 mov	 DWORD PTR __k$555188[ebp+12], -2071290190 ; 848a9eb2H
  00041	66 c7 45 f0 8a
	89		 mov	 WORD PTR __k$555188[ebp+16], 35210 ; 0000898aH
  00047	8d 45 e0	 lea	 eax, DWORD PTR __k$555188[ebp]
  0004a	88 5d f2	 mov	 BYTE PTR __k$555188[ebp+18], bl
  0004d	59		 pop	 ecx
  0004e	bf ed ec eb ea	 mov	 edi, -353637139		; eaebecedH
$LL110@LoadInitPr:

; 32   : 	m_fVisibleRange = rkLoader.LoadFloat_e( "mine_visible_range", 0.0f );

  00053	31 38		 xor	 DWORD PTR [eax], edi
  00055	83 c0 04	 add	 eax, 4
  00058	49		 dec	 ecx
  00059	75 f8		 jne	 SHORT $LL110@LoadInitPr
  0005b	6a 10		 push	 16			; 00000010H
  0005d	58		 pop	 eax
$LL107@LoadInitPr:
  0005e	8b c8		 mov	 ecx, eax
  00060	81 e1 03 00 00
	80		 and	 ecx, -2147483645	; 80000003H
  00066	79 05		 jns	 SHORT $LN1987@LoadInitPr
  00068	49		 dec	 ecx
  00069	83 c9 fc	 or	 ecx, -4			; fffffffcH
  0006c	41		 inc	 ecx
$LN1987@LoadInitPr:
  0006d	b2 ed		 mov	 dl, -19			; ffffffedH
  0006f	2a d1		 sub	 dl, cl
  00071	30 54 05 e0	 xor	 BYTE PTR __k$555188[ebp+eax], dl
  00075	40		 inc	 eax
  00076	83 f8 12	 cmp	 eax, 18			; 00000012H
  00079	7c e3		 jl	 SHORT $LL107@LoadInitPr
  0007b	0f 57 c0	 xorps	 xmm0, xmm0
  0007e	51		 push	 ecx
  0007f	8b 8d d4 fe ff
	ff		 mov	 ecx, DWORD PTR _rkLoader$GSCopy$[ebp]
  00085	8d 45 e0	 lea	 eax, DWORD PTR __k$555188[ebp]
  00088	f3 0f 11 04 24	 movss	 DWORD PTR [esp], xmm0
  0008d	50		 push	 eax
  0008e	ff 15 00 00 00
	00		 call	 DWORD PTR __imp_?LoadFloat@ioINILoader@@QAEMPBDM@Z
  00094	d9 9e 84 14 00
	00		 fstp	 DWORD PTR [esi+5252]
  0009a	6a 03		 push	 3

; 33   : 
; 34   : 	m_fColRange = rkLoader.LoadFloat_e( "target_range", 0.0f );

  0009c	c7 45 e8 99 8d
	99 8d		 mov	 DWORD PTR __k$555313[ebp], -1919316583 ; 8d998d99H
  000a3	c7 45 ec 88 98
	b4 98		 mov	 DWORD PTR __k$555313[ebp+4], -1732994936 ; 98b49888H
  000aa	c7 45 f0 8c 82
	8c 8f		 mov	 DWORD PTR __k$555313[ebp+8], -1886616948 ; 8f8c828cH
  000b1	8d 45 e8	 lea	 eax, DWORD PTR __k$555313[ebp]
  000b4	88 5d f4	 mov	 BYTE PTR __k$555313[ebp+12], bl
  000b7	59		 pop	 ecx
$LL216@LoadInitPr:
  000b8	31 38		 xor	 DWORD PTR [eax], edi
  000ba	83 c0 04	 add	 eax, 4
  000bd	49		 dec	 ecx
  000be	75 f8		 jne	 SHORT $LL216@LoadInitPr
  000c0	0f 57 c0	 xorps	 xmm0, xmm0
  000c3	51		 push	 ecx
  000c4	8b 8d d4 fe ff
	ff		 mov	 ecx, DWORD PTR _rkLoader$GSCopy$[ebp]
  000ca	8d 45 e8	 lea	 eax, DWORD PTR __k$555313[ebp]
  000cd	f3 0f 11 04 24	 movss	 DWORD PTR [esp], xmm0
  000d2	50		 push	 eax
  000d3	ff 15 00 00 00
	00		 call	 DWORD PTR __imp_?LoadFloat@ioINILoader@@QAEMPBDM@Z
  000d9	d9 9e 8c 14 00
	00		 fstp	 DWORD PTR [esi+5260]
  000df	6a 03		 push	 3

; 35   : 	m_fColAngle = rkLoader.LoadFloat_e( "target_angle", 0.0f );

  000e1	c7 45 e8 99 8d
	99 8d		 mov	 DWORD PTR __k$555438[ebp], -1919316583 ; 8d998d99H
  000e8	c7 45 ec 88 98
	b4 8b		 mov	 DWORD PTR __k$555438[ebp+4], -1951098744 ; 8bb49888H
  000ef	c7 45 f0 83 8b
	87 8f		 mov	 DWORD PTR __k$555438[ebp+8], -1886942333 ; 8f878b83H
  000f6	8d 45 e8	 lea	 eax, DWORD PTR __k$555438[ebp]
  000f9	88 5d f4	 mov	 BYTE PTR __k$555438[ebp+12], bl
  000fc	59		 pop	 ecx
$LL322@LoadInitPr:
  000fd	31 38		 xor	 DWORD PTR [eax], edi
  000ff	83 c0 04	 add	 eax, 4
  00102	49		 dec	 ecx
  00103	75 f8		 jne	 SHORT $LL322@LoadInitPr
  00105	0f 57 c0	 xorps	 xmm0, xmm0
  00108	51		 push	 ecx
  00109	8b 8d d4 fe ff
	ff		 mov	 ecx, DWORD PTR _rkLoader$GSCopy$[ebp]
  0010f	8d 45 e8	 lea	 eax, DWORD PTR __k$555438[ebp]
  00112	f3 0f 11 04 24	 movss	 DWORD PTR [esp], xmm0
  00117	50		 push	 eax
  00118	ff 15 00 00 00
	00		 call	 DWORD PTR __imp_?LoadFloat@ioINILoader@@QAEMPBDM@Z
  0011e	d9 9e 90 14 00
	00		 fstp	 DWORD PTR [esi+5264]
  00124	6a 04		 push	 4

; 36   : 	m_fColUpHeight = rkLoader.LoadFloat_e( "target_up_height", 0.0f );

  00126	c7 45 e4 99 8d
	99 8d		 mov	 DWORD PTR __k$555563[ebp], -1919316583 ; 8d998d99H
  0012d	c7 45 e8 88 98
	b4 9f		 mov	 DWORD PTR __k$555563[ebp+4], -1615554424 ; 9fb49888H
  00134	c7 45 ec 9d b3
	83 8f		 mov	 DWORD PTR __k$555563[ebp+8], -1887194211 ; 8f83b39dH
  0013b	c7 45 f0 84 8b
	83 9e		 mov	 DWORD PTR __k$555563[ebp+12], -1635546236 ; 9e838b84H
  00142	8d 45 e4	 lea	 eax, DWORD PTR __k$555563[ebp]
  00145	88 5d f4	 mov	 BYTE PTR __k$555563[ebp+16], bl
  00148	59		 pop	 ecx
$LL428@LoadInitPr:
  00149	31 38		 xor	 DWORD PTR [eax], edi
  0014b	83 c0 04	 add	 eax, 4
  0014e	49		 dec	 ecx
  0014f	75 f8		 jne	 SHORT $LL428@LoadInitPr
  00151	0f 57 c0	 xorps	 xmm0, xmm0
  00154	51		 push	 ecx
  00155	8b 8d d4 fe ff
	ff		 mov	 ecx, DWORD PTR _rkLoader$GSCopy$[ebp]
  0015b	8d 45 e4	 lea	 eax, DWORD PTR __k$555563[ebp]
  0015e	f3 0f 11 04 24	 movss	 DWORD PTR [esp], xmm0
  00163	50		 push	 eax
  00164	ff 15 00 00 00
	00		 call	 DWORD PTR __imp_?LoadFloat@ioINILoader@@QAEMPBDM@Z
  0016a	d9 9d d0 fe ff
	ff		 fstp	 DWORD PTR tv2245[ebp]
  00170	d9 85 d0 fe ff
	ff		 fld	 DWORD PTR tv2245[ebp]
  00176	d9 9e 94 14 00
	00		 fstp	 DWORD PTR [esi+5268]

; 37   : 	m_fColUpHeight = max( 1.0f, m_fColUpHeight );

  0017c	d9 85 d0 fe ff
	ff		 fld	 DWORD PTR tv2245[ebp]
  00182	d9 e8		 fld1
  00184	df f1		 fcomip	 ST(1)
  00186	dd d8		 fstp	 ST(0)
  00188	76 0a		 jbe	 SHORT $LN3@LoadInitPr
  0018a	f3 0f 10 05 00
	00 00 00	 movss	 xmm0, DWORD PTR __real@3f800000
  00192	eb 08		 jmp	 SHORT $LN4@LoadInitPr
$LN3@LoadInitPr:
  00194	f3 0f 10 85 d0
	fe ff ff	 movss	 xmm0, DWORD PTR tv2245[ebp]
$LN4@LoadInitPr:
  0019c	6a 04		 push	 4
  0019e	f3 0f 11 86 94
	14 00 00	 movss	 DWORD PTR [esi+5268], xmm0

; 38   : 	m_fColUnderHeight = rkLoader.LoadFloat_e( "target_under_height", 0.0f );

  001a6	c7 45 e0 99 8d
	99 8d		 mov	 DWORD PTR __k$555688[ebp], -1919316583 ; 8d998d99H
  001ad	c7 45 e4 88 98
	b4 9f		 mov	 DWORD PTR __k$555688[ebp+4], -1615554424 ; 9fb49888H
  001b4	c7 45 e8 83 88
	8e 98		 mov	 DWORD PTR __k$555688[ebp+8], -1735489405 ; 988e8883H
  001bb	c7 45 ec b2 84
	8e 83		 mov	 DWORD PTR __k$555688[ebp+12], -2087811918 ; 838e84b2H
  001c2	8d 45 e0	 lea	 eax, DWORD PTR __k$555688[ebp]
  001c5	c7 45 f0 8a 84
	9f 00		 mov	 DWORD PTR __k$555688[ebp+16], 10454154 ; 009f848aH
  001cc	59		 pop	 ecx
$LL534@LoadInitPr:
  001cd	31 38		 xor	 DWORD PTR [eax], edi
  001cf	83 c0 04	 add	 eax, 4
  001d2	49		 dec	 ecx
  001d3	75 f8		 jne	 SHORT $LL534@LoadInitPr
  001d5	6a 10		 push	 16			; 00000010H
  001d7	58		 pop	 eax
$LL531@LoadInitPr:
  001d8	8b c8		 mov	 ecx, eax
  001da	81 e1 03 00 00
	80		 and	 ecx, -2147483645	; 80000003H
  001e0	79 05		 jns	 SHORT $LN1988@LoadInitPr
  001e2	49		 dec	 ecx
  001e3	83 c9 fc	 or	 ecx, -4			; fffffffcH
  001e6	41		 inc	 ecx
$LN1988@LoadInitPr:
  001e7	b2 ed		 mov	 dl, -19			; ffffffedH
  001e9	2a d1		 sub	 dl, cl
  001eb	30 54 05 e0	 xor	 BYTE PTR __k$555688[ebp+eax], dl
  001ef	40		 inc	 eax
  001f0	83 f8 13	 cmp	 eax, 19			; 00000013H
  001f3	7c e3		 jl	 SHORT $LL531@LoadInitPr
  001f5	0f 57 c0	 xorps	 xmm0, xmm0
  001f8	51		 push	 ecx
  001f9	8b 8d d4 fe ff
	ff		 mov	 ecx, DWORD PTR _rkLoader$GSCopy$[ebp]
  001ff	8d 45 e0	 lea	 eax, DWORD PTR __k$555688[ebp]
  00202	f3 0f 11 04 24	 movss	 DWORD PTR [esp], xmm0
  00207	50		 push	 eax
  00208	ff 15 00 00 00
	00		 call	 DWORD PTR __imp_?LoadFloat@ioINILoader@@QAEMPBDM@Z
  0020e	d9 9d d0 fe ff
	ff		 fstp	 DWORD PTR tv2762[ebp]
  00214	d9 85 d0 fe ff
	ff		 fld	 DWORD PTR tv2762[ebp]
  0021a	d9 9e 98 14 00
	00		 fstp	 DWORD PTR [esi+5272]

; 39   : 	m_fColUnderHeight = max( 1.0f, m_fColUnderHeight );

  00220	d9 85 d0 fe ff
	ff		 fld	 DWORD PTR tv2762[ebp]
  00226	d9 e8		 fld1
  00228	df f1		 fcomip	 ST(1)
  0022a	dd d8		 fstp	 ST(0)
  0022c	76 0a		 jbe	 SHORT $LN5@LoadInitPr
  0022e	f3 0f 10 05 00
	00 00 00	 movss	 xmm0, DWORD PTR __real@3f800000
  00236	eb 08		 jmp	 SHORT $LN6@LoadInitPr
$LN5@LoadInitPr:
  00238	f3 0f 10 85 d0
	fe ff ff	 movss	 xmm0, DWORD PTR tv2762[ebp]
$LN6@LoadInitPr:
  00240	6a 05		 push	 5
  00242	f3 0f 11 86 98
	14 00 00	 movss	 DWORD PTR [esi+5272], xmm0

; 40   : 
; 41   : 	m_nExplosionWeaponIndex = rkLoader.LoadInt_e( "explosion_attack_type", NO_WEAPON_ATTRIBUTE );

  0024a	c7 45 e0 88 94
	9b 86		 mov	 DWORD PTR __k$555813[ebp], -2036624248 ; 869b9488H
  00251	c7 45 e4 82 9f
	82 85		 mov	 DWORD PTR __k$555813[ebp+4], -2055037054 ; 85829f82H
  00258	c7 45 e8 83 b3
	8a 9e		 mov	 DWORD PTR __k$555813[ebp+8], -1635077245 ; 9e8ab383H
  0025f	c7 45 ec 99 8d
	88 81		 mov	 DWORD PTR __k$555813[ebp+12], -2121757287 ; 81888d99H
  00266	c7 45 f0 b2 98
	92 9a		 mov	 DWORD PTR __k$555813[ebp+16], -1701668686 ; 9a9298b2H
  0026d	8d 45 e0	 lea	 eax, DWORD PTR __k$555813[ebp]
  00270	66 c7 45 f4 88
	00		 mov	 WORD PTR __k$555813[ebp+20], 136 ; 00000088H
  00276	59		 pop	 ecx
$LL640@LoadInitPr:
  00277	31 38		 xor	 DWORD PTR [eax], edi
  00279	83 c0 04	 add	 eax, 4
  0027c	49		 dec	 ecx
  0027d	75 f8		 jne	 SHORT $LL640@LoadInitPr
  0027f	8b 8d d4 fe ff
	ff		 mov	 ecx, DWORD PTR _rkLoader$GSCopy$[ebp]
  00285	8b 3d 00 00 00
	00		 mov	 edi, DWORD PTR __imp_?LoadInt@ioINILoader@@QAEHPBDH@Z
  0028b	80 75 f4 ed	 xor	 BYTE PTR __k$555813[ebp+20], -19 ; ffffffedH
  0028f	53		 push	 ebx
  00290	8d 45 e0	 lea	 eax, DWORD PTR __k$555813[ebp]
  00293	50		 push	 eax
  00294	ff d7		 call	 edi
  00296	6a 06		 push	 6
  00298	89 86 a8 14 00
	00		 mov	 DWORD PTR [esi+5288], eax

; 42   : 
; 43   : 	//
; 44   : 	m_vExplosionWeaponOffset.x = rkLoader.LoadFloat_e( "explosion_attack_offset_x", 0.0f );

  0029e	c7 45 dc 88 94
	9b 86		 mov	 DWORD PTR __k$555940[ebp], -2036624248 ; 869b9488H
  002a5	c7 45 e0 82 9f
	82 85		 mov	 DWORD PTR __k$555940[ebp+4], -2055037054 ; 85829f82H
  002ac	c7 45 e4 83 b3
	8a 9e		 mov	 DWORD PTR __k$555940[ebp+8], -1635077245 ; 9e8ab383H
  002b3	c7 45 e8 99 8d
	88 81		 mov	 DWORD PTR __k$555940[ebp+12], -2121757287 ; 81888d99H
  002ba	c7 45 ec b2 83
	8d 8c		 mov	 DWORD PTR __k$555940[ebp+16], -1936882766 ; 8c8d83b2H
  002c1	c7 45 f0 9e 89
	9f b5		 mov	 DWORD PTR __k$555940[ebp+20], -1247835746 ; b59f899eH
  002c8	8d 45 dc	 lea	 eax, DWORD PTR __k$555940[ebp]
  002cb	66 c7 45 f4 95
	00		 mov	 WORD PTR __k$555940[ebp+24], 149 ; 00000095H
  002d1	59		 pop	 ecx
$LL746@LoadInitPr:
  002d2	81 30 ed ec eb
	ea		 xor	 DWORD PTR [eax], -353637139 ; eaebecedH
  002d8	83 c0 04	 add	 eax, 4
  002db	49		 dec	 ecx
  002dc	75 f4		 jne	 SHORT $LL746@LoadInitPr
  002de	0f 57 c0	 xorps	 xmm0, xmm0
  002e1	80 75 f4 ed	 xor	 BYTE PTR __k$555940[ebp+24], -19 ; ffffffedH
  002e5	51		 push	 ecx
  002e6	8b 8d d4 fe ff
	ff		 mov	 ecx, DWORD PTR _rkLoader$GSCopy$[ebp]
  002ec	8d 45 dc	 lea	 eax, DWORD PTR __k$555940[ebp]
  002ef	f3 0f 11 04 24	 movss	 DWORD PTR [esp], xmm0
  002f4	50		 push	 eax
  002f5	ff 15 00 00 00
	00		 call	 DWORD PTR __imp_?LoadFloat@ioINILoader@@QAEMPBDM@Z
  002fb	d9 9e 9c 14 00
	00		 fstp	 DWORD PTR [esi+5276]
  00301	6a 06		 push	 6

; 45   : 	m_vExplosionWeaponOffset.y = rkLoader.LoadFloat_e( "explosion_attack_offset_y", 0.0f );

  00303	c7 45 dc 88 94
	9b 86		 mov	 DWORD PTR __k$556078[ebp], -2036624248 ; 869b9488H
  0030a	c7 45 e0 82 9f
	82 85		 mov	 DWORD PTR __k$556078[ebp+4], -2055037054 ; 85829f82H
  00311	c7 45 e4 83 b3
	8a 9e		 mov	 DWORD PTR __k$556078[ebp+8], -1635077245 ; 9e8ab383H
  00318	c7 45 e8 99 8d
	88 81		 mov	 DWORD PTR __k$556078[ebp+12], -2121757287 ; 81888d99H
  0031f	c7 45 ec b2 83
	8d 8c		 mov	 DWORD PTR __k$556078[ebp+16], -1936882766 ; 8c8d83b2H
  00326	c7 45 f0 9e 89
	9f b5		 mov	 DWORD PTR __k$556078[ebp+20], -1247835746 ; b59f899eH
  0032d	8d 45 dc	 lea	 eax, DWORD PTR __k$556078[ebp]
  00330	66 c7 45 f4 94
	00		 mov	 WORD PTR __k$556078[ebp+24], 148 ; 00000094H
  00336	59		 pop	 ecx
$LL852@LoadInitPr:
  00337	81 30 ed ec eb
	ea		 xor	 DWORD PTR [eax], -353637139 ; eaebecedH
  0033d	83 c0 04	 add	 eax, 4
  00340	49		 dec	 ecx
  00341	75 f4		 jne	 SHORT $LL852@LoadInitPr
  00343	0f 57 c0	 xorps	 xmm0, xmm0
  00346	80 75 f4 ed	 xor	 BYTE PTR __k$556078[ebp+24], -19 ; ffffffedH
  0034a	51		 push	 ecx
  0034b	8b 8d d4 fe ff
	ff		 mov	 ecx, DWORD PTR _rkLoader$GSCopy$[ebp]
  00351	8d 45 dc	 lea	 eax, DWORD PTR __k$556078[ebp]
  00354	f3 0f 11 04 24	 movss	 DWORD PTR [esp], xmm0
  00359	50		 push	 eax
  0035a	ff 15 00 00 00
	00		 call	 DWORD PTR __imp_?LoadFloat@ioINILoader@@QAEMPBDM@Z
  00360	d9 9e a0 14 00
	00		 fstp	 DWORD PTR [esi+5280]
  00366	6a 06		 push	 6

; 46   : 	m_vExplosionWeaponOffset.z = rkLoader.LoadFloat_e( "explosion_attack_offset_z", 0.0f );

  00368	c7 45 dc 88 94
	9b 86		 mov	 DWORD PTR __k$556203[ebp], -2036624248 ; 869b9488H
  0036f	c7 45 e0 82 9f
	82 85		 mov	 DWORD PTR __k$556203[ebp+4], -2055037054 ; 85829f82H
  00376	c7 45 e4 83 b3
	8a 9e		 mov	 DWORD PTR __k$556203[ebp+8], -1635077245 ; 9e8ab383H
  0037d	c7 45 e8 99 8d
	88 81		 mov	 DWORD PTR __k$556203[ebp+12], -2121757287 ; 81888d99H
  00384	c7 45 ec b2 83
	8d 8c		 mov	 DWORD PTR __k$556203[ebp+16], -1936882766 ; 8c8d83b2H
  0038b	c7 45 f0 9e 89
	9f b5		 mov	 DWORD PTR __k$556203[ebp+20], -1247835746 ; b59f899eH
  00392	8d 45 dc	 lea	 eax, DWORD PTR __k$556203[ebp]
  00395	66 c7 45 f4 97
	00		 mov	 WORD PTR __k$556203[ebp+24], 151 ; 00000097H
  0039b	59		 pop	 ecx
$LL958@LoadInitPr:
  0039c	81 30 ed ec eb
	ea		 xor	 DWORD PTR [eax], -353637139 ; eaebecedH
  003a2	83 c0 04	 add	 eax, 4
  003a5	49		 dec	 ecx
  003a6	75 f4		 jne	 SHORT $LL958@LoadInitPr
  003a8	0f 57 c0	 xorps	 xmm0, xmm0
  003ab	80 75 f4 ed	 xor	 BYTE PTR __k$556203[ebp+24], -19 ; ffffffedH
  003af	51		 push	 ecx
  003b0	8b 8d d4 fe ff
	ff		 mov	 ecx, DWORD PTR _rkLoader$GSCopy$[ebp]
  003b6	8d 45 dc	 lea	 eax, DWORD PTR __k$556203[ebp]
  003b9	f3 0f 11 04 24	 movss	 DWORD PTR [esp], xmm0
  003be	50		 push	 eax
  003bf	ff 15 00 00 00
	00		 call	 DWORD PTR __imp_?LoadFloat@ioINILoader@@QAEMPBDM@Z
  003c5	d9 9e a4 14 00
	00		 fstp	 DWORD PTR [esi+5284]
  003cb	6a 04		 push	 4

; 47   : 
; 48   : 	m_dwSensingTime = rkLoader.LoadInt_e( "sensing_delay_time", 0 );

  003cd	c7 45 e0 9e 89
	85 99		 mov	 DWORD PTR __k$556313[ebp], -1719301730 ; 9985899eH
  003d4	c7 45 e4 84 82
	8c b5		 mov	 DWORD PTR __k$556313[ebp+4], -1249082748 ; b58c8284H
  003db	c7 45 e8 89 89
	87 8b		 mov	 DWORD PTR __k$556313[ebp+8], -1954051703 ; 8b878989H
  003e2	c7 45 ec 94 b3
	9f 83		 mov	 DWORD PTR __k$556313[ebp+12], -2086685804 ; 839fb394H
  003e9	66 c7 45 f0 80
	89		 mov	 WORD PTR __k$556313[ebp+16], 35200 ; 00008980H
  003ef	8d 45 e0	 lea	 eax, DWORD PTR __k$556313[ebp]
  003f2	88 5d f2	 mov	 BYTE PTR __k$556313[ebp+18], bl
  003f5	59		 pop	 ecx
$LL1064@LoadInitPr:
  003f6	81 30 ed ec eb
	ea		 xor	 DWORD PTR [eax], -353637139 ; eaebecedH
  003fc	83 c0 04	 add	 eax, 4
  003ff	49		 dec	 ecx
  00400	75 f4		 jne	 SHORT $LL1064@LoadInitPr
  00402	6a 10		 push	 16			; 00000010H
  00404	58		 pop	 eax
$LL1061@LoadInitPr:
  00405	8b c8		 mov	 ecx, eax
  00407	81 e1 03 00 00
	80		 and	 ecx, -2147483645	; 80000003H
  0040d	79 05		 jns	 SHORT $LN1989@LoadInitPr
  0040f	49		 dec	 ecx
  00410	83 c9 fc	 or	 ecx, -4			; fffffffcH
  00413	41		 inc	 ecx
$LN1989@LoadInitPr:
  00414	b2 ed		 mov	 dl, -19			; ffffffedH
  00416	2a d1		 sub	 dl, cl
  00418	30 54 05 e0	 xor	 BYTE PTR __k$556313[ebp+eax], dl
  0041c	40		 inc	 eax
  0041d	83 f8 12	 cmp	 eax, 18			; 00000012H
  00420	7c e3		 jl	 SHORT $LL1061@LoadInitPr
  00422	8b 8d d4 fe ff
	ff		 mov	 ecx, DWORD PTR _rkLoader$GSCopy$[ebp]
  00428	53		 push	 ebx
  00429	8d 45 e0	 lea	 eax, DWORD PTR __k$556313[ebp]
  0042c	50		 push	 eax
  0042d	ff d7		 call	 edi
  0042f	6a 03		 push	 3
  00431	89 86 ac 14 00
	00		 mov	 DWORD PTR [esi+5292], eax

; 49   : 	m_dwEndDelayTime = rkLoader.LoadInt_e( "end_delay_time", 0);

  00437	c7 45 e4 88 82
	8f b5		 mov	 DWORD PTR __k$556438[ebp], -1248886136 ; b58f8288H
  0043e	c7 45 e8 89 89
	87 8b		 mov	 DWORD PTR __k$556438[ebp+4], -1954051703 ; 8b878989H
  00445	c7 45 ec 94 b3
	9f 83		 mov	 DWORD PTR __k$556438[ebp+8], -2086685804 ; 839fb394H
  0044c	66 c7 45 f0 80
	89		 mov	 WORD PTR __k$556438[ebp+12], 35200 ; 00008980H
  00452	8d 45 e4	 lea	 eax, DWORD PTR __k$556438[ebp]
  00455	88 5d f2	 mov	 BYTE PTR __k$556438[ebp+14], bl
  00458	59		 pop	 ecx
$LL1170@LoadInitPr:
  00459	81 30 ed ec eb
	ea		 xor	 DWORD PTR [eax], -353637139 ; eaebecedH
  0045f	83 c0 04	 add	 eax, 4
  00462	49		 dec	 ecx
  00463	75 f4		 jne	 SHORT $LL1170@LoadInitPr
  00465	6a 0c		 push	 12			; 0000000cH
  00467	58		 pop	 eax
$LL1167@LoadInitPr:
  00468	8b c8		 mov	 ecx, eax
  0046a	81 e1 03 00 00
	80		 and	 ecx, -2147483645	; 80000003H
  00470	79 05		 jns	 SHORT $LN1990@LoadInitPr
  00472	49		 dec	 ecx
  00473	83 c9 fc	 or	 ecx, -4			; fffffffcH
  00476	41		 inc	 ecx
$LN1990@LoadInitPr:
  00477	b2 ed		 mov	 dl, -19			; ffffffedH
  00479	2a d1		 sub	 dl, cl
  0047b	30 54 05 e4	 xor	 BYTE PTR __k$556438[ebp+eax], dl
  0047f	40		 inc	 eax
  00480	83 f8 0e	 cmp	 eax, 14			; 0000000eH
  00483	7c e3		 jl	 SHORT $LL1167@LoadInitPr
  00485	8b 8d d4 fe ff
	ff		 mov	 ecx, DWORD PTR _rkLoader$GSCopy$[ebp]
  0048b	53		 push	 ebx
  0048c	8d 45 e4	 lea	 eax, DWORD PTR __k$556438[ebp]
  0048f	50		 push	 eax
  00490	ff d7		 call	 edi
  00492	6a 04		 push	 4
  00494	89 86 bc 14 00
	00		 mov	 DWORD PTR [esi+5308], eax

; 50   : 	m_dwAutoExplosionTime = rkLoader.LoadInt_e( "auto_explosion_time", 0 );

  0049a	c7 45 e0 8c 99
	9f 85		 mov	 DWORD PTR __k$556563[ebp], -2053138036 ; 859f998cH
  004a1	c7 45 e4 b2 89
	93 9a		 mov	 DWORD PTR __k$556563[ebp+4], -1701606990 ; 9a9389b2H
  004a8	c7 45 e8 81 83
	98 83		 mov	 DWORD PTR __k$556563[ebp+8], -2087156863 ; 83988381H
  004af	c7 45 ec 82 82
	b4 9e		 mov	 DWORD PTR __k$556563[ebp+12], -1632337278 ; 9eb48282H
  004b6	8d 45 e0	 lea	 eax, DWORD PTR __k$556563[ebp]
  004b9	c7 45 f0 84 81
	8e 00		 mov	 DWORD PTR __k$556563[ebp+16], 9339268 ; 008e8184H
  004c0	59		 pop	 ecx
$LL1276@LoadInitPr:
  004c1	81 30 ed ec eb
	ea		 xor	 DWORD PTR [eax], -353637139 ; eaebecedH
  004c7	83 c0 04	 add	 eax, 4
  004ca	49		 dec	 ecx
  004cb	75 f4		 jne	 SHORT $LL1276@LoadInitPr
  004cd	6a 10		 push	 16			; 00000010H
  004cf	58		 pop	 eax
$LL1273@LoadInitPr:
  004d0	8b c8		 mov	 ecx, eax
  004d2	81 e1 03 00 00
	80		 and	 ecx, -2147483645	; 80000003H
  004d8	79 05		 jns	 SHORT $LN1991@LoadInitPr
  004da	49		 dec	 ecx
  004db	83 c9 fc	 or	 ecx, -4			; fffffffcH
  004de	41		 inc	 ecx
$LN1991@LoadInitPr:
  004df	b2 ed		 mov	 dl, -19			; ffffffedH
  004e1	2a d1		 sub	 dl, cl
  004e3	30 54 05 e0	 xor	 BYTE PTR __k$556563[ebp+eax], dl
  004e7	40		 inc	 eax
  004e8	83 f8 13	 cmp	 eax, 19			; 00000013H
  004eb	7c e3		 jl	 SHORT $LL1273@LoadInitPr
  004ed	8b 8d d4 fe ff
	ff		 mov	 ecx, DWORD PTR _rkLoader$GSCopy$[ebp]
  004f3	53		 push	 ebx
  004f4	8d 45 e0	 lea	 eax, DWORD PTR __k$556563[ebp]
  004f7	50		 push	 eax
  004f8	ff d7		 call	 edi
  004fa	6a 04		 push	 4
  004fc	89 86 b4 14 00
	00		 mov	 DWORD PTR [esi+5300], eax

; 51   : 
; 52   : 	m_bSetVisible = rkLoader.LoadBool_e( "set_visible_enemy", false );

  00502	c7 45 e4 9e 89
	9f b5		 mov	 DWORD PTR __k$556688[ebp], -1247835746 ; b59f899eH
  00509	c7 45 e8 9b 85
	98 83		 mov	 DWORD PTR __k$556688[ebp+4], -2087156325 ; 8398859bH
  00510	c7 45 ec 8f 80
	8e b5		 mov	 DWORD PTR __k$556688[ebp+8], -1248952177 ; b58e808fH
  00517	c7 45 f0 88 82
	8e 87		 mov	 DWORD PTR __k$556688[ebp+12], -2020703608 ; 878e8288H
  0051e	8d 45 e4	 lea	 eax, DWORD PTR __k$556688[ebp]
  00521	66 c7 45 f4 94
	00		 mov	 WORD PTR __k$556688[ebp+16], 148 ; 00000094H
  00527	59		 pop	 ecx
$LL1382@LoadInitPr:
  00528	81 30 ed ec eb
	ea		 xor	 DWORD PTR [eax], -353637139 ; eaebecedH
  0052e	83 c0 04	 add	 eax, 4
  00531	49		 dec	 ecx
  00532	75 f4		 jne	 SHORT $LL1382@LoadInitPr
  00534	8b 8d d4 fe ff
	ff		 mov	 ecx, DWORD PTR _rkLoader$GSCopy$[ebp]
  0053a	8b 3d 00 00 00
	00		 mov	 edi, DWORD PTR __imp_?LoadBool@ioINILoader@@QAE_NPBD_N@Z
  00540	80 75 f4 ed	 xor	 BYTE PTR __k$556688[ebp+16], -19 ; ffffffedH
  00544	53		 push	 ebx
  00545	8d 45 e4	 lea	 eax, DWORD PTR __k$556688[ebp]
  00548	50		 push	 eax
  00549	ff d7		 call	 edi
  0054b	6a 04		 push	 4
  0054d	88 86 d0 14 00
	00		 mov	 BYTE PTR [esi+5328], al

; 53   : 	m_bSetCheckTarget = rkLoader.LoadBool_e( "set_check_target", false );

  00553	c7 45 e4 9e 89
	9f b5		 mov	 DWORD PTR __k$556813[ebp], -1247835746 ; b59f899eH
  0055a	c7 45 e8 8e 84
	8e 89		 mov	 DWORD PTR __k$556813[ebp+4], -1987148658 ; 898e848eH
  00561	c7 45 ec 86 b3
	9f 8b		 mov	 DWORD PTR __k$556813[ebp+8], -1952468090 ; 8b9fb386H
  00568	c7 45 f0 9f 8b
	8e 9e		 mov	 DWORD PTR __k$556813[ebp+12], -1634825313 ; 9e8e8b9fH
  0056f	8d 45 e4	 lea	 eax, DWORD PTR __k$556813[ebp]
  00572	88 5d f4	 mov	 BYTE PTR __k$556813[ebp+16], bl
  00575	59		 pop	 ecx
$LL1488@LoadInitPr:
  00576	81 30 ed ec eb
	ea		 xor	 DWORD PTR [eax], -353637139 ; eaebecedH
  0057c	83 c0 04	 add	 eax, 4
  0057f	49		 dec	 ecx
  00580	75 f4		 jne	 SHORT $LL1488@LoadInitPr
  00582	8b 8d d4 fe ff
	ff		 mov	 ecx, DWORD PTR _rkLoader$GSCopy$[ebp]
  00588	53		 push	 ebx
  00589	8d 45 e4	 lea	 eax, DWORD PTR __k$556813[ebp]
  0058c	50		 push	 eax
  0058d	ff d7		 call	 edi
  0058f	6a 04		 push	 4
  00591	88 86 d1 14 00
	00		 mov	 BYTE PTR [esi+5329], al

; 54   : 	m_bSetAutoExplosion = rkLoader.LoadBool_e( "set_auto_explosion", false );

  00597	c7 45 e0 9e 89
	9f b5		 mov	 DWORD PTR __k$556938[ebp], -1247835746 ; b59f899eH
  0059e	c7 45 e4 8c 99
	9f 85		 mov	 DWORD PTR __k$556938[ebp+4], -2053138036 ; 859f998cH
  005a5	c7 45 e8 b2 89
	93 9a		 mov	 DWORD PTR __k$556938[ebp+8], -1701606990 ; 9a9389b2H
  005ac	c7 45 ec 81 83
	98 83		 mov	 DWORD PTR __k$556938[ebp+12], -2087156863 ; 83988381H
  005b3	66 c7 45 f0 82
	82		 mov	 WORD PTR __k$556938[ebp+16], 33410 ; 00008282H
  005b9	8d 45 e0	 lea	 eax, DWORD PTR __k$556938[ebp]
  005bc	88 5d f2	 mov	 BYTE PTR __k$556938[ebp+18], bl
  005bf	59		 pop	 ecx
$LL1594@LoadInitPr:
  005c0	81 30 ed ec eb
	ea		 xor	 DWORD PTR [eax], -353637139 ; eaebecedH
  005c6	83 c0 04	 add	 eax, 4
  005c9	49		 dec	 ecx
  005ca	75 f4		 jne	 SHORT $LL1594@LoadInitPr
  005cc	6a 10		 push	 16			; 00000010H
  005ce	58		 pop	 eax
$LL1591@LoadInitPr:
  005cf	8b c8		 mov	 ecx, eax
  005d1	81 e1 03 00 00
	80		 and	 ecx, -2147483645	; 80000003H
  005d7	79 05		 jns	 SHORT $LN1992@LoadInitPr
  005d9	49		 dec	 ecx
  005da	83 c9 fc	 or	 ecx, -4			; fffffffcH
  005dd	41		 inc	 ecx
$LN1992@LoadInitPr:
  005de	b2 ed		 mov	 dl, -19			; ffffffedH
  005e0	2a d1		 sub	 dl, cl
  005e2	30 54 05 e0	 xor	 BYTE PTR __k$556938[ebp+eax], dl
  005e6	40		 inc	 eax
  005e7	83 f8 12	 cmp	 eax, 18			; 00000012H
  005ea	7c e3		 jl	 SHORT $LL1591@LoadInitPr
  005ec	8b 8d d4 fe ff
	ff		 mov	 ecx, DWORD PTR _rkLoader$GSCopy$[ebp]
  005f2	53		 push	 ebx
  005f3	8d 45 e0	 lea	 eax, DWORD PTR __k$556938[ebp]
  005f6	50		 push	 eax
  005f7	ff d7		 call	 edi
  005f9	6a 04		 push	 4
  005fb	88 86 d2 14 00
	00		 mov	 BYTE PTR [esi+5330], al

; 55   : 
; 56   : 	char szBuf[MAX_PATH];
; 57   : 	rkLoader.LoadString_e( "area_weapon_name", "", szBuf, MAX_PATH );

  00601	c7 45 e4 8c 9e
	8e 8b		 mov	 DWORD PTR __k$557084[ebp], -1953587572 ; 8b8e9e8cH
  00608	c7 45 e8 b2 9b
	8e 8b		 mov	 DWORD PTR __k$557084[ebp+4], -1953588302 ; 8b8e9bb2H
  0060f	c7 45 ec 9d 83
	85 b5		 mov	 DWORD PTR __k$557084[ebp+8], -1249541219 ; b585839dH
  00616	c7 45 f0 83 8d
	86 8f		 mov	 DWORD PTR __k$557084[ebp+12], -1887007357 ; 8f868d83H
  0061d	8d 45 e4	 lea	 eax, DWORD PTR __k$557084[ebp]
  00620	88 5d f4	 mov	 BYTE PTR __k$557084[ebp+16], bl
  00623	59		 pop	 ecx
$LL1700@LoadInitPr:
  00624	81 30 ed ec eb
	ea		 xor	 DWORD PTR [eax], -353637139 ; eaebecedH
  0062a	83 c0 04	 add	 eax, 4
  0062d	49		 dec	 ecx
  0062e	75 f4		 jne	 SHORT $LL1700@LoadInitPr
  00630	8b 8d d4 fe ff
	ff		 mov	 ecx, DWORD PTR _rkLoader$GSCopy$[ebp]
  00636	8b 3d 00 00 00
	00		 mov	 edi, DWORD PTR __imp_?LoadStringA@ioINILoader@@QAEXPBD0PADH@Z
  0063c	68 04 01 00 00	 push	 260			; 00000104H
  00641	8d 85 d8 fe ff
	ff		 lea	 eax, DWORD PTR _szBuf$[ebp]
  00647	50		 push	 eax
  00648	68 00 00 00 00	 push	 OFFSET ??_C@_00CNPNBAHC@?$AA@
  0064d	8d 45 e4	 lea	 eax, DWORD PTR __k$557084[ebp]
  00650	50		 push	 eax
  00651	ff d7		 call	 edi

; 58   : 	m_szAreaWeaponName = szBuf;

  00653	8d 85 d8 fe ff
	ff		 lea	 eax, DWORD PTR _szBuf$[ebp]
  00659	50		 push	 eax
  0065a	8d 8e d4 14 00
	00		 lea	 ecx, DWORD PTR [esi+5332]
  00660	ff 15 00 00 00
	00		 call	 DWORD PTR __imp_??4ioHashString@@QAEAAV0@PBD@Z
  00666	6a 03		 push	 3

; 59   : 
; 60   : 	rkLoader.LoadString_e( "explosion_sound", "", szBuf, MAX_PATH );

  00668	c7 45 e4 88 94
	9b 86		 mov	 DWORD PTR __k$557188[ebp], -2036624248 ; 869b9488H
  0066f	c7 45 e8 82 9f
	82 85		 mov	 DWORD PTR __k$557188[ebp+4], -2055037054 ; 85829f82H
  00676	c7 45 ec 83 b3
	98 85		 mov	 DWORD PTR __k$557188[ebp+8], -2053590141 ; 8598b383H
  0067d	8d 45 e4	 lea	 eax, DWORD PTR __k$557188[ebp]
  00680	c7 45 f0 98 82
	8f 00		 mov	 DWORD PTR __k$557188[ebp+12], 9405080 ; 008f8298H
  00687	59		 pop	 ecx
$LL1806@LoadInitPr:
  00688	81 30 ed ec eb
	ea		 xor	 DWORD PTR [eax], -353637139 ; eaebecedH
  0068e	83 c0 04	 add	 eax, 4
  00691	49		 dec	 ecx
  00692	75 f4		 jne	 SHORT $LL1806@LoadInitPr
  00694	6a 0c		 push	 12			; 0000000cH
  00696	58		 pop	 eax
$LL1803@LoadInitPr:
  00697	8b c8		 mov	 ecx, eax
  00699	81 e1 03 00 00
	80		 and	 ecx, -2147483645	; 80000003H
  0069f	79 05		 jns	 SHORT $LN1993@LoadInitPr
  006a1	49		 dec	 ecx
  006a2	83 c9 fc	 or	 ecx, -4			; fffffffcH
  006a5	41		 inc	 ecx
$LN1993@LoadInitPr:
  006a6	b2 ed		 mov	 dl, -19			; ffffffedH
  006a8	2a d1		 sub	 dl, cl
  006aa	30 54 05 e4	 xor	 BYTE PTR __k$557188[ebp+eax], dl
  006ae	40		 inc	 eax
  006af	83 f8 0f	 cmp	 eax, 15			; 0000000fH
  006b2	7c e3		 jl	 SHORT $LL1803@LoadInitPr
  006b4	8b 8d d4 fe ff
	ff		 mov	 ecx, DWORD PTR _rkLoader$GSCopy$[ebp]
  006ba	68 04 01 00 00	 push	 260			; 00000104H
  006bf	8d 85 d8 fe ff
	ff		 lea	 eax, DWORD PTR _szBuf$[ebp]
  006c5	50		 push	 eax
  006c6	68 00 00 00 00	 push	 OFFSET ??_C@_00CNPNBAHC@?$AA@
  006cb	8d 45 e4	 lea	 eax, DWORD PTR __k$557188[ebp]
  006ce	50		 push	 eax
  006cf	ff d7		 call	 edi

; 61   : 	m_szExplosionSound = szBuf;

  006d1	8d 85 d8 fe ff
	ff		 lea	 eax, DWORD PTR _szBuf$[ebp]
  006d7	50		 push	 eax
  006d8	8d 8e c0 14 00
	00		 lea	 ecx, DWORD PTR [esi+5312]
  006de	ff 15 00 00 00
	00		 call	 DWORD PTR __imp_??4ioHashString@@QAEAAV0@PBD@Z
  006e4	6a 03		 push	 3

; 62   : 
; 63   : 	rkLoader.LoadString_e( "attach_effect", "", szBuf, MAX_PATH );

  006e6	c7 45 e8 8c 98
	9f 8b		 mov	 DWORD PTR __k$557313[ebp], -1952474996 ; 8b9f988cH
  006ed	c7 45 ec 8e 84
	b4 8f		 mov	 DWORD PTR __k$557313[ebp+4], -1883994994 ; 8fb4848eH
  006f4	c7 45 f0 8b 8a
	8e 89		 mov	 DWORD PTR __k$557313[ebp+8], -1987147125 ; 898e8a8bH
  006fb	8d 45 e8	 lea	 eax, DWORD PTR __k$557313[ebp]
  006fe	66 c7 45 f4 99
	00		 mov	 WORD PTR __k$557313[ebp+12], 153 ; 00000099H
  00704	59		 pop	 ecx
$LL1912@LoadInitPr:
  00705	81 30 ed ec eb
	ea		 xor	 DWORD PTR [eax], -353637139 ; eaebecedH
  0070b	83 c0 04	 add	 eax, 4
  0070e	49		 dec	 ecx
  0070f	75 f4		 jne	 SHORT $LL1912@LoadInitPr
  00711	8b 8d d4 fe ff
	ff		 mov	 ecx, DWORD PTR _rkLoader$GSCopy$[ebp]
  00717	80 75 f4 ed	 xor	 BYTE PTR __k$557313[ebp+12], -19 ; ffffffedH
  0071b	68 04 01 00 00	 push	 260			; 00000104H
  00720	8d 85 d8 fe ff
	ff		 lea	 eax, DWORD PTR _szBuf$[ebp]
  00726	50		 push	 eax
  00727	68 00 00 00 00	 push	 OFFSET ??_C@_00CNPNBAHC@?$AA@
  0072c	8d 45 e8	 lea	 eax, DWORD PTR __k$557313[ebp]
  0072f	50		 push	 eax
  00730	ff d7		 call	 edi

; 64   : 	m_szAttachEffect = szBuf;

  00732	8d 85 d8 fe ff
	ff		 lea	 eax, DWORD PTR _szBuf$[ebp]
  00738	50		 push	 eax
  00739	8d 8e e4 14 00
	00		 lea	 ecx, DWORD PTR [esi+5348]
  0073f	ff 15 00 00 00
	00		 call	 DWORD PTR __imp_??4ioHashString@@QAEAAV0@PBD@Z

; 65   : }

  00745	8b 4d fc	 mov	 ecx, DWORD PTR __$ArrayPad$[ebp]
  00748	5f		 pop	 edi
  00749	5e		 pop	 esi
  0074a	33 cd		 xor	 ecx, ebp
  0074c	5b		 pop	 ebx
  0074d	e8 00 00 00 00	 call	 @__security_check_cookie@4
  00752	c9		 leave
  00753	c2 04 00	 ret	 4
?LoadInitProperty@ioDummyWarpMine@@IAEXAAVioINILoader@@@Z ENDP ; ioDummyWarpMine::LoadInitProperty
_TEXT	ENDS
PUBLIC	__$ArrayPad$
PUBLIC	?ProcessExplosionState@ioDummyWarpMine@@IAEXM@Z	; ioDummyWarpMine::ProcessExplosionState
EXTRN	?DestroyAreaWeapon@ioAreaWeaponManager@@QAEXK@Z:PROC ; ioAreaWeaponManager::DestroyAreaWeapon
EXTRN	__imp_??D@YA?AUD3DXVECTOR3@@ABUD3DXQUATERNION@@ABU0@@Z:PROC
; Function compile flags: /Ogsp
;	COMDAT ?ProcessExplosionState@ioDummyWarpMine@@IAEXM@Z
_TEXT	SEGMENT
$T550423 = -28						; size = 12
_vPos$550422 = -16					; size = 12
__$ArrayPad$ = -4					; size = 4
_fTimePerSec$ = 8					; size = 4
?ProcessExplosionState@ioDummyWarpMine@@IAEXM@Z PROC	; ioDummyWarpMine::ProcessExplosionState, COMDAT
; _this$ = ecx

; 137  : {

  00000	55		 push	 ebp
  00001	8b ec		 mov	 ebp, esp
  00003	83 ec 1c	 sub	 esp, 28			; 0000001cH
  00006	a1 00 00 00 00	 mov	 eax, DWORD PTR ___security_cookie
  0000b	33 c5		 xor	 eax, ebp
  0000d	89 45 fc	 mov	 DWORD PTR __$ArrayPad$[ebp], eax
  00010	56		 push	 esi
  00011	8b f1		 mov	 esi, ecx

; 138  : 	if ( m_nExplosionWeaponIndex != NO_WEAPON_ATTRIBUTE )

  00013	83 be a8 14 00
	00 00		 cmp	 DWORD PTR [esi+5288], 0
  0001a	0f 84 91 00 00
	00		 je	 $LN2@ProcessExp

; 139  : 	{
; 140  : 		D3DXVECTOR3 vPos = GetWorldPosition() + ( GetWorldOrientation() * m_vExplosionWeaponOffset );

  00020	57		 push	 edi
  00021	8d 86 9c 14 00
	00		 lea	 eax, DWORD PTR [esi+5276]
  00027	50		 push	 eax
  00028	8b 06		 mov	 eax, DWORD PTR [esi]
  0002a	ff 50 74	 call	 DWORD PTR [eax+116]
  0002d	50		 push	 eax
  0002e	8d 45 e4	 lea	 eax, DWORD PTR $T550423[ebp]
  00031	50		 push	 eax
  00032	ff 15 00 00 00
	00		 call	 DWORD PTR __imp_??D@YA?AUD3DXVECTOR3@@ABUD3DXQUATERNION@@ABU0@@Z
  00038	8b f8		 mov	 edi, eax
  0003a	8b 06		 mov	 eax, DWORD PTR [esi]
  0003c	83 c4 0c	 add	 esp, 12			; 0000000cH
  0003f	8b ce		 mov	 ecx, esi
  00041	ff 50 70	 call	 DWORD PTR [eax+112]
  00044	f3 0f 10 48 04	 movss	 xmm1, DWORD PTR [eax+4]
  00049	f3 0f 10 47 04	 movss	 xmm0, DWORD PTR [edi+4]
  0004e	f3 0f 10 50 08	 movss	 xmm2, DWORD PTR [eax+8]
  00053	f3 0f 10 18	 movss	 xmm3, DWORD PTR [eax]

; 141  : 		CreateWeapon( m_nExplosionWeaponIndex, vPos, ioMath::VEC3_ZERO );

  00057	ff 35 00 00 00
	00		 push	 DWORD PTR __imp_?VEC3_ZERO@ioMath@@2UD3DXVECTOR3@@A
  0005d	0f 5a c9	 cvtps2pd xmm1, xmm1
  00060	0f 5a c0	 cvtps2pd xmm0, xmm0
  00063	f2 0f 58 c1	 addsd	 xmm0, xmm1
  00067	f3 0f 10 4f 08	 movss	 xmm1, DWORD PTR [edi+8]
  0006c	0f 5a d2	 cvtps2pd xmm2, xmm2
  0006f	0f 5a c9	 cvtps2pd xmm1, xmm1
  00072	f2 0f 58 ca	 addsd	 xmm1, xmm2
  00076	f3 0f 10 17	 movss	 xmm2, DWORD PTR [edi]
  0007a	8d 45 f0	 lea	 eax, DWORD PTR _vPos$550422[ebp]
  0007d	0f 5a d2	 cvtps2pd xmm2, xmm2
  00080	50		 push	 eax
  00081	ff b6 a8 14 00
	00		 push	 DWORD PTR [esi+5288]
  00087	0f 5a db	 cvtps2pd xmm3, xmm3
  0008a	f2 0f 58 d3	 addsd	 xmm2, xmm3
  0008e	66 0f 5a c0	 cvtpd2ps xmm0, xmm0
  00092	66 0f 5a c9	 cvtpd2ps xmm1, xmm1
  00096	66 0f 5a d2	 cvtpd2ps xmm2, xmm2
  0009a	8b ce		 mov	 ecx, esi
  0009c	f3 0f 11 55 f0	 movss	 DWORD PTR _vPos$550422[ebp], xmm2
  000a1	f3 0f 11 45 f4	 movss	 DWORD PTR _vPos$550422[ebp+4], xmm0
  000a6	f3 0f 11 4d f8	 movss	 DWORD PTR _vPos$550422[ebp+8], xmm1
  000ab	e8 00 00 00 00	 call	 ?CreateWeapon@ioDummyWarpMine@@IAEXHABUD3DXVECTOR3@@0@Z ; ioDummyWarpMine::CreateWeapon
  000b0	5f		 pop	 edi
$LN2@ProcessExp:

; 142  : 	}
; 143  : 
; 144  : 	if ( m_dwAreaWeaponIdx != -1 )

  000b1	8b 86 f4 14 00
	00		 mov	 eax, DWORD PTR [esi+5364]
  000b7	83 f8 ff	 cmp	 eax, -1
  000ba	74 0d		 je	 SHORT $LN1@ProcessExp

; 145  : 		g_AreaWeaponMgr.DestroyAreaWeapon( m_dwAreaWeaponIdx );

  000bc	50		 push	 eax
  000bd	e8 00 00 00 00	 call	 ?GetSingleton@ioAreaWeaponManager@@SAAAV1@XZ ; ioAreaWeaponManager::GetSingleton
  000c2	8b c8		 mov	 ecx, eax
  000c4	e8 00 00 00 00	 call	 ?DestroyAreaWeapon@ioAreaWeaponManager@@QAEXK@Z ; ioAreaWeaponManager::DestroyAreaWeapon
$LN1@ProcessExp:

; 146  : 
; 147  : 	m_dwCheckEndDelayTime = FRAMEGETTIME();

  000c9	ff 15 00 00 00
	00		 call	 DWORD PTR __imp_?GetSingleton@ioFrameTimer@@SAAAV1@XZ
  000cf	8b c8		 mov	 ecx, eax
  000d1	ff 15 00 00 00
	00		 call	 DWORD PTR __imp_?GetLoopSec@ioFrameTimer@@QBEKXZ

; 148  : 	m_MineState = DMS_END;
; 149  : }

  000d7	8b 4d fc	 mov	 ecx, DWORD PTR __$ArrayPad$[ebp]
  000da	89 86 b8 14 00
	00		 mov	 DWORD PTR [esi+5304], eax
  000e0	c7 86 80 14 00
	00 03 00 00 00	 mov	 DWORD PTR [esi+5248], 3
  000ea	33 cd		 xor	 ecx, ebp
  000ec	5e		 pop	 esi
  000ed	e8 00 00 00 00	 call	 @__security_check_cookie@4
  000f2	c9		 leave
  000f3	c2 04 00	 ret	 4
?ProcessExplosionState@ioDummyWarpMine@@IAEXM@Z ENDP	; ioDummyWarpMine::ProcessExplosionState
_TEXT	ENDS
PUBLIC	__real@00000000
PUBLIC	__real@4008000000000000
PUBLIC	?CheckDropZone@ioDummyWarpMine@@IAEXPAVioBaseChar@@@Z ; ioDummyWarpMine::CheckDropZone
EXTRN	__imp_??4ioHashString@@QAEAAV0@ABV0@@Z:PROC
EXTRN	?GetMapHeightNoneEntity@ioPlayStage@@QAEMMMM_N@Z:PROC ; ioPlayStage::GetMapHeightNoneEntity
;	COMDAT __real@00000000
CONST	SEGMENT
__real@00000000 DD 000000000r			; 0
CONST	ENDS
;	COMDAT __real@4008000000000000
CONST	SEGMENT
__real@4008000000000000 DQ 04008000000000000r	; 3
; Function compile flags: /Ogsp
CONST	ENDS
;	COMDAT ?CheckDropZone@ioDummyWarpMine@@IAEXPAVioBaseChar@@@Z
_TEXT	SEGMENT
_vCurPos$ = -12						; size = 12
_value$557541 = 8					; size = 4
_pOwner$ = 8						; size = 4
?CheckDropZone@ioDummyWarpMine@@IAEXPAVioBaseChar@@@Z PROC ; ioDummyWarpMine::CheckDropZone, COMDAT
; _this$ = ecx

; 424  : {

  00000	55		 push	 ebp
  00001	8b ec		 mov	 ebp, esp
  00003	83 ec 0c	 sub	 esp, 12			; 0000000cH
  00006	53		 push	 ebx
  00007	56		 push	 esi
  00008	8b d9		 mov	 ebx, ecx

; 425  : 	bool bCheckDropZone = false;
; 426  : 
; 427  : 	D3DXVECTOR3 vCurPos = GetWorldPosition();

  0000a	8b 03		 mov	 eax, DWORD PTR [ebx]
  0000c	57		 push	 edi
  0000d	ff 50 70	 call	 DWORD PTR [eax+112]
  00010	8b f0		 mov	 esi, eax

; 428  : 
; 429  : 	if( pOwner &&
; 430  : 		pOwner->GetCreator() &&
; 431  : 		pOwner->GetCreator()->GetMapHeightNoneEntity( vCurPos.x, vCurPos.z, vCurPos.y+3.0f ) <= 0.0f )

  00012	8b 45 08	 mov	 eax, DWORD PTR _pOwner$[ebp]
  00015	8d 7d f4	 lea	 edi, DWORD PTR _vCurPos$[ebp]
  00018	a5		 movsd
  00019	a5		 movsd
  0001a	a5		 movsd
  0001b	85 c0		 test	 eax, eax
  0001d	74 7f		 je	 SHORT $LN1@CheckDropZ
  0001f	8b 88 44 03 00
	00		 mov	 ecx, DWORD PTR [eax+836]
  00025	85 c9		 test	 ecx, ecx
  00027	74 75		 je	 SHORT $LN1@CheckDropZ
  00029	f3 0f 10 45 f8	 movss	 xmm0, DWORD PTR _vCurPos$[ebp+4]
  0002e	0f 5a c0	 cvtps2pd xmm0, xmm0
  00031	f2 0f 58 05 00
	00 00 00	 addsd	 xmm0, QWORD PTR __real@4008000000000000
  00039	6a 00		 push	 0
  0003b	83 ec 0c	 sub	 esp, 12			; 0000000cH
  0003e	66 0f 5a c0	 cvtpd2ps xmm0, xmm0
  00042	f3 0f 11 44 24
	08		 movss	 DWORD PTR [esp+8], xmm0
  00048	f3 0f 10 45 fc	 movss	 xmm0, DWORD PTR _vCurPos$[ebp+8]
  0004d	f3 0f 11 44 24
	04		 movss	 DWORD PTR [esp+4], xmm0
  00053	f3 0f 10 45 f4	 movss	 xmm0, DWORD PTR _vCurPos$[ebp]
  00058	f3 0f 11 04 24	 movss	 DWORD PTR [esp], xmm0
  0005d	e8 00 00 00 00	 call	 ?GetMapHeightNoneEntity@ioPlayStage@@QAEMMMM_N@Z ; ioPlayStage::GetMapHeightNoneEntity
  00062	d9 ee		 fldz
  00064	df f1		 fcomip	 ST(1)
  00066	dd d8		 fstp	 ST(0)
  00068	72 34		 jb	 SHORT $LN1@CheckDropZ

; 432  : 		bCheckDropZone = true;
; 433  : 
; 434  : 	if( bCheckDropZone )
; 435  : 	{
; 436  : 		m_HP.m_fCurValue = 0.0f;

  0006a	0f 57 c0	 xorps	 xmm0, xmm0
  0006d	8d 45 08	 lea	 eax, DWORD PTR _value$557541[ebp]
  00070	50		 push	 eax
  00071	8d 8b c0 00 00
	00		 lea	 ecx, DWORD PTR [ebx+192]
  00077	f3 0f 11 45 08	 movss	 DWORD PTR _value$557541[ebp], xmm0
  0007c	e8 00 00 00 00	 call	 ?EncryptValueToPool@?$CEncrypt@M@@AAEXPBD@Z ; CEncrypt<float>::EncryptValueToPool

; 437  : 		m_LastAttacker = m_OwnerName;

  00081	8d 83 cc 01 00
	00		 lea	 eax, DWORD PTR [ebx+460]
  00087	50		 push	 eax
  00088	8d 8b 30 05 00
	00		 lea	 ecx, DWORD PTR [ebx+1328]
  0008e	ff 15 00 00 00
	00		 call	 DWORD PTR __imp_??4ioHashString@@QAEAAV0@ABV0@@Z

; 438  : 
; 439  : 		SetExplosionState();

  00094	c7 83 80 14 00
	00 02 00 00 00	 mov	 DWORD PTR [ebx+5248], 2
$LN1@CheckDropZ:
  0009e	5f		 pop	 edi
  0009f	5e		 pop	 esi
  000a0	5b		 pop	 ebx

; 440  : 		return;
; 441  : 	}
; 442  : }

  000a1	c9		 leave
  000a2	c2 04 00	 ret	 4
?CheckDropZone@ioDummyWarpMine@@IAEXPAVioBaseChar@@@Z ENDP ; ioDummyWarpMine::CheckDropZone
_TEXT	ENDS
PUBLIC	??0?$vector@PAVioBaseChar@@V?$allocator@PAVioBaseChar@@@std@@@std@@QAE@XZ ; std::vector<ioBaseChar *,std::allocator<ioBaseChar *> >::vector<ioBaseChar *,std::allocator<ioBaseChar *> >
; Function compile flags: /Ogsp
; File c:\program files (x86)\microsoft visual studio 10.0\vc\include\vector
;	COMDAT ??0?$vector@PAVioBaseChar@@V?$allocator@PAVioBaseChar@@@std@@@std@@QAE@XZ
_TEXT	SEGMENT
??0?$vector@PAVioBaseChar@@V?$allocator@PAVioBaseChar@@@std@@@std@@QAE@XZ PROC ; std::vector<ioBaseChar *,std::allocator<ioBaseChar *> >::vector<ioBaseChar *,std::allocator<ioBaseChar *> >, COMDAT
; _this$ = ecx

; 507  : 		{	// construct empty vector

  00000	8b c1		 mov	 eax, ecx
  00002	33 c9		 xor	 ecx, ecx
  00004	89 08		 mov	 DWORD PTR [eax], ecx
  00006	89 48 04	 mov	 DWORD PTR [eax+4], ecx
  00009	89 48 08	 mov	 DWORD PTR [eax+8], ecx

; 508  : 		}

  0000c	c3		 ret	 0
??0?$vector@PAVioBaseChar@@V?$allocator@PAVioBaseChar@@@std@@@std@@QAE@XZ ENDP ; std::vector<ioBaseChar *,std::allocator<ioBaseChar *> >::vector<ioBaseChar *,std::allocator<ioBaseChar *> >
_TEXT	ENDS
PUBLIC	??9?$_Vector_const_iterator@V?$_Vector_val@PAVioBaseChar@@V?$allocator@PAVioBaseChar@@@std@@@std@@@std@@QBE_NABV01@@Z ; std::_Vector_const_iterator<std::_Vector_val<ioBaseChar *,std::allocator<ioBaseChar *> > >::operator!=
; Function compile flags: /Ogsp
;	COMDAT ??9?$_Vector_const_iterator@V?$_Vector_val@PAVioBaseChar@@V?$allocator@PAVioBaseChar@@@std@@@std@@@std@@QBE_NABV01@@Z
_TEXT	SEGMENT
__Right$ = 8						; size = 4
??9?$_Vector_const_iterator@V?$_Vector_val@PAVioBaseChar@@V?$allocator@PAVioBaseChar@@@std@@@std@@@std@@QBE_NABV01@@Z PROC ; std::_Vector_const_iterator<std::_Vector_val<ioBaseChar *,std::allocator<ioBaseChar *> > >::operator!=, COMDAT
; _this$ = ecx

; 207  : 		{	// test for iterator inequality

  00000	55		 push	 ebp
  00001	8b ec		 mov	 ebp, esp

; 208  : 		return (!(*this == _Right));

  00003	8b 01		 mov	 eax, DWORD PTR [ecx]
  00005	8b 55 08	 mov	 edx, DWORD PTR __Right$[ebp]
  00008	33 c9		 xor	 ecx, ecx
  0000a	3b 02		 cmp	 eax, DWORD PTR [edx]
  0000c	0f 95 c0	 setne	 al

; 209  : 		}

  0000f	5d		 pop	 ebp
  00010	c2 04 00	 ret	 4
??9?$_Vector_const_iterator@V?$_Vector_val@PAVioBaseChar@@V?$allocator@PAVioBaseChar@@@std@@@std@@@std@@QBE_NABV01@@Z ENDP ; std::_Vector_const_iterator<std::_Vector_val<ioBaseChar *,std::allocator<ioBaseChar *> > >::operator!=
_TEXT	ENDS
PUBLIC	?_Destroy@?$vector@PAVioBaseChar@@V?$allocator@PAVioBaseChar@@@std@@@std@@IAEXPAPAVioBaseChar@@0@Z ; std::vector<ioBaseChar *,std::allocator<ioBaseChar *> >::_Destroy
; Function compile flags: /Ogsp
;	COMDAT ?_Destroy@?$vector@PAVioBaseChar@@V?$allocator@PAVioBaseChar@@@std@@@std@@IAEXPAPAVioBaseChar@@0@Z
_TEXT	SEGMENT
__First$ = 8						; size = 4
__Last$ = 12						; size = 4
?_Destroy@?$vector@PAVioBaseChar@@V?$allocator@PAVioBaseChar@@@std@@@std@@IAEXPAPAVioBaseChar@@0@Z PROC ; std::vector<ioBaseChar *,std::allocator<ioBaseChar *> >::_Destroy, COMDAT
; _this$ = ecx

; 1270 : 		_Destroy_range(_First, _Last, this->_Alval);
; 1271 : 		}

  00000	c2 08 00	 ret	 8
?_Destroy@?$vector@PAVioBaseChar@@V?$allocator@PAVioBaseChar@@@std@@@std@@IAEXPAPAVioBaseChar@@0@Z ENDP ; std::vector<ioBaseChar *,std::allocator<ioBaseChar *> >::_Destroy
_TEXT	ENDS
PUBLIC	??$_Cons_val@V?$allocator@PAVioBaseChar@@@std@@PAVioBaseChar@@ABQAV3@@std@@YAXAAV?$allocator@PAVioBaseChar@@@0@PAPAVioBaseChar@@ABQAV2@@Z ; std::_Cons_val<std::allocator<ioBaseChar *>,ioBaseChar *,ioBaseChar * const &>
; Function compile flags: /Ogsp
; File c:\program files (x86)\microsoft visual studio 10.0\vc\include\xmemory
;	COMDAT ??$_Cons_val@V?$allocator@PAVioBaseChar@@@std@@PAVioBaseChar@@ABQAV3@@std@@YAXAAV?$allocator@PAVioBaseChar@@@0@PAPAVioBaseChar@@ABQAV2@@Z
_TEXT	SEGMENT
__Alval$ = 8						; size = 4
__Pdest$ = 12						; size = 4
__Src$ = 16						; size = 4
??$_Cons_val@V?$allocator@PAVioBaseChar@@@std@@PAVioBaseChar@@ABQAV3@@std@@YAXAAV?$allocator@PAVioBaseChar@@@0@PAPAVioBaseChar@@ABQAV2@@Z PROC ; std::_Cons_val<std::allocator<ioBaseChar *>,ioBaseChar *,ioBaseChar * const &>, COMDAT

; 279  : 	{	// construct using allocator

  00000	55		 push	 ebp
  00001	8b ec		 mov	 ebp, esp

; 280  : 	_Alval.construct(_Pdest, _STD forward<_Ty2>(_Src));

  00003	8b 45 0c	 mov	 eax, DWORD PTR __Pdest$[ebp]
  00006	85 c0		 test	 eax, eax
  00008	74 07		 je	 SHORT $LN9@Cons_val@2
  0000a	8b 4d 10	 mov	 ecx, DWORD PTR __Src$[ebp]
  0000d	8b 09		 mov	 ecx, DWORD PTR [ecx]
  0000f	89 08		 mov	 DWORD PTR [eax], ecx
$LN9@Cons_val@2:

; 281  : 	}

  00011	5d		 pop	 ebp
  00012	c3		 ret	 0
??$_Cons_val@V?$allocator@PAVioBaseChar@@@std@@PAVioBaseChar@@ABQAV3@@std@@YAXAAV?$allocator@PAVioBaseChar@@@0@PAPAVioBaseChar@@ABQAV2@@Z ENDP ; std::_Cons_val<std::allocator<ioBaseChar *>,ioBaseChar *,ioBaseChar * const &>
_TEXT	ENDS
PUBLIC	??$_Umove@PAPAVioBaseChar@@@?$vector@PAVioBaseChar@@V?$allocator@PAVioBaseChar@@@std@@@std@@IAEPAPAVioBaseChar@@PAPAV2@00@Z ; std::vector<ioBaseChar *,std::allocator<ioBaseChar *> >::_Umove<ioBaseChar * *>
; Function compile flags: /Ogsp
; File c:\program files (x86)\microsoft visual studio 10.0\vc\include\vector
;	COMDAT ??$_Umove@PAPAVioBaseChar@@@?$vector@PAVioBaseChar@@V?$allocator@PAVioBaseChar@@@std@@@std@@IAEPAPAVioBaseChar@@PAPAV2@00@Z
_TEXT	SEGMENT
__First$ = 8						; size = 4
__Last$ = 12						; size = 4
__Ptr$ = 16						; size = 4
??$_Umove@PAPAVioBaseChar@@@?$vector@PAVioBaseChar@@V?$allocator@PAVioBaseChar@@@std@@@std@@IAEPAPAVioBaseChar@@PAPAV2@00@Z PROC ; std::vector<ioBaseChar *,std::allocator<ioBaseChar *> >::_Umove<ioBaseChar * *>, COMDAT
; _this$ = ecx

; 1322 : 		pointer _Umove(_Iter _First, _Iter _Last, pointer _Ptr)

  00000	55		 push	 ebp
  00001	8b ec		 mov	 ebp, esp

; 1323 : 		{	// move initializing [_First, _Last), using allocator
; 1324 : 		return (_Uninitialized_move(_First, _Last,
; 1325 : 			_Ptr, this->_Alval));

  00003	83 c1 0c	 add	 ecx, 12			; 0000000cH
  00006	51		 push	 ecx
  00007	ff 75 10	 push	 DWORD PTR __Ptr$[ebp]
  0000a	ff 75 0c	 push	 DWORD PTR __Last$[ebp]
  0000d	ff 75 08	 push	 DWORD PTR __First$[ebp]
  00010	e8 00 00 00 00	 call	 ??$_Uninitialized_move@PAPAVioBaseChar@@PAPAV1@V?$allocator@PAVioBaseChar@@@std@@@std@@YAPAPAVioBaseChar@@PAPAV1@00AAV?$allocator@PAVioBaseChar@@@0@@Z ; std::_Uninitialized_move<ioBaseChar * *,ioBaseChar * *,std::allocator<ioBaseChar *> >
  00015	83 c4 10	 add	 esp, 16			; 00000010H

; 1326 : 		}

  00018	5d		 pop	 ebp
  00019	c2 0c 00	 ret	 12			; 0000000cH
??$_Umove@PAPAVioBaseChar@@@?$vector@PAVioBaseChar@@V?$allocator@PAVioBaseChar@@@std@@@std@@IAEPAPAVioBaseChar@@PAPAV2@00@Z ENDP ; std::vector<ioBaseChar *,std::allocator<ioBaseChar *> >::_Umove<ioBaseChar * *>
; Function compile flags: /Ogsp
; File d:\lost saga for developer\youtube\tutorial\source\src\lsclient\ioplayentity.h
_TEXT	ENDS
;	COMDAT ?SetTeam@ioPlayEntity@@UAEXW4TeamType@@@Z
_TEXT	SEGMENT
_value$557642 = 8					; size = 4
_eType$ = 8						; size = 4
?SetTeam@ioPlayEntity@@UAEXW4TeamType@@@Z PROC		; ioPlayEntity::SetTeam, COMDAT
; _this$ = ecx

; 106  : 	virtual void SetTeam( TeamType eType ) { m_TeamType = eType; }

  00000	55		 push	 ebp
  00001	8b ec		 mov	 ebp, esp
  00003	8b 45 08	 mov	 eax, DWORD PTR _eType$[ebp]
  00006	89 45 08	 mov	 DWORD PTR _value$557642[ebp], eax
  00009	8d 45 08	 lea	 eax, DWORD PTR _value$557642[ebp]
  0000c	50		 push	 eax
  0000d	81 c1 90 00 00
	00		 add	 ecx, 144		; 00000090H
  00013	e8 00 00 00 00	 call	 ?EncryptValueToPool@?$CEncrypt@W4TeamType@@@@AAEXPBD@Z ; CEncrypt<enum TeamType>::EncryptValueToPool
  00018	5d		 pop	 ebp
  00019	c2 04 00	 ret	 4
?SetTeam@ioPlayEntity@@UAEXW4TeamType@@@Z ENDP		; ioPlayEntity::SetTeam
_TEXT	ENDS
PUBLIC	?GetTeam@ioPlayEntity@@QBE?AW4TeamType@@XZ	; ioPlayEntity::GetTeam
; Function compile flags: /Ogsp
;	COMDAT ?GetTeam@ioPlayEntity@@QBE?AW4TeamType@@XZ
_TEXT	SEGMENT
_value$557648 = -4					; size = 4
?GetTeam@ioPlayEntity@@QBE?AW4TeamType@@XZ PROC		; ioPlayEntity::GetTeam, COMDAT
; _this$ = ecx

; 107  : 	inline TeamType GetTeam() const { return m_TeamType; }

  00000	55		 push	 ebp
  00001	8b ec		 mov	 ebp, esp
  00003	51		 push	 ecx
  00004	8d 45 fc	 lea	 eax, DWORD PTR _value$557648[ebp]
  00007	50		 push	 eax
  00008	81 c1 90 00 00
	00		 add	 ecx, 144		; 00000090H
  0000e	e8 00 00 00 00	 call	 ?DecryptValueToPool@?$CEncrypt@W4TeamType@@@@QAEXPAW4TeamType@@@Z ; CEncrypt<enum TeamType>::DecryptValueToPool
  00013	8b 45 fc	 mov	 eax, DWORD PTR _value$557648[ebp]
  00016	c9		 leave
  00017	c3		 ret	 0
?GetTeam@ioPlayEntity@@QBE?AW4TeamType@@XZ ENDP		; ioPlayEntity::GetTeam
_TEXT	ENDS
PUBLIC	?IsNoWoundedWeapon@ioWeapon@@QBE_NXZ		; ioWeapon::IsNoWoundedWeapon
; Function compile flags: /Ogsp
; File d:\lost saga for developer\youtube\tutorial\source\src\lsclient\ioweapon.h
;	COMDAT ?IsNoWoundedWeapon@ioWeapon@@QBE_NXZ
_TEXT	SEGMENT
_value$557655 = -1					; size = 1
?IsNoWoundedWeapon@ioWeapon@@QBE_NXZ PROC		; ioWeapon::IsNoWoundedWeapon, COMDAT
; _this$ = ecx

; 552  : 	inline bool IsNoWoundedWeapon() const { return m_bNoWoundedWeapon; }

  00000	55		 push	 ebp
  00001	8b ec		 mov	 ebp, esp
  00003	51		 push	 ecx
  00004	8d 45 ff	 lea	 eax, DWORD PTR _value$557655[ebp]
  00007	50		 push	 eax
  00008	81 c1 a0 06 00
	00		 add	 ecx, 1696		; 000006a0H
  0000e	e8 00 00 00 00	 call	 ?DecryptValueToPool@?$CEncrypt@_N@@QAEXPA_N@Z ; CEncrypt<bool>::DecryptValueToPool
  00013	8a 45 ff	 mov	 al, BYTE PTR _value$557655[ebp]
  00016	c9		 leave
  00017	c3		 ret	 0
?IsNoWoundedWeapon@ioWeapon@@QBE_NXZ ENDP		; ioWeapon::IsNoWoundedWeapon
_TEXT	ENDS
EXTRN	?LoadProperty@ioDummyChar@@UAEXAAVioINILoader@@@Z:PROC ; ioDummyChar::LoadProperty
; Function compile flags: /Ogsp
; File d:\lost saga for developer\youtube\tutorial\source\src\lsclient\iodummywarpmine.cpp
;	COMDAT ?LoadProperty@ioDummyWarpMine@@UAEXAAVioINILoader@@@Z
_TEXT	SEGMENT
_rkLoader$ = 8						; size = 4
?LoadProperty@ioDummyWarpMine@@UAEXAAVioINILoader@@@Z PROC ; ioDummyWarpMine::LoadProperty, COMDAT
; _this$ = ecx

; 24   : {

  00000	55		 push	 ebp
  00001	8b ec		 mov	 ebp, esp
  00003	56		 push	 esi

; 25   : 	ioDummyChar::LoadProperty( rkLoader );

  00004	ff 75 08	 push	 DWORD PTR _rkLoader$[ebp]
  00007	8b f1		 mov	 esi, ecx
  00009	e8 00 00 00 00	 call	 ?LoadProperty@ioDummyChar@@UAEXAAVioINILoader@@@Z ; ioDummyChar::LoadProperty

; 26   : 	
; 27   : 	LoadInitProperty( rkLoader );

  0000e	ff 75 08	 push	 DWORD PTR _rkLoader$[ebp]
  00011	8b ce		 mov	 ecx, esi
  00013	e8 00 00 00 00	 call	 ?LoadInitProperty@ioDummyWarpMine@@IAEXAAVioINILoader@@@Z ; ioDummyWarpMine::LoadInitProperty
  00018	5e		 pop	 esi

; 28   : }

  00019	5d		 pop	 ebp
  0001a	c2 04 00	 ret	 4
?LoadProperty@ioDummyWarpMine@@UAEXAAVioINILoader@@@Z ENDP ; ioDummyWarpMine::LoadProperty
_TEXT	ENDS
PUBLIC	__real@3fe0000000000000
PUBLIC	??_C@_0CI@IACIOAIO@ioDummyChar?3?3ApplyWeapon?5?9?5?$CFs?5No@ ; `string'
EXTRN	?CheckEntityCollision@ioDummyCharManager@@QAEXPAVioBaseChar@@PAVioPlayEntity@@H@Z:PROC ; ioDummyCharManager::CheckEntityCollision
EXTRN	?GetSingleton@ioDummyCharManager@@SAAAV1@XZ:PROC ; ioDummyCharManager::GetSingleton
EXTRN	__imp_?Clear@ioHashString@@QAEXXZ:PROC
EXTRN	?ClearAttackFireTimeAndSkill@ioBaseChar@@QAEXW4ClearAttackFireType@@@Z:PROC ; ioBaseChar::ClearAttackFireTimeAndSkill
EXTRN	?IsCurUsingSkill@ioBaseChar@@QAE_NVioHashString@@@Z:PROC ; ioBaseChar::IsCurUsingSkill
EXTRN	__imp_??0ioHashString@@QAE@ABV0@@Z:PROC
EXTRN	?SetActionStopDuration@ioWeapon@@QAEXKM@Z:PROC	; ioWeapon::SetActionStopDuration
EXTRN	?CalcActionStopDelay@ioBaseChar@@SAKM_N@Z:PROC	; ioBaseChar::CalcActionStopDelay
EXTRN	?GetActionStopLooseRate@ioBaseChar@@SAM_N@Z:PROC ; ioBaseChar::GetActionStopLooseRate
EXTRN	?SetActionStopDelay@ioBaseChar@@QAEXM_NH@Z:PROC	; ioBaseChar::SetActionStopDelay
EXTRN	?GetShakeCamera@ioWeapon@@QBEHXZ:PROC		; ioWeapon::GetShakeCamera
EXTRN	?SetDisableAttackEmoticon@ioBaseGUISupport@@QAEXXZ:PROC ; ioBaseGUISupport::SetDisableAttackEmoticon
EXTRN	?ReverseReflectPush@ioBaseChar@@QAEXABUD3DXVECTOR3@@M@Z:PROC ; ioBaseChar::ReverseReflectPush
EXTRN	?AddNewBuff@ioBaseChar@@QAEPAVioBuff@@ABVioHashString@@00PAVioSkill@@_N@Z:PROC ; ioBaseChar::AddNewBuff
EXTRN	?IgnoreBlock@ioBaseChar@@QAE_NXZ:PROC		; ioBaseChar::IgnoreBlock
EXTRN	?IsChangeJumpping@ioWeapon@@QAE_N_N0@Z:PROC	; ioWeapon::IsChangeJumpping
EXTRN	?IsEnableAttackCancelState@ioBaseChar@@QAE_NXZ:PROC ; ioBaseChar::IsEnableAttackCancelState
EXTRN	__imp_?PrintTimeAndLog@CLog@@QAAXHPADZZ:PROC
EXTRN	__imp_?LOG@@3VCLog@@A:BYTE
EXTRN	__imp_?c_str@ioHashString@@QBEPBDXZ:PROC
EXTRN	?GetOwner@ioWeapon@@QBEPAVioBaseChar@@XZ:PROC	; ioWeapon::GetOwner
;	COMDAT __real@3fe0000000000000
; File d:\lost saga for developer\youtube\tutorial\source\src\lsclient\ioweapon.h
CONST	SEGMENT
__real@3fe0000000000000 DQ 03fe0000000000000r	; 0.5
CONST	ENDS
;	COMDAT ??_C@_0CI@IACIOAIO@ioDummyChar?3?3ApplyWeapon?5?9?5?$CFs?5No@
CONST	SEGMENT
??_C@_0CI@IACIOAIO@ioDummyChar?3?3ApplyWeapon?5?9?5?$CFs?5No@ DB 'ioDummy'
	DB	'Char::ApplyWeapon - %s Not Exist', 00H	; `string'
CONST	ENDS
;	COMDAT xdata$x
xdata$x	SEGMENT
__unwindtable$?ApplyWeapon@ioDummyWarpMine@@UAE?AW4ApplyWeaponExp@@PAVioWeapon@@@Z DD 0ffffffffH
	DD	FLAT:__unwindfunclet$?ApplyWeapon@ioDummyWarpMine@@UAE?AW4ApplyWeaponExp@@PAVioWeapon@@@Z$0
	DD	00H
	DD	FLAT:__unwindfunclet$?ApplyWeapon@ioDummyWarpMine@@UAE?AW4ApplyWeaponExp@@PAVioWeapon@@@Z$1
	DD	0ffffffffH
	DD	FLAT:__unwindfunclet$?ApplyWeapon@ioDummyWarpMine@@UAE?AW4ApplyWeaponExp@@PAVioWeapon@@@Z$2
__ehfuncinfo$?ApplyWeapon@ioDummyWarpMine@@UAE?AW4ApplyWeaponExp@@PAVioWeapon@@@Z DD 019930522H
	DD	03H
	DD	FLAT:__unwindtable$?ApplyWeapon@ioDummyWarpMine@@UAE?AW4ApplyWeaponExp@@PAVioWeapon@@@Z
	DD	2 DUP(00H)
	DD	2 DUP(00H)
	DD	00H
	DD	01H
; Function compile flags: /Ogsp
; File d:\lost saga for developer\youtube\tutorial\source\src\lsclient\iodummywarpmine.cpp
xdata$x	ENDS
;	COMDAT ?ApplyWeapon@ioDummyWarpMine@@UAE?AW4ApplyWeaponExp@@PAVioWeapon@@@Z
_TEXT	SEGMENT
$T557662 = -84						; size = 16
$T557663 = -68						; size = 16
_value$557728 = -52					; size = 4
_value$557724 = -48					; size = 4
$T557665 = -48						; size = 4
_fPushPower$ = -48					; size = 4
_value$557703 = -44					; size = 4
_value$557690 = -44					; size = 4
_fDamage$ = -40						; size = 4
_pAttacker$ = -36					; size = 4
_value$557699 = -29					; size = 1
_value$557695 = -29					; size = 1
_value$557682 = -29					; size = 1
_bStructWeapon$ = -29					; size = 1
_vAttackDir$ = -28					; size = 12
__$EHRec$ = -12						; size = 12
_pWeapon$ = 8						; size = 4
?ApplyWeapon@ioDummyWarpMine@@UAE?AW4ApplyWeaponExp@@PAVioWeapon@@@Z PROC ; ioDummyWarpMine::ApplyWeapon, COMDAT
; _this$ = ecx

; 152  : {

  00000	6a 48		 push	 72			; 00000048H
  00002	b8 00 00 00 00	 mov	 eax, __ehhandler$?ApplyWeapon@ioDummyWarpMine@@UAE?AW4ApplyWeaponExp@@PAVioWeapon@@@Z
  00007	e8 00 00 00 00	 call	 __EH_prolog3_GS
  0000c	8b 75 08	 mov	 esi, DWORD PTR _pWeapon$[ebp]
  0000f	8b f9		 mov	 edi, ecx

; 153  : 	ioBaseChar *pAttacker = pWeapon->GetOwner();

  00011	8b ce		 mov	 ecx, esi
  00013	e8 00 00 00 00	 call	 ?GetOwner@ioWeapon@@QBEPAVioBaseChar@@XZ ; ioWeapon::GetOwner
  00018	89 45 dc	 mov	 DWORD PTR _pAttacker$[ebp], eax

; 154  : 	if( !pAttacker )

  0001b	85 c0		 test	 eax, eax
  0001d	75 25		 jne	 SHORT $LN19@ApplyWeapo

; 155  : 	{
; 156  : 		LOG.PrintTimeAndLog( 0, "ioDummyChar::ApplyWeapon - %s Not Exist", pWeapon->GetOwnerName().c_str() );

  0001f	8d 4e 10	 lea	 ecx, DWORD PTR [esi+16]
  00022	ff 15 00 00 00
	00		 call	 DWORD PTR __imp_?c_str@ioHashString@@QBEPBDXZ
  00028	50		 push	 eax
  00029	68 00 00 00 00	 push	 OFFSET ??_C@_0CI@IACIOAIO@ioDummyChar?3?3ApplyWeapon?5?9?5?$CFs?5No@
  0002e	6a 00		 push	 0
  00030	ff 35 00 00 00
	00		 push	 DWORD PTR __imp_?LOG@@3VCLog@@A
  00036	ff 15 00 00 00
	00		 call	 DWORD PTR __imp_?PrintTimeAndLog@CLog@@QAAXHPADZZ
  0003c	83 c4 10	 add	 esp, 16			; 00000010H

; 157  : 		return AWE_EXPLOSION;

  0003f	e9 4d 03 00 00	 jmp	 $LN62@ApplyWeapo
$LN19@ApplyWeapo:

; 158  : 	}
; 159  : 
; 160  : 	if( pWeapon->IsNoWoundedWeapon() )

  00044	8d 45 e3	 lea	 eax, DWORD PTR _value$557682[ebp]
  00047	8d 8e a0 06 00
	00		 lea	 ecx, DWORD PTR [esi+1696]
  0004d	50		 push	 eax
  0004e	e8 00 00 00 00	 call	 ?DecryptValueToPool@?$CEncrypt@_N@@QAEXPA_N@Z ; CEncrypt<bool>::DecryptValueToPool
  00053	80 7d e3 00	 cmp	 BYTE PTR _value$557682[ebp], 0
  00057	74 07		 je	 SHORT $LN18@ApplyWeapo

; 161  : 		return AWE_NO_EXPLOSION;

  00059	33 c0		 xor	 eax, eax
  0005b	e9 34 03 00 00	 jmp	 $LN20@ApplyWeapo
$LN18@ApplyWeapo:

; 162  : 
; 163  : 	m_LastAttacker = pWeapon->GetOwnerName();

  00060	8d 46 10	 lea	 eax, DWORD PTR [esi+16]
  00063	50		 push	 eax
  00064	8d 8f 30 05 00
	00		 lea	 ecx, DWORD PTR [edi+1328]
  0006a	ff 15 00 00 00
	00		 call	 DWORD PTR __imp_??4ioHashString@@QAEAAV0@ABV0@@Z

; 164  : 
; 165  : 	float fDamage = pWeapon->GetDamage( this ) * m_fDamageRate;

  00070	8d 45 d4	 lea	 eax, DWORD PTR _value$557690[ebp]
  00073	50		 push	 eax
  00074	8d 8f d0 04 00
	00		 lea	 ecx, DWORD PTR [edi+1232]
  0007a	e8 00 00 00 00	 call	 ?DecryptValueToPool@?$CEncrypt@M@@QAEXPAM@Z ; CEncrypt<float>::DecryptValueToPool
  0007f	8b 06		 mov	 eax, DWORD PTR [esi]
  00081	57		 push	 edi
  00082	8b ce		 mov	 ecx, esi
  00084	ff 90 d4 00 00
	00		 call	 DWORD PTR [eax+212]
  0008a	d8 4d d4	 fmul	 DWORD PTR _value$557690[ebp]

; 166  : 	float fPushPower = pWeapon->GetDefensePushPower( fDamage );

  0008d	8b 06		 mov	 eax, DWORD PTR [esi]
  0008f	51		 push	 ecx
  00090	d9 5d d8	 fstp	 DWORD PTR _fDamage$[ebp]
  00093	8b ce		 mov	 ecx, esi
  00095	f3 0f 10 45 d8	 movss	 xmm0, DWORD PTR _fDamage$[ebp]
  0009a	f3 0f 11 04 24	 movss	 DWORD PTR [esp], xmm0
  0009f	ff 90 88 00 00
	00		 call	 DWORD PTR [eax+136]
  000a5	d9 5d d0	 fstp	 DWORD PTR _fPushPower$[ebp]

; 167  : 
; 168  : 	if( !m_bNoDamage && !m_bPiercingProtected )

  000a8	8d 45 e3	 lea	 eax, DWORD PTR _value$557695[ebp]
  000ab	50		 push	 eax
  000ac	8d 8f 80 03 00
	00		 lea	 ecx, DWORD PTR [edi+896]
  000b2	e8 00 00 00 00	 call	 ?DecryptValueToPool@?$CEncrypt@_N@@QAEXPA_N@Z ; CEncrypt<bool>::DecryptValueToPool
  000b7	80 7d e3 00	 cmp	 BYTE PTR _value$557695[ebp], 0
  000bb	75 4e		 jne	 SHORT $LN39@ApplyWeapo
  000bd	8d 45 e3	 lea	 eax, DWORD PTR _value$557699[ebp]
  000c0	50		 push	 eax
  000c1	8d 8f 70 04 00
	00		 lea	 ecx, DWORD PTR [edi+1136]
  000c7	e8 00 00 00 00	 call	 ?DecryptValueToPool@?$CEncrypt@_N@@QAEXPA_N@Z ; CEncrypt<bool>::DecryptValueToPool
  000cc	80 7d e3 00	 cmp	 BYTE PTR _value$557699[ebp], 0
  000d0	75 39		 jne	 SHORT $LN39@ApplyWeapo

; 169  : 		m_HP.m_fCurValue -= fDamage;

  000d2	8d 45 d4	 lea	 eax, DWORD PTR _value$557703[ebp]
  000d5	8d 9f c0 00 00
	00		 lea	 ebx, DWORD PTR [edi+192]
  000db	50		 push	 eax
  000dc	8b cb		 mov	 ecx, ebx
  000de	e8 00 00 00 00	 call	 ?DecryptValueToPool@?$CEncrypt@M@@QAEXPAM@Z ; CEncrypt<float>::DecryptValueToPool
  000e3	f3 0f 10 45 d4	 movss	 xmm0, DWORD PTR _value$557703[ebp]
  000e8	f3 0f 10 4d d8	 movss	 xmm1, DWORD PTR _fDamage$[ebp]
  000ed	0f 5a c0	 cvtps2pd xmm0, xmm0
  000f0	0f 5a c9	 cvtps2pd xmm1, xmm1
  000f3	8d 45 d4	 lea	 eax, DWORD PTR _value$557703[ebp]
  000f6	f2 0f 5c c1	 subsd	 xmm0, xmm1
  000fa	66 0f 5a c0	 cvtpd2ps xmm0, xmm0
  000fe	50		 push	 eax
  000ff	8b cb		 mov	 ecx, ebx
  00101	f3 0f 11 45 d4	 movss	 DWORD PTR _value$557703[ebp], xmm0
  00106	e8 00 00 00 00	 call	 ?EncryptValueToPool@?$CEncrypt@M@@AAEXPBD@Z ; CEncrypt<float>::EncryptValueToPool
$LN39@ApplyWeapo:

; 170  : 	AddHeadDamageInfo( (int)fDamage );

  0010b	f3 0f 2c 4d d8	 cvttss2si ecx, DWORD PTR _fDamage$[ebp]
  00110	8b 07		 mov	 eax, DWORD PTR [edi]
  00112	6a 00		 push	 0
  00114	51		 push	 ecx
  00115	8b cf		 mov	 ecx, edi
  00117	ff 90 d0 00 00
	00		 call	 DWORD PTR [eax+208]

; 171  : 
; 172  : 	bool bContactType = false;
; 173  : 	if( pWeapon->GetType() == ioWeapon::WT_CONTACT ||
; 174  : 		pWeapon->GetType() == ioWeapon::WT_RUN_CONTACT ||
; 175  : 		pWeapon->GetType() == ioWeapon::WT_CONTACT2 )

  0011d	8b 06		 mov	 eax, DWORD PTR [esi]
  0011f	8b ce		 mov	 ecx, esi
  00121	32 db		 xor	 bl, bl
  00123	ff 90 10 01 00
	00		 call	 DWORD PTR [eax+272]
  00129	83 f8 01	 cmp	 eax, 1
  0012c	74 1e		 je	 SHORT $LN15@ApplyWeapo
  0012e	8b 06		 mov	 eax, DWORD PTR [esi]
  00130	8b ce		 mov	 ecx, esi
  00132	ff 90 10 01 00
	00		 call	 DWORD PTR [eax+272]
  00138	83 f8 1e	 cmp	 eax, 30			; 0000001eH
  0013b	74 0f		 je	 SHORT $LN15@ApplyWeapo
  0013d	8b 06		 mov	 eax, DWORD PTR [esi]
  0013f	8b ce		 mov	 ecx, esi
  00141	ff 90 10 01 00
	00		 call	 DWORD PTR [eax+272]
  00147	83 f8 2b	 cmp	 eax, 43			; 0000002bH
  0014a	75 02		 jne	 SHORT $LN16@ApplyWeapo
$LN15@ApplyWeapo:

; 176  : 		bContactType = true;

  0014c	b3 01		 mov	 bl, 1
$LN16@ApplyWeapo:

; 177  : 
; 178  : 	bool bStructWeapon = false;
; 179  : 	if( pWeapon->CheckWeaponByStruct() || pWeapon->CheckWeaponByDummyChar() )

  0014e	80 be 8c 05 00
	00 00		 cmp	 BYTE PTR [esi+1420], 0
  00155	c6 45 e3 00	 mov	 BYTE PTR _bStructWeapon$[ebp], 0
  00159	75 09		 jne	 SHORT $LN13@ApplyWeapo
  0015b	80 be 9c 05 00
	00 00		 cmp	 BYTE PTR [esi+1436], 0
  00162	74 04		 je	 SHORT $LN14@ApplyWeapo
$LN13@ApplyWeapo:

; 180  : 		bStructWeapon = true;

  00164	c6 45 e3 01	 mov	 BYTE PTR _bStructWeapon$[ebp], 1
$LN14@ApplyWeapo:

; 181  : 
; 182  : 	D3DXVECTOR3 vAttackDir = pWeapon->GetAttackDir(this);

  00168	8b 06		 mov	 eax, DWORD PTR [esi]
  0016a	57		 push	 edi
  0016b	8d 4d e4	 lea	 ecx, DWORD PTR _vAttackDir$[ebp]
  0016e	51		 push	 ecx
  0016f	8b ce		 mov	 ecx, esi
  00171	ff 90 fc 00 00
	00		 call	 DWORD PTR [eax+252]

; 183  : 
; 184  : 	if( bContactType && !bStructWeapon && !pWeapon->CheckWeaponBySkill() && !m_BlockBuff.IsEmpty() )

  00177	84 db		 test	 bl, bl
  00179	0f 84 d5 00 00
	00		 je	 $LN11@ApplyWeapo
  0017f	80 7d e3 00	 cmp	 BYTE PTR _bStructWeapon$[ebp], 0
  00183	0f 85 cb 00 00
	00		 jne	 $LN11@ApplyWeapo
  00189	80 be 7e 05 00
	00 00		 cmp	 BYTE PTR [esi+1406], 0
  00190	0f 85 be 00 00
	00		 jne	 $LN11@ApplyWeapo
  00196	8d 8f b0 02 00
	00		 lea	 ecx, DWORD PTR [edi+688]
  0019c	ff 15 00 00 00
	00		 call	 DWORD PTR __imp_?IsEmpty@ioHashString@@QBE_NXZ
  001a2	84 c0		 test	 al, al
  001a4	0f 85 aa 00 00
	00		 jne	 $LN11@ApplyWeapo

; 185  : 	{
; 186  : 		if( pAttacker->IsEnableAttackCancelState() && !pWeapon->IsChangeJumpping( false, false )
; 187  : 			&& !pAttacker->IgnoreBlock() )

  001aa	8b 4d dc	 mov	 ecx, DWORD PTR _pAttacker$[ebp]
  001ad	e8 00 00 00 00	 call	 ?IsEnableAttackCancelState@ioBaseChar@@QAE_NXZ ; ioBaseChar::IsEnableAttackCancelState
  001b2	84 c0		 test	 al, al
  001b4	0f 84 9a 00 00
	00		 je	 $LN11@ApplyWeapo
  001ba	6a 00		 push	 0
  001bc	6a 00		 push	 0
  001be	8b ce		 mov	 ecx, esi
  001c0	e8 00 00 00 00	 call	 ?IsChangeJumpping@ioWeapon@@QAE_N_N0@Z ; ioWeapon::IsChangeJumpping
  001c5	84 c0		 test	 al, al
  001c7	0f 85 87 00 00
	00		 jne	 $LN11@ApplyWeapo
  001cd	8b 4d dc	 mov	 ecx, DWORD PTR _pAttacker$[ebp]
  001d0	e8 00 00 00 00	 call	 ?IgnoreBlock@ioBaseChar@@QAE_NXZ ; ioBaseChar::IgnoreBlock
  001d5	84 c0		 test	 al, al
  001d7	75 7b		 jne	 SHORT $LN11@ApplyWeapo

; 188  : 		{
; 189  : 			pAttacker->AddNewBuff( m_BlockBuff, "", "", NULL );

  001d9	8b 1d 00 00 00
	00		 mov	 ebx, DWORD PTR __imp_??0ioHashString@@QAE@PBD@Z
  001df	68 00 00 00 00	 push	 OFFSET ??_C@_00CNPNBAHC@?$AA@
  001e4	8d 4d ac	 lea	 ecx, DWORD PTR $T557662[ebp]
  001e7	ff d3		 call	 ebx
  001e9	83 65 fc 00	 and	 DWORD PTR __$EHRec$[ebp+8], 0
  001ed	68 00 00 00 00	 push	 OFFSET ??_C@_00CNPNBAHC@?$AA@
  001f2	8d 4d bc	 lea	 ecx, DWORD PTR $T557663[ebp]
  001f5	ff d3		 call	 ebx
  001f7	8b 4d dc	 mov	 ecx, DWORD PTR _pAttacker$[ebp]
  001fa	6a 00		 push	 0
  001fc	6a 00		 push	 0
  001fe	8d 45 ac	 lea	 eax, DWORD PTR $T557662[ebp]
  00201	50		 push	 eax
  00202	8d 45 bc	 lea	 eax, DWORD PTR $T557663[ebp]
  00205	50		 push	 eax
  00206	8d 87 b0 02 00
	00		 lea	 eax, DWORD PTR [edi+688]
  0020c	50		 push	 eax
  0020d	c6 45 fc 01	 mov	 BYTE PTR __$EHRec$[ebp+8], 1
  00211	e8 00 00 00 00	 call	 ?AddNewBuff@ioBaseChar@@QAEPAVioBuff@@ABVioHashString@@00PAVioSkill@@_N@Z ; ioBaseChar::AddNewBuff
  00216	8b 1d 00 00 00
	00		 mov	 ebx, DWORD PTR __imp_??1ioHashString@@QAE@XZ
  0021c	8d 4d bc	 lea	 ecx, DWORD PTR $T557663[ebp]
  0021f	c6 45 fc 00	 mov	 BYTE PTR __$EHRec$[ebp+8], 0
  00223	ff d3		 call	 ebx
  00225	83 4d fc ff	 or	 DWORD PTR __$EHRec$[ebp+8], -1
  00229	8d 4d ac	 lea	 ecx, DWORD PTR $T557662[ebp]
  0022c	ff d3		 call	 ebx

; 190  : 			pAttacker->ReverseReflectPush( vAttackDir, fPushPower * 0.5f );

  0022e	f3 0f 10 45 d0	 movss	 xmm0, DWORD PTR _fPushPower$[ebp]
  00233	0f 5a c0	 cvtps2pd xmm0, xmm0
  00236	f2 0f 59 05 00
	00 00 00	 mulsd	 xmm0, QWORD PTR __real@3fe0000000000000
  0023e	51		 push	 ecx
  0023f	8b 4d dc	 mov	 ecx, DWORD PTR _pAttacker$[ebp]
  00242	66 0f 5a c0	 cvtpd2ps xmm0, xmm0
  00246	8d 45 e4	 lea	 eax, DWORD PTR _vAttackDir$[ebp]
  00249	f3 0f 11 04 24	 movss	 DWORD PTR [esp], xmm0
  0024e	50		 push	 eax
  0024f	e8 00 00 00 00	 call	 ?ReverseReflectPush@ioBaseChar@@QAEXABUD3DXVECTOR3@@M@Z ; ioBaseChar::ReverseReflectPush
$LN11@ApplyWeapo:

; 191  : 		}
; 192  : 	}
; 193  : 
; 194  : 	if( !m_BlockBuff.IsEmpty() )

  00254	8d 8f b0 02 00
	00		 lea	 ecx, DWORD PTR [edi+688]
  0025a	ff 15 00 00 00
	00		 call	 DWORD PTR __imp_?IsEmpty@ioHashString@@QBE_NXZ
  00260	84 c0		 test	 al, al
  00262	75 0e		 jne	 SHORT $LN10@ApplyWeapo

; 195  : 		pAttacker->SetDisableAttackEmoticon();

  00264	8b 4d dc	 mov	 ecx, DWORD PTR _pAttacker$[ebp]
  00267	81 c1 cc 01 00
	00		 add	 ecx, 460		; 000001ccH
  0026d	e8 00 00 00 00	 call	 ?SetDisableAttackEmoticon@ioBaseGUISupport@@QAEXXZ ; ioBaseGUISupport::SetDisableAttackEmoticon
$LN10@ApplyWeapo:

; 196  : 
; 197  : 	int iShakeCamera = pWeapon->GetShakeCamera();

  00272	8b ce		 mov	 ecx, esi
  00274	e8 00 00 00 00	 call	 ?GetShakeCamera@ioWeapon@@QBEHXZ ; ioWeapon::GetShakeCamera
  00279	8b d8		 mov	 ebx, eax

; 198  : 	ActionStopType eActionStop = pWeapon->GetActionStopType();

  0027b	8b 06		 mov	 eax, DWORD PTR [esi]
  0027d	8b ce		 mov	 ecx, esi
  0027f	ff 90 14 01 00
	00		 call	 DWORD PTR [eax+276]

; 199  : 
; 200  : 	if( eActionStop == AST_BOTH || eActionStop == AST_ATTACKER )

  00285	83 f8 01	 cmp	 eax, 1
  00288	74 05		 je	 SHORT $LN8@ApplyWeapo
  0028a	83 f8 02	 cmp	 eax, 2
  0028d	75 3b		 jne	 SHORT $LN9@ApplyWeapo
$LN8@ApplyWeapo:

; 201  : 	{
; 202  : 		pAttacker->SetActionStopDelay( fDamage, false, iShakeCamera );

  0028f	f3 0f 10 45 d8	 movss	 xmm0, DWORD PTR _fDamage$[ebp]
  00294	53		 push	 ebx
  00295	33 db		 xor	 ebx, ebx
  00297	53		 push	 ebx
  00298	51		 push	 ecx
  00299	8b 4d dc	 mov	 ecx, DWORD PTR _pAttacker$[ebp]
  0029c	f3 0f 11 04 24	 movss	 DWORD PTR [esp], xmm0
  002a1	e8 00 00 00 00	 call	 ?SetActionStopDelay@ioBaseChar@@QAEXM_NH@Z ; ioBaseChar::SetActionStopDelay

; 203  : 		pWeapon->SetActionStopDuration( ioBaseChar::CalcActionStopDelay( fDamage, false ),
; 204  : 			ioBaseChar::GetActionStopLooseRate( false ) );

  002a6	53		 push	 ebx
  002a7	e8 00 00 00 00	 call	 ?GetActionStopLooseRate@ioBaseChar@@SAM_N@Z ; ioBaseChar::GetActionStopLooseRate
  002ac	d9 1c 24	 fstp	 DWORD PTR [esp]
  002af	f3 0f 10 45 d8	 movss	 xmm0, DWORD PTR _fDamage$[ebp]
  002b4	53		 push	 ebx
  002b5	51		 push	 ecx
  002b6	f3 0f 11 04 24	 movss	 DWORD PTR [esp], xmm0
  002bb	e8 00 00 00 00	 call	 ?CalcActionStopDelay@ioBaseChar@@SAKM_N@Z ; ioBaseChar::CalcActionStopDelay
  002c0	59		 pop	 ecx
  002c1	59		 pop	 ecx
  002c2	50		 push	 eax
  002c3	8b ce		 mov	 ecx, esi
  002c5	e8 00 00 00 00	 call	 ?SetActionStopDuration@ioWeapon@@QAEXKM@Z ; ioWeapon::SetActionStopDuration
$LN9@ApplyWeapo:

; 205  : 	}
; 206  : 
; 207  : 	if( m_HP.m_fCurValue <= 0.0f )

  002ca	8d 45 d0	 lea	 eax, DWORD PTR _value$557724[ebp]
  002cd	50		 push	 eax
  002ce	8d 8f c0 00 00
	00		 lea	 ecx, DWORD PTR [edi+192]
  002d4	e8 00 00 00 00	 call	 ?DecryptValueToPool@?$CEncrypt@M@@QAEXPAM@Z ; CEncrypt<float>::DecryptValueToPool
  002d9	0f 57 c0	 xorps	 xmm0, xmm0
  002dc	0f 2f 45 d0	 comiss	 xmm0, DWORD PTR _value$557724[ebp]
  002e0	0f 82 95 00 00
	00		 jb	 $LN2@ApplyWeapo

; 208  : 	{
; 209  : 		m_HP.m_fCurValue = 0.0f;

  002e6	8d 45 cc	 lea	 eax, DWORD PTR _value$557728[ebp]
  002e9	50		 push	 eax
  002ea	8d 8f c0 00 00
	00		 lea	 ecx, DWORD PTR [edi+192]
  002f0	f3 0f 11 45 cc	 movss	 DWORD PTR _value$557728[ebp], xmm0
  002f5	e8 00 00 00 00	 call	 ?EncryptValueToPool@?$CEncrypt@M@@AAEXPBD@Z ; CEncrypt<float>::EncryptValueToPool

; 210  : 		SetDieState( true );

  002fa	8b 07		 mov	 eax, DWORD PTR [edi]
  002fc	6a 01		 push	 1
  002fe	8b cf		 mov	 ecx, edi
  00300	ff 90 60 01 00
	00		 call	 DWORD PTR [eax+352]

; 211  : 
; 212  : 		//     
; 213  : 		switch( m_DummyCharType )

  00306	8b 87 2c 02 00
	00		 mov	 eax, DWORD PTR [edi+556]
  0030c	83 e8 03	 sub	 eax, 3
  0030f	74 09		 je	 SHORT $LN4@ApplyWeapo
  00311	48		 dec	 eax
  00312	48		 dec	 eax
  00313	74 05		 je	 SHORT $LN4@ApplyWeapo
  00315	83 e8 18	 sub	 eax, 24			; 00000018H
  00318	75 61		 jne	 SHORT $LN2@ApplyWeapo
$LN4@ApplyWeapo:

; 214  : 		{
; 215  : 		case DCT_OWNER_CONTROL:
; 216  : 		case DCT_OWNER_CONTROL3:
; 217  : 		case DCT_OWNER_ATTACH:
; 218  : 			if( !m_ControlSkillName.IsEmpty() )

  0031a	8d 9f 98 0d 00
	00		 lea	 ebx, DWORD PTR [edi+3480]
  00320	8b cb		 mov	 ecx, ebx
  00322	ff 15 00 00 00
	00		 call	 DWORD PTR __imp_?IsEmpty@ioHashString@@QBE_NXZ
  00328	84 c0		 test	 al, al
  0032a	75 4f		 jne	 SHORT $LN2@ApplyWeapo

; 219  : 			{
; 220  : 				if( GetOwner() && GetOwner()->IsCurUsingSkill( m_ControlSkillName ) )

  0032c	8b cf		 mov	 ecx, edi
  0032e	e8 00 00 00 00	 call	 ?GetOwner@ioDummyChar@@QBEPAVioBaseChar@@XZ ; ioDummyChar::GetOwner
  00333	85 c0		 test	 eax, eax
  00335	74 44		 je	 SHORT $LN2@ApplyWeapo
  00337	83 ec 10	 sub	 esp, 16			; 00000010H
  0033a	8b cc		 mov	 ecx, esp
  0033c	89 65 d0	 mov	 DWORD PTR $T557665[ebp], esp
  0033f	53		 push	 ebx
  00340	ff 15 00 00 00
	00		 call	 DWORD PTR __imp_??0ioHashString@@QAE@ABV0@@Z
  00346	8b cf		 mov	 ecx, edi
  00348	c7 45 fc 02 00
	00 00		 mov	 DWORD PTR __$EHRec$[ebp+8], 2
  0034f	e8 00 00 00 00	 call	 ?GetOwner@ioDummyChar@@QBEPAVioBaseChar@@XZ ; ioDummyChar::GetOwner
  00354	83 4d fc ff	 or	 DWORD PTR __$EHRec$[ebp+8], -1
  00358	8b c8		 mov	 ecx, eax
  0035a	e8 00 00 00 00	 call	 ?IsCurUsingSkill@ioBaseChar@@QAE_NVioHashString@@@Z ; ioBaseChar::IsCurUsingSkill
  0035f	84 c0		 test	 al, al
  00361	74 18		 je	 SHORT $LN2@ApplyWeapo

; 221  : 				{
; 222  : 					GetOwner()->ClearAttackFireTimeAndSkill( CAFT_APPLY_WOUNDED_BY_DUMMY );

  00363	6a 02		 push	 2
  00365	8b cf		 mov	 ecx, edi
  00367	e8 00 00 00 00	 call	 ?GetOwner@ioDummyChar@@QBEPAVioBaseChar@@XZ ; ioDummyChar::GetOwner
  0036c	8b c8		 mov	 ecx, eax
  0036e	e8 00 00 00 00	 call	 ?ClearAttackFireTimeAndSkill@ioBaseChar@@QAEXW4ClearAttackFireType@@@Z ; ioBaseChar::ClearAttackFireTimeAndSkill

; 223  : 					m_ControlSkillName.Clear();

  00373	8b cb		 mov	 ecx, ebx
  00375	ff 15 00 00 00
	00		 call	 DWORD PTR __imp_?Clear@ioHashString@@QAEXXZ
$LN2@ApplyWeapo:

; 224  : 				}
; 225  : 			}
; 226  : 			break;
; 227  : 		}
; 228  : 	}
; 229  : 
; 230  : 	if( pWeapon )
; 231  : 	{
; 232  : 		int iDummyIndex = pWeapon->GetWeaponByDummyChar();
; 233  : 		g_DummyCharMgr.CheckEntityCollision( pAttacker, this, iDummyIndex );

  0037b	ff b6 98 05 00
	00		 push	 DWORD PTR [esi+1432]
  00381	57		 push	 edi
  00382	ff 75 dc	 push	 DWORD PTR _pAttacker$[ebp]
  00385	e8 00 00 00 00	 call	 ?GetSingleton@ioDummyCharManager@@SAAAV1@XZ ; ioDummyCharManager::GetSingleton
  0038a	8b c8		 mov	 ecx, eax
  0038c	e8 00 00 00 00	 call	 ?CheckEntityCollision@ioDummyCharManager@@QAEXPAVioBaseChar@@PAVioPlayEntity@@H@Z ; ioDummyCharManager::CheckEntityCollision
$LN62@ApplyWeapo:

; 234  : 	}
; 235  : 
; 236  : 	return AWE_EXPLOSION;

  00391	33 c0		 xor	 eax, eax
  00393	40		 inc	 eax
$LN20@ApplyWeapo:

; 237  : }

  00394	e8 00 00 00 00	 call	 __EH_epilog3_GS
  00399	c2 04 00	 ret	 4
_TEXT	ENDS
;	COMDAT text$x
text$x	SEGMENT
__unwindfunclet$?ApplyWeapon@ioDummyWarpMine@@UAE?AW4ApplyWeaponExp@@PAVioWeapon@@@Z$0:
  00000	8d 4d ac	 lea	 ecx, DWORD PTR $T557662[ebp]
  00003	ff 25 00 00 00
	00		 jmp	 DWORD PTR __imp_??1ioHashString@@QAE@XZ
__unwindfunclet$?ApplyWeapon@ioDummyWarpMine@@UAE?AW4ApplyWeaponExp@@PAVioWeapon@@@Z$1:
  00009	8d 4d bc	 lea	 ecx, DWORD PTR $T557663[ebp]
  0000c	ff 25 00 00 00
	00		 jmp	 DWORD PTR __imp_??1ioHashString@@QAE@XZ
__unwindfunclet$?ApplyWeapon@ioDummyWarpMine@@UAE?AW4ApplyWeaponExp@@PAVioWeapon@@@Z$2:
  00012	8b 4d d0	 mov	 ecx, DWORD PTR $T557665[ebp]
  00015	ff 25 00 00 00
	00		 jmp	 DWORD PTR __imp_??1ioHashString@@QAE@XZ
__ehhandler$?ApplyWeapon@ioDummyWarpMine@@UAE?AW4ApplyWeaponExp@@PAVioWeapon@@@Z:
  0001b	8b 54 24 08	 mov	 edx, DWORD PTR [esp+8]
  0001f	8d 42 0c	 lea	 eax, DWORD PTR [edx+12]
  00022	8b 4a a8	 mov	 ecx, DWORD PTR [edx-88]
  00025	33 c8		 xor	 ecx, eax
  00027	e8 00 00 00 00	 call	 @__security_check_cookie@4
  0002c	8b 4a fc	 mov	 ecx, DWORD PTR [edx-4]
  0002f	33 c8		 xor	 ecx, eax
  00031	e8 00 00 00 00	 call	 @__security_check_cookie@4
  00036	b8 00 00 00 00	 mov	 eax, OFFSET __ehfuncinfo$?ApplyWeapon@ioDummyWarpMine@@UAE?AW4ApplyWeaponExp@@PAVioWeapon@@@Z
  0003b	e9 00 00 00 00	 jmp	 ___CxxFrameHandler3
text$x	ENDS
?ApplyWeapon@ioDummyWarpMine@@UAE?AW4ApplyWeaponExp@@PAVioWeapon@@@Z ENDP ; ioDummyWarpMine::ApplyWeapon
PUBLIC	?VisibleCheck@ioDummyWarpMine@@IAEXPAVioBaseChar@@@Z ; ioDummyWarpMine::VisibleCheck
EXTRN	?GetCameraTargetChar@ioPlayStage@@QAEPAVioBaseChar@@XZ:PROC ; ioPlayStage::GetCameraTargetChar
; Function compile flags: /Ogsp
;	COMDAT ?VisibleCheck@ioDummyWarpMine@@IAEXPAVioBaseChar@@@Z
_TEXT	SEGMENT
_value$557777 = -4					; size = 4
_value$557764 = 8					; size = 4
_fVisibleRangeSq$550513 = 8				; size = 4
_pOwner$ = 8						; size = 4
?VisibleCheck@ioDummyWarpMine@@IAEXPAVioBaseChar@@@Z PROC ; ioDummyWarpMine::VisibleCheck, COMDAT
; _this$ = ecx

; 300  : {

  00000	55		 push	 ebp
  00001	8b ec		 mov	 ebp, esp
  00003	51		 push	 ecx
  00004	56		 push	 esi
  00005	8b f1		 mov	 esi, ecx

; 301  : 	if( !m_pGroup || !pOwner || !m_bSetVisible )	

  00007	83 7e 04 00	 cmp	 DWORD PTR [esi+4], 0
  0000b	0f 84 2e 01 00
	00		 je	 $LN8@VisibleChe
  00011	8b 45 08	 mov	 eax, DWORD PTR _pOwner$[ebp]
  00014	85 c0		 test	 eax, eax
  00016	0f 84 23 01 00
	00		 je	 $LN8@VisibleChe
  0001c	80 be d0 14 00
	00 00		 cmp	 BYTE PTR [esi+5328], 0
  00023	0f 84 16 01 00
	00		 je	 $LN8@VisibleChe

; 302  : 		return;
; 303  : 	
; 304  : 	ioPlayStage *pStage = pOwner->GetCreator();

  00029	8b 88 44 03 00
	00		 mov	 ecx, DWORD PTR [eax+836]

; 305  : 	if ( !pStage )

  0002f	85 c9		 test	 ecx, ecx
  00031	0f 84 08 01 00
	00		 je	 $LN8@VisibleChe

; 306  : 		return;
; 307  : 
; 308  : 	ioBaseChar *pTarget = pStage->GetCameraTargetChar();

  00037	57		 push	 edi
  00038	e8 00 00 00 00	 call	 ?GetCameraTargetChar@ioPlayStage@@QAEPAVioBaseChar@@XZ ; ioPlayStage::GetCameraTargetChar
  0003d	8b f8		 mov	 edi, eax

; 309  : 	if( pTarget )

  0003f	85 ff		 test	 edi, edi
  00041	0f 84 ee 00 00
	00		 je	 $LN6@VisibleChe

; 310  : 	{
; 311  : 		if( GetTeam() == pTarget->GetTeam() )

  00047	8d 45 08	 lea	 eax, DWORD PTR _value$557764[ebp]
  0004a	50		 push	 eax
  0004b	8d 8e 90 00 00
	00		 lea	 ecx, DWORD PTR [esi+144]
  00051	e8 00 00 00 00	 call	 ?DecryptValueToPool@?$CEncrypt@W4TeamType@@@@QAEXPAW4TeamType@@@Z ; CEncrypt<enum TeamType>::DecryptValueToPool
  00056	8d 45 fc	 lea	 eax, DWORD PTR _value$557777[ebp]
  00059	50		 push	 eax
  0005a	8d 8f 90 00 00
	00		 lea	 ecx, DWORD PTR [edi+144]
  00060	e8 00 00 00 00	 call	 ?DecryptValueToPool@?$CEncrypt@W4TeamType@@@@QAEXPAW4TeamType@@@Z ; CEncrypt<enum TeamType>::DecryptValueToPool
  00065	8b 45 08	 mov	 eax, DWORD PTR _value$557764[ebp]
  00068	3b 45 fc	 cmp	 eax, DWORD PTR _value$557777[ebp]
  0006b	75 07		 jne	 SHORT $LN5@VisibleChe

; 312  : 			m_pGroup->SetVisible( true );

  0006d	6a 01		 push	 1

; 313  : 		else

  0006f	e9 c3 00 00 00	 jmp	 $LN29@VisibleChe
$LN5@VisibleChe:

; 314  : 		{
; 315  : 			float fVisibleRangeSq = m_fVisibleRange * m_fVisibleRange;

  00074	f3 0f 10 86 84
	14 00 00	 movss	 xmm0, DWORD PTR [esi+5252]

; 316  : 
; 317  : 			D3DXVECTOR3 vDiff = GetWorldPosition() - pTarget->GetWorldPosition();

  0007c	8b 07		 mov	 eax, DWORD PTR [edi]
  0007e	0f 5a c0	 cvtps2pd xmm0, xmm0
  00081	f2 0f 59 c0	 mulsd	 xmm0, xmm0
  00085	66 0f 5a c0	 cvtpd2ps xmm0, xmm0
  00089	8b cf		 mov	 ecx, edi
  0008b	f3 0f 11 45 08	 movss	 DWORD PTR _fVisibleRangeSq$550513[ebp], xmm0
  00090	ff 50 70	 call	 DWORD PTR [eax+112]
  00093	8b f8		 mov	 edi, eax
  00095	8b 06		 mov	 eax, DWORD PTR [esi]
  00097	8b ce		 mov	 ecx, esi
  00099	ff 50 70	 call	 DWORD PTR [eax+112]
  0009c	f3 0f 10 00	 movss	 xmm0, DWORD PTR [eax]
  000a0	f3 0f 10 0f	 movss	 xmm1, DWORD PTR [edi]
  000a4	f3 0f 10 57 04	 movss	 xmm2, DWORD PTR [edi+4]
  000a9	f3 0f 10 5f 08	 movss	 xmm3, DWORD PTR [edi+8]
  000ae	0f 5a c9	 cvtps2pd xmm1, xmm1
  000b1	0f 5a c0	 cvtps2pd xmm0, xmm0
  000b4	f2 0f 5c c1	 subsd	 xmm0, xmm1
  000b8	f3 0f 10 48 04	 movss	 xmm1, DWORD PTR [eax+4]
  000bd	0f 5a c9	 cvtps2pd xmm1, xmm1
  000c0	0f 5a d2	 cvtps2pd xmm2, xmm2
  000c3	f2 0f 5c ca	 subsd	 xmm1, xmm2
  000c7	f3 0f 10 50 08	 movss	 xmm2, DWORD PTR [eax+8]
  000cc	66 0f 5a c9	 cvtpd2ps xmm1, xmm1
  000d0	66 0f 5a c0	 cvtpd2ps xmm0, xmm0
  000d4	0f 5a d2	 cvtps2pd xmm2, xmm2

; 318  : 
; 319  : 			if( D3DXVec3LengthSq( &vDiff ) < fVisibleRangeSq )

  000d7	f3 0f 5a c9	 cvtss2sd xmm1, xmm1
  000db	f3 0f 5a c0	 cvtss2sd xmm0, xmm0
  000df	0f 5a db	 cvtps2pd xmm3, xmm3
  000e2	f2 0f 5c d3	 subsd	 xmm2, xmm3
  000e6	f2 0f 59 c9	 mulsd	 xmm1, xmm1
  000ea	f2 0f 59 c0	 mulsd	 xmm0, xmm0
  000ee	f2 0f 58 c8	 addsd	 xmm1, xmm0
  000f2	66 0f 5a d2	 cvtpd2ps xmm2, xmm2
  000f6	f3 0f 5a d2	 cvtss2sd xmm2, xmm2
  000fa	f2 0f 59 d2	 mulsd	 xmm2, xmm2
  000fe	f2 0f 58 ca	 addsd	 xmm1, xmm2
  00102	0f 57 c0	 xorps	 xmm0, xmm0
  00105	66 0f 5a c1	 cvtpd2ps xmm0, xmm1
  00109	f3 0f 10 4d 08	 movss	 xmm1, DWORD PTR _fVisibleRangeSq$550513[ebp]
  0010e	0f 5a c0	 cvtps2pd xmm0, xmm0
  00111	0f 5a c9	 cvtps2pd xmm1, xmm1
  00114	66 0f 2f c8	 comisd	 xmm1, xmm0

; 320  : 				m_bMineVisible = true;

  00118	8d 86 88 14 00
	00		 lea	 eax, DWORD PTR [esi+5256]
  0011e	76 05		 jbe	 SHORT $LN3@VisibleChe
  00120	c6 00 01	 mov	 BYTE PTR [eax], 1

; 321  : 			else

  00123	eb 03		 jmp	 SHORT $LN2@VisibleChe
$LN3@VisibleChe:

; 322  : 				m_bMineVisible = false;

  00125	c6 00 00	 mov	 BYTE PTR [eax], 0
$LN2@VisibleChe:

; 323  : 
; 324  : 			m_pGroup->SetVisible( m_bMineVisible );			

  00128	0f b6 00	 movzx	 eax, BYTE PTR [eax]
  0012b	8b 4e 04	 mov	 ecx, DWORD PTR [esi+4]
  0012e	8b 11		 mov	 edx, DWORD PTR [ecx]
  00130	50		 push	 eax
  00131	ff 12		 call	 DWORD PTR [edx]

; 325  : 		}
; 326  : 	}
; 327  : 	else

  00133	eb 09		 jmp	 SHORT $LN28@VisibleChe
$LN6@VisibleChe:

; 328  : 		m_pGroup->SetVisible( false );

  00135	6a 00		 push	 0
$LN29@VisibleChe:
  00137	8b 4e 04	 mov	 ecx, DWORD PTR [esi+4]
  0013a	8b 01		 mov	 eax, DWORD PTR [ecx]
  0013c	ff 10		 call	 DWORD PTR [eax]
$LN28@VisibleChe:
  0013e	5f		 pop	 edi
$LN8@VisibleChe:
  0013f	5e		 pop	 esi

; 329  : }

  00140	c9		 leave
  00141	c2 04 00	 ret	 4
?VisibleCheck@ioDummyWarpMine@@IAEXPAVioBaseChar@@@Z ENDP ; ioDummyWarpMine::VisibleCheck
_TEXT	ENDS
PUBLIC	?erase@?$vector@PAVioBaseChar@@V?$allocator@PAVioBaseChar@@@std@@@std@@QAE?AV?$_Vector_iterator@V?$_Vector_val@PAVioBaseChar@@V?$allocator@PAVioBaseChar@@@std@@@std@@@2@V?$_Vector_const_iterator@V?$_Vector_val@PAVioBaseChar@@V?$allocator@PAVioBaseChar@@@std@@@std@@@2@0@Z ; std::vector<ioBaseChar *,std::allocator<ioBaseChar *> >::erase
; Function compile flags: /Ogsp
; File c:\program files (x86)\microsoft visual studio 10.0\vc\include\vector
;	COMDAT ?erase@?$vector@PAVioBaseChar@@V?$allocator@PAVioBaseChar@@@std@@@std@@QAE?AV?$_Vector_iterator@V?$_Vector_val@PAVioBaseChar@@V?$allocator@PAVioBaseChar@@@std@@@std@@@2@V?$_Vector_const_iterator@V?$_Vector_val@PAVioBaseChar@@V?$allocator@PAVioBaseChar@@@std@@@std@@@2@0@Z
_TEXT	SEGMENT
___$ReturnUdt$ = 8					; size = 4
__First_arg$ = 12					; size = 4
__Cat$557873 = 16					; size = 1
__Last_arg$ = 16					; size = 4
?erase@?$vector@PAVioBaseChar@@V?$allocator@PAVioBaseChar@@@std@@@std@@QAE?AV?$_Vector_iterator@V?$_Vector_val@PAVioBaseChar@@V?$allocator@PAVioBaseChar@@@std@@@std@@@2@V?$_Vector_const_iterator@V?$_Vector_val@PAVioBaseChar@@V?$allocator@PAVioBaseChar@@@std@@@std@@@2@0@Z PROC ; std::vector<ioBaseChar *,std::allocator<ioBaseChar *> >::erase, COMDAT
; _this$ = ecx

; 1190 : 		{	// erase [_First, _Last)

  00000	55		 push	 ebp
  00001	8b ec		 mov	 ebp, esp

; 1191 : 		iterator _First = _Make_iter(_First_arg);

  00003	8b 45 0c	 mov	 eax, DWORD PTR __First_arg$[ebp]
  00006	56		 push	 esi
  00007	57		 push	 edi
  00008	8b 7d 08	 mov	 edi, DWORD PTR ___$ReturnUdt$[ebp]
  0000b	8b f1		 mov	 esi, ecx
  0000d	89 07		 mov	 DWORD PTR [edi], eax

; 1192 : 		iterator _Last = _Make_iter(_Last_arg);
; 1193 : 
; 1194 : 		if (_First != _Last)

  0000f	3b 45 10	 cmp	 eax, DWORD PTR __Last_arg$[ebp]
  00012	74 16		 je	 SHORT $LN1@erase

; 1195 : 			{	// worth doing, copy down over hole
; 1196 :  #if _ITERATOR_DEBUG_LEVEL == 2
; 1197 : 			if (_Last < _First || _VICONT(_First) != this
; 1198 : 				|| _VIPTR(_First) < this->_Myfirst
; 1199 : 				|| this->_Mylast < _VIPTR(_Last))
; 1200 : 				_DEBUG_ERROR("vector erase iterator outside range");
; 1201 : 			pointer _Ptr = _Move(_VIPTR(_Last), this->_Mylast,
; 1202 : 				_VIPTR(_First));
; 1203 : 			_Orphan_range(_VIPTR(_First), this->_Mylast);
; 1204 : 
; 1205 :  #else /* _ITERATOR_DEBUG_LEVEL == 2 */
; 1206 : 			pointer _Ptr = _Move(_VIPTR(_Last), this->_Mylast,
; 1207 : 				_VIPTR(_First));

  00014	ff 75 10	 push	 DWORD PTR __Cat$557873[ebp]
  00017	8b 4e 04	 mov	 ecx, DWORD PTR [esi+4]
  0001a	50		 push	 eax
  0001b	51		 push	 ecx
  0001c	ff 75 10	 push	 DWORD PTR __Last_arg$[ebp]
  0001f	e8 00 00 00 00	 call	 ??$_Move@PAPAVioBaseChar@@PAPAV1@@std@@YAPAPAVioBaseChar@@PAPAV1@00U_Scalar_ptr_iterator_tag@0@@Z ; std::_Move<ioBaseChar * *,ioBaseChar * *>
  00024	83 c4 10	 add	 esp, 16			; 00000010H

; 1208 :  #endif /* _ITERATOR_DEBUG_LEVEL == 2 */
; 1209 : 
; 1210 : 			_Destroy(_Ptr, this->_Mylast);
; 1211 : 			this->_Mylast = _Ptr;

  00027	89 46 04	 mov	 DWORD PTR [esi+4], eax
$LN1@erase:

; 1212 : 			}
; 1213 : 		return (_First);

  0002a	8b c7		 mov	 eax, edi
  0002c	5f		 pop	 edi
  0002d	5e		 pop	 esi

; 1214 : 		}

  0002e	5d		 pop	 ebp
  0002f	c2 0c 00	 ret	 12			; 0000000cH
?erase@?$vector@PAVioBaseChar@@V?$allocator@PAVioBaseChar@@@std@@@std@@QAE?AV?$_Vector_iterator@V?$_Vector_val@PAVioBaseChar@@V?$allocator@PAVioBaseChar@@@std@@@std@@@2@V?$_Vector_const_iterator@V?$_Vector_val@PAVioBaseChar@@V?$allocator@PAVioBaseChar@@@std@@@std@@@2@0@Z ENDP ; std::vector<ioBaseChar *,std::allocator<ioBaseChar *> >::erase
_TEXT	ENDS
PUBLIC	?_Tidy@?$vector@PAVioBaseChar@@V?$allocator@PAVioBaseChar@@@std@@@std@@IAEXXZ ; std::vector<ioBaseChar *,std::allocator<ioBaseChar *> >::_Tidy
EXTRN	__imp_?_Orphan_all@_Container_base0@std@@QAEXXZ:PROC
; Function compile flags: /Ogsp
;	COMDAT ?_Tidy@?$vector@PAVioBaseChar@@V?$allocator@PAVioBaseChar@@@std@@@std@@IAEXXZ
_TEXT	SEGMENT
?_Tidy@?$vector@PAVioBaseChar@@V?$allocator@PAVioBaseChar@@@std@@@std@@IAEXXZ PROC ; std::vector<ioBaseChar *,std::allocator<ioBaseChar *> >::_Tidy, COMDAT
; _this$ = ecx

; 1301 : 		{	// free all storage

  00000	56		 push	 esi
  00001	8b f1		 mov	 esi, ecx

; 1302 : 		if (this->_Myfirst != 0)

  00003	83 3e 00	 cmp	 DWORD PTR [esi], 0
  00006	74 0e		 je	 SHORT $LN12@Tidy

; 1303 : 			{	// something to free, destroy and deallocate it
; 1304 : 			this->_Orphan_all();

  00008	ff 15 00 00 00
	00		 call	 DWORD PTR __imp_?_Orphan_all@_Container_base0@std@@QAEXXZ

; 1305 : 			_Destroy(this->_Myfirst, this->_Mylast);
; 1306 : 			this->_Alval.deallocate(this->_Myfirst,
; 1307 : 				this->_Myend - this->_Myfirst);

  0000e	ff 36		 push	 DWORD PTR [esi]
  00010	e8 00 00 00 00	 call	 ??3@YAXPAX@Z		; operator delete
  00015	59		 pop	 ecx
$LN12@Tidy:

; 1308 : 			}
; 1309 : 		this->_Myfirst = 0;

  00016	83 26 00	 and	 DWORD PTR [esi], 0

; 1310 : 		this->_Mylast = 0;

  00019	83 66 04 00	 and	 DWORD PTR [esi+4], 0

; 1311 : 		this->_Myend = 0;

  0001d	83 66 08 00	 and	 DWORD PTR [esi+8], 0
  00021	5e		 pop	 esi

; 1312 : 		}

  00022	c3		 ret	 0
?_Tidy@?$vector@PAVioBaseChar@@V?$allocator@PAVioBaseChar@@@std@@@std@@IAEXXZ ENDP ; std::vector<ioBaseChar *,std::allocator<ioBaseChar *> >::_Tidy
_TEXT	ENDS
PUBLIC	?reserve@?$vector@PAVioBaseChar@@V?$allocator@PAVioBaseChar@@@std@@@std@@QAEXI@Z ; std::vector<ioBaseChar *,std::allocator<ioBaseChar *> >::reserve
; Function compile flags: /Ogsp
;	COMDAT ?reserve@?$vector@PAVioBaseChar@@V?$allocator@PAVioBaseChar@@@std@@@std@@QAEXI@Z
_TEXT	SEGMENT
__Count$ = 8						; size = 4
?reserve@?$vector@PAVioBaseChar@@V?$allocator@PAVioBaseChar@@@std@@@std@@QAEXI@Z PROC ; std::vector<ioBaseChar *,std::allocator<ioBaseChar *> >::reserve, COMDAT
; _this$ = ecx

; 746  : 		{	// determine new minimum length of allocated storage

  00000	55		 push	 ebp
  00001	8b ec		 mov	 ebp, esp

; 747  : 		if (max_size() < _Count)

  00003	81 7d 08 ff ff
	ff 3f		 cmp	 DWORD PTR __Count$[ebp], 1073741823 ; 3fffffffH
  0000a	56		 push	 esi
  0000b	8b f1		 mov	 esi, ecx
  0000d	76 0b		 jbe	 SHORT $LN5@reserve

; 748  : 			_Xlen();	// result too long

  0000f	68 00 00 00 00	 push	 OFFSET ??_C@_0BD@OLBABOEK@vector?$DMT?$DO?5too?5long?$AA@
  00014	ff 15 00 00 00
	00		 call	 DWORD PTR __imp_?_Xlength_error@std@@YAXPBD@Z
$LN43@reserve:
$LN5@reserve:

; 749  : 		else if (capacity() < _Count)

  0001a	8b 46 08	 mov	 eax, DWORD PTR [esi+8]
  0001d	2b 06		 sub	 eax, DWORD PTR [esi]
  0001f	c1 f8 02	 sar	 eax, 2
  00022	3b 45 08	 cmp	 eax, DWORD PTR __Count$[ebp]
  00025	73 52		 jae	 SHORT $LN3@reserve

; 750  : 			{	// not enough room, reallocate
; 751  : 			pointer _Ptr = this->_Alval.allocate(_Count);

  00027	53		 push	 ebx
  00028	57		 push	 edi
  00029	6a 00		 push	 0
  0002b	ff 75 08	 push	 DWORD PTR __Count$[ebp]
  0002e	e8 00 00 00 00	 call	 ??$_Allocate@PAVioBaseChar@@@std@@YAPAPAVioBaseChar@@IPAPAV1@@Z ; std::_Allocate<ioBaseChar *>

; 752  : 
; 753  : 			_TRY_BEGIN
; 754  : 			_Umove(this->_Myfirst, this->_Mylast, _Ptr);

  00033	8b 0e		 mov	 ecx, DWORD PTR [esi]
  00035	8d 56 0c	 lea	 edx, DWORD PTR [esi+12]
  00038	52		 push	 edx
  00039	8b d8		 mov	 ebx, eax
  0003b	8b 46 04	 mov	 eax, DWORD PTR [esi+4]
  0003e	53		 push	 ebx
  0003f	50		 push	 eax
  00040	51		 push	 ecx
  00041	e8 00 00 00 00	 call	 ??$_Uninitialized_move@PAPAVioBaseChar@@PAPAV1@V?$allocator@PAVioBaseChar@@@std@@@std@@YAPAPAVioBaseChar@@PAPAV1@00AAV?$allocator@PAVioBaseChar@@@0@@Z ; std::_Uninitialized_move<ioBaseChar * *,ioBaseChar * *,std::allocator<ioBaseChar *> >

; 755  : 			_CATCH_ALL
; 756  : 			this->_Alval.deallocate(_Ptr, _Count);
; 757  : 			_RERAISE;
; 758  : 			_CATCH_END
; 759  : 
; 760  : 			size_type _Size = size();

  00046	8b 06		 mov	 eax, DWORD PTR [esi]
  00048	8b 7e 04	 mov	 edi, DWORD PTR [esi+4]
  0004b	2b f8		 sub	 edi, eax
  0004d	83 c4 18	 add	 esp, 24			; 00000018H
  00050	c1 ff 02	 sar	 edi, 2

; 761  : 			if (this->_Myfirst != 0)

  00053	85 c0		 test	 eax, eax
  00055	74 07		 je	 SHORT $LN39@reserve

; 762  : 				{	// destroy and deallocate old array
; 763  : 				_Destroy(this->_Myfirst, this->_Mylast);
; 764  : 				this->_Alval.deallocate(this->_Myfirst,
; 765  : 					this->_Myend - this->_Myfirst);

  00057	50		 push	 eax
  00058	e8 00 00 00 00	 call	 ??3@YAXPAX@Z		; operator delete
  0005d	59		 pop	 ecx
$LN39@reserve:

; 766  : 				}
; 767  : 
; 768  : 			this->_Orphan_all();

  0005e	8b ce		 mov	 ecx, esi
  00060	ff 15 00 00 00
	00		 call	 DWORD PTR __imp_?_Orphan_all@_Container_base0@std@@QAEXXZ

; 769  : 			this->_Myend = _Ptr + _Count;

  00066	8b 45 08	 mov	 eax, DWORD PTR __Count$[ebp]
  00069	8d 04 83	 lea	 eax, DWORD PTR [ebx+eax*4]
  0006c	89 46 08	 mov	 DWORD PTR [esi+8], eax

; 770  : 			this->_Mylast = _Ptr + _Size;

  0006f	8d 04 bb	 lea	 eax, DWORD PTR [ebx+edi*4]
  00072	5f		 pop	 edi

; 771  : 			this->_Myfirst = _Ptr;

  00073	89 1e		 mov	 DWORD PTR [esi], ebx
  00075	89 46 04	 mov	 DWORD PTR [esi+4], eax
  00078	5b		 pop	 ebx
$LN3@reserve:
  00079	5e		 pop	 esi

; 772  : 			}
; 773  : 		}

  0007a	5d		 pop	 ebp
  0007b	c2 04 00	 ret	 4
$LN42@reserve:
?reserve@?$vector@PAVioBaseChar@@V?$allocator@PAVioBaseChar@@@std@@@std@@QAEXI@Z ENDP ; std::vector<ioBaseChar *,std::allocator<ioBaseChar *> >::reserve
_TEXT	ENDS
PUBLIC	??1?$vector@PAVioBaseChar@@V?$allocator@PAVioBaseChar@@@std@@@std@@QAE@XZ ; std::vector<ioBaseChar *,std::allocator<ioBaseChar *> >::~vector<ioBaseChar *,std::allocator<ioBaseChar *> >
; Function compile flags: /Ogsp
;	COMDAT ??1?$vector@PAVioBaseChar@@V?$allocator@PAVioBaseChar@@@std@@@std@@QAE@XZ
_TEXT	SEGMENT
??1?$vector@PAVioBaseChar@@V?$allocator@PAVioBaseChar@@@std@@@std@@QAE@XZ PROC ; std::vector<ioBaseChar *,std::allocator<ioBaseChar *> >::~vector<ioBaseChar *,std::allocator<ioBaseChar *> >, COMDAT
; _this$ = ecx

; 705  : 		_Tidy();

  00000	e9 00 00 00 00	 jmp	 ?_Tidy@?$vector@PAVioBaseChar@@V?$allocator@PAVioBaseChar@@@std@@@std@@IAEXXZ ; std::vector<ioBaseChar *,std::allocator<ioBaseChar *> >::_Tidy
??1?$vector@PAVioBaseChar@@V?$allocator@PAVioBaseChar@@@std@@@std@@QAE@XZ ENDP ; std::vector<ioBaseChar *,std::allocator<ioBaseChar *> >::~vector<ioBaseChar *,std::allocator<ioBaseChar *> >
_TEXT	ENDS
PUBLIC	?clear@?$vector@PAVioBaseChar@@V?$allocator@PAVioBaseChar@@@std@@@std@@QAEXXZ ; std::vector<ioBaseChar *,std::allocator<ioBaseChar *> >::clear
; Function compile flags: /Ogsp
;	COMDAT ?clear@?$vector@PAVioBaseChar@@V?$allocator@PAVioBaseChar@@@std@@@std@@QAEXXZ
_TEXT	SEGMENT
$T558036 = -4						; size = 4
?clear@?$vector@PAVioBaseChar@@V?$allocator@PAVioBaseChar@@@std@@@std@@QAEXXZ PROC ; std::vector<ioBaseChar *,std::allocator<ioBaseChar *> >::clear, COMDAT
; _this$ = ecx

; 1217 : 		{	// erase all

  00000	55		 push	 ebp
  00001	8b ec		 mov	 ebp, esp
  00003	51		 push	 ecx

; 1218 : 		erase(begin(), end());

  00004	8b 41 04	 mov	 eax, DWORD PTR [ecx+4]
  00007	8b 11		 mov	 edx, DWORD PTR [ecx]
  00009	50		 push	 eax
  0000a	52		 push	 edx
  0000b	8d 45 fc	 lea	 eax, DWORD PTR $T558036[ebp]
  0000e	50		 push	 eax
  0000f	e8 00 00 00 00	 call	 ?erase@?$vector@PAVioBaseChar@@V?$allocator@PAVioBaseChar@@@std@@@std@@QAE?AV?$_Vector_iterator@V?$_Vector_val@PAVioBaseChar@@V?$allocator@PAVioBaseChar@@@std@@@std@@@2@V?$_Vector_const_iterator@V?$_Vector_val@PAVioBaseChar@@V?$allocator@PAVioBaseChar@@@std@@@std@@@2@0@Z ; std::vector<ioBaseChar *,std::allocator<ioBaseChar *> >::erase

; 1219 : 		}

  00014	c9		 leave
  00015	c3		 ret	 0
?clear@?$vector@PAVioBaseChar@@V?$allocator@PAVioBaseChar@@@std@@@std@@QAEXXZ ENDP ; std::vector<ioBaseChar *,std::allocator<ioBaseChar *> >::clear
_TEXT	ENDS
PUBLIC	?_Reserve@?$vector@PAVioBaseChar@@V?$allocator@PAVioBaseChar@@@std@@@std@@IAEXI@Z ; std::vector<ioBaseChar *,std::allocator<ioBaseChar *> >::_Reserve
; Function compile flags: /Ogsp
;	COMDAT ?_Reserve@?$vector@PAVioBaseChar@@V?$allocator@PAVioBaseChar@@@std@@@std@@IAEXI@Z
_TEXT	SEGMENT
__Count$ = 8						; size = 4
?_Reserve@?$vector@PAVioBaseChar@@V?$allocator@PAVioBaseChar@@@std@@@std@@IAEXI@Z PROC ; std::vector<ioBaseChar *,std::allocator<ioBaseChar *> >::_Reserve, COMDAT
; _this$ = ecx

; 1290 : 		{	// ensure room for _Count new elements, grow exponentially

  00000	55		 push	 ebp
  00001	8b ec		 mov	 ebp, esp
  00003	56		 push	 esi
  00004	8b f1		 mov	 esi, ecx

; 1291 : 		size_type _Size = size();

  00006	8b 0e		 mov	 ecx, DWORD PTR [esi]
  00008	8b 46 04	 mov	 eax, DWORD PTR [esi+4]
  0000b	2b c1		 sub	 eax, ecx

; 1292 : 		if (max_size() - _Count < _Size)

  0000d	ba ff ff ff 3f	 mov	 edx, 1073741823		; 3fffffffH
  00012	2b 55 08	 sub	 edx, DWORD PTR __Count$[ebp]
  00015	c1 f8 02	 sar	 eax, 2
  00018	3b d0		 cmp	 edx, eax
  0001a	73 0b		 jae	 SHORT $LN4@Reserve

; 1293 : 			_Xlen();

  0001c	68 00 00 00 00	 push	 OFFSET ??_C@_0BD@OLBABOEK@vector?$DMT?$DO?5too?5long?$AA@
  00021	ff 15 00 00 00
	00		 call	 DWORD PTR __imp_?_Xlength_error@std@@YAXPBD@Z
$LN21@Reserve:
$LN4@Reserve:

; 1294 : 		else if ((_Size += _Count) <= capacity())

  00027	8b 56 08	 mov	 edx, DWORD PTR [esi+8]
  0002a	03 45 08	 add	 eax, DWORD PTR __Count$[ebp]
  0002d	2b d1		 sub	 edx, ecx
  0002f	c1 fa 02	 sar	 edx, 2
  00032	3b c2		 cmp	 eax, edx
  00034	76 10		 jbe	 SHORT $LN1@Reserve

; 1295 : 			;
; 1296 : 		else
; 1297 : 			reserve(_Grow_to(_Size));

  00036	50		 push	 eax
  00037	8b ce		 mov	 ecx, esi
  00039	e8 00 00 00 00	 call	 ?_Grow_to@?$vector@PAVioBaseChar@@V?$allocator@PAVioBaseChar@@@std@@@std@@IBEII@Z ; std::vector<ioBaseChar *,std::allocator<ioBaseChar *> >::_Grow_to
  0003e	50		 push	 eax
  0003f	8b ce		 mov	 ecx, esi
  00041	e8 00 00 00 00	 call	 ?reserve@?$vector@PAVioBaseChar@@V?$allocator@PAVioBaseChar@@@std@@@std@@QAEXI@Z ; std::vector<ioBaseChar *,std::allocator<ioBaseChar *> >::reserve
$LN1@Reserve:
  00046	5e		 pop	 esi

; 1298 : 		}

  00047	5d		 pop	 ebp
  00048	c2 04 00	 ret	 4
$LN20@Reserve:
?_Reserve@?$vector@PAVioBaseChar@@V?$allocator@PAVioBaseChar@@@std@@@std@@IAEXI@Z ENDP ; std::vector<ioBaseChar *,std::allocator<ioBaseChar *> >::_Reserve
_TEXT	ENDS
PUBLIC	?push_back@?$vector@PAVioBaseChar@@V?$allocator@PAVioBaseChar@@@std@@@std@@QAEXABQAVioBaseChar@@@Z ; std::vector<ioBaseChar *,std::allocator<ioBaseChar *> >::push_back
; Function compile flags: /Ogsp
;	COMDAT ?push_back@?$vector@PAVioBaseChar@@V?$allocator@PAVioBaseChar@@@std@@@std@@QAEXABQAVioBaseChar@@@Z
_TEXT	SEGMENT
__Val$ = 8						; size = 4
?push_back@?$vector@PAVioBaseChar@@V?$allocator@PAVioBaseChar@@@std@@@std@@QAEXABQAVioBaseChar@@@Z PROC ; std::vector<ioBaseChar *,std::allocator<ioBaseChar *> >::push_back, COMDAT
; _this$ = ecx

; 976  : 		{	// insert element at end

  00000	55		 push	 ebp
  00001	8b ec		 mov	 ebp, esp
  00003	56		 push	 esi
  00004	8b f1		 mov	 esi, ecx

; 977  : 		if (_Inside(_STD addressof(_Val)))

  00006	8b 46 04	 mov	 eax, DWORD PTR [esi+4]
  00009	57		 push	 edi
  0000a	8b 7d 08	 mov	 edi, DWORD PTR __Val$[ebp]
  0000d	3b f8		 cmp	 edi, eax
  0000f	73 27		 jae	 SHORT $LN4@push_back
  00011	8b 0e		 mov	 ecx, DWORD PTR [esi]
  00013	3b cf		 cmp	 ecx, edi
  00015	77 21		 ja	 SHORT $LN4@push_back

; 978  : 			{	// push back an element
; 979  : 			size_type _Idx = _STD addressof(_Val) - this->_Myfirst;

  00017	2b f9		 sub	 edi, ecx
  00019	c1 ff 02	 sar	 edi, 2

; 980  : 			if (this->_Mylast == this->_Myend)

  0001c	3b 46 08	 cmp	 eax, DWORD PTR [esi+8]
  0001f	75 09		 jne	 SHORT $LN3@push_back

; 981  : 				_Reserve(1);

  00021	6a 01		 push	 1
  00023	8b ce		 mov	 ecx, esi
  00025	e8 00 00 00 00	 call	 ?_Reserve@?$vector@PAVioBaseChar@@V?$allocator@PAVioBaseChar@@@std@@@std@@IAEXI@Z ; std::vector<ioBaseChar *,std::allocator<ioBaseChar *> >::_Reserve
$LN3@push_back:

; 982  : 			_Orphan_range(this->_Mylast, this->_Mylast);
; 983  : 			_Cons_val(this->_Alval,
; 984  : 				this->_Mylast,
; 985  : 				this->_Myfirst[_Idx]);

  0002a	8b 46 04	 mov	 eax, DWORD PTR [esi+4]
  0002d	85 c0		 test	 eax, eax
  0002f	74 20		 je	 SHORT $LN39@push_back
  00031	8b 0e		 mov	 ecx, DWORD PTR [esi]
  00033	8b 0c b9	 mov	 ecx, DWORD PTR [ecx+edi*4]

; 986  : 			++this->_Mylast;
; 987  : 			}
; 988  : 		else

  00036	eb 17		 jmp	 SHORT $LN46@push_back
$LN4@push_back:

; 989  : 			{	// push back a non-element
; 990  : 			if (this->_Mylast == this->_Myend)

  00038	3b 46 08	 cmp	 eax, DWORD PTR [esi+8]
  0003b	75 09		 jne	 SHORT $LN1@push_back

; 991  : 				_Reserve(1);

  0003d	6a 01		 push	 1
  0003f	8b ce		 mov	 ecx, esi
  00041	e8 00 00 00 00	 call	 ?_Reserve@?$vector@PAVioBaseChar@@V?$allocator@PAVioBaseChar@@@std@@@std@@IAEXI@Z ; std::vector<ioBaseChar *,std::allocator<ioBaseChar *> >::_Reserve
$LN1@push_back:

; 992  : 			_Orphan_range(this->_Mylast, this->_Mylast);
; 993  : 			_Cons_val(this->_Alval,
; 994  : 				this->_Mylast,
; 995  : 				_Val);

  00046	8b 46 04	 mov	 eax, DWORD PTR [esi+4]
  00049	85 c0		 test	 eax, eax
  0004b	74 04		 je	 SHORT $LN39@push_back
  0004d	8b 0f		 mov	 ecx, DWORD PTR [edi]
$LN46@push_back:
  0004f	89 08		 mov	 DWORD PTR [eax], ecx
$LN39@push_back:

; 996  : 			++this->_Mylast;

  00051	83 46 04 04	 add	 DWORD PTR [esi+4], 4
  00055	5f		 pop	 edi
  00056	5e		 pop	 esi

; 997  : 			}
; 998  : 		}

  00057	5d		 pop	 ebp
  00058	c2 04 00	 ret	 4
?push_back@?$vector@PAVioBaseChar@@V?$allocator@PAVioBaseChar@@@std@@@std@@QAEXABQAVioBaseChar@@@Z ENDP ; std::vector<ioBaseChar *,std::allocator<ioBaseChar *> >::push_back
_TEXT	ENDS
PUBLIC	_fColRange$GSCopy$
PUBLIC	_vCharList$GSCopy$
PUBLIC	_vPos$GSCopy$
PUBLIC	?GetTargetList@ioDummyWarpMine@@IAEXPAVioPlayStage@@ABUD3DXVECTOR3@@1AAV?$vector@PAVioBaseChar@@V?$allocator@PAVioBaseChar@@@std@@@std@@MMMM@Z ; ioDummyWarpMine::GetTargetList
EXTRN	__imp_??1ioCylinder@@QAE@XZ:PROC
EXTRN	_D3DXVec3Normalize@8:PROC
EXTRN	__imp_?GetCenter@ioCylinder@@QBEABUD3DXVECTOR3@@XZ:PROC
EXTRN	__imp_??0ioCylinder@@QAE@ABUD3DXVECTOR3@@0M@Z:PROC
;	COMDAT xdata$x
; File c:\program files (x86)\microsoft directx sdk (june 2010)\include\d3dx9math.inl
xdata$x	SEGMENT
__unwindtable$?GetTargetList@ioDummyWarpMine@@IAEXPAVioPlayStage@@ABUD3DXVECTOR3@@1AAV?$vector@PAVioBaseChar@@V?$allocator@PAVioBaseChar@@@std@@@std@@MMMM@Z DD 0ffffffffH
	DD	FLAT:__unwindfunclet$?GetTargetList@ioDummyWarpMine@@IAEXPAVioPlayStage@@ABUD3DXVECTOR3@@1AAV?$vector@PAVioBaseChar@@V?$allocator@PAVioBaseChar@@@std@@@std@@MMMM@Z$0
__ehfuncinfo$?GetTargetList@ioDummyWarpMine@@IAEXPAVioPlayStage@@ABUD3DXVECTOR3@@1AAV?$vector@PAVioBaseChar@@V?$allocator@PAVioBaseChar@@@std@@@std@@MMMM@Z DD 019930522H
	DD	01H
	DD	FLAT:__unwindtable$?GetTargetList@ioDummyWarpMine@@IAEXPAVioPlayStage@@ABUD3DXVECTOR3@@1AAV?$vector@PAVioBaseChar@@V?$allocator@PAVioBaseChar@@@std@@@std@@MMMM@Z
	DD	2 DUP(00H)
	DD	2 DUP(00H)
	DD	00H
	DD	01H
; Function compile flags: /Ogsp
; File d:\lost saga for developer\youtube\tutorial\source\src\lsclient\iodummywarpmine.cpp
xdata$x	ENDS
;	COMDAT ?GetTargetList@ioDummyWarpMine@@IAEXPAVioPlayStage@@ABUD3DXVECTOR3@@1AAV?$vector@PAVioBaseChar@@V?$allocator@PAVioBaseChar@@@std@@@std@@MMMM@Z
_TEXT	SEGMENT
tv565 = -132						; size = 8
_vCharList$GSCopy$ = -124				; size = 4
$T558306 = -120						; size = 4
_pChar$550668 = -120					; size = 4
_fColRange$GSCopy$ = -116				; size = 4
_fRangeSq$ = -116					; size = 4
tv616 = -112						; size = 4
tv614 = -112						; size = 4
tv608 = -112						; size = 4
_vPos$GSCopy$ = -112					; size = 4
_fHalfCosine$ = -112					; size = 4
_kCylinder$ = -108					; size = 32
_vCenter$ = -76						; size = 12
_vTop$ = -64						; size = 12
_vCollisionPoint$550670 = -52				; size = 12
_vBottom$ = -40						; size = 12
_vDiff1$550672 = -28					; size = 12
__$EHRec$ = -12						; size = 12
_pStage$ = 8						; size = 4
_vPos$ = 12						; size = 4
_vColDir$ = 16						; size = 4
_vCharList$ = 20					; size = 4
_fColUpHeight$ = 24					; size = 4
_fColUnderHeight$ = 28					; size = 4
_fColRange$ = 32					; size = 4
_fColAngle$ = 36					; size = 4
?GetTargetList@ioDummyWarpMine@@IAEXPAVioPlayStage@@ABUD3DXVECTOR3@@1AAV?$vector@PAVioBaseChar@@V?$allocator@PAVioBaseChar@@@std@@@std@@MMMM@Z PROC ; ioDummyWarpMine::GetTargetList, COMDAT
; _this$ = ecx

; 368  : {

  00000	6a 78		 push	 120			; 00000078H
  00002	b8 00 00 00 00	 mov	 eax, __ehhandler$?GetTargetList@ioDummyWarpMine@@IAEXPAVioPlayStage@@ABUD3DXVECTOR3@@1AAV?$vector@PAVioBaseChar@@V?$allocator@PAVioBaseChar@@@std@@@std@@MMMM@Z
  00007	e8 00 00 00 00	 call	 __EH_prolog3_GS
  0000c	8b 5d 08	 mov	 ebx, DWORD PTR _pStage$[ebp]
  0000f	8b 75 0c	 mov	 esi, DWORD PTR _vPos$[ebp]
  00012	8b 4d 14	 mov	 ecx, DWORD PTR _vCharList$[ebp]
  00015	f3 0f 10 45 20	 movss	 xmm0, DWORD PTR _fColRange$[ebp]

; 386  : 
; 387  : 	const BaseCharList &rkTargetList = pStage->GetBaseCharList();
; 388  : 
; 389  : 	BaseCharList::const_iterator iter;
; 390  : 	for( iter = rkTargetList.begin(); iter != rkTargetList.end(); ++iter )

  0001a	89 75 90	 mov	 DWORD PTR _vPos$GSCopy$[ebp], esi
  0001d	89 4d 84	 mov	 DWORD PTR _vCharList$GSCopy$[ebp], ecx

; 409  : 		if( D3DXVec3Dot( &vColDir, &vDiff1 ) < fHalfCosine )

  00020	f3 0f 11 45 8c	 movss	 DWORD PTR _fColRange$GSCopy$[ebp], xmm0
  00025	85 db		 test	 ebx, ebx
  00027	0f 84 5d 02 00
	00		 je	 $LN11@GetTargetL

; 369  : 	if ( !pStage )
; 370  : 		return;
; 371  : 
; 372  : 	vCharList.clear();

  0002d	8b 41 04	 mov	 eax, DWORD PTR [ecx+4]
  00030	8b 11		 mov	 edx, DWORD PTR [ecx]
  00032	50		 push	 eax
  00033	52		 push	 edx
  00034	8d 45 88	 lea	 eax, DWORD PTR $T558306[ebp]
  00037	50		 push	 eax
  00038	e8 00 00 00 00	 call	 ?erase@?$vector@PAVioBaseChar@@V?$allocator@PAVioBaseChar@@@std@@@std@@QAE?AV?$_Vector_iterator@V?$_Vector_val@PAVioBaseChar@@V?$allocator@PAVioBaseChar@@@std@@@std@@@2@V?$_Vector_const_iterator@V?$_Vector_val@PAVioBaseChar@@V?$allocator@PAVioBaseChar@@@std@@@std@@@2@0@Z ; std::vector<ioBaseChar *,std::allocator<ioBaseChar *> >::erase

; 373  : 
; 374  : 	if( fColUpHeight == 0.0f && fColUnderHeight == 0.0f )

  0003d	f3 0f 10 4d 18	 movss	 xmm1, DWORD PTR _fColUpHeight$[ebp]
  00042	0f 57 c0	 xorps	 xmm0, xmm0
  00045	f3 0f 10 55 1c	 movss	 xmm2, DWORD PTR _fColUnderHeight$[ebp]
  0004a	0f 2e c8	 ucomiss xmm1, xmm0
  0004d	9f		 lahf
  0004e	f6 c4 44	 test	 ah, 68			; 00000044H
  00051	7a 0d		 jp	 SHORT $LN9@GetTargetL
  00053	0f 2e d0	 ucomiss xmm2, xmm0
  00056	9f		 lahf
  00057	f6 c4 44	 test	 ah, 68			; 00000044H
  0005a	0f 8b 2a 02 00
	00		 jnp	 $LN11@GetTargetL
$LN9@GetTargetL:

; 375  : 		return;
; 376  : 
; 377  : 	D3DXVECTOR3 vTop, vBottom, vCenter;
; 378  : 	vTop = vBottom = vPos;

  00060	8d 7d d8	 lea	 edi, DWORD PTR _vBottom$[ebp]
  00063	a5		 movsd
  00064	a5		 movsd
  00065	a5		 movsd
  00066	8b 75 90	 mov	 esi, DWORD PTR _vPos$GSCopy$[ebp]
  00069	8d 7d c0	 lea	 edi, DWORD PTR _vTop$[ebp]
  0006c	a5		 movsd
  0006d	a5		 movsd
  0006e	a5		 movsd

; 379  : 	vTop.y += fColUpHeight;

  0006f	f3 0f 10 45 c4	 movss	 xmm0, DWORD PTR _vTop$[ebp+4]
  00074	0f 5a c0	 cvtps2pd xmm0, xmm0
  00077	0f 5a c9	 cvtps2pd xmm1, xmm1
  0007a	f2 0f 58 c1	 addsd	 xmm0, xmm1
  0007e	66 0f 5a c0	 cvtpd2ps xmm0, xmm0
  00082	f3 0f 11 45 c4	 movss	 DWORD PTR _vTop$[ebp+4], xmm0

; 380  : 	vBottom.y -= fColUnderHeight;

  00087	f3 0f 10 45 dc	 movss	 xmm0, DWORD PTR _vBottom$[ebp+4]
  0008c	0f 5a c0	 cvtps2pd xmm0, xmm0
  0008f	0f 57 c9	 xorps	 xmm1, xmm1
  00092	0f 5a ca	 cvtps2pd xmm1, xmm2
  00095	f2 0f 5c c1	 subsd	 xmm0, xmm1

; 381  : 	ioCylinder kCylinder( vTop, vBottom, fColRange );

  00099	51		 push	 ecx
  0009a	66 0f 5a c0	 cvtpd2ps xmm0, xmm0
  0009e	f3 0f 11 45 dc	 movss	 DWORD PTR _vBottom$[ebp+4], xmm0
  000a3	f3 0f 10 45 8c	 movss	 xmm0, DWORD PTR _fColRange$GSCopy$[ebp]
  000a8	f3 0f 11 04 24	 movss	 DWORD PTR [esp], xmm0
  000ad	8d 45 d8	 lea	 eax, DWORD PTR _vBottom$[ebp]
  000b0	50		 push	 eax
  000b1	8d 45 c0	 lea	 eax, DWORD PTR _vTop$[ebp]
  000b4	50		 push	 eax
  000b5	8d 4d 94	 lea	 ecx, DWORD PTR _kCylinder$[ebp]
  000b8	ff 15 00 00 00
	00		 call	 DWORD PTR __imp_??0ioCylinder@@QAE@ABUD3DXVECTOR3@@0M@Z
  000be	83 65 fc 00	 and	 DWORD PTR __$EHRec$[ebp+8], 0

; 382  : 	vCenter = kCylinder.GetCenter();

  000c2	8d 4d 94	 lea	 ecx, DWORD PTR _kCylinder$[ebp]
  000c5	ff 15 00 00 00
	00		 call	 DWORD PTR __imp_?GetCenter@ioCylinder@@QBEABUD3DXVECTOR3@@XZ

; 383  : 
; 384  : 	float fRangeSq = fColRange * fColRange;
; 385  : 	float fHalfCosine = cosf( DEGtoRAD( fColAngle ) * 0.5f );

  000cb	d9 45 24	 fld	 DWORD PTR _fColAngle$[ebp]
  000ce	dc 0d 00 00 00
	00		 fmul	 QWORD PTR __real@3f91df46a2526c7a
  000d4	f3 0f 10 45 8c	 movss	 xmm0, DWORD PTR _fColRange$GSCopy$[ebp]
  000d9	8b f0		 mov	 esi, eax
  000db	8d 7d b4	 lea	 edi, DWORD PTR _vCenter$[ebp]
  000de	d9 5d 90	 fstp	 DWORD PTR tv616[ebp]
  000e1	a5		 movsd
  000e2	d9 45 90	 fld	 DWORD PTR tv616[ebp]
  000e5	dc 0d 00 00 00
	00		 fmul	 QWORD PTR __real@3fe0000000000000
  000eb	a5		 movsd
  000ec	d9 5d 90	 fstp	 DWORD PTR tv614[ebp]
  000ef	d9 45 90	 fld	 DWORD PTR tv614[ebp]
  000f2	0f 5a c0	 cvtps2pd xmm0, xmm0
  000f5	f2 0f 59 c0	 mulsd	 xmm0, xmm0
  000f9	f2 0f 5a c0	 cvtsd2ss xmm0, xmm0
  000fd	a5		 movsd
  000fe	f3 0f 11 45 8c	 movss	 DWORD PTR _fRangeSq$[ebp], xmm0
  00103	e8 00 00 00 00	 call	 __CIcos

; 386  : 
; 387  : 	const BaseCharList &rkTargetList = pStage->GetBaseCharList();
; 388  : 
; 389  : 	BaseCharList::const_iterator iter;
; 390  : 	for( iter = rkTargetList.begin(); iter != rkTargetList.end(); ++iter )

  00108	8b 73 2c	 mov	 esi, DWORD PTR [ebx+44]
  0010b	d9 5d 90	 fstp	 DWORD PTR tv608[ebp]
  0010e	d9 45 90	 fld	 DWORD PTR tv608[ebp]
  00111	d9 5d 90	 fstp	 DWORD PTR _fHalfCosine$[ebp]
  00114	3b 73 30	 cmp	 esi, DWORD PTR [ebx+48]
  00117	0f 84 60 01 00
	00		 je	 $LN6@GetTargetL
  0011d	8b 7d 10	 mov	 edi, DWORD PTR _vColDir$[ebp]
$LL52@GetTargetL:

; 391  : 	{
; 392  : 		ioBaseChar *pChar = *iter;

  00120	8b 0e		 mov	 ecx, DWORD PTR [esi]
  00122	89 4d 88	 mov	 DWORD PTR _pChar$550668[ebp], ecx

; 393  : 		if( !pChar ) continue;

  00125	85 c9		 test	 ecx, ecx
  00127	0f 84 44 01 00
	00		 je	 $LN7@GetTargetL

; 394  : 
; 395  : 		D3DXVECTOR3 vCollisionPoint;
; 396  : 		if( !pChar->CheckCylinderPoint( kCylinder, vCenter, vCollisionPoint ) )

  0012d	8b 01		 mov	 eax, DWORD PTR [ecx]
  0012f	8d 55 cc	 lea	 edx, DWORD PTR _vCollisionPoint$550670[ebp]
  00132	52		 push	 edx
  00133	8d 55 b4	 lea	 edx, DWORD PTR _vCenter$[ebp]
  00136	52		 push	 edx
  00137	8d 55 94	 lea	 edx, DWORD PTR _kCylinder$[ebp]
  0013a	52		 push	 edx
  0013b	ff 90 a0 00 00
	00		 call	 DWORD PTR [eax+160]
  00141	84 c0		 test	 al, al
  00143	0f 84 28 01 00
	00		 je	 $LN7@GetTargetL

; 397  : 			continue;
; 398  : 
; 399  : 		//   
; 400  : 		D3DXVECTOR3 vDiff1 = vCollisionPoint - vCenter;

  00149	f3 0f 10 45 cc	 movss	 xmm0, DWORD PTR _vCollisionPoint$550670[ebp]
  0014e	f3 0f 10 4d b4	 movss	 xmm1, DWORD PTR _vCenter$[ebp]
  00153	f3 0f 10 55 bc	 movss	 xmm2, DWORD PTR _vCenter$[ebp+8]
  00158	0f 5a c0	 cvtps2pd xmm0, xmm0
  0015b	0f 5a c9	 cvtps2pd xmm1, xmm1
  0015e	f2 0f 5c c1	 subsd	 xmm0, xmm1
  00162	f3 0f 10 4d d4	 movss	 xmm1, DWORD PTR _vCollisionPoint$550670[ebp+8]
  00167	66 0f 5a c0	 cvtpd2ps xmm0, xmm0
  0016b	f3 0f 11 45 e4	 movss	 DWORD PTR _vDiff1$550672[ebp], xmm0
  00170	0f 5a c9	 cvtps2pd xmm1, xmm1

; 401  : 		vDiff1.y = 0.0f;
; 402  : 
; 403  : 		float fTargetDist = D3DXVec3LengthSq( &vDiff1 );

  00173	f3 0f 5a c0	 cvtss2sd xmm0, xmm0
  00177	0f 5a d2	 cvtps2pd xmm2, xmm2
  0017a	f2 0f 5c ca	 subsd	 xmm1, xmm2
  0017e	0f 57 d2	 xorps	 xmm2, xmm2
  00181	f2 0f 59 c0	 mulsd	 xmm0, xmm0
  00185	f2 0f 11 85 7c
	ff ff ff	 movsd	 QWORD PTR tv565[ebp], xmm0
  0018d	0f 57 c0	 xorps	 xmm0, xmm0
  00190	66 0f 5a c9	 cvtpd2ps xmm1, xmm1
  00194	f3 0f 11 4d ec	 movss	 DWORD PTR _vDiff1$550672[ebp+8], xmm1
  00199	f3 0f 11 55 e8	 movss	 DWORD PTR _vDiff1$550672[ebp+4], xmm2
  0019e	f2 0f 10 95 7c
	ff ff ff	 movsd	 xmm2, QWORD PTR tv565[ebp]
  001a6	f2 0f 59 c0	 mulsd	 xmm0, xmm0
  001aa	f3 0f 5a c9	 cvtss2sd xmm1, xmm1
  001ae	f2 0f 58 d0	 addsd	 xmm2, xmm0
  001b2	f2 0f 59 c9	 mulsd	 xmm1, xmm1
  001b6	f2 0f 58 d1	 addsd	 xmm2, xmm1

; 404  : 		if( fTargetDist > fRangeSq )

  001ba	f3 0f 10 4d 8c	 movss	 xmm1, DWORD PTR _fRangeSq$[ebp]
  001bf	0f 57 c0	 xorps	 xmm0, xmm0
  001c2	66 0f 5a c2	 cvtpd2ps xmm0, xmm2
  001c6	0f 5a c0	 cvtps2pd xmm0, xmm0
  001c9	0f 5a c9	 cvtps2pd xmm1, xmm1
  001cc	66 0f 2f c1	 comisd	 xmm0, xmm1
  001d0	0f 87 9b 00 00
	00		 ja	 $LN7@GetTargetL

; 405  : 			continue;
; 406  : 
; 407  : 		//   
; 408  : 		D3DXVec3Normalize( &vDiff1, &vDiff1 );

  001d6	8d 45 e4	 lea	 eax, DWORD PTR _vDiff1$550672[ebp]
  001d9	50		 push	 eax
  001da	50		 push	 eax
  001db	e8 00 00 00 00	 call	 _D3DXVec3Normalize@8

; 409  : 		if( D3DXVec3Dot( &vColDir, &vDiff1 ) < fHalfCosine )

  001e0	f3 0f 10 4d e8	 movss	 xmm1, DWORD PTR _vDiff1$550672[ebp+4]
  001e5	f3 0f 10 47 04	 movss	 xmm0, DWORD PTR [edi+4]
  001ea	f3 0f 10 17	 movss	 xmm2, DWORD PTR [edi]
  001ee	0f 5a c9	 cvtps2pd xmm1, xmm1
  001f1	0f 5a c0	 cvtps2pd xmm0, xmm0
  001f4	f2 0f 59 c1	 mulsd	 xmm0, xmm1
  001f8	f3 0f 10 4d e4	 movss	 xmm1, DWORD PTR _vDiff1$550672[ebp]
  001fd	0f 5a c9	 cvtps2pd xmm1, xmm1
  00200	0f 5a d2	 cvtps2pd xmm2, xmm2
  00203	f2 0f 59 ca	 mulsd	 xmm1, xmm2
  00207	f3 0f 10 55 ec	 movss	 xmm2, DWORD PTR _vDiff1$550672[ebp+8]
  0020c	f2 0f 58 c1	 addsd	 xmm0, xmm1
  00210	f3 0f 10 4f 08	 movss	 xmm1, DWORD PTR [edi+8]
  00215	0f 5a c9	 cvtps2pd xmm1, xmm1
  00218	0f 5a d2	 cvtps2pd xmm2, xmm2
  0021b	f2 0f 59 ca	 mulsd	 xmm1, xmm2
  0021f	f2 0f 58 c1	 addsd	 xmm0, xmm1
  00223	f3 0f 10 4d 90	 movss	 xmm1, DWORD PTR _fHalfCosine$[ebp]
  00228	66 0f 5a c0	 cvtpd2ps xmm0, xmm0
  0022c	f3 0f 5a c0	 cvtss2sd xmm0, xmm0
  00230	0f 5a c9	 cvtps2pd xmm1, xmm1
  00233	66 0f 2f c8	 comisd	 xmm1, xmm0
  00237	77 38		 ja	 SHORT $LN7@GetTargetL

; 410  : 			continue;
; 411  : 
; 412  : 		//  
; 413  : 		if( vCollisionPoint.y >= vBottom.y && vCollisionPoint.y <= vTop.y )

  00239	f3 0f 10 45 d0	 movss	 xmm0, DWORD PTR _vCollisionPoint$550670[ebp+4]
  0023e	f3 0f 10 4d dc	 movss	 xmm1, DWORD PTR _vBottom$[ebp+4]
  00243	0f 5a c0	 cvtps2pd xmm0, xmm0
  00246	0f 5a c9	 cvtps2pd xmm1, xmm1
  00249	66 0f 2f c1	 comisd	 xmm0, xmm1
  0024d	72 22		 jb	 SHORT $LN7@GetTargetL
  0024f	f3 0f 10 45 d0	 movss	 xmm0, DWORD PTR _vCollisionPoint$550670[ebp+4]
  00254	f3 0f 10 4d c4	 movss	 xmm1, DWORD PTR _vTop$[ebp+4]
  00259	0f 5a c0	 cvtps2pd xmm0, xmm0
  0025c	0f 5a c9	 cvtps2pd xmm1, xmm1
  0025f	66 0f 2f c8	 comisd	 xmm1, xmm0
  00263	72 0c		 jb	 SHORT $LN7@GetTargetL

; 414  : 			vCharList.push_back( pChar );

  00265	8b 4d 84	 mov	 ecx, DWORD PTR _vCharList$GSCopy$[ebp]
  00268	8d 45 88	 lea	 eax, DWORD PTR _pChar$550668[ebp]
  0026b	50		 push	 eax
  0026c	e8 00 00 00 00	 call	 ?push_back@?$vector@PAVioBaseChar@@V?$allocator@PAVioBaseChar@@@std@@@std@@QAEXABQAVioBaseChar@@@Z ; std::vector<ioBaseChar *,std::allocator<ioBaseChar *> >::push_back
$LN7@GetTargetL:

; 386  : 
; 387  : 	const BaseCharList &rkTargetList = pStage->GetBaseCharList();
; 388  : 
; 389  : 	BaseCharList::const_iterator iter;
; 390  : 	for( iter = rkTargetList.begin(); iter != rkTargetList.end(); ++iter )

  00271	83 c6 04	 add	 esi, 4
  00274	3b 73 30	 cmp	 esi, DWORD PTR [ebx+48]
  00277	0f 85 a3 fe ff
	ff		 jne	 $LL52@GetTargetL
$LN6@GetTargetL:

; 415  : 	}
; 416  : }

  0027d	83 4d fc ff	 or	 DWORD PTR __$EHRec$[ebp+8], -1
  00281	8d 4d 94	 lea	 ecx, DWORD PTR _kCylinder$[ebp]
  00284	ff 15 00 00 00
	00		 call	 DWORD PTR __imp_??1ioCylinder@@QAE@XZ
$LN11@GetTargetL:
  0028a	e8 00 00 00 00	 call	 __EH_epilog3_GS
  0028f	c2 20 00	 ret	 32			; 00000020H
_TEXT	ENDS
;	COMDAT text$x
text$x	SEGMENT
__unwindfunclet$?GetTargetList@ioDummyWarpMine@@IAEXPAVioPlayStage@@ABUD3DXVECTOR3@@1AAV?$vector@PAVioBaseChar@@V?$allocator@PAVioBaseChar@@@std@@@std@@MMMM@Z$0:
  00000	8d 4d 94	 lea	 ecx, DWORD PTR _kCylinder$[ebp]
  00003	ff 25 00 00 00
	00		 jmp	 DWORD PTR __imp_??1ioCylinder@@QAE@XZ
__ehhandler$?GetTargetList@ioDummyWarpMine@@IAEXPAVioPlayStage@@ABUD3DXVECTOR3@@1AAV?$vector@PAVioBaseChar@@V?$allocator@PAVioBaseChar@@@std@@@std@@MMMM@Z:
  00009	8b 54 24 08	 mov	 edx, DWORD PTR [esp+8]
  0000d	8d 42 0c	 lea	 eax, DWORD PTR [edx+12]
  00010	8b 8a 78 ff ff
	ff		 mov	 ecx, DWORD PTR [edx-136]
  00016	33 c8		 xor	 ecx, eax
  00018	e8 00 00 00 00	 call	 @__security_check_cookie@4
  0001d	8b 4a fc	 mov	 ecx, DWORD PTR [edx-4]
  00020	33 c8		 xor	 ecx, eax
  00022	e8 00 00 00 00	 call	 @__security_check_cookie@4
  00027	b8 00 00 00 00	 mov	 eax, OFFSET __ehfuncinfo$?GetTargetList@ioDummyWarpMine@@IAEXPAVioPlayStage@@ABUD3DXVECTOR3@@1AAV?$vector@PAVioBaseChar@@V?$allocator@PAVioBaseChar@@@std@@@std@@MMMM@Z
  0002c	e9 00 00 00 00	 jmp	 ___CxxFrameHandler3
text$x	ENDS
?GetTargetList@ioDummyWarpMine@@IAEXPAVioPlayStage@@ABUD3DXVECTOR3@@1AAV?$vector@PAVioBaseChar@@V?$allocator@PAVioBaseChar@@@std@@@std@@MMMM@Z ENDP ; ioDummyWarpMine::GetTargetList
PUBLIC	__real@bf800000
PUBLIC	_pOwner$GSCopy$
PUBLIC	?CheckTarget@ioDummyWarpMine@@IAEXPAVioBaseChar@@@Z ; ioDummyWarpMine::CheckTarget
;	COMDAT __real@bf800000
; File c:\program files (x86)\microsoft visual studio 10.0\vc\include\vector
CONST	SEGMENT
__real@bf800000 DD 0bf800000r			; -1
CONST	ENDS
;	COMDAT xdata$x
xdata$x	SEGMENT
__unwindtable$?CheckTarget@ioDummyWarpMine@@IAEXPAVioBaseChar@@@Z DD 0ffffffffH
	DD	FLAT:__unwindfunclet$?CheckTarget@ioDummyWarpMine@@IAEXPAVioBaseChar@@@Z$0
__ehfuncinfo$?CheckTarget@ioDummyWarpMine@@IAEXPAVioBaseChar@@@Z DD 019930522H
	DD	01H
	DD	FLAT:__unwindtable$?CheckTarget@ioDummyWarpMine@@IAEXPAVioBaseChar@@@Z
	DD	2 DUP(00H)
	DD	2 DUP(00H)
	DD	00H
	DD	01H
; Function compile flags: /Ogsp
; File d:\lost saga for developer\youtube\tutorial\source\src\lsclient\iodummywarpmine.cpp
xdata$x	ENDS
;	COMDAT ?CheckTarget@ioDummyWarpMine@@IAEXPAVioBaseChar@@@Z
_TEXT	SEGMENT
_vPos$ = -84						; size = 12
_value$558497 = -72					; size = 4
_nTargetCnt$550533 = -68				; size = 4
_vTargetList$ = -64					; size = 16
_pOwner$GSCopy$ = -48					; size = 4
_pThis$558485 = -48					; size = 4
_value$558484 = -44					; size = 4
_pStage$ = -44						; size = 4
_vDir$ = -40						; size = 12
$T550530 = -28						; size = 12
__$EHRec$ = -12						; size = 12
_pOwner$ = 8						; size = 4
?CheckTarget@ioDummyWarpMine@@IAEXPAVioBaseChar@@@Z PROC ; ioDummyWarpMine::CheckTarget, COMDAT
; _this$ = ecx

; 333  : {		

  00000	6a 48		 push	 72			; 00000048H
  00002	b8 00 00 00 00	 mov	 eax, __ehhandler$?CheckTarget@ioDummyWarpMine@@IAEXPAVioBaseChar@@@Z
  00007	e8 00 00 00 00	 call	 __EH_prolog3_GS
  0000c	8b 45 08	 mov	 eax, DWORD PTR _pOwner$[ebp]
  0000f	8b d9		 mov	 ebx, ecx

; 334  : 	if( !pOwner || !m_bSetCheckTarget ) 

  00011	33 c9		 xor	 ecx, ecx

; 359  : 				continue;
; 360  : 
; 361  : 			SetExplosionState();

  00013	89 45 d0	 mov	 DWORD PTR _pOwner$GSCopy$[ebp], eax
  00016	3b c1		 cmp	 eax, ecx
  00018	0f 84 1e 01 00
	00		 je	 $LN7@CheckTarge

; 334  : 	if( !pOwner || !m_bSetCheckTarget ) 

  0001e	38 8b d1 14 00
	00		 cmp	 BYTE PTR [ebx+5329], cl
  00024	0f 84 12 01 00
	00		 je	 $LN7@CheckTarge

; 335  : 		return;
; 336  : 	
; 337  : 	ioPlayStage *pStage = pOwner->GetCreator();

  0002a	8b 80 44 03 00
	00		 mov	 eax, DWORD PTR [eax+836]
  00030	89 45 d4	 mov	 DWORD PTR _pStage$[ebp], eax

; 338  : 	if ( !pStage )

  00033	3b c1		 cmp	 eax, ecx
  00035	0f 84 01 01 00
	00		 je	 $LN7@CheckTarge

; 339  : 		return;
; 340  : 
; 341  : 	// 
; 342  : 	BaseCharList vTargetList;

  0003b	89 4d c0	 mov	 DWORD PTR _vTargetList$[ebp], ecx
  0003e	89 4d c4	 mov	 DWORD PTR _vTargetList$[ebp+4], ecx
  00041	89 4d c8	 mov	 DWORD PTR _vTargetList$[ebp+8], ecx

; 343  : 
; 344  : 	// 
; 345  : 	D3DXVECTOR3 vPos = GetWorldPosition();

  00044	8b 03		 mov	 eax, DWORD PTR [ebx]
  00046	89 4d fc	 mov	 DWORD PTR __$EHRec$[ebp+8], ecx
  00049	8b cb		 mov	 ecx, ebx
  0004b	ff 50 70	 call	 DWORD PTR [eax+112]

; 346  : 	D3DXVECTOR3 vDir = GetWorldOrientation() * D3DXVECTOR3( 0.0f, 0.0f, -1.0f );

  0004e	0f 57 c0	 xorps	 xmm0, xmm0
  00051	8b f0		 mov	 esi, eax
  00053	8d 7d ac	 lea	 edi, DWORD PTR _vPos$[ebp]
  00056	a5		 movsd
  00057	a5		 movsd
  00058	8d 45 e4	 lea	 eax, DWORD PTR $T550530[ebp]
  0005b	f3 0f 11 45 e4	 movss	 DWORD PTR $T550530[ebp], xmm0
  00060	f3 0f 11 45 e8	 movss	 DWORD PTR $T550530[ebp+4], xmm0
  00065	f3 0f 10 05 00
	00 00 00	 movss	 xmm0, DWORD PTR __real@bf800000
  0006d	50		 push	 eax
  0006e	8b 03		 mov	 eax, DWORD PTR [ebx]
  00070	8b cb		 mov	 ecx, ebx
  00072	a5		 movsd
  00073	f3 0f 11 45 ec	 movss	 DWORD PTR $T550530[ebp+8], xmm0
  00078	ff 50 74	 call	 DWORD PTR [eax+116]
  0007b	50		 push	 eax
  0007c	8d 45 d8	 lea	 eax, DWORD PTR _vDir$[ebp]
  0007f	50		 push	 eax
  00080	ff 15 00 00 00
	00		 call	 DWORD PTR __imp_??D@YA?AUD3DXVECTOR3@@ABUD3DXQUATERNION@@ABU0@@Z

; 347  : 
; 348  : 	GetTargetList( pStage, vPos, vDir, vTargetList, m_fColUpHeight, m_fColUnderHeight, m_fColRange, m_fColAngle );

  00086	f3 0f 10 83 90
	14 00 00	 movss	 xmm0, DWORD PTR [ebx+5264]
  0008e	f3 0f 11 44 24
	08		 movss	 DWORD PTR [esp+8], xmm0
  00094	f3 0f 10 83 8c
	14 00 00	 movss	 xmm0, DWORD PTR [ebx+5260]
  0009c	f3 0f 11 44 24
	04		 movss	 DWORD PTR [esp+4], xmm0
  000a2	f3 0f 10 83 98
	14 00 00	 movss	 xmm0, DWORD PTR [ebx+5272]
  000aa	f3 0f 11 04 24	 movss	 DWORD PTR [esp], xmm0
  000af	f3 0f 10 83 94
	14 00 00	 movss	 xmm0, DWORD PTR [ebx+5268]
  000b7	51		 push	 ecx
  000b8	f3 0f 11 04 24	 movss	 DWORD PTR [esp], xmm0
  000bd	8d 45 c0	 lea	 eax, DWORD PTR _vTargetList$[ebp]
  000c0	50		 push	 eax
  000c1	8d 45 d8	 lea	 eax, DWORD PTR _vDir$[ebp]
  000c4	50		 push	 eax
  000c5	8d 45 ac	 lea	 eax, DWORD PTR _vPos$[ebp]
  000c8	50		 push	 eax
  000c9	ff 75 d4	 push	 DWORD PTR _pStage$[ebp]
  000cc	8b cb		 mov	 ecx, ebx
  000ce	e8 00 00 00 00	 call	 ?GetTargetList@ioDummyWarpMine@@IAEXPAVioPlayStage@@ABUD3DXVECTOR3@@1AAV?$vector@PAVioBaseChar@@V?$allocator@PAVioBaseChar@@@std@@@std@@MMMM@Z ; ioDummyWarpMine::GetTargetList

; 349  : 
; 350  : 	//    
; 351  : 	if ( !vTargetList.empty() )

  000d3	8b 45 c4	 mov	 eax, DWORD PTR _vTargetList$[ebp+4]
  000d6	39 45 c0	 cmp	 DWORD PTR _vTargetList$[ebp], eax
  000d9	74 55		 je	 SHORT $LN2@CheckTarge

; 352  : 	{
; 353  : 		int nTargetCnt = vTargetList.size();	

  000db	2b 45 c0	 sub	 eax, DWORD PTR _vTargetList$[ebp]

; 354  : 		for ( int i=0; i<nTargetCnt; ++i )

  000de	33 ff		 xor	 edi, edi
  000e0	c1 f8 02	 sar	 eax, 2
  000e3	89 45 bc	 mov	 DWORD PTR _nTargetCnt$550533[ebp], eax
  000e6	85 c0		 test	 eax, eax
  000e8	7e 46		 jle	 SHORT $LN2@CheckTarge
  000ea	8b 45 d0	 mov	 eax, DWORD PTR _pOwner$GSCopy$[ebp]

; 357  : 			//   
; 358  : 			if ( pOwner->GetTeam() == pTarget->GetTeam() )

  000ed	05 90 00 00 00	 add	 eax, 144		; 00000090H
  000f2	89 45 d0	 mov	 DWORD PTR _pThis$558485[ebp], eax
$LN4@CheckTarge:

; 355  : 		{
; 356  : 			ioBaseChar* pTarget = vTargetList[i];

  000f5	8b 45 c0	 mov	 eax, DWORD PTR _vTargetList$[ebp]
  000f8	8b 34 b8	 mov	 esi, DWORD PTR [eax+edi*4]

; 357  : 			//   
; 358  : 			if ( pOwner->GetTeam() == pTarget->GetTeam() )

  000fb	8b 4d d0	 mov	 ecx, DWORD PTR _pThis$558485[ebp]
  000fe	8d 45 d4	 lea	 eax, DWORD PTR _value$558484[ebp]
  00101	50		 push	 eax
  00102	e8 00 00 00 00	 call	 ?DecryptValueToPool@?$CEncrypt@W4TeamType@@@@QAEXPAW4TeamType@@@Z ; CEncrypt<enum TeamType>::DecryptValueToPool
  00107	8d 45 b8	 lea	 eax, DWORD PTR _value$558497[ebp]
  0010a	8d 8e 90 00 00
	00		 lea	 ecx, DWORD PTR [esi+144]
  00110	50		 push	 eax
  00111	e8 00 00 00 00	 call	 ?DecryptValueToPool@?$CEncrypt@W4TeamType@@@@QAEXPAW4TeamType@@@Z ; CEncrypt<enum TeamType>::DecryptValueToPool
  00116	8b 45 d4	 mov	 eax, DWORD PTR _value$558484[ebp]
  00119	3b 45 b8	 cmp	 eax, DWORD PTR _value$558497[ebp]
  0011c	75 08		 jne	 SHORT $LN1@CheckTarge

; 354  : 		for ( int i=0; i<nTargetCnt; ++i )

  0011e	47		 inc	 edi
  0011f	3b 7d bc	 cmp	 edi, DWORD PTR _nTargetCnt$550533[ebp]
  00122	7c d1		 jl	 SHORT $LN4@CheckTarge

; 334  : 	if( !pOwner || !m_bSetCheckTarget ) 

  00124	eb 0a		 jmp	 SHORT $LN2@CheckTarge
$LN1@CheckTarge:

; 359  : 				continue;
; 360  : 
; 361  : 			SetExplosionState();

  00126	c7 83 80 14 00
	00 02 00 00 00	 mov	 DWORD PTR [ebx+5248], 2
$LN2@CheckTarge:

; 362  : 			return;
; 363  : 		}
; 364  : 	}
; 365  : }

  00130	83 4d fc ff	 or	 DWORD PTR __$EHRec$[ebp+8], -1
  00134	8d 4d c0	 lea	 ecx, DWORD PTR _vTargetList$[ebp]
  00137	e8 00 00 00 00	 call	 ?_Tidy@?$vector@PAVioBaseChar@@V?$allocator@PAVioBaseChar@@@std@@@std@@IAEXXZ ; std::vector<ioBaseChar *,std::allocator<ioBaseChar *> >::_Tidy
$LN7@CheckTarge:
  0013c	e8 00 00 00 00	 call	 __EH_epilog3_GS
  00141	c2 04 00	 ret	 4
_TEXT	ENDS
;	COMDAT text$x
text$x	SEGMENT
__unwindfunclet$?CheckTarget@ioDummyWarpMine@@IAEXPAVioBaseChar@@@Z$0:
  00000	8d 4d c0	 lea	 ecx, DWORD PTR _vTargetList$[ebp]
  00003	e9 00 00 00 00	 jmp	 ??1?$vector@PAVioBaseChar@@V?$allocator@PAVioBaseChar@@@std@@@std@@QAE@XZ ; std::vector<ioBaseChar *,std::allocator<ioBaseChar *> >::~vector<ioBaseChar *,std::allocator<ioBaseChar *> >
__ehhandler$?CheckTarget@ioDummyWarpMine@@IAEXPAVioBaseChar@@@Z:
  00008	8b 54 24 08	 mov	 edx, DWORD PTR [esp+8]
  0000c	8d 42 0c	 lea	 eax, DWORD PTR [edx+12]
  0000f	8b 4a a8	 mov	 ecx, DWORD PTR [edx-88]
  00012	33 c8		 xor	 ecx, eax
  00014	e8 00 00 00 00	 call	 @__security_check_cookie@4
  00019	8b 4a fc	 mov	 ecx, DWORD PTR [edx-4]
  0001c	33 c8		 xor	 ecx, eax
  0001e	e8 00 00 00 00	 call	 @__security_check_cookie@4
  00023	b8 00 00 00 00	 mov	 eax, OFFSET __ehfuncinfo$?CheckTarget@ioDummyWarpMine@@IAEXPAVioBaseChar@@@Z
  00028	e9 00 00 00 00	 jmp	 ___CxxFrameHandler3
text$x	ENDS
?CheckTarget@ioDummyWarpMine@@IAEXPAVioBaseChar@@@Z ENDP ; ioDummyWarpMine::CheckTarget
PUBLIC	?ProcessSensingState@ioDummyWarpMine@@IAEXM@Z	; ioDummyWarpMine::ProcessSensingState
; Function compile flags: /Ogsp
;	COMDAT ?ProcessSensingState@ioDummyWarpMine@@IAEXM@Z
_TEXT	SEGMENT
_fTimePerSec$ = 8					; size = 4
?ProcessSensingState@ioDummyWarpMine@@IAEXM@Z PROC	; ioDummyWarpMine::ProcessSensingState, COMDAT
; _this$ = ecx

; 121  : {

  00000	56		 push	 esi
  00001	57		 push	 edi

; 122  : 	if ( m_dwCheckSensingTime + m_dwSensingTime > FRAMEGETTIME() )

  00002	8b 3d 00 00 00
	00		 mov	 edi, DWORD PTR __imp_?GetSingleton@ioFrameTimer@@SAAAV1@XZ
  00008	8b f1		 mov	 esi, ecx
  0000a	ff d7		 call	 edi
  0000c	8b c8		 mov	 ecx, eax
  0000e	ff 15 00 00 00
	00		 call	 DWORD PTR __imp_?GetLoopSec@ioFrameTimer@@QBEKXZ
  00014	8b 8e ac 14 00
	00		 mov	 ecx, DWORD PTR [esi+5292]
  0001a	03 8e b0 14 00
	00		 add	 ecx, DWORD PTR [esi+5296]
  00020	3b c8		 cmp	 ecx, eax
  00022	77 50		 ja	 SHORT $LN5@ProcessSen

; 123  : 		return;
; 124  : 
; 125  : 	ioBaseChar *pOnwer = GetOwner();

  00024	53		 push	 ebx
  00025	8b ce		 mov	 ecx, esi
  00027	e8 00 00 00 00	 call	 ?GetOwner@ioDummyChar@@QBEPAVioBaseChar@@XZ ; ioDummyChar::GetOwner
  0002c	8b d8		 mov	 ebx, eax

; 126  : 
; 127  : 	VisibleCheck( pOnwer );

  0002e	53		 push	 ebx
  0002f	8b ce		 mov	 ecx, esi
  00031	e8 00 00 00 00	 call	 ?VisibleCheck@ioDummyWarpMine@@IAEXPAVioBaseChar@@@Z ; ioDummyWarpMine::VisibleCheck

; 128  : 	CheckTarget( pOnwer );

  00036	53		 push	 ebx
  00037	8b ce		 mov	 ecx, esi
  00039	e8 00 00 00 00	 call	 ?CheckTarget@ioDummyWarpMine@@IAEXPAVioBaseChar@@@Z ; ioDummyWarpMine::CheckTarget

; 129  : 	CheckDropZone( pOnwer );

  0003e	53		 push	 ebx
  0003f	8b ce		 mov	 ecx, esi
  00041	e8 00 00 00 00	 call	 ?CheckDropZone@ioDummyWarpMine@@IAEXPAVioBaseChar@@@Z ; ioDummyWarpMine::CheckDropZone

; 130  : 
; 131  : 	if ( m_bSetAutoExplosion && 
; 132  : 		 m_dwCheckSensingTime + m_dwAutoExplosionTime < FRAMEGETTIME() )

  00046	80 be d2 14 00
	00 00		 cmp	 BYTE PTR [esi+5330], 0
  0004d	5b		 pop	 ebx
  0004e	74 24		 je	 SHORT $LN5@ProcessSen
  00050	ff d7		 call	 edi
  00052	8b c8		 mov	 ecx, eax
  00054	ff 15 00 00 00
	00		 call	 DWORD PTR __imp_?GetLoopSec@ioFrameTimer@@QBEKXZ
  0005a	8b 8e b4 14 00
	00		 mov	 ecx, DWORD PTR [esi+5300]
  00060	03 8e b0 14 00
	00		 add	 ecx, DWORD PTR [esi+5296]
  00066	3b c8		 cmp	 ecx, eax
  00068	73 0a		 jae	 SHORT $LN5@ProcessSen

; 133  : 		SetExplosionState();

  0006a	c7 86 80 14 00
	00 02 00 00 00	 mov	 DWORD PTR [esi+5248], 2
$LN5@ProcessSen:

; 134  : }

  00074	5f		 pop	 edi
  00075	5e		 pop	 esi
  00076	c2 04 00	 ret	 4
?ProcessSensingState@ioDummyWarpMine@@IAEXM@Z ENDP	; ioDummyWarpMine::ProcessSensingState
; Function compile flags: /Ogsp
_TEXT	ENDS
;	COMDAT ?ProcessState@ioDummyWarpMine@@MAEXMK@Z
_TEXT	SEGMENT
_fTimePerSec$ = 8					; size = 4
_dwPreTime$ = 12					; size = 4
?ProcessState@ioDummyWarpMine@@MAEXMK@Z PROC		; ioDummyWarpMine::ProcessState, COMDAT
; _this$ = ecx

; 68   : {

  00000	55		 push	 ebp
  00001	8b ec		 mov	 ebp, esp
  00003	56		 push	 esi
  00004	8b f1		 mov	 esi, ecx

; 69   : 	switch( m_MineState )

  00006	8b 86 80 14 00
	00		 mov	 eax, DWORD PTR [esi+5248]
  0000c	83 e8 00	 sub	 eax, 0
  0000f	74 59		 je	 SHORT $LN5@ProcessSta@2
  00011	48		 dec	 eax
  00012	74 44		 je	 SHORT $LN4@ProcessSta@2
  00014	48		 dec	 eax
  00015	74 2f		 je	 SHORT $LN3@ProcessSta@2
  00017	48		 dec	 eax
  00018	75 60		 jne	 SHORT $LN6@ProcessSta@2

; 80   : 	case DMS_END:
; 81   : 		{
; 82   : 			if ( m_dwCheckEndDelayTime + m_dwEndDelayTime < FRAMEGETTIME() )

  0001a	ff 15 00 00 00
	00		 call	 DWORD PTR __imp_?GetSingleton@ioFrameTimer@@SAAAV1@XZ
  00020	8b c8		 mov	 ecx, eax
  00022	ff 15 00 00 00
	00		 call	 DWORD PTR __imp_?GetLoopSec@ioFrameTimer@@QBEKXZ
  00028	8b 8e bc 14 00
	00		 mov	 ecx, DWORD PTR [esi+5308]
  0002e	03 8e b8 14 00
	00		 add	 ecx, DWORD PTR [esi+5304]
  00034	3b c8		 cmp	 ecx, eax
  00036	73 42		 jae	 SHORT $LN6@ProcessSta@2

; 83   : 				SetDieState( true );

  00038	8b 06		 mov	 eax, DWORD PTR [esi]
  0003a	6a 01		 push	 1
  0003c	8b ce		 mov	 ecx, esi
  0003e	ff 90 60 01 00
	00		 call	 DWORD PTR [eax+352]

; 84   : 		}
; 85   : 		break;

  00044	eb 34		 jmp	 SHORT $LN6@ProcessSta@2
$LN3@ProcessSta@2:

; 77   : 	case DMS_EXPLOSION:
; 78   : 		ProcessExplosionState( fTimePerSec );

  00046	f3 0f 10 45 08	 movss	 xmm0, DWORD PTR _fTimePerSec$[ebp]
  0004b	51		 push	 ecx
  0004c	f3 0f 11 04 24	 movss	 DWORD PTR [esp], xmm0
  00051	e8 00 00 00 00	 call	 ?ProcessExplosionState@ioDummyWarpMine@@IAEXM@Z ; ioDummyWarpMine::ProcessExplosionState

; 79   : 		break;

  00056	eb 22		 jmp	 SHORT $LN6@ProcessSta@2
$LN4@ProcessSta@2:

; 73   : 		break;
; 74   : 	case DMS_SENSING:
; 75   : 		ProcessSensingState( fTimePerSec );

  00058	f3 0f 10 45 08	 movss	 xmm0, DWORD PTR _fTimePerSec$[ebp]
  0005d	51		 push	 ecx
  0005e	f3 0f 11 04 24	 movss	 DWORD PTR [esp], xmm0
  00063	e8 00 00 00 00	 call	 ?ProcessSensingState@ioDummyWarpMine@@IAEXM@Z ; ioDummyWarpMine::ProcessSensingState

; 76   : 		break;

  00068	eb 10		 jmp	 SHORT $LN6@ProcessSta@2
$LN5@ProcessSta@2:

; 70   : 	{
; 71   : 	case DMS_START:
; 72   : 		ProcessStartState( fTimePerSec );

  0006a	f3 0f 10 45 08	 movss	 xmm0, DWORD PTR _fTimePerSec$[ebp]
  0006f	51		 push	 ecx
  00070	f3 0f 11 04 24	 movss	 DWORD PTR [esp], xmm0
  00075	e8 00 00 00 00	 call	 ?ProcessStartState@ioDummyWarpMine@@IAEXM@Z ; ioDummyWarpMine::ProcessStartState
$LN6@ProcessSta@2:
  0007a	5e		 pop	 esi

; 86   : 	}
; 87   : }

  0007b	5d		 pop	 ebp
  0007c	c2 08 00	 ret	 8
?ProcessState@ioDummyWarpMine@@MAEXMK@Z ENDP		; ioDummyWarpMine::ProcessState
_TEXT	ENDS
END
