; Listing generated by Microsoft (R) Optimizing Compiler Version 16.00.30319.01 

	TITLE	D:\Lost Saga For Developer\Youtube\Tutorial\Source\src\LSClient\ioEngineerItem.cpp
	.686P
	.XMM
	include listing.inc
	.model	flat

INCLUDELIB MSVCRT
INCLUDELIB OLDNAMES

PUBLIC	?_EEM_DS@?$deque@UD3DXVECTOR3@@V?$allocator@UD3DXVECTOR3@@@std@@@std@@2HB ; std::deque<D3DXVECTOR3,std::allocator<D3DXVECTOR3> >::_EEM_DS
;	COMDAT ?_EEM_DS@?$deque@UD3DXVECTOR3@@V?$allocator@UD3DXVECTOR3@@@std@@@std@@2HB
CONST	SEGMENT
?_EEM_DS@?$deque@UD3DXVECTOR3@@V?$allocator@UD3DXVECTOR3@@@std@@@std@@2HB DD 01H ; std::deque<D3DXVECTOR3,std::allocator<D3DXVECTOR3> >::_EEM_DS
CONST	ENDS
PUBLIC	?GetState@ioBaseChar@@QBE?AW4CharState@@XZ	; ioBaseChar::GetState
; Function compile flags: /Ogsp
; File d:\lost saga for developer\youtube\tutorial\source\src\lsclient\iobasechar.h
;	COMDAT ?GetState@ioBaseChar@@QBE?AW4CharState@@XZ
_TEXT	SEGMENT
?GetState@ioBaseChar@@QBE?AW4CharState@@XZ PROC		; ioBaseChar::GetState, COMDAT
; _this$ = ecx

; 2156 : 	inline CharState GetState() const { return m_CharState; }	

  00000	8a 81 10 03 00
	00		 mov	 al, BYTE PTR [ecx+784]
  00006	c3		 ret	 0
?GetState@ioBaseChar@@QBE?AW4CharState@@XZ ENDP		; ioBaseChar::GetState
_TEXT	ENDS
PUBLIC	?GetCharName@ioBaseChar@@QBEABVioHashString@@XZ	; ioBaseChar::GetCharName
; Function compile flags: /Ogsp
;	COMDAT ?GetCharName@ioBaseChar@@QBEABVioHashString@@XZ
_TEXT	SEGMENT
?GetCharName@ioBaseChar@@QBEABVioHashString@@XZ PROC	; ioBaseChar::GetCharName, COMDAT
; _this$ = ecx

; 2594 : 	inline const ioHashString& GetCharName() const { return m_Name; }

  00000	8d 81 d4 02 00
	00		 lea	 eax, DWORD PTR [ecx+724]
  00006	c3		 ret	 0
?GetCharName@ioBaseChar@@QBEABVioHashString@@XZ ENDP	; ioBaseChar::GetCharName
_TEXT	ENDS
PUBLIC	?GetTargetRot@ioBaseChar@@QBEABUD3DXQUATERNION@@XZ ; ioBaseChar::GetTargetRot
; Function compile flags: /Ogsp
;	COMDAT ?GetTargetRot@ioBaseChar@@QBEABUD3DXQUATERNION@@XZ
_TEXT	SEGMENT
?GetTargetRot@ioBaseChar@@QBEABUD3DXQUATERNION@@XZ PROC	; ioBaseChar::GetTargetRot, COMDAT
; _this$ = ecx

; 2599 : 	inline const D3DXQUATERNION& GetTargetRot() const { return m_qtTargetRot; }

  00000	8d 81 a4 06 00
	00		 lea	 eax, DWORD PTR [ecx+1700]
  00006	c3		 ret	 0
?GetTargetRot@ioBaseChar@@QBEABUD3DXQUATERNION@@XZ ENDP	; ioBaseChar::GetTargetRot
_TEXT	ENDS
PUBLIC	?SetChargingState@ioBaseChar@@QAEX_N@Z		; ioBaseChar::SetChargingState
; Function compile flags: /Ogsp
;	COMDAT ?SetChargingState@ioBaseChar@@QAEX_N@Z
_TEXT	SEGMENT
_bState$ = 8						; size = 1
?SetChargingState@ioBaseChar@@QAEX_N@Z PROC		; ioBaseChar::SetChargingState, COMDAT
; _this$ = ecx

; 2937 : 	inline void SetChargingState( bool bState ) { m_bChargingState = bState; }

  00000	55		 push	 ebp
  00001	8b ec		 mov	 ebp, esp
  00003	8a 45 08	 mov	 al, BYTE PTR _bState$[ebp]
  00006	88 81 54 20 00
	00		 mov	 BYTE PTR [ecx+8276], al
  0000c	5d		 pop	 ebp
  0000d	c2 04 00	 ret	 4
?SetChargingState@ioBaseChar@@QAEX_N@Z ENDP		; ioBaseChar::SetChargingState
_TEXT	ENDS
PUBLIC	??_7bad_alloc@std@@6B@				; std::bad_alloc::`vftable'
PUBLIC	??0bad_alloc@std@@QAE@PBD@Z			; std::bad_alloc::bad_alloc
PUBLIC	??_R4bad_alloc@std@@6B@				; std::bad_alloc::`RTTI Complete Object Locator'
PUBLIC	??_R0?AVbad_alloc@std@@@8			; std::bad_alloc `RTTI Type Descriptor'
PUBLIC	??_R3bad_alloc@std@@8				; std::bad_alloc::`RTTI Class Hierarchy Descriptor'
PUBLIC	??_R2bad_alloc@std@@8				; std::bad_alloc::`RTTI Base Class Array'
PUBLIC	??_R1A@?0A@EA@bad_alloc@std@@8			; std::bad_alloc::`RTTI Base Class Descriptor at (0,-1,0,64)'
PUBLIC	??_R1A@?0A@EA@exception@std@@8			; std::exception::`RTTI Base Class Descriptor at (0,-1,0,64)'
PUBLIC	??_R0?AVexception@std@@@8			; std::exception `RTTI Type Descriptor'
PUBLIC	??_R3exception@std@@8				; std::exception::`RTTI Class Hierarchy Descriptor'
PUBLIC	??_R2exception@std@@8				; std::exception::`RTTI Base Class Array'
EXTRN	__imp_??0exception@std@@QAE@ABQBD@Z:PROC
EXTRN	??_7type_info@@6B@:QWORD			; type_info::`vftable'
EXTRN	??_Ebad_alloc@std@@UAEPAXI@Z:PROC		; std::bad_alloc::`vector deleting destructor'
EXTRN	?what@exception@std@@UBEPBDXZ:PROC		; std::exception::what
;	COMDAT ??_R2exception@std@@8
; File c:\program files (x86)\microsoft visual studio 10.0\vc\include\exception
rdata$r	SEGMENT
??_R2exception@std@@8 DD FLAT:??_R1A@?0A@EA@exception@std@@8 ; std::exception::`RTTI Base Class Array'
rdata$r	ENDS
;	COMDAT ??_R3exception@std@@8
rdata$r	SEGMENT
??_R3exception@std@@8 DD 00H				; std::exception::`RTTI Class Hierarchy Descriptor'
	DD	00H
	DD	01H
	DD	FLAT:??_R2exception@std@@8
rdata$r	ENDS
;	COMDAT ??_R0?AVexception@std@@@8
_DATA	SEGMENT
??_R0?AVexception@std@@@8 DD FLAT:??_7type_info@@6B@	; std::exception `RTTI Type Descriptor'
	DD	00H
	DB	'.?AVexception@std@@', 00H
_DATA	ENDS
;	COMDAT ??_R1A@?0A@EA@exception@std@@8
rdata$r	SEGMENT
??_R1A@?0A@EA@exception@std@@8 DD FLAT:??_R0?AVexception@std@@@8 ; std::exception::`RTTI Base Class Descriptor at (0,-1,0,64)'
	DD	00H
	DD	00H
	DD	0ffffffffH
	DD	00H
	DD	040H
	DD	FLAT:??_R3exception@std@@8
rdata$r	ENDS
;	COMDAT ??_R1A@?0A@EA@bad_alloc@std@@8
rdata$r	SEGMENT
??_R1A@?0A@EA@bad_alloc@std@@8 DD FLAT:??_R0?AVbad_alloc@std@@@8 ; std::bad_alloc::`RTTI Base Class Descriptor at (0,-1,0,64)'
	DD	01H
	DD	00H
	DD	0ffffffffH
	DD	00H
	DD	040H
	DD	FLAT:??_R3bad_alloc@std@@8
rdata$r	ENDS
;	COMDAT ??_R2bad_alloc@std@@8
rdata$r	SEGMENT
??_R2bad_alloc@std@@8 DD FLAT:??_R1A@?0A@EA@bad_alloc@std@@8 ; std::bad_alloc::`RTTI Base Class Array'
	DD	FLAT:??_R1A@?0A@EA@exception@std@@8
rdata$r	ENDS
;	COMDAT ??_R3bad_alloc@std@@8
rdata$r	SEGMENT
??_R3bad_alloc@std@@8 DD 00H				; std::bad_alloc::`RTTI Class Hierarchy Descriptor'
	DD	00H
	DD	02H
	DD	FLAT:??_R2bad_alloc@std@@8
rdata$r	ENDS
;	COMDAT ??_R0?AVbad_alloc@std@@@8
_DATA	SEGMENT
??_R0?AVbad_alloc@std@@@8 DD FLAT:??_7type_info@@6B@	; std::bad_alloc `RTTI Type Descriptor'
	DD	00H
	DB	'.?AVbad_alloc@std@@', 00H
_DATA	ENDS
;	COMDAT ??_R4bad_alloc@std@@6B@
rdata$r	SEGMENT
??_R4bad_alloc@std@@6B@ DD 00H				; std::bad_alloc::`RTTI Complete Object Locator'
	DD	00H
	DD	00H
	DD	FLAT:??_R0?AVbad_alloc@std@@@8
	DD	FLAT:??_R3bad_alloc@std@@8
rdata$r	ENDS
;	COMDAT ??_7bad_alloc@std@@6B@
CONST	SEGMENT
??_7bad_alloc@std@@6B@ DD FLAT:??_R4bad_alloc@std@@6B@	; std::bad_alloc::`vftable'
	DD	FLAT:??_Ebad_alloc@std@@UAEPAXI@Z
	DD	FLAT:?what@exception@std@@UBEPBDXZ
; Function compile flags: /Ogsp
CONST	ENDS
;	COMDAT ??0bad_alloc@std@@QAE@PBD@Z
_TEXT	SEGMENT
__Message$ = 8						; size = 4
??0bad_alloc@std@@QAE@PBD@Z PROC			; std::bad_alloc::bad_alloc, COMDAT
; _this$ = ecx

; 345  : 		{	// construct from message string

  00000	55		 push	 ebp
  00001	8b ec		 mov	 ebp, esp
  00003	56		 push	 esi
  00004	8d 45 08	 lea	 eax, DWORD PTR __Message$[ebp]
  00007	50		 push	 eax
  00008	8b f1		 mov	 esi, ecx
  0000a	ff 15 00 00 00
	00		 call	 DWORD PTR __imp_??0exception@std@@QAE@ABQBD@Z
  00010	c7 06 00 00 00
	00		 mov	 DWORD PTR [esi], OFFSET ??_7bad_alloc@std@@6B@

; 346  : 		}

  00016	8b c6		 mov	 eax, esi
  00018	5e		 pop	 esi
  00019	5d		 pop	 ebp
  0001a	c2 04 00	 ret	 4
??0bad_alloc@std@@QAE@PBD@Z ENDP			; std::bad_alloc::bad_alloc
_TEXT	ENDS
PUBLIC	??1bad_alloc@std@@UAE@XZ			; std::bad_alloc::~bad_alloc
EXTRN	__imp_??1exception@std@@UAE@XZ:PROC
; Function compile flags: /Ogsp
;	COMDAT ??1bad_alloc@std@@UAE@XZ
_TEXT	SEGMENT
??1bad_alloc@std@@UAE@XZ PROC				; std::bad_alloc::~bad_alloc, COMDAT
; _this$ = ecx

; 354  : 		{	// destroy the object

  00000	c7 01 00 00 00
	00		 mov	 DWORD PTR [ecx], OFFSET ??_7bad_alloc@std@@6B@

; 355  : 		}

  00006	ff 25 00 00 00
	00		 jmp	 DWORD PTR __imp_??1exception@std@@UAE@XZ
??1bad_alloc@std@@UAE@XZ ENDP				; std::bad_alloc::~bad_alloc
_TEXT	ENDS
EXTRN	??3@YAXPAX@Z:PROC				; operator delete
; Function compile flags: /Ogsp
;	COMDAT ??_Gbad_alloc@std@@UAEPAXI@Z
_TEXT	SEGMENT
___flags$ = 8						; size = 4
??_Gbad_alloc@std@@UAEPAXI@Z PROC			; std::bad_alloc::`scalar deleting destructor', COMDAT
; _this$ = ecx
  00000	55		 push	 ebp
  00001	8b ec		 mov	 ebp, esp
  00003	56		 push	 esi
  00004	8b f1		 mov	 esi, ecx
  00006	c7 06 00 00 00
	00		 mov	 DWORD PTR [esi], OFFSET ??_7bad_alloc@std@@6B@
  0000c	ff 15 00 00 00
	00		 call	 DWORD PTR __imp_??1exception@std@@UAE@XZ
  00012	f6 45 08 01	 test	 BYTE PTR ___flags$[ebp], 1
  00016	74 07		 je	 SHORT $LN1@scalar
  00018	56		 push	 esi
  00019	e8 00 00 00 00	 call	 ??3@YAXPAX@Z		; operator delete
  0001e	59		 pop	 ecx
$LN1@scalar:
  0001f	8b c6		 mov	 eax, esi
  00021	5e		 pop	 esi
  00022	5d		 pop	 ebp
  00023	c2 04 00	 ret	 4
??_Gbad_alloc@std@@UAEPAXI@Z ENDP			; std::bad_alloc::`scalar deleting destructor'
_TEXT	ENDS
PUBLIC	??2@YAPAXIPAX@Z					; operator new
; Function compile flags: /Ogsp
; File c:\program files (x86)\microsoft visual studio 10.0\vc\include\new
;	COMDAT ??2@YAPAXIPAX@Z
_TEXT	SEGMENT
___formal$ = 8						; size = 4
__Where$ = 12						; size = 4
??2@YAPAXIPAX@Z PROC					; operator new, COMDAT

; 56   : 	{	// construct array with placement at _Where

  00000	55		 push	 ebp
  00001	8b ec		 mov	 ebp, esp

; 57   : 	return (_Where);

  00003	8b 45 0c	 mov	 eax, DWORD PTR __Where$[ebp]

; 58   : 	}

  00006	5d		 pop	 ebp
  00007	c3		 ret	 0
??2@YAPAXIPAX@Z ENDP					; operator new
_TEXT	ENDS
PUBLIC	??3@YAXPAX0@Z					; operator delete
; Function compile flags: /Ogsp
;	COMDAT ??3@YAXPAX0@Z
_TEXT	SEGMENT
___formal$ = 8						; size = 4
___formal$ = 12						; size = 4
??3@YAXPAX0@Z PROC					; operator delete, COMDAT

; 62   : 	}

  00000	c3		 ret	 0
??3@YAXPAX0@Z ENDP					; operator delete
_TEXT	ENDS
PUBLIC	?GetCreator@ioBaseChar@@QAEPAVioPlayStage@@XZ	; ioBaseChar::GetCreator
; Function compile flags: /Ogsp
; File d:\lost saga for developer\youtube\tutorial\source\src\lsclient\iobasechar.h
;	COMDAT ?GetCreator@ioBaseChar@@QAEPAVioPlayStage@@XZ
_TEXT	SEGMENT
?GetCreator@ioBaseChar@@QAEPAVioPlayStage@@XZ PROC	; ioBaseChar::GetCreator, COMDAT
; _this$ = ecx

; 4013 : 	inline ioPlayStage* GetCreator() { return m_pCreator; }

  00000	8b 81 44 03 00
	00		 mov	 eax, DWORD PTR [ecx+836]
  00006	c3		 ret	 0
?GetCreator@ioBaseChar@@QAEPAVioPlayStage@@XZ ENDP	; ioBaseChar::GetCreator
_TEXT	ENDS
PUBLIC	??_R0?AVioWeapon@@@8				; ioWeapon `RTTI Type Descriptor'
PUBLIC	??_R0?AVioZoneEffectWeapon@@@8			; ioZoneEffectWeapon `RTTI Type Descriptor'
PUBLIC	?ToZoneEffectWeapon@@YAPAVioZoneEffectWeapon@@PAVioWeapon@@@Z ; ToZoneEffectWeapon
EXTRN	___RTDynamicCast:PROC
;	COMDAT ??_R0?AVioWeapon@@@8
; File d:\lost saga for developer\youtube\tutorial\source\src\lsclient\iozoneeffectweapon.h
_DATA	SEGMENT
??_R0?AVioWeapon@@@8 DD FLAT:??_7type_info@@6B@		; ioWeapon `RTTI Type Descriptor'
	DD	00H
	DB	'.?AVioWeapon@@', 00H
_DATA	ENDS
;	COMDAT ??_R0?AVioZoneEffectWeapon@@@8
_DATA	SEGMENT
??_R0?AVioZoneEffectWeapon@@@8 DD FLAT:??_7type_info@@6B@ ; ioZoneEffectWeapon `RTTI Type Descriptor'
	DD	00H
	DB	'.?AVioZoneEffectWeapon@@', 00H
; Function compile flags: /Ogsp
_DATA	ENDS
;	COMDAT ?ToZoneEffectWeapon@@YAPAVioZoneEffectWeapon@@PAVioWeapon@@@Z
_TEXT	SEGMENT
_pWeapon$ = 8						; size = 4
?ToZoneEffectWeapon@@YAPAVioZoneEffectWeapon@@PAVioWeapon@@@Z PROC ; ToZoneEffectWeapon, COMDAT

; 217  : {

  00000	55		 push	 ebp
  00001	8b ec		 mov	 ebp, esp
  00003	56		 push	 esi

; 218  : 	if( !pWeapon || pWeapon->GetType() != ioWeapon::WT_ZONE_EFFECT )

  00004	8b 75 08	 mov	 esi, DWORD PTR _pWeapon$[ebp]
  00007	85 f6		 test	 esi, esi
  00009	74 28		 je	 SHORT $LN1@ToZoneEffe
  0000b	8b 06		 mov	 eax, DWORD PTR [esi]
  0000d	8b ce		 mov	 ecx, esi
  0000f	ff 90 10 01 00
	00		 call	 DWORD PTR [eax+272]
  00015	83 f8 08	 cmp	 eax, 8
  00018	75 19		 jne	 SHORT $LN1@ToZoneEffe

; 220  : 
; 221  : 	return dynamic_cast< ioZoneEffectWeapon* >( pWeapon );

  0001a	6a 00		 push	 0
  0001c	68 00 00 00 00	 push	 OFFSET ??_R0?AVioZoneEffectWeapon@@@8
  00021	68 00 00 00 00	 push	 OFFSET ??_R0?AVioWeapon@@@8
  00026	6a 00		 push	 0
  00028	56		 push	 esi
  00029	e8 00 00 00 00	 call	 ___RTDynamicCast
  0002e	83 c4 14	 add	 esp, 20			; 00000014H
  00031	eb 02		 jmp	 SHORT $LN3@ToZoneEffe
$LN1@ToZoneEffe:

; 219  : 		return NULL;

  00033	33 c0		 xor	 eax, eax
$LN3@ToZoneEffe:
  00035	5e		 pop	 esi

; 222  : }

  00036	5d		 pop	 ebp
  00037	c3		 ret	 0
?ToZoneEffectWeapon@@YAPAVioZoneEffectWeapon@@PAVioWeapon@@@Z ENDP ; ToZoneEffectWeapon
_TEXT	ENDS
PUBLIC	?_Adopt@_Iterator_base0@std@@QAEXPBX@Z		; std::_Iterator_base0::_Adopt
; Function compile flags: /Ogsp
; File c:\program files (x86)\microsoft visual studio 10.0\vc\include\xutility
;	COMDAT ?_Adopt@_Iterator_base0@std@@QAEXPBX@Z
_TEXT	SEGMENT
___formal$ = 8						; size = 4
?_Adopt@_Iterator_base0@std@@QAEXPBX@Z PROC		; std::_Iterator_base0::_Adopt, COMDAT
; _this$ = ecx

; 49   : 		}

  00000	c2 04 00	 ret	 4
?_Adopt@_Iterator_base0@std@@QAEXPBX@Z ENDP		; std::_Iterator_base0::_Adopt
_TEXT	ENDS
PUBLIC	?SetAttackDir@ioDummyGradeTurret@@QAEXUD3DXVECTOR3@@@Z ; ioDummyGradeTurret::SetAttackDir
; Function compile flags: /Ogsp
; File d:\lost saga for developer\youtube\tutorial\source\src\lsclient\iodummygradeturret.h
;	COMDAT ?SetAttackDir@ioDummyGradeTurret@@QAEXUD3DXVECTOR3@@@Z
_TEXT	SEGMENT
_vDir$ = 8						; size = 12
?SetAttackDir@ioDummyGradeTurret@@QAEXUD3DXVECTOR3@@@Z PROC ; ioDummyGradeTurret::SetAttackDir, COMDAT
; _this$ = ecx

; 189  : 	inline void SetAttackDir( D3DXVECTOR3 vDir ){ m_vAttackDir = vDir; }

  00000	55		 push	 ebp
  00001	8b ec		 mov	 ebp, esp
  00003	56		 push	 esi
  00004	57		 push	 edi
  00005	8d b9 cc 14 00
	00		 lea	 edi, DWORD PTR [ecx+5324]
  0000b	8d 75 08	 lea	 esi, DWORD PTR _vDir$[ebp]
  0000e	a5		 movsd
  0000f	a5		 movsd
  00010	a5		 movsd
  00011	5f		 pop	 edi
  00012	5e		 pop	 esi
  00013	5d		 pop	 ebp
  00014	c2 0c 00	 ret	 12			; 0000000cH
?SetAttackDir@ioDummyGradeTurret@@QAEXUD3DXVECTOR3@@@Z ENDP ; ioDummyGradeTurret::SetAttackDir
_TEXT	ENDS
PUBLIC	?GetAttackDir@ioDummyGradeTurret@@QBEABUD3DXVECTOR3@@XZ ; ioDummyGradeTurret::GetAttackDir
; Function compile flags: /Ogsp
;	COMDAT ?GetAttackDir@ioDummyGradeTurret@@QBEABUD3DXVECTOR3@@XZ
_TEXT	SEGMENT
?GetAttackDir@ioDummyGradeTurret@@QBEABUD3DXVECTOR3@@XZ PROC ; ioDummyGradeTurret::GetAttackDir, COMDAT
; _this$ = ecx

; 190  : 	const D3DXVECTOR3& GetAttackDir() const { return m_vAttackDir; }

  00000	8d 81 cc 14 00
	00		 lea	 eax, DWORD PTR [ecx+5324]
  00006	c3		 ret	 0
?GetAttackDir@ioDummyGradeTurret@@QBEABUD3DXVECTOR3@@XZ ENDP ; ioDummyGradeTurret::GetAttackDir
_TEXT	ENDS
PUBLIC	?Init@ioEngineerItem@@QAEXXZ			; ioEngineerItem::Init
EXTRN	__fltused:DWORD
; Function compile flags: /Ogsp
; File d:\lost saga for developer\youtube\tutorial\source\src\lsclient\ioengineeritem.cpp
;	COMDAT ?Init@ioEngineerItem@@QAEXXZ
_TEXT	SEGMENT
?Init@ioEngineerItem@@QAEXXZ PROC			; ioEngineerItem::Init, COMDAT
; _this$ = ecx

; 38   : 	m_AttackState						= AS_NONE;
; 39   : 	
; 40   : 	m_iCurCombo							= 0;	
; 41   : 	m_iCurAirJump						= 0;
; 42   : 	m_iRidingDummyCharIndex				= 0;
; 43   : 
; 44   : 	m_dwAttackStartTime					= 0;
; 45   : 	m_dwKeyReserveTime					= 0;
; 46   : 	m_dwTurretDummyMakeEndTime			= 0;
; 47   : 
; 48   : 	m_fAirJumpPowerRate					= 0.0f;

  00000	0f 57 c0	 xorps	 xmm0, xmm0
  00003	33 c0		 xor	 eax, eax
  00005	89 81 54 19 00
	00		 mov	 DWORD PTR [ecx+6484], eax
  0000b	89 81 5c 19 00
	00		 mov	 DWORD PTR [ecx+6492], eax
  00011	89 81 58 0f 00
	00		 mov	 DWORD PTR [ecx+3928], eax
  00017	89 81 b0 19 00
	00		 mov	 DWORD PTR [ecx+6576], eax
  0001d	89 81 58 19 00
	00		 mov	 DWORD PTR [ecx+6488], eax
  00023	89 81 f8 0e 00
	00		 mov	 DWORD PTR [ecx+3832], eax
  00029	89 81 d0 19 00
	00		 mov	 DWORD PTR [ecx+6608], eax
  0002f	f3 0f 11 81 48
	0f 00 00	 movss	 DWORD PTR [ecx+3912], xmm0

; 49   : 	
; 50   : }

  00037	c3		 ret	 0
?Init@ioEngineerItem@@QAEXXZ ENDP			; ioEngineerItem::Init
_TEXT	ENDS
PUBLIC	??1GroupDummyInfo@@QAE@XZ			; GroupDummyInfo::~GroupDummyInfo
EXTRN	__imp_??1ioHashString@@QAE@XZ:PROC
; Function compile flags: /Ogsp
;	COMDAT ??1GroupDummyInfo@@QAE@XZ
_TEXT	SEGMENT
??1GroupDummyInfo@@QAE@XZ PROC				; GroupDummyInfo::~GroupDummyInfo, COMDAT
; _this$ = ecx
  00000	ff 25 00 00 00
	00		 jmp	 DWORD PTR __imp_??1ioHashString@@QAE@XZ
??1GroupDummyInfo@@QAE@XZ ENDP				; GroupDummyInfo::~GroupDummyInfo
_TEXT	ENDS
PUBLIC	?GetSubType@ioEngineerItem@@UBE?AW4WeaponSubType@ioWeaponItem@@XZ ; ioEngineerItem::GetSubType
; Function compile flags: /Ogsp
;	COMDAT ?GetSubType@ioEngineerItem@@UBE?AW4WeaponSubType@ioWeaponItem@@XZ
_TEXT	SEGMENT
?GetSubType@ioEngineerItem@@UBE?AW4WeaponSubType@ioWeaponItem@@XZ PROC ; ioEngineerItem::GetSubType, COMDAT
; _this$ = ecx

; 99   : 	return WST_ENGINEER_ITEM;

  00000	6a 6e		 push	 110			; 0000006eH
  00002	58		 pop	 eax

; 100  : }

  00003	c3		 ret	 0
?GetSubType@ioEngineerItem@@UBE?AW4WeaponSubType@ioWeaponItem@@XZ ENDP ; ioEngineerItem::GetSubType
_TEXT	ENDS
PUBLIC	?OnEquiped@ioEngineerItem@@UAEXPAVioBaseChar@@@Z ; ioEngineerItem::OnEquiped
EXTRN	?OnEquiped@ioAttackableItem@@UAEXPAVioBaseChar@@@Z:PROC ; ioAttackableItem::OnEquiped
; Function compile flags: /Ogsp
;	COMDAT ?OnEquiped@ioEngineerItem@@UAEXPAVioBaseChar@@@Z
_TEXT	SEGMENT
_pOwner$ = 8						; size = 4
?OnEquiped@ioEngineerItem@@UAEXPAVioBaseChar@@@Z PROC	; ioEngineerItem::OnEquiped, COMDAT
; _this$ = ecx

; 103  : {

  00000	55		 push	 ebp
  00001	8b ec		 mov	 ebp, esp

; 105  : }

  00003	5d		 pop	 ebp

; 104  : 	ioAttackableItem::OnEquiped( pOwner );	

  00004	e9 00 00 00 00	 jmp	 ?OnEquiped@ioAttackableItem@@UAEXPAVioBaseChar@@@Z ; ioAttackableItem::OnEquiped
?OnEquiped@ioEngineerItem@@UAEXPAVioBaseChar@@@Z ENDP	; ioEngineerItem::OnEquiped
_TEXT	ENDS
PUBLIC	?OnReleased@ioEngineerItem@@UAEXPAVioBaseChar@@@Z ; ioEngineerItem::OnReleased
EXTRN	?OnReleased@ioAttackableItem@@UAEXPAVioBaseChar@@@Z:PROC ; ioAttackableItem::OnReleased
; Function compile flags: /Ogsp
;	COMDAT ?OnReleased@ioEngineerItem@@UAEXPAVioBaseChar@@@Z
_TEXT	SEGMENT
_pOwner$ = 8						; size = 4
?OnReleased@ioEngineerItem@@UAEXPAVioBaseChar@@@Z PROC	; ioEngineerItem::OnReleased, COMDAT
; _this$ = ecx

; 108  : {

  00000	55		 push	 ebp
  00001	8b ec		 mov	 ebp, esp

; 110  : }

  00003	5d		 pop	 ebp

; 109  : 	ioAttackableItem::OnReleased( pOwner );

  00004	e9 00 00 00 00	 jmp	 ?OnReleased@ioAttackableItem@@UAEXPAVioBaseChar@@@Z ; ioAttackableItem::OnReleased
?OnReleased@ioEngineerItem@@UAEXPAVioBaseChar@@@Z ENDP	; ioEngineerItem::OnReleased
_TEXT	ENDS
PUBLIC	?OnNormalAttack@ioEngineerItem@@IAEXPAVioBaseChar@@@Z ; ioEngineerItem::OnNormalAttack
EXTRN	?CheckNormalAttack@ioAttackableItem@@UAEXPAVioBaseChar@@@Z:PROC ; ioAttackableItem::CheckNormalAttack
; Function compile flags: /Ogsp
;	COMDAT ?OnNormalAttack@ioEngineerItem@@IAEXPAVioBaseChar@@@Z
_TEXT	SEGMENT
_pOwner$ = 8						; size = 4
?OnNormalAttack@ioEngineerItem@@IAEXPAVioBaseChar@@@Z PROC ; ioEngineerItem::OnNormalAttack, COMDAT
; _this$ = ecx

; 162  : {

  00000	55		 push	 ebp
  00001	8b ec		 mov	 ebp, esp
  00003	56		 push	 esi
  00004	57		 push	 edi

; 163  : 	if( pOwner->IsNeedProcess() )

  00005	8b 7d 08	 mov	 edi, DWORD PTR _pOwner$[ebp]
  00008	8b 07		 mov	 eax, DWORD PTR [edi]
  0000a	8b f1		 mov	 esi, ecx
  0000c	8b cf		 mov	 ecx, edi
  0000e	ff 90 00 01 00
	00		 call	 DWORD PTR [eax+256]
  00014	84 c0		 test	 al, al
  00016	74 1a		 je	 SHORT $LN1@OnNormalAt

; 164  : 	{
; 165  : 		CheckCancelReserve( pOwner );

  00018	8b 06		 mov	 eax, DWORD PTR [esi]
  0001a	57		 push	 edi
  0001b	8b ce		 mov	 ecx, esi
  0001d	ff 90 40 02 00
	00		 call	 DWORD PTR [eax+576]

; 166  : 		if( ProcessCancel(pOwner) )

  00023	8b 06		 mov	 eax, DWORD PTR [esi]
  00025	57		 push	 edi
  00026	8b ce		 mov	 ecx, esi
  00028	ff 90 48 02 00
	00		 call	 DWORD PTR [eax+584]
  0002e	84 c0		 test	 al, al
  00030	75 08		 jne	 SHORT $LN3@OnNormalAt
$LN1@OnNormalAt:

; 167  : 			return;
; 168  : 	}
; 169  : 
; 170  : 	ioWeaponItem::CheckNormalAttack( pOwner );

  00032	57		 push	 edi
  00033	8b ce		 mov	 ecx, esi
  00035	e8 00 00 00 00	 call	 ?CheckNormalAttack@ioAttackableItem@@UAEXPAVioBaseChar@@@Z ; ioAttackableItem::CheckNormalAttack
$LN3@OnNormalAt:
  0003a	5f		 pop	 edi
  0003b	5e		 pop	 esi

; 171  : }

  0003c	5d		 pop	 ebp
  0003d	c2 04 00	 ret	 4
?OnNormalAttack@ioEngineerItem@@IAEXPAVioBaseChar@@@Z ENDP ; ioEngineerItem::OnNormalAttack
_TEXT	ENDS
PUBLIC	__real@3f800000
PUBLIC	__$ArrayPad$
PUBLIC	?ChangeToAttackFire@ioEngineerItem@@IAEXPAVioBaseChar@@@Z ; ioEngineerItem::ChangeToAttackFire
EXTRN	??1SP2Packet@@UAE@XZ:PROC			; SP2Packet::~SP2Packet
EXTRN	?SendToAllPlayingUser@P2PNetwork@@YAXAAVSP2Packet@@PAVioBaseChar@@@Z:PROC ; P2PNetwork::SendToAllPlayingUser
EXTRN	??6SP2Packet@@QAEAAV0@H@Z:PROC			; SP2Packet::operator<<
EXTRN	??6SP2Packet@@QAEAAV0@ABUD3DXQUATERNION@@@Z:PROC ; SP2Packet::operator<<
EXTRN	??6SP2Packet@@QAEAAV0@E@Z:PROC			; SP2Packet::operator<<
EXTRN	?FillItemGaugePacketHeader@ioAttackableItem@@QAEXPAVioBaseChar@@AAVSP2Packet@@@Z:PROC ; ioAttackableItem::FillItemGaugePacketHeader
EXTRN	??0SP2Packet@@QAE@K@Z:PROC			; SP2Packet::SP2Packet
EXTRN	?ApplyNormalAttackResult@ioBaseChar@@QAEXH_N@Z:PROC ; ioBaseChar::ApplyNormalAttackResult
EXTRN	__imp_??4ioHashString@@QAEAAV0@ABV0@@Z:PROC
EXTRN	?SetNormalAttackByAttribute@ioBaseChar@@QAEKABUAttackAttribute@@_NMM@Z:PROC ; ioBaseChar::SetNormalAttackByAttribute
EXTRN	?GetAttribute@ioFormalAttackGrp@@QBEPBUAttackAttribute@@W4AttackType@@H@Z:PROC ; ioFormalAttackGrp::GetAttribute
EXTRN	?InitExtendAttackTagInfo@ioBaseChar@@QAEXXZ:PROC ; ioBaseChar::InitExtendAttackTagInfo
EXTRN	__imp_?GetLoopSec@ioFrameTimer@@QBEKXZ:PROC
EXTRN	__imp_?GetSingleton@ioFrameTimer@@SAAAV1@XZ:PROC
EXTRN	___security_cookie:DWORD
EXTRN	___CxxFrameHandler3:PROC
EXTRN	@__security_check_cookie@4:PROC
EXTRN	__chkstk:PROC
;	COMDAT __real@3f800000
; File d:\lost saga for developer\youtube\tutorial\source\src\lsclient\iobasechar.h
CONST	SEGMENT
__real@3f800000 DD 03f800000r			; 1
CONST	ENDS
;	COMDAT xdata$x
xdata$x	SEGMENT
__unwindtable$?ChangeToAttackFire@ioEngineerItem@@IAEXPAVioBaseChar@@@Z DD 0ffffffffH
	DD	FLAT:__unwindfunclet$?ChangeToAttackFire@ioEngineerItem@@IAEXPAVioBaseChar@@@Z$0
__ehfuncinfo$?ChangeToAttackFire@ioEngineerItem@@IAEXPAVioBaseChar@@@Z DD 019930522H
	DD	01H
	DD	FLAT:__unwindtable$?ChangeToAttackFire@ioEngineerItem@@IAEXPAVioBaseChar@@@Z
	DD	2 DUP(00H)
	DD	2 DUP(00H)
	DD	00H
	DD	01H
; Function compile flags: /Ogsp
; File d:\lost saga for developer\youtube\tutorial\source\src\lsclient\ioengineeritem.cpp
xdata$x	ENDS
;	COMDAT ?ChangeToAttackFire@ioEngineerItem@@IAEXPAVioBaseChar@@@Z
_TEXT	SEGMENT
_dwCurTime$ = -32812					; size = 4
_kPacket$550244 = -32808				; size = 32792
__$ArrayPad$ = -16					; size = 4
__$EHRec$ = -12						; size = 12
_pOwner$ = 8						; size = 4
?ChangeToAttackFire@ioEngineerItem@@IAEXPAVioBaseChar@@@Z PROC ; ioEngineerItem::ChangeToAttackFire, COMDAT
; _this$ = ecx

; 199  : {

  00000	55		 push	 ebp
  00001	8b ec		 mov	 ebp, esp
  00003	6a ff		 push	 -1
  00005	68 00 00 00 00	 push	 __ehhandler$?ChangeToAttackFire@ioEngineerItem@@IAEXPAVioBaseChar@@@Z
  0000a	64 a1 00 00 00
	00		 mov	 eax, DWORD PTR fs:0
  00010	50		 push	 eax
  00011	b8 20 80 00 00	 mov	 eax, 32800		; 00008020H
  00016	e8 00 00 00 00	 call	 __chkstk
  0001b	a1 00 00 00 00	 mov	 eax, DWORD PTR ___security_cookie
  00020	33 c5		 xor	 eax, ebp
  00022	89 45 f0	 mov	 DWORD PTR __$ArrayPad$[ebp], eax
  00025	53		 push	 ebx
  00026	56		 push	 esi
  00027	57		 push	 edi
  00028	50		 push	 eax
  00029	8d 45 f4	 lea	 eax, DWORD PTR __$EHRec$[ebp]
  0002c	64 a3 00 00 00
	00		 mov	 DWORD PTR fs:0, eax
  00032	8b 7d 08	 mov	 edi, DWORD PTR _pOwner$[ebp]
  00035	8b f1		 mov	 esi, ecx

; 200  : 	if( !pOwner )

  00037	85 ff		 test	 edi, edi
  00039	0f 84 1c 01 00
	00		 je	 $LN1@ChangeToAt

; 201  : 		return;
; 202  : 
; 203  : 	DWORD dwCurTime = FRAMEGETTIME();

  0003f	ff 15 00 00 00
	00		 call	 DWORD PTR __imp_?GetSingleton@ioFrameTimer@@SAAAV1@XZ
  00045	8b c8		 mov	 ecx, eax
  00047	ff 15 00 00 00
	00		 call	 DWORD PTR __imp_?GetLoopSec@ioFrameTimer@@QBEKXZ

; 204  : 	pOwner->InitExtendAttackTagInfo();

  0004d	8b cf		 mov	 ecx, edi
  0004f	89 85 d4 7f ff
	ff		 mov	 DWORD PTR _dwCurTime$[ebp], eax
  00055	e8 00 00 00 00	 call	 ?InitExtendAttackTagInfo@ioBaseChar@@QAEXXZ ; ioBaseChar::InitExtendAttackTagInfo

; 205  : 	ClearCancelInfo();

  0005a	8b 06		 mov	 eax, DWORD PTR [esi]
  0005c	8b ce		 mov	 ecx, esi
  0005e	ff 90 3c 02 00
	00		 call	 DWORD PTR [eax+572]

; 206  : 
; 207  : 	const AttackAttribute *pAttribute = m_FormalAttack.GetAttribute( AT_NORMAL, m_iCurCombo );

  00064	ff b6 5c 19 00
	00		 push	 DWORD PTR [esi+6492]
  0006a	8d 8e 2c 06 00
	00		 lea	 ecx, DWORD PTR [esi+1580]
  00070	6a 00		 push	 0
  00072	e8 00 00 00 00	 call	 ?GetAttribute@ioFormalAttackGrp@@QBEPBUAttackAttribute@@W4AttackType@@H@Z ; ioFormalAttackGrp::GetAttribute
  00077	8b d8		 mov	 ebx, eax

; 208  : 	if( pAttribute )

  00079	85 db		 test	 ebx, ebx
  0007b	74 47		 je	 SHORT $LN2@ChangeToAt

; 209  : 	{
; 210  : 		pOwner->SetNormalAttackByAttribute( *pAttribute );

  0007d	f3 0f 10 05 00
	00 00 00	 movss	 xmm0, DWORD PTR __real@3f800000
  00085	51		 push	 ecx
  00086	51		 push	 ecx
  00087	f3 0f 11 44 24
	04		 movss	 DWORD PTR [esp+4], xmm0
  0008d	f3 0f 11 04 24	 movss	 DWORD PTR [esp], xmm0
  00092	6a 01		 push	 1
  00094	53		 push	 ebx
  00095	8b cf		 mov	 ecx, edi
  00097	e8 00 00 00 00	 call	 ?SetNormalAttackByAttribute@ioBaseChar@@QAEKABUAttackAttribute@@_NMM@Z ; ioBaseChar::SetNormalAttackByAttribute

; 211  : 
; 212  : 		m_szCurAni					= pAttribute->m_AttackAnimation;

  0009c	53		 push	 ebx
  0009d	8d 8e 10 0f 00
	00		 lea	 ecx, DWORD PTR [esi+3856]
  000a3	ff 15 00 00 00
	00		 call	 DWORD PTR __imp_??4ioHashString@@QAEAAV0@ABV0@@Z

; 213  : 		m_fCurAniRate				= pAttribute->m_fAttackAniRate;

  000a9	d9 43 10	 fld	 DWORD PTR [ebx+16]

; 214  : 		m_dwInputCancelCheckTime	= dwCurTime;

  000ac	8b 85 d4 7f ff
	ff		 mov	 eax, DWORD PTR _dwCurTime$[ebp]
  000b2	d9 9e 20 0f 00
	00		 fstp	 DWORD PTR [esi+3872]
  000b8	89 86 0c 0f 00
	00		 mov	 DWORD PTR [esi+3852], eax

; 215  : 		m_dwCancelCheckTime			= dwCurTime;

  000be	89 86 08 0f 00
	00		 mov	 DWORD PTR [esi+3848], eax
$LN2@ChangeToAt:

; 216  : 	}
; 217  : 
; 218  : 	pOwner->ApplyNormalAttackResult( m_iCurCombo );

  000c4	6a 00		 push	 0
  000c6	ff b6 5c 19 00
	00		 push	 DWORD PTR [esi+6492]
  000cc	8b cf		 mov	 ecx, edi
  000ce	e8 00 00 00 00	 call	 ?ApplyNormalAttackResult@ioBaseChar@@QAEXH_N@Z ; ioBaseChar::ApplyNormalAttackResult

; 219  : 	m_AttackState = AS_ATTACK_FIRE;

  000d3	6a 02		 push	 2
  000d5	5b		 pop	 ebx
  000d6	89 9e 54 19 00
	00		 mov	 DWORD PTR [esi+6484], ebx

; 220  : 
; 221  : 	if( pOwner->IsNeedSendNetwork() )

  000dc	8b 07		 mov	 eax, DWORD PTR [edi]
  000de	8b cf		 mov	 ecx, edi
  000e0	ff 90 04 01 00
	00		 call	 DWORD PTR [eax+260]
  000e6	84 c0		 test	 al, al
  000e8	74 71		 je	 SHORT $LN1@ChangeToAt

; 222  : 	{
; 223  : 		SP2Packet kPacket( CUPK_ITEM_GAUGE_OK );

  000ea	68 27 41 00 00	 push	 16679			; 00004127H
  000ef	8d 8d d8 7f ff
	ff		 lea	 ecx, DWORD PTR _kPacket$550244[ebp]
  000f5	e8 00 00 00 00	 call	 ??0SP2Packet@@QAE@K@Z	; SP2Packet::SP2Packet
  000fa	83 65 fc 00	 and	 DWORD PTR __$EHRec$[ebp+8], 0

; 224  : 		FillItemGaugePacketHeader( pOwner, kPacket );

  000fe	8d 85 d8 7f ff
	ff		 lea	 eax, DWORD PTR _kPacket$550244[ebp]
  00104	50		 push	 eax
  00105	57		 push	 edi
  00106	8b ce		 mov	 ecx, esi
  00108	e8 00 00 00 00	 call	 ?FillItemGaugePacketHeader@ioAttackableItem@@QAEXPAVioBaseChar@@AAVSP2Packet@@@Z ; ioAttackableItem::FillItemGaugePacketHeader

; 225  : 		kPacket << static_cast<byte>( AS_ATTACK_FIRE );

  0010d	53		 push	 ebx
  0010e	8d 8d d8 7f ff
	ff		 lea	 ecx, DWORD PTR _kPacket$550244[ebp]
  00114	e8 00 00 00 00	 call	 ??6SP2Packet@@QAEAAV0@E@Z ; SP2Packet::operator<<

; 226  : 		kPacket << pOwner->GetTargetRot();

  00119	81 c7 a4 06 00
	00		 add	 edi, 1700		; 000006a4H
  0011f	57		 push	 edi
  00120	8d 8d d8 7f ff
	ff		 lea	 ecx, DWORD PTR _kPacket$550244[ebp]
  00126	e8 00 00 00 00	 call	 ??6SP2Packet@@QAEAAV0@ABUD3DXQUATERNION@@@Z ; SP2Packet::operator<<

; 227  : 		kPacket << m_iCurCombo;

  0012b	ff b6 5c 19 00
	00		 push	 DWORD PTR [esi+6492]
  00131	8d 8d d8 7f ff
	ff		 lea	 ecx, DWORD PTR _kPacket$550244[ebp]
  00137	e8 00 00 00 00	 call	 ??6SP2Packet@@QAEAAV0@H@Z ; SP2Packet::operator<<

; 228  : 		P2PNetwork::SendToAllPlayingUser( kPacket );

  0013c	8d 85 d8 7f ff
	ff		 lea	 eax, DWORD PTR _kPacket$550244[ebp]
  00142	6a 00		 push	 0
  00144	50		 push	 eax
  00145	e8 00 00 00 00	 call	 ?SendToAllPlayingUser@P2PNetwork@@YAXAAVSP2Packet@@PAVioBaseChar@@@Z ; P2PNetwork::SendToAllPlayingUser

; 229  : 	}

  0014a	83 4d fc ff	 or	 DWORD PTR __$EHRec$[ebp+8], -1
  0014e	59		 pop	 ecx
  0014f	59		 pop	 ecx
  00150	8d 8d d8 7f ff
	ff		 lea	 ecx, DWORD PTR _kPacket$550244[ebp]
  00156	e8 00 00 00 00	 call	 ??1SP2Packet@@UAE@XZ	; SP2Packet::~SP2Packet
$LN1@ChangeToAt:

; 230  : }

  0015b	8b 4d f4	 mov	 ecx, DWORD PTR __$EHRec$[ebp]
  0015e	64 89 0d 00 00
	00 00		 mov	 DWORD PTR fs:0, ecx
  00165	59		 pop	 ecx
  00166	5f		 pop	 edi
  00167	5e		 pop	 esi
  00168	5b		 pop	 ebx
  00169	8b 4d f0	 mov	 ecx, DWORD PTR __$ArrayPad$[ebp]
  0016c	33 cd		 xor	 ecx, ebp
  0016e	e8 00 00 00 00	 call	 @__security_check_cookie@4
  00173	c9		 leave
  00174	c2 04 00	 ret	 4
_TEXT	ENDS
;	COMDAT text$x
text$x	SEGMENT
__unwindfunclet$?ChangeToAttackFire@ioEngineerItem@@IAEXPAVioBaseChar@@@Z$0:
  00000	8d 8d d8 7f ff
	ff		 lea	 ecx, DWORD PTR _kPacket$550244[ebp]
  00006	e9 00 00 00 00	 jmp	 ??1SP2Packet@@UAE@XZ	; SP2Packet::~SP2Packet
__ehhandler$?ChangeToAttackFire@ioEngineerItem@@IAEXPAVioBaseChar@@@Z:
  0000b	8b 54 24 08	 mov	 edx, DWORD PTR [esp+8]
  0000f	8d 42 0c	 lea	 eax, DWORD PTR [edx+12]
  00012	8b 8a d0 7f ff
	ff		 mov	 ecx, DWORD PTR [edx-32816]
  00018	33 c8		 xor	 ecx, eax
  0001a	e8 00 00 00 00	 call	 @__security_check_cookie@4
  0001f	8b 4a fc	 mov	 ecx, DWORD PTR [edx-4]
  00022	33 c8		 xor	 ecx, eax
  00024	e8 00 00 00 00	 call	 @__security_check_cookie@4
  00029	b8 00 00 00 00	 mov	 eax, OFFSET __ehfuncinfo$?ChangeToAttackFire@ioEngineerItem@@IAEXPAVioBaseChar@@@Z
  0002e	e9 00 00 00 00	 jmp	 ___CxxFrameHandler3
text$x	ENDS
?ChangeToAttackFire@ioEngineerItem@@IAEXPAVioBaseChar@@@Z ENDP ; ioEngineerItem::ChangeToAttackFire
PUBLIC	?OnDummyMake@ioEngineerItem@@IAEXPAVioBaseChar@@@Z ; ioEngineerItem::OnDummyMake
EXTRN	?SetState@ioBaseChar@@QAEXH_N@Z:PROC		; ioBaseChar::SetState
; Function compile flags: /Ogsp
;	COMDAT ?OnDummyMake@ioEngineerItem@@IAEXPAVioBaseChar@@@Z
_TEXT	SEGMENT
_pOwner$ = 8						; size = 4
?OnDummyMake@ioEngineerItem@@IAEXPAVioBaseChar@@@Z PROC	; ioEngineerItem::OnDummyMake, COMDAT
; _this$ = ecx

; 489  : {

  00000	55		 push	 ebp
  00001	8b ec		 mov	 ebp, esp
  00003	56		 push	 esi
  00004	8b f1		 mov	 esi, ecx

; 490  : 	if( m_dwTurretDummyMakeEndTime < FRAMEGETTIME() )

  00006	ff 15 00 00 00
	00		 call	 DWORD PTR __imp_?GetSingleton@ioFrameTimer@@SAAAV1@XZ
  0000c	8b c8		 mov	 ecx, eax
  0000e	ff 15 00 00 00
	00		 call	 DWORD PTR __imp_?GetLoopSec@ioFrameTimer@@QBEKXZ
  00014	39 86 d0 19 00
	00		 cmp	 DWORD PTR [esi+6608], eax
  0001a	73 13		 jae	 SHORT $LN1@OnDummyMak

; 491  : 	{
; 492  : 		m_AttackState = AS_NONE;
; 493  : 		pOwner->SetState( CS_DELAY );

  0001c	8b 4d 08	 mov	 ecx, DWORD PTR _pOwner$[ebp]
  0001f	83 a6 54 19 00
	00 00		 and	 DWORD PTR [esi+6484], 0
  00026	6a 01		 push	 1
  00028	6a 00		 push	 0
  0002a	e8 00 00 00 00	 call	 ?SetState@ioBaseChar@@QAEXH_N@Z ; ioBaseChar::SetState
$LN1@OnDummyMak:
  0002f	5e		 pop	 esi

; 494  : 	}
; 495  : }

  00030	5d		 pop	 ebp
  00031	c2 04 00	 ret	 4
?OnDummyMake@ioEngineerItem@@IAEXPAVioBaseChar@@@Z ENDP	; ioEngineerItem::OnDummyMake
_TEXT	ENDS
PUBLIC	?IsChargeAttackState@ioEngineerItem@@UAE_NPAVioBaseChar@@@Z ; ioEngineerItem::IsChargeAttackState
; Function compile flags: /Ogsp
;	COMDAT ?IsChargeAttackState@ioEngineerItem@@UAE_NPAVioBaseChar@@@Z
_TEXT	SEGMENT
_pOwner$ = 8						; size = 4
?IsChargeAttackState@ioEngineerItem@@UAE_NPAVioBaseChar@@@Z PROC ; ioEngineerItem::IsChargeAttackState, COMDAT
; _this$ = ecx

; 500  : {

  00000	55		 push	 ebp
  00001	8b ec		 mov	 ebp, esp

; 501  : 	if( pOwner->GetState() == CS_ATTACK )

  00003	8b 45 08	 mov	 eax, DWORD PTR _pOwner$[ebp]
  00006	80 b8 10 03 00
	00 05		 cmp	 BYTE PTR [eax+784], 5
  0000d	0f 94 c0	 sete	 al

; 502  : 	{
; 503  : 		return true; 
; 504  : 	}
; 505  : 
; 506  : 	return false;
; 507  : }

  00010	5d		 pop	 ebp
  00011	c2 04 00	 ret	 4
?IsChargeAttackState@ioEngineerItem@@UAE_NPAVioBaseChar@@@Z ENDP ; ioEngineerItem::IsChargeAttackState
_TEXT	ENDS
PUBLIC	?IsEnableAttackDashCheck@ioEngineerItem@@UAE_NPAVioBaseChar@@_N@Z ; ioEngineerItem::IsEnableAttackDashCheck
; Function compile flags: /Ogsp
;	COMDAT ?IsEnableAttackDashCheck@ioEngineerItem@@UAE_NPAVioBaseChar@@_N@Z
_TEXT	SEGMENT
_pOwner$ = 8						; size = 4
_bCheck$ = 12						; size = 1
?IsEnableAttackDashCheck@ioEngineerItem@@UAE_NPAVioBaseChar@@_N@Z PROC ; ioEngineerItem::IsEnableAttackDashCheck, COMDAT
; _this$ = ecx

; 510  : {

  00000	55		 push	 ebp
  00001	8b ec		 mov	 ebp, esp

; 511  : 	if( pOwner->GetState() == CS_ATTACK )

  00003	8b 45 08	 mov	 eax, DWORD PTR _pOwner$[ebp]
  00006	80 b8 10 03 00
	00 05		 cmp	 BYTE PTR [eax+784], 5
  0000d	75 12		 jne	 SHORT $LN3@IsEnableAt

; 512  : 	{
; 513  : 		switch( m_AttackState )

  0000f	8b 81 54 19 00
	00		 mov	 eax, DWORD PTR [ecx+6484]
  00015	48		 dec	 eax
  00016	48		 dec	 eax
  00017	75 08		 jne	 SHORT $LN3@IsEnableAt

; 514  : 		{
; 515  : 		case AS_ATTACK_FIRE:
; 516  : 			if( !bCheck )

  00019	38 45 0c	 cmp	 BYTE PTR _bCheck$[ebp], al
  0001c	0f 95 c0	 setne	 al

; 517  : 				return false;
; 518  : 
; 519  : 			return true;

  0001f	eb 02		 jmp	 SHORT $LN6@IsEnableAt
$LN3@IsEnableAt:

; 520  : 		}
; 521  : 	}
; 522  : 	return false;

  00021	32 c0		 xor	 al, al
$LN6@IsEnableAt:

; 523  : }

  00023	5d		 pop	 ebp
  00024	c2 08 00	 ret	 8
?IsEnableAttackDashCheck@ioEngineerItem@@UAE_NPAVioBaseChar@@_N@Z ENDP ; ioEngineerItem::IsEnableAttackDashCheck
_TEXT	ENDS
PUBLIC	??A?$vector@VioHashString@@V?$allocator@VioHashString@@@std@@@std@@QAEAAVioHashString@@I@Z ; std::vector<ioHashString,std::allocator<ioHashString> >::operator[]
; Function compile flags: /Ogsp
; File c:\program files (x86)\microsoft visual studio 10.0\vc\include\vector
;	COMDAT ??A?$vector@VioHashString@@V?$allocator@VioHashString@@@std@@@std@@QAEAAVioHashString@@I@Z
_TEXT	SEGMENT
__Pos$ = 8						; size = 4
??A?$vector@VioHashString@@V?$allocator@VioHashString@@@std@@@std@@QAEAAVioHashString@@I@Z PROC ; std::vector<ioHashString,std::allocator<ioHashString> >::operator[], COMDAT
; _this$ = ecx

; 928  : 		{	// subscript mutable sequence

  00000	55		 push	 ebp
  00001	8b ec		 mov	 ebp, esp

; 929  :  #if _ITERATOR_DEBUG_LEVEL == 2
; 930  : 		if (size() <= _Pos)
; 931  : 			{	// report error
; 932  : 			_DEBUG_ERROR("vector subscript out of range");
; 933  : 			_SCL_SECURE_OUT_OF_RANGE;
; 934  : 			}
; 935  : 
; 936  :  #elif _ITERATOR_DEBUG_LEVEL == 1
; 937  : 		_SCL_SECURE_VALIDATE_RANGE(_Pos < size());
; 938  :  #endif /* _ITERATOR_DEBUG_LEVEL */
; 939  : 
; 940  : 		return (*(this->_Myfirst + _Pos));

  00003	8b 45 08	 mov	 eax, DWORD PTR __Pos$[ebp]
  00006	c1 e0 04	 shl	 eax, 4
  00009	03 01		 add	 eax, DWORD PTR [ecx]

; 941  : 		}

  0000b	5d		 pop	 ebp
  0000c	c2 04 00	 ret	 4
??A?$vector@VioHashString@@V?$allocator@VioHashString@@@std@@@std@@QAEAAVioHashString@@I@Z ENDP ; std::vector<ioHashString,std::allocator<ioHashString> >::operator[]
_TEXT	ENDS
PUBLIC	?size@?$vector@UGroupDummyInfo@@V?$allocator@UGroupDummyInfo@@@std@@@std@@QBEIXZ ; std::vector<GroupDummyInfo,std::allocator<GroupDummyInfo> >::size
; Function compile flags: /Ogsp
;	COMDAT ?size@?$vector@UGroupDummyInfo@@V?$allocator@UGroupDummyInfo@@@std@@@std@@QBEIXZ
_TEXT	SEGMENT
?size@?$vector@UGroupDummyInfo@@V?$allocator@UGroupDummyInfo@@@std@@@std@@QBEIXZ PROC ; std::vector<GroupDummyInfo,std::allocator<GroupDummyInfo> >::size, COMDAT
; _this$ = ecx

; 879  : 		return (this->_Mylast - this->_Myfirst);

  00000	8b 41 04	 mov	 eax, DWORD PTR [ecx+4]
  00003	2b 01		 sub	 eax, DWORD PTR [ecx]
  00005	6a 14		 push	 20			; 00000014H
  00007	99		 cdq
  00008	59		 pop	 ecx
  00009	f7 f9		 idiv	 ecx

; 880  : 		}

  0000b	c3		 ret	 0
?size@?$vector@UGroupDummyInfo@@V?$allocator@UGroupDummyInfo@@@std@@@std@@QBEIXZ ENDP ; std::vector<GroupDummyInfo,std::allocator<GroupDummyInfo> >::size
_TEXT	ENDS
PUBLIC	?empty@?$vector@UGroupDummyInfo@@V?$allocator@UGroupDummyInfo@@@std@@@std@@QBE_NXZ ; std::vector<GroupDummyInfo,std::allocator<GroupDummyInfo> >::empty
; Function compile flags: /Ogsp
;	COMDAT ?empty@?$vector@UGroupDummyInfo@@V?$allocator@UGroupDummyInfo@@@std@@@std@@QBE_NXZ
_TEXT	SEGMENT
?empty@?$vector@UGroupDummyInfo@@V?$allocator@UGroupDummyInfo@@@std@@@std@@QBE_NXZ PROC ; std::vector<GroupDummyInfo,std::allocator<GroupDummyInfo> >::empty, COMDAT
; _this$ = ecx

; 889  : 		return (this->_Myfirst == this->_Mylast);

  00000	8b 01		 mov	 eax, DWORD PTR [ecx]
  00002	2b 41 04	 sub	 eax, DWORD PTR [ecx+4]
  00005	f7 d8		 neg	 eax
  00007	1b c0		 sbb	 eax, eax
  00009	40		 inc	 eax

; 890  : 		}

  0000a	c3		 ret	 0
?empty@?$vector@UGroupDummyInfo@@V?$allocator@UGroupDummyInfo@@@std@@@std@@QBE_NXZ ENDP ; std::vector<GroupDummyInfo,std::allocator<GroupDummyInfo> >::empty
_TEXT	ENDS
PUBLIC	??A?$vector@UGroupDummyInfo@@V?$allocator@UGroupDummyInfo@@@std@@@std@@QAEAAUGroupDummyInfo@@I@Z ; std::vector<GroupDummyInfo,std::allocator<GroupDummyInfo> >::operator[]
; Function compile flags: /Ogsp
;	COMDAT ??A?$vector@UGroupDummyInfo@@V?$allocator@UGroupDummyInfo@@@std@@@std@@QAEAAUGroupDummyInfo@@I@Z
_TEXT	SEGMENT
__Pos$ = 8						; size = 4
??A?$vector@UGroupDummyInfo@@V?$allocator@UGroupDummyInfo@@@std@@@std@@QAEAAUGroupDummyInfo@@I@Z PROC ; std::vector<GroupDummyInfo,std::allocator<GroupDummyInfo> >::operator[], COMDAT
; _this$ = ecx

; 928  : 		{	// subscript mutable sequence

  00000	55		 push	 ebp
  00001	8b ec		 mov	 ebp, esp

; 929  :  #if _ITERATOR_DEBUG_LEVEL == 2
; 930  : 		if (size() <= _Pos)
; 931  : 			{	// report error
; 932  : 			_DEBUG_ERROR("vector subscript out of range");
; 933  : 			_SCL_SECURE_OUT_OF_RANGE;
; 934  : 			}
; 935  : 
; 936  :  #elif _ITERATOR_DEBUG_LEVEL == 1
; 937  : 		_SCL_SECURE_VALIDATE_RANGE(_Pos < size());
; 938  :  #endif /* _ITERATOR_DEBUG_LEVEL */
; 939  : 
; 940  : 		return (*(this->_Myfirst + _Pos));

  00003	8b 45 08	 mov	 eax, DWORD PTR __Pos$[ebp]
  00006	6b c0 14	 imul	 eax, 20			; 00000014H
  00009	03 01		 add	 eax, DWORD PTR [ecx]

; 941  : 		}

  0000b	5d		 pop	 ebp
  0000c	c2 04 00	 ret	 4
??A?$vector@UGroupDummyInfo@@V?$allocator@UGroupDummyInfo@@@std@@@std@@QAEAAUGroupDummyInfo@@I@Z ENDP ; std::vector<GroupDummyInfo,std::allocator<GroupDummyInfo> >::operator[]
_TEXT	ENDS
PUBLIC	?capacity@?$vector@VioHashString@@V?$allocator@VioHashString@@@std@@@std@@QBEIXZ ; std::vector<ioHashString,std::allocator<ioHashString> >::capacity
; Function compile flags: /Ogsp
;	COMDAT ?capacity@?$vector@VioHashString@@V?$allocator@VioHashString@@@std@@@std@@QBEIXZ
_TEXT	SEGMENT
?capacity@?$vector@VioHashString@@V?$allocator@VioHashString@@@std@@@std@@QBEIXZ PROC ; std::vector<ioHashString,std::allocator<ioHashString> >::capacity, COMDAT
; _this$ = ecx

; 777  : 		return (this->_Myend - this->_Myfirst);

  00000	8b 41 08	 mov	 eax, DWORD PTR [ecx+8]
  00003	2b 01		 sub	 eax, DWORD PTR [ecx]
  00005	c1 f8 04	 sar	 eax, 4

; 778  : 		}

  00008	c3		 ret	 0
?capacity@?$vector@VioHashString@@V?$allocator@VioHashString@@@std@@@std@@QBEIXZ ENDP ; std::vector<ioHashString,std::allocator<ioHashString> >::capacity
_TEXT	ENDS
PUBLIC	?_Inside@?$vector@VioHashString@@V?$allocator@VioHashString@@@std@@@std@@IBE_NPBVioHashString@@@Z ; std::vector<ioHashString,std::allocator<ioHashString> >::_Inside
; Function compile flags: /Ogsp
;	COMDAT ?_Inside@?$vector@VioHashString@@V?$allocator@VioHashString@@@std@@@std@@IBE_NPBVioHashString@@@Z
_TEXT	SEGMENT
__Ptr$ = 8						; size = 4
?_Inside@?$vector@VioHashString@@V?$allocator@VioHashString@@@std@@@std@@IBE_NPBVioHashString@@@Z PROC ; std::vector<ioHashString,std::allocator<ioHashString> >::_Inside, COMDAT
; _this$ = ecx

; 1285 : 		{	// test if _Ptr points inside vector

  00000	55		 push	 ebp
  00001	8b ec		 mov	 ebp, esp

; 1286 : 		return (_Ptr < this->_Mylast && this->_Myfirst <= _Ptr);

  00003	8b 45 08	 mov	 eax, DWORD PTR __Ptr$[ebp]
  00006	3b 41 04	 cmp	 eax, DWORD PTR [ecx+4]
  00009	73 09		 jae	 SHORT $LN3@Inside
  0000b	39 01		 cmp	 DWORD PTR [ecx], eax
  0000d	77 05		 ja	 SHORT $LN3@Inside
  0000f	33 c0		 xor	 eax, eax
  00011	40		 inc	 eax
  00012	eb 02		 jmp	 SHORT $LN4@Inside
$LN3@Inside:
  00014	33 c0		 xor	 eax, eax
$LN4@Inside:

; 1287 : 		}

  00016	5d		 pop	 ebp
  00017	c2 04 00	 ret	 4
?_Inside@?$vector@VioHashString@@V?$allocator@VioHashString@@@std@@@std@@IBE_NPBVioHashString@@@Z ENDP ; std::vector<ioHashString,std::allocator<ioHashString> >::_Inside
_TEXT	ENDS
PUBLIC	?_Orphan_range@?$vector@VioHashString@@V?$allocator@VioHashString@@@std@@@std@@IBEXPAVioHashString@@0@Z ; std::vector<ioHashString,std::allocator<ioHashString> >::_Orphan_range
; Function compile flags: /Ogsp
;	COMDAT ?_Orphan_range@?$vector@VioHashString@@V?$allocator@VioHashString@@@std@@@std@@IBEXPAVioHashString@@0@Z
_TEXT	SEGMENT
___formal$ = 8						; size = 4
___formal$ = 12						; size = 4
?_Orphan_range@?$vector@VioHashString@@V?$allocator@VioHashString@@@std@@@std@@IBEXPAVioHashString@@0@Z PROC ; std::vector<ioHashString,std::allocator<ioHashString> >::_Orphan_range, COMDAT
; _this$ = ecx

; 1454 : 		}

  00000	c2 08 00	 ret	 8
?_Orphan_range@?$vector@VioHashString@@V?$allocator@VioHashString@@@std@@@std@@IBEXPAVioHashString@@0@Z ENDP ; std::vector<ioHashString,std::allocator<ioHashString> >::_Orphan_range
_TEXT	ENDS
PUBLIC	??0?$allocator@PAVioDummyChar@@@std@@QAE@XZ	; std::allocator<ioDummyChar *>::allocator<ioDummyChar *>
; Function compile flags: /Ogsp
; File c:\program files (x86)\microsoft visual studio 10.0\vc\include\xmemory
;	COMDAT ??0?$allocator@PAVioDummyChar@@@std@@QAE@XZ
_TEXT	SEGMENT
??0?$allocator@PAVioDummyChar@@@std@@QAE@XZ PROC	; std::allocator<ioDummyChar *>::allocator<ioDummyChar *>, COMDAT
; _this$ = ecx

; 161  : 	_ALLOCATOR() _THROW0()

  00000	8b c1		 mov	 eax, ecx

; 162  : 		{	// construct default allocator (do nothing)
; 163  : 		}

  00002	c3		 ret	 0
??0?$allocator@PAVioDummyChar@@@std@@QAE@XZ ENDP	; std::allocator<ioDummyChar *>::allocator<ioDummyChar *>
_TEXT	ENDS
PUBLIC	?_Inside@?$vector@UGroupDummyInfo@@V?$allocator@UGroupDummyInfo@@@std@@@std@@IBE_NPBUGroupDummyInfo@@@Z ; std::vector<GroupDummyInfo,std::allocator<GroupDummyInfo> >::_Inside
; Function compile flags: /Ogsp
; File c:\program files (x86)\microsoft visual studio 10.0\vc\include\vector
;	COMDAT ?_Inside@?$vector@UGroupDummyInfo@@V?$allocator@UGroupDummyInfo@@@std@@@std@@IBE_NPBUGroupDummyInfo@@@Z
_TEXT	SEGMENT
__Ptr$ = 8						; size = 4
?_Inside@?$vector@UGroupDummyInfo@@V?$allocator@UGroupDummyInfo@@@std@@@std@@IBE_NPBUGroupDummyInfo@@@Z PROC ; std::vector<GroupDummyInfo,std::allocator<GroupDummyInfo> >::_Inside, COMDAT
; _this$ = ecx

; 1285 : 		{	// test if _Ptr points inside vector

  00000	55		 push	 ebp
  00001	8b ec		 mov	 ebp, esp

; 1286 : 		return (_Ptr < this->_Mylast && this->_Myfirst <= _Ptr);

  00003	8b 45 08	 mov	 eax, DWORD PTR __Ptr$[ebp]
  00006	3b 41 04	 cmp	 eax, DWORD PTR [ecx+4]
  00009	73 09		 jae	 SHORT $LN3@Inside@2
  0000b	39 01		 cmp	 DWORD PTR [ecx], eax
  0000d	77 05		 ja	 SHORT $LN3@Inside@2
  0000f	33 c0		 xor	 eax, eax
  00011	40		 inc	 eax
  00012	eb 02		 jmp	 SHORT $LN4@Inside@2
$LN3@Inside@2:
  00014	33 c0		 xor	 eax, eax
$LN4@Inside@2:

; 1287 : 		}

  00016	5d		 pop	 ebp
  00017	c2 04 00	 ret	 4
?_Inside@?$vector@UGroupDummyInfo@@V?$allocator@UGroupDummyInfo@@@std@@@std@@IBE_NPBUGroupDummyInfo@@@Z ENDP ; std::vector<GroupDummyInfo,std::allocator<GroupDummyInfo> >::_Inside
_TEXT	ENDS
PUBLIC	?_Orphan_range@?$vector@UGroupDummyInfo@@V?$allocator@UGroupDummyInfo@@@std@@@std@@IBEXPAUGroupDummyInfo@@0@Z ; std::vector<GroupDummyInfo,std::allocator<GroupDummyInfo> >::_Orphan_range
; Function compile flags: /Ogsp
;	COMDAT ?_Orphan_range@?$vector@UGroupDummyInfo@@V?$allocator@UGroupDummyInfo@@@std@@@std@@IBEXPAUGroupDummyInfo@@0@Z
_TEXT	SEGMENT
___formal$ = 8						; size = 4
___formal$ = 12						; size = 4
?_Orphan_range@?$vector@UGroupDummyInfo@@V?$allocator@UGroupDummyInfo@@@std@@@std@@IBEXPAUGroupDummyInfo@@0@Z PROC ; std::vector<GroupDummyInfo,std::allocator<GroupDummyInfo> >::_Orphan_range, COMDAT
; _this$ = ecx

; 1454 : 		}

  00000	c2 08 00	 ret	 8
?_Orphan_range@?$vector@UGroupDummyInfo@@V?$allocator@UGroupDummyInfo@@@std@@@std@@IBEXPAUGroupDummyInfo@@0@Z ENDP ; std::vector<GroupDummyInfo,std::allocator<GroupDummyInfo> >::_Orphan_range
_TEXT	ENDS
PUBLIC	??1?$_Vector_val@UGroupDummyInfo@@V?$allocator@UGroupDummyInfo@@@std@@@std@@QAE@XZ ; std::_Vector_val<GroupDummyInfo,std::allocator<GroupDummyInfo> >::~_Vector_val<GroupDummyInfo,std::allocator<GroupDummyInfo> >
; Function compile flags: /Ogsp
;	COMDAT ??1?$_Vector_val@UGroupDummyInfo@@V?$allocator@UGroupDummyInfo@@@std@@@std@@QAE@XZ
_TEXT	SEGMENT
??1?$_Vector_val@UGroupDummyInfo@@V?$allocator@UGroupDummyInfo@@@std@@@std@@QAE@XZ PROC ; std::_Vector_val<GroupDummyInfo,std::allocator<GroupDummyInfo> >::~_Vector_val<GroupDummyInfo,std::allocator<GroupDummyInfo> >, COMDAT
; _this$ = ecx

; 434  : 		}

  00000	c3		 ret	 0
??1?$_Vector_val@UGroupDummyInfo@@V?$allocator@UGroupDummyInfo@@@std@@@std@@QAE@XZ ENDP ; std::_Vector_val<GroupDummyInfo,std::allocator<GroupDummyInfo> >::~_Vector_val<GroupDummyInfo,std::allocator<GroupDummyInfo> >
_TEXT	ENDS
PUBLIC	??0?$allocator@UGroupDummyInfo@@@std@@QAE@XZ	; std::allocator<GroupDummyInfo>::allocator<GroupDummyInfo>
; Function compile flags: /Ogsp
; File c:\program files (x86)\microsoft visual studio 10.0\vc\include\xmemory
;	COMDAT ??0?$allocator@UGroupDummyInfo@@@std@@QAE@XZ
_TEXT	SEGMENT
??0?$allocator@UGroupDummyInfo@@@std@@QAE@XZ PROC	; std::allocator<GroupDummyInfo>::allocator<GroupDummyInfo>, COMDAT
; _this$ = ecx

; 161  : 	_ALLOCATOR() _THROW0()

  00000	8b c1		 mov	 eax, ecx

; 162  : 		{	// construct default allocator (do nothing)
; 163  : 		}

  00002	c3		 ret	 0
??0?$allocator@UGroupDummyInfo@@@std@@QAE@XZ ENDP	; std::allocator<GroupDummyInfo>::allocator<GroupDummyInfo>
_TEXT	ENDS
PUBLIC	??0?$allocator@UGroupDummyInfo@@@std@@QAE@ABV01@@Z ; std::allocator<GroupDummyInfo>::allocator<GroupDummyInfo>
; Function compile flags: /Ogsp
;	COMDAT ??0?$allocator@UGroupDummyInfo@@@std@@QAE@ABV01@@Z
_TEXT	SEGMENT
___formal$ = 8						; size = 4
??0?$allocator@UGroupDummyInfo@@@std@@QAE@ABV01@@Z PROC	; std::allocator<GroupDummyInfo>::allocator<GroupDummyInfo>, COMDAT
; _this$ = ecx

; 165  : 	_ALLOCATOR(const _ALLOCATOR<_Ty>&) _THROW0()

  00000	8b c1		 mov	 eax, ecx

; 166  : 		{	// construct by copying (do nothing)
; 167  : 		}

  00002	c2 04 00	 ret	 4
??0?$allocator@UGroupDummyInfo@@@std@@QAE@ABV01@@Z ENDP	; std::allocator<GroupDummyInfo>::allocator<GroupDummyInfo>
_TEXT	ENDS
PUBLIC	?capacity@?$vector@UGroupDummyInfo@@V?$allocator@UGroupDummyInfo@@@std@@@std@@QBEIXZ ; std::vector<GroupDummyInfo,std::allocator<GroupDummyInfo> >::capacity
; Function compile flags: /Ogsp
; File c:\program files (x86)\microsoft visual studio 10.0\vc\include\vector
;	COMDAT ?capacity@?$vector@UGroupDummyInfo@@V?$allocator@UGroupDummyInfo@@@std@@@std@@QBEIXZ
_TEXT	SEGMENT
?capacity@?$vector@UGroupDummyInfo@@V?$allocator@UGroupDummyInfo@@@std@@@std@@QBEIXZ PROC ; std::vector<GroupDummyInfo,std::allocator<GroupDummyInfo> >::capacity, COMDAT
; _this$ = ecx

; 777  : 		return (this->_Myend - this->_Myfirst);

  00000	8b 41 08	 mov	 eax, DWORD PTR [ecx+8]
  00003	2b 01		 sub	 eax, DWORD PTR [ecx]
  00005	6a 14		 push	 20			; 00000014H
  00007	99		 cdq
  00008	59		 pop	 ecx
  00009	f7 f9		 idiv	 ecx

; 778  : 		}

  0000b	c3		 ret	 0
?capacity@?$vector@UGroupDummyInfo@@V?$allocator@UGroupDummyInfo@@@std@@@std@@QBEIXZ ENDP ; std::vector<GroupDummyInfo,std::allocator<GroupDummyInfo> >::capacity
_TEXT	ENDS
PUBLIC	??_C@_0BD@OLBABOEK@vector?$DMT?$DO?5too?5long?$AA@ ; `string'
PUBLIC	?_Xlen@?$vector@UGroupDummyInfo@@V?$allocator@UGroupDummyInfo@@@std@@@std@@IBEXXZ ; std::vector<GroupDummyInfo,std::allocator<GroupDummyInfo> >::_Xlen
EXTRN	__imp_?_Xlength_error@std@@YAXPBD@Z:PROC
;	COMDAT ??_C@_0BD@OLBABOEK@vector?$DMT?$DO?5too?5long?$AA@
CONST	SEGMENT
??_C@_0BD@OLBABOEK@vector?$DMT?$DO?5too?5long?$AA@ DB 'vector<T> too long'
	DB	00H						; `string'
; Function compile flags: /Ogsp
CONST	ENDS
;	COMDAT ?_Xlen@?$vector@UGroupDummyInfo@@V?$allocator@UGroupDummyInfo@@@std@@@std@@IBEXXZ
_TEXT	SEGMENT
?_Xlen@?$vector@UGroupDummyInfo@@V?$allocator@UGroupDummyInfo@@@std@@@std@@IBEXXZ PROC ; std::vector<GroupDummyInfo,std::allocator<GroupDummyInfo> >::_Xlen, COMDAT
; _this$ = ecx

; 1427 : 		_Xlength_error("vector<T> too long");

  00000	68 00 00 00 00	 push	 OFFSET ??_C@_0BD@OLBABOEK@vector?$DMT?$DO?5too?5long?$AA@
  00005	ff 15 00 00 00
	00		 call	 DWORD PTR __imp_?_Xlength_error@std@@YAXPBD@Z
$LN4@Xlen:
$LN3@Xlen:
  0000b	cc		 int	 3
?_Xlen@?$vector@UGroupDummyInfo@@V?$allocator@UGroupDummyInfo@@@std@@@std@@IBEXXZ ENDP ; std::vector<GroupDummyInfo,std::allocator<GroupDummyInfo> >::_Xlen
_TEXT	ENDS
PUBLIC	?deallocate@?$allocator@UGroupDummyInfo@@@std@@QAEXPAUGroupDummyInfo@@I@Z ; std::allocator<GroupDummyInfo>::deallocate
; Function compile flags: /Ogsp
; File c:\program files (x86)\microsoft visual studio 10.0\vc\include\xmemory
;	COMDAT ?deallocate@?$allocator@UGroupDummyInfo@@@std@@QAEXPAUGroupDummyInfo@@I@Z
_TEXT	SEGMENT
__Ptr$ = 8						; size = 4
___formal$ = 12						; size = 4
?deallocate@?$allocator@UGroupDummyInfo@@@std@@QAEXPAUGroupDummyInfo@@I@Z PROC ; std::allocator<GroupDummyInfo>::deallocate, COMDAT
; _this$ = ecx

; 181  : 		{	// deallocate object at _Ptr, ignore size

  00000	55		 push	 ebp
  00001	8b ec		 mov	 ebp, esp

; 182  : 		::operator delete(_Ptr);

  00003	ff 75 08	 push	 DWORD PTR __Ptr$[ebp]
  00006	e8 00 00 00 00	 call	 ??3@YAXPAX@Z		; operator delete
  0000b	59		 pop	 ecx

; 183  : 		}

  0000c	5d		 pop	 ebp
  0000d	c2 08 00	 ret	 8
?deallocate@?$allocator@UGroupDummyInfo@@@std@@QAEXPAUGroupDummyInfo@@I@Z ENDP ; std::allocator<GroupDummyInfo>::deallocate
_TEXT	ENDS
PUBLIC	??0?$_Vector_const_iterator@V?$_Vector_val@UGroupDummyInfo@@V?$allocator@UGroupDummyInfo@@@std@@@std@@@std@@QAE@PAUGroupDummyInfo@@PBU_Container_base0@1@@Z ; std::_Vector_const_iterator<std::_Vector_val<GroupDummyInfo,std::allocator<GroupDummyInfo> > >::_Vector_const_iterator<std::_Vector_val<GroupDummyInfo,std::allocator<GroupDummyInfo> > >
; Function compile flags: /Ogsp
; File c:\program files (x86)\microsoft visual studio 10.0\vc\include\vector
;	COMDAT ??0?$_Vector_const_iterator@V?$_Vector_val@UGroupDummyInfo@@V?$allocator@UGroupDummyInfo@@@std@@@std@@@std@@QAE@PAUGroupDummyInfo@@PBU_Container_base0@1@@Z
_TEXT	SEGMENT
__Parg$ = 8						; size = 4
__Pvector$ = 12						; size = 4
??0?$_Vector_const_iterator@V?$_Vector_val@UGroupDummyInfo@@V?$allocator@UGroupDummyInfo@@@std@@@std@@@std@@QAE@PAUGroupDummyInfo@@PBU_Container_base0@1@@Z PROC ; std::_Vector_const_iterator<std::_Vector_val<GroupDummyInfo,std::allocator<GroupDummyInfo> > >::_Vector_const_iterator<std::_Vector_val<GroupDummyInfo,std::allocator<GroupDummyInfo> > >, COMDAT
; _this$ = ecx

; 45   : 		{	// construct with pointer _Parg

  00000	55		 push	 ebp
  00001	8b ec		 mov	 ebp, esp
  00003	8b c1		 mov	 eax, ecx
  00005	8b 4d 08	 mov	 ecx, DWORD PTR __Parg$[ebp]
  00008	89 08		 mov	 DWORD PTR [eax], ecx

; 46   : 		this->_Adopt(_Pvector);
; 47   : 		}

  0000a	5d		 pop	 ebp
  0000b	c2 08 00	 ret	 8
??0?$_Vector_const_iterator@V?$_Vector_val@UGroupDummyInfo@@V?$allocator@UGroupDummyInfo@@@std@@@std@@@std@@QAE@PAUGroupDummyInfo@@PBU_Container_base0@1@@Z ENDP ; std::_Vector_const_iterator<std::_Vector_val<GroupDummyInfo,std::allocator<GroupDummyInfo> > >::_Vector_const_iterator<std::_Vector_val<GroupDummyInfo,std::allocator<GroupDummyInfo> > >
_TEXT	ENDS
PUBLIC	?max_size@?$allocator@UGroupDummyInfo@@@std@@QBEIXZ ; std::allocator<GroupDummyInfo>::max_size
; Function compile flags: /Ogsp
; File c:\program files (x86)\microsoft visual studio 10.0\vc\include\xmemory
;	COMDAT ?max_size@?$allocator@UGroupDummyInfo@@@std@@QBEIXZ
_TEXT	SEGMENT
?max_size@?$allocator@UGroupDummyInfo@@@std@@QBEIXZ PROC ; std::allocator<GroupDummyInfo>::max_size, COMDAT
; _this$ = ecx

; 218  : 		_SIZT _Count = (_SIZT)(-1) / sizeof (_Ty);
; 219  : 		return (0 < _Count ? _Count : 1);

  00000	b8 cc cc cc 0c	 mov	 eax, 214748364		; 0cccccccH

; 220  : 		}

  00005	c3		 ret	 0
?max_size@?$allocator@UGroupDummyInfo@@@std@@QBEIXZ ENDP ; std::allocator<GroupDummyInfo>::max_size
_TEXT	ENDS
PUBLIC	??0D3DXQUATERNION@@QAE@XZ			; D3DXQUATERNION::D3DXQUATERNION
; Function compile flags: /Ogsp
; File c:\program files (x86)\microsoft directx sdk (june 2010)\include\d3dx9math.h
;	COMDAT ??0D3DXQUATERNION@@QAE@XZ
_TEXT	SEGMENT
??0D3DXQUATERNION@@QAE@XZ PROC				; D3DXQUATERNION::D3DXQUATERNION, COMDAT
; _this$ = ecx

; 429  :     D3DXQUATERNION() {}

  00000	8b c1		 mov	 eax, ecx
  00002	c3		 ret	 0
??0D3DXQUATERNION@@QAE@XZ ENDP				; D3DXQUATERNION::D3DXQUATERNION
_TEXT	ENDS
PUBLIC	??0D3DXVECTOR3@@QAE@MMM@Z			; D3DXVECTOR3::D3DXVECTOR3
; Function compile flags: /Ogsp
; File c:\program files (x86)\microsoft directx sdk (june 2010)\include\d3dx9math.inl
;	COMDAT ??0D3DXVECTOR3@@QAE@MMM@Z
_TEXT	SEGMENT
_fx$ = 8						; size = 4
_fy$ = 12						; size = 4
_fz$ = 16						; size = 4
??0D3DXVECTOR3@@QAE@MMM@Z PROC				; D3DXVECTOR3::D3DXVECTOR3, COMDAT
; _this$ = ecx

; 303  : {

  00000	55		 push	 ebp
  00001	8b ec		 mov	 ebp, esp

; 304  :     x = fx;

  00003	f3 0f 10 45 08	 movss	 xmm0, DWORD PTR _fx$[ebp]
  00008	8b c1		 mov	 eax, ecx
  0000a	f3 0f 11 00	 movss	 DWORD PTR [eax], xmm0

; 305  :     y = fy;

  0000e	f3 0f 10 45 0c	 movss	 xmm0, DWORD PTR _fy$[ebp]
  00013	f3 0f 11 40 04	 movss	 DWORD PTR [eax+4], xmm0

; 306  :     z = fz;

  00018	f3 0f 10 45 10	 movss	 xmm0, DWORD PTR _fz$[ebp]
  0001d	f3 0f 11 40 08	 movss	 DWORD PTR [eax+8], xmm0

; 307  : }

  00022	5d		 pop	 ebp
  00023	c2 0c 00	 ret	 12			; 0000000cH
??0D3DXVECTOR3@@QAE@MMM@Z ENDP				; D3DXVECTOR3::D3DXVECTOR3
_TEXT	ENDS
PUBLIC	??HD3DXVECTOR3@@QBE?AU0@ABU0@@Z			; D3DXVECTOR3::operator+
; Function compile flags: /Ogsp
;	COMDAT ??HD3DXVECTOR3@@QBE?AU0@ABU0@@Z
_TEXT	SEGMENT
___$ReturnUdt$ = 8					; size = 4
_v$ = 12						; size = 4
??HD3DXVECTOR3@@QBE?AU0@ABU0@@Z PROC			; D3DXVECTOR3::operator+, COMDAT
; _this$ = ecx

; 380  : {

  00000	55		 push	 ebp
  00001	8b ec		 mov	 ebp, esp

; 381  :     return D3DXVECTOR3(x + v.x, y + v.y, z + v.z);

  00003	8b 55 0c	 mov	 edx, DWORD PTR _v$[ebp]
  00006	f3 0f 10 02	 movss	 xmm0, DWORD PTR [edx]
  0000a	f3 0f 10 09	 movss	 xmm1, DWORD PTR [ecx]
  0000e	8b 45 08	 mov	 eax, DWORD PTR ___$ReturnUdt$[ebp]
  00011	0f 5a c0	 cvtps2pd xmm0, xmm0
  00014	0f 5a c9	 cvtps2pd xmm1, xmm1
  00017	f2 0f 58 c1	 addsd	 xmm0, xmm1
  0001b	f3 0f 10 49 04	 movss	 xmm1, DWORD PTR [ecx+4]
  00020	66 0f 5a c0	 cvtpd2ps xmm0, xmm0
  00024	f3 0f 11 00	 movss	 DWORD PTR [eax], xmm0
  00028	f3 0f 10 42 04	 movss	 xmm0, DWORD PTR [edx+4]
  0002d	0f 5a c0	 cvtps2pd xmm0, xmm0
  00030	0f 5a c9	 cvtps2pd xmm1, xmm1
  00033	f2 0f 58 c1	 addsd	 xmm0, xmm1
  00037	f3 0f 10 49 08	 movss	 xmm1, DWORD PTR [ecx+8]
  0003c	66 0f 5a c0	 cvtpd2ps xmm0, xmm0
  00040	f3 0f 11 40 04	 movss	 DWORD PTR [eax+4], xmm0
  00045	f3 0f 10 42 08	 movss	 xmm0, DWORD PTR [edx+8]
  0004a	0f 5a c0	 cvtps2pd xmm0, xmm0
  0004d	0f 5a c9	 cvtps2pd xmm1, xmm1
  00050	f2 0f 58 c1	 addsd	 xmm0, xmm1
  00054	66 0f 5a c0	 cvtpd2ps xmm0, xmm0
  00058	f3 0f 11 40 08	 movss	 DWORD PTR [eax+8], xmm0

; 382  : }

  0005d	5d		 pop	 ebp
  0005e	c2 08 00	 ret	 8
??HD3DXVECTOR3@@QBE?AU0@ABU0@@Z ENDP			; D3DXVECTOR3::operator+
_TEXT	ENDS
PUBLIC	??DD3DXVECTOR3@@QBE?AU0@M@Z			; D3DXVECTOR3::operator*
; Function compile flags: /Ogsp
;	COMDAT ??DD3DXVECTOR3@@QBE?AU0@M@Z
_TEXT	SEGMENT
___$ReturnUdt$ = 8					; size = 4
_f$ = 12						; size = 4
??DD3DXVECTOR3@@QBE?AU0@M@Z PROC			; D3DXVECTOR3::operator*, COMDAT
; _this$ = ecx

; 392  : {

  00000	55		 push	 ebp
  00001	8b ec		 mov	 ebp, esp

; 393  :     return D3DXVECTOR3(x * f, y * f, z * f);

  00003	f3 0f 10 4d 0c	 movss	 xmm1, DWORD PTR _f$[ebp]
  00008	f3 0f 10 01	 movss	 xmm0, DWORD PTR [ecx]
  0000c	8b 45 08	 mov	 eax, DWORD PTR ___$ReturnUdt$[ebp]
  0000f	0f 5a c0	 cvtps2pd xmm0, xmm0
  00012	0f 5a c9	 cvtps2pd xmm1, xmm1
  00015	f2 0f 59 c1	 mulsd	 xmm0, xmm1
  00019	f3 0f 10 4d 0c	 movss	 xmm1, DWORD PTR _f$[ebp]
  0001e	66 0f 5a c0	 cvtpd2ps xmm0, xmm0
  00022	f3 0f 11 00	 movss	 DWORD PTR [eax], xmm0
  00026	f3 0f 10 41 04	 movss	 xmm0, DWORD PTR [ecx+4]
  0002b	0f 5a c0	 cvtps2pd xmm0, xmm0
  0002e	0f 5a c9	 cvtps2pd xmm1, xmm1
  00031	f2 0f 59 c1	 mulsd	 xmm0, xmm1
  00035	f3 0f 10 4d 0c	 movss	 xmm1, DWORD PTR _f$[ebp]
  0003a	66 0f 5a c0	 cvtpd2ps xmm0, xmm0
  0003e	f3 0f 11 40 04	 movss	 DWORD PTR [eax+4], xmm0
  00043	f3 0f 10 41 08	 movss	 xmm0, DWORD PTR [ecx+8]
  00048	0f 5a c0	 cvtps2pd xmm0, xmm0
  0004b	0f 5a c9	 cvtps2pd xmm1, xmm1
  0004e	f2 0f 59 c1	 mulsd	 xmm0, xmm1
  00052	66 0f 5a c0	 cvtpd2ps xmm0, xmm0
  00056	f3 0f 11 40 08	 movss	 DWORD PTR [eax+8], xmm0

; 394  : }

  0005b	5d		 pop	 ebp
  0005c	c2 08 00	 ret	 8
??DD3DXVECTOR3@@QBE?AU0@M@Z ENDP			; D3DXVECTOR3::operator*
_TEXT	ENDS
PUBLIC	??$addressof@VioHashString@@@std@@YAPAVioHashString@@AAV1@@Z ; std::addressof<ioHashString>
; Function compile flags: /Ogsp
; File c:\program files (x86)\microsoft visual studio 10.0\vc\include\xmemory
;	COMDAT ??$addressof@VioHashString@@@std@@YAPAVioHashString@@AAV1@@Z
_TEXT	SEGMENT
__Val$ = 8						; size = 4
??$addressof@VioHashString@@@std@@YAPAVioHashString@@AAV1@@Z PROC ; std::addressof<ioHashString>, COMDAT

; 110  : 	{	// return address of _Val

  00000	55		 push	 ebp
  00001	8b ec		 mov	 ebp, esp

; 111  : 	return ((_Ty *) &(char&)_Val);

  00003	8b 45 08	 mov	 eax, DWORD PTR __Val$[ebp]

; 112  : 	}

  00006	5d		 pop	 ebp
  00007	c3		 ret	 0
??$addressof@VioHashString@@@std@@YAPAVioHashString@@AAV1@@Z ENDP ; std::addressof<ioHashString>
_TEXT	ENDS
PUBLIC	??$forward@VioHashString@@@std@@YA$$QAVioHashString@@AAV1@@Z ; std::forward<ioHashString>
; Function compile flags: /Ogsp
; File c:\program files (x86)\microsoft visual studio 10.0\vc\include\utility
;	COMDAT ??$forward@VioHashString@@@std@@YA$$QAVioHashString@@AAV1@@Z
_TEXT	SEGMENT
__Arg$ = 8						; size = 4
??$forward@VioHashString@@@std@@YA$$QAVioHashString@@AAV1@@Z PROC ; std::forward<ioHashString>, COMDAT

; 78   : 	{	// forward _Arg, given explicitly specified type parameter

  00000	55		 push	 ebp
  00001	8b ec		 mov	 ebp, esp

; 79   : 	return ((_Ty&&)_Arg);

  00003	8b 45 08	 mov	 eax, DWORD PTR __Arg$[ebp]

; 80   : 	}

  00006	5d		 pop	 ebp
  00007	c3		 ret	 0
??$forward@VioHashString@@@std@@YA$$QAVioHashString@@AAV1@@Z ENDP ; std::forward<ioHashString>
_TEXT	ENDS
PUBLIC	??$addressof@$$CBUGroupDummyInfo@@@std@@YAPBUGroupDummyInfo@@ABU1@@Z ; std::addressof<GroupDummyInfo const >
; Function compile flags: /Ogsp
; File c:\program files (x86)\microsoft visual studio 10.0\vc\include\xmemory
;	COMDAT ??$addressof@$$CBUGroupDummyInfo@@@std@@YAPBUGroupDummyInfo@@ABU1@@Z
_TEXT	SEGMENT
__Val$ = 8						; size = 4
??$addressof@$$CBUGroupDummyInfo@@@std@@YAPBUGroupDummyInfo@@ABU1@@Z PROC ; std::addressof<GroupDummyInfo const >, COMDAT

; 110  : 	{	// return address of _Val

  00000	55		 push	 ebp
  00001	8b ec		 mov	 ebp, esp

; 111  : 	return ((_Ty *) &(char&)_Val);

  00003	8b 45 08	 mov	 eax, DWORD PTR __Val$[ebp]

; 112  : 	}

  00006	5d		 pop	 ebp
  00007	c3		 ret	 0
??$addressof@$$CBUGroupDummyInfo@@@std@@YAPBUGroupDummyInfo@@ABU1@@Z ENDP ; std::addressof<GroupDummyInfo const >
_TEXT	ENDS
PUBLIC	__TI2?AVbad_alloc@std@@
PUBLIC	??$_Allocate@UGroupDummyInfo@@@std@@YAPAUGroupDummyInfo@@IPAU1@@Z ; std::_Allocate<GroupDummyInfo>
PUBLIC	__CTA2?AVbad_alloc@std@@
PUBLIC	__CT??_R0?AVbad_alloc@std@@@8??0bad_alloc@std@@QAE@ABV01@@Z12
PUBLIC	??0bad_alloc@std@@QAE@ABV01@@Z			; std::bad_alloc::bad_alloc
PUBLIC	__CT??_R0?AVexception@std@@@8??0exception@std@@QAE@ABV01@@Z12
EXTRN	??2@YAPAXI@Z:PROC				; operator new
EXTRN	__CxxThrowException@8:PROC
EXTRN	??0exception@std@@QAE@ABV01@@Z:PROC		; std::exception::exception
;	COMDAT __CT??_R0?AVexception@std@@@8??0exception@std@@QAE@ABV01@@Z12
; File c:\program files (x86)\microsoft visual studio 10.0\vc\include\exception
xdata$x	SEGMENT
__CT??_R0?AVexception@std@@@8??0exception@std@@QAE@ABV01@@Z12 DD 00H
	DD	FLAT:??_R0?AVexception@std@@@8
	DD	00H
	DD	0ffffffffH
	ORG $+4
	DD	0cH
	DD	FLAT:??0exception@std@@QAE@ABV01@@Z
xdata$x	ENDS
;	COMDAT __CT??_R0?AVbad_alloc@std@@@8??0bad_alloc@std@@QAE@ABV01@@Z12
xdata$x	SEGMENT
__CT??_R0?AVbad_alloc@std@@@8??0bad_alloc@std@@QAE@ABV01@@Z12 DD 00H
	DD	FLAT:??_R0?AVbad_alloc@std@@@8
	DD	00H
	DD	0ffffffffH
	ORG $+4
	DD	0cH
	DD	FLAT:??0bad_alloc@std@@QAE@ABV01@@Z
xdata$x	ENDS
;	COMDAT __CTA2?AVbad_alloc@std@@
xdata$x	SEGMENT
__CTA2?AVbad_alloc@std@@ DD 02H
	DD	FLAT:__CT??_R0?AVbad_alloc@std@@@8??0bad_alloc@std@@QAE@ABV01@@Z12
	DD	FLAT:__CT??_R0?AVexception@std@@@8??0exception@std@@QAE@ABV01@@Z12
xdata$x	ENDS
;	COMDAT __TI2?AVbad_alloc@std@@
xdata$x	SEGMENT
__TI2?AVbad_alloc@std@@ DD 00H
	DD	FLAT:??1bad_alloc@std@@UAE@XZ
	DD	00H
	DD	FLAT:__CTA2?AVbad_alloc@std@@
; Function compile flags: /Ogsp
; File c:\program files (x86)\microsoft visual studio 10.0\vc\include\xmemory
xdata$x	ENDS
;	COMDAT ??$_Allocate@UGroupDummyInfo@@@std@@YAPAUGroupDummyInfo@@IPAU1@@Z
_TEXT	SEGMENT
$T554315 = -12						; size = 12
$T554320 = 8						; size = 4
__Count$ = 8						; size = 4
___formal$ = 12						; size = 4
??$_Allocate@UGroupDummyInfo@@@std@@YAPAUGroupDummyInfo@@IPAU1@@Z PROC ; std::_Allocate<GroupDummyInfo>, COMDAT

; 30   : 	{	// allocate storage for _Count elements of type _Ty

  00000	55		 push	 ebp
  00001	8b ec		 mov	 ebp, esp

; 31   : 	void *_Ptr = 0;
; 32   : 
; 33   : 	if (_Count <= 0)

  00003	8b 4d 08	 mov	 ecx, DWORD PTR __Count$[ebp]
  00006	83 ec 0c	 sub	 esp, 12			; 0000000cH
  00009	33 c0		 xor	 eax, eax
  0000b	85 c9		 test	 ecx, ecx

; 34   : 		_Count = 0;
; 35   : 	else if (((_SIZT)(-1) / sizeof (_Ty) < _Count)

  0000d	74 3c		 je	 SHORT $LN5@Allocate

; 36   : 		|| (_Ptr = ::operator new(_Count * sizeof (_Ty))) == 0)

  0000f	81 f9 cc cc cc
	0c		 cmp	 ecx, 214748364		; 0cccccccH
  00015	77 0e		 ja	 SHORT $LN1@Allocate
  00017	6b c9 14	 imul	 ecx, 20			; 00000014H
  0001a	51		 push	 ecx
  0001b	e8 00 00 00 00	 call	 ??2@YAPAXI@Z		; operator new
  00020	59		 pop	 ecx
  00021	85 c0		 test	 eax, eax

; 38   : 
; 39   : 	return ((_Ty _FARQ *)_Ptr);

  00023	75 26		 jne	 SHORT $LN5@Allocate
$LN1@Allocate:

; 37   : 		_THROW_NCEE(bad_alloc, 0);

  00025	83 65 08 00	 and	 DWORD PTR $T554320[ebp], 0
  00029	8d 45 08	 lea	 eax, DWORD PTR $T554320[ebp]
  0002c	50		 push	 eax
  0002d	8d 4d f4	 lea	 ecx, DWORD PTR $T554315[ebp]
  00030	ff 15 00 00 00
	00		 call	 DWORD PTR __imp_??0exception@std@@QAE@ABQBD@Z
  00036	68 00 00 00 00	 push	 OFFSET __TI2?AVbad_alloc@std@@
  0003b	8d 45 f4	 lea	 eax, DWORD PTR $T554315[ebp]
  0003e	50		 push	 eax
  0003f	c7 45 f4 00 00
	00 00		 mov	 DWORD PTR $T554315[ebp], OFFSET ??_7bad_alloc@std@@6B@
  00046	e8 00 00 00 00	 call	 __CxxThrowException@8
$LN10@Allocate:
$LN5@Allocate:

; 40   : 	}

  0004b	c9		 leave
  0004c	c3		 ret	 0
$LN9@Allocate:
??$_Allocate@UGroupDummyInfo@@@std@@YAPAUGroupDummyInfo@@IPAU1@@Z ENDP ; std::_Allocate<GroupDummyInfo>
_TEXT	ENDS
PUBLIC	?construct@?$allocator@VioHashString@@@std@@QAEXPAVioHashString@@$$QAV3@@Z ; std::allocator<ioHashString>::construct
EXTRN	__imp_??0ioHashString@@QAE@ABV0@@Z:PROC
EXTRN	__EH_epilog3:PROC
EXTRN	__EH_prolog3:PROC
;	COMDAT xdata$x
; File c:\program files (x86)\microsoft visual studio 10.0\vc\include\utility
xdata$x	SEGMENT
__unwindtable$?construct@?$allocator@VioHashString@@@std@@QAEXPAVioHashString@@$$QAV3@@Z DD 0ffffffffH
	DD	FLAT:__unwindfunclet$?construct@?$allocator@VioHashString@@@std@@QAEXPAVioHashString@@$$QAV3@@Z$0
__ehfuncinfo$?construct@?$allocator@VioHashString@@@std@@QAEXPAVioHashString@@$$QAV3@@Z DD 019930522H
	DD	01H
	DD	FLAT:__unwindtable$?construct@?$allocator@VioHashString@@@std@@QAEXPAVioHashString@@$$QAV3@@Z
	DD	2 DUP(00H)
	DD	2 DUP(00H)
	DD	00H
	DD	01H
; Function compile flags: /Ogsp
; File c:\program files (x86)\microsoft visual studio 10.0\vc\include\xmemory
xdata$x	ENDS
;	COMDAT ?construct@?$allocator@VioHashString@@@std@@QAEXPAVioHashString@@$$QAV3@@Z
_TEXT	SEGMENT
$T554326 = -16						; size = 4
__$EHRec$ = -12						; size = 12
__Ptr$ = 8						; size = 4
__Val$ = 12						; size = 4
?construct@?$allocator@VioHashString@@@std@@QAEXPAVioHashString@@$$QAV3@@Z PROC ; std::allocator<ioHashString>::construct, COMDAT
; _this$ = ecx

; 201  : 		{	// construct object at _Ptr with value _Val

  00000	6a 04		 push	 4
  00002	b8 00 00 00 00	 mov	 eax, __ehhandler$?construct@?$allocator@VioHashString@@@std@@QAEXPAVioHashString@@$$QAV3@@Z
  00007	e8 00 00 00 00	 call	 __EH_prolog3

; 202  : 		::new ((void _FARQ *)_Ptr) _Ty(_STD forward<_Ty>(_Val));

  0000c	8b 4d 08	 mov	 ecx, DWORD PTR __Ptr$[ebp]
  0000f	89 4d f0	 mov	 DWORD PTR $T554326[ebp], ecx
  00012	83 65 fc 00	 and	 DWORD PTR __$EHRec$[ebp+8], 0
  00016	85 c9		 test	 ecx, ecx
  00018	74 09		 je	 SHORT $LN3@construct
  0001a	ff 75 0c	 push	 DWORD PTR __Val$[ebp]
  0001d	ff 15 00 00 00
	00		 call	 DWORD PTR __imp_??0ioHashString@@QAE@ABV0@@Z
$LN3@construct:

; 203  : 		}

  00023	e8 00 00 00 00	 call	 __EH_epilog3
  00028	c2 08 00	 ret	 8
_TEXT	ENDS
;	COMDAT text$x
text$x	SEGMENT
__unwindfunclet$?construct@?$allocator@VioHashString@@@std@@QAEXPAVioHashString@@$$QAV3@@Z$0:
  00000	ff 75 08	 push	 DWORD PTR __Ptr$[ebp]
  00003	ff 75 f0	 push	 DWORD PTR $T554326[ebp]
  00006	e8 00 00 00 00	 call	 ??3@YAXPAX0@Z		; operator delete
  0000b	59		 pop	 ecx
  0000c	59		 pop	 ecx
  0000d	c3		 ret	 0
__ehhandler$?construct@?$allocator@VioHashString@@@std@@QAEXPAVioHashString@@$$QAV3@@Z:
  0000e	8b 54 24 08	 mov	 edx, DWORD PTR [esp+8]
  00012	8d 42 0c	 lea	 eax, DWORD PTR [edx+12]
  00015	8b 4a ec	 mov	 ecx, DWORD PTR [edx-20]
  00018	33 c8		 xor	 ecx, eax
  0001a	e8 00 00 00 00	 call	 @__security_check_cookie@4
  0001f	b8 00 00 00 00	 mov	 eax, OFFSET __ehfuncinfo$?construct@?$allocator@VioHashString@@@std@@QAEXPAVioHashString@@$$QAV3@@Z
  00024	e9 00 00 00 00	 jmp	 ___CxxFrameHandler3
text$x	ENDS
?construct@?$allocator@VioHashString@@@std@@QAEXPAVioHashString@@$$QAV3@@Z ENDP ; std::allocator<ioHashString>::construct
PUBLIC	??$forward@AAUGroupDummyInfo@@@std@@YAAAUGroupDummyInfo@@AAU1@@Z ; std::forward<GroupDummyInfo &>
; Function compile flags: /Ogsp
; File c:\program files (x86)\microsoft visual studio 10.0\vc\include\utility
;	COMDAT ??$forward@AAUGroupDummyInfo@@@std@@YAAAUGroupDummyInfo@@AAU1@@Z
_TEXT	SEGMENT
__Arg$ = 8						; size = 4
??$forward@AAUGroupDummyInfo@@@std@@YAAAUGroupDummyInfo@@AAU1@@Z PROC ; std::forward<GroupDummyInfo &>, COMDAT

; 78   : 	{	// forward _Arg, given explicitly specified type parameter

  00000	55		 push	 ebp
  00001	8b ec		 mov	 ebp, esp

; 79   : 	return ((_Ty&&)_Arg);

  00003	8b 45 08	 mov	 eax, DWORD PTR __Arg$[ebp]

; 80   : 	}

  00006	5d		 pop	 ebp
  00007	c3		 ret	 0
??$forward@AAUGroupDummyInfo@@@std@@YAAAUGroupDummyInfo@@AAU1@@Z ENDP ; std::forward<GroupDummyInfo &>
_TEXT	ENDS
PUBLIC	??$forward@ABUGroupDummyInfo@@@std@@YAABUGroupDummyInfo@@ABU1@@Z ; std::forward<GroupDummyInfo const &>
; Function compile flags: /Ogsp
;	COMDAT ??$forward@ABUGroupDummyInfo@@@std@@YAABUGroupDummyInfo@@ABU1@@Z
_TEXT	SEGMENT
__Arg$ = 8						; size = 4
??$forward@ABUGroupDummyInfo@@@std@@YAABUGroupDummyInfo@@ABU1@@Z PROC ; std::forward<GroupDummyInfo const &>, COMDAT

; 78   : 	{	// forward _Arg, given explicitly specified type parameter

  00000	55		 push	 ebp
  00001	8b ec		 mov	 ebp, esp

; 79   : 	return ((_Ty&&)_Arg);

  00003	8b 45 08	 mov	 eax, DWORD PTR __Arg$[ebp]

; 80   : 	}

  00006	5d		 pop	 ebp
  00007	c3		 ret	 0
??$forward@ABUGroupDummyInfo@@@std@@YAABUGroupDummyInfo@@ABU1@@Z ENDP ; std::forward<GroupDummyInfo const &>
_TEXT	ENDS
PUBLIC	??$_Ptr_cat@UGroupDummyInfo@@U1@@std@@YA?AU_Nonscalar_ptr_iterator_tag@0@PAUGroupDummyInfo@@0@Z ; std::_Ptr_cat<GroupDummyInfo,GroupDummyInfo>
; Function compile flags: /Ogsp
; File c:\program files (x86)\microsoft visual studio 10.0\vc\include\xutility
;	COMDAT ??$_Ptr_cat@UGroupDummyInfo@@U1@@std@@YA?AU_Nonscalar_ptr_iterator_tag@0@PAUGroupDummyInfo@@0@Z
_TEXT	SEGMENT
__Cat$ = -1						; size = 1
___formal$ = 8						; size = 4
___formal$ = 12						; size = 4
??$_Ptr_cat@UGroupDummyInfo@@U1@@std@@YA?AU_Nonscalar_ptr_iterator_tag@0@PAUGroupDummyInfo@@0@Z PROC ; std::_Ptr_cat<GroupDummyInfo,GroupDummyInfo>, COMDAT

; 516  : 	{	// return pointer category from pointers

  00000	55		 push	 ebp
  00001	8b ec		 mov	 ebp, esp
  00003	51		 push	 ecx

; 517  : 	typename _Ptr_cat_helper<_Elem1, _Elem2>::_Type _Cat;
; 518  : 	return (_Cat);

  00004	8a 45 ff	 mov	 al, BYTE PTR __Cat$[ebp]

; 519  : 	}

  00007	c9		 leave
  00008	c3		 ret	 0
??$_Ptr_cat@UGroupDummyInfo@@U1@@std@@YA?AU_Nonscalar_ptr_iterator_tag@0@PAUGroupDummyInfo@@0@Z ENDP ; std::_Ptr_cat<GroupDummyInfo,GroupDummyInfo>
_TEXT	ENDS
PUBLIC	??0GroupDummyInfo@@QAE@ABU0@@Z			; GroupDummyInfo::GroupDummyInfo
; Function compile flags: /Ogsp
;	COMDAT ??0GroupDummyInfo@@QAE@ABU0@@Z
_TEXT	SEGMENT
___that$ = 8						; size = 4
??0GroupDummyInfo@@QAE@ABU0@@Z PROC			; GroupDummyInfo::GroupDummyInfo, COMDAT
; _this$ = ecx
  00000	55		 push	 ebp
  00001	8b ec		 mov	 ebp, esp
  00003	56		 push	 esi
  00004	57		 push	 edi
  00005	8b 7d 08	 mov	 edi, DWORD PTR ___that$[ebp]
  00008	57		 push	 edi
  00009	8b f1		 mov	 esi, ecx
  0000b	ff 15 00 00 00
	00		 call	 DWORD PTR __imp_??0ioHashString@@QAE@ABV0@@Z
  00011	d9 47 10	 fld	 DWORD PTR [edi+16]
  00014	5f		 pop	 edi
  00015	d9 5e 10	 fstp	 DWORD PTR [esi+16]
  00018	8b c6		 mov	 eax, esi
  0001a	5e		 pop	 esi
  0001b	5d		 pop	 ebp
  0001c	c2 04 00	 ret	 4
??0GroupDummyInfo@@QAE@ABU0@@Z ENDP			; GroupDummyInfo::GroupDummyInfo
_TEXT	ENDS
PUBLIC	??$_Ptr_cat@V?$_Vector_const_iterator@V?$_Vector_val@UGroupDummyInfo@@V?$allocator@UGroupDummyInfo@@@std@@@std@@@std@@PAUGroupDummyInfo@@@std@@YA?AU_Nonscalar_ptr_iterator_tag@0@AAV?$_Vector_const_iterator@V?$_Vector_val@UGroupDummyInfo@@V?$allocator@UGroupDummyInfo@@@std@@@std@@@0@AAPAUGroupDummyInfo@@@Z ; std::_Ptr_cat<std::_Vector_const_iterator<std::_Vector_val<GroupDummyInfo,std::allocator<GroupDummyInfo> > >,GroupDummyInfo *>
; Function compile flags: /Ogsp
;	COMDAT ??$_Ptr_cat@V?$_Vector_const_iterator@V?$_Vector_val@UGroupDummyInfo@@V?$allocator@UGroupDummyInfo@@@std@@@std@@@std@@PAUGroupDummyInfo@@@std@@YA?AU_Nonscalar_ptr_iterator_tag@0@AAV?$_Vector_const_iterator@V?$_Vector_val@UGroupDummyInfo@@V?$allocator@UGroupDummyInfo@@@std@@@std@@@0@AAPAUGroupDummyInfo@@@Z
_TEXT	SEGMENT
__Cat$ = -1						; size = 1
___formal$ = 8						; size = 4
___formal$ = 12						; size = 4
??$_Ptr_cat@V?$_Vector_const_iterator@V?$_Vector_val@UGroupDummyInfo@@V?$allocator@UGroupDummyInfo@@@std@@@std@@@std@@PAUGroupDummyInfo@@@std@@YA?AU_Nonscalar_ptr_iterator_tag@0@AAV?$_Vector_const_iterator@V?$_Vector_val@UGroupDummyInfo@@V?$allocator@UGroupDummyInfo@@@std@@@std@@@0@AAPAUGroupDummyInfo@@@Z PROC ; std::_Ptr_cat<std::_Vector_const_iterator<std::_Vector_val<GroupDummyInfo,std::allocator<GroupDummyInfo> > >,GroupDummyInfo *>, COMDAT

; 485  : 	{	// return pointer category from arbitrary arguments

  00000	55		 push	 ebp
  00001	8b ec		 mov	 ebp, esp
  00003	51		 push	 ecx

; 486  : 	_Nonscalar_ptr_iterator_tag _Cat;
; 487  : 	return (_Cat);

  00004	8a 45 ff	 mov	 al, BYTE PTR __Cat$[ebp]

; 488  : 	}

  00007	c9		 leave
  00008	c3		 ret	 0
??$_Ptr_cat@V?$_Vector_const_iterator@V?$_Vector_val@UGroupDummyInfo@@V?$allocator@UGroupDummyInfo@@@std@@@std@@@std@@PAUGroupDummyInfo@@@std@@YA?AU_Nonscalar_ptr_iterator_tag@0@AAV?$_Vector_const_iterator@V?$_Vector_val@UGroupDummyInfo@@V?$allocator@UGroupDummyInfo@@@std@@@std@@@0@AAPAUGroupDummyInfo@@@Z ENDP ; std::_Ptr_cat<std::_Vector_const_iterator<std::_Vector_val<GroupDummyInfo,std::allocator<GroupDummyInfo> > >,GroupDummyInfo *>
_TEXT	ENDS
PUBLIC	??$_Val_type@PAVioHashString@@@std@@YAPAVioHashString@@PAV1@@Z ; std::_Val_type<ioHashString *>
; Function compile flags: /Ogsp
;	COMDAT ??$_Val_type@PAVioHashString@@@std@@YAPAVioHashString@@PAV1@@Z
_TEXT	SEGMENT
___formal$ = 8						; size = 4
??$_Val_type@PAVioHashString@@@std@@YAPAVioHashString@@PAV1@@Z PROC ; std::_Val_type<ioHashString *>, COMDAT

; 790  : 	return (0);

  00000	33 c0		 xor	 eax, eax

; 791  : 	}

  00002	c3		 ret	 0
??$_Val_type@PAVioHashString@@@std@@YAPAVioHashString@@PAV1@@Z ENDP ; std::_Val_type<ioHashString *>
_TEXT	ENDS
PUBLIC	??$_Val_type@PAUGroupDummyInfo@@@std@@YAPAUGroupDummyInfo@@PAU1@@Z ; std::_Val_type<GroupDummyInfo *>
; Function compile flags: /Ogsp
;	COMDAT ??$_Val_type@PAUGroupDummyInfo@@@std@@YAPAUGroupDummyInfo@@PAU1@@Z
_TEXT	SEGMENT
___formal$ = 8						; size = 4
??$_Val_type@PAUGroupDummyInfo@@@std@@YAPAUGroupDummyInfo@@PAU1@@Z PROC ; std::_Val_type<GroupDummyInfo *>, COMDAT

; 790  : 	return (0);

  00000	33 c0		 xor	 eax, eax

; 791  : 	}

  00002	c3		 ret	 0
??$_Val_type@PAUGroupDummyInfo@@@std@@YAPAUGroupDummyInfo@@PAU1@@Z ENDP ; std::_Val_type<GroupDummyInfo *>
_TEXT	ENDS
PUBLIC	??D?$_Vector_const_iterator@V?$_Vector_val@UGroupDummyInfo@@V?$allocator@UGroupDummyInfo@@@std@@@std@@@std@@QBEABUGroupDummyInfo@@XZ ; std::_Vector_const_iterator<std::_Vector_val<GroupDummyInfo,std::allocator<GroupDummyInfo> > >::operator*
; Function compile flags: /Ogsp
; File c:\program files (x86)\microsoft visual studio 10.0\vc\include\vector
;	COMDAT ??D?$_Vector_const_iterator@V?$_Vector_val@UGroupDummyInfo@@V?$allocator@UGroupDummyInfo@@@std@@@std@@@std@@QBEABUGroupDummyInfo@@XZ
_TEXT	SEGMENT
??D?$_Vector_const_iterator@V?$_Vector_val@UGroupDummyInfo@@V?$allocator@UGroupDummyInfo@@@std@@@std@@@std@@QBEABUGroupDummyInfo@@XZ PROC ; std::_Vector_const_iterator<std::_Vector_val<GroupDummyInfo,std::allocator<GroupDummyInfo> > >::operator*, COMDAT
; _this$ = ecx

; 64   :  #if _ITERATOR_DEBUG_LEVEL == 2
; 65   : 		if (this->_Getcont() == 0
; 66   : 			|| this->_Ptr == 0
; 67   : 			|| this->_Ptr < ((_Myvec *)this->_Getcont())->_Myfirst
; 68   : 			|| ((_Myvec *)this->_Getcont())->_Mylast <= this->_Ptr)
; 69   : 			{	// report error
; 70   : 			_DEBUG_ERROR("vector iterator not dereferencable");
; 71   : 			_SCL_SECURE_OUT_OF_RANGE;
; 72   : 			}
; 73   : 
; 74   :  #elif _ITERATOR_DEBUG_LEVEL == 1
; 75   : 		_SCL_SECURE_VALIDATE(this->_Getcont() != 0);
; 76   : 		_SCL_SECURE_VALIDATE_RANGE(
; 77   : 			this->_Ptr != 0
; 78   : 			&& ((_Myvec *)this->_Getcont())->_Myfirst <= this->_Ptr
; 79   : 			&& this->_Ptr < ((_Myvec *)this->_Getcont())->_Mylast);
; 80   :  #endif /* _ITERATOR_DEBUG_LEVEL */
; 81   : 
; 82   : 		__analysis_assume(this->_Ptr != 0);
; 83   : 
; 84   : 		return (*this->_Ptr);

  00000	8b 01		 mov	 eax, DWORD PTR [ecx]

; 85   : 		}

  00002	c3		 ret	 0
??D?$_Vector_const_iterator@V?$_Vector_val@UGroupDummyInfo@@V?$allocator@UGroupDummyInfo@@@std@@@std@@@std@@QBEABUGroupDummyInfo@@XZ ENDP ; std::_Vector_const_iterator<std::_Vector_val<GroupDummyInfo,std::allocator<GroupDummyInfo> > >::operator*
_TEXT	ENDS
PUBLIC	??E?$_Vector_const_iterator@V?$_Vector_val@UGroupDummyInfo@@V?$allocator@UGroupDummyInfo@@@std@@@std@@@std@@QAEAAV01@XZ ; std::_Vector_const_iterator<std::_Vector_val<GroupDummyInfo,std::allocator<GroupDummyInfo> > >::operator++
; Function compile flags: /Ogsp
;	COMDAT ??E?$_Vector_const_iterator@V?$_Vector_val@UGroupDummyInfo@@V?$allocator@UGroupDummyInfo@@@std@@@std@@@std@@QAEAAV01@XZ
_TEXT	SEGMENT
??E?$_Vector_const_iterator@V?$_Vector_val@UGroupDummyInfo@@V?$allocator@UGroupDummyInfo@@@std@@@std@@@std@@QAEAAV01@XZ PROC ; std::_Vector_const_iterator<std::_Vector_val<GroupDummyInfo,std::allocator<GroupDummyInfo> > >::operator++, COMDAT
; _this$ = ecx

; 93   : 		{	// preincrement

  00000	8b c1		 mov	 eax, ecx

; 94   :  #if _ITERATOR_DEBUG_LEVEL == 2
; 95   : 		if (this->_Getcont() == 0
; 96   : 			|| this->_Ptr == 0
; 97   : 			|| ((_Myvec *)this->_Getcont())->_Mylast <= this->_Ptr)
; 98   : 			{	// report error
; 99   : 			_DEBUG_ERROR("vector iterator not incrementable");
; 100  : 			_SCL_SECURE_OUT_OF_RANGE;
; 101  : 			}
; 102  : 
; 103  :  #elif _ITERATOR_DEBUG_LEVEL == 1
; 104  : 		_SCL_SECURE_VALIDATE(this->_Getcont() != 0);
; 105  : 		_SCL_SECURE_VALIDATE_RANGE(
; 106  : 			this->_Ptr != 0
; 107  : 			&& this->_Ptr < ((_Myvec *)this->_Getcont())->_Mylast);
; 108  :  #endif /* _ITERATOR_DEBUG_LEVEL */
; 109  : 
; 110  : 		++this->_Ptr;

  00002	83 00 14	 add	 DWORD PTR [eax], 20	; 00000014H

; 111  : 		return (*this);
; 112  : 		}

  00005	c3		 ret	 0
??E?$_Vector_const_iterator@V?$_Vector_val@UGroupDummyInfo@@V?$allocator@UGroupDummyInfo@@@std@@@std@@@std@@QAEAAV01@XZ ENDP ; std::_Vector_const_iterator<std::_Vector_val<GroupDummyInfo,std::allocator<GroupDummyInfo> > >::operator++
_TEXT	ENDS
PUBLIC	?_Compat@?$_Vector_const_iterator@V?$_Vector_val@UGroupDummyInfo@@V?$allocator@UGroupDummyInfo@@@std@@@std@@@std@@QBEXABV12@@Z ; std::_Vector_const_iterator<std::_Vector_val<GroupDummyInfo,std::allocator<GroupDummyInfo> > >::_Compat
; Function compile flags: /Ogsp
;	COMDAT ?_Compat@?$_Vector_const_iterator@V?$_Vector_val@UGroupDummyInfo@@V?$allocator@UGroupDummyInfo@@@std@@@std@@@std@@QBEXABV12@@Z
_TEXT	SEGMENT
___formal$ = 8						; size = 4
?_Compat@?$_Vector_const_iterator@V?$_Vector_val@UGroupDummyInfo@@V?$allocator@UGroupDummyInfo@@@std@@@std@@@std@@QBEXABV12@@Z PROC ; std::_Vector_const_iterator<std::_Vector_val<GroupDummyInfo,std::allocator<GroupDummyInfo> > >::_Compat, COMDAT
; _this$ = ecx

; 253  : 		}

  00000	c2 04 00	 ret	 4
?_Compat@?$_Vector_const_iterator@V?$_Vector_val@UGroupDummyInfo@@V?$allocator@UGroupDummyInfo@@@std@@@std@@@std@@QBEXABV12@@Z ENDP ; std::_Vector_const_iterator<std::_Vector_val<GroupDummyInfo,std::allocator<GroupDummyInfo> > >::_Compat
_TEXT	ENDS
PUBLIC	??_GGroupDummyInfo@@QAEPAXI@Z			; GroupDummyInfo::`scalar deleting destructor'
; Function compile flags: /Ogsp
;	COMDAT ??_GGroupDummyInfo@@QAEPAXI@Z
_TEXT	SEGMENT
___flags$ = 8						; size = 4
??_GGroupDummyInfo@@QAEPAXI@Z PROC			; GroupDummyInfo::`scalar deleting destructor', COMDAT
; _this$ = ecx
  00000	55		 push	 ebp
  00001	8b ec		 mov	 ebp, esp
  00003	56		 push	 esi
  00004	8b f1		 mov	 esi, ecx
  00006	ff 15 00 00 00
	00		 call	 DWORD PTR __imp_??1ioHashString@@QAE@XZ
  0000c	f6 45 08 01	 test	 BYTE PTR ___flags$[ebp], 1
  00010	74 07		 je	 SHORT $LN1@scalar@2
  00012	56		 push	 esi
  00013	e8 00 00 00 00	 call	 ??3@YAXPAX@Z		; operator delete
  00018	59		 pop	 ecx
$LN1@scalar@2:
  00019	8b c6		 mov	 eax, esi
  0001b	5e		 pop	 esi
  0001c	5d		 pop	 ebp
  0001d	c2 04 00	 ret	 4
??_GGroupDummyInfo@@QAEPAXI@Z ENDP			; GroupDummyInfo::`scalar deleting destructor'
_TEXT	ENDS
PUBLIC	??$forward@UGroupDummyInfo@@@std@@YA$$QAUGroupDummyInfo@@AAU1@@Z ; std::forward<GroupDummyInfo>
; Function compile flags: /Ogsp
; File c:\program files (x86)\microsoft visual studio 10.0\vc\include\utility
;	COMDAT ??$forward@UGroupDummyInfo@@@std@@YA$$QAUGroupDummyInfo@@AAU1@@Z
_TEXT	SEGMENT
__Arg$ = 8						; size = 4
??$forward@UGroupDummyInfo@@@std@@YA$$QAUGroupDummyInfo@@AAU1@@Z PROC ; std::forward<GroupDummyInfo>, COMDAT

; 78   : 	{	// forward _Arg, given explicitly specified type parameter

  00000	55		 push	 ebp
  00001	8b ec		 mov	 ebp, esp

; 79   : 	return ((_Ty&&)_Arg);

  00003	8b 45 08	 mov	 eax, DWORD PTR __Arg$[ebp]

; 80   : 	}

  00006	5d		 pop	 ebp
  00007	c3		 ret	 0
??$forward@UGroupDummyInfo@@@std@@YA$$QAUGroupDummyInfo@@AAU1@@Z ENDP ; std::forward<GroupDummyInfo>
_TEXT	ENDS
PUBLIC	?_DECSTR@@YAXPADH@Z				; _DECSTR
; Function compile flags: /Ogsp
; File d:\lost saga for developer\youtube\tutorial\source\src\lsclient\stringprotect.h
;	COMDAT ?_DECSTR@@YAXPADH@Z
_TEXT	SEGMENT
_s$ = 8							; size = 4
_l$ = 12						; size = 4
?_DECSTR@@YAXPADH@Z PROC				; _DECSTR, COMDAT

; 40   : __forceinline void _DECSTR(char* s, int l){int i=0,l4=(l-1)/4,*p=(int*)s;s[l-1]=0;for(;i<l4;++i)*(p++)^=0xEAEBECED;for(i=l4*4;i<l-1;++i)s[i]^=0xED-i%4;}

  00000	55		 push	 ebp
  00001	8b ec		 mov	 ebp, esp
  00003	8b 4d 0c	 mov	 ecx, DWORD PTR _l$[ebp]
  00006	56		 push	 esi
  00007	8b 75 08	 mov	 esi, DWORD PTR _s$[ebp]
  0000a	57		 push	 edi
  0000b	8d 79 ff	 lea	 edi, DWORD PTR [ecx-1]
  0000e	8b c7		 mov	 eax, edi
  00010	99		 cdq
  00011	83 e2 03	 and	 edx, 3
  00014	03 c2		 add	 eax, edx
  00016	c1 f8 02	 sar	 eax, 2
  00019	8b d6		 mov	 edx, esi
  0001b	c6 44 0e ff 00	 mov	 BYTE PTR [esi+ecx-1], 0
  00020	85 c0		 test	 eax, eax
  00022	7e 0e		 jle	 SHORT $LN4@DECSTR
  00024	8b c8		 mov	 ecx, eax
$LL6@DECSTR:
  00026	81 32 ed ec eb
	ea		 xor	 DWORD PTR [edx], -353637139 ; eaebecedH
  0002c	83 c2 04	 add	 edx, 4
  0002f	49		 dec	 ecx
  00030	75 f4		 jne	 SHORT $LL6@DECSTR
$LN4@DECSTR:
  00032	c1 e0 02	 shl	 eax, 2
  00035	eb 17		 jmp	 SHORT $LN14@DECSTR
$LL3@DECSTR:
  00037	8b c8		 mov	 ecx, eax
  00039	81 e1 03 00 00
	80		 and	 ecx, -2147483645	; 80000003H
  0003f	79 05		 jns	 SHORT $LN13@DECSTR
  00041	49		 dec	 ecx
  00042	83 c9 fc	 or	 ecx, -4			; fffffffcH
  00045	41		 inc	 ecx
$LN13@DECSTR:
  00046	b2 ed		 mov	 dl, -19			; ffffffedH
  00048	2a d1		 sub	 dl, cl
  0004a	30 14 30	 xor	 BYTE PTR [eax+esi], dl
  0004d	40		 inc	 eax
$LN14@DECSTR:
  0004e	3b c7		 cmp	 eax, edi
  00050	7c e5		 jl	 SHORT $LL3@DECSTR
  00052	5f		 pop	 edi
  00053	5e		 pop	 esi
  00054	5d		 pop	 ebp
  00055	c3		 ret	 0
?_DECSTR@@YAXPADH@Z ENDP				; _DECSTR
_TEXT	ENDS
PUBLIC	?GetGroup@ioGameEntity@@QBEPAVioEntityGroup@@XZ	; ioGameEntity::GetGroup
; Function compile flags: /Ogsp
; File d:\lost saga for developer\youtube\tutorial\source\src\lsclient\iogameentity.h
;	COMDAT ?GetGroup@ioGameEntity@@QBEPAVioEntityGroup@@XZ
_TEXT	SEGMENT
?GetGroup@ioGameEntity@@QBEPAVioEntityGroup@@XZ PROC	; ioGameEntity::GetGroup, COMDAT
; _this$ = ecx

; 166  : 	inline ioEntityGroup* GetGroup() const { return m_pGroup; }

  00000	8b 41 04	 mov	 eax, DWORD PTR [ecx+4]
  00003	c3		 ret	 0
?GetGroup@ioGameEntity@@QBEPAVioEntityGroup@@XZ ENDP	; ioGameEntity::GetGroup
_TEXT	ENDS
PUBLIC	?GetName@ioItem@@QBEABVioHashString@@XZ		; ioItem::GetName
; Function compile flags: /Ogsp
; File d:\lost saga for developer\youtube\tutorial\source\src\lsclient\ioitem.h
;	COMDAT ?GetName@ioItem@@QBEABVioHashString@@XZ
_TEXT	SEGMENT
?GetName@ioItem@@QBEABVioHashString@@XZ PROC		; ioItem::GetName, COMDAT
; _this$ = ecx

; 269  : 	inline const ioHashString& GetName() const { return m_Name; }

  00000	8d 81 34 01 00
	00		 lea	 eax, DWORD PTR [ecx+308]
  00006	c3		 ret	 0
?GetName@ioItem@@QBEABVioHashString@@XZ ENDP		; ioItem::GetName
_TEXT	ENDS
PUBLIC	?GetType@ioDummyChar@@QBE?AW4DummyCharType@@XZ	; ioDummyChar::GetType
; Function compile flags: /Ogsp
; File d:\lost saga for developer\youtube\tutorial\source\src\lsclient\iodummychar.h
;	COMDAT ?GetType@ioDummyChar@@QBE?AW4DummyCharType@@XZ
_TEXT	SEGMENT
?GetType@ioDummyChar@@QBE?AW4DummyCharType@@XZ PROC	; ioDummyChar::GetType, COMDAT
; _this$ = ecx

; 649  : 	inline DummyCharType GetType() const { return m_DummyCharType; }

  00000	8b 81 2c 02 00
	00		 mov	 eax, DWORD PTR [ecx+556]
  00006	c3		 ret	 0
?GetType@ioDummyChar@@QBE?AW4DummyCharType@@XZ ENDP	; ioDummyChar::GetType
_TEXT	ENDS
PUBLIC	?GetDummyCharIdx@ioDummyChar@@QBEHXZ		; ioDummyChar::GetDummyCharIdx
; Function compile flags: /Ogsp
;	COMDAT ?GetDummyCharIdx@ioDummyChar@@QBEHXZ
_TEXT	SEGMENT
?GetDummyCharIdx@ioDummyChar@@QBEHXZ PROC		; ioDummyChar::GetDummyCharIdx, COMDAT
; _this$ = ecx

; 652  : 	inline int GetDummyCharIdx() const { return m_iCreateIndex; }

  00000	8b 81 dc 01 00
	00		 mov	 eax, DWORD PTR [ecx+476]
  00006	c3		 ret	 0
?GetDummyCharIdx@ioDummyChar@@QBEHXZ ENDP		; ioDummyChar::GetDummyCharIdx
_TEXT	ENDS
PUBLIC	?GetDummyCharName@ioDummyChar@@QBEABVioHashString@@XZ ; ioDummyChar::GetDummyCharName
; Function compile flags: /Ogsp
;	COMDAT ?GetDummyCharName@ioDummyChar@@QBEABVioHashString@@XZ
_TEXT	SEGMENT
?GetDummyCharName@ioDummyChar@@QBEABVioHashString@@XZ PROC ; ioDummyChar::GetDummyCharName, COMDAT
; _this$ = ecx

; 655  : 	inline const ioHashString& GetDummyCharName() const { return m_DummyCharName; }

  00000	8d 81 e0 01 00
	00		 lea	 eax, DWORD PTR [ecx+480]
  00006	c3		 ret	 0
?GetDummyCharName@ioDummyChar@@QBEABVioHashString@@XZ ENDP ; ioDummyChar::GetDummyCharName
_TEXT	ENDS
PUBLIC	??0GroupDummyInfo@@QAE@XZ			; GroupDummyInfo::GroupDummyInfo
EXTRN	__imp_??0ioHashString@@QAE@XZ:PROC
; Function compile flags: /Ogsp
; File d:\lost saga for developer\youtube\tutorial\source\src\lsclient\iodummygroup.h
;	COMDAT ??0GroupDummyInfo@@QAE@XZ
_TEXT	SEGMENT
??0GroupDummyInfo@@QAE@XZ PROC				; GroupDummyInfo::GroupDummyInfo, COMDAT
; _this$ = ecx

; 11   : 	GroupDummyInfo()

  00000	56		 push	 esi
  00001	8b f1		 mov	 esi, ecx
  00003	ff 15 00 00 00
	00		 call	 DWORD PTR __imp_??0ioHashString@@QAE@XZ

; 12   : 	{
; 13   : 		fNeedGauge	= 0.0f;

  00009	0f 57 c0	 xorps	 xmm0, xmm0
  0000c	f3 0f 11 46 10	 movss	 DWORD PTR [esi+16], xmm0

; 14   : 	}

  00011	8b c6		 mov	 eax, esi
  00013	5e		 pop	 esi
  00014	c3		 ret	 0
??0GroupDummyInfo@@QAE@XZ ENDP				; GroupDummyInfo::GroupDummyInfo
_TEXT	ENDS
PUBLIC	?size@?$vector@VioHashString@@V?$allocator@VioHashString@@@std@@@std@@QBEIXZ ; std::vector<ioHashString,std::allocator<ioHashString> >::size
; Function compile flags: /Ogsp
; File c:\program files (x86)\microsoft visual studio 10.0\vc\include\vector
;	COMDAT ?size@?$vector@VioHashString@@V?$allocator@VioHashString@@@std@@@std@@QBEIXZ
_TEXT	SEGMENT
?size@?$vector@VioHashString@@V?$allocator@VioHashString@@@std@@@std@@QBEIXZ PROC ; std::vector<ioHashString,std::allocator<ioHashString> >::size, COMDAT
; _this$ = ecx

; 879  : 		return (this->_Mylast - this->_Myfirst);

  00000	8b 41 04	 mov	 eax, DWORD PTR [ecx+4]
  00003	2b 01		 sub	 eax, DWORD PTR [ecx]
  00005	c1 f8 04	 sar	 eax, 4

; 880  : 		}

  00008	c3		 ret	 0
?size@?$vector@VioHashString@@V?$allocator@VioHashString@@@std@@@std@@QBEIXZ ENDP ; std::vector<ioHashString,std::allocator<ioHashString> >::size
_TEXT	ENDS
PUBLIC	??_7?$CEncrypt@M@@6B@				; CEncrypt<float>::`vftable'
PUBLIC	??1?$CEncrypt@M@@UAE@XZ				; CEncrypt<float>::~CEncrypt<float>
PUBLIC	??_R4?$CEncrypt@M@@6B@				; CEncrypt<float>::`RTTI Complete Object Locator'
PUBLIC	??_R0?AV?$CEncrypt@M@@@8			; CEncrypt<float> `RTTI Type Descriptor'
PUBLIC	??_R3?$CEncrypt@M@@8				; CEncrypt<float>::`RTTI Class Hierarchy Descriptor'
PUBLIC	??_R2?$CEncrypt@M@@8				; CEncrypt<float>::`RTTI Base Class Array'
PUBLIC	??_R1A@?0A@EA@?$CEncrypt@M@@8			; CEncrypt<float>::`RTTI Base Class Descriptor at (0,-1,0,64)'
EXTRN	??1ccddaabb@@UAE@XZ:PROC			; ccddaabb::~ccddaabb
EXTRN	??_E?$CEncrypt@M@@UAEPAXI@Z:PROC		; CEncrypt<float>::`vector deleting destructor'
;	COMDAT ??_R1A@?0A@EA@?$CEncrypt@M@@8
; File d:\lost saga for developer\youtube\tutorial\source\src\lsclient\encryptvalue.h
rdata$r	SEGMENT
??_R1A@?0A@EA@?$CEncrypt@M@@8 DD FLAT:??_R0?AV?$CEncrypt@M@@@8 ; CEncrypt<float>::`RTTI Base Class Descriptor at (0,-1,0,64)'
	DD	00H
	DD	00H
	DD	0ffffffffH
	DD	00H
	DD	040H
	DD	FLAT:??_R3?$CEncrypt@M@@8
rdata$r	ENDS
;	COMDAT ??_R2?$CEncrypt@M@@8
rdata$r	SEGMENT
??_R2?$CEncrypt@M@@8 DD FLAT:??_R1A@?0A@EA@?$CEncrypt@M@@8 ; CEncrypt<float>::`RTTI Base Class Array'
rdata$r	ENDS
;	COMDAT ??_R3?$CEncrypt@M@@8
rdata$r	SEGMENT
??_R3?$CEncrypt@M@@8 DD 00H				; CEncrypt<float>::`RTTI Class Hierarchy Descriptor'
	DD	00H
	DD	01H
	DD	FLAT:??_R2?$CEncrypt@M@@8
rdata$r	ENDS
;	COMDAT ??_R0?AV?$CEncrypt@M@@@8
_DATA	SEGMENT
??_R0?AV?$CEncrypt@M@@@8 DD FLAT:??_7type_info@@6B@	; CEncrypt<float> `RTTI Type Descriptor'
	DD	00H
	DB	'.?AV?$CEncrypt@M@@', 00H
_DATA	ENDS
;	COMDAT ??_R4?$CEncrypt@M@@6B@
rdata$r	SEGMENT
??_R4?$CEncrypt@M@@6B@ DD 00H				; CEncrypt<float>::`RTTI Complete Object Locator'
	DD	00H
	DD	00H
	DD	FLAT:??_R0?AV?$CEncrypt@M@@@8
	DD	FLAT:??_R3?$CEncrypt@M@@8
rdata$r	ENDS
;	COMDAT ??_7?$CEncrypt@M@@6B@
CONST	SEGMENT
??_7?$CEncrypt@M@@6B@ DD FLAT:??_R4?$CEncrypt@M@@6B@	; CEncrypt<float>::`vftable'
	DD	FLAT:??_E?$CEncrypt@M@@UAEPAXI@Z
; Function compile flags: /Ogsp
CONST	ENDS
;	COMDAT ??1?$CEncrypt@M@@UAE@XZ
_TEXT	SEGMENT
??1?$CEncrypt@M@@UAE@XZ PROC				; CEncrypt<float>::~CEncrypt<float>, COMDAT
; _this$ = ecx

; 127  : 	{

  00000	c7 01 00 00 00
	00		 mov	 DWORD PTR [ecx], OFFSET ??_7?$CEncrypt@M@@6B@

; 128  : 	}

  00006	83 c1 0c	 add	 ecx, 12			; 0000000cH
  00009	e9 00 00 00 00	 jmp	 ??1ccddaabb@@UAE@XZ	; ccddaabb::~ccddaabb
??1?$CEncrypt@M@@UAE@XZ ENDP				; CEncrypt<float>::~CEncrypt<float>
; Function compile flags: /Ogsp
_TEXT	ENDS
;	COMDAT ??_G?$CEncrypt@M@@UAEPAXI@Z
_TEXT	SEGMENT
___flags$ = 8						; size = 4
??_G?$CEncrypt@M@@UAEPAXI@Z PROC			; CEncrypt<float>::`scalar deleting destructor', COMDAT
; _this$ = ecx
  00000	55		 push	 ebp
  00001	8b ec		 mov	 ebp, esp
  00003	56		 push	 esi
  00004	8b f1		 mov	 esi, ecx
  00006	8d 4e 0c	 lea	 ecx, DWORD PTR [esi+12]
  00009	c7 06 00 00 00
	00		 mov	 DWORD PTR [esi], OFFSET ??_7?$CEncrypt@M@@6B@
  0000f	e8 00 00 00 00	 call	 ??1ccddaabb@@UAE@XZ	; ccddaabb::~ccddaabb
  00014	f6 45 08 01	 test	 BYTE PTR ___flags$[ebp], 1
  00018	74 07		 je	 SHORT $LN1@scalar@3
  0001a	56		 push	 esi
  0001b	e8 00 00 00 00	 call	 ??3@YAXPAX@Z		; operator delete
  00020	59		 pop	 ecx
$LN1@scalar@3:
  00021	8b c6		 mov	 eax, esi
  00023	5e		 pop	 esi
  00024	5d		 pop	 ebp
  00025	c2 04 00	 ret	 4
??_G?$CEncrypt@M@@UAEPAXI@Z ENDP			; CEncrypt<float>::`scalar deleting destructor'
_TEXT	ENDS
PUBLIC	??1?$_Vector_val@VioHashString@@V?$allocator@VioHashString@@@std@@@std@@QAE@XZ ; std::_Vector_val<ioHashString,std::allocator<ioHashString> >::~_Vector_val<ioHashString,std::allocator<ioHashString> >
; Function compile flags: /Ogsp
; File c:\program files (x86)\microsoft visual studio 10.0\vc\include\vector
;	COMDAT ??1?$_Vector_val@VioHashString@@V?$allocator@VioHashString@@@std@@@std@@QAE@XZ
_TEXT	SEGMENT
??1?$_Vector_val@VioHashString@@V?$allocator@VioHashString@@@std@@@std@@QAE@XZ PROC ; std::_Vector_val<ioHashString,std::allocator<ioHashString> >::~_Vector_val<ioHashString,std::allocator<ioHashString> >, COMDAT
; _this$ = ecx

; 434  : 		}

  00000	c3		 ret	 0
??1?$_Vector_val@VioHashString@@V?$allocator@VioHashString@@@std@@@std@@QAE@XZ ENDP ; std::_Vector_val<ioHashString,std::allocator<ioHashString> >::~_Vector_val<ioHashString,std::allocator<ioHashString> >
_TEXT	ENDS
PUBLIC	??0?$allocator@VioHashString@@@std@@QAE@XZ	; std::allocator<ioHashString>::allocator<ioHashString>
; Function compile flags: /Ogsp
; File c:\program files (x86)\microsoft visual studio 10.0\vc\include\xmemory
;	COMDAT ??0?$allocator@VioHashString@@@std@@QAE@XZ
_TEXT	SEGMENT
??0?$allocator@VioHashString@@@std@@QAE@XZ PROC		; std::allocator<ioHashString>::allocator<ioHashString>, COMDAT
; _this$ = ecx

; 161  : 	_ALLOCATOR() _THROW0()

  00000	8b c1		 mov	 eax, ecx

; 162  : 		{	// construct default allocator (do nothing)
; 163  : 		}

  00002	c3		 ret	 0
??0?$allocator@VioHashString@@@std@@QAE@XZ ENDP		; std::allocator<ioHashString>::allocator<ioHashString>
_TEXT	ENDS
PUBLIC	??0?$allocator@VioHashString@@@std@@QAE@ABV01@@Z ; std::allocator<ioHashString>::allocator<ioHashString>
; Function compile flags: /Ogsp
;	COMDAT ??0?$allocator@VioHashString@@@std@@QAE@ABV01@@Z
_TEXT	SEGMENT
___formal$ = 8						; size = 4
??0?$allocator@VioHashString@@@std@@QAE@ABV01@@Z PROC	; std::allocator<ioHashString>::allocator<ioHashString>, COMDAT
; _this$ = ecx

; 165  : 	_ALLOCATOR(const _ALLOCATOR<_Ty>&) _THROW0()

  00000	8b c1		 mov	 eax, ecx

; 166  : 		{	// construct by copying (do nothing)
; 167  : 		}

  00002	c2 04 00	 ret	 4
??0?$allocator@VioHashString@@@std@@QAE@ABV01@@Z ENDP	; std::allocator<ioHashString>::allocator<ioHashString>
_TEXT	ENDS
PUBLIC	?EncryptValueToPool@?$CEncrypt@M@@AAEXPBD@Z	; CEncrypt<float>::EncryptValueToPool
EXTRN	?EncryptByte@ccddaabb@@QAEXPBDPADH@Z:PROC	; ccddaabb::EncryptByte
; Function compile flags: /Ogsp
; File d:\lost saga for developer\youtube\tutorial\source\src\lsclient\encryptvalue.h
;	COMDAT ?EncryptValueToPool@?$CEncrypt@M@@AAEXPBD@Z
_TEXT	SEGMENT
_value$ = 8						; size = 4
?EncryptValueToPool@?$CEncrypt@M@@AAEXPBD@Z PROC	; CEncrypt<float>::EncryptValueToPool, COMDAT
; _this$ = ecx

; 67   : 	{

  00000	55		 push	 ebp
  00001	8b ec		 mov	 ebp, esp

; 68   : 		m_RC5.EncryptByte( value, m_MemPool, max(m_ValueSize, DEFAULT_ENCRYPT) );

  00003	0f b7 41 06	 movzx	 eax, WORD PTR [ecx+6]
  00007	83 f8 04	 cmp	 eax, 4
  0000a	77 03		 ja	 SHORT $LN4@EncryptVal
  0000c	6a 04		 push	 4
  0000e	58		 pop	 eax
$LN4@EncryptVal:
  0000f	50		 push	 eax
  00010	8d 41 1c	 lea	 eax, DWORD PTR [ecx+28]
  00013	50		 push	 eax
  00014	ff 75 08	 push	 DWORD PTR _value$[ebp]
  00017	83 c1 0c	 add	 ecx, 12			; 0000000cH
  0001a	e8 00 00 00 00	 call	 ?EncryptByte@ccddaabb@@QAEXPBDPADH@Z ; ccddaabb::EncryptByte

; 69   : 		
; 70   : 	}

  0001f	5d		 pop	 ebp
  00020	c2 04 00	 ret	 4
?EncryptValueToPool@?$CEncrypt@M@@AAEXPBD@Z ENDP	; CEncrypt<float>::EncryptValueToPool
_TEXT	ENDS
PUBLIC	?Init@?$CEncrypt@M@@AAEXXZ			; CEncrypt<float>::Init
EXTRN	?Setup@ccddaabb@@QAEXPBDHH@Z:PROC		; ccddaabb::Setup
EXTRN	__imp__rand:PROC
EXTRN	__imp__timeGetTime@0:PROC
EXTRN	__imp__GetCurrentProcessId@0:PROC
; Function compile flags: /Ogsp
;	COMDAT ?Init@?$CEncrypt@M@@AAEXXZ
_TEXT	SEGMENT
_pid$ = -8						; size = 4
_tick$ = -4						; size = 4
?Init@?$CEncrypt@M@@AAEXXZ PROC				; CEncrypt<float>::Init, COMDAT
; _this$ = ecx

; 73   : 	{

  00000	55		 push	 ebp
  00001	8b ec		 mov	 ebp, esp
  00003	51		 push	 ecx
  00004	51		 push	 ecx
  00005	53		 push	 ebx
  00006	56		 push	 esi
  00007	57		 push	 edi
  00008	8b f1		 mov	 esi, ecx

; 74   : 		DWORD pid = GetCurrentProcessId();

  0000a	ff 15 00 00 00
	00		 call	 DWORD PTR __imp__GetCurrentProcessId@0
  00010	89 45 f8	 mov	 DWORD PTR _pid$[ebp], eax

; 75   : 		DWORD tick = timeGetTime();

  00013	ff 15 00 00 00
	00		 call	 DWORD PTR __imp__timeGetTime@0

; 76   : 		m_ValueSize    = sizeof(type);
; 77   : 		m_MemPoolPos   = (unsigned short)( rand()+pid+tick )%(MAX_MEM_POOL-m_ValueSize);

  00019	8b 3d 00 00 00
	00		 mov	 edi, DWORD PTR __imp__rand
  0001f	89 45 fc	 mov	 DWORD PTR _tick$[ebp], eax
  00022	6a 04		 push	 4
  00024	58		 pop	 eax
  00025	66 89 46 06	 mov	 WORD PTR [esi+6], ax
  00029	ff d7		 call	 edi
  0002b	03 45 f8	 add	 eax, DWORD PTR _pid$[ebp]
  0002e	0f b7 4e 06	 movzx	 ecx, WORD PTR [esi+6]
  00032	03 45 fc	 add	 eax, DWORD PTR _tick$[ebp]
  00035	6a 0c		 push	 12			; 0000000cH
  00037	0f b7 c0	 movzx	 eax, ax
  0003a	5b		 pop	 ebx
  0003b	99		 cdq
  0003c	2b d9		 sub	 ebx, ecx
  0003e	f7 fb		 idiv	 ebx
  00040	66 89 56 04	 mov	 WORD PTR [esi+4], dx

; 78   : 		m_EncryptSeed  = (char)( rand()+pid+tick )%256;

  00044	ff d7		 call	 edi
  00046	02 45 f8	 add	 al, BYTE PTR _pid$[ebp]
  00049	02 45 fc	 add	 al, BYTE PTR _tick$[ebp]
  0004c	0f be c0	 movsx	 eax, al
  0004f	25 ff 00 00 80	 and	 eax, -2147483393	; 800000ffH
  00054	79 07		 jns	 SHORT $LN8@Init
  00056	48		 dec	 eax
  00057	0d 00 ff ff ff	 or	 eax, -256		; ffffff00H
  0005c	40		 inc	 eax
$LN8@Init:
  0005d	88 46 08	 mov	 BYTE PTR [esi+8], al

; 79   : 
; 80   : 		for (int i = 0; i < MAX_MEM_POOL ; i++)

  00060	33 db		 xor	 ebx, ebx
$LL3@Init:

; 81   : 			m_MemPool[i] = (char)( rand()+pid+tick )%256; // 

  00062	ff d7		 call	 edi
  00064	02 45 f8	 add	 al, BYTE PTR _pid$[ebp]
  00067	02 45 fc	 add	 al, BYTE PTR _tick$[ebp]
  0006a	0f be c0	 movsx	 eax, al
  0006d	25 ff 00 00 80	 and	 eax, -2147483393	; 800000ffH
  00072	79 07		 jns	 SHORT $LN9@Init
  00074	48		 dec	 eax
  00075	0d 00 ff ff ff	 or	 eax, -256		; ffffff00H
  0007a	40		 inc	 eax
$LN9@Init:
  0007b	88 44 1e 1c	 mov	 BYTE PTR [esi+ebx+28], al
  0007f	43		 inc	 ebx
  00080	83 fb 0c	 cmp	 ebx, 12			; 0000000cH
  00083	7c dd		 jl	 SHORT $LL3@Init

; 82   : 
; 83   : 		//UJ 130913, : szKey  
; 84   : 		//char szKey[ccddaabb::KEY_SIZE];//="";
; 85   : 		//for (int i = 0; i < ccddaabb::KEY_SIZE  ; i++)
; 86   : 		//	szKey[i] = (char)( rand()+pid+tick )%256; // 
; 87   : 		m_RC5.Setup( NULL, pid, tick );

  00085	ff 75 fc	 push	 DWORD PTR _tick$[ebp]
  00088	8d 4e 0c	 lea	 ecx, DWORD PTR [esi+12]
  0008b	ff 75 f8	 push	 DWORD PTR _pid$[ebp]
  0008e	6a 00		 push	 0
  00090	e8 00 00 00 00	 call	 ?Setup@ccddaabb@@QAEXPBDHH@Z ; ccddaabb::Setup
  00095	5f		 pop	 edi
  00096	5e		 pop	 esi
  00097	5b		 pop	 ebx

; 88   : 
; 89   : #ifdef _NOTUSE
; 90   : 		m_value        = 0;
; 91   : 		EncryptValueToPool((char*)&m_value);
; 92   : 		Debug();
; 93   : #endif
; 94   : 	}

  00098	c9		 leave
  00099	c3		 ret	 0
?Init@?$CEncrypt@M@@AAEXXZ ENDP				; CEncrypt<float>::Init
_TEXT	ENDS
PUBLIC	?DecryptValueToPool@?$CEncrypt@M@@QAEXPAM@Z	; CEncrypt<float>::DecryptValueToPool
EXTRN	?DecryptByte@ccddaabb@@QBEXPBDPADH@Z:PROC	; ccddaabb::DecryptByte
; Function compile flags: /Ogsp
;	COMDAT ?DecryptValueToPool@?$CEncrypt@M@@QAEXPAM@Z
_TEXT	SEGMENT
_value$ = 8						; size = 4
?DecryptValueToPool@?$CEncrypt@M@@QAEXPAM@Z PROC	; CEncrypt<float>::DecryptValueToPool, COMDAT
; _this$ = ecx

; 1648 : 	{

  00000	55		 push	 ebp
  00001	8b ec		 mov	 ebp, esp
  00003	56		 push	 esi

; 1649 : 		m_RC5.DecryptByte( m_MemPool, m_TempMem, 4 );

  00004	8d 71 28	 lea	 esi, DWORD PTR [ecx+40]
  00007	6a 04		 push	 4
  00009	8d 41 1c	 lea	 eax, DWORD PTR [ecx+28]
  0000c	56		 push	 esi
  0000d	50		 push	 eax
  0000e	83 c1 0c	 add	 ecx, 12			; 0000000cH
  00011	e8 00 00 00 00	 call	 ?DecryptByte@ccddaabb@@QBEXPBDPADH@Z ; ccddaabb::DecryptByte

; 1650 : 		*value = *((float*)m_TempMem);

  00016	d9 06		 fld	 DWORD PTR [esi]
  00018	8b 45 08	 mov	 eax, DWORD PTR _value$[ebp]
  0001b	d9 18		 fstp	 DWORD PTR [eax]
  0001d	5e		 pop	 esi

; 1651 : 	}

  0001e	5d		 pop	 ebp
  0001f	c2 04 00	 ret	 4
?DecryptValueToPool@?$CEncrypt@M@@QAEXPAM@Z ENDP	; CEncrypt<float>::DecryptValueToPool
_TEXT	ENDS
PUBLIC	?DecryptValueToPool@?$CEncrypt@K@@QAEXPAK@Z	; CEncrypt<unsigned long>::DecryptValueToPool
; Function compile flags: /Ogsp
;	COMDAT ?DecryptValueToPool@?$CEncrypt@K@@QAEXPAK@Z
_TEXT	SEGMENT
_value$ = 8						; size = 4
?DecryptValueToPool@?$CEncrypt@K@@QAEXPAK@Z PROC	; CEncrypt<unsigned long>::DecryptValueToPool, COMDAT
; _this$ = ecx

; 1256 : 	{

  00000	55		 push	 ebp
  00001	8b ec		 mov	 ebp, esp
  00003	56		 push	 esi

; 1257 : 		m_RC5.DecryptByte( m_MemPool, m_TempMem, 4 );

  00004	8d 71 28	 lea	 esi, DWORD PTR [ecx+40]
  00007	6a 04		 push	 4
  00009	8d 41 1c	 lea	 eax, DWORD PTR [ecx+28]
  0000c	56		 push	 esi
  0000d	50		 push	 eax
  0000e	83 c1 0c	 add	 ecx, 12			; 0000000cH
  00011	e8 00 00 00 00	 call	 ?DecryptByte@ccddaabb@@QBEXPBDPADH@Z ; ccddaabb::DecryptByte

; 1258 : 		*value = *((DWORD*)m_TempMem);

  00016	8b 06		 mov	 eax, DWORD PTR [esi]
  00018	8b 4d 08	 mov	 ecx, DWORD PTR _value$[ebp]
  0001b	89 01		 mov	 DWORD PTR [ecx], eax
  0001d	5e		 pop	 esi

; 1259 : 	}

  0001e	5d		 pop	 ebp
  0001f	c2 04 00	 ret	 4
?DecryptValueToPool@?$CEncrypt@K@@QAEXPAK@Z ENDP	; CEncrypt<unsigned long>::DecryptValueToPool
_TEXT	ENDS
PUBLIC	??1?$_Vector_val@PAVioDummyChar@@V?$allocator@PAVioDummyChar@@@std@@@std@@QAE@XZ ; std::_Vector_val<ioDummyChar *,std::allocator<ioDummyChar *> >::~_Vector_val<ioDummyChar *,std::allocator<ioDummyChar *> >
; Function compile flags: /Ogsp
; File c:\program files (x86)\microsoft visual studio 10.0\vc\include\vector
;	COMDAT ??1?$_Vector_val@PAVioDummyChar@@V?$allocator@PAVioDummyChar@@@std@@@std@@QAE@XZ
_TEXT	SEGMENT
??1?$_Vector_val@PAVioDummyChar@@V?$allocator@PAVioDummyChar@@@std@@@std@@QAE@XZ PROC ; std::_Vector_val<ioDummyChar *,std::allocator<ioDummyChar *> >::~_Vector_val<ioDummyChar *,std::allocator<ioDummyChar *> >, COMDAT
; _this$ = ecx

; 434  : 		}

  00000	c3		 ret	 0
??1?$_Vector_val@PAVioDummyChar@@V?$allocator@PAVioDummyChar@@@std@@@std@@QAE@XZ ENDP ; std::_Vector_val<ioDummyChar *,std::allocator<ioDummyChar *> >::~_Vector_val<ioDummyChar *,std::allocator<ioDummyChar *> >
_TEXT	ENDS
PUBLIC	??0?$allocator@PAVioDummyChar@@@std@@QAE@ABV01@@Z ; std::allocator<ioDummyChar *>::allocator<ioDummyChar *>
; Function compile flags: /Ogsp
; File c:\program files (x86)\microsoft visual studio 10.0\vc\include\xmemory
;	COMDAT ??0?$allocator@PAVioDummyChar@@@std@@QAE@ABV01@@Z
_TEXT	SEGMENT
___formal$ = 8						; size = 4
??0?$allocator@PAVioDummyChar@@@std@@QAE@ABV01@@Z PROC	; std::allocator<ioDummyChar *>::allocator<ioDummyChar *>, COMDAT
; _this$ = ecx

; 165  : 	_ALLOCATOR(const _ALLOCATOR<_Ty>&) _THROW0()

  00000	8b c1		 mov	 eax, ecx

; 166  : 		{	// construct by copying (do nothing)
; 167  : 		}

  00002	c2 04 00	 ret	 4
??0?$allocator@PAVioDummyChar@@@std@@QAE@ABV01@@Z ENDP	; std::allocator<ioDummyChar *>::allocator<ioDummyChar *>
_TEXT	ENDS
PUBLIC	?_Xlen@?$vector@VioHashString@@V?$allocator@VioHashString@@@std@@@std@@IBEXXZ ; std::vector<ioHashString,std::allocator<ioHashString> >::_Xlen
; Function compile flags: /Ogsp
; File c:\program files (x86)\microsoft visual studio 10.0\vc\include\vector
;	COMDAT ?_Xlen@?$vector@VioHashString@@V?$allocator@VioHashString@@@std@@@std@@IBEXXZ
_TEXT	SEGMENT
?_Xlen@?$vector@VioHashString@@V?$allocator@VioHashString@@@std@@@std@@IBEXXZ PROC ; std::vector<ioHashString,std::allocator<ioHashString> >::_Xlen, COMDAT
; _this$ = ecx

; 1427 : 		_Xlength_error("vector<T> too long");

  00000	68 00 00 00 00	 push	 OFFSET ??_C@_0BD@OLBABOEK@vector?$DMT?$DO?5too?5long?$AA@
  00005	ff 15 00 00 00
	00		 call	 DWORD PTR __imp_?_Xlength_error@std@@YAXPBD@Z
$LN4@Xlen@2:
$LN3@Xlen@2:
  0000b	cc		 int	 3
?_Xlen@?$vector@VioHashString@@V?$allocator@VioHashString@@@std@@@std@@IBEXXZ ENDP ; std::vector<ioHashString,std::allocator<ioHashString> >::_Xlen
_TEXT	ENDS
PUBLIC	?deallocate@?$allocator@VioHashString@@@std@@QAEXPAVioHashString@@I@Z ; std::allocator<ioHashString>::deallocate
; Function compile flags: /Ogsp
; File c:\program files (x86)\microsoft visual studio 10.0\vc\include\xmemory
;	COMDAT ?deallocate@?$allocator@VioHashString@@@std@@QAEXPAVioHashString@@I@Z
_TEXT	SEGMENT
__Ptr$ = 8						; size = 4
___formal$ = 12						; size = 4
?deallocate@?$allocator@VioHashString@@@std@@QAEXPAVioHashString@@I@Z PROC ; std::allocator<ioHashString>::deallocate, COMDAT
; _this$ = ecx

; 181  : 		{	// deallocate object at _Ptr, ignore size

  00000	55		 push	 ebp
  00001	8b ec		 mov	 ebp, esp

; 182  : 		::operator delete(_Ptr);

  00003	ff 75 08	 push	 DWORD PTR __Ptr$[ebp]
  00006	e8 00 00 00 00	 call	 ??3@YAXPAX@Z		; operator delete
  0000b	59		 pop	 ecx

; 183  : 		}

  0000c	5d		 pop	 ebp
  0000d	c2 08 00	 ret	 8
?deallocate@?$allocator@VioHashString@@@std@@QAEXPAVioHashString@@I@Z ENDP ; std::allocator<ioHashString>::deallocate
_TEXT	ENDS
PUBLIC	?deallocate@?$allocator@PAVioDummyChar@@@std@@QAEXPAPAVioDummyChar@@I@Z ; std::allocator<ioDummyChar *>::deallocate
; Function compile flags: /Ogsp
;	COMDAT ?deallocate@?$allocator@PAVioDummyChar@@@std@@QAEXPAPAVioDummyChar@@I@Z
_TEXT	SEGMENT
__Ptr$ = 8						; size = 4
___formal$ = 12						; size = 4
?deallocate@?$allocator@PAVioDummyChar@@@std@@QAEXPAPAVioDummyChar@@I@Z PROC ; std::allocator<ioDummyChar *>::deallocate, COMDAT
; _this$ = ecx

; 181  : 		{	// deallocate object at _Ptr, ignore size

  00000	55		 push	 ebp
  00001	8b ec		 mov	 ebp, esp

; 182  : 		::operator delete(_Ptr);

  00003	ff 75 08	 push	 DWORD PTR __Ptr$[ebp]
  00006	e8 00 00 00 00	 call	 ??3@YAXPAX@Z		; operator delete
  0000b	59		 pop	 ecx

; 183  : 		}

  0000c	5d		 pop	 ebp
  0000d	c2 08 00	 ret	 8
?deallocate@?$allocator@PAVioDummyChar@@@std@@QAEXPAPAVioDummyChar@@I@Z ENDP ; std::allocator<ioDummyChar *>::deallocate
_TEXT	ENDS
PUBLIC	??0?$_Vector_const_iterator@V?$_Vector_val@VioHashString@@V?$allocator@VioHashString@@@std@@@std@@@std@@QAE@PAVioHashString@@PBU_Container_base0@1@@Z ; std::_Vector_const_iterator<std::_Vector_val<ioHashString,std::allocator<ioHashString> > >::_Vector_const_iterator<std::_Vector_val<ioHashString,std::allocator<ioHashString> > >
; Function compile flags: /Ogsp
; File c:\program files (x86)\microsoft visual studio 10.0\vc\include\vector
;	COMDAT ??0?$_Vector_const_iterator@V?$_Vector_val@VioHashString@@V?$allocator@VioHashString@@@std@@@std@@@std@@QAE@PAVioHashString@@PBU_Container_base0@1@@Z
_TEXT	SEGMENT
__Parg$ = 8						; size = 4
__Pvector$ = 12						; size = 4
??0?$_Vector_const_iterator@V?$_Vector_val@VioHashString@@V?$allocator@VioHashString@@@std@@@std@@@std@@QAE@PAVioHashString@@PBU_Container_base0@1@@Z PROC ; std::_Vector_const_iterator<std::_Vector_val<ioHashString,std::allocator<ioHashString> > >::_Vector_const_iterator<std::_Vector_val<ioHashString,std::allocator<ioHashString> > >, COMDAT
; _this$ = ecx

; 45   : 		{	// construct with pointer _Parg

  00000	55		 push	 ebp
  00001	8b ec		 mov	 ebp, esp
  00003	8b c1		 mov	 eax, ecx
  00005	8b 4d 08	 mov	 ecx, DWORD PTR __Parg$[ebp]
  00008	89 08		 mov	 DWORD PTR [eax], ecx

; 46   : 		this->_Adopt(_Pvector);
; 47   : 		}

  0000a	5d		 pop	 ebp
  0000b	c2 08 00	 ret	 8
??0?$_Vector_const_iterator@V?$_Vector_val@VioHashString@@V?$allocator@VioHashString@@@std@@@std@@@std@@QAE@PAVioHashString@@PBU_Container_base0@1@@Z ENDP ; std::_Vector_const_iterator<std::_Vector_val<ioHashString,std::allocator<ioHashString> > >::_Vector_const_iterator<std::_Vector_val<ioHashString,std::allocator<ioHashString> > >
_TEXT	ENDS
PUBLIC	??0?$_Vector_const_iterator@V?$_Vector_val@PAVioDummyChar@@V?$allocator@PAVioDummyChar@@@std@@@std@@@std@@QAE@PAPAVioDummyChar@@PBU_Container_base0@1@@Z ; std::_Vector_const_iterator<std::_Vector_val<ioDummyChar *,std::allocator<ioDummyChar *> > >::_Vector_const_iterator<std::_Vector_val<ioDummyChar *,std::allocator<ioDummyChar *> > >
; Function compile flags: /Ogsp
;	COMDAT ??0?$_Vector_const_iterator@V?$_Vector_val@PAVioDummyChar@@V?$allocator@PAVioDummyChar@@@std@@@std@@@std@@QAE@PAPAVioDummyChar@@PBU_Container_base0@1@@Z
_TEXT	SEGMENT
__Parg$ = 8						; size = 4
__Pvector$ = 12						; size = 4
??0?$_Vector_const_iterator@V?$_Vector_val@PAVioDummyChar@@V?$allocator@PAVioDummyChar@@@std@@@std@@@std@@QAE@PAPAVioDummyChar@@PBU_Container_base0@1@@Z PROC ; std::_Vector_const_iterator<std::_Vector_val<ioDummyChar *,std::allocator<ioDummyChar *> > >::_Vector_const_iterator<std::_Vector_val<ioDummyChar *,std::allocator<ioDummyChar *> > >, COMDAT
; _this$ = ecx

; 45   : 		{	// construct with pointer _Parg

  00000	55		 push	 ebp
  00001	8b ec		 mov	 ebp, esp
  00003	8b c1		 mov	 eax, ecx
  00005	8b 4d 08	 mov	 ecx, DWORD PTR __Parg$[ebp]
  00008	89 08		 mov	 DWORD PTR [eax], ecx

; 46   : 		this->_Adopt(_Pvector);
; 47   : 		}

  0000a	5d		 pop	 ebp
  0000b	c2 08 00	 ret	 8
??0?$_Vector_const_iterator@V?$_Vector_val@PAVioDummyChar@@V?$allocator@PAVioDummyChar@@@std@@@std@@@std@@QAE@PAPAVioDummyChar@@PBU_Container_base0@1@@Z ENDP ; std::_Vector_const_iterator<std::_Vector_val<ioDummyChar *,std::allocator<ioDummyChar *> > >::_Vector_const_iterator<std::_Vector_val<ioDummyChar *,std::allocator<ioDummyChar *> > >
_TEXT	ENDS
PUBLIC	?max_size@?$allocator@VioHashString@@@std@@QBEIXZ ; std::allocator<ioHashString>::max_size
; Function compile flags: /Ogsp
; File c:\program files (x86)\microsoft visual studio 10.0\vc\include\xmemory
;	COMDAT ?max_size@?$allocator@VioHashString@@@std@@QBEIXZ
_TEXT	SEGMENT
?max_size@?$allocator@VioHashString@@@std@@QBEIXZ PROC	; std::allocator<ioHashString>::max_size, COMDAT
; _this$ = ecx

; 218  : 		_SIZT _Count = (_SIZT)(-1) / sizeof (_Ty);
; 219  : 		return (0 < _Count ? _Count : 1);

  00000	b8 ff ff ff 0f	 mov	 eax, 268435455		; 0fffffffH

; 220  : 		}

  00005	c3		 ret	 0
?max_size@?$allocator@VioHashString@@@std@@QBEIXZ ENDP	; std::allocator<ioHashString>::max_size
_TEXT	ENDS
PUBLIC	?_Compat@?$_Vector_const_iterator@V?$_Vector_val@VioHashString@@V?$allocator@VioHashString@@@std@@@std@@@std@@QBEXABV12@@Z ; std::_Vector_const_iterator<std::_Vector_val<ioHashString,std::allocator<ioHashString> > >::_Compat
; Function compile flags: /Ogsp
; File c:\program files (x86)\microsoft visual studio 10.0\vc\include\vector
;	COMDAT ?_Compat@?$_Vector_const_iterator@V?$_Vector_val@VioHashString@@V?$allocator@VioHashString@@@std@@@std@@@std@@QBEXABV12@@Z
_TEXT	SEGMENT
___formal$ = 8						; size = 4
?_Compat@?$_Vector_const_iterator@V?$_Vector_val@VioHashString@@V?$allocator@VioHashString@@@std@@@std@@@std@@QBEXABV12@@Z PROC ; std::_Vector_const_iterator<std::_Vector_val<ioHashString,std::allocator<ioHashString> > >::_Compat, COMDAT
; _this$ = ecx

; 253  : 		}

  00000	c2 04 00	 ret	 4
?_Compat@?$_Vector_const_iterator@V?$_Vector_val@VioHashString@@V?$allocator@VioHashString@@@std@@@std@@@std@@QBEXABV12@@Z ENDP ; std::_Vector_const_iterator<std::_Vector_val<ioHashString,std::allocator<ioHashString> > >::_Compat
_TEXT	ENDS
PUBLIC	??$_Allocate@VioHashString@@@std@@YAPAVioHashString@@IPAV1@@Z ; std::_Allocate<ioHashString>
; Function compile flags: /Ogsp
; File c:\program files (x86)\microsoft visual studio 10.0\vc\include\xmemory
;	COMDAT ??$_Allocate@VioHashString@@@std@@YAPAVioHashString@@IPAV1@@Z
_TEXT	SEGMENT
$T554477 = -12						; size = 12
$T554481 = 8						; size = 4
__Count$ = 8						; size = 4
___formal$ = 12						; size = 4
??$_Allocate@VioHashString@@@std@@YAPAVioHashString@@IPAV1@@Z PROC ; std::_Allocate<ioHashString>, COMDAT

; 30   : 	{	// allocate storage for _Count elements of type _Ty

  00000	55		 push	 ebp
  00001	8b ec		 mov	 ebp, esp

; 31   : 	void *_Ptr = 0;
; 32   : 
; 33   : 	if (_Count <= 0)

  00003	8b 4d 08	 mov	 ecx, DWORD PTR __Count$[ebp]
  00006	83 ec 0c	 sub	 esp, 12			; 0000000cH
  00009	33 c0		 xor	 eax, eax
  0000b	85 c9		 test	 ecx, ecx

; 34   : 		_Count = 0;
; 35   : 	else if (((_SIZT)(-1) / sizeof (_Ty) < _Count)

  0000d	74 3c		 je	 SHORT $LN5@Allocate@2

; 36   : 		|| (_Ptr = ::operator new(_Count * sizeof (_Ty))) == 0)

  0000f	81 f9 ff ff ff
	0f		 cmp	 ecx, 268435455		; 0fffffffH
  00015	77 0e		 ja	 SHORT $LN1@Allocate@2
  00017	c1 e1 04	 shl	 ecx, 4
  0001a	51		 push	 ecx
  0001b	e8 00 00 00 00	 call	 ??2@YAPAXI@Z		; operator new
  00020	59		 pop	 ecx
  00021	85 c0		 test	 eax, eax

; 38   : 
; 39   : 	return ((_Ty _FARQ *)_Ptr);

  00023	75 26		 jne	 SHORT $LN5@Allocate@2
$LN1@Allocate@2:

; 37   : 		_THROW_NCEE(bad_alloc, 0);

  00025	83 65 08 00	 and	 DWORD PTR $T554481[ebp], 0
  00029	8d 45 08	 lea	 eax, DWORD PTR $T554481[ebp]
  0002c	50		 push	 eax
  0002d	8d 4d f4	 lea	 ecx, DWORD PTR $T554477[ebp]
  00030	ff 15 00 00 00
	00		 call	 DWORD PTR __imp_??0exception@std@@QAE@ABQBD@Z
  00036	68 00 00 00 00	 push	 OFFSET __TI2?AVbad_alloc@std@@
  0003b	8d 45 f4	 lea	 eax, DWORD PTR $T554477[ebp]
  0003e	50		 push	 eax
  0003f	c7 45 f4 00 00
	00 00		 mov	 DWORD PTR $T554477[ebp], OFFSET ??_7bad_alloc@std@@6B@
  00046	e8 00 00 00 00	 call	 __CxxThrowException@8
$LN10@Allocate@2:
$LN5@Allocate@2:

; 40   : 	}

  0004b	c9		 leave
  0004c	c3		 ret	 0
$LN9@Allocate@2:
??$_Allocate@VioHashString@@@std@@YAPAVioHashString@@IPAV1@@Z ENDP ; std::_Allocate<ioHashString>
_TEXT	ENDS
EXTRN	__imp_??0exception@std@@QAE@ABV01@@Z:PROC
; Function compile flags: /Ogsp
;	COMDAT ??0bad_alloc@std@@QAE@ABV01@@Z
_TEXT	SEGMENT
___that$ = 8						; size = 4
??0bad_alloc@std@@QAE@ABV01@@Z PROC			; std::bad_alloc::bad_alloc, COMDAT
; _this$ = ecx
  00000	55		 push	 ebp
  00001	8b ec		 mov	 ebp, esp
  00003	56		 push	 esi
  00004	ff 75 08	 push	 DWORD PTR ___that$[ebp]
  00007	8b f1		 mov	 esi, ecx
  00009	ff 15 00 00 00
	00		 call	 DWORD PTR __imp_??0exception@std@@QAE@ABV01@@Z
  0000f	c7 06 00 00 00
	00		 mov	 DWORD PTR [esi], OFFSET ??_7bad_alloc@std@@6B@
  00015	8b c6		 mov	 eax, esi
  00017	5e		 pop	 esi
  00018	5d		 pop	 ebp
  00019	c2 04 00	 ret	 4
??0bad_alloc@std@@QAE@ABV01@@Z ENDP			; std::bad_alloc::bad_alloc
_TEXT	ENDS
PUBLIC	??$forward@ABVioHashString@@@std@@YAABVioHashString@@ABV1@@Z ; std::forward<ioHashString const &>
; Function compile flags: /Ogsp
; File c:\program files (x86)\microsoft visual studio 10.0\vc\include\utility
;	COMDAT ??$forward@ABVioHashString@@@std@@YAABVioHashString@@ABV1@@Z
_TEXT	SEGMENT
__Arg$ = 8						; size = 4
??$forward@ABVioHashString@@@std@@YAABVioHashString@@ABV1@@Z PROC ; std::forward<ioHashString const &>, COMDAT

; 78   : 	{	// forward _Arg, given explicitly specified type parameter

  00000	55		 push	 ebp
  00001	8b ec		 mov	 ebp, esp

; 79   : 	return ((_Ty&&)_Arg);

  00003	8b 45 08	 mov	 eax, DWORD PTR __Arg$[ebp]

; 80   : 	}

  00006	5d		 pop	 ebp
  00007	c3		 ret	 0
??$forward@ABVioHashString@@@std@@YAABVioHashString@@ABV1@@Z ENDP ; std::forward<ioHashString const &>
_TEXT	ENDS
PUBLIC	??$_Ptr_cat@VioHashString@@V1@@std@@YA?AU_Nonscalar_ptr_iterator_tag@0@PAVioHashString@@0@Z ; std::_Ptr_cat<ioHashString,ioHashString>
; Function compile flags: /Ogsp
; File c:\program files (x86)\microsoft visual studio 10.0\vc\include\xutility
;	COMDAT ??$_Ptr_cat@VioHashString@@V1@@std@@YA?AU_Nonscalar_ptr_iterator_tag@0@PAVioHashString@@0@Z
_TEXT	SEGMENT
__Cat$ = -1						; size = 1
___formal$ = 8						; size = 4
___formal$ = 12						; size = 4
??$_Ptr_cat@VioHashString@@V1@@std@@YA?AU_Nonscalar_ptr_iterator_tag@0@PAVioHashString@@0@Z PROC ; std::_Ptr_cat<ioHashString,ioHashString>, COMDAT

; 516  : 	{	// return pointer category from pointers

  00000	55		 push	 ebp
  00001	8b ec		 mov	 ebp, esp
  00003	51		 push	 ecx

; 517  : 	typename _Ptr_cat_helper<_Elem1, _Elem2>::_Type _Cat;
; 518  : 	return (_Cat);

  00004	8a 45 ff	 mov	 al, BYTE PTR __Cat$[ebp]

; 519  : 	}

  00007	c9		 leave
  00008	c3		 ret	 0
??$_Ptr_cat@VioHashString@@V1@@std@@YA?AU_Nonscalar_ptr_iterator_tag@0@PAVioHashString@@0@Z ENDP ; std::_Ptr_cat<ioHashString,ioHashString>
_TEXT	ENDS
PUBLIC	??$_Ptr_cat@PAVioDummyChar@@PAV1@@std@@YA?AU_Scalar_ptr_iterator_tag@0@PAPAVioDummyChar@@0@Z ; std::_Ptr_cat<ioDummyChar *,ioDummyChar *>
; Function compile flags: /Ogsp
;	COMDAT ??$_Ptr_cat@PAVioDummyChar@@PAV1@@std@@YA?AU_Scalar_ptr_iterator_tag@0@PAPAVioDummyChar@@0@Z
_TEXT	SEGMENT
__Cat$ = -1						; size = 1
___formal$ = 8						; size = 4
___formal$ = 12						; size = 4
??$_Ptr_cat@PAVioDummyChar@@PAV1@@std@@YA?AU_Scalar_ptr_iterator_tag@0@PAPAVioDummyChar@@0@Z PROC ; std::_Ptr_cat<ioDummyChar *,ioDummyChar *>, COMDAT

; 516  : 	{	// return pointer category from pointers

  00000	55		 push	 ebp
  00001	8b ec		 mov	 ebp, esp
  00003	51		 push	 ecx

; 517  : 	typename _Ptr_cat_helper<_Elem1, _Elem2>::_Type _Cat;
; 518  : 	return (_Cat);

  00004	8a 45 ff	 mov	 al, BYTE PTR __Cat$[ebp]

; 519  : 	}

  00007	c9		 leave
  00008	c3		 ret	 0
??$_Ptr_cat@PAVioDummyChar@@PAV1@@std@@YA?AU_Scalar_ptr_iterator_tag@0@PAPAVioDummyChar@@0@Z ENDP ; std::_Ptr_cat<ioDummyChar *,ioDummyChar *>
_TEXT	ENDS
PUBLIC	??$_Destroy_range@V?$allocator@PAVioDummyChar@@@std@@@std@@YAXPAPAVioDummyChar@@0AAV?$allocator@PAVioDummyChar@@@0@U_Scalar_ptr_iterator_tag@0@@Z ; std::_Destroy_range<std::allocator<ioDummyChar *> >
; Function compile flags: /Ogsp
; File c:\program files (x86)\microsoft visual studio 10.0\vc\include\xmemory
;	COMDAT ??$_Destroy_range@V?$allocator@PAVioDummyChar@@@std@@@std@@YAXPAPAVioDummyChar@@0AAV?$allocator@PAVioDummyChar@@@0@U_Scalar_ptr_iterator_tag@0@@Z
_TEXT	SEGMENT
__First$ = 8						; size = 4
__Last$ = 12						; size = 4
__Al$ = 16						; size = 4
___formal$ = 20						; size = 1
??$_Destroy_range@V?$allocator@PAVioDummyChar@@@std@@@std@@YAXPAPAVioDummyChar@@0AAV?$allocator@PAVioDummyChar@@@0@U_Scalar_ptr_iterator_tag@0@@Z PROC ; std::_Destroy_range<std::allocator<ioDummyChar *> >, COMDAT

; 105  : 	}

  00000	c3		 ret	 0
??$_Destroy_range@V?$allocator@PAVioDummyChar@@@std@@@std@@YAXPAPAVioDummyChar@@0AAV?$allocator@PAVioDummyChar@@@0@U_Scalar_ptr_iterator_tag@0@@Z ENDP ; std::_Destroy_range<std::allocator<ioDummyChar *> >
_TEXT	ENDS
PUBLIC	??$_Ptr_cat@V?$_Vector_const_iterator@V?$_Vector_val@VioHashString@@V?$allocator@VioHashString@@@std@@@std@@@std@@PAVioHashString@@@std@@YA?AU_Nonscalar_ptr_iterator_tag@0@AAV?$_Vector_const_iterator@V?$_Vector_val@VioHashString@@V?$allocator@VioHashString@@@std@@@std@@@0@AAPAVioHashString@@@Z ; std::_Ptr_cat<std::_Vector_const_iterator<std::_Vector_val<ioHashString,std::allocator<ioHashString> > >,ioHashString *>
; Function compile flags: /Ogsp
; File c:\program files (x86)\microsoft visual studio 10.0\vc\include\xutility
;	COMDAT ??$_Ptr_cat@V?$_Vector_const_iterator@V?$_Vector_val@VioHashString@@V?$allocator@VioHashString@@@std@@@std@@@std@@PAVioHashString@@@std@@YA?AU_Nonscalar_ptr_iterator_tag@0@AAV?$_Vector_const_iterator@V?$_Vector_val@VioHashString@@V?$allocator@VioHashString@@@std@@@std@@@0@AAPAVioHashString@@@Z
_TEXT	SEGMENT
__Cat$ = -1						; size = 1
___formal$ = 8						; size = 4
___formal$ = 12						; size = 4
??$_Ptr_cat@V?$_Vector_const_iterator@V?$_Vector_val@VioHashString@@V?$allocator@VioHashString@@@std@@@std@@@std@@PAVioHashString@@@std@@YA?AU_Nonscalar_ptr_iterator_tag@0@AAV?$_Vector_const_iterator@V?$_Vector_val@VioHashString@@V?$allocator@VioHashString@@@std@@@std@@@0@AAPAVioHashString@@@Z PROC ; std::_Ptr_cat<std::_Vector_const_iterator<std::_Vector_val<ioHashString,std::allocator<ioHashString> > >,ioHashString *>, COMDAT

; 485  : 	{	// return pointer category from arbitrary arguments

  00000	55		 push	 ebp
  00001	8b ec		 mov	 ebp, esp
  00003	51		 push	 ecx

; 486  : 	_Nonscalar_ptr_iterator_tag _Cat;
; 487  : 	return (_Cat);

  00004	8a 45 ff	 mov	 al, BYTE PTR __Cat$[ebp]

; 488  : 	}

  00007	c9		 leave
  00008	c3		 ret	 0
??$_Ptr_cat@V?$_Vector_const_iterator@V?$_Vector_val@VioHashString@@V?$allocator@VioHashString@@@std@@@std@@@std@@PAVioHashString@@@std@@YA?AU_Nonscalar_ptr_iterator_tag@0@AAV?$_Vector_const_iterator@V?$_Vector_val@VioHashString@@V?$allocator@VioHashString@@@std@@@std@@@0@AAPAVioHashString@@@Z ENDP ; std::_Ptr_cat<std::_Vector_const_iterator<std::_Vector_val<ioHashString,std::allocator<ioHashString> > >,ioHashString *>
_TEXT	ENDS
PUBLIC	??D?$_Vector_const_iterator@V?$_Vector_val@VioHashString@@V?$allocator@VioHashString@@@std@@@std@@@std@@QBEABVioHashString@@XZ ; std::_Vector_const_iterator<std::_Vector_val<ioHashString,std::allocator<ioHashString> > >::operator*
; Function compile flags: /Ogsp
; File c:\program files (x86)\microsoft visual studio 10.0\vc\include\vector
;	COMDAT ??D?$_Vector_const_iterator@V?$_Vector_val@VioHashString@@V?$allocator@VioHashString@@@std@@@std@@@std@@QBEABVioHashString@@XZ
_TEXT	SEGMENT
??D?$_Vector_const_iterator@V?$_Vector_val@VioHashString@@V?$allocator@VioHashString@@@std@@@std@@@std@@QBEABVioHashString@@XZ PROC ; std::_Vector_const_iterator<std::_Vector_val<ioHashString,std::allocator<ioHashString> > >::operator*, COMDAT
; _this$ = ecx

; 64   :  #if _ITERATOR_DEBUG_LEVEL == 2
; 65   : 		if (this->_Getcont() == 0
; 66   : 			|| this->_Ptr == 0
; 67   : 			|| this->_Ptr < ((_Myvec *)this->_Getcont())->_Myfirst
; 68   : 			|| ((_Myvec *)this->_Getcont())->_Mylast <= this->_Ptr)
; 69   : 			{	// report error
; 70   : 			_DEBUG_ERROR("vector iterator not dereferencable");
; 71   : 			_SCL_SECURE_OUT_OF_RANGE;
; 72   : 			}
; 73   : 
; 74   :  #elif _ITERATOR_DEBUG_LEVEL == 1
; 75   : 		_SCL_SECURE_VALIDATE(this->_Getcont() != 0);
; 76   : 		_SCL_SECURE_VALIDATE_RANGE(
; 77   : 			this->_Ptr != 0
; 78   : 			&& ((_Myvec *)this->_Getcont())->_Myfirst <= this->_Ptr
; 79   : 			&& this->_Ptr < ((_Myvec *)this->_Getcont())->_Mylast);
; 80   :  #endif /* _ITERATOR_DEBUG_LEVEL */
; 81   : 
; 82   : 		__analysis_assume(this->_Ptr != 0);
; 83   : 
; 84   : 		return (*this->_Ptr);

  00000	8b 01		 mov	 eax, DWORD PTR [ecx]

; 85   : 		}

  00002	c3		 ret	 0
??D?$_Vector_const_iterator@V?$_Vector_val@VioHashString@@V?$allocator@VioHashString@@@std@@@std@@@std@@QBEABVioHashString@@XZ ENDP ; std::_Vector_const_iterator<std::_Vector_val<ioHashString,std::allocator<ioHashString> > >::operator*
_TEXT	ENDS
PUBLIC	??E?$_Vector_const_iterator@V?$_Vector_val@VioHashString@@V?$allocator@VioHashString@@@std@@@std@@@std@@QAEAAV01@XZ ; std::_Vector_const_iterator<std::_Vector_val<ioHashString,std::allocator<ioHashString> > >::operator++
; Function compile flags: /Ogsp
;	COMDAT ??E?$_Vector_const_iterator@V?$_Vector_val@VioHashString@@V?$allocator@VioHashString@@@std@@@std@@@std@@QAEAAV01@XZ
_TEXT	SEGMENT
??E?$_Vector_const_iterator@V?$_Vector_val@VioHashString@@V?$allocator@VioHashString@@@std@@@std@@@std@@QAEAAV01@XZ PROC ; std::_Vector_const_iterator<std::_Vector_val<ioHashString,std::allocator<ioHashString> > >::operator++, COMDAT
; _this$ = ecx

; 93   : 		{	// preincrement

  00000	8b c1		 mov	 eax, ecx

; 94   :  #if _ITERATOR_DEBUG_LEVEL == 2
; 95   : 		if (this->_Getcont() == 0
; 96   : 			|| this->_Ptr == 0
; 97   : 			|| ((_Myvec *)this->_Getcont())->_Mylast <= this->_Ptr)
; 98   : 			{	// report error
; 99   : 			_DEBUG_ERROR("vector iterator not incrementable");
; 100  : 			_SCL_SECURE_OUT_OF_RANGE;
; 101  : 			}
; 102  : 
; 103  :  #elif _ITERATOR_DEBUG_LEVEL == 1
; 104  : 		_SCL_SECURE_VALIDATE(this->_Getcont() != 0);
; 105  : 		_SCL_SECURE_VALIDATE_RANGE(
; 106  : 			this->_Ptr != 0
; 107  : 			&& this->_Ptr < ((_Myvec *)this->_Getcont())->_Mylast);
; 108  :  #endif /* _ITERATOR_DEBUG_LEVEL */
; 109  : 
; 110  : 		++this->_Ptr;

  00002	83 00 10	 add	 DWORD PTR [eax], 16	; 00000010H

; 111  : 		return (*this);
; 112  : 		}

  00005	c3		 ret	 0
??E?$_Vector_const_iterator@V?$_Vector_val@VioHashString@@V?$allocator@VioHashString@@@std@@@std@@@std@@QAEAAV01@XZ ENDP ; std::_Vector_const_iterator<std::_Vector_val<ioHashString,std::allocator<ioHashString> > >::operator++
_TEXT	ENDS
PUBLIC	??D?$_Vector_const_iterator@V?$_Vector_val@PAVioDummyChar@@V?$allocator@PAVioDummyChar@@@std@@@std@@@std@@QBEABQAVioDummyChar@@XZ ; std::_Vector_const_iterator<std::_Vector_val<ioDummyChar *,std::allocator<ioDummyChar *> > >::operator*
; Function compile flags: /Ogsp
;	COMDAT ??D?$_Vector_const_iterator@V?$_Vector_val@PAVioDummyChar@@V?$allocator@PAVioDummyChar@@@std@@@std@@@std@@QBEABQAVioDummyChar@@XZ
_TEXT	SEGMENT
??D?$_Vector_const_iterator@V?$_Vector_val@PAVioDummyChar@@V?$allocator@PAVioDummyChar@@@std@@@std@@@std@@QBEABQAVioDummyChar@@XZ PROC ; std::_Vector_const_iterator<std::_Vector_val<ioDummyChar *,std::allocator<ioDummyChar *> > >::operator*, COMDAT
; _this$ = ecx

; 64   :  #if _ITERATOR_DEBUG_LEVEL == 2
; 65   : 		if (this->_Getcont() == 0
; 66   : 			|| this->_Ptr == 0
; 67   : 			|| this->_Ptr < ((_Myvec *)this->_Getcont())->_Myfirst
; 68   : 			|| ((_Myvec *)this->_Getcont())->_Mylast <= this->_Ptr)
; 69   : 			{	// report error
; 70   : 			_DEBUG_ERROR("vector iterator not dereferencable");
; 71   : 			_SCL_SECURE_OUT_OF_RANGE;
; 72   : 			}
; 73   : 
; 74   :  #elif _ITERATOR_DEBUG_LEVEL == 1
; 75   : 		_SCL_SECURE_VALIDATE(this->_Getcont() != 0);
; 76   : 		_SCL_SECURE_VALIDATE_RANGE(
; 77   : 			this->_Ptr != 0
; 78   : 			&& ((_Myvec *)this->_Getcont())->_Myfirst <= this->_Ptr
; 79   : 			&& this->_Ptr < ((_Myvec *)this->_Getcont())->_Mylast);
; 80   :  #endif /* _ITERATOR_DEBUG_LEVEL */
; 81   : 
; 82   : 		__analysis_assume(this->_Ptr != 0);
; 83   : 
; 84   : 		return (*this->_Ptr);

  00000	8b 01		 mov	 eax, DWORD PTR [ecx]

; 85   : 		}

  00002	c3		 ret	 0
??D?$_Vector_const_iterator@V?$_Vector_val@PAVioDummyChar@@V?$allocator@PAVioDummyChar@@@std@@@std@@@std@@QBEABQAVioDummyChar@@XZ ENDP ; std::_Vector_const_iterator<std::_Vector_val<ioDummyChar *,std::allocator<ioDummyChar *> > >::operator*
_TEXT	ENDS
PUBLIC	??E?$_Vector_const_iterator@V?$_Vector_val@PAVioDummyChar@@V?$allocator@PAVioDummyChar@@@std@@@std@@@std@@QAEAAV01@XZ ; std::_Vector_const_iterator<std::_Vector_val<ioDummyChar *,std::allocator<ioDummyChar *> > >::operator++
; Function compile flags: /Ogsp
;	COMDAT ??E?$_Vector_const_iterator@V?$_Vector_val@PAVioDummyChar@@V?$allocator@PAVioDummyChar@@@std@@@std@@@std@@QAEAAV01@XZ
_TEXT	SEGMENT
??E?$_Vector_const_iterator@V?$_Vector_val@PAVioDummyChar@@V?$allocator@PAVioDummyChar@@@std@@@std@@@std@@QAEAAV01@XZ PROC ; std::_Vector_const_iterator<std::_Vector_val<ioDummyChar *,std::allocator<ioDummyChar *> > >::operator++, COMDAT
; _this$ = ecx

; 93   : 		{	// preincrement

  00000	8b c1		 mov	 eax, ecx

; 94   :  #if _ITERATOR_DEBUG_LEVEL == 2
; 95   : 		if (this->_Getcont() == 0
; 96   : 			|| this->_Ptr == 0
; 97   : 			|| ((_Myvec *)this->_Getcont())->_Mylast <= this->_Ptr)
; 98   : 			{	// report error
; 99   : 			_DEBUG_ERROR("vector iterator not incrementable");
; 100  : 			_SCL_SECURE_OUT_OF_RANGE;
; 101  : 			}
; 102  : 
; 103  :  #elif _ITERATOR_DEBUG_LEVEL == 1
; 104  : 		_SCL_SECURE_VALIDATE(this->_Getcont() != 0);
; 105  : 		_SCL_SECURE_VALIDATE_RANGE(
; 106  : 			this->_Ptr != 0
; 107  : 			&& this->_Ptr < ((_Myvec *)this->_Getcont())->_Mylast);
; 108  :  #endif /* _ITERATOR_DEBUG_LEVEL */
; 109  : 
; 110  : 		++this->_Ptr;

  00002	83 00 04	 add	 DWORD PTR [eax], 4

; 111  : 		return (*this);
; 112  : 		}

  00005	c3		 ret	 0
??E?$_Vector_const_iterator@V?$_Vector_val@PAVioDummyChar@@V?$allocator@PAVioDummyChar@@@std@@@std@@@std@@QAEAAV01@XZ ENDP ; std::_Vector_const_iterator<std::_Vector_val<ioDummyChar *,std::allocator<ioDummyChar *> > >::operator++
_TEXT	ENDS
PUBLIC	?_Compat@?$_Vector_const_iterator@V?$_Vector_val@PAVioDummyChar@@V?$allocator@PAVioDummyChar@@@std@@@std@@@std@@QBEXABV12@@Z ; std::_Vector_const_iterator<std::_Vector_val<ioDummyChar *,std::allocator<ioDummyChar *> > >::_Compat
; Function compile flags: /Ogsp
;	COMDAT ?_Compat@?$_Vector_const_iterator@V?$_Vector_val@PAVioDummyChar@@V?$allocator@PAVioDummyChar@@@std@@@std@@@std@@QBEXABV12@@Z
_TEXT	SEGMENT
___formal$ = 8						; size = 4
?_Compat@?$_Vector_const_iterator@V?$_Vector_val@PAVioDummyChar@@V?$allocator@PAVioDummyChar@@@std@@@std@@@std@@QBEXABV12@@Z PROC ; std::_Vector_const_iterator<std::_Vector_val<ioDummyChar *,std::allocator<ioDummyChar *> > >::_Compat, COMDAT
; _this$ = ecx

; 253  : 		}

  00000	c2 04 00	 ret	 4
?_Compat@?$_Vector_const_iterator@V?$_Vector_val@PAVioDummyChar@@V?$allocator@PAVioDummyChar@@@std@@@std@@@std@@QBEXABV12@@Z ENDP ; std::_Vector_const_iterator<std::_Vector_val<ioDummyChar *,std::allocator<ioDummyChar *> > >::_Compat
_TEXT	ENDS
PUBLIC	??_GioHashString@@QAEPAXI@Z			; ioHashString::`scalar deleting destructor'
; Function compile flags: /Ogsp
;	COMDAT ??_GioHashString@@QAEPAXI@Z
_TEXT	SEGMENT
___flags$ = 8						; size = 4
??_GioHashString@@QAEPAXI@Z PROC			; ioHashString::`scalar deleting destructor', COMDAT
; _this$ = ecx
  00000	55		 push	 ebp
  00001	8b ec		 mov	 ebp, esp
  00003	56		 push	 esi
  00004	8b f1		 mov	 esi, ecx
  00006	ff 15 00 00 00
	00		 call	 DWORD PTR __imp_??1ioHashString@@QAE@XZ
  0000c	f6 45 08 01	 test	 BYTE PTR ___flags$[ebp], 1
  00010	74 07		 je	 SHORT $LN1@scalar@4
  00012	56		 push	 esi
  00013	e8 00 00 00 00	 call	 ??3@YAXPAX@Z		; operator delete
  00018	59		 pop	 ecx
$LN1@scalar@4:
  00019	8b c6		 mov	 eax, esi
  0001b	5e		 pop	 esi
  0001c	5d		 pop	 ebp
  0001d	c2 04 00	 ret	 4
??_GioHashString@@QAEPAXI@Z ENDP			; ioHashString::`scalar deleting destructor'
_TEXT	ENDS
PUBLIC	??$_Construct@VioHashString@@ABV1@@std@@YAXPAVioHashString@@ABV1@@Z ; std::_Construct<ioHashString,ioHashString const &>
;	COMDAT xdata$x
; File c:\program files (x86)\microsoft visual studio 10.0\vc\include\utility
xdata$x	SEGMENT
__unwindtable$??$_Construct@VioHashString@@ABV1@@std@@YAXPAVioHashString@@ABV1@@Z DD 0ffffffffH
	DD	FLAT:__unwindfunclet$??$_Construct@VioHashString@@ABV1@@std@@YAXPAVioHashString@@ABV1@@Z$0
__ehfuncinfo$??$_Construct@VioHashString@@ABV1@@std@@YAXPAVioHashString@@ABV1@@Z DD 019930522H
	DD	01H
	DD	FLAT:__unwindtable$??$_Construct@VioHashString@@ABV1@@std@@YAXPAVioHashString@@ABV1@@Z
	DD	2 DUP(00H)
	DD	2 DUP(00H)
	DD	00H
	DD	01H
; Function compile flags: /Ogsp
; File c:\program files (x86)\microsoft visual studio 10.0\vc\include\xmemory
xdata$x	ENDS
;	COMDAT ??$_Construct@VioHashString@@ABV1@@std@@YAXPAVioHashString@@ABV1@@Z
_TEXT	SEGMENT
$T554518 = -16						; size = 4
__$EHRec$ = -12						; size = 12
__Vptr$ = 8						; size = 4
__Ptr$ = 8						; size = 4
__Val$ = 12						; size = 4
??$_Construct@VioHashString@@ABV1@@std@@YAXPAVioHashString@@ABV1@@Z PROC ; std::_Construct<ioHashString,ioHashString const &>, COMDAT

; 46   : 	{	// construct object at _Ptr with value _Val

  00000	6a 04		 push	 4
  00002	b8 00 00 00 00	 mov	 eax, __ehhandler$??$_Construct@VioHashString@@ABV1@@std@@YAXPAVioHashString@@ABV1@@Z
  00007	e8 00 00 00 00	 call	 __EH_prolog3

; 47   : 	void _FARQ *_Vptr = _Ptr;

  0000c	8b 4d 08	 mov	 ecx, DWORD PTR __Ptr$[ebp]
  0000f	89 4d 08	 mov	 DWORD PTR __Vptr$[ebp], ecx

; 48   : 	::new (_Vptr) _Ty1(_STD forward<_Ty2>(_Val));

  00012	89 4d f0	 mov	 DWORD PTR $T554518[ebp], ecx
  00015	83 65 fc 00	 and	 DWORD PTR __$EHRec$[ebp+8], 0
  00019	85 c9		 test	 ecx, ecx
  0001b	74 09		 je	 SHORT $LN3@Construct
  0001d	ff 75 0c	 push	 DWORD PTR __Val$[ebp]
  00020	ff 15 00 00 00
	00		 call	 DWORD PTR __imp_??0ioHashString@@QAE@ABV0@@Z
$LN3@Construct:

; 49   : 	}

  00026	e8 00 00 00 00	 call	 __EH_epilog3
  0002b	c3		 ret	 0
_TEXT	ENDS
;	COMDAT text$x
text$x	SEGMENT
__unwindfunclet$??$_Construct@VioHashString@@ABV1@@std@@YAXPAVioHashString@@ABV1@@Z$0:
  00000	ff 75 08	 push	 DWORD PTR __Vptr$[ebp]
  00003	ff 75 f0	 push	 DWORD PTR $T554518[ebp]
  00006	e8 00 00 00 00	 call	 ??3@YAXPAX0@Z		; operator delete
  0000b	59		 pop	 ecx
  0000c	59		 pop	 ecx
  0000d	c3		 ret	 0
__ehhandler$??$_Construct@VioHashString@@ABV1@@std@@YAXPAVioHashString@@ABV1@@Z:
  0000e	8b 54 24 08	 mov	 edx, DWORD PTR [esp+8]
  00012	8d 42 0c	 lea	 eax, DWORD PTR [edx+12]
  00015	8b 4a ec	 mov	 ecx, DWORD PTR [edx-20]
  00018	33 c8		 xor	 ecx, eax
  0001a	e8 00 00 00 00	 call	 @__security_check_cookie@4
  0001f	b8 00 00 00 00	 mov	 eax, OFFSET __ehfuncinfo$??$_Construct@VioHashString@@ABV1@@std@@YAXPAVioHashString@@ABV1@@Z
  00024	e9 00 00 00 00	 jmp	 ___CxxFrameHandler3
text$x	ENDS
??$_Construct@VioHashString@@ABV1@@std@@YAXPAVioHashString@@ABV1@@Z ENDP ; std::_Construct<ioHashString,ioHashString const &>
PUBLIC	?ToDummyGradeTurret@@YAPAVioDummyGradeTurret@@PAVioDummyChar@@@Z ; ToDummyGradeTurret
; Function compile flags: /Ogsp
; File d:\lost saga for developer\youtube\tutorial\source\src\lsclient\iodummygradeturret.h
;	COMDAT ?ToDummyGradeTurret@@YAPAVioDummyGradeTurret@@PAVioDummyChar@@@Z
_TEXT	SEGMENT
_pDummy$ = 8						; size = 4
?ToDummyGradeTurret@@YAPAVioDummyGradeTurret@@PAVioDummyChar@@@Z PROC ; ToDummyGradeTurret, COMDAT

; 199  : {

  00000	55		 push	 ebp
  00001	8b ec		 mov	 ebp, esp

; 200  : 	if( !pDummy || pDummy->GetType() != DCT_GRADE_TURRET )

  00003	8b 45 08	 mov	 eax, DWORD PTR _pDummy$[ebp]
  00006	85 c0		 test	 eax, eax
  00008	74 09		 je	 SHORT $LN1@ToDummyGra
  0000a	83 b8 2c 02 00
	00 34		 cmp	 DWORD PTR [eax+556], 52	; 00000034H

; 202  : 
; 203  : 	return static_cast< ioDummyGradeTurret* >( pDummy );

  00011	74 02		 je	 SHORT $LN3@ToDummyGra
$LN1@ToDummyGra:

; 201  : 		return NULL;

  00013	33 c0		 xor	 eax, eax
$LN3@ToDummyGra:

; 204  : }

  00015	5d		 pop	 ebp
  00016	c3		 ret	 0
?ToDummyGradeTurret@@YAPAVioDummyGradeTurret@@PAVioDummyChar@@@Z ENDP ; ToDummyGradeTurret
_TEXT	ENDS
PUBLIC	?GetDummyGroup@ioEngineerItem@@QAEPAVioDummyGroup@@PAVioBaseChar@@@Z ; ioEngineerItem::GetDummyGroup
EXTRN	?AddDummyGroup@ioDummyCharManager@@QAEPAVioDummyGroup@@ABVioHashString@@0@Z:PROC ; ioDummyCharManager::AddDummyGroup
EXTRN	?GetDummyGroup@ioDummyCharManager@@QAEPAVioDummyGroup@@ABVioHashString@@0@Z:PROC ; ioDummyCharManager::GetDummyGroup
EXTRN	?GetSingleton@ioDummyCharManager@@SAAAV1@XZ:PROC ; ioDummyCharManager::GetSingleton
; Function compile flags: /Ogsp
; File d:\lost saga for developer\youtube\tutorial\source\src\lsclient\ioengineeritem.cpp
;	COMDAT ?GetDummyGroup@ioEngineerItem@@QAEPAVioDummyGroup@@PAVioBaseChar@@@Z
_TEXT	SEGMENT
_pOwner$ = 8						; size = 4
?GetDummyGroup@ioEngineerItem@@QAEPAVioDummyGroup@@PAVioBaseChar@@@Z PROC ; ioEngineerItem::GetDummyGroup, COMDAT
; _this$ = ecx

; 256  : {

  00000	55		 push	 ebp
  00001	8b ec		 mov	 ebp, esp
  00003	56		 push	 esi
  00004	57		 push	 edi

; 257  : 	ioDummyGroup* pDummyGroup = g_DummyCharMgr.GetDummyGroup( pOwner->GetCharName(), GetName() );

  00005	8b 7d 08	 mov	 edi, DWORD PTR _pOwner$[ebp]
  00008	8d b1 34 01 00
	00		 lea	 esi, DWORD PTR [ecx+308]
  0000e	81 c7 d4 02 00
	00		 add	 edi, 724		; 000002d4H
  00014	56		 push	 esi
  00015	57		 push	 edi
  00016	e8 00 00 00 00	 call	 ?GetSingleton@ioDummyCharManager@@SAAAV1@XZ ; ioDummyCharManager::GetSingleton
  0001b	8b c8		 mov	 ecx, eax
  0001d	e8 00 00 00 00	 call	 ?GetDummyGroup@ioDummyCharManager@@QAEPAVioDummyGroup@@ABVioHashString@@0@Z ; ioDummyCharManager::GetDummyGroup

; 258  : 	if( !pDummyGroup )

  00022	85 c0		 test	 eax, eax
  00024	75 0e		 jne	 SHORT $LN1@GetDummyGr

; 259  : 		pDummyGroup = g_DummyCharMgr.AddDummyGroup( pOwner->GetCharName(), GetName() );

  00026	56		 push	 esi
  00027	57		 push	 edi
  00028	e8 00 00 00 00	 call	 ?GetSingleton@ioDummyCharManager@@SAAAV1@XZ ; ioDummyCharManager::GetSingleton
  0002d	8b c8		 mov	 ecx, eax
  0002f	e8 00 00 00 00	 call	 ?AddDummyGroup@ioDummyCharManager@@QAEPAVioDummyGroup@@ABVioHashString@@0@Z ; ioDummyCharManager::AddDummyGroup
$LN1@GetDummyGr:
  00034	5f		 pop	 edi
  00035	5e		 pop	 esi

; 260  : 
; 261  : 	return pDummyGroup;
; 262  : }

  00036	5d		 pop	 ebp
  00037	c2 04 00	 ret	 4
?GetDummyGroup@ioEngineerItem@@QAEPAVioDummyGroup@@PAVioBaseChar@@@Z ENDP ; ioEngineerItem::GetDummyGroup
_TEXT	ENDS
PUBLIC	__real@0000000000000000
PUBLIC	__real@bf800000
PUBLIC	_iCurIndex$GSCopy$
PUBLIC	_szName$GSCopy$
PUBLIC	__$ArrayPad$
PUBLIC	?CreateDummyChar@ioEngineerItem@@IAEPAVioDummyChar@@ABVioHashString@@PAVioPlayStage@@PAVioBaseChar@@H@Z ; ioEngineerItem::CreateDummyChar
EXTRN	?CreateDummyChar@ioPlayStage@@QAEPAVioDummyChar@@ABVioHashString@@H0ABUD3DXVECTOR3@@MK_N@Z:PROC ; ioPlayStage::CreateDummyChar
EXTRN	?FindDummyChar@ioDummyCharManager@@QAEPAVioDummyChar@@PAVioBaseChar@@H@Z:PROC ; ioDummyCharManager::FindDummyChar
EXTRN	?GetMapHeight@ioPlayStage@@QAEMMMPBVioGameEntity@@_NM1@Z:PROC ; ioPlayStage::GetMapHeight
EXTRN	__imp_??D@YA?AUD3DXVECTOR3@@ABUD3DXQUATERNION@@ABU0@@Z:PROC
;	COMDAT __real@0000000000000000
; File d:\lost saga for developer\youtube\tutorial\source\src\lsclient\iobasechar.h
CONST	SEGMENT
__real@0000000000000000 DQ 00000000000000000r	; 0
CONST	ENDS
;	COMDAT __real@bf800000
CONST	SEGMENT
__real@bf800000 DD 0bf800000r			; -1
; Function compile flags: /Ogsp
; File d:\lost saga for developer\youtube\tutorial\source\src\lsclient\ioengineeritem.cpp
CONST	ENDS
;	COMDAT ?CreateDummyChar@ioEngineerItem@@IAEPAVioDummyChar@@ABVioHashString@@PAVioPlayStage@@PAVioBaseChar@@H@Z
_TEXT	SEGMENT
_szName$GSCopy$ = -52					; size = 4
_iCurIndex$GSCopy$ = -48				; size = 4
_fHeight$ = -44						; size = 4
_vDir$ = -40						; size = 12
_vPos$ = -28						; size = 12
$T550273 = -16						; size = 12
$T550270 = -16						; size = 12
__$ArrayPad$ = -4					; size = 4
_szName$ = 8						; size = 4
_pStage$ = 12						; size = 4
_pOwner$ = 16						; size = 4
_iCurIndex$ = 20					; size = 4
?CreateDummyChar@ioEngineerItem@@IAEPAVioDummyChar@@ABVioHashString@@PAVioPlayStage@@PAVioBaseChar@@H@Z PROC ; ioEngineerItem::CreateDummyChar, COMDAT
; _this$ = ecx

; 265  : {	

  00000	55		 push	 ebp
  00001	8b ec		 mov	 ebp, esp
  00003	83 ec 34	 sub	 esp, 52			; 00000034H
  00006	a1 00 00 00 00	 mov	 eax, DWORD PTR ___security_cookie
  0000b	33 c5		 xor	 eax, ebp
  0000d	89 45 fc	 mov	 DWORD PTR __$ArrayPad$[ebp], eax
  00010	8b 45 08	 mov	 eax, DWORD PTR _szName$[ebp]

; 266  : 	D3DXVECTOR3 vDir = pOwner->GetTargetRot() * D3DXVECTOR3( 0.0f, 0.0f, -1.0f );

  00013	0f 57 c0	 xorps	 xmm0, xmm0
  00016	53		 push	 ebx
  00017	8b 5d 0c	 mov	 ebx, DWORD PTR _pStage$[ebp]

; 275  : 
; 276  : 	return pStage->CreateDummyChar( szName, iCurIndex, pOwner->GetCharName(), vPos, 0.0f, 0, true );

  0001a	89 45 cc	 mov	 DWORD PTR _szName$GSCopy$[ebp], eax
  0001d	8b 45 14	 mov	 eax, DWORD PTR _iCurIndex$[ebp]
  00020	56		 push	 esi
  00021	8b 75 10	 mov	 esi, DWORD PTR _pOwner$[ebp]
  00024	89 45 d0	 mov	 DWORD PTR _iCurIndex$GSCopy$[ebp], eax
  00027	57		 push	 edi
  00028	8d 45 f0	 lea	 eax, DWORD PTR $T550270[ebp]
  0002b	50		 push	 eax
  0002c	8d 86 a4 06 00
	00		 lea	 eax, DWORD PTR [esi+1700]
  00032	50		 push	 eax
  00033	8d 45 d8	 lea	 eax, DWORD PTR _vDir$[ebp]
  00036	f3 0f 11 45 f0	 movss	 DWORD PTR $T550270[ebp], xmm0
  0003b	f3 0f 11 45 f4	 movss	 DWORD PTR $T550270[ebp+4], xmm0
  00040	f3 0f 10 05 00
	00 00 00	 movss	 xmm0, DWORD PTR __real@bf800000
  00048	50		 push	 eax
  00049	8b f9		 mov	 edi, ecx
  0004b	f3 0f 11 45 f8	 movss	 DWORD PTR $T550270[ebp+8], xmm0
  00050	ff 15 00 00 00
	00		 call	 DWORD PTR __imp_??D@YA?AUD3DXVECTOR3@@ABUD3DXQUATERNION@@ABU0@@Z
  00056	f3 0f 10 87 cc
	19 00 00	 movss	 xmm0, DWORD PTR [edi+6604]
  0005e	f3 0f 10 55 d8	 movss	 xmm2, DWORD PTR _vDir$[ebp]
  00063	8b 06		 mov	 eax, DWORD PTR [esi]
  00065	0f 5a c8	 cvtps2pd xmm1, xmm0
  00068	0f 5a d2	 cvtps2pd xmm2, xmm2
  0006b	f2 0f 59 ca	 mulsd	 xmm1, xmm2
  0006f	66 0f 5a c9	 cvtpd2ps xmm1, xmm1
  00073	f3 0f 11 4d f0	 movss	 DWORD PTR $T550273[ebp], xmm1
  00078	f3 0f 10 4d dc	 movss	 xmm1, DWORD PTR _vDir$[ebp+4]
  0007d	0f 5a c9	 cvtps2pd xmm1, xmm1
  00080	0f 5a d0	 cvtps2pd xmm2, xmm0
  00083	f2 0f 59 ca	 mulsd	 xmm1, xmm2
  00087	66 0f 5a c9	 cvtpd2ps xmm1, xmm1
  0008b	f3 0f 11 4d f4	 movss	 DWORD PTR $T550273[ebp+4], xmm1
  00090	f3 0f 10 4d e0	 movss	 xmm1, DWORD PTR _vDir$[ebp+8]
  00095	0f 5a c0	 cvtps2pd xmm0, xmm0
  00098	0f 5a c9	 cvtps2pd xmm1, xmm1
  0009b	f2 0f 59 c8	 mulsd	 xmm1, xmm0
  0009f	0f 57 c0	 xorps	 xmm0, xmm0
  000a2	66 0f 5a c1	 cvtpd2ps xmm0, xmm1
  000a6	83 c4 0c	 add	 esp, 12			; 0000000cH
  000a9	8b ce		 mov	 ecx, esi
  000ab	f3 0f 11 45 f8	 movss	 DWORD PTR $T550273[ebp+8], xmm0
  000b0	ff 50 70	 call	 DWORD PTR [eax+112]
  000b3	f3 0f 10 4d f4	 movss	 xmm1, DWORD PTR $T550273[ebp+4]
  000b8	f3 0f 10 40 04	 movss	 xmm0, DWORD PTR [eax+4]
  000bd	f3 0f 10 55 f8	 movss	 xmm2, DWORD PTR $T550273[ebp+8]
  000c2	f3 0f 10 5d f0	 movss	 xmm3, DWORD PTR $T550273[ebp]
  000c7	0f 5a c9	 cvtps2pd xmm1, xmm1
  000ca	0f 5a c0	 cvtps2pd xmm0, xmm0
  000cd	f2 0f 58 c1	 addsd	 xmm0, xmm1
  000d1	0f 5a d2	 cvtps2pd xmm2, xmm2
  000d4	33 ff		 xor	 edi, edi
  000d6	57		 push	 edi
  000d7	66 0f 5a c8	 cvtpd2ps xmm1, xmm0
  000db	f3 0f 10 40 08	 movss	 xmm0, DWORD PTR [eax+8]
  000e0	51		 push	 ecx
  000e1	0f 5a c0	 cvtps2pd xmm0, xmm0
  000e4	f2 0f 58 c2	 addsd	 xmm0, xmm2
  000e8	f3 0f 10 10	 movss	 xmm2, DWORD PTR [eax]
  000ec	f3 0f 11 4d e8	 movss	 DWORD PTR _vPos$[ebp+4], xmm1
  000f1	0f 57 c9	 xorps	 xmm1, xmm1
  000f4	f3 0f 11 0c 24	 movss	 DWORD PTR [esp], xmm1
  000f9	6a 01		 push	 1
  000fb	57		 push	 edi
  000fc	51		 push	 ecx
  000fd	51		 push	 ecx
  000fe	0f 5a d2	 cvtps2pd xmm2, xmm2
  00101	66 0f 5a c0	 cvtpd2ps xmm0, xmm0
  00105	0f 5a db	 cvtps2pd xmm3, xmm3
  00108	f2 0f 58 d3	 addsd	 xmm2, xmm3
  0010c	66 0f 5a d2	 cvtpd2ps xmm2, xmm2
  00110	f3 0f 11 44 24
	04		 movss	 DWORD PTR [esp+4], xmm0
  00116	8b cb		 mov	 ecx, ebx
  00118	f3 0f 11 55 e4	 movss	 DWORD PTR _vPos$[ebp], xmm2
  0011d	f3 0f 11 45 ec	 movss	 DWORD PTR _vPos$[ebp+8], xmm0
  00122	f3 0f 11 14 24	 movss	 DWORD PTR [esp], xmm2
  00127	e8 00 00 00 00	 call	 ?GetMapHeight@ioPlayStage@@QAEMMMPBVioGameEntity@@_NM1@Z ; ioPlayStage::GetMapHeight
  0012c	d9 5d d4	 fstp	 DWORD PTR _fHeight$[ebp]

; 267  : 	D3DXVECTOR3 vPos = pOwner->GetWorldPosition() + vDir * m_fTurretSetupOffset;
; 268  : 	float fHeight = pStage->GetMapHeight( vPos.x, vPos.z );
; 269  : 	if( 0.0f < fHeight )

  0012f	d9 ee		 fldz
  00131	d9 45 d4	 fld	 DWORD PTR _fHeight$[ebp]
  00134	df f1		 fcomip	 ST(1)
  00136	dd d8		 fstp	 ST(0)
  00138	76 0a		 jbe	 SHORT $LN2@CreateDumm

; 270  : 		vPos.y = fHeight;

  0013a	f3 0f 10 45 d4	 movss	 xmm0, DWORD PTR _fHeight$[ebp]
  0013f	f3 0f 11 45 e8	 movss	 DWORD PTR _vPos$[ebp+4], xmm0
$LN2@CreateDumm:

; 271  : 
; 272  : 	ioDummyChar *pDummy = g_DummyCharMgr.FindDummyChar( pOwner, iCurIndex );

  00144	ff 75 d0	 push	 DWORD PTR _iCurIndex$GSCopy$[ebp]
  00147	56		 push	 esi
  00148	e8 00 00 00 00	 call	 ?GetSingleton@ioDummyCharManager@@SAAAV1@XZ ; ioDummyCharManager::GetSingleton
  0014d	8b c8		 mov	 ecx, eax
  0014f	e8 00 00 00 00	 call	 ?FindDummyChar@ioDummyCharManager@@QAEPAVioDummyChar@@PAVioBaseChar@@H@Z ; ioDummyCharManager::FindDummyChar

; 273  : 	if( pDummy )

  00154	3b c7		 cmp	 eax, edi
  00156	74 0c		 je	 SHORT $LN1@CreateDumm

; 274  : 		pDummy->SetDieState( false );

  00158	8b 10		 mov	 edx, DWORD PTR [eax]
  0015a	57		 push	 edi
  0015b	57		 push	 edi
  0015c	8b c8		 mov	 ecx, eax
  0015e	ff 92 1c 01 00
	00		 call	 DWORD PTR [edx+284]
$LN1@CreateDumm:

; 275  : 
; 276  : 	return pStage->CreateDummyChar( szName, iCurIndex, pOwner->GetCharName(), vPos, 0.0f, 0, true );

  00164	0f 57 c0	 xorps	 xmm0, xmm0
  00167	6a 01		 push	 1
  00169	57		 push	 edi
  0016a	51		 push	 ecx
  0016b	f3 0f 11 04 24	 movss	 DWORD PTR [esp], xmm0
  00170	8d 45 e4	 lea	 eax, DWORD PTR _vPos$[ebp]
  00173	50		 push	 eax
  00174	81 c6 d4 02 00
	00		 add	 esi, 724		; 000002d4H
  0017a	56		 push	 esi
  0017b	ff 75 d0	 push	 DWORD PTR _iCurIndex$GSCopy$[ebp]
  0017e	8b cb		 mov	 ecx, ebx
  00180	ff 75 cc	 push	 DWORD PTR _szName$GSCopy$[ebp]
  00183	e8 00 00 00 00	 call	 ?CreateDummyChar@ioPlayStage@@QAEPAVioDummyChar@@ABVioHashString@@H0ABUD3DXVECTOR3@@MK_N@Z ; ioPlayStage::CreateDummyChar

; 277  : }

  00188	8b 4d fc	 mov	 ecx, DWORD PTR __$ArrayPad$[ebp]
  0018b	5f		 pop	 edi
  0018c	5e		 pop	 esi
  0018d	33 cd		 xor	 ecx, ebp
  0018f	5b		 pop	 ebx
  00190	e8 00 00 00 00	 call	 @__security_check_cookie@4
  00195	c9		 leave
  00196	c2 10 00	 ret	 16			; 00000010H
?CreateDummyChar@ioEngineerItem@@IAEPAVioDummyChar@@ABVioHashString@@PAVioPlayStage@@PAVioBaseChar@@H@Z ENDP ; ioEngineerItem::CreateDummyChar
_TEXT	ENDS
PUBLIC	?GetGroupDummyInfo@ioEngineerItem@@IAEQBUGroupDummyInfo@@ABVioHashString@@@Z ; ioEngineerItem::GetGroupDummyInfo
EXTRN	__imp_??8ioHashString@@QBE_NABV0@@Z:PROC
; Function compile flags: /Ogsp
;	COMDAT ?GetGroupDummyInfo@ioEngineerItem@@IAEQBUGroupDummyInfo@@ABVioHashString@@@Z
_TEXT	SEGMENT
_szDummyName$ = 8					; size = 4
?GetGroupDummyInfo@ioEngineerItem@@IAEQBUGroupDummyInfo@@ABVioHashString@@@Z PROC ; ioEngineerItem::GetGroupDummyInfo, COMDAT
; _this$ = ecx

; 280  : {

  00000	55		 push	 ebp
  00001	8b ec		 mov	 ebp, esp
  00003	53		 push	 ebx
  00004	56		 push	 esi
  00005	8b f1		 mov	 esi, ecx

; 281  : 	for( int i = 0; i < (int)m_TurrretDummyInfoList.size(); ++i )

  00007	8b 86 a4 19 00
	00		 mov	 eax, DWORD PTR [esi+6564]
  0000d	2b 86 a0 19 00
	00		 sub	 eax, DWORD PTR [esi+6560]
  00013	57		 push	 edi
  00014	6a 14		 push	 20			; 00000014H
  00016	99		 cdq
  00017	59		 pop	 ecx
  00018	f7 f9		 idiv	 ecx
  0001a	33 db		 xor	 ebx, ebx
  0001c	85 c0		 test	 eax, eax
  0001e	7e 31		 jle	 SHORT $LN2@GetGroupDu
  00020	33 ff		 xor	 edi, edi
$LL4@GetGroupDu:

; 282  : 	{
; 283  : 		if( m_TurrretDummyInfoList[i].szDummyName == szDummyName )

  00022	8b 8e a0 19 00
	00		 mov	 ecx, DWORD PTR [esi+6560]
  00028	ff 75 08	 push	 DWORD PTR _szDummyName$[ebp]
  0002b	03 cf		 add	 ecx, edi
  0002d	ff 15 00 00 00
	00		 call	 DWORD PTR __imp_??8ioHashString@@QBE_NABV0@@Z
  00033	84 c0		 test	 al, al
  00035	75 23		 jne	 SHORT $LN14@GetGroupDu

; 281  : 	for( int i = 0; i < (int)m_TurrretDummyInfoList.size(); ++i )

  00037	8b 86 a4 19 00
	00		 mov	 eax, DWORD PTR [esi+6564]
  0003d	2b 86 a0 19 00
	00		 sub	 eax, DWORD PTR [esi+6560]
  00043	6a 14		 push	 20			; 00000014H
  00045	99		 cdq
  00046	59		 pop	 ecx
  00047	f7 f9		 idiv	 ecx
  00049	43		 inc	 ebx
  0004a	83 c7 14	 add	 edi, 20			; 00000014H
  0004d	3b d8		 cmp	 ebx, eax
  0004f	7c d1		 jl	 SHORT $LL4@GetGroupDu
$LN2@GetGroupDu:

; 286  : 		}
; 287  : 	}
; 288  : 
; 289  : 	return NULL;

  00051	33 c0		 xor	 eax, eax
$LN5@GetGroupDu:
  00053	5f		 pop	 edi
  00054	5e		 pop	 esi
  00055	5b		 pop	 ebx

; 290  : }

  00056	5d		 pop	 ebp
  00057	c2 04 00	 ret	 4
$LN14@GetGroupDu:

; 284  : 		{	
; 285  : 			return &m_TurrretDummyInfoList[i];

  0005a	8b c3		 mov	 eax, ebx
  0005c	6b c0 14	 imul	 eax, 20			; 00000014H
  0005f	03 86 a0 19 00
	00		 add	 eax, DWORD PTR [esi+6560]
  00065	eb ec		 jmp	 SHORT $LN5@GetGroupDu
?GetGroupDummyInfo@ioEngineerItem@@IAEQBUGroupDummyInfo@@ABVioHashString@@@Z ENDP ; ioEngineerItem::GetGroupDummyInfo
_TEXT	ENDS
PUBLIC	__real@00000000
PUBLIC	?GetDummyNeedGauge@ioEngineerItem@@IAEMABVioHashString@@@Z ; ioEngineerItem::GetDummyNeedGauge
;	COMDAT __real@00000000
CONST	SEGMENT
__real@00000000 DD 000000000r			; 0
; Function compile flags: /Ogsp
CONST	ENDS
;	COMDAT ?GetDummyNeedGauge@ioEngineerItem@@IAEMABVioHashString@@@Z
_TEXT	SEGMENT
_szDummyName$ = 8					; size = 4
?GetDummyNeedGauge@ioEngineerItem@@IAEMABVioHashString@@@Z PROC ; ioEngineerItem::GetDummyNeedGauge, COMDAT
; _this$ = ecx

; 293  : {

  00000	55		 push	 ebp
  00001	8b ec		 mov	 ebp, esp

; 294  : 	const GroupDummyInfo* const pInfo = GetGroupDummyInfo( szDummyName );

  00003	ff 75 08	 push	 DWORD PTR _szDummyName$[ebp]
  00006	e8 00 00 00 00	 call	 ?GetGroupDummyInfo@ioEngineerItem@@IAEQBUGroupDummyInfo@@ABVioHashString@@@Z ; ioEngineerItem::GetGroupDummyInfo

; 295  : 	if( pInfo )

  0000b	85 c0		 test	 eax, eax
  0000d	74 05		 je	 SHORT $LN1@GetDummyNe

; 296  : 	{
; 297  : 		return pInfo->fNeedGauge;

  0000f	d9 40 10	 fld	 DWORD PTR [eax+16]
  00012	eb 02		 jmp	 SHORT $LN2@GetDummyNe
$LN1@GetDummyNe:

; 298  : 	}
; 299  : 
; 300  : 	return 0.0f;

  00014	d9 ee		 fldz
$LN2@GetDummyNe:

; 301  : }

  00016	5d		 pop	 ebp
  00017	c2 04 00	 ret	 4
?GetDummyNeedGauge@ioEngineerItem@@IAEMABVioHashString@@@Z ENDP ; ioEngineerItem::GetDummyNeedGauge
_TEXT	ENDS
PUBLIC	?FirstDummyName@ioEngineerItem@@IAEXAAVioHashString@@@Z ; ioEngineerItem::FirstDummyName
EXTRN	__imp_?Clear@ioHashString@@QAEXXZ:PROC
; Function compile flags: /Ogsp
;	COMDAT ?FirstDummyName@ioEngineerItem@@IAEXAAVioHashString@@@Z
_TEXT	SEGMENT
_szDummyName$ = 8					; size = 4
?FirstDummyName@ioEngineerItem@@IAEXAAVioHashString@@@Z PROC ; ioEngineerItem::FirstDummyName, COMDAT
; _this$ = ecx

; 326  : {

  00000	55		 push	 ebp
  00001	8b ec		 mov	 ebp, esp
  00003	56		 push	 esi
  00004	8b f1		 mov	 esi, ecx

; 327  : 	szDummyName.Clear();

  00006	8b 4d 08	 mov	 ecx, DWORD PTR _szDummyName$[ebp]
  00009	ff 15 00 00 00
	00		 call	 DWORD PTR __imp_?Clear@ioHashString@@QAEXXZ

; 328  : 	if( 0 < (int)m_TurrretDummyInfoList.size() )

  0000f	8d 8e a0 19 00
	00		 lea	 ecx, DWORD PTR [esi+6560]
  00015	8b 41 04	 mov	 eax, DWORD PTR [ecx+4]
  00018	2b 01		 sub	 eax, DWORD PTR [ecx]
  0001a	6a 14		 push	 20			; 00000014H
  0001c	99		 cdq
  0001d	5e		 pop	 esi
  0001e	f7 fe		 idiv	 esi
  00020	5e		 pop	 esi
  00021	85 c0		 test	 eax, eax
  00023	7e 0b		 jle	 SHORT $LN1@FirstDummy

; 329  : 	{
; 330  : 		szDummyName = m_TurrretDummyInfoList[0].szDummyName;

  00025	ff 31		 push	 DWORD PTR [ecx]
  00027	8b 4d 08	 mov	 ecx, DWORD PTR _szDummyName$[ebp]
  0002a	ff 15 00 00 00
	00		 call	 DWORD PTR __imp_??4ioHashString@@QAEAAV0@ABV0@@Z
$LN1@FirstDummy:

; 331  : 	}
; 332  : }

  00030	5d		 pop	 ebp
  00031	c2 04 00	 ret	 4
?FirstDummyName@ioEngineerItem@@IAEXAAVioHashString@@@Z ENDP ; ioEngineerItem::FirstDummyName
_TEXT	ENDS
PUBLIC	?NextDummyName@ioEngineerItem@@IAEXABVioHashString@@AAV2@@Z ; ioEngineerItem::NextDummyName
; Function compile flags: /Ogsp
;	COMDAT ?NextDummyName@ioEngineerItem@@IAEXABVioHashString@@AAV2@@Z
_TEXT	SEGMENT
tv259 = -4						; size = 4
_szCurrDummyName$ = 8					; size = 4
_szDummyName$ = 12					; size = 4
?NextDummyName@ioEngineerItem@@IAEXABVioHashString@@AAV2@@Z PROC ; ioEngineerItem::NextDummyName, COMDAT
; _this$ = ecx

; 335  : {

  00000	55		 push	 ebp
  00001	8b ec		 mov	 ebp, esp
  00003	51		 push	 ecx
  00004	56		 push	 esi
  00005	8b f1		 mov	 esi, ecx

; 336  : 	szDummyName.Clear();

  00007	8b 4d 0c	 mov	 ecx, DWORD PTR _szDummyName$[ebp]
  0000a	ff 15 00 00 00
	00		 call	 DWORD PTR __imp_?Clear@ioHashString@@QAEXXZ

; 337  : 	for( int i = 0; i < (int)m_TurrretDummyInfoList.size(); ++i )

  00010	8b 86 a4 19 00
	00		 mov	 eax, DWORD PTR [esi+6564]
  00016	2b 86 a0 19 00
	00		 sub	 eax, DWORD PTR [esi+6560]
  0001c	6a 14		 push	 20			; 00000014H
  0001e	99		 cdq
  0001f	59		 pop	 ecx
  00020	f7 f9		 idiv	 ecx
  00022	85 c0		 test	 eax, eax
  00024	7e 7d		 jle	 SHORT $LN4@NextDummyN

; 336  : 	szDummyName.Clear();

  00026	53		 push	 ebx
  00027	57		 push	 edi
  00028	8b 3d 00 00 00
	00		 mov	 edi, DWORD PTR __imp_??4ioHashString@@QAEAAV0@ABV0@@Z
  0002e	33 db		 xor	 ebx, ebx
  00030	c7 45 fc 01 00
	00 00		 mov	 DWORD PTR tv259[ebp], 1
$LL6@NextDummyN:

; 338  : 	{
; 339  : 		if( m_TurrretDummyInfoList[i].szDummyName == szCurrDummyName )

  00037	8b 8e a0 19 00
	00		 mov	 ecx, DWORD PTR [esi+6560]
  0003d	ff 75 08	 push	 DWORD PTR _szCurrDummyName$[ebp]
  00040	03 cb		 add	 ecx, ebx
  00042	ff 15 00 00 00
	00		 call	 DWORD PTR __imp_??8ioHashString@@QBE_NABV0@@Z
  00048	84 c0		 test	 al, al
  0004a	74 35		 je	 SHORT $LN5@NextDummyN

; 340  : 		{
; 341  : 			if( COMPARE( i + 1, 0, (int)m_TurrretDummyInfoList.size() ) )

  0004c	83 7d fc 00	 cmp	 DWORD PTR tv259[ebp], 0
  00050	7c 24		 jl	 SHORT $LN2@NextDummyN
  00052	8b 86 a4 19 00
	00		 mov	 eax, DWORD PTR [esi+6564]
  00058	2b 86 a0 19 00
	00		 sub	 eax, DWORD PTR [esi+6560]
  0005e	6a 14		 push	 20			; 00000014H
  00060	99		 cdq
  00061	59		 pop	 ecx
  00062	f7 f9		 idiv	 ecx
  00064	39 45 fc	 cmp	 DWORD PTR tv259[ebp], eax
  00067	7d 0d		 jge	 SHORT $LN2@NextDummyN

; 342  : 			{
; 343  : 				szDummyName = m_TurrretDummyInfoList[ i + 1 ].szDummyName;

  00069	8b 86 a0 19 00
	00		 mov	 eax, DWORD PTR [esi+6560]
  0006f	8d 44 03 14	 lea	 eax, DWORD PTR [ebx+eax+20]
  00073	50		 push	 eax

; 344  : 			}
; 345  : 			else

  00074	eb 06		 jmp	 SHORT $LN21@NextDummyN
$LN2@NextDummyN:

; 346  : 			{
; 347  : 				szDummyName = m_TurrretDummyInfoList[0].szDummyName;

  00076	ff b6 a0 19 00
	00		 push	 DWORD PTR [esi+6560]
$LN21@NextDummyN:
  0007c	8b 4d 0c	 mov	 ecx, DWORD PTR _szDummyName$[ebp]
  0007f	ff d7		 call	 edi
$LN5@NextDummyN:

; 337  : 	for( int i = 0; i < (int)m_TurrretDummyInfoList.size(); ++i )

  00081	8b 86 a4 19 00
	00		 mov	 eax, DWORD PTR [esi+6564]
  00087	2b 86 a0 19 00
	00		 sub	 eax, DWORD PTR [esi+6560]
  0008d	6a 14		 push	 20			; 00000014H
  0008f	99		 cdq
  00090	59		 pop	 ecx
  00091	f7 f9		 idiv	 ecx
  00093	ff 45 fc	 inc	 DWORD PTR tv259[ebp]
  00096	8b 4d fc	 mov	 ecx, DWORD PTR tv259[ebp]
  00099	83 c3 14	 add	 ebx, 20			; 00000014H
  0009c	49		 dec	 ecx
  0009d	3b c8		 cmp	 ecx, eax
  0009f	7c 96		 jl	 SHORT $LL6@NextDummyN
  000a1	5f		 pop	 edi
  000a2	5b		 pop	 ebx
$LN4@NextDummyN:
  000a3	5e		 pop	 esi

; 348  : 			}
; 349  : 		}
; 350  : 	}
; 351  : }

  000a4	c9		 leave
  000a5	c2 08 00	 ret	 8
?NextDummyName@ioEngineerItem@@IAEXABVioHashString@@AAV2@@Z ENDP ; ioEngineerItem::NextDummyName
_TEXT	ENDS
PUBLIC	_pCurDummy$GSCopy$
PUBLIC	_pGroup$GSCopy$
PUBLIC	_pOwner$GSCopy$
PUBLIC	__$ArrayPad$
PUBLIC	?DummyUpgrade@ioEngineerItem@@IAEXPAVioBaseChar@@PAVioDummyGroup@@PAVioDummyChar@@2@Z ; ioEngineerItem::DummyUpgrade
EXTRN	?AddDummy@ioDummyGroup@@QAEXH@Z:PROC		; ioDummyGroup::AddDummy
EXTRN	?SetReserveUpgradeInfo@ioDummyGradeTurret@@QAEXABUD3DXVECTOR3@@0ABUD3DXQUATERNION@@@Z:PROC ; ioDummyGradeTurret::SetReserveUpgradeInfo
EXTRN	?SetTargetRotToTargetPos@ioBaseChar@@QAEXABUD3DXVECTOR3@@_N1@Z:PROC ; ioBaseChar::SetTargetRotToTargetPos
; Function compile flags: /Ogsp
;	COMDAT ?DummyUpgrade@ioEngineerItem@@IAEXPAVioBaseChar@@PAVioDummyGroup@@PAVioDummyChar@@2@Z
_TEXT	SEGMENT
$T554699 = -52						; size = 12
_pGroup$GSCopy$ = -40					; size = 4
_pOwner$GSCopy$ = -36					; size = 4
_pCurDummy$GSCopy$ = -32				; size = 4
_pNewTurret$550443 = -32				; size = 4
$T550446 = -28						; size = 12
$T550445 = -16						; size = 12
__$ArrayPad$ = -4					; size = 4
_pOwner$ = 8						; size = 4
_pGroup$ = 12						; size = 4
_pCurDummy$ = 16					; size = 4
_pNewDummy$ = 20					; size = 4
?DummyUpgrade@ioEngineerItem@@IAEXPAVioBaseChar@@PAVioDummyGroup@@PAVioDummyChar@@2@Z PROC ; ioEngineerItem::DummyUpgrade, COMDAT
; _this$ = ecx

; 456  : {

  00000	55		 push	 ebp
  00001	8b ec		 mov	 ebp, esp
  00003	83 ec 34	 sub	 esp, 52			; 00000034H
  00006	a1 00 00 00 00	 mov	 eax, DWORD PTR ___security_cookie
  0000b	33 c5		 xor	 eax, ebp
  0000d	89 45 fc	 mov	 DWORD PTR __$ArrayPad$[ebp], eax
  00010	8b 45 08	 mov	 eax, DWORD PTR _pOwner$[ebp]

; 475  : 	{
; 476  : 		ioDummyGradeTurret* pNewTurret = ToDummyGradeTurret( pNewDummy );

  00013	8b 4d 0c	 mov	 ecx, DWORD PTR _pGroup$[ebp]
  00016	53		 push	 ebx
  00017	8b 5d 14	 mov	 ebx, DWORD PTR _pNewDummy$[ebp]
  0001a	56		 push	 esi
  0001b	57		 push	 edi
  0001c	8b 7d 10	 mov	 edi, DWORD PTR _pCurDummy$[ebp]
  0001f	33 f6		 xor	 esi, esi

; 481  : 		}
; 482  : 	}
; 483  : 
; 484  : 	//    
; 485  : 	pGroup->AddDummy( pNewDummy->GetDummyCharIdx() );

  00021	89 45 dc	 mov	 DWORD PTR _pOwner$GSCopy$[ebp], eax
  00024	89 4d d8	 mov	 DWORD PTR _pGroup$GSCopy$[ebp], ecx
  00027	89 7d e0	 mov	 DWORD PTR _pCurDummy$GSCopy$[ebp], edi
  0002a	3b fe		 cmp	 edi, esi
  0002c	0f 84 98 00 00
	00		 je	 $LN5@DummyUpgra

; 457  : 	//       
; 458  : 	if( pCurDummy )
; 459  : 	{
; 460  : 		pCurDummy->SetDieState( false );

  00032	8b 07		 mov	 eax, DWORD PTR [edi]
  00034	56		 push	 esi
  00035	56		 push	 esi
  00036	8b cf		 mov	 ecx, edi
  00038	ff 90 1c 01 00
	00		 call	 DWORD PTR [eax+284]

; 461  : 
; 462  : 		if( pNewDummy )

  0003e	3b de		 cmp	 ebx, esi
  00040	0f 84 f8 00 00
	00		 je	 $LN36@DummyUpgra

; 463  : 		{
; 464  : 			pNewDummy->SetWorldPosition( pCurDummy->GetWorldPosition() );

  00046	8b 07		 mov	 eax, DWORD PTR [edi]
  00048	8b 33		 mov	 esi, DWORD PTR [ebx]
  0004a	8b cf		 mov	 ecx, edi
  0004c	ff 50 70	 call	 DWORD PTR [eax+112]
  0004f	50		 push	 eax
  00050	8b cb		 mov	 ecx, ebx
  00052	ff 56 44	 call	 DWORD PTR [esi+68]

; 465  : 			pNewDummy->SetWorldOrientation( pCurDummy->GetWorldOrientation() );

  00055	8b 07		 mov	 eax, DWORD PTR [edi]
  00057	8b 33		 mov	 esi, DWORD PTR [ebx]
  00059	8b cf		 mov	 ecx, edi
  0005b	ff 50 74	 call	 DWORD PTR [eax+116]
  0005e	50		 push	 eax
  0005f	8b cb		 mov	 ecx, ebx
  00061	ff 56 48	 call	 DWORD PTR [esi+72]

; 466  : 			pOwner->SetTargetRotToTargetPos( pNewDummy->GetWorldPosition(), true, true );

  00064	8b 03		 mov	 eax, DWORD PTR [ebx]
  00066	6a 01		 push	 1
  00068	6a 01		 push	 1
  0006a	8b cb		 mov	 ecx, ebx
  0006c	ff 50 70	 call	 DWORD PTR [eax+112]
  0006f	8b 4d dc	 mov	 ecx, DWORD PTR _pOwner$GSCopy$[ebp]
  00072	50		 push	 eax
  00073	e8 00 00 00 00	 call	 ?SetTargetRotToTargetPos@ioBaseChar@@QAEXABUD3DXVECTOR3@@_N1@Z ; ioBaseChar::SetTargetRotToTargetPos

; 467  : 
; 468  : 			ioDummyGradeTurret* pCurTurret = ToDummyGradeTurret( pCurDummy );

  00078	8b b7 2c 02 00
	00		 mov	 esi, DWORD PTR [edi+556]
  0007e	83 ee 34	 sub	 esi, 52			; 00000034H
  00081	f7 de		 neg	 esi
  00083	1b f6		 sbb	 esi, esi
  00085	f7 d6		 not	 esi
  00087	23 f7		 and	 esi, edi

; 469  : 			ioDummyGradeTurret* pNewTurret = ToDummyGradeTurret( pNewDummy );

  00089	8b bb 2c 02 00
	00		 mov	 edi, DWORD PTR [ebx+556]
  0008f	83 ef 34	 sub	 edi, 52			; 00000034H
  00092	f7 df		 neg	 edi
  00094	1b ff		 sbb	 edi, edi
  00096	f7 d7		 not	 edi
  00098	23 fb		 and	 edi, ebx

; 470  : 			if( pNewTurret && pCurTurret )

  0009a	0f 84 9e 00 00
	00		 je	 $LN36@DummyUpgra
  000a0	85 f6		 test	 esi, esi
  000a2	0f 84 96 00 00
	00		 je	 $LN36@DummyUpgra

; 471  : 				pNewTurret->SetReserveUpgradeInfo( pCurDummy->GetWorldPosition(), pCurTurret->GetAttackDir(), pCurDummy->GetWorldOrientation() );

  000a8	8b 4d e0	 mov	 ecx, DWORD PTR _pCurDummy$GSCopy$[ebp]
  000ab	8b 01		 mov	 eax, DWORD PTR [ecx]
  000ad	ff 50 74	 call	 DWORD PTR [eax+116]
  000b0	8b 4d e0	 mov	 ecx, DWORD PTR _pCurDummy$GSCopy$[ebp]
  000b3	50		 push	 eax
  000b4	8b 01		 mov	 eax, DWORD PTR [ecx]
  000b6	81 c6 cc 14 00
	00		 add	 esi, 5324		; 000014ccH
  000bc	56		 push	 esi
  000bd	ff 50 70	 call	 DWORD PTR [eax+112]
  000c0	50		 push	 eax
  000c1	8b cf		 mov	 ecx, edi
  000c3	e8 00 00 00 00	 call	 ?SetReserveUpgradeInfo@ioDummyGradeTurret@@QAEXABUD3DXVECTOR3@@0ABUD3DXQUATERNION@@@Z ; ioDummyGradeTurret::SetReserveUpgradeInfo

; 472  : 		}
; 473  : 	}
; 474  : 	else

  000c8	eb 74		 jmp	 SHORT $LN36@DummyUpgra
$LN5@DummyUpgra:

; 475  : 	{
; 476  : 		ioDummyGradeTurret* pNewTurret = ToDummyGradeTurret( pNewDummy );

  000ca	3b de		 cmp	 ebx, esi
  000cc	74 0c		 je	 SHORT $LN22@DummyUpgra
  000ce	83 bb 2c 02 00
	00 34		 cmp	 DWORD PTR [ebx+556], 52	; 00000034H
  000d5	89 5d e0	 mov	 DWORD PTR _pNewTurret$550443[ebp], ebx
  000d8	74 03		 je	 SHORT $LN24@DummyUpgra
$LN22@DummyUpgra:
  000da	89 75 e0	 mov	 DWORD PTR _pNewTurret$550443[ebp], esi
$LN24@DummyUpgra:

; 477  : 		if( pNewTurret )

  000dd	39 75 e0	 cmp	 DWORD PTR _pNewTurret$550443[ebp], esi
  000e0	74 5c		 je	 SHORT $LN36@DummyUpgra

; 478  : 		{
; 479  : 			pNewTurret->SetAttackDir( pOwner->GetTargetRot() * D3DXVECTOR3( 0.0f, 0.0f, -1.0f ) );

  000e2	0f 57 c0	 xorps	 xmm0, xmm0
  000e5	8d 4d f0	 lea	 ecx, DWORD PTR $T550445[ebp]
  000e8	51		 push	 ecx
  000e9	05 a4 06 00 00	 add	 eax, 1700		; 000006a4H
  000ee	50		 push	 eax
  000ef	8d 45 e4	 lea	 eax, DWORD PTR $T550446[ebp]
  000f2	f3 0f 11 45 f0	 movss	 DWORD PTR $T550445[ebp], xmm0
  000f7	f3 0f 11 45 f4	 movss	 DWORD PTR $T550445[ebp+4], xmm0
  000fc	f3 0f 10 05 00
	00 00 00	 movss	 xmm0, DWORD PTR __real@bf800000
  00104	50		 push	 eax
  00105	f3 0f 11 45 f8	 movss	 DWORD PTR $T550445[ebp+8], xmm0
  0010a	ff 15 00 00 00
	00		 call	 DWORD PTR __imp_??D@YA?AUD3DXVECTOR3@@ABUD3DXQUATERNION@@ABU0@@Z
  00110	8b f0		 mov	 esi, eax
  00112	8d 7d cc	 lea	 edi, DWORD PTR $T554699[ebp]
  00115	a5		 movsd
  00116	a5		 movsd
  00117	a5		 movsd
  00118	8b 7d e0	 mov	 edi, DWORD PTR _pNewTurret$550443[ebp]
  0011b	81 c7 cc 14 00
	00		 add	 edi, 5324		; 000014ccH
  00121	8d 75 cc	 lea	 esi, DWORD PTR $T554699[ebp]
  00124	a5		 movsd
  00125	a5		 movsd
  00126	83 c4 0c	 add	 esp, 12			; 0000000cH

; 480  : 			pOwner->SetTargetRotToTargetPos( pNewDummy->GetWorldPosition(), true, true );

  00129	6a 01		 push	 1
  0012b	a5		 movsd
  0012c	8b 03		 mov	 eax, DWORD PTR [ebx]
  0012e	6a 01		 push	 1
  00130	8b cb		 mov	 ecx, ebx
  00132	ff 50 70	 call	 DWORD PTR [eax+112]
  00135	8b 4d dc	 mov	 ecx, DWORD PTR _pOwner$GSCopy$[ebp]
  00138	50		 push	 eax
  00139	e8 00 00 00 00	 call	 ?SetTargetRotToTargetPos@ioBaseChar@@QAEXABUD3DXVECTOR3@@_N1@Z ; ioBaseChar::SetTargetRotToTargetPos
$LN36@DummyUpgra:

; 481  : 		}
; 482  : 	}
; 483  : 
; 484  : 	//    
; 485  : 	pGroup->AddDummy( pNewDummy->GetDummyCharIdx() );

  0013e	ff b3 dc 01 00
	00		 push	 DWORD PTR [ebx+476]
  00144	8b 4d d8	 mov	 ecx, DWORD PTR _pGroup$GSCopy$[ebp]
  00147	e8 00 00 00 00	 call	 ?AddDummy@ioDummyGroup@@QAEXH@Z ; ioDummyGroup::AddDummy

; 486  : }

  0014c	8b 4d fc	 mov	 ecx, DWORD PTR __$ArrayPad$[ebp]
  0014f	5f		 pop	 edi
  00150	5e		 pop	 esi
  00151	33 cd		 xor	 ecx, ebp
  00153	5b		 pop	 ebx
  00154	e8 00 00 00 00	 call	 @__security_check_cookie@4
  00159	c9		 leave
  0015a	c2 10 00	 ret	 16			; 00000010H
?DummyUpgrade@ioEngineerItem@@IAEXPAVioBaseChar@@PAVioDummyGroup@@PAVioDummyChar@@2@Z ENDP ; ioEngineerItem::DummyUpgrade
_TEXT	ENDS
PUBLIC	__$ArrayPad$
PUBLIC	?SetExtraInfoToWeapon@ioEngineerItem@@UAEXPAVioWeapon@@_N@Z ; ioEngineerItem::SetExtraInfoToWeapon
EXTRN	?SetZoneValue@ioZoneEffectWeapon@@QAEX_N0@Z:PROC ; ioZoneEffectWeapon::SetZoneValue
EXTRN	?SetCollisionDir@ioZoneEffectWeapon@@QAEXAAUD3DXVECTOR3@@@Z:PROC ; ioZoneEffectWeapon::SetCollisionDir
EXTRN	?GetOwner@ioWeapon@@QBEPAVioBaseChar@@XZ:PROC	; ioWeapon::GetOwner
EXTRN	?SetExtraInfoToWeapon@ioAttackableItem@@UAEXPAVioWeapon@@_N@Z:PROC ; ioAttackableItem::SetExtraInfoToWeapon
; Function compile flags: /Ogsp
;	COMDAT ?SetExtraInfoToWeapon@ioEngineerItem@@UAEXPAVioWeapon@@_N@Z
_TEXT	SEGMENT
_vDir$550536 = -28					; size = 12
$T550537 = -16						; size = 12
__$ArrayPad$ = -4					; size = 4
_pWeapon$ = 8						; size = 4
_bJumpAttack$ = 12					; size = 1
?SetExtraInfoToWeapon@ioEngineerItem@@UAEXPAVioWeapon@@_N@Z PROC ; ioEngineerItem::SetExtraInfoToWeapon, COMDAT
; _this$ = ecx

; 628  : {

  00000	55		 push	 ebp
  00001	8b ec		 mov	 ebp, esp
  00003	83 ec 1c	 sub	 esp, 28			; 0000001cH
  00006	a1 00 00 00 00	 mov	 eax, DWORD PTR ___security_cookie
  0000b	33 c5		 xor	 eax, ebp
  0000d	89 45 fc	 mov	 DWORD PTR __$ArrayPad$[ebp], eax
  00010	56		 push	 esi

; 629  : 	ioAttackableItem::SetExtraInfoToWeapon( pWeapon, bJumpAttack );

  00011	ff 75 0c	 push	 DWORD PTR _bJumpAttack$[ebp]
  00014	8b 75 08	 mov	 esi, DWORD PTR _pWeapon$[ebp]
  00017	56		 push	 esi
  00018	e8 00 00 00 00	 call	 ?SetExtraInfoToWeapon@ioAttackableItem@@UAEXPAVioWeapon@@_N@Z ; ioAttackableItem::SetExtraInfoToWeapon

; 630  : 
; 631  : 	ioZoneEffectWeapon *pZone = ToZoneEffectWeapon( pWeapon );

  0001d	56		 push	 esi
  0001e	e8 00 00 00 00	 call	 ?ToZoneEffectWeapon@@YAPAVioZoneEffectWeapon@@PAVioWeapon@@@Z ; ToZoneEffectWeapon
  00023	8b f0		 mov	 esi, eax
  00025	59		 pop	 ecx

; 632  : 	if( pZone )

  00026	85 f6		 test	 esi, esi
  00028	74 52		 je	 SHORT $LN1@SetExtraIn

; 633  : 	{
; 634  : 		ioBaseChar *pChar = pZone->GetOwner();

  0002a	8b ce		 mov	 ecx, esi
  0002c	e8 00 00 00 00	 call	 ?GetOwner@ioWeapon@@QBEPAVioBaseChar@@XZ ; ioWeapon::GetOwner

; 635  : 		if( pChar )

  00031	85 c0		 test	 eax, eax
  00033	74 47		 je	 SHORT $LN1@SetExtraIn

; 636  : 		{
; 637  : 			D3DXVECTOR3 vDir = pChar->GetTargetRot() * D3DXVECTOR3( 0.0f, 0.0f, -1.0f );

  00035	0f 57 c0	 xorps	 xmm0, xmm0
  00038	8d 4d f0	 lea	 ecx, DWORD PTR $T550537[ebp]
  0003b	51		 push	 ecx
  0003c	05 a4 06 00 00	 add	 eax, 1700		; 000006a4H
  00041	50		 push	 eax
  00042	8d 45 e4	 lea	 eax, DWORD PTR _vDir$550536[ebp]
  00045	f3 0f 11 45 f0	 movss	 DWORD PTR $T550537[ebp], xmm0
  0004a	f3 0f 11 45 f4	 movss	 DWORD PTR $T550537[ebp+4], xmm0
  0004f	f3 0f 10 05 00
	00 00 00	 movss	 xmm0, DWORD PTR __real@bf800000
  00057	50		 push	 eax
  00058	f3 0f 11 45 f8	 movss	 DWORD PTR $T550537[ebp+8], xmm0
  0005d	ff 15 00 00 00
	00		 call	 DWORD PTR __imp_??D@YA?AUD3DXVECTOR3@@ABUD3DXQUATERNION@@ABU0@@Z
  00063	83 c4 0c	 add	 esp, 12			; 0000000cH

; 638  : 			pZone->SetCollisionDir( vDir );

  00066	8d 45 e4	 lea	 eax, DWORD PTR _vDir$550536[ebp]
  00069	50		 push	 eax
  0006a	8b ce		 mov	 ecx, esi
  0006c	e8 00 00 00 00	 call	 ?SetCollisionDir@ioZoneEffectWeapon@@QAEXAAUD3DXVECTOR3@@@Z ; ioZoneEffectWeapon::SetCollisionDir

; 639  : 			pZone->SetZoneValue( true, false );

  00071	6a 00		 push	 0
  00073	6a 01		 push	 1
  00075	8b ce		 mov	 ecx, esi
  00077	e8 00 00 00 00	 call	 ?SetZoneValue@ioZoneEffectWeapon@@QAEX_N0@Z ; ioZoneEffectWeapon::SetZoneValue
$LN1@SetExtraIn:

; 640  : 		}
; 641  : 	}
; 642  : }

  0007c	8b 4d fc	 mov	 ecx, DWORD PTR __$ArrayPad$[ebp]
  0007f	33 cd		 xor	 ecx, ebp
  00081	5e		 pop	 esi
  00082	e8 00 00 00 00	 call	 @__security_check_cookie@4
  00087	c9		 leave
  00088	c2 08 00	 ret	 8
?SetExtraInfoToWeapon@ioEngineerItem@@UAEXPAVioWeapon@@_N@Z ENDP ; ioEngineerItem::SetExtraInfoToWeapon
_TEXT	ENDS
PUBLIC	??G?$CEncrypt@M@@QAEMABM@Z			; CEncrypt<float>::operator-
; Function compile flags: /Ogsp
; File d:\lost saga for developer\youtube\tutorial\source\src\lsclient\encryptvalue.h
;	COMDAT ??G?$CEncrypt@M@@QAEMABM@Z
_TEXT	SEGMENT
_value$ = -4						; size = 4
tv130 = 8						; size = 4
_inValue$ = 8						; size = 4
??G?$CEncrypt@M@@QAEMABM@Z PROC				; CEncrypt<float>::operator-, COMDAT
; _this$ = ecx

; 1665 : 	{	

  00000	55		 push	 ebp
  00001	8b ec		 mov	 ebp, esp
  00003	51		 push	 ecx

; 1666 : 		type value;
; 1667 : 		DecryptValueToPool(&value);

  00004	8d 45 fc	 lea	 eax, DWORD PTR _value$[ebp]
  00007	50		 push	 eax
  00008	e8 00 00 00 00	 call	 ?DecryptValueToPool@?$CEncrypt@M@@QAEXPAM@Z ; CEncrypt<float>::DecryptValueToPool

; 1668 : #ifdef _NOTUSE
; 1669 : 		Debug();
; 1670 : #endif
; 1671 : 		return value - inValue;

  0000d	d9 45 fc	 fld	 DWORD PTR _value$[ebp]
  00010	8b 45 08	 mov	 eax, DWORD PTR _inValue$[ebp]
  00013	d8 20		 fsub	 DWORD PTR [eax]
  00015	d9 5d 08	 fstp	 DWORD PTR tv130[ebp]
  00018	d9 45 08	 fld	 DWORD PTR tv130[ebp]

; 1672 : 	}

  0001b	c9		 leave
  0001c	c2 04 00	 ret	 4
??G?$CEncrypt@M@@QAEMABM@Z ENDP				; CEncrypt<float>::operator-
_TEXT	ENDS
PUBLIC	??D?$_Vector_iterator@V?$_Vector_val@PAVioDummyChar@@V?$allocator@PAVioDummyChar@@@std@@@std@@@std@@QBEAAPAVioDummyChar@@XZ ; std::_Vector_iterator<std::_Vector_val<ioDummyChar *,std::allocator<ioDummyChar *> > >::operator*
; Function compile flags: /Ogsp
; File c:\program files (x86)\microsoft visual studio 10.0\vc\include\vector
;	COMDAT ??D?$_Vector_iterator@V?$_Vector_val@PAVioDummyChar@@V?$allocator@PAVioDummyChar@@@std@@@std@@@std@@QBEAAPAVioDummyChar@@XZ
_TEXT	SEGMENT
??D?$_Vector_iterator@V?$_Vector_val@PAVioDummyChar@@V?$allocator@PAVioDummyChar@@@std@@@std@@@std@@QBEAAPAVioDummyChar@@XZ PROC ; std::_Vector_iterator<std::_Vector_val<ioDummyChar *,std::allocator<ioDummyChar *> > >::operator*, COMDAT
; _this$ = ecx

; 322  : 		return ((reference)**(_Mybase *)this);

  00000	8b 01		 mov	 eax, DWORD PTR [ecx]

; 323  : 		}

  00002	c3		 ret	 0
??D?$_Vector_iterator@V?$_Vector_val@PAVioDummyChar@@V?$allocator@PAVioDummyChar@@@std@@@std@@@std@@QBEAAPAVioDummyChar@@XZ ENDP ; std::_Vector_iterator<std::_Vector_val<ioDummyChar *,std::allocator<ioDummyChar *> > >::operator*
_TEXT	ENDS
PUBLIC	??E?$_Vector_iterator@V?$_Vector_val@PAVioDummyChar@@V?$allocator@PAVioDummyChar@@@std@@@std@@@std@@QAEAAV01@XZ ; std::_Vector_iterator<std::_Vector_val<ioDummyChar *,std::allocator<ioDummyChar *> > >::operator++
; Function compile flags: /Ogsp
;	COMDAT ??E?$_Vector_iterator@V?$_Vector_val@PAVioDummyChar@@V?$allocator@PAVioDummyChar@@@std@@@std@@@std@@QAEAAV01@XZ
_TEXT	SEGMENT
??E?$_Vector_iterator@V?$_Vector_val@PAVioDummyChar@@V?$allocator@PAVioDummyChar@@@std@@@std@@@std@@QAEAAV01@XZ PROC ; std::_Vector_iterator<std::_Vector_val<ioDummyChar *,std::allocator<ioDummyChar *> > >::operator++, COMDAT
; _this$ = ecx

; 331  : 		{	// preincrement

  00000	8b c1		 mov	 eax, ecx

; 332  : 		++*(_Mybase *)this;

  00002	83 00 04	 add	 DWORD PTR [eax], 4

; 333  : 		return (*this);
; 334  : 		}

  00005	c3		 ret	 0
??E?$_Vector_iterator@V?$_Vector_val@PAVioDummyChar@@V?$allocator@PAVioDummyChar@@@std@@@std@@@std@@QAEAAV01@XZ ENDP ; std::_Vector_iterator<std::_Vector_val<ioDummyChar *,std::allocator<ioDummyChar *> > >::operator++
_TEXT	ENDS
PUBLIC	?begin@?$vector@UGroupDummyInfo@@V?$allocator@UGroupDummyInfo@@@std@@@std@@QBE?AV?$_Vector_const_iterator@V?$_Vector_val@UGroupDummyInfo@@V?$allocator@UGroupDummyInfo@@@std@@@std@@@2@XZ ; std::vector<GroupDummyInfo,std::allocator<GroupDummyInfo> >::begin
; Function compile flags: /Ogsp
;	COMDAT ?begin@?$vector@UGroupDummyInfo@@V?$allocator@UGroupDummyInfo@@@std@@@std@@QBE?AV?$_Vector_const_iterator@V?$_Vector_val@UGroupDummyInfo@@V?$allocator@UGroupDummyInfo@@@std@@@std@@@2@XZ
_TEXT	SEGMENT
___$ReturnUdt$ = 8					; size = 4
?begin@?$vector@UGroupDummyInfo@@V?$allocator@UGroupDummyInfo@@@std@@@std@@QBE?AV?$_Vector_const_iterator@V?$_Vector_val@UGroupDummyInfo@@V?$allocator@UGroupDummyInfo@@@std@@@std@@@2@XZ PROC ; std::vector<GroupDummyInfo,std::allocator<GroupDummyInfo> >::begin, COMDAT
; _this$ = ecx

; 786  : 		{	// return iterator for beginning of nonmutable sequence

  00000	55		 push	 ebp
  00001	8b ec		 mov	 ebp, esp

; 787  : 		return (const_iterator(this->_Myfirst, this));

  00003	8b 09		 mov	 ecx, DWORD PTR [ecx]
  00005	8b 45 08	 mov	 eax, DWORD PTR ___$ReturnUdt$[ebp]
  00008	89 08		 mov	 DWORD PTR [eax], ecx

; 788  : 		}

  0000a	5d		 pop	 ebp
  0000b	c2 04 00	 ret	 4
?begin@?$vector@UGroupDummyInfo@@V?$allocator@UGroupDummyInfo@@@std@@@std@@QBE?AV?$_Vector_const_iterator@V?$_Vector_val@UGroupDummyInfo@@V?$allocator@UGroupDummyInfo@@@std@@@std@@@2@XZ ENDP ; std::vector<GroupDummyInfo,std::allocator<GroupDummyInfo> >::begin
_TEXT	ENDS
PUBLIC	?end@?$vector@UGroupDummyInfo@@V?$allocator@UGroupDummyInfo@@@std@@@std@@QBE?AV?$_Vector_const_iterator@V?$_Vector_val@UGroupDummyInfo@@V?$allocator@UGroupDummyInfo@@@std@@@std@@@2@XZ ; std::vector<GroupDummyInfo,std::allocator<GroupDummyInfo> >::end
; Function compile flags: /Ogsp
;	COMDAT ?end@?$vector@UGroupDummyInfo@@V?$allocator@UGroupDummyInfo@@@std@@@std@@QBE?AV?$_Vector_const_iterator@V?$_Vector_val@UGroupDummyInfo@@V?$allocator@UGroupDummyInfo@@@std@@@std@@@2@XZ
_TEXT	SEGMENT
___$ReturnUdt$ = 8					; size = 4
?end@?$vector@UGroupDummyInfo@@V?$allocator@UGroupDummyInfo@@@std@@@std@@QBE?AV?$_Vector_const_iterator@V?$_Vector_val@UGroupDummyInfo@@V?$allocator@UGroupDummyInfo@@@std@@@std@@@2@XZ PROC ; std::vector<GroupDummyInfo,std::allocator<GroupDummyInfo> >::end, COMDAT
; _this$ = ecx

; 796  : 		{	// return iterator for end of nonmutable sequence

  00000	55		 push	 ebp
  00001	8b ec		 mov	 ebp, esp

; 797  : 		return (const_iterator(this->_Mylast, this));

  00003	8b 49 04	 mov	 ecx, DWORD PTR [ecx+4]
  00006	8b 45 08	 mov	 eax, DWORD PTR ___$ReturnUdt$[ebp]
  00009	89 08		 mov	 DWORD PTR [eax], ecx

; 798  : 		}

  0000b	5d		 pop	 ebp
  0000c	c2 04 00	 ret	 4
?end@?$vector@UGroupDummyInfo@@V?$allocator@UGroupDummyInfo@@@std@@@std@@QBE?AV?$_Vector_const_iterator@V?$_Vector_val@UGroupDummyInfo@@V?$allocator@UGroupDummyInfo@@@std@@@std@@@2@XZ ENDP ; std::vector<GroupDummyInfo,std::allocator<GroupDummyInfo> >::end
_TEXT	ENDS
PUBLIC	??0?$_Vector_val@UGroupDummyInfo@@V?$allocator@UGroupDummyInfo@@@std@@@std@@QAE@V?$allocator@UGroupDummyInfo@@@1@@Z ; std::_Vector_val<GroupDummyInfo,std::allocator<GroupDummyInfo> >::_Vector_val<GroupDummyInfo,std::allocator<GroupDummyInfo> >
; Function compile flags: /Ogsp
;	COMDAT ??0?$_Vector_val@UGroupDummyInfo@@V?$allocator@UGroupDummyInfo@@@std@@@std@@QAE@V?$allocator@UGroupDummyInfo@@@1@@Z
_TEXT	SEGMENT
__Al$ = 8						; size = 1
??0?$_Vector_val@UGroupDummyInfo@@V?$allocator@UGroupDummyInfo@@@std@@@std@@QAE@V?$allocator@UGroupDummyInfo@@@1@@Z PROC ; std::_Vector_val<GroupDummyInfo,std::allocator<GroupDummyInfo> >::_Vector_val<GroupDummyInfo,std::allocator<GroupDummyInfo> >, COMDAT
; _this$ = ecx

; 426  : 		{	// construct allocator from _Al

  00000	8b c1		 mov	 eax, ecx

; 427  : 		_Myfirst = 0;

  00002	33 c9		 xor	 ecx, ecx
  00004	89 08		 mov	 DWORD PTR [eax], ecx

; 428  : 		_Mylast = 0;

  00006	89 48 04	 mov	 DWORD PTR [eax+4], ecx

; 429  : 		_Myend = 0;

  00009	89 48 08	 mov	 DWORD PTR [eax+8], ecx

; 430  : 		}

  0000c	c2 04 00	 ret	 4
??0?$_Vector_val@UGroupDummyInfo@@V?$allocator@UGroupDummyInfo@@@std@@@std@@QAE@V?$allocator@UGroupDummyInfo@@@1@@Z ENDP ; std::_Vector_val<GroupDummyInfo,std::allocator<GroupDummyInfo> >::_Vector_val<GroupDummyInfo,std::allocator<GroupDummyInfo> >
_TEXT	ENDS
PUBLIC	??0?$_Vector_iterator@V?$_Vector_val@PAVioDummyChar@@V?$allocator@PAVioDummyChar@@@std@@@std@@@std@@QAE@PAPAVioDummyChar@@PBU_Container_base0@1@@Z ; std::_Vector_iterator<std::_Vector_val<ioDummyChar *,std::allocator<ioDummyChar *> > >::_Vector_iterator<std::_Vector_val<ioDummyChar *,std::allocator<ioDummyChar *> > >
; Function compile flags: /Ogsp
;	COMDAT ??0?$_Vector_iterator@V?$_Vector_val@PAVioDummyChar@@V?$allocator@PAVioDummyChar@@@std@@@std@@@std@@QAE@PAPAVioDummyChar@@PBU_Container_base0@1@@Z
_TEXT	SEGMENT
__Parg$ = 8						; size = 4
__Pvector$ = 12						; size = 4
??0?$_Vector_iterator@V?$_Vector_val@PAVioDummyChar@@V?$allocator@PAVioDummyChar@@@std@@@std@@@std@@QAE@PAPAVioDummyChar@@PBU_Container_base0@1@@Z PROC ; std::_Vector_iterator<std::_Vector_val<ioDummyChar *,std::allocator<ioDummyChar *> > >::_Vector_iterator<std::_Vector_val<ioDummyChar *,std::allocator<ioDummyChar *> > >, COMDAT
; _this$ = ecx

; 304  : 		{	// construct with pointer _Parg

  00000	55		 push	 ebp
  00001	8b ec		 mov	 ebp, esp
  00003	8b c1		 mov	 eax, ecx
  00005	8b 4d 08	 mov	 ecx, DWORD PTR __Parg$[ebp]
  00008	89 08		 mov	 DWORD PTR [eax], ecx

; 305  : 		}

  0000a	5d		 pop	 ebp
  0000b	c2 08 00	 ret	 8
??0?$_Vector_iterator@V?$_Vector_val@PAVioDummyChar@@V?$allocator@PAVioDummyChar@@@std@@@std@@@std@@QAE@PAPAVioDummyChar@@PBU_Container_base0@1@@Z ENDP ; std::_Vector_iterator<std::_Vector_val<ioDummyChar *,std::allocator<ioDummyChar *> > >::_Vector_iterator<std::_Vector_val<ioDummyChar *,std::allocator<ioDummyChar *> > >
_TEXT	ENDS
PUBLIC	?max_size@?$vector@UGroupDummyInfo@@V?$allocator@UGroupDummyInfo@@@std@@@std@@QBEIXZ ; std::vector<GroupDummyInfo,std::allocator<GroupDummyInfo> >::max_size
; Function compile flags: /Ogsp
;	COMDAT ?max_size@?$vector@UGroupDummyInfo@@V?$allocator@UGroupDummyInfo@@@std@@@std@@QBEIXZ
_TEXT	SEGMENT
?max_size@?$vector@UGroupDummyInfo@@V?$allocator@UGroupDummyInfo@@@std@@@std@@QBEIXZ PROC ; std::vector<GroupDummyInfo,std::allocator<GroupDummyInfo> >::max_size, COMDAT
; _this$ = ecx

; 884  : 		return (this->_Alval.max_size());

  00000	b8 cc cc cc 0c	 mov	 eax, 214748364		; 0cccccccH

; 885  : 		}

  00005	c3		 ret	 0
?max_size@?$vector@UGroupDummyInfo@@V?$allocator@UGroupDummyInfo@@@std@@@std@@QBEIXZ ENDP ; std::vector<GroupDummyInfo,std::allocator<GroupDummyInfo> >::max_size
_TEXT	ENDS
PUBLIC	?_Grow_to@?$vector@UGroupDummyInfo@@V?$allocator@UGroupDummyInfo@@@std@@@std@@IBEII@Z ; std::vector<GroupDummyInfo,std::allocator<GroupDummyInfo> >::_Grow_to
; Function compile flags: /Ogsp
;	COMDAT ?_Grow_to@?$vector@UGroupDummyInfo@@V?$allocator@UGroupDummyInfo@@@std@@@std@@IBEII@Z
_TEXT	SEGMENT
__Count$ = 8						; size = 4
?_Grow_to@?$vector@UGroupDummyInfo@@V?$allocator@UGroupDummyInfo@@@std@@@std@@IBEII@Z PROC ; std::vector<GroupDummyInfo,std::allocator<GroupDummyInfo> >::_Grow_to, COMDAT
; _this$ = ecx

; 1274 : 		{	// grow by 50% or at least to _Count

  00000	55		 push	 ebp
  00001	8b ec		 mov	 ebp, esp

; 1275 : 		size_type _Capacity = capacity();

  00003	8b 41 08	 mov	 eax, DWORD PTR [ecx+8]
  00006	2b 01		 sub	 eax, DWORD PTR [ecx]
  00008	6a 14		 push	 20			; 00000014H
  0000a	99		 cdq
  0000b	59		 pop	 ecx
  0000c	f7 f9		 idiv	 ecx

; 1276 : 
; 1277 : 		_Capacity = max_size() - _Capacity / 2 < _Capacity
; 1278 : 			? 0 : _Capacity + _Capacity / 2;	// try to grow by 50%

  0000e	ba cc cc cc 0c	 mov	 edx, 214748364		; 0cccccccH
  00013	8b c8		 mov	 ecx, eax
  00015	d1 e9		 shr	 ecx, 1
  00017	2b d1		 sub	 edx, ecx
  00019	3b d0		 cmp	 edx, eax
  0001b	73 04		 jae	 SHORT $LN4@Grow_to
  0001d	33 c0		 xor	 eax, eax
  0001f	eb 02		 jmp	 SHORT $LN5@Grow_to
$LN4@Grow_to:
  00021	03 c1		 add	 eax, ecx
$LN5@Grow_to:

; 1279 : 		if (_Capacity < _Count)

  00023	3b 45 08	 cmp	 eax, DWORD PTR __Count$[ebp]

; 1280 : 			_Capacity = _Count;

  00026	0f 42 45 08	 cmovb	 eax, DWORD PTR __Count$[ebp]

; 1281 : 		return (_Capacity);
; 1282 : 		}

  0002a	5d		 pop	 ebp
  0002b	c2 04 00	 ret	 4
?_Grow_to@?$vector@UGroupDummyInfo@@V?$allocator@UGroupDummyInfo@@@std@@@std@@IBEII@Z ENDP ; std::vector<GroupDummyInfo,std::allocator<GroupDummyInfo> >::_Grow_to
_TEXT	ENDS
PUBLIC	?allocate@?$allocator@UGroupDummyInfo@@@std@@QAEPAUGroupDummyInfo@@I@Z ; std::allocator<GroupDummyInfo>::allocate
; Function compile flags: /Ogsp
; File c:\program files (x86)\microsoft visual studio 10.0\vc\include\xmemory
;	COMDAT ?allocate@?$allocator@UGroupDummyInfo@@@std@@QAEPAUGroupDummyInfo@@I@Z
_TEXT	SEGMENT
__Count$ = 8						; size = 4
?allocate@?$allocator@UGroupDummyInfo@@@std@@QAEPAUGroupDummyInfo@@I@Z PROC ; std::allocator<GroupDummyInfo>::allocate, COMDAT
; _this$ = ecx

; 186  : 		{	// allocate array of _Count elements

  00000	55		 push	 ebp
  00001	8b ec		 mov	 ebp, esp

; 187  : 		return (_Allocate(_Count, (pointer)0));

  00003	6a 00		 push	 0
  00005	ff 75 08	 push	 DWORD PTR __Count$[ebp]
  00008	e8 00 00 00 00	 call	 ??$_Allocate@UGroupDummyInfo@@@std@@YAPAUGroupDummyInfo@@IPAU1@@Z ; std::_Allocate<GroupDummyInfo>
  0000d	59		 pop	 ecx
  0000e	59		 pop	 ecx

; 188  : 		}

  0000f	5d		 pop	 ebp
  00010	c2 04 00	 ret	 4
?allocate@?$allocator@UGroupDummyInfo@@@std@@QAEPAUGroupDummyInfo@@I@Z ENDP ; std::allocator<GroupDummyInfo>::allocate
_TEXT	ENDS
PUBLIC	__$ArrayPad$
PUBLIC	??$LoadFloat_e@$0BB@@ioINILoader@@QAEMAAY0BB@$$CBDM@Z ; ioINILoader::LoadFloat_e<17>
EXTRN	__imp_?LoadFloat@ioINILoader@@QAEMPBDM@Z:PROC
; Function compile flags: /Ogsp
; File d:\lost saga for developer\youtube\tutorial\source\src\io3dengine\ioiniloader.h
;	COMDAT ??$LoadFloat_e@$0BB@@ioINILoader@@QAEMAAY0BB@$$CBDM@Z
_TEXT	SEGMENT
__k$ = -28						; size = 17
__$ArrayPad$ = -4					; size = 4
_k$ = 8							; size = 4
_f$ = 12						; size = 4
??$LoadFloat_e@$0BB@@ioINILoader@@QAEMAAY0BB@$$CBDM@Z PROC ; ioINILoader::LoadFloat_e<17>, COMDAT
; _this$ = ecx

; 135  : 	{

  00000	55		 push	 ebp
  00001	8b ec		 mov	 ebp, esp
  00003	83 ec 1c	 sub	 esp, 28			; 0000001cH
  00006	a1 00 00 00 00	 mov	 eax, DWORD PTR ___security_cookie
  0000b	33 c5		 xor	 eax, ebp
  0000d	89 45 fc	 mov	 DWORD PTR __$ArrayPad$[ebp], eax
  00010	8b 45 08	 mov	 eax, DWORD PTR _k$[ebp]

; 136  : 		_ENCSTR(k, _k);

  00013	8a 10		 mov	 dl, BYTE PTR [eax]
  00015	56		 push	 esi
  00016	8b f1		 mov	 esi, ecx
  00018	84 d2		 test	 dl, dl
  0001a	0f 84 a7 01 00
	00		 je	 $LN96@LoadFloat_
  00020	80 f2 ed	 xor	 dl, -19			; ffffffedH
  00023	88 55 e4	 mov	 BYTE PTR __k$[ebp], dl
  00026	8a 50 01	 mov	 dl, BYTE PTR [eax+1]
  00029	84 d2		 test	 dl, dl
  0002b	0f 84 90 01 00
	00		 je	 $LN95@LoadFloat_
  00031	b1 ec		 mov	 cl, -20			; ffffffecH
  00033	32 d1		 xor	 dl, cl
  00035	88 55 e5	 mov	 BYTE PTR __k$[ebp+1], dl
  00038	8a 50 02	 mov	 dl, BYTE PTR [eax+2]
  0003b	84 d2		 test	 dl, dl
  0003d	0f 84 78 01 00
	00		 je	 $LN94@LoadFloat_
  00043	80 f2 eb	 xor	 dl, -21			; ffffffebH
  00046	88 55 e6	 mov	 BYTE PTR __k$[ebp+2], dl
  00049	8a 50 03	 mov	 dl, BYTE PTR [eax+3]
  0004c	84 d2		 test	 dl, dl
  0004e	0f 84 61 01 00
	00		 je	 $LN93@LoadFloat_
  00054	80 f2 ea	 xor	 dl, -22			; ffffffeaH
  00057	88 55 e7	 mov	 BYTE PTR __k$[ebp+3], dl
  0005a	8a 50 04	 mov	 dl, BYTE PTR [eax+4]
  0005d	84 d2		 test	 dl, dl
  0005f	0f 84 4a 01 00
	00		 je	 $LN92@LoadFloat_
  00065	80 f2 ed	 xor	 dl, -19			; ffffffedH
  00068	88 55 e8	 mov	 BYTE PTR __k$[ebp+4], dl
  0006b	8a 50 05	 mov	 dl, BYTE PTR [eax+5]
  0006e	84 d2		 test	 dl, dl
  00070	0f 84 34 01 00
	00		 je	 $LN91@LoadFloat_
  00076	32 d1		 xor	 dl, cl
  00078	88 55 e9	 mov	 BYTE PTR __k$[ebp+5], dl
  0007b	8a 50 06	 mov	 dl, BYTE PTR [eax+6]
  0007e	84 d2		 test	 dl, dl
  00080	0f 84 1e 01 00
	00		 je	 $LN90@LoadFloat_
  00086	80 f2 eb	 xor	 dl, -21			; ffffffebH
  00089	88 55 ea	 mov	 BYTE PTR __k$[ebp+6], dl
  0008c	8a 50 07	 mov	 dl, BYTE PTR [eax+7]
  0008f	84 d2		 test	 dl, dl
  00091	0f 84 07 01 00
	00		 je	 $LN89@LoadFloat_
  00097	80 f2 ea	 xor	 dl, -22			; ffffffeaH
  0009a	88 55 eb	 mov	 BYTE PTR __k$[ebp+7], dl
  0009d	8a 50 08	 mov	 dl, BYTE PTR [eax+8]
  000a0	84 d2		 test	 dl, dl
  000a2	0f 84 f0 00 00
	00		 je	 $LN88@LoadFloat_
  000a8	80 f2 ed	 xor	 dl, -19			; ffffffedH
  000ab	88 55 ec	 mov	 BYTE PTR __k$[ebp+8], dl
  000ae	8a 50 09	 mov	 dl, BYTE PTR [eax+9]
  000b1	84 d2		 test	 dl, dl
  000b3	0f 84 da 00 00
	00		 je	 $LN87@LoadFloat_
  000b9	32 d1		 xor	 dl, cl
  000bb	88 55 ed	 mov	 BYTE PTR __k$[ebp+9], dl
  000be	8a 50 0a	 mov	 dl, BYTE PTR [eax+10]
  000c1	84 d2		 test	 dl, dl
  000c3	0f 84 c4 00 00
	00		 je	 $LN86@LoadFloat_
  000c9	80 f2 eb	 xor	 dl, -21			; ffffffebH
  000cc	88 55 ee	 mov	 BYTE PTR __k$[ebp+10], dl
  000cf	8a 50 0b	 mov	 dl, BYTE PTR [eax+11]
  000d2	84 d2		 test	 dl, dl
  000d4	0f 84 ad 00 00
	00		 je	 $LN85@LoadFloat_
  000da	80 f2 ea	 xor	 dl, -22			; ffffffeaH
  000dd	88 55 ef	 mov	 BYTE PTR __k$[ebp+11], dl
  000e0	8a 50 0c	 mov	 dl, BYTE PTR [eax+12]
  000e3	84 d2		 test	 dl, dl
  000e5	0f 84 96 00 00
	00		 je	 $LN84@LoadFloat_
  000eb	80 f2 ed	 xor	 dl, -19			; ffffffedH
  000ee	88 55 f0	 mov	 BYTE PTR __k$[ebp+12], dl
  000f1	8a 50 0d	 mov	 dl, BYTE PTR [eax+13]
  000f4	84 d2		 test	 dl, dl
  000f6	0f 84 80 00 00
	00		 je	 $LN83@LoadFloat_
  000fc	32 d1		 xor	 dl, cl
  000fe	88 55 f1	 mov	 BYTE PTR __k$[ebp+13], dl
  00101	8a 50 0e	 mov	 dl, BYTE PTR [eax+14]
  00104	84 d2		 test	 dl, dl
  00106	74 6e		 je	 SHORT $LN82@LoadFloat_
  00108	80 f2 eb	 xor	 dl, -21			; ffffffebH
  0010b	88 55 f2	 mov	 BYTE PTR __k$[ebp+14], dl
  0010e	8a 50 0f	 mov	 dl, BYTE PTR [eax+15]
  00111	84 d2		 test	 dl, dl
  00113	74 5b		 je	 SHORT $LN81@LoadFloat_
  00115	80 f2 ea	 xor	 dl, -22			; ffffffeaH
  00118	80 78 10 00	 cmp	 BYTE PTR [eax+16], 0
  0011c	88 55 f3	 mov	 BYTE PTR __k$[ebp+15], dl
  0011f	0f 84 a6 00 00
	00		 je	 $LN1@LoadFloat_
  00125	8a 50 11	 mov	 dl, BYTE PTR [eax+17]
  00128	84 d2		 test	 dl, dl
  0012a	74 3f		 je	 SHORT $LN79@LoadFloat_
  0012c	32 d1		 xor	 dl, cl
  0012e	88 55 f5	 mov	 BYTE PTR __k$[ebp+17], dl
  00131	8a 50 12	 mov	 dl, BYTE PTR [eax+18]
  00134	84 d2		 test	 dl, dl
  00136	74 2d		 je	 SHORT $LN78@LoadFloat_
  00138	80 f2 eb	 xor	 dl, -21			; ffffffebH
  0013b	88 55 f6	 mov	 BYTE PTR __k$[ebp+18], dl
  0013e	8a 50 13	 mov	 dl, BYTE PTR [eax+19]
  00141	84 d2		 test	 dl, dl
  00143	74 1a		 je	 SHORT $LN77@LoadFloat_
  00145	8a 40 14	 mov	 al, BYTE PTR [eax+20]
  00148	80 f2 ea	 xor	 dl, -22			; ffffffeaH
  0014b	88 55 f7	 mov	 BYTE PTR __k$[ebp+19], dl
  0014e	84 c0		 test	 al, al
  00150	74 07		 je	 SHORT $LN76@LoadFloat_
  00152	34 ed		 xor	 al, -19			; ffffffedH
  00154	88 45 f8	 mov	 BYTE PTR __k$[ebp+20], al
  00157	eb 72		 jmp	 SHORT $LN1@LoadFloat_
$LN76@LoadFloat_:
  00159	c6 45 f8 ed	 mov	 BYTE PTR __k$[ebp+20], -19 ; ffffffedH
  0015d	eb 6c		 jmp	 SHORT $LN1@LoadFloat_
$LN77@LoadFloat_:
  0015f	c6 45 f7 ea	 mov	 BYTE PTR __k$[ebp+19], -22 ; ffffffeaH
  00163	eb 66		 jmp	 SHORT $LN1@LoadFloat_
$LN78@LoadFloat_:
  00165	c6 45 f6 eb	 mov	 BYTE PTR __k$[ebp+18], -21 ; ffffffebH
  00169	eb 60		 jmp	 SHORT $LN1@LoadFloat_
$LN79@LoadFloat_:
  0016b	88 4d f5	 mov	 BYTE PTR __k$[ebp+17], cl
  0016e	eb 5b		 jmp	 SHORT $LN1@LoadFloat_
$LN81@LoadFloat_:
  00170	c6 45 f3 ea	 mov	 BYTE PTR __k$[ebp+15], -22 ; ffffffeaH
  00174	eb 55		 jmp	 SHORT $LN1@LoadFloat_
$LN82@LoadFloat_:
  00176	c6 45 f2 eb	 mov	 BYTE PTR __k$[ebp+14], -21 ; ffffffebH
  0017a	eb 4f		 jmp	 SHORT $LN1@LoadFloat_
$LN83@LoadFloat_:
  0017c	88 4d f1	 mov	 BYTE PTR __k$[ebp+13], cl
  0017f	eb 4a		 jmp	 SHORT $LN1@LoadFloat_
$LN84@LoadFloat_:
  00181	c6 45 f0 ed	 mov	 BYTE PTR __k$[ebp+12], -19 ; ffffffedH
  00185	eb 44		 jmp	 SHORT $LN1@LoadFloat_
$LN85@LoadFloat_:
  00187	c6 45 ef ea	 mov	 BYTE PTR __k$[ebp+11], -22 ; ffffffeaH
  0018b	eb 3e		 jmp	 SHORT $LN1@LoadFloat_
$LN86@LoadFloat_:
  0018d	c6 45 ee eb	 mov	 BYTE PTR __k$[ebp+10], -21 ; ffffffebH
  00191	eb 38		 jmp	 SHORT $LN1@LoadFloat_
$LN87@LoadFloat_:
  00193	88 4d ed	 mov	 BYTE PTR __k$[ebp+9], cl
  00196	eb 33		 jmp	 SHORT $LN1@LoadFloat_
$LN88@LoadFloat_:
  00198	c6 45 ec ed	 mov	 BYTE PTR __k$[ebp+8], -19 ; ffffffedH
  0019c	eb 2d		 jmp	 SHORT $LN1@LoadFloat_
$LN89@LoadFloat_:
  0019e	c6 45 eb ea	 mov	 BYTE PTR __k$[ebp+7], -22 ; ffffffeaH
  001a2	eb 27		 jmp	 SHORT $LN1@LoadFloat_
$LN90@LoadFloat_:
  001a4	c6 45 ea eb	 mov	 BYTE PTR __k$[ebp+6], -21 ; ffffffebH
  001a8	eb 21		 jmp	 SHORT $LN1@LoadFloat_
$LN91@LoadFloat_:
  001aa	88 4d e9	 mov	 BYTE PTR __k$[ebp+5], cl
  001ad	eb 1c		 jmp	 SHORT $LN1@LoadFloat_
$LN92@LoadFloat_:
  001af	c6 45 e8 ed	 mov	 BYTE PTR __k$[ebp+4], -19 ; ffffffedH
  001b3	eb 16		 jmp	 SHORT $LN1@LoadFloat_
$LN93@LoadFloat_:
  001b5	c6 45 e7 ea	 mov	 BYTE PTR __k$[ebp+3], -22 ; ffffffeaH
  001b9	eb 10		 jmp	 SHORT $LN1@LoadFloat_
$LN94@LoadFloat_:
  001bb	c6 45 e6 eb	 mov	 BYTE PTR __k$[ebp+2], -21 ; ffffffebH
  001bf	eb 0a		 jmp	 SHORT $LN1@LoadFloat_
$LN95@LoadFloat_:
  001c1	c6 45 e5 ec	 mov	 BYTE PTR __k$[ebp+1], -20 ; ffffffecH
  001c5	eb 04		 jmp	 SHORT $LN1@LoadFloat_
$LN96@LoadFloat_:
  001c7	c6 45 e4 ed	 mov	 BYTE PTR __k$[ebp], -19	; ffffffedH
$LN1@LoadFloat_:
  001cb	6a 04		 push	 4
  001cd	8d 45 e4	 lea	 eax, DWORD PTR __k$[ebp]
  001d0	c6 45 f4 00	 mov	 BYTE PTR __k$[ebp+16], 0
  001d4	5a		 pop	 edx
$LL104@LoadFloat_:
  001d5	81 30 ed ec eb
	ea		 xor	 DWORD PTR [eax], -353637139 ; eaebecedH
  001db	83 c0 04	 add	 eax, 4
  001de	4a		 dec	 edx
  001df	75 f4		 jne	 SHORT $LL104@LoadFloat_

; 137  : 		return LoadFloat(_k, f);

  001e1	f3 0f 10 45 0c	 movss	 xmm0, DWORD PTR _f$[ebp]
  001e6	51		 push	 ecx
  001e7	8d 45 e4	 lea	 eax, DWORD PTR __k$[ebp]
  001ea	f3 0f 11 04 24	 movss	 DWORD PTR [esp], xmm0
  001ef	50		 push	 eax
  001f0	8b ce		 mov	 ecx, esi
  001f2	ff 15 00 00 00
	00		 call	 DWORD PTR __imp_?LoadFloat@ioINILoader@@QAEMPBDM@Z

; 138  : 	}

  001f8	8b 4d fc	 mov	 ecx, DWORD PTR __$ArrayPad$[ebp]
  001fb	33 cd		 xor	 ecx, ebp
  001fd	5e		 pop	 esi
  001fe	e8 00 00 00 00	 call	 @__security_check_cookie@4
  00203	c9		 leave
  00204	c2 08 00	 ret	 8
??$LoadFloat_e@$0BB@@ioINILoader@@QAEMAAY0BB@$$CBDM@Z ENDP ; ioINILoader::LoadFloat_e<17>
_TEXT	ENDS
PUBLIC	__$ArrayPad$
PUBLIC	??$LoadFloat_e@$0BE@@ioINILoader@@QAEMAAY0BE@$$CBDM@Z ; ioINILoader::LoadFloat_e<20>
; Function compile flags: /Ogsp
;	COMDAT ??$LoadFloat_e@$0BE@@ioINILoader@@QAEMAAY0BE@$$CBDM@Z
_TEXT	SEGMENT
__k$ = -28						; size = 20
__$ArrayPad$ = -4					; size = 4
_k$ = 8							; size = 4
_f$ = 12						; size = 4
??$LoadFloat_e@$0BE@@ioINILoader@@QAEMAAY0BE@$$CBDM@Z PROC ; ioINILoader::LoadFloat_e<20>, COMDAT
; _this$ = ecx

; 135  : 	{

  00000	55		 push	 ebp
  00001	8b ec		 mov	 ebp, esp
  00003	83 ec 1c	 sub	 esp, 28			; 0000001cH
  00006	a1 00 00 00 00	 mov	 eax, DWORD PTR ___security_cookie
  0000b	33 c5		 xor	 eax, ebp
  0000d	89 45 fc	 mov	 DWORD PTR __$ArrayPad$[ebp], eax
  00010	8b 45 08	 mov	 eax, DWORD PTR _k$[ebp]

; 136  : 		_ENCSTR(k, _k);

  00013	8a 10		 mov	 dl, BYTE PTR [eax]
  00015	53		 push	 ebx
  00016	56		 push	 esi
  00017	8b f1		 mov	 esi, ecx
  00019	84 d2		 test	 dl, dl
  0001b	0f 84 dd 01 00
	00		 je	 $LN96@LoadFloat_@2
  00021	80 f2 ed	 xor	 dl, -19			; ffffffedH
  00024	88 55 e4	 mov	 BYTE PTR __k$[ebp], dl
  00027	8a 50 01	 mov	 dl, BYTE PTR [eax+1]
  0002a	84 d2		 test	 dl, dl
  0002c	0f 84 c6 01 00
	00		 je	 $LN95@LoadFloat_@2
  00032	b3 ec		 mov	 bl, -20			; ffffffecH
  00034	32 d3		 xor	 dl, bl
  00036	88 55 e5	 mov	 BYTE PTR __k$[ebp+1], dl
  00039	8a 50 02	 mov	 dl, BYTE PTR [eax+2]
  0003c	84 d2		 test	 dl, dl
  0003e	0f 84 ae 01 00
	00		 je	 $LN94@LoadFloat_@2
  00044	b1 eb		 mov	 cl, -21			; ffffffebH
  00046	32 d1		 xor	 dl, cl
  00048	88 55 e6	 mov	 BYTE PTR __k$[ebp+2], dl
  0004b	8a 50 03	 mov	 dl, BYTE PTR [eax+3]
  0004e	84 d2		 test	 dl, dl
  00050	0f 84 96 01 00
	00		 je	 $LN93@LoadFloat_@2
  00056	80 f2 ea	 xor	 dl, -22			; ffffffeaH
  00059	88 55 e7	 mov	 BYTE PTR __k$[ebp+3], dl
  0005c	8a 50 04	 mov	 dl, BYTE PTR [eax+4]
  0005f	84 d2		 test	 dl, dl
  00061	0f 84 7f 01 00
	00		 je	 $LN92@LoadFloat_@2
  00067	80 f2 ed	 xor	 dl, -19			; ffffffedH
  0006a	88 55 e8	 mov	 BYTE PTR __k$[ebp+4], dl
  0006d	8a 50 05	 mov	 dl, BYTE PTR [eax+5]
  00070	84 d2		 test	 dl, dl
  00072	0f 84 69 01 00
	00		 je	 $LN91@LoadFloat_@2
  00078	32 d3		 xor	 dl, bl
  0007a	88 55 e9	 mov	 BYTE PTR __k$[ebp+5], dl
  0007d	8a 50 06	 mov	 dl, BYTE PTR [eax+6]
  00080	84 d2		 test	 dl, dl
  00082	0f 84 54 01 00
	00		 je	 $LN90@LoadFloat_@2
  00088	32 d1		 xor	 dl, cl
  0008a	88 55 ea	 mov	 BYTE PTR __k$[ebp+6], dl
  0008d	8a 50 07	 mov	 dl, BYTE PTR [eax+7]
  00090	84 d2		 test	 dl, dl
  00092	0f 84 3e 01 00
	00		 je	 $LN89@LoadFloat_@2
  00098	80 f2 ea	 xor	 dl, -22			; ffffffeaH
  0009b	88 55 eb	 mov	 BYTE PTR __k$[ebp+7], dl
  0009e	8a 50 08	 mov	 dl, BYTE PTR [eax+8]
  000a1	84 d2		 test	 dl, dl
  000a3	0f 84 27 01 00
	00		 je	 $LN88@LoadFloat_@2
  000a9	80 f2 ed	 xor	 dl, -19			; ffffffedH
  000ac	88 55 ec	 mov	 BYTE PTR __k$[ebp+8], dl
  000af	8a 50 09	 mov	 dl, BYTE PTR [eax+9]
  000b2	84 d2		 test	 dl, dl
  000b4	0f 84 11 01 00
	00		 je	 $LN87@LoadFloat_@2
  000ba	32 d3		 xor	 dl, bl
  000bc	88 55 ed	 mov	 BYTE PTR __k$[ebp+9], dl
  000bf	8a 50 0a	 mov	 dl, BYTE PTR [eax+10]
  000c2	84 d2		 test	 dl, dl
  000c4	0f 84 fc 00 00
	00		 je	 $LN86@LoadFloat_@2
  000ca	32 d1		 xor	 dl, cl
  000cc	88 55 ee	 mov	 BYTE PTR __k$[ebp+10], dl
  000cf	8a 50 0b	 mov	 dl, BYTE PTR [eax+11]
  000d2	84 d2		 test	 dl, dl
  000d4	0f 84 e6 00 00
	00		 je	 $LN85@LoadFloat_@2
  000da	80 f2 ea	 xor	 dl, -22			; ffffffeaH
  000dd	88 55 ef	 mov	 BYTE PTR __k$[ebp+11], dl
  000e0	8a 50 0c	 mov	 dl, BYTE PTR [eax+12]
  000e3	84 d2		 test	 dl, dl
  000e5	0f 84 cf 00 00
	00		 je	 $LN84@LoadFloat_@2
  000eb	80 f2 ed	 xor	 dl, -19			; ffffffedH
  000ee	88 55 f0	 mov	 BYTE PTR __k$[ebp+12], dl
  000f1	8a 50 0d	 mov	 dl, BYTE PTR [eax+13]
  000f4	84 d2		 test	 dl, dl
  000f6	0f 84 b9 00 00
	00		 je	 $LN83@LoadFloat_@2
  000fc	32 d3		 xor	 dl, bl
  000fe	88 55 f1	 mov	 BYTE PTR __k$[ebp+13], dl
  00101	8a 50 0e	 mov	 dl, BYTE PTR [eax+14]
  00104	84 d2		 test	 dl, dl
  00106	0f 84 a4 00 00
	00		 je	 $LN82@LoadFloat_@2
  0010c	32 d1		 xor	 dl, cl
  0010e	88 55 f2	 mov	 BYTE PTR __k$[ebp+14], dl
  00111	8a 50 0f	 mov	 dl, BYTE PTR [eax+15]
  00114	84 d2		 test	 dl, dl
  00116	0f 84 8e 00 00
	00		 je	 $LN81@LoadFloat_@2
  0011c	80 f2 ea	 xor	 dl, -22			; ffffffeaH
  0011f	88 55 f3	 mov	 BYTE PTR __k$[ebp+15], dl
  00122	8a 50 10	 mov	 dl, BYTE PTR [eax+16]
  00125	84 d2		 test	 dl, dl
  00127	74 7b		 je	 SHORT $LN80@LoadFloat_@2
  00129	80 f2 ed	 xor	 dl, -19			; ffffffedH
  0012c	88 55 f4	 mov	 BYTE PTR __k$[ebp+16], dl
  0012f	8a 50 11	 mov	 dl, BYTE PTR [eax+17]
  00132	84 d2		 test	 dl, dl
  00134	74 69		 je	 SHORT $LN79@LoadFloat_@2
  00136	32 d3		 xor	 dl, bl
  00138	88 55 f5	 mov	 BYTE PTR __k$[ebp+17], dl
  0013b	8a 50 12	 mov	 dl, BYTE PTR [eax+18]
  0013e	84 d2		 test	 dl, dl
  00140	74 58		 je	 SHORT $LN78@LoadFloat_@2
  00142	32 d1		 xor	 dl, cl
  00144	80 78 13 00	 cmp	 BYTE PTR [eax+19], 0
  00148	88 55 f6	 mov	 BYTE PTR __k$[ebp+18], dl
  0014b	0f 84 b1 00 00
	00		 je	 $LN1@LoadFloat_@2
  00151	8a 50 14	 mov	 dl, BYTE PTR [eax+20]
  00154	84 d2		 test	 dl, dl
  00156	74 3c		 je	 SHORT $LN76@LoadFloat_@2
  00158	80 f2 ed	 xor	 dl, -19			; ffffffedH
  0015b	88 55 f8	 mov	 BYTE PTR __k$[ebp+20], dl
  0015e	8a 50 15	 mov	 dl, BYTE PTR [eax+21]
  00161	84 d2		 test	 dl, dl
  00163	74 2a		 je	 SHORT $LN75@LoadFloat_@2
  00165	32 d3		 xor	 dl, bl
  00167	88 55 f9	 mov	 BYTE PTR __k$[ebp+21], dl
  0016a	8a 50 16	 mov	 dl, BYTE PTR [eax+22]
  0016d	84 d2		 test	 dl, dl
  0016f	74 19		 je	 SHORT $LN74@LoadFloat_@2
  00171	8a 40 17	 mov	 al, BYTE PTR [eax+23]
  00174	32 d1		 xor	 dl, cl
  00176	88 55 fa	 mov	 BYTE PTR __k$[ebp+22], dl
  00179	84 c0		 test	 al, al
  0017b	74 07		 je	 SHORT $LN73@LoadFloat_@2
  0017d	34 ea		 xor	 al, -22			; ffffffeaH
  0017f	88 45 fb	 mov	 BYTE PTR __k$[ebp+23], al
  00182	eb 7e		 jmp	 SHORT $LN1@LoadFloat_@2
$LN73@LoadFloat_@2:
  00184	c6 45 fb ea	 mov	 BYTE PTR __k$[ebp+23], -22 ; ffffffeaH
  00188	eb 78		 jmp	 SHORT $LN1@LoadFloat_@2
$LN74@LoadFloat_@2:
  0018a	88 4d fa	 mov	 BYTE PTR __k$[ebp+22], cl
  0018d	eb 73		 jmp	 SHORT $LN1@LoadFloat_@2
$LN75@LoadFloat_@2:
  0018f	88 5d f9	 mov	 BYTE PTR __k$[ebp+21], bl
  00192	eb 6e		 jmp	 SHORT $LN1@LoadFloat_@2
$LN76@LoadFloat_@2:
  00194	c6 45 f8 ed	 mov	 BYTE PTR __k$[ebp+20], -19 ; ffffffedH
  00198	eb 68		 jmp	 SHORT $LN1@LoadFloat_@2
$LN78@LoadFloat_@2:
  0019a	88 4d f6	 mov	 BYTE PTR __k$[ebp+18], cl
  0019d	eb 63		 jmp	 SHORT $LN1@LoadFloat_@2
$LN79@LoadFloat_@2:
  0019f	88 5d f5	 mov	 BYTE PTR __k$[ebp+17], bl
  001a2	eb 5e		 jmp	 SHORT $LN1@LoadFloat_@2
$LN80@LoadFloat_@2:
  001a4	c6 45 f4 ed	 mov	 BYTE PTR __k$[ebp+16], -19 ; ffffffedH
  001a8	eb 58		 jmp	 SHORT $LN1@LoadFloat_@2
$LN81@LoadFloat_@2:
  001aa	c6 45 f3 ea	 mov	 BYTE PTR __k$[ebp+15], -22 ; ffffffeaH
  001ae	eb 52		 jmp	 SHORT $LN1@LoadFloat_@2
$LN82@LoadFloat_@2:
  001b0	88 4d f2	 mov	 BYTE PTR __k$[ebp+14], cl
  001b3	eb 4d		 jmp	 SHORT $LN1@LoadFloat_@2
$LN83@LoadFloat_@2:
  001b5	88 5d f1	 mov	 BYTE PTR __k$[ebp+13], bl
  001b8	eb 48		 jmp	 SHORT $LN1@LoadFloat_@2
$LN84@LoadFloat_@2:
  001ba	c6 45 f0 ed	 mov	 BYTE PTR __k$[ebp+12], -19 ; ffffffedH
  001be	eb 42		 jmp	 SHORT $LN1@LoadFloat_@2
$LN85@LoadFloat_@2:
  001c0	c6 45 ef ea	 mov	 BYTE PTR __k$[ebp+11], -22 ; ffffffeaH
  001c4	eb 3c		 jmp	 SHORT $LN1@LoadFloat_@2
$LN86@LoadFloat_@2:
  001c6	88 4d ee	 mov	 BYTE PTR __k$[ebp+10], cl
  001c9	eb 37		 jmp	 SHORT $LN1@LoadFloat_@2
$LN87@LoadFloat_@2:
  001cb	88 5d ed	 mov	 BYTE PTR __k$[ebp+9], bl
  001ce	eb 32		 jmp	 SHORT $LN1@LoadFloat_@2
$LN88@LoadFloat_@2:
  001d0	c6 45 ec ed	 mov	 BYTE PTR __k$[ebp+8], -19 ; ffffffedH
  001d4	eb 2c		 jmp	 SHORT $LN1@LoadFloat_@2
$LN89@LoadFloat_@2:
  001d6	c6 45 eb ea	 mov	 BYTE PTR __k$[ebp+7], -22 ; ffffffeaH
  001da	eb 26		 jmp	 SHORT $LN1@LoadFloat_@2
$LN90@LoadFloat_@2:
  001dc	88 4d ea	 mov	 BYTE PTR __k$[ebp+6], cl
  001df	eb 21		 jmp	 SHORT $LN1@LoadFloat_@2
$LN91@LoadFloat_@2:
  001e1	88 5d e9	 mov	 BYTE PTR __k$[ebp+5], bl
  001e4	eb 1c		 jmp	 SHORT $LN1@LoadFloat_@2
$LN92@LoadFloat_@2:
  001e6	c6 45 e8 ed	 mov	 BYTE PTR __k$[ebp+4], -19 ; ffffffedH
  001ea	eb 16		 jmp	 SHORT $LN1@LoadFloat_@2
$LN93@LoadFloat_@2:
  001ec	c6 45 e7 ea	 mov	 BYTE PTR __k$[ebp+3], -22 ; ffffffeaH
  001f0	eb 10		 jmp	 SHORT $LN1@LoadFloat_@2
$LN94@LoadFloat_@2:
  001f2	c6 45 e6 eb	 mov	 BYTE PTR __k$[ebp+2], -21 ; ffffffebH
  001f6	eb 0a		 jmp	 SHORT $LN1@LoadFloat_@2
$LN95@LoadFloat_@2:
  001f8	c6 45 e5 ec	 mov	 BYTE PTR __k$[ebp+1], -20 ; ffffffecH
  001fc	eb 04		 jmp	 SHORT $LN1@LoadFloat_@2
$LN96@LoadFloat_@2:
  001fe	c6 45 e4 ed	 mov	 BYTE PTR __k$[ebp], -19	; ffffffedH
$LN1@LoadFloat_@2:
  00202	6a 04		 push	 4
  00204	8d 45 e4	 lea	 eax, DWORD PTR __k$[ebp]
  00207	c6 45 f7 00	 mov	 BYTE PTR __k$[ebp+19], 0
  0020b	5a		 pop	 edx
$LL104@LoadFloat_@2:
  0020c	81 30 ed ec eb
	ea		 xor	 DWORD PTR [eax], -353637139 ; eaebecedH
  00212	83 c0 04	 add	 eax, 4
  00215	4a		 dec	 edx
  00216	75 f4		 jne	 SHORT $LL104@LoadFloat_@2
  00218	6a 10		 push	 16			; 00000010H
  0021a	58		 pop	 eax
$LL101@LoadFloat_@2:
  0021b	8b c8		 mov	 ecx, eax
  0021d	81 e1 03 00 00
	80		 and	 ecx, -2147483645	; 80000003H
  00223	79 05		 jns	 SHORT $LN111@LoadFloat_@2
  00225	49		 dec	 ecx
  00226	83 c9 fc	 or	 ecx, -4			; fffffffcH
  00229	41		 inc	 ecx
$LN111@LoadFloat_@2:
  0022a	b2 ed		 mov	 dl, -19			; ffffffedH
  0022c	2a d1		 sub	 dl, cl
  0022e	30 54 05 e4	 xor	 BYTE PTR __k$[ebp+eax], dl
  00232	40		 inc	 eax
  00233	83 f8 13	 cmp	 eax, 19			; 00000013H
  00236	7c e3		 jl	 SHORT $LL101@LoadFloat_@2

; 137  : 		return LoadFloat(_k, f);

  00238	f3 0f 10 45 0c	 movss	 xmm0, DWORD PTR _f$[ebp]
  0023d	51		 push	 ecx
  0023e	8d 45 e4	 lea	 eax, DWORD PTR __k$[ebp]
  00241	f3 0f 11 04 24	 movss	 DWORD PTR [esp], xmm0
  00246	50		 push	 eax
  00247	8b ce		 mov	 ecx, esi
  00249	ff 15 00 00 00
	00		 call	 DWORD PTR __imp_?LoadFloat@ioINILoader@@QAEMPBDM@Z

; 138  : 	}

  0024f	8b 4d fc	 mov	 ecx, DWORD PTR __$ArrayPad$[ebp]
  00252	5e		 pop	 esi
  00253	33 cd		 xor	 ecx, ebp
  00255	5b		 pop	 ebx
  00256	e8 00 00 00 00	 call	 @__security_check_cookie@4
  0025b	c9		 leave
  0025c	c2 08 00	 ret	 8
??$LoadFloat_e@$0BE@@ioINILoader@@QAEMAAY0BE@$$CBDM@Z ENDP ; ioINILoader::LoadFloat_e<20>
_TEXT	ENDS
PUBLIC	__$ArrayPad$
PUBLIC	??$LoadInt_e@$0BC@@ioINILoader@@QAEHAAY0BC@$$CBDH@Z ; ioINILoader::LoadInt_e<18>
EXTRN	__imp_?LoadInt@ioINILoader@@QAEHPBDH@Z:PROC
; Function compile flags: /Ogsp
;	COMDAT ??$LoadInt_e@$0BC@@ioINILoader@@QAEHAAY0BC@$$CBDH@Z
_TEXT	SEGMENT
__k$ = -28						; size = 18
__$ArrayPad$ = -4					; size = 4
_k$ = 8							; size = 4
_i$ = 12						; size = 4
??$LoadInt_e@$0BC@@ioINILoader@@QAEHAAY0BC@$$CBDH@Z PROC ; ioINILoader::LoadInt_e<18>, COMDAT
; _this$ = ecx

; 118  : 	{

  00000	55		 push	 ebp
  00001	8b ec		 mov	 ebp, esp
  00003	83 ec 1c	 sub	 esp, 28			; 0000001cH
  00006	a1 00 00 00 00	 mov	 eax, DWORD PTR ___security_cookie
  0000b	33 c5		 xor	 eax, ebp
  0000d	89 45 fc	 mov	 DWORD PTR __$ArrayPad$[ebp], eax
  00010	8b 45 08	 mov	 eax, DWORD PTR _k$[ebp]

; 119  : 		_ENCSTR(k, _k);

  00013	8a 10		 mov	 dl, BYTE PTR [eax]
  00015	56		 push	 esi
  00016	8b f1		 mov	 esi, ecx
  00018	84 d2		 test	 dl, dl
  0001a	0f 84 be 01 00
	00		 je	 $LN96@LoadInt_e
  00020	80 f2 ed	 xor	 dl, -19			; ffffffedH
  00023	88 55 e4	 mov	 BYTE PTR __k$[ebp], dl
  00026	8a 50 01	 mov	 dl, BYTE PTR [eax+1]
  00029	84 d2		 test	 dl, dl
  0002b	0f 84 a7 01 00
	00		 je	 $LN95@LoadInt_e
  00031	80 f2 ec	 xor	 dl, -20			; ffffffecH
  00034	88 55 e5	 mov	 BYTE PTR __k$[ebp+1], dl
  00037	8a 50 02	 mov	 dl, BYTE PTR [eax+2]
  0003a	84 d2		 test	 dl, dl
  0003c	0f 84 90 01 00
	00		 je	 $LN94@LoadInt_e
  00042	b1 eb		 mov	 cl, -21			; ffffffebH
  00044	32 d1		 xor	 dl, cl
  00046	88 55 e6	 mov	 BYTE PTR __k$[ebp+2], dl
  00049	8a 50 03	 mov	 dl, BYTE PTR [eax+3]
  0004c	84 d2		 test	 dl, dl
  0004e	0f 84 78 01 00
	00		 je	 $LN93@LoadInt_e
  00054	80 f2 ea	 xor	 dl, -22			; ffffffeaH
  00057	88 55 e7	 mov	 BYTE PTR __k$[ebp+3], dl
  0005a	8a 50 04	 mov	 dl, BYTE PTR [eax+4]
  0005d	84 d2		 test	 dl, dl
  0005f	0f 84 61 01 00
	00		 je	 $LN92@LoadInt_e
  00065	80 f2 ed	 xor	 dl, -19			; ffffffedH
  00068	88 55 e8	 mov	 BYTE PTR __k$[ebp+4], dl
  0006b	8a 50 05	 mov	 dl, BYTE PTR [eax+5]
  0006e	84 d2		 test	 dl, dl
  00070	0f 84 4a 01 00
	00		 je	 $LN91@LoadInt_e
  00076	80 f2 ec	 xor	 dl, -20			; ffffffecH
  00079	88 55 e9	 mov	 BYTE PTR __k$[ebp+5], dl
  0007c	8a 50 06	 mov	 dl, BYTE PTR [eax+6]
  0007f	84 d2		 test	 dl, dl
  00081	0f 84 34 01 00
	00		 je	 $LN90@LoadInt_e
  00087	32 d1		 xor	 dl, cl
  00089	88 55 ea	 mov	 BYTE PTR __k$[ebp+6], dl
  0008c	8a 50 07	 mov	 dl, BYTE PTR [eax+7]
  0008f	84 d2		 test	 dl, dl
  00091	0f 84 1e 01 00
	00		 je	 $LN89@LoadInt_e
  00097	80 f2 ea	 xor	 dl, -22			; ffffffeaH
  0009a	88 55 eb	 mov	 BYTE PTR __k$[ebp+7], dl
  0009d	8a 50 08	 mov	 dl, BYTE PTR [eax+8]
  000a0	84 d2		 test	 dl, dl
  000a2	0f 84 07 01 00
	00		 je	 $LN88@LoadInt_e
  000a8	80 f2 ed	 xor	 dl, -19			; ffffffedH
  000ab	88 55 ec	 mov	 BYTE PTR __k$[ebp+8], dl
  000ae	8a 50 09	 mov	 dl, BYTE PTR [eax+9]
  000b1	84 d2		 test	 dl, dl
  000b3	0f 84 f0 00 00
	00		 je	 $LN87@LoadInt_e
  000b9	80 f2 ec	 xor	 dl, -20			; ffffffecH
  000bc	88 55 ed	 mov	 BYTE PTR __k$[ebp+9], dl
  000bf	8a 50 0a	 mov	 dl, BYTE PTR [eax+10]
  000c2	84 d2		 test	 dl, dl
  000c4	0f 84 da 00 00
	00		 je	 $LN86@LoadInt_e
  000ca	32 d1		 xor	 dl, cl
  000cc	88 55 ee	 mov	 BYTE PTR __k$[ebp+10], dl
  000cf	8a 50 0b	 mov	 dl, BYTE PTR [eax+11]
  000d2	84 d2		 test	 dl, dl
  000d4	0f 84 c4 00 00
	00		 je	 $LN85@LoadInt_e
  000da	80 f2 ea	 xor	 dl, -22			; ffffffeaH
  000dd	88 55 ef	 mov	 BYTE PTR __k$[ebp+11], dl
  000e0	8a 50 0c	 mov	 dl, BYTE PTR [eax+12]
  000e3	84 d2		 test	 dl, dl
  000e5	0f 84 ad 00 00
	00		 je	 $LN84@LoadInt_e
  000eb	80 f2 ed	 xor	 dl, -19			; ffffffedH
  000ee	88 55 f0	 mov	 BYTE PTR __k$[ebp+12], dl
  000f1	8a 50 0d	 mov	 dl, BYTE PTR [eax+13]
  000f4	84 d2		 test	 dl, dl
  000f6	0f 84 96 00 00
	00		 je	 $LN83@LoadInt_e
  000fc	80 f2 ec	 xor	 dl, -20			; ffffffecH
  000ff	88 55 f1	 mov	 BYTE PTR __k$[ebp+13], dl
  00102	8a 50 0e	 mov	 dl, BYTE PTR [eax+14]
  00105	84 d2		 test	 dl, dl
  00107	0f 84 80 00 00
	00		 je	 $LN82@LoadInt_e
  0010d	32 d1		 xor	 dl, cl
  0010f	88 55 f2	 mov	 BYTE PTR __k$[ebp+14], dl
  00112	8a 50 0f	 mov	 dl, BYTE PTR [eax+15]
  00115	84 d2		 test	 dl, dl
  00117	74 6e		 je	 SHORT $LN81@LoadInt_e
  00119	80 f2 ea	 xor	 dl, -22			; ffffffeaH
  0011c	88 55 f3	 mov	 BYTE PTR __k$[ebp+15], dl
  0011f	8a 50 10	 mov	 dl, BYTE PTR [eax+16]
  00122	84 d2		 test	 dl, dl
  00124	74 5b		 je	 SHORT $LN80@LoadInt_e
  00126	80 f2 ed	 xor	 dl, -19			; ffffffedH
  00129	80 78 11 00	 cmp	 BYTE PTR [eax+17], 0
  0012d	88 55 f4	 mov	 BYTE PTR __k$[ebp+16], dl
  00130	0f 84 ac 00 00
	00		 je	 $LN1@LoadInt_e
  00136	8a 50 12	 mov	 dl, BYTE PTR [eax+18]
  00139	84 d2		 test	 dl, dl
  0013b	74 3f		 je	 SHORT $LN78@LoadInt_e
  0013d	32 d1		 xor	 dl, cl
  0013f	88 55 f6	 mov	 BYTE PTR __k$[ebp+18], dl
  00142	8a 50 13	 mov	 dl, BYTE PTR [eax+19]
  00145	84 d2		 test	 dl, dl
  00147	74 2d		 je	 SHORT $LN77@LoadInt_e
  00149	80 f2 ea	 xor	 dl, -22			; ffffffeaH
  0014c	88 55 f7	 mov	 BYTE PTR __k$[ebp+19], dl
  0014f	8a 50 14	 mov	 dl, BYTE PTR [eax+20]
  00152	84 d2		 test	 dl, dl
  00154	74 1a		 je	 SHORT $LN76@LoadInt_e
  00156	8a 40 15	 mov	 al, BYTE PTR [eax+21]
  00159	80 f2 ed	 xor	 dl, -19			; ffffffedH
  0015c	88 55 f8	 mov	 BYTE PTR __k$[ebp+20], dl
  0015f	84 c0		 test	 al, al
  00161	74 07		 je	 SHORT $LN75@LoadInt_e
  00163	34 ec		 xor	 al, -20			; ffffffecH
  00165	88 45 f9	 mov	 BYTE PTR __k$[ebp+21], al
  00168	eb 78		 jmp	 SHORT $LN1@LoadInt_e
$LN75@LoadInt_e:
  0016a	c6 45 f9 ec	 mov	 BYTE PTR __k$[ebp+21], -20 ; ffffffecH
  0016e	eb 72		 jmp	 SHORT $LN1@LoadInt_e
$LN76@LoadInt_e:
  00170	c6 45 f8 ed	 mov	 BYTE PTR __k$[ebp+20], -19 ; ffffffedH
  00174	eb 6c		 jmp	 SHORT $LN1@LoadInt_e
$LN77@LoadInt_e:
  00176	c6 45 f7 ea	 mov	 BYTE PTR __k$[ebp+19], -22 ; ffffffeaH
  0017a	eb 66		 jmp	 SHORT $LN1@LoadInt_e
$LN78@LoadInt_e:
  0017c	88 4d f6	 mov	 BYTE PTR __k$[ebp+18], cl
  0017f	eb 61		 jmp	 SHORT $LN1@LoadInt_e
$LN80@LoadInt_e:
  00181	c6 45 f4 ed	 mov	 BYTE PTR __k$[ebp+16], -19 ; ffffffedH
  00185	eb 5b		 jmp	 SHORT $LN1@LoadInt_e
$LN81@LoadInt_e:
  00187	c6 45 f3 ea	 mov	 BYTE PTR __k$[ebp+15], -22 ; ffffffeaH
  0018b	eb 55		 jmp	 SHORT $LN1@LoadInt_e
$LN82@LoadInt_e:
  0018d	88 4d f2	 mov	 BYTE PTR __k$[ebp+14], cl
  00190	eb 50		 jmp	 SHORT $LN1@LoadInt_e
$LN83@LoadInt_e:
  00192	c6 45 f1 ec	 mov	 BYTE PTR __k$[ebp+13], -20 ; ffffffecH
  00196	eb 4a		 jmp	 SHORT $LN1@LoadInt_e
$LN84@LoadInt_e:
  00198	c6 45 f0 ed	 mov	 BYTE PTR __k$[ebp+12], -19 ; ffffffedH
  0019c	eb 44		 jmp	 SHORT $LN1@LoadInt_e
$LN85@LoadInt_e:
  0019e	c6 45 ef ea	 mov	 BYTE PTR __k$[ebp+11], -22 ; ffffffeaH
  001a2	eb 3e		 jmp	 SHORT $LN1@LoadInt_e
$LN86@LoadInt_e:
  001a4	88 4d ee	 mov	 BYTE PTR __k$[ebp+10], cl
  001a7	eb 39		 jmp	 SHORT $LN1@LoadInt_e
$LN87@LoadInt_e:
  001a9	c6 45 ed ec	 mov	 BYTE PTR __k$[ebp+9], -20 ; ffffffecH
  001ad	eb 33		 jmp	 SHORT $LN1@LoadInt_e
$LN88@LoadInt_e:
  001af	c6 45 ec ed	 mov	 BYTE PTR __k$[ebp+8], -19 ; ffffffedH
  001b3	eb 2d		 jmp	 SHORT $LN1@LoadInt_e
$LN89@LoadInt_e:
  001b5	c6 45 eb ea	 mov	 BYTE PTR __k$[ebp+7], -22 ; ffffffeaH
  001b9	eb 27		 jmp	 SHORT $LN1@LoadInt_e
$LN90@LoadInt_e:
  001bb	88 4d ea	 mov	 BYTE PTR __k$[ebp+6], cl
  001be	eb 22		 jmp	 SHORT $LN1@LoadInt_e
$LN91@LoadInt_e:
  001c0	c6 45 e9 ec	 mov	 BYTE PTR __k$[ebp+5], -20 ; ffffffecH
  001c4	eb 1c		 jmp	 SHORT $LN1@LoadInt_e
$LN92@LoadInt_e:
  001c6	c6 45 e8 ed	 mov	 BYTE PTR __k$[ebp+4], -19 ; ffffffedH
  001ca	eb 16		 jmp	 SHORT $LN1@LoadInt_e
$LN93@LoadInt_e:
  001cc	c6 45 e7 ea	 mov	 BYTE PTR __k$[ebp+3], -22 ; ffffffeaH
  001d0	eb 10		 jmp	 SHORT $LN1@LoadInt_e
$LN94@LoadInt_e:
  001d2	c6 45 e6 eb	 mov	 BYTE PTR __k$[ebp+2], -21 ; ffffffebH
  001d6	eb 0a		 jmp	 SHORT $LN1@LoadInt_e
$LN95@LoadInt_e:
  001d8	c6 45 e5 ec	 mov	 BYTE PTR __k$[ebp+1], -20 ; ffffffecH
  001dc	eb 04		 jmp	 SHORT $LN1@LoadInt_e
$LN96@LoadInt_e:
  001de	c6 45 e4 ed	 mov	 BYTE PTR __k$[ebp], -19	; ffffffedH
$LN1@LoadInt_e:
  001e2	6a 04		 push	 4
  001e4	8d 45 e4	 lea	 eax, DWORD PTR __k$[ebp]
  001e7	c6 45 f5 00	 mov	 BYTE PTR __k$[ebp+17], 0
  001eb	5a		 pop	 edx
$LL104@LoadInt_e:
  001ec	81 30 ed ec eb
	ea		 xor	 DWORD PTR [eax], -353637139 ; eaebecedH
  001f2	83 c0 04	 add	 eax, 4
  001f5	4a		 dec	 edx
  001f6	75 f4		 jne	 SHORT $LL104@LoadInt_e

; 120  : 		return LoadInt(_k, i);

  001f8	ff 75 0c	 push	 DWORD PTR _i$[ebp]
  001fb	80 75 f4 ed	 xor	 BYTE PTR __k$[ebp+16], -19 ; ffffffedH
  001ff	8d 45 e4	 lea	 eax, DWORD PTR __k$[ebp]
  00202	50		 push	 eax
  00203	8b ce		 mov	 ecx, esi
  00205	ff 15 00 00 00
	00		 call	 DWORD PTR __imp_?LoadInt@ioINILoader@@QAEHPBDH@Z

; 121  : 	}

  0020b	8b 4d fc	 mov	 ecx, DWORD PTR __$ArrayPad$[ebp]
  0020e	33 cd		 xor	 ecx, ebp
  00210	5e		 pop	 esi
  00211	e8 00 00 00 00	 call	 @__security_check_cookie@4
  00216	c9		 leave
  00217	c2 08 00	 ret	 8
??$LoadInt_e@$0BC@@ioINILoader@@QAEHAAY0BC@$$CBDH@Z ENDP ; ioINILoader::LoadInt_e<18>
_TEXT	ENDS
PUBLIC	__$ArrayPad$
PUBLIC	??$LoadInt_e@$0BB@@ioINILoader@@QAEHAAY0BB@$$CBDH@Z ; ioINILoader::LoadInt_e<17>
; Function compile flags: /Ogsp
;	COMDAT ??$LoadInt_e@$0BB@@ioINILoader@@QAEHAAY0BB@$$CBDH@Z
_TEXT	SEGMENT
__k$ = -28						; size = 17
__$ArrayPad$ = -4					; size = 4
_k$ = 8							; size = 4
_i$ = 12						; size = 4
??$LoadInt_e@$0BB@@ioINILoader@@QAEHAAY0BB@$$CBDH@Z PROC ; ioINILoader::LoadInt_e<17>, COMDAT
; _this$ = ecx

; 118  : 	{

  00000	55		 push	 ebp
  00001	8b ec		 mov	 ebp, esp
  00003	83 ec 1c	 sub	 esp, 28			; 0000001cH
  00006	a1 00 00 00 00	 mov	 eax, DWORD PTR ___security_cookie
  0000b	33 c5		 xor	 eax, ebp
  0000d	89 45 fc	 mov	 DWORD PTR __$ArrayPad$[ebp], eax
  00010	8b 45 08	 mov	 eax, DWORD PTR _k$[ebp]

; 119  : 		_ENCSTR(k, _k);

  00013	8a 10		 mov	 dl, BYTE PTR [eax]
  00015	56		 push	 esi
  00016	8b f1		 mov	 esi, ecx
  00018	84 d2		 test	 dl, dl
  0001a	0f 84 a7 01 00
	00		 je	 $LN96@LoadInt_e@2
  00020	80 f2 ed	 xor	 dl, -19			; ffffffedH
  00023	88 55 e4	 mov	 BYTE PTR __k$[ebp], dl
  00026	8a 50 01	 mov	 dl, BYTE PTR [eax+1]
  00029	84 d2		 test	 dl, dl
  0002b	0f 84 90 01 00
	00		 je	 $LN95@LoadInt_e@2
  00031	b1 ec		 mov	 cl, -20			; ffffffecH
  00033	32 d1		 xor	 dl, cl
  00035	88 55 e5	 mov	 BYTE PTR __k$[ebp+1], dl
  00038	8a 50 02	 mov	 dl, BYTE PTR [eax+2]
  0003b	84 d2		 test	 dl, dl
  0003d	0f 84 78 01 00
	00		 je	 $LN94@LoadInt_e@2
  00043	80 f2 eb	 xor	 dl, -21			; ffffffebH
  00046	88 55 e6	 mov	 BYTE PTR __k$[ebp+2], dl
  00049	8a 50 03	 mov	 dl, BYTE PTR [eax+3]
  0004c	84 d2		 test	 dl, dl
  0004e	0f 84 61 01 00
	00		 je	 $LN93@LoadInt_e@2
  00054	80 f2 ea	 xor	 dl, -22			; ffffffeaH
  00057	88 55 e7	 mov	 BYTE PTR __k$[ebp+3], dl
  0005a	8a 50 04	 mov	 dl, BYTE PTR [eax+4]
  0005d	84 d2		 test	 dl, dl
  0005f	0f 84 4a 01 00
	00		 je	 $LN92@LoadInt_e@2
  00065	80 f2 ed	 xor	 dl, -19			; ffffffedH
  00068	88 55 e8	 mov	 BYTE PTR __k$[ebp+4], dl
  0006b	8a 50 05	 mov	 dl, BYTE PTR [eax+5]
  0006e	84 d2		 test	 dl, dl
  00070	0f 84 34 01 00
	00		 je	 $LN91@LoadInt_e@2
  00076	32 d1		 xor	 dl, cl
  00078	88 55 e9	 mov	 BYTE PTR __k$[ebp+5], dl
  0007b	8a 50 06	 mov	 dl, BYTE PTR [eax+6]
  0007e	84 d2		 test	 dl, dl
  00080	0f 84 1e 01 00
	00		 je	 $LN90@LoadInt_e@2
  00086	80 f2 eb	 xor	 dl, -21			; ffffffebH
  00089	88 55 ea	 mov	 BYTE PTR __k$[ebp+6], dl
  0008c	8a 50 07	 mov	 dl, BYTE PTR [eax+7]
  0008f	84 d2		 test	 dl, dl
  00091	0f 84 07 01 00
	00		 je	 $LN89@LoadInt_e@2
  00097	80 f2 ea	 xor	 dl, -22			; ffffffeaH
  0009a	88 55 eb	 mov	 BYTE PTR __k$[ebp+7], dl
  0009d	8a 50 08	 mov	 dl, BYTE PTR [eax+8]
  000a0	84 d2		 test	 dl, dl
  000a2	0f 84 f0 00 00
	00		 je	 $LN88@LoadInt_e@2
  000a8	80 f2 ed	 xor	 dl, -19			; ffffffedH
  000ab	88 55 ec	 mov	 BYTE PTR __k$[ebp+8], dl
  000ae	8a 50 09	 mov	 dl, BYTE PTR [eax+9]
  000b1	84 d2		 test	 dl, dl
  000b3	0f 84 da 00 00
	00		 je	 $LN87@LoadInt_e@2
  000b9	32 d1		 xor	 dl, cl
  000bb	88 55 ed	 mov	 BYTE PTR __k$[ebp+9], dl
  000be	8a 50 0a	 mov	 dl, BYTE PTR [eax+10]
  000c1	84 d2		 test	 dl, dl
  000c3	0f 84 c4 00 00
	00		 je	 $LN86@LoadInt_e@2
  000c9	80 f2 eb	 xor	 dl, -21			; ffffffebH
  000cc	88 55 ee	 mov	 BYTE PTR __k$[ebp+10], dl
  000cf	8a 50 0b	 mov	 dl, BYTE PTR [eax+11]
  000d2	84 d2		 test	 dl, dl
  000d4	0f 84 ad 00 00
	00		 je	 $LN85@LoadInt_e@2
  000da	80 f2 ea	 xor	 dl, -22			; ffffffeaH
  000dd	88 55 ef	 mov	 BYTE PTR __k$[ebp+11], dl
  000e0	8a 50 0c	 mov	 dl, BYTE PTR [eax+12]
  000e3	84 d2		 test	 dl, dl
  000e5	0f 84 96 00 00
	00		 je	 $LN84@LoadInt_e@2
  000eb	80 f2 ed	 xor	 dl, -19			; ffffffedH
  000ee	88 55 f0	 mov	 BYTE PTR __k$[ebp+12], dl
  000f1	8a 50 0d	 mov	 dl, BYTE PTR [eax+13]
  000f4	84 d2		 test	 dl, dl
  000f6	0f 84 80 00 00
	00		 je	 $LN83@LoadInt_e@2
  000fc	32 d1		 xor	 dl, cl
  000fe	88 55 f1	 mov	 BYTE PTR __k$[ebp+13], dl
  00101	8a 50 0e	 mov	 dl, BYTE PTR [eax+14]
  00104	84 d2		 test	 dl, dl
  00106	74 6e		 je	 SHORT $LN82@LoadInt_e@2
  00108	80 f2 eb	 xor	 dl, -21			; ffffffebH
  0010b	88 55 f2	 mov	 BYTE PTR __k$[ebp+14], dl
  0010e	8a 50 0f	 mov	 dl, BYTE PTR [eax+15]
  00111	84 d2		 test	 dl, dl
  00113	74 5b		 je	 SHORT $LN81@LoadInt_e@2
  00115	80 f2 ea	 xor	 dl, -22			; ffffffeaH
  00118	80 78 10 00	 cmp	 BYTE PTR [eax+16], 0
  0011c	88 55 f3	 mov	 BYTE PTR __k$[ebp+15], dl
  0011f	0f 84 a6 00 00
	00		 je	 $LN1@LoadInt_e@2
  00125	8a 50 11	 mov	 dl, BYTE PTR [eax+17]
  00128	84 d2		 test	 dl, dl
  0012a	74 3f		 je	 SHORT $LN79@LoadInt_e@2
  0012c	32 d1		 xor	 dl, cl
  0012e	88 55 f5	 mov	 BYTE PTR __k$[ebp+17], dl
  00131	8a 50 12	 mov	 dl, BYTE PTR [eax+18]
  00134	84 d2		 test	 dl, dl
  00136	74 2d		 je	 SHORT $LN78@LoadInt_e@2
  00138	80 f2 eb	 xor	 dl, -21			; ffffffebH
  0013b	88 55 f6	 mov	 BYTE PTR __k$[ebp+18], dl
  0013e	8a 50 13	 mov	 dl, BYTE PTR [eax+19]
  00141	84 d2		 test	 dl, dl
  00143	74 1a		 je	 SHORT $LN77@LoadInt_e@2
  00145	8a 40 14	 mov	 al, BYTE PTR [eax+20]
  00148	80 f2 ea	 xor	 dl, -22			; ffffffeaH
  0014b	88 55 f7	 mov	 BYTE PTR __k$[ebp+19], dl
  0014e	84 c0		 test	 al, al
  00150	74 07		 je	 SHORT $LN76@LoadInt_e@2
  00152	34 ed		 xor	 al, -19			; ffffffedH
  00154	88 45 f8	 mov	 BYTE PTR __k$[ebp+20], al
  00157	eb 72		 jmp	 SHORT $LN1@LoadInt_e@2
$LN76@LoadInt_e@2:
  00159	c6 45 f8 ed	 mov	 BYTE PTR __k$[ebp+20], -19 ; ffffffedH
  0015d	eb 6c		 jmp	 SHORT $LN1@LoadInt_e@2
$LN77@LoadInt_e@2:
  0015f	c6 45 f7 ea	 mov	 BYTE PTR __k$[ebp+19], -22 ; ffffffeaH
  00163	eb 66		 jmp	 SHORT $LN1@LoadInt_e@2
$LN78@LoadInt_e@2:
  00165	c6 45 f6 eb	 mov	 BYTE PTR __k$[ebp+18], -21 ; ffffffebH
  00169	eb 60		 jmp	 SHORT $LN1@LoadInt_e@2
$LN79@LoadInt_e@2:
  0016b	88 4d f5	 mov	 BYTE PTR __k$[ebp+17], cl
  0016e	eb 5b		 jmp	 SHORT $LN1@LoadInt_e@2
$LN81@LoadInt_e@2:
  00170	c6 45 f3 ea	 mov	 BYTE PTR __k$[ebp+15], -22 ; ffffffeaH
  00174	eb 55		 jmp	 SHORT $LN1@LoadInt_e@2
$LN82@LoadInt_e@2:
  00176	c6 45 f2 eb	 mov	 BYTE PTR __k$[ebp+14], -21 ; ffffffebH
  0017a	eb 4f		 jmp	 SHORT $LN1@LoadInt_e@2
$LN83@LoadInt_e@2:
  0017c	88 4d f1	 mov	 BYTE PTR __k$[ebp+13], cl
  0017f	eb 4a		 jmp	 SHORT $LN1@LoadInt_e@2
$LN84@LoadInt_e@2:
  00181	c6 45 f0 ed	 mov	 BYTE PTR __k$[ebp+12], -19 ; ffffffedH
  00185	eb 44		 jmp	 SHORT $LN1@LoadInt_e@2
$LN85@LoadInt_e@2:
  00187	c6 45 ef ea	 mov	 BYTE PTR __k$[ebp+11], -22 ; ffffffeaH
  0018b	eb 3e		 jmp	 SHORT $LN1@LoadInt_e@2
$LN86@LoadInt_e@2:
  0018d	c6 45 ee eb	 mov	 BYTE PTR __k$[ebp+10], -21 ; ffffffebH
  00191	eb 38		 jmp	 SHORT $LN1@LoadInt_e@2
$LN87@LoadInt_e@2:
  00193	88 4d ed	 mov	 BYTE PTR __k$[ebp+9], cl
  00196	eb 33		 jmp	 SHORT $LN1@LoadInt_e@2
$LN88@LoadInt_e@2:
  00198	c6 45 ec ed	 mov	 BYTE PTR __k$[ebp+8], -19 ; ffffffedH
  0019c	eb 2d		 jmp	 SHORT $LN1@LoadInt_e@2
$LN89@LoadInt_e@2:
  0019e	c6 45 eb ea	 mov	 BYTE PTR __k$[ebp+7], -22 ; ffffffeaH
  001a2	eb 27		 jmp	 SHORT $LN1@LoadInt_e@2
$LN90@LoadInt_e@2:
  001a4	c6 45 ea eb	 mov	 BYTE PTR __k$[ebp+6], -21 ; ffffffebH
  001a8	eb 21		 jmp	 SHORT $LN1@LoadInt_e@2
$LN91@LoadInt_e@2:
  001aa	88 4d e9	 mov	 BYTE PTR __k$[ebp+5], cl
  001ad	eb 1c		 jmp	 SHORT $LN1@LoadInt_e@2
$LN92@LoadInt_e@2:
  001af	c6 45 e8 ed	 mov	 BYTE PTR __k$[ebp+4], -19 ; ffffffedH
  001b3	eb 16		 jmp	 SHORT $LN1@LoadInt_e@2
$LN93@LoadInt_e@2:
  001b5	c6 45 e7 ea	 mov	 BYTE PTR __k$[ebp+3], -22 ; ffffffeaH
  001b9	eb 10		 jmp	 SHORT $LN1@LoadInt_e@2
$LN94@LoadInt_e@2:
  001bb	c6 45 e6 eb	 mov	 BYTE PTR __k$[ebp+2], -21 ; ffffffebH
  001bf	eb 0a		 jmp	 SHORT $LN1@LoadInt_e@2
$LN95@LoadInt_e@2:
  001c1	c6 45 e5 ec	 mov	 BYTE PTR __k$[ebp+1], -20 ; ffffffecH
  001c5	eb 04		 jmp	 SHORT $LN1@LoadInt_e@2
$LN96@LoadInt_e@2:
  001c7	c6 45 e4 ed	 mov	 BYTE PTR __k$[ebp], -19	; ffffffedH
$LN1@LoadInt_e@2:
  001cb	6a 04		 push	 4
  001cd	8d 45 e4	 lea	 eax, DWORD PTR __k$[ebp]
  001d0	c6 45 f4 00	 mov	 BYTE PTR __k$[ebp+16], 0
  001d4	5a		 pop	 edx
$LL104@LoadInt_e@2:
  001d5	81 30 ed ec eb
	ea		 xor	 DWORD PTR [eax], -353637139 ; eaebecedH
  001db	83 c0 04	 add	 eax, 4
  001de	4a		 dec	 edx
  001df	75 f4		 jne	 SHORT $LL104@LoadInt_e@2

; 120  : 		return LoadInt(_k, i);

  001e1	ff 75 0c	 push	 DWORD PTR _i$[ebp]
  001e4	8d 45 e4	 lea	 eax, DWORD PTR __k$[ebp]
  001e7	50		 push	 eax
  001e8	8b ce		 mov	 ecx, esi
  001ea	ff 15 00 00 00
	00		 call	 DWORD PTR __imp_?LoadInt@ioINILoader@@QAEHPBDH@Z

; 121  : 	}

  001f0	8b 4d fc	 mov	 ecx, DWORD PTR __$ArrayPad$[ebp]
  001f3	33 cd		 xor	 ecx, ebp
  001f5	5e		 pop	 esi
  001f6	e8 00 00 00 00	 call	 @__security_check_cookie@4
  001fb	c9		 leave
  001fc	c2 08 00	 ret	 8
??$LoadInt_e@$0BB@@ioINILoader@@QAEHAAY0BB@$$CBDH@Z ENDP ; ioINILoader::LoadInt_e<17>
_TEXT	ENDS
PUBLIC	_this$GSCopy$
PUBLIC	__$ArrayPad$
PUBLIC	??$LoadString_e@$0BM@@ioINILoader@@QAEXAAY0BM@$$CBDAAY00$$CBDPADH@Z ; ioINILoader::LoadString_e<28>
EXTRN	__imp_?LoadStringA@ioINILoader@@QAEXPBD0PADH@Z:PROC
; Function compile flags: /Ogsp
;	COMDAT ??$LoadString_e@$0BM@@ioINILoader@@QAEXAAY0BM@$$CBDAAY00$$CBDPADH@Z
_TEXT	SEGMENT
_this$GSCopy$ = -40					; size = 4
__k$ = -36						; size = 28
__$ArrayPad$ = -4					; size = 4
_k$ = 8							; size = 4
_d$ = 12						; size = 4
_b$ = 16						; size = 4
_i$ = 20						; size = 4
??$LoadString_e@$0BM@@ioINILoader@@QAEXAAY0BM@$$CBDAAY00$$CBDPADH@Z PROC ; ioINILoader::LoadString_e<28>, COMDAT
; _this$ = ecx

; 161  : 	{

  00000	55		 push	 ebp
  00001	8b ec		 mov	 ebp, esp
  00003	83 ec 28	 sub	 esp, 40			; 00000028H
  00006	a1 00 00 00 00	 mov	 eax, DWORD PTR ___security_cookie
  0000b	33 c5		 xor	 eax, ebp
  0000d	89 45 fc	 mov	 DWORD PTR __$ArrayPad$[ebp], eax
  00010	8b 45 08	 mov	 eax, DWORD PTR _k$[ebp]

; 162  : 		_ENCSTR(k, _k);

  00013	8a 10		 mov	 dl, BYTE PTR [eax]
  00015	53		 push	 ebx
  00016	56		 push	 esi
  00017	8b 75 0c	 mov	 esi, DWORD PTR _d$[ebp]
  0001a	57		 push	 edi
  0001b	8b 7d 10	 mov	 edi, DWORD PTR _b$[ebp]
  0001e	89 4d d8	 mov	 DWORD PTR _this$GSCopy$[ebp], ecx
  00021	84 d2		 test	 dl, dl
  00023	0f 84 a9 02 00
	00		 je	 $LN96@LoadString
  00029	80 f2 ed	 xor	 dl, -19			; ffffffedH
  0002c	88 55 dc	 mov	 BYTE PTR __k$[ebp], dl
  0002f	8a 50 01	 mov	 dl, BYTE PTR [eax+1]
  00032	84 d2		 test	 dl, dl
  00034	0f 84 92 02 00
	00		 je	 $LN95@LoadString
  0003a	b3 ec		 mov	 bl, -20			; ffffffecH
  0003c	32 d3		 xor	 dl, bl
  0003e	88 55 dd	 mov	 BYTE PTR __k$[ebp+1], dl
  00041	8a 50 02	 mov	 dl, BYTE PTR [eax+2]
  00044	84 d2		 test	 dl, dl
  00046	0f 84 7a 02 00
	00		 je	 $LN94@LoadString
  0004c	b1 eb		 mov	 cl, -21			; ffffffebH
  0004e	32 d1		 xor	 dl, cl
  00050	88 55 de	 mov	 BYTE PTR __k$[ebp+2], dl
  00053	8a 50 03	 mov	 dl, BYTE PTR [eax+3]
  00056	84 d2		 test	 dl, dl
  00058	0f 84 62 02 00
	00		 je	 $LN93@LoadString
  0005e	80 f2 ea	 xor	 dl, -22			; ffffffeaH
  00061	88 55 df	 mov	 BYTE PTR __k$[ebp+3], dl
  00064	8a 50 04	 mov	 dl, BYTE PTR [eax+4]
  00067	84 d2		 test	 dl, dl
  00069	0f 84 4b 02 00
	00		 je	 $LN92@LoadString
  0006f	80 f2 ed	 xor	 dl, -19			; ffffffedH
  00072	88 55 e0	 mov	 BYTE PTR __k$[ebp+4], dl
  00075	8a 50 05	 mov	 dl, BYTE PTR [eax+5]
  00078	84 d2		 test	 dl, dl
  0007a	0f 84 35 02 00
	00		 je	 $LN91@LoadString
  00080	32 d3		 xor	 dl, bl
  00082	88 55 e1	 mov	 BYTE PTR __k$[ebp+5], dl
  00085	8a 50 06	 mov	 dl, BYTE PTR [eax+6]
  00088	84 d2		 test	 dl, dl
  0008a	0f 84 20 02 00
	00		 je	 $LN90@LoadString
  00090	32 d1		 xor	 dl, cl
  00092	88 55 e2	 mov	 BYTE PTR __k$[ebp+6], dl
  00095	8a 50 07	 mov	 dl, BYTE PTR [eax+7]
  00098	84 d2		 test	 dl, dl
  0009a	0f 84 0a 02 00
	00		 je	 $LN89@LoadString
  000a0	80 f2 ea	 xor	 dl, -22			; ffffffeaH
  000a3	88 55 e3	 mov	 BYTE PTR __k$[ebp+7], dl
  000a6	8a 50 08	 mov	 dl, BYTE PTR [eax+8]
  000a9	84 d2		 test	 dl, dl
  000ab	0f 84 f3 01 00
	00		 je	 $LN88@LoadString
  000b1	80 f2 ed	 xor	 dl, -19			; ffffffedH
  000b4	88 55 e4	 mov	 BYTE PTR __k$[ebp+8], dl
  000b7	8a 50 09	 mov	 dl, BYTE PTR [eax+9]
  000ba	84 d2		 test	 dl, dl
  000bc	0f 84 dd 01 00
	00		 je	 $LN87@LoadString
  000c2	32 d3		 xor	 dl, bl
  000c4	88 55 e5	 mov	 BYTE PTR __k$[ebp+9], dl
  000c7	8a 50 0a	 mov	 dl, BYTE PTR [eax+10]
  000ca	84 d2		 test	 dl, dl
  000cc	0f 84 c8 01 00
	00		 je	 $LN86@LoadString
  000d2	32 d1		 xor	 dl, cl
  000d4	88 55 e6	 mov	 BYTE PTR __k$[ebp+10], dl
  000d7	8a 50 0b	 mov	 dl, BYTE PTR [eax+11]
  000da	84 d2		 test	 dl, dl
  000dc	0f 84 b2 01 00
	00		 je	 $LN85@LoadString
  000e2	80 f2 ea	 xor	 dl, -22			; ffffffeaH
  000e5	88 55 e7	 mov	 BYTE PTR __k$[ebp+11], dl
  000e8	8a 50 0c	 mov	 dl, BYTE PTR [eax+12]
  000eb	84 d2		 test	 dl, dl
  000ed	0f 84 9b 01 00
	00		 je	 $LN84@LoadString
  000f3	80 f2 ed	 xor	 dl, -19			; ffffffedH
  000f6	88 55 e8	 mov	 BYTE PTR __k$[ebp+12], dl
  000f9	8a 50 0d	 mov	 dl, BYTE PTR [eax+13]
  000fc	84 d2		 test	 dl, dl
  000fe	0f 84 85 01 00
	00		 je	 $LN83@LoadString
  00104	32 d3		 xor	 dl, bl
  00106	88 55 e9	 mov	 BYTE PTR __k$[ebp+13], dl
  00109	8a 50 0e	 mov	 dl, BYTE PTR [eax+14]
  0010c	84 d2		 test	 dl, dl
  0010e	0f 84 70 01 00
	00		 je	 $LN82@LoadString
  00114	32 d1		 xor	 dl, cl
  00116	88 55 ea	 mov	 BYTE PTR __k$[ebp+14], dl
  00119	8a 50 0f	 mov	 dl, BYTE PTR [eax+15]
  0011c	84 d2		 test	 dl, dl
  0011e	0f 84 5a 01 00
	00		 je	 $LN81@LoadString
  00124	80 f2 ea	 xor	 dl, -22			; ffffffeaH
  00127	88 55 eb	 mov	 BYTE PTR __k$[ebp+15], dl
  0012a	8a 50 10	 mov	 dl, BYTE PTR [eax+16]
  0012d	84 d2		 test	 dl, dl
  0012f	0f 84 43 01 00
	00		 je	 $LN80@LoadString
  00135	80 f2 ed	 xor	 dl, -19			; ffffffedH
  00138	88 55 ec	 mov	 BYTE PTR __k$[ebp+16], dl
  0013b	8a 50 11	 mov	 dl, BYTE PTR [eax+17]
  0013e	84 d2		 test	 dl, dl
  00140	0f 84 2d 01 00
	00		 je	 $LN79@LoadString
  00146	32 d3		 xor	 dl, bl
  00148	88 55 ed	 mov	 BYTE PTR __k$[ebp+17], dl
  0014b	8a 50 12	 mov	 dl, BYTE PTR [eax+18]
  0014e	84 d2		 test	 dl, dl
  00150	0f 84 18 01 00
	00		 je	 $LN78@LoadString
  00156	32 d1		 xor	 dl, cl
  00158	88 55 ee	 mov	 BYTE PTR __k$[ebp+18], dl
  0015b	8a 50 13	 mov	 dl, BYTE PTR [eax+19]
  0015e	84 d2		 test	 dl, dl
  00160	0f 84 02 01 00
	00		 je	 $LN77@LoadString
  00166	80 f2 ea	 xor	 dl, -22			; ffffffeaH
  00169	88 55 ef	 mov	 BYTE PTR __k$[ebp+19], dl
  0016c	8a 50 14	 mov	 dl, BYTE PTR [eax+20]
  0016f	84 d2		 test	 dl, dl
  00171	0f 84 eb 00 00
	00		 je	 $LN76@LoadString
  00177	80 f2 ed	 xor	 dl, -19			; ffffffedH
  0017a	88 55 f0	 mov	 BYTE PTR __k$[ebp+20], dl
  0017d	8a 50 15	 mov	 dl, BYTE PTR [eax+21]
  00180	84 d2		 test	 dl, dl
  00182	0f 84 d5 00 00
	00		 je	 $LN75@LoadString
  00188	32 d3		 xor	 dl, bl
  0018a	88 55 f1	 mov	 BYTE PTR __k$[ebp+21], dl
  0018d	8a 50 16	 mov	 dl, BYTE PTR [eax+22]
  00190	84 d2		 test	 dl, dl
  00192	0f 84 c0 00 00
	00		 je	 $LN74@LoadString
  00198	32 d1		 xor	 dl, cl
  0019a	88 55 f2	 mov	 BYTE PTR __k$[ebp+22], dl
  0019d	8a 50 17	 mov	 dl, BYTE PTR [eax+23]
  001a0	84 d2		 test	 dl, dl
  001a2	0f 84 aa 00 00
	00		 je	 $LN73@LoadString
  001a8	80 f2 ea	 xor	 dl, -22			; ffffffeaH
  001ab	88 55 f3	 mov	 BYTE PTR __k$[ebp+23], dl
  001ae	8a 50 18	 mov	 dl, BYTE PTR [eax+24]
  001b1	84 d2		 test	 dl, dl
  001b3	0f 84 90 00 00
	00		 je	 $LN72@LoadString
  001b9	80 f2 ed	 xor	 dl, -19			; ffffffedH
  001bc	88 55 f4	 mov	 BYTE PTR __k$[ebp+24], dl
  001bf	8a 50 19	 mov	 dl, BYTE PTR [eax+25]
  001c2	84 d2		 test	 dl, dl
  001c4	74 7b		 je	 SHORT $LN71@LoadString
  001c6	32 d3		 xor	 dl, bl
  001c8	88 55 f5	 mov	 BYTE PTR __k$[ebp+25], dl
  001cb	8a 50 1a	 mov	 dl, BYTE PTR [eax+26]
  001ce	84 d2		 test	 dl, dl
  001d0	74 67		 je	 SHORT $LN70@LoadString
  001d2	32 d1		 xor	 dl, cl
  001d4	80 78 1b 00	 cmp	 BYTE PTR [eax+27], 0
  001d8	88 55 f6	 mov	 BYTE PTR __k$[ebp+26], dl
  001db	0f 84 f5 00 00
	00		 je	 $LN111@LoadString
  001e1	8a 50 1c	 mov	 dl, BYTE PTR [eax+28]
  001e4	84 d2		 test	 dl, dl
  001e6	74 48		 je	 SHORT $LN68@LoadString
  001e8	80 f2 ed	 xor	 dl, -19			; ffffffedH
  001eb	88 55 f8	 mov	 BYTE PTR __k$[ebp+28], dl
  001ee	8a 50 1d	 mov	 dl, BYTE PTR [eax+29]
  001f1	84 d2		 test	 dl, dl
  001f3	74 33		 je	 SHORT $LN67@LoadString
  001f5	32 d3		 xor	 dl, bl
  001f7	88 55 f9	 mov	 BYTE PTR __k$[ebp+29], dl
  001fa	8a 50 1e	 mov	 dl, BYTE PTR [eax+30]
  001fd	84 d2		 test	 dl, dl
  001ff	74 1f		 je	 SHORT $LN66@LoadString
  00201	8a 40 1f	 mov	 al, BYTE PTR [eax+31]
  00204	32 d1		 xor	 dl, cl
  00206	88 55 fa	 mov	 BYTE PTR __k$[ebp+30], dl
  00209	84 c0		 test	 al, al
  0020b	74 0a		 je	 SHORT $LN65@LoadString
  0020d	34 ea		 xor	 al, -22			; ffffffeaH
  0020f	88 45 fb	 mov	 BYTE PTR __k$[ebp+31], al
  00212	e9 bf 00 00 00	 jmp	 $LN111@LoadString
$LN65@LoadString:
  00217	c6 45 fb ea	 mov	 BYTE PTR __k$[ebp+31], -22 ; ffffffeaH
  0021b	e9 b6 00 00 00	 jmp	 $LN111@LoadString
$LN66@LoadString:
  00220	88 4d fa	 mov	 BYTE PTR __k$[ebp+30], cl
  00223	e9 ae 00 00 00	 jmp	 $LN111@LoadString
$LN67@LoadString:
  00228	88 5d f9	 mov	 BYTE PTR __k$[ebp+29], bl
  0022b	e9 a6 00 00 00	 jmp	 $LN111@LoadString
$LN68@LoadString:
  00230	c6 45 f8 ed	 mov	 BYTE PTR __k$[ebp+28], -19 ; ffffffedH
  00234	e9 9d 00 00 00	 jmp	 $LN111@LoadString
$LN70@LoadString:
  00239	88 4d f6	 mov	 BYTE PTR __k$[ebp+26], cl
  0023c	e9 95 00 00 00	 jmp	 $LN111@LoadString
$LN71@LoadString:
  00241	88 5d f5	 mov	 BYTE PTR __k$[ebp+25], bl
  00244	e9 8d 00 00 00	 jmp	 $LN111@LoadString
$LN72@LoadString:
  00249	c6 45 f4 ed	 mov	 BYTE PTR __k$[ebp+24], -19 ; ffffffedH
  0024d	e9 84 00 00 00	 jmp	 $LN111@LoadString
$LN73@LoadString:
  00252	c6 45 f3 ea	 mov	 BYTE PTR __k$[ebp+23], -22 ; ffffffeaH
  00256	eb 7e		 jmp	 SHORT $LN111@LoadString
$LN74@LoadString:
  00258	88 4d f2	 mov	 BYTE PTR __k$[ebp+22], cl
  0025b	eb 79		 jmp	 SHORT $LN111@LoadString
$LN75@LoadString:
  0025d	88 5d f1	 mov	 BYTE PTR __k$[ebp+21], bl
  00260	eb 74		 jmp	 SHORT $LN111@LoadString
$LN76@LoadString:
  00262	c6 45 f0 ed	 mov	 BYTE PTR __k$[ebp+20], -19 ; ffffffedH
  00266	eb 6e		 jmp	 SHORT $LN111@LoadString
$LN77@LoadString:
  00268	c6 45 ef ea	 mov	 BYTE PTR __k$[ebp+19], -22 ; ffffffeaH
  0026c	eb 68		 jmp	 SHORT $LN111@LoadString
$LN78@LoadString:
  0026e	88 4d ee	 mov	 BYTE PTR __k$[ebp+18], cl
  00271	eb 63		 jmp	 SHORT $LN111@LoadString
$LN79@LoadString:
  00273	88 5d ed	 mov	 BYTE PTR __k$[ebp+17], bl
  00276	eb 5e		 jmp	 SHORT $LN111@LoadString
$LN80@LoadString:
  00278	c6 45 ec ed	 mov	 BYTE PTR __k$[ebp+16], -19 ; ffffffedH
  0027c	eb 58		 jmp	 SHORT $LN111@LoadString
$LN81@LoadString:
  0027e	c6 45 eb ea	 mov	 BYTE PTR __k$[ebp+15], -22 ; ffffffeaH
  00282	eb 52		 jmp	 SHORT $LN111@LoadString
$LN82@LoadString:
  00284	88 4d ea	 mov	 BYTE PTR __k$[ebp+14], cl
  00287	eb 4d		 jmp	 SHORT $LN111@LoadString
$LN83@LoadString:
  00289	88 5d e9	 mov	 BYTE PTR __k$[ebp+13], bl
  0028c	eb 48		 jmp	 SHORT $LN111@LoadString
$LN84@LoadString:
  0028e	c6 45 e8 ed	 mov	 BYTE PTR __k$[ebp+12], -19 ; ffffffedH
  00292	eb 42		 jmp	 SHORT $LN111@LoadString
$LN85@LoadString:
  00294	c6 45 e7 ea	 mov	 BYTE PTR __k$[ebp+11], -22 ; ffffffeaH
  00298	eb 3c		 jmp	 SHORT $LN111@LoadString
$LN86@LoadString:
  0029a	88 4d e6	 mov	 BYTE PTR __k$[ebp+10], cl
  0029d	eb 37		 jmp	 SHORT $LN111@LoadString
$LN87@LoadString:
  0029f	88 5d e5	 mov	 BYTE PTR __k$[ebp+9], bl
  002a2	eb 32		 jmp	 SHORT $LN111@LoadString
$LN88@LoadString:
  002a4	c6 45 e4 ed	 mov	 BYTE PTR __k$[ebp+8], -19 ; ffffffedH
  002a8	eb 2c		 jmp	 SHORT $LN111@LoadString
$LN89@LoadString:
  002aa	c6 45 e3 ea	 mov	 BYTE PTR __k$[ebp+7], -22 ; ffffffeaH
  002ae	eb 26		 jmp	 SHORT $LN111@LoadString
$LN90@LoadString:
  002b0	88 4d e2	 mov	 BYTE PTR __k$[ebp+6], cl
  002b3	eb 21		 jmp	 SHORT $LN111@LoadString
$LN91@LoadString:
  002b5	88 5d e1	 mov	 BYTE PTR __k$[ebp+5], bl
  002b8	eb 1c		 jmp	 SHORT $LN111@LoadString
$LN92@LoadString:
  002ba	c6 45 e0 ed	 mov	 BYTE PTR __k$[ebp+4], -19 ; ffffffedH
  002be	eb 16		 jmp	 SHORT $LN111@LoadString
$LN93@LoadString:
  002c0	c6 45 df ea	 mov	 BYTE PTR __k$[ebp+3], -22 ; ffffffeaH
  002c4	eb 10		 jmp	 SHORT $LN111@LoadString
$LN94@LoadString:
  002c6	c6 45 de eb	 mov	 BYTE PTR __k$[ebp+2], -21 ; ffffffebH
  002ca	eb 0a		 jmp	 SHORT $LN111@LoadString
$LN95@LoadString:
  002cc	c6 45 dd ec	 mov	 BYTE PTR __k$[ebp+1], -20 ; ffffffecH
  002d0	eb 04		 jmp	 SHORT $LN111@LoadString
$LN96@LoadString:
  002d2	c6 45 dc ed	 mov	 BYTE PTR __k$[ebp], -19	; ffffffedH
$LN111@LoadString:
  002d6	6a 06		 push	 6
  002d8	8d 45 dc	 lea	 eax, DWORD PTR __k$[ebp]
  002db	c6 45 f7 00	 mov	 BYTE PTR __k$[ebp+27], 0
  002df	5a		 pop	 edx
$LL104@LoadString:
  002e0	81 30 ed ec eb
	ea		 xor	 DWORD PTR [eax], -353637139 ; eaebecedH
  002e6	83 c0 04	 add	 eax, 4
  002e9	4a		 dec	 edx
  002ea	75 f4		 jne	 SHORT $LL104@LoadString
  002ec	6a 18		 push	 24			; 00000018H
  002ee	58		 pop	 eax
$LL101@LoadString:
  002ef	8b c8		 mov	 ecx, eax
  002f1	81 e1 03 00 00
	80		 and	 ecx, -2147483645	; 80000003H
  002f7	79 05		 jns	 SHORT $LN112@LoadString
  002f9	49		 dec	 ecx
  002fa	83 c9 fc	 or	 ecx, -4			; fffffffcH
  002fd	41		 inc	 ecx
$LN112@LoadString:
  002fe	b2 ed		 mov	 dl, -19			; ffffffedH
  00300	2a d1		 sub	 dl, cl
  00302	30 54 05 dc	 xor	 BYTE PTR __k$[ebp+eax], dl
  00306	40		 inc	 eax
  00307	83 f8 1b	 cmp	 eax, 27			; 0000001bH
  0030a	7c e3		 jl	 SHORT $LL101@LoadString

; 163  : 		LoadString(_k, d, b, i);

  0030c	ff 75 14	 push	 DWORD PTR _i$[ebp]
  0030f	8b 4d d8	 mov	 ecx, DWORD PTR _this$GSCopy$[ebp]
  00312	57		 push	 edi
  00313	56		 push	 esi
  00314	8d 45 dc	 lea	 eax, DWORD PTR __k$[ebp]
  00317	50		 push	 eax
  00318	ff 15 00 00 00
	00		 call	 DWORD PTR __imp_?LoadStringA@ioINILoader@@QAEXPBD0PADH@Z

; 164  : 	}

  0031e	8b 4d fc	 mov	 ecx, DWORD PTR __$ArrayPad$[ebp]
  00321	5f		 pop	 edi
  00322	5e		 pop	 esi
  00323	33 cd		 xor	 ecx, ebp
  00325	5b		 pop	 ebx
  00326	e8 00 00 00 00	 call	 @__security_check_cookie@4
  0032b	c9		 leave
  0032c	c2 10 00	 ret	 16			; 00000010H
??$LoadString_e@$0BM@@ioINILoader@@QAEXAAY0BM@$$CBDAAY00$$CBDPADH@Z ENDP ; ioINILoader::LoadString_e<28>
_TEXT	ENDS
PUBLIC	__$ArrayPad$
PUBLIC	??$LoadFloat_e@$0CB@@ioINILoader@@QAEMAAY0CB@$$CBDM@Z ; ioINILoader::LoadFloat_e<33>
; Function compile flags: /Ogsp
;	COMDAT ??$LoadFloat_e@$0CB@@ioINILoader@@QAEMAAY0CB@$$CBDM@Z
_TEXT	SEGMENT
__k$ = -44						; size = 33
__$ArrayPad$ = -4					; size = 4
_k$ = 8							; size = 4
_f$ = 12						; size = 4
??$LoadFloat_e@$0CB@@ioINILoader@@QAEMAAY0CB@$$CBDM@Z PROC ; ioINILoader::LoadFloat_e<33>, COMDAT
; _this$ = ecx

; 135  : 	{

  00000	55		 push	 ebp
  00001	8b ec		 mov	 ebp, esp
  00003	83 ec 2c	 sub	 esp, 44			; 0000002cH
  00006	a1 00 00 00 00	 mov	 eax, DWORD PTR ___security_cookie
  0000b	33 c5		 xor	 eax, ebp
  0000d	89 45 fc	 mov	 DWORD PTR __$ArrayPad$[ebp], eax
  00010	8b 45 08	 mov	 eax, DWORD PTR _k$[ebp]

; 136  : 		_ENCSTR(k, _k);

  00013	8a 10		 mov	 dl, BYTE PTR [eax]
  00015	53		 push	 ebx
  00016	56		 push	 esi
  00017	8b f1		 mov	 esi, ecx
  00019	84 d2		 test	 dl, dl
  0001b	0f 84 27 03 00
	00		 je	 $LN96@LoadFloat_@3
  00021	80 f2 ed	 xor	 dl, -19			; ffffffedH
  00024	88 55 d4	 mov	 BYTE PTR __k$[ebp], dl
  00027	8a 50 01	 mov	 dl, BYTE PTR [eax+1]
  0002a	84 d2		 test	 dl, dl
  0002c	0f 84 10 03 00
	00		 je	 $LN95@LoadFloat_@3
  00032	b1 ec		 mov	 cl, -20			; ffffffecH
  00034	32 d1		 xor	 dl, cl
  00036	88 55 d5	 mov	 BYTE PTR __k$[ebp+1], dl
  00039	8a 50 02	 mov	 dl, BYTE PTR [eax+2]
  0003c	84 d2		 test	 dl, dl
  0003e	0f 84 f8 02 00
	00		 je	 $LN94@LoadFloat_@3
  00044	b3 eb		 mov	 bl, -21			; ffffffebH
  00046	32 d3		 xor	 dl, bl
  00048	88 55 d6	 mov	 BYTE PTR __k$[ebp+2], dl
  0004b	8a 50 03	 mov	 dl, BYTE PTR [eax+3]
  0004e	84 d2		 test	 dl, dl
  00050	0f 84 e0 02 00
	00		 je	 $LN93@LoadFloat_@3
  00056	80 f2 ea	 xor	 dl, -22			; ffffffeaH
  00059	88 55 d7	 mov	 BYTE PTR __k$[ebp+3], dl
  0005c	8a 50 04	 mov	 dl, BYTE PTR [eax+4]
  0005f	84 d2		 test	 dl, dl
  00061	0f 84 c9 02 00
	00		 je	 $LN92@LoadFloat_@3
  00067	80 f2 ed	 xor	 dl, -19			; ffffffedH
  0006a	88 55 d8	 mov	 BYTE PTR __k$[ebp+4], dl
  0006d	8a 50 05	 mov	 dl, BYTE PTR [eax+5]
  00070	84 d2		 test	 dl, dl
  00072	0f 84 b3 02 00
	00		 je	 $LN91@LoadFloat_@3
  00078	32 d1		 xor	 dl, cl
  0007a	88 55 d9	 mov	 BYTE PTR __k$[ebp+5], dl
  0007d	8a 50 06	 mov	 dl, BYTE PTR [eax+6]
  00080	84 d2		 test	 dl, dl
  00082	0f 84 9e 02 00
	00		 je	 $LN90@LoadFloat_@3
  00088	32 d3		 xor	 dl, bl
  0008a	88 55 da	 mov	 BYTE PTR __k$[ebp+6], dl
  0008d	8a 50 07	 mov	 dl, BYTE PTR [eax+7]
  00090	84 d2		 test	 dl, dl
  00092	0f 84 88 02 00
	00		 je	 $LN89@LoadFloat_@3
  00098	80 f2 ea	 xor	 dl, -22			; ffffffeaH
  0009b	88 55 db	 mov	 BYTE PTR __k$[ebp+7], dl
  0009e	8a 50 08	 mov	 dl, BYTE PTR [eax+8]
  000a1	84 d2		 test	 dl, dl
  000a3	0f 84 71 02 00
	00		 je	 $LN88@LoadFloat_@3
  000a9	80 f2 ed	 xor	 dl, -19			; ffffffedH
  000ac	88 55 dc	 mov	 BYTE PTR __k$[ebp+8], dl
  000af	8a 50 09	 mov	 dl, BYTE PTR [eax+9]
  000b2	84 d2		 test	 dl, dl
  000b4	0f 84 5b 02 00
	00		 je	 $LN87@LoadFloat_@3
  000ba	32 d1		 xor	 dl, cl
  000bc	88 55 dd	 mov	 BYTE PTR __k$[ebp+9], dl
  000bf	8a 50 0a	 mov	 dl, BYTE PTR [eax+10]
  000c2	84 d2		 test	 dl, dl
  000c4	0f 84 46 02 00
	00		 je	 $LN86@LoadFloat_@3
  000ca	32 d3		 xor	 dl, bl
  000cc	88 55 de	 mov	 BYTE PTR __k$[ebp+10], dl
  000cf	8a 50 0b	 mov	 dl, BYTE PTR [eax+11]
  000d2	84 d2		 test	 dl, dl
  000d4	0f 84 30 02 00
	00		 je	 $LN85@LoadFloat_@3
  000da	80 f2 ea	 xor	 dl, -22			; ffffffeaH
  000dd	88 55 df	 mov	 BYTE PTR __k$[ebp+11], dl
  000e0	8a 50 0c	 mov	 dl, BYTE PTR [eax+12]
  000e3	84 d2		 test	 dl, dl
  000e5	0f 84 19 02 00
	00		 je	 $LN84@LoadFloat_@3
  000eb	80 f2 ed	 xor	 dl, -19			; ffffffedH
  000ee	88 55 e0	 mov	 BYTE PTR __k$[ebp+12], dl
  000f1	8a 50 0d	 mov	 dl, BYTE PTR [eax+13]
  000f4	84 d2		 test	 dl, dl
  000f6	0f 84 03 02 00
	00		 je	 $LN83@LoadFloat_@3
  000fc	32 d1		 xor	 dl, cl
  000fe	88 55 e1	 mov	 BYTE PTR __k$[ebp+13], dl
  00101	8a 50 0e	 mov	 dl, BYTE PTR [eax+14]
  00104	84 d2		 test	 dl, dl
  00106	0f 84 ee 01 00
	00		 je	 $LN82@LoadFloat_@3
  0010c	32 d3		 xor	 dl, bl
  0010e	88 55 e2	 mov	 BYTE PTR __k$[ebp+14], dl
  00111	8a 50 0f	 mov	 dl, BYTE PTR [eax+15]
  00114	84 d2		 test	 dl, dl
  00116	0f 84 d8 01 00
	00		 je	 $LN81@LoadFloat_@3
  0011c	80 f2 ea	 xor	 dl, -22			; ffffffeaH
  0011f	88 55 e3	 mov	 BYTE PTR __k$[ebp+15], dl
  00122	8a 50 10	 mov	 dl, BYTE PTR [eax+16]
  00125	84 d2		 test	 dl, dl
  00127	0f 84 c1 01 00
	00		 je	 $LN80@LoadFloat_@3
  0012d	80 f2 ed	 xor	 dl, -19			; ffffffedH
  00130	88 55 e4	 mov	 BYTE PTR __k$[ebp+16], dl
  00133	8a 50 11	 mov	 dl, BYTE PTR [eax+17]
  00136	84 d2		 test	 dl, dl
  00138	0f 84 ab 01 00
	00		 je	 $LN79@LoadFloat_@3
  0013e	32 d1		 xor	 dl, cl
  00140	88 55 e5	 mov	 BYTE PTR __k$[ebp+17], dl
  00143	8a 50 12	 mov	 dl, BYTE PTR [eax+18]
  00146	84 d2		 test	 dl, dl
  00148	0f 84 96 01 00
	00		 je	 $LN78@LoadFloat_@3
  0014e	32 d3		 xor	 dl, bl
  00150	88 55 e6	 mov	 BYTE PTR __k$[ebp+18], dl
  00153	8a 50 13	 mov	 dl, BYTE PTR [eax+19]
  00156	84 d2		 test	 dl, dl
  00158	0f 84 80 01 00
	00		 je	 $LN77@LoadFloat_@3
  0015e	80 f2 ea	 xor	 dl, -22			; ffffffeaH
  00161	88 55 e7	 mov	 BYTE PTR __k$[ebp+19], dl
  00164	8a 50 14	 mov	 dl, BYTE PTR [eax+20]
  00167	84 d2		 test	 dl, dl
  00169	0f 84 69 01 00
	00		 je	 $LN76@LoadFloat_@3
  0016f	80 f2 ed	 xor	 dl, -19			; ffffffedH
  00172	88 55 e8	 mov	 BYTE PTR __k$[ebp+20], dl
  00175	8a 50 15	 mov	 dl, BYTE PTR [eax+21]
  00178	84 d2		 test	 dl, dl
  0017a	0f 84 53 01 00
	00		 je	 $LN75@LoadFloat_@3
  00180	32 d1		 xor	 dl, cl
  00182	88 55 e9	 mov	 BYTE PTR __k$[ebp+21], dl
  00185	8a 50 16	 mov	 dl, BYTE PTR [eax+22]
  00188	84 d2		 test	 dl, dl
  0018a	0f 84 3e 01 00
	00		 je	 $LN74@LoadFloat_@3
  00190	32 d3		 xor	 dl, bl
  00192	88 55 ea	 mov	 BYTE PTR __k$[ebp+22], dl
  00195	8a 50 17	 mov	 dl, BYTE PTR [eax+23]
  00198	84 d2		 test	 dl, dl
  0019a	0f 84 28 01 00
	00		 je	 $LN73@LoadFloat_@3
  001a0	80 f2 ea	 xor	 dl, -22			; ffffffeaH
  001a3	88 55 eb	 mov	 BYTE PTR __k$[ebp+23], dl
  001a6	8a 50 18	 mov	 dl, BYTE PTR [eax+24]
  001a9	84 d2		 test	 dl, dl
  001ab	0f 84 0e 01 00
	00		 je	 $LN72@LoadFloat_@3
  001b1	80 f2 ed	 xor	 dl, -19			; ffffffedH
  001b4	88 55 ec	 mov	 BYTE PTR __k$[ebp+24], dl
  001b7	8a 50 19	 mov	 dl, BYTE PTR [eax+25]
  001ba	84 d2		 test	 dl, dl
  001bc	0f 84 f5 00 00
	00		 je	 $LN71@LoadFloat_@3
  001c2	32 d1		 xor	 dl, cl
  001c4	88 55 ed	 mov	 BYTE PTR __k$[ebp+25], dl
  001c7	8a 50 1a	 mov	 dl, BYTE PTR [eax+26]
  001ca	84 d2		 test	 dl, dl
  001cc	0f 84 dd 00 00
	00		 je	 $LN70@LoadFloat_@3
  001d2	32 d3		 xor	 dl, bl
  001d4	88 55 ee	 mov	 BYTE PTR __k$[ebp+26], dl
  001d7	8a 50 1b	 mov	 dl, BYTE PTR [eax+27]
  001da	84 d2		 test	 dl, dl
  001dc	0f 84 c4 00 00
	00		 je	 $LN69@LoadFloat_@3
  001e2	80 f2 ea	 xor	 dl, -22			; ffffffeaH
  001e5	88 55 ef	 mov	 BYTE PTR __k$[ebp+27], dl
  001e8	8a 50 1c	 mov	 dl, BYTE PTR [eax+28]
  001eb	84 d2		 test	 dl, dl
  001ed	0f 84 aa 00 00
	00		 je	 $LN68@LoadFloat_@3
  001f3	80 f2 ed	 xor	 dl, -19			; ffffffedH
  001f6	88 55 f0	 mov	 BYTE PTR __k$[ebp+28], dl
  001f9	8a 50 1d	 mov	 dl, BYTE PTR [eax+29]
  001fc	84 d2		 test	 dl, dl
  001fe	0f 84 91 00 00
	00		 je	 $LN67@LoadFloat_@3
  00204	32 d1		 xor	 dl, cl
  00206	88 55 f1	 mov	 BYTE PTR __k$[ebp+29], dl
  00209	8a 50 1e	 mov	 dl, BYTE PTR [eax+30]
  0020c	84 d2		 test	 dl, dl
  0020e	74 7d		 je	 SHORT $LN66@LoadFloat_@3
  00210	32 d3		 xor	 dl, bl
  00212	88 55 f2	 mov	 BYTE PTR __k$[ebp+30], dl
  00215	8a 50 1f	 mov	 dl, BYTE PTR [eax+31]
  00218	84 d2		 test	 dl, dl
  0021a	74 68		 je	 SHORT $LN65@LoadFloat_@3
  0021c	80 f2 ea	 xor	 dl, -22			; ffffffeaH
  0021f	80 78 20 00	 cmp	 BYTE PTR [eax+32], 0
  00223	88 55 f3	 mov	 BYTE PTR __k$[ebp+31], dl
  00226	0f 84 20 01 00
	00		 je	 $LN1@LoadFloat_@3
  0022c	8a 50 21	 mov	 dl, BYTE PTR [eax+33]
  0022f	84 d2		 test	 dl, dl
  00231	74 49		 je	 SHORT $LN63@LoadFloat_@3
  00233	32 d1		 xor	 dl, cl
  00235	88 55 f5	 mov	 BYTE PTR __k$[ebp+33], dl
  00238	8a 50 22	 mov	 dl, BYTE PTR [eax+34]
  0023b	84 d2		 test	 dl, dl
  0023d	74 35		 je	 SHORT $LN62@LoadFloat_@3
  0023f	32 d3		 xor	 dl, bl
  00241	88 55 f6	 mov	 BYTE PTR __k$[ebp+34], dl
  00244	8a 50 23	 mov	 dl, BYTE PTR [eax+35]
  00247	84 d2		 test	 dl, dl
  00249	74 20		 je	 SHORT $LN61@LoadFloat_@3
  0024b	8a 40 24	 mov	 al, BYTE PTR [eax+36]
  0024e	80 f2 ea	 xor	 dl, -22			; ffffffeaH
  00251	88 55 f7	 mov	 BYTE PTR __k$[ebp+35], dl
  00254	84 c0		 test	 al, al
  00256	74 0a		 je	 SHORT $LN60@LoadFloat_@3
  00258	34 ed		 xor	 al, -19			; ffffffedH
  0025a	88 45 f8	 mov	 BYTE PTR __k$[ebp+36], al
  0025d	e9 ea 00 00 00	 jmp	 $LN1@LoadFloat_@3
$LN60@LoadFloat_@3:
  00262	c6 45 f8 ed	 mov	 BYTE PTR __k$[ebp+36], -19 ; ffffffedH
  00266	e9 e1 00 00 00	 jmp	 $LN1@LoadFloat_@3
$LN61@LoadFloat_@3:
  0026b	c6 45 f7 ea	 mov	 BYTE PTR __k$[ebp+35], -22 ; ffffffeaH
  0026f	e9 d8 00 00 00	 jmp	 $LN1@LoadFloat_@3
$LN62@LoadFloat_@3:
  00274	88 5d f6	 mov	 BYTE PTR __k$[ebp+34], bl
  00277	e9 d0 00 00 00	 jmp	 $LN1@LoadFloat_@3
$LN63@LoadFloat_@3:
  0027c	88 4d f5	 mov	 BYTE PTR __k$[ebp+33], cl
  0027f	e9 c8 00 00 00	 jmp	 $LN1@LoadFloat_@3
$LN65@LoadFloat_@3:
  00284	c6 45 f3 ea	 mov	 BYTE PTR __k$[ebp+31], -22 ; ffffffeaH
  00288	e9 bf 00 00 00	 jmp	 $LN1@LoadFloat_@3
$LN66@LoadFloat_@3:
  0028d	88 5d f2	 mov	 BYTE PTR __k$[ebp+30], bl
  00290	e9 b7 00 00 00	 jmp	 $LN1@LoadFloat_@3
$LN67@LoadFloat_@3:
  00295	88 4d f1	 mov	 BYTE PTR __k$[ebp+29], cl
  00298	e9 af 00 00 00	 jmp	 $LN1@LoadFloat_@3
$LN68@LoadFloat_@3:
  0029d	c6 45 f0 ed	 mov	 BYTE PTR __k$[ebp+28], -19 ; ffffffedH
  002a1	e9 a6 00 00 00	 jmp	 $LN1@LoadFloat_@3
$LN69@LoadFloat_@3:
  002a6	c6 45 ef ea	 mov	 BYTE PTR __k$[ebp+27], -22 ; ffffffeaH
  002aa	e9 9d 00 00 00	 jmp	 $LN1@LoadFloat_@3
$LN70@LoadFloat_@3:
  002af	88 5d ee	 mov	 BYTE PTR __k$[ebp+26], bl
  002b2	e9 95 00 00 00	 jmp	 $LN1@LoadFloat_@3
$LN71@LoadFloat_@3:
  002b7	88 4d ed	 mov	 BYTE PTR __k$[ebp+25], cl
  002ba	e9 8d 00 00 00	 jmp	 $LN1@LoadFloat_@3
$LN72@LoadFloat_@3:
  002bf	c6 45 ec ed	 mov	 BYTE PTR __k$[ebp+24], -19 ; ffffffedH
  002c3	e9 84 00 00 00	 jmp	 $LN1@LoadFloat_@3
$LN73@LoadFloat_@3:
  002c8	c6 45 eb ea	 mov	 BYTE PTR __k$[ebp+23], -22 ; ffffffeaH
  002cc	eb 7e		 jmp	 SHORT $LN1@LoadFloat_@3
$LN74@LoadFloat_@3:
  002ce	88 5d ea	 mov	 BYTE PTR __k$[ebp+22], bl
  002d1	eb 79		 jmp	 SHORT $LN1@LoadFloat_@3
$LN75@LoadFloat_@3:
  002d3	88 4d e9	 mov	 BYTE PTR __k$[ebp+21], cl
  002d6	eb 74		 jmp	 SHORT $LN1@LoadFloat_@3
$LN76@LoadFloat_@3:
  002d8	c6 45 e8 ed	 mov	 BYTE PTR __k$[ebp+20], -19 ; ffffffedH
  002dc	eb 6e		 jmp	 SHORT $LN1@LoadFloat_@3
$LN77@LoadFloat_@3:
  002de	c6 45 e7 ea	 mov	 BYTE PTR __k$[ebp+19], -22 ; ffffffeaH
  002e2	eb 68		 jmp	 SHORT $LN1@LoadFloat_@3
$LN78@LoadFloat_@3:
  002e4	88 5d e6	 mov	 BYTE PTR __k$[ebp+18], bl
  002e7	eb 63		 jmp	 SHORT $LN1@LoadFloat_@3
$LN79@LoadFloat_@3:
  002e9	88 4d e5	 mov	 BYTE PTR __k$[ebp+17], cl
  002ec	eb 5e		 jmp	 SHORT $LN1@LoadFloat_@3
$LN80@LoadFloat_@3:
  002ee	c6 45 e4 ed	 mov	 BYTE PTR __k$[ebp+16], -19 ; ffffffedH
  002f2	eb 58		 jmp	 SHORT $LN1@LoadFloat_@3
$LN81@LoadFloat_@3:
  002f4	c6 45 e3 ea	 mov	 BYTE PTR __k$[ebp+15], -22 ; ffffffeaH
  002f8	eb 52		 jmp	 SHORT $LN1@LoadFloat_@3
$LN82@LoadFloat_@3:
  002fa	88 5d e2	 mov	 BYTE PTR __k$[ebp+14], bl
  002fd	eb 4d		 jmp	 SHORT $LN1@LoadFloat_@3
$LN83@LoadFloat_@3:
  002ff	88 4d e1	 mov	 BYTE PTR __k$[ebp+13], cl
  00302	eb 48		 jmp	 SHORT $LN1@LoadFloat_@3
$LN84@LoadFloat_@3:
  00304	c6 45 e0 ed	 mov	 BYTE PTR __k$[ebp+12], -19 ; ffffffedH
  00308	eb 42		 jmp	 SHORT $LN1@LoadFloat_@3
$LN85@LoadFloat_@3:
  0030a	c6 45 df ea	 mov	 BYTE PTR __k$[ebp+11], -22 ; ffffffeaH
  0030e	eb 3c		 jmp	 SHORT $LN1@LoadFloat_@3
$LN86@LoadFloat_@3:
  00310	88 5d de	 mov	 BYTE PTR __k$[ebp+10], bl
  00313	eb 37		 jmp	 SHORT $LN1@LoadFloat_@3
$LN87@LoadFloat_@3:
  00315	88 4d dd	 mov	 BYTE PTR __k$[ebp+9], cl
  00318	eb 32		 jmp	 SHORT $LN1@LoadFloat_@3
$LN88@LoadFloat_@3:
  0031a	c6 45 dc ed	 mov	 BYTE PTR __k$[ebp+8], -19 ; ffffffedH
  0031e	eb 2c		 jmp	 SHORT $LN1@LoadFloat_@3
$LN89@LoadFloat_@3:
  00320	c6 45 db ea	 mov	 BYTE PTR __k$[ebp+7], -22 ; ffffffeaH
  00324	eb 26		 jmp	 SHORT $LN1@LoadFloat_@3
$LN90@LoadFloat_@3:
  00326	88 5d da	 mov	 BYTE PTR __k$[ebp+6], bl
  00329	eb 21		 jmp	 SHORT $LN1@LoadFloat_@3
$LN91@LoadFloat_@3:
  0032b	88 4d d9	 mov	 BYTE PTR __k$[ebp+5], cl
  0032e	eb 1c		 jmp	 SHORT $LN1@LoadFloat_@3
$LN92@LoadFloat_@3:
  00330	c6 45 d8 ed	 mov	 BYTE PTR __k$[ebp+4], -19 ; ffffffedH
  00334	eb 16		 jmp	 SHORT $LN1@LoadFloat_@3
$LN93@LoadFloat_@3:
  00336	c6 45 d7 ea	 mov	 BYTE PTR __k$[ebp+3], -22 ; ffffffeaH
  0033a	eb 10		 jmp	 SHORT $LN1@LoadFloat_@3
$LN94@LoadFloat_@3:
  0033c	c6 45 d6 eb	 mov	 BYTE PTR __k$[ebp+2], -21 ; ffffffebH
  00340	eb 0a		 jmp	 SHORT $LN1@LoadFloat_@3
$LN95@LoadFloat_@3:
  00342	c6 45 d5 ec	 mov	 BYTE PTR __k$[ebp+1], -20 ; ffffffecH
  00346	eb 04		 jmp	 SHORT $LN1@LoadFloat_@3
$LN96@LoadFloat_@3:
  00348	c6 45 d4 ed	 mov	 BYTE PTR __k$[ebp], -19	; ffffffedH
$LN1@LoadFloat_@3:
  0034c	6a 08		 push	 8
  0034e	8d 45 d4	 lea	 eax, DWORD PTR __k$[ebp]
  00351	c6 45 f4 00	 mov	 BYTE PTR __k$[ebp+32], 0
  00355	5a		 pop	 edx
$LL104@LoadFloat_@3:
  00356	81 30 ed ec eb
	ea		 xor	 DWORD PTR [eax], -353637139 ; eaebecedH
  0035c	83 c0 04	 add	 eax, 4
  0035f	4a		 dec	 edx
  00360	75 f4		 jne	 SHORT $LL104@LoadFloat_@3

; 137  : 		return LoadFloat(_k, f);

  00362	f3 0f 10 45 0c	 movss	 xmm0, DWORD PTR _f$[ebp]
  00367	51		 push	 ecx
  00368	8d 45 d4	 lea	 eax, DWORD PTR __k$[ebp]
  0036b	f3 0f 11 04 24	 movss	 DWORD PTR [esp], xmm0
  00370	50		 push	 eax
  00371	8b ce		 mov	 ecx, esi
  00373	ff 15 00 00 00
	00		 call	 DWORD PTR __imp_?LoadFloat@ioINILoader@@QAEMPBDM@Z

; 138  : 	}

  00379	8b 4d fc	 mov	 ecx, DWORD PTR __$ArrayPad$[ebp]
  0037c	5e		 pop	 esi
  0037d	33 cd		 xor	 ecx, ebp
  0037f	5b		 pop	 ebx
  00380	e8 00 00 00 00	 call	 @__security_check_cookie@4
  00385	c9		 leave
  00386	c2 08 00	 ret	 8
??$LoadFloat_e@$0CB@@ioINILoader@@QAEMAAY0CB@$$CBDM@Z ENDP ; ioINILoader::LoadFloat_e<33>
_TEXT	ENDS
PUBLIC	__$ArrayPad$
PUBLIC	??$LoadFloat_e@$0BL@@ioINILoader@@QAEMAAY0BL@$$CBDM@Z ; ioINILoader::LoadFloat_e<27>
; Function compile flags: /Ogsp
;	COMDAT ??$LoadFloat_e@$0BL@@ioINILoader@@QAEMAAY0BL@$$CBDM@Z
_TEXT	SEGMENT
__k$ = -36						; size = 27
__$ArrayPad$ = -4					; size = 4
_k$ = 8							; size = 4
_f$ = 12						; size = 4
??$LoadFloat_e@$0BL@@ioINILoader@@QAEMAAY0BL@$$CBDM@Z PROC ; ioINILoader::LoadFloat_e<27>, COMDAT
; _this$ = ecx

; 135  : 	{

  00000	55		 push	 ebp
  00001	8b ec		 mov	 ebp, esp
  00003	83 ec 24	 sub	 esp, 36			; 00000024H
  00006	a1 00 00 00 00	 mov	 eax, DWORD PTR ___security_cookie
  0000b	33 c5		 xor	 eax, ebp
  0000d	89 45 fc	 mov	 DWORD PTR __$ArrayPad$[ebp], eax
  00010	8b 45 08	 mov	 eax, DWORD PTR _k$[ebp]

; 136  : 		_ENCSTR(k, _k);

  00013	8a 10		 mov	 dl, BYTE PTR [eax]
  00015	53		 push	 ebx
  00016	56		 push	 esi
  00017	8b f1		 mov	 esi, ecx
  00019	84 d2		 test	 dl, dl
  0001b	0f 84 91 02 00
	00		 je	 $LN96@LoadFloat_@4
  00021	80 f2 ed	 xor	 dl, -19			; ffffffedH
  00024	88 55 dc	 mov	 BYTE PTR __k$[ebp], dl
  00027	8a 50 01	 mov	 dl, BYTE PTR [eax+1]
  0002a	84 d2		 test	 dl, dl
  0002c	0f 84 7a 02 00
	00		 je	 $LN95@LoadFloat_@4
  00032	b1 ec		 mov	 cl, -20			; ffffffecH
  00034	32 d1		 xor	 dl, cl
  00036	88 55 dd	 mov	 BYTE PTR __k$[ebp+1], dl
  00039	8a 50 02	 mov	 dl, BYTE PTR [eax+2]
  0003c	84 d2		 test	 dl, dl
  0003e	0f 84 62 02 00
	00		 je	 $LN94@LoadFloat_@4
  00044	80 f2 eb	 xor	 dl, -21			; ffffffebH
  00047	88 55 de	 mov	 BYTE PTR __k$[ebp+2], dl
  0004a	8a 50 03	 mov	 dl, BYTE PTR [eax+3]
  0004d	84 d2		 test	 dl, dl
  0004f	0f 84 4b 02 00
	00		 je	 $LN93@LoadFloat_@4
  00055	b3 ea		 mov	 bl, -22			; ffffffeaH
  00057	32 d3		 xor	 dl, bl
  00059	88 55 df	 mov	 BYTE PTR __k$[ebp+3], dl
  0005c	8a 50 04	 mov	 dl, BYTE PTR [eax+4]
  0005f	84 d2		 test	 dl, dl
  00061	0f 84 33 02 00
	00		 je	 $LN92@LoadFloat_@4
  00067	80 f2 ed	 xor	 dl, -19			; ffffffedH
  0006a	88 55 e0	 mov	 BYTE PTR __k$[ebp+4], dl
  0006d	8a 50 05	 mov	 dl, BYTE PTR [eax+5]
  00070	84 d2		 test	 dl, dl
  00072	0f 84 1d 02 00
	00		 je	 $LN91@LoadFloat_@4
  00078	32 d1		 xor	 dl, cl
  0007a	88 55 e1	 mov	 BYTE PTR __k$[ebp+5], dl
  0007d	8a 50 06	 mov	 dl, BYTE PTR [eax+6]
  00080	84 d2		 test	 dl, dl
  00082	0f 84 07 02 00
	00		 je	 $LN90@LoadFloat_@4
  00088	80 f2 eb	 xor	 dl, -21			; ffffffebH
  0008b	88 55 e2	 mov	 BYTE PTR __k$[ebp+6], dl
  0008e	8a 50 07	 mov	 dl, BYTE PTR [eax+7]
  00091	84 d2		 test	 dl, dl
  00093	0f 84 f1 01 00
	00		 je	 $LN89@LoadFloat_@4
  00099	32 d3		 xor	 dl, bl
  0009b	88 55 e3	 mov	 BYTE PTR __k$[ebp+7], dl
  0009e	8a 50 08	 mov	 dl, BYTE PTR [eax+8]
  000a1	84 d2		 test	 dl, dl
  000a3	0f 84 db 01 00
	00		 je	 $LN88@LoadFloat_@4
  000a9	80 f2 ed	 xor	 dl, -19			; ffffffedH
  000ac	88 55 e4	 mov	 BYTE PTR __k$[ebp+8], dl
  000af	8a 50 09	 mov	 dl, BYTE PTR [eax+9]
  000b2	84 d2		 test	 dl, dl
  000b4	0f 84 c5 01 00
	00		 je	 $LN87@LoadFloat_@4
  000ba	32 d1		 xor	 dl, cl
  000bc	88 55 e5	 mov	 BYTE PTR __k$[ebp+9], dl
  000bf	8a 50 0a	 mov	 dl, BYTE PTR [eax+10]
  000c2	84 d2		 test	 dl, dl
  000c4	0f 84 af 01 00
	00		 je	 $LN86@LoadFloat_@4
  000ca	80 f2 eb	 xor	 dl, -21			; ffffffebH
  000cd	88 55 e6	 mov	 BYTE PTR __k$[ebp+10], dl
  000d0	8a 50 0b	 mov	 dl, BYTE PTR [eax+11]
  000d3	84 d2		 test	 dl, dl
  000d5	0f 84 99 01 00
	00		 je	 $LN85@LoadFloat_@4
  000db	32 d3		 xor	 dl, bl
  000dd	88 55 e7	 mov	 BYTE PTR __k$[ebp+11], dl
  000e0	8a 50 0c	 mov	 dl, BYTE PTR [eax+12]
  000e3	84 d2		 test	 dl, dl
  000e5	0f 84 83 01 00
	00		 je	 $LN84@LoadFloat_@4
  000eb	80 f2 ed	 xor	 dl, -19			; ffffffedH
  000ee	88 55 e8	 mov	 BYTE PTR __k$[ebp+12], dl
  000f1	8a 50 0d	 mov	 dl, BYTE PTR [eax+13]
  000f4	84 d2		 test	 dl, dl
  000f6	0f 84 6d 01 00
	00		 je	 $LN83@LoadFloat_@4
  000fc	32 d1		 xor	 dl, cl
  000fe	88 55 e9	 mov	 BYTE PTR __k$[ebp+13], dl
  00101	8a 50 0e	 mov	 dl, BYTE PTR [eax+14]
  00104	84 d2		 test	 dl, dl
  00106	0f 84 57 01 00
	00		 je	 $LN82@LoadFloat_@4
  0010c	80 f2 eb	 xor	 dl, -21			; ffffffebH
  0010f	88 55 ea	 mov	 BYTE PTR __k$[ebp+14], dl
  00112	8a 50 0f	 mov	 dl, BYTE PTR [eax+15]
  00115	84 d2		 test	 dl, dl
  00117	0f 84 41 01 00
	00		 je	 $LN81@LoadFloat_@4
  0011d	32 d3		 xor	 dl, bl
  0011f	88 55 eb	 mov	 BYTE PTR __k$[ebp+15], dl
  00122	8a 50 10	 mov	 dl, BYTE PTR [eax+16]
  00125	84 d2		 test	 dl, dl
  00127	0f 84 2b 01 00
	00		 je	 $LN80@LoadFloat_@4
  0012d	80 f2 ed	 xor	 dl, -19			; ffffffedH
  00130	88 55 ec	 mov	 BYTE PTR __k$[ebp+16], dl
  00133	8a 50 11	 mov	 dl, BYTE PTR [eax+17]
  00136	84 d2		 test	 dl, dl
  00138	0f 84 15 01 00
	00		 je	 $LN79@LoadFloat_@4
  0013e	32 d1		 xor	 dl, cl
  00140	88 55 ed	 mov	 BYTE PTR __k$[ebp+17], dl
  00143	8a 50 12	 mov	 dl, BYTE PTR [eax+18]
  00146	84 d2		 test	 dl, dl
  00148	0f 84 ff 00 00
	00		 je	 $LN78@LoadFloat_@4
  0014e	80 f2 eb	 xor	 dl, -21			; ffffffebH
  00151	88 55 ee	 mov	 BYTE PTR __k$[ebp+18], dl
  00154	8a 50 13	 mov	 dl, BYTE PTR [eax+19]
  00157	84 d2		 test	 dl, dl
  00159	0f 84 e9 00 00
	00		 je	 $LN77@LoadFloat_@4
  0015f	32 d3		 xor	 dl, bl
  00161	88 55 ef	 mov	 BYTE PTR __k$[ebp+19], dl
  00164	8a 50 14	 mov	 dl, BYTE PTR [eax+20]
  00167	84 d2		 test	 dl, dl
  00169	0f 84 d3 00 00
	00		 je	 $LN76@LoadFloat_@4
  0016f	80 f2 ed	 xor	 dl, -19			; ffffffedH
  00172	88 55 f0	 mov	 BYTE PTR __k$[ebp+20], dl
  00175	8a 50 15	 mov	 dl, BYTE PTR [eax+21]
  00178	84 d2		 test	 dl, dl
  0017a	0f 84 bd 00 00
	00		 je	 $LN75@LoadFloat_@4
  00180	32 d1		 xor	 dl, cl
  00182	88 55 f1	 mov	 BYTE PTR __k$[ebp+21], dl
  00185	8a 50 16	 mov	 dl, BYTE PTR [eax+22]
  00188	84 d2		 test	 dl, dl
  0018a	0f 84 a7 00 00
	00		 je	 $LN74@LoadFloat_@4
  00190	80 f2 eb	 xor	 dl, -21			; ffffffebH
  00193	88 55 f2	 mov	 BYTE PTR __k$[ebp+22], dl
  00196	8a 50 17	 mov	 dl, BYTE PTR [eax+23]
  00199	84 d2		 test	 dl, dl
  0019b	0f 84 91 00 00
	00		 je	 $LN73@LoadFloat_@4
  001a1	32 d3		 xor	 dl, bl
  001a3	88 55 f3	 mov	 BYTE PTR __k$[ebp+23], dl
  001a6	8a 50 18	 mov	 dl, BYTE PTR [eax+24]
  001a9	84 d2		 test	 dl, dl
  001ab	74 7c		 je	 SHORT $LN72@LoadFloat_@4
  001ad	80 f2 ed	 xor	 dl, -19			; ffffffedH
  001b0	88 55 f4	 mov	 BYTE PTR __k$[ebp+24], dl
  001b3	8a 50 19	 mov	 dl, BYTE PTR [eax+25]
  001b6	84 d2		 test	 dl, dl
  001b8	74 67		 je	 SHORT $LN71@LoadFloat_@4
  001ba	32 d1		 xor	 dl, cl
  001bc	80 78 1a 00	 cmp	 BYTE PTR [eax+26], 0
  001c0	88 55 f5	 mov	 BYTE PTR __k$[ebp+25], dl
  001c3	0f 84 ed 00 00
	00		 je	 $LN1@LoadFloat_@4
  001c9	8a 50 1b	 mov	 dl, BYTE PTR [eax+27]
  001cc	84 d2		 test	 dl, dl
  001ce	74 49		 je	 SHORT $LN69@LoadFloat_@4
  001d0	32 d3		 xor	 dl, bl
  001d2	88 55 f7	 mov	 BYTE PTR __k$[ebp+27], dl
  001d5	8a 50 1c	 mov	 dl, BYTE PTR [eax+28]
  001d8	84 d2		 test	 dl, dl
  001da	74 34		 je	 SHORT $LN68@LoadFloat_@4
  001dc	80 f2 ed	 xor	 dl, -19			; ffffffedH
  001df	88 55 f8	 mov	 BYTE PTR __k$[ebp+28], dl
  001e2	8a 50 1d	 mov	 dl, BYTE PTR [eax+29]
  001e5	84 d2		 test	 dl, dl
  001e7	74 1f		 je	 SHORT $LN67@LoadFloat_@4
  001e9	8a 40 1e	 mov	 al, BYTE PTR [eax+30]
  001ec	32 d1		 xor	 dl, cl
  001ee	88 55 f9	 mov	 BYTE PTR __k$[ebp+29], dl
  001f1	84 c0		 test	 al, al
  001f3	74 0a		 je	 SHORT $LN66@LoadFloat_@4
  001f5	34 eb		 xor	 al, -21			; ffffffebH
  001f7	88 45 fa	 mov	 BYTE PTR __k$[ebp+30], al
  001fa	e9 b7 00 00 00	 jmp	 $LN1@LoadFloat_@4
$LN66@LoadFloat_@4:
  001ff	c6 45 fa eb	 mov	 BYTE PTR __k$[ebp+30], -21 ; ffffffebH
  00203	e9 ae 00 00 00	 jmp	 $LN1@LoadFloat_@4
$LN67@LoadFloat_@4:
  00208	88 4d f9	 mov	 BYTE PTR __k$[ebp+29], cl
  0020b	e9 a6 00 00 00	 jmp	 $LN1@LoadFloat_@4
$LN68@LoadFloat_@4:
  00210	c6 45 f8 ed	 mov	 BYTE PTR __k$[ebp+28], -19 ; ffffffedH
  00214	e9 9d 00 00 00	 jmp	 $LN1@LoadFloat_@4
$LN69@LoadFloat_@4:
  00219	88 5d f7	 mov	 BYTE PTR __k$[ebp+27], bl
  0021c	e9 95 00 00 00	 jmp	 $LN1@LoadFloat_@4
$LN71@LoadFloat_@4:
  00221	88 4d f5	 mov	 BYTE PTR __k$[ebp+25], cl
  00224	e9 8d 00 00 00	 jmp	 $LN1@LoadFloat_@4
$LN72@LoadFloat_@4:
  00229	c6 45 f4 ed	 mov	 BYTE PTR __k$[ebp+24], -19 ; ffffffedH
  0022d	e9 84 00 00 00	 jmp	 $LN1@LoadFloat_@4
$LN73@LoadFloat_@4:
  00232	88 5d f3	 mov	 BYTE PTR __k$[ebp+23], bl
  00235	eb 7f		 jmp	 SHORT $LN1@LoadFloat_@4
$LN74@LoadFloat_@4:
  00237	c6 45 f2 eb	 mov	 BYTE PTR __k$[ebp+22], -21 ; ffffffebH
  0023b	eb 79		 jmp	 SHORT $LN1@LoadFloat_@4
$LN75@LoadFloat_@4:
  0023d	88 4d f1	 mov	 BYTE PTR __k$[ebp+21], cl
  00240	eb 74		 jmp	 SHORT $LN1@LoadFloat_@4
$LN76@LoadFloat_@4:
  00242	c6 45 f0 ed	 mov	 BYTE PTR __k$[ebp+20], -19 ; ffffffedH
  00246	eb 6e		 jmp	 SHORT $LN1@LoadFloat_@4
$LN77@LoadFloat_@4:
  00248	88 5d ef	 mov	 BYTE PTR __k$[ebp+19], bl
  0024b	eb 69		 jmp	 SHORT $LN1@LoadFloat_@4
$LN78@LoadFloat_@4:
  0024d	c6 45 ee eb	 mov	 BYTE PTR __k$[ebp+18], -21 ; ffffffebH
  00251	eb 63		 jmp	 SHORT $LN1@LoadFloat_@4
$LN79@LoadFloat_@4:
  00253	88 4d ed	 mov	 BYTE PTR __k$[ebp+17], cl
  00256	eb 5e		 jmp	 SHORT $LN1@LoadFloat_@4
$LN80@LoadFloat_@4:
  00258	c6 45 ec ed	 mov	 BYTE PTR __k$[ebp+16], -19 ; ffffffedH
  0025c	eb 58		 jmp	 SHORT $LN1@LoadFloat_@4
$LN81@LoadFloat_@4:
  0025e	88 5d eb	 mov	 BYTE PTR __k$[ebp+15], bl
  00261	eb 53		 jmp	 SHORT $LN1@LoadFloat_@4
$LN82@LoadFloat_@4:
  00263	c6 45 ea eb	 mov	 BYTE PTR __k$[ebp+14], -21 ; ffffffebH
  00267	eb 4d		 jmp	 SHORT $LN1@LoadFloat_@4
$LN83@LoadFloat_@4:
  00269	88 4d e9	 mov	 BYTE PTR __k$[ebp+13], cl
  0026c	eb 48		 jmp	 SHORT $LN1@LoadFloat_@4
$LN84@LoadFloat_@4:
  0026e	c6 45 e8 ed	 mov	 BYTE PTR __k$[ebp+12], -19 ; ffffffedH
  00272	eb 42		 jmp	 SHORT $LN1@LoadFloat_@4
$LN85@LoadFloat_@4:
  00274	88 5d e7	 mov	 BYTE PTR __k$[ebp+11], bl
  00277	eb 3d		 jmp	 SHORT $LN1@LoadFloat_@4
$LN86@LoadFloat_@4:
  00279	c6 45 e6 eb	 mov	 BYTE PTR __k$[ebp+10], -21 ; ffffffebH
  0027d	eb 37		 jmp	 SHORT $LN1@LoadFloat_@4
$LN87@LoadFloat_@4:
  0027f	88 4d e5	 mov	 BYTE PTR __k$[ebp+9], cl
  00282	eb 32		 jmp	 SHORT $LN1@LoadFloat_@4
$LN88@LoadFloat_@4:
  00284	c6 45 e4 ed	 mov	 BYTE PTR __k$[ebp+8], -19 ; ffffffedH
  00288	eb 2c		 jmp	 SHORT $LN1@LoadFloat_@4
$LN89@LoadFloat_@4:
  0028a	88 5d e3	 mov	 BYTE PTR __k$[ebp+7], bl
  0028d	eb 27		 jmp	 SHORT $LN1@LoadFloat_@4
$LN90@LoadFloat_@4:
  0028f	c6 45 e2 eb	 mov	 BYTE PTR __k$[ebp+6], -21 ; ffffffebH
  00293	eb 21		 jmp	 SHORT $LN1@LoadFloat_@4
$LN91@LoadFloat_@4:
  00295	88 4d e1	 mov	 BYTE PTR __k$[ebp+5], cl
  00298	eb 1c		 jmp	 SHORT $LN1@LoadFloat_@4
$LN92@LoadFloat_@4:
  0029a	c6 45 e0 ed	 mov	 BYTE PTR __k$[ebp+4], -19 ; ffffffedH
  0029e	eb 16		 jmp	 SHORT $LN1@LoadFloat_@4
$LN93@LoadFloat_@4:
  002a0	c6 45 df ea	 mov	 BYTE PTR __k$[ebp+3], -22 ; ffffffeaH
  002a4	eb 10		 jmp	 SHORT $LN1@LoadFloat_@4
$LN94@LoadFloat_@4:
  002a6	c6 45 de eb	 mov	 BYTE PTR __k$[ebp+2], -21 ; ffffffebH
  002aa	eb 0a		 jmp	 SHORT $LN1@LoadFloat_@4
$LN95@LoadFloat_@4:
  002ac	c6 45 dd ec	 mov	 BYTE PTR __k$[ebp+1], -20 ; ffffffecH
  002b0	eb 04		 jmp	 SHORT $LN1@LoadFloat_@4
$LN96@LoadFloat_@4:
  002b2	c6 45 dc ed	 mov	 BYTE PTR __k$[ebp], -19	; ffffffedH
$LN1@LoadFloat_@4:
  002b6	6a 06		 push	 6
  002b8	8d 45 dc	 lea	 eax, DWORD PTR __k$[ebp]
  002bb	c6 45 f6 00	 mov	 BYTE PTR __k$[ebp+26], 0
  002bf	5a		 pop	 edx
$LL104@LoadFloat_@4:
  002c0	81 30 ed ec eb
	ea		 xor	 DWORD PTR [eax], -353637139 ; eaebecedH
  002c6	83 c0 04	 add	 eax, 4
  002c9	4a		 dec	 edx
  002ca	75 f4		 jne	 SHORT $LL104@LoadFloat_@4
  002cc	6a 18		 push	 24			; 00000018H
  002ce	58		 pop	 eax
$LL101@LoadFloat_@4:
  002cf	8b c8		 mov	 ecx, eax
  002d1	81 e1 03 00 00
	80		 and	 ecx, -2147483645	; 80000003H
  002d7	79 05		 jns	 SHORT $LN111@LoadFloat_@4
  002d9	49		 dec	 ecx
  002da	83 c9 fc	 or	 ecx, -4			; fffffffcH
  002dd	41		 inc	 ecx
$LN111@LoadFloat_@4:
  002de	b2 ed		 mov	 dl, -19			; ffffffedH
  002e0	2a d1		 sub	 dl, cl
  002e2	30 54 05 dc	 xor	 BYTE PTR __k$[ebp+eax], dl
  002e6	40		 inc	 eax
  002e7	83 f8 1a	 cmp	 eax, 26			; 0000001aH
  002ea	7c e3		 jl	 SHORT $LL101@LoadFloat_@4

; 137  : 		return LoadFloat(_k, f);

  002ec	f3 0f 10 45 0c	 movss	 xmm0, DWORD PTR _f$[ebp]
  002f1	51		 push	 ecx
  002f2	8d 45 dc	 lea	 eax, DWORD PTR __k$[ebp]
  002f5	f3 0f 11 04 24	 movss	 DWORD PTR [esp], xmm0
  002fa	50		 push	 eax
  002fb	8b ce		 mov	 ecx, esi
  002fd	ff 15 00 00 00
	00		 call	 DWORD PTR __imp_?LoadFloat@ioINILoader@@QAEMPBDM@Z

; 138  : 	}

  00303	8b 4d fc	 mov	 ecx, DWORD PTR __$ArrayPad$[ebp]
  00306	5e		 pop	 esi
  00307	33 cd		 xor	 ecx, ebp
  00309	5b		 pop	 ebx
  0030a	e8 00 00 00 00	 call	 @__security_check_cookie@4
  0030f	c9		 leave
  00310	c2 08 00	 ret	 8
??$LoadFloat_e@$0BL@@ioINILoader@@QAEMAAY0BL@$$CBDM@Z ENDP ; ioINILoader::LoadFloat_e<27>
_TEXT	ENDS
PUBLIC	??$GetAnimationEventTime_e@$0M@@ioEntityGroup@@QAEMHAAY0M@$$CBD@Z ; ioEntityGroup::GetAnimationEventTime_e<12>
EXTRN	__imp_?GetAnimationEventTime@ioEntityGroup@@QAEMHABVioHashString@@@Z:PROC
EXTRN	__imp_??0ioHashString@@QAE@PBD@Z:PROC
EXTRN	__EH_epilog3_GS:PROC
EXTRN	__EH_prolog3_GS:PROC
;	COMDAT xdata$x
; File d:\lost saga for developer\youtube\tutorial\source\src\lsclient\stringprotect.h
xdata$x	SEGMENT
__unwindtable$??$GetAnimationEventTime_e@$0M@@ioEntityGroup@@QAEMHAAY0M@$$CBD@Z DD 0ffffffffH
	DD	FLAT:__unwindfunclet$??$GetAnimationEventTime_e@$0M@@ioEntityGroup@@QAEMHAAY0M@$$CBD@Z$0
__ehfuncinfo$??$GetAnimationEventTime_e@$0M@@ioEntityGroup@@QAEMHAAY0M@$$CBD@Z DD 019930522H
	DD	01H
	DD	FLAT:__unwindtable$??$GetAnimationEventTime_e@$0M@@ioEntityGroup@@QAEMHAAY0M@$$CBD@Z
	DD	2 DUP(00H)
	DD	2 DUP(00H)
	DD	00H
	DD	01H
; Function compile flags: /Ogsp
; File d:\lost saga for developer\youtube\tutorial\source\src\io3dengine\ioentitygroup.h
xdata$x	ENDS
;	COMDAT ??$GetAnimationEventTime_e@$0M@@ioEntityGroup@@QAEMHAAY0M@$$CBD@Z
_TEXT	SEGMENT
$T554967 = -52						; size = 16
$T554966 = -36						; size = 4
_szEncEventType$ = -32					; size = 12
__$EHRec$ = -12						; size = 12
_id$ = 8						; size = 4
_szEventType$ = 12					; size = 4
??$GetAnimationEventTime_e@$0M@@ioEntityGroup@@QAEMHAAY0M@$$CBD@Z PROC ; ioEntityGroup::GetAnimationEventTime_e<12>, COMDAT
; _this$ = ecx

; 414  : 	{

  00000	6a 28		 push	 40			; 00000028H
  00002	b8 00 00 00 00	 mov	 eax, __ehhandler$??$GetAnimationEventTime_e@$0M@@ioEntityGroup@@QAEMHAAY0M@$$CBD@Z
  00007	e8 00 00 00 00	 call	 __EH_prolog3_GS
  0000c	8b 45 0c	 mov	 eax, DWORD PTR _szEventType$[ebp]
  0000f	8b f1		 mov	 esi, ecx

; 415  : 		_ENCSTR(szEventType, szEncEventType);

  00011	8a 08		 mov	 cl, BYTE PTR [eax]
  00013	84 c9		 test	 cl, cl
  00015	0f 84 36 01 00
	00		 je	 $LN96@GetAnimati
  0001b	b2 ed		 mov	 dl, -19			; ffffffedH
  0001d	32 ca		 xor	 cl, dl
  0001f	88 4d e0	 mov	 BYTE PTR _szEncEventType$[ebp], cl
  00022	8a 48 01	 mov	 cl, BYTE PTR [eax+1]
  00025	84 c9		 test	 cl, cl
  00027	0f 84 1e 01 00
	00		 je	 $LN95@GetAnimati
  0002d	80 f1 ec	 xor	 cl, -20			; ffffffecH
  00030	88 4d e1	 mov	 BYTE PTR _szEncEventType$[ebp+1], cl
  00033	8a 48 02	 mov	 cl, BYTE PTR [eax+2]
  00036	84 c9		 test	 cl, cl
  00038	0f 84 07 01 00
	00		 je	 $LN94@GetAnimati
  0003e	80 f1 eb	 xor	 cl, -21			; ffffffebH
  00041	88 4d e2	 mov	 BYTE PTR _szEncEventType$[ebp+2], cl
  00044	8a 48 03	 mov	 cl, BYTE PTR [eax+3]
  00047	84 c9		 test	 cl, cl
  00049	0f 84 f0 00 00
	00		 je	 $LN93@GetAnimati
  0004f	80 f1 ea	 xor	 cl, -22			; ffffffeaH
  00052	88 4d e3	 mov	 BYTE PTR _szEncEventType$[ebp+3], cl
  00055	8a 48 04	 mov	 cl, BYTE PTR [eax+4]
  00058	84 c9		 test	 cl, cl
  0005a	0f 84 da 00 00
	00		 je	 $LN92@GetAnimati
  00060	32 ca		 xor	 cl, dl
  00062	88 4d e4	 mov	 BYTE PTR _szEncEventType$[ebp+4], cl
  00065	8a 48 05	 mov	 cl, BYTE PTR [eax+5]
  00068	84 c9		 test	 cl, cl
  0006a	0f 84 c4 00 00
	00		 je	 $LN91@GetAnimati
  00070	80 f1 ec	 xor	 cl, -20			; ffffffecH
  00073	88 4d e5	 mov	 BYTE PTR _szEncEventType$[ebp+5], cl
  00076	8a 48 06	 mov	 cl, BYTE PTR [eax+6]
  00079	84 c9		 test	 cl, cl
  0007b	0f 84 ad 00 00
	00		 je	 $LN90@GetAnimati
  00081	80 f1 eb	 xor	 cl, -21			; ffffffebH
  00084	88 4d e6	 mov	 BYTE PTR _szEncEventType$[ebp+6], cl
  00087	8a 48 07	 mov	 cl, BYTE PTR [eax+7]
  0008a	84 c9		 test	 cl, cl
  0008c	0f 84 96 00 00
	00		 je	 $LN89@GetAnimati
  00092	80 f1 ea	 xor	 cl, -22			; ffffffeaH
  00095	88 4d e7	 mov	 BYTE PTR _szEncEventType$[ebp+7], cl
  00098	8a 48 08	 mov	 cl, BYTE PTR [eax+8]
  0009b	84 c9		 test	 cl, cl
  0009d	0f 84 80 00 00
	00		 je	 $LN88@GetAnimati
  000a3	32 ca		 xor	 cl, dl
  000a5	88 4d e8	 mov	 BYTE PTR _szEncEventType$[ebp+8], cl
  000a8	8a 48 09	 mov	 cl, BYTE PTR [eax+9]
  000ab	84 c9		 test	 cl, cl
  000ad	74 6e		 je	 SHORT $LN87@GetAnimati
  000af	80 f1 ec	 xor	 cl, -20			; ffffffecH
  000b2	88 4d e9	 mov	 BYTE PTR _szEncEventType$[ebp+9], cl
  000b5	8a 48 0a	 mov	 cl, BYTE PTR [eax+10]
  000b8	84 c9		 test	 cl, cl
  000ba	74 5b		 je	 SHORT $LN86@GetAnimati
  000bc	80 f1 eb	 xor	 cl, -21			; ffffffebH
  000bf	80 78 0b 00	 cmp	 BYTE PTR [eax+11], 0
  000c3	88 4d ea	 mov	 BYTE PTR _szEncEventType$[ebp+10], cl
  000c6	0f 84 89 00 00
	00		 je	 $LN1@GetAnimati
  000cc	8a 48 0c	 mov	 cl, BYTE PTR [eax+12]
  000cf	84 c9		 test	 cl, cl
  000d1	74 3f		 je	 SHORT $LN84@GetAnimati
  000d3	32 ca		 xor	 cl, dl
  000d5	88 4d ec	 mov	 BYTE PTR _szEncEventType$[ebp+12], cl
  000d8	8a 48 0d	 mov	 cl, BYTE PTR [eax+13]
  000db	84 c9		 test	 cl, cl
  000dd	74 2d		 je	 SHORT $LN83@GetAnimati
  000df	80 f1 ec	 xor	 cl, -20			; ffffffecH
  000e2	88 4d ed	 mov	 BYTE PTR _szEncEventType$[ebp+13], cl
  000e5	8a 48 0e	 mov	 cl, BYTE PTR [eax+14]
  000e8	84 c9		 test	 cl, cl
  000ea	74 1a		 je	 SHORT $LN82@GetAnimati
  000ec	8a 40 0f	 mov	 al, BYTE PTR [eax+15]
  000ef	80 f1 eb	 xor	 cl, -21			; ffffffebH
  000f2	88 4d ee	 mov	 BYTE PTR _szEncEventType$[ebp+14], cl
  000f5	84 c0		 test	 al, al
  000f7	74 07		 je	 SHORT $LN81@GetAnimati
  000f9	34 ea		 xor	 al, -22			; ffffffeaH
  000fb	88 45 ef	 mov	 BYTE PTR _szEncEventType$[ebp+15], al
  000fe	eb 55		 jmp	 SHORT $LN1@GetAnimati
$LN81@GetAnimati:
  00100	c6 45 ef ea	 mov	 BYTE PTR _szEncEventType$[ebp+15], -22 ; ffffffeaH
  00104	eb 4f		 jmp	 SHORT $LN1@GetAnimati
$LN82@GetAnimati:
  00106	c6 45 ee eb	 mov	 BYTE PTR _szEncEventType$[ebp+14], -21 ; ffffffebH
  0010a	eb 49		 jmp	 SHORT $LN1@GetAnimati
$LN83@GetAnimati:
  0010c	c6 45 ed ec	 mov	 BYTE PTR _szEncEventType$[ebp+13], -20 ; ffffffecH
  00110	eb 43		 jmp	 SHORT $LN1@GetAnimati
$LN84@GetAnimati:
  00112	88 55 ec	 mov	 BYTE PTR _szEncEventType$[ebp+12], dl
  00115	eb 3e		 jmp	 SHORT $LN1@GetAnimati
$LN86@GetAnimati:
  00117	c6 45 ea eb	 mov	 BYTE PTR _szEncEventType$[ebp+10], -21 ; ffffffebH
  0011b	eb 38		 jmp	 SHORT $LN1@GetAnimati
$LN87@GetAnimati:
  0011d	c6 45 e9 ec	 mov	 BYTE PTR _szEncEventType$[ebp+9], -20 ; ffffffecH
  00121	eb 32		 jmp	 SHORT $LN1@GetAnimati
$LN88@GetAnimati:
  00123	88 55 e8	 mov	 BYTE PTR _szEncEventType$[ebp+8], dl
  00126	eb 2d		 jmp	 SHORT $LN1@GetAnimati
$LN89@GetAnimati:
  00128	c6 45 e7 ea	 mov	 BYTE PTR _szEncEventType$[ebp+7], -22 ; ffffffeaH
  0012c	eb 27		 jmp	 SHORT $LN1@GetAnimati
$LN90@GetAnimati:
  0012e	c6 45 e6 eb	 mov	 BYTE PTR _szEncEventType$[ebp+6], -21 ; ffffffebH
  00132	eb 21		 jmp	 SHORT $LN1@GetAnimati
$LN91@GetAnimati:
  00134	c6 45 e5 ec	 mov	 BYTE PTR _szEncEventType$[ebp+5], -20 ; ffffffecH
  00138	eb 1b		 jmp	 SHORT $LN1@GetAnimati
$LN92@GetAnimati:
  0013a	88 55 e4	 mov	 BYTE PTR _szEncEventType$[ebp+4], dl
  0013d	eb 16		 jmp	 SHORT $LN1@GetAnimati
$LN93@GetAnimati:
  0013f	c6 45 e3 ea	 mov	 BYTE PTR _szEncEventType$[ebp+3], -22 ; ffffffeaH
  00143	eb 10		 jmp	 SHORT $LN1@GetAnimati
$LN94@GetAnimati:
  00145	c6 45 e2 eb	 mov	 BYTE PTR _szEncEventType$[ebp+2], -21 ; ffffffebH
  00149	eb 0a		 jmp	 SHORT $LN1@GetAnimati
$LN95@GetAnimati:
  0014b	c6 45 e1 ec	 mov	 BYTE PTR _szEncEventType$[ebp+1], -20 ; ffffffecH
  0014f	eb 04		 jmp	 SHORT $LN1@GetAnimati
$LN96@GetAnimati:
  00151	c6 45 e0 ed	 mov	 BYTE PTR _szEncEventType$[ebp], -19 ; ffffffedH
$LN1@GetAnimati:
  00155	6a 02		 push	 2
  00157	8d 45 e0	 lea	 eax, DWORD PTR _szEncEventType$[ebp]
  0015a	c6 45 eb 00	 mov	 BYTE PTR _szEncEventType$[ebp+11], 0
  0015e	59		 pop	 ecx
$LL105@GetAnimati:
  0015f	81 30 ed ec eb
	ea		 xor	 DWORD PTR [eax], -353637139 ; eaebecedH
  00165	83 c0 04	 add	 eax, 4
  00168	49		 dec	 ecx
  00169	75 f4		 jne	 SHORT $LL105@GetAnimati
  0016b	6a 08		 push	 8
  0016d	58		 pop	 eax
$LL102@GetAnimati:
  0016e	8b c8		 mov	 ecx, eax
  00170	81 e1 03 00 00
	80		 and	 ecx, -2147483645	; 80000003H
  00176	79 05		 jns	 SHORT $LN113@GetAnimati
  00178	49		 dec	 ecx
  00179	83 c9 fc	 or	 ecx, -4			; fffffffcH
  0017c	41		 inc	 ecx
$LN113@GetAnimati:
  0017d	b2 ed		 mov	 dl, -19			; ffffffedH
  0017f	2a d1		 sub	 dl, cl
  00181	30 54 05 e0	 xor	 BYTE PTR _szEncEventType$[ebp+eax], dl
  00185	40		 inc	 eax
  00186	83 f8 0b	 cmp	 eax, 11			; 0000000bH
  00189	7c e3		 jl	 SHORT $LL102@GetAnimati

; 416  : 		return GetAnimationEventTime(id, szEncEventType);

  0018b	8d 45 e0	 lea	 eax, DWORD PTR _szEncEventType$[ebp]
  0018e	50		 push	 eax
  0018f	8d 4d cc	 lea	 ecx, DWORD PTR $T554967[ebp]
  00192	ff 15 00 00 00
	00		 call	 DWORD PTR __imp_??0ioHashString@@QAE@PBD@Z
  00198	83 65 fc 00	 and	 DWORD PTR __$EHRec$[ebp+8], 0
  0019c	8d 45 cc	 lea	 eax, DWORD PTR $T554967[ebp]
  0019f	50		 push	 eax
  001a0	ff 75 08	 push	 DWORD PTR _id$[ebp]
  001a3	8b ce		 mov	 ecx, esi
  001a5	ff 15 00 00 00
	00		 call	 DWORD PTR __imp_?GetAnimationEventTime@ioEntityGroup@@QAEMHABVioHashString@@@Z
  001ab	d9 5d dc	 fstp	 DWORD PTR $T554966[ebp]
  001ae	83 4d fc ff	 or	 DWORD PTR __$EHRec$[ebp+8], -1
  001b2	8d 4d cc	 lea	 ecx, DWORD PTR $T554967[ebp]
  001b5	ff 15 00 00 00
	00		 call	 DWORD PTR __imp_??1ioHashString@@QAE@XZ
  001bb	d9 45 dc	 fld	 DWORD PTR $T554966[ebp]

; 417  : 	}

  001be	e8 00 00 00 00	 call	 __EH_epilog3_GS
  001c3	c2 08 00	 ret	 8
_TEXT	ENDS
;	COMDAT text$x
text$x	SEGMENT
__unwindfunclet$??$GetAnimationEventTime_e@$0M@@ioEntityGroup@@QAEMHAAY0M@$$CBD@Z$0:
  00000	8d 4d cc	 lea	 ecx, DWORD PTR $T554967[ebp]
  00003	ff 25 00 00 00
	00		 jmp	 DWORD PTR __imp_??1ioHashString@@QAE@XZ
__ehhandler$??$GetAnimationEventTime_e@$0M@@ioEntityGroup@@QAEMHAAY0M@$$CBD@Z:
  00009	8b 54 24 08	 mov	 edx, DWORD PTR [esp+8]
  0000d	8d 42 0c	 lea	 eax, DWORD PTR [edx+12]
  00010	8b 4a c8	 mov	 ecx, DWORD PTR [edx-56]
  00013	33 c8		 xor	 ecx, eax
  00015	e8 00 00 00 00	 call	 @__security_check_cookie@4
  0001a	8b 4a fc	 mov	 ecx, DWORD PTR [edx-4]
  0001d	33 c8		 xor	 ecx, eax
  0001f	e8 00 00 00 00	 call	 @__security_check_cookie@4
  00024	b8 00 00 00 00	 mov	 eax, OFFSET __ehfuncinfo$??$GetAnimationEventTime_e@$0M@@ioEntityGroup@@QAEMHAAY0M@$$CBD@Z
  00029	e9 00 00 00 00	 jmp	 ___CxxFrameHandler3
text$x	ENDS
??$GetAnimationEventTime_e@$0M@@ioEntityGroup@@QAEMHAAY0M@$$CBD@Z ENDP ; ioEntityGroup::GetAnimationEventTime_e<12>
PUBLIC	??$_Cons_val@V?$allocator@VioHashString@@@std@@VioHashString@@V3@@std@@YAXAAV?$allocator@VioHashString@@@0@PAVioHashString@@$$QAV2@@Z ; std::_Cons_val<std::allocator<ioHashString>,ioHashString,ioHashString>
; Function compile flags: /Ogsp
; File c:\program files (x86)\microsoft visual studio 10.0\vc\include\xmemory
;	COMDAT ??$_Cons_val@V?$allocator@VioHashString@@@std@@VioHashString@@V3@@std@@YAXAAV?$allocator@VioHashString@@@0@PAVioHashString@@$$QAV2@@Z
_TEXT	SEGMENT
__Alval$ = 8						; size = 4
__Pdest$ = 12						; size = 4
__Src$ = 16						; size = 4
??$_Cons_val@V?$allocator@VioHashString@@@std@@VioHashString@@V3@@std@@YAXAAV?$allocator@VioHashString@@@0@PAVioHashString@@$$QAV2@@Z PROC ; std::_Cons_val<std::allocator<ioHashString>,ioHashString,ioHashString>, COMDAT

; 279  : 	{	// construct using allocator

  00000	55		 push	 ebp
  00001	8b ec		 mov	 ebp, esp

; 280  : 	_Alval.construct(_Pdest, _STD forward<_Ty2>(_Src));

  00003	ff 75 10	 push	 DWORD PTR __Src$[ebp]
  00006	8b 4d 08	 mov	 ecx, DWORD PTR __Alval$[ebp]
  00009	ff 75 0c	 push	 DWORD PTR __Pdest$[ebp]
  0000c	e8 00 00 00 00	 call	 ?construct@?$allocator@VioHashString@@@std@@QAEXPAVioHashString@@$$QAV3@@Z ; std::allocator<ioHashString>::construct

; 281  : 	}

  00011	5d		 pop	 ebp
  00012	c3		 ret	 0
??$_Cons_val@V?$allocator@VioHashString@@@std@@VioHashString@@V3@@std@@YAXAAV?$allocator@VioHashString@@@0@PAVioHashString@@$$QAV2@@Z ENDP ; std::_Cons_val<std::allocator<ioHashString>,ioHashString,ioHashString>
_TEXT	ENDS
PUBLIC	??$construct@AAUGroupDummyInfo@@@?$allocator@UGroupDummyInfo@@@std@@QAEXPAUGroupDummyInfo@@AAU2@@Z ; std::allocator<GroupDummyInfo>::construct<GroupDummyInfo &>
;	COMDAT xdata$x
xdata$x	SEGMENT
__unwindtable$??$construct@AAUGroupDummyInfo@@@?$allocator@UGroupDummyInfo@@@std@@QAEXPAUGroupDummyInfo@@AAU2@@Z DD 0ffffffffH
	DD	FLAT:__unwindfunclet$??$construct@AAUGroupDummyInfo@@@?$allocator@UGroupDummyInfo@@@std@@QAEXPAUGroupDummyInfo@@AAU2@@Z$0
__ehfuncinfo$??$construct@AAUGroupDummyInfo@@@?$allocator@UGroupDummyInfo@@@std@@QAEXPAUGroupDummyInfo@@AAU2@@Z DD 019930522H
	DD	01H
	DD	FLAT:__unwindtable$??$construct@AAUGroupDummyInfo@@@?$allocator@UGroupDummyInfo@@@std@@QAEXPAUGroupDummyInfo@@AAU2@@Z
	DD	2 DUP(00H)
	DD	2 DUP(00H)
	DD	00H
	DD	01H
; Function compile flags: /Ogsp
xdata$x	ENDS
;	COMDAT ??$construct@AAUGroupDummyInfo@@@?$allocator@UGroupDummyInfo@@@std@@QAEXPAUGroupDummyInfo@@AAU2@@Z
_TEXT	SEGMENT
$T555004 = -16						; size = 4
__$EHRec$ = -12						; size = 12
__Ptr$ = 8						; size = 4
__Val$ = 12						; size = 4
??$construct@AAUGroupDummyInfo@@@?$allocator@UGroupDummyInfo@@@std@@QAEXPAUGroupDummyInfo@@AAU2@@Z PROC ; std::allocator<GroupDummyInfo>::construct<GroupDummyInfo &>, COMDAT
; _this$ = ecx

; 206  : 		void construct(pointer _Ptr, _Other&& _Val)

  00000	6a 04		 push	 4
  00002	b8 00 00 00 00	 mov	 eax, __ehhandler$??$construct@AAUGroupDummyInfo@@@?$allocator@UGroupDummyInfo@@@std@@QAEXPAUGroupDummyInfo@@AAU2@@Z
  00007	e8 00 00 00 00	 call	 __EH_prolog3

; 207  : 		{	// construct object at _Ptr with value _Val
; 208  : 		::new ((void _FARQ *)_Ptr) _Ty(_STD forward<_Other>(_Val));

  0000c	8b 75 08	 mov	 esi, DWORD PTR __Ptr$[ebp]
  0000f	89 75 f0	 mov	 DWORD PTR $T555004[ebp], esi
  00012	83 65 fc 00	 and	 DWORD PTR __$EHRec$[ebp+8], 0
  00016	85 f6		 test	 esi, esi
  00018	74 12		 je	 SHORT $LN3@construct@2
  0001a	8b 7d 0c	 mov	 edi, DWORD PTR __Val$[ebp]
  0001d	57		 push	 edi
  0001e	8b ce		 mov	 ecx, esi
  00020	ff 15 00 00 00
	00		 call	 DWORD PTR __imp_??0ioHashString@@QAE@ABV0@@Z
  00026	d9 47 10	 fld	 DWORD PTR [edi+16]
  00029	d9 5e 10	 fstp	 DWORD PTR [esi+16]
$LN3@construct@2:

; 209  : 		}

  0002c	e8 00 00 00 00	 call	 __EH_epilog3
  00031	c2 08 00	 ret	 8
_TEXT	ENDS
;	COMDAT text$x
text$x	SEGMENT
__unwindfunclet$??$construct@AAUGroupDummyInfo@@@?$allocator@UGroupDummyInfo@@@std@@QAEXPAUGroupDummyInfo@@AAU2@@Z$0:
  00000	ff 75 08	 push	 DWORD PTR __Ptr$[ebp]
  00003	ff 75 f0	 push	 DWORD PTR $T555004[ebp]
  00006	e8 00 00 00 00	 call	 ??3@YAXPAX0@Z		; operator delete
  0000b	59		 pop	 ecx
  0000c	59		 pop	 ecx
  0000d	c3		 ret	 0
__ehhandler$??$construct@AAUGroupDummyInfo@@@?$allocator@UGroupDummyInfo@@@std@@QAEXPAUGroupDummyInfo@@AAU2@@Z:
  0000e	8b 54 24 08	 mov	 edx, DWORD PTR [esp+8]
  00012	8d 42 0c	 lea	 eax, DWORD PTR [edx+12]
  00015	8b 4a ec	 mov	 ecx, DWORD PTR [edx-20]
  00018	33 c8		 xor	 ecx, eax
  0001a	e8 00 00 00 00	 call	 @__security_check_cookie@4
  0001f	b8 00 00 00 00	 mov	 eax, OFFSET __ehfuncinfo$??$construct@AAUGroupDummyInfo@@@?$allocator@UGroupDummyInfo@@@std@@QAEXPAUGroupDummyInfo@@AAU2@@Z
  00024	e9 00 00 00 00	 jmp	 ___CxxFrameHandler3
text$x	ENDS
??$construct@AAUGroupDummyInfo@@@?$allocator@UGroupDummyInfo@@@std@@QAEXPAUGroupDummyInfo@@AAU2@@Z ENDP ; std::allocator<GroupDummyInfo>::construct<GroupDummyInfo &>
PUBLIC	??$_Construct@UGroupDummyInfo@@ABU1@@std@@YAXPAUGroupDummyInfo@@ABU1@@Z ; std::_Construct<GroupDummyInfo,GroupDummyInfo const &>
;	COMDAT xdata$x
xdata$x	SEGMENT
__unwindtable$??$_Construct@UGroupDummyInfo@@ABU1@@std@@YAXPAUGroupDummyInfo@@ABU1@@Z DD 0ffffffffH
	DD	FLAT:__unwindfunclet$??$_Construct@UGroupDummyInfo@@ABU1@@std@@YAXPAUGroupDummyInfo@@ABU1@@Z$0
__ehfuncinfo$??$_Construct@UGroupDummyInfo@@ABU1@@std@@YAXPAUGroupDummyInfo@@ABU1@@Z DD 019930522H
	DD	01H
	DD	FLAT:__unwindtable$??$_Construct@UGroupDummyInfo@@ABU1@@std@@YAXPAUGroupDummyInfo@@ABU1@@Z
	DD	2 DUP(00H)
	DD	2 DUP(00H)
	DD	00H
	DD	01H
; Function compile flags: /Ogsp
xdata$x	ENDS
;	COMDAT ??$_Construct@UGroupDummyInfo@@ABU1@@std@@YAXPAUGroupDummyInfo@@ABU1@@Z
_TEXT	SEGMENT
$T555027 = -16						; size = 4
__$EHRec$ = -12						; size = 12
__Vptr$ = 8						; size = 4
__Ptr$ = 8						; size = 4
__Val$ = 12						; size = 4
??$_Construct@UGroupDummyInfo@@ABU1@@std@@YAXPAUGroupDummyInfo@@ABU1@@Z PROC ; std::_Construct<GroupDummyInfo,GroupDummyInfo const &>, COMDAT

; 46   : 	{	// construct object at _Ptr with value _Val

  00000	6a 04		 push	 4
  00002	b8 00 00 00 00	 mov	 eax, __ehhandler$??$_Construct@UGroupDummyInfo@@ABU1@@std@@YAXPAUGroupDummyInfo@@ABU1@@Z
  00007	e8 00 00 00 00	 call	 __EH_prolog3

; 47   : 	void _FARQ *_Vptr = _Ptr;

  0000c	8b 75 08	 mov	 esi, DWORD PTR __Ptr$[ebp]
  0000f	89 75 08	 mov	 DWORD PTR __Vptr$[ebp], esi

; 48   : 	::new (_Vptr) _Ty1(_STD forward<_Ty2>(_Val));

  00012	89 75 f0	 mov	 DWORD PTR $T555027[ebp], esi
  00015	83 65 fc 00	 and	 DWORD PTR __$EHRec$[ebp+8], 0
  00019	85 f6		 test	 esi, esi
  0001b	74 12		 je	 SHORT $LN3@Construct@2
  0001d	8b 7d 0c	 mov	 edi, DWORD PTR __Val$[ebp]
  00020	57		 push	 edi
  00021	8b ce		 mov	 ecx, esi
  00023	ff 15 00 00 00
	00		 call	 DWORD PTR __imp_??0ioHashString@@QAE@ABV0@@Z
  00029	d9 47 10	 fld	 DWORD PTR [edi+16]
  0002c	d9 5e 10	 fstp	 DWORD PTR [esi+16]
$LN3@Construct@2:

; 49   : 	}

  0002f	e8 00 00 00 00	 call	 __EH_epilog3
  00034	c3		 ret	 0
_TEXT	ENDS
;	COMDAT text$x
text$x	SEGMENT
__unwindfunclet$??$_Construct@UGroupDummyInfo@@ABU1@@std@@YAXPAUGroupDummyInfo@@ABU1@@Z$0:
  00000	ff 75 08	 push	 DWORD PTR __Vptr$[ebp]
  00003	ff 75 f0	 push	 DWORD PTR $T555027[ebp]
  00006	e8 00 00 00 00	 call	 ??3@YAXPAX0@Z		; operator delete
  0000b	59		 pop	 ecx
  0000c	59		 pop	 ecx
  0000d	c3		 ret	 0
__ehhandler$??$_Construct@UGroupDummyInfo@@ABU1@@std@@YAXPAUGroupDummyInfo@@ABU1@@Z:
  0000e	8b 54 24 08	 mov	 edx, DWORD PTR [esp+8]
  00012	8d 42 0c	 lea	 eax, DWORD PTR [edx+12]
  00015	8b 4a ec	 mov	 ecx, DWORD PTR [edx-20]
  00018	33 c8		 xor	 ecx, eax
  0001a	e8 00 00 00 00	 call	 @__security_check_cookie@4
  0001f	b8 00 00 00 00	 mov	 eax, OFFSET __ehfuncinfo$??$_Construct@UGroupDummyInfo@@ABU1@@std@@YAXPAUGroupDummyInfo@@ABU1@@Z
  00024	e9 00 00 00 00	 jmp	 ___CxxFrameHandler3
text$x	ENDS
??$_Construct@UGroupDummyInfo@@ABU1@@std@@YAXPAUGroupDummyInfo@@ABU1@@Z ENDP ; std::_Construct<GroupDummyInfo,GroupDummyInfo const &>
PUBLIC	??8?$_Vector_const_iterator@V?$_Vector_val@UGroupDummyInfo@@V?$allocator@UGroupDummyInfo@@@std@@@std@@@std@@QBE_NABV01@@Z ; std::_Vector_const_iterator<std::_Vector_val<GroupDummyInfo,std::allocator<GroupDummyInfo> > >::operator==
; Function compile flags: /Ogsp
; File c:\program files (x86)\microsoft visual studio 10.0\vc\include\vector
;	COMDAT ??8?$_Vector_const_iterator@V?$_Vector_val@UGroupDummyInfo@@V?$allocator@UGroupDummyInfo@@@std@@@std@@@std@@QBE_NABV01@@Z
_TEXT	SEGMENT
__Right$ = 8						; size = 4
??8?$_Vector_const_iterator@V?$_Vector_val@UGroupDummyInfo@@V?$allocator@UGroupDummyInfo@@@std@@@std@@@std@@QBE_NABV01@@Z PROC ; std::_Vector_const_iterator<std::_Vector_val<GroupDummyInfo,std::allocator<GroupDummyInfo> > >::operator==, COMDAT
; _this$ = ecx

; 201  : 		{	// test for iterator equality

  00000	55		 push	 ebp
  00001	8b ec		 mov	 ebp, esp

; 202  : 		_Compat(_Right);
; 203  : 		return (this->_Ptr == _Right._Ptr);

  00003	8b 01		 mov	 eax, DWORD PTR [ecx]
  00005	8b 4d 08	 mov	 ecx, DWORD PTR __Right$[ebp]
  00008	2b 01		 sub	 eax, DWORD PTR [ecx]
  0000a	f7 d8		 neg	 eax
  0000c	1b c0		 sbb	 eax, eax
  0000e	40		 inc	 eax

; 204  : 		}

  0000f	5d		 pop	 ebp
  00010	c2 04 00	 ret	 4
??8?$_Vector_const_iterator@V?$_Vector_val@UGroupDummyInfo@@V?$allocator@UGroupDummyInfo@@@std@@@std@@@std@@QBE_NABV01@@Z ENDP ; std::_Vector_const_iterator<std::_Vector_val<GroupDummyInfo,std::allocator<GroupDummyInfo> > >::operator==
_TEXT	ENDS
PUBLIC	??$_Destroy@UGroupDummyInfo@@@std@@YAXPAUGroupDummyInfo@@@Z ; std::_Destroy<GroupDummyInfo>
; Function compile flags: /Ogsp
; File c:\program files (x86)\microsoft visual studio 10.0\vc\include\xmemory
;	COMDAT ??$_Destroy@UGroupDummyInfo@@@std@@YAXPAUGroupDummyInfo@@@Z
_TEXT	SEGMENT
__Ptr$ = 8						; size = 4
??$_Destroy@UGroupDummyInfo@@@std@@YAXPAUGroupDummyInfo@@@Z PROC ; std::_Destroy<GroupDummyInfo>, COMDAT

; 62   : 	{	// destroy object at _Ptr

  00000	55		 push	 ebp
  00001	8b ec		 mov	 ebp, esp

; 63   : 	_Ptr->~_Ty();

  00003	8b 4d 08	 mov	 ecx, DWORD PTR __Ptr$[ebp]

; 64   : 	}

  00006	5d		 pop	 ebp

; 63   : 	_Ptr->~_Ty();

  00007	ff 25 00 00 00
	00		 jmp	 DWORD PTR __imp_??1ioHashString@@QAE@XZ
??$_Destroy@UGroupDummyInfo@@@std@@YAXPAUGroupDummyInfo@@@Z ENDP ; std::_Destroy<GroupDummyInfo>
_TEXT	ENDS
PUBLIC	?construct@?$allocator@UGroupDummyInfo@@@std@@QAEXPAUGroupDummyInfo@@$$QAU3@@Z ; std::allocator<GroupDummyInfo>::construct
;	COMDAT xdata$x
xdata$x	SEGMENT
__unwindtable$?construct@?$allocator@UGroupDummyInfo@@@std@@QAEXPAUGroupDummyInfo@@$$QAU3@@Z DD 0ffffffffH
	DD	FLAT:__unwindfunclet$?construct@?$allocator@UGroupDummyInfo@@@std@@QAEXPAUGroupDummyInfo@@$$QAU3@@Z$0
__ehfuncinfo$?construct@?$allocator@UGroupDummyInfo@@@std@@QAEXPAUGroupDummyInfo@@$$QAU3@@Z DD 019930522H
	DD	01H
	DD	FLAT:__unwindtable$?construct@?$allocator@UGroupDummyInfo@@@std@@QAEXPAUGroupDummyInfo@@$$QAU3@@Z
	DD	2 DUP(00H)
	DD	2 DUP(00H)
	DD	00H
	DD	01H
; Function compile flags: /Ogsp
xdata$x	ENDS
;	COMDAT ?construct@?$allocator@UGroupDummyInfo@@@std@@QAEXPAUGroupDummyInfo@@$$QAU3@@Z
_TEXT	SEGMENT
$T555068 = -16						; size = 4
__$EHRec$ = -12						; size = 12
__Ptr$ = 8						; size = 4
__Val$ = 12						; size = 4
?construct@?$allocator@UGroupDummyInfo@@@std@@QAEXPAUGroupDummyInfo@@$$QAU3@@Z PROC ; std::allocator<GroupDummyInfo>::construct, COMDAT
; _this$ = ecx

; 201  : 		{	// construct object at _Ptr with value _Val

  00000	6a 04		 push	 4
  00002	b8 00 00 00 00	 mov	 eax, __ehhandler$?construct@?$allocator@UGroupDummyInfo@@@std@@QAEXPAUGroupDummyInfo@@$$QAU3@@Z
  00007	e8 00 00 00 00	 call	 __EH_prolog3

; 202  : 		::new ((void _FARQ *)_Ptr) _Ty(_STD forward<_Ty>(_Val));

  0000c	8b 75 08	 mov	 esi, DWORD PTR __Ptr$[ebp]
  0000f	89 75 f0	 mov	 DWORD PTR $T555068[ebp], esi
  00012	83 65 fc 00	 and	 DWORD PTR __$EHRec$[ebp+8], 0
  00016	85 f6		 test	 esi, esi
  00018	74 12		 je	 SHORT $LN3@construct@3
  0001a	8b 7d 0c	 mov	 edi, DWORD PTR __Val$[ebp]
  0001d	57		 push	 edi
  0001e	8b ce		 mov	 ecx, esi
  00020	ff 15 00 00 00
	00		 call	 DWORD PTR __imp_??0ioHashString@@QAE@ABV0@@Z
  00026	d9 47 10	 fld	 DWORD PTR [edi+16]
  00029	d9 5e 10	 fstp	 DWORD PTR [esi+16]
$LN3@construct@3:

; 203  : 		}

  0002c	e8 00 00 00 00	 call	 __EH_epilog3
  00031	c2 08 00	 ret	 8
_TEXT	ENDS
;	COMDAT text$x
text$x	SEGMENT
__unwindfunclet$?construct@?$allocator@UGroupDummyInfo@@@std@@QAEXPAUGroupDummyInfo@@$$QAU3@@Z$0:
  00000	ff 75 08	 push	 DWORD PTR __Ptr$[ebp]
  00003	ff 75 f0	 push	 DWORD PTR $T555068[ebp]
  00006	e8 00 00 00 00	 call	 ??3@YAXPAX0@Z		; operator delete
  0000b	59		 pop	 ecx
  0000c	59		 pop	 ecx
  0000d	c3		 ret	 0
__ehhandler$?construct@?$allocator@UGroupDummyInfo@@@std@@QAEXPAUGroupDummyInfo@@$$QAU3@@Z:
  0000e	8b 54 24 08	 mov	 edx, DWORD PTR [esp+8]
  00012	8d 42 0c	 lea	 eax, DWORD PTR [edx+12]
  00015	8b 4a ec	 mov	 ecx, DWORD PTR [edx-20]
  00018	33 c8		 xor	 ecx, eax
  0001a	e8 00 00 00 00	 call	 @__security_check_cookie@4
  0001f	b8 00 00 00 00	 mov	 eax, OFFSET __ehfuncinfo$?construct@?$allocator@UGroupDummyInfo@@@std@@QAEXPAUGroupDummyInfo@@$$QAU3@@Z
  00024	e9 00 00 00 00	 jmp	 ___CxxFrameHandler3
text$x	ENDS
?construct@?$allocator@UGroupDummyInfo@@@std@@QAEXPAUGroupDummyInfo@@$$QAU3@@Z ENDP ; std::allocator<GroupDummyInfo>::construct
PUBLIC	??0?$CEncrypt@M@@QAE@XZ				; CEncrypt<float>::CEncrypt<float>
EXTRN	??0ccddaabb@@QAE@XZ:PROC			; ccddaabb::ccddaabb
;	COMDAT xdata$x
; File d:\lost saga for developer\youtube\tutorial\source\src\lsclient\encryptvalue.h
xdata$x	SEGMENT
__unwindtable$??0?$CEncrypt@M@@QAE@XZ DD 0ffffffffH
	DD	FLAT:__unwindfunclet$??0?$CEncrypt@M@@QAE@XZ$0
__ehfuncinfo$??0?$CEncrypt@M@@QAE@XZ DD 019930522H
	DD	01H
	DD	FLAT:__unwindtable$??0?$CEncrypt@M@@QAE@XZ
	DD	2 DUP(00H)
	DD	2 DUP(00H)
	DD	00H
	DD	01H
; Function compile flags: /Ogsp
xdata$x	ENDS
;	COMDAT ??0?$CEncrypt@M@@QAE@XZ
_TEXT	SEGMENT
_this$ = -16						; size = 4
__$EHRec$ = -12						; size = 12
??0?$CEncrypt@M@@QAE@XZ PROC				; CEncrypt<float>::CEncrypt<float>, COMDAT
; _this$ = ecx

; 109  : 	CEncrypt()

  00000	6a 04		 push	 4
  00002	b8 00 00 00 00	 mov	 eax, __ehhandler$??0?$CEncrypt@M@@QAE@XZ
  00007	e8 00 00 00 00	 call	 __EH_prolog3
  0000c	8b f1		 mov	 esi, ecx
  0000e	89 75 f0	 mov	 DWORD PTR _this$[ebp], esi
  00011	8d 4e 0c	 lea	 ecx, DWORD PTR [esi+12]
  00014	c7 06 00 00 00
	00		 mov	 DWORD PTR [esi], OFFSET ??_7?$CEncrypt@M@@6B@
  0001a	e8 00 00 00 00	 call	 ??0ccddaabb@@QAE@XZ	; ccddaabb::ccddaabb
  0001f	83 65 fc 00	 and	 DWORD PTR __$EHRec$[ebp+8], 0

; 110  : 	{
; 111  : 		Init();

  00023	8b ce		 mov	 ecx, esi
  00025	e8 00 00 00 00	 call	 ?Init@?$CEncrypt@M@@AAEXXZ ; CEncrypt<float>::Init

; 112  : 	}

  0002a	8b c6		 mov	 eax, esi
  0002c	e8 00 00 00 00	 call	 __EH_epilog3
  00031	c3		 ret	 0
_TEXT	ENDS
;	COMDAT text$x
text$x	SEGMENT
__unwindfunclet$??0?$CEncrypt@M@@QAE@XZ$0:
  00000	8b 4d f0	 mov	 ecx, DWORD PTR _this$[ebp]
  00003	83 c1 0c	 add	 ecx, 12			; 0000000cH
  00006	e9 00 00 00 00	 jmp	 ??1ccddaabb@@UAE@XZ	; ccddaabb::~ccddaabb
__ehhandler$??0?$CEncrypt@M@@QAE@XZ:
  0000b	8b 54 24 08	 mov	 edx, DWORD PTR [esp+8]
  0000f	8d 42 0c	 lea	 eax, DWORD PTR [edx+12]
  00012	8b 4a ec	 mov	 ecx, DWORD PTR [edx-20]
  00015	33 c8		 xor	 ecx, eax
  00017	e8 00 00 00 00	 call	 @__security_check_cookie@4
  0001c	b8 00 00 00 00	 mov	 eax, OFFSET __ehfuncinfo$??0?$CEncrypt@M@@QAE@XZ
  00021	e9 00 00 00 00	 jmp	 ___CxxFrameHandler3
text$x	ENDS
??0?$CEncrypt@M@@QAE@XZ ENDP				; CEncrypt<float>::CEncrypt<float>
PUBLIC	??B?$CEncrypt@M@@QAEMXZ				; CEncrypt<float>::operator float
; Function compile flags: /Ogsp
;	COMDAT ??B?$CEncrypt@M@@QAEMXZ
_TEXT	SEGMENT
_value$ = -4						; size = 4
??B?$CEncrypt@M@@QAEMXZ PROC				; CEncrypt<float>::operator float, COMDAT
; _this$ = ecx

; 134  : 	{

  00000	55		 push	 ebp
  00001	8b ec		 mov	 ebp, esp
  00003	51		 push	 ecx

; 135  : 		type value;
; 136  : 		DecryptValueToPool(&value);

  00004	8d 45 fc	 lea	 eax, DWORD PTR _value$[ebp]
  00007	50		 push	 eax
  00008	e8 00 00 00 00	 call	 ?DecryptValueToPool@?$CEncrypt@M@@QAEXPAM@Z ; CEncrypt<float>::DecryptValueToPool

; 137  : 
; 138  : #ifdef _NOTUSE
; 139  : 		Debug();
; 140  : #endif
; 141  : 		return value;

  0000d	d9 45 fc	 fld	 DWORD PTR _value$[ebp]

; 142  : 	}

  00010	c9		 leave
  00011	c3		 ret	 0
??B?$CEncrypt@M@@QAEMXZ ENDP				; CEncrypt<float>::operator float
_TEXT	ENDS
PUBLIC	??B?$CEncrypt@M@@QBEMXZ				; CEncrypt<float>::operator float
; Function compile flags: /Ogsp
;	COMDAT ??B?$CEncrypt@M@@QBEMXZ
_TEXT	SEGMENT
_value$ = -4						; size = 4
??B?$CEncrypt@M@@QBEMXZ PROC				; CEncrypt<float>::operator float, COMDAT
; _this$ = ecx

; 145  : 	{

  00000	55		 push	 ebp
  00001	8b ec		 mov	 ebp, esp
  00003	51		 push	 ecx

; 146  : 		//UJ 130829, const    --start
; 147  : 		type value;
; 148  : 		CEncrypt<type>* pThis = const_cast<CEncrypt<type>*>(this);
; 149  : 		pThis->DecryptValueToPool(&value);

  00004	8d 45 fc	 lea	 eax, DWORD PTR _value$[ebp]
  00007	50		 push	 eax
  00008	e8 00 00 00 00	 call	 ?DecryptValueToPool@?$CEncrypt@M@@QAEXPAM@Z ; CEncrypt<float>::DecryptValueToPool

; 150  : 		//// const DecryptValueToPool     .
; 151  :  		//type value;
; 152  : 		//char szTempMem[MAX_ENCRYPT];
; 153  : 		//m_RC5.DecryptByte( m_MemPool, szTempMem, max(m_ValueSize, DEFAULT_ENCRYPT) );
; 154  : 		//memcpy( &value, szTempMem, m_ValueSize );
; 155  : 		//UJ --end
; 156  : 
; 157  : #ifdef _NOTUSE
; 158  : 		Debug();
; 159  : #endif
; 160  : 		return value;

  0000d	d9 45 fc	 fld	 DWORD PTR _value$[ebp]

; 161  : 	}

  00010	c9		 leave
  00011	c3		 ret	 0
??B?$CEncrypt@M@@QBEMXZ ENDP				; CEncrypt<float>::operator float
_TEXT	ENDS
PUBLIC	??4?$CEncrypt@M@@QAEMM@Z			; CEncrypt<float>::operator=
; Function compile flags: /Ogsp
;	COMDAT ??4?$CEncrypt@M@@QAEMM@Z
_TEXT	SEGMENT
_value$ = 8						; size = 4
_inValue$ = 8						; size = 4
??4?$CEncrypt@M@@QAEMM@Z PROC				; CEncrypt<float>::operator=, COMDAT
; _this$ = ecx

; 1654 : 	{	

  00000	55		 push	 ebp
  00001	8b ec		 mov	 ebp, esp

; 1655 : 		type value = inValue;

  00003	d9 45 08	 fld	 DWORD PTR _inValue$[ebp]

; 1656 : 		EncryptValueToPool((char*)&value);

  00006	8d 45 08	 lea	 eax, DWORD PTR _value$[ebp]
  00009	50		 push	 eax
  0000a	d9 5d 08	 fstp	 DWORD PTR _value$[ebp]
  0000d	e8 00 00 00 00	 call	 ?EncryptValueToPool@?$CEncrypt@M@@AAEXPBD@Z ; CEncrypt<float>::EncryptValueToPool

; 1657 : #ifdef _NOTUSE
; 1658 : 		m_value = inValue;
; 1659 : 		Debug();
; 1660 : #endif
; 1661 : 		return value;

  00012	d9 45 08	 fld	 DWORD PTR _value$[ebp]

; 1662 : 	}

  00015	5d		 pop	 ebp
  00016	c2 04 00	 ret	 4
??4?$CEncrypt@M@@QAEMM@Z ENDP				; CEncrypt<float>::operator=
_TEXT	ENDS
PUBLIC	??Z?$CEncrypt@M@@QAEAAMABM@Z			; CEncrypt<float>::operator-=
; Function compile flags: /Ogsp
;	COMDAT ??Z?$CEncrypt@M@@QAEAAMABM@Z
_TEXT	SEGMENT
_value$ = -4						; size = 4
_inValue$ = 8						; size = 4
??Z?$CEncrypt@M@@QAEAAMABM@Z PROC			; CEncrypt<float>::operator-=, COMDAT
; _this$ = ecx

; 1728 : 	{

  00000	55		 push	 ebp
  00001	8b ec		 mov	 ebp, esp
  00003	51		 push	 ecx
  00004	56		 push	 esi

; 1729 : 		type value;
; 1730 : 		DecryptValueToPool(&value);

  00005	8d 45 fc	 lea	 eax, DWORD PTR _value$[ebp]
  00008	50		 push	 eax
  00009	8b f1		 mov	 esi, ecx
  0000b	e8 00 00 00 00	 call	 ?DecryptValueToPool@?$CEncrypt@M@@QAEXPAM@Z ; CEncrypt<float>::DecryptValueToPool

; 1731 : 		value -= inValue;

  00010	8b 45 08	 mov	 eax, DWORD PTR _inValue$[ebp]
  00013	f3 0f 10 45 fc	 movss	 xmm0, DWORD PTR _value$[ebp]
  00018	f3 0f 10 08	 movss	 xmm1, DWORD PTR [eax]
  0001c	0f 5a c0	 cvtps2pd xmm0, xmm0
  0001f	0f 5a c9	 cvtps2pd xmm1, xmm1

; 1732 : 		EncryptValueToPool((char*)&value);

  00022	8d 45 fc	 lea	 eax, DWORD PTR _value$[ebp]
  00025	f2 0f 5c c1	 subsd	 xmm0, xmm1
  00029	66 0f 5a c0	 cvtpd2ps xmm0, xmm0
  0002d	50		 push	 eax
  0002e	8b ce		 mov	 ecx, esi
  00030	f3 0f 11 45 fc	 movss	 DWORD PTR _value$[ebp], xmm0
  00035	e8 00 00 00 00	 call	 ?EncryptValueToPool@?$CEncrypt@M@@AAEXPBD@Z ; CEncrypt<float>::EncryptValueToPool

; 1733 : #ifdef _NOTUSE
; 1734 : 		m_value -= inValue;
; 1735 : 		Debug();
; 1736 : #endif
; 1737 : 		return value;

  0003a	8d 45 fc	 lea	 eax, DWORD PTR _value$[ebp]
  0003d	5e		 pop	 esi

; 1738 : 	} 

  0003e	c9		 leave
  0003f	c2 04 00	 ret	 4
??Z?$CEncrypt@M@@QAEAAMABM@Z ENDP			; CEncrypt<float>::operator-=
_TEXT	ENDS
PUBLIC	??B?$CEncrypt@K@@QAEKXZ				; CEncrypt<unsigned long>::operator unsigned long
; Function compile flags: /Ogsp
;	COMDAT ??B?$CEncrypt@K@@QAEKXZ
_TEXT	SEGMENT
_value$ = -4						; size = 4
??B?$CEncrypt@K@@QAEKXZ PROC				; CEncrypt<unsigned long>::operator unsigned long, COMDAT
; _this$ = ecx

; 134  : 	{

  00000	55		 push	 ebp
  00001	8b ec		 mov	 ebp, esp
  00003	51		 push	 ecx

; 135  : 		type value;
; 136  : 		DecryptValueToPool(&value);

  00004	8d 45 fc	 lea	 eax, DWORD PTR _value$[ebp]
  00007	50		 push	 eax
  00008	e8 00 00 00 00	 call	 ?DecryptValueToPool@?$CEncrypt@K@@QAEXPAK@Z ; CEncrypt<unsigned long>::DecryptValueToPool

; 137  : 
; 138  : #ifdef _NOTUSE
; 139  : 		Debug();
; 140  : #endif
; 141  : 		return value;

  0000d	8b 45 fc	 mov	 eax, DWORD PTR _value$[ebp]

; 142  : 	}

  00010	c9		 leave
  00011	c3		 ret	 0
??B?$CEncrypt@K@@QAEKXZ ENDP				; CEncrypt<unsigned long>::operator unsigned long
_TEXT	ENDS
PUBLIC	?begin@?$vector@VioHashString@@V?$allocator@VioHashString@@@std@@@std@@QBE?AV?$_Vector_const_iterator@V?$_Vector_val@VioHashString@@V?$allocator@VioHashString@@@std@@@std@@@2@XZ ; std::vector<ioHashString,std::allocator<ioHashString> >::begin
; Function compile flags: /Ogsp
; File c:\program files (x86)\microsoft visual studio 10.0\vc\include\vector
;	COMDAT ?begin@?$vector@VioHashString@@V?$allocator@VioHashString@@@std@@@std@@QBE?AV?$_Vector_const_iterator@V?$_Vector_val@VioHashString@@V?$allocator@VioHashString@@@std@@@std@@@2@XZ
_TEXT	SEGMENT
___$ReturnUdt$ = 8					; size = 4
?begin@?$vector@VioHashString@@V?$allocator@VioHashString@@@std@@@std@@QBE?AV?$_Vector_const_iterator@V?$_Vector_val@VioHashString@@V?$allocator@VioHashString@@@std@@@std@@@2@XZ PROC ; std::vector<ioHashString,std::allocator<ioHashString> >::begin, COMDAT
; _this$ = ecx

; 786  : 		{	// return iterator for beginning of nonmutable sequence

  00000	55		 push	 ebp
  00001	8b ec		 mov	 ebp, esp

; 787  : 		return (const_iterator(this->_Myfirst, this));

  00003	8b 09		 mov	 ecx, DWORD PTR [ecx]
  00005	8b 45 08	 mov	 eax, DWORD PTR ___$ReturnUdt$[ebp]
  00008	89 08		 mov	 DWORD PTR [eax], ecx

; 788  : 		}

  0000a	5d		 pop	 ebp
  0000b	c2 04 00	 ret	 4
?begin@?$vector@VioHashString@@V?$allocator@VioHashString@@@std@@@std@@QBE?AV?$_Vector_const_iterator@V?$_Vector_val@VioHashString@@V?$allocator@VioHashString@@@std@@@std@@@2@XZ ENDP ; std::vector<ioHashString,std::allocator<ioHashString> >::begin
_TEXT	ENDS
PUBLIC	?end@?$vector@VioHashString@@V?$allocator@VioHashString@@@std@@@std@@QBE?AV?$_Vector_const_iterator@V?$_Vector_val@VioHashString@@V?$allocator@VioHashString@@@std@@@std@@@2@XZ ; std::vector<ioHashString,std::allocator<ioHashString> >::end
; Function compile flags: /Ogsp
;	COMDAT ?end@?$vector@VioHashString@@V?$allocator@VioHashString@@@std@@@std@@QBE?AV?$_Vector_const_iterator@V?$_Vector_val@VioHashString@@V?$allocator@VioHashString@@@std@@@std@@@2@XZ
_TEXT	SEGMENT
___$ReturnUdt$ = 8					; size = 4
?end@?$vector@VioHashString@@V?$allocator@VioHashString@@@std@@@std@@QBE?AV?$_Vector_const_iterator@V?$_Vector_val@VioHashString@@V?$allocator@VioHashString@@@std@@@std@@@2@XZ PROC ; std::vector<ioHashString,std::allocator<ioHashString> >::end, COMDAT
; _this$ = ecx

; 796  : 		{	// return iterator for end of nonmutable sequence

  00000	55		 push	 ebp
  00001	8b ec		 mov	 ebp, esp

; 797  : 		return (const_iterator(this->_Mylast, this));

  00003	8b 49 04	 mov	 ecx, DWORD PTR [ecx+4]
  00006	8b 45 08	 mov	 eax, DWORD PTR ___$ReturnUdt$[ebp]
  00009	89 08		 mov	 DWORD PTR [eax], ecx

; 798  : 		}

  0000b	5d		 pop	 ebp
  0000c	c2 04 00	 ret	 4
?end@?$vector@VioHashString@@V?$allocator@VioHashString@@@std@@@std@@QBE?AV?$_Vector_const_iterator@V?$_Vector_val@VioHashString@@V?$allocator@VioHashString@@@std@@@std@@@2@XZ ENDP ; std::vector<ioHashString,std::allocator<ioHashString> >::end
_TEXT	ENDS
PUBLIC	??0?$_Vector_val@VioHashString@@V?$allocator@VioHashString@@@std@@@std@@QAE@V?$allocator@VioHashString@@@1@@Z ; std::_Vector_val<ioHashString,std::allocator<ioHashString> >::_Vector_val<ioHashString,std::allocator<ioHashString> >
; Function compile flags: /Ogsp
;	COMDAT ??0?$_Vector_val@VioHashString@@V?$allocator@VioHashString@@@std@@@std@@QAE@V?$allocator@VioHashString@@@1@@Z
_TEXT	SEGMENT
__Al$ = 8						; size = 1
??0?$_Vector_val@VioHashString@@V?$allocator@VioHashString@@@std@@@std@@QAE@V?$allocator@VioHashString@@@1@@Z PROC ; std::_Vector_val<ioHashString,std::allocator<ioHashString> >::_Vector_val<ioHashString,std::allocator<ioHashString> >, COMDAT
; _this$ = ecx

; 426  : 		{	// construct allocator from _Al

  00000	8b c1		 mov	 eax, ecx

; 427  : 		_Myfirst = 0;

  00002	33 c9		 xor	 ecx, ecx
  00004	89 08		 mov	 DWORD PTR [eax], ecx

; 428  : 		_Mylast = 0;

  00006	89 48 04	 mov	 DWORD PTR [eax+4], ecx

; 429  : 		_Myend = 0;

  00009	89 48 08	 mov	 DWORD PTR [eax+8], ecx

; 430  : 		}

  0000c	c2 04 00	 ret	 4
??0?$_Vector_val@VioHashString@@V?$allocator@VioHashString@@@std@@@std@@QAE@V?$allocator@VioHashString@@@1@@Z ENDP ; std::_Vector_val<ioHashString,std::allocator<ioHashString> >::_Vector_val<ioHashString,std::allocator<ioHashString> >
_TEXT	ENDS
PUBLIC	??0?$_Vector_val@PAVioDummyChar@@V?$allocator@PAVioDummyChar@@@std@@@std@@QAE@V?$allocator@PAVioDummyChar@@@1@@Z ; std::_Vector_val<ioDummyChar *,std::allocator<ioDummyChar *> >::_Vector_val<ioDummyChar *,std::allocator<ioDummyChar *> >
; Function compile flags: /Ogsp
;	COMDAT ??0?$_Vector_val@PAVioDummyChar@@V?$allocator@PAVioDummyChar@@@std@@@std@@QAE@V?$allocator@PAVioDummyChar@@@1@@Z
_TEXT	SEGMENT
__Al$ = 8						; size = 1
??0?$_Vector_val@PAVioDummyChar@@V?$allocator@PAVioDummyChar@@@std@@@std@@QAE@V?$allocator@PAVioDummyChar@@@1@@Z PROC ; std::_Vector_val<ioDummyChar *,std::allocator<ioDummyChar *> >::_Vector_val<ioDummyChar *,std::allocator<ioDummyChar *> >, COMDAT
; _this$ = ecx

; 426  : 		{	// construct allocator from _Al

  00000	8b c1		 mov	 eax, ecx

; 427  : 		_Myfirst = 0;

  00002	33 c9		 xor	 ecx, ecx
  00004	89 08		 mov	 DWORD PTR [eax], ecx

; 428  : 		_Mylast = 0;

  00006	89 48 04	 mov	 DWORD PTR [eax+4], ecx

; 429  : 		_Myend = 0;

  00009	89 48 08	 mov	 DWORD PTR [eax+8], ecx

; 430  : 		}

  0000c	c2 04 00	 ret	 4
??0?$_Vector_val@PAVioDummyChar@@V?$allocator@PAVioDummyChar@@@std@@@std@@QAE@V?$allocator@PAVioDummyChar@@@1@@Z ENDP ; std::_Vector_val<ioDummyChar *,std::allocator<ioDummyChar *> >::_Vector_val<ioDummyChar *,std::allocator<ioDummyChar *> >
_TEXT	ENDS
PUBLIC	?max_size@?$vector@VioHashString@@V?$allocator@VioHashString@@@std@@@std@@QBEIXZ ; std::vector<ioHashString,std::allocator<ioHashString> >::max_size
; Function compile flags: /Ogsp
;	COMDAT ?max_size@?$vector@VioHashString@@V?$allocator@VioHashString@@@std@@@std@@QBEIXZ
_TEXT	SEGMENT
?max_size@?$vector@VioHashString@@V?$allocator@VioHashString@@@std@@@std@@QBEIXZ PROC ; std::vector<ioHashString,std::allocator<ioHashString> >::max_size, COMDAT
; _this$ = ecx

; 884  : 		return (this->_Alval.max_size());

  00000	b8 ff ff ff 0f	 mov	 eax, 268435455		; 0fffffffH

; 885  : 		}

  00005	c3		 ret	 0
?max_size@?$vector@VioHashString@@V?$allocator@VioHashString@@@std@@@std@@QBEIXZ ENDP ; std::vector<ioHashString,std::allocator<ioHashString> >::max_size
_TEXT	ENDS
PUBLIC	?allocate@?$allocator@VioHashString@@@std@@QAEPAVioHashString@@I@Z ; std::allocator<ioHashString>::allocate
; Function compile flags: /Ogsp
; File c:\program files (x86)\microsoft visual studio 10.0\vc\include\xmemory
;	COMDAT ?allocate@?$allocator@VioHashString@@@std@@QAEPAVioHashString@@I@Z
_TEXT	SEGMENT
__Count$ = 8						; size = 4
?allocate@?$allocator@VioHashString@@@std@@QAEPAVioHashString@@I@Z PROC ; std::allocator<ioHashString>::allocate, COMDAT
; _this$ = ecx

; 186  : 		{	// allocate array of _Count elements

  00000	55		 push	 ebp
  00001	8b ec		 mov	 ebp, esp

; 187  : 		return (_Allocate(_Count, (pointer)0));

  00003	6a 00		 push	 0
  00005	ff 75 08	 push	 DWORD PTR __Count$[ebp]
  00008	e8 00 00 00 00	 call	 ??$_Allocate@VioHashString@@@std@@YAPAVioHashString@@IPAV1@@Z ; std::_Allocate<ioHashString>
  0000d	59		 pop	 ecx
  0000e	59		 pop	 ecx

; 188  : 		}

  0000f	5d		 pop	 ebp
  00010	c2 04 00	 ret	 4
?allocate@?$allocator@VioHashString@@@std@@QAEPAVioHashString@@I@Z ENDP ; std::allocator<ioHashString>::allocate
_TEXT	ENDS
PUBLIC	??8?$_Vector_const_iterator@V?$_Vector_val@VioHashString@@V?$allocator@VioHashString@@@std@@@std@@@std@@QBE_NABV01@@Z ; std::_Vector_const_iterator<std::_Vector_val<ioHashString,std::allocator<ioHashString> > >::operator==
; Function compile flags: /Ogsp
; File c:\program files (x86)\microsoft visual studio 10.0\vc\include\vector
;	COMDAT ??8?$_Vector_const_iterator@V?$_Vector_val@VioHashString@@V?$allocator@VioHashString@@@std@@@std@@@std@@QBE_NABV01@@Z
_TEXT	SEGMENT
__Right$ = 8						; size = 4
??8?$_Vector_const_iterator@V?$_Vector_val@VioHashString@@V?$allocator@VioHashString@@@std@@@std@@@std@@QBE_NABV01@@Z PROC ; std::_Vector_const_iterator<std::_Vector_val<ioHashString,std::allocator<ioHashString> > >::operator==, COMDAT
; _this$ = ecx

; 201  : 		{	// test for iterator equality

  00000	55		 push	 ebp
  00001	8b ec		 mov	 ebp, esp

; 202  : 		_Compat(_Right);
; 203  : 		return (this->_Ptr == _Right._Ptr);

  00003	8b 01		 mov	 eax, DWORD PTR [ecx]
  00005	8b 4d 08	 mov	 ecx, DWORD PTR __Right$[ebp]
  00008	2b 01		 sub	 eax, DWORD PTR [ecx]
  0000a	f7 d8		 neg	 eax
  0000c	1b c0		 sbb	 eax, eax
  0000e	40		 inc	 eax

; 204  : 		}

  0000f	5d		 pop	 ebp
  00010	c2 04 00	 ret	 4
??8?$_Vector_const_iterator@V?$_Vector_val@VioHashString@@V?$allocator@VioHashString@@@std@@@std@@@std@@QBE_NABV01@@Z ENDP ; std::_Vector_const_iterator<std::_Vector_val<ioHashString,std::allocator<ioHashString> > >::operator==
_TEXT	ENDS
PUBLIC	??$_Destroy_range@V?$allocator@PAVioDummyChar@@@std@@@std@@YAXPAPAVioDummyChar@@0AAV?$allocator@PAVioDummyChar@@@0@@Z ; std::_Destroy_range<std::allocator<ioDummyChar *> >
; Function compile flags: /Ogsp
; File c:\program files (x86)\microsoft visual studio 10.0\vc\include\xmemory
;	COMDAT ??$_Destroy_range@V?$allocator@PAVioDummyChar@@@std@@@std@@YAXPAPAVioDummyChar@@0AAV?$allocator@PAVioDummyChar@@@0@@Z
_TEXT	SEGMENT
__First$ = 8						; size = 4
__Last$ = 12						; size = 4
__Al$ = 16						; size = 4
??$_Destroy_range@V?$allocator@PAVioDummyChar@@@std@@@std@@YAXPAPAVioDummyChar@@0AAV?$allocator@PAVioDummyChar@@@0@@Z PROC ; std::_Destroy_range<std::allocator<ioDummyChar *> >, COMDAT

; 88   : 	_Destroy_range(_First, _Last, _Al, _Ptr_cat(_First, _Last));
; 89   : 	}

  00000	c3		 ret	 0
??$_Destroy_range@V?$allocator@PAVioDummyChar@@@std@@@std@@YAXPAPAVioDummyChar@@0AAV?$allocator@PAVioDummyChar@@@0@@Z ENDP ; std::_Destroy_range<std::allocator<ioDummyChar *> >
_TEXT	ENDS
PUBLIC	??8?$_Vector_const_iterator@V?$_Vector_val@PAVioDummyChar@@V?$allocator@PAVioDummyChar@@@std@@@std@@@std@@QBE_NABV01@@Z ; std::_Vector_const_iterator<std::_Vector_val<ioDummyChar *,std::allocator<ioDummyChar *> > >::operator==
; Function compile flags: /Ogsp
; File c:\program files (x86)\microsoft visual studio 10.0\vc\include\vector
;	COMDAT ??8?$_Vector_const_iterator@V?$_Vector_val@PAVioDummyChar@@V?$allocator@PAVioDummyChar@@@std@@@std@@@std@@QBE_NABV01@@Z
_TEXT	SEGMENT
__Right$ = 8						; size = 4
??8?$_Vector_const_iterator@V?$_Vector_val@PAVioDummyChar@@V?$allocator@PAVioDummyChar@@@std@@@std@@@std@@QBE_NABV01@@Z PROC ; std::_Vector_const_iterator<std::_Vector_val<ioDummyChar *,std::allocator<ioDummyChar *> > >::operator==, COMDAT
; _this$ = ecx

; 201  : 		{	// test for iterator equality

  00000	55		 push	 ebp
  00001	8b ec		 mov	 ebp, esp

; 202  : 		_Compat(_Right);
; 203  : 		return (this->_Ptr == _Right._Ptr);

  00003	8b 01		 mov	 eax, DWORD PTR [ecx]
  00005	8b 4d 08	 mov	 ecx, DWORD PTR __Right$[ebp]
  00008	2b 01		 sub	 eax, DWORD PTR [ecx]
  0000a	f7 d8		 neg	 eax
  0000c	1b c0		 sbb	 eax, eax
  0000e	40		 inc	 eax

; 204  : 		}

  0000f	5d		 pop	 ebp
  00010	c2 04 00	 ret	 4
??8?$_Vector_const_iterator@V?$_Vector_val@PAVioDummyChar@@V?$allocator@PAVioDummyChar@@@std@@@std@@@std@@QBE_NABV01@@Z ENDP ; std::_Vector_const_iterator<std::_Vector_val<ioDummyChar *,std::allocator<ioDummyChar *> > >::operator==
_TEXT	ENDS
PUBLIC	??$_Destroy@VioHashString@@@std@@YAXPAVioHashString@@@Z ; std::_Destroy<ioHashString>
; Function compile flags: /Ogsp
; File c:\program files (x86)\microsoft visual studio 10.0\vc\include\xmemory
;	COMDAT ??$_Destroy@VioHashString@@@std@@YAXPAVioHashString@@@Z
_TEXT	SEGMENT
__Ptr$ = 8						; size = 4
??$_Destroy@VioHashString@@@std@@YAXPAVioHashString@@@Z PROC ; std::_Destroy<ioHashString>, COMDAT

; 62   : 	{	// destroy object at _Ptr

  00000	55		 push	 ebp
  00001	8b ec		 mov	 ebp, esp

; 63   : 	_Ptr->~_Ty();

  00003	8b 4d 08	 mov	 ecx, DWORD PTR __Ptr$[ebp]

; 64   : 	}

  00006	5d		 pop	 ebp

; 63   : 	_Ptr->~_Ty();

  00007	ff 25 00 00 00
	00		 jmp	 DWORD PTR __imp_??1ioHashString@@QAE@XZ
??$_Destroy@VioHashString@@@std@@YAXPAVioHashString@@@Z ENDP ; std::_Destroy<ioHashString>
_TEXT	ENDS
PUBLIC	?construct@?$allocator@VioHashString@@@std@@QAEXPAVioHashString@@ABV3@@Z ; std::allocator<ioHashString>::construct
; Function compile flags: /Ogsp
;	COMDAT ?construct@?$allocator@VioHashString@@@std@@QAEXPAVioHashString@@ABV3@@Z
_TEXT	SEGMENT
__Ptr$ = 8						; size = 4
__Val$ = 12						; size = 4
?construct@?$allocator@VioHashString@@@std@@QAEXPAVioHashString@@ABV3@@Z PROC ; std::allocator<ioHashString>::construct, COMDAT
; _this$ = ecx

; 196  : 		{	// construct object at _Ptr with value _Val

  00000	55		 push	 ebp
  00001	8b ec		 mov	 ebp, esp

; 197  : 		_Construct(_Ptr, _Val);

  00003	ff 75 0c	 push	 DWORD PTR __Val$[ebp]
  00006	ff 75 08	 push	 DWORD PTR __Ptr$[ebp]
  00009	e8 00 00 00 00	 call	 ??$_Construct@VioHashString@@ABV1@@std@@YAXPAVioHashString@@ABV1@@Z ; std::_Construct<ioHashString,ioHashString const &>
  0000e	59		 pop	 ecx
  0000f	59		 pop	 ecx

; 198  : 		}

  00010	5d		 pop	 ebp
  00011	c2 08 00	 ret	 8
?construct@?$allocator@VioHashString@@@std@@QAEXPAVioHashString@@ABV3@@Z ENDP ; std::allocator<ioHashString>::construct
_TEXT	ENDS
PUBLIC	__real@3ff0000000000000
PUBLIC	__real@4f800000
PUBLIC	__real@42c80000
PUBLIC	?SetNormalAttack@ioEngineerItem@@UAEXPAVioBaseChar@@H@Z ; ioEngineerItem::SetNormalAttack
EXTRN	__imp_?SetActionAni@ioEntityGroup@@QAE_NHMMMMMM_N0@Z:PROC
EXTRN	__imp_?GetAnimationFullTime@ioEntityGroup@@QAEMH@Z:PROC
EXTRN	__imp_?GetAnimationIdx@ioEntityGroup@@QAEHABVioHashString@@@Z:PROC
EXTRN	__imp_?ClearAllLoopAni@ioEntityGroup@@QAEXM_N@Z:PROC
EXTRN	__imp_?ClearAllActionAni@ioEntityGroup@@QAEXM_N@Z:PROC
EXTRN	?SetAttackMoveEnable@ioBaseChar@@QAEX_N@Z:PROC	; ioBaseChar::SetAttackMoveEnable
;	COMDAT __real@3ff0000000000000
; File d:\lost saga for developer\youtube\tutorial\source\src\lsclient\encryptvalue.h
CONST	SEGMENT
__real@3ff0000000000000 DQ 03ff0000000000000r	; 1
CONST	ENDS
;	COMDAT __real@4f800000
CONST	SEGMENT
__real@4f800000 DD 04f800000r			; 4.29497e+009
CONST	ENDS
;	COMDAT __real@42c80000
CONST	SEGMENT
__real@42c80000 DD 042c80000r			; 100
; Function compile flags: /Ogsp
; File d:\lost saga for developer\youtube\tutorial\source\src\lsclient\ioengineeritem.cpp
CONST	ENDS
;	COMDAT ?SetNormalAttack@ioEngineerItem@@UAEXPAVioBaseChar@@H@Z
_TEXT	SEGMENT
tv252 = -8						; size = 8
_pGrp$ = 8						; size = 4
_pOwner$ = 8						; size = 4
tv276 = 12						; size = 4
tv269 = 12						; size = 4
_value$555203 = 12					; size = 4
_fTimeRate$550196 = 12					; size = 4
_iCurCombo$ = 12					; size = 4
?SetNormalAttack@ioEngineerItem@@UAEXPAVioBaseChar@@H@Z PROC ; ioEngineerItem::SetNormalAttack, COMDAT
; _this$ = ecx

; 115  : {

  00000	55		 push	 ebp
  00001	8b ec		 mov	 ebp, esp
  00003	51		 push	 ecx
  00004	51		 push	 ecx

; 116  : 	if( !pOwner )

  00005	83 7d 08 00	 cmp	 DWORD PTR _pOwner$[ebp], 0
  00009	56		 push	 esi
  0000a	8b f1		 mov	 esi, ecx
  0000c	0f 84 48 01 00
	00		 je	 $LN1@SetNormalA

; 117  : 		return;
; 118  : 
; 119  : 	ClearCancelInfo();

  00012	8b 06		 mov	 eax, DWORD PTR [esi]
  00014	53		 push	 ebx
  00015	57		 push	 edi
  00016	ff 90 3c 02 00
	00		 call	 DWORD PTR [eax+572]

; 120  : 
; 121  : 	int iPreGatherCnt = m_PreAnimationList.size();

  0001c	8b be 94 19 00
	00		 mov	 edi, DWORD PTR [esi+6548]
  00022	2b be 90 19 00
	00		 sub	 edi, DWORD PTR [esi+6544]

; 122  : 
; 123  : 	m_AttackState		= AS_CHARGING;

  00028	c7 86 54 19 00
	00 01 00 00 00	 mov	 DWORD PTR [esi+6484], 1
  00032	c1 ff 04	 sar	 edi, 4

; 124  : 	m_dwAttackStartTime	= FRAMEGETTIME();

  00035	ff 15 00 00 00
	00		 call	 DWORD PTR __imp_?GetSingleton@ioFrameTimer@@SAAAV1@XZ
  0003b	8b c8		 mov	 ecx, eax
  0003d	ff 15 00 00 00
	00		 call	 DWORD PTR __imp_?GetLoopSec@ioFrameTimer@@QBEKXZ

; 125  : 	m_iCurCombo			= iCurCombo;

  00043	8b 5d 0c	 mov	 ebx, DWORD PTR _iCurCombo$[ebp]

; 126  : 
; 127  : 	pOwner->SetState( CS_ATTACK );

  00046	8b 4d 08	 mov	 ecx, DWORD PTR _pOwner$[ebp]
  00049	6a 01		 push	 1
  0004b	6a 05		 push	 5
  0004d	89 86 58 19 00
	00		 mov	 DWORD PTR [esi+6488], eax
  00053	89 9e 5c 19 00
	00		 mov	 DWORD PTR [esi+6492], ebx
  00059	e8 00 00 00 00	 call	 ?SetState@ioBaseChar@@QAEXH_N@Z ; ioBaseChar::SetState

; 128  : 	pOwner->SetChargingState( false );

  0005e	8b 4d 08	 mov	 ecx, DWORD PTR _pOwner$[ebp]

; 129  : 	pOwner->SetAttackMoveEnable( false );

  00061	6a 00		 push	 0
  00063	c6 81 54 20 00
	00 00		 mov	 BYTE PTR [ecx+8276], 0
  0006a	e8 00 00 00 00	 call	 ?SetAttackMoveEnable@ioBaseChar@@QAEX_N@Z ; ioBaseChar::SetAttackMoveEnable

; 130  : 
; 131  : 	ioEntityGroup *pGrp = pOwner->GetGroup();

  0006f	8b 45 08	 mov	 eax, DWORD PTR _pOwner$[ebp]
  00072	8b 48 04	 mov	 ecx, DWORD PTR [eax+4]

; 132  : 	pGrp->ClearAllActionAni( 100.0f, true );

  00075	f3 0f 10 05 00
	00 00 00	 movss	 xmm0, DWORD PTR __real@42c80000
  0007d	6a 01		 push	 1
  0007f	51		 push	 ecx
  00080	89 4d 08	 mov	 DWORD PTR _pGrp$[ebp], ecx
  00083	f3 0f 11 04 24	 movss	 DWORD PTR [esp], xmm0
  00088	ff 15 00 00 00
	00		 call	 DWORD PTR __imp_?ClearAllActionAni@ioEntityGroup@@QAEXM_N@Z

; 133  : 	pGrp->ClearAllLoopAni( 100.0f, true );

  0008e	f3 0f 10 05 00
	00 00 00	 movss	 xmm0, DWORD PTR __real@42c80000
  00096	6a 01		 push	 1
  00098	51		 push	 ecx
  00099	8b 4d 08	 mov	 ecx, DWORD PTR _pGrp$[ebp]
  0009c	f3 0f 11 04 24	 movss	 DWORD PTR [esp], xmm0
  000a1	ff 15 00 00 00
	00		 call	 DWORD PTR __imp_?ClearAllLoopAni@ioEntityGroup@@QAEXM_N@Z

; 134  : 
; 135  : 	if( 0 < iPreGatherCnt && COMPARE( iCurCombo, 0, iPreGatherCnt ) )

  000a7	85 ff		 test	 edi, edi
  000a9	0f 8e a9 00 00
	00		 jle	 $LN15@SetNormalA
  000af	85 db		 test	 ebx, ebx
  000b1	0f 88 a1 00 00
	00		 js	 $LN15@SetNormalA
  000b7	3b df		 cmp	 ebx, edi
  000b9	0f 8d 99 00 00
	00		 jge	 $LN15@SetNormalA

; 136  : 	{
; 137  : 		int iAniID = pGrp->GetAnimationIdx( m_PreAnimationList[iCurCombo] );

  000bf	8b 4d 08	 mov	 ecx, DWORD PTR _pGrp$[ebp]
  000c2	c1 e3 04	 shl	 ebx, 4
  000c5	03 9e 90 19 00
	00		 add	 ebx, DWORD PTR [esi+6544]
  000cb	53		 push	 ebx
  000cc	ff 15 00 00 00
	00		 call	 DWORD PTR __imp_?GetAnimationIdx@ioEntityGroup@@QAEHABVioHashString@@@Z
  000d2	8b f8		 mov	 edi, eax

; 138  : 		float fTimeRate = (float)m_dwChargeTime / pGrp->GetAnimationFullTime( iAniID );

  000d4	8d 45 0c	 lea	 eax, DWORD PTR _value$555203[ebp]
  000d7	50		 push	 eax
  000d8	8d 8e b0 18 00
	00		 lea	 ecx, DWORD PTR [esi+6320]
  000de	e8 00 00 00 00	 call	 ?DecryptValueToPool@?$CEncrypt@K@@QAEXPAK@Z ; CEncrypt<unsigned long>::DecryptValueToPool
  000e3	db 45 0c	 fild	 DWORD PTR _value$555203[ebp]
  000e6	8b 45 0c	 mov	 eax, DWORD PTR _value$555203[ebp]
  000e9	85 c0		 test	 eax, eax
  000eb	79 06		 jns	 SHORT $LN17@SetNormalA
  000ed	d8 05 00 00 00
	00		 fadd	 DWORD PTR __real@4f800000
$LN17@SetNormalA:
  000f3	8b 4d 08	 mov	 ecx, DWORD PTR _pGrp$[ebp]
  000f6	dd 5d f8	 fstp	 QWORD PTR tv252[ebp]
  000f9	57		 push	 edi
  000fa	ff 15 00 00 00
	00		 call	 DWORD PTR __imp_?GetAnimationFullTime@ioEntityGroup@@QAEMH@Z
  00100	dc 7d f8	 fdivr	 QWORD PTR tv252[ebp]

; 139  : 		pGrp->SetActionAni( iAniID, 100.0f, 100.0f, 1.0f, 1.0f/fTimeRate, 0.0f, 0.0f, true );

  00103	0f 57 c0	 xorps	 xmm0, xmm0
  00106	8b 4d 08	 mov	 ecx, DWORD PTR _pGrp$[ebp]
  00109	6a 01		 push	 1
  0010b	6a 01		 push	 1
  0010d	83 ec 18	 sub	 esp, 24			; 00000018H
  00110	f3 0f 11 44 24
	14		 movss	 DWORD PTR [esp+20], xmm0
  00116	f3 0f 11 44 24
	10		 movss	 DWORD PTR [esp+16], xmm0
  0011c	f3 0f 10 05 00
	00 00 00	 movss	 xmm0, DWORD PTR __real@3f800000
  00124	d9 5d 0c	 fstp	 DWORD PTR _fTimeRate$550196[ebp]
  00127	d9 45 0c	 fld	 DWORD PTR _fTimeRate$550196[ebp]
  0012a	d9 e8		 fld1
  0012c	de f1		 fdivrp	 ST(1), ST(0)
  0012e	d9 5d 0c	 fstp	 DWORD PTR tv269[ebp]
  00131	d9 45 0c	 fld	 DWORD PTR tv269[ebp]
  00134	d9 5c 24 0c	 fstp	 DWORD PTR [esp+12]
  00138	f3 0f 11 44 24
	08		 movss	 DWORD PTR [esp+8], xmm0
  0013e	f3 0f 10 05 00
	00 00 00	 movss	 xmm0, DWORD PTR __real@42c80000
  00146	f3 0f 11 44 24
	04		 movss	 DWORD PTR [esp+4], xmm0
  0014c	f3 0f 11 04 24	 movss	 DWORD PTR [esp], xmm0
  00151	57		 push	 edi
  00152	ff 15 00 00 00
	00		 call	 DWORD PTR __imp_?SetActionAni@ioEntityGroup@@QAE_NHMMMMMM_N0@Z
$LN15@SetNormalA:
  00158	5f		 pop	 edi
  00159	5b		 pop	 ebx
$LN1@SetNormalA:
  0015a	5e		 pop	 esi

; 140  : 	}
; 141  : }

  0015b	c9		 leave
  0015c	c2 08 00	 ret	 8
?SetNormalAttack@ioEngineerItem@@UAEXPAVioBaseChar@@H@Z ENDP ; ioEngineerItem::SetNormalAttack
_TEXT	ENDS
PUBLIC	_dwKeyReserve$GSCopy$
PUBLIC	?SetActionAni@ioEngineerItem@@IAEHPAVioBaseChar@@ABVioHashString@@MKAAK2@Z ; ioEngineerItem::SetActionAni
EXTRN	__ftol2:PROC
;	COMDAT xdata$x
; File d:\lost saga for developer\youtube\tutorial\source\src\lsclient\stringprotect.h
xdata$x	SEGMENT
__unwindtable$?SetActionAni@ioEngineerItem@@IAEHPAVioBaseChar@@ABVioHashString@@MKAAK2@Z DD 0ffffffffH
	DD	FLAT:__unwindfunclet$?SetActionAni@ioEngineerItem@@IAEHPAVioBaseChar@@ABVioHashString@@MKAAK2@Z$0
__ehfuncinfo$?SetActionAni@ioEngineerItem@@IAEHPAVioBaseChar@@ABVioHashString@@MKAAK2@Z DD 019930522H
	DD	01H
	DD	FLAT:__unwindtable$?SetActionAni@ioEngineerItem@@IAEHPAVioBaseChar@@ABVioHashString@@MKAAK2@Z
	DD	2 DUP(00H)
	DD	2 DUP(00H)
	DD	00H
	DD	01H
; Function compile flags: /Ogsp
; File d:\lost saga for developer\youtube\tutorial\source\src\lsclient\ioengineeritem.cpp
xdata$x	ENDS
;	COMDAT ?SetActionAni@ioEngineerItem@@IAEHPAVioBaseChar@@ABVioHashString@@MKAAK2@Z
_TEXT	SEGMENT
$T555270 = -68						; size = 16
_dwKeyReserve$GSCopy$ = -52				; size = 4
tv900 = -48						; size = 4
tv377 = -44						; size = 8
tv1085 = -40						; size = 4
tv1067 = -40						; size = 4
$T555268 = -40						; size = 4
_iAniID$550227 = -36					; size = 4
_szEncEventType$555237 = -32				; size = 12
__$EHRec$ = -12						; size = 12
_pOwner$ = 8						; size = 4
_szAnimation$ = 12					; size = 4
_fTimeRate$ = 16					; size = 4
_dwPreDelay$ = 20					; size = 4
_dwEndTime$ = 24					; size = 4
_dwKeyReserve$ = 28					; size = 4
?SetActionAni@ioEngineerItem@@IAEHPAVioBaseChar@@ABVioHashString@@MKAAK2@Z PROC ; ioEngineerItem::SetActionAni, COMDAT
; _this$ = ecx

; 176  : {

  00000	6a 38		 push	 56			; 00000038H
  00002	b8 00 00 00 00	 mov	 eax, __ehhandler$?SetActionAni@ioEngineerItem@@IAEHPAVioBaseChar@@ABVioHashString@@MKAAK2@Z
  00007	e8 00 00 00 00	 call	 __EH_prolog3_GS
  0000c	8b 45 08	 mov	 eax, DWORD PTR _pOwner$[ebp]

; 177  : 	ioEntityGroup *pGrp = pOwner->GetGroup();

  0000f	8b 70 04	 mov	 esi, DWORD PTR [eax+4]
  00012	8b 4d 1c	 mov	 ecx, DWORD PTR _dwKeyReserve$[ebp]
  00015	8b 5d 0c	 mov	 ebx, DWORD PTR _szAnimation$[ebp]
  00018	8b 7d 18	 mov	 edi, DWORD PTR _dwEndTime$[ebp]

; 188  : 			dwKeyReserve = FRAMEGETTIME() + dwReserve;

  0001b	89 4d cc	 mov	 DWORD PTR _dwKeyReserve$GSCopy$[ebp], ecx
  0001e	85 f6		 test	 esi, esi
  00020	0f 84 8d 01 00
	00		 je	 $LN2@SetActionA

; 178  : 	if( pGrp )
; 179  : 	{
; 180  : 		pGrp->ClearAllActionAni( 100.0f );

  00026	f3 0f 10 05 00
	00 00 00	 movss	 xmm0, DWORD PTR __real@42c80000
  0002e	6a 00		 push	 0
  00030	51		 push	 ecx
  00031	8b ce		 mov	 ecx, esi
  00033	f3 0f 11 04 24	 movss	 DWORD PTR [esp], xmm0
  00038	ff 15 00 00 00
	00		 call	 DWORD PTR __imp_?ClearAllActionAni@ioEntityGroup@@QAEXM_N@Z

; 181  : 		pGrp->ClearAllLoopAni( 100.0f );

  0003e	f3 0f 10 05 00
	00 00 00	 movss	 xmm0, DWORD PTR __real@42c80000
  00046	6a 00		 push	 0
  00048	51		 push	 ecx
  00049	8b ce		 mov	 ecx, esi
  0004b	f3 0f 11 04 24	 movss	 DWORD PTR [esp], xmm0
  00050	ff 15 00 00 00
	00		 call	 DWORD PTR __imp_?ClearAllLoopAni@ioEntityGroup@@QAEXM_N@Z

; 182  : 
; 183  : 		int iAniID = pGrp->GetAnimationIdx( szAnimation );

  00056	53		 push	 ebx
  00057	8b ce		 mov	 ecx, esi
  00059	ff 15 00 00 00
	00		 call	 DWORD PTR __imp_?GetAnimationIdx@ioEntityGroup@@QAEHABVioHashString@@@Z

; 184  : 		pGrp->SetActionAni( iAniID, 100.0f, 100.0f, 1.0f, 1.0f / fTimeRate, 0.0f, dwPreDelay, true );

  0005f	db 45 14	 fild	 DWORD PTR _dwPreDelay$[ebp]
  00062	8b 4d 14	 mov	 ecx, DWORD PTR _dwPreDelay$[ebp]
  00065	89 45 dc	 mov	 DWORD PTR _iAniID$550227[ebp], eax
  00068	85 c9		 test	 ecx, ecx
  0006a	79 06		 jns	 SHORT $LN119@SetActionA
  0006c	d8 05 00 00 00
	00		 fadd	 DWORD PTR __real@4f800000
$LN119@SetActionA:
  00072	f2 0f 10 0d 00
	00 00 00	 movsd	 xmm1, QWORD PTR __real@3ff0000000000000
  0007a	d9 5d d0	 fstp	 DWORD PTR tv900[ebp]
  0007d	f3 0f 10 45 d0	 movss	 xmm0, DWORD PTR tv900[ebp]
  00082	6a 01		 push	 1
  00084	6a 01		 push	 1
  00086	83 ec 18	 sub	 esp, 24			; 00000018H
  00089	f3 0f 11 44 24
	14		 movss	 DWORD PTR [esp+20], xmm0
  0008f	0f 57 c0	 xorps	 xmm0, xmm0
  00092	f3 0f 11 44 24
	10		 movss	 DWORD PTR [esp+16], xmm0
  00098	f3 0f 10 45 10	 movss	 xmm0, DWORD PTR _fTimeRate$[ebp]
  0009d	0f 5a c0	 cvtps2pd xmm0, xmm0
  000a0	f2 0f 5e c8	 divsd	 xmm1, xmm0
  000a4	8b ce		 mov	 ecx, esi
  000a6	66 0f 5a c1	 cvtpd2ps xmm0, xmm1
  000aa	f3 0f 11 44 24
	0c		 movss	 DWORD PTR [esp+12], xmm0
  000b0	f3 0f 10 05 00
	00 00 00	 movss	 xmm0, DWORD PTR __real@3f800000
  000b8	f3 0f 11 44 24
	08		 movss	 DWORD PTR [esp+8], xmm0
  000be	f3 0f 10 05 00
	00 00 00	 movss	 xmm0, DWORD PTR __real@42c80000
  000c6	f3 0f 11 44 24
	04		 movss	 DWORD PTR [esp+4], xmm0
  000cc	f3 0f 11 04 24	 movss	 DWORD PTR [esp], xmm0
  000d1	50		 push	 eax
  000d2	ff 15 00 00 00
	00		 call	 DWORD PTR __imp_?SetActionAni@ioEntityGroup@@QAE_NHMMMMMM_N0@Z

; 185  : 		dwEndTime = FRAMEGETTIME() + pGrp->GetAnimationFullTime(iAniID) * fTimeRate;

  000d8	8b 1d 00 00 00
	00		 mov	 ebx, DWORD PTR __imp_?GetSingleton@ioFrameTimer@@SAAAV1@XZ
  000de	ff d3		 call	 ebx
  000e0	8b c8		 mov	 ecx, eax
  000e2	ff 15 00 00 00
	00		 call	 DWORD PTR __imp_?GetLoopSec@ioFrameTimer@@QBEKXZ
  000e8	89 45 d8	 mov	 DWORD PTR tv1067[ebp], eax
  000eb	db 45 d8	 fild	 DWORD PTR tv1067[ebp]
  000ee	85 c0		 test	 eax, eax
  000f0	79 06		 jns	 SHORT $LN120@SetActionA
  000f2	d8 05 00 00 00
	00		 fadd	 DWORD PTR __real@4f800000
$LN120@SetActionA:
  000f8	ff 75 dc	 push	 DWORD PTR _iAniID$550227[ebp]
  000fb	dd 5d d4	 fstp	 QWORD PTR tv377[ebp]
  000fe	8b ce		 mov	 ecx, esi
  00100	ff 15 00 00 00
	00		 call	 DWORD PTR __imp_?GetAnimationFullTime@ioEntityGroup@@QAEMH@Z
  00106	d8 4d 10	 fmul	 DWORD PTR _fTimeRate$[ebp]
  00109	dc 45 d4	 fadd	 QWORD PTR tv377[ebp]
  0010c	e8 00 00 00 00	 call	 __ftol2
  00111	6a 02		 push	 2
  00113	89 07		 mov	 DWORD PTR [edi], eax

; 186  : 		DWORD dwReserve = pGrp->GetAnimationEventTime_e( iAniID, "key_reserve" ) * fTimeRate + dwPreDelay;

  00115	c7 45 e0 86 89
	92 b5		 mov	 DWORD PTR _szEncEventType$555237[ebp], -1248687738 ; b5928986H
  0011c	c7 45 e4 9f 89
	98 8f		 mov	 DWORD PTR _szEncEventType$555237[ebp+4], -1885828705 ; 8f98899fH
  00123	8d 45 e0	 lea	 eax, DWORD PTR _szEncEventType$555237[ebp]
  00126	c7 45 e8 9f 9a
	8e 00		 mov	 DWORD PTR _szEncEventType$555237[ebp+8], 9345695 ; 008e9a9fH
  0012d	59		 pop	 ecx
$LL111@SetActionA:
  0012e	81 30 ed ec eb
	ea		 xor	 DWORD PTR [eax], -353637139 ; eaebecedH
  00134	83 c0 04	 add	 eax, 4
  00137	49		 dec	 ecx
  00138	75 f4		 jne	 SHORT $LL111@SetActionA
  0013a	6a 08		 push	 8
  0013c	5f		 pop	 edi
$LL108@SetActionA:
  0013d	8b c7		 mov	 eax, edi
  0013f	25 03 00 00 80	 and	 eax, -2147483645	; 80000003H
  00144	79 05		 jns	 SHORT $LN121@SetActionA
  00146	48		 dec	 eax
  00147	83 c8 fc	 or	 eax, -4			; fffffffcH
  0014a	40		 inc	 eax
$LN121@SetActionA:
  0014b	b1 ed		 mov	 cl, -19			; ffffffedH
  0014d	2a c8		 sub	 cl, al
  0014f	30 4c 3d e0	 xor	 BYTE PTR _szEncEventType$555237[ebp+edi], cl
  00153	47		 inc	 edi
  00154	83 ff 0b	 cmp	 edi, 11			; 0000000bH
  00157	7c e4		 jl	 SHORT $LL108@SetActionA
  00159	8d 45 e0	 lea	 eax, DWORD PTR _szEncEventType$555237[ebp]
  0015c	50		 push	 eax
  0015d	8d 4d bc	 lea	 ecx, DWORD PTR $T555270[ebp]
  00160	ff 15 00 00 00
	00		 call	 DWORD PTR __imp_??0ioHashString@@QAE@PBD@Z
  00166	83 65 fc 00	 and	 DWORD PTR __$EHRec$[ebp+8], 0
  0016a	8d 45 bc	 lea	 eax, DWORD PTR $T555270[ebp]
  0016d	50		 push	 eax
  0016e	ff 75 dc	 push	 DWORD PTR _iAniID$550227[ebp]
  00171	8b ce		 mov	 ecx, esi
  00173	ff 15 00 00 00
	00		 call	 DWORD PTR __imp_?GetAnimationEventTime@ioEntityGroup@@QAEMHABVioHashString@@@Z
  00179	d9 5d d8	 fstp	 DWORD PTR $T555268[ebp]
  0017c	83 4d fc ff	 or	 DWORD PTR __$EHRec$[ebp+8], -1
  00180	8d 4d bc	 lea	 ecx, DWORD PTR $T555270[ebp]
  00183	ff 15 00 00 00
	00		 call	 DWORD PTR __imp_??1ioHashString@@QAE@XZ
  00189	d9 45 d8	 fld	 DWORD PTR $T555268[ebp]
  0018c	d8 4d 10	 fmul	 DWORD PTR _fTimeRate$[ebp]
  0018f	d8 45 d0	 fadd	 DWORD PTR tv900[ebp]
  00192	e8 00 00 00 00	 call	 __ftol2
  00197	8b f0		 mov	 esi, eax

; 187  : 		if( 0 < dwReserve )

  00199	85 f6		 test	 esi, esi
  0019b	74 11		 je	 SHORT $LN1@SetActionA

; 188  : 			dwKeyReserve = FRAMEGETTIME() + dwReserve;

  0019d	ff d3		 call	 ebx
  0019f	8b c8		 mov	 ecx, eax
  001a1	ff 15 00 00 00
	00		 call	 DWORD PTR __imp_?GetLoopSec@ioFrameTimer@@QBEKXZ
  001a7	8b 4d cc	 mov	 ecx, DWORD PTR _dwKeyReserve$GSCopy$[ebp]
  001aa	03 c6		 add	 eax, esi
  001ac	89 01		 mov	 DWORD PTR [ecx], eax
$LN1@SetActionA:

; 189  : 
; 190  : 		return iAniID;

  001ae	8b 45 dc	 mov	 eax, DWORD PTR _iAniID$550227[ebp]
  001b1	eb 03		 jmp	 SHORT $LN3@SetActionA
$LN2@SetActionA:

; 191  : 	}
; 192  : 
; 193  : 	return -1;

  001b3	83 c8 ff	 or	 eax, -1
$LN3@SetActionA:

; 194  : }

  001b6	e8 00 00 00 00	 call	 __EH_epilog3_GS
  001bb	c2 18 00	 ret	 24			; 00000018H
_TEXT	ENDS
;	COMDAT text$x
text$x	SEGMENT
__unwindfunclet$?SetActionAni@ioEngineerItem@@IAEHPAVioBaseChar@@ABVioHashString@@MKAAK2@Z$0:
  00000	8d 4d bc	 lea	 ecx, DWORD PTR $T555270[ebp]
  00003	ff 25 00 00 00
	00		 jmp	 DWORD PTR __imp_??1ioHashString@@QAE@XZ
__ehhandler$?SetActionAni@ioEngineerItem@@IAEHPAVioBaseChar@@ABVioHashString@@MKAAK2@Z:
  00009	8b 54 24 08	 mov	 edx, DWORD PTR [esp+8]
  0000d	8d 42 0c	 lea	 eax, DWORD PTR [edx+12]
  00010	8b 4a b8	 mov	 ecx, DWORD PTR [edx-72]
  00013	33 c8		 xor	 ecx, eax
  00015	e8 00 00 00 00	 call	 @__security_check_cookie@4
  0001a	8b 4a fc	 mov	 ecx, DWORD PTR [edx-4]
  0001d	33 c8		 xor	 ecx, eax
  0001f	e8 00 00 00 00	 call	 @__security_check_cookie@4
  00024	b8 00 00 00 00	 mov	 eax, OFFSET __ehfuncinfo$?SetActionAni@ioEngineerItem@@IAEHPAVioBaseChar@@ABVioHashString@@MKAAK2@Z
  00029	e9 00 00 00 00	 jmp	 ___CxxFrameHandler3
text$x	ENDS
?SetActionAni@ioEngineerItem@@IAEHPAVioBaseChar@@ABVioHashString@@MKAAK2@Z ENDP ; ioEngineerItem::SetActionAni
PUBLIC	?GetMaxBullet@ioEngineerItem@@UAEHXZ		; ioEngineerItem::GetMaxBullet
; Function compile flags: /Ogsp
;	COMDAT ?GetMaxBullet@ioEngineerItem@@UAEHXZ
_TEXT	SEGMENT
_value$555372 = -4					; size = 4
?GetMaxBullet@ioEngineerItem@@UAEHXZ PROC		; ioEngineerItem::GetMaxBullet, COMDAT
; _this$ = ecx

; 593  : {

  00000	55		 push	 ebp
  00001	8b ec		 mov	 ebp, esp
  00003	51		 push	 ecx

; 594  : 	return (int)m_fMaxExtraGauge;

  00004	8d 45 fc	 lea	 eax, DWORD PTR _value$555372[ebp]
  00007	50		 push	 eax
  00008	81 c1 ac 16 00
	00		 add	 ecx, 5804		; 000016acH
  0000e	e8 00 00 00 00	 call	 ?DecryptValueToPool@?$CEncrypt@M@@QAEXPAM@Z ; CEncrypt<float>::DecryptValueToPool
  00013	f3 0f 2c 45 fc	 cvttss2si eax, DWORD PTR _value$555372[ebp]

; 595  : }

  00018	c9		 leave
  00019	c3		 ret	 0
?GetMaxBullet@ioEngineerItem@@UAEHXZ ENDP		; ioEngineerItem::GetMaxBullet
_TEXT	ENDS
PUBLIC	?GetNeedBullet@ioEngineerItem@@QAEHXZ		; ioEngineerItem::GetNeedBullet
; Function compile flags: /Ogsp
;	COMDAT ?GetNeedBullet@ioEngineerItem@@QAEHXZ
_TEXT	SEGMENT
_value$555378 = -4					; size = 4
?GetNeedBullet@ioEngineerItem@@QAEHXZ PROC		; ioEngineerItem::GetNeedBullet, COMDAT
; _this$ = ecx

; 598  : {

  00000	55		 push	 ebp
  00001	8b ec		 mov	 ebp, esp
  00003	51		 push	 ecx

; 599  : 	return (int)m_fNeedGauge;

  00004	8d 45 fc	 lea	 eax, DWORD PTR _value$555378[ebp]
  00007	50		 push	 eax
  00008	81 c1 60 19 00
	00		 add	 ecx, 6496		; 00001960H
  0000e	e8 00 00 00 00	 call	 ?DecryptValueToPool@?$CEncrypt@M@@QAEXPAM@Z ; CEncrypt<float>::DecryptValueToPool
  00013	f3 0f 2c 45 fc	 cvttss2si eax, DWORD PTR _value$555378[ebp]

; 600  : }

  00018	c9		 leave
  00019	c3		 ret	 0
?GetNeedBullet@ioEngineerItem@@QAEHXZ ENDP		; ioEngineerItem::GetNeedBullet
_TEXT	ENDS
PUBLIC	?GetCurBullet@ioEngineerItem@@UAEHXZ		; ioEngineerItem::GetCurBullet
; Function compile flags: /Ogsp
;	COMDAT ?GetCurBullet@ioEngineerItem@@UAEHXZ
_TEXT	SEGMENT
_fCurCoolTime$ = -12					; size = 4
_value$555406 = -8					; size = 4
_value$555402 = -8					; size = 4
_value$555398 = -8					; size = 4
_value$555394 = -8					; size = 4
_value$555390 = -4					; size = 4
?GetCurBullet@ioEngineerItem@@UAEHXZ PROC		; ioEngineerItem::GetCurBullet, COMDAT
; _this$ = ecx

; 603  : {

  00000	55		 push	 ebp
  00001	8b ec		 mov	 ebp, esp
  00003	83 ec 0c	 sub	 esp, 12			; 0000000cH
  00006	56		 push	 esi
  00007	8b f1		 mov	 esi, ecx

; 604  : 	float fCurCoolTime = m_fCurExtraGauge;

  00009	8d 45 fc	 lea	 eax, DWORD PTR _value$555390[ebp]
  0000c	50		 push	 eax
  0000d	8d 8e dc 16 00
	00		 lea	 ecx, DWORD PTR [esi+5852]
  00013	e8 00 00 00 00	 call	 ?DecryptValueToPool@?$CEncrypt@M@@QAEXPAM@Z ; CEncrypt<float>::DecryptValueToPool
  00018	f3 0f 10 45 fc	 movss	 xmm0, DWORD PTR _value$555390[ebp]

; 605  : 	fCurCoolTime = max( 0, min( fCurCoolTime, m_fMaxExtraGauge ) );

  0001d	8d 45 f8	 lea	 eax, DWORD PTR _value$555394[ebp]
  00020	81 c6 ac 16 00
	00		 add	 esi, 5804		; 000016acH
  00026	50		 push	 eax
  00027	8b ce		 mov	 ecx, esi
  00029	f3 0f 11 45 f4	 movss	 DWORD PTR _fCurCoolTime$[ebp], xmm0
  0002e	e8 00 00 00 00	 call	 ?DecryptValueToPool@?$CEncrypt@M@@QAEXPAM@Z ; CEncrypt<float>::DecryptValueToPool
  00033	f3 0f 10 45 fc	 movss	 xmm0, DWORD PTR _value$555390[ebp]
  00038	f3 0f 10 55 f8	 movss	 xmm2, DWORD PTR _value$555394[ebp]
  0003d	0f 57 c9	 xorps	 xmm1, xmm1
  00040	0f 5a c8	 cvtps2pd xmm1, xmm0
  00043	0f 5a d2	 cvtps2pd xmm2, xmm2
  00046	66 0f 2f d1	 comisd	 xmm2, xmm1
  0004a	77 10		 ja	 SHORT $LN4@GetCurBull
  0004c	8d 45 f8	 lea	 eax, DWORD PTR _value$555398[ebp]
  0004f	50		 push	 eax
  00050	8b ce		 mov	 ecx, esi
  00052	e8 00 00 00 00	 call	 ?DecryptValueToPool@?$CEncrypt@M@@QAEXPAM@Z ; CEncrypt<float>::DecryptValueToPool
  00057	f3 0f 10 45 f8	 movss	 xmm0, DWORD PTR _value$555398[ebp]
$LN4@GetCurBull:
  0005c	0f 57 c9	 xorps	 xmm1, xmm1
  0005f	0f 5a c0	 cvtps2pd xmm0, xmm0
  00062	66 0f 2f c8	 comisd	 xmm1, xmm0
  00066	76 05		 jbe	 SHORT $LN7@GetCurBull
  00068	0f 57 c0	 xorps	 xmm0, xmm0
  0006b	eb 38		 jmp	 SHORT $LN6@GetCurBull
$LN7@GetCurBull:
  0006d	8d 45 f8	 lea	 eax, DWORD PTR _value$555402[ebp]
  00070	50		 push	 eax
  00071	8b ce		 mov	 ecx, esi
  00073	e8 00 00 00 00	 call	 ?DecryptValueToPool@?$CEncrypt@M@@QAEXPAM@Z ; CEncrypt<float>::DecryptValueToPool
  00078	f3 0f 10 45 fc	 movss	 xmm0, DWORD PTR _value$555390[ebp]
  0007d	f3 0f 10 4d f8	 movss	 xmm1, DWORD PTR _value$555402[ebp]
  00082	0f 5a c0	 cvtps2pd xmm0, xmm0
  00085	0f 5a c9	 cvtps2pd xmm1, xmm1
  00088	66 0f 2f c8	 comisd	 xmm1, xmm0
  0008c	77 12		 ja	 SHORT $LN19@GetCurBull
  0008e	8d 45 f8	 lea	 eax, DWORD PTR _value$555406[ebp]
  00091	50		 push	 eax
  00092	8b ce		 mov	 ecx, esi
  00094	e8 00 00 00 00	 call	 ?DecryptValueToPool@?$CEncrypt@M@@QAEXPAM@Z ; CEncrypt<float>::DecryptValueToPool
  00099	f3 0f 10 45 f8	 movss	 xmm0, DWORD PTR _value$555406[ebp]
  0009e	eb 05		 jmp	 SHORT $LN6@GetCurBull
$LN19@GetCurBull:
  000a0	f3 0f 10 45 f4	 movss	 xmm0, DWORD PTR _fCurCoolTime$[ebp]
$LN6@GetCurBull:

; 606  : 
; 607  : 	return (int)fCurCoolTime;

  000a5	f3 0f 2c c0	 cvttss2si eax, xmm0
  000a9	5e		 pop	 esi

; 608  : }

  000aa	c9		 leave
  000ab	c3		 ret	 0
?GetCurBullet@ioEngineerItem@@UAEHXZ ENDP		; ioEngineerItem::GetCurBullet
_TEXT	ENDS
PUBLIC	?SetCurBullet@ioEngineerItem@@UAEXH@Z		; ioEngineerItem::SetCurBullet
; Function compile flags: /Ogsp
;	COMDAT ?SetCurBullet@ioEngineerItem@@UAEXH@Z
_TEXT	SEGMENT
_value$555427 = -4					; size = 4
_value$555423 = -4					; size = 4
_value$555419 = -4					; size = 4
_value$555435 = 8					; size = 4
_value$555431 = 8					; size = 4
_fCurBullet$ = 8					; size = 4
_iCurBullet$ = 8					; size = 4
?SetCurBullet@ioEngineerItem@@UAEXH@Z PROC		; ioEngineerItem::SetCurBullet, COMDAT
; _this$ = ecx

; 611  : {

  00000	55		 push	 ebp
  00001	8b ec		 mov	 ebp, esp
  00003	51		 push	 ecx

; 612  : 	if( iCurBullet < 0 )

  00004	83 7d 08 00	 cmp	 DWORD PTR _iCurBullet$[ebp], 0
  00008	57		 push	 edi
  00009	8b f9		 mov	 edi, ecx
  0000b	0f 8c a6 00 00
	00		 jl	 $LN18@SetCurBull

; 613  : 		return;
; 614  : 
; 615  : 	float fCurBullet = iCurBullet;

  00011	66 0f 6e 45 08	 movd	 xmm0, DWORD PTR _iCurBullet$[ebp]
  00016	56		 push	 esi

; 616  : 	fCurBullet = max( 0, min( fCurBullet, m_fMaxExtraGauge ) );

  00017	8d 45 fc	 lea	 eax, DWORD PTR _value$555419[ebp]
  0001a	0f 5b c0	 cvtdq2ps xmm0, xmm0
  0001d	50		 push	 eax
  0001e	8d 8f ac 16 00
	00		 lea	 ecx, DWORD PTR [edi+5804]
  00024	f3 0f 11 45 08	 movss	 DWORD PTR _fCurBullet$[ebp], xmm0
  00029	e8 00 00 00 00	 call	 ?DecryptValueToPool@?$CEncrypt@M@@QAEXPAM@Z ; CEncrypt<float>::DecryptValueToPool
  0002e	f3 0f 10 45 08	 movss	 xmm0, DWORD PTR _fCurBullet$[ebp]
  00033	f3 0f 10 55 fc	 movss	 xmm2, DWORD PTR _value$555419[ebp]
  00038	0f 5a c8	 cvtps2pd xmm1, xmm0
  0003b	0f 5a d2	 cvtps2pd xmm2, xmm2
  0003e	66 0f 2f d1	 comisd	 xmm2, xmm1
  00042	77 14		 ja	 SHORT $LN5@SetCurBull
  00044	8d 45 fc	 lea	 eax, DWORD PTR _value$555423[ebp]
  00047	50		 push	 eax
  00048	8d 8f ac 16 00
	00		 lea	 ecx, DWORD PTR [edi+5804]
  0004e	e8 00 00 00 00	 call	 ?DecryptValueToPool@?$CEncrypt@M@@QAEXPAM@Z ; CEncrypt<float>::DecryptValueToPool
  00053	f3 0f 10 45 fc	 movss	 xmm0, DWORD PTR _value$555423[ebp]
$LN5@SetCurBull:
  00058	0f 57 c9	 xorps	 xmm1, xmm1
  0005b	0f 5a c0	 cvtps2pd xmm0, xmm0
  0005e	66 0f 2f c8	 comisd	 xmm1, xmm0
  00062	76 05		 jbe	 SHORT $LN8@SetCurBull
  00064	0f 57 c0	 xorps	 xmm0, xmm0
  00067	eb 39		 jmp	 SHORT $LN7@SetCurBull
$LN8@SetCurBull:
  00069	8d 45 fc	 lea	 eax, DWORD PTR _value$555427[ebp]
  0006c	50		 push	 eax
  0006d	8d 8f ac 16 00
	00		 lea	 ecx, DWORD PTR [edi+5804]
  00073	e8 00 00 00 00	 call	 ?DecryptValueToPool@?$CEncrypt@M@@QAEXPAM@Z ; CEncrypt<float>::DecryptValueToPool
  00078	f3 0f 10 45 08	 movss	 xmm0, DWORD PTR _fCurBullet$[ebp]
  0007d	f3 0f 10 55 fc	 movss	 xmm2, DWORD PTR _value$555427[ebp]
  00082	0f 5a c8	 cvtps2pd xmm1, xmm0
  00085	0f 5a d2	 cvtps2pd xmm2, xmm2
  00088	66 0f 2f d1	 comisd	 xmm2, xmm1
  0008c	77 14		 ja	 SHORT $LN7@SetCurBull
  0008e	8d 45 08	 lea	 eax, DWORD PTR _value$555431[ebp]
  00091	50		 push	 eax
  00092	8d 8f ac 16 00
	00		 lea	 ecx, DWORD PTR [edi+5804]
  00098	e8 00 00 00 00	 call	 ?DecryptValueToPool@?$CEncrypt@M@@QAEXPAM@Z ; CEncrypt<float>::DecryptValueToPool
  0009d	f3 0f 10 45 08	 movss	 xmm0, DWORD PTR _value$555431[ebp]
$LN7@SetCurBull:

; 617  : 
; 618  : 	m_fCurExtraGauge = fCurBullet;

  000a2	8d 45 08	 lea	 eax, DWORD PTR _value$555435[ebp]
  000a5	50		 push	 eax
  000a6	8d 8f dc 16 00
	00		 lea	 ecx, DWORD PTR [edi+5852]
  000ac	f3 0f 11 45 08	 movss	 DWORD PTR _value$555435[ebp], xmm0
  000b1	e8 00 00 00 00	 call	 ?EncryptValueToPool@?$CEncrypt@M@@AAEXPBD@Z ; CEncrypt<float>::EncryptValueToPool
  000b6	5e		 pop	 esi
$LN18@SetCurBull:
  000b7	5f		 pop	 edi

; 619  : }

  000b8	c9		 leave
  000b9	c2 04 00	 ret	 4
?SetCurBullet@ioEngineerItem@@UAEXH@Z ENDP		; ioEngineerItem::SetCurBullet
_TEXT	ENDS
PUBLIC	?SetUseExtraGauge@ioEngineerItem@@UAEXM@Z	; ioEngineerItem::SetUseExtraGauge
; Function compile flags: /Ogsp
;	COMDAT ?SetUseExtraGauge@ioEngineerItem@@UAEXM@Z
_TEXT	SEGMENT
_value$555443 = -4					; size = 4
_value$555456 = 8					; size = 4
_value$555452 = 8					; size = 4
_value$555448 = 8					; size = 4
_fAmt$ = 8						; size = 4
?SetUseExtraGauge@ioEngineerItem@@UAEXM@Z PROC		; ioEngineerItem::SetUseExtraGauge, COMDAT
; _this$ = ecx

; 622  : {

  00000	55		 push	 ebp
  00001	8b ec		 mov	 ebp, esp
  00003	51		 push	 ecx
  00004	56		 push	 esi

; 623  : 	m_fCurExtraGauge -= fAmt;

  00005	8d b1 dc 16 00
	00		 lea	 esi, DWORD PTR [ecx+5852]
  0000b	8d 45 fc	 lea	 eax, DWORD PTR _value$555443[ebp]
  0000e	50		 push	 eax
  0000f	8b ce		 mov	 ecx, esi
  00011	e8 00 00 00 00	 call	 ?DecryptValueToPool@?$CEncrypt@M@@QAEXPAM@Z ; CEncrypt<float>::DecryptValueToPool
  00016	f3 0f 10 45 fc	 movss	 xmm0, DWORD PTR _value$555443[ebp]
  0001b	f3 0f 10 4d 08	 movss	 xmm1, DWORD PTR _fAmt$[ebp]
  00020	0f 5a c0	 cvtps2pd xmm0, xmm0
  00023	0f 5a c9	 cvtps2pd xmm1, xmm1
  00026	8d 45 fc	 lea	 eax, DWORD PTR _value$555443[ebp]
  00029	f2 0f 5c c1	 subsd	 xmm0, xmm1
  0002d	66 0f 5a c0	 cvtpd2ps xmm0, xmm0
  00031	50		 push	 eax
  00032	8b ce		 mov	 ecx, esi
  00034	f3 0f 11 45 fc	 movss	 DWORD PTR _value$555443[ebp], xmm0
  00039	e8 00 00 00 00	 call	 ?EncryptValueToPool@?$CEncrypt@M@@AAEXPBD@Z ; CEncrypt<float>::EncryptValueToPool

; 624  : 	m_fCurExtraGauge = max( 0.0f, m_fCurExtraGauge );

  0003e	8d 45 08	 lea	 eax, DWORD PTR _value$555448[ebp]
  00041	50		 push	 eax
  00042	8b ce		 mov	 ecx, esi
  00044	e8 00 00 00 00	 call	 ?DecryptValueToPool@?$CEncrypt@M@@QAEXPAM@Z ; CEncrypt<float>::DecryptValueToPool
  00049	f3 0f 10 45 08	 movss	 xmm0, DWORD PTR _value$555448[ebp]
  0004e	0f 57 c9	 xorps	 xmm1, xmm1
  00051	0f 5a c0	 cvtps2pd xmm0, xmm0
  00054	66 0f 2f c8	 comisd	 xmm1, xmm0
  00058	76 05		 jbe	 SHORT $LN3@SetUseExtr
  0005a	0f 57 c0	 xorps	 xmm0, xmm0
  0005d	eb 10		 jmp	 SHORT $LN4@SetUseExtr
$LN3@SetUseExtr:
  0005f	8d 45 08	 lea	 eax, DWORD PTR _value$555452[ebp]
  00062	50		 push	 eax
  00063	8b ce		 mov	 ecx, esi
  00065	e8 00 00 00 00	 call	 ?DecryptValueToPool@?$CEncrypt@M@@QAEXPAM@Z ; CEncrypt<float>::DecryptValueToPool
  0006a	f3 0f 10 45 08	 movss	 xmm0, DWORD PTR _value$555452[ebp]
$LN4@SetUseExtr:
  0006f	8d 45 08	 lea	 eax, DWORD PTR _value$555456[ebp]
  00072	50		 push	 eax
  00073	8b ce		 mov	 ecx, esi
  00075	f3 0f 11 45 08	 movss	 DWORD PTR _value$555456[ebp], xmm0
  0007a	e8 00 00 00 00	 call	 ?EncryptValueToPool@?$CEncrypt@M@@AAEXPBD@Z ; CEncrypt<float>::EncryptValueToPool
  0007f	5e		 pop	 esi

; 625  : }

  00080	c9		 leave
  00081	c2 04 00	 ret	 4
?SetUseExtraGauge@ioEngineerItem@@UAEXM@Z ENDP		; ioEngineerItem::SetUseExtraGauge
_TEXT	ENDS
PUBLIC	??0?$vector@PAVioDummyChar@@V?$allocator@PAVioDummyChar@@@std@@@std@@QAE@XZ ; std::vector<ioDummyChar *,std::allocator<ioDummyChar *> >::vector<ioDummyChar *,std::allocator<ioDummyChar *> >
; Function compile flags: /Ogsp
; File c:\program files (x86)\microsoft visual studio 10.0\vc\include\vector
;	COMDAT ??0?$vector@PAVioDummyChar@@V?$allocator@PAVioDummyChar@@@std@@@std@@QAE@XZ
_TEXT	SEGMENT
??0?$vector@PAVioDummyChar@@V?$allocator@PAVioDummyChar@@@std@@@std@@QAE@XZ PROC ; std::vector<ioDummyChar *,std::allocator<ioDummyChar *> >::vector<ioDummyChar *,std::allocator<ioDummyChar *> >, COMDAT
; _this$ = ecx

; 507  : 		{	// construct empty vector

  00000	8b c1		 mov	 eax, ecx
  00002	33 c9		 xor	 ecx, ecx
  00004	89 08		 mov	 DWORD PTR [eax], ecx
  00006	89 48 04	 mov	 DWORD PTR [eax+4], ecx
  00009	89 48 08	 mov	 DWORD PTR [eax+8], ecx

; 508  : 		}

  0000c	c3		 ret	 0
??0?$vector@PAVioDummyChar@@V?$allocator@PAVioDummyChar@@@std@@@std@@QAE@XZ ENDP ; std::vector<ioDummyChar *,std::allocator<ioDummyChar *> >::vector<ioDummyChar *,std::allocator<ioDummyChar *> >
_TEXT	ENDS
PUBLIC	?begin@?$vector@PAVioDummyChar@@V?$allocator@PAVioDummyChar@@@std@@@std@@QAE?AV?$_Vector_iterator@V?$_Vector_val@PAVioDummyChar@@V?$allocator@PAVioDummyChar@@@std@@@std@@@2@XZ ; std::vector<ioDummyChar *,std::allocator<ioDummyChar *> >::begin
; Function compile flags: /Ogsp
;	COMDAT ?begin@?$vector@PAVioDummyChar@@V?$allocator@PAVioDummyChar@@@std@@@std@@QAE?AV?$_Vector_iterator@V?$_Vector_val@PAVioDummyChar@@V?$allocator@PAVioDummyChar@@@std@@@std@@@2@XZ
_TEXT	SEGMENT
___$ReturnUdt$ = 8					; size = 4
?begin@?$vector@PAVioDummyChar@@V?$allocator@PAVioDummyChar@@@std@@@std@@QAE?AV?$_Vector_iterator@V?$_Vector_val@PAVioDummyChar@@V?$allocator@PAVioDummyChar@@@std@@@std@@@2@XZ PROC ; std::vector<ioDummyChar *,std::allocator<ioDummyChar *> >::begin, COMDAT
; _this$ = ecx

; 781  : 		{	// return iterator for beginning of mutable sequence

  00000	55		 push	 ebp
  00001	8b ec		 mov	 ebp, esp

; 782  : 		return (iterator(this->_Myfirst, this));

  00003	8b 09		 mov	 ecx, DWORD PTR [ecx]
  00005	8b 45 08	 mov	 eax, DWORD PTR ___$ReturnUdt$[ebp]
  00008	89 08		 mov	 DWORD PTR [eax], ecx

; 783  : 		}

  0000a	5d		 pop	 ebp
  0000b	c2 04 00	 ret	 4
?begin@?$vector@PAVioDummyChar@@V?$allocator@PAVioDummyChar@@@std@@@std@@QAE?AV?$_Vector_iterator@V?$_Vector_val@PAVioDummyChar@@V?$allocator@PAVioDummyChar@@@std@@@std@@@2@XZ ENDP ; std::vector<ioDummyChar *,std::allocator<ioDummyChar *> >::begin
_TEXT	ENDS
PUBLIC	?end@?$vector@PAVioDummyChar@@V?$allocator@PAVioDummyChar@@@std@@@std@@QAE?AV?$_Vector_iterator@V?$_Vector_val@PAVioDummyChar@@V?$allocator@PAVioDummyChar@@@std@@@std@@@2@XZ ; std::vector<ioDummyChar *,std::allocator<ioDummyChar *> >::end
; Function compile flags: /Ogsp
;	COMDAT ?end@?$vector@PAVioDummyChar@@V?$allocator@PAVioDummyChar@@@std@@@std@@QAE?AV?$_Vector_iterator@V?$_Vector_val@PAVioDummyChar@@V?$allocator@PAVioDummyChar@@@std@@@std@@@2@XZ
_TEXT	SEGMENT
___$ReturnUdt$ = 8					; size = 4
?end@?$vector@PAVioDummyChar@@V?$allocator@PAVioDummyChar@@@std@@@std@@QAE?AV?$_Vector_iterator@V?$_Vector_val@PAVioDummyChar@@V?$allocator@PAVioDummyChar@@@std@@@std@@@2@XZ PROC ; std::vector<ioDummyChar *,std::allocator<ioDummyChar *> >::end, COMDAT
; _this$ = ecx

; 791  : 		{	// return iterator for end of mutable sequence

  00000	55		 push	 ebp
  00001	8b ec		 mov	 ebp, esp

; 792  : 		return (iterator(this->_Mylast, this));

  00003	8b 49 04	 mov	 ecx, DWORD PTR [ecx+4]
  00006	8b 45 08	 mov	 eax, DWORD PTR ___$ReturnUdt$[ebp]
  00009	89 08		 mov	 DWORD PTR [eax], ecx

; 793  : 		}

  0000b	5d		 pop	 ebp
  0000c	c2 04 00	 ret	 4
?end@?$vector@PAVioDummyChar@@V?$allocator@PAVioDummyChar@@@std@@@std@@QAE?AV?$_Vector_iterator@V?$_Vector_val@PAVioDummyChar@@V?$allocator@PAVioDummyChar@@@std@@@std@@@2@XZ ENDP ; std::vector<ioDummyChar *,std::allocator<ioDummyChar *> >::end
_TEXT	ENDS
PUBLIC	??0?$vector@UGroupDummyInfo@@V?$allocator@UGroupDummyInfo@@@std@@@std@@QAE@XZ ; std::vector<GroupDummyInfo,std::allocator<GroupDummyInfo> >::vector<GroupDummyInfo,std::allocator<GroupDummyInfo> >
; Function compile flags: /Ogsp
;	COMDAT ??0?$vector@UGroupDummyInfo@@V?$allocator@UGroupDummyInfo@@@std@@@std@@QAE@XZ
_TEXT	SEGMENT
??0?$vector@UGroupDummyInfo@@V?$allocator@UGroupDummyInfo@@@std@@@std@@QAE@XZ PROC ; std::vector<GroupDummyInfo,std::allocator<GroupDummyInfo> >::vector<GroupDummyInfo,std::allocator<GroupDummyInfo> >, COMDAT
; _this$ = ecx

; 507  : 		{	// construct empty vector

  00000	8b c1		 mov	 eax, ecx
  00002	33 c9		 xor	 ecx, ecx
  00004	89 08		 mov	 DWORD PTR [eax], ecx
  00006	89 48 04	 mov	 DWORD PTR [eax+4], ecx
  00009	89 48 08	 mov	 DWORD PTR [eax+8], ecx

; 508  : 		}

  0000c	c3		 ret	 0
??0?$vector@UGroupDummyInfo@@V?$allocator@UGroupDummyInfo@@@std@@@std@@QAE@XZ ENDP ; std::vector<GroupDummyInfo,std::allocator<GroupDummyInfo> >::vector<GroupDummyInfo,std::allocator<GroupDummyInfo> >
_TEXT	ENDS
PUBLIC	?_Buy@?$vector@UGroupDummyInfo@@V?$allocator@UGroupDummyInfo@@@std@@@std@@IAE_NI@Z ; std::vector<GroupDummyInfo,std::allocator<GroupDummyInfo> >::_Buy
; Function compile flags: /Ogsp
;	COMDAT ?_Buy@?$vector@UGroupDummyInfo@@V?$allocator@UGroupDummyInfo@@@std@@@std@@IAE_NI@Z
_TEXT	SEGMENT
__Capacity$ = 8						; size = 4
?_Buy@?$vector@UGroupDummyInfo@@V?$allocator@UGroupDummyInfo@@@std@@@std@@IAE_NI@Z PROC ; std::vector<GroupDummyInfo,std::allocator<GroupDummyInfo> >::_Buy, COMDAT
; _this$ = ecx

; 1250 : 		{	// allocate array with _Capacity elements

  00000	55		 push	 ebp
  00001	8b ec		 mov	 ebp, esp
  00003	56		 push	 esi

; 1251 : 		this->_Myfirst = 0;

  00004	33 c0		 xor	 eax, eax
  00006	57		 push	 edi

; 1252 : 		this->_Mylast = 0;
; 1253 : 		this->_Myend = 0;
; 1254 : 
; 1255 : 		if (_Capacity == 0)

  00007	8b 7d 08	 mov	 edi, DWORD PTR __Capacity$[ebp]
  0000a	8b f1		 mov	 esi, ecx
  0000c	89 06		 mov	 DWORD PTR [esi], eax
  0000e	89 46 04	 mov	 DWORD PTR [esi+4], eax
  00011	89 46 08	 mov	 DWORD PTR [esi+8], eax
  00014	3b f8		 cmp	 edi, eax
  00016	75 04		 jne	 SHORT $LN4@Buy

; 1256 : 			return (false);

  00018	32 c0		 xor	 al, al
  0001a	eb 2b		 jmp	 SHORT $LN5@Buy
$LN4@Buy:

; 1257 : 		else if (max_size() < _Capacity)

  0001c	81 ff cc cc cc
	0c		 cmp	 edi, 214748364		; 0cccccccH
  00022	76 0b		 jbe	 SHORT $LN2@Buy

; 1258 : 			_Xlen();	// result too long

  00024	68 00 00 00 00	 push	 OFFSET ??_C@_0BD@OLBABOEK@vector?$DMT?$DO?5too?5long?$AA@
  00029	ff 15 00 00 00
	00		 call	 DWORD PTR __imp_?_Xlength_error@std@@YAXPBD@Z
$LN19@Buy:
$LN2@Buy:

; 1259 : 		else
; 1260 : 			{	// nonempty array, allocate storage
; 1261 : 			this->_Myfirst = this->_Alval.allocate(_Capacity);

  0002f	50		 push	 eax
  00030	57		 push	 edi
  00031	e8 00 00 00 00	 call	 ??$_Allocate@UGroupDummyInfo@@@std@@YAPAUGroupDummyInfo@@IPAU1@@Z ; std::_Allocate<GroupDummyInfo>

; 1262 : 			this->_Mylast = this->_Myfirst;
; 1263 : 			this->_Myend = this->_Myfirst + _Capacity;

  00036	6b ff 14	 imul	 edi, 20			; 00000014H
  00039	03 f8		 add	 edi, eax
  0003b	59		 pop	 ecx
  0003c	89 06		 mov	 DWORD PTR [esi], eax
  0003e	89 46 04	 mov	 DWORD PTR [esi+4], eax
  00041	59		 pop	 ecx
  00042	89 7e 08	 mov	 DWORD PTR [esi+8], edi

; 1264 : 			}
; 1265 : 		return (true);

  00045	b0 01		 mov	 al, 1
$LN5@Buy:
  00047	5f		 pop	 edi
  00048	5e		 pop	 esi

; 1266 : 		}

  00049	5d		 pop	 ebp
  0004a	c2 04 00	 ret	 4
$LN18@Buy:
?_Buy@?$vector@UGroupDummyInfo@@V?$allocator@UGroupDummyInfo@@@std@@@std@@IAE_NI@Z ENDP ; std::vector<GroupDummyInfo,std::allocator<GroupDummyInfo> >::_Buy
_TEXT	ENDS
PUBLIC	?_Grow_to@?$vector@VioHashString@@V?$allocator@VioHashString@@@std@@@std@@IBEII@Z ; std::vector<ioHashString,std::allocator<ioHashString> >::_Grow_to
; Function compile flags: /Ogsp
;	COMDAT ?_Grow_to@?$vector@VioHashString@@V?$allocator@VioHashString@@@std@@@std@@IBEII@Z
_TEXT	SEGMENT
__Count$ = 8						; size = 4
?_Grow_to@?$vector@VioHashString@@V?$allocator@VioHashString@@@std@@@std@@IBEII@Z PROC ; std::vector<ioHashString,std::allocator<ioHashString> >::_Grow_to, COMDAT
; _this$ = ecx

; 1274 : 		{	// grow by 50% or at least to _Count

  00000	55		 push	 ebp
  00001	8b ec		 mov	 ebp, esp

; 1275 : 		size_type _Capacity = capacity();

  00003	8b 41 08	 mov	 eax, DWORD PTR [ecx+8]
  00006	2b 01		 sub	 eax, DWORD PTR [ecx]

; 1276 : 
; 1277 : 		_Capacity = max_size() - _Capacity / 2 < _Capacity
; 1278 : 			? 0 : _Capacity + _Capacity / 2;	// try to grow by 50%

  00008	ba ff ff ff 0f	 mov	 edx, 268435455		; 0fffffffH
  0000d	c1 f8 04	 sar	 eax, 4
  00010	8b c8		 mov	 ecx, eax
  00012	d1 e9		 shr	 ecx, 1
  00014	2b d1		 sub	 edx, ecx
  00016	3b d0		 cmp	 edx, eax
  00018	73 04		 jae	 SHORT $LN4@Grow_to@2
  0001a	33 c0		 xor	 eax, eax
  0001c	eb 02		 jmp	 SHORT $LN5@Grow_to@2
$LN4@Grow_to@2:
  0001e	03 c1		 add	 eax, ecx
$LN5@Grow_to@2:

; 1279 : 		if (_Capacity < _Count)

  00020	3b 45 08	 cmp	 eax, DWORD PTR __Count$[ebp]

; 1280 : 			_Capacity = _Count;

  00023	0f 42 45 08	 cmovb	 eax, DWORD PTR __Count$[ebp]

; 1281 : 		return (_Capacity);
; 1282 : 		}

  00027	5d		 pop	 ebp
  00028	c2 04 00	 ret	 4
?_Grow_to@?$vector@VioHashString@@V?$allocator@VioHashString@@@std@@@std@@IBEII@Z ENDP ; std::vector<ioHashString,std::allocator<ioHashString> >::_Grow_to
_TEXT	ENDS
PUBLIC	??$_Cons_val@V?$allocator@UGroupDummyInfo@@@std@@UGroupDummyInfo@@AAU3@@std@@YAXAAV?$allocator@UGroupDummyInfo@@@0@PAUGroupDummyInfo@@AAU2@@Z ; std::_Cons_val<std::allocator<GroupDummyInfo>,GroupDummyInfo,GroupDummyInfo &>
; Function compile flags: /Ogsp
; File c:\program files (x86)\microsoft visual studio 10.0\vc\include\xmemory
;	COMDAT ??$_Cons_val@V?$allocator@UGroupDummyInfo@@@std@@UGroupDummyInfo@@AAU3@@std@@YAXAAV?$allocator@UGroupDummyInfo@@@0@PAUGroupDummyInfo@@AAU2@@Z
_TEXT	SEGMENT
__Alval$ = 8						; size = 4
__Pdest$ = 12						; size = 4
__Src$ = 16						; size = 4
??$_Cons_val@V?$allocator@UGroupDummyInfo@@@std@@UGroupDummyInfo@@AAU3@@std@@YAXAAV?$allocator@UGroupDummyInfo@@@0@PAUGroupDummyInfo@@AAU2@@Z PROC ; std::_Cons_val<std::allocator<GroupDummyInfo>,GroupDummyInfo,GroupDummyInfo &>, COMDAT

; 279  : 	{	// construct using allocator

  00000	55		 push	 ebp
  00001	8b ec		 mov	 ebp, esp

; 280  : 	_Alval.construct(_Pdest, _STD forward<_Ty2>(_Src));

  00003	ff 75 10	 push	 DWORD PTR __Src$[ebp]
  00006	8b 4d 08	 mov	 ecx, DWORD PTR __Alval$[ebp]
  00009	ff 75 0c	 push	 DWORD PTR __Pdest$[ebp]
  0000c	e8 00 00 00 00	 call	 ??$construct@AAUGroupDummyInfo@@@?$allocator@UGroupDummyInfo@@@std@@QAEXPAUGroupDummyInfo@@AAU2@@Z ; std::allocator<GroupDummyInfo>::construct<GroupDummyInfo &>

; 281  : 	}

  00011	5d		 pop	 ebp
  00012	c3		 ret	 0
??$_Cons_val@V?$allocator@UGroupDummyInfo@@@std@@UGroupDummyInfo@@AAU3@@std@@YAXAAV?$allocator@UGroupDummyInfo@@@0@PAUGroupDummyInfo@@AAU2@@Z ENDP ; std::_Cons_val<std::allocator<GroupDummyInfo>,GroupDummyInfo,GroupDummyInfo &>
_TEXT	ENDS
PUBLIC	?construct@?$allocator@UGroupDummyInfo@@@std@@QAEXPAUGroupDummyInfo@@ABU3@@Z ; std::allocator<GroupDummyInfo>::construct
; Function compile flags: /Ogsp
;	COMDAT ?construct@?$allocator@UGroupDummyInfo@@@std@@QAEXPAUGroupDummyInfo@@ABU3@@Z
_TEXT	SEGMENT
__Ptr$ = 8						; size = 4
__Val$ = 12						; size = 4
?construct@?$allocator@UGroupDummyInfo@@@std@@QAEXPAUGroupDummyInfo@@ABU3@@Z PROC ; std::allocator<GroupDummyInfo>::construct, COMDAT
; _this$ = ecx

; 196  : 		{	// construct object at _Ptr with value _Val

  00000	55		 push	 ebp
  00001	8b ec		 mov	 ebp, esp

; 197  : 		_Construct(_Ptr, _Val);

  00003	ff 75 0c	 push	 DWORD PTR __Val$[ebp]
  00006	ff 75 08	 push	 DWORD PTR __Ptr$[ebp]
  00009	e8 00 00 00 00	 call	 ??$_Construct@UGroupDummyInfo@@ABU1@@std@@YAXPAUGroupDummyInfo@@ABU1@@Z ; std::_Construct<GroupDummyInfo,GroupDummyInfo const &>
  0000e	59		 pop	 ecx
  0000f	59		 pop	 ecx

; 198  : 		}

  00010	5d		 pop	 ebp
  00011	c2 08 00	 ret	 8
?construct@?$allocator@UGroupDummyInfo@@@std@@QAEXPAUGroupDummyInfo@@ABU3@@Z ENDP ; std::allocator<GroupDummyInfo>::construct
_TEXT	ENDS
PUBLIC	?destroy@?$allocator@UGroupDummyInfo@@@std@@QAEXPAUGroupDummyInfo@@@Z ; std::allocator<GroupDummyInfo>::destroy
; Function compile flags: /Ogsp
;	COMDAT ?destroy@?$allocator@UGroupDummyInfo@@@std@@QAEXPAUGroupDummyInfo@@@Z
_TEXT	SEGMENT
__Ptr$ = 8						; size = 4
?destroy@?$allocator@UGroupDummyInfo@@@std@@QAEXPAUGroupDummyInfo@@@Z PROC ; std::allocator<GroupDummyInfo>::destroy, COMDAT
; _this$ = ecx

; 212  : 		{	// destroy object at _Ptr

  00000	55		 push	 ebp
  00001	8b ec		 mov	 ebp, esp

; 213  : 		_Destroy(_Ptr);

  00003	8b 4d 08	 mov	 ecx, DWORD PTR __Ptr$[ebp]
  00006	ff 15 00 00 00
	00		 call	 DWORD PTR __imp_??1ioHashString@@QAE@XZ

; 214  : 		}

  0000c	5d		 pop	 ebp
  0000d	c2 04 00	 ret	 4
?destroy@?$allocator@UGroupDummyInfo@@@std@@QAEXPAUGroupDummyInfo@@@Z ENDP ; std::allocator<GroupDummyInfo>::destroy
_TEXT	ENDS
PUBLIC	??9?$_Vector_const_iterator@V?$_Vector_val@UGroupDummyInfo@@V?$allocator@UGroupDummyInfo@@@std@@@std@@@std@@QBE_NABV01@@Z ; std::_Vector_const_iterator<std::_Vector_val<GroupDummyInfo,std::allocator<GroupDummyInfo> > >::operator!=
; Function compile flags: /Ogsp
; File c:\program files (x86)\microsoft visual studio 10.0\vc\include\vector
;	COMDAT ??9?$_Vector_const_iterator@V?$_Vector_val@UGroupDummyInfo@@V?$allocator@UGroupDummyInfo@@@std@@@std@@@std@@QBE_NABV01@@Z
_TEXT	SEGMENT
__Right$ = 8						; size = 4
??9?$_Vector_const_iterator@V?$_Vector_val@UGroupDummyInfo@@V?$allocator@UGroupDummyInfo@@@std@@@std@@@std@@QBE_NABV01@@Z PROC ; std::_Vector_const_iterator<std::_Vector_val<GroupDummyInfo,std::allocator<GroupDummyInfo> > >::operator!=, COMDAT
; _this$ = ecx

; 207  : 		{	// test for iterator inequality

  00000	55		 push	 ebp
  00001	8b ec		 mov	 ebp, esp

; 208  : 		return (!(*this == _Right));

  00003	8b 01		 mov	 eax, DWORD PTR [ecx]
  00005	8b 55 08	 mov	 edx, DWORD PTR __Right$[ebp]
  00008	33 c9		 xor	 ecx, ecx
  0000a	3b 02		 cmp	 eax, DWORD PTR [edx]
  0000c	0f 95 c0	 setne	 al

; 209  : 		}

  0000f	5d		 pop	 ebp
  00010	c2 04 00	 ret	 4
??9?$_Vector_const_iterator@V?$_Vector_val@UGroupDummyInfo@@V?$allocator@UGroupDummyInfo@@@std@@@std@@@std@@QBE_NABV01@@Z ENDP ; std::_Vector_const_iterator<std::_Vector_val<GroupDummyInfo,std::allocator<GroupDummyInfo> > >::operator!=
_TEXT	ENDS
PUBLIC	??$_Cons_val@V?$allocator@UGroupDummyInfo@@@std@@UGroupDummyInfo@@U3@@std@@YAXAAV?$allocator@UGroupDummyInfo@@@0@PAUGroupDummyInfo@@$$QAU2@@Z ; std::_Cons_val<std::allocator<GroupDummyInfo>,GroupDummyInfo,GroupDummyInfo>
; Function compile flags: /Ogsp
; File c:\program files (x86)\microsoft visual studio 10.0\vc\include\xmemory
;	COMDAT ??$_Cons_val@V?$allocator@UGroupDummyInfo@@@std@@UGroupDummyInfo@@U3@@std@@YAXAAV?$allocator@UGroupDummyInfo@@@0@PAUGroupDummyInfo@@$$QAU2@@Z
_TEXT	SEGMENT
__Alval$ = 8						; size = 4
__Pdest$ = 12						; size = 4
__Src$ = 16						; size = 4
??$_Cons_val@V?$allocator@UGroupDummyInfo@@@std@@UGroupDummyInfo@@U3@@std@@YAXAAV?$allocator@UGroupDummyInfo@@@0@PAUGroupDummyInfo@@$$QAU2@@Z PROC ; std::_Cons_val<std::allocator<GroupDummyInfo>,GroupDummyInfo,GroupDummyInfo>, COMDAT

; 279  : 	{	// construct using allocator

  00000	55		 push	 ebp
  00001	8b ec		 mov	 ebp, esp

; 280  : 	_Alval.construct(_Pdest, _STD forward<_Ty2>(_Src));

  00003	ff 75 10	 push	 DWORD PTR __Src$[ebp]
  00006	8b 4d 08	 mov	 ecx, DWORD PTR __Alval$[ebp]
  00009	ff 75 0c	 push	 DWORD PTR __Pdest$[ebp]
  0000c	e8 00 00 00 00	 call	 ?construct@?$allocator@UGroupDummyInfo@@@std@@QAEXPAUGroupDummyInfo@@$$QAU3@@Z ; std::allocator<GroupDummyInfo>::construct

; 281  : 	}

  00011	5d		 pop	 ebp
  00012	c3		 ret	 0
??$_Cons_val@V?$allocator@UGroupDummyInfo@@@std@@UGroupDummyInfo@@U3@@std@@YAXAAV?$allocator@UGroupDummyInfo@@@0@PAUGroupDummyInfo@@$$QAU2@@Z ENDP ; std::_Cons_val<std::allocator<GroupDummyInfo>,GroupDummyInfo,GroupDummyInfo>
_TEXT	ENDS
PUBLIC	??0?$vector@VioHashString@@V?$allocator@VioHashString@@@std@@@std@@QAE@XZ ; std::vector<ioHashString,std::allocator<ioHashString> >::vector<ioHashString,std::allocator<ioHashString> >
; Function compile flags: /Ogsp
; File c:\program files (x86)\microsoft visual studio 10.0\vc\include\vector
;	COMDAT ??0?$vector@VioHashString@@V?$allocator@VioHashString@@@std@@@std@@QAE@XZ
_TEXT	SEGMENT
??0?$vector@VioHashString@@V?$allocator@VioHashString@@@std@@@std@@QAE@XZ PROC ; std::vector<ioHashString,std::allocator<ioHashString> >::vector<ioHashString,std::allocator<ioHashString> >, COMDAT
; _this$ = ecx

; 507  : 		{	// construct empty vector

  00000	8b c1		 mov	 eax, ecx
  00002	33 c9		 xor	 ecx, ecx
  00004	89 08		 mov	 DWORD PTR [eax], ecx
  00006	89 48 04	 mov	 DWORD PTR [eax+4], ecx
  00009	89 48 08	 mov	 DWORD PTR [eax+8], ecx

; 508  : 		}

  0000c	c3		 ret	 0
??0?$vector@VioHashString@@V?$allocator@VioHashString@@@std@@@std@@QAE@XZ ENDP ; std::vector<ioHashString,std::allocator<ioHashString> >::vector<ioHashString,std::allocator<ioHashString> >
_TEXT	ENDS
PUBLIC	??0?$CEncrypt@M@@QAE@ABV0@@Z			; CEncrypt<float>::CEncrypt<float>
;	COMDAT xdata$x
; File d:\lost saga for developer\youtube\tutorial\source\src\lsclient\encryptvalue.h
xdata$x	SEGMENT
__unwindtable$??0?$CEncrypt@M@@QAE@ABV0@@Z DD 0ffffffffH
	DD	FLAT:__unwindfunclet$??0?$CEncrypt@M@@QAE@ABV0@@Z$0
__ehfuncinfo$??0?$CEncrypt@M@@QAE@ABV0@@Z DD 019930522H
	DD	01H
	DD	FLAT:__unwindtable$??0?$CEncrypt@M@@QAE@ABV0@@Z
	DD	2 DUP(00H)
	DD	2 DUP(00H)
	DD	00H
	DD	01H
; Function compile flags: /Ogsp
xdata$x	ENDS
;	COMDAT ??0?$CEncrypt@M@@QAE@ABV0@@Z
_TEXT	SEGMENT
_this$ = -16						; size = 4
__$EHRec$ = -12						; size = 12
_value$555648 = 8					; size = 4
_value$555643 = 8					; size = 4
_inValue$ = 8						; size = 4
??0?$CEncrypt@M@@QAE@ABV0@@Z PROC			; CEncrypt<float>::CEncrypt<float>, COMDAT
; _this$ = ecx

; 120  : 	CEncrypt( const CEncrypt<type> &inValue )   //     

  00000	6a 04		 push	 4
  00002	b8 00 00 00 00	 mov	 eax, __ehhandler$??0?$CEncrypt@M@@QAE@ABV0@@Z
  00007	e8 00 00 00 00	 call	 __EH_prolog3
  0000c	8b f1		 mov	 esi, ecx
  0000e	89 75 f0	 mov	 DWORD PTR _this$[ebp], esi
  00011	8d 4e 0c	 lea	 ecx, DWORD PTR [esi+12]
  00014	c7 06 00 00 00
	00		 mov	 DWORD PTR [esi], OFFSET ??_7?$CEncrypt@M@@6B@
  0001a	e8 00 00 00 00	 call	 ??0ccddaabb@@QAE@XZ	; ccddaabb::ccddaabb
  0001f	83 65 fc 00	 and	 DWORD PTR __$EHRec$[ebp+8], 0

; 121  : 	{
; 122  : 		Init();

  00023	8b ce		 mov	 ecx, esi
  00025	e8 00 00 00 00	 call	 ?Init@?$CEncrypt@M@@AAEXXZ ; CEncrypt<float>::Init

; 123  : 		*this = inValue;

  0002a	8b 4d 08	 mov	 ecx, DWORD PTR _inValue$[ebp]
  0002d	8d 45 08	 lea	 eax, DWORD PTR _value$555643[ebp]
  00030	50		 push	 eax
  00031	e8 00 00 00 00	 call	 ?DecryptValueToPool@?$CEncrypt@M@@QAEXPAM@Z ; CEncrypt<float>::DecryptValueToPool
  00036	f3 0f 10 45 08	 movss	 xmm0, DWORD PTR _value$555643[ebp]
  0003b	8d 45 08	 lea	 eax, DWORD PTR _value$555648[ebp]
  0003e	50		 push	 eax
  0003f	8b ce		 mov	 ecx, esi
  00041	f3 0f 11 45 08	 movss	 DWORD PTR _value$555648[ebp], xmm0
  00046	e8 00 00 00 00	 call	 ?EncryptValueToPool@?$CEncrypt@M@@AAEXPBD@Z ; CEncrypt<float>::EncryptValueToPool

; 124  : 	}

  0004b	8b c6		 mov	 eax, esi
  0004d	e8 00 00 00 00	 call	 __EH_epilog3
  00052	c2 04 00	 ret	 4
_TEXT	ENDS
;	COMDAT text$x
text$x	SEGMENT
__unwindfunclet$??0?$CEncrypt@M@@QAE@ABV0@@Z$0:
  00000	8b 4d f0	 mov	 ecx, DWORD PTR _this$[ebp]
  00003	83 c1 0c	 add	 ecx, 12			; 0000000cH
  00006	e9 00 00 00 00	 jmp	 ??1ccddaabb@@UAE@XZ	; ccddaabb::~ccddaabb
__ehhandler$??0?$CEncrypt@M@@QAE@ABV0@@Z:
  0000b	8b 54 24 08	 mov	 edx, DWORD PTR [esp+8]
  0000f	8d 42 0c	 lea	 eax, DWORD PTR [edx+12]
  00012	8b 4a ec	 mov	 ecx, DWORD PTR [edx-20]
  00015	33 c8		 xor	 ecx, eax
  00017	e8 00 00 00 00	 call	 @__security_check_cookie@4
  0001c	b8 00 00 00 00	 mov	 eax, OFFSET __ehfuncinfo$??0?$CEncrypt@M@@QAE@ABV0@@Z
  00021	e9 00 00 00 00	 jmp	 ___CxxFrameHandler3
text$x	ENDS
??0?$CEncrypt@M@@QAE@ABV0@@Z ENDP			; CEncrypt<float>::CEncrypt<float>
PUBLIC	?_Buy@?$vector@VioHashString@@V?$allocator@VioHashString@@@std@@@std@@IAE_NI@Z ; std::vector<ioHashString,std::allocator<ioHashString> >::_Buy
; Function compile flags: /Ogsp
; File c:\program files (x86)\microsoft visual studio 10.0\vc\include\vector
;	COMDAT ?_Buy@?$vector@VioHashString@@V?$allocator@VioHashString@@@std@@@std@@IAE_NI@Z
_TEXT	SEGMENT
__Capacity$ = 8						; size = 4
?_Buy@?$vector@VioHashString@@V?$allocator@VioHashString@@@std@@@std@@IAE_NI@Z PROC ; std::vector<ioHashString,std::allocator<ioHashString> >::_Buy, COMDAT
; _this$ = ecx

; 1250 : 		{	// allocate array with _Capacity elements

  00000	55		 push	 ebp
  00001	8b ec		 mov	 ebp, esp
  00003	56		 push	 esi

; 1251 : 		this->_Myfirst = 0;

  00004	33 c0		 xor	 eax, eax
  00006	57		 push	 edi

; 1252 : 		this->_Mylast = 0;
; 1253 : 		this->_Myend = 0;
; 1254 : 
; 1255 : 		if (_Capacity == 0)

  00007	8b 7d 08	 mov	 edi, DWORD PTR __Capacity$[ebp]
  0000a	8b f1		 mov	 esi, ecx
  0000c	89 06		 mov	 DWORD PTR [esi], eax
  0000e	89 46 04	 mov	 DWORD PTR [esi+4], eax
  00011	89 46 08	 mov	 DWORD PTR [esi+8], eax
  00014	3b f8		 cmp	 edi, eax
  00016	75 04		 jne	 SHORT $LN4@Buy@2

; 1256 : 			return (false);

  00018	32 c0		 xor	 al, al
  0001a	eb 2b		 jmp	 SHORT $LN5@Buy@2
$LN4@Buy@2:

; 1257 : 		else if (max_size() < _Capacity)

  0001c	81 ff ff ff ff
	0f		 cmp	 edi, 268435455		; 0fffffffH
  00022	76 0b		 jbe	 SHORT $LN2@Buy@2

; 1258 : 			_Xlen();	// result too long

  00024	68 00 00 00 00	 push	 OFFSET ??_C@_0BD@OLBABOEK@vector?$DMT?$DO?5too?5long?$AA@
  00029	ff 15 00 00 00
	00		 call	 DWORD PTR __imp_?_Xlength_error@std@@YAXPBD@Z
$LN19@Buy@2:
$LN2@Buy@2:

; 1259 : 		else
; 1260 : 			{	// nonempty array, allocate storage
; 1261 : 			this->_Myfirst = this->_Alval.allocate(_Capacity);

  0002f	50		 push	 eax
  00030	57		 push	 edi
  00031	e8 00 00 00 00	 call	 ??$_Allocate@VioHashString@@@std@@YAPAVioHashString@@IPAV1@@Z ; std::_Allocate<ioHashString>

; 1262 : 			this->_Mylast = this->_Myfirst;
; 1263 : 			this->_Myend = this->_Myfirst + _Capacity;

  00036	c1 e7 04	 shl	 edi, 4
  00039	03 f8		 add	 edi, eax
  0003b	59		 pop	 ecx
  0003c	89 06		 mov	 DWORD PTR [esi], eax
  0003e	89 46 04	 mov	 DWORD PTR [esi+4], eax
  00041	59		 pop	 ecx
  00042	89 7e 08	 mov	 DWORD PTR [esi+8], edi

; 1264 : 			}
; 1265 : 		return (true);

  00045	b0 01		 mov	 al, 1
$LN5@Buy@2:
  00047	5f		 pop	 edi
  00048	5e		 pop	 esi

; 1266 : 		}

  00049	5d		 pop	 ebp
  0004a	c2 04 00	 ret	 4
$LN18@Buy@2:
?_Buy@?$vector@VioHashString@@V?$allocator@VioHashString@@@std@@@std@@IAE_NI@Z ENDP ; std::vector<ioHashString,std::allocator<ioHashString> >::_Buy
_TEXT	ENDS
PUBLIC	?_Destroy@?$vector@PAVioDummyChar@@V?$allocator@PAVioDummyChar@@@std@@@std@@IAEXPAPAVioDummyChar@@0@Z ; std::vector<ioDummyChar *,std::allocator<ioDummyChar *> >::_Destroy
; Function compile flags: /Ogsp
;	COMDAT ?_Destroy@?$vector@PAVioDummyChar@@V?$allocator@PAVioDummyChar@@@std@@@std@@IAEXPAPAVioDummyChar@@0@Z
_TEXT	SEGMENT
__First$ = 8						; size = 4
__Last$ = 12						; size = 4
?_Destroy@?$vector@PAVioDummyChar@@V?$allocator@PAVioDummyChar@@@std@@@std@@IAEXPAPAVioDummyChar@@0@Z PROC ; std::vector<ioDummyChar *,std::allocator<ioDummyChar *> >::_Destroy, COMDAT
; _this$ = ecx

; 1270 : 		_Destroy_range(_First, _Last, this->_Alval);
; 1271 : 		}

  00000	c2 08 00	 ret	 8
?_Destroy@?$vector@PAVioDummyChar@@V?$allocator@PAVioDummyChar@@@std@@@std@@IAEXPAPAVioDummyChar@@0@Z ENDP ; std::vector<ioDummyChar *,std::allocator<ioDummyChar *> >::_Destroy
_TEXT	ENDS
PUBLIC	??9?$_Vector_const_iterator@V?$_Vector_val@VioHashString@@V?$allocator@VioHashString@@@std@@@std@@@std@@QBE_NABV01@@Z ; std::_Vector_const_iterator<std::_Vector_val<ioHashString,std::allocator<ioHashString> > >::operator!=
; Function compile flags: /Ogsp
;	COMDAT ??9?$_Vector_const_iterator@V?$_Vector_val@VioHashString@@V?$allocator@VioHashString@@@std@@@std@@@std@@QBE_NABV01@@Z
_TEXT	SEGMENT
__Right$ = 8						; size = 4
??9?$_Vector_const_iterator@V?$_Vector_val@VioHashString@@V?$allocator@VioHashString@@@std@@@std@@@std@@QBE_NABV01@@Z PROC ; std::_Vector_const_iterator<std::_Vector_val<ioHashString,std::allocator<ioHashString> > >::operator!=, COMDAT
; _this$ = ecx

; 207  : 		{	// test for iterator inequality

  00000	55		 push	 ebp
  00001	8b ec		 mov	 ebp, esp

; 208  : 		return (!(*this == _Right));

  00003	8b 01		 mov	 eax, DWORD PTR [ecx]
  00005	8b 55 08	 mov	 edx, DWORD PTR __Right$[ebp]
  00008	33 c9		 xor	 ecx, ecx
  0000a	3b 02		 cmp	 eax, DWORD PTR [edx]
  0000c	0f 95 c0	 setne	 al

; 209  : 		}

  0000f	5d		 pop	 ebp
  00010	c2 04 00	 ret	 4
??9?$_Vector_const_iterator@V?$_Vector_val@VioHashString@@V?$allocator@VioHashString@@@std@@@std@@@std@@QBE_NABV01@@Z ENDP ; std::_Vector_const_iterator<std::_Vector_val<ioHashString,std::allocator<ioHashString> > >::operator!=
_TEXT	ENDS
PUBLIC	?destroy@?$allocator@VioHashString@@@std@@QAEXPAVioHashString@@@Z ; std::allocator<ioHashString>::destroy
; Function compile flags: /Ogsp
; File c:\program files (x86)\microsoft visual studio 10.0\vc\include\xmemory
;	COMDAT ?destroy@?$allocator@VioHashString@@@std@@QAEXPAVioHashString@@@Z
_TEXT	SEGMENT
__Ptr$ = 8						; size = 4
?destroy@?$allocator@VioHashString@@@std@@QAEXPAVioHashString@@@Z PROC ; std::allocator<ioHashString>::destroy, COMDAT
; _this$ = ecx

; 212  : 		{	// destroy object at _Ptr

  00000	55		 push	 ebp
  00001	8b ec		 mov	 ebp, esp

; 213  : 		_Destroy(_Ptr);

  00003	8b 4d 08	 mov	 ecx, DWORD PTR __Ptr$[ebp]
  00006	ff 15 00 00 00
	00		 call	 DWORD PTR __imp_??1ioHashString@@QAE@XZ

; 214  : 		}

  0000c	5d		 pop	 ebp
  0000d	c2 04 00	 ret	 4
?destroy@?$allocator@VioHashString@@@std@@QAEXPAVioHashString@@@Z ENDP ; std::allocator<ioHashString>::destroy
_TEXT	ENDS
PUBLIC	??9?$_Vector_const_iterator@V?$_Vector_val@PAVioDummyChar@@V?$allocator@PAVioDummyChar@@@std@@@std@@@std@@QBE_NABV01@@Z ; std::_Vector_const_iterator<std::_Vector_val<ioDummyChar *,std::allocator<ioDummyChar *> > >::operator!=
; Function compile flags: /Ogsp
; File c:\program files (x86)\microsoft visual studio 10.0\vc\include\vector
;	COMDAT ??9?$_Vector_const_iterator@V?$_Vector_val@PAVioDummyChar@@V?$allocator@PAVioDummyChar@@@std@@@std@@@std@@QBE_NABV01@@Z
_TEXT	SEGMENT
__Right$ = 8						; size = 4
??9?$_Vector_const_iterator@V?$_Vector_val@PAVioDummyChar@@V?$allocator@PAVioDummyChar@@@std@@@std@@@std@@QBE_NABV01@@Z PROC ; std::_Vector_const_iterator<std::_Vector_val<ioDummyChar *,std::allocator<ioDummyChar *> > >::operator!=, COMDAT
; _this$ = ecx

; 207  : 		{	// test for iterator inequality

  00000	55		 push	 ebp
  00001	8b ec		 mov	 ebp, esp

; 208  : 		return (!(*this == _Right));

  00003	8b 01		 mov	 eax, DWORD PTR [ecx]
  00005	8b 55 08	 mov	 edx, DWORD PTR __Right$[ebp]
  00008	33 c9		 xor	 ecx, ecx
  0000a	3b 02		 cmp	 eax, DWORD PTR [edx]
  0000c	0f 95 c0	 setne	 al

; 209  : 		}

  0000f	5d		 pop	 ebp
  00010	c2 04 00	 ret	 4
??9?$_Vector_const_iterator@V?$_Vector_val@PAVioDummyChar@@V?$allocator@PAVioDummyChar@@@std@@@std@@@std@@QBE_NABV01@@Z ENDP ; std::_Vector_const_iterator<std::_Vector_val<ioDummyChar *,std::allocator<ioDummyChar *> > >::operator!=
_TEXT	ENDS
PUBLIC	??$_Cons_val@V?$allocator@VioHashString@@@std@@VioHashString@@ABV3@@std@@YAXAAV?$allocator@VioHashString@@@0@PAVioHashString@@ABV2@@Z ; std::_Cons_val<std::allocator<ioHashString>,ioHashString,ioHashString const &>
; Function compile flags: /Ogsp
; File c:\program files (x86)\microsoft visual studio 10.0\vc\include\xmemory
;	COMDAT ??$_Cons_val@V?$allocator@VioHashString@@@std@@VioHashString@@ABV3@@std@@YAXAAV?$allocator@VioHashString@@@0@PAVioHashString@@ABV2@@Z
_TEXT	SEGMENT
__Alval$ = 8						; size = 4
__Pdest$ = 12						; size = 4
__Src$ = 16						; size = 4
??$_Cons_val@V?$allocator@VioHashString@@@std@@VioHashString@@ABV3@@std@@YAXAAV?$allocator@VioHashString@@@0@PAVioHashString@@ABV2@@Z PROC ; std::_Cons_val<std::allocator<ioHashString>,ioHashString,ioHashString const &>, COMDAT

; 279  : 	{	// construct using allocator

  00000	55		 push	 ebp
  00001	8b ec		 mov	 ebp, esp

; 280  : 	_Alval.construct(_Pdest, _STD forward<_Ty2>(_Src));

  00003	ff 75 10	 push	 DWORD PTR __Src$[ebp]
  00006	ff 75 0c	 push	 DWORD PTR __Pdest$[ebp]
  00009	e8 00 00 00 00	 call	 ??$_Construct@VioHashString@@ABV1@@std@@YAXPAVioHashString@@ABV1@@Z ; std::_Construct<ioHashString,ioHashString const &>
  0000e	59		 pop	 ecx
  0000f	59		 pop	 ecx

; 281  : 	}

  00010	5d		 pop	 ebp
  00011	c3		 ret	 0
??$_Cons_val@V?$allocator@VioHashString@@@std@@VioHashString@@ABV3@@std@@YAXAAV?$allocator@VioHashString@@@0@PAVioHashString@@ABV2@@Z ENDP ; std::_Cons_val<std::allocator<ioHashString>,ioHashString,ioHashString const &>
_TEXT	ENDS
PUBLIC	??$_Cons_val@V?$allocator@UGroupDummyInfo@@@std@@UGroupDummyInfo@@ABU3@@std@@YAXAAV?$allocator@UGroupDummyInfo@@@0@PAUGroupDummyInfo@@ABU2@@Z ; std::_Cons_val<std::allocator<GroupDummyInfo>,GroupDummyInfo,GroupDummyInfo const &>
; Function compile flags: /Ogsp
;	COMDAT ??$_Cons_val@V?$allocator@UGroupDummyInfo@@@std@@UGroupDummyInfo@@ABU3@@std@@YAXAAV?$allocator@UGroupDummyInfo@@@0@PAUGroupDummyInfo@@ABU2@@Z
_TEXT	SEGMENT
__Alval$ = 8						; size = 4
__Pdest$ = 12						; size = 4
__Src$ = 16						; size = 4
??$_Cons_val@V?$allocator@UGroupDummyInfo@@@std@@UGroupDummyInfo@@ABU3@@std@@YAXAAV?$allocator@UGroupDummyInfo@@@0@PAUGroupDummyInfo@@ABU2@@Z PROC ; std::_Cons_val<std::allocator<GroupDummyInfo>,GroupDummyInfo,GroupDummyInfo const &>, COMDAT

; 279  : 	{	// construct using allocator

  00000	55		 push	 ebp
  00001	8b ec		 mov	 ebp, esp

; 280  : 	_Alval.construct(_Pdest, _STD forward<_Ty2>(_Src));

  00003	ff 75 10	 push	 DWORD PTR __Src$[ebp]
  00006	ff 75 0c	 push	 DWORD PTR __Pdest$[ebp]
  00009	e8 00 00 00 00	 call	 ??$_Construct@UGroupDummyInfo@@ABU1@@std@@YAXPAUGroupDummyInfo@@ABU1@@Z ; std::_Construct<GroupDummyInfo,GroupDummyInfo const &>
  0000e	59		 pop	 ecx
  0000f	59		 pop	 ecx

; 281  : 	}

  00010	5d		 pop	 ebp
  00011	c3		 ret	 0
??$_Cons_val@V?$allocator@UGroupDummyInfo@@@std@@UGroupDummyInfo@@ABU3@@std@@YAXAAV?$allocator@UGroupDummyInfo@@@0@PAUGroupDummyInfo@@ABU2@@Z ENDP ; std::_Cons_val<std::allocator<GroupDummyInfo>,GroupDummyInfo,GroupDummyInfo const &>
_TEXT	ENDS
PUBLIC	??$_Dest_val@V?$allocator@UGroupDummyInfo@@@std@@UGroupDummyInfo@@@std@@YAXAAV?$allocator@UGroupDummyInfo@@@0@PAUGroupDummyInfo@@@Z ; std::_Dest_val<std::allocator<GroupDummyInfo>,GroupDummyInfo>
; Function compile flags: /Ogsp
;	COMDAT ??$_Dest_val@V?$allocator@UGroupDummyInfo@@@std@@UGroupDummyInfo@@@std@@YAXAAV?$allocator@UGroupDummyInfo@@@0@PAUGroupDummyInfo@@@Z
_TEXT	SEGMENT
__Alval$ = 8						; size = 4
__Pdest$ = 12						; size = 4
??$_Dest_val@V?$allocator@UGroupDummyInfo@@@std@@UGroupDummyInfo@@@std@@YAXAAV?$allocator@UGroupDummyInfo@@@0@PAUGroupDummyInfo@@@Z PROC ; std::_Dest_val<std::allocator<GroupDummyInfo>,GroupDummyInfo>, COMDAT

; 286  : 	{	// destroy using allocator

  00000	55		 push	 ebp
  00001	8b ec		 mov	 ebp, esp

; 287  : 	_Alval.destroy(_Pdest);

  00003	8b 4d 0c	 mov	 ecx, DWORD PTR __Pdest$[ebp]

; 288  : 	}

  00006	5d		 pop	 ebp

; 287  : 	_Alval.destroy(_Pdest);

  00007	ff 25 00 00 00
	00		 jmp	 DWORD PTR __imp_??1ioHashString@@QAE@XZ
??$_Dest_val@V?$allocator@UGroupDummyInfo@@@std@@UGroupDummyInfo@@@std@@YAXAAV?$allocator@UGroupDummyInfo@@@0@PAUGroupDummyInfo@@@Z ENDP ; std::_Dest_val<std::allocator<GroupDummyInfo>,GroupDummyInfo>
_TEXT	ENDS
PUBLIC	?_Tidy@?$vector@PAVioDummyChar@@V?$allocator@PAVioDummyChar@@@std@@@std@@IAEXXZ ; std::vector<ioDummyChar *,std::allocator<ioDummyChar *> >::_Tidy
EXTRN	__imp_?_Orphan_all@_Container_base0@std@@QAEXXZ:PROC
; Function compile flags: /Ogsp
; File c:\program files (x86)\microsoft visual studio 10.0\vc\include\vector
;	COMDAT ?_Tidy@?$vector@PAVioDummyChar@@V?$allocator@PAVioDummyChar@@@std@@@std@@IAEXXZ
_TEXT	SEGMENT
?_Tidy@?$vector@PAVioDummyChar@@V?$allocator@PAVioDummyChar@@@std@@@std@@IAEXXZ PROC ; std::vector<ioDummyChar *,std::allocator<ioDummyChar *> >::_Tidy, COMDAT
; _this$ = ecx

; 1301 : 		{	// free all storage

  00000	56		 push	 esi
  00001	8b f1		 mov	 esi, ecx

; 1302 : 		if (this->_Myfirst != 0)

  00003	83 3e 00	 cmp	 DWORD PTR [esi], 0
  00006	74 0e		 je	 SHORT $LN12@Tidy

; 1303 : 			{	// something to free, destroy and deallocate it
; 1304 : 			this->_Orphan_all();

  00008	ff 15 00 00 00
	00		 call	 DWORD PTR __imp_?_Orphan_all@_Container_base0@std@@QAEXXZ

; 1305 : 			_Destroy(this->_Myfirst, this->_Mylast);
; 1306 : 			this->_Alval.deallocate(this->_Myfirst,
; 1307 : 				this->_Myend - this->_Myfirst);

  0000e	ff 36		 push	 DWORD PTR [esi]
  00010	e8 00 00 00 00	 call	 ??3@YAXPAX@Z		; operator delete
  00015	59		 pop	 ecx
$LN12@Tidy:

; 1308 : 			}
; 1309 : 		this->_Myfirst = 0;

  00016	83 26 00	 and	 DWORD PTR [esi], 0

; 1310 : 		this->_Mylast = 0;

  00019	83 66 04 00	 and	 DWORD PTR [esi+4], 0

; 1311 : 		this->_Myend = 0;

  0001d	83 66 08 00	 and	 DWORD PTR [esi+8], 0
  00021	5e		 pop	 esi

; 1312 : 		}

  00022	c3		 ret	 0
?_Tidy@?$vector@PAVioDummyChar@@V?$allocator@PAVioDummyChar@@@std@@@std@@IAEXXZ ENDP ; std::vector<ioDummyChar *,std::allocator<ioDummyChar *> >::_Tidy
_TEXT	ENDS
PUBLIC	??$_Dest_val@V?$allocator@VioHashString@@@std@@VioHashString@@@std@@YAXAAV?$allocator@VioHashString@@@0@PAVioHashString@@@Z ; std::_Dest_val<std::allocator<ioHashString>,ioHashString>
; Function compile flags: /Ogsp
; File c:\program files (x86)\microsoft visual studio 10.0\vc\include\xmemory
;	COMDAT ??$_Dest_val@V?$allocator@VioHashString@@@std@@VioHashString@@@std@@YAXAAV?$allocator@VioHashString@@@0@PAVioHashString@@@Z
_TEXT	SEGMENT
__Alval$ = 8						; size = 4
__Pdest$ = 12						; size = 4
??$_Dest_val@V?$allocator@VioHashString@@@std@@VioHashString@@@std@@YAXAAV?$allocator@VioHashString@@@0@PAVioHashString@@@Z PROC ; std::_Dest_val<std::allocator<ioHashString>,ioHashString>, COMDAT

; 286  : 	{	// destroy using allocator

  00000	55		 push	 ebp
  00001	8b ec		 mov	 ebp, esp

; 287  : 	_Alval.destroy(_Pdest);

  00003	8b 4d 0c	 mov	 ecx, DWORD PTR __Pdest$[ebp]

; 288  : 	}

  00006	5d		 pop	 ebp

; 287  : 	_Alval.destroy(_Pdest);

  00007	ff 25 00 00 00
	00		 jmp	 DWORD PTR __imp_??1ioHashString@@QAE@XZ
??$_Dest_val@V?$allocator@VioHashString@@@std@@VioHashString@@@std@@YAXAAV?$allocator@VioHashString@@@0@PAVioHashString@@@Z ENDP ; std::_Dest_val<std::allocator<ioHashString>,ioHashString>
_TEXT	ENDS
PUBLIC	??$_Destroy_range@V?$allocator@UGroupDummyInfo@@@std@@@std@@YAXPAUGroupDummyInfo@@0AAV?$allocator@UGroupDummyInfo@@@0@U_Nonscalar_ptr_iterator_tag@0@@Z ; std::_Destroy_range<std::allocator<GroupDummyInfo> >
; Function compile flags: /Ogsp
;	COMDAT ??$_Destroy_range@V?$allocator@UGroupDummyInfo@@@std@@@std@@YAXPAUGroupDummyInfo@@0AAV?$allocator@UGroupDummyInfo@@@0@U_Nonscalar_ptr_iterator_tag@0@@Z
_TEXT	SEGMENT
__First$ = 8						; size = 4
__Last$ = 12						; size = 4
__Al$ = 16						; size = 4
___formal$ = 20						; size = 1
??$_Destroy_range@V?$allocator@UGroupDummyInfo@@@std@@@std@@YAXPAUGroupDummyInfo@@0AAV?$allocator@UGroupDummyInfo@@@0@U_Nonscalar_ptr_iterator_tag@0@@Z PROC ; std::_Destroy_range<std::allocator<GroupDummyInfo> >, COMDAT

; 95   : 	{	// destroy [_First, _Last), arbitrary type

  00000	55		 push	 ebp
  00001	8b ec		 mov	 ebp, esp
  00003	56		 push	 esi

; 96   : 	for (; _First != _Last; ++_First)

  00004	8b 75 08	 mov	 esi, DWORD PTR __First$[ebp]
  00007	eb 0b		 jmp	 SHORT $LN20@Destroy_ra
$LL3@Destroy_ra:

; 97   : 		_Dest_val(_Al, _First);

  00009	8b ce		 mov	 ecx, esi
  0000b	ff 15 00 00 00
	00		 call	 DWORD PTR __imp_??1ioHashString@@QAE@XZ
  00011	83 c6 14	 add	 esi, 20			; 00000014H
$LN20@Destroy_ra:

; 96   : 	for (; _First != _Last; ++_First)

  00014	3b 75 0c	 cmp	 esi, DWORD PTR __Last$[ebp]
  00017	75 f0		 jne	 SHORT $LL3@Destroy_ra
  00019	5e		 pop	 esi

; 98   : 	}

  0001a	5d		 pop	 ebp
  0001b	c3		 ret	 0
??$_Destroy_range@V?$allocator@UGroupDummyInfo@@@std@@@std@@YAXPAUGroupDummyInfo@@0AAV?$allocator@UGroupDummyInfo@@@0@U_Nonscalar_ptr_iterator_tag@0@@Z ENDP ; std::_Destroy_range<std::allocator<GroupDummyInfo> >
_TEXT	ENDS
PUBLIC	??$_Uninit_copy@V?$_Vector_const_iterator@V?$_Vector_val@UGroupDummyInfo@@V?$allocator@UGroupDummyInfo@@@std@@@std@@@std@@PAUGroupDummyInfo@@V?$allocator@UGroupDummyInfo@@@2@@std@@YAPAUGroupDummyInfo@@V?$_Vector_const_iterator@V?$_Vector_val@UGroupDummyInfo@@V?$allocator@UGroupDummyInfo@@@std@@@std@@@0@0PAU1@AAV?$allocator@UGroupDummyInfo@@@0@U_Nonscalar_ptr_iterator_tag@0@@Z ; std::_Uninit_copy<std::_Vector_const_iterator<std::_Vector_val<GroupDummyInfo,std::allocator<GroupDummyInfo> > >,GroupDummyInfo *,std::allocator<GroupDummyInfo> >
EXTRN	__EH_prolog3_catch:PROC
;	COMDAT xdata$x
; File d:\lost saga for developer\youtube\tutorial\source\src\lsclient\ioengineeritem.cpp
xdata$x	SEGMENT
__catchsym$??$_Uninit_copy@V?$_Vector_const_iterator@V?$_Vector_val@UGroupDummyInfo@@V?$allocator@UGroupDummyInfo@@@std@@@std@@@std@@PAUGroupDummyInfo@@V?$allocator@UGroupDummyInfo@@@2@@std@@YAPAUGroupDummyInfo@@V?$_Vector_const_iterator@V?$_Vector_val@UGroupDummyInfo@@V?$allocator@UGroupDummyInfo@@@std@@@std@@@0@0PAU1@AAV?$allocator@UGroupDummyInfo@@@0@U_Nonscalar_ptr_iterator_tag@0@@Z$3 DD 040H
	DD	00H
	DD	00H
	DD	FLAT:__catch$??$_Uninit_copy@V?$_Vector_const_iterator@V?$_Vector_val@UGroupDummyInfo@@V?$allocator@UGroupDummyInfo@@@std@@@std@@@std@@PAUGroupDummyInfo@@V?$allocator@UGroupDummyInfo@@@2@@std@@YAPAUGroupDummyInfo@@V?$_Vector_const_iterator@V?$_Vector_val@UGroupDummyInfo@@V?$allocator@UGroupDummyInfo@@@std@@@std@@@0@0PAU1@AAV?$allocator@UGroupDummyInfo@@@0@U_Nonscalar_ptr_iterator_tag@0@@Z$0
__unwindtable$??$_Uninit_copy@V?$_Vector_const_iterator@V?$_Vector_val@UGroupDummyInfo@@V?$allocator@UGroupDummyInfo@@@std@@@std@@@std@@PAUGroupDummyInfo@@V?$allocator@UGroupDummyInfo@@@2@@std@@YAPAUGroupDummyInfo@@V?$_Vector_const_iterator@V?$_Vector_val@UGroupDummyInfo@@V?$allocator@UGroupDummyInfo@@@std@@@std@@@0@0PAU1@AAV?$allocator@UGroupDummyInfo@@@0@U_Nonscalar_ptr_iterator_tag@0@@Z DD 0ffffffffH
	DD	00H
	DD	0ffffffffH
	DD	00H
__tryblocktable$??$_Uninit_copy@V?$_Vector_const_iterator@V?$_Vector_val@UGroupDummyInfo@@V?$allocator@UGroupDummyInfo@@@std@@@std@@@std@@PAUGroupDummyInfo@@V?$allocator@UGroupDummyInfo@@@2@@std@@YAPAUGroupDummyInfo@@V?$_Vector_const_iterator@V?$_Vector_val@UGroupDummyInfo@@V?$allocator@UGroupDummyInfo@@@std@@@std@@@0@0PAU1@AAV?$allocator@UGroupDummyInfo@@@0@U_Nonscalar_ptr_iterator_tag@0@@Z DD 00H
	DD	00H
	DD	01H
	DD	01H
	DD	FLAT:__catchsym$??$_Uninit_copy@V?$_Vector_const_iterator@V?$_Vector_val@UGroupDummyInfo@@V?$allocator@UGroupDummyInfo@@@std@@@std@@@std@@PAUGroupDummyInfo@@V?$allocator@UGroupDummyInfo@@@2@@std@@YAPAUGroupDummyInfo@@V?$_Vector_const_iterator@V?$_Vector_val@UGroupDummyInfo@@V?$allocator@UGroupDummyInfo@@@std@@@std@@@0@0PAU1@AAV?$allocator@UGroupDummyInfo@@@0@U_Nonscalar_ptr_iterator_tag@0@@Z$3
__ehfuncinfo$??$_Uninit_copy@V?$_Vector_const_iterator@V?$_Vector_val@UGroupDummyInfo@@V?$allocator@UGroupDummyInfo@@@std@@@std@@@std@@PAUGroupDummyInfo@@V?$allocator@UGroupDummyInfo@@@2@@std@@YAPAUGroupDummyInfo@@V?$_Vector_const_iterator@V?$_Vector_val@UGroupDummyInfo@@V?$allocator@UGroupDummyInfo@@@std@@@std@@@0@0PAU1@AAV?$allocator@UGroupDummyInfo@@@0@U_Nonscalar_ptr_iterator_tag@0@@Z DD 019930522H
	DD	02H
	DD	FLAT:__unwindtable$??$_Uninit_copy@V?$_Vector_const_iterator@V?$_Vector_val@UGroupDummyInfo@@V?$allocator@UGroupDummyInfo@@@std@@@std@@@std@@PAUGroupDummyInfo@@V?$allocator@UGroupDummyInfo@@@2@@std@@YAPAUGroupDummyInfo@@V?$_Vector_const_iterator@V?$_Vector_val@UGroupDummyInfo@@V?$allocator@UGroupDummyInfo@@@std@@@std@@@0@0PAU1@AAV?$allocator@UGroupDummyInfo@@@0@U_Nonscalar_ptr_iterator_tag@0@@Z
	DD	01H
	DD	FLAT:__tryblocktable$??$_Uninit_copy@V?$_Vector_const_iterator@V?$_Vector_val@UGroupDummyInfo@@V?$allocator@UGroupDummyInfo@@@std@@@std@@@std@@PAUGroupDummyInfo@@V?$allocator@UGroupDummyInfo@@@2@@std@@YAPAUGroupDummyInfo@@V?$_Vector_const_iterator@V?$_Vector_val@UGroupDummyInfo@@V?$allocator@UGroupDummyInfo@@@std@@@std@@@0@0PAU1@AAV?$allocator@UGroupDummyInfo@@@0@U_Nonscalar_ptr_iterator_tag@0@@Z
	DD	2 DUP(00H)
	DD	00H
	DD	01H
; Function compile flags: /Ogsp
; File c:\program files (x86)\microsoft visual studio 10.0\vc\include\memory
xdata$x	ENDS
;	COMDAT ??$_Uninit_copy@V?$_Vector_const_iterator@V?$_Vector_val@UGroupDummyInfo@@V?$allocator@UGroupDummyInfo@@@std@@@std@@@std@@PAUGroupDummyInfo@@V?$allocator@UGroupDummyInfo@@@2@@std@@YAPAUGroupDummyInfo@@V?$_Vector_const_iterator@V?$_Vector_val@UGroupDummyInfo@@V?$allocator@UGroupDummyInfo@@@std@@@std@@@0@0PAU1@AAV?$allocator@UGroupDummyInfo@@@0@U_Nonscalar_ptr_iterator_tag@0@@Z
_TEXT	SEGMENT
__Next$ = -20						; size = 4
__$EHRec$ = -16						; size = 16
__First$ = 8						; size = 4
__Last$ = 12						; size = 4
__Dest$ = 16						; size = 4
__Al$ = 20						; size = 4
___formal$ = 24						; size = 1
??$_Uninit_copy@V?$_Vector_const_iterator@V?$_Vector_val@UGroupDummyInfo@@V?$allocator@UGroupDummyInfo@@@std@@@std@@@std@@PAUGroupDummyInfo@@V?$allocator@UGroupDummyInfo@@@2@@std@@YAPAUGroupDummyInfo@@V?$_Vector_const_iterator@V?$_Vector_val@UGroupDummyInfo@@V?$allocator@UGroupDummyInfo@@@std@@@std@@@0@0PAU1@AAV?$allocator@UGroupDummyInfo@@@0@U_Nonscalar_ptr_iterator_tag@0@@Z PROC ; std::_Uninit_copy<std::_Vector_const_iterator<std::_Vector_val<GroupDummyInfo,std::allocator<GroupDummyInfo> > >,GroupDummyInfo *,std::allocator<GroupDummyInfo> >, COMDAT

; 369  : 	{	// copy [_First, _Last) to raw _Dest, using _Al, arbitrary type

  00000	6a 08		 push	 8
  00002	b8 00 00 00 00	 mov	 eax, __ehhandler$??$_Uninit_copy@V?$_Vector_const_iterator@V?$_Vector_val@UGroupDummyInfo@@V?$allocator@UGroupDummyInfo@@@std@@@std@@@std@@PAUGroupDummyInfo@@V?$allocator@UGroupDummyInfo@@@2@@std@@YAPAUGroupDummyInfo@@V?$_Vector_const_iterator@V?$_Vector_val@UGroupDummyInfo@@V?$allocator@UGroupDummyInfo@@@std@@@std@@@0@0PAU1@AAV?$allocator@UGroupDummyInfo@@@0@U_Nonscalar_ptr_iterator_tag@0@@Z
  00007	e8 00 00 00 00	 call	 __EH_prolog3_catch

; 370  : 	_DEBUG_RANGE(_First, _Last);
; 371  : 	_DEBUG_POINTER(_Dest);
; 372  : 	_FwdIt _Next = _Dest;

  0000c	8b 45 10	 mov	 eax, DWORD PTR __Dest$[ebp]

; 373  : 
; 374  : 	_TRY_BEGIN

  0000f	83 65 fc 00	 and	 DWORD PTR __$EHRec$[ebp+12], 0
  00013	89 45 ec	 mov	 DWORD PTR __Next$[ebp], eax

; 375  : 	for (; _First != _Last; ++_Dest, ++_First)

$LL14@Uninit_cop:
  00016	8b 45 08	 mov	 eax, DWORD PTR __First$[ebp]
  00019	3b 45 0c	 cmp	 eax, DWORD PTR __Last$[ebp]
  0001c	74 33		 je	 SHORT $LN4@Uninit_cop

; 376  : 		_Cons_val(_Al, _Dest, *_First);

  0001e	50		 push	 eax
  0001f	ff 75 10	 push	 DWORD PTR __Dest$[ebp]
  00022	e8 00 00 00 00	 call	 ??$_Construct@UGroupDummyInfo@@ABU1@@std@@YAXPAUGroupDummyInfo@@ABU1@@Z ; std::_Construct<GroupDummyInfo,GroupDummyInfo const &>
  00027	83 45 10 14	 add	 DWORD PTR __Dest$[ebp], 20 ; 00000014H
  0002b	83 45 08 14	 add	 DWORD PTR __First$[ebp], 20 ; 00000014H
  0002f	59		 pop	 ecx
  00030	59		 pop	 ecx
  00031	eb e3		 jmp	 SHORT $LL14@Uninit_cop
__catch$??$_Uninit_copy@V?$_Vector_const_iterator@V?$_Vector_val@UGroupDummyInfo@@V?$allocator@UGroupDummyInfo@@@std@@@std@@@std@@PAUGroupDummyInfo@@V?$allocator@UGroupDummyInfo@@@2@@std@@YAPAUGroupDummyInfo@@V?$_Vector_const_iterator@V?$_Vector_val@UGroupDummyInfo@@V?$allocator@UGroupDummyInfo@@@std@@@std@@@0@0PAU1@AAV?$allocator@UGroupDummyInfo@@@0@U_Nonscalar_ptr_iterator_tag@0@@Z$0:

; 377  : 	_CATCH_ALL
; 378  : 	for (; _Next != _Dest; ++_Next)

  00033	8b 75 ec	 mov	 esi, DWORD PTR __Next$[ebp]
  00036	eb 0b		 jmp	 SHORT $LN48@Uninit_cop
$LL3@Uninit_cop:

; 379  : 		_Dest_val(_Al, _Next);

  00038	8b ce		 mov	 ecx, esi
  0003a	ff 15 00 00 00
	00		 call	 DWORD PTR __imp_??1ioHashString@@QAE@XZ
  00040	83 c6 14	 add	 esi, 20			; 00000014H
$LN48@Uninit_cop:

; 377  : 	_CATCH_ALL
; 378  : 	for (; _Next != _Dest; ++_Next)

  00043	3b 75 10	 cmp	 esi, DWORD PTR __Dest$[ebp]
  00046	75 f0		 jne	 SHORT $LL3@Uninit_cop

; 380  : 	_RERAISE;

  00048	6a 00		 push	 0
  0004a	6a 00		 push	 0
  0004c	e8 00 00 00 00	 call	 __CxxThrowException@8
$LN49@Uninit_cop:
$LN4@Uninit_cop:

; 381  : 	_CATCH_END
; 382  : 	return (_Dest);

  00051	8b 45 10	 mov	 eax, DWORD PTR __Dest$[ebp]

; 383  : 	}

  00054	e8 00 00 00 00	 call	 __EH_epilog3
  00059	c3		 ret	 0
$LN47@Uninit_cop:
_TEXT	ENDS
;	COMDAT text$x
text$x	SEGMENT
__ehhandler$??$_Uninit_copy@V?$_Vector_const_iterator@V?$_Vector_val@UGroupDummyInfo@@V?$allocator@UGroupDummyInfo@@@std@@@std@@@std@@PAUGroupDummyInfo@@V?$allocator@UGroupDummyInfo@@@2@@std@@YAPAUGroupDummyInfo@@V?$_Vector_const_iterator@V?$_Vector_val@UGroupDummyInfo@@V?$allocator@UGroupDummyInfo@@@std@@@std@@@0@0PAU1@AAV?$allocator@UGroupDummyInfo@@@0@U_Nonscalar_ptr_iterator_tag@0@@Z:
  00000	8b 54 24 08	 mov	 edx, DWORD PTR [esp+8]
  00004	8d 42 0c	 lea	 eax, DWORD PTR [edx+12]
  00007	8b 4a e8	 mov	 ecx, DWORD PTR [edx-24]
  0000a	33 c8		 xor	 ecx, eax
  0000c	e8 00 00 00 00	 call	 @__security_check_cookie@4
  00011	b8 00 00 00 00	 mov	 eax, OFFSET __ehfuncinfo$??$_Uninit_copy@V?$_Vector_const_iterator@V?$_Vector_val@UGroupDummyInfo@@V?$allocator@UGroupDummyInfo@@@std@@@std@@@std@@PAUGroupDummyInfo@@V?$allocator@UGroupDummyInfo@@@2@@std@@YAPAUGroupDummyInfo@@V?$_Vector_const_iterator@V?$_Vector_val@UGroupDummyInfo@@V?$allocator@UGroupDummyInfo@@@std@@@std@@@0@0PAU1@AAV?$allocator@UGroupDummyInfo@@@0@U_Nonscalar_ptr_iterator_tag@0@@Z
  00016	e9 00 00 00 00	 jmp	 ___CxxFrameHandler3
text$x	ENDS
??$_Uninit_copy@V?$_Vector_const_iterator@V?$_Vector_val@UGroupDummyInfo@@V?$allocator@UGroupDummyInfo@@@std@@@std@@@std@@PAUGroupDummyInfo@@V?$allocator@UGroupDummyInfo@@@2@@std@@YAPAUGroupDummyInfo@@V?$_Vector_const_iterator@V?$_Vector_val@UGroupDummyInfo@@V?$allocator@UGroupDummyInfo@@@std@@@std@@@0@0PAU1@AAV?$allocator@UGroupDummyInfo@@@0@U_Nonscalar_ptr_iterator_tag@0@@Z ENDP ; std::_Uninit_copy<std::_Vector_const_iterator<std::_Vector_val<GroupDummyInfo,std::allocator<GroupDummyInfo> > >,GroupDummyInfo *,std::allocator<GroupDummyInfo> >
PUBLIC	??$_Uninit_move@PAVioHashString@@PAV1@V?$allocator@VioHashString@@@std@@V1@@std@@YAPAVioHashString@@PAV1@00AAV?$allocator@VioHashString@@@0@0U_Nonscalar_ptr_iterator_tag@0@@Z ; std::_Uninit_move<ioHashString *,ioHashString *,std::allocator<ioHashString>,ioHashString>
;	COMDAT xdata$x
; File c:\program files (x86)\microsoft visual studio 10.0\vc\include\vector
xdata$x	SEGMENT
__catchsym$??$_Uninit_move@PAVioHashString@@PAV1@V?$allocator@VioHashString@@@std@@V1@@std@@YAPAVioHashString@@PAV1@00AAV?$allocator@VioHashString@@@0@0U_Nonscalar_ptr_iterator_tag@0@@Z$2 DD 040H
	DD	00H
	DD	00H
	DD	FLAT:__catch$??$_Uninit_move@PAVioHashString@@PAV1@V?$allocator@VioHashString@@@std@@V1@@std@@YAPAVioHashString@@PAV1@00AAV?$allocator@VioHashString@@@0@0U_Nonscalar_ptr_iterator_tag@0@@Z$0
__unwindtable$??$_Uninit_move@PAVioHashString@@PAV1@V?$allocator@VioHashString@@@std@@V1@@std@@YAPAVioHashString@@PAV1@00AAV?$allocator@VioHashString@@@0@0U_Nonscalar_ptr_iterator_tag@0@@Z DD 0ffffffffH
	DD	00H
	DD	0ffffffffH
	DD	00H
__tryblocktable$??$_Uninit_move@PAVioHashString@@PAV1@V?$allocator@VioHashString@@@std@@V1@@std@@YAPAVioHashString@@PAV1@00AAV?$allocator@VioHashString@@@0@0U_Nonscalar_ptr_iterator_tag@0@@Z DD 00H
	DD	00H
	DD	01H
	DD	01H
	DD	FLAT:__catchsym$??$_Uninit_move@PAVioHashString@@PAV1@V?$allocator@VioHashString@@@std@@V1@@std@@YAPAVioHashString@@PAV1@00AAV?$allocator@VioHashString@@@0@0U_Nonscalar_ptr_iterator_tag@0@@Z$2
__ehfuncinfo$??$_Uninit_move@PAVioHashString@@PAV1@V?$allocator@VioHashString@@@std@@V1@@std@@YAPAVioHashString@@PAV1@00AAV?$allocator@VioHashString@@@0@0U_Nonscalar_ptr_iterator_tag@0@@Z DD 019930522H
	DD	02H
	DD	FLAT:__unwindtable$??$_Uninit_move@PAVioHashString@@PAV1@V?$allocator@VioHashString@@@std@@V1@@std@@YAPAVioHashString@@PAV1@00AAV?$allocator@VioHashString@@@0@0U_Nonscalar_ptr_iterator_tag@0@@Z
	DD	01H
	DD	FLAT:__tryblocktable$??$_Uninit_move@PAVioHashString@@PAV1@V?$allocator@VioHashString@@@std@@V1@@std@@YAPAVioHashString@@PAV1@00AAV?$allocator@VioHashString@@@0@0U_Nonscalar_ptr_iterator_tag@0@@Z
	DD	2 DUP(00H)
	DD	00H
	DD	01H
; Function compile flags: /Ogsp
; File c:\program files (x86)\microsoft visual studio 10.0\vc\include\memory
xdata$x	ENDS
;	COMDAT ??$_Uninit_move@PAVioHashString@@PAV1@V?$allocator@VioHashString@@@std@@V1@@std@@YAPAVioHashString@@PAV1@00AAV?$allocator@VioHashString@@@0@0U_Nonscalar_ptr_iterator_tag@0@@Z
_TEXT	SEGMENT
__Next$ = -20						; size = 4
__$EHRec$ = -16						; size = 16
__First$ = 8						; size = 4
__Last$ = 12						; size = 4
__Dest$ = 16						; size = 4
__Al$ = 20						; size = 4
___formal$ = 24						; size = 4
___formal$ = 28						; size = 1
??$_Uninit_move@PAVioHashString@@PAV1@V?$allocator@VioHashString@@@std@@V1@@std@@YAPAVioHashString@@PAV1@00AAV?$allocator@VioHashString@@@0@0U_Nonscalar_ptr_iterator_tag@0@@Z PROC ; std::_Uninit_move<ioHashString *,ioHashString *,std::allocator<ioHashString>,ioHashString>, COMDAT

; 424  : 	{	// move [_First, _Last) to raw _Dest, using _Al, arbitrary type

  00000	6a 08		 push	 8
  00002	b8 00 00 00 00	 mov	 eax, __ehhandler$??$_Uninit_move@PAVioHashString@@PAV1@V?$allocator@VioHashString@@@std@@V1@@std@@YAPAVioHashString@@PAV1@00AAV?$allocator@VioHashString@@@0@0U_Nonscalar_ptr_iterator_tag@0@@Z
  00007	e8 00 00 00 00	 call	 __EH_prolog3_catch

; 425  : 	_DEBUG_RANGE(_First, _Last);
; 426  : 	_DEBUG_POINTER(_Dest);
; 427  : 	_FwdIt _Next = _Dest;

  0000c	8b 45 10	 mov	 eax, DWORD PTR __Dest$[ebp]

; 428  : 
; 429  : 	_TRY_BEGIN

  0000f	83 65 fc 00	 and	 DWORD PTR __$EHRec$[ebp+12], 0
  00013	8b 75 08	 mov	 esi, DWORD PTR __First$[ebp]
  00016	89 45 ec	 mov	 DWORD PTR __Next$[ebp], eax
$LL6@Uninit_mov:

; 430  : 	for (; _First != _Last; ++_Dest, ++_First)

  00019	3b 75 0c	 cmp	 esi, DWORD PTR __Last$[ebp]
  0001c	74 33		 je	 SHORT $LN4@Uninit_mov

; 431  : 		_Cons_val(_Al, _Dest, (_Valty &&)*_First);

  0001e	8b 4d 14	 mov	 ecx, DWORD PTR __Al$[ebp]
  00021	56		 push	 esi
  00022	ff 75 10	 push	 DWORD PTR __Dest$[ebp]
  00025	e8 00 00 00 00	 call	 ?construct@?$allocator@VioHashString@@@std@@QAEXPAVioHashString@@$$QAV3@@Z ; std::allocator<ioHashString>::construct
  0002a	83 45 10 10	 add	 DWORD PTR __Dest$[ebp], 16 ; 00000010H
  0002e	83 c6 10	 add	 esi, 16			; 00000010H
  00031	eb e6		 jmp	 SHORT $LL6@Uninit_mov
__catch$??$_Uninit_move@PAVioHashString@@PAV1@V?$allocator@VioHashString@@@std@@V1@@std@@YAPAVioHashString@@PAV1@00AAV?$allocator@VioHashString@@@0@0U_Nonscalar_ptr_iterator_tag@0@@Z$0:

; 432  : 	_CATCH_ALL
; 433  : 	for (; _Next != _Dest; ++_Next)

  00033	8b 75 ec	 mov	 esi, DWORD PTR __Next$[ebp]
  00036	eb 0b		 jmp	 SHORT $LN33@Uninit_mov
$LL3@Uninit_mov:

; 434  : 		_Dest_val(_Al, _Next);

  00038	8b ce		 mov	 ecx, esi
  0003a	ff 15 00 00 00
	00		 call	 DWORD PTR __imp_??1ioHashString@@QAE@XZ
  00040	83 c6 10	 add	 esi, 16			; 00000010H
$LN33@Uninit_mov:

; 432  : 	_CATCH_ALL
; 433  : 	for (; _Next != _Dest; ++_Next)

  00043	3b 75 10	 cmp	 esi, DWORD PTR __Dest$[ebp]
  00046	75 f0		 jne	 SHORT $LL3@Uninit_mov

; 435  : 	_RERAISE;

  00048	6a 00		 push	 0
  0004a	6a 00		 push	 0
  0004c	e8 00 00 00 00	 call	 __CxxThrowException@8
$LN34@Uninit_mov:
$LN4@Uninit_mov:

; 436  : 	_CATCH_END
; 437  : 	return (_Dest);

  00051	8b 45 10	 mov	 eax, DWORD PTR __Dest$[ebp]

; 438  : 	}

  00054	e8 00 00 00 00	 call	 __EH_epilog3
  00059	c3		 ret	 0
$LN32@Uninit_mov:
_TEXT	ENDS
;	COMDAT text$x
text$x	SEGMENT
__ehhandler$??$_Uninit_move@PAVioHashString@@PAV1@V?$allocator@VioHashString@@@std@@V1@@std@@YAPAVioHashString@@PAV1@00AAV?$allocator@VioHashString@@@0@0U_Nonscalar_ptr_iterator_tag@0@@Z:
  00000	8b 54 24 08	 mov	 edx, DWORD PTR [esp+8]
  00004	8d 42 0c	 lea	 eax, DWORD PTR [edx+12]
  00007	8b 4a e8	 mov	 ecx, DWORD PTR [edx-24]
  0000a	33 c8		 xor	 ecx, eax
  0000c	e8 00 00 00 00	 call	 @__security_check_cookie@4
  00011	b8 00 00 00 00	 mov	 eax, OFFSET __ehfuncinfo$??$_Uninit_move@PAVioHashString@@PAV1@V?$allocator@VioHashString@@@std@@V1@@std@@YAPAVioHashString@@PAV1@00AAV?$allocator@VioHashString@@@0@0U_Nonscalar_ptr_iterator_tag@0@@Z
  00016	e9 00 00 00 00	 jmp	 ___CxxFrameHandler3
text$x	ENDS
??$_Uninit_move@PAVioHashString@@PAV1@V?$allocator@VioHashString@@@std@@V1@@std@@YAPAVioHashString@@PAV1@00AAV?$allocator@VioHashString@@@0@0U_Nonscalar_ptr_iterator_tag@0@@Z ENDP ; std::_Uninit_move<ioHashString *,ioHashString *,std::allocator<ioHashString>,ioHashString>
PUBLIC	??$_Uninit_move@PAUGroupDummyInfo@@PAU1@V?$allocator@UGroupDummyInfo@@@std@@U1@@std@@YAPAUGroupDummyInfo@@PAU1@00AAV?$allocator@UGroupDummyInfo@@@0@0U_Nonscalar_ptr_iterator_tag@0@@Z ; std::_Uninit_move<GroupDummyInfo *,GroupDummyInfo *,std::allocator<GroupDummyInfo>,GroupDummyInfo>
;	COMDAT xdata$x
; File d:\lost saga for developer\youtube\tutorial\source\src\lsclient\ioengineeritem.cpp
xdata$x	SEGMENT
__catchsym$??$_Uninit_move@PAUGroupDummyInfo@@PAU1@V?$allocator@UGroupDummyInfo@@@std@@U1@@std@@YAPAUGroupDummyInfo@@PAU1@00AAV?$allocator@UGroupDummyInfo@@@0@0U_Nonscalar_ptr_iterator_tag@0@@Z$3 DD 040H
	DD	00H
	DD	00H
	DD	FLAT:__catch$??$_Uninit_move@PAUGroupDummyInfo@@PAU1@V?$allocator@UGroupDummyInfo@@@std@@U1@@std@@YAPAUGroupDummyInfo@@PAU1@00AAV?$allocator@UGroupDummyInfo@@@0@0U_Nonscalar_ptr_iterator_tag@0@@Z$0
__unwindtable$??$_Uninit_move@PAUGroupDummyInfo@@PAU1@V?$allocator@UGroupDummyInfo@@@std@@U1@@std@@YAPAUGroupDummyInfo@@PAU1@00AAV?$allocator@UGroupDummyInfo@@@0@0U_Nonscalar_ptr_iterator_tag@0@@Z DD 0ffffffffH
	DD	00H
	DD	0ffffffffH
	DD	00H
__tryblocktable$??$_Uninit_move@PAUGroupDummyInfo@@PAU1@V?$allocator@UGroupDummyInfo@@@std@@U1@@std@@YAPAUGroupDummyInfo@@PAU1@00AAV?$allocator@UGroupDummyInfo@@@0@0U_Nonscalar_ptr_iterator_tag@0@@Z DD 00H
	DD	00H
	DD	01H
	DD	01H
	DD	FLAT:__catchsym$??$_Uninit_move@PAUGroupDummyInfo@@PAU1@V?$allocator@UGroupDummyInfo@@@std@@U1@@std@@YAPAUGroupDummyInfo@@PAU1@00AAV?$allocator@UGroupDummyInfo@@@0@0U_Nonscalar_ptr_iterator_tag@0@@Z$3
__ehfuncinfo$??$_Uninit_move@PAUGroupDummyInfo@@PAU1@V?$allocator@UGroupDummyInfo@@@std@@U1@@std@@YAPAUGroupDummyInfo@@PAU1@00AAV?$allocator@UGroupDummyInfo@@@0@0U_Nonscalar_ptr_iterator_tag@0@@Z DD 019930522H
	DD	02H
	DD	FLAT:__unwindtable$??$_Uninit_move@PAUGroupDummyInfo@@PAU1@V?$allocator@UGroupDummyInfo@@@std@@U1@@std@@YAPAUGroupDummyInfo@@PAU1@00AAV?$allocator@UGroupDummyInfo@@@0@0U_Nonscalar_ptr_iterator_tag@0@@Z
	DD	01H
	DD	FLAT:__tryblocktable$??$_Uninit_move@PAUGroupDummyInfo@@PAU1@V?$allocator@UGroupDummyInfo@@@std@@U1@@std@@YAPAUGroupDummyInfo@@PAU1@00AAV?$allocator@UGroupDummyInfo@@@0@0U_Nonscalar_ptr_iterator_tag@0@@Z
	DD	2 DUP(00H)
	DD	00H
	DD	01H
; Function compile flags: /Ogsp
; File c:\program files (x86)\microsoft visual studio 10.0\vc\include\memory
xdata$x	ENDS
;	COMDAT ??$_Uninit_move@PAUGroupDummyInfo@@PAU1@V?$allocator@UGroupDummyInfo@@@std@@U1@@std@@YAPAUGroupDummyInfo@@PAU1@00AAV?$allocator@UGroupDummyInfo@@@0@0U_Nonscalar_ptr_iterator_tag@0@@Z
_TEXT	SEGMENT
__Next$ = -20						; size = 4
__$EHRec$ = -16						; size = 16
__First$ = 8						; size = 4
__Last$ = 12						; size = 4
__Dest$ = 16						; size = 4
__Al$ = 20						; size = 4
___formal$ = 24						; size = 4
___formal$ = 28						; size = 1
??$_Uninit_move@PAUGroupDummyInfo@@PAU1@V?$allocator@UGroupDummyInfo@@@std@@U1@@std@@YAPAUGroupDummyInfo@@PAU1@00AAV?$allocator@UGroupDummyInfo@@@0@0U_Nonscalar_ptr_iterator_tag@0@@Z PROC ; std::_Uninit_move<GroupDummyInfo *,GroupDummyInfo *,std::allocator<GroupDummyInfo>,GroupDummyInfo>, COMDAT

; 424  : 	{	// move [_First, _Last) to raw _Dest, using _Al, arbitrary type

  00000	6a 08		 push	 8
  00002	b8 00 00 00 00	 mov	 eax, __ehhandler$??$_Uninit_move@PAUGroupDummyInfo@@PAU1@V?$allocator@UGroupDummyInfo@@@std@@U1@@std@@YAPAUGroupDummyInfo@@PAU1@00AAV?$allocator@UGroupDummyInfo@@@0@0U_Nonscalar_ptr_iterator_tag@0@@Z
  00007	e8 00 00 00 00	 call	 __EH_prolog3_catch

; 425  : 	_DEBUG_RANGE(_First, _Last);
; 426  : 	_DEBUG_POINTER(_Dest);
; 427  : 	_FwdIt _Next = _Dest;

  0000c	8b 45 10	 mov	 eax, DWORD PTR __Dest$[ebp]

; 428  : 
; 429  : 	_TRY_BEGIN

  0000f	83 65 fc 00	 and	 DWORD PTR __$EHRec$[ebp+12], 0
  00013	8b 75 08	 mov	 esi, DWORD PTR __First$[ebp]
  00016	89 45 ec	 mov	 DWORD PTR __Next$[ebp], eax
$LL6@Uninit_mov@2:

; 430  : 	for (; _First != _Last; ++_Dest, ++_First)

  00019	3b 75 0c	 cmp	 esi, DWORD PTR __Last$[ebp]
  0001c	74 33		 je	 SHORT $LN4@Uninit_mov@2

; 431  : 		_Cons_val(_Al, _Dest, (_Valty &&)*_First);

  0001e	8b 4d 14	 mov	 ecx, DWORD PTR __Al$[ebp]
  00021	56		 push	 esi
  00022	ff 75 10	 push	 DWORD PTR __Dest$[ebp]
  00025	e8 00 00 00 00	 call	 ?construct@?$allocator@UGroupDummyInfo@@@std@@QAEXPAUGroupDummyInfo@@$$QAU3@@Z ; std::allocator<GroupDummyInfo>::construct
  0002a	83 45 10 14	 add	 DWORD PTR __Dest$[ebp], 20 ; 00000014H
  0002e	83 c6 14	 add	 esi, 20			; 00000014H
  00031	eb e6		 jmp	 SHORT $LL6@Uninit_mov@2
__catch$??$_Uninit_move@PAUGroupDummyInfo@@PAU1@V?$allocator@UGroupDummyInfo@@@std@@U1@@std@@YAPAUGroupDummyInfo@@PAU1@00AAV?$allocator@UGroupDummyInfo@@@0@0U_Nonscalar_ptr_iterator_tag@0@@Z$0:

; 432  : 	_CATCH_ALL
; 433  : 	for (; _Next != _Dest; ++_Next)

  00033	8b 75 ec	 mov	 esi, DWORD PTR __Next$[ebp]
  00036	eb 0b		 jmp	 SHORT $LN36@Uninit_mov@2
$LL3@Uninit_mov@2:

; 434  : 		_Dest_val(_Al, _Next);

  00038	8b ce		 mov	 ecx, esi
  0003a	ff 15 00 00 00
	00		 call	 DWORD PTR __imp_??1ioHashString@@QAE@XZ
  00040	83 c6 14	 add	 esi, 20			; 00000014H
$LN36@Uninit_mov@2:

; 432  : 	_CATCH_ALL
; 433  : 	for (; _Next != _Dest; ++_Next)

  00043	3b 75 10	 cmp	 esi, DWORD PTR __Dest$[ebp]
  00046	75 f0		 jne	 SHORT $LL3@Uninit_mov@2

; 435  : 	_RERAISE;

  00048	6a 00		 push	 0
  0004a	6a 00		 push	 0
  0004c	e8 00 00 00 00	 call	 __CxxThrowException@8
$LN37@Uninit_mov@2:
$LN4@Uninit_mov@2:

; 436  : 	_CATCH_END
; 437  : 	return (_Dest);

  00051	8b 45 10	 mov	 eax, DWORD PTR __Dest$[ebp]

; 438  : 	}

  00054	e8 00 00 00 00	 call	 __EH_epilog3
  00059	c3		 ret	 0
$LN35@Uninit_mov@2:
_TEXT	ENDS
;	COMDAT text$x
text$x	SEGMENT
__ehhandler$??$_Uninit_move@PAUGroupDummyInfo@@PAU1@V?$allocator@UGroupDummyInfo@@@std@@U1@@std@@YAPAUGroupDummyInfo@@PAU1@00AAV?$allocator@UGroupDummyInfo@@@0@0U_Nonscalar_ptr_iterator_tag@0@@Z:
  00000	8b 54 24 08	 mov	 edx, DWORD PTR [esp+8]
  00004	8d 42 0c	 lea	 eax, DWORD PTR [edx+12]
  00007	8b 4a e8	 mov	 ecx, DWORD PTR [edx-24]
  0000a	33 c8		 xor	 ecx, eax
  0000c	e8 00 00 00 00	 call	 @__security_check_cookie@4
  00011	b8 00 00 00 00	 mov	 eax, OFFSET __ehfuncinfo$??$_Uninit_move@PAUGroupDummyInfo@@PAU1@V?$allocator@UGroupDummyInfo@@@std@@U1@@std@@YAPAUGroupDummyInfo@@PAU1@00AAV?$allocator@UGroupDummyInfo@@@0@0U_Nonscalar_ptr_iterator_tag@0@@Z
  00016	e9 00 00 00 00	 jmp	 ___CxxFrameHandler3
text$x	ENDS
??$_Uninit_move@PAUGroupDummyInfo@@PAU1@V?$allocator@UGroupDummyInfo@@@std@@U1@@std@@YAPAUGroupDummyInfo@@PAU1@00AAV?$allocator@UGroupDummyInfo@@@0@0U_Nonscalar_ptr_iterator_tag@0@@Z ENDP ; std::_Uninit_move<GroupDummyInfo *,GroupDummyInfo *,std::allocator<GroupDummyInfo>,GroupDummyInfo>
PUBLIC	??1?$vector@PAVioDummyChar@@V?$allocator@PAVioDummyChar@@@std@@@std@@QAE@XZ ; std::vector<ioDummyChar *,std::allocator<ioDummyChar *> >::~vector<ioDummyChar *,std::allocator<ioDummyChar *> >
; Function compile flags: /Ogsp
; File c:\program files (x86)\microsoft visual studio 10.0\vc\include\vector
;	COMDAT ??1?$vector@PAVioDummyChar@@V?$allocator@PAVioDummyChar@@@std@@@std@@QAE@XZ
_TEXT	SEGMENT
??1?$vector@PAVioDummyChar@@V?$allocator@PAVioDummyChar@@@std@@@std@@QAE@XZ PROC ; std::vector<ioDummyChar *,std::allocator<ioDummyChar *> >::~vector<ioDummyChar *,std::allocator<ioDummyChar *> >, COMDAT
; _this$ = ecx

; 705  : 		_Tidy();

  00000	e9 00 00 00 00	 jmp	 ?_Tidy@?$vector@PAVioDummyChar@@V?$allocator@PAVioDummyChar@@@std@@@std@@IAEXXZ ; std::vector<ioDummyChar *,std::allocator<ioDummyChar *> >::_Tidy
??1?$vector@PAVioDummyChar@@V?$allocator@PAVioDummyChar@@@std@@@std@@QAE@XZ ENDP ; std::vector<ioDummyChar *,std::allocator<ioDummyChar *> >::~vector<ioDummyChar *,std::allocator<ioDummyChar *> >
_TEXT	ENDS
PUBLIC	??$_Destroy_range@V?$allocator@VioHashString@@@std@@@std@@YAXPAVioHashString@@0AAV?$allocator@VioHashString@@@0@U_Nonscalar_ptr_iterator_tag@0@@Z ; std::_Destroy_range<std::allocator<ioHashString> >
; Function compile flags: /Ogsp
; File c:\program files (x86)\microsoft visual studio 10.0\vc\include\xmemory
;	COMDAT ??$_Destroy_range@V?$allocator@VioHashString@@@std@@@std@@YAXPAVioHashString@@0AAV?$allocator@VioHashString@@@0@U_Nonscalar_ptr_iterator_tag@0@@Z
_TEXT	SEGMENT
__First$ = 8						; size = 4
__Last$ = 12						; size = 4
__Al$ = 16						; size = 4
___formal$ = 20						; size = 1
??$_Destroy_range@V?$allocator@VioHashString@@@std@@@std@@YAXPAVioHashString@@0AAV?$allocator@VioHashString@@@0@U_Nonscalar_ptr_iterator_tag@0@@Z PROC ; std::_Destroy_range<std::allocator<ioHashString> >, COMDAT

; 95   : 	{	// destroy [_First, _Last), arbitrary type

  00000	55		 push	 ebp
  00001	8b ec		 mov	 ebp, esp
  00003	56		 push	 esi

; 96   : 	for (; _First != _Last; ++_First)

  00004	8b 75 08	 mov	 esi, DWORD PTR __First$[ebp]
  00007	eb 0b		 jmp	 SHORT $LN17@Destroy_ra@2
$LL3@Destroy_ra@2:

; 97   : 		_Dest_val(_Al, _First);

  00009	8b ce		 mov	 ecx, esi
  0000b	ff 15 00 00 00
	00		 call	 DWORD PTR __imp_??1ioHashString@@QAE@XZ
  00011	83 c6 10	 add	 esi, 16			; 00000010H
$LN17@Destroy_ra@2:

; 96   : 	for (; _First != _Last; ++_First)

  00014	3b 75 0c	 cmp	 esi, DWORD PTR __Last$[ebp]
  00017	75 f0		 jne	 SHORT $LL3@Destroy_ra@2
  00019	5e		 pop	 esi

; 98   : 	}

  0001a	5d		 pop	 ebp
  0001b	c3		 ret	 0
??$_Destroy_range@V?$allocator@VioHashString@@@std@@@std@@YAXPAVioHashString@@0AAV?$allocator@VioHashString@@@0@U_Nonscalar_ptr_iterator_tag@0@@Z ENDP ; std::_Destroy_range<std::allocator<ioHashString> >
_TEXT	ENDS
PUBLIC	??$_Uninit_copy@V?$_Vector_const_iterator@V?$_Vector_val@VioHashString@@V?$allocator@VioHashString@@@std@@@std@@@std@@PAVioHashString@@V?$allocator@VioHashString@@@2@@std@@YAPAVioHashString@@V?$_Vector_const_iterator@V?$_Vector_val@VioHashString@@V?$allocator@VioHashString@@@std@@@std@@@0@0PAV1@AAV?$allocator@VioHashString@@@0@U_Nonscalar_ptr_iterator_tag@0@@Z ; std::_Uninit_copy<std::_Vector_const_iterator<std::_Vector_val<ioHashString,std::allocator<ioHashString> > >,ioHashString *,std::allocator<ioHashString> >
;	COMDAT xdata$x
; File c:\program files (x86)\microsoft visual studio 10.0\vc\include\vector
xdata$x	SEGMENT
__catchsym$??$_Uninit_copy@V?$_Vector_const_iterator@V?$_Vector_val@VioHashString@@V?$allocator@VioHashString@@@std@@@std@@@std@@PAVioHashString@@V?$allocator@VioHashString@@@2@@std@@YAPAVioHashString@@V?$_Vector_const_iterator@V?$_Vector_val@VioHashString@@V?$allocator@VioHashString@@@std@@@std@@@0@0PAV1@AAV?$allocator@VioHashString@@@0@U_Nonscalar_ptr_iterator_tag@0@@Z$2 DD 040H
	DD	00H
	DD	00H
	DD	FLAT:__catch$??$_Uninit_copy@V?$_Vector_const_iterator@V?$_Vector_val@VioHashString@@V?$allocator@VioHashString@@@std@@@std@@@std@@PAVioHashString@@V?$allocator@VioHashString@@@2@@std@@YAPAVioHashString@@V?$_Vector_const_iterator@V?$_Vector_val@VioHashString@@V?$allocator@VioHashString@@@std@@@std@@@0@0PAV1@AAV?$allocator@VioHashString@@@0@U_Nonscalar_ptr_iterator_tag@0@@Z$0
__unwindtable$??$_Uninit_copy@V?$_Vector_const_iterator@V?$_Vector_val@VioHashString@@V?$allocator@VioHashString@@@std@@@std@@@std@@PAVioHashString@@V?$allocator@VioHashString@@@2@@std@@YAPAVioHashString@@V?$_Vector_const_iterator@V?$_Vector_val@VioHashString@@V?$allocator@VioHashString@@@std@@@std@@@0@0PAV1@AAV?$allocator@VioHashString@@@0@U_Nonscalar_ptr_iterator_tag@0@@Z DD 0ffffffffH
	DD	00H
	DD	0ffffffffH
	DD	00H
__tryblocktable$??$_Uninit_copy@V?$_Vector_const_iterator@V?$_Vector_val@VioHashString@@V?$allocator@VioHashString@@@std@@@std@@@std@@PAVioHashString@@V?$allocator@VioHashString@@@2@@std@@YAPAVioHashString@@V?$_Vector_const_iterator@V?$_Vector_val@VioHashString@@V?$allocator@VioHashString@@@std@@@std@@@0@0PAV1@AAV?$allocator@VioHashString@@@0@U_Nonscalar_ptr_iterator_tag@0@@Z DD 00H
	DD	00H
	DD	01H
	DD	01H
	DD	FLAT:__catchsym$??$_Uninit_copy@V?$_Vector_const_iterator@V?$_Vector_val@VioHashString@@V?$allocator@VioHashString@@@std@@@std@@@std@@PAVioHashString@@V?$allocator@VioHashString@@@2@@std@@YAPAVioHashString@@V?$_Vector_const_iterator@V?$_Vector_val@VioHashString@@V?$allocator@VioHashString@@@std@@@std@@@0@0PAV1@AAV?$allocator@VioHashString@@@0@U_Nonscalar_ptr_iterator_tag@0@@Z$2
__ehfuncinfo$??$_Uninit_copy@V?$_Vector_const_iterator@V?$_Vector_val@VioHashString@@V?$allocator@VioHashString@@@std@@@std@@@std@@PAVioHashString@@V?$allocator@VioHashString@@@2@@std@@YAPAVioHashString@@V?$_Vector_const_iterator@V?$_Vector_val@VioHashString@@V?$allocator@VioHashString@@@std@@@std@@@0@0PAV1@AAV?$allocator@VioHashString@@@0@U_Nonscalar_ptr_iterator_tag@0@@Z DD 019930522H
	DD	02H
	DD	FLAT:__unwindtable$??$_Uninit_copy@V?$_Vector_const_iterator@V?$_Vector_val@VioHashString@@V?$allocator@VioHashString@@@std@@@std@@@std@@PAVioHashString@@V?$allocator@VioHashString@@@2@@std@@YAPAVioHashString@@V?$_Vector_const_iterator@V?$_Vector_val@VioHashString@@V?$allocator@VioHashString@@@std@@@std@@@0@0PAV1@AAV?$allocator@VioHashString@@@0@U_Nonscalar_ptr_iterator_tag@0@@Z
	DD	01H
	DD	FLAT:__tryblocktable$??$_Uninit_copy@V?$_Vector_const_iterator@V?$_Vector_val@VioHashString@@V?$allocator@VioHashString@@@std@@@std@@@std@@PAVioHashString@@V?$allocator@VioHashString@@@2@@std@@YAPAVioHashString@@V?$_Vector_const_iterator@V?$_Vector_val@VioHashString@@V?$allocator@VioHashString@@@std@@@std@@@0@0PAV1@AAV?$allocator@VioHashString@@@0@U_Nonscalar_ptr_iterator_tag@0@@Z
	DD	2 DUP(00H)
	DD	00H
	DD	01H
; Function compile flags: /Ogsp
; File c:\program files (x86)\microsoft visual studio 10.0\vc\include\memory
xdata$x	ENDS
;	COMDAT ??$_Uninit_copy@V?$_Vector_const_iterator@V?$_Vector_val@VioHashString@@V?$allocator@VioHashString@@@std@@@std@@@std@@PAVioHashString@@V?$allocator@VioHashString@@@2@@std@@YAPAVioHashString@@V?$_Vector_const_iterator@V?$_Vector_val@VioHashString@@V?$allocator@VioHashString@@@std@@@std@@@0@0PAV1@AAV?$allocator@VioHashString@@@0@U_Nonscalar_ptr_iterator_tag@0@@Z
_TEXT	SEGMENT
__Next$ = -20						; size = 4
__$EHRec$ = -16						; size = 16
__First$ = 8						; size = 4
__Last$ = 12						; size = 4
__Dest$ = 16						; size = 4
__Al$ = 20						; size = 4
___formal$ = 24						; size = 1
??$_Uninit_copy@V?$_Vector_const_iterator@V?$_Vector_val@VioHashString@@V?$allocator@VioHashString@@@std@@@std@@@std@@PAVioHashString@@V?$allocator@VioHashString@@@2@@std@@YAPAVioHashString@@V?$_Vector_const_iterator@V?$_Vector_val@VioHashString@@V?$allocator@VioHashString@@@std@@@std@@@0@0PAV1@AAV?$allocator@VioHashString@@@0@U_Nonscalar_ptr_iterator_tag@0@@Z PROC ; std::_Uninit_copy<std::_Vector_const_iterator<std::_Vector_val<ioHashString,std::allocator<ioHashString> > >,ioHashString *,std::allocator<ioHashString> >, COMDAT

; 369  : 	{	// copy [_First, _Last) to raw _Dest, using _Al, arbitrary type

  00000	6a 08		 push	 8
  00002	b8 00 00 00 00	 mov	 eax, __ehhandler$??$_Uninit_copy@V?$_Vector_const_iterator@V?$_Vector_val@VioHashString@@V?$allocator@VioHashString@@@std@@@std@@@std@@PAVioHashString@@V?$allocator@VioHashString@@@2@@std@@YAPAVioHashString@@V?$_Vector_const_iterator@V?$_Vector_val@VioHashString@@V?$allocator@VioHashString@@@std@@@std@@@0@0PAV1@AAV?$allocator@VioHashString@@@0@U_Nonscalar_ptr_iterator_tag@0@@Z
  00007	e8 00 00 00 00	 call	 __EH_prolog3_catch

; 370  : 	_DEBUG_RANGE(_First, _Last);
; 371  : 	_DEBUG_POINTER(_Dest);
; 372  : 	_FwdIt _Next = _Dest;

  0000c	8b 45 10	 mov	 eax, DWORD PTR __Dest$[ebp]

; 373  : 
; 374  : 	_TRY_BEGIN

  0000f	83 65 fc 00	 and	 DWORD PTR __$EHRec$[ebp+12], 0
  00013	89 45 ec	 mov	 DWORD PTR __Next$[ebp], eax

; 375  : 	for (; _First != _Last; ++_Dest, ++_First)

$LL14@Uninit_cop@2:
  00016	8b 45 08	 mov	 eax, DWORD PTR __First$[ebp]
  00019	3b 45 0c	 cmp	 eax, DWORD PTR __Last$[ebp]
  0001c	74 33		 je	 SHORT $LN4@Uninit_cop@2

; 376  : 		_Cons_val(_Al, _Dest, *_First);

  0001e	50		 push	 eax
  0001f	ff 75 10	 push	 DWORD PTR __Dest$[ebp]
  00022	e8 00 00 00 00	 call	 ??$_Construct@VioHashString@@ABV1@@std@@YAXPAVioHashString@@ABV1@@Z ; std::_Construct<ioHashString,ioHashString const &>
  00027	83 45 10 10	 add	 DWORD PTR __Dest$[ebp], 16 ; 00000010H
  0002b	83 45 08 10	 add	 DWORD PTR __First$[ebp], 16 ; 00000010H
  0002f	59		 pop	 ecx
  00030	59		 pop	 ecx
  00031	eb e3		 jmp	 SHORT $LL14@Uninit_cop@2
__catch$??$_Uninit_copy@V?$_Vector_const_iterator@V?$_Vector_val@VioHashString@@V?$allocator@VioHashString@@@std@@@std@@@std@@PAVioHashString@@V?$allocator@VioHashString@@@2@@std@@YAPAVioHashString@@V?$_Vector_const_iterator@V?$_Vector_val@VioHashString@@V?$allocator@VioHashString@@@std@@@std@@@0@0PAV1@AAV?$allocator@VioHashString@@@0@U_Nonscalar_ptr_iterator_tag@0@@Z$0:

; 377  : 	_CATCH_ALL
; 378  : 	for (; _Next != _Dest; ++_Next)

  00033	8b 75 ec	 mov	 esi, DWORD PTR __Next$[ebp]
  00036	eb 0b		 jmp	 SHORT $LN45@Uninit_cop@2
$LL3@Uninit_cop@2:

; 379  : 		_Dest_val(_Al, _Next);

  00038	8b ce		 mov	 ecx, esi
  0003a	ff 15 00 00 00
	00		 call	 DWORD PTR __imp_??1ioHashString@@QAE@XZ
  00040	83 c6 10	 add	 esi, 16			; 00000010H
$LN45@Uninit_cop@2:

; 377  : 	_CATCH_ALL
; 378  : 	for (; _Next != _Dest; ++_Next)

  00043	3b 75 10	 cmp	 esi, DWORD PTR __Dest$[ebp]
  00046	75 f0		 jne	 SHORT $LL3@Uninit_cop@2

; 380  : 	_RERAISE;

  00048	6a 00		 push	 0
  0004a	6a 00		 push	 0
  0004c	e8 00 00 00 00	 call	 __CxxThrowException@8
$LN46@Uninit_cop@2:
$LN4@Uninit_cop@2:

; 381  : 	_CATCH_END
; 382  : 	return (_Dest);

  00051	8b 45 10	 mov	 eax, DWORD PTR __Dest$[ebp]

; 383  : 	}

  00054	e8 00 00 00 00	 call	 __EH_epilog3
  00059	c3		 ret	 0
$LN44@Uninit_cop@2:
_TEXT	ENDS
;	COMDAT text$x
text$x	SEGMENT
__ehhandler$??$_Uninit_copy@V?$_Vector_const_iterator@V?$_Vector_val@VioHashString@@V?$allocator@VioHashString@@@std@@@std@@@std@@PAVioHashString@@V?$allocator@VioHashString@@@2@@std@@YAPAVioHashString@@V?$_Vector_const_iterator@V?$_Vector_val@VioHashString@@V?$allocator@VioHashString@@@std@@@std@@@0@0PAV1@AAV?$allocator@VioHashString@@@0@U_Nonscalar_ptr_iterator_tag@0@@Z:
  00000	8b 54 24 08	 mov	 edx, DWORD PTR [esp+8]
  00004	8d 42 0c	 lea	 eax, DWORD PTR [edx+12]
  00007	8b 4a e8	 mov	 ecx, DWORD PTR [edx-24]
  0000a	33 c8		 xor	 ecx, eax
  0000c	e8 00 00 00 00	 call	 @__security_check_cookie@4
  00011	b8 00 00 00 00	 mov	 eax, OFFSET __ehfuncinfo$??$_Uninit_copy@V?$_Vector_const_iterator@V?$_Vector_val@VioHashString@@V?$allocator@VioHashString@@@std@@@std@@@std@@PAVioHashString@@V?$allocator@VioHashString@@@2@@std@@YAPAVioHashString@@V?$_Vector_const_iterator@V?$_Vector_val@VioHashString@@V?$allocator@VioHashString@@@std@@@std@@@0@0PAV1@AAV?$allocator@VioHashString@@@0@U_Nonscalar_ptr_iterator_tag@0@@Z
  00016	e9 00 00 00 00	 jmp	 ___CxxFrameHandler3
text$x	ENDS
??$_Uninit_copy@V?$_Vector_const_iterator@V?$_Vector_val@VioHashString@@V?$allocator@VioHashString@@@std@@@std@@@std@@PAVioHashString@@V?$allocator@VioHashString@@@2@@std@@YAPAVioHashString@@V?$_Vector_const_iterator@V?$_Vector_val@VioHashString@@V?$allocator@VioHashString@@@std@@@std@@@0@0PAV1@AAV?$allocator@VioHashString@@@0@U_Nonscalar_ptr_iterator_tag@0@@Z ENDP ; std::_Uninit_copy<std::_Vector_const_iterator<std::_Vector_val<ioHashString,std::allocator<ioHashString> > >,ioHashString *,std::allocator<ioHashString> >
PUBLIC	?GetTotalDummyGauge@ioEngineerItem@@IAEMPAVioBaseChar@@@Z ; ioEngineerItem::GetTotalDummyGauge
EXTRN	?GetDummyAll@ioDummyGroup@@QAEXAAV?$vector@PAVioDummyChar@@V?$allocator@PAVioDummyChar@@@std@@@std@@@Z:PROC ; ioDummyGroup::GetDummyAll
;	COMDAT xdata$x
; File c:\program files (x86)\microsoft visual studio 10.0\vc\include\vector
xdata$x	SEGMENT
__unwindtable$?GetTotalDummyGauge@ioEngineerItem@@IAEMPAVioBaseChar@@@Z DD 0ffffffffH
	DD	FLAT:__unwindfunclet$?GetTotalDummyGauge@ioEngineerItem@@IAEMPAVioBaseChar@@@Z$0
__ehfuncinfo$?GetTotalDummyGauge@ioEngineerItem@@IAEMPAVioBaseChar@@@Z DD 019930522H
	DD	01H
	DD	FLAT:__unwindtable$?GetTotalDummyGauge@ioEngineerItem@@IAEMPAVioBaseChar@@@Z
	DD	2 DUP(00H)
	DD	2 DUP(00H)
	DD	00H
	DD	01H
; Function compile flags: /Ogsp
; File d:\lost saga for developer\youtube\tutorial\source\src\lsclient\ioengineeritem.cpp
xdata$x	ENDS
;	COMDAT ?GetTotalDummyGauge@ioEngineerItem@@IAEMPAVioBaseChar@@@Z
_TEXT	SEGMENT
_List$ = -28						; size = 16
__$EHRec$ = -12						; size = 12
_fTotalGauge$ = 8					; size = 4
_pOwner$ = 8						; size = 4
?GetTotalDummyGauge@ioEngineerItem@@IAEMPAVioBaseChar@@@Z PROC ; ioEngineerItem::GetTotalDummyGauge, COMDAT
; _this$ = ecx

; 304  : {

  00000	6a 10		 push	 16			; 00000010H
  00002	b8 00 00 00 00	 mov	 eax, __ehhandler$?GetTotalDummyGauge@ioEngineerItem@@IAEMPAVioBaseChar@@@Z
  00007	e8 00 00 00 00	 call	 __EH_prolog3
  0000c	8b d9		 mov	 ebx, ecx

; 305  : 	ioDummyGroup* pGroup = GetDummyGroup( pOwner );

  0000e	ff 75 08	 push	 DWORD PTR _pOwner$[ebp]
  00011	e8 00 00 00 00	 call	 ?GetDummyGroup@ioEngineerItem@@QAEPAVioDummyGroup@@PAVioBaseChar@@@Z ; ioEngineerItem::GetDummyGroup

; 306  : 	if( !pGroup )		

  00016	85 c0		 test	 eax, eax
  00018	75 04		 jne	 SHORT $LN5@GetTotalDu

; 307  : 		return 0.0f;

  0001a	d9 ee		 fldz
  0001c	eb 58		 jmp	 SHORT $LN6@GetTotalDu
$LN5@GetTotalDu:

; 308  : 
; 309  : 	DummyCharList List;

  0001e	83 65 e4 00	 and	 DWORD PTR _List$[ebp], 0
  00022	83 65 e8 00	 and	 DWORD PTR _List$[ebp+4], 0
  00026	83 65 ec 00	 and	 DWORD PTR _List$[ebp+8], 0
  0002a	83 65 fc 00	 and	 DWORD PTR __$EHRec$[ebp+8], 0

; 310  : 	pGroup->GetDummyAll( List );

  0002e	8d 4d e4	 lea	 ecx, DWORD PTR _List$[ebp]
  00031	51		 push	 ecx
  00032	8b c8		 mov	 ecx, eax
  00034	e8 00 00 00 00	 call	 ?GetDummyAll@ioDummyGroup@@QAEXAAV?$vector@PAVioDummyChar@@V?$allocator@PAVioDummyChar@@@std@@@std@@@Z ; ioDummyGroup::GetDummyAll

; 311  : 
; 312  : 	float fTotalGauge = 0.0f;

  00039	0f 57 c0	 xorps	 xmm0, xmm0

; 313  : 	for( DummyCharList::iterator iter = List.begin(); iter != List.end(); ++iter )

  0003c	8b 75 e4	 mov	 esi, DWORD PTR _List$[ebp]
  0003f	f3 0f 11 45 08	 movss	 DWORD PTR _fTotalGauge$[ebp], xmm0
  00044	eb 1c		 jmp	 SHORT $LN56@GetTotalDu
$LL27@GetTotalDu:

; 314  : 	{
; 315  : 		ioDummyChar* pDummy = *iter;

  00046	8b 06		 mov	 eax, DWORD PTR [esi]

; 316  : 		if( pDummy )

  00048	85 c0		 test	 eax, eax
  0004a	74 13		 je	 SHORT $LN3@GetTotalDu

; 317  : 		{
; 318  : 			fTotalGauge += GetDummyNeedGauge( pDummy->GetDummyCharName() );

  0004c	05 e0 01 00 00	 add	 eax, 480		; 000001e0H
  00051	50		 push	 eax
  00052	8b cb		 mov	 ecx, ebx
  00054	e8 00 00 00 00	 call	 ?GetDummyNeedGauge@ioEngineerItem@@IAEMABVioHashString@@@Z ; ioEngineerItem::GetDummyNeedGauge
  00059	d8 45 08	 fadd	 DWORD PTR _fTotalGauge$[ebp]
  0005c	d9 5d 08	 fstp	 DWORD PTR _fTotalGauge$[ebp]
$LN3@GetTotalDu:

; 313  : 	for( DummyCharList::iterator iter = List.begin(); iter != List.end(); ++iter )

  0005f	83 c6 04	 add	 esi, 4
$LN56@GetTotalDu:
  00062	3b 75 e8	 cmp	 esi, DWORD PTR _List$[ebp+4]
  00065	75 df		 jne	 SHORT $LL27@GetTotalDu

; 319  : 		}
; 320  : 	}
; 321  : 
; 322  : 	return fTotalGauge;

  00067	83 4d fc ff	 or	 DWORD PTR __$EHRec$[ebp+8], -1
  0006b	8d 4d e4	 lea	 ecx, DWORD PTR _List$[ebp]
  0006e	e8 00 00 00 00	 call	 ?_Tidy@?$vector@PAVioDummyChar@@V?$allocator@PAVioDummyChar@@@std@@@std@@IAEXXZ ; std::vector<ioDummyChar *,std::allocator<ioDummyChar *> >::_Tidy
  00073	d9 45 08	 fld	 DWORD PTR _fTotalGauge$[ebp]
$LN6@GetTotalDu:

; 323  : }

  00076	e8 00 00 00 00	 call	 __EH_epilog3
  0007b	c2 04 00	 ret	 4
_TEXT	ENDS
;	COMDAT text$x
text$x	SEGMENT
__unwindfunclet$?GetTotalDummyGauge@ioEngineerItem@@IAEMPAVioBaseChar@@@Z$0:
  00000	8d 4d e4	 lea	 ecx, DWORD PTR _List$[ebp]
  00003	e9 00 00 00 00	 jmp	 ??1?$vector@PAVioDummyChar@@V?$allocator@PAVioDummyChar@@@std@@@std@@QAE@XZ ; std::vector<ioDummyChar *,std::allocator<ioDummyChar *> >::~vector<ioDummyChar *,std::allocator<ioDummyChar *> >
__ehhandler$?GetTotalDummyGauge@ioEngineerItem@@IAEMPAVioBaseChar@@@Z:
  00008	8b 54 24 08	 mov	 edx, DWORD PTR [esp+8]
  0000c	8d 42 0c	 lea	 eax, DWORD PTR [edx+12]
  0000f	8b 4a e0	 mov	 ecx, DWORD PTR [edx-32]
  00012	33 c8		 xor	 ecx, eax
  00014	e8 00 00 00 00	 call	 @__security_check_cookie@4
  00019	b8 00 00 00 00	 mov	 eax, OFFSET __ehfuncinfo$?GetTotalDummyGauge@ioEngineerItem@@IAEMPAVioBaseChar@@@Z
  0001e	e9 00 00 00 00	 jmp	 ___CxxFrameHandler3
text$x	ENDS
?GetTotalDummyGauge@ioEngineerItem@@IAEMPAVioBaseChar@@@Z ENDP ; ioEngineerItem::GetTotalDummyGauge
PUBLIC	__real@40a00000
PUBLIC	_iCurIndex$GSCopy$
PUBLIC	_pStage$GSCopy$
PUBLIC	__$ArrayPad$
PUBLIC	?ChangeToDummyMake@ioEngineerItem@@IAEXPAVioPlayStage@@PAVioBaseChar@@H@Z ; ioEngineerItem::ChangeToDummyMake
EXTRN	??6SP2Packet@@QAEAAV0@ABVioHashString@@@Z:PROC	; SP2Packet::operator<<
EXTRN	??6SP2Packet@@QAEAAV0@ABUD3DXVECTOR3@@@Z:PROC	; SP2Packet::operator<<
EXTRN	?FirstDummyDie@ioDummyGroup@@QAEPAVioDummyChar@@PAV2@@Z:PROC ; ioDummyGroup::FirstDummyDie
EXTRN	__imp_?IsEmpty@ioHashString@@QBE_NXZ:PROC
EXTRN	?GetDummyByArea@ioDummyGroup@@QAEXMAAV?$vector@PAVioDummyChar@@V?$allocator@PAVioDummyChar@@@std@@@std@@@Z:PROC ; ioDummyGroup::GetDummyByArea
;	COMDAT __real@40a00000
; File c:\program files (x86)\microsoft visual studio 10.0\vc\include\vector
CONST	SEGMENT
__real@40a00000 DD 040a00000r			; 5
CONST	ENDS
;	COMDAT xdata$x
xdata$x	SEGMENT
__unwindtable$?ChangeToDummyMake@ioEngineerItem@@IAEXPAVioPlayStage@@PAVioBaseChar@@H@Z DD 0ffffffffH
	DD	FLAT:__unwindfunclet$?ChangeToDummyMake@ioEngineerItem@@IAEXPAVioPlayStage@@PAVioBaseChar@@H@Z$0
	DD	00H
	DD	FLAT:__unwindfunclet$?ChangeToDummyMake@ioEngineerItem@@IAEXPAVioPlayStage@@PAVioBaseChar@@H@Z$1
	DD	01H
	DD	FLAT:__unwindfunclet$?ChangeToDummyMake@ioEngineerItem@@IAEXPAVioPlayStage@@PAVioBaseChar@@H@Z$2
__ehfuncinfo$?ChangeToDummyMake@ioEngineerItem@@IAEXPAVioPlayStage@@PAVioBaseChar@@H@Z DD 019930522H
	DD	03H
	DD	FLAT:__unwindtable$?ChangeToDummyMake@ioEngineerItem@@IAEXPAVioPlayStage@@PAVioBaseChar@@H@Z
	DD	2 DUP(00H)
	DD	2 DUP(00H)
	DD	00H
	DD	01H
; Function compile flags: /Ogsp
; File d:\lost saga for developer\youtube\tutorial\source\src\lsclient\ioengineeritem.cpp
xdata$x	ENDS
;	COMDAT ?ChangeToDummyMake@ioEngineerItem@@IAEXPAVioPlayStage@@PAVioBaseChar@@H@Z
_TEXT	SEGMENT
_iCurIndex$GSCopy$ = -32868				; size = 4
_value$556394 = -32864					; size = 4
_pDummy$550411 = -32860					; size = 4
_szName$ = -32856					; size = 16
_List$550403 = -32840					; size = 16
_pGroup$ = -32824					; size = 4
_pStage$GSCopy$ = -32820				; size = 4
_dwKeyReserve$ = -32820					; size = 4
_pCurDummy$ = -32816					; size = 4
_pDieDummy$550418 = -32812				; size = 4
_iter$550405 = -32812					; size = 4
_kPacket$550421 = -32808				; size = 32792
__$ArrayPad$ = -16					; size = 4
__$EHRec$ = -12						; size = 12
_pStage$ = 8						; size = 4
_pOwner$ = 12						; size = 4
_iCurIndex$ = 16					; size = 4
?ChangeToDummyMake@ioEngineerItem@@IAEXPAVioPlayStage@@PAVioBaseChar@@H@Z PROC ; ioEngineerItem::ChangeToDummyMake, COMDAT
; _this$ = ecx

; 356  : {

  00000	55		 push	 ebp
  00001	8b ec		 mov	 ebp, esp
  00003	6a ff		 push	 -1
  00005	68 00 00 00 00	 push	 __ehhandler$?ChangeToDummyMake@ioEngineerItem@@IAEXPAVioPlayStage@@PAVioBaseChar@@H@Z
  0000a	64 a1 00 00 00
	00		 mov	 eax, DWORD PTR fs:0
  00010	50		 push	 eax
  00011	b8 58 80 00 00	 mov	 eax, 32856		; 00008058H
  00016	e8 00 00 00 00	 call	 __chkstk
  0001b	a1 00 00 00 00	 mov	 eax, DWORD PTR ___security_cookie
  00020	33 c5		 xor	 eax, ebp
  00022	89 45 f0	 mov	 DWORD PTR __$ArrayPad$[ebp], eax
  00025	53		 push	 ebx
  00026	56		 push	 esi
  00027	57		 push	 edi
  00028	50		 push	 eax
  00029	8d 45 f4	 lea	 eax, DWORD PTR __$EHRec$[ebp]
  0002c	64 a3 00 00 00
	00		 mov	 DWORD PTR fs:0, eax
  00032	8b 45 08	 mov	 eax, DWORD PTR _pStage$[ebp]
  00035	8b 7d 0c	 mov	 edi, DWORD PTR _pOwner$[ebp]

; 448  : 
; 449  : 	m_AttackState = AS_MAKE_DUMMY;

  00038	89 85 cc 7f ff
	ff		 mov	 DWORD PTR _pStage$GSCopy$[ebp], eax
  0003e	8b 45 10	 mov	 eax, DWORD PTR _iCurIndex$[ebp]
  00041	8b f1		 mov	 esi, ecx
  00043	8d 8d a8 7f ff
	ff		 lea	 ecx, DWORD PTR _szName$[ebp]
  00049	89 85 9c 7f ff
	ff		 mov	 DWORD PTR _iCurIndex$GSCopy$[ebp], eax
  0004f	ff 15 00 00 00
	00		 call	 DWORD PTR __imp_??0ioHashString@@QAE@XZ
  00055	33 db		 xor	 ebx, ebx
  00057	57		 push	 edi
  00058	8b ce		 mov	 ecx, esi
  0005a	89 5d fc	 mov	 DWORD PTR __$EHRec$[ebp+8], ebx
  0005d	89 9d d0 7f ff
	ff		 mov	 DWORD PTR _pCurDummy$[ebp], ebx
  00063	e8 00 00 00 00	 call	 ?GetDummyGroup@ioEngineerItem@@QAEPAVioDummyGroup@@PAVioBaseChar@@@Z ; ioEngineerItem::GetDummyGroup
  00068	89 85 c8 7f ff
	ff		 mov	 DWORD PTR _pGroup$[ebp], eax
  0006e	3b c3		 cmp	 eax, ebx
  00070	0f 84 a0 02 00
	00		 je	 $LN92@ChangeToDu

; 357  : 	ioHashString	szName;
; 358  : 	ioDummyChar*	pCurDummy = NULL;
; 359  : 
; 360  : 	ioDummyGroup* pGroup = GetDummyGroup( pOwner );
; 361  : 	if( !pGroup )
; 362  : 		return;
; 363  : 	
; 364  : 	if( pOwner->IsNeedProcess() )

  00076	8b 07		 mov	 eax, DWORD PTR [edi]
  00078	8b cf		 mov	 ecx, edi
  0007a	ff 90 00 01 00
	00		 call	 DWORD PTR [eax+256]
  00080	84 c0		 test	 al, al
  00082	0f 84 52 02 00
	00		 je	 $LN84@ChangeToDu

; 365  : 	{
; 366  : 		//   
; 367  : 		DummyCharList List;

  00088	89 9d b8 7f ff
	ff		 mov	 DWORD PTR _List$550403[ebp], ebx
  0008e	89 9d bc 7f ff
	ff		 mov	 DWORD PTR _List$550403[ebp+4], ebx
  00094	89 9d c0 7f ff
	ff		 mov	 DWORD PTR _List$550403[ebp+8], ebx

; 368  : 		pGroup->GetDummyByArea( m_fTurretUpgradeRange, List );

  0009a	f3 0f 10 86 c8
	19 00 00	 movss	 xmm0, DWORD PTR [esi+6600]
  000a2	8d 85 b8 7f ff
	ff		 lea	 eax, DWORD PTR _List$550403[ebp]
  000a8	50		 push	 eax
  000a9	51		 push	 ecx
  000aa	8b 8d c8 7f ff
	ff		 mov	 ecx, DWORD PTR _pGroup$[ebp]
  000b0	c6 45 fc 01	 mov	 BYTE PTR __$EHRec$[ebp+8], 1
  000b4	f3 0f 11 04 24	 movss	 DWORD PTR [esp], xmm0
  000b9	e8 00 00 00 00	 call	 ?GetDummyByArea@ioDummyGroup@@QAEXMAAV?$vector@PAVioDummyChar@@V?$allocator@PAVioDummyChar@@@std@@@std@@@Z ; ioDummyGroup::GetDummyByArea

; 369  : 
; 370  : 		//         
; 371  : 		float fMinGauge = m_fMaxExtraGauge;

  000be	8d 85 a0 7f ff
	ff		 lea	 eax, DWORD PTR _value$556394[ebp]
  000c4	50		 push	 eax
  000c5	8d 8e ac 16 00
	00		 lea	 ecx, DWORD PTR [esi+5804]
  000cb	e8 00 00 00 00	 call	 ?DecryptValueToPool@?$CEncrypt@M@@QAEXPAM@Z ; CEncrypt<float>::DecryptValueToPool

; 372  : 		for( DummyCharList::iterator iter = List.begin(); iter != List.end(); ++iter )

  000d0	8b 85 b8 7f ff
	ff		 mov	 eax, DWORD PTR _List$550403[ebp]
  000d6	89 85 d4 7f ff
	ff		 mov	 DWORD PTR _iter$550405[ebp], eax
  000dc	3b 85 bc 7f ff
	ff		 cmp	 eax, DWORD PTR _List$550403[ebp+4]
  000e2	74 68		 je	 SHORT $LN12@ChangeToDu
$LL44@ChangeToDu:

; 373  : 		{
; 374  : 			ioDummyChar* pDummy = *iter;

  000e4	8b 00		 mov	 eax, DWORD PTR [eax]
  000e6	89 85 a4 7f ff
	ff		 mov	 DWORD PTR _pDummy$550411[ebp], eax

; 375  : 			if( pDummy && GetDummyNeedGauge( pDummy->GetDummyCharName() ) < fMinGauge )

  000ec	3b c3		 cmp	 eax, ebx
  000ee	74 25		 je	 SHORT $LN15@ChangeToDu
  000f0	05 e0 01 00 00	 add	 eax, 480		; 000001e0H
  000f5	50		 push	 eax
  000f6	8b ce		 mov	 ecx, esi
  000f8	e8 00 00 00 00	 call	 ?GetDummyNeedGauge@ioEngineerItem@@IAEMABVioHashString@@@Z ; ioEngineerItem::GetDummyNeedGauge
  000fd	d9 85 a0 7f ff
	ff		 fld	 DWORD PTR _value$556394[ebp]
  00103	df f1		 fcomip	 ST(1)
  00105	dd d8		 fstp	 ST(0)
  00107	76 0c		 jbe	 SHORT $LN15@ChangeToDu

; 376  : 			{
; 377  : 				pCurDummy = pDummy;

  00109	8b 85 a4 7f ff
	ff		 mov	 eax, DWORD PTR _pDummy$550411[ebp]
  0010f	89 85 d0 7f ff
	ff		 mov	 DWORD PTR _pCurDummy$[ebp], eax
$LN15@ChangeToDu:

; 372  : 		for( DummyCharList::iterator iter = List.begin(); iter != List.end(); ++iter )

  00115	8b 85 d4 7f ff
	ff		 mov	 eax, DWORD PTR _iter$550405[ebp]
  0011b	83 c0 04	 add	 eax, 4
  0011e	89 85 d4 7f ff
	ff		 mov	 DWORD PTR _iter$550405[ebp], eax
  00124	3b 85 bc 7f ff
	ff		 cmp	 eax, DWORD PTR _List$550403[ebp+4]
  0012a	75 b8		 jne	 SHORT $LL44@ChangeToDu

; 378  : 			}
; 379  : 		}
; 380  : 
; 381  : 		//  ,         
; 382  : 		if( pCurDummy )

  0012c	8b 85 d0 7f ff
	ff		 mov	 eax, DWORD PTR _pCurDummy$[ebp]
  00132	3b c3		 cmp	 eax, ebx
  00134	74 16		 je	 SHORT $LN12@ChangeToDu

; 383  : 		{
; 384  : 			NextDummyName( pCurDummy->GetDummyCharName(), szName );

  00136	8d 8d a8 7f ff
	ff		 lea	 ecx, DWORD PTR _szName$[ebp]
  0013c	51		 push	 ecx
  0013d	05 e0 01 00 00	 add	 eax, 480		; 000001e0H
  00142	50		 push	 eax
  00143	8b ce		 mov	 ecx, esi
  00145	e8 00 00 00 00	 call	 ?NextDummyName@ioEngineerItem@@IAEXABVioHashString@@AAV2@@Z ; ioEngineerItem::NextDummyName

; 385  : 		}	
; 386  : 		else

  0014a	eb 0e		 jmp	 SHORT $LN11@ChangeToDu
$LN12@ChangeToDu:

; 387  : 		{
; 388  : 			FirstDummyName( szName );

  0014c	8d 85 a8 7f ff
	ff		 lea	 eax, DWORD PTR _szName$[ebp]
  00152	50		 push	 eax
  00153	8b ce		 mov	 ecx, esi
  00155	e8 00 00 00 00	 call	 ?FirstDummyName@ioEngineerItem@@IAEXAAVioHashString@@@Z ; ioEngineerItem::FirstDummyName
$LN11@ChangeToDu:

; 389  : 		}
; 390  : 
; 391  : 		if( szName.IsEmpty() )

  0015a	8d 8d a8 7f ff
	ff		 lea	 ecx, DWORD PTR _szName$[ebp]
  00160	ff 15 00 00 00
	00		 call	 DWORD PTR __imp_?IsEmpty@ioHashString@@QBE_NXZ
  00166	84 c0		 test	 al, al
  00168	74 14		 je	 SHORT $LN10@ChangeToDu
$LN95@ChangeToDu:

; 392  : 			return;

  0016a	8d 8d b8 7f ff
	ff		 lea	 ecx, DWORD PTR _List$550403[ebp]
  00170	c6 45 fc 00	 mov	 BYTE PTR __$EHRec$[ebp+8], 0
  00174	e8 00 00 00 00	 call	 ?_Tidy@?$vector@PAVioDummyChar@@V?$allocator@PAVioDummyChar@@@std@@@std@@IAEXXZ ; std::vector<ioDummyChar *,std::allocator<ioDummyChar *> >::_Tidy
  00179	e9 98 01 00 00	 jmp	 $LN92@ChangeToDu
$LN10@ChangeToDu:

; 393  : 
; 394  : 		// 
; 395  : 		ioDummyChar* pNewDummy = CreateDummyChar( szName, pStage, pOwner, iCurIndex );

  0017e	ff b5 9c 7f ff
	ff		 push	 DWORD PTR _iCurIndex$GSCopy$[ebp]
  00184	8d 85 a8 7f ff
	ff		 lea	 eax, DWORD PTR _szName$[ebp]
  0018a	57		 push	 edi
  0018b	ff b5 cc 7f ff
	ff		 push	 DWORD PTR _pStage$GSCopy$[ebp]
  00191	8b ce		 mov	 ecx, esi
  00193	50		 push	 eax
  00194	e8 00 00 00 00	 call	 ?CreateDummyChar@ioEngineerItem@@IAEPAVioDummyChar@@ABVioHashString@@PAVioPlayStage@@PAVioBaseChar@@H@Z ; ioEngineerItem::CreateDummyChar
  00199	8b d8		 mov	 ebx, eax

; 396  : 		if( !pNewDummy )

  0019b	85 db		 test	 ebx, ebx

; 397  : 			return;

  0019d	74 cb		 je	 SHORT $LN95@ChangeToDu

; 398  : 
; 399  : 		DummyUpgrade( pOwner, pGroup, pCurDummy, pNewDummy );

  0019f	53		 push	 ebx
  001a0	ff b5 d0 7f ff
	ff		 push	 DWORD PTR _pCurDummy$[ebp]
  001a6	8b ce		 mov	 ecx, esi
  001a8	ff b5 c8 7f ff
	ff		 push	 DWORD PTR _pGroup$[ebp]
  001ae	57		 push	 edi
  001af	e8 00 00 00 00	 call	 ?DummyUpgrade@ioEngineerItem@@IAEXPAVioBaseChar@@PAVioDummyGroup@@PAVioDummyChar@@2@Z ; ioEngineerItem::DummyUpgrade

; 400  : 
; 401  : 		// ,       
; 402  : 		ioDummyChar* pDieDummy = NULL;

  001b4	83 a5 d4 7f ff
	ff 00		 and	 DWORD PTR _pDieDummy$550418[ebp], 0

; 403  : 		if( GetTotalDummyGauge( pOwner ) > 5.0f )

  001bb	57		 push	 edi
  001bc	8b ce		 mov	 ecx, esi
  001be	e8 00 00 00 00	 call	 ?GetTotalDummyGauge@ioEngineerItem@@IAEMPAVioBaseChar@@@Z ; ioEngineerItem::GetTotalDummyGauge
  001c3	d9 05 00 00 00
	00		 fld	 DWORD PTR __real@40a00000
  001c9	d9 c9		 fxch	 ST(1)
  001cb	df f1		 fcomip	 ST(1)
  001cd	dd d8		 fstp	 ST(0)
  001cf	76 12		 jbe	 SHORT $LN8@ChangeToDu

; 404  : 		{
; 405  : 			pDieDummy = pGroup->FirstDummyDie( pNewDummy );

  001d1	8b 8d c8 7f ff
	ff		 mov	 ecx, DWORD PTR _pGroup$[ebp]
  001d7	53		 push	 ebx
  001d8	e8 00 00 00 00	 call	 ?FirstDummyDie@ioDummyGroup@@QAEPAVioDummyChar@@PAV2@@Z ; ioDummyGroup::FirstDummyDie
  001dd	89 85 d4 7f ff
	ff		 mov	 DWORD PTR _pDieDummy$550418[ebp], eax
$LN8@ChangeToDu:

; 406  : 		}
; 407  : 
; 408  : 		if( pOwner->IsNeedSendNetwork() )

  001e3	8b 07		 mov	 eax, DWORD PTR [edi]
  001e5	8b cf		 mov	 ecx, edi
  001e7	ff 90 04 01 00
	00		 call	 DWORD PTR [eax+260]
  001ed	84 c0		 test	 al, al
  001ef	0f 84 d4 00 00
	00		 je	 $LN7@ChangeToDu

; 409  : 		{
; 410  : 			SP2Packet kPacket( CUPK_ITEM_GAUGE_OK );

  001f5	68 27 41 00 00	 push	 16679			; 00004127H
  001fa	8d 8d d8 7f ff
	ff		 lea	 ecx, DWORD PTR _kPacket$550421[ebp]
  00200	e8 00 00 00 00	 call	 ??0SP2Packet@@QAE@K@Z	; SP2Packet::SP2Packet

; 411  : 			FillItemGaugePacketHeader( pOwner, kPacket );

  00205	8d 85 d8 7f ff
	ff		 lea	 eax, DWORD PTR _kPacket$550421[ebp]
  0020b	50		 push	 eax
  0020c	57		 push	 edi
  0020d	8b ce		 mov	 ecx, esi
  0020f	c6 45 fc 02	 mov	 BYTE PTR __$EHRec$[ebp+8], 2
  00213	e8 00 00 00 00	 call	 ?FillItemGaugePacketHeader@ioAttackableItem@@QAEXPAVioBaseChar@@AAVSP2Packet@@@Z ; ioAttackableItem::FillItemGaugePacketHeader

; 412  : 			kPacket << static_cast<byte>( AS_MAKE_DUMMY );

  00218	6a 03		 push	 3
  0021a	8d 8d d8 7f ff
	ff		 lea	 ecx, DWORD PTR _kPacket$550421[ebp]
  00220	e8 00 00 00 00	 call	 ??6SP2Packet@@QAEAAV0@E@Z ; SP2Packet::operator<<

; 413  : 			kPacket << pOwner->GetTargetRot();

  00225	8d 87 a4 06 00
	00		 lea	 eax, DWORD PTR [edi+1700]
  0022b	50		 push	 eax
  0022c	8d 8d d8 7f ff
	ff		 lea	 ecx, DWORD PTR _kPacket$550421[ebp]
  00232	e8 00 00 00 00	 call	 ??6SP2Packet@@QAEAAV0@ABUD3DXQUATERNION@@@Z ; SP2Packet::operator<<

; 414  : 			kPacket << pOwner->GetWorldPosition();

  00237	8b 07		 mov	 eax, DWORD PTR [edi]
  00239	8b cf		 mov	 ecx, edi
  0023b	ff 50 70	 call	 DWORD PTR [eax+112]
  0023e	50		 push	 eax
  0023f	8d 8d d8 7f ff
	ff		 lea	 ecx, DWORD PTR _kPacket$550421[ebp]
  00245	e8 00 00 00 00	 call	 ??6SP2Packet@@QAEAAV0@ABUD3DXVECTOR3@@@Z ; SP2Packet::operator<<

; 415  : 
; 416  : 			if( pNewDummy )
; 417  : 			{
; 418  : 				kPacket << szName;

  0024a	8d 85 a8 7f ff
	ff		 lea	 eax, DWORD PTR _szName$[ebp]
  00250	50		 push	 eax
  00251	8d 8d d8 7f ff
	ff		 lea	 ecx, DWORD PTR _kPacket$550421[ebp]
  00257	e8 00 00 00 00	 call	 ??6SP2Packet@@QAEAAV0@ABVioHashString@@@Z ; SP2Packet::operator<<

; 419  : 				kPacket << pNewDummy->GetDummyCharIdx();

  0025c	ff b3 dc 01 00
	00		 push	 DWORD PTR [ebx+476]
  00262	8d 8d d8 7f ff
	ff		 lea	 ecx, DWORD PTR _kPacket$550421[ebp]
  00268	e8 00 00 00 00	 call	 ??6SP2Packet@@QAEAAV0@H@Z ; SP2Packet::operator<<

; 420  : 			}
; 421  : 			else
; 422  : 			{
; 423  : 				kPacket << 0;
; 424  : 				kPacket << "";
; 425  : 			}
; 426  : 
; 427  : 			if( pCurDummy )

  0026d	8b 85 d0 7f ff
	ff		 mov	 eax, DWORD PTR _pCurDummy$[ebp]
  00273	33 db		 xor	 ebx, ebx

; 428  : 			{
; 429  : 				kPacket << pCurDummy->GetDummyCharIdx();

  00275	8d 8d d8 7f ff
	ff		 lea	 ecx, DWORD PTR _kPacket$550421[ebp]
  0027b	3b c3		 cmp	 eax, ebx
  0027d	74 08		 je	 SHORT $LN4@ChangeToDu
  0027f	ff b0 dc 01 00
	00		 push	 DWORD PTR [eax+476]

; 430  : 			}
; 431  : 			else

  00285	eb 01		 jmp	 SHORT $LN93@ChangeToDu
$LN4@ChangeToDu:

; 432  : 			{
; 433  : 				kPacket << 0;

  00287	53		 push	 ebx
$LN93@ChangeToDu:
  00288	e8 00 00 00 00	 call	 ??6SP2Packet@@QAEAAV0@H@Z ; SP2Packet::operator<<

; 434  : 			}
; 435  : 
; 436  : 			if( pDieDummy )

  0028d	8b 85 d4 7f ff
	ff		 mov	 eax, DWORD PTR _pDieDummy$550418[ebp]

; 437  : 			{
; 438  : 				kPacket << pDieDummy->GetDummyCharIdx();

  00293	8d 8d d8 7f ff
	ff		 lea	 ecx, DWORD PTR _kPacket$550421[ebp]
  00299	3b c3		 cmp	 eax, ebx
  0029b	74 08		 je	 SHORT $LN2@ChangeToDu
  0029d	ff b0 dc 01 00
	00		 push	 DWORD PTR [eax+476]

; 439  : 			}
; 440  : 			else

  002a3	eb 01		 jmp	 SHORT $LN94@ChangeToDu
$LN2@ChangeToDu:

; 441  : 			{
; 442  : 				kPacket << 0;

  002a5	53		 push	 ebx
$LN94@ChangeToDu:
  002a6	e8 00 00 00 00	 call	 ??6SP2Packet@@QAEAAV0@H@Z ; SP2Packet::operator<<

; 443  : 			}
; 444  : 
; 445  : 			P2PNetwork::SendToAllPlayingUser( kPacket );

  002ab	8d 85 d8 7f ff
	ff		 lea	 eax, DWORD PTR _kPacket$550421[ebp]
  002b1	53		 push	 ebx
  002b2	50		 push	 eax
  002b3	e8 00 00 00 00	 call	 ?SendToAllPlayingUser@P2PNetwork@@YAXAAVSP2Packet@@PAVioBaseChar@@@Z ; P2PNetwork::SendToAllPlayingUser
  002b8	59		 pop	 ecx
  002b9	59		 pop	 ecx

; 446  : 		}

  002ba	8d 8d d8 7f ff
	ff		 lea	 ecx, DWORD PTR _kPacket$550421[ebp]
  002c0	c6 45 fc 01	 mov	 BYTE PTR __$EHRec$[ebp+8], 1
  002c4	e8 00 00 00 00	 call	 ??1SP2Packet@@UAE@XZ	; SP2Packet::~SP2Packet
$LN7@ChangeToDu:

; 447  : 	}

  002c9	8d 8d b8 7f ff
	ff		 lea	 ecx, DWORD PTR _List$550403[ebp]
  002cf	c6 45 fc 00	 mov	 BYTE PTR __$EHRec$[ebp+8], 0
  002d3	e8 00 00 00 00	 call	 ?_Tidy@?$vector@PAVioDummyChar@@V?$allocator@PAVioDummyChar@@@std@@@std@@IAEXXZ ; std::vector<ioDummyChar *,std::allocator<ioDummyChar *> >::_Tidy
  002d8	33 db		 xor	 ebx, ebx
$LN84@ChangeToDu:

; 450  : 
; 451  : 	DWORD dwKeyReserve = 0;
; 452  : 	SetActionAni( pOwner, m_TurretDummyMakeAnimation, m_fTurretDummyMakeAnimationRate, 0, m_dwTurretDummyMakeEndTime, dwKeyReserve );

  002da	f3 0f 10 86 c4
	19 00 00	 movss	 xmm0, DWORD PTR [esi+6596]
  002e2	8d 85 cc 7f ff
	ff		 lea	 eax, DWORD PTR _dwKeyReserve$[ebp]
  002e8	50		 push	 eax
  002e9	8d 86 d0 19 00
	00		 lea	 eax, DWORD PTR [esi+6608]
  002ef	50		 push	 eax
  002f0	53		 push	 ebx
  002f1	51		 push	 ecx
  002f2	f3 0f 11 04 24	 movss	 DWORD PTR [esp], xmm0
  002f7	8d 86 b4 19 00
	00		 lea	 eax, DWORD PTR [esi+6580]
  002fd	50		 push	 eax
  002fe	57		 push	 edi
  002ff	8b ce		 mov	 ecx, esi
  00301	c7 86 54 19 00
	00 03 00 00 00	 mov	 DWORD PTR [esi+6484], 3
  0030b	89 9d cc 7f ff
	ff		 mov	 DWORD PTR _dwKeyReserve$[ebp], ebx
  00311	e8 00 00 00 00	 call	 ?SetActionAni@ioEngineerItem@@IAEHPAVioBaseChar@@ABVioHashString@@MKAAK2@Z ; ioEngineerItem::SetActionAni
$LN92@ChangeToDu:

; 453  : }

  00316	83 4d fc ff	 or	 DWORD PTR __$EHRec$[ebp+8], -1
  0031a	8d 8d a8 7f ff
	ff		 lea	 ecx, DWORD PTR _szName$[ebp]
  00320	ff 15 00 00 00
	00		 call	 DWORD PTR __imp_??1ioHashString@@QAE@XZ
  00326	8b 4d f4	 mov	 ecx, DWORD PTR __$EHRec$[ebp]
  00329	64 89 0d 00 00
	00 00		 mov	 DWORD PTR fs:0, ecx
  00330	59		 pop	 ecx
  00331	5f		 pop	 edi
  00332	5e		 pop	 esi
  00333	5b		 pop	 ebx
  00334	8b 4d f0	 mov	 ecx, DWORD PTR __$ArrayPad$[ebp]
  00337	33 cd		 xor	 ecx, ebp
  00339	e8 00 00 00 00	 call	 @__security_check_cookie@4
  0033e	c9		 leave
  0033f	c2 0c 00	 ret	 12			; 0000000cH
_TEXT	ENDS
;	COMDAT text$x
text$x	SEGMENT
__unwindfunclet$?ChangeToDummyMake@ioEngineerItem@@IAEXPAVioPlayStage@@PAVioBaseChar@@H@Z$0:
  00000	8d 8d a8 7f ff
	ff		 lea	 ecx, DWORD PTR _szName$[ebp]
  00006	ff 25 00 00 00
	00		 jmp	 DWORD PTR __imp_??1ioHashString@@QAE@XZ
__unwindfunclet$?ChangeToDummyMake@ioEngineerItem@@IAEXPAVioPlayStage@@PAVioBaseChar@@H@Z$1:
  0000c	8d 8d b8 7f ff
	ff		 lea	 ecx, DWORD PTR _List$550403[ebp]
  00012	e9 00 00 00 00	 jmp	 ??1?$vector@PAVioDummyChar@@V?$allocator@PAVioDummyChar@@@std@@@std@@QAE@XZ ; std::vector<ioDummyChar *,std::allocator<ioDummyChar *> >::~vector<ioDummyChar *,std::allocator<ioDummyChar *> >
__unwindfunclet$?ChangeToDummyMake@ioEngineerItem@@IAEXPAVioPlayStage@@PAVioBaseChar@@H@Z$2:
  00017	8d 8d d8 7f ff
	ff		 lea	 ecx, DWORD PTR _kPacket$550421[ebp]
  0001d	e9 00 00 00 00	 jmp	 ??1SP2Packet@@UAE@XZ	; SP2Packet::~SP2Packet
__ehhandler$?ChangeToDummyMake@ioEngineerItem@@IAEXPAVioPlayStage@@PAVioBaseChar@@H@Z:
  00022	8b 54 24 08	 mov	 edx, DWORD PTR [esp+8]
  00026	8d 42 0c	 lea	 eax, DWORD PTR [edx+12]
  00029	8b 8a 98 7f ff
	ff		 mov	 ecx, DWORD PTR [edx-32872]
  0002f	33 c8		 xor	 ecx, eax
  00031	e8 00 00 00 00	 call	 @__security_check_cookie@4
  00036	8b 4a fc	 mov	 ecx, DWORD PTR [edx-4]
  00039	33 c8		 xor	 ecx, eax
  0003b	e8 00 00 00 00	 call	 @__security_check_cookie@4
  00040	b8 00 00 00 00	 mov	 eax, OFFSET __ehfuncinfo$?ChangeToDummyMake@ioEngineerItem@@IAEXPAVioPlayStage@@PAVioBaseChar@@H@Z
  00045	e9 00 00 00 00	 jmp	 ___CxxFrameHandler3
text$x	ENDS
?ChangeToDummyMake@ioEngineerItem@@IAEXPAVioPlayStage@@PAVioBaseChar@@H@Z ENDP ; ioEngineerItem::ChangeToDummyMake
PUBLIC	??_C@_0BM@DPLMONB@?$CFs?5Create?5Dummy?5Failed?5?3?5?$CFs?$AA@ ; `string'
PUBLIC	??_C@_0BO@BGAAPIOP@ioEngineerItem?3?3OnItemGaugeOK?$AA@ ; `string'
PUBLIC	_rkPacket$GSCopy$
PUBLIC	_this$GSCopy$
PUBLIC	?OnItemGaugeOK@ioEngineerItem@@UAEXPAVioBaseChar@@AAVSP2Packet@@@Z ; ioEngineerItem::OnItemGaugeOK
EXTRN	__imp_?PrintTimeAndLog@CLog@@QAAXHPADZZ:PROC
EXTRN	__imp_?LOG@@3VCLog@@A:BYTE
EXTRN	__imp_?c_str@ioHashString@@QBEPBDXZ:PROC
EXTRN	??5SP2Packet@@QAEAAV0@AAH@Z:PROC		; SP2Packet::operator>>
EXTRN	??5SP2Packet@@QAEAAV0@AAVioHashString@@@Z:PROC	; SP2Packet::operator>>
EXTRN	??5SP2Packet@@QAEAAV0@AAUD3DXVECTOR3@@@Z:PROC	; SP2Packet::operator>>
EXTRN	__imp_?VEC3_ZERO@ioMath@@2UD3DXVECTOR3@@A:BYTE
EXTRN	?SetTargetRot@ioBaseChar@@QAEXABUD3DXQUATERNION@@@Z:PROC ; ioBaseChar::SetTargetRot
EXTRN	??5SP2Packet@@QAEAAV0@AAUD3DXQUATERNION@@@Z:PROC ; SP2Packet::operator>>
EXTRN	??5SP2Packet@@QAEAAV0@AAE@Z:PROC		; SP2Packet::operator>>
;	COMDAT ??_C@_0BM@DPLMONB@?$CFs?5Create?5Dummy?5Failed?5?3?5?$CFs?$AA@
; File d:\lost saga for developer\youtube\tutorial\source\src\lsclient\iobasechar.h
CONST	SEGMENT
??_C@_0BM@DPLMONB@?$CFs?5Create?5Dummy?5Failed?5?3?5?$CFs?$AA@ DB '%s Cre'
	DB	'ate Dummy Failed : %s', 00H			; `string'
CONST	ENDS
;	COMDAT ??_C@_0BO@BGAAPIOP@ioEngineerItem?3?3OnItemGaugeOK?$AA@
CONST	SEGMENT
??_C@_0BO@BGAAPIOP@ioEngineerItem?3?3OnItemGaugeOK?$AA@ DB 'ioEngineerIte'
	DB	'm::OnItemGaugeOK', 00H			; `string'
CONST	ENDS
;	COMDAT xdata$x
xdata$x	SEGMENT
__unwindtable$?OnItemGaugeOK@ioEngineerItem@@UAEXPAVioBaseChar@@AAVSP2Packet@@@Z DD 0ffffffffH
	DD	FLAT:__unwindfunclet$?OnItemGaugeOK@ioEngineerItem@@UAEXPAVioBaseChar@@AAVSP2Packet@@@Z$0
__ehfuncinfo$?OnItemGaugeOK@ioEngineerItem@@UAEXPAVioBaseChar@@AAVSP2Packet@@@Z DD 019930522H
	DD	01H
	DD	FLAT:__unwindtable$?OnItemGaugeOK@ioEngineerItem@@UAEXPAVioBaseChar@@AAVSP2Packet@@@Z
	DD	2 DUP(00H)
	DD	2 DUP(00H)
	DD	00H
	DD	01H
; Function compile flags: /Ogsp
; File d:\lost saga for developer\youtube\tutorial\source\src\lsclient\ioengineeritem.cpp
xdata$x	ENDS
;	COMDAT ?OnItemGaugeOK@ioEngineerItem@@UAEXPAVioBaseChar@@AAVSP2Packet@@@Z
_TEXT	SEGMENT
_qtRot$ = -88						; size = 16
_szNewDummy$550484 = -72				; size = 16
_pNewDummy$550488 = -56					; size = 4
_pCurDummy$550492 = -52					; size = 4
_iCurDummyIndex$550486 = -48				; size = 4
_iNewDummyIndex$550485 = -44				; size = 4
_this$GSCopy$ = -40					; size = 4
_rkPacket$GSCopy$ = -36					; size = 4
_iDieDummyIndex$550487 = -36				; size = 4
_eState$ = -29						; size = 1
_vPos$550483 = -28					; size = 12
__$EHRec$ = -12						; size = 12
_pOwner$ = 8						; size = 4
_rkPacket$ = 12						; size = 4
?OnItemGaugeOK@ioEngineerItem@@UAEXPAVioBaseChar@@AAVSP2Packet@@@Z PROC ; ioEngineerItem::OnItemGaugeOK, COMDAT
; _this$ = ecx

; 528  : {

  00000	6a 4c		 push	 76			; 0000004cH
  00002	b8 00 00 00 00	 mov	 eax, __ehhandler$?OnItemGaugeOK@ioEngineerItem@@UAEXPAVioBaseChar@@AAVSP2Packet@@@Z
  00007	e8 00 00 00 00	 call	 __EH_prolog3_GS
  0000c	8b 5d 08	 mov	 ebx, DWORD PTR _pOwner$[ebp]
  0000f	8b 75 0c	 mov	 esi, DWORD PTR _rkPacket$[ebp]
  00012	8b f9		 mov	 edi, ecx

; 538  : 	{
; 539  : 	case AS_ATTACK_FIRE:
; 540  : 		{	
; 541  : 			rkPacket >> m_iCurCombo;

  00014	89 7d d8	 mov	 DWORD PTR _this$GSCopy$[ebp], edi
  00017	89 75 dc	 mov	 DWORD PTR _rkPacket$GSCopy$[ebp], esi
  0001a	85 db		 test	 ebx, ebx
  0001c	0f 84 5e 01 00
	00		 je	 $LN6@OnItemGaug

; 529  : 	if( !pOwner ) return;
; 530  : 	byte eState;
; 531  : 	rkPacket >> eState;

  00022	8d 45 e3	 lea	 eax, DWORD PTR _eState$[ebp]
  00025	50		 push	 eax
  00026	8b ce		 mov	 ecx, esi
  00028	e8 00 00 00 00	 call	 ??5SP2Packet@@QAEAAV0@AAE@Z ; SP2Packet::operator>>

; 532  : 
; 533  : 	D3DXQUATERNION qtRot;
; 534  : 	rkPacket >> qtRot;

  0002d	8d 45 a8	 lea	 eax, DWORD PTR _qtRot$[ebp]
  00030	50		 push	 eax
  00031	8b ce		 mov	 ecx, esi
  00033	e8 00 00 00 00	 call	 ??5SP2Packet@@QAEAAV0@AAUD3DXQUATERNION@@@Z ; SP2Packet::operator>>

; 535  : 	pOwner->SetTargetRot( qtRot );

  00038	8d 45 a8	 lea	 eax, DWORD PTR _qtRot$[ebp]
  0003b	50		 push	 eax
  0003c	8b cb		 mov	 ecx, ebx
  0003e	e8 00 00 00 00	 call	 ?SetTargetRot@ioBaseChar@@QAEXABUD3DXQUATERNION@@@Z ; ioBaseChar::SetTargetRot

; 536  : 
; 537  : 	switch( eState )

  00043	0f b6 45 e3	 movzx	 eax, BYTE PTR _eState$[ebp]
  00047	48		 dec	 eax
  00048	48		 dec	 eax
  00049	0f 84 1b 01 00
	00		 je	 $LN5@OnItemGaug
  0004f	48		 dec	 eax
  00050	0f 85 2a 01 00
	00		 jne	 $LN6@OnItemGaug

; 543  : 		}
; 544  : 		break;
; 545  : 	case AS_MAKE_DUMMY:
; 546  : 		{
; 547  : 			D3DXVECTOR3 vPos = ioMath::VEC3_ZERO;

  00056	8b 35 00 00 00
	00		 mov	 esi, DWORD PTR __imp_?VEC3_ZERO@ioMath@@2UD3DXVECTOR3@@A
  0005c	8d 7d e4	 lea	 edi, DWORD PTR _vPos$550483[ebp]
  0005f	a5		 movsd
  00060	a5		 movsd
  00061	a5		 movsd

; 548  : 			rkPacket >> vPos;

  00062	8b 7d dc	 mov	 edi, DWORD PTR _rkPacket$GSCopy$[ebp]
  00065	8d 45 e4	 lea	 eax, DWORD PTR _vPos$550483[ebp]
  00068	50		 push	 eax
  00069	8b cf		 mov	 ecx, edi
  0006b	e8 00 00 00 00	 call	 ??5SP2Packet@@QAEAAV0@AAUD3DXVECTOR3@@@Z ; SP2Packet::operator>>

; 549  : 
; 550  : 			ioHashString szNewDummy;

  00070	8d 4d b8	 lea	 ecx, DWORD PTR _szNewDummy$550484[ebp]
  00073	ff 15 00 00 00
	00		 call	 DWORD PTR __imp_??0ioHashString@@QAE@XZ
  00079	33 f6		 xor	 esi, esi

; 551  : 			int iNewDummyIndex = 0;
; 552  : 			int iCurDummyIndex = 0;			
; 553  : 			int iDieDummyIndex = 0;
; 554  : 
; 555  : 			rkPacket >> szNewDummy;

  0007b	8d 45 b8	 lea	 eax, DWORD PTR _szNewDummy$550484[ebp]
  0007e	50		 push	 eax
  0007f	8b cf		 mov	 ecx, edi
  00081	89 75 fc	 mov	 DWORD PTR __$EHRec$[ebp+8], esi
  00084	89 75 d4	 mov	 DWORD PTR _iNewDummyIndex$550485[ebp], esi
  00087	89 75 d0	 mov	 DWORD PTR _iCurDummyIndex$550486[ebp], esi
  0008a	89 75 dc	 mov	 DWORD PTR _iDieDummyIndex$550487[ebp], esi
  0008d	e8 00 00 00 00	 call	 ??5SP2Packet@@QAEAAV0@AAVioHashString@@@Z ; SP2Packet::operator>>

; 556  : 			rkPacket >> iNewDummyIndex;

  00092	8d 45 d4	 lea	 eax, DWORD PTR _iNewDummyIndex$550485[ebp]
  00095	50		 push	 eax
  00096	8b cf		 mov	 ecx, edi
  00098	e8 00 00 00 00	 call	 ??5SP2Packet@@QAEAAV0@AAH@Z ; SP2Packet::operator>>

; 557  : 			rkPacket >> iCurDummyIndex;

  0009d	8d 45 d0	 lea	 eax, DWORD PTR _iCurDummyIndex$550486[ebp]
  000a0	50		 push	 eax
  000a1	8b cf		 mov	 ecx, edi
  000a3	e8 00 00 00 00	 call	 ??5SP2Packet@@QAEAAV0@AAH@Z ; SP2Packet::operator>>

; 558  : 			rkPacket >> iDieDummyIndex;

  000a8	8d 45 dc	 lea	 eax, DWORD PTR _iDieDummyIndex$550487[ebp]
  000ab	50		 push	 eax
  000ac	8b cf		 mov	 ecx, edi
  000ae	e8 00 00 00 00	 call	 ??5SP2Packet@@QAEAAV0@AAH@Z ; SP2Packet::operator>>

; 559  : 
; 560  : 			ioDummyChar* pNewDummy = CreateDummyChar( szNewDummy, pOwner->GetCreator(), pOwner, iNewDummyIndex );

  000b3	ff 75 d4	 push	 DWORD PTR _iNewDummyIndex$550485[ebp]
  000b6	8b 83 44 03 00
	00		 mov	 eax, DWORD PTR [ebx+836]
  000bc	8b 4d d8	 mov	 ecx, DWORD PTR _this$GSCopy$[ebp]
  000bf	53		 push	 ebx
  000c0	50		 push	 eax
  000c1	8d 45 b8	 lea	 eax, DWORD PTR _szNewDummy$550484[ebp]
  000c4	50		 push	 eax
  000c5	e8 00 00 00 00	 call	 ?CreateDummyChar@ioEngineerItem@@IAEPAVioDummyChar@@ABVioHashString@@PAVioPlayStage@@PAVioBaseChar@@H@Z ; ioEngineerItem::CreateDummyChar
  000ca	89 45 c8	 mov	 DWORD PTR _pNewDummy$550488[ebp], eax

; 561  : 			if( !pNewDummy )

  000cd	3b c6		 cmp	 eax, esi
  000cf	75 26		 jne	 SHORT $LN3@OnItemGaug

; 562  : 			{
; 563  : 				LOG.PrintTimeAndLog(0, "%s Create Dummy Failed : %s", __FUNCTION__, szNewDummy.c_str() );

  000d1	8d 4d b8	 lea	 ecx, DWORD PTR _szNewDummy$550484[ebp]
  000d4	ff 15 00 00 00
	00		 call	 DWORD PTR __imp_?c_str@ioHashString@@QBEPBDXZ
  000da	50		 push	 eax
  000db	68 00 00 00 00	 push	 OFFSET ??_C@_0BO@BGAAPIOP@ioEngineerItem?3?3OnItemGaugeOK?$AA@
  000e0	68 00 00 00 00	 push	 OFFSET ??_C@_0BM@DPLMONB@?$CFs?5Create?5Dummy?5Failed?5?3?5?$CFs?$AA@
  000e5	56		 push	 esi
  000e6	ff 35 00 00 00
	00		 push	 DWORD PTR __imp_?LOG@@3VCLog@@A
  000ec	ff 15 00 00 00
	00		 call	 DWORD PTR __imp_?PrintTimeAndLog@CLog@@QAAXHPADZZ
  000f2	83 c4 14	 add	 esp, 20			; 00000014H

; 564  : 				return;

  000f5	eb 64		 jmp	 SHORT $LN19@OnItemGaug
$LN3@OnItemGaug:

; 565  : 			}
; 566  : 
; 567  : 			ioDummyChar *pCurDummy = g_DummyCharMgr.FindDummyChar( pOwner, iCurDummyIndex );

  000f7	ff 75 d0	 push	 DWORD PTR _iCurDummyIndex$550486[ebp]
  000fa	53		 push	 ebx
  000fb	e8 00 00 00 00	 call	 ?GetSingleton@ioDummyCharManager@@SAAAV1@XZ ; ioDummyCharManager::GetSingleton
  00100	8b c8		 mov	 ecx, eax
  00102	e8 00 00 00 00	 call	 ?FindDummyChar@ioDummyCharManager@@QAEPAVioDummyChar@@PAVioBaseChar@@H@Z ; ioDummyCharManager::FindDummyChar

; 568  : 			ioDummyChar *pDieDummy = g_DummyCharMgr.FindDummyChar( pOwner, iDieDummyIndex );

  00107	ff 75 dc	 push	 DWORD PTR _iDieDummyIndex$550487[ebp]
  0010a	89 45 cc	 mov	 DWORD PTR _pCurDummy$550492[ebp], eax
  0010d	53		 push	 ebx
  0010e	e8 00 00 00 00	 call	 ?GetSingleton@ioDummyCharManager@@SAAAV1@XZ ; ioDummyCharManager::GetSingleton
  00113	8b c8		 mov	 ecx, eax
  00115	e8 00 00 00 00	 call	 ?FindDummyChar@ioDummyCharManager@@QAEPAVioDummyChar@@PAVioBaseChar@@H@Z ; ioDummyCharManager::FindDummyChar

; 569  : 			
; 570  : 			ioDummyGroup* pGroup = GetDummyGroup( pOwner );

  0011a	8b 4d d8	 mov	 ecx, DWORD PTR _this$GSCopy$[ebp]
  0011d	53		 push	 ebx
  0011e	8b f8		 mov	 edi, eax
  00120	e8 00 00 00 00	 call	 ?GetDummyGroup@ioEngineerItem@@QAEPAVioDummyGroup@@PAVioBaseChar@@@Z ; ioEngineerItem::GetDummyGroup

; 571  : 			if( !pGroup )

  00125	3b c6		 cmp	 eax, esi

; 572  : 				return;

  00127	74 32		 je	 SHORT $LN19@OnItemGaug

; 573  : 			
; 574  : 			DummyUpgrade( pOwner, pGroup, pCurDummy, pNewDummy );

  00129	ff 75 c8	 push	 DWORD PTR _pNewDummy$550488[ebp]
  0012c	8b 4d d8	 mov	 ecx, DWORD PTR _this$GSCopy$[ebp]
  0012f	ff 75 cc	 push	 DWORD PTR _pCurDummy$550492[ebp]
  00132	50		 push	 eax
  00133	53		 push	 ebx
  00134	e8 00 00 00 00	 call	 ?DummyUpgrade@ioEngineerItem@@IAEXPAVioBaseChar@@PAVioDummyGroup@@PAVioDummyChar@@2@Z ; ioEngineerItem::DummyUpgrade

; 575  : 			if( pDieDummy )

  00139	3b fe		 cmp	 edi, esi
  0013b	74 0d		 je	 SHORT $LN1@OnItemGaug

; 576  : 				pDieDummy->SetDieState( true );

  0013d	8b 07		 mov	 eax, DWORD PTR [edi]
  0013f	56		 push	 esi
  00140	6a 01		 push	 1
  00142	8b cf		 mov	 ecx, edi
  00144	ff 90 1c 01 00
	00		 call	 DWORD PTR [eax+284]
$LN1@OnItemGaug:

; 577  : 
; 578  : 			ChangeToDummyMake( pOwner->GetCreator(), pOwner, 0 );

  0014a	8b 83 44 03 00
	00		 mov	 eax, DWORD PTR [ebx+836]
  00150	8b 4d d8	 mov	 ecx, DWORD PTR _this$GSCopy$[ebp]
  00153	56		 push	 esi
  00154	53		 push	 ebx
  00155	50		 push	 eax
  00156	e8 00 00 00 00	 call	 ?ChangeToDummyMake@ioEngineerItem@@IAEXPAVioPlayStage@@PAVioBaseChar@@H@Z ; ioEngineerItem::ChangeToDummyMake
$LN19@OnItemGaug:

; 579  : 		}

  0015b	83 4d fc ff	 or	 DWORD PTR __$EHRec$[ebp+8], -1
  0015f	8d 4d b8	 lea	 ecx, DWORD PTR _szNewDummy$550484[ebp]
  00162	ff 15 00 00 00
	00		 call	 DWORD PTR __imp_??1ioHashString@@QAE@XZ

; 580  : 		break;

  00168	eb 16		 jmp	 SHORT $LN6@OnItemGaug
$LN5@OnItemGaug:

; 538  : 	{
; 539  : 	case AS_ATTACK_FIRE:
; 540  : 		{	
; 541  : 			rkPacket >> m_iCurCombo;

  0016a	8d 87 5c 19 00
	00		 lea	 eax, DWORD PTR [edi+6492]
  00170	50		 push	 eax
  00171	8b ce		 mov	 ecx, esi
  00173	e8 00 00 00 00	 call	 ??5SP2Packet@@QAEAAV0@AAH@Z ; SP2Packet::operator>>

; 542  : 			ChangeToAttackFire( pOwner );

  00178	53		 push	 ebx
  00179	8b cf		 mov	 ecx, edi
  0017b	e8 00 00 00 00	 call	 ?ChangeToAttackFire@ioEngineerItem@@IAEXPAVioBaseChar@@@Z ; ioEngineerItem::ChangeToAttackFire
$LN6@OnItemGaug:

; 581  : 	}	
; 582  : }

  00180	e8 00 00 00 00	 call	 __EH_epilog3_GS
  00185	c2 08 00	 ret	 8
_TEXT	ENDS
;	COMDAT text$x
text$x	SEGMENT
__unwindfunclet$?OnItemGaugeOK@ioEngineerItem@@UAEXPAVioBaseChar@@AAVSP2Packet@@@Z$0:
  00000	8d 4d b8	 lea	 ecx, DWORD PTR _szNewDummy$550484[ebp]
  00003	ff 25 00 00 00
	00		 jmp	 DWORD PTR __imp_??1ioHashString@@QAE@XZ
__ehhandler$?OnItemGaugeOK@ioEngineerItem@@UAEXPAVioBaseChar@@AAVSP2Packet@@@Z:
  00009	8b 54 24 08	 mov	 edx, DWORD PTR [esp+8]
  0000d	8d 42 0c	 lea	 eax, DWORD PTR [edx+12]
  00010	8b 4a a4	 mov	 ecx, DWORD PTR [edx-92]
  00013	33 c8		 xor	 ecx, eax
  00015	e8 00 00 00 00	 call	 @__security_check_cookie@4
  0001a	8b 4a fc	 mov	 ecx, DWORD PTR [edx-4]
  0001d	33 c8		 xor	 ecx, eax
  0001f	e8 00 00 00 00	 call	 @__security_check_cookie@4
  00024	b8 00 00 00 00	 mov	 eax, OFFSET __ehfuncinfo$?OnItemGaugeOK@ioEngineerItem@@UAEXPAVioBaseChar@@AAVSP2Packet@@@Z
  00029	e9 00 00 00 00	 jmp	 ___CxxFrameHandler3
text$x	ENDS
?OnItemGaugeOK@ioEngineerItem@@UAEXPAVioBaseChar@@AAVSP2Packet@@@Z ENDP ; ioEngineerItem::OnItemGaugeOK
PUBLIC	?UpdateExtraData@ioEngineerItem@@UAEXPAVioBaseChar@@@Z ; ioEngineerItem::UpdateExtraData
; Function compile flags: /Ogsp
;	COMDAT ?UpdateExtraData@ioEngineerItem@@UAEXPAVioBaseChar@@@Z
_TEXT	SEGMENT
tv171 = -8						; size = 4
$T556567 = -8						; size = 4
$T556566 = -8						; size = 4
_value$556573 = -4					; size = 4
tv133 = 8						; size = 4
$T556582 = 8						; size = 4
_value$556581 = 8					; size = 4
_value$556577 = 8					; size = 4
_pOwner$ = 8						; size = 4
?UpdateExtraData@ioEngineerItem@@UAEXPAVioBaseChar@@@Z PROC ; ioEngineerItem::UpdateExtraData, COMDAT
; _this$ = ecx

; 585  : {

  00000	55		 push	 ebp
  00001	8b ec		 mov	 ebp, esp
  00003	51		 push	 ecx
  00004	51		 push	 ecx

; 586  : 	if( !pOwner )

  00005	83 7d 08 00	 cmp	 DWORD PTR _pOwner$[ebp], 0
  00009	56		 push	 esi
  0000a	8b f1		 mov	 esi, ecx
  0000c	74 79		 je	 SHORT $LN10@UpdateExtr

; 587  : 		return;
; 588  : 
; 589  : 	m_fCurExtraGauge = max( 0.0f, m_fMaxExtraGauge - GetTotalDummyGauge( pOwner ) );

  0000e	57		 push	 edi
  0000f	ff 75 08	 push	 DWORD PTR _pOwner$[ebp]
  00012	e8 00 00 00 00	 call	 ?GetTotalDummyGauge@ioEngineerItem@@IAEMPAVioBaseChar@@@Z ; ioEngineerItem::GetTotalDummyGauge
  00017	d9 5d f8	 fstp	 DWORD PTR $T556566[ebp]
  0001a	8d 45 fc	 lea	 eax, DWORD PTR _value$556573[ebp]
  0001d	50		 push	 eax
  0001e	8d 8e ac 16 00
	00		 lea	 ecx, DWORD PTR [esi+5804]
  00024	e8 00 00 00 00	 call	 ?DecryptValueToPool@?$CEncrypt@M@@QAEXPAM@Z ; CEncrypt<float>::DecryptValueToPool
  00029	d9 45 fc	 fld	 DWORD PTR _value$556573[ebp]
  0002c	d8 65 f8	 fsub	 DWORD PTR $T556566[ebp]
  0002f	d9 5d f8	 fstp	 DWORD PTR tv171[ebp]
  00032	d9 45 f8	 fld	 DWORD PTR tv171[ebp]
  00035	d9 ee		 fldz
  00037	df f1		 fcomip	 ST(1)
  00039	dd d8		 fstp	 ST(0)
  0003b	76 05		 jbe	 SHORT $LN4@UpdateExtr
  0003d	0f 57 c0	 xorps	 xmm0, xmm0
  00040	eb 30		 jmp	 SHORT $LN5@UpdateExtr
$LN4@UpdateExtr:
  00042	ff 75 08	 push	 DWORD PTR _pOwner$[ebp]
  00045	8b ce		 mov	 ecx, esi
  00047	e8 00 00 00 00	 call	 ?GetTotalDummyGauge@ioEngineerItem@@IAEMPAVioBaseChar@@@Z ; ioEngineerItem::GetTotalDummyGauge
  0004c	d9 5d f8	 fstp	 DWORD PTR $T556567[ebp]
  0004f	8d 45 08	 lea	 eax, DWORD PTR _value$556577[ebp]
  00052	50		 push	 eax
  00053	8d 8e ac 16 00
	00		 lea	 ecx, DWORD PTR [esi+5804]
  00059	e8 00 00 00 00	 call	 ?DecryptValueToPool@?$CEncrypt@M@@QAEXPAM@Z ; CEncrypt<float>::DecryptValueToPool
  0005e	d9 45 08	 fld	 DWORD PTR _value$556577[ebp]
  00061	d8 65 f8	 fsub	 DWORD PTR $T556567[ebp]
  00064	d9 5d 08	 fstp	 DWORD PTR tv133[ebp]
  00067	d9 45 08	 fld	 DWORD PTR tv133[ebp]
  0006a	d9 5d 08	 fstp	 DWORD PTR $T556582[ebp]
  0006d	f3 0f 10 45 08	 movss	 xmm0, DWORD PTR $T556582[ebp]
$LN5@UpdateExtr:
  00072	8d 45 08	 lea	 eax, DWORD PTR _value$556581[ebp]
  00075	50		 push	 eax
  00076	8d 8e dc 16 00
	00		 lea	 ecx, DWORD PTR [esi+5852]
  0007c	f3 0f 11 45 08	 movss	 DWORD PTR _value$556581[ebp], xmm0
  00081	e8 00 00 00 00	 call	 ?EncryptValueToPool@?$CEncrypt@M@@AAEXPBD@Z ; CEncrypt<float>::EncryptValueToPool
  00086	5f		 pop	 edi
$LN10@UpdateExtr:
  00087	5e		 pop	 esi

; 590  : }

  00088	c9		 leave
  00089	c2 04 00	 ret	 4
?UpdateExtraData@ioEngineerItem@@UAEXPAVioBaseChar@@@Z ENDP ; ioEngineerItem::UpdateExtraData
_TEXT	ENDS
PUBLIC	??$_Destroy_range@V?$allocator@UGroupDummyInfo@@@std@@@std@@YAXPAUGroupDummyInfo@@0AAV?$allocator@UGroupDummyInfo@@@0@@Z ; std::_Destroy_range<std::allocator<GroupDummyInfo> >
; Function compile flags: /Ogsp
; File c:\program files (x86)\microsoft visual studio 10.0\vc\include\xmemory
;	COMDAT ??$_Destroy_range@V?$allocator@UGroupDummyInfo@@@std@@@std@@YAXPAUGroupDummyInfo@@0AAV?$allocator@UGroupDummyInfo@@@0@@Z
_TEXT	SEGMENT
__First$ = 8						; size = 4
__Last$ = 12						; size = 4
__Al$ = 16						; size = 4
??$_Destroy_range@V?$allocator@UGroupDummyInfo@@@std@@@std@@YAXPAUGroupDummyInfo@@0AAV?$allocator@UGroupDummyInfo@@@0@@Z PROC ; std::_Destroy_range<std::allocator<GroupDummyInfo> >, COMDAT

; 87   : 	{	// destroy [_First, _Last)

  00000	55		 push	 ebp
  00001	8b ec		 mov	 ebp, esp
  00003	56		 push	 esi

; 88   : 	_Destroy_range(_First, _Last, _Al, _Ptr_cat(_First, _Last));

  00004	8b 75 08	 mov	 esi, DWORD PTR __First$[ebp]
  00007	eb 0b		 jmp	 SHORT $LN24@Destroy_ra@3
$LL7@Destroy_ra@3:
  00009	8b ce		 mov	 ecx, esi
  0000b	ff 15 00 00 00
	00		 call	 DWORD PTR __imp_??1ioHashString@@QAE@XZ
  00011	83 c6 14	 add	 esi, 20			; 00000014H
$LN24@Destroy_ra@3:
  00014	3b 75 0c	 cmp	 esi, DWORD PTR __Last$[ebp]
  00017	75 f0		 jne	 SHORT $LL7@Destroy_ra@3
  00019	5e		 pop	 esi

; 89   : 	}

  0001a	5d		 pop	 ebp
  0001b	c3		 ret	 0
??$_Destroy_range@V?$allocator@UGroupDummyInfo@@@std@@@std@@YAXPAUGroupDummyInfo@@0AAV?$allocator@UGroupDummyInfo@@@0@@Z ENDP ; std::_Destroy_range<std::allocator<GroupDummyInfo> >
_TEXT	ENDS
PUBLIC	??$_Uninitialized_copy@V?$_Vector_const_iterator@V?$_Vector_val@UGroupDummyInfo@@V?$allocator@UGroupDummyInfo@@@std@@@std@@@std@@PAUGroupDummyInfo@@V?$allocator@UGroupDummyInfo@@@2@@std@@YAPAUGroupDummyInfo@@V?$_Vector_const_iterator@V?$_Vector_val@UGroupDummyInfo@@V?$allocator@UGroupDummyInfo@@@std@@@std@@@0@0PAU1@AAV?$allocator@UGroupDummyInfo@@@0@@Z ; std::_Uninitialized_copy<std::_Vector_const_iterator<std::_Vector_val<GroupDummyInfo,std::allocator<GroupDummyInfo> > >,GroupDummyInfo *,std::allocator<GroupDummyInfo> >
; Function compile flags: /Ogsp
; File c:\program files (x86)\microsoft visual studio 10.0\vc\include\memory
;	COMDAT ??$_Uninitialized_copy@V?$_Vector_const_iterator@V?$_Vector_val@UGroupDummyInfo@@V?$allocator@UGroupDummyInfo@@@std@@@std@@@std@@PAUGroupDummyInfo@@V?$allocator@UGroupDummyInfo@@@2@@std@@YAPAUGroupDummyInfo@@V?$_Vector_const_iterator@V?$_Vector_val@UGroupDummyInfo@@V?$allocator@UGroupDummyInfo@@@std@@@std@@@0@0PAU1@AAV?$allocator@UGroupDummyInfo@@@0@@Z
_TEXT	SEGMENT
__Cat$556656 = -4					; size = 1
__First$ = 8						; size = 4
__Last$ = 12						; size = 4
__Dest$ = 16						; size = 4
__Al$ = 20						; size = 4
??$_Uninitialized_copy@V?$_Vector_const_iterator@V?$_Vector_val@UGroupDummyInfo@@V?$allocator@UGroupDummyInfo@@@std@@@std@@@std@@PAUGroupDummyInfo@@V?$allocator@UGroupDummyInfo@@@2@@std@@YAPAUGroupDummyInfo@@V?$_Vector_const_iterator@V?$_Vector_val@UGroupDummyInfo@@V?$allocator@UGroupDummyInfo@@@std@@@std@@@0@0PAU1@AAV?$allocator@UGroupDummyInfo@@@0@@Z PROC ; std::_Uninitialized_copy<std::_Vector_const_iterator<std::_Vector_val<GroupDummyInfo,std::allocator<GroupDummyInfo> > >,GroupDummyInfo *,std::allocator<GroupDummyInfo> >, COMDAT

; 412  : 	{	// copy [_First, _Last) to raw _Dest, using _Al

  00000	55		 push	 ebp
  00001	8b ec		 mov	 ebp, esp
  00003	51		 push	 ecx

; 413  : 	return (_Uninit_copy(_First, _Last, _Dest, _Al,
; 414  : 		_Ptr_cat(_First, _Dest)));

  00004	ff 75 fc	 push	 DWORD PTR __Cat$556656[ebp]
  00007	ff 75 14	 push	 DWORD PTR __Al$[ebp]
  0000a	ff 75 10	 push	 DWORD PTR __Dest$[ebp]
  0000d	ff 75 0c	 push	 DWORD PTR __Last$[ebp]
  00010	ff 75 08	 push	 DWORD PTR __First$[ebp]
  00013	e8 00 00 00 00	 call	 ??$_Uninit_copy@V?$_Vector_const_iterator@V?$_Vector_val@UGroupDummyInfo@@V?$allocator@UGroupDummyInfo@@@std@@@std@@@std@@PAUGroupDummyInfo@@V?$allocator@UGroupDummyInfo@@@2@@std@@YAPAUGroupDummyInfo@@V?$_Vector_const_iterator@V?$_Vector_val@UGroupDummyInfo@@V?$allocator@UGroupDummyInfo@@@std@@@std@@@0@0PAU1@AAV?$allocator@UGroupDummyInfo@@@0@U_Nonscalar_ptr_iterator_tag@0@@Z ; std::_Uninit_copy<std::_Vector_const_iterator<std::_Vector_val<GroupDummyInfo,std::allocator<GroupDummyInfo> > >,GroupDummyInfo *,std::allocator<GroupDummyInfo> >
  00018	83 c4 14	 add	 esp, 20			; 00000014H

; 415  : 	}

  0001b	c9		 leave
  0001c	c3		 ret	 0
??$_Uninitialized_copy@V?$_Vector_const_iterator@V?$_Vector_val@UGroupDummyInfo@@V?$allocator@UGroupDummyInfo@@@std@@@std@@@std@@PAUGroupDummyInfo@@V?$allocator@UGroupDummyInfo@@@2@@std@@YAPAUGroupDummyInfo@@V?$_Vector_const_iterator@V?$_Vector_val@UGroupDummyInfo@@V?$allocator@UGroupDummyInfo@@@std@@@std@@@0@0PAU1@AAV?$allocator@UGroupDummyInfo@@@0@@Z ENDP ; std::_Uninitialized_copy<std::_Vector_const_iterator<std::_Vector_val<GroupDummyInfo,std::allocator<GroupDummyInfo> > >,GroupDummyInfo *,std::allocator<GroupDummyInfo> >
_TEXT	ENDS
PUBLIC	??$_Uninitialized_move@PAVioHashString@@PAV1@V?$allocator@VioHashString@@@std@@@std@@YAPAVioHashString@@PAV1@00AAV?$allocator@VioHashString@@@0@@Z ; std::_Uninitialized_move<ioHashString *,ioHashString *,std::allocator<ioHashString> >
; Function compile flags: /Ogsp
;	COMDAT ??$_Uninitialized_move@PAVioHashString@@PAV1@V?$allocator@VioHashString@@@std@@@std@@YAPAVioHashString@@PAV1@00AAV?$allocator@VioHashString@@@0@@Z
_TEXT	SEGMENT
__Cat$556663 = -4					; size = 1
__First$ = 8						; size = 4
__Last$ = 12						; size = 4
__Dest$ = 16						; size = 4
__Al$ = 20						; size = 4
??$_Uninitialized_move@PAVioHashString@@PAV1@V?$allocator@VioHashString@@@std@@@std@@YAPAVioHashString@@PAV1@00AAV?$allocator@VioHashString@@@0@@Z PROC ; std::_Uninitialized_move<ioHashString *,ioHashString *,std::allocator<ioHashString> >, COMDAT

; 469  : 	{	// move [_First, _Last) to raw _Dest, using _Al

  00000	55		 push	 ebp
  00001	8b ec		 mov	 ebp, esp
  00003	51		 push	 ecx

; 470  : 	return (_Uninit_move(_First, _Last, _Dest, _Al,
; 471  : 		_Val_type(_First), _Ptr_cat(_First, _Dest)));

  00004	ff 75 fc	 push	 DWORD PTR __Cat$556663[ebp]
  00007	6a 00		 push	 0
  00009	ff 75 14	 push	 DWORD PTR __Al$[ebp]
  0000c	ff 75 10	 push	 DWORD PTR __Dest$[ebp]
  0000f	ff 75 0c	 push	 DWORD PTR __Last$[ebp]
  00012	ff 75 08	 push	 DWORD PTR __First$[ebp]
  00015	e8 00 00 00 00	 call	 ??$_Uninit_move@PAVioHashString@@PAV1@V?$allocator@VioHashString@@@std@@V1@@std@@YAPAVioHashString@@PAV1@00AAV?$allocator@VioHashString@@@0@0U_Nonscalar_ptr_iterator_tag@0@@Z ; std::_Uninit_move<ioHashString *,ioHashString *,std::allocator<ioHashString>,ioHashString>
  0001a	83 c4 18	 add	 esp, 24			; 00000018H

; 472  : 	}

  0001d	c9		 leave
  0001e	c3		 ret	 0
??$_Uninitialized_move@PAVioHashString@@PAV1@V?$allocator@VioHashString@@@std@@@std@@YAPAVioHashString@@PAV1@00AAV?$allocator@VioHashString@@@0@@Z ENDP ; std::_Uninitialized_move<ioHashString *,ioHashString *,std::allocator<ioHashString> >
_TEXT	ENDS
PUBLIC	??$_Uninitialized_move@PAUGroupDummyInfo@@PAU1@V?$allocator@UGroupDummyInfo@@@std@@@std@@YAPAUGroupDummyInfo@@PAU1@00AAV?$allocator@UGroupDummyInfo@@@0@@Z ; std::_Uninitialized_move<GroupDummyInfo *,GroupDummyInfo *,std::allocator<GroupDummyInfo> >
; Function compile flags: /Ogsp
;	COMDAT ??$_Uninitialized_move@PAUGroupDummyInfo@@PAU1@V?$allocator@UGroupDummyInfo@@@std@@@std@@YAPAUGroupDummyInfo@@PAU1@00AAV?$allocator@UGroupDummyInfo@@@0@@Z
_TEXT	SEGMENT
__Cat$556673 = -4					; size = 1
__First$ = 8						; size = 4
__Last$ = 12						; size = 4
__Dest$ = 16						; size = 4
__Al$ = 20						; size = 4
??$_Uninitialized_move@PAUGroupDummyInfo@@PAU1@V?$allocator@UGroupDummyInfo@@@std@@@std@@YAPAUGroupDummyInfo@@PAU1@00AAV?$allocator@UGroupDummyInfo@@@0@@Z PROC ; std::_Uninitialized_move<GroupDummyInfo *,GroupDummyInfo *,std::allocator<GroupDummyInfo> >, COMDAT

; 469  : 	{	// move [_First, _Last) to raw _Dest, using _Al

  00000	55		 push	 ebp
  00001	8b ec		 mov	 ebp, esp
  00003	51		 push	 ecx

; 470  : 	return (_Uninit_move(_First, _Last, _Dest, _Al,
; 471  : 		_Val_type(_First), _Ptr_cat(_First, _Dest)));

  00004	ff 75 fc	 push	 DWORD PTR __Cat$556673[ebp]
  00007	6a 00		 push	 0
  00009	ff 75 14	 push	 DWORD PTR __Al$[ebp]
  0000c	ff 75 10	 push	 DWORD PTR __Dest$[ebp]
  0000f	ff 75 0c	 push	 DWORD PTR __Last$[ebp]
  00012	ff 75 08	 push	 DWORD PTR __First$[ebp]
  00015	e8 00 00 00 00	 call	 ??$_Uninit_move@PAUGroupDummyInfo@@PAU1@V?$allocator@UGroupDummyInfo@@@std@@U1@@std@@YAPAUGroupDummyInfo@@PAU1@00AAV?$allocator@UGroupDummyInfo@@@0@0U_Nonscalar_ptr_iterator_tag@0@@Z ; std::_Uninit_move<GroupDummyInfo *,GroupDummyInfo *,std::allocator<GroupDummyInfo>,GroupDummyInfo>
  0001a	83 c4 18	 add	 esp, 24			; 00000018H

; 472  : 	}

  0001d	c9		 leave
  0001e	c3		 ret	 0
??$_Uninitialized_move@PAUGroupDummyInfo@@PAU1@V?$allocator@UGroupDummyInfo@@@std@@@std@@YAPAUGroupDummyInfo@@PAU1@00AAV?$allocator@UGroupDummyInfo@@@0@@Z ENDP ; std::_Uninitialized_move<GroupDummyInfo *,GroupDummyInfo *,std::allocator<GroupDummyInfo> >
_TEXT	ENDS
PUBLIC	??$_Destroy_range@V?$allocator@VioHashString@@@std@@@std@@YAXPAVioHashString@@0AAV?$allocator@VioHashString@@@0@@Z ; std::_Destroy_range<std::allocator<ioHashString> >
; Function compile flags: /Ogsp
; File c:\program files (x86)\microsoft visual studio 10.0\vc\include\xmemory
;	COMDAT ??$_Destroy_range@V?$allocator@VioHashString@@@std@@@std@@YAXPAVioHashString@@0AAV?$allocator@VioHashString@@@0@@Z
_TEXT	SEGMENT
__First$ = 8						; size = 4
__Last$ = 12						; size = 4
__Al$ = 16						; size = 4
??$_Destroy_range@V?$allocator@VioHashString@@@std@@@std@@YAXPAVioHashString@@0AAV?$allocator@VioHashString@@@0@@Z PROC ; std::_Destroy_range<std::allocator<ioHashString> >, COMDAT

; 87   : 	{	// destroy [_First, _Last)

  00000	55		 push	 ebp
  00001	8b ec		 mov	 ebp, esp
  00003	56		 push	 esi

; 88   : 	_Destroy_range(_First, _Last, _Al, _Ptr_cat(_First, _Last));

  00004	8b 75 08	 mov	 esi, DWORD PTR __First$[ebp]
  00007	eb 0b		 jmp	 SHORT $LN21@Destroy_ra@4
$LL7@Destroy_ra@4:
  00009	8b ce		 mov	 ecx, esi
  0000b	ff 15 00 00 00
	00		 call	 DWORD PTR __imp_??1ioHashString@@QAE@XZ
  00011	83 c6 10	 add	 esi, 16			; 00000010H
$LN21@Destroy_ra@4:
  00014	3b 75 0c	 cmp	 esi, DWORD PTR __Last$[ebp]
  00017	75 f0		 jne	 SHORT $LL7@Destroy_ra@4
  00019	5e		 pop	 esi

; 89   : 	}

  0001a	5d		 pop	 ebp
  0001b	c3		 ret	 0
??$_Destroy_range@V?$allocator@VioHashString@@@std@@@std@@YAXPAVioHashString@@0AAV?$allocator@VioHashString@@@0@@Z ENDP ; std::_Destroy_range<std::allocator<ioHashString> >
_TEXT	ENDS
PUBLIC	??$_Uninitialized_copy@V?$_Vector_const_iterator@V?$_Vector_val@VioHashString@@V?$allocator@VioHashString@@@std@@@std@@@std@@PAVioHashString@@V?$allocator@VioHashString@@@2@@std@@YAPAVioHashString@@V?$_Vector_const_iterator@V?$_Vector_val@VioHashString@@V?$allocator@VioHashString@@@std@@@std@@@0@0PAV1@AAV?$allocator@VioHashString@@@0@@Z ; std::_Uninitialized_copy<std::_Vector_const_iterator<std::_Vector_val<ioHashString,std::allocator<ioHashString> > >,ioHashString *,std::allocator<ioHashString> >
; Function compile flags: /Ogsp
; File c:\program files (x86)\microsoft visual studio 10.0\vc\include\memory
;	COMDAT ??$_Uninitialized_copy@V?$_Vector_const_iterator@V?$_Vector_val@VioHashString@@V?$allocator@VioHashString@@@std@@@std@@@std@@PAVioHashString@@V?$allocator@VioHashString@@@2@@std@@YAPAVioHashString@@V?$_Vector_const_iterator@V?$_Vector_val@VioHashString@@V?$allocator@VioHashString@@@std@@@std@@@0@0PAV1@AAV?$allocator@VioHashString@@@0@@Z
_TEXT	SEGMENT
__Cat$556737 = -4					; size = 1
__First$ = 8						; size = 4
__Last$ = 12						; size = 4
__Dest$ = 16						; size = 4
__Al$ = 20						; size = 4
??$_Uninitialized_copy@V?$_Vector_const_iterator@V?$_Vector_val@VioHashString@@V?$allocator@VioHashString@@@std@@@std@@@std@@PAVioHashString@@V?$allocator@VioHashString@@@2@@std@@YAPAVioHashString@@V?$_Vector_const_iterator@V?$_Vector_val@VioHashString@@V?$allocator@VioHashString@@@std@@@std@@@0@0PAV1@AAV?$allocator@VioHashString@@@0@@Z PROC ; std::_Uninitialized_copy<std::_Vector_const_iterator<std::_Vector_val<ioHashString,std::allocator<ioHashString> > >,ioHashString *,std::allocator<ioHashString> >, COMDAT

; 412  : 	{	// copy [_First, _Last) to raw _Dest, using _Al

  00000	55		 push	 ebp
  00001	8b ec		 mov	 ebp, esp
  00003	51		 push	 ecx

; 413  : 	return (_Uninit_copy(_First, _Last, _Dest, _Al,
; 414  : 		_Ptr_cat(_First, _Dest)));

  00004	ff 75 fc	 push	 DWORD PTR __Cat$556737[ebp]
  00007	ff 75 14	 push	 DWORD PTR __Al$[ebp]
  0000a	ff 75 10	 push	 DWORD PTR __Dest$[ebp]
  0000d	ff 75 0c	 push	 DWORD PTR __Last$[ebp]
  00010	ff 75 08	 push	 DWORD PTR __First$[ebp]
  00013	e8 00 00 00 00	 call	 ??$_Uninit_copy@V?$_Vector_const_iterator@V?$_Vector_val@VioHashString@@V?$allocator@VioHashString@@@std@@@std@@@std@@PAVioHashString@@V?$allocator@VioHashString@@@2@@std@@YAPAVioHashString@@V?$_Vector_const_iterator@V?$_Vector_val@VioHashString@@V?$allocator@VioHashString@@@std@@@std@@@0@0PAV1@AAV?$allocator@VioHashString@@@0@U_Nonscalar_ptr_iterator_tag@0@@Z ; std::_Uninit_copy<std::_Vector_const_iterator<std::_Vector_val<ioHashString,std::allocator<ioHashString> > >,ioHashString *,std::allocator<ioHashString> >
  00018	83 c4 14	 add	 esp, 20			; 00000014H

; 415  : 	}

  0001b	c9		 leave
  0001c	c3		 ret	 0
??$_Uninitialized_copy@V?$_Vector_const_iterator@V?$_Vector_val@VioHashString@@V?$allocator@VioHashString@@@std@@@std@@@std@@PAVioHashString@@V?$allocator@VioHashString@@@2@@std@@YAPAVioHashString@@V?$_Vector_const_iterator@V?$_Vector_val@VioHashString@@V?$allocator@VioHashString@@@std@@@std@@@0@0PAV1@AAV?$allocator@VioHashString@@@0@@Z ENDP ; std::_Uninitialized_copy<std::_Vector_const_iterator<std::_Vector_val<ioHashString,std::allocator<ioHashString> > >,ioHashString *,std::allocator<ioHashString> >
_TEXT	ENDS
PUBLIC	?OnCharging@ioEngineerItem@@IAEXPAVioBaseChar@@@Z ; ioEngineerItem::OnCharging
EXTRN	?GetCurLocalIndex@ioDummyCharManager@@QAEHXZ:PROC ; ioDummyCharManager::GetCurLocalIndex
EXTRN	?IsAttackKeyDown@ioBaseChar@@QBE_NXZ:PROC	; ioBaseChar::IsAttackKeyDown
; Function compile flags: /Ogsp
; File d:\lost saga for developer\youtube\tutorial\source\src\lsclient\ioengineeritem.cpp
;	COMDAT ?OnCharging@ioEngineerItem@@IAEXPAVioBaseChar@@@Z
_TEXT	SEGMENT
_value$556748 = 8					; size = 4
_pOwner$ = 8						; size = 4
?OnCharging@ioEngineerItem@@IAEXPAVioBaseChar@@@Z PROC	; ioEngineerItem::OnCharging, COMDAT
; _this$ = ecx

; 235  : {

  00000	55		 push	 ebp
  00001	8b ec		 mov	 ebp, esp
  00003	56		 push	 esi

; 236  : 	if( !pOwner || !pOwner->IsNeedProcess() )

  00004	8b 75 08	 mov	 esi, DWORD PTR _pOwner$[ebp]
  00007	57		 push	 edi
  00008	8b f9		 mov	 edi, ecx
  0000a	85 f6		 test	 esi, esi
  0000c	74 76		 je	 SHORT $LN4@OnCharging
  0000e	8b 06		 mov	 eax, DWORD PTR [esi]
  00010	8b ce		 mov	 ecx, esi
  00012	ff 90 00 01 00
	00		 call	 DWORD PTR [eax+256]
  00018	84 c0		 test	 al, al
  0001a	74 68		 je	 SHORT $LN4@OnCharging

; 237  : 		return;
; 238  : 
; 239  : 	if( pOwner->IsAttackKeyDown() && !m_TurrretDummyInfoList.empty() )

  0001c	8b ce		 mov	 ecx, esi
  0001e	e8 00 00 00 00	 call	 ?IsAttackKeyDown@ioBaseChar@@QBE_NXZ ; ioBaseChar::IsAttackKeyDown
  00023	84 c0		 test	 al, al
  00025	74 55		 je	 SHORT $LN3@OnCharging
  00027	8b 8f a0 19 00
	00		 mov	 ecx, DWORD PTR [edi+6560]
  0002d	3b 8f a4 19 00
	00		 cmp	 ecx, DWORD PTR [edi+6564]
  00033	74 47		 je	 SHORT $LN3@OnCharging

; 240  : 	{
; 241  : 		if( m_dwAttackStartTime + m_dwChargeTime <= FRAMEGETTIME() )

  00035	8d 45 08	 lea	 eax, DWORD PTR _value$556748[ebp]
  00038	50		 push	 eax
  00039	8d 8f b0 18 00
	00		 lea	 ecx, DWORD PTR [edi+6320]
  0003f	e8 00 00 00 00	 call	 ?DecryptValueToPool@?$CEncrypt@K@@QAEXPAK@Z ; CEncrypt<unsigned long>::DecryptValueToPool
  00044	ff 15 00 00 00
	00		 call	 DWORD PTR __imp_?GetSingleton@ioFrameTimer@@SAAAV1@XZ
  0004a	8b c8		 mov	 ecx, eax
  0004c	ff 15 00 00 00
	00		 call	 DWORD PTR __imp_?GetLoopSec@ioFrameTimer@@QBEKXZ
  00052	8b 8f 58 19 00
	00		 mov	 ecx, DWORD PTR [edi+6488]
  00058	03 4d 08	 add	 ecx, DWORD PTR _value$556748[ebp]
  0005b	3b c8		 cmp	 ecx, eax
  0005d	77 25		 ja	 SHORT $LN4@OnCharging

; 242  : 		{
; 243  : 			int iCurIndex = g_DummyCharMgr.GetCurLocalIndex();

  0005f	e8 00 00 00 00	 call	 ?GetSingleton@ioDummyCharManager@@SAAAV1@XZ ; ioDummyCharManager::GetSingleton
  00064	8b c8		 mov	 ecx, eax
  00066	e8 00 00 00 00	 call	 ?GetCurLocalIndex@ioDummyCharManager@@QAEHXZ ; ioDummyCharManager::GetCurLocalIndex

; 244  : 			ChangeToDummyMake( pOwner->GetCreator(), pOwner, iCurIndex );

  0006b	50		 push	 eax
  0006c	56		 push	 esi
  0006d	ff b6 44 03 00
	00		 push	 DWORD PTR [esi+836]
  00073	8b cf		 mov	 ecx, edi
  00075	e8 00 00 00 00	 call	 ?ChangeToDummyMake@ioEngineerItem@@IAEXPAVioPlayStage@@PAVioBaseChar@@H@Z ; ioEngineerItem::ChangeToDummyMake

; 245  : 		}
; 246  : 	}
; 247  : 	else

  0007a	eb 08		 jmp	 SHORT $LN4@OnCharging
$LN3@OnCharging:

; 248  : 	{
; 249  : 		ChangeToAttackFire( pOwner );

  0007c	56		 push	 esi
  0007d	8b cf		 mov	 ecx, edi
  0007f	e8 00 00 00 00	 call	 ?ChangeToAttackFire@ioEngineerItem@@IAEXPAVioBaseChar@@@Z ; ioEngineerItem::ChangeToAttackFire
$LN4@OnCharging:
  00084	5f		 pop	 edi
  00085	5e		 pop	 esi

; 250  : 	}
; 251  : }

  00086	5d		 pop	 ebp
  00087	c2 04 00	 ret	 4
?OnCharging@ioEngineerItem@@IAEXPAVioBaseChar@@@Z ENDP	; ioEngineerItem::OnCharging
_TEXT	ENDS
PUBLIC	?_Destroy@?$vector@UGroupDummyInfo@@V?$allocator@UGroupDummyInfo@@@std@@@std@@IAEXPAUGroupDummyInfo@@0@Z ; std::vector<GroupDummyInfo,std::allocator<GroupDummyInfo> >::_Destroy
; Function compile flags: /Ogsp
; File c:\program files (x86)\microsoft visual studio 10.0\vc\include\vector
;	COMDAT ?_Destroy@?$vector@UGroupDummyInfo@@V?$allocator@UGroupDummyInfo@@@std@@@std@@IAEXPAUGroupDummyInfo@@0@Z
_TEXT	SEGMENT
__First$ = 8						; size = 4
__Last$ = 12						; size = 4
?_Destroy@?$vector@UGroupDummyInfo@@V?$allocator@UGroupDummyInfo@@@std@@@std@@IAEXPAUGroupDummyInfo@@0@Z PROC ; std::vector<GroupDummyInfo,std::allocator<GroupDummyInfo> >::_Destroy, COMDAT
; _this$ = ecx

; 1269 : 		{	// destroy [_First, _Last) using allocator

  00000	55		 push	 ebp
  00001	8b ec		 mov	 ebp, esp
  00003	56		 push	 esi

; 1270 : 		_Destroy_range(_First, _Last, this->_Alval);

  00004	8b 75 08	 mov	 esi, DWORD PTR __First$[ebp]
  00007	eb 0b		 jmp	 SHORT $LN26@Destroy
$LL9@Destroy:
  00009	8b ce		 mov	 ecx, esi
  0000b	ff 15 00 00 00
	00		 call	 DWORD PTR __imp_??1ioHashString@@QAE@XZ
  00011	83 c6 14	 add	 esi, 20			; 00000014H
$LN26@Destroy:
  00014	3b 75 0c	 cmp	 esi, DWORD PTR __Last$[ebp]
  00017	75 f0		 jne	 SHORT $LL9@Destroy
  00019	5e		 pop	 esi

; 1271 : 		}

  0001a	5d		 pop	 ebp
  0001b	c2 08 00	 ret	 8
?_Destroy@?$vector@UGroupDummyInfo@@V?$allocator@UGroupDummyInfo@@@std@@@std@@IAEXPAUGroupDummyInfo@@0@Z ENDP ; std::vector<GroupDummyInfo,std::allocator<GroupDummyInfo> >::_Destroy
_TEXT	ENDS
PUBLIC	??$_Ucopy@V?$_Vector_const_iterator@V?$_Vector_val@UGroupDummyInfo@@V?$allocator@UGroupDummyInfo@@@std@@@std@@@std@@@?$vector@UGroupDummyInfo@@V?$allocator@UGroupDummyInfo@@@std@@@std@@IAEPAUGroupDummyInfo@@V?$_Vector_const_iterator@V?$_Vector_val@UGroupDummyInfo@@V?$allocator@UGroupDummyInfo@@@std@@@std@@@1@0PAU2@@Z ; std::vector<GroupDummyInfo,std::allocator<GroupDummyInfo> >::_Ucopy<std::_Vector_const_iterator<std::_Vector_val<GroupDummyInfo,std::allocator<GroupDummyInfo> > > >
; Function compile flags: /Ogsp
;	COMDAT ??$_Ucopy@V?$_Vector_const_iterator@V?$_Vector_val@UGroupDummyInfo@@V?$allocator@UGroupDummyInfo@@@std@@@std@@@std@@@?$vector@UGroupDummyInfo@@V?$allocator@UGroupDummyInfo@@@std@@@std@@IAEPAUGroupDummyInfo@@V?$_Vector_const_iterator@V?$_Vector_val@UGroupDummyInfo@@V?$allocator@UGroupDummyInfo@@@std@@@std@@@1@0PAU2@@Z
_TEXT	SEGMENT
__First$ = 8						; size = 4
__Last$ = 12						; size = 4
__Cat$556857 = 16					; size = 1
__Ptr$ = 16						; size = 4
??$_Ucopy@V?$_Vector_const_iterator@V?$_Vector_val@UGroupDummyInfo@@V?$allocator@UGroupDummyInfo@@@std@@@std@@@std@@@?$vector@UGroupDummyInfo@@V?$allocator@UGroupDummyInfo@@@std@@@std@@IAEPAUGroupDummyInfo@@V?$_Vector_const_iterator@V?$_Vector_val@UGroupDummyInfo@@V?$allocator@UGroupDummyInfo@@@std@@@std@@@1@0PAU2@@Z PROC ; std::vector<GroupDummyInfo,std::allocator<GroupDummyInfo> >::_Ucopy<std::_Vector_const_iterator<std::_Vector_val<GroupDummyInfo,std::allocator<GroupDummyInfo> > > >, COMDAT
; _this$ = ecx

; 1315 : 		pointer _Ucopy(_Iter _First, _Iter _Last, pointer _Ptr)

  00000	55		 push	 ebp
  00001	8b ec		 mov	 ebp, esp

; 1316 : 		{	// copy initializing [_First, _Last), using allocator
; 1317 : 		return (_Uninitialized_copy(_First, _Last,
; 1318 : 			_Ptr, this->_Alval));

  00003	ff 75 10	 push	 DWORD PTR __Cat$556857[ebp]
  00006	83 c1 0c	 add	 ecx, 12			; 0000000cH
  00009	51		 push	 ecx
  0000a	ff 75 10	 push	 DWORD PTR __Ptr$[ebp]
  0000d	ff 75 0c	 push	 DWORD PTR __Last$[ebp]
  00010	ff 75 08	 push	 DWORD PTR __First$[ebp]
  00013	e8 00 00 00 00	 call	 ??$_Uninit_copy@V?$_Vector_const_iterator@V?$_Vector_val@UGroupDummyInfo@@V?$allocator@UGroupDummyInfo@@@std@@@std@@@std@@PAUGroupDummyInfo@@V?$allocator@UGroupDummyInfo@@@2@@std@@YAPAUGroupDummyInfo@@V?$_Vector_const_iterator@V?$_Vector_val@UGroupDummyInfo@@V?$allocator@UGroupDummyInfo@@@std@@@std@@@0@0PAU1@AAV?$allocator@UGroupDummyInfo@@@0@U_Nonscalar_ptr_iterator_tag@0@@Z ; std::_Uninit_copy<std::_Vector_const_iterator<std::_Vector_val<GroupDummyInfo,std::allocator<GroupDummyInfo> > >,GroupDummyInfo *,std::allocator<GroupDummyInfo> >
  00018	83 c4 14	 add	 esp, 20			; 00000014H

; 1319 : 		}

  0001b	5d		 pop	 ebp
  0001c	c2 0c 00	 ret	 12			; 0000000cH
??$_Ucopy@V?$_Vector_const_iterator@V?$_Vector_val@UGroupDummyInfo@@V?$allocator@UGroupDummyInfo@@@std@@@std@@@std@@@?$vector@UGroupDummyInfo@@V?$allocator@UGroupDummyInfo@@@std@@@std@@IAEPAUGroupDummyInfo@@V?$_Vector_const_iterator@V?$_Vector_val@UGroupDummyInfo@@V?$allocator@UGroupDummyInfo@@@std@@@std@@@1@0PAU2@@Z ENDP ; std::vector<GroupDummyInfo,std::allocator<GroupDummyInfo> >::_Ucopy<std::_Vector_const_iterator<std::_Vector_val<GroupDummyInfo,std::allocator<GroupDummyInfo> > > >
_TEXT	ENDS
PUBLIC	??$_Umove@PAVioHashString@@@?$vector@VioHashString@@V?$allocator@VioHashString@@@std@@@std@@IAEPAVioHashString@@PAV2@00@Z ; std::vector<ioHashString,std::allocator<ioHashString> >::_Umove<ioHashString *>
; Function compile flags: /Ogsp
;	COMDAT ??$_Umove@PAVioHashString@@@?$vector@VioHashString@@V?$allocator@VioHashString@@@std@@@std@@IAEPAVioHashString@@PAV2@00@Z
_TEXT	SEGMENT
__First$ = 8						; size = 4
__Last$ = 12						; size = 4
__Ptr$ = 16						; size = 4
??$_Umove@PAVioHashString@@@?$vector@VioHashString@@V?$allocator@VioHashString@@@std@@@std@@IAEPAVioHashString@@PAV2@00@Z PROC ; std::vector<ioHashString,std::allocator<ioHashString> >::_Umove<ioHashString *>, COMDAT
; _this$ = ecx

; 1322 : 		pointer _Umove(_Iter _First, _Iter _Last, pointer _Ptr)

  00000	55		 push	 ebp
  00001	8b ec		 mov	 ebp, esp

; 1323 : 		{	// move initializing [_First, _Last), using allocator
; 1324 : 		return (_Uninitialized_move(_First, _Last,
; 1325 : 			_Ptr, this->_Alval));

  00003	83 c1 0c	 add	 ecx, 12			; 0000000cH
  00006	51		 push	 ecx
  00007	ff 75 10	 push	 DWORD PTR __Ptr$[ebp]
  0000a	ff 75 0c	 push	 DWORD PTR __Last$[ebp]
  0000d	ff 75 08	 push	 DWORD PTR __First$[ebp]
  00010	e8 00 00 00 00	 call	 ??$_Uninitialized_move@PAVioHashString@@PAV1@V?$allocator@VioHashString@@@std@@@std@@YAPAVioHashString@@PAV1@00AAV?$allocator@VioHashString@@@0@@Z ; std::_Uninitialized_move<ioHashString *,ioHashString *,std::allocator<ioHashString> >
  00015	83 c4 10	 add	 esp, 16			; 00000010H

; 1326 : 		}

  00018	5d		 pop	 ebp
  00019	c2 0c 00	 ret	 12			; 0000000cH
??$_Umove@PAVioHashString@@@?$vector@VioHashString@@V?$allocator@VioHashString@@@std@@@std@@IAEPAVioHashString@@PAV2@00@Z ENDP ; std::vector<ioHashString,std::allocator<ioHashString> >::_Umove<ioHashString *>
_TEXT	ENDS
PUBLIC	??$_Umove@PAUGroupDummyInfo@@@?$vector@UGroupDummyInfo@@V?$allocator@UGroupDummyInfo@@@std@@@std@@IAEPAUGroupDummyInfo@@PAU2@00@Z ; std::vector<GroupDummyInfo,std::allocator<GroupDummyInfo> >::_Umove<GroupDummyInfo *>
; Function compile flags: /Ogsp
;	COMDAT ??$_Umove@PAUGroupDummyInfo@@@?$vector@UGroupDummyInfo@@V?$allocator@UGroupDummyInfo@@@std@@@std@@IAEPAUGroupDummyInfo@@PAU2@00@Z
_TEXT	SEGMENT
__First$ = 8						; size = 4
__Last$ = 12						; size = 4
__Ptr$ = 16						; size = 4
??$_Umove@PAUGroupDummyInfo@@@?$vector@UGroupDummyInfo@@V?$allocator@UGroupDummyInfo@@@std@@@std@@IAEPAUGroupDummyInfo@@PAU2@00@Z PROC ; std::vector<GroupDummyInfo,std::allocator<GroupDummyInfo> >::_Umove<GroupDummyInfo *>, COMDAT
; _this$ = ecx

; 1322 : 		pointer _Umove(_Iter _First, _Iter _Last, pointer _Ptr)

  00000	55		 push	 ebp
  00001	8b ec		 mov	 ebp, esp

; 1323 : 		{	// move initializing [_First, _Last), using allocator
; 1324 : 		return (_Uninitialized_move(_First, _Last,
; 1325 : 			_Ptr, this->_Alval));

  00003	83 c1 0c	 add	 ecx, 12			; 0000000cH
  00006	51		 push	 ecx
  00007	ff 75 10	 push	 DWORD PTR __Ptr$[ebp]
  0000a	ff 75 0c	 push	 DWORD PTR __Last$[ebp]
  0000d	ff 75 08	 push	 DWORD PTR __First$[ebp]
  00010	e8 00 00 00 00	 call	 ??$_Uninitialized_move@PAUGroupDummyInfo@@PAU1@V?$allocator@UGroupDummyInfo@@@std@@@std@@YAPAUGroupDummyInfo@@PAU1@00AAV?$allocator@UGroupDummyInfo@@@0@@Z ; std::_Uninitialized_move<GroupDummyInfo *,GroupDummyInfo *,std::allocator<GroupDummyInfo> >
  00015	83 c4 10	 add	 esp, 16			; 00000010H

; 1326 : 		}

  00018	5d		 pop	 ebp
  00019	c2 0c 00	 ret	 12			; 0000000cH
??$_Umove@PAUGroupDummyInfo@@@?$vector@UGroupDummyInfo@@V?$allocator@UGroupDummyInfo@@@std@@@std@@IAEPAUGroupDummyInfo@@PAU2@00@Z ENDP ; std::vector<GroupDummyInfo,std::allocator<GroupDummyInfo> >::_Umove<GroupDummyInfo *>
_TEXT	ENDS
PUBLIC	?_Destroy@?$vector@VioHashString@@V?$allocator@VioHashString@@@std@@@std@@IAEXPAVioHashString@@0@Z ; std::vector<ioHashString,std::allocator<ioHashString> >::_Destroy
; Function compile flags: /Ogsp
;	COMDAT ?_Destroy@?$vector@VioHashString@@V?$allocator@VioHashString@@@std@@@std@@IAEXPAVioHashString@@0@Z
_TEXT	SEGMENT
__First$ = 8						; size = 4
__Last$ = 12						; size = 4
?_Destroy@?$vector@VioHashString@@V?$allocator@VioHashString@@@std@@@std@@IAEXPAVioHashString@@0@Z PROC ; std::vector<ioHashString,std::allocator<ioHashString> >::_Destroy, COMDAT
; _this$ = ecx

; 1269 : 		{	// destroy [_First, _Last) using allocator

  00000	55		 push	 ebp
  00001	8b ec		 mov	 ebp, esp
  00003	56		 push	 esi

; 1270 : 		_Destroy_range(_First, _Last, this->_Alval);

  00004	8b 75 08	 mov	 esi, DWORD PTR __First$[ebp]
  00007	eb 0b		 jmp	 SHORT $LN23@Destroy@2
$LL9@Destroy@2:
  00009	8b ce		 mov	 ecx, esi
  0000b	ff 15 00 00 00
	00		 call	 DWORD PTR __imp_??1ioHashString@@QAE@XZ
  00011	83 c6 10	 add	 esi, 16			; 00000010H
$LN23@Destroy@2:
  00014	3b 75 0c	 cmp	 esi, DWORD PTR __Last$[ebp]
  00017	75 f0		 jne	 SHORT $LL9@Destroy@2
  00019	5e		 pop	 esi

; 1271 : 		}

  0001a	5d		 pop	 ebp
  0001b	c2 08 00	 ret	 8
?_Destroy@?$vector@VioHashString@@V?$allocator@VioHashString@@@std@@@std@@IAEXPAVioHashString@@0@Z ENDP ; std::vector<ioHashString,std::allocator<ioHashString> >::_Destroy
_TEXT	ENDS
PUBLIC	??$_Ucopy@V?$_Vector_const_iterator@V?$_Vector_val@VioHashString@@V?$allocator@VioHashString@@@std@@@std@@@std@@@?$vector@VioHashString@@V?$allocator@VioHashString@@@std@@@std@@IAEPAVioHashString@@V?$_Vector_const_iterator@V?$_Vector_val@VioHashString@@V?$allocator@VioHashString@@@std@@@std@@@1@0PAV2@@Z ; std::vector<ioHashString,std::allocator<ioHashString> >::_Ucopy<std::_Vector_const_iterator<std::_Vector_val<ioHashString,std::allocator<ioHashString> > > >
; Function compile flags: /Ogsp
;	COMDAT ??$_Ucopy@V?$_Vector_const_iterator@V?$_Vector_val@VioHashString@@V?$allocator@VioHashString@@@std@@@std@@@std@@@?$vector@VioHashString@@V?$allocator@VioHashString@@@std@@@std@@IAEPAVioHashString@@V?$_Vector_const_iterator@V?$_Vector_val@VioHashString@@V?$allocator@VioHashString@@@std@@@std@@@1@0PAV2@@Z
_TEXT	SEGMENT
__First$ = 8						; size = 4
__Last$ = 12						; size = 4
__Cat$556952 = 16					; size = 1
__Ptr$ = 16						; size = 4
??$_Ucopy@V?$_Vector_const_iterator@V?$_Vector_val@VioHashString@@V?$allocator@VioHashString@@@std@@@std@@@std@@@?$vector@VioHashString@@V?$allocator@VioHashString@@@std@@@std@@IAEPAVioHashString@@V?$_Vector_const_iterator@V?$_Vector_val@VioHashString@@V?$allocator@VioHashString@@@std@@@std@@@1@0PAV2@@Z PROC ; std::vector<ioHashString,std::allocator<ioHashString> >::_Ucopy<std::_Vector_const_iterator<std::_Vector_val<ioHashString,std::allocator<ioHashString> > > >, COMDAT
; _this$ = ecx

; 1315 : 		pointer _Ucopy(_Iter _First, _Iter _Last, pointer _Ptr)

  00000	55		 push	 ebp
  00001	8b ec		 mov	 ebp, esp

; 1316 : 		{	// copy initializing [_First, _Last), using allocator
; 1317 : 		return (_Uninitialized_copy(_First, _Last,
; 1318 : 			_Ptr, this->_Alval));

  00003	ff 75 10	 push	 DWORD PTR __Cat$556952[ebp]
  00006	83 c1 0c	 add	 ecx, 12			; 0000000cH
  00009	51		 push	 ecx
  0000a	ff 75 10	 push	 DWORD PTR __Ptr$[ebp]
  0000d	ff 75 0c	 push	 DWORD PTR __Last$[ebp]
  00010	ff 75 08	 push	 DWORD PTR __First$[ebp]
  00013	e8 00 00 00 00	 call	 ??$_Uninit_copy@V?$_Vector_const_iterator@V?$_Vector_val@VioHashString@@V?$allocator@VioHashString@@@std@@@std@@@std@@PAVioHashString@@V?$allocator@VioHashString@@@2@@std@@YAPAVioHashString@@V?$_Vector_const_iterator@V?$_Vector_val@VioHashString@@V?$allocator@VioHashString@@@std@@@std@@@0@0PAV1@AAV?$allocator@VioHashString@@@0@U_Nonscalar_ptr_iterator_tag@0@@Z ; std::_Uninit_copy<std::_Vector_const_iterator<std::_Vector_val<ioHashString,std::allocator<ioHashString> > >,ioHashString *,std::allocator<ioHashString> >
  00018	83 c4 14	 add	 esp, 20			; 00000014H

; 1319 : 		}

  0001b	5d		 pop	 ebp
  0001c	c2 0c 00	 ret	 12			; 0000000cH
??$_Ucopy@V?$_Vector_const_iterator@V?$_Vector_val@VioHashString@@V?$allocator@VioHashString@@@std@@@std@@@std@@@?$vector@VioHashString@@V?$allocator@VioHashString@@@std@@@std@@IAEPAVioHashString@@V?$_Vector_const_iterator@V?$_Vector_val@VioHashString@@V?$allocator@VioHashString@@@std@@@std@@@1@0PAV2@@Z ENDP ; std::vector<ioHashString,std::allocator<ioHashString> >::_Ucopy<std::_Vector_const_iterator<std::_Vector_val<ioHashString,std::allocator<ioHashString> > > >
_TEXT	ENDS
PUBLIC	?CheckNormalAttack@ioEngineerItem@@UAEXPAVioBaseChar@@@Z ; ioEngineerItem::CheckNormalAttack
; Function compile flags: /Ogsp
; File d:\lost saga for developer\youtube\tutorial\source\src\lsclient\ioengineeritem.cpp
;	COMDAT ?CheckNormalAttack@ioEngineerItem@@UAEXPAVioBaseChar@@@Z
_TEXT	SEGMENT
_pOwner$ = 8						; size = 4
?CheckNormalAttack@ioEngineerItem@@UAEXPAVioBaseChar@@@Z PROC ; ioEngineerItem::CheckNormalAttack, COMDAT
; _this$ = ecx

; 144  : {

  00000	55		 push	 ebp
  00001	8b ec		 mov	 ebp, esp
  00003	56		 push	 esi
  00004	8b f1		 mov	 esi, ecx

; 145  : 	DWORD dwCurTime = FRAMEGETTIME();

  00006	ff 15 00 00 00
	00		 call	 DWORD PTR __imp_?GetSingleton@ioFrameTimer@@SAAAV1@XZ
  0000c	8b c8		 mov	 ecx, eax
  0000e	ff 15 00 00 00
	00		 call	 DWORD PTR __imp_?GetLoopSec@ioFrameTimer@@QBEKXZ

; 146  : 
; 147  : 	switch( m_AttackState )

  00014	8b 86 54 19 00
	00		 mov	 eax, DWORD PTR [esi+6484]
  0001a	48		 dec	 eax
  0001b	74 1e		 je	 SHORT $LN3@CheckNorma
  0001d	48		 dec	 eax
  0001e	74 0f		 je	 SHORT $LN2@CheckNorma
  00020	48		 dec	 eax
  00021	75 22		 jne	 SHORT $LN4@CheckNorma

; 155  : 	case AS_MAKE_DUMMY:
; 156  : 		OnDummyMake( pOwner );

  00023	ff 75 08	 push	 DWORD PTR _pOwner$[ebp]
  00026	8b ce		 mov	 ecx, esi
  00028	e8 00 00 00 00	 call	 ?OnDummyMake@ioEngineerItem@@IAEXPAVioBaseChar@@@Z ; ioEngineerItem::OnDummyMake

; 157  : 		break;

  0002d	eb 16		 jmp	 SHORT $LN4@CheckNorma
$LN2@CheckNorma:

; 151  : 		break;
; 152  : 	case AS_ATTACK_FIRE:
; 153  : 		OnNormalAttack( pOwner );

  0002f	ff 75 08	 push	 DWORD PTR _pOwner$[ebp]
  00032	8b ce		 mov	 ecx, esi
  00034	e8 00 00 00 00	 call	 ?OnNormalAttack@ioEngineerItem@@IAEXPAVioBaseChar@@@Z ; ioEngineerItem::OnNormalAttack

; 154  : 		break;

  00039	eb 0a		 jmp	 SHORT $LN4@CheckNorma
$LN3@CheckNorma:

; 148  : 	{
; 149  : 	case AS_CHARGING:
; 150  : 		OnCharging( pOwner );

  0003b	ff 75 08	 push	 DWORD PTR _pOwner$[ebp]
  0003e	8b ce		 mov	 ecx, esi
  00040	e8 00 00 00 00	 call	 ?OnCharging@ioEngineerItem@@IAEXPAVioBaseChar@@@Z ; ioEngineerItem::OnCharging
$LN4@CheckNorma:
  00045	5e		 pop	 esi

; 158  : 	}
; 159  : }

  00046	5d		 pop	 ebp
  00047	c2 04 00	 ret	 4
?CheckNormalAttack@ioEngineerItem@@UAEXPAVioBaseChar@@@Z ENDP ; ioEngineerItem::CheckNormalAttack
_TEXT	ENDS
PUBLIC	?_Tidy@?$vector@UGroupDummyInfo@@V?$allocator@UGroupDummyInfo@@@std@@@std@@IAEXXZ ; std::vector<GroupDummyInfo,std::allocator<GroupDummyInfo> >::_Tidy
; Function compile flags: /Ogsp
; File c:\program files (x86)\microsoft visual studio 10.0\vc\include\vector
;	COMDAT ?_Tidy@?$vector@UGroupDummyInfo@@V?$allocator@UGroupDummyInfo@@@std@@@std@@IAEXXZ
_TEXT	SEGMENT
?_Tidy@?$vector@UGroupDummyInfo@@V?$allocator@UGroupDummyInfo@@@std@@@std@@IAEXXZ PROC ; std::vector<GroupDummyInfo,std::allocator<GroupDummyInfo> >::_Tidy, COMDAT
; _this$ = ecx

; 1301 : 		{	// free all storage

  00000	56		 push	 esi
  00001	8b f1		 mov	 esi, ecx

; 1302 : 		if (this->_Myfirst != 0)

  00003	83 3e 00	 cmp	 DWORD PTR [esi], 0
  00006	74 28		 je	 SHORT $LN27@Tidy@2

; 1303 : 			{	// something to free, destroy and deallocate it
; 1304 : 			this->_Orphan_all();

  00008	53		 push	 ebx
  00009	57		 push	 edi
  0000a	ff 15 00 00 00
	00		 call	 DWORD PTR __imp_?_Orphan_all@_Container_base0@std@@QAEXXZ

; 1305 : 			_Destroy(this->_Myfirst, this->_Mylast);

  00010	8b 5e 04	 mov	 ebx, DWORD PTR [esi+4]
  00013	8b 3e		 mov	 edi, DWORD PTR [esi]
  00015	eb 0b		 jmp	 SHORT $LN31@Tidy@2
$LL12@Tidy@2:
  00017	8b cf		 mov	 ecx, edi
  00019	ff 15 00 00 00
	00		 call	 DWORD PTR __imp_??1ioHashString@@QAE@XZ
  0001f	83 c7 14	 add	 edi, 20			; 00000014H
$LN31@Tidy@2:
  00022	3b fb		 cmp	 edi, ebx
  00024	75 f1		 jne	 SHORT $LL12@Tidy@2

; 1306 : 			this->_Alval.deallocate(this->_Myfirst,
; 1307 : 				this->_Myend - this->_Myfirst);

  00026	ff 36		 push	 DWORD PTR [esi]
  00028	e8 00 00 00 00	 call	 ??3@YAXPAX@Z		; operator delete
  0002d	59		 pop	 ecx
  0002e	5f		 pop	 edi
  0002f	5b		 pop	 ebx
$LN27@Tidy@2:

; 1308 : 			}
; 1309 : 		this->_Myfirst = 0;

  00030	33 c0		 xor	 eax, eax
  00032	89 06		 mov	 DWORD PTR [esi], eax

; 1310 : 		this->_Mylast = 0;

  00034	89 46 04	 mov	 DWORD PTR [esi+4], eax

; 1311 : 		this->_Myend = 0;

  00037	89 46 08	 mov	 DWORD PTR [esi+8], eax
  0003a	5e		 pop	 esi

; 1312 : 		}

  0003b	c3		 ret	 0
?_Tidy@?$vector@UGroupDummyInfo@@V?$allocator@UGroupDummyInfo@@@std@@@std@@IAEXXZ ENDP ; std::vector<GroupDummyInfo,std::allocator<GroupDummyInfo> >::_Tidy
_TEXT	ENDS
PUBLIC	?reserve@?$vector@VioHashString@@V?$allocator@VioHashString@@@std@@@std@@QAEXI@Z ; std::vector<ioHashString,std::allocator<ioHashString> >::reserve
;	COMDAT xdata$x
; File c:\program files (x86)\microsoft visual studio 10.0\vc\include\xmemory
xdata$x	SEGMENT
__catchsym$?reserve@?$vector@VioHashString@@V?$allocator@VioHashString@@@std@@@std@@QAEXI@Z$2 DD 040H
	DD	00H
	DD	00H
	DD	FLAT:__catch$?reserve@?$vector@VioHashString@@V?$allocator@VioHashString@@@std@@@std@@QAEXI@Z$0
__unwindtable$?reserve@?$vector@VioHashString@@V?$allocator@VioHashString@@@std@@@std@@QAEXI@Z DD 0ffffffffH
	DD	00H
	DD	0ffffffffH
	DD	00H
__tryblocktable$?reserve@?$vector@VioHashString@@V?$allocator@VioHashString@@@std@@@std@@QAEXI@Z DD 00H
	DD	00H
	DD	01H
	DD	01H
	DD	FLAT:__catchsym$?reserve@?$vector@VioHashString@@V?$allocator@VioHashString@@@std@@@std@@QAEXI@Z$2
__ehfuncinfo$?reserve@?$vector@VioHashString@@V?$allocator@VioHashString@@@std@@@std@@QAEXI@Z DD 019930522H
	DD	02H
	DD	FLAT:__unwindtable$?reserve@?$vector@VioHashString@@V?$allocator@VioHashString@@@std@@@std@@QAEXI@Z
	DD	01H
	DD	FLAT:__tryblocktable$?reserve@?$vector@VioHashString@@V?$allocator@VioHashString@@@std@@@std@@QAEXI@Z
	DD	2 DUP(00H)
	DD	00H
	DD	01H
; Function compile flags: /Ogsp
; File c:\program files (x86)\microsoft visual studio 10.0\vc\include\vector
xdata$x	ENDS
;	COMDAT ?reserve@?$vector@VioHashString@@V?$allocator@VioHashString@@@std@@@std@@QAEXI@Z
_TEXT	SEGMENT
tv300 = -24						; size = 4
__Ptr$550979 = -20					; size = 4
__$EHRec$ = -16						; size = 16
$T557175 = 8						; size = 4
__Count$ = 8						; size = 4
?reserve@?$vector@VioHashString@@V?$allocator@VioHashString@@@std@@@std@@QAEXI@Z PROC ; std::vector<ioHashString,std::allocator<ioHashString> >::reserve, COMDAT
; _this$ = ecx

; 746  : 		{	// determine new minimum length of allocated storage

  00000	6a 0c		 push	 12			; 0000000cH
  00002	b8 00 00 00 00	 mov	 eax, __ehhandler$?reserve@?$vector@VioHashString@@V?$allocator@VioHashString@@@std@@@std@@QAEXI@Z
  00007	e8 00 00 00 00	 call	 __EH_prolog3_catch
  0000c	8b f1		 mov	 esi, ecx

; 747  : 		if (max_size() < _Count)

  0000e	8b 5d 08	 mov	 ebx, DWORD PTR __Count$[ebp]
  00011	81 fb ff ff ff
	0f		 cmp	 ebx, 268435455		; 0fffffffH
  00017	76 0b		 jbe	 SHORT $LN5@reserve

; 748  : 			_Xlen();	// result too long

  00019	68 00 00 00 00	 push	 OFFSET ??_C@_0BD@OLBABOEK@vector?$DMT?$DO?5too?5long?$AA@
  0001e	ff 15 00 00 00
	00		 call	 DWORD PTR __imp_?_Xlength_error@std@@YAXPBD@Z
$LN59@reserve:
$LN5@reserve:

; 749  : 		else if (capacity() < _Count)

  00024	8b 46 08	 mov	 eax, DWORD PTR [esi+8]
  00027	2b 06		 sub	 eax, DWORD PTR [esi]
  00029	c1 f8 04	 sar	 eax, 4
  0002c	3b c3		 cmp	 eax, ebx
  0002e	73 7a		 jae	 SHORT $LN3@reserve

; 750  : 			{	// not enough room, reallocate
; 751  : 			pointer _Ptr = this->_Alval.allocate(_Count);

  00030	6a 00		 push	 0
  00032	53		 push	 ebx
  00033	e8 00 00 00 00	 call	 ??$_Allocate@VioHashString@@@std@@YAPAVioHashString@@IPAV1@@Z ; std::_Allocate<ioHashString>

; 752  : 
; 753  : 			_TRY_BEGIN
; 754  : 			_Umove(this->_Myfirst, this->_Mylast, _Ptr);

  00038	8b 0e		 mov	 ecx, DWORD PTR [esi]
  0003a	83 65 fc 00	 and	 DWORD PTR __$EHRec$[ebp+12], 0
  0003e	8d 56 0c	 lea	 edx, DWORD PTR [esi+12]
  00041	52		 push	 edx
  00042	89 45 ec	 mov	 DWORD PTR __Ptr$550979[ebp], eax
  00045	ff 75 ec	 push	 DWORD PTR __Ptr$550979[ebp]
  00048	8b 46 04	 mov	 eax, DWORD PTR [esi+4]
  0004b	50		 push	 eax
  0004c	51		 push	 ecx
  0004d	e8 00 00 00 00	 call	 ??$_Uninitialized_move@PAVioHashString@@PAV1@V?$allocator@VioHashString@@@std@@@std@@YAPAVioHashString@@PAV1@00AAV?$allocator@VioHashString@@@0@@Z ; std::_Uninitialized_move<ioHashString *,ioHashString *,std::allocator<ioHashString> >

; 758  : 			_CATCH_END
; 759  : 
; 760  : 			size_type _Size = size();

  00052	8b 4e 04	 mov	 ecx, DWORD PTR [esi+4]
  00055	8b 06		 mov	 eax, DWORD PTR [esi]
  00057	83 4d fc ff	 or	 DWORD PTR __$EHRec$[ebp+12], -1
  0005b	8b f9		 mov	 edi, ecx
  0005d	83 c4 18	 add	 esp, 24			; 00000018H
  00060	2b f8		 sub	 edi, eax
  00062	89 4d e8	 mov	 DWORD PTR tv300[ebp], ecx
  00065	85 c0		 test	 eax, eax
  00067	74 24		 je	 SHORT $LN51@reserve

; 761  : 			if (this->_Myfirst != 0)
; 762  : 				{	// destroy and deallocate old array
; 763  : 				_Destroy(this->_Myfirst, this->_Mylast);

  00069	89 45 08	 mov	 DWORD PTR $T557175[ebp], eax
  0006c	3b c1		 cmp	 eax, ecx
  0006e	74 15		 je	 SHORT $LN37@reserve
$LN39@reserve:
  00070	8b 4d 08	 mov	 ecx, DWORD PTR $T557175[ebp]
  00073	ff 15 00 00 00
	00		 call	 DWORD PTR __imp_??1ioHashString@@QAE@XZ
  00079	83 45 08 10	 add	 DWORD PTR $T557175[ebp], 16 ; 00000010H
  0007d	8b 45 08	 mov	 eax, DWORD PTR $T557175[ebp]
  00080	3b 45 e8	 cmp	 eax, DWORD PTR tv300[ebp]
  00083	75 eb		 jne	 SHORT $LN39@reserve
$LN37@reserve:

; 764  : 				this->_Alval.deallocate(this->_Myfirst,
; 765  : 					this->_Myend - this->_Myfirst);

  00085	ff 36		 push	 DWORD PTR [esi]
  00087	e8 00 00 00 00	 call	 ??3@YAXPAX@Z		; operator delete
  0008c	59		 pop	 ecx
$LN51@reserve:

; 766  : 				}
; 767  : 
; 768  : 			this->_Orphan_all();

  0008d	8b ce		 mov	 ecx, esi
  0008f	ff 15 00 00 00
	00		 call	 DWORD PTR __imp_?_Orphan_all@_Container_base0@std@@QAEXXZ

; 769  : 			this->_Myend = _Ptr + _Count;

  00095	8b 45 ec	 mov	 eax, DWORD PTR __Ptr$550979[ebp]
  00098	c1 e3 04	 shl	 ebx, 4
  0009b	03 d8		 add	 ebx, eax

; 770  : 			this->_Mylast = _Ptr + _Size;

  0009d	83 e7 f0	 and	 edi, -16		; fffffff0H
  000a0	03 f8		 add	 edi, eax
  000a2	89 5e 08	 mov	 DWORD PTR [esi+8], ebx
  000a5	89 7e 04	 mov	 DWORD PTR [esi+4], edi

; 771  : 			this->_Myfirst = _Ptr;

  000a8	89 06		 mov	 DWORD PTR [esi], eax
$LN3@reserve:

; 772  : 			}
; 773  : 		}

  000aa	e8 00 00 00 00	 call	 __EH_epilog3
  000af	c2 04 00	 ret	 4
__catch$?reserve@?$vector@VioHashString@@V?$allocator@VioHashString@@@std@@@std@@QAEXI@Z$0:

; 755  : 			_CATCH_ALL
; 756  : 			this->_Alval.deallocate(_Ptr, _Count);

  000b2	ff 75 ec	 push	 DWORD PTR __Ptr$550979[ebp]
  000b5	e8 00 00 00 00	 call	 ??3@YAXPAX@Z		; operator delete
  000ba	59		 pop	 ecx

; 757  : 			_RERAISE;

  000bb	6a 00		 push	 0
  000bd	6a 00		 push	 0
  000bf	e8 00 00 00 00	 call	 __CxxThrowException@8
$LN60@reserve:
$LN58@reserve:
  000c4	cc		 int	 3
_TEXT	ENDS
;	COMDAT text$x
text$x	SEGMENT
__ehhandler$?reserve@?$vector@VioHashString@@V?$allocator@VioHashString@@@std@@@std@@QAEXI@Z:
  00000	8b 54 24 08	 mov	 edx, DWORD PTR [esp+8]
  00004	8d 42 0c	 lea	 eax, DWORD PTR [edx+12]
  00007	8b 4a e4	 mov	 ecx, DWORD PTR [edx-28]
  0000a	33 c8		 xor	 ecx, eax
  0000c	e8 00 00 00 00	 call	 @__security_check_cookie@4
  00011	b8 00 00 00 00	 mov	 eax, OFFSET __ehfuncinfo$?reserve@?$vector@VioHashString@@V?$allocator@VioHashString@@@std@@@std@@QAEXI@Z
  00016	e9 00 00 00 00	 jmp	 ___CxxFrameHandler3
text$x	ENDS
?reserve@?$vector@VioHashString@@V?$allocator@VioHashString@@@std@@@std@@QAEXI@Z ENDP ; std::vector<ioHashString,std::allocator<ioHashString> >::reserve
PUBLIC	?reserve@?$vector@UGroupDummyInfo@@V?$allocator@UGroupDummyInfo@@@std@@@std@@QAEXI@Z ; std::vector<GroupDummyInfo,std::allocator<GroupDummyInfo> >::reserve
;	COMDAT xdata$x
; File c:\program files (x86)\microsoft visual studio 10.0\vc\include\xmemory
xdata$x	SEGMENT
__catchsym$?reserve@?$vector@UGroupDummyInfo@@V?$allocator@UGroupDummyInfo@@@std@@@std@@QAEXI@Z$3 DD 040H
	DD	00H
	DD	00H
	DD	FLAT:__catch$?reserve@?$vector@UGroupDummyInfo@@V?$allocator@UGroupDummyInfo@@@std@@@std@@QAEXI@Z$0
__unwindtable$?reserve@?$vector@UGroupDummyInfo@@V?$allocator@UGroupDummyInfo@@@std@@@std@@QAEXI@Z DD 0ffffffffH
	DD	00H
	DD	0ffffffffH
	DD	00H
__tryblocktable$?reserve@?$vector@UGroupDummyInfo@@V?$allocator@UGroupDummyInfo@@@std@@@std@@QAEXI@Z DD 00H
	DD	00H
	DD	01H
	DD	01H
	DD	FLAT:__catchsym$?reserve@?$vector@UGroupDummyInfo@@V?$allocator@UGroupDummyInfo@@@std@@@std@@QAEXI@Z$3
__ehfuncinfo$?reserve@?$vector@UGroupDummyInfo@@V?$allocator@UGroupDummyInfo@@@std@@@std@@QAEXI@Z DD 019930522H
	DD	02H
	DD	FLAT:__unwindtable$?reserve@?$vector@UGroupDummyInfo@@V?$allocator@UGroupDummyInfo@@@std@@@std@@QAEXI@Z
	DD	01H
	DD	FLAT:__tryblocktable$?reserve@?$vector@UGroupDummyInfo@@V?$allocator@UGroupDummyInfo@@@std@@@std@@QAEXI@Z
	DD	2 DUP(00H)
	DD	00H
	DD	01H
; Function compile flags: /Ogsp
; File c:\program files (x86)\microsoft visual studio 10.0\vc\include\vector
xdata$x	ENDS
;	COMDAT ?reserve@?$vector@UGroupDummyInfo@@V?$allocator@UGroupDummyInfo@@@std@@@std@@QAEXI@Z
_TEXT	SEGMENT
__Ptr$550997 = -24					; size = 4
$T557347 = -20						; size = 4
__$EHRec$ = -16						; size = 16
__Count$ = 8						; size = 4
?reserve@?$vector@UGroupDummyInfo@@V?$allocator@UGroupDummyInfo@@@std@@@std@@QAEXI@Z PROC ; std::vector<GroupDummyInfo,std::allocator<GroupDummyInfo> >::reserve, COMDAT
; _this$ = ecx

; 746  : 		{	// determine new minimum length of allocated storage

  00000	6a 0c		 push	 12			; 0000000cH
  00002	b8 00 00 00 00	 mov	 eax, __ehhandler$?reserve@?$vector@UGroupDummyInfo@@V?$allocator@UGroupDummyInfo@@@std@@@std@@QAEXI@Z
  00007	e8 00 00 00 00	 call	 __EH_prolog3_catch
  0000c	8b f1		 mov	 esi, ecx

; 747  : 		if (max_size() < _Count)

  0000e	81 7d 08 cc cc
	cc 0c		 cmp	 DWORD PTR __Count$[ebp], 214748364 ; 0cccccccH
  00015	76 0b		 jbe	 SHORT $LN5@reserve@2

; 748  : 			_Xlen();	// result too long

  00017	68 00 00 00 00	 push	 OFFSET ??_C@_0BD@OLBABOEK@vector?$DMT?$DO?5too?5long?$AA@
  0001c	ff 15 00 00 00
	00		 call	 DWORD PTR __imp_?_Xlength_error@std@@YAXPBD@Z
$LN62@reserve@2:
$LN5@reserve@2:

; 749  : 		else if (capacity() < _Count)

  00022	8b 46 08	 mov	 eax, DWORD PTR [esi+8]
  00025	2b 06		 sub	 eax, DWORD PTR [esi]
  00027	6a 14		 push	 20			; 00000014H
  00029	99		 cdq
  0002a	59		 pop	 ecx
  0002b	f7 f9		 idiv	 ecx
  0002d	3b 45 08	 cmp	 eax, DWORD PTR __Count$[ebp]
  00030	0f 83 81 00 00
	00		 jae	 $LN3@reserve@2

; 750  : 			{	// not enough room, reallocate
; 751  : 			pointer _Ptr = this->_Alval.allocate(_Count);

  00036	6a 00		 push	 0
  00038	ff 75 08	 push	 DWORD PTR __Count$[ebp]
  0003b	e8 00 00 00 00	 call	 ??$_Allocate@UGroupDummyInfo@@@std@@YAPAUGroupDummyInfo@@IPAU1@@Z ; std::_Allocate<GroupDummyInfo>

; 752  : 
; 753  : 			_TRY_BEGIN
; 754  : 			_Umove(this->_Myfirst, this->_Mylast, _Ptr);

  00040	8b 0e		 mov	 ecx, DWORD PTR [esi]
  00042	83 65 fc 00	 and	 DWORD PTR __$EHRec$[ebp+12], 0
  00046	8d 56 0c	 lea	 edx, DWORD PTR [esi+12]
  00049	52		 push	 edx
  0004a	89 45 e8	 mov	 DWORD PTR __Ptr$550997[ebp], eax
  0004d	ff 75 e8	 push	 DWORD PTR __Ptr$550997[ebp]
  00050	8b 46 04	 mov	 eax, DWORD PTR [esi+4]
  00053	50		 push	 eax
  00054	51		 push	 ecx
  00055	e8 00 00 00 00	 call	 ??$_Uninitialized_move@PAUGroupDummyInfo@@PAU1@V?$allocator@UGroupDummyInfo@@@std@@@std@@YAPAUGroupDummyInfo@@PAU1@00AAV?$allocator@UGroupDummyInfo@@@0@@Z ; std::_Uninitialized_move<GroupDummyInfo *,GroupDummyInfo *,std::allocator<GroupDummyInfo> >

; 758  : 			_CATCH_END
; 759  : 
; 760  : 			size_type _Size = size();

  0005a	8b 5e 04	 mov	 ebx, DWORD PTR [esi+4]
  0005d	8b 0e		 mov	 ecx, DWORD PTR [esi]
  0005f	83 c4 18	 add	 esp, 24			; 00000018H
  00062	8b c3		 mov	 eax, ebx
  00064	2b c1		 sub	 eax, ecx
  00066	6a 14		 push	 20			; 00000014H
  00068	99		 cdq
  00069	5f		 pop	 edi
  0006a	f7 ff		 idiv	 edi
  0006c	83 4d fc ff	 or	 DWORD PTR __$EHRec$[ebp+12], -1
  00070	8b f8		 mov	 edi, eax
  00072	85 c9		 test	 ecx, ecx
  00074	74 21		 je	 SHORT $LN54@reserve@2

; 761  : 			if (this->_Myfirst != 0)
; 762  : 				{	// destroy and deallocate old array
; 763  : 				_Destroy(this->_Myfirst, this->_Mylast);

  00076	89 4d ec	 mov	 DWORD PTR $T557347[ebp], ecx
  00079	3b cb		 cmp	 ecx, ebx
  0007b	74 12		 je	 SHORT $LN37@reserve@2
$LN39@reserve@2:
  0007d	8b 4d ec	 mov	 ecx, DWORD PTR $T557347[ebp]
  00080	ff 15 00 00 00
	00		 call	 DWORD PTR __imp_??1ioHashString@@QAE@XZ
  00086	83 45 ec 14	 add	 DWORD PTR $T557347[ebp], 20 ; 00000014H
  0008a	39 5d ec	 cmp	 DWORD PTR $T557347[ebp], ebx
  0008d	75 ee		 jne	 SHORT $LN39@reserve@2
$LN37@reserve@2:

; 764  : 				this->_Alval.deallocate(this->_Myfirst,
; 765  : 					this->_Myend - this->_Myfirst);

  0008f	ff 36		 push	 DWORD PTR [esi]
  00091	e8 00 00 00 00	 call	 ??3@YAXPAX@Z		; operator delete
  00096	59		 pop	 ecx
$LN54@reserve@2:

; 766  : 				}
; 767  : 
; 768  : 			this->_Orphan_all();

  00097	8b ce		 mov	 ecx, esi
  00099	ff 15 00 00 00
	00		 call	 DWORD PTR __imp_?_Orphan_all@_Container_base0@std@@QAEXXZ

; 769  : 			this->_Myend = _Ptr + _Count;
; 770  : 			this->_Mylast = _Ptr + _Size;

  0009f	6b ff 14	 imul	 edi, 20			; 00000014H
  000a2	8b 45 08	 mov	 eax, DWORD PTR __Count$[ebp]
  000a5	8b 4d e8	 mov	 ecx, DWORD PTR __Ptr$550997[ebp]
  000a8	6b c0 14	 imul	 eax, 20			; 00000014H
  000ab	03 c1		 add	 eax, ecx
  000ad	03 f9		 add	 edi, ecx
  000af	89 46 08	 mov	 DWORD PTR [esi+8], eax
  000b2	89 7e 04	 mov	 DWORD PTR [esi+4], edi

; 771  : 			this->_Myfirst = _Ptr;

  000b5	89 0e		 mov	 DWORD PTR [esi], ecx
$LN3@reserve@2:

; 772  : 			}
; 773  : 		}

  000b7	e8 00 00 00 00	 call	 __EH_epilog3
  000bc	c2 04 00	 ret	 4
__catch$?reserve@?$vector@UGroupDummyInfo@@V?$allocator@UGroupDummyInfo@@@std@@@std@@QAEXI@Z$0:

; 755  : 			_CATCH_ALL
; 756  : 			this->_Alval.deallocate(_Ptr, _Count);

  000bf	ff 75 e8	 push	 DWORD PTR __Ptr$550997[ebp]
  000c2	e8 00 00 00 00	 call	 ??3@YAXPAX@Z		; operator delete
  000c7	59		 pop	 ecx

; 757  : 			_RERAISE;

  000c8	6a 00		 push	 0
  000ca	6a 00		 push	 0
  000cc	e8 00 00 00 00	 call	 __CxxThrowException@8
$LN63@reserve@2:
$LN61@reserve@2:
  000d1	cc		 int	 3
_TEXT	ENDS
;	COMDAT text$x
text$x	SEGMENT
__ehhandler$?reserve@?$vector@UGroupDummyInfo@@V?$allocator@UGroupDummyInfo@@@std@@@std@@QAEXI@Z:
  00000	8b 54 24 08	 mov	 edx, DWORD PTR [esp+8]
  00004	8d 42 0c	 lea	 eax, DWORD PTR [edx+12]
  00007	8b 4a e4	 mov	 ecx, DWORD PTR [edx-28]
  0000a	33 c8		 xor	 ecx, eax
  0000c	e8 00 00 00 00	 call	 @__security_check_cookie@4
  00011	b8 00 00 00 00	 mov	 eax, OFFSET __ehfuncinfo$?reserve@?$vector@UGroupDummyInfo@@V?$allocator@UGroupDummyInfo@@@std@@@std@@QAEXI@Z
  00016	e9 00 00 00 00	 jmp	 ___CxxFrameHandler3
text$x	ENDS
?reserve@?$vector@UGroupDummyInfo@@V?$allocator@UGroupDummyInfo@@@std@@@std@@QAEXI@Z ENDP ; std::vector<GroupDummyInfo,std::allocator<GroupDummyInfo> >::reserve
PUBLIC	?_Tidy@?$vector@VioHashString@@V?$allocator@VioHashString@@@std@@@std@@IAEXXZ ; std::vector<ioHashString,std::allocator<ioHashString> >::_Tidy
; Function compile flags: /Ogsp
;	COMDAT ?_Tidy@?$vector@VioHashString@@V?$allocator@VioHashString@@@std@@@std@@IAEXXZ
_TEXT	SEGMENT
?_Tidy@?$vector@VioHashString@@V?$allocator@VioHashString@@@std@@@std@@IAEXXZ PROC ; std::vector<ioHashString,std::allocator<ioHashString> >::_Tidy, COMDAT
; _this$ = ecx

; 1301 : 		{	// free all storage

  00000	56		 push	 esi
  00001	8b f1		 mov	 esi, ecx

; 1302 : 		if (this->_Myfirst != 0)

  00003	83 3e 00	 cmp	 DWORD PTR [esi], 0
  00006	74 28		 je	 SHORT $LN24@Tidy@3

; 1303 : 			{	// something to free, destroy and deallocate it
; 1304 : 			this->_Orphan_all();

  00008	53		 push	 ebx
  00009	57		 push	 edi
  0000a	ff 15 00 00 00
	00		 call	 DWORD PTR __imp_?_Orphan_all@_Container_base0@std@@QAEXXZ

; 1305 : 			_Destroy(this->_Myfirst, this->_Mylast);

  00010	8b 5e 04	 mov	 ebx, DWORD PTR [esi+4]
  00013	8b 3e		 mov	 edi, DWORD PTR [esi]
  00015	eb 0b		 jmp	 SHORT $LN28@Tidy@3
$LL12@Tidy@3:
  00017	8b cf		 mov	 ecx, edi
  00019	ff 15 00 00 00
	00		 call	 DWORD PTR __imp_??1ioHashString@@QAE@XZ
  0001f	83 c7 10	 add	 edi, 16			; 00000010H
$LN28@Tidy@3:
  00022	3b fb		 cmp	 edi, ebx
  00024	75 f1		 jne	 SHORT $LL12@Tidy@3

; 1306 : 			this->_Alval.deallocate(this->_Myfirst,
; 1307 : 				this->_Myend - this->_Myfirst);

  00026	ff 36		 push	 DWORD PTR [esi]
  00028	e8 00 00 00 00	 call	 ??3@YAXPAX@Z		; operator delete
  0002d	59		 pop	 ecx
  0002e	5f		 pop	 edi
  0002f	5b		 pop	 ebx
$LN24@Tidy@3:

; 1308 : 			}
; 1309 : 		this->_Myfirst = 0;

  00030	33 c0		 xor	 eax, eax
  00032	89 06		 mov	 DWORD PTR [esi], eax

; 1310 : 		this->_Mylast = 0;

  00034	89 46 04	 mov	 DWORD PTR [esi+4], eax

; 1311 : 		this->_Myend = 0;

  00037	89 46 08	 mov	 DWORD PTR [esi+8], eax
  0003a	5e		 pop	 esi

; 1312 : 		}

  0003b	c3		 ret	 0
?_Tidy@?$vector@VioHashString@@V?$allocator@VioHashString@@@std@@@std@@IAEXXZ ENDP ; std::vector<ioHashString,std::allocator<ioHashString> >::_Tidy
_TEXT	ENDS
PUBLIC	??0?$vector@UGroupDummyInfo@@V?$allocator@UGroupDummyInfo@@@std@@@std@@QAE@ABV01@@Z ; std::vector<GroupDummyInfo,std::allocator<GroupDummyInfo> >::vector<GroupDummyInfo,std::allocator<GroupDummyInfo> >
;	COMDAT xdata$x
; File c:\program files (x86)\microsoft visual studio 10.0\vc\include\xutility
xdata$x	SEGMENT
__catchsym$??0?$vector@UGroupDummyInfo@@V?$allocator@UGroupDummyInfo@@@std@@@std@@QAE@ABV01@@Z$2 DD 040H
	DD	00H
	DD	00H
	DD	FLAT:__catch$??0?$vector@UGroupDummyInfo@@V?$allocator@UGroupDummyInfo@@@std@@@std@@QAE@ABV01@@Z$0
__unwindtable$??0?$vector@UGroupDummyInfo@@V?$allocator@UGroupDummyInfo@@@std@@@std@@QAE@ABV01@@Z DD 0ffffffffH
	DD	00H
	DD	0ffffffffH
	DD	00H
__tryblocktable$??0?$vector@UGroupDummyInfo@@V?$allocator@UGroupDummyInfo@@@std@@@std@@QAE@ABV01@@Z DD 00H
	DD	00H
	DD	01H
	DD	01H
	DD	FLAT:__catchsym$??0?$vector@UGroupDummyInfo@@V?$allocator@UGroupDummyInfo@@@std@@@std@@QAE@ABV01@@Z$2
__ehfuncinfo$??0?$vector@UGroupDummyInfo@@V?$allocator@UGroupDummyInfo@@@std@@@std@@QAE@ABV01@@Z DD 019930522H
	DD	02H
	DD	FLAT:__unwindtable$??0?$vector@UGroupDummyInfo@@V?$allocator@UGroupDummyInfo@@@std@@@std@@QAE@ABV01@@Z
	DD	01H
	DD	FLAT:__tryblocktable$??0?$vector@UGroupDummyInfo@@V?$allocator@UGroupDummyInfo@@@std@@@std@@QAE@ABV01@@Z
	DD	2 DUP(00H)
	DD	00H
	DD	01H
; Function compile flags: /Ogsp
; File c:\program files (x86)\microsoft visual studio 10.0\vc\include\vector
xdata$x	ENDS
;	COMDAT ??0?$vector@UGroupDummyInfo@@V?$allocator@UGroupDummyInfo@@@std@@@std@@QAE@ABV01@@Z
_TEXT	SEGMENT
_this$ = -20						; size = 4
__$EHRec$ = -16						; size = 16
__Cat$557601 = 8					; size = 1
__Right$ = 8						; size = 4
??0?$vector@UGroupDummyInfo@@V?$allocator@UGroupDummyInfo@@@std@@@std@@QAE@ABV01@@Z PROC ; std::vector<GroupDummyInfo,std::allocator<GroupDummyInfo> >::vector<GroupDummyInfo,std::allocator<GroupDummyInfo> >, COMDAT
; _this$ = ecx

; 535  : 		{	// construct by copying _Right

  00000	6a 08		 push	 8
  00002	b8 00 00 00 00	 mov	 eax, __ehhandler$??0?$vector@UGroupDummyInfo@@V?$allocator@UGroupDummyInfo@@@std@@@std@@QAE@ABV01@@Z
  00007	e8 00 00 00 00	 call	 __EH_prolog3_catch
  0000c	8b f1		 mov	 esi, ecx
  0000e	89 75 ec	 mov	 DWORD PTR _this$[ebp], esi

; 536  : 		if (_Buy(_Right.size()))

  00011	8b 7d 08	 mov	 edi, DWORD PTR __Right$[ebp]
  00014	33 db		 xor	 ebx, ebx
  00016	89 1e		 mov	 DWORD PTR [esi], ebx
  00018	89 5e 04	 mov	 DWORD PTR [esi+4], ebx
  0001b	89 5e 08	 mov	 DWORD PTR [esi+8], ebx
  0001e	8b 47 04	 mov	 eax, DWORD PTR [edi+4]
  00021	2b 07		 sub	 eax, DWORD PTR [edi]
  00023	6a 14		 push	 20			; 00000014H
  00025	59		 pop	 ecx
  00026	99		 cdq
  00027	f7 f9		 idiv	 ecx
  00029	8b ce		 mov	 ecx, esi
  0002b	50		 push	 eax
  0002c	e8 00 00 00 00	 call	 ?_Buy@?$vector@UGroupDummyInfo@@V?$allocator@UGroupDummyInfo@@@std@@@std@@IAE_NI@Z ; std::vector<GroupDummyInfo,std::allocator<GroupDummyInfo> >::_Buy
  00031	84 c0		 test	 al, al
  00033	74 1f		 je	 SHORT $LN7@vector

; 537  : 			_TRY_BEGIN
; 538  : 			this->_Mylast = _Ucopy(_Right.begin(), _Right.end(),
; 539  : 				this->_Myfirst);

  00035	ff 75 08	 push	 DWORD PTR __Cat$557601[ebp]
  00038	8b 0e		 mov	 ecx, DWORD PTR [esi]
  0003a	8b 47 04	 mov	 eax, DWORD PTR [edi+4]
  0003d	8b 3f		 mov	 edi, DWORD PTR [edi]
  0003f	8d 56 0c	 lea	 edx, DWORD PTR [esi+12]
  00042	52		 push	 edx
  00043	51		 push	 ecx
  00044	50		 push	 eax
  00045	57		 push	 edi
  00046	89 5d fc	 mov	 DWORD PTR __$EHRec$[ebp+12], ebx
  00049	e8 00 00 00 00	 call	 ??$_Uninit_copy@V?$_Vector_const_iterator@V?$_Vector_val@UGroupDummyInfo@@V?$allocator@UGroupDummyInfo@@@std@@@std@@@std@@PAUGroupDummyInfo@@V?$allocator@UGroupDummyInfo@@@2@@std@@YAPAUGroupDummyInfo@@V?$_Vector_const_iterator@V?$_Vector_val@UGroupDummyInfo@@V?$allocator@UGroupDummyInfo@@@std@@@std@@@0@0PAU1@AAV?$allocator@UGroupDummyInfo@@@0@U_Nonscalar_ptr_iterator_tag@0@@Z ; std::_Uninit_copy<std::_Vector_const_iterator<std::_Vector_val<GroupDummyInfo,std::allocator<GroupDummyInfo> > >,GroupDummyInfo *,std::allocator<GroupDummyInfo> >
  0004e	83 c4 14	 add	 esp, 20			; 00000014H
  00051	89 46 04	 mov	 DWORD PTR [esi+4], eax
$LN7@vector:

; 543  : 			_CATCH_END
; 544  : 		}

  00054	8b c6		 mov	 eax, esi
  00056	e8 00 00 00 00	 call	 __EH_epilog3
  0005b	c2 04 00	 ret	 4
__catch$??0?$vector@UGroupDummyInfo@@V?$allocator@UGroupDummyInfo@@@std@@@std@@QAE@ABV01@@Z$0:

; 540  : 			_CATCH_ALL
; 541  : 			_Tidy();

  0005e	8b 4d ec	 mov	 ecx, DWORD PTR _this$[ebp]
  00061	e8 00 00 00 00	 call	 ?_Tidy@?$vector@UGroupDummyInfo@@V?$allocator@UGroupDummyInfo@@@std@@@std@@IAEXXZ ; std::vector<GroupDummyInfo,std::allocator<GroupDummyInfo> >::_Tidy

; 542  : 			_RERAISE;

  00066	33 db		 xor	 ebx, ebx
  00068	53		 push	 ebx
  00069	53		 push	 ebx
  0006a	e8 00 00 00 00	 call	 __CxxThrowException@8
$LN38@vector:
$LN37@vector:
  0006f	cc		 int	 3
_TEXT	ENDS
;	COMDAT text$x
text$x	SEGMENT
__ehhandler$??0?$vector@UGroupDummyInfo@@V?$allocator@UGroupDummyInfo@@@std@@@std@@QAE@ABV01@@Z:
  00000	8b 54 24 08	 mov	 edx, DWORD PTR [esp+8]
  00004	8d 42 0c	 lea	 eax, DWORD PTR [edx+12]
  00007	8b 4a e8	 mov	 ecx, DWORD PTR [edx-24]
  0000a	33 c8		 xor	 ecx, eax
  0000c	e8 00 00 00 00	 call	 @__security_check_cookie@4
  00011	b8 00 00 00 00	 mov	 eax, OFFSET __ehfuncinfo$??0?$vector@UGroupDummyInfo@@V?$allocator@UGroupDummyInfo@@@std@@@std@@QAE@ABV01@@Z
  00016	e9 00 00 00 00	 jmp	 ___CxxFrameHandler3
text$x	ENDS
??0?$vector@UGroupDummyInfo@@V?$allocator@UGroupDummyInfo@@@std@@@std@@QAE@ABV01@@Z ENDP ; std::vector<GroupDummyInfo,std::allocator<GroupDummyInfo> >::vector<GroupDummyInfo,std::allocator<GroupDummyInfo> >
PUBLIC	??1?$vector@UGroupDummyInfo@@V?$allocator@UGroupDummyInfo@@@std@@@std@@QAE@XZ ; std::vector<GroupDummyInfo,std::allocator<GroupDummyInfo> >::~vector<GroupDummyInfo,std::allocator<GroupDummyInfo> >
; Function compile flags: /Ogsp
;	COMDAT ??1?$vector@UGroupDummyInfo@@V?$allocator@UGroupDummyInfo@@@std@@@std@@QAE@XZ
_TEXT	SEGMENT
??1?$vector@UGroupDummyInfo@@V?$allocator@UGroupDummyInfo@@@std@@@std@@QAE@XZ PROC ; std::vector<GroupDummyInfo,std::allocator<GroupDummyInfo> >::~vector<GroupDummyInfo,std::allocator<GroupDummyInfo> >, COMDAT
; _this$ = ecx

; 705  : 		_Tidy();

  00000	e9 00 00 00 00	 jmp	 ?_Tidy@?$vector@UGroupDummyInfo@@V?$allocator@UGroupDummyInfo@@@std@@@std@@IAEXXZ ; std::vector<GroupDummyInfo,std::allocator<GroupDummyInfo> >::_Tidy
??1?$vector@UGroupDummyInfo@@V?$allocator@UGroupDummyInfo@@@std@@@std@@QAE@XZ ENDP ; std::vector<GroupDummyInfo,std::allocator<GroupDummyInfo> >::~vector<GroupDummyInfo,std::allocator<GroupDummyInfo> >
_TEXT	ENDS
PUBLIC	?_Reserve@?$vector@VioHashString@@V?$allocator@VioHashString@@@std@@@std@@IAEXI@Z ; std::vector<ioHashString,std::allocator<ioHashString> >::_Reserve
; Function compile flags: /Ogsp
;	COMDAT ?_Reserve@?$vector@VioHashString@@V?$allocator@VioHashString@@@std@@@std@@IAEXI@Z
_TEXT	SEGMENT
__Count$ = 8						; size = 4
?_Reserve@?$vector@VioHashString@@V?$allocator@VioHashString@@@std@@@std@@IAEXI@Z PROC ; std::vector<ioHashString,std::allocator<ioHashString> >::_Reserve, COMDAT
; _this$ = ecx

; 1290 : 		{	// ensure room for _Count new elements, grow exponentially

  00000	55		 push	 ebp
  00001	8b ec		 mov	 ebp, esp
  00003	56		 push	 esi
  00004	8b f1		 mov	 esi, ecx

; 1291 : 		size_type _Size = size();

  00006	8b 0e		 mov	 ecx, DWORD PTR [esi]
  00008	8b 46 04	 mov	 eax, DWORD PTR [esi+4]
  0000b	2b c1		 sub	 eax, ecx

; 1292 : 		if (max_size() - _Count < _Size)

  0000d	ba ff ff ff 0f	 mov	 edx, 268435455		; 0fffffffH
  00012	2b 55 08	 sub	 edx, DWORD PTR __Count$[ebp]
  00015	c1 f8 04	 sar	 eax, 4
  00018	3b d0		 cmp	 edx, eax
  0001a	73 0b		 jae	 SHORT $LN4@Reserve

; 1293 : 			_Xlen();

  0001c	68 00 00 00 00	 push	 OFFSET ??_C@_0BD@OLBABOEK@vector?$DMT?$DO?5too?5long?$AA@
  00021	ff 15 00 00 00
	00		 call	 DWORD PTR __imp_?_Xlength_error@std@@YAXPBD@Z
$LN21@Reserve:
$LN4@Reserve:

; 1294 : 		else if ((_Size += _Count) <= capacity())

  00027	8b 56 08	 mov	 edx, DWORD PTR [esi+8]
  0002a	03 45 08	 add	 eax, DWORD PTR __Count$[ebp]
  0002d	2b d1		 sub	 edx, ecx
  0002f	c1 fa 04	 sar	 edx, 4
  00032	3b c2		 cmp	 eax, edx
  00034	76 10		 jbe	 SHORT $LN1@Reserve

; 1295 : 			;
; 1296 : 		else
; 1297 : 			reserve(_Grow_to(_Size));

  00036	50		 push	 eax
  00037	8b ce		 mov	 ecx, esi
  00039	e8 00 00 00 00	 call	 ?_Grow_to@?$vector@VioHashString@@V?$allocator@VioHashString@@@std@@@std@@IBEII@Z ; std::vector<ioHashString,std::allocator<ioHashString> >::_Grow_to
  0003e	50		 push	 eax
  0003f	8b ce		 mov	 ecx, esi
  00041	e8 00 00 00 00	 call	 ?reserve@?$vector@VioHashString@@V?$allocator@VioHashString@@@std@@@std@@QAEXI@Z ; std::vector<ioHashString,std::allocator<ioHashString> >::reserve
$LN1@Reserve:
  00046	5e		 pop	 esi

; 1298 : 		}

  00047	5d		 pop	 ebp
  00048	c2 04 00	 ret	 4
$LN20@Reserve:
?_Reserve@?$vector@VioHashString@@V?$allocator@VioHashString@@@std@@@std@@IAEXI@Z ENDP ; std::vector<ioHashString,std::allocator<ioHashString> >::_Reserve
_TEXT	ENDS
PUBLIC	?_Reserve@?$vector@UGroupDummyInfo@@V?$allocator@UGroupDummyInfo@@@std@@@std@@IAEXI@Z ; std::vector<GroupDummyInfo,std::allocator<GroupDummyInfo> >::_Reserve
; Function compile flags: /Ogsp
;	COMDAT ?_Reserve@?$vector@UGroupDummyInfo@@V?$allocator@UGroupDummyInfo@@@std@@@std@@IAEXI@Z
_TEXT	SEGMENT
__Count$ = 8						; size = 4
?_Reserve@?$vector@UGroupDummyInfo@@V?$allocator@UGroupDummyInfo@@@std@@@std@@IAEXI@Z PROC ; std::vector<GroupDummyInfo,std::allocator<GroupDummyInfo> >::_Reserve, COMDAT
; _this$ = ecx

; 1290 : 		{	// ensure room for _Count new elements, grow exponentially

  00000	55		 push	 ebp
  00001	8b ec		 mov	 ebp, esp
  00003	56		 push	 esi
  00004	8b f1		 mov	 esi, ecx

; 1291 : 		size_type _Size = size();

  00006	8b 0e		 mov	 ecx, DWORD PTR [esi]
  00008	8b 46 04	 mov	 eax, DWORD PTR [esi+4]
  0000b	2b c1		 sub	 eax, ecx
  0000d	57		 push	 edi
  0000e	99		 cdq
  0000f	6a 14		 push	 20			; 00000014H
  00011	5f		 pop	 edi
  00012	f7 ff		 idiv	 edi
  00014	8b f8		 mov	 edi, eax

; 1292 : 		if (max_size() - _Count < _Size)

  00016	b8 cc cc cc 0c	 mov	 eax, 214748364		; 0cccccccH
  0001b	2b 45 08	 sub	 eax, DWORD PTR __Count$[ebp]
  0001e	3b c7		 cmp	 eax, edi
  00020	73 0b		 jae	 SHORT $LN4@Reserve@2

; 1293 : 			_Xlen();

  00022	68 00 00 00 00	 push	 OFFSET ??_C@_0BD@OLBABOEK@vector?$DMT?$DO?5too?5long?$AA@
  00027	ff 15 00 00 00
	00		 call	 DWORD PTR __imp_?_Xlength_error@std@@YAXPBD@Z
$LN21@Reserve@2:
$LN4@Reserve@2:

; 1294 : 		else if ((_Size += _Count) <= capacity())

  0002d	8b 46 08	 mov	 eax, DWORD PTR [esi+8]
  00030	2b c1		 sub	 eax, ecx
  00032	6a 14		 push	 20			; 00000014H
  00034	99		 cdq
  00035	59		 pop	 ecx
  00036	f7 f9		 idiv	 ecx
  00038	03 7d 08	 add	 edi, DWORD PTR __Count$[ebp]
  0003b	3b f8		 cmp	 edi, eax
  0003d	76 10		 jbe	 SHORT $LN1@Reserve@2

; 1295 : 			;
; 1296 : 		else
; 1297 : 			reserve(_Grow_to(_Size));

  0003f	57		 push	 edi
  00040	8b ce		 mov	 ecx, esi
  00042	e8 00 00 00 00	 call	 ?_Grow_to@?$vector@UGroupDummyInfo@@V?$allocator@UGroupDummyInfo@@@std@@@std@@IBEII@Z ; std::vector<GroupDummyInfo,std::allocator<GroupDummyInfo> >::_Grow_to
  00047	50		 push	 eax
  00048	8b ce		 mov	 ecx, esi
  0004a	e8 00 00 00 00	 call	 ?reserve@?$vector@UGroupDummyInfo@@V?$allocator@UGroupDummyInfo@@@std@@@std@@QAEXI@Z ; std::vector<GroupDummyInfo,std::allocator<GroupDummyInfo> >::reserve
$LN1@Reserve@2:
  0004f	5f		 pop	 edi
  00050	5e		 pop	 esi

; 1298 : 		}

  00051	5d		 pop	 ebp
  00052	c2 04 00	 ret	 4
$LN20@Reserve@2:
?_Reserve@?$vector@UGroupDummyInfo@@V?$allocator@UGroupDummyInfo@@@std@@@std@@IAEXI@Z ENDP ; std::vector<GroupDummyInfo,std::allocator<GroupDummyInfo> >::_Reserve
_TEXT	ENDS
PUBLIC	??0?$vector@VioHashString@@V?$allocator@VioHashString@@@std@@@std@@QAE@ABV01@@Z ; std::vector<ioHashString,std::allocator<ioHashString> >::vector<ioHashString,std::allocator<ioHashString> >
;	COMDAT xdata$x
; File c:\program files (x86)\microsoft visual studio 10.0\vc\include\xutility
xdata$x	SEGMENT
__catchsym$??0?$vector@VioHashString@@V?$allocator@VioHashString@@@std@@@std@@QAE@ABV01@@Z$2 DD 040H
	DD	00H
	DD	00H
	DD	FLAT:__catch$??0?$vector@VioHashString@@V?$allocator@VioHashString@@@std@@@std@@QAE@ABV01@@Z$0
__unwindtable$??0?$vector@VioHashString@@V?$allocator@VioHashString@@@std@@@std@@QAE@ABV01@@Z DD 0ffffffffH
	DD	00H
	DD	0ffffffffH
	DD	00H
__tryblocktable$??0?$vector@VioHashString@@V?$allocator@VioHashString@@@std@@@std@@QAE@ABV01@@Z DD 00H
	DD	00H
	DD	01H
	DD	01H
	DD	FLAT:__catchsym$??0?$vector@VioHashString@@V?$allocator@VioHashString@@@std@@@std@@QAE@ABV01@@Z$2
__ehfuncinfo$??0?$vector@VioHashString@@V?$allocator@VioHashString@@@std@@@std@@QAE@ABV01@@Z DD 019930522H
	DD	02H
	DD	FLAT:__unwindtable$??0?$vector@VioHashString@@V?$allocator@VioHashString@@@std@@@std@@QAE@ABV01@@Z
	DD	01H
	DD	FLAT:__tryblocktable$??0?$vector@VioHashString@@V?$allocator@VioHashString@@@std@@@std@@QAE@ABV01@@Z
	DD	2 DUP(00H)
	DD	00H
	DD	01H
; Function compile flags: /Ogsp
; File c:\program files (x86)\microsoft visual studio 10.0\vc\include\vector
xdata$x	ENDS
;	COMDAT ??0?$vector@VioHashString@@V?$allocator@VioHashString@@@std@@@std@@QAE@ABV01@@Z
_TEXT	SEGMENT
_this$ = -20						; size = 4
__$EHRec$ = -16						; size = 16
__Cat$557762 = 8					; size = 1
__Right$ = 8						; size = 4
??0?$vector@VioHashString@@V?$allocator@VioHashString@@@std@@@std@@QAE@ABV01@@Z PROC ; std::vector<ioHashString,std::allocator<ioHashString> >::vector<ioHashString,std::allocator<ioHashString> >, COMDAT
; _this$ = ecx

; 535  : 		{	// construct by copying _Right

  00000	6a 08		 push	 8
  00002	b8 00 00 00 00	 mov	 eax, __ehhandler$??0?$vector@VioHashString@@V?$allocator@VioHashString@@@std@@@std@@QAE@ABV01@@Z
  00007	e8 00 00 00 00	 call	 __EH_prolog3_catch
  0000c	8b f1		 mov	 esi, ecx
  0000e	89 75 ec	 mov	 DWORD PTR _this$[ebp], esi

; 536  : 		if (_Buy(_Right.size()))

  00011	8b 7d 08	 mov	 edi, DWORD PTR __Right$[ebp]
  00014	33 db		 xor	 ebx, ebx
  00016	89 1e		 mov	 DWORD PTR [esi], ebx
  00018	89 5e 04	 mov	 DWORD PTR [esi+4], ebx
  0001b	89 5e 08	 mov	 DWORD PTR [esi+8], ebx
  0001e	8b 47 04	 mov	 eax, DWORD PTR [edi+4]
  00021	2b 07		 sub	 eax, DWORD PTR [edi]
  00023	c1 f8 04	 sar	 eax, 4
  00026	50		 push	 eax
  00027	e8 00 00 00 00	 call	 ?_Buy@?$vector@VioHashString@@V?$allocator@VioHashString@@@std@@@std@@IAE_NI@Z ; std::vector<ioHashString,std::allocator<ioHashString> >::_Buy
  0002c	84 c0		 test	 al, al
  0002e	74 1f		 je	 SHORT $LN7@vector@2

; 537  : 			_TRY_BEGIN
; 538  : 			this->_Mylast = _Ucopy(_Right.begin(), _Right.end(),
; 539  : 				this->_Myfirst);

  00030	ff 75 08	 push	 DWORD PTR __Cat$557762[ebp]
  00033	8b 0e		 mov	 ecx, DWORD PTR [esi]
  00035	8b 47 04	 mov	 eax, DWORD PTR [edi+4]
  00038	8b 3f		 mov	 edi, DWORD PTR [edi]
  0003a	8d 56 0c	 lea	 edx, DWORD PTR [esi+12]
  0003d	52		 push	 edx
  0003e	51		 push	 ecx
  0003f	50		 push	 eax
  00040	57		 push	 edi
  00041	89 5d fc	 mov	 DWORD PTR __$EHRec$[ebp+12], ebx
  00044	e8 00 00 00 00	 call	 ??$_Uninit_copy@V?$_Vector_const_iterator@V?$_Vector_val@VioHashString@@V?$allocator@VioHashString@@@std@@@std@@@std@@PAVioHashString@@V?$allocator@VioHashString@@@2@@std@@YAPAVioHashString@@V?$_Vector_const_iterator@V?$_Vector_val@VioHashString@@V?$allocator@VioHashString@@@std@@@std@@@0@0PAV1@AAV?$allocator@VioHashString@@@0@U_Nonscalar_ptr_iterator_tag@0@@Z ; std::_Uninit_copy<std::_Vector_const_iterator<std::_Vector_val<ioHashString,std::allocator<ioHashString> > >,ioHashString *,std::allocator<ioHashString> >
  00049	83 c4 14	 add	 esp, 20			; 00000014H
  0004c	89 46 04	 mov	 DWORD PTR [esi+4], eax
$LN7@vector@2:

; 543  : 			_CATCH_END
; 544  : 		}

  0004f	8b c6		 mov	 eax, esi
  00051	e8 00 00 00 00	 call	 __EH_epilog3
  00056	c2 04 00	 ret	 4
__catch$??0?$vector@VioHashString@@V?$allocator@VioHashString@@@std@@@std@@QAE@ABV01@@Z$0:

; 540  : 			_CATCH_ALL
; 541  : 			_Tidy();

  00059	8b 4d ec	 mov	 ecx, DWORD PTR _this$[ebp]
  0005c	e8 00 00 00 00	 call	 ?_Tidy@?$vector@VioHashString@@V?$allocator@VioHashString@@@std@@@std@@IAEXXZ ; std::vector<ioHashString,std::allocator<ioHashString> >::_Tidy

; 542  : 			_RERAISE;

  00061	33 db		 xor	 ebx, ebx
  00063	53		 push	 ebx
  00064	53		 push	 ebx
  00065	e8 00 00 00 00	 call	 __CxxThrowException@8
$LN38@vector@2:
$LN37@vector@2:
  0006a	cc		 int	 3
_TEXT	ENDS
;	COMDAT text$x
text$x	SEGMENT
__ehhandler$??0?$vector@VioHashString@@V?$allocator@VioHashString@@@std@@@std@@QAE@ABV01@@Z:
  00000	8b 54 24 08	 mov	 edx, DWORD PTR [esp+8]
  00004	8d 42 0c	 lea	 eax, DWORD PTR [edx+12]
  00007	8b 4a e8	 mov	 ecx, DWORD PTR [edx-24]
  0000a	33 c8		 xor	 ecx, eax
  0000c	e8 00 00 00 00	 call	 @__security_check_cookie@4
  00011	b8 00 00 00 00	 mov	 eax, OFFSET __ehfuncinfo$??0?$vector@VioHashString@@V?$allocator@VioHashString@@@std@@@std@@QAE@ABV01@@Z
  00016	e9 00 00 00 00	 jmp	 ___CxxFrameHandler3
text$x	ENDS
??0?$vector@VioHashString@@V?$allocator@VioHashString@@@std@@@std@@QAE@ABV01@@Z ENDP ; std::vector<ioHashString,std::allocator<ioHashString> >::vector<ioHashString,std::allocator<ioHashString> >
PUBLIC	??1?$vector@VioHashString@@V?$allocator@VioHashString@@@std@@@std@@QAE@XZ ; std::vector<ioHashString,std::allocator<ioHashString> >::~vector<ioHashString,std::allocator<ioHashString> >
; Function compile flags: /Ogsp
;	COMDAT ??1?$vector@VioHashString@@V?$allocator@VioHashString@@@std@@@std@@QAE@XZ
_TEXT	SEGMENT
??1?$vector@VioHashString@@V?$allocator@VioHashString@@@std@@@std@@QAE@XZ PROC ; std::vector<ioHashString,std::allocator<ioHashString> >::~vector<ioHashString,std::allocator<ioHashString> >, COMDAT
; _this$ = ecx

; 705  : 		_Tidy();

  00000	e9 00 00 00 00	 jmp	 ?_Tidy@?$vector@VioHashString@@V?$allocator@VioHashString@@@std@@@std@@IAEXXZ ; std::vector<ioHashString,std::allocator<ioHashString> >::_Tidy
??1?$vector@VioHashString@@V?$allocator@VioHashString@@@std@@@std@@QAE@XZ ENDP ; std::vector<ioHashString,std::allocator<ioHashString> >::~vector<ioHashString,std::allocator<ioHashString> >
_TEXT	ENDS
PUBLIC	??_7ioEngineerItem@@6B@				; ioEngineerItem::`vftable'
PUBLIC	??0ioEngineerItem@@QAE@XZ			; ioEngineerItem::ioEngineerItem
PUBLIC	??_R4ioEngineerItem@@6B@			; ioEngineerItem::`RTTI Complete Object Locator'
PUBLIC	??_R0?AVioEngineerItem@@@8			; ioEngineerItem `RTTI Type Descriptor'
PUBLIC	??_R3ioEngineerItem@@8				; ioEngineerItem::`RTTI Class Hierarchy Descriptor'
PUBLIC	??_R2ioEngineerItem@@8				; ioEngineerItem::`RTTI Base Class Array'
PUBLIC	??_R1A@?0A@EA@ioEngineerItem@@8			; ioEngineerItem::`RTTI Base Class Descriptor at (0,-1,0,64)'
PUBLIC	??_R1A@?0A@EA@ioWeaponItem@@8			; ioWeaponItem::`RTTI Base Class Descriptor at (0,-1,0,64)'
PUBLIC	??_R0?AVioWeaponItem@@@8			; ioWeaponItem `RTTI Type Descriptor'
PUBLIC	??_R3ioWeaponItem@@8				; ioWeaponItem::`RTTI Class Hierarchy Descriptor'
PUBLIC	??_R2ioWeaponItem@@8				; ioWeaponItem::`RTTI Base Class Array'
PUBLIC	??_R1A@?0A@EA@ioAttackableItem@@8		; ioAttackableItem::`RTTI Base Class Descriptor at (0,-1,0,64)'
PUBLIC	??_R0?AVioAttackableItem@@@8			; ioAttackableItem `RTTI Type Descriptor'
PUBLIC	??_R3ioAttackableItem@@8			; ioAttackableItem::`RTTI Class Hierarchy Descriptor'
PUBLIC	??_R2ioAttackableItem@@8			; ioAttackableItem::`RTTI Base Class Array'
PUBLIC	??_R1A@?0A@EA@ioItem@@8				; ioItem::`RTTI Base Class Descriptor at (0,-1,0,64)'
PUBLIC	??_R0?AVioItem@@@8				; ioItem `RTTI Type Descriptor'
PUBLIC	??_R3ioItem@@8					; ioItem::`RTTI Class Hierarchy Descriptor'
PUBLIC	??_R2ioItem@@8					; ioItem::`RTTI Base Class Array'
PUBLIC	?LoadProperty@ioEngineerItem@@UAEXAAVioINILoader@@@Z ; ioEngineerItem::LoadProperty
PUBLIC	?Clone@ioEngineerItem@@UAEPAVioItem@@XZ		; ioEngineerItem::Clone
PUBLIC	?IsEnableExtraGauge@ioItem@@UAE_NPAVioBaseChar@@@Z ; ioItem::IsEnableExtraGauge
PUBLIC	?GetExtraGauge@ioItem@@UAEMXZ			; ioItem::GetExtraGauge
PUBLIC	?CheckOnHand@ioAttackableItem@@UAE_NXZ		; ioAttackableItem::CheckOnHand
PUBLIC	?CheckAimState@ioAttackableItem@@UAE_N_N@Z	; ioAttackableItem::CheckAimState
PUBLIC	?SetAimState@ioAttackableItem@@UAE_NPAVioBaseChar@@@Z ; ioAttackableItem::SetAimState
PUBLIC	?CheckExtendDefenseEnable@ioAttackableItem@@UAE_NPAVioBaseChar@@@Z ; ioAttackableItem::CheckExtendDefenseEnable
PUBLIC	?IsMoveAttackState@ioAttackableItem@@UAE_NPAVioBaseChar@@@Z ; ioAttackableItem::IsMoveAttackState
PUBLIC	?IsNoGhostWalk@ioAttackableItem@@UAE_NPAVioBaseChar@@@Z ; ioAttackableItem::IsNoGhostWalk
PUBLIC	?IsEnableItemDashCheck@ioAttackableItem@@UAE_NPAVioBaseChar@@_N@Z ; ioAttackableItem::IsEnableItemDashCheck
PUBLIC	?IsEnableAttackRotateCheck@ioAttackableItem@@UAE_NPAVioBaseChar@@@Z ; ioAttackableItem::IsEnableAttackRotateCheck
PUBLIC	?IsEnableChargeDefenseCheck@ioAttackableItem@@UAE_NXZ ; ioAttackableItem::IsEnableChargeDefenseCheck
PUBLIC	?IsUseDefenceCounterAttackEndDash@ioAttackableItem@@UAE_NXZ ; ioAttackableItem::IsUseDefenceCounterAttackEndDash
PUBLIC	?IsAutoTarget@ioAttackableItem@@UBE_NXZ		; ioAttackableItem::IsAutoTarget
PUBLIC	?IsWoundAfterUseExtendState@ioAttackableItem@@UAE_NXZ ; ioAttackableItem::IsWoundAfterUseExtendState
PUBLIC	?CheckWoundAfterUseExtendState@ioAttackableItem@@UAE_NPAVioBaseChar@@W4BlowTargetType@@@Z ; ioAttackableItem::CheckWoundAfterUseExtendState
PUBLIC	?IsCharSkipState@ioAttackableItem@@UAE_NPBVioBaseChar@@@Z ; ioAttackableItem::IsCharSkipState
EXTRN	??1ioWeaponItem@@UAE@XZ:PROC			; ioWeaponItem::~ioWeaponItem
EXTRN	??0ioWeaponItem@@QAE@XZ:PROC			; ioWeaponItem::ioWeaponItem
EXTRN	?FindFieldEntityGrp@ioItem@@MBEABVioHashString@@XZ:PROC ; ioItem::FindFieldEntityGrp
EXTRN	?GetType@ioWeaponItem@@UBE?AW4ItemType@ioItem@@XZ:PROC ; ioWeaponItem::GetType
EXTRN	?UseCreateIndexItem@ioItem@@UBE_NXZ:PROC	; ioItem::UseCreateIndexItem
EXTRN	?GetSetFocusColor@ioItem@@UBEKXZ:PROC		; ioItem::GetSetFocusColor
EXTRN	?Initialize@ioItem@@UAEXABVioHashString@@PAVioPlayStage@@@Z:PROC ; ioItem::Initialize
EXTRN	?InitializeBeforeEquip@ioItem@@UAEXABVioHashString@@PAVioPlayStage@@@Z:PROC ; ioItem::InitializeBeforeEquip
EXTRN	?SetExtendEquipEffect@ioItem@@UAEXPAVioBaseChar@@@Z:PROC ; ioItem::SetExtendEquipEffect
EXTRN	?ReleaseExtendEquipEffect@ioItem@@UAEXPAVioBaseChar@@@Z:PROC ; ioItem::ReleaseExtendEquipEffect
EXTRN	?AddGlowLine@ioWeaponItem@@UAEXPAVioBaseChar@@@Z:PROC ; ioWeaponItem::AddGlowLine
EXTRN	?RemoveGlowLine@ioWeaponItem@@UAEXPAVioBaseChar@@@Z:PROC ; ioWeaponItem::RemoveGlowLine
EXTRN	?GetTargetName@ioItem@@UAE?AVioHashString@@XZ:PROC ; ioItem::GetTargetName
EXTRN	?ClearTarget@ioItem@@UAEXXZ:PROC		; ioItem::ClearTarget
EXTRN	?SetItemType@ioWeaponItem@@UAEXXZ:PROC		; ioWeaponItem::SetItemType
EXTRN	?CheckWeaponDefenseState@ioItem@@UAEXPAVioBaseChar@@@Z:PROC ; ioItem::CheckWeaponDefenseState
EXTRN	?CheckWoundedState@ioItem@@UAEXPAVioBaseChar@@@Z:PROC ; ioItem::CheckWoundedState
EXTRN	?SetVisible@ioItem@@UAEXPAVioBaseChar@@_N@Z:PROC ; ioItem::SetVisible
EXTRN	?UpdateSkillGauge@ioItem@@UAEXPAVioBaseChar@@M_N@Z:PROC ; ioItem::UpdateSkillGauge
EXTRN	?ReduceNeedGauge@ioItem@@UAEXMPAVioBaseChar@@@Z:PROC ; ioItem::ReduceNeedGauge
EXTRN	?GetCurSecoundBullet@ioItem@@UAEHXZ:PROC	; ioItem::GetCurSecoundBullet
EXTRN	?GetMaxSecoundBullet@ioItem@@UAEHXZ:PROC	; ioItem::GetMaxSecoundBullet
EXTRN	?SetCurSecoundBullet@ioItem@@UAEXH@Z:PROC	; ioItem::SetCurSecoundBullet
EXTRN	?GetGrowthInfoNum@ioItem@@UBEHH@Z:PROC		; ioItem::GetGrowthInfoNum
EXTRN	?GetGrowthInfoNumByType@ioItem@@UBEHHAAH@Z:PROC	; ioItem::GetGrowthInfoNumByType
EXTRN	?ClearCurChargeRateForSkill@ioItem@@UAEXXZ:PROC	; ioItem::ClearCurChargeRateForSkill
EXTRN	?GetChargeDamageRateForSkill@ioItem@@UAEMXZ:PROC ; ioItem::GetChargeDamageRateForSkill
EXTRN	?GetChargeForceRateForSkill@ioItem@@UAEMXZ:PROC	; ioItem::GetChargeForceRateForSkill
EXTRN	?GetChargeBlowRateForSkill@ioItem@@UAEMXZ:PROC	; ioItem::GetChargeBlowRateForSkill
EXTRN	?GetChargeRangeRateForSkill@ioItem@@UAEMXZ:PROC	; ioItem::GetChargeRangeRateForSkill
EXTRN	?GetChargeSpeedRateForSkill@ioItem@@UAEMXZ:PROC	; ioItem::GetChargeSpeedRateForSkill
EXTRN	?GetChargeFloatRateForSkill@ioItem@@UAEMXZ:PROC	; ioItem::GetChargeFloatRateForSkill
EXTRN	?GetChargeScaleRateForSkill@ioItem@@UAEMXZ:PROC	; ioItem::GetChargeScaleRateForSkill
EXTRN	?GetChargeExplosionRateForSkill@ioItem@@UAEMXZ:PROC ; ioItem::GetChargeExplosionRateForSkill
EXTRN	?GetChargeWoundedTimeRateForSkill@ioItem@@UAEMXZ:PROC ; ioItem::GetChargeWoundedTimeRateForSkill
EXTRN	?SetCurEquipEffect@ioItem@@UAEX_N@Z:PROC	; ioItem::SetCurEquipEffect
EXTRN	?SetCostume@ioItem@@UAEXH_N@Z:PROC		; ioItem::SetCostume
EXTRN	??_EioEngineerItem@@UAEPAXI@Z:PROC		; ioEngineerItem::`vector deleting destructor'
EXTRN	?IsCanFire@ioAttackableItem@@UBE_NPBVioBaseChar@@H_N@Z:PROC ; ioAttackableItem::IsCanFire
EXTRN	?CallItemProcess@ioAttackableItem@@UAEXPAVioBaseChar@@@Z:PROC ; ioAttackableItem::CallItemProcess
EXTRN	?CheckChargeInfo@ioAttackableItem@@UAEXPAVioWeapon@@_N@Z:PROC ; ioAttackableItem::CheckChargeInfo
EXTRN	?SetExtendDefenseState@ioAttackableItem@@UAE_NPAVioBaseChar@@@Z:PROC ; ioAttackableItem::SetExtendDefenseState
EXTRN	?CheckExtendDefenseState@ioAttackableItem@@UAEXPAVioBaseChar@@@Z:PROC ; ioAttackableItem::CheckExtendDefenseState
EXTRN	?CheckDefenseMoveAniState@ioAttackableItem@@UAEXPAVioBaseChar@@@Z:PROC ; ioAttackableItem::CheckDefenseMoveAniState
EXTRN	?SetDodgeDefenseState@ioAttackableItem@@UAE_NPAVioBaseChar@@@Z:PROC ; ioAttackableItem::SetDodgeDefenseState
EXTRN	?CheckDodgeDefenseState@ioAttackableItem@@UAEXPAVioBaseChar@@@Z:PROC ; ioAttackableItem::CheckDodgeDefenseState
EXTRN	?ApplyDodgeDefenseState@ioAttackableItem@@UAEXPAVioBaseChar@@AAVSP2Packet@@@Z:PROC ; ioAttackableItem::ApplyDodgeDefenseState
EXTRN	?SetDefenseAttackState@ioAttackableItem@@UAE_NPAVioBaseChar@@@Z:PROC ; ioAttackableItem::SetDefenseAttackState
EXTRN	?CheckDefenseAttackState@ioAttackableItem@@UAEXPAVioBaseChar@@@Z:PROC ; ioAttackableItem::CheckDefenseAttackState
EXTRN	?ApplyDefenseAttackState@ioAttackableItem@@UAEXPAVioBaseChar@@AAVSP2Packet@@@Z:PROC ; ioAttackableItem::ApplyDefenseAttackState
EXTRN	?SetExtendDashState@ioAttackableItem@@UAE_NPAVioBaseChar@@@Z:PROC ; ioAttackableItem::SetExtendDashState
EXTRN	?CheckExtendDashState@ioAttackableItem@@UAEXPAVioBaseChar@@@Z:PROC ; ioAttackableItem::CheckExtendDashState
EXTRN	?SetJumpAttack@ioAttackableItem@@UAE_NPAVioBaseChar@@HMW4AttackType@@@Z:PROC ; ioAttackableItem::SetJumpAttack
EXTRN	?CheckJumpAttack@ioAttackableItem@@UAEXPAVioBaseChar@@@Z:PROC ; ioAttackableItem::CheckJumpAttack
EXTRN	?SetJumpReloadState@ioAttackableItem@@UAE_NPAVioBaseChar@@@Z:PROC ; ioAttackableItem::SetJumpReloadState
EXTRN	?SetJumpReload@ioAttackableItem@@UAE_NPAVioBaseChar@@@Z:PROC ; ioAttackableItem::SetJumpReload
EXTRN	?CheckJumpReloadState@ioAttackableItem@@UAEXPAVioBaseChar@@@Z:PROC ; ioAttackableItem::CheckJumpReloadState
EXTRN	?CheckJumpReloadReserve@ioAttackableItem@@UAEXPAVioBaseChar@@@Z:PROC ; ioAttackableItem::CheckJumpReloadReserve
EXTRN	?ProcessJumpReloadState@ioAttackableItem@@UAEXPAVioBaseChar@@@Z:PROC ; ioAttackableItem::ProcessJumpReloadState
EXTRN	?ApplyJumpReload@ioAttackableItem@@UAEXPAVioBaseChar@@AAVSP2Packet@@@Z:PROC ; ioAttackableItem::ApplyJumpReload
EXTRN	?OnItemGaugeCancel@ioAttackableItem@@UAEXPAVioBaseChar@@AAVSP2Packet@@@Z:PROC ; ioAttackableItem::OnItemGaugeCancel
EXTRN	?OnEndExtendDefense@ioAttackableItem@@UAEXPAVioBaseChar@@@Z:PROC ; ioAttackableItem::OnEndExtendDefense
EXTRN	?OnEndNormalAttack@ioAttackableItem@@UAEXPAVioBaseChar@@@Z:PROC ; ioAttackableItem::OnEndNormalAttack
EXTRN	?OnEndExtendAttack@ioAttackableItem@@UAEXPAVioBaseChar@@_N@Z:PROC ; ioAttackableItem::OnEndExtendAttack
EXTRN	?OnEndExtendJump@ioAttackableItem@@UAEXPAVioBaseChar@@@Z:PROC ; ioAttackableItem::OnEndExtendJump
EXTRN	?FillNormalAttackExtraInfo@ioAttackableItem@@UAEXAAVSP2Packet@@@Z:PROC ; ioAttackableItem::FillNormalAttackExtraInfo
EXTRN	?ApplyNormalAttackExtraInfo@ioAttackableItem@@UAEXAAVSP2Packet@@@Z:PROC ; ioAttackableItem::ApplyNormalAttackExtraInfo
EXTRN	?CheckLanding@ioAttackableItem@@UAE_NPAVioBaseChar@@@Z:PROC ; ioAttackableItem::CheckLanding
EXTRN	?SetNoneState@ioAttackableItem@@UAEXPAVioBaseChar@@H@Z:PROC ; ioAttackableItem::SetNoneState
EXTRN	?IsCanUpdateGauge@ioAttackableItem@@UAE_NPAVioBaseChar@@@Z:PROC ; ioAttackableItem::IsCanUpdateGauge
EXTRN	?CheckAimJumpState@ioAttackableItem@@UAEXPAVioBaseChar@@@Z:PROC ; ioAttackableItem::CheckAimJumpState
EXTRN	?GetJumppingAnimation@ioAttackableItem@@UBEABVioHashString@@XZ:PROC ; ioAttackableItem::GetJumppingAnimation
EXTRN	?GetExtendJumppingAnimation@ioAttackableItem@@UBEABVioHashString@@XZ:PROC ; ioAttackableItem::GetExtendJumppingAnimation
EXTRN	?CheckRetreatState@ioAttackableItem@@UAEXPAVioBaseChar@@@Z:PROC ; ioAttackableItem::CheckRetreatState
EXTRN	?SetNextItemState@ioAttackableItem@@UAEXPAVioBaseChar@@0PAVioWeapon@@_NM@Z:PROC ; ioAttackableItem::SetNextItemState
EXTRN	?WeaponWounded@ioWeaponItem@@UAEXPAVioWeapon@@PAVioBaseChar@@@Z:PROC ; ioWeaponItem::WeaponWounded
EXTRN	?WeaponMapColDead@ioAttackableItem@@UAEXPAVioWeapon@@@Z:PROC ; ioAttackableItem::WeaponMapColDead
EXTRN	?SetDefenceCounterState@ioAttackableItem@@UAEXPAVioBaseChar@@@Z:PROC ; ioAttackableItem::SetDefenceCounterState
EXTRN	?IsUseDefenceCounterAttack@ioAttackableItem@@UAE_NXZ:PROC ; ioAttackableItem::IsUseDefenceCounterAttack
EXTRN	?ProcessDefenceCounterAttack@ioAttackableItem@@UAEXPAVioBaseChar@@@Z:PROC ; ioAttackableItem::ProcessDefenceCounterAttack
EXTRN	?ProcessExtraJump@ioAttackableItem@@UAEXPAVioBaseChar@@@Z:PROC ; ioAttackableItem::ProcessExtraJump
EXTRN	?SetEndGrappling@ioAttackableItem@@UAEXPAVioBaseChar@@@Z:PROC ; ioAttackableItem::SetEndGrappling
EXTRN	?ClearKeyReserve@ioAttackableItem@@MAEXXZ:PROC	; ioAttackableItem::ClearKeyReserve
EXTRN	?CheckReserve@ioAttackableItem@@MAEXPAVioBaseChar@@@Z:PROC ; ioAttackableItem::CheckReserve
EXTRN	?ProcessReserveKeyInput@ioAttackableItem@@MAEXPAVioBaseChar@@@Z:PROC ; ioAttackableItem::ProcessReserveKeyInput
EXTRN	?SetJumpState@ioAttackableItem@@UAEXXZ:PROC	; ioAttackableItem::SetJumpState
EXTRN	?SetJumpping@ioAttackableItem@@UAEXPAVioBaseChar@@_N@Z:PROC ; ioAttackableItem::SetJumpping
EXTRN	?ProcessJumpping@ioAttackableItem@@UAEXPAVioBaseChar@@M@Z:PROC ; ioAttackableItem::ProcessJumpping
EXTRN	?ProcessJumppingByNoNeedProcess@ioAttackableItem@@UAEXPAVioBaseChar@@M@Z:PROC ; ioAttackableItem::ProcessJumppingByNoNeedProcess
EXTRN	?ProcessLanding@ioAttackableItem@@UAEXPAVioBaseChar@@@Z:PROC ; ioAttackableItem::ProcessLanding
EXTRN	?ProcessJumpAttack@ioAttackableItem@@UAEXPAVioBaseChar@@M@Z:PROC ; ioAttackableItem::ProcessJumpAttack
EXTRN	?ProcessAimJump@ioAttackableItem@@UAE_NPAVioBaseChar@@M@Z:PROC ; ioAttackableItem::ProcessAimJump
EXTRN	?ApplyJump@ioAttackableItem@@UAEXPAVioBaseChar@@AAVSP2Packet@@@Z:PROC ; ioAttackableItem::ApplyJump
EXTRN	?ApplyDash@ioAttackableItem@@UAEXPAVioBaseChar@@AAVSP2Packet@@@Z:PROC ; ioAttackableItem::ApplyDash
EXTRN	?ApplyCounterAttack@ioAttackableItem@@UAEXPAVioBaseChar@@AAVSP2Packet@@@Z:PROC ; ioAttackableItem::ApplyCounterAttack
EXTRN	?CheckComboJumpAttack@ioAttackableItem@@UAEXPAVioBaseChar@@@Z:PROC ; ioAttackableItem::CheckComboJumpAttack
EXTRN	?SetFlashJumpAttack@ioAttackableItem@@UAE_NPAVioBaseChar@@@Z:PROC ; ioAttackableItem::SetFlashJumpAttack
EXTRN	?SetComboFlashAttack@ioAttackableItem@@UAE_NPAVioBaseChar@@@Z:PROC ; ioAttackableItem::SetComboFlashAttack
EXTRN	?SetCollectJumpAttack@ioAttackableItem@@UAE_NPAVioBaseChar@@@Z:PROC ; ioAttackableItem::SetCollectJumpAttack
EXTRN	?SetPowerChargeJumpAttack@ioAttackableItem@@UAE_NPAVioBaseChar@@@Z:PROC ; ioAttackableItem::SetPowerChargeJumpAttack
EXTRN	?GetAttackSpeedRate@ioAttackableItem@@UBEMXZ:PROC ; ioAttackableItem::GetAttackSpeedRate
EXTRN	?GetExtraJumpSpeedRate@ioAttackableItem@@UBEMABUD3DXVECTOR3@@ABUD3DXQUATERNION@@@Z:PROC ; ioAttackableItem::GetExtraJumpSpeedRate
EXTRN	?IsEnableExtendJump@ioAttackableItem@@UAE_NXZ:PROC ; ioAttackableItem::IsEnableExtendJump
EXTRN	?RecevieExtendJumpUse@ioAttackableItem@@UAEXPAVioBaseChar@@@Z:PROC ; ioAttackableItem::RecevieExtendJumpUse
EXTRN	?HasAniFile@ioAttackableItem@@UBE_NW4AttackType@@H@Z:PROC ; ioAttackableItem::HasAniFile
EXTRN	?HasEndAniFile@ioAttackableItem@@UBE_NW4AttackType@@H@Z:PROC ; ioAttackableItem::HasEndAniFile
EXTRN	?GetAttackAttribute@ioAttackableItem@@UBEPBUAttackAttribute@@W4AttackType@@H@Z:PROC ; ioAttackableItem::GetAttackAttribute
EXTRN	?GetAniFile@ioAttackableItem@@UBEABVioHashString@@W4AttackType@@H@Z:PROC ; ioAttackableItem::GetAniFile
EXTRN	?GetAttackAniRate@ioAttackableItem@@UBEMW4AttackType@@H@Z:PROC ; ioAttackableItem::GetAttackAniRate
EXTRN	?GetEndAniFile@ioAttackableItem@@UBEABVioHashString@@W4AttackType@@H@Z:PROC ; ioAttackableItem::GetEndAniFile
EXTRN	?GetAttackEndAniRate@ioAttackableItem@@UBEMW4AttackType@@H@Z:PROC ; ioAttackableItem::GetAttackEndAniRate
EXTRN	?GetAttackAttributeIdx@ioAttackableItem@@UBEABV?$vector@UWeaponInfo@@V?$allocator@UWeaponInfo@@@std@@@std@@W4AttackType@@H@Z:PROC ; ioAttackableItem::GetAttackAttributeIdx
EXTRN	?GetForceInfoList@ioAttackableItem@@UBEABV?$vector@UForceInfo@@V?$allocator@UForceInfo@@@std@@@std@@W4AttackType@@H@Z:PROC ; ioAttackableItem::GetForceInfoList
EXTRN	?GetAttackPreDelay@ioAttackableItem@@UBEKW4AttackType@@H@Z:PROC ; ioAttackableItem::GetAttackPreDelay
EXTRN	?GetAttackAnimationDelay@ioAttackableItem@@UBEKW4AttackType@@H@Z:PROC ; ioAttackableItem::GetAttackAnimationDelay
EXTRN	?GetMaxCombo@ioAttackableItem@@UBEHXZ:PROC	; ioAttackableItem::GetMaxCombo
EXTRN	?GetExtraDashAttackMax@ioAttackableItem@@UBEHXZ:PROC ; ioAttackableItem::GetExtraDashAttackMax
EXTRN	?HasJumpEndAnimation@ioAttackableItem@@UBE_N_NPAVioBaseChar@@@Z:PROC ; ioAttackableItem::HasJumpEndAnimation
EXTRN	?GetJumpEndAnimation@ioAttackableItem@@UBEABVioHashString@@_NPAVioBaseChar@@@Z:PROC ; ioAttackableItem::GetJumpEndAnimation
EXTRN	?ClearCancelInfo@ioAttackableItem@@MAEXXZ:PROC	; ioAttackableItem::ClearCancelInfo
EXTRN	?CheckCancelReserve@ioAttackableItem@@MAEXPAVioBaseChar@@@Z:PROC ; ioAttackableItem::CheckCancelReserve
EXTRN	?SetCurAttackAniForInputJump@ioAttackableItem@@MAEXABVioHashString@@M@Z:PROC ; ioAttackableItem::SetCurAttackAniForInputJump
EXTRN	?ProcessCancel@ioAttackableItem@@MAE_NPAVioBaseChar@@@Z:PROC ; ioAttackableItem::ProcessCancel
EXTRN	?ProcessCancelBySpeicalDash@ioAttackableItem@@MAE_NPAVioBaseChar@@@Z:PROC ; ioAttackableItem::ProcessCancelBySpeicalDash
EXTRN	?SetCurAttackAniForInputDashS@ioAttackableItem@@UAEXABVioHashString@@M@Z:PROC ; ioAttackableItem::SetCurAttackAniForInputDashS
EXTRN	?CheckCancelReserveByConditionalSpecialDash@ioAttackableItem@@UAEXPAVioBaseChar@@@Z:PROC ; ioAttackableItem::CheckCancelReserveByConditionalSpecialDash
EXTRN	?IsConditionalSpecialDashReserve@ioAttackableItem@@UAE_NPAVioBaseChar@@@Z:PROC ; ioAttackableItem::IsConditionalSpecialDashReserve
EXTRN	?SetChangeConditionalSpecialDash@ioAttackableItem@@UAEXPAVioBaseChar@@W4DirKeyInput@ioUserKeyInput@@H@Z:PROC ; ioAttackableItem::SetChangeConditionalSpecialDash
EXTRN	?CheckChangeWereWolfState@ioAttackableItem@@UAE_NPAVioBaseChar@@@Z:PROC ; ioAttackableItem::CheckChangeWereWolfState
EXTRN	?SetChangeWereWolfState@ioAttackableItem@@UAEXPAVioBaseChar@@@Z:PROC ; ioAttackableItem::SetChangeWereWolfState
EXTRN	?CheckReleaseWereWolfState@ioAttackableItem@@UAE_NPAVioBaseChar@@@Z:PROC ; ioAttackableItem::CheckReleaseWereWolfState
EXTRN	?ReleseWereWolfState@ioAttackableItem@@UAEXPAVioBaseChar@@@Z:PROC ; ioAttackableItem::ReleseWereWolfState
EXTRN	?ReleseWereWolfStateByOwner@ioAttackableItem@@UAEXPAVioBaseChar@@@Z:PROC ; ioAttackableItem::ReleseWereWolfStateByOwner
EXTRN	?IncreaseChangeDamage@ioAttackableItem@@UAEXMH_N@Z:PROC ; ioAttackableItem::IncreaseChangeDamage
EXTRN	?IncreaseChangeDamageByWeapon@ioAttackableItem@@UAEXM@Z:PROC ; ioAttackableItem::IncreaseChangeDamageByWeapon
EXTRN	?CheckIncreaseChangeDamage@ioAttackableItem@@UAEXPAVioBaseChar@@@Z:PROC ; ioAttackableItem::CheckIncreaseChangeDamage
EXTRN	?DecreaseChangeDamage@ioAttackableItem@@UAEXPAVioBaseChar@@@Z:PROC ; ioAttackableItem::DecreaseChangeDamage
EXTRN	?IsEnableActionStopDelay@ioAttackableItem@@UAE_NXZ:PROC ; ioAttackableItem::IsEnableActionStopDelay
EXTRN	?SetExtraGaugeTypeByWeapon@ioAttackableItem@@UAEXPAVioBaseChar@@HHM@Z:PROC ; ioAttackableItem::SetExtraGaugeTypeByWeapon
EXTRN	?InitExtraGauge@ioAttackableItem@@UAEXXZ:PROC	; ioAttackableItem::InitExtraGauge
EXTRN	?MaxExtraGauge@ioAttackableItem@@UAEXXZ:PROC	; ioAttackableItem::MaxExtraGauge
EXTRN	?GetMaxExtraGauge@ioAttackableItem@@UAEMXZ:PROC	; ioAttackableItem::GetMaxExtraGauge
EXTRN	?GetCurExtraGauge@ioAttackableItem@@UAEMXZ:PROC	; ioAttackableItem::GetCurExtraGauge
EXTRN	?SetCurExtraGauge@ioAttackableItem@@UAEXM@Z:PROC ; ioAttackableItem::SetCurExtraGauge
EXTRN	?GetAutoTargetValue@ioAttackableItem@@UAEXPAVioBaseChar@@AAM11W4AutoTargetType@@@Z:PROC ; ioAttackableItem::GetAutoTargetValue
EXTRN	?ClearAirJump@ioAttackableItem@@UAEXXZ:PROC	; ioAttackableItem::ClearAirJump
EXTRN	?SetAirJump@ioAttackableItem@@UAEXPAVioBaseChar@@HM@Z:PROC ; ioAttackableItem::SetAirJump
EXTRN	?CheckAirJump@ioAttackableItem@@UAEXPAVioBaseChar@@@Z:PROC ; ioAttackableItem::CheckAirJump
EXTRN	?EquipObjectItemByAttakable@ioAttackableItem@@UAEXPAVioBaseChar@@PAVioItem@@@Z:PROC ; ioAttackableItem::EquipObjectItemByAttakable
EXTRN	?ReleaseObjectItemByAttack@ioAttackableItem@@UAEXPAVioBaseChar@@PAVioItem@@@Z:PROC ; ioAttackableItem::ReleaseObjectItemByAttack
EXTRN	?IsBuffFlyChange@ioAttackableItem@@UAE_NPAVioBaseChar@@@Z:PROC ; ioAttackableItem::IsBuffFlyChange
EXTRN	?GetAttackStateText@ioAttackableItem@@UBEPBDXZ:PROC ; ioAttackableItem::GetAttackStateText
EXTRN	?SetJumpLandingExtraState@ioAttackableItem@@UAE_NPAVioBaseChar@@@Z:PROC ; ioAttackableItem::SetJumpLandingExtraState
EXTRN	?ReleaseObjectState@ioWeaponItem@@UAEXPAVioBaseChar@@PAVioObjectItem@@@Z:PROC ; ioWeaponItem::ReleaseObjectState
EXTRN	?IsCmdCheckEnableTime@ioWeaponItem@@UAE_NXZ:PROC ; ioWeaponItem::IsCmdCheckEnableTime
EXTRN	?IsCmdSuccess@ioWeaponItem@@UAE_NXZ:PROC	; ioWeaponItem::IsCmdSuccess
EXTRN	?IsOneTimeWeaponItem@ioWeaponItem@@UBE_NXZ:PROC	; ioWeaponItem::IsOneTimeWeaponItem
EXTRN	?GetEquipMesh@ioWeaponItem@@UBEABVioHashString@@PAVioBaseChar@@@Z:PROC ; ioWeaponItem::GetEquipMesh
EXTRN	?IsCanSendControl@ioWeaponItem@@UBE_NXZ:PROC	; ioWeaponItem::IsCanSendControl
;	COMDAT ??_R2ioItem@@8
; File c:\program files (x86)\microsoft visual studio 10.0\vc\include\xmemory
rdata$r	SEGMENT
??_R2ioItem@@8 DD FLAT:??_R1A@?0A@EA@ioItem@@8		; ioItem::`RTTI Base Class Array'
rdata$r	ENDS
;	COMDAT ??_R3ioItem@@8
rdata$r	SEGMENT
??_R3ioItem@@8 DD 00H					; ioItem::`RTTI Class Hierarchy Descriptor'
	DD	00H
	DD	01H
	DD	FLAT:??_R2ioItem@@8
rdata$r	ENDS
;	COMDAT ??_R0?AVioItem@@@8
_DATA	SEGMENT
??_R0?AVioItem@@@8 DD FLAT:??_7type_info@@6B@		; ioItem `RTTI Type Descriptor'
	DD	00H
	DB	'.?AVioItem@@', 00H
_DATA	ENDS
;	COMDAT ??_R1A@?0A@EA@ioItem@@8
rdata$r	SEGMENT
??_R1A@?0A@EA@ioItem@@8 DD FLAT:??_R0?AVioItem@@@8	; ioItem::`RTTI Base Class Descriptor at (0,-1,0,64)'
	DD	00H
	DD	00H
	DD	0ffffffffH
	DD	00H
	DD	040H
	DD	FLAT:??_R3ioItem@@8
rdata$r	ENDS
;	COMDAT ??_R2ioAttackableItem@@8
rdata$r	SEGMENT
??_R2ioAttackableItem@@8 DD FLAT:??_R1A@?0A@EA@ioAttackableItem@@8 ; ioAttackableItem::`RTTI Base Class Array'
	DD	FLAT:??_R1A@?0A@EA@ioItem@@8
rdata$r	ENDS
;	COMDAT ??_R3ioAttackableItem@@8
rdata$r	SEGMENT
??_R3ioAttackableItem@@8 DD 00H				; ioAttackableItem::`RTTI Class Hierarchy Descriptor'
	DD	00H
	DD	02H
	DD	FLAT:??_R2ioAttackableItem@@8
rdata$r	ENDS
;	COMDAT ??_R0?AVioAttackableItem@@@8
_DATA	SEGMENT
??_R0?AVioAttackableItem@@@8 DD FLAT:??_7type_info@@6B@	; ioAttackableItem `RTTI Type Descriptor'
	DD	00H
	DB	'.?AVioAttackableItem@@', 00H
_DATA	ENDS
;	COMDAT ??_R1A@?0A@EA@ioAttackableItem@@8
rdata$r	SEGMENT
??_R1A@?0A@EA@ioAttackableItem@@8 DD FLAT:??_R0?AVioAttackableItem@@@8 ; ioAttackableItem::`RTTI Base Class Descriptor at (0,-1,0,64)'
	DD	01H
	DD	00H
	DD	0ffffffffH
	DD	00H
	DD	040H
	DD	FLAT:??_R3ioAttackableItem@@8
rdata$r	ENDS
;	COMDAT ??_R2ioWeaponItem@@8
rdata$r	SEGMENT
??_R2ioWeaponItem@@8 DD FLAT:??_R1A@?0A@EA@ioWeaponItem@@8 ; ioWeaponItem::`RTTI Base Class Array'
	DD	FLAT:??_R1A@?0A@EA@ioAttackableItem@@8
	DD	FLAT:??_R1A@?0A@EA@ioItem@@8
rdata$r	ENDS
;	COMDAT ??_R3ioWeaponItem@@8
rdata$r	SEGMENT
??_R3ioWeaponItem@@8 DD 00H				; ioWeaponItem::`RTTI Class Hierarchy Descriptor'
	DD	00H
	DD	03H
	DD	FLAT:??_R2ioWeaponItem@@8
rdata$r	ENDS
;	COMDAT ??_R0?AVioWeaponItem@@@8
_DATA	SEGMENT
??_R0?AVioWeaponItem@@@8 DD FLAT:??_7type_info@@6B@	; ioWeaponItem `RTTI Type Descriptor'
	DD	00H
	DB	'.?AVioWeaponItem@@', 00H
_DATA	ENDS
;	COMDAT ??_R1A@?0A@EA@ioWeaponItem@@8
rdata$r	SEGMENT
??_R1A@?0A@EA@ioWeaponItem@@8 DD FLAT:??_R0?AVioWeaponItem@@@8 ; ioWeaponItem::`RTTI Base Class Descriptor at (0,-1,0,64)'
	DD	02H
	DD	00H
	DD	0ffffffffH
	DD	00H
	DD	040H
	DD	FLAT:??_R3ioWeaponItem@@8
rdata$r	ENDS
;	COMDAT ??_R1A@?0A@EA@ioEngineerItem@@8
rdata$r	SEGMENT
??_R1A@?0A@EA@ioEngineerItem@@8 DD FLAT:??_R0?AVioEngineerItem@@@8 ; ioEngineerItem::`RTTI Base Class Descriptor at (0,-1,0,64)'
	DD	03H
	DD	00H
	DD	0ffffffffH
	DD	00H
	DD	040H
	DD	FLAT:??_R3ioEngineerItem@@8
rdata$r	ENDS
;	COMDAT ??_R2ioEngineerItem@@8
rdata$r	SEGMENT
??_R2ioEngineerItem@@8 DD FLAT:??_R1A@?0A@EA@ioEngineerItem@@8 ; ioEngineerItem::`RTTI Base Class Array'
	DD	FLAT:??_R1A@?0A@EA@ioWeaponItem@@8
	DD	FLAT:??_R1A@?0A@EA@ioAttackableItem@@8
	DD	FLAT:??_R1A@?0A@EA@ioItem@@8
rdata$r	ENDS
;	COMDAT ??_R3ioEngineerItem@@8
rdata$r	SEGMENT
??_R3ioEngineerItem@@8 DD 00H				; ioEngineerItem::`RTTI Class Hierarchy Descriptor'
	DD	00H
	DD	04H
	DD	FLAT:??_R2ioEngineerItem@@8
rdata$r	ENDS
;	COMDAT ??_R0?AVioEngineerItem@@@8
_DATA	SEGMENT
??_R0?AVioEngineerItem@@@8 DD FLAT:??_7type_info@@6B@	; ioEngineerItem `RTTI Type Descriptor'
	DD	00H
	DB	'.?AVioEngineerItem@@', 00H
_DATA	ENDS
;	COMDAT ??_R4ioEngineerItem@@6B@
rdata$r	SEGMENT
??_R4ioEngineerItem@@6B@ DD 00H				; ioEngineerItem::`RTTI Complete Object Locator'
	DD	00H
	DD	00H
	DD	FLAT:??_R0?AVioEngineerItem@@@8
	DD	FLAT:??_R3ioEngineerItem@@8
rdata$r	ENDS
;	COMDAT ??_7ioEngineerItem@@6B@
CONST	SEGMENT
??_7ioEngineerItem@@6B@ DD FLAT:??_R4ioEngineerItem@@6B@ ; ioEngineerItem::`vftable'
	DD	FLAT:?FindFieldEntityGrp@ioItem@@MBEABVioHashString@@XZ
	DD	FLAT:?LoadProperty@ioEngineerItem@@UAEXAAVioINILoader@@@Z
	DD	FLAT:?GetType@ioWeaponItem@@UBE?AW4ItemType@ioItem@@XZ
	DD	FLAT:?Clone@ioEngineerItem@@UAEPAVioItem@@XZ
	DD	FLAT:?UseCreateIndexItem@ioItem@@UBE_NXZ
	DD	FLAT:?GetSetFocusColor@ioItem@@UBEKXZ
	DD	FLAT:?Initialize@ioItem@@UAEXABVioHashString@@PAVioPlayStage@@@Z
	DD	FLAT:?InitializeBeforeEquip@ioItem@@UAEXABVioHashString@@PAVioPlayStage@@@Z
	DD	FLAT:?OnEquiped@ioEngineerItem@@UAEXPAVioBaseChar@@@Z
	DD	FLAT:?OnReleased@ioEngineerItem@@UAEXPAVioBaseChar@@@Z
	DD	FLAT:?SetExtendEquipEffect@ioItem@@UAEXPAVioBaseChar@@@Z
	DD	FLAT:?ReleaseExtendEquipEffect@ioItem@@UAEXPAVioBaseChar@@@Z
	DD	FLAT:?AddGlowLine@ioWeaponItem@@UAEXPAVioBaseChar@@@Z
	DD	FLAT:?RemoveGlowLine@ioWeaponItem@@UAEXPAVioBaseChar@@@Z
	DD	FLAT:?GetTargetName@ioItem@@UAE?AVioHashString@@XZ
	DD	FLAT:?ClearTarget@ioItem@@UAEXXZ
	DD	FLAT:?SetItemType@ioWeaponItem@@UAEXXZ
	DD	FLAT:?UpdateExtraData@ioEngineerItem@@UAEXPAVioBaseChar@@@Z
	DD	FLAT:?CheckWeaponDefenseState@ioItem@@UAEXPAVioBaseChar@@@Z
	DD	FLAT:?CheckWoundedState@ioItem@@UAEXPAVioBaseChar@@@Z
	DD	FLAT:?SetVisible@ioItem@@UAEXPAVioBaseChar@@_N@Z
	DD	FLAT:?UpdateSkillGauge@ioItem@@UAEXPAVioBaseChar@@M_N@Z
	DD	FLAT:?IsEnableExtraGauge@ioItem@@UAE_NPAVioBaseChar@@@Z
	DD	FLAT:?GetExtraGauge@ioItem@@UAEMXZ
	DD	FLAT:?ReduceNeedGauge@ioItem@@UAEXMPAVioBaseChar@@@Z
	DD	FLAT:?GetCurBullet@ioEngineerItem@@UAEHXZ
	DD	FLAT:?GetMaxBullet@ioEngineerItem@@UAEHXZ
	DD	FLAT:?SetCurBullet@ioEngineerItem@@UAEXH@Z
	DD	FLAT:?GetCurSecoundBullet@ioItem@@UAEHXZ
	DD	FLAT:?GetMaxSecoundBullet@ioItem@@UAEHXZ
	DD	FLAT:?SetCurSecoundBullet@ioItem@@UAEXH@Z
	DD	FLAT:?GetGrowthInfoNum@ioItem@@UBEHH@Z
	DD	FLAT:?GetGrowthInfoNumByType@ioItem@@UBEHHAAH@Z
	DD	FLAT:?ClearCurChargeRateForSkill@ioItem@@UAEXXZ
	DD	FLAT:?GetChargeDamageRateForSkill@ioItem@@UAEMXZ
	DD	FLAT:?GetChargeForceRateForSkill@ioItem@@UAEMXZ
	DD	FLAT:?GetChargeBlowRateForSkill@ioItem@@UAEMXZ
	DD	FLAT:?GetChargeRangeRateForSkill@ioItem@@UAEMXZ
	DD	FLAT:?GetChargeSpeedRateForSkill@ioItem@@UAEMXZ
	DD	FLAT:?GetChargeFloatRateForSkill@ioItem@@UAEMXZ
	DD	FLAT:?GetChargeScaleRateForSkill@ioItem@@UAEMXZ
	DD	FLAT:?GetChargeExplosionRateForSkill@ioItem@@UAEMXZ
	DD	FLAT:?GetChargeWoundedTimeRateForSkill@ioItem@@UAEMXZ
	DD	FLAT:?SetCurEquipEffect@ioItem@@UAEX_N@Z
	DD	FLAT:?SetCostume@ioItem@@UAEXH_N@Z
	DD	FLAT:??_EioEngineerItem@@UAEPAXI@Z
	DD	FLAT:?IsCanFire@ioAttackableItem@@UBE_NPBVioBaseChar@@H_N@Z
	DD	FLAT:?CallItemProcess@ioAttackableItem@@UAEXPAVioBaseChar@@@Z
	DD	FLAT:?SetExtraInfoToWeapon@ioEngineerItem@@UAEXPAVioWeapon@@_N@Z
	DD	FLAT:?CheckChargeInfo@ioAttackableItem@@UAEXPAVioWeapon@@_N@Z
	DD	FLAT:?SetExtendDefenseState@ioAttackableItem@@UAE_NPAVioBaseChar@@@Z
	DD	FLAT:?CheckExtendDefenseState@ioAttackableItem@@UAEXPAVioBaseChar@@@Z
	DD	FLAT:?CheckDefenseMoveAniState@ioAttackableItem@@UAEXPAVioBaseChar@@@Z
	DD	FLAT:?SetDodgeDefenseState@ioAttackableItem@@UAE_NPAVioBaseChar@@@Z
	DD	FLAT:?CheckDodgeDefenseState@ioAttackableItem@@UAEXPAVioBaseChar@@@Z
	DD	FLAT:?ApplyDodgeDefenseState@ioAttackableItem@@UAEXPAVioBaseChar@@AAVSP2Packet@@@Z
	DD	FLAT:?SetDefenseAttackState@ioAttackableItem@@UAE_NPAVioBaseChar@@@Z
	DD	FLAT:?CheckDefenseAttackState@ioAttackableItem@@UAEXPAVioBaseChar@@@Z
	DD	FLAT:?ApplyDefenseAttackState@ioAttackableItem@@UAEXPAVioBaseChar@@AAVSP2Packet@@@Z
	DD	FLAT:?SetExtendDashState@ioAttackableItem@@UAE_NPAVioBaseChar@@@Z
	DD	FLAT:?CheckExtendDashState@ioAttackableItem@@UAEXPAVioBaseChar@@@Z
	DD	FLAT:?SetNormalAttack@ioEngineerItem@@UAEXPAVioBaseChar@@H@Z
	DD	FLAT:?CheckNormalAttack@ioEngineerItem@@UAEXPAVioBaseChar@@@Z
	DD	FLAT:?SetJumpAttack@ioAttackableItem@@UAE_NPAVioBaseChar@@HMW4AttackType@@@Z
	DD	FLAT:?CheckJumpAttack@ioAttackableItem@@UAEXPAVioBaseChar@@@Z
	DD	FLAT:?SetJumpReloadState@ioAttackableItem@@UAE_NPAVioBaseChar@@@Z
	DD	FLAT:?SetJumpReload@ioAttackableItem@@UAE_NPAVioBaseChar@@@Z
	DD	FLAT:?CheckJumpReloadState@ioAttackableItem@@UAEXPAVioBaseChar@@@Z
	DD	FLAT:?CheckJumpReloadReserve@ioAttackableItem@@UAEXPAVioBaseChar@@@Z
	DD	FLAT:?ProcessJumpReloadState@ioAttackableItem@@UAEXPAVioBaseChar@@@Z
	DD	FLAT:?ApplyJumpReload@ioAttackableItem@@UAEXPAVioBaseChar@@AAVSP2Packet@@@Z
	DD	FLAT:?OnItemGaugeOK@ioEngineerItem@@UAEXPAVioBaseChar@@AAVSP2Packet@@@Z
	DD	FLAT:?OnItemGaugeCancel@ioAttackableItem@@UAEXPAVioBaseChar@@AAVSP2Packet@@@Z
	DD	FLAT:?OnEndExtendDefense@ioAttackableItem@@UAEXPAVioBaseChar@@@Z
	DD	FLAT:?OnEndNormalAttack@ioAttackableItem@@UAEXPAVioBaseChar@@@Z
	DD	FLAT:?OnEndExtendAttack@ioAttackableItem@@UAEXPAVioBaseChar@@_N@Z
	DD	FLAT:?OnEndExtendJump@ioAttackableItem@@UAEXPAVioBaseChar@@@Z
	DD	FLAT:?FillNormalAttackExtraInfo@ioAttackableItem@@UAEXAAVSP2Packet@@@Z
	DD	FLAT:?ApplyNormalAttackExtraInfo@ioAttackableItem@@UAEXAAVSP2Packet@@@Z
	DD	FLAT:?CheckOnHand@ioAttackableItem@@UAE_NXZ
	DD	FLAT:?CheckAimState@ioAttackableItem@@UAE_N_N@Z
	DD	FLAT:?SetAimState@ioAttackableItem@@UAE_NPAVioBaseChar@@@Z
	DD	FLAT:?CheckLanding@ioAttackableItem@@UAE_NPAVioBaseChar@@@Z
	DD	FLAT:?SetNoneState@ioAttackableItem@@UAEXPAVioBaseChar@@H@Z
	DD	FLAT:?CheckExtendDefenseEnable@ioAttackableItem@@UAE_NPAVioBaseChar@@@Z
	DD	FLAT:?IsChargeAttackState@ioEngineerItem@@UAE_NPAVioBaseChar@@@Z
	DD	FLAT:?IsMoveAttackState@ioAttackableItem@@UAE_NPAVioBaseChar@@@Z
	DD	FLAT:?IsCanUpdateGauge@ioAttackableItem@@UAE_NPAVioBaseChar@@@Z
	DD	FLAT:?IsNoGhostWalk@ioAttackableItem@@UAE_NPAVioBaseChar@@@Z
	DD	FLAT:?IsEnableAttackDashCheck@ioEngineerItem@@UAE_NPAVioBaseChar@@_N@Z
	DD	FLAT:?IsEnableItemDashCheck@ioAttackableItem@@UAE_NPAVioBaseChar@@_N@Z
	DD	FLAT:?IsEnableAttackRotateCheck@ioAttackableItem@@UAE_NPAVioBaseChar@@@Z
	DD	FLAT:?IsEnableChargeDefenseCheck@ioAttackableItem@@UAE_NXZ
	DD	FLAT:?CheckAimJumpState@ioAttackableItem@@UAEXPAVioBaseChar@@@Z
	DD	FLAT:?GetJumppingAnimation@ioAttackableItem@@UBEABVioHashString@@XZ
	DD	FLAT:?GetExtendJumppingAnimation@ioAttackableItem@@UBEABVioHashString@@XZ
	DD	FLAT:?CheckRetreatState@ioAttackableItem@@UAEXPAVioBaseChar@@@Z
	DD	FLAT:?SetNextItemState@ioAttackableItem@@UAEXPAVioBaseChar@@0PAVioWeapon@@_NM@Z
	DD	FLAT:?WeaponWounded@ioWeaponItem@@UAEXPAVioWeapon@@PAVioBaseChar@@@Z
	DD	FLAT:?WeaponMapColDead@ioAttackableItem@@UAEXPAVioWeapon@@@Z
	DD	FLAT:?SetDefenceCounterState@ioAttackableItem@@UAEXPAVioBaseChar@@@Z
	DD	FLAT:?IsUseDefenceCounterAttack@ioAttackableItem@@UAE_NXZ
	DD	FLAT:?ProcessDefenceCounterAttack@ioAttackableItem@@UAEXPAVioBaseChar@@@Z
	DD	FLAT:?IsUseDefenceCounterAttackEndDash@ioAttackableItem@@UAE_NXZ
	DD	FLAT:?ProcessExtraJump@ioAttackableItem@@UAEXPAVioBaseChar@@@Z
	DD	FLAT:?SetEndGrappling@ioAttackableItem@@UAEXPAVioBaseChar@@@Z
	DD	FLAT:?ClearKeyReserve@ioAttackableItem@@MAEXXZ
	DD	FLAT:?CheckReserve@ioAttackableItem@@MAEXPAVioBaseChar@@@Z
	DD	FLAT:?ProcessReserveKeyInput@ioAttackableItem@@MAEXPAVioBaseChar@@@Z
	DD	FLAT:?SetJumpState@ioAttackableItem@@UAEXXZ
	DD	FLAT:?SetJumpping@ioAttackableItem@@UAEXPAVioBaseChar@@_N@Z
	DD	FLAT:?ProcessJumpping@ioAttackableItem@@UAEXPAVioBaseChar@@M@Z
	DD	FLAT:?ProcessJumppingByNoNeedProcess@ioAttackableItem@@UAEXPAVioBaseChar@@M@Z
	DD	FLAT:?ProcessLanding@ioAttackableItem@@UAEXPAVioBaseChar@@@Z
	DD	FLAT:?ProcessJumpAttack@ioAttackableItem@@UAEXPAVioBaseChar@@M@Z
	DD	FLAT:?ProcessAimJump@ioAttackableItem@@UAE_NPAVioBaseChar@@M@Z
	DD	FLAT:?ApplyJump@ioAttackableItem@@UAEXPAVioBaseChar@@AAVSP2Packet@@@Z
	DD	FLAT:?ApplyDash@ioAttackableItem@@UAEXPAVioBaseChar@@AAVSP2Packet@@@Z
	DD	FLAT:?ApplyCounterAttack@ioAttackableItem@@UAEXPAVioBaseChar@@AAVSP2Packet@@@Z
	DD	FLAT:?CheckComboJumpAttack@ioAttackableItem@@UAEXPAVioBaseChar@@@Z
	DD	FLAT:?SetFlashJumpAttack@ioAttackableItem@@UAE_NPAVioBaseChar@@@Z
	DD	FLAT:?SetComboFlashAttack@ioAttackableItem@@UAE_NPAVioBaseChar@@@Z
	DD	FLAT:?SetCollectJumpAttack@ioAttackableItem@@UAE_NPAVioBaseChar@@@Z
	DD	FLAT:?SetPowerChargeJumpAttack@ioAttackableItem@@UAE_NPAVioBaseChar@@@Z
	DD	FLAT:?GetAttackSpeedRate@ioAttackableItem@@UBEMXZ
	DD	FLAT:?GetExtraJumpSpeedRate@ioAttackableItem@@UBEMABUD3DXVECTOR3@@ABUD3DXQUATERNION@@@Z
	DD	FLAT:?IsEnableExtendJump@ioAttackableItem@@UAE_NXZ
	DD	FLAT:?RecevieExtendJumpUse@ioAttackableItem@@UAEXPAVioBaseChar@@@Z
	DD	FLAT:?HasAniFile@ioAttackableItem@@UBE_NW4AttackType@@H@Z
	DD	FLAT:?HasEndAniFile@ioAttackableItem@@UBE_NW4AttackType@@H@Z
	DD	FLAT:?GetAttackAttribute@ioAttackableItem@@UBEPBUAttackAttribute@@W4AttackType@@H@Z
	DD	FLAT:?GetAniFile@ioAttackableItem@@UBEABVioHashString@@W4AttackType@@H@Z
	DD	FLAT:?GetAttackAniRate@ioAttackableItem@@UBEMW4AttackType@@H@Z
	DD	FLAT:?GetEndAniFile@ioAttackableItem@@UBEABVioHashString@@W4AttackType@@H@Z
	DD	FLAT:?GetAttackEndAniRate@ioAttackableItem@@UBEMW4AttackType@@H@Z
	DD	FLAT:?GetAttackAttributeIdx@ioAttackableItem@@UBEABV?$vector@UWeaponInfo@@V?$allocator@UWeaponInfo@@@std@@@std@@W4AttackType@@H@Z
	DD	FLAT:?GetForceInfoList@ioAttackableItem@@UBEABV?$vector@UForceInfo@@V?$allocator@UForceInfo@@@std@@@std@@W4AttackType@@H@Z
	DD	FLAT:?GetAttackPreDelay@ioAttackableItem@@UBEKW4AttackType@@H@Z
	DD	FLAT:?GetAttackAnimationDelay@ioAttackableItem@@UBEKW4AttackType@@H@Z
	DD	FLAT:?GetMaxCombo@ioAttackableItem@@UBEHXZ
	DD	FLAT:?GetExtraDashAttackMax@ioAttackableItem@@UBEHXZ
	DD	FLAT:?HasJumpEndAnimation@ioAttackableItem@@UBE_N_NPAVioBaseChar@@@Z
	DD	FLAT:?GetJumpEndAnimation@ioAttackableItem@@UBEABVioHashString@@_NPAVioBaseChar@@@Z
	DD	FLAT:?ClearCancelInfo@ioAttackableItem@@MAEXXZ
	DD	FLAT:?CheckCancelReserve@ioAttackableItem@@MAEXPAVioBaseChar@@@Z
	DD	FLAT:?SetCurAttackAniForInputJump@ioAttackableItem@@MAEXABVioHashString@@M@Z
	DD	FLAT:?ProcessCancel@ioAttackableItem@@MAE_NPAVioBaseChar@@@Z
	DD	FLAT:?ProcessCancelBySpeicalDash@ioAttackableItem@@MAE_NPAVioBaseChar@@@Z
	DD	FLAT:?SetCurAttackAniForInputDashS@ioAttackableItem@@UAEXABVioHashString@@M@Z
	DD	FLAT:?CheckCancelReserveByConditionalSpecialDash@ioAttackableItem@@UAEXPAVioBaseChar@@@Z
	DD	FLAT:?IsConditionalSpecialDashReserve@ioAttackableItem@@UAE_NPAVioBaseChar@@@Z
	DD	FLAT:?SetChangeConditionalSpecialDash@ioAttackableItem@@UAEXPAVioBaseChar@@W4DirKeyInput@ioUserKeyInput@@H@Z
	DD	FLAT:?CheckChangeWereWolfState@ioAttackableItem@@UAE_NPAVioBaseChar@@@Z
	DD	FLAT:?SetChangeWereWolfState@ioAttackableItem@@UAEXPAVioBaseChar@@@Z
	DD	FLAT:?CheckReleaseWereWolfState@ioAttackableItem@@UAE_NPAVioBaseChar@@@Z
	DD	FLAT:?ReleseWereWolfState@ioAttackableItem@@UAEXPAVioBaseChar@@@Z
	DD	FLAT:?ReleseWereWolfStateByOwner@ioAttackableItem@@UAEXPAVioBaseChar@@@Z
	DD	FLAT:?IncreaseChangeDamage@ioAttackableItem@@UAEXMH_N@Z
	DD	FLAT:?IncreaseChangeDamageByWeapon@ioAttackableItem@@UAEXM@Z
	DD	FLAT:?CheckIncreaseChangeDamage@ioAttackableItem@@UAEXPAVioBaseChar@@@Z
	DD	FLAT:?DecreaseChangeDamage@ioAttackableItem@@UAEXPAVioBaseChar@@@Z
	DD	FLAT:?IsEnableActionStopDelay@ioAttackableItem@@UAE_NXZ
	DD	FLAT:?SetExtraGaugeTypeByWeapon@ioAttackableItem@@UAEXPAVioBaseChar@@HHM@Z
	DD	FLAT:?SetUseExtraGauge@ioEngineerItem@@UAEXM@Z
	DD	FLAT:?InitExtraGauge@ioAttackableItem@@UAEXXZ
	DD	FLAT:?MaxExtraGauge@ioAttackableItem@@UAEXXZ
	DD	FLAT:?GetMaxExtraGauge@ioAttackableItem@@UAEMXZ
	DD	FLAT:?GetCurExtraGauge@ioAttackableItem@@UAEMXZ
	DD	FLAT:?SetCurExtraGauge@ioAttackableItem@@UAEXM@Z
	DD	FLAT:?GetAutoTargetValue@ioAttackableItem@@UAEXPAVioBaseChar@@AAM11W4AutoTargetType@@@Z
	DD	FLAT:?ClearAirJump@ioAttackableItem@@UAEXXZ
	DD	FLAT:?SetAirJump@ioAttackableItem@@UAEXPAVioBaseChar@@HM@Z
	DD	FLAT:?CheckAirJump@ioAttackableItem@@UAEXPAVioBaseChar@@@Z
	DD	FLAT:?IsAutoTarget@ioAttackableItem@@UBE_NXZ
	DD	FLAT:?EquipObjectItemByAttakable@ioAttackableItem@@UAEXPAVioBaseChar@@PAVioItem@@@Z
	DD	FLAT:?ReleaseObjectItemByAttack@ioAttackableItem@@UAEXPAVioBaseChar@@PAVioItem@@@Z
	DD	FLAT:?IsBuffFlyChange@ioAttackableItem@@UAE_NPAVioBaseChar@@@Z
	DD	FLAT:?GetAttackStateText@ioAttackableItem@@UBEPBDXZ
	DD	FLAT:?SetJumpLandingExtraState@ioAttackableItem@@UAE_NPAVioBaseChar@@@Z
	DD	FLAT:?IsWoundAfterUseExtendState@ioAttackableItem@@UAE_NXZ
	DD	FLAT:?CheckWoundAfterUseExtendState@ioAttackableItem@@UAE_NPAVioBaseChar@@W4BlowTargetType@@@Z
	DD	FLAT:?IsCharSkipState@ioAttackableItem@@UAE_NPBVioBaseChar@@@Z
	DD	FLAT:?ReleaseObjectState@ioWeaponItem@@UAEXPAVioBaseChar@@PAVioObjectItem@@@Z
	DD	FLAT:?IsCmdCheckEnableTime@ioWeaponItem@@UAE_NXZ
	DD	FLAT:?IsCmdSuccess@ioWeaponItem@@UAE_NXZ
	DD	FLAT:?IsOneTimeWeaponItem@ioWeaponItem@@UBE_NXZ
	DD	FLAT:?GetEquipMesh@ioWeaponItem@@UBEABVioHashString@@PAVioBaseChar@@@Z
	DD	FLAT:?IsCanSendControl@ioWeaponItem@@UBE_NXZ
	DD	FLAT:?GetSubType@ioEngineerItem@@UBE?AW4WeaponSubType@ioWeaponItem@@XZ
CONST	ENDS
;	COMDAT xdata$x
xdata$x	SEGMENT
__unwindtable$??0ioEngineerItem@@QAE@XZ DD 0ffffffffH
	DD	FLAT:__unwindfunclet$??0ioEngineerItem@@QAE@XZ$0
	DD	00H
	DD	FLAT:__unwindfunclet$??0ioEngineerItem@@QAE@XZ$1
	DD	01H
	DD	FLAT:__unwindfunclet$??0ioEngineerItem@@QAE@XZ$2
	DD	02H
	DD	FLAT:__unwindfunclet$??0ioEngineerItem@@QAE@XZ$3
__ehfuncinfo$??0ioEngineerItem@@QAE@XZ DD 019930522H
	DD	04H
	DD	FLAT:__unwindtable$??0ioEngineerItem@@QAE@XZ
	DD	2 DUP(00H)
	DD	2 DUP(00H)
	DD	00H
	DD	01H
; Function compile flags: /Ogsp
; File d:\lost saga for developer\youtube\tutorial\source\src\lsclient\ioengineeritem.cpp
xdata$x	ENDS
;	COMDAT ??0ioEngineerItem@@QAE@XZ
_TEXT	SEGMENT
_this$ = -16						; size = 4
__$EHRec$ = -12						; size = 12
??0ioEngineerItem@@QAE@XZ PROC				; ioEngineerItem::ioEngineerItem, COMDAT
; _this$ = ecx

; 15   : {

  00000	6a 04		 push	 4
  00002	b8 00 00 00 00	 mov	 eax, __ehhandler$??0ioEngineerItem@@QAE@XZ
  00007	e8 00 00 00 00	 call	 __EH_prolog3
  0000c	8b f1		 mov	 esi, ecx
  0000e	89 75 f0	 mov	 DWORD PTR _this$[ebp], esi
  00011	e8 00 00 00 00	 call	 ??0ioWeaponItem@@QAE@XZ	; ioWeaponItem::ioWeaponItem
  00016	33 ff		 xor	 edi, edi
  00018	8d 8e 60 19 00
	00		 lea	 ecx, DWORD PTR [esi+6496]
  0001e	89 7d fc	 mov	 DWORD PTR __$EHRec$[ebp+8], edi
  00021	c7 06 00 00 00
	00		 mov	 DWORD PTR [esi], OFFSET ??_7ioEngineerItem@@6B@
  00027	e8 00 00 00 00	 call	 ??0?$CEncrypt@M@@QAE@XZ	; CEncrypt<float>::CEncrypt<float>
  0002c	89 be 90 19 00
	00		 mov	 DWORD PTR [esi+6544], edi
  00032	89 be 94 19 00
	00		 mov	 DWORD PTR [esi+6548], edi
  00038	89 be 98 19 00
	00		 mov	 DWORD PTR [esi+6552], edi
  0003e	89 be a0 19 00
	00		 mov	 DWORD PTR [esi+6560], edi
  00044	89 be a4 19 00
	00		 mov	 DWORD PTR [esi+6564], edi
  0004a	89 be a8 19 00
	00		 mov	 DWORD PTR [esi+6568], edi
  00050	8d 8e b4 19 00
	00		 lea	 ecx, DWORD PTR [esi+6580]
  00056	c6 45 fc 03	 mov	 BYTE PTR __$EHRec$[ebp+8], 3
  0005a	ff 15 00 00 00
	00		 call	 DWORD PTR __imp_??0ioHashString@@QAE@XZ

; 16   : 	Init();

  00060	8b ce		 mov	 ecx, esi
  00062	e8 00 00 00 00	 call	 ?Init@ioEngineerItem@@QAEXXZ ; ioEngineerItem::Init

; 17   : }

  00067	8b c6		 mov	 eax, esi
  00069	e8 00 00 00 00	 call	 __EH_epilog3
  0006e	c3		 ret	 0
_TEXT	ENDS
;	COMDAT text$x
text$x	SEGMENT
__unwindfunclet$??0ioEngineerItem@@QAE@XZ$0:
  00000	8b 4d f0	 mov	 ecx, DWORD PTR _this$[ebp]
  00003	e9 00 00 00 00	 jmp	 ??1ioWeaponItem@@UAE@XZ	; ioWeaponItem::~ioWeaponItem
__unwindfunclet$??0ioEngineerItem@@QAE@XZ$1:
  00008	8b 4d f0	 mov	 ecx, DWORD PTR _this$[ebp]
  0000b	81 c1 60 19 00
	00		 add	 ecx, 6496		; 00001960H
  00011	e9 00 00 00 00	 jmp	 ??1?$CEncrypt@M@@UAE@XZ	; CEncrypt<float>::~CEncrypt<float>
__unwindfunclet$??0ioEngineerItem@@QAE@XZ$2:
  00016	8b 4d f0	 mov	 ecx, DWORD PTR _this$[ebp]
  00019	81 c1 90 19 00
	00		 add	 ecx, 6544		; 00001990H
  0001f	e9 00 00 00 00	 jmp	 ??1?$vector@VioHashString@@V?$allocator@VioHashString@@@std@@@std@@QAE@XZ ; std::vector<ioHashString,std::allocator<ioHashString> >::~vector<ioHashString,std::allocator<ioHashString> >
__unwindfunclet$??0ioEngineerItem@@QAE@XZ$3:
  00024	8b 4d f0	 mov	 ecx, DWORD PTR _this$[ebp]
  00027	81 c1 a0 19 00
	00		 add	 ecx, 6560		; 000019a0H
  0002d	e9 00 00 00 00	 jmp	 ??1?$vector@UGroupDummyInfo@@V?$allocator@UGroupDummyInfo@@@std@@@std@@QAE@XZ ; std::vector<GroupDummyInfo,std::allocator<GroupDummyInfo> >::~vector<GroupDummyInfo,std::allocator<GroupDummyInfo> >
__ehhandler$??0ioEngineerItem@@QAE@XZ:
  00032	8b 54 24 08	 mov	 edx, DWORD PTR [esp+8]
  00036	8d 42 0c	 lea	 eax, DWORD PTR [edx+12]
  00039	8b 4a ec	 mov	 ecx, DWORD PTR [edx-20]
  0003c	33 c8		 xor	 ecx, eax
  0003e	e8 00 00 00 00	 call	 @__security_check_cookie@4
  00043	b8 00 00 00 00	 mov	 eax, OFFSET __ehfuncinfo$??0ioEngineerItem@@QAE@XZ
  00048	e9 00 00 00 00	 jmp	 ___CxxFrameHandler3
text$x	ENDS
??0ioEngineerItem@@QAE@XZ ENDP				; ioEngineerItem::ioEngineerItem
PUBLIC	?return1@@YAIXZ					; return1
; Function compile flags: /Ogsp
; File d:\lost saga for developer\youtube\tutorial\source\src\lsclient\stdafx.h
;	COMDAT ?return1@@YAIXZ
_TEXT	SEGMENT
?return1@@YAIXZ PROC					; return1, COMDAT

; 17   : 	__forceinline unsigned int return1() { __asm mov eax, 1 };

  00000	b8 01 00 00 00	 mov	 eax, 1
  00005	c3		 ret	 0
?return1@@YAIXZ ENDP					; return1
; Function compile flags: /Ogsp
; File d:\lost saga for developer\youtube\tutorial\source\src\lsclient\ioitem.h
_TEXT	ENDS
;	COMDAT ?IsEnableExtraGauge@ioItem@@UAE_NPAVioBaseChar@@@Z
_TEXT	SEGMENT
_pChar$ = 8						; size = 4
?IsEnableExtraGauge@ioItem@@UAE_NPAVioBaseChar@@@Z PROC	; ioItem::IsEnableExtraGauge, COMDAT
; _this$ = ecx

; 375  : 	virtual bool IsEnableExtraGauge( ioBaseChar *pChar ) { return true; }

  00000	b0 01		 mov	 al, 1
  00002	c2 04 00	 ret	 4
?IsEnableExtraGauge@ioItem@@UAE_NPAVioBaseChar@@@Z ENDP	; ioItem::IsEnableExtraGauge
; Function compile flags: /Ogsp
_TEXT	ENDS
;	COMDAT ?GetExtraGauge@ioItem@@UAEMXZ
_TEXT	SEGMENT
tv64 = -4						; size = 4
?GetExtraGauge@ioItem@@UAEMXZ PROC			; ioItem::GetExtraGauge, COMDAT
; _this$ = ecx

; 376  : 	virtual float GetExtraGauge() { return FLOAT1; }

  00000	55		 push	 ebp
  00001	8b ec		 mov	 ebp, esp
  00003	51		 push	 ecx
  00004	b8 01 00 00 00	 mov	 eax, 1
  00009	89 45 fc	 mov	 DWORD PTR tv64[ebp], eax
  0000c	db 45 fc	 fild	 DWORD PTR tv64[ebp]
  0000f	85 c0		 test	 eax, eax
  00011	79 06		 jns	 SHORT $LN5@GetExtraGa
  00013	d8 05 00 00 00
	00		 fadd	 DWORD PTR __real@4f800000
$LN5@GetExtraGa:
  00019	c9		 leave
  0001a	c3		 ret	 0
?GetExtraGauge@ioItem@@UAEMXZ ENDP			; ioItem::GetExtraGauge
; Function compile flags: /Ogsp
; File d:\lost saga for developer\youtube\tutorial\source\src\lsclient\ioattackableitem.h
_TEXT	ENDS
;	COMDAT ?CheckOnHand@ioAttackableItem@@UAE_NXZ
_TEXT	SEGMENT
?CheckOnHand@ioAttackableItem@@UAE_NXZ PROC		; ioAttackableItem::CheckOnHand, COMDAT
; _this$ = ecx

; 429  : 	virtual bool CheckOnHand() { return false; }

  00000	32 c0		 xor	 al, al
  00002	c3		 ret	 0
?CheckOnHand@ioAttackableItem@@UAE_NXZ ENDP		; ioAttackableItem::CheckOnHand
; Function compile flags: /Ogsp
_TEXT	ENDS
;	COMDAT ?CheckAimState@ioAttackableItem@@UAE_N_N@Z
_TEXT	SEGMENT
_bAimMove$ = 8						; size = 1
?CheckAimState@ioAttackableItem@@UAE_N_N@Z PROC		; ioAttackableItem::CheckAimState, COMDAT
; _this$ = ecx

; 430  : 	virtual bool CheckAimState( bool bAimMove = false ) { return false; }

  00000	32 c0		 xor	 al, al
  00002	c2 04 00	 ret	 4
?CheckAimState@ioAttackableItem@@UAE_N_N@Z ENDP		; ioAttackableItem::CheckAimState
; Function compile flags: /Ogsp
_TEXT	ENDS
;	COMDAT ?SetAimState@ioAttackableItem@@UAE_NPAVioBaseChar@@@Z
_TEXT	SEGMENT
_pChar$ = 8						; size = 4
?SetAimState@ioAttackableItem@@UAE_NPAVioBaseChar@@@Z PROC ; ioAttackableItem::SetAimState, COMDAT
; _this$ = ecx

; 431  : 	virtual bool SetAimState( ioBaseChar *pChar ) { return false; }

  00000	32 c0		 xor	 al, al
  00002	c2 04 00	 ret	 4
?SetAimState@ioAttackableItem@@UAE_NPAVioBaseChar@@@Z ENDP ; ioAttackableItem::SetAimState
; Function compile flags: /Ogsp
_TEXT	ENDS
;	COMDAT ?CheckExtendDefenseEnable@ioAttackableItem@@UAE_NPAVioBaseChar@@@Z
_TEXT	SEGMENT
_pChar$ = 8						; size = 4
?CheckExtendDefenseEnable@ioAttackableItem@@UAE_NPAVioBaseChar@@@Z PROC ; ioAttackableItem::CheckExtendDefenseEnable, COMDAT
; _this$ = ecx

; 434  : 	virtual bool CheckExtendDefenseEnable( ioBaseChar *pChar ) { return true; }

  00000	b0 01		 mov	 al, 1
  00002	c2 04 00	 ret	 4
?CheckExtendDefenseEnable@ioAttackableItem@@UAE_NPAVioBaseChar@@@Z ENDP ; ioAttackableItem::CheckExtendDefenseEnable
; Function compile flags: /Ogsp
_TEXT	ENDS
;	COMDAT ?IsMoveAttackState@ioAttackableItem@@UAE_NPAVioBaseChar@@@Z
_TEXT	SEGMENT
_pOwner$ = 8						; size = 4
?IsMoveAttackState@ioAttackableItem@@UAE_NPAVioBaseChar@@@Z PROC ; ioAttackableItem::IsMoveAttackState, COMDAT
; _this$ = ecx

; 437  : 	virtual bool IsMoveAttackState( ioBaseChar *pOwner ) { return false; }

  00000	32 c0		 xor	 al, al
  00002	c2 04 00	 ret	 4
?IsMoveAttackState@ioAttackableItem@@UAE_NPAVioBaseChar@@@Z ENDP ; ioAttackableItem::IsMoveAttackState
; Function compile flags: /Ogsp
_TEXT	ENDS
;	COMDAT ?IsNoGhostWalk@ioAttackableItem@@UAE_NPAVioBaseChar@@@Z
_TEXT	SEGMENT
_pOwner$ = 8						; size = 4
?IsNoGhostWalk@ioAttackableItem@@UAE_NPAVioBaseChar@@@Z PROC ; ioAttackableItem::IsNoGhostWalk, COMDAT
; _this$ = ecx

; 439  : 	virtual bool IsNoGhostWalk( ioBaseChar *pOwner ) { return false; }

  00000	32 c0		 xor	 al, al
  00002	c2 04 00	 ret	 4
?IsNoGhostWalk@ioAttackableItem@@UAE_NPAVioBaseChar@@@Z ENDP ; ioAttackableItem::IsNoGhostWalk
; Function compile flags: /Ogsp
_TEXT	ENDS
;	COMDAT ?IsEnableItemDashCheck@ioAttackableItem@@UAE_NPAVioBaseChar@@_N@Z
_TEXT	SEGMENT
_pOwner$ = 8						; size = 4
_bCheck$ = 12						; size = 1
?IsEnableItemDashCheck@ioAttackableItem@@UAE_NPAVioBaseChar@@_N@Z PROC ; ioAttackableItem::IsEnableItemDashCheck, COMDAT
; _this$ = ecx

; 442  : 	virtual bool IsEnableItemDashCheck( ioBaseChar *pOwner, bool bCheck ) { return false; }

  00000	32 c0		 xor	 al, al
  00002	c2 08 00	 ret	 8
?IsEnableItemDashCheck@ioAttackableItem@@UAE_NPAVioBaseChar@@_N@Z ENDP ; ioAttackableItem::IsEnableItemDashCheck
; Function compile flags: /Ogsp
_TEXT	ENDS
;	COMDAT ?IsEnableAttackRotateCheck@ioAttackableItem@@UAE_NPAVioBaseChar@@@Z
_TEXT	SEGMENT
_pOwner$ = 8						; size = 4
?IsEnableAttackRotateCheck@ioAttackableItem@@UAE_NPAVioBaseChar@@@Z PROC ; ioAttackableItem::IsEnableAttackRotateCheck, COMDAT
; _this$ = ecx

; 443  : 	virtual bool IsEnableAttackRotateCheck( ioBaseChar *pOwner ) { return false; }

  00000	32 c0		 xor	 al, al
  00002	c2 04 00	 ret	 4
?IsEnableAttackRotateCheck@ioAttackableItem@@UAE_NPAVioBaseChar@@@Z ENDP ; ioAttackableItem::IsEnableAttackRotateCheck
; Function compile flags: /Ogsp
_TEXT	ENDS
;	COMDAT ?IsEnableChargeDefenseCheck@ioAttackableItem@@UAE_NXZ
_TEXT	SEGMENT
?IsEnableChargeDefenseCheck@ioAttackableItem@@UAE_NXZ PROC ; ioAttackableItem::IsEnableChargeDefenseCheck, COMDAT
; _this$ = ecx

; 444  : 	virtual bool IsEnableChargeDefenseCheck() { return false; }

  00000	32 c0		 xor	 al, al
  00002	c3		 ret	 0
?IsEnableChargeDefenseCheck@ioAttackableItem@@UAE_NXZ ENDP ; ioAttackableItem::IsEnableChargeDefenseCheck
; Function compile flags: /Ogsp
_TEXT	ENDS
;	COMDAT ?IsUseDefenceCounterAttackEndDash@ioAttackableItem@@UAE_NXZ
_TEXT	SEGMENT
?IsUseDefenceCounterAttackEndDash@ioAttackableItem@@UAE_NXZ PROC ; ioAttackableItem::IsUseDefenceCounterAttackEndDash, COMDAT
; _this$ = ecx

; 464  : 	virtual bool IsUseDefenceCounterAttackEndDash() { return false; }

  00000	32 c0		 xor	 al, al
  00002	c3		 ret	 0
?IsUseDefenceCounterAttackEndDash@ioAttackableItem@@UAE_NXZ ENDP ; ioAttackableItem::IsUseDefenceCounterAttackEndDash
; Function compile flags: /Ogsp
_TEXT	ENDS
;	COMDAT ?IsAutoTarget@ioAttackableItem@@UBE_NXZ
_TEXT	SEGMENT
?IsAutoTarget@ioAttackableItem@@UBE_NXZ PROC		; ioAttackableItem::IsAutoTarget, COMDAT
; _this$ = ecx

; 707  : 	virtual bool IsAutoTarget() const { return true; }

  00000	b0 01		 mov	 al, 1
  00002	c3		 ret	 0
?IsAutoTarget@ioAttackableItem@@UBE_NXZ ENDP		; ioAttackableItem::IsAutoTarget
; Function compile flags: /Ogsp
_TEXT	ENDS
;	COMDAT ?IsWoundAfterUseExtendState@ioAttackableItem@@UAE_NXZ
_TEXT	SEGMENT
?IsWoundAfterUseExtendState@ioAttackableItem@@UAE_NXZ PROC ; ioAttackableItem::IsWoundAfterUseExtendState, COMDAT
; _this$ = ecx

; 724  : 	virtual bool IsWoundAfterUseExtendState(){ return false; }

  00000	32 c0		 xor	 al, al
  00002	c3		 ret	 0
?IsWoundAfterUseExtendState@ioAttackableItem@@UAE_NXZ ENDP ; ioAttackableItem::IsWoundAfterUseExtendState
; Function compile flags: /Ogsp
_TEXT	ENDS
;	COMDAT ?CheckWoundAfterUseExtendState@ioAttackableItem@@UAE_NPAVioBaseChar@@W4BlowTargetType@@@Z
_TEXT	SEGMENT
_pOwner$ = 8						; size = 4
_eType$ = 12						; size = 4
?CheckWoundAfterUseExtendState@ioAttackableItem@@UAE_NPAVioBaseChar@@W4BlowTargetType@@@Z PROC ; ioAttackableItem::CheckWoundAfterUseExtendState, COMDAT
; _this$ = ecx

; 725  : 	virtual bool CheckWoundAfterUseExtendState( ioBaseChar* pOwner, BlowTargetType eType ){ return false; }

  00000	32 c0		 xor	 al, al
  00002	c2 08 00	 ret	 8
?CheckWoundAfterUseExtendState@ioAttackableItem@@UAE_NPAVioBaseChar@@W4BlowTargetType@@@Z ENDP ; ioAttackableItem::CheckWoundAfterUseExtendState
; Function compile flags: /Ogsp
_TEXT	ENDS
;	COMDAT ?IsCharSkipState@ioAttackableItem@@UAE_NPBVioBaseChar@@@Z
_TEXT	SEGMENT
_pOwner$ = 8						; size = 4
?IsCharSkipState@ioAttackableItem@@UAE_NPBVioBaseChar@@@Z PROC ; ioAttackableItem::IsCharSkipState, COMDAT
; _this$ = ecx

; 728  : 	virtual bool IsCharSkipState( const ioBaseChar* pOwner ){ return false; }

  00000	32 c0		 xor	 al, al
  00002	c2 04 00	 ret	 4
?IsCharSkipState@ioAttackableItem@@UAE_NPBVioBaseChar@@@Z ENDP ; ioAttackableItem::IsCharSkipState
_TEXT	ENDS
PUBLIC	??0ioEngineerItem@@QAE@ABV0@@Z			; ioEngineerItem::ioEngineerItem
EXTRN	??0ioWeaponItem@@QAE@ABV0@@Z:PROC		; ioWeaponItem::ioWeaponItem
;	COMDAT xdata$x
; File d:\lost saga for developer\youtube\tutorial\source\src\lsclient\ioengineeritem.cpp
xdata$x	SEGMENT
__unwindtable$??0ioEngineerItem@@QAE@ABV0@@Z DD 0ffffffffH
	DD	FLAT:__unwindfunclet$??0ioEngineerItem@@QAE@ABV0@@Z$0
	DD	00H
	DD	FLAT:__unwindfunclet$??0ioEngineerItem@@QAE@ABV0@@Z$1
	DD	01H
	DD	FLAT:__unwindfunclet$??0ioEngineerItem@@QAE@ABV0@@Z$2
	DD	02H
	DD	FLAT:__unwindfunclet$??0ioEngineerItem@@QAE@ABV0@@Z$3
__ehfuncinfo$??0ioEngineerItem@@QAE@ABV0@@Z DD 019930522H
	DD	04H
	DD	FLAT:__unwindtable$??0ioEngineerItem@@QAE@ABV0@@Z
	DD	2 DUP(00H)
	DD	2 DUP(00H)
	DD	00H
	DD	01H
; Function compile flags: /Ogsp
xdata$x	ENDS
;	COMDAT ??0ioEngineerItem@@QAE@ABV0@@Z
_TEXT	SEGMENT
_this$ = -16						; size = 4
__$EHRec$ = -12						; size = 12
_rhs$ = 8						; size = 4
??0ioEngineerItem@@QAE@ABV0@@Z PROC			; ioEngineerItem::ioEngineerItem, COMDAT
; _this$ = ecx

; 28   : {

  00000	6a 04		 push	 4
  00002	b8 00 00 00 00	 mov	 eax, __ehhandler$??0ioEngineerItem@@QAE@ABV0@@Z
  00007	e8 00 00 00 00	 call	 __EH_prolog3
  0000c	8b f1		 mov	 esi, ecx
  0000e	89 75 f0	 mov	 DWORD PTR _this$[ebp], esi
  00011	8b 7d 08	 mov	 edi, DWORD PTR _rhs$[ebp]
  00014	57		 push	 edi
  00015	e8 00 00 00 00	 call	 ??0ioWeaponItem@@QAE@ABV0@@Z ; ioWeaponItem::ioWeaponItem
  0001a	83 65 fc 00	 and	 DWORD PTR __$EHRec$[ebp+8], 0
  0001e	8d 87 60 19 00
	00		 lea	 eax, DWORD PTR [edi+6496]
  00024	50		 push	 eax
  00025	8d 8e 60 19 00
	00		 lea	 ecx, DWORD PTR [esi+6496]
  0002b	c7 06 00 00 00
	00		 mov	 DWORD PTR [esi], OFFSET ??_7ioEngineerItem@@6B@
  00031	e8 00 00 00 00	 call	 ??0?$CEncrypt@M@@QAE@ABV0@@Z ; CEncrypt<float>::CEncrypt<float>
  00036	8d 87 90 19 00
	00		 lea	 eax, DWORD PTR [edi+6544]
  0003c	50		 push	 eax
  0003d	8d 8e 90 19 00
	00		 lea	 ecx, DWORD PTR [esi+6544]
  00043	c6 45 fc 01	 mov	 BYTE PTR __$EHRec$[ebp+8], 1
  00047	e8 00 00 00 00	 call	 ??0?$vector@VioHashString@@V?$allocator@VioHashString@@@std@@@std@@QAE@ABV01@@Z ; std::vector<ioHashString,std::allocator<ioHashString> >::vector<ioHashString,std::allocator<ioHashString> >
  0004c	8d 87 a0 19 00
	00		 lea	 eax, DWORD PTR [edi+6560]
  00052	50		 push	 eax
  00053	8d 8e a0 19 00
	00		 lea	 ecx, DWORD PTR [esi+6560]
  00059	c6 45 fc 02	 mov	 BYTE PTR __$EHRec$[ebp+8], 2
  0005d	e8 00 00 00 00	 call	 ??0?$vector@UGroupDummyInfo@@V?$allocator@UGroupDummyInfo@@@std@@@std@@QAE@ABV01@@Z ; std::vector<GroupDummyInfo,std::allocator<GroupDummyInfo> >::vector<GroupDummyInfo,std::allocator<GroupDummyInfo> >
  00062	8d 87 b4 19 00
	00		 lea	 eax, DWORD PTR [edi+6580]
  00068	50		 push	 eax
  00069	8d 8e b4 19 00
	00		 lea	 ecx, DWORD PTR [esi+6580]
  0006f	c6 45 fc 03	 mov	 BYTE PTR __$EHRec$[ebp+8], 3
  00073	ff 15 00 00 00
	00		 call	 DWORD PTR __imp_??0ioHashString@@QAE@ABV0@@Z
  00079	d9 87 c4 19 00
	00		 fld	 DWORD PTR [edi+6596]
  0007f	d9 9e c4 19 00
	00		 fstp	 DWORD PTR [esi+6596]

; 29   : 	Init();

  00085	8b ce		 mov	 ecx, esi
  00087	d9 87 c8 19 00
	00		 fld	 DWORD PTR [edi+6600]
  0008d	d9 9e c8 19 00
	00		 fstp	 DWORD PTR [esi+6600]
  00093	d9 87 cc 19 00
	00		 fld	 DWORD PTR [edi+6604]
  00099	d9 9e cc 19 00
	00		 fstp	 DWORD PTR [esi+6604]
  0009f	e8 00 00 00 00	 call	 ?Init@ioEngineerItem@@QAEXXZ ; ioEngineerItem::Init

; 30   : }

  000a4	8b c6		 mov	 eax, esi
  000a6	e8 00 00 00 00	 call	 __EH_epilog3
  000ab	c2 04 00	 ret	 4
_TEXT	ENDS
;	COMDAT text$x
text$x	SEGMENT
__unwindfunclet$??0ioEngineerItem@@QAE@ABV0@@Z$0:
  00000	8b 4d f0	 mov	 ecx, DWORD PTR _this$[ebp]
  00003	e9 00 00 00 00	 jmp	 ??1ioWeaponItem@@UAE@XZ	; ioWeaponItem::~ioWeaponItem
__unwindfunclet$??0ioEngineerItem@@QAE@ABV0@@Z$1:
  00008	8b 4d f0	 mov	 ecx, DWORD PTR _this$[ebp]
  0000b	81 c1 60 19 00
	00		 add	 ecx, 6496		; 00001960H
  00011	e9 00 00 00 00	 jmp	 ??1?$CEncrypt@M@@UAE@XZ	; CEncrypt<float>::~CEncrypt<float>
__unwindfunclet$??0ioEngineerItem@@QAE@ABV0@@Z$2:
  00016	8b 4d f0	 mov	 ecx, DWORD PTR _this$[ebp]
  00019	81 c1 90 19 00
	00		 add	 ecx, 6544		; 00001990H
  0001f	e9 00 00 00 00	 jmp	 ??1?$vector@VioHashString@@V?$allocator@VioHashString@@@std@@@std@@QAE@XZ ; std::vector<ioHashString,std::allocator<ioHashString> >::~vector<ioHashString,std::allocator<ioHashString> >
__unwindfunclet$??0ioEngineerItem@@QAE@ABV0@@Z$3:
  00024	8b 4d f0	 mov	 ecx, DWORD PTR _this$[ebp]
  00027	81 c1 a0 19 00
	00		 add	 ecx, 6560		; 000019a0H
  0002d	e9 00 00 00 00	 jmp	 ??1?$vector@UGroupDummyInfo@@V?$allocator@UGroupDummyInfo@@@std@@@std@@QAE@XZ ; std::vector<GroupDummyInfo,std::allocator<GroupDummyInfo> >::~vector<GroupDummyInfo,std::allocator<GroupDummyInfo> >
__ehhandler$??0ioEngineerItem@@QAE@ABV0@@Z:
  00032	8b 54 24 08	 mov	 edx, DWORD PTR [esp+8]
  00036	8d 42 0c	 lea	 eax, DWORD PTR [edx+12]
  00039	8b 4a ec	 mov	 ecx, DWORD PTR [edx-20]
  0003c	33 c8		 xor	 ecx, eax
  0003e	e8 00 00 00 00	 call	 @__security_check_cookie@4
  00043	b8 00 00 00 00	 mov	 eax, OFFSET __ehfuncinfo$??0ioEngineerItem@@QAE@ABV0@@Z
  00048	e9 00 00 00 00	 jmp	 ___CxxFrameHandler3
text$x	ENDS
??0ioEngineerItem@@QAE@ABV0@@Z ENDP			; ioEngineerItem::ioEngineerItem
PUBLIC	??1ioEngineerItem@@UAE@XZ			; ioEngineerItem::~ioEngineerItem
;	COMDAT xdata$x
; File d:\lost saga for developer\youtube\tutorial\source\src\lsclient\encryptvalue.h
xdata$x	SEGMENT
__unwindtable$??1ioEngineerItem@@UAE@XZ DD 0ffffffffH
	DD	FLAT:__unwindfunclet$??1ioEngineerItem@@UAE@XZ$0
	DD	00H
	DD	FLAT:__unwindfunclet$??1ioEngineerItem@@UAE@XZ$1
	DD	01H
	DD	FLAT:__unwindfunclet$??1ioEngineerItem@@UAE@XZ$2
	DD	02H
	DD	FLAT:__unwindfunclet$??1ioEngineerItem@@UAE@XZ$3
__ehfuncinfo$??1ioEngineerItem@@UAE@XZ DD 019930522H
	DD	04H
	DD	FLAT:__unwindtable$??1ioEngineerItem@@UAE@XZ
	DD	2 DUP(00H)
	DD	2 DUP(00H)
	DD	00H
	DD	01H
; Function compile flags: /Ogsp
; File d:\lost saga for developer\youtube\tutorial\source\src\lsclient\ioengineeritem.cpp
xdata$x	ENDS
;	COMDAT ??1ioEngineerItem@@UAE@XZ
_TEXT	SEGMENT
_this$ = -16						; size = 4
__$EHRec$ = -12						; size = 12
??1ioEngineerItem@@UAE@XZ PROC				; ioEngineerItem::~ioEngineerItem, COMDAT
; _this$ = ecx

; 33   : {

  00000	6a 04		 push	 4
  00002	b8 00 00 00 00	 mov	 eax, __ehhandler$??1ioEngineerItem@@UAE@XZ
  00007	e8 00 00 00 00	 call	 __EH_prolog3
  0000c	8b f1		 mov	 esi, ecx
  0000e	89 75 f0	 mov	 DWORD PTR _this$[ebp], esi
  00011	c7 06 00 00 00
	00		 mov	 DWORD PTR [esi], OFFSET ??_7ioEngineerItem@@6B@

; 34   : }

  00017	8d 8e b4 19 00
	00		 lea	 ecx, DWORD PTR [esi+6580]
  0001d	c7 45 fc 03 00
	00 00		 mov	 DWORD PTR __$EHRec$[ebp+8], 3
  00024	ff 15 00 00 00
	00		 call	 DWORD PTR __imp_??1ioHashString@@QAE@XZ
  0002a	8d 8e a0 19 00
	00		 lea	 ecx, DWORD PTR [esi+6560]
  00030	c6 45 fc 02	 mov	 BYTE PTR __$EHRec$[ebp+8], 2
  00034	e8 00 00 00 00	 call	 ?_Tidy@?$vector@UGroupDummyInfo@@V?$allocator@UGroupDummyInfo@@@std@@@std@@IAEXXZ ; std::vector<GroupDummyInfo,std::allocator<GroupDummyInfo> >::_Tidy
  00039	8d 8e 90 19 00
	00		 lea	 ecx, DWORD PTR [esi+6544]
  0003f	c6 45 fc 01	 mov	 BYTE PTR __$EHRec$[ebp+8], 1
  00043	e8 00 00 00 00	 call	 ?_Tidy@?$vector@VioHashString@@V?$allocator@VioHashString@@@std@@@std@@IAEXXZ ; std::vector<ioHashString,std::allocator<ioHashString> >::_Tidy
  00048	8d 8e 6c 19 00
	00		 lea	 ecx, DWORD PTR [esi+6508]
  0004e	c6 45 fc 00	 mov	 BYTE PTR __$EHRec$[ebp+8], 0
  00052	c7 86 60 19 00
	00 00 00 00 00	 mov	 DWORD PTR [esi+6496], OFFSET ??_7?$CEncrypt@M@@6B@
  0005c	e8 00 00 00 00	 call	 ??1ccddaabb@@UAE@XZ	; ccddaabb::~ccddaabb
  00061	83 4d fc ff	 or	 DWORD PTR __$EHRec$[ebp+8], -1
  00065	8b ce		 mov	 ecx, esi
  00067	e8 00 00 00 00	 call	 ??1ioWeaponItem@@UAE@XZ	; ioWeaponItem::~ioWeaponItem
  0006c	e8 00 00 00 00	 call	 __EH_epilog3
  00071	c3		 ret	 0
_TEXT	ENDS
;	COMDAT text$x
text$x	SEGMENT
__unwindfunclet$??1ioEngineerItem@@UAE@XZ$0:
  00000	8b 4d f0	 mov	 ecx, DWORD PTR _this$[ebp]
  00003	e9 00 00 00 00	 jmp	 ??1ioWeaponItem@@UAE@XZ	; ioWeaponItem::~ioWeaponItem
__unwindfunclet$??1ioEngineerItem@@UAE@XZ$1:
  00008	8b 4d f0	 mov	 ecx, DWORD PTR _this$[ebp]
  0000b	81 c1 60 19 00
	00		 add	 ecx, 6496		; 00001960H
  00011	e9 00 00 00 00	 jmp	 ??1?$CEncrypt@M@@UAE@XZ	; CEncrypt<float>::~CEncrypt<float>
__unwindfunclet$??1ioEngineerItem@@UAE@XZ$2:
  00016	8b 4d f0	 mov	 ecx, DWORD PTR _this$[ebp]
  00019	81 c1 90 19 00
	00		 add	 ecx, 6544		; 00001990H
  0001f	e9 00 00 00 00	 jmp	 ??1?$vector@VioHashString@@V?$allocator@VioHashString@@@std@@@std@@QAE@XZ ; std::vector<ioHashString,std::allocator<ioHashString> >::~vector<ioHashString,std::allocator<ioHashString> >
__unwindfunclet$??1ioEngineerItem@@UAE@XZ$3:
  00024	8b 4d f0	 mov	 ecx, DWORD PTR _this$[ebp]
  00027	81 c1 a0 19 00
	00		 add	 ecx, 6560		; 000019a0H
  0002d	e9 00 00 00 00	 jmp	 ??1?$vector@UGroupDummyInfo@@V?$allocator@UGroupDummyInfo@@@std@@@std@@QAE@XZ ; std::vector<GroupDummyInfo,std::allocator<GroupDummyInfo> >::~vector<GroupDummyInfo,std::allocator<GroupDummyInfo> >
__ehhandler$??1ioEngineerItem@@UAE@XZ:
  00032	8b 54 24 08	 mov	 edx, DWORD PTR [esp+8]
  00036	8d 42 0c	 lea	 eax, DWORD PTR [edx+12]
  00039	8b 4a ec	 mov	 ecx, DWORD PTR [edx-20]
  0003c	33 c8		 xor	 ecx, eax
  0003e	e8 00 00 00 00	 call	 @__security_check_cookie@4
  00043	b8 00 00 00 00	 mov	 eax, OFFSET __ehfuncinfo$??1ioEngineerItem@@UAE@XZ
  00048	e9 00 00 00 00	 jmp	 ___CxxFrameHandler3
text$x	ENDS
??1ioEngineerItem@@UAE@XZ ENDP				; ioEngineerItem::~ioEngineerItem
;	COMDAT xdata$x
xdata$x	SEGMENT
__unwindtable$?Clone@ioEngineerItem@@UAEPAVioItem@@XZ DD 0ffffffffH
	DD	FLAT:__unwindfunclet$?Clone@ioEngineerItem@@UAEPAVioItem@@XZ$0
__ehfuncinfo$?Clone@ioEngineerItem@@UAEPAVioItem@@XZ DD 019930522H
	DD	01H
	DD	FLAT:__unwindtable$?Clone@ioEngineerItem@@UAEPAVioItem@@XZ
	DD	2 DUP(00H)
	DD	2 DUP(00H)
	DD	00H
	DD	01H
; Function compile flags: /Ogsp
xdata$x	ENDS
;	COMDAT ?Clone@ioEngineerItem@@UAEPAVioItem@@XZ
_TEXT	SEGMENT
$T557954 = -16						; size = 4
__$EHRec$ = -12						; size = 12
?Clone@ioEngineerItem@@UAEPAVioItem@@XZ PROC		; ioEngineerItem::Clone, COMDAT
; _this$ = ecx

; 93   : {

  00000	6a 04		 push	 4
  00002	b8 00 00 00 00	 mov	 eax, __ehhandler$?Clone@ioEngineerItem@@UAEPAVioItem@@XZ
  00007	e8 00 00 00 00	 call	 __EH_prolog3
  0000c	8b f1		 mov	 esi, ecx

; 94   : 	return new ioEngineerItem( *this );

  0000e	68 d4 19 00 00	 push	 6612			; 000019d4H
  00013	e8 00 00 00 00	 call	 ??2@YAPAXI@Z		; operator new
  00018	59		 pop	 ecx
  00019	8b c8		 mov	 ecx, eax
  0001b	89 4d f0	 mov	 DWORD PTR $T557954[ebp], ecx
  0001e	33 c0		 xor	 eax, eax
  00020	89 45 fc	 mov	 DWORD PTR __$EHRec$[ebp+8], eax
  00023	3b c8		 cmp	 ecx, eax
  00025	74 06		 je	 SHORT $LN3@Clone
  00027	56		 push	 esi
  00028	e8 00 00 00 00	 call	 ??0ioEngineerItem@@QAE@ABV0@@Z ; ioEngineerItem::ioEngineerItem
$LN3@Clone:

; 95   : }

  0002d	e8 00 00 00 00	 call	 __EH_epilog3
  00032	c3		 ret	 0
_TEXT	ENDS
;	COMDAT text$x
text$x	SEGMENT
__unwindfunclet$?Clone@ioEngineerItem@@UAEPAVioItem@@XZ$0:
  00000	ff 75 f0	 push	 DWORD PTR $T557954[ebp]
  00003	e8 00 00 00 00	 call	 ??3@YAXPAX@Z		; operator delete
  00008	59		 pop	 ecx
  00009	c3		 ret	 0
__ehhandler$?Clone@ioEngineerItem@@UAEPAVioItem@@XZ:
  0000a	8b 54 24 08	 mov	 edx, DWORD PTR [esp+8]
  0000e	8d 42 0c	 lea	 eax, DWORD PTR [edx+12]
  00011	8b 4a ec	 mov	 ecx, DWORD PTR [edx-20]
  00014	33 c8		 xor	 ecx, eax
  00016	e8 00 00 00 00	 call	 @__security_check_cookie@4
  0001b	b8 00 00 00 00	 mov	 eax, OFFSET __ehfuncinfo$?Clone@ioEngineerItem@@UAEPAVioItem@@XZ
  00020	e9 00 00 00 00	 jmp	 ___CxxFrameHandler3
text$x	ENDS
?Clone@ioEngineerItem@@UAEPAVioItem@@XZ ENDP		; ioEngineerItem::Clone
PUBLIC	?push_back@?$vector@VioHashString@@V?$allocator@VioHashString@@@std@@@std@@QAEX$$QAVioHashString@@@Z ; std::vector<ioHashString,std::allocator<ioHashString> >::push_back
; Function compile flags: /Ogsp
; File c:\program files (x86)\microsoft visual studio 10.0\vc\include\vector
;	COMDAT ?push_back@?$vector@VioHashString@@V?$allocator@VioHashString@@@std@@@std@@QAEX$$QAVioHashString@@@Z
_TEXT	SEGMENT
__Val$ = 8						; size = 4
?push_back@?$vector@VioHashString@@V?$allocator@VioHashString@@@std@@@std@@QAEX$$QAVioHashString@@@Z PROC ; std::vector<ioHashString,std::allocator<ioHashString> >::push_back, COMDAT
; _this$ = ecx

; 631  : 		{	// insert element at end

  00000	55		 push	 ebp
  00001	8b ec		 mov	 ebp, esp
  00003	56		 push	 esi
  00004	8b f1		 mov	 esi, ecx

; 632  : 		if (_Inside(_STD addressof(_Val)))

  00006	8b 46 04	 mov	 eax, DWORD PTR [esi+4]
  00009	57		 push	 edi
  0000a	8b 7d 08	 mov	 edi, DWORD PTR __Val$[ebp]
  0000d	3b f8		 cmp	 edi, eax
  0000f	73 1d		 jae	 SHORT $LN4@push_back
  00011	8b 0e		 mov	 ecx, DWORD PTR [esi]
  00013	3b cf		 cmp	 ecx, edi
  00015	77 17		 ja	 SHORT $LN4@push_back

; 633  : 			{	// push back an element
; 634  : 			size_type _Idx = _STD addressof(_Val) - this->_Myfirst;

  00017	2b f9		 sub	 edi, ecx

; 635  : 			if (this->_Mylast == this->_Myend)

  00019	3b 46 08	 cmp	 eax, DWORD PTR [esi+8]
  0001c	75 09		 jne	 SHORT $LN3@push_back

; 636  : 				_Reserve(1);

  0001e	6a 01		 push	 1
  00020	8b ce		 mov	 ecx, esi
  00022	e8 00 00 00 00	 call	 ?_Reserve@?$vector@VioHashString@@V?$allocator@VioHashString@@@std@@@std@@IAEXI@Z ; std::vector<ioHashString,std::allocator<ioHashString> >::_Reserve
$LN3@push_back:

; 637  : 			_Orphan_range(this->_Mylast, this->_Mylast);
; 638  : 			_Cons_val(this->_Alval,
; 639  : 				this->_Mylast,
; 640  : 				_STD forward<_Ty>(this->_Myfirst[_Idx]));

  00027	83 e7 f0	 and	 edi, -16		; fffffff0H
  0002a	03 3e		 add	 edi, DWORD PTR [esi]

; 641  : 			++this->_Mylast;
; 642  : 			}
; 643  : 		else

  0002c	eb 0e		 jmp	 SHORT $LN1@push_back
$LN4@push_back:

; 644  : 			{	// push back a non-element
; 645  : 			if (this->_Mylast == this->_Myend)

  0002e	3b 46 08	 cmp	 eax, DWORD PTR [esi+8]
  00031	75 09		 jne	 SHORT $LN1@push_back

; 646  : 				_Reserve(1);

  00033	6a 01		 push	 1
  00035	8b ce		 mov	 ecx, esi
  00037	e8 00 00 00 00	 call	 ?_Reserve@?$vector@VioHashString@@V?$allocator@VioHashString@@@std@@@std@@IAEXI@Z ; std::vector<ioHashString,std::allocator<ioHashString> >::_Reserve
$LN1@push_back:

; 647  : 			_Orphan_range(this->_Mylast, this->_Mylast);
; 648  : 			_Cons_val(this->_Alval,
; 649  : 				this->_Mylast,
; 650  : 				_STD forward<_Ty>(_Val));

  0003c	57		 push	 edi
  0003d	ff 76 04	 push	 DWORD PTR [esi+4]
  00040	8d 4e 0c	 lea	 ecx, DWORD PTR [esi+12]
  00043	e8 00 00 00 00	 call	 ?construct@?$allocator@VioHashString@@@std@@QAEXPAVioHashString@@$$QAV3@@Z ; std::allocator<ioHashString>::construct

; 651  : 			++this->_Mylast;

  00048	83 46 04 10	 add	 DWORD PTR [esi+4], 16	; 00000010H
  0004c	5f		 pop	 edi
  0004d	5e		 pop	 esi

; 652  : 			}
; 653  : 		}

  0004e	5d		 pop	 ebp
  0004f	c2 04 00	 ret	 4
?push_back@?$vector@VioHashString@@V?$allocator@VioHashString@@@std@@@std@@QAEX$$QAVioHashString@@@Z ENDP ; std::vector<ioHashString,std::allocator<ioHashString> >::push_back
_TEXT	ENDS
PUBLIC	?push_back@?$vector@UGroupDummyInfo@@V?$allocator@UGroupDummyInfo@@@std@@@std@@QAEXABUGroupDummyInfo@@@Z ; std::vector<GroupDummyInfo,std::allocator<GroupDummyInfo> >::push_back
; Function compile flags: /Ogsp
;	COMDAT ?push_back@?$vector@UGroupDummyInfo@@V?$allocator@UGroupDummyInfo@@@std@@@std@@QAEXABUGroupDummyInfo@@@Z
_TEXT	SEGMENT
__Val$ = 8						; size = 4
?push_back@?$vector@UGroupDummyInfo@@V?$allocator@UGroupDummyInfo@@@std@@@std@@QAEXABUGroupDummyInfo@@@Z PROC ; std::vector<GroupDummyInfo,std::allocator<GroupDummyInfo> >::push_back, COMDAT
; _this$ = ecx

; 976  : 		{	// insert element at end

  00000	55		 push	 ebp
  00001	8b ec		 mov	 ebp, esp
  00003	56		 push	 esi
  00004	8b f1		 mov	 esi, ecx

; 977  : 		if (_Inside(_STD addressof(_Val)))

  00006	8b 4e 04	 mov	 ecx, DWORD PTR [esi+4]
  00009	57		 push	 edi
  0000a	8b 7d 08	 mov	 edi, DWORD PTR __Val$[ebp]
  0000d	3b f9		 cmp	 edi, ecx
  0000f	73 33		 jae	 SHORT $LN4@push_back@2
  00011	8b 16		 mov	 edx, DWORD PTR [esi]
  00013	3b d7		 cmp	 edx, edi
  00015	77 2d		 ja	 SHORT $LN4@push_back@2

; 978  : 			{	// push back an element
; 979  : 			size_type _Idx = _STD addressof(_Val) - this->_Myfirst;

  00017	8b c7		 mov	 eax, edi
  00019	2b c2		 sub	 eax, edx
  0001b	6a 14		 push	 20			; 00000014H
  0001d	99		 cdq
  0001e	5f		 pop	 edi
  0001f	f7 ff		 idiv	 edi
  00021	8b f8		 mov	 edi, eax

; 980  : 			if (this->_Mylast == this->_Myend)

  00023	3b 4e 08	 cmp	 ecx, DWORD PTR [esi+8]
  00026	75 09		 jne	 SHORT $LN3@push_back@2

; 981  : 				_Reserve(1);

  00028	6a 01		 push	 1
  0002a	8b ce		 mov	 ecx, esi
  0002c	e8 00 00 00 00	 call	 ?_Reserve@?$vector@UGroupDummyInfo@@V?$allocator@UGroupDummyInfo@@@std@@@std@@IAEXI@Z ; std::vector<GroupDummyInfo,std::allocator<GroupDummyInfo> >::_Reserve
$LN3@push_back@2:

; 982  : 			_Orphan_range(this->_Mylast, this->_Mylast);
; 983  : 			_Cons_val(this->_Alval,
; 984  : 				this->_Mylast,
; 985  : 				this->_Myfirst[_Idx]);

  00031	6b ff 14	 imul	 edi, 20			; 00000014H
  00034	03 3e		 add	 edi, DWORD PTR [esi]
  00036	8d 4e 0c	 lea	 ecx, DWORD PTR [esi+12]
  00039	57		 push	 edi
  0003a	ff 76 04	 push	 DWORD PTR [esi+4]
  0003d	e8 00 00 00 00	 call	 ??$construct@AAUGroupDummyInfo@@@?$allocator@UGroupDummyInfo@@@std@@QAEXPAUGroupDummyInfo@@AAU2@@Z ; std::allocator<GroupDummyInfo>::construct<GroupDummyInfo &>

; 986  : 			++this->_Mylast;
; 987  : 			}
; 988  : 		else

  00042	eb 19		 jmp	 SHORT $LN30@push_back@2
$LN4@push_back@2:

; 989  : 			{	// push back a non-element
; 990  : 			if (this->_Mylast == this->_Myend)

  00044	3b 4e 08	 cmp	 ecx, DWORD PTR [esi+8]
  00047	75 09		 jne	 SHORT $LN1@push_back@2

; 991  : 				_Reserve(1);

  00049	6a 01		 push	 1
  0004b	8b ce		 mov	 ecx, esi
  0004d	e8 00 00 00 00	 call	 ?_Reserve@?$vector@UGroupDummyInfo@@V?$allocator@UGroupDummyInfo@@@std@@@std@@IAEXI@Z ; std::vector<GroupDummyInfo,std::allocator<GroupDummyInfo> >::_Reserve
$LN1@push_back@2:

; 992  : 			_Orphan_range(this->_Mylast, this->_Mylast);
; 993  : 			_Cons_val(this->_Alval,
; 994  : 				this->_Mylast,
; 995  : 				_Val);

  00052	57		 push	 edi
  00053	ff 76 04	 push	 DWORD PTR [esi+4]
  00056	e8 00 00 00 00	 call	 ??$_Construct@UGroupDummyInfo@@ABU1@@std@@YAXPAUGroupDummyInfo@@ABU1@@Z ; std::_Construct<GroupDummyInfo,GroupDummyInfo const &>
  0005b	59		 pop	 ecx
  0005c	59		 pop	 ecx
$LN30@push_back@2:

; 996  : 			++this->_Mylast;

  0005d	83 46 04 14	 add	 DWORD PTR [esi+4], 20	; 00000014H
  00061	5f		 pop	 edi
  00062	5e		 pop	 esi

; 997  : 			}
; 998  : 		}

  00063	5d		 pop	 ebp
  00064	c2 04 00	 ret	 4
?push_back@?$vector@UGroupDummyInfo@@V?$allocator@UGroupDummyInfo@@@std@@@std@@QAEXABUGroupDummyInfo@@@Z ENDP ; std::vector<GroupDummyInfo,std::allocator<GroupDummyInfo> >::push_back
; Function compile flags: /Ogsp
_TEXT	ENDS
;	COMDAT ??_GioEngineerItem@@UAEPAXI@Z
_TEXT	SEGMENT
___flags$ = 8						; size = 4
??_GioEngineerItem@@UAEPAXI@Z PROC			; ioEngineerItem::`scalar deleting destructor', COMDAT
; _this$ = ecx
  00000	55		 push	 ebp
  00001	8b ec		 mov	 ebp, esp
  00003	56		 push	 esi
  00004	8b f1		 mov	 esi, ecx
  00006	e8 00 00 00 00	 call	 ??1ioEngineerItem@@UAE@XZ ; ioEngineerItem::~ioEngineerItem
  0000b	f6 45 08 01	 test	 BYTE PTR ___flags$[ebp], 1
  0000f	74 07		 je	 SHORT $LN1@scalar@5
  00011	56		 push	 esi
  00012	e8 00 00 00 00	 call	 ??3@YAXPAX@Z		; operator delete
  00017	59		 pop	 ecx
$LN1@scalar@5:
  00018	8b c6		 mov	 eax, esi
  0001a	5e		 pop	 esi
  0001b	5d		 pop	 ebp
  0001c	c2 04 00	 ret	 4
??_GioEngineerItem@@UAEPAXI@Z ENDP			; ioEngineerItem::`scalar deleting destructor'
_TEXT	ENDS
PUBLIC	??_C@_00CNPNBAHC@?$AA@				; `string'
PUBLIC	_rkLoader$GSCopy$
PUBLIC	_this$GSCopy$
EXTRN	__imp_??4ioHashString@@QAEAAV0@PBD@Z:PROC
EXTRN	__imp__wsprintfA:PROC
EXTRN	?LoadProperty@ioWeaponItem@@UAEXAAVioINILoader@@@Z:PROC ; ioWeaponItem::LoadProperty
;	COMDAT ??_C@_00CNPNBAHC@?$AA@
; File d:\lost saga for developer\youtube\tutorial\source\src\lsclient\stringprotect.h
CONST	SEGMENT
??_C@_00CNPNBAHC@?$AA@ DB 00H				; `string'
CONST	ENDS
;	COMDAT xdata$x
xdata$x	SEGMENT
__unwindtable$?LoadProperty@ioEngineerItem@@UAEXAAVioINILoader@@@Z DD 0ffffffffH
	DD	FLAT:__unwindfunclet$?LoadProperty@ioEngineerItem@@UAEXAAVioINILoader@@@Z$0
	DD	0ffffffffH
	DD	FLAT:__unwindfunclet$?LoadProperty@ioEngineerItem@@UAEXAAVioINILoader@@@Z$1
__ehfuncinfo$?LoadProperty@ioEngineerItem@@UAEXAAVioINILoader@@@Z DD 019930522H
	DD	02H
	DD	FLAT:__unwindtable$?LoadProperty@ioEngineerItem@@UAEXAAVioINILoader@@@Z
	DD	2 DUP(00H)
	DD	2 DUP(00H)
	DD	00H
	DD	01H
; Function compile flags: /Ogsp
; File d:\lost saga for developer\youtube\tutorial\source\src\lsclient\ioengineeritem.cpp
xdata$x	ENDS
;	COMDAT ?LoadProperty@ioEngineerItem@@UAEXAAVioINILoader@@@Z
_TEXT	SEGMENT
_iPreCount$ = -660					; size = 4
_this$GSCopy$ = -656					; size = 4
tv7132 = -652						; size = 4
tv3564 = -652						; size = 4
_value$558194 = -652					; size = 4
_rkLoader$GSCopy$ = -648				; size = 4
tv9030 = -644						; size = 4
_i$558449 = -644					; size = 4
_szKey$ = -640						; size = 260
_szBuf$ = -380						; size = 260
__k$558880 = -120					; size = 27
___encStr$549993 = -88					; size = 26
___encStr$549841 = -84					; size = 20
$T558063 = -76						; size = 16
__k$558782 = -56					; size = 33
__k$558643 = -52					; size = 28
__k$558349 = -44					; size = 18
__k$558224 = -44					; size = 20
__k$558486 = -40					; size = 17
__k$558081 = -40					; size = 17
_Info$549837 = -40					; size = 20
___encStr$549676 = -40					; size = 16
__$EHRec$ = -12						; size = 12
_rkLoader$ = 8						; size = 4
?LoadProperty@ioEngineerItem@@UAEXAAVioINILoader@@@Z PROC ; ioEngineerItem::LoadProperty, COMDAT
; _this$ = ecx

; 53   : {

  00000	68 88 02 00 00	 push	 648			; 00000288H
  00005	b8 00 00 00 00	 mov	 eax, __ehhandler$?LoadProperty@ioEngineerItem@@UAEXAAVioINILoader@@@Z
  0000a	e8 00 00 00 00	 call	 __EH_prolog3_GS
  0000f	8b 7d 08	 mov	 edi, DWORD PTR _rkLoader$[ebp]
  00012	8b f1		 mov	 esi, ecx

; 54   : 	ioWeaponItem::LoadProperty( rkLoader );

  00014	57		 push	 edi

; 84   : 
; 85   : 	//Make
; 86   : 	rkLoader.LoadString_e( "turret_dummy_make_animation", "", szBuf, MAX_PATH );

  00015	89 b5 70 fd ff
	ff		 mov	 DWORD PTR _this$GSCopy$[ebp], esi
  0001b	89 bd 78 fd ff
	ff		 mov	 DWORD PTR _rkLoader$GSCopy$[ebp], edi
  00021	e8 00 00 00 00	 call	 ?LoadProperty@ioWeaponItem@@UAEXAAVioINILoader@@@Z ; ioWeaponItem::LoadProperty
  00026	33 db		 xor	 ebx, ebx
  00028	6a 04		 push	 4
  0002a	c7 45 d8 83 89
	8e 8e		 mov	 DWORD PTR __k$558081[ebp], -1903261309 ; 8e8e8983H
  00031	c7 45 dc b2 89
	93 9e		 mov	 DWORD PTR __k$558081[ebp+4], -1634498126 ; 9e9389b2H
  00038	c7 45 e0 9f 8d
	b4 8d		 mov	 DWORD PTR __k$558081[ebp+8], -1917547105 ; 8db48d9fH
  0003f	c7 45 e4 8c 99
	8c 8f		 mov	 DWORD PTR __k$558081[ebp+12], -1886611060 ; 8f8c998cH
  00046	8d 45 d8	 lea	 eax, DWORD PTR __k$558081[ebp]
  00049	88 5d e8	 mov	 BYTE PTR __k$558081[ebp+16], bl
  0004c	59		 pop	 ecx
$LL411@LoadProper:

; 55   : 
; 56   : 	char szBuf[MAX_PATH];
; 57   : 	char szKey[MAX_PATH];
; 58   : 
; 59   : 	m_fNeedGauge			= rkLoader.LoadFloat_e( "need_extra_gauge", 0.0f );

  0004d	81 30 ed ec eb
	ea		 xor	 DWORD PTR [eax], -353637139 ; eaebecedH
  00053	83 c0 04	 add	 eax, 4
  00056	49		 dec	 ecx
  00057	75 f4		 jne	 SHORT $LL411@LoadProper
  00059	0f 57 c0	 xorps	 xmm0, xmm0
  0005c	51		 push	 ecx
  0005d	8d 45 d8	 lea	 eax, DWORD PTR __k$558081[ebp]
  00060	f3 0f 11 04 24	 movss	 DWORD PTR [esp], xmm0
  00065	50		 push	 eax
  00066	8b cf		 mov	 ecx, edi
  00068	ff 15 00 00 00
	00		 call	 DWORD PTR __imp_?LoadFloat@ioINILoader@@QAEMPBDM@Z
  0006e	d9 9d 74 fd ff
	ff		 fstp	 DWORD PTR _value$558194[ebp]
  00074	8d 85 74 fd ff
	ff		 lea	 eax, DWORD PTR _value$558194[ebp]
  0007a	50		 push	 eax
  0007b	8d 8e 60 19 00
	00		 lea	 ecx, DWORD PTR [esi+6496]
  00081	e8 00 00 00 00	 call	 ?EncryptValueToPool@?$CEncrypt@M@@AAEXPBD@Z ; CEncrypt<float>::EncryptValueToPool
  00086	6a 04		 push	 4

; 60   : 	m_fTurretSetupOffset	= rkLoader.LoadFloat_e( "turret_setup_offset", 0.0f );

  00088	c7 45 d4 99 99
	99 98		 mov	 DWORD PTR __k$558224[ebp], -1734764135 ; 98999999H
  0008f	c7 45 d8 88 98
	b4 99		 mov	 DWORD PTR __k$558224[ebp+4], -1716217720 ; 99b49888H
  00096	c7 45 dc 88 98
	9e 9a		 mov	 DWORD PTR __k$558224[ebp+8], -1700882296 ; 9a9e9888H
  0009d	c7 45 e0 b2 83
	8d 8c		 mov	 DWORD PTR __k$558224[ebp+12], -1936882766 ; 8c8d83b2H
  000a4	8d 45 d4	 lea	 eax, DWORD PTR __k$558224[ebp]
  000a7	c7 45 e4 9e 89
	9f 00		 mov	 DWORD PTR __k$558224[ebp+16], 10455454 ; 009f899eH
  000ae	59		 pop	 ecx
$LL519@LoadProper:
  000af	81 30 ed ec eb
	ea		 xor	 DWORD PTR [eax], -353637139 ; eaebecedH
  000b5	83 c0 04	 add	 eax, 4
  000b8	49		 dec	 ecx
  000b9	75 f4		 jne	 SHORT $LL519@LoadProper
  000bb	6a 10		 push	 16			; 00000010H
  000bd	58		 pop	 eax
$LL516@LoadProper:
  000be	8b c8		 mov	 ecx, eax
  000c0	81 e1 03 00 00
	80		 and	 ecx, -2147483645	; 80000003H
  000c6	79 05		 jns	 SHORT $LN1129@LoadProper
  000c8	49		 dec	 ecx
  000c9	83 c9 fc	 or	 ecx, -4			; fffffffcH
  000cc	41		 inc	 ecx
$LN1129@LoadProper:
  000cd	b2 ed		 mov	 dl, -19			; ffffffedH
  000cf	2a d1		 sub	 dl, cl
  000d1	30 54 05 d4	 xor	 BYTE PTR __k$558224[ebp+eax], dl
  000d5	40		 inc	 eax
  000d6	83 f8 13	 cmp	 eax, 19			; 00000013H
  000d9	7c e3		 jl	 SHORT $LL516@LoadProper
  000db	0f 57 c0	 xorps	 xmm0, xmm0
  000de	51		 push	 ecx
  000df	8d 45 d4	 lea	 eax, DWORD PTR __k$558224[ebp]
  000e2	f3 0f 11 04 24	 movss	 DWORD PTR [esp], xmm0
  000e7	50		 push	 eax
  000e8	8b cf		 mov	 ecx, edi
  000ea	ff 15 00 00 00
	00		 call	 DWORD PTR __imp_?LoadFloat@ioINILoader@@QAEMPBDM@Z
  000f0	d9 9e cc 19 00
	00		 fstp	 DWORD PTR [esi+6604]
  000f6	6a 04		 push	 4

; 61   : 
; 62   : 	int iPreCount = rkLoader.LoadInt_e( "pre_animation_cnt", 0 );

  000f8	c7 45 d4 9d 9e
	8e b5		 mov	 DWORD PTR __k$558349[ebp], -1248944483 ; b58e9e9dH
  000ff	c7 45 d8 8c 82
	82 87		 mov	 DWORD PTR __k$558349[ebp+4], -2021490036 ; 8782828cH
  00106	c7 45 dc 8c 98
	82 85		 mov	 DWORD PTR __k$558349[ebp+8], -2055038836 ; 8582988cH
  0010d	c7 45 e0 83 b3
	88 84		 mov	 DWORD PTR __k$558349[ebp+12], -2071415933 ; 8488b383H
  00114	8d 45 d4	 lea	 eax, DWORD PTR __k$558349[ebp]
  00117	66 c7 45 e4 99
	00		 mov	 WORD PTR __k$558349[ebp+16], 153 ; 00000099H
  0011d	59		 pop	 ecx
$LL625@LoadProper:
  0011e	81 30 ed ec eb
	ea		 xor	 DWORD PTR [eax], -353637139 ; eaebecedH
  00124	83 c0 04	 add	 eax, 4
  00127	49		 dec	 ecx
  00128	75 f4		 jne	 SHORT $LL625@LoadProper
  0012a	80 75 e4 ed	 xor	 BYTE PTR __k$558349[ebp+16], -19 ; ffffffedH
  0012e	53		 push	 ebx
  0012f	8d 45 d4	 lea	 eax, DWORD PTR __k$558349[ebp]
  00132	50		 push	 eax
  00133	8b cf		 mov	 ecx, edi
  00135	ff 15 00 00 00
	00		 call	 DWORD PTR __imp_?LoadInt@ioINILoader@@QAEHPBDH@Z

; 63   : 	for( int i = 0; i < iPreCount; ++i )

  0013b	8b 35 00 00 00
	00		 mov	 esi, DWORD PTR __imp_?LoadStringA@ioINILoader@@QAEXPBD0PADH@Z
  00141	33 c9		 xor	 ecx, ecx
  00143	89 85 6c fd ff
	ff		 mov	 DWORD PTR _iPreCount$[ebp], eax
  00149	bf 00 00 00 00	 mov	 edi, OFFSET ??_C@_00CNPNBAHC@?$AA@
  0014e	3b c3		 cmp	 eax, ebx
  00150	0f 8e e5 00 00
	00		 jle	 $LN301@LoadProper
$LL303@LoadProper:

; 61   : 
; 62   : 	int iPreCount = rkLoader.LoadInt_e( "pre_animation_cnt", 0 );

  00156	6a 03		 push	 3

; 64   : 	{
; 65   : 		wsprintf_e( szKey, "pre_animation%d", i+1 );

  00158	c7 45 d8 9d 9e
	8e b5		 mov	 DWORD PTR ___encStr$549676[ebp], -1248944483 ; b58e9e9dH
  0015f	c7 45 dc 8c 82
	82 87		 mov	 DWORD PTR ___encStr$549676[ebp+4], -2021490036 ; 8782828cH
  00166	c7 45 e0 8c 98
	82 85		 mov	 DWORD PTR ___encStr$549676[ebp+8], -2055038836 ; 8582988cH
  0016d	8d 45 d8	 lea	 eax, DWORD PTR ___encStr$549676[ebp]
  00170	c7 45 e4 83 c9
	8f 00		 mov	 DWORD PTR ___encStr$549676[ebp+12], 9423235 ; 008fc983H
  00177	5a		 pop	 edx
$LL633@LoadProper:
  00178	81 30 ed ec eb
	ea		 xor	 DWORD PTR [eax], -353637139 ; eaebecedH
  0017e	83 c0 04	 add	 eax, 4
  00181	4a		 dec	 edx
  00182	75 f4		 jne	 SHORT $LL633@LoadProper
  00184	c7 85 7c fd ff
	ff 0c 00 00 00	 mov	 DWORD PTR _i$558449[ebp], 12 ; 0000000cH
$LL630@LoadProper:
  0018e	8b 85 7c fd ff
	ff		 mov	 eax, DWORD PTR _i$558449[ebp]
  00194	25 03 00 00 80	 and	 eax, -2147483645	; 80000003H
  00199	79 05		 jns	 SHORT $LN1130@LoadProper
  0019b	48		 dec	 eax
  0019c	83 c8 fc	 or	 eax, -4			; fffffffcH
  0019f	40		 inc	 eax
$LN1130@LoadProper:
  001a0	b2 ed		 mov	 dl, -19			; ffffffedH
  001a2	2a d0		 sub	 dl, al
  001a4	8b 85 7c fd ff
	ff		 mov	 eax, DWORD PTR _i$558449[ebp]
  001aa	30 54 05 d8	 xor	 BYTE PTR ___encStr$549676[ebp+eax], dl
  001ae	ff 85 7c fd ff
	ff		 inc	 DWORD PTR _i$558449[ebp]
  001b4	83 bd 7c fd ff
	ff 0f		 cmp	 DWORD PTR _i$558449[ebp], 15 ; 0000000fH
  001bb	7c d1		 jl	 SHORT $LL630@LoadProper
  001bd	8d 41 01	 lea	 eax, DWORD PTR [ecx+1]
  001c0	50		 push	 eax
  001c1	89 85 74 fd ff
	ff		 mov	 DWORD PTR tv7132[ebp], eax
  001c7	8d 45 d8	 lea	 eax, DWORD PTR ___encStr$549676[ebp]
  001ca	50		 push	 eax
  001cb	8d 85 80 fd ff
	ff		 lea	 eax, DWORD PTR _szKey$[ebp]
  001d1	50		 push	 eax
  001d2	ff 15 00 00 00
	00		 call	 DWORD PTR __imp__wsprintfA

; 66   : 		rkLoader.LoadString( szKey, "", szBuf, MAX_PATH );

  001d8	8b 8d 78 fd ff
	ff		 mov	 ecx, DWORD PTR _rkLoader$GSCopy$[ebp]
  001de	83 c4 0c	 add	 esp, 12			; 0000000cH
  001e1	68 04 01 00 00	 push	 260			; 00000104H
  001e6	8d 85 84 fe ff
	ff		 lea	 eax, DWORD PTR _szBuf$[ebp]
  001ec	50		 push	 eax
  001ed	57		 push	 edi
  001ee	8d 85 80 fd ff
	ff		 lea	 eax, DWORD PTR _szKey$[ebp]
  001f4	50		 push	 eax
  001f5	ff d6		 call	 esi

; 67   : 		m_PreAnimationList.push_back( ioHashString( szBuf ) );

  001f7	8d 85 84 fe ff
	ff		 lea	 eax, DWORD PTR _szBuf$[ebp]
  001fd	50		 push	 eax
  001fe	8d 4d b4	 lea	 ecx, DWORD PTR $T558063[ebp]
  00201	ff 15 00 00 00
	00		 call	 DWORD PTR __imp_??0ioHashString@@QAE@PBD@Z
  00207	8b 8d 70 fd ff
	ff		 mov	 ecx, DWORD PTR _this$GSCopy$[ebp]
  0020d	50		 push	 eax
  0020e	81 c1 90 19 00
	00		 add	 ecx, 6544		; 00001990H
  00214	89 5d fc	 mov	 DWORD PTR __$EHRec$[ebp+8], ebx
  00217	e8 00 00 00 00	 call	 ?push_back@?$vector@VioHashString@@V?$allocator@VioHashString@@@std@@@std@@QAEX$$QAVioHashString@@@Z ; std::vector<ioHashString,std::allocator<ioHashString> >::push_back
  0021c	83 4d fc ff	 or	 DWORD PTR __$EHRec$[ebp+8], -1
  00220	8d 4d b4	 lea	 ecx, DWORD PTR $T558063[ebp]
  00223	ff 15 00 00 00
	00		 call	 DWORD PTR __imp_??1ioHashString@@QAE@XZ
  00229	8b 8d 74 fd ff
	ff		 mov	 ecx, DWORD PTR tv7132[ebp]
  0022f	3b 8d 6c fd ff
	ff		 cmp	 ecx, DWORD PTR _iPreCount$[ebp]
  00235	0f 8c 1b ff ff
	ff		 jl	 $LL303@LoadProper
$LN301@LoadProper:

; 68   : 	}
; 69   : 
; 70   : 	//Dummy
; 71   : 	int iDummyCount = rkLoader.LoadInt_e( "turret_dummy_cnt", 0 );

  0023b	6a 04		 push	 4
  0023d	c7 45 d8 99 99
	99 98		 mov	 DWORD PTR __k$558486[ebp], -1734764135 ; 98999999H
  00244	c7 45 dc 88 98
	b4 8e		 mov	 DWORD PTR __k$558486[ebp+4], -1900767096 ; 8eb49888H
  0024b	c7 45 e0 98 81
	86 93		 mov	 DWORD PTR __k$558486[ebp+8], -1819901544 ; 93868198H
  00252	c7 45 e4 b2 8f
	85 9e		 mov	 DWORD PTR __k$558486[ebp+12], -1635414094 ; 9e858fb2H
  00259	8d 45 d8	 lea	 eax, DWORD PTR __k$558486[ebp]
  0025c	88 5d e8	 mov	 BYTE PTR __k$558486[ebp+16], bl
  0025f	59		 pop	 ecx
$LL739@LoadProper:
  00260	81 30 ed ec eb
	ea		 xor	 DWORD PTR [eax], -353637139 ; eaebecedH
  00266	83 c0 04	 add	 eax, 4
  00269	49		 dec	 ecx
  0026a	75 f4		 jne	 SHORT $LL739@LoadProper
  0026c	8b 8d 78 fd ff
	ff		 mov	 ecx, DWORD PTR _rkLoader$GSCopy$[ebp]
  00272	53		 push	 ebx
  00273	8d 45 d8	 lea	 eax, DWORD PTR __k$558486[ebp]
  00276	50		 push	 eax
  00277	ff 15 00 00 00
	00		 call	 DWORD PTR __imp_?LoadInt@ioINILoader@@QAEHPBDH@Z

; 72   : 	for( int i = 0; i < iDummyCount; ++i )

  0027d	3b c3		 cmp	 eax, ebx
  0027f	0f 8e 74 01 00
	00		 jle	 $LN199@LoadProper

; 68   : 	}
; 69   : 
; 70   : 	//Dummy
; 71   : 	int iDummyCount = rkLoader.LoadInt_e( "turret_dummy_cnt", 0 );

  00285	c7 85 7c fd ff
	ff 01 00 00 00	 mov	 DWORD PTR tv9030[ebp], 1
  0028f	89 85 74 fd ff
	ff		 mov	 DWORD PTR tv3564[ebp], eax
$LL201@LoadProper:

; 73   : 	{
; 74   : 		GroupDummyInfo Info;

  00295	8d 4d d8	 lea	 ecx, DWORD PTR _Info$549837[ebp]
  00298	ff 15 00 00 00
	00		 call	 DWORD PTR __imp_??0ioHashString@@QAE@XZ
  0029e	0f 57 c0	 xorps	 xmm0, xmm0
  002a1	f3 0f 11 45 e8	 movss	 DWORD PTR _Info$549837[ebp+16], xmm0
  002a6	6a 04		 push	 4
  002a8	c7 45 fc 01 00
	00 00		 mov	 DWORD PTR __$EHRec$[ebp+8], 1

; 75   : 
; 76   : 		wsprintf_e( szKey, "turret_dummy%d_name", i+1 );

  002af	c7 45 ac 99 99
	99 98		 mov	 DWORD PTR ___encStr$549841[ebp], -1734764135 ; 98999999H
  002b6	c7 45 b0 88 98
	b4 8e		 mov	 DWORD PTR ___encStr$549841[ebp+4], -1900767096 ; 8eb49888H
  002bd	c7 45 b4 98 81
	86 93		 mov	 DWORD PTR ___encStr$549841[ebp+8], -1819901544 ; 93868198H
  002c4	c7 45 b8 c8 88
	b4 84		 mov	 DWORD PTR ___encStr$549841[ebp+12], -2068543288 ; 84b488c8H
  002cb	8d 45 ac	 lea	 eax, DWORD PTR ___encStr$549841[ebp]
  002ce	c7 45 bc 8c 81
	8e 00		 mov	 DWORD PTR ___encStr$549841[ebp+16], 9339276 ; 008e818cH
  002d5	59		 pop	 ecx
$LL750@LoadProper:
  002d6	81 30 ed ec eb
	ea		 xor	 DWORD PTR [eax], -353637139 ; eaebecedH
  002dc	83 c0 04	 add	 eax, 4
  002df	49		 dec	 ecx
  002e0	75 f4		 jne	 SHORT $LL750@LoadProper
  002e2	6a 10		 push	 16			; 00000010H
  002e4	58		 pop	 eax
$LL747@LoadProper:
  002e5	8b c8		 mov	 ecx, eax
  002e7	81 e1 03 00 00
	80		 and	 ecx, -2147483645	; 80000003H
  002ed	79 05		 jns	 SHORT $LN1131@LoadProper
  002ef	49		 dec	 ecx
  002f0	83 c9 fc	 or	 ecx, -4			; fffffffcH
  002f3	41		 inc	 ecx
$LN1131@LoadProper:
  002f4	b2 ed		 mov	 dl, -19			; ffffffedH
  002f6	2a d1		 sub	 dl, cl
  002f8	30 54 05 ac	 xor	 BYTE PTR ___encStr$549841[ebp+eax], dl
  002fc	40		 inc	 eax
  002fd	83 f8 13	 cmp	 eax, 19			; 00000013H
  00300	7c e3		 jl	 SHORT $LL747@LoadProper
  00302	ff b5 7c fd ff
	ff		 push	 DWORD PTR tv9030[ebp]
  00308	8d 45 ac	 lea	 eax, DWORD PTR ___encStr$549841[ebp]
  0030b	50		 push	 eax
  0030c	8d 85 80 fd ff
	ff		 lea	 eax, DWORD PTR _szKey$[ebp]
  00312	50		 push	 eax
  00313	ff 15 00 00 00
	00		 call	 DWORD PTR __imp__wsprintfA

; 77   : 		rkLoader.LoadString( szKey, "", szBuf, MAX_PATH );

  00319	8b 8d 78 fd ff
	ff		 mov	 ecx, DWORD PTR _rkLoader$GSCopy$[ebp]
  0031f	83 c4 0c	 add	 esp, 12			; 0000000cH
  00322	68 04 01 00 00	 push	 260			; 00000104H
  00327	8d 85 84 fe ff
	ff		 lea	 eax, DWORD PTR _szBuf$[ebp]
  0032d	50		 push	 eax
  0032e	57		 push	 edi
  0032f	8d 85 80 fd ff
	ff		 lea	 eax, DWORD PTR _szKey$[ebp]
  00335	50		 push	 eax
  00336	ff d6		 call	 esi

; 78   : 		Info.szDummyName = szBuf;

  00338	8d 85 84 fe ff
	ff		 lea	 eax, DWORD PTR _szBuf$[ebp]
  0033e	50		 push	 eax
  0033f	8d 4d d8	 lea	 ecx, DWORD PTR _Info$549837[ebp]
  00342	ff 15 00 00 00
	00		 call	 DWORD PTR __imp_??4ioHashString@@QAEAAV0@PBD@Z
  00348	6a 06		 push	 6

; 79   : 
; 80   : 		wsprintf_e( szKey, "turret_dummy%d_need_gauge", i+1 );

  0034a	c7 45 a8 99 99
	99 98		 mov	 DWORD PTR ___encStr$549993[ebp], -1734764135 ; 98999999H
  00351	c7 45 ac 88 98
	b4 8e		 mov	 DWORD PTR ___encStr$549993[ebp+4], -1900767096 ; 8eb49888H
  00358	c7 45 b0 98 81
	86 93		 mov	 DWORD PTR ___encStr$549993[ebp+8], -1819901544 ; 93868198H
  0035f	c7 45 b4 c8 88
	b4 84		 mov	 DWORD PTR ___encStr$549993[ebp+12], -2068543288 ; 84b488c8H
  00366	c7 45 b8 88 89
	8f b5		 mov	 DWORD PTR ___encStr$549993[ebp+16], -1248884344 ; b58f8988H
  0036d	c7 45 bc 8a 8d
	9e 8d		 mov	 DWORD PTR ___encStr$549993[ebp+20], -1918988918 ; 8d9e8d8aH
  00374	8d 45 a8	 lea	 eax, DWORD PTR ___encStr$549993[ebp]
  00377	66 c7 45 c0 88
	00		 mov	 WORD PTR ___encStr$549993[ebp+24], 136 ; 00000088H
  0037d	59		 pop	 ecx
$LL758@LoadProper:
  0037e	81 30 ed ec eb
	ea		 xor	 DWORD PTR [eax], -353637139 ; eaebecedH
  00384	83 c0 04	 add	 eax, 4
  00387	49		 dec	 ecx
  00388	75 f4		 jne	 SHORT $LL758@LoadProper
  0038a	ff b5 7c fd ff
	ff		 push	 DWORD PTR tv9030[ebp]
  00390	80 75 c0 ed	 xor	 BYTE PTR ___encStr$549993[ebp+24], -19 ; ffffffedH
  00394	8d 45 a8	 lea	 eax, DWORD PTR ___encStr$549993[ebp]
  00397	50		 push	 eax
  00398	8d 85 80 fd ff
	ff		 lea	 eax, DWORD PTR _szKey$[ebp]
  0039e	50		 push	 eax
  0039f	ff 15 00 00 00
	00		 call	 DWORD PTR __imp__wsprintfA

; 81   : 		Info.fNeedGauge = rkLoader.LoadFloat( szKey, 0.0f );

  003a5	0f 57 c0	 xorps	 xmm0, xmm0
  003a8	59		 pop	 ecx
  003a9	59		 pop	 ecx
  003aa	8b 8d 78 fd ff
	ff		 mov	 ecx, DWORD PTR _rkLoader$GSCopy$[ebp]
  003b0	8d 85 80 fd ff
	ff		 lea	 eax, DWORD PTR _szKey$[ebp]
  003b6	f3 0f 11 04 24	 movss	 DWORD PTR [esp], xmm0
  003bb	50		 push	 eax
  003bc	ff 15 00 00 00
	00		 call	 DWORD PTR __imp_?LoadFloat@ioINILoader@@QAEMPBDM@Z
  003c2	d9 5d e8	 fstp	 DWORD PTR _Info$549837[ebp+16]

; 82   : 		m_TurrretDummyInfoList.push_back( Info );

  003c5	8b 8d 70 fd ff
	ff		 mov	 ecx, DWORD PTR _this$GSCopy$[ebp]
  003cb	8d 45 d8	 lea	 eax, DWORD PTR _Info$549837[ebp]
  003ce	50		 push	 eax
  003cf	81 c1 a0 19 00
	00		 add	 ecx, 6560		; 000019a0H
  003d5	e8 00 00 00 00	 call	 ?push_back@?$vector@UGroupDummyInfo@@V?$allocator@UGroupDummyInfo@@@std@@@std@@QAEXABUGroupDummyInfo@@@Z ; std::vector<GroupDummyInfo,std::allocator<GroupDummyInfo> >::push_back

; 83   : 	}

  003da	83 4d fc ff	 or	 DWORD PTR __$EHRec$[ebp+8], -1
  003de	8d 4d d8	 lea	 ecx, DWORD PTR _Info$549837[ebp]
  003e1	ff 15 00 00 00
	00		 call	 DWORD PTR __imp_??1ioHashString@@QAE@XZ
  003e7	ff 85 7c fd ff
	ff		 inc	 DWORD PTR tv9030[ebp]
  003ed	ff 8d 74 fd ff
	ff		 dec	 DWORD PTR tv3564[ebp]
  003f3	0f 85 9c fe ff
	ff		 jne	 $LL201@LoadProper
$LN199@LoadProper:

; 84   : 
; 85   : 	//Make
; 86   : 	rkLoader.LoadString_e( "turret_dummy_make_animation", "", szBuf, MAX_PATH );

  003f9	6a 06		 push	 6
  003fb	c7 45 cc 99 99
	99 98		 mov	 DWORD PTR __k$558643[ebp], -1734764135 ; 98999999H
  00402	c7 45 d0 88 98
	b4 8e		 mov	 DWORD PTR __k$558643[ebp+4], -1900767096 ; 8eb49888H
  00409	c7 45 d4 98 81
	86 93		 mov	 DWORD PTR __k$558643[ebp+8], -1819901544 ; 93868198H
  00410	c7 45 d8 b2 81
	8a 81		 mov	 DWORD PTR __k$558643[ebp+12], -2121629262 ; 818a81b2H
  00417	c7 45 dc 88 b3
	8a 84		 mov	 DWORD PTR __k$558643[ebp+16], -2071284856 ; 848ab388H
  0041e	c7 45 e0 84 81
	8a 9e		 mov	 DWORD PTR __k$558643[ebp+20], -1635090044 ; 9e8a8184H
  00425	8d 45 cc	 lea	 eax, DWORD PTR __k$558643[ebp]
  00428	c7 45 e4 84 83
	85 00		 mov	 DWORD PTR __k$558643[ebp+24], 8749956 ; 00858384H
  0042f	59		 pop	 ecx
$LL867@LoadProper:
  00430	81 30 ed ec eb
	ea		 xor	 DWORD PTR [eax], -353637139 ; eaebecedH
  00436	83 c0 04	 add	 eax, 4
  00439	49		 dec	 ecx
  0043a	75 f4		 jne	 SHORT $LL867@LoadProper
  0043c	6a 18		 push	 24			; 00000018H
  0043e	58		 pop	 eax
$LL864@LoadProper:
  0043f	8b c8		 mov	 ecx, eax
  00441	81 e1 03 00 00
	80		 and	 ecx, -2147483645	; 80000003H
  00447	79 05		 jns	 SHORT $LN1132@LoadProper
  00449	49		 dec	 ecx
  0044a	83 c9 fc	 or	 ecx, -4			; fffffffcH
  0044d	41		 inc	 ecx
$LN1132@LoadProper:
  0044e	b2 ed		 mov	 dl, -19			; ffffffedH
  00450	2a d1		 sub	 dl, cl
  00452	30 54 05 cc	 xor	 BYTE PTR __k$558643[ebp+eax], dl
  00456	40		 inc	 eax
  00457	83 f8 1b	 cmp	 eax, 27			; 0000001bH
  0045a	7c e3		 jl	 SHORT $LL864@LoadProper
  0045c	8b 8d 78 fd ff
	ff		 mov	 ecx, DWORD PTR _rkLoader$GSCopy$[ebp]
  00462	68 04 01 00 00	 push	 260			; 00000104H
  00467	8d 85 84 fe ff
	ff		 lea	 eax, DWORD PTR _szBuf$[ebp]
  0046d	50		 push	 eax
  0046e	57		 push	 edi
  0046f	8d 45 cc	 lea	 eax, DWORD PTR __k$558643[ebp]
  00472	50		 push	 eax
  00473	ff d6		 call	 esi

; 87   : 	m_TurretDummyMakeAnimation = szBuf;

  00475	8b b5 70 fd ff
	ff		 mov	 esi, DWORD PTR _this$GSCopy$[ebp]
  0047b	8d 85 84 fe ff
	ff		 lea	 eax, DWORD PTR _szBuf$[ebp]
  00481	50		 push	 eax
  00482	8d 8e b4 19 00
	00		 lea	 ecx, DWORD PTR [esi+6580]
  00488	ff 15 00 00 00
	00		 call	 DWORD PTR __imp_??4ioHashString@@QAEAAV0@PBD@Z
  0048e	6a 08		 push	 8

; 88   : 	m_fTurretDummyMakeAnimationRate = rkLoader.LoadFloat_e( "turret_dummy_make_animation_rate", 1.0f );

  00490	c7 45 c8 99 99
	99 98		 mov	 DWORD PTR __k$558782[ebp], -1734764135 ; 98999999H
  00497	c7 45 cc 88 98
	b4 8e		 mov	 DWORD PTR __k$558782[ebp+4], -1900767096 ; 8eb49888H
  0049e	c7 45 d0 98 81
	86 93		 mov	 DWORD PTR __k$558782[ebp+8], -1819901544 ; 93868198H
  004a5	c7 45 d4 b2 81
	8a 81		 mov	 DWORD PTR __k$558782[ebp+12], -2121629262 ; 818a81b2H
  004ac	c7 45 d8 88 b3
	8a 84		 mov	 DWORD PTR __k$558782[ebp+16], -2071284856 ; 848ab388H
  004b3	c7 45 dc 84 81
	8a 9e		 mov	 DWORD PTR __k$558782[ebp+20], -1635090044 ; 9e8a8184H
  004ba	c7 45 e0 84 83
	85 b5		 mov	 DWORD PTR __k$558782[ebp+24], -1249541244 ; b5858384H
  004c1	c7 45 e4 9f 8d
	9f 8f		 mov	 DWORD PTR __k$558782[ebp+28], -1885368929 ; 8f9f8d9fH
  004c8	8d 45 c8	 lea	 eax, DWORD PTR __k$558782[ebp]
  004cb	88 5d e8	 mov	 BYTE PTR __k$558782[ebp+32], bl
  004ce	59		 pop	 ecx
$LL973@LoadProper:
  004cf	81 30 ed ec eb
	ea		 xor	 DWORD PTR [eax], -353637139 ; eaebecedH
  004d5	83 c0 04	 add	 eax, 4
  004d8	49		 dec	 ecx
  004d9	75 f4		 jne	 SHORT $LL973@LoadProper
  004db	f3 0f 10 05 00
	00 00 00	 movss	 xmm0, DWORD PTR __real@3f800000
  004e3	51		 push	 ecx
  004e4	8b 8d 78 fd ff
	ff		 mov	 ecx, DWORD PTR _rkLoader$GSCopy$[ebp]
  004ea	8d 45 c8	 lea	 eax, DWORD PTR __k$558782[ebp]
  004ed	f3 0f 11 04 24	 movss	 DWORD PTR [esp], xmm0
  004f2	50		 push	 eax
  004f3	ff 15 00 00 00
	00		 call	 DWORD PTR __imp_?LoadFloat@ioINILoader@@QAEMPBDM@Z
  004f9	d9 9e c4 19 00
	00		 fstp	 DWORD PTR [esi+6596]
  004ff	6a 06		 push	 6

; 89   : 	m_fTurretUpgradeRange			= rkLoader.LoadFloat_e( "turret_dummy_upgrade_range", 100.0f );

  00501	c7 45 88 99 99
	99 98		 mov	 DWORD PTR __k$558880[ebp], -1734764135 ; 98999999H
  00508	c7 45 8c 88 98
	b4 8e		 mov	 DWORD PTR __k$558880[ebp+4], -1900767096 ; 8eb49888H
  0050f	c7 45 90 98 81
	86 93		 mov	 DWORD PTR __k$558880[ebp+8], -1819901544 ; 93868198H
  00516	c7 45 94 b2 99
	9b 8d		 mov	 DWORD PTR __k$558880[ebp+12], -1919182414 ; 8d9b99b2H
  0051d	c7 45 98 9f 8d
	8f 8f		 mov	 DWORD PTR __k$558880[ebp+16], -1886417505 ; 8f8f8d9fH
  00524	c7 45 9c b2 9e
	8a 84		 mov	 DWORD PTR __k$558880[ebp+20], -2071290190 ; 848a9eb2H
  0052b	66 c7 45 a0 8a
	89		 mov	 WORD PTR __k$558880[ebp+24], 35210 ; 0000898aH
  00531	8d 45 88	 lea	 eax, DWORD PTR __k$558880[ebp]
  00534	88 5d a2	 mov	 BYTE PTR __k$558880[ebp+26], bl
  00537	59		 pop	 ecx
$LL1079@LoadProper:
  00538	81 30 ed ec eb
	ea		 xor	 DWORD PTR [eax], -353637139 ; eaebecedH
  0053e	83 c0 04	 add	 eax, 4
  00541	49		 dec	 ecx
  00542	75 f4		 jne	 SHORT $LL1079@LoadProper
  00544	6a 18		 push	 24			; 00000018H
  00546	58		 pop	 eax
$LL1076@LoadProper:
  00547	8b c8		 mov	 ecx, eax
  00549	81 e1 03 00 00
	80		 and	 ecx, -2147483645	; 80000003H
  0054f	79 05		 jns	 SHORT $LN1133@LoadProper
  00551	49		 dec	 ecx
  00552	83 c9 fc	 or	 ecx, -4			; fffffffcH
  00555	41		 inc	 ecx
$LN1133@LoadProper:
  00556	b2 ed		 mov	 dl, -19			; ffffffedH
  00558	2a d1		 sub	 dl, cl
  0055a	30 54 05 88	 xor	 BYTE PTR __k$558880[ebp+eax], dl
  0055e	40		 inc	 eax
  0055f	83 f8 1a	 cmp	 eax, 26			; 0000001aH
  00562	7c e3		 jl	 SHORT $LL1076@LoadProper
  00564	f3 0f 10 05 00
	00 00 00	 movss	 xmm0, DWORD PTR __real@42c80000
  0056c	51		 push	 ecx
  0056d	8b 8d 78 fd ff
	ff		 mov	 ecx, DWORD PTR _rkLoader$GSCopy$[ebp]
  00573	8d 45 88	 lea	 eax, DWORD PTR __k$558880[ebp]
  00576	f3 0f 11 04 24	 movss	 DWORD PTR [esp], xmm0
  0057b	50		 push	 eax
  0057c	ff 15 00 00 00
	00		 call	 DWORD PTR __imp_?LoadFloat@ioINILoader@@QAEMPBDM@Z
  00582	d9 9e c8 19 00
	00		 fstp	 DWORD PTR [esi+6600]

; 90   : }

  00588	e8 00 00 00 00	 call	 __EH_epilog3_GS
  0058d	c2 04 00	 ret	 4
_TEXT	ENDS
;	COMDAT text$x
text$x	SEGMENT
__unwindfunclet$?LoadProperty@ioEngineerItem@@UAEXAAVioINILoader@@@Z$0:
  00000	8d 4d b4	 lea	 ecx, DWORD PTR $T558063[ebp]
  00003	ff 25 00 00 00
	00		 jmp	 DWORD PTR __imp_??1ioHashString@@QAE@XZ
__unwindfunclet$?LoadProperty@ioEngineerItem@@UAEXAAVioINILoader@@@Z$1:
  00009	8d 4d d8	 lea	 ecx, DWORD PTR _Info$549837[ebp]
  0000c	e9 00 00 00 00	 jmp	 ??1GroupDummyInfo@@QAE@XZ
__ehhandler$?LoadProperty@ioEngineerItem@@UAEXAAVioINILoader@@@Z:
  00011	8b 54 24 08	 mov	 edx, DWORD PTR [esp+8]
  00015	8d 42 0c	 lea	 eax, DWORD PTR [edx+12]
  00018	8b 8a 68 fd ff
	ff		 mov	 ecx, DWORD PTR [edx-664]
  0001e	33 c8		 xor	 ecx, eax
  00020	e8 00 00 00 00	 call	 @__security_check_cookie@4
  00025	8b 4a fc	 mov	 ecx, DWORD PTR [edx-4]
  00028	33 c8		 xor	 ecx, eax
  0002a	e8 00 00 00 00	 call	 @__security_check_cookie@4
  0002f	b8 00 00 00 00	 mov	 eax, OFFSET __ehfuncinfo$?LoadProperty@ioEngineerItem@@UAEXAAVioINILoader@@@Z
  00034	e9 00 00 00 00	 jmp	 ___CxxFrameHandler3
text$x	ENDS
?LoadProperty@ioEngineerItem@@UAEXAAVioINILoader@@@Z ENDP ; ioEngineerItem::LoadProperty
END
