; Listing generated by Microsoft (R) Optimizing Compiler Version 16.00.30319.01 

	TITLE	D:\Lost Saga For Developer\Youtube\Tutorial\Source\src\LSClient\ioEtcItemManager.cpp
	.686P
	.XMM
	include listing.inc
	.model	flat

INCLUDELIB MSVCRT
INCLUDELIB OLDNAMES

PUBLIC	?ms_Singleton@?$Singleton@VioEtcItemManager@@@@1PAVioEtcItemManager@@A ; Singleton<ioEtcItemManager>::ms_Singleton
;	COMDAT ?ms_Singleton@?$Singleton@VioEtcItemManager@@@@1PAVioEtcItemManager@@A
_BSS	SEGMENT
?ms_Singleton@?$Singleton@VioEtcItemManager@@@@1PAVioEtcItemManager@@A DD 01H DUP (?) ; Singleton<ioEtcItemManager>::ms_Singleton
_BSS	ENDS
PUBLIC	??1ioINILoader_e@@QAE@XZ			; ioINILoader_e::~ioINILoader_e
EXTRN	__imp_??1ioINILoader@@QAE@XZ:PROC
; Function compile flags: /Ogsp
;	COMDAT ??1ioINILoader_e@@QAE@XZ
_TEXT	SEGMENT
??1ioINILoader_e@@QAE@XZ PROC				; ioINILoader_e::~ioINILoader_e, COMDAT
; _this$ = ecx
  00000	ff 25 00 00 00
	00		 jmp	 DWORD PTR __imp_??1ioINILoader@@QAE@XZ
??1ioINILoader_e@@QAE@XZ ENDP				; ioINILoader_e::~ioINILoader_e
_TEXT	ENDS
PUBLIC	??_7bad_alloc@std@@6B@				; std::bad_alloc::`vftable'
PUBLIC	??0bad_alloc@std@@QAE@PBD@Z			; std::bad_alloc::bad_alloc
PUBLIC	??_R4bad_alloc@std@@6B@				; std::bad_alloc::`RTTI Complete Object Locator'
PUBLIC	??_R0?AVbad_alloc@std@@@8			; std::bad_alloc `RTTI Type Descriptor'
PUBLIC	??_R3bad_alloc@std@@8				; std::bad_alloc::`RTTI Class Hierarchy Descriptor'
PUBLIC	??_R2bad_alloc@std@@8				; std::bad_alloc::`RTTI Base Class Array'
PUBLIC	??_R1A@?0A@EA@bad_alloc@std@@8			; std::bad_alloc::`RTTI Base Class Descriptor at (0,-1,0,64)'
PUBLIC	??_R1A@?0A@EA@exception@std@@8			; std::exception::`RTTI Base Class Descriptor at (0,-1,0,64)'
PUBLIC	??_R0?AVexception@std@@@8			; std::exception `RTTI Type Descriptor'
PUBLIC	??_R3exception@std@@8				; std::exception::`RTTI Class Hierarchy Descriptor'
PUBLIC	??_R2exception@std@@8				; std::exception::`RTTI Base Class Array'
EXTRN	__imp_??0exception@std@@QAE@ABQBD@Z:PROC
EXTRN	??_7type_info@@6B@:QWORD			; type_info::`vftable'
EXTRN	??_Ebad_alloc@std@@UAEPAXI@Z:PROC		; std::bad_alloc::`vector deleting destructor'
EXTRN	?what@exception@std@@UBEPBDXZ:PROC		; std::exception::what
;	COMDAT ??_R2exception@std@@8
; File c:\program files (x86)\microsoft visual studio 10.0\vc\include\exception
rdata$r	SEGMENT
??_R2exception@std@@8 DD FLAT:??_R1A@?0A@EA@exception@std@@8 ; std::exception::`RTTI Base Class Array'
rdata$r	ENDS
;	COMDAT ??_R3exception@std@@8
rdata$r	SEGMENT
??_R3exception@std@@8 DD 00H				; std::exception::`RTTI Class Hierarchy Descriptor'
	DD	00H
	DD	01H
	DD	FLAT:??_R2exception@std@@8
rdata$r	ENDS
;	COMDAT ??_R0?AVexception@std@@@8
_DATA	SEGMENT
??_R0?AVexception@std@@@8 DD FLAT:??_7type_info@@6B@	; std::exception `RTTI Type Descriptor'
	DD	00H
	DB	'.?AVexception@std@@', 00H
_DATA	ENDS
;	COMDAT ??_R1A@?0A@EA@exception@std@@8
rdata$r	SEGMENT
??_R1A@?0A@EA@exception@std@@8 DD FLAT:??_R0?AVexception@std@@@8 ; std::exception::`RTTI Base Class Descriptor at (0,-1,0,64)'
	DD	00H
	DD	00H
	DD	0ffffffffH
	DD	00H
	DD	040H
	DD	FLAT:??_R3exception@std@@8
rdata$r	ENDS
;	COMDAT ??_R1A@?0A@EA@bad_alloc@std@@8
rdata$r	SEGMENT
??_R1A@?0A@EA@bad_alloc@std@@8 DD FLAT:??_R0?AVbad_alloc@std@@@8 ; std::bad_alloc::`RTTI Base Class Descriptor at (0,-1,0,64)'
	DD	01H
	DD	00H
	DD	0ffffffffH
	DD	00H
	DD	040H
	DD	FLAT:??_R3bad_alloc@std@@8
rdata$r	ENDS
;	COMDAT ??_R2bad_alloc@std@@8
rdata$r	SEGMENT
??_R2bad_alloc@std@@8 DD FLAT:??_R1A@?0A@EA@bad_alloc@std@@8 ; std::bad_alloc::`RTTI Base Class Array'
	DD	FLAT:??_R1A@?0A@EA@exception@std@@8
rdata$r	ENDS
;	COMDAT ??_R3bad_alloc@std@@8
rdata$r	SEGMENT
??_R3bad_alloc@std@@8 DD 00H				; std::bad_alloc::`RTTI Class Hierarchy Descriptor'
	DD	00H
	DD	02H
	DD	FLAT:??_R2bad_alloc@std@@8
rdata$r	ENDS
;	COMDAT ??_R0?AVbad_alloc@std@@@8
_DATA	SEGMENT
??_R0?AVbad_alloc@std@@@8 DD FLAT:??_7type_info@@6B@	; std::bad_alloc `RTTI Type Descriptor'
	DD	00H
	DB	'.?AVbad_alloc@std@@', 00H
_DATA	ENDS
;	COMDAT ??_R4bad_alloc@std@@6B@
rdata$r	SEGMENT
??_R4bad_alloc@std@@6B@ DD 00H				; std::bad_alloc::`RTTI Complete Object Locator'
	DD	00H
	DD	00H
	DD	FLAT:??_R0?AVbad_alloc@std@@@8
	DD	FLAT:??_R3bad_alloc@std@@8
rdata$r	ENDS
;	COMDAT ??_7bad_alloc@std@@6B@
CONST	SEGMENT
??_7bad_alloc@std@@6B@ DD FLAT:??_R4bad_alloc@std@@6B@	; std::bad_alloc::`vftable'
	DD	FLAT:??_Ebad_alloc@std@@UAEPAXI@Z
	DD	FLAT:?what@exception@std@@UBEPBDXZ
; Function compile flags: /Ogsp
CONST	ENDS
;	COMDAT ??0bad_alloc@std@@QAE@PBD@Z
_TEXT	SEGMENT
__Message$ = 8						; size = 4
??0bad_alloc@std@@QAE@PBD@Z PROC			; std::bad_alloc::bad_alloc, COMDAT
; _this$ = ecx

; 345  : 		{	// construct from message string

  00000	55		 push	 ebp
  00001	8b ec		 mov	 ebp, esp
  00003	56		 push	 esi
  00004	8d 45 08	 lea	 eax, DWORD PTR __Message$[ebp]
  00007	50		 push	 eax
  00008	8b f1		 mov	 esi, ecx
  0000a	ff 15 00 00 00
	00		 call	 DWORD PTR __imp_??0exception@std@@QAE@ABQBD@Z
  00010	c7 06 00 00 00
	00		 mov	 DWORD PTR [esi], OFFSET ??_7bad_alloc@std@@6B@

; 346  : 		}

  00016	8b c6		 mov	 eax, esi
  00018	5e		 pop	 esi
  00019	5d		 pop	 ebp
  0001a	c2 04 00	 ret	 4
??0bad_alloc@std@@QAE@PBD@Z ENDP			; std::bad_alloc::bad_alloc
_TEXT	ENDS
PUBLIC	??1bad_alloc@std@@UAE@XZ			; std::bad_alloc::~bad_alloc
EXTRN	__imp_??1exception@std@@UAE@XZ:PROC
; Function compile flags: /Ogsp
;	COMDAT ??1bad_alloc@std@@UAE@XZ
_TEXT	SEGMENT
??1bad_alloc@std@@UAE@XZ PROC				; std::bad_alloc::~bad_alloc, COMDAT
; _this$ = ecx

; 354  : 		{	// destroy the object

  00000	c7 01 00 00 00
	00		 mov	 DWORD PTR [ecx], OFFSET ??_7bad_alloc@std@@6B@

; 355  : 		}

  00006	ff 25 00 00 00
	00		 jmp	 DWORD PTR __imp_??1exception@std@@UAE@XZ
??1bad_alloc@std@@UAE@XZ ENDP				; std::bad_alloc::~bad_alloc
_TEXT	ENDS
EXTRN	??3@YAXPAX@Z:PROC				; operator delete
; Function compile flags: /Ogsp
;	COMDAT ??_Gbad_alloc@std@@UAEPAXI@Z
_TEXT	SEGMENT
___flags$ = 8						; size = 4
??_Gbad_alloc@std@@UAEPAXI@Z PROC			; std::bad_alloc::`scalar deleting destructor', COMDAT
; _this$ = ecx
  00000	55		 push	 ebp
  00001	8b ec		 mov	 ebp, esp
  00003	56		 push	 esi
  00004	8b f1		 mov	 esi, ecx
  00006	c7 06 00 00 00
	00		 mov	 DWORD PTR [esi], OFFSET ??_7bad_alloc@std@@6B@
  0000c	ff 15 00 00 00
	00		 call	 DWORD PTR __imp_??1exception@std@@UAE@XZ
  00012	f6 45 08 01	 test	 BYTE PTR ___flags$[ebp], 1
  00016	74 07		 je	 SHORT $LN1@scalar
  00018	56		 push	 esi
  00019	e8 00 00 00 00	 call	 ??3@YAXPAX@Z		; operator delete
  0001e	59		 pop	 ecx
$LN1@scalar:
  0001f	8b c6		 mov	 eax, esi
  00021	5e		 pop	 esi
  00022	5d		 pop	 ebp
  00023	c2 04 00	 ret	 4
??_Gbad_alloc@std@@UAEPAXI@Z ENDP			; std::bad_alloc::`scalar deleting destructor'
_TEXT	ENDS
PUBLIC	??2@YAPAXIPAX@Z					; operator new
; Function compile flags: /Ogsp
; File c:\program files (x86)\microsoft visual studio 10.0\vc\include\new
;	COMDAT ??2@YAPAXIPAX@Z
_TEXT	SEGMENT
___formal$ = 8						; size = 4
__Where$ = 12						; size = 4
??2@YAPAXIPAX@Z PROC					; operator new, COMDAT

; 56   : 	{	// construct array with placement at _Where

  00000	55		 push	 ebp
  00001	8b ec		 mov	 ebp, esp

; 57   : 	return (_Where);

  00003	8b 45 0c	 mov	 eax, DWORD PTR __Where$[ebp]

; 58   : 	}

  00006	5d		 pop	 ebp
  00007	c3		 ret	 0
??2@YAPAXIPAX@Z ENDP					; operator new
_TEXT	ENDS
PUBLIC	??3@YAXPAX0@Z					; operator delete
; Function compile flags: /Ogsp
;	COMDAT ??3@YAXPAX0@Z
_TEXT	SEGMENT
___formal$ = 8						; size = 4
___formal$ = 12						; size = 4
??3@YAXPAX0@Z PROC					; operator delete, COMDAT

; 62   : 	}

  00000	c3		 ret	 0
??3@YAXPAX0@Z ENDP					; operator delete
_TEXT	ENDS
PUBLIC	?_Adopt@_Iterator_base0@std@@QAEXPBX@Z		; std::_Iterator_base0::_Adopt
; Function compile flags: /Ogsp
; File c:\program files (x86)\microsoft visual studio 10.0\vc\include\xutility
;	COMDAT ?_Adopt@_Iterator_base0@std@@QAEXPBX@Z
_TEXT	SEGMENT
___formal$ = 8						; size = 4
?_Adopt@_Iterator_base0@std@@QAEXPBX@Z PROC		; std::_Iterator_base0::_Adopt, COMDAT
; _this$ = ecx

; 49   : 		}

  00000	c2 04 00	 ret	 4
?_Adopt@_Iterator_base0@std@@QAEXPBX@Z ENDP		; std::_Iterator_base0::_Adopt
_TEXT	ENDS
PUBLIC	?GetEtcItemTypeExceptClass@ioEtcItemManager@@IAEKK@Z ; ioEtcItemManager::GetEtcItemTypeExceptClass
; Function compile flags: /Ogsp
; File d:\lost saga for developer\youtube\tutorial\source\src\lsclient\ioetcitemmanager.cpp
;	COMDAT ?GetEtcItemTypeExceptClass@ioEtcItemManager@@IAEKK@Z
_TEXT	SEGMENT
_dwType$ = 8						; size = 4
?GetEtcItemTypeExceptClass@ioEtcItemManager@@IAEKK@Z PROC ; ioEtcItemManager::GetEtcItemTypeExceptClass, COMDAT
; _this$ = ecx

; 467  : {

  00000	55		 push	 ebp
  00001	8b ec		 mov	 ebp, esp

; 468  : 	// 2100101 -> 2100001 중간에 클래스값을 삭제한다. 
; 469  : 	int iFirstType = (dwType%USE_TYPE_POS)/FIRST_TYPE_POS;

  00003	8b 45 08	 mov	 eax, DWORD PTR _dwType$[ebp]
  00006	33 d2		 xor	 edx, edx
  00008	b9 40 42 0f 00	 mov	 ecx, 1000000		; 000f4240H
  0000d	f7 f1		 div	 ecx
  0000f	56		 push	 esi
  00010	be a0 86 01 00	 mov	 esi, 100000		; 000186a0H
  00015	8b c8		 mov	 ecx, eax
  00017	8b c2		 mov	 eax, edx
  00019	33 d2		 xor	 edx, edx
  0001b	f7 f6		 div	 esi

; 470  : 	if( iFirstType != CLASS_ETC_ITEM_TYPE )

  0001d	83 f8 01	 cmp	 eax, 1

; 471  : 		return dwType;

  00020	8b 45 08	 mov	 eax, DWORD PTR _dwType$[ebp]
  00023	75 14		 jne	 SHORT $LN2@GetEtcItem

; 472  : 
; 473  : 	int iUseType    = dwType / USE_TYPE_POS;
; 474  : 	int iSecondType = dwType % SECOND_TYPE_POS;

  00025	6a 64		 push	 100			; 00000064H

; 475  : 
; 476  : 	DWORD dwNoneClassType = ( iUseType * USE_TYPE_POS ) + ( iFirstType * FIRST_TYPE_POS ) + ( iSecondType );
; 477  : 
; 478  : 	return dwNoneClassType;

  00027	69 c9 40 42 0f
	00		 imul	 ecx, 1000000		; 000f4240H
  0002d	33 d2		 xor	 edx, edx
  0002f	5e		 pop	 esi
  00030	f7 f6		 div	 esi
  00032	8d 84 11 a0 86
	01 00		 lea	 eax, DWORD PTR [ecx+edx+100000]
$LN2@GetEtcItem:
  00039	5e		 pop	 esi

; 479  : }

  0003a	5d		 pop	 ebp
  0003b	c2 04 00	 ret	 4
?GetEtcItemTypeExceptClass@ioEtcItemManager@@IAEKK@Z ENDP ; ioEtcItemManager::GetEtcItemTypeExceptClass
_TEXT	ENDS
PUBLIC	?GetEtcItemTypeWithClass@ioEtcItemManager@@QAEKKH@Z ; ioEtcItemManager::GetEtcItemTypeWithClass
; Function compile flags: /Ogsp
;	COMDAT ?GetEtcItemTypeWithClass@ioEtcItemManager@@QAEKKH@Z
_TEXT	SEGMENT
_dwType$ = 8						; size = 4
_iClassType$ = 12					; size = 4
?GetEtcItemTypeWithClass@ioEtcItemManager@@QAEKKH@Z PROC ; ioEtcItemManager::GetEtcItemTypeWithClass, COMDAT
; _this$ = ecx

; 482  : {

  00000	55		 push	 ebp
  00001	8b ec		 mov	 ebp, esp

; 483  : 	int iFirstType  = (dwType%USE_TYPE_POS)/FIRST_TYPE_POS;

  00003	8b 45 08	 mov	 eax, DWORD PTR _dwType$[ebp]
  00006	33 d2		 xor	 edx, edx
  00008	b9 40 42 0f 00	 mov	 ecx, 1000000		; 000f4240H
  0000d	f7 f1		 div	 ecx
  0000f	b9 a0 86 01 00	 mov	 ecx, 100000		; 000186a0H
  00014	8b c2		 mov	 eax, edx
  00016	33 d2		 xor	 edx, edx
  00018	f7 f1		 div	 ecx

; 484  : 	if( iFirstType != CLASS_ETC_ITEM_TYPE )

  0001a	83 f8 01	 cmp	 eax, 1
  0001d	74 05		 je	 SHORT $LN1@GetEtcItem@2

; 485  : 		return dwType;

  0001f	8b 45 08	 mov	 eax, DWORD PTR _dwType$[ebp]
  00022	eb 09		 jmp	 SHORT $LN2@GetEtcItem@2
$LN1@GetEtcItem@2:

; 486  : 
; 487  : 	return dwType + ( iClassType * SECOND_TYPE_POS );

  00024	8b 45 0c	 mov	 eax, DWORD PTR _iClassType$[ebp]
  00027	6b c0 64	 imul	 eax, 100		; 00000064H
  0002a	03 45 08	 add	 eax, DWORD PTR _dwType$[ebp]
$LN2@GetEtcItem@2:

; 488  : }

  0002d	5d		 pop	 ebp
  0002e	c2 08 00	 ret	 8
?GetEtcItemTypeWithClass@ioEtcItemManager@@QAEKKH@Z ENDP ; ioEtcItemManager::GetEtcItemTypeWithClass
_TEXT	ENDS
PUBLIC	?IsBlockEtcItem@ioEtcItemManager@@QAE_NK@Z	; ioEtcItemManager::IsBlockEtcItem
; Function compile flags: /Ogsp
;	COMDAT ?IsBlockEtcItem@ioEtcItemManager@@QAE_NK@Z
_TEXT	SEGMENT
_dwItem$ = 8						; size = 4
?IsBlockEtcItem@ioEtcItemManager@@QAE_NK@Z PROC		; ioEtcItemManager::IsBlockEtcItem, COMDAT
; _this$ = ecx

; 502  : {

  00000	55		 push	 ebp
  00001	8b ec		 mov	 ebp, esp

; 503  : 	if( COMPARE( dwItem, ioEtcItem::EIT_ETC_BLOCK1, ioEtcItem::EIT_ETC_BLOCK10 + 1 ) )

  00003	8b 45 08	 mov	 eax, DWORD PTR _dwItem$[ebp]
  00006	05 90 b3 b3 ff	 add	 eax, -5000304		; ffb3b390H
  0000b	6a 09		 push	 9
  0000d	59		 pop	 ecx
  0000e	3b c8		 cmp	 ecx, eax
  00010	1a c0		 sbb	 al, al
  00012	fe c0		 inc	 al

; 504  : 		return true;
; 505  : 
; 506  : 	return false;
; 507  : }

  00014	5d		 pop	 ebp
  00015	c2 04 00	 ret	 4
?IsBlockEtcItem@ioEtcItemManager@@QAE_NK@Z ENDP		; ioEtcItemManager::IsBlockEtcItem
_TEXT	ENDS
PUBLIC	??0?$Singleton@VioEtcItemManager@@@@QAE@XZ	; Singleton<ioEtcItemManager>::Singleton<ioEtcItemManager>
; Function compile flags: /Ogsp
; File d:\lost saga for developer\youtube\tutorial\source\src\io3dengine\iosingleton.h
;	COMDAT ??0?$Singleton@VioEtcItemManager@@@@QAE@XZ
_TEXT	SEGMENT
??0?$Singleton@VioEtcItemManager@@@@QAE@XZ PROC		; Singleton<ioEtcItemManager>::Singleton<ioEtcItemManager>, COMDAT
; _this$ = ecx

; 27   : 	Singleton()

  00000	8b c1		 mov	 eax, ecx

; 28   : 	{
; 29   : 		assert( !ms_Singleton );
; 30   : 		int offset = (int)(T*)1 - (int)(Singleton <T>*)(T*)1;
; 31   : 		ms_Singleton = (T*)((int)this + offset);

  00002	8d 48 fc	 lea	 ecx, DWORD PTR [eax-4]
  00005	89 0d 00 00 00
	00		 mov	 DWORD PTR ?ms_Singleton@?$Singleton@VioEtcItemManager@@@@1PAVioEtcItemManager@@A, ecx ; Singleton<ioEtcItemManager>::ms_Singleton

; 32   : 	}

  0000b	c3		 ret	 0
??0?$Singleton@VioEtcItemManager@@@@QAE@XZ ENDP		; Singleton<ioEtcItemManager>::Singleton<ioEtcItemManager>
_TEXT	ENDS
PUBLIC	??1?$Singleton@VioEtcItemManager@@@@QAE@XZ	; Singleton<ioEtcItemManager>::~Singleton<ioEtcItemManager>
; Function compile flags: /Ogsp
;	COMDAT ??1?$Singleton@VioEtcItemManager@@@@QAE@XZ
_TEXT	SEGMENT
??1?$Singleton@VioEtcItemManager@@@@QAE@XZ PROC		; Singleton<ioEtcItemManager>::~Singleton<ioEtcItemManager>, COMDAT
; _this$ = ecx

; 36   : 		assert( ms_Singleton );
; 37   : 		ms_Singleton = 0;

  00000	83 25 00 00 00
	00 00		 and	 DWORD PTR ?ms_Singleton@?$Singleton@VioEtcItemManager@@@@1PAVioEtcItemManager@@A, 0 ; Singleton<ioEtcItemManager>::ms_Singleton

; 38   : 	}

  00007	c3		 ret	 0
??1?$Singleton@VioEtcItemManager@@@@QAE@XZ ENDP		; Singleton<ioEtcItemManager>::~Singleton<ioEtcItemManager>
_TEXT	ENDS
PUBLIC	?GetSingleton@?$Singleton@VioEtcItemManager@@@@SAAAVioEtcItemManager@@XZ ; Singleton<ioEtcItemManager>::GetSingleton
; Function compile flags: /Ogsp
;	COMDAT ?GetSingleton@?$Singleton@VioEtcItemManager@@@@SAAAVioEtcItemManager@@XZ
_TEXT	SEGMENT
?GetSingleton@?$Singleton@VioEtcItemManager@@@@SAAAVioEtcItemManager@@XZ PROC ; Singleton<ioEtcItemManager>::GetSingleton, COMDAT

; 42   : 		assert( ms_Singleton );
; 43   : 		return (*ms_Singleton);

  00000	a1 00 00 00 00	 mov	 eax, DWORD PTR ?ms_Singleton@?$Singleton@VioEtcItemManager@@@@1PAVioEtcItemManager@@A ; Singleton<ioEtcItemManager>::ms_Singleton

; 44   : 	}

  00005	c3		 ret	 0
?GetSingleton@?$Singleton@VioEtcItemManager@@@@SAAAVioEtcItemManager@@XZ ENDP ; Singleton<ioEtcItemManager>::GetSingleton
_TEXT	ENDS
PUBLIC	??R?$less@K@std@@QBE_NABK0@Z			; std::less<unsigned long>::operator()
; Function compile flags: /Ogsp
; File c:\program files (x86)\microsoft visual studio 10.0\vc\include\xfunctional
;	COMDAT ??R?$less@K@std@@QBE_NABK0@Z
_TEXT	SEGMENT
__Left$ = 8						; size = 4
__Right$ = 12						; size = 4
??R?$less@K@std@@QBE_NABK0@Z PROC			; std::less<unsigned long>::operator(), COMDAT
; _this$ = ecx

; 124  : 		{	// apply operator< to operands

  00000	55		 push	 ebp
  00001	8b ec		 mov	 ebp, esp

; 125  : 		return (_Left < _Right);

  00003	8b 45 08	 mov	 eax, DWORD PTR __Left$[ebp]
  00006	8b 00		 mov	 eax, DWORD PTR [eax]
  00008	8b 4d 0c	 mov	 ecx, DWORD PTR __Right$[ebp]
  0000b	3b 01		 cmp	 eax, DWORD PTR [ecx]
  0000d	1b c0		 sbb	 eax, eax
  0000f	f7 d8		 neg	 eax

; 126  : 		}

  00011	5d		 pop	 ebp
  00012	c2 08 00	 ret	 8
??R?$less@K@std@@QBE_NABK0@Z ENDP			; std::less<unsigned long>::operator()
_TEXT	ENDS
PUBLIC	?_Inside@?$vector@HV?$allocator@H@std@@@std@@IBE_NPBH@Z ; std::vector<int,std::allocator<int> >::_Inside
; Function compile flags: /Ogsp
; File c:\program files (x86)\microsoft visual studio 10.0\vc\include\vector
;	COMDAT ?_Inside@?$vector@HV?$allocator@H@std@@@std@@IBE_NPBH@Z
_TEXT	SEGMENT
__Ptr$ = 8						; size = 4
?_Inside@?$vector@HV?$allocator@H@std@@@std@@IBE_NPBH@Z PROC ; std::vector<int,std::allocator<int> >::_Inside, COMDAT
; _this$ = ecx

; 1285 : 		{	// test if _Ptr points inside vector

  00000	55		 push	 ebp
  00001	8b ec		 mov	 ebp, esp

; 1286 : 		return (_Ptr < this->_Mylast && this->_Myfirst <= _Ptr);

  00003	8b 45 08	 mov	 eax, DWORD PTR __Ptr$[ebp]
  00006	3b 41 04	 cmp	 eax, DWORD PTR [ecx+4]
  00009	73 09		 jae	 SHORT $LN3@Inside
  0000b	39 01		 cmp	 DWORD PTR [ecx], eax
  0000d	77 05		 ja	 SHORT $LN3@Inside
  0000f	33 c0		 xor	 eax, eax
  00011	40		 inc	 eax
  00012	eb 02		 jmp	 SHORT $LN4@Inside
$LN3@Inside:
  00014	33 c0		 xor	 eax, eax
$LN4@Inside:

; 1287 : 		}

  00016	5d		 pop	 ebp
  00017	c2 04 00	 ret	 4
?_Inside@?$vector@HV?$allocator@H@std@@@std@@IBE_NPBH@Z ENDP ; std::vector<int,std::allocator<int> >::_Inside
_TEXT	ENDS
PUBLIC	?_Orphan_range@?$vector@HV?$allocator@H@std@@@std@@IBEXPAH0@Z ; std::vector<int,std::allocator<int> >::_Orphan_range
; Function compile flags: /Ogsp
;	COMDAT ?_Orphan_range@?$vector@HV?$allocator@H@std@@@std@@IBEXPAH0@Z
_TEXT	SEGMENT
___formal$ = 8						; size = 4
___formal$ = 12						; size = 4
?_Orphan_range@?$vector@HV?$allocator@H@std@@@std@@IBEXPAH0@Z PROC ; std::vector<int,std::allocator<int> >::_Orphan_range, COMDAT
; _this$ = ecx

; 1454 : 		}

  00000	c2 08 00	 ret	 8
?_Orphan_range@?$vector@HV?$allocator@H@std@@@std@@IBEXPAH0@Z ENDP ; std::vector<int,std::allocator<int> >::_Orphan_range
_TEXT	ENDS
PUBLIC	??0?$allocator@U?$pair@$$CBKPAVioEtcItem@@@std@@@std@@QAE@XZ ; std::allocator<std::pair<unsigned long const ,ioEtcItem *> >::allocator<std::pair<unsigned long const ,ioEtcItem *> >
; Function compile flags: /Ogsp
; File c:\program files (x86)\microsoft visual studio 10.0\vc\include\xmemory
;	COMDAT ??0?$allocator@U?$pair@$$CBKPAVioEtcItem@@@std@@@std@@QAE@XZ
_TEXT	SEGMENT
??0?$allocator@U?$pair@$$CBKPAVioEtcItem@@@std@@@std@@QAE@XZ PROC ; std::allocator<std::pair<unsigned long const ,ioEtcItem *> >::allocator<std::pair<unsigned long const ,ioEtcItem *> >, COMDAT
; _this$ = ecx

; 161  : 	_ALLOCATOR() _THROW0()

  00000	8b c1		 mov	 eax, ecx

; 162  : 		{	// construct default allocator (do nothing)
; 163  : 		}

  00002	c3		 ret	 0
??0?$allocator@U?$pair@$$CBKPAVioEtcItem@@@std@@@std@@QAE@XZ ENDP ; std::allocator<std::pair<unsigned long const ,ioEtcItem *> >::allocator<std::pair<unsigned long const ,ioEtcItem *> >
_TEXT	ENDS
PUBLIC	??8?$_Tree_const_iterator@V?$_Tree_val@V?$_Tmap_traits@KPAVioEtcItem@@U?$less@K@std@@V?$allocator@U?$pair@$$CBKPAVioEtcItem@@@std@@@3@$0A@@std@@@std@@@std@@QBE_NABV01@@Z ; std::_Tree_const_iterator<std::_Tree_val<std::_Tmap_traits<unsigned long,ioEtcItem *,std::less<unsigned long>,std::allocator<std::pair<unsigned long const ,ioEtcItem *> >,0> > >::operator==
; Function compile flags: /Ogsp
; File c:\program files (x86)\microsoft visual studio 10.0\vc\include\xtree
;	COMDAT ??8?$_Tree_const_iterator@V?$_Tree_val@V?$_Tmap_traits@KPAVioEtcItem@@U?$less@K@std@@V?$allocator@U?$pair@$$CBKPAVioEtcItem@@@std@@@3@$0A@@std@@@std@@@std@@QBE_NABV01@@Z
_TEXT	SEGMENT
__Right$ = 8						; size = 4
??8?$_Tree_const_iterator@V?$_Tree_val@V?$_Tmap_traits@KPAVioEtcItem@@U?$less@K@std@@V?$allocator@U?$pair@$$CBKPAVioEtcItem@@@std@@@3@$0A@@std@@@std@@@std@@QBE_NABV01@@Z PROC ; std::_Tree_const_iterator<std::_Tree_val<std::_Tmap_traits<unsigned long,ioEtcItem *,std::less<unsigned long>,std::allocator<std::pair<unsigned long const ,ioEtcItem *> >,0> > >::operator==, COMDAT
; _this$ = ecx

; 316  : 		{	// test for iterator equality

  00000	55		 push	 ebp
  00001	8b ec		 mov	 ebp, esp

; 317  :  #if _ITERATOR_DEBUG_LEVEL == 2
; 318  : 		if (this->_Getcont() == 0
; 319  : 			|| this->_Getcont() != _Right._Getcont())
; 320  : 			{	// report error
; 321  : 			_DEBUG_ERROR("map/set iterators incompatible");
; 322  : 			_SCL_SECURE_INVALID_ARGUMENT;
; 323  : 			}
; 324  : 
; 325  :  #elif _ITERATOR_DEBUG_LEVEL == 1
; 326  : 		_SCL_SECURE_VALIDATE(this->_Getcont() != 0
; 327  : 			&& this->_Getcont() == _Right._Getcont());
; 328  :  #endif /* _ITERATOR_DEBUG_LEVEL */
; 329  : 
; 330  : 		return (this->_Ptr == _Right._Ptr);

  00003	8b 01		 mov	 eax, DWORD PTR [ecx]
  00005	8b 4d 08	 mov	 ecx, DWORD PTR __Right$[ebp]
  00008	2b 01		 sub	 eax, DWORD PTR [ecx]
  0000a	f7 d8		 neg	 eax
  0000c	1b c0		 sbb	 eax, eax
  0000e	40		 inc	 eax

; 331  : 		}

  0000f	5d		 pop	 ebp
  00010	c2 04 00	 ret	 4
??8?$_Tree_const_iterator@V?$_Tree_val@V?$_Tmap_traits@KPAVioEtcItem@@U?$less@K@std@@V?$allocator@U?$pair@$$CBKPAVioEtcItem@@@std@@@3@$0A@@std@@@std@@@std@@QBE_NABV01@@Z ENDP ; std::_Tree_const_iterator<std::_Tree_val<std::_Tmap_traits<unsigned long,ioEtcItem *,std::less<unsigned long>,std::allocator<std::pair<unsigned long const ,ioEtcItem *> >,0> > >::operator==
_TEXT	ENDS
PUBLIC	??0?$_Tree_unchecked_const_iterator@V?$_Tree_val@V?$_Tmap_traits@KPAVioEtcItem@@U?$less@K@std@@V?$allocator@U?$pair@$$CBKPAVioEtcItem@@@std@@@3@$0A@@std@@@std@@U_Iterator_base0@2@@std@@QAE@XZ ; std::_Tree_unchecked_const_iterator<std::_Tree_val<std::_Tmap_traits<unsigned long,ioEtcItem *,std::less<unsigned long>,std::allocator<std::pair<unsigned long const ,ioEtcItem *> >,0> >,std::_Iterator_base0>::_Tree_unchecked_const_iterator<std::_Tree_val<std::_Tmap_traits<unsigned long,ioEtcItem *,std::less<unsigned long>,std::allocator<std::pair<unsigned long const ,ioEtcItem *> >,0> >,std::_Iterator_base0>
; Function compile flags: /Ogsp
;	COMDAT ??0?$_Tree_unchecked_const_iterator@V?$_Tree_val@V?$_Tmap_traits@KPAVioEtcItem@@U?$less@K@std@@V?$allocator@U?$pair@$$CBKPAVioEtcItem@@@std@@@3@$0A@@std@@@std@@U_Iterator_base0@2@@std@@QAE@XZ
_TEXT	SEGMENT
??0?$_Tree_unchecked_const_iterator@V?$_Tree_val@V?$_Tmap_traits@KPAVioEtcItem@@U?$less@K@std@@V?$allocator@U?$pair@$$CBKPAVioEtcItem@@@std@@@3@$0A@@std@@@std@@U_Iterator_base0@2@@std@@QAE@XZ PROC ; std::_Tree_unchecked_const_iterator<std::_Tree_val<std::_Tmap_traits<unsigned long,ioEtcItem *,std::less<unsigned long>,std::allocator<std::pair<unsigned long const ,ioEtcItem *> >,0> >,std::_Iterator_base0>::_Tree_unchecked_const_iterator<std::_Tree_val<std::_Tmap_traits<unsigned long,ioEtcItem *,std::less<unsigned long>,std::allocator<std::pair<unsigned long const ,ioEtcItem *> >,0> >,std::_Iterator_base0>, COMDAT
; _this$ = ecx

; 38   : 		{	// construct with null node pointer

  00000	8b c1		 mov	 eax, ecx
  00002	83 20 00	 and	 DWORD PTR [eax], 0

; 39   : 		}

  00005	c3		 ret	 0
??0?$_Tree_unchecked_const_iterator@V?$_Tree_val@V?$_Tmap_traits@KPAVioEtcItem@@U?$less@K@std@@V?$allocator@U?$pair@$$CBKPAVioEtcItem@@@std@@@3@$0A@@std@@@std@@U_Iterator_base0@2@@std@@QAE@XZ ENDP ; std::_Tree_unchecked_const_iterator<std::_Tree_val<std::_Tmap_traits<unsigned long,ioEtcItem *,std::less<unsigned long>,std::allocator<std::pair<unsigned long const ,ioEtcItem *> >,0> >,std::_Iterator_base0>::_Tree_unchecked_const_iterator<std::_Tree_val<std::_Tmap_traits<unsigned long,ioEtcItem *,std::less<unsigned long>,std::allocator<std::pair<unsigned long const ,ioEtcItem *> >,0> >,std::_Iterator_base0>
_TEXT	ENDS
PUBLIC	?_Mynode@?$_Tree_unchecked_const_iterator@V?$_Tree_val@V?$_Tmap_traits@KPAVioEtcItem@@U?$less@K@std@@V?$allocator@U?$pair@$$CBKPAVioEtcItem@@@std@@@3@$0A@@std@@@std@@U_Iterator_base0@2@@std@@QBEPAU_Node@?$_Tree_nod@V?$_Tmap_traits@KPAVioEtcItem@@U?$less@K@std@@V?$allocator@U?$pair@$$CBKPAVioEtcItem@@@std@@@3@$0A@@std@@@2@XZ ; std::_Tree_unchecked_const_iterator<std::_Tree_val<std::_Tmap_traits<unsigned long,ioEtcItem *,std::less<unsigned long>,std::allocator<std::pair<unsigned long const ,ioEtcItem *> >,0> >,std::_Iterator_base0>::_Mynode
; Function compile flags: /Ogsp
;	COMDAT ?_Mynode@?$_Tree_unchecked_const_iterator@V?$_Tree_val@V?$_Tmap_traits@KPAVioEtcItem@@U?$less@K@std@@V?$allocator@U?$pair@$$CBKPAVioEtcItem@@@std@@@3@$0A@@std@@@std@@U_Iterator_base0@2@@std@@QBEPAU_Node@?$_Tree_nod@V?$_Tmap_traits@KPAVioEtcItem@@U?$less@K@std@@V?$allocator@U?$pair@$$CBKPAVioEtcItem@@@std@@@3@$0A@@std@@@2@XZ
_TEXT	SEGMENT
?_Mynode@?$_Tree_unchecked_const_iterator@V?$_Tree_val@V?$_Tmap_traits@KPAVioEtcItem@@U?$less@K@std@@V?$allocator@U?$pair@$$CBKPAVioEtcItem@@@std@@@3@$0A@@std@@@std@@U_Iterator_base0@2@@std@@QBEPAU_Node@?$_Tree_nod@V?$_Tmap_traits@KPAVioEtcItem@@U?$less@K@std@@V?$allocator@U?$pair@$$CBKPAVioEtcItem@@@std@@@3@$0A@@std@@@2@XZ PROC ; std::_Tree_unchecked_const_iterator<std::_Tree_val<std::_Tmap_traits<unsigned long,ioEtcItem *,std::less<unsigned long>,std::allocator<std::pair<unsigned long const ,ioEtcItem *> >,0> >,std::_Iterator_base0>::_Mynode, COMDAT
; _this$ = ecx

; 122  : 		return (_Ptr);

  00000	8b 01		 mov	 eax, DWORD PTR [ecx]

; 123  : 		}

  00002	c3		 ret	 0
?_Mynode@?$_Tree_unchecked_const_iterator@V?$_Tree_val@V?$_Tmap_traits@KPAVioEtcItem@@U?$less@K@std@@V?$allocator@U?$pair@$$CBKPAVioEtcItem@@@std@@@3@$0A@@std@@@std@@U_Iterator_base0@2@@std@@QBEPAU_Node@?$_Tree_nod@V?$_Tmap_traits@KPAVioEtcItem@@U?$less@K@std@@V?$allocator@U?$pair@$$CBKPAVioEtcItem@@@std@@@3@$0A@@std@@@2@XZ ENDP ; std::_Tree_unchecked_const_iterator<std::_Tree_val<std::_Tmap_traits<unsigned long,ioEtcItem *,std::less<unsigned long>,std::allocator<std::pair<unsigned long const ,ioEtcItem *> >,0> >,std::_Iterator_base0>::_Mynode
_TEXT	ENDS
PUBLIC	?_Inside@?$vector@PBVioEtcItem@@V?$allocator@PBVioEtcItem@@@std@@@std@@IBE_NPBQBVioEtcItem@@@Z ; std::vector<ioEtcItem const *,std::allocator<ioEtcItem const *> >::_Inside
; Function compile flags: /Ogsp
; File c:\program files (x86)\microsoft visual studio 10.0\vc\include\vector
;	COMDAT ?_Inside@?$vector@PBVioEtcItem@@V?$allocator@PBVioEtcItem@@@std@@@std@@IBE_NPBQBVioEtcItem@@@Z
_TEXT	SEGMENT
__Ptr$ = 8						; size = 4
?_Inside@?$vector@PBVioEtcItem@@V?$allocator@PBVioEtcItem@@@std@@@std@@IBE_NPBQBVioEtcItem@@@Z PROC ; std::vector<ioEtcItem const *,std::allocator<ioEtcItem const *> >::_Inside, COMDAT
; _this$ = ecx

; 1285 : 		{	// test if _Ptr points inside vector

  00000	55		 push	 ebp
  00001	8b ec		 mov	 ebp, esp

; 1286 : 		return (_Ptr < this->_Mylast && this->_Myfirst <= _Ptr);

  00003	8b 45 08	 mov	 eax, DWORD PTR __Ptr$[ebp]
  00006	3b 41 04	 cmp	 eax, DWORD PTR [ecx+4]
  00009	73 09		 jae	 SHORT $LN3@Inside@2
  0000b	39 01		 cmp	 DWORD PTR [ecx], eax
  0000d	77 05		 ja	 SHORT $LN3@Inside@2
  0000f	33 c0		 xor	 eax, eax
  00011	40		 inc	 eax
  00012	eb 02		 jmp	 SHORT $LN4@Inside@2
$LN3@Inside@2:
  00014	33 c0		 xor	 eax, eax
$LN4@Inside@2:

; 1287 : 		}

  00016	5d		 pop	 ebp
  00017	c2 04 00	 ret	 4
?_Inside@?$vector@PBVioEtcItem@@V?$allocator@PBVioEtcItem@@@std@@@std@@IBE_NPBQBVioEtcItem@@@Z ENDP ; std::vector<ioEtcItem const *,std::allocator<ioEtcItem const *> >::_Inside
_TEXT	ENDS
PUBLIC	?_Orphan_range@?$vector@PBVioEtcItem@@V?$allocator@PBVioEtcItem@@@std@@@std@@IBEXPAPBVioEtcItem@@0@Z ; std::vector<ioEtcItem const *,std::allocator<ioEtcItem const *> >::_Orphan_range
; Function compile flags: /Ogsp
;	COMDAT ?_Orphan_range@?$vector@PBVioEtcItem@@V?$allocator@PBVioEtcItem@@@std@@@std@@IBEXPAPBVioEtcItem@@0@Z
_TEXT	SEGMENT
___formal$ = 8						; size = 4
___formal$ = 12						; size = 4
?_Orphan_range@?$vector@PBVioEtcItem@@V?$allocator@PBVioEtcItem@@@std@@@std@@IBEXPAPBVioEtcItem@@0@Z PROC ; std::vector<ioEtcItem const *,std::allocator<ioEtcItem const *> >::_Orphan_range, COMDAT
; _this$ = ecx

; 1454 : 		}

  00000	c2 08 00	 ret	 8
?_Orphan_range@?$vector@PBVioEtcItem@@V?$allocator@PBVioEtcItem@@@std@@@std@@IBEXPAPBVioEtcItem@@0@Z ENDP ; std::vector<ioEtcItem const *,std::allocator<ioEtcItem const *> >::_Orphan_range
_TEXT	ENDS
PUBLIC	?_Isnil@?$_Tree_val@V?$_Tmap_traits@KPAVioEtcItem@@U?$less@K@std@@V?$allocator@U?$pair@$$CBKPAVioEtcItem@@@std@@@3@$0A@@std@@@std@@SAAADPAU_Node@?$_Tree_nod@V?$_Tmap_traits@KPAVioEtcItem@@U?$less@K@std@@V?$allocator@U?$pair@$$CBKPAVioEtcItem@@@std@@@3@$0A@@std@@@2@@Z ; std::_Tree_val<std::_Tmap_traits<unsigned long,ioEtcItem *,std::less<unsigned long>,std::allocator<std::pair<unsigned long const ,ioEtcItem *> >,0> >::_Isnil
; Function compile flags: /Ogsp
; File c:\program files (x86)\microsoft visual studio 10.0\vc\include\xtree
;	COMDAT ?_Isnil@?$_Tree_val@V?$_Tmap_traits@KPAVioEtcItem@@U?$less@K@std@@V?$allocator@U?$pair@$$CBKPAVioEtcItem@@@std@@@3@$0A@@std@@@std@@SAAADPAU_Node@?$_Tree_nod@V?$_Tmap_traits@KPAVioEtcItem@@U?$less@K@std@@V?$allocator@U?$pair@$$CBKPAVioEtcItem@@@std@@@3@$0A@@std@@@2@@Z
_TEXT	SEGMENT
__Pnode$ = 8						; size = 4
?_Isnil@?$_Tree_val@V?$_Tmap_traits@KPAVioEtcItem@@U?$less@K@std@@V?$allocator@U?$pair@$$CBKPAVioEtcItem@@@std@@@3@$0A@@std@@@std@@SAAADPAU_Node@?$_Tree_nod@V?$_Tmap_traits@KPAVioEtcItem@@U?$less@K@std@@V?$allocator@U?$pair@$$CBKPAVioEtcItem@@@std@@@3@$0A@@std@@@2@@Z PROC ; std::_Tree_val<std::_Tmap_traits<unsigned long,ioEtcItem *,std::less<unsigned long>,std::allocator<std::pair<unsigned long const ,ioEtcItem *> >,0> >::_Isnil, COMDAT

; 611  : 		{	// return reference to nil flag in node

  00000	55		 push	 ebp
  00001	8b ec		 mov	 ebp, esp

; 612  : 		return ((char&)(*_Pnode)._Isnil);

  00003	8b 45 08	 mov	 eax, DWORD PTR __Pnode$[ebp]
  00006	83 c0 15	 add	 eax, 21			; 00000015H

; 613  : 		}

  00009	5d		 pop	 ebp
  0000a	c3		 ret	 0
?_Isnil@?$_Tree_val@V?$_Tmap_traits@KPAVioEtcItem@@U?$less@K@std@@V?$allocator@U?$pair@$$CBKPAVioEtcItem@@@std@@@3@$0A@@std@@@std@@SAAADPAU_Node@?$_Tree_nod@V?$_Tmap_traits@KPAVioEtcItem@@U?$less@K@std@@V?$allocator@U?$pair@$$CBKPAVioEtcItem@@@std@@@3@$0A@@std@@@2@@Z ENDP ; std::_Tree_val<std::_Tmap_traits<unsigned long,ioEtcItem *,std::less<unsigned long>,std::allocator<std::pair<unsigned long const ,ioEtcItem *> >,0> >::_Isnil
_TEXT	ENDS
PUBLIC	?_Left@?$_Tree_val@V?$_Tmap_traits@KPAVioEtcItem@@U?$less@K@std@@V?$allocator@U?$pair@$$CBKPAVioEtcItem@@@std@@@3@$0A@@std@@@std@@SAAAPAU_Node@?$_Tree_nod@V?$_Tmap_traits@KPAVioEtcItem@@U?$less@K@std@@V?$allocator@U?$pair@$$CBKPAVioEtcItem@@@std@@@3@$0A@@std@@@2@PAU342@@Z ; std::_Tree_val<std::_Tmap_traits<unsigned long,ioEtcItem *,std::less<unsigned long>,std::allocator<std::pair<unsigned long const ,ioEtcItem *> >,0> >::_Left
; Function compile flags: /Ogsp
;	COMDAT ?_Left@?$_Tree_val@V?$_Tmap_traits@KPAVioEtcItem@@U?$less@K@std@@V?$allocator@U?$pair@$$CBKPAVioEtcItem@@@std@@@3@$0A@@std@@@std@@SAAAPAU_Node@?$_Tree_nod@V?$_Tmap_traits@KPAVioEtcItem@@U?$less@K@std@@V?$allocator@U?$pair@$$CBKPAVioEtcItem@@@std@@@3@$0A@@std@@@2@PAU342@@Z
_TEXT	SEGMENT
__Pnode$ = 8						; size = 4
?_Left@?$_Tree_val@V?$_Tmap_traits@KPAVioEtcItem@@U?$less@K@std@@V?$allocator@U?$pair@$$CBKPAVioEtcItem@@@std@@@3@$0A@@std@@@std@@SAAAPAU_Node@?$_Tree_nod@V?$_Tmap_traits@KPAVioEtcItem@@U?$less@K@std@@V?$allocator@U?$pair@$$CBKPAVioEtcItem@@@std@@@3@$0A@@std@@@2@PAU342@@Z PROC ; std::_Tree_val<std::_Tmap_traits<unsigned long,ioEtcItem *,std::less<unsigned long>,std::allocator<std::pair<unsigned long const ,ioEtcItem *> >,0> >::_Left, COMDAT

; 621  : 		{	// return reference to left pointer in node

  00000	55		 push	 ebp
  00001	8b ec		 mov	 ebp, esp

; 622  : 		return ((_Nodepref)(*_Pnode)._Left);

  00003	8b 45 08	 mov	 eax, DWORD PTR __Pnode$[ebp]

; 623  : 		}

  00006	5d		 pop	 ebp
  00007	c3		 ret	 0
?_Left@?$_Tree_val@V?$_Tmap_traits@KPAVioEtcItem@@U?$less@K@std@@V?$allocator@U?$pair@$$CBKPAVioEtcItem@@@std@@@3@$0A@@std@@@std@@SAAAPAU_Node@?$_Tree_nod@V?$_Tmap_traits@KPAVioEtcItem@@U?$less@K@std@@V?$allocator@U?$pair@$$CBKPAVioEtcItem@@@std@@@3@$0A@@std@@@2@PAU342@@Z ENDP ; std::_Tree_val<std::_Tmap_traits<unsigned long,ioEtcItem *,std::less<unsigned long>,std::allocator<std::pair<unsigned long const ,ioEtcItem *> >,0> >::_Left
_TEXT	ENDS
PUBLIC	?_Parent@?$_Tree_val@V?$_Tmap_traits@KPAVioEtcItem@@U?$less@K@std@@V?$allocator@U?$pair@$$CBKPAVioEtcItem@@@std@@@3@$0A@@std@@@std@@SAAAPAU_Node@?$_Tree_nod@V?$_Tmap_traits@KPAVioEtcItem@@U?$less@K@std@@V?$allocator@U?$pair@$$CBKPAVioEtcItem@@@std@@@3@$0A@@std@@@2@PAU342@@Z ; std::_Tree_val<std::_Tmap_traits<unsigned long,ioEtcItem *,std::less<unsigned long>,std::allocator<std::pair<unsigned long const ,ioEtcItem *> >,0> >::_Parent
; Function compile flags: /Ogsp
;	COMDAT ?_Parent@?$_Tree_val@V?$_Tmap_traits@KPAVioEtcItem@@U?$less@K@std@@V?$allocator@U?$pair@$$CBKPAVioEtcItem@@@std@@@3@$0A@@std@@@std@@SAAAPAU_Node@?$_Tree_nod@V?$_Tmap_traits@KPAVioEtcItem@@U?$less@K@std@@V?$allocator@U?$pair@$$CBKPAVioEtcItem@@@std@@@3@$0A@@std@@@2@PAU342@@Z
_TEXT	SEGMENT
__Pnode$ = 8						; size = 4
?_Parent@?$_Tree_val@V?$_Tmap_traits@KPAVioEtcItem@@U?$less@K@std@@V?$allocator@U?$pair@$$CBKPAVioEtcItem@@@std@@@3@$0A@@std@@@std@@SAAAPAU_Node@?$_Tree_nod@V?$_Tmap_traits@KPAVioEtcItem@@U?$less@K@std@@V?$allocator@U?$pair@$$CBKPAVioEtcItem@@@std@@@3@$0A@@std@@@2@PAU342@@Z PROC ; std::_Tree_val<std::_Tmap_traits<unsigned long,ioEtcItem *,std::less<unsigned long>,std::allocator<std::pair<unsigned long const ,ioEtcItem *> >,0> >::_Parent, COMDAT

; 626  : 		{	// return reference to parent pointer in node

  00000	55		 push	 ebp
  00001	8b ec		 mov	 ebp, esp

; 627  : 		return ((_Nodepref)(*_Pnode)._Parent);

  00003	8b 45 08	 mov	 eax, DWORD PTR __Pnode$[ebp]
  00006	83 c0 04	 add	 eax, 4

; 628  : 		}

  00009	5d		 pop	 ebp
  0000a	c3		 ret	 0
?_Parent@?$_Tree_val@V?$_Tmap_traits@KPAVioEtcItem@@U?$less@K@std@@V?$allocator@U?$pair@$$CBKPAVioEtcItem@@@std@@@3@$0A@@std@@@std@@SAAAPAU_Node@?$_Tree_nod@V?$_Tmap_traits@KPAVioEtcItem@@U?$less@K@std@@V?$allocator@U?$pair@$$CBKPAVioEtcItem@@@std@@@3@$0A@@std@@@2@PAU342@@Z ENDP ; std::_Tree_val<std::_Tmap_traits<unsigned long,ioEtcItem *,std::less<unsigned long>,std::allocator<std::pair<unsigned long const ,ioEtcItem *> >,0> >::_Parent
_TEXT	ENDS
PUBLIC	?_Right@?$_Tree_val@V?$_Tmap_traits@KPAVioEtcItem@@U?$less@K@std@@V?$allocator@U?$pair@$$CBKPAVioEtcItem@@@std@@@3@$0A@@std@@@std@@SAAAPAU_Node@?$_Tree_nod@V?$_Tmap_traits@KPAVioEtcItem@@U?$less@K@std@@V?$allocator@U?$pair@$$CBKPAVioEtcItem@@@std@@@3@$0A@@std@@@2@PAU342@@Z ; std::_Tree_val<std::_Tmap_traits<unsigned long,ioEtcItem *,std::less<unsigned long>,std::allocator<std::pair<unsigned long const ,ioEtcItem *> >,0> >::_Right
; Function compile flags: /Ogsp
;	COMDAT ?_Right@?$_Tree_val@V?$_Tmap_traits@KPAVioEtcItem@@U?$less@K@std@@V?$allocator@U?$pair@$$CBKPAVioEtcItem@@@std@@@3@$0A@@std@@@std@@SAAAPAU_Node@?$_Tree_nod@V?$_Tmap_traits@KPAVioEtcItem@@U?$less@K@std@@V?$allocator@U?$pair@$$CBKPAVioEtcItem@@@std@@@3@$0A@@std@@@2@PAU342@@Z
_TEXT	SEGMENT
__Pnode$ = 8						; size = 4
?_Right@?$_Tree_val@V?$_Tmap_traits@KPAVioEtcItem@@U?$less@K@std@@V?$allocator@U?$pair@$$CBKPAVioEtcItem@@@std@@@3@$0A@@std@@@std@@SAAAPAU_Node@?$_Tree_nod@V?$_Tmap_traits@KPAVioEtcItem@@U?$less@K@std@@V?$allocator@U?$pair@$$CBKPAVioEtcItem@@@std@@@3@$0A@@std@@@2@PAU342@@Z PROC ; std::_Tree_val<std::_Tmap_traits<unsigned long,ioEtcItem *,std::less<unsigned long>,std::allocator<std::pair<unsigned long const ,ioEtcItem *> >,0> >::_Right, COMDAT

; 631  : 		{	// return reference to right pointer in node

  00000	55		 push	 ebp
  00001	8b ec		 mov	 ebp, esp

; 632  : 		return ((_Nodepref)(*_Pnode)._Right);

  00003	8b 45 08	 mov	 eax, DWORD PTR __Pnode$[ebp]
  00006	83 c0 08	 add	 eax, 8

; 633  : 		}

  00009	5d		 pop	 ebp
  0000a	c3		 ret	 0
?_Right@?$_Tree_val@V?$_Tmap_traits@KPAVioEtcItem@@U?$less@K@std@@V?$allocator@U?$pair@$$CBKPAVioEtcItem@@@std@@@3@$0A@@std@@@std@@SAAAPAU_Node@?$_Tree_nod@V?$_Tmap_traits@KPAVioEtcItem@@U?$less@K@std@@V?$allocator@U?$pair@$$CBKPAVioEtcItem@@@std@@@3@$0A@@std@@@2@PAU342@@Z ENDP ; std::_Tree_val<std::_Tmap_traits<unsigned long,ioEtcItem *,std::less<unsigned long>,std::allocator<std::pair<unsigned long const ,ioEtcItem *> >,0> >::_Right
_TEXT	ENDS
PUBLIC	?_Myval@?$_Tree_val@V?$_Tmap_traits@KPAVioEtcItem@@U?$less@K@std@@V?$allocator@U?$pair@$$CBKPAVioEtcItem@@@std@@@3@$0A@@std@@@std@@SAAAU?$pair@$$CBKPAVioEtcItem@@@2@PAU_Node@?$_Tree_nod@V?$_Tmap_traits@KPAVioEtcItem@@U?$less@K@std@@V?$allocator@U?$pair@$$CBKPAVioEtcItem@@@std@@@3@$0A@@std@@@2@@Z ; std::_Tree_val<std::_Tmap_traits<unsigned long,ioEtcItem *,std::less<unsigned long>,std::allocator<std::pair<unsigned long const ,ioEtcItem *> >,0> >::_Myval
; Function compile flags: /Ogsp
;	COMDAT ?_Myval@?$_Tree_val@V?$_Tmap_traits@KPAVioEtcItem@@U?$less@K@std@@V?$allocator@U?$pair@$$CBKPAVioEtcItem@@@std@@@3@$0A@@std@@@std@@SAAAU?$pair@$$CBKPAVioEtcItem@@@2@PAU_Node@?$_Tree_nod@V?$_Tmap_traits@KPAVioEtcItem@@U?$less@K@std@@V?$allocator@U?$pair@$$CBKPAVioEtcItem@@@std@@@3@$0A@@std@@@2@@Z
_TEXT	SEGMENT
__Pnode$ = 8						; size = 4
?_Myval@?$_Tree_val@V?$_Tmap_traits@KPAVioEtcItem@@U?$less@K@std@@V?$allocator@U?$pair@$$CBKPAVioEtcItem@@@std@@@3@$0A@@std@@@std@@SAAAU?$pair@$$CBKPAVioEtcItem@@@2@PAU_Node@?$_Tree_nod@V?$_Tmap_traits@KPAVioEtcItem@@U?$less@K@std@@V?$allocator@U?$pair@$$CBKPAVioEtcItem@@@std@@@3@$0A@@std@@@2@@Z PROC ; std::_Tree_val<std::_Tmap_traits<unsigned long,ioEtcItem *,std::less<unsigned long>,std::allocator<std::pair<unsigned long const ,ioEtcItem *> >,0> >::_Myval, COMDAT

; 636  : 		{	// return reference to value in node

  00000	55		 push	 ebp
  00001	8b ec		 mov	 ebp, esp

; 637  : 		return ((reference)(*_Pnode)._Myval);

  00003	8b 45 08	 mov	 eax, DWORD PTR __Pnode$[ebp]
  00006	83 c0 0c	 add	 eax, 12			; 0000000cH

; 638  : 		}

  00009	5d		 pop	 ebp
  0000a	c3		 ret	 0
?_Myval@?$_Tree_val@V?$_Tmap_traits@KPAVioEtcItem@@U?$less@K@std@@V?$allocator@U?$pair@$$CBKPAVioEtcItem@@@std@@@3@$0A@@std@@@std@@SAAAU?$pair@$$CBKPAVioEtcItem@@@2@PAU_Node@?$_Tree_nod@V?$_Tmap_traits@KPAVioEtcItem@@U?$less@K@std@@V?$allocator@U?$pair@$$CBKPAVioEtcItem@@@std@@@3@$0A@@std@@@2@@Z ENDP ; std::_Tree_val<std::_Tmap_traits<unsigned long,ioEtcItem *,std::less<unsigned long>,std::allocator<std::pair<unsigned long const ,ioEtcItem *> >,0> >::_Myval
_TEXT	ENDS
PUBLIC	?_Min@?$_Tree_val@V?$_Tmap_traits@KPAVioEtcItem@@U?$less@K@std@@V?$allocator@U?$pair@$$CBKPAVioEtcItem@@@std@@@3@$0A@@std@@@std@@SAPAU_Node@?$_Tree_nod@V?$_Tmap_traits@KPAVioEtcItem@@U?$less@K@std@@V?$allocator@U?$pair@$$CBKPAVioEtcItem@@@std@@@3@$0A@@std@@@2@PAU342@@Z ; std::_Tree_val<std::_Tmap_traits<unsigned long,ioEtcItem *,std::less<unsigned long>,std::allocator<std::pair<unsigned long const ,ioEtcItem *> >,0> >::_Min
; Function compile flags: /Ogsp
;	COMDAT ?_Min@?$_Tree_val@V?$_Tmap_traits@KPAVioEtcItem@@U?$less@K@std@@V?$allocator@U?$pair@$$CBKPAVioEtcItem@@@std@@@3@$0A@@std@@@std@@SAPAU_Node@?$_Tree_nod@V?$_Tmap_traits@KPAVioEtcItem@@U?$less@K@std@@V?$allocator@U?$pair@$$CBKPAVioEtcItem@@@std@@@3@$0A@@std@@@2@PAU342@@Z
_TEXT	SEGMENT
__Pnode$ = 8						; size = 4
?_Min@?$_Tree_val@V?$_Tmap_traits@KPAVioEtcItem@@U?$less@K@std@@V?$allocator@U?$pair@$$CBKPAVioEtcItem@@@std@@@3@$0A@@std@@@std@@SAPAU_Node@?$_Tree_nod@V?$_Tmap_traits@KPAVioEtcItem@@U?$less@K@std@@V?$allocator@U?$pair@$$CBKPAVioEtcItem@@@std@@@3@$0A@@std@@@2@PAU342@@Z PROC ; std::_Tree_val<std::_Tmap_traits<unsigned long,ioEtcItem *,std::less<unsigned long>,std::allocator<std::pair<unsigned long const ,ioEtcItem *> >,0> >::_Min, COMDAT

; 648  : 		{	// return leftmost node in subtree at _Pnode

  00000	55		 push	 ebp
  00001	8b ec		 mov	 ebp, esp

; 649  : 		while (!_Isnil(_Left(_Pnode)))

  00003	8b 45 08	 mov	 eax, DWORD PTR __Pnode$[ebp]
  00006	eb 02		 jmp	 SHORT $LN14@Min
$LL2@Min:

; 650  : 			_Pnode = _Left(_Pnode);

  00008	8b c1		 mov	 eax, ecx
$LN14@Min:

; 649  : 		while (!_Isnil(_Left(_Pnode)))

  0000a	8b 08		 mov	 ecx, DWORD PTR [eax]
  0000c	80 79 15 00	 cmp	 BYTE PTR [ecx+21], 0
  00010	74 f6		 je	 SHORT $LL2@Min

; 651  : 		return (_Pnode);
; 652  : 		}

  00012	5d		 pop	 ebp
  00013	c3		 ret	 0
?_Min@?$_Tree_val@V?$_Tmap_traits@KPAVioEtcItem@@U?$less@K@std@@V?$allocator@U?$pair@$$CBKPAVioEtcItem@@@std@@@3@$0A@@std@@@std@@SAPAU_Node@?$_Tree_nod@V?$_Tmap_traits@KPAVioEtcItem@@U?$less@K@std@@V?$allocator@U?$pair@$$CBKPAVioEtcItem@@@std@@@3@$0A@@std@@@2@PAU342@@Z ENDP ; std::_Tree_val<std::_Tmap_traits<unsigned long,ioEtcItem *,std::less<unsigned long>,std::allocator<std::pair<unsigned long const ,ioEtcItem *> >,0> >::_Min
_TEXT	ENDS
PUBLIC	??0?$allocator@U?$pair@$$CBKPAVioEtcItem@@@std@@@std@@QAE@ABV01@@Z ; std::allocator<std::pair<unsigned long const ,ioEtcItem *> >::allocator<std::pair<unsigned long const ,ioEtcItem *> >
; Function compile flags: /Ogsp
; File c:\program files (x86)\microsoft visual studio 10.0\vc\include\xmemory
;	COMDAT ??0?$allocator@U?$pair@$$CBKPAVioEtcItem@@@std@@@std@@QAE@ABV01@@Z
_TEXT	SEGMENT
___formal$ = 8						; size = 4
??0?$allocator@U?$pair@$$CBKPAVioEtcItem@@@std@@@std@@QAE@ABV01@@Z PROC ; std::allocator<std::pair<unsigned long const ,ioEtcItem *> >::allocator<std::pair<unsigned long const ,ioEtcItem *> >, COMDAT
; _this$ = ecx

; 165  : 	_ALLOCATOR(const _ALLOCATOR<_Ty>&) _THROW0()

  00000	8b c1		 mov	 eax, ecx

; 166  : 		{	// construct by copying (do nothing)
; 167  : 		}

  00002	c2 04 00	 ret	 4
??0?$allocator@U?$pair@$$CBKPAVioEtcItem@@@std@@@std@@QAE@ABV01@@Z ENDP ; std::allocator<std::pair<unsigned long const ,ioEtcItem *> >::allocator<std::pair<unsigned long const ,ioEtcItem *> >
_TEXT	ENDS
PUBLIC	?deallocate@?$allocator@U_Node@?$_Tree_nod@V?$_Tmap_traits@KPAVioEtcItem@@U?$less@K@std@@V?$allocator@U?$pair@$$CBKPAVioEtcItem@@@std@@@3@$0A@@std@@@std@@@std@@QAEXPAU_Node@?$_Tree_nod@V?$_Tmap_traits@KPAVioEtcItem@@U?$less@K@std@@V?$allocator@U?$pair@$$CBKPAVioEtcItem@@@std@@@3@$0A@@std@@@2@I@Z ; std::allocator<std::_Tree_nod<std::_Tmap_traits<unsigned long,ioEtcItem *,std::less<unsigned long>,std::allocator<std::pair<unsigned long const ,ioEtcItem *> >,0> >::_Node>::deallocate
; Function compile flags: /Ogsp
;	COMDAT ?deallocate@?$allocator@U_Node@?$_Tree_nod@V?$_Tmap_traits@KPAVioEtcItem@@U?$less@K@std@@V?$allocator@U?$pair@$$CBKPAVioEtcItem@@@std@@@3@$0A@@std@@@std@@@std@@QAEXPAU_Node@?$_Tree_nod@V?$_Tmap_traits@KPAVioEtcItem@@U?$less@K@std@@V?$allocator@U?$pair@$$CBKPAVioEtcItem@@@std@@@3@$0A@@std@@@2@I@Z
_TEXT	SEGMENT
__Ptr$ = 8						; size = 4
___formal$ = 12						; size = 4
?deallocate@?$allocator@U_Node@?$_Tree_nod@V?$_Tmap_traits@KPAVioEtcItem@@U?$less@K@std@@V?$allocator@U?$pair@$$CBKPAVioEtcItem@@@std@@@3@$0A@@std@@@std@@@std@@QAEXPAU_Node@?$_Tree_nod@V?$_Tmap_traits@KPAVioEtcItem@@U?$less@K@std@@V?$allocator@U?$pair@$$CBKPAVioEtcItem@@@std@@@3@$0A@@std@@@2@I@Z PROC ; std::allocator<std::_Tree_nod<std::_Tmap_traits<unsigned long,ioEtcItem *,std::less<unsigned long>,std::allocator<std::pair<unsigned long const ,ioEtcItem *> >,0> >::_Node>::deallocate, COMDAT
; _this$ = ecx

; 181  : 		{	// deallocate object at _Ptr, ignore size

  00000	55		 push	 ebp
  00001	8b ec		 mov	 ebp, esp

; 182  : 		::operator delete(_Ptr);

  00003	ff 75 08	 push	 DWORD PTR __Ptr$[ebp]
  00006	e8 00 00 00 00	 call	 ??3@YAXPAX@Z		; operator delete
  0000b	59		 pop	 ecx

; 183  : 		}

  0000c	5d		 pop	 ebp
  0000d	c2 08 00	 ret	 8
?deallocate@?$allocator@U_Node@?$_Tree_nod@V?$_Tmap_traits@KPAVioEtcItem@@U?$less@K@std@@V?$allocator@U?$pair@$$CBKPAVioEtcItem@@@std@@@3@$0A@@std@@@std@@@std@@QAEXPAU_Node@?$_Tree_nod@V?$_Tmap_traits@KPAVioEtcItem@@U?$less@K@std@@V?$allocator@U?$pair@$$CBKPAVioEtcItem@@@std@@@3@$0A@@std@@@2@I@Z ENDP ; std::allocator<std::_Tree_nod<std::_Tmap_traits<unsigned long,ioEtcItem *,std::less<unsigned long>,std::allocator<std::pair<unsigned long const ,ioEtcItem *> >,0> >::_Node>::deallocate
_TEXT	ENDS
PUBLIC	??D?$_Tree_const_iterator@V?$_Tree_val@V?$_Tmap_traits@KPAVioEtcItem@@U?$less@K@std@@V?$allocator@U?$pair@$$CBKPAVioEtcItem@@@std@@@3@$0A@@std@@@std@@@std@@QBEABU?$pair@$$CBKPAVioEtcItem@@@1@XZ ; std::_Tree_const_iterator<std::_Tree_val<std::_Tmap_traits<unsigned long,ioEtcItem *,std::less<unsigned long>,std::allocator<std::pair<unsigned long const ,ioEtcItem *> >,0> > >::operator*
; Function compile flags: /Ogsp
; File c:\program files (x86)\microsoft visual studio 10.0\vc\include\xtree
;	COMDAT ??D?$_Tree_const_iterator@V?$_Tree_val@V?$_Tmap_traits@KPAVioEtcItem@@U?$less@K@std@@V?$allocator@U?$pair@$$CBKPAVioEtcItem@@@std@@@3@$0A@@std@@@std@@@std@@QBEABU?$pair@$$CBKPAVioEtcItem@@@1@XZ
_TEXT	SEGMENT
??D?$_Tree_const_iterator@V?$_Tree_val@V?$_Tmap_traits@KPAVioEtcItem@@U?$less@K@std@@V?$allocator@U?$pair@$$CBKPAVioEtcItem@@@std@@@3@$0A@@std@@@std@@@std@@QBEABU?$pair@$$CBKPAVioEtcItem@@@1@XZ PROC ; std::_Tree_const_iterator<std::_Tree_val<std::_Tmap_traits<unsigned long,ioEtcItem *,std::less<unsigned long>,std::allocator<std::pair<unsigned long const ,ioEtcItem *> >,0> > >::operator*, COMDAT
; _this$ = ecx

; 231  :  #if _ITERATOR_DEBUG_LEVEL == 2
; 232  : 		if (this->_Getcont() == 0
; 233  : 			|| this->_Ptr == 0
; 234  : 			|| this->_Ptr == ((_Mytree *)this->_Getcont())->_Myhead)
; 235  : 			{	// report error
; 236  : 			_DEBUG_ERROR("map/set iterator not dereferencable");
; 237  : 			_SCL_SECURE_OUT_OF_RANGE;
; 238  : 			}
; 239  : 
; 240  :  #elif _ITERATOR_DEBUG_LEVEL == 1
; 241  : 		_SCL_SECURE_VALIDATE(this->_Getcont() != 0 && this->_Ptr != 0);
; 242  : 		_SCL_SECURE_VALIDATE_RANGE(this->_Ptr !=
; 243  : 			((_Mytree *)this->_Getcont())->_Myhead);
; 244  :  #endif /* _ITERATOR_DEBUG_LEVEL */
; 245  : 
; 246  : 		return (_Mytree::_Myval(this->_Ptr));

  00000	8b 01		 mov	 eax, DWORD PTR [ecx]
  00002	83 c0 0c	 add	 eax, 12			; 0000000cH

; 247  : 		}

  00005	c3		 ret	 0
??D?$_Tree_const_iterator@V?$_Tree_val@V?$_Tmap_traits@KPAVioEtcItem@@U?$less@K@std@@V?$allocator@U?$pair@$$CBKPAVioEtcItem@@@std@@@3@$0A@@std@@@std@@@std@@QBEABU?$pair@$$CBKPAVioEtcItem@@@1@XZ ENDP ; std::_Tree_const_iterator<std::_Tree_val<std::_Tmap_traits<unsigned long,ioEtcItem *,std::less<unsigned long>,std::allocator<std::pair<unsigned long const ,ioEtcItem *> >,0> > >::operator*
_TEXT	ENDS
PUBLIC	??0?$_Tree_unchecked_const_iterator@V?$_Tree_val@V?$_Tmap_traits@KPAVioEtcItem@@U?$less@K@std@@V?$allocator@U?$pair@$$CBKPAVioEtcItem@@@std@@@3@$0A@@std@@@std@@U_Iterator_base0@2@@std@@QAE@PAU_Node@?$_Tree_nod@V?$_Tmap_traits@KPAVioEtcItem@@U?$less@K@std@@V?$allocator@U?$pair@$$CBKPAVioEtcItem@@@std@@@3@$0A@@std@@@1@PBV?$_Tree_val@V?$_Tmap_traits@KPAVioEtcItem@@U?$less@K@std@@V?$allocator@U?$pair@$$CBKPAVioEtcItem@@@std@@@3@$0A@@std@@@1@@Z ; std::_Tree_unchecked_const_iterator<std::_Tree_val<std::_Tmap_traits<unsigned long,ioEtcItem *,std::less<unsigned long>,std::allocator<std::pair<unsigned long const ,ioEtcItem *> >,0> >,std::_Iterator_base0>::_Tree_unchecked_const_iterator<std::_Tree_val<std::_Tmap_traits<unsigned long,ioEtcItem *,std::less<unsigned long>,std::allocator<std::pair<unsigned long const ,ioEtcItem *> >,0> >,std::_Iterator_base0>
; Function compile flags: /Ogsp
;	COMDAT ??0?$_Tree_unchecked_const_iterator@V?$_Tree_val@V?$_Tmap_traits@KPAVioEtcItem@@U?$less@K@std@@V?$allocator@U?$pair@$$CBKPAVioEtcItem@@@std@@@3@$0A@@std@@@std@@U_Iterator_base0@2@@std@@QAE@PAU_Node@?$_Tree_nod@V?$_Tmap_traits@KPAVioEtcItem@@U?$less@K@std@@V?$allocator@U?$pair@$$CBKPAVioEtcItem@@@std@@@3@$0A@@std@@@1@PBV?$_Tree_val@V?$_Tmap_traits@KPAVioEtcItem@@U?$less@K@std@@V?$allocator@U?$pair@$$CBKPAVioEtcItem@@@std@@@3@$0A@@std@@@1@@Z
_TEXT	SEGMENT
__Pnode$ = 8						; size = 4
__Plist$ = 12						; size = 4
??0?$_Tree_unchecked_const_iterator@V?$_Tree_val@V?$_Tmap_traits@KPAVioEtcItem@@U?$less@K@std@@V?$allocator@U?$pair@$$CBKPAVioEtcItem@@@std@@@3@$0A@@std@@@std@@U_Iterator_base0@2@@std@@QAE@PAU_Node@?$_Tree_nod@V?$_Tmap_traits@KPAVioEtcItem@@U?$less@K@std@@V?$allocator@U?$pair@$$CBKPAVioEtcItem@@@std@@@3@$0A@@std@@@1@PBV?$_Tree_val@V?$_Tmap_traits@KPAVioEtcItem@@U?$less@K@std@@V?$allocator@U?$pair@$$CBKPAVioEtcItem@@@std@@@3@$0A@@std@@@1@@Z PROC ; std::_Tree_unchecked_const_iterator<std::_Tree_val<std::_Tmap_traits<unsigned long,ioEtcItem *,std::less<unsigned long>,std::allocator<std::pair<unsigned long const ,ioEtcItem *> >,0> >,std::_Iterator_base0>::_Tree_unchecked_const_iterator<std::_Tree_val<std::_Tmap_traits<unsigned long,ioEtcItem *,std::less<unsigned long>,std::allocator<std::pair<unsigned long const ,ioEtcItem *> >,0> >,std::_Iterator_base0>, COMDAT
; _this$ = ecx

; 43   : 		{	// construct with node pointer _Pnode

  00000	55		 push	 ebp
  00001	8b ec		 mov	 ebp, esp
  00003	8b c1		 mov	 eax, ecx
  00005	8b 4d 08	 mov	 ecx, DWORD PTR __Pnode$[ebp]
  00008	89 08		 mov	 DWORD PTR [eax], ecx

; 44   : 		this->_Adopt(_Plist);
; 45   : 		}

  0000a	5d		 pop	 ebp
  0000b	c2 08 00	 ret	 8
??0?$_Tree_unchecked_const_iterator@V?$_Tree_val@V?$_Tmap_traits@KPAVioEtcItem@@U?$less@K@std@@V?$allocator@U?$pair@$$CBKPAVioEtcItem@@@std@@@3@$0A@@std@@@std@@U_Iterator_base0@2@@std@@QAE@PAU_Node@?$_Tree_nod@V?$_Tmap_traits@KPAVioEtcItem@@U?$less@K@std@@V?$allocator@U?$pair@$$CBKPAVioEtcItem@@@std@@@3@$0A@@std@@@1@PBV?$_Tree_val@V?$_Tmap_traits@KPAVioEtcItem@@U?$less@K@std@@V?$allocator@U?$pair@$$CBKPAVioEtcItem@@@std@@@3@$0A@@std@@@1@@Z ENDP ; std::_Tree_unchecked_const_iterator<std::_Tree_val<std::_Tmap_traits<unsigned long,ioEtcItem *,std::less<unsigned long>,std::allocator<std::pair<unsigned long const ,ioEtcItem *> >,0> >,std::_Iterator_base0>::_Tree_unchecked_const_iterator<std::_Tree_val<std::_Tmap_traits<unsigned long,ioEtcItem *,std::less<unsigned long>,std::allocator<std::pair<unsigned long const ,ioEtcItem *> >,0> >,std::_Iterator_base0>
_TEXT	ENDS
PUBLIC	?capacity@?$vector@PBVioEtcItem@@V?$allocator@PBVioEtcItem@@@std@@@std@@QBEIXZ ; std::vector<ioEtcItem const *,std::allocator<ioEtcItem const *> >::capacity
; Function compile flags: /Ogsp
; File c:\program files (x86)\microsoft visual studio 10.0\vc\include\vector
;	COMDAT ?capacity@?$vector@PBVioEtcItem@@V?$allocator@PBVioEtcItem@@@std@@@std@@QBEIXZ
_TEXT	SEGMENT
?capacity@?$vector@PBVioEtcItem@@V?$allocator@PBVioEtcItem@@@std@@@std@@QBEIXZ PROC ; std::vector<ioEtcItem const *,std::allocator<ioEtcItem const *> >::capacity, COMDAT
; _this$ = ecx

; 777  : 		return (this->_Myend - this->_Myfirst);

  00000	8b 41 08	 mov	 eax, DWORD PTR [ecx+8]
  00003	2b 01		 sub	 eax, DWORD PTR [ecx]
  00005	c1 f8 02	 sar	 eax, 2

; 778  : 		}

  00008	c3		 ret	 0
?capacity@?$vector@PBVioEtcItem@@V?$allocator@PBVioEtcItem@@@std@@@std@@QBEIXZ ENDP ; std::vector<ioEtcItem const *,std::allocator<ioEtcItem const *> >::capacity
_TEXT	ENDS
PUBLIC	?size@?$vector@PBVioEtcItem@@V?$allocator@PBVioEtcItem@@@std@@@std@@QBEIXZ ; std::vector<ioEtcItem const *,std::allocator<ioEtcItem const *> >::size
; Function compile flags: /Ogsp
;	COMDAT ?size@?$vector@PBVioEtcItem@@V?$allocator@PBVioEtcItem@@@std@@@std@@QBEIXZ
_TEXT	SEGMENT
?size@?$vector@PBVioEtcItem@@V?$allocator@PBVioEtcItem@@@std@@@std@@QBEIXZ PROC ; std::vector<ioEtcItem const *,std::allocator<ioEtcItem const *> >::size, COMDAT
; _this$ = ecx

; 879  : 		return (this->_Mylast - this->_Myfirst);

  00000	8b 41 04	 mov	 eax, DWORD PTR [ecx+4]
  00003	2b 01		 sub	 eax, DWORD PTR [ecx]
  00005	c1 f8 02	 sar	 eax, 2

; 880  : 		}

  00008	c3		 ret	 0
?size@?$vector@PBVioEtcItem@@V?$allocator@PBVioEtcItem@@@std@@@std@@QBEIXZ ENDP ; std::vector<ioEtcItem const *,std::allocator<ioEtcItem const *> >::size
_TEXT	ENDS
PUBLIC	??_C@_0BD@OLBABOEK@vector?$DMT?$DO?5too?5long?$AA@ ; `string'
PUBLIC	?_Xlen@?$vector@PBVioEtcItem@@V?$allocator@PBVioEtcItem@@@std@@@std@@IBEXXZ ; std::vector<ioEtcItem const *,std::allocator<ioEtcItem const *> >::_Xlen
EXTRN	__imp_?_Xlength_error@std@@YAXPBD@Z:PROC
;	COMDAT ??_C@_0BD@OLBABOEK@vector?$DMT?$DO?5too?5long?$AA@
CONST	SEGMENT
??_C@_0BD@OLBABOEK@vector?$DMT?$DO?5too?5long?$AA@ DB 'vector<T> too long'
	DB	00H						; `string'
; Function compile flags: /Ogsp
CONST	ENDS
;	COMDAT ?_Xlen@?$vector@PBVioEtcItem@@V?$allocator@PBVioEtcItem@@@std@@@std@@IBEXXZ
_TEXT	SEGMENT
?_Xlen@?$vector@PBVioEtcItem@@V?$allocator@PBVioEtcItem@@@std@@@std@@IBEXXZ PROC ; std::vector<ioEtcItem const *,std::allocator<ioEtcItem const *> >::_Xlen, COMDAT
; _this$ = ecx

; 1427 : 		_Xlength_error("vector<T> too long");

  00000	68 00 00 00 00	 push	 OFFSET ??_C@_0BD@OLBABOEK@vector?$DMT?$DO?5too?5long?$AA@
  00005	ff 15 00 00 00
	00		 call	 DWORD PTR __imp_?_Xlength_error@std@@YAXPBD@Z
$LN4@Xlen:
$LN3@Xlen:
  0000b	cc		 int	 3
?_Xlen@?$vector@PBVioEtcItem@@V?$allocator@PBVioEtcItem@@@std@@@std@@IBEXXZ ENDP ; std::vector<ioEtcItem const *,std::allocator<ioEtcItem const *> >::_Xlen
_TEXT	ENDS
PUBLIC	?_Color@?$_Tree_val@V?$_Tmap_traits@KPAVioEtcItem@@U?$less@K@std@@V?$allocator@U?$pair@$$CBKPAVioEtcItem@@@std@@@3@$0A@@std@@@std@@SAAADPAU_Node@?$_Tree_nod@V?$_Tmap_traits@KPAVioEtcItem@@U?$less@K@std@@V?$allocator@U?$pair@$$CBKPAVioEtcItem@@@std@@@3@$0A@@std@@@2@@Z ; std::_Tree_val<std::_Tmap_traits<unsigned long,ioEtcItem *,std::less<unsigned long>,std::allocator<std::pair<unsigned long const ,ioEtcItem *> >,0> >::_Color
; Function compile flags: /Ogsp
; File c:\program files (x86)\microsoft visual studio 10.0\vc\include\xtree
;	COMDAT ?_Color@?$_Tree_val@V?$_Tmap_traits@KPAVioEtcItem@@U?$less@K@std@@V?$allocator@U?$pair@$$CBKPAVioEtcItem@@@std@@@3@$0A@@std@@@std@@SAAADPAU_Node@?$_Tree_nod@V?$_Tmap_traits@KPAVioEtcItem@@U?$less@K@std@@V?$allocator@U?$pair@$$CBKPAVioEtcItem@@@std@@@3@$0A@@std@@@2@@Z
_TEXT	SEGMENT
__Pnode$ = 8						; size = 4
?_Color@?$_Tree_val@V?$_Tmap_traits@KPAVioEtcItem@@U?$less@K@std@@V?$allocator@U?$pair@$$CBKPAVioEtcItem@@@std@@@3@$0A@@std@@@std@@SAAADPAU_Node@?$_Tree_nod@V?$_Tmap_traits@KPAVioEtcItem@@U?$less@K@std@@V?$allocator@U?$pair@$$CBKPAVioEtcItem@@@std@@@3@$0A@@std@@@2@@Z PROC ; std::_Tree_val<std::_Tmap_traits<unsigned long,ioEtcItem *,std::less<unsigned long>,std::allocator<std::pair<unsigned long const ,ioEtcItem *> >,0> >::_Color, COMDAT

; 606  : 		{	// return reference to color in node

  00000	55		 push	 ebp
  00001	8b ec		 mov	 ebp, esp

; 607  : 		return ((char&)(*_Pnode)._Color);

  00003	8b 45 08	 mov	 eax, DWORD PTR __Pnode$[ebp]
  00006	83 c0 14	 add	 eax, 20			; 00000014H

; 608  : 		}

  00009	5d		 pop	 ebp
  0000a	c3		 ret	 0
?_Color@?$_Tree_val@V?$_Tmap_traits@KPAVioEtcItem@@U?$less@K@std@@V?$allocator@U?$pair@$$CBKPAVioEtcItem@@@std@@@3@$0A@@std@@@std@@SAAADPAU_Node@?$_Tree_nod@V?$_Tmap_traits@KPAVioEtcItem@@U?$less@K@std@@V?$allocator@U?$pair@$$CBKPAVioEtcItem@@@std@@@3@$0A@@std@@@2@@Z ENDP ; std::_Tree_val<std::_Tmap_traits<unsigned long,ioEtcItem *,std::less<unsigned long>,std::allocator<std::pair<unsigned long const ,ioEtcItem *> >,0> >::_Color
_TEXT	ENDS
PUBLIC	?deallocate@?$allocator@PBVioEtcItem@@@std@@QAEXPAPBVioEtcItem@@I@Z ; std::allocator<ioEtcItem const *>::deallocate
; Function compile flags: /Ogsp
; File c:\program files (x86)\microsoft visual studio 10.0\vc\include\xmemory
;	COMDAT ?deallocate@?$allocator@PBVioEtcItem@@@std@@QAEXPAPBVioEtcItem@@I@Z
_TEXT	SEGMENT
__Ptr$ = 8						; size = 4
___formal$ = 12						; size = 4
?deallocate@?$allocator@PBVioEtcItem@@@std@@QAEXPAPBVioEtcItem@@I@Z PROC ; std::allocator<ioEtcItem const *>::deallocate, COMDAT
; _this$ = ecx

; 181  : 		{	// deallocate object at _Ptr, ignore size

  00000	55		 push	 ebp
  00001	8b ec		 mov	 ebp, esp

; 182  : 		::operator delete(_Ptr);

  00003	ff 75 08	 push	 DWORD PTR __Ptr$[ebp]
  00006	e8 00 00 00 00	 call	 ??3@YAXPAX@Z		; operator delete
  0000b	59		 pop	 ecx

; 183  : 		}

  0000c	5d		 pop	 ebp
  0000d	c2 08 00	 ret	 8
?deallocate@?$allocator@PBVioEtcItem@@@std@@QAEXPAPBVioEtcItem@@I@Z ENDP ; std::allocator<ioEtcItem const *>::deallocate
_TEXT	ENDS
PUBLIC	?max_size@?$allocator@PBVioEtcItem@@@std@@QBEIXZ ; std::allocator<ioEtcItem const *>::max_size
; Function compile flags: /Ogsp
;	COMDAT ?max_size@?$allocator@PBVioEtcItem@@@std@@QBEIXZ
_TEXT	SEGMENT
?max_size@?$allocator@PBVioEtcItem@@@std@@QBEIXZ PROC	; std::allocator<ioEtcItem const *>::max_size, COMDAT
; _this$ = ecx

; 218  : 		_SIZT _Count = (_SIZT)(-1) / sizeof (_Ty);
; 219  : 		return (0 < _Count ? _Count : 1);

  00000	b8 ff ff ff 3f	 mov	 eax, 1073741823		; 3fffffffH

; 220  : 		}

  00005	c3		 ret	 0
?max_size@?$allocator@PBVioEtcItem@@@std@@QBEIXZ ENDP	; std::allocator<ioEtcItem const *>::max_size
_TEXT	ENDS
PUBLIC	?_Max@?$_Tree_val@V?$_Tmap_traits@KPAVioEtcItem@@U?$less@K@std@@V?$allocator@U?$pair@$$CBKPAVioEtcItem@@@std@@@3@$0A@@std@@@std@@SAPAU_Node@?$_Tree_nod@V?$_Tmap_traits@KPAVioEtcItem@@U?$less@K@std@@V?$allocator@U?$pair@$$CBKPAVioEtcItem@@@std@@@3@$0A@@std@@@2@PAU342@@Z ; std::_Tree_val<std::_Tmap_traits<unsigned long,ioEtcItem *,std::less<unsigned long>,std::allocator<std::pair<unsigned long const ,ioEtcItem *> >,0> >::_Max
; Function compile flags: /Ogsp
; File c:\program files (x86)\microsoft visual studio 10.0\vc\include\xtree
;	COMDAT ?_Max@?$_Tree_val@V?$_Tmap_traits@KPAVioEtcItem@@U?$less@K@std@@V?$allocator@U?$pair@$$CBKPAVioEtcItem@@@std@@@3@$0A@@std@@@std@@SAPAU_Node@?$_Tree_nod@V?$_Tmap_traits@KPAVioEtcItem@@U?$less@K@std@@V?$allocator@U?$pair@$$CBKPAVioEtcItem@@@std@@@3@$0A@@std@@@2@PAU342@@Z
_TEXT	SEGMENT
__Pnode$ = 8						; size = 4
?_Max@?$_Tree_val@V?$_Tmap_traits@KPAVioEtcItem@@U?$less@K@std@@V?$allocator@U?$pair@$$CBKPAVioEtcItem@@@std@@@3@$0A@@std@@@std@@SAPAU_Node@?$_Tree_nod@V?$_Tmap_traits@KPAVioEtcItem@@U?$less@K@std@@V?$allocator@U?$pair@$$CBKPAVioEtcItem@@@std@@@3@$0A@@std@@@2@PAU342@@Z PROC ; std::_Tree_val<std::_Tmap_traits<unsigned long,ioEtcItem *,std::less<unsigned long>,std::allocator<std::pair<unsigned long const ,ioEtcItem *> >,0> >::_Max, COMDAT

; 641  : 		{	// return rightmost node in subtree at _Pnode

  00000	55		 push	 ebp
  00001	8b ec		 mov	 ebp, esp

; 642  : 		while (!_Isnil(_Right(_Pnode)))

  00003	8b 45 08	 mov	 eax, DWORD PTR __Pnode$[ebp]
  00006	eb 02		 jmp	 SHORT $LN14@Max
$LL2@Max:

; 643  : 			_Pnode = _Right(_Pnode);

  00008	8b c1		 mov	 eax, ecx
$LN14@Max:

; 642  : 		while (!_Isnil(_Right(_Pnode)))

  0000a	8b 48 08	 mov	 ecx, DWORD PTR [eax+8]
  0000d	80 79 15 00	 cmp	 BYTE PTR [ecx+21], 0
  00011	74 f5		 je	 SHORT $LL2@Max

; 644  : 		return (_Pnode);
; 645  : 		}

  00013	5d		 pop	 ebp
  00014	c3		 ret	 0
?_Max@?$_Tree_val@V?$_Tmap_traits@KPAVioEtcItem@@U?$less@K@std@@V?$allocator@U?$pair@$$CBKPAVioEtcItem@@@std@@@3@$0A@@std@@@std@@SAPAU_Node@?$_Tree_nod@V?$_Tmap_traits@KPAVioEtcItem@@U?$less@K@std@@V?$allocator@U?$pair@$$CBKPAVioEtcItem@@@std@@@3@$0A@@std@@@2@PAU342@@Z ENDP ; std::_Tree_val<std::_Tmap_traits<unsigned long,ioEtcItem *,std::less<unsigned long>,std::allocator<std::pair<unsigned long const ,ioEtcItem *> >,0> >::_Max
_TEXT	ENDS
PUBLIC	??0?$_Tmap_traits@KPAVioEtcItem@@U?$less@K@std@@V?$allocator@U?$pair@$$CBKPAVioEtcItem@@@std@@@3@$0A@@std@@QAE@U?$less@K@1@@Z ; std::_Tmap_traits<unsigned long,ioEtcItem *,std::less<unsigned long>,std::allocator<std::pair<unsigned long const ,ioEtcItem *> >,0>::_Tmap_traits<unsigned long,ioEtcItem *,std::less<unsigned long>,std::allocator<std::pair<unsigned long const ,ioEtcItem *> >,0>
; Function compile flags: /Ogsp
; File c:\program files (x86)\microsoft visual studio 10.0\vc\include\map
;	COMDAT ??0?$_Tmap_traits@KPAVioEtcItem@@U?$less@K@std@@V?$allocator@U?$pair@$$CBKPAVioEtcItem@@@std@@@3@$0A@@std@@QAE@U?$less@K@1@@Z
_TEXT	SEGMENT
__Parg$ = 8						; size = 1
??0?$_Tmap_traits@KPAVioEtcItem@@U?$less@K@std@@V?$allocator@U?$pair@$$CBKPAVioEtcItem@@@std@@@3@$0A@@std@@QAE@U?$less@K@1@@Z PROC ; std::_Tmap_traits<unsigned long,ioEtcItem *,std::less<unsigned long>,std::allocator<std::pair<unsigned long const ,ioEtcItem *> >,0>::_Tmap_traits<unsigned long,ioEtcItem *,std::less<unsigned long>,std::allocator<std::pair<unsigned long const ,ioEtcItem *> >,0>, COMDAT
; _this$ = ecx

; 40   : 		{	// construct with specified comparator

  00000	8b c1		 mov	 eax, ecx

; 41   : 		}

  00002	c2 04 00	 ret	 4
??0?$_Tmap_traits@KPAVioEtcItem@@U?$less@K@std@@V?$allocator@U?$pair@$$CBKPAVioEtcItem@@@std@@@3@$0A@@std@@QAE@U?$less@K@1@@Z ENDP ; std::_Tmap_traits<unsigned long,ioEtcItem *,std::less<unsigned long>,std::allocator<std::pair<unsigned long const ,ioEtcItem *> >,0>::_Tmap_traits<unsigned long,ioEtcItem *,std::less<unsigned long>,std::allocator<std::pair<unsigned long const ,ioEtcItem *> >,0>
_TEXT	ENDS
PUBLIC	??$addressof@H@std@@YAPAHAAH@Z			; std::addressof<int>
; Function compile flags: /Ogsp
; File c:\program files (x86)\microsoft visual studio 10.0\vc\include\xmemory
;	COMDAT ??$addressof@H@std@@YAPAHAAH@Z
_TEXT	SEGMENT
__Val$ = 8						; size = 4
??$addressof@H@std@@YAPAHAAH@Z PROC			; std::addressof<int>, COMDAT

; 110  : 	{	// return address of _Val

  00000	55		 push	 ebp
  00001	8b ec		 mov	 ebp, esp

; 111  : 	return ((_Ty *) &(char&)_Val);

  00003	8b 45 08	 mov	 eax, DWORD PTR __Val$[ebp]

; 112  : 	}

  00006	5d		 pop	 ebp
  00007	c3		 ret	 0
??$addressof@H@std@@YAPAHAAH@Z ENDP			; std::addressof<int>
_TEXT	ENDS
PUBLIC	??$addressof@QBVioEtcItem@@@std@@YAPBQBVioEtcItem@@ABQBV1@@Z ; std::addressof<ioEtcItem const * const>
; Function compile flags: /Ogsp
;	COMDAT ??$addressof@QBVioEtcItem@@@std@@YAPBQBVioEtcItem@@ABQBV1@@Z
_TEXT	SEGMENT
__Val$ = 8						; size = 4
??$addressof@QBVioEtcItem@@@std@@YAPBQBVioEtcItem@@ABQBV1@@Z PROC ; std::addressof<ioEtcItem const * const>, COMDAT

; 110  : 	{	// return address of _Val

  00000	55		 push	 ebp
  00001	8b ec		 mov	 ebp, esp

; 111  : 	return ((_Ty *) &(char&)_Val);

  00003	8b 45 08	 mov	 eax, DWORD PTR __Val$[ebp]

; 112  : 	}

  00006	5d		 pop	 ebp
  00007	c3		 ret	 0
??$addressof@QBVioEtcItem@@@std@@YAPBQBVioEtcItem@@ABQBV1@@Z ENDP ; std::addressof<ioEtcItem const * const>
_TEXT	ENDS
PUBLIC	??$addressof@U?$pair@$$CBKPAVioEtcItem@@@std@@@std@@YAPAU?$pair@$$CBKPAVioEtcItem@@@0@AAU10@@Z ; std::addressof<std::pair<unsigned long const ,ioEtcItem *> >
; Function compile flags: /Ogsp
;	COMDAT ??$addressof@U?$pair@$$CBKPAVioEtcItem@@@std@@@std@@YAPAU?$pair@$$CBKPAVioEtcItem@@@0@AAU10@@Z
_TEXT	SEGMENT
__Val$ = 8						; size = 4
??$addressof@U?$pair@$$CBKPAVioEtcItem@@@std@@@std@@YAPAU?$pair@$$CBKPAVioEtcItem@@@0@AAU10@@Z PROC ; std::addressof<std::pair<unsigned long const ,ioEtcItem *> >, COMDAT

; 110  : 	{	// return address of _Val

  00000	55		 push	 ebp
  00001	8b ec		 mov	 ebp, esp

; 111  : 	return ((_Ty *) &(char&)_Val);

  00003	8b 45 08	 mov	 eax, DWORD PTR __Val$[ebp]

; 112  : 	}

  00006	5d		 pop	 ebp
  00007	c3		 ret	 0
??$addressof@U?$pair@$$CBKPAVioEtcItem@@@std@@@std@@YAPAU?$pair@$$CBKPAVioEtcItem@@@0@AAU10@@Z ENDP ; std::addressof<std::pair<unsigned long const ,ioEtcItem *> >
_TEXT	ENDS
PUBLIC	??$_Kfn@$$CBKPAVioEtcItem@@@?$_Tmap_traits@KPAVioEtcItem@@U?$less@K@std@@V?$allocator@U?$pair@$$CBKPAVioEtcItem@@@std@@@3@$0A@@std@@SAABKABU?$pair@$$CBKPAVioEtcItem@@@1@@Z ; std::_Tmap_traits<unsigned long,ioEtcItem *,std::less<unsigned long>,std::allocator<std::pair<unsigned long const ,ioEtcItem *> >,0>::_Kfn<unsigned long const ,ioEtcItem *>
; Function compile flags: /Ogsp
; File c:\program files (x86)\microsoft visual studio 10.0\vc\include\map
;	COMDAT ??$_Kfn@$$CBKPAVioEtcItem@@@?$_Tmap_traits@KPAVioEtcItem@@U?$less@K@std@@V?$allocator@U?$pair@$$CBKPAVioEtcItem@@@std@@@3@$0A@@std@@SAABKABU?$pair@$$CBKPAVioEtcItem@@@1@@Z
_TEXT	SEGMENT
__Val$ = 8						; size = 4
??$_Kfn@$$CBKPAVioEtcItem@@@?$_Tmap_traits@KPAVioEtcItem@@U?$less@K@std@@V?$allocator@U?$pair@$$CBKPAVioEtcItem@@@std@@@3@$0A@@std@@SAABKABU?$pair@$$CBKPAVioEtcItem@@@1@@Z PROC ; std::_Tmap_traits<unsigned long,ioEtcItem *,std::less<unsigned long>,std::allocator<std::pair<unsigned long const ,ioEtcItem *> >,0>::_Kfn<unsigned long const ,ioEtcItem *>, COMDAT

; 66   : 		static const _Kty& _Kfn(const _STD pair<_Ty1, _Ty2>& _Val)

  00000	55		 push	 ebp
  00001	8b ec		 mov	 ebp, esp

; 67   : 		{	// extract key from element value
; 68   : 		return (_Val.first);

  00003	8b 45 08	 mov	 eax, DWORD PTR __Val$[ebp]

; 69   : 		}

  00006	5d		 pop	 ebp
  00007	c3		 ret	 0
??$_Kfn@$$CBKPAVioEtcItem@@@?$_Tmap_traits@KPAVioEtcItem@@U?$less@K@std@@V?$allocator@U?$pair@$$CBKPAVioEtcItem@@@std@@@3@$0A@@std@@SAABKABU?$pair@$$CBKPAVioEtcItem@@@1@@Z ENDP ; std::_Tmap_traits<unsigned long,ioEtcItem *,std::less<unsigned long>,std::allocator<std::pair<unsigned long const ,ioEtcItem *> >,0>::_Kfn<unsigned long const ,ioEtcItem *>
_TEXT	ENDS
PUBLIC	??$?0U?$pair@$$CBKPAVioEtcItem@@@std@@@?$allocator@U_Node@?$_Tree_nod@V?$_Tmap_traits@KPAVioEtcItem@@U?$less@K@std@@V?$allocator@U?$pair@$$CBKPAVioEtcItem@@@std@@@3@$0A@@std@@@std@@@std@@QAE@ABV?$allocator@U?$pair@$$CBKPAVioEtcItem@@@std@@@1@@Z ; std::allocator<std::_Tree_nod<std::_Tmap_traits<unsigned long,ioEtcItem *,std::less<unsigned long>,std::allocator<std::pair<unsigned long const ,ioEtcItem *> >,0> >::_Node>::allocator<std::_Tree_nod<std::_Tmap_traits<unsigned long,ioEtcItem *,std::less<unsigned long>,std::allocator<std::pair<unsigned long const ,ioEtcItem *> >,0> >::_Node><std::pair<unsigned long const ,ioEtcItem *> >
; Function compile flags: /Ogsp
; File c:\program files (x86)\microsoft visual studio 10.0\vc\include\xmemory
;	COMDAT ??$?0U?$pair@$$CBKPAVioEtcItem@@@std@@@?$allocator@U_Node@?$_Tree_nod@V?$_Tmap_traits@KPAVioEtcItem@@U?$less@K@std@@V?$allocator@U?$pair@$$CBKPAVioEtcItem@@@std@@@3@$0A@@std@@@std@@@std@@QAE@ABV?$allocator@U?$pair@$$CBKPAVioEtcItem@@@std@@@1@@Z
_TEXT	SEGMENT
___formal$ = 8						; size = 4
??$?0U?$pair@$$CBKPAVioEtcItem@@@std@@@?$allocator@U_Node@?$_Tree_nod@V?$_Tmap_traits@KPAVioEtcItem@@U?$less@K@std@@V?$allocator@U?$pair@$$CBKPAVioEtcItem@@@std@@@3@$0A@@std@@@std@@@std@@QAE@ABV?$allocator@U?$pair@$$CBKPAVioEtcItem@@@std@@@1@@Z PROC ; std::allocator<std::_Tree_nod<std::_Tmap_traits<unsigned long,ioEtcItem *,std::less<unsigned long>,std::allocator<std::pair<unsigned long const ,ioEtcItem *> >,0> >::_Node>::allocator<std::_Tree_nod<std::_Tmap_traits<unsigned long,ioEtcItem *,std::less<unsigned long>,std::allocator<std::pair<unsigned long const ,ioEtcItem *> >,0> >::_Node><std::pair<unsigned long const ,ioEtcItem *> >, COMDAT
; _this$ = ecx

; 170  : 		_ALLOCATOR(const _ALLOCATOR<_Other>&) _THROW0()

  00000	8b c1		 mov	 eax, ecx

; 171  : 		{	// construct from a related allocator (do nothing)
; 172  : 		}

  00002	c2 04 00	 ret	 4
??$?0U?$pair@$$CBKPAVioEtcItem@@@std@@@?$allocator@U_Node@?$_Tree_nod@V?$_Tmap_traits@KPAVioEtcItem@@U?$less@K@std@@V?$allocator@U?$pair@$$CBKPAVioEtcItem@@@std@@@3@$0A@@std@@@std@@@std@@QAE@ABV?$allocator@U?$pair@$$CBKPAVioEtcItem@@@std@@@1@@Z ENDP ; std::allocator<std::_Tree_nod<std::_Tmap_traits<unsigned long,ioEtcItem *,std::less<unsigned long>,std::allocator<std::pair<unsigned long const ,ioEtcItem *> >,0> >::_Node>::allocator<std::_Tree_nod<std::_Tmap_traits<unsigned long,ioEtcItem *,std::less<unsigned long>,std::allocator<std::pair<unsigned long const ,ioEtcItem *> >,0> >::_Node><std::pair<unsigned long const ,ioEtcItem *> >
_TEXT	ENDS
PUBLIC	__TI2?AVbad_alloc@std@@
PUBLIC	??$_Allocate@U_Node@?$_Tree_nod@V?$_Tmap_traits@KPAVioEtcItem@@U?$less@K@std@@V?$allocator@U?$pair@$$CBKPAVioEtcItem@@@std@@@3@$0A@@std@@@std@@@std@@YAPAU_Node@?$_Tree_nod@V?$_Tmap_traits@KPAVioEtcItem@@U?$less@K@std@@V?$allocator@U?$pair@$$CBKPAVioEtcItem@@@std@@@3@$0A@@std@@@0@IPAU120@@Z ; std::_Allocate<std::_Tree_nod<std::_Tmap_traits<unsigned long,ioEtcItem *,std::less<unsigned long>,std::allocator<std::pair<unsigned long const ,ioEtcItem *> >,0> >::_Node>
PUBLIC	__CTA2?AVbad_alloc@std@@
PUBLIC	__CT??_R0?AVbad_alloc@std@@@8??0bad_alloc@std@@QAE@ABV01@@Z12
PUBLIC	??0bad_alloc@std@@QAE@ABV01@@Z			; std::bad_alloc::bad_alloc
PUBLIC	__CT??_R0?AVexception@std@@@8??0exception@std@@QAE@ABV01@@Z12
EXTRN	??2@YAPAXI@Z:PROC				; operator new
EXTRN	__CxxThrowException@8:PROC
EXTRN	??0exception@std@@QAE@ABV01@@Z:PROC		; std::exception::exception
;	COMDAT __CT??_R0?AVexception@std@@@8??0exception@std@@QAE@ABV01@@Z12
; File c:\program files (x86)\microsoft visual studio 10.0\vc\include\exception
xdata$x	SEGMENT
__CT??_R0?AVexception@std@@@8??0exception@std@@QAE@ABV01@@Z12 DD 00H
	DD	FLAT:??_R0?AVexception@std@@@8
	DD	00H
	DD	0ffffffffH
	ORG $+4
	DD	0cH
	DD	FLAT:??0exception@std@@QAE@ABV01@@Z
xdata$x	ENDS
;	COMDAT __CT??_R0?AVbad_alloc@std@@@8??0bad_alloc@std@@QAE@ABV01@@Z12
xdata$x	SEGMENT
__CT??_R0?AVbad_alloc@std@@@8??0bad_alloc@std@@QAE@ABV01@@Z12 DD 00H
	DD	FLAT:??_R0?AVbad_alloc@std@@@8
	DD	00H
	DD	0ffffffffH
	ORG $+4
	DD	0cH
	DD	FLAT:??0bad_alloc@std@@QAE@ABV01@@Z
xdata$x	ENDS
;	COMDAT __CTA2?AVbad_alloc@std@@
xdata$x	SEGMENT
__CTA2?AVbad_alloc@std@@ DD 02H
	DD	FLAT:__CT??_R0?AVbad_alloc@std@@@8??0bad_alloc@std@@QAE@ABV01@@Z12
	DD	FLAT:__CT??_R0?AVexception@std@@@8??0exception@std@@QAE@ABV01@@Z12
xdata$x	ENDS
;	COMDAT __TI2?AVbad_alloc@std@@
xdata$x	SEGMENT
__TI2?AVbad_alloc@std@@ DD 00H
	DD	FLAT:??1bad_alloc@std@@UAE@XZ
	DD	00H
	DD	FLAT:__CTA2?AVbad_alloc@std@@
; Function compile flags: /Ogsp
; File c:\program files (x86)\microsoft visual studio 10.0\vc\include\xmemory
xdata$x	ENDS
;	COMDAT ??$_Allocate@U_Node@?$_Tree_nod@V?$_Tmap_traits@KPAVioEtcItem@@U?$less@K@std@@V?$allocator@U?$pair@$$CBKPAVioEtcItem@@@std@@@3@$0A@@std@@@std@@@std@@YAPAU_Node@?$_Tree_nod@V?$_Tmap_traits@KPAVioEtcItem@@U?$less@K@std@@V?$allocator@U?$pair@$$CBKPAVioEtcItem@@@std@@@3@$0A@@std@@@0@IPAU120@@Z
_TEXT	SEGMENT
$T509123 = -12						; size = 12
$T509128 = 8						; size = 4
__Count$ = 8						; size = 4
___formal$ = 12						; size = 4
??$_Allocate@U_Node@?$_Tree_nod@V?$_Tmap_traits@KPAVioEtcItem@@U?$less@K@std@@V?$allocator@U?$pair@$$CBKPAVioEtcItem@@@std@@@3@$0A@@std@@@std@@@std@@YAPAU_Node@?$_Tree_nod@V?$_Tmap_traits@KPAVioEtcItem@@U?$less@K@std@@V?$allocator@U?$pair@$$CBKPAVioEtcItem@@@std@@@3@$0A@@std@@@0@IPAU120@@Z PROC ; std::_Allocate<std::_Tree_nod<std::_Tmap_traits<unsigned long,ioEtcItem *,std::less<unsigned long>,std::allocator<std::pair<unsigned long const ,ioEtcItem *> >,0> >::_Node>, COMDAT

; 30   : 	{	// allocate storage for _Count elements of type _Ty

  00000	55		 push	 ebp
  00001	8b ec		 mov	 ebp, esp

; 31   : 	void *_Ptr = 0;
; 32   : 
; 33   : 	if (_Count <= 0)

  00003	8b 4d 08	 mov	 ecx, DWORD PTR __Count$[ebp]
  00006	83 ec 0c	 sub	 esp, 12			; 0000000cH
  00009	33 c0		 xor	 eax, eax
  0000b	85 c9		 test	 ecx, ecx

; 34   : 		_Count = 0;
; 35   : 	else if (((_SIZT)(-1) / sizeof (_Ty) < _Count)

  0000d	74 3c		 je	 SHORT $LN5@Allocate

; 36   : 		|| (_Ptr = ::operator new(_Count * sizeof (_Ty))) == 0)

  0000f	81 f9 aa aa aa
	0a		 cmp	 ecx, 178956970		; 0aaaaaaaH
  00015	77 0e		 ja	 SHORT $LN1@Allocate
  00017	6b c9 18	 imul	 ecx, 24			; 00000018H
  0001a	51		 push	 ecx
  0001b	e8 00 00 00 00	 call	 ??2@YAPAXI@Z		; operator new
  00020	59		 pop	 ecx
  00021	85 c0		 test	 eax, eax

; 38   : 
; 39   : 	return ((_Ty _FARQ *)_Ptr);

  00023	75 26		 jne	 SHORT $LN5@Allocate
$LN1@Allocate:

; 37   : 		_THROW_NCEE(bad_alloc, 0);

  00025	83 65 08 00	 and	 DWORD PTR $T509128[ebp], 0
  00029	8d 45 08	 lea	 eax, DWORD PTR $T509128[ebp]
  0002c	50		 push	 eax
  0002d	8d 4d f4	 lea	 ecx, DWORD PTR $T509123[ebp]
  00030	ff 15 00 00 00
	00		 call	 DWORD PTR __imp_??0exception@std@@QAE@ABQBD@Z
  00036	68 00 00 00 00	 push	 OFFSET __TI2?AVbad_alloc@std@@
  0003b	8d 45 f4	 lea	 eax, DWORD PTR $T509123[ebp]
  0003e	50		 push	 eax
  0003f	c7 45 f4 00 00
	00 00		 mov	 DWORD PTR $T509123[ebp], OFFSET ??_7bad_alloc@std@@6B@
  00046	e8 00 00 00 00	 call	 __CxxThrowException@8
$LN10@Allocate:
$LN5@Allocate:

; 40   : 	}

  0004b	c9		 leave
  0004c	c3		 ret	 0
$LN9@Allocate:
??$_Allocate@U_Node@?$_Tree_nod@V?$_Tmap_traits@KPAVioEtcItem@@U?$less@K@std@@V?$allocator@U?$pair@$$CBKPAVioEtcItem@@@std@@@3@$0A@@std@@@std@@@std@@YAPAU_Node@?$_Tree_nod@V?$_Tmap_traits@KPAVioEtcItem@@U?$less@K@std@@V?$allocator@U?$pair@$$CBKPAVioEtcItem@@@std@@@3@$0A@@std@@@0@IPAU120@@Z ENDP ; std::_Allocate<std::_Tree_nod<std::_Tmap_traits<unsigned long,ioEtcItem *,std::less<unsigned long>,std::allocator<std::pair<unsigned long const ,ioEtcItem *> >,0> >::_Node>
_TEXT	ENDS
PUBLIC	??$_Allocate@PBVioEtcItem@@@std@@YAPAPBVioEtcItem@@IPAPBV1@@Z ; std::_Allocate<ioEtcItem const *>
; Function compile flags: /Ogsp
;	COMDAT ??$_Allocate@PBVioEtcItem@@@std@@YAPAPBVioEtcItem@@IPAPBV1@@Z
_TEXT	SEGMENT
$T509133 = -12						; size = 12
$T509137 = 8						; size = 4
__Count$ = 8						; size = 4
___formal$ = 12						; size = 4
??$_Allocate@PBVioEtcItem@@@std@@YAPAPBVioEtcItem@@IPAPBV1@@Z PROC ; std::_Allocate<ioEtcItem const *>, COMDAT

; 30   : 	{	// allocate storage for _Count elements of type _Ty

  00000	55		 push	 ebp
  00001	8b ec		 mov	 ebp, esp

; 31   : 	void *_Ptr = 0;
; 32   : 
; 33   : 	if (_Count <= 0)

  00003	8b 4d 08	 mov	 ecx, DWORD PTR __Count$[ebp]
  00006	83 ec 0c	 sub	 esp, 12			; 0000000cH
  00009	33 c0		 xor	 eax, eax
  0000b	85 c9		 test	 ecx, ecx

; 34   : 		_Count = 0;
; 35   : 	else if (((_SIZT)(-1) / sizeof (_Ty) < _Count)

  0000d	74 3e		 je	 SHORT $LN5@Allocate@2

; 36   : 		|| (_Ptr = ::operator new(_Count * sizeof (_Ty))) == 0)

  0000f	81 f9 ff ff ff
	3f		 cmp	 ecx, 1073741823		; 3fffffffH
  00015	77 10		 ja	 SHORT $LN1@Allocate@2
  00017	8b c1		 mov	 eax, ecx
  00019	c1 e0 02	 shl	 eax, 2
  0001c	50		 push	 eax
  0001d	e8 00 00 00 00	 call	 ??2@YAPAXI@Z		; operator new
  00022	59		 pop	 ecx
  00023	85 c0		 test	 eax, eax

; 38   : 
; 39   : 	return ((_Ty _FARQ *)_Ptr);

  00025	75 26		 jne	 SHORT $LN5@Allocate@2
$LN1@Allocate@2:

; 37   : 		_THROW_NCEE(bad_alloc, 0);

  00027	83 65 08 00	 and	 DWORD PTR $T509137[ebp], 0
  0002b	8d 45 08	 lea	 eax, DWORD PTR $T509137[ebp]
  0002e	50		 push	 eax
  0002f	8d 4d f4	 lea	 ecx, DWORD PTR $T509133[ebp]
  00032	ff 15 00 00 00
	00		 call	 DWORD PTR __imp_??0exception@std@@QAE@ABQBD@Z
  00038	68 00 00 00 00	 push	 OFFSET __TI2?AVbad_alloc@std@@
  0003d	8d 45 f4	 lea	 eax, DWORD PTR $T509133[ebp]
  00040	50		 push	 eax
  00041	c7 45 f4 00 00
	00 00		 mov	 DWORD PTR $T509133[ebp], OFFSET ??_7bad_alloc@std@@6B@
  00048	e8 00 00 00 00	 call	 __CxxThrowException@8
$LN10@Allocate@2:
$LN5@Allocate@2:

; 40   : 	}

  0004d	c9		 leave
  0004e	c3		 ret	 0
$LN9@Allocate@2:
??$_Allocate@PBVioEtcItem@@@std@@YAPAPBVioEtcItem@@IPAPBV1@@Z ENDP ; std::_Allocate<ioEtcItem const *>
_TEXT	ENDS
PUBLIC	?max_size@?$allocator@U?$pair@$$CBKPAVioEtcItem@@@std@@@std@@QBEIXZ ; std::allocator<std::pair<unsigned long const ,ioEtcItem *> >::max_size
; Function compile flags: /Ogsp
;	COMDAT ?max_size@?$allocator@U?$pair@$$CBKPAVioEtcItem@@@std@@@std@@QBEIXZ
_TEXT	SEGMENT
?max_size@?$allocator@U?$pair@$$CBKPAVioEtcItem@@@std@@@std@@QBEIXZ PROC ; std::allocator<std::pair<unsigned long const ,ioEtcItem *> >::max_size, COMDAT
; _this$ = ecx

; 218  : 		_SIZT _Count = (_SIZT)(-1) / sizeof (_Ty);
; 219  : 		return (0 < _Count ? _Count : 1);

  00000	b8 ff ff ff 1f	 mov	 eax, 536870911		; 1fffffffH

; 220  : 		}

  00005	c3		 ret	 0
?max_size@?$allocator@U?$pair@$$CBKPAVioEtcItem@@@std@@@std@@QBEIXZ ENDP ; std::allocator<std::pair<unsigned long const ,ioEtcItem *> >::max_size
_TEXT	ENDS
PUBLIC	??F?$_Tree_unchecked_const_iterator@V?$_Tree_val@V?$_Tmap_traits@KPAVioEtcItem@@U?$less@K@std@@V?$allocator@U?$pair@$$CBKPAVioEtcItem@@@std@@@3@$0A@@std@@@std@@U_Iterator_base0@2@@std@@QAEAAV01@XZ ; std::_Tree_unchecked_const_iterator<std::_Tree_val<std::_Tmap_traits<unsigned long,ioEtcItem *,std::less<unsigned long>,std::allocator<std::pair<unsigned long const ,ioEtcItem *> >,0> >,std::_Iterator_base0>::operator--
; Function compile flags: /Ogsp
; File c:\program files (x86)\microsoft visual studio 10.0\vc\include\xtree
;	COMDAT ??F?$_Tree_unchecked_const_iterator@V?$_Tree_val@V?$_Tmap_traits@KPAVioEtcItem@@U?$less@K@std@@V?$allocator@U?$pair@$$CBKPAVioEtcItem@@@std@@@3@$0A@@std@@@std@@U_Iterator_base0@2@@std@@QAEAAV01@XZ
_TEXT	SEGMENT
??F?$_Tree_unchecked_const_iterator@V?$_Tree_val@V?$_Tmap_traits@KPAVioEtcItem@@U?$less@K@std@@V?$allocator@U?$pair@$$CBKPAVioEtcItem@@@std@@@3@$0A@@std@@@std@@U_Iterator_base0@2@@std@@QAEAAV01@XZ PROC ; std::_Tree_unchecked_const_iterator<std::_Tree_val<std::_Tmap_traits<unsigned long,ioEtcItem *,std::less<unsigned long>,std::allocator<std::pair<unsigned long const ,ioEtcItem *> >,0> >,std::_Iterator_base0>::operator--, COMDAT
; _this$ = ecx

; 83   : 		{	// predecrement

  00000	8b c1		 mov	 eax, ecx

; 84   : 		if (_Mytree::_Isnil(_Ptr))

  00002	8b 08		 mov	 ecx, DWORD PTR [eax]
  00004	53		 push	 ebx
  00005	32 db		 xor	 bl, bl
  00007	38 59 15	 cmp	 BYTE PTR [ecx+21], bl
  0000a	74 07		 je	 SHORT $LN8@operator

; 85   : 			_Ptr = _Mytree::_Right(_Ptr);	// end() ==> rightmost

  0000c	8b 49 08	 mov	 ecx, DWORD PTR [ecx+8]
  0000f	89 08		 mov	 DWORD PTR [eax], ecx
  00011	5b		 pop	 ebx

; 99   : 			}
; 100  : 		return (*this);
; 101  : 		}

  00012	c3		 ret	 0
$LN8@operator:

; 86   : 		else if (!_Mytree::_Isnil(_Mytree::_Left(_Ptr)))

  00013	8b 11		 mov	 edx, DWORD PTR [ecx]
  00015	38 5a 15	 cmp	 BYTE PTR [edx+21], bl
  00018	74 07		 je	 SHORT $LN44@operator

; 90   : 			{	// climb looking for left subtree
; 91   : 			_Nodeptr _Pnode;
; 92   : 			while (!_Mytree::_Isnil(_Pnode = _Mytree::_Parent(_Ptr))
; 93   : 				&& _Ptr == _Mytree::_Left(_Pnode))

  0001a	8b 51 04	 mov	 edx, DWORD PTR [ecx+4]
  0001d	eb 17		 jmp	 SHORT $LN46@operator

; 87   : 			_Ptr = _Mytree::_Max(
; 88   : 				_Mytree::_Left(_Ptr));	// ==> largest of left subtree

$LL22@operator:
  0001f	8b d1		 mov	 edx, ecx
$LN44@operator:
  00021	8b 4a 08	 mov	 ecx, DWORD PTR [edx+8]
  00024	38 59 15	 cmp	 BYTE PTR [ecx+21], bl
  00027	74 f6		 je	 SHORT $LL22@operator

; 89   : 		else

  00029	eb 17		 jmp	 SHORT $LN45@operator
$LL4@operator:

; 90   : 			{	// climb looking for left subtree
; 91   : 			_Nodeptr _Pnode;
; 92   : 			while (!_Mytree::_Isnil(_Pnode = _Mytree::_Parent(_Ptr))
; 93   : 				&& _Ptr == _Mytree::_Left(_Pnode))

  0002b	8b 08		 mov	 ecx, DWORD PTR [eax]
  0002d	3b 0a		 cmp	 ecx, DWORD PTR [edx]
  0002f	75 0a		 jne	 SHORT $LN3@operator

; 94   : 				_Ptr = _Pnode;	// ==> parent while left subtree

  00031	89 10		 mov	 DWORD PTR [eax], edx
  00033	8b 52 04	 mov	 edx, DWORD PTR [edx+4]
$LN46@operator:

; 90   : 			{	// climb looking for left subtree
; 91   : 			_Nodeptr _Pnode;
; 92   : 			while (!_Mytree::_Isnil(_Pnode = _Mytree::_Parent(_Ptr))
; 93   : 				&& _Ptr == _Mytree::_Left(_Pnode))

  00036	38 5a 15	 cmp	 BYTE PTR [edx+21], bl
  00039	74 f0		 je	 SHORT $LL4@operator
$LN3@operator:

; 95   : 			if (_Mytree::_Isnil(_Ptr))

  0003b	8b 08		 mov	 ecx, DWORD PTR [eax]
  0003d	38 59 15	 cmp	 BYTE PTR [ecx+21], bl
  00040	75 02		 jne	 SHORT $LN1@operator
$LN45@operator:

; 96   : 				;	// begin() shouldn't be decremented, don't move
; 97   : 			else
; 98   : 				_Ptr = _Pnode;	// ==> parent if not head

  00042	89 10		 mov	 DWORD PTR [eax], edx
$LN1@operator:
  00044	5b		 pop	 ebx

; 99   : 			}
; 100  : 		return (*this);
; 101  : 		}

  00045	c3		 ret	 0
??F?$_Tree_unchecked_const_iterator@V?$_Tree_val@V?$_Tmap_traits@KPAVioEtcItem@@U?$less@K@std@@V?$allocator@U?$pair@$$CBKPAVioEtcItem@@@std@@@3@$0A@@std@@@std@@U_Iterator_base0@2@@std@@QAEAAV01@XZ ENDP ; std::_Tree_unchecked_const_iterator<std::_Tree_val<std::_Tmap_traits<unsigned long,ioEtcItem *,std::less<unsigned long>,std::allocator<std::pair<unsigned long const ,ioEtcItem *> >,0> >,std::_Iterator_base0>::operator--
_TEXT	ENDS
PUBLIC	??$forward@K@std@@YA$$QAKAAK@Z			; std::forward<unsigned long>
; Function compile flags: /Ogsp
; File c:\program files (x86)\microsoft visual studio 10.0\vc\include\utility
;	COMDAT ??$forward@K@std@@YA$$QAKAAK@Z
_TEXT	SEGMENT
__Arg$ = 8						; size = 4
??$forward@K@std@@YA$$QAKAAK@Z PROC			; std::forward<unsigned long>, COMDAT

; 78   : 	{	// forward _Arg, given explicitly specified type parameter

  00000	55		 push	 ebp
  00001	8b ec		 mov	 ebp, esp

; 79   : 	return ((_Ty&&)_Arg);

  00003	8b 45 08	 mov	 eax, DWORD PTR __Arg$[ebp]

; 80   : 	}

  00006	5d		 pop	 ebp
  00007	c3		 ret	 0
??$forward@K@std@@YA$$QAKAAK@Z ENDP			; std::forward<unsigned long>
_TEXT	ENDS
PUBLIC	??$forward@AAPAVioEtcItem@@@std@@YAAAPAVioEtcItem@@AAPAV1@@Z ; std::forward<ioEtcItem * &>
; Function compile flags: /Ogsp
;	COMDAT ??$forward@AAPAVioEtcItem@@@std@@YAAAPAVioEtcItem@@AAPAV1@@Z
_TEXT	SEGMENT
__Arg$ = 8						; size = 4
??$forward@AAPAVioEtcItem@@@std@@YAAAPAVioEtcItem@@AAPAV1@@Z PROC ; std::forward<ioEtcItem * &>, COMDAT

; 78   : 	{	// forward _Arg, given explicitly specified type parameter

  00000	55		 push	 ebp
  00001	8b ec		 mov	 ebp, esp

; 79   : 	return ((_Ty&&)_Arg);

  00003	8b 45 08	 mov	 eax, DWORD PTR __Arg$[ebp]

; 80   : 	}

  00006	5d		 pop	 ebp
  00007	c3		 ret	 0
??$forward@AAPAVioEtcItem@@@std@@YAAAPAVioEtcItem@@AAPAV1@@Z ENDP ; std::forward<ioEtcItem * &>
_TEXT	ENDS
PUBLIC	??$?0KAAPAVioEtcItem@@@?$_Pair_base@$$CBKPAVioEtcItem@@@std@@QAE@$$QAKAAPAVioEtcItem@@@Z ; std::_Pair_base<unsigned long const ,ioEtcItem *>::_Pair_base<unsigned long const ,ioEtcItem *><unsigned long,ioEtcItem * &>
; Function compile flags: /Ogsp
;	COMDAT ??$?0KAAPAVioEtcItem@@@?$_Pair_base@$$CBKPAVioEtcItem@@@std@@QAE@$$QAKAAPAVioEtcItem@@@Z
_TEXT	SEGMENT
__Val1$ = 8						; size = 4
__Val2$ = 12						; size = 4
??$?0KAAPAVioEtcItem@@@?$_Pair_base@$$CBKPAVioEtcItem@@@std@@QAE@$$QAKAAPAVioEtcItem@@@Z PROC ; std::_Pair_base<unsigned long const ,ioEtcItem *>::_Pair_base<unsigned long const ,ioEtcItem *><unsigned long,ioEtcItem * &>, COMDAT
; _this$ = ecx

; 163  : 		{	// construct from moved values

  00000	55		 push	 ebp
  00001	8b ec		 mov	 ebp, esp
  00003	8b c1		 mov	 eax, ecx
  00005	8b 4d 08	 mov	 ecx, DWORD PTR __Val1$[ebp]
  00008	8b 09		 mov	 ecx, DWORD PTR [ecx]
  0000a	89 08		 mov	 DWORD PTR [eax], ecx
  0000c	8b 4d 0c	 mov	 ecx, DWORD PTR __Val2$[ebp]
  0000f	8b 09		 mov	 ecx, DWORD PTR [ecx]
  00011	89 48 04	 mov	 DWORD PTR [eax+4], ecx

; 164  : 		}

  00014	5d		 pop	 ebp
  00015	c2 08 00	 ret	 8
??$?0KAAPAVioEtcItem@@@?$_Pair_base@$$CBKPAVioEtcItem@@@std@@QAE@$$QAKAAPAVioEtcItem@@@Z ENDP ; std::_Pair_base<unsigned long const ,ioEtcItem *>::_Pair_base<unsigned long const ,ioEtcItem *><unsigned long,ioEtcItem * &>
_TEXT	ENDS
PUBLIC	??$forward@U?$pair@$$CBKPAVioEtcItem@@@std@@@std@@YA$$QAU?$pair@$$CBKPAVioEtcItem@@@0@AAU10@@Z ; std::forward<std::pair<unsigned long const ,ioEtcItem *> >
; Function compile flags: /Ogsp
;	COMDAT ??$forward@U?$pair@$$CBKPAVioEtcItem@@@std@@@std@@YA$$QAU?$pair@$$CBKPAVioEtcItem@@@0@AAU10@@Z
_TEXT	SEGMENT
__Arg$ = 8						; size = 4
??$forward@U?$pair@$$CBKPAVioEtcItem@@@std@@@std@@YA$$QAU?$pair@$$CBKPAVioEtcItem@@@0@AAU10@@Z PROC ; std::forward<std::pair<unsigned long const ,ioEtcItem *> >, COMDAT

; 78   : 	{	// forward _Arg, given explicitly specified type parameter

  00000	55		 push	 ebp
  00001	8b ec		 mov	 ebp, esp

; 79   : 	return ((_Ty&&)_Arg);

  00003	8b 45 08	 mov	 eax, DWORD PTR __Arg$[ebp]

; 80   : 	}

  00006	5d		 pop	 ebp
  00007	c3		 ret	 0
??$forward@U?$pair@$$CBKPAVioEtcItem@@@std@@@std@@YA$$QAU?$pair@$$CBKPAVioEtcItem@@@0@AAU10@@Z ENDP ; std::forward<std::pair<unsigned long const ,ioEtcItem *> >
_TEXT	ENDS
PUBLIC	??$_Iter_cat@V?$_Tree_const_iterator@V?$_Tree_val@V?$_Tmap_traits@KPAVioEtcItem@@U?$less@K@std@@V?$allocator@U?$pair@$$CBKPAVioEtcItem@@@std@@@3@$0A@@std@@@std@@@std@@@std@@YA?AUbidirectional_iterator_tag@0@ABV?$_Tree_const_iterator@V?$_Tree_val@V?$_Tmap_traits@KPAVioEtcItem@@U?$less@K@std@@V?$allocator@U?$pair@$$CBKPAVioEtcItem@@@std@@@3@$0A@@std@@@std@@@0@@Z ; std::_Iter_cat<std::_Tree_const_iterator<std::_Tree_val<std::_Tmap_traits<unsigned long,ioEtcItem *,std::less<unsigned long>,std::allocator<std::pair<unsigned long const ,ioEtcItem *> >,0> > > >
; Function compile flags: /Ogsp
; File c:\program files (x86)\microsoft visual studio 10.0\vc\include\xutility
;	COMDAT ??$_Iter_cat@V?$_Tree_const_iterator@V?$_Tree_val@V?$_Tmap_traits@KPAVioEtcItem@@U?$less@K@std@@V?$allocator@U?$pair@$$CBKPAVioEtcItem@@@std@@@3@$0A@@std@@@std@@@std@@@std@@YA?AUbidirectional_iterator_tag@0@ABV?$_Tree_const_iterator@V?$_Tree_val@V?$_Tmap_traits@KPAVioEtcItem@@U?$less@K@std@@V?$allocator@U?$pair@$$CBKPAVioEtcItem@@@std@@@3@$0A@@std@@@std@@@0@@Z
_TEXT	SEGMENT
___$ReturnUdt$ = 8					; size = 4
___formal$ = 12						; size = 4
??$_Iter_cat@V?$_Tree_const_iterator@V?$_Tree_val@V?$_Tmap_traits@KPAVioEtcItem@@U?$less@K@std@@V?$allocator@U?$pair@$$CBKPAVioEtcItem@@@std@@@3@$0A@@std@@@std@@@std@@@std@@YA?AUbidirectional_iterator_tag@0@ABV?$_Tree_const_iterator@V?$_Tree_val@V?$_Tmap_traits@KPAVioEtcItem@@U?$less@K@std@@V?$allocator@U?$pair@$$CBKPAVioEtcItem@@@std@@@3@$0A@@std@@@std@@@0@@Z PROC ; std::_Iter_cat<std::_Tree_const_iterator<std::_Tree_val<std::_Tmap_traits<unsigned long,ioEtcItem *,std::less<unsigned long>,std::allocator<std::pair<unsigned long const ,ioEtcItem *> >,0> > > >, COMDAT

; 476  : 	{	// return category from iterator argument

  00000	55		 push	 ebp
  00001	8b ec		 mov	 ebp, esp

; 477  : 	typename iterator_traits<_Iter>::iterator_category _Cat;
; 478  : 	return (_Cat);

  00003	8b 45 08	 mov	 eax, DWORD PTR ___$ReturnUdt$[ebp]

; 479  : 	}

  00006	5d		 pop	 ebp
  00007	c3		 ret	 0
??$_Iter_cat@V?$_Tree_const_iterator@V?$_Tree_val@V?$_Tmap_traits@KPAVioEtcItem@@U?$less@K@std@@V?$allocator@U?$pair@$$CBKPAVioEtcItem@@@std@@@3@$0A@@std@@@std@@@std@@@std@@YA?AUbidirectional_iterator_tag@0@ABV?$_Tree_const_iterator@V?$_Tree_val@V?$_Tmap_traits@KPAVioEtcItem@@U?$less@K@std@@V?$allocator@U?$pair@$$CBKPAVioEtcItem@@@std@@@3@$0A@@std@@@std@@@0@@Z ENDP ; std::_Iter_cat<std::_Tree_const_iterator<std::_Tree_val<std::_Tmap_traits<unsigned long,ioEtcItem *,std::less<unsigned long>,std::allocator<std::pair<unsigned long const ,ioEtcItem *> >,0> > > >
_TEXT	ENDS
PUBLIC	??$forward@AAPBVioEtcItem@@@std@@YAAAPBVioEtcItem@@AAPBV1@@Z ; std::forward<ioEtcItem const * &>
; Function compile flags: /Ogsp
; File c:\program files (x86)\microsoft visual studio 10.0\vc\include\utility
;	COMDAT ??$forward@AAPBVioEtcItem@@@std@@YAAAPBVioEtcItem@@AAPBV1@@Z
_TEXT	SEGMENT
__Arg$ = 8						; size = 4
??$forward@AAPBVioEtcItem@@@std@@YAAAPBVioEtcItem@@AAPBV1@@Z PROC ; std::forward<ioEtcItem const * &>, COMDAT

; 78   : 	{	// forward _Arg, given explicitly specified type parameter

  00000	55		 push	 ebp
  00001	8b ec		 mov	 ebp, esp

; 79   : 	return ((_Ty&&)_Arg);

  00003	8b 45 08	 mov	 eax, DWORD PTR __Arg$[ebp]

; 80   : 	}

  00006	5d		 pop	 ebp
  00007	c3		 ret	 0
??$forward@AAPBVioEtcItem@@@std@@YAAAPBVioEtcItem@@AAPBV1@@Z ENDP ; std::forward<ioEtcItem const * &>
_TEXT	ENDS
PUBLIC	??$construct@AAPBVioEtcItem@@@?$allocator@PBVioEtcItem@@@std@@QAEXPAPBVioEtcItem@@AAPBV2@@Z ; std::allocator<ioEtcItem const *>::construct<ioEtcItem const * &>
; Function compile flags: /Ogsp
; File c:\program files (x86)\microsoft visual studio 10.0\vc\include\xmemory
;	COMDAT ??$construct@AAPBVioEtcItem@@@?$allocator@PBVioEtcItem@@@std@@QAEXPAPBVioEtcItem@@AAPBV2@@Z
_TEXT	SEGMENT
__Ptr$ = 8						; size = 4
__Val$ = 12						; size = 4
??$construct@AAPBVioEtcItem@@@?$allocator@PBVioEtcItem@@@std@@QAEXPAPBVioEtcItem@@AAPBV2@@Z PROC ; std::allocator<ioEtcItem const *>::construct<ioEtcItem const * &>, COMDAT
; _this$ = ecx

; 206  : 		void construct(pointer _Ptr, _Other&& _Val)

  00000	55		 push	 ebp
  00001	8b ec		 mov	 ebp, esp

; 207  : 		{	// construct object at _Ptr with value _Val
; 208  : 		::new ((void _FARQ *)_Ptr) _Ty(_STD forward<_Other>(_Val));

  00003	8b 45 08	 mov	 eax, DWORD PTR __Ptr$[ebp]
  00006	85 c0		 test	 eax, eax
  00008	74 07		 je	 SHORT $LN3@construct
  0000a	8b 4d 0c	 mov	 ecx, DWORD PTR __Val$[ebp]
  0000d	8b 09		 mov	 ecx, DWORD PTR [ecx]
  0000f	89 08		 mov	 DWORD PTR [eax], ecx
$LN3@construct:

; 209  : 		}

  00011	5d		 pop	 ebp
  00012	c2 08 00	 ret	 8
??$construct@AAPBVioEtcItem@@@?$allocator@PBVioEtcItem@@@std@@QAEXPAPBVioEtcItem@@AAPBV2@@Z ENDP ; std::allocator<ioEtcItem const *>::construct<ioEtcItem const * &>
_TEXT	ENDS
PUBLIC	??$forward@ABQBVioEtcItem@@@std@@YAABQBVioEtcItem@@ABQBV1@@Z ; std::forward<ioEtcItem const * const &>
; Function compile flags: /Ogsp
; File c:\program files (x86)\microsoft visual studio 10.0\vc\include\utility
;	COMDAT ??$forward@ABQBVioEtcItem@@@std@@YAABQBVioEtcItem@@ABQBV1@@Z
_TEXT	SEGMENT
__Arg$ = 8						; size = 4
??$forward@ABQBVioEtcItem@@@std@@YAABQBVioEtcItem@@ABQBV1@@Z PROC ; std::forward<ioEtcItem const * const &>, COMDAT

; 78   : 	{	// forward _Arg, given explicitly specified type parameter

  00000	55		 push	 ebp
  00001	8b ec		 mov	 ebp, esp

; 79   : 	return ((_Ty&&)_Arg);

  00003	8b 45 08	 mov	 eax, DWORD PTR __Arg$[ebp]

; 80   : 	}

  00006	5d		 pop	 ebp
  00007	c3		 ret	 0
??$forward@ABQBVioEtcItem@@@std@@YAABQBVioEtcItem@@ABQBV1@@Z ENDP ; std::forward<ioEtcItem const * const &>
_TEXT	ENDS
PUBLIC	??$_Ptr_cat@PBVioEtcItem@@PBV1@@std@@YA?AU_Scalar_ptr_iterator_tag@0@PAPBVioEtcItem@@0@Z ; std::_Ptr_cat<ioEtcItem const *,ioEtcItem const *>
; Function compile flags: /Ogsp
; File c:\program files (x86)\microsoft visual studio 10.0\vc\include\xutility
;	COMDAT ??$_Ptr_cat@PBVioEtcItem@@PBV1@@std@@YA?AU_Scalar_ptr_iterator_tag@0@PAPBVioEtcItem@@0@Z
_TEXT	SEGMENT
__Cat$ = -1						; size = 1
___formal$ = 8						; size = 4
___formal$ = 12						; size = 4
??$_Ptr_cat@PBVioEtcItem@@PBV1@@std@@YA?AU_Scalar_ptr_iterator_tag@0@PAPBVioEtcItem@@0@Z PROC ; std::_Ptr_cat<ioEtcItem const *,ioEtcItem const *>, COMDAT

; 516  : 	{	// return pointer category from pointers

  00000	55		 push	 ebp
  00001	8b ec		 mov	 ebp, esp
  00003	51		 push	 ecx

; 517  : 	typename _Ptr_cat_helper<_Elem1, _Elem2>::_Type _Cat;
; 518  : 	return (_Cat);

  00004	8a 45 ff	 mov	 al, BYTE PTR __Cat$[ebp]

; 519  : 	}

  00007	c9		 leave
  00008	c3		 ret	 0
??$_Ptr_cat@PBVioEtcItem@@PBV1@@std@@YA?AU_Scalar_ptr_iterator_tag@0@PAPBVioEtcItem@@0@Z ENDP ; std::_Ptr_cat<ioEtcItem const *,ioEtcItem const *>
_TEXT	ENDS
PUBLIC	??$_Destroy_range@V?$allocator@PBVioEtcItem@@@std@@@std@@YAXPAPBVioEtcItem@@0AAV?$allocator@PBVioEtcItem@@@0@U_Scalar_ptr_iterator_tag@0@@Z ; std::_Destroy_range<std::allocator<ioEtcItem const *> >
; Function compile flags: /Ogsp
; File c:\program files (x86)\microsoft visual studio 10.0\vc\include\xmemory
;	COMDAT ??$_Destroy_range@V?$allocator@PBVioEtcItem@@@std@@@std@@YAXPAPBVioEtcItem@@0AAV?$allocator@PBVioEtcItem@@@0@U_Scalar_ptr_iterator_tag@0@@Z
_TEXT	SEGMENT
__First$ = 8						; size = 4
__Last$ = 12						; size = 4
__Al$ = 16						; size = 4
___formal$ = 20						; size = 1
??$_Destroy_range@V?$allocator@PBVioEtcItem@@@std@@@std@@YAXPAPBVioEtcItem@@0AAV?$allocator@PBVioEtcItem@@@0@U_Scalar_ptr_iterator_tag@0@@Z PROC ; std::_Destroy_range<std::allocator<ioEtcItem const *> >, COMDAT

; 105  : 	}

  00000	c3		 ret	 0
??$_Destroy_range@V?$allocator@PBVioEtcItem@@@std@@@std@@YAXPAPBVioEtcItem@@0AAV?$allocator@PBVioEtcItem@@@0@U_Scalar_ptr_iterator_tag@0@@Z ENDP ; std::_Destroy_range<std::allocator<ioEtcItem const *> >
_TEXT	ENDS
PUBLIC	??$_Destroy@U?$pair@$$CBKPAVioEtcItem@@@std@@@std@@YAXPAU?$pair@$$CBKPAVioEtcItem@@@0@@Z ; std::_Destroy<std::pair<unsigned long const ,ioEtcItem *> >
; Function compile flags: /Ogsp
;	COMDAT ??$_Destroy@U?$pair@$$CBKPAVioEtcItem@@@std@@@std@@YAXPAU?$pair@$$CBKPAVioEtcItem@@@0@@Z
_TEXT	SEGMENT
__Ptr$ = 8						; size = 4
??$_Destroy@U?$pair@$$CBKPAVioEtcItem@@@std@@@std@@YAXPAU?$pair@$$CBKPAVioEtcItem@@@0@@Z PROC ; std::_Destroy<std::pair<unsigned long const ,ioEtcItem *> >, COMDAT

; 63   : 	_Ptr->~_Ty();
; 64   : 	}

  00000	c3		 ret	 0
??$_Destroy@U?$pair@$$CBKPAVioEtcItem@@@std@@@std@@YAXPAU?$pair@$$CBKPAVioEtcItem@@@0@@Z ENDP ; std::_Destroy<std::pair<unsigned long const ,ioEtcItem *> >
_TEXT	ENDS
PUBLIC	??$_Construct@PBVioEtcItem@@ABQBV1@@std@@YAXPAPBVioEtcItem@@ABQBV1@@Z ; std::_Construct<ioEtcItem const *,ioEtcItem const * const &>
; Function compile flags: /Ogsp
;	COMDAT ??$_Construct@PBVioEtcItem@@ABQBV1@@std@@YAXPAPBVioEtcItem@@ABQBV1@@Z
_TEXT	SEGMENT
__Ptr$ = 8						; size = 4
__Val$ = 12						; size = 4
??$_Construct@PBVioEtcItem@@ABQBV1@@std@@YAXPAPBVioEtcItem@@ABQBV1@@Z PROC ; std::_Construct<ioEtcItem const *,ioEtcItem const * const &>, COMDAT

; 46   : 	{	// construct object at _Ptr with value _Val

  00000	55		 push	 ebp
  00001	8b ec		 mov	 ebp, esp

; 47   : 	void _FARQ *_Vptr = _Ptr;
; 48   : 	::new (_Vptr) _Ty1(_STD forward<_Ty2>(_Val));

  00003	8b 45 08	 mov	 eax, DWORD PTR __Ptr$[ebp]
  00006	85 c0		 test	 eax, eax
  00008	74 07		 je	 SHORT $LN3@Construct
  0000a	8b 4d 0c	 mov	 ecx, DWORD PTR __Val$[ebp]
  0000d	8b 09		 mov	 ecx, DWORD PTR [ecx]
  0000f	89 08		 mov	 DWORD PTR [eax], ecx
$LN3@Construct:

; 49   : 	}

  00011	5d		 pop	 ebp
  00012	c3		 ret	 0
??$_Construct@PBVioEtcItem@@ABQBV1@@std@@YAXPAPBVioEtcItem@@ABQBV1@@Z ENDP ; std::_Construct<ioEtcItem const *,ioEtcItem const * const &>
_TEXT	ENDS
PUBLIC	??$move@AAV?$_Tree_iterator@V?$_Tree_val@V?$_Tmap_traits@KPAVioEtcItem@@U?$less@K@std@@V?$allocator@U?$pair@$$CBKPAVioEtcItem@@@std@@@3@$0A@@std@@@std@@@std@@@std@@YA$$QAV?$_Tree_iterator@V?$_Tree_val@V?$_Tmap_traits@KPAVioEtcItem@@U?$less@K@std@@V?$allocator@U?$pair@$$CBKPAVioEtcItem@@@std@@@3@$0A@@std@@@std@@@0@AAV10@@Z ; std::move<std::_Tree_iterator<std::_Tree_val<std::_Tmap_traits<unsigned long,ioEtcItem *,std::less<unsigned long>,std::allocator<std::pair<unsigned long const ,ioEtcItem *> >,0> > > &>
; Function compile flags: /Ogsp
; File c:\program files (x86)\microsoft visual studio 10.0\vc\include\utility
;	COMDAT ??$move@AAV?$_Tree_iterator@V?$_Tree_val@V?$_Tmap_traits@KPAVioEtcItem@@U?$less@K@std@@V?$allocator@U?$pair@$$CBKPAVioEtcItem@@@std@@@3@$0A@@std@@@std@@@std@@@std@@YA$$QAV?$_Tree_iterator@V?$_Tree_val@V?$_Tmap_traits@KPAVioEtcItem@@U?$less@K@std@@V?$allocator@U?$pair@$$CBKPAVioEtcItem@@@std@@@3@$0A@@std@@@std@@@0@AAV10@@Z
_TEXT	SEGMENT
__Arg$ = 8						; size = 4
??$move@AAV?$_Tree_iterator@V?$_Tree_val@V?$_Tmap_traits@KPAVioEtcItem@@U?$less@K@std@@V?$allocator@U?$pair@$$CBKPAVioEtcItem@@@std@@@3@$0A@@std@@@std@@@std@@@std@@YA$$QAV?$_Tree_iterator@V?$_Tree_val@V?$_Tmap_traits@KPAVioEtcItem@@U?$less@K@std@@V?$allocator@U?$pair@$$CBKPAVioEtcItem@@@std@@@3@$0A@@std@@@std@@@0@AAV10@@Z PROC ; std::move<std::_Tree_iterator<std::_Tree_val<std::_Tmap_traits<unsigned long,ioEtcItem *,std::less<unsigned long>,std::allocator<std::pair<unsigned long const ,ioEtcItem *> >,0> > > &>, COMDAT

; 86   : 	{	// forward _Arg as movable

  00000	55		 push	 ebp
  00001	8b ec		 mov	 ebp, esp

; 87   : 	return ((typename tr1::_Remove_reference<_Ty>::_Type&&)_Arg);

  00003	8b 45 08	 mov	 eax, DWORD PTR __Arg$[ebp]

; 88   : 	}

  00006	5d		 pop	 ebp
  00007	c3		 ret	 0
??$move@AAV?$_Tree_iterator@V?$_Tree_val@V?$_Tmap_traits@KPAVioEtcItem@@U?$less@K@std@@V?$allocator@U?$pair@$$CBKPAVioEtcItem@@@std@@@3@$0A@@std@@@std@@@std@@@std@@YA$$QAV?$_Tree_iterator@V?$_Tree_val@V?$_Tmap_traits@KPAVioEtcItem@@U?$less@K@std@@V?$allocator@U?$pair@$$CBKPAVioEtcItem@@@std@@@3@$0A@@std@@@std@@@0@AAV10@@Z ENDP ; std::move<std::_Tree_iterator<std::_Tree_val<std::_Tmap_traits<unsigned long,ioEtcItem *,std::less<unsigned long>,std::allocator<std::pair<unsigned long const ,ioEtcItem *> >,0> > > &>
_TEXT	ENDS
PUBLIC	??$_Val_type@PAPBVioEtcItem@@@std@@YAPAPBVioEtcItem@@PAPBV1@@Z ; std::_Val_type<ioEtcItem const * *>
; Function compile flags: /Ogsp
; File c:\program files (x86)\microsoft visual studio 10.0\vc\include\xutility
;	COMDAT ??$_Val_type@PAPBVioEtcItem@@@std@@YAPAPBVioEtcItem@@PAPBV1@@Z
_TEXT	SEGMENT
___formal$ = 8						; size = 4
??$_Val_type@PAPBVioEtcItem@@@std@@YAPAPBVioEtcItem@@PAPBV1@@Z PROC ; std::_Val_type<ioEtcItem const * *>, COMDAT

; 790  : 	return (0);

  00000	33 c0		 xor	 eax, eax

; 791  : 	}

  00002	c3		 ret	 0
??$_Val_type@PAPBVioEtcItem@@@std@@YAPAPBVioEtcItem@@PAPBV1@@Z ENDP ; std::_Val_type<ioEtcItem const * *>
_TEXT	ENDS
PUBLIC	??$_Uninit_move@PBVioEtcItem@@PBV1@PBV1@@std@@YAPAPBVioEtcItem@@PAPBV1@00AAV?$allocator@PBVioEtcItem@@@0@0U_Scalar_ptr_iterator_tag@0@@Z ; std::_Uninit_move<ioEtcItem const *,ioEtcItem const *,ioEtcItem const *>
EXTRN	__imp__memmove:PROC
; Function compile flags: /Ogsp
; File c:\program files (x86)\microsoft visual studio 10.0\vc\include\memory
;	COMDAT ??$_Uninit_move@PBVioEtcItem@@PBV1@PBV1@@std@@YAPAPBVioEtcItem@@PAPBV1@00AAV?$allocator@PBVioEtcItem@@@0@0U_Scalar_ptr_iterator_tag@0@@Z
_TEXT	SEGMENT
__First$ = 8						; size = 4
__Last$ = 12						; size = 4
__Dest$ = 16						; size = 4
___formal$ = 20						; size = 4
___formal$ = 24						; size = 4
___formal$ = 28						; size = 1
??$_Uninit_move@PBVioEtcItem@@PBV1@PBV1@@std@@YAPAPBVioEtcItem@@PAPBV1@00AAV?$allocator@PBVioEtcItem@@@0@0U_Scalar_ptr_iterator_tag@0@@Z PROC ; std::_Uninit_move<ioEtcItem const *,ioEtcItem const *,ioEtcItem const *>, COMDAT

; 456  : 	{	// move [_First, _Last) to raw _Dest, scalar type

  00000	55		 push	 ebp
  00001	8b ec		 mov	 ebp, esp
  00003	56		 push	 esi

; 457  : 	_DEBUG_RANGE(_First, _Last);
; 458  : 	_DEBUG_POINTER(_Dest);
; 459  : 	size_t _Count = (size_t)(_Last - _First);

  00004	8b 75 0c	 mov	 esi, DWORD PTR __Last$[ebp]
  00007	2b 75 08	 sub	 esi, DWORD PTR __First$[ebp]
  0000a	c1 fe 02	 sar	 esi, 2

; 460  : 	return ((_Ty2 *)_CSTD memmove(&*_Dest, &*_First,
; 461  : 		_Count * sizeof (*_First)) + _Count);	// NB: non-overlapping move

  0000d	c1 e6 02	 shl	 esi, 2
  00010	56		 push	 esi
  00011	ff 75 08	 push	 DWORD PTR __First$[ebp]
  00014	ff 75 10	 push	 DWORD PTR __Dest$[ebp]
  00017	ff 15 00 00 00
	00		 call	 DWORD PTR __imp__memmove
  0001d	83 c4 0c	 add	 esp, 12			; 0000000cH
  00020	03 c6		 add	 eax, esi
  00022	5e		 pop	 esi

; 462  : 	}

  00023	5d		 pop	 ebp
  00024	c3		 ret	 0
??$_Uninit_move@PBVioEtcItem@@PBV1@PBV1@@std@@YAPAPBVioEtcItem@@PAPBV1@00AAV?$allocator@PBVioEtcItem@@@0@0U_Scalar_ptr_iterator_tag@0@@Z ENDP ; std::_Uninit_move<ioEtcItem const *,ioEtcItem const *,ioEtcItem const *>
_TEXT	ENDS
PUBLIC	??$forward@AAV?$_Tree_iterator@V?$_Tree_val@V?$_Tmap_traits@KPAVioEtcItem@@U?$less@K@std@@V?$allocator@U?$pair@$$CBKPAVioEtcItem@@@std@@@3@$0A@@std@@@std@@@std@@@std@@YAAAV?$_Tree_iterator@V?$_Tree_val@V?$_Tmap_traits@KPAVioEtcItem@@U?$less@K@std@@V?$allocator@U?$pair@$$CBKPAVioEtcItem@@@std@@@3@$0A@@std@@@std@@@0@AAV10@@Z ; std::forward<std::_Tree_iterator<std::_Tree_val<std::_Tmap_traits<unsigned long,ioEtcItem *,std::less<unsigned long>,std::allocator<std::pair<unsigned long const ,ioEtcItem *> >,0> > > &>
; Function compile flags: /Ogsp
; File c:\program files (x86)\microsoft visual studio 10.0\vc\include\utility
;	COMDAT ??$forward@AAV?$_Tree_iterator@V?$_Tree_val@V?$_Tmap_traits@KPAVioEtcItem@@U?$less@K@std@@V?$allocator@U?$pair@$$CBKPAVioEtcItem@@@std@@@3@$0A@@std@@@std@@@std@@@std@@YAAAV?$_Tree_iterator@V?$_Tree_val@V?$_Tmap_traits@KPAVioEtcItem@@U?$less@K@std@@V?$allocator@U?$pair@$$CBKPAVioEtcItem@@@std@@@3@$0A@@std@@@std@@@0@AAV10@@Z
_TEXT	SEGMENT
__Arg$ = 8						; size = 4
??$forward@AAV?$_Tree_iterator@V?$_Tree_val@V?$_Tmap_traits@KPAVioEtcItem@@U?$less@K@std@@V?$allocator@U?$pair@$$CBKPAVioEtcItem@@@std@@@3@$0A@@std@@@std@@@std@@@std@@YAAAV?$_Tree_iterator@V?$_Tree_val@V?$_Tmap_traits@KPAVioEtcItem@@U?$less@K@std@@V?$allocator@U?$pair@$$CBKPAVioEtcItem@@@std@@@3@$0A@@std@@@std@@@0@AAV10@@Z PROC ; std::forward<std::_Tree_iterator<std::_Tree_val<std::_Tmap_traits<unsigned long,ioEtcItem *,std::less<unsigned long>,std::allocator<std::pair<unsigned long const ,ioEtcItem *> >,0> > > &>, COMDAT

; 78   : 	{	// forward _Arg, given explicitly specified type parameter

  00000	55		 push	 ebp
  00001	8b ec		 mov	 ebp, esp

; 79   : 	return ((_Ty&&)_Arg);

  00003	8b 45 08	 mov	 eax, DWORD PTR __Arg$[ebp]

; 80   : 	}

  00006	5d		 pop	 ebp
  00007	c3		 ret	 0
??$forward@AAV?$_Tree_iterator@V?$_Tree_val@V?$_Tmap_traits@KPAVioEtcItem@@U?$less@K@std@@V?$allocator@U?$pair@$$CBKPAVioEtcItem@@@std@@@3@$0A@@std@@@std@@@std@@@std@@YAAAV?$_Tree_iterator@V?$_Tree_val@V?$_Tmap_traits@KPAVioEtcItem@@U?$less@K@std@@V?$allocator@U?$pair@$$CBKPAVioEtcItem@@@std@@@3@$0A@@std@@@std@@@0@AAV10@@Z ENDP ; std::forward<std::_Tree_iterator<std::_Tree_val<std::_Tmap_traits<unsigned long,ioEtcItem *,std::less<unsigned long>,std::allocator<std::pair<unsigned long const ,ioEtcItem *> >,0> > > &>
_TEXT	ENDS
PUBLIC	??$forward@$$CBK@std@@YA$$QBKABK@Z		; std::forward<unsigned long const >
; Function compile flags: /Ogsp
;	COMDAT ??$forward@$$CBK@std@@YA$$QBKABK@Z
_TEXT	SEGMENT
__Arg$ = 8						; size = 4
??$forward@$$CBK@std@@YA$$QBKABK@Z PROC			; std::forward<unsigned long const >, COMDAT

; 78   : 	{	// forward _Arg, given explicitly specified type parameter

  00000	55		 push	 ebp
  00001	8b ec		 mov	 ebp, esp

; 79   : 	return ((_Ty&&)_Arg);

  00003	8b 45 08	 mov	 eax, DWORD PTR __Arg$[ebp]

; 80   : 	}

  00006	5d		 pop	 ebp
  00007	c3		 ret	 0
??$forward@$$CBK@std@@YA$$QBKABK@Z ENDP			; std::forward<unsigned long const >
_TEXT	ENDS
PUBLIC	??$forward@PAVioEtcItem@@@std@@YA$$QAPAVioEtcItem@@AAPAV1@@Z ; std::forward<ioEtcItem *>
; Function compile flags: /Ogsp
;	COMDAT ??$forward@PAVioEtcItem@@@std@@YA$$QAPAVioEtcItem@@AAPAV1@@Z
_TEXT	SEGMENT
__Arg$ = 8						; size = 4
??$forward@PAVioEtcItem@@@std@@YA$$QAPAVioEtcItem@@AAPAV1@@Z PROC ; std::forward<ioEtcItem *>, COMDAT

; 78   : 	{	// forward _Arg, given explicitly specified type parameter

  00000	55		 push	 ebp
  00001	8b ec		 mov	 ebp, esp

; 79   : 	return ((_Ty&&)_Arg);

  00003	8b 45 08	 mov	 eax, DWORD PTR __Arg$[ebp]

; 80   : 	}

  00006	5d		 pop	 ebp
  00007	c3		 ret	 0
??$forward@PAVioEtcItem@@@std@@YA$$QAPAVioEtcItem@@AAPAV1@@Z ENDP ; std::forward<ioEtcItem *>
_TEXT	ENDS
PUBLIC	??$move@ABK@std@@YA$$QBKABK@Z			; std::move<unsigned long const &>
; Function compile flags: /Ogsp
;	COMDAT ??$move@ABK@std@@YA$$QBKABK@Z
_TEXT	SEGMENT
__Arg$ = 8						; size = 4
??$move@ABK@std@@YA$$QBKABK@Z PROC			; std::move<unsigned long const &>, COMDAT

; 86   : 	{	// forward _Arg as movable

  00000	55		 push	 ebp
  00001	8b ec		 mov	 ebp, esp

; 87   : 	return ((typename tr1::_Remove_reference<_Ty>::_Type&&)_Arg);

  00003	8b 45 08	 mov	 eax, DWORD PTR __Arg$[ebp]

; 88   : 	}

  00006	5d		 pop	 ebp
  00007	c3		 ret	 0
??$move@ABK@std@@YA$$QBKABK@Z ENDP			; std::move<unsigned long const &>
_TEXT	ENDS
PUBLIC	??$move@AAPAVioEtcItem@@@std@@YA$$QAPAVioEtcItem@@AAPAV1@@Z ; std::move<ioEtcItem * &>
; Function compile flags: /Ogsp
;	COMDAT ??$move@AAPAVioEtcItem@@@std@@YA$$QAPAVioEtcItem@@AAPAV1@@Z
_TEXT	SEGMENT
__Arg$ = 8						; size = 4
??$move@AAPAVioEtcItem@@@std@@YA$$QAPAVioEtcItem@@AAPAV1@@Z PROC ; std::move<ioEtcItem * &>, COMDAT

; 86   : 	{	// forward _Arg as movable

  00000	55		 push	 ebp
  00001	8b ec		 mov	 ebp, esp

; 87   : 	return ((typename tr1::_Remove_reference<_Ty>::_Type&&)_Arg);

  00003	8b 45 08	 mov	 eax, DWORD PTR __Arg$[ebp]

; 88   : 	}

  00006	5d		 pop	 ebp
  00007	c3		 ret	 0
??$move@AAPAVioEtcItem@@@std@@YA$$QAPAVioEtcItem@@AAPAV1@@Z ENDP ; std::move<ioEtcItem * &>
_TEXT	ENDS
PUBLIC	?_DECSTR@@YAXPADH@Z				; _DECSTR
; Function compile flags: /Ogsp
; File d:\lost saga for developer\youtube\tutorial\source\src\lsclient\stringprotect.h
;	COMDAT ?_DECSTR@@YAXPADH@Z
_TEXT	SEGMENT
_s$ = 8							; size = 4
_l$ = 12						; size = 4
?_DECSTR@@YAXPADH@Z PROC				; _DECSTR, COMDAT

; 40   : __forceinline void _DECSTR(char* s, int l){int i=0,l4=(l-1)/4,*p=(int*)s;s[l-1]=0;for(;i<l4;++i)*(p++)^=0xEAEBECED;for(i=l4*4;i<l-1;++i)s[i]^=0xED-i%4;}

  00000	55		 push	 ebp
  00001	8b ec		 mov	 ebp, esp
  00003	8b 4d 0c	 mov	 ecx, DWORD PTR _l$[ebp]
  00006	56		 push	 esi
  00007	8b 75 08	 mov	 esi, DWORD PTR _s$[ebp]
  0000a	57		 push	 edi
  0000b	8d 79 ff	 lea	 edi, DWORD PTR [ecx-1]
  0000e	8b c7		 mov	 eax, edi
  00010	99		 cdq
  00011	83 e2 03	 and	 edx, 3
  00014	03 c2		 add	 eax, edx
  00016	c1 f8 02	 sar	 eax, 2
  00019	8b d6		 mov	 edx, esi
  0001b	c6 44 0e ff 00	 mov	 BYTE PTR [esi+ecx-1], 0
  00020	85 c0		 test	 eax, eax
  00022	7e 0e		 jle	 SHORT $LN4@DECSTR
  00024	8b c8		 mov	 ecx, eax
$LL6@DECSTR:
  00026	81 32 ed ec eb
	ea		 xor	 DWORD PTR [edx], -353637139 ; eaebecedH
  0002c	83 c2 04	 add	 edx, 4
  0002f	49		 dec	 ecx
  00030	75 f4		 jne	 SHORT $LL6@DECSTR
$LN4@DECSTR:
  00032	c1 e0 02	 shl	 eax, 2
  00035	eb 17		 jmp	 SHORT $LN14@DECSTR
$LL3@DECSTR:
  00037	8b c8		 mov	 ecx, eax
  00039	81 e1 03 00 00
	80		 and	 ecx, -2147483645	; 80000003H
  0003f	79 05		 jns	 SHORT $LN13@DECSTR
  00041	49		 dec	 ecx
  00042	83 c9 fc	 or	 ecx, -4			; fffffffcH
  00045	41		 inc	 ecx
$LN13@DECSTR:
  00046	b2 ed		 mov	 dl, -19			; ffffffedH
  00048	2a d1		 sub	 dl, cl
  0004a	30 14 30	 xor	 BYTE PTR [eax+esi], dl
  0004d	40		 inc	 eax
$LN14@DECSTR:
  0004e	3b c7		 cmp	 eax, edi
  00050	7c e5		 jl	 SHORT $LL3@DECSTR
  00052	5f		 pop	 edi
  00053	5e		 pop	 esi
  00054	5d		 pop	 ebp
  00055	c3		 ret	 0
?_DECSTR@@YAXPADH@Z ENDP				; _DECSTR
_TEXT	ENDS
PUBLIC	?GetType@ioEtcItem@@QBEKXZ			; ioEtcItem::GetType
; Function compile flags: /Ogsp
; File d:\lost saga for developer\youtube\tutorial\source\src\lsclient\ioetcitem.h
;	COMDAT ?GetType@ioEtcItem@@QBEKXZ
_TEXT	SEGMENT
?GetType@ioEtcItem@@QBEKXZ PROC				; ioEtcItem::GetType, COMDAT
; _this$ = ecx

; 419  : 	inline DWORD   GetType() const { return m_dwType; }

  00000	8b 41 24	 mov	 eax, DWORD PTR [ecx+36]
  00003	c3		 ret	 0
?GetType@ioEtcItem@@QBEKXZ ENDP				; ioEtcItem::GetType
_TEXT	ENDS
PUBLIC	?GetName@ioEtcItem@@QBEABVioHashString@@XZ	; ioEtcItem::GetName
; Function compile flags: /Ogsp
;	COMDAT ?GetName@ioEtcItem@@QBEABVioHashString@@XZ
_TEXT	SEGMENT
?GetName@ioEtcItem@@QBEABVioHashString@@XZ PROC		; ioEtcItem::GetName, COMDAT
; _this$ = ecx

; 465  : 	inline const ioHashString& GetName() const { return m_Name; }

  00000	8d 41 04	 lea	 eax, DWORD PTR [ecx+4]
  00003	c3		 ret	 0
?GetName@ioEtcItem@@QBEABVioHashString@@XZ ENDP		; ioEtcItem::GetName
_TEXT	ENDS
PUBLIC	??_7ioEtcItemSkeletonBig@@6B@			; ioEtcItemSkeletonBig::`vftable'
PUBLIC	??0ioEtcItemSkeletonBig@@QAE@XZ			; ioEtcItemSkeletonBig::ioEtcItemSkeletonBig
PUBLIC	??_R4ioEtcItemSkeletonBig@@6B@			; ioEtcItemSkeletonBig::`RTTI Complete Object Locator'
PUBLIC	??_R0?AVioEtcItemSkeletonBig@@@8		; ioEtcItemSkeletonBig `RTTI Type Descriptor'
PUBLIC	??_R3ioEtcItemSkeletonBig@@8			; ioEtcItemSkeletonBig::`RTTI Class Hierarchy Descriptor'
PUBLIC	??_R2ioEtcItemSkeletonBig@@8			; ioEtcItemSkeletonBig::`RTTI Base Class Array'
PUBLIC	??_R1A@?0A@EA@ioEtcItemSkeletonBig@@8		; ioEtcItemSkeletonBig::`RTTI Base Class Descriptor at (0,-1,0,64)'
PUBLIC	??_R1A@?0A@EA@ioEtcItemSkeleton@@8		; ioEtcItemSkeleton::`RTTI Base Class Descriptor at (0,-1,0,64)'
PUBLIC	??_R0?AVioEtcItemSkeleton@@@8			; ioEtcItemSkeleton `RTTI Type Descriptor'
PUBLIC	??_R3ioEtcItemSkeleton@@8			; ioEtcItemSkeleton::`RTTI Class Hierarchy Descriptor'
PUBLIC	??_R2ioEtcItemSkeleton@@8			; ioEtcItemSkeleton::`RTTI Base Class Array'
PUBLIC	??_R1A@?0A@EA@ioEtcItem@@8			; ioEtcItem::`RTTI Base Class Descriptor at (0,-1,0,64)'
PUBLIC	??_R0?AVioEtcItem@@@8				; ioEtcItem `RTTI Type Descriptor'
PUBLIC	??_R3ioEtcItem@@8				; ioEtcItem::`RTTI Class Hierarchy Descriptor'
PUBLIC	??_R2ioEtcItem@@8				; ioEtcItem::`RTTI Base Class Array'
PUBLIC	?SetUse@ioEtcItem@@UAEXXZ			; ioEtcItem::SetUse
PUBLIC	?Execute@ioEtcItem@@UBEXXZ			; ioEtcItem::Execute
PUBLIC	?SendBuy@ioEtcItem@@UAEXXZ			; ioEtcItem::SendBuy
PUBLIC	?OnInit@ioEtcItem@@UAEXPAVioUserEtcItem@@PAVioPlayStage@@@Z ; ioEtcItem::OnInit
PUBLIC	?OnUse@ioEtcItem@@UAEXHAAVSP2Packet@@PAVioUserEtcItem@@PAVioPlayStage@@@Z ; ioEtcItem::OnUse
PUBLIC	?OnBuy@ioEtcItem@@UAEXXZ			; ioEtcItem::OnBuy
PUBLIC	?OnAction@ioEtcItem@@UAEXAAVSP2Packet@@PAVioPlayStage@@@Z ; ioEtcItem::OnAction
PUBLIC	?IsShop3DChar@ioEtcItemSkeleton@@UAE_NXZ	; ioEtcItemSkeleton::IsShop3DChar
PUBLIC	?GetType@ioEtcItemSkeletonBig@@UBEKXZ		; ioEtcItemSkeletonBig::GetType
PUBLIC	?GetHumanManSkl@ioEtcItemSkeleton@@UAEABVioHashString@@XZ ; ioEtcItemSkeleton::GetHumanManSkl
PUBLIC	?GetHumanWomanSkl@ioEtcItemSkeleton@@UAEABVioHashString@@XZ ; ioEtcItemSkeleton::GetHumanWomanSkl
EXTRN	??0ioEtcItemSkeleton@@QAE@XZ:PROC		; ioEtcItemSkeleton::ioEtcItemSkeleton
EXTRN	?LoadProperty@ioEtcItemSkeleton@@UAEXAAVioINILoader@@@Z:PROC ; ioEtcItemSkeleton::LoadProperty
EXTRN	?OnSell@ioEtcItem@@UAEXHAAVSP2Packet@@PAVioUserEtcItem@@@Z:PROC ; ioEtcItem::OnSell
EXTRN	?OnUseBtnPush@ioEtcItemSkeleton@@UAE_NHPAVioUserEtcItem@@_N@Z:PROC ; ioEtcItemSkeleton::OnUseBtnPush
EXTRN	?OnSellBtnPush@ioEtcItem@@UAE_NHPAVioUserEtcItem@@PAVioWnd@@@Z:PROC ; ioEtcItem::OnSellBtnPush
EXTRN	?OnUseSwitchBtnPush@ioEtcItemSkeleton@@UAE_NPAVioUserEtcItem@@_NPAVioPlayStage@@@Z:PROC ; ioEtcItemSkeleton::OnUseSwitchBtnPush
EXTRN	?OnUseSwitch@ioEtcItemSkeleton@@UAEXAAVSP2Packet@@PAVioPlayStage@@@Z:PROC ; ioEtcItemSkeleton::OnUseSwitch
EXTRN	?IsBuyCondition@ioEtcItemSkeleton@@UAE_NH@Z:PROC ; ioEtcItemSkeleton::IsBuyCondition
EXTRN	??_EioEtcItemSkeletonBig@@UAEPAXI@Z:PROC	; ioEtcItemSkeletonBig::`vector deleting destructor'
;	COMDAT ??_R2ioEtcItem@@8
rdata$r	SEGMENT
??_R2ioEtcItem@@8 DD FLAT:??_R1A@?0A@EA@ioEtcItem@@8	; ioEtcItem::`RTTI Base Class Array'
rdata$r	ENDS
;	COMDAT ??_R3ioEtcItem@@8
rdata$r	SEGMENT
??_R3ioEtcItem@@8 DD 00H				; ioEtcItem::`RTTI Class Hierarchy Descriptor'
	DD	00H
	DD	01H
	DD	FLAT:??_R2ioEtcItem@@8
rdata$r	ENDS
;	COMDAT ??_R0?AVioEtcItem@@@8
_DATA	SEGMENT
??_R0?AVioEtcItem@@@8 DD FLAT:??_7type_info@@6B@	; ioEtcItem `RTTI Type Descriptor'
	DD	00H
	DB	'.?AVioEtcItem@@', 00H
_DATA	ENDS
;	COMDAT ??_R1A@?0A@EA@ioEtcItem@@8
rdata$r	SEGMENT
??_R1A@?0A@EA@ioEtcItem@@8 DD FLAT:??_R0?AVioEtcItem@@@8 ; ioEtcItem::`RTTI Base Class Descriptor at (0,-1,0,64)'
	DD	00H
	DD	00H
	DD	0ffffffffH
	DD	00H
	DD	040H
	DD	FLAT:??_R3ioEtcItem@@8
rdata$r	ENDS
;	COMDAT ??_R2ioEtcItemSkeleton@@8
rdata$r	SEGMENT
??_R2ioEtcItemSkeleton@@8 DD FLAT:??_R1A@?0A@EA@ioEtcItemSkeleton@@8 ; ioEtcItemSkeleton::`RTTI Base Class Array'
	DD	FLAT:??_R1A@?0A@EA@ioEtcItem@@8
rdata$r	ENDS
;	COMDAT ??_R3ioEtcItemSkeleton@@8
rdata$r	SEGMENT
??_R3ioEtcItemSkeleton@@8 DD 00H			; ioEtcItemSkeleton::`RTTI Class Hierarchy Descriptor'
	DD	00H
	DD	02H
	DD	FLAT:??_R2ioEtcItemSkeleton@@8
rdata$r	ENDS
;	COMDAT ??_R0?AVioEtcItemSkeleton@@@8
_DATA	SEGMENT
??_R0?AVioEtcItemSkeleton@@@8 DD FLAT:??_7type_info@@6B@ ; ioEtcItemSkeleton `RTTI Type Descriptor'
	DD	00H
	DB	'.?AVioEtcItemSkeleton@@', 00H
_DATA	ENDS
;	COMDAT ??_R1A@?0A@EA@ioEtcItemSkeleton@@8
rdata$r	SEGMENT
??_R1A@?0A@EA@ioEtcItemSkeleton@@8 DD FLAT:??_R0?AVioEtcItemSkeleton@@@8 ; ioEtcItemSkeleton::`RTTI Base Class Descriptor at (0,-1,0,64)'
	DD	01H
	DD	00H
	DD	0ffffffffH
	DD	00H
	DD	040H
	DD	FLAT:??_R3ioEtcItemSkeleton@@8
rdata$r	ENDS
;	COMDAT ??_R1A@?0A@EA@ioEtcItemSkeletonBig@@8
rdata$r	SEGMENT
??_R1A@?0A@EA@ioEtcItemSkeletonBig@@8 DD FLAT:??_R0?AVioEtcItemSkeletonBig@@@8 ; ioEtcItemSkeletonBig::`RTTI Base Class Descriptor at (0,-1,0,64)'
	DD	02H
	DD	00H
	DD	0ffffffffH
	DD	00H
	DD	040H
	DD	FLAT:??_R3ioEtcItemSkeletonBig@@8
rdata$r	ENDS
;	COMDAT ??_R2ioEtcItemSkeletonBig@@8
rdata$r	SEGMENT
??_R2ioEtcItemSkeletonBig@@8 DD FLAT:??_R1A@?0A@EA@ioEtcItemSkeletonBig@@8 ; ioEtcItemSkeletonBig::`RTTI Base Class Array'
	DD	FLAT:??_R1A@?0A@EA@ioEtcItemSkeleton@@8
	DD	FLAT:??_R1A@?0A@EA@ioEtcItem@@8
rdata$r	ENDS
;	COMDAT ??_R3ioEtcItemSkeletonBig@@8
rdata$r	SEGMENT
??_R3ioEtcItemSkeletonBig@@8 DD 00H			; ioEtcItemSkeletonBig::`RTTI Class Hierarchy Descriptor'
	DD	00H
	DD	03H
	DD	FLAT:??_R2ioEtcItemSkeletonBig@@8
rdata$r	ENDS
;	COMDAT ??_R0?AVioEtcItemSkeletonBig@@@8
_DATA	SEGMENT
??_R0?AVioEtcItemSkeletonBig@@@8 DD FLAT:??_7type_info@@6B@ ; ioEtcItemSkeletonBig `RTTI Type Descriptor'
	DD	00H
	DB	'.?AVioEtcItemSkeletonBig@@', 00H
_DATA	ENDS
;	COMDAT ??_R4ioEtcItemSkeletonBig@@6B@
rdata$r	SEGMENT
??_R4ioEtcItemSkeletonBig@@6B@ DD 00H			; ioEtcItemSkeletonBig::`RTTI Complete Object Locator'
	DD	00H
	DD	00H
	DD	FLAT:??_R0?AVioEtcItemSkeletonBig@@@8
	DD	FLAT:??_R3ioEtcItemSkeletonBig@@8
rdata$r	ENDS
;	COMDAT ??_7ioEtcItemSkeletonBig@@6B@
CONST	SEGMENT
??_7ioEtcItemSkeletonBig@@6B@ DD FLAT:??_R4ioEtcItemSkeletonBig@@6B@ ; ioEtcItemSkeletonBig::`vftable'
	DD	FLAT:?LoadProperty@ioEtcItemSkeleton@@UAEXAAVioINILoader@@@Z
	DD	FLAT:?SetUse@ioEtcItem@@UAEXXZ
	DD	FLAT:?Execute@ioEtcItem@@UBEXXZ
	DD	FLAT:?SendBuy@ioEtcItem@@UAEXXZ
	DD	FLAT:?OnInit@ioEtcItem@@UAEXPAVioUserEtcItem@@PAVioPlayStage@@@Z
	DD	FLAT:?OnUse@ioEtcItem@@UAEXHAAVSP2Packet@@PAVioUserEtcItem@@PAVioPlayStage@@@Z
	DD	FLAT:?OnSell@ioEtcItem@@UAEXHAAVSP2Packet@@PAVioUserEtcItem@@@Z
	DD	FLAT:?OnBuy@ioEtcItem@@UAEXXZ
	DD	FLAT:?OnUseBtnPush@ioEtcItemSkeleton@@UAE_NHPAVioUserEtcItem@@_N@Z
	DD	FLAT:?OnSellBtnPush@ioEtcItem@@UAE_NHPAVioUserEtcItem@@PAVioWnd@@@Z
	DD	FLAT:?OnAction@ioEtcItem@@UAEXAAVSP2Packet@@PAVioPlayStage@@@Z
	DD	FLAT:?OnUseSwitchBtnPush@ioEtcItemSkeleton@@UAE_NPAVioUserEtcItem@@_NPAVioPlayStage@@@Z
	DD	FLAT:?OnUseSwitch@ioEtcItemSkeleton@@UAEXAAVSP2Packet@@PAVioPlayStage@@@Z
	DD	FLAT:?IsBuyCondition@ioEtcItemSkeleton@@UAE_NH@Z
	DD	FLAT:?IsShop3DChar@ioEtcItemSkeleton@@UAE_NXZ
	DD	FLAT:??_EioEtcItemSkeletonBig@@UAEPAXI@Z
	DD	FLAT:?GetType@ioEtcItemSkeletonBig@@UBEKXZ
	DD	FLAT:?GetHumanManSkl@ioEtcItemSkeleton@@UAEABVioHashString@@XZ
	DD	FLAT:?GetHumanWomanSkl@ioEtcItemSkeleton@@UAEABVioHashString@@XZ
; Function compile flags: /Ogsp
CONST	ENDS
;	COMDAT ??0ioEtcItemSkeletonBig@@QAE@XZ
_TEXT	SEGMENT
??0ioEtcItemSkeletonBig@@QAE@XZ PROC			; ioEtcItemSkeletonBig::ioEtcItemSkeletonBig, COMDAT
; _this$ = ecx

; 1116 : 	ioEtcItemSkeletonBig(){}

  00000	56		 push	 esi
  00001	8b f1		 mov	 esi, ecx
  00003	e8 00 00 00 00	 call	 ??0ioEtcItemSkeleton@@QAE@XZ ; ioEtcItemSkeleton::ioEtcItemSkeleton
  00008	c7 06 00 00 00
	00		 mov	 DWORD PTR [esi], OFFSET ??_7ioEtcItemSkeletonBig@@6B@
  0000e	8b c6		 mov	 eax, esi
  00010	5e		 pop	 esi
  00011	c3		 ret	 0
??0ioEtcItemSkeletonBig@@QAE@XZ ENDP			; ioEtcItemSkeletonBig::ioEtcItemSkeletonBig
; Function compile flags: /Ogsp
_TEXT	ENDS
;	COMDAT ?SetUse@ioEtcItem@@UAEXXZ
_TEXT	SEGMENT
?SetUse@ioEtcItem@@UAEXXZ PROC				; ioEtcItem::SetUse, COMDAT
; _this$ = ecx

; 415  : 	virtual void   SetUse(){}

  00000	c3		 ret	 0
?SetUse@ioEtcItem@@UAEXXZ ENDP				; ioEtcItem::SetUse
; Function compile flags: /Ogsp
_TEXT	ENDS
;	COMDAT ?Execute@ioEtcItem@@UBEXXZ
_TEXT	SEGMENT
?Execute@ioEtcItem@@UBEXXZ PROC				; ioEtcItem::Execute, COMDAT
; _this$ = ecx

; 416  : 	virtual void   Execute() const{}

  00000	c3		 ret	 0
?Execute@ioEtcItem@@UBEXXZ ENDP				; ioEtcItem::Execute
; Function compile flags: /Ogsp
_TEXT	ENDS
;	COMDAT ?SendBuy@ioEtcItem@@UAEXXZ
_TEXT	SEGMENT
?SendBuy@ioEtcItem@@UAEXXZ PROC				; ioEtcItem::SendBuy, COMDAT
; _this$ = ecx

; 417  : 	virtual void   SendBuy(){}

  00000	c3		 ret	 0
?SendBuy@ioEtcItem@@UAEXXZ ENDP				; ioEtcItem::SendBuy
; Function compile flags: /Ogsp
_TEXT	ENDS
;	COMDAT ?OnInit@ioEtcItem@@UAEXPAVioUserEtcItem@@PAVioPlayStage@@@Z
_TEXT	SEGMENT
_pUserEtcItem$ = 8					; size = 4
_pPlayStage$ = 12					; size = 4
?OnInit@ioEtcItem@@UAEXPAVioUserEtcItem@@PAVioPlayStage@@@Z PROC ; ioEtcItem::OnInit, COMDAT
; _this$ = ecx

; 486  : 	virtual void OnInit( ioUserEtcItem *pUserEtcItem, ioPlayStage *pPlayStage ){}

  00000	c2 08 00	 ret	 8
?OnInit@ioEtcItem@@UAEXPAVioUserEtcItem@@PAVioPlayStage@@@Z ENDP ; ioEtcItem::OnInit
; Function compile flags: /Ogsp
_TEXT	ENDS
;	COMDAT ?OnUse@ioEtcItem@@UAEXHAAVSP2Packet@@PAVioUserEtcItem@@PAVioPlayStage@@@Z
_TEXT	SEGMENT
_iType$ = 8						; size = 4
_rkPacket$ = 12						; size = 4
_pUserEtcItem$ = 16					; size = 4
_pPlayStage$ = 20					; size = 4
?OnUse@ioEtcItem@@UAEXHAAVSP2Packet@@PAVioUserEtcItem@@PAVioPlayStage@@@Z PROC ; ioEtcItem::OnUse, COMDAT
; _this$ = ecx

; 487  : 	virtual void OnUse( int iType, SP2Packet &rkPacket, ioUserEtcItem *pUserEtcItem, ioPlayStage *pPlayStage ){}

  00000	c2 10 00	 ret	 16			; 00000010H
?OnUse@ioEtcItem@@UAEXHAAVSP2Packet@@PAVioUserEtcItem@@PAVioPlayStage@@@Z ENDP ; ioEtcItem::OnUse
; Function compile flags: /Ogsp
_TEXT	ENDS
;	COMDAT ?OnBuy@ioEtcItem@@UAEXXZ
_TEXT	SEGMENT
?OnBuy@ioEtcItem@@UAEXXZ PROC				; ioEtcItem::OnBuy, COMDAT
; _this$ = ecx

; 489  : 	virtual void OnBuy(){}

  00000	c3		 ret	 0
?OnBuy@ioEtcItem@@UAEXXZ ENDP				; ioEtcItem::OnBuy
; Function compile flags: /Ogsp
_TEXT	ENDS
;	COMDAT ?OnAction@ioEtcItem@@UAEXAAVSP2Packet@@PAVioPlayStage@@@Z
_TEXT	SEGMENT
_rkPacket$ = 8						; size = 4
_pPlayStage$ = 12					; size = 4
?OnAction@ioEtcItem@@UAEXAAVSP2Packet@@PAVioPlayStage@@@Z PROC ; ioEtcItem::OnAction, COMDAT
; _this$ = ecx

; 492  : 	virtual void OnAction( SP2Packet &rkPacket, ioPlayStage *pPlayStage ){}

  00000	c2 08 00	 ret	 8
?OnAction@ioEtcItem@@UAEXAAVSP2Packet@@PAVioPlayStage@@@Z ENDP ; ioEtcItem::OnAction
; Function compile flags: /Ogsp
_TEXT	ENDS
;	COMDAT ?IsShop3DChar@ioEtcItemSkeleton@@UAE_NXZ
_TEXT	SEGMENT
?IsShop3DChar@ioEtcItemSkeleton@@UAE_NXZ PROC		; ioEtcItemSkeleton::IsShop3DChar, COMDAT
; _this$ = ecx

; 1100 : 	virtual bool  IsShop3DChar(){ return true; }

  00000	b0 01		 mov	 al, 1
  00002	c3		 ret	 0
?IsShop3DChar@ioEtcItemSkeleton@@UAE_NXZ ENDP		; ioEtcItemSkeleton::IsShop3DChar
; Function compile flags: /Ogsp
_TEXT	ENDS
;	COMDAT ?GetHumanManSkl@ioEtcItemSkeleton@@UAEABVioHashString@@XZ
_TEXT	SEGMENT
?GetHumanManSkl@ioEtcItemSkeleton@@UAEABVioHashString@@XZ PROC ; ioEtcItemSkeleton::GetHumanManSkl, COMDAT
; _this$ = ecx

; 1103 : 	virtual const ioHashString &GetHumanManSkl(){ return m_szHumanManSkl; }

  00000	8d 81 88 01 00
	00		 lea	 eax, DWORD PTR [ecx+392]
  00006	c3		 ret	 0
?GetHumanManSkl@ioEtcItemSkeleton@@UAEABVioHashString@@XZ ENDP ; ioEtcItemSkeleton::GetHumanManSkl
; Function compile flags: /Ogsp
_TEXT	ENDS
;	COMDAT ?GetHumanWomanSkl@ioEtcItemSkeleton@@UAEABVioHashString@@XZ
_TEXT	SEGMENT
?GetHumanWomanSkl@ioEtcItemSkeleton@@UAEABVioHashString@@XZ PROC ; ioEtcItemSkeleton::GetHumanWomanSkl, COMDAT
; _this$ = ecx

; 1104 : 	virtual const ioHashString &GetHumanWomanSkl(){ return m_szHumanWomanSkl; }

  00000	8d 81 98 01 00
	00		 lea	 eax, DWORD PTR [ecx+408]
  00006	c3		 ret	 0
?GetHumanWomanSkl@ioEtcItemSkeleton@@UAEABVioHashString@@XZ ENDP ; ioEtcItemSkeleton::GetHumanWomanSkl
; Function compile flags: /Ogsp
_TEXT	ENDS
;	COMDAT ?GetType@ioEtcItemSkeletonBig@@UBEKXZ
_TEXT	SEGMENT
?GetType@ioEtcItemSkeletonBig@@UBEKXZ PROC		; ioEtcItemSkeletonBig::GetType, COMDAT
; _this$ = ecx

; 1113 : 	virtual DWORD GetType() const { return EIT_ETC_SKELETON_BIG; }

  00000	b8 dd 84 1e 00	 mov	 eax, 2000093		; 001e84ddH
  00005	c3		 ret	 0
?GetType@ioEtcItemSkeletonBig@@UBEKXZ ENDP		; ioEtcItemSkeletonBig::GetType
_TEXT	ENDS
PUBLIC	??1ioEtcItemSkeletonBig@@UAE@XZ			; ioEtcItemSkeletonBig::~ioEtcItemSkeletonBig
EXTRN	??1ioEtcItemSkeleton@@UAE@XZ:PROC		; ioEtcItemSkeleton::~ioEtcItemSkeleton
; Function compile flags: /Ogsp
;	COMDAT ??1ioEtcItemSkeletonBig@@UAE@XZ
_TEXT	SEGMENT
??1ioEtcItemSkeletonBig@@UAE@XZ PROC			; ioEtcItemSkeletonBig::~ioEtcItemSkeletonBig, COMDAT
; _this$ = ecx

; 1117 : 	virtual ~ioEtcItemSkeletonBig(){}

  00000	c7 01 00 00 00
	00		 mov	 DWORD PTR [ecx], OFFSET ??_7ioEtcItemSkeletonBig@@6B@
  00006	e9 00 00 00 00	 jmp	 ??1ioEtcItemSkeleton@@UAE@XZ ; ioEtcItemSkeleton::~ioEtcItemSkeleton
??1ioEtcItemSkeletonBig@@UAE@XZ ENDP			; ioEtcItemSkeletonBig::~ioEtcItemSkeletonBig
; Function compile flags: /Ogsp
_TEXT	ENDS
;	COMDAT ??_GioEtcItemSkeletonBig@@UAEPAXI@Z
_TEXT	SEGMENT
___flags$ = 8						; size = 4
??_GioEtcItemSkeletonBig@@UAEPAXI@Z PROC		; ioEtcItemSkeletonBig::`scalar deleting destructor', COMDAT
; _this$ = ecx
  00000	55		 push	 ebp
  00001	8b ec		 mov	 ebp, esp
  00003	56		 push	 esi
  00004	8b f1		 mov	 esi, ecx
  00006	c7 06 00 00 00
	00		 mov	 DWORD PTR [esi], OFFSET ??_7ioEtcItemSkeletonBig@@6B@
  0000c	e8 00 00 00 00	 call	 ??1ioEtcItemSkeleton@@UAE@XZ ; ioEtcItemSkeleton::~ioEtcItemSkeleton
  00011	f6 45 08 01	 test	 BYTE PTR ___flags$[ebp], 1
  00015	74 07		 je	 SHORT $LN1@scalar@2
  00017	56		 push	 esi
  00018	e8 00 00 00 00	 call	 ??3@YAXPAX@Z		; operator delete
  0001d	59		 pop	 ecx
$LN1@scalar@2:
  0001e	8b c6		 mov	 eax, esi
  00020	5e		 pop	 esi
  00021	5d		 pop	 ebp
  00022	c2 04 00	 ret	 4
??_GioEtcItemSkeletonBig@@UAEPAXI@Z ENDP		; ioEtcItemSkeletonBig::`scalar deleting destructor'
_TEXT	ENDS
PUBLIC	??_7ioEtcItemSkeletonBigHead@@6B@		; ioEtcItemSkeletonBigHead::`vftable'
PUBLIC	??0ioEtcItemSkeletonBigHead@@QAE@XZ		; ioEtcItemSkeletonBigHead::ioEtcItemSkeletonBigHead
PUBLIC	??_R4ioEtcItemSkeletonBigHead@@6B@		; ioEtcItemSkeletonBigHead::`RTTI Complete Object Locator'
PUBLIC	??_R0?AVioEtcItemSkeletonBigHead@@@8		; ioEtcItemSkeletonBigHead `RTTI Type Descriptor'
PUBLIC	??_R3ioEtcItemSkeletonBigHead@@8		; ioEtcItemSkeletonBigHead::`RTTI Class Hierarchy Descriptor'
PUBLIC	??_R2ioEtcItemSkeletonBigHead@@8		; ioEtcItemSkeletonBigHead::`RTTI Base Class Array'
PUBLIC	??_R1A@?0A@EA@ioEtcItemSkeletonBigHead@@8	; ioEtcItemSkeletonBigHead::`RTTI Base Class Descriptor at (0,-1,0,64)'
PUBLIC	?GetType@ioEtcItemSkeletonBigHead@@UBEKXZ	; ioEtcItemSkeletonBigHead::GetType
EXTRN	??_EioEtcItemSkeletonBigHead@@UAEPAXI@Z:PROC	; ioEtcItemSkeletonBigHead::`vector deleting destructor'
;	COMDAT ??_R1A@?0A@EA@ioEtcItemSkeletonBigHead@@8
rdata$r	SEGMENT
??_R1A@?0A@EA@ioEtcItemSkeletonBigHead@@8 DD FLAT:??_R0?AVioEtcItemSkeletonBigHead@@@8 ; ioEtcItemSkeletonBigHead::`RTTI Base Class Descriptor at (0,-1,0,64)'
	DD	02H
	DD	00H
	DD	0ffffffffH
	DD	00H
	DD	040H
	DD	FLAT:??_R3ioEtcItemSkeletonBigHead@@8
rdata$r	ENDS
;	COMDAT ??_R2ioEtcItemSkeletonBigHead@@8
rdata$r	SEGMENT
??_R2ioEtcItemSkeletonBigHead@@8 DD FLAT:??_R1A@?0A@EA@ioEtcItemSkeletonBigHead@@8 ; ioEtcItemSkeletonBigHead::`RTTI Base Class Array'
	DD	FLAT:??_R1A@?0A@EA@ioEtcItemSkeleton@@8
	DD	FLAT:??_R1A@?0A@EA@ioEtcItem@@8
rdata$r	ENDS
;	COMDAT ??_R3ioEtcItemSkeletonBigHead@@8
rdata$r	SEGMENT
??_R3ioEtcItemSkeletonBigHead@@8 DD 00H			; ioEtcItemSkeletonBigHead::`RTTI Class Hierarchy Descriptor'
	DD	00H
	DD	03H
	DD	FLAT:??_R2ioEtcItemSkeletonBigHead@@8
rdata$r	ENDS
;	COMDAT ??_R0?AVioEtcItemSkeletonBigHead@@@8
_DATA	SEGMENT
??_R0?AVioEtcItemSkeletonBigHead@@@8 DD FLAT:??_7type_info@@6B@ ; ioEtcItemSkeletonBigHead `RTTI Type Descriptor'
	DD	00H
	DB	'.?AVioEtcItemSkeletonBigHead@@', 00H
_DATA	ENDS
;	COMDAT ??_R4ioEtcItemSkeletonBigHead@@6B@
rdata$r	SEGMENT
??_R4ioEtcItemSkeletonBigHead@@6B@ DD 00H		; ioEtcItemSkeletonBigHead::`RTTI Complete Object Locator'
	DD	00H
	DD	00H
	DD	FLAT:??_R0?AVioEtcItemSkeletonBigHead@@@8
	DD	FLAT:??_R3ioEtcItemSkeletonBigHead@@8
rdata$r	ENDS
;	COMDAT ??_7ioEtcItemSkeletonBigHead@@6B@
CONST	SEGMENT
??_7ioEtcItemSkeletonBigHead@@6B@ DD FLAT:??_R4ioEtcItemSkeletonBigHead@@6B@ ; ioEtcItemSkeletonBigHead::`vftable'
	DD	FLAT:?LoadProperty@ioEtcItemSkeleton@@UAEXAAVioINILoader@@@Z
	DD	FLAT:?SetUse@ioEtcItem@@UAEXXZ
	DD	FLAT:?Execute@ioEtcItem@@UBEXXZ
	DD	FLAT:?SendBuy@ioEtcItem@@UAEXXZ
	DD	FLAT:?OnInit@ioEtcItem@@UAEXPAVioUserEtcItem@@PAVioPlayStage@@@Z
	DD	FLAT:?OnUse@ioEtcItem@@UAEXHAAVSP2Packet@@PAVioUserEtcItem@@PAVioPlayStage@@@Z
	DD	FLAT:?OnSell@ioEtcItem@@UAEXHAAVSP2Packet@@PAVioUserEtcItem@@@Z
	DD	FLAT:?OnBuy@ioEtcItem@@UAEXXZ
	DD	FLAT:?OnUseBtnPush@ioEtcItemSkeleton@@UAE_NHPAVioUserEtcItem@@_N@Z
	DD	FLAT:?OnSellBtnPush@ioEtcItem@@UAE_NHPAVioUserEtcItem@@PAVioWnd@@@Z
	DD	FLAT:?OnAction@ioEtcItem@@UAEXAAVSP2Packet@@PAVioPlayStage@@@Z
	DD	FLAT:?OnUseSwitchBtnPush@ioEtcItemSkeleton@@UAE_NPAVioUserEtcItem@@_NPAVioPlayStage@@@Z
	DD	FLAT:?OnUseSwitch@ioEtcItemSkeleton@@UAEXAAVSP2Packet@@PAVioPlayStage@@@Z
	DD	FLAT:?IsBuyCondition@ioEtcItemSkeleton@@UAE_NH@Z
	DD	FLAT:?IsShop3DChar@ioEtcItemSkeleton@@UAE_NXZ
	DD	FLAT:??_EioEtcItemSkeletonBigHead@@UAEPAXI@Z
	DD	FLAT:?GetType@ioEtcItemSkeletonBigHead@@UBEKXZ
	DD	FLAT:?GetHumanManSkl@ioEtcItemSkeleton@@UAEABVioHashString@@XZ
	DD	FLAT:?GetHumanWomanSkl@ioEtcItemSkeleton@@UAEABVioHashString@@XZ
; Function compile flags: /Ogsp
CONST	ENDS
;	COMDAT ??0ioEtcItemSkeletonBigHead@@QAE@XZ
_TEXT	SEGMENT
??0ioEtcItemSkeletonBigHead@@QAE@XZ PROC		; ioEtcItemSkeletonBigHead::ioEtcItemSkeletonBigHead, COMDAT
; _this$ = ecx

; 1125 : 	ioEtcItemSkeletonBigHead(){}

  00000	56		 push	 esi
  00001	8b f1		 mov	 esi, ecx
  00003	e8 00 00 00 00	 call	 ??0ioEtcItemSkeleton@@QAE@XZ ; ioEtcItemSkeleton::ioEtcItemSkeleton
  00008	c7 06 00 00 00
	00		 mov	 DWORD PTR [esi], OFFSET ??_7ioEtcItemSkeletonBigHead@@6B@
  0000e	8b c6		 mov	 eax, esi
  00010	5e		 pop	 esi
  00011	c3		 ret	 0
??0ioEtcItemSkeletonBigHead@@QAE@XZ ENDP		; ioEtcItemSkeletonBigHead::ioEtcItemSkeletonBigHead
; Function compile flags: /Ogsp
_TEXT	ENDS
;	COMDAT ?GetType@ioEtcItemSkeletonBigHead@@UBEKXZ
_TEXT	SEGMENT
?GetType@ioEtcItemSkeletonBigHead@@UBEKXZ PROC		; ioEtcItemSkeletonBigHead::GetType, COMDAT
; _this$ = ecx

; 1122 : 	virtual DWORD GetType() const { return EIT_ETC_SKELETON_BIGHEAD; }

  00000	b8 de 84 1e 00	 mov	 eax, 2000094		; 001e84deH
  00005	c3		 ret	 0
?GetType@ioEtcItemSkeletonBigHead@@UBEKXZ ENDP		; ioEtcItemSkeletonBigHead::GetType
_TEXT	ENDS
PUBLIC	??1ioEtcItemSkeletonBigHead@@UAE@XZ		; ioEtcItemSkeletonBigHead::~ioEtcItemSkeletonBigHead
; Function compile flags: /Ogsp
;	COMDAT ??1ioEtcItemSkeletonBigHead@@UAE@XZ
_TEXT	SEGMENT
??1ioEtcItemSkeletonBigHead@@UAE@XZ PROC		; ioEtcItemSkeletonBigHead::~ioEtcItemSkeletonBigHead, COMDAT
; _this$ = ecx

; 1126 : 	virtual ~ioEtcItemSkeletonBigHead(){}

  00000	c7 01 00 00 00
	00		 mov	 DWORD PTR [ecx], OFFSET ??_7ioEtcItemSkeletonBigHead@@6B@
  00006	e9 00 00 00 00	 jmp	 ??1ioEtcItemSkeleton@@UAE@XZ ; ioEtcItemSkeleton::~ioEtcItemSkeleton
??1ioEtcItemSkeletonBigHead@@UAE@XZ ENDP		; ioEtcItemSkeletonBigHead::~ioEtcItemSkeletonBigHead
; Function compile flags: /Ogsp
_TEXT	ENDS
;	COMDAT ??_GioEtcItemSkeletonBigHead@@UAEPAXI@Z
_TEXT	SEGMENT
___flags$ = 8						; size = 4
??_GioEtcItemSkeletonBigHead@@UAEPAXI@Z PROC		; ioEtcItemSkeletonBigHead::`scalar deleting destructor', COMDAT
; _this$ = ecx
  00000	55		 push	 ebp
  00001	8b ec		 mov	 ebp, esp
  00003	56		 push	 esi
  00004	8b f1		 mov	 esi, ecx
  00006	c7 06 00 00 00
	00		 mov	 DWORD PTR [esi], OFFSET ??_7ioEtcItemSkeletonBigHead@@6B@
  0000c	e8 00 00 00 00	 call	 ??1ioEtcItemSkeleton@@UAE@XZ ; ioEtcItemSkeleton::~ioEtcItemSkeleton
  00011	f6 45 08 01	 test	 BYTE PTR ___flags$[ebp], 1
  00015	74 07		 je	 SHORT $LN1@scalar@3
  00017	56		 push	 esi
  00018	e8 00 00 00 00	 call	 ??3@YAXPAX@Z		; operator delete
  0001d	59		 pop	 ecx
$LN1@scalar@3:
  0001e	8b c6		 mov	 eax, esi
  00020	5e		 pop	 esi
  00021	5d		 pop	 ebp
  00022	c2 04 00	 ret	 4
??_GioEtcItemSkeletonBigHead@@UAEPAXI@Z ENDP		; ioEtcItemSkeletonBigHead::`scalar deleting destructor'
_TEXT	ENDS
PUBLIC	??_7ioEtcItemSkeletonSmall@@6B@			; ioEtcItemSkeletonSmall::`vftable'
PUBLIC	??0ioEtcItemSkeletonSmall@@QAE@XZ		; ioEtcItemSkeletonSmall::ioEtcItemSkeletonSmall
PUBLIC	??_R4ioEtcItemSkeletonSmall@@6B@		; ioEtcItemSkeletonSmall::`RTTI Complete Object Locator'
PUBLIC	??_R0?AVioEtcItemSkeletonSmall@@@8		; ioEtcItemSkeletonSmall `RTTI Type Descriptor'
PUBLIC	??_R3ioEtcItemSkeletonSmall@@8			; ioEtcItemSkeletonSmall::`RTTI Class Hierarchy Descriptor'
PUBLIC	??_R2ioEtcItemSkeletonSmall@@8			; ioEtcItemSkeletonSmall::`RTTI Base Class Array'
PUBLIC	??_R1A@?0A@EA@ioEtcItemSkeletonSmall@@8		; ioEtcItemSkeletonSmall::`RTTI Base Class Descriptor at (0,-1,0,64)'
PUBLIC	?GetType@ioEtcItemSkeletonSmall@@UBEKXZ		; ioEtcItemSkeletonSmall::GetType
EXTRN	??_EioEtcItemSkeletonSmall@@UAEPAXI@Z:PROC	; ioEtcItemSkeletonSmall::`vector deleting destructor'
;	COMDAT ??_R1A@?0A@EA@ioEtcItemSkeletonSmall@@8
rdata$r	SEGMENT
??_R1A@?0A@EA@ioEtcItemSkeletonSmall@@8 DD FLAT:??_R0?AVioEtcItemSkeletonSmall@@@8 ; ioEtcItemSkeletonSmall::`RTTI Base Class Descriptor at (0,-1,0,64)'
	DD	02H
	DD	00H
	DD	0ffffffffH
	DD	00H
	DD	040H
	DD	FLAT:??_R3ioEtcItemSkeletonSmall@@8
rdata$r	ENDS
;	COMDAT ??_R2ioEtcItemSkeletonSmall@@8
rdata$r	SEGMENT
??_R2ioEtcItemSkeletonSmall@@8 DD FLAT:??_R1A@?0A@EA@ioEtcItemSkeletonSmall@@8 ; ioEtcItemSkeletonSmall::`RTTI Base Class Array'
	DD	FLAT:??_R1A@?0A@EA@ioEtcItemSkeleton@@8
	DD	FLAT:??_R1A@?0A@EA@ioEtcItem@@8
rdata$r	ENDS
;	COMDAT ??_R3ioEtcItemSkeletonSmall@@8
rdata$r	SEGMENT
??_R3ioEtcItemSkeletonSmall@@8 DD 00H			; ioEtcItemSkeletonSmall::`RTTI Class Hierarchy Descriptor'
	DD	00H
	DD	03H
	DD	FLAT:??_R2ioEtcItemSkeletonSmall@@8
rdata$r	ENDS
;	COMDAT ??_R0?AVioEtcItemSkeletonSmall@@@8
_DATA	SEGMENT
??_R0?AVioEtcItemSkeletonSmall@@@8 DD FLAT:??_7type_info@@6B@ ; ioEtcItemSkeletonSmall `RTTI Type Descriptor'
	DD	00H
	DB	'.?AVioEtcItemSkeletonSmall@@', 00H
_DATA	ENDS
;	COMDAT ??_R4ioEtcItemSkeletonSmall@@6B@
rdata$r	SEGMENT
??_R4ioEtcItemSkeletonSmall@@6B@ DD 00H			; ioEtcItemSkeletonSmall::`RTTI Complete Object Locator'
	DD	00H
	DD	00H
	DD	FLAT:??_R0?AVioEtcItemSkeletonSmall@@@8
	DD	FLAT:??_R3ioEtcItemSkeletonSmall@@8
rdata$r	ENDS
;	COMDAT ??_7ioEtcItemSkeletonSmall@@6B@
CONST	SEGMENT
??_7ioEtcItemSkeletonSmall@@6B@ DD FLAT:??_R4ioEtcItemSkeletonSmall@@6B@ ; ioEtcItemSkeletonSmall::`vftable'
	DD	FLAT:?LoadProperty@ioEtcItemSkeleton@@UAEXAAVioINILoader@@@Z
	DD	FLAT:?SetUse@ioEtcItem@@UAEXXZ
	DD	FLAT:?Execute@ioEtcItem@@UBEXXZ
	DD	FLAT:?SendBuy@ioEtcItem@@UAEXXZ
	DD	FLAT:?OnInit@ioEtcItem@@UAEXPAVioUserEtcItem@@PAVioPlayStage@@@Z
	DD	FLAT:?OnUse@ioEtcItem@@UAEXHAAVSP2Packet@@PAVioUserEtcItem@@PAVioPlayStage@@@Z
	DD	FLAT:?OnSell@ioEtcItem@@UAEXHAAVSP2Packet@@PAVioUserEtcItem@@@Z
	DD	FLAT:?OnBuy@ioEtcItem@@UAEXXZ
	DD	FLAT:?OnUseBtnPush@ioEtcItemSkeleton@@UAE_NHPAVioUserEtcItem@@_N@Z
	DD	FLAT:?OnSellBtnPush@ioEtcItem@@UAE_NHPAVioUserEtcItem@@PAVioWnd@@@Z
	DD	FLAT:?OnAction@ioEtcItem@@UAEXAAVSP2Packet@@PAVioPlayStage@@@Z
	DD	FLAT:?OnUseSwitchBtnPush@ioEtcItemSkeleton@@UAE_NPAVioUserEtcItem@@_NPAVioPlayStage@@@Z
	DD	FLAT:?OnUseSwitch@ioEtcItemSkeleton@@UAEXAAVSP2Packet@@PAVioPlayStage@@@Z
	DD	FLAT:?IsBuyCondition@ioEtcItemSkeleton@@UAE_NH@Z
	DD	FLAT:?IsShop3DChar@ioEtcItemSkeleton@@UAE_NXZ
	DD	FLAT:??_EioEtcItemSkeletonSmall@@UAEPAXI@Z
	DD	FLAT:?GetType@ioEtcItemSkeletonSmall@@UBEKXZ
	DD	FLAT:?GetHumanManSkl@ioEtcItemSkeleton@@UAEABVioHashString@@XZ
	DD	FLAT:?GetHumanWomanSkl@ioEtcItemSkeleton@@UAEABVioHashString@@XZ
; Function compile flags: /Ogsp
CONST	ENDS
;	COMDAT ??0ioEtcItemSkeletonSmall@@QAE@XZ
_TEXT	SEGMENT
??0ioEtcItemSkeletonSmall@@QAE@XZ PROC			; ioEtcItemSkeletonSmall::ioEtcItemSkeletonSmall, COMDAT
; _this$ = ecx

; 1134 : 	ioEtcItemSkeletonSmall(){}

  00000	56		 push	 esi
  00001	8b f1		 mov	 esi, ecx
  00003	e8 00 00 00 00	 call	 ??0ioEtcItemSkeleton@@QAE@XZ ; ioEtcItemSkeleton::ioEtcItemSkeleton
  00008	c7 06 00 00 00
	00		 mov	 DWORD PTR [esi], OFFSET ??_7ioEtcItemSkeletonSmall@@6B@
  0000e	8b c6		 mov	 eax, esi
  00010	5e		 pop	 esi
  00011	c3		 ret	 0
??0ioEtcItemSkeletonSmall@@QAE@XZ ENDP			; ioEtcItemSkeletonSmall::ioEtcItemSkeletonSmall
; Function compile flags: /Ogsp
_TEXT	ENDS
;	COMDAT ?GetType@ioEtcItemSkeletonSmall@@UBEKXZ
_TEXT	SEGMENT
?GetType@ioEtcItemSkeletonSmall@@UBEKXZ PROC		; ioEtcItemSkeletonSmall::GetType, COMDAT
; _this$ = ecx

; 1131 : 	virtual DWORD GetType() const { return EIT_ETC_SKELETON_SMALL; }

  00000	b8 df 84 1e 00	 mov	 eax, 2000095		; 001e84dfH
  00005	c3		 ret	 0
?GetType@ioEtcItemSkeletonSmall@@UBEKXZ ENDP		; ioEtcItemSkeletonSmall::GetType
_TEXT	ENDS
PUBLIC	??1ioEtcItemSkeletonSmall@@UAE@XZ		; ioEtcItemSkeletonSmall::~ioEtcItemSkeletonSmall
; Function compile flags: /Ogsp
;	COMDAT ??1ioEtcItemSkeletonSmall@@UAE@XZ
_TEXT	SEGMENT
??1ioEtcItemSkeletonSmall@@UAE@XZ PROC			; ioEtcItemSkeletonSmall::~ioEtcItemSkeletonSmall, COMDAT
; _this$ = ecx

; 1135 : 	virtual ~ioEtcItemSkeletonSmall(){}

  00000	c7 01 00 00 00
	00		 mov	 DWORD PTR [ecx], OFFSET ??_7ioEtcItemSkeletonSmall@@6B@
  00006	e9 00 00 00 00	 jmp	 ??1ioEtcItemSkeleton@@UAE@XZ ; ioEtcItemSkeleton::~ioEtcItemSkeleton
??1ioEtcItemSkeletonSmall@@UAE@XZ ENDP			; ioEtcItemSkeletonSmall::~ioEtcItemSkeletonSmall
; Function compile flags: /Ogsp
_TEXT	ENDS
;	COMDAT ??_GioEtcItemSkeletonSmall@@UAEPAXI@Z
_TEXT	SEGMENT
___flags$ = 8						; size = 4
??_GioEtcItemSkeletonSmall@@UAEPAXI@Z PROC		; ioEtcItemSkeletonSmall::`scalar deleting destructor', COMDAT
; _this$ = ecx
  00000	55		 push	 ebp
  00001	8b ec		 mov	 ebp, esp
  00003	56		 push	 esi
  00004	8b f1		 mov	 esi, ecx
  00006	c7 06 00 00 00
	00		 mov	 DWORD PTR [esi], OFFSET ??_7ioEtcItemSkeletonSmall@@6B@
  0000c	e8 00 00 00 00	 call	 ??1ioEtcItemSkeleton@@UAE@XZ ; ioEtcItemSkeleton::~ioEtcItemSkeleton
  00011	f6 45 08 01	 test	 BYTE PTR ___flags$[ebp], 1
  00015	74 07		 je	 SHORT $LN1@scalar@4
  00017	56		 push	 esi
  00018	e8 00 00 00 00	 call	 ??3@YAXPAX@Z		; operator delete
  0001d	59		 pop	 ecx
$LN1@scalar@4:
  0001e	8b c6		 mov	 eax, esi
  00020	5e		 pop	 esi
  00021	5d		 pop	 ebp
  00022	c2 04 00	 ret	 4
??_GioEtcItemSkeletonSmall@@UAEPAXI@Z ENDP		; ioEtcItemSkeletonSmall::`scalar deleting destructor'
_TEXT	ENDS
PUBLIC	??_7ioEtcItemEventCheck@@6B@			; ioEtcItemEventCheck::`vftable'
PUBLIC	??0ioEtcItemEventCheck@@QAE@XZ			; ioEtcItemEventCheck::ioEtcItemEventCheck
PUBLIC	??_R4ioEtcItemEventCheck@@6B@			; ioEtcItemEventCheck::`RTTI Complete Object Locator'
PUBLIC	??_R0?AVioEtcItemEventCheck@@@8			; ioEtcItemEventCheck `RTTI Type Descriptor'
PUBLIC	??_R3ioEtcItemEventCheck@@8			; ioEtcItemEventCheck::`RTTI Class Hierarchy Descriptor'
PUBLIC	??_R2ioEtcItemEventCheck@@8			; ioEtcItemEventCheck::`RTTI Base Class Array'
PUBLIC	??_R1A@?0A@EA@ioEtcItemEventCheck@@8		; ioEtcItemEventCheck::`RTTI Base Class Descriptor at (0,-1,0,64)'
PUBLIC	?OnUseBtnPush@ioEtcItem@@UAE_NHPAVioUserEtcItem@@_N@Z ; ioEtcItem::OnUseBtnPush
PUBLIC	?OnUseSwitchBtnPush@ioEtcItem@@UAE_NPAVioUserEtcItem@@_NPAVioPlayStage@@@Z ; ioEtcItem::OnUseSwitchBtnPush
PUBLIC	?OnUseSwitch@ioEtcItem@@UAEXAAVSP2Packet@@PAVioPlayStage@@@Z ; ioEtcItem::OnUseSwitch
PUBLIC	?IsBuyCondition@ioEtcItem@@UAE_NH@Z		; ioEtcItem::IsBuyCondition
PUBLIC	?IsShop3DChar@ioEtcItem@@UAE_NXZ		; ioEtcItem::IsShop3DChar
EXTRN	??0ioEtcItem@@QAE@XZ:PROC			; ioEtcItem::ioEtcItem
EXTRN	?LoadProperty@ioEtcItem@@UAEXAAVioINILoader@@@Z:PROC ; ioEtcItem::LoadProperty
EXTRN	??_EioEtcItemEventCheck@@UAEPAXI@Z:PROC		; ioEtcItemEventCheck::`vector deleting destructor'
;	COMDAT ??_R1A@?0A@EA@ioEtcItemEventCheck@@8
rdata$r	SEGMENT
??_R1A@?0A@EA@ioEtcItemEventCheck@@8 DD FLAT:??_R0?AVioEtcItemEventCheck@@@8 ; ioEtcItemEventCheck::`RTTI Base Class Descriptor at (0,-1,0,64)'
	DD	01H
	DD	00H
	DD	0ffffffffH
	DD	00H
	DD	040H
	DD	FLAT:??_R3ioEtcItemEventCheck@@8
rdata$r	ENDS
;	COMDAT ??_R2ioEtcItemEventCheck@@8
rdata$r	SEGMENT
??_R2ioEtcItemEventCheck@@8 DD FLAT:??_R1A@?0A@EA@ioEtcItemEventCheck@@8 ; ioEtcItemEventCheck::`RTTI Base Class Array'
	DD	FLAT:??_R1A@?0A@EA@ioEtcItem@@8
rdata$r	ENDS
;	COMDAT ??_R3ioEtcItemEventCheck@@8
rdata$r	SEGMENT
??_R3ioEtcItemEventCheck@@8 DD 00H			; ioEtcItemEventCheck::`RTTI Class Hierarchy Descriptor'
	DD	00H
	DD	02H
	DD	FLAT:??_R2ioEtcItemEventCheck@@8
rdata$r	ENDS
;	COMDAT ??_R0?AVioEtcItemEventCheck@@@8
_DATA	SEGMENT
??_R0?AVioEtcItemEventCheck@@@8 DD FLAT:??_7type_info@@6B@ ; ioEtcItemEventCheck `RTTI Type Descriptor'
	DD	00H
	DB	'.?AVioEtcItemEventCheck@@', 00H
_DATA	ENDS
;	COMDAT ??_R4ioEtcItemEventCheck@@6B@
rdata$r	SEGMENT
??_R4ioEtcItemEventCheck@@6B@ DD 00H			; ioEtcItemEventCheck::`RTTI Complete Object Locator'
	DD	00H
	DD	00H
	DD	FLAT:??_R0?AVioEtcItemEventCheck@@@8
	DD	FLAT:??_R3ioEtcItemEventCheck@@8
rdata$r	ENDS
;	COMDAT ??_7ioEtcItemEventCheck@@6B@
CONST	SEGMENT
??_7ioEtcItemEventCheck@@6B@ DD FLAT:??_R4ioEtcItemEventCheck@@6B@ ; ioEtcItemEventCheck::`vftable'
	DD	FLAT:?LoadProperty@ioEtcItem@@UAEXAAVioINILoader@@@Z
	DD	FLAT:?SetUse@ioEtcItem@@UAEXXZ
	DD	FLAT:?Execute@ioEtcItem@@UBEXXZ
	DD	FLAT:?SendBuy@ioEtcItem@@UAEXXZ
	DD	FLAT:?OnInit@ioEtcItem@@UAEXPAVioUserEtcItem@@PAVioPlayStage@@@Z
	DD	FLAT:?OnUse@ioEtcItem@@UAEXHAAVSP2Packet@@PAVioUserEtcItem@@PAVioPlayStage@@@Z
	DD	FLAT:?OnSell@ioEtcItem@@UAEXHAAVSP2Packet@@PAVioUserEtcItem@@@Z
	DD	FLAT:?OnBuy@ioEtcItem@@UAEXXZ
	DD	FLAT:?OnUseBtnPush@ioEtcItem@@UAE_NHPAVioUserEtcItem@@_N@Z
	DD	FLAT:?OnSellBtnPush@ioEtcItem@@UAE_NHPAVioUserEtcItem@@PAVioWnd@@@Z
	DD	FLAT:?OnAction@ioEtcItem@@UAEXAAVSP2Packet@@PAVioPlayStage@@@Z
	DD	FLAT:?OnUseSwitchBtnPush@ioEtcItem@@UAE_NPAVioUserEtcItem@@_NPAVioPlayStage@@@Z
	DD	FLAT:?OnUseSwitch@ioEtcItem@@UAEXAAVSP2Packet@@PAVioPlayStage@@@Z
	DD	FLAT:?IsBuyCondition@ioEtcItem@@UAE_NH@Z
	DD	FLAT:?IsShop3DChar@ioEtcItem@@UAE_NXZ
	DD	FLAT:??_EioEtcItemEventCheck@@UAEPAXI@Z
; Function compile flags: /Ogsp
CONST	ENDS
;	COMDAT ??0ioEtcItemEventCheck@@QAE@XZ
_TEXT	SEGMENT
??0ioEtcItemEventCheck@@QAE@XZ PROC			; ioEtcItemEventCheck::ioEtcItemEventCheck, COMDAT
; _this$ = ecx

; 1282 : 	ioEtcItemEventCheck(){}

  00000	56		 push	 esi
  00001	8b f1		 mov	 esi, ecx
  00003	e8 00 00 00 00	 call	 ??0ioEtcItem@@QAE@XZ	; ioEtcItem::ioEtcItem
  00008	c7 06 00 00 00
	00		 mov	 DWORD PTR [esi], OFFSET ??_7ioEtcItemEventCheck@@6B@
  0000e	8b c6		 mov	 eax, esi
  00010	5e		 pop	 esi
  00011	c3		 ret	 0
??0ioEtcItemEventCheck@@QAE@XZ ENDP			; ioEtcItemEventCheck::ioEtcItemEventCheck
; Function compile flags: /Ogsp
_TEXT	ENDS
;	COMDAT ?OnUseBtnPush@ioEtcItem@@UAE_NHPAVioUserEtcItem@@_N@Z
_TEXT	SEGMENT
_iType$ = 8						; size = 4
_pUserEtcItem$ = 12					; size = 4
_bPresentLimitCheck$ = 16				; size = 1
?OnUseBtnPush@ioEtcItem@@UAE_NHPAVioUserEtcItem@@_N@Z PROC ; ioEtcItem::OnUseBtnPush, COMDAT
; _this$ = ecx

; 490  : 	virtual bool OnUseBtnPush( int iType, ioUserEtcItem *pUserEtcItem, bool bPresentLimitCheck = true ){ return false; }

  00000	32 c0		 xor	 al, al
  00002	c2 0c 00	 ret	 12			; 0000000cH
?OnUseBtnPush@ioEtcItem@@UAE_NHPAVioUserEtcItem@@_N@Z ENDP ; ioEtcItem::OnUseBtnPush
; Function compile flags: /Ogsp
_TEXT	ENDS
;	COMDAT ?OnUseSwitchBtnPush@ioEtcItem@@UAE_NPAVioUserEtcItem@@_NPAVioPlayStage@@@Z
_TEXT	SEGMENT
_pUserEtcItem$ = 8					; size = 4
_bUseOn$ = 12						; size = 1
_pPlayStage$ = 16					; size = 4
?OnUseSwitchBtnPush@ioEtcItem@@UAE_NPAVioUserEtcItem@@_NPAVioPlayStage@@@Z PROC ; ioEtcItem::OnUseSwitchBtnPush, COMDAT
; _this$ = ecx

; 493  : 	virtual bool OnUseSwitchBtnPush( ioUserEtcItem *pUserEtcItem, bool bUseOn, ioPlayStage *pPlayStage ){ return false; }

  00000	32 c0		 xor	 al, al
  00002	c2 0c 00	 ret	 12			; 0000000cH
?OnUseSwitchBtnPush@ioEtcItem@@UAE_NPAVioUserEtcItem@@_NPAVioPlayStage@@@Z ENDP ; ioEtcItem::OnUseSwitchBtnPush
; Function compile flags: /Ogsp
_TEXT	ENDS
;	COMDAT ?OnUseSwitch@ioEtcItem@@UAEXAAVSP2Packet@@PAVioPlayStage@@@Z
_TEXT	SEGMENT
_rkPacket$ = 8						; size = 4
_pPlayStage$ = 12					; size = 4
?OnUseSwitch@ioEtcItem@@UAEXAAVSP2Packet@@PAVioPlayStage@@@Z PROC ; ioEtcItem::OnUseSwitch, COMDAT
; _this$ = ecx

; 494  : 	virtual void OnUseSwitch( SP2Packet &rkPacket, ioPlayStage *pPlayStage ){}

  00000	c2 08 00	 ret	 8
?OnUseSwitch@ioEtcItem@@UAEXAAVSP2Packet@@PAVioPlayStage@@@Z ENDP ; ioEtcItem::OnUseSwitch
; Function compile flags: /Ogsp
_TEXT	ENDS
;	COMDAT ?IsBuyCondition@ioEtcItem@@UAE_NH@Z
_TEXT	SEGMENT
_iUse$ = 8						; size = 4
?IsBuyCondition@ioEtcItem@@UAE_NH@Z PROC		; ioEtcItem::IsBuyCondition, COMDAT
; _this$ = ecx

; 495  : 	virtual bool IsBuyCondition( int iUse ){ return true; }

  00000	b0 01		 mov	 al, 1
  00002	c2 04 00	 ret	 4
?IsBuyCondition@ioEtcItem@@UAE_NH@Z ENDP		; ioEtcItem::IsBuyCondition
; Function compile flags: /Ogsp
_TEXT	ENDS
;	COMDAT ?IsShop3DChar@ioEtcItem@@UAE_NXZ
_TEXT	SEGMENT
?IsShop3DChar@ioEtcItem@@UAE_NXZ PROC			; ioEtcItem::IsShop3DChar, COMDAT
; _this$ = ecx

; 496  : 	virtual bool IsShop3DChar(){ return false; }

  00000	32 c0		 xor	 al, al
  00002	c3		 ret	 0
?IsShop3DChar@ioEtcItem@@UAE_NXZ ENDP			; ioEtcItem::IsShop3DChar
_TEXT	ENDS
PUBLIC	??1ioEtcItemEventCheck@@UAE@XZ			; ioEtcItemEventCheck::~ioEtcItemEventCheck
EXTRN	??1ioEtcItem@@UAE@XZ:PROC			; ioEtcItem::~ioEtcItem
; Function compile flags: /Ogsp
;	COMDAT ??1ioEtcItemEventCheck@@UAE@XZ
_TEXT	SEGMENT
??1ioEtcItemEventCheck@@UAE@XZ PROC			; ioEtcItemEventCheck::~ioEtcItemEventCheck, COMDAT
; _this$ = ecx

; 1283 : 	virtual ~ioEtcItemEventCheck(){}

  00000	c7 01 00 00 00
	00		 mov	 DWORD PTR [ecx], OFFSET ??_7ioEtcItemEventCheck@@6B@
  00006	e9 00 00 00 00	 jmp	 ??1ioEtcItem@@UAE@XZ	; ioEtcItem::~ioEtcItem
??1ioEtcItemEventCheck@@UAE@XZ ENDP			; ioEtcItemEventCheck::~ioEtcItemEventCheck
; Function compile flags: /Ogsp
_TEXT	ENDS
;	COMDAT ??_GioEtcItemEventCheck@@UAEPAXI@Z
_TEXT	SEGMENT
___flags$ = 8						; size = 4
??_GioEtcItemEventCheck@@UAEPAXI@Z PROC			; ioEtcItemEventCheck::`scalar deleting destructor', COMDAT
; _this$ = ecx
  00000	55		 push	 ebp
  00001	8b ec		 mov	 ebp, esp
  00003	56		 push	 esi
  00004	8b f1		 mov	 esi, ecx
  00006	c7 06 00 00 00
	00		 mov	 DWORD PTR [esi], OFFSET ??_7ioEtcItemEventCheck@@6B@
  0000c	e8 00 00 00 00	 call	 ??1ioEtcItem@@UAE@XZ	; ioEtcItem::~ioEtcItem
  00011	f6 45 08 01	 test	 BYTE PTR ___flags$[ebp], 1
  00015	74 07		 je	 SHORT $LN1@scalar@5
  00017	56		 push	 esi
  00018	e8 00 00 00 00	 call	 ??3@YAXPAX@Z		; operator delete
  0001d	59		 pop	 ecx
$LN1@scalar@5:
  0001e	8b c6		 mov	 eax, esi
  00020	5e		 pop	 esi
  00021	5d		 pop	 ebp
  00022	c2 04 00	 ret	 4
??_GioEtcItemEventCheck@@UAEPAXI@Z ENDP			; ioEtcItemEventCheck::`scalar deleting destructor'
_TEXT	ENDS
PUBLIC	?size@?$vector@HV?$allocator@H@std@@@std@@QBEIXZ ; std::vector<int,std::allocator<int> >::size
; Function compile flags: /Ogsp
; File c:\program files (x86)\microsoft visual studio 10.0\vc\include\vector
;	COMDAT ?size@?$vector@HV?$allocator@H@std@@@std@@QBEIXZ
_TEXT	SEGMENT
?size@?$vector@HV?$allocator@H@std@@@std@@QBEIXZ PROC	; std::vector<int,std::allocator<int> >::size, COMDAT
; _this$ = ecx

; 879  : 		return (this->_Mylast - this->_Myfirst);

  00000	8b 41 04	 mov	 eax, DWORD PTR [ecx+4]
  00003	2b 01		 sub	 eax, DWORD PTR [ecx]
  00005	c1 f8 02	 sar	 eax, 2

; 880  : 		}

  00008	c3		 ret	 0
?size@?$vector@HV?$allocator@H@std@@@std@@QBEIXZ ENDP	; std::vector<int,std::allocator<int> >::size
_TEXT	ENDS
PUBLIC	?size@?$_Tree@V?$_Tmap_traits@KPAVioEtcItem@@U?$less@K@std@@V?$allocator@U?$pair@$$CBKPAVioEtcItem@@@std@@@3@$0A@@std@@@std@@QBEIXZ ; std::_Tree<std::_Tmap_traits<unsigned long,ioEtcItem *,std::less<unsigned long>,std::allocator<std::pair<unsigned long const ,ioEtcItem *> >,0> >::size
; Function compile flags: /Ogsp
; File c:\program files (x86)\microsoft visual studio 10.0\vc\include\xtree
;	COMDAT ?size@?$_Tree@V?$_Tmap_traits@KPAVioEtcItem@@U?$less@K@std@@V?$allocator@U?$pair@$$CBKPAVioEtcItem@@@std@@@3@$0A@@std@@@std@@QBEIXZ
_TEXT	SEGMENT
?size@?$_Tree@V?$_Tmap_traits@KPAVioEtcItem@@U?$less@K@std@@V?$allocator@U?$pair@$$CBKPAVioEtcItem@@@std@@@3@$0A@@std@@@std@@QBEIXZ PROC ; std::_Tree<std::_Tmap_traits<unsigned long,ioEtcItem *,std::less<unsigned long>,std::allocator<std::pair<unsigned long const ,ioEtcItem *> >,0> >::size, COMDAT
; _this$ = ecx

; 869  : 		return (this->_Mysize);

  00000	8b 41 08	 mov	 eax, DWORD PTR [ecx+8]

; 870  : 		}

  00003	c3		 ret	 0
?size@?$_Tree@V?$_Tmap_traits@KPAVioEtcItem@@U?$less@K@std@@V?$allocator@U?$pair@$$CBKPAVioEtcItem@@@std@@@3@$0A@@std@@@std@@QBEIXZ ENDP ; std::_Tree<std::_Tmap_traits<unsigned long,ioEtcItem *,std::less<unsigned long>,std::allocator<std::pair<unsigned long const ,ioEtcItem *> >,0> >::size
_TEXT	ENDS
PUBLIC	??0?$_Vector_const_iterator@V?$_Vector_val@HV?$allocator@H@std@@@std@@@std@@QAE@PAHPBU_Container_base0@1@@Z ; std::_Vector_const_iterator<std::_Vector_val<int,std::allocator<int> > >::_Vector_const_iterator<std::_Vector_val<int,std::allocator<int> > >
; Function compile flags: /Ogsp
; File c:\program files (x86)\microsoft visual studio 10.0\vc\include\vector
;	COMDAT ??0?$_Vector_const_iterator@V?$_Vector_val@HV?$allocator@H@std@@@std@@@std@@QAE@PAHPBU_Container_base0@1@@Z
_TEXT	SEGMENT
__Parg$ = 8						; size = 4
__Pvector$ = 12						; size = 4
??0?$_Vector_const_iterator@V?$_Vector_val@HV?$allocator@H@std@@@std@@@std@@QAE@PAHPBU_Container_base0@1@@Z PROC ; std::_Vector_const_iterator<std::_Vector_val<int,std::allocator<int> > >::_Vector_const_iterator<std::_Vector_val<int,std::allocator<int> > >, COMDAT
; _this$ = ecx

; 45   : 		{	// construct with pointer _Parg

  00000	55		 push	 ebp
  00001	8b ec		 mov	 ebp, esp
  00003	8b c1		 mov	 eax, ecx
  00005	8b 4d 08	 mov	 ecx, DWORD PTR __Parg$[ebp]
  00008	89 08		 mov	 DWORD PTR [eax], ecx

; 46   : 		this->_Adopt(_Pvector);
; 47   : 		}

  0000a	5d		 pop	 ebp
  0000b	c2 08 00	 ret	 8
??0?$_Vector_const_iterator@V?$_Vector_val@HV?$allocator@H@std@@@std@@@std@@QAE@PAHPBU_Container_base0@1@@Z ENDP ; std::_Vector_const_iterator<std::_Vector_val<int,std::allocator<int> > >::_Vector_const_iterator<std::_Vector_val<int,std::allocator<int> > >
_TEXT	ENDS
PUBLIC	??0?$_Vector_iterator@V?$_Vector_val@HV?$allocator@H@std@@@std@@@std@@QAE@PAHPBU_Container_base0@1@@Z ; std::_Vector_iterator<std::_Vector_val<int,std::allocator<int> > >::_Vector_iterator<std::_Vector_val<int,std::allocator<int> > >
; Function compile flags: /Ogsp
;	COMDAT ??0?$_Vector_iterator@V?$_Vector_val@HV?$allocator@H@std@@@std@@@std@@QAE@PAHPBU_Container_base0@1@@Z
_TEXT	SEGMENT
__Parg$ = 8						; size = 4
__Pvector$ = 12						; size = 4
??0?$_Vector_iterator@V?$_Vector_val@HV?$allocator@H@std@@@std@@@std@@QAE@PAHPBU_Container_base0@1@@Z PROC ; std::_Vector_iterator<std::_Vector_val<int,std::allocator<int> > >::_Vector_iterator<std::_Vector_val<int,std::allocator<int> > >, COMDAT
; _this$ = ecx

; 304  : 		{	// construct with pointer _Parg

  00000	55		 push	 ebp
  00001	8b ec		 mov	 ebp, esp
  00003	8b c1		 mov	 eax, ecx
  00005	8b 4d 08	 mov	 ecx, DWORD PTR __Parg$[ebp]
  00008	89 08		 mov	 DWORD PTR [eax], ecx

; 305  : 		}

  0000a	5d		 pop	 ebp
  0000b	c2 08 00	 ret	 8
??0?$_Vector_iterator@V?$_Vector_val@HV?$allocator@H@std@@@std@@@std@@QAE@PAHPBU_Container_base0@1@@Z ENDP ; std::_Vector_iterator<std::_Vector_val<int,std::allocator<int> > >::_Vector_iterator<std::_Vector_val<int,std::allocator<int> > >
_TEXT	ENDS
PUBLIC	?deallocate@?$allocator@H@std@@QAEXPAHI@Z	; std::allocator<int>::deallocate
; Function compile flags: /Ogsp
; File c:\program files (x86)\microsoft visual studio 10.0\vc\include\xmemory
;	COMDAT ?deallocate@?$allocator@H@std@@QAEXPAHI@Z
_TEXT	SEGMENT
__Ptr$ = 8						; size = 4
___formal$ = 12						; size = 4
?deallocate@?$allocator@H@std@@QAEXPAHI@Z PROC		; std::allocator<int>::deallocate, COMDAT
; _this$ = ecx

; 181  : 		{	// deallocate object at _Ptr, ignore size

  00000	55		 push	 ebp
  00001	8b ec		 mov	 ebp, esp

; 182  : 		::operator delete(_Ptr);

  00003	ff 75 08	 push	 DWORD PTR __Ptr$[ebp]
  00006	e8 00 00 00 00	 call	 ??3@YAXPAX@Z		; operator delete
  0000b	59		 pop	 ecx

; 183  : 		}

  0000c	5d		 pop	 ebp
  0000d	c2 08 00	 ret	 8
?deallocate@?$allocator@H@std@@QAEXPAHI@Z ENDP		; std::allocator<int>::deallocate
_TEXT	ENDS
PUBLIC	?capacity@?$vector@HV?$allocator@H@std@@@std@@QBEIXZ ; std::vector<int,std::allocator<int> >::capacity
; Function compile flags: /Ogsp
; File c:\program files (x86)\microsoft visual studio 10.0\vc\include\vector
;	COMDAT ?capacity@?$vector@HV?$allocator@H@std@@@std@@QBEIXZ
_TEXT	SEGMENT
?capacity@?$vector@HV?$allocator@H@std@@@std@@QBEIXZ PROC ; std::vector<int,std::allocator<int> >::capacity, COMDAT
; _this$ = ecx

; 777  : 		return (this->_Myend - this->_Myfirst);

  00000	8b 41 08	 mov	 eax, DWORD PTR [ecx+8]
  00003	2b 01		 sub	 eax, DWORD PTR [ecx]
  00005	c1 f8 02	 sar	 eax, 2

; 778  : 		}

  00008	c3		 ret	 0
?capacity@?$vector@HV?$allocator@H@std@@@std@@QBEIXZ ENDP ; std::vector<int,std::allocator<int> >::capacity
_TEXT	ENDS
PUBLIC	?_Make_iter@?$vector@HV?$allocator@H@std@@@std@@QBE?AV?$_Vector_iterator@V?$_Vector_val@HV?$allocator@H@std@@@std@@@2@V?$_Vector_const_iterator@V?$_Vector_val@HV?$allocator@H@std@@@std@@@2@@Z ; std::vector<int,std::allocator<int> >::_Make_iter
; Function compile flags: /Ogsp
;	COMDAT ?_Make_iter@?$vector@HV?$allocator@H@std@@@std@@QBE?AV?$_Vector_iterator@V?$_Vector_val@HV?$allocator@H@std@@@std@@@2@V?$_Vector_const_iterator@V?$_Vector_val@HV?$allocator@H@std@@@std@@@2@@Z
_TEXT	SEGMENT
___$ReturnUdt$ = 8					; size = 4
__Where$ = 12						; size = 4
?_Make_iter@?$vector@HV?$allocator@H@std@@@std@@QBE?AV?$_Vector_iterator@V?$_Vector_val@HV?$allocator@H@std@@@std@@@2@V?$_Vector_const_iterator@V?$_Vector_val@HV?$allocator@H@std@@@std@@@2@@Z PROC ; std::vector<int,std::allocator<int> >::_Make_iter, COMDAT
; _this$ = ecx

; 801  : 		{	// make iterator from const_iterator

  00000	55		 push	 ebp
  00001	8b ec		 mov	 ebp, esp

; 802  : 		return (iterator(_Where._Ptr, this));

  00003	8b 45 08	 mov	 eax, DWORD PTR ___$ReturnUdt$[ebp]
  00006	8b 4d 0c	 mov	 ecx, DWORD PTR __Where$[ebp]
  00009	89 08		 mov	 DWORD PTR [eax], ecx

; 803  : 		}

  0000b	5d		 pop	 ebp
  0000c	c2 08 00	 ret	 8
?_Make_iter@?$vector@HV?$allocator@H@std@@@std@@QBE?AV?$_Vector_iterator@V?$_Vector_val@HV?$allocator@H@std@@@std@@@2@V?$_Vector_const_iterator@V?$_Vector_val@HV?$allocator@H@std@@@std@@@2@@Z ENDP ; std::vector<int,std::allocator<int> >::_Make_iter
_TEXT	ENDS
PUBLIC	?_Xlen@?$vector@HV?$allocator@H@std@@@std@@IBEXXZ ; std::vector<int,std::allocator<int> >::_Xlen
; Function compile flags: /Ogsp
;	COMDAT ?_Xlen@?$vector@HV?$allocator@H@std@@@std@@IBEXXZ
_TEXT	SEGMENT
?_Xlen@?$vector@HV?$allocator@H@std@@@std@@IBEXXZ PROC	; std::vector<int,std::allocator<int> >::_Xlen, COMDAT
; _this$ = ecx

; 1427 : 		_Xlength_error("vector<T> too long");

  00000	68 00 00 00 00	 push	 OFFSET ??_C@_0BD@OLBABOEK@vector?$DMT?$DO?5too?5long?$AA@
  00005	ff 15 00 00 00
	00		 call	 DWORD PTR __imp_?_Xlength_error@std@@YAXPBD@Z
$LN4@Xlen@2:
$LN3@Xlen@2:
  0000b	cc		 int	 3
?_Xlen@?$vector@HV?$allocator@H@std@@@std@@IBEXXZ ENDP	; std::vector<int,std::allocator<int> >::_Xlen
_TEXT	ENDS
PUBLIC	?max_size@?$allocator@H@std@@QBEIXZ		; std::allocator<int>::max_size
; Function compile flags: /Ogsp
; File c:\program files (x86)\microsoft visual studio 10.0\vc\include\xmemory
;	COMDAT ?max_size@?$allocator@H@std@@QBEIXZ
_TEXT	SEGMENT
?max_size@?$allocator@H@std@@QBEIXZ PROC		; std::allocator<int>::max_size, COMDAT
; _this$ = ecx

; 218  : 		_SIZT _Count = (_SIZT)(-1) / sizeof (_Ty);
; 219  : 		return (0 < _Count ? _Count : 1);

  00000	b8 ff ff ff 3f	 mov	 eax, 1073741823		; 3fffffffH

; 220  : 		}

  00005	c3		 ret	 0
?max_size@?$allocator@H@std@@QBEIXZ ENDP		; std::allocator<int>::max_size
_TEXT	ENDS
PUBLIC	?_Compat@?$_Vector_const_iterator@V?$_Vector_val@HV?$allocator@H@std@@@std@@@std@@QBEXABV12@@Z ; std::_Vector_const_iterator<std::_Vector_val<int,std::allocator<int> > >::_Compat
; Function compile flags: /Ogsp
; File c:\program files (x86)\microsoft visual studio 10.0\vc\include\vector
;	COMDAT ?_Compat@?$_Vector_const_iterator@V?$_Vector_val@HV?$allocator@H@std@@@std@@@std@@QBEXABV12@@Z
_TEXT	SEGMENT
___formal$ = 8						; size = 4
?_Compat@?$_Vector_const_iterator@V?$_Vector_val@HV?$allocator@H@std@@@std@@@std@@QBEXABV12@@Z PROC ; std::_Vector_const_iterator<std::_Vector_val<int,std::allocator<int> > >::_Compat, COMDAT
; _this$ = ecx

; 253  : 		}

  00000	c2 04 00	 ret	 4
?_Compat@?$_Vector_const_iterator@V?$_Vector_val@HV?$allocator@H@std@@@std@@@std@@QBEXABV12@@Z ENDP ; std::_Vector_const_iterator<std::_Vector_val<int,std::allocator<int> > >::_Compat
_TEXT	ENDS
PUBLIC	??$_Allocate@H@std@@YAPAHIPAH@Z			; std::_Allocate<int>
; Function compile flags: /Ogsp
; File c:\program files (x86)\microsoft visual studio 10.0\vc\include\xmemory
;	COMDAT ??$_Allocate@H@std@@YAPAHIPAH@Z
_TEXT	SEGMENT
$T509463 = -12						; size = 12
$T509467 = 8						; size = 4
__Count$ = 8						; size = 4
___formal$ = 12						; size = 4
??$_Allocate@H@std@@YAPAHIPAH@Z PROC			; std::_Allocate<int>, COMDAT

; 30   : 	{	// allocate storage for _Count elements of type _Ty

  00000	55		 push	 ebp
  00001	8b ec		 mov	 ebp, esp

; 31   : 	void *_Ptr = 0;
; 32   : 
; 33   : 	if (_Count <= 0)

  00003	8b 4d 08	 mov	 ecx, DWORD PTR __Count$[ebp]
  00006	83 ec 0c	 sub	 esp, 12			; 0000000cH
  00009	33 c0		 xor	 eax, eax
  0000b	85 c9		 test	 ecx, ecx

; 34   : 		_Count = 0;
; 35   : 	else if (((_SIZT)(-1) / sizeof (_Ty) < _Count)

  0000d	74 3e		 je	 SHORT $LN5@Allocate@3

; 36   : 		|| (_Ptr = ::operator new(_Count * sizeof (_Ty))) == 0)

  0000f	81 f9 ff ff ff
	3f		 cmp	 ecx, 1073741823		; 3fffffffH
  00015	77 10		 ja	 SHORT $LN1@Allocate@3
  00017	8b c1		 mov	 eax, ecx
  00019	c1 e0 02	 shl	 eax, 2
  0001c	50		 push	 eax
  0001d	e8 00 00 00 00	 call	 ??2@YAPAXI@Z		; operator new
  00022	59		 pop	 ecx
  00023	85 c0		 test	 eax, eax

; 38   : 
; 39   : 	return ((_Ty _FARQ *)_Ptr);

  00025	75 26		 jne	 SHORT $LN5@Allocate@3
$LN1@Allocate@3:

; 37   : 		_THROW_NCEE(bad_alloc, 0);

  00027	83 65 08 00	 and	 DWORD PTR $T509467[ebp], 0
  0002b	8d 45 08	 lea	 eax, DWORD PTR $T509467[ebp]
  0002e	50		 push	 eax
  0002f	8d 4d f4	 lea	 ecx, DWORD PTR $T509463[ebp]
  00032	ff 15 00 00 00
	00		 call	 DWORD PTR __imp_??0exception@std@@QAE@ABQBD@Z
  00038	68 00 00 00 00	 push	 OFFSET __TI2?AVbad_alloc@std@@
  0003d	8d 45 f4	 lea	 eax, DWORD PTR $T509463[ebp]
  00040	50		 push	 eax
  00041	c7 45 f4 00 00
	00 00		 mov	 DWORD PTR $T509463[ebp], OFFSET ??_7bad_alloc@std@@6B@
  00048	e8 00 00 00 00	 call	 __CxxThrowException@8
$LN10@Allocate@3:
$LN5@Allocate@3:

; 40   : 	}

  0004d	c9		 leave
  0004e	c3		 ret	 0
$LN9@Allocate@3:
??$_Allocate@H@std@@YAPAHIPAH@Z ENDP			; std::_Allocate<int>
_TEXT	ENDS
EXTRN	__imp_??0exception@std@@QAE@ABV01@@Z:PROC
; Function compile flags: /Ogsp
;	COMDAT ??0bad_alloc@std@@QAE@ABV01@@Z
_TEXT	SEGMENT
___that$ = 8						; size = 4
??0bad_alloc@std@@QAE@ABV01@@Z PROC			; std::bad_alloc::bad_alloc, COMDAT
; _this$ = ecx
  00000	55		 push	 ebp
  00001	8b ec		 mov	 ebp, esp
  00003	56		 push	 esi
  00004	ff 75 08	 push	 DWORD PTR ___that$[ebp]
  00007	8b f1		 mov	 esi, ecx
  00009	ff 15 00 00 00
	00		 call	 DWORD PTR __imp_??0exception@std@@QAE@ABV01@@Z
  0000f	c7 06 00 00 00
	00		 mov	 DWORD PTR [esi], OFFSET ??_7bad_alloc@std@@6B@
  00015	8b c6		 mov	 eax, esi
  00017	5e		 pop	 esi
  00018	5d		 pop	 ebp
  00019	c2 04 00	 ret	 4
??0bad_alloc@std@@QAE@ABV01@@Z ENDP			; std::bad_alloc::bad_alloc
_TEXT	ENDS
PUBLIC	??$_Val_type@PAH@std@@YAPAHPAH@Z		; std::_Val_type<int *>
; Function compile flags: /Ogsp
; File c:\program files (x86)\microsoft visual studio 10.0\vc\include\xutility
;	COMDAT ??$_Val_type@PAH@std@@YAPAHPAH@Z
_TEXT	SEGMENT
___formal$ = 8						; size = 4
??$_Val_type@PAH@std@@YAPAHPAH@Z PROC			; std::_Val_type<int *>, COMDAT

; 790  : 	return (0);

  00000	33 c0		 xor	 eax, eax

; 791  : 	}

  00002	c3		 ret	 0
??$_Val_type@PAH@std@@YAPAHPAH@Z ENDP			; std::_Val_type<int *>
_TEXT	ENDS
PUBLIC	??$_Ptr_cat@HH@std@@YA?AU_Scalar_ptr_iterator_tag@0@PAH0@Z ; std::_Ptr_cat<int,int>
; Function compile flags: /Ogsp
;	COMDAT ??$_Ptr_cat@HH@std@@YA?AU_Scalar_ptr_iterator_tag@0@PAH0@Z
_TEXT	SEGMENT
__Cat$ = -1						; size = 1
___formal$ = 8						; size = 4
___formal$ = 12						; size = 4
??$_Ptr_cat@HH@std@@YA?AU_Scalar_ptr_iterator_tag@0@PAH0@Z PROC ; std::_Ptr_cat<int,int>, COMDAT

; 516  : 	{	// return pointer category from pointers

  00000	55		 push	 ebp
  00001	8b ec		 mov	 ebp, esp
  00003	51		 push	 ecx

; 517  : 	typename _Ptr_cat_helper<_Elem1, _Elem2>::_Type _Cat;
; 518  : 	return (_Cat);

  00004	8a 45 ff	 mov	 al, BYTE PTR __Cat$[ebp]

; 519  : 	}

  00007	c9		 leave
  00008	c3		 ret	 0
??$_Ptr_cat@HH@std@@YA?AU_Scalar_ptr_iterator_tag@0@PAH0@Z ENDP ; std::_Ptr_cat<int,int>
_TEXT	ENDS
PUBLIC	??$_Move@PAHPAH@std@@YAPAHPAH00U_Scalar_ptr_iterator_tag@0@@Z ; std::_Move<int *,int *>
; Function compile flags: /Ogsp
;	COMDAT ??$_Move@PAHPAH@std@@YAPAHPAH00U_Scalar_ptr_iterator_tag@0@@Z
_TEXT	SEGMENT
__First$ = 8						; size = 4
__Last$ = 12						; size = 4
__Dest$ = 16						; size = 4
___formal$ = 20						; size = 1
??$_Move@PAHPAH@std@@YAPAHPAH00U_Scalar_ptr_iterator_tag@0@@Z PROC ; std::_Move<int *,int *>, COMDAT

; 2522 : 	{	// move [_First, _Last) to [_Dest, ...), pointers to scalars

  00000	55		 push	 ebp
  00001	8b ec		 mov	 ebp, esp
  00003	56		 push	 esi

; 2523 : 	ptrdiff_t _Count = _Last - _First;

  00004	8b 75 0c	 mov	 esi, DWORD PTR __Last$[ebp]
  00007	2b 75 08	 sub	 esi, DWORD PTR __First$[ebp]
  0000a	57		 push	 edi

; 2524 : 	_CSTD memmove(&*_Dest, &*_First,
; 2525 : 		_Count * sizeof (*_First));

  0000b	8b 7d 10	 mov	 edi, DWORD PTR __Dest$[ebp]
  0000e	c1 fe 02	 sar	 esi, 2
  00011	c1 e6 02	 shl	 esi, 2
  00014	56		 push	 esi
  00015	ff 75 08	 push	 DWORD PTR __First$[ebp]
  00018	57		 push	 edi
  00019	ff 15 00 00 00
	00		 call	 DWORD PTR __imp__memmove
  0001f	83 c4 0c	 add	 esp, 12			; 0000000cH

; 2526 : 	return (_Dest + _Count);

  00022	8d 04 3e	 lea	 eax, DWORD PTR [esi+edi]
  00025	5f		 pop	 edi
  00026	5e		 pop	 esi

; 2527 : 	}

  00027	5d		 pop	 ebp
  00028	c3		 ret	 0
??$_Move@PAHPAH@std@@YAPAHPAH00U_Scalar_ptr_iterator_tag@0@@Z ENDP ; std::_Move<int *,int *>
_TEXT	ENDS
PUBLIC	??$_Destroy_range@V?$allocator@H@std@@@std@@YAXPAH0AAV?$allocator@H@0@U_Scalar_ptr_iterator_tag@0@@Z ; std::_Destroy_range<std::allocator<int> >
; Function compile flags: /Ogsp
; File c:\program files (x86)\microsoft visual studio 10.0\vc\include\xmemory
;	COMDAT ??$_Destroy_range@V?$allocator@H@std@@@std@@YAXPAH0AAV?$allocator@H@0@U_Scalar_ptr_iterator_tag@0@@Z
_TEXT	SEGMENT
__First$ = 8						; size = 4
__Last$ = 12						; size = 4
__Al$ = 16						; size = 4
___formal$ = 20						; size = 1
??$_Destroy_range@V?$allocator@H@std@@@std@@YAXPAH0AAV?$allocator@H@0@U_Scalar_ptr_iterator_tag@0@@Z PROC ; std::_Destroy_range<std::allocator<int> >, COMDAT

; 105  : 	}

  00000	c3		 ret	 0
??$_Destroy_range@V?$allocator@H@std@@@std@@YAXPAH0AAV?$allocator@H@0@U_Scalar_ptr_iterator_tag@0@@Z ENDP ; std::_Destroy_range<std::allocator<int> >
_TEXT	ENDS
PUBLIC	??$_Move@AAD@std@@YA$$QADAAD@Z			; std::_Move<char &>
; Function compile flags: /Ogsp
; File c:\program files (x86)\microsoft visual studio 10.0\vc\include\utility
;	COMDAT ??$_Move@AAD@std@@YA$$QADAAD@Z
_TEXT	SEGMENT
__Arg$ = 8						; size = 4
??$_Move@AAD@std@@YA$$QADAAD@Z PROC			; std::_Move<char &>, COMDAT

; 94   : 	{	// forward _Arg as movable

  00000	55		 push	 ebp
  00001	8b ec		 mov	 ebp, esp

; 95   : 	return ((typename tr1::_Remove_reference<_Ty>::_Type&&)_Arg);

  00003	8b 45 08	 mov	 eax, DWORD PTR __Arg$[ebp]

; 96   : 	}

  00006	5d		 pop	 ebp
  00007	c3		 ret	 0
??$_Move@AAD@std@@YA$$QADAAD@Z ENDP			; std::_Move<char &>
_TEXT	ENDS
PUBLIC	??$move@AA_N@std@@YA$$QA_NAA_N@Z		; std::move<bool &>
; Function compile flags: /Ogsp
;	COMDAT ??$move@AA_N@std@@YA$$QA_NAA_N@Z
_TEXT	SEGMENT
__Arg$ = 8						; size = 4
??$move@AA_N@std@@YA$$QA_NAA_N@Z PROC			; std::move<bool &>, COMDAT

; 86   : 	{	// forward _Arg as movable

  00000	55		 push	 ebp
  00001	8b ec		 mov	 ebp, esp

; 87   : 	return ((typename tr1::_Remove_reference<_Ty>::_Type&&)_Arg);

  00003	8b 45 08	 mov	 eax, DWORD PTR __Arg$[ebp]

; 88   : 	}

  00006	5d		 pop	 ebp
  00007	c3		 ret	 0
??$move@AA_N@std@@YA$$QA_NAA_N@Z ENDP			; std::move<bool &>
_TEXT	ENDS
PUBLIC	??$_Uninit_move@HHH@std@@YAPAHPAH00AAV?$allocator@H@0@0U_Scalar_ptr_iterator_tag@0@@Z ; std::_Uninit_move<int,int,int>
; Function compile flags: /Ogsp
; File c:\program files (x86)\microsoft visual studio 10.0\vc\include\memory
;	COMDAT ??$_Uninit_move@HHH@std@@YAPAHPAH00AAV?$allocator@H@0@0U_Scalar_ptr_iterator_tag@0@@Z
_TEXT	SEGMENT
__First$ = 8						; size = 4
__Last$ = 12						; size = 4
__Dest$ = 16						; size = 4
___formal$ = 20						; size = 4
___formal$ = 24						; size = 4
___formal$ = 28						; size = 1
??$_Uninit_move@HHH@std@@YAPAHPAH00AAV?$allocator@H@0@0U_Scalar_ptr_iterator_tag@0@@Z PROC ; std::_Uninit_move<int,int,int>, COMDAT

; 456  : 	{	// move [_First, _Last) to raw _Dest, scalar type

  00000	55		 push	 ebp
  00001	8b ec		 mov	 ebp, esp
  00003	56		 push	 esi

; 457  : 	_DEBUG_RANGE(_First, _Last);
; 458  : 	_DEBUG_POINTER(_Dest);
; 459  : 	size_t _Count = (size_t)(_Last - _First);

  00004	8b 75 0c	 mov	 esi, DWORD PTR __Last$[ebp]
  00007	2b 75 08	 sub	 esi, DWORD PTR __First$[ebp]
  0000a	c1 fe 02	 sar	 esi, 2

; 460  : 	return ((_Ty2 *)_CSTD memmove(&*_Dest, &*_First,
; 461  : 		_Count * sizeof (*_First)) + _Count);	// NB: non-overlapping move

  0000d	c1 e6 02	 shl	 esi, 2
  00010	56		 push	 esi
  00011	ff 75 08	 push	 DWORD PTR __First$[ebp]
  00014	ff 75 10	 push	 DWORD PTR __Dest$[ebp]
  00017	ff 15 00 00 00
	00		 call	 DWORD PTR __imp__memmove
  0001d	83 c4 0c	 add	 esp, 12			; 0000000cH
  00020	03 c6		 add	 eax, esi
  00022	5e		 pop	 esi

; 462  : 	}

  00023	5d		 pop	 ebp
  00024	c3		 ret	 0
??$_Uninit_move@HHH@std@@YAPAHPAH00AAV?$allocator@H@0@0U_Scalar_ptr_iterator_tag@0@@Z ENDP ; std::_Uninit_move<int,int,int>
_TEXT	ENDS
PUBLIC	??$forward@_N@std@@YA$$QA_NAA_N@Z		; std::forward<bool>
; Function compile flags: /Ogsp
; File c:\program files (x86)\microsoft visual studio 10.0\vc\include\utility
;	COMDAT ??$forward@_N@std@@YA$$QA_NAA_N@Z
_TEXT	SEGMENT
__Arg$ = 8						; size = 4
??$forward@_N@std@@YA$$QA_NAA_N@Z PROC			; std::forward<bool>, COMDAT

; 78   : 	{	// forward _Arg, given explicitly specified type parameter

  00000	55		 push	 ebp
  00001	8b ec		 mov	 ebp, esp

; 79   : 	return ((_Ty&&)_Arg);

  00003	8b 45 08	 mov	 eax, DWORD PTR __Arg$[ebp]

; 80   : 	}

  00006	5d		 pop	 ebp
  00007	c3		 ret	 0
??$forward@_N@std@@YA$$QA_NAA_N@Z ENDP			; std::forward<bool>
_TEXT	ENDS
PUBLIC	??$forward@H@std@@YA$$QAHAAH@Z			; std::forward<int>
; Function compile flags: /Ogsp
;	COMDAT ??$forward@H@std@@YA$$QAHAAH@Z
_TEXT	SEGMENT
__Arg$ = 8						; size = 4
??$forward@H@std@@YA$$QAHAAH@Z PROC			; std::forward<int>, COMDAT

; 78   : 	{	// forward _Arg, given explicitly specified type parameter

  00000	55		 push	 ebp
  00001	8b ec		 mov	 ebp, esp

; 79   : 	return ((_Ty&&)_Arg);

  00003	8b 45 08	 mov	 eax, DWORD PTR __Arg$[ebp]

; 80   : 	}

  00006	5d		 pop	 ebp
  00007	c3		 ret	 0
??$forward@H@std@@YA$$QAHAAH@Z ENDP			; std::forward<int>
_TEXT	ENDS
PUBLIC	?GetSingeton@ioEtcItemManager@@SAAAV1@XZ	; ioEtcItemManager::GetSingeton
; Function compile flags: /Ogsp
; File d:\lost saga for developer\youtube\tutorial\source\src\lsclient\ioetcitemmanager.cpp
;	COMDAT ?GetSingeton@ioEtcItemManager@@SAAAV1@XZ
_TEXT	SEGMENT
?GetSingeton@ioEtcItemManager@@SAAAV1@XZ PROC		; ioEtcItemManager::GetSingeton, COMDAT

; 22   : 	return Singleton< ioEtcItemManager >::GetSingleton();

  00000	a1 00 00 00 00	 mov	 eax, DWORD PTR ?ms_Singleton@?$Singleton@VioEtcItemManager@@@@1PAVioEtcItemManager@@A ; Singleton<ioEtcItemManager>::ms_Singleton

; 23   : }

  00005	c3		 ret	 0
?GetSingeton@ioEtcItemManager@@SAAAV1@XZ ENDP		; ioEtcItemManager::GetSingeton
_TEXT	ENDS
PUBLIC	??_C@_0BL@CECMDOEB@?$CFs?5UNKOWN?5ETCITEM?5TYPE?5?3?$CFd?$AA@ ; `string'
PUBLIC	??_C@_0CA@JJCAFAKL@ioEtcItemManager?3?3CreateEtcItem?$AA@ ; `string'
PUBLIC	?CreateEtcItem@ioEtcItemManager@@IAEPAVioEtcItem@@K@Z ; ioEtcItemManager::CreateEtcItem
EXTRN	??0ioEtcItemSoldierPackage@@QAE@XZ:PROC		; ioEtcItemSoldierPackage::ioEtcItemSoldierPackage
EXTRN	??0ioEtcItemGashapon@@QAE@XZ:PROC		; ioEtcItemGashapon::ioEtcItemGashapon
EXTRN	??0ioEtcItemPackage@@QAE@XZ:PROC		; ioEtcItemPackage::ioEtcItemPackage
EXTRN	??0ioEtcItemExcavatingKit@@QAE@XZ:PROC		; ioEtcItemExcavatingKit::ioEtcItemExcavatingKit
EXTRN	??0ioEtcItemGoldBox@@QAE@XZ:PROC		; ioEtcItemGoldBox::ioEtcItemGoldBox
EXTRN	__imp_?PrintTimeAndLog@CLog@@QAAXHPADZZ:PROC
EXTRN	__imp_?LOG@@3VCLog@@A:BYTE
EXTRN	??0ioRisingGashapon@@QAE@XZ:PROC		; ioRisingGashapon::ioRisingGashapon
EXTRN	??0ioEtcItemRaidCoin@@QAE@XZ:PROC		; ioEtcItemRaidCoin::ioEtcItemRaidCoin
EXTRN	??0ioEtcItemPCRoomFishingBait@@QAE@XZ:PROC	; ioEtcItemPCRoomFishingBait::ioEtcItemPCRoomFishingBait
EXTRN	??0ioEtcItemPCRoomFishingRod@@QAE@XZ:PROC	; ioEtcItemPCRoomFishingRod::ioEtcItemPCRoomFishingRod
EXTRN	??0ioEtcItemOakSwordItem@@QAE@XZ:PROC		; ioEtcItemOakSwordItem::ioEtcItemOakSwordItem
EXTRN	??0ioEtcItemOakDrumItem@@QAE@XZ:PROC		; ioEtcItemOakDrumItem::ioEtcItemOakDrumItem
EXTRN	??0ioEtcItemTimeCash@@QAE@XZ:PROC		; ioEtcItemTimeCash::ioEtcItemTimeCash
EXTRN	??0ioEtcItemNamedTitlePremium@@QAE@XZ:PROC	; ioEtcItemNamedTitlePremium::ioEtcItemNamedTitlePremium
EXTRN	??0ioEtcItemNamedTitle@@QAE@XZ:PROC		; ioEtcItemNamedTitle::ioEtcItemNamedTitle
EXTRN	??0ioEtcItemCreateMyHomeCreate@@QAE@XZ:PROC	; ioEtcItemCreateMyHomeCreate::ioEtcItemCreateMyHomeCreate
EXTRN	??0ioEtcItemCreateGuildHQCreate@@QAE@XZ:PROC	; ioEtcItemCreateGuildHQCreate::ioEtcItemCreateGuildHQCreate
EXTRN	??0ioEtcItemHousingBlockItem@@QAE@XZ:PROC	; ioEtcItemHousingBlockItem::ioEtcItemHousingBlockItem
EXTRN	??0ioEtcItemNewMultipleCompound@@QAE@XZ:PROC	; ioEtcItemNewMultipleCompound::ioEtcItemNewMultipleCompound
EXTRN	??0ioEtcItemExtraItemSlotExtend@@QAE@XZ:PROC	; ioEtcItemExtraItemSlotExtend::ioEtcItemExtraItemSlotExtend
EXTRN	??0ioEtcCostumeCustomItemSkin@@QAE@XZ:PROC	; ioEtcCostumeCustomItemSkin::ioEtcCostumeCustomItemSkin
EXTRN	??0ioEtcItemSoulStone@@QAE@XZ:PROC		; ioEtcItemSoulStone::ioEtcItemSoulStone
EXTRN	??0ioEtcItemPetEgg@@QAE@XZ:PROC			; ioEtcItemPetEgg::ioEtcItemPetEgg
EXTRN	??0ioEtcItemMaterialCompound@@QAE@XZ:PROC	; ioEtcItemMaterialCompound::ioEtcItemMaterialCompound
EXTRN	??0ioEtcItemFixedBingoNumber@@QAE@XZ:PROC	; ioEtcItemFixedBingoNumber::ioEtcItemFixedBingoNumber
EXTRN	??0ioSelectGashapon@@QAE@XZ:PROC		; ioSelectGashapon::ioSelectGashapon
EXTRN	??0ioEtcItemRecharge@@QAE@XZ:PROC		; ioEtcItemRecharge::ioEtcItemRecharge
EXTRN	??0ioEtcItemSoldierExpAdd@@QAE@XZ:PROC		; ioEtcItemSoldierExpAdd::ioEtcItemSoldierExpAdd
EXTRN	??0ioEtcItemSendPresent@@QAE@XZ:PROC		; ioEtcItemSendPresent::ioEtcItemSendPresent
EXTRN	??0ioEtcItemSuperGashapon@@QAE@XZ:PROC		; ioEtcItemSuperGashapon::ioEtcItemSuperGashapon
EXTRN	??0ioEtcItemBingoRandomNumberClear@@QAE@XZ:PROC	; ioEtcItemBingoRandomNumberClear::ioEtcItemBingoRandomNumberClear
EXTRN	??0ioEtcItemBingoShuffleRewardItem@@QAE@XZ:PROC	; ioEtcItemBingoShuffleRewardItem::ioEtcItemBingoShuffleRewardItem
EXTRN	??0ioEtcItemBingoShuffleNumber@@QAE@XZ:PROC	; ioEtcItemBingoShuffleNumber::ioEtcItemBingoShuffleNumber
EXTRN	??0ioEtcItemBingoNumberGashapon@@QAE@XZ:PROC	; ioEtcItemBingoNumberGashapon::ioEtcItemBingoNumberGashapon
EXTRN	??0ioEtcItemBingoItem@@QAE@XZ:PROC		; ioEtcItemBingoItem::ioEtcItemBingoItem
EXTRN	??0ioEtcItemRouletteCoin@@QAE@XZ:PROC		; ioEtcItemRouletteCoin::ioEtcItemRouletteCoin
EXTRN	??0ioEtcItemTournamentCoin@@QAE@XZ:PROC		; ioEtcItemTournamentCoin::ioEtcItemTournamentCoin
EXTRN	??0ioEtcItemAddCash@@QAE@XZ:PROC		; ioEtcItemAddCash::ioEtcItemAddCash
EXTRN	??0ioEtcItemClover@@QAE@XZ:PROC			; ioEtcItemClover::ioEtcItemClover
EXTRN	??0ioEtcItemTournamentPremiumCreate@@QAE@XZ:PROC ; ioEtcItemTournamentPremiumCreate::ioEtcItemTournamentPremiumCreate
EXTRN	??0ioEtcItemTournamentCreate@@QAE@XZ:PROC	; ioEtcItemTournamentCreate::ioEtcItemTournamentCreate
EXTRN	??0ioEtcItemPrizeItem@@QAE@XZ:PROC		; ioEtcItemPrizeItem::ioEtcItemPrizeItem
EXTRN	??0ioEtcItemGrowthAllDown@@QAE@XZ:PROC		; ioEtcItemGrowthAllDown::ioEtcItemGrowthAllDown
EXTRN	??0ioEtcItemPreSetPackage@@QAE@XZ:PROC		; ioEtcItemPreSetPackage::ioEtcItemPreSetPackage
EXTRN	??0ioEtcItemSelectExtraGashapon@@QAE@XZ:PROC	; ioEtcItemSelectExtraGashapon::ioEtcItemSelectExtraGashapon
EXTRN	??0ioEtcItemRevive@@QAE@XZ:PROC			; ioEtcItemRevive::ioEtcItemRevive
EXTRN	??0ioEtcItemConsumption@@QAE@XZ:PROC		; ioEtcItemConsumption::ioEtcItemConsumption
EXTRN	??0ioEtcItemSoldierExpBonus@@QAE@XZ:PROC	; ioEtcItemSoldierExpBonus::ioEtcItemSoldierExpBonus
EXTRN	??0ioEtcItemExpandMedalSlot@@QAE@XZ:PROC	; ioEtcItemExpandMedalSlot::ioEtcItemExpandMedalSlot
EXTRN	??0ioEtcItemFourExtraCompound@@QAE@XZ:PROC	; ioEtcItemFourExtraCompound::ioEtcItemFourExtraCompound
EXTRN	??0ioEtcItemSoldierSelector@@QAE@XZ:PROC	; ioEtcItemSoldierSelector::ioEtcItemSoldierSelector
EXTRN	??0ioEtcItemTimeGashapon@@QAE@XZ:PROC		; ioEtcItemTimeGashapon::ioEtcItemTimeGashapon
EXTRN	??0ioEtcItemLostSagaMixer@@QAE@XZ:PROC		; ioEtcItemLostSagaMixer::ioEtcItemLostSagaMixer
EXTRN	??0ioEtcItemRainbowMixer@@QAE@XZ:PROC		; ioEtcItemRainbowMixer::ioEtcItemRainbowMixer
EXTRN	??0ioEtcItemCompoundEx@@QAE@XZ:PROC		; ioEtcItemCompoundEx::ioEtcItemCompoundEx
EXTRN	??0ioEtcItemLuckyCoin@@QAE@XZ:PROC		; ioEtcItemLuckyCoin::ioEtcItemLuckyCoin
EXTRN	??0ioEtcItemExtraItemGrowthCatalyst@@QAE@XZ:PROC ; ioEtcItemExtraItemGrowthCatalyst::ioEtcItemExtraItemGrowthCatalyst
EXTRN	??0ioEtcItemBlock@@QAE@XZ:PROC			; ioEtcItemBlock::ioEtcItemBlock
EXTRN	??0ioEtcItemCostumItemSkin@@QAE@XZ:PROC		; ioEtcItemCostumItemSkin::ioEtcItemCostumItemSkin
EXTRN	??0ioEtcItemCustomItemSkinTest@@QAE@XZ:PROC	; ioEtcItemCustomItemSkinTest::ioEtcItemCustomItemSkinTest
EXTRN	??0ioEtcItemCustomItemSkin@@QAE@XZ:PROC		; ioEtcItemCustomItemSkin::ioEtcItemCustomItemSkin
EXTRN	??0ioEtcItemMotion@@QAE@XZ:PROC			; ioEtcItemMotion::ioEtcItemMotion
EXTRN	??0ioEtcItemHeroRecordInit@@QAE@XZ:PROC		; ioEtcItemHeroRecordInit::ioEtcItemHeroRecordInit
EXTRN	??0ioEtcItemLadderRecordInit@@QAE@XZ:PROC	; ioEtcItemLadderRecordInit::ioEtcItemLadderRecordInit
EXTRN	??0ioEtcItemBattleRecordInit@@QAE@XZ:PROC	; ioEtcItemBattleRecordInit::ioEtcItemBattleRecordInit
EXTRN	??0ioEtcItemMileageCoin@@QAE@XZ:PROC		; ioEtcItemMileageCoin::ioEtcItemMileageCoin
EXTRN	??0ioEtcItemSilverCoin@@QAE@XZ:PROC		; ioEtcItemSilverCoin::ioEtcItemSilverCoin
EXTRN	??0ioEtcItemQuestEvent@@QAE@XZ:PROC		; ioEtcItemQuestEvent::ioEtcItemQuestEvent
EXTRN	??0ioEtcItemTradeStateChange@@QAE@XZ:PROC	; ioEtcItemTradeStateChange::ioEtcItemTradeStateChange
EXTRN	??0ioEtcItemMultipleEqualCompound3@@QAE@XZ:PROC	; ioEtcItemMultipleEqualCompound3::ioEtcItemMultipleEqualCompound3
EXTRN	??0ioEtcItemMultipleEqualCompound2@@QAE@XZ:PROC	; ioEtcItemMultipleEqualCompound2::ioEtcItemMultipleEqualCompound2
EXTRN	??0ioEtcItemMultipleEqualCompound@@QAE@XZ:PROC	; ioEtcItemMultipleEqualCompound::ioEtcItemMultipleEqualCompound
EXTRN	??0ioEtcItemMultipleCompound3@@QAE@XZ:PROC	; ioEtcItemMultipleCompound3::ioEtcItemMultipleCompound3
EXTRN	??0ioEtcItemMultipleCompound2@@QAE@XZ:PROC	; ioEtcItemMultipleCompound2::ioEtcItemMultipleCompound2
EXTRN	??0ioEtcItemMultipleCompound@@QAE@XZ:PROC	; ioEtcItemMultipleCompound::ioEtcItemMultipleCompound
EXTRN	??0ioEtcItemRandomDecoW@@QAE@XZ:PROC		; ioEtcItemRandomDecoW::ioEtcItemRandomDecoW
EXTRN	??0ioEtcItemRandomDecoM@@QAE@XZ:PROC		; ioEtcItemRandomDecoM::ioEtcItemRandomDecoM
EXTRN	??0ioEtcItemDecoUnderwearPackage@@QAE@XZ:PROC	; ioEtcItemDecoUnderwearPackage::ioEtcItemDecoUnderwearPackage
EXTRN	??0ioEtcItemExtraItemCompound3@@QAE@XZ:PROC	; ioEtcItemExtraItemCompound3::ioEtcItemExtraItemCompound3
EXTRN	??0ioEtcItemExtraItemCompound2@@QAE@XZ:PROC	; ioEtcItemExtraItemCompound2::ioEtcItemExtraItemCompound2
EXTRN	??0ioEtcItemExtraItemCompound@@QAE@XZ:PROC	; ioEtcItemExtraItemCompound::ioEtcItemExtraItemCompound
EXTRN	??0ioEtcItemMonsterCoin@@QAE@XZ:PROC		; ioEtcItemMonsterCoin::ioEtcItemMonsterCoin
EXTRN	??0ioEtcItemGoldMonsterCoin@@QAE@XZ:PROC	; ioEtcItemGoldMonsterCoin::ioEtcItemGoldMonsterCoin
EXTRN	??0ioEtcItemDecorationPackage@@QAE@XZ:PROC	; ioEtcItemDecorationPackage::ioEtcItemDecorationPackage
EXTRN	??0ioEtcItemFishingMoonRod@@QAE@XZ:PROC		; ioEtcItemFishingMoonRod::ioEtcItemFishingMoonRod
EXTRN	??0ioEtcItemFishingMoonBait@@QAE@XZ:PROC	; ioEtcItemFishingMoonBait::ioEtcItemFishingMoonBait
EXTRN	??0ioEtcItemFishingSlotExtend@@QAE@XZ:PROC	; ioEtcItemFishingSlotExtend::ioEtcItemFishingSlotExtend
EXTRN	??0ioEtcItemFishingRod@@QAE@XZ:PROC		; ioEtcItemFishingRod::ioEtcItemFishingRod
EXTRN	??0ioEtcItemFishingBait@@QAE@XZ:PROC		; ioEtcItemFishingBait::ioEtcItemFishingBait
EXTRN	??0ioEtcItemCharSlotExtend@@QAE@XZ:PROC		; ioEtcItemCharSlotExtend::ioEtcItemCharSlotExtend
EXTRN	??0ioEtcItemExpBonus@@QAE@XZ:PROC		; ioEtcItemExpBonus::ioEtcItemExpBonus
EXTRN	??0ioEtcItemPesoBonus@@QAE@XZ:PROC		; ioEtcItemPesoBonus::ioEtcItemPesoBonus
EXTRN	??0ioEtcItemGrowthDown@@QAE@XZ:PROC		; ioEtcItemGrowthDown::ioEtcItemGrowthDown
EXTRN	??0ioEtcItemGuildNameChange@@QAE@XZ:PROC	; ioEtcItemGuildNameChange::ioEtcItemGuildNameChange
EXTRN	??0ioEtcItemGuildMarkChange@@QAE@XZ:PROC	; ioEtcItemGuildMarkChange::ioEtcItemGuildMarkChange
EXTRN	??0ioEtcItemGuildCreate@@QAE@XZ:PROC		; ioEtcItemGuildCreate::ioEtcItemGuildCreate
EXTRN	??0ioEtcItemBuyMortmainChar@@QAE@XZ:PROC	; ioEtcItemBuyMortmainChar::ioEtcItemBuyMortmainChar
EXTRN	??0ioEtcItemCustomSound@@QAE@XZ:PROC		; ioEtcItemCustomSound::ioEtcItemCustomSound
EXTRN	??0ioEtcItemChangeID@@QAE@XZ:PROC		; ioEtcItemChangeID::ioEtcItemChangeID
EXTRN	??0ioEtcItemFriendSlotExtend@@QAE@XZ:PROC	; ioEtcItemFriendSlotExtend::ioEtcItemFriendSlotExtend
EXTRN	??0ioEtcItemWholeChat@@QAE@XZ:PROC		; ioEtcItemWholeChat::ioEtcItemWholeChat
EXTRN	___CxxFrameHandler3:PROC
EXTRN	@__security_check_cookie@4:PROC
EXTRN	__EH_epilog3:PROC
EXTRN	__EH_prolog3:PROC
;	COMDAT ??_C@_0BL@CECMDOEB@?$CFs?5UNKOWN?5ETCITEM?5TYPE?5?3?$CFd?$AA@
; File d:\lost saga for developer\youtube\tutorial\source\src\lsclient\ioetcitem.h
CONST	SEGMENT
??_C@_0BL@CECMDOEB@?$CFs?5UNKOWN?5ETCITEM?5TYPE?5?3?$CFd?$AA@ DB '%s UNKO'
	DB	'WN ETCITEM TYPE :%d', 00H			; `string'
CONST	ENDS
;	COMDAT ??_C@_0CA@JJCAFAKL@ioEtcItemManager?3?3CreateEtcItem?$AA@
CONST	SEGMENT
??_C@_0CA@JJCAFAKL@ioEtcItemManager?3?3CreateEtcItem?$AA@ DB 'ioEtcItemMa'
	DB	'nager::CreateEtcItem', 00H			; `string'
CONST	ENDS
;	COMDAT xdata$x
xdata$x	SEGMENT
__ehfuncinfo$?CreateEtcItem@ioEtcItemManager@@IAEPAVioEtcItem@@K@Z DD 019930522H
	DD	06dH
	DD	FLAT:__unwindtable$?CreateEtcItem@ioEtcItemManager@@IAEPAVioEtcItem@@K@Z
	DD	2 DUP(00H)
	DD	2 DUP(00H)
	DD	00H
	DD	01H
__unwindtable$?CreateEtcItem@ioEtcItemManager@@IAEPAVioEtcItem@@K@Z DD 0ffffffffH
	DD	FLAT:__unwindfunclet$?CreateEtcItem@ioEtcItemManager@@IAEPAVioEtcItem@@K@Z$0
	DD	0ffffffffH
	DD	FLAT:__unwindfunclet$?CreateEtcItem@ioEtcItemManager@@IAEPAVioEtcItem@@K@Z$1
	DD	0ffffffffH
	DD	FLAT:__unwindfunclet$?CreateEtcItem@ioEtcItemManager@@IAEPAVioEtcItem@@K@Z$2
	DD	0ffffffffH
	DD	FLAT:__unwindfunclet$?CreateEtcItem@ioEtcItemManager@@IAEPAVioEtcItem@@K@Z$3
	DD	0ffffffffH
	DD	FLAT:__unwindfunclet$?CreateEtcItem@ioEtcItemManager@@IAEPAVioEtcItem@@K@Z$4
	DD	0ffffffffH
	DD	FLAT:__unwindfunclet$?CreateEtcItem@ioEtcItemManager@@IAEPAVioEtcItem@@K@Z$5
	DD	0ffffffffH
	DD	FLAT:__unwindfunclet$?CreateEtcItem@ioEtcItemManager@@IAEPAVioEtcItem@@K@Z$6
	DD	0ffffffffH
	DD	FLAT:__unwindfunclet$?CreateEtcItem@ioEtcItemManager@@IAEPAVioEtcItem@@K@Z$7
	DD	0ffffffffH
	DD	FLAT:__unwindfunclet$?CreateEtcItem@ioEtcItemManager@@IAEPAVioEtcItem@@K@Z$8
	DD	0ffffffffH
	DD	FLAT:__unwindfunclet$?CreateEtcItem@ioEtcItemManager@@IAEPAVioEtcItem@@K@Z$9
	DD	0ffffffffH
	DD	FLAT:__unwindfunclet$?CreateEtcItem@ioEtcItemManager@@IAEPAVioEtcItem@@K@Z$10
	DD	0ffffffffH
	DD	FLAT:__unwindfunclet$?CreateEtcItem@ioEtcItemManager@@IAEPAVioEtcItem@@K@Z$11
	DD	0ffffffffH
	DD	FLAT:__unwindfunclet$?CreateEtcItem@ioEtcItemManager@@IAEPAVioEtcItem@@K@Z$12
	DD	0ffffffffH
	DD	FLAT:__unwindfunclet$?CreateEtcItem@ioEtcItemManager@@IAEPAVioEtcItem@@K@Z$13
	DD	0ffffffffH
	DD	FLAT:__unwindfunclet$?CreateEtcItem@ioEtcItemManager@@IAEPAVioEtcItem@@K@Z$14
	DD	0ffffffffH
	DD	FLAT:__unwindfunclet$?CreateEtcItem@ioEtcItemManager@@IAEPAVioEtcItem@@K@Z$15
	DD	0ffffffffH
	DD	FLAT:__unwindfunclet$?CreateEtcItem@ioEtcItemManager@@IAEPAVioEtcItem@@K@Z$16
	DD	0ffffffffH
	DD	FLAT:__unwindfunclet$?CreateEtcItem@ioEtcItemManager@@IAEPAVioEtcItem@@K@Z$17
	DD	0ffffffffH
	DD	FLAT:__unwindfunclet$?CreateEtcItem@ioEtcItemManager@@IAEPAVioEtcItem@@K@Z$18
	DD	0ffffffffH
	DD	FLAT:__unwindfunclet$?CreateEtcItem@ioEtcItemManager@@IAEPAVioEtcItem@@K@Z$19
	DD	0ffffffffH
	DD	FLAT:__unwindfunclet$?CreateEtcItem@ioEtcItemManager@@IAEPAVioEtcItem@@K@Z$20
	DD	0ffffffffH
	DD	FLAT:__unwindfunclet$?CreateEtcItem@ioEtcItemManager@@IAEPAVioEtcItem@@K@Z$21
	DD	0ffffffffH
	DD	FLAT:__unwindfunclet$?CreateEtcItem@ioEtcItemManager@@IAEPAVioEtcItem@@K@Z$22
	DD	0ffffffffH
	DD	FLAT:__unwindfunclet$?CreateEtcItem@ioEtcItemManager@@IAEPAVioEtcItem@@K@Z$23
	DD	0ffffffffH
	DD	FLAT:__unwindfunclet$?CreateEtcItem@ioEtcItemManager@@IAEPAVioEtcItem@@K@Z$24
	DD	0ffffffffH
	DD	FLAT:__unwindfunclet$?CreateEtcItem@ioEtcItemManager@@IAEPAVioEtcItem@@K@Z$25
	DD	0ffffffffH
	DD	FLAT:__unwindfunclet$?CreateEtcItem@ioEtcItemManager@@IAEPAVioEtcItem@@K@Z$26
	DD	0ffffffffH
	DD	FLAT:__unwindfunclet$?CreateEtcItem@ioEtcItemManager@@IAEPAVioEtcItem@@K@Z$27
	DD	0ffffffffH
	DD	FLAT:__unwindfunclet$?CreateEtcItem@ioEtcItemManager@@IAEPAVioEtcItem@@K@Z$28
	DD	0ffffffffH
	DD	FLAT:__unwindfunclet$?CreateEtcItem@ioEtcItemManager@@IAEPAVioEtcItem@@K@Z$29
	DD	0ffffffffH
	DD	FLAT:__unwindfunclet$?CreateEtcItem@ioEtcItemManager@@IAEPAVioEtcItem@@K@Z$30
	DD	0ffffffffH
	DD	FLAT:__unwindfunclet$?CreateEtcItem@ioEtcItemManager@@IAEPAVioEtcItem@@K@Z$31
	DD	0ffffffffH
	DD	FLAT:__unwindfunclet$?CreateEtcItem@ioEtcItemManager@@IAEPAVioEtcItem@@K@Z$32
	DD	0ffffffffH
	DD	FLAT:__unwindfunclet$?CreateEtcItem@ioEtcItemManager@@IAEPAVioEtcItem@@K@Z$33
	DD	0ffffffffH
	DD	FLAT:__unwindfunclet$?CreateEtcItem@ioEtcItemManager@@IAEPAVioEtcItem@@K@Z$34
	DD	0ffffffffH
	DD	FLAT:__unwindfunclet$?CreateEtcItem@ioEtcItemManager@@IAEPAVioEtcItem@@K@Z$35
	DD	0ffffffffH
	DD	FLAT:__unwindfunclet$?CreateEtcItem@ioEtcItemManager@@IAEPAVioEtcItem@@K@Z$36
	DD	0ffffffffH
	DD	FLAT:__unwindfunclet$?CreateEtcItem@ioEtcItemManager@@IAEPAVioEtcItem@@K@Z$37
	DD	0ffffffffH
	DD	FLAT:__unwindfunclet$?CreateEtcItem@ioEtcItemManager@@IAEPAVioEtcItem@@K@Z$38
	DD	0ffffffffH
	DD	FLAT:__unwindfunclet$?CreateEtcItem@ioEtcItemManager@@IAEPAVioEtcItem@@K@Z$39
	DD	0ffffffffH
	DD	FLAT:__unwindfunclet$?CreateEtcItem@ioEtcItemManager@@IAEPAVioEtcItem@@K@Z$40
	DD	0ffffffffH
	DD	FLAT:__unwindfunclet$?CreateEtcItem@ioEtcItemManager@@IAEPAVioEtcItem@@K@Z$41
	DD	0ffffffffH
	DD	FLAT:__unwindfunclet$?CreateEtcItem@ioEtcItemManager@@IAEPAVioEtcItem@@K@Z$42
	DD	0ffffffffH
	DD	FLAT:__unwindfunclet$?CreateEtcItem@ioEtcItemManager@@IAEPAVioEtcItem@@K@Z$43
	DD	0ffffffffH
	DD	FLAT:__unwindfunclet$?CreateEtcItem@ioEtcItemManager@@IAEPAVioEtcItem@@K@Z$44
	DD	0ffffffffH
	DD	FLAT:__unwindfunclet$?CreateEtcItem@ioEtcItemManager@@IAEPAVioEtcItem@@K@Z$45
	DD	0ffffffffH
	DD	FLAT:__unwindfunclet$?CreateEtcItem@ioEtcItemManager@@IAEPAVioEtcItem@@K@Z$46
	DD	0ffffffffH
	DD	FLAT:__unwindfunclet$?CreateEtcItem@ioEtcItemManager@@IAEPAVioEtcItem@@K@Z$47
	DD	0ffffffffH
	DD	FLAT:__unwindfunclet$?CreateEtcItem@ioEtcItemManager@@IAEPAVioEtcItem@@K@Z$48
	DD	0ffffffffH
	DD	FLAT:__unwindfunclet$?CreateEtcItem@ioEtcItemManager@@IAEPAVioEtcItem@@K@Z$49
	DD	0ffffffffH
	DD	FLAT:__unwindfunclet$?CreateEtcItem@ioEtcItemManager@@IAEPAVioEtcItem@@K@Z$50
	DD	0ffffffffH
	DD	FLAT:__unwindfunclet$?CreateEtcItem@ioEtcItemManager@@IAEPAVioEtcItem@@K@Z$51
	DD	0ffffffffH
	DD	FLAT:__unwindfunclet$?CreateEtcItem@ioEtcItemManager@@IAEPAVioEtcItem@@K@Z$52
	DD	0ffffffffH
	DD	FLAT:__unwindfunclet$?CreateEtcItem@ioEtcItemManager@@IAEPAVioEtcItem@@K@Z$53
	DD	0ffffffffH
	DD	FLAT:__unwindfunclet$?CreateEtcItem@ioEtcItemManager@@IAEPAVioEtcItem@@K@Z$54
	DD	0ffffffffH
	DD	FLAT:__unwindfunclet$?CreateEtcItem@ioEtcItemManager@@IAEPAVioEtcItem@@K@Z$55
	DD	0ffffffffH
	DD	FLAT:__unwindfunclet$?CreateEtcItem@ioEtcItemManager@@IAEPAVioEtcItem@@K@Z$56
	DD	0ffffffffH
	DD	FLAT:__unwindfunclet$?CreateEtcItem@ioEtcItemManager@@IAEPAVioEtcItem@@K@Z$57
	DD	0ffffffffH
	DD	FLAT:__unwindfunclet$?CreateEtcItem@ioEtcItemManager@@IAEPAVioEtcItem@@K@Z$58
	DD	0ffffffffH
	DD	FLAT:__unwindfunclet$?CreateEtcItem@ioEtcItemManager@@IAEPAVioEtcItem@@K@Z$59
	DD	0ffffffffH
	DD	FLAT:__unwindfunclet$?CreateEtcItem@ioEtcItemManager@@IAEPAVioEtcItem@@K@Z$60
	DD	0ffffffffH
	DD	FLAT:__unwindfunclet$?CreateEtcItem@ioEtcItemManager@@IAEPAVioEtcItem@@K@Z$61
	DD	0ffffffffH
	DD	FLAT:__unwindfunclet$?CreateEtcItem@ioEtcItemManager@@IAEPAVioEtcItem@@K@Z$62
	DD	0ffffffffH
	DD	FLAT:__unwindfunclet$?CreateEtcItem@ioEtcItemManager@@IAEPAVioEtcItem@@K@Z$63
	DD	0ffffffffH
	DD	FLAT:__unwindfunclet$?CreateEtcItem@ioEtcItemManager@@IAEPAVioEtcItem@@K@Z$64
	DD	0ffffffffH
	DD	FLAT:__unwindfunclet$?CreateEtcItem@ioEtcItemManager@@IAEPAVioEtcItem@@K@Z$65
	DD	0ffffffffH
	DD	FLAT:__unwindfunclet$?CreateEtcItem@ioEtcItemManager@@IAEPAVioEtcItem@@K@Z$66
	DD	0ffffffffH
	DD	FLAT:__unwindfunclet$?CreateEtcItem@ioEtcItemManager@@IAEPAVioEtcItem@@K@Z$67
	DD	0ffffffffH
	DD	FLAT:__unwindfunclet$?CreateEtcItem@ioEtcItemManager@@IAEPAVioEtcItem@@K@Z$68
	DD	0ffffffffH
	DD	FLAT:__unwindfunclet$?CreateEtcItem@ioEtcItemManager@@IAEPAVioEtcItem@@K@Z$69
	DD	0ffffffffH
	DD	FLAT:__unwindfunclet$?CreateEtcItem@ioEtcItemManager@@IAEPAVioEtcItem@@K@Z$70
	DD	0ffffffffH
	DD	FLAT:__unwindfunclet$?CreateEtcItem@ioEtcItemManager@@IAEPAVioEtcItem@@K@Z$71
	DD	0ffffffffH
	DD	FLAT:__unwindfunclet$?CreateEtcItem@ioEtcItemManager@@IAEPAVioEtcItem@@K@Z$72
	DD	0ffffffffH
	DD	FLAT:__unwindfunclet$?CreateEtcItem@ioEtcItemManager@@IAEPAVioEtcItem@@K@Z$73
	DD	0ffffffffH
	DD	FLAT:__unwindfunclet$?CreateEtcItem@ioEtcItemManager@@IAEPAVioEtcItem@@K@Z$74
	DD	0ffffffffH
	DD	FLAT:__unwindfunclet$?CreateEtcItem@ioEtcItemManager@@IAEPAVioEtcItem@@K@Z$75
	DD	0ffffffffH
	DD	FLAT:__unwindfunclet$?CreateEtcItem@ioEtcItemManager@@IAEPAVioEtcItem@@K@Z$76
	DD	0ffffffffH
	DD	FLAT:__unwindfunclet$?CreateEtcItem@ioEtcItemManager@@IAEPAVioEtcItem@@K@Z$77
	DD	0ffffffffH
	DD	FLAT:__unwindfunclet$?CreateEtcItem@ioEtcItemManager@@IAEPAVioEtcItem@@K@Z$78
	DD	0ffffffffH
	DD	FLAT:__unwindfunclet$?CreateEtcItem@ioEtcItemManager@@IAEPAVioEtcItem@@K@Z$79
	DD	0ffffffffH
	DD	FLAT:__unwindfunclet$?CreateEtcItem@ioEtcItemManager@@IAEPAVioEtcItem@@K@Z$80
	DD	0ffffffffH
	DD	FLAT:__unwindfunclet$?CreateEtcItem@ioEtcItemManager@@IAEPAVioEtcItem@@K@Z$81
	DD	0ffffffffH
	DD	FLAT:__unwindfunclet$?CreateEtcItem@ioEtcItemManager@@IAEPAVioEtcItem@@K@Z$82
	DD	0ffffffffH
	DD	FLAT:__unwindfunclet$?CreateEtcItem@ioEtcItemManager@@IAEPAVioEtcItem@@K@Z$83
	DD	0ffffffffH
	DD	FLAT:__unwindfunclet$?CreateEtcItem@ioEtcItemManager@@IAEPAVioEtcItem@@K@Z$84
	DD	0ffffffffH
	DD	FLAT:__unwindfunclet$?CreateEtcItem@ioEtcItemManager@@IAEPAVioEtcItem@@K@Z$85
	DD	0ffffffffH
	DD	FLAT:__unwindfunclet$?CreateEtcItem@ioEtcItemManager@@IAEPAVioEtcItem@@K@Z$86
	DD	0ffffffffH
	DD	FLAT:__unwindfunclet$?CreateEtcItem@ioEtcItemManager@@IAEPAVioEtcItem@@K@Z$87
	DD	0ffffffffH
	DD	FLAT:__unwindfunclet$?CreateEtcItem@ioEtcItemManager@@IAEPAVioEtcItem@@K@Z$88
	DD	0ffffffffH
	DD	FLAT:__unwindfunclet$?CreateEtcItem@ioEtcItemManager@@IAEPAVioEtcItem@@K@Z$89
	DD	0ffffffffH
	DD	FLAT:__unwindfunclet$?CreateEtcItem@ioEtcItemManager@@IAEPAVioEtcItem@@K@Z$90
	DD	0ffffffffH
	DD	FLAT:__unwindfunclet$?CreateEtcItem@ioEtcItemManager@@IAEPAVioEtcItem@@K@Z$91
	DD	0ffffffffH
	DD	FLAT:__unwindfunclet$?CreateEtcItem@ioEtcItemManager@@IAEPAVioEtcItem@@K@Z$92
	DD	0ffffffffH
	DD	FLAT:__unwindfunclet$?CreateEtcItem@ioEtcItemManager@@IAEPAVioEtcItem@@K@Z$93
	DD	0ffffffffH
	DD	FLAT:__unwindfunclet$?CreateEtcItem@ioEtcItemManager@@IAEPAVioEtcItem@@K@Z$94
	DD	0ffffffffH
	DD	FLAT:__unwindfunclet$?CreateEtcItem@ioEtcItemManager@@IAEPAVioEtcItem@@K@Z$95
	DD	0ffffffffH
	DD	FLAT:__unwindfunclet$?CreateEtcItem@ioEtcItemManager@@IAEPAVioEtcItem@@K@Z$96
	DD	0ffffffffH
	DD	FLAT:__unwindfunclet$?CreateEtcItem@ioEtcItemManager@@IAEPAVioEtcItem@@K@Z$97
	DD	0ffffffffH
	DD	FLAT:__unwindfunclet$?CreateEtcItem@ioEtcItemManager@@IAEPAVioEtcItem@@K@Z$98
	DD	0ffffffffH
	DD	FLAT:__unwindfunclet$?CreateEtcItem@ioEtcItemManager@@IAEPAVioEtcItem@@K@Z$99
	DD	0ffffffffH
	DD	FLAT:__unwindfunclet$?CreateEtcItem@ioEtcItemManager@@IAEPAVioEtcItem@@K@Z$100
	DD	0ffffffffH
	DD	FLAT:__unwindfunclet$?CreateEtcItem@ioEtcItemManager@@IAEPAVioEtcItem@@K@Z$101
	DD	0ffffffffH
	DD	FLAT:__unwindfunclet$?CreateEtcItem@ioEtcItemManager@@IAEPAVioEtcItem@@K@Z$102
	DD	0ffffffffH
	DD	FLAT:__unwindfunclet$?CreateEtcItem@ioEtcItemManager@@IAEPAVioEtcItem@@K@Z$103
	DD	0ffffffffH
	DD	FLAT:__unwindfunclet$?CreateEtcItem@ioEtcItemManager@@IAEPAVioEtcItem@@K@Z$104
	DD	0ffffffffH
	DD	FLAT:__unwindfunclet$?CreateEtcItem@ioEtcItemManager@@IAEPAVioEtcItem@@K@Z$105
	DD	0ffffffffH
	DD	FLAT:__unwindfunclet$?CreateEtcItem@ioEtcItemManager@@IAEPAVioEtcItem@@K@Z$106
	DD	0ffffffffH
	DD	FLAT:__unwindfunclet$?CreateEtcItem@ioEtcItemManager@@IAEPAVioEtcItem@@K@Z$107
	DD	0ffffffffH
	DD	FLAT:__unwindfunclet$?CreateEtcItem@ioEtcItemManager@@IAEPAVioEtcItem@@K@Z$108
; Function compile flags: /Ogsp
; File d:\lost saga for developer\youtube\tutorial\source\src\lsclient\ioetcitemmanager.cpp
xdata$x	ENDS
;	COMDAT ?CreateEtcItem@ioEtcItemManager@@IAEPAVioEtcItem@@K@Z
_TEXT	SEGMENT
__$EHRec$ = -12						; size = 12
$T509934 = 8						; size = 4
$T509930 = 8						; size = 4
$T509926 = 8						; size = 4
$T509922 = 8						; size = 4
$T509918 = 8						; size = 4
$T509914 = 8						; size = 4
$T509910 = 8						; size = 4
$T509906 = 8						; size = 4
$T509902 = 8						; size = 4
$T509898 = 8						; size = 4
$T509894 = 8						; size = 4
$T509890 = 8						; size = 4
$T509886 = 8						; size = 4
$T509882 = 8						; size = 4
$T509878 = 8						; size = 4
$T509874 = 8						; size = 4
$T509870 = 8						; size = 4
$T509866 = 8						; size = 4
$T509862 = 8						; size = 4
$T509858 = 8						; size = 4
$T509854 = 8						; size = 4
$T509850 = 8						; size = 4
$T509846 = 8						; size = 4
$T509842 = 8						; size = 4
$T509838 = 8						; size = 4
$T509834 = 8						; size = 4
$T509830 = 8						; size = 4
$T509826 = 8						; size = 4
$T509822 = 8						; size = 4
$T509818 = 8						; size = 4
$T509814 = 8						; size = 4
$T509810 = 8						; size = 4
$T509806 = 8						; size = 4
$T509802 = 8						; size = 4
$T509798 = 8						; size = 4
$T509794 = 8						; size = 4
$T509790 = 8						; size = 4
$T509786 = 8						; size = 4
$T509782 = 8						; size = 4
$T509778 = 8						; size = 4
$T509774 = 8						; size = 4
$T509770 = 8						; size = 4
$T509766 = 8						; size = 4
$T509762 = 8						; size = 4
$T509758 = 8						; size = 4
$T509754 = 8						; size = 4
$T509750 = 8						; size = 4
$T509746 = 8						; size = 4
$T509742 = 8						; size = 4
$T509738 = 8						; size = 4
$T509734 = 8						; size = 4
$T509730 = 8						; size = 4
$T509726 = 8						; size = 4
$T509722 = 8						; size = 4
$T509718 = 8						; size = 4
$T509714 = 8						; size = 4
$T509710 = 8						; size = 4
$T509706 = 8						; size = 4
$T509702 = 8						; size = 4
$T509698 = 8						; size = 4
$T509694 = 8						; size = 4
$T509690 = 8						; size = 4
$T509686 = 8						; size = 4
$T509682 = 8						; size = 4
$T509678 = 8						; size = 4
$T509674 = 8						; size = 4
$T509670 = 8						; size = 4
$T509666 = 8						; size = 4
$T509662 = 8						; size = 4
$T509658 = 8						; size = 4
$T509654 = 8						; size = 4
$T509650 = 8						; size = 4
$T509646 = 8						; size = 4
$T509642 = 8						; size = 4
$T509638 = 8						; size = 4
$T509634 = 8						; size = 4
$T509630 = 8						; size = 4
$T509626 = 8						; size = 4
$T509622 = 8						; size = 4
$T509618 = 8						; size = 4
$T509614 = 8						; size = 4
$T509610 = 8						; size = 4
$T509606 = 8						; size = 4
$T509602 = 8						; size = 4
$T509598 = 8						; size = 4
$T509594 = 8						; size = 4
$T509590 = 8						; size = 4
$T509586 = 8						; size = 4
$T509582 = 8						; size = 4
$T509578 = 8						; size = 4
$T509574 = 8						; size = 4
$T509570 = 8						; size = 4
$T509566 = 8						; size = 4
$T509562 = 8						; size = 4
$T509558 = 8						; size = 4
$T509554 = 8						; size = 4
$T509550 = 8						; size = 4
$T509546 = 8						; size = 4
$T509542 = 8						; size = 4
$T509538 = 8						; size = 4
$T509534 = 8						; size = 4
$T509530 = 8						; size = 4
$T509526 = 8						; size = 4
$T509522 = 8						; size = 4
$T509518 = 8						; size = 4
$T509514 = 8						; size = 4
$T509510 = 8						; size = 4
$T509506 = 8						; size = 4
$T509502 = 8						; size = 4
_dwType$ = 8						; size = 4
?CreateEtcItem@ioEtcItemManager@@IAEPAVioEtcItem@@K@Z PROC ; ioEtcItemManager::CreateEtcItem, COMDAT
; _this$ = ecx

; 128  : {

  00000	6a 00		 push	 0
  00002	b8 00 00 00 00	 mov	 eax, __ehhandler$?CreateEtcItem@ioEtcItemManager@@IAEPAVioEtcItem@@K@Z
  00007	e8 00 00 00 00	 call	 __EH_prolog3

; 129  : 	if( dwType == ioEtcItem::EIT_ETC_WHOLE_CHAT )

  0000c	8b 45 08	 mov	 eax, DWORD PTR _dwType$[ebp]
  0000f	3d 41 42 0f 00	 cmp	 eax, 1000001		; 000f4241H
  00014	75 26		 jne	 SHORT $LN245@CreateEtcI

; 130  : 		return new ioEtcItemWholeChat;

  00016	68 88 01 00 00	 push	 392			; 00000188H
  0001b	e8 00 00 00 00	 call	 ??2@YAPAXI@Z		; operator new
  00020	59		 pop	 ecx
  00021	8b c8		 mov	 ecx, eax
  00023	89 4d 08	 mov	 DWORD PTR $T509502[ebp], ecx
  00026	83 65 fc 00	 and	 DWORD PTR __$EHRec$[ebp+8], 0
$LN597@CreateEtcI:
  0002a	85 c9		 test	 ecx, ecx
  0002c	0f 84 7a 15 00
	00		 je	 $LN282@CreateEtcI
  00032	e8 00 00 00 00	 call	 ??0ioEtcItemWholeChat@@QAE@XZ ; ioEtcItemWholeChat::ioEtcItemWholeChat
  00037	e9 72 15 00 00	 jmp	 $LN246@CreateEtcI
$LN245@CreateEtcI:

; 131  : 	else if( dwType == ioEtcItem::EIT_ETC_FRIEND_SLOT_EXTEND )

  0003c	3d 02 09 3d 00	 cmp	 eax, 4000002		; 003d0902H
  00041	75 29		 jne	 SHORT $LN243@CreateEtcI

; 132  : 		return new ioEtcItemFriendSlotExtend;

  00043	68 88 01 00 00	 push	 392			; 00000188H
  00048	e8 00 00 00 00	 call	 ??2@YAPAXI@Z		; operator new
  0004d	59		 pop	 ecx
  0004e	8b c8		 mov	 ecx, eax
  00050	89 4d 08	 mov	 DWORD PTR $T509506[ebp], ecx
  00053	c7 45 fc 01 00
	00 00		 mov	 DWORD PTR __$EHRec$[ebp+8], 1
  0005a	85 c9		 test	 ecx, ecx
  0005c	0f 84 4a 15 00
	00		 je	 $LN282@CreateEtcI
  00062	e8 00 00 00 00	 call	 ??0ioEtcItemFriendSlotExtend@@QAE@XZ ; ioEtcItemFriendSlotExtend::ioEtcItemFriendSlotExtend
  00067	e9 42 15 00 00	 jmp	 $LN246@CreateEtcI
$LN243@CreateEtcI:

; 133  : 	else if( dwType == ioEtcItem::EIT_ETC_CHANGE_ID )

  0006c	3d c4 c6 2d 00	 cmp	 eax, 3000004		; 002dc6c4H
  00071	75 29		 jne	 SHORT $LN241@CreateEtcI

; 134  : 		return new ioEtcItemChangeID;

  00073	68 88 01 00 00	 push	 392			; 00000188H
  00078	e8 00 00 00 00	 call	 ??2@YAPAXI@Z		; operator new
  0007d	59		 pop	 ecx
  0007e	8b c8		 mov	 ecx, eax
  00080	89 4d 08	 mov	 DWORD PTR $T509510[ebp], ecx
  00083	c7 45 fc 02 00
	00 00		 mov	 DWORD PTR __$EHRec$[ebp+8], 2
  0008a	85 c9		 test	 ecx, ecx
  0008c	0f 84 1a 15 00
	00		 je	 $LN282@CreateEtcI
  00092	e8 00 00 00 00	 call	 ??0ioEtcItemChangeID@@QAE@XZ ; ioEtcItemChangeID::ioEtcItemChangeID
  00097	e9 12 15 00 00	 jmp	 $LN246@CreateEtcI
$LN241@CreateEtcI:

; 135  : 	else if( dwType == ioEtcItem::EIT_ETC_CUSTOM_SOUND )

  0009c	3d 45 42 0f 00	 cmp	 eax, 1000005		; 000f4245H
  000a1	75 29		 jne	 SHORT $LN239@CreateEtcI

; 136  : 		return new ioEtcItemCustomSound;

  000a3	68 88 01 00 00	 push	 392			; 00000188H
  000a8	e8 00 00 00 00	 call	 ??2@YAPAXI@Z		; operator new
  000ad	59		 pop	 ecx
  000ae	8b c8		 mov	 ecx, eax
  000b0	89 4d 08	 mov	 DWORD PTR $T509514[ebp], ecx
  000b3	c7 45 fc 03 00
	00 00		 mov	 DWORD PTR __$EHRec$[ebp+8], 3
  000ba	85 c9		 test	 ecx, ecx
  000bc	0f 84 ea 14 00
	00		 je	 $LN282@CreateEtcI
  000c2	e8 00 00 00 00	 call	 ??0ioEtcItemCustomSound@@QAE@XZ ; ioEtcItemCustomSound::ioEtcItemCustomSound
  000c7	e9 e2 14 00 00	 jmp	 $LN246@CreateEtcI
$LN239@CreateEtcI:

; 137  : 	else if( dwType == ioEtcItem::EIT_ETC_BUY_MORTMAIN_CHAR )

  000cc	3d 46 42 0f 00	 cmp	 eax, 1000006		; 000f4246H
  000d1	75 29		 jne	 SHORT $LN237@CreateEtcI

; 138  : 		return new ioEtcItemBuyMortmainChar;

  000d3	68 88 01 00 00	 push	 392			; 00000188H
  000d8	e8 00 00 00 00	 call	 ??2@YAPAXI@Z		; operator new
  000dd	59		 pop	 ecx
  000de	8b c8		 mov	 ecx, eax
  000e0	89 4d 08	 mov	 DWORD PTR $T509518[ebp], ecx
  000e3	c7 45 fc 04 00
	00 00		 mov	 DWORD PTR __$EHRec$[ebp+8], 4
  000ea	85 c9		 test	 ecx, ecx
  000ec	0f 84 ba 14 00
	00		 je	 $LN282@CreateEtcI
  000f2	e8 00 00 00 00	 call	 ??0ioEtcItemBuyMortmainChar@@QAE@XZ ; ioEtcItemBuyMortmainChar::ioEtcItemBuyMortmainChar
  000f7	e9 b2 14 00 00	 jmp	 $LN246@CreateEtcI
$LN237@CreateEtcI:

; 139  : 	else if( dwType == ioEtcItem::EIT_ETC_GUILD_CREATE )

  000fc	3d c7 c6 2d 00	 cmp	 eax, 3000007		; 002dc6c7H
  00101	75 29		 jne	 SHORT $LN235@CreateEtcI

; 140  : 		return new ioEtcItemGuildCreate;

  00103	68 88 01 00 00	 push	 392			; 00000188H
  00108	e8 00 00 00 00	 call	 ??2@YAPAXI@Z		; operator new
  0010d	59		 pop	 ecx
  0010e	8b c8		 mov	 ecx, eax
  00110	89 4d 08	 mov	 DWORD PTR $T509522[ebp], ecx
  00113	c7 45 fc 05 00
	00 00		 mov	 DWORD PTR __$EHRec$[ebp+8], 5
  0011a	85 c9		 test	 ecx, ecx
  0011c	0f 84 8a 14 00
	00		 je	 $LN282@CreateEtcI
  00122	e8 00 00 00 00	 call	 ??0ioEtcItemGuildCreate@@QAE@XZ ; ioEtcItemGuildCreate::ioEtcItemGuildCreate
  00127	e9 82 14 00 00	 jmp	 $LN246@CreateEtcI
$LN235@CreateEtcI:

; 141  : 	else if( dwType == ioEtcItem::EIT_ETC_GUILD_MARK_CHANGE )

  0012c	3d c8 c6 2d 00	 cmp	 eax, 3000008		; 002dc6c8H
  00131	75 29		 jne	 SHORT $LN233@CreateEtcI

; 142  : 		return new ioEtcItemGuildMarkChange;

  00133	68 88 01 00 00	 push	 392			; 00000188H
  00138	e8 00 00 00 00	 call	 ??2@YAPAXI@Z		; operator new
  0013d	59		 pop	 ecx
  0013e	8b c8		 mov	 ecx, eax
  00140	89 4d 08	 mov	 DWORD PTR $T509526[ebp], ecx
  00143	c7 45 fc 06 00
	00 00		 mov	 DWORD PTR __$EHRec$[ebp+8], 6
  0014a	85 c9		 test	 ecx, ecx
  0014c	0f 84 5a 14 00
	00		 je	 $LN282@CreateEtcI
  00152	e8 00 00 00 00	 call	 ??0ioEtcItemGuildMarkChange@@QAE@XZ ; ioEtcItemGuildMarkChange::ioEtcItemGuildMarkChange
  00157	e9 52 14 00 00	 jmp	 $LN246@CreateEtcI
$LN233@CreateEtcI:

; 143  : 	else if( dwType == ioEtcItem::EIT_ETC_GUILD_NAME_CHANGE )

  0015c	3d d2 c6 2d 00	 cmp	 eax, 3000018		; 002dc6d2H
  00161	75 29		 jne	 SHORT $LN231@CreateEtcI

; 144  : 		return new ioEtcItemGuildNameChange;

  00163	68 88 01 00 00	 push	 392			; 00000188H
  00168	e8 00 00 00 00	 call	 ??2@YAPAXI@Z		; operator new
  0016d	59		 pop	 ecx
  0016e	8b c8		 mov	 ecx, eax
  00170	89 4d 08	 mov	 DWORD PTR $T509530[ebp], ecx
  00173	c7 45 fc 07 00
	00 00		 mov	 DWORD PTR __$EHRec$[ebp+8], 7
  0017a	85 c9		 test	 ecx, ecx
  0017c	0f 84 2a 14 00
	00		 je	 $LN282@CreateEtcI
  00182	e8 00 00 00 00	 call	 ??0ioEtcItemGuildNameChange@@QAE@XZ ; ioEtcItemGuildNameChange::ioEtcItemGuildNameChange
  00187	e9 22 14 00 00	 jmp	 $LN246@CreateEtcI
$LN231@CreateEtcI:

; 145  : 	else if( dwType == ioEtcItem::EIT_ETC_GROWTH_DOWN )

  0018c	3d 49 42 0f 00	 cmp	 eax, 1000009		; 000f4249H
  00191	75 29		 jne	 SHORT $LN229@CreateEtcI

; 146  : 		return new ioEtcItemGrowthDown;

  00193	68 88 01 00 00	 push	 392			; 00000188H
  00198	e8 00 00 00 00	 call	 ??2@YAPAXI@Z		; operator new
  0019d	59		 pop	 ecx
  0019e	8b c8		 mov	 ecx, eax
  001a0	89 4d 08	 mov	 DWORD PTR $T509534[ebp], ecx
  001a3	c7 45 fc 08 00
	00 00		 mov	 DWORD PTR __$EHRec$[ebp+8], 8
  001aa	85 c9		 test	 ecx, ecx
  001ac	0f 84 fa 13 00
	00		 je	 $LN282@CreateEtcI
  001b2	e8 00 00 00 00	 call	 ??0ioEtcItemGrowthDown@@QAE@XZ ; ioEtcItemGrowthDown::ioEtcItemGrowthDown
  001b7	e9 f2 13 00 00	 jmp	 $LN246@CreateEtcI
$LN229@CreateEtcI:

; 147  : 	else if( dwType == ioEtcItem::EIT_ETC_PESO_BONUS )

  001bc	3d 4b 4b 4c 00	 cmp	 eax, 5000011		; 004c4b4bH
  001c1	75 29		 jne	 SHORT $LN227@CreateEtcI

; 148  : 		return new ioEtcItemPesoBonus;

  001c3	68 88 01 00 00	 push	 392			; 00000188H
  001c8	e8 00 00 00 00	 call	 ??2@YAPAXI@Z		; operator new
  001cd	59		 pop	 ecx
  001ce	8b c8		 mov	 ecx, eax
  001d0	89 4d 08	 mov	 DWORD PTR $T509538[ebp], ecx
  001d3	c7 45 fc 09 00
	00 00		 mov	 DWORD PTR __$EHRec$[ebp+8], 9
  001da	85 c9		 test	 ecx, ecx
  001dc	0f 84 ca 13 00
	00		 je	 $LN282@CreateEtcI
  001e2	e8 00 00 00 00	 call	 ??0ioEtcItemPesoBonus@@QAE@XZ ; ioEtcItemPesoBonus::ioEtcItemPesoBonus
  001e7	e9 c2 13 00 00	 jmp	 $LN246@CreateEtcI
$LN227@CreateEtcI:

; 149  : 	else if( dwType == ioEtcItem::EIT_ETC_EXP_BONUS )

  001ec	3d 4c 4b 4c 00	 cmp	 eax, 5000012		; 004c4b4cH
  001f1	75 29		 jne	 SHORT $LN225@CreateEtcI

; 150  : 		return new ioEtcItemExpBonus;

  001f3	68 88 01 00 00	 push	 392			; 00000188H
  001f8	e8 00 00 00 00	 call	 ??2@YAPAXI@Z		; operator new
  001fd	59		 pop	 ecx
  001fe	8b c8		 mov	 ecx, eax
  00200	89 4d 08	 mov	 DWORD PTR $T509542[ebp], ecx
  00203	c7 45 fc 0a 00
	00 00		 mov	 DWORD PTR __$EHRec$[ebp+8], 10 ; 0000000aH
  0020a	85 c9		 test	 ecx, ecx
  0020c	0f 84 9a 13 00
	00		 je	 $LN282@CreateEtcI
  00212	e8 00 00 00 00	 call	 ??0ioEtcItemExpBonus@@QAE@XZ ; ioEtcItemExpBonus::ioEtcItemExpBonus
  00217	e9 92 13 00 00	 jmp	 $LN246@CreateEtcI
$LN225@CreateEtcI:

; 151  : 	else if( dwType == ioEtcItem::EIT_ETC_CHAR_SLOT_EXTEND )

  0021c	3d 0a 09 3d 00	 cmp	 eax, 4000010		; 003d090aH
  00221	75 29		 jne	 SHORT $LN223@CreateEtcI

; 152  : 		return new ioEtcItemCharSlotExtend;

  00223	68 88 01 00 00	 push	 392			; 00000188H
  00228	e8 00 00 00 00	 call	 ??2@YAPAXI@Z		; operator new
  0022d	59		 pop	 ecx
  0022e	8b c8		 mov	 ecx, eax
  00230	89 4d 08	 mov	 DWORD PTR $T509546[ebp], ecx
  00233	c7 45 fc 0b 00
	00 00		 mov	 DWORD PTR __$EHRec$[ebp+8], 11 ; 0000000bH
  0023a	85 c9		 test	 ecx, ecx
  0023c	0f 84 6a 13 00
	00		 je	 $LN282@CreateEtcI
  00242	e8 00 00 00 00	 call	 ??0ioEtcItemCharSlotExtend@@QAE@XZ ; ioEtcItemCharSlotExtend::ioEtcItemCharSlotExtend
  00247	e9 62 13 00 00	 jmp	 $LN246@CreateEtcI
$LN223@CreateEtcI:

; 153  : 	else if( dwType == ioEtcItem::EIT_ETC_FISHING_BAIT )

  0024c	3d 4d 42 0f 00	 cmp	 eax, 1000013		; 000f424dH
  00251	75 29		 jne	 SHORT $LN221@CreateEtcI

; 154  : 		return new ioEtcItemFishingBait;

  00253	68 88 01 00 00	 push	 392			; 00000188H
  00258	e8 00 00 00 00	 call	 ??2@YAPAXI@Z		; operator new
  0025d	59		 pop	 ecx
  0025e	8b c8		 mov	 ecx, eax
  00260	89 4d 08	 mov	 DWORD PTR $T509550[ebp], ecx
  00263	c7 45 fc 0c 00
	00 00		 mov	 DWORD PTR __$EHRec$[ebp+8], 12 ; 0000000cH
  0026a	85 c9		 test	 ecx, ecx
  0026c	0f 84 3a 13 00
	00		 je	 $LN282@CreateEtcI
  00272	e8 00 00 00 00	 call	 ??0ioEtcItemFishingBait@@QAE@XZ ; ioEtcItemFishingBait::ioEtcItemFishingBait
  00277	e9 32 13 00 00	 jmp	 $LN246@CreateEtcI
$LN221@CreateEtcI:

; 155  : 	else if( dwType == ioEtcItem::EIT_ETC_FISHING_ROD )

  0027c	3d 4e 4b 4c 00	 cmp	 eax, 5000014		; 004c4b4eH
  00281	75 29		 jne	 SHORT $LN219@CreateEtcI

; 156  : 		return new ioEtcItemFishingRod;

  00283	68 88 01 00 00	 push	 392			; 00000188H
  00288	e8 00 00 00 00	 call	 ??2@YAPAXI@Z		; operator new
  0028d	59		 pop	 ecx
  0028e	8b c8		 mov	 ecx, eax
  00290	89 4d 08	 mov	 DWORD PTR $T509554[ebp], ecx
  00293	c7 45 fc 0d 00
	00 00		 mov	 DWORD PTR __$EHRec$[ebp+8], 13 ; 0000000dH
  0029a	85 c9		 test	 ecx, ecx
  0029c	0f 84 0a 13 00
	00		 je	 $LN282@CreateEtcI
  002a2	e8 00 00 00 00	 call	 ??0ioEtcItemFishingRod@@QAE@XZ ; ioEtcItemFishingRod::ioEtcItemFishingRod
  002a7	e9 02 13 00 00	 jmp	 $LN246@CreateEtcI
$LN219@CreateEtcI:

; 157  : 	else if( dwType == ioEtcItem::EIT_ETC_FISHING_SLOT_EXTEND )

  002ac	3d 0f 09 3d 00	 cmp	 eax, 4000015		; 003d090fH
  002b1	75 29		 jne	 SHORT $LN217@CreateEtcI

; 158  : 		return new ioEtcItemFishingSlotExtend;

  002b3	68 88 01 00 00	 push	 392			; 00000188H
  002b8	e8 00 00 00 00	 call	 ??2@YAPAXI@Z		; operator new
  002bd	59		 pop	 ecx
  002be	8b c8		 mov	 ecx, eax
  002c0	89 4d 08	 mov	 DWORD PTR $T509558[ebp], ecx
  002c3	c7 45 fc 0e 00
	00 00		 mov	 DWORD PTR __$EHRec$[ebp+8], 14 ; 0000000eH
  002ca	85 c9		 test	 ecx, ecx
  002cc	0f 84 da 12 00
	00		 je	 $LN282@CreateEtcI
  002d2	e8 00 00 00 00	 call	 ??0ioEtcItemFishingSlotExtend@@QAE@XZ ; ioEtcItemFishingSlotExtend::ioEtcItemFishingSlotExtend
  002d7	e9 d2 12 00 00	 jmp	 $LN246@CreateEtcI
$LN217@CreateEtcI:

; 159  : 	else if( dwType == ioEtcItem::EIT_ETC_FISHING_MOON_BAIT )

  002dc	3d 50 42 0f 00	 cmp	 eax, 1000016		; 000f4250H
  002e1	75 29		 jne	 SHORT $LN215@CreateEtcI

; 160  : 		return new ioEtcItemFishingMoonBait;

  002e3	68 88 01 00 00	 push	 392			; 00000188H
  002e8	e8 00 00 00 00	 call	 ??2@YAPAXI@Z		; operator new
  002ed	59		 pop	 ecx
  002ee	8b c8		 mov	 ecx, eax
  002f0	89 4d 08	 mov	 DWORD PTR $T509562[ebp], ecx
  002f3	c7 45 fc 0f 00
	00 00		 mov	 DWORD PTR __$EHRec$[ebp+8], 15 ; 0000000fH
  002fa	85 c9		 test	 ecx, ecx
  002fc	0f 84 aa 12 00
	00		 je	 $LN282@CreateEtcI
  00302	e8 00 00 00 00	 call	 ??0ioEtcItemFishingMoonBait@@QAE@XZ ; ioEtcItemFishingMoonBait::ioEtcItemFishingMoonBait
  00307	e9 a2 12 00 00	 jmp	 $LN246@CreateEtcI
$LN215@CreateEtcI:

; 161  : 	else if( dwType == ioEtcItem::EIT_ETC_FISHING_MOON_ROD )

  0030c	3d 51 4b 4c 00	 cmp	 eax, 5000017		; 004c4b51H
  00311	75 29		 jne	 SHORT $LN213@CreateEtcI

; 162  : 		return new ioEtcItemFishingMoonRod;

  00313	68 88 01 00 00	 push	 392			; 00000188H
  00318	e8 00 00 00 00	 call	 ??2@YAPAXI@Z		; operator new
  0031d	59		 pop	 ecx
  0031e	8b c8		 mov	 ecx, eax
  00320	89 4d 08	 mov	 DWORD PTR $T509566[ebp], ecx
  00323	c7 45 fc 10 00
	00 00		 mov	 DWORD PTR __$EHRec$[ebp+8], 16 ; 00000010H
  0032a	85 c9		 test	 ecx, ecx
  0032c	0f 84 7a 12 00
	00		 je	 $LN282@CreateEtcI
  00332	e8 00 00 00 00	 call	 ??0ioEtcItemFishingMoonRod@@QAE@XZ ; ioEtcItemFishingMoonRod::ioEtcItemFishingMoonRod
  00337	e9 72 12 00 00	 jmp	 $LN246@CreateEtcI
$LN213@CreateEtcI:

; 163  : 	else if( dwType == ioEtcItem::EIT_ETC_SOLDIER_PACKAGE ||
; 164  : 			 dwType == ioEtcItem::EIT_ETC_SOLDIER_PACKAGE2 ||
; 165  : 			 dwType == ioEtcItem::EIT_ETC_PREMIUM_SOLDIER_PACKAGE ||
; 166  : 			 COMPARE( dwType, ioEtcItem::EIT_ETC_SOLDIER_PACKAGE3, ioEtcItem::EIT_ETC_SOLDIER_PACKAGE10 + 1 ) )

  0033c	3d d3 c6 2d 00	 cmp	 eax, 3000019		; 002dc6d3H
  00341	0f 84 fe 12 00
	00		 je	 $LN210@CreateEtcI
  00347	3d 65 ca 2d 00	 cmp	 eax, 3000933		; 002dca65H
  0034c	0f 84 f3 12 00
	00		 je	 $LN210@CreateEtcI
  00352	3d fa c7 2d 00	 cmp	 eax, 3000314		; 002dc7faH
  00357	0f 84 e8 12 00
	00		 je	 $LN210@CreateEtcI
  0035d	3d 65 cd 2d 00	 cmp	 eax, 3001701		; 002dcd65H
  00362	72 0b		 jb	 SHORT $LN211@CreateEtcI
  00364	3d 6d cd 2d 00	 cmp	 eax, 3001709		; 002dcd6dH
  00369	0f 82 d6 12 00
	00		 jb	 $LN210@CreateEtcI
$LN211@CreateEtcI:

; 168  : 	else if( dwType == ioEtcItem::EIT_ETC_DECORATION_PACKAGE )

  0036f	3d d4 c6 2d 00	 cmp	 eax, 3000020		; 002dc6d4H
  00374	75 29		 jne	 SHORT $LN208@CreateEtcI

; 169  : 		return new ioEtcItemDecorationPackage;

  00376	68 88 01 00 00	 push	 392			; 00000188H
  0037b	e8 00 00 00 00	 call	 ??2@YAPAXI@Z		; operator new
  00380	59		 pop	 ecx
  00381	8b c8		 mov	 ecx, eax
  00383	89 4d 08	 mov	 DWORD PTR $T509574[ebp], ecx
  00386	c7 45 fc 12 00
	00 00		 mov	 DWORD PTR __$EHRec$[ebp+8], 18 ; 00000012H
  0038d	85 c9		 test	 ecx, ecx
  0038f	0f 84 17 12 00
	00		 je	 $LN282@CreateEtcI
  00395	e8 00 00 00 00	 call	 ??0ioEtcItemDecorationPackage@@QAE@XZ ; ioEtcItemDecorationPackage::ioEtcItemDecorationPackage
  0039a	e9 0f 12 00 00	 jmp	 $LN246@CreateEtcI
$LN208@CreateEtcI:

; 170  : 	else if( dwType == ioEtcItem::EIT_ETC_GOLDMONSTER_COIN )

  0039f	3d 55 42 0f 00	 cmp	 eax, 1000021		; 000f4255H
  003a4	75 29		 jne	 SHORT $LN206@CreateEtcI

; 171  : 		return new ioEtcItemGoldMonsterCoin;

  003a6	68 88 01 00 00	 push	 392			; 00000188H
  003ab	e8 00 00 00 00	 call	 ??2@YAPAXI@Z		; operator new
  003b0	59		 pop	 ecx
  003b1	8b c8		 mov	 ecx, eax
  003b3	89 4d 08	 mov	 DWORD PTR $T509578[ebp], ecx
  003b6	c7 45 fc 13 00
	00 00		 mov	 DWORD PTR __$EHRec$[ebp+8], 19 ; 00000013H
  003bd	85 c9		 test	 ecx, ecx
  003bf	0f 84 e7 11 00
	00		 je	 $LN282@CreateEtcI
  003c5	e8 00 00 00 00	 call	 ??0ioEtcItemGoldMonsterCoin@@QAE@XZ ; ioEtcItemGoldMonsterCoin::ioEtcItemGoldMonsterCoin
  003ca	e9 df 11 00 00	 jmp	 $LN246@CreateEtcI
$LN206@CreateEtcI:

; 172  : 	else if( dwType == ioEtcItem::EIT_ETC_MONSTER_COIN )

  003cf	3d 5a 42 0f 00	 cmp	 eax, 1000026		; 000f425aH
  003d4	75 29		 jne	 SHORT $LN204@CreateEtcI

; 173  : 		return new ioEtcItemMonsterCoin;

  003d6	68 88 01 00 00	 push	 392			; 00000188H
  003db	e8 00 00 00 00	 call	 ??2@YAPAXI@Z		; operator new
  003e0	59		 pop	 ecx
  003e1	8b c8		 mov	 ecx, eax
  003e3	89 4d 08	 mov	 DWORD PTR $T509582[ebp], ecx
  003e6	c7 45 fc 14 00
	00 00		 mov	 DWORD PTR __$EHRec$[ebp+8], 20 ; 00000014H
  003ed	85 c9		 test	 ecx, ecx
  003ef	0f 84 b7 11 00
	00		 je	 $LN282@CreateEtcI
  003f5	e8 00 00 00 00	 call	 ??0ioEtcItemMonsterCoin@@QAE@XZ ; ioEtcItemMonsterCoin::ioEtcItemMonsterCoin
  003fa	e9 af 11 00 00	 jmp	 $LN246@CreateEtcI
$LN204@CreateEtcI:

; 174  : 	else if( dwType == ioEtcItem::EIT_ETC_ITEM_COMPOUND )

  003ff	3d 57 42 0f 00	 cmp	 eax, 1000023		; 000f4257H
  00404	75 29		 jne	 SHORT $LN202@CreateEtcI

; 175  : 		return new ioEtcItemExtraItemCompound;

  00406	68 88 01 00 00	 push	 392			; 00000188H
  0040b	e8 00 00 00 00	 call	 ??2@YAPAXI@Z		; operator new
  00410	59		 pop	 ecx
  00411	8b c8		 mov	 ecx, eax
  00413	89 4d 08	 mov	 DWORD PTR $T509586[ebp], ecx
  00416	c7 45 fc 15 00
	00 00		 mov	 DWORD PTR __$EHRec$[ebp+8], 21 ; 00000015H
  0041d	85 c9		 test	 ecx, ecx
  0041f	0f 84 87 11 00
	00		 je	 $LN282@CreateEtcI
  00425	e8 00 00 00 00	 call	 ??0ioEtcItemExtraItemCompound@@QAE@XZ ; ioEtcItemExtraItemCompound::ioEtcItemExtraItemCompound
  0042a	e9 7f 11 00 00	 jmp	 $LN246@CreateEtcI
$LN202@CreateEtcI:

; 176  : 	else if( dwType == ioEtcItem::EIT_ETC_ITEM_COMPOUND2 )

  0042f	3d a0 42 0f 00	 cmp	 eax, 1000096		; 000f42a0H
  00434	75 29		 jne	 SHORT $LN200@CreateEtcI

; 177  : 		return new ioEtcItemExtraItemCompound2;

  00436	68 88 01 00 00	 push	 392			; 00000188H
  0043b	e8 00 00 00 00	 call	 ??2@YAPAXI@Z		; operator new
  00440	59		 pop	 ecx
  00441	8b c8		 mov	 ecx, eax
  00443	89 4d 08	 mov	 DWORD PTR $T509590[ebp], ecx
  00446	c7 45 fc 16 00
	00 00		 mov	 DWORD PTR __$EHRec$[ebp+8], 22 ; 00000016H
  0044d	85 c9		 test	 ecx, ecx
  0044f	0f 84 57 11 00
	00		 je	 $LN282@CreateEtcI
  00455	e8 00 00 00 00	 call	 ??0ioEtcItemExtraItemCompound2@@QAE@XZ ; ioEtcItemExtraItemCompound2::ioEtcItemExtraItemCompound2
  0045a	e9 4f 11 00 00	 jmp	 $LN246@CreateEtcI
$LN200@CreateEtcI:

; 178  : 	else if( dwType == ioEtcItem::EIT_ETC_ITEM_COMPOUND3 )

  0045f	3d a1 42 0f 00	 cmp	 eax, 1000097		; 000f42a1H
  00464	75 29		 jne	 SHORT $LN198@CreateEtcI

; 179  : 		return new ioEtcItemExtraItemCompound3;

  00466	68 88 01 00 00	 push	 392			; 00000188H
  0046b	e8 00 00 00 00	 call	 ??2@YAPAXI@Z		; operator new
  00470	59		 pop	 ecx
  00471	8b c8		 mov	 ecx, eax
  00473	89 4d 08	 mov	 DWORD PTR $T509594[ebp], ecx
  00476	c7 45 fc 17 00
	00 00		 mov	 DWORD PTR __$EHRec$[ebp+8], 23 ; 00000017H
  0047d	85 c9		 test	 ecx, ecx
  0047f	0f 84 27 11 00
	00		 je	 $LN282@CreateEtcI
  00485	e8 00 00 00 00	 call	 ??0ioEtcItemExtraItemCompound3@@QAE@XZ ; ioEtcItemExtraItemCompound3::ioEtcItemExtraItemCompound3
  0048a	e9 1f 11 00 00	 jmp	 $LN246@CreateEtcI
$LN198@CreateEtcI:

; 180  : 	else if( dwType == ioEtcItem::EIT_ETC_GASHAPON ||
; 181  : 		    COMPARE( dwType, ioEtcItem::EIT_ETC_GASHAPON2,		ioEtcItem::EIT_ETC_GASHAPON13 + 1)	 ||
; 182  : 			COMPARE( dwType, ioEtcItem::EIT_ETC_GASHAPON14,		ioEtcItem::EIT_ETC_GASHAPON53 + 1)	 ||
; 183  : 			COMPARE( dwType, ioEtcItem::EIT_ETC_GASHAPON54,		ioEtcItem::EIT_ETC_GASHAPON253 + 1 ) ||
; 184  : 			COMPARE( dwType, ioEtcItem::EIT_ETC_GASHAPON254,	ioEtcItem::EIT_ETC_GASHAPON553 + 1 ) ||
; 185  : 			COMPARE( dwType, ioEtcItem::EIT_ETC_GASHAPON554,	ioEtcItem::EIT_ETC_GASHAPON853 + 1 ) )

  0048f	3d 56 42 0f 00	 cmp	 eax, 1000022		; 000f4256H
  00494	0f 84 82 11 00
	00		 je	 $LN195@CreateEtcI
  0049a	b9 6e 42 0f 00	 mov	 ecx, 1000046		; 000f426eH
  0049f	3d 62 42 0f 00	 cmp	 eax, 1000034		; 000f4262H
  004a4	72 08		 jb	 SHORT $LN194@CreateEtcI
  004a6	3b c1		 cmp	 eax, ecx
  004a8	0f 82 6e 11 00
	00		 jb	 $LN195@CreateEtcI
$LN194@CreateEtcI:
  004ae	3d 75 42 0f 00	 cmp	 eax, 1000053		; 000f4275H
  004b3	72 0b		 jb	 SHORT $LN193@CreateEtcI
  004b5	3d 9d 42 0f 00	 cmp	 eax, 1000093		; 000f429dH
  004ba	0f 82 5c 11 00
	00		 jb	 $LN195@CreateEtcI
$LN193@CreateEtcI:
  004c0	3d 4d 44 0f 00	 cmp	 eax, 1000525		; 000f444dH
  004c5	72 0b		 jb	 SHORT $LN192@CreateEtcI
  004c7	3d 15 45 0f 00	 cmp	 eax, 1000725		; 000f4515H
  004cc	0f 82 4a 11 00
	00		 jb	 $LN195@CreateEtcI
$LN192@CreateEtcI:
  004d2	3d 0a 50 0f 00	 cmp	 eax, 1003530		; 000f500aH
  004d7	72 0b		 jb	 SHORT $LN191@CreateEtcI
  004d9	3d 36 51 0f 00	 cmp	 eax, 1003830		; 000f5136H
  004de	0f 82 38 11 00
	00		 jb	 $LN195@CreateEtcI
$LN191@CreateEtcI:
  004e4	3d 6f 59 0f 00	 cmp	 eax, 1005935		; 000f596fH
  004e9	72 0b		 jb	 SHORT $LN196@CreateEtcI
  004eb	3d 9b 5a 0f 00	 cmp	 eax, 1006235		; 000f5a9bH
  004f0	0f 82 26 11 00
	00		 jb	 $LN195@CreateEtcI
$LN196@CreateEtcI:

; 187  : 	else if( dwType == ioEtcItem::EIT_ETC_FISHING_PACKAGE  ||
; 188  : 		     dwType == ioEtcItem::EIT_ETC_PESO_EXP_PACKAGE ||
; 189  : 			 dwType == ioEtcItem::EIT_ETC_SPECIAL_PACKAGE1 ||
; 190  : 			 COMPARE( dwType, ioEtcItem::EIT_ETC_PACKAGE1,	ioEtcItem::EIT_ETC_PACKAGE100 + 1)		||
; 191  : 			 COMPARE( dwType, ioEtcItem::EIT_ETC_PACKAGE101, ioEtcItem::EIT_ETC_PACKAGE300 + 1)		||
; 192  : 			 COMPARE( dwType, ioEtcItem::EIT_ETC_PACKAGE301, ioEtcItem::EIT_ETC_PACKAGE800 + 1)		||
; 193  : 			 COMPARE( dwType, ioEtcItem::EIT_ETC_PACKAGE801, ioEtcItem::EIT_ETC_PACKAGE1100 + 1) )

  004f6	3d d8 c6 2d 00	 cmp	 eax, 3000024		; 002dc6d8H
  004fb	0f 84 f9 10 00
	00		 je	 $LN188@CreateEtcI
  00501	3d d9 c6 2d 00	 cmp	 eax, 3000025		; 002dc6d9H
  00506	0f 84 ee 10 00
	00		 je	 $LN188@CreateEtcI
  0050c	3d ef c6 2d 00	 cmp	 eax, 3000047		; 002dc6efH
  00511	0f 84 e3 10 00
	00		 je	 $LN188@CreateEtcI
  00517	3d 8b c7 2d 00	 cmp	 eax, 3000203		; 002dc78bH
  0051c	72 0b		 jb	 SHORT $LN187@CreateEtcI
  0051e	3d ef c7 2d 00	 cmp	 eax, 3000303		; 002dc7efH
  00523	0f 82 d1 10 00
	00		 jb	 $LN188@CreateEtcI
$LN187@CreateEtcI:
  00529	3d 95 c9 2d 00	 cmp	 eax, 3000725		; 002dc995H
  0052e	72 0b		 jb	 SHORT $LN186@CreateEtcI
  00530	3d 5d ca 2d 00	 cmp	 eax, 3000925		; 002dca5dH
  00535	0f 82 bf 10 00
	00		 jb	 $LN188@CreateEtcI
$LN186@CreateEtcI:
  0053b	3d 6a d1 2d 00	 cmp	 eax, 3002730		; 002dd16aH
  00540	72 0b		 jb	 SHORT $LN185@CreateEtcI
  00542	3d c2 d3 2d 00	 cmp	 eax, 3003330		; 002dd3c2H
  00547	0f 82 ad 10 00
	00		 jb	 $LN188@CreateEtcI
$LN185@CreateEtcI:
  0054d	3d d9 ec 2d 00	 cmp	 eax, 3009753		; 002decd9H
  00552	72 0b		 jb	 SHORT $LN189@CreateEtcI
  00554	3d c1 f0 2d 00	 cmp	 eax, 3010753		; 002df0c1H
  00559	0f 82 9b 10 00
	00		 jb	 $LN188@CreateEtcI
$LN189@CreateEtcI:

; 195  : 	else if( dwType == ioEtcItem::EIT_ETC_DECO_UNDERWEAR_PACKAGE )

  0055f	3d db c6 2d 00	 cmp	 eax, 3000027		; 002dc6dbH
  00564	75 29		 jne	 SHORT $LN183@CreateEtcI

; 196  : 		return new ioEtcItemDecoUnderwearPackage;

  00566	68 88 01 00 00	 push	 392			; 00000188H
  0056b	e8 00 00 00 00	 call	 ??2@YAPAXI@Z		; operator new
  00570	59		 pop	 ecx
  00571	8b c8		 mov	 ecx, eax
  00573	89 4d 08	 mov	 DWORD PTR $T509606[ebp], ecx
  00576	c7 45 fc 1a 00
	00 00		 mov	 DWORD PTR __$EHRec$[ebp+8], 26 ; 0000001aH
  0057d	85 c9		 test	 ecx, ecx
  0057f	0f 84 27 10 00
	00		 je	 $LN282@CreateEtcI
  00585	e8 00 00 00 00	 call	 ??0ioEtcItemDecoUnderwearPackage@@QAE@XZ ; ioEtcItemDecoUnderwearPackage::ioEtcItemDecoUnderwearPackage
  0058a	e9 1f 10 00 00	 jmp	 $LN246@CreateEtcI
$LN183@CreateEtcI:

; 197  : 	else if( dwType == ioEtcItem::EIT_ETC_RANDOM_DECO_M )

  0058f	3d 5c 42 0f 00	 cmp	 eax, 1000028		; 000f425cH
  00594	75 29		 jne	 SHORT $LN181@CreateEtcI

; 198  : 		return new ioEtcItemRandomDecoM;

  00596	68 88 01 00 00	 push	 392			; 00000188H
  0059b	e8 00 00 00 00	 call	 ??2@YAPAXI@Z		; operator new
  005a0	59		 pop	 ecx
  005a1	8b c8		 mov	 ecx, eax
  005a3	89 4d 08	 mov	 DWORD PTR $T509610[ebp], ecx
  005a6	c7 45 fc 1b 00
	00 00		 mov	 DWORD PTR __$EHRec$[ebp+8], 27 ; 0000001bH
  005ad	85 c9		 test	 ecx, ecx
  005af	0f 84 f7 0f 00
	00		 je	 $LN282@CreateEtcI
  005b5	e8 00 00 00 00	 call	 ??0ioEtcItemRandomDecoM@@QAE@XZ ; ioEtcItemRandomDecoM::ioEtcItemRandomDecoM
  005ba	e9 ef 0f 00 00	 jmp	 $LN246@CreateEtcI
$LN181@CreateEtcI:

; 199  : 	else if( dwType == ioEtcItem::EIT_ETC_RANDOM_DECO_W )

  005bf	3d 5d 42 0f 00	 cmp	 eax, 1000029		; 000f425dH
  005c4	75 29		 jne	 SHORT $LN179@CreateEtcI

; 200  : 		return new ioEtcItemRandomDecoW;

  005c6	68 88 01 00 00	 push	 392			; 00000188H
  005cb	e8 00 00 00 00	 call	 ??2@YAPAXI@Z		; operator new
  005d0	59		 pop	 ecx
  005d1	8b c8		 mov	 ecx, eax
  005d3	89 4d 08	 mov	 DWORD PTR $T509614[ebp], ecx
  005d6	c7 45 fc 1c 00
	00 00		 mov	 DWORD PTR __$EHRec$[ebp+8], 28 ; 0000001cH
  005dd	85 c9		 test	 ecx, ecx
  005df	0f 84 c7 0f 00
	00		 je	 $LN282@CreateEtcI
  005e5	e8 00 00 00 00	 call	 ??0ioEtcItemRandomDecoW@@QAE@XZ ; ioEtcItemRandomDecoW::ioEtcItemRandomDecoW
  005ea	e9 bf 0f 00 00	 jmp	 $LN246@CreateEtcI
$LN179@CreateEtcI:

; 201  : 	else if( dwType == ioEtcItem::EIT_ETC_MULTIPLE_COMPOUND )

  005ef	3d 5e 42 0f 00	 cmp	 eax, 1000030		; 000f425eH
  005f4	75 29		 jne	 SHORT $LN177@CreateEtcI

; 202  : 		return new ioEtcItemMultipleCompound;

  005f6	68 88 01 00 00	 push	 392			; 00000188H
  005fb	e8 00 00 00 00	 call	 ??2@YAPAXI@Z		; operator new
  00600	59		 pop	 ecx
  00601	8b c8		 mov	 ecx, eax
  00603	89 4d 08	 mov	 DWORD PTR $T509618[ebp], ecx
  00606	c7 45 fc 1d 00
	00 00		 mov	 DWORD PTR __$EHRec$[ebp+8], 29 ; 0000001dH
  0060d	85 c9		 test	 ecx, ecx
  0060f	0f 84 97 0f 00
	00		 je	 $LN282@CreateEtcI
  00615	e8 00 00 00 00	 call	 ??0ioEtcItemMultipleCompound@@QAE@XZ ; ioEtcItemMultipleCompound::ioEtcItemMultipleCompound
  0061a	e9 8f 0f 00 00	 jmp	 $LN246@CreateEtcI
$LN177@CreateEtcI:

; 203  : 	else if( dwType == ioEtcItem::EIT_ETC_MULTIPLE_COMPOUND2 )

  0061f	3d a2 42 0f 00	 cmp	 eax, 1000098		; 000f42a2H
  00624	75 29		 jne	 SHORT $LN175@CreateEtcI

; 204  : 		return new ioEtcItemMultipleCompound2;

  00626	68 88 01 00 00	 push	 392			; 00000188H
  0062b	e8 00 00 00 00	 call	 ??2@YAPAXI@Z		; operator new
  00630	59		 pop	 ecx
  00631	8b c8		 mov	 ecx, eax
  00633	89 4d 08	 mov	 DWORD PTR $T509622[ebp], ecx
  00636	c7 45 fc 1e 00
	00 00		 mov	 DWORD PTR __$EHRec$[ebp+8], 30 ; 0000001eH
  0063d	85 c9		 test	 ecx, ecx
  0063f	0f 84 67 0f 00
	00		 je	 $LN282@CreateEtcI
  00645	e8 00 00 00 00	 call	 ??0ioEtcItemMultipleCompound2@@QAE@XZ ; ioEtcItemMultipleCompound2::ioEtcItemMultipleCompound2
  0064a	e9 5f 0f 00 00	 jmp	 $LN246@CreateEtcI
$LN175@CreateEtcI:

; 205  : 	else if( dwType == ioEtcItem::EIT_ETC_MULTIPLE_COMPOUND3 )

  0064f	3d a3 42 0f 00	 cmp	 eax, 1000099		; 000f42a3H
  00654	75 29		 jne	 SHORT $LN173@CreateEtcI

; 206  : 		return new ioEtcItemMultipleCompound3;

  00656	68 88 01 00 00	 push	 392			; 00000188H
  0065b	e8 00 00 00 00	 call	 ??2@YAPAXI@Z		; operator new
  00660	59		 pop	 ecx
  00661	8b c8		 mov	 ecx, eax
  00663	89 4d 08	 mov	 DWORD PTR $T509626[ebp], ecx
  00666	c7 45 fc 1f 00
	00 00		 mov	 DWORD PTR __$EHRec$[ebp+8], 31 ; 0000001fH
  0066d	85 c9		 test	 ecx, ecx
  0066f	0f 84 37 0f 00
	00		 je	 $LN282@CreateEtcI
  00675	e8 00 00 00 00	 call	 ??0ioEtcItemMultipleCompound3@@QAE@XZ ; ioEtcItemMultipleCompound3::ioEtcItemMultipleCompound3
  0067a	e9 2f 0f 00 00	 jmp	 $LN246@CreateEtcI
$LN173@CreateEtcI:

; 207  : 	else if( dwType == ioEtcItem::EIT_ETC_MULTIPLE_EQUAL_COMPOUND )

  0067f	3d 5f 42 0f 00	 cmp	 eax, 1000031		; 000f425fH
  00684	75 29		 jne	 SHORT $LN171@CreateEtcI

; 208  : 		return new ioEtcItemMultipleEqualCompound;

  00686	68 88 01 00 00	 push	 392			; 00000188H
  0068b	e8 00 00 00 00	 call	 ??2@YAPAXI@Z		; operator new
  00690	59		 pop	 ecx
  00691	8b c8		 mov	 ecx, eax
  00693	89 4d 08	 mov	 DWORD PTR $T509630[ebp], ecx
  00696	c7 45 fc 20 00
	00 00		 mov	 DWORD PTR __$EHRec$[ebp+8], 32 ; 00000020H
  0069d	85 c9		 test	 ecx, ecx
  0069f	0f 84 07 0f 00
	00		 je	 $LN282@CreateEtcI
  006a5	e8 00 00 00 00	 call	 ??0ioEtcItemMultipleEqualCompound@@QAE@XZ ; ioEtcItemMultipleEqualCompound::ioEtcItemMultipleEqualCompound
  006aa	e9 ff 0e 00 00	 jmp	 $LN246@CreateEtcI
$LN171@CreateEtcI:

; 209  : 	else if( dwType == ioEtcItem::EIT_ETC_MULTIPLE_EQUAL_COMPOUND2 )

  006af	3d a4 42 0f 00	 cmp	 eax, 1000100		; 000f42a4H
  006b4	75 29		 jne	 SHORT $LN169@CreateEtcI

; 210  : 		return new ioEtcItemMultipleEqualCompound2;

  006b6	68 88 01 00 00	 push	 392			; 00000188H
  006bb	e8 00 00 00 00	 call	 ??2@YAPAXI@Z		; operator new
  006c0	59		 pop	 ecx
  006c1	8b c8		 mov	 ecx, eax
  006c3	89 4d 08	 mov	 DWORD PTR $T509634[ebp], ecx
  006c6	c7 45 fc 21 00
	00 00		 mov	 DWORD PTR __$EHRec$[ebp+8], 33 ; 00000021H
  006cd	85 c9		 test	 ecx, ecx
  006cf	0f 84 d7 0e 00
	00		 je	 $LN282@CreateEtcI
  006d5	e8 00 00 00 00	 call	 ??0ioEtcItemMultipleEqualCompound2@@QAE@XZ ; ioEtcItemMultipleEqualCompound2::ioEtcItemMultipleEqualCompound2
  006da	e9 cf 0e 00 00	 jmp	 $LN246@CreateEtcI
$LN169@CreateEtcI:

; 211  : 	else if( dwType == ioEtcItem::EIT_ETC_MULTIPLE_EQUAL_COMPOUND3 )

  006df	3d a5 42 0f 00	 cmp	 eax, 1000101		; 000f42a5H
  006e4	75 29		 jne	 SHORT $LN167@CreateEtcI

; 212  : 		return new ioEtcItemMultipleEqualCompound3;

  006e6	68 88 01 00 00	 push	 392			; 00000188H
  006eb	e8 00 00 00 00	 call	 ??2@YAPAXI@Z		; operator new
  006f0	59		 pop	 ecx
  006f1	8b c8		 mov	 ecx, eax
  006f3	89 4d 08	 mov	 DWORD PTR $T509638[ebp], ecx
  006f6	c7 45 fc 22 00
	00 00		 mov	 DWORD PTR __$EHRec$[ebp+8], 34 ; 00000022H
  006fd	85 c9		 test	 ecx, ecx
  006ff	0f 84 a7 0e 00
	00		 je	 $LN282@CreateEtcI
  00705	e8 00 00 00 00	 call	 ??0ioEtcItemMultipleEqualCompound3@@QAE@XZ ; ioEtcItemMultipleEqualCompound3::ioEtcItemMultipleEqualCompound3
  0070a	e9 9f 0e 00 00	 jmp	 $LN246@CreateEtcI
$LN167@CreateEtcI:

; 213  : 	else if( dwType == ioEtcItem::EIT_ETC_EXCAVATING_KIT ||
; 214  : 		     dwType == ioEtcItem::EIT_ETC_GOLD_EXCAVATING_KIT)

  0070f	3d a0 84 1e 00	 cmp	 eax, 2000032		; 001e84a0H
  00714	0f 84 be 0e 00
	00		 je	 $LN164@CreateEtcI
  0071a	3d a1 84 1e 00	 cmp	 eax, 2000033		; 001e84a1H
  0071f	0f 84 b3 0e 00
	00		 je	 $LN164@CreateEtcI

; 216  : 	else if( dwType == ioEtcItem::EIT_ETC_TRADE_STATE_CHANGE )

  00725	3b c1		 cmp	 eax, ecx
  00727	75 29		 jne	 SHORT $LN162@CreateEtcI

; 217  : 		return new ioEtcItemTradeStateChange;

  00729	68 88 01 00 00	 push	 392			; 00000188H
  0072e	e8 00 00 00 00	 call	 ??2@YAPAXI@Z		; operator new
  00733	59		 pop	 ecx
  00734	8b c8		 mov	 ecx, eax
  00736	89 4d 08	 mov	 DWORD PTR $T509646[ebp], ecx
  00739	c7 45 fc 24 00
	00 00		 mov	 DWORD PTR __$EHRec$[ebp+8], 36 ; 00000024H
  00740	85 c9		 test	 ecx, ecx
  00742	0f 84 64 0e 00
	00		 je	 $LN282@CreateEtcI
  00748	e8 00 00 00 00	 call	 ??0ioEtcItemTradeStateChange@@QAE@XZ ; ioEtcItemTradeStateChange::ioEtcItemTradeStateChange
  0074d	e9 5c 0e 00 00	 jmp	 $LN246@CreateEtcI
$LN162@CreateEtcI:

; 218  : 	else if( dwType == ioEtcItem::EIT_ETC_QUEST_EVENT )

  00752	3d 70 42 0f 00	 cmp	 eax, 1000048		; 000f4270H
  00757	75 29		 jne	 SHORT $LN160@CreateEtcI

; 219  : 		return new ioEtcItemQuestEvent;

  00759	68 88 01 00 00	 push	 392			; 00000188H
  0075e	e8 00 00 00 00	 call	 ??2@YAPAXI@Z		; operator new
  00763	59		 pop	 ecx
  00764	8b c8		 mov	 ecx, eax
  00766	89 4d 08	 mov	 DWORD PTR $T509650[ebp], ecx
  00769	c7 45 fc 25 00
	00 00		 mov	 DWORD PTR __$EHRec$[ebp+8], 37 ; 00000025H
  00770	85 c9		 test	 ecx, ecx
  00772	0f 84 34 0e 00
	00		 je	 $LN282@CreateEtcI
  00778	e8 00 00 00 00	 call	 ??0ioEtcItemQuestEvent@@QAE@XZ ; ioEtcItemQuestEvent::ioEtcItemQuestEvent
  0077d	e9 2c 0e 00 00	 jmp	 $LN246@CreateEtcI
$LN160@CreateEtcI:

; 220  : 	else if( dwType == ioEtcItem::EIT_ETC_SILVER_COIN )

  00782	3d 71 42 0f 00	 cmp	 eax, 1000049		; 000f4271H
  00787	75 29		 jne	 SHORT $LN158@CreateEtcI

; 221  : 		return new ioEtcItemSilverCoin;

  00789	68 88 01 00 00	 push	 392			; 00000188H
  0078e	e8 00 00 00 00	 call	 ??2@YAPAXI@Z		; operator new
  00793	59		 pop	 ecx
  00794	8b c8		 mov	 ecx, eax
  00796	89 4d 08	 mov	 DWORD PTR $T509654[ebp], ecx
  00799	c7 45 fc 26 00
	00 00		 mov	 DWORD PTR __$EHRec$[ebp+8], 38 ; 00000026H
  007a0	85 c9		 test	 ecx, ecx
  007a2	0f 84 04 0e 00
	00		 je	 $LN282@CreateEtcI
  007a8	e8 00 00 00 00	 call	 ??0ioEtcItemSilverCoin@@QAE@XZ ; ioEtcItemSilverCoin::ioEtcItemSilverCoin
  007ad	e9 fc 0d 00 00	 jmp	 $LN246@CreateEtcI
$LN158@CreateEtcI:

; 222  : 	else if( dwType == ioEtcItem::EIT_ETC_MILEAGE_COIN )

  007b2	3d 41 58 0f 00	 cmp	 eax, 1005633		; 000f5841H
  007b7	75 29		 jne	 SHORT $LN156@CreateEtcI

; 223  : 		return new ioEtcItemMileageCoin;

  007b9	68 88 01 00 00	 push	 392			; 00000188H
  007be	e8 00 00 00 00	 call	 ??2@YAPAXI@Z		; operator new
  007c3	59		 pop	 ecx
  007c4	8b c8		 mov	 ecx, eax
  007c6	89 4d 08	 mov	 DWORD PTR $T509658[ebp], ecx
  007c9	c7 45 fc 27 00
	00 00		 mov	 DWORD PTR __$EHRec$[ebp+8], 39 ; 00000027H
  007d0	85 c9		 test	 ecx, ecx
  007d2	0f 84 d4 0d 00
	00		 je	 $LN282@CreateEtcI
  007d8	e8 00 00 00 00	 call	 ??0ioEtcItemMileageCoin@@QAE@XZ ; ioEtcItemMileageCoin::ioEtcItemMileageCoin
  007dd	e9 cc 0d 00 00	 jmp	 $LN246@CreateEtcI
$LN156@CreateEtcI:

; 224  : 	else if( dwType == ioEtcItem::EIT_ETC_BATTLE_RECORD_INIT )

  007e2	3d f2 c6 2d 00	 cmp	 eax, 3000050		; 002dc6f2H
  007e7	75 29		 jne	 SHORT $LN154@CreateEtcI

; 225  : 		return new ioEtcItemBattleRecordInit;

  007e9	68 88 01 00 00	 push	 392			; 00000188H
  007ee	e8 00 00 00 00	 call	 ??2@YAPAXI@Z		; operator new
  007f3	59		 pop	 ecx
  007f4	8b c8		 mov	 ecx, eax
  007f6	89 4d 08	 mov	 DWORD PTR $T509662[ebp], ecx
  007f9	c7 45 fc 28 00
	00 00		 mov	 DWORD PTR __$EHRec$[ebp+8], 40 ; 00000028H
  00800	85 c9		 test	 ecx, ecx
  00802	0f 84 a4 0d 00
	00		 je	 $LN282@CreateEtcI
  00808	e8 00 00 00 00	 call	 ??0ioEtcItemBattleRecordInit@@QAE@XZ ; ioEtcItemBattleRecordInit::ioEtcItemBattleRecordInit
  0080d	e9 9c 0d 00 00	 jmp	 $LN246@CreateEtcI
$LN154@CreateEtcI:

; 226  : 	else if( dwType == ioEtcItem::EIT_ETC_LADDER_RECORD_INIT )

  00812	3d f3 c6 2d 00	 cmp	 eax, 3000051		; 002dc6f3H
  00817	75 29		 jne	 SHORT $LN152@CreateEtcI

; 227  : 		return new ioEtcItemLadderRecordInit;

  00819	68 88 01 00 00	 push	 392			; 00000188H
  0081e	e8 00 00 00 00	 call	 ??2@YAPAXI@Z		; operator new
  00823	59		 pop	 ecx
  00824	8b c8		 mov	 ecx, eax
  00826	89 4d 08	 mov	 DWORD PTR $T509666[ebp], ecx
  00829	c7 45 fc 29 00
	00 00		 mov	 DWORD PTR __$EHRec$[ebp+8], 41 ; 00000029H
  00830	85 c9		 test	 ecx, ecx
  00832	0f 84 74 0d 00
	00		 je	 $LN282@CreateEtcI
  00838	e8 00 00 00 00	 call	 ??0ioEtcItemLadderRecordInit@@QAE@XZ ; ioEtcItemLadderRecordInit::ioEtcItemLadderRecordInit
  0083d	e9 6c 0d 00 00	 jmp	 $LN246@CreateEtcI
$LN152@CreateEtcI:

; 228  : 	else if( dwType == ioEtcItem::EIT_ETC_HERO_RECORD_INIT )

  00842	3d f4 c6 2d 00	 cmp	 eax, 3000052		; 002dc6f4H
  00847	75 29		 jne	 SHORT $LN150@CreateEtcI

; 229  : 		return new ioEtcItemHeroRecordInit;

  00849	68 88 01 00 00	 push	 392			; 00000188H
  0084e	e8 00 00 00 00	 call	 ??2@YAPAXI@Z		; operator new
  00853	59		 pop	 ecx
  00854	8b c8		 mov	 ecx, eax
  00856	89 4d 08	 mov	 DWORD PTR $T509670[ebp], ecx
  00859	c7 45 fc 2a 00
	00 00		 mov	 DWORD PTR __$EHRec$[ebp+8], 42 ; 0000002aH
  00860	85 c9		 test	 ecx, ecx
  00862	0f 84 44 0d 00
	00		 je	 $LN282@CreateEtcI
  00868	e8 00 00 00 00	 call	 ??0ioEtcItemHeroRecordInit@@QAE@XZ ; ioEtcItemHeroRecordInit::ioEtcItemHeroRecordInit
  0086d	e9 3c 0d 00 00	 jmp	 $LN246@CreateEtcI
$LN150@CreateEtcI:

; 230  : 	else if( dwType == ioEtcItem::EIT_ETC_SKELETON_BIG )

  00872	3d dd 84 1e 00	 cmp	 eax, 2000093		; 001e84ddH
  00877	75 33		 jne	 SHORT $LN148@CreateEtcI

; 231  : 		return new ioEtcItemSkeletonBig;

  00879	68 a8 01 00 00	 push	 424			; 000001a8H
  0087e	e8 00 00 00 00	 call	 ??2@YAPAXI@Z		; operator new
  00883	8b f0		 mov	 esi, eax
  00885	59		 pop	 ecx
  00886	89 75 08	 mov	 DWORD PTR $T509674[ebp], esi
  00889	c7 45 fc 2b 00
	00 00		 mov	 DWORD PTR __$EHRec$[ebp+8], 43 ; 0000002bH
  00890	85 f6		 test	 esi, esi
  00892	0f 84 14 0d 00
	00		 je	 $LN282@CreateEtcI
  00898	8b ce		 mov	 ecx, esi
  0089a	e8 00 00 00 00	 call	 ??0ioEtcItemSkeleton@@QAE@XZ ; ioEtcItemSkeleton::ioEtcItemSkeleton
  0089f	c7 06 00 00 00
	00		 mov	 DWORD PTR [esi], OFFSET ??_7ioEtcItemSkeletonBig@@6B@
$LN598@CreateEtcI:
  008a5	8b c6		 mov	 eax, esi
  008a7	e9 02 0d 00 00	 jmp	 $LN246@CreateEtcI
$LN148@CreateEtcI:

; 232  : 	else if( dwType == ioEtcItem::EIT_ETC_SKELETON_BIGHEAD )

  008ac	3d de 84 1e 00	 cmp	 eax, 2000094		; 001e84deH
  008b1	75 2e		 jne	 SHORT $LN146@CreateEtcI

; 233  : 		return new ioEtcItemSkeletonBigHead;

  008b3	68 a8 01 00 00	 push	 424			; 000001a8H
  008b8	e8 00 00 00 00	 call	 ??2@YAPAXI@Z		; operator new
  008bd	8b f0		 mov	 esi, eax
  008bf	59		 pop	 ecx
  008c0	89 75 08	 mov	 DWORD PTR $T509678[ebp], esi
  008c3	c7 45 fc 2c 00
	00 00		 mov	 DWORD PTR __$EHRec$[ebp+8], 44 ; 0000002cH
  008ca	85 f6		 test	 esi, esi
  008cc	0f 84 da 0c 00
	00		 je	 $LN282@CreateEtcI
  008d2	8b ce		 mov	 ecx, esi
  008d4	e8 00 00 00 00	 call	 ??0ioEtcItemSkeleton@@QAE@XZ ; ioEtcItemSkeleton::ioEtcItemSkeleton
  008d9	c7 06 00 00 00
	00		 mov	 DWORD PTR [esi], OFFSET ??_7ioEtcItemSkeletonBigHead@@6B@
  008df	eb c4		 jmp	 SHORT $LN598@CreateEtcI
$LN146@CreateEtcI:

; 234  : 	else if( dwType == ioEtcItem::EIT_ETC_SKELETON_SMALL )

  008e1	3d df 84 1e 00	 cmp	 eax, 2000095		; 001e84dfH
  008e6	75 2e		 jne	 SHORT $LN144@CreateEtcI

; 235  : 		return new ioEtcItemSkeletonSmall;

  008e8	68 a8 01 00 00	 push	 424			; 000001a8H
  008ed	e8 00 00 00 00	 call	 ??2@YAPAXI@Z		; operator new
  008f2	8b f0		 mov	 esi, eax
  008f4	59		 pop	 ecx
  008f5	89 75 08	 mov	 DWORD PTR $T509682[ebp], esi
  008f8	c7 45 fc 2d 00
	00 00		 mov	 DWORD PTR __$EHRec$[ebp+8], 45 ; 0000002dH
  008ff	85 f6		 test	 esi, esi
  00901	0f 84 a5 0c 00
	00		 je	 $LN282@CreateEtcI
  00907	8b ce		 mov	 ecx, esi
  00909	e8 00 00 00 00	 call	 ??0ioEtcItemSkeleton@@QAE@XZ ; ioEtcItemSkeleton::ioEtcItemSkeleton
  0090e	c7 06 00 00 00
	00		 mov	 DWORD PTR [esi], OFFSET ??_7ioEtcItemSkeletonSmall@@6B@
  00914	eb 8f		 jmp	 SHORT $LN598@CreateEtcI
$LN144@CreateEtcI:

; 236  : 	else if( COMPARE( dwType, ioEtcItem::EIT_ETC_MOTION1, ioEtcItem::EIT_ETC_MOTION100 + 1 ) ||
; 237  : 		     COMPARE( dwType, ioEtcItem::EIT_ETC_MOTION101, ioEtcItem::EIT_ETC_MOTION400 + 1 ) )

  00916	3d 66 09 3d 00	 cmp	 eax, 4000102		; 003d0966H
  0091b	72 07		 jb	 SHORT $LN140@CreateEtcI
  0091d	3d ca 09 3d 00	 cmp	 eax, 4000202		; 003d09caH
  00922	72 0f		 jb	 SHORT $LN141@CreateEtcI
$LN140@CreateEtcI:
  00924	8d 88 c2 f2 c2
	ff		 lea	 ecx, DWORD PTR [eax-4001086]
  0092a	bb 2b 01 00 00	 mov	 ebx, 299		; 0000012bH
  0092f	3b cb		 cmp	 ecx, ebx
  00931	77 29		 ja	 SHORT $LN142@CreateEtcI
$LN141@CreateEtcI:

; 238  : 		return new ioEtcItemMotion;

  00933	68 cc 01 00 00	 push	 460			; 000001ccH
  00938	e8 00 00 00 00	 call	 ??2@YAPAXI@Z		; operator new
  0093d	59		 pop	 ecx
  0093e	8b c8		 mov	 ecx, eax
  00940	89 4d 08	 mov	 DWORD PTR $T509686[ebp], ecx
  00943	c7 45 fc 2e 00
	00 00		 mov	 DWORD PTR __$EHRec$[ebp+8], 46 ; 0000002eH
  0094a	85 c9		 test	 ecx, ecx
  0094c	0f 84 5a 0c 00
	00		 je	 $LN282@CreateEtcI
  00952	e8 00 00 00 00	 call	 ??0ioEtcItemMotion@@QAE@XZ ; ioEtcItemMotion::ioEtcItemMotion
  00957	e9 52 0c 00 00	 jmp	 $LN246@CreateEtcI
$LN142@CreateEtcI:

; 239  : 	else if( dwType == ioEtcItem::EIT_ETC_CUSTOM_ITEM_SKIN )

  0095c	3d 0a 43 0f 00	 cmp	 eax, 1000202		; 000f430aH
  00961	75 29		 jne	 SHORT $LN138@CreateEtcI

; 240  : 		return new ioEtcItemCustomItemSkin;

  00963	68 88 01 00 00	 push	 392			; 00000188H
  00968	e8 00 00 00 00	 call	 ??2@YAPAXI@Z		; operator new
  0096d	59		 pop	 ecx
  0096e	8b c8		 mov	 ecx, eax
  00970	89 4d 08	 mov	 DWORD PTR $T509690[ebp], ecx
  00973	c7 45 fc 2f 00
	00 00		 mov	 DWORD PTR __$EHRec$[ebp+8], 47 ; 0000002fH
  0097a	85 c9		 test	 ecx, ecx
  0097c	0f 84 2a 0c 00
	00		 je	 $LN282@CreateEtcI
  00982	e8 00 00 00 00	 call	 ??0ioEtcItemCustomItemSkin@@QAE@XZ ; ioEtcItemCustomItemSkin::ioEtcItemCustomItemSkin
  00987	e9 22 0c 00 00	 jmp	 $LN246@CreateEtcI
$LN138@CreateEtcI:

; 241  : 	else if( dwType == ioEtcItem::EIT_ETC_CUSTOM_ITEM_SKIN_TEST )

  0098c	3d 2f 0a 3d 00	 cmp	 eax, 4000303		; 003d0a2fH
  00991	75 29		 jne	 SHORT $LN136@CreateEtcI

; 242  : 		return new ioEtcItemCustomItemSkinTest;

  00993	68 88 01 00 00	 push	 392			; 00000188H
  00998	e8 00 00 00 00	 call	 ??2@YAPAXI@Z		; operator new
  0099d	59		 pop	 ecx
  0099e	8b c8		 mov	 ecx, eax
  009a0	89 4d 08	 mov	 DWORD PTR $T509694[ebp], ecx
  009a3	c7 45 fc 30 00
	00 00		 mov	 DWORD PTR __$EHRec$[ebp+8], 48 ; 00000030H
  009aa	85 c9		 test	 ecx, ecx
  009ac	0f 84 fa 0b 00
	00		 je	 $LN282@CreateEtcI
  009b2	e8 00 00 00 00	 call	 ??0ioEtcItemCustomItemSkinTest@@QAE@XZ ; ioEtcItemCustomItemSkinTest::ioEtcItemCustomItemSkinTest
  009b7	e9 f2 0b 00 00	 jmp	 $LN246@CreateEtcI
$LN136@CreateEtcI:

; 243  : 	else if( dwType == ioEtcItem::EIT_ETC_COSTUM_ITEM_SKIN )

  009bc	3d 0b 43 0f 00	 cmp	 eax, 1000203		; 000f430bH
  009c1	75 29		 jne	 SHORT $LN134@CreateEtcI

; 244  : 		return new ioEtcItemCostumItemSkin;

  009c3	68 88 01 00 00	 push	 392			; 00000188H
  009c8	e8 00 00 00 00	 call	 ??2@YAPAXI@Z		; operator new
  009cd	59		 pop	 ecx
  009ce	8b c8		 mov	 ecx, eax
  009d0	89 4d 08	 mov	 DWORD PTR $T509698[ebp], ecx
  009d3	c7 45 fc 31 00
	00 00		 mov	 DWORD PTR __$EHRec$[ebp+8], 49 ; 00000031H
  009da	85 c9		 test	 ecx, ecx
  009dc	0f 84 ca 0b 00
	00		 je	 $LN282@CreateEtcI
  009e2	e8 00 00 00 00	 call	 ??0ioEtcItemCostumItemSkin@@QAE@XZ ; ioEtcItemCostumItemSkin::ioEtcItemCostumItemSkin
  009e7	e9 c2 0b 00 00	 jmp	 $LN246@CreateEtcI
$LN134@CreateEtcI:

; 245  : 	else if( IsBlockEtcItem( dwType ) )

  009ec	8d 88 90 b3 b3
	ff		 lea	 ecx, DWORD PTR [eax-5000304]
  009f2	83 f9 09	 cmp	 ecx, 9
  009f5	77 29		 ja	 SHORT $LN132@CreateEtcI

; 246  : 		return new ioEtcItemBlock;

  009f7	68 a8 01 00 00	 push	 424			; 000001a8H
  009fc	e8 00 00 00 00	 call	 ??2@YAPAXI@Z		; operator new
  00a01	59		 pop	 ecx
  00a02	8b c8		 mov	 ecx, eax
  00a04	89 4d 08	 mov	 DWORD PTR $T509702[ebp], ecx
  00a07	c7 45 fc 32 00
	00 00		 mov	 DWORD PTR __$EHRec$[ebp+8], 50 ; 00000032H
  00a0e	85 c9		 test	 ecx, ecx
  00a10	0f 84 96 0b 00
	00		 je	 $LN282@CreateEtcI
  00a16	e8 00 00 00 00	 call	 ??0ioEtcItemBlock@@QAE@XZ ; ioEtcItemBlock::ioEtcItemBlock
  00a1b	e9 8e 0b 00 00	 jmp	 $LN246@CreateEtcI
$LN132@CreateEtcI:

; 247  : 	else if( COMPARE( dwType, ioEtcItem::EIT_ETC_EVENT_CHECK1, ioEtcItem::EIT_ETC_EVENT_CHECK100 + 1 ) ||
; 248  : 		     COMPARE( dwType, ioEtcItem::EIT_ETC_EVENT_CHECK101, ioEtcItem::EIT_ETC_EVENT_CHECK200 + 1 ) )

  00a20	b9 df 43 0f 00	 mov	 ecx, 1000415		; 000f43dfH
  00a25	3d 7b 43 0f 00	 cmp	 eax, 1000315		; 000f437bH
  00a2a	72 04		 jb	 SHORT $LN128@CreateEtcI
  00a2c	3b c1		 cmp	 eax, ecx
  00a2e	72 0b		 jb	 SHORT $LN129@CreateEtcI
$LN128@CreateEtcI:
  00a30	8d 90 02 ae f0
	ff		 lea	 edx, DWORD PTR [eax-1004030]
  00a36	83 fa 63	 cmp	 edx, 99			; 00000063H
  00a39	77 31		 ja	 SHORT $LN130@CreateEtcI
$LN129@CreateEtcI:

; 249  : 		return new ioEtcItemEventCheck;

  00a3b	68 88 01 00 00	 push	 392			; 00000188H
  00a40	e8 00 00 00 00	 call	 ??2@YAPAXI@Z		; operator new
  00a45	8b f0		 mov	 esi, eax
  00a47	59		 pop	 ecx
  00a48	89 75 08	 mov	 DWORD PTR $T509706[ebp], esi
  00a4b	c7 45 fc 33 00
	00 00		 mov	 DWORD PTR __$EHRec$[ebp+8], 51 ; 00000033H
  00a52	85 f6		 test	 esi, esi
  00a54	0f 84 52 0b 00
	00		 je	 $LN282@CreateEtcI
  00a5a	8b ce		 mov	 ecx, esi
  00a5c	e8 00 00 00 00	 call	 ??0ioEtcItem@@QAE@XZ	; ioEtcItem::ioEtcItem
  00a61	c7 06 00 00 00
	00		 mov	 DWORD PTR [esi], OFFSET ??_7ioEtcItemEventCheck@@6B@
  00a67	e9 39 fe ff ff	 jmp	 $LN598@CreateEtcI
$LN130@CreateEtcI:

; 250  : 	else if( dwType == ioEtcItem::EIT_ETC_ITEM_GROWTH_CATALYST )

  00a6c	3b c1		 cmp	 eax, ecx
  00a6e	75 29		 jne	 SHORT $LN126@CreateEtcI

; 251  : 		return new ioEtcItemExtraItemGrowthCatalyst;

  00a70	68 88 01 00 00	 push	 392			; 00000188H
  00a75	e8 00 00 00 00	 call	 ??2@YAPAXI@Z		; operator new
  00a7a	59		 pop	 ecx
  00a7b	8b c8		 mov	 ecx, eax
  00a7d	89 4d 08	 mov	 DWORD PTR $T509710[ebp], ecx
  00a80	c7 45 fc 34 00
	00 00		 mov	 DWORD PTR __$EHRec$[ebp+8], 52 ; 00000034H
  00a87	85 c9		 test	 ecx, ecx
  00a89	0f 84 1d 0b 00
	00		 je	 $LN282@CreateEtcI
  00a8f	e8 00 00 00 00	 call	 ??0ioEtcItemExtraItemGrowthCatalyst@@QAE@XZ ; ioEtcItemExtraItemGrowthCatalyst::ioEtcItemExtraItemGrowthCatalyst
  00a94	e9 15 0b 00 00	 jmp	 $LN246@CreateEtcI
$LN126@CreateEtcI:

; 252  : 	else if( COMPARE( dwType, ioEtcItem::EIT_ETC_ITEM_LUCKY_COIN_1, ioEtcItem::EIT_ETC_ITEM_LUCKY_COIN_4 + 1 ) ||
; 253  : 			 COMPARE( dwType, ioEtcItem::EIT_ETC_ITEM_LUCKY_COIN_5, ioEtcItem::EIT_ETC_ITEM_LUCKY_COIN_205 + 1 ) || 
; 254  : 			 COMPARE( dwType, ioEtcItem::EIT_ETC_ITEM_LUCKY_COIN_206, ioEtcItem::EIT_ETC_ITEM_LUCKY_COIN_506 + 1 ))

  00a99	b9 e4 43 0f 00	 mov	 ecx, 1000420		; 000f43e4H
  00a9e	3d e0 43 0f 00	 cmp	 eax, 1000416		; 000f43e0H
  00aa3	72 04		 jb	 SHORT $LN122@CreateEtcI
  00aa5	3b c1		 cmp	 eax, ecx
  00aa7	72 1a		 jb	 SHORT $LN123@CreateEtcI
$LN122@CreateEtcI:
  00aa9	ba be 4b 0f 00	 mov	 edx, 1002430		; 000f4bbeH
  00aae	3b c2		 cmp	 eax, edx
  00ab0	72 07		 jb	 SHORT $LN121@CreateEtcI
  00ab2	3d 22 4c 0f 00	 cmp	 eax, 1002530		; 000f4c22H
  00ab7	72 0a		 jb	 SHORT $LN123@CreateEtcI
$LN121@CreateEtcI:
  00ab9	8d b0 17 aa f0
	ff		 lea	 esi, DWORD PTR [eax-1005033]
  00abf	3b f3		 cmp	 esi, ebx
  00ac1	77 29		 ja	 SHORT $LN124@CreateEtcI
$LN123@CreateEtcI:

; 255  : 		return new ioEtcItemLuckyCoin;

  00ac3	68 a8 01 00 00	 push	 424			; 000001a8H
  00ac8	e8 00 00 00 00	 call	 ??2@YAPAXI@Z		; operator new
  00acd	59		 pop	 ecx
  00ace	8b c8		 mov	 ecx, eax
  00ad0	89 4d 08	 mov	 DWORD PTR $T509714[ebp], ecx
  00ad3	c7 45 fc 35 00
	00 00		 mov	 DWORD PTR __$EHRec$[ebp+8], 53 ; 00000035H
  00ada	85 c9		 test	 ecx, ecx
  00adc	0f 84 ca 0a 00
	00		 je	 $LN282@CreateEtcI
  00ae2	e8 00 00 00 00	 call	 ??0ioEtcItemLuckyCoin@@QAE@XZ ; ioEtcItemLuckyCoin::ioEtcItemLuckyCoin
  00ae7	e9 c2 0a 00 00	 jmp	 $LN246@CreateEtcI
$LN124@CreateEtcI:

; 256  : 	else if( COMPARE( dwType, ioEtcItem::EIT_ETC_ITEM_COMPOUNDEX_1, ioEtcItem::EIT_ETC_ITEM_COMPOUNDEX_3 + 1 ) ||
; 257  : 			 COMPARE( dwType, ioEtcItem::EIT_ETC_ITEM_COMPOUNDEX_4, ioEtcItem::EIT_ETC_ITEM_COMPOUNDEX_10 + 1 ) ||
; 258  : 			 COMPARE( dwType, ioEtcItem::EIT_ETC_ITEM_COMPOUNDEX_11, ioEtcItem::EIT_ETC_ITEM_COMPOUNDEX_100 + 1 ) )

  00aec	3b c1		 cmp	 eax, ecx
  00aee	72 07		 jb	 SHORT $LN117@CreateEtcI
  00af0	3d e7 43 0f 00	 cmp	 eax, 1000423		; 000f43e7H
  00af5	72 19		 jb	 SHORT $LN118@CreateEtcI
$LN117@CreateEtcI:
  00af7	3d de 45 0f 00	 cmp	 eax, 1000926		; 000f45deH
  00afc	72 07		 jb	 SHORT $LN116@CreateEtcI
  00afe	3d e5 45 0f 00	 cmp	 eax, 1000933		; 000f45e5H
  00b03	72 0b		 jb	 SHORT $LN118@CreateEtcI
$LN116@CreateEtcI:
  00b05	8d 88 64 b5 f0
	ff		 lea	 ecx, DWORD PTR [eax-1002140]
  00b0b	83 f9 59	 cmp	 ecx, 89			; 00000059H
  00b0e	77 29		 ja	 SHORT $LN119@CreateEtcI
$LN118@CreateEtcI:

; 259  : 		return new ioEtcItemCompoundEx;

  00b10	68 8c 01 00 00	 push	 396			; 0000018cH
  00b15	e8 00 00 00 00	 call	 ??2@YAPAXI@Z		; operator new
  00b1a	59		 pop	 ecx
  00b1b	8b c8		 mov	 ecx, eax
  00b1d	89 4d 08	 mov	 DWORD PTR $T509718[ebp], ecx
  00b20	c7 45 fc 36 00
	00 00		 mov	 DWORD PTR __$EHRec$[ebp+8], 54 ; 00000036H
  00b27	85 c9		 test	 ecx, ecx
  00b29	0f 84 7d 0a 00
	00		 je	 $LN282@CreateEtcI
  00b2f	e8 00 00 00 00	 call	 ??0ioEtcItemCompoundEx@@QAE@XZ ; ioEtcItemCompoundEx::ioEtcItemCompoundEx
  00b34	e9 75 0a 00 00	 jmp	 $LN246@CreateEtcI
$LN119@CreateEtcI:

; 260  : 	else if( dwType == ioEtcItem::EIT_ETC_ITEM_RAINBOW_MIXER )

  00b39	3d a7 0a 3d 00	 cmp	 eax, 4000423		; 003d0aa7H
  00b3e	75 29		 jne	 SHORT $LN114@CreateEtcI

; 261  : 		return new ioEtcItemRainbowMixer;

  00b40	68 bc 01 00 00	 push	 444			; 000001bcH
  00b45	e8 00 00 00 00	 call	 ??2@YAPAXI@Z		; operator new
  00b4a	59		 pop	 ecx
  00b4b	8b c8		 mov	 ecx, eax
  00b4d	89 4d 08	 mov	 DWORD PTR $T509722[ebp], ecx
  00b50	c7 45 fc 37 00
	00 00		 mov	 DWORD PTR __$EHRec$[ebp+8], 55 ; 00000037H
  00b57	85 c9		 test	 ecx, ecx
  00b59	0f 84 4d 0a 00
	00		 je	 $LN282@CreateEtcI
  00b5f	e8 00 00 00 00	 call	 ??0ioEtcItemRainbowMixer@@QAE@XZ ; ioEtcItemRainbowMixer::ioEtcItemRainbowMixer
  00b64	e9 45 0a 00 00	 jmp	 $LN246@CreateEtcI
$LN114@CreateEtcI:

; 262  : 	else if( dwType == ioEtcItem::EIT_ETC_ITEM_LOSTSAGA_MIXER )

  00b69	3d a8 0a 3d 00	 cmp	 eax, 4000424		; 003d0aa8H
  00b6e	75 29		 jne	 SHORT $LN112@CreateEtcI

; 263  : 		return new ioEtcItemLostSagaMixer;

  00b70	68 bc 01 00 00	 push	 444			; 000001bcH
  00b75	e8 00 00 00 00	 call	 ??2@YAPAXI@Z		; operator new
  00b7a	59		 pop	 ecx
  00b7b	8b c8		 mov	 ecx, eax
  00b7d	89 4d 08	 mov	 DWORD PTR $T509726[ebp], ecx
  00b80	c7 45 fc 38 00
	00 00		 mov	 DWORD PTR __$EHRec$[ebp+8], 56 ; 00000038H
  00b87	85 c9		 test	 ecx, ecx
  00b89	0f 84 1d 0a 00
	00		 je	 $LN282@CreateEtcI
  00b8f	e8 00 00 00 00	 call	 ??0ioEtcItemLostSagaMixer@@QAE@XZ ; ioEtcItemLostSagaMixer::ioEtcItemLostSagaMixer
  00b94	e9 15 0a 00 00	 jmp	 $LN246@CreateEtcI
$LN112@CreateEtcI:

; 264  : 	else if( COMPARE( dwType, ioEtcItem::EIT_ETC_ITEM_TIME_GASHAPON1, ioEtcItem::EIT_ETC_ITEM_TIME_GASHAPON100 + 1 ) )

  00b99	8d 88 17 b3 b3
	ff		 lea	 ecx, DWORD PTR [eax-5000425]
  00b9f	83 f9 63	 cmp	 ecx, 99			; 00000063H
  00ba2	77 29		 ja	 SHORT $LN110@CreateEtcI

; 265  : 		return new ioEtcItemTimeGashapon;

  00ba4	68 d4 01 00 00	 push	 468			; 000001d4H
  00ba9	e8 00 00 00 00	 call	 ??2@YAPAXI@Z		; operator new
  00bae	59		 pop	 ecx
  00baf	8b c8		 mov	 ecx, eax
  00bb1	89 4d 08	 mov	 DWORD PTR $T509730[ebp], ecx
  00bb4	c7 45 fc 39 00
	00 00		 mov	 DWORD PTR __$EHRec$[ebp+8], 57 ; 00000039H
$LN599@CreateEtcI:
  00bbb	85 c9		 test	 ecx, ecx
  00bbd	0f 84 e9 09 00
	00		 je	 $LN282@CreateEtcI
  00bc3	e8 00 00 00 00	 call	 ??0ioEtcItemTimeGashapon@@QAE@XZ ; ioEtcItemTimeGashapon::ioEtcItemTimeGashapon
  00bc8	e9 e1 09 00 00	 jmp	 $LN246@CreateEtcI
$LN110@CreateEtcI:

; 266  : 	else if( (dwType == ioEtcItem::EIT_ETC_GOLD_BOX) || 
; 267  : 					(dwType >= ioEtcItem::EIT_ETC_GOLD_BOX01 && dwType <= ioEtcItem::EIT_ETC_GOLD_BOX32))

  00bcd	3d dd 45 0f 00	 cmp	 eax, 1000925		; 000f45ddH
  00bd2	0f 84 de 09 00
	00		 je	 $LN107@CreateEtcI
  00bd8	3d 11 4a 0f 00	 cmp	 eax, 1002001		; 000f4a11H
  00bdd	72 0b		 jb	 SHORT $LN108@CreateEtcI
  00bdf	3d 30 4a 0f 00	 cmp	 eax, 1002032		; 000f4a30H
  00be4	0f 86 cc 09 00
	00		 jbe	 $LN107@CreateEtcI
$LN108@CreateEtcI:

; 269  : 	else if( COMPARE( dwType, ioEtcItem::EIT_ETC_SOLDIER_SELECTOR1, ioEtcItem::EIT_ETC_SOLDIER_SELECTOR101 + 1 ) )

  00bea	8d 88 9a 35 d2
	ff		 lea	 ecx, DWORD PTR [eax-3000934]
  00bf0	83 f9 64	 cmp	 ecx, 100		; 00000064H
  00bf3	77 29		 ja	 SHORT $LN105@CreateEtcI

; 270  : 		return new ioEtcItemSoldierSelector;

  00bf5	68 a0 01 00 00	 push	 416			; 000001a0H
  00bfa	e8 00 00 00 00	 call	 ??2@YAPAXI@Z		; operator new
  00bff	59		 pop	 ecx
  00c00	8b c8		 mov	 ecx, eax
  00c02	89 4d 08	 mov	 DWORD PTR $T509738[ebp], ecx
  00c05	c7 45 fc 3b 00
	00 00		 mov	 DWORD PTR __$EHRec$[ebp+8], 59 ; 0000003bH
  00c0c	85 c9		 test	 ecx, ecx
  00c0e	0f 84 98 09 00
	00		 je	 $LN282@CreateEtcI
  00c14	e8 00 00 00 00	 call	 ??0ioEtcItemSoldierSelector@@QAE@XZ ; ioEtcItemSoldierSelector::ioEtcItemSoldierSelector
  00c19	e9 90 09 00 00	 jmp	 $LN246@CreateEtcI
$LN105@CreateEtcI:

; 271  : 	else if( COMPARE( dwType, ioEtcItem::EIT_ETC_FOUR_EXTRA_COMPOUND1, ioEtcItem::EIT_ETC_FOUR_EXTRA_COMPOUND51 + 1 ) )

  00c1e	8d 88 b5 b9 f0
	ff		 lea	 ecx, DWORD PTR [eax-1001035]
  00c24	83 f9 32	 cmp	 ecx, 50			; 00000032H
  00c27	77 29		 ja	 SHORT $LN103@CreateEtcI

; 272  : 		return new ioEtcItemFourExtraCompound;

  00c29	68 98 01 00 00	 push	 408			; 00000198H
  00c2e	e8 00 00 00 00	 call	 ??2@YAPAXI@Z		; operator new
  00c33	59		 pop	 ecx
  00c34	8b c8		 mov	 ecx, eax
  00c36	89 4d 08	 mov	 DWORD PTR $T509742[ebp], ecx
  00c39	c7 45 fc 3c 00
	00 00		 mov	 DWORD PTR __$EHRec$[ebp+8], 60 ; 0000003cH
  00c40	85 c9		 test	 ecx, ecx
  00c42	0f 84 64 09 00
	00		 je	 $LN282@CreateEtcI
  00c48	e8 00 00 00 00	 call	 ??0ioEtcItemFourExtraCompound@@QAE@XZ ; ioEtcItemFourExtraCompound::ioEtcItemFourExtraCompound
  00c4d	e9 5c 09 00 00	 jmp	 $LN246@CreateEtcI
$LN103@CreateEtcI:

; 273  : 	else if( COMPARE( dwType, ioEtcItem::EIT_ETC_EXPAND_MEDAL_SLOT01, ioEtcItem::EIT_ETC_EXPAND_MEDAL_SLOT20 + 1 ) )

  00c52	8d 88 56 b8 f0
	ff		 lea	 ecx, DWORD PTR [eax-1001386]
  00c58	83 f9 13	 cmp	 ecx, 19			; 00000013H
  00c5b	77 29		 ja	 SHORT $LN101@CreateEtcI

; 274  : 		return new ioEtcItemExpandMedalSlot;

  00c5d	68 ec 01 00 00	 push	 492			; 000001ecH
  00c62	e8 00 00 00 00	 call	 ??2@YAPAXI@Z		; operator new
  00c67	59		 pop	 ecx
  00c68	8b c8		 mov	 ecx, eax
  00c6a	89 4d 08	 mov	 DWORD PTR $T509746[ebp], ecx
  00c6d	c7 45 fc 3d 00
	00 00		 mov	 DWORD PTR __$EHRec$[ebp+8], 61 ; 0000003dH
  00c74	85 c9		 test	 ecx, ecx
  00c76	0f 84 30 09 00
	00		 je	 $LN282@CreateEtcI
  00c7c	e8 00 00 00 00	 call	 ??0ioEtcItemExpandMedalSlot@@QAE@XZ ; ioEtcItemExpandMedalSlot::ioEtcItemExpandMedalSlot
  00c81	e9 28 09 00 00	 jmp	 $LN246@CreateEtcI
$LN101@CreateEtcI:

; 275  : 	else if( dwType == ioEtcItem::EIT_ETC_SOLDIER_EXP_BONUS )

  00c86	3d be 50 4c 00	 cmp	 eax, 5001406		; 004c50beH
  00c8b	75 29		 jne	 SHORT $LN99@CreateEtcI

; 276  : 		return new ioEtcItemSoldierExpBonus;

  00c8d	68 90 01 00 00	 push	 400			; 00000190H
  00c92	e8 00 00 00 00	 call	 ??2@YAPAXI@Z		; operator new
  00c97	59		 pop	 ecx
  00c98	8b c8		 mov	 ecx, eax
  00c9a	89 4d 08	 mov	 DWORD PTR $T509750[ebp], ecx
  00c9d	c7 45 fc 3e 00
	00 00		 mov	 DWORD PTR __$EHRec$[ebp+8], 62 ; 0000003eH
  00ca4	85 c9		 test	 ecx, ecx
  00ca6	0f 84 00 09 00
	00		 je	 $LN282@CreateEtcI
  00cac	e8 00 00 00 00	 call	 ??0ioEtcItemSoldierExpBonus@@QAE@XZ ; ioEtcItemSoldierExpBonus::ioEtcItemSoldierExpBonus
  00cb1	e9 f8 08 00 00	 jmp	 $LN246@CreateEtcI
$LN99@CreateEtcI:

; 277  : 	else if( COMPARE(dwType, ioEtcItem::EIT_ETC_CONSUMPTION_BUFF01,  ioEtcItem::EIT_ETC_CONSUMPTION_BUFF64 + 1))

  00cb6	6a 3f		 push	 63			; 0000003fH
  00cb8	8d 88 41 b8 f0
	ff		 lea	 ecx, DWORD PTR [eax-1001407]
  00cbe	5e		 pop	 esi
  00cbf	3b ce		 cmp	 ecx, esi
  00cc1	77 25		 ja	 SHORT $LN97@CreateEtcI

; 278  : 		return new ioEtcItemConsumption;

  00cc3	68 bc 01 00 00	 push	 444			; 000001bcH
  00cc8	e8 00 00 00 00	 call	 ??2@YAPAXI@Z		; operator new
  00ccd	59		 pop	 ecx
  00cce	8b c8		 mov	 ecx, eax
  00cd0	89 4d 08	 mov	 DWORD PTR $T509754[ebp], ecx
  00cd3	89 75 fc	 mov	 DWORD PTR __$EHRec$[ebp+8], esi
  00cd6	85 c9		 test	 ecx, ecx
  00cd8	0f 84 ce 08 00
	00		 je	 $LN282@CreateEtcI
  00cde	e8 00 00 00 00	 call	 ??0ioEtcItemConsumption@@QAE@XZ ; ioEtcItemConsumption::ioEtcItemConsumption
  00ce3	e9 c6 08 00 00	 jmp	 $LN246@CreateEtcI
$LN97@CreateEtcI:

; 279  : 	else if( dwType == ioEtcItem::EIT_ETC_CONSUMPTION_REVIVE)

  00ce8	3d ff 47 0f 00	 cmp	 eax, 1001471		; 000f47ffH
  00ced	75 29		 jne	 SHORT $LN95@CreateEtcI

; 280  : 		return new ioEtcItemRevive;

  00cef	68 bc 01 00 00	 push	 444			; 000001bcH
  00cf4	e8 00 00 00 00	 call	 ??2@YAPAXI@Z		; operator new
  00cf9	59		 pop	 ecx
  00cfa	8b c8		 mov	 ecx, eax
  00cfc	89 4d 08	 mov	 DWORD PTR $T509758[ebp], ecx
  00cff	c7 45 fc 40 00
	00 00		 mov	 DWORD PTR __$EHRec$[ebp+8], 64 ; 00000040H
  00d06	85 c9		 test	 ecx, ecx
  00d08	0f 84 9e 08 00
	00		 je	 $LN282@CreateEtcI
  00d0e	e8 00 00 00 00	 call	 ??0ioEtcItemRevive@@QAE@XZ ; ioEtcItemRevive::ioEtcItemRevive
  00d13	e9 96 08 00 00	 jmp	 $LN246@CreateEtcI
$LN95@CreateEtcI:

; 281  : 	else if( dwType == ioEtcItem::EIT_ETC_SELECT_EXTRA_GASHAPON )

  00d18	3d 81 cc 2d 00	 cmp	 eax, 3001473		; 002dcc81H
  00d1d	75 29		 jne	 SHORT $LN93@CreateEtcI

; 282  : 		return new ioEtcItemSelectExtraGashapon;

  00d1f	68 bc 01 00 00	 push	 444			; 000001bcH
  00d24	e8 00 00 00 00	 call	 ??2@YAPAXI@Z		; operator new
  00d29	59		 pop	 ecx
  00d2a	8b c8		 mov	 ecx, eax
  00d2c	89 4d 08	 mov	 DWORD PTR $T509762[ebp], ecx
  00d2f	c7 45 fc 41 00
	00 00		 mov	 DWORD PTR __$EHRec$[ebp+8], 65 ; 00000041H
$LN600@CreateEtcI:
  00d36	85 c9		 test	 ecx, ecx
  00d38	0f 84 6e 08 00
	00		 je	 $LN282@CreateEtcI
  00d3e	e8 00 00 00 00	 call	 ??0ioEtcItemSelectExtraGashapon@@QAE@XZ ; ioEtcItemSelectExtraGashapon::ioEtcItemSelectExtraGashapon
  00d43	e9 66 08 00 00	 jmp	 $LN246@CreateEtcI
$LN93@CreateEtcI:

; 283  : 	else if( COMPARE(dwType, ioEtcItem::EIT_ETC_PRESET_PACKAGE1, ioEtcItem::EIT_ETC_PRESET_PACKAGE100+1) )

  00d48	8d 88 ff 32 d2
	ff		 lea	 ecx, DWORD PTR [eax-3001601]
  00d4e	83 f9 63	 cmp	 ecx, 99			; 00000063H
  00d51	77 29		 ja	 SHORT $LN91@CreateEtcI

; 284  : 		return new ioEtcItemPreSetPackage;

  00d53	68 e8 01 00 00	 push	 488			; 000001e8H
  00d58	e8 00 00 00 00	 call	 ??2@YAPAXI@Z		; operator new
  00d5d	59		 pop	 ecx
  00d5e	8b c8		 mov	 ecx, eax
  00d60	89 4d 08	 mov	 DWORD PTR $T509766[ebp], ecx
  00d63	c7 45 fc 42 00
	00 00		 mov	 DWORD PTR __$EHRec$[ebp+8], 66 ; 00000042H
  00d6a	85 c9		 test	 ecx, ecx
  00d6c	0f 84 3a 08 00
	00		 je	 $LN282@CreateEtcI
  00d72	e8 00 00 00 00	 call	 ??0ioEtcItemPreSetPackage@@QAE@XZ ; ioEtcItemPreSetPackage::ioEtcItemPreSetPackage
  00d77	e9 32 08 00 00	 jmp	 $LN246@CreateEtcI
$LN91@CreateEtcI:

; 285  : 	else if( dwType == ioEtcItem::EIT_ETC_GROWTH_ALL_DOWN )

  00d7c	3d ed 48 0f 00	 cmp	 eax, 1001709		; 000f48edH
  00d81	75 29		 jne	 SHORT $LN89@CreateEtcI

; 286  : 		return new ioEtcItemGrowthAllDown;

  00d83	68 88 01 00 00	 push	 392			; 00000188H
  00d88	e8 00 00 00 00	 call	 ??2@YAPAXI@Z		; operator new
  00d8d	59		 pop	 ecx
  00d8e	8b c8		 mov	 ecx, eax
  00d90	89 4d 08	 mov	 DWORD PTR $T509770[ebp], ecx
  00d93	c7 45 fc 43 00
	00 00		 mov	 DWORD PTR __$EHRec$[ebp+8], 67 ; 00000043H
  00d9a	85 c9		 test	 ecx, ecx
  00d9c	0f 84 0a 08 00
	00		 je	 $LN282@CreateEtcI
  00da2	e8 00 00 00 00	 call	 ??0ioEtcItemGrowthAllDown@@QAE@XZ ; ioEtcItemGrowthAllDown::ioEtcItemGrowthAllDown
  00da7	e9 02 08 00 00	 jmp	 $LN246@CreateEtcI
$LN89@CreateEtcI:

; 287  : 	else if( COMPARE(dwType, ioEtcItem::EIT_ETC_PRIZE_ITEM1, ioEtcItem::EIT_ETC_PRIZE_ITEM200+1) )

  00dac	8d b0 11 b7 f0
	ff		 lea	 esi, DWORD PTR [eax-1001711]
  00db2	b9 c7 00 00 00	 mov	 ecx, 199		; 000000c7H
  00db7	3b f1		 cmp	 esi, ecx
  00db9	77 29		 ja	 SHORT $LN87@CreateEtcI

; 288  : 		return new ioEtcItemPrizeItem;

  00dbb	68 98 01 00 00	 push	 408			; 00000198H
  00dc0	e8 00 00 00 00	 call	 ??2@YAPAXI@Z		; operator new
  00dc5	59		 pop	 ecx
  00dc6	8b c8		 mov	 ecx, eax
  00dc8	89 4d 08	 mov	 DWORD PTR $T509774[ebp], ecx
  00dcb	c7 45 fc 44 00
	00 00		 mov	 DWORD PTR __$EHRec$[ebp+8], 68 ; 00000044H
  00dd2	85 c9		 test	 ecx, ecx
  00dd4	0f 84 d2 07 00
	00		 je	 $LN282@CreateEtcI
  00dda	e8 00 00 00 00	 call	 ??0ioEtcItemPrizeItem@@QAE@XZ ; ioEtcItemPrizeItem::ioEtcItemPrizeItem
  00ddf	e9 ca 07 00 00	 jmp	 $LN246@CreateEtcI
$LN87@CreateEtcI:

; 289  : 	else if( dwType == ioEtcItem::EIT_ETC_TOURNAMENT_CREATE )

  00de4	3d 37 ce 2d 00	 cmp	 eax, 3001911		; 002dce37H
  00de9	75 29		 jne	 SHORT $LN85@CreateEtcI

; 290  : 		return new ioEtcItemTournamentCreate;

  00deb	68 88 01 00 00	 push	 392			; 00000188H
  00df0	e8 00 00 00 00	 call	 ??2@YAPAXI@Z		; operator new
  00df5	59		 pop	 ecx
  00df6	8b c8		 mov	 ecx, eax
  00df8	89 4d 08	 mov	 DWORD PTR $T509778[ebp], ecx
  00dfb	c7 45 fc 45 00
	00 00		 mov	 DWORD PTR __$EHRec$[ebp+8], 69 ; 00000045H
  00e02	85 c9		 test	 ecx, ecx
  00e04	0f 84 a2 07 00
	00		 je	 $LN282@CreateEtcI
  00e0a	e8 00 00 00 00	 call	 ??0ioEtcItemTournamentCreate@@QAE@XZ ; ioEtcItemTournamentCreate::ioEtcItemTournamentCreate
  00e0f	e9 9a 07 00 00	 jmp	 $LN246@CreateEtcI
$LN85@CreateEtcI:

; 291  : 	else if( dwType == ioEtcItem::EIT_ETC_TOURNAMENT_PREMIUM_CREATE )

  00e14	3d 38 ce 2d 00	 cmp	 eax, 3001912		; 002dce38H
  00e19	75 29		 jne	 SHORT $LN83@CreateEtcI

; 292  : 		return new ioEtcItemTournamentPremiumCreate;

  00e1b	68 88 01 00 00	 push	 392			; 00000188H
  00e20	e8 00 00 00 00	 call	 ??2@YAPAXI@Z		; operator new
  00e25	59		 pop	 ecx
  00e26	8b c8		 mov	 ecx, eax
  00e28	89 4d 08	 mov	 DWORD PTR $T509782[ebp], ecx
  00e2b	c7 45 fc 46 00
	00 00		 mov	 DWORD PTR __$EHRec$[ebp+8], 70 ; 00000046H
  00e32	85 c9		 test	 ecx, ecx
  00e34	0f 84 72 07 00
	00		 je	 $LN282@CreateEtcI
  00e3a	e8 00 00 00 00	 call	 ??0ioEtcItemTournamentPremiumCreate@@QAE@XZ ; ioEtcItemTournamentPremiumCreate::ioEtcItemTournamentPremiumCreate
  00e3f	e9 6a 07 00 00	 jmp	 $LN246@CreateEtcI
$LN83@CreateEtcI:

; 293  : 	else if( dwType == ioEtcItem::EIT_ETC_CLOVER )

  00e44	3d b9 49 0f 00	 cmp	 eax, 1001913		; 000f49b9H
  00e49	75 29		 jne	 SHORT $LN81@CreateEtcI

; 294  : 		return new ioEtcItemClover;

  00e4b	68 88 01 00 00	 push	 392			; 00000188H
  00e50	e8 00 00 00 00	 call	 ??2@YAPAXI@Z		; operator new
  00e55	59		 pop	 ecx
  00e56	8b c8		 mov	 ecx, eax
  00e58	89 4d 08	 mov	 DWORD PTR $T509786[ebp], ecx
  00e5b	c7 45 fc 47 00
	00 00		 mov	 DWORD PTR __$EHRec$[ebp+8], 71 ; 00000047H
  00e62	85 c9		 test	 ecx, ecx
  00e64	0f 84 42 07 00
	00		 je	 $LN282@CreateEtcI
  00e6a	e8 00 00 00 00	 call	 ??0ioEtcItemClover@@QAE@XZ ; ioEtcItemClover::ioEtcItemClover
  00e6f	e9 3a 07 00 00	 jmp	 $LN246@CreateEtcI
$LN81@CreateEtcI:

; 295  : 	else if( COMPARE(dwType, ioEtcItem::EIT_ETC_ADD_CASH001, ioEtcItem::EIT_ETC_ADD_CASH100+1) )

  00e74	8d b0 cf ac b3
	ff		 lea	 esi, DWORD PTR [eax-5002033]
  00e7a	83 fe 63	 cmp	 esi, 99			; 00000063H
  00e7d	77 29		 ja	 SHORT $LN79@CreateEtcI

; 296  : 		return new ioEtcItemAddCash;

  00e7f	68 88 01 00 00	 push	 392			; 00000188H
  00e84	e8 00 00 00 00	 call	 ??2@YAPAXI@Z		; operator new
  00e89	59		 pop	 ecx
  00e8a	8b c8		 mov	 ecx, eax
  00e8c	89 4d 08	 mov	 DWORD PTR $T509790[ebp], ecx
  00e8f	c7 45 fc 48 00
	00 00		 mov	 DWORD PTR __$EHRec$[ebp+8], 72 ; 00000048H
  00e96	85 c9		 test	 ecx, ecx
  00e98	0f 84 0e 07 00
	00		 je	 $LN282@CreateEtcI
  00e9e	e8 00 00 00 00	 call	 ??0ioEtcItemAddCash@@QAE@XZ ; ioEtcItemAddCash::ioEtcItemAddCash
  00ea3	e9 06 07 00 00	 jmp	 $LN246@CreateEtcI
$LN79@CreateEtcI:

; 297  : 	else if( dwType == ioEtcItem::EIT_ETC_TOURNAMENT_COIN )

  00ea8	3d 95 4a 0f 00	 cmp	 eax, 1002133		; 000f4a95H
  00ead	75 29		 jne	 SHORT $LN77@CreateEtcI

; 298  : 		return new ioEtcItemTournamentCoin;

  00eaf	68 88 01 00 00	 push	 392			; 00000188H
  00eb4	e8 00 00 00 00	 call	 ??2@YAPAXI@Z		; operator new
  00eb9	59		 pop	 ecx
  00eba	8b c8		 mov	 ecx, eax
  00ebc	89 4d 08	 mov	 DWORD PTR $T509794[ebp], ecx
  00ebf	c7 45 fc 49 00
	00 00		 mov	 DWORD PTR __$EHRec$[ebp+8], 73 ; 00000049H
  00ec6	85 c9		 test	 ecx, ecx
  00ec8	0f 84 de 06 00
	00		 je	 $LN282@CreateEtcI
  00ece	e8 00 00 00 00	 call	 ??0ioEtcItemTournamentCoin@@QAE@XZ ; ioEtcItemTournamentCoin::ioEtcItemTournamentCoin
  00ed3	e9 d6 06 00 00	 jmp	 $LN246@CreateEtcI
$LN77@CreateEtcI:

; 299  : 	else if( dwType == ioEtcItem::EIT_ETC_ROULETTE_COIN )

  00ed8	3d 96 4a 0f 00	 cmp	 eax, 1002134		; 000f4a96H
  00edd	75 29		 jne	 SHORT $LN75@CreateEtcI

; 300  : 		return new ioEtcItemRouletteCoin;

  00edf	68 88 01 00 00	 push	 392			; 00000188H
  00ee4	e8 00 00 00 00	 call	 ??2@YAPAXI@Z		; operator new
  00ee9	59		 pop	 ecx
  00eea	8b c8		 mov	 ecx, eax
  00eec	89 4d 08	 mov	 DWORD PTR $T509798[ebp], ecx
  00eef	c7 45 fc 4a 00
	00 00		 mov	 DWORD PTR __$EHRec$[ebp+8], 74 ; 0000004aH
  00ef6	85 c9		 test	 ecx, ecx
  00ef8	0f 84 ae 06 00
	00		 je	 $LN282@CreateEtcI
  00efe	e8 00 00 00 00	 call	 ??0ioEtcItemRouletteCoin@@QAE@XZ ; ioEtcItemRouletteCoin::ioEtcItemRouletteCoin
  00f03	e9 a6 06 00 00	 jmp	 $LN246@CreateEtcI
$LN75@CreateEtcI:

; 301  : 	else if( dwType == ioEtcItem::EIT_ETC_BINGO_ITEM )

  00f08	3d 97 4a 0f 00	 cmp	 eax, 1002135		; 000f4a97H
  00f0d	75 29		 jne	 SHORT $LN73@CreateEtcI

; 302  : 		return new ioEtcItemBingoItem;

  00f0f	68 98 01 00 00	 push	 408			; 00000198H
  00f14	e8 00 00 00 00	 call	 ??2@YAPAXI@Z		; operator new
  00f19	59		 pop	 ecx
  00f1a	8b c8		 mov	 ecx, eax
  00f1c	89 4d 08	 mov	 DWORD PTR $T509802[ebp], ecx
  00f1f	c7 45 fc 4b 00
	00 00		 mov	 DWORD PTR __$EHRec$[ebp+8], 75 ; 0000004bH
  00f26	85 c9		 test	 ecx, ecx
  00f28	0f 84 7e 06 00
	00		 je	 $LN282@CreateEtcI
  00f2e	e8 00 00 00 00	 call	 ??0ioEtcItemBingoItem@@QAE@XZ ; ioEtcItemBingoItem::ioEtcItemBingoItem
  00f33	e9 76 06 00 00	 jmp	 $LN246@CreateEtcI
$LN73@CreateEtcI:

; 303  : 	else if( dwType == ioEtcItem::EIT_ETC_BINGO_NUMBER_GASHAPON )

  00f38	3d 98 4a 0f 00	 cmp	 eax, 1002136		; 000f4a98H
  00f3d	75 29		 jne	 SHORT $LN71@CreateEtcI

; 304  : 		return new ioEtcItemBingoNumberGashapon;

  00f3f	68 88 01 00 00	 push	 392			; 00000188H
  00f44	e8 00 00 00 00	 call	 ??2@YAPAXI@Z		; operator new
  00f49	59		 pop	 ecx
  00f4a	8b c8		 mov	 ecx, eax
  00f4c	89 4d 08	 mov	 DWORD PTR $T509806[ebp], ecx
  00f4f	c7 45 fc 4c 00
	00 00		 mov	 DWORD PTR __$EHRec$[ebp+8], 76 ; 0000004cH
  00f56	85 c9		 test	 ecx, ecx
  00f58	0f 84 4e 06 00
	00		 je	 $LN282@CreateEtcI
  00f5e	e8 00 00 00 00	 call	 ??0ioEtcItemBingoNumberGashapon@@QAE@XZ ; ioEtcItemBingoNumberGashapon::ioEtcItemBingoNumberGashapon
  00f63	e9 46 06 00 00	 jmp	 $LN246@CreateEtcI
$LN71@CreateEtcI:

; 305  : 	else if( dwType == ioEtcItem::EIT_ETC_BINGO_SHUFFLE_NUMBER )

  00f68	3d 99 4a 0f 00	 cmp	 eax, 1002137		; 000f4a99H
  00f6d	75 29		 jne	 SHORT $LN69@CreateEtcI

; 306  : 		return new ioEtcItemBingoShuffleNumber;

  00f6f	68 88 01 00 00	 push	 392			; 00000188H
  00f74	e8 00 00 00 00	 call	 ??2@YAPAXI@Z		; operator new
  00f79	59		 pop	 ecx
  00f7a	8b c8		 mov	 ecx, eax
  00f7c	89 4d 08	 mov	 DWORD PTR $T509810[ebp], ecx
  00f7f	c7 45 fc 4d 00
	00 00		 mov	 DWORD PTR __$EHRec$[ebp+8], 77 ; 0000004dH
  00f86	85 c9		 test	 ecx, ecx
  00f88	0f 84 1e 06 00
	00		 je	 $LN282@CreateEtcI
  00f8e	e8 00 00 00 00	 call	 ??0ioEtcItemBingoShuffleNumber@@QAE@XZ ; ioEtcItemBingoShuffleNumber::ioEtcItemBingoShuffleNumber
  00f93	e9 16 06 00 00	 jmp	 $LN246@CreateEtcI
$LN69@CreateEtcI:

; 307  : 	else if( dwType == ioEtcItem::EIT_ETC_BINGO_SHUFFLE_REWARD_ITEM )

  00f98	3d 9a 4a 0f 00	 cmp	 eax, 1002138		; 000f4a9aH
  00f9d	75 29		 jne	 SHORT $LN67@CreateEtcI

; 308  : 		return new ioEtcItemBingoShuffleRewardItem;

  00f9f	68 88 01 00 00	 push	 392			; 00000188H
  00fa4	e8 00 00 00 00	 call	 ??2@YAPAXI@Z		; operator new
  00fa9	59		 pop	 ecx
  00faa	8b c8		 mov	 ecx, eax
  00fac	89 4d 08	 mov	 DWORD PTR $T509814[ebp], ecx
  00faf	c7 45 fc 4e 00
	00 00		 mov	 DWORD PTR __$EHRec$[ebp+8], 78 ; 0000004eH
  00fb6	85 c9		 test	 ecx, ecx
  00fb8	0f 84 ee 05 00
	00		 je	 $LN282@CreateEtcI
  00fbe	e8 00 00 00 00	 call	 ??0ioEtcItemBingoShuffleRewardItem@@QAE@XZ ; ioEtcItemBingoShuffleRewardItem::ioEtcItemBingoShuffleRewardItem
  00fc3	e9 e6 05 00 00	 jmp	 $LN246@CreateEtcI
$LN67@CreateEtcI:

; 309  : 	else if( dwType == ioEtcItem::EIT_ETC_BINGO_RANDOM_NUMBER_CLEAR )

  00fc8	3d 9b 4a 0f 00	 cmp	 eax, 1002139		; 000f4a9bH
  00fcd	75 29		 jne	 SHORT $LN65@CreateEtcI

; 310  : 		return new ioEtcItemBingoRandomNumberClear;

  00fcf	68 88 01 00 00	 push	 392			; 00000188H
  00fd4	e8 00 00 00 00	 call	 ??2@YAPAXI@Z		; operator new
  00fd9	59		 pop	 ecx
  00fda	8b c8		 mov	 ecx, eax
  00fdc	89 4d 08	 mov	 DWORD PTR $T509818[ebp], ecx
  00fdf	c7 45 fc 4f 00
	00 00		 mov	 DWORD PTR __$EHRec$[ebp+8], 79 ; 0000004fH
  00fe6	85 c9		 test	 ecx, ecx
  00fe8	0f 84 be 05 00
	00		 je	 $LN282@CreateEtcI
  00fee	e8 00 00 00 00	 call	 ??0ioEtcItemBingoRandomNumberClear@@QAE@XZ ; ioEtcItemBingoRandomNumberClear::ioEtcItemBingoRandomNumberClear
  00ff3	e9 b6 05 00 00	 jmp	 $LN246@CreateEtcI
$LN65@CreateEtcI:

; 311  : 	else if( COMPARE( dwType, ioEtcItem::EIT_ETC_SUPER_GASHAPON1,	ioEtcItem::EIT_ETC_SUPER_GASHAPON200 + 1  ) || 
; 312  : 			 COMPARE( dwType, ioEtcItem::EIT_ETC_SUPER_GASHAPON201,	ioEtcItem::EIT_ETC_SUPER_GASHAPON500 + 1  ) || 
; 313  : 			 COMPARE( dwType, ioEtcItem::EIT_ETC_SUPER_GASHAPON501,	ioEtcItem::EIT_ETC_SUPER_GASHAPON800 + 1  ) ||
; 314  : 			 COMPARE( dwType, ioEtcItem::EIT_ETC_SUPER_GASHAPON801,	ioEtcItem::EIT_ETC_SUPER_GASHAPON1000 + 1 ) )

  00ff8	3d f6 4a 0f 00	 cmp	 eax, 1002230		; 000f4af6H
  00ffd	72 04		 jb	 SHORT $LN61@CreateEtcI
  00fff	3b c2		 cmp	 eax, edx
  01001	72 26		 jb	 SHORT $LN62@CreateEtcI
$LN61@CreateEtcI:
  01003	3d 15 57 0f 00	 cmp	 eax, 1005333		; 000f5715H
  01008	72 07		 jb	 SHORT $LN60@CreateEtcI
  0100a	3d 41 58 0f 00	 cmp	 eax, 1005633		; 000f5841H
  0100f	72 18		 jb	 SHORT $LN62@CreateEtcI
$LN60@CreateEtcI:
  01011	3d 43 58 0f 00	 cmp	 eax, 1005635		; 000f5843H
  01016	72 07		 jb	 SHORT $LN59@CreateEtcI
  01018	3d 6f 59 0f 00	 cmp	 eax, 1005935		; 000f596fH
  0101d	72 0a		 jb	 SHORT $LN62@CreateEtcI
$LN59@CreateEtcI:
  0101f	8d 90 5d 9c f0
	ff		 lea	 edx, DWORD PTR [eax-1008547]
  01025	3b d1		 cmp	 edx, ecx
  01027	77 29		 ja	 SHORT $LN63@CreateEtcI
$LN62@CreateEtcI:

; 315  : 		return new ioEtcItemSuperGashapon;

  01029	68 8c 01 00 00	 push	 396			; 0000018cH
  0102e	e8 00 00 00 00	 call	 ??2@YAPAXI@Z		; operator new
  01033	59		 pop	 ecx
  01034	8b c8		 mov	 ecx, eax
  01036	89 4d 08	 mov	 DWORD PTR $T509822[ebp], ecx
  01039	c7 45 fc 50 00
	00 00		 mov	 DWORD PTR __$EHRec$[ebp+8], 80 ; 00000050H
  01040	85 c9		 test	 ecx, ecx
  01042	0f 84 64 05 00
	00		 je	 $LN282@CreateEtcI
  01048	e8 00 00 00 00	 call	 ??0ioEtcItemSuperGashapon@@QAE@XZ ; ioEtcItemSuperGashapon::ioEtcItemSuperGashapon
  0104d	e9 5c 05 00 00	 jmp	 $LN246@CreateEtcI
$LN63@CreateEtcI:

; 316  : 	else if( COMPARE( dwType, ioEtcItem::EIT_ETC_ITEM_SEND_PRESENT_1, ioEtcItem::EIT_ETC_ITEM_SEND_PRESENT_100 + 1 ) )

  01052	6a 63		 push	 99			; 00000063H
  01054	8d 90 de b3 f0
	ff		 lea	 edx, DWORD PTR [eax-1002530]
  0105a	5e		 pop	 esi
  0105b	3b d6		 cmp	 edx, esi
  0105d	77 29		 ja	 SHORT $LN57@CreateEtcI

; 317  : 		return new ioEtcItemSendPresent;

  0105f	68 98 01 00 00	 push	 408			; 00000198H
  01064	e8 00 00 00 00	 call	 ??2@YAPAXI@Z		; operator new
  01069	59		 pop	 ecx
  0106a	8b c8		 mov	 ecx, eax
  0106c	89 4d 08	 mov	 DWORD PTR $T509826[ebp], ecx
  0106f	c7 45 fc 51 00
	00 00		 mov	 DWORD PTR __$EHRec$[ebp+8], 81 ; 00000051H
  01076	85 c9		 test	 ecx, ecx
  01078	0f 84 2e 05 00
	00		 je	 $LN282@CreateEtcI
  0107e	e8 00 00 00 00	 call	 ??0ioEtcItemSendPresent@@QAE@XZ ; ioEtcItemSendPresent::ioEtcItemSendPresent
  01083	e9 26 05 00 00	 jmp	 $LN246@CreateEtcI
$LN57@CreateEtcI:

; 318  : 	else if( COMPARE( dwType, ioEtcItem::EIT_ETC_SOLDIER_EXP_ADD_001, ioEtcItem::EIT_ETC_SOLDIER_EXP_ADD_200+1 ) )

  01088	8d 90 3e 2c d2
	ff		 lea	 edx, DWORD PTR [eax-3003330]
  0108e	3b d1		 cmp	 edx, ecx
  01090	77 29		 ja	 SHORT $LN55@CreateEtcI

; 319  : 		return new ioEtcItemSoldierExpAdd;

  01092	68 88 01 00 00	 push	 392			; 00000188H
  01097	e8 00 00 00 00	 call	 ??2@YAPAXI@Z		; operator new
  0109c	59		 pop	 ecx
  0109d	8b c8		 mov	 ecx, eax
  0109f	89 4d 08	 mov	 DWORD PTR $T509830[ebp], ecx
  010a2	c7 45 fc 52 00
	00 00		 mov	 DWORD PTR __$EHRec$[ebp+8], 82 ; 00000052H
  010a9	85 c9		 test	 ecx, ecx
  010ab	0f 84 fb 04 00
	00		 je	 $LN282@CreateEtcI
  010b1	e8 00 00 00 00	 call	 ??0ioEtcItemSoldierExpAdd@@QAE@XZ ; ioEtcItemSoldierExpAdd::ioEtcItemSoldierExpAdd
  010b6	e9 f3 04 00 00	 jmp	 $LN246@CreateEtcI
$LN55@CreateEtcI:

; 320  : 	else if( COMPARE( dwType, ioEtcItem::EIT_ETC_ITEM_RECHARGE_1, ioEtcItem::EIT_ETC_ITEM_RECHARGE_100 + 1 ) )

  010bb	8d 90 7a b3 f0
	ff		 lea	 edx, DWORD PTR [eax-1002630]
  010c1	3b d6		 cmp	 edx, esi
  010c3	77 29		 ja	 SHORT $LN53@CreateEtcI

; 321  : 		return new ioEtcItemRecharge;

  010c5	68 c8 01 00 00	 push	 456			; 000001c8H
  010ca	e8 00 00 00 00	 call	 ??2@YAPAXI@Z		; operator new
  010cf	59		 pop	 ecx
  010d0	8b c8		 mov	 ecx, eax
  010d2	89 4d 08	 mov	 DWORD PTR $T509834[ebp], ecx
  010d5	c7 45 fc 53 00
	00 00		 mov	 DWORD PTR __$EHRec$[ebp+8], 83 ; 00000053H
  010dc	85 c9		 test	 ecx, ecx
  010de	0f 84 c8 04 00
	00		 je	 $LN282@CreateEtcI
  010e4	e8 00 00 00 00	 call	 ??0ioEtcItemRecharge@@QAE@XZ ; ioEtcItemRecharge::ioEtcItemRecharge
  010e9	e9 c0 04 00 00	 jmp	 $LN246@CreateEtcI
$LN53@CreateEtcI:

; 322  : 	else if( COMPARE( dwType, ioEtcItem::EIT_ETC_ITEM_TIME_GASHAPON101, ioEtcItem::EIT_ETC_ITEM_TIME_GASHAPON300 + 1 ) )

  010ee	8d 90 ca a5 b3
	ff		 lea	 edx, DWORD PTR [eax-5003830]
  010f4	3b d1		 cmp	 edx, ecx
  010f6	77 1c		 ja	 SHORT $LN51@CreateEtcI

; 323  : 		return new ioEtcItemTimeGashapon;

  010f8	68 d4 01 00 00	 push	 468			; 000001d4H
  010fd	e8 00 00 00 00	 call	 ??2@YAPAXI@Z		; operator new
  01102	59		 pop	 ecx
  01103	8b c8		 mov	 ecx, eax
  01105	89 4d 08	 mov	 DWORD PTR $T509838[ebp], ecx
  01108	c7 45 fc 54 00
	00 00		 mov	 DWORD PTR __$EHRec$[ebp+8], 84 ; 00000054H
  0110f	e9 a7 fa ff ff	 jmp	 $LN599@CreateEtcI
$LN51@CreateEtcI:

; 324  : 	else if( COMPARE( dwType, ioEtcItem::EIT_ETC_ITEM_TIME_GASHAPON301, ioEtcItem::EIT_ETC_ITEM_TIME_GASHAPON600 + 1 ) )

  01114	8d 88 65 9c b3
	ff		 lea	 ecx, DWORD PTR [eax-5006235]
  0111a	3b cb		 cmp	 ecx, ebx
  0111c	77 1c		 ja	 SHORT $LN49@CreateEtcI

; 325  : 		return new ioEtcItemTimeGashapon;

  0111e	68 d4 01 00 00	 push	 468			; 000001d4H
  01123	e8 00 00 00 00	 call	 ??2@YAPAXI@Z		; operator new
  01128	59		 pop	 ecx
  01129	8b c8		 mov	 ecx, eax
  0112b	89 4d 08	 mov	 DWORD PTR $T509842[ebp], ecx
  0112e	c7 45 fc 55 00
	00 00		 mov	 DWORD PTR __$EHRec$[ebp+8], 85 ; 00000055H
  01135	e9 81 fa ff ff	 jmp	 $LN599@CreateEtcI
$LN49@CreateEtcI:

; 326  : 	else if( COMPARE( dwType, ioEtcItem::EIT_ETC_SELECT_EXTRA_GASHAPON02, ioEtcItem::EIT_ETC_SELECT_EXTRA_GASHAPON51 + 1 ) )

  0113a	3d e2 d6 2d 00	 cmp	 eax, 3004130		; 002dd6e2H
  0113f	72 23		 jb	 SHORT $LN47@CreateEtcI
  01141	3d 14 d7 2d 00	 cmp	 eax, 3004180		; 002dd714H
  01146	73 23		 jae	 SHORT $LN592@CreateEtcI

; 327  : 		return new ioEtcItemSelectExtraGashapon;

  01148	68 bc 01 00 00	 push	 444			; 000001bcH
  0114d	e8 00 00 00 00	 call	 ??2@YAPAXI@Z		; operator new
  01152	59		 pop	 ecx
  01153	8b c8		 mov	 ecx, eax
  01155	89 4d 08	 mov	 DWORD PTR $T509846[ebp], ecx
  01158	c7 45 fc 56 00
	00 00		 mov	 DWORD PTR __$EHRec$[ebp+8], 86 ; 00000056H
  0115f	e9 d2 fb ff ff	 jmp	 $LN600@CreateEtcI
$LN47@CreateEtcI:

; 328  : 	else if( COMPARE( dwType, ioEtcItem::EIT_ETC_SELECT_GASHAPON001, ioEtcItem::EIT_ETC_SELECT_GASHAPON300 + 1 ) )

  01164	3d 14 d7 2d 00	 cmp	 eax, 3004180		; 002dd714H
  01169	72 30		 jb	 SHORT $LN45@CreateEtcI
$LN592@CreateEtcI:
  0116b	3d 40 d8 2d 00	 cmp	 eax, 3004480		; 002dd840H
  01170	73 29		 jae	 SHORT $LN45@CreateEtcI

; 329  : 		return new ioSelectGashapon;

  01172	68 c8 01 00 00	 push	 456			; 000001c8H
  01177	e8 00 00 00 00	 call	 ??2@YAPAXI@Z		; operator new
  0117c	59		 pop	 ecx
  0117d	8b c8		 mov	 ecx, eax
  0117f	89 4d 08	 mov	 DWORD PTR $T509850[ebp], ecx
  01182	c7 45 fc 57 00
	00 00		 mov	 DWORD PTR __$EHRec$[ebp+8], 87 ; 00000057H
  01189	85 c9		 test	 ecx, ecx
  0118b	0f 84 1b 04 00
	00		 je	 $LN282@CreateEtcI
  01191	e8 00 00 00 00	 call	 ??0ioSelectGashapon@@QAE@XZ ; ioSelectGashapon::ioSelectGashapon
  01196	e9 13 04 00 00	 jmp	 $LN246@CreateEtcI
$LN45@CreateEtcI:

; 330  : 	else if( COMPARE( dwType, ioEtcItem::EIT_ETC_FIXED_BINGO_NUMBER001, ioEtcItem::EIT_ETC_FIXED_BINGO_NUMBER400 + 1 ) )

  0119b	b9 e6 55 0f 00	 mov	 ecx, 1005030		; 000f55e6H
  011a0	3d c0 53 0f 00	 cmp	 eax, 1004480		; 000f53c0H
  011a5	72 30		 jb	 SHORT $LN43@CreateEtcI
  011a7	3d 50 55 0f 00	 cmp	 eax, 1004880		; 000f5550H
  011ac	73 30		 jae	 SHORT $LN591@CreateEtcI

; 331  : 		return new ioEtcItemFixedBingoNumber;

  011ae	68 88 01 00 00	 push	 392			; 00000188H
  011b3	e8 00 00 00 00	 call	 ??2@YAPAXI@Z		; operator new
  011b8	59		 pop	 ecx
  011b9	8b c8		 mov	 ecx, eax
  011bb	89 4d 08	 mov	 DWORD PTR $T509854[ebp], ecx
  011be	c7 45 fc 58 00
	00 00		 mov	 DWORD PTR __$EHRec$[ebp+8], 88 ; 00000058H
  011c5	85 c9		 test	 ecx, ecx
  011c7	0f 84 df 03 00
	00		 je	 $LN282@CreateEtcI
  011cd	e8 00 00 00 00	 call	 ??0ioEtcItemFixedBingoNumber@@QAE@XZ ; ioEtcItemFixedBingoNumber::ioEtcItemFixedBingoNumber
  011d2	e9 d7 03 00 00	 jmp	 $LN246@CreateEtcI
$LN43@CreateEtcI:

; 332  : 	else if( COMPARE( dwType, ioEtcItem::EIT_ETC_MATERIAL_COMPOUND_001, ioEtcItem::EIT_ETC_MATERIAL_COMPOUND_050+1 ) )

  011d7	3d 50 55 0f 00	 cmp	 eax, 1004880		; 000f5550H
  011dc	72 30		 jb	 SHORT $LN41@CreateEtcI
$LN591@CreateEtcI:
  011de	3d 82 55 0f 00	 cmp	 eax, 1004930		; 000f5582H
  011e3	73 30		 jae	 SHORT $LN590@CreateEtcI

; 333  : 		return new ioEtcItemMaterialCompound;

  011e5	68 88 01 00 00	 push	 392			; 00000188H
  011ea	e8 00 00 00 00	 call	 ??2@YAPAXI@Z		; operator new
  011ef	59		 pop	 ecx
  011f0	8b c8		 mov	 ecx, eax
  011f2	89 4d 08	 mov	 DWORD PTR $T509858[ebp], ecx
  011f5	c7 45 fc 59 00
	00 00		 mov	 DWORD PTR __$EHRec$[ebp+8], 89 ; 00000059H
  011fc	85 c9		 test	 ecx, ecx
  011fe	0f 84 a8 03 00
	00		 je	 $LN282@CreateEtcI
  01204	e8 00 00 00 00	 call	 ??0ioEtcItemMaterialCompound@@QAE@XZ ; ioEtcItemMaterialCompound::ioEtcItemMaterialCompound
  01209	e9 a0 03 00 00	 jmp	 $LN246@CreateEtcI
$LN41@CreateEtcI:

; 334  : 	else if( COMPARE( dwType, ioEtcItem::EIT_ETC_PET_EGG_001, ioEtcItem::EIT_ETC_PET_EGG_100+1 ) )

  0120e	3d 82 55 0f 00	 cmp	 eax, 1004930		; 000f5582H
  01213	72 2d		 jb	 SHORT $LN39@CreateEtcI
$LN590@CreateEtcI:
  01215	3b c1		 cmp	 eax, ecx
  01217	73 2b		 jae	 SHORT $LN596@CreateEtcI

; 335  : 		return new ioEtcItemPetEgg;

  01219	68 88 01 00 00	 push	 392			; 00000188H
  0121e	e8 00 00 00 00	 call	 ??2@YAPAXI@Z		; operator new
  01223	59		 pop	 ecx
  01224	8b c8		 mov	 ecx, eax
  01226	89 4d 08	 mov	 DWORD PTR $T509862[ebp], ecx
  01229	c7 45 fc 5a 00
	00 00		 mov	 DWORD PTR __$EHRec$[ebp+8], 90 ; 0000005aH
  01230	85 c9		 test	 ecx, ecx
  01232	0f 84 74 03 00
	00		 je	 $LN282@CreateEtcI
  01238	e8 00 00 00 00	 call	 ??0ioEtcItemPetEgg@@QAE@XZ ; ioEtcItemPetEgg::ioEtcItemPetEgg
  0123d	e9 6c 03 00 00	 jmp	 $LN246@CreateEtcI
$LN39@CreateEtcI:

; 336  : 	else if ( dwType == ioEtcItem::EIT_ETC_RAINBOW_WHOLE_CHAT )

  01242	3b c1		 cmp	 eax, ecx
$LN596@CreateEtcI:
  01244	75 1c		 jne	 SHORT $LN37@CreateEtcI

; 337  : 		return new ioEtcItemWholeChat;

  01246	68 88 01 00 00	 push	 392			; 00000188H
  0124b	e8 00 00 00 00	 call	 ??2@YAPAXI@Z		; operator new
  01250	59		 pop	 ecx
  01251	8b c8		 mov	 ecx, eax
  01253	89 4d 08	 mov	 DWORD PTR $T509866[ebp], ecx
  01256	c7 45 fc 5b 00
	00 00		 mov	 DWORD PTR __$EHRec$[ebp+8], 91 ; 0000005bH
  0125d	e9 c8 ed ff ff	 jmp	 $LN597@CreateEtcI
$LN37@CreateEtcI:

; 338  : 	else if( dwType == ioEtcItem::EIT_ETC_SOUL_STONE )

  01262	3d e7 55 0f 00	 cmp	 eax, 1005031		; 000f55e7H
  01267	75 29		 jne	 SHORT $LN35@CreateEtcI

; 339  : 		return new ioEtcItemSoulStone;

  01269	68 88 01 00 00	 push	 392			; 00000188H
  0126e	e8 00 00 00 00	 call	 ??2@YAPAXI@Z		; operator new
  01273	59		 pop	 ecx
  01274	8b c8		 mov	 ecx, eax
  01276	89 4d 08	 mov	 DWORD PTR $T509870[ebp], ecx
  01279	c7 45 fc 5c 00
	00 00		 mov	 DWORD PTR __$EHRec$[ebp+8], 92 ; 0000005cH
  01280	85 c9		 test	 ecx, ecx
  01282	0f 84 24 03 00
	00		 je	 $LN282@CreateEtcI
  01288	e8 00 00 00 00	 call	 ??0ioEtcItemSoulStone@@QAE@XZ ; ioEtcItemSoulStone::ioEtcItemSoulStone
  0128d	e9 1c 03 00 00	 jmp	 $LN246@CreateEtcI
$LN35@CreateEtcI:

; 340  : 	else if( dwType == ioEtcItem::EIT_ETC_CUSTOM_COSTUME_SKIN )

  01292	3d e8 55 0f 00	 cmp	 eax, 1005032		; 000f55e8H
  01297	75 29		 jne	 SHORT $LN33@CreateEtcI

; 341  : 		return new ioEtcCostumeCustomItemSkin;

  01299	68 88 01 00 00	 push	 392			; 00000188H
  0129e	e8 00 00 00 00	 call	 ??2@YAPAXI@Z		; operator new
  012a3	59		 pop	 ecx
  012a4	8b c8		 mov	 ecx, eax
  012a6	89 4d 08	 mov	 DWORD PTR $T509874[ebp], ecx
  012a9	c7 45 fc 5d 00
	00 00		 mov	 DWORD PTR __$EHRec$[ebp+8], 93 ; 0000005dH
  012b0	85 c9		 test	 ecx, ecx
  012b2	0f 84 f4 02 00
	00		 je	 $LN282@CreateEtcI
  012b8	e8 00 00 00 00	 call	 ??0ioEtcCostumeCustomItemSkin@@QAE@XZ ; ioEtcCostumeCustomItemSkin::ioEtcCostumeCustomItemSkin
  012bd	e9 ec 02 00 00	 jmp	 $LN246@CreateEtcI
$LN33@CreateEtcI:

; 342  : 	else if( dwType == ioEtcItem::EIT_ETC_EXTRAITEM_SLOT_EXTEND )

  012c2	3d 02 1f 3d 00	 cmp	 eax, 4005634		; 003d1f02H
  012c7	75 29		 jne	 SHORT $LN31@CreateEtcI

; 343  : 		return new ioEtcItemExtraItemSlotExtend;

  012c9	68 88 01 00 00	 push	 392			; 00000188H
  012ce	e8 00 00 00 00	 call	 ??2@YAPAXI@Z		; operator new
  012d3	59		 pop	 ecx
  012d4	8b c8		 mov	 ecx, eax
  012d6	89 4d 08	 mov	 DWORD PTR $T509878[ebp], ecx
  012d9	c7 45 fc 5e 00
	00 00		 mov	 DWORD PTR __$EHRec$[ebp+8], 94 ; 0000005eH
  012e0	85 c9		 test	 ecx, ecx
  012e2	0f 84 c4 02 00
	00		 je	 $LN282@CreateEtcI
  012e8	e8 00 00 00 00	 call	 ??0ioEtcItemExtraItemSlotExtend@@QAE@XZ ; ioEtcItemExtraItemSlotExtend::ioEtcItemExtraItemSlotExtend
  012ed	e9 bc 02 00 00	 jmp	 $LN246@CreateEtcI
$LN31@CreateEtcI:

; 344  : 	else if( COMPARE( dwType, ioEtcItem::EIT_ETC_NEW_MULTIPLE_COMPOUND001, ioEtcItem::EIT_ETC_NEW_MULTIPLE_COMPOUND010 + 1 ) || 
; 345  : 			 COMPARE( dwType, ioEtcItem::EIT_ETC_NEW_MULTIPLE_COMPOUND011, ioEtcItem::EIT_ETC_NEW_MULTIPLE_COMPOUND060 + 1 ) )

  012f2	3d c7 5b 0f 00	 cmp	 eax, 1006535		; 000f5bc7H
  012f7	72 07		 jb	 SHORT $LN27@CreateEtcI
  012f9	3d d1 5b 0f 00	 cmp	 eax, 1006545		; 000f5bd1H
  012fe	72 0b		 jb	 SHORT $LN28@CreateEtcI
$LN27@CreateEtcI:
  01300	8d 88 bd 93 f0
	ff		 lea	 ecx, DWORD PTR [eax-1010755]
  01306	83 f9 31	 cmp	 ecx, 49			; 00000031H
  01309	77 29		 ja	 SHORT $LN29@CreateEtcI
$LN28@CreateEtcI:

; 346  : 		return new ioEtcItemNewMultipleCompound;

  0130b	68 a0 01 00 00	 push	 416			; 000001a0H
  01310	e8 00 00 00 00	 call	 ??2@YAPAXI@Z		; operator new
  01315	59		 pop	 ecx
  01316	8b c8		 mov	 ecx, eax
  01318	89 4d 08	 mov	 DWORD PTR $T509882[ebp], ecx
  0131b	c7 45 fc 5f 00
	00 00		 mov	 DWORD PTR __$EHRec$[ebp+8], 95 ; 0000005fH
  01322	85 c9		 test	 ecx, ecx
  01324	0f 84 82 02 00
	00		 je	 $LN282@CreateEtcI
  0132a	e8 00 00 00 00	 call	 ??0ioEtcItemNewMultipleCompound@@QAE@XZ ; ioEtcItemNewMultipleCompound::ioEtcItemNewMultipleCompound
  0132f	e9 7a 02 00 00	 jmp	 $LN246@CreateEtcI
$LN29@CreateEtcI:

; 347  : 	else if( COMPARE( dwType, ioEtcItem::EIT_ETC_GUILD_HOUSING_BLOCK_0001, ioEtcItem::EIT_ETC_GUILD_HOUSING_BLOCK_1000 + 1 ) )

  01334	8d 90 2f a4 f0
	ff		 lea	 edx, DWORD PTR [eax-1006545]
  0133a	b9 e7 03 00 00	 mov	 ecx, 999		; 000003e7H
  0133f	3b d1		 cmp	 edx, ecx
  01341	77 29		 ja	 SHORT $LN25@CreateEtcI

; 348  : 		return new ioEtcItemHousingBlockItem;

  01343	68 9c 01 00 00	 push	 412			; 0000019cH
  01348	e8 00 00 00 00	 call	 ??2@YAPAXI@Z		; operator new
  0134d	59		 pop	 ecx
  0134e	8b c8		 mov	 ecx, eax
  01350	89 4d 08	 mov	 DWORD PTR $T509886[ebp], ecx
  01353	c7 45 fc 60 00
	00 00		 mov	 DWORD PTR __$EHRec$[ebp+8], 96 ; 00000060H
$LN601@CreateEtcI:
  0135a	85 c9		 test	 ecx, ecx
  0135c	0f 84 4a 02 00
	00		 je	 $LN282@CreateEtcI
  01362	e8 00 00 00 00	 call	 ??0ioEtcItemHousingBlockItem@@QAE@XZ ; ioEtcItemHousingBlockItem::ioEtcItemHousingBlockItem
  01367	e9 42 02 00 00	 jmp	 $LN246@CreateEtcI
$LN25@CreateEtcI:

; 349  : 	else if( dwType == ioEtcItem::EIT_ETC_CREATE_GUILD_HQ )

  0136c	3d 39 e4 2d 00	 cmp	 eax, 3007545		; 002de439H
  01371	75 29		 jne	 SHORT $LN23@CreateEtcI

; 350  : 		return new ioEtcItemCreateGuildHQCreate;

  01373	68 88 01 00 00	 push	 392			; 00000188H
  01378	e8 00 00 00 00	 call	 ??2@YAPAXI@Z		; operator new
  0137d	59		 pop	 ecx
  0137e	8b c8		 mov	 ecx, eax
  01380	89 4d 08	 mov	 DWORD PTR $T509890[ebp], ecx
  01383	c7 45 fc 61 00
	00 00		 mov	 DWORD PTR __$EHRec$[ebp+8], 97 ; 00000061H
  0138a	85 c9		 test	 ecx, ecx
  0138c	0f 84 1a 02 00
	00		 je	 $LN282@CreateEtcI
  01392	e8 00 00 00 00	 call	 ??0ioEtcItemCreateGuildHQCreate@@QAE@XZ ; ioEtcItemCreateGuildHQCreate::ioEtcItemCreateGuildHQCreate
  01397	e9 12 02 00 00	 jmp	 $LN246@CreateEtcI
$LN23@CreateEtcI:

; 351  : 	else if( COMPARE( dwType, ioEtcItem::EIT_ETC_HOME_HOUSING_BLOCK_0001, ioEtcItem::EIT_ETC_HOME_HOUSING_BLOCK_1000 + 1 ) )

  0139c	8d 90 46 a0 f0
	ff		 lea	 edx, DWORD PTR [eax-1007546]
  013a2	3b d1		 cmp	 edx, ecx
  013a4	77 19		 ja	 SHORT $LN21@CreateEtcI

; 352  : 		return new ioEtcItemHousingBlockItem;

  013a6	68 9c 01 00 00	 push	 412			; 0000019cH
  013ab	e8 00 00 00 00	 call	 ??2@YAPAXI@Z		; operator new
  013b0	59		 pop	 ecx
  013b1	8b c8		 mov	 ecx, eax
  013b3	89 4d 08	 mov	 DWORD PTR $T509894[ebp], ecx
  013b6	c7 45 fc 62 00
	00 00		 mov	 DWORD PTR __$EHRec$[ebp+8], 98 ; 00000062H
  013bd	eb 9b		 jmp	 SHORT $LN601@CreateEtcI
$LN21@CreateEtcI:

; 353  : 	else if( dwType == ioEtcItem::EIT_ETC_CREATE_HOME )

  013bf	3d a2 6c 4c 00	 cmp	 eax, 5008546		; 004c6ca2H
  013c4	75 25		 jne	 SHORT $LN19@CreateEtcI

; 354  : 		return new ioEtcItemCreateMyHomeCreate;

  013c6	68 88 01 00 00	 push	 392			; 00000188H
  013cb	e8 00 00 00 00	 call	 ??2@YAPAXI@Z		; operator new
  013d0	59		 pop	 ecx
  013d1	8b c8		 mov	 ecx, eax
  013d3	89 4d 08	 mov	 DWORD PTR $T509898[ebp], ecx
  013d6	89 75 fc	 mov	 DWORD PTR __$EHRec$[ebp+8], esi
  013d9	85 c9		 test	 ecx, ecx
  013db	0f 84 cb 01 00
	00		 je	 $LN282@CreateEtcI
  013e1	e8 00 00 00 00	 call	 ??0ioEtcItemCreateMyHomeCreate@@QAE@XZ ; ioEtcItemCreateMyHomeCreate::ioEtcItemCreateMyHomeCreate
  013e6	e9 c3 01 00 00	 jmp	 $LN246@CreateEtcI
$LN19@CreateEtcI:

; 355  : 	else if( COMPARE( dwType, ioEtcItem::EIT_ETC_NAMEDTITLE_0001, ioEtcItem::EIT_ETC_NAMEDTITLE_1000+1 ) )

  013eb	8d 90 95 9b f0
	ff		 lea	 edx, DWORD PTR [eax-1008747]
  013f1	3b d1		 cmp	 edx, ecx
  013f3	77 29		 ja	 SHORT $LN17@CreateEtcI

; 356  : 		return new ioEtcItemNamedTitle;

  013f5	68 88 01 00 00	 push	 392			; 00000188H
  013fa	e8 00 00 00 00	 call	 ??2@YAPAXI@Z		; operator new
  013ff	59		 pop	 ecx
  01400	8b c8		 mov	 ecx, eax
  01402	89 4d 08	 mov	 DWORD PTR $T509902[ebp], ecx
  01405	c7 45 fc 64 00
	00 00		 mov	 DWORD PTR __$EHRec$[ebp+8], 100 ; 00000064H
  0140c	85 c9		 test	 ecx, ecx
  0140e	0f 84 98 01 00
	00		 je	 $LN282@CreateEtcI
  01414	e8 00 00 00 00	 call	 ??0ioEtcItemNamedTitle@@QAE@XZ ; ioEtcItemNamedTitle::ioEtcItemNamedTitle
  01419	e9 90 01 00 00	 jmp	 $LN246@CreateEtcI
$LN17@CreateEtcI:

; 357  : 	else if( dwType == ioEtcItem::EIT_ETC_NAMEDTITLE_PREMIUM )

  0141e	3d 53 68 0f 00	 cmp	 eax, 1009747		; 000f6853H
  01423	75 29		 jne	 SHORT $LN15@CreateEtcI

; 358  : 		return new ioEtcItemNamedTitlePremium;

  01425	68 88 01 00 00	 push	 392			; 00000188H
  0142a	e8 00 00 00 00	 call	 ??2@YAPAXI@Z		; operator new
  0142f	59		 pop	 ecx
  01430	8b c8		 mov	 ecx, eax
  01432	89 4d 08	 mov	 DWORD PTR $T509906[ebp], ecx
  01435	c7 45 fc 65 00
	00 00		 mov	 DWORD PTR __$EHRec$[ebp+8], 101 ; 00000065H
  0143c	85 c9		 test	 ecx, ecx
  0143e	0f 84 68 01 00
	00		 je	 $LN282@CreateEtcI
  01444	e8 00 00 00 00	 call	 ??0ioEtcItemNamedTitlePremium@@QAE@XZ ; ioEtcItemNamedTitlePremium::ioEtcItemNamedTitlePremium
  01449	e9 60 01 00 00	 jmp	 $LN246@CreateEtcI
$LN15@CreateEtcI:

; 359  : 	else if( dwType == ioEtcItem::EIT_ETC_TIME_CASH )

  0144e	3d 54 71 4c 00	 cmp	 eax, 5009748		; 004c7154H
  01453	75 29		 jne	 SHORT $LN13@CreateEtcI

; 360  : 		return new ioEtcItemTimeCash;

  01455	68 88 01 00 00	 push	 392			; 00000188H
  0145a	e8 00 00 00 00	 call	 ??2@YAPAXI@Z		; operator new
  0145f	59		 pop	 ecx
  01460	8b c8		 mov	 ecx, eax
  01462	89 4d 08	 mov	 DWORD PTR $T509910[ebp], ecx
  01465	c7 45 fc 66 00
	00 00		 mov	 DWORD PTR __$EHRec$[ebp+8], 102 ; 00000066H
  0146c	85 c9		 test	 ecx, ecx
  0146e	0f 84 38 01 00
	00		 je	 $LN282@CreateEtcI
  01474	e8 00 00 00 00	 call	 ??0ioEtcItemTimeCash@@QAE@XZ ; ioEtcItemTimeCash::ioEtcItemTimeCash
  01479	e9 30 01 00 00	 jmp	 $LN246@CreateEtcI
$LN13@CreateEtcI:

; 361  : 	else if( dwType == ioEtcItem::EIT_ETC_OAK_DRUM_ITEM )

  0147e	3d 55 68 0f 00	 cmp	 eax, 1009749		; 000f6855H
  01483	75 29		 jne	 SHORT $LN11@CreateEtcI

; 362  : 		return new ioEtcItemOakDrumItem;

  01485	68 88 01 00 00	 push	 392			; 00000188H
  0148a	e8 00 00 00 00	 call	 ??2@YAPAXI@Z		; operator new
  0148f	59		 pop	 ecx
  01490	8b c8		 mov	 ecx, eax
  01492	89 4d 08	 mov	 DWORD PTR $T509914[ebp], ecx
  01495	c7 45 fc 67 00
	00 00		 mov	 DWORD PTR __$EHRec$[ebp+8], 103 ; 00000067H
  0149c	85 c9		 test	 ecx, ecx
  0149e	0f 84 08 01 00
	00		 je	 $LN282@CreateEtcI
  014a4	e8 00 00 00 00	 call	 ??0ioEtcItemOakDrumItem@@QAE@XZ ; ioEtcItemOakDrumItem::ioEtcItemOakDrumItem
  014a9	e9 00 01 00 00	 jmp	 $LN246@CreateEtcI
$LN11@CreateEtcI:

; 363  : 	else if( COMPARE( dwType, ioEtcItem::EIT_ETC_OAK_WOOD_SWORD, ioEtcItem::EIT_ETC_OAK_GOLD_SWORD + 1 ) )

  014ae	8d 88 aa 97 f0
	ff		 lea	 ecx, DWORD PTR [eax-1009750]
  014b4	83 f9 02	 cmp	 ecx, 2
  014b7	77 29		 ja	 SHORT $LN9@CreateEtcI

; 364  : 		return new ioEtcItemOakSwordItem;

  014b9	68 88 01 00 00	 push	 392			; 00000188H
  014be	e8 00 00 00 00	 call	 ??2@YAPAXI@Z		; operator new
  014c3	59		 pop	 ecx
  014c4	8b c8		 mov	 ecx, eax
  014c6	89 4d 08	 mov	 DWORD PTR $T509918[ebp], ecx
  014c9	c7 45 fc 68 00
	00 00		 mov	 DWORD PTR __$EHRec$[ebp+8], 104 ; 00000068H
  014d0	85 c9		 test	 ecx, ecx
  014d2	0f 84 d4 00 00
	00		 je	 $LN282@CreateEtcI
  014d8	e8 00 00 00 00	 call	 ??0ioEtcItemOakSwordItem@@QAE@XZ ; ioEtcItemOakSwordItem::ioEtcItemOakSwordItem
  014dd	e9 cc 00 00 00	 jmp	 $LN246@CreateEtcI
$LN9@CreateEtcI:

; 365  : 	else if( dwType == ioEtcItem::EIT_ETC_PCROOM_FISHING_ROD )

  014e2	3d 01 33 3d 00	 cmp	 eax, 4010753		; 003d3301H
  014e7	75 29		 jne	 SHORT $LN7@CreateEtcI

; 366  : 		return new ioEtcItemPCRoomFishingRod;

  014e9	68 88 01 00 00	 push	 392			; 00000188H
  014ee	e8 00 00 00 00	 call	 ??2@YAPAXI@Z		; operator new
  014f3	59		 pop	 ecx
  014f4	8b c8		 mov	 ecx, eax
  014f6	89 4d 08	 mov	 DWORD PTR $T509922[ebp], ecx
  014f9	c7 45 fc 69 00
	00 00		 mov	 DWORD PTR __$EHRec$[ebp+8], 105 ; 00000069H
  01500	85 c9		 test	 ecx, ecx
  01502	0f 84 a4 00 00
	00		 je	 $LN282@CreateEtcI
  01508	e8 00 00 00 00	 call	 ??0ioEtcItemPCRoomFishingRod@@QAE@XZ ; ioEtcItemPCRoomFishingRod::ioEtcItemPCRoomFishingRod
  0150d	e9 9c 00 00 00	 jmp	 $LN246@CreateEtcI
$LN7@CreateEtcI:

; 367  : 	else if( dwType == ioEtcItem::EIT_ETC_PCROOM_FISHING_BAIT )

  01512	3d 02 33 3d 00	 cmp	 eax, 4010754		; 003d3302H
  01517	75 22		 jne	 SHORT $LN5@CreateEtcI

; 368  : 		return new ioEtcItemPCRoomFishingBait;

  01519	68 88 01 00 00	 push	 392			; 00000188H
  0151e	e8 00 00 00 00	 call	 ??2@YAPAXI@Z		; operator new
  01523	59		 pop	 ecx
  01524	8b c8		 mov	 ecx, eax
  01526	89 4d 08	 mov	 DWORD PTR $T509926[ebp], ecx
  01529	c7 45 fc 6a 00
	00 00		 mov	 DWORD PTR __$EHRec$[ebp+8], 106 ; 0000006aH
  01530	85 c9		 test	 ecx, ecx
  01532	74 78		 je	 SHORT $LN282@CreateEtcI
  01534	e8 00 00 00 00	 call	 ??0ioEtcItemPCRoomFishingBait@@QAE@XZ ; ioEtcItemPCRoomFishingBait::ioEtcItemPCRoomFishingBait
  01539	eb 73		 jmp	 SHORT $LN246@CreateEtcI
$LN5@CreateEtcI:

; 369  : 	else if( dwType == ioEtcItem::EIT_ETC_RAID_COIN )

  0153b	3d 75 6c 0f 00	 cmp	 eax, 1010805		; 000f6c75H
  01540	75 22		 jne	 SHORT $LN3@CreateEtcI

; 370  : 		return new ioEtcItemRaidCoin;

  01542	68 88 01 00 00	 push	 392			; 00000188H
  01547	e8 00 00 00 00	 call	 ??2@YAPAXI@Z		; operator new
  0154c	59		 pop	 ecx
  0154d	8b c8		 mov	 ecx, eax
  0154f	89 4d 08	 mov	 DWORD PTR $T509930[ebp], ecx
  01552	c7 45 fc 6b 00
	00 00		 mov	 DWORD PTR __$EHRec$[ebp+8], 107 ; 0000006bH
  01559	85 c9		 test	 ecx, ecx
  0155b	74 4f		 je	 SHORT $LN282@CreateEtcI
  0155d	e8 00 00 00 00	 call	 ??0ioEtcItemRaidCoin@@QAE@XZ ; ioEtcItemRaidCoin::ioEtcItemRaidCoin
  01562	eb 4a		 jmp	 SHORT $LN246@CreateEtcI
$LN3@CreateEtcI:

; 371  : 
; 372  : 	else if( COMPARE(dwType, ioEtcItem::EIT_ETC_RISING_GASHAPON_001, ioEtcItem::EIT_ETC_RISING_GASHAPON_MAX+1 ) )

  01564	8d 88 b7 25 d2
	ff		 lea	 ecx, DWORD PTR [eax-3005001]
  0156a	3b ce		 cmp	 ecx, esi
  0156c	77 22		 ja	 SHORT $LN1@CreateEtcI

; 373  : 		return new ioRisingGashapon;

  0156e	68 e8 01 00 00	 push	 488			; 000001e8H
  01573	e8 00 00 00 00	 call	 ??2@YAPAXI@Z		; operator new
  01578	59		 pop	 ecx
  01579	8b c8		 mov	 ecx, eax
  0157b	89 4d 08	 mov	 DWORD PTR $T509934[ebp], ecx
  0157e	c7 45 fc 6c 00
	00 00		 mov	 DWORD PTR __$EHRec$[ebp+8], 108 ; 0000006cH
  01585	85 c9		 test	 ecx, ecx
  01587	74 23		 je	 SHORT $LN282@CreateEtcI
  01589	e8 00 00 00 00	 call	 ??0ioRisingGashapon@@QAE@XZ ; ioRisingGashapon::ioRisingGashapon
  0158e	eb 1e		 jmp	 SHORT $LN246@CreateEtcI
$LN1@CreateEtcI:

; 374  : 
; 375  : 	LOG.PrintTimeAndLog( 0, "%s UNKOWN ETCITEM TYPE :%d", __FUNCTION__, dwType );

  01590	50		 push	 eax
  01591	68 00 00 00 00	 push	 OFFSET ??_C@_0CA@JJCAFAKL@ioEtcItemManager?3?3CreateEtcItem?$AA@
  01596	68 00 00 00 00	 push	 OFFSET ??_C@_0BL@CECMDOEB@?$CFs?5UNKOWN?5ETCITEM?5TYPE?5?3?$CFd?$AA@
  0159b	6a 00		 push	 0
  0159d	ff 35 00 00 00
	00		 push	 DWORD PTR __imp_?LOG@@3VCLog@@A
  015a3	ff 15 00 00 00
	00		 call	 DWORD PTR __imp_?PrintTimeAndLog@CLog@@QAAXHPADZZ
  015a9	83 c4 14	 add	 esp, 20			; 00000014H
$LN282@CreateEtcI:

; 167  : 		return new ioEtcItemSoldierPackage;

  015ac	33 c0		 xor	 eax, eax
$LN246@CreateEtcI:

; 376  : 	return NULL;
; 377  : }

  015ae	e8 00 00 00 00	 call	 __EH_epilog3
  015b3	c2 04 00	 ret	 4
$LN107@CreateEtcI:

; 268  : 		return new ioEtcItemGoldBox;

  015b6	68 bc 01 00 00	 push	 444			; 000001bcH
  015bb	e8 00 00 00 00	 call	 ??2@YAPAXI@Z		; operator new
  015c0	59		 pop	 ecx
  015c1	8b c8		 mov	 ecx, eax
  015c3	89 4d 08	 mov	 DWORD PTR $T509734[ebp], ecx
  015c6	c7 45 fc 3a 00
	00 00		 mov	 DWORD PTR __$EHRec$[ebp+8], 58 ; 0000003aH
  015cd	85 c9		 test	 ecx, ecx
  015cf	74 db		 je	 SHORT $LN282@CreateEtcI
  015d1	e8 00 00 00 00	 call	 ??0ioEtcItemGoldBox@@QAE@XZ ; ioEtcItemGoldBox::ioEtcItemGoldBox
  015d6	eb d6		 jmp	 SHORT $LN246@CreateEtcI
$LN164@CreateEtcI:

; 215  : 		return new ioEtcItemExcavatingKit;

  015d8	68 88 01 00 00	 push	 392			; 00000188H
  015dd	e8 00 00 00 00	 call	 ??2@YAPAXI@Z		; operator new
  015e2	59		 pop	 ecx
  015e3	8b c8		 mov	 ecx, eax
  015e5	89 4d 08	 mov	 DWORD PTR $T509642[ebp], ecx
  015e8	c7 45 fc 23 00
	00 00		 mov	 DWORD PTR __$EHRec$[ebp+8], 35 ; 00000023H
  015ef	85 c9		 test	 ecx, ecx
  015f1	74 b9		 je	 SHORT $LN282@CreateEtcI
  015f3	e8 00 00 00 00	 call	 ??0ioEtcItemExcavatingKit@@QAE@XZ ; ioEtcItemExcavatingKit::ioEtcItemExcavatingKit
  015f8	eb b4		 jmp	 SHORT $LN246@CreateEtcI
$LN188@CreateEtcI:

; 194  : 		return new ioEtcItemPackage;

  015fa	68 88 01 00 00	 push	 392			; 00000188H
  015ff	e8 00 00 00 00	 call	 ??2@YAPAXI@Z		; operator new
  01604	59		 pop	 ecx
  01605	8b c8		 mov	 ecx, eax
  01607	89 4d 08	 mov	 DWORD PTR $T509602[ebp], ecx
  0160a	c7 45 fc 19 00
	00 00		 mov	 DWORD PTR __$EHRec$[ebp+8], 25 ; 00000019H
  01611	85 c9		 test	 ecx, ecx
  01613	74 97		 je	 SHORT $LN282@CreateEtcI
  01615	e8 00 00 00 00	 call	 ??0ioEtcItemPackage@@QAE@XZ ; ioEtcItemPackage::ioEtcItemPackage
  0161a	eb 92		 jmp	 SHORT $LN246@CreateEtcI
$LN195@CreateEtcI:

; 186  : 		return new ioEtcItemGashapon;

  0161c	68 b8 01 00 00	 push	 440			; 000001b8H
  01621	e8 00 00 00 00	 call	 ??2@YAPAXI@Z		; operator new
  01626	59		 pop	 ecx
  01627	8b c8		 mov	 ecx, eax
  01629	89 4d 08	 mov	 DWORD PTR $T509598[ebp], ecx
  0162c	c7 45 fc 18 00
	00 00		 mov	 DWORD PTR __$EHRec$[ebp+8], 24 ; 00000018H
  01633	85 c9		 test	 ecx, ecx
  01635	0f 84 71 ff ff
	ff		 je	 $LN282@CreateEtcI
  0163b	e8 00 00 00 00	 call	 ??0ioEtcItemGashapon@@QAE@XZ ; ioEtcItemGashapon::ioEtcItemGashapon
  01640	e9 69 ff ff ff	 jmp	 $LN246@CreateEtcI
$LN210@CreateEtcI:

; 167  : 		return new ioEtcItemSoldierPackage;

  01645	68 a0 01 00 00	 push	 416			; 000001a0H
  0164a	e8 00 00 00 00	 call	 ??2@YAPAXI@Z		; operator new
  0164f	59		 pop	 ecx
  01650	8b c8		 mov	 ecx, eax
  01652	89 4d 08	 mov	 DWORD PTR $T509570[ebp], ecx
  01655	c7 45 fc 11 00
	00 00		 mov	 DWORD PTR __$EHRec$[ebp+8], 17 ; 00000011H
  0165c	85 c9		 test	 ecx, ecx
  0165e	0f 84 48 ff ff
	ff		 je	 $LN282@CreateEtcI
  01664	e8 00 00 00 00	 call	 ??0ioEtcItemSoldierPackage@@QAE@XZ ; ioEtcItemSoldierPackage::ioEtcItemSoldierPackage
  01669	e9 40 ff ff ff	 jmp	 $LN246@CreateEtcI
_TEXT	ENDS
;	COMDAT text$x
text$x	SEGMENT
__unwindfunclet$?CreateEtcItem@ioEtcItemManager@@IAEPAVioEtcItem@@K@Z$0:
  00000	ff 75 08	 push	 DWORD PTR $T509502[ebp]
  00003	e8 00 00 00 00	 call	 ??3@YAXPAX@Z		; operator delete
  00008	59		 pop	 ecx
  00009	c3		 ret	 0
__unwindfunclet$?CreateEtcItem@ioEtcItemManager@@IAEPAVioEtcItem@@K@Z$1:
  0000a	ff 75 08	 push	 DWORD PTR $T509506[ebp]
  0000d	e8 00 00 00 00	 call	 ??3@YAXPAX@Z		; operator delete
  00012	59		 pop	 ecx
  00013	c3		 ret	 0
__unwindfunclet$?CreateEtcItem@ioEtcItemManager@@IAEPAVioEtcItem@@K@Z$2:
  00014	ff 75 08	 push	 DWORD PTR $T509510[ebp]
  00017	e8 00 00 00 00	 call	 ??3@YAXPAX@Z		; operator delete
  0001c	59		 pop	 ecx
  0001d	c3		 ret	 0
__unwindfunclet$?CreateEtcItem@ioEtcItemManager@@IAEPAVioEtcItem@@K@Z$3:
  0001e	ff 75 08	 push	 DWORD PTR $T509514[ebp]
  00021	e8 00 00 00 00	 call	 ??3@YAXPAX@Z		; operator delete
  00026	59		 pop	 ecx
  00027	c3		 ret	 0
__unwindfunclet$?CreateEtcItem@ioEtcItemManager@@IAEPAVioEtcItem@@K@Z$4:
  00028	ff 75 08	 push	 DWORD PTR $T509518[ebp]
  0002b	e8 00 00 00 00	 call	 ??3@YAXPAX@Z		; operator delete
  00030	59		 pop	 ecx
  00031	c3		 ret	 0
__unwindfunclet$?CreateEtcItem@ioEtcItemManager@@IAEPAVioEtcItem@@K@Z$5:
  00032	ff 75 08	 push	 DWORD PTR $T509522[ebp]
  00035	e8 00 00 00 00	 call	 ??3@YAXPAX@Z		; operator delete
  0003a	59		 pop	 ecx
  0003b	c3		 ret	 0
__unwindfunclet$?CreateEtcItem@ioEtcItemManager@@IAEPAVioEtcItem@@K@Z$6:
  0003c	ff 75 08	 push	 DWORD PTR $T509526[ebp]
  0003f	e8 00 00 00 00	 call	 ??3@YAXPAX@Z		; operator delete
  00044	59		 pop	 ecx
  00045	c3		 ret	 0
__unwindfunclet$?CreateEtcItem@ioEtcItemManager@@IAEPAVioEtcItem@@K@Z$7:
  00046	ff 75 08	 push	 DWORD PTR $T509530[ebp]
  00049	e8 00 00 00 00	 call	 ??3@YAXPAX@Z		; operator delete
  0004e	59		 pop	 ecx
  0004f	c3		 ret	 0
__unwindfunclet$?CreateEtcItem@ioEtcItemManager@@IAEPAVioEtcItem@@K@Z$8:
  00050	ff 75 08	 push	 DWORD PTR $T509534[ebp]
  00053	e8 00 00 00 00	 call	 ??3@YAXPAX@Z		; operator delete
  00058	59		 pop	 ecx
  00059	c3		 ret	 0
__unwindfunclet$?CreateEtcItem@ioEtcItemManager@@IAEPAVioEtcItem@@K@Z$9:
  0005a	ff 75 08	 push	 DWORD PTR $T509538[ebp]
  0005d	e8 00 00 00 00	 call	 ??3@YAXPAX@Z		; operator delete
  00062	59		 pop	 ecx
  00063	c3		 ret	 0
__unwindfunclet$?CreateEtcItem@ioEtcItemManager@@IAEPAVioEtcItem@@K@Z$10:
  00064	ff 75 08	 push	 DWORD PTR $T509542[ebp]
  00067	e8 00 00 00 00	 call	 ??3@YAXPAX@Z		; operator delete
  0006c	59		 pop	 ecx
  0006d	c3		 ret	 0
__unwindfunclet$?CreateEtcItem@ioEtcItemManager@@IAEPAVioEtcItem@@K@Z$11:
  0006e	ff 75 08	 push	 DWORD PTR $T509546[ebp]
  00071	e8 00 00 00 00	 call	 ??3@YAXPAX@Z		; operator delete
  00076	59		 pop	 ecx
  00077	c3		 ret	 0
__unwindfunclet$?CreateEtcItem@ioEtcItemManager@@IAEPAVioEtcItem@@K@Z$12:
  00078	ff 75 08	 push	 DWORD PTR $T509550[ebp]
  0007b	e8 00 00 00 00	 call	 ??3@YAXPAX@Z		; operator delete
  00080	59		 pop	 ecx
  00081	c3		 ret	 0
__unwindfunclet$?CreateEtcItem@ioEtcItemManager@@IAEPAVioEtcItem@@K@Z$13:
  00082	ff 75 08	 push	 DWORD PTR $T509554[ebp]
  00085	e8 00 00 00 00	 call	 ??3@YAXPAX@Z		; operator delete
  0008a	59		 pop	 ecx
  0008b	c3		 ret	 0
__unwindfunclet$?CreateEtcItem@ioEtcItemManager@@IAEPAVioEtcItem@@K@Z$14:
  0008c	ff 75 08	 push	 DWORD PTR $T509558[ebp]
  0008f	e8 00 00 00 00	 call	 ??3@YAXPAX@Z		; operator delete
  00094	59		 pop	 ecx
  00095	c3		 ret	 0
__unwindfunclet$?CreateEtcItem@ioEtcItemManager@@IAEPAVioEtcItem@@K@Z$15:
  00096	ff 75 08	 push	 DWORD PTR $T509562[ebp]
  00099	e8 00 00 00 00	 call	 ??3@YAXPAX@Z		; operator delete
  0009e	59		 pop	 ecx
  0009f	c3		 ret	 0
__unwindfunclet$?CreateEtcItem@ioEtcItemManager@@IAEPAVioEtcItem@@K@Z$16:
  000a0	ff 75 08	 push	 DWORD PTR $T509566[ebp]
  000a3	e8 00 00 00 00	 call	 ??3@YAXPAX@Z		; operator delete
  000a8	59		 pop	 ecx
  000a9	c3		 ret	 0
__unwindfunclet$?CreateEtcItem@ioEtcItemManager@@IAEPAVioEtcItem@@K@Z$18:
  000aa	ff 75 08	 push	 DWORD PTR $T509574[ebp]
  000ad	e8 00 00 00 00	 call	 ??3@YAXPAX@Z		; operator delete
  000b2	59		 pop	 ecx
  000b3	c3		 ret	 0
__unwindfunclet$?CreateEtcItem@ioEtcItemManager@@IAEPAVioEtcItem@@K@Z$19:
  000b4	ff 75 08	 push	 DWORD PTR $T509578[ebp]
  000b7	e8 00 00 00 00	 call	 ??3@YAXPAX@Z		; operator delete
  000bc	59		 pop	 ecx
  000bd	c3		 ret	 0
__unwindfunclet$?CreateEtcItem@ioEtcItemManager@@IAEPAVioEtcItem@@K@Z$20:
  000be	ff 75 08	 push	 DWORD PTR $T509582[ebp]
  000c1	e8 00 00 00 00	 call	 ??3@YAXPAX@Z		; operator delete
  000c6	59		 pop	 ecx
  000c7	c3		 ret	 0
__unwindfunclet$?CreateEtcItem@ioEtcItemManager@@IAEPAVioEtcItem@@K@Z$21:
  000c8	ff 75 08	 push	 DWORD PTR $T509586[ebp]
  000cb	e8 00 00 00 00	 call	 ??3@YAXPAX@Z		; operator delete
  000d0	59		 pop	 ecx
  000d1	c3		 ret	 0
__unwindfunclet$?CreateEtcItem@ioEtcItemManager@@IAEPAVioEtcItem@@K@Z$22:
  000d2	ff 75 08	 push	 DWORD PTR $T509590[ebp]
  000d5	e8 00 00 00 00	 call	 ??3@YAXPAX@Z		; operator delete
  000da	59		 pop	 ecx
  000db	c3		 ret	 0
__unwindfunclet$?CreateEtcItem@ioEtcItemManager@@IAEPAVioEtcItem@@K@Z$23:
  000dc	ff 75 08	 push	 DWORD PTR $T509594[ebp]
  000df	e8 00 00 00 00	 call	 ??3@YAXPAX@Z		; operator delete
  000e4	59		 pop	 ecx
  000e5	c3		 ret	 0
__unwindfunclet$?CreateEtcItem@ioEtcItemManager@@IAEPAVioEtcItem@@K@Z$26:
  000e6	ff 75 08	 push	 DWORD PTR $T509606[ebp]
  000e9	e8 00 00 00 00	 call	 ??3@YAXPAX@Z		; operator delete
  000ee	59		 pop	 ecx
  000ef	c3		 ret	 0
__unwindfunclet$?CreateEtcItem@ioEtcItemManager@@IAEPAVioEtcItem@@K@Z$27:
  000f0	ff 75 08	 push	 DWORD PTR $T509610[ebp]
  000f3	e8 00 00 00 00	 call	 ??3@YAXPAX@Z		; operator delete
  000f8	59		 pop	 ecx
  000f9	c3		 ret	 0
__unwindfunclet$?CreateEtcItem@ioEtcItemManager@@IAEPAVioEtcItem@@K@Z$28:
  000fa	ff 75 08	 push	 DWORD PTR $T509614[ebp]
  000fd	e8 00 00 00 00	 call	 ??3@YAXPAX@Z		; operator delete
  00102	59		 pop	 ecx
  00103	c3		 ret	 0
__unwindfunclet$?CreateEtcItem@ioEtcItemManager@@IAEPAVioEtcItem@@K@Z$29:
  00104	ff 75 08	 push	 DWORD PTR $T509618[ebp]
  00107	e8 00 00 00 00	 call	 ??3@YAXPAX@Z		; operator delete
  0010c	59		 pop	 ecx
  0010d	c3		 ret	 0
__unwindfunclet$?CreateEtcItem@ioEtcItemManager@@IAEPAVioEtcItem@@K@Z$30:
  0010e	ff 75 08	 push	 DWORD PTR $T509622[ebp]
  00111	e8 00 00 00 00	 call	 ??3@YAXPAX@Z		; operator delete
  00116	59		 pop	 ecx
  00117	c3		 ret	 0
__unwindfunclet$?CreateEtcItem@ioEtcItemManager@@IAEPAVioEtcItem@@K@Z$31:
  00118	ff 75 08	 push	 DWORD PTR $T509626[ebp]
  0011b	e8 00 00 00 00	 call	 ??3@YAXPAX@Z		; operator delete
  00120	59		 pop	 ecx
  00121	c3		 ret	 0
__unwindfunclet$?CreateEtcItem@ioEtcItemManager@@IAEPAVioEtcItem@@K@Z$32:
  00122	ff 75 08	 push	 DWORD PTR $T509630[ebp]
  00125	e8 00 00 00 00	 call	 ??3@YAXPAX@Z		; operator delete
  0012a	59		 pop	 ecx
  0012b	c3		 ret	 0
__unwindfunclet$?CreateEtcItem@ioEtcItemManager@@IAEPAVioEtcItem@@K@Z$33:
  0012c	ff 75 08	 push	 DWORD PTR $T509634[ebp]
  0012f	e8 00 00 00 00	 call	 ??3@YAXPAX@Z		; operator delete
  00134	59		 pop	 ecx
  00135	c3		 ret	 0
__unwindfunclet$?CreateEtcItem@ioEtcItemManager@@IAEPAVioEtcItem@@K@Z$34:
  00136	ff 75 08	 push	 DWORD PTR $T509638[ebp]
  00139	e8 00 00 00 00	 call	 ??3@YAXPAX@Z		; operator delete
  0013e	59		 pop	 ecx
  0013f	c3		 ret	 0
__unwindfunclet$?CreateEtcItem@ioEtcItemManager@@IAEPAVioEtcItem@@K@Z$36:
  00140	ff 75 08	 push	 DWORD PTR $T509646[ebp]
  00143	e8 00 00 00 00	 call	 ??3@YAXPAX@Z		; operator delete
  00148	59		 pop	 ecx
  00149	c3		 ret	 0
__unwindfunclet$?CreateEtcItem@ioEtcItemManager@@IAEPAVioEtcItem@@K@Z$37:
  0014a	ff 75 08	 push	 DWORD PTR $T509650[ebp]
  0014d	e8 00 00 00 00	 call	 ??3@YAXPAX@Z		; operator delete
  00152	59		 pop	 ecx
  00153	c3		 ret	 0
__unwindfunclet$?CreateEtcItem@ioEtcItemManager@@IAEPAVioEtcItem@@K@Z$38:
  00154	ff 75 08	 push	 DWORD PTR $T509654[ebp]
  00157	e8 00 00 00 00	 call	 ??3@YAXPAX@Z		; operator delete
  0015c	59		 pop	 ecx
  0015d	c3		 ret	 0
__unwindfunclet$?CreateEtcItem@ioEtcItemManager@@IAEPAVioEtcItem@@K@Z$39:
  0015e	ff 75 08	 push	 DWORD PTR $T509658[ebp]
  00161	e8 00 00 00 00	 call	 ??3@YAXPAX@Z		; operator delete
  00166	59		 pop	 ecx
  00167	c3		 ret	 0
__unwindfunclet$?CreateEtcItem@ioEtcItemManager@@IAEPAVioEtcItem@@K@Z$40:
  00168	ff 75 08	 push	 DWORD PTR $T509662[ebp]
  0016b	e8 00 00 00 00	 call	 ??3@YAXPAX@Z		; operator delete
  00170	59		 pop	 ecx
  00171	c3		 ret	 0
__unwindfunclet$?CreateEtcItem@ioEtcItemManager@@IAEPAVioEtcItem@@K@Z$41:
  00172	ff 75 08	 push	 DWORD PTR $T509666[ebp]
  00175	e8 00 00 00 00	 call	 ??3@YAXPAX@Z		; operator delete
  0017a	59		 pop	 ecx
  0017b	c3		 ret	 0
__unwindfunclet$?CreateEtcItem@ioEtcItemManager@@IAEPAVioEtcItem@@K@Z$42:
  0017c	ff 75 08	 push	 DWORD PTR $T509670[ebp]
  0017f	e8 00 00 00 00	 call	 ??3@YAXPAX@Z		; operator delete
  00184	59		 pop	 ecx
  00185	c3		 ret	 0
__unwindfunclet$?CreateEtcItem@ioEtcItemManager@@IAEPAVioEtcItem@@K@Z$43:
  00186	ff 75 08	 push	 DWORD PTR $T509674[ebp]
  00189	e8 00 00 00 00	 call	 ??3@YAXPAX@Z		; operator delete
  0018e	59		 pop	 ecx
  0018f	c3		 ret	 0
__unwindfunclet$?CreateEtcItem@ioEtcItemManager@@IAEPAVioEtcItem@@K@Z$44:
  00190	ff 75 08	 push	 DWORD PTR $T509678[ebp]
  00193	e8 00 00 00 00	 call	 ??3@YAXPAX@Z		; operator delete
  00198	59		 pop	 ecx
  00199	c3		 ret	 0
__unwindfunclet$?CreateEtcItem@ioEtcItemManager@@IAEPAVioEtcItem@@K@Z$45:
  0019a	ff 75 08	 push	 DWORD PTR $T509682[ebp]
  0019d	e8 00 00 00 00	 call	 ??3@YAXPAX@Z		; operator delete
  001a2	59		 pop	 ecx
  001a3	c3		 ret	 0
__unwindfunclet$?CreateEtcItem@ioEtcItemManager@@IAEPAVioEtcItem@@K@Z$46:
  001a4	ff 75 08	 push	 DWORD PTR $T509686[ebp]
  001a7	e8 00 00 00 00	 call	 ??3@YAXPAX@Z		; operator delete
  001ac	59		 pop	 ecx
  001ad	c3		 ret	 0
__unwindfunclet$?CreateEtcItem@ioEtcItemManager@@IAEPAVioEtcItem@@K@Z$47:
  001ae	ff 75 08	 push	 DWORD PTR $T509690[ebp]
  001b1	e8 00 00 00 00	 call	 ??3@YAXPAX@Z		; operator delete
  001b6	59		 pop	 ecx
  001b7	c3		 ret	 0
__unwindfunclet$?CreateEtcItem@ioEtcItemManager@@IAEPAVioEtcItem@@K@Z$48:
  001b8	ff 75 08	 push	 DWORD PTR $T509694[ebp]
  001bb	e8 00 00 00 00	 call	 ??3@YAXPAX@Z		; operator delete
  001c0	59		 pop	 ecx
  001c1	c3		 ret	 0
__unwindfunclet$?CreateEtcItem@ioEtcItemManager@@IAEPAVioEtcItem@@K@Z$49:
  001c2	ff 75 08	 push	 DWORD PTR $T509698[ebp]
  001c5	e8 00 00 00 00	 call	 ??3@YAXPAX@Z		; operator delete
  001ca	59		 pop	 ecx
  001cb	c3		 ret	 0
__unwindfunclet$?CreateEtcItem@ioEtcItemManager@@IAEPAVioEtcItem@@K@Z$50:
  001cc	ff 75 08	 push	 DWORD PTR $T509702[ebp]
  001cf	e8 00 00 00 00	 call	 ??3@YAXPAX@Z		; operator delete
  001d4	59		 pop	 ecx
  001d5	c3		 ret	 0
__unwindfunclet$?CreateEtcItem@ioEtcItemManager@@IAEPAVioEtcItem@@K@Z$51:
  001d6	ff 75 08	 push	 DWORD PTR $T509706[ebp]
  001d9	e8 00 00 00 00	 call	 ??3@YAXPAX@Z		; operator delete
  001de	59		 pop	 ecx
  001df	c3		 ret	 0
__unwindfunclet$?CreateEtcItem@ioEtcItemManager@@IAEPAVioEtcItem@@K@Z$52:
  001e0	ff 75 08	 push	 DWORD PTR $T509710[ebp]
  001e3	e8 00 00 00 00	 call	 ??3@YAXPAX@Z		; operator delete
  001e8	59		 pop	 ecx
  001e9	c3		 ret	 0
__unwindfunclet$?CreateEtcItem@ioEtcItemManager@@IAEPAVioEtcItem@@K@Z$53:
  001ea	ff 75 08	 push	 DWORD PTR $T509714[ebp]
  001ed	e8 00 00 00 00	 call	 ??3@YAXPAX@Z		; operator delete
  001f2	59		 pop	 ecx
  001f3	c3		 ret	 0
__unwindfunclet$?CreateEtcItem@ioEtcItemManager@@IAEPAVioEtcItem@@K@Z$54:
  001f4	ff 75 08	 push	 DWORD PTR $T509718[ebp]
  001f7	e8 00 00 00 00	 call	 ??3@YAXPAX@Z		; operator delete
  001fc	59		 pop	 ecx
  001fd	c3		 ret	 0
__unwindfunclet$?CreateEtcItem@ioEtcItemManager@@IAEPAVioEtcItem@@K@Z$55:
  001fe	ff 75 08	 push	 DWORD PTR $T509722[ebp]
  00201	e8 00 00 00 00	 call	 ??3@YAXPAX@Z		; operator delete
  00206	59		 pop	 ecx
  00207	c3		 ret	 0
__unwindfunclet$?CreateEtcItem@ioEtcItemManager@@IAEPAVioEtcItem@@K@Z$56:
  00208	ff 75 08	 push	 DWORD PTR $T509726[ebp]
  0020b	e8 00 00 00 00	 call	 ??3@YAXPAX@Z		; operator delete
  00210	59		 pop	 ecx
  00211	c3		 ret	 0
__unwindfunclet$?CreateEtcItem@ioEtcItemManager@@IAEPAVioEtcItem@@K@Z$57:
  00212	ff 75 08	 push	 DWORD PTR $T509730[ebp]
  00215	e8 00 00 00 00	 call	 ??3@YAXPAX@Z		; operator delete
  0021a	59		 pop	 ecx
  0021b	c3		 ret	 0
__unwindfunclet$?CreateEtcItem@ioEtcItemManager@@IAEPAVioEtcItem@@K@Z$59:
  0021c	ff 75 08	 push	 DWORD PTR $T509738[ebp]
  0021f	e8 00 00 00 00	 call	 ??3@YAXPAX@Z		; operator delete
  00224	59		 pop	 ecx
  00225	c3		 ret	 0
__unwindfunclet$?CreateEtcItem@ioEtcItemManager@@IAEPAVioEtcItem@@K@Z$60:
  00226	ff 75 08	 push	 DWORD PTR $T509742[ebp]
  00229	e8 00 00 00 00	 call	 ??3@YAXPAX@Z		; operator delete
  0022e	59		 pop	 ecx
  0022f	c3		 ret	 0
__unwindfunclet$?CreateEtcItem@ioEtcItemManager@@IAEPAVioEtcItem@@K@Z$61:
  00230	ff 75 08	 push	 DWORD PTR $T509746[ebp]
  00233	e8 00 00 00 00	 call	 ??3@YAXPAX@Z		; operator delete
  00238	59		 pop	 ecx
  00239	c3		 ret	 0
__unwindfunclet$?CreateEtcItem@ioEtcItemManager@@IAEPAVioEtcItem@@K@Z$62:
  0023a	ff 75 08	 push	 DWORD PTR $T509750[ebp]
  0023d	e8 00 00 00 00	 call	 ??3@YAXPAX@Z		; operator delete
  00242	59		 pop	 ecx
  00243	c3		 ret	 0
__unwindfunclet$?CreateEtcItem@ioEtcItemManager@@IAEPAVioEtcItem@@K@Z$63:
  00244	ff 75 08	 push	 DWORD PTR $T509754[ebp]
  00247	e8 00 00 00 00	 call	 ??3@YAXPAX@Z		; operator delete
  0024c	59		 pop	 ecx
  0024d	c3		 ret	 0
__unwindfunclet$?CreateEtcItem@ioEtcItemManager@@IAEPAVioEtcItem@@K@Z$64:
  0024e	ff 75 08	 push	 DWORD PTR $T509758[ebp]
  00251	e8 00 00 00 00	 call	 ??3@YAXPAX@Z		; operator delete
  00256	59		 pop	 ecx
  00257	c3		 ret	 0
__unwindfunclet$?CreateEtcItem@ioEtcItemManager@@IAEPAVioEtcItem@@K@Z$65:
  00258	ff 75 08	 push	 DWORD PTR $T509762[ebp]
  0025b	e8 00 00 00 00	 call	 ??3@YAXPAX@Z		; operator delete
  00260	59		 pop	 ecx
  00261	c3		 ret	 0
__unwindfunclet$?CreateEtcItem@ioEtcItemManager@@IAEPAVioEtcItem@@K@Z$66:
  00262	ff 75 08	 push	 DWORD PTR $T509766[ebp]
  00265	e8 00 00 00 00	 call	 ??3@YAXPAX@Z		; operator delete
  0026a	59		 pop	 ecx
  0026b	c3		 ret	 0
__unwindfunclet$?CreateEtcItem@ioEtcItemManager@@IAEPAVioEtcItem@@K@Z$67:
  0026c	ff 75 08	 push	 DWORD PTR $T509770[ebp]
  0026f	e8 00 00 00 00	 call	 ??3@YAXPAX@Z		; operator delete
  00274	59		 pop	 ecx
  00275	c3		 ret	 0
__unwindfunclet$?CreateEtcItem@ioEtcItemManager@@IAEPAVioEtcItem@@K@Z$68:
  00276	ff 75 08	 push	 DWORD PTR $T509774[ebp]
  00279	e8 00 00 00 00	 call	 ??3@YAXPAX@Z		; operator delete
  0027e	59		 pop	 ecx
  0027f	c3		 ret	 0
__unwindfunclet$?CreateEtcItem@ioEtcItemManager@@IAEPAVioEtcItem@@K@Z$69:
  00280	ff 75 08	 push	 DWORD PTR $T509778[ebp]
  00283	e8 00 00 00 00	 call	 ??3@YAXPAX@Z		; operator delete
  00288	59		 pop	 ecx
  00289	c3		 ret	 0
__unwindfunclet$?CreateEtcItem@ioEtcItemManager@@IAEPAVioEtcItem@@K@Z$70:
  0028a	ff 75 08	 push	 DWORD PTR $T509782[ebp]
  0028d	e8 00 00 00 00	 call	 ??3@YAXPAX@Z		; operator delete
  00292	59		 pop	 ecx
  00293	c3		 ret	 0
__unwindfunclet$?CreateEtcItem@ioEtcItemManager@@IAEPAVioEtcItem@@K@Z$71:
  00294	ff 75 08	 push	 DWORD PTR $T509786[ebp]
  00297	e8 00 00 00 00	 call	 ??3@YAXPAX@Z		; operator delete
  0029c	59		 pop	 ecx
  0029d	c3		 ret	 0
__unwindfunclet$?CreateEtcItem@ioEtcItemManager@@IAEPAVioEtcItem@@K@Z$72:
  0029e	ff 75 08	 push	 DWORD PTR $T509790[ebp]
  002a1	e8 00 00 00 00	 call	 ??3@YAXPAX@Z		; operator delete
  002a6	59		 pop	 ecx
  002a7	c3		 ret	 0
__unwindfunclet$?CreateEtcItem@ioEtcItemManager@@IAEPAVioEtcItem@@K@Z$73:
  002a8	ff 75 08	 push	 DWORD PTR $T509794[ebp]
  002ab	e8 00 00 00 00	 call	 ??3@YAXPAX@Z		; operator delete
  002b0	59		 pop	 ecx
  002b1	c3		 ret	 0
__unwindfunclet$?CreateEtcItem@ioEtcItemManager@@IAEPAVioEtcItem@@K@Z$74:
  002b2	ff 75 08	 push	 DWORD PTR $T509798[ebp]
  002b5	e8 00 00 00 00	 call	 ??3@YAXPAX@Z		; operator delete
  002ba	59		 pop	 ecx
  002bb	c3		 ret	 0
__unwindfunclet$?CreateEtcItem@ioEtcItemManager@@IAEPAVioEtcItem@@K@Z$75:
  002bc	ff 75 08	 push	 DWORD PTR $T509802[ebp]
  002bf	e8 00 00 00 00	 call	 ??3@YAXPAX@Z		; operator delete
  002c4	59		 pop	 ecx
  002c5	c3		 ret	 0
__unwindfunclet$?CreateEtcItem@ioEtcItemManager@@IAEPAVioEtcItem@@K@Z$76:
  002c6	ff 75 08	 push	 DWORD PTR $T509806[ebp]
  002c9	e8 00 00 00 00	 call	 ??3@YAXPAX@Z		; operator delete
  002ce	59		 pop	 ecx
  002cf	c3		 ret	 0
__unwindfunclet$?CreateEtcItem@ioEtcItemManager@@IAEPAVioEtcItem@@K@Z$77:
  002d0	ff 75 08	 push	 DWORD PTR $T509810[ebp]
  002d3	e8 00 00 00 00	 call	 ??3@YAXPAX@Z		; operator delete
  002d8	59		 pop	 ecx
  002d9	c3		 ret	 0
__unwindfunclet$?CreateEtcItem@ioEtcItemManager@@IAEPAVioEtcItem@@K@Z$78:
  002da	ff 75 08	 push	 DWORD PTR $T509814[ebp]
  002dd	e8 00 00 00 00	 call	 ??3@YAXPAX@Z		; operator delete
  002e2	59		 pop	 ecx
  002e3	c3		 ret	 0
__unwindfunclet$?CreateEtcItem@ioEtcItemManager@@IAEPAVioEtcItem@@K@Z$79:
  002e4	ff 75 08	 push	 DWORD PTR $T509818[ebp]
  002e7	e8 00 00 00 00	 call	 ??3@YAXPAX@Z		; operator delete
  002ec	59		 pop	 ecx
  002ed	c3		 ret	 0
__unwindfunclet$?CreateEtcItem@ioEtcItemManager@@IAEPAVioEtcItem@@K@Z$80:
  002ee	ff 75 08	 push	 DWORD PTR $T509822[ebp]
  002f1	e8 00 00 00 00	 call	 ??3@YAXPAX@Z		; operator delete
  002f6	59		 pop	 ecx
  002f7	c3		 ret	 0
__unwindfunclet$?CreateEtcItem@ioEtcItemManager@@IAEPAVioEtcItem@@K@Z$81:
  002f8	ff 75 08	 push	 DWORD PTR $T509826[ebp]
  002fb	e8 00 00 00 00	 call	 ??3@YAXPAX@Z		; operator delete
  00300	59		 pop	 ecx
  00301	c3		 ret	 0
__unwindfunclet$?CreateEtcItem@ioEtcItemManager@@IAEPAVioEtcItem@@K@Z$82:
  00302	ff 75 08	 push	 DWORD PTR $T509830[ebp]
  00305	e8 00 00 00 00	 call	 ??3@YAXPAX@Z		; operator delete
  0030a	59		 pop	 ecx
  0030b	c3		 ret	 0
__unwindfunclet$?CreateEtcItem@ioEtcItemManager@@IAEPAVioEtcItem@@K@Z$83:
  0030c	ff 75 08	 push	 DWORD PTR $T509834[ebp]
  0030f	e8 00 00 00 00	 call	 ??3@YAXPAX@Z		; operator delete
  00314	59		 pop	 ecx
  00315	c3		 ret	 0
__unwindfunclet$?CreateEtcItem@ioEtcItemManager@@IAEPAVioEtcItem@@K@Z$84:
  00316	ff 75 08	 push	 DWORD PTR $T509838[ebp]
  00319	e8 00 00 00 00	 call	 ??3@YAXPAX@Z		; operator delete
  0031e	59		 pop	 ecx
  0031f	c3		 ret	 0
__unwindfunclet$?CreateEtcItem@ioEtcItemManager@@IAEPAVioEtcItem@@K@Z$85:
  00320	ff 75 08	 push	 DWORD PTR $T509842[ebp]
  00323	e8 00 00 00 00	 call	 ??3@YAXPAX@Z		; operator delete
  00328	59		 pop	 ecx
  00329	c3		 ret	 0
__unwindfunclet$?CreateEtcItem@ioEtcItemManager@@IAEPAVioEtcItem@@K@Z$86:
  0032a	ff 75 08	 push	 DWORD PTR $T509846[ebp]
  0032d	e8 00 00 00 00	 call	 ??3@YAXPAX@Z		; operator delete
  00332	59		 pop	 ecx
  00333	c3		 ret	 0
__unwindfunclet$?CreateEtcItem@ioEtcItemManager@@IAEPAVioEtcItem@@K@Z$87:
  00334	ff 75 08	 push	 DWORD PTR $T509850[ebp]
  00337	e8 00 00 00 00	 call	 ??3@YAXPAX@Z		; operator delete
  0033c	59		 pop	 ecx
  0033d	c3		 ret	 0
__unwindfunclet$?CreateEtcItem@ioEtcItemManager@@IAEPAVioEtcItem@@K@Z$88:
  0033e	ff 75 08	 push	 DWORD PTR $T509854[ebp]
  00341	e8 00 00 00 00	 call	 ??3@YAXPAX@Z		; operator delete
  00346	59		 pop	 ecx
  00347	c3		 ret	 0
__unwindfunclet$?CreateEtcItem@ioEtcItemManager@@IAEPAVioEtcItem@@K@Z$89:
  00348	ff 75 08	 push	 DWORD PTR $T509858[ebp]
  0034b	e8 00 00 00 00	 call	 ??3@YAXPAX@Z		; operator delete
  00350	59		 pop	 ecx
  00351	c3		 ret	 0
__unwindfunclet$?CreateEtcItem@ioEtcItemManager@@IAEPAVioEtcItem@@K@Z$90:
  00352	ff 75 08	 push	 DWORD PTR $T509862[ebp]
  00355	e8 00 00 00 00	 call	 ??3@YAXPAX@Z		; operator delete
  0035a	59		 pop	 ecx
  0035b	c3		 ret	 0
__unwindfunclet$?CreateEtcItem@ioEtcItemManager@@IAEPAVioEtcItem@@K@Z$91:
  0035c	ff 75 08	 push	 DWORD PTR $T509866[ebp]
  0035f	e8 00 00 00 00	 call	 ??3@YAXPAX@Z		; operator delete
  00364	59		 pop	 ecx
  00365	c3		 ret	 0
__unwindfunclet$?CreateEtcItem@ioEtcItemManager@@IAEPAVioEtcItem@@K@Z$92:
  00366	ff 75 08	 push	 DWORD PTR $T509870[ebp]
  00369	e8 00 00 00 00	 call	 ??3@YAXPAX@Z		; operator delete
  0036e	59		 pop	 ecx
  0036f	c3		 ret	 0
__unwindfunclet$?CreateEtcItem@ioEtcItemManager@@IAEPAVioEtcItem@@K@Z$93:
  00370	ff 75 08	 push	 DWORD PTR $T509874[ebp]
  00373	e8 00 00 00 00	 call	 ??3@YAXPAX@Z		; operator delete
  00378	59		 pop	 ecx
  00379	c3		 ret	 0
__unwindfunclet$?CreateEtcItem@ioEtcItemManager@@IAEPAVioEtcItem@@K@Z$94:
  0037a	ff 75 08	 push	 DWORD PTR $T509878[ebp]
  0037d	e8 00 00 00 00	 call	 ??3@YAXPAX@Z		; operator delete
  00382	59		 pop	 ecx
  00383	c3		 ret	 0
__unwindfunclet$?CreateEtcItem@ioEtcItemManager@@IAEPAVioEtcItem@@K@Z$95:
  00384	ff 75 08	 push	 DWORD PTR $T509882[ebp]
  00387	e8 00 00 00 00	 call	 ??3@YAXPAX@Z		; operator delete
  0038c	59		 pop	 ecx
  0038d	c3		 ret	 0
__unwindfunclet$?CreateEtcItem@ioEtcItemManager@@IAEPAVioEtcItem@@K@Z$96:
  0038e	ff 75 08	 push	 DWORD PTR $T509886[ebp]
  00391	e8 00 00 00 00	 call	 ??3@YAXPAX@Z		; operator delete
  00396	59		 pop	 ecx
  00397	c3		 ret	 0
__unwindfunclet$?CreateEtcItem@ioEtcItemManager@@IAEPAVioEtcItem@@K@Z$97:
  00398	ff 75 08	 push	 DWORD PTR $T509890[ebp]
  0039b	e8 00 00 00 00	 call	 ??3@YAXPAX@Z		; operator delete
  003a0	59		 pop	 ecx
  003a1	c3		 ret	 0
__unwindfunclet$?CreateEtcItem@ioEtcItemManager@@IAEPAVioEtcItem@@K@Z$98:
  003a2	ff 75 08	 push	 DWORD PTR $T509894[ebp]
  003a5	e8 00 00 00 00	 call	 ??3@YAXPAX@Z		; operator delete
  003aa	59		 pop	 ecx
  003ab	c3		 ret	 0
__unwindfunclet$?CreateEtcItem@ioEtcItemManager@@IAEPAVioEtcItem@@K@Z$99:
  003ac	ff 75 08	 push	 DWORD PTR $T509898[ebp]
  003af	e8 00 00 00 00	 call	 ??3@YAXPAX@Z		; operator delete
  003b4	59		 pop	 ecx
  003b5	c3		 ret	 0
__unwindfunclet$?CreateEtcItem@ioEtcItemManager@@IAEPAVioEtcItem@@K@Z$100:
  003b6	ff 75 08	 push	 DWORD PTR $T509902[ebp]
  003b9	e8 00 00 00 00	 call	 ??3@YAXPAX@Z		; operator delete
  003be	59		 pop	 ecx
  003bf	c3		 ret	 0
__unwindfunclet$?CreateEtcItem@ioEtcItemManager@@IAEPAVioEtcItem@@K@Z$101:
  003c0	ff 75 08	 push	 DWORD PTR $T509906[ebp]
  003c3	e8 00 00 00 00	 call	 ??3@YAXPAX@Z		; operator delete
  003c8	59		 pop	 ecx
  003c9	c3		 ret	 0
__unwindfunclet$?CreateEtcItem@ioEtcItemManager@@IAEPAVioEtcItem@@K@Z$102:
  003ca	ff 75 08	 push	 DWORD PTR $T509910[ebp]
  003cd	e8 00 00 00 00	 call	 ??3@YAXPAX@Z		; operator delete
  003d2	59		 pop	 ecx
  003d3	c3		 ret	 0
__unwindfunclet$?CreateEtcItem@ioEtcItemManager@@IAEPAVioEtcItem@@K@Z$103:
  003d4	ff 75 08	 push	 DWORD PTR $T509914[ebp]
  003d7	e8 00 00 00 00	 call	 ??3@YAXPAX@Z		; operator delete
  003dc	59		 pop	 ecx
  003dd	c3		 ret	 0
__unwindfunclet$?CreateEtcItem@ioEtcItemManager@@IAEPAVioEtcItem@@K@Z$104:
  003de	ff 75 08	 push	 DWORD PTR $T509918[ebp]
  003e1	e8 00 00 00 00	 call	 ??3@YAXPAX@Z		; operator delete
  003e6	59		 pop	 ecx
  003e7	c3		 ret	 0
__unwindfunclet$?CreateEtcItem@ioEtcItemManager@@IAEPAVioEtcItem@@K@Z$105:
  003e8	ff 75 08	 push	 DWORD PTR $T509922[ebp]
  003eb	e8 00 00 00 00	 call	 ??3@YAXPAX@Z		; operator delete
  003f0	59		 pop	 ecx
  003f1	c3		 ret	 0
__unwindfunclet$?CreateEtcItem@ioEtcItemManager@@IAEPAVioEtcItem@@K@Z$106:
  003f2	ff 75 08	 push	 DWORD PTR $T509926[ebp]
  003f5	e8 00 00 00 00	 call	 ??3@YAXPAX@Z		; operator delete
  003fa	59		 pop	 ecx
  003fb	c3		 ret	 0
__unwindfunclet$?CreateEtcItem@ioEtcItemManager@@IAEPAVioEtcItem@@K@Z$107:
  003fc	ff 75 08	 push	 DWORD PTR $T509930[ebp]
  003ff	e8 00 00 00 00	 call	 ??3@YAXPAX@Z		; operator delete
  00404	59		 pop	 ecx
  00405	c3		 ret	 0
__unwindfunclet$?CreateEtcItem@ioEtcItemManager@@IAEPAVioEtcItem@@K@Z$108:
  00406	ff 75 08	 push	 DWORD PTR $T509934[ebp]
  00409	e8 00 00 00 00	 call	 ??3@YAXPAX@Z		; operator delete
  0040e	59		 pop	 ecx
  0040f	c3		 ret	 0
__unwindfunclet$?CreateEtcItem@ioEtcItemManager@@IAEPAVioEtcItem@@K@Z$58:
  00410	ff 75 08	 push	 DWORD PTR $T509734[ebp]
  00413	e8 00 00 00 00	 call	 ??3@YAXPAX@Z		; operator delete
  00418	59		 pop	 ecx
  00419	c3		 ret	 0
__unwindfunclet$?CreateEtcItem@ioEtcItemManager@@IAEPAVioEtcItem@@K@Z$35:
  0041a	ff 75 08	 push	 DWORD PTR $T509642[ebp]
  0041d	e8 00 00 00 00	 call	 ??3@YAXPAX@Z		; operator delete
  00422	59		 pop	 ecx
  00423	c3		 ret	 0
__unwindfunclet$?CreateEtcItem@ioEtcItemManager@@IAEPAVioEtcItem@@K@Z$25:
  00424	ff 75 08	 push	 DWORD PTR $T509602[ebp]
  00427	e8 00 00 00 00	 call	 ??3@YAXPAX@Z		; operator delete
  0042c	59		 pop	 ecx
  0042d	c3		 ret	 0
__unwindfunclet$?CreateEtcItem@ioEtcItemManager@@IAEPAVioEtcItem@@K@Z$24:
  0042e	ff 75 08	 push	 DWORD PTR $T509598[ebp]
  00431	e8 00 00 00 00	 call	 ??3@YAXPAX@Z		; operator delete
  00436	59		 pop	 ecx
  00437	c3		 ret	 0
__unwindfunclet$?CreateEtcItem@ioEtcItemManager@@IAEPAVioEtcItem@@K@Z$17:
  00438	ff 75 08	 push	 DWORD PTR $T509570[ebp]
  0043b	e8 00 00 00 00	 call	 ??3@YAXPAX@Z		; operator delete
  00440	59		 pop	 ecx
  00441	c3		 ret	 0
__ehhandler$?CreateEtcItem@ioEtcItemManager@@IAEPAVioEtcItem@@K@Z:
  00442	8b 54 24 08	 mov	 edx, DWORD PTR [esp+8]
  00446	8d 42 0c	 lea	 eax, DWORD PTR [edx+12]
  00449	8b 4a f0	 mov	 ecx, DWORD PTR [edx-16]
  0044c	33 c8		 xor	 ecx, eax
  0044e	e8 00 00 00 00	 call	 @__security_check_cookie@4
  00453	b8 00 00 00 00	 mov	 eax, OFFSET __ehfuncinfo$?CreateEtcItem@ioEtcItemManager@@IAEPAVioEtcItem@@K@Z
  00458	e9 00 00 00 00	 jmp	 ___CxxFrameHandler3
text$x	ENDS
?CreateEtcItem@ioEtcItemManager@@IAEPAVioEtcItem@@K@Z ENDP ; ioEtcItemManager::CreateEtcItem
PUBLIC	??0?$_Tree_const_iterator@V?$_Tree_val@V?$_Tmap_traits@KPAVioEtcItem@@U?$less@K@std@@V?$allocator@U?$pair@$$CBKPAVioEtcItem@@@std@@@3@$0A@@std@@@std@@@std@@QAE@XZ ; std::_Tree_const_iterator<std::_Tree_val<std::_Tmap_traits<unsigned long,ioEtcItem *,std::less<unsigned long>,std::allocator<std::pair<unsigned long const ,ioEtcItem *> >,0> > >::_Tree_const_iterator<std::_Tree_val<std::_Tmap_traits<unsigned long,ioEtcItem *,std::less<unsigned long>,std::allocator<std::pair<unsigned long const ,ioEtcItem *> >,0> > >
; Function compile flags: /Ogsp
; File c:\program files (x86)\microsoft visual studio 10.0\vc\include\xtree
;	COMDAT ??0?$_Tree_const_iterator@V?$_Tree_val@V?$_Tmap_traits@KPAVioEtcItem@@U?$less@K@std@@V?$allocator@U?$pair@$$CBKPAVioEtcItem@@@std@@@3@$0A@@std@@@std@@@std@@QAE@XZ
_TEXT	SEGMENT
??0?$_Tree_const_iterator@V?$_Tree_val@V?$_Tmap_traits@KPAVioEtcItem@@U?$less@K@std@@V?$allocator@U?$pair@$$CBKPAVioEtcItem@@@std@@@3@$0A@@std@@@std@@@std@@QAE@XZ PROC ; std::_Tree_const_iterator<std::_Tree_val<std::_Tmap_traits<unsigned long,ioEtcItem *,std::less<unsigned long>,std::allocator<std::pair<unsigned long const ,ioEtcItem *> >,0> > >::_Tree_const_iterator<std::_Tree_val<std::_Tmap_traits<unsigned long,ioEtcItem *,std::less<unsigned long>,std::allocator<std::pair<unsigned long const ,ioEtcItem *> >,0> > >, COMDAT
; _this$ = ecx

; 208  : 		{	// construct with null node pointer

  00000	8b c1		 mov	 eax, ecx
  00002	83 20 00	 and	 DWORD PTR [eax], 0

; 209  : 		}

  00005	c3		 ret	 0
??0?$_Tree_const_iterator@V?$_Tree_val@V?$_Tmap_traits@KPAVioEtcItem@@U?$less@K@std@@V?$allocator@U?$pair@$$CBKPAVioEtcItem@@@std@@@3@$0A@@std@@@std@@@std@@QAE@XZ ENDP ; std::_Tree_const_iterator<std::_Tree_val<std::_Tmap_traits<unsigned long,ioEtcItem *,std::less<unsigned long>,std::allocator<std::pair<unsigned long const ,ioEtcItem *> >,0> > >::_Tree_const_iterator<std::_Tree_val<std::_Tmap_traits<unsigned long,ioEtcItem *,std::less<unsigned long>,std::allocator<std::pair<unsigned long const ,ioEtcItem *> >,0> > >
_TEXT	ENDS
PUBLIC	??9?$_Tree_const_iterator@V?$_Tree_val@V?$_Tmap_traits@KPAVioEtcItem@@U?$less@K@std@@V?$allocator@U?$pair@$$CBKPAVioEtcItem@@@std@@@3@$0A@@std@@@std@@@std@@QBE_NABV01@@Z ; std::_Tree_const_iterator<std::_Tree_val<std::_Tmap_traits<unsigned long,ioEtcItem *,std::less<unsigned long>,std::allocator<std::pair<unsigned long const ,ioEtcItem *> >,0> > >::operator!=
; Function compile flags: /Ogsp
;	COMDAT ??9?$_Tree_const_iterator@V?$_Tree_val@V?$_Tmap_traits@KPAVioEtcItem@@U?$less@K@std@@V?$allocator@U?$pair@$$CBKPAVioEtcItem@@@std@@@3@$0A@@std@@@std@@@std@@QBE_NABV01@@Z
_TEXT	SEGMENT
__Right$ = 8						; size = 4
??9?$_Tree_const_iterator@V?$_Tree_val@V?$_Tmap_traits@KPAVioEtcItem@@U?$less@K@std@@V?$allocator@U?$pair@$$CBKPAVioEtcItem@@@std@@@3@$0A@@std@@@std@@@std@@QBE_NABV01@@Z PROC ; std::_Tree_const_iterator<std::_Tree_val<std::_Tmap_traits<unsigned long,ioEtcItem *,std::less<unsigned long>,std::allocator<std::pair<unsigned long const ,ioEtcItem *> >,0> > >::operator!=, COMDAT
; _this$ = ecx

; 334  : 		{	// test for iterator inequality

  00000	55		 push	 ebp
  00001	8b ec		 mov	 ebp, esp

; 335  : 		return (!(*this == _Right));

  00003	8b 01		 mov	 eax, DWORD PTR [ecx]
  00005	8b 55 08	 mov	 edx, DWORD PTR __Right$[ebp]
  00008	33 c9		 xor	 ecx, ecx
  0000a	3b 02		 cmp	 eax, DWORD PTR [edx]
  0000c	0f 95 c0	 setne	 al

; 336  : 		}

  0000f	5d		 pop	 ebp
  00010	c2 04 00	 ret	 4
??9?$_Tree_const_iterator@V?$_Tree_val@V?$_Tmap_traits@KPAVioEtcItem@@U?$less@K@std@@V?$allocator@U?$pair@$$CBKPAVioEtcItem@@@std@@@3@$0A@@std@@@std@@@std@@QBE_NABV01@@Z ENDP ; std::_Tree_const_iterator<std::_Tree_val<std::_Tmap_traits<unsigned long,ioEtcItem *,std::less<unsigned long>,std::allocator<std::pair<unsigned long const ,ioEtcItem *> >,0> > >::operator!=
_TEXT	ENDS
PUBLIC	?_Lmost@?$_Tree@V?$_Tmap_traits@KPAVioEtcItem@@U?$less@K@std@@V?$allocator@U?$pair@$$CBKPAVioEtcItem@@@std@@@3@$0A@@std@@@std@@IBEAAPAU_Node@?$_Tree_nod@V?$_Tmap_traits@KPAVioEtcItem@@U?$less@K@std@@V?$allocator@U?$pair@$$CBKPAVioEtcItem@@@std@@@3@$0A@@std@@@2@XZ ; std::_Tree<std::_Tmap_traits<unsigned long,ioEtcItem *,std::less<unsigned long>,std::allocator<std::pair<unsigned long const ,ioEtcItem *> >,0> >::_Lmost
; Function compile flags: /Ogsp
;	COMDAT ?_Lmost@?$_Tree@V?$_Tmap_traits@KPAVioEtcItem@@U?$less@K@std@@V?$allocator@U?$pair@$$CBKPAVioEtcItem@@@std@@@3@$0A@@std@@@std@@IBEAAPAU_Node@?$_Tree_nod@V?$_Tmap_traits@KPAVioEtcItem@@U?$less@K@std@@V?$allocator@U?$pair@$$CBKPAVioEtcItem@@@std@@@3@$0A@@std@@@2@XZ
_TEXT	SEGMENT
?_Lmost@?$_Tree@V?$_Tmap_traits@KPAVioEtcItem@@U?$less@K@std@@V?$allocator@U?$pair@$$CBKPAVioEtcItem@@@std@@@3@$0A@@std@@@std@@IBEAAPAU_Node@?$_Tree_nod@V?$_Tmap_traits@KPAVioEtcItem@@U?$less@K@std@@V?$allocator@U?$pair@$$CBKPAVioEtcItem@@@std@@@3@$0A@@std@@@2@XZ PROC ; std::_Tree<std::_Tmap_traits<unsigned long,ioEtcItem *,std::less<unsigned long>,std::allocator<std::pair<unsigned long const ,ioEtcItem *> >,0> >::_Lmost, COMDAT
; _this$ = ecx

; 1759 : 		return (this->_Left(this->_Myhead));

  00000	8b 41 04	 mov	 eax, DWORD PTR [ecx+4]

; 1760 : 		}

  00003	c3		 ret	 0
?_Lmost@?$_Tree@V?$_Tmap_traits@KPAVioEtcItem@@U?$less@K@std@@V?$allocator@U?$pair@$$CBKPAVioEtcItem@@@std@@@3@$0A@@std@@@std@@IBEAAPAU_Node@?$_Tree_nod@V?$_Tmap_traits@KPAVioEtcItem@@U?$less@K@std@@V?$allocator@U?$pair@$$CBKPAVioEtcItem@@@std@@@3@$0A@@std@@@2@XZ ENDP ; std::_Tree<std::_Tmap_traits<unsigned long,ioEtcItem *,std::less<unsigned long>,std::allocator<std::pair<unsigned long const ,ioEtcItem *> >,0> >::_Lmost
_TEXT	ENDS
PUBLIC	?_Rmost@?$_Tree@V?$_Tmap_traits@KPAVioEtcItem@@U?$less@K@std@@V?$allocator@U?$pair@$$CBKPAVioEtcItem@@@std@@@3@$0A@@std@@@std@@IBEAAPAU_Node@?$_Tree_nod@V?$_Tmap_traits@KPAVioEtcItem@@U?$less@K@std@@V?$allocator@U?$pair@$$CBKPAVioEtcItem@@@std@@@3@$0A@@std@@@2@XZ ; std::_Tree<std::_Tmap_traits<unsigned long,ioEtcItem *,std::less<unsigned long>,std::allocator<std::pair<unsigned long const ,ioEtcItem *> >,0> >::_Rmost
; Function compile flags: /Ogsp
;	COMDAT ?_Rmost@?$_Tree@V?$_Tmap_traits@KPAVioEtcItem@@U?$less@K@std@@V?$allocator@U?$pair@$$CBKPAVioEtcItem@@@std@@@3@$0A@@std@@@std@@IBEAAPAU_Node@?$_Tree_nod@V?$_Tmap_traits@KPAVioEtcItem@@U?$less@K@std@@V?$allocator@U?$pair@$$CBKPAVioEtcItem@@@std@@@3@$0A@@std@@@2@XZ
_TEXT	SEGMENT
?_Rmost@?$_Tree@V?$_Tmap_traits@KPAVioEtcItem@@U?$less@K@std@@V?$allocator@U?$pair@$$CBKPAVioEtcItem@@@std@@@3@$0A@@std@@@std@@IBEAAPAU_Node@?$_Tree_nod@V?$_Tmap_traits@KPAVioEtcItem@@U?$less@K@std@@V?$allocator@U?$pair@$$CBKPAVioEtcItem@@@std@@@3@$0A@@std@@@2@XZ PROC ; std::_Tree<std::_Tmap_traits<unsigned long,ioEtcItem *,std::less<unsigned long>,std::allocator<std::pair<unsigned long const ,ioEtcItem *> >,0> >::_Rmost, COMDAT
; _this$ = ecx

; 1784 : 		return (this->_Right(this->_Myhead));

  00000	8b 41 04	 mov	 eax, DWORD PTR [ecx+4]
  00003	83 c0 08	 add	 eax, 8

; 1785 : 		}

  00006	c3		 ret	 0
?_Rmost@?$_Tree@V?$_Tmap_traits@KPAVioEtcItem@@U?$less@K@std@@V?$allocator@U?$pair@$$CBKPAVioEtcItem@@@std@@@3@$0A@@std@@@std@@IBEAAPAU_Node@?$_Tree_nod@V?$_Tmap_traits@KPAVioEtcItem@@U?$less@K@std@@V?$allocator@U?$pair@$$CBKPAVioEtcItem@@@std@@@3@$0A@@std@@@2@XZ ENDP ; std::_Tree<std::_Tmap_traits<unsigned long,ioEtcItem *,std::less<unsigned long>,std::allocator<std::pair<unsigned long const ,ioEtcItem *> >,0> >::_Rmost
_TEXT	ENDS
PUBLIC	?_Root@?$_Tree@V?$_Tmap_traits@KPAVioEtcItem@@U?$less@K@std@@V?$allocator@U?$pair@$$CBKPAVioEtcItem@@@std@@@3@$0A@@std@@@std@@IBEAAPAU_Node@?$_Tree_nod@V?$_Tmap_traits@KPAVioEtcItem@@U?$less@K@std@@V?$allocator@U?$pair@$$CBKPAVioEtcItem@@@std@@@3@$0A@@std@@@2@XZ ; std::_Tree<std::_Tmap_traits<unsigned long,ioEtcItem *,std::less<unsigned long>,std::allocator<std::pair<unsigned long const ,ioEtcItem *> >,0> >::_Root
; Function compile flags: /Ogsp
;	COMDAT ?_Root@?$_Tree@V?$_Tmap_traits@KPAVioEtcItem@@U?$less@K@std@@V?$allocator@U?$pair@$$CBKPAVioEtcItem@@@std@@@3@$0A@@std@@@std@@IBEAAPAU_Node@?$_Tree_nod@V?$_Tmap_traits@KPAVioEtcItem@@U?$less@K@std@@V?$allocator@U?$pair@$$CBKPAVioEtcItem@@@std@@@3@$0A@@std@@@2@XZ
_TEXT	SEGMENT
?_Root@?$_Tree@V?$_Tmap_traits@KPAVioEtcItem@@U?$less@K@std@@V?$allocator@U?$pair@$$CBKPAVioEtcItem@@@std@@@3@$0A@@std@@@std@@IBEAAPAU_Node@?$_Tree_nod@V?$_Tmap_traits@KPAVioEtcItem@@U?$less@K@std@@V?$allocator@U?$pair@$$CBKPAVioEtcItem@@@std@@@3@$0A@@std@@@2@XZ PROC ; std::_Tree<std::_Tmap_traits<unsigned long,ioEtcItem *,std::less<unsigned long>,std::allocator<std::pair<unsigned long const ,ioEtcItem *> >,0> >::_Root, COMDAT
; _this$ = ecx

; 1789 : 		return (this->_Parent(this->_Myhead));

  00000	8b 41 04	 mov	 eax, DWORD PTR [ecx+4]
  00003	83 c0 04	 add	 eax, 4

; 1790 : 		}

  00006	c3		 ret	 0
?_Root@?$_Tree@V?$_Tmap_traits@KPAVioEtcItem@@U?$less@K@std@@V?$allocator@U?$pair@$$CBKPAVioEtcItem@@@std@@@3@$0A@@std@@@std@@IBEAAPAU_Node@?$_Tree_nod@V?$_Tmap_traits@KPAVioEtcItem@@U?$less@K@std@@V?$allocator@U?$pair@$$CBKPAVioEtcItem@@@std@@@3@$0A@@std@@@2@XZ ENDP ; std::_Tree<std::_Tmap_traits<unsigned long,ioEtcItem *,std::less<unsigned long>,std::allocator<std::pair<unsigned long const ,ioEtcItem *> >,0> >::_Root
_TEXT	ENDS
PUBLIC	??1?$_Tree_val@V?$_Tmap_traits@KPAVioEtcItem@@U?$less@K@std@@V?$allocator@U?$pair@$$CBKPAVioEtcItem@@@std@@@3@$0A@@std@@@std@@QAE@XZ ; std::_Tree_val<std::_Tmap_traits<unsigned long,ioEtcItem *,std::less<unsigned long>,std::allocator<std::pair<unsigned long const ,ioEtcItem *> >,0> >::~_Tree_val<std::_Tmap_traits<unsigned long,ioEtcItem *,std::less<unsigned long>,std::allocator<std::pair<unsigned long const ,ioEtcItem *> >,0> >
; Function compile flags: /Ogsp
;	COMDAT ??1?$_Tree_val@V?$_Tmap_traits@KPAVioEtcItem@@U?$less@K@std@@V?$allocator@U?$pair@$$CBKPAVioEtcItem@@@std@@@3@$0A@@std@@@std@@QAE@XZ
_TEXT	SEGMENT
??1?$_Tree_val@V?$_Tmap_traits@KPAVioEtcItem@@U?$less@K@std@@V?$allocator@U?$pair@$$CBKPAVioEtcItem@@@std@@@3@$0A@@std@@@std@@QAE@XZ PROC ; std::_Tree_val<std::_Tmap_traits<unsigned long,ioEtcItem *,std::less<unsigned long>,std::allocator<std::pair<unsigned long const ,ioEtcItem *> >,0> >::~_Tree_val<std::_Tmap_traits<unsigned long,ioEtcItem *,std::less<unsigned long>,std::allocator<std::pair<unsigned long const ,ioEtcItem *> >,0> >, COMDAT
; _this$ = ecx

; 555  : 		this->_Alnod.deallocate(this->_Myhead, 1);

  00000	ff 71 04	 push	 DWORD PTR [ecx+4]
  00003	e8 00 00 00 00	 call	 ??3@YAXPAX@Z		; operator delete
  00008	59		 pop	 ecx

; 556  : 		}

  00009	c3		 ret	 0
??1?$_Tree_val@V?$_Tmap_traits@KPAVioEtcItem@@U?$less@K@std@@V?$allocator@U?$pair@$$CBKPAVioEtcItem@@@std@@@3@$0A@@std@@@std@@QAE@XZ ENDP ; std::_Tree_val<std::_Tmap_traits<unsigned long,ioEtcItem *,std::less<unsigned long>,std::allocator<std::pair<unsigned long const ,ioEtcItem *> >,0> >::~_Tree_val<std::_Tmap_traits<unsigned long,ioEtcItem *,std::less<unsigned long>,std::allocator<std::pair<unsigned long const ,ioEtcItem *> >,0> >
_TEXT	ENDS
PUBLIC	?_Key@?$_Tree_val@V?$_Tmap_traits@KPAVioEtcItem@@U?$less@K@std@@V?$allocator@U?$pair@$$CBKPAVioEtcItem@@@std@@@3@$0A@@std@@@std@@SAAAKPAU_Node@?$_Tree_nod@V?$_Tmap_traits@KPAVioEtcItem@@U?$less@K@std@@V?$allocator@U?$pair@$$CBKPAVioEtcItem@@@std@@@3@$0A@@std@@@2@@Z ; std::_Tree_val<std::_Tmap_traits<unsigned long,ioEtcItem *,std::less<unsigned long>,std::allocator<std::pair<unsigned long const ,ioEtcItem *> >,0> >::_Key
; Function compile flags: /Ogsp
;	COMDAT ?_Key@?$_Tree_val@V?$_Tmap_traits@KPAVioEtcItem@@U?$less@K@std@@V?$allocator@U?$pair@$$CBKPAVioEtcItem@@@std@@@3@$0A@@std@@@std@@SAAAKPAU_Node@?$_Tree_nod@V?$_Tmap_traits@KPAVioEtcItem@@U?$less@K@std@@V?$allocator@U?$pair@$$CBKPAVioEtcItem@@@std@@@3@$0A@@std@@@2@@Z
_TEXT	SEGMENT
__Pnode$ = 8						; size = 4
?_Key@?$_Tree_val@V?$_Tmap_traits@KPAVioEtcItem@@U?$less@K@std@@V?$allocator@U?$pair@$$CBKPAVioEtcItem@@@std@@@3@$0A@@std@@@std@@SAAAKPAU_Node@?$_Tree_nod@V?$_Tmap_traits@KPAVioEtcItem@@U?$less@K@std@@V?$allocator@U?$pair@$$CBKPAVioEtcItem@@@std@@@3@$0A@@std@@@2@@Z PROC ; std::_Tree_val<std::_Tmap_traits<unsigned long,ioEtcItem *,std::less<unsigned long>,std::allocator<std::pair<unsigned long const ,ioEtcItem *> >,0> >::_Key, COMDAT

; 616  : 		{	// return reference to key in node

  00000	55		 push	 ebp
  00001	8b ec		 mov	 ebp, esp

; 617  : 		return ((key_type&)_Traits::_Kfn(_Myval(_Pnode)));

  00003	8b 45 08	 mov	 eax, DWORD PTR __Pnode$[ebp]
  00006	83 c0 0c	 add	 eax, 12			; 0000000cH

; 618  : 		}

  00009	5d		 pop	 ebp
  0000a	c3		 ret	 0
?_Key@?$_Tree_val@V?$_Tmap_traits@KPAVioEtcItem@@U?$less@K@std@@V?$allocator@U?$pair@$$CBKPAVioEtcItem@@@std@@@3@$0A@@std@@@std@@SAAAKPAU_Node@?$_Tree_nod@V?$_Tmap_traits@KPAVioEtcItem@@U?$less@K@std@@V?$allocator@U?$pair@$$CBKPAVioEtcItem@@@std@@@3@$0A@@std@@@2@@Z ENDP ; std::_Tree_val<std::_Tmap_traits<unsigned long,ioEtcItem *,std::less<unsigned long>,std::allocator<std::pair<unsigned long const ,ioEtcItem *> >,0> >::_Key
_TEXT	ENDS
PUBLIC	??D?$_Tree_iterator@V?$_Tree_val@V?$_Tmap_traits@KPAVioEtcItem@@U?$less@K@std@@V?$allocator@U?$pair@$$CBKPAVioEtcItem@@@std@@@3@$0A@@std@@@std@@@std@@QBEAAU?$pair@$$CBKPAVioEtcItem@@@1@XZ ; std::_Tree_iterator<std::_Tree_val<std::_Tmap_traits<unsigned long,ioEtcItem *,std::less<unsigned long>,std::allocator<std::pair<unsigned long const ,ioEtcItem *> >,0> > >::operator*
; Function compile flags: /Ogsp
;	COMDAT ??D?$_Tree_iterator@V?$_Tree_val@V?$_Tmap_traits@KPAVioEtcItem@@U?$less@K@std@@V?$allocator@U?$pair@$$CBKPAVioEtcItem@@@std@@@3@$0A@@std@@@std@@@std@@QBEAAU?$pair@$$CBKPAVioEtcItem@@@1@XZ
_TEXT	SEGMENT
??D?$_Tree_iterator@V?$_Tree_val@V?$_Tmap_traits@KPAVioEtcItem@@U?$less@K@std@@V?$allocator@U?$pair@$$CBKPAVioEtcItem@@@std@@@3@$0A@@std@@@std@@@std@@QBEAAU?$pair@$$CBKPAVioEtcItem@@@1@XZ PROC ; std::_Tree_iterator<std::_Tree_val<std::_Tmap_traits<unsigned long,ioEtcItem *,std::less<unsigned long>,std::allocator<std::pair<unsigned long const ,ioEtcItem *> >,0> > >::operator*, COMDAT
; _this$ = ecx

; 396  : 		return ((reference)**(_Mybase *)this);

  00000	8b 01		 mov	 eax, DWORD PTR [ecx]
  00002	83 c0 0c	 add	 eax, 12			; 0000000cH

; 397  : 		}

  00005	c3		 ret	 0
??D?$_Tree_iterator@V?$_Tree_val@V?$_Tmap_traits@KPAVioEtcItem@@U?$less@K@std@@V?$allocator@U?$pair@$$CBKPAVioEtcItem@@@std@@@3@$0A@@std@@@std@@@std@@QBEAAU?$pair@$$CBKPAVioEtcItem@@@1@XZ ENDP ; std::_Tree_iterator<std::_Tree_val<std::_Tmap_traits<unsigned long,ioEtcItem *,std::less<unsigned long>,std::allocator<std::pair<unsigned long const ,ioEtcItem *> >,0> > >::operator*
_TEXT	ENDS
PUBLIC	??0?$_Tree_const_iterator@V?$_Tree_val@V?$_Tmap_traits@KPAVioEtcItem@@U?$less@K@std@@V?$allocator@U?$pair@$$CBKPAVioEtcItem@@@std@@@3@$0A@@std@@@std@@@std@@QAE@PAU_Node@?$_Tree_nod@V?$_Tmap_traits@KPAVioEtcItem@@U?$less@K@std@@V?$allocator@U?$pair@$$CBKPAVioEtcItem@@@std@@@3@$0A@@std@@@1@PBV?$_Tree_val@V?$_Tmap_traits@KPAVioEtcItem@@U?$less@K@std@@V?$allocator@U?$pair@$$CBKPAVioEtcItem@@@std@@@3@$0A@@std@@@1@@Z ; std::_Tree_const_iterator<std::_Tree_val<std::_Tmap_traits<unsigned long,ioEtcItem *,std::less<unsigned long>,std::allocator<std::pair<unsigned long const ,ioEtcItem *> >,0> > >::_Tree_const_iterator<std::_Tree_val<std::_Tmap_traits<unsigned long,ioEtcItem *,std::less<unsigned long>,std::allocator<std::pair<unsigned long const ,ioEtcItem *> >,0> > >
; Function compile flags: /Ogsp
;	COMDAT ??0?$_Tree_const_iterator@V?$_Tree_val@V?$_Tmap_traits@KPAVioEtcItem@@U?$less@K@std@@V?$allocator@U?$pair@$$CBKPAVioEtcItem@@@std@@@3@$0A@@std@@@std@@@std@@QAE@PAU_Node@?$_Tree_nod@V?$_Tmap_traits@KPAVioEtcItem@@U?$less@K@std@@V?$allocator@U?$pair@$$CBKPAVioEtcItem@@@std@@@3@$0A@@std@@@1@PBV?$_Tree_val@V?$_Tmap_traits@KPAVioEtcItem@@U?$less@K@std@@V?$allocator@U?$pair@$$CBKPAVioEtcItem@@@std@@@3@$0A@@std@@@1@@Z
_TEXT	SEGMENT
__Pnode$ = 8						; size = 4
__Plist$ = 12						; size = 4
??0?$_Tree_const_iterator@V?$_Tree_val@V?$_Tmap_traits@KPAVioEtcItem@@U?$less@K@std@@V?$allocator@U?$pair@$$CBKPAVioEtcItem@@@std@@@3@$0A@@std@@@std@@@std@@QAE@PAU_Node@?$_Tree_nod@V?$_Tmap_traits@KPAVioEtcItem@@U?$less@K@std@@V?$allocator@U?$pair@$$CBKPAVioEtcItem@@@std@@@3@$0A@@std@@@1@PBV?$_Tree_val@V?$_Tmap_traits@KPAVioEtcItem@@U?$less@K@std@@V?$allocator@U?$pair@$$CBKPAVioEtcItem@@@std@@@3@$0A@@std@@@1@@Z PROC ; std::_Tree_const_iterator<std::_Tree_val<std::_Tmap_traits<unsigned long,ioEtcItem *,std::less<unsigned long>,std::allocator<std::pair<unsigned long const ,ioEtcItem *> >,0> > >::_Tree_const_iterator<std::_Tree_val<std::_Tmap_traits<unsigned long,ioEtcItem *,std::less<unsigned long>,std::allocator<std::pair<unsigned long const ,ioEtcItem *> >,0> > >, COMDAT
; _this$ = ecx

; 213  : 		{	// construct with node pointer _Pnode

  00000	55		 push	 ebp
  00001	8b ec		 mov	 ebp, esp
  00003	8b c1		 mov	 eax, ecx
  00005	8b 4d 08	 mov	 ecx, DWORD PTR __Pnode$[ebp]
  00008	89 08		 mov	 DWORD PTR [eax], ecx

; 214  : 		}

  0000a	5d		 pop	 ebp
  0000b	c2 08 00	 ret	 8
??0?$_Tree_const_iterator@V?$_Tree_val@V?$_Tmap_traits@KPAVioEtcItem@@U?$less@K@std@@V?$allocator@U?$pair@$$CBKPAVioEtcItem@@@std@@@3@$0A@@std@@@std@@@std@@QAE@PAU_Node@?$_Tree_nod@V?$_Tmap_traits@KPAVioEtcItem@@U?$less@K@std@@V?$allocator@U?$pair@$$CBKPAVioEtcItem@@@std@@@3@$0A@@std@@@1@PBV?$_Tree_val@V?$_Tmap_traits@KPAVioEtcItem@@U?$less@K@std@@V?$allocator@U?$pair@$$CBKPAVioEtcItem@@@std@@@3@$0A@@std@@@1@@Z ENDP ; std::_Tree_const_iterator<std::_Tree_val<std::_Tmap_traits<unsigned long,ioEtcItem *,std::less<unsigned long>,std::allocator<std::pair<unsigned long const ,ioEtcItem *> >,0> > >::_Tree_const_iterator<std::_Tree_val<std::_Tmap_traits<unsigned long,ioEtcItem *,std::less<unsigned long>,std::allocator<std::pair<unsigned long const ,ioEtcItem *> >,0> > >
_TEXT	ENDS
PUBLIC	??D?$_Tree_unchecked_const_iterator@V?$_Tree_val@V?$_Tmap_traits@KPAVioEtcItem@@U?$less@K@std@@V?$allocator@U?$pair@$$CBKPAVioEtcItem@@@std@@@3@$0A@@std@@@std@@U_Iterator_base0@2@@std@@QBEABU?$pair@$$CBKPAVioEtcItem@@@1@XZ ; std::_Tree_unchecked_const_iterator<std::_Tree_val<std::_Tmap_traits<unsigned long,ioEtcItem *,std::less<unsigned long>,std::allocator<std::pair<unsigned long const ,ioEtcItem *> >,0> >,std::_Iterator_base0>::operator*
; Function compile flags: /Ogsp
;	COMDAT ??D?$_Tree_unchecked_const_iterator@V?$_Tree_val@V?$_Tmap_traits@KPAVioEtcItem@@U?$less@K@std@@V?$allocator@U?$pair@$$CBKPAVioEtcItem@@@std@@@3@$0A@@std@@@std@@U_Iterator_base0@2@@std@@QBEABU?$pair@$$CBKPAVioEtcItem@@@1@XZ
_TEXT	SEGMENT
??D?$_Tree_unchecked_const_iterator@V?$_Tree_val@V?$_Tmap_traits@KPAVioEtcItem@@U?$less@K@std@@V?$allocator@U?$pair@$$CBKPAVioEtcItem@@@std@@@3@$0A@@std@@@std@@U_Iterator_base0@2@@std@@QBEABU?$pair@$$CBKPAVioEtcItem@@@1@XZ PROC ; std::_Tree_unchecked_const_iterator<std::_Tree_val<std::_Tmap_traits<unsigned long,ioEtcItem *,std::less<unsigned long>,std::allocator<std::pair<unsigned long const ,ioEtcItem *> >,0> >,std::_Iterator_base0>::operator*, COMDAT
; _this$ = ecx

; 49   : 		return (_Mytree::_Myval(_Ptr));

  00000	8b 01		 mov	 eax, DWORD PTR [ecx]
  00002	83 c0 0c	 add	 eax, 12			; 0000000cH

; 50   : 		}

  00005	c3		 ret	 0
??D?$_Tree_unchecked_const_iterator@V?$_Tree_val@V?$_Tmap_traits@KPAVioEtcItem@@U?$less@K@std@@V?$allocator@U?$pair@$$CBKPAVioEtcItem@@@std@@@3@$0A@@std@@@std@@U_Iterator_base0@2@@std@@QBEABU?$pair@$$CBKPAVioEtcItem@@@1@XZ ENDP ; std::_Tree_unchecked_const_iterator<std::_Tree_val<std::_Tmap_traits<unsigned long,ioEtcItem *,std::less<unsigned long>,std::allocator<std::pair<unsigned long const ,ioEtcItem *> >,0> >,std::_Iterator_base0>::operator*
_TEXT	ENDS
PUBLIC	??E?$_Tree_unchecked_const_iterator@V?$_Tree_val@V?$_Tmap_traits@KPAVioEtcItem@@U?$less@K@std@@V?$allocator@U?$pair@$$CBKPAVioEtcItem@@@std@@@3@$0A@@std@@@std@@U_Iterator_base0@2@@std@@QAEAAV01@XZ ; std::_Tree_unchecked_const_iterator<std::_Tree_val<std::_Tmap_traits<unsigned long,ioEtcItem *,std::less<unsigned long>,std::allocator<std::pair<unsigned long const ,ioEtcItem *> >,0> >,std::_Iterator_base0>::operator++
; Function compile flags: /Ogsp
;	COMDAT ??E?$_Tree_unchecked_const_iterator@V?$_Tree_val@V?$_Tmap_traits@KPAVioEtcItem@@U?$less@K@std@@V?$allocator@U?$pair@$$CBKPAVioEtcItem@@@std@@@3@$0A@@std@@@std@@U_Iterator_base0@2@@std@@QAEAAV01@XZ
_TEXT	SEGMENT
??E?$_Tree_unchecked_const_iterator@V?$_Tree_val@V?$_Tmap_traits@KPAVioEtcItem@@U?$less@K@std@@V?$allocator@U?$pair@$$CBKPAVioEtcItem@@@std@@@3@$0A@@std@@@std@@U_Iterator_base0@2@@std@@QAEAAV01@XZ PROC ; std::_Tree_unchecked_const_iterator<std::_Tree_val<std::_Tmap_traits<unsigned long,ioEtcItem *,std::less<unsigned long>,std::allocator<std::pair<unsigned long const ,ioEtcItem *> >,0> >,std::_Iterator_base0>::operator++, COMDAT
; _this$ = ecx

; 58   : 		{	// preincrement

  00000	8b c1		 mov	 eax, ecx

; 59   : 		if (_Mytree::_Isnil(_Ptr))

  00002	8b 08		 mov	 ecx, DWORD PTR [eax]
  00004	53		 push	 ebx
  00005	32 db		 xor	 bl, bl
  00007	38 59 15	 cmp	 BYTE PTR [ecx+21], bl
  0000a	75 2d		 jne	 SHORT $LN3@operator@2

; 60   : 			;	// end() shouldn't be incremented, don't move
; 61   : 		else if (!_Mytree::_Isnil(_Mytree::_Right(_Ptr)))

  0000c	8b 51 08	 mov	 edx, DWORD PTR [ecx+8]
  0000f	38 5a 15	 cmp	 BYTE PTR [edx+21], bl
  00012	75 0d		 jne	 SHORT $LN34@operator@2

; 62   : 			_Ptr = _Mytree::_Min(
; 63   : 				_Mytree::_Right(_Ptr));	// ==> smallest of right subtree

$LL18@operator@2:
  00014	8b ca		 mov	 ecx, edx
  00016	8b 11		 mov	 edx, DWORD PTR [ecx]
  00018	38 5a 15	 cmp	 BYTE PTR [edx+21], bl
  0001b	74 f7		 je	 SHORT $LL18@operator@2
  0001d	89 08		 mov	 DWORD PTR [eax], ecx
  0001f	5b		 pop	 ebx

; 71   : 			}
; 72   : 		return (*this);
; 73   : 		}

  00020	c3		 ret	 0
$LN34@operator@2:

; 64   : 		else
; 65   : 			{	// climb looking for right subtree
; 66   : 			_Nodeptr _Pnode;
; 67   : 			while (!_Mytree::_Isnil(_Pnode = _Mytree::_Parent(_Ptr))
; 68   : 				&& _Ptr == _Mytree::_Right(_Pnode))

  00021	8b 51 04	 mov	 edx, DWORD PTR [ecx+4]
  00024	eb 0c		 jmp	 SHORT $LN38@operator@2
$LL2@operator@2:
  00026	8b 08		 mov	 ecx, DWORD PTR [eax]
  00028	3b 4a 08	 cmp	 ecx, DWORD PTR [edx+8]
  0002b	75 0a		 jne	 SHORT $LN1@operator@2

; 69   : 				_Ptr = _Pnode;	// ==> parent while right subtree

  0002d	89 10		 mov	 DWORD PTR [eax], edx
  0002f	8b 52 04	 mov	 edx, DWORD PTR [edx+4]
$LN38@operator@2:

; 64   : 		else
; 65   : 			{	// climb looking for right subtree
; 66   : 			_Nodeptr _Pnode;
; 67   : 			while (!_Mytree::_Isnil(_Pnode = _Mytree::_Parent(_Ptr))
; 68   : 				&& _Ptr == _Mytree::_Right(_Pnode))

  00032	38 5a 15	 cmp	 BYTE PTR [edx+21], bl
  00035	74 ef		 je	 SHORT $LL2@operator@2
$LN1@operator@2:

; 70   : 			_Ptr = _Pnode;	// ==> parent (head if end())

  00037	89 10		 mov	 DWORD PTR [eax], edx
$LN3@operator@2:
  00039	5b		 pop	 ebx

; 71   : 			}
; 72   : 		return (*this);
; 73   : 		}

  0003a	c3		 ret	 0
??E?$_Tree_unchecked_const_iterator@V?$_Tree_val@V?$_Tmap_traits@KPAVioEtcItem@@U?$less@K@std@@V?$allocator@U?$pair@$$CBKPAVioEtcItem@@@std@@@3@$0A@@std@@@std@@U_Iterator_base0@2@@std@@QAEAAV01@XZ ENDP ; std::_Tree_unchecked_const_iterator<std::_Tree_val<std::_Tmap_traits<unsigned long,ioEtcItem *,std::less<unsigned long>,std::allocator<std::pair<unsigned long const ,ioEtcItem *> >,0> >,std::_Iterator_base0>::operator++
_TEXT	ENDS
PUBLIC	?_Lbound@?$_Tree@V?$_Tmap_traits@KPAVioEtcItem@@U?$less@K@std@@V?$allocator@U?$pair@$$CBKPAVioEtcItem@@@std@@@3@$0A@@std@@@std@@IAEPAU_Node@?$_Tree_nod@V?$_Tmap_traits@KPAVioEtcItem@@U?$less@K@std@@V?$allocator@U?$pair@$$CBKPAVioEtcItem@@@std@@@3@$0A@@std@@@2@ABK@Z ; std::_Tree<std::_Tmap_traits<unsigned long,ioEtcItem *,std::less<unsigned long>,std::allocator<std::pair<unsigned long const ,ioEtcItem *> >,0> >::_Lbound
; Function compile flags: /Ogsp
;	COMDAT ?_Lbound@?$_Tree@V?$_Tmap_traits@KPAVioEtcItem@@U?$less@K@std@@V?$allocator@U?$pair@$$CBKPAVioEtcItem@@@std@@@3@$0A@@std@@@std@@IAEPAU_Node@?$_Tree_nod@V?$_Tmap_traits@KPAVioEtcItem@@U?$less@K@std@@V?$allocator@U?$pair@$$CBKPAVioEtcItem@@@std@@@3@$0A@@std@@@2@ABK@Z
_TEXT	SEGMENT
__Keyval$ = 8						; size = 4
?_Lbound@?$_Tree@V?$_Tmap_traits@KPAVioEtcItem@@U?$less@K@std@@V?$allocator@U?$pair@$$CBKPAVioEtcItem@@@std@@@3@$0A@@std@@@std@@IAEPAU_Node@?$_Tree_nod@V?$_Tmap_traits@KPAVioEtcItem@@U?$less@K@std@@V?$allocator@U?$pair@$$CBKPAVioEtcItem@@@std@@@3@$0A@@std@@@2@ABK@Z PROC ; std::_Tree<std::_Tmap_traits<unsigned long,ioEtcItem *,std::less<unsigned long>,std::allocator<std::pair<unsigned long const ,ioEtcItem *> >,0> >::_Lbound, COMDAT
; _this$ = ecx

; 1741 : 		{	// find leftmost node not less than _Keyval

  00000	55		 push	 ebp
  00001	8b ec		 mov	 ebp, esp

; 1742 : 		_Nodeptr _Pnode = _Root();

  00003	8b 41 04	 mov	 eax, DWORD PTR [ecx+4]
  00006	8b 48 04	 mov	 ecx, DWORD PTR [eax+4]

; 1743 : 		_Nodeptr _Wherenode = this->_Myhead;	// end() if search fails
; 1744 : 
; 1745 : 		while (!this->_Isnil(_Pnode))

  00009	80 79 15 00	 cmp	 BYTE PTR [ecx+21], 0
  0000d	75 19		 jne	 SHORT $LN3@Lbound
  0000f	8b 55 08	 mov	 edx, DWORD PTR __Keyval$[ebp]
  00012	8b 12		 mov	 edx, DWORD PTR [edx]
$LL4@Lbound:

; 1746 : 			if (_DEBUG_LT_PRED(this->comp, this->_Key(_Pnode), _Keyval))

  00014	39 51 0c	 cmp	 DWORD PTR [ecx+12], edx
  00017	73 05		 jae	 SHORT $LN2@Lbound

; 1747 : 				_Pnode = this->_Right(_Pnode);	// descend right subtree

  00019	8b 49 08	 mov	 ecx, DWORD PTR [ecx+8]

; 1748 : 			else

  0001c	eb 04		 jmp	 SHORT $LN1@Lbound
$LN2@Lbound:

; 1749 : 				{	// _Pnode not less than _Keyval, remember it
; 1750 : 				_Wherenode = _Pnode;

  0001e	8b c1		 mov	 eax, ecx

; 1751 : 				_Pnode = this->_Left(_Pnode);	// descend left subtree

  00020	8b 09		 mov	 ecx, DWORD PTR [ecx]
$LN1@Lbound:

; 1743 : 		_Nodeptr _Wherenode = this->_Myhead;	// end() if search fails
; 1744 : 
; 1745 : 		while (!this->_Isnil(_Pnode))

  00022	80 79 15 00	 cmp	 BYTE PTR [ecx+21], 0
  00026	74 ec		 je	 SHORT $LL4@Lbound
$LN3@Lbound:

; 1752 : 				}
; 1753 : 
; 1754 : 		return (_Wherenode);	// return best remembered candidate
; 1755 : 		}

  00028	5d		 pop	 ebp
  00029	c2 04 00	 ret	 4
?_Lbound@?$_Tree@V?$_Tmap_traits@KPAVioEtcItem@@U?$less@K@std@@V?$allocator@U?$pair@$$CBKPAVioEtcItem@@@std@@@3@$0A@@std@@@std@@IAEPAU_Node@?$_Tree_nod@V?$_Tmap_traits@KPAVioEtcItem@@U?$less@K@std@@V?$allocator@U?$pair@$$CBKPAVioEtcItem@@@std@@@3@$0A@@std@@@2@ABK@Z ENDP ; std::_Tree<std::_Tmap_traits<unsigned long,ioEtcItem *,std::less<unsigned long>,std::allocator<std::pair<unsigned long const ,ioEtcItem *> >,0> >::_Lbound
_TEXT	ENDS
PUBLIC	?max_size@?$vector@PBVioEtcItem@@V?$allocator@PBVioEtcItem@@@std@@@std@@QBEIXZ ; std::vector<ioEtcItem const *,std::allocator<ioEtcItem const *> >::max_size
; Function compile flags: /Ogsp
; File c:\program files (x86)\microsoft visual studio 10.0\vc\include\vector
;	COMDAT ?max_size@?$vector@PBVioEtcItem@@V?$allocator@PBVioEtcItem@@@std@@@std@@QBEIXZ
_TEXT	SEGMENT
?max_size@?$vector@PBVioEtcItem@@V?$allocator@PBVioEtcItem@@@std@@@std@@QBEIXZ PROC ; std::vector<ioEtcItem const *,std::allocator<ioEtcItem const *> >::max_size, COMDAT
; _this$ = ecx

; 884  : 		return (this->_Alval.max_size());

  00000	b8 ff ff ff 3f	 mov	 eax, 1073741823		; 3fffffffH

; 885  : 		}

  00005	c3		 ret	 0
?max_size@?$vector@PBVioEtcItem@@V?$allocator@PBVioEtcItem@@@std@@@std@@QBEIXZ ENDP ; std::vector<ioEtcItem const *,std::allocator<ioEtcItem const *> >::max_size
_TEXT	ENDS
PUBLIC	?_Grow_to@?$vector@PBVioEtcItem@@V?$allocator@PBVioEtcItem@@@std@@@std@@IBEII@Z ; std::vector<ioEtcItem const *,std::allocator<ioEtcItem const *> >::_Grow_to
; Function compile flags: /Ogsp
;	COMDAT ?_Grow_to@?$vector@PBVioEtcItem@@V?$allocator@PBVioEtcItem@@@std@@@std@@IBEII@Z
_TEXT	SEGMENT
__Count$ = 8						; size = 4
?_Grow_to@?$vector@PBVioEtcItem@@V?$allocator@PBVioEtcItem@@@std@@@std@@IBEII@Z PROC ; std::vector<ioEtcItem const *,std::allocator<ioEtcItem const *> >::_Grow_to, COMDAT
; _this$ = ecx

; 1274 : 		{	// grow by 50% or at least to _Count

  00000	55		 push	 ebp
  00001	8b ec		 mov	 ebp, esp

; 1275 : 		size_type _Capacity = capacity();

  00003	8b 41 08	 mov	 eax, DWORD PTR [ecx+8]
  00006	2b 01		 sub	 eax, DWORD PTR [ecx]

; 1276 : 
; 1277 : 		_Capacity = max_size() - _Capacity / 2 < _Capacity
; 1278 : 			? 0 : _Capacity + _Capacity / 2;	// try to grow by 50%

  00008	ba ff ff ff 3f	 mov	 edx, 1073741823		; 3fffffffH
  0000d	c1 f8 02	 sar	 eax, 2
  00010	8b c8		 mov	 ecx, eax
  00012	d1 e9		 shr	 ecx, 1
  00014	2b d1		 sub	 edx, ecx
  00016	3b d0		 cmp	 edx, eax
  00018	73 04		 jae	 SHORT $LN4@Grow_to
  0001a	33 c0		 xor	 eax, eax
  0001c	eb 02		 jmp	 SHORT $LN5@Grow_to
$LN4@Grow_to:
  0001e	03 c1		 add	 eax, ecx
$LN5@Grow_to:

; 1279 : 		if (_Capacity < _Count)

  00020	3b 45 08	 cmp	 eax, DWORD PTR __Count$[ebp]

; 1280 : 			_Capacity = _Count;

  00023	0f 42 45 08	 cmovb	 eax, DWORD PTR __Count$[ebp]

; 1281 : 		return (_Capacity);
; 1282 : 		}

  00027	5d		 pop	 ebp
  00028	c2 04 00	 ret	 4
?_Grow_to@?$vector@PBVioEtcItem@@V?$allocator@PBVioEtcItem@@@std@@@std@@IBEII@Z ENDP ; std::vector<ioEtcItem const *,std::allocator<ioEtcItem const *> >::_Grow_to
_TEXT	ENDS
PUBLIC	??0?$_Tree_nod@V?$_Tmap_traits@KPAVioEtcItem@@U?$less@K@std@@V?$allocator@U?$pair@$$CBKPAVioEtcItem@@@std@@@3@$0A@@std@@@std@@QAE@ABU?$less@K@1@V?$allocator@U?$pair@$$CBKPAVioEtcItem@@@std@@@1@@Z ; std::_Tree_nod<std::_Tmap_traits<unsigned long,ioEtcItem *,std::less<unsigned long>,std::allocator<std::pair<unsigned long const ,ioEtcItem *> >,0> >::_Tree_nod<std::_Tmap_traits<unsigned long,ioEtcItem *,std::less<unsigned long>,std::allocator<std::pair<unsigned long const ,ioEtcItem *> >,0> >
; Function compile flags: /Ogsp
; File c:\program files (x86)\microsoft visual studio 10.0\vc\include\xtree
;	COMDAT ??0?$_Tree_nod@V?$_Tmap_traits@KPAVioEtcItem@@U?$less@K@std@@V?$allocator@U?$pair@$$CBKPAVioEtcItem@@@std@@@3@$0A@@std@@@std@@QAE@ABU?$less@K@1@V?$allocator@U?$pair@$$CBKPAVioEtcItem@@@std@@@1@@Z
_TEXT	SEGMENT
__Parg$ = 8						; size = 4
__Al$ = 12						; size = 1
??0?$_Tree_nod@V?$_Tmap_traits@KPAVioEtcItem@@U?$less@K@std@@V?$allocator@U?$pair@$$CBKPAVioEtcItem@@@std@@@3@$0A@@std@@@std@@QAE@ABU?$less@K@1@V?$allocator@U?$pair@$$CBKPAVioEtcItem@@@std@@@1@@Z PROC ; std::_Tree_nod<std::_Tmap_traits<unsigned long,ioEtcItem *,std::less<unsigned long>,std::allocator<std::pair<unsigned long const ,ioEtcItem *> >,0> >::_Tree_nod<std::_Tmap_traits<unsigned long,ioEtcItem *,std::less<unsigned long>,std::allocator<std::pair<unsigned long const ,ioEtcItem *> >,0> >, COMDAT
; _this$ = ecx

; 482  : 		{	// construct traits from _Parg and allocators from _Al

  00000	8b c1		 mov	 eax, ecx

; 483  : 		}

  00002	c2 08 00	 ret	 8
??0?$_Tree_nod@V?$_Tmap_traits@KPAVioEtcItem@@U?$less@K@std@@V?$allocator@U?$pair@$$CBKPAVioEtcItem@@@std@@@3@$0A@@std@@@std@@QAE@ABU?$less@K@1@V?$allocator@U?$pair@$$CBKPAVioEtcItem@@@std@@@1@@Z ENDP ; std::_Tree_nod<std::_Tmap_traits<unsigned long,ioEtcItem *,std::less<unsigned long>,std::allocator<std::pair<unsigned long const ,ioEtcItem *> >,0> >::_Tree_nod<std::_Tmap_traits<unsigned long,ioEtcItem *,std::less<unsigned long>,std::allocator<std::pair<unsigned long const ,ioEtcItem *> >,0> >
_TEXT	ENDS
PUBLIC	?allocate@?$allocator@U_Node@?$_Tree_nod@V?$_Tmap_traits@KPAVioEtcItem@@U?$less@K@std@@V?$allocator@U?$pair@$$CBKPAVioEtcItem@@@std@@@3@$0A@@std@@@std@@@std@@QAEPAU_Node@?$_Tree_nod@V?$_Tmap_traits@KPAVioEtcItem@@U?$less@K@std@@V?$allocator@U?$pair@$$CBKPAVioEtcItem@@@std@@@3@$0A@@std@@@2@I@Z ; std::allocator<std::_Tree_nod<std::_Tmap_traits<unsigned long,ioEtcItem *,std::less<unsigned long>,std::allocator<std::pair<unsigned long const ,ioEtcItem *> >,0> >::_Node>::allocate
; Function compile flags: /Ogsp
; File c:\program files (x86)\microsoft visual studio 10.0\vc\include\xmemory
;	COMDAT ?allocate@?$allocator@U_Node@?$_Tree_nod@V?$_Tmap_traits@KPAVioEtcItem@@U?$less@K@std@@V?$allocator@U?$pair@$$CBKPAVioEtcItem@@@std@@@3@$0A@@std@@@std@@@std@@QAEPAU_Node@?$_Tree_nod@V?$_Tmap_traits@KPAVioEtcItem@@U?$less@K@std@@V?$allocator@U?$pair@$$CBKPAVioEtcItem@@@std@@@3@$0A@@std@@@2@I@Z
_TEXT	SEGMENT
__Count$ = 8						; size = 4
?allocate@?$allocator@U_Node@?$_Tree_nod@V?$_Tmap_traits@KPAVioEtcItem@@U?$less@K@std@@V?$allocator@U?$pair@$$CBKPAVioEtcItem@@@std@@@3@$0A@@std@@@std@@@std@@QAEPAU_Node@?$_Tree_nod@V?$_Tmap_traits@KPAVioEtcItem@@U?$less@K@std@@V?$allocator@U?$pair@$$CBKPAVioEtcItem@@@std@@@3@$0A@@std@@@2@I@Z PROC ; std::allocator<std::_Tree_nod<std::_Tmap_traits<unsigned long,ioEtcItem *,std::less<unsigned long>,std::allocator<std::pair<unsigned long const ,ioEtcItem *> >,0> >::_Node>::allocate, COMDAT
; _this$ = ecx

; 186  : 		{	// allocate array of _Count elements

  00000	55		 push	 ebp
  00001	8b ec		 mov	 ebp, esp

; 187  : 		return (_Allocate(_Count, (pointer)0));

  00003	6a 00		 push	 0
  00005	ff 75 08	 push	 DWORD PTR __Count$[ebp]
  00008	e8 00 00 00 00	 call	 ??$_Allocate@U_Node@?$_Tree_nod@V?$_Tmap_traits@KPAVioEtcItem@@U?$less@K@std@@V?$allocator@U?$pair@$$CBKPAVioEtcItem@@@std@@@3@$0A@@std@@@std@@@std@@YAPAU_Node@?$_Tree_nod@V?$_Tmap_traits@KPAVioEtcItem@@U?$less@K@std@@V?$allocator@U?$pair@$$CBKPAVioEtcItem@@@std@@@3@$0A@@std@@@0@IPAU120@@Z ; std::_Allocate<std::_Tree_nod<std::_Tmap_traits<unsigned long,ioEtcItem *,std::less<unsigned long>,std::allocator<std::pair<unsigned long const ,ioEtcItem *> >,0> >::_Node>
  0000d	59		 pop	 ecx
  0000e	59		 pop	 ecx

; 188  : 		}

  0000f	5d		 pop	 ebp
  00010	c2 04 00	 ret	 4
?allocate@?$allocator@U_Node@?$_Tree_nod@V?$_Tmap_traits@KPAVioEtcItem@@U?$less@K@std@@V?$allocator@U?$pair@$$CBKPAVioEtcItem@@@std@@@3@$0A@@std@@@std@@@std@@QAEPAU_Node@?$_Tree_nod@V?$_Tmap_traits@KPAVioEtcItem@@U?$less@K@std@@V?$allocator@U?$pair@$$CBKPAVioEtcItem@@@std@@@3@$0A@@std@@@2@I@Z ENDP ; std::allocator<std::_Tree_nod<std::_Tmap_traits<unsigned long,ioEtcItem *,std::less<unsigned long>,std::allocator<std::pair<unsigned long const ,ioEtcItem *> >,0> >::_Node>::allocate
_TEXT	ENDS
PUBLIC	?allocate@?$allocator@PBVioEtcItem@@@std@@QAEPAPBVioEtcItem@@I@Z ; std::allocator<ioEtcItem const *>::allocate
; Function compile flags: /Ogsp
;	COMDAT ?allocate@?$allocator@PBVioEtcItem@@@std@@QAEPAPBVioEtcItem@@I@Z
_TEXT	SEGMENT
__Count$ = 8						; size = 4
?allocate@?$allocator@PBVioEtcItem@@@std@@QAEPAPBVioEtcItem@@I@Z PROC ; std::allocator<ioEtcItem const *>::allocate, COMDAT
; _this$ = ecx

; 186  : 		{	// allocate array of _Count elements

  00000	55		 push	 ebp
  00001	8b ec		 mov	 ebp, esp

; 187  : 		return (_Allocate(_Count, (pointer)0));

  00003	6a 00		 push	 0
  00005	ff 75 08	 push	 DWORD PTR __Count$[ebp]
  00008	e8 00 00 00 00	 call	 ??$_Allocate@PBVioEtcItem@@@std@@YAPAPBVioEtcItem@@IPAPBV1@@Z ; std::_Allocate<ioEtcItem const *>
  0000d	59		 pop	 ecx
  0000e	59		 pop	 ecx

; 188  : 		}

  0000f	5d		 pop	 ebp
  00010	c2 04 00	 ret	 4
?allocate@?$allocator@PBVioEtcItem@@@std@@QAEPAPBVioEtcItem@@I@Z ENDP ; std::allocator<ioEtcItem const *>::allocate
_TEXT	ENDS
PUBLIC	?_Lrotate@?$_Tree@V?$_Tmap_traits@KPAVioEtcItem@@U?$less@K@std@@V?$allocator@U?$pair@$$CBKPAVioEtcItem@@@std@@@3@$0A@@std@@@std@@IAEXPAU_Node@?$_Tree_nod@V?$_Tmap_traits@KPAVioEtcItem@@U?$less@K@std@@V?$allocator@U?$pair@$$CBKPAVioEtcItem@@@std@@@3@$0A@@std@@@2@@Z ; std::_Tree<std::_Tmap_traits<unsigned long,ioEtcItem *,std::less<unsigned long>,std::allocator<std::pair<unsigned long const ,ioEtcItem *> >,0> >::_Lrotate
; Function compile flags: /Ogsp
; File c:\program files (x86)\microsoft visual studio 10.0\vc\include\xtree
;	COMDAT ?_Lrotate@?$_Tree@V?$_Tmap_traits@KPAVioEtcItem@@U?$less@K@std@@V?$allocator@U?$pair@$$CBKPAVioEtcItem@@@std@@@3@$0A@@std@@@std@@IAEXPAU_Node@?$_Tree_nod@V?$_Tmap_traits@KPAVioEtcItem@@U?$less@K@std@@V?$allocator@U?$pair@$$CBKPAVioEtcItem@@@std@@@3@$0A@@std@@@2@@Z
_TEXT	SEGMENT
__Wherenode$ = 8					; size = 4
?_Lrotate@?$_Tree@V?$_Tmap_traits@KPAVioEtcItem@@U?$less@K@std@@V?$allocator@U?$pair@$$CBKPAVioEtcItem@@@std@@@3@$0A@@std@@@std@@IAEXPAU_Node@?$_Tree_nod@V?$_Tmap_traits@KPAVioEtcItem@@U?$less@K@std@@V?$allocator@U?$pair@$$CBKPAVioEtcItem@@@std@@@3@$0A@@std@@@2@@Z PROC ; std::_Tree<std::_Tmap_traits<unsigned long,ioEtcItem *,std::less<unsigned long>,std::allocator<std::pair<unsigned long const ,ioEtcItem *> >,0> >::_Lrotate, COMDAT
; _this$ = ecx

; 1763 : 		{	// promote right node to root of subtree

  00000	55		 push	 ebp
  00001	8b ec		 mov	 ebp, esp

; 1764 : 		_Nodeptr _Pnode = this->_Right(_Wherenode);

  00003	8b 55 08	 mov	 edx, DWORD PTR __Wherenode$[ebp]
  00006	8b 42 08	 mov	 eax, DWORD PTR [edx+8]
  00009	56		 push	 esi

; 1765 : 		this->_Right(_Wherenode) = this->_Left(_Pnode);

  0000a	8b 30		 mov	 esi, DWORD PTR [eax]
  0000c	89 72 08	 mov	 DWORD PTR [edx+8], esi

; 1766 : 
; 1767 : 		if (!this->_Isnil(this->_Left(_Pnode)))

  0000f	8b 30		 mov	 esi, DWORD PTR [eax]
  00011	80 7e 15 00	 cmp	 BYTE PTR [esi+21], 0
  00015	75 03		 jne	 SHORT $LN5@Lrotate

; 1768 : 			this->_Parent(this->_Left(_Pnode)) = _Wherenode;

  00017	89 56 04	 mov	 DWORD PTR [esi+4], edx
$LN5@Lrotate:

; 1769 : 		this->_Parent(_Pnode) = this->_Parent(_Wherenode);

  0001a	8b 72 04	 mov	 esi, DWORD PTR [edx+4]
  0001d	89 70 04	 mov	 DWORD PTR [eax+4], esi

; 1770 : 
; 1771 : 		if (_Wherenode == _Root())

  00020	8b 49 04	 mov	 ecx, DWORD PTR [ecx+4]
  00023	5e		 pop	 esi
  00024	3b 51 04	 cmp	 edx, DWORD PTR [ecx+4]
  00027	75 05		 jne	 SHORT $LN4@Lrotate

; 1772 : 			_Root() = _Pnode;

  00029	89 41 04	 mov	 DWORD PTR [ecx+4], eax

; 1773 : 		else if (_Wherenode == this->_Left(this->_Parent(_Wherenode)))

  0002c	eb 0e		 jmp	 SHORT $LN1@Lrotate
$LN4@Lrotate:
  0002e	8b 4a 04	 mov	 ecx, DWORD PTR [edx+4]
  00031	3b 11		 cmp	 edx, DWORD PTR [ecx]
  00033	75 04		 jne	 SHORT $LN2@Lrotate

; 1774 : 			this->_Left(this->_Parent(_Wherenode)) = _Pnode;

  00035	89 01		 mov	 DWORD PTR [ecx], eax

; 1775 : 		else

  00037	eb 03		 jmp	 SHORT $LN1@Lrotate
$LN2@Lrotate:

; 1776 : 			this->_Right(this->_Parent(_Wherenode)) = _Pnode;

  00039	89 41 08	 mov	 DWORD PTR [ecx+8], eax
$LN1@Lrotate:

; 1777 : 
; 1778 : 		this->_Left(_Pnode) = _Wherenode;

  0003c	89 10		 mov	 DWORD PTR [eax], edx

; 1779 : 		this->_Parent(_Wherenode) = _Pnode;

  0003e	89 42 04	 mov	 DWORD PTR [edx+4], eax

; 1780 : 		}

  00041	5d		 pop	 ebp
  00042	c2 04 00	 ret	 4
?_Lrotate@?$_Tree@V?$_Tmap_traits@KPAVioEtcItem@@U?$less@K@std@@V?$allocator@U?$pair@$$CBKPAVioEtcItem@@@std@@@3@$0A@@std@@@std@@IAEXPAU_Node@?$_Tree_nod@V?$_Tmap_traits@KPAVioEtcItem@@U?$less@K@std@@V?$allocator@U?$pair@$$CBKPAVioEtcItem@@@std@@@3@$0A@@std@@@2@@Z ENDP ; std::_Tree<std::_Tmap_traits<unsigned long,ioEtcItem *,std::less<unsigned long>,std::allocator<std::pair<unsigned long const ,ioEtcItem *> >,0> >::_Lrotate
_TEXT	ENDS
PUBLIC	?_Rrotate@?$_Tree@V?$_Tmap_traits@KPAVioEtcItem@@U?$less@K@std@@V?$allocator@U?$pair@$$CBKPAVioEtcItem@@@std@@@3@$0A@@std@@@std@@IAEXPAU_Node@?$_Tree_nod@V?$_Tmap_traits@KPAVioEtcItem@@U?$less@K@std@@V?$allocator@U?$pair@$$CBKPAVioEtcItem@@@std@@@3@$0A@@std@@@2@@Z ; std::_Tree<std::_Tmap_traits<unsigned long,ioEtcItem *,std::less<unsigned long>,std::allocator<std::pair<unsigned long const ,ioEtcItem *> >,0> >::_Rrotate
; Function compile flags: /Ogsp
;	COMDAT ?_Rrotate@?$_Tree@V?$_Tmap_traits@KPAVioEtcItem@@U?$less@K@std@@V?$allocator@U?$pair@$$CBKPAVioEtcItem@@@std@@@3@$0A@@std@@@std@@IAEXPAU_Node@?$_Tree_nod@V?$_Tmap_traits@KPAVioEtcItem@@U?$less@K@std@@V?$allocator@U?$pair@$$CBKPAVioEtcItem@@@std@@@3@$0A@@std@@@2@@Z
_TEXT	SEGMENT
__Wherenode$ = 8					; size = 4
?_Rrotate@?$_Tree@V?$_Tmap_traits@KPAVioEtcItem@@U?$less@K@std@@V?$allocator@U?$pair@$$CBKPAVioEtcItem@@@std@@@3@$0A@@std@@@std@@IAEXPAU_Node@?$_Tree_nod@V?$_Tmap_traits@KPAVioEtcItem@@U?$less@K@std@@V?$allocator@U?$pair@$$CBKPAVioEtcItem@@@std@@@3@$0A@@std@@@2@@Z PROC ; std::_Tree<std::_Tmap_traits<unsigned long,ioEtcItem *,std::less<unsigned long>,std::allocator<std::pair<unsigned long const ,ioEtcItem *> >,0> >::_Rrotate, COMDAT
; _this$ = ecx

; 1793 : 		{	// promote left node to root of subtree

  00000	55		 push	 ebp
  00001	8b ec		 mov	 ebp, esp

; 1794 : 		_Nodeptr _Pnode = this->_Left(_Wherenode);

  00003	8b 55 08	 mov	 edx, DWORD PTR __Wherenode$[ebp]
  00006	8b 02		 mov	 eax, DWORD PTR [edx]
  00008	56		 push	 esi

; 1795 : 		this->_Left(_Wherenode) = this->_Right(_Pnode);

  00009	8b 70 08	 mov	 esi, DWORD PTR [eax+8]
  0000c	89 32		 mov	 DWORD PTR [edx], esi

; 1796 : 
; 1797 : 		if (!this->_Isnil(this->_Right(_Pnode)))

  0000e	8b 70 08	 mov	 esi, DWORD PTR [eax+8]
  00011	80 7e 15 00	 cmp	 BYTE PTR [esi+21], 0
  00015	75 03		 jne	 SHORT $LN5@Rrotate

; 1798 : 			this->_Parent(this->_Right(_Pnode)) = _Wherenode;

  00017	89 56 04	 mov	 DWORD PTR [esi+4], edx
$LN5@Rrotate:

; 1799 : 		this->_Parent(_Pnode) = this->_Parent(_Wherenode);

  0001a	8b 72 04	 mov	 esi, DWORD PTR [edx+4]
  0001d	89 70 04	 mov	 DWORD PTR [eax+4], esi

; 1800 : 
; 1801 : 		if (_Wherenode == _Root())

  00020	8b 49 04	 mov	 ecx, DWORD PTR [ecx+4]
  00023	5e		 pop	 esi
  00024	3b 51 04	 cmp	 edx, DWORD PTR [ecx+4]
  00027	75 05		 jne	 SHORT $LN4@Rrotate

; 1802 : 			_Root() = _Pnode;

  00029	89 41 04	 mov	 DWORD PTR [ecx+4], eax

; 1803 : 		else if (_Wherenode == this->_Right(this->_Parent(_Wherenode)))

  0002c	eb 0f		 jmp	 SHORT $LN1@Rrotate
$LN4@Rrotate:
  0002e	8b 4a 04	 mov	 ecx, DWORD PTR [edx+4]
  00031	3b 51 08	 cmp	 edx, DWORD PTR [ecx+8]
  00034	75 05		 jne	 SHORT $LN2@Rrotate

; 1804 : 			this->_Right(this->_Parent(_Wherenode)) = _Pnode;

  00036	89 41 08	 mov	 DWORD PTR [ecx+8], eax

; 1805 : 		else

  00039	eb 02		 jmp	 SHORT $LN1@Rrotate
$LN2@Rrotate:

; 1806 : 			this->_Left(this->_Parent(_Wherenode)) = _Pnode;

  0003b	89 01		 mov	 DWORD PTR [ecx], eax
$LN1@Rrotate:

; 1807 : 
; 1808 : 		this->_Right(_Pnode) = _Wherenode;

  0003d	89 50 08	 mov	 DWORD PTR [eax+8], edx

; 1809 : 		this->_Parent(_Wherenode) = _Pnode;

  00040	89 42 04	 mov	 DWORD PTR [edx+4], eax

; 1810 : 		}

  00043	5d		 pop	 ebp
  00044	c2 04 00	 ret	 4
?_Rrotate@?$_Tree@V?$_Tmap_traits@KPAVioEtcItem@@U?$less@K@std@@V?$allocator@U?$pair@$$CBKPAVioEtcItem@@@std@@@3@$0A@@std@@@std@@IAEXPAU_Node@?$_Tree_nod@V?$_Tmap_traits@KPAVioEtcItem@@U?$less@K@std@@V?$allocator@U?$pair@$$CBKPAVioEtcItem@@@std@@@3@$0A@@std@@@2@@Z ENDP ; std::_Tree<std::_Tmap_traits<unsigned long,ioEtcItem *,std::less<unsigned long>,std::allocator<std::pair<unsigned long const ,ioEtcItem *> >,0> >::_Rrotate
_TEXT	ENDS
PUBLIC	__$ArrayPad$
PUBLIC	??$LoadInt_e@$04@ioINILoader@@QAEHAAY04$$CBDH@Z	; ioINILoader::LoadInt_e<5>
EXTRN	__imp_?LoadInt@ioINILoader@@QAEHPBDH@Z:PROC
EXTRN	___security_cookie:DWORD
; Function compile flags: /Ogsp
; File d:\lost saga for developer\youtube\tutorial\source\src\io3dengine\ioiniloader.h
;	COMDAT ??$LoadInt_e@$04@ioINILoader@@QAEHAAY04$$CBDH@Z
_TEXT	SEGMENT
__k$ = -16						; size = 5
__$ArrayPad$ = -4					; size = 4
_k$ = 8							; size = 4
_i$ = 12						; size = 4
??$LoadInt_e@$04@ioINILoader@@QAEHAAY04$$CBDH@Z PROC	; ioINILoader::LoadInt_e<5>, COMDAT
; _this$ = ecx

; 118  : 	{

  00000	55		 push	 ebp
  00001	8b ec		 mov	 ebp, esp
  00003	83 ec 10	 sub	 esp, 16			; 00000010H
  00006	a1 00 00 00 00	 mov	 eax, DWORD PTR ___security_cookie
  0000b	33 c5		 xor	 eax, ebp
  0000d	89 45 fc	 mov	 DWORD PTR __$ArrayPad$[ebp], eax
  00010	8b 45 08	 mov	 eax, DWORD PTR _k$[ebp]

; 119  : 		_ENCSTR(k, _k);

  00013	8a 10		 mov	 dl, BYTE PTR [eax]
  00015	84 d2		 test	 dl, dl
  00017	0f 84 92 00 00
	00		 je	 $LN96@LoadInt_e
  0001d	80 f2 ed	 xor	 dl, -19			; ffffffedH
  00020	88 55 f0	 mov	 BYTE PTR __k$[ebp], dl
  00023	8a 50 01	 mov	 dl, BYTE PTR [eax+1]
  00026	84 d2		 test	 dl, dl
  00028	74 7f		 je	 SHORT $LN95@LoadInt_e
  0002a	80 f2 ec	 xor	 dl, -20			; ffffffecH
  0002d	88 55 f1	 mov	 BYTE PTR __k$[ebp+1], dl
  00030	8a 50 02	 mov	 dl, BYTE PTR [eax+2]
  00033	84 d2		 test	 dl, dl
  00035	74 6c		 je	 SHORT $LN94@LoadInt_e
  00037	80 f2 eb	 xor	 dl, -21			; ffffffebH
  0003a	88 55 f2	 mov	 BYTE PTR __k$[ebp+2], dl
  0003d	8a 50 03	 mov	 dl, BYTE PTR [eax+3]
  00040	84 d2		 test	 dl, dl
  00042	74 59		 je	 SHORT $LN93@LoadInt_e
  00044	80 f2 ea	 xor	 dl, -22			; ffffffeaH
  00047	80 78 04 00	 cmp	 BYTE PTR [eax+4], 0
  0004b	88 55 f3	 mov	 BYTE PTR __k$[ebp+3], dl
  0004e	74 63		 je	 SHORT $LN1@LoadInt_e
  00050	8a 50 05	 mov	 dl, BYTE PTR [eax+5]
  00053	84 d2		 test	 dl, dl
  00055	74 40		 je	 SHORT $LN91@LoadInt_e
  00057	80 f2 ec	 xor	 dl, -20			; ffffffecH
  0005a	88 55 f5	 mov	 BYTE PTR __k$[ebp+5], dl
  0005d	8a 50 06	 mov	 dl, BYTE PTR [eax+6]
  00060	84 d2		 test	 dl, dl
  00062	74 2d		 je	 SHORT $LN90@LoadInt_e
  00064	80 f2 eb	 xor	 dl, -21			; ffffffebH
  00067	88 55 f6	 mov	 BYTE PTR __k$[ebp+6], dl
  0006a	8a 50 07	 mov	 dl, BYTE PTR [eax+7]
  0006d	84 d2		 test	 dl, dl
  0006f	74 1a		 je	 SHORT $LN89@LoadInt_e
  00071	8a 40 08	 mov	 al, BYTE PTR [eax+8]
  00074	80 f2 ea	 xor	 dl, -22			; ffffffeaH
  00077	88 55 f7	 mov	 BYTE PTR __k$[ebp+7], dl
  0007a	84 c0		 test	 al, al
  0007c	74 07		 je	 SHORT $LN88@LoadInt_e
  0007e	34 ed		 xor	 al, -19			; ffffffedH
  00080	88 45 f8	 mov	 BYTE PTR __k$[ebp+8], al
  00083	eb 2e		 jmp	 SHORT $LN1@LoadInt_e
$LN88@LoadInt_e:
  00085	c6 45 f8 ed	 mov	 BYTE PTR __k$[ebp+8], -19 ; ffffffedH
  00089	eb 28		 jmp	 SHORT $LN1@LoadInt_e
$LN89@LoadInt_e:
  0008b	c6 45 f7 ea	 mov	 BYTE PTR __k$[ebp+7], -22 ; ffffffeaH
  0008f	eb 22		 jmp	 SHORT $LN1@LoadInt_e
$LN90@LoadInt_e:
  00091	c6 45 f6 eb	 mov	 BYTE PTR __k$[ebp+6], -21 ; ffffffebH
  00095	eb 1c		 jmp	 SHORT $LN1@LoadInt_e
$LN91@LoadInt_e:
  00097	c6 45 f5 ec	 mov	 BYTE PTR __k$[ebp+5], -20 ; ffffffecH
  0009b	eb 16		 jmp	 SHORT $LN1@LoadInt_e
$LN93@LoadInt_e:
  0009d	c6 45 f3 ea	 mov	 BYTE PTR __k$[ebp+3], -22 ; ffffffeaH
  000a1	eb 10		 jmp	 SHORT $LN1@LoadInt_e
$LN94@LoadInt_e:
  000a3	c6 45 f2 eb	 mov	 BYTE PTR __k$[ebp+2], -21 ; ffffffebH
  000a7	eb 0a		 jmp	 SHORT $LN1@LoadInt_e
$LN95@LoadInt_e:
  000a9	c6 45 f1 ec	 mov	 BYTE PTR __k$[ebp+1], -20 ; ffffffecH
  000ad	eb 04		 jmp	 SHORT $LN1@LoadInt_e
$LN96@LoadInt_e:
  000af	c6 45 f0 ed	 mov	 BYTE PTR __k$[ebp], -19	; ffffffedH
$LN1@LoadInt_e:

; 120  : 		return LoadInt(_k, i);

  000b3	ff 75 0c	 push	 DWORD PTR _i$[ebp]
  000b6	81 75 f0 ed ec
	eb ea		 xor	 DWORD PTR __k$[ebp], -353637139 ; eaebecedH
  000bd	8d 45 f0	 lea	 eax, DWORD PTR __k$[ebp]
  000c0	50		 push	 eax
  000c1	c6 45 f4 00	 mov	 BYTE PTR __k$[ebp+4], 0
  000c5	ff 15 00 00 00
	00		 call	 DWORD PTR __imp_?LoadInt@ioINILoader@@QAEHPBDH@Z

; 121  : 	}

  000cb	8b 4d fc	 mov	 ecx, DWORD PTR __$ArrayPad$[ebp]
  000ce	33 cd		 xor	 ecx, ebp
  000d0	e8 00 00 00 00	 call	 @__security_check_cookie@4
  000d5	c9		 leave
  000d6	c2 08 00	 ret	 8
??$LoadInt_e@$04@ioINILoader@@QAEHAAY04$$CBDH@Z ENDP	; ioINILoader::LoadInt_e<5>
_TEXT	ENDS
PUBLIC	??$?0KAAPAVioEtcItem@@@?$pair@$$CBKPAVioEtcItem@@@std@@QAE@$$QAKAAPAVioEtcItem@@@Z ; std::pair<unsigned long const ,ioEtcItem *>::pair<unsigned long const ,ioEtcItem *><unsigned long,ioEtcItem * &>
; Function compile flags: /Ogsp
; File c:\program files (x86)\microsoft visual studio 10.0\vc\include\utility
;	COMDAT ??$?0KAAPAVioEtcItem@@@?$pair@$$CBKPAVioEtcItem@@@std@@QAE@$$QAKAAPAVioEtcItem@@@Z
_TEXT	SEGMENT
__Val1$ = 8						; size = 4
__Val2$ = 12						; size = 4
??$?0KAAPAVioEtcItem@@@?$pair@$$CBKPAVioEtcItem@@@std@@QAE@$$QAKAAPAVioEtcItem@@@Z PROC ; std::pair<unsigned long const ,ioEtcItem *>::pair<unsigned long const ,ioEtcItem *><unsigned long,ioEtcItem * &>, COMDAT
; _this$ = ecx

; 247  : 		{	// construct from moved values

  00000	55		 push	 ebp
  00001	8b ec		 mov	 ebp, esp
  00003	8b c1		 mov	 eax, ecx
  00005	8b 4d 08	 mov	 ecx, DWORD PTR __Val1$[ebp]
  00008	8b 09		 mov	 ecx, DWORD PTR [ecx]
  0000a	89 08		 mov	 DWORD PTR [eax], ecx
  0000c	8b 4d 0c	 mov	 ecx, DWORD PTR __Val2$[ebp]
  0000f	8b 09		 mov	 ecx, DWORD PTR [ecx]
  00011	89 48 04	 mov	 DWORD PTR [eax+4], ecx

; 248  : 		}

  00014	5d		 pop	 ebp
  00015	c2 08 00	 ret	 8
??$?0KAAPAVioEtcItem@@@?$pair@$$CBKPAVioEtcItem@@@std@@QAE@$$QAKAAPAVioEtcItem@@@Z ENDP ; std::pair<unsigned long const ,ioEtcItem *>::pair<unsigned long const ,ioEtcItem *><unsigned long,ioEtcItem * &>
_TEXT	ENDS
PUBLIC	??$_Cons_val@V?$allocator@PBVioEtcItem@@@std@@PBVioEtcItem@@AAPBV3@@std@@YAXAAV?$allocator@PBVioEtcItem@@@0@PAPBVioEtcItem@@AAPBV2@@Z ; std::_Cons_val<std::allocator<ioEtcItem const *>,ioEtcItem const *,ioEtcItem const * &>
; Function compile flags: /Ogsp
; File c:\program files (x86)\microsoft visual studio 10.0\vc\include\xmemory
;	COMDAT ??$_Cons_val@V?$allocator@PBVioEtcItem@@@std@@PBVioEtcItem@@AAPBV3@@std@@YAXAAV?$allocator@PBVioEtcItem@@@0@PAPBVioEtcItem@@AAPBV2@@Z
_TEXT	SEGMENT
__Alval$ = 8						; size = 4
__Pdest$ = 12						; size = 4
__Src$ = 16						; size = 4
??$_Cons_val@V?$allocator@PBVioEtcItem@@@std@@PBVioEtcItem@@AAPBV3@@std@@YAXAAV?$allocator@PBVioEtcItem@@@0@PAPBVioEtcItem@@AAPBV2@@Z PROC ; std::_Cons_val<std::allocator<ioEtcItem const *>,ioEtcItem const *,ioEtcItem const * &>, COMDAT

; 279  : 	{	// construct using allocator

  00000	55		 push	 ebp
  00001	8b ec		 mov	 ebp, esp

; 280  : 	_Alval.construct(_Pdest, _STD forward<_Ty2>(_Src));

  00003	8b 45 0c	 mov	 eax, DWORD PTR __Pdest$[ebp]
  00006	85 c0		 test	 eax, eax
  00008	74 07		 je	 SHORT $LN7@Cons_val
  0000a	8b 4d 10	 mov	 ecx, DWORD PTR __Src$[ebp]
  0000d	8b 09		 mov	 ecx, DWORD PTR [ecx]
  0000f	89 08		 mov	 DWORD PTR [eax], ecx
$LN7@Cons_val:

; 281  : 	}

  00011	5d		 pop	 ebp
  00012	c3		 ret	 0
??$_Cons_val@V?$allocator@PBVioEtcItem@@@std@@PBVioEtcItem@@AAPBV3@@std@@YAXAAV?$allocator@PBVioEtcItem@@@0@PAPBVioEtcItem@@AAPBV2@@Z ENDP ; std::_Cons_val<std::allocator<ioEtcItem const *>,ioEtcItem const *,ioEtcItem const * &>
_TEXT	ENDS
PUBLIC	??$_Destroy_range@V?$allocator@PBVioEtcItem@@@std@@@std@@YAXPAPBVioEtcItem@@0AAV?$allocator@PBVioEtcItem@@@0@@Z ; std::_Destroy_range<std::allocator<ioEtcItem const *> >
; Function compile flags: /Ogsp
;	COMDAT ??$_Destroy_range@V?$allocator@PBVioEtcItem@@@std@@@std@@YAXPAPBVioEtcItem@@0AAV?$allocator@PBVioEtcItem@@@0@@Z
_TEXT	SEGMENT
__First$ = 8						; size = 4
__Last$ = 12						; size = 4
__Al$ = 16						; size = 4
??$_Destroy_range@V?$allocator@PBVioEtcItem@@@std@@@std@@YAXPAPBVioEtcItem@@0AAV?$allocator@PBVioEtcItem@@@0@@Z PROC ; std::_Destroy_range<std::allocator<ioEtcItem const *> >, COMDAT

; 88   : 	_Destroy_range(_First, _Last, _Al, _Ptr_cat(_First, _Last));
; 89   : 	}

  00000	c3		 ret	 0
??$_Destroy_range@V?$allocator@PBVioEtcItem@@@std@@@std@@YAXPAPBVioEtcItem@@0AAV?$allocator@PBVioEtcItem@@@0@@Z ENDP ; std::_Destroy_range<std::allocator<ioEtcItem const *> >
_TEXT	ENDS
PUBLIC	?construct@?$allocator@H@std@@QAEXPAH$$QAH@Z	; std::allocator<int>::construct
; Function compile flags: /Ogsp
;	COMDAT ?construct@?$allocator@H@std@@QAEXPAH$$QAH@Z
_TEXT	SEGMENT
__Ptr$ = 8						; size = 4
__Val$ = 12						; size = 4
?construct@?$allocator@H@std@@QAEXPAH$$QAH@Z PROC	; std::allocator<int>::construct, COMDAT
; _this$ = ecx

; 201  : 		{	// construct object at _Ptr with value _Val

  00000	55		 push	 ebp
  00001	8b ec		 mov	 ebp, esp

; 202  : 		::new ((void _FARQ *)_Ptr) _Ty(_STD forward<_Ty>(_Val));

  00003	8b 45 08	 mov	 eax, DWORD PTR __Ptr$[ebp]
  00006	85 c0		 test	 eax, eax
  00008	74 07		 je	 SHORT $LN3@construct@2
  0000a	8b 4d 0c	 mov	 ecx, DWORD PTR __Val$[ebp]
  0000d	8b 09		 mov	 ecx, DWORD PTR [ecx]
  0000f	89 08		 mov	 DWORD PTR [eax], ecx
$LN3@construct@2:

; 203  : 		}

  00011	5d		 pop	 ebp
  00012	c2 08 00	 ret	 8
?construct@?$allocator@H@std@@QAEXPAH$$QAH@Z ENDP	; std::allocator<int>::construct
_TEXT	ENDS
PUBLIC	?destroy@?$allocator@U?$pair@$$CBKPAVioEtcItem@@@std@@@std@@QAEXPAU?$pair@$$CBKPAVioEtcItem@@@2@@Z ; std::allocator<std::pair<unsigned long const ,ioEtcItem *> >::destroy
; Function compile flags: /Ogsp
;	COMDAT ?destroy@?$allocator@U?$pair@$$CBKPAVioEtcItem@@@std@@@std@@QAEXPAU?$pair@$$CBKPAVioEtcItem@@@2@@Z
_TEXT	SEGMENT
__Ptr$ = 8						; size = 4
?destroy@?$allocator@U?$pair@$$CBKPAVioEtcItem@@@std@@@std@@QAEXPAU?$pair@$$CBKPAVioEtcItem@@@2@@Z PROC ; std::allocator<std::pair<unsigned long const ,ioEtcItem *> >::destroy, COMDAT
; _this$ = ecx

; 213  : 		_Destroy(_Ptr);
; 214  : 		}

  00000	c2 04 00	 ret	 4
?destroy@?$allocator@U?$pair@$$CBKPAVioEtcItem@@@std@@@std@@QAEXPAU?$pair@$$CBKPAVioEtcItem@@@2@@Z ENDP ; std::allocator<std::pair<unsigned long const ,ioEtcItem *> >::destroy
_TEXT	ENDS
PUBLIC	?construct@?$allocator@PBVioEtcItem@@@std@@QAEXPAPBVioEtcItem@@ABQBV3@@Z ; std::allocator<ioEtcItem const *>::construct
; Function compile flags: /Ogsp
;	COMDAT ?construct@?$allocator@PBVioEtcItem@@@std@@QAEXPAPBVioEtcItem@@ABQBV3@@Z
_TEXT	SEGMENT
__Ptr$ = 8						; size = 4
__Val$ = 12						; size = 4
?construct@?$allocator@PBVioEtcItem@@@std@@QAEXPAPBVioEtcItem@@ABQBV3@@Z PROC ; std::allocator<ioEtcItem const *>::construct, COMDAT
; _this$ = ecx

; 196  : 		{	// construct object at _Ptr with value _Val

  00000	55		 push	 ebp
  00001	8b ec		 mov	 ebp, esp

; 197  : 		_Construct(_Ptr, _Val);

  00003	8b 45 08	 mov	 eax, DWORD PTR __Ptr$[ebp]
  00006	85 c0		 test	 eax, eax
  00008	74 07		 je	 SHORT $LN5@construct@3
  0000a	8b 4d 0c	 mov	 ecx, DWORD PTR __Val$[ebp]
  0000d	8b 09		 mov	 ecx, DWORD PTR [ecx]
  0000f	89 08		 mov	 DWORD PTR [eax], ecx
$LN5@construct@3:

; 198  : 		}

  00011	5d		 pop	 ebp
  00012	c2 08 00	 ret	 8
?construct@?$allocator@PBVioEtcItem@@@std@@QAEXPAPBVioEtcItem@@ABQBV3@@Z ENDP ; std::allocator<ioEtcItem const *>::construct
_TEXT	ENDS
PUBLIC	?max_size@?$_Tree@V?$_Tmap_traits@KPAVioEtcItem@@U?$less@K@std@@V?$allocator@U?$pair@$$CBKPAVioEtcItem@@@std@@@3@$0A@@std@@@std@@QBEIXZ ; std::_Tree<std::_Tmap_traits<unsigned long,ioEtcItem *,std::less<unsigned long>,std::allocator<std::pair<unsigned long const ,ioEtcItem *> >,0> >::max_size
; Function compile flags: /Ogsp
; File c:\program files (x86)\microsoft visual studio 10.0\vc\include\xtree
;	COMDAT ?max_size@?$_Tree@V?$_Tmap_traits@KPAVioEtcItem@@U?$less@K@std@@V?$allocator@U?$pair@$$CBKPAVioEtcItem@@@std@@@3@$0A@@std@@@std@@QBEIXZ
_TEXT	SEGMENT
?max_size@?$_Tree@V?$_Tmap_traits@KPAVioEtcItem@@U?$less@K@std@@V?$allocator@U?$pair@$$CBKPAVioEtcItem@@@std@@@3@$0A@@std@@@std@@QBEIXZ PROC ; std::_Tree<std::_Tmap_traits<unsigned long,ioEtcItem *,std::less<unsigned long>,std::allocator<std::pair<unsigned long const ,ioEtcItem *> >,0> >::max_size, COMDAT
; _this$ = ecx

; 874  : 		return (this->_Alval.max_size());

  00000	b8 ff ff ff 1f	 mov	 eax, 536870911		; 1fffffffH

; 875  : 		}

  00005	c3		 ret	 0
?max_size@?$_Tree@V?$_Tmap_traits@KPAVioEtcItem@@U?$less@K@std@@V?$allocator@U?$pair@$$CBKPAVioEtcItem@@@std@@@3@$0A@@std@@@std@@QBEIXZ ENDP ; std::_Tree<std::_Tmap_traits<unsigned long,ioEtcItem *,std::less<unsigned long>,std::allocator<std::pair<unsigned long const ,ioEtcItem *> >,0> >::max_size
_TEXT	ENDS
PUBLIC	??F?$_Tree_const_iterator@V?$_Tree_val@V?$_Tmap_traits@KPAVioEtcItem@@U?$less@K@std@@V?$allocator@U?$pair@$$CBKPAVioEtcItem@@@std@@@3@$0A@@std@@@std@@@std@@QAEAAV01@XZ ; std::_Tree_const_iterator<std::_Tree_val<std::_Tmap_traits<unsigned long,ioEtcItem *,std::less<unsigned long>,std::allocator<std::pair<unsigned long const ,ioEtcItem *> >,0> > >::operator--
; Function compile flags: /Ogsp
;	COMDAT ??F?$_Tree_const_iterator@V?$_Tree_val@V?$_Tmap_traits@KPAVioEtcItem@@U?$less@K@std@@V?$allocator@U?$pair@$$CBKPAVioEtcItem@@@std@@@3@$0A@@std@@@std@@@std@@QAEAAV01@XZ
_TEXT	SEGMENT
??F?$_Tree_const_iterator@V?$_Tree_val@V?$_Tmap_traits@KPAVioEtcItem@@U?$less@K@std@@V?$allocator@U?$pair@$$CBKPAVioEtcItem@@@std@@@3@$0A@@std@@@std@@@std@@QAEAAV01@XZ PROC ; std::_Tree_const_iterator<std::_Tree_val<std::_Tmap_traits<unsigned long,ioEtcItem *,std::less<unsigned long>,std::allocator<std::pair<unsigned long const ,ioEtcItem *> >,0> > >::operator--, COMDAT
; _this$ = ecx

; 277  : 		{	// predecrement

  00000	56		 push	 esi
  00001	8b f1		 mov	 esi, ecx

; 278  :  #if _ITERATOR_DEBUG_LEVEL == 2
; 279  : 		if (this->_Getcont() == 0
; 280  : 			|| this->_Ptr == 0)
; 281  : 			{	// report error
; 282  : 			_DEBUG_ERROR("map/set iterator not decrementable");
; 283  : 			_SCL_SECURE_OUT_OF_RANGE;
; 284  : 			}
; 285  : 
; 286  : 		_Nodeptr _Ptrsav = this->_Ptr;
; 287  : 		--(*(_Mybase *)this);
; 288  : 		if (_Ptrsav == this->_Ptr)
; 289  : 			{	// report error
; 290  : 			_DEBUG_ERROR("map/set iterator not decrementable");
; 291  : 			_SCL_SECURE_OUT_OF_RANGE;
; 292  : 			}
; 293  : 
; 294  :  #elif _ITERATOR_DEBUG_LEVEL == 1
; 295  : 		_SCL_SECURE_VALIDATE(this->_Getcont() != 0 && this->_Ptr != 0);
; 296  : 
; 297  : 		_Nodeptr _Ptrsav = this->_Ptr;
; 298  : 		--(*(_Mybase *)this);
; 299  : 		_SCL_SECURE_VALIDATE(_Ptrsav != this->_Ptr);
; 300  : 
; 301  :  #else /* _ITERATOR_DEBUG_LEVEL == 0 */
; 302  : 		--(*(_Mybase *)this);

  00003	e8 00 00 00 00	 call	 ??F?$_Tree_unchecked_const_iterator@V?$_Tree_val@V?$_Tmap_traits@KPAVioEtcItem@@U?$less@K@std@@V?$allocator@U?$pair@$$CBKPAVioEtcItem@@@std@@@3@$0A@@std@@@std@@U_Iterator_base0@2@@std@@QAEAAV01@XZ ; std::_Tree_unchecked_const_iterator<std::_Tree_val<std::_Tmap_traits<unsigned long,ioEtcItem *,std::less<unsigned long>,std::allocator<std::pair<unsigned long const ,ioEtcItem *> >,0> >,std::_Iterator_base0>::operator--

; 303  :  #endif /* _ITERATOR_DEBUG_LEVEL */
; 304  : 
; 305  : 		return (*this);

  00008	8b c6		 mov	 eax, esi
  0000a	5e		 pop	 esi

; 306  : 		}

  0000b	c3		 ret	 0
??F?$_Tree_const_iterator@V?$_Tree_val@V?$_Tmap_traits@KPAVioEtcItem@@U?$less@K@std@@V?$allocator@U?$pair@$$CBKPAVioEtcItem@@@std@@@3@$0A@@std@@@std@@@std@@QAEAAV01@XZ ENDP ; std::_Tree_const_iterator<std::_Tree_val<std::_Tmap_traits<unsigned long,ioEtcItem *,std::less<unsigned long>,std::allocator<std::pair<unsigned long const ,ioEtcItem *> >,0> > >::operator--
_TEXT	ENDS
PUBLIC	??0?$_Pair_base@V?$_Tree_iterator@V?$_Tree_val@V?$_Tmap_traits@KPAVioEtcItem@@U?$less@K@std@@V?$allocator@U?$pair@$$CBKPAVioEtcItem@@@std@@@3@$0A@@std@@@std@@@std@@_N@std@@QAE@$$QAV?$_Tree_iterator@V?$_Tree_val@V?$_Tmap_traits@KPAVioEtcItem@@U?$less@K@std@@V?$allocator@U?$pair@$$CBKPAVioEtcItem@@@std@@@3@$0A@@std@@@std@@@1@$$QA_N@Z ; std::_Pair_base<std::_Tree_iterator<std::_Tree_val<std::_Tmap_traits<unsigned long,ioEtcItem *,std::less<unsigned long>,std::allocator<std::pair<unsigned long const ,ioEtcItem *> >,0> > >,bool>::_Pair_base<std::_Tree_iterator<std::_Tree_val<std::_Tmap_traits<unsigned long,ioEtcItem *,std::less<unsigned long>,std::allocator<std::pair<unsigned long const ,ioEtcItem *> >,0> > >,bool>
; Function compile flags: /Ogsp
; File c:\program files (x86)\microsoft visual studio 10.0\vc\include\utility
;	COMDAT ??0?$_Pair_base@V?$_Tree_iterator@V?$_Tree_val@V?$_Tmap_traits@KPAVioEtcItem@@U?$less@K@std@@V?$allocator@U?$pair@$$CBKPAVioEtcItem@@@std@@@3@$0A@@std@@@std@@@std@@_N@std@@QAE@$$QAV?$_Tree_iterator@V?$_Tree_val@V?$_Tmap_traits@KPAVioEtcItem@@U?$less@K@std@@V?$allocator@U?$pair@$$CBKPAVioEtcItem@@@std@@@3@$0A@@std@@@std@@@1@$$QA_N@Z
_TEXT	SEGMENT
__Val1$ = 8						; size = 4
__Val2$ = 12						; size = 4
??0?$_Pair_base@V?$_Tree_iterator@V?$_Tree_val@V?$_Tmap_traits@KPAVioEtcItem@@U?$less@K@std@@V?$allocator@U?$pair@$$CBKPAVioEtcItem@@@std@@@3@$0A@@std@@@std@@@std@@_N@std@@QAE@$$QAV?$_Tree_iterator@V?$_Tree_val@V?$_Tmap_traits@KPAVioEtcItem@@U?$less@K@std@@V?$allocator@U?$pair@$$CBKPAVioEtcItem@@@std@@@3@$0A@@std@@@std@@@1@$$QA_N@Z PROC ; std::_Pair_base<std::_Tree_iterator<std::_Tree_val<std::_Tmap_traits<unsigned long,ioEtcItem *,std::less<unsigned long>,std::allocator<std::pair<unsigned long const ,ioEtcItem *> >,0> > >,bool>::_Pair_base<std::_Tree_iterator<std::_Tree_val<std::_Tmap_traits<unsigned long,ioEtcItem *,std::less<unsigned long>,std::allocator<std::pair<unsigned long const ,ioEtcItem *> >,0> > >,bool>, COMDAT
; _this$ = ecx

; 145  : 		{	// construct from specified values

  00000	55		 push	 ebp
  00001	8b ec		 mov	 ebp, esp
  00003	8b c1		 mov	 eax, ecx
  00005	8b 4d 08	 mov	 ecx, DWORD PTR __Val1$[ebp]
  00008	8b 09		 mov	 ecx, DWORD PTR [ecx]
  0000a	89 08		 mov	 DWORD PTR [eax], ecx
  0000c	8b 4d 0c	 mov	 ecx, DWORD PTR __Val2$[ebp]
  0000f	8a 09		 mov	 cl, BYTE PTR [ecx]
  00011	88 48 04	 mov	 BYTE PTR [eax+4], cl

; 146  : 		}

  00014	5d		 pop	 ebp
  00015	c2 08 00	 ret	 8
??0?$_Pair_base@V?$_Tree_iterator@V?$_Tree_val@V?$_Tmap_traits@KPAVioEtcItem@@U?$less@K@std@@V?$allocator@U?$pair@$$CBKPAVioEtcItem@@@std@@@3@$0A@@std@@@std@@@std@@_N@std@@QAE@$$QAV?$_Tree_iterator@V?$_Tree_val@V?$_Tmap_traits@KPAVioEtcItem@@U?$less@K@std@@V?$allocator@U?$pair@$$CBKPAVioEtcItem@@@std@@@3@$0A@@std@@@std@@@1@$$QA_N@Z ENDP ; std::_Pair_base<std::_Tree_iterator<std::_Tree_val<std::_Tmap_traits<unsigned long,ioEtcItem *,std::less<unsigned long>,std::allocator<std::pair<unsigned long const ,ioEtcItem *> >,0> > >,bool>::_Pair_base<std::_Tree_iterator<std::_Tree_val<std::_Tmap_traits<unsigned long,ioEtcItem *,std::less<unsigned long>,std::allocator<std::pair<unsigned long const ,ioEtcItem *> >,0> > >,bool>
_TEXT	ENDS
PUBLIC	??$encodeString@$0BM@@ioINILoader_e@@AAEPADAAY0BM@$$CBDPAD@Z ; ioINILoader_e::encodeString<28>
; Function compile flags: /Ogsp
; File d:\lost saga for developer\youtube\tutorial\source\src\io3dengine\ioiniloader.h
;	COMDAT ??$encodeString@$0BM@@ioINILoader_e@@AAEPADAAY0BM@$$CBDPAD@Z
_TEXT	SEGMENT
_s$ = 8							; size = 4
_e$ = 12						; size = 4
??$encodeString@$0BM@@ioINILoader_e@@AAEPADAAY0BM@$$CBDPAD@Z PROC ; ioINILoader_e::encodeString<28>, COMDAT
; _this$ = ecx

; 215  : 	{

  00000	55		 push	 ebp
  00001	8b ec		 mov	 ebp, esp

; 216  : 		__ENCSTR(s, e);

  00003	8b 4d 08	 mov	 ecx, DWORD PTR _s$[ebp]
  00006	8a 11		 mov	 dl, BYTE PTR [ecx]
  00008	8b 45 0c	 mov	 eax, DWORD PTR _e$[ebp]
  0000b	53		 push	 ebx
  0000c	84 d2		 test	 dl, dl
  0000e	0f 84 6a 04 00
	00		 je	 $LN96@encodeStri
  00014	80 f2 ed	 xor	 dl, -19			; ffffffedH
  00017	88 10		 mov	 BYTE PTR [eax], dl
  00019	8a 51 01	 mov	 dl, BYTE PTR [ecx+1]
  0001c	84 d2		 test	 dl, dl
  0001e	0f 84 54 04 00
	00		 je	 $LN95@encodeStri
  00024	80 f2 ec	 xor	 dl, -20			; ffffffecH
  00027	88 50 01	 mov	 BYTE PTR [eax+1], dl
  0002a	8a 51 02	 mov	 dl, BYTE PTR [ecx+2]
  0002d	84 d2		 test	 dl, dl
  0002f	0f 84 3d 04 00
	00		 je	 $LN94@encodeStri
  00035	b3 eb		 mov	 bl, -21			; ffffffebH
  00037	32 d3		 xor	 dl, bl
  00039	88 50 02	 mov	 BYTE PTR [eax+2], dl
  0003c	8a 51 03	 mov	 dl, BYTE PTR [ecx+3]
  0003f	84 d2		 test	 dl, dl
  00041	0f 84 25 04 00
	00		 je	 $LN93@encodeStri
  00047	80 f2 ea	 xor	 dl, -22			; ffffffeaH
  0004a	88 50 03	 mov	 BYTE PTR [eax+3], dl
  0004d	8a 51 04	 mov	 dl, BYTE PTR [ecx+4]
  00050	84 d2		 test	 dl, dl
  00052	0f 84 0e 04 00
	00		 je	 $LN92@encodeStri
  00058	80 f2 ed	 xor	 dl, -19			; ffffffedH
  0005b	88 50 04	 mov	 BYTE PTR [eax+4], dl
  0005e	8a 51 05	 mov	 dl, BYTE PTR [ecx+5]
  00061	84 d2		 test	 dl, dl
  00063	0f 84 f7 03 00
	00		 je	 $LN91@encodeStri
  00069	80 f2 ec	 xor	 dl, -20			; ffffffecH
  0006c	88 50 05	 mov	 BYTE PTR [eax+5], dl
  0006f	8a 51 06	 mov	 dl, BYTE PTR [ecx+6]
  00072	84 d2		 test	 dl, dl
  00074	0f 84 e1 03 00
	00		 je	 $LN90@encodeStri
  0007a	32 d3		 xor	 dl, bl
  0007c	88 50 06	 mov	 BYTE PTR [eax+6], dl
  0007f	8a 51 07	 mov	 dl, BYTE PTR [ecx+7]
  00082	84 d2		 test	 dl, dl
  00084	0f 84 cb 03 00
	00		 je	 $LN89@encodeStri
  0008a	80 f2 ea	 xor	 dl, -22			; ffffffeaH
  0008d	88 50 07	 mov	 BYTE PTR [eax+7], dl
  00090	8a 51 08	 mov	 dl, BYTE PTR [ecx+8]
  00093	84 d2		 test	 dl, dl
  00095	0f 84 b4 03 00
	00		 je	 $LN88@encodeStri
  0009b	80 f2 ed	 xor	 dl, -19			; ffffffedH
  0009e	88 50 08	 mov	 BYTE PTR [eax+8], dl
  000a1	8a 51 09	 mov	 dl, BYTE PTR [ecx+9]
  000a4	84 d2		 test	 dl, dl
  000a6	0f 84 9d 03 00
	00		 je	 $LN87@encodeStri
  000ac	80 f2 ec	 xor	 dl, -20			; ffffffecH
  000af	88 50 09	 mov	 BYTE PTR [eax+9], dl
  000b2	8a 51 0a	 mov	 dl, BYTE PTR [ecx+10]
  000b5	84 d2		 test	 dl, dl
  000b7	0f 84 87 03 00
	00		 je	 $LN86@encodeStri
  000bd	32 d3		 xor	 dl, bl
  000bf	88 50 0a	 mov	 BYTE PTR [eax+10], dl
  000c2	8a 51 0b	 mov	 dl, BYTE PTR [ecx+11]
  000c5	84 d2		 test	 dl, dl
  000c7	0f 84 71 03 00
	00		 je	 $LN85@encodeStri
  000cd	80 f2 ea	 xor	 dl, -22			; ffffffeaH
  000d0	88 50 0b	 mov	 BYTE PTR [eax+11], dl
  000d3	8a 51 0c	 mov	 dl, BYTE PTR [ecx+12]
  000d6	84 d2		 test	 dl, dl
  000d8	0f 84 5a 03 00
	00		 je	 $LN84@encodeStri
  000de	80 f2 ed	 xor	 dl, -19			; ffffffedH
  000e1	88 50 0c	 mov	 BYTE PTR [eax+12], dl
  000e4	8a 51 0d	 mov	 dl, BYTE PTR [ecx+13]
  000e7	84 d2		 test	 dl, dl
  000e9	0f 84 43 03 00
	00		 je	 $LN83@encodeStri
  000ef	80 f2 ec	 xor	 dl, -20			; ffffffecH
  000f2	88 50 0d	 mov	 BYTE PTR [eax+13], dl
  000f5	8a 51 0e	 mov	 dl, BYTE PTR [ecx+14]
  000f8	84 d2		 test	 dl, dl
  000fa	0f 84 2d 03 00
	00		 je	 $LN82@encodeStri
  00100	32 d3		 xor	 dl, bl
  00102	88 50 0e	 mov	 BYTE PTR [eax+14], dl
  00105	8a 51 0f	 mov	 dl, BYTE PTR [ecx+15]
  00108	84 d2		 test	 dl, dl
  0010a	0f 84 17 03 00
	00		 je	 $LN81@encodeStri
  00110	80 f2 ea	 xor	 dl, -22			; ffffffeaH
  00113	88 50 0f	 mov	 BYTE PTR [eax+15], dl
  00116	8a 51 10	 mov	 dl, BYTE PTR [ecx+16]
  00119	84 d2		 test	 dl, dl
  0011b	0f 84 00 03 00
	00		 je	 $LN80@encodeStri
  00121	80 f2 ed	 xor	 dl, -19			; ffffffedH
  00124	88 50 10	 mov	 BYTE PTR [eax+16], dl
  00127	8a 51 11	 mov	 dl, BYTE PTR [ecx+17]
  0012a	84 d2		 test	 dl, dl
  0012c	0f 84 e9 02 00
	00		 je	 $LN79@encodeStri
  00132	80 f2 ec	 xor	 dl, -20			; ffffffecH
  00135	88 50 11	 mov	 BYTE PTR [eax+17], dl
  00138	8a 51 12	 mov	 dl, BYTE PTR [ecx+18]
  0013b	84 d2		 test	 dl, dl
  0013d	0f 84 d3 02 00
	00		 je	 $LN78@encodeStri
  00143	32 d3		 xor	 dl, bl
  00145	88 50 12	 mov	 BYTE PTR [eax+18], dl
  00148	8a 51 13	 mov	 dl, BYTE PTR [ecx+19]
  0014b	84 d2		 test	 dl, dl
  0014d	0f 84 bd 02 00
	00		 je	 $LN77@encodeStri
  00153	80 f2 ea	 xor	 dl, -22			; ffffffeaH
  00156	88 50 13	 mov	 BYTE PTR [eax+19], dl
  00159	8a 51 14	 mov	 dl, BYTE PTR [ecx+20]
  0015c	84 d2		 test	 dl, dl
  0015e	0f 84 a6 02 00
	00		 je	 $LN76@encodeStri
  00164	80 f2 ed	 xor	 dl, -19			; ffffffedH
  00167	88 50 14	 mov	 BYTE PTR [eax+20], dl
  0016a	8a 51 15	 mov	 dl, BYTE PTR [ecx+21]
  0016d	84 d2		 test	 dl, dl
  0016f	0f 84 8f 02 00
	00		 je	 $LN75@encodeStri
  00175	80 f2 ec	 xor	 dl, -20			; ffffffecH
  00178	88 50 15	 mov	 BYTE PTR [eax+21], dl
  0017b	8a 51 16	 mov	 dl, BYTE PTR [ecx+22]
  0017e	84 d2		 test	 dl, dl
  00180	0f 84 79 02 00
	00		 je	 $LN74@encodeStri
  00186	32 d3		 xor	 dl, bl
  00188	88 50 16	 mov	 BYTE PTR [eax+22], dl
  0018b	8a 51 17	 mov	 dl, BYTE PTR [ecx+23]
  0018e	84 d2		 test	 dl, dl
  00190	0f 84 60 02 00
	00		 je	 $LN73@encodeStri
  00196	80 f2 ea	 xor	 dl, -22			; ffffffeaH
  00199	88 50 17	 mov	 BYTE PTR [eax+23], dl
  0019c	8a 51 18	 mov	 dl, BYTE PTR [ecx+24]
  0019f	84 d2		 test	 dl, dl
  001a1	0f 84 46 02 00
	00		 je	 $LN72@encodeStri
  001a7	80 f2 ed	 xor	 dl, -19			; ffffffedH
  001aa	88 50 18	 mov	 BYTE PTR [eax+24], dl
  001ad	8a 51 19	 mov	 dl, BYTE PTR [ecx+25]
  001b0	84 d2		 test	 dl, dl
  001b2	0f 84 2c 02 00
	00		 je	 $LN71@encodeStri
  001b8	80 f2 ec	 xor	 dl, -20			; ffffffecH
  001bb	88 50 19	 mov	 BYTE PTR [eax+25], dl
  001be	8a 51 1a	 mov	 dl, BYTE PTR [ecx+26]
  001c1	84 d2		 test	 dl, dl
  001c3	0f 84 13 02 00
	00		 je	 $LN70@encodeStri
  001c9	32 d3		 xor	 dl, bl
  001cb	88 50 1a	 mov	 BYTE PTR [eax+26], dl
  001ce	8a 51 1b	 mov	 dl, BYTE PTR [ecx+27]
  001d1	84 d2		 test	 dl, dl
  001d3	0f 84 fa 01 00
	00		 je	 $LN69@encodeStri
  001d9	80 f2 ea	 xor	 dl, -22			; ffffffeaH
  001dc	88 50 1b	 mov	 BYTE PTR [eax+27], dl
  001df	8a 51 1c	 mov	 dl, BYTE PTR [ecx+28]
  001e2	84 d2		 test	 dl, dl
  001e4	0f 84 e0 01 00
	00		 je	 $LN68@encodeStri
  001ea	80 f2 ed	 xor	 dl, -19			; ffffffedH
  001ed	88 50 1c	 mov	 BYTE PTR [eax+28], dl
  001f0	8a 51 1d	 mov	 dl, BYTE PTR [ecx+29]
  001f3	84 d2		 test	 dl, dl
  001f5	0f 84 c6 01 00
	00		 je	 $LN67@encodeStri
  001fb	80 f2 ec	 xor	 dl, -20			; ffffffecH
  001fe	88 50 1d	 mov	 BYTE PTR [eax+29], dl
  00201	8a 51 1e	 mov	 dl, BYTE PTR [ecx+30]
  00204	84 d2		 test	 dl, dl
  00206	0f 84 ad 01 00
	00		 je	 $LN66@encodeStri
  0020c	32 d3		 xor	 dl, bl
  0020e	88 50 1e	 mov	 BYTE PTR [eax+30], dl
  00211	8a 51 1f	 mov	 dl, BYTE PTR [ecx+31]
  00214	84 d2		 test	 dl, dl
  00216	0f 84 94 01 00
	00		 je	 $LN65@encodeStri
  0021c	80 f2 ea	 xor	 dl, -22			; ffffffeaH
  0021f	88 50 1f	 mov	 BYTE PTR [eax+31], dl
  00222	8a 51 20	 mov	 dl, BYTE PTR [ecx+32]
  00225	84 d2		 test	 dl, dl
  00227	0f 84 7a 01 00
	00		 je	 $LN64@encodeStri
  0022d	80 f2 ed	 xor	 dl, -19			; ffffffedH
  00230	88 50 20	 mov	 BYTE PTR [eax+32], dl
  00233	8a 51 21	 mov	 dl, BYTE PTR [ecx+33]
  00236	84 d2		 test	 dl, dl
  00238	0f 84 60 01 00
	00		 je	 $LN63@encodeStri
  0023e	80 f2 ec	 xor	 dl, -20			; ffffffecH
  00241	88 50 21	 mov	 BYTE PTR [eax+33], dl
  00244	8a 51 22	 mov	 dl, BYTE PTR [ecx+34]
  00247	84 d2		 test	 dl, dl
  00249	0f 84 47 01 00
	00		 je	 $LN62@encodeStri
  0024f	32 d3		 xor	 dl, bl
  00251	88 50 22	 mov	 BYTE PTR [eax+34], dl
  00254	8a 51 23	 mov	 dl, BYTE PTR [ecx+35]
  00257	84 d2		 test	 dl, dl
  00259	0f 84 2e 01 00
	00		 je	 $LN61@encodeStri
  0025f	80 f2 ea	 xor	 dl, -22			; ffffffeaH
  00262	88 50 23	 mov	 BYTE PTR [eax+35], dl
  00265	8a 51 24	 mov	 dl, BYTE PTR [ecx+36]
  00268	84 d2		 test	 dl, dl
  0026a	0f 84 14 01 00
	00		 je	 $LN60@encodeStri
  00270	80 f2 ed	 xor	 dl, -19			; ffffffedH
  00273	88 50 24	 mov	 BYTE PTR [eax+36], dl
  00276	8a 51 25	 mov	 dl, BYTE PTR [ecx+37]
  00279	84 d2		 test	 dl, dl
  0027b	0f 84 fa 00 00
	00		 je	 $LN59@encodeStri
  00281	80 f2 ec	 xor	 dl, -20			; ffffffecH
  00284	88 50 25	 mov	 BYTE PTR [eax+37], dl
  00287	8a 51 26	 mov	 dl, BYTE PTR [ecx+38]
  0028a	84 d2		 test	 dl, dl
  0028c	0f 84 e1 00 00
	00		 je	 $LN58@encodeStri
  00292	32 d3		 xor	 dl, bl
  00294	88 50 26	 mov	 BYTE PTR [eax+38], dl
  00297	8a 51 27	 mov	 dl, BYTE PTR [ecx+39]
  0029a	84 d2		 test	 dl, dl
  0029c	0f 84 c8 00 00
	00		 je	 $LN57@encodeStri
  002a2	80 f2 ea	 xor	 dl, -22			; ffffffeaH
  002a5	88 50 27	 mov	 BYTE PTR [eax+39], dl
  002a8	8a 51 28	 mov	 dl, BYTE PTR [ecx+40]
  002ab	84 d2		 test	 dl, dl
  002ad	0f 84 ae 00 00
	00		 je	 $LN56@encodeStri
  002b3	80 f2 ed	 xor	 dl, -19			; ffffffedH
  002b6	88 50 28	 mov	 BYTE PTR [eax+40], dl
  002b9	8a 51 29	 mov	 dl, BYTE PTR [ecx+41]
  002bc	84 d2		 test	 dl, dl
  002be	0f 84 94 00 00
	00		 je	 $LN55@encodeStri
  002c4	80 f2 ec	 xor	 dl, -20			; ffffffecH
  002c7	88 50 29	 mov	 BYTE PTR [eax+41], dl
  002ca	8a 51 2a	 mov	 dl, BYTE PTR [ecx+42]
  002cd	84 d2		 test	 dl, dl
  002cf	74 7f		 je	 SHORT $LN54@encodeStri
  002d1	32 d3		 xor	 dl, bl
  002d3	88 50 2a	 mov	 BYTE PTR [eax+42], dl
  002d6	8a 51 2b	 mov	 dl, BYTE PTR [ecx+43]
  002d9	84 d2		 test	 dl, dl
  002db	74 6a		 je	 SHORT $LN53@encodeStri
  002dd	80 f2 ea	 xor	 dl, -22			; ffffffeaH
  002e0	88 50 2b	 mov	 BYTE PTR [eax+43], dl
  002e3	8a 51 2c	 mov	 dl, BYTE PTR [ecx+44]
  002e6	84 d2		 test	 dl, dl
  002e8	74 54		 je	 SHORT $LN52@encodeStri
  002ea	80 f2 ed	 xor	 dl, -19			; ffffffedH
  002ed	88 50 2c	 mov	 BYTE PTR [eax+44], dl
  002f0	8a 51 2d	 mov	 dl, BYTE PTR [ecx+45]
  002f3	84 d2		 test	 dl, dl
  002f5	74 3e		 je	 SHORT $LN51@encodeStri
  002f7	80 f2 ec	 xor	 dl, -20			; ffffffecH
  002fa	88 50 2d	 mov	 BYTE PTR [eax+45], dl
  002fd	8a 51 2e	 mov	 dl, BYTE PTR [ecx+46]
  00300	84 d2		 test	 dl, dl
  00302	74 29		 je	 SHORT $LN50@encodeStri
  00304	32 d3		 xor	 dl, bl
  00306	88 50 2e	 mov	 BYTE PTR [eax+46], dl
  00309	8a 51 2f	 mov	 dl, BYTE PTR [ecx+47]
  0030c	84 d2		 test	 dl, dl
  0030e	74 14		 je	 SHORT $LN49@encodeStri
  00310	80 f2 ea	 xor	 dl, -22			; ffffffeaH
  00313	88 50 2f	 mov	 BYTE PTR [eax+47], dl
  00316	8a 49 30	 mov	 cl, BYTE PTR [ecx+48]
  00319	80 f1 ed	 xor	 cl, -19			; ffffffedH
  0031c	88 48 30	 mov	 BYTE PTR [eax+48], cl
  0031f	e9 5d 01 00 00	 jmp	 $LN1@encodeStri
$LN49@encodeStri:
  00324	c6 40 2f ea	 mov	 BYTE PTR [eax+47], -22	; ffffffeaH
  00328	e9 54 01 00 00	 jmp	 $LN1@encodeStri
$LN50@encodeStri:
  0032d	88 58 2e	 mov	 BYTE PTR [eax+46], bl
  00330	e9 4c 01 00 00	 jmp	 $LN1@encodeStri
$LN51@encodeStri:
  00335	c6 40 2d ec	 mov	 BYTE PTR [eax+45], -20	; ffffffecH
  00339	e9 43 01 00 00	 jmp	 $LN1@encodeStri
$LN52@encodeStri:
  0033e	c6 40 2c ed	 mov	 BYTE PTR [eax+44], -19	; ffffffedH
  00342	e9 3a 01 00 00	 jmp	 $LN1@encodeStri
$LN53@encodeStri:
  00347	c6 40 2b ea	 mov	 BYTE PTR [eax+43], -22	; ffffffeaH
  0034b	e9 31 01 00 00	 jmp	 $LN1@encodeStri
$LN54@encodeStri:
  00350	88 58 2a	 mov	 BYTE PTR [eax+42], bl
  00353	e9 29 01 00 00	 jmp	 $LN1@encodeStri
$LN55@encodeStri:
  00358	c6 40 29 ec	 mov	 BYTE PTR [eax+41], -20	; ffffffecH
  0035c	e9 20 01 00 00	 jmp	 $LN1@encodeStri
$LN56@encodeStri:
  00361	c6 40 28 ed	 mov	 BYTE PTR [eax+40], -19	; ffffffedH
  00365	e9 17 01 00 00	 jmp	 $LN1@encodeStri
$LN57@encodeStri:
  0036a	c6 40 27 ea	 mov	 BYTE PTR [eax+39], -22	; ffffffeaH
  0036e	e9 0e 01 00 00	 jmp	 $LN1@encodeStri
$LN58@encodeStri:
  00373	88 58 26	 mov	 BYTE PTR [eax+38], bl
  00376	e9 06 01 00 00	 jmp	 $LN1@encodeStri
$LN59@encodeStri:
  0037b	c6 40 25 ec	 mov	 BYTE PTR [eax+37], -20	; ffffffecH
  0037f	e9 fd 00 00 00	 jmp	 $LN1@encodeStri
$LN60@encodeStri:
  00384	c6 40 24 ed	 mov	 BYTE PTR [eax+36], -19	; ffffffedH
  00388	e9 f4 00 00 00	 jmp	 $LN1@encodeStri
$LN61@encodeStri:
  0038d	c6 40 23 ea	 mov	 BYTE PTR [eax+35], -22	; ffffffeaH
  00391	e9 eb 00 00 00	 jmp	 $LN1@encodeStri
$LN62@encodeStri:
  00396	88 58 22	 mov	 BYTE PTR [eax+34], bl
  00399	e9 e3 00 00 00	 jmp	 $LN1@encodeStri
$LN63@encodeStri:
  0039e	c6 40 21 ec	 mov	 BYTE PTR [eax+33], -20	; ffffffecH
  003a2	e9 da 00 00 00	 jmp	 $LN1@encodeStri
$LN64@encodeStri:
  003a7	c6 40 20 ed	 mov	 BYTE PTR [eax+32], -19	; ffffffedH
  003ab	e9 d1 00 00 00	 jmp	 $LN1@encodeStri
$LN65@encodeStri:
  003b0	c6 40 1f ea	 mov	 BYTE PTR [eax+31], -22	; ffffffeaH
  003b4	e9 c8 00 00 00	 jmp	 $LN1@encodeStri
$LN66@encodeStri:
  003b9	88 58 1e	 mov	 BYTE PTR [eax+30], bl
  003bc	e9 c0 00 00 00	 jmp	 $LN1@encodeStri
$LN67@encodeStri:
  003c1	c6 40 1d ec	 mov	 BYTE PTR [eax+29], -20	; ffffffecH
  003c5	e9 b7 00 00 00	 jmp	 $LN1@encodeStri
$LN68@encodeStri:
  003ca	c6 40 1c ed	 mov	 BYTE PTR [eax+28], -19	; ffffffedH
  003ce	e9 ae 00 00 00	 jmp	 $LN1@encodeStri
$LN69@encodeStri:
  003d3	c6 40 1b ea	 mov	 BYTE PTR [eax+27], -22	; ffffffeaH
  003d7	e9 a5 00 00 00	 jmp	 $LN1@encodeStri
$LN70@encodeStri:
  003dc	88 58 1a	 mov	 BYTE PTR [eax+26], bl
  003df	e9 9d 00 00 00	 jmp	 $LN1@encodeStri
$LN71@encodeStri:
  003e4	c6 40 19 ec	 mov	 BYTE PTR [eax+25], -20	; ffffffecH
  003e8	e9 94 00 00 00	 jmp	 $LN1@encodeStri
$LN72@encodeStri:
  003ed	c6 40 18 ed	 mov	 BYTE PTR [eax+24], -19	; ffffffedH
  003f1	e9 8b 00 00 00	 jmp	 $LN1@encodeStri
$LN73@encodeStri:
  003f6	c6 40 17 ea	 mov	 BYTE PTR [eax+23], -22	; ffffffeaH
  003fa	e9 82 00 00 00	 jmp	 $LN1@encodeStri
$LN74@encodeStri:
  003ff	88 58 16	 mov	 BYTE PTR [eax+22], bl
  00402	eb 7d		 jmp	 SHORT $LN1@encodeStri
$LN75@encodeStri:
  00404	c6 40 15 ec	 mov	 BYTE PTR [eax+21], -20	; ffffffecH
  00408	eb 77		 jmp	 SHORT $LN1@encodeStri
$LN76@encodeStri:
  0040a	c6 40 14 ed	 mov	 BYTE PTR [eax+20], -19	; ffffffedH
  0040e	eb 71		 jmp	 SHORT $LN1@encodeStri
$LN77@encodeStri:
  00410	c6 40 13 ea	 mov	 BYTE PTR [eax+19], -22	; ffffffeaH
  00414	eb 6b		 jmp	 SHORT $LN1@encodeStri
$LN78@encodeStri:
  00416	88 58 12	 mov	 BYTE PTR [eax+18], bl
  00419	eb 66		 jmp	 SHORT $LN1@encodeStri
$LN79@encodeStri:
  0041b	c6 40 11 ec	 mov	 BYTE PTR [eax+17], -20	; ffffffecH
  0041f	eb 60		 jmp	 SHORT $LN1@encodeStri
$LN80@encodeStri:
  00421	c6 40 10 ed	 mov	 BYTE PTR [eax+16], -19	; ffffffedH
  00425	eb 5a		 jmp	 SHORT $LN1@encodeStri
$LN81@encodeStri:
  00427	c6 40 0f ea	 mov	 BYTE PTR [eax+15], -22	; ffffffeaH
  0042b	eb 54		 jmp	 SHORT $LN1@encodeStri
$LN82@encodeStri:
  0042d	88 58 0e	 mov	 BYTE PTR [eax+14], bl
  00430	eb 4f		 jmp	 SHORT $LN1@encodeStri
$LN83@encodeStri:
  00432	c6 40 0d ec	 mov	 BYTE PTR [eax+13], -20	; ffffffecH
  00436	eb 49		 jmp	 SHORT $LN1@encodeStri
$LN84@encodeStri:
  00438	c6 40 0c ed	 mov	 BYTE PTR [eax+12], -19	; ffffffedH
  0043c	eb 43		 jmp	 SHORT $LN1@encodeStri
$LN85@encodeStri:
  0043e	c6 40 0b ea	 mov	 BYTE PTR [eax+11], -22	; ffffffeaH
  00442	eb 3d		 jmp	 SHORT $LN1@encodeStri
$LN86@encodeStri:
  00444	88 58 0a	 mov	 BYTE PTR [eax+10], bl
  00447	eb 38		 jmp	 SHORT $LN1@encodeStri
$LN87@encodeStri:
  00449	c6 40 09 ec	 mov	 BYTE PTR [eax+9], -20	; ffffffecH
  0044d	eb 32		 jmp	 SHORT $LN1@encodeStri
$LN88@encodeStri:
  0044f	c6 40 08 ed	 mov	 BYTE PTR [eax+8], -19	; ffffffedH
  00453	eb 2c		 jmp	 SHORT $LN1@encodeStri
$LN89@encodeStri:
  00455	c6 40 07 ea	 mov	 BYTE PTR [eax+7], -22	; ffffffeaH
  00459	eb 26		 jmp	 SHORT $LN1@encodeStri
$LN90@encodeStri:
  0045b	88 58 06	 mov	 BYTE PTR [eax+6], bl
  0045e	eb 21		 jmp	 SHORT $LN1@encodeStri
$LN91@encodeStri:
  00460	c6 40 05 ec	 mov	 BYTE PTR [eax+5], -20	; ffffffecH
  00464	eb 1b		 jmp	 SHORT $LN1@encodeStri
$LN92@encodeStri:
  00466	c6 40 04 ed	 mov	 BYTE PTR [eax+4], -19	; ffffffedH
  0046a	eb 15		 jmp	 SHORT $LN1@encodeStri
$LN93@encodeStri:
  0046c	c6 40 03 ea	 mov	 BYTE PTR [eax+3], -22	; ffffffeaH
  00470	eb 0f		 jmp	 SHORT $LN1@encodeStri
$LN94@encodeStri:
  00472	c6 40 02 eb	 mov	 BYTE PTR [eax+2], -21	; ffffffebH
  00476	eb 09		 jmp	 SHORT $LN1@encodeStri
$LN95@encodeStri:
  00478	c6 40 01 ec	 mov	 BYTE PTR [eax+1], -20	; ffffffecH
  0047c	eb 03		 jmp	 SHORT $LN1@encodeStri
$LN96@encodeStri:
  0047e	c6 00 ed	 mov	 BYTE PTR [eax], -19	; ffffffedH
$LN1@encodeStri:
  00481	6a 06		 push	 6
  00483	5a		 pop	 edx
  00484	8b c8		 mov	 ecx, eax
  00486	c6 40 1b 00	 mov	 BYTE PTR [eax+27], 0
  0048a	5b		 pop	 ebx
$LL104@encodeStri:
  0048b	81 31 ed ec eb
	ea		 xor	 DWORD PTR [ecx], -353637139 ; eaebecedH
  00491	83 c1 04	 add	 ecx, 4
  00494	4a		 dec	 edx
  00495	75 f4		 jne	 SHORT $LL104@encodeStri
  00497	56		 push	 esi
  00498	6a 18		 push	 24			; 00000018H
  0049a	5e		 pop	 esi
$LL101@encodeStri:
  0049b	8b ce		 mov	 ecx, esi
  0049d	81 e1 03 00 00
	80		 and	 ecx, -2147483645	; 80000003H
  004a3	79 05		 jns	 SHORT $LN111@encodeStri
  004a5	49		 dec	 ecx
  004a6	83 c9 fc	 or	 ecx, -4			; fffffffcH
  004a9	41		 inc	 ecx
$LN111@encodeStri:
  004aa	b2 ed		 mov	 dl, -19			; ffffffedH
  004ac	2a d1		 sub	 dl, cl
  004ae	30 14 06	 xor	 BYTE PTR [esi+eax], dl
  004b1	46		 inc	 esi
  004b2	83 fe 1b	 cmp	 esi, 27			; 0000001bH
  004b5	7c e4		 jl	 SHORT $LL101@encodeStri
  004b7	5e		 pop	 esi

; 217  : 		return e;
; 218  : 	}

  004b8	5d		 pop	 ebp
  004b9	c2 08 00	 ret	 8
??$encodeString@$0BM@@ioINILoader_e@@AAEPADAAY0BM@$$CBDPAD@Z ENDP ; ioINILoader_e::encodeString<28>
_TEXT	ENDS
PUBLIC	??$_Uninitialized_move@PAPBVioEtcItem@@PAPBV1@V?$allocator@PBVioEtcItem@@@std@@@std@@YAPAPBVioEtcItem@@PAPBV1@00AAV?$allocator@PBVioEtcItem@@@0@@Z ; std::_Uninitialized_move<ioEtcItem const * *,ioEtcItem const * *,std::allocator<ioEtcItem const *> >
; Function compile flags: /Ogsp
; File c:\program files (x86)\microsoft visual studio 10.0\vc\include\memory
;	COMDAT ??$_Uninitialized_move@PAPBVioEtcItem@@PAPBV1@V?$allocator@PBVioEtcItem@@@std@@@std@@YAPAPBVioEtcItem@@PAPBV1@00AAV?$allocator@PBVioEtcItem@@@0@@Z
_TEXT	SEGMENT
__First$ = 8						; size = 4
__Last$ = 12						; size = 4
__Dest$ = 16						; size = 4
__Al$ = 20						; size = 4
??$_Uninitialized_move@PAPBVioEtcItem@@PAPBV1@V?$allocator@PBVioEtcItem@@@std@@@std@@YAPAPBVioEtcItem@@PAPBV1@00AAV?$allocator@PBVioEtcItem@@@0@@Z PROC ; std::_Uninitialized_move<ioEtcItem const * *,ioEtcItem const * *,std::allocator<ioEtcItem const *> >, COMDAT

; 469  : 	{	// move [_First, _Last) to raw _Dest, using _Al

  00000	55		 push	 ebp
  00001	8b ec		 mov	 ebp, esp
  00003	56		 push	 esi

; 470  : 	return (_Uninit_move(_First, _Last, _Dest, _Al,
; 471  : 		_Val_type(_First), _Ptr_cat(_First, _Dest)));

  00004	8b 75 0c	 mov	 esi, DWORD PTR __Last$[ebp]
  00007	2b 75 08	 sub	 esi, DWORD PTR __First$[ebp]
  0000a	c1 fe 02	 sar	 esi, 2
  0000d	c1 e6 02	 shl	 esi, 2
  00010	56		 push	 esi
  00011	ff 75 08	 push	 DWORD PTR __First$[ebp]
  00014	ff 75 10	 push	 DWORD PTR __Dest$[ebp]
  00017	ff 15 00 00 00
	00		 call	 DWORD PTR __imp__memmove
  0001d	83 c4 0c	 add	 esp, 12			; 0000000cH
  00020	03 c6		 add	 eax, esi
  00022	5e		 pop	 esi

; 472  : 	}

  00023	5d		 pop	 ebp
  00024	c3		 ret	 0
??$_Uninitialized_move@PAPBVioEtcItem@@PAPBV1@V?$allocator@PBVioEtcItem@@@std@@@std@@YAPAPBVioEtcItem@@PAPBV1@00AAV?$allocator@PBVioEtcItem@@@0@@Z ENDP ; std::_Uninitialized_move<ioEtcItem const * *,ioEtcItem const * *,std::allocator<ioEtcItem const *> >
_TEXT	ENDS
PUBLIC	?_Buynode@?$_Tree_val@V?$_Tmap_traits@KPAVioEtcItem@@U?$less@K@std@@V?$allocator@U?$pair@$$CBKPAVioEtcItem@@@std@@@3@$0A@@std@@@std@@QAEPAU_Node@?$_Tree_nod@V?$_Tmap_traits@KPAVioEtcItem@@U?$less@K@std@@V?$allocator@U?$pair@$$CBKPAVioEtcItem@@@std@@@3@$0A@@std@@@2@XZ ; std::_Tree_val<std::_Tmap_traits<unsigned long,ioEtcItem *,std::less<unsigned long>,std::allocator<std::pair<unsigned long const ,ioEtcItem *> >,0> >::_Buynode
; Function compile flags: /Ogsp
; File c:\program files (x86)\microsoft visual studio 10.0\vc\include\xtree
;	COMDAT ?_Buynode@?$_Tree_val@V?$_Tmap_traits@KPAVioEtcItem@@U?$less@K@std@@V?$allocator@U?$pair@$$CBKPAVioEtcItem@@@std@@@3@$0A@@std@@@std@@QAEPAU_Node@?$_Tree_nod@V?$_Tmap_traits@KPAVioEtcItem@@U?$less@K@std@@V?$allocator@U?$pair@$$CBKPAVioEtcItem@@@std@@@3@$0A@@std@@@2@XZ
_TEXT	SEGMENT
$T510643 = -16						; size = 12
$T510626 = -4						; size = 4
?_Buynode@?$_Tree_val@V?$_Tmap_traits@KPAVioEtcItem@@U?$less@K@std@@V?$allocator@U?$pair@$$CBKPAVioEtcItem@@@std@@@3@$0A@@std@@@std@@QAEPAU_Node@?$_Tree_nod@V?$_Tmap_traits@KPAVioEtcItem@@U?$less@K@std@@V?$allocator@U?$pair@$$CBKPAVioEtcItem@@@std@@@3@$0A@@std@@@2@XZ PROC ; std::_Tree_val<std::_Tmap_traits<unsigned long,ioEtcItem *,std::less<unsigned long>,std::allocator<std::pair<unsigned long const ,ioEtcItem *> >,0> >::_Buynode, COMDAT
; _this$ = ecx

; 559  : 		{	// allocate a node

  00000	55		 push	 ebp
  00001	8b ec		 mov	 ebp, esp
  00003	83 ec 10	 sub	 esp, 16			; 00000010H
  00006	56		 push	 esi

; 560  : 		_Nodeptr _Wherenode = this->_Alnod.allocate(1);

  00007	6a 18		 push	 24			; 00000018H
  00009	8b f1		 mov	 esi, ecx
  0000b	e8 00 00 00 00	 call	 ??2@YAPAXI@Z		; operator new
  00010	59		 pop	 ecx
  00011	33 c9		 xor	 ecx, ecx
  00013	3b c1		 cmp	 eax, ecx
  00015	74 18		 je	 SHORT $LN5@Buynode

; 561  : 
; 562  : 		this->_Left(_Wherenode) = this->_Myhead;

  00017	8b 56 04	 mov	 edx, DWORD PTR [esi+4]
  0001a	89 10		 mov	 DWORD PTR [eax], edx

; 563  : 		this->_Parent(_Wherenode) = this->_Myhead;

  0001c	8b 56 04	 mov	 edx, DWORD PTR [esi+4]
  0001f	89 50 04	 mov	 DWORD PTR [eax+4], edx

; 564  : 		this->_Right(_Wherenode) = this->_Myhead;

  00022	8b 56 04	 mov	 edx, DWORD PTR [esi+4]
  00025	89 50 08	 mov	 DWORD PTR [eax+8], edx

; 565  : 		this->_Color(_Wherenode) = this->_Red;

  00028	66 89 48 14	 mov	 WORD PTR [eax+20], cx
  0002c	5e		 pop	 esi

; 566  : 		this->_Isnil(_Wherenode) = false;
; 567  : 		return (_Wherenode);
; 568  : 		}

  0002d	c9		 leave
  0002e	c3		 ret	 0

; 560  : 		_Nodeptr _Wherenode = this->_Alnod.allocate(1);

$LN5@Buynode:
  0002f	8d 45 fc	 lea	 eax, DWORD PTR $T510626[ebp]
  00032	89 4d fc	 mov	 DWORD PTR $T510626[ebp], ecx
  00035	50		 push	 eax
  00036	8d 4d f0	 lea	 ecx, DWORD PTR $T510643[ebp]
  00039	ff 15 00 00 00
	00		 call	 DWORD PTR __imp_??0exception@std@@QAE@ABQBD@Z
  0003f	68 00 00 00 00	 push	 OFFSET __TI2?AVbad_alloc@std@@
  00044	8d 45 f0	 lea	 eax, DWORD PTR $T510643[ebp]
  00047	50		 push	 eax
  00048	c7 45 f0 00 00
	00 00		 mov	 DWORD PTR $T510643[ebp], OFFSET ??_7bad_alloc@std@@6B@
  0004f	e8 00 00 00 00	 call	 __CxxThrowException@8
$LN27@Buynode:
$LN26@Buynode:
  00054	cc		 int	 3
?_Buynode@?$_Tree_val@V?$_Tmap_traits@KPAVioEtcItem@@U?$less@K@std@@V?$allocator@U?$pair@$$CBKPAVioEtcItem@@@std@@@3@$0A@@std@@@std@@QAEPAU_Node@?$_Tree_nod@V?$_Tmap_traits@KPAVioEtcItem@@U?$less@K@std@@V?$allocator@U?$pair@$$CBKPAVioEtcItem@@@std@@@3@$0A@@std@@@2@XZ ENDP ; std::_Tree_val<std::_Tmap_traits<unsigned long,ioEtcItem *,std::less<unsigned long>,std::allocator<std::pair<unsigned long const ,ioEtcItem *> >,0> >::_Buynode
_TEXT	ENDS
PUBLIC	??$?0AAV?$_Tree_iterator@V?$_Tree_val@V?$_Tmap_traits@KPAVioEtcItem@@U?$less@K@std@@V?$allocator@U?$pair@$$CBKPAVioEtcItem@@@std@@@3@$0A@@std@@@std@@@std@@_N@?$_Pair_base@V?$_Tree_iterator@V?$_Tree_val@V?$_Tmap_traits@KPAVioEtcItem@@U?$less@K@std@@V?$allocator@U?$pair@$$CBKPAVioEtcItem@@@std@@@3@$0A@@std@@@std@@@std@@_N@std@@QAE@AAV?$_Tree_iterator@V?$_Tree_val@V?$_Tmap_traits@KPAVioEtcItem@@U?$less@K@std@@V?$allocator@U?$pair@$$CBKPAVioEtcItem@@@std@@@3@$0A@@std@@@std@@@1@$$QA_N@Z ; std::_Pair_base<std::_Tree_iterator<std::_Tree_val<std::_Tmap_traits<unsigned long,ioEtcItem *,std::less<unsigned long>,std::allocator<std::pair<unsigned long const ,ioEtcItem *> >,0> > >,bool>::_Pair_base<std::_Tree_iterator<std::_Tree_val<std::_Tmap_traits<unsigned long,ioEtcItem *,std::less<unsigned long>,std::allocator<std::pair<unsigned long const ,ioEtcItem *> >,0> > >,bool><std::_Tree_iterator<std::_Tree_val<std::_Tmap_traits<unsigned long,ioEtcItem *,std::less<unsigned long>,std::allocator<std::pair<unsigned long const ,ioEtcItem *> >,0> > > &,bool>
; Function compile flags: /Ogsp
; File c:\program files (x86)\microsoft visual studio 10.0\vc\include\utility
;	COMDAT ??$?0AAV?$_Tree_iterator@V?$_Tree_val@V?$_Tmap_traits@KPAVioEtcItem@@U?$less@K@std@@V?$allocator@U?$pair@$$CBKPAVioEtcItem@@@std@@@3@$0A@@std@@@std@@@std@@_N@?$_Pair_base@V?$_Tree_iterator@V?$_Tree_val@V?$_Tmap_traits@KPAVioEtcItem@@U?$less@K@std@@V?$allocator@U?$pair@$$CBKPAVioEtcItem@@@std@@@3@$0A@@std@@@std@@@std@@_N@std@@QAE@AAV?$_Tree_iterator@V?$_Tree_val@V?$_Tmap_traits@KPAVioEtcItem@@U?$less@K@std@@V?$allocator@U?$pair@$$CBKPAVioEtcItem@@@std@@@3@$0A@@std@@@std@@@1@$$QA_N@Z
_TEXT	SEGMENT
__Val1$ = 8						; size = 4
__Val2$ = 12						; size = 4
??$?0AAV?$_Tree_iterator@V?$_Tree_val@V?$_Tmap_traits@KPAVioEtcItem@@U?$less@K@std@@V?$allocator@U?$pair@$$CBKPAVioEtcItem@@@std@@@3@$0A@@std@@@std@@@std@@_N@?$_Pair_base@V?$_Tree_iterator@V?$_Tree_val@V?$_Tmap_traits@KPAVioEtcItem@@U?$less@K@std@@V?$allocator@U?$pair@$$CBKPAVioEtcItem@@@std@@@3@$0A@@std@@@std@@@std@@_N@std@@QAE@AAV?$_Tree_iterator@V?$_Tree_val@V?$_Tmap_traits@KPAVioEtcItem@@U?$less@K@std@@V?$allocator@U?$pair@$$CBKPAVioEtcItem@@@std@@@3@$0A@@std@@@std@@@1@$$QA_N@Z PROC ; std::_Pair_base<std::_Tree_iterator<std::_Tree_val<std::_Tmap_traits<unsigned long,ioEtcItem *,std::less<unsigned long>,std::allocator<std::pair<unsigned long const ,ioEtcItem *> >,0> > >,bool>::_Pair_base<std::_Tree_iterator<std::_Tree_val<std::_Tmap_traits<unsigned long,ioEtcItem *,std::less<unsigned long>,std::allocator<std::pair<unsigned long const ,ioEtcItem *> >,0> > >,bool><std::_Tree_iterator<std::_Tree_val<std::_Tmap_traits<unsigned long,ioEtcItem *,std::less<unsigned long>,std::allocator<std::pair<unsigned long const ,ioEtcItem *> >,0> > > &,bool>, COMDAT
; _this$ = ecx

; 163  : 		{	// construct from moved values

  00000	55		 push	 ebp
  00001	8b ec		 mov	 ebp, esp
  00003	8b c1		 mov	 eax, ecx
  00005	8b 4d 08	 mov	 ecx, DWORD PTR __Val1$[ebp]
  00008	8b 09		 mov	 ecx, DWORD PTR [ecx]
  0000a	89 08		 mov	 DWORD PTR [eax], ecx
  0000c	8b 4d 0c	 mov	 ecx, DWORD PTR __Val2$[ebp]
  0000f	8a 09		 mov	 cl, BYTE PTR [ecx]
  00011	88 48 04	 mov	 BYTE PTR [eax+4], cl

; 164  : 		}

  00014	5d		 pop	 ebp
  00015	c2 08 00	 ret	 8
??$?0AAV?$_Tree_iterator@V?$_Tree_val@V?$_Tmap_traits@KPAVioEtcItem@@U?$less@K@std@@V?$allocator@U?$pair@$$CBKPAVioEtcItem@@@std@@@3@$0A@@std@@@std@@@std@@_N@?$_Pair_base@V?$_Tree_iterator@V?$_Tree_val@V?$_Tmap_traits@KPAVioEtcItem@@U?$less@K@std@@V?$allocator@U?$pair@$$CBKPAVioEtcItem@@@std@@@3@$0A@@std@@@std@@@std@@_N@std@@QAE@AAV?$_Tree_iterator@V?$_Tree_val@V?$_Tmap_traits@KPAVioEtcItem@@U?$less@K@std@@V?$allocator@U?$pair@$$CBKPAVioEtcItem@@@std@@@3@$0A@@std@@@std@@@1@$$QA_N@Z ENDP ; std::_Pair_base<std::_Tree_iterator<std::_Tree_val<std::_Tmap_traits<unsigned long,ioEtcItem *,std::less<unsigned long>,std::allocator<std::pair<unsigned long const ,ioEtcItem *> >,0> > >,bool>::_Pair_base<std::_Tree_iterator<std::_Tree_val<std::_Tmap_traits<unsigned long,ioEtcItem *,std::less<unsigned long>,std::allocator<std::pair<unsigned long const ,ioEtcItem *> >,0> > >,bool><std::_Tree_iterator<std::_Tree_val<std::_Tmap_traits<unsigned long,ioEtcItem *,std::less<unsigned long>,std::allocator<std::pair<unsigned long const ,ioEtcItem *> >,0> > > &,bool>
_TEXT	ENDS
PUBLIC	??0?$_Pair_base@$$CBKPAVioEtcItem@@@std@@QAE@$$QBK$$QAPAVioEtcItem@@@Z ; std::_Pair_base<unsigned long const ,ioEtcItem *>::_Pair_base<unsigned long const ,ioEtcItem *>
; Function compile flags: /Ogsp
;	COMDAT ??0?$_Pair_base@$$CBKPAVioEtcItem@@@std@@QAE@$$QBK$$QAPAVioEtcItem@@@Z
_TEXT	SEGMENT
__Val1$ = 8						; size = 4
__Val2$ = 12						; size = 4
??0?$_Pair_base@$$CBKPAVioEtcItem@@@std@@QAE@$$QBK$$QAPAVioEtcItem@@@Z PROC ; std::_Pair_base<unsigned long const ,ioEtcItem *>::_Pair_base<unsigned long const ,ioEtcItem *>, COMDAT
; _this$ = ecx

; 145  : 		{	// construct from specified values

  00000	55		 push	 ebp
  00001	8b ec		 mov	 ebp, esp
  00003	8b c1		 mov	 eax, ecx
  00005	8b 4d 08	 mov	 ecx, DWORD PTR __Val1$[ebp]
  00008	8b 09		 mov	 ecx, DWORD PTR [ecx]
  0000a	89 08		 mov	 DWORD PTR [eax], ecx
  0000c	8b 4d 0c	 mov	 ecx, DWORD PTR __Val2$[ebp]
  0000f	8b 09		 mov	 ecx, DWORD PTR [ecx]
  00011	89 48 04	 mov	 DWORD PTR [eax+4], ecx

; 146  : 		}

  00014	5d		 pop	 ebp
  00015	c2 08 00	 ret	 8
??0?$_Pair_base@$$CBKPAVioEtcItem@@@std@@QAE@$$QBK$$QAPAVioEtcItem@@@Z ENDP ; std::_Pair_base<unsigned long const ,ioEtcItem *>::_Pair_base<unsigned long const ,ioEtcItem *>
_TEXT	ENDS
PUBLIC	?GetEtcItemCount@ioEtcItemManager@@QBEHXZ	; ioEtcItemManager::GetEtcItemCount
; Function compile flags: /Ogsp
; File d:\lost saga for developer\youtube\tutorial\source\src\lsclient\ioetcitemmanager.h
;	COMDAT ?GetEtcItemCount@ioEtcItemManager@@QBEHXZ
_TEXT	SEGMENT
?GetEtcItemCount@ioEtcItemManager@@QBEHXZ PROC		; ioEtcItemManager::GetEtcItemCount, COMDAT
; _this$ = ecx

; 40   : 	inline int GetEtcItemCount() const { return m_EtcItemMap.size(); }

  00000	8b 41 0c	 mov	 eax, DWORD PTR [ecx+12]
  00003	c3		 ret	 0
?GetEtcItemCount@ioEtcItemManager@@QBEHXZ ENDP		; ioEtcItemManager::GetEtcItemCount
_TEXT	ENDS
PUBLIC	?begin@?$vector@HV?$allocator@H@std@@@std@@QAE?AV?$_Vector_iterator@V?$_Vector_val@HV?$allocator@H@std@@@std@@@2@XZ ; std::vector<int,std::allocator<int> >::begin
; Function compile flags: /Ogsp
; File c:\program files (x86)\microsoft visual studio 10.0\vc\include\vector
;	COMDAT ?begin@?$vector@HV?$allocator@H@std@@@std@@QAE?AV?$_Vector_iterator@V?$_Vector_val@HV?$allocator@H@std@@@std@@@2@XZ
_TEXT	SEGMENT
___$ReturnUdt$ = 8					; size = 4
?begin@?$vector@HV?$allocator@H@std@@@std@@QAE?AV?$_Vector_iterator@V?$_Vector_val@HV?$allocator@H@std@@@std@@@2@XZ PROC ; std::vector<int,std::allocator<int> >::begin, COMDAT
; _this$ = ecx

; 781  : 		{	// return iterator for beginning of mutable sequence

  00000	55		 push	 ebp
  00001	8b ec		 mov	 ebp, esp

; 782  : 		return (iterator(this->_Myfirst, this));

  00003	8b 09		 mov	 ecx, DWORD PTR [ecx]
  00005	8b 45 08	 mov	 eax, DWORD PTR ___$ReturnUdt$[ebp]
  00008	89 08		 mov	 DWORD PTR [eax], ecx

; 783  : 		}

  0000a	5d		 pop	 ebp
  0000b	c2 04 00	 ret	 4
?begin@?$vector@HV?$allocator@H@std@@@std@@QAE?AV?$_Vector_iterator@V?$_Vector_val@HV?$allocator@H@std@@@std@@@2@XZ ENDP ; std::vector<int,std::allocator<int> >::begin
_TEXT	ENDS
PUBLIC	?end@?$vector@HV?$allocator@H@std@@@std@@QAE?AV?$_Vector_iterator@V?$_Vector_val@HV?$allocator@H@std@@@std@@@2@XZ ; std::vector<int,std::allocator<int> >::end
; Function compile flags: /Ogsp
;	COMDAT ?end@?$vector@HV?$allocator@H@std@@@std@@QAE?AV?$_Vector_iterator@V?$_Vector_val@HV?$allocator@H@std@@@std@@@2@XZ
_TEXT	SEGMENT
___$ReturnUdt$ = 8					; size = 4
?end@?$vector@HV?$allocator@H@std@@@std@@QAE?AV?$_Vector_iterator@V?$_Vector_val@HV?$allocator@H@std@@@std@@@2@XZ PROC ; std::vector<int,std::allocator<int> >::end, COMDAT
; _this$ = ecx

; 791  : 		{	// return iterator for end of mutable sequence

  00000	55		 push	 ebp
  00001	8b ec		 mov	 ebp, esp

; 792  : 		return (iterator(this->_Mylast, this));

  00003	8b 49 04	 mov	 ecx, DWORD PTR [ecx+4]
  00006	8b 45 08	 mov	 eax, DWORD PTR ___$ReturnUdt$[ebp]
  00009	89 08		 mov	 DWORD PTR [eax], ecx

; 793  : 		}

  0000b	5d		 pop	 ebp
  0000c	c2 04 00	 ret	 4
?end@?$vector@HV?$allocator@H@std@@@std@@QAE?AV?$_Vector_iterator@V?$_Vector_val@HV?$allocator@H@std@@@std@@@2@XZ ENDP ; std::vector<int,std::allocator<int> >::end
_TEXT	ENDS
PUBLIC	?max_size@?$vector@HV?$allocator@H@std@@@std@@QBEIXZ ; std::vector<int,std::allocator<int> >::max_size
; Function compile flags: /Ogsp
;	COMDAT ?max_size@?$vector@HV?$allocator@H@std@@@std@@QBEIXZ
_TEXT	SEGMENT
?max_size@?$vector@HV?$allocator@H@std@@@std@@QBEIXZ PROC ; std::vector<int,std::allocator<int> >::max_size, COMDAT
; _this$ = ecx

; 884  : 		return (this->_Alval.max_size());

  00000	b8 ff ff ff 3f	 mov	 eax, 1073741823		; 3fffffffH

; 885  : 		}

  00005	c3		 ret	 0
?max_size@?$vector@HV?$allocator@H@std@@@std@@QBEIXZ ENDP ; std::vector<int,std::allocator<int> >::max_size
_TEXT	ENDS
PUBLIC	?_Grow_to@?$vector@HV?$allocator@H@std@@@std@@IBEII@Z ; std::vector<int,std::allocator<int> >::_Grow_to
; Function compile flags: /Ogsp
;	COMDAT ?_Grow_to@?$vector@HV?$allocator@H@std@@@std@@IBEII@Z
_TEXT	SEGMENT
__Count$ = 8						; size = 4
?_Grow_to@?$vector@HV?$allocator@H@std@@@std@@IBEII@Z PROC ; std::vector<int,std::allocator<int> >::_Grow_to, COMDAT
; _this$ = ecx

; 1274 : 		{	// grow by 50% or at least to _Count

  00000	55		 push	 ebp
  00001	8b ec		 mov	 ebp, esp

; 1275 : 		size_type _Capacity = capacity();

  00003	8b 41 08	 mov	 eax, DWORD PTR [ecx+8]
  00006	2b 01		 sub	 eax, DWORD PTR [ecx]

; 1276 : 
; 1277 : 		_Capacity = max_size() - _Capacity / 2 < _Capacity
; 1278 : 			? 0 : _Capacity + _Capacity / 2;	// try to grow by 50%

  00008	ba ff ff ff 3f	 mov	 edx, 1073741823		; 3fffffffH
  0000d	c1 f8 02	 sar	 eax, 2
  00010	8b c8		 mov	 ecx, eax
  00012	d1 e9		 shr	 ecx, 1
  00014	2b d1		 sub	 edx, ecx
  00016	3b d0		 cmp	 edx, eax
  00018	73 04		 jae	 SHORT $LN4@Grow_to@2
  0001a	33 c0		 xor	 eax, eax
  0001c	eb 02		 jmp	 SHORT $LN5@Grow_to@2
$LN4@Grow_to@2:
  0001e	03 c1		 add	 eax, ecx
$LN5@Grow_to@2:

; 1279 : 		if (_Capacity < _Count)

  00020	3b 45 08	 cmp	 eax, DWORD PTR __Count$[ebp]

; 1280 : 			_Capacity = _Count;

  00023	0f 42 45 08	 cmovb	 eax, DWORD PTR __Count$[ebp]

; 1281 : 		return (_Capacity);
; 1282 : 		}

  00027	5d		 pop	 ebp
  00028	c2 04 00	 ret	 4
?_Grow_to@?$vector@HV?$allocator@H@std@@@std@@IBEII@Z ENDP ; std::vector<int,std::allocator<int> >::_Grow_to
_TEXT	ENDS
PUBLIC	?allocate@?$allocator@H@std@@QAEPAHI@Z		; std::allocator<int>::allocate
; Function compile flags: /Ogsp
; File c:\program files (x86)\microsoft visual studio 10.0\vc\include\xmemory
;	COMDAT ?allocate@?$allocator@H@std@@QAEPAHI@Z
_TEXT	SEGMENT
__Count$ = 8						; size = 4
?allocate@?$allocator@H@std@@QAEPAHI@Z PROC		; std::allocator<int>::allocate, COMDAT
; _this$ = ecx

; 186  : 		{	// allocate array of _Count elements

  00000	55		 push	 ebp
  00001	8b ec		 mov	 ebp, esp

; 187  : 		return (_Allocate(_Count, (pointer)0));

  00003	6a 00		 push	 0
  00005	ff 75 08	 push	 DWORD PTR __Count$[ebp]
  00008	e8 00 00 00 00	 call	 ??$_Allocate@H@std@@YAPAHIPAH@Z ; std::_Allocate<int>
  0000d	59		 pop	 ecx
  0000e	59		 pop	 ecx

; 188  : 		}

  0000f	5d		 pop	 ebp
  00010	c2 04 00	 ret	 4
?allocate@?$allocator@H@std@@QAEPAHI@Z ENDP		; std::allocator<int>::allocate
_TEXT	ENDS
PUBLIC	??8?$_Vector_const_iterator@V?$_Vector_val@HV?$allocator@H@std@@@std@@@std@@QBE_NABV01@@Z ; std::_Vector_const_iterator<std::_Vector_val<int,std::allocator<int> > >::operator==
; Function compile flags: /Ogsp
; File c:\program files (x86)\microsoft visual studio 10.0\vc\include\vector
;	COMDAT ??8?$_Vector_const_iterator@V?$_Vector_val@HV?$allocator@H@std@@@std@@@std@@QBE_NABV01@@Z
_TEXT	SEGMENT
__Right$ = 8						; size = 4
??8?$_Vector_const_iterator@V?$_Vector_val@HV?$allocator@H@std@@@std@@@std@@QBE_NABV01@@Z PROC ; std::_Vector_const_iterator<std::_Vector_val<int,std::allocator<int> > >::operator==, COMDAT
; _this$ = ecx

; 201  : 		{	// test for iterator equality

  00000	55		 push	 ebp
  00001	8b ec		 mov	 ebp, esp

; 202  : 		_Compat(_Right);
; 203  : 		return (this->_Ptr == _Right._Ptr);

  00003	8b 01		 mov	 eax, DWORD PTR [ecx]
  00005	8b 4d 08	 mov	 ecx, DWORD PTR __Right$[ebp]
  00008	2b 01		 sub	 eax, DWORD PTR [ecx]
  0000a	f7 d8		 neg	 eax
  0000c	1b c0		 sbb	 eax, eax
  0000e	40		 inc	 eax

; 204  : 		}

  0000f	5d		 pop	 ebp
  00010	c2 04 00	 ret	 4
??8?$_Vector_const_iterator@V?$_Vector_val@HV?$allocator@H@std@@@std@@@std@@QBE_NABV01@@Z ENDP ; std::_Vector_const_iterator<std::_Vector_val<int,std::allocator<int> > >::operator==
_TEXT	ENDS
PUBLIC	??$_Move@PAHPAH@std@@YAPAHPAH00@Z		; std::_Move<int *,int *>
; Function compile flags: /Ogsp
; File c:\program files (x86)\microsoft visual studio 10.0\vc\include\xutility
;	COMDAT ??$_Move@PAHPAH@std@@YAPAHPAH00@Z
_TEXT	SEGMENT
__Cat$510776 = -4					; size = 1
__First$ = 8						; size = 4
__Last$ = 12						; size = 4
__Dest$ = 16						; size = 4
??$_Move@PAHPAH@std@@YAPAHPAH00@Z PROC			; std::_Move<int *,int *>, COMDAT

; 2533 : 	{	// move [_First, _Last) to [_Dest, ...), unchecked

  00000	55		 push	 ebp
  00001	8b ec		 mov	 ebp, esp
  00003	51		 push	 ecx

; 2534 : 	return (_Move(_First, _Last,
; 2535 : 		_Dest, _Ptr_cat(_First, _Dest)));

  00004	ff 75 fc	 push	 DWORD PTR __Cat$510776[ebp]
  00007	ff 75 10	 push	 DWORD PTR __Dest$[ebp]
  0000a	ff 75 0c	 push	 DWORD PTR __Last$[ebp]
  0000d	ff 75 08	 push	 DWORD PTR __First$[ebp]
  00010	e8 00 00 00 00	 call	 ??$_Move@PAHPAH@std@@YAPAHPAH00U_Scalar_ptr_iterator_tag@0@@Z ; std::_Move<int *,int *>
  00015	83 c4 10	 add	 esp, 16			; 00000010H

; 2536 : 	}

  00018	c9		 leave
  00019	c3		 ret	 0
??$_Move@PAHPAH@std@@YAPAHPAH00@Z ENDP			; std::_Move<int *,int *>
_TEXT	ENDS
PUBLIC	??$_Destroy_range@V?$allocator@H@std@@@std@@YAXPAH0AAV?$allocator@H@0@@Z ; std::_Destroy_range<std::allocator<int> >
; Function compile flags: /Ogsp
; File c:\program files (x86)\microsoft visual studio 10.0\vc\include\xmemory
;	COMDAT ??$_Destroy_range@V?$allocator@H@std@@@std@@YAXPAH0AAV?$allocator@H@0@@Z
_TEXT	SEGMENT
__First$ = 8						; size = 4
__Last$ = 12						; size = 4
__Al$ = 16						; size = 4
??$_Destroy_range@V?$allocator@H@std@@@std@@YAXPAH0AAV?$allocator@H@0@@Z PROC ; std::_Destroy_range<std::allocator<int> >, COMDAT

; 88   : 	_Destroy_range(_First, _Last, _Al, _Ptr_cat(_First, _Last));
; 89   : 	}

  00000	c3		 ret	 0
??$_Destroy_range@V?$allocator@H@std@@@std@@YAXPAH0AAV?$allocator@H@0@@Z ENDP ; std::_Destroy_range<std::allocator<int> >
_TEXT	ENDS
PUBLIC	??$swap@D@std@@YAXAAD0@Z			; std::swap<char>
; Function compile flags: /Ogsp
; File c:\program files (x86)\microsoft visual studio 10.0\vc\include\utility
;	COMDAT ??$swap@D@std@@YAXAAD0@Z
_TEXT	SEGMENT
__Left$ = 8						; size = 4
__Right$ = 12						; size = 4
??$swap@D@std@@YAXAAD0@Z PROC				; std::swap<char>, COMDAT

; 101  : 	{	// exchange values stored at _Left and _Right

  00000	55		 push	 ebp
  00001	8b ec		 mov	 ebp, esp

; 102  : 	_Ty _Tmp = _Move(_Left);

  00003	8b 45 08	 mov	 eax, DWORD PTR __Left$[ebp]
  00006	8a 08		 mov	 cl, BYTE PTR [eax]
  00008	56		 push	 esi

; 103  : 	_Left = _Move(_Right);

  00009	8b 75 0c	 mov	 esi, DWORD PTR __Right$[ebp]
  0000c	8a 16		 mov	 dl, BYTE PTR [esi]
  0000e	88 10		 mov	 BYTE PTR [eax], dl

; 104  : 	_Right = _Move(_Tmp);

  00010	88 0e		 mov	 BYTE PTR [esi], cl
  00012	5e		 pop	 esi

; 105  : 	}

  00013	5d		 pop	 ebp
  00014	c3		 ret	 0
??$swap@D@std@@YAXAAD0@Z ENDP				; std::swap<char>
_TEXT	ENDS
PUBLIC	??$_Uninitialized_move@PAHPAHV?$allocator@H@std@@@std@@YAPAHPAH00AAV?$allocator@H@0@@Z ; std::_Uninitialized_move<int *,int *,std::allocator<int> >
; Function compile flags: /Ogsp
; File c:\program files (x86)\microsoft visual studio 10.0\vc\include\memory
;	COMDAT ??$_Uninitialized_move@PAHPAHV?$allocator@H@std@@@std@@YAPAHPAH00AAV?$allocator@H@0@@Z
_TEXT	SEGMENT
__First$ = 8						; size = 4
__Last$ = 12						; size = 4
__Dest$ = 16						; size = 4
__Al$ = 20						; size = 4
??$_Uninitialized_move@PAHPAHV?$allocator@H@std@@@std@@YAPAHPAH00AAV?$allocator@H@0@@Z PROC ; std::_Uninitialized_move<int *,int *,std::allocator<int> >, COMDAT

; 469  : 	{	// move [_First, _Last) to raw _Dest, using _Al

  00000	55		 push	 ebp
  00001	8b ec		 mov	 ebp, esp
  00003	56		 push	 esi

; 470  : 	return (_Uninit_move(_First, _Last, _Dest, _Al,
; 471  : 		_Val_type(_First), _Ptr_cat(_First, _Dest)));

  00004	8b 75 0c	 mov	 esi, DWORD PTR __Last$[ebp]
  00007	2b 75 08	 sub	 esi, DWORD PTR __First$[ebp]
  0000a	c1 fe 02	 sar	 esi, 2
  0000d	c1 e6 02	 shl	 esi, 2
  00010	56		 push	 esi
  00011	ff 75 08	 push	 DWORD PTR __First$[ebp]
  00014	ff 75 10	 push	 DWORD PTR __Dest$[ebp]
  00017	ff 15 00 00 00
	00		 call	 DWORD PTR __imp__memmove
  0001d	83 c4 0c	 add	 esp, 12			; 0000000cH
  00020	03 c6		 add	 eax, esi
  00022	5e		 pop	 esi

; 472  : 	}

  00023	5d		 pop	 ebp
  00024	c3		 ret	 0
??$_Uninitialized_move@PAHPAHV?$allocator@H@std@@@std@@YAPAHPAH00AAV?$allocator@H@0@@Z ENDP ; std::_Uninitialized_move<int *,int *,std::allocator<int> >
_TEXT	ENDS
PUBLIC	?begin@?$_Tree@V?$_Tmap_traits@KPAVioEtcItem@@U?$less@K@std@@V?$allocator@U?$pair@$$CBKPAVioEtcItem@@@std@@@3@$0A@@std@@@std@@QBE?AV?$_Tree_const_iterator@V?$_Tree_val@V?$_Tmap_traits@KPAVioEtcItem@@U?$less@K@std@@V?$allocator@U?$pair@$$CBKPAVioEtcItem@@@std@@@3@$0A@@std@@@std@@@2@XZ ; std::_Tree<std::_Tmap_traits<unsigned long,ioEtcItem *,std::less<unsigned long>,std::allocator<std::pair<unsigned long const ,ioEtcItem *> >,0> >::begin
; Function compile flags: /Ogsp
; File c:\program files (x86)\microsoft visual studio 10.0\vc\include\xtree
;	COMDAT ?begin@?$_Tree@V?$_Tmap_traits@KPAVioEtcItem@@U?$less@K@std@@V?$allocator@U?$pair@$$CBKPAVioEtcItem@@@std@@@3@$0A@@std@@@std@@QBE?AV?$_Tree_const_iterator@V?$_Tree_val@V?$_Tmap_traits@KPAVioEtcItem@@U?$less@K@std@@V?$allocator@U?$pair@$$CBKPAVioEtcItem@@@std@@@3@$0A@@std@@@std@@@2@XZ
_TEXT	SEGMENT
___$ReturnUdt$ = 8					; size = 4
?begin@?$_Tree@V?$_Tmap_traits@KPAVioEtcItem@@U?$less@K@std@@V?$allocator@U?$pair@$$CBKPAVioEtcItem@@@std@@@3@$0A@@std@@@std@@QBE?AV?$_Tree_const_iterator@V?$_Tree_val@V?$_Tmap_traits@KPAVioEtcItem@@U?$less@K@std@@V?$allocator@U?$pair@$$CBKPAVioEtcItem@@@std@@@3@$0A@@std@@@std@@@2@XZ PROC ; std::_Tree<std::_Tmap_traits<unsigned long,ioEtcItem *,std::less<unsigned long>,std::allocator<std::pair<unsigned long const ,ioEtcItem *> >,0> >::begin, COMDAT
; _this$ = ecx

; 811  : 		{	// return iterator for beginning of nonmutable sequence

  00000	55		 push	 ebp
  00001	8b ec		 mov	 ebp, esp

; 812  : 		return (const_iterator(_Lmost(), this));

  00003	8b 41 04	 mov	 eax, DWORD PTR [ecx+4]
  00006	8b 08		 mov	 ecx, DWORD PTR [eax]
  00008	8b 45 08	 mov	 eax, DWORD PTR ___$ReturnUdt$[ebp]
  0000b	89 08		 mov	 DWORD PTR [eax], ecx

; 813  : 		}

  0000d	5d		 pop	 ebp
  0000e	c2 04 00	 ret	 4
?begin@?$_Tree@V?$_Tmap_traits@KPAVioEtcItem@@U?$less@K@std@@V?$allocator@U?$pair@$$CBKPAVioEtcItem@@@std@@@3@$0A@@std@@@std@@QBE?AV?$_Tree_const_iterator@V?$_Tree_val@V?$_Tmap_traits@KPAVioEtcItem@@U?$less@K@std@@V?$allocator@U?$pair@$$CBKPAVioEtcItem@@@std@@@3@$0A@@std@@@std@@@2@XZ ENDP ; std::_Tree<std::_Tmap_traits<unsigned long,ioEtcItem *,std::less<unsigned long>,std::allocator<std::pair<unsigned long const ,ioEtcItem *> >,0> >::begin
_TEXT	ENDS
PUBLIC	??0?$_Tree_iterator@V?$_Tree_val@V?$_Tmap_traits@KPAVioEtcItem@@U?$less@K@std@@V?$allocator@U?$pair@$$CBKPAVioEtcItem@@@std@@@3@$0A@@std@@@std@@@std@@QAE@XZ ; std::_Tree_iterator<std::_Tree_val<std::_Tmap_traits<unsigned long,ioEtcItem *,std::less<unsigned long>,std::allocator<std::pair<unsigned long const ,ioEtcItem *> >,0> > >::_Tree_iterator<std::_Tree_val<std::_Tmap_traits<unsigned long,ioEtcItem *,std::less<unsigned long>,std::allocator<std::pair<unsigned long const ,ioEtcItem *> >,0> > >
; Function compile flags: /Ogsp
;	COMDAT ??0?$_Tree_iterator@V?$_Tree_val@V?$_Tmap_traits@KPAVioEtcItem@@U?$less@K@std@@V?$allocator@U?$pair@$$CBKPAVioEtcItem@@@std@@@3@$0A@@std@@@std@@@std@@QAE@XZ
_TEXT	SEGMENT
??0?$_Tree_iterator@V?$_Tree_val@V?$_Tmap_traits@KPAVioEtcItem@@U?$less@K@std@@V?$allocator@U?$pair@$$CBKPAVioEtcItem@@@std@@@3@$0A@@std@@@std@@@std@@QAE@XZ PROC ; std::_Tree_iterator<std::_Tree_val<std::_Tmap_traits<unsigned long,ioEtcItem *,std::less<unsigned long>,std::allocator<std::pair<unsigned long const ,ioEtcItem *> >,0> > >::_Tree_iterator<std::_Tree_val<std::_Tmap_traits<unsigned long,ioEtcItem *,std::less<unsigned long>,std::allocator<std::pair<unsigned long const ,ioEtcItem *> >,0> > >, COMDAT
; _this$ = ecx

; 372  : 	_Tree_iterator()

  00000	8b c1		 mov	 eax, ecx
  00002	83 20 00	 and	 DWORD PTR [eax], 0

; 373  : 		{	// construct with null node
; 374  : 		}

  00005	c3		 ret	 0
??0?$_Tree_iterator@V?$_Tree_val@V?$_Tmap_traits@KPAVioEtcItem@@U?$less@K@std@@V?$allocator@U?$pair@$$CBKPAVioEtcItem@@@std@@@3@$0A@@std@@@std@@@std@@QAE@XZ ENDP ; std::_Tree_iterator<std::_Tree_val<std::_Tmap_traits<unsigned long,ioEtcItem *,std::less<unsigned long>,std::allocator<std::pair<unsigned long const ,ioEtcItem *> >,0> > >::_Tree_iterator<std::_Tree_val<std::_Tmap_traits<unsigned long,ioEtcItem *,std::less<unsigned long>,std::allocator<std::pair<unsigned long const ,ioEtcItem *> >,0> > >
_TEXT	ENDS
PUBLIC	??C?$_Tree_iterator@V?$_Tree_val@V?$_Tmap_traits@KPAVioEtcItem@@U?$less@K@std@@V?$allocator@U?$pair@$$CBKPAVioEtcItem@@@std@@@3@$0A@@std@@@std@@@std@@QBEPAU?$pair@$$CBKPAVioEtcItem@@@1@XZ ; std::_Tree_iterator<std::_Tree_val<std::_Tmap_traits<unsigned long,ioEtcItem *,std::less<unsigned long>,std::allocator<std::pair<unsigned long const ,ioEtcItem *> >,0> > >::operator->
; Function compile flags: /Ogsp
;	COMDAT ??C?$_Tree_iterator@V?$_Tree_val@V?$_Tmap_traits@KPAVioEtcItem@@U?$less@K@std@@V?$allocator@U?$pair@$$CBKPAVioEtcItem@@@std@@@3@$0A@@std@@@std@@@std@@QBEPAU?$pair@$$CBKPAVioEtcItem@@@1@XZ
_TEXT	SEGMENT
??C?$_Tree_iterator@V?$_Tree_val@V?$_Tmap_traits@KPAVioEtcItem@@U?$less@K@std@@V?$allocator@U?$pair@$$CBKPAVioEtcItem@@@std@@@3@$0A@@std@@@std@@@std@@QBEPAU?$pair@$$CBKPAVioEtcItem@@@1@XZ PROC ; std::_Tree_iterator<std::_Tree_val<std::_Tmap_traits<unsigned long,ioEtcItem *,std::less<unsigned long>,std::allocator<std::pair<unsigned long const ,ioEtcItem *> >,0> > >::operator->, COMDAT
; _this$ = ecx

; 401  : 		return (&**this);

  00000	8b 01		 mov	 eax, DWORD PTR [ecx]
  00002	83 c0 0c	 add	 eax, 12			; 0000000cH

; 402  : 		}

  00005	c3		 ret	 0
??C?$_Tree_iterator@V?$_Tree_val@V?$_Tmap_traits@KPAVioEtcItem@@U?$less@K@std@@V?$allocator@U?$pair@$$CBKPAVioEtcItem@@@std@@@3@$0A@@std@@@std@@@std@@QBEPAU?$pair@$$CBKPAVioEtcItem@@@1@XZ ENDP ; std::_Tree_iterator<std::_Tree_val<std::_Tmap_traits<unsigned long,ioEtcItem *,std::less<unsigned long>,std::allocator<std::pair<unsigned long const ,ioEtcItem *> >,0> > >::operator->
_TEXT	ENDS
PUBLIC	??E?$_Tree_const_iterator@V?$_Tree_val@V?$_Tmap_traits@KPAVioEtcItem@@U?$less@K@std@@V?$allocator@U?$pair@$$CBKPAVioEtcItem@@@std@@@3@$0A@@std@@@std@@@std@@QAEAAV01@XZ ; std::_Tree_const_iterator<std::_Tree_val<std::_Tmap_traits<unsigned long,ioEtcItem *,std::less<unsigned long>,std::allocator<std::pair<unsigned long const ,ioEtcItem *> >,0> > >::operator++
; Function compile flags: /Ogsp
;	COMDAT ??E?$_Tree_const_iterator@V?$_Tree_val@V?$_Tmap_traits@KPAVioEtcItem@@U?$less@K@std@@V?$allocator@U?$pair@$$CBKPAVioEtcItem@@@std@@@3@$0A@@std@@@std@@@std@@QAEAAV01@XZ
_TEXT	SEGMENT
??E?$_Tree_const_iterator@V?$_Tree_val@V?$_Tmap_traits@KPAVioEtcItem@@U?$less@K@std@@V?$allocator@U?$pair@$$CBKPAVioEtcItem@@@std@@@3@$0A@@std@@@std@@@std@@QAEAAV01@XZ PROC ; std::_Tree_const_iterator<std::_Tree_val<std::_Tmap_traits<unsigned long,ioEtcItem *,std::less<unsigned long>,std::allocator<std::pair<unsigned long const ,ioEtcItem *> >,0> > >::operator++, COMDAT
; _this$ = ecx

; 250  : 		{	// preincrement

  00000	56		 push	 esi
  00001	8b f1		 mov	 esi, ecx

; 251  :  #if _ITERATOR_DEBUG_LEVEL == 2
; 252  : 		if (this->_Getcont() == 0
; 253  : 			|| this->_Ptr == 0
; 254  : 			|| _Mytree::_Isnil(this->_Ptr))
; 255  : 			{	// report error
; 256  : 			_DEBUG_ERROR("map/set iterator not incrementable");
; 257  : 			_SCL_SECURE_OUT_OF_RANGE;
; 258  : 			}
; 259  : 
; 260  :  #elif _ITERATOR_DEBUG_LEVEL == 1
; 261  : 		_SCL_SECURE_VALIDATE(this->_Getcont() != 0 && this->_Ptr != 0);
; 262  : 		_SCL_SECURE_VALIDATE_RANGE(!_Mytree::_Isnil(this->_Ptr));
; 263  :  #endif /* _ITERATOR_DEBUG_LEVEL */
; 264  : 
; 265  : 		++(*(_Mybase *)this);

  00003	e8 00 00 00 00	 call	 ??E?$_Tree_unchecked_const_iterator@V?$_Tree_val@V?$_Tmap_traits@KPAVioEtcItem@@U?$less@K@std@@V?$allocator@U?$pair@$$CBKPAVioEtcItem@@@std@@@3@$0A@@std@@@std@@U_Iterator_base0@2@@std@@QAEAAV01@XZ ; std::_Tree_unchecked_const_iterator<std::_Tree_val<std::_Tmap_traits<unsigned long,ioEtcItem *,std::less<unsigned long>,std::allocator<std::pair<unsigned long const ,ioEtcItem *> >,0> >,std::_Iterator_base0>::operator++

; 266  : 		return (*this);

  00008	8b c6		 mov	 eax, esi
  0000a	5e		 pop	 esi

; 267  : 		}

  0000b	c3		 ret	 0
??E?$_Tree_const_iterator@V?$_Tree_val@V?$_Tmap_traits@KPAVioEtcItem@@U?$less@K@std@@V?$allocator@U?$pair@$$CBKPAVioEtcItem@@@std@@@3@$0A@@std@@@std@@@std@@QAEAAV01@XZ ENDP ; std::_Tree_const_iterator<std::_Tree_val<std::_Tmap_traits<unsigned long,ioEtcItem *,std::less<unsigned long>,std::allocator<std::pair<unsigned long const ,ioEtcItem *> >,0> > >::operator++
_TEXT	ENDS
PUBLIC	??C?$_Tree_unchecked_const_iterator@V?$_Tree_val@V?$_Tmap_traits@KPAVioEtcItem@@U?$less@K@std@@V?$allocator@U?$pair@$$CBKPAVioEtcItem@@@std@@@3@$0A@@std@@@std@@U_Iterator_base0@2@@std@@QBEPBU?$pair@$$CBKPAVioEtcItem@@@1@XZ ; std::_Tree_unchecked_const_iterator<std::_Tree_val<std::_Tmap_traits<unsigned long,ioEtcItem *,std::less<unsigned long>,std::allocator<std::pair<unsigned long const ,ioEtcItem *> >,0> >,std::_Iterator_base0>::operator->
; Function compile flags: /Ogsp
;	COMDAT ??C?$_Tree_unchecked_const_iterator@V?$_Tree_val@V?$_Tmap_traits@KPAVioEtcItem@@U?$less@K@std@@V?$allocator@U?$pair@$$CBKPAVioEtcItem@@@std@@@3@$0A@@std@@@std@@U_Iterator_base0@2@@std@@QBEPBU?$pair@$$CBKPAVioEtcItem@@@1@XZ
_TEXT	SEGMENT
??C?$_Tree_unchecked_const_iterator@V?$_Tree_val@V?$_Tmap_traits@KPAVioEtcItem@@U?$less@K@std@@V?$allocator@U?$pair@$$CBKPAVioEtcItem@@@std@@@3@$0A@@std@@@std@@U_Iterator_base0@2@@std@@QBEPBU?$pair@$$CBKPAVioEtcItem@@@1@XZ PROC ; std::_Tree_unchecked_const_iterator<std::_Tree_val<std::_Tmap_traits<unsigned long,ioEtcItem *,std::less<unsigned long>,std::allocator<std::pair<unsigned long const ,ioEtcItem *> >,0> >,std::_Iterator_base0>::operator->, COMDAT
; _this$ = ecx

; 54   : 		return (&**this);

  00000	8b 01		 mov	 eax, DWORD PTR [ecx]
  00002	83 c0 0c	 add	 eax, 12			; 0000000cH

; 55   : 		}

  00005	c3		 ret	 0
??C?$_Tree_unchecked_const_iterator@V?$_Tree_val@V?$_Tmap_traits@KPAVioEtcItem@@U?$less@K@std@@V?$allocator@U?$pair@$$CBKPAVioEtcItem@@@std@@@3@$0A@@std@@@std@@U_Iterator_base0@2@@std@@QBEPBU?$pair@$$CBKPAVioEtcItem@@@1@XZ ENDP ; std::_Tree_unchecked_const_iterator<std::_Tree_val<std::_Tmap_traits<unsigned long,ioEtcItem *,std::less<unsigned long>,std::allocator<std::pair<unsigned long const ,ioEtcItem *> >,0> >,std::_Iterator_base0>::operator->
_TEXT	ENDS
PUBLIC	??0?$_Tree_iterator@V?$_Tree_val@V?$_Tmap_traits@KPAVioEtcItem@@U?$less@K@std@@V?$allocator@U?$pair@$$CBKPAVioEtcItem@@@std@@@3@$0A@@std@@@std@@@std@@QAE@PAU_Node@?$_Tree_nod@V?$_Tmap_traits@KPAVioEtcItem@@U?$less@K@std@@V?$allocator@U?$pair@$$CBKPAVioEtcItem@@@std@@@3@$0A@@std@@@1@PBV?$_Tree_val@V?$_Tmap_traits@KPAVioEtcItem@@U?$less@K@std@@V?$allocator@U?$pair@$$CBKPAVioEtcItem@@@std@@@3@$0A@@std@@@1@@Z ; std::_Tree_iterator<std::_Tree_val<std::_Tmap_traits<unsigned long,ioEtcItem *,std::less<unsigned long>,std::allocator<std::pair<unsigned long const ,ioEtcItem *> >,0> > >::_Tree_iterator<std::_Tree_val<std::_Tmap_traits<unsigned long,ioEtcItem *,std::less<unsigned long>,std::allocator<std::pair<unsigned long const ,ioEtcItem *> >,0> > >
; Function compile flags: /Ogsp
;	COMDAT ??0?$_Tree_iterator@V?$_Tree_val@V?$_Tmap_traits@KPAVioEtcItem@@U?$less@K@std@@V?$allocator@U?$pair@$$CBKPAVioEtcItem@@@std@@@3@$0A@@std@@@std@@@std@@QAE@PAU_Node@?$_Tree_nod@V?$_Tmap_traits@KPAVioEtcItem@@U?$less@K@std@@V?$allocator@U?$pair@$$CBKPAVioEtcItem@@@std@@@3@$0A@@std@@@1@PBV?$_Tree_val@V?$_Tmap_traits@KPAVioEtcItem@@U?$less@K@std@@V?$allocator@U?$pair@$$CBKPAVioEtcItem@@@std@@@3@$0A@@std@@@1@@Z
_TEXT	SEGMENT
__Pnode$ = 8						; size = 4
__Plist$ = 12						; size = 4
??0?$_Tree_iterator@V?$_Tree_val@V?$_Tmap_traits@KPAVioEtcItem@@U?$less@K@std@@V?$allocator@U?$pair@$$CBKPAVioEtcItem@@@std@@@3@$0A@@std@@@std@@@std@@QAE@PAU_Node@?$_Tree_nod@V?$_Tmap_traits@KPAVioEtcItem@@U?$less@K@std@@V?$allocator@U?$pair@$$CBKPAVioEtcItem@@@std@@@3@$0A@@std@@@1@PBV?$_Tree_val@V?$_Tmap_traits@KPAVioEtcItem@@U?$less@K@std@@V?$allocator@U?$pair@$$CBKPAVioEtcItem@@@std@@@3@$0A@@std@@@1@@Z PROC ; std::_Tree_iterator<std::_Tree_val<std::_Tmap_traits<unsigned long,ioEtcItem *,std::less<unsigned long>,std::allocator<std::pair<unsigned long const ,ioEtcItem *> >,0> > >::_Tree_iterator<std::_Tree_val<std::_Tmap_traits<unsigned long,ioEtcItem *,std::less<unsigned long>,std::allocator<std::pair<unsigned long const ,ioEtcItem *> >,0> > >, COMDAT
; _this$ = ecx

; 378  : 		{	// construct with node pointer _Pnode

  00000	55		 push	 ebp
  00001	8b ec		 mov	 ebp, esp
  00003	8b c1		 mov	 eax, ecx
  00005	8b 4d 08	 mov	 ecx, DWORD PTR __Pnode$[ebp]
  00008	89 08		 mov	 DWORD PTR [eax], ecx

; 379  : 		}

  0000a	5d		 pop	 ebp
  0000b	c2 08 00	 ret	 8
??0?$_Tree_iterator@V?$_Tree_val@V?$_Tmap_traits@KPAVioEtcItem@@U?$less@K@std@@V?$allocator@U?$pair@$$CBKPAVioEtcItem@@@std@@@3@$0A@@std@@@std@@@std@@QAE@PAU_Node@?$_Tree_nod@V?$_Tmap_traits@KPAVioEtcItem@@U?$less@K@std@@V?$allocator@U?$pair@$$CBKPAVioEtcItem@@@std@@@3@$0A@@std@@@1@PBV?$_Tree_val@V?$_Tmap_traits@KPAVioEtcItem@@U?$less@K@std@@V?$allocator@U?$pair@$$CBKPAVioEtcItem@@@std@@@3@$0A@@std@@@1@@Z ENDP ; std::_Tree_iterator<std::_Tree_val<std::_Tmap_traits<unsigned long,ioEtcItem *,std::less<unsigned long>,std::allocator<std::pair<unsigned long const ,ioEtcItem *> >,0> > >::_Tree_iterator<std::_Tree_val<std::_Tmap_traits<unsigned long,ioEtcItem *,std::less<unsigned long>,std::allocator<std::pair<unsigned long const ,ioEtcItem *> >,0> > >
_TEXT	ENDS
PUBLIC	??0?$_Tree_val@V?$_Tmap_traits@KPAVioEtcItem@@U?$less@K@std@@V?$allocator@U?$pair@$$CBKPAVioEtcItem@@@std@@@3@$0A@@std@@@std@@QAE@ABU?$less@K@1@V?$allocator@U?$pair@$$CBKPAVioEtcItem@@@std@@@1@@Z ; std::_Tree_val<std::_Tmap_traits<unsigned long,ioEtcItem *,std::less<unsigned long>,std::allocator<std::pair<unsigned long const ,ioEtcItem *> >,0> >::_Tree_val<std::_Tmap_traits<unsigned long,ioEtcItem *,std::less<unsigned long>,std::allocator<std::pair<unsigned long const ,ioEtcItem *> >,0> >
; Function compile flags: /Ogsp
;	COMDAT ??0?$_Tree_val@V?$_Tmap_traits@KPAVioEtcItem@@U?$less@K@std@@V?$allocator@U?$pair@$$CBKPAVioEtcItem@@@std@@@3@$0A@@std@@@std@@QAE@ABU?$less@K@1@V?$allocator@U?$pair@$$CBKPAVioEtcItem@@@std@@@1@@Z
_TEXT	SEGMENT
$T510956 = -16						; size = 12
$T510933 = -4						; size = 4
__Parg$ = 8						; size = 4
__Al$ = 12						; size = 1
??0?$_Tree_val@V?$_Tmap_traits@KPAVioEtcItem@@U?$less@K@std@@V?$allocator@U?$pair@$$CBKPAVioEtcItem@@@std@@@3@$0A@@std@@@std@@QAE@ABU?$less@K@1@V?$allocator@U?$pair@$$CBKPAVioEtcItem@@@std@@@1@@Z PROC ; std::_Tree_val<std::_Tmap_traits<unsigned long,ioEtcItem *,std::less<unsigned long>,std::allocator<std::pair<unsigned long const ,ioEtcItem *> >,0> >::_Tree_val<std::_Tmap_traits<unsigned long,ioEtcItem *,std::less<unsigned long>,std::allocator<std::pair<unsigned long const ,ioEtcItem *> >,0> >, COMDAT
; _this$ = ecx

; 542  : 		{	// construct base, and allocator from _Al

  00000	55		 push	 ebp
  00001	8b ec		 mov	 ebp, esp
  00003	83 ec 10	 sub	 esp, 16			; 00000010H
  00006	56		 push	 esi
  00007	8b f1		 mov	 esi, ecx

; 543  : 		this->_Mysize = 0;

  00009	83 66 08 00	 and	 DWORD PTR [esi+8], 0

; 544  : 		this->_Myhead = this->_Alnod.allocate(1);

  0000d	6a 18		 push	 24			; 00000018H
  0000f	e8 00 00 00 00	 call	 ??2@YAPAXI@Z		; operator new
  00014	59		 pop	 ecx
  00015	85 c0		 test	 eax, eax
  00017	74 26		 je	 SHORT $LN15@Tree_val
  00019	89 46 04	 mov	 DWORD PTR [esi+4], eax

; 545  : 
; 546  : 		this->_Left(this->_Myhead) = this->_Myhead;

  0001c	89 00		 mov	 DWORD PTR [eax], eax

; 547  : 		this->_Parent(this->_Myhead) = this->_Myhead;

  0001e	8b 46 04	 mov	 eax, DWORD PTR [esi+4]
  00021	89 40 04	 mov	 DWORD PTR [eax+4], eax

; 548  : 		this->_Right(this->_Myhead) = this->_Myhead;

  00024	8b 46 04	 mov	 eax, DWORD PTR [esi+4]
  00027	89 40 08	 mov	 DWORD PTR [eax+8], eax

; 549  : 		this->_Color(this->_Myhead) = this->_Black;

  0002a	8b 46 04	 mov	 eax, DWORD PTR [esi+4]
  0002d	c6 40 14 01	 mov	 BYTE PTR [eax+20], 1

; 550  : 		this->_Isnil(this->_Myhead) = true;

  00031	8b 46 04	 mov	 eax, DWORD PTR [esi+4]
  00034	c6 40 15 01	 mov	 BYTE PTR [eax+21], 1

; 551  : 		}

  00038	8b c6		 mov	 eax, esi
  0003a	5e		 pop	 esi
  0003b	c9		 leave
  0003c	c2 08 00	 ret	 8

; 544  : 		this->_Myhead = this->_Alnod.allocate(1);

$LN15@Tree_val:
  0003f	83 65 fc 00	 and	 DWORD PTR $T510933[ebp], 0
  00043	8d 45 fc	 lea	 eax, DWORD PTR $T510933[ebp]
  00046	50		 push	 eax
  00047	8d 4d f0	 lea	 ecx, DWORD PTR $T510956[ebp]
  0004a	ff 15 00 00 00
	00		 call	 DWORD PTR __imp_??0exception@std@@QAE@ABQBD@Z
  00050	68 00 00 00 00	 push	 OFFSET __TI2?AVbad_alloc@std@@
  00055	8d 45 f0	 lea	 eax, DWORD PTR $T510956[ebp]
  00058	50		 push	 eax
  00059	c7 45 f0 00 00
	00 00		 mov	 DWORD PTR $T510956[ebp], OFFSET ??_7bad_alloc@std@@6B@
  00060	e8 00 00 00 00	 call	 __CxxThrowException@8
$LN37@Tree_val:
$LN36@Tree_val:
  00065	cc		 int	 3
??0?$_Tree_val@V?$_Tmap_traits@KPAVioEtcItem@@U?$less@K@std@@V?$allocator@U?$pair@$$CBKPAVioEtcItem@@@std@@@3@$0A@@std@@@std@@QAE@ABU?$less@K@1@V?$allocator@U?$pair@$$CBKPAVioEtcItem@@@std@@@1@@Z ENDP ; std::_Tree_val<std::_Tmap_traits<unsigned long,ioEtcItem *,std::less<unsigned long>,std::allocator<std::pair<unsigned long const ,ioEtcItem *> >,0> >::_Tree_val<std::_Tmap_traits<unsigned long,ioEtcItem *,std::less<unsigned long>,std::allocator<std::pair<unsigned long const ,ioEtcItem *> >,0> >
_TEXT	ENDS
PUBLIC	??E?$_Tree_const_iterator@V?$_Tree_val@V?$_Tmap_traits@KPAVioEtcItem@@U?$less@K@std@@V?$allocator@U?$pair@$$CBKPAVioEtcItem@@@std@@@3@$0A@@std@@@std@@@std@@QAE?AV01@H@Z ; std::_Tree_const_iterator<std::_Tree_val<std::_Tmap_traits<unsigned long,ioEtcItem *,std::less<unsigned long>,std::allocator<std::pair<unsigned long const ,ioEtcItem *> >,0> > >::operator++
; Function compile flags: /Ogsp
;	COMDAT ??E?$_Tree_const_iterator@V?$_Tree_val@V?$_Tmap_traits@KPAVioEtcItem@@U?$less@K@std@@V?$allocator@U?$pair@$$CBKPAVioEtcItem@@@std@@@3@$0A@@std@@@std@@@std@@QAE?AV01@H@Z
_TEXT	SEGMENT
___$ReturnUdt$ = 8					; size = 4
___formal$ = 12						; size = 4
??E?$_Tree_const_iterator@V?$_Tree_val@V?$_Tmap_traits@KPAVioEtcItem@@U?$less@K@std@@V?$allocator@U?$pair@$$CBKPAVioEtcItem@@@std@@@3@$0A@@std@@@std@@@std@@QAE?AV01@H@Z PROC ; std::_Tree_const_iterator<std::_Tree_val<std::_Tmap_traits<unsigned long,ioEtcItem *,std::less<unsigned long>,std::allocator<std::pair<unsigned long const ,ioEtcItem *> >,0> > >::operator++, COMDAT
; _this$ = ecx

; 270  : 		{	// postincrement

  00000	55		 push	 ebp
  00001	8b ec		 mov	 ebp, esp

; 271  : 		_Myiter _Tmp = *this;

  00003	8b 01		 mov	 eax, DWORD PTR [ecx]
  00005	56		 push	 esi
  00006	8b 75 08	 mov	 esi, DWORD PTR ___$ReturnUdt$[ebp]
  00009	89 06		 mov	 DWORD PTR [esi], eax

; 272  : 		++*this;

  0000b	e8 00 00 00 00	 call	 ??E?$_Tree_unchecked_const_iterator@V?$_Tree_val@V?$_Tmap_traits@KPAVioEtcItem@@U?$less@K@std@@V?$allocator@U?$pair@$$CBKPAVioEtcItem@@@std@@@3@$0A@@std@@@std@@U_Iterator_base0@2@@std@@QAEAAV01@XZ ; std::_Tree_unchecked_const_iterator<std::_Tree_val<std::_Tmap_traits<unsigned long,ioEtcItem *,std::less<unsigned long>,std::allocator<std::pair<unsigned long const ,ioEtcItem *> >,0> >,std::_Iterator_base0>::operator++

; 273  : 		return (_Tmp);

  00010	8b c6		 mov	 eax, esi
  00012	5e		 pop	 esi

; 274  : 		}

  00013	5d		 pop	 ebp
  00014	c2 08 00	 ret	 8
??E?$_Tree_const_iterator@V?$_Tree_val@V?$_Tmap_traits@KPAVioEtcItem@@U?$less@K@std@@V?$allocator@U?$pair@$$CBKPAVioEtcItem@@@std@@@3@$0A@@std@@@std@@@std@@QAE?AV01@H@Z ENDP ; std::_Tree_const_iterator<std::_Tree_val<std::_Tmap_traits<unsigned long,ioEtcItem *,std::less<unsigned long>,std::allocator<std::pair<unsigned long const ,ioEtcItem *> >,0> > >::operator++
_TEXT	ENDS
PUBLIC	?_Destroy@?$vector@PBVioEtcItem@@V?$allocator@PBVioEtcItem@@@std@@@std@@IAEXPAPBVioEtcItem@@0@Z ; std::vector<ioEtcItem const *,std::allocator<ioEtcItem const *> >::_Destroy
; Function compile flags: /Ogsp
; File c:\program files (x86)\microsoft visual studio 10.0\vc\include\vector
;	COMDAT ?_Destroy@?$vector@PBVioEtcItem@@V?$allocator@PBVioEtcItem@@@std@@@std@@IAEXPAPBVioEtcItem@@0@Z
_TEXT	SEGMENT
__First$ = 8						; size = 4
__Last$ = 12						; size = 4
?_Destroy@?$vector@PBVioEtcItem@@V?$allocator@PBVioEtcItem@@@std@@@std@@IAEXPAPBVioEtcItem@@0@Z PROC ; std::vector<ioEtcItem const *,std::allocator<ioEtcItem const *> >::_Destroy, COMDAT
; _this$ = ecx

; 1270 : 		_Destroy_range(_First, _Last, this->_Alval);
; 1271 : 		}

  00000	c2 08 00	 ret	 8
?_Destroy@?$vector@PBVioEtcItem@@V?$allocator@PBVioEtcItem@@@std@@@std@@IAEXPAPBVioEtcItem@@0@Z ENDP ; std::vector<ioEtcItem const *,std::allocator<ioEtcItem const *> >::_Destroy
_TEXT	ENDS
PUBLIC	??$?0$0BM@@ioINILoader_e@@QAE@AAY0BM@$$CBD_N@Z	; ioINILoader_e::ioINILoader_e<28>
EXTRN	__imp_??0ioINILoader@@QAE@PBD_N@Z:PROC
; Function compile flags: /Ogsp
; File d:\lost saga for developer\youtube\tutorial\source\src\io3dengine\ioiniloader.h
;	COMDAT ??$?0$0BM@@ioINILoader_e@@QAE@AAY0BM@$$CBD_N@Z
_TEXT	SEGMENT
_fn$ = 8						; size = 4
_b$ = 12						; size = 1
??$?0$0BM@@ioINILoader_e@@QAE@AAY0BM@$$CBD_N@Z PROC	; ioINILoader_e::ioINILoader_e<28>, COMDAT
; _this$ = ecx

; 224  : 	{

  00000	55		 push	 ebp
  00001	8b ec		 mov	 ebp, esp
  00003	53		 push	 ebx
  00004	56		 push	 esi
  00005	57		 push	 edi
  00006	8b f9		 mov	 edi, ecx
  00008	8b 4d 08	 mov	 ecx, DWORD PTR _fn$[ebp]
  0000b	8a 11		 mov	 dl, BYTE PTR [ecx]
  0000d	8d 87 50 03 00
	00		 lea	 eax, DWORD PTR [edi+848]
  00013	84 d2		 test	 dl, dl
  00015	0f 84 6a 04 00
	00		 je	 $LN99@ioINILoade
  0001b	80 f2 ed	 xor	 dl, -19			; ffffffedH
  0001e	88 10		 mov	 BYTE PTR [eax], dl
  00020	8a 51 01	 mov	 dl, BYTE PTR [ecx+1]
  00023	84 d2		 test	 dl, dl
  00025	0f 84 54 04 00
	00		 je	 $LN98@ioINILoade
  0002b	80 f2 ec	 xor	 dl, -20			; ffffffecH
  0002e	88 50 01	 mov	 BYTE PTR [eax+1], dl
  00031	8a 51 02	 mov	 dl, BYTE PTR [ecx+2]
  00034	84 d2		 test	 dl, dl
  00036	0f 84 3d 04 00
	00		 je	 $LN97@ioINILoade
  0003c	b3 eb		 mov	 bl, -21			; ffffffebH
  0003e	32 d3		 xor	 dl, bl
  00040	88 50 02	 mov	 BYTE PTR [eax+2], dl
  00043	8a 51 03	 mov	 dl, BYTE PTR [ecx+3]
  00046	84 d2		 test	 dl, dl
  00048	0f 84 25 04 00
	00		 je	 $LN96@ioINILoade
  0004e	80 f2 ea	 xor	 dl, -22			; ffffffeaH
  00051	88 50 03	 mov	 BYTE PTR [eax+3], dl
  00054	8a 51 04	 mov	 dl, BYTE PTR [ecx+4]
  00057	84 d2		 test	 dl, dl
  00059	0f 84 0e 04 00
	00		 je	 $LN95@ioINILoade
  0005f	80 f2 ed	 xor	 dl, -19			; ffffffedH
  00062	88 50 04	 mov	 BYTE PTR [eax+4], dl
  00065	8a 51 05	 mov	 dl, BYTE PTR [ecx+5]
  00068	84 d2		 test	 dl, dl
  0006a	0f 84 f7 03 00
	00		 je	 $LN94@ioINILoade
  00070	80 f2 ec	 xor	 dl, -20			; ffffffecH
  00073	88 50 05	 mov	 BYTE PTR [eax+5], dl
  00076	8a 51 06	 mov	 dl, BYTE PTR [ecx+6]
  00079	84 d2		 test	 dl, dl
  0007b	0f 84 e1 03 00
	00		 je	 $LN93@ioINILoade
  00081	32 d3		 xor	 dl, bl
  00083	88 50 06	 mov	 BYTE PTR [eax+6], dl
  00086	8a 51 07	 mov	 dl, BYTE PTR [ecx+7]
  00089	84 d2		 test	 dl, dl
  0008b	0f 84 cb 03 00
	00		 je	 $LN92@ioINILoade
  00091	80 f2 ea	 xor	 dl, -22			; ffffffeaH
  00094	88 50 07	 mov	 BYTE PTR [eax+7], dl
  00097	8a 51 08	 mov	 dl, BYTE PTR [ecx+8]
  0009a	84 d2		 test	 dl, dl
  0009c	0f 84 b4 03 00
	00		 je	 $LN91@ioINILoade
  000a2	80 f2 ed	 xor	 dl, -19			; ffffffedH
  000a5	88 50 08	 mov	 BYTE PTR [eax+8], dl
  000a8	8a 51 09	 mov	 dl, BYTE PTR [ecx+9]
  000ab	84 d2		 test	 dl, dl
  000ad	0f 84 9d 03 00
	00		 je	 $LN90@ioINILoade
  000b3	80 f2 ec	 xor	 dl, -20			; ffffffecH
  000b6	88 50 09	 mov	 BYTE PTR [eax+9], dl
  000b9	8a 51 0a	 mov	 dl, BYTE PTR [ecx+10]
  000bc	84 d2		 test	 dl, dl
  000be	0f 84 87 03 00
	00		 je	 $LN89@ioINILoade
  000c4	32 d3		 xor	 dl, bl
  000c6	88 50 0a	 mov	 BYTE PTR [eax+10], dl
  000c9	8a 51 0b	 mov	 dl, BYTE PTR [ecx+11]
  000cc	84 d2		 test	 dl, dl
  000ce	0f 84 71 03 00
	00		 je	 $LN88@ioINILoade
  000d4	80 f2 ea	 xor	 dl, -22			; ffffffeaH
  000d7	88 50 0b	 mov	 BYTE PTR [eax+11], dl
  000da	8a 51 0c	 mov	 dl, BYTE PTR [ecx+12]
  000dd	84 d2		 test	 dl, dl
  000df	0f 84 5a 03 00
	00		 je	 $LN87@ioINILoade
  000e5	80 f2 ed	 xor	 dl, -19			; ffffffedH
  000e8	88 50 0c	 mov	 BYTE PTR [eax+12], dl
  000eb	8a 51 0d	 mov	 dl, BYTE PTR [ecx+13]
  000ee	84 d2		 test	 dl, dl
  000f0	0f 84 43 03 00
	00		 je	 $LN86@ioINILoade
  000f6	80 f2 ec	 xor	 dl, -20			; ffffffecH
  000f9	88 50 0d	 mov	 BYTE PTR [eax+13], dl
  000fc	8a 51 0e	 mov	 dl, BYTE PTR [ecx+14]
  000ff	84 d2		 test	 dl, dl
  00101	0f 84 2d 03 00
	00		 je	 $LN85@ioINILoade
  00107	32 d3		 xor	 dl, bl
  00109	88 50 0e	 mov	 BYTE PTR [eax+14], dl
  0010c	8a 51 0f	 mov	 dl, BYTE PTR [ecx+15]
  0010f	84 d2		 test	 dl, dl
  00111	0f 84 17 03 00
	00		 je	 $LN84@ioINILoade
  00117	80 f2 ea	 xor	 dl, -22			; ffffffeaH
  0011a	88 50 0f	 mov	 BYTE PTR [eax+15], dl
  0011d	8a 51 10	 mov	 dl, BYTE PTR [ecx+16]
  00120	84 d2		 test	 dl, dl
  00122	0f 84 00 03 00
	00		 je	 $LN83@ioINILoade
  00128	80 f2 ed	 xor	 dl, -19			; ffffffedH
  0012b	88 50 10	 mov	 BYTE PTR [eax+16], dl
  0012e	8a 51 11	 mov	 dl, BYTE PTR [ecx+17]
  00131	84 d2		 test	 dl, dl
  00133	0f 84 e9 02 00
	00		 je	 $LN82@ioINILoade
  00139	80 f2 ec	 xor	 dl, -20			; ffffffecH
  0013c	88 50 11	 mov	 BYTE PTR [eax+17], dl
  0013f	8a 51 12	 mov	 dl, BYTE PTR [ecx+18]
  00142	84 d2		 test	 dl, dl
  00144	0f 84 d3 02 00
	00		 je	 $LN81@ioINILoade
  0014a	32 d3		 xor	 dl, bl
  0014c	88 50 12	 mov	 BYTE PTR [eax+18], dl
  0014f	8a 51 13	 mov	 dl, BYTE PTR [ecx+19]
  00152	84 d2		 test	 dl, dl
  00154	0f 84 bd 02 00
	00		 je	 $LN80@ioINILoade
  0015a	80 f2 ea	 xor	 dl, -22			; ffffffeaH
  0015d	88 50 13	 mov	 BYTE PTR [eax+19], dl
  00160	8a 51 14	 mov	 dl, BYTE PTR [ecx+20]
  00163	84 d2		 test	 dl, dl
  00165	0f 84 a6 02 00
	00		 je	 $LN79@ioINILoade
  0016b	80 f2 ed	 xor	 dl, -19			; ffffffedH
  0016e	88 50 14	 mov	 BYTE PTR [eax+20], dl
  00171	8a 51 15	 mov	 dl, BYTE PTR [ecx+21]
  00174	84 d2		 test	 dl, dl
  00176	0f 84 8f 02 00
	00		 je	 $LN78@ioINILoade
  0017c	80 f2 ec	 xor	 dl, -20			; ffffffecH
  0017f	88 50 15	 mov	 BYTE PTR [eax+21], dl
  00182	8a 51 16	 mov	 dl, BYTE PTR [ecx+22]
  00185	84 d2		 test	 dl, dl
  00187	0f 84 79 02 00
	00		 je	 $LN77@ioINILoade
  0018d	32 d3		 xor	 dl, bl
  0018f	88 50 16	 mov	 BYTE PTR [eax+22], dl
  00192	8a 51 17	 mov	 dl, BYTE PTR [ecx+23]
  00195	84 d2		 test	 dl, dl
  00197	0f 84 60 02 00
	00		 je	 $LN76@ioINILoade
  0019d	80 f2 ea	 xor	 dl, -22			; ffffffeaH
  001a0	88 50 17	 mov	 BYTE PTR [eax+23], dl
  001a3	8a 51 18	 mov	 dl, BYTE PTR [ecx+24]
  001a6	84 d2		 test	 dl, dl
  001a8	0f 84 46 02 00
	00		 je	 $LN75@ioINILoade
  001ae	80 f2 ed	 xor	 dl, -19			; ffffffedH
  001b1	88 50 18	 mov	 BYTE PTR [eax+24], dl
  001b4	8a 51 19	 mov	 dl, BYTE PTR [ecx+25]
  001b7	84 d2		 test	 dl, dl
  001b9	0f 84 2c 02 00
	00		 je	 $LN74@ioINILoade
  001bf	80 f2 ec	 xor	 dl, -20			; ffffffecH
  001c2	88 50 19	 mov	 BYTE PTR [eax+25], dl
  001c5	8a 51 1a	 mov	 dl, BYTE PTR [ecx+26]
  001c8	84 d2		 test	 dl, dl
  001ca	0f 84 13 02 00
	00		 je	 $LN73@ioINILoade
  001d0	32 d3		 xor	 dl, bl
  001d2	88 50 1a	 mov	 BYTE PTR [eax+26], dl
  001d5	8a 51 1b	 mov	 dl, BYTE PTR [ecx+27]
  001d8	84 d2		 test	 dl, dl
  001da	0f 84 fa 01 00
	00		 je	 $LN72@ioINILoade
  001e0	80 f2 ea	 xor	 dl, -22			; ffffffeaH
  001e3	88 50 1b	 mov	 BYTE PTR [eax+27], dl
  001e6	8a 51 1c	 mov	 dl, BYTE PTR [ecx+28]
  001e9	84 d2		 test	 dl, dl
  001eb	0f 84 e0 01 00
	00		 je	 $LN71@ioINILoade
  001f1	80 f2 ed	 xor	 dl, -19			; ffffffedH
  001f4	88 50 1c	 mov	 BYTE PTR [eax+28], dl
  001f7	8a 51 1d	 mov	 dl, BYTE PTR [ecx+29]
  001fa	84 d2		 test	 dl, dl
  001fc	0f 84 c6 01 00
	00		 je	 $LN70@ioINILoade
  00202	80 f2 ec	 xor	 dl, -20			; ffffffecH
  00205	88 50 1d	 mov	 BYTE PTR [eax+29], dl
  00208	8a 51 1e	 mov	 dl, BYTE PTR [ecx+30]
  0020b	84 d2		 test	 dl, dl
  0020d	0f 84 ad 01 00
	00		 je	 $LN69@ioINILoade
  00213	32 d3		 xor	 dl, bl
  00215	88 50 1e	 mov	 BYTE PTR [eax+30], dl
  00218	8a 51 1f	 mov	 dl, BYTE PTR [ecx+31]
  0021b	84 d2		 test	 dl, dl
  0021d	0f 84 94 01 00
	00		 je	 $LN68@ioINILoade
  00223	80 f2 ea	 xor	 dl, -22			; ffffffeaH
  00226	88 50 1f	 mov	 BYTE PTR [eax+31], dl
  00229	8a 51 20	 mov	 dl, BYTE PTR [ecx+32]
  0022c	84 d2		 test	 dl, dl
  0022e	0f 84 7a 01 00
	00		 je	 $LN67@ioINILoade
  00234	80 f2 ed	 xor	 dl, -19			; ffffffedH
  00237	88 50 20	 mov	 BYTE PTR [eax+32], dl
  0023a	8a 51 21	 mov	 dl, BYTE PTR [ecx+33]
  0023d	84 d2		 test	 dl, dl
  0023f	0f 84 60 01 00
	00		 je	 $LN66@ioINILoade
  00245	80 f2 ec	 xor	 dl, -20			; ffffffecH
  00248	88 50 21	 mov	 BYTE PTR [eax+33], dl
  0024b	8a 51 22	 mov	 dl, BYTE PTR [ecx+34]
  0024e	84 d2		 test	 dl, dl
  00250	0f 84 47 01 00
	00		 je	 $LN65@ioINILoade
  00256	32 d3		 xor	 dl, bl
  00258	88 50 22	 mov	 BYTE PTR [eax+34], dl
  0025b	8a 51 23	 mov	 dl, BYTE PTR [ecx+35]
  0025e	84 d2		 test	 dl, dl
  00260	0f 84 2e 01 00
	00		 je	 $LN64@ioINILoade
  00266	80 f2 ea	 xor	 dl, -22			; ffffffeaH
  00269	88 50 23	 mov	 BYTE PTR [eax+35], dl
  0026c	8a 51 24	 mov	 dl, BYTE PTR [ecx+36]
  0026f	84 d2		 test	 dl, dl
  00271	0f 84 14 01 00
	00		 je	 $LN63@ioINILoade
  00277	80 f2 ed	 xor	 dl, -19			; ffffffedH
  0027a	88 50 24	 mov	 BYTE PTR [eax+36], dl
  0027d	8a 51 25	 mov	 dl, BYTE PTR [ecx+37]
  00280	84 d2		 test	 dl, dl
  00282	0f 84 fa 00 00
	00		 je	 $LN62@ioINILoade
  00288	80 f2 ec	 xor	 dl, -20			; ffffffecH
  0028b	88 50 25	 mov	 BYTE PTR [eax+37], dl
  0028e	8a 51 26	 mov	 dl, BYTE PTR [ecx+38]
  00291	84 d2		 test	 dl, dl
  00293	0f 84 e1 00 00
	00		 je	 $LN61@ioINILoade
  00299	32 d3		 xor	 dl, bl
  0029b	88 50 26	 mov	 BYTE PTR [eax+38], dl
  0029e	8a 51 27	 mov	 dl, BYTE PTR [ecx+39]
  002a1	84 d2		 test	 dl, dl
  002a3	0f 84 c8 00 00
	00		 je	 $LN60@ioINILoade
  002a9	80 f2 ea	 xor	 dl, -22			; ffffffeaH
  002ac	88 50 27	 mov	 BYTE PTR [eax+39], dl
  002af	8a 51 28	 mov	 dl, BYTE PTR [ecx+40]
  002b2	84 d2		 test	 dl, dl
  002b4	0f 84 ae 00 00
	00		 je	 $LN59@ioINILoade
  002ba	80 f2 ed	 xor	 dl, -19			; ffffffedH
  002bd	88 50 28	 mov	 BYTE PTR [eax+40], dl
  002c0	8a 51 29	 mov	 dl, BYTE PTR [ecx+41]
  002c3	84 d2		 test	 dl, dl
  002c5	0f 84 94 00 00
	00		 je	 $LN58@ioINILoade
  002cb	80 f2 ec	 xor	 dl, -20			; ffffffecH
  002ce	88 50 29	 mov	 BYTE PTR [eax+41], dl
  002d1	8a 51 2a	 mov	 dl, BYTE PTR [ecx+42]
  002d4	84 d2		 test	 dl, dl
  002d6	74 7f		 je	 SHORT $LN57@ioINILoade
  002d8	32 d3		 xor	 dl, bl
  002da	88 50 2a	 mov	 BYTE PTR [eax+42], dl
  002dd	8a 51 2b	 mov	 dl, BYTE PTR [ecx+43]
  002e0	84 d2		 test	 dl, dl
  002e2	74 6a		 je	 SHORT $LN56@ioINILoade
  002e4	80 f2 ea	 xor	 dl, -22			; ffffffeaH
  002e7	88 50 2b	 mov	 BYTE PTR [eax+43], dl
  002ea	8a 51 2c	 mov	 dl, BYTE PTR [ecx+44]
  002ed	84 d2		 test	 dl, dl
  002ef	74 54		 je	 SHORT $LN55@ioINILoade
  002f1	80 f2 ed	 xor	 dl, -19			; ffffffedH
  002f4	88 50 2c	 mov	 BYTE PTR [eax+44], dl
  002f7	8a 51 2d	 mov	 dl, BYTE PTR [ecx+45]
  002fa	84 d2		 test	 dl, dl
  002fc	74 3e		 je	 SHORT $LN54@ioINILoade
  002fe	80 f2 ec	 xor	 dl, -20			; ffffffecH
  00301	88 50 2d	 mov	 BYTE PTR [eax+45], dl
  00304	8a 51 2e	 mov	 dl, BYTE PTR [ecx+46]
  00307	84 d2		 test	 dl, dl
  00309	74 29		 je	 SHORT $LN53@ioINILoade
  0030b	32 d3		 xor	 dl, bl
  0030d	88 50 2e	 mov	 BYTE PTR [eax+46], dl
  00310	8a 51 2f	 mov	 dl, BYTE PTR [ecx+47]
  00313	84 d2		 test	 dl, dl
  00315	74 14		 je	 SHORT $LN52@ioINILoade
  00317	80 f2 ea	 xor	 dl, -22			; ffffffeaH
  0031a	88 50 2f	 mov	 BYTE PTR [eax+47], dl
  0031d	8a 49 30	 mov	 cl, BYTE PTR [ecx+48]
  00320	80 f1 ed	 xor	 cl, -19			; ffffffedH
  00323	88 48 30	 mov	 BYTE PTR [eax+48], cl
  00326	e9 5d 01 00 00	 jmp	 $LN4@ioINILoade
$LN52@ioINILoade:
  0032b	c6 40 2f ea	 mov	 BYTE PTR [eax+47], -22	; ffffffeaH
  0032f	e9 54 01 00 00	 jmp	 $LN4@ioINILoade
$LN53@ioINILoade:
  00334	88 58 2e	 mov	 BYTE PTR [eax+46], bl
  00337	e9 4c 01 00 00	 jmp	 $LN4@ioINILoade
$LN54@ioINILoade:
  0033c	c6 40 2d ec	 mov	 BYTE PTR [eax+45], -20	; ffffffecH
  00340	e9 43 01 00 00	 jmp	 $LN4@ioINILoade
$LN55@ioINILoade:
  00345	c6 40 2c ed	 mov	 BYTE PTR [eax+44], -19	; ffffffedH
  00349	e9 3a 01 00 00	 jmp	 $LN4@ioINILoade
$LN56@ioINILoade:
  0034e	c6 40 2b ea	 mov	 BYTE PTR [eax+43], -22	; ffffffeaH
  00352	e9 31 01 00 00	 jmp	 $LN4@ioINILoade
$LN57@ioINILoade:
  00357	88 58 2a	 mov	 BYTE PTR [eax+42], bl
  0035a	e9 29 01 00 00	 jmp	 $LN4@ioINILoade
$LN58@ioINILoade:
  0035f	c6 40 29 ec	 mov	 BYTE PTR [eax+41], -20	; ffffffecH
  00363	e9 20 01 00 00	 jmp	 $LN4@ioINILoade
$LN59@ioINILoade:
  00368	c6 40 28 ed	 mov	 BYTE PTR [eax+40], -19	; ffffffedH
  0036c	e9 17 01 00 00	 jmp	 $LN4@ioINILoade
$LN60@ioINILoade:
  00371	c6 40 27 ea	 mov	 BYTE PTR [eax+39], -22	; ffffffeaH
  00375	e9 0e 01 00 00	 jmp	 $LN4@ioINILoade
$LN61@ioINILoade:
  0037a	88 58 26	 mov	 BYTE PTR [eax+38], bl
  0037d	e9 06 01 00 00	 jmp	 $LN4@ioINILoade
$LN62@ioINILoade:
  00382	c6 40 25 ec	 mov	 BYTE PTR [eax+37], -20	; ffffffecH
  00386	e9 fd 00 00 00	 jmp	 $LN4@ioINILoade
$LN63@ioINILoade:
  0038b	c6 40 24 ed	 mov	 BYTE PTR [eax+36], -19	; ffffffedH
  0038f	e9 f4 00 00 00	 jmp	 $LN4@ioINILoade
$LN64@ioINILoade:
  00394	c6 40 23 ea	 mov	 BYTE PTR [eax+35], -22	; ffffffeaH
  00398	e9 eb 00 00 00	 jmp	 $LN4@ioINILoade
$LN65@ioINILoade:
  0039d	88 58 22	 mov	 BYTE PTR [eax+34], bl
  003a0	e9 e3 00 00 00	 jmp	 $LN4@ioINILoade
$LN66@ioINILoade:
  003a5	c6 40 21 ec	 mov	 BYTE PTR [eax+33], -20	; ffffffecH
  003a9	e9 da 00 00 00	 jmp	 $LN4@ioINILoade
$LN67@ioINILoade:
  003ae	c6 40 20 ed	 mov	 BYTE PTR [eax+32], -19	; ffffffedH
  003b2	e9 d1 00 00 00	 jmp	 $LN4@ioINILoade
$LN68@ioINILoade:
  003b7	c6 40 1f ea	 mov	 BYTE PTR [eax+31], -22	; ffffffeaH
  003bb	e9 c8 00 00 00	 jmp	 $LN4@ioINILoade
$LN69@ioINILoade:
  003c0	88 58 1e	 mov	 BYTE PTR [eax+30], bl
  003c3	e9 c0 00 00 00	 jmp	 $LN4@ioINILoade
$LN70@ioINILoade:
  003c8	c6 40 1d ec	 mov	 BYTE PTR [eax+29], -20	; ffffffecH
  003cc	e9 b7 00 00 00	 jmp	 $LN4@ioINILoade
$LN71@ioINILoade:
  003d1	c6 40 1c ed	 mov	 BYTE PTR [eax+28], -19	; ffffffedH
  003d5	e9 ae 00 00 00	 jmp	 $LN4@ioINILoade
$LN72@ioINILoade:
  003da	c6 40 1b ea	 mov	 BYTE PTR [eax+27], -22	; ffffffeaH
  003de	e9 a5 00 00 00	 jmp	 $LN4@ioINILoade
$LN73@ioINILoade:
  003e3	88 58 1a	 mov	 BYTE PTR [eax+26], bl
  003e6	e9 9d 00 00 00	 jmp	 $LN4@ioINILoade
$LN74@ioINILoade:
  003eb	c6 40 19 ec	 mov	 BYTE PTR [eax+25], -20	; ffffffecH
  003ef	e9 94 00 00 00	 jmp	 $LN4@ioINILoade
$LN75@ioINILoade:
  003f4	c6 40 18 ed	 mov	 BYTE PTR [eax+24], -19	; ffffffedH
  003f8	e9 8b 00 00 00	 jmp	 $LN4@ioINILoade
$LN76@ioINILoade:
  003fd	c6 40 17 ea	 mov	 BYTE PTR [eax+23], -22	; ffffffeaH
  00401	e9 82 00 00 00	 jmp	 $LN4@ioINILoade
$LN77@ioINILoade:
  00406	88 58 16	 mov	 BYTE PTR [eax+22], bl
  00409	eb 7d		 jmp	 SHORT $LN4@ioINILoade
$LN78@ioINILoade:
  0040b	c6 40 15 ec	 mov	 BYTE PTR [eax+21], -20	; ffffffecH
  0040f	eb 77		 jmp	 SHORT $LN4@ioINILoade
$LN79@ioINILoade:
  00411	c6 40 14 ed	 mov	 BYTE PTR [eax+20], -19	; ffffffedH
  00415	eb 71		 jmp	 SHORT $LN4@ioINILoade
$LN80@ioINILoade:
  00417	c6 40 13 ea	 mov	 BYTE PTR [eax+19], -22	; ffffffeaH
  0041b	eb 6b		 jmp	 SHORT $LN4@ioINILoade
$LN81@ioINILoade:
  0041d	88 58 12	 mov	 BYTE PTR [eax+18], bl
  00420	eb 66		 jmp	 SHORT $LN4@ioINILoade
$LN82@ioINILoade:
  00422	c6 40 11 ec	 mov	 BYTE PTR [eax+17], -20	; ffffffecH
  00426	eb 60		 jmp	 SHORT $LN4@ioINILoade
$LN83@ioINILoade:
  00428	c6 40 10 ed	 mov	 BYTE PTR [eax+16], -19	; ffffffedH
  0042c	eb 5a		 jmp	 SHORT $LN4@ioINILoade
$LN84@ioINILoade:
  0042e	c6 40 0f ea	 mov	 BYTE PTR [eax+15], -22	; ffffffeaH
  00432	eb 54		 jmp	 SHORT $LN4@ioINILoade
$LN85@ioINILoade:
  00434	88 58 0e	 mov	 BYTE PTR [eax+14], bl
  00437	eb 4f		 jmp	 SHORT $LN4@ioINILoade
$LN86@ioINILoade:
  00439	c6 40 0d ec	 mov	 BYTE PTR [eax+13], -20	; ffffffecH
  0043d	eb 49		 jmp	 SHORT $LN4@ioINILoade
$LN87@ioINILoade:
  0043f	c6 40 0c ed	 mov	 BYTE PTR [eax+12], -19	; ffffffedH
  00443	eb 43		 jmp	 SHORT $LN4@ioINILoade
$LN88@ioINILoade:
  00445	c6 40 0b ea	 mov	 BYTE PTR [eax+11], -22	; ffffffeaH
  00449	eb 3d		 jmp	 SHORT $LN4@ioINILoade
$LN89@ioINILoade:
  0044b	88 58 0a	 mov	 BYTE PTR [eax+10], bl
  0044e	eb 38		 jmp	 SHORT $LN4@ioINILoade
$LN90@ioINILoade:
  00450	c6 40 09 ec	 mov	 BYTE PTR [eax+9], -20	; ffffffecH
  00454	eb 32		 jmp	 SHORT $LN4@ioINILoade
$LN91@ioINILoade:
  00456	c6 40 08 ed	 mov	 BYTE PTR [eax+8], -19	; ffffffedH
  0045a	eb 2c		 jmp	 SHORT $LN4@ioINILoade
$LN92@ioINILoade:
  0045c	c6 40 07 ea	 mov	 BYTE PTR [eax+7], -22	; ffffffeaH
  00460	eb 26		 jmp	 SHORT $LN4@ioINILoade
$LN93@ioINILoade:
  00462	88 58 06	 mov	 BYTE PTR [eax+6], bl
  00465	eb 21		 jmp	 SHORT $LN4@ioINILoade
$LN94@ioINILoade:
  00467	c6 40 05 ec	 mov	 BYTE PTR [eax+5], -20	; ffffffecH
  0046b	eb 1b		 jmp	 SHORT $LN4@ioINILoade
$LN95@ioINILoade:
  0046d	c6 40 04 ed	 mov	 BYTE PTR [eax+4], -19	; ffffffedH
  00471	eb 15		 jmp	 SHORT $LN4@ioINILoade
$LN96@ioINILoade:
  00473	c6 40 03 ea	 mov	 BYTE PTR [eax+3], -22	; ffffffeaH
  00477	eb 0f		 jmp	 SHORT $LN4@ioINILoade
$LN97@ioINILoade:
  00479	c6 40 02 eb	 mov	 BYTE PTR [eax+2], -21	; ffffffebH
  0047d	eb 09		 jmp	 SHORT $LN4@ioINILoade
$LN98@ioINILoade:
  0047f	c6 40 01 ec	 mov	 BYTE PTR [eax+1], -20	; ffffffecH
  00483	eb 03		 jmp	 SHORT $LN4@ioINILoade
$LN99@ioINILoade:
  00485	c6 00 ed	 mov	 BYTE PTR [eax], -19	; ffffffedH
$LN4@ioINILoade:
  00488	6a 06		 push	 6
  0048a	8b c8		 mov	 ecx, eax
  0048c	c6 40 1b 00	 mov	 BYTE PTR [eax+27], 0
  00490	5a		 pop	 edx
$LL107@ioINILoade:
  00491	81 31 ed ec eb
	ea		 xor	 DWORD PTR [ecx], -353637139 ; eaebecedH
  00497	83 c1 04	 add	 ecx, 4
  0049a	4a		 dec	 edx
  0049b	75 f4		 jne	 SHORT $LL107@ioINILoade
  0049d	6a 18		 push	 24			; 00000018H
  0049f	5e		 pop	 esi
$LL104@ioINILoade:
  004a0	8b ce		 mov	 ecx, esi
  004a2	81 e1 03 00 00
	80		 and	 ecx, -2147483645	; 80000003H
  004a8	79 05		 jns	 SHORT $LN114@ioINILoade
  004aa	49		 dec	 ecx
  004ab	83 c9 fc	 or	 ecx, -4			; fffffffcH
  004ae	41		 inc	 ecx
$LN114@ioINILoade:
  004af	b2 ed		 mov	 dl, -19			; ffffffedH
  004b1	2a d1		 sub	 dl, cl
  004b3	30 14 06	 xor	 BYTE PTR [esi+eax], dl
  004b6	46		 inc	 esi
  004b7	83 fe 1b	 cmp	 esi, 27			; 0000001bH
  004ba	7c e4		 jl	 SHORT $LL104@ioINILoade
  004bc	ff 75 0c	 push	 DWORD PTR _b$[ebp]
  004bf	8b cf		 mov	 ecx, edi
  004c1	50		 push	 eax
  004c2	ff 15 00 00 00
	00		 call	 DWORD PTR __imp_??0ioINILoader@@QAE@PBD_N@Z

; 225  : 	}

  004c8	8b c7		 mov	 eax, edi
  004ca	5f		 pop	 edi
  004cb	5e		 pop	 esi
  004cc	5b		 pop	 ebx
  004cd	5d		 pop	 ebp
  004ce	c2 08 00	 ret	 8
??$?0$0BM@@ioINILoader_e@@QAE@AAY0BM@$$CBD_N@Z ENDP	; ioINILoader_e::ioINILoader_e<28>
_TEXT	ENDS
PUBLIC	??$_Cons_val@V?$allocator@H@std@@HH@std@@YAXAAV?$allocator@H@0@PAH$$QAH@Z ; std::_Cons_val<std::allocator<int>,int,int>
; Function compile flags: /Ogsp
; File c:\program files (x86)\microsoft visual studio 10.0\vc\include\xmemory
;	COMDAT ??$_Cons_val@V?$allocator@H@std@@HH@std@@YAXAAV?$allocator@H@0@PAH$$QAH@Z
_TEXT	SEGMENT
__Alval$ = 8						; size = 4
__Pdest$ = 12						; size = 4
__Src$ = 16						; size = 4
??$_Cons_val@V?$allocator@H@std@@HH@std@@YAXAAV?$allocator@H@0@PAH$$QAH@Z PROC ; std::_Cons_val<std::allocator<int>,int,int>, COMDAT

; 279  : 	{	// construct using allocator

  00000	55		 push	 ebp
  00001	8b ec		 mov	 ebp, esp

; 280  : 	_Alval.construct(_Pdest, _STD forward<_Ty2>(_Src));

  00003	8b 45 0c	 mov	 eax, DWORD PTR __Pdest$[ebp]
  00006	85 c0		 test	 eax, eax
  00008	74 07		 je	 SHORT $LN7@Cons_val@2
  0000a	8b 4d 10	 mov	 ecx, DWORD PTR __Src$[ebp]
  0000d	8b 09		 mov	 ecx, DWORD PTR [ecx]
  0000f	89 08		 mov	 DWORD PTR [eax], ecx
$LN7@Cons_val@2:

; 281  : 	}

  00011	5d		 pop	 ebp
  00012	c3		 ret	 0
??$_Cons_val@V?$allocator@H@std@@HH@std@@YAXAAV?$allocator@H@0@PAH$$QAH@Z ENDP ; std::_Cons_val<std::allocator<int>,int,int>
_TEXT	ENDS
PUBLIC	??$_Cons_val@V?$allocator@PBVioEtcItem@@@std@@PBVioEtcItem@@ABQBV3@@std@@YAXAAV?$allocator@PBVioEtcItem@@@0@PAPBVioEtcItem@@ABQBV2@@Z ; std::_Cons_val<std::allocator<ioEtcItem const *>,ioEtcItem const *,ioEtcItem const * const &>
; Function compile flags: /Ogsp
;	COMDAT ??$_Cons_val@V?$allocator@PBVioEtcItem@@@std@@PBVioEtcItem@@ABQBV3@@std@@YAXAAV?$allocator@PBVioEtcItem@@@0@PAPBVioEtcItem@@ABQBV2@@Z
_TEXT	SEGMENT
__Alval$ = 8						; size = 4
__Pdest$ = 12						; size = 4
__Src$ = 16						; size = 4
??$_Cons_val@V?$allocator@PBVioEtcItem@@@std@@PBVioEtcItem@@ABQBV3@@std@@YAXAAV?$allocator@PBVioEtcItem@@@0@PAPBVioEtcItem@@ABQBV2@@Z PROC ; std::_Cons_val<std::allocator<ioEtcItem const *>,ioEtcItem const *,ioEtcItem const * const &>, COMDAT

; 279  : 	{	// construct using allocator

  00000	55		 push	 ebp
  00001	8b ec		 mov	 ebp, esp

; 280  : 	_Alval.construct(_Pdest, _STD forward<_Ty2>(_Src));

  00003	8b 45 0c	 mov	 eax, DWORD PTR __Pdest$[ebp]
  00006	85 c0		 test	 eax, eax
  00008	74 07		 je	 SHORT $LN9@Cons_val@3
  0000a	8b 4d 10	 mov	 ecx, DWORD PTR __Src$[ebp]
  0000d	8b 09		 mov	 ecx, DWORD PTR [ecx]
  0000f	89 08		 mov	 DWORD PTR [eax], ecx
$LN9@Cons_val@3:

; 281  : 	}

  00011	5d		 pop	 ebp
  00012	c3		 ret	 0
??$_Cons_val@V?$allocator@PBVioEtcItem@@@std@@PBVioEtcItem@@ABQBV3@@std@@YAXAAV?$allocator@PBVioEtcItem@@@0@PAPBVioEtcItem@@ABQBV2@@Z ENDP ; std::_Cons_val<std::allocator<ioEtcItem const *>,ioEtcItem const *,ioEtcItem const * const &>
_TEXT	ENDS
PUBLIC	??$_Dest_val@V?$allocator@U?$pair@$$CBKPAVioEtcItem@@@std@@@std@@U?$pair@$$CBKPAVioEtcItem@@@2@@std@@YAXAAV?$allocator@U?$pair@$$CBKPAVioEtcItem@@@std@@@0@PAU?$pair@$$CBKPAVioEtcItem@@@0@@Z ; std::_Dest_val<std::allocator<std::pair<unsigned long const ,ioEtcItem *> >,std::pair<unsigned long const ,ioEtcItem *> >
; Function compile flags: /Ogsp
;	COMDAT ??$_Dest_val@V?$allocator@U?$pair@$$CBKPAVioEtcItem@@@std@@@std@@U?$pair@$$CBKPAVioEtcItem@@@2@@std@@YAXAAV?$allocator@U?$pair@$$CBKPAVioEtcItem@@@std@@@0@PAU?$pair@$$CBKPAVioEtcItem@@@0@@Z
_TEXT	SEGMENT
__Alval$ = 8						; size = 4
__Pdest$ = 12						; size = 4
??$_Dest_val@V?$allocator@U?$pair@$$CBKPAVioEtcItem@@@std@@@std@@U?$pair@$$CBKPAVioEtcItem@@@2@@std@@YAXAAV?$allocator@U?$pair@$$CBKPAVioEtcItem@@@std@@@0@PAU?$pair@$$CBKPAVioEtcItem@@@0@@Z PROC ; std::_Dest_val<std::allocator<std::pair<unsigned long const ,ioEtcItem *> >,std::pair<unsigned long const ,ioEtcItem *> >, COMDAT

; 287  : 	_Alval.destroy(_Pdest);
; 288  : 	}

  00000	c3		 ret	 0
??$_Dest_val@V?$allocator@U?$pair@$$CBKPAVioEtcItem@@@std@@@std@@U?$pair@$$CBKPAVioEtcItem@@@2@@std@@YAXAAV?$allocator@U?$pair@$$CBKPAVioEtcItem@@@std@@@0@PAU?$pair@$$CBKPAVioEtcItem@@@0@@Z ENDP ; std::_Dest_val<std::allocator<std::pair<unsigned long const ,ioEtcItem *> >,std::pair<unsigned long const ,ioEtcItem *> >
_TEXT	ENDS
PUBLIC	??$_Umove@PAPBVioEtcItem@@@?$vector@PBVioEtcItem@@V?$allocator@PBVioEtcItem@@@std@@@std@@IAEPAPBVioEtcItem@@PAPBV2@00@Z ; std::vector<ioEtcItem const *,std::allocator<ioEtcItem const *> >::_Umove<ioEtcItem const * *>
; Function compile flags: /Ogsp
; File c:\program files (x86)\microsoft visual studio 10.0\vc\include\vector
;	COMDAT ??$_Umove@PAPBVioEtcItem@@@?$vector@PBVioEtcItem@@V?$allocator@PBVioEtcItem@@@std@@@std@@IAEPAPBVioEtcItem@@PAPBV2@00@Z
_TEXT	SEGMENT
__First$ = 8						; size = 4
__Last$ = 12						; size = 4
__Ptr$ = 16						; size = 4
??$_Umove@PAPBVioEtcItem@@@?$vector@PBVioEtcItem@@V?$allocator@PBVioEtcItem@@@std@@@std@@IAEPAPBVioEtcItem@@PAPBV2@00@Z PROC ; std::vector<ioEtcItem const *,std::allocator<ioEtcItem const *> >::_Umove<ioEtcItem const * *>, COMDAT
; _this$ = ecx

; 1322 : 		pointer _Umove(_Iter _First, _Iter _Last, pointer _Ptr)

  00000	55		 push	 ebp
  00001	8b ec		 mov	 ebp, esp

; 1323 : 		{	// move initializing [_First, _Last), using allocator
; 1324 : 		return (_Uninitialized_move(_First, _Last,
; 1325 : 			_Ptr, this->_Alval));

  00003	83 c1 0c	 add	 ecx, 12			; 0000000cH
  00006	51		 push	 ecx
  00007	ff 75 10	 push	 DWORD PTR __Ptr$[ebp]
  0000a	ff 75 0c	 push	 DWORD PTR __Last$[ebp]
  0000d	ff 75 08	 push	 DWORD PTR __First$[ebp]
  00010	e8 00 00 00 00	 call	 ??$_Uninitialized_move@PAPBVioEtcItem@@PAPBV1@V?$allocator@PBVioEtcItem@@@std@@@std@@YAPAPBVioEtcItem@@PAPBV1@00AAV?$allocator@PBVioEtcItem@@@0@@Z ; std::_Uninitialized_move<ioEtcItem const * *,ioEtcItem const * *,std::allocator<ioEtcItem const *> >
  00015	83 c4 10	 add	 esp, 16			; 00000010H

; 1326 : 		}

  00018	5d		 pop	 ebp
  00019	c2 0c 00	 ret	 12			; 0000000cH
??$_Umove@PAPBVioEtcItem@@@?$vector@PBVioEtcItem@@V?$allocator@PBVioEtcItem@@@std@@@std@@IAEPAPBVioEtcItem@@PAPBV2@00@Z ENDP ; std::vector<ioEtcItem const *,std::allocator<ioEtcItem const *> >::_Umove<ioEtcItem const * *>
_TEXT	ENDS
PUBLIC	??_C@_0BE@JONHPENG@map?1set?$DMT?$DO?5too?5long?$AA@ ; `string'
PUBLIC	?_Insert@?$_Tree@V?$_Tmap_traits@KPAVioEtcItem@@U?$less@K@std@@V?$allocator@U?$pair@$$CBKPAVioEtcItem@@@std@@@3@$0A@@std@@@std@@IAE?AV?$_Tree_iterator@V?$_Tree_val@V?$_Tmap_traits@KPAVioEtcItem@@U?$less@K@std@@V?$allocator@U?$pair@$$CBKPAVioEtcItem@@@std@@@3@$0A@@std@@@std@@@2@_NPAU_Node@?$_Tree_nod@V?$_Tmap_traits@KPAVioEtcItem@@U?$less@K@std@@V?$allocator@U?$pair@$$CBKPAVioEtcItem@@@std@@@3@$0A@@std@@@2@1@Z ; std::_Tree<std::_Tmap_traits<unsigned long,ioEtcItem *,std::less<unsigned long>,std::allocator<std::pair<unsigned long const ,ioEtcItem *> >,0> >::_Insert
;	COMDAT ??_C@_0BE@JONHPENG@map?1set?$DMT?$DO?5too?5long?$AA@
; File c:\program files (x86)\microsoft visual studio 10.0\vc\include\xutility
CONST	SEGMENT
??_C@_0BE@JONHPENG@map?1set?$DMT?$DO?5too?5long?$AA@ DB 'map/set<T> too l'
	DB	'ong', 00H					; `string'
; Function compile flags: /Ogsp
; File c:\program files (x86)\microsoft visual studio 10.0\vc\include\xtree
CONST	ENDS
;	COMDAT ?_Insert@?$_Tree@V?$_Tmap_traits@KPAVioEtcItem@@U?$less@K@std@@V?$allocator@U?$pair@$$CBKPAVioEtcItem@@@std@@@3@$0A@@std@@@std@@IAE?AV?$_Tree_iterator@V?$_Tree_val@V?$_Tmap_traits@KPAVioEtcItem@@U?$less@K@std@@V?$allocator@U?$pair@$$CBKPAVioEtcItem@@@std@@@3@$0A@@std@@@std@@@2@_NPAU_Node@?$_Tree_nod@V?$_Tmap_traits@KPAVioEtcItem@@U?$less@K@std@@V?$allocator@U?$pair@$$CBKPAVioEtcItem@@@std@@@3@$0A@@std@@@2@1@Z
_TEXT	SEGMENT
___$ReturnUdt$ = 8					; size = 4
__Addleft$ = 12						; size = 1
__Wherenode$ = 16					; size = 4
__Newnode$ = 20						; size = 4
?_Insert@?$_Tree@V?$_Tmap_traits@KPAVioEtcItem@@U?$less@K@std@@V?$allocator@U?$pair@$$CBKPAVioEtcItem@@@std@@@3@$0A@@std@@@std@@IAE?AV?$_Tree_iterator@V?$_Tree_val@V?$_Tmap_traits@KPAVioEtcItem@@U?$less@K@std@@V?$allocator@U?$pair@$$CBKPAVioEtcItem@@@std@@@3@$0A@@std@@@std@@@2@_NPAU_Node@?$_Tree_nod@V?$_Tmap_traits@KPAVioEtcItem@@U?$less@K@std@@V?$allocator@U?$pair@$$CBKPAVioEtcItem@@@std@@@3@$0A@@std@@@2@1@Z PROC ; std::_Tree<std::_Tmap_traits<unsigned long,ioEtcItem *,std::less<unsigned long>,std::allocator<std::pair<unsigned long const ,ioEtcItem *> >,0> >::_Insert, COMDAT
; _this$ = ecx

; 1631 : 		{	// add node with value next to _Wherenode, to left if _Addleft

  00000	55		 push	 ebp
  00001	8b ec		 mov	 ebp, esp
  00003	53		 push	 ebx
  00004	56		 push	 esi
  00005	57		 push	 edi
  00006	8b f9		 mov	 edi, ecx

; 1632 : 		if (max_size() - 1 <= this->_Mysize)

  00008	8b 47 08	 mov	 eax, DWORD PTR [edi+8]
  0000b	3d fe ff ff 1f	 cmp	 eax, 536870910		; 1ffffffeH
  00010	72 15		 jb	 SHORT $LN17@Insert

; 1633 : 			{	// tree would get too big, fail
; 1634 : 			_Dest_val(this->_Alval,
; 1635 : 				_STD addressof(this->_Myval(_Newnode)));
; 1636 : 
; 1637 : 			this->_Alnod.deallocate(_Newnode, 1);

  00012	ff 75 14	 push	 DWORD PTR __Newnode$[ebp]
  00015	e8 00 00 00 00	 call	 ??3@YAXPAX@Z		; operator delete

; 1638 : 
; 1639 : 			_Xlength_error("map/set<T> too long");

  0001a	c7 04 24 00 00
	00 00		 mov	 DWORD PTR [esp], OFFSET ??_C@_0BE@JONHPENG@map?1set?$DMT?$DO?5too?5long?$AA@
  00021	ff 15 00 00 00
	00		 call	 DWORD PTR __imp_?_Xlength_error@std@@YAXPBD@Z
$LN188@Insert:
$LN17@Insert:

; 1640 : 			}
; 1641 : 		++this->_Mysize;
; 1642 : 		_Newnode->_Parent = _Wherenode;

  00027	8b 5d 14	 mov	 ebx, DWORD PTR __Newnode$[ebp]
  0002a	40		 inc	 eax
  0002b	89 47 08	 mov	 DWORD PTR [edi+8], eax
  0002e	8b 45 10	 mov	 eax, DWORD PTR __Wherenode$[ebp]
  00031	89 43 04	 mov	 DWORD PTR [ebx+4], eax

; 1643 : 
; 1644 : 		if (_Wherenode == this->_Myhead)

  00034	8b 4f 04	 mov	 ecx, DWORD PTR [edi+4]
  00037	3b c1		 cmp	 eax, ecx
  00039	75 10		 jne	 SHORT $LN16@Insert

; 1645 : 			{	// first node in tree, just set head values
; 1646 : 			_Root() = _Newnode;

  0003b	89 59 04	 mov	 DWORD PTR [ecx+4], ebx

; 1647 : 			_Lmost() = _Newnode;

  0003e	8b 47 04	 mov	 eax, DWORD PTR [edi+4]
  00041	89 18		 mov	 DWORD PTR [eax], ebx

; 1648 : 			_Rmost() = _Newnode;

  00043	8b 47 04	 mov	 eax, DWORD PTR [edi+4]
  00046	89 58 08	 mov	 DWORD PTR [eax+8], ebx
  00049	eb 21		 jmp	 SHORT $LN11@Insert
$LN16@Insert:

; 1649 : 			}
; 1650 : 		else if (_Addleft)

  0004b	80 7d 0c 00	 cmp	 BYTE PTR __Addleft$[ebp], 0
  0004f	74 0d		 je	 SHORT $LN14@Insert

; 1651 : 			{	// add to left of _Wherenode
; 1652 : 			this->_Left(_Wherenode) = _Newnode;

  00051	89 18		 mov	 DWORD PTR [eax], ebx

; 1653 : 			if (_Wherenode == _Lmost())

  00053	8b 4f 04	 mov	 ecx, DWORD PTR [edi+4]
  00056	3b 01		 cmp	 eax, DWORD PTR [ecx]
  00058	75 12		 jne	 SHORT $LN11@Insert

; 1654 : 				_Lmost() = _Newnode;

  0005a	89 19		 mov	 DWORD PTR [ecx], ebx

; 1655 : 			}
; 1656 : 		else

  0005c	eb 0e		 jmp	 SHORT $LN11@Insert
$LN14@Insert:

; 1657 : 			{	// add to right of _Wherenode
; 1658 : 			this->_Right(_Wherenode) = _Newnode;

  0005e	89 58 08	 mov	 DWORD PTR [eax+8], ebx

; 1659 : 			if (_Wherenode == _Rmost())

  00061	8b 4f 04	 mov	 ecx, DWORD PTR [edi+4]
  00064	3b 41 08	 cmp	 eax, DWORD PTR [ecx+8]
  00067	75 03		 jne	 SHORT $LN11@Insert

; 1660 : 				_Rmost() = _Newnode;

  00069	89 59 08	 mov	 DWORD PTR [ecx+8], ebx
$LN11@Insert:

; 1661 : 			}
; 1662 : 
; 1663 : 		for (_Nodeptr _Pnode = _Newnode;
; 1664 : 			this->_Color(this->_Parent(_Pnode)) == this->_Red; )

  0006c	8b 43 04	 mov	 eax, DWORD PTR [ebx+4]
  0006f	8b f3		 mov	 esi, ebx
  00071	e9 93 00 00 00	 jmp	 $LN186@Insert
$LL10@Insert:

; 1665 : 			if (this->_Parent(_Pnode)
; 1666 : 				== this->_Left(this->_Parent(this->_Parent(_Pnode))))

  00076	8b 46 04	 mov	 eax, DWORD PTR [esi+4]
  00079	8b 48 04	 mov	 ecx, DWORD PTR [eax+4]
  0007c	3b 01		 cmp	 eax, DWORD PTR [ecx]
  0007e	75 38		 jne	 SHORT $LN8@Insert

; 1667 : 				{	// fixup red-red in left subtree
; 1668 : 				_Wherenode =
; 1669 : 					this->_Right(this->_Parent(this->_Parent(_Pnode)));

  00080	8b 49 08	 mov	 ecx, DWORD PTR [ecx+8]

; 1670 : 				if (this->_Color(_Wherenode) == this->_Red)

  00083	80 79 14 00	 cmp	 BYTE PTR [ecx+20], 0

; 1671 : 					{	// parent has two red children, blacken both
; 1672 : 					this->_Color(this->_Parent(_Pnode)) = this->_Black;
; 1673 : 					this->_Color(_Wherenode) = this->_Black;
; 1674 : 					this->_Color(this->_Parent(this->_Parent(_Pnode)))
; 1675 : 						= this->_Red;
; 1676 : 					_Pnode = this->_Parent(this->_Parent(_Pnode));
; 1677 : 					}
; 1678 : 				else

  00087	74 37		 je	 SHORT $LN187@Insert

; 1679 : 					{	// parent has red and black children
; 1680 : 					if (_Pnode == this->_Right(this->_Parent(_Pnode)))

  00089	3b 70 08	 cmp	 esi, DWORD PTR [eax+8]
  0008c	75 0a		 jne	 SHORT $LN5@Insert

; 1681 : 						{	// rotate right child to left
; 1682 : 						_Pnode = this->_Parent(_Pnode);

  0008e	8b f0		 mov	 esi, eax

; 1683 : 						_Lrotate(_Pnode);

  00090	56		 push	 esi
  00091	8b cf		 mov	 ecx, edi
  00093	e8 00 00 00 00	 call	 ?_Lrotate@?$_Tree@V?$_Tmap_traits@KPAVioEtcItem@@U?$less@K@std@@V?$allocator@U?$pair@$$CBKPAVioEtcItem@@@std@@@3@$0A@@std@@@std@@IAEXPAU_Node@?$_Tree_nod@V?$_Tmap_traits@KPAVioEtcItem@@U?$less@K@std@@V?$allocator@U?$pair@$$CBKPAVioEtcItem@@@std@@@3@$0A@@std@@@2@@Z ; std::_Tree<std::_Tmap_traits<unsigned long,ioEtcItem *,std::less<unsigned long>,std::allocator<std::pair<unsigned long const ,ioEtcItem *> >,0> >::_Lrotate
$LN5@Insert:

; 1684 : 						}
; 1685 : 					this->_Color(this->_Parent(_Pnode)) =
; 1686 : 						this->_Black;	// propagate red up

  00098	8b 46 04	 mov	 eax, DWORD PTR [esi+4]
  0009b	c6 40 14 01	 mov	 BYTE PTR [eax+20], 1

; 1687 : 					this->_Color(this->_Parent(this->_Parent(_Pnode))) =
; 1688 : 						this->_Red;

  0009f	8b 46 04	 mov	 eax, DWORD PTR [esi+4]
  000a2	8b 40 04	 mov	 eax, DWORD PTR [eax+4]
  000a5	c6 40 14 00	 mov	 BYTE PTR [eax+20], 0

; 1689 : 					_Rrotate(this->_Parent(this->_Parent(_Pnode)));

  000a9	8b 46 04	 mov	 eax, DWORD PTR [esi+4]
  000ac	ff 70 04	 push	 DWORD PTR [eax+4]
  000af	8b cf		 mov	 ecx, edi
  000b1	e8 00 00 00 00	 call	 ?_Rrotate@?$_Tree@V?$_Tmap_traits@KPAVioEtcItem@@U?$less@K@std@@V?$allocator@U?$pair@$$CBKPAVioEtcItem@@@std@@@3@$0A@@std@@@std@@IAEXPAU_Node@?$_Tree_nod@V?$_Tmap_traits@KPAVioEtcItem@@U?$less@K@std@@V?$allocator@U?$pair@$$CBKPAVioEtcItem@@@std@@@3@$0A@@std@@@2@@Z ; std::_Tree<std::_Tmap_traits<unsigned long,ioEtcItem *,std::less<unsigned long>,std::allocator<std::pair<unsigned long const ,ioEtcItem *> >,0> >::_Rrotate

; 1690 : 					}
; 1691 : 				}
; 1692 : 			else

  000b6	eb 4e		 jmp	 SHORT $LN2@Insert
$LN8@Insert:

; 1693 : 				{	// fixup red-red in right subtree
; 1694 : 				_Wherenode =
; 1695 : 					this->_Left(this->_Parent(this->_Parent(_Pnode)));

  000b8	8b 09		 mov	 ecx, DWORD PTR [ecx]

; 1696 : 				if (this->_Color(_Wherenode) == this->_Red)

  000ba	80 79 14 00	 cmp	 BYTE PTR [ecx+20], 0
  000be	75 1a		 jne	 SHORT $LN3@Insert
$LN187@Insert:

; 1697 : 					{	// parent has two red children, blacken both
; 1698 : 					this->_Color(this->_Parent(_Pnode)) = this->_Black;

  000c0	c6 40 14 01	 mov	 BYTE PTR [eax+20], 1

; 1699 : 					this->_Color(_Wherenode) = this->_Black;

  000c4	c6 41 14 01	 mov	 BYTE PTR [ecx+20], 1

; 1700 : 					this->_Color(this->_Parent(this->_Parent(_Pnode))) =
; 1701 : 						this->_Red;

  000c8	8b 46 04	 mov	 eax, DWORD PTR [esi+4]
  000cb	8b 40 04	 mov	 eax, DWORD PTR [eax+4]
  000ce	c6 40 14 00	 mov	 BYTE PTR [eax+20], 0

; 1702 : 					_Pnode = this->_Parent(this->_Parent(_Pnode));

  000d2	8b 46 04	 mov	 eax, DWORD PTR [esi+4]
  000d5	8b 70 04	 mov	 esi, DWORD PTR [eax+4]

; 1703 : 					}
; 1704 : 				else

  000d8	eb 2c		 jmp	 SHORT $LN2@Insert
$LN3@Insert:

; 1705 : 					{	// parent has red and black children
; 1706 : 					if (_Pnode == this->_Left(this->_Parent(_Pnode)))

  000da	3b 30		 cmp	 esi, DWORD PTR [eax]
  000dc	75 0a		 jne	 SHORT $LN1@Insert

; 1707 : 						{	// rotate left child to right
; 1708 : 						_Pnode = this->_Parent(_Pnode);

  000de	8b f0		 mov	 esi, eax

; 1709 : 						_Rrotate(_Pnode);

  000e0	56		 push	 esi
  000e1	8b cf		 mov	 ecx, edi
  000e3	e8 00 00 00 00	 call	 ?_Rrotate@?$_Tree@V?$_Tmap_traits@KPAVioEtcItem@@U?$less@K@std@@V?$allocator@U?$pair@$$CBKPAVioEtcItem@@@std@@@3@$0A@@std@@@std@@IAEXPAU_Node@?$_Tree_nod@V?$_Tmap_traits@KPAVioEtcItem@@U?$less@K@std@@V?$allocator@U?$pair@$$CBKPAVioEtcItem@@@std@@@3@$0A@@std@@@2@@Z ; std::_Tree<std::_Tmap_traits<unsigned long,ioEtcItem *,std::less<unsigned long>,std::allocator<std::pair<unsigned long const ,ioEtcItem *> >,0> >::_Rrotate
$LN1@Insert:

; 1710 : 						}
; 1711 : 					this->_Color(this->_Parent(_Pnode)) =
; 1712 : 						this->_Black;	// propagate red up

  000e8	8b 46 04	 mov	 eax, DWORD PTR [esi+4]
  000eb	c6 40 14 01	 mov	 BYTE PTR [eax+20], 1

; 1713 : 					this->_Color(this->_Parent(this->_Parent(_Pnode))) =
; 1714 : 						this->_Red;

  000ef	8b 46 04	 mov	 eax, DWORD PTR [esi+4]
  000f2	8b 40 04	 mov	 eax, DWORD PTR [eax+4]
  000f5	c6 40 14 00	 mov	 BYTE PTR [eax+20], 0

; 1715 : 					_Lrotate(this->_Parent(this->_Parent(_Pnode)));

  000f9	8b 46 04	 mov	 eax, DWORD PTR [esi+4]
  000fc	ff 70 04	 push	 DWORD PTR [eax+4]
  000ff	8b cf		 mov	 ecx, edi
  00101	e8 00 00 00 00	 call	 ?_Lrotate@?$_Tree@V?$_Tmap_traits@KPAVioEtcItem@@U?$less@K@std@@V?$allocator@U?$pair@$$CBKPAVioEtcItem@@@std@@@3@$0A@@std@@@std@@IAEXPAU_Node@?$_Tree_nod@V?$_Tmap_traits@KPAVioEtcItem@@U?$less@K@std@@V?$allocator@U?$pair@$$CBKPAVioEtcItem@@@std@@@3@$0A@@std@@@2@@Z ; std::_Tree<std::_Tmap_traits<unsigned long,ioEtcItem *,std::less<unsigned long>,std::allocator<std::pair<unsigned long const ,ioEtcItem *> >,0> >::_Lrotate
$LN2@Insert:

; 1661 : 			}
; 1662 : 
; 1663 : 		for (_Nodeptr _Pnode = _Newnode;
; 1664 : 			this->_Color(this->_Parent(_Pnode)) == this->_Red; )

  00106	8b 46 04	 mov	 eax, DWORD PTR [esi+4]
$LN186@Insert:
  00109	80 78 14 00	 cmp	 BYTE PTR [eax+20], 0
  0010d	0f 84 63 ff ff
	ff		 je	 $LL10@Insert

; 1716 : 					}
; 1717 : 				}
; 1718 : 
; 1719 : 		this->_Color(_Root()) = this->_Black;	// root is always black

  00113	8b 47 04	 mov	 eax, DWORD PTR [edi+4]
  00116	8b 40 04	 mov	 eax, DWORD PTR [eax+4]
  00119	5f		 pop	 edi
  0011a	c6 40 14 01	 mov	 BYTE PTR [eax+20], 1

; 1720 : 		return (iterator(_Newnode, this));

  0011e	8b 45 08	 mov	 eax, DWORD PTR ___$ReturnUdt$[ebp]
  00121	5e		 pop	 esi
  00122	89 18		 mov	 DWORD PTR [eax], ebx
  00124	5b		 pop	 ebx

; 1721 : 		}

  00125	5d		 pop	 ebp
  00126	c2 10 00	 ret	 16			; 00000010H
$LN185@Insert:
?_Insert@?$_Tree@V?$_Tmap_traits@KPAVioEtcItem@@U?$less@K@std@@V?$allocator@U?$pair@$$CBKPAVioEtcItem@@@std@@@3@$0A@@std@@@std@@IAE?AV?$_Tree_iterator@V?$_Tree_val@V?$_Tmap_traits@KPAVioEtcItem@@U?$less@K@std@@V?$allocator@U?$pair@$$CBKPAVioEtcItem@@@std@@@3@$0A@@std@@@std@@@2@_NPAU_Node@?$_Tree_nod@V?$_Tmap_traits@KPAVioEtcItem@@U?$less@K@std@@V?$allocator@U?$pair@$$CBKPAVioEtcItem@@@std@@@3@$0A@@std@@@2@1@Z ENDP ; std::_Tree<std::_Tmap_traits<unsigned long,ioEtcItem *,std::less<unsigned long>,std::allocator<std::pair<unsigned long const ,ioEtcItem *> >,0> >::_Insert
_TEXT	ENDS
PUBLIC	??F?$_Tree_iterator@V?$_Tree_val@V?$_Tmap_traits@KPAVioEtcItem@@U?$less@K@std@@V?$allocator@U?$pair@$$CBKPAVioEtcItem@@@std@@@3@$0A@@std@@@std@@@std@@QAEAAV01@XZ ; std::_Tree_iterator<std::_Tree_val<std::_Tmap_traits<unsigned long,ioEtcItem *,std::less<unsigned long>,std::allocator<std::pair<unsigned long const ,ioEtcItem *> >,0> > >::operator--
; Function compile flags: /Ogsp
;	COMDAT ??F?$_Tree_iterator@V?$_Tree_val@V?$_Tmap_traits@KPAVioEtcItem@@U?$less@K@std@@V?$allocator@U?$pair@$$CBKPAVioEtcItem@@@std@@@3@$0A@@std@@@std@@@std@@QAEAAV01@XZ
_TEXT	SEGMENT
??F?$_Tree_iterator@V?$_Tree_val@V?$_Tmap_traits@KPAVioEtcItem@@U?$less@K@std@@V?$allocator@U?$pair@$$CBKPAVioEtcItem@@@std@@@3@$0A@@std@@@std@@@std@@QAEAAV01@XZ PROC ; std::_Tree_iterator<std::_Tree_val<std::_Tmap_traits<unsigned long,ioEtcItem *,std::less<unsigned long>,std::allocator<std::pair<unsigned long const ,ioEtcItem *> >,0> > >::operator--, COMDAT
; _this$ = ecx

; 418  : 		{	// predecrement

  00000	56		 push	 esi
  00001	8b f1		 mov	 esi, ecx

; 419  : 		--(*(_Mybase *)this);

  00003	e8 00 00 00 00	 call	 ??F?$_Tree_unchecked_const_iterator@V?$_Tree_val@V?$_Tmap_traits@KPAVioEtcItem@@U?$less@K@std@@V?$allocator@U?$pair@$$CBKPAVioEtcItem@@@std@@@3@$0A@@std@@@std@@U_Iterator_base0@2@@std@@QAEAAV01@XZ ; std::_Tree_unchecked_const_iterator<std::_Tree_val<std::_Tmap_traits<unsigned long,ioEtcItem *,std::less<unsigned long>,std::allocator<std::pair<unsigned long const ,ioEtcItem *> >,0> >,std::_Iterator_base0>::operator--

; 420  : 		return (*this);

  00008	8b c6		 mov	 eax, esi
  0000a	5e		 pop	 esi

; 421  : 		}

  0000b	c3		 ret	 0
??F?$_Tree_iterator@V?$_Tree_val@V?$_Tmap_traits@KPAVioEtcItem@@U?$less@K@std@@V?$allocator@U?$pair@$$CBKPAVioEtcItem@@@std@@@3@$0A@@std@@@std@@@std@@QAEAAV01@XZ ENDP ; std::_Tree_iterator<std::_Tree_val<std::_Tmap_traits<unsigned long,ioEtcItem *,std::less<unsigned long>,std::allocator<std::pair<unsigned long const ,ioEtcItem *> >,0> > >::operator--
_TEXT	ENDS
PUBLIC	??0?$pair@V?$_Tree_iterator@V?$_Tree_val@V?$_Tmap_traits@KPAVioEtcItem@@U?$less@K@std@@V?$allocator@U?$pair@$$CBKPAVioEtcItem@@@std@@@3@$0A@@std@@@std@@@std@@_N@std@@QAE@$$QAV?$_Tree_iterator@V?$_Tree_val@V?$_Tmap_traits@KPAVioEtcItem@@U?$less@K@std@@V?$allocator@U?$pair@$$CBKPAVioEtcItem@@@std@@@3@$0A@@std@@@std@@@1@$$QA_N@Z ; std::pair<std::_Tree_iterator<std::_Tree_val<std::_Tmap_traits<unsigned long,ioEtcItem *,std::less<unsigned long>,std::allocator<std::pair<unsigned long const ,ioEtcItem *> >,0> > >,bool>::pair<std::_Tree_iterator<std::_Tree_val<std::_Tmap_traits<unsigned long,ioEtcItem *,std::less<unsigned long>,std::allocator<std::pair<unsigned long const ,ioEtcItem *> >,0> > >,bool>
; Function compile flags: /Ogsp
; File c:\program files (x86)\microsoft visual studio 10.0\vc\include\utility
;	COMDAT ??0?$pair@V?$_Tree_iterator@V?$_Tree_val@V?$_Tmap_traits@KPAVioEtcItem@@U?$less@K@std@@V?$allocator@U?$pair@$$CBKPAVioEtcItem@@@std@@@3@$0A@@std@@@std@@@std@@_N@std@@QAE@$$QAV?$_Tree_iterator@V?$_Tree_val@V?$_Tmap_traits@KPAVioEtcItem@@U?$less@K@std@@V?$allocator@U?$pair@$$CBKPAVioEtcItem@@@std@@@3@$0A@@std@@@std@@@1@$$QA_N@Z
_TEXT	SEGMENT
__Val1$ = 8						; size = 4
__Val2$ = 12						; size = 4
??0?$pair@V?$_Tree_iterator@V?$_Tree_val@V?$_Tmap_traits@KPAVioEtcItem@@U?$less@K@std@@V?$allocator@U?$pair@$$CBKPAVioEtcItem@@@std@@@3@$0A@@std@@@std@@@std@@_N@std@@QAE@$$QAV?$_Tree_iterator@V?$_Tree_val@V?$_Tmap_traits@KPAVioEtcItem@@U?$less@K@std@@V?$allocator@U?$pair@$$CBKPAVioEtcItem@@@std@@@3@$0A@@std@@@std@@@1@$$QA_N@Z PROC ; std::pair<std::_Tree_iterator<std::_Tree_val<std::_Tmap_traits<unsigned long,ioEtcItem *,std::less<unsigned long>,std::allocator<std::pair<unsigned long const ,ioEtcItem *> >,0> > >,bool>::pair<std::_Tree_iterator<std::_Tree_val<std::_Tmap_traits<unsigned long,ioEtcItem *,std::less<unsigned long>,std::allocator<std::pair<unsigned long const ,ioEtcItem *> >,0> > >,bool>, COMDAT
; _this$ = ecx

; 227  : 		{	// construct from specified values

  00000	55		 push	 ebp
  00001	8b ec		 mov	 ebp, esp
  00003	8b c1		 mov	 eax, ecx
  00005	8b 4d 08	 mov	 ecx, DWORD PTR __Val1$[ebp]
  00008	8b 09		 mov	 ecx, DWORD PTR [ecx]
  0000a	89 08		 mov	 DWORD PTR [eax], ecx
  0000c	8b 4d 0c	 mov	 ecx, DWORD PTR __Val2$[ebp]
  0000f	8a 09		 mov	 cl, BYTE PTR [ecx]
  00011	88 48 04	 mov	 BYTE PTR [eax+4], cl

; 228  : 		}

  00014	5d		 pop	 ebp
  00015	c2 08 00	 ret	 8
??0?$pair@V?$_Tree_iterator@V?$_Tree_val@V?$_Tmap_traits@KPAVioEtcItem@@U?$less@K@std@@V?$allocator@U?$pair@$$CBKPAVioEtcItem@@@std@@@3@$0A@@std@@@std@@@std@@_N@std@@QAE@$$QAV?$_Tree_iterator@V?$_Tree_val@V?$_Tmap_traits@KPAVioEtcItem@@U?$less@K@std@@V?$allocator@U?$pair@$$CBKPAVioEtcItem@@@std@@@3@$0A@@std@@@std@@@1@$$QA_N@Z ENDP ; std::pair<std::_Tree_iterator<std::_Tree_val<std::_Tmap_traits<unsigned long,ioEtcItem *,std::less<unsigned long>,std::allocator<std::pair<unsigned long const ,ioEtcItem *> >,0> > >,bool>::pair<std::_Tree_iterator<std::_Tree_val<std::_Tmap_traits<unsigned long,ioEtcItem *,std::less<unsigned long>,std::allocator<std::pair<unsigned long const ,ioEtcItem *> >,0> > >,bool>
_TEXT	ENDS
PUBLIC	??$_Advance@V?$_Tree_const_iterator@V?$_Tree_val@V?$_Tmap_traits@KPAVioEtcItem@@U?$less@K@std@@V?$allocator@U?$pair@$$CBKPAVioEtcItem@@@std@@@3@$0A@@std@@@std@@@std@@H@std@@YAXAAV?$_Tree_const_iterator@V?$_Tree_val@V?$_Tmap_traits@KPAVioEtcItem@@U?$less@K@std@@V?$allocator@U?$pair@$$CBKPAVioEtcItem@@@std@@@3@$0A@@std@@@std@@@0@HUbidirectional_iterator_tag@0@@Z ; std::_Advance<std::_Tree_const_iterator<std::_Tree_val<std::_Tmap_traits<unsigned long,ioEtcItem *,std::less<unsigned long>,std::allocator<std::pair<unsigned long const ,ioEtcItem *> >,0> > >,int>
; Function compile flags: /Ogsp
; File c:\program files (x86)\microsoft visual studio 10.0\vc\include\xutility
;	COMDAT ??$_Advance@V?$_Tree_const_iterator@V?$_Tree_val@V?$_Tmap_traits@KPAVioEtcItem@@U?$less@K@std@@V?$allocator@U?$pair@$$CBKPAVioEtcItem@@@std@@@3@$0A@@std@@@std@@@std@@H@std@@YAXAAV?$_Tree_const_iterator@V?$_Tree_val@V?$_Tmap_traits@KPAVioEtcItem@@U?$less@K@std@@V?$allocator@U?$pair@$$CBKPAVioEtcItem@@@std@@@3@$0A@@std@@@std@@@0@HUbidirectional_iterator_tag@0@@Z
_TEXT	SEGMENT
__Where$ = 8						; size = 4
__Off$ = 12						; size = 4
___formal$ = 16						; size = 1
??$_Advance@V?$_Tree_const_iterator@V?$_Tree_val@V?$_Tmap_traits@KPAVioEtcItem@@U?$less@K@std@@V?$allocator@U?$pair@$$CBKPAVioEtcItem@@@std@@@3@$0A@@std@@@std@@@std@@H@std@@YAXAAV?$_Tree_const_iterator@V?$_Tree_val@V?$_Tmap_traits@KPAVioEtcItem@@U?$less@K@std@@V?$allocator@U?$pair@$$CBKPAVioEtcItem@@@std@@@3@$0A@@std@@@std@@@0@HUbidirectional_iterator_tag@0@@Z PROC ; std::_Advance<std::_Tree_const_iterator<std::_Tree_val<std::_Tmap_traits<unsigned long,ioEtcItem *,std::less<unsigned long>,std::allocator<std::pair<unsigned long const ,ioEtcItem *> >,0> > >,int>, COMDAT

; 830  : 	{	// increment iterator by offset, bidirectional iterators

  00000	55		 push	 ebp
  00001	8b ec		 mov	 ebp, esp
  00003	56		 push	 esi

; 831  : 	for (; 0 < _Off; --_Off)

  00004	8b 75 0c	 mov	 esi, DWORD PTR __Off$[ebp]
  00007	eb 09		 jmp	 SHORT $LN17@Advance
$LL6@Advance:

; 832  : 		++_Where;

  00009	8b 4d 08	 mov	 ecx, DWORD PTR __Where$[ebp]
  0000c	e8 00 00 00 00	 call	 ??E?$_Tree_unchecked_const_iterator@V?$_Tree_val@V?$_Tmap_traits@KPAVioEtcItem@@U?$less@K@std@@V?$allocator@U?$pair@$$CBKPAVioEtcItem@@@std@@@3@$0A@@std@@@std@@U_Iterator_base0@2@@std@@QAEAAV01@XZ ; std::_Tree_unchecked_const_iterator<std::_Tree_val<std::_Tmap_traits<unsigned long,ioEtcItem *,std::less<unsigned long>,std::allocator<std::pair<unsigned long const ,ioEtcItem *> >,0> >,std::_Iterator_base0>::operator++
  00011	4e		 dec	 esi
$LN17@Advance:

; 831  : 	for (; 0 < _Off; --_Off)

  00012	85 f6		 test	 esi, esi
  00014	7f f3		 jg	 SHORT $LL6@Advance

; 833  : 	for (; _Off < 0; ++_Off)

  00016	79 0d		 jns	 SHORT $LN1@Advance
  00018	f7 de		 neg	 esi
$LL3@Advance:

; 834  : 		--_Where;

  0001a	8b 4d 08	 mov	 ecx, DWORD PTR __Where$[ebp]
  0001d	e8 00 00 00 00	 call	 ??F?$_Tree_unchecked_const_iterator@V?$_Tree_val@V?$_Tmap_traits@KPAVioEtcItem@@U?$less@K@std@@V?$allocator@U?$pair@$$CBKPAVioEtcItem@@@std@@@3@$0A@@std@@@std@@U_Iterator_base0@2@@std@@QAEAAV01@XZ ; std::_Tree_unchecked_const_iterator<std::_Tree_val<std::_Tmap_traits<unsigned long,ioEtcItem *,std::less<unsigned long>,std::allocator<std::pair<unsigned long const ,ioEtcItem *> >,0> >,std::_Iterator_base0>::operator--
  00022	4e		 dec	 esi
  00023	75 f5		 jne	 SHORT $LL3@Advance
$LN1@Advance:
  00025	5e		 pop	 esi

; 835  : 	}

  00026	5d		 pop	 ebp
  00027	c3		 ret	 0
??$_Advance@V?$_Tree_const_iterator@V?$_Tree_val@V?$_Tmap_traits@KPAVioEtcItem@@U?$less@K@std@@V?$allocator@U?$pair@$$CBKPAVioEtcItem@@@std@@@3@$0A@@std@@@std@@@std@@H@std@@YAXAAV?$_Tree_const_iterator@V?$_Tree_val@V?$_Tmap_traits@KPAVioEtcItem@@U?$less@K@std@@V?$allocator@U?$pair@$$CBKPAVioEtcItem@@@std@@@3@$0A@@std@@@std@@@0@HUbidirectional_iterator_tag@0@@Z ENDP ; std::_Advance<std::_Tree_const_iterator<std::_Tree_val<std::_Tmap_traits<unsigned long,ioEtcItem *,std::less<unsigned long>,std::allocator<std::pair<unsigned long const ,ioEtcItem *> >,0> > >,int>
_TEXT	ENDS
PUBLIC	??$?0AAV?$_Tree_iterator@V?$_Tree_val@V?$_Tmap_traits@KPAVioEtcItem@@U?$less@K@std@@V?$allocator@U?$pair@$$CBKPAVioEtcItem@@@std@@@3@$0A@@std@@@std@@@std@@_N@?$pair@V?$_Tree_iterator@V?$_Tree_val@V?$_Tmap_traits@KPAVioEtcItem@@U?$less@K@std@@V?$allocator@U?$pair@$$CBKPAVioEtcItem@@@std@@@3@$0A@@std@@@std@@@std@@_N@std@@QAE@AAV?$_Tree_iterator@V?$_Tree_val@V?$_Tmap_traits@KPAVioEtcItem@@U?$less@K@std@@V?$allocator@U?$pair@$$CBKPAVioEtcItem@@@std@@@3@$0A@@std@@@std@@@1@$$QA_N@Z ; std::pair<std::_Tree_iterator<std::_Tree_val<std::_Tmap_traits<unsigned long,ioEtcItem *,std::less<unsigned long>,std::allocator<std::pair<unsigned long const ,ioEtcItem *> >,0> > >,bool>::pair<std::_Tree_iterator<std::_Tree_val<std::_Tmap_traits<unsigned long,ioEtcItem *,std::less<unsigned long>,std::allocator<std::pair<unsigned long const ,ioEtcItem *> >,0> > >,bool><std::_Tree_iterator<std::_Tree_val<std::_Tmap_traits<unsigned long,ioEtcItem *,std::less<unsigned long>,std::allocator<std::pair<unsigned long const ,ioEtcItem *> >,0> > > &,bool>
; Function compile flags: /Ogsp
; File c:\program files (x86)\microsoft visual studio 10.0\vc\include\utility
;	COMDAT ??$?0AAV?$_Tree_iterator@V?$_Tree_val@V?$_Tmap_traits@KPAVioEtcItem@@U?$less@K@std@@V?$allocator@U?$pair@$$CBKPAVioEtcItem@@@std@@@3@$0A@@std@@@std@@@std@@_N@?$pair@V?$_Tree_iterator@V?$_Tree_val@V?$_Tmap_traits@KPAVioEtcItem@@U?$less@K@std@@V?$allocator@U?$pair@$$CBKPAVioEtcItem@@@std@@@3@$0A@@std@@@std@@@std@@_N@std@@QAE@AAV?$_Tree_iterator@V?$_Tree_val@V?$_Tmap_traits@KPAVioEtcItem@@U?$less@K@std@@V?$allocator@U?$pair@$$CBKPAVioEtcItem@@@std@@@3@$0A@@std@@@std@@@1@$$QA_N@Z
_TEXT	SEGMENT
__Val1$ = 8						; size = 4
__Val2$ = 12						; size = 4
??$?0AAV?$_Tree_iterator@V?$_Tree_val@V?$_Tmap_traits@KPAVioEtcItem@@U?$less@K@std@@V?$allocator@U?$pair@$$CBKPAVioEtcItem@@@std@@@3@$0A@@std@@@std@@@std@@_N@?$pair@V?$_Tree_iterator@V?$_Tree_val@V?$_Tmap_traits@KPAVioEtcItem@@U?$less@K@std@@V?$allocator@U?$pair@$$CBKPAVioEtcItem@@@std@@@3@$0A@@std@@@std@@@std@@_N@std@@QAE@AAV?$_Tree_iterator@V?$_Tree_val@V?$_Tmap_traits@KPAVioEtcItem@@U?$less@K@std@@V?$allocator@U?$pair@$$CBKPAVioEtcItem@@@std@@@3@$0A@@std@@@std@@@1@$$QA_N@Z PROC ; std::pair<std::_Tree_iterator<std::_Tree_val<std::_Tmap_traits<unsigned long,ioEtcItem *,std::less<unsigned long>,std::allocator<std::pair<unsigned long const ,ioEtcItem *> >,0> > >,bool>::pair<std::_Tree_iterator<std::_Tree_val<std::_Tmap_traits<unsigned long,ioEtcItem *,std::less<unsigned long>,std::allocator<std::pair<unsigned long const ,ioEtcItem *> >,0> > >,bool><std::_Tree_iterator<std::_Tree_val<std::_Tmap_traits<unsigned long,ioEtcItem *,std::less<unsigned long>,std::allocator<std::pair<unsigned long const ,ioEtcItem *> >,0> > > &,bool>, COMDAT
; _this$ = ecx

; 247  : 		{	// construct from moved values

  00000	55		 push	 ebp
  00001	8b ec		 mov	 ebp, esp
  00003	8b c1		 mov	 eax, ecx
  00005	8b 4d 08	 mov	 ecx, DWORD PTR __Val1$[ebp]
  00008	8b 09		 mov	 ecx, DWORD PTR [ecx]
  0000a	89 08		 mov	 DWORD PTR [eax], ecx
  0000c	8b 4d 0c	 mov	 ecx, DWORD PTR __Val2$[ebp]
  0000f	8a 09		 mov	 cl, BYTE PTR [ecx]
  00011	88 48 04	 mov	 BYTE PTR [eax+4], cl

; 248  : 		}

  00014	5d		 pop	 ebp
  00015	c2 08 00	 ret	 8
??$?0AAV?$_Tree_iterator@V?$_Tree_val@V?$_Tmap_traits@KPAVioEtcItem@@U?$less@K@std@@V?$allocator@U?$pair@$$CBKPAVioEtcItem@@@std@@@3@$0A@@std@@@std@@@std@@_N@?$pair@V?$_Tree_iterator@V?$_Tree_val@V?$_Tmap_traits@KPAVioEtcItem@@U?$less@K@std@@V?$allocator@U?$pair@$$CBKPAVioEtcItem@@@std@@@3@$0A@@std@@@std@@@std@@_N@std@@QAE@AAV?$_Tree_iterator@V?$_Tree_val@V?$_Tmap_traits@KPAVioEtcItem@@U?$less@K@std@@V?$allocator@U?$pair@$$CBKPAVioEtcItem@@@std@@@3@$0A@@std@@@std@@@1@$$QA_N@Z ENDP ; std::pair<std::_Tree_iterator<std::_Tree_val<std::_Tmap_traits<unsigned long,ioEtcItem *,std::less<unsigned long>,std::allocator<std::pair<unsigned long const ,ioEtcItem *> >,0> > >,bool>::pair<std::_Tree_iterator<std::_Tree_val<std::_Tmap_traits<unsigned long,ioEtcItem *,std::less<unsigned long>,std::allocator<std::pair<unsigned long const ,ioEtcItem *> >,0> > >,bool><std::_Tree_iterator<std::_Tree_val<std::_Tmap_traits<unsigned long,ioEtcItem *,std::less<unsigned long>,std::allocator<std::pair<unsigned long const ,ioEtcItem *> >,0> > > &,bool>
_TEXT	ENDS
PUBLIC	??$?0$$CBKPAVioEtcItem@@@?$pair@$$CBKPAVioEtcItem@@@std@@QAE@$$QAU01@@Z ; std::pair<unsigned long const ,ioEtcItem *>::pair<unsigned long const ,ioEtcItem *><unsigned long const ,ioEtcItem *>
; Function compile flags: /Ogsp
;	COMDAT ??$?0$$CBKPAVioEtcItem@@@?$pair@$$CBKPAVioEtcItem@@@std@@QAE@$$QAU01@@Z
_TEXT	SEGMENT
__Right$ = 8						; size = 4
??$?0$$CBKPAVioEtcItem@@@?$pair@$$CBKPAVioEtcItem@@@std@@QAE@$$QAU01@@Z PROC ; std::pair<unsigned long const ,ioEtcItem *>::pair<unsigned long const ,ioEtcItem *><unsigned long const ,ioEtcItem *>, COMDAT
; _this$ = ecx

; 255  : 		{	// construct from moved compatible pair

  00000	55		 push	 ebp
  00001	8b ec		 mov	 ebp, esp
  00003	8b c1		 mov	 eax, ecx
  00005	8b 4d 08	 mov	 ecx, DWORD PTR __Right$[ebp]
  00008	8b 11		 mov	 edx, DWORD PTR [ecx]
  0000a	89 10		 mov	 DWORD PTR [eax], edx
  0000c	8b 49 04	 mov	 ecx, DWORD PTR [ecx+4]
  0000f	89 48 04	 mov	 DWORD PTR [eax+4], ecx

; 256  : 		}

  00012	5d		 pop	 ebp
  00013	c2 04 00	 ret	 4
??$?0$$CBKPAVioEtcItem@@@?$pair@$$CBKPAVioEtcItem@@@std@@QAE@$$QAU01@@Z ENDP ; std::pair<unsigned long const ,ioEtcItem *>::pair<unsigned long const ,ioEtcItem *><unsigned long const ,ioEtcItem *>
_TEXT	ENDS
PUBLIC	?_Destroy@?$vector@HV?$allocator@H@std@@@std@@IAEXPAH0@Z ; std::vector<int,std::allocator<int> >::_Destroy
; Function compile flags: /Ogsp
; File c:\program files (x86)\microsoft visual studio 10.0\vc\include\vector
;	COMDAT ?_Destroy@?$vector@HV?$allocator@H@std@@@std@@IAEXPAH0@Z
_TEXT	SEGMENT
__First$ = 8						; size = 4
__Last$ = 12						; size = 4
?_Destroy@?$vector@HV?$allocator@H@std@@@std@@IAEXPAH0@Z PROC ; std::vector<int,std::allocator<int> >::_Destroy, COMDAT
; _this$ = ecx

; 1270 : 		_Destroy_range(_First, _Last, this->_Alval);
; 1271 : 		}

  00000	c2 08 00	 ret	 8
?_Destroy@?$vector@HV?$allocator@H@std@@@std@@IAEXPAH0@Z ENDP ; std::vector<int,std::allocator<int> >::_Destroy
_TEXT	ENDS
PUBLIC	??9?$_Vector_const_iterator@V?$_Vector_val@HV?$allocator@H@std@@@std@@@std@@QBE_NABV01@@Z ; std::_Vector_const_iterator<std::_Vector_val<int,std::allocator<int> > >::operator!=
; Function compile flags: /Ogsp
;	COMDAT ??9?$_Vector_const_iterator@V?$_Vector_val@HV?$allocator@H@std@@@std@@@std@@QBE_NABV01@@Z
_TEXT	SEGMENT
__Right$ = 8						; size = 4
??9?$_Vector_const_iterator@V?$_Vector_val@HV?$allocator@H@std@@@std@@@std@@QBE_NABV01@@Z PROC ; std::_Vector_const_iterator<std::_Vector_val<int,std::allocator<int> > >::operator!=, COMDAT
; _this$ = ecx

; 207  : 		{	// test for iterator inequality

  00000	55		 push	 ebp
  00001	8b ec		 mov	 ebp, esp

; 208  : 		return (!(*this == _Right));

  00003	8b 01		 mov	 eax, DWORD PTR [ecx]
  00005	8b 55 08	 mov	 edx, DWORD PTR __Right$[ebp]
  00008	33 c9		 xor	 ecx, ecx
  0000a	3b 02		 cmp	 eax, DWORD PTR [edx]
  0000c	0f 95 c0	 setne	 al

; 209  : 		}

  0000f	5d		 pop	 ebp
  00010	c2 04 00	 ret	 4
??9?$_Vector_const_iterator@V?$_Vector_val@HV?$allocator@H@std@@@std@@@std@@QBE_NABV01@@Z ENDP ; std::_Vector_const_iterator<std::_Vector_val<int,std::allocator<int> > >::operator!=
_TEXT	ENDS
PUBLIC	??$_Umove@PAH@?$vector@HV?$allocator@H@std@@@std@@IAEPAHPAH00@Z ; std::vector<int,std::allocator<int> >::_Umove<int *>
; Function compile flags: /Ogsp
;	COMDAT ??$_Umove@PAH@?$vector@HV?$allocator@H@std@@@std@@IAEPAHPAH00@Z
_TEXT	SEGMENT
__First$ = 8						; size = 4
__Last$ = 12						; size = 4
__Ptr$ = 16						; size = 4
??$_Umove@PAH@?$vector@HV?$allocator@H@std@@@std@@IAEPAHPAH00@Z PROC ; std::vector<int,std::allocator<int> >::_Umove<int *>, COMDAT
; _this$ = ecx

; 1322 : 		pointer _Umove(_Iter _First, _Iter _Last, pointer _Ptr)

  00000	55		 push	 ebp
  00001	8b ec		 mov	 ebp, esp

; 1323 : 		{	// move initializing [_First, _Last), using allocator
; 1324 : 		return (_Uninitialized_move(_First, _Last,
; 1325 : 			_Ptr, this->_Alval));

  00003	83 c1 0c	 add	 ecx, 12			; 0000000cH
  00006	51		 push	 ecx
  00007	ff 75 10	 push	 DWORD PTR __Ptr$[ebp]
  0000a	ff 75 0c	 push	 DWORD PTR __Last$[ebp]
  0000d	ff 75 08	 push	 DWORD PTR __First$[ebp]
  00010	e8 00 00 00 00	 call	 ??$_Uninitialized_move@PAHPAHV?$allocator@H@std@@@std@@YAPAHPAH00AAV?$allocator@H@0@@Z ; std::_Uninitialized_move<int *,int *,std::allocator<int> >
  00015	83 c4 10	 add	 esp, 16			; 00000010H

; 1326 : 		}

  00018	5d		 pop	 ebp
  00019	c2 0c 00	 ret	 12			; 0000000cH
??$_Umove@PAH@?$vector@HV?$allocator@H@std@@@std@@IAEPAHPAH00@Z ENDP ; std::vector<int,std::allocator<int> >::_Umove<int *>
_TEXT	ENDS
PUBLIC	?begin@?$_Tree@V?$_Tmap_traits@KPAVioEtcItem@@U?$less@K@std@@V?$allocator@U?$pair@$$CBKPAVioEtcItem@@@std@@@3@$0A@@std@@@std@@QAE?AV?$_Tree_iterator@V?$_Tree_val@V?$_Tmap_traits@KPAVioEtcItem@@U?$less@K@std@@V?$allocator@U?$pair@$$CBKPAVioEtcItem@@@std@@@3@$0A@@std@@@std@@@2@XZ ; std::_Tree<std::_Tmap_traits<unsigned long,ioEtcItem *,std::less<unsigned long>,std::allocator<std::pair<unsigned long const ,ioEtcItem *> >,0> >::begin
; Function compile flags: /Ogsp
; File c:\program files (x86)\microsoft visual studio 10.0\vc\include\xtree
;	COMDAT ?begin@?$_Tree@V?$_Tmap_traits@KPAVioEtcItem@@U?$less@K@std@@V?$allocator@U?$pair@$$CBKPAVioEtcItem@@@std@@@3@$0A@@std@@@std@@QAE?AV?$_Tree_iterator@V?$_Tree_val@V?$_Tmap_traits@KPAVioEtcItem@@U?$less@K@std@@V?$allocator@U?$pair@$$CBKPAVioEtcItem@@@std@@@3@$0A@@std@@@std@@@2@XZ
_TEXT	SEGMENT
___$ReturnUdt$ = 8					; size = 4
?begin@?$_Tree@V?$_Tmap_traits@KPAVioEtcItem@@U?$less@K@std@@V?$allocator@U?$pair@$$CBKPAVioEtcItem@@@std@@@3@$0A@@std@@@std@@QAE?AV?$_Tree_iterator@V?$_Tree_val@V?$_Tmap_traits@KPAVioEtcItem@@U?$less@K@std@@V?$allocator@U?$pair@$$CBKPAVioEtcItem@@@std@@@3@$0A@@std@@@std@@@2@XZ PROC ; std::_Tree<std::_Tmap_traits<unsigned long,ioEtcItem *,std::less<unsigned long>,std::allocator<std::pair<unsigned long const ,ioEtcItem *> >,0> >::begin, COMDAT
; _this$ = ecx

; 806  : 		{	// return iterator for beginning of mutable sequence

  00000	55		 push	 ebp
  00001	8b ec		 mov	 ebp, esp

; 807  : 		return (iterator(_Lmost(), this));

  00003	8b 41 04	 mov	 eax, DWORD PTR [ecx+4]
  00006	8b 08		 mov	 ecx, DWORD PTR [eax]
  00008	8b 45 08	 mov	 eax, DWORD PTR ___$ReturnUdt$[ebp]
  0000b	89 08		 mov	 DWORD PTR [eax], ecx

; 808  : 		}

  0000d	5d		 pop	 ebp
  0000e	c2 04 00	 ret	 4
?begin@?$_Tree@V?$_Tmap_traits@KPAVioEtcItem@@U?$less@K@std@@V?$allocator@U?$pair@$$CBKPAVioEtcItem@@@std@@@3@$0A@@std@@@std@@QAE?AV?$_Tree_iterator@V?$_Tree_val@V?$_Tmap_traits@KPAVioEtcItem@@U?$less@K@std@@V?$allocator@U?$pair@$$CBKPAVioEtcItem@@@std@@@3@$0A@@std@@@std@@@2@XZ ENDP ; std::_Tree<std::_Tmap_traits<unsigned long,ioEtcItem *,std::less<unsigned long>,std::allocator<std::pair<unsigned long const ,ioEtcItem *> >,0> >::begin
_TEXT	ENDS
PUBLIC	?end@?$_Tree@V?$_Tmap_traits@KPAVioEtcItem@@U?$less@K@std@@V?$allocator@U?$pair@$$CBKPAVioEtcItem@@@std@@@3@$0A@@std@@@std@@QAE?AV?$_Tree_iterator@V?$_Tree_val@V?$_Tmap_traits@KPAVioEtcItem@@U?$less@K@std@@V?$allocator@U?$pair@$$CBKPAVioEtcItem@@@std@@@3@$0A@@std@@@std@@@2@XZ ; std::_Tree<std::_Tmap_traits<unsigned long,ioEtcItem *,std::less<unsigned long>,std::allocator<std::pair<unsigned long const ,ioEtcItem *> >,0> >::end
; Function compile flags: /Ogsp
;	COMDAT ?end@?$_Tree@V?$_Tmap_traits@KPAVioEtcItem@@U?$less@K@std@@V?$allocator@U?$pair@$$CBKPAVioEtcItem@@@std@@@3@$0A@@std@@@std@@QAE?AV?$_Tree_iterator@V?$_Tree_val@V?$_Tmap_traits@KPAVioEtcItem@@U?$less@K@std@@V?$allocator@U?$pair@$$CBKPAVioEtcItem@@@std@@@3@$0A@@std@@@std@@@2@XZ
_TEXT	SEGMENT
___$ReturnUdt$ = 8					; size = 4
?end@?$_Tree@V?$_Tmap_traits@KPAVioEtcItem@@U?$less@K@std@@V?$allocator@U?$pair@$$CBKPAVioEtcItem@@@std@@@3@$0A@@std@@@std@@QAE?AV?$_Tree_iterator@V?$_Tree_val@V?$_Tmap_traits@KPAVioEtcItem@@U?$less@K@std@@V?$allocator@U?$pair@$$CBKPAVioEtcItem@@@std@@@3@$0A@@std@@@std@@@2@XZ PROC ; std::_Tree<std::_Tmap_traits<unsigned long,ioEtcItem *,std::less<unsigned long>,std::allocator<std::pair<unsigned long const ,ioEtcItem *> >,0> >::end, COMDAT
; _this$ = ecx

; 816  : 		{	// return iterator for end of mutable sequence

  00000	55		 push	 ebp
  00001	8b ec		 mov	 ebp, esp

; 817  : 		return (iterator(this->_Myhead, this));

  00003	8b 49 04	 mov	 ecx, DWORD PTR [ecx+4]
  00006	8b 45 08	 mov	 eax, DWORD PTR ___$ReturnUdt$[ebp]
  00009	89 08		 mov	 DWORD PTR [eax], ecx

; 818  : 		}

  0000b	5d		 pop	 ebp
  0000c	c2 04 00	 ret	 4
?end@?$_Tree@V?$_Tmap_traits@KPAVioEtcItem@@U?$less@K@std@@V?$allocator@U?$pair@$$CBKPAVioEtcItem@@@std@@@3@$0A@@std@@@std@@QAE?AV?$_Tree_iterator@V?$_Tree_val@V?$_Tmap_traits@KPAVioEtcItem@@U?$less@K@std@@V?$allocator@U?$pair@$$CBKPAVioEtcItem@@@std@@@3@$0A@@std@@@std@@@2@XZ ENDP ; std::_Tree<std::_Tmap_traits<unsigned long,ioEtcItem *,std::less<unsigned long>,std::allocator<std::pair<unsigned long const ,ioEtcItem *> >,0> >::end
_TEXT	ENDS
PUBLIC	??E?$_Tree_iterator@V?$_Tree_val@V?$_Tmap_traits@KPAVioEtcItem@@U?$less@K@std@@V?$allocator@U?$pair@$$CBKPAVioEtcItem@@@std@@@3@$0A@@std@@@std@@@std@@QAEAAV01@XZ ; std::_Tree_iterator<std::_Tree_val<std::_Tmap_traits<unsigned long,ioEtcItem *,std::less<unsigned long>,std::allocator<std::pair<unsigned long const ,ioEtcItem *> >,0> > >::operator++
; Function compile flags: /Ogsp
;	COMDAT ??E?$_Tree_iterator@V?$_Tree_val@V?$_Tmap_traits@KPAVioEtcItem@@U?$less@K@std@@V?$allocator@U?$pair@$$CBKPAVioEtcItem@@@std@@@3@$0A@@std@@@std@@@std@@QAEAAV01@XZ
_TEXT	SEGMENT
??E?$_Tree_iterator@V?$_Tree_val@V?$_Tmap_traits@KPAVioEtcItem@@U?$less@K@std@@V?$allocator@U?$pair@$$CBKPAVioEtcItem@@@std@@@3@$0A@@std@@@std@@@std@@QAEAAV01@XZ PROC ; std::_Tree_iterator<std::_Tree_val<std::_Tmap_traits<unsigned long,ioEtcItem *,std::less<unsigned long>,std::allocator<std::pair<unsigned long const ,ioEtcItem *> >,0> > >::operator++, COMDAT
; _this$ = ecx

; 405  : 		{	// preincrement

  00000	56		 push	 esi
  00001	8b f1		 mov	 esi, ecx

; 406  : 		++(*(_Mybase *)this);

  00003	e8 00 00 00 00	 call	 ??E?$_Tree_unchecked_const_iterator@V?$_Tree_val@V?$_Tmap_traits@KPAVioEtcItem@@U?$less@K@std@@V?$allocator@U?$pair@$$CBKPAVioEtcItem@@@std@@@3@$0A@@std@@@std@@U_Iterator_base0@2@@std@@QAEAAV01@XZ ; std::_Tree_unchecked_const_iterator<std::_Tree_val<std::_Tmap_traits<unsigned long,ioEtcItem *,std::less<unsigned long>,std::allocator<std::pair<unsigned long const ,ioEtcItem *> >,0> >,std::_Iterator_base0>::operator++

; 407  : 		return (*this);

  00008	8b c6		 mov	 eax, esi
  0000a	5e		 pop	 esi

; 408  : 		}

  0000b	c3		 ret	 0
??E?$_Tree_iterator@V?$_Tree_val@V?$_Tmap_traits@KPAVioEtcItem@@U?$less@K@std@@V?$allocator@U?$pair@$$CBKPAVioEtcItem@@@std@@@3@$0A@@std@@@std@@@std@@QAEAAV01@XZ ENDP ; std::_Tree_iterator<std::_Tree_val<std::_Tmap_traits<unsigned long,ioEtcItem *,std::less<unsigned long>,std::allocator<std::pair<unsigned long const ,ioEtcItem *> >,0> > >::operator++
_TEXT	ENDS
PUBLIC	??0?$_Tree@V?$_Tmap_traits@KPAVioEtcItem@@U?$less@K@std@@V?$allocator@U?$pair@$$CBKPAVioEtcItem@@@std@@@3@$0A@@std@@@std@@QAE@ABU?$less@K@1@ABV?$allocator@U?$pair@$$CBKPAVioEtcItem@@@std@@@1@@Z ; std::_Tree<std::_Tmap_traits<unsigned long,ioEtcItem *,std::less<unsigned long>,std::allocator<std::pair<unsigned long const ,ioEtcItem *> >,0> >::_Tree<std::_Tmap_traits<unsigned long,ioEtcItem *,std::less<unsigned long>,std::allocator<std::pair<unsigned long const ,ioEtcItem *> >,0> >
; Function compile flags: /Ogsp
;	COMDAT ??0?$_Tree@V?$_Tmap_traits@KPAVioEtcItem@@U?$less@K@std@@V?$allocator@U?$pair@$$CBKPAVioEtcItem@@@std@@@3@$0A@@std@@@std@@QAE@ABU?$less@K@1@ABV?$allocator@U?$pair@$$CBKPAVioEtcItem@@@std@@@1@@Z
_TEXT	SEGMENT
$T511706 = -4						; size = 4
$T511701 = -4						; size = 4
__Parg$ = 8						; size = 4
__Al$ = 12						; size = 4
??0?$_Tree@V?$_Tmap_traits@KPAVioEtcItem@@U?$less@K@std@@V?$allocator@U?$pair@$$CBKPAVioEtcItem@@@std@@@3@$0A@@std@@@std@@QAE@ABU?$less@K@1@ABV?$allocator@U?$pair@$$CBKPAVioEtcItem@@@std@@@1@@Z PROC ; std::_Tree<std::_Tmap_traits<unsigned long,ioEtcItem *,std::less<unsigned long>,std::allocator<std::pair<unsigned long const ,ioEtcItem *> >,0> >::_Tree<std::_Tmap_traits<unsigned long,ioEtcItem *,std::less<unsigned long>,std::allocator<std::pair<unsigned long const ,ioEtcItem *> >,0> >, COMDAT
; _this$ = ecx

; 698  : 		{	// construct empty tree

  00000	55		 push	 ebp
  00001	8b ec		 mov	 ebp, esp
  00003	51		 push	 ecx
  00004	56		 push	 esi
  00005	51		 push	 ecx
  00006	89 65 fc	 mov	 DWORD PTR $T511701[ebp], esp
  00009	89 65 fc	 mov	 DWORD PTR $T511706[ebp], esp
  0000c	ff 75 08	 push	 DWORD PTR __Parg$[ebp]
  0000f	8b f1		 mov	 esi, ecx
  00011	e8 00 00 00 00	 call	 ??0?$_Tree_val@V?$_Tmap_traits@KPAVioEtcItem@@U?$less@K@std@@V?$allocator@U?$pair@$$CBKPAVioEtcItem@@@std@@@3@$0A@@std@@@std@@QAE@ABU?$less@K@1@V?$allocator@U?$pair@$$CBKPAVioEtcItem@@@std@@@1@@Z ; std::_Tree_val<std::_Tmap_traits<unsigned long,ioEtcItem *,std::less<unsigned long>,std::allocator<std::pair<unsigned long const ,ioEtcItem *> >,0> >::_Tree_val<std::_Tmap_traits<unsigned long,ioEtcItem *,std::less<unsigned long>,std::allocator<std::pair<unsigned long const ,ioEtcItem *> >,0> >

; 699  : 		}

  00016	8b c6		 mov	 eax, esi
  00018	5e		 pop	 esi
  00019	c9		 leave
  0001a	c2 08 00	 ret	 8
??0?$_Tree@V?$_Tmap_traits@KPAVioEtcItem@@U?$less@K@std@@V?$allocator@U?$pair@$$CBKPAVioEtcItem@@@std@@@3@$0A@@std@@@std@@QAE@ABU?$less@K@1@ABV?$allocator@U?$pair@$$CBKPAVioEtcItem@@@std@@@1@@Z ENDP ; std::_Tree<std::_Tmap_traits<unsigned long,ioEtcItem *,std::less<unsigned long>,std::allocator<std::pair<unsigned long const ,ioEtcItem *> >,0> >::_Tree<std::_Tmap_traits<unsigned long,ioEtcItem *,std::less<unsigned long>,std::allocator<std::pair<unsigned long const ,ioEtcItem *> >,0> >
_TEXT	ENDS
PUBLIC	?lower_bound@?$_Tree@V?$_Tmap_traits@KPAVioEtcItem@@U?$less@K@std@@V?$allocator@U?$pair@$$CBKPAVioEtcItem@@@std@@@3@$0A@@std@@@std@@QAE?AV?$_Tree_iterator@V?$_Tree_val@V?$_Tmap_traits@KPAVioEtcItem@@U?$less@K@std@@V?$allocator@U?$pair@$$CBKPAVioEtcItem@@@std@@@3@$0A@@std@@@std@@@2@ABK@Z ; std::_Tree<std::_Tmap_traits<unsigned long,ioEtcItem *,std::less<unsigned long>,std::allocator<std::pair<unsigned long const ,ioEtcItem *> >,0> >::lower_bound
; Function compile flags: /Ogsp
;	COMDAT ?lower_bound@?$_Tree@V?$_Tmap_traits@KPAVioEtcItem@@U?$less@K@std@@V?$allocator@U?$pair@$$CBKPAVioEtcItem@@@std@@@3@$0A@@std@@@std@@QAE?AV?$_Tree_iterator@V?$_Tree_val@V?$_Tmap_traits@KPAVioEtcItem@@U?$less@K@std@@V?$allocator@U?$pair@$$CBKPAVioEtcItem@@@std@@@3@$0A@@std@@@std@@@2@ABK@Z
_TEXT	SEGMENT
___$ReturnUdt$ = 8					; size = 4
__Keyval$ = 12						; size = 4
?lower_bound@?$_Tree@V?$_Tmap_traits@KPAVioEtcItem@@U?$less@K@std@@V?$allocator@U?$pair@$$CBKPAVioEtcItem@@@std@@@3@$0A@@std@@@std@@QAE?AV?$_Tree_iterator@V?$_Tree_val@V?$_Tmap_traits@KPAVioEtcItem@@U?$less@K@std@@V?$allocator@U?$pair@$$CBKPAVioEtcItem@@@std@@@3@$0A@@std@@@std@@@2@ABK@Z PROC ; std::_Tree<std::_Tmap_traits<unsigned long,ioEtcItem *,std::less<unsigned long>,std::allocator<std::pair<unsigned long const ,ioEtcItem *> >,0> >::lower_bound, COMDAT
; _this$ = ecx

; 1449 : 		{	// find leftmost node not less than _Keyval in mutable tree

  00000	55		 push	 ebp
  00001	8b ec		 mov	 ebp, esp

; 1450 : 		return (iterator(_Lbound(_Keyval), this));

  00003	ff 75 0c	 push	 DWORD PTR __Keyval$[ebp]
  00006	e8 00 00 00 00	 call	 ?_Lbound@?$_Tree@V?$_Tmap_traits@KPAVioEtcItem@@U?$less@K@std@@V?$allocator@U?$pair@$$CBKPAVioEtcItem@@@std@@@3@$0A@@std@@@std@@IAEPAU_Node@?$_Tree_nod@V?$_Tmap_traits@KPAVioEtcItem@@U?$less@K@std@@V?$allocator@U?$pair@$$CBKPAVioEtcItem@@@std@@@3@$0A@@std@@@2@ABK@Z ; std::_Tree<std::_Tmap_traits<unsigned long,ioEtcItem *,std::less<unsigned long>,std::allocator<std::pair<unsigned long const ,ioEtcItem *> >,0> >::_Lbound
  0000b	8b 4d 08	 mov	 ecx, DWORD PTR ___$ReturnUdt$[ebp]
  0000e	89 01		 mov	 DWORD PTR [ecx], eax
  00010	8b c1		 mov	 eax, ecx

; 1451 : 		}

  00012	5d		 pop	 ebp
  00013	c2 08 00	 ret	 8
?lower_bound@?$_Tree@V?$_Tmap_traits@KPAVioEtcItem@@U?$less@K@std@@V?$allocator@U?$pair@$$CBKPAVioEtcItem@@@std@@@3@$0A@@std@@@std@@QAE?AV?$_Tree_iterator@V?$_Tree_val@V?$_Tmap_traits@KPAVioEtcItem@@U?$less@K@std@@V?$allocator@U?$pair@$$CBKPAVioEtcItem@@@std@@@3@$0A@@std@@@std@@@2@ABK@Z ENDP ; std::_Tree<std::_Tmap_traits<unsigned long,ioEtcItem *,std::less<unsigned long>,std::allocator<std::pair<unsigned long const ,ioEtcItem *> >,0> >::lower_bound
_TEXT	ENDS
PUBLIC	?_Erase@?$_Tree@V?$_Tmap_traits@KPAVioEtcItem@@U?$less@K@std@@V?$allocator@U?$pair@$$CBKPAVioEtcItem@@@std@@@3@$0A@@std@@@std@@IAEXPAU_Node@?$_Tree_nod@V?$_Tmap_traits@KPAVioEtcItem@@U?$less@K@std@@V?$allocator@U?$pair@$$CBKPAVioEtcItem@@@std@@@3@$0A@@std@@@2@@Z ; std::_Tree<std::_Tmap_traits<unsigned long,ioEtcItem *,std::less<unsigned long>,std::allocator<std::pair<unsigned long const ,ioEtcItem *> >,0> >::_Erase
; Function compile flags: /Ogsp
;	COMDAT ?_Erase@?$_Tree@V?$_Tmap_traits@KPAVioEtcItem@@U?$less@K@std@@V?$allocator@U?$pair@$$CBKPAVioEtcItem@@@std@@@3@$0A@@std@@@std@@IAEXPAU_Node@?$_Tree_nod@V?$_Tmap_traits@KPAVioEtcItem@@U?$less@K@std@@V?$allocator@U?$pair@$$CBKPAVioEtcItem@@@std@@@3@$0A@@std@@@2@@Z
_TEXT	SEGMENT
__Rootnode$ = 8						; size = 4
?_Erase@?$_Tree@V?$_Tmap_traits@KPAVioEtcItem@@U?$less@K@std@@V?$allocator@U?$pair@$$CBKPAVioEtcItem@@@std@@@3@$0A@@std@@@std@@IAEXPAU_Node@?$_Tree_nod@V?$_Tmap_traits@KPAVioEtcItem@@U?$less@K@std@@V?$allocator@U?$pair@$$CBKPAVioEtcItem@@@std@@@3@$0A@@std@@@2@@Z PROC ; std::_Tree<std::_Tmap_traits<unsigned long,ioEtcItem *,std::less<unsigned long>,std::allocator<std::pair<unsigned long const ,ioEtcItem *> >,0> >::_Erase, COMDAT
; _this$ = ecx

; 1610 : 		{	// free entire subtree, recursively

  00000	55		 push	 ebp
  00001	8b ec		 mov	 ebp, esp
  00003	53		 push	 ebx
  00004	56		 push	 esi
  00005	57		 push	 edi

; 1611 : 		for (_Nodeptr _Pnode = _Rootnode;

  00006	8b 7d 08	 mov	 edi, DWORD PTR __Rootnode$[ebp]

; 1612 : 			!this->_Isnil(_Pnode); _Rootnode = _Pnode)

  00009	80 7f 15 00	 cmp	 BYTE PTR [edi+21], 0
  0000d	8b d9		 mov	 ebx, ecx
  0000f	8b f7		 mov	 esi, edi
  00011	75 1b		 jne	 SHORT $LN1@Erase
$LL3@Erase:

; 1613 : 			{	// free subtrees, then node
; 1614 : 			_Erase(this->_Right(_Pnode));

  00013	ff 76 08	 push	 DWORD PTR [esi+8]
  00016	8b cb		 mov	 ecx, ebx
  00018	e8 00 00 00 00	 call	 ?_Erase@?$_Tree@V?$_Tmap_traits@KPAVioEtcItem@@U?$less@K@std@@V?$allocator@U?$pair@$$CBKPAVioEtcItem@@@std@@@3@$0A@@std@@@std@@IAEXPAU_Node@?$_Tree_nod@V?$_Tmap_traits@KPAVioEtcItem@@U?$less@K@std@@V?$allocator@U?$pair@$$CBKPAVioEtcItem@@@std@@@3@$0A@@std@@@2@@Z ; std::_Tree<std::_Tmap_traits<unsigned long,ioEtcItem *,std::less<unsigned long>,std::allocator<std::pair<unsigned long const ,ioEtcItem *> >,0> >::_Erase

; 1615 : 			_Pnode = this->_Left(_Pnode);

  0001d	8b 36		 mov	 esi, DWORD PTR [esi]

; 1616 : 			_Dest_val(this->_Alval,
; 1617 : 				_STD addressof(this->_Myval(_Rootnode)));
; 1618 : 
; 1619 : 			this->_Alnod.deallocate(_Rootnode, 1);

  0001f	57		 push	 edi
  00020	e8 00 00 00 00	 call	 ??3@YAXPAX@Z		; operator delete
  00025	80 7e 15 00	 cmp	 BYTE PTR [esi+21], 0
  00029	59		 pop	 ecx
  0002a	8b fe		 mov	 edi, esi
  0002c	74 e5		 je	 SHORT $LL3@Erase
$LN1@Erase:
  0002e	5f		 pop	 edi
  0002f	5e		 pop	 esi
  00030	5b		 pop	 ebx

; 1620 : 			}
; 1621 : 		}

  00031	5d		 pop	 ebp
  00032	c2 04 00	 ret	 4
?_Erase@?$_Tree@V?$_Tmap_traits@KPAVioEtcItem@@U?$less@K@std@@V?$allocator@U?$pair@$$CBKPAVioEtcItem@@@std@@@3@$0A@@std@@@std@@IAEXPAU_Node@?$_Tree_nod@V?$_Tmap_traits@KPAVioEtcItem@@U?$less@K@std@@V?$allocator@U?$pair@$$CBKPAVioEtcItem@@@std@@@3@$0A@@std@@@2@@Z ENDP ; std::_Tree<std::_Tmap_traits<unsigned long,ioEtcItem *,std::less<unsigned long>,std::allocator<std::pair<unsigned long const ,ioEtcItem *> >,0> >::_Erase
_TEXT	ENDS
PUBLIC	?reserve@?$vector@PBVioEtcItem@@V?$allocator@PBVioEtcItem@@@std@@@std@@QAEXI@Z ; std::vector<ioEtcItem const *,std::allocator<ioEtcItem const *> >::reserve
EXTRN	__imp_?_Orphan_all@_Container_base0@std@@QAEXXZ:PROC
; Function compile flags: /Ogsp
; File c:\program files (x86)\microsoft visual studio 10.0\vc\include\vector
;	COMDAT ?reserve@?$vector@PBVioEtcItem@@V?$allocator@PBVioEtcItem@@@std@@@std@@QAEXI@Z
_TEXT	SEGMENT
__Count$ = 8						; size = 4
?reserve@?$vector@PBVioEtcItem@@V?$allocator@PBVioEtcItem@@@std@@@std@@QAEXI@Z PROC ; std::vector<ioEtcItem const *,std::allocator<ioEtcItem const *> >::reserve, COMDAT
; _this$ = ecx

; 746  : 		{	// determine new minimum length of allocated storage

  00000	55		 push	 ebp
  00001	8b ec		 mov	 ebp, esp

; 747  : 		if (max_size() < _Count)

  00003	81 7d 08 ff ff
	ff 3f		 cmp	 DWORD PTR __Count$[ebp], 1073741823 ; 3fffffffH
  0000a	56		 push	 esi
  0000b	8b f1		 mov	 esi, ecx
  0000d	76 0b		 jbe	 SHORT $LN5@reserve

; 748  : 			_Xlen();	// result too long

  0000f	68 00 00 00 00	 push	 OFFSET ??_C@_0BD@OLBABOEK@vector?$DMT?$DO?5too?5long?$AA@
  00014	ff 15 00 00 00
	00		 call	 DWORD PTR __imp_?_Xlength_error@std@@YAXPBD@Z
$LN43@reserve:
$LN5@reserve:

; 749  : 		else if (capacity() < _Count)

  0001a	8b 46 08	 mov	 eax, DWORD PTR [esi+8]
  0001d	2b 06		 sub	 eax, DWORD PTR [esi]
  0001f	c1 f8 02	 sar	 eax, 2
  00022	3b 45 08	 cmp	 eax, DWORD PTR __Count$[ebp]
  00025	73 52		 jae	 SHORT $LN3@reserve

; 750  : 			{	// not enough room, reallocate
; 751  : 			pointer _Ptr = this->_Alval.allocate(_Count);

  00027	53		 push	 ebx
  00028	57		 push	 edi
  00029	6a 00		 push	 0
  0002b	ff 75 08	 push	 DWORD PTR __Count$[ebp]
  0002e	e8 00 00 00 00	 call	 ??$_Allocate@PBVioEtcItem@@@std@@YAPAPBVioEtcItem@@IPAPBV1@@Z ; std::_Allocate<ioEtcItem const *>

; 752  : 
; 753  : 			_TRY_BEGIN
; 754  : 			_Umove(this->_Myfirst, this->_Mylast, _Ptr);

  00033	8b 0e		 mov	 ecx, DWORD PTR [esi]
  00035	8d 56 0c	 lea	 edx, DWORD PTR [esi+12]
  00038	52		 push	 edx
  00039	8b d8		 mov	 ebx, eax
  0003b	8b 46 04	 mov	 eax, DWORD PTR [esi+4]
  0003e	53		 push	 ebx
  0003f	50		 push	 eax
  00040	51		 push	 ecx
  00041	e8 00 00 00 00	 call	 ??$_Uninitialized_move@PAPBVioEtcItem@@PAPBV1@V?$allocator@PBVioEtcItem@@@std@@@std@@YAPAPBVioEtcItem@@PAPBV1@00AAV?$allocator@PBVioEtcItem@@@0@@Z ; std::_Uninitialized_move<ioEtcItem const * *,ioEtcItem const * *,std::allocator<ioEtcItem const *> >

; 755  : 			_CATCH_ALL
; 756  : 			this->_Alval.deallocate(_Ptr, _Count);
; 757  : 			_RERAISE;
; 758  : 			_CATCH_END
; 759  : 
; 760  : 			size_type _Size = size();

  00046	8b 06		 mov	 eax, DWORD PTR [esi]
  00048	8b 7e 04	 mov	 edi, DWORD PTR [esi+4]
  0004b	2b f8		 sub	 edi, eax
  0004d	83 c4 18	 add	 esp, 24			; 00000018H
  00050	c1 ff 02	 sar	 edi, 2

; 761  : 			if (this->_Myfirst != 0)

  00053	85 c0		 test	 eax, eax
  00055	74 07		 je	 SHORT $LN39@reserve

; 762  : 				{	// destroy and deallocate old array
; 763  : 				_Destroy(this->_Myfirst, this->_Mylast);
; 764  : 				this->_Alval.deallocate(this->_Myfirst,
; 765  : 					this->_Myend - this->_Myfirst);

  00057	50		 push	 eax
  00058	e8 00 00 00 00	 call	 ??3@YAXPAX@Z		; operator delete
  0005d	59		 pop	 ecx
$LN39@reserve:

; 766  : 				}
; 767  : 
; 768  : 			this->_Orphan_all();

  0005e	8b ce		 mov	 ecx, esi
  00060	ff 15 00 00 00
	00		 call	 DWORD PTR __imp_?_Orphan_all@_Container_base0@std@@QAEXXZ

; 769  : 			this->_Myend = _Ptr + _Count;

  00066	8b 45 08	 mov	 eax, DWORD PTR __Count$[ebp]
  00069	8d 04 83	 lea	 eax, DWORD PTR [ebx+eax*4]
  0006c	89 46 08	 mov	 DWORD PTR [esi+8], eax

; 770  : 			this->_Mylast = _Ptr + _Size;

  0006f	8d 04 bb	 lea	 eax, DWORD PTR [ebx+edi*4]
  00072	5f		 pop	 edi

; 771  : 			this->_Myfirst = _Ptr;

  00073	89 1e		 mov	 DWORD PTR [esi], ebx
  00075	89 46 04	 mov	 DWORD PTR [esi+4], eax
  00078	5b		 pop	 ebx
$LN3@reserve:
  00079	5e		 pop	 esi

; 772  : 			}
; 773  : 		}

  0007a	5d		 pop	 ebp
  0007b	c2 04 00	 ret	 4
$LN42@reserve:
?reserve@?$vector@PBVioEtcItem@@V?$allocator@PBVioEtcItem@@@std@@@std@@QAEXI@Z ENDP ; std::vector<ioEtcItem const *,std::allocator<ioEtcItem const *> >::reserve
_TEXT	ENDS
PUBLIC	??_C@_0BM@PAPJHAGI@invalid?5map?1set?$DMT?$DO?5iterator?$AA@ ; `string'
PUBLIC	?erase@?$_Tree@V?$_Tmap_traits@KPAVioEtcItem@@U?$less@K@std@@V?$allocator@U?$pair@$$CBKPAVioEtcItem@@@std@@@3@$0A@@std@@@std@@QAE?AV?$_Tree_iterator@V?$_Tree_val@V?$_Tmap_traits@KPAVioEtcItem@@U?$less@K@std@@V?$allocator@U?$pair@$$CBKPAVioEtcItem@@@std@@@3@$0A@@std@@@std@@@2@V?$_Tree_const_iterator@V?$_Tree_val@V?$_Tmap_traits@KPAVioEtcItem@@U?$less@K@std@@V?$allocator@U?$pair@$$CBKPAVioEtcItem@@@std@@@3@$0A@@std@@@std@@@2@@Z ; std::_Tree<std::_Tmap_traits<unsigned long,ioEtcItem *,std::less<unsigned long>,std::allocator<std::pair<unsigned long const ,ioEtcItem *> >,0> >::erase
EXTRN	__imp_?_Xout_of_range@std@@YAXPBD@Z:PROC
;	COMDAT ??_C@_0BM@PAPJHAGI@invalid?5map?1set?$DMT?$DO?5iterator?$AA@
; File c:\program files (x86)\microsoft visual studio 10.0\vc\include\xutility
CONST	SEGMENT
??_C@_0BM@PAPJHAGI@invalid?5map?1set?$DMT?$DO?5iterator?$AA@ DB 'invalid '
	DB	'map/set<T> iterator', 00H			; `string'
; Function compile flags: /Ogsp
; File c:\program files (x86)\microsoft visual studio 10.0\vc\include\xtree
CONST	ENDS
;	COMDAT ?erase@?$_Tree@V?$_Tmap_traits@KPAVioEtcItem@@U?$less@K@std@@V?$allocator@U?$pair@$$CBKPAVioEtcItem@@@std@@@3@$0A@@std@@@std@@QAE?AV?$_Tree_iterator@V?$_Tree_val@V?$_Tmap_traits@KPAVioEtcItem@@U?$less@K@std@@V?$allocator@U?$pair@$$CBKPAVioEtcItem@@@std@@@3@$0A@@std@@@std@@@2@V?$_Tree_const_iterator@V?$_Tree_val@V?$_Tmap_traits@KPAVioEtcItem@@U?$less@K@std@@V?$allocator@U?$pair@$$CBKPAVioEtcItem@@@std@@@3@$0A@@std@@@std@@@2@@Z
_TEXT	SEGMENT
_this$ = -4						; size = 4
___$ReturnUdt$ = 8					; size = 4
__Where$ = 12						; size = 4
?erase@?$_Tree@V?$_Tmap_traits@KPAVioEtcItem@@U?$less@K@std@@V?$allocator@U?$pair@$$CBKPAVioEtcItem@@@std@@@3@$0A@@std@@@std@@QAE?AV?$_Tree_iterator@V?$_Tree_val@V?$_Tmap_traits@KPAVioEtcItem@@U?$less@K@std@@V?$allocator@U?$pair@$$CBKPAVioEtcItem@@@std@@@3@$0A@@std@@@std@@@2@V?$_Tree_const_iterator@V?$_Tree_val@V?$_Tmap_traits@KPAVioEtcItem@@U?$less@K@std@@V?$allocator@U?$pair@$$CBKPAVioEtcItem@@@std@@@3@$0A@@std@@@std@@@2@@Z PROC ; std::_Tree<std::_Tmap_traits<unsigned long,ioEtcItem *,std::less<unsigned long>,std::allocator<std::pair<unsigned long const ,ioEtcItem *> >,0> >::erase, COMDAT
; _this$ = ecx

; 1195 : 		{	// erase element at _Where

  00000	55		 push	 ebp
  00001	8b ec		 mov	 ebp, esp
  00003	51		 push	 ecx
  00004	53		 push	 ebx

; 1196 :  #if _ITERATOR_DEBUG_LEVEL == 2
; 1197 : 		if (_Where._Getcont() != this || this->_Isnil(_Where._Mynode()))
; 1198 : 			_DEBUG_ERROR("map/set erase iterator outside range");
; 1199 : 		_Nodeptr _Erasednode = _Where._Mynode();	// node to erase
; 1200 : 		++_Where;	// save successor iterator for return
; 1201 : 		_Orphan_ptr(*this, _Erasednode);
; 1202 : 
; 1203 :  #else /* _ITERATOR_DEBUG_LEVEL == 2 */
; 1204 : 		if (this->_Isnil(_Where._Mynode()))

  00005	8b 5d 0c	 mov	 ebx, DWORD PTR __Where$[ebp]
  00008	80 7b 15 00	 cmp	 BYTE PTR [ebx+21], 0
  0000c	56		 push	 esi
  0000d	57		 push	 edi
  0000e	89 4d fc	 mov	 DWORD PTR _this$[ebp], ecx
  00011	74 0b		 je	 SHORT $LN40@erase

; 1205 : 			_Xout_of_range("invalid map/set<T> iterator");

  00013	68 00 00 00 00	 push	 OFFSET ??_C@_0BM@PAPJHAGI@invalid?5map?1set?$DMT?$DO?5iterator?$AA@
  00018	ff 15 00 00 00
	00		 call	 DWORD PTR __imp_?_Xout_of_range@std@@YAXPBD@Z
$LN329@erase:
$LN40@erase:

; 1206 : 		_Nodeptr _Erasednode = _Where._Mynode();	// node to erase
; 1207 : 		++_Where;	// save successor iterator for return

  0001e	8d 4d 0c	 lea	 ecx, DWORD PTR __Where$[ebp]
  00021	e8 00 00 00 00	 call	 ??E?$_Tree_unchecked_const_iterator@V?$_Tree_val@V?$_Tmap_traits@KPAVioEtcItem@@U?$less@K@std@@V?$allocator@U?$pair@$$CBKPAVioEtcItem@@@std@@@3@$0A@@std@@@std@@U_Iterator_base0@2@@std@@QAEAAV01@XZ ; std::_Tree_unchecked_const_iterator<std::_Tree_val<std::_Tmap_traits<unsigned long,ioEtcItem *,std::less<unsigned long>,std::allocator<std::pair<unsigned long const ,ioEtcItem *> >,0> >,std::_Iterator_base0>::operator++

; 1208 :  #endif /* _ITERATOR_DEBUG_LEVEL == 2 */
; 1209 : 
; 1210 : 		_Nodeptr _Fixnode;	// the node to recolor as needed
; 1211 : 		_Nodeptr _Fixnodeparent;	// parent of _Fixnode (which may be nil)
; 1212 : 		_Nodeptr _Pnode = _Erasednode;
; 1213 : 
; 1214 : 		if (this->_Isnil(this->_Left(_Pnode)))

  00026	8b 13		 mov	 edx, DWORD PTR [ebx]
  00028	80 7a 15 00	 cmp	 BYTE PTR [edx+21], 0
  0002c	74 05		 je	 SHORT $LN39@erase

; 1215 : 			_Fixnode = this->_Right(_Pnode);	// stitch up right subtree

  0002e	8b 7b 08	 mov	 edi, DWORD PTR [ebx+8]

; 1216 : 		else if (this->_Isnil(this->_Right(_Pnode)))

  00031	eb 17		 jmp	 SHORT $LN321@erase
$LN39@erase:
  00033	8b 43 08	 mov	 eax, DWORD PTR [ebx+8]
  00036	80 78 15 00	 cmp	 BYTE PTR [eax+21], 0
  0003a	74 04		 je	 SHORT $LN37@erase

; 1217 : 			_Fixnode = this->_Left(_Pnode);	// stitch up left subtree

  0003c	8b fa		 mov	 edi, edx

; 1218 : 		else

  0003e	eb 0a		 jmp	 SHORT $LN321@erase
$LN37@erase:

; 1219 : 			{	// two subtrees, must lift successor node to replace erased
; 1220 : 			_Pnode = _Where._Mynode();	// _Pnode is successor node

  00040	8b 45 0c	 mov	 eax, DWORD PTR __Where$[ebp]

; 1221 : 			_Fixnode = this->_Right(_Pnode);	// _Fixnode is only subtree

  00043	8b 78 08	 mov	 edi, DWORD PTR [eax+8]

; 1222 : 			}
; 1223 : 
; 1224 : 		if (_Pnode == _Erasednode)

  00046	3b c3		 cmp	 eax, ebx
  00048	75 76		 jne	 SHORT $LN35@erase
$LN321@erase:

; 1225 : 			{	// at most one subtree, relink it
; 1226 : 			_Fixnodeparent = this->_Parent(_Erasednode);
; 1227 : 			if (!this->_Isnil(_Fixnode))

  0004a	80 7f 15 00	 cmp	 BYTE PTR [edi+21], 0
  0004e	8b 73 04	 mov	 esi, DWORD PTR [ebx+4]
  00051	75 03		 jne	 SHORT $LN34@erase

; 1228 : 				this->_Parent(_Fixnode) = _Fixnodeparent;	// link up

  00053	89 77 04	 mov	 DWORD PTR [edi+4], esi
$LN34@erase:

; 1229 : 
; 1230 : 			if (_Root() == _Erasednode)

  00056	8b 4d fc	 mov	 ecx, DWORD PTR _this$[ebp]
  00059	8b 41 04	 mov	 eax, DWORD PTR [ecx+4]
  0005c	39 58 04	 cmp	 DWORD PTR [eax+4], ebx
  0005f	75 05		 jne	 SHORT $LN33@erase

; 1231 : 				_Root() = _Fixnode;	// link down from root

  00061	89 78 04	 mov	 DWORD PTR [eax+4], edi

; 1232 : 			else if (this->_Left(_Fixnodeparent) == _Erasednode)

  00064	eb 0b		 jmp	 SHORT $LN30@erase
$LN33@erase:
  00066	39 1e		 cmp	 DWORD PTR [esi], ebx
  00068	75 04		 jne	 SHORT $LN31@erase

; 1233 : 				this->_Left(_Fixnodeparent) = _Fixnode;	// link down to left

  0006a	89 3e		 mov	 DWORD PTR [esi], edi

; 1234 : 			else

  0006c	eb 03		 jmp	 SHORT $LN30@erase
$LN31@erase:

; 1235 : 				this->_Right(_Fixnodeparent) =
; 1236 : 					_Fixnode;	// link down to right

  0006e	89 7e 08	 mov	 DWORD PTR [esi+8], edi
$LN30@erase:

; 1237 : 
; 1238 : 			if (_Lmost() == _Erasednode)

  00071	8b 49 04	 mov	 ecx, DWORD PTR [ecx+4]
  00074	39 19		 cmp	 DWORD PTR [ecx], ebx
  00076	75 1c		 jne	 SHORT $LN29@erase

; 1239 : 				_Lmost() = this->_Isnil(_Fixnode)
; 1240 : 					? _Fixnodeparent	// smallest is parent of erased node
; 1241 : 					: this->_Min(_Fixnode);	// smallest in relinked subtree

  00078	80 7f 15 00	 cmp	 BYTE PTR [edi+21], 0
  0007c	74 04		 je	 SHORT $LN43@erase
  0007e	8b d6		 mov	 edx, esi
  00080	eb 10		 jmp	 SHORT $LN97@erase
$LN43@erase:
  00082	8b 07		 mov	 eax, DWORD PTR [edi]
  00084	8b d7		 mov	 edx, edi
  00086	eb 04		 jmp	 SHORT $LN323@erase
$LL98@erase:
  00088	8b d0		 mov	 edx, eax
  0008a	8b 02		 mov	 eax, DWORD PTR [edx]
$LN323@erase:
  0008c	80 78 15 00	 cmp	 BYTE PTR [eax+21], 0
  00090	74 f6		 je	 SHORT $LL98@erase
$LN97@erase:
  00092	89 11		 mov	 DWORD PTR [ecx], edx
$LN29@erase:

; 1242 : 
; 1243 : 			if (_Rmost() == _Erasednode)

  00094	8b 45 fc	 mov	 eax, DWORD PTR _this$[ebp]
  00097	8b 48 04	 mov	 ecx, DWORD PTR [eax+4]
  0009a	39 59 08	 cmp	 DWORD PTR [ecx+8], ebx
  0009d	75 7b		 jne	 SHORT $LN185@erase

; 1244 : 				_Rmost() = this->_Isnil(_Fixnode)
; 1245 : 					? _Fixnodeparent	// largest is parent of erased node
; 1246 : 					: this->_Max(_Fixnode);	// largest in relinked subtree

  0009f	80 7f 15 00	 cmp	 BYTE PTR [edi+21], 0
  000a3	74 04		 je	 SHORT $LN45@erase
  000a5	8b d6		 mov	 edx, esi
  000a7	eb 12		 jmp	 SHORT $LN117@erase
$LN45@erase:
  000a9	8b 47 08	 mov	 eax, DWORD PTR [edi+8]
  000ac	8b d7		 mov	 edx, edi
  000ae	eb 05		 jmp	 SHORT $LN324@erase
$LL118@erase:
  000b0	8b d0		 mov	 edx, eax
  000b2	8b 42 08	 mov	 eax, DWORD PTR [edx+8]
$LN324@erase:
  000b5	80 78 15 00	 cmp	 BYTE PTR [eax+21], 0
  000b9	74 f5		 je	 SHORT $LL118@erase
$LN117@erase:
  000bb	89 51 08	 mov	 DWORD PTR [ecx+8], edx

; 1247 : 			}
; 1248 : 		else

  000be	eb 5a		 jmp	 SHORT $LN185@erase
$LN35@erase:

; 1249 : 			{	// erased has two subtrees, _Pnode is successor to erased
; 1250 : 			this->_Parent(this->_Left(_Erasednode)) =
; 1251 : 				_Pnode;	// link left up

  000c0	89 42 04	 mov	 DWORD PTR [edx+4], eax

; 1252 : 			this->_Left(_Pnode) =
; 1253 : 				this->_Left(_Erasednode);	// link successor down

  000c3	8b 13		 mov	 edx, DWORD PTR [ebx]
  000c5	89 10		 mov	 DWORD PTR [eax], edx

; 1254 : 
; 1255 : 			if (_Pnode == this->_Right(_Erasednode))

  000c7	3b 43 08	 cmp	 eax, DWORD PTR [ebx+8]
  000ca	75 04		 jne	 SHORT $LN26@erase

; 1256 : 				_Fixnodeparent = _Pnode;	// successor is next to erased

  000cc	8b f0		 mov	 esi, eax

; 1257 : 			else

  000ce	eb 1a		 jmp	 SHORT $LN25@erase
$LN26@erase:

; 1258 : 				{	// successor further down, link in place of erased
; 1259 : 				_Fixnodeparent =
; 1260 : 					this->_Parent(_Pnode);	// parent is successor's
; 1261 : 				if (!this->_Isnil(_Fixnode))

  000d0	80 7f 15 00	 cmp	 BYTE PTR [edi+21], 0
  000d4	8b 70 04	 mov	 esi, DWORD PTR [eax+4]
  000d7	75 03		 jne	 SHORT $LN24@erase

; 1262 : 					this->_Parent(_Fixnode) = _Fixnodeparent;	// link fix up

  000d9	89 77 04	 mov	 DWORD PTR [edi+4], esi
$LN24@erase:

; 1263 : 				this->_Left(_Fixnodeparent) = _Fixnode;	// link fix down

  000dc	89 3e		 mov	 DWORD PTR [esi], edi

; 1264 : 				this->_Right(_Pnode) =
; 1265 : 					this->_Right(_Erasednode);	// link next down

  000de	8b 53 08	 mov	 edx, DWORD PTR [ebx+8]
  000e1	89 50 08	 mov	 DWORD PTR [eax+8], edx

; 1266 : 				this->_Parent(this->_Right(_Erasednode)) =
; 1267 : 					_Pnode;	// right up

  000e4	8b 4b 08	 mov	 ecx, DWORD PTR [ebx+8]
  000e7	89 41 04	 mov	 DWORD PTR [ecx+4], eax
$LN25@erase:

; 1268 : 				}
; 1269 : 
; 1270 : 			if (_Root() == _Erasednode)

  000ea	8b 4d fc	 mov	 ecx, DWORD PTR _this$[ebp]
  000ed	8b 49 04	 mov	 ecx, DWORD PTR [ecx+4]
  000f0	39 59 04	 cmp	 DWORD PTR [ecx+4], ebx
  000f3	75 05		 jne	 SHORT $LN23@erase

; 1271 : 				_Root() = _Pnode;	// link down from root

  000f5	89 41 04	 mov	 DWORD PTR [ecx+4], eax

; 1272 : 			else if (this->_Left(this->_Parent(_Erasednode)) == _Erasednode)

  000f8	eb 0e		 jmp	 SHORT $LN20@erase
$LN23@erase:
  000fa	8b 4b 04	 mov	 ecx, DWORD PTR [ebx+4]
  000fd	39 19		 cmp	 DWORD PTR [ecx], ebx
  000ff	75 04		 jne	 SHORT $LN21@erase

; 1273 : 				this->_Left(this->_Parent(_Erasednode)) =
; 1274 : 					_Pnode;	// link down to left

  00101	89 01		 mov	 DWORD PTR [ecx], eax

; 1275 : 			else

  00103	eb 03		 jmp	 SHORT $LN20@erase
$LN21@erase:

; 1276 : 				this->_Right(this->_Parent(_Erasednode)) =
; 1277 : 					_Pnode;	// link down to right

  00105	89 41 08	 mov	 DWORD PTR [ecx+8], eax
$LN20@erase:

; 1278 : 
; 1279 : 			this->_Parent(_Pnode) =
; 1280 : 				this->_Parent(_Erasednode);	// link successor up

  00108	8b 4b 04	 mov	 ecx, DWORD PTR [ebx+4]
  0010b	89 48 04	 mov	 DWORD PTR [eax+4], ecx

; 1281 : 			_STD swap(this->_Color(_Pnode),
; 1282 : 				this->_Color(_Erasednode));	// recolor it

  0010e	8a 53 14	 mov	 dl, BYTE PTR [ebx+20]
  00111	8a 48 14	 mov	 cl, BYTE PTR [eax+20]
  00114	88 50 14	 mov	 BYTE PTR [eax+20], dl
  00117	88 4b 14	 mov	 BYTE PTR [ebx+20], cl
$LN185@erase:

; 1283 : 			}
; 1284 : 
; 1285 : 		if (this->_Color(_Erasednode) == this->_Black)

  0011a	80 7b 14 01	 cmp	 BYTE PTR [ebx+20], 1
  0011e	0f 85 03 01 00
	00		 jne	 $LN19@erase

; 1286 : 			{	// erasing black link, must recolor/rebalance tree
; 1287 : 			for (; _Fixnode != _Root()
; 1288 : 				&& this->_Color(_Fixnode) == this->_Black;
; 1289 : 				_Fixnodeparent = this->_Parent(_Fixnode))

  00124	e9 b2 00 00 00	 jmp	 $LN326@erase
$LL18@erase:
  00129	80 7f 14 01	 cmp	 BYTE PTR [edi+20], 1
  0012d	0f 85 f0 00 00
	00		 jne	 $LN16@erase

; 1290 : 				if (_Fixnode == this->_Left(_Fixnodeparent))

  00133	8b 06		 mov	 eax, DWORD PTR [esi]
  00135	3b f8		 cmp	 edi, eax
  00137	75 6c		 jne	 SHORT $LN15@erase

; 1291 : 					{	// fixup left subtree
; 1292 : 					_Pnode = this->_Right(_Fixnodeparent);

  00139	8b 46 08	 mov	 eax, DWORD PTR [esi+8]

; 1293 : 					if (this->_Color(_Pnode) == this->_Red)

  0013c	80 78 14 00	 cmp	 BYTE PTR [eax+20], 0
  00140	75 11		 jne	 SHORT $LN14@erase

; 1294 : 						{	// rotate red up from right subtree
; 1295 : 						this->_Color(_Pnode) = this->_Black;

  00142	c6 40 14 01	 mov	 BYTE PTR [eax+20], 1

; 1296 : 						this->_Color(_Fixnodeparent) = this->_Red;
; 1297 : 						_Lrotate(_Fixnodeparent);

  00146	56		 push	 esi
  00147	c6 46 14 00	 mov	 BYTE PTR [esi+20], 0
  0014b	e8 00 00 00 00	 call	 ?_Lrotate@?$_Tree@V?$_Tmap_traits@KPAVioEtcItem@@U?$less@K@std@@V?$allocator@U?$pair@$$CBKPAVioEtcItem@@@std@@@3@$0A@@std@@@std@@IAEXPAU_Node@?$_Tree_nod@V?$_Tmap_traits@KPAVioEtcItem@@U?$less@K@std@@V?$allocator@U?$pair@$$CBKPAVioEtcItem@@@std@@@3@$0A@@std@@@2@@Z ; std::_Tree<std::_Tmap_traits<unsigned long,ioEtcItem *,std::less<unsigned long>,std::allocator<std::pair<unsigned long const ,ioEtcItem *> >,0> >::_Lrotate

; 1298 : 						_Pnode = this->_Right(_Fixnodeparent);

  00150	8b 46 08	 mov	 eax, DWORD PTR [esi+8]
$LN14@erase:

; 1299 : 						}
; 1300 : 
; 1301 : 					if (this->_Isnil(_Pnode))

  00153	80 78 15 00	 cmp	 BYTE PTR [eax+21], 0

; 1302 : 						_Fixnode = _Fixnodeparent;	// shouldn't happen
; 1303 : 					else if (this->_Color(this->_Left(_Pnode)) == this->_Black

  00157	75 7d		 jne	 SHORT $LN327@erase

; 1304 : 						&& this->_Color(this->_Right(_Pnode)) == this->_Black)

  00159	8b 08		 mov	 ecx, DWORD PTR [eax]
  0015b	80 79 14 01	 cmp	 BYTE PTR [ecx+20], 1
  0015f	75 09		 jne	 SHORT $LN11@erase
  00161	8b 48 08	 mov	 ecx, DWORD PTR [eax+8]
  00164	80 79 14 01	 cmp	 BYTE PTR [ecx+20], 1
  00168	74 68		 je	 SHORT $LN328@erase
$LN11@erase:

; 1305 : 						{	// redden right subtree with black children
; 1306 : 						this->_Color(_Pnode) = this->_Red;
; 1307 : 						_Fixnode = _Fixnodeparent;
; 1308 : 						}
; 1309 : 					else
; 1310 : 						{	// must rearrange right subtree
; 1311 : 						if (this->_Color(this->_Right(_Pnode))
; 1312 : 							== this->_Black)

  0016a	8b 48 08	 mov	 ecx, DWORD PTR [eax+8]
  0016d	80 79 14 01	 cmp	 BYTE PTR [ecx+20], 1
  00171	75 16		 jne	 SHORT $LN9@erase

; 1313 : 							{	// rotate red up from left sub-subtree
; 1314 : 							this->_Color(this->_Left(_Pnode)) = this->_Black;

  00173	8b 08		 mov	 ecx, DWORD PTR [eax]
  00175	c6 41 14 01	 mov	 BYTE PTR [ecx+20], 1

; 1315 : 							this->_Color(_Pnode) = this->_Red;
; 1316 : 							_Rrotate(_Pnode);

  00179	8b 4d fc	 mov	 ecx, DWORD PTR _this$[ebp]
  0017c	50		 push	 eax
  0017d	c6 40 14 00	 mov	 BYTE PTR [eax+20], 0
  00181	e8 00 00 00 00	 call	 ?_Rrotate@?$_Tree@V?$_Tmap_traits@KPAVioEtcItem@@U?$less@K@std@@V?$allocator@U?$pair@$$CBKPAVioEtcItem@@@std@@@3@$0A@@std@@@std@@IAEXPAU_Node@?$_Tree_nod@V?$_Tmap_traits@KPAVioEtcItem@@U?$less@K@std@@V?$allocator@U?$pair@$$CBKPAVioEtcItem@@@std@@@3@$0A@@std@@@2@@Z ; std::_Tree<std::_Tmap_traits<unsigned long,ioEtcItem *,std::less<unsigned long>,std::allocator<std::pair<unsigned long const ,ioEtcItem *> >,0> >::_Rrotate

; 1317 : 							_Pnode = this->_Right(_Fixnodeparent);

  00186	8b 46 08	 mov	 eax, DWORD PTR [esi+8]
$LN9@erase:

; 1318 : 							}
; 1319 : 
; 1320 : 						this->_Color(_Pnode) = this->_Color(_Fixnodeparent);

  00189	8a 4e 14	 mov	 cl, BYTE PTR [esi+20]
  0018c	88 48 14	 mov	 BYTE PTR [eax+20], cl

; 1321 : 						this->_Color(_Fixnodeparent) = this->_Black;
; 1322 : 						this->_Color(this->_Right(_Pnode)) = this->_Black;
; 1323 : 						_Lrotate(_Fixnodeparent);

  0018f	8b 4d fc	 mov	 ecx, DWORD PTR _this$[ebp]
  00192	c6 46 14 01	 mov	 BYTE PTR [esi+20], 1
  00196	8b 40 08	 mov	 eax, DWORD PTR [eax+8]
  00199	56		 push	 esi
  0019a	c6 40 14 01	 mov	 BYTE PTR [eax+20], 1
  0019e	e8 00 00 00 00	 call	 ?_Lrotate@?$_Tree@V?$_Tmap_traits@KPAVioEtcItem@@U?$less@K@std@@V?$allocator@U?$pair@$$CBKPAVioEtcItem@@@std@@@3@$0A@@std@@@std@@IAEXPAU_Node@?$_Tree_nod@V?$_Tmap_traits@KPAVioEtcItem@@U?$less@K@std@@V?$allocator@U?$pair@$$CBKPAVioEtcItem@@@std@@@3@$0A@@std@@@2@@Z ; std::_Tree<std::_Tmap_traits<unsigned long,ioEtcItem *,std::less<unsigned long>,std::allocator<std::pair<unsigned long const ,ioEtcItem *> >,0> >::_Lrotate

; 1324 : 						break;	// tree now recolored/rebalanced

  001a3	eb 7e		 jmp	 SHORT $LN16@erase
$LN15@erase:

; 1325 : 						}
; 1326 : 					}
; 1327 : 				else
; 1328 : 					{	// fixup right subtree
; 1329 : 					_Pnode = this->_Left(_Fixnodeparent);
; 1330 : 					if (this->_Color(_Pnode) == this->_Red)

  001a5	80 78 14 00	 cmp	 BYTE PTR [eax+20], 0
  001a9	75 10		 jne	 SHORT $LN7@erase

; 1331 : 						{	// rotate red up from left subtree
; 1332 : 						this->_Color(_Pnode) = this->_Black;

  001ab	c6 40 14 01	 mov	 BYTE PTR [eax+20], 1

; 1333 : 						this->_Color(_Fixnodeparent) = this->_Red;
; 1334 : 						_Rrotate(_Fixnodeparent);

  001af	56		 push	 esi
  001b0	c6 46 14 00	 mov	 BYTE PTR [esi+20], 0
  001b4	e8 00 00 00 00	 call	 ?_Rrotate@?$_Tree@V?$_Tmap_traits@KPAVioEtcItem@@U?$less@K@std@@V?$allocator@U?$pair@$$CBKPAVioEtcItem@@@std@@@3@$0A@@std@@@std@@IAEXPAU_Node@?$_Tree_nod@V?$_Tmap_traits@KPAVioEtcItem@@U?$less@K@std@@V?$allocator@U?$pair@$$CBKPAVioEtcItem@@@std@@@3@$0A@@std@@@2@@Z ; std::_Tree<std::_Tmap_traits<unsigned long,ioEtcItem *,std::less<unsigned long>,std::allocator<std::pair<unsigned long const ,ioEtcItem *> >,0> >::_Rrotate

; 1335 : 						_Pnode = this->_Left(_Fixnodeparent);

  001b9	8b 06		 mov	 eax, DWORD PTR [esi]
$LN7@erase:

; 1336 : 						}
; 1337 : 					if (this->_Isnil(_Pnode))

  001bb	80 78 15 00	 cmp	 BYTE PTR [eax+21], 0

; 1338 : 						_Fixnode = _Fixnodeparent;	// shouldn't happen
; 1339 : 					else if (this->_Color(this->_Right(_Pnode)) ==

  001bf	75 15		 jne	 SHORT $LN327@erase

; 1340 : 						this->_Black
; 1341 : 						&& this->_Color(this->_Left(_Pnode)) == this->_Black)

  001c1	8b 48 08	 mov	 ecx, DWORD PTR [eax+8]
  001c4	80 79 14 01	 cmp	 BYTE PTR [ecx+20], 1
  001c8	75 22		 jne	 SHORT $LN4@erase
  001ca	8b 08		 mov	 ecx, DWORD PTR [eax]
  001cc	80 79 14 01	 cmp	 BYTE PTR [ecx+20], 1
  001d0	75 1a		 jne	 SHORT $LN4@erase
$LN328@erase:

; 1342 : 						{	// redden left subtree with black children
; 1343 : 						this->_Color(_Pnode) = this->_Red;

  001d2	c6 40 14 00	 mov	 BYTE PTR [eax+20], 0
$LN327@erase:

; 1344 : 						_Fixnode = _Fixnodeparent;

  001d6	8b fe		 mov	 edi, esi
  001d8	8b 76 04	 mov	 esi, DWORD PTR [esi+4]
$LN326@erase:

; 1286 : 			{	// erasing black link, must recolor/rebalance tree
; 1287 : 			for (; _Fixnode != _Root()
; 1288 : 				&& this->_Color(_Fixnode) == this->_Black;
; 1289 : 				_Fixnodeparent = this->_Parent(_Fixnode))

  001db	8b 4d fc	 mov	 ecx, DWORD PTR _this$[ebp]
  001de	8b 41 04	 mov	 eax, DWORD PTR [ecx+4]
  001e1	3b 78 04	 cmp	 edi, DWORD PTR [eax+4]
  001e4	0f 85 3f ff ff
	ff		 jne	 $LL18@erase
  001ea	eb 37		 jmp	 SHORT $LN16@erase
$LN4@erase:

; 1345 : 						}
; 1346 : 					else
; 1347 : 						{	// must rearrange left subtree
; 1348 : 						if (this->_Color(this->_Left(_Pnode)) == this->_Black)

  001ec	8b 08		 mov	 ecx, DWORD PTR [eax]
  001ee	80 79 14 01	 cmp	 BYTE PTR [ecx+20], 1
  001f2	75 16		 jne	 SHORT $LN2@erase

; 1349 : 							{	// rotate red up from right sub-subtree
; 1350 : 							this->_Color(this->_Right(_Pnode)) = this->_Black;

  001f4	8b 48 08	 mov	 ecx, DWORD PTR [eax+8]
  001f7	c6 41 14 01	 mov	 BYTE PTR [ecx+20], 1

; 1351 : 							this->_Color(_Pnode) = this->_Red;
; 1352 : 							_Lrotate(_Pnode);

  001fb	8b 4d fc	 mov	 ecx, DWORD PTR _this$[ebp]
  001fe	50		 push	 eax
  001ff	c6 40 14 00	 mov	 BYTE PTR [eax+20], 0
  00203	e8 00 00 00 00	 call	 ?_Lrotate@?$_Tree@V?$_Tmap_traits@KPAVioEtcItem@@U?$less@K@std@@V?$allocator@U?$pair@$$CBKPAVioEtcItem@@@std@@@3@$0A@@std@@@std@@IAEXPAU_Node@?$_Tree_nod@V?$_Tmap_traits@KPAVioEtcItem@@U?$less@K@std@@V?$allocator@U?$pair@$$CBKPAVioEtcItem@@@std@@@3@$0A@@std@@@2@@Z ; std::_Tree<std::_Tmap_traits<unsigned long,ioEtcItem *,std::less<unsigned long>,std::allocator<std::pair<unsigned long const ,ioEtcItem *> >,0> >::_Lrotate

; 1353 : 							_Pnode = this->_Left(_Fixnodeparent);

  00208	8b 06		 mov	 eax, DWORD PTR [esi]
$LN2@erase:

; 1354 : 							}
; 1355 : 
; 1356 : 						this->_Color(_Pnode) = this->_Color(_Fixnodeparent);

  0020a	8a 4e 14	 mov	 cl, BYTE PTR [esi+20]
  0020d	88 48 14	 mov	 BYTE PTR [eax+20], cl

; 1357 : 						this->_Color(_Fixnodeparent) = this->_Black;
; 1358 : 						this->_Color(this->_Left(_Pnode)) = this->_Black;
; 1359 : 						_Rrotate(_Fixnodeparent);

  00210	8b 4d fc	 mov	 ecx, DWORD PTR _this$[ebp]
  00213	c6 46 14 01	 mov	 BYTE PTR [esi+20], 1
  00217	8b 00		 mov	 eax, DWORD PTR [eax]
  00219	56		 push	 esi
  0021a	c6 40 14 01	 mov	 BYTE PTR [eax+20], 1
  0021e	e8 00 00 00 00	 call	 ?_Rrotate@?$_Tree@V?$_Tmap_traits@KPAVioEtcItem@@U?$less@K@std@@V?$allocator@U?$pair@$$CBKPAVioEtcItem@@@std@@@3@$0A@@std@@@std@@IAEXPAU_Node@?$_Tree_nod@V?$_Tmap_traits@KPAVioEtcItem@@U?$less@K@std@@V?$allocator@U?$pair@$$CBKPAVioEtcItem@@@std@@@3@$0A@@std@@@2@@Z ; std::_Tree<std::_Tmap_traits<unsigned long,ioEtcItem *,std::less<unsigned long>,std::allocator<std::pair<unsigned long const ,ioEtcItem *> >,0> >::_Rrotate
$LN16@erase:

; 1360 : 						break;	// tree now recolored/rebalanced
; 1361 : 						}
; 1362 : 					}
; 1363 : 
; 1364 : 			this->_Color(_Fixnode) = this->_Black;	// stopping node is black

  00223	c6 47 14 01	 mov	 BYTE PTR [edi+20], 1
$LN19@erase:

; 1365 : 			}
; 1366 : 
; 1367 : 		_Dest_val(this->_Alval,
; 1368 : 			_STD addressof(this->_Myval(_Erasednode)));	// delete erased node
; 1369 : 
; 1370 : 		this->_Alnod.deallocate(_Erasednode, 1);

  00227	53		 push	 ebx
  00228	e8 00 00 00 00	 call	 ??3@YAXPAX@Z		; operator delete
  0022d	59		 pop	 ecx

; 1371 : 
; 1372 : 		if (0 < this->_Mysize)

  0022e	8b 4d fc	 mov	 ecx, DWORD PTR _this$[ebp]
  00231	8b 41 08	 mov	 eax, DWORD PTR [ecx+8]
  00234	5f		 pop	 edi
  00235	5e		 pop	 esi
  00236	5b		 pop	 ebx
  00237	85 c0		 test	 eax, eax
  00239	74 04		 je	 SHORT $LN1@erase

; 1373 : 			--this->_Mysize;

  0023b	48		 dec	 eax
  0023c	89 41 08	 mov	 DWORD PTR [ecx+8], eax
$LN1@erase:

; 1374 : 
; 1375 : 		return (iterator(_Where._Ptr, this));	// return successor iterator

  0023f	8b 45 08	 mov	 eax, DWORD PTR ___$ReturnUdt$[ebp]
  00242	8b 4d 0c	 mov	 ecx, DWORD PTR __Where$[ebp]
  00245	89 08		 mov	 DWORD PTR [eax], ecx

; 1376 : 		}

  00247	c9		 leave
  00248	c2 08 00	 ret	 8
$LN322@erase:
?erase@?$_Tree@V?$_Tmap_traits@KPAVioEtcItem@@U?$less@K@std@@V?$allocator@U?$pair@$$CBKPAVioEtcItem@@@std@@@3@$0A@@std@@@std@@QAE?AV?$_Tree_iterator@V?$_Tree_val@V?$_Tmap_traits@KPAVioEtcItem@@U?$less@K@std@@V?$allocator@U?$pair@$$CBKPAVioEtcItem@@@std@@@3@$0A@@std@@@std@@@2@V?$_Tree_const_iterator@V?$_Tree_val@V?$_Tmap_traits@KPAVioEtcItem@@U?$less@K@std@@V?$allocator@U?$pair@$$CBKPAVioEtcItem@@@std@@@3@$0A@@std@@@std@@@2@@Z ENDP ; std::_Tree<std::_Tmap_traits<unsigned long,ioEtcItem *,std::less<unsigned long>,std::allocator<std::pair<unsigned long const ,ioEtcItem *> >,0> >::erase
_TEXT	ENDS
PUBLIC	??$advance@V?$_Tree_const_iterator@V?$_Tree_val@V?$_Tmap_traits@KPAVioEtcItem@@U?$less@K@std@@V?$allocator@U?$pair@$$CBKPAVioEtcItem@@@std@@@3@$0A@@std@@@std@@@std@@H@std@@YAXAAV?$_Tree_const_iterator@V?$_Tree_val@V?$_Tmap_traits@KPAVioEtcItem@@U?$less@K@std@@V?$allocator@U?$pair@$$CBKPAVioEtcItem@@@std@@@3@$0A@@std@@@std@@@0@H@Z ; std::advance<std::_Tree_const_iterator<std::_Tree_val<std::_Tmap_traits<unsigned long,ioEtcItem *,std::less<unsigned long>,std::allocator<std::pair<unsigned long const ,ioEtcItem *> >,0> > >,int>
; Function compile flags: /Ogsp
; File c:\program files (x86)\microsoft visual studio 10.0\vc\include\xutility
;	COMDAT ??$advance@V?$_Tree_const_iterator@V?$_Tree_val@V?$_Tmap_traits@KPAVioEtcItem@@U?$less@K@std@@V?$allocator@U?$pair@$$CBKPAVioEtcItem@@@std@@@3@$0A@@std@@@std@@@std@@H@std@@YAXAAV?$_Tree_const_iterator@V?$_Tree_val@V?$_Tmap_traits@KPAVioEtcItem@@U?$less@K@std@@V?$allocator@U?$pair@$$CBKPAVioEtcItem@@@std@@@3@$0A@@std@@@std@@@0@H@Z
_TEXT	SEGMENT
$T512339 = -4						; size = 1
__Where$ = 8						; size = 4
__Off$ = 12						; size = 4
??$advance@V?$_Tree_const_iterator@V?$_Tree_val@V?$_Tmap_traits@KPAVioEtcItem@@U?$less@K@std@@V?$allocator@U?$pair@$$CBKPAVioEtcItem@@@std@@@3@$0A@@std@@@std@@@std@@H@std@@YAXAAV?$_Tree_const_iterator@V?$_Tree_val@V?$_Tmap_traits@KPAVioEtcItem@@U?$less@K@std@@V?$allocator@U?$pair@$$CBKPAVioEtcItem@@@std@@@3@$0A@@std@@@std@@@0@H@Z PROC ; std::advance<std::_Tree_const_iterator<std::_Tree_val<std::_Tmap_traits<unsigned long,ioEtcItem *,std::less<unsigned long>,std::allocator<std::pair<unsigned long const ,ioEtcItem *> >,0> > >,int>, COMDAT

; 797  : 	{	// increment iterator by offset, arbitrary iterators

  00000	55		 push	 ebp
  00001	8b ec		 mov	 ebp, esp
  00003	51		 push	 ecx

; 798  : 	_Advance(_Where, _Off, _Iter_cat(_Where));

  00004	ff 75 fc	 push	 DWORD PTR $T512339[ebp]
  00007	ff 75 0c	 push	 DWORD PTR __Off$[ebp]
  0000a	ff 75 08	 push	 DWORD PTR __Where$[ebp]
  0000d	e8 00 00 00 00	 call	 ??$_Advance@V?$_Tree_const_iterator@V?$_Tree_val@V?$_Tmap_traits@KPAVioEtcItem@@U?$less@K@std@@V?$allocator@U?$pair@$$CBKPAVioEtcItem@@@std@@@3@$0A@@std@@@std@@@std@@H@std@@YAXAAV?$_Tree_const_iterator@V?$_Tree_val@V?$_Tmap_traits@KPAVioEtcItem@@U?$less@K@std@@V?$allocator@U?$pair@$$CBKPAVioEtcItem@@@std@@@3@$0A@@std@@@std@@@0@HUbidirectional_iterator_tag@0@@Z ; std::_Advance<std::_Tree_const_iterator<std::_Tree_val<std::_Tmap_traits<unsigned long,ioEtcItem *,std::less<unsigned long>,std::allocator<std::pair<unsigned long const ,ioEtcItem *> >,0> > >,int>
  00012	83 c4 0c	 add	 esp, 12			; 0000000cH

; 799  : 	}

  00015	c9		 leave
  00016	c3		 ret	 0
??$advance@V?$_Tree_const_iterator@V?$_Tree_val@V?$_Tmap_traits@KPAVioEtcItem@@U?$less@K@std@@V?$allocator@U?$pair@$$CBKPAVioEtcItem@@@std@@@3@$0A@@std@@@std@@@std@@H@std@@YAXAAV?$_Tree_const_iterator@V?$_Tree_val@V?$_Tmap_traits@KPAVioEtcItem@@U?$less@K@std@@V?$allocator@U?$pair@$$CBKPAVioEtcItem@@@std@@@3@$0A@@std@@@std@@@0@H@Z ENDP ; std::advance<std::_Tree_const_iterator<std::_Tree_val<std::_Tmap_traits<unsigned long,ioEtcItem *,std::less<unsigned long>,std::allocator<std::pair<unsigned long const ,ioEtcItem *> >,0> > >,int>
_TEXT	ENDS
PUBLIC	?_Linsert@?$_Tree@V?$_Tmap_traits@KPAVioEtcItem@@U?$less@K@std@@V?$allocator@U?$pair@$$CBKPAVioEtcItem@@@std@@@3@$0A@@std@@@std@@QAE?AU?$pair@V?$_Tree_iterator@V?$_Tree_val@V?$_Tmap_traits@KPAVioEtcItem@@U?$less@K@std@@V?$allocator@U?$pair@$$CBKPAVioEtcItem@@@std@@@3@$0A@@std@@@std@@@std@@_N@2@PAU_Node@?$_Tree_nod@V?$_Tmap_traits@KPAVioEtcItem@@U?$less@K@std@@V?$allocator@U?$pair@$$CBKPAVioEtcItem@@@std@@@3@$0A@@std@@@2@_N@Z ; std::_Tree<std::_Tmap_traits<unsigned long,ioEtcItem *,std::less<unsigned long>,std::allocator<std::pair<unsigned long const ,ioEtcItem *> >,0> >::_Linsert
; Function compile flags: /Ogsp
; File c:\program files (x86)\microsoft visual studio 10.0\vc\include\xtree
;	COMDAT ?_Linsert@?$_Tree@V?$_Tmap_traits@KPAVioEtcItem@@U?$less@K@std@@V?$allocator@U?$pair@$$CBKPAVioEtcItem@@@std@@@3@$0A@@std@@@std@@QAE?AU?$pair@V?$_Tree_iterator@V?$_Tree_val@V?$_Tmap_traits@KPAVioEtcItem@@U?$less@K@std@@V?$allocator@U?$pair@$$CBKPAVioEtcItem@@@std@@@3@$0A@@std@@@std@@@std@@_N@2@PAU_Node@?$_Tree_nod@V?$_Tmap_traits@KPAVioEtcItem@@U?$less@K@std@@V?$allocator@U?$pair@$$CBKPAVioEtcItem@@@std@@@3@$0A@@std@@@2@_N@Z
_TEXT	SEGMENT
__Addleft$ = -4						; size = 1
___$ReturnUdt$ = 8					; size = 4
__Node$ = 12						; size = 4
$T512352 = 16						; size = 4
__Where$508073 = 16					; size = 4
__Leftish$ = 16						; size = 1
?_Linsert@?$_Tree@V?$_Tmap_traits@KPAVioEtcItem@@U?$less@K@std@@V?$allocator@U?$pair@$$CBKPAVioEtcItem@@@std@@@3@$0A@@std@@@std@@QAE?AU?$pair@V?$_Tree_iterator@V?$_Tree_val@V?$_Tmap_traits@KPAVioEtcItem@@U?$less@K@std@@V?$allocator@U?$pair@$$CBKPAVioEtcItem@@@std@@@3@$0A@@std@@@std@@@std@@_N@2@PAU_Node@?$_Tree_nod@V?$_Tmap_traits@KPAVioEtcItem@@U?$less@K@std@@V?$allocator@U?$pair@$$CBKPAVioEtcItem@@@std@@@3@$0A@@std@@@2@_N@Z PROC ; std::_Tree<std::_Tmap_traits<unsigned long,ioEtcItem *,std::less<unsigned long>,std::allocator<std::pair<unsigned long const ,ioEtcItem *> >,0> >::_Linsert, COMDAT
; _this$ = ecx

; 944  : 		{	// try to insert node at _Node, on left if _Leftish

  00000	55		 push	 ebp
  00001	8b ec		 mov	 ebp, esp
  00003	51		 push	 ecx
  00004	53		 push	 ebx
  00005	56		 push	 esi
  00006	8b f1		 mov	 esi, ecx

; 945  : 		const value_type& _Val = this->_Myval(_Node);
; 946  : 
; 947  : 		_Nodeptr _Trynode = _Root();

  00008	8b 4e 04	 mov	 ecx, DWORD PTR [esi+4]
  0000b	8b 41 04	 mov	 eax, DWORD PTR [ecx+4]

; 948  : 		_Nodeptr _Wherenode = this->_Myhead;
; 949  : 		bool _Addleft = true;	// add to left of head if tree empty
; 950  : 		while (!this->_Isnil(_Trynode))

  0000e	80 78 15 00	 cmp	 BYTE PTR [eax+21], 0
  00012	8b d9		 mov	 ebx, ecx
  00014	b1 01		 mov	 cl, 1
  00016	57		 push	 edi
  00017	88 4d fc	 mov	 BYTE PTR __Addleft$[ebp], cl
  0001a	75 31		 jne	 SHORT $LN151@Linsert
  0001c	8b 4d 0c	 mov	 ecx, DWORD PTR __Node$[ebp]
  0001f	8b 51 0c	 mov	 edx, DWORD PTR [ecx+12]
$LL12@Linsert:

; 951  : 			{	// look for leaf to insert before (_Addleft) or after
; 952  : 			_Wherenode = _Trynode;
; 953  : 			if (_Leftish)

  00022	80 7d 10 00	 cmp	 BYTE PTR __Leftish$[ebp], 0
  00026	8b d8		 mov	 ebx, eax
  00028	74 09		 je	 SHORT $LN10@Linsert

; 954  : 				_Addleft = !_DEBUG_LT_PRED(this->comp,

  0002a	39 50 0c	 cmp	 DWORD PTR [eax+12], edx
  0002d	1a c9		 sbb	 cl, cl
  0002f	fe c1		 inc	 cl

; 955  : 					this->_Key(_Trynode),
; 956  : 					this->_Kfn(_Val));	// favor left end
; 957  : 			else

  00031	eb 06		 jmp	 SHORT $LN152@Linsert
$LN10@Linsert:

; 958  : 				_Addleft = _DEBUG_LT_PRED(this->comp,

  00033	3b 50 0c	 cmp	 edx, DWORD PTR [eax+12]
  00036	0f 92 c1	 setb	 cl
$LN152@Linsert:
  00039	88 4d fc	 mov	 BYTE PTR __Addleft$[ebp], cl

; 959  : 					this->_Kfn(_Val),
; 960  : 					this->_Key(_Trynode));	// favor right end
; 961  : 			_Trynode = _Addleft ? this->_Left(_Trynode)
; 962  : 				: this->_Right(_Trynode);

  0003c	84 c9		 test	 cl, cl
  0003e	74 04		 je	 SHORT $LN15@Linsert
  00040	8b 00		 mov	 eax, DWORD PTR [eax]
  00042	eb 03		 jmp	 SHORT $LN16@Linsert
$LN15@Linsert:
  00044	8b 40 08	 mov	 eax, DWORD PTR [eax+8]
$LN16@Linsert:

; 948  : 		_Nodeptr _Wherenode = this->_Myhead;
; 949  : 		bool _Addleft = true;	// add to left of head if tree empty
; 950  : 		while (!this->_Isnil(_Trynode))

  00047	80 78 15 00	 cmp	 BYTE PTR [eax+21], 0
  0004b	74 d5		 je	 SHORT $LL12@Linsert
$LN151@Linsert:

; 963  : 			}
; 964  : 
; 965  : 		if (this->_Multi)
; 966  : 			return (_Pairib(_Insert(_Addleft, _Wherenode, _Node), true));
; 967  : 		else
; 968  : 			{	// insert only if unique
; 969  : 			iterator _Where = iterator(_Wherenode, this);

  0004d	8b fb		 mov	 edi, ebx
  0004f	89 7d 10	 mov	 DWORD PTR __Where$508073[ebp], edi

; 970  : 			if (!_Addleft)

  00052	84 c9		 test	 cl, cl
  00054	74 30		 je	 SHORT $LN99@Linsert

; 971  : 				;	// need to test if insert after is okay
; 972  : 			else if (_Where == begin())

  00056	8b 46 04	 mov	 eax, DWORD PTR [esi+4]
  00059	3b 18		 cmp	 ebx, DWORD PTR [eax]
  0005b	75 1e		 jne	 SHORT $LN4@Linsert

; 973  : 				return (_Pairib(_Insert(true, _Wherenode, _Node), true));

  0005d	ff 75 0c	 push	 DWORD PTR __Node$[ebp]
  00060	53		 push	 ebx
  00061	6a 01		 push	 1
$LN153@Linsert:
  00063	8d 45 10	 lea	 eax, DWORD PTR $T512352[ebp]
  00066	50		 push	 eax
  00067	8b ce		 mov	 ecx, esi
  00069	e8 00 00 00 00	 call	 ?_Insert@?$_Tree@V?$_Tmap_traits@KPAVioEtcItem@@U?$less@K@std@@V?$allocator@U?$pair@$$CBKPAVioEtcItem@@@std@@@3@$0A@@std@@@std@@IAE?AV?$_Tree_iterator@V?$_Tree_val@V?$_Tmap_traits@KPAVioEtcItem@@U?$less@K@std@@V?$allocator@U?$pair@$$CBKPAVioEtcItem@@@std@@@3@$0A@@std@@@std@@@2@_NPAU_Node@?$_Tree_nod@V?$_Tmap_traits@KPAVioEtcItem@@U?$less@K@std@@V?$allocator@U?$pair@$$CBKPAVioEtcItem@@@std@@@3@$0A@@std@@@2@1@Z ; std::_Tree<std::_Tmap_traits<unsigned long,ioEtcItem *,std::less<unsigned long>,std::allocator<std::pair<unsigned long const ,ioEtcItem *> >,0> >::_Insert
  0006e	8b 08		 mov	 ecx, DWORD PTR [eax]
  00070	8b 45 08	 mov	 eax, DWORD PTR ___$ReturnUdt$[ebp]
  00073	89 08		 mov	 DWORD PTR [eax], ecx
  00075	c6 40 04 01	 mov	 BYTE PTR [eax+4], 1
  00079	eb 2c		 jmp	 SHORT $LN1@Linsert
$LN4@Linsert:

; 974  : 			else
; 975  : 				--_Where;	// need to test if insert before is okay

  0007b	8d 4d 10	 lea	 ecx, DWORD PTR __Where$508073[ebp]
  0007e	e8 00 00 00 00	 call	 ??F?$_Tree_unchecked_const_iterator@V?$_Tree_val@V?$_Tmap_traits@KPAVioEtcItem@@U?$less@K@std@@V?$allocator@U?$pair@$$CBKPAVioEtcItem@@@std@@@3@$0A@@std@@@std@@U_Iterator_base0@2@@std@@QAEAAV01@XZ ; std::_Tree_unchecked_const_iterator<std::_Tree_val<std::_Tmap_traits<unsigned long,ioEtcItem *,std::less<unsigned long>,std::allocator<std::pair<unsigned long const ,ioEtcItem *> >,0> >,std::_Iterator_base0>::operator--
  00083	8b 7d 10	 mov	 edi, DWORD PTR __Where$508073[ebp]
$LN99@Linsert:

; 976  : 
; 977  : 			if (_DEBUG_LT_PRED(this->comp,

  00086	8b 45 0c	 mov	 eax, DWORD PTR __Node$[ebp]
  00089	8b 4f 0c	 mov	 ecx, DWORD PTR [edi+12]

; 978  : 				this->_Key(_Where._Mynode()),
; 979  : 				this->_Kfn(_Val)))
; 980  : 				return (_Pairib(_Insert(_Addleft, _Wherenode, _Node), true));

  0008c	50		 push	 eax
  0008d	3b 48 0c	 cmp	 ecx, DWORD PTR [eax+12]
  00090	73 06		 jae	 SHORT $LN2@Linsert
  00092	53		 push	 ebx
  00093	ff 75 fc	 push	 DWORD PTR __Addleft$[ebp]
  00096	eb cb		 jmp	 SHORT $LN153@Linsert
$LN2@Linsert:

; 981  : 			else
; 982  : 				{	// duplicate, don't insert
; 983  : 				_Dest_val(this->_Alval,
; 984  : 					_STD addressof(this->_Myval(_Node)));
; 985  : 
; 986  : 				this->_Alnod.deallocate(_Node, 1);

  00098	e8 00 00 00 00	 call	 ??3@YAXPAX@Z		; operator delete

; 987  : 
; 988  : 				return (_Pairib(_Where, false));

  0009d	8b 45 08	 mov	 eax, DWORD PTR ___$ReturnUdt$[ebp]
  000a0	59		 pop	 ecx
  000a1	89 38		 mov	 DWORD PTR [eax], edi
  000a3	c6 40 04 00	 mov	 BYTE PTR [eax+4], 0
$LN1@Linsert:
  000a7	5f		 pop	 edi
  000a8	5e		 pop	 esi
  000a9	5b		 pop	 ebx

; 989  : 				}
; 990  : 			}
; 991  : 		}

  000aa	c9		 leave
  000ab	c2 0c 00	 ret	 12			; 0000000cH
?_Linsert@?$_Tree@V?$_Tmap_traits@KPAVioEtcItem@@U?$less@K@std@@V?$allocator@U?$pair@$$CBKPAVioEtcItem@@@std@@@3@$0A@@std@@@std@@QAE?AU?$pair@V?$_Tree_iterator@V?$_Tree_val@V?$_Tmap_traits@KPAVioEtcItem@@U?$less@K@std@@V?$allocator@U?$pair@$$CBKPAVioEtcItem@@@std@@@3@$0A@@std@@@std@@@std@@_N@2@PAU_Node@?$_Tree_nod@V?$_Tmap_traits@KPAVioEtcItem@@U?$less@K@std@@V?$allocator@U?$pair@$$CBKPAVioEtcItem@@@std@@@3@$0A@@std@@@2@_N@Z ENDP ; std::_Tree<std::_Tmap_traits<unsigned long,ioEtcItem *,std::less<unsigned long>,std::allocator<std::pair<unsigned long const ,ioEtcItem *> >,0> >::_Linsert
_TEXT	ENDS
PUBLIC	?construct@?$allocator@U?$pair@$$CBKPAVioEtcItem@@@std@@@std@@QAEXPAU?$pair@$$CBKPAVioEtcItem@@@2@$$QAU32@@Z ; std::allocator<std::pair<unsigned long const ,ioEtcItem *> >::construct
; Function compile flags: /Ogsp
; File c:\program files (x86)\microsoft visual studio 10.0\vc\include\xmemory
;	COMDAT ?construct@?$allocator@U?$pair@$$CBKPAVioEtcItem@@@std@@@std@@QAEXPAU?$pair@$$CBKPAVioEtcItem@@@2@$$QAU32@@Z
_TEXT	SEGMENT
__Ptr$ = 8						; size = 4
__Val$ = 12						; size = 4
?construct@?$allocator@U?$pair@$$CBKPAVioEtcItem@@@std@@@std@@QAEXPAU?$pair@$$CBKPAVioEtcItem@@@2@$$QAU32@@Z PROC ; std::allocator<std::pair<unsigned long const ,ioEtcItem *> >::construct, COMDAT
; _this$ = ecx

; 201  : 		{	// construct object at _Ptr with value _Val

  00000	55		 push	 ebp
  00001	8b ec		 mov	 ebp, esp

; 202  : 		::new ((void _FARQ *)_Ptr) _Ty(_STD forward<_Ty>(_Val));

  00003	8b 45 08	 mov	 eax, DWORD PTR __Ptr$[ebp]
  00006	85 c0		 test	 eax, eax
  00008	74 0d		 je	 SHORT $LN3@construct@4
  0000a	8b 4d 0c	 mov	 ecx, DWORD PTR __Val$[ebp]
  0000d	8b 11		 mov	 edx, DWORD PTR [ecx]
  0000f	89 10		 mov	 DWORD PTR [eax], edx
  00011	8b 49 04	 mov	 ecx, DWORD PTR [ecx+4]
  00014	89 48 04	 mov	 DWORD PTR [eax+4], ecx
$LN3@construct@4:

; 203  : 		}

  00017	5d		 pop	 ebp
  00018	c2 08 00	 ret	 8
?construct@?$allocator@U?$pair@$$CBKPAVioEtcItem@@@std@@@std@@QAEXPAU?$pair@$$CBKPAVioEtcItem@@@2@$$QAU32@@Z ENDP ; std::allocator<std::pair<unsigned long const ,ioEtcItem *> >::construct
_TEXT	ENDS
PUBLIC	?erase@?$vector@HV?$allocator@H@std@@@std@@QAE?AV?$_Vector_iterator@V?$_Vector_val@HV?$allocator@H@std@@@std@@@2@V?$_Vector_const_iterator@V?$_Vector_val@HV?$allocator@H@std@@@std@@@2@0@Z ; std::vector<int,std::allocator<int> >::erase
; Function compile flags: /Ogsp
; File c:\program files (x86)\microsoft visual studio 10.0\vc\include\vector
;	COMDAT ?erase@?$vector@HV?$allocator@H@std@@@std@@QAE?AV?$_Vector_iterator@V?$_Vector_val@HV?$allocator@H@std@@@std@@@2@V?$_Vector_const_iterator@V?$_Vector_val@HV?$allocator@H@std@@@std@@@2@0@Z
_TEXT	SEGMENT
___$ReturnUdt$ = 8					; size = 4
__First_arg$ = 12					; size = 4
__Cat$512800 = 16					; size = 1
__Last_arg$ = 16					; size = 4
?erase@?$vector@HV?$allocator@H@std@@@std@@QAE?AV?$_Vector_iterator@V?$_Vector_val@HV?$allocator@H@std@@@std@@@2@V?$_Vector_const_iterator@V?$_Vector_val@HV?$allocator@H@std@@@std@@@2@0@Z PROC ; std::vector<int,std::allocator<int> >::erase, COMDAT
; _this$ = ecx

; 1190 : 		{	// erase [_First, _Last)

  00000	55		 push	 ebp
  00001	8b ec		 mov	 ebp, esp

; 1191 : 		iterator _First = _Make_iter(_First_arg);

  00003	8b 45 0c	 mov	 eax, DWORD PTR __First_arg$[ebp]
  00006	56		 push	 esi
  00007	57		 push	 edi
  00008	8b 7d 08	 mov	 edi, DWORD PTR ___$ReturnUdt$[ebp]
  0000b	8b f1		 mov	 esi, ecx
  0000d	89 07		 mov	 DWORD PTR [edi], eax

; 1192 : 		iterator _Last = _Make_iter(_Last_arg);
; 1193 : 
; 1194 : 		if (_First != _Last)

  0000f	3b 45 10	 cmp	 eax, DWORD PTR __Last_arg$[ebp]
  00012	74 16		 je	 SHORT $LN1@erase@2

; 1195 : 			{	// worth doing, copy down over hole
; 1196 :  #if _ITERATOR_DEBUG_LEVEL == 2
; 1197 : 			if (_Last < _First || _VICONT(_First) != this
; 1198 : 				|| _VIPTR(_First) < this->_Myfirst
; 1199 : 				|| this->_Mylast < _VIPTR(_Last))
; 1200 : 				_DEBUG_ERROR("vector erase iterator outside range");
; 1201 : 			pointer _Ptr = _Move(_VIPTR(_Last), this->_Mylast,
; 1202 : 				_VIPTR(_First));
; 1203 : 			_Orphan_range(_VIPTR(_First), this->_Mylast);
; 1204 : 
; 1205 :  #else /* _ITERATOR_DEBUG_LEVEL == 2 */
; 1206 : 			pointer _Ptr = _Move(_VIPTR(_Last), this->_Mylast,
; 1207 : 				_VIPTR(_First));

  00014	ff 75 10	 push	 DWORD PTR __Cat$512800[ebp]
  00017	8b 4e 04	 mov	 ecx, DWORD PTR [esi+4]
  0001a	50		 push	 eax
  0001b	51		 push	 ecx
  0001c	ff 75 10	 push	 DWORD PTR __Last_arg$[ebp]
  0001f	e8 00 00 00 00	 call	 ??$_Move@PAHPAH@std@@YAPAHPAH00U_Scalar_ptr_iterator_tag@0@@Z ; std::_Move<int *,int *>
  00024	83 c4 10	 add	 esp, 16			; 00000010H

; 1208 :  #endif /* _ITERATOR_DEBUG_LEVEL == 2 */
; 1209 : 
; 1210 : 			_Destroy(_Ptr, this->_Mylast);
; 1211 : 			this->_Mylast = _Ptr;

  00027	89 46 04	 mov	 DWORD PTR [esi+4], eax
$LN1@erase@2:

; 1212 : 			}
; 1213 : 		return (_First);

  0002a	8b c7		 mov	 eax, edi
  0002c	5f		 pop	 edi
  0002d	5e		 pop	 esi

; 1214 : 		}

  0002e	5d		 pop	 ebp
  0002f	c2 0c 00	 ret	 12			; 0000000cH
?erase@?$vector@HV?$allocator@H@std@@@std@@QAE?AV?$_Vector_iterator@V?$_Vector_val@HV?$allocator@H@std@@@std@@@2@V?$_Vector_const_iterator@V?$_Vector_val@HV?$allocator@H@std@@@std@@@2@0@Z ENDP ; std::vector<int,std::allocator<int> >::erase
_TEXT	ENDS
PUBLIC	?reserve@?$vector@HV?$allocator@H@std@@@std@@QAEXI@Z ; std::vector<int,std::allocator<int> >::reserve
; Function compile flags: /Ogsp
;	COMDAT ?reserve@?$vector@HV?$allocator@H@std@@@std@@QAEXI@Z
_TEXT	SEGMENT
__Count$ = 8						; size = 4
?reserve@?$vector@HV?$allocator@H@std@@@std@@QAEXI@Z PROC ; std::vector<int,std::allocator<int> >::reserve, COMDAT
; _this$ = ecx

; 746  : 		{	// determine new minimum length of allocated storage

  00000	55		 push	 ebp
  00001	8b ec		 mov	 ebp, esp

; 747  : 		if (max_size() < _Count)

  00003	81 7d 08 ff ff
	ff 3f		 cmp	 DWORD PTR __Count$[ebp], 1073741823 ; 3fffffffH
  0000a	56		 push	 esi
  0000b	8b f1		 mov	 esi, ecx
  0000d	76 0b		 jbe	 SHORT $LN5@reserve@2

; 748  : 			_Xlen();	// result too long

  0000f	68 00 00 00 00	 push	 OFFSET ??_C@_0BD@OLBABOEK@vector?$DMT?$DO?5too?5long?$AA@
  00014	ff 15 00 00 00
	00		 call	 DWORD PTR __imp_?_Xlength_error@std@@YAXPBD@Z
$LN43@reserve@2:
$LN5@reserve@2:

; 749  : 		else if (capacity() < _Count)

  0001a	8b 46 08	 mov	 eax, DWORD PTR [esi+8]
  0001d	2b 06		 sub	 eax, DWORD PTR [esi]
  0001f	c1 f8 02	 sar	 eax, 2
  00022	3b 45 08	 cmp	 eax, DWORD PTR __Count$[ebp]
  00025	73 52		 jae	 SHORT $LN3@reserve@2

; 750  : 			{	// not enough room, reallocate
; 751  : 			pointer _Ptr = this->_Alval.allocate(_Count);

  00027	53		 push	 ebx
  00028	57		 push	 edi
  00029	6a 00		 push	 0
  0002b	ff 75 08	 push	 DWORD PTR __Count$[ebp]
  0002e	e8 00 00 00 00	 call	 ??$_Allocate@H@std@@YAPAHIPAH@Z ; std::_Allocate<int>

; 752  : 
; 753  : 			_TRY_BEGIN
; 754  : 			_Umove(this->_Myfirst, this->_Mylast, _Ptr);

  00033	8b 0e		 mov	 ecx, DWORD PTR [esi]
  00035	8d 56 0c	 lea	 edx, DWORD PTR [esi+12]
  00038	52		 push	 edx
  00039	8b d8		 mov	 ebx, eax
  0003b	8b 46 04	 mov	 eax, DWORD PTR [esi+4]
  0003e	53		 push	 ebx
  0003f	50		 push	 eax
  00040	51		 push	 ecx
  00041	e8 00 00 00 00	 call	 ??$_Uninitialized_move@PAHPAHV?$allocator@H@std@@@std@@YAPAHPAH00AAV?$allocator@H@0@@Z ; std::_Uninitialized_move<int *,int *,std::allocator<int> >

; 755  : 			_CATCH_ALL
; 756  : 			this->_Alval.deallocate(_Ptr, _Count);
; 757  : 			_RERAISE;
; 758  : 			_CATCH_END
; 759  : 
; 760  : 			size_type _Size = size();

  00046	8b 06		 mov	 eax, DWORD PTR [esi]
  00048	8b 7e 04	 mov	 edi, DWORD PTR [esi+4]
  0004b	2b f8		 sub	 edi, eax
  0004d	83 c4 18	 add	 esp, 24			; 00000018H
  00050	c1 ff 02	 sar	 edi, 2

; 761  : 			if (this->_Myfirst != 0)

  00053	85 c0		 test	 eax, eax
  00055	74 07		 je	 SHORT $LN39@reserve@2

; 762  : 				{	// destroy and deallocate old array
; 763  : 				_Destroy(this->_Myfirst, this->_Mylast);
; 764  : 				this->_Alval.deallocate(this->_Myfirst,
; 765  : 					this->_Myend - this->_Myfirst);

  00057	50		 push	 eax
  00058	e8 00 00 00 00	 call	 ??3@YAXPAX@Z		; operator delete
  0005d	59		 pop	 ecx
$LN39@reserve@2:

; 766  : 				}
; 767  : 
; 768  : 			this->_Orphan_all();

  0005e	8b ce		 mov	 ecx, esi
  00060	ff 15 00 00 00
	00		 call	 DWORD PTR __imp_?_Orphan_all@_Container_base0@std@@QAEXXZ

; 769  : 			this->_Myend = _Ptr + _Count;

  00066	8b 45 08	 mov	 eax, DWORD PTR __Count$[ebp]
  00069	8d 04 83	 lea	 eax, DWORD PTR [ebx+eax*4]
  0006c	89 46 08	 mov	 DWORD PTR [esi+8], eax

; 770  : 			this->_Mylast = _Ptr + _Size;

  0006f	8d 04 bb	 lea	 eax, DWORD PTR [ebx+edi*4]
  00072	5f		 pop	 edi

; 771  : 			this->_Myfirst = _Ptr;

  00073	89 1e		 mov	 DWORD PTR [esi], ebx
  00075	89 46 04	 mov	 DWORD PTR [esi+4], eax
  00078	5b		 pop	 ebx
$LN3@reserve@2:
  00079	5e		 pop	 esi

; 772  : 			}
; 773  : 		}

  0007a	5d		 pop	 ebp
  0007b	c2 04 00	 ret	 4
$LN42@reserve@2:
?reserve@?$vector@HV?$allocator@H@std@@@std@@QAEXI@Z ENDP ; std::vector<int,std::allocator<int> >::reserve
_TEXT	ENDS
PUBLIC	??_C@_0CP@HEAEIDOI@ioEtcItemManager?3?3GetEtcItem?5?9?5o@ ; `string'
PUBLIC	?GetEtcItemByIdx@ioEtcItemManager@@QBEPAVioEtcItem@@H@Z ; ioEtcItemManager::GetEtcItemByIdx
;	COMDAT ??_C@_0CP@HEAEIDOI@ioEtcItemManager?3?3GetEtcItem?5?9?5o@
; File c:\program files (x86)\microsoft visual studio 10.0\vc\include\xtree
CONST	SEGMENT
??_C@_0CP@HEAEIDOI@ioEtcItemManager?3?3GetEtcItem?5?9?5o@ DB 'ioEtcItemMa'
	DB	'nager::GetEtcItem - overflow(%d/%d)', 00H	; `string'
; Function compile flags: /Ogsp
; File d:\lost saga for developer\youtube\tutorial\source\src\lsclient\ioetcitemmanager.cpp
CONST	ENDS
;	COMDAT ?GetEtcItemByIdx@ioEtcItemManager@@QBEPAVioEtcItem@@H@Z
_TEXT	SEGMENT
$T512971 = 8						; size = 1
_iter$506582 = 8					; size = 4
_iIdx$ = 8						; size = 4
?GetEtcItemByIdx@ioEtcItemManager@@QBEPAVioEtcItem@@H@Z PROC ; ioEtcItemManager::GetEtcItemByIdx, COMDAT
; _this$ = ecx

; 390  : {

  00000	55		 push	 ebp
  00001	8b ec		 mov	 ebp, esp

; 391  : 	if( COMPARE( iIdx, 0, GetEtcItemCount() ) )

  00003	8b 45 08	 mov	 eax, DWORD PTR _iIdx$[ebp]
  00006	85 c0		 test	 eax, eax
  00008	78 25		 js	 SHORT $LN1@GetEtcItem@3
  0000a	3b 41 0c	 cmp	 eax, DWORD PTR [ecx+12]
  0000d	7d 20		 jge	 SHORT $LN1@GetEtcItem@3

; 392  : 	{
; 393  : 		EtcItemMap::const_iterator iter = m_EtcItemMap.begin();

  0000f	8b 49 08	 mov	 ecx, DWORD PTR [ecx+8]
  00012	8b 09		 mov	 ecx, DWORD PTR [ecx]
  00014	89 4d 08	 mov	 DWORD PTR _iter$506582[ebp], ecx

; 394  : 		std::advance( iter, iIdx );

  00017	ff 75 08	 push	 DWORD PTR $T512971[ebp]
  0001a	50		 push	 eax
  0001b	8d 45 08	 lea	 eax, DWORD PTR _iter$506582[ebp]
  0001e	50		 push	 eax
  0001f	e8 00 00 00 00	 call	 ??$_Advance@V?$_Tree_const_iterator@V?$_Tree_val@V?$_Tmap_traits@KPAVioEtcItem@@U?$less@K@std@@V?$allocator@U?$pair@$$CBKPAVioEtcItem@@@std@@@3@$0A@@std@@@std@@@std@@H@std@@YAXAAV?$_Tree_const_iterator@V?$_Tree_val@V?$_Tmap_traits@KPAVioEtcItem@@U?$less@K@std@@V?$allocator@U?$pair@$$CBKPAVioEtcItem@@@std@@@3@$0A@@std@@@std@@@0@HUbidirectional_iterator_tag@0@@Z ; std::_Advance<std::_Tree_const_iterator<std::_Tree_val<std::_Tmap_traits<unsigned long,ioEtcItem *,std::less<unsigned long>,std::allocator<std::pair<unsigned long const ,ioEtcItem *> >,0> > >,int>

; 395  : 
; 396  : 		return iter->second;

  00024	8b 45 08	 mov	 eax, DWORD PTR _iter$506582[ebp]
  00027	8b 40 10	 mov	 eax, DWORD PTR [eax+16]
  0002a	83 c4 0c	 add	 esp, 12			; 0000000cH
  0002d	eb 1c		 jmp	 SHORT $LN2@GetEtcItem@3
$LN1@GetEtcItem@3:

; 397  : 	}
; 398  : 
; 399  : 	LOG.PrintTimeAndLog( 0, "ioEtcItemManager::GetEtcItem - overflow(%d/%d)",
; 400  : 							iIdx, GetEtcItemCount() );

  0002f	ff 71 0c	 push	 DWORD PTR [ecx+12]
  00032	50		 push	 eax
  00033	68 00 00 00 00	 push	 OFFSET ??_C@_0CP@HEAEIDOI@ioEtcItemManager?3?3GetEtcItem?5?9?5o@
  00038	6a 00		 push	 0
  0003a	ff 35 00 00 00
	00		 push	 DWORD PTR __imp_?LOG@@3VCLog@@A
  00040	ff 15 00 00 00
	00		 call	 DWORD PTR __imp_?PrintTimeAndLog@CLog@@QAAXHPADZZ
  00046	83 c4 14	 add	 esp, 20			; 00000014H

; 401  : 
; 402  : 	return NULL;

  00049	33 c0		 xor	 eax, eax
$LN2@GetEtcItem@3:

; 403  : }

  0004b	5d		 pop	 ebp
  0004c	c2 04 00	 ret	 4
?GetEtcItemByIdx@ioEtcItemManager@@QBEPAVioEtcItem@@H@Z ENDP ; ioEtcItemManager::GetEtcItemByIdx
_TEXT	ENDS
PUBLIC	??_R0?AVioEtcItemMotion@@@8			; ioEtcItemMotion `RTTI Type Descriptor'
PUBLIC	?FindEtcItemMacro@ioEtcItemManager@@QAEPAVioEtcItem@@PBD@Z ; ioEtcItemManager::FindEtcItemMacro
EXTRN	__imp_??1ioHashString@@QAE@XZ:PROC
EXTRN	?IsMotionMacro@ioEtcItemMotion@@QAE_NABVioHashString@@@Z:PROC ; ioEtcItemMotion::IsMotionMacro
EXTRN	__imp_??0ioHashString@@QAE@PBD@Z:PROC
EXTRN	___RTDynamicCast:PROC
;	COMDAT ??_R0?AVioEtcItemMotion@@@8
; File c:\program files (x86)\microsoft visual studio 10.0\vc\include\xtree
_DATA	SEGMENT
??_R0?AVioEtcItemMotion@@@8 DD FLAT:??_7type_info@@6B@	; ioEtcItemMotion `RTTI Type Descriptor'
	DD	00H
	DB	'.?AVioEtcItemMotion@@', 00H
_DATA	ENDS
;	COMDAT xdata$x
xdata$x	SEGMENT
__unwindtable$?FindEtcItemMacro@ioEtcItemManager@@QAEPAVioEtcItem@@PBD@Z DD 0ffffffffH
	DD	FLAT:__unwindfunclet$?FindEtcItemMacro@ioEtcItemManager@@QAEPAVioEtcItem@@PBD@Z$0
__ehfuncinfo$?FindEtcItemMacro@ioEtcItemManager@@QAEPAVioEtcItem@@PBD@Z DD 019930522H
	DD	01H
	DD	FLAT:__unwindtable$?FindEtcItemMacro@ioEtcItemManager@@QAEPAVioEtcItem@@PBD@Z
	DD	2 DUP(00H)
	DD	2 DUP(00H)
	DD	00H
	DD	01H
; Function compile flags: /Ogsp
; File d:\lost saga for developer\youtube\tutorial\source\src\lsclient\ioetcitemmanager.cpp
xdata$x	ENDS
;	COMDAT ?FindEtcItemMacro@ioEtcItemManager@@QAEPAVioEtcItem@@PBD@Z
_TEXT	SEGMENT
$T513005 = -32						; size = 16
_iter$ = -16						; size = 4
__$EHRec$ = -12						; size = 12
_szMacro$ = 8						; size = 4
?FindEtcItemMacro@ioEtcItemManager@@QAEPAVioEtcItem@@PBD@Z PROC ; ioEtcItemManager::FindEtcItemMacro, COMDAT
; _this$ = ecx

; 406  : {

  00000	6a 14		 push	 20			; 00000014H
  00002	b8 00 00 00 00	 mov	 eax, __ehhandler$?FindEtcItemMacro@ioEtcItemManager@@QAEPAVioEtcItem@@PBD@Z
  00007	e8 00 00 00 00	 call	 __EH_prolog3
  0000c	8b f9		 mov	 edi, ecx

; 407  : 	EtcItemMap::const_iterator iter;
; 408  : 	for( iter=m_EtcItemMap.begin() ; iter!=m_EtcItemMap.end() ; ++iter )

  0000e	8b 47 08	 mov	 eax, DWORD PTR [edi+8]
  00011	8b 08		 mov	 ecx, DWORD PTR [eax]
  00013	89 4d f0	 mov	 DWORD PTR _iter$[ebp], ecx
  00016	3b c8		 cmp	 ecx, eax
  00018	74 7b		 je	 SHORT $LN6@FindEtcIte
$LL30@FindEtcIte:

; 409  : 	{
; 410  : 		if( COMPARE( iter->first, ioEtcItem::EIT_ETC_MOTION1, ioEtcItem::EIT_ETC_MOTION100 + 1 ) ||
; 411  : 			COMPARE( iter->first, ioEtcItem::EIT_ETC_MOTION101, ioEtcItem::EIT_ETC_MOTION400 + 1 ) )

  0001a	8b 41 0c	 mov	 eax, DWORD PTR [ecx+12]
  0001d	3d 66 09 3d 00	 cmp	 eax, 4000102		; 003d0966H
  00022	72 07		 jb	 SHORT $LN3@FindEtcIte
  00024	3d ca 09 3d 00	 cmp	 eax, 4000202		; 003d09caH
  00029	72 0e		 jb	 SHORT $LN4@FindEtcIte
$LN3@FindEtcIte:
  0002b	3d 3e 0d 3d 00	 cmp	 eax, 4001086		; 003d0d3eH
  00030	72 53		 jb	 SHORT $LN7@FindEtcIte
  00032	3d 6a 0e 3d 00	 cmp	 eax, 4001386		; 003d0e6aH
  00037	73 4c		 jae	 SHORT $LN7@FindEtcIte
$LN4@FindEtcIte:

; 412  : 		{
; 413  : 			ioEtcItemMotion *pEtcMotion = dynamic_cast< ioEtcItemMotion * > ( iter->second );

  00039	33 db		 xor	 ebx, ebx
  0003b	53		 push	 ebx
  0003c	68 00 00 00 00	 push	 OFFSET ??_R0?AVioEtcItemMotion@@@8
  00041	68 00 00 00 00	 push	 OFFSET ??_R0?AVioEtcItem@@@8
  00046	53		 push	 ebx
  00047	ff 71 10	 push	 DWORD PTR [ecx+16]
  0004a	e8 00 00 00 00	 call	 ___RTDynamicCast
  0004f	8b f0		 mov	 esi, eax
  00051	83 c4 14	 add	 esp, 20			; 00000014H

; 414  : 			if( pEtcMotion )

  00054	3b f3		 cmp	 esi, ebx
  00056	74 2d		 je	 SHORT $LN7@FindEtcIte

; 415  : 			{
; 416  : 				if( pEtcMotion->IsMotionMacro( szMacro ) )

  00058	ff 75 08	 push	 DWORD PTR _szMacro$[ebp]
  0005b	8d 4d e0	 lea	 ecx, DWORD PTR $T513005[ebp]
  0005e	ff 15 00 00 00
	00		 call	 DWORD PTR __imp_??0ioHashString@@QAE@PBD@Z
  00064	8d 45 e0	 lea	 eax, DWORD PTR $T513005[ebp]
  00067	50		 push	 eax
  00068	8b ce		 mov	 ecx, esi
  0006a	89 5d fc	 mov	 DWORD PTR __$EHRec$[ebp+8], ebx
  0006d	e8 00 00 00 00	 call	 ?IsMotionMacro@ioEtcItemMotion@@QAE_NABVioHashString@@@Z ; ioEtcItemMotion::IsMotionMacro
  00072	83 4d fc ff	 or	 DWORD PTR __$EHRec$[ebp+8], -1
  00076	8d 4d e0	 lea	 ecx, DWORD PTR $T513005[ebp]
  00079	8a d8		 mov	 bl, al
  0007b	ff 15 00 00 00
	00		 call	 DWORD PTR __imp_??1ioHashString@@QAE@XZ
  00081	84 db		 test	 bl, bl
  00083	75 1a		 jne	 SHORT $LN77@FindEtcIte
$LN7@FindEtcIte:

; 407  : 	EtcItemMap::const_iterator iter;
; 408  : 	for( iter=m_EtcItemMap.begin() ; iter!=m_EtcItemMap.end() ; ++iter )

  00085	8d 4d f0	 lea	 ecx, DWORD PTR _iter$[ebp]
  00088	e8 00 00 00 00	 call	 ??E?$_Tree_unchecked_const_iterator@V?$_Tree_val@V?$_Tmap_traits@KPAVioEtcItem@@U?$less@K@std@@V?$allocator@U?$pair@$$CBKPAVioEtcItem@@@std@@@3@$0A@@std@@@std@@U_Iterator_base0@2@@std@@QAEAAV01@XZ ; std::_Tree_unchecked_const_iterator<std::_Tree_val<std::_Tmap_traits<unsigned long,ioEtcItem *,std::less<unsigned long>,std::allocator<std::pair<unsigned long const ,ioEtcItem *> >,0> >,std::_Iterator_base0>::operator++
  0008d	8b 4d f0	 mov	 ecx, DWORD PTR _iter$[ebp]
  00090	3b 4f 08	 cmp	 ecx, DWORD PTR [edi+8]
  00093	75 85		 jne	 SHORT $LL30@FindEtcIte
$LN6@FindEtcIte:

; 418  : 			}
; 419  : 		}
; 420  : 	}
; 421  : 
; 422  : 	return NULL;

  00095	33 c0		 xor	 eax, eax
$LN9@FindEtcIte:

; 423  : }

  00097	e8 00 00 00 00	 call	 __EH_epilog3
  0009c	c2 04 00	 ret	 4
$LN77@FindEtcIte:

; 417  : 					return pEtcMotion;

  0009f	8b c6		 mov	 eax, esi
  000a1	eb f4		 jmp	 SHORT $LN9@FindEtcIte
_TEXT	ENDS
;	COMDAT text$x
text$x	SEGMENT
__unwindfunclet$?FindEtcItemMacro@ioEtcItemManager@@QAEPAVioEtcItem@@PBD@Z$0:
  00000	8d 4d e0	 lea	 ecx, DWORD PTR $T513005[ebp]
  00003	ff 25 00 00 00
	00		 jmp	 DWORD PTR __imp_??1ioHashString@@QAE@XZ
__ehhandler$?FindEtcItemMacro@ioEtcItemManager@@QAEPAVioEtcItem@@PBD@Z:
  00009	8b 54 24 08	 mov	 edx, DWORD PTR [esp+8]
  0000d	8d 42 0c	 lea	 eax, DWORD PTR [edx+12]
  00010	8b 4a dc	 mov	 ecx, DWORD PTR [edx-36]
  00013	33 c8		 xor	 ecx, eax
  00015	e8 00 00 00 00	 call	 @__security_check_cookie@4
  0001a	b8 00 00 00 00	 mov	 eax, OFFSET __ehfuncinfo$?FindEtcItemMacro@ioEtcItemManager@@QAEPAVioEtcItem@@PBD@Z
  0001f	e9 00 00 00 00	 jmp	 ___CxxFrameHandler3
text$x	ENDS
?FindEtcItemMacro@ioEtcItemManager@@QAEPAVioEtcItem@@PBD@Z ENDP ; ioEtcItemManager::FindEtcItemMacro
PUBLIC	?Init@ioEtcItemManager@@QAEXPAVioUserEtcItem@@PAVioPlayStage@@@Z ; ioEtcItemManager::Init
; Function compile flags: /Ogsp
;	COMDAT ?Init@ioEtcItemManager@@QAEXPAVioUserEtcItem@@PAVioPlayStage@@@Z
_TEXT	SEGMENT
_iter$ = -4						; size = 4
_pUserEtcItem$ = 8					; size = 4
_pPlayStage$ = 12					; size = 4
?Init@ioEtcItemManager@@QAEXPAVioUserEtcItem@@PAVioPlayStage@@@Z PROC ; ioEtcItemManager::Init, COMDAT
; _this$ = ecx

; 491  : {

  00000	55		 push	 ebp
  00001	8b ec		 mov	 ebp, esp
  00003	51		 push	 ecx
  00004	56		 push	 esi
  00005	8b f1		 mov	 esi, ecx

; 492  : 	EtcItemMap::iterator iter;
; 493  : 	for( iter=m_EtcItemMap.begin() ; iter!=m_EtcItemMap.end() ; ++iter )

  00007	8b 4e 08	 mov	 ecx, DWORD PTR [esi+8]
  0000a	8b 01		 mov	 eax, DWORD PTR [ecx]
  0000c	89 45 fc	 mov	 DWORD PTR _iter$[ebp], eax
  0000f	3b c1		 cmp	 eax, ecx
  00011	74 24		 je	 SHORT $LN2@Init
$LL29@Init:

; 494  : 	{
; 495  : 		ioEtcItem *pEtcItem = iter->second;

  00013	8b 40 10	 mov	 eax, DWORD PTR [eax+16]

; 496  : 		if( pEtcItem )

  00016	85 c0		 test	 eax, eax
  00018	74 0d		 je	 SHORT $LN3@Init

; 497  : 			pEtcItem->OnInit( pUserEtcItem, pPlayStage );

  0001a	ff 75 0c	 push	 DWORD PTR _pPlayStage$[ebp]
  0001d	8b 10		 mov	 edx, DWORD PTR [eax]
  0001f	ff 75 08	 push	 DWORD PTR _pUserEtcItem$[ebp]
  00022	8b c8		 mov	 ecx, eax
  00024	ff 52 10	 call	 DWORD PTR [edx+16]
$LN3@Init:

; 492  : 	EtcItemMap::iterator iter;
; 493  : 	for( iter=m_EtcItemMap.begin() ; iter!=m_EtcItemMap.end() ; ++iter )

  00027	8d 4d fc	 lea	 ecx, DWORD PTR _iter$[ebp]
  0002a	e8 00 00 00 00	 call	 ??E?$_Tree_unchecked_const_iterator@V?$_Tree_val@V?$_Tmap_traits@KPAVioEtcItem@@U?$less@K@std@@V?$allocator@U?$pair@$$CBKPAVioEtcItem@@@std@@@3@$0A@@std@@@std@@U_Iterator_base0@2@@std@@QAEAAV01@XZ ; std::_Tree_unchecked_const_iterator<std::_Tree_val<std::_Tmap_traits<unsigned long,ioEtcItem *,std::less<unsigned long>,std::allocator<std::pair<unsigned long const ,ioEtcItem *> >,0> >,std::_Iterator_base0>::operator++
  0002f	8b 45 fc	 mov	 eax, DWORD PTR _iter$[ebp]
  00032	3b 46 08	 cmp	 eax, DWORD PTR [esi+8]
  00035	75 dc		 jne	 SHORT $LL29@Init
$LN2@Init:
  00037	5e		 pop	 esi

; 498  : 	}
; 499  : }

  00038	c9		 leave
  00039	c2 08 00	 ret	 8
?Init@ioEtcItemManager@@QAEXPAVioUserEtcItem@@PAVioPlayStage@@@Z ENDP ; ioEtcItemManager::Init
_TEXT	ENDS
PUBLIC	??_R0?AVioEtcItemBlock@@@8			; ioEtcItemBlock `RTTI Type Descriptor'
PUBLIC	?FindEtcItemBlockMacro@ioEtcItemManager@@QAEPAVioEtcItem@@PBD@Z ; ioEtcItemManager::FindEtcItemBlockMacro
EXTRN	?IsBlockMacro@ioEtcItemBlock@@QAE_NABVioHashString@@@Z:PROC ; ioEtcItemBlock::IsBlockMacro
;	COMDAT ??_R0?AVioEtcItemBlock@@@8
; File c:\program files (x86)\microsoft visual studio 10.0\vc\include\xtree
_DATA	SEGMENT
??_R0?AVioEtcItemBlock@@@8 DD FLAT:??_7type_info@@6B@	; ioEtcItemBlock `RTTI Type Descriptor'
	DD	00H
	DB	'.?AVioEtcItemBlock@@', 00H
_DATA	ENDS
;	COMDAT xdata$x
xdata$x	SEGMENT
__unwindtable$?FindEtcItemBlockMacro@ioEtcItemManager@@QAEPAVioEtcItem@@PBD@Z DD 0ffffffffH
	DD	FLAT:__unwindfunclet$?FindEtcItemBlockMacro@ioEtcItemManager@@QAEPAVioEtcItem@@PBD@Z$0
__ehfuncinfo$?FindEtcItemBlockMacro@ioEtcItemManager@@QAEPAVioEtcItem@@PBD@Z DD 019930522H
	DD	01H
	DD	FLAT:__unwindtable$?FindEtcItemBlockMacro@ioEtcItemManager@@QAEPAVioEtcItem@@PBD@Z
	DD	2 DUP(00H)
	DD	2 DUP(00H)
	DD	00H
	DD	01H
; Function compile flags: /Ogsp
; File d:\lost saga for developer\youtube\tutorial\source\src\lsclient\ioetcitemmanager.cpp
xdata$x	ENDS
;	COMDAT ?FindEtcItemBlockMacro@ioEtcItemManager@@QAEPAVioEtcItem@@PBD@Z
_TEXT	SEGMENT
$T513347 = -32						; size = 16
_iter$ = -16						; size = 4
__$EHRec$ = -12						; size = 12
_szMacro$ = 8						; size = 4
?FindEtcItemBlockMacro@ioEtcItemManager@@QAEPAVioEtcItem@@PBD@Z PROC ; ioEtcItemManager::FindEtcItemBlockMacro, COMDAT
; _this$ = ecx

; 510  : {

  00000	6a 14		 push	 20			; 00000014H
  00002	b8 00 00 00 00	 mov	 eax, __ehhandler$?FindEtcItemBlockMacro@ioEtcItemManager@@QAEPAVioEtcItem@@PBD@Z
  00007	e8 00 00 00 00	 call	 __EH_prolog3
  0000c	8b f9		 mov	 edi, ecx

; 511  : 	EtcItemMap::const_iterator iter;
; 512  : 	for( iter=m_EtcItemMap.begin() ; iter!=m_EtcItemMap.end() ; ++iter )

  0000e	8b 47 08	 mov	 eax, DWORD PTR [edi+8]
  00011	8b 08		 mov	 ecx, DWORD PTR [eax]
  00013	89 4d f0	 mov	 DWORD PTR _iter$[ebp], ecx
  00016	3b c8		 cmp	 ecx, eax
  00018	74 69		 je	 SHORT $LN4@FindEtcIte@2
$LL28@FindEtcIte@2:

; 513  : 	{
; 514  : 		if( IsBlockEtcItem( iter->first ) )

  0001a	8b 41 0c	 mov	 eax, DWORD PTR [ecx+12]
  0001d	05 90 b3 b3 ff	 add	 eax, -5000304		; ffb3b390H
  00022	83 f8 09	 cmp	 eax, 9
  00025	77 4c		 ja	 SHORT $LN5@FindEtcIte@2

; 515  : 		{
; 516  : 			ioEtcItemBlock *pEtcBlock = dynamic_cast< ioEtcItemBlock * > ( iter->second );

  00027	33 db		 xor	 ebx, ebx
  00029	53		 push	 ebx
  0002a	68 00 00 00 00	 push	 OFFSET ??_R0?AVioEtcItemBlock@@@8
  0002f	68 00 00 00 00	 push	 OFFSET ??_R0?AVioEtcItem@@@8
  00034	53		 push	 ebx
  00035	ff 71 10	 push	 DWORD PTR [ecx+16]
  00038	e8 00 00 00 00	 call	 ___RTDynamicCast
  0003d	8b f0		 mov	 esi, eax
  0003f	83 c4 14	 add	 esp, 20			; 00000014H

; 517  : 			if( pEtcBlock )

  00042	3b f3		 cmp	 esi, ebx
  00044	74 2d		 je	 SHORT $LN5@FindEtcIte@2

; 518  : 			{
; 519  : 				if( pEtcBlock->IsBlockMacro( szMacro ) )

  00046	ff 75 08	 push	 DWORD PTR _szMacro$[ebp]
  00049	8d 4d e0	 lea	 ecx, DWORD PTR $T513347[ebp]
  0004c	ff 15 00 00 00
	00		 call	 DWORD PTR __imp_??0ioHashString@@QAE@PBD@Z
  00052	8d 45 e0	 lea	 eax, DWORD PTR $T513347[ebp]
  00055	50		 push	 eax
  00056	8b ce		 mov	 ecx, esi
  00058	89 5d fc	 mov	 DWORD PTR __$EHRec$[ebp+8], ebx
  0005b	e8 00 00 00 00	 call	 ?IsBlockMacro@ioEtcItemBlock@@QAE_NABVioHashString@@@Z ; ioEtcItemBlock::IsBlockMacro
  00060	83 4d fc ff	 or	 DWORD PTR __$EHRec$[ebp+8], -1
  00064	8d 4d e0	 lea	 ecx, DWORD PTR $T513347[ebp]
  00067	8a d8		 mov	 bl, al
  00069	ff 15 00 00 00
	00		 call	 DWORD PTR __imp_??1ioHashString@@QAE@XZ
  0006f	84 db		 test	 bl, bl
  00071	75 1a		 jne	 SHORT $LN60@FindEtcIte@2
$LN5@FindEtcIte@2:

; 511  : 	EtcItemMap::const_iterator iter;
; 512  : 	for( iter=m_EtcItemMap.begin() ; iter!=m_EtcItemMap.end() ; ++iter )

  00073	8d 4d f0	 lea	 ecx, DWORD PTR _iter$[ebp]
  00076	e8 00 00 00 00	 call	 ??E?$_Tree_unchecked_const_iterator@V?$_Tree_val@V?$_Tmap_traits@KPAVioEtcItem@@U?$less@K@std@@V?$allocator@U?$pair@$$CBKPAVioEtcItem@@@std@@@3@$0A@@std@@@std@@U_Iterator_base0@2@@std@@QAEAAV01@XZ ; std::_Tree_unchecked_const_iterator<std::_Tree_val<std::_Tmap_traits<unsigned long,ioEtcItem *,std::less<unsigned long>,std::allocator<std::pair<unsigned long const ,ioEtcItem *> >,0> >,std::_Iterator_base0>::operator++
  0007b	8b 4d f0	 mov	 ecx, DWORD PTR _iter$[ebp]
  0007e	3b 4f 08	 cmp	 ecx, DWORD PTR [edi+8]
  00081	75 97		 jne	 SHORT $LL28@FindEtcIte@2
$LN4@FindEtcIte@2:

; 521  : 			}
; 522  : 		}
; 523  : 	}
; 524  : 
; 525  : 	return NULL;

  00083	33 c0		 xor	 eax, eax
$LN7@FindEtcIte@2:

; 526  : }

  00085	e8 00 00 00 00	 call	 __EH_epilog3
  0008a	c2 04 00	 ret	 4
$LN60@FindEtcIte@2:

; 520  : 					return pEtcBlock;

  0008d	8b c6		 mov	 eax, esi
  0008f	eb f4		 jmp	 SHORT $LN7@FindEtcIte@2
_TEXT	ENDS
;	COMDAT text$x
text$x	SEGMENT
__unwindfunclet$?FindEtcItemBlockMacro@ioEtcItemManager@@QAEPAVioEtcItem@@PBD@Z$0:
  00000	8d 4d e0	 lea	 ecx, DWORD PTR $T513347[ebp]
  00003	ff 25 00 00 00
	00		 jmp	 DWORD PTR __imp_??1ioHashString@@QAE@XZ
__ehhandler$?FindEtcItemBlockMacro@ioEtcItemManager@@QAEPAVioEtcItem@@PBD@Z:
  00009	8b 54 24 08	 mov	 edx, DWORD PTR [esp+8]
  0000d	8d 42 0c	 lea	 eax, DWORD PTR [edx+12]
  00010	8b 4a dc	 mov	 ecx, DWORD PTR [edx-36]
  00013	33 c8		 xor	 ecx, eax
  00015	e8 00 00 00 00	 call	 @__security_check_cookie@4
  0001a	b8 00 00 00 00	 mov	 eax, OFFSET __ehfuncinfo$?FindEtcItemBlockMacro@ioEtcItemManager@@QAEPAVioEtcItem@@PBD@Z
  0001f	e9 00 00 00 00	 jmp	 ___CxxFrameHandler3
text$x	ENDS
?FindEtcItemBlockMacro@ioEtcItemManager@@QAEPAVioEtcItem@@PBD@Z ENDP ; ioEtcItemManager::FindEtcItemBlockMacro
PUBLIC	?GetEtcItemRecommandedCnt@ioEtcItemManager@@QAEHXZ ; ioEtcItemManager::GetEtcItemRecommandedCnt
EXTRN	?GetRecommandedShopOrder@ioEtcItem@@QBEHH@Z:PROC ; ioEtcItem::GetRecommandedShopOrder
EXTRN	?GetRecommandedShopOrderSize@ioEtcItem@@QBEHXZ:PROC ; ioEtcItem::GetRecommandedShopOrderSize
; Function compile flags: /Ogsp
;	COMDAT ?GetEtcItemRecommandedCnt@ioEtcItemManager@@QAEHXZ
_TEXT	SEGMENT
_iter$ = -8						; size = 4
_iCount$ = -4						; size = 4
?GetEtcItemRecommandedCnt@ioEtcItemManager@@QAEHXZ PROC	; ioEtcItemManager::GetEtcItemRecommandedCnt, COMDAT
; _this$ = ecx

; 529  : {

  00000	55		 push	 ebp
  00001	8b ec		 mov	 ebp, esp
  00003	51		 push	 ecx
  00004	51		 push	 ecx

; 530  : 	int iCount = 0;

  00005	83 65 fc 00	 and	 DWORD PTR _iCount$[ebp], 0
  00009	57		 push	 edi
  0000a	8b f9		 mov	 edi, ecx

; 531  : 	EtcItemMap::const_iterator iter;
; 532  : 	for( iter=m_EtcItemMap.begin() ; iter!=m_EtcItemMap.end() ; ++iter )

  0000c	8b 4f 08	 mov	 ecx, DWORD PTR [edi+8]
  0000f	8b 01		 mov	 eax, DWORD PTR [ecx]
  00011	89 45 f8	 mov	 DWORD PTR _iter$[ebp], eax
  00014	3b c1		 cmp	 eax, ecx
  00016	74 46		 je	 SHORT $LN5@GetEtcItem@4
  00018	53		 push	 ebx
  00019	56		 push	 esi
$LL54@GetEtcItem@4:

; 533  : 	{	
; 534  : 		ioEtcItem* pEtcItem = iter->second;

  0001a	8b 70 10	 mov	 esi, DWORD PTR [eax+16]

; 535  : 		for( int i = 0; i < pEtcItem->GetRecommandedShopOrderSize(); i++ )

  0001d	8b ce		 mov	 ecx, esi
  0001f	33 db		 xor	 ebx, ebx
  00021	e8 00 00 00 00	 call	 ?GetRecommandedShopOrderSize@ioEtcItem@@QBEHXZ ; ioEtcItem::GetRecommandedShopOrderSize
  00026	85 c0		 test	 eax, eax
  00028	7e 22		 jle	 SHORT $LN6@GetEtcItem@4
$LL4@GetEtcItem@4:

; 536  : 		{
; 537  : 			if( pEtcItem && pEtcItem->GetRecommandedShopOrder(i) != ORDER_DEFAULT )

  0002a	85 f6		 test	 esi, esi
  0002c	74 12		 je	 SHORT $LN3@GetEtcItem@4
  0002e	53		 push	 ebx
  0002f	8b ce		 mov	 ecx, esi
  00031	e8 00 00 00 00	 call	 ?GetRecommandedShopOrder@ioEtcItem@@QBEHH@Z ; ioEtcItem::GetRecommandedShopOrder
  00036	3d ff c9 9a 3b	 cmp	 eax, 999999999		; 3b9ac9ffH
  0003b	74 03		 je	 SHORT $LN3@GetEtcItem@4

; 538  : 			{
; 539  : 				iCount++;

  0003d	ff 45 fc	 inc	 DWORD PTR _iCount$[ebp]
$LN3@GetEtcItem@4:

; 535  : 		for( int i = 0; i < pEtcItem->GetRecommandedShopOrderSize(); i++ )

  00040	8b ce		 mov	 ecx, esi
  00042	43		 inc	 ebx
  00043	e8 00 00 00 00	 call	 ?GetRecommandedShopOrderSize@ioEtcItem@@QBEHXZ ; ioEtcItem::GetRecommandedShopOrderSize
  00048	3b d8		 cmp	 ebx, eax
  0004a	7c de		 jl	 SHORT $LL4@GetEtcItem@4
$LN6@GetEtcItem@4:

; 531  : 	EtcItemMap::const_iterator iter;
; 532  : 	for( iter=m_EtcItemMap.begin() ; iter!=m_EtcItemMap.end() ; ++iter )

  0004c	8d 4d f8	 lea	 ecx, DWORD PTR _iter$[ebp]
  0004f	e8 00 00 00 00	 call	 ??E?$_Tree_unchecked_const_iterator@V?$_Tree_val@V?$_Tmap_traits@KPAVioEtcItem@@U?$less@K@std@@V?$allocator@U?$pair@$$CBKPAVioEtcItem@@@std@@@3@$0A@@std@@@std@@U_Iterator_base0@2@@std@@QAEAAV01@XZ ; std::_Tree_unchecked_const_iterator<std::_Tree_val<std::_Tmap_traits<unsigned long,ioEtcItem *,std::less<unsigned long>,std::allocator<std::pair<unsigned long const ,ioEtcItem *> >,0> >,std::_Iterator_base0>::operator++
  00054	8b 45 f8	 mov	 eax, DWORD PTR _iter$[ebp]
  00057	3b 47 08	 cmp	 eax, DWORD PTR [edi+8]
  0005a	75 be		 jne	 SHORT $LL54@GetEtcItem@4
  0005c	5e		 pop	 esi
  0005d	5b		 pop	 ebx
$LN5@GetEtcItem@4:

; 540  : 			}
; 541  : 		}
; 542  : 	}
; 543  : 
; 544  : 	return iCount;

  0005e	8b 45 fc	 mov	 eax, DWORD PTR _iCount$[ebp]
  00061	5f		 pop	 edi

; 545  : }

  00062	c9		 leave
  00063	c3		 ret	 0
?GetEtcItemRecommandedCnt@ioEtcItemManager@@QAEHXZ ENDP	; ioEtcItemManager::GetEtcItemRecommandedCnt
_TEXT	ENDS
PUBLIC	?clear@?$_Tree@V?$_Tmap_traits@KPAVioEtcItem@@U?$less@K@std@@V?$allocator@U?$pair@$$CBKPAVioEtcItem@@@std@@@3@$0A@@std@@@std@@QAEXXZ ; std::_Tree<std::_Tmap_traits<unsigned long,ioEtcItem *,std::less<unsigned long>,std::allocator<std::pair<unsigned long const ,ioEtcItem *> >,0> >::clear
; Function compile flags: /Ogsp
; File c:\program files (x86)\microsoft visual studio 10.0\vc\include\xtree
;	COMDAT ?clear@?$_Tree@V?$_Tmap_traits@KPAVioEtcItem@@U?$less@K@std@@V?$allocator@U?$pair@$$CBKPAVioEtcItem@@@std@@@3@$0A@@std@@@std@@QAEXXZ
_TEXT	SEGMENT
?clear@?$_Tree@V?$_Tmap_traits@KPAVioEtcItem@@U?$less@K@std@@V?$allocator@U?$pair@$$CBKPAVioEtcItem@@@std@@@3@$0A@@std@@@std@@QAEXXZ PROC ; std::_Tree<std::_Tmap_traits<unsigned long,ioEtcItem *,std::less<unsigned long>,std::allocator<std::pair<unsigned long const ,ioEtcItem *> >,0> >::clear, COMDAT
; _this$ = ecx

; 1410 : 		{	// erase all

  00000	56		 push	 esi
  00001	57		 push	 edi
  00002	8b f9		 mov	 edi, ecx

; 1411 :  #if _ITERATOR_DEBUG_LEVEL == 2
; 1412 : 		this->_Orphan_ptr(*this, 0);
; 1413 :  #endif /* _ITERATOR_DEBUG_LEVEL == 2 */
; 1414 : 
; 1415 : 		_Erase(_Root());

  00004	8b 47 04	 mov	 eax, DWORD PTR [edi+4]
  00007	ff 70 04	 push	 DWORD PTR [eax+4]
  0000a	e8 00 00 00 00	 call	 ?_Erase@?$_Tree@V?$_Tmap_traits@KPAVioEtcItem@@U?$less@K@std@@V?$allocator@U?$pair@$$CBKPAVioEtcItem@@@std@@@3@$0A@@std@@@std@@IAEXPAU_Node@?$_Tree_nod@V?$_Tmap_traits@KPAVioEtcItem@@U?$less@K@std@@V?$allocator@U?$pair@$$CBKPAVioEtcItem@@@std@@@3@$0A@@std@@@2@@Z ; std::_Tree<std::_Tmap_traits<unsigned long,ioEtcItem *,std::less<unsigned long>,std::allocator<std::pair<unsigned long const ,ioEtcItem *> >,0> >::_Erase

; 1416 : 		_Root() = this->_Myhead;

  0000f	8b 47 04	 mov	 eax, DWORD PTR [edi+4]
  00012	89 40 04	 mov	 DWORD PTR [eax+4], eax

; 1417 : 		_Lmost() = this->_Myhead;

  00015	8b 47 04	 mov	 eax, DWORD PTR [edi+4]
  00018	89 00		 mov	 DWORD PTR [eax], eax

; 1418 : 		_Rmost() = this->_Myhead;

  0001a	8b 77 04	 mov	 esi, DWORD PTR [edi+4]
  0001d	89 76 08	 mov	 DWORD PTR [esi+8], esi

; 1419 : 		this->_Mysize = 0;

  00020	83 67 08 00	 and	 DWORD PTR [edi+8], 0
  00024	5f		 pop	 edi
  00025	5e		 pop	 esi

; 1420 : 		}

  00026	c3		 ret	 0
?clear@?$_Tree@V?$_Tmap_traits@KPAVioEtcItem@@U?$less@K@std@@V?$allocator@U?$pair@$$CBKPAVioEtcItem@@@std@@@3@$0A@@std@@@std@@QAEXXZ ENDP ; std::_Tree<std::_Tmap_traits<unsigned long,ioEtcItem *,std::less<unsigned long>,std::allocator<std::pair<unsigned long const ,ioEtcItem *> >,0> >::clear
_TEXT	ENDS
PUBLIC	?find@?$_Tree@V?$_Tmap_traits@KPAVioEtcItem@@U?$less@K@std@@V?$allocator@U?$pair@$$CBKPAVioEtcItem@@@std@@@3@$0A@@std@@@std@@QAE?AV?$_Tree_iterator@V?$_Tree_val@V?$_Tmap_traits@KPAVioEtcItem@@U?$less@K@std@@V?$allocator@U?$pair@$$CBKPAVioEtcItem@@@std@@@3@$0A@@std@@@std@@@2@ABK@Z ; std::_Tree<std::_Tmap_traits<unsigned long,ioEtcItem *,std::less<unsigned long>,std::allocator<std::pair<unsigned long const ,ioEtcItem *> >,0> >::find
; Function compile flags: /Ogsp
;	COMDAT ?find@?$_Tree@V?$_Tmap_traits@KPAVioEtcItem@@U?$less@K@std@@V?$allocator@U?$pair@$$CBKPAVioEtcItem@@@std@@@3@$0A@@std@@@std@@QAE?AV?$_Tree_iterator@V?$_Tree_val@V?$_Tmap_traits@KPAVioEtcItem@@U?$less@K@std@@V?$allocator@U?$pair@$$CBKPAVioEtcItem@@@std@@@3@$0A@@std@@@std@@@2@ABK@Z
_TEXT	SEGMENT
$T513669 = -4						; size = 4
___$ReturnUdt$ = 8					; size = 4
__Where$ = 12						; size = 4
__Keyval$ = 12						; size = 4
?find@?$_Tree@V?$_Tmap_traits@KPAVioEtcItem@@U?$less@K@std@@V?$allocator@U?$pair@$$CBKPAVioEtcItem@@@std@@@3@$0A@@std@@@std@@QAE?AV?$_Tree_iterator@V?$_Tree_val@V?$_Tmap_traits@KPAVioEtcItem@@U?$less@K@std@@V?$allocator@U?$pair@$$CBKPAVioEtcItem@@@std@@@3@$0A@@std@@@std@@@2@ABK@Z PROC ; std::_Tree<std::_Tmap_traits<unsigned long,ioEtcItem *,std::less<unsigned long>,std::allocator<std::pair<unsigned long const ,ioEtcItem *> >,0> >::find, COMDAT
; _this$ = ecx

; 1423 : 		{	// find an element in mutable sequence that matches _Keyval

  00000	55		 push	 ebp
  00001	8b ec		 mov	 ebp, esp
  00003	51		 push	 ecx
  00004	56		 push	 esi
  00005	57		 push	 edi

; 1424 : 		iterator _Where = lower_bound(_Keyval);

  00006	8b 7d 0c	 mov	 edi, DWORD PTR __Keyval$[ebp]
  00009	57		 push	 edi
  0000a	8b f1		 mov	 esi, ecx
  0000c	e8 00 00 00 00	 call	 ?_Lbound@?$_Tree@V?$_Tmap_traits@KPAVioEtcItem@@U?$less@K@std@@V?$allocator@U?$pair@$$CBKPAVioEtcItem@@@std@@@3@$0A@@std@@@std@@IAEPAU_Node@?$_Tree_nod@V?$_Tmap_traits@KPAVioEtcItem@@U?$less@K@std@@V?$allocator@U?$pair@$$CBKPAVioEtcItem@@@std@@@3@$0A@@std@@@2@ABK@Z ; std::_Tree<std::_Tmap_traits<unsigned long,ioEtcItem *,std::less<unsigned long>,std::allocator<std::pair<unsigned long const ,ioEtcItem *> >,0> >::_Lbound

; 1425 : 		return (_Where == end()
; 1426 : 			|| _DEBUG_LT_PRED(this->comp,
; 1427 : 				_Keyval, this->_Key(_Where._Mynode()))
; 1428 : 					? end() : _Where);

  00011	8b 76 04	 mov	 esi, DWORD PTR [esi+4]
  00014	89 45 0c	 mov	 DWORD PTR __Where$[ebp], eax
  00017	3b c6		 cmp	 eax, esi
  00019	74 0c		 je	 SHORT $LN3@find
  0001b	8b 0f		 mov	 ecx, DWORD PTR [edi]
  0001d	3b 48 0c	 cmp	 ecx, DWORD PTR [eax+12]
  00020	72 05		 jb	 SHORT $LN3@find
  00022	8d 45 0c	 lea	 eax, DWORD PTR __Where$[ebp]
  00025	eb 06		 jmp	 SHORT $LN4@find
$LN3@find:
  00027	89 75 fc	 mov	 DWORD PTR $T513669[ebp], esi
  0002a	8d 45 fc	 lea	 eax, DWORD PTR $T513669[ebp]
$LN4@find:
  0002d	8b 08		 mov	 ecx, DWORD PTR [eax]
  0002f	8b 45 08	 mov	 eax, DWORD PTR ___$ReturnUdt$[ebp]
  00032	5f		 pop	 edi
  00033	89 08		 mov	 DWORD PTR [eax], ecx
  00035	5e		 pop	 esi

; 1429 : 		}

  00036	c9		 leave
  00037	c2 08 00	 ret	 8
?find@?$_Tree@V?$_Tmap_traits@KPAVioEtcItem@@U?$less@K@std@@V?$allocator@U?$pair@$$CBKPAVioEtcItem@@@std@@@3@$0A@@std@@@std@@QAE?AV?$_Tree_iterator@V?$_Tree_val@V?$_Tmap_traits@KPAVioEtcItem@@U?$less@K@std@@V?$allocator@U?$pair@$$CBKPAVioEtcItem@@@std@@@3@$0A@@std@@@std@@@2@ABK@Z ENDP ; std::_Tree<std::_Tmap_traits<unsigned long,ioEtcItem *,std::less<unsigned long>,std::allocator<std::pair<unsigned long const ,ioEtcItem *> >,0> >::find
_TEXT	ENDS
PUBLIC	?_Reserve@?$vector@PBVioEtcItem@@V?$allocator@PBVioEtcItem@@@std@@@std@@IAEXI@Z ; std::vector<ioEtcItem const *,std::allocator<ioEtcItem const *> >::_Reserve
; Function compile flags: /Ogsp
; File c:\program files (x86)\microsoft visual studio 10.0\vc\include\vector
;	COMDAT ?_Reserve@?$vector@PBVioEtcItem@@V?$allocator@PBVioEtcItem@@@std@@@std@@IAEXI@Z
_TEXT	SEGMENT
__Count$ = 8						; size = 4
?_Reserve@?$vector@PBVioEtcItem@@V?$allocator@PBVioEtcItem@@@std@@@std@@IAEXI@Z PROC ; std::vector<ioEtcItem const *,std::allocator<ioEtcItem const *> >::_Reserve, COMDAT
; _this$ = ecx

; 1290 : 		{	// ensure room for _Count new elements, grow exponentially

  00000	55		 push	 ebp
  00001	8b ec		 mov	 ebp, esp
  00003	56		 push	 esi
  00004	8b f1		 mov	 esi, ecx

; 1291 : 		size_type _Size = size();

  00006	8b 0e		 mov	 ecx, DWORD PTR [esi]
  00008	8b 46 04	 mov	 eax, DWORD PTR [esi+4]
  0000b	2b c1		 sub	 eax, ecx

; 1292 : 		if (max_size() - _Count < _Size)

  0000d	ba ff ff ff 3f	 mov	 edx, 1073741823		; 3fffffffH
  00012	2b 55 08	 sub	 edx, DWORD PTR __Count$[ebp]
  00015	c1 f8 02	 sar	 eax, 2
  00018	3b d0		 cmp	 edx, eax
  0001a	73 0b		 jae	 SHORT $LN4@Reserve

; 1293 : 			_Xlen();

  0001c	68 00 00 00 00	 push	 OFFSET ??_C@_0BD@OLBABOEK@vector?$DMT?$DO?5too?5long?$AA@
  00021	ff 15 00 00 00
	00		 call	 DWORD PTR __imp_?_Xlength_error@std@@YAXPBD@Z
$LN21@Reserve:
$LN4@Reserve:

; 1294 : 		else if ((_Size += _Count) <= capacity())

  00027	8b 56 08	 mov	 edx, DWORD PTR [esi+8]
  0002a	03 45 08	 add	 eax, DWORD PTR __Count$[ebp]
  0002d	2b d1		 sub	 edx, ecx
  0002f	c1 fa 02	 sar	 edx, 2
  00032	3b c2		 cmp	 eax, edx
  00034	76 10		 jbe	 SHORT $LN1@Reserve

; 1295 : 			;
; 1296 : 		else
; 1297 : 			reserve(_Grow_to(_Size));

  00036	50		 push	 eax
  00037	8b ce		 mov	 ecx, esi
  00039	e8 00 00 00 00	 call	 ?_Grow_to@?$vector@PBVioEtcItem@@V?$allocator@PBVioEtcItem@@@std@@@std@@IBEII@Z ; std::vector<ioEtcItem const *,std::allocator<ioEtcItem const *> >::_Grow_to
  0003e	50		 push	 eax
  0003f	8b ce		 mov	 ecx, esi
  00041	e8 00 00 00 00	 call	 ?reserve@?$vector@PBVioEtcItem@@V?$allocator@PBVioEtcItem@@@std@@@std@@QAEXI@Z ; std::vector<ioEtcItem const *,std::allocator<ioEtcItem const *> >::reserve
$LN1@Reserve:
  00046	5e		 pop	 esi

; 1298 : 		}

  00047	5d		 pop	 ebp
  00048	c2 04 00	 ret	 4
$LN20@Reserve:
?_Reserve@?$vector@PBVioEtcItem@@V?$allocator@PBVioEtcItem@@@std@@@std@@IAEXI@Z ENDP ; std::vector<ioEtcItem const *,std::allocator<ioEtcItem const *> >::_Reserve
_TEXT	ENDS
PUBLIC	?erase@?$_Tree@V?$_Tmap_traits@KPAVioEtcItem@@U?$less@K@std@@V?$allocator@U?$pair@$$CBKPAVioEtcItem@@@std@@@3@$0A@@std@@@std@@QAE?AV?$_Tree_iterator@V?$_Tree_val@V?$_Tmap_traits@KPAVioEtcItem@@U?$less@K@std@@V?$allocator@U?$pair@$$CBKPAVioEtcItem@@@std@@@3@$0A@@std@@@std@@@2@V?$_Tree_const_iterator@V?$_Tree_val@V?$_Tmap_traits@KPAVioEtcItem@@U?$less@K@std@@V?$allocator@U?$pair@$$CBKPAVioEtcItem@@@std@@@3@$0A@@std@@@std@@@2@0@Z ; std::_Tree<std::_Tmap_traits<unsigned long,ioEtcItem *,std::less<unsigned long>,std::allocator<std::pair<unsigned long const ,ioEtcItem *> >,0> >::erase
; Function compile flags: /Ogsp
; File c:\program files (x86)\microsoft visual studio 10.0\vc\include\xtree
;	COMDAT ?erase@?$_Tree@V?$_Tmap_traits@KPAVioEtcItem@@U?$less@K@std@@V?$allocator@U?$pair@$$CBKPAVioEtcItem@@@std@@@3@$0A@@std@@@std@@QAE?AV?$_Tree_iterator@V?$_Tree_val@V?$_Tmap_traits@KPAVioEtcItem@@U?$less@K@std@@V?$allocator@U?$pair@$$CBKPAVioEtcItem@@@std@@@3@$0A@@std@@@std@@@2@V?$_Tree_const_iterator@V?$_Tree_val@V?$_Tmap_traits@KPAVioEtcItem@@U?$less@K@std@@V?$allocator@U?$pair@$$CBKPAVioEtcItem@@@std@@@3@$0A@@std@@@std@@@2@0@Z
_TEXT	SEGMENT
$T513836 = -4						; size = 4
___$ReturnUdt$ = 8					; size = 4
__First$ = 12						; size = 4
__Last$ = 16						; size = 4
?erase@?$_Tree@V?$_Tmap_traits@KPAVioEtcItem@@U?$less@K@std@@V?$allocator@U?$pair@$$CBKPAVioEtcItem@@@std@@@3@$0A@@std@@@std@@QAE?AV?$_Tree_iterator@V?$_Tree_val@V?$_Tmap_traits@KPAVioEtcItem@@U?$less@K@std@@V?$allocator@U?$pair@$$CBKPAVioEtcItem@@@std@@@3@$0A@@std@@@std@@@2@V?$_Tree_const_iterator@V?$_Tree_val@V?$_Tmap_traits@KPAVioEtcItem@@U?$less@K@std@@V?$allocator@U?$pair@$$CBKPAVioEtcItem@@@std@@@3@$0A@@std@@@std@@@2@0@Z PROC ; std::_Tree<std::_Tmap_traits<unsigned long,ioEtcItem *,std::less<unsigned long>,std::allocator<std::pair<unsigned long const ,ioEtcItem *> >,0> >::erase, COMDAT
; _this$ = ecx

; 1379 : 		{	// erase [_First, _Last)

  00000	55		 push	 ebp
  00001	8b ec		 mov	 ebp, esp
  00003	51		 push	 ecx
  00004	56		 push	 esi
  00005	8b f1		 mov	 esi, ecx

; 1380 : 		if (_First == begin() && _Last == end())

  00007	8b 46 04	 mov	 eax, DWORD PTR [esi+4]
  0000a	8b 4d 0c	 mov	 ecx, DWORD PTR __First$[ebp]
  0000d	3b 08		 cmp	 ecx, DWORD PTR [eax]
  0000f	75 13		 jne	 SHORT $LN65@erase@3
  00011	39 45 10	 cmp	 DWORD PTR __Last$[ebp], eax
  00014	75 0e		 jne	 SHORT $LN65@erase@3

; 1381 : 			{	// erase all
; 1382 : 			clear();

  00016	8b ce		 mov	 ecx, esi
  00018	e8 00 00 00 00	 call	 ?clear@?$_Tree@V?$_Tmap_traits@KPAVioEtcItem@@U?$less@K@std@@V?$allocator@U?$pair@$$CBKPAVioEtcItem@@@std@@@3@$0A@@std@@@std@@QAEXXZ ; std::_Tree<std::_Tmap_traits<unsigned long,ioEtcItem *,std::less<unsigned long>,std::allocator<std::pair<unsigned long const ,ioEtcItem *> >,0> >::clear

; 1383 : 			return (begin());

  0001d	8b 46 04	 mov	 eax, DWORD PTR [esi+4]
  00020	8b 08		 mov	 ecx, DWORD PTR [eax]
  00022	eb 25		 jmp	 SHORT $LN1@erase@3
$LN65@erase@3:

; 1384 : 			}
; 1385 : 		else
; 1386 : 			{	// partial erase, one at a time
; 1387 : 			while (_First != _Last)

  00024	3b 4d 10	 cmp	 ecx, DWORD PTR __Last$[ebp]
  00027	74 20		 je	 SHORT $LN1@erase@3
  00029	57		 push	 edi
$LL2@erase@3:

; 1388 : 				erase(_First++);

  0002a	8b f9		 mov	 edi, ecx
  0002c	8d 4d 0c	 lea	 ecx, DWORD PTR __First$[ebp]
  0002f	e8 00 00 00 00	 call	 ??E?$_Tree_unchecked_const_iterator@V?$_Tree_val@V?$_Tmap_traits@KPAVioEtcItem@@U?$less@K@std@@V?$allocator@U?$pair@$$CBKPAVioEtcItem@@@std@@@3@$0A@@std@@@std@@U_Iterator_base0@2@@std@@QAEAAV01@XZ ; std::_Tree_unchecked_const_iterator<std::_Tree_val<std::_Tmap_traits<unsigned long,ioEtcItem *,std::less<unsigned long>,std::allocator<std::pair<unsigned long const ,ioEtcItem *> >,0> >,std::_Iterator_base0>::operator++
  00034	57		 push	 edi
  00035	8d 45 fc	 lea	 eax, DWORD PTR $T513836[ebp]
  00038	50		 push	 eax
  00039	8b ce		 mov	 ecx, esi
  0003b	e8 00 00 00 00	 call	 ?erase@?$_Tree@V?$_Tmap_traits@KPAVioEtcItem@@U?$less@K@std@@V?$allocator@U?$pair@$$CBKPAVioEtcItem@@@std@@@3@$0A@@std@@@std@@QAE?AV?$_Tree_iterator@V?$_Tree_val@V?$_Tmap_traits@KPAVioEtcItem@@U?$less@K@std@@V?$allocator@U?$pair@$$CBKPAVioEtcItem@@@std@@@3@$0A@@std@@@std@@@2@V?$_Tree_const_iterator@V?$_Tree_val@V?$_Tmap_traits@KPAVioEtcItem@@U?$less@K@std@@V?$allocator@U?$pair@$$CBKPAVioEtcItem@@@std@@@3@$0A@@std@@@std@@@2@@Z ; std::_Tree<std::_Tmap_traits<unsigned long,ioEtcItem *,std::less<unsigned long>,std::allocator<std::pair<unsigned long const ,ioEtcItem *> >,0> >::erase
  00040	8b 4d 0c	 mov	 ecx, DWORD PTR __First$[ebp]
  00043	3b 4d 10	 cmp	 ecx, DWORD PTR __Last$[ebp]
  00046	75 e2		 jne	 SHORT $LL2@erase@3
  00048	5f		 pop	 edi
$LN1@erase@3:

; 1389 : 			return (iterator(_First._Ptr, this));

  00049	8b 45 08	 mov	 eax, DWORD PTR ___$ReturnUdt$[ebp]
  0004c	89 08		 mov	 DWORD PTR [eax], ecx
  0004e	5e		 pop	 esi

; 1390 : 			}
; 1391 : 		}

  0004f	c9		 leave
  00050	c2 0c 00	 ret	 12			; 0000000cH
?erase@?$_Tree@V?$_Tmap_traits@KPAVioEtcItem@@U?$less@K@std@@V?$allocator@U?$pair@$$CBKPAVioEtcItem@@@std@@@3@$0A@@std@@@std@@QAE?AV?$_Tree_iterator@V?$_Tree_val@V?$_Tmap_traits@KPAVioEtcItem@@U?$less@K@std@@V?$allocator@U?$pair@$$CBKPAVioEtcItem@@@std@@@3@$0A@@std@@@std@@@2@V?$_Tree_const_iterator@V?$_Tree_val@V?$_Tmap_traits@KPAVioEtcItem@@U?$less@K@std@@V?$allocator@U?$pair@$$CBKPAVioEtcItem@@@std@@@3@$0A@@std@@@std@@@2@0@Z ENDP ; std::_Tree<std::_Tmap_traits<unsigned long,ioEtcItem *,std::less<unsigned long>,std::allocator<std::pair<unsigned long const ,ioEtcItem *> >,0> >::erase
_TEXT	ENDS
PUBLIC	??$_Cons_val@V?$allocator@U?$pair@$$CBKPAVioEtcItem@@@std@@@std@@U?$pair@$$CBKPAVioEtcItem@@@2@U32@@std@@YAXAAV?$allocator@U?$pair@$$CBKPAVioEtcItem@@@std@@@0@PAU?$pair@$$CBKPAVioEtcItem@@@0@$$QAU20@@Z ; std::_Cons_val<std::allocator<std::pair<unsigned long const ,ioEtcItem *> >,std::pair<unsigned long const ,ioEtcItem *>,std::pair<unsigned long const ,ioEtcItem *> >
; Function compile flags: /Ogsp
; File c:\program files (x86)\microsoft visual studio 10.0\vc\include\xmemory
;	COMDAT ??$_Cons_val@V?$allocator@U?$pair@$$CBKPAVioEtcItem@@@std@@@std@@U?$pair@$$CBKPAVioEtcItem@@@2@U32@@std@@YAXAAV?$allocator@U?$pair@$$CBKPAVioEtcItem@@@std@@@0@PAU?$pair@$$CBKPAVioEtcItem@@@0@$$QAU20@@Z
_TEXT	SEGMENT
__Alval$ = 8						; size = 4
__Pdest$ = 12						; size = 4
__Src$ = 16						; size = 4
??$_Cons_val@V?$allocator@U?$pair@$$CBKPAVioEtcItem@@@std@@@std@@U?$pair@$$CBKPAVioEtcItem@@@2@U32@@std@@YAXAAV?$allocator@U?$pair@$$CBKPAVioEtcItem@@@std@@@0@PAU?$pair@$$CBKPAVioEtcItem@@@0@$$QAU20@@Z PROC ; std::_Cons_val<std::allocator<std::pair<unsigned long const ,ioEtcItem *> >,std::pair<unsigned long const ,ioEtcItem *>,std::pair<unsigned long const ,ioEtcItem *> >, COMDAT

; 279  : 	{	// construct using allocator

  00000	55		 push	 ebp
  00001	8b ec		 mov	 ebp, esp

; 280  : 	_Alval.construct(_Pdest, _STD forward<_Ty2>(_Src));

  00003	8b 45 0c	 mov	 eax, DWORD PTR __Pdest$[ebp]
  00006	85 c0		 test	 eax, eax
  00008	74 0d		 je	 SHORT $LN7@Cons_val@4
  0000a	8b 4d 10	 mov	 ecx, DWORD PTR __Src$[ebp]
  0000d	8b 11		 mov	 edx, DWORD PTR [ecx]
  0000f	89 10		 mov	 DWORD PTR [eax], edx
  00011	8b 49 04	 mov	 ecx, DWORD PTR [ecx+4]
  00014	89 48 04	 mov	 DWORD PTR [eax+4], ecx
$LN7@Cons_val@4:

; 281  : 	}

  00017	5d		 pop	 ebp
  00018	c3		 ret	 0
??$_Cons_val@V?$allocator@U?$pair@$$CBKPAVioEtcItem@@@std@@@std@@U?$pair@$$CBKPAVioEtcItem@@@2@U32@@std@@YAXAAV?$allocator@U?$pair@$$CBKPAVioEtcItem@@@std@@@0@PAU?$pair@$$CBKPAVioEtcItem@@@0@$$QAU20@@Z ENDP ; std::_Cons_val<std::allocator<std::pair<unsigned long const ,ioEtcItem *> >,std::pair<unsigned long const ,ioEtcItem *>,std::pair<unsigned long const ,ioEtcItem *> >
_TEXT	ENDS
PUBLIC	?clear@?$vector@HV?$allocator@H@std@@@std@@QAEXXZ ; std::vector<int,std::allocator<int> >::clear
; Function compile flags: /Ogsp
; File c:\program files (x86)\microsoft visual studio 10.0\vc\include\vector
;	COMDAT ?clear@?$vector@HV?$allocator@H@std@@@std@@QAEXXZ
_TEXT	SEGMENT
$T514097 = -4						; size = 4
?clear@?$vector@HV?$allocator@H@std@@@std@@QAEXXZ PROC	; std::vector<int,std::allocator<int> >::clear, COMDAT
; _this$ = ecx

; 1217 : 		{	// erase all

  00000	55		 push	 ebp
  00001	8b ec		 mov	 ebp, esp
  00003	51		 push	 ecx

; 1218 : 		erase(begin(), end());

  00004	8b 41 04	 mov	 eax, DWORD PTR [ecx+4]
  00007	8b 11		 mov	 edx, DWORD PTR [ecx]
  00009	50		 push	 eax
  0000a	52		 push	 edx
  0000b	8d 45 fc	 lea	 eax, DWORD PTR $T514097[ebp]
  0000e	50		 push	 eax
  0000f	e8 00 00 00 00	 call	 ?erase@?$vector@HV?$allocator@H@std@@@std@@QAE?AV?$_Vector_iterator@V?$_Vector_val@HV?$allocator@H@std@@@std@@@2@V?$_Vector_const_iterator@V?$_Vector_val@HV?$allocator@H@std@@@std@@@2@0@Z ; std::vector<int,std::allocator<int> >::erase

; 1219 : 		}

  00014	c9		 leave
  00015	c3		 ret	 0
?clear@?$vector@HV?$allocator@H@std@@@std@@QAEXXZ ENDP	; std::vector<int,std::allocator<int> >::clear
_TEXT	ENDS
PUBLIC	?_Reserve@?$vector@HV?$allocator@H@std@@@std@@IAEXI@Z ; std::vector<int,std::allocator<int> >::_Reserve
; Function compile flags: /Ogsp
;	COMDAT ?_Reserve@?$vector@HV?$allocator@H@std@@@std@@IAEXI@Z
_TEXT	SEGMENT
__Count$ = 8						; size = 4
?_Reserve@?$vector@HV?$allocator@H@std@@@std@@IAEXI@Z PROC ; std::vector<int,std::allocator<int> >::_Reserve, COMDAT
; _this$ = ecx

; 1290 : 		{	// ensure room for _Count new elements, grow exponentially

  00000	55		 push	 ebp
  00001	8b ec		 mov	 ebp, esp
  00003	56		 push	 esi
  00004	8b f1		 mov	 esi, ecx

; 1291 : 		size_type _Size = size();

  00006	8b 0e		 mov	 ecx, DWORD PTR [esi]
  00008	8b 46 04	 mov	 eax, DWORD PTR [esi+4]
  0000b	2b c1		 sub	 eax, ecx

; 1292 : 		if (max_size() - _Count < _Size)

  0000d	ba ff ff ff 3f	 mov	 edx, 1073741823		; 3fffffffH
  00012	2b 55 08	 sub	 edx, DWORD PTR __Count$[ebp]
  00015	c1 f8 02	 sar	 eax, 2
  00018	3b d0		 cmp	 edx, eax
  0001a	73 0b		 jae	 SHORT $LN4@Reserve@2

; 1293 : 			_Xlen();

  0001c	68 00 00 00 00	 push	 OFFSET ??_C@_0BD@OLBABOEK@vector?$DMT?$DO?5too?5long?$AA@
  00021	ff 15 00 00 00
	00		 call	 DWORD PTR __imp_?_Xlength_error@std@@YAXPBD@Z
$LN21@Reserve@2:
$LN4@Reserve@2:

; 1294 : 		else if ((_Size += _Count) <= capacity())

  00027	8b 56 08	 mov	 edx, DWORD PTR [esi+8]
  0002a	03 45 08	 add	 eax, DWORD PTR __Count$[ebp]
  0002d	2b d1		 sub	 edx, ecx
  0002f	c1 fa 02	 sar	 edx, 2
  00032	3b c2		 cmp	 eax, edx
  00034	76 10		 jbe	 SHORT $LN1@Reserve@2

; 1295 : 			;
; 1296 : 		else
; 1297 : 			reserve(_Grow_to(_Size));

  00036	50		 push	 eax
  00037	8b ce		 mov	 ecx, esi
  00039	e8 00 00 00 00	 call	 ?_Grow_to@?$vector@HV?$allocator@H@std@@@std@@IBEII@Z ; std::vector<int,std::allocator<int> >::_Grow_to
  0003e	50		 push	 eax
  0003f	8b ce		 mov	 ecx, esi
  00041	e8 00 00 00 00	 call	 ?reserve@?$vector@HV?$allocator@H@std@@@std@@QAEXI@Z ; std::vector<int,std::allocator<int> >::reserve
$LN1@Reserve@2:
  00046	5e		 pop	 esi

; 1298 : 		}

  00047	5d		 pop	 ebp
  00048	c2 04 00	 ret	 4
$LN20@Reserve@2:
?_Reserve@?$vector@HV?$allocator@H@std@@@std@@IAEXI@Z ENDP ; std::vector<int,std::allocator<int> >::_Reserve
_TEXT	ENDS
PUBLIC	?ClearEtcItemList@ioEtcItemManager@@IAEXXZ	; ioEtcItemManager::ClearEtcItemList
; Function compile flags: /Ogsp
; File d:\lost saga for developer\youtube\tutorial\source\src\lsclient\ioetcitemmanager.cpp
;	COMDAT ?ClearEtcItemList@ioEtcItemManager@@IAEXXZ
_TEXT	SEGMENT
_iter$ = -4						; size = 4
?ClearEtcItemList@ioEtcItemManager@@IAEXXZ PROC		; ioEtcItemManager::ClearEtcItemList, COMDAT
; _this$ = ecx

; 26   : {

  00000	55		 push	 ebp
  00001	8b ec		 mov	 ebp, esp
  00003	51		 push	 ecx
  00004	56		 push	 esi
  00005	8b f1		 mov	 esi, ecx

; 27   : 	EtcItemMap::iterator iter;
; 28   : 	for( iter=m_EtcItemMap.begin() ; iter!=m_EtcItemMap.end() ; ++iter )

  00007	8b 4e 08	 mov	 ecx, DWORD PTR [esi+8]
  0000a	8b 01		 mov	 eax, DWORD PTR [ecx]
  0000c	89 45 fc	 mov	 DWORD PTR _iter$[ebp], eax
  0000f	3b c1		 cmp	 eax, ecx
  00011	74 20		 je	 SHORT $LN1@ClearEtcIt
$LL30@ClearEtcIt:

; 29   : 	{
; 30   : 		delete iter->second;

  00013	8b 40 10	 mov	 eax, DWORD PTR [eax+16]
  00016	85 c0		 test	 eax, eax
  00018	74 09		 je	 SHORT $LN2@ClearEtcIt
  0001a	8b 10		 mov	 edx, DWORD PTR [eax]
  0001c	6a 01		 push	 1
  0001e	8b c8		 mov	 ecx, eax
  00020	ff 52 3c	 call	 DWORD PTR [edx+60]
$LN2@ClearEtcIt:

; 27   : 	EtcItemMap::iterator iter;
; 28   : 	for( iter=m_EtcItemMap.begin() ; iter!=m_EtcItemMap.end() ; ++iter )

  00023	8d 4d fc	 lea	 ecx, DWORD PTR _iter$[ebp]
  00026	e8 00 00 00 00	 call	 ??E?$_Tree_unchecked_const_iterator@V?$_Tree_val@V?$_Tmap_traits@KPAVioEtcItem@@U?$less@K@std@@V?$allocator@U?$pair@$$CBKPAVioEtcItem@@@std@@@3@$0A@@std@@@std@@U_Iterator_base0@2@@std@@QAEAAV01@XZ ; std::_Tree_unchecked_const_iterator<std::_Tree_val<std::_Tmap_traits<unsigned long,ioEtcItem *,std::less<unsigned long>,std::allocator<std::pair<unsigned long const ,ioEtcItem *> >,0> >,std::_Iterator_base0>::operator++
  0002b	8b 45 fc	 mov	 eax, DWORD PTR _iter$[ebp]
  0002e	3b 46 08	 cmp	 eax, DWORD PTR [esi+8]
  00031	75 e0		 jne	 SHORT $LL30@ClearEtcIt
$LN1@ClearEtcIt:

; 31   : 	}
; 32   : 	m_EtcItemMap.clear();

  00033	8d 4e 04	 lea	 ecx, DWORD PTR [esi+4]
  00036	e8 00 00 00 00	 call	 ?clear@?$_Tree@V?$_Tmap_traits@KPAVioEtcItem@@U?$less@K@std@@V?$allocator@U?$pair@$$CBKPAVioEtcItem@@@std@@@3@$0A@@std@@@std@@QAEXXZ ; std::_Tree<std::_Tmap_traits<unsigned long,ioEtcItem *,std::less<unsigned long>,std::allocator<std::pair<unsigned long const ,ioEtcItem *> >,0> >::clear
  0003b	5e		 pop	 esi

; 33   : }

  0003c	c9		 leave
  0003d	c3		 ret	 0
?ClearEtcItemList@ioEtcItemManager@@IAEXXZ ENDP		; ioEtcItemManager::ClearEtcItemList
_TEXT	ENDS
PUBLIC	?FindEtcItem@ioEtcItemManager@@QAEPAVioEtcItem@@K@Z ; ioEtcItemManager::FindEtcItem
; Function compile flags: /Ogsp
;	COMDAT ?FindEtcItem@ioEtcItemManager@@QAEPAVioEtcItem@@K@Z
_TEXT	SEGMENT
$T514330 = -4						; size = 4
_dwType$ = 8						; size = 4
?FindEtcItem@ioEtcItemManager@@QAEPAVioEtcItem@@K@Z PROC ; ioEtcItemManager::FindEtcItem, COMDAT
; _this$ = ecx

; 380  : {

  00000	55		 push	 ebp
  00001	8b ec		 mov	 ebp, esp
  00003	51		 push	 ecx
  00004	56		 push	 esi

; 381  : 	dwType = GetEtcItemTypeExceptClass( dwType );

  00005	ff 75 08	 push	 DWORD PTR _dwType$[ebp]
  00008	8b f1		 mov	 esi, ecx
  0000a	e8 00 00 00 00	 call	 ?GetEtcItemTypeExceptClass@ioEtcItemManager@@IAEKK@Z ; ioEtcItemManager::GetEtcItemTypeExceptClass
  0000f	89 45 08	 mov	 DWORD PTR _dwType$[ebp], eax

; 382  : 	EtcItemMap::const_iterator iter = m_EtcItemMap.find( dwType );

  00012	8d 45 08	 lea	 eax, DWORD PTR _dwType$[ebp]
  00015	50		 push	 eax
  00016	8d 45 fc	 lea	 eax, DWORD PTR $T514330[ebp]
  00019	50		 push	 eax
  0001a	8d 4e 04	 lea	 ecx, DWORD PTR [esi+4]
  0001d	e8 00 00 00 00	 call	 ?find@?$_Tree@V?$_Tmap_traits@KPAVioEtcItem@@U?$less@K@std@@V?$allocator@U?$pair@$$CBKPAVioEtcItem@@@std@@@3@$0A@@std@@@std@@QAE?AV?$_Tree_iterator@V?$_Tree_val@V?$_Tmap_traits@KPAVioEtcItem@@U?$less@K@std@@V?$allocator@U?$pair@$$CBKPAVioEtcItem@@@std@@@3@$0A@@std@@@std@@@2@ABK@Z ; std::_Tree<std::_Tmap_traits<unsigned long,ioEtcItem *,std::less<unsigned long>,std::allocator<std::pair<unsigned long const ,ioEtcItem *> >,0> >::find
  00022	8b 00		 mov	 eax, DWORD PTR [eax]

; 383  : 	if( iter != m_EtcItemMap.end() )

  00024	3b 46 08	 cmp	 eax, DWORD PTR [esi+8]
  00027	5e		 pop	 esi
  00028	74 05		 je	 SHORT $LN1@FindEtcIte@3

; 384  : 		return iter->second;

  0002a	8b 40 10	 mov	 eax, DWORD PTR [eax+16]
  0002d	eb 02		 jmp	 SHORT $LN2@FindEtcIte@3
$LN1@FindEtcIte@3:

; 385  : 
; 386  : 	return NULL;

  0002f	33 c0		 xor	 eax, eax
$LN2@FindEtcIte@3:

; 387  : }

  00031	c9		 leave
  00032	c2 04 00	 ret	 4
?FindEtcItem@ioEtcItemManager@@QAEPAVioEtcItem@@K@Z ENDP ; ioEtcItemManager::FindEtcItem
_TEXT	ENDS
PUBLIC	?push_back@?$vector@HV?$allocator@H@std@@@std@@QAEX$$QAH@Z ; std::vector<int,std::allocator<int> >::push_back
; Function compile flags: /Ogsp
; File c:\program files (x86)\microsoft visual studio 10.0\vc\include\vector
;	COMDAT ?push_back@?$vector@HV?$allocator@H@std@@@std@@QAEX$$QAH@Z
_TEXT	SEGMENT
__Val$ = 8						; size = 4
?push_back@?$vector@HV?$allocator@H@std@@@std@@QAEX$$QAH@Z PROC ; std::vector<int,std::allocator<int> >::push_back, COMDAT
; _this$ = ecx

; 631  : 		{	// insert element at end

  00000	55		 push	 ebp
  00001	8b ec		 mov	 ebp, esp
  00003	56		 push	 esi
  00004	8b f1		 mov	 esi, ecx

; 632  : 		if (_Inside(_STD addressof(_Val)))

  00006	8b 46 04	 mov	 eax, DWORD PTR [esi+4]
  00009	57		 push	 edi
  0000a	8b 7d 08	 mov	 edi, DWORD PTR __Val$[ebp]
  0000d	3b f8		 cmp	 edi, eax
  0000f	73 27		 jae	 SHORT $LN4@push_back
  00011	8b 0e		 mov	 ecx, DWORD PTR [esi]
  00013	3b cf		 cmp	 ecx, edi
  00015	77 21		 ja	 SHORT $LN4@push_back

; 633  : 			{	// push back an element
; 634  : 			size_type _Idx = _STD addressof(_Val) - this->_Myfirst;

  00017	2b f9		 sub	 edi, ecx
  00019	c1 ff 02	 sar	 edi, 2

; 635  : 			if (this->_Mylast == this->_Myend)

  0001c	3b 46 08	 cmp	 eax, DWORD PTR [esi+8]
  0001f	75 09		 jne	 SHORT $LN3@push_back

; 636  : 				_Reserve(1);

  00021	6a 01		 push	 1
  00023	8b ce		 mov	 ecx, esi
  00025	e8 00 00 00 00	 call	 ?_Reserve@?$vector@HV?$allocator@H@std@@@std@@IAEXI@Z ; std::vector<int,std::allocator<int> >::_Reserve
$LN3@push_back:

; 637  : 			_Orphan_range(this->_Mylast, this->_Mylast);
; 638  : 			_Cons_val(this->_Alval,
; 639  : 				this->_Mylast,
; 640  : 				_STD forward<_Ty>(this->_Myfirst[_Idx]));

  0002a	8b 46 04	 mov	 eax, DWORD PTR [esi+4]
  0002d	85 c0		 test	 eax, eax
  0002f	74 20		 je	 SHORT $LN41@push_back
  00031	8b 0e		 mov	 ecx, DWORD PTR [esi]
  00033	8b 0c b9	 mov	 ecx, DWORD PTR [ecx+edi*4]

; 641  : 			++this->_Mylast;
; 642  : 			}
; 643  : 		else

  00036	eb 17		 jmp	 SHORT $LN48@push_back
$LN4@push_back:

; 644  : 			{	// push back a non-element
; 645  : 			if (this->_Mylast == this->_Myend)

  00038	3b 46 08	 cmp	 eax, DWORD PTR [esi+8]
  0003b	75 09		 jne	 SHORT $LN1@push_back

; 646  : 				_Reserve(1);

  0003d	6a 01		 push	 1
  0003f	8b ce		 mov	 ecx, esi
  00041	e8 00 00 00 00	 call	 ?_Reserve@?$vector@HV?$allocator@H@std@@@std@@IAEXI@Z ; std::vector<int,std::allocator<int> >::_Reserve
$LN1@push_back:

; 647  : 			_Orphan_range(this->_Mylast, this->_Mylast);
; 648  : 			_Cons_val(this->_Alval,
; 649  : 				this->_Mylast,
; 650  : 				_STD forward<_Ty>(_Val));

  00046	8b 46 04	 mov	 eax, DWORD PTR [esi+4]
  00049	85 c0		 test	 eax, eax
  0004b	74 04		 je	 SHORT $LN41@push_back
  0004d	8b 0f		 mov	 ecx, DWORD PTR [edi]
$LN48@push_back:
  0004f	89 08		 mov	 DWORD PTR [eax], ecx
$LN41@push_back:

; 651  : 			++this->_Mylast;

  00051	83 46 04 04	 add	 DWORD PTR [esi+4], 4
  00055	5f		 pop	 edi
  00056	5e		 pop	 esi

; 652  : 			}
; 653  : 		}

  00057	5d		 pop	 ebp
  00058	c2 04 00	 ret	 4
?push_back@?$vector@HV?$allocator@H@std@@@std@@QAEX$$QAH@Z ENDP ; std::vector<int,std::allocator<int> >::push_back
_TEXT	ENDS
PUBLIC	?push_back@?$vector@PBVioEtcItem@@V?$allocator@PBVioEtcItem@@@std@@@std@@QAEXABQBVioEtcItem@@@Z ; std::vector<ioEtcItem const *,std::allocator<ioEtcItem const *> >::push_back
; Function compile flags: /Ogsp
;	COMDAT ?push_back@?$vector@PBVioEtcItem@@V?$allocator@PBVioEtcItem@@@std@@@std@@QAEXABQBVioEtcItem@@@Z
_TEXT	SEGMENT
__Val$ = 8						; size = 4
?push_back@?$vector@PBVioEtcItem@@V?$allocator@PBVioEtcItem@@@std@@@std@@QAEXABQBVioEtcItem@@@Z PROC ; std::vector<ioEtcItem const *,std::allocator<ioEtcItem const *> >::push_back, COMDAT
; _this$ = ecx

; 976  : 		{	// insert element at end

  00000	55		 push	 ebp
  00001	8b ec		 mov	 ebp, esp
  00003	56		 push	 esi
  00004	8b f1		 mov	 esi, ecx

; 977  : 		if (_Inside(_STD addressof(_Val)))

  00006	8b 46 04	 mov	 eax, DWORD PTR [esi+4]
  00009	57		 push	 edi
  0000a	8b 7d 08	 mov	 edi, DWORD PTR __Val$[ebp]
  0000d	3b f8		 cmp	 edi, eax
  0000f	73 27		 jae	 SHORT $LN4@push_back@2
  00011	8b 0e		 mov	 ecx, DWORD PTR [esi]
  00013	3b cf		 cmp	 ecx, edi
  00015	77 21		 ja	 SHORT $LN4@push_back@2

; 978  : 			{	// push back an element
; 979  : 			size_type _Idx = _STD addressof(_Val) - this->_Myfirst;

  00017	2b f9		 sub	 edi, ecx
  00019	c1 ff 02	 sar	 edi, 2

; 980  : 			if (this->_Mylast == this->_Myend)

  0001c	3b 46 08	 cmp	 eax, DWORD PTR [esi+8]
  0001f	75 09		 jne	 SHORT $LN3@push_back@2

; 981  : 				_Reserve(1);

  00021	6a 01		 push	 1
  00023	8b ce		 mov	 ecx, esi
  00025	e8 00 00 00 00	 call	 ?_Reserve@?$vector@PBVioEtcItem@@V?$allocator@PBVioEtcItem@@@std@@@std@@IAEXI@Z ; std::vector<ioEtcItem const *,std::allocator<ioEtcItem const *> >::_Reserve
$LN3@push_back@2:

; 982  : 			_Orphan_range(this->_Mylast, this->_Mylast);
; 983  : 			_Cons_val(this->_Alval,
; 984  : 				this->_Mylast,
; 985  : 				this->_Myfirst[_Idx]);

  0002a	8b 46 04	 mov	 eax, DWORD PTR [esi+4]
  0002d	85 c0		 test	 eax, eax
  0002f	74 20		 je	 SHORT $LN39@push_back@2
  00031	8b 0e		 mov	 ecx, DWORD PTR [esi]
  00033	8b 0c b9	 mov	 ecx, DWORD PTR [ecx+edi*4]

; 986  : 			++this->_Mylast;
; 987  : 			}
; 988  : 		else

  00036	eb 17		 jmp	 SHORT $LN46@push_back@2
$LN4@push_back@2:

; 989  : 			{	// push back a non-element
; 990  : 			if (this->_Mylast == this->_Myend)

  00038	3b 46 08	 cmp	 eax, DWORD PTR [esi+8]
  0003b	75 09		 jne	 SHORT $LN1@push_back@2

; 991  : 				_Reserve(1);

  0003d	6a 01		 push	 1
  0003f	8b ce		 mov	 ecx, esi
  00041	e8 00 00 00 00	 call	 ?_Reserve@?$vector@PBVioEtcItem@@V?$allocator@PBVioEtcItem@@@std@@@std@@IAEXI@Z ; std::vector<ioEtcItem const *,std::allocator<ioEtcItem const *> >::_Reserve
$LN1@push_back@2:

; 992  : 			_Orphan_range(this->_Mylast, this->_Mylast);
; 993  : 			_Cons_val(this->_Alval,
; 994  : 				this->_Mylast,
; 995  : 				_Val);

  00046	8b 46 04	 mov	 eax, DWORD PTR [esi+4]
  00049	85 c0		 test	 eax, eax
  0004b	74 04		 je	 SHORT $LN39@push_back@2
  0004d	8b 0f		 mov	 ecx, DWORD PTR [edi]
$LN46@push_back@2:
  0004f	89 08		 mov	 DWORD PTR [eax], ecx
$LN39@push_back@2:

; 996  : 			++this->_Mylast;

  00051	83 46 04 04	 add	 DWORD PTR [esi+4], 4
  00055	5f		 pop	 edi
  00056	5e		 pop	 esi

; 997  : 			}
; 998  : 		}

  00057	5d		 pop	 ebp
  00058	c2 04 00	 ret	 4
?push_back@?$vector@PBVioEtcItem@@V?$allocator@PBVioEtcItem@@@std@@@std@@QAEXABQBVioEtcItem@@@Z ENDP ; std::vector<ioEtcItem const *,std::allocator<ioEtcItem const *> >::push_back
_TEXT	ENDS
PUBLIC	?_Tidy@?$_Tree@V?$_Tmap_traits@KPAVioEtcItem@@U?$less@K@std@@V?$allocator@U?$pair@$$CBKPAVioEtcItem@@@std@@@3@$0A@@std@@@std@@IAEXXZ ; std::_Tree<std::_Tmap_traits<unsigned long,ioEtcItem *,std::less<unsigned long>,std::allocator<std::pair<unsigned long const ,ioEtcItem *> >,0> >::_Tidy
; Function compile flags: /Ogsp
; File c:\program files (x86)\microsoft visual studio 10.0\vc\include\xtree
;	COMDAT ?_Tidy@?$_Tree@V?$_Tmap_traits@KPAVioEtcItem@@U?$less@K@std@@V?$allocator@U?$pair@$$CBKPAVioEtcItem@@@std@@@3@$0A@@std@@@std@@IAEXXZ
_TEXT	SEGMENT
$T514629 = -4						; size = 4
?_Tidy@?$_Tree@V?$_Tmap_traits@KPAVioEtcItem@@U?$less@K@std@@V?$allocator@U?$pair@$$CBKPAVioEtcItem@@@std@@@3@$0A@@std@@@std@@IAEXXZ PROC ; std::_Tree<std::_Tmap_traits<unsigned long,ioEtcItem *,std::less<unsigned long>,std::allocator<std::pair<unsigned long const ,ioEtcItem *> >,0> >::_Tidy, COMDAT
; _this$ = ecx

; 1865 : 		{	// free all storage

  00000	55		 push	 ebp
  00001	8b ec		 mov	 ebp, esp
  00003	51		 push	 ecx

; 1866 : 		erase(begin(), end());

  00004	8b 41 04	 mov	 eax, DWORD PTR [ecx+4]
  00007	8b 10		 mov	 edx, DWORD PTR [eax]
  00009	50		 push	 eax
  0000a	52		 push	 edx
  0000b	8d 45 fc	 lea	 eax, DWORD PTR $T514629[ebp]
  0000e	50		 push	 eax
  0000f	e8 00 00 00 00	 call	 ?erase@?$_Tree@V?$_Tmap_traits@KPAVioEtcItem@@U?$less@K@std@@V?$allocator@U?$pair@$$CBKPAVioEtcItem@@@std@@@3@$0A@@std@@@std@@QAE?AV?$_Tree_iterator@V?$_Tree_val@V?$_Tmap_traits@KPAVioEtcItem@@U?$less@K@std@@V?$allocator@U?$pair@$$CBKPAVioEtcItem@@@std@@@3@$0A@@std@@@std@@@2@V?$_Tree_const_iterator@V?$_Tree_val@V?$_Tmap_traits@KPAVioEtcItem@@U?$less@K@std@@V?$allocator@U?$pair@$$CBKPAVioEtcItem@@@std@@@3@$0A@@std@@@std@@@2@0@Z ; std::_Tree<std::_Tmap_traits<unsigned long,ioEtcItem *,std::less<unsigned long>,std::allocator<std::pair<unsigned long const ,ioEtcItem *> >,0> >::erase

; 1867 : 		}

  00014	c9		 leave
  00015	c3		 ret	 0
?_Tidy@?$_Tree@V?$_Tmap_traits@KPAVioEtcItem@@U?$less@K@std@@V?$allocator@U?$pair@$$CBKPAVioEtcItem@@@std@@@3@$0A@@std@@@std@@IAEXXZ ENDP ; std::_Tree<std::_Tmap_traits<unsigned long,ioEtcItem *,std::less<unsigned long>,std::allocator<std::pair<unsigned long const ,ioEtcItem *> >,0> >::_Tidy
_TEXT	ENDS
PUBLIC	??$_Buynode@U?$pair@$$CBKPAVioEtcItem@@@std@@@?$_Tree_val@V?$_Tmap_traits@KPAVioEtcItem@@U?$less@K@std@@V?$allocator@U?$pair@$$CBKPAVioEtcItem@@@std@@@3@$0A@@std@@@std@@QAEPAU_Node@?$_Tree_nod@V?$_Tmap_traits@KPAVioEtcItem@@U?$less@K@std@@V?$allocator@U?$pair@$$CBKPAVioEtcItem@@@std@@@3@$0A@@std@@@1@$$QAU?$pair@$$CBKPAVioEtcItem@@@1@@Z ; std::_Tree_val<std::_Tmap_traits<unsigned long,ioEtcItem *,std::less<unsigned long>,std::allocator<std::pair<unsigned long const ,ioEtcItem *> >,0> >::_Buynode<std::pair<unsigned long const ,ioEtcItem *> >
; Function compile flags: /Ogsp
;	COMDAT ??$_Buynode@U?$pair@$$CBKPAVioEtcItem@@@std@@@?$_Tree_val@V?$_Tmap_traits@KPAVioEtcItem@@U?$less@K@std@@V?$allocator@U?$pair@$$CBKPAVioEtcItem@@@std@@@3@$0A@@std@@@std@@QAEPAU_Node@?$_Tree_nod@V?$_Tmap_traits@KPAVioEtcItem@@U?$less@K@std@@V?$allocator@U?$pair@$$CBKPAVioEtcItem@@@std@@@3@$0A@@std@@@1@$$QAU?$pair@$$CBKPAVioEtcItem@@@1@@Z
_TEXT	SEGMENT
__Val$ = 8						; size = 4
??$_Buynode@U?$pair@$$CBKPAVioEtcItem@@@std@@@?$_Tree_val@V?$_Tmap_traits@KPAVioEtcItem@@U?$less@K@std@@V?$allocator@U?$pair@$$CBKPAVioEtcItem@@@std@@@3@$0A@@std@@@std@@QAEPAU_Node@?$_Tree_nod@V?$_Tmap_traits@KPAVioEtcItem@@U?$less@K@std@@V?$allocator@U?$pair@$$CBKPAVioEtcItem@@@std@@@3@$0A@@std@@@1@$$QAU?$pair@$$CBKPAVioEtcItem@@@1@@Z PROC ; std::_Tree_val<std::_Tmap_traits<unsigned long,ioEtcItem *,std::less<unsigned long>,std::allocator<std::pair<unsigned long const ,ioEtcItem *> >,0> >::_Buynode<std::pair<unsigned long const ,ioEtcItem *> >, COMDAT
; _this$ = ecx

; 586  : 		_Nodeptr _Buynode(_Valty&& _Val)

  00000	55		 push	 ebp
  00001	8b ec		 mov	 ebp, esp
  00003	56		 push	 esi
  00004	57		 push	 edi
  00005	8b f1		 mov	 esi, ecx

; 587  : 		{	// allocate a node with defaults
; 588  : 		_Nodeptr _Wherenode = _Buynode();

  00007	e8 00 00 00 00	 call	 ?_Buynode@?$_Tree_val@V?$_Tmap_traits@KPAVioEtcItem@@U?$less@K@std@@V?$allocator@U?$pair@$$CBKPAVioEtcItem@@@std@@@3@$0A@@std@@@std@@QAEPAU_Node@?$_Tree_nod@V?$_Tmap_traits@KPAVioEtcItem@@U?$less@K@std@@V?$allocator@U?$pair@$$CBKPAVioEtcItem@@@std@@@3@$0A@@std@@@2@XZ ; std::_Tree_val<std::_Tmap_traits<unsigned long,ioEtcItem *,std::less<unsigned long>,std::allocator<std::pair<unsigned long const ,ioEtcItem *> >,0> >::_Buynode

; 589  : 
; 590  : 		_TRY_BEGIN
; 591  : 		_Cons_val(this->_Alval, _STD addressof(this->_Myval(_Wherenode)),
; 592  : 			_STD forward<_Valty>(_Val));

  0000c	ff 75 08	 push	 DWORD PTR __Val$[ebp]
  0000f	8b f8		 mov	 edi, eax
  00011	8d 47 0c	 lea	 eax, DWORD PTR [edi+12]
  00014	50		 push	 eax
  00015	83 c6 0d	 add	 esi, 13			; 0000000dH
  00018	56		 push	 esi
  00019	e8 00 00 00 00	 call	 ??$_Cons_val@V?$allocator@U?$pair@$$CBKPAVioEtcItem@@@std@@@std@@U?$pair@$$CBKPAVioEtcItem@@@2@U32@@std@@YAXAAV?$allocator@U?$pair@$$CBKPAVioEtcItem@@@std@@@0@PAU?$pair@$$CBKPAVioEtcItem@@@0@$$QAU20@@Z ; std::_Cons_val<std::allocator<std::pair<unsigned long const ,ioEtcItem *> >,std::pair<unsigned long const ,ioEtcItem *>,std::pair<unsigned long const ,ioEtcItem *> >
  0001e	83 c4 0c	 add	 esp, 12			; 0000000cH

; 593  : 		_CATCH_ALL
; 594  : 		this->_Alnod.deallocate(_Wherenode, 1);
; 595  : 		_RERAISE;
; 596  : 		_CATCH_END
; 597  : 
; 598  : 		return (_Wherenode);

  00021	8b c7		 mov	 eax, edi
  00023	5f		 pop	 edi
  00024	5e		 pop	 esi

; 599  : 		}

  00025	5d		 pop	 ebp
  00026	c2 04 00	 ret	 4
??$_Buynode@U?$pair@$$CBKPAVioEtcItem@@@std@@@?$_Tree_val@V?$_Tmap_traits@KPAVioEtcItem@@U?$less@K@std@@V?$allocator@U?$pair@$$CBKPAVioEtcItem@@@std@@@3@$0A@@std@@@std@@QAEPAU_Node@?$_Tree_nod@V?$_Tmap_traits@KPAVioEtcItem@@U?$less@K@std@@V?$allocator@U?$pair@$$CBKPAVioEtcItem@@@std@@@3@$0A@@std@@@1@$$QAU?$pair@$$CBKPAVioEtcItem@@@1@@Z ENDP ; std::_Tree_val<std::_Tmap_traits<unsigned long,ioEtcItem *,std::less<unsigned long>,std::allocator<std::pair<unsigned long const ,ioEtcItem *> >,0> >::_Buynode<std::pair<unsigned long const ,ioEtcItem *> >
_TEXT	ENDS
PUBLIC	?FindAllEtcItemMacro@ioEtcItemManager@@QAEXPBDAAV?$vector@HV?$allocator@H@std@@@std@@@Z ; ioEtcItemManager::FindAllEtcItemMacro
;	COMDAT xdata$x
xdata$x	SEGMENT
__unwindtable$?FindAllEtcItemMacro@ioEtcItemManager@@QAEXPBDAAV?$vector@HV?$allocator@H@std@@@std@@@Z DD 0ffffffffH
	DD	FLAT:__unwindfunclet$?FindAllEtcItemMacro@ioEtcItemManager@@QAEXPBDAAV?$vector@HV?$allocator@H@std@@@std@@@Z$0
__ehfuncinfo$?FindAllEtcItemMacro@ioEtcItemManager@@QAEXPBDAAV?$vector@HV?$allocator@H@std@@@std@@@Z DD 019930522H
	DD	01H
	DD	FLAT:__unwindtable$?FindAllEtcItemMacro@ioEtcItemManager@@QAEXPBDAAV?$vector@HV?$allocator@H@std@@@std@@@Z
	DD	2 DUP(00H)
	DD	2 DUP(00H)
	DD	00H
	DD	01H
; Function compile flags: /Ogsp
; File d:\lost saga for developer\youtube\tutorial\source\src\lsclient\ioetcitemmanager.cpp
xdata$x	ENDS
;	COMDAT ?FindAllEtcItemMacro@ioEtcItemManager@@QAEXPBDAAV?$vector@HV?$allocator@H@std@@@std@@@Z
_TEXT	SEGMENT
$T514741 = -32						; size = 16
_iter$ = -16						; size = 4
__$EHRec$ = -12						; size = 12
_szMacro$ = 8						; size = 4
$T514806 = 12						; size = 4
$T514742 = 12						; size = 4
_TypeList$ = 12						; size = 4
$T514740 = 15						; size = 1
?FindAllEtcItemMacro@ioEtcItemManager@@QAEXPBDAAV?$vector@HV?$allocator@H@std@@@std@@@Z PROC ; ioEtcItemManager::FindAllEtcItemMacro, COMDAT
; _this$ = ecx

; 426  : {

  00000	6a 14		 push	 20			; 00000014H
  00002	b8 00 00 00 00	 mov	 eax, __ehhandler$?FindAllEtcItemMacro@ioEtcItemManager@@QAEXPBDAAV?$vector@HV?$allocator@H@std@@@std@@@Z
  00007	e8 00 00 00 00	 call	 __EH_prolog3
  0000c	8b d9		 mov	 ebx, ecx

; 427  : 	TypeList.clear();

  0000e	8b 75 0c	 mov	 esi, DWORD PTR _TypeList$[ebp]
  00011	8b 46 04	 mov	 eax, DWORD PTR [esi+4]
  00014	8b 0e		 mov	 ecx, DWORD PTR [esi]
  00016	50		 push	 eax
  00017	51		 push	 ecx
  00018	8d 45 0c	 lea	 eax, DWORD PTR $T514806[ebp]
  0001b	50		 push	 eax
  0001c	8b ce		 mov	 ecx, esi
  0001e	e8 00 00 00 00	 call	 ?erase@?$vector@HV?$allocator@H@std@@@std@@QAE?AV?$_Vector_iterator@V?$_Vector_val@HV?$allocator@H@std@@@std@@@2@V?$_Vector_const_iterator@V?$_Vector_val@HV?$allocator@H@std@@@std@@@2@0@Z ; std::vector<int,std::allocator<int> >::erase

; 428  : 
; 429  : 	EtcItemMap::const_iterator iter;
; 430  : 	for( iter=m_EtcItemMap.begin() ; iter!=m_EtcItemMap.end() ; ++iter )

  00023	8b 43 08	 mov	 eax, DWORD PTR [ebx+8]
  00026	8b 08		 mov	 ecx, DWORD PTR [eax]
  00028	89 4d f0	 mov	 DWORD PTR _iter$[ebp], ecx
  0002b	3b c8		 cmp	 ecx, eax
  0002d	0f 84 98 00 00
	00		 je	 $LN6@FindAllEtc
$LL48@FindAllEtc:

; 431  : 	{
; 432  : 		if( COMPARE( iter->first, ioEtcItem::EIT_ETC_MOTION1, ioEtcItem::EIT_ETC_MOTION100 + 1 ) ||
; 433  : 			COMPARE( iter->first, ioEtcItem::EIT_ETC_MOTION101, ioEtcItem::EIT_ETC_MOTION400 + 1 ) )

  00033	8b 41 0c	 mov	 eax, DWORD PTR [ecx+12]
  00036	3d 66 09 3d 00	 cmp	 eax, 4000102		; 003d0966H
  0003b	72 07		 jb	 SHORT $LN3@FindAllEtc
  0003d	3d ca 09 3d 00	 cmp	 eax, 4000202		; 003d09caH
  00042	72 0e		 jb	 SHORT $LN4@FindAllEtc
$LN3@FindAllEtc:
  00044	3d 3e 0d 3d 00	 cmp	 eax, 4001086		; 003d0d3eH
  00049	72 6c		 jb	 SHORT $LN7@FindAllEtc
  0004b	3d 6a 0e 3d 00	 cmp	 eax, 4001386		; 003d0e6aH
  00050	73 65		 jae	 SHORT $LN7@FindAllEtc
$LN4@FindAllEtc:

; 434  : 		{
; 435  : 			ioEtcItemMotion *pEtcMotion = dynamic_cast< ioEtcItemMotion * > ( iter->second );

  00052	6a 00		 push	 0
  00054	68 00 00 00 00	 push	 OFFSET ??_R0?AVioEtcItemMotion@@@8
  00059	68 00 00 00 00	 push	 OFFSET ??_R0?AVioEtcItem@@@8
  0005e	6a 00		 push	 0
  00060	ff 71 10	 push	 DWORD PTR [ecx+16]
  00063	e8 00 00 00 00	 call	 ___RTDynamicCast
  00068	8b f8		 mov	 edi, eax
  0006a	83 c4 14	 add	 esp, 20			; 00000014H

; 436  : 			if( pEtcMotion )

  0006d	85 ff		 test	 edi, edi
  0006f	74 46		 je	 SHORT $LN7@FindAllEtc

; 437  : 			{
; 438  : 				if( pEtcMotion->IsMotionMacro( szMacro ) )

  00071	ff 75 08	 push	 DWORD PTR _szMacro$[ebp]
  00074	8d 4d e0	 lea	 ecx, DWORD PTR $T514741[ebp]
  00077	ff 15 00 00 00
	00		 call	 DWORD PTR __imp_??0ioHashString@@QAE@PBD@Z
  0007d	83 65 fc 00	 and	 DWORD PTR __$EHRec$[ebp+8], 0
  00081	8d 45 e0	 lea	 eax, DWORD PTR $T514741[ebp]
  00084	50		 push	 eax
  00085	8b cf		 mov	 ecx, edi
  00087	e8 00 00 00 00	 call	 ?IsMotionMacro@ioEtcItemMotion@@QAE_NABVioHashString@@@Z ; ioEtcItemMotion::IsMotionMacro
  0008c	83 4d fc ff	 or	 DWORD PTR __$EHRec$[ebp+8], -1
  00090	8d 4d e0	 lea	 ecx, DWORD PTR $T514741[ebp]
  00093	88 45 0f	 mov	 BYTE PTR $T514740[ebp], al
  00096	ff 15 00 00 00
	00		 call	 DWORD PTR __imp_??1ioHashString@@QAE@XZ
  0009c	80 7d 0f 00	 cmp	 BYTE PTR $T514740[ebp], 0
  000a0	74 15		 je	 SHORT $LN7@FindAllEtc

; 439  : 				{
; 440  : 					TypeList.push_back( pEtcMotion->GetType() );

  000a2	8b 07		 mov	 eax, DWORD PTR [edi]
  000a4	8b cf		 mov	 ecx, edi
  000a6	ff 50 40	 call	 DWORD PTR [eax+64]
  000a9	89 45 0c	 mov	 DWORD PTR $T514742[ebp], eax
  000ac	8d 45 0c	 lea	 eax, DWORD PTR $T514742[ebp]
  000af	50		 push	 eax
  000b0	8b ce		 mov	 ecx, esi
  000b2	e8 00 00 00 00	 call	 ?push_back@?$vector@HV?$allocator@H@std@@@std@@QAEX$$QAH@Z ; std::vector<int,std::allocator<int> >::push_back
$LN7@FindAllEtc:

; 428  : 
; 429  : 	EtcItemMap::const_iterator iter;
; 430  : 	for( iter=m_EtcItemMap.begin() ; iter!=m_EtcItemMap.end() ; ++iter )

  000b7	8d 4d f0	 lea	 ecx, DWORD PTR _iter$[ebp]
  000ba	e8 00 00 00 00	 call	 ??E?$_Tree_unchecked_const_iterator@V?$_Tree_val@V?$_Tmap_traits@KPAVioEtcItem@@U?$less@K@std@@V?$allocator@U?$pair@$$CBKPAVioEtcItem@@@std@@@3@$0A@@std@@@std@@U_Iterator_base0@2@@std@@QAEAAV01@XZ ; std::_Tree_unchecked_const_iterator<std::_Tree_val<std::_Tmap_traits<unsigned long,ioEtcItem *,std::less<unsigned long>,std::allocator<std::pair<unsigned long const ,ioEtcItem *> >,0> >,std::_Iterator_base0>::operator++
  000bf	8b 4d f0	 mov	 ecx, DWORD PTR _iter$[ebp]
  000c2	3b 4b 08	 cmp	 ecx, DWORD PTR [ebx+8]
  000c5	0f 85 68 ff ff
	ff		 jne	 $LL48@FindAllEtc
$LN6@FindAllEtc:

; 441  : 				}
; 442  : 			}
; 443  : 		}
; 444  : 	}
; 445  : }

  000cb	e8 00 00 00 00	 call	 __EH_epilog3
  000d0	c2 08 00	 ret	 8
_TEXT	ENDS
;	COMDAT text$x
text$x	SEGMENT
__unwindfunclet$?FindAllEtcItemMacro@ioEtcItemManager@@QAEXPBDAAV?$vector@HV?$allocator@H@std@@@std@@@Z$0:
  00000	8d 4d e0	 lea	 ecx, DWORD PTR $T514741[ebp]
  00003	ff 25 00 00 00
	00		 jmp	 DWORD PTR __imp_??1ioHashString@@QAE@XZ
__ehhandler$?FindAllEtcItemMacro@ioEtcItemManager@@QAEXPBDAAV?$vector@HV?$allocator@H@std@@@std@@@Z:
  00009	8b 54 24 08	 mov	 edx, DWORD PTR [esp+8]
  0000d	8d 42 0c	 lea	 eax, DWORD PTR [edx+12]
  00010	8b 4a dc	 mov	 ecx, DWORD PTR [edx-36]
  00013	33 c8		 xor	 ecx, eax
  00015	e8 00 00 00 00	 call	 @__security_check_cookie@4
  0001a	b8 00 00 00 00	 mov	 eax, OFFSET __ehfuncinfo$?FindAllEtcItemMacro@ioEtcItemManager@@QAEXPBDAAV?$vector@HV?$allocator@H@std@@@std@@@Z
  0001f	e9 00 00 00 00	 jmp	 ___CxxFrameHandler3
text$x	ENDS
?FindAllEtcItemMacro@ioEtcItemManager@@QAEXPBDAAV?$vector@HV?$allocator@H@std@@@std@@@Z ENDP ; ioEtcItemManager::FindAllEtcItemMacro
PUBLIC	?GetEtcItemList@ioEtcItemManager@@QAEXHAAV?$vector@PBVioEtcItem@@V?$allocator@PBVioEtcItem@@@std@@@std@@@Z ; ioEtcItemManager::GetEtcItemList
; Function compile flags: /Ogsp
;	COMDAT ?GetEtcItemList@ioEtcItemManager@@QAEXHAAV?$vector@PBVioEtcItem@@V?$allocator@PBVioEtcItem@@@std@@@std@@@Z
_TEXT	SEGMENT
_iter$ = 8						; size = 4
_iGroupIdx$ = 8						; size = 4
_rkList$ = 12						; size = 4
?GetEtcItemList@ioEtcItemManager@@QAEXHAAV?$vector@PBVioEtcItem@@V?$allocator@PBVioEtcItem@@@std@@@std@@@Z PROC ; ioEtcItemManager::GetEtcItemList, COMDAT
; _this$ = ecx

; 448  : {

  00000	55		 push	 ebp
  00001	8b ec		 mov	 ebp, esp
  00003	53		 push	 ebx
  00004	56		 push	 esi

; 449  : 	DWORD dwStart = iGroupIdx * TYPE_GROUP_GAP;

  00005	8b 75 08	 mov	 esi, DWORD PTR _iGroupIdx$[ebp]
  00008	69 f6 a0 86 01
	00		 imul	 esi, 100000		; 000186a0H
  0000e	57		 push	 edi
  0000f	8b f9		 mov	 edi, ecx

; 450  : 	DWORD dwEnd = dwStart + TYPE_GROUP_GAP;
; 451  : 
; 452  : 	EtcItemMap::const_iterator iter;
; 453  : 	for( iter=m_EtcItemMap.begin() ; iter!=m_EtcItemMap.end() ; ++iter )

  00011	8b 4f 08	 mov	 ecx, DWORD PTR [edi+8]
  00014	8b 01		 mov	 eax, DWORD PTR [ecx]
  00016	8d 9e a0 86 01
	00		 lea	 ebx, DWORD PTR [esi+100000]
  0001c	89 45 08	 mov	 DWORD PTR _iter$[ebp], eax
  0001f	3b c1		 cmp	 eax, ecx
  00021	74 2d		 je	 SHORT $LN68@GetEtcItem@5
$LL27@GetEtcItem@5:

; 454  : 	{
; 455  : 		if( COMPARE( iter->first, dwStart, dwEnd ) )

  00023	8b 48 0c	 mov	 ecx, DWORD PTR [eax+12]
  00026	3b ce		 cmp	 ecx, esi
  00028	72 12		 jb	 SHORT $LN3@GetEtcItem@5
  0002a	3b cb		 cmp	 ecx, ebx
  0002c	73 10		 jae	 SHORT $LN70@GetEtcItem@5

; 456  : 		{
; 457  : 			rkList.push_back( iter->second );

  0002e	8b 4d 0c	 mov	 ecx, DWORD PTR _rkList$[ebp]
  00031	83 c0 10	 add	 eax, 16			; 00000010H
  00034	50		 push	 eax
  00035	e8 00 00 00 00	 call	 ?push_back@?$vector@PBVioEtcItem@@V?$allocator@PBVioEtcItem@@@std@@@std@@QAEXABQBVioEtcItem@@@Z ; std::vector<ioEtcItem const *,std::allocator<ioEtcItem const *> >::push_back

; 458  : 		}
; 459  : 		else if( iter->first > dwEnd )

  0003a	eb 04		 jmp	 SHORT $LN5@GetEtcItem@5
$LN3@GetEtcItem@5:
  0003c	3b cb		 cmp	 ecx, ebx
$LN70@GetEtcItem@5:
  0003e	77 10		 ja	 SHORT $LN68@GetEtcItem@5
$LN5@GetEtcItem@5:

; 450  : 	DWORD dwEnd = dwStart + TYPE_GROUP_GAP;
; 451  : 
; 452  : 	EtcItemMap::const_iterator iter;
; 453  : 	for( iter=m_EtcItemMap.begin() ; iter!=m_EtcItemMap.end() ; ++iter )

  00040	8d 4d 08	 lea	 ecx, DWORD PTR _iter$[ebp]
  00043	e8 00 00 00 00	 call	 ??E?$_Tree_unchecked_const_iterator@V?$_Tree_val@V?$_Tmap_traits@KPAVioEtcItem@@U?$less@K@std@@V?$allocator@U?$pair@$$CBKPAVioEtcItem@@@std@@@3@$0A@@std@@@std@@U_Iterator_base0@2@@std@@QAEAAV01@XZ ; std::_Tree_unchecked_const_iterator<std::_Tree_val<std::_Tmap_traits<unsigned long,ioEtcItem *,std::less<unsigned long>,std::allocator<std::pair<unsigned long const ,ioEtcItem *> >,0> >,std::_Iterator_base0>::operator++
  00048	8b 45 08	 mov	 eax, DWORD PTR _iter$[ebp]
  0004b	3b 47 08	 cmp	 eax, DWORD PTR [edi+8]
  0004e	75 d3		 jne	 SHORT $LL27@GetEtcItem@5
$LN68@GetEtcItem@5:
  00050	5f		 pop	 edi
  00051	5e		 pop	 esi
  00052	5b		 pop	 ebx

; 460  : 		{
; 461  : 			break;
; 462  : 		}
; 463  : 	}
; 464  : }

  00053	5d		 pop	 ebp
  00054	c2 08 00	 ret	 8
?GetEtcItemList@ioEtcItemManager@@QAEXHAAV?$vector@PBVioEtcItem@@V?$allocator@PBVioEtcItem@@@std@@@std@@@Z ENDP ; ioEtcItemManager::GetEtcItemList
_TEXT	ENDS
PUBLIC	??1?$_Tree@V?$_Tmap_traits@KPAVioEtcItem@@U?$less@K@std@@V?$allocator@U?$pair@$$CBKPAVioEtcItem@@@std@@@3@$0A@@std@@@std@@QAE@XZ ; std::_Tree<std::_Tmap_traits<unsigned long,ioEtcItem *,std::less<unsigned long>,std::allocator<std::pair<unsigned long const ,ioEtcItem *> >,0> >::~_Tree<std::_Tmap_traits<unsigned long,ioEtcItem *,std::less<unsigned long>,std::allocator<std::pair<unsigned long const ,ioEtcItem *> >,0> >
;	COMDAT xdata$x
; File c:\program files (x86)\microsoft visual studio 10.0\vc\include\xmemory
xdata$x	SEGMENT
__unwindtable$??1?$_Tree@V?$_Tmap_traits@KPAVioEtcItem@@U?$less@K@std@@V?$allocator@U?$pair@$$CBKPAVioEtcItem@@@std@@@3@$0A@@std@@@std@@QAE@XZ DD 0ffffffffH
	DD	FLAT:__unwindfunclet$??1?$_Tree@V?$_Tmap_traits@KPAVioEtcItem@@U?$less@K@std@@V?$allocator@U?$pair@$$CBKPAVioEtcItem@@@std@@@3@$0A@@std@@@std@@QAE@XZ$0
__ehfuncinfo$??1?$_Tree@V?$_Tmap_traits@KPAVioEtcItem@@U?$less@K@std@@V?$allocator@U?$pair@$$CBKPAVioEtcItem@@@std@@@3@$0A@@std@@@std@@QAE@XZ DD 019930522H
	DD	01H
	DD	FLAT:__unwindtable$??1?$_Tree@V?$_Tmap_traits@KPAVioEtcItem@@U?$less@K@std@@V?$allocator@U?$pair@$$CBKPAVioEtcItem@@@std@@@3@$0A@@std@@@std@@QAE@XZ
	DD	2 DUP(00H)
	DD	2 DUP(00H)
	DD	00H
	DD	01H
; Function compile flags: /Ogsp
; File c:\program files (x86)\microsoft visual studio 10.0\vc\include\xtree
xdata$x	ENDS
;	COMDAT ??1?$_Tree@V?$_Tmap_traits@KPAVioEtcItem@@U?$less@K@std@@V?$allocator@U?$pair@$$CBKPAVioEtcItem@@@std@@@3@$0A@@std@@@std@@QAE@XZ
_TEXT	SEGMENT
$T515282 = -20						; size = 4
_this$ = -16						; size = 4
__$EHRec$ = -12						; size = 12
??1?$_Tree@V?$_Tmap_traits@KPAVioEtcItem@@U?$less@K@std@@V?$allocator@U?$pair@$$CBKPAVioEtcItem@@@std@@@3@$0A@@std@@@std@@QAE@XZ PROC ; std::_Tree<std::_Tmap_traits<unsigned long,ioEtcItem *,std::less<unsigned long>,std::allocator<std::pair<unsigned long const ,ioEtcItem *> >,0> >::~_Tree<std::_Tmap_traits<unsigned long,ioEtcItem *,std::less<unsigned long>,std::allocator<std::pair<unsigned long const ,ioEtcItem *> >,0> >, COMDAT
; _this$ = ecx

; 790  : 		{	// destroy tree

  00000	6a 08		 push	 8
  00002	b8 00 00 00 00	 mov	 eax, __ehhandler$??1?$_Tree@V?$_Tmap_traits@KPAVioEtcItem@@U?$less@K@std@@V?$allocator@U?$pair@$$CBKPAVioEtcItem@@@std@@@3@$0A@@std@@@std@@QAE@XZ
  00007	e8 00 00 00 00	 call	 __EH_prolog3
  0000c	8b f1		 mov	 esi, ecx
  0000e	89 75 f0	 mov	 DWORD PTR _this$[ebp], esi

; 791  : 		_Tidy();

  00011	8b 46 04	 mov	 eax, DWORD PTR [esi+4]
  00014	8b 08		 mov	 ecx, DWORD PTR [eax]
  00016	83 65 fc 00	 and	 DWORD PTR __$EHRec$[ebp+8], 0
  0001a	50		 push	 eax
  0001b	51		 push	 ecx
  0001c	8d 45 ec	 lea	 eax, DWORD PTR $T515282[ebp]
  0001f	50		 push	 eax
  00020	8b ce		 mov	 ecx, esi
  00022	e8 00 00 00 00	 call	 ?erase@?$_Tree@V?$_Tmap_traits@KPAVioEtcItem@@U?$less@K@std@@V?$allocator@U?$pair@$$CBKPAVioEtcItem@@@std@@@3@$0A@@std@@@std@@QAE?AV?$_Tree_iterator@V?$_Tree_val@V?$_Tmap_traits@KPAVioEtcItem@@U?$less@K@std@@V?$allocator@U?$pair@$$CBKPAVioEtcItem@@@std@@@3@$0A@@std@@@std@@@2@V?$_Tree_const_iterator@V?$_Tree_val@V?$_Tmap_traits@KPAVioEtcItem@@U?$less@K@std@@V?$allocator@U?$pair@$$CBKPAVioEtcItem@@@std@@@3@$0A@@std@@@std@@@2@0@Z ; std::_Tree<std::_Tmap_traits<unsigned long,ioEtcItem *,std::less<unsigned long>,std::allocator<std::pair<unsigned long const ,ioEtcItem *> >,0> >::erase

; 792  : 		}

  00027	ff 76 04	 push	 DWORD PTR [esi+4]
  0002a	e8 00 00 00 00	 call	 ??3@YAXPAX@Z		; operator delete
  0002f	59		 pop	 ecx
  00030	e8 00 00 00 00	 call	 __EH_epilog3
  00035	c3		 ret	 0
_TEXT	ENDS
;	COMDAT text$x
text$x	SEGMENT
__unwindfunclet$??1?$_Tree@V?$_Tmap_traits@KPAVioEtcItem@@U?$less@K@std@@V?$allocator@U?$pair@$$CBKPAVioEtcItem@@@std@@@3@$0A@@std@@@std@@QAE@XZ$0:
  00000	8b 4d f0	 mov	 ecx, DWORD PTR _this$[ebp]
  00003	e9 00 00 00 00	 jmp	 ??1?$_Tree_val@V?$_Tmap_traits@KPAVioEtcItem@@U?$less@K@std@@V?$allocator@U?$pair@$$CBKPAVioEtcItem@@@std@@@3@$0A@@std@@@std@@QAE@XZ ; std::_Tree_val<std::_Tmap_traits<unsigned long,ioEtcItem *,std::less<unsigned long>,std::allocator<std::pair<unsigned long const ,ioEtcItem *> >,0> >::~_Tree_val<std::_Tmap_traits<unsigned long,ioEtcItem *,std::less<unsigned long>,std::allocator<std::pair<unsigned long const ,ioEtcItem *> >,0> >
__ehhandler$??1?$_Tree@V?$_Tmap_traits@KPAVioEtcItem@@U?$less@K@std@@V?$allocator@U?$pair@$$CBKPAVioEtcItem@@@std@@@3@$0A@@std@@@std@@QAE@XZ:
  00008	8b 54 24 08	 mov	 edx, DWORD PTR [esp+8]
  0000c	8d 42 0c	 lea	 eax, DWORD PTR [edx+12]
  0000f	8b 4a e8	 mov	 ecx, DWORD PTR [edx-24]
  00012	33 c8		 xor	 ecx, eax
  00014	e8 00 00 00 00	 call	 @__security_check_cookie@4
  00019	b8 00 00 00 00	 mov	 eax, OFFSET __ehfuncinfo$??1?$_Tree@V?$_Tmap_traits@KPAVioEtcItem@@U?$less@K@std@@V?$allocator@U?$pair@$$CBKPAVioEtcItem@@@std@@@3@$0A@@std@@@std@@QAE@XZ
  0001e	e9 00 00 00 00	 jmp	 ___CxxFrameHandler3
text$x	ENDS
??1?$_Tree@V?$_Tmap_traits@KPAVioEtcItem@@U?$less@K@std@@V?$allocator@U?$pair@$$CBKPAVioEtcItem@@@std@@@3@$0A@@std@@@std@@QAE@XZ ENDP ; std::_Tree<std::_Tmap_traits<unsigned long,ioEtcItem *,std::less<unsigned long>,std::allocator<std::pair<unsigned long const ,ioEtcItem *> >,0> >::~_Tree<std::_Tmap_traits<unsigned long,ioEtcItem *,std::less<unsigned long>,std::allocator<std::pair<unsigned long const ,ioEtcItem *> >,0> >
PUBLIC	??$insert@U?$pair@$$CBKPAVioEtcItem@@@std@@@?$_Tree@V?$_Tmap_traits@KPAVioEtcItem@@U?$less@K@std@@V?$allocator@U?$pair@$$CBKPAVioEtcItem@@@std@@@3@$0A@@std@@@std@@QAE?AU?$pair@V?$_Tree_iterator@V?$_Tree_val@V?$_Tmap_traits@KPAVioEtcItem@@U?$less@K@std@@V?$allocator@U?$pair@$$CBKPAVioEtcItem@@@std@@@3@$0A@@std@@@std@@@std@@_N@1@$$QAU?$pair@$$CBKPAVioEtcItem@@@1@@Z ; std::_Tree<std::_Tmap_traits<unsigned long,ioEtcItem *,std::less<unsigned long>,std::allocator<std::pair<unsigned long const ,ioEtcItem *> >,0> >::insert<std::pair<unsigned long const ,ioEtcItem *> >
; Function compile flags: /Ogsp
;	COMDAT ??$insert@U?$pair@$$CBKPAVioEtcItem@@@std@@@?$_Tree@V?$_Tmap_traits@KPAVioEtcItem@@U?$less@K@std@@V?$allocator@U?$pair@$$CBKPAVioEtcItem@@@std@@@3@$0A@@std@@@std@@QAE?AU?$pair@V?$_Tree_iterator@V?$_Tree_val@V?$_Tmap_traits@KPAVioEtcItem@@U?$less@K@std@@V?$allocator@U?$pair@$$CBKPAVioEtcItem@@@std@@@3@$0A@@std@@@std@@@std@@_N@1@$$QAU?$pair@$$CBKPAVioEtcItem@@@1@@Z
_TEXT	SEGMENT
___$ReturnUdt$ = 8					; size = 4
__Val$ = 12						; size = 4
??$insert@U?$pair@$$CBKPAVioEtcItem@@@std@@@?$_Tree@V?$_Tmap_traits@KPAVioEtcItem@@U?$less@K@std@@V?$allocator@U?$pair@$$CBKPAVioEtcItem@@@std@@@3@$0A@@std@@@std@@QAE?AU?$pair@V?$_Tree_iterator@V?$_Tree_val@V?$_Tmap_traits@KPAVioEtcItem@@U?$less@K@std@@V?$allocator@U?$pair@$$CBKPAVioEtcItem@@@std@@@3@$0A@@std@@@std@@@std@@_N@1@$$QAU?$pair@$$CBKPAVioEtcItem@@@1@@Z PROC ; std::_Tree<std::_Tmap_traits<unsigned long,ioEtcItem *,std::less<unsigned long>,std::allocator<std::pair<unsigned long const ,ioEtcItem *> >,0> >::insert<std::pair<unsigned long const ,ioEtcItem *> >, COMDAT
; _this$ = ecx

; 753  : 		_Pairib insert(_Valty&& _Val)

  00000	55		 push	 ebp
  00001	8b ec		 mov	 ebp, esp
  00003	56		 push	 esi

; 754  : 		{	// try to insert node with value _Val, favoring right side
; 755  : 		return (_Linsert(this->_Buynode(_STD forward<_Valty>(_Val)),
; 756  : 			false));

  00004	6a 00		 push	 0
  00006	ff 75 0c	 push	 DWORD PTR __Val$[ebp]
  00009	8b f1		 mov	 esi, ecx
  0000b	e8 00 00 00 00	 call	 ??$_Buynode@U?$pair@$$CBKPAVioEtcItem@@@std@@@?$_Tree_val@V?$_Tmap_traits@KPAVioEtcItem@@U?$less@K@std@@V?$allocator@U?$pair@$$CBKPAVioEtcItem@@@std@@@3@$0A@@std@@@std@@QAEPAU_Node@?$_Tree_nod@V?$_Tmap_traits@KPAVioEtcItem@@U?$less@K@std@@V?$allocator@U?$pair@$$CBKPAVioEtcItem@@@std@@@3@$0A@@std@@@1@$$QAU?$pair@$$CBKPAVioEtcItem@@@1@@Z ; std::_Tree_val<std::_Tmap_traits<unsigned long,ioEtcItem *,std::less<unsigned long>,std::allocator<std::pair<unsigned long const ,ioEtcItem *> >,0> >::_Buynode<std::pair<unsigned long const ,ioEtcItem *> >
  00010	50		 push	 eax
  00011	ff 75 08	 push	 DWORD PTR ___$ReturnUdt$[ebp]
  00014	8b ce		 mov	 ecx, esi
  00016	e8 00 00 00 00	 call	 ?_Linsert@?$_Tree@V?$_Tmap_traits@KPAVioEtcItem@@U?$less@K@std@@V?$allocator@U?$pair@$$CBKPAVioEtcItem@@@std@@@3@$0A@@std@@@std@@QAE?AU?$pair@V?$_Tree_iterator@V?$_Tree_val@V?$_Tmap_traits@KPAVioEtcItem@@U?$less@K@std@@V?$allocator@U?$pair@$$CBKPAVioEtcItem@@@std@@@3@$0A@@std@@@std@@@std@@_N@2@PAU_Node@?$_Tree_nod@V?$_Tmap_traits@KPAVioEtcItem@@U?$less@K@std@@V?$allocator@U?$pair@$$CBKPAVioEtcItem@@@std@@@3@$0A@@std@@@2@_N@Z ; std::_Tree<std::_Tmap_traits<unsigned long,ioEtcItem *,std::less<unsigned long>,std::allocator<std::pair<unsigned long const ,ioEtcItem *> >,0> >::_Linsert
  0001b	8b 45 08	 mov	 eax, DWORD PTR ___$ReturnUdt$[ebp]
  0001e	5e		 pop	 esi

; 757  : 		}

  0001f	5d		 pop	 ebp
  00020	c2 08 00	 ret	 8
??$insert@U?$pair@$$CBKPAVioEtcItem@@@std@@@?$_Tree@V?$_Tmap_traits@KPAVioEtcItem@@U?$less@K@std@@V?$allocator@U?$pair@$$CBKPAVioEtcItem@@@std@@@3@$0A@@std@@@std@@QAE?AU?$pair@V?$_Tree_iterator@V?$_Tree_val@V?$_Tmap_traits@KPAVioEtcItem@@U?$less@K@std@@V?$allocator@U?$pair@$$CBKPAVioEtcItem@@@std@@@3@$0A@@std@@@std@@@std@@_N@1@$$QAU?$pair@$$CBKPAVioEtcItem@@@1@@Z ENDP ; std::_Tree<std::_Tmap_traits<unsigned long,ioEtcItem *,std::less<unsigned long>,std::allocator<std::pair<unsigned long const ,ioEtcItem *> >,0> >::insert<std::pair<unsigned long const ,ioEtcItem *> >
_TEXT	ENDS
PUBLIC	??1?$map@KPAVioEtcItem@@U?$less@K@std@@V?$allocator@U?$pair@$$CBKPAVioEtcItem@@@std@@@3@@std@@QAE@XZ ; std::map<unsigned long,ioEtcItem *,std::less<unsigned long>,std::allocator<std::pair<unsigned long const ,ioEtcItem *> > >::~map<unsigned long,ioEtcItem *,std::less<unsigned long>,std::allocator<std::pair<unsigned long const ,ioEtcItem *> > >
; Function compile flags: /Ogsp
;	COMDAT ??1?$map@KPAVioEtcItem@@U?$less@K@std@@V?$allocator@U?$pair@$$CBKPAVioEtcItem@@@std@@@3@@std@@QAE@XZ
_TEXT	SEGMENT
??1?$map@KPAVioEtcItem@@U?$less@K@std@@V?$allocator@U?$pair@$$CBKPAVioEtcItem@@@std@@@3@@std@@QAE@XZ PROC ; std::map<unsigned long,ioEtcItem *,std::less<unsigned long>,std::allocator<std::pair<unsigned long const ,ioEtcItem *> > >::~map<unsigned long,ioEtcItem *,std::less<unsigned long>,std::allocator<std::pair<unsigned long const ,ioEtcItem *> > >, COMDAT
; _this$ = ecx
  00000	e9 00 00 00 00	 jmp	 ??1?$_Tree@V?$_Tmap_traits@KPAVioEtcItem@@U?$less@K@std@@V?$allocator@U?$pair@$$CBKPAVioEtcItem@@@std@@@3@$0A@@std@@@std@@QAE@XZ ; std::_Tree<std::_Tmap_traits<unsigned long,ioEtcItem *,std::less<unsigned long>,std::allocator<std::pair<unsigned long const ,ioEtcItem *> >,0> >::~_Tree<std::_Tmap_traits<unsigned long,ioEtcItem *,std::less<unsigned long>,std::allocator<std::pair<unsigned long const ,ioEtcItem *> >,0> >
??1?$map@KPAVioEtcItem@@U?$less@K@std@@V?$allocator@U?$pair@$$CBKPAVioEtcItem@@@std@@@3@@std@@QAE@XZ ENDP ; std::map<unsigned long,ioEtcItem *,std::less<unsigned long>,std::allocator<std::pair<unsigned long const ,ioEtcItem *> > >::~map<unsigned long,ioEtcItem *,std::less<unsigned long>,std::allocator<std::pair<unsigned long const ,ioEtcItem *> > >
_TEXT	ENDS
PUBLIC	??_7ioEtcItemManager@@6B@			; ioEtcItemManager::`vftable'
PUBLIC	??1ioEtcItemManager@@UAE@XZ			; ioEtcItemManager::~ioEtcItemManager
PUBLIC	??_R4ioEtcItemManager@@6B@			; ioEtcItemManager::`RTTI Complete Object Locator'
PUBLIC	??_R0?AVioEtcItemManager@@@8			; ioEtcItemManager `RTTI Type Descriptor'
PUBLIC	??_R3ioEtcItemManager@@8			; ioEtcItemManager::`RTTI Class Hierarchy Descriptor'
PUBLIC	??_R2ioEtcItemManager@@8			; ioEtcItemManager::`RTTI Base Class Array'
PUBLIC	??_R1A@?0A@EA@ioEtcItemManager@@8		; ioEtcItemManager::`RTTI Base Class Descriptor at (0,-1,0,64)'
PUBLIC	??_R13?0A@EA@?$Singleton@VioEtcItemManager@@@@8	; Singleton<ioEtcItemManager>::`RTTI Base Class Descriptor at (4,-1,0,64)'
PUBLIC	??_R0?AV?$Singleton@VioEtcItemManager@@@@@8	; Singleton<ioEtcItemManager> `RTTI Type Descriptor'
PUBLIC	??_R3?$Singleton@VioEtcItemManager@@@@8		; Singleton<ioEtcItemManager>::`RTTI Class Hierarchy Descriptor'
PUBLIC	??_R2?$Singleton@VioEtcItemManager@@@@8		; Singleton<ioEtcItemManager>::`RTTI Base Class Array'
PUBLIC	??_R1A@?0A@EA@?$Singleton@VioEtcItemManager@@@@8 ; Singleton<ioEtcItemManager>::`RTTI Base Class Descriptor at (0,-1,0,64)'
EXTRN	??_EioEtcItemManager@@UAEPAXI@Z:PROC		; ioEtcItemManager::`vector deleting destructor'
;	COMDAT ??_R1A@?0A@EA@?$Singleton@VioEtcItemManager@@@@8
; File d:\lost saga for developer\youtube\tutorial\source\src\io3dengine\iosingleton.h
rdata$r	SEGMENT
??_R1A@?0A@EA@?$Singleton@VioEtcItemManager@@@@8 DD FLAT:??_R0?AV?$Singleton@VioEtcItemManager@@@@@8 ; Singleton<ioEtcItemManager>::`RTTI Base Class Descriptor at (0,-1,0,64)'
	DD	00H
	DD	00H
	DD	0ffffffffH
	DD	00H
	DD	040H
	DD	FLAT:??_R3?$Singleton@VioEtcItemManager@@@@8
rdata$r	ENDS
;	COMDAT ??_R2?$Singleton@VioEtcItemManager@@@@8
rdata$r	SEGMENT
??_R2?$Singleton@VioEtcItemManager@@@@8 DD FLAT:??_R1A@?0A@EA@?$Singleton@VioEtcItemManager@@@@8 ; Singleton<ioEtcItemManager>::`RTTI Base Class Array'
rdata$r	ENDS
;	COMDAT ??_R3?$Singleton@VioEtcItemManager@@@@8
rdata$r	SEGMENT
??_R3?$Singleton@VioEtcItemManager@@@@8 DD 00H		; Singleton<ioEtcItemManager>::`RTTI Class Hierarchy Descriptor'
	DD	00H
	DD	01H
	DD	FLAT:??_R2?$Singleton@VioEtcItemManager@@@@8
rdata$r	ENDS
;	COMDAT ??_R0?AV?$Singleton@VioEtcItemManager@@@@@8
_DATA	SEGMENT
??_R0?AV?$Singleton@VioEtcItemManager@@@@@8 DD FLAT:??_7type_info@@6B@ ; Singleton<ioEtcItemManager> `RTTI Type Descriptor'
	DD	00H
	DB	'.?AV?$Singleton@VioEtcItemManager@@@@', 00H
_DATA	ENDS
;	COMDAT ??_R13?0A@EA@?$Singleton@VioEtcItemManager@@@@8
rdata$r	SEGMENT
??_R13?0A@EA@?$Singleton@VioEtcItemManager@@@@8 DD FLAT:??_R0?AV?$Singleton@VioEtcItemManager@@@@@8 ; Singleton<ioEtcItemManager>::`RTTI Base Class Descriptor at (4,-1,0,64)'
	DD	00H
	DD	04H
	DD	0ffffffffH
	DD	00H
	DD	040H
	DD	FLAT:??_R3?$Singleton@VioEtcItemManager@@@@8
rdata$r	ENDS
;	COMDAT ??_R1A@?0A@EA@ioEtcItemManager@@8
rdata$r	SEGMENT
??_R1A@?0A@EA@ioEtcItemManager@@8 DD FLAT:??_R0?AVioEtcItemManager@@@8 ; ioEtcItemManager::`RTTI Base Class Descriptor at (0,-1,0,64)'
	DD	01H
	DD	00H
	DD	0ffffffffH
	DD	00H
	DD	040H
	DD	FLAT:??_R3ioEtcItemManager@@8
rdata$r	ENDS
;	COMDAT ??_R2ioEtcItemManager@@8
rdata$r	SEGMENT
??_R2ioEtcItemManager@@8 DD FLAT:??_R1A@?0A@EA@ioEtcItemManager@@8 ; ioEtcItemManager::`RTTI Base Class Array'
	DD	FLAT:??_R13?0A@EA@?$Singleton@VioEtcItemManager@@@@8
rdata$r	ENDS
;	COMDAT ??_R3ioEtcItemManager@@8
rdata$r	SEGMENT
??_R3ioEtcItemManager@@8 DD 00H				; ioEtcItemManager::`RTTI Class Hierarchy Descriptor'
	DD	00H
	DD	02H
	DD	FLAT:??_R2ioEtcItemManager@@8
rdata$r	ENDS
;	COMDAT ??_R0?AVioEtcItemManager@@@8
_DATA	SEGMENT
??_R0?AVioEtcItemManager@@@8 DD FLAT:??_7type_info@@6B@	; ioEtcItemManager `RTTI Type Descriptor'
	DD	00H
	DB	'.?AVioEtcItemManager@@', 00H
_DATA	ENDS
;	COMDAT ??_R4ioEtcItemManager@@6B@
rdata$r	SEGMENT
??_R4ioEtcItemManager@@6B@ DD 00H			; ioEtcItemManager::`RTTI Complete Object Locator'
	DD	00H
	DD	00H
	DD	FLAT:??_R0?AVioEtcItemManager@@@8
	DD	FLAT:??_R3ioEtcItemManager@@8
rdata$r	ENDS
;	COMDAT ??_7ioEtcItemManager@@6B@
CONST	SEGMENT
??_7ioEtcItemManager@@6B@ DD FLAT:??_R4ioEtcItemManager@@6B@ ; ioEtcItemManager::`vftable'
	DD	FLAT:??_EioEtcItemManager@@UAEPAXI@Z
CONST	ENDS
;	COMDAT xdata$x
xdata$x	SEGMENT
__unwindtable$??1ioEtcItemManager@@UAE@XZ DD 0ffffffffH
	DD	FLAT:__unwindfunclet$??1ioEtcItemManager@@UAE@XZ$0
	DD	00H
	DD	FLAT:__unwindfunclet$??1ioEtcItemManager@@UAE@XZ$1
__ehfuncinfo$??1ioEtcItemManager@@UAE@XZ DD 019930522H
	DD	02H
	DD	FLAT:__unwindtable$??1ioEtcItemManager@@UAE@XZ
	DD	2 DUP(00H)
	DD	2 DUP(00H)
	DD	00H
	DD	01H
; Function compile flags: /Ogsp
; File d:\lost saga for developer\youtube\tutorial\source\src\lsclient\ioetcitemmanager.cpp
xdata$x	ENDS
;	COMDAT ??1ioEtcItemManager@@UAE@XZ
_TEXT	SEGMENT
_this$ = -16						; size = 4
__$EHRec$ = -12						; size = 12
??1ioEtcItemManager@@UAE@XZ PROC			; ioEtcItemManager::~ioEtcItemManager, COMDAT
; _this$ = ecx

; 16   : {

  00000	6a 04		 push	 4
  00002	b8 00 00 00 00	 mov	 eax, __ehhandler$??1ioEtcItemManager@@UAE@XZ
  00007	e8 00 00 00 00	 call	 __EH_prolog3
  0000c	8b f1		 mov	 esi, ecx
  0000e	89 75 f0	 mov	 DWORD PTR _this$[ebp], esi
  00011	c7 06 00 00 00
	00		 mov	 DWORD PTR [esi], OFFSET ??_7ioEtcItemManager@@6B@
  00017	c7 45 fc 01 00
	00 00		 mov	 DWORD PTR __$EHRec$[ebp+8], 1

; 17   : 	ClearEtcItemList();

  0001e	e8 00 00 00 00	 call	 ?ClearEtcItemList@ioEtcItemManager@@IAEXXZ ; ioEtcItemManager::ClearEtcItemList

; 18   : }

  00023	8d 4e 04	 lea	 ecx, DWORD PTR [esi+4]
  00026	c6 45 fc 00	 mov	 BYTE PTR __$EHRec$[ebp+8], 0
  0002a	e8 00 00 00 00	 call	 ??1?$_Tree@V?$_Tmap_traits@KPAVioEtcItem@@U?$less@K@std@@V?$allocator@U?$pair@$$CBKPAVioEtcItem@@@std@@@3@$0A@@std@@@std@@QAE@XZ ; std::_Tree<std::_Tmap_traits<unsigned long,ioEtcItem *,std::less<unsigned long>,std::allocator<std::pair<unsigned long const ,ioEtcItem *> >,0> >::~_Tree<std::_Tmap_traits<unsigned long,ioEtcItem *,std::less<unsigned long>,std::allocator<std::pair<unsigned long const ,ioEtcItem *> >,0> >
  0002f	83 25 00 00 00
	00 00		 and	 DWORD PTR ?ms_Singleton@?$Singleton@VioEtcItemManager@@@@1PAVioEtcItemManager@@A, 0 ; Singleton<ioEtcItemManager>::ms_Singleton
  00036	e8 00 00 00 00	 call	 __EH_epilog3
  0003b	c3		 ret	 0
_TEXT	ENDS
;	COMDAT text$x
text$x	SEGMENT
__unwindfunclet$??1ioEtcItemManager@@UAE@XZ$0:
  00000	8b 4d f0	 mov	 ecx, DWORD PTR _this$[ebp]
  00003	83 c1 04	 add	 ecx, 4
  00006	e9 00 00 00 00	 jmp	 ??1?$Singleton@VioEtcItemManager@@@@QAE@XZ ; Singleton<ioEtcItemManager>::~Singleton<ioEtcItemManager>
__unwindfunclet$??1ioEtcItemManager@@UAE@XZ$1:
  0000b	8b 4d f0	 mov	 ecx, DWORD PTR _this$[ebp]
  0000e	83 c1 04	 add	 ecx, 4
  00011	e9 00 00 00 00	 jmp	 ??1?$map@KPAVioEtcItem@@U?$less@K@std@@V?$allocator@U?$pair@$$CBKPAVioEtcItem@@@std@@@3@@std@@QAE@XZ
__ehhandler$??1ioEtcItemManager@@UAE@XZ:
  00016	8b 54 24 08	 mov	 edx, DWORD PTR [esp+8]
  0001a	8d 42 0c	 lea	 eax, DWORD PTR [edx+12]
  0001d	8b 4a ec	 mov	 ecx, DWORD PTR [edx-20]
  00020	33 c8		 xor	 ecx, eax
  00022	e8 00 00 00 00	 call	 @__security_check_cookie@4
  00027	b8 00 00 00 00	 mov	 eax, OFFSET __ehfuncinfo$??1ioEtcItemManager@@UAE@XZ
  0002c	e9 00 00 00 00	 jmp	 ___CxxFrameHandler3
text$x	ENDS
??1ioEtcItemManager@@UAE@XZ ENDP			; ioEtcItemManager::~ioEtcItemManager
PUBLIC	??_C@_0DE@FKOGOMP@ioEtcItemManager?3?3AddEtcItem?5?9?5?$CF@ ; `string'
PUBLIC	??_C@_0DB@LGHNDMFG@ioEtcItemManager?3?3AddEtcItem?5?9?5?$CF@ ; `string'
PUBLIC	?AddEtcItem@ioEtcItemManager@@IAE_NPAVioEtcItem@@@Z ; ioEtcItemManager::AddEtcItem
EXTRN	__imp_?c_str@ioHashString@@QBEPBDXZ:PROC
EXTRN	?IsValid@ioEtcItem@@QBE_NXZ:PROC		; ioEtcItem::IsValid
;	COMDAT ??_C@_0DE@FKOGOMP@ioEtcItemManager?3?3AddEtcItem?5?9?5?$CF@
; File c:\program files (x86)\microsoft visual studio 10.0\vc\include\utility
CONST	SEGMENT
??_C@_0DE@FKOGOMP@ioEtcItemManager?3?3AddEtcItem?5?9?5?$CF@ DB 'ioEtcItem'
	DB	'Manager::AddEtcItem - %s(%d) Already Exist', 00H ; `string'
CONST	ENDS
;	COMDAT ??_C@_0DB@LGHNDMFG@ioEtcItemManager?3?3AddEtcItem?5?9?5?$CF@
CONST	SEGMENT
??_C@_0DB@LGHNDMFG@ioEtcItemManager?3?3AddEtcItem?5?9?5?$CF@ DB 'ioEtcIte'
	DB	'mManager::AddEtcItem - %s Not Valid Info', 00H ; `string'
; Function compile flags: /Ogsp
; File d:\lost saga for developer\youtube\tutorial\source\src\lsclient\ioetcitemmanager.cpp
CONST	ENDS
;	COMDAT ?AddEtcItem@ioEtcItemManager@@IAE_NPAVioEtcItem@@@Z
_TEXT	SEGMENT
$T515355 = -8						; size = 8
$T515353 = -8						; size = 8
_pInfo$ = 8						; size = 4
?AddEtcItem@ioEtcItemManager@@IAE_NPAVioEtcItem@@@Z PROC ; ioEtcItemManager::AddEtcItem, COMDAT
; _this$ = ecx

; 107  : {

  00000	55		 push	 ebp
  00001	8b ec		 mov	 ebp, esp
  00003	51		 push	 ecx
  00004	51		 push	 ecx
  00005	53		 push	 ebx
  00006	56		 push	 esi

; 108  : 	if( !pInfo->IsValid() )

  00007	8b 75 08	 mov	 esi, DWORD PTR _pInfo$[ebp]
  0000a	8b d9		 mov	 ebx, ecx
  0000c	8b ce		 mov	 ecx, esi
  0000e	e8 00 00 00 00	 call	 ?IsValid@ioEtcItem@@QBE_NXZ ; ioEtcItem::IsValid
  00013	84 c0		 test	 al, al
  00015	75 24		 jne	 SHORT $LN2@AddEtcItem

; 109  : 	{
; 110  : 		LOG.PrintTimeAndLog( 0, "ioEtcItemManager::AddEtcItem - %s Not Valid Info",
; 111  : 								pInfo->GetName().c_str() );

  00017	8d 4e 04	 lea	 ecx, DWORD PTR [esi+4]
  0001a	ff 15 00 00 00
	00		 call	 DWORD PTR __imp_?c_str@ioHashString@@QBEPBDXZ
  00020	50		 push	 eax
  00021	68 00 00 00 00	 push	 OFFSET ??_C@_0DB@LGHNDMFG@ioEtcItemManager?3?3AddEtcItem?5?9?5?$CF@
  00026	6a 00		 push	 0
  00028	ff 35 00 00 00
	00		 push	 DWORD PTR __imp_?LOG@@3VCLog@@A
  0002e	ff 15 00 00 00
	00		 call	 DWORD PTR __imp_?PrintTimeAndLog@CLog@@QAAXHPADZZ
  00034	83 c4 10	 add	 esp, 16			; 00000010H

; 112  : 		return false;

  00037	32 c0		 xor	 al, al
  00039	eb 59		 jmp	 SHORT $LN3@AddEtcItem
$LN2@AddEtcItem:
  0003b	57		 push	 edi

; 113  : 	}
; 114  : 
; 115  : 	if( FindEtcItem( pInfo->GetType() ) )

  0003c	8b 7e 24	 mov	 edi, DWORD PTR [esi+36]
  0003f	57		 push	 edi
  00040	8b cb		 mov	 ecx, ebx
  00042	e8 00 00 00 00	 call	 ?FindEtcItem@ioEtcItemManager@@QAEPAVioEtcItem@@K@Z ; ioEtcItemManager::FindEtcItem
  00047	85 c0		 test	 eax, eax
  00049	74 25		 je	 SHORT $LN1@AddEtcItem

; 116  : 	{
; 117  : 		LOG.PrintTimeAndLog( 0, "ioEtcItemManager::AddEtcItem - %s(%d) Already Exist",
; 118  : 								pInfo->GetName().c_str(), pInfo->GetType() );

  0004b	57		 push	 edi
  0004c	8d 4e 04	 lea	 ecx, DWORD PTR [esi+4]
  0004f	ff 15 00 00 00
	00		 call	 DWORD PTR __imp_?c_str@ioHashString@@QBEPBDXZ
  00055	50		 push	 eax
  00056	68 00 00 00 00	 push	 OFFSET ??_C@_0DE@FKOGOMP@ioEtcItemManager?3?3AddEtcItem?5?9?5?$CF@
  0005b	6a 00		 push	 0
  0005d	ff 35 00 00 00
	00		 push	 DWORD PTR __imp_?LOG@@3VCLog@@A
  00063	ff 15 00 00 00
	00		 call	 DWORD PTR __imp_?PrintTimeAndLog@CLog@@QAAXHPADZZ
  00069	83 c4 14	 add	 esp, 20			; 00000014H

; 119  : 		return false;

  0006c	32 c0		 xor	 al, al
  0006e	eb 23		 jmp	 SHORT $LN31@AddEtcItem
$LN1@AddEtcItem:

; 120  : 	}
; 121  : 
; 122  : 	m_EtcItemMap.insert( EtcItemMap::value_type( pInfo->GetType(), pInfo ) );

  00070	6a 00		 push	 0
  00072	8d 45 f8	 lea	 eax, DWORD PTR $T515353[ebp]
  00075	50		 push	 eax
  00076	8d 4b 04	 lea	 ecx, DWORD PTR [ebx+4]
  00079	89 7d f8	 mov	 DWORD PTR $T515353[ebp], edi
  0007c	89 75 fc	 mov	 DWORD PTR $T515353[ebp+4], esi
  0007f	e8 00 00 00 00	 call	 ??$_Buynode@U?$pair@$$CBKPAVioEtcItem@@@std@@@?$_Tree_val@V?$_Tmap_traits@KPAVioEtcItem@@U?$less@K@std@@V?$allocator@U?$pair@$$CBKPAVioEtcItem@@@std@@@3@$0A@@std@@@std@@QAEPAU_Node@?$_Tree_nod@V?$_Tmap_traits@KPAVioEtcItem@@U?$less@K@std@@V?$allocator@U?$pair@$$CBKPAVioEtcItem@@@std@@@3@$0A@@std@@@1@$$QAU?$pair@$$CBKPAVioEtcItem@@@1@@Z ; std::_Tree_val<std::_Tmap_traits<unsigned long,ioEtcItem *,std::less<unsigned long>,std::allocator<std::pair<unsigned long const ,ioEtcItem *> >,0> >::_Buynode<std::pair<unsigned long const ,ioEtcItem *> >
  00084	50		 push	 eax
  00085	8d 45 f8	 lea	 eax, DWORD PTR $T515355[ebp]
  00088	50		 push	 eax
  00089	8d 4b 04	 lea	 ecx, DWORD PTR [ebx+4]
  0008c	e8 00 00 00 00	 call	 ?_Linsert@?$_Tree@V?$_Tmap_traits@KPAVioEtcItem@@U?$less@K@std@@V?$allocator@U?$pair@$$CBKPAVioEtcItem@@@std@@@3@$0A@@std@@@std@@QAE?AU?$pair@V?$_Tree_iterator@V?$_Tree_val@V?$_Tmap_traits@KPAVioEtcItem@@U?$less@K@std@@V?$allocator@U?$pair@$$CBKPAVioEtcItem@@@std@@@3@$0A@@std@@@std@@@std@@_N@2@PAU_Node@?$_Tree_nod@V?$_Tmap_traits@KPAVioEtcItem@@U?$less@K@std@@V?$allocator@U?$pair@$$CBKPAVioEtcItem@@@std@@@3@$0A@@std@@@2@_N@Z ; std::_Tree<std::_Tmap_traits<unsigned long,ioEtcItem *,std::less<unsigned long>,std::allocator<std::pair<unsigned long const ,ioEtcItem *> >,0> >::_Linsert

; 123  : 
; 124  : 	return true;

  00091	b0 01		 mov	 al, 1
$LN31@AddEtcItem:
  00093	5f		 pop	 edi
$LN3@AddEtcItem:
  00094	5e		 pop	 esi
  00095	5b		 pop	 ebx

; 125  : }

  00096	c9		 leave
  00097	c2 04 00	 ret	 4
?AddEtcItem@ioEtcItemManager@@IAE_NPAVioEtcItem@@@Z ENDP ; ioEtcItemManager::AddEtcItem
_TEXT	ENDS
PUBLIC	??0?$map@KPAVioEtcItem@@U?$less@K@std@@V?$allocator@U?$pair@$$CBKPAVioEtcItem@@@std@@@3@@std@@QAE@XZ ; std::map<unsigned long,ioEtcItem *,std::less<unsigned long>,std::allocator<std::pair<unsigned long const ,ioEtcItem *> > >::map<unsigned long,ioEtcItem *,std::less<unsigned long>,std::allocator<std::pair<unsigned long const ,ioEtcItem *> > >
; Function compile flags: /Ogsp
; File c:\program files (x86)\microsoft visual studio 10.0\vc\include\map
;	COMDAT ??0?$map@KPAVioEtcItem@@U?$less@K@std@@V?$allocator@U?$pair@$$CBKPAVioEtcItem@@@std@@@3@@std@@QAE@XZ
_TEXT	SEGMENT
$T515432 = -8						; size = 4
$T515435 = -8						; size = 4
$T515421 = -1						; size = 1
??0?$map@KPAVioEtcItem@@U?$less@K@std@@V?$allocator@U?$pair@$$CBKPAVioEtcItem@@@std@@@3@@std@@QAE@XZ PROC ; std::map<unsigned long,ioEtcItem *,std::less<unsigned long>,std::allocator<std::pair<unsigned long const ,ioEtcItem *> > >::map<unsigned long,ioEtcItem *,std::less<unsigned long>,std::allocator<std::pair<unsigned long const ,ioEtcItem *> > >, COMDAT
; _this$ = ecx

; 106  : 		{	// construct empty map from defaults

  00000	55		 push	 ebp
  00001	8b ec		 mov	 ebp, esp
  00003	51		 push	 ecx
  00004	51		 push	 ecx
  00005	56		 push	 esi
  00006	51		 push	 ecx
  00007	89 65 f8	 mov	 DWORD PTR $T515435[ebp], esp
  0000a	8d 45 ff	 lea	 eax, DWORD PTR $T515421[ebp]
  0000d	89 65 f8	 mov	 DWORD PTR $T515432[ebp], esp
  00010	50		 push	 eax
  00011	8b f1		 mov	 esi, ecx
  00013	e8 00 00 00 00	 call	 ??0?$_Tree_val@V?$_Tmap_traits@KPAVioEtcItem@@U?$less@K@std@@V?$allocator@U?$pair@$$CBKPAVioEtcItem@@@std@@@3@$0A@@std@@@std@@QAE@ABU?$less@K@1@V?$allocator@U?$pair@$$CBKPAVioEtcItem@@@std@@@1@@Z ; std::_Tree_val<std::_Tmap_traits<unsigned long,ioEtcItem *,std::less<unsigned long>,std::allocator<std::pair<unsigned long const ,ioEtcItem *> >,0> >::_Tree_val<std::_Tmap_traits<unsigned long,ioEtcItem *,std::less<unsigned long>,std::allocator<std::pair<unsigned long const ,ioEtcItem *> >,0> >

; 107  : 		}

  00018	8b c6		 mov	 eax, esi
  0001a	5e		 pop	 esi
  0001b	c9		 leave
  0001c	c3		 ret	 0
??0?$map@KPAVioEtcItem@@U?$less@K@std@@V?$allocator@U?$pair@$$CBKPAVioEtcItem@@@std@@@3@@std@@QAE@XZ ENDP ; std::map<unsigned long,ioEtcItem *,std::less<unsigned long>,std::allocator<std::pair<unsigned long const ,ioEtcItem *> > >::map<unsigned long,ioEtcItem *,std::less<unsigned long>,std::allocator<std::pair<unsigned long const ,ioEtcItem *> > >
_TEXT	ENDS
PUBLIC	??0ioEtcItemManager@@QAE@XZ			; ioEtcItemManager::ioEtcItemManager
;	COMDAT xdata$x
; File c:\program files (x86)\microsoft visual studio 10.0\vc\include\xmemory
xdata$x	SEGMENT
__unwindtable$??0ioEtcItemManager@@QAE@XZ DD 0ffffffffH
	DD	FLAT:__unwindfunclet$??0ioEtcItemManager@@QAE@XZ$0
__ehfuncinfo$??0ioEtcItemManager@@QAE@XZ DD 019930522H
	DD	01H
	DD	FLAT:__unwindtable$??0ioEtcItemManager@@QAE@XZ
	DD	2 DUP(00H)
	DD	2 DUP(00H)
	DD	00H
	DD	01H
; Function compile flags: /Ogsp
; File d:\lost saga for developer\youtube\tutorial\source\src\lsclient\ioetcitemmanager.cpp
xdata$x	ENDS
;	COMDAT ??0ioEtcItemManager@@QAE@XZ
_TEXT	SEGMENT
$T515464 = -24						; size = 4
$T515478 = -24						; size = 4
_this$ = -20						; size = 4
$T515473 = -13						; size = 1
__$EHRec$ = -12						; size = 12
??0ioEtcItemManager@@QAE@XZ PROC			; ioEtcItemManager::ioEtcItemManager, COMDAT
; _this$ = ecx

; 12   : {

  00000	6a 0c		 push	 12			; 0000000cH
  00002	b8 00 00 00 00	 mov	 eax, __ehhandler$??0ioEtcItemManager@@QAE@XZ
  00007	e8 00 00 00 00	 call	 __EH_prolog3
  0000c	8b f1		 mov	 esi, ecx
  0000e	89 75 ec	 mov	 DWORD PTR _this$[ebp], esi
  00011	8d 4e 04	 lea	 ecx, DWORD PTR [esi+4]
  00014	8d 41 fc	 lea	 eax, DWORD PTR [ecx-4]
  00017	a3 00 00 00 00	 mov	 DWORD PTR ?ms_Singleton@?$Singleton@VioEtcItemManager@@@@1PAVioEtcItemManager@@A, eax ; Singleton<ioEtcItemManager>::ms_Singleton
  0001c	83 65 fc 00	 and	 DWORD PTR __$EHRec$[ebp+8], 0
  00020	51		 push	 ecx
  00021	89 65 e8	 mov	 DWORD PTR $T515478[ebp], esp
  00024	8d 45 f3	 lea	 eax, DWORD PTR $T515473[ebp]
  00027	89 65 e8	 mov	 DWORD PTR $T515464[ebp], esp
  0002a	50		 push	 eax
  0002b	c7 06 00 00 00
	00		 mov	 DWORD PTR [esi], OFFSET ??_7ioEtcItemManager@@6B@
  00031	e8 00 00 00 00	 call	 ??0?$_Tree_val@V?$_Tmap_traits@KPAVioEtcItem@@U?$less@K@std@@V?$allocator@U?$pair@$$CBKPAVioEtcItem@@@std@@@3@$0A@@std@@@std@@QAE@ABU?$less@K@1@V?$allocator@U?$pair@$$CBKPAVioEtcItem@@@std@@@1@@Z ; std::_Tree_val<std::_Tmap_traits<unsigned long,ioEtcItem *,std::less<unsigned long>,std::allocator<std::pair<unsigned long const ,ioEtcItem *> >,0> >::_Tree_val<std::_Tmap_traits<unsigned long,ioEtcItem *,std::less<unsigned long>,std::allocator<std::pair<unsigned long const ,ioEtcItem *> >,0> >

; 13   : }

  00036	8b c6		 mov	 eax, esi
  00038	e8 00 00 00 00	 call	 __EH_epilog3
  0003d	c3		 ret	 0
_TEXT	ENDS
;	COMDAT text$x
text$x	SEGMENT
__unwindfunclet$??0ioEtcItemManager@@QAE@XZ$0:
  00000	8b 4d ec	 mov	 ecx, DWORD PTR _this$[ebp]
  00003	83 c1 04	 add	 ecx, 4
  00006	e9 00 00 00 00	 jmp	 ??1?$Singleton@VioEtcItemManager@@@@QAE@XZ ; Singleton<ioEtcItemManager>::~Singleton<ioEtcItemManager>
__ehhandler$??0ioEtcItemManager@@QAE@XZ:
  0000b	8b 54 24 08	 mov	 edx, DWORD PTR [esp+8]
  0000f	8d 42 0c	 lea	 eax, DWORD PTR [edx+12]
  00012	8b 4a e4	 mov	 ecx, DWORD PTR [edx-28]
  00015	33 c8		 xor	 ecx, eax
  00017	e8 00 00 00 00	 call	 @__security_check_cookie@4
  0001c	b8 00 00 00 00	 mov	 eax, OFFSET __ehfuncinfo$??0ioEtcItemManager@@QAE@XZ
  00021	e9 00 00 00 00	 jmp	 ___CxxFrameHandler3
text$x	ENDS
??0ioEtcItemManager@@QAE@XZ ENDP			; ioEtcItemManager::ioEtcItemManager
; Function compile flags: /Ogsp
;	COMDAT ??_GioEtcItemManager@@UAEPAXI@Z
_TEXT	SEGMENT
___flags$ = 8						; size = 4
??_GioEtcItemManager@@UAEPAXI@Z PROC			; ioEtcItemManager::`scalar deleting destructor', COMDAT
; _this$ = ecx
  00000	55		 push	 ebp
  00001	8b ec		 mov	 ebp, esp
  00003	56		 push	 esi
  00004	8b f1		 mov	 esi, ecx
  00006	e8 00 00 00 00	 call	 ??1ioEtcItemManager@@UAE@XZ ; ioEtcItemManager::~ioEtcItemManager
  0000b	f6 45 08 01	 test	 BYTE PTR ___flags$[ebp], 1
  0000f	74 07		 je	 SHORT $LN1@scalar@6
  00011	56		 push	 esi
  00012	e8 00 00 00 00	 call	 ??3@YAXPAX@Z		; operator delete
  00017	59		 pop	 ecx
$LN1@scalar@6:
  00018	8b c6		 mov	 eax, esi
  0001a	5e		 pop	 esi
  0001b	5d		 pop	 ebp
  0001c	c2 04 00	 ret	 4
??_GioEtcItemManager@@UAEPAXI@Z ENDP			; ioEtcItemManager::`scalar deleting destructor'
_TEXT	ENDS
PUBLIC	??_C@_0BM@EOANPOBL@?$CFs?5?9?5Apply?5overseas?5etcitem?$AA@ ; `string'
PUBLIC	??_C@_0N@DBANLMCI@OVERSEAS_MAX?$AA@		; `string'
PUBLIC	??_C@_0DP@HFGECNGK@?$CFs?5?9?5Cannot?5using?5overseas?5setti@ ; `string'
PUBLIC	??_C@_0BO@NGJJNKHE@ioEtcItemManager?3?3LoadEtcItem?$AA@ ; `string'
PUBLIC	??_C@_0O@DGIPGGDG@OVERSEAS_BASE?$AA@		; `string'
PUBLIC	??_C@_0CO@HJBACJLL@ioEtcItemManager?3?3LoadEtcItem?5?9?5@ ; `string'
PUBLIC	??_C@_06DBHEJNGA@common?$AA@			; `string'
PUBLIC	??_C@_03LJAEFNNE@max?$AA@			; `string'
PUBLIC	_this$GSCopy$
PUBLIC	?LoadEtcItem@ioEtcItemManager@@QAEXXZ		; ioEtcItemManager::LoadEtcItem
EXTRN	__imp_?GetLocalType@ioLocalManagerParent@@SA?AW4LocalType@1@XZ:PROC
EXTRN	__imp_?SetTitle@ioINILoader@@QAEXPBD@Z:PROC
EXTRN	__imp__wsprintfA:PROC
EXTRN	__imp_?LoadInt@ioINILoader@@QAEHPBD0H@Z:PROC
EXTRN	__EH_epilog3_GS:PROC
EXTRN	__EH_prolog3_GS:PROC
EXTRN	_memset:PROC
;	COMDAT ??_C@_0BM@EOANPOBL@?$CFs?5?9?5Apply?5overseas?5etcitem?$AA@
CONST	SEGMENT
??_C@_0BM@EOANPOBL@?$CFs?5?9?5Apply?5overseas?5etcitem?$AA@ DB '%s - Appl'
	DB	'y overseas etcitem', 00H			; `string'
CONST	ENDS
;	COMDAT ??_C@_0N@DBANLMCI@OVERSEAS_MAX?$AA@
CONST	SEGMENT
??_C@_0N@DBANLMCI@OVERSEAS_MAX?$AA@ DB 'OVERSEAS_MAX', 00H ; `string'
CONST	ENDS
;	COMDAT ??_C@_0DP@HFGECNGK@?$CFs?5?9?5Cannot?5using?5overseas?5setti@
CONST	SEGMENT
??_C@_0DP@HFGECNGK@?$CFs?5?9?5Cannot?5using?5overseas?5setti@ DB '%s - Ca'
	DB	'nnot using overseas setting "OVERSEAS_BASE" is empty(0)', 00H ; `string'
CONST	ENDS
;	COMDAT ??_C@_0BO@NGJJNKHE@ioEtcItemManager?3?3LoadEtcItem?$AA@
CONST	SEGMENT
??_C@_0BO@NGJJNKHE@ioEtcItemManager?3?3LoadEtcItem?$AA@ DB 'ioEtcItemMana'
	DB	'ger::LoadEtcItem', 00H			; `string'
CONST	ENDS
;	COMDAT ??_C@_0O@DGIPGGDG@OVERSEAS_BASE?$AA@
CONST	SEGMENT
??_C@_0O@DGIPGGDG@OVERSEAS_BASE?$AA@ DB 'OVERSEAS_BASE', 00H ; `string'
CONST	ENDS
;	COMDAT ??_C@_0CO@HJBACJLL@ioEtcItemManager?3?3LoadEtcItem?5?9?5@
CONST	SEGMENT
??_C@_0CO@HJBACJLL@ioEtcItemManager?3?3LoadEtcItem?5?9?5@ DB 'ioEtcItemMa'
	DB	'nager::LoadEtcItem - %s Add Failed', 00H	; `string'
CONST	ENDS
;	COMDAT ??_C@_06DBHEJNGA@common?$AA@
CONST	SEGMENT
??_C@_06DBHEJNGA@common?$AA@ DB 'common', 00H		; `string'
CONST	ENDS
;	COMDAT ??_C@_03LJAEFNNE@max?$AA@
CONST	SEGMENT
??_C@_03LJAEFNNE@max?$AA@ DB 'max', 00H			; `string'
CONST	ENDS
;	COMDAT xdata$x
xdata$x	SEGMENT
__unwindtable$?LoadEtcItem@ioEtcItemManager@@QAEXXZ DD 0ffffffffH
	DD	FLAT:__unwindfunclet$?LoadEtcItem@ioEtcItemManager@@QAEXXZ$0
__ehfuncinfo$?LoadEtcItem@ioEtcItemManager@@QAEXXZ DD 019930522H
	DD	01H
	DD	FLAT:__unwindtable$?LoadEtcItem@ioEtcItemManager@@QAEXXZ
	DD	2 DUP(00H)
	DD	2 DUP(00H)
	DD	00H
	DD	01H
; Function compile flags: /Ogsp
xdata$x	ENDS
;	COMDAT ?LoadEtcItem@ioEtcItemManager@@QAEXXZ
_TEXT	SEGMENT
_iMaxCount$ = -1232					; size = 4
_this$GSCopy$ = -1228					; size = 4
tv3764 = -1224						; size = 4
_i$505381 = -1224					; size = 4
tv1703 = -1220						; size = 4
_iStartCount$505554 = -1220				; size = 4
_pInfo$505545 = -1220					; size = 4
_kLoader$ = -1216					; size = 912
_szBuf$ = -304						; size = 260
__k$515906 = -44					; size = 5
__k$515765 = -44					; size = 5
___encStr$505566 = -32					; size = 10
___encStr$505388 = -32					; size = 10
__$EHRec$ = -12						; size = 12
?LoadEtcItem@ioEtcItemManager@@QAEXXZ PROC		; ioEtcItemManager::LoadEtcItem, COMDAT
; _this$ = ecx

; 36   : {

  00000	68 c4 04 00 00	 push	 1220			; 000004c4H
  00005	b8 00 00 00 00	 mov	 eax, __ehhandler$?LoadEtcItem@ioEtcItemManager@@QAEXXZ
  0000a	e8 00 00 00 00	 call	 __EH_prolog3_GS

; 77   : 		}
; 78   : 		iMaxCount = iStartCount + kLoader.LoadInt( "common", "OVERSEAS_MAX", 0 );

  0000f	89 8d 34 fb ff
	ff		 mov	 DWORD PTR _this$GSCopy$[ebp], ecx
  00015	e8 00 00 00 00	 call	 ?ClearEtcItemList@ioEtcItemManager@@IAEXXZ ; ioEtcItemManager::ClearEtcItemList
  0001a	6a 06		 push	 6
  0001c	c7 85 90 fe ff
	ff 8e 83 85 8c	 mov	 DWORD PTR _kLoader$[ebp+848], -1937407090 ; 8c85838eH
  00026	c7 85 94 fe ff
	ff 84 8b c4 99	 mov	 DWORD PTR _kLoader$[ebp+852], -1715172476 ; 99c48b84H
  00030	c7 85 98 fe ff
	ff 9d de b4 8f	 mov	 DWORD PTR _kLoader$[ebp+856], -1883971939 ; 8fb4de9dH
  0003a	c7 85 9c fe ff
	ff 99 8f 82 9e	 mov	 DWORD PTR _kLoader$[ebp+860], -1635610727 ; 9e828f99H
  00044	c7 85 a0 fe ff
	ff 88 81 b4 83	 mov	 DWORD PTR _kLoader$[ebp+864], -2085322360 ; 83b48188H
  0004e	c7 85 a4 fe ff
	ff 83 8a 84 c4	 mov	 DWORD PTR _kLoader$[ebp+868], -997946749 ; c4848a83H
  00058	8d 85 90 fe ff
	ff		 lea	 eax, DWORD PTR _kLoader$[ebp+848]
  0005e	33 db		 xor	 ebx, ebx
  00060	c7 85 a8 fe ff
	ff 84 82 82 00	 mov	 DWORD PTR _kLoader$[ebp+872], 8553092 ; 00828284H
  0006a	59		 pop	 ecx
  0006b	be ed ec eb ea	 mov	 esi, -353637139		; eaebecedH
$LL329@LoadEtcIte:

; 37   : 	ClearEtcItemList();
; 38   : 
; 39   : 	ioINILoader_e kLoader( "config/sp2_etcitem_info.ini" ); 

  00070	31 30		 xor	 DWORD PTR [eax], esi
  00072	83 c0 04	 add	 eax, 4
  00075	49		 dec	 ecx
  00076	75 f8		 jne	 SHORT $LL329@LoadEtcIte
  00078	6a 18		 push	 24			; 00000018H
  0007a	5f		 pop	 edi
$LL326@LoadEtcIte:
  0007b	8b c7		 mov	 eax, edi
  0007d	25 03 00 00 80	 and	 eax, -2147483645	; 80000003H
  00082	79 05		 jns	 SHORT $LN594@LoadEtcIte
  00084	48		 dec	 eax
  00085	83 c8 fc	 or	 eax, -4			; fffffffcH
  00088	40		 inc	 eax
$LN594@LoadEtcIte:
  00089	b1 ed		 mov	 cl, -19			; ffffffedH
  0008b	2a c8		 sub	 cl, al
  0008d	30 8c 3d 90 fe
	ff ff		 xor	 BYTE PTR _kLoader$[ebp+edi+848], cl
  00094	47		 inc	 edi
  00095	83 ff 1b	 cmp	 edi, 27			; 0000001bH
  00098	7c e1		 jl	 SHORT $LL326@LoadEtcIte
  0009a	6a 01		 push	 1
  0009c	8d 85 90 fe ff
	ff		 lea	 eax, DWORD PTR _kLoader$[ebp+848]
  000a2	50		 push	 eax
  000a3	8d 8d 40 fb ff
	ff		 lea	 ecx, DWORD PTR _kLoader$[ebp]
  000a9	ff 15 00 00 00
	00		 call	 DWORD PTR __imp_??0ioINILoader@@QAE@PBD_N@Z

; 40   : 
; 41   : 	char szBuf[MAX_PATH];
; 42   : 	int iMaxCount = kLoader.LoadInt( "common", "max", 0 );

  000af	8b 3d 00 00 00
	00		 mov	 edi, DWORD PTR __imp_?LoadInt@ioINILoader@@QAEHPBD0H@Z
  000b5	53		 push	 ebx
  000b6	68 00 00 00 00	 push	 OFFSET ??_C@_03LJAEFNNE@max?$AA@
  000bb	68 00 00 00 00	 push	 OFFSET ??_C@_06DBHEJNGA@common?$AA@
  000c0	8d 8d 40 fb ff
	ff		 lea	 ecx, DWORD PTR _kLoader$[ebp]
  000c6	89 5d fc	 mov	 DWORD PTR __$EHRec$[ebp+8], ebx
  000c9	ff d7		 call	 edi
  000cb	89 85 30 fb ff
	ff		 mov	 DWORD PTR _iMaxCount$[ebp], eax

; 43   : 	for( int i=0 ; i<iMaxCount ; i++ )

  000d1	89 9d 38 fb ff
	ff		 mov	 DWORD PTR _i$505381[ebp], ebx
  000d7	3b c3		 cmp	 eax, ebx
  000d9	0f 8e f6 00 00
	00		 jle	 $LN213@LoadEtcIte
$LN215@LoadEtcIte:

; 44   : 	{
; 45   : 		wsprintf_e( szBuf, "etcitem%d", i+1 );

  000df	6a 02		 push	 2
  000e1	c7 45 e0 88 98
	88 83		 mov	 DWORD PTR ___encStr$505388[ebp], -2088200056 ; 83889888H
  000e8	c7 45 e4 99 89
	86 cf		 mov	 DWORD PTR ___encStr$505388[ebp+4], -813266535 ; cf868999H
  000ef	8d 45 e0	 lea	 eax, DWORD PTR ___encStr$505388[ebp]
  000f2	66 c7 45 e8 89
	00		 mov	 WORD PTR ___encStr$505388[ebp+8], 137 ; 00000089H
  000f8	59		 pop	 ecx
$LL337@LoadEtcIte:
  000f9	31 30		 xor	 DWORD PTR [eax], esi
  000fb	83 c0 04	 add	 eax, 4
  000fe	49		 dec	 ecx
  000ff	75 f8		 jne	 SHORT $LL337@LoadEtcIte
  00101	8b 85 38 fb ff
	ff		 mov	 eax, DWORD PTR _i$505381[ebp]
  00107	80 75 e8 ed	 xor	 BYTE PTR ___encStr$505388[ebp+8], -19 ; ffffffedH
  0010b	40		 inc	 eax
  0010c	50		 push	 eax
  0010d	89 85 38 fb ff
	ff		 mov	 DWORD PTR tv3764[ebp], eax
  00113	8d 45 e0	 lea	 eax, DWORD PTR ___encStr$505388[ebp]
  00116	50		 push	 eax
  00117	8d 85 d0 fe ff
	ff		 lea	 eax, DWORD PTR _szBuf$[ebp]
  0011d	50		 push	 eax
  0011e	ff 15 00 00 00
	00		 call	 DWORD PTR __imp__wsprintfA
  00124	83 c4 0c	 add	 esp, 12			; 0000000cH

; 46   : 		kLoader.SetTitle( szBuf );

  00127	8d 85 d0 fe ff
	ff		 lea	 eax, DWORD PTR _szBuf$[ebp]
  0012d	50		 push	 eax
  0012e	8d 8d 40 fb ff
	ff		 lea	 ecx, DWORD PTR _kLoader$[ebp]
  00134	ff 15 00 00 00
	00		 call	 DWORD PTR __imp_?SetTitle@ioINILoader@@QAEXPBD@Z

; 47   : 		
; 48   : 		int iType = kLoader.LoadInt_e( "type", 0 );

  0013a	53		 push	 ebx
  0013b	8d 45 d4	 lea	 eax, DWORD PTR __k$515765[ebp]
  0013e	c7 45 d4 99 95
	9b 8f		 mov	 DWORD PTR __k$515765[ebp], -1885629031 ; 8f9b9599H
  00145	31 75 d4	 xor	 DWORD PTR __k$515765[ebp], esi
  00148	50		 push	 eax
  00149	8d 8d 40 fb ff
	ff		 lea	 ecx, DWORD PTR _kLoader$[ebp]
  0014f	88 5d d8	 mov	 BYTE PTR __k$515765[ebp+4], bl
  00152	ff 15 00 00 00
	00		 call	 DWORD PTR __imp_?LoadInt@ioINILoader@@QAEHPBDH@Z

; 49   : 
; 50   : 		if(iType == 0)

  00158	3b c3		 cmp	 eax, ebx
  0015a	74 61		 je	 SHORT $LN214@LoadEtcIte

; 51   : 			continue;
; 52   : 
; 53   : 		ioEtcItem *pInfo = CreateEtcItem( iType );

  0015c	8b 8d 34 fb ff
	ff		 mov	 ecx, DWORD PTR _this$GSCopy$[ebp]
  00162	50		 push	 eax
  00163	e8 00 00 00 00	 call	 ?CreateEtcItem@ioEtcItemManager@@IAEPAVioEtcItem@@K@Z ; ioEtcItemManager::CreateEtcItem
  00168	89 85 3c fb ff
	ff		 mov	 DWORD PTR _pInfo$505545[ebp], eax

; 54   : 
; 55   : 		if( !pInfo )	

  0016e	3b c3		 cmp	 eax, ebx
  00170	74 4b		 je	 SHORT $LN214@LoadEtcIte

; 56   : 			continue;
; 57   : 
; 58   : 		pInfo->LoadProperty( kLoader );

  00172	8b 10		 mov	 edx, DWORD PTR [eax]
  00174	8d 8d 40 fb ff
	ff		 lea	 ecx, DWORD PTR _kLoader$[ebp]
  0017a	51		 push	 ecx
  0017b	8b c8		 mov	 ecx, eax
  0017d	ff 12		 call	 DWORD PTR [edx]

; 59   : 
; 60   : 		if( !AddEtcItem( pInfo ) )

  0017f	ff b5 3c fb ff
	ff		 push	 DWORD PTR _pInfo$505545[ebp]
  00185	8b 8d 34 fb ff
	ff		 mov	 ecx, DWORD PTR _this$GSCopy$[ebp]
  0018b	e8 00 00 00 00	 call	 ?AddEtcItem@ioEtcItemManager@@IAE_NPAVioEtcItem@@@Z ; ioEtcItemManager::AddEtcItem
  00190	84 c0		 test	 al, al
  00192	75 29		 jne	 SHORT $LN214@LoadEtcIte

; 61   : 		{
; 62   : 			LOG.PrintTimeAndLog( 0, "ioEtcItemManager::LoadEtcItem - %s Add Failed", szBuf );

  00194	8d 85 d0 fe ff
	ff		 lea	 eax, DWORD PTR _szBuf$[ebp]
  0019a	50		 push	 eax
  0019b	68 00 00 00 00	 push	 OFFSET ??_C@_0CO@HJBACJLL@ioEtcItemManager?3?3LoadEtcItem?5?9?5@
  001a0	53		 push	 ebx
  001a1	ff 35 00 00 00
	00		 push	 DWORD PTR __imp_?LOG@@3VCLog@@A
  001a7	ff 15 00 00 00
	00		 call	 DWORD PTR __imp_?PrintTimeAndLog@CLog@@QAAXHPADZZ

; 63   : 			SAFEDELETE( pInfo );

  001ad	8b 8d 3c fb ff
	ff		 mov	 ecx, DWORD PTR _pInfo$505545[ebp]
  001b3	8b 01		 mov	 eax, DWORD PTR [ecx]
  001b5	83 c4 10	 add	 esp, 16			; 00000010H
  001b8	6a 01		 push	 1
  001ba	ff 50 3c	 call	 DWORD PTR [eax+60]
$LN214@LoadEtcIte:

; 43   : 	for( int i=0 ; i<iMaxCount ; i++ )

  001bd	8b 85 38 fb ff
	ff		 mov	 eax, DWORD PTR tv3764[ebp]
  001c3	89 85 38 fb ff
	ff		 mov	 DWORD PTR _i$505381[ebp], eax
  001c9	3b 85 30 fb ff
	ff		 cmp	 eax, DWORD PTR _iMaxCount$[ebp]
  001cf	0f 8c 0a ff ff
	ff		 jl	 $LN215@LoadEtcIte
$LN213@LoadEtcIte:

; 64   : 		}
; 65   : 	}
; 66   : 
; 67   : 	if ( ioLocalManager::GetLocalType() == ioLocalManager::LCT_THAILAND || 
; 68   : 		 ioLocalManager::GetLocalType() == ioLocalManager::LCT_INDONESIA )

  001d5	ff 15 00 00 00
	00		 call	 DWORD PTR __imp_?GetLocalType@ioLocalManagerParent@@SA?AW4LocalType@1@XZ
  001db	3d e3 f1 b0 2f	 cmp	 eax, 800125411		; 2fb0f1e3H
  001e0	74 11		 je	 SHORT $LN108@LoadEtcIte
  001e2	ff 15 00 00 00
	00		 call	 DWORD PTR __imp_?GetLocalType@ioLocalManagerParent@@SA?AW4LocalType@1@XZ
  001e8	3d 8e da ee 37	 cmp	 eax, 938400398		; 37eeda8eH
  001ed	0f 85 6e 01 00
	00		 jne	 $LN109@LoadEtcIte
$LN108@LoadEtcIte:

; 69   : 	{
; 70   : 		//해외일 경우 추가 로딩 //일단 태국만 적용 & 테스트
; 71   : 		ZeroMemory( szBuf, MAX_PATH);

  001f3	68 04 01 00 00	 push	 260			; 00000104H
  001f8	8d 85 d0 fe ff
	ff		 lea	 eax, DWORD PTR _szBuf$[ebp]
  001fe	53		 push	 ebx
  001ff	50		 push	 eax
  00200	e8 00 00 00 00	 call	 _memset
  00205	83 c4 0c	 add	 esp, 12			; 0000000cH

; 72   : 		int iStartCount = kLoader.LoadInt( "common", "OVERSEAS_BASE", 0 );

  00208	53		 push	 ebx
  00209	68 00 00 00 00	 push	 OFFSET ??_C@_0O@DGIPGGDG@OVERSEAS_BASE?$AA@
  0020e	68 00 00 00 00	 push	 OFFSET ??_C@_06DBHEJNGA@common?$AA@
  00213	8d 8d 40 fb ff
	ff		 lea	 ecx, DWORD PTR _kLoader$[ebp]
  00219	ff d7		 call	 edi
  0021b	89 85 3c fb ff
	ff		 mov	 DWORD PTR _iStartCount$505554[ebp], eax

; 73   : 		if( 0 >= iStartCount )

  00221	3b c3		 cmp	 eax, ebx
  00223	7f 0f		 jg	 SHORT $LN107@LoadEtcIte

; 74   : 		{
; 75   : 			LOG.PrintTimeAndLog( 0, "%s - Cannot using overseas setting \"OVERSEAS_BASE\" is empty(0)", __FUNCTION__ );

  00225	68 00 00 00 00	 push	 OFFSET ??_C@_0BO@NGJJNKHE@ioEtcItemManager?3?3LoadEtcItem?$AA@
  0022a	68 00 00 00 00	 push	 OFFSET ??_C@_0DP@HFGECNGK@?$CFs?5?9?5Cannot?5using?5overseas?5setti@

; 76   : 			return;

  0022f	e9 1d 01 00 00	 jmp	 $LN595@LoadEtcIte
$LN107@LoadEtcIte:

; 77   : 		}
; 78   : 		iMaxCount = iStartCount + kLoader.LoadInt( "common", "OVERSEAS_MAX", 0 );

  00234	53		 push	 ebx
  00235	68 00 00 00 00	 push	 OFFSET ??_C@_0N@DBANLMCI@OVERSEAS_MAX?$AA@
  0023a	68 00 00 00 00	 push	 OFFSET ??_C@_06DBHEJNGA@common?$AA@
  0023f	8d 8d 40 fb ff
	ff		 lea	 ecx, DWORD PTR _kLoader$[ebp]
  00245	ff d7		 call	 edi
  00247	03 85 3c fb ff
	ff		 add	 eax, DWORD PTR _iStartCount$505554[ebp]

; 79   : 		for( iStartCount ; iStartCount < iMaxCount ; iStartCount++ )

  0024d	39 85 3c fb ff
	ff		 cmp	 DWORD PTR _iStartCount$505554[ebp], eax
  00253	0f 8d ee 00 00
	00		 jge	 $LN104@LoadEtcIte
  00259	8b 8d 38 fb ff
	ff		 mov	 ecx, DWORD PTR _i$505381[ebp]

; 85   : 
; 86   : 			if(iType == 0)

  0025f	41		 inc	 ecx
  00260	2b 85 3c fb ff
	ff		 sub	 eax, DWORD PTR _iStartCount$505554[ebp]
  00266	89 8d 38 fb ff
	ff		 mov	 DWORD PTR tv3764[ebp], ecx
  0026c	89 85 3c fb ff
	ff		 mov	 DWORD PTR tv1703[ebp], eax
$LN106@LoadEtcIte:

; 80   : 		{
; 81   : 			wsprintf_e( szBuf, "etcitem%d", i+1 );

  00272	6a 02		 push	 2
  00274	c7 45 e0 88 98
	88 83		 mov	 DWORD PTR ___encStr$505566[ebp], -2088200056 ; 83889888H
  0027b	c7 45 e4 99 89
	86 cf		 mov	 DWORD PTR ___encStr$505566[ebp+4], -813266535 ; cf868999H
  00282	8d 45 e0	 lea	 eax, DWORD PTR ___encStr$505566[ebp]
  00285	66 c7 45 e8 89
	00		 mov	 WORD PTR ___encStr$505566[ebp+8], 137 ; 00000089H
  0028b	59		 pop	 ecx
$LL454@LoadEtcIte:
  0028c	31 30		 xor	 DWORD PTR [eax], esi
  0028e	83 c0 04	 add	 eax, 4
  00291	49		 dec	 ecx
  00292	75 f8		 jne	 SHORT $LL454@LoadEtcIte
  00294	ff b5 38 fb ff
	ff		 push	 DWORD PTR tv3764[ebp]
  0029a	80 75 e8 ed	 xor	 BYTE PTR ___encStr$505566[ebp+8], -19 ; ffffffedH
  0029e	8d 45 e0	 lea	 eax, DWORD PTR ___encStr$505566[ebp]
  002a1	50		 push	 eax
  002a2	8d 85 d0 fe ff
	ff		 lea	 eax, DWORD PTR _szBuf$[ebp]
  002a8	50		 push	 eax
  002a9	ff 15 00 00 00
	00		 call	 DWORD PTR __imp__wsprintfA
  002af	83 c4 0c	 add	 esp, 12			; 0000000cH

; 82   : 			kLoader.SetTitle( szBuf );

  002b2	8d 85 d0 fe ff
	ff		 lea	 eax, DWORD PTR _szBuf$[ebp]
  002b8	50		 push	 eax
  002b9	8d 8d 40 fb ff
	ff		 lea	 ecx, DWORD PTR _kLoader$[ebp]
  002bf	ff 15 00 00 00
	00		 call	 DWORD PTR __imp_?SetTitle@ioINILoader@@QAEXPBD@Z

; 83   : 
; 84   : 			int iType = kLoader.LoadInt_e( "type", 0 );

  002c5	53		 push	 ebx
  002c6	8d 45 d4	 lea	 eax, DWORD PTR __k$515906[ebp]
  002c9	c7 45 d4 99 95
	9b 8f		 mov	 DWORD PTR __k$515906[ebp], -1885629031 ; 8f9b9599H
  002d0	31 75 d4	 xor	 DWORD PTR __k$515906[ebp], esi
  002d3	50		 push	 eax
  002d4	8d 8d 40 fb ff
	ff		 lea	 ecx, DWORD PTR _kLoader$[ebp]
  002da	88 5d d8	 mov	 BYTE PTR __k$515906[ebp+4], bl
  002dd	ff 15 00 00 00
	00		 call	 DWORD PTR __imp_?LoadInt@ioINILoader@@QAEHPBDH@Z

; 85   : 
; 86   : 			if(iType == 0)

  002e3	3b c3		 cmp	 eax, ebx
  002e5	74 54		 je	 SHORT $LN105@LoadEtcIte

; 87   : 				continue;
; 88   : 
; 89   : 			ioEtcItem *pInfo = CreateEtcItem( iType );

  002e7	8b 8d 34 fb ff
	ff		 mov	 ecx, DWORD PTR _this$GSCopy$[ebp]
  002ed	50		 push	 eax
  002ee	e8 00 00 00 00	 call	 ?CreateEtcItem@ioEtcItemManager@@IAEPAVioEtcItem@@K@Z ; ioEtcItemManager::CreateEtcItem
  002f3	8b f8		 mov	 edi, eax

; 90   : 
; 91   : 			if( !pInfo )	

  002f5	3b fb		 cmp	 edi, ebx
  002f7	74 42		 je	 SHORT $LN105@LoadEtcIte

; 92   : 				continue;
; 93   : 
; 94   : 			pInfo->LoadProperty( kLoader );

  002f9	8b 07		 mov	 eax, DWORD PTR [edi]
  002fb	8d 8d 40 fb ff
	ff		 lea	 ecx, DWORD PTR _kLoader$[ebp]
  00301	51		 push	 ecx
  00302	8b cf		 mov	 ecx, edi
  00304	ff 10		 call	 DWORD PTR [eax]

; 95   : 
; 96   : 			if( !AddEtcItem( pInfo ) )

  00306	8b 8d 34 fb ff
	ff		 mov	 ecx, DWORD PTR _this$GSCopy$[ebp]
  0030c	57		 push	 edi
  0030d	e8 00 00 00 00	 call	 ?AddEtcItem@ioEtcItemManager@@IAE_NPAVioEtcItem@@@Z ; ioEtcItemManager::AddEtcItem
  00312	84 c0		 test	 al, al
  00314	75 25		 jne	 SHORT $LN105@LoadEtcIte

; 97   : 			{
; 98   : 				LOG.PrintTimeAndLog( 0, "ioEtcItemManager::LoadEtcItem - %s Add Failed", szBuf );

  00316	8d 85 d0 fe ff
	ff		 lea	 eax, DWORD PTR _szBuf$[ebp]
  0031c	50		 push	 eax
  0031d	68 00 00 00 00	 push	 OFFSET ??_C@_0CO@HJBACJLL@ioEtcItemManager?3?3LoadEtcItem?5?9?5@
  00322	53		 push	 ebx
  00323	ff 35 00 00 00
	00		 push	 DWORD PTR __imp_?LOG@@3VCLog@@A
  00329	ff 15 00 00 00
	00		 call	 DWORD PTR __imp_?PrintTimeAndLog@CLog@@QAAXHPADZZ

; 99   : 				SAFEDELETE( pInfo );

  0032f	8b 07		 mov	 eax, DWORD PTR [edi]
  00331	83 c4 10	 add	 esp, 16			; 00000010H
  00334	6a 01		 push	 1
  00336	8b cf		 mov	 ecx, edi
  00338	ff 50 3c	 call	 DWORD PTR [eax+60]
$LN105@LoadEtcIte:

; 79   : 		for( iStartCount ; iStartCount < iMaxCount ; iStartCount++ )

  0033b	ff 8d 3c fb ff
	ff		 dec	 DWORD PTR tv1703[ebp]
  00341	0f 85 2b ff ff
	ff		 jne	 $LN106@LoadEtcIte
$LN104@LoadEtcIte:

; 100  : 			}
; 101  : 		}
; 102  : 		LOG.PrintTimeAndLog( 0, "%s - Apply overseas etcitem", __FUNCTION__ );

  00347	68 00 00 00 00	 push	 OFFSET ??_C@_0BO@NGJJNKHE@ioEtcItemManager?3?3LoadEtcItem?$AA@
  0034c	68 00 00 00 00	 push	 OFFSET ??_C@_0BM@EOANPOBL@?$CFs?5?9?5Apply?5overseas?5etcitem?$AA@
$LN595@LoadEtcIte:
  00351	53		 push	 ebx
  00352	ff 35 00 00 00
	00		 push	 DWORD PTR __imp_?LOG@@3VCLog@@A
  00358	ff 15 00 00 00
	00		 call	 DWORD PTR __imp_?PrintTimeAndLog@CLog@@QAAXHPADZZ
  0035e	83 c4 10	 add	 esp, 16			; 00000010H
$LN109@LoadEtcIte:

; 103  : 	}
; 104  : }

  00361	83 4d fc ff	 or	 DWORD PTR __$EHRec$[ebp+8], -1
  00365	8d 8d 40 fb ff
	ff		 lea	 ecx, DWORD PTR _kLoader$[ebp]
  0036b	ff 15 00 00 00
	00		 call	 DWORD PTR __imp_??1ioINILoader@@QAE@XZ
  00371	e8 00 00 00 00	 call	 __EH_epilog3_GS
  00376	c3		 ret	 0
_TEXT	ENDS
;	COMDAT text$x
text$x	SEGMENT
__unwindfunclet$?LoadEtcItem@ioEtcItemManager@@QAEXXZ$0:
  00000	8d 8d 40 fb ff
	ff		 lea	 ecx, DWORD PTR _kLoader$[ebp]
  00006	e9 00 00 00 00	 jmp	 ??1ioINILoader_e@@QAE@XZ
__ehhandler$?LoadEtcItem@ioEtcItemManager@@QAEXXZ:
  0000b	8b 54 24 08	 mov	 edx, DWORD PTR [esp+8]
  0000f	8d 42 0c	 lea	 eax, DWORD PTR [edx+12]
  00012	8b 8a 2c fb ff
	ff		 mov	 ecx, DWORD PTR [edx-1236]
  00018	33 c8		 xor	 ecx, eax
  0001a	e8 00 00 00 00	 call	 @__security_check_cookie@4
  0001f	8b 4a fc	 mov	 ecx, DWORD PTR [edx-4]
  00022	33 c8		 xor	 ecx, eax
  00024	e8 00 00 00 00	 call	 @__security_check_cookie@4
  00029	b8 00 00 00 00	 mov	 eax, OFFSET __ehfuncinfo$?LoadEtcItem@ioEtcItemManager@@QAEXXZ
  0002e	e9 00 00 00 00	 jmp	 ___CxxFrameHandler3
text$x	ENDS
?LoadEtcItem@ioEtcItemManager@@QAEXXZ ENDP		; ioEtcItemManager::LoadEtcItem
END
