; Listing generated by Microsoft (R) Optimizing Compiler Version 16.00.30319.01 

	TITLE	D:\Lost Saga For Developer\Youtube\Tutorial\Source\src\LSClient\ioExpandMedalSlotManager.cpp
	.686P
	.XMM
	include listing.inc
	.model	flat

INCLUDELIB MSVCRT
INCLUDELIB OLDNAMES

PUBLIC	?ms_Singleton@?$Singleton@VioExpandMedalSlotManager@@@@1PAVioExpandMedalSlotManager@@A ; Singleton<ioExpandMedalSlotManager>::ms_Singleton
;	COMDAT ?ms_Singleton@?$Singleton@VioExpandMedalSlotManager@@@@1PAVioExpandMedalSlotManager@@A
_BSS	SEGMENT
?ms_Singleton@?$Singleton@VioExpandMedalSlotManager@@@@1PAVioExpandMedalSlotManager@@A DD 01H DUP (?) ; Singleton<ioExpandMedalSlotManager>::ms_Singleton
_BSS	ENDS
PUBLIC	?return1000@@YAIXZ				; return1000
; Function compile flags: /Ogsp
; File d:\lost saga for developer\youtube\tutorial\source\src\lsclient\stdafx.h
;	COMDAT ?return1000@@YAIXZ
_TEXT	SEGMENT
?return1000@@YAIXZ PROC					; return1000, COMDAT

; 29   : 	__forceinline unsigned int return1000() { __asm mov eax, 1000 };

  00000	b8 e8 03 00 00	 mov	 eax, 1000		; 000003e8H
  00005	c3		 ret	 0
?return1000@@YAIXZ ENDP					; return1000
_TEXT	ENDS
PUBLIC	?GetSingleton@?$Singleton@VioEtcItemManager@@@@SAAAVioEtcItemManager@@XZ ; Singleton<ioEtcItemManager>::GetSingleton
EXTRN	?ms_Singleton@?$Singleton@VioEtcItemManager@@@@1PAVioEtcItemManager@@A:DWORD ; Singleton<ioEtcItemManager>::ms_Singleton
; Function compile flags: /Ogsp
; File d:\lost saga for developer\youtube\tutorial\source\src\io3dengine\iosingleton.h
;	COMDAT ?GetSingleton@?$Singleton@VioEtcItemManager@@@@SAAAVioEtcItemManager@@XZ
_TEXT	SEGMENT
?GetSingleton@?$Singleton@VioEtcItemManager@@@@SAAAVioEtcItemManager@@XZ PROC ; Singleton<ioEtcItemManager>::GetSingleton, COMDAT

; 42   : 		assert( ms_Singleton );
; 43   : 		return (*ms_Singleton);

  00000	a1 00 00 00 00	 mov	 eax, DWORD PTR ?ms_Singleton@?$Singleton@VioEtcItemManager@@@@1PAVioEtcItemManager@@A ; Singleton<ioEtcItemManager>::ms_Singleton

; 44   : 	}

  00005	c3		 ret	 0
?GetSingleton@?$Singleton@VioEtcItemManager@@@@SAAAVioEtcItemManager@@XZ ENDP ; Singleton<ioEtcItemManager>::GetSingleton
_TEXT	ENDS
PUBLIC	??0?$Singleton@VioExpandMedalSlotManager@@@@QAE@XZ ; Singleton<ioExpandMedalSlotManager>::Singleton<ioExpandMedalSlotManager>
; Function compile flags: /Ogsp
;	COMDAT ??0?$Singleton@VioExpandMedalSlotManager@@@@QAE@XZ
_TEXT	SEGMENT
??0?$Singleton@VioExpandMedalSlotManager@@@@QAE@XZ PROC	; Singleton<ioExpandMedalSlotManager>::Singleton<ioExpandMedalSlotManager>, COMDAT
; _this$ = ecx

; 27   : 	Singleton()

  00000	8b c1		 mov	 eax, ecx

; 28   : 	{
; 29   : 		assert( !ms_Singleton );
; 30   : 		int offset = (int)(T*)1 - (int)(Singleton <T>*)(T*)1;
; 31   : 		ms_Singleton = (T*)((int)this + offset);

  00002	8d 48 fc	 lea	 ecx, DWORD PTR [eax-4]
  00005	89 0d 00 00 00
	00		 mov	 DWORD PTR ?ms_Singleton@?$Singleton@VioExpandMedalSlotManager@@@@1PAVioExpandMedalSlotManager@@A, ecx ; Singleton<ioExpandMedalSlotManager>::ms_Singleton

; 32   : 	}

  0000b	c3		 ret	 0
??0?$Singleton@VioExpandMedalSlotManager@@@@QAE@XZ ENDP	; Singleton<ioExpandMedalSlotManager>::Singleton<ioExpandMedalSlotManager>
_TEXT	ENDS
PUBLIC	??1?$Singleton@VioExpandMedalSlotManager@@@@QAE@XZ ; Singleton<ioExpandMedalSlotManager>::~Singleton<ioExpandMedalSlotManager>
; Function compile flags: /Ogsp
;	COMDAT ??1?$Singleton@VioExpandMedalSlotManager@@@@QAE@XZ
_TEXT	SEGMENT
??1?$Singleton@VioExpandMedalSlotManager@@@@QAE@XZ PROC	; Singleton<ioExpandMedalSlotManager>::~Singleton<ioExpandMedalSlotManager>, COMDAT
; _this$ = ecx

; 36   : 		assert( ms_Singleton );
; 37   : 		ms_Singleton = 0;

  00000	83 25 00 00 00
	00 00		 and	 DWORD PTR ?ms_Singleton@?$Singleton@VioExpandMedalSlotManager@@@@1PAVioExpandMedalSlotManager@@A, 0 ; Singleton<ioExpandMedalSlotManager>::ms_Singleton

; 38   : 	}

  00007	c3		 ret	 0
??1?$Singleton@VioExpandMedalSlotManager@@@@QAE@XZ ENDP	; Singleton<ioExpandMedalSlotManager>::~Singleton<ioExpandMedalSlotManager>
_TEXT	ENDS
PUBLIC	?GetSingleton@?$Singleton@VioExpandMedalSlotManager@@@@SAAAVioExpandMedalSlotManager@@XZ ; Singleton<ioExpandMedalSlotManager>::GetSingleton
; Function compile flags: /Ogsp
;	COMDAT ?GetSingleton@?$Singleton@VioExpandMedalSlotManager@@@@SAAAVioExpandMedalSlotManager@@XZ
_TEXT	SEGMENT
?GetSingleton@?$Singleton@VioExpandMedalSlotManager@@@@SAAAVioExpandMedalSlotManager@@XZ PROC ; Singleton<ioExpandMedalSlotManager>::GetSingleton, COMDAT

; 42   : 		assert( ms_Singleton );
; 43   : 		return (*ms_Singleton);

  00000	a1 00 00 00 00	 mov	 eax, DWORD PTR ?ms_Singleton@?$Singleton@VioExpandMedalSlotManager@@@@1PAVioExpandMedalSlotManager@@A ; Singleton<ioExpandMedalSlotManager>::ms_Singleton

; 44   : 	}

  00005	c3		 ret	 0
?GetSingleton@?$Singleton@VioExpandMedalSlotManager@@@@SAAAVioExpandMedalSlotManager@@XZ ENDP ; Singleton<ioExpandMedalSlotManager>::GetSingleton
_TEXT	ENDS
PUBLIC	?size@?$vector@UExpandMedalSlot@ioExpandMedalSlotManager@@V?$allocator@UExpandMedalSlot@ioExpandMedalSlotManager@@@std@@@std@@QBEIXZ ; std::vector<ioExpandMedalSlotManager::ExpandMedalSlot,std::allocator<ioExpandMedalSlotManager::ExpandMedalSlot> >::size
; Function compile flags: /Ogsp
; File c:\program files (x86)\microsoft visual studio 10.0\vc\include\vector
;	COMDAT ?size@?$vector@UExpandMedalSlot@ioExpandMedalSlotManager@@V?$allocator@UExpandMedalSlot@ioExpandMedalSlotManager@@@std@@@std@@QBEIXZ
_TEXT	SEGMENT
?size@?$vector@UExpandMedalSlot@ioExpandMedalSlotManager@@V?$allocator@UExpandMedalSlot@ioExpandMedalSlotManager@@@std@@@std@@QBEIXZ PROC ; std::vector<ioExpandMedalSlotManager::ExpandMedalSlot,std::allocator<ioExpandMedalSlotManager::ExpandMedalSlot> >::size, COMDAT
; _this$ = ecx

; 879  : 		return (this->_Mylast - this->_Myfirst);

  00000	8b 41 04	 mov	 eax, DWORD PTR [ecx+4]
  00003	2b 01		 sub	 eax, DWORD PTR [ecx]
  00005	6a 0c		 push	 12			; 0000000cH
  00007	99		 cdq
  00008	59		 pop	 ecx
  00009	f7 f9		 idiv	 ecx

; 880  : 		}

  0000b	c3		 ret	 0
?size@?$vector@UExpandMedalSlot@ioExpandMedalSlotManager@@V?$allocator@UExpandMedalSlot@ioExpandMedalSlotManager@@@std@@@std@@QBEIXZ ENDP ; std::vector<ioExpandMedalSlotManager::ExpandMedalSlot,std::allocator<ioExpandMedalSlotManager::ExpandMedalSlot> >::size
_TEXT	ENDS
PUBLIC	??A?$vector@UExpandMedalSlot@ioExpandMedalSlotManager@@V?$allocator@UExpandMedalSlot@ioExpandMedalSlotManager@@@std@@@std@@QAEAAUExpandMedalSlot@ioExpandMedalSlotManager@@I@Z ; std::vector<ioExpandMedalSlotManager::ExpandMedalSlot,std::allocator<ioExpandMedalSlotManager::ExpandMedalSlot> >::operator[]
; Function compile flags: /Ogsp
;	COMDAT ??A?$vector@UExpandMedalSlot@ioExpandMedalSlotManager@@V?$allocator@UExpandMedalSlot@ioExpandMedalSlotManager@@@std@@@std@@QAEAAUExpandMedalSlot@ioExpandMedalSlotManager@@I@Z
_TEXT	SEGMENT
__Pos$ = 8						; size = 4
??A?$vector@UExpandMedalSlot@ioExpandMedalSlotManager@@V?$allocator@UExpandMedalSlot@ioExpandMedalSlotManager@@@std@@@std@@QAEAAUExpandMedalSlot@ioExpandMedalSlotManager@@I@Z PROC ; std::vector<ioExpandMedalSlotManager::ExpandMedalSlot,std::allocator<ioExpandMedalSlotManager::ExpandMedalSlot> >::operator[], COMDAT
; _this$ = ecx

; 928  : 		{	// subscript mutable sequence

  00000	55		 push	 ebp
  00001	8b ec		 mov	 ebp, esp

; 929  :  #if _ITERATOR_DEBUG_LEVEL == 2
; 930  : 		if (size() <= _Pos)
; 931  : 			{	// report error
; 932  : 			_DEBUG_ERROR("vector subscript out of range");
; 933  : 			_SCL_SECURE_OUT_OF_RANGE;
; 934  : 			}
; 935  : 
; 936  :  #elif _ITERATOR_DEBUG_LEVEL == 1
; 937  : 		_SCL_SECURE_VALIDATE_RANGE(_Pos < size());
; 938  :  #endif /* _ITERATOR_DEBUG_LEVEL */
; 939  : 
; 940  : 		return (*(this->_Myfirst + _Pos));

  00003	8b 45 08	 mov	 eax, DWORD PTR __Pos$[ebp]
  00006	6b c0 0c	 imul	 eax, 12			; 0000000cH
  00009	03 01		 add	 eax, DWORD PTR [ecx]

; 941  : 		}

  0000b	5d		 pop	 ebp
  0000c	c2 04 00	 ret	 4
??A?$vector@UExpandMedalSlot@ioExpandMedalSlotManager@@V?$allocator@UExpandMedalSlot@ioExpandMedalSlotManager@@@std@@@std@@QAEAAUExpandMedalSlot@ioExpandMedalSlotManager@@I@Z ENDP ; std::vector<ioExpandMedalSlotManager::ExpandMedalSlot,std::allocator<ioExpandMedalSlotManager::ExpandMedalSlot> >::operator[]
_TEXT	ENDS
PUBLIC	?size@?$vector@UReserveDeleteMedal@ioExpandMedalSlotManager@@V?$allocator@UReserveDeleteMedal@ioExpandMedalSlotManager@@@std@@@std@@QBEIXZ ; std::vector<ioExpandMedalSlotManager::ReserveDeleteMedal,std::allocator<ioExpandMedalSlotManager::ReserveDeleteMedal> >::size
; Function compile flags: /Ogsp
;	COMDAT ?size@?$vector@UReserveDeleteMedal@ioExpandMedalSlotManager@@V?$allocator@UReserveDeleteMedal@ioExpandMedalSlotManager@@@std@@@std@@QBEIXZ
_TEXT	SEGMENT
?size@?$vector@UReserveDeleteMedal@ioExpandMedalSlotManager@@V?$allocator@UReserveDeleteMedal@ioExpandMedalSlotManager@@@std@@@std@@QBEIXZ PROC ; std::vector<ioExpandMedalSlotManager::ReserveDeleteMedal,std::allocator<ioExpandMedalSlotManager::ReserveDeleteMedal> >::size, COMDAT
; _this$ = ecx

; 879  : 		return (this->_Mylast - this->_Myfirst);

  00000	8b 41 04	 mov	 eax, DWORD PTR [ecx+4]
  00003	2b 01		 sub	 eax, DWORD PTR [ecx]
  00005	6a 0c		 push	 12			; 0000000cH
  00007	99		 cdq
  00008	59		 pop	 ecx
  00009	f7 f9		 idiv	 ecx

; 880  : 		}

  0000b	c3		 ret	 0
?size@?$vector@UReserveDeleteMedal@ioExpandMedalSlotManager@@V?$allocator@UReserveDeleteMedal@ioExpandMedalSlotManager@@@std@@@std@@QBEIXZ ENDP ; std::vector<ioExpandMedalSlotManager::ReserveDeleteMedal,std::allocator<ioExpandMedalSlotManager::ReserveDeleteMedal> >::size
_TEXT	ENDS
PUBLIC	??A?$vector@UReserveDeleteMedal@ioExpandMedalSlotManager@@V?$allocator@UReserveDeleteMedal@ioExpandMedalSlotManager@@@std@@@std@@QAEAAUReserveDeleteMedal@ioExpandMedalSlotManager@@I@Z ; std::vector<ioExpandMedalSlotManager::ReserveDeleteMedal,std::allocator<ioExpandMedalSlotManager::ReserveDeleteMedal> >::operator[]
; Function compile flags: /Ogsp
;	COMDAT ??A?$vector@UReserveDeleteMedal@ioExpandMedalSlotManager@@V?$allocator@UReserveDeleteMedal@ioExpandMedalSlotManager@@@std@@@std@@QAEAAUReserveDeleteMedal@ioExpandMedalSlotManager@@I@Z
_TEXT	SEGMENT
__Pos$ = 8						; size = 4
??A?$vector@UReserveDeleteMedal@ioExpandMedalSlotManager@@V?$allocator@UReserveDeleteMedal@ioExpandMedalSlotManager@@@std@@@std@@QAEAAUReserveDeleteMedal@ioExpandMedalSlotManager@@I@Z PROC ; std::vector<ioExpandMedalSlotManager::ReserveDeleteMedal,std::allocator<ioExpandMedalSlotManager::ReserveDeleteMedal> >::operator[], COMDAT
; _this$ = ecx

; 928  : 		{	// subscript mutable sequence

  00000	55		 push	 ebp
  00001	8b ec		 mov	 ebp, esp

; 929  :  #if _ITERATOR_DEBUG_LEVEL == 2
; 930  : 		if (size() <= _Pos)
; 931  : 			{	// report error
; 932  : 			_DEBUG_ERROR("vector subscript out of range");
; 933  : 			_SCL_SECURE_OUT_OF_RANGE;
; 934  : 			}
; 935  : 
; 936  :  #elif _ITERATOR_DEBUG_LEVEL == 1
; 937  : 		_SCL_SECURE_VALIDATE_RANGE(_Pos < size());
; 938  :  #endif /* _ITERATOR_DEBUG_LEVEL */
; 939  : 
; 940  : 		return (*(this->_Myfirst + _Pos));

  00003	8b 45 08	 mov	 eax, DWORD PTR __Pos$[ebp]
  00006	6b c0 0c	 imul	 eax, 12			; 0000000cH
  00009	03 01		 add	 eax, DWORD PTR [ecx]

; 941  : 		}

  0000b	5d		 pop	 ebp
  0000c	c2 04 00	 ret	 4
??A?$vector@UReserveDeleteMedal@ioExpandMedalSlotManager@@V?$allocator@UReserveDeleteMedal@ioExpandMedalSlotManager@@@std@@@std@@QAEAAUReserveDeleteMedal@ioExpandMedalSlotManager@@I@Z ENDP ; std::vector<ioExpandMedalSlotManager::ReserveDeleteMedal,std::allocator<ioExpandMedalSlotManager::ReserveDeleteMedal> >::operator[]
_TEXT	ENDS
PUBLIC	??_7bad_alloc@std@@6B@				; std::bad_alloc::`vftable'
PUBLIC	??0bad_alloc@std@@QAE@PBD@Z			; std::bad_alloc::bad_alloc
PUBLIC	??_R4bad_alloc@std@@6B@				; std::bad_alloc::`RTTI Complete Object Locator'
PUBLIC	??_R0?AVbad_alloc@std@@@8			; std::bad_alloc `RTTI Type Descriptor'
PUBLIC	??_R3bad_alloc@std@@8				; std::bad_alloc::`RTTI Class Hierarchy Descriptor'
PUBLIC	??_R2bad_alloc@std@@8				; std::bad_alloc::`RTTI Base Class Array'
PUBLIC	??_R1A@?0A@EA@bad_alloc@std@@8			; std::bad_alloc::`RTTI Base Class Descriptor at (0,-1,0,64)'
PUBLIC	??_R1A@?0A@EA@exception@std@@8			; std::exception::`RTTI Base Class Descriptor at (0,-1,0,64)'
PUBLIC	??_R0?AVexception@std@@@8			; std::exception `RTTI Type Descriptor'
PUBLIC	??_R3exception@std@@8				; std::exception::`RTTI Class Hierarchy Descriptor'
PUBLIC	??_R2exception@std@@8				; std::exception::`RTTI Base Class Array'
EXTRN	__imp_??0exception@std@@QAE@ABQBD@Z:PROC
EXTRN	??_7type_info@@6B@:QWORD			; type_info::`vftable'
EXTRN	??_Ebad_alloc@std@@UAEPAXI@Z:PROC		; std::bad_alloc::`vector deleting destructor'
EXTRN	?what@exception@std@@UBEPBDXZ:PROC		; std::exception::what
;	COMDAT ??_R2exception@std@@8
; File c:\program files (x86)\microsoft visual studio 10.0\vc\include\exception
rdata$r	SEGMENT
??_R2exception@std@@8 DD FLAT:??_R1A@?0A@EA@exception@std@@8 ; std::exception::`RTTI Base Class Array'
rdata$r	ENDS
;	COMDAT ??_R3exception@std@@8
rdata$r	SEGMENT
??_R3exception@std@@8 DD 00H				; std::exception::`RTTI Class Hierarchy Descriptor'
	DD	00H
	DD	01H
	DD	FLAT:??_R2exception@std@@8
rdata$r	ENDS
;	COMDAT ??_R0?AVexception@std@@@8
_DATA	SEGMENT
??_R0?AVexception@std@@@8 DD FLAT:??_7type_info@@6B@	; std::exception `RTTI Type Descriptor'
	DD	00H
	DB	'.?AVexception@std@@', 00H
_DATA	ENDS
;	COMDAT ??_R1A@?0A@EA@exception@std@@8
rdata$r	SEGMENT
??_R1A@?0A@EA@exception@std@@8 DD FLAT:??_R0?AVexception@std@@@8 ; std::exception::`RTTI Base Class Descriptor at (0,-1,0,64)'
	DD	00H
	DD	00H
	DD	0ffffffffH
	DD	00H
	DD	040H
	DD	FLAT:??_R3exception@std@@8
rdata$r	ENDS
;	COMDAT ??_R1A@?0A@EA@bad_alloc@std@@8
rdata$r	SEGMENT
??_R1A@?0A@EA@bad_alloc@std@@8 DD FLAT:??_R0?AVbad_alloc@std@@@8 ; std::bad_alloc::`RTTI Base Class Descriptor at (0,-1,0,64)'
	DD	01H
	DD	00H
	DD	0ffffffffH
	DD	00H
	DD	040H
	DD	FLAT:??_R3bad_alloc@std@@8
rdata$r	ENDS
;	COMDAT ??_R2bad_alloc@std@@8
rdata$r	SEGMENT
??_R2bad_alloc@std@@8 DD FLAT:??_R1A@?0A@EA@bad_alloc@std@@8 ; std::bad_alloc::`RTTI Base Class Array'
	DD	FLAT:??_R1A@?0A@EA@exception@std@@8
rdata$r	ENDS
;	COMDAT ??_R3bad_alloc@std@@8
rdata$r	SEGMENT
??_R3bad_alloc@std@@8 DD 00H				; std::bad_alloc::`RTTI Class Hierarchy Descriptor'
	DD	00H
	DD	02H
	DD	FLAT:??_R2bad_alloc@std@@8
rdata$r	ENDS
;	COMDAT ??_R0?AVbad_alloc@std@@@8
_DATA	SEGMENT
??_R0?AVbad_alloc@std@@@8 DD FLAT:??_7type_info@@6B@	; std::bad_alloc `RTTI Type Descriptor'
	DD	00H
	DB	'.?AVbad_alloc@std@@', 00H
_DATA	ENDS
;	COMDAT ??_R4bad_alloc@std@@6B@
rdata$r	SEGMENT
??_R4bad_alloc@std@@6B@ DD 00H				; std::bad_alloc::`RTTI Complete Object Locator'
	DD	00H
	DD	00H
	DD	FLAT:??_R0?AVbad_alloc@std@@@8
	DD	FLAT:??_R3bad_alloc@std@@8
rdata$r	ENDS
;	COMDAT ??_7bad_alloc@std@@6B@
CONST	SEGMENT
??_7bad_alloc@std@@6B@ DD FLAT:??_R4bad_alloc@std@@6B@	; std::bad_alloc::`vftable'
	DD	FLAT:??_Ebad_alloc@std@@UAEPAXI@Z
	DD	FLAT:?what@exception@std@@UBEPBDXZ
; Function compile flags: /Ogsp
CONST	ENDS
;	COMDAT ??0bad_alloc@std@@QAE@PBD@Z
_TEXT	SEGMENT
__Message$ = 8						; size = 4
??0bad_alloc@std@@QAE@PBD@Z PROC			; std::bad_alloc::bad_alloc, COMDAT
; _this$ = ecx

; 345  : 		{	// construct from message string

  00000	55		 push	 ebp
  00001	8b ec		 mov	 ebp, esp
  00003	56		 push	 esi
  00004	8d 45 08	 lea	 eax, DWORD PTR __Message$[ebp]
  00007	50		 push	 eax
  00008	8b f1		 mov	 esi, ecx
  0000a	ff 15 00 00 00
	00		 call	 DWORD PTR __imp_??0exception@std@@QAE@ABQBD@Z
  00010	c7 06 00 00 00
	00		 mov	 DWORD PTR [esi], OFFSET ??_7bad_alloc@std@@6B@

; 346  : 		}

  00016	8b c6		 mov	 eax, esi
  00018	5e		 pop	 esi
  00019	5d		 pop	 ebp
  0001a	c2 04 00	 ret	 4
??0bad_alloc@std@@QAE@PBD@Z ENDP			; std::bad_alloc::bad_alloc
_TEXT	ENDS
PUBLIC	?_Inside@?$vector@UExpandMedalSlot@ioExpandMedalSlotManager@@V?$allocator@UExpandMedalSlot@ioExpandMedalSlotManager@@@std@@@std@@IBE_NPBUExpandMedalSlot@ioExpandMedalSlotManager@@@Z ; std::vector<ioExpandMedalSlotManager::ExpandMedalSlot,std::allocator<ioExpandMedalSlotManager::ExpandMedalSlot> >::_Inside
; Function compile flags: /Ogsp
; File c:\program files (x86)\microsoft visual studio 10.0\vc\include\vector
;	COMDAT ?_Inside@?$vector@UExpandMedalSlot@ioExpandMedalSlotManager@@V?$allocator@UExpandMedalSlot@ioExpandMedalSlotManager@@@std@@@std@@IBE_NPBUExpandMedalSlot@ioExpandMedalSlotManager@@@Z
_TEXT	SEGMENT
__Ptr$ = 8						; size = 4
?_Inside@?$vector@UExpandMedalSlot@ioExpandMedalSlotManager@@V?$allocator@UExpandMedalSlot@ioExpandMedalSlotManager@@@std@@@std@@IBE_NPBUExpandMedalSlot@ioExpandMedalSlotManager@@@Z PROC ; std::vector<ioExpandMedalSlotManager::ExpandMedalSlot,std::allocator<ioExpandMedalSlotManager::ExpandMedalSlot> >::_Inside, COMDAT
; _this$ = ecx

; 1285 : 		{	// test if _Ptr points inside vector

  00000	55		 push	 ebp
  00001	8b ec		 mov	 ebp, esp

; 1286 : 		return (_Ptr < this->_Mylast && this->_Myfirst <= _Ptr);

  00003	8b 45 08	 mov	 eax, DWORD PTR __Ptr$[ebp]
  00006	3b 41 04	 cmp	 eax, DWORD PTR [ecx+4]
  00009	73 09		 jae	 SHORT $LN3@Inside
  0000b	39 01		 cmp	 DWORD PTR [ecx], eax
  0000d	77 05		 ja	 SHORT $LN3@Inside
  0000f	33 c0		 xor	 eax, eax
  00011	40		 inc	 eax
  00012	eb 02		 jmp	 SHORT $LN4@Inside
$LN3@Inside:
  00014	33 c0		 xor	 eax, eax
$LN4@Inside:

; 1287 : 		}

  00016	5d		 pop	 ebp
  00017	c2 04 00	 ret	 4
?_Inside@?$vector@UExpandMedalSlot@ioExpandMedalSlotManager@@V?$allocator@UExpandMedalSlot@ioExpandMedalSlotManager@@@std@@@std@@IBE_NPBUExpandMedalSlot@ioExpandMedalSlotManager@@@Z ENDP ; std::vector<ioExpandMedalSlotManager::ExpandMedalSlot,std::allocator<ioExpandMedalSlotManager::ExpandMedalSlot> >::_Inside
_TEXT	ENDS
PUBLIC	??1bad_alloc@std@@UAE@XZ			; std::bad_alloc::~bad_alloc
EXTRN	__imp_??1exception@std@@UAE@XZ:PROC
; Function compile flags: /Ogsp
; File c:\program files (x86)\microsoft visual studio 10.0\vc\include\exception
;	COMDAT ??1bad_alloc@std@@UAE@XZ
_TEXT	SEGMENT
??1bad_alloc@std@@UAE@XZ PROC				; std::bad_alloc::~bad_alloc, COMDAT
; _this$ = ecx

; 354  : 		{	// destroy the object

  00000	c7 01 00 00 00
	00		 mov	 DWORD PTR [ecx], OFFSET ??_7bad_alloc@std@@6B@

; 355  : 		}

  00006	ff 25 00 00 00
	00		 jmp	 DWORD PTR __imp_??1exception@std@@UAE@XZ
??1bad_alloc@std@@UAE@XZ ENDP				; std::bad_alloc::~bad_alloc
_TEXT	ENDS
EXTRN	??3@YAXPAX@Z:PROC				; operator delete
; Function compile flags: /Ogsp
;	COMDAT ??_Gbad_alloc@std@@UAEPAXI@Z
_TEXT	SEGMENT
___flags$ = 8						; size = 4
??_Gbad_alloc@std@@UAEPAXI@Z PROC			; std::bad_alloc::`scalar deleting destructor', COMDAT
; _this$ = ecx
  00000	55		 push	 ebp
  00001	8b ec		 mov	 ebp, esp
  00003	56		 push	 esi
  00004	8b f1		 mov	 esi, ecx
  00006	c7 06 00 00 00
	00		 mov	 DWORD PTR [esi], OFFSET ??_7bad_alloc@std@@6B@
  0000c	ff 15 00 00 00
	00		 call	 DWORD PTR __imp_??1exception@std@@UAE@XZ
  00012	f6 45 08 01	 test	 BYTE PTR ___flags$[ebp], 1
  00016	74 07		 je	 SHORT $LN1@scalar
  00018	56		 push	 esi
  00019	e8 00 00 00 00	 call	 ??3@YAXPAX@Z		; operator delete
  0001e	59		 pop	 ecx
$LN1@scalar:
  0001f	8b c6		 mov	 eax, esi
  00021	5e		 pop	 esi
  00022	5d		 pop	 ebp
  00023	c2 04 00	 ret	 4
??_Gbad_alloc@std@@UAEPAXI@Z ENDP			; std::bad_alloc::`scalar deleting destructor'
_TEXT	ENDS
PUBLIC	?_Orphan_range@?$vector@UExpandMedalSlot@ioExpandMedalSlotManager@@V?$allocator@UExpandMedalSlot@ioExpandMedalSlotManager@@@std@@@std@@IBEXPAUExpandMedalSlot@ioExpandMedalSlotManager@@0@Z ; std::vector<ioExpandMedalSlotManager::ExpandMedalSlot,std::allocator<ioExpandMedalSlotManager::ExpandMedalSlot> >::_Orphan_range
; Function compile flags: /Ogsp
; File c:\program files (x86)\microsoft visual studio 10.0\vc\include\vector
;	COMDAT ?_Orphan_range@?$vector@UExpandMedalSlot@ioExpandMedalSlotManager@@V?$allocator@UExpandMedalSlot@ioExpandMedalSlotManager@@@std@@@std@@IBEXPAUExpandMedalSlot@ioExpandMedalSlotManager@@0@Z
_TEXT	SEGMENT
___formal$ = 8						; size = 4
___formal$ = 12						; size = 4
?_Orphan_range@?$vector@UExpandMedalSlot@ioExpandMedalSlotManager@@V?$allocator@UExpandMedalSlot@ioExpandMedalSlotManager@@@std@@@std@@IBEXPAUExpandMedalSlot@ioExpandMedalSlotManager@@0@Z PROC ; std::vector<ioExpandMedalSlotManager::ExpandMedalSlot,std::allocator<ioExpandMedalSlotManager::ExpandMedalSlot> >::_Orphan_range, COMDAT
; _this$ = ecx

; 1454 : 		}

  00000	c2 08 00	 ret	 8
?_Orphan_range@?$vector@UExpandMedalSlot@ioExpandMedalSlotManager@@V?$allocator@UExpandMedalSlot@ioExpandMedalSlotManager@@@std@@@std@@IBEXPAUExpandMedalSlot@ioExpandMedalSlotManager@@0@Z ENDP ; std::vector<ioExpandMedalSlotManager::ExpandMedalSlot,std::allocator<ioExpandMedalSlotManager::ExpandMedalSlot> >::_Orphan_range
_TEXT	ENDS
PUBLIC	??1?$_Vector_val@UExpandMedalSlot@ioExpandMedalSlotManager@@V?$allocator@UExpandMedalSlot@ioExpandMedalSlotManager@@@std@@@std@@QAE@XZ ; std::_Vector_val<ioExpandMedalSlotManager::ExpandMedalSlot,std::allocator<ioExpandMedalSlotManager::ExpandMedalSlot> >::~_Vector_val<ioExpandMedalSlotManager::ExpandMedalSlot,std::allocator<ioExpandMedalSlotManager::ExpandMedalSlot> >
; Function compile flags: /Ogsp
;	COMDAT ??1?$_Vector_val@UExpandMedalSlot@ioExpandMedalSlotManager@@V?$allocator@UExpandMedalSlot@ioExpandMedalSlotManager@@@std@@@std@@QAE@XZ
_TEXT	SEGMENT
??1?$_Vector_val@UExpandMedalSlot@ioExpandMedalSlotManager@@V?$allocator@UExpandMedalSlot@ioExpandMedalSlotManager@@@std@@@std@@QAE@XZ PROC ; std::_Vector_val<ioExpandMedalSlotManager::ExpandMedalSlot,std::allocator<ioExpandMedalSlotManager::ExpandMedalSlot> >::~_Vector_val<ioExpandMedalSlotManager::ExpandMedalSlot,std::allocator<ioExpandMedalSlotManager::ExpandMedalSlot> >, COMDAT
; _this$ = ecx

; 434  : 		}

  00000	c3		 ret	 0
??1?$_Vector_val@UExpandMedalSlot@ioExpandMedalSlotManager@@V?$allocator@UExpandMedalSlot@ioExpandMedalSlotManager@@@std@@@std@@QAE@XZ ENDP ; std::_Vector_val<ioExpandMedalSlotManager::ExpandMedalSlot,std::allocator<ioExpandMedalSlotManager::ExpandMedalSlot> >::~_Vector_val<ioExpandMedalSlotManager::ExpandMedalSlot,std::allocator<ioExpandMedalSlotManager::ExpandMedalSlot> >
_TEXT	ENDS
PUBLIC	??0?$allocator@UExpandMedalSlot@ioExpandMedalSlotManager@@@std@@QAE@XZ ; std::allocator<ioExpandMedalSlotManager::ExpandMedalSlot>::allocator<ioExpandMedalSlotManager::ExpandMedalSlot>
; Function compile flags: /Ogsp
; File c:\program files (x86)\microsoft visual studio 10.0\vc\include\xmemory
;	COMDAT ??0?$allocator@UExpandMedalSlot@ioExpandMedalSlotManager@@@std@@QAE@XZ
_TEXT	SEGMENT
??0?$allocator@UExpandMedalSlot@ioExpandMedalSlotManager@@@std@@QAE@XZ PROC ; std::allocator<ioExpandMedalSlotManager::ExpandMedalSlot>::allocator<ioExpandMedalSlotManager::ExpandMedalSlot>, COMDAT
; _this$ = ecx

; 161  : 	_ALLOCATOR() _THROW0()

  00000	8b c1		 mov	 eax, ecx

; 162  : 		{	// construct default allocator (do nothing)
; 163  : 		}

  00002	c3		 ret	 0
??0?$allocator@UExpandMedalSlot@ioExpandMedalSlotManager@@@std@@QAE@XZ ENDP ; std::allocator<ioExpandMedalSlotManager::ExpandMedalSlot>::allocator<ioExpandMedalSlotManager::ExpandMedalSlot>
_TEXT	ENDS
PUBLIC	?_Inside@?$vector@UReserveDeleteMedal@ioExpandMedalSlotManager@@V?$allocator@UReserveDeleteMedal@ioExpandMedalSlotManager@@@std@@@std@@IBE_NPBUReserveDeleteMedal@ioExpandMedalSlotManager@@@Z ; std::vector<ioExpandMedalSlotManager::ReserveDeleteMedal,std::allocator<ioExpandMedalSlotManager::ReserveDeleteMedal> >::_Inside
; Function compile flags: /Ogsp
; File c:\program files (x86)\microsoft visual studio 10.0\vc\include\vector
;	COMDAT ?_Inside@?$vector@UReserveDeleteMedal@ioExpandMedalSlotManager@@V?$allocator@UReserveDeleteMedal@ioExpandMedalSlotManager@@@std@@@std@@IBE_NPBUReserveDeleteMedal@ioExpandMedalSlotManager@@@Z
_TEXT	SEGMENT
__Ptr$ = 8						; size = 4
?_Inside@?$vector@UReserveDeleteMedal@ioExpandMedalSlotManager@@V?$allocator@UReserveDeleteMedal@ioExpandMedalSlotManager@@@std@@@std@@IBE_NPBUReserveDeleteMedal@ioExpandMedalSlotManager@@@Z PROC ; std::vector<ioExpandMedalSlotManager::ReserveDeleteMedal,std::allocator<ioExpandMedalSlotManager::ReserveDeleteMedal> >::_Inside, COMDAT
; _this$ = ecx

; 1285 : 		{	// test if _Ptr points inside vector

  00000	55		 push	 ebp
  00001	8b ec		 mov	 ebp, esp

; 1286 : 		return (_Ptr < this->_Mylast && this->_Myfirst <= _Ptr);

  00003	8b 45 08	 mov	 eax, DWORD PTR __Ptr$[ebp]
  00006	3b 41 04	 cmp	 eax, DWORD PTR [ecx+4]
  00009	73 09		 jae	 SHORT $LN3@Inside@2
  0000b	39 01		 cmp	 DWORD PTR [ecx], eax
  0000d	77 05		 ja	 SHORT $LN3@Inside@2
  0000f	33 c0		 xor	 eax, eax
  00011	40		 inc	 eax
  00012	eb 02		 jmp	 SHORT $LN4@Inside@2
$LN3@Inside@2:
  00014	33 c0		 xor	 eax, eax
$LN4@Inside@2:

; 1287 : 		}

  00016	5d		 pop	 ebp
  00017	c2 04 00	 ret	 4
?_Inside@?$vector@UReserveDeleteMedal@ioExpandMedalSlotManager@@V?$allocator@UReserveDeleteMedal@ioExpandMedalSlotManager@@@std@@@std@@IBE_NPBUReserveDeleteMedal@ioExpandMedalSlotManager@@@Z ENDP ; std::vector<ioExpandMedalSlotManager::ReserveDeleteMedal,std::allocator<ioExpandMedalSlotManager::ReserveDeleteMedal> >::_Inside
_TEXT	ENDS
PUBLIC	??2@YAPAXIPAX@Z					; operator new
; Function compile flags: /Ogsp
; File c:\program files (x86)\microsoft visual studio 10.0\vc\include\new
;	COMDAT ??2@YAPAXIPAX@Z
_TEXT	SEGMENT
___formal$ = 8						; size = 4
__Where$ = 12						; size = 4
??2@YAPAXIPAX@Z PROC					; operator new, COMDAT

; 56   : 	{	// construct array with placement at _Where

  00000	55		 push	 ebp
  00001	8b ec		 mov	 ebp, esp

; 57   : 	return (_Where);

  00003	8b 45 0c	 mov	 eax, DWORD PTR __Where$[ebp]

; 58   : 	}

  00006	5d		 pop	 ebp
  00007	c3		 ret	 0
??2@YAPAXIPAX@Z ENDP					; operator new
_TEXT	ENDS
PUBLIC	??3@YAXPAX0@Z					; operator delete
; Function compile flags: /Ogsp
;	COMDAT ??3@YAXPAX0@Z
_TEXT	SEGMENT
___formal$ = 8						; size = 4
___formal$ = 12						; size = 4
??3@YAXPAX0@Z PROC					; operator delete, COMDAT

; 62   : 	}

  00000	c3		 ret	 0
??3@YAXPAX0@Z ENDP					; operator delete
_TEXT	ENDS
PUBLIC	?_Orphan_range@?$vector@UReserveDeleteMedal@ioExpandMedalSlotManager@@V?$allocator@UReserveDeleteMedal@ioExpandMedalSlotManager@@@std@@@std@@IBEXPAUReserveDeleteMedal@ioExpandMedalSlotManager@@0@Z ; std::vector<ioExpandMedalSlotManager::ReserveDeleteMedal,std::allocator<ioExpandMedalSlotManager::ReserveDeleteMedal> >::_Orphan_range
; Function compile flags: /Ogsp
; File c:\program files (x86)\microsoft visual studio 10.0\vc\include\vector
;	COMDAT ?_Orphan_range@?$vector@UReserveDeleteMedal@ioExpandMedalSlotManager@@V?$allocator@UReserveDeleteMedal@ioExpandMedalSlotManager@@@std@@@std@@IBEXPAUReserveDeleteMedal@ioExpandMedalSlotManager@@0@Z
_TEXT	SEGMENT
___formal$ = 8						; size = 4
___formal$ = 12						; size = 4
?_Orphan_range@?$vector@UReserveDeleteMedal@ioExpandMedalSlotManager@@V?$allocator@UReserveDeleteMedal@ioExpandMedalSlotManager@@@std@@@std@@IBEXPAUReserveDeleteMedal@ioExpandMedalSlotManager@@0@Z PROC ; std::vector<ioExpandMedalSlotManager::ReserveDeleteMedal,std::allocator<ioExpandMedalSlotManager::ReserveDeleteMedal> >::_Orphan_range, COMDAT
; _this$ = ecx

; 1454 : 		}

  00000	c2 08 00	 ret	 8
?_Orphan_range@?$vector@UReserveDeleteMedal@ioExpandMedalSlotManager@@V?$allocator@UReserveDeleteMedal@ioExpandMedalSlotManager@@@std@@@std@@IBEXPAUReserveDeleteMedal@ioExpandMedalSlotManager@@0@Z ENDP ; std::vector<ioExpandMedalSlotManager::ReserveDeleteMedal,std::allocator<ioExpandMedalSlotManager::ReserveDeleteMedal> >::_Orphan_range
_TEXT	ENDS
PUBLIC	??1?$_Vector_val@UReserveDeleteMedal@ioExpandMedalSlotManager@@V?$allocator@UReserveDeleteMedal@ioExpandMedalSlotManager@@@std@@@std@@QAE@XZ ; std::_Vector_val<ioExpandMedalSlotManager::ReserveDeleteMedal,std::allocator<ioExpandMedalSlotManager::ReserveDeleteMedal> >::~_Vector_val<ioExpandMedalSlotManager::ReserveDeleteMedal,std::allocator<ioExpandMedalSlotManager::ReserveDeleteMedal> >
; Function compile flags: /Ogsp
;	COMDAT ??1?$_Vector_val@UReserveDeleteMedal@ioExpandMedalSlotManager@@V?$allocator@UReserveDeleteMedal@ioExpandMedalSlotManager@@@std@@@std@@QAE@XZ
_TEXT	SEGMENT
??1?$_Vector_val@UReserveDeleteMedal@ioExpandMedalSlotManager@@V?$allocator@UReserveDeleteMedal@ioExpandMedalSlotManager@@@std@@@std@@QAE@XZ PROC ; std::_Vector_val<ioExpandMedalSlotManager::ReserveDeleteMedal,std::allocator<ioExpandMedalSlotManager::ReserveDeleteMedal> >::~_Vector_val<ioExpandMedalSlotManager::ReserveDeleteMedal,std::allocator<ioExpandMedalSlotManager::ReserveDeleteMedal> >, COMDAT
; _this$ = ecx

; 434  : 		}

  00000	c3		 ret	 0
??1?$_Vector_val@UReserveDeleteMedal@ioExpandMedalSlotManager@@V?$allocator@UReserveDeleteMedal@ioExpandMedalSlotManager@@@std@@@std@@QAE@XZ ENDP ; std::_Vector_val<ioExpandMedalSlotManager::ReserveDeleteMedal,std::allocator<ioExpandMedalSlotManager::ReserveDeleteMedal> >::~_Vector_val<ioExpandMedalSlotManager::ReserveDeleteMedal,std::allocator<ioExpandMedalSlotManager::ReserveDeleteMedal> >
_TEXT	ENDS
PUBLIC	??0?$allocator@UReserveDeleteMedal@ioExpandMedalSlotManager@@@std@@QAE@XZ ; std::allocator<ioExpandMedalSlotManager::ReserveDeleteMedal>::allocator<ioExpandMedalSlotManager::ReserveDeleteMedal>
; Function compile flags: /Ogsp
; File c:\program files (x86)\microsoft visual studio 10.0\vc\include\xmemory
;	COMDAT ??0?$allocator@UReserveDeleteMedal@ioExpandMedalSlotManager@@@std@@QAE@XZ
_TEXT	SEGMENT
??0?$allocator@UReserveDeleteMedal@ioExpandMedalSlotManager@@@std@@QAE@XZ PROC ; std::allocator<ioExpandMedalSlotManager::ReserveDeleteMedal>::allocator<ioExpandMedalSlotManager::ReserveDeleteMedal>, COMDAT
; _this$ = ecx

; 161  : 	_ALLOCATOR() _THROW0()

  00000	8b c1		 mov	 eax, ecx

; 162  : 		{	// construct default allocator (do nothing)
; 163  : 		}

  00002	c3		 ret	 0
??0?$allocator@UReserveDeleteMedal@ioExpandMedalSlotManager@@@std@@QAE@XZ ENDP ; std::allocator<ioExpandMedalSlotManager::ReserveDeleteMedal>::allocator<ioExpandMedalSlotManager::ReserveDeleteMedal>
_TEXT	ENDS
PUBLIC	??D?$_Vector_const_iterator@V?$_Vector_val@UExpandMedalSlot@ioExpandMedalSlotManager@@V?$allocator@UExpandMedalSlot@ioExpandMedalSlotManager@@@std@@@std@@@std@@QBEABUExpandMedalSlot@ioExpandMedalSlotManager@@XZ ; std::_Vector_const_iterator<std::_Vector_val<ioExpandMedalSlotManager::ExpandMedalSlot,std::allocator<ioExpandMedalSlotManager::ExpandMedalSlot> > >::operator*
; Function compile flags: /Ogsp
; File c:\program files (x86)\microsoft visual studio 10.0\vc\include\vector
;	COMDAT ??D?$_Vector_const_iterator@V?$_Vector_val@UExpandMedalSlot@ioExpandMedalSlotManager@@V?$allocator@UExpandMedalSlot@ioExpandMedalSlotManager@@@std@@@std@@@std@@QBEABUExpandMedalSlot@ioExpandMedalSlotManager@@XZ
_TEXT	SEGMENT
??D?$_Vector_const_iterator@V?$_Vector_val@UExpandMedalSlot@ioExpandMedalSlotManager@@V?$allocator@UExpandMedalSlot@ioExpandMedalSlotManager@@@std@@@std@@@std@@QBEABUExpandMedalSlot@ioExpandMedalSlotManager@@XZ PROC ; std::_Vector_const_iterator<std::_Vector_val<ioExpandMedalSlotManager::ExpandMedalSlot,std::allocator<ioExpandMedalSlotManager::ExpandMedalSlot> > >::operator*, COMDAT
; _this$ = ecx

; 64   :  #if _ITERATOR_DEBUG_LEVEL == 2
; 65   : 		if (this->_Getcont() == 0
; 66   : 			|| this->_Ptr == 0
; 67   : 			|| this->_Ptr < ((_Myvec *)this->_Getcont())->_Myfirst
; 68   : 			|| ((_Myvec *)this->_Getcont())->_Mylast <= this->_Ptr)
; 69   : 			{	// report error
; 70   : 			_DEBUG_ERROR("vector iterator not dereferencable");
; 71   : 			_SCL_SECURE_OUT_OF_RANGE;
; 72   : 			}
; 73   : 
; 74   :  #elif _ITERATOR_DEBUG_LEVEL == 1
; 75   : 		_SCL_SECURE_VALIDATE(this->_Getcont() != 0);
; 76   : 		_SCL_SECURE_VALIDATE_RANGE(
; 77   : 			this->_Ptr != 0
; 78   : 			&& ((_Myvec *)this->_Getcont())->_Myfirst <= this->_Ptr
; 79   : 			&& this->_Ptr < ((_Myvec *)this->_Getcont())->_Mylast);
; 80   :  #endif /* _ITERATOR_DEBUG_LEVEL */
; 81   : 
; 82   : 		__analysis_assume(this->_Ptr != 0);
; 83   : 
; 84   : 		return (*this->_Ptr);

  00000	8b 01		 mov	 eax, DWORD PTR [ecx]

; 85   : 		}

  00002	c3		 ret	 0
??D?$_Vector_const_iterator@V?$_Vector_val@UExpandMedalSlot@ioExpandMedalSlotManager@@V?$allocator@UExpandMedalSlot@ioExpandMedalSlotManager@@@std@@@std@@@std@@QBEABUExpandMedalSlot@ioExpandMedalSlotManager@@XZ ENDP ; std::_Vector_const_iterator<std::_Vector_val<ioExpandMedalSlotManager::ExpandMedalSlot,std::allocator<ioExpandMedalSlotManager::ExpandMedalSlot> > >::operator*
_TEXT	ENDS
PUBLIC	??E?$_Vector_const_iterator@V?$_Vector_val@UExpandMedalSlot@ioExpandMedalSlotManager@@V?$allocator@UExpandMedalSlot@ioExpandMedalSlotManager@@@std@@@std@@@std@@QAEAAV01@XZ ; std::_Vector_const_iterator<std::_Vector_val<ioExpandMedalSlotManager::ExpandMedalSlot,std::allocator<ioExpandMedalSlotManager::ExpandMedalSlot> > >::operator++
; Function compile flags: /Ogsp
;	COMDAT ??E?$_Vector_const_iterator@V?$_Vector_val@UExpandMedalSlot@ioExpandMedalSlotManager@@V?$allocator@UExpandMedalSlot@ioExpandMedalSlotManager@@@std@@@std@@@std@@QAEAAV01@XZ
_TEXT	SEGMENT
??E?$_Vector_const_iterator@V?$_Vector_val@UExpandMedalSlot@ioExpandMedalSlotManager@@V?$allocator@UExpandMedalSlot@ioExpandMedalSlotManager@@@std@@@std@@@std@@QAEAAV01@XZ PROC ; std::_Vector_const_iterator<std::_Vector_val<ioExpandMedalSlotManager::ExpandMedalSlot,std::allocator<ioExpandMedalSlotManager::ExpandMedalSlot> > >::operator++, COMDAT
; _this$ = ecx

; 93   : 		{	// preincrement

  00000	8b c1		 mov	 eax, ecx

; 94   :  #if _ITERATOR_DEBUG_LEVEL == 2
; 95   : 		if (this->_Getcont() == 0
; 96   : 			|| this->_Ptr == 0
; 97   : 			|| ((_Myvec *)this->_Getcont())->_Mylast <= this->_Ptr)
; 98   : 			{	// report error
; 99   : 			_DEBUG_ERROR("vector iterator not incrementable");
; 100  : 			_SCL_SECURE_OUT_OF_RANGE;
; 101  : 			}
; 102  : 
; 103  :  #elif _ITERATOR_DEBUG_LEVEL == 1
; 104  : 		_SCL_SECURE_VALIDATE(this->_Getcont() != 0);
; 105  : 		_SCL_SECURE_VALIDATE_RANGE(
; 106  : 			this->_Ptr != 0
; 107  : 			&& this->_Ptr < ((_Myvec *)this->_Getcont())->_Mylast);
; 108  :  #endif /* _ITERATOR_DEBUG_LEVEL */
; 109  : 
; 110  : 		++this->_Ptr;

  00002	83 00 0c	 add	 DWORD PTR [eax], 12	; 0000000cH

; 111  : 		return (*this);
; 112  : 		}

  00005	c3		 ret	 0
??E?$_Vector_const_iterator@V?$_Vector_val@UExpandMedalSlot@ioExpandMedalSlotManager@@V?$allocator@UExpandMedalSlot@ioExpandMedalSlotManager@@@std@@@std@@@std@@QAEAAV01@XZ ENDP ; std::_Vector_const_iterator<std::_Vector_val<ioExpandMedalSlotManager::ExpandMedalSlot,std::allocator<ioExpandMedalSlotManager::ExpandMedalSlot> > >::operator++
_TEXT	ENDS
PUBLIC	?capacity@?$vector@UExpandMedalSlot@ioExpandMedalSlotManager@@V?$allocator@UExpandMedalSlot@ioExpandMedalSlotManager@@@std@@@std@@QBEIXZ ; std::vector<ioExpandMedalSlotManager::ExpandMedalSlot,std::allocator<ioExpandMedalSlotManager::ExpandMedalSlot> >::capacity
; Function compile flags: /Ogsp
;	COMDAT ?capacity@?$vector@UExpandMedalSlot@ioExpandMedalSlotManager@@V?$allocator@UExpandMedalSlot@ioExpandMedalSlotManager@@@std@@@std@@QBEIXZ
_TEXT	SEGMENT
?capacity@?$vector@UExpandMedalSlot@ioExpandMedalSlotManager@@V?$allocator@UExpandMedalSlot@ioExpandMedalSlotManager@@@std@@@std@@QBEIXZ PROC ; std::vector<ioExpandMedalSlotManager::ExpandMedalSlot,std::allocator<ioExpandMedalSlotManager::ExpandMedalSlot> >::capacity, COMDAT
; _this$ = ecx

; 777  : 		return (this->_Myend - this->_Myfirst);

  00000	8b 41 08	 mov	 eax, DWORD PTR [ecx+8]
  00003	2b 01		 sub	 eax, DWORD PTR [ecx]
  00005	6a 0c		 push	 12			; 0000000cH
  00007	99		 cdq
  00008	59		 pop	 ecx
  00009	f7 f9		 idiv	 ecx

; 778  : 		}

  0000b	c3		 ret	 0
?capacity@?$vector@UExpandMedalSlot@ioExpandMedalSlotManager@@V?$allocator@UExpandMedalSlot@ioExpandMedalSlotManager@@@std@@@std@@QBEIXZ ENDP ; std::vector<ioExpandMedalSlotManager::ExpandMedalSlot,std::allocator<ioExpandMedalSlotManager::ExpandMedalSlot> >::capacity
_TEXT	ENDS
PUBLIC	??_C@_0BD@OLBABOEK@vector?$DMT?$DO?5too?5long?$AA@ ; `string'
PUBLIC	?_Xlen@?$vector@UExpandMedalSlot@ioExpandMedalSlotManager@@V?$allocator@UExpandMedalSlot@ioExpandMedalSlotManager@@@std@@@std@@IBEXXZ ; std::vector<ioExpandMedalSlotManager::ExpandMedalSlot,std::allocator<ioExpandMedalSlotManager::ExpandMedalSlot> >::_Xlen
EXTRN	__imp_?_Xlength_error@std@@YAXPBD@Z:PROC
;	COMDAT ??_C@_0BD@OLBABOEK@vector?$DMT?$DO?5too?5long?$AA@
CONST	SEGMENT
??_C@_0BD@OLBABOEK@vector?$DMT?$DO?5too?5long?$AA@ DB 'vector<T> too long'
	DB	00H						; `string'
; Function compile flags: /Ogsp
CONST	ENDS
;	COMDAT ?_Xlen@?$vector@UExpandMedalSlot@ioExpandMedalSlotManager@@V?$allocator@UExpandMedalSlot@ioExpandMedalSlotManager@@@std@@@std@@IBEXXZ
_TEXT	SEGMENT
?_Xlen@?$vector@UExpandMedalSlot@ioExpandMedalSlotManager@@V?$allocator@UExpandMedalSlot@ioExpandMedalSlotManager@@@std@@@std@@IBEXXZ PROC ; std::vector<ioExpandMedalSlotManager::ExpandMedalSlot,std::allocator<ioExpandMedalSlotManager::ExpandMedalSlot> >::_Xlen, COMDAT
; _this$ = ecx

; 1427 : 		_Xlength_error("vector<T> too long");

  00000	68 00 00 00 00	 push	 OFFSET ??_C@_0BD@OLBABOEK@vector?$DMT?$DO?5too?5long?$AA@
  00005	ff 15 00 00 00
	00		 call	 DWORD PTR __imp_?_Xlength_error@std@@YAXPBD@Z
$LN4@Xlen:
$LN3@Xlen:
  0000b	cc		 int	 3
?_Xlen@?$vector@UExpandMedalSlot@ioExpandMedalSlotManager@@V?$allocator@UExpandMedalSlot@ioExpandMedalSlotManager@@@std@@@std@@IBEXXZ ENDP ; std::vector<ioExpandMedalSlotManager::ExpandMedalSlot,std::allocator<ioExpandMedalSlotManager::ExpandMedalSlot> >::_Xlen
_TEXT	ENDS
PUBLIC	??0?$allocator@UExpandMedalSlot@ioExpandMedalSlotManager@@@std@@QAE@ABV01@@Z ; std::allocator<ioExpandMedalSlotManager::ExpandMedalSlot>::allocator<ioExpandMedalSlotManager::ExpandMedalSlot>
; Function compile flags: /Ogsp
; File c:\program files (x86)\microsoft visual studio 10.0\vc\include\xmemory
;	COMDAT ??0?$allocator@UExpandMedalSlot@ioExpandMedalSlotManager@@@std@@QAE@ABV01@@Z
_TEXT	SEGMENT
___formal$ = 8						; size = 4
??0?$allocator@UExpandMedalSlot@ioExpandMedalSlotManager@@@std@@QAE@ABV01@@Z PROC ; std::allocator<ioExpandMedalSlotManager::ExpandMedalSlot>::allocator<ioExpandMedalSlotManager::ExpandMedalSlot>, COMDAT
; _this$ = ecx

; 165  : 	_ALLOCATOR(const _ALLOCATOR<_Ty>&) _THROW0()

  00000	8b c1		 mov	 eax, ecx

; 166  : 		{	// construct by copying (do nothing)
; 167  : 		}

  00002	c2 04 00	 ret	 4
??0?$allocator@UExpandMedalSlot@ioExpandMedalSlotManager@@@std@@QAE@ABV01@@Z ENDP ; std::allocator<ioExpandMedalSlotManager::ExpandMedalSlot>::allocator<ioExpandMedalSlotManager::ExpandMedalSlot>
_TEXT	ENDS
PUBLIC	?deallocate@?$allocator@UExpandMedalSlot@ioExpandMedalSlotManager@@@std@@QAEXPAUExpandMedalSlot@ioExpandMedalSlotManager@@I@Z ; std::allocator<ioExpandMedalSlotManager::ExpandMedalSlot>::deallocate
; Function compile flags: /Ogsp
;	COMDAT ?deallocate@?$allocator@UExpandMedalSlot@ioExpandMedalSlotManager@@@std@@QAEXPAUExpandMedalSlot@ioExpandMedalSlotManager@@I@Z
_TEXT	SEGMENT
__Ptr$ = 8						; size = 4
___formal$ = 12						; size = 4
?deallocate@?$allocator@UExpandMedalSlot@ioExpandMedalSlotManager@@@std@@QAEXPAUExpandMedalSlot@ioExpandMedalSlotManager@@I@Z PROC ; std::allocator<ioExpandMedalSlotManager::ExpandMedalSlot>::deallocate, COMDAT
; _this$ = ecx

; 181  : 		{	// deallocate object at _Ptr, ignore size

  00000	55		 push	 ebp
  00001	8b ec		 mov	 ebp, esp

; 182  : 		::operator delete(_Ptr);

  00003	ff 75 08	 push	 DWORD PTR __Ptr$[ebp]
  00006	e8 00 00 00 00	 call	 ??3@YAXPAX@Z		; operator delete
  0000b	59		 pop	 ecx

; 183  : 		}

  0000c	5d		 pop	 ebp
  0000d	c2 08 00	 ret	 8
?deallocate@?$allocator@UExpandMedalSlot@ioExpandMedalSlotManager@@@std@@QAEXPAUExpandMedalSlot@ioExpandMedalSlotManager@@I@Z ENDP ; std::allocator<ioExpandMedalSlotManager::ExpandMedalSlot>::deallocate
_TEXT	ENDS
PUBLIC	?capacity@?$vector@UReserveDeleteMedal@ioExpandMedalSlotManager@@V?$allocator@UReserveDeleteMedal@ioExpandMedalSlotManager@@@std@@@std@@QBEIXZ ; std::vector<ioExpandMedalSlotManager::ReserveDeleteMedal,std::allocator<ioExpandMedalSlotManager::ReserveDeleteMedal> >::capacity
; Function compile flags: /Ogsp
; File c:\program files (x86)\microsoft visual studio 10.0\vc\include\vector
;	COMDAT ?capacity@?$vector@UReserveDeleteMedal@ioExpandMedalSlotManager@@V?$allocator@UReserveDeleteMedal@ioExpandMedalSlotManager@@@std@@@std@@QBEIXZ
_TEXT	SEGMENT
?capacity@?$vector@UReserveDeleteMedal@ioExpandMedalSlotManager@@V?$allocator@UReserveDeleteMedal@ioExpandMedalSlotManager@@@std@@@std@@QBEIXZ PROC ; std::vector<ioExpandMedalSlotManager::ReserveDeleteMedal,std::allocator<ioExpandMedalSlotManager::ReserveDeleteMedal> >::capacity, COMDAT
; _this$ = ecx

; 777  : 		return (this->_Myend - this->_Myfirst);

  00000	8b 41 08	 mov	 eax, DWORD PTR [ecx+8]
  00003	2b 01		 sub	 eax, DWORD PTR [ecx]
  00005	6a 0c		 push	 12			; 0000000cH
  00007	99		 cdq
  00008	59		 pop	 ecx
  00009	f7 f9		 idiv	 ecx

; 778  : 		}

  0000b	c3		 ret	 0
?capacity@?$vector@UReserveDeleteMedal@ioExpandMedalSlotManager@@V?$allocator@UReserveDeleteMedal@ioExpandMedalSlotManager@@@std@@@std@@QBEIXZ ENDP ; std::vector<ioExpandMedalSlotManager::ReserveDeleteMedal,std::allocator<ioExpandMedalSlotManager::ReserveDeleteMedal> >::capacity
_TEXT	ENDS
PUBLIC	?_Xlen@?$vector@UReserveDeleteMedal@ioExpandMedalSlotManager@@V?$allocator@UReserveDeleteMedal@ioExpandMedalSlotManager@@@std@@@std@@IBEXXZ ; std::vector<ioExpandMedalSlotManager::ReserveDeleteMedal,std::allocator<ioExpandMedalSlotManager::ReserveDeleteMedal> >::_Xlen
; Function compile flags: /Ogsp
;	COMDAT ?_Xlen@?$vector@UReserveDeleteMedal@ioExpandMedalSlotManager@@V?$allocator@UReserveDeleteMedal@ioExpandMedalSlotManager@@@std@@@std@@IBEXXZ
_TEXT	SEGMENT
?_Xlen@?$vector@UReserveDeleteMedal@ioExpandMedalSlotManager@@V?$allocator@UReserveDeleteMedal@ioExpandMedalSlotManager@@@std@@@std@@IBEXXZ PROC ; std::vector<ioExpandMedalSlotManager::ReserveDeleteMedal,std::allocator<ioExpandMedalSlotManager::ReserveDeleteMedal> >::_Xlen, COMDAT
; _this$ = ecx

; 1427 : 		_Xlength_error("vector<T> too long");

  00000	68 00 00 00 00	 push	 OFFSET ??_C@_0BD@OLBABOEK@vector?$DMT?$DO?5too?5long?$AA@
  00005	ff 15 00 00 00
	00		 call	 DWORD PTR __imp_?_Xlength_error@std@@YAXPBD@Z
$LN4@Xlen@2:
$LN3@Xlen@2:
  0000b	cc		 int	 3
?_Xlen@?$vector@UReserveDeleteMedal@ioExpandMedalSlotManager@@V?$allocator@UReserveDeleteMedal@ioExpandMedalSlotManager@@@std@@@std@@IBEXXZ ENDP ; std::vector<ioExpandMedalSlotManager::ReserveDeleteMedal,std::allocator<ioExpandMedalSlotManager::ReserveDeleteMedal> >::_Xlen
_TEXT	ENDS
PUBLIC	??0?$allocator@UReserveDeleteMedal@ioExpandMedalSlotManager@@@std@@QAE@ABV01@@Z ; std::allocator<ioExpandMedalSlotManager::ReserveDeleteMedal>::allocator<ioExpandMedalSlotManager::ReserveDeleteMedal>
; Function compile flags: /Ogsp
; File c:\program files (x86)\microsoft visual studio 10.0\vc\include\xmemory
;	COMDAT ??0?$allocator@UReserveDeleteMedal@ioExpandMedalSlotManager@@@std@@QAE@ABV01@@Z
_TEXT	SEGMENT
___formal$ = 8						; size = 4
??0?$allocator@UReserveDeleteMedal@ioExpandMedalSlotManager@@@std@@QAE@ABV01@@Z PROC ; std::allocator<ioExpandMedalSlotManager::ReserveDeleteMedal>::allocator<ioExpandMedalSlotManager::ReserveDeleteMedal>, COMDAT
; _this$ = ecx

; 165  : 	_ALLOCATOR(const _ALLOCATOR<_Ty>&) _THROW0()

  00000	8b c1		 mov	 eax, ecx

; 166  : 		{	// construct by copying (do nothing)
; 167  : 		}

  00002	c2 04 00	 ret	 4
??0?$allocator@UReserveDeleteMedal@ioExpandMedalSlotManager@@@std@@QAE@ABV01@@Z ENDP ; std::allocator<ioExpandMedalSlotManager::ReserveDeleteMedal>::allocator<ioExpandMedalSlotManager::ReserveDeleteMedal>
_TEXT	ENDS
PUBLIC	?deallocate@?$allocator@UReserveDeleteMedal@ioExpandMedalSlotManager@@@std@@QAEXPAUReserveDeleteMedal@ioExpandMedalSlotManager@@I@Z ; std::allocator<ioExpandMedalSlotManager::ReserveDeleteMedal>::deallocate
; Function compile flags: /Ogsp
;	COMDAT ?deallocate@?$allocator@UReserveDeleteMedal@ioExpandMedalSlotManager@@@std@@QAEXPAUReserveDeleteMedal@ioExpandMedalSlotManager@@I@Z
_TEXT	SEGMENT
__Ptr$ = 8						; size = 4
___formal$ = 12						; size = 4
?deallocate@?$allocator@UReserveDeleteMedal@ioExpandMedalSlotManager@@@std@@QAEXPAUReserveDeleteMedal@ioExpandMedalSlotManager@@I@Z PROC ; std::allocator<ioExpandMedalSlotManager::ReserveDeleteMedal>::deallocate, COMDAT
; _this$ = ecx

; 181  : 		{	// deallocate object at _Ptr, ignore size

  00000	55		 push	 ebp
  00001	8b ec		 mov	 ebp, esp

; 182  : 		::operator delete(_Ptr);

  00003	ff 75 08	 push	 DWORD PTR __Ptr$[ebp]
  00006	e8 00 00 00 00	 call	 ??3@YAXPAX@Z		; operator delete
  0000b	59		 pop	 ecx

; 183  : 		}

  0000c	5d		 pop	 ebp
  0000d	c2 08 00	 ret	 8
?deallocate@?$allocator@UReserveDeleteMedal@ioExpandMedalSlotManager@@@std@@QAEXPAUReserveDeleteMedal@ioExpandMedalSlotManager@@I@Z ENDP ; std::allocator<ioExpandMedalSlotManager::ReserveDeleteMedal>::deallocate
_TEXT	ENDS
PUBLIC	?_Compat@?$_Vector_const_iterator@V?$_Vector_val@UExpandMedalSlot@ioExpandMedalSlotManager@@V?$allocator@UExpandMedalSlot@ioExpandMedalSlotManager@@@std@@@std@@@std@@QBEXABV12@@Z ; std::_Vector_const_iterator<std::_Vector_val<ioExpandMedalSlotManager::ExpandMedalSlot,std::allocator<ioExpandMedalSlotManager::ExpandMedalSlot> > >::_Compat
; Function compile flags: /Ogsp
; File c:\program files (x86)\microsoft visual studio 10.0\vc\include\vector
;	COMDAT ?_Compat@?$_Vector_const_iterator@V?$_Vector_val@UExpandMedalSlot@ioExpandMedalSlotManager@@V?$allocator@UExpandMedalSlot@ioExpandMedalSlotManager@@@std@@@std@@@std@@QBEXABV12@@Z
_TEXT	SEGMENT
___formal$ = 8						; size = 4
?_Compat@?$_Vector_const_iterator@V?$_Vector_val@UExpandMedalSlot@ioExpandMedalSlotManager@@V?$allocator@UExpandMedalSlot@ioExpandMedalSlotManager@@@std@@@std@@@std@@QBEXABV12@@Z PROC ; std::_Vector_const_iterator<std::_Vector_val<ioExpandMedalSlotManager::ExpandMedalSlot,std::allocator<ioExpandMedalSlotManager::ExpandMedalSlot> > >::_Compat, COMDAT
; _this$ = ecx

; 253  : 		}

  00000	c2 04 00	 ret	 4
?_Compat@?$_Vector_const_iterator@V?$_Vector_val@UExpandMedalSlot@ioExpandMedalSlotManager@@V?$allocator@UExpandMedalSlot@ioExpandMedalSlotManager@@@std@@@std@@@std@@QBEXABV12@@Z ENDP ; std::_Vector_const_iterator<std::_Vector_val<ioExpandMedalSlotManager::ExpandMedalSlot,std::allocator<ioExpandMedalSlotManager::ExpandMedalSlot> > >::_Compat
_TEXT	ENDS
PUBLIC	?max_size@?$allocator@UExpandMedalSlot@ioExpandMedalSlotManager@@@std@@QBEIXZ ; std::allocator<ioExpandMedalSlotManager::ExpandMedalSlot>::max_size
; Function compile flags: /Ogsp
; File c:\program files (x86)\microsoft visual studio 10.0\vc\include\xmemory
;	COMDAT ?max_size@?$allocator@UExpandMedalSlot@ioExpandMedalSlotManager@@@std@@QBEIXZ
_TEXT	SEGMENT
?max_size@?$allocator@UExpandMedalSlot@ioExpandMedalSlotManager@@@std@@QBEIXZ PROC ; std::allocator<ioExpandMedalSlotManager::ExpandMedalSlot>::max_size, COMDAT
; _this$ = ecx

; 218  : 		_SIZT _Count = (_SIZT)(-1) / sizeof (_Ty);
; 219  : 		return (0 < _Count ? _Count : 1);

  00000	b8 55 55 55 15	 mov	 eax, 357913941		; 15555555H

; 220  : 		}

  00005	c3		 ret	 0
?max_size@?$allocator@UExpandMedalSlot@ioExpandMedalSlotManager@@@std@@QBEIXZ ENDP ; std::allocator<ioExpandMedalSlotManager::ExpandMedalSlot>::max_size
_TEXT	ENDS
PUBLIC	?max_size@?$allocator@UReserveDeleteMedal@ioExpandMedalSlotManager@@@std@@QBEIXZ ; std::allocator<ioExpandMedalSlotManager::ReserveDeleteMedal>::max_size
; Function compile flags: /Ogsp
;	COMDAT ?max_size@?$allocator@UReserveDeleteMedal@ioExpandMedalSlotManager@@@std@@QBEIXZ
_TEXT	SEGMENT
?max_size@?$allocator@UReserveDeleteMedal@ioExpandMedalSlotManager@@@std@@QBEIXZ PROC ; std::allocator<ioExpandMedalSlotManager::ReserveDeleteMedal>::max_size, COMDAT
; _this$ = ecx

; 218  : 		_SIZT _Count = (_SIZT)(-1) / sizeof (_Ty);
; 219  : 		return (0 < _Count ? _Count : 1);

  00000	b8 55 55 55 15	 mov	 eax, 357913941		; 15555555H

; 220  : 		}

  00005	c3		 ret	 0
?max_size@?$allocator@UReserveDeleteMedal@ioExpandMedalSlotManager@@@std@@QBEIXZ ENDP ; std::allocator<ioExpandMedalSlotManager::ReserveDeleteMedal>::max_size
_TEXT	ENDS
PUBLIC	?_Compat@?$_Vector_const_iterator@V?$_Vector_val@UReserveDeleteMedal@ioExpandMedalSlotManager@@V?$allocator@UReserveDeleteMedal@ioExpandMedalSlotManager@@@std@@@std@@@std@@QBEXABV12@@Z ; std::_Vector_const_iterator<std::_Vector_val<ioExpandMedalSlotManager::ReserveDeleteMedal,std::allocator<ioExpandMedalSlotManager::ReserveDeleteMedal> > >::_Compat
; Function compile flags: /Ogsp
; File c:\program files (x86)\microsoft visual studio 10.0\vc\include\vector
;	COMDAT ?_Compat@?$_Vector_const_iterator@V?$_Vector_val@UReserveDeleteMedal@ioExpandMedalSlotManager@@V?$allocator@UReserveDeleteMedal@ioExpandMedalSlotManager@@@std@@@std@@@std@@QBEXABV12@@Z
_TEXT	SEGMENT
___formal$ = 8						; size = 4
?_Compat@?$_Vector_const_iterator@V?$_Vector_val@UReserveDeleteMedal@ioExpandMedalSlotManager@@V?$allocator@UReserveDeleteMedal@ioExpandMedalSlotManager@@@std@@@std@@@std@@QBEXABV12@@Z PROC ; std::_Vector_const_iterator<std::_Vector_val<ioExpandMedalSlotManager::ReserveDeleteMedal,std::allocator<ioExpandMedalSlotManager::ReserveDeleteMedal> > >::_Compat, COMDAT
; _this$ = ecx

; 253  : 		}

  00000	c2 04 00	 ret	 4
?_Compat@?$_Vector_const_iterator@V?$_Vector_val@UReserveDeleteMedal@ioExpandMedalSlotManager@@V?$allocator@UReserveDeleteMedal@ioExpandMedalSlotManager@@@std@@@std@@@std@@QBEXABV12@@Z ENDP ; std::_Vector_const_iterator<std::_Vector_val<ioExpandMedalSlotManager::ReserveDeleteMedal,std::allocator<ioExpandMedalSlotManager::ReserveDeleteMedal> > >::_Compat
_TEXT	ENDS
PUBLIC	??$addressof@$$CBUExpandMedalSlot@ioExpandMedalSlotManager@@@std@@YAPBUExpandMedalSlot@ioExpandMedalSlotManager@@ABU12@@Z ; std::addressof<ioExpandMedalSlotManager::ExpandMedalSlot const >
; Function compile flags: /Ogsp
; File c:\program files (x86)\microsoft visual studio 10.0\vc\include\xmemory
;	COMDAT ??$addressof@$$CBUExpandMedalSlot@ioExpandMedalSlotManager@@@std@@YAPBUExpandMedalSlot@ioExpandMedalSlotManager@@ABU12@@Z
_TEXT	SEGMENT
__Val$ = 8						; size = 4
??$addressof@$$CBUExpandMedalSlot@ioExpandMedalSlotManager@@@std@@YAPBUExpandMedalSlot@ioExpandMedalSlotManager@@ABU12@@Z PROC ; std::addressof<ioExpandMedalSlotManager::ExpandMedalSlot const >, COMDAT

; 110  : 	{	// return address of _Val

  00000	55		 push	 ebp
  00001	8b ec		 mov	 ebp, esp

; 111  : 	return ((_Ty *) &(char&)_Val);

  00003	8b 45 08	 mov	 eax, DWORD PTR __Val$[ebp]

; 112  : 	}

  00006	5d		 pop	 ebp
  00007	c3		 ret	 0
??$addressof@$$CBUExpandMedalSlot@ioExpandMedalSlotManager@@@std@@YAPBUExpandMedalSlot@ioExpandMedalSlotManager@@ABU12@@Z ENDP ; std::addressof<ioExpandMedalSlotManager::ExpandMedalSlot const >
_TEXT	ENDS
PUBLIC	??$addressof@$$CBUReserveDeleteMedal@ioExpandMedalSlotManager@@@std@@YAPBUReserveDeleteMedal@ioExpandMedalSlotManager@@ABU12@@Z ; std::addressof<ioExpandMedalSlotManager::ReserveDeleteMedal const >
; Function compile flags: /Ogsp
;	COMDAT ??$addressof@$$CBUReserveDeleteMedal@ioExpandMedalSlotManager@@@std@@YAPBUReserveDeleteMedal@ioExpandMedalSlotManager@@ABU12@@Z
_TEXT	SEGMENT
__Val$ = 8						; size = 4
??$addressof@$$CBUReserveDeleteMedal@ioExpandMedalSlotManager@@@std@@YAPBUReserveDeleteMedal@ioExpandMedalSlotManager@@ABU12@@Z PROC ; std::addressof<ioExpandMedalSlotManager::ReserveDeleteMedal const >, COMDAT

; 110  : 	{	// return address of _Val

  00000	55		 push	 ebp
  00001	8b ec		 mov	 ebp, esp

; 111  : 	return ((_Ty *) &(char&)_Val);

  00003	8b 45 08	 mov	 eax, DWORD PTR __Val$[ebp]

; 112  : 	}

  00006	5d		 pop	 ebp
  00007	c3		 ret	 0
??$addressof@$$CBUReserveDeleteMedal@ioExpandMedalSlotManager@@@std@@YAPBUReserveDeleteMedal@ioExpandMedalSlotManager@@ABU12@@Z ENDP ; std::addressof<ioExpandMedalSlotManager::ReserveDeleteMedal const >
_TEXT	ENDS
PUBLIC	__TI2?AVbad_alloc@std@@
PUBLIC	??$_Allocate@UExpandMedalSlot@ioExpandMedalSlotManager@@@std@@YAPAUExpandMedalSlot@ioExpandMedalSlotManager@@IPAU12@@Z ; std::_Allocate<ioExpandMedalSlotManager::ExpandMedalSlot>
PUBLIC	__CTA2?AVbad_alloc@std@@
PUBLIC	__CT??_R0?AVbad_alloc@std@@@8??0bad_alloc@std@@QAE@ABV01@@Z12
PUBLIC	??0bad_alloc@std@@QAE@ABV01@@Z			; std::bad_alloc::bad_alloc
PUBLIC	__CT??_R0?AVexception@std@@@8??0exception@std@@QAE@ABV01@@Z12
EXTRN	??2@YAPAXI@Z:PROC				; operator new
EXTRN	__CxxThrowException@8:PROC
EXTRN	??0exception@std@@QAE@ABV01@@Z:PROC		; std::exception::exception
;	COMDAT __CT??_R0?AVexception@std@@@8??0exception@std@@QAE@ABV01@@Z12
; File c:\program files (x86)\microsoft visual studio 10.0\vc\include\exception
xdata$x	SEGMENT
__CT??_R0?AVexception@std@@@8??0exception@std@@QAE@ABV01@@Z12 DD 00H
	DD	FLAT:??_R0?AVexception@std@@@8
	DD	00H
	DD	0ffffffffH
	ORG $+4
	DD	0cH
	DD	FLAT:??0exception@std@@QAE@ABV01@@Z
xdata$x	ENDS
;	COMDAT __CT??_R0?AVbad_alloc@std@@@8??0bad_alloc@std@@QAE@ABV01@@Z12
xdata$x	SEGMENT
__CT??_R0?AVbad_alloc@std@@@8??0bad_alloc@std@@QAE@ABV01@@Z12 DD 00H
	DD	FLAT:??_R0?AVbad_alloc@std@@@8
	DD	00H
	DD	0ffffffffH
	ORG $+4
	DD	0cH
	DD	FLAT:??0bad_alloc@std@@QAE@ABV01@@Z
xdata$x	ENDS
;	COMDAT __CTA2?AVbad_alloc@std@@
xdata$x	SEGMENT
__CTA2?AVbad_alloc@std@@ DD 02H
	DD	FLAT:__CT??_R0?AVbad_alloc@std@@@8??0bad_alloc@std@@QAE@ABV01@@Z12
	DD	FLAT:__CT??_R0?AVexception@std@@@8??0exception@std@@QAE@ABV01@@Z12
xdata$x	ENDS
;	COMDAT __TI2?AVbad_alloc@std@@
xdata$x	SEGMENT
__TI2?AVbad_alloc@std@@ DD 00H
	DD	FLAT:??1bad_alloc@std@@UAE@XZ
	DD	00H
	DD	FLAT:__CTA2?AVbad_alloc@std@@
; Function compile flags: /Ogsp
; File c:\program files (x86)\microsoft visual studio 10.0\vc\include\xmemory
xdata$x	ENDS
;	COMDAT ??$_Allocate@UExpandMedalSlot@ioExpandMedalSlotManager@@@std@@YAPAUExpandMedalSlot@ioExpandMedalSlotManager@@IPAU12@@Z
_TEXT	SEGMENT
$T507258 = -12						; size = 12
$T507263 = 8						; size = 4
__Count$ = 8						; size = 4
___formal$ = 12						; size = 4
??$_Allocate@UExpandMedalSlot@ioExpandMedalSlotManager@@@std@@YAPAUExpandMedalSlot@ioExpandMedalSlotManager@@IPAU12@@Z PROC ; std::_Allocate<ioExpandMedalSlotManager::ExpandMedalSlot>, COMDAT

; 30   : 	{	// allocate storage for _Count elements of type _Ty

  00000	55		 push	 ebp
  00001	8b ec		 mov	 ebp, esp

; 31   : 	void *_Ptr = 0;
; 32   : 
; 33   : 	if (_Count <= 0)

  00003	8b 4d 08	 mov	 ecx, DWORD PTR __Count$[ebp]
  00006	83 ec 0c	 sub	 esp, 12			; 0000000cH
  00009	33 c0		 xor	 eax, eax
  0000b	85 c9		 test	 ecx, ecx

; 34   : 		_Count = 0;
; 35   : 	else if (((_SIZT)(-1) / sizeof (_Ty) < _Count)

  0000d	74 3c		 je	 SHORT $LN5@Allocate

; 36   : 		|| (_Ptr = ::operator new(_Count * sizeof (_Ty))) == 0)

  0000f	81 f9 55 55 55
	15		 cmp	 ecx, 357913941		; 15555555H
  00015	77 0e		 ja	 SHORT $LN1@Allocate
  00017	6b c9 0c	 imul	 ecx, 12			; 0000000cH
  0001a	51		 push	 ecx
  0001b	e8 00 00 00 00	 call	 ??2@YAPAXI@Z		; operator new
  00020	59		 pop	 ecx
  00021	85 c0		 test	 eax, eax

; 38   : 
; 39   : 	return ((_Ty _FARQ *)_Ptr);

  00023	75 26		 jne	 SHORT $LN5@Allocate
$LN1@Allocate:

; 37   : 		_THROW_NCEE(bad_alloc, 0);

  00025	83 65 08 00	 and	 DWORD PTR $T507263[ebp], 0
  00029	8d 45 08	 lea	 eax, DWORD PTR $T507263[ebp]
  0002c	50		 push	 eax
  0002d	8d 4d f4	 lea	 ecx, DWORD PTR $T507258[ebp]
  00030	ff 15 00 00 00
	00		 call	 DWORD PTR __imp_??0exception@std@@QAE@ABQBD@Z
  00036	68 00 00 00 00	 push	 OFFSET __TI2?AVbad_alloc@std@@
  0003b	8d 45 f4	 lea	 eax, DWORD PTR $T507258[ebp]
  0003e	50		 push	 eax
  0003f	c7 45 f4 00 00
	00 00		 mov	 DWORD PTR $T507258[ebp], OFFSET ??_7bad_alloc@std@@6B@
  00046	e8 00 00 00 00	 call	 __CxxThrowException@8
$LN10@Allocate:
$LN5@Allocate:

; 40   : 	}

  0004b	c9		 leave
  0004c	c3		 ret	 0
$LN9@Allocate:
??$_Allocate@UExpandMedalSlot@ioExpandMedalSlotManager@@@std@@YAPAUExpandMedalSlot@ioExpandMedalSlotManager@@IPAU12@@Z ENDP ; std::_Allocate<ioExpandMedalSlotManager::ExpandMedalSlot>
_TEXT	ENDS
PUBLIC	??$_Allocate@UReserveDeleteMedal@ioExpandMedalSlotManager@@@std@@YAPAUReserveDeleteMedal@ioExpandMedalSlotManager@@IPAU12@@Z ; std::_Allocate<ioExpandMedalSlotManager::ReserveDeleteMedal>
; Function compile flags: /Ogsp
;	COMDAT ??$_Allocate@UReserveDeleteMedal@ioExpandMedalSlotManager@@@std@@YAPAUReserveDeleteMedal@ioExpandMedalSlotManager@@IPAU12@@Z
_TEXT	SEGMENT
$T507268 = -12						; size = 12
$T507272 = 8						; size = 4
__Count$ = 8						; size = 4
___formal$ = 12						; size = 4
??$_Allocate@UReserveDeleteMedal@ioExpandMedalSlotManager@@@std@@YAPAUReserveDeleteMedal@ioExpandMedalSlotManager@@IPAU12@@Z PROC ; std::_Allocate<ioExpandMedalSlotManager::ReserveDeleteMedal>, COMDAT

; 30   : 	{	// allocate storage for _Count elements of type _Ty

  00000	55		 push	 ebp
  00001	8b ec		 mov	 ebp, esp

; 31   : 	void *_Ptr = 0;
; 32   : 
; 33   : 	if (_Count <= 0)

  00003	8b 4d 08	 mov	 ecx, DWORD PTR __Count$[ebp]
  00006	83 ec 0c	 sub	 esp, 12			; 0000000cH
  00009	33 c0		 xor	 eax, eax
  0000b	85 c9		 test	 ecx, ecx

; 34   : 		_Count = 0;
; 35   : 	else if (((_SIZT)(-1) / sizeof (_Ty) < _Count)

  0000d	74 3c		 je	 SHORT $LN5@Allocate@2

; 36   : 		|| (_Ptr = ::operator new(_Count * sizeof (_Ty))) == 0)

  0000f	81 f9 55 55 55
	15		 cmp	 ecx, 357913941		; 15555555H
  00015	77 0e		 ja	 SHORT $LN1@Allocate@2
  00017	6b c9 0c	 imul	 ecx, 12			; 0000000cH
  0001a	51		 push	 ecx
  0001b	e8 00 00 00 00	 call	 ??2@YAPAXI@Z		; operator new
  00020	59		 pop	 ecx
  00021	85 c0		 test	 eax, eax

; 38   : 
; 39   : 	return ((_Ty _FARQ *)_Ptr);

  00023	75 26		 jne	 SHORT $LN5@Allocate@2
$LN1@Allocate@2:

; 37   : 		_THROW_NCEE(bad_alloc, 0);

  00025	83 65 08 00	 and	 DWORD PTR $T507272[ebp], 0
  00029	8d 45 08	 lea	 eax, DWORD PTR $T507272[ebp]
  0002c	50		 push	 eax
  0002d	8d 4d f4	 lea	 ecx, DWORD PTR $T507268[ebp]
  00030	ff 15 00 00 00
	00		 call	 DWORD PTR __imp_??0exception@std@@QAE@ABQBD@Z
  00036	68 00 00 00 00	 push	 OFFSET __TI2?AVbad_alloc@std@@
  0003b	8d 45 f4	 lea	 eax, DWORD PTR $T507268[ebp]
  0003e	50		 push	 eax
  0003f	c7 45 f4 00 00
	00 00		 mov	 DWORD PTR $T507268[ebp], OFFSET ??_7bad_alloc@std@@6B@
  00046	e8 00 00 00 00	 call	 __CxxThrowException@8
$LN10@Allocate@2:
$LN5@Allocate@2:

; 40   : 	}

  0004b	c9		 leave
  0004c	c3		 ret	 0
$LN9@Allocate@2:
??$_Allocate@UReserveDeleteMedal@ioExpandMedalSlotManager@@@std@@YAPAUReserveDeleteMedal@ioExpandMedalSlotManager@@IPAU12@@Z ENDP ; std::_Allocate<ioExpandMedalSlotManager::ReserveDeleteMedal>
_TEXT	ENDS
PUBLIC	??$forward@AAUExpandMedalSlot@ioExpandMedalSlotManager@@@std@@YAAAUExpandMedalSlot@ioExpandMedalSlotManager@@AAU12@@Z ; std::forward<ioExpandMedalSlotManager::ExpandMedalSlot &>
; Function compile flags: /Ogsp
; File c:\program files (x86)\microsoft visual studio 10.0\vc\include\utility
;	COMDAT ??$forward@AAUExpandMedalSlot@ioExpandMedalSlotManager@@@std@@YAAAUExpandMedalSlot@ioExpandMedalSlotManager@@AAU12@@Z
_TEXT	SEGMENT
__Arg$ = 8						; size = 4
??$forward@AAUExpandMedalSlot@ioExpandMedalSlotManager@@@std@@YAAAUExpandMedalSlot@ioExpandMedalSlotManager@@AAU12@@Z PROC ; std::forward<ioExpandMedalSlotManager::ExpandMedalSlot &>, COMDAT

; 78   : 	{	// forward _Arg, given explicitly specified type parameter

  00000	55		 push	 ebp
  00001	8b ec		 mov	 ebp, esp

; 79   : 	return ((_Ty&&)_Arg);

  00003	8b 45 08	 mov	 eax, DWORD PTR __Arg$[ebp]

; 80   : 	}

  00006	5d		 pop	 ebp
  00007	c3		 ret	 0
??$forward@AAUExpandMedalSlot@ioExpandMedalSlotManager@@@std@@YAAAUExpandMedalSlot@ioExpandMedalSlotManager@@AAU12@@Z ENDP ; std::forward<ioExpandMedalSlotManager::ExpandMedalSlot &>
_TEXT	ENDS
PUBLIC	??$construct@AAUExpandMedalSlot@ioExpandMedalSlotManager@@@?$allocator@UExpandMedalSlot@ioExpandMedalSlotManager@@@std@@QAEXPAUExpandMedalSlot@ioExpandMedalSlotManager@@AAU23@@Z ; std::allocator<ioExpandMedalSlotManager::ExpandMedalSlot>::construct<ioExpandMedalSlotManager::ExpandMedalSlot &>
; Function compile flags: /Ogsp
; File c:\program files (x86)\microsoft visual studio 10.0\vc\include\xmemory
;	COMDAT ??$construct@AAUExpandMedalSlot@ioExpandMedalSlotManager@@@?$allocator@UExpandMedalSlot@ioExpandMedalSlotManager@@@std@@QAEXPAUExpandMedalSlot@ioExpandMedalSlotManager@@AAU23@@Z
_TEXT	SEGMENT
__Ptr$ = 8						; size = 4
__Val$ = 12						; size = 4
??$construct@AAUExpandMedalSlot@ioExpandMedalSlotManager@@@?$allocator@UExpandMedalSlot@ioExpandMedalSlotManager@@@std@@QAEXPAUExpandMedalSlot@ioExpandMedalSlotManager@@AAU23@@Z PROC ; std::allocator<ioExpandMedalSlotManager::ExpandMedalSlot>::construct<ioExpandMedalSlotManager::ExpandMedalSlot &>, COMDAT
; _this$ = ecx

; 206  : 		void construct(pointer _Ptr, _Other&& _Val)

  00000	55		 push	 ebp
  00001	8b ec		 mov	 ebp, esp
  00003	57		 push	 edi

; 207  : 		{	// construct object at _Ptr with value _Val
; 208  : 		::new ((void _FARQ *)_Ptr) _Ty(_STD forward<_Other>(_Val));

  00004	8b 7d 08	 mov	 edi, DWORD PTR __Ptr$[ebp]
  00007	85 ff		 test	 edi, edi
  00009	74 08		 je	 SHORT $LN3@construct
  0000b	56		 push	 esi
  0000c	8b 75 0c	 mov	 esi, DWORD PTR __Val$[ebp]
  0000f	a5		 movsd
  00010	a5		 movsd
  00011	a5		 movsd
  00012	5e		 pop	 esi
$LN3@construct:
  00013	5f		 pop	 edi

; 209  : 		}

  00014	5d		 pop	 ebp
  00015	c2 08 00	 ret	 8
??$construct@AAUExpandMedalSlot@ioExpandMedalSlotManager@@@?$allocator@UExpandMedalSlot@ioExpandMedalSlotManager@@@std@@QAEXPAUExpandMedalSlot@ioExpandMedalSlotManager@@AAU23@@Z ENDP ; std::allocator<ioExpandMedalSlotManager::ExpandMedalSlot>::construct<ioExpandMedalSlotManager::ExpandMedalSlot &>
_TEXT	ENDS
PUBLIC	??$forward@ABUExpandMedalSlot@ioExpandMedalSlotManager@@@std@@YAABUExpandMedalSlot@ioExpandMedalSlotManager@@ABU12@@Z ; std::forward<ioExpandMedalSlotManager::ExpandMedalSlot const &>
; Function compile flags: /Ogsp
; File c:\program files (x86)\microsoft visual studio 10.0\vc\include\utility
;	COMDAT ??$forward@ABUExpandMedalSlot@ioExpandMedalSlotManager@@@std@@YAABUExpandMedalSlot@ioExpandMedalSlotManager@@ABU12@@Z
_TEXT	SEGMENT
__Arg$ = 8						; size = 4
??$forward@ABUExpandMedalSlot@ioExpandMedalSlotManager@@@std@@YAABUExpandMedalSlot@ioExpandMedalSlotManager@@ABU12@@Z PROC ; std::forward<ioExpandMedalSlotManager::ExpandMedalSlot const &>, COMDAT

; 78   : 	{	// forward _Arg, given explicitly specified type parameter

  00000	55		 push	 ebp
  00001	8b ec		 mov	 ebp, esp

; 79   : 	return ((_Ty&&)_Arg);

  00003	8b 45 08	 mov	 eax, DWORD PTR __Arg$[ebp]

; 80   : 	}

  00006	5d		 pop	 ebp
  00007	c3		 ret	 0
??$forward@ABUExpandMedalSlot@ioExpandMedalSlotManager@@@std@@YAABUExpandMedalSlot@ioExpandMedalSlotManager@@ABU12@@Z ENDP ; std::forward<ioExpandMedalSlotManager::ExpandMedalSlot const &>
_TEXT	ENDS
PUBLIC	??$_Ptr_cat@UExpandMedalSlot@ioExpandMedalSlotManager@@U12@@std@@YA?AU_Nonscalar_ptr_iterator_tag@0@PAUExpandMedalSlot@ioExpandMedalSlotManager@@0@Z ; std::_Ptr_cat<ioExpandMedalSlotManager::ExpandMedalSlot,ioExpandMedalSlotManager::ExpandMedalSlot>
; Function compile flags: /Ogsp
; File c:\program files (x86)\microsoft visual studio 10.0\vc\include\xutility
;	COMDAT ??$_Ptr_cat@UExpandMedalSlot@ioExpandMedalSlotManager@@U12@@std@@YA?AU_Nonscalar_ptr_iterator_tag@0@PAUExpandMedalSlot@ioExpandMedalSlotManager@@0@Z
_TEXT	SEGMENT
__Cat$ = -1						; size = 1
___formal$ = 8						; size = 4
___formal$ = 12						; size = 4
??$_Ptr_cat@UExpandMedalSlot@ioExpandMedalSlotManager@@U12@@std@@YA?AU_Nonscalar_ptr_iterator_tag@0@PAUExpandMedalSlot@ioExpandMedalSlotManager@@0@Z PROC ; std::_Ptr_cat<ioExpandMedalSlotManager::ExpandMedalSlot,ioExpandMedalSlotManager::ExpandMedalSlot>, COMDAT

; 516  : 	{	// return pointer category from pointers

  00000	55		 push	 ebp
  00001	8b ec		 mov	 ebp, esp
  00003	51		 push	 ecx

; 517  : 	typename _Ptr_cat_helper<_Elem1, _Elem2>::_Type _Cat;
; 518  : 	return (_Cat);

  00004	8a 45 ff	 mov	 al, BYTE PTR __Cat$[ebp]

; 519  : 	}

  00007	c9		 leave
  00008	c3		 ret	 0
??$_Ptr_cat@UExpandMedalSlot@ioExpandMedalSlotManager@@U12@@std@@YA?AU_Nonscalar_ptr_iterator_tag@0@PAUExpandMedalSlot@ioExpandMedalSlotManager@@0@Z ENDP ; std::_Ptr_cat<ioExpandMedalSlotManager::ExpandMedalSlot,ioExpandMedalSlotManager::ExpandMedalSlot>
_TEXT	ENDS
PUBLIC	??$forward@AAUReserveDeleteMedal@ioExpandMedalSlotManager@@@std@@YAAAUReserveDeleteMedal@ioExpandMedalSlotManager@@AAU12@@Z ; std::forward<ioExpandMedalSlotManager::ReserveDeleteMedal &>
; Function compile flags: /Ogsp
; File c:\program files (x86)\microsoft visual studio 10.0\vc\include\utility
;	COMDAT ??$forward@AAUReserveDeleteMedal@ioExpandMedalSlotManager@@@std@@YAAAUReserveDeleteMedal@ioExpandMedalSlotManager@@AAU12@@Z
_TEXT	SEGMENT
__Arg$ = 8						; size = 4
??$forward@AAUReserveDeleteMedal@ioExpandMedalSlotManager@@@std@@YAAAUReserveDeleteMedal@ioExpandMedalSlotManager@@AAU12@@Z PROC ; std::forward<ioExpandMedalSlotManager::ReserveDeleteMedal &>, COMDAT

; 78   : 	{	// forward _Arg, given explicitly specified type parameter

  00000	55		 push	 ebp
  00001	8b ec		 mov	 ebp, esp

; 79   : 	return ((_Ty&&)_Arg);

  00003	8b 45 08	 mov	 eax, DWORD PTR __Arg$[ebp]

; 80   : 	}

  00006	5d		 pop	 ebp
  00007	c3		 ret	 0
??$forward@AAUReserveDeleteMedal@ioExpandMedalSlotManager@@@std@@YAAAUReserveDeleteMedal@ioExpandMedalSlotManager@@AAU12@@Z ENDP ; std::forward<ioExpandMedalSlotManager::ReserveDeleteMedal &>
_TEXT	ENDS
PUBLIC	??$construct@AAUReserveDeleteMedal@ioExpandMedalSlotManager@@@?$allocator@UReserveDeleteMedal@ioExpandMedalSlotManager@@@std@@QAEXPAUReserveDeleteMedal@ioExpandMedalSlotManager@@AAU23@@Z ; std::allocator<ioExpandMedalSlotManager::ReserveDeleteMedal>::construct<ioExpandMedalSlotManager::ReserveDeleteMedal &>
; Function compile flags: /Ogsp
; File c:\program files (x86)\microsoft visual studio 10.0\vc\include\xmemory
;	COMDAT ??$construct@AAUReserveDeleteMedal@ioExpandMedalSlotManager@@@?$allocator@UReserveDeleteMedal@ioExpandMedalSlotManager@@@std@@QAEXPAUReserveDeleteMedal@ioExpandMedalSlotManager@@AAU23@@Z
_TEXT	SEGMENT
__Ptr$ = 8						; size = 4
__Val$ = 12						; size = 4
??$construct@AAUReserveDeleteMedal@ioExpandMedalSlotManager@@@?$allocator@UReserveDeleteMedal@ioExpandMedalSlotManager@@@std@@QAEXPAUReserveDeleteMedal@ioExpandMedalSlotManager@@AAU23@@Z PROC ; std::allocator<ioExpandMedalSlotManager::ReserveDeleteMedal>::construct<ioExpandMedalSlotManager::ReserveDeleteMedal &>, COMDAT
; _this$ = ecx

; 206  : 		void construct(pointer _Ptr, _Other&& _Val)

  00000	55		 push	 ebp
  00001	8b ec		 mov	 ebp, esp
  00003	57		 push	 edi

; 207  : 		{	// construct object at _Ptr with value _Val
; 208  : 		::new ((void _FARQ *)_Ptr) _Ty(_STD forward<_Other>(_Val));

  00004	8b 7d 08	 mov	 edi, DWORD PTR __Ptr$[ebp]
  00007	85 ff		 test	 edi, edi
  00009	74 08		 je	 SHORT $LN3@construct@2
  0000b	56		 push	 esi
  0000c	8b 75 0c	 mov	 esi, DWORD PTR __Val$[ebp]
  0000f	a5		 movsd
  00010	a5		 movsd
  00011	a5		 movsd
  00012	5e		 pop	 esi
$LN3@construct@2:
  00013	5f		 pop	 edi

; 209  : 		}

  00014	5d		 pop	 ebp
  00015	c2 08 00	 ret	 8
??$construct@AAUReserveDeleteMedal@ioExpandMedalSlotManager@@@?$allocator@UReserveDeleteMedal@ioExpandMedalSlotManager@@@std@@QAEXPAUReserveDeleteMedal@ioExpandMedalSlotManager@@AAU23@@Z ENDP ; std::allocator<ioExpandMedalSlotManager::ReserveDeleteMedal>::construct<ioExpandMedalSlotManager::ReserveDeleteMedal &>
_TEXT	ENDS
PUBLIC	??$forward@ABUReserveDeleteMedal@ioExpandMedalSlotManager@@@std@@YAABUReserveDeleteMedal@ioExpandMedalSlotManager@@ABU12@@Z ; std::forward<ioExpandMedalSlotManager::ReserveDeleteMedal const &>
; Function compile flags: /Ogsp
; File c:\program files (x86)\microsoft visual studio 10.0\vc\include\utility
;	COMDAT ??$forward@ABUReserveDeleteMedal@ioExpandMedalSlotManager@@@std@@YAABUReserveDeleteMedal@ioExpandMedalSlotManager@@ABU12@@Z
_TEXT	SEGMENT
__Arg$ = 8						; size = 4
??$forward@ABUReserveDeleteMedal@ioExpandMedalSlotManager@@@std@@YAABUReserveDeleteMedal@ioExpandMedalSlotManager@@ABU12@@Z PROC ; std::forward<ioExpandMedalSlotManager::ReserveDeleteMedal const &>, COMDAT

; 78   : 	{	// forward _Arg, given explicitly specified type parameter

  00000	55		 push	 ebp
  00001	8b ec		 mov	 ebp, esp

; 79   : 	return ((_Ty&&)_Arg);

  00003	8b 45 08	 mov	 eax, DWORD PTR __Arg$[ebp]

; 80   : 	}

  00006	5d		 pop	 ebp
  00007	c3		 ret	 0
??$forward@ABUReserveDeleteMedal@ioExpandMedalSlotManager@@@std@@YAABUReserveDeleteMedal@ioExpandMedalSlotManager@@ABU12@@Z ENDP ; std::forward<ioExpandMedalSlotManager::ReserveDeleteMedal const &>
_TEXT	ENDS
PUBLIC	??$_Ptr_cat@UReserveDeleteMedal@ioExpandMedalSlotManager@@U12@@std@@YA?AU_Nonscalar_ptr_iterator_tag@0@PAUReserveDeleteMedal@ioExpandMedalSlotManager@@0@Z ; std::_Ptr_cat<ioExpandMedalSlotManager::ReserveDeleteMedal,ioExpandMedalSlotManager::ReserveDeleteMedal>
; Function compile flags: /Ogsp
; File c:\program files (x86)\microsoft visual studio 10.0\vc\include\xutility
;	COMDAT ??$_Ptr_cat@UReserveDeleteMedal@ioExpandMedalSlotManager@@U12@@std@@YA?AU_Nonscalar_ptr_iterator_tag@0@PAUReserveDeleteMedal@ioExpandMedalSlotManager@@0@Z
_TEXT	SEGMENT
__Cat$ = -1						; size = 1
___formal$ = 8						; size = 4
___formal$ = 12						; size = 4
??$_Ptr_cat@UReserveDeleteMedal@ioExpandMedalSlotManager@@U12@@std@@YA?AU_Nonscalar_ptr_iterator_tag@0@PAUReserveDeleteMedal@ioExpandMedalSlotManager@@0@Z PROC ; std::_Ptr_cat<ioExpandMedalSlotManager::ReserveDeleteMedal,ioExpandMedalSlotManager::ReserveDeleteMedal>, COMDAT

; 516  : 	{	// return pointer category from pointers

  00000	55		 push	 ebp
  00001	8b ec		 mov	 ebp, esp
  00003	51		 push	 ecx

; 517  : 	typename _Ptr_cat_helper<_Elem1, _Elem2>::_Type _Cat;
; 518  : 	return (_Cat);

  00004	8a 45 ff	 mov	 al, BYTE PTR __Cat$[ebp]

; 519  : 	}

  00007	c9		 leave
  00008	c3		 ret	 0
??$_Ptr_cat@UReserveDeleteMedal@ioExpandMedalSlotManager@@U12@@std@@YA?AU_Nonscalar_ptr_iterator_tag@0@PAUReserveDeleteMedal@ioExpandMedalSlotManager@@0@Z ENDP ; std::_Ptr_cat<ioExpandMedalSlotManager::ReserveDeleteMedal,ioExpandMedalSlotManager::ReserveDeleteMedal>
_TEXT	ENDS
PUBLIC	??$_Construct@UExpandMedalSlot@ioExpandMedalSlotManager@@ABU12@@std@@YAXPAUExpandMedalSlot@ioExpandMedalSlotManager@@ABU12@@Z ; std::_Construct<ioExpandMedalSlotManager::ExpandMedalSlot,ioExpandMedalSlotManager::ExpandMedalSlot const &>
; Function compile flags: /Ogsp
; File c:\program files (x86)\microsoft visual studio 10.0\vc\include\xmemory
;	COMDAT ??$_Construct@UExpandMedalSlot@ioExpandMedalSlotManager@@ABU12@@std@@YAXPAUExpandMedalSlot@ioExpandMedalSlotManager@@ABU12@@Z
_TEXT	SEGMENT
__Ptr$ = 8						; size = 4
__Val$ = 12						; size = 4
??$_Construct@UExpandMedalSlot@ioExpandMedalSlotManager@@ABU12@@std@@YAXPAUExpandMedalSlot@ioExpandMedalSlotManager@@ABU12@@Z PROC ; std::_Construct<ioExpandMedalSlotManager::ExpandMedalSlot,ioExpandMedalSlotManager::ExpandMedalSlot const &>, COMDAT

; 46   : 	{	// construct object at _Ptr with value _Val

  00000	55		 push	 ebp
  00001	8b ec		 mov	 ebp, esp
  00003	57		 push	 edi

; 47   : 	void _FARQ *_Vptr = _Ptr;
; 48   : 	::new (_Vptr) _Ty1(_STD forward<_Ty2>(_Val));

  00004	8b 7d 08	 mov	 edi, DWORD PTR __Ptr$[ebp]
  00007	85 ff		 test	 edi, edi
  00009	74 08		 je	 SHORT $LN3@Construct
  0000b	56		 push	 esi
  0000c	8b 75 0c	 mov	 esi, DWORD PTR __Val$[ebp]
  0000f	a5		 movsd
  00010	a5		 movsd
  00011	a5		 movsd
  00012	5e		 pop	 esi
$LN3@Construct:
  00013	5f		 pop	 edi

; 49   : 	}

  00014	5d		 pop	 ebp
  00015	c3		 ret	 0
??$_Construct@UExpandMedalSlot@ioExpandMedalSlotManager@@ABU12@@std@@YAXPAUExpandMedalSlot@ioExpandMedalSlotManager@@ABU12@@Z ENDP ; std::_Construct<ioExpandMedalSlotManager::ExpandMedalSlot,ioExpandMedalSlotManager::ExpandMedalSlot const &>
_TEXT	ENDS
PUBLIC	??$_Construct@UReserveDeleteMedal@ioExpandMedalSlotManager@@ABU12@@std@@YAXPAUReserveDeleteMedal@ioExpandMedalSlotManager@@ABU12@@Z ; std::_Construct<ioExpandMedalSlotManager::ReserveDeleteMedal,ioExpandMedalSlotManager::ReserveDeleteMedal const &>
; Function compile flags: /Ogsp
;	COMDAT ??$_Construct@UReserveDeleteMedal@ioExpandMedalSlotManager@@ABU12@@std@@YAXPAUReserveDeleteMedal@ioExpandMedalSlotManager@@ABU12@@Z
_TEXT	SEGMENT
__Ptr$ = 8						; size = 4
__Val$ = 12						; size = 4
??$_Construct@UReserveDeleteMedal@ioExpandMedalSlotManager@@ABU12@@std@@YAXPAUReserveDeleteMedal@ioExpandMedalSlotManager@@ABU12@@Z PROC ; std::_Construct<ioExpandMedalSlotManager::ReserveDeleteMedal,ioExpandMedalSlotManager::ReserveDeleteMedal const &>, COMDAT

; 46   : 	{	// construct object at _Ptr with value _Val

  00000	55		 push	 ebp
  00001	8b ec		 mov	 ebp, esp
  00003	57		 push	 edi

; 47   : 	void _FARQ *_Vptr = _Ptr;
; 48   : 	::new (_Vptr) _Ty1(_STD forward<_Ty2>(_Val));

  00004	8b 7d 08	 mov	 edi, DWORD PTR __Ptr$[ebp]
  00007	85 ff		 test	 edi, edi
  00009	74 08		 je	 SHORT $LN3@Construct@2
  0000b	56		 push	 esi
  0000c	8b 75 0c	 mov	 esi, DWORD PTR __Val$[ebp]
  0000f	a5		 movsd
  00010	a5		 movsd
  00011	a5		 movsd
  00012	5e		 pop	 esi
$LN3@Construct@2:
  00013	5f		 pop	 edi

; 49   : 	}

  00014	5d		 pop	 ebp
  00015	c3		 ret	 0
??$_Construct@UReserveDeleteMedal@ioExpandMedalSlotManager@@ABU12@@std@@YAXPAUReserveDeleteMedal@ioExpandMedalSlotManager@@ABU12@@Z ENDP ; std::_Construct<ioExpandMedalSlotManager::ReserveDeleteMedal,ioExpandMedalSlotManager::ReserveDeleteMedal const &>
_TEXT	ENDS
PUBLIC	??$move@AAUExpandMedalSlot@ioExpandMedalSlotManager@@@std@@YA$$QAUExpandMedalSlot@ioExpandMedalSlotManager@@AAU12@@Z ; std::move<ioExpandMedalSlotManager::ExpandMedalSlot &>
; Function compile flags: /Ogsp
; File c:\program files (x86)\microsoft visual studio 10.0\vc\include\utility
;	COMDAT ??$move@AAUExpandMedalSlot@ioExpandMedalSlotManager@@@std@@YA$$QAUExpandMedalSlot@ioExpandMedalSlotManager@@AAU12@@Z
_TEXT	SEGMENT
__Arg$ = 8						; size = 4
??$move@AAUExpandMedalSlot@ioExpandMedalSlotManager@@@std@@YA$$QAUExpandMedalSlot@ioExpandMedalSlotManager@@AAU12@@Z PROC ; std::move<ioExpandMedalSlotManager::ExpandMedalSlot &>, COMDAT

; 86   : 	{	// forward _Arg as movable

  00000	55		 push	 ebp
  00001	8b ec		 mov	 ebp, esp

; 87   : 	return ((typename tr1::_Remove_reference<_Ty>::_Type&&)_Arg);

  00003	8b 45 08	 mov	 eax, DWORD PTR __Arg$[ebp]

; 88   : 	}

  00006	5d		 pop	 ebp
  00007	c3		 ret	 0
??$move@AAUExpandMedalSlot@ioExpandMedalSlotManager@@@std@@YA$$QAUExpandMedalSlot@ioExpandMedalSlotManager@@AAU12@@Z ENDP ; std::move<ioExpandMedalSlotManager::ExpandMedalSlot &>
_TEXT	ENDS
PUBLIC	??$move@AAUReserveDeleteMedal@ioExpandMedalSlotManager@@@std@@YA$$QAUReserveDeleteMedal@ioExpandMedalSlotManager@@AAU12@@Z ; std::move<ioExpandMedalSlotManager::ReserveDeleteMedal &>
; Function compile flags: /Ogsp
;	COMDAT ??$move@AAUReserveDeleteMedal@ioExpandMedalSlotManager@@@std@@YA$$QAUReserveDeleteMedal@ioExpandMedalSlotManager@@AAU12@@Z
_TEXT	SEGMENT
__Arg$ = 8						; size = 4
??$move@AAUReserveDeleteMedal@ioExpandMedalSlotManager@@@std@@YA$$QAUReserveDeleteMedal@ioExpandMedalSlotManager@@AAU12@@Z PROC ; std::move<ioExpandMedalSlotManager::ReserveDeleteMedal &>, COMDAT

; 86   : 	{	// forward _Arg as movable

  00000	55		 push	 ebp
  00001	8b ec		 mov	 ebp, esp

; 87   : 	return ((typename tr1::_Remove_reference<_Ty>::_Type&&)_Arg);

  00003	8b 45 08	 mov	 eax, DWORD PTR __Arg$[ebp]

; 88   : 	}

  00006	5d		 pop	 ebp
  00007	c3		 ret	 0
??$move@AAUReserveDeleteMedal@ioExpandMedalSlotManager@@@std@@YA$$QAUReserveDeleteMedal@ioExpandMedalSlotManager@@AAU12@@Z ENDP ; std::move<ioExpandMedalSlotManager::ReserveDeleteMedal &>
_TEXT	ENDS
PUBLIC	??$_Val_type@PAUExpandMedalSlot@ioExpandMedalSlotManager@@@std@@YAPAUExpandMedalSlot@ioExpandMedalSlotManager@@PAU12@@Z ; std::_Val_type<ioExpandMedalSlotManager::ExpandMedalSlot *>
; Function compile flags: /Ogsp
; File c:\program files (x86)\microsoft visual studio 10.0\vc\include\xutility
;	COMDAT ??$_Val_type@PAUExpandMedalSlot@ioExpandMedalSlotManager@@@std@@YAPAUExpandMedalSlot@ioExpandMedalSlotManager@@PAU12@@Z
_TEXT	SEGMENT
___formal$ = 8						; size = 4
??$_Val_type@PAUExpandMedalSlot@ioExpandMedalSlotManager@@@std@@YAPAUExpandMedalSlot@ioExpandMedalSlotManager@@PAU12@@Z PROC ; std::_Val_type<ioExpandMedalSlotManager::ExpandMedalSlot *>, COMDAT

; 790  : 	return (0);

  00000	33 c0		 xor	 eax, eax

; 791  : 	}

  00002	c3		 ret	 0
??$_Val_type@PAUExpandMedalSlot@ioExpandMedalSlotManager@@@std@@YAPAUExpandMedalSlot@ioExpandMedalSlotManager@@PAU12@@Z ENDP ; std::_Val_type<ioExpandMedalSlotManager::ExpandMedalSlot *>
_TEXT	ENDS
PUBLIC	??$_Val_type@PAUReserveDeleteMedal@ioExpandMedalSlotManager@@@std@@YAPAUReserveDeleteMedal@ioExpandMedalSlotManager@@PAU12@@Z ; std::_Val_type<ioExpandMedalSlotManager::ReserveDeleteMedal *>
; Function compile flags: /Ogsp
;	COMDAT ??$_Val_type@PAUReserveDeleteMedal@ioExpandMedalSlotManager@@@std@@YAPAUReserveDeleteMedal@ioExpandMedalSlotManager@@PAU12@@Z
_TEXT	SEGMENT
___formal$ = 8						; size = 4
??$_Val_type@PAUReserveDeleteMedal@ioExpandMedalSlotManager@@@std@@YAPAUReserveDeleteMedal@ioExpandMedalSlotManager@@PAU12@@Z PROC ; std::_Val_type<ioExpandMedalSlotManager::ReserveDeleteMedal *>, COMDAT

; 790  : 	return (0);

  00000	33 c0		 xor	 eax, eax

; 791  : 	}

  00002	c3		 ret	 0
??$_Val_type@PAUReserveDeleteMedal@ioExpandMedalSlotManager@@@std@@YAPAUReserveDeleteMedal@ioExpandMedalSlotManager@@PAU12@@Z ENDP ; std::_Val_type<ioExpandMedalSlotManager::ReserveDeleteMedal *>
_TEXT	ENDS
PUBLIC	??$_Destroy@UExpandMedalSlot@ioExpandMedalSlotManager@@@std@@YAXPAUExpandMedalSlot@ioExpandMedalSlotManager@@@Z ; std::_Destroy<ioExpandMedalSlotManager::ExpandMedalSlot>
; Function compile flags: /Ogsp
; File c:\program files (x86)\microsoft visual studio 10.0\vc\include\xmemory
;	COMDAT ??$_Destroy@UExpandMedalSlot@ioExpandMedalSlotManager@@@std@@YAXPAUExpandMedalSlot@ioExpandMedalSlotManager@@@Z
_TEXT	SEGMENT
__Ptr$ = 8						; size = 4
??$_Destroy@UExpandMedalSlot@ioExpandMedalSlotManager@@@std@@YAXPAUExpandMedalSlot@ioExpandMedalSlotManager@@@Z PROC ; std::_Destroy<ioExpandMedalSlotManager::ExpandMedalSlot>, COMDAT

; 63   : 	_Ptr->~_Ty();
; 64   : 	}

  00000	c3		 ret	 0
??$_Destroy@UExpandMedalSlot@ioExpandMedalSlotManager@@@std@@YAXPAUExpandMedalSlot@ioExpandMedalSlotManager@@@Z ENDP ; std::_Destroy<ioExpandMedalSlotManager::ExpandMedalSlot>
_TEXT	ENDS
PUBLIC	??$_Destroy@UReserveDeleteMedal@ioExpandMedalSlotManager@@@std@@YAXPAUReserveDeleteMedal@ioExpandMedalSlotManager@@@Z ; std::_Destroy<ioExpandMedalSlotManager::ReserveDeleteMedal>
; Function compile flags: /Ogsp
;	COMDAT ??$_Destroy@UReserveDeleteMedal@ioExpandMedalSlotManager@@@std@@YAXPAUReserveDeleteMedal@ioExpandMedalSlotManager@@@Z
_TEXT	SEGMENT
__Ptr$ = 8						; size = 4
??$_Destroy@UReserveDeleteMedal@ioExpandMedalSlotManager@@@std@@YAXPAUReserveDeleteMedal@ioExpandMedalSlotManager@@@Z PROC ; std::_Destroy<ioExpandMedalSlotManager::ReserveDeleteMedal>, COMDAT

; 63   : 	_Ptr->~_Ty();
; 64   : 	}

  00000	c3		 ret	 0
??$_Destroy@UReserveDeleteMedal@ioExpandMedalSlotManager@@@std@@YAXPAUReserveDeleteMedal@ioExpandMedalSlotManager@@@Z ENDP ; std::_Destroy<ioExpandMedalSlotManager::ReserveDeleteMedal>
_TEXT	ENDS
PUBLIC	??$forward@UExpandMedalSlot@ioExpandMedalSlotManager@@@std@@YA$$QAUExpandMedalSlot@ioExpandMedalSlotManager@@AAU12@@Z ; std::forward<ioExpandMedalSlotManager::ExpandMedalSlot>
; Function compile flags: /Ogsp
; File c:\program files (x86)\microsoft visual studio 10.0\vc\include\utility
;	COMDAT ??$forward@UExpandMedalSlot@ioExpandMedalSlotManager@@@std@@YA$$QAUExpandMedalSlot@ioExpandMedalSlotManager@@AAU12@@Z
_TEXT	SEGMENT
__Arg$ = 8						; size = 4
??$forward@UExpandMedalSlot@ioExpandMedalSlotManager@@@std@@YA$$QAUExpandMedalSlot@ioExpandMedalSlotManager@@AAU12@@Z PROC ; std::forward<ioExpandMedalSlotManager::ExpandMedalSlot>, COMDAT

; 78   : 	{	// forward _Arg, given explicitly specified type parameter

  00000	55		 push	 ebp
  00001	8b ec		 mov	 ebp, esp

; 79   : 	return ((_Ty&&)_Arg);

  00003	8b 45 08	 mov	 eax, DWORD PTR __Arg$[ebp]

; 80   : 	}

  00006	5d		 pop	 ebp
  00007	c3		 ret	 0
??$forward@UExpandMedalSlot@ioExpandMedalSlotManager@@@std@@YA$$QAUExpandMedalSlot@ioExpandMedalSlotManager@@AAU12@@Z ENDP ; std::forward<ioExpandMedalSlotManager::ExpandMedalSlot>
_TEXT	ENDS
PUBLIC	??$forward@UReserveDeleteMedal@ioExpandMedalSlotManager@@@std@@YA$$QAUReserveDeleteMedal@ioExpandMedalSlotManager@@AAU12@@Z ; std::forward<ioExpandMedalSlotManager::ReserveDeleteMedal>
; Function compile flags: /Ogsp
;	COMDAT ??$forward@UReserveDeleteMedal@ioExpandMedalSlotManager@@@std@@YA$$QAUReserveDeleteMedal@ioExpandMedalSlotManager@@AAU12@@Z
_TEXT	SEGMENT
__Arg$ = 8						; size = 4
??$forward@UReserveDeleteMedal@ioExpandMedalSlotManager@@@std@@YA$$QAUReserveDeleteMedal@ioExpandMedalSlotManager@@AAU12@@Z PROC ; std::forward<ioExpandMedalSlotManager::ReserveDeleteMedal>, COMDAT

; 78   : 	{	// forward _Arg, given explicitly specified type parameter

  00000	55		 push	 ebp
  00001	8b ec		 mov	 ebp, esp

; 79   : 	return ((_Ty&&)_Arg);

  00003	8b 45 08	 mov	 eax, DWORD PTR __Arg$[ebp]

; 80   : 	}

  00006	5d		 pop	 ebp
  00007	c3		 ret	 0
??$forward@UReserveDeleteMedal@ioExpandMedalSlotManager@@@std@@YA$$QAUReserveDeleteMedal@ioExpandMedalSlotManager@@AAU12@@Z ENDP ; std::forward<ioExpandMedalSlotManager::ReserveDeleteMedal>
_TEXT	ENDS
PUBLIC	?_Adopt@_Iterator_base0@std@@QAEXPBX@Z		; std::_Iterator_base0::_Adopt
; Function compile flags: /Ogsp
; File c:\program files (x86)\microsoft visual studio 10.0\vc\include\xutility
;	COMDAT ?_Adopt@_Iterator_base0@std@@QAEXPBX@Z
_TEXT	SEGMENT
___formal$ = 8						; size = 4
?_Adopt@_Iterator_base0@std@@QAEXPBX@Z PROC		; std::_Iterator_base0::_Adopt, COMDAT
; _this$ = ecx

; 49   : 		}

  00000	c2 04 00	 ret	 4
?_Adopt@_Iterator_base0@std@@QAEXPBX@Z ENDP		; std::_Iterator_base0::_Adopt
_TEXT	ENDS
PUBLIC	?GetIconName@ioEtcItem@@QBEABVioHashString@@XZ	; ioEtcItem::GetIconName
; Function compile flags: /Ogsp
; File d:\lost saga for developer\youtube\tutorial\source\src\lsclient\ioetcitem.h
;	COMDAT ?GetIconName@ioEtcItem@@QBEABVioHashString@@XZ
_TEXT	SEGMENT
?GetIconName@ioEtcItem@@QBEABVioHashString@@XZ PROC	; ioEtcItem::GetIconName, COMDAT
; _this$ = ecx

; 467  : 	inline const ioHashString& GetIconName() const { return m_IconName; }

  00000	8d 81 60 01 00
	00		 lea	 eax, DWORD PTR [ecx+352]
  00006	c3		 ret	 0
?GetIconName@ioEtcItem@@QBEABVioHashString@@XZ ENDP	; ioEtcItem::GetIconName
_TEXT	ENDS
PUBLIC	?GetUseSlotNumber@ioEtcItemExpandMedalSlot@@QBE?BHXZ ; ioEtcItemExpandMedalSlot::GetUseSlotNumber
; Function compile flags: /Ogsp
;	COMDAT ?GetUseSlotNumber@ioEtcItemExpandMedalSlot@@QBE?BHXZ
_TEXT	SEGMENT
?GetUseSlotNumber@ioEtcItemExpandMedalSlot@@QBE?BHXZ PROC ; ioEtcItemExpandMedalSlot::GetUseSlotNumber, COMDAT
; _this$ = ecx

; 1617 : 	inline const int GetUseSlotNumber() const { return m_iSlotNumber; }

  00000	0f b6 81 e8 01
	00 00		 movzx	 eax, BYTE PTR [ecx+488]
  00007	c3		 ret	 0
?GetUseSlotNumber@ioEtcItemExpandMedalSlot@@QBE?BHXZ ENDP ; ioEtcItemExpandMedalSlot::GetUseSlotNumber
_TEXT	ENDS
PUBLIC	?GetUserMedalItem@ioMyInfo@@QAEPAVioUserMedalItem@@XZ ; ioMyInfo::GetUserMedalItem
; Function compile flags: /Ogsp
; File d:\lost saga for developer\youtube\tutorial\source\src\lsclient\iomyinfo.h
;	COMDAT ?GetUserMedalItem@ioMyInfo@@QAEPAVioUserMedalItem@@XZ
_TEXT	SEGMENT
?GetUserMedalItem@ioMyInfo@@QAEPAVioUserMedalItem@@XZ PROC ; ioMyInfo::GetUserMedalItem, COMDAT
; _this$ = ecx

; 637  : 	ioUserMedalItem* GetUserMedalItem() { return &m_UserMedalItem; }

  00000	8d 81 c0 01 00
	00		 lea	 eax, DWORD PTR [ecx+448]
  00006	c3		 ret	 0
?GetUserMedalItem@ioMyInfo@@QAEPAVioUserMedalItem@@XZ ENDP ; ioMyInfo::GetUserMedalItem
_TEXT	ENDS
PUBLIC	?GetServerDate@ioMyInfo@@QBEAB_JXZ		; ioMyInfo::GetServerDate
; Function compile flags: /Ogsp
;	COMDAT ?GetServerDate@ioMyInfo@@QBEAB_JXZ
_TEXT	SEGMENT
?GetServerDate@ioMyInfo@@QBEAB_JXZ PROC			; ioMyInfo::GetServerDate, COMDAT
; _this$ = ecx

; 995  : 	inline const time_t &GetServerDate() const { return m_iServerDate; } 

  00000	8d 81 30 09 00
	00		 lea	 eax, DWORD PTR [ecx+2352]
  00006	c3		 ret	 0
?GetServerDate@ioMyInfo@@QBEAB_JXZ ENDP			; ioMyInfo::GetServerDate
_TEXT	ENDS
PUBLIC	??0ExpandMedalSlot@ioExpandMedalSlotManager@@QAE@XZ ; ioExpandMedalSlotManager::ExpandMedalSlot::ExpandMedalSlot
; Function compile flags: /Ogsp
; File d:\lost saga for developer\youtube\tutorial\source\src\lsclient\ioexpandmedalslotmanager.h
;	COMDAT ??0ExpandMedalSlot@ioExpandMedalSlotManager@@QAE@XZ
_TEXT	SEGMENT
??0ExpandMedalSlot@ioExpandMedalSlotManager@@QAE@XZ PROC ; ioExpandMedalSlotManager::ExpandMedalSlot::ExpandMedalSlot, COMDAT
; _this$ = ecx

; 25   : 		ExpandMedalSlot()

  00000	8b c1		 mov	 eax, ecx

; 26   : 		{
; 27   : 			m_iSlotNumber	= 0;

  00002	33 c9		 xor	 ecx, ecx
  00004	88 08		 mov	 BYTE PTR [eax], cl

; 28   : 			m_iClassType	= 0;

  00006	89 48 04	 mov	 DWORD PTR [eax+4], ecx

; 29   : 			m_dwLimitTime	= 0;

  00009	89 48 08	 mov	 DWORD PTR [eax+8], ecx

; 30   : 		}

  0000c	c3		 ret	 0
??0ExpandMedalSlot@ioExpandMedalSlotManager@@QAE@XZ ENDP ; ioExpandMedalSlotManager::ExpandMedalSlot::ExpandMedalSlot
_TEXT	ENDS
PUBLIC	?GetYear@ExpandMedalSlot@ioExpandMedalSlotManager@@QAEFXZ ; ioExpandMedalSlotManager::ExpandMedalSlot::GetYear
; Function compile flags: /Ogsp
;	COMDAT ?GetYear@ExpandMedalSlot@ioExpandMedalSlotManager@@QAEFXZ
_TEXT	SEGMENT
?GetYear@ExpandMedalSlot@ioExpandMedalSlotManager@@QAEFXZ PROC ; ioExpandMedalSlotManager::ExpandMedalSlot::GetYear, COMDAT
; _this$ = ecx

; 35   : 			int iYear = m_dwLimitTime/DATE_YEAR_VALUE;

  00000	8b 41 08	 mov	 eax, DWORD PTR [ecx+8]
  00003	33 d2		 xor	 edx, edx
  00005	b9 00 e1 f5 05	 mov	 ecx, 100000000		; 05f5e100H
  0000a	f7 f1		 div	 ecx

; 36   : 			iYear += DEFAULT_YEAR;

  0000c	05 da 07 00 00	 add	 eax, 2010		; 000007daH

; 37   : 			return iYear;			// [2013]04200240
; 38   : 		}

  00011	c3		 ret	 0
?GetYear@ExpandMedalSlot@ioExpandMedalSlotManager@@QAEFXZ ENDP ; ioExpandMedalSlotManager::ExpandMedalSlot::GetYear
_TEXT	ENDS
PUBLIC	?GetMonth@ExpandMedalSlot@ioExpandMedalSlotManager@@QAEFXZ ; ioExpandMedalSlotManager::ExpandMedalSlot::GetMonth
; Function compile flags: /Ogsp
;	COMDAT ?GetMonth@ExpandMedalSlot@ioExpandMedalSlotManager@@QAEFXZ
_TEXT	SEGMENT
?GetMonth@ExpandMedalSlot@ioExpandMedalSlotManager@@QAEFXZ PROC ; ioExpandMedalSlotManager::ExpandMedalSlot::GetMonth, COMDAT
; _this$ = ecx

; 41   : 			return ( m_dwLimitTime/DATE_MONTH_VALUE ) % 100;	// 2013[04]200240

  00000	8b 41 08	 mov	 eax, DWORD PTR [ecx+8]
  00003	33 d2		 xor	 edx, edx
  00005	b9 40 42 0f 00	 mov	 ecx, 1000000		; 000f4240H
  0000a	f7 f1		 div	 ecx
  0000c	6a 64		 push	 100			; 00000064H
  0000e	33 d2		 xor	 edx, edx
  00010	59		 pop	 ecx
  00011	f7 f1		 div	 ecx
  00013	66 8b c2	 mov	 ax, dx

; 42   : 		}

  00016	c3		 ret	 0
?GetMonth@ExpandMedalSlot@ioExpandMedalSlotManager@@QAEFXZ ENDP ; ioExpandMedalSlotManager::ExpandMedalSlot::GetMonth
_TEXT	ENDS
PUBLIC	?GetDay@ExpandMedalSlot@ioExpandMedalSlotManager@@QAEFXZ ; ioExpandMedalSlotManager::ExpandMedalSlot::GetDay
; Function compile flags: /Ogsp
;	COMDAT ?GetDay@ExpandMedalSlot@ioExpandMedalSlotManager@@QAEFXZ
_TEXT	SEGMENT
?GetDay@ExpandMedalSlot@ioExpandMedalSlotManager@@QAEFXZ PROC ; ioExpandMedalSlotManager::ExpandMedalSlot::GetDay, COMDAT
; _this$ = ecx

; 45   : 			return ( m_dwLimitTime/DATE_DAY_VALUE) % 100;	// 201304[20]0240

  00000	8b 41 08	 mov	 eax, DWORD PTR [ecx+8]
  00003	33 d2		 xor	 edx, edx
  00005	b9 10 27 00 00	 mov	 ecx, 10000		; 00002710H
  0000a	f7 f1		 div	 ecx
  0000c	6a 64		 push	 100			; 00000064H
  0000e	33 d2		 xor	 edx, edx
  00010	59		 pop	 ecx
  00011	f7 f1		 div	 ecx
  00013	66 8b c2	 mov	 ax, dx

; 46   : 		}

  00016	c3		 ret	 0
?GetDay@ExpandMedalSlot@ioExpandMedalSlotManager@@QAEFXZ ENDP ; ioExpandMedalSlotManager::ExpandMedalSlot::GetDay
_TEXT	ENDS
PUBLIC	?GetHour@ExpandMedalSlot@ioExpandMedalSlotManager@@QAEFXZ ; ioExpandMedalSlotManager::ExpandMedalSlot::GetHour
; Function compile flags: /Ogsp
;	COMDAT ?GetHour@ExpandMedalSlot@ioExpandMedalSlotManager@@QAEFXZ
_TEXT	SEGMENT
?GetHour@ExpandMedalSlot@ioExpandMedalSlotManager@@QAEFXZ PROC ; ioExpandMedalSlotManager::ExpandMedalSlot::GetHour, COMDAT
; _this$ = ecx

; 49   : 			return ( m_dwLimitTime/DATE_HOUR_VALUE ) % 100;		// 20130420[02]40

  00000	8b 41 08	 mov	 eax, DWORD PTR [ecx+8]
  00003	33 d2		 xor	 edx, edx
  00005	6a 64		 push	 100			; 00000064H
  00007	59		 pop	 ecx
  00008	f7 f1		 div	 ecx
  0000a	33 d2		 xor	 edx, edx
  0000c	f7 f1		 div	 ecx
  0000e	66 8b c2	 mov	 ax, dx

; 50   : 		}

  00011	c3		 ret	 0
?GetHour@ExpandMedalSlot@ioExpandMedalSlotManager@@QAEFXZ ENDP ; ioExpandMedalSlotManager::ExpandMedalSlot::GetHour
_TEXT	ENDS
PUBLIC	?GetMinute@ExpandMedalSlot@ioExpandMedalSlotManager@@QAEFXZ ; ioExpandMedalSlotManager::ExpandMedalSlot::GetMinute
; Function compile flags: /Ogsp
;	COMDAT ?GetMinute@ExpandMedalSlot@ioExpandMedalSlotManager@@QAEFXZ
_TEXT	SEGMENT
?GetMinute@ExpandMedalSlot@ioExpandMedalSlotManager@@QAEFXZ PROC ; ioExpandMedalSlotManager::ExpandMedalSlot::GetMinute, COMDAT
; _this$ = ecx

; 53   : 			return m_dwLimitTime % 100;				// 2013042002[40]

  00000	8b 41 08	 mov	 eax, DWORD PTR [ecx+8]
  00003	6a 64		 push	 100			; 00000064H
  00005	33 d2		 xor	 edx, edx
  00007	59		 pop	 ecx
  00008	f7 f1		 div	 ecx
  0000a	66 8b c2	 mov	 ax, dx

; 54   : 		}

  0000d	c3		 ret	 0
?GetMinute@ExpandMedalSlot@ioExpandMedalSlotManager@@QAEFXZ ENDP ; ioExpandMedalSlotManager::ExpandMedalSlot::GetMinute
_TEXT	ENDS
PUBLIC	?IsMortmain@ExpandMedalSlot@ioExpandMedalSlotManager@@QAE_NXZ ; ioExpandMedalSlotManager::ExpandMedalSlot::IsMortmain
; Function compile flags: /Ogsp
;	COMDAT ?IsMortmain@ExpandMedalSlot@ioExpandMedalSlotManager@@QAE_NXZ
_TEXT	SEGMENT
?IsMortmain@ExpandMedalSlot@ioExpandMedalSlotManager@@QAE_NXZ PROC ; ioExpandMedalSlotManager::ExpandMedalSlot::IsMortmain, COMDAT
; _this$ = ecx

; 57   : 			if( m_dwLimitTime == 0 )

  00000	83 79 08 00	 cmp	 DWORD PTR [ecx+8], 0
  00004	0f 94 c0	 sete	 al

; 58   : 				return true;
; 59   : 			else
; 60   : 				return false;
; 61   : 		}

  00007	c3		 ret	 0
?IsMortmain@ExpandMedalSlot@ioExpandMedalSlotManager@@QAE_NXZ ENDP ; ioExpandMedalSlotManager::ExpandMedalSlot::IsMortmain
_TEXT	ENDS
PUBLIC	?Init@ReserveDeleteMedal@ioExpandMedalSlotManager@@QAEXXZ ; ioExpandMedalSlotManager::ReserveDeleteMedal::Init
; Function compile flags: /Ogsp
;	COMDAT ?Init@ReserveDeleteMedal@ioExpandMedalSlotManager@@QAEXXZ
_TEXT	SEGMENT
?Init@ReserveDeleteMedal@ioExpandMedalSlotManager@@QAEXXZ PROC ; ioExpandMedalSlotManager::ReserveDeleteMedal::Init, COMDAT
; _this$ = ecx

; 80   : 			m_iClassType = 0;

  00000	33 c0		 xor	 eax, eax
  00002	89 01		 mov	 DWORD PTR [ecx], eax

; 81   : 			m_iSlotNumber = 0;

  00004	89 41 04	 mov	 DWORD PTR [ecx+4], eax

; 82   : 			m_iMedalItemType = 0;

  00007	89 41 08	 mov	 DWORD PTR [ecx+8], eax

; 83   : 		}

  0000a	c3		 ret	 0
?Init@ReserveDeleteMedal@ioExpandMedalSlotManager@@QAEXXZ ENDP ; ioExpandMedalSlotManager::ReserveDeleteMedal::Init
_TEXT	ENDS
PUBLIC	?size@?$vector@HV?$allocator@H@std@@@std@@QBEIXZ ; std::vector<int,std::allocator<int> >::size
; Function compile flags: /Ogsp
; File c:\program files (x86)\microsoft visual studio 10.0\vc\include\vector
;	COMDAT ?size@?$vector@HV?$allocator@H@std@@@std@@QBEIXZ
_TEXT	SEGMENT
?size@?$vector@HV?$allocator@H@std@@@std@@QBEIXZ PROC	; std::vector<int,std::allocator<int> >::size, COMDAT
; _this$ = ecx

; 879  : 		return (this->_Mylast - this->_Myfirst);

  00000	8b 41 04	 mov	 eax, DWORD PTR [ecx+4]
  00003	2b 01		 sub	 eax, DWORD PTR [ecx]
  00005	c1 f8 02	 sar	 eax, 2

; 880  : 		}

  00008	c3		 ret	 0
?size@?$vector@HV?$allocator@H@std@@@std@@QBEIXZ ENDP	; std::vector<int,std::allocator<int> >::size
_TEXT	ENDS
PUBLIC	??A?$vector@HV?$allocator@H@std@@@std@@QAEAAHI@Z ; std::vector<int,std::allocator<int> >::operator[]
; Function compile flags: /Ogsp
;	COMDAT ??A?$vector@HV?$allocator@H@std@@@std@@QAEAAHI@Z
_TEXT	SEGMENT
__Pos$ = 8						; size = 4
??A?$vector@HV?$allocator@H@std@@@std@@QAEAAHI@Z PROC	; std::vector<int,std::allocator<int> >::operator[], COMDAT
; _this$ = ecx

; 928  : 		{	// subscript mutable sequence

  00000	55		 push	 ebp
  00001	8b ec		 mov	 ebp, esp

; 929  :  #if _ITERATOR_DEBUG_LEVEL == 2
; 930  : 		if (size() <= _Pos)
; 931  : 			{	// report error
; 932  : 			_DEBUG_ERROR("vector subscript out of range");
; 933  : 			_SCL_SECURE_OUT_OF_RANGE;
; 934  : 			}
; 935  : 
; 936  :  #elif _ITERATOR_DEBUG_LEVEL == 1
; 937  : 		_SCL_SECURE_VALIDATE_RANGE(_Pos < size());
; 938  :  #endif /* _ITERATOR_DEBUG_LEVEL */
; 939  : 
; 940  : 		return (*(this->_Myfirst + _Pos));

  00003	8b 01		 mov	 eax, DWORD PTR [ecx]
  00005	8b 4d 08	 mov	 ecx, DWORD PTR __Pos$[ebp]
  00008	8d 04 88	 lea	 eax, DWORD PTR [eax+ecx*4]

; 941  : 		}

  0000b	5d		 pop	 ebp
  0000c	c2 04 00	 ret	 4
??A?$vector@HV?$allocator@H@std@@@std@@QAEAAHI@Z ENDP	; std::vector<int,std::allocator<int> >::operator[]
_TEXT	ENDS
PUBLIC	??0?$allocator@H@std@@QAE@XZ			; std::allocator<int>::allocator<int>
; Function compile flags: /Ogsp
; File c:\program files (x86)\microsoft visual studio 10.0\vc\include\xmemory
;	COMDAT ??0?$allocator@H@std@@QAE@XZ
_TEXT	SEGMENT
??0?$allocator@H@std@@QAE@XZ PROC			; std::allocator<int>::allocator<int>, COMDAT
; _this$ = ecx

; 161  : 	_ALLOCATOR() _THROW0()

  00000	8b c1		 mov	 eax, ecx

; 162  : 		{	// construct default allocator (do nothing)
; 163  : 		}

  00002	c3		 ret	 0
??0?$allocator@H@std@@QAE@XZ ENDP			; std::allocator<int>::allocator<int>
_TEXT	ENDS
PUBLIC	??1?$_Vector_val@HV?$allocator@H@std@@@std@@QAE@XZ ; std::_Vector_val<int,std::allocator<int> >::~_Vector_val<int,std::allocator<int> >
; Function compile flags: /Ogsp
; File c:\program files (x86)\microsoft visual studio 10.0\vc\include\vector
;	COMDAT ??1?$_Vector_val@HV?$allocator@H@std@@@std@@QAE@XZ
_TEXT	SEGMENT
??1?$_Vector_val@HV?$allocator@H@std@@@std@@QAE@XZ PROC	; std::_Vector_val<int,std::allocator<int> >::~_Vector_val<int,std::allocator<int> >, COMDAT
; _this$ = ecx

; 434  : 		}

  00000	c3		 ret	 0
??1?$_Vector_val@HV?$allocator@H@std@@@std@@QAE@XZ ENDP	; std::_Vector_val<int,std::allocator<int> >::~_Vector_val<int,std::allocator<int> >
_TEXT	ENDS
PUBLIC	?DecryptValueToPool@?$CEncrypt@K@@QAEXPAK@Z	; CEncrypt<unsigned long>::DecryptValueToPool
EXTRN	?DecryptByte@ccddaabb@@QBEXPBDPADH@Z:PROC	; ccddaabb::DecryptByte
; Function compile flags: /Ogsp
; File d:\lost saga for developer\youtube\tutorial\source\src\lsclient\encryptvalue.h
;	COMDAT ?DecryptValueToPool@?$CEncrypt@K@@QAEXPAK@Z
_TEXT	SEGMENT
_value$ = 8						; size = 4
?DecryptValueToPool@?$CEncrypt@K@@QAEXPAK@Z PROC	; CEncrypt<unsigned long>::DecryptValueToPool, COMDAT
; _this$ = ecx

; 1256 : 	{

  00000	55		 push	 ebp
  00001	8b ec		 mov	 ebp, esp
  00003	56		 push	 esi

; 1257 : 		m_RC5.DecryptByte( m_MemPool, m_TempMem, 4 );

  00004	8d 71 28	 lea	 esi, DWORD PTR [ecx+40]
  00007	6a 04		 push	 4
  00009	8d 41 1c	 lea	 eax, DWORD PTR [ecx+28]
  0000c	56		 push	 esi
  0000d	50		 push	 eax
  0000e	83 c1 0c	 add	 ecx, 12			; 0000000cH
  00011	e8 00 00 00 00	 call	 ?DecryptByte@ccddaabb@@QBEXPBDPADH@Z ; ccddaabb::DecryptByte

; 1258 : 		*value = *((DWORD*)m_TempMem);

  00016	8b 06		 mov	 eax, DWORD PTR [esi]
  00018	8b 4d 08	 mov	 ecx, DWORD PTR _value$[ebp]
  0001b	89 01		 mov	 DWORD PTR [ecx], eax
  0001d	5e		 pop	 esi

; 1259 : 	}

  0001e	5d		 pop	 ebp
  0001f	c2 04 00	 ret	 4
?DecryptValueToPool@?$CEncrypt@K@@QAEXPAK@Z ENDP	; CEncrypt<unsigned long>::DecryptValueToPool
_TEXT	ENDS
PUBLIC	??0?$allocator@H@std@@QAE@ABV01@@Z		; std::allocator<int>::allocator<int>
; Function compile flags: /Ogsp
; File c:\program files (x86)\microsoft visual studio 10.0\vc\include\xmemory
;	COMDAT ??0?$allocator@H@std@@QAE@ABV01@@Z
_TEXT	SEGMENT
___formal$ = 8						; size = 4
??0?$allocator@H@std@@QAE@ABV01@@Z PROC			; std::allocator<int>::allocator<int>, COMDAT
; _this$ = ecx

; 165  : 	_ALLOCATOR(const _ALLOCATOR<_Ty>&) _THROW0()

  00000	8b c1		 mov	 eax, ecx

; 166  : 		{	// construct by copying (do nothing)
; 167  : 		}

  00002	c2 04 00	 ret	 4
??0?$allocator@H@std@@QAE@ABV01@@Z ENDP			; std::allocator<int>::allocator<int>
_TEXT	ENDS
PUBLIC	?deallocate@?$allocator@H@std@@QAEXPAHI@Z	; std::allocator<int>::deallocate
; Function compile flags: /Ogsp
;	COMDAT ?deallocate@?$allocator@H@std@@QAEXPAHI@Z
_TEXT	SEGMENT
__Ptr$ = 8						; size = 4
___formal$ = 12						; size = 4
?deallocate@?$allocator@H@std@@QAEXPAHI@Z PROC		; std::allocator<int>::deallocate, COMDAT
; _this$ = ecx

; 181  : 		{	// deallocate object at _Ptr, ignore size

  00000	55		 push	 ebp
  00001	8b ec		 mov	 ebp, esp

; 182  : 		::operator delete(_Ptr);

  00003	ff 75 08	 push	 DWORD PTR __Ptr$[ebp]
  00006	e8 00 00 00 00	 call	 ??3@YAXPAX@Z		; operator delete
  0000b	59		 pop	 ecx

; 183  : 		}

  0000c	5d		 pop	 ebp
  0000d	c2 08 00	 ret	 8
?deallocate@?$allocator@H@std@@QAEXPAHI@Z ENDP		; std::allocator<int>::deallocate
_TEXT	ENDS
EXTRN	__imp_??0exception@std@@QAE@ABV01@@Z:PROC
; Function compile flags: /Ogsp
;	COMDAT ??0bad_alloc@std@@QAE@ABV01@@Z
_TEXT	SEGMENT
___that$ = 8						; size = 4
??0bad_alloc@std@@QAE@ABV01@@Z PROC			; std::bad_alloc::bad_alloc, COMDAT
; _this$ = ecx
  00000	55		 push	 ebp
  00001	8b ec		 mov	 ebp, esp
  00003	56		 push	 esi
  00004	ff 75 08	 push	 DWORD PTR ___that$[ebp]
  00007	8b f1		 mov	 esi, ecx
  00009	ff 15 00 00 00
	00		 call	 DWORD PTR __imp_??0exception@std@@QAE@ABV01@@Z
  0000f	c7 06 00 00 00
	00		 mov	 DWORD PTR [esi], OFFSET ??_7bad_alloc@std@@6B@
  00015	8b c6		 mov	 eax, esi
  00017	5e		 pop	 esi
  00018	5d		 pop	 ebp
  00019	c2 04 00	 ret	 4
??0bad_alloc@std@@QAE@ABV01@@Z ENDP			; std::bad_alloc::bad_alloc
_TEXT	ENDS
PUBLIC	??$_Ptr_cat@HH@std@@YA?AU_Scalar_ptr_iterator_tag@0@PAH0@Z ; std::_Ptr_cat<int,int>
; Function compile flags: /Ogsp
; File c:\program files (x86)\microsoft visual studio 10.0\vc\include\xutility
;	COMDAT ??$_Ptr_cat@HH@std@@YA?AU_Scalar_ptr_iterator_tag@0@PAH0@Z
_TEXT	SEGMENT
__Cat$ = -1						; size = 1
___formal$ = 8						; size = 4
___formal$ = 12						; size = 4
??$_Ptr_cat@HH@std@@YA?AU_Scalar_ptr_iterator_tag@0@PAH0@Z PROC ; std::_Ptr_cat<int,int>, COMDAT

; 516  : 	{	// return pointer category from pointers

  00000	55		 push	 ebp
  00001	8b ec		 mov	 ebp, esp
  00003	51		 push	 ecx

; 517  : 	typename _Ptr_cat_helper<_Elem1, _Elem2>::_Type _Cat;
; 518  : 	return (_Cat);

  00004	8a 45 ff	 mov	 al, BYTE PTR __Cat$[ebp]

; 519  : 	}

  00007	c9		 leave
  00008	c3		 ret	 0
??$_Ptr_cat@HH@std@@YA?AU_Scalar_ptr_iterator_tag@0@PAH0@Z ENDP ; std::_Ptr_cat<int,int>
_TEXT	ENDS
PUBLIC	??$_Destroy_range@V?$allocator@H@std@@@std@@YAXPAH0AAV?$allocator@H@0@U_Scalar_ptr_iterator_tag@0@@Z ; std::_Destroy_range<std::allocator<int> >
; Function compile flags: /Ogsp
; File c:\program files (x86)\microsoft visual studio 10.0\vc\include\xmemory
;	COMDAT ??$_Destroy_range@V?$allocator@H@std@@@std@@YAXPAH0AAV?$allocator@H@0@U_Scalar_ptr_iterator_tag@0@@Z
_TEXT	SEGMENT
__First$ = 8						; size = 4
__Last$ = 12						; size = 4
__Al$ = 16						; size = 4
___formal$ = 20						; size = 1
??$_Destroy_range@V?$allocator@H@std@@@std@@YAXPAH0AAV?$allocator@H@0@U_Scalar_ptr_iterator_tag@0@@Z PROC ; std::_Destroy_range<std::allocator<int> >, COMDAT

; 105  : 	}

  00000	c3		 ret	 0
??$_Destroy_range@V?$allocator@H@std@@@std@@YAXPAH0AAV?$allocator@H@0@U_Scalar_ptr_iterator_tag@0@@Z ENDP ; std::_Destroy_range<std::allocator<int> >
_TEXT	ENDS
PUBLIC	?GetSingleton@ioExpandMedalSlotManager@@SAAAV1@XZ ; ioExpandMedalSlotManager::GetSingleton
; Function compile flags: /Ogsp
; File d:\lost saga for developer\youtube\tutorial\source\src\lsclient\ioexpandmedalslotmanager.cpp
;	COMDAT ?GetSingleton@ioExpandMedalSlotManager@@SAAAV1@XZ
_TEXT	SEGMENT
?GetSingleton@ioExpandMedalSlotManager@@SAAAV1@XZ PROC	; ioExpandMedalSlotManager::GetSingleton, COMDAT

; 22   : 	return Singleton< ioExpandMedalSlotManager >::GetSingleton();

  00000	a1 00 00 00 00	 mov	 eax, DWORD PTR ?ms_Singleton@?$Singleton@VioExpandMedalSlotManager@@@@1PAVioExpandMedalSlotManager@@A ; Singleton<ioExpandMedalSlotManager>::ms_Singleton

; 23   : }

  00005	c3		 ret	 0
?GetSingleton@ioExpandMedalSlotManager@@SAAAV1@XZ ENDP	; ioExpandMedalSlotManager::GetSingleton
_TEXT	ENDS
PUBLIC	?GetExpandMedalSlotNum@ioExpandMedalSlotManager@@QAEHH@Z ; ioExpandMedalSlotManager::GetExpandMedalSlotNum
; Function compile flags: /Ogsp
;	COMDAT ?GetExpandMedalSlotNum@ioExpandMedalSlotManager@@QAEHH@Z
_TEXT	SEGMENT
_iClassType$ = 8					; size = 4
?GetExpandMedalSlotNum@ioExpandMedalSlotManager@@QAEHH@Z PROC ; ioExpandMedalSlotManager::GetExpandMedalSlotNum, COMDAT
; _this$ = ecx

; 204  : {

  00000	55		 push	 ebp
  00001	8b ec		 mov	 ebp, esp
  00003	57		 push	 edi

; 205  : 	if( iClassType == 0 )

  00004	8b 7d 08	 mov	 edi, DWORD PTR _iClassType$[ebp]
  00007	85 ff		 test	 edi, edi
  00009	75 04		 jne	 SHORT $LN5@GetExpandM

; 206  : 		return 0;

  0000b	33 c0		 xor	 eax, eax
  0000d	eb 29		 jmp	 SHORT $LN6@GetExpandM
$LN5@GetExpandM:

; 209  : 	int iMax = m_vExpandSlotInfoVec.size();

  0000f	8b 41 08	 mov	 eax, DWORD PTR [ecx+8]
  00012	2b 41 04	 sub	 eax, DWORD PTR [ecx+4]
  00015	53		 push	 ebx
  00016	56		 push	 esi
  00017	6a 0c		 push	 12			; 0000000cH
  00019	99		 cdq
  0001a	5b		 pop	 ebx
  0001b	f7 fb		 idiv	 ebx
  0001d	33 f6		 xor	 esi, esi

; 210  : 	for( int i=0; i<iMax; ++i )

  0001f	85 c0		 test	 eax, eax
  00021	7e 11		 jle	 SHORT $LN2@GetExpandM

; 207  : 
; 208  : 	int iCount = 0;

  00023	8b 49 04	 mov	 ecx, DWORD PTR [ecx+4]
  00026	83 c1 04	 add	 ecx, 4
$LL4@GetExpandM:

; 211  : 	{
; 212  : 		if( m_vExpandSlotInfoVec[i].m_iClassType == iClassType )

  00029	39 39		 cmp	 DWORD PTR [ecx], edi
  0002b	75 01		 jne	 SHORT $LN3@GetExpandM

; 213  : 			iCount++;

  0002d	46		 inc	 esi
$LN3@GetExpandM:

; 210  : 	for( int i=0; i<iMax; ++i )

  0002e	83 c1 0c	 add	 ecx, 12			; 0000000cH
  00031	48		 dec	 eax
  00032	75 f5		 jne	 SHORT $LL4@GetExpandM
$LN2@GetExpandM:

; 214  : 	}
; 215  : 	return iCount;

  00034	8b c6		 mov	 eax, esi
  00036	5e		 pop	 esi
  00037	5b		 pop	 ebx
$LN6@GetExpandM:
  00038	5f		 pop	 edi

; 216  : }

  00039	5d		 pop	 ebp
  0003a	c2 04 00	 ret	 4
?GetExpandMedalSlotNum@ioExpandMedalSlotManager@@QAEHH@Z ENDP ; ioExpandMedalSlotManager::GetExpandMedalSlotNum
_TEXT	ENDS
PUBLIC	??_C@_0CK@GBLHAJIG@ioExpandMedalSlotManager?3?3CheckR@ ; `string'
PUBLIC	??_C@_00CNPNBAHC@?$AA@				; `string'
PUBLIC	__real@4f800000
PUBLIC	?CheckRemainTime@ioExpandMedalSlotManager@@QAE_NHHPADH@Z ; ioExpandMedalSlotManager::CheckRemainTime
EXTRN	__imp_?SafeSprintf@@YAXPADHPBDH@Z:PROC
EXTRN	__imp_?SafeSprintf@@YAXPADHPBDZZ:PROC
EXTRN	__imp_?GetString@ioStringManager@@QAEPADPBD0HW4FileNamePrefix@1@@Z:PROC
EXTRN	__imp_?GetSingleton@ioStringManager@@SAAAV1@XZ:PROC
EXTRN	__imp_?GetTotalSec@ioFrameTimer@@QAEKXZ:PROC
EXTRN	__imp_?GetSingleton@ioFrameTimer@@SAAAV1@XZ:PROC
EXTRN	?GetSingleton@ioMyInfo@@SAAAV1@XZ:PROC		; ioMyInfo::GetSingleton
EXTRN	?ConvertSecondTime@DateHelp@@YA_JHHHHHH@Z:PROC	; DateHelp::ConvertSecondTime
EXTRN	__fltused:DWORD
EXTRN	__ftol2:PROC
EXTRN	_memset:PROC
;	COMDAT ??_C@_0CK@GBLHAJIG@ioExpandMedalSlotManager?3?3CheckR@
; File d:\lost saga for developer\youtube\tutorial\source\src\lsclient\stdafx.h
CONST	SEGMENT
??_C@_0CK@GBLHAJIG@ioExpandMedalSlotManager?3?3CheckR@ DB 'ioExpandMedalS'
	DB	'lotManager::CheckRemainTime', 00H		; `string'
CONST	ENDS
;	COMDAT ??_C@_00CNPNBAHC@?$AA@
CONST	SEGMENT
??_C@_00CNPNBAHC@?$AA@ DB 00H				; `string'
CONST	ENDS
;	COMDAT __real@4f800000
CONST	SEGMENT
__real@4f800000 DD 04f800000r			; 4.29497e+009
; Function compile flags: /Ogsp
; File d:\lost saga for developer\youtube\tutorial\source\src\lsclient\ioexpandmedalslotmanager.cpp
CONST	ENDS
;	COMDAT ?CheckRemainTime@ioExpandMedalSlotManager@@QAE_NHHPADH@Z
_TEXT	SEGMENT
_kCurServerTime$505385 = -8				; size = 8
_kLimitTime$505384 = -8					; size = 8
$T507485 = 8						; size = 2
tv473 = 8						; size = 4
tv470 = 8						; size = 4
_iClassType$ = 8					; size = 4
_iSlotNumber$ = 12					; size = 4
_szRemainTime$ = 16					; size = 4
_iRemainTimeSize$ = 20					; size = 4
?CheckRemainTime@ioExpandMedalSlotManager@@QAE_NHHPADH@Z PROC ; ioExpandMedalSlotManager::CheckRemainTime, COMDAT
; _this$ = ecx

; 240  : {

  00000	55		 push	 ebp
  00001	8b ec		 mov	 ebp, esp
  00003	51		 push	 ecx
  00004	51		 push	 ecx
  00005	56		 push	 esi

; 241  : 	if( iClassType == 0 )

  00006	33 f6		 xor	 esi, esi
  00008	57		 push	 edi
  00009	8b f9		 mov	 edi, ecx
  0000b	39 75 08	 cmp	 DWORD PTR _iClassType$[ebp], esi
  0000e	75 04		 jne	 SHORT $LN14@CheckRemai

; 242  : 		return false;

  00010	32 c0		 xor	 al, al
  00012	eb 31		 jmp	 SHORT $LN15@CheckRemai
$LN14@CheckRemai:

; 243  : 
; 244  : 	int iMax = m_vExpandSlotInfoVec.size();

  00014	8b 47 08	 mov	 eax, DWORD PTR [edi+8]
  00017	2b 47 04	 sub	 eax, DWORD PTR [edi+4]
  0001a	53		 push	 ebx
  0001b	6a 0c		 push	 12			; 0000000cH
  0001d	99		 cdq
  0001e	59		 pop	 ecx
  0001f	f7 f9		 idiv	 ecx

; 245  : 	for( int i=0; i<iMax; ++i )

  00021	3b c6		 cmp	 eax, esi
  00023	7e 1d		 jle	 SHORT $LN11@CheckRemai

; 243  : 
; 244  : 	int iMax = m_vExpandSlotInfoVec.size();

  00025	8b 57 04	 mov	 edx, DWORD PTR [edi+4]
  00028	8b ca		 mov	 ecx, edx
$LL59@CheckRemai:

; 246  : 	{
; 247  : 		if( m_vExpandSlotInfoVec[i].m_iClassType == iClassType &&
; 248  : 			m_vExpandSlotInfoVec[i].m_iSlotNumber == iSlotNumber )

  0002a	8b 5d 08	 mov	 ebx, DWORD PTR _iClassType$[ebp]
  0002d	39 59 04	 cmp	 DWORD PTR [ecx+4], ebx
  00030	75 08		 jne	 SHORT $LN12@CheckRemai
  00032	0f b6 19	 movzx	 ebx, BYTE PTR [ecx]
  00035	3b 5d 0c	 cmp	 ebx, DWORD PTR _iSlotNumber$[ebp]
  00038	74 11		 je	 SHORT $LN54@CheckRemai
$LN12@CheckRemai:

; 245  : 	for( int i=0; i<iMax; ++i )

  0003a	46		 inc	 esi
  0003b	83 c1 0c	 add	 ecx, 12			; 0000000cH
  0003e	3b f0		 cmp	 esi, eax
  00040	7c e8		 jl	 SHORT $LL59@CheckRemai
$LN11@CheckRemai:

; 290  : 			}
; 291  : 			else
; 292  : 			{
; 293  : 				SafeSprintf( szRemainTime, iRemainTimeSize, STR(5) );
; 294  : 				return true;
; 295  : 			}
; 296  : 		}
; 297  : 	}
; 298  : 
; 299  : 	return false;

  00042	32 c0		 xor	 al, al
$LN60@CheckRemai:
  00044	5b		 pop	 ebx
$LN15@CheckRemai:
  00045	5f		 pop	 edi
  00046	5e		 pop	 esi

; 300  : }

  00047	c9		 leave
  00048	c2 10 00	 ret	 16			; 00000010H
$LN54@CheckRemai:

; 249  : 		{
; 250  : 			if( m_vExpandSlotInfoVec[i].IsMortmain() )

  0004b	6b f6 0c	 imul	 esi, 12			; 0000000cH
  0004e	83 7c 32 08 00	 cmp	 DWORD PTR [edx+esi+8], 0

; 251  : 				return true;

  00053	0f 84 8e 01 00
	00		 je	 $LN66@CheckRemai

; 252  : 
; 253  : 			ZeroMemory( szRemainTime, iRemainTimeSize );

  00059	ff 75 14	 push	 DWORD PTR _iRemainTimeSize$[ebp]
  0005c	6a 00		 push	 0
  0005e	ff 75 10	 push	 DWORD PTR _szRemainTime$[ebp]
  00061	e8 00 00 00 00	 call	 _memset

; 254  : 			time_t kLimitTime = DateHelp::ConvertSecondTime( m_vExpandSlotInfoVec[i].GetYear(),
; 255  : 															 m_vExpandSlotInfoVec[i].GetMonth(),
; 256  : 															 m_vExpandSlotInfoVec[i].GetDay(),
; 257  : 															 m_vExpandSlotInfoVec[i].GetHour(),
; 258  : 															 m_vExpandSlotInfoVec[i].GetMinute(),
; 259  : 															 0 );

  00066	8b 47 04	 mov	 eax, DWORD PTR [edi+4]
  00069	8b 4c 06 08	 mov	 ecx, DWORD PTR [esi+eax+8]
  0006d	6a 64		 push	 100			; 00000064H
  0006f	33 d2		 xor	 edx, edx
  00071	5e		 pop	 esi
  00072	8b c1		 mov	 eax, ecx
  00074	f7 f6		 div	 esi
  00076	6a 64		 push	 100			; 00000064H
  00078	5f		 pop	 edi
  00079	bb 10 27 00 00	 mov	 ebx, 10000		; 00002710H
  0007e	6a 64		 push	 100			; 00000064H
  00080	0f b7 f2	 movzx	 esi, dx
  00083	33 d2		 xor	 edx, edx
  00085	f7 f7		 div	 edi
  00087	8b c1		 mov	 eax, ecx
  00089	0f b7 fa	 movzx	 edi, dx
  0008c	33 d2		 xor	 edx, edx
  0008e	f7 f3		 div	 ebx
  00090	5b		 pop	 ebx
  00091	33 d2		 xor	 edx, edx
  00093	6a 64		 push	 100			; 00000064H
  00095	f7 f3		 div	 ebx
  00097	bb 40 42 0f 00	 mov	 ebx, 1000000		; 000f4240H
  0009c	0f b7 c2	 movzx	 eax, dx
  0009f	89 45 08	 mov	 DWORD PTR $T507485[ebp], eax
  000a2	8b c1		 mov	 eax, ecx
  000a4	33 d2		 xor	 edx, edx
  000a6	f7 f3		 div	 ebx
  000a8	5b		 pop	 ebx
  000a9	33 d2		 xor	 edx, edx
  000ab	6a 00		 push	 0
  000ad	f7 f3		 div	 ebx
  000af	8b c1		 mov	 eax, ecx
  000b1	b9 00 e1 f5 05	 mov	 ecx, 100000000		; 05f5e100H
  000b6	0f b7 da	 movzx	 ebx, dx
  000b9	33 d2		 xor	 edx, edx
  000bb	f7 f1		 div	 ecx

; 260  : 			kLimitTime += 30; //        30 .

  000bd	0f bf ce	 movsx	 ecx, si
  000c0	51		 push	 ecx
  000c1	0f bf cf	 movsx	 ecx, di
  000c4	51		 push	 ecx
  000c5	0f bf 4d 08	 movsx	 ecx, WORD PTR $T507485[ebp]
  000c9	51		 push	 ecx
  000ca	0f bf cb	 movsx	 ecx, bx
  000cd	51		 push	 ecx
  000ce	05 da 07 00 00	 add	 eax, 2010		; 000007daH
  000d3	98		 cwde
  000d4	50		 push	 eax
  000d5	e8 00 00 00 00	 call	 ?ConvertSecondTime@DateHelp@@YA_JHHHHHH@Z ; DateHelp::ConvertSecondTime
  000da	83 c4 24	 add	 esp, 36			; 00000024H
  000dd	8b f0		 mov	 esi, eax
  000df	6a 00		 push	 0
  000e1	5b		 pop	 ebx
  000e2	83 c6 1e	 add	 esi, 30			; 0000001eH
  000e5	13 d3		 adc	 edx, ebx
  000e7	89 55 fc	 mov	 DWORD PTR _kLimitTime$505384[ebp+4], edx

; 261  : 			time_t kCurServerTime = g_MyInfo.GetServerDate();

  000ea	e8 00 00 00 00	 call	 ?GetSingleton@ioMyInfo@@SAAAV1@XZ ; ioMyInfo::GetSingleton
  000ef	8b 88 30 09 00
	00		 mov	 ecx, DWORD PTR [eax+2352]
  000f5	8b 80 34 09 00
	00		 mov	 eax, DWORD PTR [eax+2356]
  000fb	89 4d f8	 mov	 DWORD PTR _kCurServerTime$505385[ebp], ecx
  000fe	89 45 fc	 mov	 DWORD PTR _kCurServerTime$505385[ebp+4], eax

; 262  : 			kCurServerTime += ( REALGETTIME()/FLOAT1000 );//   .

  00101	b8 e8 03 00 00	 mov	 eax, 1000		; 000003e8H
  00106	8b f8		 mov	 edi, eax
  00108	ff 15 00 00 00
	00		 call	 DWORD PTR __imp_?GetSingleton@ioFrameTimer@@SAAAV1@XZ
  0010e	8b c8		 mov	 ecx, eax
  00110	ff 15 00 00 00
	00		 call	 DWORD PTR __imp_?GetTotalSec@ioFrameTimer@@QAEKXZ

; 263  : 
; 264  : 			int iGapSec = kLimitTime - kCurServerTime;

  00116	89 45 08	 mov	 DWORD PTR tv473[ebp], eax
  00119	db 45 08	 fild	 DWORD PTR tv473[ebp]
  0011c	85 c0		 test	 eax, eax
  0011e	79 06		 jns	 SHORT $LN61@CheckRemai
  00120	d8 05 00 00 00
	00		 fadd	 DWORD PTR __real@4f800000
$LN61@CheckRemai:
  00126	89 7d 08	 mov	 DWORD PTR tv470[ebp], edi
  00129	db 45 08	 fild	 DWORD PTR tv470[ebp]
  0012c	85 ff		 test	 edi, edi
  0012e	79 06		 jns	 SHORT $LN62@CheckRemai
  00130	d8 05 00 00 00
	00		 fadd	 DWORD PTR __real@4f800000
$LN62@CheckRemai:

; 262  : 			kCurServerTime += ( REALGETTIME()/FLOAT1000 );//   .

  00136	de f9		 fdivp	 ST(1), ST(0)

; 263  : 
; 264  : 			int iGapSec = kLimitTime - kCurServerTime;

  00138	df 6d f8	 fild	 QWORD PTR _kCurServerTime$505385[ebp]
  0013b	de c1		 faddp	 ST(1), ST(0)
  0013d	e8 00 00 00 00	 call	 __ftol2
  00142	2b f0		 sub	 esi, eax

; 265  : 			enum { DAY_SEC = 86400, HOUR_SEC = 3600, MINUTE_SEC = 60, };
; 266  : 			int iDay    = iGapSec/DAY_SEC;

  00144	8b c6		 mov	 eax, esi
  00146	99		 cdq
  00147	b9 80 51 01 00	 mov	 ecx, 86400		; 00015180H
  0014c	f7 f9		 idiv	 ecx

; 267  : 			int iHourSec= iGapSec-(iDay*DAY_SEC);
; 268  : 			int iHour   = iHourSec / HOUR_SEC;

  0014e	bf 10 0e 00 00	 mov	 edi, 3600		; 00000e10H

; 269  : 			int iMinute = ( iHourSec-(iHour*HOUR_SEC) ) / MINUTE_SEC;

  00153	6a 3c		 push	 60			; 0000003cH
  00155	8b c8		 mov	 ecx, eax
  00157	69 c0 80 51 01
	00		 imul	 eax, 86400		; 00015180H
  0015d	2b f0		 sub	 esi, eax
  0015f	8b c6		 mov	 eax, esi
  00161	99		 cdq
  00162	f7 ff		 idiv	 edi
  00164	8b f8		 mov	 edi, eax
  00166	8b d7		 mov	 edx, edi
  00168	69 d2 10 0e 00
	00		 imul	 edx, 3600		; 00000e10H
  0016e	8b c6		 mov	 eax, esi
  00170	2b c2		 sub	 eax, edx
  00172	99		 cdq
  00173	5e		 pop	 esi
  00174	f7 fe		 idiv	 esi

; 270  : 
; 271  : 			if( iDay <= 0 && iHour <= 0 && iMinute <= 0 )

  00176	3b cb		 cmp	 ecx, ebx
  00178	7f 41		 jg	 SHORT $LN56@CheckRemai
  0017a	3b fb		 cmp	 edi, ebx
  0017c	7f 37		 jg	 SHORT $LN58@CheckRemai
  0017e	3b c3		 cmp	 eax, ebx
  00180	7f 2d		 jg	 SHORT $LN64@CheckRemai

; 272  : 			{
; 273  : 				SafeSprintf( szRemainTime, iRemainTimeSize, STR(1) );

  00182	53		 push	 ebx
  00183	6a 01		 push	 1
  00185	68 00 00 00 00	 push	 OFFSET ??_C@_00CNPNBAHC@?$AA@
  0018a	68 00 00 00 00	 push	 OFFSET ??_C@_0CK@GBLHAJIG@ioExpandMedalSlotManager?3?3CheckR@
  0018f	ff 15 00 00 00
	00		 call	 DWORD PTR __imp_?GetSingleton@ioStringManager@@SAAAV1@XZ
  00195	8b c8		 mov	 ecx, eax
  00197	ff 15 00 00 00
	00		 call	 DWORD PTR __imp_?GetString@ioStringManager@@QAEPADPBD0HW4FileNamePrefix@1@@Z
  0019d	50		 push	 eax
  0019e	ff 75 14	 push	 DWORD PTR _iRemainTimeSize$[ebp]
  001a1	ff 75 10	 push	 DWORD PTR _szRemainTime$[ebp]
  001a4	ff 15 00 00 00
	00		 call	 DWORD PTR __imp_?SafeSprintf@@YAXPADHPBDZZ
  001aa	83 c4 0c	 add	 esp, 12			; 0000000cH

; 274  : 				return true;

  001ad	eb 38		 jmp	 SHORT $LN66@CheckRemai
$LN64@CheckRemai:

; 275  : 			}
; 276  : 			else if( iDay <= 0 && iHour <= 0 && iMinute > 0 )
; 277  : 			{
; 278  : 				SafeSprintf( szRemainTime, iRemainTimeSize, STR(2), iMinute );

  001af	50		 push	 eax
  001b0	53		 push	 ebx
  001b1	6a 02		 push	 2

; 279  : 				return true;

  001b3	eb 0a		 jmp	 SHORT $LN65@CheckRemai
$LN58@CheckRemai:

; 280  : 			}
; 281  : 			else if( iDay <= 0 && iHour > 0 )
; 282  : 			{
; 283  : 				SafeSprintf( szRemainTime, iRemainTimeSize, STR(3), iHour );

  001b5	57		 push	 edi
  001b6	53		 push	 ebx
  001b7	6a 03		 push	 3

; 284  : 				return true;

  001b9	eb 04		 jmp	 SHORT $LN65@CheckRemai
$LN56@CheckRemai:

; 285  : 			}
; 286  : 			else if( iDay > 0 )
; 287  : 			{
; 288  : 				SafeSprintf( szRemainTime, iRemainTimeSize, STR(4), iDay );

  001bb	51		 push	 ecx
  001bc	53		 push	 ebx
  001bd	6a 04		 push	 4
$LN65@CheckRemai:
  001bf	68 00 00 00 00	 push	 OFFSET ??_C@_00CNPNBAHC@?$AA@
  001c4	68 00 00 00 00	 push	 OFFSET ??_C@_0CK@GBLHAJIG@ioExpandMedalSlotManager?3?3CheckR@
  001c9	ff 15 00 00 00
	00		 call	 DWORD PTR __imp_?GetSingleton@ioStringManager@@SAAAV1@XZ
  001cf	8b c8		 mov	 ecx, eax
  001d1	ff 15 00 00 00
	00		 call	 DWORD PTR __imp_?GetString@ioStringManager@@QAEPADPBD0HW4FileNamePrefix@1@@Z
  001d7	50		 push	 eax
  001d8	ff 75 14	 push	 DWORD PTR _iRemainTimeSize$[ebp]
  001db	ff 75 10	 push	 DWORD PTR _szRemainTime$[ebp]
  001de	ff 15 00 00 00
	00		 call	 DWORD PTR __imp_?SafeSprintf@@YAXPADHPBDH@Z
  001e4	83 c4 10	 add	 esp, 16			; 00000010H
$LN66@CheckRemai:

; 289  : 				return true;

  001e7	b0 01		 mov	 al, 1
  001e9	e9 56 fe ff ff	 jmp	 $LN60@CheckRemai
?CheckRemainTime@ioExpandMedalSlotManager@@QAE_NHHPADH@Z ENDP ; ioExpandMedalSlotManager::CheckRemainTime
_TEXT	ENDS
PUBLIC	?CheckExpandMedalSlot@ioExpandMedalSlotManager@@QAE_NHH@Z ; ioExpandMedalSlotManager::CheckExpandMedalSlot
; Function compile flags: /Ogsp
;	COMDAT ?CheckExpandMedalSlot@ioExpandMedalSlotManager@@QAE_NHH@Z
_TEXT	SEGMENT
_iClassType$ = 8					; size = 4
_iSlotNumber$ = 12					; size = 4
?CheckExpandMedalSlot@ioExpandMedalSlotManager@@QAE_NHH@Z PROC ; ioExpandMedalSlotManager::CheckExpandMedalSlot, COMDAT
; _this$ = ecx

; 303  : {

  00000	55		 push	 ebp
  00001	8b ec		 mov	 ebp, esp

; 304  : 	int iCnt = m_vExpandSlotInfoVec.size();

  00003	8b 41 08	 mov	 eax, DWORD PTR [ecx+8]
  00006	2b 41 04	 sub	 eax, DWORD PTR [ecx+4]
  00009	56		 push	 esi
  0000a	6a 0c		 push	 12			; 0000000cH
  0000c	99		 cdq
  0000d	5e		 pop	 esi
  0000e	f7 fe		 idiv	 esi

; 305  : 	for( int i=0; i<iCnt; ++i )

  00010	33 d2		 xor	 edx, edx
  00012	85 c0		 test	 eax, eax
  00014	7e 1b		 jle	 SHORT $LN2@CheckExpan

; 304  : 	int iCnt = m_vExpandSlotInfoVec.size();

  00016	8b 49 04	 mov	 ecx, DWORD PTR [ecx+4]
$LL4@CheckExpan:

; 306  : 	{
; 307  : 		if( m_vExpandSlotInfoVec[i].m_iClassType == iClassType &&
; 308  : 			m_vExpandSlotInfoVec[i].m_iSlotNumber == iSlotNumber )

  00019	8b 71 04	 mov	 esi, DWORD PTR [ecx+4]
  0001c	3b 75 08	 cmp	 esi, DWORD PTR _iClassType$[ebp]
  0001f	75 08		 jne	 SHORT $LN3@CheckExpan
  00021	0f b6 31	 movzx	 esi, BYTE PTR [ecx]
  00024	3b 75 0c	 cmp	 esi, DWORD PTR _iSlotNumber$[ebp]
  00027	74 0f		 je	 SHORT $LN14@CheckExpan
$LN3@CheckExpan:

; 305  : 	for( int i=0; i<iCnt; ++i )

  00029	42		 inc	 edx
  0002a	83 c1 0c	 add	 ecx, 12			; 0000000cH
  0002d	3b d0		 cmp	 edx, eax
  0002f	7c e8		 jl	 SHORT $LL4@CheckExpan
$LN2@CheckExpan:

; 310  : 	}
; 311  : 	return false;

  00031	32 c0		 xor	 al, al
$LN5@CheckExpan:
  00033	5e		 pop	 esi

; 312  : }

  00034	5d		 pop	 ebp
  00035	c2 08 00	 ret	 8
$LN14@CheckExpan:

; 309  : 			return true;

  00038	b0 01		 mov	 al, 1
  0003a	eb f7		 jmp	 SHORT $LN5@CheckExpan
?CheckExpandMedalSlot@ioExpandMedalSlotManager@@QAE_NHH@Z ENDP ; ioExpandMedalSlotManager::CheckExpandMedalSlot
_TEXT	ENDS
PUBLIC	??D?$_Vector_iterator@V?$_Vector_val@UExpandMedalSlot@ioExpandMedalSlotManager@@V?$allocator@UExpandMedalSlot@ioExpandMedalSlotManager@@@std@@@std@@@std@@QBEAAUExpandMedalSlot@ioExpandMedalSlotManager@@XZ ; std::_Vector_iterator<std::_Vector_val<ioExpandMedalSlotManager::ExpandMedalSlot,std::allocator<ioExpandMedalSlotManager::ExpandMedalSlot> > >::operator*
; Function compile flags: /Ogsp
; File c:\program files (x86)\microsoft visual studio 10.0\vc\include\vector
;	COMDAT ??D?$_Vector_iterator@V?$_Vector_val@UExpandMedalSlot@ioExpandMedalSlotManager@@V?$allocator@UExpandMedalSlot@ioExpandMedalSlotManager@@@std@@@std@@@std@@QBEAAUExpandMedalSlot@ioExpandMedalSlotManager@@XZ
_TEXT	SEGMENT
??D?$_Vector_iterator@V?$_Vector_val@UExpandMedalSlot@ioExpandMedalSlotManager@@V?$allocator@UExpandMedalSlot@ioExpandMedalSlotManager@@@std@@@std@@@std@@QBEAAUExpandMedalSlot@ioExpandMedalSlotManager@@XZ PROC ; std::_Vector_iterator<std::_Vector_val<ioExpandMedalSlotManager::ExpandMedalSlot,std::allocator<ioExpandMedalSlotManager::ExpandMedalSlot> > >::operator*, COMDAT
; _this$ = ecx

; 322  : 		return ((reference)**(_Mybase *)this);

  00000	8b 01		 mov	 eax, DWORD PTR [ecx]

; 323  : 		}

  00002	c3		 ret	 0
??D?$_Vector_iterator@V?$_Vector_val@UExpandMedalSlot@ioExpandMedalSlotManager@@V?$allocator@UExpandMedalSlot@ioExpandMedalSlotManager@@@std@@@std@@@std@@QBEAAUExpandMedalSlot@ioExpandMedalSlotManager@@XZ ENDP ; std::_Vector_iterator<std::_Vector_val<ioExpandMedalSlotManager::ExpandMedalSlot,std::allocator<ioExpandMedalSlotManager::ExpandMedalSlot> > >::operator*
_TEXT	ENDS
PUBLIC	??E?$_Vector_iterator@V?$_Vector_val@UExpandMedalSlot@ioExpandMedalSlotManager@@V?$allocator@UExpandMedalSlot@ioExpandMedalSlotManager@@@std@@@std@@@std@@QAEAAV01@XZ ; std::_Vector_iterator<std::_Vector_val<ioExpandMedalSlotManager::ExpandMedalSlot,std::allocator<ioExpandMedalSlotManager::ExpandMedalSlot> > >::operator++
; Function compile flags: /Ogsp
;	COMDAT ??E?$_Vector_iterator@V?$_Vector_val@UExpandMedalSlot@ioExpandMedalSlotManager@@V?$allocator@UExpandMedalSlot@ioExpandMedalSlotManager@@@std@@@std@@@std@@QAEAAV01@XZ
_TEXT	SEGMENT
??E?$_Vector_iterator@V?$_Vector_val@UExpandMedalSlot@ioExpandMedalSlotManager@@V?$allocator@UExpandMedalSlot@ioExpandMedalSlotManager@@@std@@@std@@@std@@QAEAAV01@XZ PROC ; std::_Vector_iterator<std::_Vector_val<ioExpandMedalSlotManager::ExpandMedalSlot,std::allocator<ioExpandMedalSlotManager::ExpandMedalSlot> > >::operator++, COMDAT
; _this$ = ecx

; 331  : 		{	// preincrement

  00000	8b c1		 mov	 eax, ecx

; 332  : 		++*(_Mybase *)this;

  00002	83 00 0c	 add	 DWORD PTR [eax], 12	; 0000000cH

; 333  : 		return (*this);
; 334  : 		}

  00005	c3		 ret	 0
??E?$_Vector_iterator@V?$_Vector_val@UExpandMedalSlot@ioExpandMedalSlotManager@@V?$allocator@UExpandMedalSlot@ioExpandMedalSlotManager@@@std@@@std@@@std@@QAEAAV01@XZ ENDP ; std::_Vector_iterator<std::_Vector_val<ioExpandMedalSlotManager::ExpandMedalSlot,std::allocator<ioExpandMedalSlotManager::ExpandMedalSlot> > >::operator++
_TEXT	ENDS
PUBLIC	??0?$_Vector_val@UExpandMedalSlot@ioExpandMedalSlotManager@@V?$allocator@UExpandMedalSlot@ioExpandMedalSlotManager@@@std@@@std@@QAE@V?$allocator@UExpandMedalSlot@ioExpandMedalSlotManager@@@1@@Z ; std::_Vector_val<ioExpandMedalSlotManager::ExpandMedalSlot,std::allocator<ioExpandMedalSlotManager::ExpandMedalSlot> >::_Vector_val<ioExpandMedalSlotManager::ExpandMedalSlot,std::allocator<ioExpandMedalSlotManager::ExpandMedalSlot> >
; Function compile flags: /Ogsp
;	COMDAT ??0?$_Vector_val@UExpandMedalSlot@ioExpandMedalSlotManager@@V?$allocator@UExpandMedalSlot@ioExpandMedalSlotManager@@@std@@@std@@QAE@V?$allocator@UExpandMedalSlot@ioExpandMedalSlotManager@@@1@@Z
_TEXT	SEGMENT
__Al$ = 8						; size = 1
??0?$_Vector_val@UExpandMedalSlot@ioExpandMedalSlotManager@@V?$allocator@UExpandMedalSlot@ioExpandMedalSlotManager@@@std@@@std@@QAE@V?$allocator@UExpandMedalSlot@ioExpandMedalSlotManager@@@1@@Z PROC ; std::_Vector_val<ioExpandMedalSlotManager::ExpandMedalSlot,std::allocator<ioExpandMedalSlotManager::ExpandMedalSlot> >::_Vector_val<ioExpandMedalSlotManager::ExpandMedalSlot,std::allocator<ioExpandMedalSlotManager::ExpandMedalSlot> >, COMDAT
; _this$ = ecx

; 426  : 		{	// construct allocator from _Al

  00000	8b c1		 mov	 eax, ecx

; 427  : 		_Myfirst = 0;

  00002	33 c9		 xor	 ecx, ecx
  00004	89 08		 mov	 DWORD PTR [eax], ecx

; 428  : 		_Mylast = 0;

  00006	89 48 04	 mov	 DWORD PTR [eax+4], ecx

; 429  : 		_Myend = 0;

  00009	89 48 08	 mov	 DWORD PTR [eax+8], ecx

; 430  : 		}

  0000c	c2 04 00	 ret	 4
??0?$_Vector_val@UExpandMedalSlot@ioExpandMedalSlotManager@@V?$allocator@UExpandMedalSlot@ioExpandMedalSlotManager@@@std@@@std@@QAE@V?$allocator@UExpandMedalSlot@ioExpandMedalSlotManager@@@1@@Z ENDP ; std::_Vector_val<ioExpandMedalSlotManager::ExpandMedalSlot,std::allocator<ioExpandMedalSlotManager::ExpandMedalSlot> >::_Vector_val<ioExpandMedalSlotManager::ExpandMedalSlot,std::allocator<ioExpandMedalSlotManager::ExpandMedalSlot> >
_TEXT	ENDS
PUBLIC	??0?$_Vector_val@UReserveDeleteMedal@ioExpandMedalSlotManager@@V?$allocator@UReserveDeleteMedal@ioExpandMedalSlotManager@@@std@@@std@@QAE@V?$allocator@UReserveDeleteMedal@ioExpandMedalSlotManager@@@1@@Z ; std::_Vector_val<ioExpandMedalSlotManager::ReserveDeleteMedal,std::allocator<ioExpandMedalSlotManager::ReserveDeleteMedal> >::_Vector_val<ioExpandMedalSlotManager::ReserveDeleteMedal,std::allocator<ioExpandMedalSlotManager::ReserveDeleteMedal> >
; Function compile flags: /Ogsp
;	COMDAT ??0?$_Vector_val@UReserveDeleteMedal@ioExpandMedalSlotManager@@V?$allocator@UReserveDeleteMedal@ioExpandMedalSlotManager@@@std@@@std@@QAE@V?$allocator@UReserveDeleteMedal@ioExpandMedalSlotManager@@@1@@Z
_TEXT	SEGMENT
__Al$ = 8						; size = 1
??0?$_Vector_val@UReserveDeleteMedal@ioExpandMedalSlotManager@@V?$allocator@UReserveDeleteMedal@ioExpandMedalSlotManager@@@std@@@std@@QAE@V?$allocator@UReserveDeleteMedal@ioExpandMedalSlotManager@@@1@@Z PROC ; std::_Vector_val<ioExpandMedalSlotManager::ReserveDeleteMedal,std::allocator<ioExpandMedalSlotManager::ReserveDeleteMedal> >::_Vector_val<ioExpandMedalSlotManager::ReserveDeleteMedal,std::allocator<ioExpandMedalSlotManager::ReserveDeleteMedal> >, COMDAT
; _this$ = ecx

; 426  : 		{	// construct allocator from _Al

  00000	8b c1		 mov	 eax, ecx

; 427  : 		_Myfirst = 0;

  00002	33 c9		 xor	 ecx, ecx
  00004	89 08		 mov	 DWORD PTR [eax], ecx

; 428  : 		_Mylast = 0;

  00006	89 48 04	 mov	 DWORD PTR [eax+4], ecx

; 429  : 		_Myend = 0;

  00009	89 48 08	 mov	 DWORD PTR [eax+8], ecx

; 430  : 		}

  0000c	c2 04 00	 ret	 4
??0?$_Vector_val@UReserveDeleteMedal@ioExpandMedalSlotManager@@V?$allocator@UReserveDeleteMedal@ioExpandMedalSlotManager@@@std@@@std@@QAE@V?$allocator@UReserveDeleteMedal@ioExpandMedalSlotManager@@@1@@Z ENDP ; std::_Vector_val<ioExpandMedalSlotManager::ReserveDeleteMedal,std::allocator<ioExpandMedalSlotManager::ReserveDeleteMedal> >::_Vector_val<ioExpandMedalSlotManager::ReserveDeleteMedal,std::allocator<ioExpandMedalSlotManager::ReserveDeleteMedal> >
_TEXT	ENDS
PUBLIC	??8?$_Vector_const_iterator@V?$_Vector_val@UExpandMedalSlot@ioExpandMedalSlotManager@@V?$allocator@UExpandMedalSlot@ioExpandMedalSlotManager@@@std@@@std@@@std@@QBE_NABV01@@Z ; std::_Vector_const_iterator<std::_Vector_val<ioExpandMedalSlotManager::ExpandMedalSlot,std::allocator<ioExpandMedalSlotManager::ExpandMedalSlot> > >::operator==
; Function compile flags: /Ogsp
;	COMDAT ??8?$_Vector_const_iterator@V?$_Vector_val@UExpandMedalSlot@ioExpandMedalSlotManager@@V?$allocator@UExpandMedalSlot@ioExpandMedalSlotManager@@@std@@@std@@@std@@QBE_NABV01@@Z
_TEXT	SEGMENT
__Right$ = 8						; size = 4
??8?$_Vector_const_iterator@V?$_Vector_val@UExpandMedalSlot@ioExpandMedalSlotManager@@V?$allocator@UExpandMedalSlot@ioExpandMedalSlotManager@@@std@@@std@@@std@@QBE_NABV01@@Z PROC ; std::_Vector_const_iterator<std::_Vector_val<ioExpandMedalSlotManager::ExpandMedalSlot,std::allocator<ioExpandMedalSlotManager::ExpandMedalSlot> > >::operator==, COMDAT
; _this$ = ecx

; 201  : 		{	// test for iterator equality

  00000	55		 push	 ebp
  00001	8b ec		 mov	 ebp, esp

; 202  : 		_Compat(_Right);
; 203  : 		return (this->_Ptr == _Right._Ptr);

  00003	8b 01		 mov	 eax, DWORD PTR [ecx]
  00005	8b 4d 08	 mov	 ecx, DWORD PTR __Right$[ebp]
  00008	2b 01		 sub	 eax, DWORD PTR [ecx]
  0000a	f7 d8		 neg	 eax
  0000c	1b c0		 sbb	 eax, eax
  0000e	40		 inc	 eax

; 204  : 		}

  0000f	5d		 pop	 ebp
  00010	c2 04 00	 ret	 4
??8?$_Vector_const_iterator@V?$_Vector_val@UExpandMedalSlot@ioExpandMedalSlotManager@@V?$allocator@UExpandMedalSlot@ioExpandMedalSlotManager@@@std@@@std@@@std@@QBE_NABV01@@Z ENDP ; std::_Vector_const_iterator<std::_Vector_val<ioExpandMedalSlotManager::ExpandMedalSlot,std::allocator<ioExpandMedalSlotManager::ExpandMedalSlot> > >::operator==
_TEXT	ENDS
PUBLIC	?max_size@?$vector@UExpandMedalSlot@ioExpandMedalSlotManager@@V?$allocator@UExpandMedalSlot@ioExpandMedalSlotManager@@@std@@@std@@QBEIXZ ; std::vector<ioExpandMedalSlotManager::ExpandMedalSlot,std::allocator<ioExpandMedalSlotManager::ExpandMedalSlot> >::max_size
; Function compile flags: /Ogsp
;	COMDAT ?max_size@?$vector@UExpandMedalSlot@ioExpandMedalSlotManager@@V?$allocator@UExpandMedalSlot@ioExpandMedalSlotManager@@@std@@@std@@QBEIXZ
_TEXT	SEGMENT
?max_size@?$vector@UExpandMedalSlot@ioExpandMedalSlotManager@@V?$allocator@UExpandMedalSlot@ioExpandMedalSlotManager@@@std@@@std@@QBEIXZ PROC ; std::vector<ioExpandMedalSlotManager::ExpandMedalSlot,std::allocator<ioExpandMedalSlotManager::ExpandMedalSlot> >::max_size, COMDAT
; _this$ = ecx

; 884  : 		return (this->_Alval.max_size());

  00000	b8 55 55 55 15	 mov	 eax, 357913941		; 15555555H

; 885  : 		}

  00005	c3		 ret	 0
?max_size@?$vector@UExpandMedalSlot@ioExpandMedalSlotManager@@V?$allocator@UExpandMedalSlot@ioExpandMedalSlotManager@@@std@@@std@@QBEIXZ ENDP ; std::vector<ioExpandMedalSlotManager::ExpandMedalSlot,std::allocator<ioExpandMedalSlotManager::ExpandMedalSlot> >::max_size
_TEXT	ENDS
PUBLIC	?_Grow_to@?$vector@UExpandMedalSlot@ioExpandMedalSlotManager@@V?$allocator@UExpandMedalSlot@ioExpandMedalSlotManager@@@std@@@std@@IBEII@Z ; std::vector<ioExpandMedalSlotManager::ExpandMedalSlot,std::allocator<ioExpandMedalSlotManager::ExpandMedalSlot> >::_Grow_to
; Function compile flags: /Ogsp
;	COMDAT ?_Grow_to@?$vector@UExpandMedalSlot@ioExpandMedalSlotManager@@V?$allocator@UExpandMedalSlot@ioExpandMedalSlotManager@@@std@@@std@@IBEII@Z
_TEXT	SEGMENT
__Count$ = 8						; size = 4
?_Grow_to@?$vector@UExpandMedalSlot@ioExpandMedalSlotManager@@V?$allocator@UExpandMedalSlot@ioExpandMedalSlotManager@@@std@@@std@@IBEII@Z PROC ; std::vector<ioExpandMedalSlotManager::ExpandMedalSlot,std::allocator<ioExpandMedalSlotManager::ExpandMedalSlot> >::_Grow_to, COMDAT
; _this$ = ecx

; 1274 : 		{	// grow by 50% or at least to _Count

  00000	55		 push	 ebp
  00001	8b ec		 mov	 ebp, esp

; 1275 : 		size_type _Capacity = capacity();

  00003	8b 41 08	 mov	 eax, DWORD PTR [ecx+8]
  00006	2b 01		 sub	 eax, DWORD PTR [ecx]
  00008	6a 0c		 push	 12			; 0000000cH
  0000a	99		 cdq
  0000b	59		 pop	 ecx
  0000c	f7 f9		 idiv	 ecx

; 1276 : 
; 1277 : 		_Capacity = max_size() - _Capacity / 2 < _Capacity
; 1278 : 			? 0 : _Capacity + _Capacity / 2;	// try to grow by 50%

  0000e	ba 55 55 55 15	 mov	 edx, 357913941		; 15555555H
  00013	8b c8		 mov	 ecx, eax
  00015	d1 e9		 shr	 ecx, 1
  00017	2b d1		 sub	 edx, ecx
  00019	3b d0		 cmp	 edx, eax
  0001b	73 04		 jae	 SHORT $LN4@Grow_to
  0001d	33 c0		 xor	 eax, eax
  0001f	eb 02		 jmp	 SHORT $LN5@Grow_to
$LN4@Grow_to:
  00021	03 c1		 add	 eax, ecx
$LN5@Grow_to:

; 1279 : 		if (_Capacity < _Count)

  00023	3b 45 08	 cmp	 eax, DWORD PTR __Count$[ebp]

; 1280 : 			_Capacity = _Count;

  00026	0f 42 45 08	 cmovb	 eax, DWORD PTR __Count$[ebp]

; 1281 : 		return (_Capacity);
; 1282 : 		}

  0002a	5d		 pop	 ebp
  0002b	c2 04 00	 ret	 4
?_Grow_to@?$vector@UExpandMedalSlot@ioExpandMedalSlotManager@@V?$allocator@UExpandMedalSlot@ioExpandMedalSlotManager@@@std@@@std@@IBEII@Z ENDP ; std::vector<ioExpandMedalSlotManager::ExpandMedalSlot,std::allocator<ioExpandMedalSlotManager::ExpandMedalSlot> >::_Grow_to
_TEXT	ENDS
PUBLIC	?max_size@?$vector@UReserveDeleteMedal@ioExpandMedalSlotManager@@V?$allocator@UReserveDeleteMedal@ioExpandMedalSlotManager@@@std@@@std@@QBEIXZ ; std::vector<ioExpandMedalSlotManager::ReserveDeleteMedal,std::allocator<ioExpandMedalSlotManager::ReserveDeleteMedal> >::max_size
; Function compile flags: /Ogsp
;	COMDAT ?max_size@?$vector@UReserveDeleteMedal@ioExpandMedalSlotManager@@V?$allocator@UReserveDeleteMedal@ioExpandMedalSlotManager@@@std@@@std@@QBEIXZ
_TEXT	SEGMENT
?max_size@?$vector@UReserveDeleteMedal@ioExpandMedalSlotManager@@V?$allocator@UReserveDeleteMedal@ioExpandMedalSlotManager@@@std@@@std@@QBEIXZ PROC ; std::vector<ioExpandMedalSlotManager::ReserveDeleteMedal,std::allocator<ioExpandMedalSlotManager::ReserveDeleteMedal> >::max_size, COMDAT
; _this$ = ecx

; 884  : 		return (this->_Alval.max_size());

  00000	b8 55 55 55 15	 mov	 eax, 357913941		; 15555555H

; 885  : 		}

  00005	c3		 ret	 0
?max_size@?$vector@UReserveDeleteMedal@ioExpandMedalSlotManager@@V?$allocator@UReserveDeleteMedal@ioExpandMedalSlotManager@@@std@@@std@@QBEIXZ ENDP ; std::vector<ioExpandMedalSlotManager::ReserveDeleteMedal,std::allocator<ioExpandMedalSlotManager::ReserveDeleteMedal> >::max_size
_TEXT	ENDS
PUBLIC	?_Grow_to@?$vector@UReserveDeleteMedal@ioExpandMedalSlotManager@@V?$allocator@UReserveDeleteMedal@ioExpandMedalSlotManager@@@std@@@std@@IBEII@Z ; std::vector<ioExpandMedalSlotManager::ReserveDeleteMedal,std::allocator<ioExpandMedalSlotManager::ReserveDeleteMedal> >::_Grow_to
; Function compile flags: /Ogsp
;	COMDAT ?_Grow_to@?$vector@UReserveDeleteMedal@ioExpandMedalSlotManager@@V?$allocator@UReserveDeleteMedal@ioExpandMedalSlotManager@@@std@@@std@@IBEII@Z
_TEXT	SEGMENT
__Count$ = 8						; size = 4
?_Grow_to@?$vector@UReserveDeleteMedal@ioExpandMedalSlotManager@@V?$allocator@UReserveDeleteMedal@ioExpandMedalSlotManager@@@std@@@std@@IBEII@Z PROC ; std::vector<ioExpandMedalSlotManager::ReserveDeleteMedal,std::allocator<ioExpandMedalSlotManager::ReserveDeleteMedal> >::_Grow_to, COMDAT
; _this$ = ecx

; 1274 : 		{	// grow by 50% or at least to _Count

  00000	55		 push	 ebp
  00001	8b ec		 mov	 ebp, esp

; 1275 : 		size_type _Capacity = capacity();

  00003	8b 41 08	 mov	 eax, DWORD PTR [ecx+8]
  00006	2b 01		 sub	 eax, DWORD PTR [ecx]
  00008	6a 0c		 push	 12			; 0000000cH
  0000a	99		 cdq
  0000b	59		 pop	 ecx
  0000c	f7 f9		 idiv	 ecx

; 1276 : 
; 1277 : 		_Capacity = max_size() - _Capacity / 2 < _Capacity
; 1278 : 			? 0 : _Capacity + _Capacity / 2;	// try to grow by 50%

  0000e	ba 55 55 55 15	 mov	 edx, 357913941		; 15555555H
  00013	8b c8		 mov	 ecx, eax
  00015	d1 e9		 shr	 ecx, 1
  00017	2b d1		 sub	 edx, ecx
  00019	3b d0		 cmp	 edx, eax
  0001b	73 04		 jae	 SHORT $LN4@Grow_to@2
  0001d	33 c0		 xor	 eax, eax
  0001f	eb 02		 jmp	 SHORT $LN5@Grow_to@2
$LN4@Grow_to@2:
  00021	03 c1		 add	 eax, ecx
$LN5@Grow_to@2:

; 1279 : 		if (_Capacity < _Count)

  00023	3b 45 08	 cmp	 eax, DWORD PTR __Count$[ebp]

; 1280 : 			_Capacity = _Count;

  00026	0f 42 45 08	 cmovb	 eax, DWORD PTR __Count$[ebp]

; 1281 : 		return (_Capacity);
; 1282 : 		}

  0002a	5d		 pop	 ebp
  0002b	c2 04 00	 ret	 4
?_Grow_to@?$vector@UReserveDeleteMedal@ioExpandMedalSlotManager@@V?$allocator@UReserveDeleteMedal@ioExpandMedalSlotManager@@@std@@@std@@IBEII@Z ENDP ; std::vector<ioExpandMedalSlotManager::ReserveDeleteMedal,std::allocator<ioExpandMedalSlotManager::ReserveDeleteMedal> >::_Grow_to
_TEXT	ENDS
PUBLIC	??0?$_Vector_const_iterator@V?$_Vector_val@UExpandMedalSlot@ioExpandMedalSlotManager@@V?$allocator@UExpandMedalSlot@ioExpandMedalSlotManager@@@std@@@std@@@std@@QAE@PAUExpandMedalSlot@ioExpandMedalSlotManager@@PBU_Container_base0@1@@Z ; std::_Vector_const_iterator<std::_Vector_val<ioExpandMedalSlotManager::ExpandMedalSlot,std::allocator<ioExpandMedalSlotManager::ExpandMedalSlot> > >::_Vector_const_iterator<std::_Vector_val<ioExpandMedalSlotManager::ExpandMedalSlot,std::allocator<ioExpandMedalSlotManager::ExpandMedalSlot> > >
; Function compile flags: /Ogsp
;	COMDAT ??0?$_Vector_const_iterator@V?$_Vector_val@UExpandMedalSlot@ioExpandMedalSlotManager@@V?$allocator@UExpandMedalSlot@ioExpandMedalSlotManager@@@std@@@std@@@std@@QAE@PAUExpandMedalSlot@ioExpandMedalSlotManager@@PBU_Container_base0@1@@Z
_TEXT	SEGMENT
__Parg$ = 8						; size = 4
__Pvector$ = 12						; size = 4
??0?$_Vector_const_iterator@V?$_Vector_val@UExpandMedalSlot@ioExpandMedalSlotManager@@V?$allocator@UExpandMedalSlot@ioExpandMedalSlotManager@@@std@@@std@@@std@@QAE@PAUExpandMedalSlot@ioExpandMedalSlotManager@@PBU_Container_base0@1@@Z PROC ; std::_Vector_const_iterator<std::_Vector_val<ioExpandMedalSlotManager::ExpandMedalSlot,std::allocator<ioExpandMedalSlotManager::ExpandMedalSlot> > >::_Vector_const_iterator<std::_Vector_val<ioExpandMedalSlotManager::ExpandMedalSlot,std::allocator<ioExpandMedalSlotManager::ExpandMedalSlot> > >, COMDAT
; _this$ = ecx

; 45   : 		{	// construct with pointer _Parg

  00000	55		 push	 ebp
  00001	8b ec		 mov	 ebp, esp
  00003	8b c1		 mov	 eax, ecx
  00005	8b 4d 08	 mov	 ecx, DWORD PTR __Parg$[ebp]
  00008	89 08		 mov	 DWORD PTR [eax], ecx

; 46   : 		this->_Adopt(_Pvector);
; 47   : 		}

  0000a	5d		 pop	 ebp
  0000b	c2 08 00	 ret	 8
??0?$_Vector_const_iterator@V?$_Vector_val@UExpandMedalSlot@ioExpandMedalSlotManager@@V?$allocator@UExpandMedalSlot@ioExpandMedalSlotManager@@@std@@@std@@@std@@QAE@PAUExpandMedalSlot@ioExpandMedalSlotManager@@PBU_Container_base0@1@@Z ENDP ; std::_Vector_const_iterator<std::_Vector_val<ioExpandMedalSlotManager::ExpandMedalSlot,std::allocator<ioExpandMedalSlotManager::ExpandMedalSlot> > >::_Vector_const_iterator<std::_Vector_val<ioExpandMedalSlotManager::ExpandMedalSlot,std::allocator<ioExpandMedalSlotManager::ExpandMedalSlot> > >
_TEXT	ENDS
PUBLIC	?allocate@?$allocator@UExpandMedalSlot@ioExpandMedalSlotManager@@@std@@QAEPAUExpandMedalSlot@ioExpandMedalSlotManager@@I@Z ; std::allocator<ioExpandMedalSlotManager::ExpandMedalSlot>::allocate
; Function compile flags: /Ogsp
; File c:\program files (x86)\microsoft visual studio 10.0\vc\include\xmemory
;	COMDAT ?allocate@?$allocator@UExpandMedalSlot@ioExpandMedalSlotManager@@@std@@QAEPAUExpandMedalSlot@ioExpandMedalSlotManager@@I@Z
_TEXT	SEGMENT
__Count$ = 8						; size = 4
?allocate@?$allocator@UExpandMedalSlot@ioExpandMedalSlotManager@@@std@@QAEPAUExpandMedalSlot@ioExpandMedalSlotManager@@I@Z PROC ; std::allocator<ioExpandMedalSlotManager::ExpandMedalSlot>::allocate, COMDAT
; _this$ = ecx

; 186  : 		{	// allocate array of _Count elements

  00000	55		 push	 ebp
  00001	8b ec		 mov	 ebp, esp

; 187  : 		return (_Allocate(_Count, (pointer)0));

  00003	6a 00		 push	 0
  00005	ff 75 08	 push	 DWORD PTR __Count$[ebp]
  00008	e8 00 00 00 00	 call	 ??$_Allocate@UExpandMedalSlot@ioExpandMedalSlotManager@@@std@@YAPAUExpandMedalSlot@ioExpandMedalSlotManager@@IPAU12@@Z ; std::_Allocate<ioExpandMedalSlotManager::ExpandMedalSlot>
  0000d	59		 pop	 ecx
  0000e	59		 pop	 ecx

; 188  : 		}

  0000f	5d		 pop	 ebp
  00010	c2 04 00	 ret	 4
?allocate@?$allocator@UExpandMedalSlot@ioExpandMedalSlotManager@@@std@@QAEPAUExpandMedalSlot@ioExpandMedalSlotManager@@I@Z ENDP ; std::allocator<ioExpandMedalSlotManager::ExpandMedalSlot>::allocate
_TEXT	ENDS
PUBLIC	?allocate@?$allocator@UReserveDeleteMedal@ioExpandMedalSlotManager@@@std@@QAEPAUReserveDeleteMedal@ioExpandMedalSlotManager@@I@Z ; std::allocator<ioExpandMedalSlotManager::ReserveDeleteMedal>::allocate
; Function compile flags: /Ogsp
;	COMDAT ?allocate@?$allocator@UReserveDeleteMedal@ioExpandMedalSlotManager@@@std@@QAEPAUReserveDeleteMedal@ioExpandMedalSlotManager@@I@Z
_TEXT	SEGMENT
__Count$ = 8						; size = 4
?allocate@?$allocator@UReserveDeleteMedal@ioExpandMedalSlotManager@@@std@@QAEPAUReserveDeleteMedal@ioExpandMedalSlotManager@@I@Z PROC ; std::allocator<ioExpandMedalSlotManager::ReserveDeleteMedal>::allocate, COMDAT
; _this$ = ecx

; 186  : 		{	// allocate array of _Count elements

  00000	55		 push	 ebp
  00001	8b ec		 mov	 ebp, esp

; 187  : 		return (_Allocate(_Count, (pointer)0));

  00003	6a 00		 push	 0
  00005	ff 75 08	 push	 DWORD PTR __Count$[ebp]
  00008	e8 00 00 00 00	 call	 ??$_Allocate@UReserveDeleteMedal@ioExpandMedalSlotManager@@@std@@YAPAUReserveDeleteMedal@ioExpandMedalSlotManager@@IPAU12@@Z ; std::_Allocate<ioExpandMedalSlotManager::ReserveDeleteMedal>
  0000d	59		 pop	 ecx
  0000e	59		 pop	 ecx

; 188  : 		}

  0000f	5d		 pop	 ebp
  00010	c2 04 00	 ret	 4
?allocate@?$allocator@UReserveDeleteMedal@ioExpandMedalSlotManager@@@std@@QAEPAUReserveDeleteMedal@ioExpandMedalSlotManager@@I@Z ENDP ; std::allocator<ioExpandMedalSlotManager::ReserveDeleteMedal>::allocate
_TEXT	ENDS
PUBLIC	??0?$_Vector_const_iterator@V?$_Vector_val@UReserveDeleteMedal@ioExpandMedalSlotManager@@V?$allocator@UReserveDeleteMedal@ioExpandMedalSlotManager@@@std@@@std@@@std@@QAE@PAUReserveDeleteMedal@ioExpandMedalSlotManager@@PBU_Container_base0@1@@Z ; std::_Vector_const_iterator<std::_Vector_val<ioExpandMedalSlotManager::ReserveDeleteMedal,std::allocator<ioExpandMedalSlotManager::ReserveDeleteMedal> > >::_Vector_const_iterator<std::_Vector_val<ioExpandMedalSlotManager::ReserveDeleteMedal,std::allocator<ioExpandMedalSlotManager::ReserveDeleteMedal> > >
; Function compile flags: /Ogsp
; File c:\program files (x86)\microsoft visual studio 10.0\vc\include\vector
;	COMDAT ??0?$_Vector_const_iterator@V?$_Vector_val@UReserveDeleteMedal@ioExpandMedalSlotManager@@V?$allocator@UReserveDeleteMedal@ioExpandMedalSlotManager@@@std@@@std@@@std@@QAE@PAUReserveDeleteMedal@ioExpandMedalSlotManager@@PBU_Container_base0@1@@Z
_TEXT	SEGMENT
__Parg$ = 8						; size = 4
__Pvector$ = 12						; size = 4
??0?$_Vector_const_iterator@V?$_Vector_val@UReserveDeleteMedal@ioExpandMedalSlotManager@@V?$allocator@UReserveDeleteMedal@ioExpandMedalSlotManager@@@std@@@std@@@std@@QAE@PAUReserveDeleteMedal@ioExpandMedalSlotManager@@PBU_Container_base0@1@@Z PROC ; std::_Vector_const_iterator<std::_Vector_val<ioExpandMedalSlotManager::ReserveDeleteMedal,std::allocator<ioExpandMedalSlotManager::ReserveDeleteMedal> > >::_Vector_const_iterator<std::_Vector_val<ioExpandMedalSlotManager::ReserveDeleteMedal,std::allocator<ioExpandMedalSlotManager::ReserveDeleteMedal> > >, COMDAT
; _this$ = ecx

; 45   : 		{	// construct with pointer _Parg

  00000	55		 push	 ebp
  00001	8b ec		 mov	 ebp, esp
  00003	8b c1		 mov	 eax, ecx
  00005	8b 4d 08	 mov	 ecx, DWORD PTR __Parg$[ebp]
  00008	89 08		 mov	 DWORD PTR [eax], ecx

; 46   : 		this->_Adopt(_Pvector);
; 47   : 		}

  0000a	5d		 pop	 ebp
  0000b	c2 08 00	 ret	 8
??0?$_Vector_const_iterator@V?$_Vector_val@UReserveDeleteMedal@ioExpandMedalSlotManager@@V?$allocator@UReserveDeleteMedal@ioExpandMedalSlotManager@@@std@@@std@@@std@@QAE@PAUReserveDeleteMedal@ioExpandMedalSlotManager@@PBU_Container_base0@1@@Z ENDP ; std::_Vector_const_iterator<std::_Vector_val<ioExpandMedalSlotManager::ReserveDeleteMedal,std::allocator<ioExpandMedalSlotManager::ReserveDeleteMedal> > >::_Vector_const_iterator<std::_Vector_val<ioExpandMedalSlotManager::ReserveDeleteMedal,std::allocator<ioExpandMedalSlotManager::ReserveDeleteMedal> > >
_TEXT	ENDS
PUBLIC	??8?$_Vector_const_iterator@V?$_Vector_val@UReserveDeleteMedal@ioExpandMedalSlotManager@@V?$allocator@UReserveDeleteMedal@ioExpandMedalSlotManager@@@std@@@std@@@std@@QBE_NABV01@@Z ; std::_Vector_const_iterator<std::_Vector_val<ioExpandMedalSlotManager::ReserveDeleteMedal,std::allocator<ioExpandMedalSlotManager::ReserveDeleteMedal> > >::operator==
; Function compile flags: /Ogsp
;	COMDAT ??8?$_Vector_const_iterator@V?$_Vector_val@UReserveDeleteMedal@ioExpandMedalSlotManager@@V?$allocator@UReserveDeleteMedal@ioExpandMedalSlotManager@@@std@@@std@@@std@@QBE_NABV01@@Z
_TEXT	SEGMENT
__Right$ = 8						; size = 4
??8?$_Vector_const_iterator@V?$_Vector_val@UReserveDeleteMedal@ioExpandMedalSlotManager@@V?$allocator@UReserveDeleteMedal@ioExpandMedalSlotManager@@@std@@@std@@@std@@QBE_NABV01@@Z PROC ; std::_Vector_const_iterator<std::_Vector_val<ioExpandMedalSlotManager::ReserveDeleteMedal,std::allocator<ioExpandMedalSlotManager::ReserveDeleteMedal> > >::operator==, COMDAT
; _this$ = ecx

; 201  : 		{	// test for iterator equality

  00000	55		 push	 ebp
  00001	8b ec		 mov	 ebp, esp

; 202  : 		_Compat(_Right);
; 203  : 		return (this->_Ptr == _Right._Ptr);

  00003	8b 01		 mov	 eax, DWORD PTR [ecx]
  00005	8b 4d 08	 mov	 ecx, DWORD PTR __Right$[ebp]
  00008	2b 01		 sub	 eax, DWORD PTR [ecx]
  0000a	f7 d8		 neg	 eax
  0000c	1b c0		 sbb	 eax, eax
  0000e	40		 inc	 eax

; 204  : 		}

  0000f	5d		 pop	 ebp
  00010	c2 04 00	 ret	 4
??8?$_Vector_const_iterator@V?$_Vector_val@UReserveDeleteMedal@ioExpandMedalSlotManager@@V?$allocator@UReserveDeleteMedal@ioExpandMedalSlotManager@@@std@@@std@@@std@@QBE_NABV01@@Z ENDP ; std::_Vector_const_iterator<std::_Vector_val<ioExpandMedalSlotManager::ReserveDeleteMedal,std::allocator<ioExpandMedalSlotManager::ReserveDeleteMedal> > >::operator==
_TEXT	ENDS
PUBLIC	??$_Cons_val@V?$allocator@UExpandMedalSlot@ioExpandMedalSlotManager@@@std@@UExpandMedalSlot@ioExpandMedalSlotManager@@AAU34@@std@@YAXAAV?$allocator@UExpandMedalSlot@ioExpandMedalSlotManager@@@0@PAUExpandMedalSlot@ioExpandMedalSlotManager@@AAU23@@Z ; std::_Cons_val<std::allocator<ioExpandMedalSlotManager::ExpandMedalSlot>,ioExpandMedalSlotManager::ExpandMedalSlot,ioExpandMedalSlotManager::ExpandMedalSlot &>
; Function compile flags: /Ogsp
; File c:\program files (x86)\microsoft visual studio 10.0\vc\include\xmemory
;	COMDAT ??$_Cons_val@V?$allocator@UExpandMedalSlot@ioExpandMedalSlotManager@@@std@@UExpandMedalSlot@ioExpandMedalSlotManager@@AAU34@@std@@YAXAAV?$allocator@UExpandMedalSlot@ioExpandMedalSlotManager@@@0@PAUExpandMedalSlot@ioExpandMedalSlotManager@@AAU23@@Z
_TEXT	SEGMENT
__Alval$ = 8						; size = 4
__Pdest$ = 12						; size = 4
__Src$ = 16						; size = 4
??$_Cons_val@V?$allocator@UExpandMedalSlot@ioExpandMedalSlotManager@@@std@@UExpandMedalSlot@ioExpandMedalSlotManager@@AAU34@@std@@YAXAAV?$allocator@UExpandMedalSlot@ioExpandMedalSlotManager@@@0@PAUExpandMedalSlot@ioExpandMedalSlotManager@@AAU23@@Z PROC ; std::_Cons_val<std::allocator<ioExpandMedalSlotManager::ExpandMedalSlot>,ioExpandMedalSlotManager::ExpandMedalSlot,ioExpandMedalSlotManager::ExpandMedalSlot &>, COMDAT

; 279  : 	{	// construct using allocator

  00000	55		 push	 ebp
  00001	8b ec		 mov	 ebp, esp
  00003	57		 push	 edi

; 280  : 	_Alval.construct(_Pdest, _STD forward<_Ty2>(_Src));

  00004	8b 7d 0c	 mov	 edi, DWORD PTR __Pdest$[ebp]
  00007	85 ff		 test	 edi, edi
  00009	74 08		 je	 SHORT $LN7@Cons_val
  0000b	56		 push	 esi
  0000c	8b 75 10	 mov	 esi, DWORD PTR __Src$[ebp]
  0000f	a5		 movsd
  00010	a5		 movsd
  00011	a5		 movsd
  00012	5e		 pop	 esi
$LN7@Cons_val:
  00013	5f		 pop	 edi

; 281  : 	}

  00014	5d		 pop	 ebp
  00015	c3		 ret	 0
??$_Cons_val@V?$allocator@UExpandMedalSlot@ioExpandMedalSlotManager@@@std@@UExpandMedalSlot@ioExpandMedalSlotManager@@AAU34@@std@@YAXAAV?$allocator@UExpandMedalSlot@ioExpandMedalSlotManager@@@0@PAUExpandMedalSlot@ioExpandMedalSlotManager@@AAU23@@Z ENDP ; std::_Cons_val<std::allocator<ioExpandMedalSlotManager::ExpandMedalSlot>,ioExpandMedalSlotManager::ExpandMedalSlot,ioExpandMedalSlotManager::ExpandMedalSlot &>
_TEXT	ENDS
PUBLIC	??$_Cons_val@V?$allocator@UReserveDeleteMedal@ioExpandMedalSlotManager@@@std@@UReserveDeleteMedal@ioExpandMedalSlotManager@@AAU34@@std@@YAXAAV?$allocator@UReserveDeleteMedal@ioExpandMedalSlotManager@@@0@PAUReserveDeleteMedal@ioExpandMedalSlotManager@@AAU23@@Z ; std::_Cons_val<std::allocator<ioExpandMedalSlotManager::ReserveDeleteMedal>,ioExpandMedalSlotManager::ReserveDeleteMedal,ioExpandMedalSlotManager::ReserveDeleteMedal &>
; Function compile flags: /Ogsp
;	COMDAT ??$_Cons_val@V?$allocator@UReserveDeleteMedal@ioExpandMedalSlotManager@@@std@@UReserveDeleteMedal@ioExpandMedalSlotManager@@AAU34@@std@@YAXAAV?$allocator@UReserveDeleteMedal@ioExpandMedalSlotManager@@@0@PAUReserveDeleteMedal@ioExpandMedalSlotManager@@AAU23@@Z
_TEXT	SEGMENT
__Alval$ = 8						; size = 4
__Pdest$ = 12						; size = 4
__Src$ = 16						; size = 4
??$_Cons_val@V?$allocator@UReserveDeleteMedal@ioExpandMedalSlotManager@@@std@@UReserveDeleteMedal@ioExpandMedalSlotManager@@AAU34@@std@@YAXAAV?$allocator@UReserveDeleteMedal@ioExpandMedalSlotManager@@@0@PAUReserveDeleteMedal@ioExpandMedalSlotManager@@AAU23@@Z PROC ; std::_Cons_val<std::allocator<ioExpandMedalSlotManager::ReserveDeleteMedal>,ioExpandMedalSlotManager::ReserveDeleteMedal,ioExpandMedalSlotManager::ReserveDeleteMedal &>, COMDAT

; 279  : 	{	// construct using allocator

  00000	55		 push	 ebp
  00001	8b ec		 mov	 ebp, esp
  00003	57		 push	 edi

; 280  : 	_Alval.construct(_Pdest, _STD forward<_Ty2>(_Src));

  00004	8b 7d 0c	 mov	 edi, DWORD PTR __Pdest$[ebp]
  00007	85 ff		 test	 edi, edi
  00009	74 08		 je	 SHORT $LN7@Cons_val@2
  0000b	56		 push	 esi
  0000c	8b 75 10	 mov	 esi, DWORD PTR __Src$[ebp]
  0000f	a5		 movsd
  00010	a5		 movsd
  00011	a5		 movsd
  00012	5e		 pop	 esi
$LN7@Cons_val@2:
  00013	5f		 pop	 edi

; 281  : 	}

  00014	5d		 pop	 ebp
  00015	c3		 ret	 0
??$_Cons_val@V?$allocator@UReserveDeleteMedal@ioExpandMedalSlotManager@@@std@@UReserveDeleteMedal@ioExpandMedalSlotManager@@AAU34@@std@@YAXAAV?$allocator@UReserveDeleteMedal@ioExpandMedalSlotManager@@@0@PAUReserveDeleteMedal@ioExpandMedalSlotManager@@AAU23@@Z ENDP ; std::_Cons_val<std::allocator<ioExpandMedalSlotManager::ReserveDeleteMedal>,ioExpandMedalSlotManager::ReserveDeleteMedal,ioExpandMedalSlotManager::ReserveDeleteMedal &>
_TEXT	ENDS
PUBLIC	?construct@?$allocator@UExpandMedalSlot@ioExpandMedalSlotManager@@@std@@QAEXPAUExpandMedalSlot@ioExpandMedalSlotManager@@ABU34@@Z ; std::allocator<ioExpandMedalSlotManager::ExpandMedalSlot>::construct
; Function compile flags: /Ogsp
;	COMDAT ?construct@?$allocator@UExpandMedalSlot@ioExpandMedalSlotManager@@@std@@QAEXPAUExpandMedalSlot@ioExpandMedalSlotManager@@ABU34@@Z
_TEXT	SEGMENT
__Ptr$ = 8						; size = 4
__Val$ = 12						; size = 4
?construct@?$allocator@UExpandMedalSlot@ioExpandMedalSlotManager@@@std@@QAEXPAUExpandMedalSlot@ioExpandMedalSlotManager@@ABU34@@Z PROC ; std::allocator<ioExpandMedalSlotManager::ExpandMedalSlot>::construct, COMDAT
; _this$ = ecx

; 196  : 		{	// construct object at _Ptr with value _Val

  00000	55		 push	 ebp
  00001	8b ec		 mov	 ebp, esp
  00003	57		 push	 edi

; 197  : 		_Construct(_Ptr, _Val);

  00004	8b 7d 08	 mov	 edi, DWORD PTR __Ptr$[ebp]
  00007	85 ff		 test	 edi, edi
  00009	74 08		 je	 SHORT $LN5@construct@3
  0000b	56		 push	 esi
  0000c	8b 75 0c	 mov	 esi, DWORD PTR __Val$[ebp]
  0000f	a5		 movsd
  00010	a5		 movsd
  00011	a5		 movsd
  00012	5e		 pop	 esi
$LN5@construct@3:
  00013	5f		 pop	 edi

; 198  : 		}

  00014	5d		 pop	 ebp
  00015	c2 08 00	 ret	 8
?construct@?$allocator@UExpandMedalSlot@ioExpandMedalSlotManager@@@std@@QAEXPAUExpandMedalSlot@ioExpandMedalSlotManager@@ABU34@@Z ENDP ; std::allocator<ioExpandMedalSlotManager::ExpandMedalSlot>::construct
_TEXT	ENDS
PUBLIC	?construct@?$allocator@UReserveDeleteMedal@ioExpandMedalSlotManager@@@std@@QAEXPAUReserveDeleteMedal@ioExpandMedalSlotManager@@ABU34@@Z ; std::allocator<ioExpandMedalSlotManager::ReserveDeleteMedal>::construct
; Function compile flags: /Ogsp
;	COMDAT ?construct@?$allocator@UReserveDeleteMedal@ioExpandMedalSlotManager@@@std@@QAEXPAUReserveDeleteMedal@ioExpandMedalSlotManager@@ABU34@@Z
_TEXT	SEGMENT
__Ptr$ = 8						; size = 4
__Val$ = 12						; size = 4
?construct@?$allocator@UReserveDeleteMedal@ioExpandMedalSlotManager@@@std@@QAEXPAUReserveDeleteMedal@ioExpandMedalSlotManager@@ABU34@@Z PROC ; std::allocator<ioExpandMedalSlotManager::ReserveDeleteMedal>::construct, COMDAT
; _this$ = ecx

; 196  : 		{	// construct object at _Ptr with value _Val

  00000	55		 push	 ebp
  00001	8b ec		 mov	 ebp, esp
  00003	57		 push	 edi

; 197  : 		_Construct(_Ptr, _Val);

  00004	8b 7d 08	 mov	 edi, DWORD PTR __Ptr$[ebp]
  00007	85 ff		 test	 edi, edi
  00009	74 08		 je	 SHORT $LN5@construct@4
  0000b	56		 push	 esi
  0000c	8b 75 0c	 mov	 esi, DWORD PTR __Val$[ebp]
  0000f	a5		 movsd
  00010	a5		 movsd
  00011	a5		 movsd
  00012	5e		 pop	 esi
$LN5@construct@4:
  00013	5f		 pop	 edi

; 198  : 		}

  00014	5d		 pop	 ebp
  00015	c2 08 00	 ret	 8
?construct@?$allocator@UReserveDeleteMedal@ioExpandMedalSlotManager@@@std@@QAEXPAUReserveDeleteMedal@ioExpandMedalSlotManager@@ABU34@@Z ENDP ; std::allocator<ioExpandMedalSlotManager::ReserveDeleteMedal>::construct
_TEXT	ENDS
PUBLIC	??$_Move@PAUExpandMedalSlot@ioExpandMedalSlotManager@@PAU12@@std@@YAPAUExpandMedalSlot@ioExpandMedalSlotManager@@PAU12@00U_Nonscalar_ptr_iterator_tag@0@@Z ; std::_Move<ioExpandMedalSlotManager::ExpandMedalSlot *,ioExpandMedalSlotManager::ExpandMedalSlot *>
; Function compile flags: /Ogsp
; File c:\program files (x86)\microsoft visual studio 10.0\vc\include\xutility
;	COMDAT ??$_Move@PAUExpandMedalSlot@ioExpandMedalSlotManager@@PAU12@@std@@YAPAUExpandMedalSlot@ioExpandMedalSlotManager@@PAU12@00U_Nonscalar_ptr_iterator_tag@0@@Z
_TEXT	SEGMENT
__First$ = 8						; size = 4
__Last$ = 12						; size = 4
__Dest$ = 16						; size = 4
___formal$ = 20						; size = 1
??$_Move@PAUExpandMedalSlot@ioExpandMedalSlotManager@@PAU12@@std@@YAPAUExpandMedalSlot@ioExpandMedalSlotManager@@PAU12@00U_Nonscalar_ptr_iterator_tag@0@@Z PROC ; std::_Move<ioExpandMedalSlotManager::ExpandMedalSlot *,ioExpandMedalSlotManager::ExpandMedalSlot *>, COMDAT

; 2512 : 	{	// move [_First, _Last) to [_Dest, ...), arbitrary iterators

  00000	55		 push	 ebp
  00001	8b ec		 mov	 ebp, esp

; 2513 : 	for (; _First != _Last; ++_Dest, ++_First)

  00003	8b 45 08	 mov	 eax, DWORD PTR __First$[ebp]
  00006	3b 45 0c	 cmp	 eax, DWORD PTR __Last$[ebp]
  00009	74 18		 je	 SHORT $LN10@Move
  0000b	56		 push	 esi
  0000c	57		 push	 edi
$LL3@Move:

; 2514 : 		*_Dest = _STD move(*_First);

  0000d	8b 7d 10	 mov	 edi, DWORD PTR __Dest$[ebp]
  00010	83 45 10 0c	 add	 DWORD PTR __Dest$[ebp], 12 ; 0000000cH
  00014	8b f0		 mov	 esi, eax
  00016	a5		 movsd
  00017	a5		 movsd
  00018	83 c0 0c	 add	 eax, 12			; 0000000cH
  0001b	a5		 movsd
  0001c	3b 45 0c	 cmp	 eax, DWORD PTR __Last$[ebp]
  0001f	75 ec		 jne	 SHORT $LL3@Move
  00021	5f		 pop	 edi
  00022	5e		 pop	 esi
$LN10@Move:

; 2515 : 	return (_Dest);

  00023	8b 45 10	 mov	 eax, DWORD PTR __Dest$[ebp]

; 2516 : 	}

  00026	5d		 pop	 ebp
  00027	c3		 ret	 0
??$_Move@PAUExpandMedalSlot@ioExpandMedalSlotManager@@PAU12@@std@@YAPAUExpandMedalSlot@ioExpandMedalSlotManager@@PAU12@00U_Nonscalar_ptr_iterator_tag@0@@Z ENDP ; std::_Move<ioExpandMedalSlotManager::ExpandMedalSlot *,ioExpandMedalSlotManager::ExpandMedalSlot *>
_TEXT	ENDS
PUBLIC	??$_Move@PAUReserveDeleteMedal@ioExpandMedalSlotManager@@PAU12@@std@@YAPAUReserveDeleteMedal@ioExpandMedalSlotManager@@PAU12@00U_Nonscalar_ptr_iterator_tag@0@@Z ; std::_Move<ioExpandMedalSlotManager::ReserveDeleteMedal *,ioExpandMedalSlotManager::ReserveDeleteMedal *>
; Function compile flags: /Ogsp
;	COMDAT ??$_Move@PAUReserveDeleteMedal@ioExpandMedalSlotManager@@PAU12@@std@@YAPAUReserveDeleteMedal@ioExpandMedalSlotManager@@PAU12@00U_Nonscalar_ptr_iterator_tag@0@@Z
_TEXT	SEGMENT
__First$ = 8						; size = 4
__Last$ = 12						; size = 4
__Dest$ = 16						; size = 4
___formal$ = 20						; size = 1
??$_Move@PAUReserveDeleteMedal@ioExpandMedalSlotManager@@PAU12@@std@@YAPAUReserveDeleteMedal@ioExpandMedalSlotManager@@PAU12@00U_Nonscalar_ptr_iterator_tag@0@@Z PROC ; std::_Move<ioExpandMedalSlotManager::ReserveDeleteMedal *,ioExpandMedalSlotManager::ReserveDeleteMedal *>, COMDAT

; 2512 : 	{	// move [_First, _Last) to [_Dest, ...), arbitrary iterators

  00000	55		 push	 ebp
  00001	8b ec		 mov	 ebp, esp

; 2513 : 	for (; _First != _Last; ++_Dest, ++_First)

  00003	8b 45 08	 mov	 eax, DWORD PTR __First$[ebp]
  00006	3b 45 0c	 cmp	 eax, DWORD PTR __Last$[ebp]
  00009	74 18		 je	 SHORT $LN10@Move@2
  0000b	56		 push	 esi
  0000c	57		 push	 edi
$LL3@Move@2:

; 2514 : 		*_Dest = _STD move(*_First);

  0000d	8b 7d 10	 mov	 edi, DWORD PTR __Dest$[ebp]
  00010	83 45 10 0c	 add	 DWORD PTR __Dest$[ebp], 12 ; 0000000cH
  00014	8b f0		 mov	 esi, eax
  00016	a5		 movsd
  00017	a5		 movsd
  00018	83 c0 0c	 add	 eax, 12			; 0000000cH
  0001b	a5		 movsd
  0001c	3b 45 0c	 cmp	 eax, DWORD PTR __Last$[ebp]
  0001f	75 ec		 jne	 SHORT $LL3@Move@2
  00021	5f		 pop	 edi
  00022	5e		 pop	 esi
$LN10@Move@2:

; 2515 : 	return (_Dest);

  00023	8b 45 10	 mov	 eax, DWORD PTR __Dest$[ebp]

; 2516 : 	}

  00026	5d		 pop	 ebp
  00027	c3		 ret	 0
??$_Move@PAUReserveDeleteMedal@ioExpandMedalSlotManager@@PAU12@@std@@YAPAUReserveDeleteMedal@ioExpandMedalSlotManager@@PAU12@00U_Nonscalar_ptr_iterator_tag@0@@Z ENDP ; std::_Move<ioExpandMedalSlotManager::ReserveDeleteMedal *,ioExpandMedalSlotManager::ReserveDeleteMedal *>
_TEXT	ENDS
PUBLIC	?destroy@?$allocator@UExpandMedalSlot@ioExpandMedalSlotManager@@@std@@QAEXPAUExpandMedalSlot@ioExpandMedalSlotManager@@@Z ; std::allocator<ioExpandMedalSlotManager::ExpandMedalSlot>::destroy
; Function compile flags: /Ogsp
; File c:\program files (x86)\microsoft visual studio 10.0\vc\include\xmemory
;	COMDAT ?destroy@?$allocator@UExpandMedalSlot@ioExpandMedalSlotManager@@@std@@QAEXPAUExpandMedalSlot@ioExpandMedalSlotManager@@@Z
_TEXT	SEGMENT
__Ptr$ = 8						; size = 4
?destroy@?$allocator@UExpandMedalSlot@ioExpandMedalSlotManager@@@std@@QAEXPAUExpandMedalSlot@ioExpandMedalSlotManager@@@Z PROC ; std::allocator<ioExpandMedalSlotManager::ExpandMedalSlot>::destroy, COMDAT
; _this$ = ecx

; 213  : 		_Destroy(_Ptr);
; 214  : 		}

  00000	c2 04 00	 ret	 4
?destroy@?$allocator@UExpandMedalSlot@ioExpandMedalSlotManager@@@std@@QAEXPAUExpandMedalSlot@ioExpandMedalSlotManager@@@Z ENDP ; std::allocator<ioExpandMedalSlotManager::ExpandMedalSlot>::destroy
_TEXT	ENDS
PUBLIC	?destroy@?$allocator@UReserveDeleteMedal@ioExpandMedalSlotManager@@@std@@QAEXPAUReserveDeleteMedal@ioExpandMedalSlotManager@@@Z ; std::allocator<ioExpandMedalSlotManager::ReserveDeleteMedal>::destroy
; Function compile flags: /Ogsp
;	COMDAT ?destroy@?$allocator@UReserveDeleteMedal@ioExpandMedalSlotManager@@@std@@QAEXPAUReserveDeleteMedal@ioExpandMedalSlotManager@@@Z
_TEXT	SEGMENT
__Ptr$ = 8						; size = 4
?destroy@?$allocator@UReserveDeleteMedal@ioExpandMedalSlotManager@@@std@@QAEXPAUReserveDeleteMedal@ioExpandMedalSlotManager@@@Z PROC ; std::allocator<ioExpandMedalSlotManager::ReserveDeleteMedal>::destroy, COMDAT
; _this$ = ecx

; 213  : 		_Destroy(_Ptr);
; 214  : 		}

  00000	c2 04 00	 ret	 4
?destroy@?$allocator@UReserveDeleteMedal@ioExpandMedalSlotManager@@@std@@QAEXPAUReserveDeleteMedal@ioExpandMedalSlotManager@@@Z ENDP ; std::allocator<ioExpandMedalSlotManager::ReserveDeleteMedal>::destroy
_TEXT	ENDS
PUBLIC	?construct@?$allocator@UExpandMedalSlot@ioExpandMedalSlotManager@@@std@@QAEXPAUExpandMedalSlot@ioExpandMedalSlotManager@@$$QAU34@@Z ; std::allocator<ioExpandMedalSlotManager::ExpandMedalSlot>::construct
; Function compile flags: /Ogsp
;	COMDAT ?construct@?$allocator@UExpandMedalSlot@ioExpandMedalSlotManager@@@std@@QAEXPAUExpandMedalSlot@ioExpandMedalSlotManager@@$$QAU34@@Z
_TEXT	SEGMENT
__Ptr$ = 8						; size = 4
__Val$ = 12						; size = 4
?construct@?$allocator@UExpandMedalSlot@ioExpandMedalSlotManager@@@std@@QAEXPAUExpandMedalSlot@ioExpandMedalSlotManager@@$$QAU34@@Z PROC ; std::allocator<ioExpandMedalSlotManager::ExpandMedalSlot>::construct, COMDAT
; _this$ = ecx

; 201  : 		{	// construct object at _Ptr with value _Val

  00000	55		 push	 ebp
  00001	8b ec		 mov	 ebp, esp
  00003	57		 push	 edi

; 202  : 		::new ((void _FARQ *)_Ptr) _Ty(_STD forward<_Ty>(_Val));

  00004	8b 7d 08	 mov	 edi, DWORD PTR __Ptr$[ebp]
  00007	85 ff		 test	 edi, edi
  00009	74 08		 je	 SHORT $LN3@construct@5
  0000b	56		 push	 esi
  0000c	8b 75 0c	 mov	 esi, DWORD PTR __Val$[ebp]
  0000f	a5		 movsd
  00010	a5		 movsd
  00011	a5		 movsd
  00012	5e		 pop	 esi
$LN3@construct@5:
  00013	5f		 pop	 edi

; 203  : 		}

  00014	5d		 pop	 ebp
  00015	c2 08 00	 ret	 8
?construct@?$allocator@UExpandMedalSlot@ioExpandMedalSlotManager@@@std@@QAEXPAUExpandMedalSlot@ioExpandMedalSlotManager@@$$QAU34@@Z ENDP ; std::allocator<ioExpandMedalSlotManager::ExpandMedalSlot>::construct
_TEXT	ENDS
PUBLIC	?construct@?$allocator@UReserveDeleteMedal@ioExpandMedalSlotManager@@@std@@QAEXPAUReserveDeleteMedal@ioExpandMedalSlotManager@@$$QAU34@@Z ; std::allocator<ioExpandMedalSlotManager::ReserveDeleteMedal>::construct
; Function compile flags: /Ogsp
;	COMDAT ?construct@?$allocator@UReserveDeleteMedal@ioExpandMedalSlotManager@@@std@@QAEXPAUReserveDeleteMedal@ioExpandMedalSlotManager@@$$QAU34@@Z
_TEXT	SEGMENT
__Ptr$ = 8						; size = 4
__Val$ = 12						; size = 4
?construct@?$allocator@UReserveDeleteMedal@ioExpandMedalSlotManager@@@std@@QAEXPAUReserveDeleteMedal@ioExpandMedalSlotManager@@$$QAU34@@Z PROC ; std::allocator<ioExpandMedalSlotManager::ReserveDeleteMedal>::construct, COMDAT
; _this$ = ecx

; 201  : 		{	// construct object at _Ptr with value _Val

  00000	55		 push	 ebp
  00001	8b ec		 mov	 ebp, esp
  00003	57		 push	 edi

; 202  : 		::new ((void _FARQ *)_Ptr) _Ty(_STD forward<_Ty>(_Val));

  00004	8b 7d 08	 mov	 edi, DWORD PTR __Ptr$[ebp]
  00007	85 ff		 test	 edi, edi
  00009	74 08		 je	 SHORT $LN3@construct@6
  0000b	56		 push	 esi
  0000c	8b 75 0c	 mov	 esi, DWORD PTR __Val$[ebp]
  0000f	a5		 movsd
  00010	a5		 movsd
  00011	a5		 movsd
  00012	5e		 pop	 esi
$LN3@construct@6:
  00013	5f		 pop	 edi

; 203  : 		}

  00014	5d		 pop	 ebp
  00015	c2 08 00	 ret	 8
?construct@?$allocator@UReserveDeleteMedal@ioExpandMedalSlotManager@@@std@@QAEXPAUReserveDeleteMedal@ioExpandMedalSlotManager@@$$QAU34@@Z ENDP ; std::allocator<ioExpandMedalSlotManager::ReserveDeleteMedal>::construct
_TEXT	ENDS
PUBLIC	??0ReserveDeleteMedal@ioExpandMedalSlotManager@@QAE@XZ ; ioExpandMedalSlotManager::ReserveDeleteMedal::ReserveDeleteMedal
; Function compile flags: /Ogsp
; File d:\lost saga for developer\youtube\tutorial\source\src\lsclient\ioexpandmedalslotmanager.h
;	COMDAT ??0ReserveDeleteMedal@ioExpandMedalSlotManager@@QAE@XZ
_TEXT	SEGMENT
??0ReserveDeleteMedal@ioExpandMedalSlotManager@@QAE@XZ PROC ; ioExpandMedalSlotManager::ReserveDeleteMedal::ReserveDeleteMedal, COMDAT
; _this$ = ecx

; 74   : 		ReserveDeleteMedal()

  00000	8b c1		 mov	 eax, ecx

; 75   : 		{
; 76   : 			Init();

  00002	33 c9		 xor	 ecx, ecx
  00004	89 08		 mov	 DWORD PTR [eax], ecx
  00006	89 48 04	 mov	 DWORD PTR [eax+4], ecx
  00009	89 48 08	 mov	 DWORD PTR [eax+8], ecx

; 77   : 		}

  0000c	c3		 ret	 0
??0ReserveDeleteMedal@ioExpandMedalSlotManager@@QAE@XZ ENDP ; ioExpandMedalSlotManager::ReserveDeleteMedal::ReserveDeleteMedal
_TEXT	ENDS
PUBLIC	??B?$CEncrypt@K@@QBEKXZ				; CEncrypt<unsigned long>::operator unsigned long
; Function compile flags: /Ogsp
; File d:\lost saga for developer\youtube\tutorial\source\src\lsclient\encryptvalue.h
;	COMDAT ??B?$CEncrypt@K@@QBEKXZ
_TEXT	SEGMENT
_value$ = -4						; size = 4
??B?$CEncrypt@K@@QBEKXZ PROC				; CEncrypt<unsigned long>::operator unsigned long, COMDAT
; _this$ = ecx

; 145  : 	{

  00000	55		 push	 ebp
  00001	8b ec		 mov	 ebp, esp
  00003	51		 push	 ecx

; 146  : 		//UJ 130829, const    --start
; 147  : 		type value;
; 148  : 		CEncrypt<type>* pThis = const_cast<CEncrypt<type>*>(this);
; 149  : 		pThis->DecryptValueToPool(&value);

  00004	8d 45 fc	 lea	 eax, DWORD PTR _value$[ebp]
  00007	50		 push	 eax
  00008	e8 00 00 00 00	 call	 ?DecryptValueToPool@?$CEncrypt@K@@QAEXPAK@Z ; CEncrypt<unsigned long>::DecryptValueToPool

; 150  : 		//// const DecryptValueToPool     .
; 151  :  		//type value;
; 152  : 		//char szTempMem[MAX_ENCRYPT];
; 153  : 		//m_RC5.DecryptByte( m_MemPool, szTempMem, max(m_ValueSize, DEFAULT_ENCRYPT) );
; 154  : 		//memcpy( &value, szTempMem, m_ValueSize );
; 155  : 		//UJ --end
; 156  : 
; 157  : #ifdef _NOTUSE
; 158  : 		Debug();
; 159  : #endif
; 160  : 		return value;

  0000d	8b 45 fc	 mov	 eax, DWORD PTR _value$[ebp]

; 161  : 	}

  00010	c9		 leave
  00011	c3		 ret	 0
??B?$CEncrypt@K@@QBEKXZ ENDP				; CEncrypt<unsigned long>::operator unsigned long
_TEXT	ENDS
PUBLIC	??0?$_Vector_val@HV?$allocator@H@std@@@std@@QAE@V?$allocator@H@1@@Z ; std::_Vector_val<int,std::allocator<int> >::_Vector_val<int,std::allocator<int> >
; Function compile flags: /Ogsp
; File c:\program files (x86)\microsoft visual studio 10.0\vc\include\vector
;	COMDAT ??0?$_Vector_val@HV?$allocator@H@std@@@std@@QAE@V?$allocator@H@1@@Z
_TEXT	SEGMENT
__Al$ = 8						; size = 1
??0?$_Vector_val@HV?$allocator@H@std@@@std@@QAE@V?$allocator@H@1@@Z PROC ; std::_Vector_val<int,std::allocator<int> >::_Vector_val<int,std::allocator<int> >, COMDAT
; _this$ = ecx

; 426  : 		{	// construct allocator from _Al

  00000	8b c1		 mov	 eax, ecx

; 427  : 		_Myfirst = 0;

  00002	33 c9		 xor	 ecx, ecx
  00004	89 08		 mov	 DWORD PTR [eax], ecx

; 428  : 		_Mylast = 0;

  00006	89 48 04	 mov	 DWORD PTR [eax+4], ecx

; 429  : 		_Myend = 0;

  00009	89 48 08	 mov	 DWORD PTR [eax+8], ecx

; 430  : 		}

  0000c	c2 04 00	 ret	 4
??0?$_Vector_val@HV?$allocator@H@std@@@std@@QAE@V?$allocator@H@1@@Z ENDP ; std::_Vector_val<int,std::allocator<int> >::_Vector_val<int,std::allocator<int> >
_TEXT	ENDS
PUBLIC	??$_Destroy_range@V?$allocator@H@std@@@std@@YAXPAH0AAV?$allocator@H@0@@Z ; std::_Destroy_range<std::allocator<int> >
; Function compile flags: /Ogsp
; File c:\program files (x86)\microsoft visual studio 10.0\vc\include\xmemory
;	COMDAT ??$_Destroy_range@V?$allocator@H@std@@@std@@YAXPAH0AAV?$allocator@H@0@@Z
_TEXT	SEGMENT
__First$ = 8						; size = 4
__Last$ = 12						; size = 4
__Al$ = 16						; size = 4
??$_Destroy_range@V?$allocator@H@std@@@std@@YAXPAH0AAV?$allocator@H@0@@Z PROC ; std::_Destroy_range<std::allocator<int> >, COMDAT

; 88   : 	_Destroy_range(_First, _Last, _Al, _Ptr_cat(_First, _Last));
; 89   : 	}

  00000	c3		 ret	 0
??$_Destroy_range@V?$allocator@H@std@@@std@@YAXPAH0AAV?$allocator@H@0@@Z ENDP ; std::_Destroy_range<std::allocator<int> >
_TEXT	ENDS
PUBLIC	??0?$vector@UExpandMedalSlot@ioExpandMedalSlotManager@@V?$allocator@UExpandMedalSlot@ioExpandMedalSlotManager@@@std@@@std@@QAE@XZ ; std::vector<ioExpandMedalSlotManager::ExpandMedalSlot,std::allocator<ioExpandMedalSlotManager::ExpandMedalSlot> >::vector<ioExpandMedalSlotManager::ExpandMedalSlot,std::allocator<ioExpandMedalSlotManager::ExpandMedalSlot> >
; Function compile flags: /Ogsp
; File c:\program files (x86)\microsoft visual studio 10.0\vc\include\vector
;	COMDAT ??0?$vector@UExpandMedalSlot@ioExpandMedalSlotManager@@V?$allocator@UExpandMedalSlot@ioExpandMedalSlotManager@@@std@@@std@@QAE@XZ
_TEXT	SEGMENT
??0?$vector@UExpandMedalSlot@ioExpandMedalSlotManager@@V?$allocator@UExpandMedalSlot@ioExpandMedalSlotManager@@@std@@@std@@QAE@XZ PROC ; std::vector<ioExpandMedalSlotManager::ExpandMedalSlot,std::allocator<ioExpandMedalSlotManager::ExpandMedalSlot> >::vector<ioExpandMedalSlotManager::ExpandMedalSlot,std::allocator<ioExpandMedalSlotManager::ExpandMedalSlot> >, COMDAT
; _this$ = ecx

; 507  : 		{	// construct empty vector

  00000	8b c1		 mov	 eax, ecx
  00002	33 c9		 xor	 ecx, ecx
  00004	89 08		 mov	 DWORD PTR [eax], ecx
  00006	89 48 04	 mov	 DWORD PTR [eax+4], ecx
  00009	89 48 08	 mov	 DWORD PTR [eax+8], ecx

; 508  : 		}

  0000c	c3		 ret	 0
??0?$vector@UExpandMedalSlot@ioExpandMedalSlotManager@@V?$allocator@UExpandMedalSlot@ioExpandMedalSlotManager@@@std@@@std@@QAE@XZ ENDP ; std::vector<ioExpandMedalSlotManager::ExpandMedalSlot,std::allocator<ioExpandMedalSlotManager::ExpandMedalSlot> >::vector<ioExpandMedalSlotManager::ExpandMedalSlot,std::allocator<ioExpandMedalSlotManager::ExpandMedalSlot> >
_TEXT	ENDS
PUBLIC	??0?$vector@UReserveDeleteMedal@ioExpandMedalSlotManager@@V?$allocator@UReserveDeleteMedal@ioExpandMedalSlotManager@@@std@@@std@@QAE@XZ ; std::vector<ioExpandMedalSlotManager::ReserveDeleteMedal,std::allocator<ioExpandMedalSlotManager::ReserveDeleteMedal> >::vector<ioExpandMedalSlotManager::ReserveDeleteMedal,std::allocator<ioExpandMedalSlotManager::ReserveDeleteMedal> >
; Function compile flags: /Ogsp
;	COMDAT ??0?$vector@UReserveDeleteMedal@ioExpandMedalSlotManager@@V?$allocator@UReserveDeleteMedal@ioExpandMedalSlotManager@@@std@@@std@@QAE@XZ
_TEXT	SEGMENT
??0?$vector@UReserveDeleteMedal@ioExpandMedalSlotManager@@V?$allocator@UReserveDeleteMedal@ioExpandMedalSlotManager@@@std@@@std@@QAE@XZ PROC ; std::vector<ioExpandMedalSlotManager::ReserveDeleteMedal,std::allocator<ioExpandMedalSlotManager::ReserveDeleteMedal> >::vector<ioExpandMedalSlotManager::ReserveDeleteMedal,std::allocator<ioExpandMedalSlotManager::ReserveDeleteMedal> >, COMDAT
; _this$ = ecx

; 507  : 		{	// construct empty vector

  00000	8b c1		 mov	 eax, ecx
  00002	33 c9		 xor	 ecx, ecx
  00004	89 08		 mov	 DWORD PTR [eax], ecx
  00006	89 48 04	 mov	 DWORD PTR [eax+4], ecx
  00009	89 48 08	 mov	 DWORD PTR [eax+8], ecx

; 508  : 		}

  0000c	c3		 ret	 0
??0?$vector@UReserveDeleteMedal@ioExpandMedalSlotManager@@V?$allocator@UReserveDeleteMedal@ioExpandMedalSlotManager@@@std@@@std@@QAE@XZ ENDP ; std::vector<ioExpandMedalSlotManager::ReserveDeleteMedal,std::allocator<ioExpandMedalSlotManager::ReserveDeleteMedal> >::vector<ioExpandMedalSlotManager::ReserveDeleteMedal,std::allocator<ioExpandMedalSlotManager::ReserveDeleteMedal> >
_TEXT	ENDS
PUBLIC	??9?$_Vector_const_iterator@V?$_Vector_val@UExpandMedalSlot@ioExpandMedalSlotManager@@V?$allocator@UExpandMedalSlot@ioExpandMedalSlotManager@@@std@@@std@@@std@@QBE_NABV01@@Z ; std::_Vector_const_iterator<std::_Vector_val<ioExpandMedalSlotManager::ExpandMedalSlot,std::allocator<ioExpandMedalSlotManager::ExpandMedalSlot> > >::operator!=
; Function compile flags: /Ogsp
;	COMDAT ??9?$_Vector_const_iterator@V?$_Vector_val@UExpandMedalSlot@ioExpandMedalSlotManager@@V?$allocator@UExpandMedalSlot@ioExpandMedalSlotManager@@@std@@@std@@@std@@QBE_NABV01@@Z
_TEXT	SEGMENT
__Right$ = 8						; size = 4
??9?$_Vector_const_iterator@V?$_Vector_val@UExpandMedalSlot@ioExpandMedalSlotManager@@V?$allocator@UExpandMedalSlot@ioExpandMedalSlotManager@@@std@@@std@@@std@@QBE_NABV01@@Z PROC ; std::_Vector_const_iterator<std::_Vector_val<ioExpandMedalSlotManager::ExpandMedalSlot,std::allocator<ioExpandMedalSlotManager::ExpandMedalSlot> > >::operator!=, COMDAT
; _this$ = ecx

; 207  : 		{	// test for iterator inequality

  00000	55		 push	 ebp
  00001	8b ec		 mov	 ebp, esp

; 208  : 		return (!(*this == _Right));

  00003	8b 01		 mov	 eax, DWORD PTR [ecx]
  00005	8b 55 08	 mov	 edx, DWORD PTR __Right$[ebp]
  00008	33 c9		 xor	 ecx, ecx
  0000a	3b 02		 cmp	 eax, DWORD PTR [edx]
  0000c	0f 95 c0	 setne	 al

; 209  : 		}

  0000f	5d		 pop	 ebp
  00010	c2 04 00	 ret	 4
??9?$_Vector_const_iterator@V?$_Vector_val@UExpandMedalSlot@ioExpandMedalSlotManager@@V?$allocator@UExpandMedalSlot@ioExpandMedalSlotManager@@@std@@@std@@@std@@QBE_NABV01@@Z ENDP ; std::_Vector_const_iterator<std::_Vector_val<ioExpandMedalSlotManager::ExpandMedalSlot,std::allocator<ioExpandMedalSlotManager::ExpandMedalSlot> > >::operator!=
_TEXT	ENDS
PUBLIC	??0?$_Vector_iterator@V?$_Vector_val@UExpandMedalSlot@ioExpandMedalSlotManager@@V?$allocator@UExpandMedalSlot@ioExpandMedalSlotManager@@@std@@@std@@@std@@QAE@PAUExpandMedalSlot@ioExpandMedalSlotManager@@PBU_Container_base0@1@@Z ; std::_Vector_iterator<std::_Vector_val<ioExpandMedalSlotManager::ExpandMedalSlot,std::allocator<ioExpandMedalSlotManager::ExpandMedalSlot> > >::_Vector_iterator<std::_Vector_val<ioExpandMedalSlotManager::ExpandMedalSlot,std::allocator<ioExpandMedalSlotManager::ExpandMedalSlot> > >
; Function compile flags: /Ogsp
;	COMDAT ??0?$_Vector_iterator@V?$_Vector_val@UExpandMedalSlot@ioExpandMedalSlotManager@@V?$allocator@UExpandMedalSlot@ioExpandMedalSlotManager@@@std@@@std@@@std@@QAE@PAUExpandMedalSlot@ioExpandMedalSlotManager@@PBU_Container_base0@1@@Z
_TEXT	SEGMENT
__Parg$ = 8						; size = 4
__Pvector$ = 12						; size = 4
??0?$_Vector_iterator@V?$_Vector_val@UExpandMedalSlot@ioExpandMedalSlotManager@@V?$allocator@UExpandMedalSlot@ioExpandMedalSlotManager@@@std@@@std@@@std@@QAE@PAUExpandMedalSlot@ioExpandMedalSlotManager@@PBU_Container_base0@1@@Z PROC ; std::_Vector_iterator<std::_Vector_val<ioExpandMedalSlotManager::ExpandMedalSlot,std::allocator<ioExpandMedalSlotManager::ExpandMedalSlot> > >::_Vector_iterator<std::_Vector_val<ioExpandMedalSlotManager::ExpandMedalSlot,std::allocator<ioExpandMedalSlotManager::ExpandMedalSlot> > >, COMDAT
; _this$ = ecx

; 304  : 		{	// construct with pointer _Parg

  00000	55		 push	 ebp
  00001	8b ec		 mov	 ebp, esp
  00003	8b c1		 mov	 eax, ecx
  00005	8b 4d 08	 mov	 ecx, DWORD PTR __Parg$[ebp]
  00008	89 08		 mov	 DWORD PTR [eax], ecx

; 305  : 		}

  0000a	5d		 pop	 ebp
  0000b	c2 08 00	 ret	 8
??0?$_Vector_iterator@V?$_Vector_val@UExpandMedalSlot@ioExpandMedalSlotManager@@V?$allocator@UExpandMedalSlot@ioExpandMedalSlotManager@@@std@@@std@@@std@@QAE@PAUExpandMedalSlot@ioExpandMedalSlotManager@@PBU_Container_base0@1@@Z ENDP ; std::_Vector_iterator<std::_Vector_val<ioExpandMedalSlotManager::ExpandMedalSlot,std::allocator<ioExpandMedalSlotManager::ExpandMedalSlot> > >::_Vector_iterator<std::_Vector_val<ioExpandMedalSlotManager::ExpandMedalSlot,std::allocator<ioExpandMedalSlotManager::ExpandMedalSlot> > >
_TEXT	ENDS
PUBLIC	??0?$_Vector_iterator@V?$_Vector_val@UReserveDeleteMedal@ioExpandMedalSlotManager@@V?$allocator@UReserveDeleteMedal@ioExpandMedalSlotManager@@@std@@@std@@@std@@QAE@PAUReserveDeleteMedal@ioExpandMedalSlotManager@@PBU_Container_base0@1@@Z ; std::_Vector_iterator<std::_Vector_val<ioExpandMedalSlotManager::ReserveDeleteMedal,std::allocator<ioExpandMedalSlotManager::ReserveDeleteMedal> > >::_Vector_iterator<std::_Vector_val<ioExpandMedalSlotManager::ReserveDeleteMedal,std::allocator<ioExpandMedalSlotManager::ReserveDeleteMedal> > >
; Function compile flags: /Ogsp
;	COMDAT ??0?$_Vector_iterator@V?$_Vector_val@UReserveDeleteMedal@ioExpandMedalSlotManager@@V?$allocator@UReserveDeleteMedal@ioExpandMedalSlotManager@@@std@@@std@@@std@@QAE@PAUReserveDeleteMedal@ioExpandMedalSlotManager@@PBU_Container_base0@1@@Z
_TEXT	SEGMENT
__Parg$ = 8						; size = 4
__Pvector$ = 12						; size = 4
??0?$_Vector_iterator@V?$_Vector_val@UReserveDeleteMedal@ioExpandMedalSlotManager@@V?$allocator@UReserveDeleteMedal@ioExpandMedalSlotManager@@@std@@@std@@@std@@QAE@PAUReserveDeleteMedal@ioExpandMedalSlotManager@@PBU_Container_base0@1@@Z PROC ; std::_Vector_iterator<std::_Vector_val<ioExpandMedalSlotManager::ReserveDeleteMedal,std::allocator<ioExpandMedalSlotManager::ReserveDeleteMedal> > >::_Vector_iterator<std::_Vector_val<ioExpandMedalSlotManager::ReserveDeleteMedal,std::allocator<ioExpandMedalSlotManager::ReserveDeleteMedal> > >, COMDAT
; _this$ = ecx

; 304  : 		{	// construct with pointer _Parg

  00000	55		 push	 ebp
  00001	8b ec		 mov	 ebp, esp
  00003	8b c1		 mov	 eax, ecx
  00005	8b 4d 08	 mov	 ecx, DWORD PTR __Parg$[ebp]
  00008	89 08		 mov	 DWORD PTR [eax], ecx

; 305  : 		}

  0000a	5d		 pop	 ebp
  0000b	c2 08 00	 ret	 8
??0?$_Vector_iterator@V?$_Vector_val@UReserveDeleteMedal@ioExpandMedalSlotManager@@V?$allocator@UReserveDeleteMedal@ioExpandMedalSlotManager@@@std@@@std@@@std@@QAE@PAUReserveDeleteMedal@ioExpandMedalSlotManager@@PBU_Container_base0@1@@Z ENDP ; std::_Vector_iterator<std::_Vector_val<ioExpandMedalSlotManager::ReserveDeleteMedal,std::allocator<ioExpandMedalSlotManager::ReserveDeleteMedal> > >::_Vector_iterator<std::_Vector_val<ioExpandMedalSlotManager::ReserveDeleteMedal,std::allocator<ioExpandMedalSlotManager::ReserveDeleteMedal> > >
_TEXT	ENDS
PUBLIC	??9?$_Vector_const_iterator@V?$_Vector_val@UReserveDeleteMedal@ioExpandMedalSlotManager@@V?$allocator@UReserveDeleteMedal@ioExpandMedalSlotManager@@@std@@@std@@@std@@QBE_NABV01@@Z ; std::_Vector_const_iterator<std::_Vector_val<ioExpandMedalSlotManager::ReserveDeleteMedal,std::allocator<ioExpandMedalSlotManager::ReserveDeleteMedal> > >::operator!=
; Function compile flags: /Ogsp
;	COMDAT ??9?$_Vector_const_iterator@V?$_Vector_val@UReserveDeleteMedal@ioExpandMedalSlotManager@@V?$allocator@UReserveDeleteMedal@ioExpandMedalSlotManager@@@std@@@std@@@std@@QBE_NABV01@@Z
_TEXT	SEGMENT
__Right$ = 8						; size = 4
??9?$_Vector_const_iterator@V?$_Vector_val@UReserveDeleteMedal@ioExpandMedalSlotManager@@V?$allocator@UReserveDeleteMedal@ioExpandMedalSlotManager@@@std@@@std@@@std@@QBE_NABV01@@Z PROC ; std::_Vector_const_iterator<std::_Vector_val<ioExpandMedalSlotManager::ReserveDeleteMedal,std::allocator<ioExpandMedalSlotManager::ReserveDeleteMedal> > >::operator!=, COMDAT
; _this$ = ecx

; 207  : 		{	// test for iterator inequality

  00000	55		 push	 ebp
  00001	8b ec		 mov	 ebp, esp

; 208  : 		return (!(*this == _Right));

  00003	8b 01		 mov	 eax, DWORD PTR [ecx]
  00005	8b 55 08	 mov	 edx, DWORD PTR __Right$[ebp]
  00008	33 c9		 xor	 ecx, ecx
  0000a	3b 02		 cmp	 eax, DWORD PTR [edx]
  0000c	0f 95 c0	 setne	 al

; 209  : 		}

  0000f	5d		 pop	 ebp
  00010	c2 04 00	 ret	 4
??9?$_Vector_const_iterator@V?$_Vector_val@UReserveDeleteMedal@ioExpandMedalSlotManager@@V?$allocator@UReserveDeleteMedal@ioExpandMedalSlotManager@@@std@@@std@@@std@@QBE_NABV01@@Z ENDP ; std::_Vector_const_iterator<std::_Vector_val<ioExpandMedalSlotManager::ReserveDeleteMedal,std::allocator<ioExpandMedalSlotManager::ReserveDeleteMedal> > >::operator!=
_TEXT	ENDS
PUBLIC	??$_Cons_val@V?$allocator@UExpandMedalSlot@ioExpandMedalSlotManager@@@std@@UExpandMedalSlot@ioExpandMedalSlotManager@@ABU34@@std@@YAXAAV?$allocator@UExpandMedalSlot@ioExpandMedalSlotManager@@@0@PAUExpandMedalSlot@ioExpandMedalSlotManager@@ABU23@@Z ; std::_Cons_val<std::allocator<ioExpandMedalSlotManager::ExpandMedalSlot>,ioExpandMedalSlotManager::ExpandMedalSlot,ioExpandMedalSlotManager::ExpandMedalSlot const &>
; Function compile flags: /Ogsp
; File c:\program files (x86)\microsoft visual studio 10.0\vc\include\xmemory
;	COMDAT ??$_Cons_val@V?$allocator@UExpandMedalSlot@ioExpandMedalSlotManager@@@std@@UExpandMedalSlot@ioExpandMedalSlotManager@@ABU34@@std@@YAXAAV?$allocator@UExpandMedalSlot@ioExpandMedalSlotManager@@@0@PAUExpandMedalSlot@ioExpandMedalSlotManager@@ABU23@@Z
_TEXT	SEGMENT
__Alval$ = 8						; size = 4
__Pdest$ = 12						; size = 4
__Src$ = 16						; size = 4
??$_Cons_val@V?$allocator@UExpandMedalSlot@ioExpandMedalSlotManager@@@std@@UExpandMedalSlot@ioExpandMedalSlotManager@@ABU34@@std@@YAXAAV?$allocator@UExpandMedalSlot@ioExpandMedalSlotManager@@@0@PAUExpandMedalSlot@ioExpandMedalSlotManager@@ABU23@@Z PROC ; std::_Cons_val<std::allocator<ioExpandMedalSlotManager::ExpandMedalSlot>,ioExpandMedalSlotManager::ExpandMedalSlot,ioExpandMedalSlotManager::ExpandMedalSlot const &>, COMDAT

; 279  : 	{	// construct using allocator

  00000	55		 push	 ebp
  00001	8b ec		 mov	 ebp, esp
  00003	57		 push	 edi

; 280  : 	_Alval.construct(_Pdest, _STD forward<_Ty2>(_Src));

  00004	8b 7d 0c	 mov	 edi, DWORD PTR __Pdest$[ebp]
  00007	85 ff		 test	 edi, edi
  00009	74 08		 je	 SHORT $LN9@Cons_val@3
  0000b	56		 push	 esi
  0000c	8b 75 10	 mov	 esi, DWORD PTR __Src$[ebp]
  0000f	a5		 movsd
  00010	a5		 movsd
  00011	a5		 movsd
  00012	5e		 pop	 esi
$LN9@Cons_val@3:
  00013	5f		 pop	 edi

; 281  : 	}

  00014	5d		 pop	 ebp
  00015	c3		 ret	 0
??$_Cons_val@V?$allocator@UExpandMedalSlot@ioExpandMedalSlotManager@@@std@@UExpandMedalSlot@ioExpandMedalSlotManager@@ABU34@@std@@YAXAAV?$allocator@UExpandMedalSlot@ioExpandMedalSlotManager@@@0@PAUExpandMedalSlot@ioExpandMedalSlotManager@@ABU23@@Z ENDP ; std::_Cons_val<std::allocator<ioExpandMedalSlotManager::ExpandMedalSlot>,ioExpandMedalSlotManager::ExpandMedalSlot,ioExpandMedalSlotManager::ExpandMedalSlot const &>
_TEXT	ENDS
PUBLIC	??$_Move@PAUExpandMedalSlot@ioExpandMedalSlotManager@@PAU12@@std@@YAPAUExpandMedalSlot@ioExpandMedalSlotManager@@PAU12@00@Z ; std::_Move<ioExpandMedalSlotManager::ExpandMedalSlot *,ioExpandMedalSlotManager::ExpandMedalSlot *>
; Function compile flags: /Ogsp
; File c:\program files (x86)\microsoft visual studio 10.0\vc\include\xutility
;	COMDAT ??$_Move@PAUExpandMedalSlot@ioExpandMedalSlotManager@@PAU12@@std@@YAPAUExpandMedalSlot@ioExpandMedalSlotManager@@PAU12@00@Z
_TEXT	SEGMENT
__Cat$507961 = -4					; size = 1
__First$ = 8						; size = 4
__Last$ = 12						; size = 4
__Dest$ = 16						; size = 4
??$_Move@PAUExpandMedalSlot@ioExpandMedalSlotManager@@PAU12@@std@@YAPAUExpandMedalSlot@ioExpandMedalSlotManager@@PAU12@00@Z PROC ; std::_Move<ioExpandMedalSlotManager::ExpandMedalSlot *,ioExpandMedalSlotManager::ExpandMedalSlot *>, COMDAT

; 2533 : 	{	// move [_First, _Last) to [_Dest, ...), unchecked

  00000	55		 push	 ebp
  00001	8b ec		 mov	 ebp, esp
  00003	51		 push	 ecx

; 2534 : 	return (_Move(_First, _Last,
; 2535 : 		_Dest, _Ptr_cat(_First, _Dest)));

  00004	ff 75 fc	 push	 DWORD PTR __Cat$507961[ebp]
  00007	ff 75 10	 push	 DWORD PTR __Dest$[ebp]
  0000a	ff 75 0c	 push	 DWORD PTR __Last$[ebp]
  0000d	ff 75 08	 push	 DWORD PTR __First$[ebp]
  00010	e8 00 00 00 00	 call	 ??$_Move@PAUExpandMedalSlot@ioExpandMedalSlotManager@@PAU12@@std@@YAPAUExpandMedalSlot@ioExpandMedalSlotManager@@PAU12@00U_Nonscalar_ptr_iterator_tag@0@@Z ; std::_Move<ioExpandMedalSlotManager::ExpandMedalSlot *,ioExpandMedalSlotManager::ExpandMedalSlot *>
  00015	83 c4 10	 add	 esp, 16			; 00000010H

; 2536 : 	}

  00018	c9		 leave
  00019	c3		 ret	 0
??$_Move@PAUExpandMedalSlot@ioExpandMedalSlotManager@@PAU12@@std@@YAPAUExpandMedalSlot@ioExpandMedalSlotManager@@PAU12@00@Z ENDP ; std::_Move<ioExpandMedalSlotManager::ExpandMedalSlot *,ioExpandMedalSlotManager::ExpandMedalSlot *>
_TEXT	ENDS
PUBLIC	??$_Cons_val@V?$allocator@UReserveDeleteMedal@ioExpandMedalSlotManager@@@std@@UReserveDeleteMedal@ioExpandMedalSlotManager@@ABU34@@std@@YAXAAV?$allocator@UReserveDeleteMedal@ioExpandMedalSlotManager@@@0@PAUReserveDeleteMedal@ioExpandMedalSlotManager@@ABU23@@Z ; std::_Cons_val<std::allocator<ioExpandMedalSlotManager::ReserveDeleteMedal>,ioExpandMedalSlotManager::ReserveDeleteMedal,ioExpandMedalSlotManager::ReserveDeleteMedal const &>
; Function compile flags: /Ogsp
; File c:\program files (x86)\microsoft visual studio 10.0\vc\include\xmemory
;	COMDAT ??$_Cons_val@V?$allocator@UReserveDeleteMedal@ioExpandMedalSlotManager@@@std@@UReserveDeleteMedal@ioExpandMedalSlotManager@@ABU34@@std@@YAXAAV?$allocator@UReserveDeleteMedal@ioExpandMedalSlotManager@@@0@PAUReserveDeleteMedal@ioExpandMedalSlotManager@@ABU23@@Z
_TEXT	SEGMENT
__Alval$ = 8						; size = 4
__Pdest$ = 12						; size = 4
__Src$ = 16						; size = 4
??$_Cons_val@V?$allocator@UReserveDeleteMedal@ioExpandMedalSlotManager@@@std@@UReserveDeleteMedal@ioExpandMedalSlotManager@@ABU34@@std@@YAXAAV?$allocator@UReserveDeleteMedal@ioExpandMedalSlotManager@@@0@PAUReserveDeleteMedal@ioExpandMedalSlotManager@@ABU23@@Z PROC ; std::_Cons_val<std::allocator<ioExpandMedalSlotManager::ReserveDeleteMedal>,ioExpandMedalSlotManager::ReserveDeleteMedal,ioExpandMedalSlotManager::ReserveDeleteMedal const &>, COMDAT

; 279  : 	{	// construct using allocator

  00000	55		 push	 ebp
  00001	8b ec		 mov	 ebp, esp
  00003	57		 push	 edi

; 280  : 	_Alval.construct(_Pdest, _STD forward<_Ty2>(_Src));

  00004	8b 7d 0c	 mov	 edi, DWORD PTR __Pdest$[ebp]
  00007	85 ff		 test	 edi, edi
  00009	74 08		 je	 SHORT $LN9@Cons_val@4
  0000b	56		 push	 esi
  0000c	8b 75 10	 mov	 esi, DWORD PTR __Src$[ebp]
  0000f	a5		 movsd
  00010	a5		 movsd
  00011	a5		 movsd
  00012	5e		 pop	 esi
$LN9@Cons_val@4:
  00013	5f		 pop	 edi

; 281  : 	}

  00014	5d		 pop	 ebp
  00015	c3		 ret	 0
??$_Cons_val@V?$allocator@UReserveDeleteMedal@ioExpandMedalSlotManager@@@std@@UReserveDeleteMedal@ioExpandMedalSlotManager@@ABU34@@std@@YAXAAV?$allocator@UReserveDeleteMedal@ioExpandMedalSlotManager@@@0@PAUReserveDeleteMedal@ioExpandMedalSlotManager@@ABU23@@Z ENDP ; std::_Cons_val<std::allocator<ioExpandMedalSlotManager::ReserveDeleteMedal>,ioExpandMedalSlotManager::ReserveDeleteMedal,ioExpandMedalSlotManager::ReserveDeleteMedal const &>
_TEXT	ENDS
PUBLIC	??$_Move@PAUReserveDeleteMedal@ioExpandMedalSlotManager@@PAU12@@std@@YAPAUReserveDeleteMedal@ioExpandMedalSlotManager@@PAU12@00@Z ; std::_Move<ioExpandMedalSlotManager::ReserveDeleteMedal *,ioExpandMedalSlotManager::ReserveDeleteMedal *>
; Function compile flags: /Ogsp
; File c:\program files (x86)\microsoft visual studio 10.0\vc\include\xutility
;	COMDAT ??$_Move@PAUReserveDeleteMedal@ioExpandMedalSlotManager@@PAU12@@std@@YAPAUReserveDeleteMedal@ioExpandMedalSlotManager@@PAU12@00@Z
_TEXT	SEGMENT
__Cat$508009 = -4					; size = 1
__First$ = 8						; size = 4
__Last$ = 12						; size = 4
__Dest$ = 16						; size = 4
??$_Move@PAUReserveDeleteMedal@ioExpandMedalSlotManager@@PAU12@@std@@YAPAUReserveDeleteMedal@ioExpandMedalSlotManager@@PAU12@00@Z PROC ; std::_Move<ioExpandMedalSlotManager::ReserveDeleteMedal *,ioExpandMedalSlotManager::ReserveDeleteMedal *>, COMDAT

; 2533 : 	{	// move [_First, _Last) to [_Dest, ...), unchecked

  00000	55		 push	 ebp
  00001	8b ec		 mov	 ebp, esp
  00003	51		 push	 ecx

; 2534 : 	return (_Move(_First, _Last,
; 2535 : 		_Dest, _Ptr_cat(_First, _Dest)));

  00004	ff 75 fc	 push	 DWORD PTR __Cat$508009[ebp]
  00007	ff 75 10	 push	 DWORD PTR __Dest$[ebp]
  0000a	ff 75 0c	 push	 DWORD PTR __Last$[ebp]
  0000d	ff 75 08	 push	 DWORD PTR __First$[ebp]
  00010	e8 00 00 00 00	 call	 ??$_Move@PAUReserveDeleteMedal@ioExpandMedalSlotManager@@PAU12@@std@@YAPAUReserveDeleteMedal@ioExpandMedalSlotManager@@PAU12@00U_Nonscalar_ptr_iterator_tag@0@@Z ; std::_Move<ioExpandMedalSlotManager::ReserveDeleteMedal *,ioExpandMedalSlotManager::ReserveDeleteMedal *>
  00015	83 c4 10	 add	 esp, 16			; 00000010H

; 2536 : 	}

  00018	c9		 leave
  00019	c3		 ret	 0
??$_Move@PAUReserveDeleteMedal@ioExpandMedalSlotManager@@PAU12@@std@@YAPAUReserveDeleteMedal@ioExpandMedalSlotManager@@PAU12@00@Z ENDP ; std::_Move<ioExpandMedalSlotManager::ReserveDeleteMedal *,ioExpandMedalSlotManager::ReserveDeleteMedal *>
_TEXT	ENDS
PUBLIC	??$_Dest_val@V?$allocator@UExpandMedalSlot@ioExpandMedalSlotManager@@@std@@UExpandMedalSlot@ioExpandMedalSlotManager@@@std@@YAXAAV?$allocator@UExpandMedalSlot@ioExpandMedalSlotManager@@@0@PAUExpandMedalSlot@ioExpandMedalSlotManager@@@Z ; std::_Dest_val<std::allocator<ioExpandMedalSlotManager::ExpandMedalSlot>,ioExpandMedalSlotManager::ExpandMedalSlot>
; Function compile flags: /Ogsp
; File c:\program files (x86)\microsoft visual studio 10.0\vc\include\xmemory
;	COMDAT ??$_Dest_val@V?$allocator@UExpandMedalSlot@ioExpandMedalSlotManager@@@std@@UExpandMedalSlot@ioExpandMedalSlotManager@@@std@@YAXAAV?$allocator@UExpandMedalSlot@ioExpandMedalSlotManager@@@0@PAUExpandMedalSlot@ioExpandMedalSlotManager@@@Z
_TEXT	SEGMENT
__Alval$ = 8						; size = 4
__Pdest$ = 12						; size = 4
??$_Dest_val@V?$allocator@UExpandMedalSlot@ioExpandMedalSlotManager@@@std@@UExpandMedalSlot@ioExpandMedalSlotManager@@@std@@YAXAAV?$allocator@UExpandMedalSlot@ioExpandMedalSlotManager@@@0@PAUExpandMedalSlot@ioExpandMedalSlotManager@@@Z PROC ; std::_Dest_val<std::allocator<ioExpandMedalSlotManager::ExpandMedalSlot>,ioExpandMedalSlotManager::ExpandMedalSlot>, COMDAT

; 287  : 	_Alval.destroy(_Pdest);
; 288  : 	}

  00000	c3		 ret	 0
??$_Dest_val@V?$allocator@UExpandMedalSlot@ioExpandMedalSlotManager@@@std@@UExpandMedalSlot@ioExpandMedalSlotManager@@@std@@YAXAAV?$allocator@UExpandMedalSlot@ioExpandMedalSlotManager@@@0@PAUExpandMedalSlot@ioExpandMedalSlotManager@@@Z ENDP ; std::_Dest_val<std::allocator<ioExpandMedalSlotManager::ExpandMedalSlot>,ioExpandMedalSlotManager::ExpandMedalSlot>
_TEXT	ENDS
PUBLIC	??$_Dest_val@V?$allocator@UReserveDeleteMedal@ioExpandMedalSlotManager@@@std@@UReserveDeleteMedal@ioExpandMedalSlotManager@@@std@@YAXAAV?$allocator@UReserveDeleteMedal@ioExpandMedalSlotManager@@@0@PAUReserveDeleteMedal@ioExpandMedalSlotManager@@@Z ; std::_Dest_val<std::allocator<ioExpandMedalSlotManager::ReserveDeleteMedal>,ioExpandMedalSlotManager::ReserveDeleteMedal>
; Function compile flags: /Ogsp
;	COMDAT ??$_Dest_val@V?$allocator@UReserveDeleteMedal@ioExpandMedalSlotManager@@@std@@UReserveDeleteMedal@ioExpandMedalSlotManager@@@std@@YAXAAV?$allocator@UReserveDeleteMedal@ioExpandMedalSlotManager@@@0@PAUReserveDeleteMedal@ioExpandMedalSlotManager@@@Z
_TEXT	SEGMENT
__Alval$ = 8						; size = 4
__Pdest$ = 12						; size = 4
??$_Dest_val@V?$allocator@UReserveDeleteMedal@ioExpandMedalSlotManager@@@std@@UReserveDeleteMedal@ioExpandMedalSlotManager@@@std@@YAXAAV?$allocator@UReserveDeleteMedal@ioExpandMedalSlotManager@@@0@PAUReserveDeleteMedal@ioExpandMedalSlotManager@@@Z PROC ; std::_Dest_val<std::allocator<ioExpandMedalSlotManager::ReserveDeleteMedal>,ioExpandMedalSlotManager::ReserveDeleteMedal>, COMDAT

; 287  : 	_Alval.destroy(_Pdest);
; 288  : 	}

  00000	c3		 ret	 0
??$_Dest_val@V?$allocator@UReserveDeleteMedal@ioExpandMedalSlotManager@@@std@@UReserveDeleteMedal@ioExpandMedalSlotManager@@@std@@YAXAAV?$allocator@UReserveDeleteMedal@ioExpandMedalSlotManager@@@0@PAUReserveDeleteMedal@ioExpandMedalSlotManager@@@Z ENDP ; std::_Dest_val<std::allocator<ioExpandMedalSlotManager::ReserveDeleteMedal>,ioExpandMedalSlotManager::ReserveDeleteMedal>
_TEXT	ENDS
PUBLIC	??$_Cons_val@V?$allocator@UExpandMedalSlot@ioExpandMedalSlotManager@@@std@@UExpandMedalSlot@ioExpandMedalSlotManager@@U34@@std@@YAXAAV?$allocator@UExpandMedalSlot@ioExpandMedalSlotManager@@@0@PAUExpandMedalSlot@ioExpandMedalSlotManager@@$$QAU23@@Z ; std::_Cons_val<std::allocator<ioExpandMedalSlotManager::ExpandMedalSlot>,ioExpandMedalSlotManager::ExpandMedalSlot,ioExpandMedalSlotManager::ExpandMedalSlot>
; Function compile flags: /Ogsp
;	COMDAT ??$_Cons_val@V?$allocator@UExpandMedalSlot@ioExpandMedalSlotManager@@@std@@UExpandMedalSlot@ioExpandMedalSlotManager@@U34@@std@@YAXAAV?$allocator@UExpandMedalSlot@ioExpandMedalSlotManager@@@0@PAUExpandMedalSlot@ioExpandMedalSlotManager@@$$QAU23@@Z
_TEXT	SEGMENT
__Alval$ = 8						; size = 4
__Pdest$ = 12						; size = 4
__Src$ = 16						; size = 4
??$_Cons_val@V?$allocator@UExpandMedalSlot@ioExpandMedalSlotManager@@@std@@UExpandMedalSlot@ioExpandMedalSlotManager@@U34@@std@@YAXAAV?$allocator@UExpandMedalSlot@ioExpandMedalSlotManager@@@0@PAUExpandMedalSlot@ioExpandMedalSlotManager@@$$QAU23@@Z PROC ; std::_Cons_val<std::allocator<ioExpandMedalSlotManager::ExpandMedalSlot>,ioExpandMedalSlotManager::ExpandMedalSlot,ioExpandMedalSlotManager::ExpandMedalSlot>, COMDAT

; 279  : 	{	// construct using allocator

  00000	55		 push	 ebp
  00001	8b ec		 mov	 ebp, esp
  00003	57		 push	 edi

; 280  : 	_Alval.construct(_Pdest, _STD forward<_Ty2>(_Src));

  00004	8b 7d 0c	 mov	 edi, DWORD PTR __Pdest$[ebp]
  00007	85 ff		 test	 edi, edi
  00009	74 08		 je	 SHORT $LN7@Cons_val@5
  0000b	56		 push	 esi
  0000c	8b 75 10	 mov	 esi, DWORD PTR __Src$[ebp]
  0000f	a5		 movsd
  00010	a5		 movsd
  00011	a5		 movsd
  00012	5e		 pop	 esi
$LN7@Cons_val@5:
  00013	5f		 pop	 edi

; 281  : 	}

  00014	5d		 pop	 ebp
  00015	c3		 ret	 0
??$_Cons_val@V?$allocator@UExpandMedalSlot@ioExpandMedalSlotManager@@@std@@UExpandMedalSlot@ioExpandMedalSlotManager@@U34@@std@@YAXAAV?$allocator@UExpandMedalSlot@ioExpandMedalSlotManager@@@0@PAUExpandMedalSlot@ioExpandMedalSlotManager@@$$QAU23@@Z ENDP ; std::_Cons_val<std::allocator<ioExpandMedalSlotManager::ExpandMedalSlot>,ioExpandMedalSlotManager::ExpandMedalSlot,ioExpandMedalSlotManager::ExpandMedalSlot>
_TEXT	ENDS
PUBLIC	??$_Cons_val@V?$allocator@UReserveDeleteMedal@ioExpandMedalSlotManager@@@std@@UReserveDeleteMedal@ioExpandMedalSlotManager@@U34@@std@@YAXAAV?$allocator@UReserveDeleteMedal@ioExpandMedalSlotManager@@@0@PAUReserveDeleteMedal@ioExpandMedalSlotManager@@$$QAU23@@Z ; std::_Cons_val<std::allocator<ioExpandMedalSlotManager::ReserveDeleteMedal>,ioExpandMedalSlotManager::ReserveDeleteMedal,ioExpandMedalSlotManager::ReserveDeleteMedal>
; Function compile flags: /Ogsp
;	COMDAT ??$_Cons_val@V?$allocator@UReserveDeleteMedal@ioExpandMedalSlotManager@@@std@@UReserveDeleteMedal@ioExpandMedalSlotManager@@U34@@std@@YAXAAV?$allocator@UReserveDeleteMedal@ioExpandMedalSlotManager@@@0@PAUReserveDeleteMedal@ioExpandMedalSlotManager@@$$QAU23@@Z
_TEXT	SEGMENT
__Alval$ = 8						; size = 4
__Pdest$ = 12						; size = 4
__Src$ = 16						; size = 4
??$_Cons_val@V?$allocator@UReserveDeleteMedal@ioExpandMedalSlotManager@@@std@@UReserveDeleteMedal@ioExpandMedalSlotManager@@U34@@std@@YAXAAV?$allocator@UReserveDeleteMedal@ioExpandMedalSlotManager@@@0@PAUReserveDeleteMedal@ioExpandMedalSlotManager@@$$QAU23@@Z PROC ; std::_Cons_val<std::allocator<ioExpandMedalSlotManager::ReserveDeleteMedal>,ioExpandMedalSlotManager::ReserveDeleteMedal,ioExpandMedalSlotManager::ReserveDeleteMedal>, COMDAT

; 279  : 	{	// construct using allocator

  00000	55		 push	 ebp
  00001	8b ec		 mov	 ebp, esp
  00003	57		 push	 edi

; 280  : 	_Alval.construct(_Pdest, _STD forward<_Ty2>(_Src));

  00004	8b 7d 0c	 mov	 edi, DWORD PTR __Pdest$[ebp]
  00007	85 ff		 test	 edi, edi
  00009	74 08		 je	 SHORT $LN7@Cons_val@6
  0000b	56		 push	 esi
  0000c	8b 75 10	 mov	 esi, DWORD PTR __Src$[ebp]
  0000f	a5		 movsd
  00010	a5		 movsd
  00011	a5		 movsd
  00012	5e		 pop	 esi
$LN7@Cons_val@6:
  00013	5f		 pop	 edi

; 281  : 	}

  00014	5d		 pop	 ebp
  00015	c3		 ret	 0
??$_Cons_val@V?$allocator@UReserveDeleteMedal@ioExpandMedalSlotManager@@@std@@UReserveDeleteMedal@ioExpandMedalSlotManager@@U34@@std@@YAXAAV?$allocator@UReserveDeleteMedal@ioExpandMedalSlotManager@@@0@PAUReserveDeleteMedal@ioExpandMedalSlotManager@@$$QAU23@@Z ENDP ; std::_Cons_val<std::allocator<ioExpandMedalSlotManager::ReserveDeleteMedal>,ioExpandMedalSlotManager::ReserveDeleteMedal,ioExpandMedalSlotManager::ReserveDeleteMedal>
_TEXT	ENDS
PUBLIC	?GetLimitTime@ioEtcItemExpandMedalSlot@@QBE?BKXZ ; ioEtcItemExpandMedalSlot::GetLimitTime
; Function compile flags: /Ogsp
; File d:\lost saga for developer\youtube\tutorial\source\src\lsclient\ioetcitem.h
;	COMDAT ?GetLimitTime@ioEtcItemExpandMedalSlot@@QBE?BKXZ
_TEXT	SEGMENT
_value$508089 = -4					; size = 4
?GetLimitTime@ioEtcItemExpandMedalSlot@@QBE?BKXZ PROC	; ioEtcItemExpandMedalSlot::GetLimitTime, COMDAT
; _this$ = ecx

; 1616 : 	inline const DWORD GetLimitTime() const { return m_dwLimitTime; }

  00000	55		 push	 ebp
  00001	8b ec		 mov	 ebp, esp
  00003	51		 push	 ecx
  00004	8d 45 fc	 lea	 eax, DWORD PTR _value$508089[ebp]
  00007	50		 push	 eax
  00008	81 c1 b8 01 00
	00		 add	 ecx, 440		; 000001b8H
  0000e	e8 00 00 00 00	 call	 ?DecryptValueToPool@?$CEncrypt@K@@QAEXPAK@Z ; CEncrypt<unsigned long>::DecryptValueToPool
  00013	8b 45 fc	 mov	 eax, DWORD PTR _value$508089[ebp]
  00016	c9		 leave
  00017	c3		 ret	 0
?GetLimitTime@ioEtcItemExpandMedalSlot@@QBE?BKXZ ENDP	; ioEtcItemExpandMedalSlot::GetLimitTime
_TEXT	ENDS
PUBLIC	??0?$vector@HV?$allocator@H@std@@@std@@QAE@XZ	; std::vector<int,std::allocator<int> >::vector<int,std::allocator<int> >
; Function compile flags: /Ogsp
; File c:\program files (x86)\microsoft visual studio 10.0\vc\include\vector
;	COMDAT ??0?$vector@HV?$allocator@H@std@@@std@@QAE@XZ
_TEXT	SEGMENT
??0?$vector@HV?$allocator@H@std@@@std@@QAE@XZ PROC	; std::vector<int,std::allocator<int> >::vector<int,std::allocator<int> >, COMDAT
; _this$ = ecx

; 507  : 		{	// construct empty vector

  00000	8b c1		 mov	 eax, ecx
  00002	33 c9		 xor	 ecx, ecx
  00004	89 08		 mov	 DWORD PTR [eax], ecx
  00006	89 48 04	 mov	 DWORD PTR [eax+4], ecx
  00009	89 48 08	 mov	 DWORD PTR [eax+8], ecx

; 508  : 		}

  0000c	c3		 ret	 0
??0?$vector@HV?$allocator@H@std@@@std@@QAE@XZ ENDP	; std::vector<int,std::allocator<int> >::vector<int,std::allocator<int> >
_TEXT	ENDS
PUBLIC	?_Destroy@?$vector@HV?$allocator@H@std@@@std@@IAEXPAH0@Z ; std::vector<int,std::allocator<int> >::_Destroy
; Function compile flags: /Ogsp
;	COMDAT ?_Destroy@?$vector@HV?$allocator@H@std@@@std@@IAEXPAH0@Z
_TEXT	SEGMENT
__First$ = 8						; size = 4
__Last$ = 12						; size = 4
?_Destroy@?$vector@HV?$allocator@H@std@@@std@@IAEXPAH0@Z PROC ; std::vector<int,std::allocator<int> >::_Destroy, COMDAT
; _this$ = ecx

; 1270 : 		_Destroy_range(_First, _Last, this->_Alval);
; 1271 : 		}

  00000	c2 08 00	 ret	 8
?_Destroy@?$vector@HV?$allocator@H@std@@@std@@IAEXPAH0@Z ENDP ; std::vector<int,std::allocator<int> >::_Destroy
_TEXT	ENDS
PUBLIC	?begin@?$vector@UExpandMedalSlot@ioExpandMedalSlotManager@@V?$allocator@UExpandMedalSlot@ioExpandMedalSlotManager@@@std@@@std@@QAE?AV?$_Vector_iterator@V?$_Vector_val@UExpandMedalSlot@ioExpandMedalSlotManager@@V?$allocator@UExpandMedalSlot@ioExpandMedalSlotManager@@@std@@@std@@@2@XZ ; std::vector<ioExpandMedalSlotManager::ExpandMedalSlot,std::allocator<ioExpandMedalSlotManager::ExpandMedalSlot> >::begin
; Function compile flags: /Ogsp
;	COMDAT ?begin@?$vector@UExpandMedalSlot@ioExpandMedalSlotManager@@V?$allocator@UExpandMedalSlot@ioExpandMedalSlotManager@@@std@@@std@@QAE?AV?$_Vector_iterator@V?$_Vector_val@UExpandMedalSlot@ioExpandMedalSlotManager@@V?$allocator@UExpandMedalSlot@ioExpandMedalSlotManager@@@std@@@std@@@2@XZ
_TEXT	SEGMENT
___$ReturnUdt$ = 8					; size = 4
?begin@?$vector@UExpandMedalSlot@ioExpandMedalSlotManager@@V?$allocator@UExpandMedalSlot@ioExpandMedalSlotManager@@@std@@@std@@QAE?AV?$_Vector_iterator@V?$_Vector_val@UExpandMedalSlot@ioExpandMedalSlotManager@@V?$allocator@UExpandMedalSlot@ioExpandMedalSlotManager@@@std@@@std@@@2@XZ PROC ; std::vector<ioExpandMedalSlotManager::ExpandMedalSlot,std::allocator<ioExpandMedalSlotManager::ExpandMedalSlot> >::begin, COMDAT
; _this$ = ecx

; 781  : 		{	// return iterator for beginning of mutable sequence

  00000	55		 push	 ebp
  00001	8b ec		 mov	 ebp, esp

; 782  : 		return (iterator(this->_Myfirst, this));

  00003	8b 09		 mov	 ecx, DWORD PTR [ecx]
  00005	8b 45 08	 mov	 eax, DWORD PTR ___$ReturnUdt$[ebp]
  00008	89 08		 mov	 DWORD PTR [eax], ecx

; 783  : 		}

  0000a	5d		 pop	 ebp
  0000b	c2 04 00	 ret	 4
?begin@?$vector@UExpandMedalSlot@ioExpandMedalSlotManager@@V?$allocator@UExpandMedalSlot@ioExpandMedalSlotManager@@@std@@@std@@QAE?AV?$_Vector_iterator@V?$_Vector_val@UExpandMedalSlot@ioExpandMedalSlotManager@@V?$allocator@UExpandMedalSlot@ioExpandMedalSlotManager@@@std@@@std@@@2@XZ ENDP ; std::vector<ioExpandMedalSlotManager::ExpandMedalSlot,std::allocator<ioExpandMedalSlotManager::ExpandMedalSlot> >::begin
_TEXT	ENDS
PUBLIC	?end@?$vector@UExpandMedalSlot@ioExpandMedalSlotManager@@V?$allocator@UExpandMedalSlot@ioExpandMedalSlotManager@@@std@@@std@@QAE?AV?$_Vector_iterator@V?$_Vector_val@UExpandMedalSlot@ioExpandMedalSlotManager@@V?$allocator@UExpandMedalSlot@ioExpandMedalSlotManager@@@std@@@std@@@2@XZ ; std::vector<ioExpandMedalSlotManager::ExpandMedalSlot,std::allocator<ioExpandMedalSlotManager::ExpandMedalSlot> >::end
; Function compile flags: /Ogsp
;	COMDAT ?end@?$vector@UExpandMedalSlot@ioExpandMedalSlotManager@@V?$allocator@UExpandMedalSlot@ioExpandMedalSlotManager@@@std@@@std@@QAE?AV?$_Vector_iterator@V?$_Vector_val@UExpandMedalSlot@ioExpandMedalSlotManager@@V?$allocator@UExpandMedalSlot@ioExpandMedalSlotManager@@@std@@@std@@@2@XZ
_TEXT	SEGMENT
___$ReturnUdt$ = 8					; size = 4
?end@?$vector@UExpandMedalSlot@ioExpandMedalSlotManager@@V?$allocator@UExpandMedalSlot@ioExpandMedalSlotManager@@@std@@@std@@QAE?AV?$_Vector_iterator@V?$_Vector_val@UExpandMedalSlot@ioExpandMedalSlotManager@@V?$allocator@UExpandMedalSlot@ioExpandMedalSlotManager@@@std@@@std@@@2@XZ PROC ; std::vector<ioExpandMedalSlotManager::ExpandMedalSlot,std::allocator<ioExpandMedalSlotManager::ExpandMedalSlot> >::end, COMDAT
; _this$ = ecx

; 791  : 		{	// return iterator for end of mutable sequence

  00000	55		 push	 ebp
  00001	8b ec		 mov	 ebp, esp

; 792  : 		return (iterator(this->_Mylast, this));

  00003	8b 49 04	 mov	 ecx, DWORD PTR [ecx+4]
  00006	8b 45 08	 mov	 eax, DWORD PTR ___$ReturnUdt$[ebp]
  00009	89 08		 mov	 DWORD PTR [eax], ecx

; 793  : 		}

  0000b	5d		 pop	 ebp
  0000c	c2 04 00	 ret	 4
?end@?$vector@UExpandMedalSlot@ioExpandMedalSlotManager@@V?$allocator@UExpandMedalSlot@ioExpandMedalSlotManager@@@std@@@std@@QAE?AV?$_Vector_iterator@V?$_Vector_val@UExpandMedalSlot@ioExpandMedalSlotManager@@V?$allocator@UExpandMedalSlot@ioExpandMedalSlotManager@@@std@@@std@@@2@XZ ENDP ; std::vector<ioExpandMedalSlotManager::ExpandMedalSlot,std::allocator<ioExpandMedalSlotManager::ExpandMedalSlot> >::end
_TEXT	ENDS
PUBLIC	?_Make_iter@?$vector@UExpandMedalSlot@ioExpandMedalSlotManager@@V?$allocator@UExpandMedalSlot@ioExpandMedalSlotManager@@@std@@@std@@QBE?AV?$_Vector_iterator@V?$_Vector_val@UExpandMedalSlot@ioExpandMedalSlotManager@@V?$allocator@UExpandMedalSlot@ioExpandMedalSlotManager@@@std@@@std@@@2@V?$_Vector_const_iterator@V?$_Vector_val@UExpandMedalSlot@ioExpandMedalSlotManager@@V?$allocator@UExpandMedalSlot@ioExpandMedalSlotManager@@@std@@@std@@@2@@Z ; std::vector<ioExpandMedalSlotManager::ExpandMedalSlot,std::allocator<ioExpandMedalSlotManager::ExpandMedalSlot> >::_Make_iter
; Function compile flags: /Ogsp
;	COMDAT ?_Make_iter@?$vector@UExpandMedalSlot@ioExpandMedalSlotManager@@V?$allocator@UExpandMedalSlot@ioExpandMedalSlotManager@@@std@@@std@@QBE?AV?$_Vector_iterator@V?$_Vector_val@UExpandMedalSlot@ioExpandMedalSlotManager@@V?$allocator@UExpandMedalSlot@ioExpandMedalSlotManager@@@std@@@std@@@2@V?$_Vector_const_iterator@V?$_Vector_val@UExpandMedalSlot@ioExpandMedalSlotManager@@V?$allocator@UExpandMedalSlot@ioExpandMedalSlotManager@@@std@@@std@@@2@@Z
_TEXT	SEGMENT
___$ReturnUdt$ = 8					; size = 4
__Where$ = 12						; size = 4
?_Make_iter@?$vector@UExpandMedalSlot@ioExpandMedalSlotManager@@V?$allocator@UExpandMedalSlot@ioExpandMedalSlotManager@@@std@@@std@@QBE?AV?$_Vector_iterator@V?$_Vector_val@UExpandMedalSlot@ioExpandMedalSlotManager@@V?$allocator@UExpandMedalSlot@ioExpandMedalSlotManager@@@std@@@std@@@2@V?$_Vector_const_iterator@V?$_Vector_val@UExpandMedalSlot@ioExpandMedalSlotManager@@V?$allocator@UExpandMedalSlot@ioExpandMedalSlotManager@@@std@@@std@@@2@@Z PROC ; std::vector<ioExpandMedalSlotManager::ExpandMedalSlot,std::allocator<ioExpandMedalSlotManager::ExpandMedalSlot> >::_Make_iter, COMDAT
; _this$ = ecx

; 801  : 		{	// make iterator from const_iterator

  00000	55		 push	 ebp
  00001	8b ec		 mov	 ebp, esp

; 802  : 		return (iterator(_Where._Ptr, this));

  00003	8b 45 08	 mov	 eax, DWORD PTR ___$ReturnUdt$[ebp]
  00006	8b 4d 0c	 mov	 ecx, DWORD PTR __Where$[ebp]
  00009	89 08		 mov	 DWORD PTR [eax], ecx

; 803  : 		}

  0000b	5d		 pop	 ebp
  0000c	c2 08 00	 ret	 8
?_Make_iter@?$vector@UExpandMedalSlot@ioExpandMedalSlotManager@@V?$allocator@UExpandMedalSlot@ioExpandMedalSlotManager@@@std@@@std@@QBE?AV?$_Vector_iterator@V?$_Vector_val@UExpandMedalSlot@ioExpandMedalSlotManager@@V?$allocator@UExpandMedalSlot@ioExpandMedalSlotManager@@@std@@@std@@@2@V?$_Vector_const_iterator@V?$_Vector_val@UExpandMedalSlot@ioExpandMedalSlotManager@@V?$allocator@UExpandMedalSlot@ioExpandMedalSlotManager@@@std@@@std@@@2@@Z ENDP ; std::vector<ioExpandMedalSlotManager::ExpandMedalSlot,std::allocator<ioExpandMedalSlotManager::ExpandMedalSlot> >::_Make_iter
_TEXT	ENDS
PUBLIC	?begin@?$vector@UReserveDeleteMedal@ioExpandMedalSlotManager@@V?$allocator@UReserveDeleteMedal@ioExpandMedalSlotManager@@@std@@@std@@QAE?AV?$_Vector_iterator@V?$_Vector_val@UReserveDeleteMedal@ioExpandMedalSlotManager@@V?$allocator@UReserveDeleteMedal@ioExpandMedalSlotManager@@@std@@@std@@@2@XZ ; std::vector<ioExpandMedalSlotManager::ReserveDeleteMedal,std::allocator<ioExpandMedalSlotManager::ReserveDeleteMedal> >::begin
; Function compile flags: /Ogsp
;	COMDAT ?begin@?$vector@UReserveDeleteMedal@ioExpandMedalSlotManager@@V?$allocator@UReserveDeleteMedal@ioExpandMedalSlotManager@@@std@@@std@@QAE?AV?$_Vector_iterator@V?$_Vector_val@UReserveDeleteMedal@ioExpandMedalSlotManager@@V?$allocator@UReserveDeleteMedal@ioExpandMedalSlotManager@@@std@@@std@@@2@XZ
_TEXT	SEGMENT
___$ReturnUdt$ = 8					; size = 4
?begin@?$vector@UReserveDeleteMedal@ioExpandMedalSlotManager@@V?$allocator@UReserveDeleteMedal@ioExpandMedalSlotManager@@@std@@@std@@QAE?AV?$_Vector_iterator@V?$_Vector_val@UReserveDeleteMedal@ioExpandMedalSlotManager@@V?$allocator@UReserveDeleteMedal@ioExpandMedalSlotManager@@@std@@@std@@@2@XZ PROC ; std::vector<ioExpandMedalSlotManager::ReserveDeleteMedal,std::allocator<ioExpandMedalSlotManager::ReserveDeleteMedal> >::begin, COMDAT
; _this$ = ecx

; 781  : 		{	// return iterator for beginning of mutable sequence

  00000	55		 push	 ebp
  00001	8b ec		 mov	 ebp, esp

; 782  : 		return (iterator(this->_Myfirst, this));

  00003	8b 09		 mov	 ecx, DWORD PTR [ecx]
  00005	8b 45 08	 mov	 eax, DWORD PTR ___$ReturnUdt$[ebp]
  00008	89 08		 mov	 DWORD PTR [eax], ecx

; 783  : 		}

  0000a	5d		 pop	 ebp
  0000b	c2 04 00	 ret	 4
?begin@?$vector@UReserveDeleteMedal@ioExpandMedalSlotManager@@V?$allocator@UReserveDeleteMedal@ioExpandMedalSlotManager@@@std@@@std@@QAE?AV?$_Vector_iterator@V?$_Vector_val@UReserveDeleteMedal@ioExpandMedalSlotManager@@V?$allocator@UReserveDeleteMedal@ioExpandMedalSlotManager@@@std@@@std@@@2@XZ ENDP ; std::vector<ioExpandMedalSlotManager::ReserveDeleteMedal,std::allocator<ioExpandMedalSlotManager::ReserveDeleteMedal> >::begin
_TEXT	ENDS
PUBLIC	?end@?$vector@UReserveDeleteMedal@ioExpandMedalSlotManager@@V?$allocator@UReserveDeleteMedal@ioExpandMedalSlotManager@@@std@@@std@@QAE?AV?$_Vector_iterator@V?$_Vector_val@UReserveDeleteMedal@ioExpandMedalSlotManager@@V?$allocator@UReserveDeleteMedal@ioExpandMedalSlotManager@@@std@@@std@@@2@XZ ; std::vector<ioExpandMedalSlotManager::ReserveDeleteMedal,std::allocator<ioExpandMedalSlotManager::ReserveDeleteMedal> >::end
; Function compile flags: /Ogsp
;	COMDAT ?end@?$vector@UReserveDeleteMedal@ioExpandMedalSlotManager@@V?$allocator@UReserveDeleteMedal@ioExpandMedalSlotManager@@@std@@@std@@QAE?AV?$_Vector_iterator@V?$_Vector_val@UReserveDeleteMedal@ioExpandMedalSlotManager@@V?$allocator@UReserveDeleteMedal@ioExpandMedalSlotManager@@@std@@@std@@@2@XZ
_TEXT	SEGMENT
___$ReturnUdt$ = 8					; size = 4
?end@?$vector@UReserveDeleteMedal@ioExpandMedalSlotManager@@V?$allocator@UReserveDeleteMedal@ioExpandMedalSlotManager@@@std@@@std@@QAE?AV?$_Vector_iterator@V?$_Vector_val@UReserveDeleteMedal@ioExpandMedalSlotManager@@V?$allocator@UReserveDeleteMedal@ioExpandMedalSlotManager@@@std@@@std@@@2@XZ PROC ; std::vector<ioExpandMedalSlotManager::ReserveDeleteMedal,std::allocator<ioExpandMedalSlotManager::ReserveDeleteMedal> >::end, COMDAT
; _this$ = ecx

; 791  : 		{	// return iterator for end of mutable sequence

  00000	55		 push	 ebp
  00001	8b ec		 mov	 ebp, esp

; 792  : 		return (iterator(this->_Mylast, this));

  00003	8b 49 04	 mov	 ecx, DWORD PTR [ecx+4]
  00006	8b 45 08	 mov	 eax, DWORD PTR ___$ReturnUdt$[ebp]
  00009	89 08		 mov	 DWORD PTR [eax], ecx

; 793  : 		}

  0000b	5d		 pop	 ebp
  0000c	c2 04 00	 ret	 4
?end@?$vector@UReserveDeleteMedal@ioExpandMedalSlotManager@@V?$allocator@UReserveDeleteMedal@ioExpandMedalSlotManager@@@std@@@std@@QAE?AV?$_Vector_iterator@V?$_Vector_val@UReserveDeleteMedal@ioExpandMedalSlotManager@@V?$allocator@UReserveDeleteMedal@ioExpandMedalSlotManager@@@std@@@std@@@2@XZ ENDP ; std::vector<ioExpandMedalSlotManager::ReserveDeleteMedal,std::allocator<ioExpandMedalSlotManager::ReserveDeleteMedal> >::end
_TEXT	ENDS
PUBLIC	?_Make_iter@?$vector@UReserveDeleteMedal@ioExpandMedalSlotManager@@V?$allocator@UReserveDeleteMedal@ioExpandMedalSlotManager@@@std@@@std@@QBE?AV?$_Vector_iterator@V?$_Vector_val@UReserveDeleteMedal@ioExpandMedalSlotManager@@V?$allocator@UReserveDeleteMedal@ioExpandMedalSlotManager@@@std@@@std@@@2@V?$_Vector_const_iterator@V?$_Vector_val@UReserveDeleteMedal@ioExpandMedalSlotManager@@V?$allocator@UReserveDeleteMedal@ioExpandMedalSlotManager@@@std@@@std@@@2@@Z ; std::vector<ioExpandMedalSlotManager::ReserveDeleteMedal,std::allocator<ioExpandMedalSlotManager::ReserveDeleteMedal> >::_Make_iter
; Function compile flags: /Ogsp
;	COMDAT ?_Make_iter@?$vector@UReserveDeleteMedal@ioExpandMedalSlotManager@@V?$allocator@UReserveDeleteMedal@ioExpandMedalSlotManager@@@std@@@std@@QBE?AV?$_Vector_iterator@V?$_Vector_val@UReserveDeleteMedal@ioExpandMedalSlotManager@@V?$allocator@UReserveDeleteMedal@ioExpandMedalSlotManager@@@std@@@std@@@2@V?$_Vector_const_iterator@V?$_Vector_val@UReserveDeleteMedal@ioExpandMedalSlotManager@@V?$allocator@UReserveDeleteMedal@ioExpandMedalSlotManager@@@std@@@std@@@2@@Z
_TEXT	SEGMENT
___$ReturnUdt$ = 8					; size = 4
__Where$ = 12						; size = 4
?_Make_iter@?$vector@UReserveDeleteMedal@ioExpandMedalSlotManager@@V?$allocator@UReserveDeleteMedal@ioExpandMedalSlotManager@@@std@@@std@@QBE?AV?$_Vector_iterator@V?$_Vector_val@UReserveDeleteMedal@ioExpandMedalSlotManager@@V?$allocator@UReserveDeleteMedal@ioExpandMedalSlotManager@@@std@@@std@@@2@V?$_Vector_const_iterator@V?$_Vector_val@UReserveDeleteMedal@ioExpandMedalSlotManager@@V?$allocator@UReserveDeleteMedal@ioExpandMedalSlotManager@@@std@@@std@@@2@@Z PROC ; std::vector<ioExpandMedalSlotManager::ReserveDeleteMedal,std::allocator<ioExpandMedalSlotManager::ReserveDeleteMedal> >::_Make_iter, COMDAT
; _this$ = ecx

; 801  : 		{	// make iterator from const_iterator

  00000	55		 push	 ebp
  00001	8b ec		 mov	 ebp, esp

; 802  : 		return (iterator(_Where._Ptr, this));

  00003	8b 45 08	 mov	 eax, DWORD PTR ___$ReturnUdt$[ebp]
  00006	8b 4d 0c	 mov	 ecx, DWORD PTR __Where$[ebp]
  00009	89 08		 mov	 DWORD PTR [eax], ecx

; 803  : 		}

  0000b	5d		 pop	 ebp
  0000c	c2 08 00	 ret	 8
?_Make_iter@?$vector@UReserveDeleteMedal@ioExpandMedalSlotManager@@V?$allocator@UReserveDeleteMedal@ioExpandMedalSlotManager@@@std@@@std@@QBE?AV?$_Vector_iterator@V?$_Vector_val@UReserveDeleteMedal@ioExpandMedalSlotManager@@V?$allocator@UReserveDeleteMedal@ioExpandMedalSlotManager@@@std@@@std@@@2@V?$_Vector_const_iterator@V?$_Vector_val@UReserveDeleteMedal@ioExpandMedalSlotManager@@V?$allocator@UReserveDeleteMedal@ioExpandMedalSlotManager@@@std@@@std@@@2@@Z ENDP ; std::vector<ioExpandMedalSlotManager::ReserveDeleteMedal,std::allocator<ioExpandMedalSlotManager::ReserveDeleteMedal> >::_Make_iter
_TEXT	ENDS
PUBLIC	??$_Destroy_range@V?$allocator@UExpandMedalSlot@ioExpandMedalSlotManager@@@std@@@std@@YAXPAUExpandMedalSlot@ioExpandMedalSlotManager@@0AAV?$allocator@UExpandMedalSlot@ioExpandMedalSlotManager@@@0@U_Nonscalar_ptr_iterator_tag@0@@Z ; std::_Destroy_range<std::allocator<ioExpandMedalSlotManager::ExpandMedalSlot> >
; Function compile flags: /Ogsp
; File c:\program files (x86)\microsoft visual studio 10.0\vc\include\xmemory
;	COMDAT ??$_Destroy_range@V?$allocator@UExpandMedalSlot@ioExpandMedalSlotManager@@@std@@@std@@YAXPAUExpandMedalSlot@ioExpandMedalSlotManager@@0AAV?$allocator@UExpandMedalSlot@ioExpandMedalSlotManager@@@0@U_Nonscalar_ptr_iterator_tag@0@@Z
_TEXT	SEGMENT
__First$ = 8						; size = 4
__Last$ = 12						; size = 4
__Al$ = 16						; size = 4
___formal$ = 20						; size = 1
??$_Destroy_range@V?$allocator@UExpandMedalSlot@ioExpandMedalSlotManager@@@std@@@std@@YAXPAUExpandMedalSlot@ioExpandMedalSlotManager@@0AAV?$allocator@UExpandMedalSlot@ioExpandMedalSlotManager@@@0@U_Nonscalar_ptr_iterator_tag@0@@Z PROC ; std::_Destroy_range<std::allocator<ioExpandMedalSlotManager::ExpandMedalSlot> >, COMDAT

; 96   : 	for (; _First != _Last; ++_First)
; 97   : 		_Dest_val(_Al, _First);
; 98   : 	}

  00000	c3		 ret	 0
??$_Destroy_range@V?$allocator@UExpandMedalSlot@ioExpandMedalSlotManager@@@std@@@std@@YAXPAUExpandMedalSlot@ioExpandMedalSlotManager@@0AAV?$allocator@UExpandMedalSlot@ioExpandMedalSlotManager@@@0@U_Nonscalar_ptr_iterator_tag@0@@Z ENDP ; std::_Destroy_range<std::allocator<ioExpandMedalSlotManager::ExpandMedalSlot> >
_TEXT	ENDS
PUBLIC	??$_Destroy_range@V?$allocator@UReserveDeleteMedal@ioExpandMedalSlotManager@@@std@@@std@@YAXPAUReserveDeleteMedal@ioExpandMedalSlotManager@@0AAV?$allocator@UReserveDeleteMedal@ioExpandMedalSlotManager@@@0@U_Nonscalar_ptr_iterator_tag@0@@Z ; std::_Destroy_range<std::allocator<ioExpandMedalSlotManager::ReserveDeleteMedal> >
; Function compile flags: /Ogsp
;	COMDAT ??$_Destroy_range@V?$allocator@UReserveDeleteMedal@ioExpandMedalSlotManager@@@std@@@std@@YAXPAUReserveDeleteMedal@ioExpandMedalSlotManager@@0AAV?$allocator@UReserveDeleteMedal@ioExpandMedalSlotManager@@@0@U_Nonscalar_ptr_iterator_tag@0@@Z
_TEXT	SEGMENT
__First$ = 8						; size = 4
__Last$ = 12						; size = 4
__Al$ = 16						; size = 4
___formal$ = 20						; size = 1
??$_Destroy_range@V?$allocator@UReserveDeleteMedal@ioExpandMedalSlotManager@@@std@@@std@@YAXPAUReserveDeleteMedal@ioExpandMedalSlotManager@@0AAV?$allocator@UReserveDeleteMedal@ioExpandMedalSlotManager@@@0@U_Nonscalar_ptr_iterator_tag@0@@Z PROC ; std::_Destroy_range<std::allocator<ioExpandMedalSlotManager::ReserveDeleteMedal> >, COMDAT

; 96   : 	for (; _First != _Last; ++_First)
; 97   : 		_Dest_val(_Al, _First);
; 98   : 	}

  00000	c3		 ret	 0
??$_Destroy_range@V?$allocator@UReserveDeleteMedal@ioExpandMedalSlotManager@@@std@@@std@@YAXPAUReserveDeleteMedal@ioExpandMedalSlotManager@@0AAV?$allocator@UReserveDeleteMedal@ioExpandMedalSlotManager@@@0@U_Nonscalar_ptr_iterator_tag@0@@Z ENDP ; std::_Destroy_range<std::allocator<ioExpandMedalSlotManager::ReserveDeleteMedal> >
_TEXT	ENDS
PUBLIC	??$_Uninit_move@PAUExpandMedalSlot@ioExpandMedalSlotManager@@PAU12@V?$allocator@UExpandMedalSlot@ioExpandMedalSlotManager@@@std@@U12@@std@@YAPAUExpandMedalSlot@ioExpandMedalSlotManager@@PAU12@00AAV?$allocator@UExpandMedalSlot@ioExpandMedalSlotManager@@@0@0U_Nonscalar_ptr_iterator_tag@0@@Z ; std::_Uninit_move<ioExpandMedalSlotManager::ExpandMedalSlot *,ioExpandMedalSlotManager::ExpandMedalSlot *,std::allocator<ioExpandMedalSlotManager::ExpandMedalSlot>,ioExpandMedalSlotManager::ExpandMedalSlot>
; Function compile flags: /Ogsp
; File c:\program files (x86)\microsoft visual studio 10.0\vc\include\memory
;	COMDAT ??$_Uninit_move@PAUExpandMedalSlot@ioExpandMedalSlotManager@@PAU12@V?$allocator@UExpandMedalSlot@ioExpandMedalSlotManager@@@std@@U12@@std@@YAPAUExpandMedalSlot@ioExpandMedalSlotManager@@PAU12@00AAV?$allocator@UExpandMedalSlot@ioExpandMedalSlotManager@@@0@0U_Nonscalar_ptr_iterator_tag@0@@Z
_TEXT	SEGMENT
__First$ = 8						; size = 4
__Last$ = 12						; size = 4
__Dest$ = 16						; size = 4
__Al$ = 20						; size = 4
___formal$ = 24						; size = 4
___formal$ = 28						; size = 1
??$_Uninit_move@PAUExpandMedalSlot@ioExpandMedalSlotManager@@PAU12@V?$allocator@UExpandMedalSlot@ioExpandMedalSlotManager@@@std@@U12@@std@@YAPAUExpandMedalSlot@ioExpandMedalSlotManager@@PAU12@00AAV?$allocator@UExpandMedalSlot@ioExpandMedalSlotManager@@@0@0U_Nonscalar_ptr_iterator_tag@0@@Z PROC ; std::_Uninit_move<ioExpandMedalSlotManager::ExpandMedalSlot *,ioExpandMedalSlotManager::ExpandMedalSlot *,std::allocator<ioExpandMedalSlotManager::ExpandMedalSlot>,ioExpandMedalSlotManager::ExpandMedalSlot>, COMDAT

; 424  : 	{	// move [_First, _Last) to raw _Dest, using _Al, arbitrary type

  00000	55		 push	 ebp
  00001	8b ec		 mov	 ebp, esp
  00003	56		 push	 esi

; 425  : 	_DEBUG_RANGE(_First, _Last);
; 426  : 	_DEBUG_POINTER(_Dest);
; 427  : 	_FwdIt _Next = _Dest;
; 428  : 
; 429  : 	_TRY_BEGIN
; 430  : 	for (; _First != _Last; ++_Dest, ++_First)

  00004	8b 75 08	 mov	 esi, DWORD PTR __First$[ebp]
  00007	eb 16		 jmp	 SHORT $LN24@Uninit_mov
$LL6@Uninit_mov:

; 431  : 		_Cons_val(_Al, _Dest, (_Valty &&)*_First);

  00009	56		 push	 esi
  0000a	ff 75 10	 push	 DWORD PTR __Dest$[ebp]
  0000d	ff 75 14	 push	 DWORD PTR __Al$[ebp]
  00010	e8 00 00 00 00	 call	 ??$_Cons_val@V?$allocator@UExpandMedalSlot@ioExpandMedalSlotManager@@@std@@UExpandMedalSlot@ioExpandMedalSlotManager@@U34@@std@@YAXAAV?$allocator@UExpandMedalSlot@ioExpandMedalSlotManager@@@0@PAUExpandMedalSlot@ioExpandMedalSlotManager@@$$QAU23@@Z ; std::_Cons_val<std::allocator<ioExpandMedalSlotManager::ExpandMedalSlot>,ioExpandMedalSlotManager::ExpandMedalSlot,ioExpandMedalSlotManager::ExpandMedalSlot>
  00015	83 45 10 0c	 add	 DWORD PTR __Dest$[ebp], 12 ; 0000000cH
  00019	83 c4 0c	 add	 esp, 12			; 0000000cH
  0001c	83 c6 0c	 add	 esi, 12			; 0000000cH
$LN24@Uninit_mov:

; 425  : 	_DEBUG_RANGE(_First, _Last);
; 426  : 	_DEBUG_POINTER(_Dest);
; 427  : 	_FwdIt _Next = _Dest;
; 428  : 
; 429  : 	_TRY_BEGIN
; 430  : 	for (; _First != _Last; ++_Dest, ++_First)

  0001f	3b 75 0c	 cmp	 esi, DWORD PTR __Last$[ebp]
  00022	75 e5		 jne	 SHORT $LL6@Uninit_mov

; 432  : 	_CATCH_ALL
; 433  : 	for (; _Next != _Dest; ++_Next)
; 434  : 		_Dest_val(_Al, _Next);
; 435  : 	_RERAISE;
; 436  : 	_CATCH_END
; 437  : 	return (_Dest);

  00024	8b 45 10	 mov	 eax, DWORD PTR __Dest$[ebp]
  00027	5e		 pop	 esi

; 438  : 	}

  00028	5d		 pop	 ebp
  00029	c3		 ret	 0
??$_Uninit_move@PAUExpandMedalSlot@ioExpandMedalSlotManager@@PAU12@V?$allocator@UExpandMedalSlot@ioExpandMedalSlotManager@@@std@@U12@@std@@YAPAUExpandMedalSlot@ioExpandMedalSlotManager@@PAU12@00AAV?$allocator@UExpandMedalSlot@ioExpandMedalSlotManager@@@0@0U_Nonscalar_ptr_iterator_tag@0@@Z ENDP ; std::_Uninit_move<ioExpandMedalSlotManager::ExpandMedalSlot *,ioExpandMedalSlotManager::ExpandMedalSlot *,std::allocator<ioExpandMedalSlotManager::ExpandMedalSlot>,ioExpandMedalSlotManager::ExpandMedalSlot>
_TEXT	ENDS
PUBLIC	??$_Uninit_move@PAUReserveDeleteMedal@ioExpandMedalSlotManager@@PAU12@V?$allocator@UReserveDeleteMedal@ioExpandMedalSlotManager@@@std@@U12@@std@@YAPAUReserveDeleteMedal@ioExpandMedalSlotManager@@PAU12@00AAV?$allocator@UReserveDeleteMedal@ioExpandMedalSlotManager@@@0@0U_Nonscalar_ptr_iterator_tag@0@@Z ; std::_Uninit_move<ioExpandMedalSlotManager::ReserveDeleteMedal *,ioExpandMedalSlotManager::ReserveDeleteMedal *,std::allocator<ioExpandMedalSlotManager::ReserveDeleteMedal>,ioExpandMedalSlotManager::ReserveDeleteMedal>
; Function compile flags: /Ogsp
;	COMDAT ??$_Uninit_move@PAUReserveDeleteMedal@ioExpandMedalSlotManager@@PAU12@V?$allocator@UReserveDeleteMedal@ioExpandMedalSlotManager@@@std@@U12@@std@@YAPAUReserveDeleteMedal@ioExpandMedalSlotManager@@PAU12@00AAV?$allocator@UReserveDeleteMedal@ioExpandMedalSlotManager@@@0@0U_Nonscalar_ptr_iterator_tag@0@@Z
_TEXT	SEGMENT
__First$ = 8						; size = 4
__Last$ = 12						; size = 4
__Dest$ = 16						; size = 4
__Al$ = 20						; size = 4
___formal$ = 24						; size = 4
___formal$ = 28						; size = 1
??$_Uninit_move@PAUReserveDeleteMedal@ioExpandMedalSlotManager@@PAU12@V?$allocator@UReserveDeleteMedal@ioExpandMedalSlotManager@@@std@@U12@@std@@YAPAUReserveDeleteMedal@ioExpandMedalSlotManager@@PAU12@00AAV?$allocator@UReserveDeleteMedal@ioExpandMedalSlotManager@@@0@0U_Nonscalar_ptr_iterator_tag@0@@Z PROC ; std::_Uninit_move<ioExpandMedalSlotManager::ReserveDeleteMedal *,ioExpandMedalSlotManager::ReserveDeleteMedal *,std::allocator<ioExpandMedalSlotManager::ReserveDeleteMedal>,ioExpandMedalSlotManager::ReserveDeleteMedal>, COMDAT

; 424  : 	{	// move [_First, _Last) to raw _Dest, using _Al, arbitrary type

  00000	55		 push	 ebp
  00001	8b ec		 mov	 ebp, esp
  00003	56		 push	 esi

; 425  : 	_DEBUG_RANGE(_First, _Last);
; 426  : 	_DEBUG_POINTER(_Dest);
; 427  : 	_FwdIt _Next = _Dest;
; 428  : 
; 429  : 	_TRY_BEGIN
; 430  : 	for (; _First != _Last; ++_Dest, ++_First)

  00004	8b 75 08	 mov	 esi, DWORD PTR __First$[ebp]
  00007	eb 16		 jmp	 SHORT $LN24@Uninit_mov@2
$LL6@Uninit_mov@2:

; 431  : 		_Cons_val(_Al, _Dest, (_Valty &&)*_First);

  00009	56		 push	 esi
  0000a	ff 75 10	 push	 DWORD PTR __Dest$[ebp]
  0000d	ff 75 14	 push	 DWORD PTR __Al$[ebp]
  00010	e8 00 00 00 00	 call	 ??$_Cons_val@V?$allocator@UReserveDeleteMedal@ioExpandMedalSlotManager@@@std@@UReserveDeleteMedal@ioExpandMedalSlotManager@@U34@@std@@YAXAAV?$allocator@UReserveDeleteMedal@ioExpandMedalSlotManager@@@0@PAUReserveDeleteMedal@ioExpandMedalSlotManager@@$$QAU23@@Z ; std::_Cons_val<std::allocator<ioExpandMedalSlotManager::ReserveDeleteMedal>,ioExpandMedalSlotManager::ReserveDeleteMedal,ioExpandMedalSlotManager::ReserveDeleteMedal>
  00015	83 45 10 0c	 add	 DWORD PTR __Dest$[ebp], 12 ; 0000000cH
  00019	83 c4 0c	 add	 esp, 12			; 0000000cH
  0001c	83 c6 0c	 add	 esi, 12			; 0000000cH
$LN24@Uninit_mov@2:

; 425  : 	_DEBUG_RANGE(_First, _Last);
; 426  : 	_DEBUG_POINTER(_Dest);
; 427  : 	_FwdIt _Next = _Dest;
; 428  : 
; 429  : 	_TRY_BEGIN
; 430  : 	for (; _First != _Last; ++_Dest, ++_First)

  0001f	3b 75 0c	 cmp	 esi, DWORD PTR __Last$[ebp]
  00022	75 e5		 jne	 SHORT $LL6@Uninit_mov@2

; 432  : 	_CATCH_ALL
; 433  : 	for (; _Next != _Dest; ++_Next)
; 434  : 		_Dest_val(_Al, _Next);
; 435  : 	_RERAISE;
; 436  : 	_CATCH_END
; 437  : 	return (_Dest);

  00024	8b 45 10	 mov	 eax, DWORD PTR __Dest$[ebp]
  00027	5e		 pop	 esi

; 438  : 	}

  00028	5d		 pop	 ebp
  00029	c3		 ret	 0
??$_Uninit_move@PAUReserveDeleteMedal@ioExpandMedalSlotManager@@PAU12@V?$allocator@UReserveDeleteMedal@ioExpandMedalSlotManager@@@std@@U12@@std@@YAPAUReserveDeleteMedal@ioExpandMedalSlotManager@@PAU12@00AAV?$allocator@UReserveDeleteMedal@ioExpandMedalSlotManager@@@0@0U_Nonscalar_ptr_iterator_tag@0@@Z ENDP ; std::_Uninit_move<ioExpandMedalSlotManager::ReserveDeleteMedal *,ioExpandMedalSlotManager::ReserveDeleteMedal *,std::allocator<ioExpandMedalSlotManager::ReserveDeleteMedal>,ioExpandMedalSlotManager::ReserveDeleteMedal>
_TEXT	ENDS
PUBLIC	?_Tidy@?$vector@HV?$allocator@H@std@@@std@@IAEXXZ ; std::vector<int,std::allocator<int> >::_Tidy
EXTRN	__imp_?_Orphan_all@_Container_base0@std@@QAEXXZ:PROC
; Function compile flags: /Ogsp
; File c:\program files (x86)\microsoft visual studio 10.0\vc\include\vector
;	COMDAT ?_Tidy@?$vector@HV?$allocator@H@std@@@std@@IAEXXZ
_TEXT	SEGMENT
?_Tidy@?$vector@HV?$allocator@H@std@@@std@@IAEXXZ PROC	; std::vector<int,std::allocator<int> >::_Tidy, COMDAT
; _this$ = ecx

; 1301 : 		{	// free all storage

  00000	56		 push	 esi
  00001	8b f1		 mov	 esi, ecx

; 1302 : 		if (this->_Myfirst != 0)

  00003	83 3e 00	 cmp	 DWORD PTR [esi], 0
  00006	74 0e		 je	 SHORT $LN12@Tidy

; 1303 : 			{	// something to free, destroy and deallocate it
; 1304 : 			this->_Orphan_all();

  00008	ff 15 00 00 00
	00		 call	 DWORD PTR __imp_?_Orphan_all@_Container_base0@std@@QAEXXZ

; 1305 : 			_Destroy(this->_Myfirst, this->_Mylast);
; 1306 : 			this->_Alval.deallocate(this->_Myfirst,
; 1307 : 				this->_Myend - this->_Myfirst);

  0000e	ff 36		 push	 DWORD PTR [esi]
  00010	e8 00 00 00 00	 call	 ??3@YAXPAX@Z		; operator delete
  00015	59		 pop	 ecx
$LN12@Tidy:

; 1308 : 			}
; 1309 : 		this->_Myfirst = 0;

  00016	83 26 00	 and	 DWORD PTR [esi], 0

; 1310 : 		this->_Mylast = 0;

  00019	83 66 04 00	 and	 DWORD PTR [esi+4], 0

; 1311 : 		this->_Myend = 0;

  0001d	83 66 08 00	 and	 DWORD PTR [esi+8], 0
  00021	5e		 pop	 esi

; 1312 : 		}

  00022	c3		 ret	 0
?_Tidy@?$vector@HV?$allocator@H@std@@@std@@IAEXXZ ENDP	; std::vector<int,std::allocator<int> >::_Tidy
_TEXT	ENDS
PUBLIC	??$_Destroy_range@V?$allocator@UExpandMedalSlot@ioExpandMedalSlotManager@@@std@@@std@@YAXPAUExpandMedalSlot@ioExpandMedalSlotManager@@0AAV?$allocator@UExpandMedalSlot@ioExpandMedalSlotManager@@@0@@Z ; std::_Destroy_range<std::allocator<ioExpandMedalSlotManager::ExpandMedalSlot> >
; Function compile flags: /Ogsp
; File c:\program files (x86)\microsoft visual studio 10.0\vc\include\xmemory
;	COMDAT ??$_Destroy_range@V?$allocator@UExpandMedalSlot@ioExpandMedalSlotManager@@@std@@@std@@YAXPAUExpandMedalSlot@ioExpandMedalSlotManager@@0AAV?$allocator@UExpandMedalSlot@ioExpandMedalSlotManager@@@0@@Z
_TEXT	SEGMENT
__First$ = 8						; size = 4
__Last$ = 12						; size = 4
__Al$ = 16						; size = 4
??$_Destroy_range@V?$allocator@UExpandMedalSlot@ioExpandMedalSlotManager@@@std@@@std@@YAXPAUExpandMedalSlot@ioExpandMedalSlotManager@@0AAV?$allocator@UExpandMedalSlot@ioExpandMedalSlotManager@@@0@@Z PROC ; std::_Destroy_range<std::allocator<ioExpandMedalSlotManager::ExpandMedalSlot> >, COMDAT

; 88   : 	_Destroy_range(_First, _Last, _Al, _Ptr_cat(_First, _Last));
; 89   : 	}

  00000	c3		 ret	 0
??$_Destroy_range@V?$allocator@UExpandMedalSlot@ioExpandMedalSlotManager@@@std@@@std@@YAXPAUExpandMedalSlot@ioExpandMedalSlotManager@@0AAV?$allocator@UExpandMedalSlot@ioExpandMedalSlotManager@@@0@@Z ENDP ; std::_Destroy_range<std::allocator<ioExpandMedalSlotManager::ExpandMedalSlot> >
_TEXT	ENDS
PUBLIC	??$_Destroy_range@V?$allocator@UReserveDeleteMedal@ioExpandMedalSlotManager@@@std@@@std@@YAXPAUReserveDeleteMedal@ioExpandMedalSlotManager@@0AAV?$allocator@UReserveDeleteMedal@ioExpandMedalSlotManager@@@0@@Z ; std::_Destroy_range<std::allocator<ioExpandMedalSlotManager::ReserveDeleteMedal> >
; Function compile flags: /Ogsp
;	COMDAT ??$_Destroy_range@V?$allocator@UReserveDeleteMedal@ioExpandMedalSlotManager@@@std@@@std@@YAXPAUReserveDeleteMedal@ioExpandMedalSlotManager@@0AAV?$allocator@UReserveDeleteMedal@ioExpandMedalSlotManager@@@0@@Z
_TEXT	SEGMENT
__First$ = 8						; size = 4
__Last$ = 12						; size = 4
__Al$ = 16						; size = 4
??$_Destroy_range@V?$allocator@UReserveDeleteMedal@ioExpandMedalSlotManager@@@std@@@std@@YAXPAUReserveDeleteMedal@ioExpandMedalSlotManager@@0AAV?$allocator@UReserveDeleteMedal@ioExpandMedalSlotManager@@@0@@Z PROC ; std::_Destroy_range<std::allocator<ioExpandMedalSlotManager::ReserveDeleteMedal> >, COMDAT

; 88   : 	_Destroy_range(_First, _Last, _Al, _Ptr_cat(_First, _Last));
; 89   : 	}

  00000	c3		 ret	 0
??$_Destroy_range@V?$allocator@UReserveDeleteMedal@ioExpandMedalSlotManager@@@std@@@std@@YAXPAUReserveDeleteMedal@ioExpandMedalSlotManager@@0AAV?$allocator@UReserveDeleteMedal@ioExpandMedalSlotManager@@@0@@Z ENDP ; std::_Destroy_range<std::allocator<ioExpandMedalSlotManager::ReserveDeleteMedal> >
_TEXT	ENDS
PUBLIC	??$_Uninitialized_move@PAUExpandMedalSlot@ioExpandMedalSlotManager@@PAU12@V?$allocator@UExpandMedalSlot@ioExpandMedalSlotManager@@@std@@@std@@YAPAUExpandMedalSlot@ioExpandMedalSlotManager@@PAU12@00AAV?$allocator@UExpandMedalSlot@ioExpandMedalSlotManager@@@0@@Z ; std::_Uninitialized_move<ioExpandMedalSlotManager::ExpandMedalSlot *,ioExpandMedalSlotManager::ExpandMedalSlot *,std::allocator<ioExpandMedalSlotManager::ExpandMedalSlot> >
; Function compile flags: /Ogsp
; File c:\program files (x86)\microsoft visual studio 10.0\vc\include\memory
;	COMDAT ??$_Uninitialized_move@PAUExpandMedalSlot@ioExpandMedalSlotManager@@PAU12@V?$allocator@UExpandMedalSlot@ioExpandMedalSlotManager@@@std@@@std@@YAPAUExpandMedalSlot@ioExpandMedalSlotManager@@PAU12@00AAV?$allocator@UExpandMedalSlot@ioExpandMedalSlotManager@@@0@@Z
_TEXT	SEGMENT
__Cat$508450 = -4					; size = 1
__First$ = 8						; size = 4
__Last$ = 12						; size = 4
__Dest$ = 16						; size = 4
__Al$ = 20						; size = 4
??$_Uninitialized_move@PAUExpandMedalSlot@ioExpandMedalSlotManager@@PAU12@V?$allocator@UExpandMedalSlot@ioExpandMedalSlotManager@@@std@@@std@@YAPAUExpandMedalSlot@ioExpandMedalSlotManager@@PAU12@00AAV?$allocator@UExpandMedalSlot@ioExpandMedalSlotManager@@@0@@Z PROC ; std::_Uninitialized_move<ioExpandMedalSlotManager::ExpandMedalSlot *,ioExpandMedalSlotManager::ExpandMedalSlot *,std::allocator<ioExpandMedalSlotManager::ExpandMedalSlot> >, COMDAT

; 469  : 	{	// move [_First, _Last) to raw _Dest, using _Al

  00000	55		 push	 ebp
  00001	8b ec		 mov	 ebp, esp
  00003	51		 push	 ecx

; 470  : 	return (_Uninit_move(_First, _Last, _Dest, _Al,
; 471  : 		_Val_type(_First), _Ptr_cat(_First, _Dest)));

  00004	ff 75 fc	 push	 DWORD PTR __Cat$508450[ebp]
  00007	6a 00		 push	 0
  00009	ff 75 14	 push	 DWORD PTR __Al$[ebp]
  0000c	ff 75 10	 push	 DWORD PTR __Dest$[ebp]
  0000f	ff 75 0c	 push	 DWORD PTR __Last$[ebp]
  00012	ff 75 08	 push	 DWORD PTR __First$[ebp]
  00015	e8 00 00 00 00	 call	 ??$_Uninit_move@PAUExpandMedalSlot@ioExpandMedalSlotManager@@PAU12@V?$allocator@UExpandMedalSlot@ioExpandMedalSlotManager@@@std@@U12@@std@@YAPAUExpandMedalSlot@ioExpandMedalSlotManager@@PAU12@00AAV?$allocator@UExpandMedalSlot@ioExpandMedalSlotManager@@@0@0U_Nonscalar_ptr_iterator_tag@0@@Z ; std::_Uninit_move<ioExpandMedalSlotManager::ExpandMedalSlot *,ioExpandMedalSlotManager::ExpandMedalSlot *,std::allocator<ioExpandMedalSlotManager::ExpandMedalSlot>,ioExpandMedalSlotManager::ExpandMedalSlot>
  0001a	83 c4 18	 add	 esp, 24			; 00000018H

; 472  : 	}

  0001d	c9		 leave
  0001e	c3		 ret	 0
??$_Uninitialized_move@PAUExpandMedalSlot@ioExpandMedalSlotManager@@PAU12@V?$allocator@UExpandMedalSlot@ioExpandMedalSlotManager@@@std@@@std@@YAPAUExpandMedalSlot@ioExpandMedalSlotManager@@PAU12@00AAV?$allocator@UExpandMedalSlot@ioExpandMedalSlotManager@@@0@@Z ENDP ; std::_Uninitialized_move<ioExpandMedalSlotManager::ExpandMedalSlot *,ioExpandMedalSlotManager::ExpandMedalSlot *,std::allocator<ioExpandMedalSlotManager::ExpandMedalSlot> >
_TEXT	ENDS
PUBLIC	??$_Uninitialized_move@PAUReserveDeleteMedal@ioExpandMedalSlotManager@@PAU12@V?$allocator@UReserveDeleteMedal@ioExpandMedalSlotManager@@@std@@@std@@YAPAUReserveDeleteMedal@ioExpandMedalSlotManager@@PAU12@00AAV?$allocator@UReserveDeleteMedal@ioExpandMedalSlotManager@@@0@@Z ; std::_Uninitialized_move<ioExpandMedalSlotManager::ReserveDeleteMedal *,ioExpandMedalSlotManager::ReserveDeleteMedal *,std::allocator<ioExpandMedalSlotManager::ReserveDeleteMedal> >
; Function compile flags: /Ogsp
;	COMDAT ??$_Uninitialized_move@PAUReserveDeleteMedal@ioExpandMedalSlotManager@@PAU12@V?$allocator@UReserveDeleteMedal@ioExpandMedalSlotManager@@@std@@@std@@YAPAUReserveDeleteMedal@ioExpandMedalSlotManager@@PAU12@00AAV?$allocator@UReserveDeleteMedal@ioExpandMedalSlotManager@@@0@@Z
_TEXT	SEGMENT
__Cat$508460 = -4					; size = 1
__First$ = 8						; size = 4
__Last$ = 12						; size = 4
__Dest$ = 16						; size = 4
__Al$ = 20						; size = 4
??$_Uninitialized_move@PAUReserveDeleteMedal@ioExpandMedalSlotManager@@PAU12@V?$allocator@UReserveDeleteMedal@ioExpandMedalSlotManager@@@std@@@std@@YAPAUReserveDeleteMedal@ioExpandMedalSlotManager@@PAU12@00AAV?$allocator@UReserveDeleteMedal@ioExpandMedalSlotManager@@@0@@Z PROC ; std::_Uninitialized_move<ioExpandMedalSlotManager::ReserveDeleteMedal *,ioExpandMedalSlotManager::ReserveDeleteMedal *,std::allocator<ioExpandMedalSlotManager::ReserveDeleteMedal> >, COMDAT

; 469  : 	{	// move [_First, _Last) to raw _Dest, using _Al

  00000	55		 push	 ebp
  00001	8b ec		 mov	 ebp, esp
  00003	51		 push	 ecx

; 470  : 	return (_Uninit_move(_First, _Last, _Dest, _Al,
; 471  : 		_Val_type(_First), _Ptr_cat(_First, _Dest)));

  00004	ff 75 fc	 push	 DWORD PTR __Cat$508460[ebp]
  00007	6a 00		 push	 0
  00009	ff 75 14	 push	 DWORD PTR __Al$[ebp]
  0000c	ff 75 10	 push	 DWORD PTR __Dest$[ebp]
  0000f	ff 75 0c	 push	 DWORD PTR __Last$[ebp]
  00012	ff 75 08	 push	 DWORD PTR __First$[ebp]
  00015	e8 00 00 00 00	 call	 ??$_Uninit_move@PAUReserveDeleteMedal@ioExpandMedalSlotManager@@PAU12@V?$allocator@UReserveDeleteMedal@ioExpandMedalSlotManager@@@std@@U12@@std@@YAPAUReserveDeleteMedal@ioExpandMedalSlotManager@@PAU12@00AAV?$allocator@UReserveDeleteMedal@ioExpandMedalSlotManager@@@0@0U_Nonscalar_ptr_iterator_tag@0@@Z ; std::_Uninit_move<ioExpandMedalSlotManager::ReserveDeleteMedal *,ioExpandMedalSlotManager::ReserveDeleteMedal *,std::allocator<ioExpandMedalSlotManager::ReserveDeleteMedal>,ioExpandMedalSlotManager::ReserveDeleteMedal>
  0001a	83 c4 18	 add	 esp, 24			; 00000018H

; 472  : 	}

  0001d	c9		 leave
  0001e	c3		 ret	 0
??$_Uninitialized_move@PAUReserveDeleteMedal@ioExpandMedalSlotManager@@PAU12@V?$allocator@UReserveDeleteMedal@ioExpandMedalSlotManager@@@std@@@std@@YAPAUReserveDeleteMedal@ioExpandMedalSlotManager@@PAU12@00AAV?$allocator@UReserveDeleteMedal@ioExpandMedalSlotManager@@@0@@Z ENDP ; std::_Uninitialized_move<ioExpandMedalSlotManager::ReserveDeleteMedal *,ioExpandMedalSlotManager::ReserveDeleteMedal *,std::allocator<ioExpandMedalSlotManager::ReserveDeleteMedal> >
_TEXT	ENDS
PUBLIC	??1?$vector@HV?$allocator@H@std@@@std@@QAE@XZ	; std::vector<int,std::allocator<int> >::~vector<int,std::allocator<int> >
; Function compile flags: /Ogsp
; File c:\program files (x86)\microsoft visual studio 10.0\vc\include\vector
;	COMDAT ??1?$vector@HV?$allocator@H@std@@@std@@QAE@XZ
_TEXT	SEGMENT
??1?$vector@HV?$allocator@H@std@@@std@@QAE@XZ PROC	; std::vector<int,std::allocator<int> >::~vector<int,std::allocator<int> >, COMDAT
; _this$ = ecx

; 705  : 		_Tidy();

  00000	e9 00 00 00 00	 jmp	 ?_Tidy@?$vector@HV?$allocator@H@std@@@std@@IAEXXZ ; std::vector<int,std::allocator<int> >::_Tidy
??1?$vector@HV?$allocator@H@std@@@std@@QAE@XZ ENDP	; std::vector<int,std::allocator<int> >::~vector<int,std::allocator<int> >
_TEXT	ENDS
PUBLIC	?_Destroy@?$vector@UExpandMedalSlot@ioExpandMedalSlotManager@@V?$allocator@UExpandMedalSlot@ioExpandMedalSlotManager@@@std@@@std@@IAEXPAUExpandMedalSlot@ioExpandMedalSlotManager@@0@Z ; std::vector<ioExpandMedalSlotManager::ExpandMedalSlot,std::allocator<ioExpandMedalSlotManager::ExpandMedalSlot> >::_Destroy
; Function compile flags: /Ogsp
;	COMDAT ?_Destroy@?$vector@UExpandMedalSlot@ioExpandMedalSlotManager@@V?$allocator@UExpandMedalSlot@ioExpandMedalSlotManager@@@std@@@std@@IAEXPAUExpandMedalSlot@ioExpandMedalSlotManager@@0@Z
_TEXT	SEGMENT
__First$ = 8						; size = 4
__Last$ = 12						; size = 4
?_Destroy@?$vector@UExpandMedalSlot@ioExpandMedalSlotManager@@V?$allocator@UExpandMedalSlot@ioExpandMedalSlotManager@@@std@@@std@@IAEXPAUExpandMedalSlot@ioExpandMedalSlotManager@@0@Z PROC ; std::vector<ioExpandMedalSlotManager::ExpandMedalSlot,std::allocator<ioExpandMedalSlotManager::ExpandMedalSlot> >::_Destroy, COMDAT
; _this$ = ecx

; 1270 : 		_Destroy_range(_First, _Last, this->_Alval);
; 1271 : 		}

  00000	c2 08 00	 ret	 8
?_Destroy@?$vector@UExpandMedalSlot@ioExpandMedalSlotManager@@V?$allocator@UExpandMedalSlot@ioExpandMedalSlotManager@@@std@@@std@@IAEXPAUExpandMedalSlot@ioExpandMedalSlotManager@@0@Z ENDP ; std::vector<ioExpandMedalSlotManager::ExpandMedalSlot,std::allocator<ioExpandMedalSlotManager::ExpandMedalSlot> >::_Destroy
_TEXT	ENDS
PUBLIC	?_Tidy@?$vector@UExpandMedalSlot@ioExpandMedalSlotManager@@V?$allocator@UExpandMedalSlot@ioExpandMedalSlotManager@@@std@@@std@@IAEXXZ ; std::vector<ioExpandMedalSlotManager::ExpandMedalSlot,std::allocator<ioExpandMedalSlotManager::ExpandMedalSlot> >::_Tidy
; Function compile flags: /Ogsp
;	COMDAT ?_Tidy@?$vector@UExpandMedalSlot@ioExpandMedalSlotManager@@V?$allocator@UExpandMedalSlot@ioExpandMedalSlotManager@@@std@@@std@@IAEXXZ
_TEXT	SEGMENT
?_Tidy@?$vector@UExpandMedalSlot@ioExpandMedalSlotManager@@V?$allocator@UExpandMedalSlot@ioExpandMedalSlotManager@@@std@@@std@@IAEXXZ PROC ; std::vector<ioExpandMedalSlotManager::ExpandMedalSlot,std::allocator<ioExpandMedalSlotManager::ExpandMedalSlot> >::_Tidy, COMDAT
; _this$ = ecx

; 1301 : 		{	// free all storage

  00000	56		 push	 esi
  00001	8b f1		 mov	 esi, ecx

; 1302 : 		if (this->_Myfirst != 0)

  00003	83 3e 00	 cmp	 DWORD PTR [esi], 0
  00006	74 0e		 je	 SHORT $LN21@Tidy@2

; 1303 : 			{	// something to free, destroy and deallocate it
; 1304 : 			this->_Orphan_all();

  00008	ff 15 00 00 00
	00		 call	 DWORD PTR __imp_?_Orphan_all@_Container_base0@std@@QAEXXZ

; 1305 : 			_Destroy(this->_Myfirst, this->_Mylast);
; 1306 : 			this->_Alval.deallocate(this->_Myfirst,
; 1307 : 				this->_Myend - this->_Myfirst);

  0000e	ff 36		 push	 DWORD PTR [esi]
  00010	e8 00 00 00 00	 call	 ??3@YAXPAX@Z		; operator delete
  00015	59		 pop	 ecx
$LN21@Tidy@2:

; 1308 : 			}
; 1309 : 		this->_Myfirst = 0;

  00016	83 26 00	 and	 DWORD PTR [esi], 0

; 1310 : 		this->_Mylast = 0;

  00019	83 66 04 00	 and	 DWORD PTR [esi+4], 0

; 1311 : 		this->_Myend = 0;

  0001d	83 66 08 00	 and	 DWORD PTR [esi+8], 0
  00021	5e		 pop	 esi

; 1312 : 		}

  00022	c3		 ret	 0
?_Tidy@?$vector@UExpandMedalSlot@ioExpandMedalSlotManager@@V?$allocator@UExpandMedalSlot@ioExpandMedalSlotManager@@@std@@@std@@IAEXXZ ENDP ; std::vector<ioExpandMedalSlotManager::ExpandMedalSlot,std::allocator<ioExpandMedalSlotManager::ExpandMedalSlot> >::_Tidy
_TEXT	ENDS
PUBLIC	?_Destroy@?$vector@UReserveDeleteMedal@ioExpandMedalSlotManager@@V?$allocator@UReserveDeleteMedal@ioExpandMedalSlotManager@@@std@@@std@@IAEXPAUReserveDeleteMedal@ioExpandMedalSlotManager@@0@Z ; std::vector<ioExpandMedalSlotManager::ReserveDeleteMedal,std::allocator<ioExpandMedalSlotManager::ReserveDeleteMedal> >::_Destroy
; Function compile flags: /Ogsp
;	COMDAT ?_Destroy@?$vector@UReserveDeleteMedal@ioExpandMedalSlotManager@@V?$allocator@UReserveDeleteMedal@ioExpandMedalSlotManager@@@std@@@std@@IAEXPAUReserveDeleteMedal@ioExpandMedalSlotManager@@0@Z
_TEXT	SEGMENT
__First$ = 8						; size = 4
__Last$ = 12						; size = 4
?_Destroy@?$vector@UReserveDeleteMedal@ioExpandMedalSlotManager@@V?$allocator@UReserveDeleteMedal@ioExpandMedalSlotManager@@@std@@@std@@IAEXPAUReserveDeleteMedal@ioExpandMedalSlotManager@@0@Z PROC ; std::vector<ioExpandMedalSlotManager::ReserveDeleteMedal,std::allocator<ioExpandMedalSlotManager::ReserveDeleteMedal> >::_Destroy, COMDAT
; _this$ = ecx

; 1270 : 		_Destroy_range(_First, _Last, this->_Alval);
; 1271 : 		}

  00000	c2 08 00	 ret	 8
?_Destroy@?$vector@UReserveDeleteMedal@ioExpandMedalSlotManager@@V?$allocator@UReserveDeleteMedal@ioExpandMedalSlotManager@@@std@@@std@@IAEXPAUReserveDeleteMedal@ioExpandMedalSlotManager@@0@Z ENDP ; std::vector<ioExpandMedalSlotManager::ReserveDeleteMedal,std::allocator<ioExpandMedalSlotManager::ReserveDeleteMedal> >::_Destroy
_TEXT	ENDS
PUBLIC	??$_Umove@PAUExpandMedalSlot@ioExpandMedalSlotManager@@@?$vector@UExpandMedalSlot@ioExpandMedalSlotManager@@V?$allocator@UExpandMedalSlot@ioExpandMedalSlotManager@@@std@@@std@@IAEPAUExpandMedalSlot@ioExpandMedalSlotManager@@PAU23@00@Z ; std::vector<ioExpandMedalSlotManager::ExpandMedalSlot,std::allocator<ioExpandMedalSlotManager::ExpandMedalSlot> >::_Umove<ioExpandMedalSlotManager::ExpandMedalSlot *>
; Function compile flags: /Ogsp
;	COMDAT ??$_Umove@PAUExpandMedalSlot@ioExpandMedalSlotManager@@@?$vector@UExpandMedalSlot@ioExpandMedalSlotManager@@V?$allocator@UExpandMedalSlot@ioExpandMedalSlotManager@@@std@@@std@@IAEPAUExpandMedalSlot@ioExpandMedalSlotManager@@PAU23@00@Z
_TEXT	SEGMENT
__First$ = 8						; size = 4
__Last$ = 12						; size = 4
__Ptr$ = 16						; size = 4
??$_Umove@PAUExpandMedalSlot@ioExpandMedalSlotManager@@@?$vector@UExpandMedalSlot@ioExpandMedalSlotManager@@V?$allocator@UExpandMedalSlot@ioExpandMedalSlotManager@@@std@@@std@@IAEPAUExpandMedalSlot@ioExpandMedalSlotManager@@PAU23@00@Z PROC ; std::vector<ioExpandMedalSlotManager::ExpandMedalSlot,std::allocator<ioExpandMedalSlotManager::ExpandMedalSlot> >::_Umove<ioExpandMedalSlotManager::ExpandMedalSlot *>, COMDAT
; _this$ = ecx

; 1322 : 		pointer _Umove(_Iter _First, _Iter _Last, pointer _Ptr)

  00000	55		 push	 ebp
  00001	8b ec		 mov	 ebp, esp

; 1323 : 		{	// move initializing [_First, _Last), using allocator
; 1324 : 		return (_Uninitialized_move(_First, _Last,
; 1325 : 			_Ptr, this->_Alval));

  00003	83 c1 0c	 add	 ecx, 12			; 0000000cH
  00006	51		 push	 ecx
  00007	ff 75 10	 push	 DWORD PTR __Ptr$[ebp]
  0000a	ff 75 0c	 push	 DWORD PTR __Last$[ebp]
  0000d	ff 75 08	 push	 DWORD PTR __First$[ebp]
  00010	e8 00 00 00 00	 call	 ??$_Uninitialized_move@PAUExpandMedalSlot@ioExpandMedalSlotManager@@PAU12@V?$allocator@UExpandMedalSlot@ioExpandMedalSlotManager@@@std@@@std@@YAPAUExpandMedalSlot@ioExpandMedalSlotManager@@PAU12@00AAV?$allocator@UExpandMedalSlot@ioExpandMedalSlotManager@@@0@@Z ; std::_Uninitialized_move<ioExpandMedalSlotManager::ExpandMedalSlot *,ioExpandMedalSlotManager::ExpandMedalSlot *,std::allocator<ioExpandMedalSlotManager::ExpandMedalSlot> >
  00015	83 c4 10	 add	 esp, 16			; 00000010H

; 1326 : 		}

  00018	5d		 pop	 ebp
  00019	c2 0c 00	 ret	 12			; 0000000cH
??$_Umove@PAUExpandMedalSlot@ioExpandMedalSlotManager@@@?$vector@UExpandMedalSlot@ioExpandMedalSlotManager@@V?$allocator@UExpandMedalSlot@ioExpandMedalSlotManager@@@std@@@std@@IAEPAUExpandMedalSlot@ioExpandMedalSlotManager@@PAU23@00@Z ENDP ; std::vector<ioExpandMedalSlotManager::ExpandMedalSlot,std::allocator<ioExpandMedalSlotManager::ExpandMedalSlot> >::_Umove<ioExpandMedalSlotManager::ExpandMedalSlot *>
_TEXT	ENDS
PUBLIC	??$_Umove@PAUReserveDeleteMedal@ioExpandMedalSlotManager@@@?$vector@UReserveDeleteMedal@ioExpandMedalSlotManager@@V?$allocator@UReserveDeleteMedal@ioExpandMedalSlotManager@@@std@@@std@@IAEPAUReserveDeleteMedal@ioExpandMedalSlotManager@@PAU23@00@Z ; std::vector<ioExpandMedalSlotManager::ReserveDeleteMedal,std::allocator<ioExpandMedalSlotManager::ReserveDeleteMedal> >::_Umove<ioExpandMedalSlotManager::ReserveDeleteMedal *>
; Function compile flags: /Ogsp
;	COMDAT ??$_Umove@PAUReserveDeleteMedal@ioExpandMedalSlotManager@@@?$vector@UReserveDeleteMedal@ioExpandMedalSlotManager@@V?$allocator@UReserveDeleteMedal@ioExpandMedalSlotManager@@@std@@@std@@IAEPAUReserveDeleteMedal@ioExpandMedalSlotManager@@PAU23@00@Z
_TEXT	SEGMENT
__First$ = 8						; size = 4
__Last$ = 12						; size = 4
__Ptr$ = 16						; size = 4
??$_Umove@PAUReserveDeleteMedal@ioExpandMedalSlotManager@@@?$vector@UReserveDeleteMedal@ioExpandMedalSlotManager@@V?$allocator@UReserveDeleteMedal@ioExpandMedalSlotManager@@@std@@@std@@IAEPAUReserveDeleteMedal@ioExpandMedalSlotManager@@PAU23@00@Z PROC ; std::vector<ioExpandMedalSlotManager::ReserveDeleteMedal,std::allocator<ioExpandMedalSlotManager::ReserveDeleteMedal> >::_Umove<ioExpandMedalSlotManager::ReserveDeleteMedal *>, COMDAT
; _this$ = ecx

; 1322 : 		pointer _Umove(_Iter _First, _Iter _Last, pointer _Ptr)

  00000	55		 push	 ebp
  00001	8b ec		 mov	 ebp, esp

; 1323 : 		{	// move initializing [_First, _Last), using allocator
; 1324 : 		return (_Uninitialized_move(_First, _Last,
; 1325 : 			_Ptr, this->_Alval));

  00003	83 c1 0c	 add	 ecx, 12			; 0000000cH
  00006	51		 push	 ecx
  00007	ff 75 10	 push	 DWORD PTR __Ptr$[ebp]
  0000a	ff 75 0c	 push	 DWORD PTR __Last$[ebp]
  0000d	ff 75 08	 push	 DWORD PTR __First$[ebp]
  00010	e8 00 00 00 00	 call	 ??$_Uninitialized_move@PAUReserveDeleteMedal@ioExpandMedalSlotManager@@PAU12@V?$allocator@UReserveDeleteMedal@ioExpandMedalSlotManager@@@std@@@std@@YAPAUReserveDeleteMedal@ioExpandMedalSlotManager@@PAU12@00AAV?$allocator@UReserveDeleteMedal@ioExpandMedalSlotManager@@@0@@Z ; std::_Uninitialized_move<ioExpandMedalSlotManager::ReserveDeleteMedal *,ioExpandMedalSlotManager::ReserveDeleteMedal *,std::allocator<ioExpandMedalSlotManager::ReserveDeleteMedal> >
  00015	83 c4 10	 add	 esp, 16			; 00000010H

; 1326 : 		}

  00018	5d		 pop	 ebp
  00019	c2 0c 00	 ret	 12			; 0000000cH
??$_Umove@PAUReserveDeleteMedal@ioExpandMedalSlotManager@@@?$vector@UReserveDeleteMedal@ioExpandMedalSlotManager@@V?$allocator@UReserveDeleteMedal@ioExpandMedalSlotManager@@@std@@@std@@IAEPAUReserveDeleteMedal@ioExpandMedalSlotManager@@PAU23@00@Z ENDP ; std::vector<ioExpandMedalSlotManager::ReserveDeleteMedal,std::allocator<ioExpandMedalSlotManager::ReserveDeleteMedal> >::_Umove<ioExpandMedalSlotManager::ReserveDeleteMedal *>
_TEXT	ENDS
PUBLIC	??1?$vector@UExpandMedalSlot@ioExpandMedalSlotManager@@V?$allocator@UExpandMedalSlot@ioExpandMedalSlotManager@@@std@@@std@@QAE@XZ ; std::vector<ioExpandMedalSlotManager::ExpandMedalSlot,std::allocator<ioExpandMedalSlotManager::ExpandMedalSlot> >::~vector<ioExpandMedalSlotManager::ExpandMedalSlot,std::allocator<ioExpandMedalSlotManager::ExpandMedalSlot> >
; Function compile flags: /Ogsp
;	COMDAT ??1?$vector@UExpandMedalSlot@ioExpandMedalSlotManager@@V?$allocator@UExpandMedalSlot@ioExpandMedalSlotManager@@@std@@@std@@QAE@XZ
_TEXT	SEGMENT
??1?$vector@UExpandMedalSlot@ioExpandMedalSlotManager@@V?$allocator@UExpandMedalSlot@ioExpandMedalSlotManager@@@std@@@std@@QAE@XZ PROC ; std::vector<ioExpandMedalSlotManager::ExpandMedalSlot,std::allocator<ioExpandMedalSlotManager::ExpandMedalSlot> >::~vector<ioExpandMedalSlotManager::ExpandMedalSlot,std::allocator<ioExpandMedalSlotManager::ExpandMedalSlot> >, COMDAT
; _this$ = ecx

; 705  : 		_Tidy();

  00000	e9 00 00 00 00	 jmp	 ?_Tidy@?$vector@UExpandMedalSlot@ioExpandMedalSlotManager@@V?$allocator@UExpandMedalSlot@ioExpandMedalSlotManager@@@std@@@std@@IAEXXZ ; std::vector<ioExpandMedalSlotManager::ExpandMedalSlot,std::allocator<ioExpandMedalSlotManager::ExpandMedalSlot> >::_Tidy
??1?$vector@UExpandMedalSlot@ioExpandMedalSlotManager@@V?$allocator@UExpandMedalSlot@ioExpandMedalSlotManager@@@std@@@std@@QAE@XZ ENDP ; std::vector<ioExpandMedalSlotManager::ExpandMedalSlot,std::allocator<ioExpandMedalSlotManager::ExpandMedalSlot> >::~vector<ioExpandMedalSlotManager::ExpandMedalSlot,std::allocator<ioExpandMedalSlotManager::ExpandMedalSlot> >
_TEXT	ENDS
PUBLIC	?erase@?$vector@UExpandMedalSlot@ioExpandMedalSlotManager@@V?$allocator@UExpandMedalSlot@ioExpandMedalSlotManager@@@std@@@std@@QAE?AV?$_Vector_iterator@V?$_Vector_val@UExpandMedalSlot@ioExpandMedalSlotManager@@V?$allocator@UExpandMedalSlot@ioExpandMedalSlotManager@@@std@@@std@@@2@V?$_Vector_const_iterator@V?$_Vector_val@UExpandMedalSlot@ioExpandMedalSlotManager@@V?$allocator@UExpandMedalSlot@ioExpandMedalSlotManager@@@std@@@std@@@2@@Z ; std::vector<ioExpandMedalSlotManager::ExpandMedalSlot,std::allocator<ioExpandMedalSlotManager::ExpandMedalSlot> >::erase
; Function compile flags: /Ogsp
;	COMDAT ?erase@?$vector@UExpandMedalSlot@ioExpandMedalSlotManager@@V?$allocator@UExpandMedalSlot@ioExpandMedalSlotManager@@@std@@@std@@QAE?AV?$_Vector_iterator@V?$_Vector_val@UExpandMedalSlot@ioExpandMedalSlotManager@@V?$allocator@UExpandMedalSlot@ioExpandMedalSlotManager@@@std@@@std@@@2@V?$_Vector_const_iterator@V?$_Vector_val@UExpandMedalSlot@ioExpandMedalSlotManager@@V?$allocator@UExpandMedalSlot@ioExpandMedalSlotManager@@@std@@@std@@@2@@Z
_TEXT	SEGMENT
___$ReturnUdt$ = 8					; size = 4
__Cat$508687 = 12					; size = 1
__Where$ = 12						; size = 4
?erase@?$vector@UExpandMedalSlot@ioExpandMedalSlotManager@@V?$allocator@UExpandMedalSlot@ioExpandMedalSlotManager@@@std@@@std@@QAE?AV?$_Vector_iterator@V?$_Vector_val@UExpandMedalSlot@ioExpandMedalSlotManager@@V?$allocator@UExpandMedalSlot@ioExpandMedalSlotManager@@@std@@@std@@@2@V?$_Vector_const_iterator@V?$_Vector_val@UExpandMedalSlot@ioExpandMedalSlotManager@@V?$allocator@UExpandMedalSlot@ioExpandMedalSlotManager@@@std@@@std@@@2@@Z PROC ; std::vector<ioExpandMedalSlotManager::ExpandMedalSlot,std::allocator<ioExpandMedalSlotManager::ExpandMedalSlot> >::erase, COMDAT
; _this$ = ecx

; 1179 : 		{	// erase element at where

  00000	55		 push	 ebp
  00001	8b ec		 mov	 ebp, esp

; 1180 : 		_Move(_VIPTR(_Where) + 1, this->_Mylast,
; 1181 : 			_VIPTR(_Where));

  00003	8b 45 0c	 mov	 eax, DWORD PTR __Where$[ebp]
  00006	56		 push	 esi
  00007	ff 75 0c	 push	 DWORD PTR __Cat$508687[ebp]
  0000a	8b f1		 mov	 esi, ecx
  0000c	50		 push	 eax
  0000d	ff 76 04	 push	 DWORD PTR [esi+4]
  00010	83 c0 0c	 add	 eax, 12			; 0000000cH
  00013	50		 push	 eax
  00014	e8 00 00 00 00	 call	 ??$_Move@PAUExpandMedalSlot@ioExpandMedalSlotManager@@PAU12@@std@@YAPAUExpandMedalSlot@ioExpandMedalSlotManager@@PAU12@00U_Nonscalar_ptr_iterator_tag@0@@Z ; std::_Move<ioExpandMedalSlotManager::ExpandMedalSlot *,ioExpandMedalSlotManager::ExpandMedalSlot *>

; 1182 : 		_Destroy(this->_Mylast - 1, this->_Mylast);
; 1183 : 		--this->_Mylast;
; 1184 : 		return (_Make_iter(_Where));

  00019	8b 45 08	 mov	 eax, DWORD PTR ___$ReturnUdt$[ebp]
  0001c	8b 4d 0c	 mov	 ecx, DWORD PTR __Where$[ebp]
  0001f	83 c4 10	 add	 esp, 16			; 00000010H
  00022	83 46 04 f4	 add	 DWORD PTR [esi+4], -12	; fffffff4H
  00026	89 08		 mov	 DWORD PTR [eax], ecx
  00028	5e		 pop	 esi

; 1185 : 		}

  00029	5d		 pop	 ebp
  0002a	c2 08 00	 ret	 8
?erase@?$vector@UExpandMedalSlot@ioExpandMedalSlotManager@@V?$allocator@UExpandMedalSlot@ioExpandMedalSlotManager@@@std@@@std@@QAE?AV?$_Vector_iterator@V?$_Vector_val@UExpandMedalSlot@ioExpandMedalSlotManager@@V?$allocator@UExpandMedalSlot@ioExpandMedalSlotManager@@@std@@@std@@@2@V?$_Vector_const_iterator@V?$_Vector_val@UExpandMedalSlot@ioExpandMedalSlotManager@@V?$allocator@UExpandMedalSlot@ioExpandMedalSlotManager@@@std@@@std@@@2@@Z ENDP ; std::vector<ioExpandMedalSlotManager::ExpandMedalSlot,std::allocator<ioExpandMedalSlotManager::ExpandMedalSlot> >::erase
_TEXT	ENDS
PUBLIC	?erase@?$vector@UExpandMedalSlot@ioExpandMedalSlotManager@@V?$allocator@UExpandMedalSlot@ioExpandMedalSlotManager@@@std@@@std@@QAE?AV?$_Vector_iterator@V?$_Vector_val@UExpandMedalSlot@ioExpandMedalSlotManager@@V?$allocator@UExpandMedalSlot@ioExpandMedalSlotManager@@@std@@@std@@@2@V?$_Vector_const_iterator@V?$_Vector_val@UExpandMedalSlot@ioExpandMedalSlotManager@@V?$allocator@UExpandMedalSlot@ioExpandMedalSlotManager@@@std@@@std@@@2@0@Z ; std::vector<ioExpandMedalSlotManager::ExpandMedalSlot,std::allocator<ioExpandMedalSlotManager::ExpandMedalSlot> >::erase
; Function compile flags: /Ogsp
;	COMDAT ?erase@?$vector@UExpandMedalSlot@ioExpandMedalSlotManager@@V?$allocator@UExpandMedalSlot@ioExpandMedalSlotManager@@@std@@@std@@QAE?AV?$_Vector_iterator@V?$_Vector_val@UExpandMedalSlot@ioExpandMedalSlotManager@@V?$allocator@UExpandMedalSlot@ioExpandMedalSlotManager@@@std@@@std@@@2@V?$_Vector_const_iterator@V?$_Vector_val@UExpandMedalSlot@ioExpandMedalSlotManager@@V?$allocator@UExpandMedalSlot@ioExpandMedalSlotManager@@@std@@@std@@@2@0@Z
_TEXT	SEGMENT
___$ReturnUdt$ = 8					; size = 4
__First_arg$ = 12					; size = 4
__Cat$508862 = 16					; size = 1
__Last_arg$ = 16					; size = 4
?erase@?$vector@UExpandMedalSlot@ioExpandMedalSlotManager@@V?$allocator@UExpandMedalSlot@ioExpandMedalSlotManager@@@std@@@std@@QAE?AV?$_Vector_iterator@V?$_Vector_val@UExpandMedalSlot@ioExpandMedalSlotManager@@V?$allocator@UExpandMedalSlot@ioExpandMedalSlotManager@@@std@@@std@@@2@V?$_Vector_const_iterator@V?$_Vector_val@UExpandMedalSlot@ioExpandMedalSlotManager@@V?$allocator@UExpandMedalSlot@ioExpandMedalSlotManager@@@std@@@std@@@2@0@Z PROC ; std::vector<ioExpandMedalSlotManager::ExpandMedalSlot,std::allocator<ioExpandMedalSlotManager::ExpandMedalSlot> >::erase, COMDAT
; _this$ = ecx

; 1190 : 		{	// erase [_First, _Last)

  00000	55		 push	 ebp
  00001	8b ec		 mov	 ebp, esp

; 1191 : 		iterator _First = _Make_iter(_First_arg);

  00003	8b 45 0c	 mov	 eax, DWORD PTR __First_arg$[ebp]
  00006	56		 push	 esi
  00007	57		 push	 edi
  00008	8b 7d 08	 mov	 edi, DWORD PTR ___$ReturnUdt$[ebp]
  0000b	8b f1		 mov	 esi, ecx
  0000d	89 07		 mov	 DWORD PTR [edi], eax

; 1192 : 		iterator _Last = _Make_iter(_Last_arg);
; 1193 : 
; 1194 : 		if (_First != _Last)

  0000f	3b 45 10	 cmp	 eax, DWORD PTR __Last_arg$[ebp]
  00012	74 16		 je	 SHORT $LN1@erase

; 1195 : 			{	// worth doing, copy down over hole
; 1196 :  #if _ITERATOR_DEBUG_LEVEL == 2
; 1197 : 			if (_Last < _First || _VICONT(_First) != this
; 1198 : 				|| _VIPTR(_First) < this->_Myfirst
; 1199 : 				|| this->_Mylast < _VIPTR(_Last))
; 1200 : 				_DEBUG_ERROR("vector erase iterator outside range");
; 1201 : 			pointer _Ptr = _Move(_VIPTR(_Last), this->_Mylast,
; 1202 : 				_VIPTR(_First));
; 1203 : 			_Orphan_range(_VIPTR(_First), this->_Mylast);
; 1204 : 
; 1205 :  #else /* _ITERATOR_DEBUG_LEVEL == 2 */
; 1206 : 			pointer _Ptr = _Move(_VIPTR(_Last), this->_Mylast,
; 1207 : 				_VIPTR(_First));

  00014	ff 75 10	 push	 DWORD PTR __Cat$508862[ebp]
  00017	8b 4e 04	 mov	 ecx, DWORD PTR [esi+4]
  0001a	50		 push	 eax
  0001b	51		 push	 ecx
  0001c	ff 75 10	 push	 DWORD PTR __Last_arg$[ebp]
  0001f	e8 00 00 00 00	 call	 ??$_Move@PAUExpandMedalSlot@ioExpandMedalSlotManager@@PAU12@@std@@YAPAUExpandMedalSlot@ioExpandMedalSlotManager@@PAU12@00U_Nonscalar_ptr_iterator_tag@0@@Z ; std::_Move<ioExpandMedalSlotManager::ExpandMedalSlot *,ioExpandMedalSlotManager::ExpandMedalSlot *>
  00024	83 c4 10	 add	 esp, 16			; 00000010H

; 1208 :  #endif /* _ITERATOR_DEBUG_LEVEL == 2 */
; 1209 : 
; 1210 : 			_Destroy(_Ptr, this->_Mylast);
; 1211 : 			this->_Mylast = _Ptr;

  00027	89 46 04	 mov	 DWORD PTR [esi+4], eax
$LN1@erase:

; 1212 : 			}
; 1213 : 		return (_First);

  0002a	8b c7		 mov	 eax, edi
  0002c	5f		 pop	 edi
  0002d	5e		 pop	 esi

; 1214 : 		}

  0002e	5d		 pop	 ebp
  0002f	c2 0c 00	 ret	 12			; 0000000cH
?erase@?$vector@UExpandMedalSlot@ioExpandMedalSlotManager@@V?$allocator@UExpandMedalSlot@ioExpandMedalSlotManager@@@std@@@std@@QAE?AV?$_Vector_iterator@V?$_Vector_val@UExpandMedalSlot@ioExpandMedalSlotManager@@V?$allocator@UExpandMedalSlot@ioExpandMedalSlotManager@@@std@@@std@@@2@V?$_Vector_const_iterator@V?$_Vector_val@UExpandMedalSlot@ioExpandMedalSlotManager@@V?$allocator@UExpandMedalSlot@ioExpandMedalSlotManager@@@std@@@std@@@2@0@Z ENDP ; std::vector<ioExpandMedalSlotManager::ExpandMedalSlot,std::allocator<ioExpandMedalSlotManager::ExpandMedalSlot> >::erase
_TEXT	ENDS
PUBLIC	?erase@?$vector@UReserveDeleteMedal@ioExpandMedalSlotManager@@V?$allocator@UReserveDeleteMedal@ioExpandMedalSlotManager@@@std@@@std@@QAE?AV?$_Vector_iterator@V?$_Vector_val@UReserveDeleteMedal@ioExpandMedalSlotManager@@V?$allocator@UReserveDeleteMedal@ioExpandMedalSlotManager@@@std@@@std@@@2@V?$_Vector_const_iterator@V?$_Vector_val@UReserveDeleteMedal@ioExpandMedalSlotManager@@V?$allocator@UReserveDeleteMedal@ioExpandMedalSlotManager@@@std@@@std@@@2@0@Z ; std::vector<ioExpandMedalSlotManager::ReserveDeleteMedal,std::allocator<ioExpandMedalSlotManager::ReserveDeleteMedal> >::erase
; Function compile flags: /Ogsp
;	COMDAT ?erase@?$vector@UReserveDeleteMedal@ioExpandMedalSlotManager@@V?$allocator@UReserveDeleteMedal@ioExpandMedalSlotManager@@@std@@@std@@QAE?AV?$_Vector_iterator@V?$_Vector_val@UReserveDeleteMedal@ioExpandMedalSlotManager@@V?$allocator@UReserveDeleteMedal@ioExpandMedalSlotManager@@@std@@@std@@@2@V?$_Vector_const_iterator@V?$_Vector_val@UReserveDeleteMedal@ioExpandMedalSlotManager@@V?$allocator@UReserveDeleteMedal@ioExpandMedalSlotManager@@@std@@@std@@@2@0@Z
_TEXT	SEGMENT
___$ReturnUdt$ = 8					; size = 4
__First_arg$ = 12					; size = 4
__Cat$509015 = 16					; size = 1
__Last_arg$ = 16					; size = 4
?erase@?$vector@UReserveDeleteMedal@ioExpandMedalSlotManager@@V?$allocator@UReserveDeleteMedal@ioExpandMedalSlotManager@@@std@@@std@@QAE?AV?$_Vector_iterator@V?$_Vector_val@UReserveDeleteMedal@ioExpandMedalSlotManager@@V?$allocator@UReserveDeleteMedal@ioExpandMedalSlotManager@@@std@@@std@@@2@V?$_Vector_const_iterator@V?$_Vector_val@UReserveDeleteMedal@ioExpandMedalSlotManager@@V?$allocator@UReserveDeleteMedal@ioExpandMedalSlotManager@@@std@@@std@@@2@0@Z PROC ; std::vector<ioExpandMedalSlotManager::ReserveDeleteMedal,std::allocator<ioExpandMedalSlotManager::ReserveDeleteMedal> >::erase, COMDAT
; _this$ = ecx

; 1190 : 		{	// erase [_First, _Last)

  00000	55		 push	 ebp
  00001	8b ec		 mov	 ebp, esp

; 1191 : 		iterator _First = _Make_iter(_First_arg);

  00003	8b 45 0c	 mov	 eax, DWORD PTR __First_arg$[ebp]
  00006	56		 push	 esi
  00007	57		 push	 edi
  00008	8b 7d 08	 mov	 edi, DWORD PTR ___$ReturnUdt$[ebp]
  0000b	8b f1		 mov	 esi, ecx
  0000d	89 07		 mov	 DWORD PTR [edi], eax

; 1192 : 		iterator _Last = _Make_iter(_Last_arg);
; 1193 : 
; 1194 : 		if (_First != _Last)

  0000f	3b 45 10	 cmp	 eax, DWORD PTR __Last_arg$[ebp]
  00012	74 16		 je	 SHORT $LN1@erase@2

; 1195 : 			{	// worth doing, copy down over hole
; 1196 :  #if _ITERATOR_DEBUG_LEVEL == 2
; 1197 : 			if (_Last < _First || _VICONT(_First) != this
; 1198 : 				|| _VIPTR(_First) < this->_Myfirst
; 1199 : 				|| this->_Mylast < _VIPTR(_Last))
; 1200 : 				_DEBUG_ERROR("vector erase iterator outside range");
; 1201 : 			pointer _Ptr = _Move(_VIPTR(_Last), this->_Mylast,
; 1202 : 				_VIPTR(_First));
; 1203 : 			_Orphan_range(_VIPTR(_First), this->_Mylast);
; 1204 : 
; 1205 :  #else /* _ITERATOR_DEBUG_LEVEL == 2 */
; 1206 : 			pointer _Ptr = _Move(_VIPTR(_Last), this->_Mylast,
; 1207 : 				_VIPTR(_First));

  00014	ff 75 10	 push	 DWORD PTR __Cat$509015[ebp]
  00017	8b 4e 04	 mov	 ecx, DWORD PTR [esi+4]
  0001a	50		 push	 eax
  0001b	51		 push	 ecx
  0001c	ff 75 10	 push	 DWORD PTR __Last_arg$[ebp]
  0001f	e8 00 00 00 00	 call	 ??$_Move@PAUReserveDeleteMedal@ioExpandMedalSlotManager@@PAU12@@std@@YAPAUReserveDeleteMedal@ioExpandMedalSlotManager@@PAU12@00U_Nonscalar_ptr_iterator_tag@0@@Z ; std::_Move<ioExpandMedalSlotManager::ReserveDeleteMedal *,ioExpandMedalSlotManager::ReserveDeleteMedal *>
  00024	83 c4 10	 add	 esp, 16			; 00000010H

; 1208 :  #endif /* _ITERATOR_DEBUG_LEVEL == 2 */
; 1209 : 
; 1210 : 			_Destroy(_Ptr, this->_Mylast);
; 1211 : 			this->_Mylast = _Ptr;

  00027	89 46 04	 mov	 DWORD PTR [esi+4], eax
$LN1@erase@2:

; 1212 : 			}
; 1213 : 		return (_First);

  0002a	8b c7		 mov	 eax, edi
  0002c	5f		 pop	 edi
  0002d	5e		 pop	 esi

; 1214 : 		}

  0002e	5d		 pop	 ebp
  0002f	c2 0c 00	 ret	 12			; 0000000cH
?erase@?$vector@UReserveDeleteMedal@ioExpandMedalSlotManager@@V?$allocator@UReserveDeleteMedal@ioExpandMedalSlotManager@@@std@@@std@@QAE?AV?$_Vector_iterator@V?$_Vector_val@UReserveDeleteMedal@ioExpandMedalSlotManager@@V?$allocator@UReserveDeleteMedal@ioExpandMedalSlotManager@@@std@@@std@@@2@V?$_Vector_const_iterator@V?$_Vector_val@UReserveDeleteMedal@ioExpandMedalSlotManager@@V?$allocator@UReserveDeleteMedal@ioExpandMedalSlotManager@@@std@@@std@@@2@0@Z ENDP ; std::vector<ioExpandMedalSlotManager::ReserveDeleteMedal,std::allocator<ioExpandMedalSlotManager::ReserveDeleteMedal> >::erase
_TEXT	ENDS
PUBLIC	?_Tidy@?$vector@UReserveDeleteMedal@ioExpandMedalSlotManager@@V?$allocator@UReserveDeleteMedal@ioExpandMedalSlotManager@@@std@@@std@@IAEXXZ ; std::vector<ioExpandMedalSlotManager::ReserveDeleteMedal,std::allocator<ioExpandMedalSlotManager::ReserveDeleteMedal> >::_Tidy
; Function compile flags: /Ogsp
;	COMDAT ?_Tidy@?$vector@UReserveDeleteMedal@ioExpandMedalSlotManager@@V?$allocator@UReserveDeleteMedal@ioExpandMedalSlotManager@@@std@@@std@@IAEXXZ
_TEXT	SEGMENT
?_Tidy@?$vector@UReserveDeleteMedal@ioExpandMedalSlotManager@@V?$allocator@UReserveDeleteMedal@ioExpandMedalSlotManager@@@std@@@std@@IAEXXZ PROC ; std::vector<ioExpandMedalSlotManager::ReserveDeleteMedal,std::allocator<ioExpandMedalSlotManager::ReserveDeleteMedal> >::_Tidy, COMDAT
; _this$ = ecx

; 1301 : 		{	// free all storage

  00000	56		 push	 esi
  00001	8b f1		 mov	 esi, ecx

; 1302 : 		if (this->_Myfirst != 0)

  00003	83 3e 00	 cmp	 DWORD PTR [esi], 0
  00006	74 0e		 je	 SHORT $LN21@Tidy@3

; 1303 : 			{	// something to free, destroy and deallocate it
; 1304 : 			this->_Orphan_all();

  00008	ff 15 00 00 00
	00		 call	 DWORD PTR __imp_?_Orphan_all@_Container_base0@std@@QAEXXZ

; 1305 : 			_Destroy(this->_Myfirst, this->_Mylast);
; 1306 : 			this->_Alval.deallocate(this->_Myfirst,
; 1307 : 				this->_Myend - this->_Myfirst);

  0000e	ff 36		 push	 DWORD PTR [esi]
  00010	e8 00 00 00 00	 call	 ??3@YAXPAX@Z		; operator delete
  00015	59		 pop	 ecx
$LN21@Tidy@3:

; 1308 : 			}
; 1309 : 		this->_Myfirst = 0;

  00016	83 26 00	 and	 DWORD PTR [esi], 0

; 1310 : 		this->_Mylast = 0;

  00019	83 66 04 00	 and	 DWORD PTR [esi+4], 0

; 1311 : 		this->_Myend = 0;

  0001d	83 66 08 00	 and	 DWORD PTR [esi+8], 0
  00021	5e		 pop	 esi

; 1312 : 		}

  00022	c3		 ret	 0
?_Tidy@?$vector@UReserveDeleteMedal@ioExpandMedalSlotManager@@V?$allocator@UReserveDeleteMedal@ioExpandMedalSlotManager@@@std@@@std@@IAEXXZ ENDP ; std::vector<ioExpandMedalSlotManager::ReserveDeleteMedal,std::allocator<ioExpandMedalSlotManager::ReserveDeleteMedal> >::_Tidy
_TEXT	ENDS
PUBLIC	?reserve@?$vector@UExpandMedalSlot@ioExpandMedalSlotManager@@V?$allocator@UExpandMedalSlot@ioExpandMedalSlotManager@@@std@@@std@@QAEXI@Z ; std::vector<ioExpandMedalSlotManager::ExpandMedalSlot,std::allocator<ioExpandMedalSlotManager::ExpandMedalSlot> >::reserve
EXTRN	___CxxFrameHandler3:PROC
EXTRN	@__security_check_cookie@4:PROC
EXTRN	__EH_epilog3:PROC
EXTRN	__EH_prolog3_catch:PROC
;	COMDAT xdata$x
; File c:\program files (x86)\microsoft visual studio 10.0\vc\include\xmemory
xdata$x	SEGMENT
__catchsym$?reserve@?$vector@UExpandMedalSlot@ioExpandMedalSlotManager@@V?$allocator@UExpandMedalSlot@ioExpandMedalSlotManager@@@std@@@std@@QAEXI@Z$2 DD 040H
	DD	00H
	DD	00H
	DD	FLAT:__catch$?reserve@?$vector@UExpandMedalSlot@ioExpandMedalSlotManager@@V?$allocator@UExpandMedalSlot@ioExpandMedalSlotManager@@@std@@@std@@QAEXI@Z$0
__unwindtable$?reserve@?$vector@UExpandMedalSlot@ioExpandMedalSlotManager@@V?$allocator@UExpandMedalSlot@ioExpandMedalSlotManager@@@std@@@std@@QAEXI@Z DD 0ffffffffH
	DD	00H
	DD	0ffffffffH
	DD	00H
__tryblocktable$?reserve@?$vector@UExpandMedalSlot@ioExpandMedalSlotManager@@V?$allocator@UExpandMedalSlot@ioExpandMedalSlotManager@@@std@@@std@@QAEXI@Z DD 00H
	DD	00H
	DD	01H
	DD	01H
	DD	FLAT:__catchsym$?reserve@?$vector@UExpandMedalSlot@ioExpandMedalSlotManager@@V?$allocator@UExpandMedalSlot@ioExpandMedalSlotManager@@@std@@@std@@QAEXI@Z$2
__ehfuncinfo$?reserve@?$vector@UExpandMedalSlot@ioExpandMedalSlotManager@@V?$allocator@UExpandMedalSlot@ioExpandMedalSlotManager@@@std@@@std@@QAEXI@Z DD 019930522H
	DD	02H
	DD	FLAT:__unwindtable$?reserve@?$vector@UExpandMedalSlot@ioExpandMedalSlotManager@@V?$allocator@UExpandMedalSlot@ioExpandMedalSlotManager@@@std@@@std@@QAEXI@Z
	DD	01H
	DD	FLAT:__tryblocktable$?reserve@?$vector@UExpandMedalSlot@ioExpandMedalSlotManager@@V?$allocator@UExpandMedalSlot@ioExpandMedalSlotManager@@@std@@@std@@QAEXI@Z
	DD	2 DUP(00H)
	DD	00H
	DD	01H
; Function compile flags: /Ogsp
; File c:\program files (x86)\microsoft visual studio 10.0\vc\include\vector
xdata$x	ENDS
;	COMDAT ?reserve@?$vector@UExpandMedalSlot@ioExpandMedalSlotManager@@V?$allocator@UExpandMedalSlot@ioExpandMedalSlotManager@@@std@@@std@@QAEXI@Z
_TEXT	SEGMENT
__$EHRec$ = -16						; size = 16
__Ptr$505819 = 8					; size = 4
__Count$ = 8						; size = 4
?reserve@?$vector@UExpandMedalSlot@ioExpandMedalSlotManager@@V?$allocator@UExpandMedalSlot@ioExpandMedalSlotManager@@@std@@@std@@QAEXI@Z PROC ; std::vector<ioExpandMedalSlotManager::ExpandMedalSlot,std::allocator<ioExpandMedalSlotManager::ExpandMedalSlot> >::reserve, COMDAT
; _this$ = ecx

; 746  : 		{	// determine new minimum length of allocated storage

  00000	6a 04		 push	 4
  00002	b8 00 00 00 00	 mov	 eax, __ehhandler$?reserve@?$vector@UExpandMedalSlot@ioExpandMedalSlotManager@@V?$allocator@UExpandMedalSlot@ioExpandMedalSlotManager@@@std@@@std@@QAEXI@Z
  00007	e8 00 00 00 00	 call	 __EH_prolog3_catch
  0000c	8b f1		 mov	 esi, ecx

; 747  : 		if (max_size() < _Count)

  0000e	8b 5d 08	 mov	 ebx, DWORD PTR __Count$[ebp]
  00011	81 fb 55 55 55
	15		 cmp	 ebx, 357913941		; 15555555H
  00017	76 0b		 jbe	 SHORT $LN5@reserve

; 748  : 			_Xlen();	// result too long

  00019	68 00 00 00 00	 push	 OFFSET ??_C@_0BD@OLBABOEK@vector?$DMT?$DO?5too?5long?$AA@
  0001e	ff 15 00 00 00
	00		 call	 DWORD PTR __imp_?_Xlength_error@std@@YAXPBD@Z
$LN56@reserve:
$LN5@reserve:

; 749  : 		else if (capacity() < _Count)

  00024	8b 46 08	 mov	 eax, DWORD PTR [esi+8]
  00027	2b 06		 sub	 eax, DWORD PTR [esi]
  00029	6a 0c		 push	 12			; 0000000cH
  0002b	99		 cdq
  0002c	59		 pop	 ecx
  0002d	f7 f9		 idiv	 ecx
  0002f	3b c3		 cmp	 eax, ebx
  00031	73 6b		 jae	 SHORT $LN3@reserve

; 750  : 			{	// not enough room, reallocate
; 751  : 			pointer _Ptr = this->_Alval.allocate(_Count);

  00033	6a 00		 push	 0
  00035	53		 push	 ebx
  00036	e8 00 00 00 00	 call	 ??$_Allocate@UExpandMedalSlot@ioExpandMedalSlotManager@@@std@@YAPAUExpandMedalSlot@ioExpandMedalSlotManager@@IPAU12@@Z ; std::_Allocate<ioExpandMedalSlotManager::ExpandMedalSlot>

; 752  : 
; 753  : 			_TRY_BEGIN
; 754  : 			_Umove(this->_Myfirst, this->_Mylast, _Ptr);

  0003b	8b 0e		 mov	 ecx, DWORD PTR [esi]
  0003d	83 65 fc 00	 and	 DWORD PTR __$EHRec$[ebp+12], 0
  00041	8d 56 0c	 lea	 edx, DWORD PTR [esi+12]
  00044	52		 push	 edx
  00045	89 45 08	 mov	 DWORD PTR __Ptr$505819[ebp], eax
  00048	ff 75 08	 push	 DWORD PTR __Ptr$505819[ebp]
  0004b	8b 46 04	 mov	 eax, DWORD PTR [esi+4]
  0004e	50		 push	 eax
  0004f	51		 push	 ecx
  00050	e8 00 00 00 00	 call	 ??$_Uninitialized_move@PAUExpandMedalSlot@ioExpandMedalSlotManager@@PAU12@V?$allocator@UExpandMedalSlot@ioExpandMedalSlotManager@@@std@@@std@@YAPAUExpandMedalSlot@ioExpandMedalSlotManager@@PAU12@00AAV?$allocator@UExpandMedalSlot@ioExpandMedalSlotManager@@@0@@Z ; std::_Uninitialized_move<ioExpandMedalSlotManager::ExpandMedalSlot *,ioExpandMedalSlotManager::ExpandMedalSlot *,std::allocator<ioExpandMedalSlotManager::ExpandMedalSlot> >

; 758  : 			_CATCH_END
; 759  : 
; 760  : 			size_type _Size = size();

  00055	8b 0e		 mov	 ecx, DWORD PTR [esi]
  00057	8b 46 04	 mov	 eax, DWORD PTR [esi+4]
  0005a	83 c4 18	 add	 esp, 24			; 00000018H
  0005d	2b c1		 sub	 eax, ecx
  0005f	6a 0c		 push	 12			; 0000000cH
  00061	99		 cdq
  00062	5f		 pop	 edi
  00063	f7 ff		 idiv	 edi
  00065	83 4d fc ff	 or	 DWORD PTR __$EHRec$[ebp+12], -1
  00069	8b f8		 mov	 edi, eax
  0006b	85 c9		 test	 ecx, ecx
  0006d	74 12		 je	 SHORT $LN48@reserve

; 761  : 			if (this->_Myfirst != 0)

  0006f	eb 03		 jmp	 SHORT $LN55@reserve

; 762  : 				{	// destroy and deallocate old array
; 763  : 				_Destroy(this->_Myfirst, this->_Mylast);

$LL39@reserve:
  00071	83 c1 0c	 add	 ecx, 12			; 0000000cH
$LN55@reserve:
  00074	3b 4e 04	 cmp	 ecx, DWORD PTR [esi+4]
  00077	75 f8		 jne	 SHORT $LL39@reserve

; 764  : 				this->_Alval.deallocate(this->_Myfirst,
; 765  : 					this->_Myend - this->_Myfirst);

  00079	ff 36		 push	 DWORD PTR [esi]
  0007b	e8 00 00 00 00	 call	 ??3@YAXPAX@Z		; operator delete
  00080	59		 pop	 ecx
$LN48@reserve:

; 766  : 				}
; 767  : 
; 768  : 			this->_Orphan_all();

  00081	8b ce		 mov	 ecx, esi
  00083	ff 15 00 00 00
	00		 call	 DWORD PTR __imp_?_Orphan_all@_Container_base0@std@@QAEXXZ

; 769  : 			this->_Myend = _Ptr + _Count;

  00089	6b db 0c	 imul	 ebx, 12			; 0000000cH

; 770  : 			this->_Mylast = _Ptr + _Size;

  0008c	6b ff 0c	 imul	 edi, 12			; 0000000cH
  0008f	8b 45 08	 mov	 eax, DWORD PTR __Ptr$505819[ebp]
  00092	03 d8		 add	 ebx, eax
  00094	03 f8		 add	 edi, eax
  00096	89 5e 08	 mov	 DWORD PTR [esi+8], ebx
  00099	89 7e 04	 mov	 DWORD PTR [esi+4], edi

; 771  : 			this->_Myfirst = _Ptr;

  0009c	89 06		 mov	 DWORD PTR [esi], eax
$LN3@reserve:

; 772  : 			}
; 773  : 		}

  0009e	e8 00 00 00 00	 call	 __EH_epilog3
  000a3	c2 04 00	 ret	 4
__catch$?reserve@?$vector@UExpandMedalSlot@ioExpandMedalSlotManager@@V?$allocator@UExpandMedalSlot@ioExpandMedalSlotManager@@@std@@@std@@QAEXI@Z$0:

; 755  : 			_CATCH_ALL
; 756  : 			this->_Alval.deallocate(_Ptr, _Count);

  000a6	ff 75 08	 push	 DWORD PTR __Ptr$505819[ebp]
  000a9	e8 00 00 00 00	 call	 ??3@YAXPAX@Z		; operator delete
  000ae	59		 pop	 ecx

; 757  : 			_RERAISE;

  000af	6a 00		 push	 0
  000b1	6a 00		 push	 0
  000b3	e8 00 00 00 00	 call	 __CxxThrowException@8
$LN57@reserve:
$LN54@reserve:
  000b8	cc		 int	 3
_TEXT	ENDS
;	COMDAT text$x
text$x	SEGMENT
__ehhandler$?reserve@?$vector@UExpandMedalSlot@ioExpandMedalSlotManager@@V?$allocator@UExpandMedalSlot@ioExpandMedalSlotManager@@@std@@@std@@QAEXI@Z:
  00000	8b 54 24 08	 mov	 edx, DWORD PTR [esp+8]
  00004	8d 42 0c	 lea	 eax, DWORD PTR [edx+12]
  00007	8b 4a ec	 mov	 ecx, DWORD PTR [edx-20]
  0000a	33 c8		 xor	 ecx, eax
  0000c	e8 00 00 00 00	 call	 @__security_check_cookie@4
  00011	b8 00 00 00 00	 mov	 eax, OFFSET __ehfuncinfo$?reserve@?$vector@UExpandMedalSlot@ioExpandMedalSlotManager@@V?$allocator@UExpandMedalSlot@ioExpandMedalSlotManager@@@std@@@std@@QAEXI@Z
  00016	e9 00 00 00 00	 jmp	 ___CxxFrameHandler3
text$x	ENDS
?reserve@?$vector@UExpandMedalSlot@ioExpandMedalSlotManager@@V?$allocator@UExpandMedalSlot@ioExpandMedalSlotManager@@@std@@@std@@QAEXI@Z ENDP ; std::vector<ioExpandMedalSlotManager::ExpandMedalSlot,std::allocator<ioExpandMedalSlotManager::ExpandMedalSlot> >::reserve
PUBLIC	?reserve@?$vector@UReserveDeleteMedal@ioExpandMedalSlotManager@@V?$allocator@UReserveDeleteMedal@ioExpandMedalSlotManager@@@std@@@std@@QAEXI@Z ; std::vector<ioExpandMedalSlotManager::ReserveDeleteMedal,std::allocator<ioExpandMedalSlotManager::ReserveDeleteMedal> >::reserve
;	COMDAT xdata$x
; File c:\program files (x86)\microsoft visual studio 10.0\vc\include\xmemory
xdata$x	SEGMENT
__catchsym$?reserve@?$vector@UReserveDeleteMedal@ioExpandMedalSlotManager@@V?$allocator@UReserveDeleteMedal@ioExpandMedalSlotManager@@@std@@@std@@QAEXI@Z$2 DD 040H
	DD	00H
	DD	00H
	DD	FLAT:__catch$?reserve@?$vector@UReserveDeleteMedal@ioExpandMedalSlotManager@@V?$allocator@UReserveDeleteMedal@ioExpandMedalSlotManager@@@std@@@std@@QAEXI@Z$0
__unwindtable$?reserve@?$vector@UReserveDeleteMedal@ioExpandMedalSlotManager@@V?$allocator@UReserveDeleteMedal@ioExpandMedalSlotManager@@@std@@@std@@QAEXI@Z DD 0ffffffffH
	DD	00H
	DD	0ffffffffH
	DD	00H
__tryblocktable$?reserve@?$vector@UReserveDeleteMedal@ioExpandMedalSlotManager@@V?$allocator@UReserveDeleteMedal@ioExpandMedalSlotManager@@@std@@@std@@QAEXI@Z DD 00H
	DD	00H
	DD	01H
	DD	01H
	DD	FLAT:__catchsym$?reserve@?$vector@UReserveDeleteMedal@ioExpandMedalSlotManager@@V?$allocator@UReserveDeleteMedal@ioExpandMedalSlotManager@@@std@@@std@@QAEXI@Z$2
__ehfuncinfo$?reserve@?$vector@UReserveDeleteMedal@ioExpandMedalSlotManager@@V?$allocator@UReserveDeleteMedal@ioExpandMedalSlotManager@@@std@@@std@@QAEXI@Z DD 019930522H
	DD	02H
	DD	FLAT:__unwindtable$?reserve@?$vector@UReserveDeleteMedal@ioExpandMedalSlotManager@@V?$allocator@UReserveDeleteMedal@ioExpandMedalSlotManager@@@std@@@std@@QAEXI@Z
	DD	01H
	DD	FLAT:__tryblocktable$?reserve@?$vector@UReserveDeleteMedal@ioExpandMedalSlotManager@@V?$allocator@UReserveDeleteMedal@ioExpandMedalSlotManager@@@std@@@std@@QAEXI@Z
	DD	2 DUP(00H)
	DD	00H
	DD	01H
; Function compile flags: /Ogsp
; File c:\program files (x86)\microsoft visual studio 10.0\vc\include\vector
xdata$x	ENDS
;	COMDAT ?reserve@?$vector@UReserveDeleteMedal@ioExpandMedalSlotManager@@V?$allocator@UReserveDeleteMedal@ioExpandMedalSlotManager@@@std@@@std@@QAEXI@Z
_TEXT	SEGMENT
__$EHRec$ = -16						; size = 16
__Ptr$505847 = 8					; size = 4
__Count$ = 8						; size = 4
?reserve@?$vector@UReserveDeleteMedal@ioExpandMedalSlotManager@@V?$allocator@UReserveDeleteMedal@ioExpandMedalSlotManager@@@std@@@std@@QAEXI@Z PROC ; std::vector<ioExpandMedalSlotManager::ReserveDeleteMedal,std::allocator<ioExpandMedalSlotManager::ReserveDeleteMedal> >::reserve, COMDAT
; _this$ = ecx

; 746  : 		{	// determine new minimum length of allocated storage

  00000	6a 04		 push	 4
  00002	b8 00 00 00 00	 mov	 eax, __ehhandler$?reserve@?$vector@UReserveDeleteMedal@ioExpandMedalSlotManager@@V?$allocator@UReserveDeleteMedal@ioExpandMedalSlotManager@@@std@@@std@@QAEXI@Z
  00007	e8 00 00 00 00	 call	 __EH_prolog3_catch
  0000c	8b f1		 mov	 esi, ecx

; 747  : 		if (max_size() < _Count)

  0000e	8b 5d 08	 mov	 ebx, DWORD PTR __Count$[ebp]
  00011	81 fb 55 55 55
	15		 cmp	 ebx, 357913941		; 15555555H
  00017	76 0b		 jbe	 SHORT $LN5@reserve@2

; 748  : 			_Xlen();	// result too long

  00019	68 00 00 00 00	 push	 OFFSET ??_C@_0BD@OLBABOEK@vector?$DMT?$DO?5too?5long?$AA@
  0001e	ff 15 00 00 00
	00		 call	 DWORD PTR __imp_?_Xlength_error@std@@YAXPBD@Z
$LN56@reserve@2:
$LN5@reserve@2:

; 749  : 		else if (capacity() < _Count)

  00024	8b 46 08	 mov	 eax, DWORD PTR [esi+8]
  00027	2b 06		 sub	 eax, DWORD PTR [esi]
  00029	6a 0c		 push	 12			; 0000000cH
  0002b	99		 cdq
  0002c	59		 pop	 ecx
  0002d	f7 f9		 idiv	 ecx
  0002f	3b c3		 cmp	 eax, ebx
  00031	73 6b		 jae	 SHORT $LN3@reserve@2

; 750  : 			{	// not enough room, reallocate
; 751  : 			pointer _Ptr = this->_Alval.allocate(_Count);

  00033	6a 00		 push	 0
  00035	53		 push	 ebx
  00036	e8 00 00 00 00	 call	 ??$_Allocate@UReserveDeleteMedal@ioExpandMedalSlotManager@@@std@@YAPAUReserveDeleteMedal@ioExpandMedalSlotManager@@IPAU12@@Z ; std::_Allocate<ioExpandMedalSlotManager::ReserveDeleteMedal>

; 752  : 
; 753  : 			_TRY_BEGIN
; 754  : 			_Umove(this->_Myfirst, this->_Mylast, _Ptr);

  0003b	8b 0e		 mov	 ecx, DWORD PTR [esi]
  0003d	83 65 fc 00	 and	 DWORD PTR __$EHRec$[ebp+12], 0
  00041	8d 56 0c	 lea	 edx, DWORD PTR [esi+12]
  00044	52		 push	 edx
  00045	89 45 08	 mov	 DWORD PTR __Ptr$505847[ebp], eax
  00048	ff 75 08	 push	 DWORD PTR __Ptr$505847[ebp]
  0004b	8b 46 04	 mov	 eax, DWORD PTR [esi+4]
  0004e	50		 push	 eax
  0004f	51		 push	 ecx
  00050	e8 00 00 00 00	 call	 ??$_Uninitialized_move@PAUReserveDeleteMedal@ioExpandMedalSlotManager@@PAU12@V?$allocator@UReserveDeleteMedal@ioExpandMedalSlotManager@@@std@@@std@@YAPAUReserveDeleteMedal@ioExpandMedalSlotManager@@PAU12@00AAV?$allocator@UReserveDeleteMedal@ioExpandMedalSlotManager@@@0@@Z ; std::_Uninitialized_move<ioExpandMedalSlotManager::ReserveDeleteMedal *,ioExpandMedalSlotManager::ReserveDeleteMedal *,std::allocator<ioExpandMedalSlotManager::ReserveDeleteMedal> >

; 758  : 			_CATCH_END
; 759  : 
; 760  : 			size_type _Size = size();

  00055	8b 0e		 mov	 ecx, DWORD PTR [esi]
  00057	8b 46 04	 mov	 eax, DWORD PTR [esi+4]
  0005a	83 c4 18	 add	 esp, 24			; 00000018H
  0005d	2b c1		 sub	 eax, ecx
  0005f	6a 0c		 push	 12			; 0000000cH
  00061	99		 cdq
  00062	5f		 pop	 edi
  00063	f7 ff		 idiv	 edi
  00065	83 4d fc ff	 or	 DWORD PTR __$EHRec$[ebp+12], -1
  00069	8b f8		 mov	 edi, eax
  0006b	85 c9		 test	 ecx, ecx
  0006d	74 12		 je	 SHORT $LN48@reserve@2

; 761  : 			if (this->_Myfirst != 0)

  0006f	eb 03		 jmp	 SHORT $LN55@reserve@2

; 762  : 				{	// destroy and deallocate old array
; 763  : 				_Destroy(this->_Myfirst, this->_Mylast);

$LL39@reserve@2:
  00071	83 c1 0c	 add	 ecx, 12			; 0000000cH
$LN55@reserve@2:
  00074	3b 4e 04	 cmp	 ecx, DWORD PTR [esi+4]
  00077	75 f8		 jne	 SHORT $LL39@reserve@2

; 764  : 				this->_Alval.deallocate(this->_Myfirst,
; 765  : 					this->_Myend - this->_Myfirst);

  00079	ff 36		 push	 DWORD PTR [esi]
  0007b	e8 00 00 00 00	 call	 ??3@YAXPAX@Z		; operator delete
  00080	59		 pop	 ecx
$LN48@reserve@2:

; 766  : 				}
; 767  : 
; 768  : 			this->_Orphan_all();

  00081	8b ce		 mov	 ecx, esi
  00083	ff 15 00 00 00
	00		 call	 DWORD PTR __imp_?_Orphan_all@_Container_base0@std@@QAEXXZ

; 769  : 			this->_Myend = _Ptr + _Count;

  00089	6b db 0c	 imul	 ebx, 12			; 0000000cH

; 770  : 			this->_Mylast = _Ptr + _Size;

  0008c	6b ff 0c	 imul	 edi, 12			; 0000000cH
  0008f	8b 45 08	 mov	 eax, DWORD PTR __Ptr$505847[ebp]
  00092	03 d8		 add	 ebx, eax
  00094	03 f8		 add	 edi, eax
  00096	89 5e 08	 mov	 DWORD PTR [esi+8], ebx
  00099	89 7e 04	 mov	 DWORD PTR [esi+4], edi

; 771  : 			this->_Myfirst = _Ptr;

  0009c	89 06		 mov	 DWORD PTR [esi], eax
$LN3@reserve@2:

; 772  : 			}
; 773  : 		}

  0009e	e8 00 00 00 00	 call	 __EH_epilog3
  000a3	c2 04 00	 ret	 4
__catch$?reserve@?$vector@UReserveDeleteMedal@ioExpandMedalSlotManager@@V?$allocator@UReserveDeleteMedal@ioExpandMedalSlotManager@@@std@@@std@@QAEXI@Z$0:

; 755  : 			_CATCH_ALL
; 756  : 			this->_Alval.deallocate(_Ptr, _Count);

  000a6	ff 75 08	 push	 DWORD PTR __Ptr$505847[ebp]
  000a9	e8 00 00 00 00	 call	 ??3@YAXPAX@Z		; operator delete
  000ae	59		 pop	 ecx

; 757  : 			_RERAISE;

  000af	6a 00		 push	 0
  000b1	6a 00		 push	 0
  000b3	e8 00 00 00 00	 call	 __CxxThrowException@8
$LN57@reserve@2:
$LN54@reserve@2:
  000b8	cc		 int	 3
_TEXT	ENDS
;	COMDAT text$x
text$x	SEGMENT
__ehhandler$?reserve@?$vector@UReserveDeleteMedal@ioExpandMedalSlotManager@@V?$allocator@UReserveDeleteMedal@ioExpandMedalSlotManager@@@std@@@std@@QAEXI@Z:
  00000	8b 54 24 08	 mov	 edx, DWORD PTR [esp+8]
  00004	8d 42 0c	 lea	 eax, DWORD PTR [edx+12]
  00007	8b 4a ec	 mov	 ecx, DWORD PTR [edx-20]
  0000a	33 c8		 xor	 ecx, eax
  0000c	e8 00 00 00 00	 call	 @__security_check_cookie@4
  00011	b8 00 00 00 00	 mov	 eax, OFFSET __ehfuncinfo$?reserve@?$vector@UReserveDeleteMedal@ioExpandMedalSlotManager@@V?$allocator@UReserveDeleteMedal@ioExpandMedalSlotManager@@@std@@@std@@QAEXI@Z
  00016	e9 00 00 00 00	 jmp	 ___CxxFrameHandler3
text$x	ENDS
?reserve@?$vector@UReserveDeleteMedal@ioExpandMedalSlotManager@@V?$allocator@UReserveDeleteMedal@ioExpandMedalSlotManager@@@std@@@std@@QAEXI@Z ENDP ; std::vector<ioExpandMedalSlotManager::ReserveDeleteMedal,std::allocator<ioExpandMedalSlotManager::ReserveDeleteMedal> >::reserve
PUBLIC	?clear@?$vector@UExpandMedalSlot@ioExpandMedalSlotManager@@V?$allocator@UExpandMedalSlot@ioExpandMedalSlotManager@@@std@@@std@@QAEXXZ ; std::vector<ioExpandMedalSlotManager::ExpandMedalSlot,std::allocator<ioExpandMedalSlotManager::ExpandMedalSlot> >::clear
; Function compile flags: /Ogsp
;	COMDAT ?clear@?$vector@UExpandMedalSlot@ioExpandMedalSlotManager@@V?$allocator@UExpandMedalSlot@ioExpandMedalSlotManager@@@std@@@std@@QAEXXZ
_TEXT	SEGMENT
$T509452 = -4						; size = 4
?clear@?$vector@UExpandMedalSlot@ioExpandMedalSlotManager@@V?$allocator@UExpandMedalSlot@ioExpandMedalSlotManager@@@std@@@std@@QAEXXZ PROC ; std::vector<ioExpandMedalSlotManager::ExpandMedalSlot,std::allocator<ioExpandMedalSlotManager::ExpandMedalSlot> >::clear, COMDAT
; _this$ = ecx

; 1217 : 		{	// erase all

  00000	55		 push	 ebp
  00001	8b ec		 mov	 ebp, esp
  00003	51		 push	 ecx

; 1218 : 		erase(begin(), end());

  00004	8b 41 04	 mov	 eax, DWORD PTR [ecx+4]
  00007	8b 11		 mov	 edx, DWORD PTR [ecx]
  00009	50		 push	 eax
  0000a	52		 push	 edx
  0000b	8d 45 fc	 lea	 eax, DWORD PTR $T509452[ebp]
  0000e	50		 push	 eax
  0000f	e8 00 00 00 00	 call	 ?erase@?$vector@UExpandMedalSlot@ioExpandMedalSlotManager@@V?$allocator@UExpandMedalSlot@ioExpandMedalSlotManager@@@std@@@std@@QAE?AV?$_Vector_iterator@V?$_Vector_val@UExpandMedalSlot@ioExpandMedalSlotManager@@V?$allocator@UExpandMedalSlot@ioExpandMedalSlotManager@@@std@@@std@@@2@V?$_Vector_const_iterator@V?$_Vector_val@UExpandMedalSlot@ioExpandMedalSlotManager@@V?$allocator@UExpandMedalSlot@ioExpandMedalSlotManager@@@std@@@std@@@2@0@Z ; std::vector<ioExpandMedalSlotManager::ExpandMedalSlot,std::allocator<ioExpandMedalSlotManager::ExpandMedalSlot> >::erase

; 1219 : 		}

  00014	c9		 leave
  00015	c3		 ret	 0
?clear@?$vector@UExpandMedalSlot@ioExpandMedalSlotManager@@V?$allocator@UExpandMedalSlot@ioExpandMedalSlotManager@@@std@@@std@@QAEXXZ ENDP ; std::vector<ioExpandMedalSlotManager::ExpandMedalSlot,std::allocator<ioExpandMedalSlotManager::ExpandMedalSlot> >::clear
_TEXT	ENDS
PUBLIC	??1?$vector@UReserveDeleteMedal@ioExpandMedalSlotManager@@V?$allocator@UReserveDeleteMedal@ioExpandMedalSlotManager@@@std@@@std@@QAE@XZ ; std::vector<ioExpandMedalSlotManager::ReserveDeleteMedal,std::allocator<ioExpandMedalSlotManager::ReserveDeleteMedal> >::~vector<ioExpandMedalSlotManager::ReserveDeleteMedal,std::allocator<ioExpandMedalSlotManager::ReserveDeleteMedal> >
; Function compile flags: /Ogsp
;	COMDAT ??1?$vector@UReserveDeleteMedal@ioExpandMedalSlotManager@@V?$allocator@UReserveDeleteMedal@ioExpandMedalSlotManager@@@std@@@std@@QAE@XZ
_TEXT	SEGMENT
??1?$vector@UReserveDeleteMedal@ioExpandMedalSlotManager@@V?$allocator@UReserveDeleteMedal@ioExpandMedalSlotManager@@@std@@@std@@QAE@XZ PROC ; std::vector<ioExpandMedalSlotManager::ReserveDeleteMedal,std::allocator<ioExpandMedalSlotManager::ReserveDeleteMedal> >::~vector<ioExpandMedalSlotManager::ReserveDeleteMedal,std::allocator<ioExpandMedalSlotManager::ReserveDeleteMedal> >, COMDAT
; _this$ = ecx

; 705  : 		_Tidy();

  00000	e9 00 00 00 00	 jmp	 ?_Tidy@?$vector@UReserveDeleteMedal@ioExpandMedalSlotManager@@V?$allocator@UReserveDeleteMedal@ioExpandMedalSlotManager@@@std@@@std@@IAEXXZ ; std::vector<ioExpandMedalSlotManager::ReserveDeleteMedal,std::allocator<ioExpandMedalSlotManager::ReserveDeleteMedal> >::_Tidy
??1?$vector@UReserveDeleteMedal@ioExpandMedalSlotManager@@V?$allocator@UReserveDeleteMedal@ioExpandMedalSlotManager@@@std@@@std@@QAE@XZ ENDP ; std::vector<ioExpandMedalSlotManager::ReserveDeleteMedal,std::allocator<ioExpandMedalSlotManager::ReserveDeleteMedal> >::~vector<ioExpandMedalSlotManager::ReserveDeleteMedal,std::allocator<ioExpandMedalSlotManager::ReserveDeleteMedal> >
_TEXT	ENDS
PUBLIC	?clear@?$vector@UReserveDeleteMedal@ioExpandMedalSlotManager@@V?$allocator@UReserveDeleteMedal@ioExpandMedalSlotManager@@@std@@@std@@QAEXXZ ; std::vector<ioExpandMedalSlotManager::ReserveDeleteMedal,std::allocator<ioExpandMedalSlotManager::ReserveDeleteMedal> >::clear
; Function compile flags: /Ogsp
;	COMDAT ?clear@?$vector@UReserveDeleteMedal@ioExpandMedalSlotManager@@V?$allocator@UReserveDeleteMedal@ioExpandMedalSlotManager@@@std@@@std@@QAEXXZ
_TEXT	SEGMENT
$T509516 = -4						; size = 4
?clear@?$vector@UReserveDeleteMedal@ioExpandMedalSlotManager@@V?$allocator@UReserveDeleteMedal@ioExpandMedalSlotManager@@@std@@@std@@QAEXXZ PROC ; std::vector<ioExpandMedalSlotManager::ReserveDeleteMedal,std::allocator<ioExpandMedalSlotManager::ReserveDeleteMedal> >::clear, COMDAT
; _this$ = ecx

; 1217 : 		{	// erase all

  00000	55		 push	 ebp
  00001	8b ec		 mov	 ebp, esp
  00003	51		 push	 ecx

; 1218 : 		erase(begin(), end());

  00004	8b 41 04	 mov	 eax, DWORD PTR [ecx+4]
  00007	8b 11		 mov	 edx, DWORD PTR [ecx]
  00009	50		 push	 eax
  0000a	52		 push	 edx
  0000b	8d 45 fc	 lea	 eax, DWORD PTR $T509516[ebp]
  0000e	50		 push	 eax
  0000f	e8 00 00 00 00	 call	 ?erase@?$vector@UReserveDeleteMedal@ioExpandMedalSlotManager@@V?$allocator@UReserveDeleteMedal@ioExpandMedalSlotManager@@@std@@@std@@QAE?AV?$_Vector_iterator@V?$_Vector_val@UReserveDeleteMedal@ioExpandMedalSlotManager@@V?$allocator@UReserveDeleteMedal@ioExpandMedalSlotManager@@@std@@@std@@@2@V?$_Vector_const_iterator@V?$_Vector_val@UReserveDeleteMedal@ioExpandMedalSlotManager@@V?$allocator@UReserveDeleteMedal@ioExpandMedalSlotManager@@@std@@@std@@@2@0@Z ; std::vector<ioExpandMedalSlotManager::ReserveDeleteMedal,std::allocator<ioExpandMedalSlotManager::ReserveDeleteMedal> >::erase

; 1219 : 		}

  00014	c9		 leave
  00015	c3		 ret	 0
?clear@?$vector@UReserveDeleteMedal@ioExpandMedalSlotManager@@V?$allocator@UReserveDeleteMedal@ioExpandMedalSlotManager@@@std@@@std@@QAEXXZ ENDP ; std::vector<ioExpandMedalSlotManager::ReserveDeleteMedal,std::allocator<ioExpandMedalSlotManager::ReserveDeleteMedal> >::clear
_TEXT	ENDS
PUBLIC	?_Reserve@?$vector@UExpandMedalSlot@ioExpandMedalSlotManager@@V?$allocator@UExpandMedalSlot@ioExpandMedalSlotManager@@@std@@@std@@IAEXI@Z ; std::vector<ioExpandMedalSlotManager::ExpandMedalSlot,std::allocator<ioExpandMedalSlotManager::ExpandMedalSlot> >::_Reserve
; Function compile flags: /Ogsp
;	COMDAT ?_Reserve@?$vector@UExpandMedalSlot@ioExpandMedalSlotManager@@V?$allocator@UExpandMedalSlot@ioExpandMedalSlotManager@@@std@@@std@@IAEXI@Z
_TEXT	SEGMENT
__Count$ = 8						; size = 4
?_Reserve@?$vector@UExpandMedalSlot@ioExpandMedalSlotManager@@V?$allocator@UExpandMedalSlot@ioExpandMedalSlotManager@@@std@@@std@@IAEXI@Z PROC ; std::vector<ioExpandMedalSlotManager::ExpandMedalSlot,std::allocator<ioExpandMedalSlotManager::ExpandMedalSlot> >::_Reserve, COMDAT
; _this$ = ecx

; 1290 : 		{	// ensure room for _Count new elements, grow exponentially

  00000	55		 push	 ebp
  00001	8b ec		 mov	 ebp, esp
  00003	56		 push	 esi
  00004	8b f1		 mov	 esi, ecx

; 1291 : 		size_type _Size = size();

  00006	8b 0e		 mov	 ecx, DWORD PTR [esi]
  00008	8b 46 04	 mov	 eax, DWORD PTR [esi+4]
  0000b	2b c1		 sub	 eax, ecx
  0000d	57		 push	 edi
  0000e	99		 cdq
  0000f	6a 0c		 push	 12			; 0000000cH
  00011	5f		 pop	 edi
  00012	f7 ff		 idiv	 edi
  00014	8b f8		 mov	 edi, eax

; 1292 : 		if (max_size() - _Count < _Size)

  00016	b8 55 55 55 15	 mov	 eax, 357913941		; 15555555H
  0001b	2b 45 08	 sub	 eax, DWORD PTR __Count$[ebp]
  0001e	3b c7		 cmp	 eax, edi
  00020	73 0b		 jae	 SHORT $LN4@Reserve

; 1293 : 			_Xlen();

  00022	68 00 00 00 00	 push	 OFFSET ??_C@_0BD@OLBABOEK@vector?$DMT?$DO?5too?5long?$AA@
  00027	ff 15 00 00 00
	00		 call	 DWORD PTR __imp_?_Xlength_error@std@@YAXPBD@Z
$LN21@Reserve:
$LN4@Reserve:

; 1294 : 		else if ((_Size += _Count) <= capacity())

  0002d	8b 46 08	 mov	 eax, DWORD PTR [esi+8]
  00030	2b c1		 sub	 eax, ecx
  00032	6a 0c		 push	 12			; 0000000cH
  00034	99		 cdq
  00035	59		 pop	 ecx
  00036	f7 f9		 idiv	 ecx
  00038	03 7d 08	 add	 edi, DWORD PTR __Count$[ebp]
  0003b	3b f8		 cmp	 edi, eax
  0003d	76 10		 jbe	 SHORT $LN1@Reserve

; 1295 : 			;
; 1296 : 		else
; 1297 : 			reserve(_Grow_to(_Size));

  0003f	57		 push	 edi
  00040	8b ce		 mov	 ecx, esi
  00042	e8 00 00 00 00	 call	 ?_Grow_to@?$vector@UExpandMedalSlot@ioExpandMedalSlotManager@@V?$allocator@UExpandMedalSlot@ioExpandMedalSlotManager@@@std@@@std@@IBEII@Z ; std::vector<ioExpandMedalSlotManager::ExpandMedalSlot,std::allocator<ioExpandMedalSlotManager::ExpandMedalSlot> >::_Grow_to
  00047	50		 push	 eax
  00048	8b ce		 mov	 ecx, esi
  0004a	e8 00 00 00 00	 call	 ?reserve@?$vector@UExpandMedalSlot@ioExpandMedalSlotManager@@V?$allocator@UExpandMedalSlot@ioExpandMedalSlotManager@@@std@@@std@@QAEXI@Z ; std::vector<ioExpandMedalSlotManager::ExpandMedalSlot,std::allocator<ioExpandMedalSlotManager::ExpandMedalSlot> >::reserve
$LN1@Reserve:
  0004f	5f		 pop	 edi
  00050	5e		 pop	 esi

; 1298 : 		}

  00051	5d		 pop	 ebp
  00052	c2 04 00	 ret	 4
$LN20@Reserve:
?_Reserve@?$vector@UExpandMedalSlot@ioExpandMedalSlotManager@@V?$allocator@UExpandMedalSlot@ioExpandMedalSlotManager@@@std@@@std@@IAEXI@Z ENDP ; std::vector<ioExpandMedalSlotManager::ExpandMedalSlot,std::allocator<ioExpandMedalSlotManager::ExpandMedalSlot> >::_Reserve
_TEXT	ENDS
PUBLIC	?_Reserve@?$vector@UReserveDeleteMedal@ioExpandMedalSlotManager@@V?$allocator@UReserveDeleteMedal@ioExpandMedalSlotManager@@@std@@@std@@IAEXI@Z ; std::vector<ioExpandMedalSlotManager::ReserveDeleteMedal,std::allocator<ioExpandMedalSlotManager::ReserveDeleteMedal> >::_Reserve
; Function compile flags: /Ogsp
;	COMDAT ?_Reserve@?$vector@UReserveDeleteMedal@ioExpandMedalSlotManager@@V?$allocator@UReserveDeleteMedal@ioExpandMedalSlotManager@@@std@@@std@@IAEXI@Z
_TEXT	SEGMENT
__Count$ = 8						; size = 4
?_Reserve@?$vector@UReserveDeleteMedal@ioExpandMedalSlotManager@@V?$allocator@UReserveDeleteMedal@ioExpandMedalSlotManager@@@std@@@std@@IAEXI@Z PROC ; std::vector<ioExpandMedalSlotManager::ReserveDeleteMedal,std::allocator<ioExpandMedalSlotManager::ReserveDeleteMedal> >::_Reserve, COMDAT
; _this$ = ecx

; 1290 : 		{	// ensure room for _Count new elements, grow exponentially

  00000	55		 push	 ebp
  00001	8b ec		 mov	 ebp, esp
  00003	56		 push	 esi
  00004	8b f1		 mov	 esi, ecx

; 1291 : 		size_type _Size = size();

  00006	8b 0e		 mov	 ecx, DWORD PTR [esi]
  00008	8b 46 04	 mov	 eax, DWORD PTR [esi+4]
  0000b	2b c1		 sub	 eax, ecx
  0000d	57		 push	 edi
  0000e	99		 cdq
  0000f	6a 0c		 push	 12			; 0000000cH
  00011	5f		 pop	 edi
  00012	f7 ff		 idiv	 edi
  00014	8b f8		 mov	 edi, eax

; 1292 : 		if (max_size() - _Count < _Size)

  00016	b8 55 55 55 15	 mov	 eax, 357913941		; 15555555H
  0001b	2b 45 08	 sub	 eax, DWORD PTR __Count$[ebp]
  0001e	3b c7		 cmp	 eax, edi
  00020	73 0b		 jae	 SHORT $LN4@Reserve@2

; 1293 : 			_Xlen();

  00022	68 00 00 00 00	 push	 OFFSET ??_C@_0BD@OLBABOEK@vector?$DMT?$DO?5too?5long?$AA@
  00027	ff 15 00 00 00
	00		 call	 DWORD PTR __imp_?_Xlength_error@std@@YAXPBD@Z
$LN21@Reserve@2:
$LN4@Reserve@2:

; 1294 : 		else if ((_Size += _Count) <= capacity())

  0002d	8b 46 08	 mov	 eax, DWORD PTR [esi+8]
  00030	2b c1		 sub	 eax, ecx
  00032	6a 0c		 push	 12			; 0000000cH
  00034	99		 cdq
  00035	59		 pop	 ecx
  00036	f7 f9		 idiv	 ecx
  00038	03 7d 08	 add	 edi, DWORD PTR __Count$[ebp]
  0003b	3b f8		 cmp	 edi, eax
  0003d	76 10		 jbe	 SHORT $LN1@Reserve@2

; 1295 : 			;
; 1296 : 		else
; 1297 : 			reserve(_Grow_to(_Size));

  0003f	57		 push	 edi
  00040	8b ce		 mov	 ecx, esi
  00042	e8 00 00 00 00	 call	 ?_Grow_to@?$vector@UReserveDeleteMedal@ioExpandMedalSlotManager@@V?$allocator@UReserveDeleteMedal@ioExpandMedalSlotManager@@@std@@@std@@IBEII@Z ; std::vector<ioExpandMedalSlotManager::ReserveDeleteMedal,std::allocator<ioExpandMedalSlotManager::ReserveDeleteMedal> >::_Grow_to
  00047	50		 push	 eax
  00048	8b ce		 mov	 ecx, esi
  0004a	e8 00 00 00 00	 call	 ?reserve@?$vector@UReserveDeleteMedal@ioExpandMedalSlotManager@@V?$allocator@UReserveDeleteMedal@ioExpandMedalSlotManager@@@std@@@std@@QAEXI@Z ; std::vector<ioExpandMedalSlotManager::ReserveDeleteMedal,std::allocator<ioExpandMedalSlotManager::ReserveDeleteMedal> >::reserve
$LN1@Reserve@2:
  0004f	5f		 pop	 edi
  00050	5e		 pop	 esi

; 1298 : 		}

  00051	5d		 pop	 ebp
  00052	c2 04 00	 ret	 4
$LN20@Reserve@2:
?_Reserve@?$vector@UReserveDeleteMedal@ioExpandMedalSlotManager@@V?$allocator@UReserveDeleteMedal@ioExpandMedalSlotManager@@@std@@@std@@IAEXI@Z ENDP ; std::vector<ioExpandMedalSlotManager::ReserveDeleteMedal,std::allocator<ioExpandMedalSlotManager::ReserveDeleteMedal> >::_Reserve
_TEXT	ENDS
PUBLIC	??_7ioExpandMedalSlotManager@@6B@		; ioExpandMedalSlotManager::`vftable'
PUBLIC	??0ioExpandMedalSlotManager@@QAE@XZ		; ioExpandMedalSlotManager::ioExpandMedalSlotManager
PUBLIC	??_R4ioExpandMedalSlotManager@@6B@		; ioExpandMedalSlotManager::`RTTI Complete Object Locator'
PUBLIC	??_R0?AVioExpandMedalSlotManager@@@8		; ioExpandMedalSlotManager `RTTI Type Descriptor'
PUBLIC	??_R3ioExpandMedalSlotManager@@8		; ioExpandMedalSlotManager::`RTTI Class Hierarchy Descriptor'
PUBLIC	??_R2ioExpandMedalSlotManager@@8		; ioExpandMedalSlotManager::`RTTI Base Class Array'
PUBLIC	??_R1A@?0A@EA@ioExpandMedalSlotManager@@8	; ioExpandMedalSlotManager::`RTTI Base Class Descriptor at (0,-1,0,64)'
PUBLIC	??_R13?0A@EA@?$Singleton@VioExpandMedalSlotManager@@@@8 ; Singleton<ioExpandMedalSlotManager>::`RTTI Base Class Descriptor at (4,-1,0,64)'
PUBLIC	??_R0?AV?$Singleton@VioExpandMedalSlotManager@@@@@8 ; Singleton<ioExpandMedalSlotManager> `RTTI Type Descriptor'
PUBLIC	??_R3?$Singleton@VioExpandMedalSlotManager@@@@8	; Singleton<ioExpandMedalSlotManager>::`RTTI Class Hierarchy Descriptor'
PUBLIC	??_R2?$Singleton@VioExpandMedalSlotManager@@@@8	; Singleton<ioExpandMedalSlotManager>::`RTTI Base Class Array'
PUBLIC	??_R1A@?0A@EA@?$Singleton@VioExpandMedalSlotManager@@@@8 ; Singleton<ioExpandMedalSlotManager>::`RTTI Base Class Descriptor at (0,-1,0,64)'
EXTRN	??_EioExpandMedalSlotManager@@UAEPAXI@Z:PROC	; ioExpandMedalSlotManager::`vector deleting destructor'
;	COMDAT ??_R1A@?0A@EA@?$Singleton@VioExpandMedalSlotManager@@@@8
; File c:\program files (x86)\microsoft visual studio 10.0\vc\include\xmemory
rdata$r	SEGMENT
??_R1A@?0A@EA@?$Singleton@VioExpandMedalSlotManager@@@@8 DD FLAT:??_R0?AV?$Singleton@VioExpandMedalSlotManager@@@@@8 ; Singleton<ioExpandMedalSlotManager>::`RTTI Base Class Descriptor at (0,-1,0,64)'
	DD	00H
	DD	00H
	DD	0ffffffffH
	DD	00H
	DD	040H
	DD	FLAT:??_R3?$Singleton@VioExpandMedalSlotManager@@@@8
rdata$r	ENDS
;	COMDAT ??_R2?$Singleton@VioExpandMedalSlotManager@@@@8
rdata$r	SEGMENT
??_R2?$Singleton@VioExpandMedalSlotManager@@@@8 DD FLAT:??_R1A@?0A@EA@?$Singleton@VioExpandMedalSlotManager@@@@8 ; Singleton<ioExpandMedalSlotManager>::`RTTI Base Class Array'
rdata$r	ENDS
;	COMDAT ??_R3?$Singleton@VioExpandMedalSlotManager@@@@8
rdata$r	SEGMENT
??_R3?$Singleton@VioExpandMedalSlotManager@@@@8 DD 00H	; Singleton<ioExpandMedalSlotManager>::`RTTI Class Hierarchy Descriptor'
	DD	00H
	DD	01H
	DD	FLAT:??_R2?$Singleton@VioExpandMedalSlotManager@@@@8
rdata$r	ENDS
;	COMDAT ??_R0?AV?$Singleton@VioExpandMedalSlotManager@@@@@8
_DATA	SEGMENT
??_R0?AV?$Singleton@VioExpandMedalSlotManager@@@@@8 DD FLAT:??_7type_info@@6B@ ; Singleton<ioExpandMedalSlotManager> `RTTI Type Descriptor'
	DD	00H
	DB	'.?AV?$Singleton@VioExpandMedalSlotManager@@@@', 00H
_DATA	ENDS
;	COMDAT ??_R13?0A@EA@?$Singleton@VioExpandMedalSlotManager@@@@8
rdata$r	SEGMENT
??_R13?0A@EA@?$Singleton@VioExpandMedalSlotManager@@@@8 DD FLAT:??_R0?AV?$Singleton@VioExpandMedalSlotManager@@@@@8 ; Singleton<ioExpandMedalSlotManager>::`RTTI Base Class Descriptor at (4,-1,0,64)'
	DD	00H
	DD	04H
	DD	0ffffffffH
	DD	00H
	DD	040H
	DD	FLAT:??_R3?$Singleton@VioExpandMedalSlotManager@@@@8
rdata$r	ENDS
;	COMDAT ??_R1A@?0A@EA@ioExpandMedalSlotManager@@8
rdata$r	SEGMENT
??_R1A@?0A@EA@ioExpandMedalSlotManager@@8 DD FLAT:??_R0?AVioExpandMedalSlotManager@@@8 ; ioExpandMedalSlotManager::`RTTI Base Class Descriptor at (0,-1,0,64)'
	DD	01H
	DD	00H
	DD	0ffffffffH
	DD	00H
	DD	040H
	DD	FLAT:??_R3ioExpandMedalSlotManager@@8
rdata$r	ENDS
;	COMDAT ??_R2ioExpandMedalSlotManager@@8
rdata$r	SEGMENT
??_R2ioExpandMedalSlotManager@@8 DD FLAT:??_R1A@?0A@EA@ioExpandMedalSlotManager@@8 ; ioExpandMedalSlotManager::`RTTI Base Class Array'
	DD	FLAT:??_R13?0A@EA@?$Singleton@VioExpandMedalSlotManager@@@@8
rdata$r	ENDS
;	COMDAT ??_R3ioExpandMedalSlotManager@@8
rdata$r	SEGMENT
??_R3ioExpandMedalSlotManager@@8 DD 00H			; ioExpandMedalSlotManager::`RTTI Class Hierarchy Descriptor'
	DD	00H
	DD	02H
	DD	FLAT:??_R2ioExpandMedalSlotManager@@8
rdata$r	ENDS
;	COMDAT ??_R0?AVioExpandMedalSlotManager@@@8
_DATA	SEGMENT
??_R0?AVioExpandMedalSlotManager@@@8 DD FLAT:??_7type_info@@6B@ ; ioExpandMedalSlotManager `RTTI Type Descriptor'
	DD	00H
	DB	'.?AVioExpandMedalSlotManager@@', 00H
_DATA	ENDS
;	COMDAT ??_R4ioExpandMedalSlotManager@@6B@
rdata$r	SEGMENT
??_R4ioExpandMedalSlotManager@@6B@ DD 00H		; ioExpandMedalSlotManager::`RTTI Complete Object Locator'
	DD	00H
	DD	00H
	DD	FLAT:??_R0?AVioExpandMedalSlotManager@@@8
	DD	FLAT:??_R3ioExpandMedalSlotManager@@8
rdata$r	ENDS
;	COMDAT ??_7ioExpandMedalSlotManager@@6B@
CONST	SEGMENT
??_7ioExpandMedalSlotManager@@6B@ DD FLAT:??_R4ioExpandMedalSlotManager@@6B@ ; ioExpandMedalSlotManager::`vftable'
	DD	FLAT:??_EioExpandMedalSlotManager@@UAEPAXI@Z
; Function compile flags: /Ogsp
; File d:\lost saga for developer\youtube\tutorial\source\src\lsclient\ioexpandmedalslotmanager.cpp
CONST	ENDS
;	COMDAT ??0ioExpandMedalSlotManager@@QAE@XZ
_TEXT	SEGMENT
??0ioExpandMedalSlotManager@@QAE@XZ PROC		; ioExpandMedalSlotManager::ioExpandMedalSlotManager, COMDAT
; _this$ = ecx

; 12   : {

  00000	8b c1		 mov	 eax, ecx
  00002	a3 00 00 00 00	 mov	 DWORD PTR ?ms_Singleton@?$Singleton@VioExpandMedalSlotManager@@@@1PAVioExpandMedalSlotManager@@A, eax ; Singleton<ioExpandMedalSlotManager>::ms_Singleton
  00007	33 c9		 xor	 ecx, ecx
  00009	c7 00 00 00 00
	00		 mov	 DWORD PTR [eax], OFFSET ??_7ioExpandMedalSlotManager@@6B@
  0000f	89 48 04	 mov	 DWORD PTR [eax+4], ecx
  00012	89 48 08	 mov	 DWORD PTR [eax+8], ecx
  00015	89 48 0c	 mov	 DWORD PTR [eax+12], ecx
  00018	89 48 14	 mov	 DWORD PTR [eax+20], ecx
  0001b	89 48 18	 mov	 DWORD PTR [eax+24], ecx
  0001e	89 48 1c	 mov	 DWORD PTR [eax+28], ecx

; 13   : }

  00021	c3		 ret	 0
??0ioExpandMedalSlotManager@@QAE@XZ ENDP		; ioExpandMedalSlotManager::ioExpandMedalSlotManager
_TEXT	ENDS
PUBLIC	?Clear@ioExpandMedalSlotManager@@IAEXXZ		; ioExpandMedalSlotManager::Clear
; Function compile flags: /Ogsp
;	COMDAT ?Clear@ioExpandMedalSlotManager@@IAEXXZ
_TEXT	SEGMENT
$T509836 = -4						; size = 4
$T509756 = -4						; size = 4
?Clear@ioExpandMedalSlotManager@@IAEXXZ PROC		; ioExpandMedalSlotManager::Clear, COMDAT
; _this$ = ecx

; 26   : {

  00000	55		 push	 ebp
  00001	8b ec		 mov	 ebp, esp
  00003	51		 push	 ecx
  00004	56		 push	 esi
  00005	8b f1		 mov	 esi, ecx

; 27   : 	m_vExpandSlotInfoVec.clear();

  00007	8d 4e 04	 lea	 ecx, DWORD PTR [esi+4]
  0000a	8b 41 04	 mov	 eax, DWORD PTR [ecx+4]
  0000d	8b 11		 mov	 edx, DWORD PTR [ecx]
  0000f	50		 push	 eax
  00010	52		 push	 edx
  00011	8d 45 fc	 lea	 eax, DWORD PTR $T509756[ebp]
  00014	50		 push	 eax
  00015	e8 00 00 00 00	 call	 ?erase@?$vector@UExpandMedalSlot@ioExpandMedalSlotManager@@V?$allocator@UExpandMedalSlot@ioExpandMedalSlotManager@@@std@@@std@@QAE?AV?$_Vector_iterator@V?$_Vector_val@UExpandMedalSlot@ioExpandMedalSlotManager@@V?$allocator@UExpandMedalSlot@ioExpandMedalSlotManager@@@std@@@std@@@2@V?$_Vector_const_iterator@V?$_Vector_val@UExpandMedalSlot@ioExpandMedalSlotManager@@V?$allocator@UExpandMedalSlot@ioExpandMedalSlotManager@@@std@@@std@@@2@0@Z ; std::vector<ioExpandMedalSlotManager::ExpandMedalSlot,std::allocator<ioExpandMedalSlotManager::ExpandMedalSlot> >::erase

; 28   : 	m_vReserveDeleteMedal.clear();

  0001a	8d 4e 14	 lea	 ecx, DWORD PTR [esi+20]
  0001d	8b 41 04	 mov	 eax, DWORD PTR [ecx+4]
  00020	8b 11		 mov	 edx, DWORD PTR [ecx]
  00022	50		 push	 eax
  00023	52		 push	 edx
  00024	8d 45 fc	 lea	 eax, DWORD PTR $T509836[ebp]
  00027	50		 push	 eax
  00028	e8 00 00 00 00	 call	 ?erase@?$vector@UReserveDeleteMedal@ioExpandMedalSlotManager@@V?$allocator@UReserveDeleteMedal@ioExpandMedalSlotManager@@@std@@@std@@QAE?AV?$_Vector_iterator@V?$_Vector_val@UReserveDeleteMedal@ioExpandMedalSlotManager@@V?$allocator@UReserveDeleteMedal@ioExpandMedalSlotManager@@@std@@@std@@@2@V?$_Vector_const_iterator@V?$_Vector_val@UReserveDeleteMedal@ioExpandMedalSlotManager@@V?$allocator@UReserveDeleteMedal@ioExpandMedalSlotManager@@@std@@@std@@@2@0@Z ; std::vector<ioExpandMedalSlotManager::ReserveDeleteMedal,std::allocator<ioExpandMedalSlotManager::ReserveDeleteMedal> >::erase
  0002d	5e		 pop	 esi

; 29   : }

  0002e	c9		 leave
  0002f	c3		 ret	 0
?Clear@ioExpandMedalSlotManager@@IAEXXZ ENDP		; ioExpandMedalSlotManager::Clear
_TEXT	ENDS
PUBLIC	?push_back@?$vector@UExpandMedalSlot@ioExpandMedalSlotManager@@V?$allocator@UExpandMedalSlot@ioExpandMedalSlotManager@@@std@@@std@@QAEXABUExpandMedalSlot@ioExpandMedalSlotManager@@@Z ; std::vector<ioExpandMedalSlotManager::ExpandMedalSlot,std::allocator<ioExpandMedalSlotManager::ExpandMedalSlot> >::push_back
; Function compile flags: /Ogsp
; File c:\program files (x86)\microsoft visual studio 10.0\vc\include\vector
;	COMDAT ?push_back@?$vector@UExpandMedalSlot@ioExpandMedalSlotManager@@V?$allocator@UExpandMedalSlot@ioExpandMedalSlotManager@@@std@@@std@@QAEXABUExpandMedalSlot@ioExpandMedalSlotManager@@@Z
_TEXT	SEGMENT
__Val$ = 8						; size = 4
?push_back@?$vector@UExpandMedalSlot@ioExpandMedalSlotManager@@V?$allocator@UExpandMedalSlot@ioExpandMedalSlotManager@@@std@@@std@@QAEXABUExpandMedalSlot@ioExpandMedalSlotManager@@@Z PROC ; std::vector<ioExpandMedalSlotManager::ExpandMedalSlot,std::allocator<ioExpandMedalSlotManager::ExpandMedalSlot> >::push_back, COMDAT
; _this$ = ecx

; 976  : 		{	// insert element at end

  00000	55		 push	 ebp
  00001	8b ec		 mov	 ebp, esp
  00003	56		 push	 esi
  00004	8b f1		 mov	 esi, ecx

; 977  : 		if (_Inside(_STD addressof(_Val)))

  00006	8b 4e 04	 mov	 ecx, DWORD PTR [esi+4]
  00009	57		 push	 edi
  0000a	8b 7d 08	 mov	 edi, DWORD PTR __Val$[ebp]
  0000d	3b f9		 cmp	 edi, ecx
  0000f	73 34		 jae	 SHORT $LN4@push_back
  00011	8b 16		 mov	 edx, DWORD PTR [esi]
  00013	3b d7		 cmp	 edx, edi
  00015	77 2e		 ja	 SHORT $LN4@push_back

; 978  : 			{	// push back an element
; 979  : 			size_type _Idx = _STD addressof(_Val) - this->_Myfirst;

  00017	8b c7		 mov	 eax, edi
  00019	2b c2		 sub	 eax, edx
  0001b	6a 0c		 push	 12			; 0000000cH
  0001d	99		 cdq
  0001e	5f		 pop	 edi
  0001f	f7 ff		 idiv	 edi
  00021	8b f8		 mov	 edi, eax

; 980  : 			if (this->_Mylast == this->_Myend)

  00023	3b 4e 08	 cmp	 ecx, DWORD PTR [esi+8]
  00026	75 09		 jne	 SHORT $LN3@push_back

; 981  : 				_Reserve(1);

  00028	6a 01		 push	 1
  0002a	8b ce		 mov	 ecx, esi
  0002c	e8 00 00 00 00	 call	 ?_Reserve@?$vector@UExpandMedalSlot@ioExpandMedalSlotManager@@V?$allocator@UExpandMedalSlot@ioExpandMedalSlotManager@@@std@@@std@@IAEXI@Z ; std::vector<ioExpandMedalSlotManager::ExpandMedalSlot,std::allocator<ioExpandMedalSlotManager::ExpandMedalSlot> >::_Reserve
$LN3@push_back:

; 982  : 			_Orphan_range(this->_Mylast, this->_Mylast);
; 983  : 			_Cons_val(this->_Alval,
; 984  : 				this->_Mylast,
; 985  : 				this->_Myfirst[_Idx]);

  00031	6b ff 0c	 imul	 edi, 12			; 0000000cH
  00034	03 3e		 add	 edi, DWORD PTR [esi]
  00036	8d 46 0c	 lea	 eax, DWORD PTR [esi+12]
  00039	57		 push	 edi
  0003a	ff 76 04	 push	 DWORD PTR [esi+4]
  0003d	50		 push	 eax
  0003e	e8 00 00 00 00	 call	 ??$_Cons_val@V?$allocator@UExpandMedalSlot@ioExpandMedalSlotManager@@@std@@UExpandMedalSlot@ioExpandMedalSlotManager@@AAU34@@std@@YAXAAV?$allocator@UExpandMedalSlot@ioExpandMedalSlotManager@@@0@PAUExpandMedalSlot@ioExpandMedalSlotManager@@AAU23@@Z ; std::_Cons_val<std::allocator<ioExpandMedalSlotManager::ExpandMedalSlot>,ioExpandMedalSlotManager::ExpandMedalSlot,ioExpandMedalSlotManager::ExpandMedalSlot &>

; 986  : 			++this->_Mylast;
; 987  : 			}
; 988  : 		else

  00043	eb 1b		 jmp	 SHORT $LN20@push_back
$LN4@push_back:

; 989  : 			{	// push back a non-element
; 990  : 			if (this->_Mylast == this->_Myend)

  00045	3b 4e 08	 cmp	 ecx, DWORD PTR [esi+8]
  00048	75 09		 jne	 SHORT $LN1@push_back

; 991  : 				_Reserve(1);

  0004a	6a 01		 push	 1
  0004c	8b ce		 mov	 ecx, esi
  0004e	e8 00 00 00 00	 call	 ?_Reserve@?$vector@UExpandMedalSlot@ioExpandMedalSlotManager@@V?$allocator@UExpandMedalSlot@ioExpandMedalSlotManager@@@std@@@std@@IAEXI@Z ; std::vector<ioExpandMedalSlotManager::ExpandMedalSlot,std::allocator<ioExpandMedalSlotManager::ExpandMedalSlot> >::_Reserve
$LN1@push_back:

; 992  : 			_Orphan_range(this->_Mylast, this->_Mylast);
; 993  : 			_Cons_val(this->_Alval,
; 994  : 				this->_Mylast,
; 995  : 				_Val);

  00053	57		 push	 edi
  00054	ff 76 04	 push	 DWORD PTR [esi+4]
  00057	8d 46 0c	 lea	 eax, DWORD PTR [esi+12]
  0005a	50		 push	 eax
  0005b	e8 00 00 00 00	 call	 ??$_Cons_val@V?$allocator@UExpandMedalSlot@ioExpandMedalSlotManager@@@std@@UExpandMedalSlot@ioExpandMedalSlotManager@@ABU34@@std@@YAXAAV?$allocator@UExpandMedalSlot@ioExpandMedalSlotManager@@@0@PAUExpandMedalSlot@ioExpandMedalSlotManager@@ABU23@@Z ; std::_Cons_val<std::allocator<ioExpandMedalSlotManager::ExpandMedalSlot>,ioExpandMedalSlotManager::ExpandMedalSlot,ioExpandMedalSlotManager::ExpandMedalSlot const &>
$LN20@push_back:
  00060	83 c4 0c	 add	 esp, 12			; 0000000cH

; 996  : 			++this->_Mylast;

  00063	83 46 04 0c	 add	 DWORD PTR [esi+4], 12	; 0000000cH
  00067	5f		 pop	 edi
  00068	5e		 pop	 esi

; 997  : 			}
; 998  : 		}

  00069	5d		 pop	 ebp
  0006a	c2 04 00	 ret	 4
?push_back@?$vector@UExpandMedalSlot@ioExpandMedalSlotManager@@V?$allocator@UExpandMedalSlot@ioExpandMedalSlotManager@@@std@@@std@@QAEXABUExpandMedalSlot@ioExpandMedalSlotManager@@@Z ENDP ; std::vector<ioExpandMedalSlotManager::ExpandMedalSlot,std::allocator<ioExpandMedalSlotManager::ExpandMedalSlot> >::push_back
_TEXT	ENDS
PUBLIC	?push_back@?$vector@UReserveDeleteMedal@ioExpandMedalSlotManager@@V?$allocator@UReserveDeleteMedal@ioExpandMedalSlotManager@@@std@@@std@@QAEXABUReserveDeleteMedal@ioExpandMedalSlotManager@@@Z ; std::vector<ioExpandMedalSlotManager::ReserveDeleteMedal,std::allocator<ioExpandMedalSlotManager::ReserveDeleteMedal> >::push_back
; Function compile flags: /Ogsp
;	COMDAT ?push_back@?$vector@UReserveDeleteMedal@ioExpandMedalSlotManager@@V?$allocator@UReserveDeleteMedal@ioExpandMedalSlotManager@@@std@@@std@@QAEXABUReserveDeleteMedal@ioExpandMedalSlotManager@@@Z
_TEXT	SEGMENT
__Val$ = 8						; size = 4
?push_back@?$vector@UReserveDeleteMedal@ioExpandMedalSlotManager@@V?$allocator@UReserveDeleteMedal@ioExpandMedalSlotManager@@@std@@@std@@QAEXABUReserveDeleteMedal@ioExpandMedalSlotManager@@@Z PROC ; std::vector<ioExpandMedalSlotManager::ReserveDeleteMedal,std::allocator<ioExpandMedalSlotManager::ReserveDeleteMedal> >::push_back, COMDAT
; _this$ = ecx

; 976  : 		{	// insert element at end

  00000	55		 push	 ebp
  00001	8b ec		 mov	 ebp, esp
  00003	56		 push	 esi
  00004	8b f1		 mov	 esi, ecx

; 977  : 		if (_Inside(_STD addressof(_Val)))

  00006	8b 4e 04	 mov	 ecx, DWORD PTR [esi+4]
  00009	57		 push	 edi
  0000a	8b 7d 08	 mov	 edi, DWORD PTR __Val$[ebp]
  0000d	3b f9		 cmp	 edi, ecx
  0000f	73 34		 jae	 SHORT $LN4@push_back@2
  00011	8b 16		 mov	 edx, DWORD PTR [esi]
  00013	3b d7		 cmp	 edx, edi
  00015	77 2e		 ja	 SHORT $LN4@push_back@2

; 978  : 			{	// push back an element
; 979  : 			size_type _Idx = _STD addressof(_Val) - this->_Myfirst;

  00017	8b c7		 mov	 eax, edi
  00019	2b c2		 sub	 eax, edx
  0001b	6a 0c		 push	 12			; 0000000cH
  0001d	99		 cdq
  0001e	5f		 pop	 edi
  0001f	f7 ff		 idiv	 edi
  00021	8b f8		 mov	 edi, eax

; 980  : 			if (this->_Mylast == this->_Myend)

  00023	3b 4e 08	 cmp	 ecx, DWORD PTR [esi+8]
  00026	75 09		 jne	 SHORT $LN3@push_back@2

; 981  : 				_Reserve(1);

  00028	6a 01		 push	 1
  0002a	8b ce		 mov	 ecx, esi
  0002c	e8 00 00 00 00	 call	 ?_Reserve@?$vector@UReserveDeleteMedal@ioExpandMedalSlotManager@@V?$allocator@UReserveDeleteMedal@ioExpandMedalSlotManager@@@std@@@std@@IAEXI@Z ; std::vector<ioExpandMedalSlotManager::ReserveDeleteMedal,std::allocator<ioExpandMedalSlotManager::ReserveDeleteMedal> >::_Reserve
$LN3@push_back@2:

; 982  : 			_Orphan_range(this->_Mylast, this->_Mylast);
; 983  : 			_Cons_val(this->_Alval,
; 984  : 				this->_Mylast,
; 985  : 				this->_Myfirst[_Idx]);

  00031	6b ff 0c	 imul	 edi, 12			; 0000000cH
  00034	03 3e		 add	 edi, DWORD PTR [esi]
  00036	8d 46 0c	 lea	 eax, DWORD PTR [esi+12]
  00039	57		 push	 edi
  0003a	ff 76 04	 push	 DWORD PTR [esi+4]
  0003d	50		 push	 eax
  0003e	e8 00 00 00 00	 call	 ??$_Cons_val@V?$allocator@UReserveDeleteMedal@ioExpandMedalSlotManager@@@std@@UReserveDeleteMedal@ioExpandMedalSlotManager@@AAU34@@std@@YAXAAV?$allocator@UReserveDeleteMedal@ioExpandMedalSlotManager@@@0@PAUReserveDeleteMedal@ioExpandMedalSlotManager@@AAU23@@Z ; std::_Cons_val<std::allocator<ioExpandMedalSlotManager::ReserveDeleteMedal>,ioExpandMedalSlotManager::ReserveDeleteMedal,ioExpandMedalSlotManager::ReserveDeleteMedal &>

; 986  : 			++this->_Mylast;
; 987  : 			}
; 988  : 		else

  00043	eb 1b		 jmp	 SHORT $LN20@push_back@2
$LN4@push_back@2:

; 989  : 			{	// push back a non-element
; 990  : 			if (this->_Mylast == this->_Myend)

  00045	3b 4e 08	 cmp	 ecx, DWORD PTR [esi+8]
  00048	75 09		 jne	 SHORT $LN1@push_back@2

; 991  : 				_Reserve(1);

  0004a	6a 01		 push	 1
  0004c	8b ce		 mov	 ecx, esi
  0004e	e8 00 00 00 00	 call	 ?_Reserve@?$vector@UReserveDeleteMedal@ioExpandMedalSlotManager@@V?$allocator@UReserveDeleteMedal@ioExpandMedalSlotManager@@@std@@@std@@IAEXI@Z ; std::vector<ioExpandMedalSlotManager::ReserveDeleteMedal,std::allocator<ioExpandMedalSlotManager::ReserveDeleteMedal> >::_Reserve
$LN1@push_back@2:

; 992  : 			_Orphan_range(this->_Mylast, this->_Mylast);
; 993  : 			_Cons_val(this->_Alval,
; 994  : 				this->_Mylast,
; 995  : 				_Val);

  00053	57		 push	 edi
  00054	ff 76 04	 push	 DWORD PTR [esi+4]
  00057	8d 46 0c	 lea	 eax, DWORD PTR [esi+12]
  0005a	50		 push	 eax
  0005b	e8 00 00 00 00	 call	 ??$_Cons_val@V?$allocator@UReserveDeleteMedal@ioExpandMedalSlotManager@@@std@@UReserveDeleteMedal@ioExpandMedalSlotManager@@ABU34@@std@@YAXAAV?$allocator@UReserveDeleteMedal@ioExpandMedalSlotManager@@@0@PAUReserveDeleteMedal@ioExpandMedalSlotManager@@ABU23@@Z ; std::_Cons_val<std::allocator<ioExpandMedalSlotManager::ReserveDeleteMedal>,ioExpandMedalSlotManager::ReserveDeleteMedal,ioExpandMedalSlotManager::ReserveDeleteMedal const &>
$LN20@push_back@2:
  00060	83 c4 0c	 add	 esp, 12			; 0000000cH

; 996  : 			++this->_Mylast;

  00063	83 46 04 0c	 add	 DWORD PTR [esi+4], 12	; 0000000cH
  00067	5f		 pop	 edi
  00068	5e		 pop	 esi

; 997  : 			}
; 998  : 		}

  00069	5d		 pop	 ebp
  0006a	c2 04 00	 ret	 4
?push_back@?$vector@UReserveDeleteMedal@ioExpandMedalSlotManager@@V?$allocator@UReserveDeleteMedal@ioExpandMedalSlotManager@@@std@@@std@@QAEXABUReserveDeleteMedal@ioExpandMedalSlotManager@@@Z ENDP ; std::vector<ioExpandMedalSlotManager::ReserveDeleteMedal,std::allocator<ioExpandMedalSlotManager::ReserveDeleteMedal> >::push_back
_TEXT	ENDS
PUBLIC	??1ioExpandMedalSlotManager@@UAE@XZ		; ioExpandMedalSlotManager::~ioExpandMedalSlotManager
EXTRN	__EH_prolog3:PROC
;	COMDAT xdata$x
; File d:\lost saga for developer\youtube\tutorial\source\src\io3dengine\iosingleton.h
xdata$x	SEGMENT
__unwindtable$??1ioExpandMedalSlotManager@@UAE@XZ DD 0ffffffffH
	DD	FLAT:__unwindfunclet$??1ioExpandMedalSlotManager@@UAE@XZ$0
	DD	00H
	DD	FLAT:__unwindfunclet$??1ioExpandMedalSlotManager@@UAE@XZ$1
__ehfuncinfo$??1ioExpandMedalSlotManager@@UAE@XZ DD 019930522H
	DD	02H
	DD	FLAT:__unwindtable$??1ioExpandMedalSlotManager@@UAE@XZ
	DD	2 DUP(00H)
	DD	2 DUP(00H)
	DD	00H
	DD	01H
; Function compile flags: /Ogsp
; File d:\lost saga for developer\youtube\tutorial\source\src\lsclient\ioexpandmedalslotmanager.cpp
xdata$x	ENDS
;	COMDAT ??1ioExpandMedalSlotManager@@UAE@XZ
_TEXT	SEGMENT
_this$ = -16						; size = 4
__$EHRec$ = -12						; size = 12
??1ioExpandMedalSlotManager@@UAE@XZ PROC		; ioExpandMedalSlotManager::~ioExpandMedalSlotManager, COMDAT
; _this$ = ecx

; 16   : {

  00000	6a 04		 push	 4
  00002	b8 00 00 00 00	 mov	 eax, __ehhandler$??1ioExpandMedalSlotManager@@UAE@XZ
  00007	e8 00 00 00 00	 call	 __EH_prolog3
  0000c	8b f1		 mov	 esi, ecx
  0000e	89 75 f0	 mov	 DWORD PTR _this$[ebp], esi
  00011	c7 06 00 00 00
	00		 mov	 DWORD PTR [esi], OFFSET ??_7ioExpandMedalSlotManager@@6B@
  00017	c7 45 fc 01 00
	00 00		 mov	 DWORD PTR __$EHRec$[ebp+8], 1

; 17   : 	Clear();

  0001e	e8 00 00 00 00	 call	 ?Clear@ioExpandMedalSlotManager@@IAEXXZ ; ioExpandMedalSlotManager::Clear

; 18   : }

  00023	8d 4e 14	 lea	 ecx, DWORD PTR [esi+20]
  00026	e8 00 00 00 00	 call	 ?_Tidy@?$vector@UReserveDeleteMedal@ioExpandMedalSlotManager@@V?$allocator@UReserveDeleteMedal@ioExpandMedalSlotManager@@@std@@@std@@IAEXXZ ; std::vector<ioExpandMedalSlotManager::ReserveDeleteMedal,std::allocator<ioExpandMedalSlotManager::ReserveDeleteMedal> >::_Tidy
  0002b	8d 4e 04	 lea	 ecx, DWORD PTR [esi+4]
  0002e	c6 45 fc 00	 mov	 BYTE PTR __$EHRec$[ebp+8], 0
  00032	e8 00 00 00 00	 call	 ?_Tidy@?$vector@UExpandMedalSlot@ioExpandMedalSlotManager@@V?$allocator@UExpandMedalSlot@ioExpandMedalSlotManager@@@std@@@std@@IAEXXZ ; std::vector<ioExpandMedalSlotManager::ExpandMedalSlot,std::allocator<ioExpandMedalSlotManager::ExpandMedalSlot> >::_Tidy
  00037	83 25 00 00 00
	00 00		 and	 DWORD PTR ?ms_Singleton@?$Singleton@VioExpandMedalSlotManager@@@@1PAVioExpandMedalSlotManager@@A, 0 ; Singleton<ioExpandMedalSlotManager>::ms_Singleton
  0003e	e8 00 00 00 00	 call	 __EH_epilog3
  00043	c3		 ret	 0
_TEXT	ENDS
;	COMDAT text$x
text$x	SEGMENT
__unwindfunclet$??1ioExpandMedalSlotManager@@UAE@XZ$0:
  00000	8b 4d f0	 mov	 ecx, DWORD PTR _this$[ebp]
  00003	83 c1 04	 add	 ecx, 4
  00006	e9 00 00 00 00	 jmp	 ??1?$Singleton@VioExpandMedalSlotManager@@@@QAE@XZ ; Singleton<ioExpandMedalSlotManager>::~Singleton<ioExpandMedalSlotManager>
__unwindfunclet$??1ioExpandMedalSlotManager@@UAE@XZ$1:
  0000b	8b 4d f0	 mov	 ecx, DWORD PTR _this$[ebp]
  0000e	83 c1 04	 add	 ecx, 4
  00011	e9 00 00 00 00	 jmp	 ??1?$vector@UExpandMedalSlot@ioExpandMedalSlotManager@@V?$allocator@UExpandMedalSlot@ioExpandMedalSlotManager@@@std@@@std@@QAE@XZ ; std::vector<ioExpandMedalSlotManager::ExpandMedalSlot,std::allocator<ioExpandMedalSlotManager::ExpandMedalSlot> >::~vector<ioExpandMedalSlotManager::ExpandMedalSlot,std::allocator<ioExpandMedalSlotManager::ExpandMedalSlot> >
__ehhandler$??1ioExpandMedalSlotManager@@UAE@XZ:
  00016	8b 54 24 08	 mov	 edx, DWORD PTR [esp+8]
  0001a	8d 42 0c	 lea	 eax, DWORD PTR [edx+12]
  0001d	8b 4a ec	 mov	 ecx, DWORD PTR [edx-20]
  00020	33 c8		 xor	 ecx, eax
  00022	e8 00 00 00 00	 call	 @__security_check_cookie@4
  00027	b8 00 00 00 00	 mov	 eax, OFFSET __ehfuncinfo$??1ioExpandMedalSlotManager@@UAE@XZ
  0002c	e9 00 00 00 00	 jmp	 ___CxxFrameHandler3
text$x	ENDS
??1ioExpandMedalSlotManager@@UAE@XZ ENDP		; ioExpandMedalSlotManager::~ioExpandMedalSlotManager
PUBLIC	?ApplyExpandMedalSlot@ioExpandMedalSlotManager@@QAEXAAVSP2Packet@@@Z ; ioExpandMedalSlotManager::ApplyExpandMedalSlot
EXTRN	??5SP2Packet@@QAEAAV0@AAE@Z:PROC		; SP2Packet::operator>>
EXTRN	??5SP2Packet@@QAEAAV0@AAH@Z:PROC		; SP2Packet::operator>>
; Function compile flags: /Ogsp
;	COMDAT ?ApplyExpandMedalSlot@ioExpandMedalSlotManager@@QAEXAAVSP2Packet@@@Z
_TEXT	SEGMENT
_kSlot$505100 = -28					; size = 12
_iLimitTime$505099 = -16				; size = 4
_iClassType$505098 = -12				; size = 4
_iSize$ = -8						; size = 4
_iSlotNumber$505097 = -1				; size = 1
_rkPacket$ = 8						; size = 4
?ApplyExpandMedalSlot@ioExpandMedalSlotManager@@QAEXAAVSP2Packet@@@Z PROC ; ioExpandMedalSlotManager::ApplyExpandMedalSlot, COMDAT
; _this$ = ecx

; 32   : {

  00000	55		 push	 ebp
  00001	8b ec		 mov	 ebp, esp
  00003	83 ec 1c	 sub	 esp, 28			; 0000001cH
  00006	53		 push	 ebx
  00007	56		 push	 esi
  00008	57		 push	 edi
  00009	8b f9		 mov	 edi, ecx

; 33   : 	Clear();

  0000b	e8 00 00 00 00	 call	 ?Clear@ioExpandMedalSlotManager@@IAEXXZ ; ioExpandMedalSlotManager::Clear

; 34   : 
; 35   : 	int iSize = 0;
; 36   : 	rkPacket >> iSize;

  00010	8b 4d 08	 mov	 ecx, DWORD PTR _rkPacket$[ebp]
  00013	8d 45 f8	 lea	 eax, DWORD PTR _iSize$[ebp]
  00016	33 db		 xor	 ebx, ebx
  00018	50		 push	 eax
  00019	89 5d f8	 mov	 DWORD PTR _iSize$[ebp], ebx
  0001c	e8 00 00 00 00	 call	 ??5SP2Packet@@QAEAAV0@AAH@Z ; SP2Packet::operator>>

; 37   : 	for( int i=0; i<iSize; ++i )

  00021	33 f6		 xor	 esi, esi
  00023	39 5d f8	 cmp	 DWORD PTR _iSize$[ebp], ebx
  00026	7e 4f		 jle	 SHORT $LN1@ApplyExpan
$LL3@ApplyExpan:

; 38   : 	{
; 39   : 		BYTE iSlotNumber = 0;
; 40   : 		int  iClassType = 0;
; 41   : 		int  iLimitTime = 0;
; 42   : 		rkPacket >> iClassType >> iSlotNumber >> iLimitTime;

  00028	8b 4d 08	 mov	 ecx, DWORD PTR _rkPacket$[ebp]
  0002b	8d 45 f0	 lea	 eax, DWORD PTR _iLimitTime$505099[ebp]
  0002e	50		 push	 eax
  0002f	8d 45 ff	 lea	 eax, DWORD PTR _iSlotNumber$505097[ebp]
  00032	50		 push	 eax
  00033	8d 45 f4	 lea	 eax, DWORD PTR _iClassType$505098[ebp]
  00036	50		 push	 eax
  00037	88 5d ff	 mov	 BYTE PTR _iSlotNumber$505097[ebp], bl
  0003a	89 5d f4	 mov	 DWORD PTR _iClassType$505098[ebp], ebx
  0003d	89 5d f0	 mov	 DWORD PTR _iLimitTime$505099[ebp], ebx
  00040	e8 00 00 00 00	 call	 ??5SP2Packet@@QAEAAV0@AAH@Z ; SP2Packet::operator>>
  00045	8b c8		 mov	 ecx, eax
  00047	e8 00 00 00 00	 call	 ??5SP2Packet@@QAEAAV0@AAE@Z ; SP2Packet::operator>>
  0004c	8b c8		 mov	 ecx, eax
  0004e	e8 00 00 00 00	 call	 ??5SP2Packet@@QAEAAV0@AAH@Z ; SP2Packet::operator>>

; 43   : 
; 44   : 		ExpandMedalSlot kSlot;
; 45   : 		kSlot.m_iClassType = iClassType;

  00053	8b 45 f4	 mov	 eax, DWORD PTR _iClassType$505098[ebp]
  00056	89 45 e8	 mov	 DWORD PTR _kSlot$505100[ebp+4], eax

; 46   : 		kSlot.m_iSlotNumber = iSlotNumber;

  00059	8a 45 ff	 mov	 al, BYTE PTR _iSlotNumber$505097[ebp]
  0005c	88 45 e4	 mov	 BYTE PTR _kSlot$505100[ebp], al

; 47   : 		kSlot.m_dwLimitTime = iLimitTime;

  0005f	8b 45 f0	 mov	 eax, DWORD PTR _iLimitTime$505099[ebp]
  00062	89 45 ec	 mov	 DWORD PTR _kSlot$505100[ebp+8], eax

; 48   : 		m_vExpandSlotInfoVec.push_back( kSlot );

  00065	8d 45 e4	 lea	 eax, DWORD PTR _kSlot$505100[ebp]
  00068	50		 push	 eax
  00069	8d 4f 04	 lea	 ecx, DWORD PTR [edi+4]
  0006c	e8 00 00 00 00	 call	 ?push_back@?$vector@UExpandMedalSlot@ioExpandMedalSlotManager@@V?$allocator@UExpandMedalSlot@ioExpandMedalSlotManager@@@std@@@std@@QAEXABUExpandMedalSlot@ioExpandMedalSlotManager@@@Z ; std::vector<ioExpandMedalSlotManager::ExpandMedalSlot,std::allocator<ioExpandMedalSlotManager::ExpandMedalSlot> >::push_back
  00071	46		 inc	 esi
  00072	3b 75 f8	 cmp	 esi, DWORD PTR _iSize$[ebp]
  00075	7c b1		 jl	 SHORT $LL3@ApplyExpan
$LN1@ApplyExpan:
  00077	5f		 pop	 edi
  00078	5e		 pop	 esi
  00079	5b		 pop	 ebx

; 49   : 	}
; 50   : }

  0007a	c9		 leave
  0007b	c2 04 00	 ret	 4
?ApplyExpandMedalSlot@ioExpandMedalSlotManager@@QAEXAAVSP2Packet@@@Z ENDP ; ioExpandMedalSlotManager::ApplyExpandMedalSlot
_TEXT	ENDS
PUBLIC	?AddExpandMedalSlot@ioExpandMedalSlotManager@@QAEXEHH@Z ; ioExpandMedalSlotManager::AddExpandMedalSlot
; Function compile flags: /Ogsp
;	COMDAT ?AddExpandMedalSlot@ioExpandMedalSlotManager@@QAEXEHH@Z
_TEXT	SEGMENT
_kSlot$505116 = -12					; size = 12
tv163 = 8						; size = 4
_iSlotNumber$ = 8					; size = 1
_iClassType$ = 12					; size = 4
_bUpdate$ = 15						; size = 1
_iLimitTime$ = 16					; size = 4
?AddExpandMedalSlot@ioExpandMedalSlotManager@@QAEXEHH@Z PROC ; ioExpandMedalSlotManager::AddExpandMedalSlot, COMDAT
; _this$ = ecx

; 53   : {

  00000	55		 push	 ebp
  00001	8b ec		 mov	 ebp, esp
  00003	83 ec 0c	 sub	 esp, 12			; 0000000cH
  00006	53		 push	 ebx

; 54   : 	if( iClassType <= 0 )	return;

  00007	8b 5d 0c	 mov	 ebx, DWORD PTR _iClassType$[ebp]
  0000a	85 db		 test	 ebx, ebx
  0000c	7e 5a		 jle	 SHORT $LN1@AddExpandM

; 57   : 	int iCnt = m_vExpandSlotInfoVec.size();

  0000e	8b 41 08	 mov	 eax, DWORD PTR [ecx+8]
  00011	83 c1 04	 add	 ecx, 4
  00014	2b 01		 sub	 eax, DWORD PTR [ecx]
  00016	56		 push	 esi
  00017	57		 push	 edi
  00018	6a 0c		 push	 12			; 0000000cH
  0001a	99		 cdq
  0001b	5e		 pop	 esi
  0001c	f7 fe		 idiv	 esi

; 58   : 	for( int i=0; i<iCnt; ++i )

  0001e	8b 7d 10	 mov	 edi, DWORD PTR _iLimitTime$[ebp]
  00021	8a 55 08	 mov	 dl, BYTE PTR _iSlotNumber$[ebp]
  00024	c6 45 0f 00	 mov	 BYTE PTR _bUpdate$[ebp], 0
  00028	85 c0		 test	 eax, eax
  0002a	7e 28		 jle	 SHORT $LN21@AddExpandM

; 55   : 
; 56   : 	bool bUpdate = false;

  0002c	33 f6		 xor	 esi, esi
  0002e	89 45 08	 mov	 DWORD PTR tv163[ebp], eax
$LL5@AddExpandM:

; 59   : 	{
; 60   : 		if( m_vExpandSlotInfoVec[i].m_iSlotNumber == iSlotNumber &&
; 61   : 			m_vExpandSlotInfoVec[i].m_iClassType == iClassType )

  00031	8b 01		 mov	 eax, DWORD PTR [ecx]
  00033	38 14 30	 cmp	 BYTE PTR [eax+esi], dl
  00036	75 0e		 jne	 SHORT $LN4@AddExpandM
  00038	39 5c 30 04	 cmp	 DWORD PTR [eax+esi+4], ebx
  0003c	75 08		 jne	 SHORT $LN4@AddExpandM

; 62   : 		{
; 63   : 			m_vExpandSlotInfoVec[i].m_dwLimitTime = iLimitTime;

  0003e	89 7c 30 08	 mov	 DWORD PTR [eax+esi+8], edi

; 64   : 			bUpdate = true;

  00042	c6 45 0f 01	 mov	 BYTE PTR _bUpdate$[ebp], 1
$LN4@AddExpandM:

; 58   : 	for( int i=0; i<iCnt; ++i )

  00046	83 c6 0c	 add	 esi, 12			; 0000000cH
  00049	ff 4d 08	 dec	 DWORD PTR tv163[ebp]
  0004c	75 e3		 jne	 SHORT $LL5@AddExpandM

; 65   : 		}
; 66   : 	}
; 67   : 
; 68   : 	if( !bUpdate )

  0004e	80 7d 0f 00	 cmp	 BYTE PTR _bUpdate$[ebp], 0
  00052	75 12		 jne	 SHORT $LN23@AddExpandM
$LN21@AddExpandM:

; 69   : 	{
; 70   : 		ExpandMedalSlot kSlot;
; 71   : 		kSlot.m_iSlotNumber = iSlotNumber;
; 72   : 		kSlot.m_iClassType = iClassType;
; 73   : 		kSlot.m_dwLimitTime = iLimitTime;
; 74   : 		m_vExpandSlotInfoVec.push_back( kSlot );

  00054	8d 45 f4	 lea	 eax, DWORD PTR _kSlot$505116[ebp]
  00057	50		 push	 eax
  00058	88 55 f4	 mov	 BYTE PTR _kSlot$505116[ebp], dl
  0005b	89 5d f8	 mov	 DWORD PTR _kSlot$505116[ebp+4], ebx
  0005e	89 7d fc	 mov	 DWORD PTR _kSlot$505116[ebp+8], edi
  00061	e8 00 00 00 00	 call	 ?push_back@?$vector@UExpandMedalSlot@ioExpandMedalSlotManager@@V?$allocator@UExpandMedalSlot@ioExpandMedalSlotManager@@@std@@@std@@QAEXABUExpandMedalSlot@ioExpandMedalSlotManager@@@Z ; std::vector<ioExpandMedalSlotManager::ExpandMedalSlot,std::allocator<ioExpandMedalSlotManager::ExpandMedalSlot> >::push_back
$LN23@AddExpandM:
  00066	5f		 pop	 edi
  00067	5e		 pop	 esi
$LN1@AddExpandM:
  00068	5b		 pop	 ebx

; 75   : 	}
; 76   : }

  00069	c9		 leave
  0006a	c2 0c 00	 ret	 12			; 0000000cH
?AddExpandMedalSlot@ioExpandMedalSlotManager@@QAEXEHH@Z ENDP ; ioExpandMedalSlotManager::AddExpandMedalSlot
_TEXT	ENDS
PUBLIC	?GetExpandMedalSlot@ioExpandMedalSlotManager@@QAEHHAAV?$vector@UExpandMedalSlot@ioExpandMedalSlotManager@@V?$allocator@UExpandMedalSlot@ioExpandMedalSlotManager@@@std@@@std@@@Z ; ioExpandMedalSlotManager::GetExpandMedalSlot
; Function compile flags: /Ogsp
;	COMDAT ?GetExpandMedalSlot@ioExpandMedalSlotManager@@QAEHHAAV?$vector@UExpandMedalSlot@ioExpandMedalSlotManager@@V?$allocator@UExpandMedalSlot@ioExpandMedalSlotManager@@@std@@@std@@@Z
_TEXT	SEGMENT
tv187 = -4						; size = 4
_iClassType$ = 8					; size = 4
$T510025 = 12						; size = 4
_iCount$ = 12						; size = 4
_vExpandMedalSlot$ = 12					; size = 4
?GetExpandMedalSlot@ioExpandMedalSlotManager@@QAEHHAAV?$vector@UExpandMedalSlot@ioExpandMedalSlotManager@@V?$allocator@UExpandMedalSlot@ioExpandMedalSlotManager@@@std@@@std@@@Z PROC ; ioExpandMedalSlotManager::GetExpandMedalSlot, COMDAT
; _this$ = ecx

; 219  : {

  00000	55		 push	 ebp
  00001	8b ec		 mov	 ebp, esp
  00003	51		 push	 ecx
  00004	53		 push	 ebx

; 220  : 	if( iClassType == 0 )

  00005	33 db		 xor	 ebx, ebx
  00007	56		 push	 esi
  00008	8b f1		 mov	 esi, ecx
  0000a	39 5d 08	 cmp	 DWORD PTR _iClassType$[ebp], ebx
  0000d	75 04		 jne	 SHORT $LN5@GetExpandM@2

; 221  : 		return 0;

  0000f	33 c0		 xor	 eax, eax
  00011	eb 50		 jmp	 SHORT $LN6@GetExpandM@2
$LN5@GetExpandM@2:
  00013	57		 push	 edi

; 222  : 
; 223  : 	vExpandMedalSlot.clear();

  00014	8b 7d 0c	 mov	 edi, DWORD PTR _vExpandMedalSlot$[ebp]
  00017	8b 47 04	 mov	 eax, DWORD PTR [edi+4]
  0001a	8b 0f		 mov	 ecx, DWORD PTR [edi]
  0001c	50		 push	 eax
  0001d	51		 push	 ecx
  0001e	8d 45 0c	 lea	 eax, DWORD PTR $T510025[ebp]
  00021	50		 push	 eax
  00022	8b cf		 mov	 ecx, edi
  00024	e8 00 00 00 00	 call	 ?erase@?$vector@UExpandMedalSlot@ioExpandMedalSlotManager@@V?$allocator@UExpandMedalSlot@ioExpandMedalSlotManager@@@std@@@std@@QAE?AV?$_Vector_iterator@V?$_Vector_val@UExpandMedalSlot@ioExpandMedalSlotManager@@V?$allocator@UExpandMedalSlot@ioExpandMedalSlotManager@@@std@@@std@@@2@V?$_Vector_const_iterator@V?$_Vector_val@UExpandMedalSlot@ioExpandMedalSlotManager@@V?$allocator@UExpandMedalSlot@ioExpandMedalSlotManager@@@std@@@std@@@2@0@Z ; std::vector<ioExpandMedalSlotManager::ExpandMedalSlot,std::allocator<ioExpandMedalSlotManager::ExpandMedalSlot> >::erase

; 224  : 	int iCount = 0;
; 225  : 	int iMax = m_vExpandSlotInfoVec.size();

  00029	8b 46 08	 mov	 eax, DWORD PTR [esi+8]
  0002c	2b 46 04	 sub	 eax, DWORD PTR [esi+4]
  0002f	6a 0c		 push	 12			; 0000000cH
  00031	99		 cdq
  00032	59		 pop	 ecx
  00033	f7 f9		 idiv	 ecx
  00035	89 5d 0c	 mov	 DWORD PTR _iCount$[ebp], ebx

; 226  : 	for( int i=0; i<iMax; ++i )

  00038	3b c3		 cmp	 eax, ebx
  0003a	7e 23		 jle	 SHORT $LN36@GetExpandM@2

; 222  : 
; 223  : 	vExpandMedalSlot.clear();

  0003c	89 45 fc	 mov	 DWORD PTR tv187[ebp], eax
$LL4@GetExpandM@2:

; 227  : 	{
; 228  : 		ExpandMedalSlot kMedalSlot;
; 229  : 		if( m_vExpandSlotInfoVec[i].m_iClassType == iClassType )

  0003f	8b 46 04	 mov	 eax, DWORD PTR [esi+4]
  00042	8b 4d 08	 mov	 ecx, DWORD PTR _iClassType$[ebp]
  00045	03 c3		 add	 eax, ebx
  00047	39 48 04	 cmp	 DWORD PTR [eax+4], ecx
  0004a	75 0b		 jne	 SHORT $LN3@GetExpandM@2

; 230  : 		{
; 231  : 			vExpandMedalSlot.push_back( m_vExpandSlotInfoVec[i] );

  0004c	50		 push	 eax
  0004d	8b cf		 mov	 ecx, edi
  0004f	e8 00 00 00 00	 call	 ?push_back@?$vector@UExpandMedalSlot@ioExpandMedalSlotManager@@V?$allocator@UExpandMedalSlot@ioExpandMedalSlotManager@@@std@@@std@@QAEXABUExpandMedalSlot@ioExpandMedalSlotManager@@@Z ; std::vector<ioExpandMedalSlotManager::ExpandMedalSlot,std::allocator<ioExpandMedalSlotManager::ExpandMedalSlot> >::push_back

; 232  : 			iCount++;

  00054	ff 45 0c	 inc	 DWORD PTR _iCount$[ebp]
$LN3@GetExpandM@2:

; 226  : 	for( int i=0; i<iMax; ++i )

  00057	83 c3 0c	 add	 ebx, 12			; 0000000cH
  0005a	ff 4d fc	 dec	 DWORD PTR tv187[ebp]
  0005d	75 e0		 jne	 SHORT $LL4@GetExpandM@2
$LN36@GetExpandM@2:

; 233  : 		}
; 234  : 	}
; 235  : 
; 236  : 	return iCount;

  0005f	8b 45 0c	 mov	 eax, DWORD PTR _iCount$[ebp]
  00062	5f		 pop	 edi
$LN6@GetExpandM@2:
  00063	5e		 pop	 esi
  00064	5b		 pop	 ebx

; 237  : }

  00065	c9		 leave
  00066	c2 08 00	 ret	 8
?GetExpandMedalSlot@ioExpandMedalSlotManager@@QAEHHAAV?$vector@UExpandMedalSlot@ioExpandMedalSlotManager@@V?$allocator@UExpandMedalSlot@ioExpandMedalSlotManager@@@std@@@std@@@Z ENDP ; ioExpandMedalSlotManager::GetExpandMedalSlot
; Function compile flags: /Ogsp
_TEXT	ENDS
;	COMDAT ??_GioExpandMedalSlotManager@@UAEPAXI@Z
_TEXT	SEGMENT
___flags$ = 8						; size = 4
??_GioExpandMedalSlotManager@@UAEPAXI@Z PROC		; ioExpandMedalSlotManager::`scalar deleting destructor', COMDAT
; _this$ = ecx
  00000	55		 push	 ebp
  00001	8b ec		 mov	 ebp, esp
  00003	56		 push	 esi
  00004	8b f1		 mov	 esi, ecx
  00006	e8 00 00 00 00	 call	 ??1ioExpandMedalSlotManager@@UAE@XZ ; ioExpandMedalSlotManager::~ioExpandMedalSlotManager
  0000b	f6 45 08 01	 test	 BYTE PTR ___flags$[ebp], 1
  0000f	74 07		 je	 SHORT $LN1@scalar@2
  00011	56		 push	 esi
  00012	e8 00 00 00 00	 call	 ??3@YAXPAX@Z		; operator delete
  00017	59		 pop	 ecx
$LN1@scalar@2:
  00018	8b c6		 mov	 eax, esi
  0001a	5e		 pop	 esi
  0001b	5d		 pop	 ebp
  0001c	c2 04 00	 ret	 4
??_GioExpandMedalSlotManager@@UAEPAXI@Z ENDP		; ioExpandMedalSlotManager::`scalar deleting destructor'
_TEXT	ENDS
PUBLIC	_this$GSCopy$
PUBLIC	?DeleteMedalListByChar@ioExpandMedalSlotManager@@QAEXHH@Z ; ioExpandMedalSlotManager::DeleteMedalListByChar
EXTRN	?GetMedalItemTypeVec@ioUserMedalItem@@QAE_NAAV?$vector@HV?$allocator@H@std@@@std@@H@Z:PROC ; ioUserMedalItem::GetMedalItemTypeVec
EXTRN	?GetSlotNum@ioMedalItemInfoManager@@QAEHH@Z:PROC ; ioMedalItemInfoManager::GetSlotNum
EXTRN	?GetSingleton@ioMedalItemInfoManager@@SAAAV1@XZ:PROC ; ioMedalItemInfoManager::GetSingleton
EXTRN	?GetClassLevel@ioMyInfo@@QAEHH_N@Z:PROC		; ioMyInfo::GetClassLevel
EXTRN	__EH_epilog3_GS:PROC
EXTRN	__EH_prolog3_GS:PROC
;	COMDAT xdata$x
; File c:\program files (x86)\microsoft visual studio 10.0\vc\include\vector
xdata$x	SEGMENT
__unwindtable$?DeleteMedalListByChar@ioExpandMedalSlotManager@@QAEXHH@Z DD 0ffffffffH
	DD	FLAT:__unwindfunclet$?DeleteMedalListByChar@ioExpandMedalSlotManager@@QAEXHH@Z$0
	DD	00H
	DD	FLAT:__unwindfunclet$?DeleteMedalListByChar@ioExpandMedalSlotManager@@QAEXHH@Z$1
__ehfuncinfo$?DeleteMedalListByChar@ioExpandMedalSlotManager@@QAEXHH@Z DD 019930522H
	DD	02H
	DD	FLAT:__unwindtable$?DeleteMedalListByChar@ioExpandMedalSlotManager@@QAEXHH@Z
	DD	2 DUP(00H)
	DD	2 DUP(00H)
	DD	00H
	DD	01H
; Function compile flags: /Ogsp
; File d:\lost saga for developer\youtube\tutorial\source\src\lsclient\ioexpandmedalslotmanager.cpp
xdata$x	ENDS
;	COMDAT ?DeleteMedalListByChar@ioExpandMedalSlotManager@@QAEXHH@Z
_TEXT	SEGMENT
_eDeleteMedal$ = -88					; size = 12
_vExMedalSlot$ = -76					; size = 16
_this$GSCopy$ = -60					; size = 4
_vMedalItemIndex$ = -56					; size = 16
_iMedalIndexBySlot$ = -40				; size = 24
__$EHRec$ = -12						; size = 12
_iClassType$ = 8					; size = 4
_iSlotNumber$ = 12					; size = 4
?DeleteMedalListByChar@ioExpandMedalSlotManager@@QAEXHH@Z PROC ; ioExpandMedalSlotManager::DeleteMedalListByChar, COMDAT
; _this$ = ecx

; 154  : {

  00000	6a 4c		 push	 76			; 0000004cH
  00002	b8 00 00 00 00	 mov	 eax, __ehhandler$?DeleteMedalListByChar@ioExpandMedalSlotManager@@QAEXHH@Z
  00007	e8 00 00 00 00	 call	 __EH_prolog3_GS
  0000c	8b 75 0c	 mov	 esi, DWORD PTR _iSlotNumber$[ebp]

; 155  : 	//   .
; 156  : 	ExpandMedalSlotVec	vExMedalSlot;

  0000f	33 db		 xor	 ebx, ebx

; 189  : 					break;
; 190  : 				}
; 191  : 			}
; 192  : 		}
; 193  : 	}
; 194  : 
; 195  : 	ReserveDeleteMedal eDeleteMedal;
; 196  : 	eDeleteMedal.Init();
; 197  : 	eDeleteMedal.m_iClassType = iClassType;

  00011	89 4d c4	 mov	 DWORD PTR _this$GSCopy$[ebp], ecx
  00014	89 5d b4	 mov	 DWORD PTR _vExMedalSlot$[ebp], ebx
  00017	89 5d b8	 mov	 DWORD PTR _vExMedalSlot$[ebp+4], ebx
  0001a	89 5d bc	 mov	 DWORD PTR _vExMedalSlot$[ebp+8], ebx
  0001d	83 c8 ff	 or	 eax, -1
  00020	89 45 d8	 mov	 DWORD PTR _iMedalIndexBySlot$[ebp], eax
  00023	89 45 dc	 mov	 DWORD PTR _iMedalIndexBySlot$[ebp+4], eax
  00026	89 45 e0	 mov	 DWORD PTR _iMedalIndexBySlot$[ebp+8], eax
  00029	89 45 e4	 mov	 DWORD PTR _iMedalIndexBySlot$[ebp+12], eax
  0002c	89 45 e8	 mov	 DWORD PTR _iMedalIndexBySlot$[ebp+16], eax
  0002f	89 45 ec	 mov	 DWORD PTR _iMedalIndexBySlot$[ebp+20], eax
  00032	8d 45 b4	 lea	 eax, DWORD PTR _vExMedalSlot$[ebp]
  00035	50		 push	 eax
  00036	ff 75 08	 push	 DWORD PTR _iClassType$[ebp]
  00039	89 5d fc	 mov	 DWORD PTR __$EHRec$[ebp+8], ebx
  0003c	e8 00 00 00 00	 call	 ?GetExpandMedalSlot@ioExpandMedalSlotManager@@QAEHHAAV?$vector@UExpandMedalSlot@ioExpandMedalSlotManager@@V?$allocator@UExpandMedalSlot@ioExpandMedalSlotManager@@@std@@@std@@@Z ; ioExpandMedalSlotManager::GetExpandMedalSlot
  00041	3b c3		 cmp	 eax, ebx
  00043	7e 1c		 jle	 SHORT $LN17@DeleteMeda

; 157  : 	int iMedalIndexBySlot[6] = { -1, -1, -1, -1, -1, -1 };
; 158  : 	int iSize = GetExpandMedalSlot( iClassType, vExMedalSlot );
; 159  : 	for( int i=0; i<iSize; ++i )

  00045	8b 4d b4	 mov	 ecx, DWORD PTR _vExMedalSlot$[ebp]
$LL19@DeleteMeda:
  00048	0f b6 39	 movzx	 edi, BYTE PTR [ecx]

; 160  : 	{
; 161  : 		for( int j=0; j<6; ++j )

  0004b	33 d2		 xor	 edx, edx
$LL16@DeleteMeda:

; 162  : 		{
; 163  : 			if( vExMedalSlot[i].m_iSlotNumber == j )

  0004d	3b fa		 cmp	 edi, edx
  0004f	75 04		 jne	 SHORT $LN15@DeleteMeda

; 164  : 				iMedalIndexBySlot[j] = 0;

  00051	89 5c 95 d8	 mov	 DWORD PTR _iMedalIndexBySlot$[ebp+edx*4], ebx
$LN15@DeleteMeda:

; 160  : 	{
; 161  : 		for( int j=0; j<6; ++j )

  00055	42		 inc	 edx
  00056	83 fa 06	 cmp	 edx, 6
  00059	7c f2		 jl	 SHORT $LL16@DeleteMeda

; 157  : 	int iMedalIndexBySlot[6] = { -1, -1, -1, -1, -1, -1 };
; 158  : 	int iSize = GetExpandMedalSlot( iClassType, vExMedalSlot );
; 159  : 	for( int i=0; i<iSize; ++i )

  0005b	83 c1 0c	 add	 ecx, 12			; 0000000cH
  0005e	48		 dec	 eax
  0005f	75 e7		 jne	 SHORT $LL19@DeleteMeda
$LN17@DeleteMeda:

; 165  : 		}
; 166  : 	}
; 167  : 
; 168  : 	//      .
; 169  : 	int iMax = g_MedalItemMgr.GetSlotNum( g_MyInfo.GetClassLevel( iClassType, true ) );

  00061	6a 01		 push	 1
  00063	ff 75 08	 push	 DWORD PTR _iClassType$[ebp]
  00066	e8 00 00 00 00	 call	 ?GetSingleton@ioMyInfo@@SAAAV1@XZ ; ioMyInfo::GetSingleton
  0006b	8b c8		 mov	 ecx, eax
  0006d	e8 00 00 00 00	 call	 ?GetClassLevel@ioMyInfo@@QAEHH_N@Z ; ioMyInfo::GetClassLevel
  00072	50		 push	 eax
  00073	e8 00 00 00 00	 call	 ?GetSingleton@ioMedalItemInfoManager@@SAAAV1@XZ ; ioMedalItemInfoManager::GetSingleton
  00078	8b c8		 mov	 ecx, eax
  0007a	e8 00 00 00 00	 call	 ?GetSlotNum@ioMedalItemInfoManager@@QAEHH@Z ; ioMedalItemInfoManager::GetSlotNum

; 170  : 	for( int i=0; i<iMax; ++i )

  0007f	3b c3		 cmp	 eax, ebx
  00081	7e 09		 jle	 SHORT $LN12@DeleteMeda

; 165  : 		}
; 166  : 	}
; 167  : 
; 168  : 	//      .
; 169  : 	int iMax = g_MedalItemMgr.GetSlotNum( g_MyInfo.GetClassLevel( iClassType, true ) );

  00083	8b c8		 mov	 ecx, eax
  00085	33 c0		 xor	 eax, eax
  00087	8d 7d d8	 lea	 edi, DWORD PTR _iMedalIndexBySlot$[ebp]
  0008a	f3 ab		 rep stosd
$LN12@DeleteMeda:

; 171  : 	{
; 172  : 		iMedalIndexBySlot[i] = 0;
; 173  : 	}
; 174  : 
; 175  : 	//     .
; 176  : 	ioUserMedalItem *pMedalItem = g_MyInfo.GetUserMedalItem();

  0008c	e8 00 00 00 00	 call	 ?GetSingleton@ioMyInfo@@SAAAV1@XZ ; ioMyInfo::GetSingleton
  00091	8d 88 c0 01 00
	00		 lea	 ecx, DWORD PTR [eax+448]

; 177  : 	if( !pMedalItem )	return;

  00097	3b cb		 cmp	 ecx, ebx
  00099	74 75		 je	 SHORT $LN79@DeleteMeda

; 178  : 	IntVec vMedalItemIndex;

  0009b	89 5d c8	 mov	 DWORD PTR _vMedalItemIndex$[ebp], ebx
  0009e	89 5d cc	 mov	 DWORD PTR _vMedalItemIndex$[ebp+4], ebx
  000a1	89 5d d0	 mov	 DWORD PTR _vMedalItemIndex$[ebp+8], ebx

; 179  : 	if( pMedalItem->GetMedalItemTypeVec( vMedalItemIndex, iClassType ) )

  000a4	ff 75 08	 push	 DWORD PTR _iClassType$[ebp]
  000a7	8d 45 c8	 lea	 eax, DWORD PTR _vMedalItemIndex$[ebp]
  000aa	50		 push	 eax
  000ab	c6 45 fc 01	 mov	 BYTE PTR __$EHRec$[ebp+8], 1
  000af	e8 00 00 00 00	 call	 ?GetMedalItemTypeVec@ioUserMedalItem@@QAE_NAAV?$vector@HV?$allocator@H@std@@@std@@H@Z ; ioUserMedalItem::GetMedalItemTypeVec
  000b4	84 c0		 test	 al, al
  000b6	74 2e		 je	 SHORT $LN5@DeleteMeda

; 180  : 	{
; 181  : 		int iSize = vMedalItemIndex.size();

  000b8	8b 45 cc	 mov	 eax, DWORD PTR _vMedalItemIndex$[ebp+4]
  000bb	2b 45 c8	 sub	 eax, DWORD PTR _vMedalItemIndex$[ebp]

; 182  : 		for( int i=0; i<iSize; ++i )

  000be	33 d2		 xor	 edx, edx
  000c0	c1 f8 02	 sar	 eax, 2
  000c3	3b c3		 cmp	 eax, ebx
  000c5	7e 1f		 jle	 SHORT $LN5@DeleteMeda
$LN7@DeleteMeda:

; 183  : 		{
; 184  : 			for( int j=0; j<6; ++j )

  000c7	33 c9		 xor	 ecx, ecx
$LL4@DeleteMeda:

; 185  : 			{
; 186  : 				if( iMedalIndexBySlot[j] == 0 )

  000c9	39 5c 8d d8	 cmp	 DWORD PTR _iMedalIndexBySlot$[ebp+ecx*4], ebx
  000cd	74 08		 je	 SHORT $LN71@DeleteMeda

; 183  : 		{
; 184  : 			for( int j=0; j<6; ++j )

  000cf	41		 inc	 ecx
  000d0	83 f9 06	 cmp	 ecx, 6
  000d3	7c f4		 jl	 SHORT $LL4@DeleteMeda

; 185  : 			{
; 186  : 				if( iMedalIndexBySlot[j] == 0 )

  000d5	eb 0a		 jmp	 SHORT $LN6@DeleteMeda
$LN71@DeleteMeda:

; 187  : 				{
; 188  : 					iMedalIndexBySlot[j] = vMedalItemIndex[i];

  000d7	8b 7d c8	 mov	 edi, DWORD PTR _vMedalItemIndex$[ebp]
  000da	8b 3c 97	 mov	 edi, DWORD PTR [edi+edx*4]
  000dd	89 7c 8d d8	 mov	 DWORD PTR _iMedalIndexBySlot$[ebp+ecx*4], edi
$LN6@DeleteMeda:

; 182  : 		for( int i=0; i<iSize; ++i )

  000e1	42		 inc	 edx
  000e2	3b d0		 cmp	 edx, eax
  000e4	7c e1		 jl	 SHORT $LN7@DeleteMeda
$LN5@DeleteMeda:

; 189  : 					break;
; 190  : 				}
; 191  : 			}
; 192  : 		}
; 193  : 	}
; 194  : 
; 195  : 	ReserveDeleteMedal eDeleteMedal;
; 196  : 	eDeleteMedal.Init();
; 197  : 	eDeleteMedal.m_iClassType = iClassType;

  000e6	8b 45 08	 mov	 eax, DWORD PTR _iClassType$[ebp]

; 198  : 	eDeleteMedal.m_iSlotNumber = iSlotNumber;
; 199  : 	eDeleteMedal.m_iMedalItemType = iMedalIndexBySlot[iSlotNumber];
; 200  : 	m_vReserveDeleteMedal.push_back(eDeleteMedal);

  000e9	8b 4d c4	 mov	 ecx, DWORD PTR _this$GSCopy$[ebp]
  000ec	89 45 a8	 mov	 DWORD PTR _eDeleteMedal$[ebp], eax
  000ef	8b 44 b5 d8	 mov	 eax, DWORD PTR _iMedalIndexBySlot$[ebp+esi*4]
  000f3	89 45 b0	 mov	 DWORD PTR _eDeleteMedal$[ebp+8], eax
  000f6	8d 45 a8	 lea	 eax, DWORD PTR _eDeleteMedal$[ebp]
  000f9	50		 push	 eax
  000fa	83 c1 14	 add	 ecx, 20			; 00000014H
  000fd	89 75 ac	 mov	 DWORD PTR _eDeleteMedal$[ebp+4], esi
  00100	e8 00 00 00 00	 call	 ?push_back@?$vector@UReserveDeleteMedal@ioExpandMedalSlotManager@@V?$allocator@UReserveDeleteMedal@ioExpandMedalSlotManager@@@std@@@std@@QAEXABUReserveDeleteMedal@ioExpandMedalSlotManager@@@Z ; std::vector<ioExpandMedalSlotManager::ReserveDeleteMedal,std::allocator<ioExpandMedalSlotManager::ReserveDeleteMedal> >::push_back

; 201  : }

  00105	8d 4d c8	 lea	 ecx, DWORD PTR _vMedalItemIndex$[ebp]
  00108	88 5d fc	 mov	 BYTE PTR __$EHRec$[ebp+8], bl
  0010b	e8 00 00 00 00	 call	 ?_Tidy@?$vector@HV?$allocator@H@std@@@std@@IAEXXZ ; std::vector<int,std::allocator<int> >::_Tidy
$LN79@DeleteMeda:
  00110	83 4d fc ff	 or	 DWORD PTR __$EHRec$[ebp+8], -1
  00114	8d 4d b4	 lea	 ecx, DWORD PTR _vExMedalSlot$[ebp]
  00117	e8 00 00 00 00	 call	 ?_Tidy@?$vector@UExpandMedalSlot@ioExpandMedalSlotManager@@V?$allocator@UExpandMedalSlot@ioExpandMedalSlotManager@@@std@@@std@@IAEXXZ ; std::vector<ioExpandMedalSlotManager::ExpandMedalSlot,std::allocator<ioExpandMedalSlotManager::ExpandMedalSlot> >::_Tidy
  0011c	e8 00 00 00 00	 call	 __EH_epilog3_GS
  00121	c2 08 00	 ret	 8
_TEXT	ENDS
;	COMDAT text$x
text$x	SEGMENT
__unwindfunclet$?DeleteMedalListByChar@ioExpandMedalSlotManager@@QAEXHH@Z$0:
  00000	8d 4d b4	 lea	 ecx, DWORD PTR _vExMedalSlot$[ebp]
  00003	e9 00 00 00 00	 jmp	 ??1?$vector@UExpandMedalSlot@ioExpandMedalSlotManager@@V?$allocator@UExpandMedalSlot@ioExpandMedalSlotManager@@@std@@@std@@QAE@XZ ; std::vector<ioExpandMedalSlotManager::ExpandMedalSlot,std::allocator<ioExpandMedalSlotManager::ExpandMedalSlot> >::~vector<ioExpandMedalSlotManager::ExpandMedalSlot,std::allocator<ioExpandMedalSlotManager::ExpandMedalSlot> >
__unwindfunclet$?DeleteMedalListByChar@ioExpandMedalSlotManager@@QAEXHH@Z$1:
  00008	8d 4d c8	 lea	 ecx, DWORD PTR _vMedalItemIndex$[ebp]
  0000b	e9 00 00 00 00	 jmp	 ??1?$vector@HV?$allocator@H@std@@@std@@QAE@XZ ; std::vector<int,std::allocator<int> >::~vector<int,std::allocator<int> >
__ehhandler$?DeleteMedalListByChar@ioExpandMedalSlotManager@@QAEXHH@Z:
  00010	8b 54 24 08	 mov	 edx, DWORD PTR [esp+8]
  00014	8d 42 0c	 lea	 eax, DWORD PTR [edx+12]
  00017	8b 4a a4	 mov	 ecx, DWORD PTR [edx-92]
  0001a	33 c8		 xor	 ecx, eax
  0001c	e8 00 00 00 00	 call	 @__security_check_cookie@4
  00021	8b 4a fc	 mov	 ecx, DWORD PTR [edx-4]
  00024	33 c8		 xor	 ecx, eax
  00026	e8 00 00 00 00	 call	 @__security_check_cookie@4
  0002b	b8 00 00 00 00	 mov	 eax, OFFSET __ehfuncinfo$?DeleteMedalListByChar@ioExpandMedalSlotManager@@QAEXHH@Z
  00030	e9 00 00 00 00	 jmp	 ___CxxFrameHandler3
text$x	ENDS
?DeleteMedalListByChar@ioExpandMedalSlotManager@@QAEXHH@Z ENDP ; ioExpandMedalSlotManager::DeleteMedalListByChar
PUBLIC	??_C@_0BG@GNFPEELO@Wrong?5Char?5Array?5?3?5?$CFd?$AA@ ; `string'
PUBLIC	??_C@_0BJ@OIDOCLJG@Don?8t?5Have?5UserMedalItem?$AA@ ; `string'
PUBLIC	??_R0?AVioEtcItem@@@8				; ioEtcItem `RTTI Type Descriptor'
PUBLIC	??_R0?AVioEtcItemExpandMedalSlot@@@8		; ioEtcItemExpandMedalSlot `RTTI Type Descriptor'
PUBLIC	_this$GSCopy$
PUBLIC	__$ArrayPad$
PUBLIC	?DeleteExpandMedalSlot@ioExpandMedalSlotManager@@QAEXAAVSP2Packet@@@Z ; ioExpandMedalSlotManager::DeleteExpandMedalSlot
EXTRN	??1SP2Packet@@UAE@XZ:PROC			; SP2Packet::~SP2Packet
EXTRN	?SendToServer@TCPNetwork@@YAXAAVSP2Packet@@@Z:PROC ; TCPNetwork::SendToServer
EXTRN	??6SP2Packet@@QAEAAV0@_N@Z:PROC			; SP2Packet::operator<<
EXTRN	??6SP2Packet@@QAEAAV0@H@Z:PROC			; SP2Packet::operator<<
EXTRN	??0SP2Packet@@QAE@K@Z:PROC			; SP2Packet::SP2Packet
EXTRN	__imp_?PrintTimeAndLog@CLog@@QAAXHPADZZ:PROC
EXTRN	__imp_?LOG@@3VCLog@@A:BYTE
EXTRN	?GetCharCount@ioMyInfo@@QBEHXZ:PROC		; ioMyInfo::GetCharCount
EXTRN	?GetClassArray@ioMyInfo@@QAEHH@Z:PROC		; ioMyInfo::GetClassArray
EXTRN	__imp_??1ioHashString@@QAE@XZ:PROC
EXTRN	?SetReserveDeleteExMedalSlot@ioMyInfo@@QAEXAAVioHashString@@0H@Z:PROC ; ioMyInfo::SetReserveDeleteExMedalSlot
EXTRN	__imp_??0ioHashString@@QAE@PBD@Z:PROC
EXTRN	?GetClassNameA@ioMyInfo@@QAEPBDHH@Z:PROC	; ioMyInfo::GetClassNameA
EXTRN	?GetCharPowerUpGradeByClassType@ioMyInfo@@QAE?AW4PowerUpGradeType@@H@Z:PROC ; ioMyInfo::GetCharPowerUpGradeByClassType
EXTRN	__imp_??0ioHashString@@QAE@ABV0@@Z:PROC
EXTRN	?FindEtcItem@ioEtcItemManager@@QAEPAVioEtcItem@@K@Z:PROC ; ioEtcItemManager::FindEtcItem
EXTRN	___security_cookie:DWORD
EXTRN	__chkstk:PROC
EXTRN	___RTDynamicCast:PROC
;	COMDAT ??_C@_0BG@GNFPEELO@Wrong?5Char?5Array?5?3?5?$CFd?$AA@
; File c:\program files (x86)\microsoft visual studio 10.0\vc\include\vector
CONST	SEGMENT
??_C@_0BG@GNFPEELO@Wrong?5Char?5Array?5?3?5?$CFd?$AA@ DB 'Wrong Char Arra'
	DB	'y : %d', 00H				; `string'
CONST	ENDS
;	COMDAT ??_C@_0BJ@OIDOCLJG@Don?8t?5Have?5UserMedalItem?$AA@
CONST	SEGMENT
??_C@_0BJ@OIDOCLJG@Don?8t?5Have?5UserMedalItem?$AA@ DB 'Don''t Have UserM'
	DB	'edalItem', 00H				; `string'
CONST	ENDS
;	COMDAT ??_R0?AVioEtcItem@@@8
_DATA	SEGMENT
??_R0?AVioEtcItem@@@8 DD FLAT:??_7type_info@@6B@	; ioEtcItem `RTTI Type Descriptor'
	DD	00H
	DB	'.?AVioEtcItem@@', 00H
_DATA	ENDS
;	COMDAT ??_R0?AVioEtcItemExpandMedalSlot@@@8
_DATA	SEGMENT
??_R0?AVioEtcItemExpandMedalSlot@@@8 DD FLAT:??_7type_info@@6B@ ; ioEtcItemExpandMedalSlot `RTTI Type Descriptor'
	DD	00H
	DB	'.?AVioEtcItemExpandMedalSlot@@', 00H
_DATA	ENDS
;	COMDAT xdata$x
xdata$x	SEGMENT
__unwindtable$?DeleteExpandMedalSlot@ioExpandMedalSlotManager@@QAEXAAVSP2Packet@@@Z DD 0ffffffffH
	DD	FLAT:__unwindfunclet$?DeleteExpandMedalSlot@ioExpandMedalSlotManager@@QAEXAAVSP2Packet@@@Z$0
	DD	00H
	DD	FLAT:__unwindfunclet$?DeleteExpandMedalSlot@ioExpandMedalSlotManager@@QAEXAAVSP2Packet@@@Z$1
	DD	0ffffffffH
	DD	FLAT:__unwindfunclet$?DeleteExpandMedalSlot@ioExpandMedalSlotManager@@QAEXAAVSP2Packet@@@Z$2
__ehfuncinfo$?DeleteExpandMedalSlot@ioExpandMedalSlotManager@@QAEXAAVSP2Packet@@@Z DD 019930522H
	DD	03H
	DD	FLAT:__unwindtable$?DeleteExpandMedalSlot@ioExpandMedalSlotManager@@QAEXAAVSP2Packet@@@Z
	DD	2 DUP(00H)
	DD	2 DUP(00H)
	DD	00H
	DD	01H
; Function compile flags: /Ogsp
; File d:\lost saga for developer\youtube\tutorial\source\src\lsclient\ioexpandmedalslotmanager.cpp
xdata$x	ENDS
;	COMDAT ?DeleteExpandMedalSlot@ioExpandMedalSlotManager@@QAEXAAVSP2Packet@@@Z
_TEXT	SEGMENT
_szIconName$505292 = -32876				; size = 16
_szClassName$505293 = -32860				; size = 16
$T510191 = -32844					; size = 4
_value$510372 = -32840					; size = 4
$T510256 = -32840					; size = 4
_iClassType$505132 = -32836				; size = 4
_this$GSCopy$ = -32832					; size = 4
_iSize$ = -32828					; size = 4
_i$505128 = -32824					; size = 4
_iClassType$505126 = -32824				; size = 4
_iCharArray$505294 = -32820				; size = 4
_j$505284 = -32820					; size = 4
tv645 = -32816						; size = 4
_i$505122 = -32816					; size = 4
_iSlotNumber$505133 = -32809				; size = 1
_iSlotNumber$505127 = -32809				; size = 1
_kPacket$505302 = -32808				; size = 32792
__$ArrayPad$ = -16					; size = 4
__$EHRec$ = -12						; size = 12
_rkPacket$ = 8						; size = 4
?DeleteExpandMedalSlot@ioExpandMedalSlotManager@@QAEXAAVSP2Packet@@@Z PROC ; ioExpandMedalSlotManager::DeleteExpandMedalSlot, COMDAT
; _this$ = ecx

; 79   : {

  00000	55		 push	 ebp
  00001	8b ec		 mov	 ebp, esp
  00003	6a ff		 push	 -1
  00005	68 00 00 00 00	 push	 __ehhandler$?DeleteExpandMedalSlot@ioExpandMedalSlotManager@@QAEXAAVSP2Packet@@@Z
  0000a	64 a1 00 00 00
	00		 mov	 eax, DWORD PTR fs:0
  00010	50		 push	 eax
  00011	b8 60 80 00 00	 mov	 eax, 32864		; 00008060H
  00016	e8 00 00 00 00	 call	 __chkstk
  0001b	a1 00 00 00 00	 mov	 eax, DWORD PTR ___security_cookie
  00020	33 c5		 xor	 eax, ebp
  00022	89 45 f0	 mov	 DWORD PTR __$ArrayPad$[ebp], eax
  00025	53		 push	 ebx
  00026	56		 push	 esi
  00027	57		 push	 edi
  00028	50		 push	 eax
  00029	8d 45 f4	 lea	 eax, DWORD PTR __$EHRec$[ebp]
  0002c	64 a3 00 00 00
	00		 mov	 DWORD PTR fs:0, eax
  00032	8b 7d 08	 mov	 edi, DWORD PTR _rkPacket$[ebp]
  00035	8b d9		 mov	 ebx, ecx

; 80   : 	m_vReserveDeleteMedal.clear();

  00037	8d 73 14	 lea	 esi, DWORD PTR [ebx+20]
  0003a	8b 46 04	 mov	 eax, DWORD PTR [esi+4]
  0003d	8b 0e		 mov	 ecx, DWORD PTR [esi]
  0003f	50		 push	 eax
  00040	51		 push	 ecx
  00041	8d 85 b8 7f ff
	ff		 lea	 eax, DWORD PTR $T510256[ebp]
  00047	50		 push	 eax
  00048	8b ce		 mov	 ecx, esi

; 112  : 					{
; 113  : 						ioHashString szIconName = pItem->GetIconName();

  0004a	89 9d c0 7f ff
	ff		 mov	 DWORD PTR _this$GSCopy$[ebp], ebx
  00050	e8 00 00 00 00	 call	 ?erase@?$vector@UReserveDeleteMedal@ioExpandMedalSlotManager@@V?$allocator@UReserveDeleteMedal@ioExpandMedalSlotManager@@@std@@@std@@QAE?AV?$_Vector_iterator@V?$_Vector_val@UReserveDeleteMedal@ioExpandMedalSlotManager@@V?$allocator@UReserveDeleteMedal@ioExpandMedalSlotManager@@@std@@@std@@@2@V?$_Vector_const_iterator@V?$_Vector_val@UReserveDeleteMedal@ioExpandMedalSlotManager@@V?$allocator@UReserveDeleteMedal@ioExpandMedalSlotManager@@@std@@@std@@@2@0@Z ; std::vector<ioExpandMedalSlotManager::ReserveDeleteMedal,std::allocator<ioExpandMedalSlotManager::ReserveDeleteMedal> >::erase
  00055	8d 85 c4 7f ff
	ff		 lea	 eax, DWORD PTR _iSize$[ebp]
  0005b	50		 push	 eax
  0005c	8b cf		 mov	 ecx, edi
  0005e	e8 00 00 00 00	 call	 ??5SP2Packet@@QAEAAV0@AAH@Z ; SP2Packet::operator>>
  00063	83 a5 d0 7f ff
	ff 00		 and	 DWORD PTR _i$505122[ebp], 0
  0006a	83 bd c4 7f ff
	ff 00		 cmp	 DWORD PTR _iSize$[ebp], 0
  00071	7e 45		 jle	 SHORT $LN16@DeleteExpa
$LL18@DeleteExpa:

; 81   : 
; 82   : 	int iSize;
; 83   : 	rkPacket >> iSize;
; 84   : 
; 85   : 	for( int i=0; i<iSize; ++i )
; 86   : 	{
; 87   : 		int iClassType;
; 88   : 		BYTE iSlotNumber;
; 89   : 		rkPacket >> iClassType >> iSlotNumber;

  00073	8d 85 d7 7f ff
	ff		 lea	 eax, DWORD PTR _iSlotNumber$505127[ebp]
  00079	50		 push	 eax
  0007a	8d 85 c8 7f ff
	ff		 lea	 eax, DWORD PTR _iClassType$505126[ebp]
  00080	50		 push	 eax
  00081	8b cf		 mov	 ecx, edi
  00083	e8 00 00 00 00	 call	 ??5SP2Packet@@QAEAAV0@AAH@Z ; SP2Packet::operator>>
  00088	8b c8		 mov	 ecx, eax
  0008a	e8 00 00 00 00	 call	 ??5SP2Packet@@QAEAAV0@AAE@Z ; SP2Packet::operator>>

; 90   : 		DeleteMedalListByChar( iClassType, iSlotNumber );

  0008f	0f b6 85 d7 7f
	ff ff		 movzx	 eax, BYTE PTR _iSlotNumber$505127[ebp]
  00096	50		 push	 eax
  00097	ff b5 c8 7f ff
	ff		 push	 DWORD PTR _iClassType$505126[ebp]
  0009d	8b cb		 mov	 ecx, ebx
  0009f	e8 00 00 00 00	 call	 ?DeleteMedalListByChar@ioExpandMedalSlotManager@@QAEXHH@Z ; ioExpandMedalSlotManager::DeleteMedalListByChar
  000a4	ff 85 d0 7f ff
	ff		 inc	 DWORD PTR _i$505122[ebp]
  000aa	8b 85 d0 7f ff
	ff		 mov	 eax, DWORD PTR _i$505122[ebp]
  000b0	3b 85 c4 7f ff
	ff		 cmp	 eax, DWORD PTR _iSize$[ebp]
  000b6	7c bb		 jl	 SHORT $LL18@DeleteExpa
$LN16@DeleteExpa:

; 91   : 	}
; 92   : 	
; 93   : 	iSize = m_vReserveDeleteMedal.size();

  000b8	8b 46 04	 mov	 eax, DWORD PTR [esi+4]
  000bb	2b 06		 sub	 eax, DWORD PTR [esi]
  000bd	6a 0c		 push	 12			; 0000000cH
  000bf	99		 cdq
  000c0	59		 pop	 ecx
  000c1	f7 f9		 idiv	 ecx

; 94   : 	for( int i=0; i<iSize; ++i )

  000c3	83 a5 c8 7f ff
	ff 00		 and	 DWORD PTR _i$505128[ebp], 0
  000ca	89 85 c4 7f ff
	ff		 mov	 DWORD PTR _iSize$[ebp], eax
  000d0	85 c0		 test	 eax, eax
  000d2	0f 8e 7f 02 00
	00		 jle	 $LN13@DeleteExpa

; 91   : 	}
; 92   : 	
; 93   : 	iSize = m_vReserveDeleteMedal.size();

  000d8	83 a5 d0 7f ff
	ff 00		 and	 DWORD PTR tv645[ebp], 0
$LL15@DeleteExpa:

; 95   : 	{
; 96   : 		int iClassType = m_vReserveDeleteMedal[i].m_iClassType;

  000df	8b 06		 mov	 eax, DWORD PTR [esi]
  000e1	03 85 d0 7f ff
	ff		 add	 eax, DWORD PTR tv645[ebp]

; 97   : 		BYTE iSlotNumber = m_vReserveDeleteMedal[i].m_iSlotNumber;
; 98   : 
; 99   : 		ExpandMedalSlotVec::iterator iter = m_vExpandSlotInfoVec.begin();

  000e7	8b 7b 04	 mov	 edi, DWORD PTR [ebx+4]
  000ea	8b 08		 mov	 ecx, DWORD PTR [eax]
  000ec	8a 40 04	 mov	 al, BYTE PTR [eax+4]
  000ef	89 8d bc 7f ff
	ff		 mov	 DWORD PTR _iClassType$505132[ebp], ecx
  000f5	88 85 d7 7f ff
	ff		 mov	 BYTE PTR _iSlotNumber$505133[ebp], al
  000fb	e9 2f 02 00 00	 jmp	 $LN116@DeleteExpa
$LN12@DeleteExpa:

; 101  : 		{
; 102  : 			ExpandMedalSlot &eExpandSlot = *iter;
; 103  : 
; 104  : 			if( eExpandSlot.m_iClassType == iClassType && eExpandSlot.m_iSlotNumber == iSlotNumber )

  00100	8b 85 bc 7f ff
	ff		 mov	 eax, DWORD PTR _iClassType$505132[ebp]
  00106	39 47 04	 cmp	 DWORD PTR [edi+4], eax
  00109	0f 85 1d 02 00
	00		 jne	 $LN10@DeleteExpa
  0010f	8a 85 d7 7f ff
	ff		 mov	 al, BYTE PTR _iSlotNumber$505133[ebp]
  00115	38 07		 cmp	 BYTE PTR [edi], al
  00117	0f 85 0f 02 00
	00		 jne	 $LN10@DeleteExpa

; 105  : 			{
; 106  : 				for( int j=ioEtcItem::EIT_ETC_EXPAND_MEDAL_SLOT01; j<ioEtcItem::EIT_ETC_EXPAND_MEDAL_SLOT20+1; ++j )

  0011d	c7 85 cc 7f ff
	ff aa 47 0f 00	 mov	 DWORD PTR _j$505284[ebp], 1001386 ; 000f47aaH
$LN9@DeleteExpa:

; 107  : 				{
; 108  : 					ioEtcItemExpandMedalSlot *pItem = dynamic_cast<ioEtcItemExpandMedalSlot*> (g_EtcItemMgr.FindEtcItem(j));

  00127	8b 0d 00 00 00
	00		 mov	 ecx, DWORD PTR ?ms_Singleton@?$Singleton@VioEtcItemManager@@@@1PAVioEtcItemManager@@A ; Singleton<ioEtcItemManager>::ms_Singleton
  0012d	6a 00		 push	 0
  0012f	68 00 00 00 00	 push	 OFFSET ??_R0?AVioEtcItemExpandMedalSlot@@@8
  00134	68 00 00 00 00	 push	 OFFSET ??_R0?AVioEtcItem@@@8
  00139	6a 00		 push	 0
  0013b	ff b5 cc 7f ff
	ff		 push	 DWORD PTR _j$505284[ebp]
  00141	e8 00 00 00 00	 call	 ?FindEtcItem@ioEtcItemManager@@QAEPAVioEtcItem@@K@Z ; ioEtcItemManager::FindEtcItem
  00146	50		 push	 eax
  00147	e8 00 00 00 00	 call	 ___RTDynamicCast
  0014c	8b d8		 mov	 ebx, eax
  0014e	83 c4 14	 add	 esp, 20			; 00000014H

; 109  : 					if( pItem &&
; 110  : 						pItem->GetLimitTime() > 0 &&
; 111  : 						pItem->GetUseSlotNumber() == iSlotNumber )

  00151	85 db		 test	 ebx, ebx
  00153	74 29		 je	 SHORT $LN8@DeleteExpa
  00155	8d 85 b8 7f ff
	ff		 lea	 eax, DWORD PTR _value$510372[ebp]
  0015b	8d 8b b8 01 00
	00		 lea	 ecx, DWORD PTR [ebx+440]
  00161	50		 push	 eax
  00162	e8 00 00 00 00	 call	 ?DecryptValueToPool@?$CEncrypt@K@@QAEXPAK@Z ; CEncrypt<unsigned long>::DecryptValueToPool
  00167	83 bd b8 7f ff
	ff 00		 cmp	 DWORD PTR _value$510372[ebp], 0
  0016e	76 0e		 jbe	 SHORT $LN8@DeleteExpa
  00170	8a 85 d7 7f ff
	ff		 mov	 al, BYTE PTR _iSlotNumber$505133[ebp]
  00176	38 83 e8 01 00
	00		 cmp	 BYTE PTR [ebx+488], al
  0017c	74 17		 je	 SHORT $LN108@DeleteExpa
$LN8@DeleteExpa:

; 105  : 			{
; 106  : 				for( int j=ioEtcItem::EIT_ETC_EXPAND_MEDAL_SLOT01; j<ioEtcItem::EIT_ETC_EXPAND_MEDAL_SLOT20+1; ++j )

  0017e	ff 85 cc 7f ff
	ff		 inc	 DWORD PTR _j$505284[ebp]
  00184	81 bd cc 7f ff
	ff be 47 0f 00	 cmp	 DWORD PTR _j$505284[ebp], 1001406 ; 000f47beH
  0018e	7c 97		 jl	 SHORT $LN9@DeleteExpa

; 109  : 					if( pItem &&
; 110  : 						pItem->GetLimitTime() > 0 &&
; 111  : 						pItem->GetUseSlotNumber() == iSlotNumber )

  00190	e9 90 00 00 00	 jmp	 $LN7@DeleteExpa
$LN108@DeleteExpa:

; 112  : 					{
; 113  : 						ioHashString szIconName = pItem->GetIconName();

  00195	81 c3 60 01 00
	00		 add	 ebx, 352		; 00000160H
  0019b	53		 push	 ebx
  0019c	8d 8d 94 7f ff
	ff		 lea	 ecx, DWORD PTR _szIconName$505292[ebp]
  001a2	ff 15 00 00 00
	00		 call	 DWORD PTR __imp_??0ioHashString@@QAE@ABV0@@Z

; 114  : 						ioHashString szClassName = g_MyInfo.GetClassName( iClassType, g_MyInfo.GetCharPowerUpGradeByClassType( iClassType ) );

  001a8	ff b5 bc 7f ff
	ff		 push	 DWORD PTR _iClassType$505132[ebp]
  001ae	83 65 fc 00	 and	 DWORD PTR __$EHRec$[ebp+8], 0
  001b2	e8 00 00 00 00	 call	 ?GetSingleton@ioMyInfo@@SAAAV1@XZ ; ioMyInfo::GetSingleton
  001b7	8b c8		 mov	 ecx, eax
  001b9	e8 00 00 00 00	 call	 ?GetCharPowerUpGradeByClassType@ioMyInfo@@QAE?AW4PowerUpGradeType@@H@Z ; ioMyInfo::GetCharPowerUpGradeByClassType
  001be	50		 push	 eax
  001bf	ff b5 bc 7f ff
	ff		 push	 DWORD PTR _iClassType$505132[ebp]
  001c5	e8 00 00 00 00	 call	 ?GetSingleton@ioMyInfo@@SAAAV1@XZ ; ioMyInfo::GetSingleton
  001ca	8b c8		 mov	 ecx, eax
  001cc	e8 00 00 00 00	 call	 ?GetClassNameA@ioMyInfo@@QAEPBDHH@Z ; ioMyInfo::GetClassNameA
  001d1	50		 push	 eax
  001d2	8d 8d a4 7f ff
	ff		 lea	 ecx, DWORD PTR _szClassName$505293[ebp]
  001d8	ff 15 00 00 00
	00		 call	 DWORD PTR __imp_??0ioHashString@@QAE@PBD@Z

; 115  : 						g_MyInfo.SetReserveDeleteExMedalSlot( szIconName, szClassName, iSlotNumber * 20 );

  001de	0f b6 85 d7 7f
	ff ff		 movzx	 eax, BYTE PTR _iSlotNumber$505133[ebp]
  001e5	6b c0 14	 imul	 eax, 20			; 00000014H
  001e8	50		 push	 eax
  001e9	8d 85 a4 7f ff
	ff		 lea	 eax, DWORD PTR _szClassName$505293[ebp]
  001ef	50		 push	 eax
  001f0	8d 85 94 7f ff
	ff		 lea	 eax, DWORD PTR _szIconName$505292[ebp]
  001f6	50		 push	 eax
  001f7	c6 45 fc 01	 mov	 BYTE PTR __$EHRec$[ebp+8], 1
  001fb	e8 00 00 00 00	 call	 ?GetSingleton@ioMyInfo@@SAAAV1@XZ ; ioMyInfo::GetSingleton
  00200	8b c8		 mov	 ecx, eax
  00202	e8 00 00 00 00	 call	 ?SetReserveDeleteExMedalSlot@ioMyInfo@@QAEXAAVioHashString@@0H@Z ; ioMyInfo::SetReserveDeleteExMedalSlot

; 116  : 						break;

  00207	8b 1d 00 00 00
	00		 mov	 ebx, DWORD PTR __imp_??1ioHashString@@QAE@XZ
  0020d	8d 8d a4 7f ff
	ff		 lea	 ecx, DWORD PTR _szClassName$505293[ebp]
  00213	c6 45 fc 00	 mov	 BYTE PTR __$EHRec$[ebp+8], 0
  00217	ff d3		 call	 ebx
  00219	83 4d fc ff	 or	 DWORD PTR __$EHRec$[ebp+8], -1
  0021d	8d 8d 94 7f ff
	ff		 lea	 ecx, DWORD PTR _szIconName$505292[ebp]
  00223	ff d3		 call	 ebx
$LN7@DeleteExpa:

; 117  : 					}
; 118  : 				}
; 119  : 
; 120  : 				int iCharArray = g_MyInfo.GetClassArray( eExpandSlot.m_iClassType );

  00225	ff 77 04	 push	 DWORD PTR [edi+4]
  00228	e8 00 00 00 00	 call	 ?GetSingleton@ioMyInfo@@SAAAV1@XZ ; ioMyInfo::GetSingleton
  0022d	8b c8		 mov	 ecx, eax
  0022f	e8 00 00 00 00	 call	 ?GetClassArray@ioMyInfo@@QAEHH@Z ; ioMyInfo::GetClassArray
  00234	8b d8		 mov	 ebx, eax
  00236	89 9d cc 7f ff
	ff		 mov	 DWORD PTR _iCharArray$505294[ebp], ebx

; 121  : 				if( !COMPARE( iCharArray, 0, g_MyInfo.GetCharCount() ) )

  0023c	85 db		 test	 ebx, ebx
  0023e	0f 88 cb 00 00
	00		 js	 $LN4@DeleteExpa
  00244	e8 00 00 00 00	 call	 ?GetSingleton@ioMyInfo@@SAAAV1@XZ ; ioMyInfo::GetSingleton
  00249	8b c8		 mov	 ecx, eax
  0024b	e8 00 00 00 00	 call	 ?GetCharCount@ioMyInfo@@QBEHXZ ; ioMyInfo::GetCharCount
  00250	3b d8		 cmp	 ebx, eax
  00252	0f 8d b7 00 00
	00		 jge	 $LN4@DeleteExpa

; 126  : 				}
; 127  : 
; 128  : 				ioUserMedalItem *pMedalItem = g_MyInfo.GetUserMedalItem();

  00258	e8 00 00 00 00	 call	 ?GetSingleton@ioMyInfo@@SAAAV1@XZ ; ioMyInfo::GetSingleton
  0025d	05 c0 01 00 00	 add	 eax, 448		; 000001c0H

; 129  : 				if( !pMedalItem )

  00262	75 1a		 jne	 SHORT $LN3@DeleteExpa

; 130  : 				{
; 131  : 					LOG.PrintTimeAndLog( 0, "Don't Have UserMedalItem" );

  00264	68 00 00 00 00	 push	 OFFSET ??_C@_0BJ@OIDOCLJG@Don?8t?5Have?5UserMedalItem?$AA@
  00269	50		 push	 eax
  0026a	ff 35 00 00 00
	00		 push	 DWORD PTR __imp_?LOG@@3VCLog@@A
  00270	ff 15 00 00 00
	00		 call	 DWORD PTR __imp_?PrintTimeAndLog@CLog@@QAAXHPADZZ
  00276	83 c4 0c	 add	 esp, 12			; 0000000cH

; 132  : 					++iter;
; 133  : 					continue;

  00279	e9 a8 00 00 00	 jmp	 $LN117@DeleteExpa
$LN3@DeleteExpa:

; 134  : 				}
; 135  : 
; 136  : 				if( m_vReserveDeleteMedal[i].m_iMedalItemType > 0 )

  0027e	8b 06		 mov	 eax, DWORD PTR [esi]
  00280	8b 9d d0 7f ff
	ff		 mov	 ebx, DWORD PTR tv645[ebp]
  00286	83 7c 03 08 00	 cmp	 DWORD PTR [ebx+eax+8], 0
  0028b	7e 62		 jle	 SHORT $LN2@DeleteExpa

; 137  : 				{
; 138  : 					SP2Packet kPacket( CTPK_MEDALITEM_CHANGE );

  0028d	68 08 02 00 00	 push	 520			; 00000208H
  00292	8d 8d d8 7f ff
	ff		 lea	 ecx, DWORD PTR _kPacket$505302[ebp]
  00298	e8 00 00 00 00	 call	 ??0SP2Packet@@QAE@K@Z	; SP2Packet::SP2Packet

; 139  : 					kPacket << iCharArray;

  0029d	ff b5 cc 7f ff
	ff		 push	 DWORD PTR _iCharArray$505294[ebp]
  002a3	8d 8d d8 7f ff
	ff		 lea	 ecx, DWORD PTR _kPacket$505302[ebp]
  002a9	c7 45 fc 02 00
	00 00		 mov	 DWORD PTR __$EHRec$[ebp+8], 2
  002b0	e8 00 00 00 00	 call	 ??6SP2Packet@@QAEAAV0@H@Z ; SP2Packet::operator<<

; 140  : 					kPacket << m_vReserveDeleteMedal[i].m_iMedalItemType;

  002b5	8b 06		 mov	 eax, DWORD PTR [esi]
  002b7	ff 74 03 08	 push	 DWORD PTR [ebx+eax+8]
  002bb	8d 8d d8 7f ff
	ff		 lea	 ecx, DWORD PTR _kPacket$505302[ebp]
  002c1	e8 00 00 00 00	 call	 ??6SP2Packet@@QAEAAV0@H@Z ; SP2Packet::operator<<

; 141  : 					kPacket << false;

  002c6	6a 00		 push	 0
  002c8	8d 8d d8 7f ff
	ff		 lea	 ecx, DWORD PTR _kPacket$505302[ebp]
  002ce	e8 00 00 00 00	 call	 ??6SP2Packet@@QAEAAV0@_N@Z ; SP2Packet::operator<<

; 142  : 					TCPNetwork::SendToServer( kPacket );

  002d3	8d 85 d8 7f ff
	ff		 lea	 eax, DWORD PTR _kPacket$505302[ebp]
  002d9	50		 push	 eax
  002da	e8 00 00 00 00	 call	 ?SendToServer@TCPNetwork@@YAXAAVSP2Packet@@@Z ; TCPNetwork::SendToServer

; 143  : 				}

  002df	83 4d fc ff	 or	 DWORD PTR __$EHRec$[ebp+8], -1
  002e3	59		 pop	 ecx
  002e4	8d 8d d8 7f ff
	ff		 lea	 ecx, DWORD PTR _kPacket$505302[ebp]
  002ea	e8 00 00 00 00	 call	 ??1SP2Packet@@UAE@XZ	; SP2Packet::~SP2Packet
$LN2@DeleteExpa:

; 144  : 
; 145  : 				iter = m_vExpandSlotInfoVec.erase( iter );

  002ef	8b 8d c0 7f ff
	ff		 mov	 ecx, DWORD PTR _this$GSCopy$[ebp]
  002f5	57		 push	 edi
  002f6	8d 85 b4 7f ff
	ff		 lea	 eax, DWORD PTR $T510191[ebp]
  002fc	50		 push	 eax
  002fd	83 c1 04	 add	 ecx, 4
  00300	e8 00 00 00 00	 call	 ?erase@?$vector@UExpandMedalSlot@ioExpandMedalSlotManager@@V?$allocator@UExpandMedalSlot@ioExpandMedalSlotManager@@@std@@@std@@QAE?AV?$_Vector_iterator@V?$_Vector_val@UExpandMedalSlot@ioExpandMedalSlotManager@@V?$allocator@UExpandMedalSlot@ioExpandMedalSlotManager@@@std@@@std@@@2@V?$_Vector_const_iterator@V?$_Vector_val@UExpandMedalSlot@ioExpandMedalSlotManager@@V?$allocator@UExpandMedalSlot@ioExpandMedalSlotManager@@@std@@@std@@@2@@Z ; std::vector<ioExpandMedalSlotManager::ExpandMedalSlot,std::allocator<ioExpandMedalSlotManager::ExpandMedalSlot> >::erase
  00305	8b 38		 mov	 edi, DWORD PTR [eax]

; 146  : 			}
; 147  : 			else

  00307	8b 9d c0 7f ff
	ff		 mov	 ebx, DWORD PTR _this$GSCopy$[ebp]
  0030d	eb 20		 jmp	 SHORT $LN116@DeleteExpa
$LN4@DeleteExpa:

; 122  : 				{
; 123  : 					LOG.PrintTimeAndLog( 0, "Wrong Char Array : %d", iCharArray );

  0030f	53		 push	 ebx
  00310	68 00 00 00 00	 push	 OFFSET ??_C@_0BG@GNFPEELO@Wrong?5Char?5Array?5?3?5?$CFd?$AA@
  00315	6a 00		 push	 0
  00317	ff 35 00 00 00
	00		 push	 DWORD PTR __imp_?LOG@@3VCLog@@A
  0031d	ff 15 00 00 00
	00		 call	 DWORD PTR __imp_?PrintTimeAndLog@CLog@@QAAXHPADZZ
  00323	83 c4 10	 add	 esp, 16			; 00000010H
$LN117@DeleteExpa:

; 124  : 					++iter;
; 125  : 					continue;

  00326	8b 9d c0 7f ff
	ff		 mov	 ebx, DWORD PTR _this$GSCopy$[ebp]
$LN10@DeleteExpa:

; 148  : 				++iter;

  0032c	83 c7 0c	 add	 edi, 12			; 0000000cH
$LN116@DeleteExpa:

; 100  : 		while( iter != m_vExpandSlotInfoVec.end() )

  0032f	3b 7b 08	 cmp	 edi, DWORD PTR [ebx+8]
  00332	0f 85 c8 fd ff
	ff		 jne	 $LN12@DeleteExpa

; 94   : 	for( int i=0; i<iSize; ++i )

  00338	ff 85 c8 7f ff
	ff		 inc	 DWORD PTR _i$505128[ebp]
  0033e	8b 85 c8 7f ff
	ff		 mov	 eax, DWORD PTR _i$505128[ebp]
  00344	83 85 d0 7f ff
	ff 0c		 add	 DWORD PTR tv645[ebp], 12 ; 0000000cH
  0034b	3b 85 c4 7f ff
	ff		 cmp	 eax, DWORD PTR _iSize$[ebp]
  00351	0f 8c 88 fd ff
	ff		 jl	 $LL15@DeleteExpa
$LN13@DeleteExpa:

; 149  : 		}
; 150  : 	}
; 151  : }

  00357	8b 4d f4	 mov	 ecx, DWORD PTR __$EHRec$[ebp]
  0035a	64 89 0d 00 00
	00 00		 mov	 DWORD PTR fs:0, ecx
  00361	59		 pop	 ecx
  00362	5f		 pop	 edi
  00363	5e		 pop	 esi
  00364	5b		 pop	 ebx
  00365	8b 4d f0	 mov	 ecx, DWORD PTR __$ArrayPad$[ebp]
  00368	33 cd		 xor	 ecx, ebp
  0036a	e8 00 00 00 00	 call	 @__security_check_cookie@4
  0036f	c9		 leave
  00370	c2 04 00	 ret	 4
_TEXT	ENDS
;	COMDAT text$x
text$x	SEGMENT
__unwindfunclet$?DeleteExpandMedalSlot@ioExpandMedalSlotManager@@QAEXAAVSP2Packet@@@Z$0:
  00000	8d 8d 94 7f ff
	ff		 lea	 ecx, DWORD PTR _szIconName$505292[ebp]
  00006	ff 25 00 00 00
	00		 jmp	 DWORD PTR __imp_??1ioHashString@@QAE@XZ
__unwindfunclet$?DeleteExpandMedalSlot@ioExpandMedalSlotManager@@QAEXAAVSP2Packet@@@Z$1:
  0000c	8d 8d a4 7f ff
	ff		 lea	 ecx, DWORD PTR _szClassName$505293[ebp]
  00012	ff 25 00 00 00
	00		 jmp	 DWORD PTR __imp_??1ioHashString@@QAE@XZ
__unwindfunclet$?DeleteExpandMedalSlot@ioExpandMedalSlotManager@@QAEXAAVSP2Packet@@@Z$2:
  00018	8d 8d d8 7f ff
	ff		 lea	 ecx, DWORD PTR _kPacket$505302[ebp]
  0001e	e9 00 00 00 00	 jmp	 ??1SP2Packet@@UAE@XZ	; SP2Packet::~SP2Packet
__ehhandler$?DeleteExpandMedalSlot@ioExpandMedalSlotManager@@QAEXAAVSP2Packet@@@Z:
  00023	8b 54 24 08	 mov	 edx, DWORD PTR [esp+8]
  00027	8d 42 0c	 lea	 eax, DWORD PTR [edx+12]
  0002a	8b 8a 90 7f ff
	ff		 mov	 ecx, DWORD PTR [edx-32880]
  00030	33 c8		 xor	 ecx, eax
  00032	e8 00 00 00 00	 call	 @__security_check_cookie@4
  00037	8b 4a fc	 mov	 ecx, DWORD PTR [edx-4]
  0003a	33 c8		 xor	 ecx, eax
  0003c	e8 00 00 00 00	 call	 @__security_check_cookie@4
  00041	b8 00 00 00 00	 mov	 eax, OFFSET __ehfuncinfo$?DeleteExpandMedalSlot@ioExpandMedalSlotManager@@QAEXAAVSP2Packet@@@Z
  00046	e9 00 00 00 00	 jmp	 ___CxxFrameHandler3
text$x	ENDS
?DeleteExpandMedalSlot@ioExpandMedalSlotManager@@QAEXAAVSP2Packet@@@Z ENDP ; ioExpandMedalSlotManager::DeleteExpandMedalSlot
END
