; Listing generated by Microsoft (R) Optimizing Compiler Version 16.00.30319.01 

	TITLE	D:\Lost Saga For Developer\Youtube\Tutorial\Source\src\LSClient\GUI\ioExtraItemListWnd.cpp
	.686P
	.XMM
	include listing.inc
	.model	flat

INCLUDELIB MSVCRT
INCLUDELIB OLDNAMES

PUBLIC	?SetMarkType@NewShopIconBtn@@QAEXH@Z		; NewShopIconBtn::SetMarkType
; Function compile flags: /Ogsp
; File d:\lost saga for developer\youtube\tutorial\source\src\lsclient\gui\newshopiconbtn.h
;	COMDAT ?SetMarkType@NewShopIconBtn@@QAEXH@Z
_TEXT	SEGMENT
_iMarkType$ = 8						; size = 4
?SetMarkType@NewShopIconBtn@@QAEXH@Z PROC		; NewShopIconBtn::SetMarkType, COMDAT
; _this$ = ecx

; 64   : 	void SetMarkType( int iMarkType )	{ m_iMarkType = iMarkType; } 

  00000	55		 push	 ebp
  00001	8b ec		 mov	 ebp, esp
  00003	8b 45 08	 mov	 eax, DWORD PTR _iMarkType$[ebp]
  00006	89 81 4c 02 00
	00		 mov	 DWORD PTR [ecx+588], eax
  0000c	5d		 pop	 ebp
  0000d	c2 04 00	 ret	 4
?SetMarkType@NewShopIconBtn@@QAEXH@Z ENDP		; NewShopIconBtn::SetMarkType
_TEXT	ENDS
PUBLIC	?SetLimitDay@NewShopIconBtn@@QAEXH@Z		; NewShopIconBtn::SetLimitDay
; Function compile flags: /Ogsp
;	COMDAT ?SetLimitDay@NewShopIconBtn@@QAEXH@Z
_TEXT	SEGMENT
_iDay$ = 8						; size = 4
?SetLimitDay@NewShopIconBtn@@QAEXH@Z PROC		; NewShopIconBtn::SetLimitDay, COMDAT
; _this$ = ecx

; 66   : 	void SetLimitDay( int iDay )		{ m_iLimitDay = iDay; }

  00000	55		 push	 ebp
  00001	8b ec		 mov	 ebp, esp
  00003	8b 45 08	 mov	 eax, DWORD PTR _iDay$[ebp]
  00006	89 81 50 02 00
	00		 mov	 DWORD PTR [ecx+592], eax
  0000c	5d		 pop	 ebp
  0000d	c2 04 00	 ret	 4
?SetLimitDay@NewShopIconBtn@@QAEXH@Z ENDP		; NewShopIconBtn::SetLimitDay
_TEXT	ENDS
PUBLIC	?SetGradeType@NewShopIconBtn@@QAEXH@Z		; NewShopIconBtn::SetGradeType
; Function compile flags: /Ogsp
;	COMDAT ?SetGradeType@NewShopIconBtn@@QAEXH@Z
_TEXT	SEGMENT
_nGradeType$ = 8					; size = 4
?SetGradeType@NewShopIconBtn@@QAEXH@Z PROC		; NewShopIconBtn::SetGradeType, COMDAT
; _this$ = ecx

; 67   : 	void SetGradeType( int nGradeType ) { m_nGradeType = nGradeType; }

  00000	55		 push	 ebp
  00001	8b ec		 mov	 ebp, esp
  00003	8b 45 08	 mov	 eax, DWORD PTR _nGradeType$[ebp]
  00006	89 81 68 02 00
	00		 mov	 DWORD PTR [ecx+616], eax
  0000c	5d		 pop	 ebp
  0000d	c2 04 00	 ret	 4
?SetGradeType@NewShopIconBtn@@QAEXH@Z ENDP		; NewShopIconBtn::SetGradeType
_TEXT	ENDS
PUBLIC	?SetItemCode@ItemListIconBtn@@QAEXH@Z		; ItemListIconBtn::SetItemCode
; Function compile flags: /Ogsp
; File d:\lost saga for developer\youtube\tutorial\source\src\lsclient\gui\ioextraitemlistwnd.h
;	COMDAT ?SetItemCode@ItemListIconBtn@@QAEXH@Z
_TEXT	SEGMENT
_iItemCode$ = 8						; size = 4
?SetItemCode@ItemListIconBtn@@QAEXH@Z PROC		; ItemListIconBtn::SetItemCode, COMDAT
; _this$ = ecx

; 23   : 	void SetItemCode(int iItemCode) { m_iItemCode = iItemCode; }

  00000	55		 push	 ebp
  00001	8b ec		 mov	 ebp, esp
  00003	8b 45 08	 mov	 eax, DWORD PTR _iItemCode$[ebp]
  00006	89 81 7c 02 00
	00		 mov	 DWORD PTR [ecx+636], eax
  0000c	5d		 pop	 ebp
  0000d	c2 04 00	 ret	 4
?SetItemCode@ItemListIconBtn@@QAEXH@Z ENDP		; ItemListIconBtn::SetItemCode
_TEXT	ENDS
PUBLIC	??RShopExtraItemSort@@QBE_NABUItemListInfoSort@@0@Z ; ShopExtraItemSort::operator()
; Function compile flags: /Ogsp
;	COMDAT ??RShopExtraItemSort@@QBE_NABUItemListInfoSort@@0@Z
_TEXT	SEGMENT
_lhs$ = 8						; size = 4
_rhs$ = 12						; size = 4
??RShopExtraItemSort@@QBE_NABUItemListInfoSort@@0@Z PROC ; ShopExtraItemSort::operator(), COMDAT
; _this$ = ecx

; 34   : 	{

  00000	55		 push	 ebp
  00001	8b ec		 mov	 ebp, esp

; 35   : 		if( lhs.m_iOrder > rhs.m_iOrder )

  00003	8b 55 08	 mov	 edx, DWORD PTR _lhs$[ebp]
  00006	8b 42 08	 mov	 eax, DWORD PTR [edx+8]
  00009	56		 push	 esi
  0000a	8b 75 0c	 mov	 esi, DWORD PTR _rhs$[ebp]
  0000d	8b 4e 08	 mov	 ecx, DWORD PTR [esi+8]
  00010	3b c1		 cmp	 eax, ecx
  00012	7e 04		 jle	 SHORT $LN6@operator
$LN7@operator:

; 36   : 			return true;

  00014	b0 01		 mov	 al, 1
  00016	eb 0a		 jmp	 SHORT $LN4@operator
$LN6@operator:

; 37   : 		if( lhs.m_iOrder == rhs.m_iOrder )

  00018	75 06		 jne	 SHORT $LN1@operator

; 38   : 		{
; 39   : 			if( lhs.m_iItemCode > rhs.m_iItemCode )

  0001a	8b 02		 mov	 eax, DWORD PTR [edx]
  0001c	3b 06		 cmp	 eax, DWORD PTR [esi]

; 40   : 				return true;

  0001e	7f f4		 jg	 SHORT $LN7@operator
$LN1@operator:

; 41   : 		}
; 42   : 
; 43   : 		return false;

  00020	32 c0		 xor	 al, al
$LN4@operator:
  00022	5e		 pop	 esi

; 44   : 	}

  00023	5d		 pop	 ebp
  00024	c2 08 00	 ret	 8
??RShopExtraItemSort@@QBE_NABUItemListInfoSort@@0@Z ENDP ; ShopExtraItemSort::operator()
_TEXT	ENDS
PUBLIC	__real@3f266666
PUBLIC	??_C@_0BN@JBJKGEEJ@ioExtraItemListWnd?3?3OnRender?$AA@ ; `string'
PUBLIC	??_C@_00CNPNBAHC@?$AA@				; `string'
PUBLIC	?OnRender@ioExtraItemListWnd@@MAEXXZ		; ioExtraItemListWnd::OnRender
EXTRN	??_M@YGXPAXIHP6EX0@Z@Z:PROC			; `eh vector destructor iterator'
EXTRN	__imp_?PrintText@ioFontManager@@QAAXMMMPBDZZ:PROC
EXTRN	__imp_?c_str@ioHashString@@QBEPBDXZ:PROC
EXTRN	__imp_?SetTextColor@ioFontManager@@QAEXK@Z:PROC
EXTRN	__imp_?SetAlignType@ioFontManager@@QAEXW4TextAlignType@@@Z:PROC
EXTRN	__imp_?SetBkColor@ioFontManager@@QAEXHHH@Z:PROC
EXTRN	__imp_?SetTextStyle@ioFontManager@@QAEXW4TextStyle@@@Z:PROC
EXTRN	__imp_?GetSingleton@ioFontManager@@SAAAV1@XZ:PROC
EXTRN	?PrintFullText@ioComplexStringPrinter@@QAEXMMW4TextAlignType@@E@Z:PROC ; ioComplexStringPrinter::PrintFullText
EXTRN	?AddTextPiece@ioComplexStringPrinter@@QAAXMPBDZZ:PROC ; ioComplexStringPrinter::AddTextPiece
EXTRN	__imp_?GetString@ioStringManager@@QAEPADPBD0HW4FileNamePrefix@1@@Z:PROC
EXTRN	__imp_?GetSingleton@ioStringManager@@SAAAV1@XZ:PROC
EXTRN	?SetTextColor@ioComplexStringPrinter@@QAEXK@Z:PROC ; ioComplexStringPrinter::SetTextColor
EXTRN	?SetBkColor@ioComplexStringPrinter@@QAEXHHH@Z:PROC ; ioComplexStringPrinter::SetBkColor
EXTRN	?SetTextStyle@ioComplexStringPrinter@@QAEXW4TextStyle@@@Z:PROC ; ioComplexStringPrinter::SetTextStyle
EXTRN	??_L@YGXPAXIHP6EX0@Z1@Z:PROC			; `eh vector constructor iterator'
EXTRN	??0ioComplexStringPrinter@@QAE@XZ:PROC		; ioComplexStringPrinter::ioComplexStringPrinter
EXTRN	??1ioComplexStringPrinter@@QAE@XZ:PROC		; ioComplexStringPrinter::~ioComplexStringPrinter
EXTRN	__imp_?GetDerivedPosY@ioWnd@@QBEHXZ:PROC
EXTRN	__imp_?GetDerivedPosX@ioWnd@@QBEHXZ:PROC
EXTRN	__imp_?OnRender@ioWnd@@MAEXXZ:PROC
EXTRN	___CxxFrameHandler3:PROC
EXTRN	@__security_check_cookie@4:PROC
EXTRN	__fltused:DWORD
EXTRN	__EH_epilog3:PROC
EXTRN	__EH_prolog3:PROC
;	COMDAT __real@3f266666
; File d:\lost saga for developer\youtube\tutorial\source\src\lsclient\gui\ioextraitemlistwnd.cpp
CONST	SEGMENT
__real@3f266666 DD 03f266666r			; 0.65
CONST	ENDS
;	COMDAT ??_C@_0BN@JBJKGEEJ@ioExtraItemListWnd?3?3OnRender?$AA@
CONST	SEGMENT
??_C@_0BN@JBJKGEEJ@ioExtraItemListWnd?3?3OnRender?$AA@ DB 'ioExtraItemLis'
	DB	'tWnd::OnRender', 00H			; `string'
CONST	ENDS
;	COMDAT ??_C@_00CNPNBAHC@?$AA@
CONST	SEGMENT
??_C@_00CNPNBAHC@?$AA@ DB 00H				; `string'
CONST	ENDS
;	COMDAT xdata$x
xdata$x	SEGMENT
__unwindtable$?OnRender@ioExtraItemListWnd@@MAEXXZ DD 0ffffffffH
	DD	FLAT:__unwindfunclet$?OnRender@ioExtraItemListWnd@@MAEXXZ$0
__ehfuncinfo$?OnRender@ioExtraItemListWnd@@MAEXXZ DD 019930522H
	DD	01H
	DD	FLAT:__unwindtable$?OnRender@ioExtraItemListWnd@@MAEXXZ
	DD	2 DUP(00H)
	DD	2 DUP(00H)
	DD	00H
	DD	01H
; Function compile flags: /Ogsp
xdata$x	ENDS
;	COMDAT ?OnRender@ioExtraItemListWnd@@MAEXXZ
_TEXT	SEGMENT
_kPrinter$ = -92					; size = 64
_this$ = -28						; size = 4
tv326 = -24						; size = 4
_iXPos$ = -24						; size = 4
_iYPos$ = -20						; size = 4
tv206 = -16						; size = 4
__$EHRec$ = -12						; size = 12
?OnRender@ioExtraItemListWnd@@MAEXXZ PROC		; ioExtraItemListWnd::OnRender, COMDAT
; _this$ = ecx

; 233  : {

  00000	6a 50		 push	 80			; 00000050H
  00002	b8 00 00 00 00	 mov	 eax, __ehhandler$?OnRender@ioExtraItemListWnd@@MAEXXZ
  00007	e8 00 00 00 00	 call	 __EH_prolog3
  0000c	8b f1		 mov	 esi, ecx
  0000e	89 75 e4	 mov	 DWORD PTR _this$[ebp], esi

; 234  : 	ioWnd::OnRender();

  00011	ff 15 00 00 00
	00		 call	 DWORD PTR __imp_?OnRender@ioWnd@@MAEXXZ

; 235  : 
; 236  : 	int iXPos = GetDerivedPosX();

  00017	8b ce		 mov	 ecx, esi
  00019	ff 15 00 00 00
	00		 call	 DWORD PTR __imp_?GetDerivedPosX@ioWnd@@QBEHXZ

; 237  : 	int iYPos = GetDerivedPosY();

  0001f	8b ce		 mov	 ecx, esi
  00021	89 45 e8	 mov	 DWORD PTR _iXPos$[ebp], eax
  00024	ff 15 00 00 00
	00		 call	 DWORD PTR __imp_?GetDerivedPosY@ioWnd@@QBEHXZ

; 238  : 
; 239  : 	enum
; 240  : 	{
; 241  : 		DESC_X		= 238,
; 242  : 		DESC_Y		= 470,
; 243  : 
; 244  : 		LINE_GAP	= 20,
; 245  : 
; 246  : 		PAGE_X		= 238,
; 247  : 		PAGE_Y		= 425,
; 248  : 
; 249  : 		MAX_TEXT    = 2,
; 250  : 	};
; 251  : 
; 252  : 	ioComplexStringPrinter kPrinter[MAX_TEXT];

  0002a	68 00 00 00 00	 push	 OFFSET ??1ioComplexStringPrinter@@QAE@XZ ; ioComplexStringPrinter::~ioComplexStringPrinter
  0002f	68 00 00 00 00	 push	 OFFSET ??0ioComplexStringPrinter@@QAE@XZ ; ioComplexStringPrinter::ioComplexStringPrinter
  00034	6a 02		 push	 2
  00036	89 45 ec	 mov	 DWORD PTR _iYPos$[ebp], eax
  00039	6a 20		 push	 32			; 00000020H
  0003b	8d 45 a4	 lea	 eax, DWORD PTR _kPrinter$[ebp]
  0003e	50		 push	 eax
  0003f	e8 00 00 00 00	 call	 ??_L@YGXPAXIHP6EX0@Z1@Z
  00044	33 f6		 xor	 esi, esi

; 253  : 	kPrinter[0].SetTextStyle( TS_NORMAL);

  00046	56		 push	 esi
  00047	8d 4d a4	 lea	 ecx, DWORD PTR _kPrinter$[ebp]
  0004a	89 75 fc	 mov	 DWORD PTR __$EHRec$[ebp+8], esi
  0004d	e8 00 00 00 00	 call	 ?SetTextStyle@ioComplexStringPrinter@@QAEXW4TextStyle@@@Z ; ioComplexStringPrinter::SetTextStyle

; 254  : 	kPrinter[0].SetBkColor( 0, 0, 0 );	

  00052	56		 push	 esi
  00053	56		 push	 esi
  00054	56		 push	 esi
  00055	8d 4d a4	 lea	 ecx, DWORD PTR _kPrinter$[ebp]
  00058	e8 00 00 00 00	 call	 ?SetBkColor@ioComplexStringPrinter@@QAEXHHH@Z ; ioComplexStringPrinter::SetBkColor

; 255  : 	kPrinter[0].SetTextColor( TCT_DEFAULT_DARKGRAY ); 

  0005d	68 3a 3a 3a ff	 push	 -12961222		; ff3a3a3aH
  00062	8d 4d a4	 lea	 ecx, DWORD PTR _kPrinter$[ebp]
  00065	e8 00 00 00 00	 call	 ?SetTextColor@ioComplexStringPrinter@@QAEXK@Z ; ioComplexStringPrinter::SetTextColor

; 256  : 	kPrinter[0].AddTextPiece( FONT_SIZE_13, STR(1) );

  0006a	8b 3d 00 00 00
	00		 mov	 edi, DWORD PTR __imp_?GetSingleton@ioStringManager@@SAAAV1@XZ
  00070	56		 push	 esi
  00071	6a 01		 push	 1
  00073	68 00 00 00 00	 push	 OFFSET ??_C@_00CNPNBAHC@?$AA@
  00078	68 00 00 00 00	 push	 OFFSET ??_C@_0BN@JBJKGEEJ@ioExtraItemListWnd?3?3OnRender?$AA@
  0007d	ff d7		 call	 edi
  0007f	8b 1d 00 00 00
	00		 mov	 ebx, DWORD PTR __imp_?GetString@ioStringManager@@QAEPADPBD0HW4FileNamePrefix@1@@Z
  00085	8b c8		 mov	 ecx, eax
  00087	ff d3		 call	 ebx
  00089	f3 0f 10 05 00
	00 00 00	 movss	 xmm0, DWORD PTR __real@3f266666
  00091	50		 push	 eax
  00092	51		 push	 ecx
  00093	8d 45 a4	 lea	 eax, DWORD PTR _kPrinter$[ebp]
  00096	f3 0f 11 04 24	 movss	 DWORD PTR [esp], xmm0
  0009b	50		 push	 eax
  0009c	e8 00 00 00 00	 call	 ?AddTextPiece@ioComplexStringPrinter@@QAAXMPBDZZ ; ioComplexStringPrinter::AddTextPiece
  000a1	83 c4 0c	 add	 esp, 12			; 0000000cH

; 257  : 
; 258  : 	kPrinter[0].SetTextStyle( TS_NORMAL);

  000a4	56		 push	 esi
  000a5	8d 4d a4	 lea	 ecx, DWORD PTR _kPrinter$[ebp]
  000a8	e8 00 00 00 00	 call	 ?SetTextStyle@ioComplexStringPrinter@@QAEXW4TextStyle@@@Z ; ioComplexStringPrinter::SetTextStyle

; 259  : 	kPrinter[0].SetBkColor( 0, 0, 0 );	

  000ad	56		 push	 esi
  000ae	56		 push	 esi
  000af	56		 push	 esi
  000b0	8d 4d a4	 lea	 ecx, DWORD PTR _kPrinter$[ebp]
  000b3	e8 00 00 00 00	 call	 ?SetBkColor@ioComplexStringPrinter@@QAEXHHH@Z ; ioComplexStringPrinter::SetBkColor

; 260  : 	kPrinter[0].SetTextColor( TCT_DEFAULT_RED ); 

  000b8	68 00 16 b9 ff	 push	 -4647424		; ffb91600H
  000bd	8d 4d a4	 lea	 ecx, DWORD PTR _kPrinter$[ebp]
  000c0	e8 00 00 00 00	 call	 ?SetTextColor@ioComplexStringPrinter@@QAEXK@Z ; ioComplexStringPrinter::SetTextColor

; 261  : 	kPrinter[0].AddTextPiece( FONT_SIZE_13, STR(2) );

  000c5	56		 push	 esi
  000c6	6a 02		 push	 2
  000c8	68 00 00 00 00	 push	 OFFSET ??_C@_00CNPNBAHC@?$AA@
  000cd	68 00 00 00 00	 push	 OFFSET ??_C@_0BN@JBJKGEEJ@ioExtraItemListWnd?3?3OnRender?$AA@
  000d2	ff d7		 call	 edi
  000d4	8b c8		 mov	 ecx, eax
  000d6	ff d3		 call	 ebx
  000d8	f3 0f 10 05 00
	00 00 00	 movss	 xmm0, DWORD PTR __real@3f266666
  000e0	50		 push	 eax
  000e1	51		 push	 ecx
  000e2	8d 45 a4	 lea	 eax, DWORD PTR _kPrinter$[ebp]
  000e5	f3 0f 11 04 24	 movss	 DWORD PTR [esp], xmm0
  000ea	50		 push	 eax
  000eb	e8 00 00 00 00	 call	 ?AddTextPiece@ioComplexStringPrinter@@QAAXMPBDZZ ; ioComplexStringPrinter::AddTextPiece
  000f0	83 c4 0c	 add	 esp, 12			; 0000000cH

; 262  : 
; 263  : 	kPrinter[0].SetTextStyle( TS_NORMAL);

  000f3	56		 push	 esi
  000f4	8d 4d a4	 lea	 ecx, DWORD PTR _kPrinter$[ebp]
  000f7	e8 00 00 00 00	 call	 ?SetTextStyle@ioComplexStringPrinter@@QAEXW4TextStyle@@@Z ; ioComplexStringPrinter::SetTextStyle

; 264  : 	kPrinter[0].SetBkColor( 0, 0, 0 );	

  000fc	56		 push	 esi
  000fd	56		 push	 esi
  000fe	56		 push	 esi
  000ff	8d 4d a4	 lea	 ecx, DWORD PTR _kPrinter$[ebp]
  00102	e8 00 00 00 00	 call	 ?SetBkColor@ioComplexStringPrinter@@QAEXHHH@Z ; ioComplexStringPrinter::SetBkColor

; 265  : 	kPrinter[0].SetTextColor( TCT_DEFAULT_DARKGRAY ); 

  00107	68 3a 3a 3a ff	 push	 -12961222		; ff3a3a3aH
  0010c	8d 4d a4	 lea	 ecx, DWORD PTR _kPrinter$[ebp]
  0010f	e8 00 00 00 00	 call	 ?SetTextColor@ioComplexStringPrinter@@QAEXK@Z ; ioComplexStringPrinter::SetTextColor

; 266  : 	kPrinter[0].AddTextPiece( FONT_SIZE_13, STR(3) );

  00114	56		 push	 esi
  00115	6a 03		 push	 3
  00117	68 00 00 00 00	 push	 OFFSET ??_C@_00CNPNBAHC@?$AA@
  0011c	68 00 00 00 00	 push	 OFFSET ??_C@_0BN@JBJKGEEJ@ioExtraItemListWnd?3?3OnRender?$AA@
  00121	ff d7		 call	 edi
  00123	8b c8		 mov	 ecx, eax
  00125	ff d3		 call	 ebx
  00127	f3 0f 10 05 00
	00 00 00	 movss	 xmm0, DWORD PTR __real@3f266666
  0012f	50		 push	 eax
  00130	51		 push	 ecx
  00131	8d 45 a4	 lea	 eax, DWORD PTR _kPrinter$[ebp]
  00134	f3 0f 11 04 24	 movss	 DWORD PTR [esp], xmm0
  00139	50		 push	 eax
  0013a	e8 00 00 00 00	 call	 ?AddTextPiece@ioComplexStringPrinter@@QAAXMPBDZZ ; ioComplexStringPrinter::AddTextPiece
  0013f	83 c4 0c	 add	 esp, 12			; 0000000cH

; 267  : 
; 268  : 	kPrinter[1].SetTextStyle( TS_NORMAL);

  00142	56		 push	 esi
  00143	8d 4d c4	 lea	 ecx, DWORD PTR _kPrinter$[ebp+32]
  00146	e8 00 00 00 00	 call	 ?SetTextStyle@ioComplexStringPrinter@@QAEXW4TextStyle@@@Z ; ioComplexStringPrinter::SetTextStyle

; 269  : 	kPrinter[1].SetBkColor( 0, 0, 0 );	

  0014b	56		 push	 esi
  0014c	56		 push	 esi
  0014d	56		 push	 esi
  0014e	8d 4d c4	 lea	 ecx, DWORD PTR _kPrinter$[ebp+32]
  00151	e8 00 00 00 00	 call	 ?SetBkColor@ioComplexStringPrinter@@QAEXHHH@Z ; ioComplexStringPrinter::SetBkColor

; 270  : 	kPrinter[1].SetTextColor( TCT_DEFAULT_DARKGRAY ); 

  00156	68 3a 3a 3a ff	 push	 -12961222		; ff3a3a3aH
  0015b	8d 4d c4	 lea	 ecx, DWORD PTR _kPrinter$[ebp+32]
  0015e	e8 00 00 00 00	 call	 ?SetTextColor@ioComplexStringPrinter@@QAEXK@Z ; ioComplexStringPrinter::SetTextColor

; 271  : 	kPrinter[1].AddTextPiece( FONT_SIZE_13, STR(4) );

  00163	56		 push	 esi
  00164	6a 04		 push	 4
  00166	68 00 00 00 00	 push	 OFFSET ??_C@_00CNPNBAHC@?$AA@
  0016b	68 00 00 00 00	 push	 OFFSET ??_C@_0BN@JBJKGEEJ@ioExtraItemListWnd?3?3OnRender?$AA@
  00170	ff d7		 call	 edi
  00172	8b c8		 mov	 ecx, eax
  00174	ff d3		 call	 ebx
  00176	f3 0f 10 05 00
	00 00 00	 movss	 xmm0, DWORD PTR __real@3f266666
  0017e	50		 push	 eax
  0017f	51		 push	 ecx
  00180	8d 45 c4	 lea	 eax, DWORD PTR _kPrinter$[ebp+32]
  00183	f3 0f 11 04 24	 movss	 DWORD PTR [esp], xmm0
  00188	50		 push	 eax
  00189	e8 00 00 00 00	 call	 ?AddTextPiece@ioComplexStringPrinter@@QAAXMPBDZZ ; ioComplexStringPrinter::AddTextPiece
  0018e	83 c4 0c	 add	 esp, 12			; 0000000cH

; 272  : 
; 273  : 	kPrinter[1].SetTextStyle( TS_NORMAL);

  00191	56		 push	 esi
  00192	8d 4d c4	 lea	 ecx, DWORD PTR _kPrinter$[ebp+32]
  00195	e8 00 00 00 00	 call	 ?SetTextStyle@ioComplexStringPrinter@@QAEXW4TextStyle@@@Z ; ioComplexStringPrinter::SetTextStyle

; 274  : 	kPrinter[1].SetBkColor( 0, 0, 0 );	

  0019a	56		 push	 esi
  0019b	56		 push	 esi
  0019c	56		 push	 esi
  0019d	8d 4d c4	 lea	 ecx, DWORD PTR _kPrinter$[ebp+32]
  001a0	e8 00 00 00 00	 call	 ?SetBkColor@ioComplexStringPrinter@@QAEXHHH@Z ; ioComplexStringPrinter::SetBkColor

; 275  : 	kPrinter[1].SetTextColor( TCT_DEFAULT_RED ); 

  001a5	68 00 16 b9 ff	 push	 -4647424		; ffb91600H
  001aa	8d 4d c4	 lea	 ecx, DWORD PTR _kPrinter$[ebp+32]
  001ad	e8 00 00 00 00	 call	 ?SetTextColor@ioComplexStringPrinter@@QAEXK@Z ; ioComplexStringPrinter::SetTextColor

; 276  : 	kPrinter[1].AddTextPiece( FONT_SIZE_13, STR(5) );

  001b2	56		 push	 esi
  001b3	6a 05		 push	 5
  001b5	68 00 00 00 00	 push	 OFFSET ??_C@_00CNPNBAHC@?$AA@
  001ba	68 00 00 00 00	 push	 OFFSET ??_C@_0BN@JBJKGEEJ@ioExtraItemListWnd?3?3OnRender?$AA@
  001bf	ff d7		 call	 edi
  001c1	8b c8		 mov	 ecx, eax
  001c3	ff d3		 call	 ebx
  001c5	f3 0f 10 05 00
	00 00 00	 movss	 xmm0, DWORD PTR __real@3f266666
  001cd	50		 push	 eax
  001ce	51		 push	 ecx
  001cf	8d 45 c4	 lea	 eax, DWORD PTR _kPrinter$[ebp+32]
  001d2	f3 0f 11 04 24	 movss	 DWORD PTR [esp], xmm0
  001d7	50		 push	 eax
  001d8	e8 00 00 00 00	 call	 ?AddTextPiece@ioComplexStringPrinter@@QAAXMPBDZZ ; ioComplexStringPrinter::AddTextPiece
  001dd	83 c4 0c	 add	 esp, 12			; 0000000cH

; 277  : 
; 278  : 	kPrinter[1].SetTextStyle( TS_NORMAL);

  001e0	56		 push	 esi
  001e1	8d 4d c4	 lea	 ecx, DWORD PTR _kPrinter$[ebp+32]
  001e4	e8 00 00 00 00	 call	 ?SetTextStyle@ioComplexStringPrinter@@QAEXW4TextStyle@@@Z ; ioComplexStringPrinter::SetTextStyle

; 279  : 	kPrinter[1].SetBkColor( 0, 0, 0 );	

  001e9	56		 push	 esi
  001ea	56		 push	 esi
  001eb	56		 push	 esi
  001ec	8d 4d c4	 lea	 ecx, DWORD PTR _kPrinter$[ebp+32]
  001ef	e8 00 00 00 00	 call	 ?SetBkColor@ioComplexStringPrinter@@QAEXHHH@Z ; ioComplexStringPrinter::SetBkColor

; 280  : 	kPrinter[1].SetTextColor( TCT_DEFAULT_DARKGRAY ); 

  001f4	68 3a 3a 3a ff	 push	 -12961222		; ff3a3a3aH
  001f9	8d 4d c4	 lea	 ecx, DWORD PTR _kPrinter$[ebp+32]
  001fc	e8 00 00 00 00	 call	 ?SetTextColor@ioComplexStringPrinter@@QAEXK@Z ; ioComplexStringPrinter::SetTextColor

; 281  : 	kPrinter[1].AddTextPiece( FONT_SIZE_13, STR(6) );

  00201	56		 push	 esi
  00202	6a 06		 push	 6
  00204	68 00 00 00 00	 push	 OFFSET ??_C@_00CNPNBAHC@?$AA@
  00209	68 00 00 00 00	 push	 OFFSET ??_C@_0BN@JBJKGEEJ@ioExtraItemListWnd?3?3OnRender?$AA@
  0020e	ff d7		 call	 edi
  00210	8b c8		 mov	 ecx, eax
  00212	ff d3		 call	 ebx
  00214	f3 0f 10 05 00
	00 00 00	 movss	 xmm0, DWORD PTR __real@3f266666
  0021c	50		 push	 eax
  0021d	51		 push	 ecx
  0021e	8d 45 c4	 lea	 eax, DWORD PTR _kPrinter$[ebp+32]
  00221	f3 0f 11 04 24	 movss	 DWORD PTR [esp], xmm0
  00226	50		 push	 eax
  00227	e8 00 00 00 00	 call	 ?AddTextPiece@ioComplexStringPrinter@@QAAXMPBDZZ ; ioComplexStringPrinter::AddTextPiece
  0022c	8b 45 e8	 mov	 eax, DWORD PTR _iXPos$[ebp]
  0022f	8b 7d ec	 mov	 edi, DWORD PTR _iYPos$[ebp]
  00232	05 ee 00 00 00	 add	 eax, 238		; 000000eeH

; 293  : }

  00237	0f 57 c0	 xorps	 xmm0, xmm0
  0023a	83 c4 0c	 add	 esp, 12			; 0000000cH
  0023d	f3 0f 2a c0	 cvtsi2ss xmm0, eax
  00241	f3 0f 11 45 e8	 movss	 DWORD PTR tv326[ebp], xmm0
  00246	8d 5d a4	 lea	 ebx, DWORD PTR _kPrinter$[ebp]
  00249	81 c7 d6 01 00
	00		 add	 edi, 470		; 000001d6H
  0024f	c7 45 f0 02 00
	00 00		 mov	 DWORD PTR tv206[ebp], 2
$LN3@OnRender:

; 282  : 
; 283  : 
; 284  : 	for (int i = 0; i < MAX_TEXT ; i++)
; 285  : 	{	
; 286  : 		kPrinter[i].PrintFullText( iXPos + DESC_X, iYPos + DESC_Y + ( i*LINE_GAP), TAT_CENTER );

  00256	68 ff 00 00 00	 push	 255			; 000000ffH
  0025b	6a 01		 push	 1
  0025d	51		 push	 ecx
  0025e	51		 push	 ecx
  0025f	0f 57 c0	 xorps	 xmm0, xmm0
  00262	f3 0f 2a c7	 cvtsi2ss xmm0, edi
  00266	f3 0f 11 44 24
	04		 movss	 DWORD PTR [esp+4], xmm0
  0026c	f3 0f 10 45 e8	 movss	 xmm0, DWORD PTR tv326[ebp]
  00271	8b cb		 mov	 ecx, ebx
  00273	f3 0f 11 04 24	 movss	 DWORD PTR [esp], xmm0
  00278	e8 00 00 00 00	 call	 ?PrintFullText@ioComplexStringPrinter@@QAEXMMW4TextAlignType@@E@Z ; ioComplexStringPrinter::PrintFullText
  0027d	83 c7 14	 add	 edi, 20			; 00000014H
  00280	83 c3 20	 add	 ebx, 32			; 00000020H
  00283	ff 4d f0	 dec	 DWORD PTR tv206[ebp]
  00286	75 ce		 jne	 SHORT $LN3@OnRender

; 287  : 	}
; 288  : 	g_FontMgr.SetTextStyle( TS_NORMAL );

  00288	8b 3d 00 00 00
	00		 mov	 edi, DWORD PTR __imp_?GetSingleton@ioFontManager@@SAAAV1@XZ
  0028e	56		 push	 esi
  0028f	ff d7		 call	 edi
  00291	8b c8		 mov	 ecx, eax
  00293	ff 15 00 00 00
	00		 call	 DWORD PTR __imp_?SetTextStyle@ioFontManager@@QAEXW4TextStyle@@@Z

; 289  : 	g_FontMgr.SetBkColor( 0, 0, 0 );

  00299	56		 push	 esi
  0029a	56		 push	 esi
  0029b	56		 push	 esi
  0029c	ff d7		 call	 edi
  0029e	8b c8		 mov	 ecx, eax
  002a0	ff 15 00 00 00
	00		 call	 DWORD PTR __imp_?SetBkColor@ioFontManager@@QAEXHHH@Z

; 290  : 	g_FontMgr.SetAlignType( TAT_CENTER );

  002a6	6a 01		 push	 1
  002a8	ff d7		 call	 edi
  002aa	8b c8		 mov	 ecx, eax
  002ac	ff 15 00 00 00
	00		 call	 DWORD PTR __imp_?SetAlignType@ioFontManager@@QAEXW4TextAlignType@@@Z

; 291  : 	g_FontMgr.SetTextColor( TCT_DEFAULT_DARKGRAY );

  002b2	68 3a 3a 3a ff	 push	 -12961222		; ff3a3a3aH
  002b7	ff d7		 call	 edi
  002b9	8b c8		 mov	 ecx, eax
  002bb	ff 15 00 00 00
	00		 call	 DWORD PTR __imp_?SetTextColor@ioFontManager@@QAEXK@Z

; 292  : 	g_FontMgr.PrintText( iXPos+PAGE_X, iYPos+PAGE_Y, FONT_SIZE_13, m_szPageText.c_str() );

  002c1	8b 4d e4	 mov	 ecx, DWORD PTR _this$[ebp]
  002c4	81 c1 70 01 00
	00		 add	 ecx, 368		; 00000170H
  002ca	ff 15 00 00 00
	00		 call	 DWORD PTR __imp_?c_str@ioHashString@@QBEPBDXZ
  002d0	f3 0f 10 05 00
	00 00 00	 movss	 xmm0, DWORD PTR __real@3f266666
  002d8	50		 push	 eax
  002d9	8b 45 ec	 mov	 eax, DWORD PTR _iYPos$[ebp]
  002dc	83 ec 0c	 sub	 esp, 12			; 0000000cH
  002df	f3 0f 11 44 24
	08		 movss	 DWORD PTR [esp+8], xmm0
  002e5	05 a9 01 00 00	 add	 eax, 425		; 000001a9H
  002ea	0f 57 c0	 xorps	 xmm0, xmm0
  002ed	f3 0f 2a c0	 cvtsi2ss xmm0, eax
  002f1	f3 0f 11 44 24
	04		 movss	 DWORD PTR [esp+4], xmm0
  002f7	f3 0f 10 45 e8	 movss	 xmm0, DWORD PTR tv326[ebp]
  002fc	f3 0f 11 04 24	 movss	 DWORD PTR [esp], xmm0
  00301	ff d7		 call	 edi
  00303	50		 push	 eax
  00304	ff 15 00 00 00
	00		 call	 DWORD PTR __imp_?PrintText@ioFontManager@@QAAXMMMPBDZZ

; 293  : }

  0030a	83 4d fc ff	 or	 DWORD PTR __$EHRec$[ebp+8], -1
  0030e	83 c4 14	 add	 esp, 20			; 00000014H
  00311	68 00 00 00 00	 push	 OFFSET ??1ioComplexStringPrinter@@QAE@XZ ; ioComplexStringPrinter::~ioComplexStringPrinter
  00316	6a 02		 push	 2
  00318	6a 20		 push	 32			; 00000020H
  0031a	8d 45 a4	 lea	 eax, DWORD PTR _kPrinter$[ebp]
  0031d	50		 push	 eax
  0031e	e8 00 00 00 00	 call	 ??_M@YGXPAXIHP6EX0@Z@Z
  00323	e8 00 00 00 00	 call	 __EH_epilog3
  00328	c3		 ret	 0
_TEXT	ENDS
;	COMDAT text$x
text$x	SEGMENT
__unwindfunclet$?OnRender@ioExtraItemListWnd@@MAEXXZ$0:
  00000	68 00 00 00 00	 push	 OFFSET ??1ioComplexStringPrinter@@QAE@XZ ; ioComplexStringPrinter::~ioComplexStringPrinter
  00005	6a 02		 push	 2
  00007	6a 20		 push	 32			; 00000020H
  00009	8d 45 a4	 lea	 eax, DWORD PTR _kPrinter$[ebp]
  0000c	50		 push	 eax
  0000d	e8 00 00 00 00	 call	 ??_M@YGXPAXIHP6EX0@Z@Z
  00012	c3		 ret	 0
__ehhandler$?OnRender@ioExtraItemListWnd@@MAEXXZ:
  00013	8b 54 24 08	 mov	 edx, DWORD PTR [esp+8]
  00017	8d 42 0c	 lea	 eax, DWORD PTR [edx+12]
  0001a	8b 4a a0	 mov	 ecx, DWORD PTR [edx-96]
  0001d	33 c8		 xor	 ecx, eax
  0001f	e8 00 00 00 00	 call	 @__security_check_cookie@4
  00024	b8 00 00 00 00	 mov	 eax, OFFSET __ehfuncinfo$?OnRender@ioExtraItemListWnd@@MAEXXZ
  00029	e9 00 00 00 00	 jmp	 ___CxxFrameHandler3
text$x	ENDS
?OnRender@ioExtraItemListWnd@@MAEXXZ ENDP		; ioExtraItemListWnd::OnRender
PUBLIC	??_7bad_alloc@std@@6B@				; std::bad_alloc::`vftable'
PUBLIC	??0bad_alloc@std@@QAE@PBD@Z			; std::bad_alloc::bad_alloc
PUBLIC	??_R4bad_alloc@std@@6B@				; std::bad_alloc::`RTTI Complete Object Locator'
PUBLIC	??_R0?AVbad_alloc@std@@@8			; std::bad_alloc `RTTI Type Descriptor'
PUBLIC	??_R3bad_alloc@std@@8				; std::bad_alloc::`RTTI Class Hierarchy Descriptor'
PUBLIC	??_R2bad_alloc@std@@8				; std::bad_alloc::`RTTI Base Class Array'
PUBLIC	??_R1A@?0A@EA@bad_alloc@std@@8			; std::bad_alloc::`RTTI Base Class Descriptor at (0,-1,0,64)'
PUBLIC	??_R1A@?0A@EA@exception@std@@8			; std::exception::`RTTI Base Class Descriptor at (0,-1,0,64)'
PUBLIC	??_R0?AVexception@std@@@8			; std::exception `RTTI Type Descriptor'
PUBLIC	??_R3exception@std@@8				; std::exception::`RTTI Class Hierarchy Descriptor'
PUBLIC	??_R2exception@std@@8				; std::exception::`RTTI Base Class Array'
EXTRN	__imp_??0exception@std@@QAE@ABQBD@Z:PROC
EXTRN	??_7type_info@@6B@:QWORD			; type_info::`vftable'
EXTRN	??_Ebad_alloc@std@@UAEPAXI@Z:PROC		; std::bad_alloc::`vector deleting destructor'
EXTRN	?what@exception@std@@UBEPBDXZ:PROC		; std::exception::what
;	COMDAT ??_R2exception@std@@8
; File c:\program files (x86)\microsoft visual studio 10.0\vc\include\exception
rdata$r	SEGMENT
??_R2exception@std@@8 DD FLAT:??_R1A@?0A@EA@exception@std@@8 ; std::exception::`RTTI Base Class Array'
rdata$r	ENDS
;	COMDAT ??_R3exception@std@@8
rdata$r	SEGMENT
??_R3exception@std@@8 DD 00H				; std::exception::`RTTI Class Hierarchy Descriptor'
	DD	00H
	DD	01H
	DD	FLAT:??_R2exception@std@@8
rdata$r	ENDS
;	COMDAT ??_R0?AVexception@std@@@8
_DATA	SEGMENT
??_R0?AVexception@std@@@8 DD FLAT:??_7type_info@@6B@	; std::exception `RTTI Type Descriptor'
	DD	00H
	DB	'.?AVexception@std@@', 00H
_DATA	ENDS
;	COMDAT ??_R1A@?0A@EA@exception@std@@8
rdata$r	SEGMENT
??_R1A@?0A@EA@exception@std@@8 DD FLAT:??_R0?AVexception@std@@@8 ; std::exception::`RTTI Base Class Descriptor at (0,-1,0,64)'
	DD	00H
	DD	00H
	DD	0ffffffffH
	DD	00H
	DD	040H
	DD	FLAT:??_R3exception@std@@8
rdata$r	ENDS
;	COMDAT ??_R1A@?0A@EA@bad_alloc@std@@8
rdata$r	SEGMENT
??_R1A@?0A@EA@bad_alloc@std@@8 DD FLAT:??_R0?AVbad_alloc@std@@@8 ; std::bad_alloc::`RTTI Base Class Descriptor at (0,-1,0,64)'
	DD	01H
	DD	00H
	DD	0ffffffffH
	DD	00H
	DD	040H
	DD	FLAT:??_R3bad_alloc@std@@8
rdata$r	ENDS
;	COMDAT ??_R2bad_alloc@std@@8
rdata$r	SEGMENT
??_R2bad_alloc@std@@8 DD FLAT:??_R1A@?0A@EA@bad_alloc@std@@8 ; std::bad_alloc::`RTTI Base Class Array'
	DD	FLAT:??_R1A@?0A@EA@exception@std@@8
rdata$r	ENDS
;	COMDAT ??_R3bad_alloc@std@@8
rdata$r	SEGMENT
??_R3bad_alloc@std@@8 DD 00H				; std::bad_alloc::`RTTI Class Hierarchy Descriptor'
	DD	00H
	DD	02H
	DD	FLAT:??_R2bad_alloc@std@@8
rdata$r	ENDS
;	COMDAT ??_R0?AVbad_alloc@std@@@8
_DATA	SEGMENT
??_R0?AVbad_alloc@std@@@8 DD FLAT:??_7type_info@@6B@	; std::bad_alloc `RTTI Type Descriptor'
	DD	00H
	DB	'.?AVbad_alloc@std@@', 00H
_DATA	ENDS
;	COMDAT ??_R4bad_alloc@std@@6B@
rdata$r	SEGMENT
??_R4bad_alloc@std@@6B@ DD 00H				; std::bad_alloc::`RTTI Complete Object Locator'
	DD	00H
	DD	00H
	DD	FLAT:??_R0?AVbad_alloc@std@@@8
	DD	FLAT:??_R3bad_alloc@std@@8
rdata$r	ENDS
;	COMDAT ??_7bad_alloc@std@@6B@
CONST	SEGMENT
??_7bad_alloc@std@@6B@ DD FLAT:??_R4bad_alloc@std@@6B@	; std::bad_alloc::`vftable'
	DD	FLAT:??_Ebad_alloc@std@@UAEPAXI@Z
	DD	FLAT:?what@exception@std@@UBEPBDXZ
; Function compile flags: /Ogsp
CONST	ENDS
;	COMDAT ??0bad_alloc@std@@QAE@PBD@Z
_TEXT	SEGMENT
__Message$ = 8						; size = 4
??0bad_alloc@std@@QAE@PBD@Z PROC			; std::bad_alloc::bad_alloc, COMDAT
; _this$ = ecx

; 345  : 		{	// construct from message string

  00000	55		 push	 ebp
  00001	8b ec		 mov	 ebp, esp
  00003	56		 push	 esi
  00004	8d 45 08	 lea	 eax, DWORD PTR __Message$[ebp]
  00007	50		 push	 eax
  00008	8b f1		 mov	 esi, ecx
  0000a	ff 15 00 00 00
	00		 call	 DWORD PTR __imp_??0exception@std@@QAE@ABQBD@Z
  00010	c7 06 00 00 00
	00		 mov	 DWORD PTR [esi], OFFSET ??_7bad_alloc@std@@6B@

; 346  : 		}

  00016	8b c6		 mov	 eax, esi
  00018	5e		 pop	 esi
  00019	5d		 pop	 ebp
  0001a	c2 04 00	 ret	 4
??0bad_alloc@std@@QAE@PBD@Z ENDP			; std::bad_alloc::bad_alloc
_TEXT	ENDS
PUBLIC	??1bad_alloc@std@@UAE@XZ			; std::bad_alloc::~bad_alloc
EXTRN	__imp_??1exception@std@@UAE@XZ:PROC
; Function compile flags: /Ogsp
;	COMDAT ??1bad_alloc@std@@UAE@XZ
_TEXT	SEGMENT
??1bad_alloc@std@@UAE@XZ PROC				; std::bad_alloc::~bad_alloc, COMDAT
; _this$ = ecx

; 354  : 		{	// destroy the object

  00000	c7 01 00 00 00
	00		 mov	 DWORD PTR [ecx], OFFSET ??_7bad_alloc@std@@6B@

; 355  : 		}

  00006	ff 25 00 00 00
	00		 jmp	 DWORD PTR __imp_??1exception@std@@UAE@XZ
??1bad_alloc@std@@UAE@XZ ENDP				; std::bad_alloc::~bad_alloc
_TEXT	ENDS
EXTRN	??3@YAXPAX@Z:PROC				; operator delete
; Function compile flags: /Ogsp
;	COMDAT ??_Gbad_alloc@std@@UAEPAXI@Z
_TEXT	SEGMENT
___flags$ = 8						; size = 4
??_Gbad_alloc@std@@UAEPAXI@Z PROC			; std::bad_alloc::`scalar deleting destructor', COMDAT
; _this$ = ecx
  00000	55		 push	 ebp
  00001	8b ec		 mov	 ebp, esp
  00003	56		 push	 esi
  00004	8b f1		 mov	 esi, ecx
  00006	c7 06 00 00 00
	00		 mov	 DWORD PTR [esi], OFFSET ??_7bad_alloc@std@@6B@
  0000c	ff 15 00 00 00
	00		 call	 DWORD PTR __imp_??1exception@std@@UAE@XZ
  00012	f6 45 08 01	 test	 BYTE PTR ___flags$[ebp], 1
  00016	74 07		 je	 SHORT $LN1@scalar
  00018	56		 push	 esi
  00019	e8 00 00 00 00	 call	 ??3@YAXPAX@Z		; operator delete
  0001e	59		 pop	 ecx
$LN1@scalar:
  0001f	8b c6		 mov	 eax, esi
  00021	5e		 pop	 esi
  00022	5d		 pop	 ebp
  00023	c2 04 00	 ret	 4
??_Gbad_alloc@std@@UAEPAXI@Z ENDP			; std::bad_alloc::`scalar deleting destructor'
_TEXT	ENDS
PUBLIC	?size@?$vector@V?$basic_string@DU?$char_traits@D@std@@V?$allocator@D@2@@std@@V?$allocator@V?$basic_string@DU?$char_traits@D@std@@V?$allocator@D@2@@std@@@2@@std@@QBEIXZ ; std::vector<std::basic_string<char,std::char_traits<char>,std::allocator<char> >,std::allocator<std::basic_string<char,std::char_traits<char>,std::allocator<char> > > >::size
; Function compile flags: /Ogsp
; File c:\program files (x86)\microsoft visual studio 10.0\vc\include\vector
;	COMDAT ?size@?$vector@V?$basic_string@DU?$char_traits@D@std@@V?$allocator@D@2@@std@@V?$allocator@V?$basic_string@DU?$char_traits@D@std@@V?$allocator@D@2@@std@@@2@@std@@QBEIXZ
_TEXT	SEGMENT
?size@?$vector@V?$basic_string@DU?$char_traits@D@std@@V?$allocator@D@2@@std@@V?$allocator@V?$basic_string@DU?$char_traits@D@std@@V?$allocator@D@2@@std@@@2@@std@@QBEIXZ PROC ; std::vector<std::basic_string<char,std::char_traits<char>,std::allocator<char> >,std::allocator<std::basic_string<char,std::char_traits<char>,std::allocator<char> > > >::size, COMDAT
; _this$ = ecx

; 879  : 		return (this->_Mylast - this->_Myfirst);

  00000	8b 41 04	 mov	 eax, DWORD PTR [ecx+4]
  00003	2b 01		 sub	 eax, DWORD PTR [ecx]
  00005	6a 1c		 push	 28			; 0000001cH
  00007	99		 cdq
  00008	59		 pop	 ecx
  00009	f7 f9		 idiv	 ecx

; 880  : 		}

  0000b	c3		 ret	 0
?size@?$vector@V?$basic_string@DU?$char_traits@D@std@@V?$allocator@D@2@@std@@V?$allocator@V?$basic_string@DU?$char_traits@D@std@@V?$allocator@D@2@@std@@@2@@std@@QBEIXZ ENDP ; std::vector<std::basic_string<char,std::char_traits<char>,std::allocator<char> >,std::allocator<std::basic_string<char,std::char_traits<char>,std::allocator<char> > > >::size
_TEXT	ENDS
PUBLIC	??A?$vector@V?$basic_string@DU?$char_traits@D@std@@V?$allocator@D@2@@std@@V?$allocator@V?$basic_string@DU?$char_traits@D@std@@V?$allocator@D@2@@std@@@2@@std@@QAEAAV?$basic_string@DU?$char_traits@D@std@@V?$allocator@D@2@@1@I@Z ; std::vector<std::basic_string<char,std::char_traits<char>,std::allocator<char> >,std::allocator<std::basic_string<char,std::char_traits<char>,std::allocator<char> > > >::operator[]
; Function compile flags: /Ogsp
;	COMDAT ??A?$vector@V?$basic_string@DU?$char_traits@D@std@@V?$allocator@D@2@@std@@V?$allocator@V?$basic_string@DU?$char_traits@D@std@@V?$allocator@D@2@@std@@@2@@std@@QAEAAV?$basic_string@DU?$char_traits@D@std@@V?$allocator@D@2@@1@I@Z
_TEXT	SEGMENT
__Pos$ = 8						; size = 4
??A?$vector@V?$basic_string@DU?$char_traits@D@std@@V?$allocator@D@2@@std@@V?$allocator@V?$basic_string@DU?$char_traits@D@std@@V?$allocator@D@2@@std@@@2@@std@@QAEAAV?$basic_string@DU?$char_traits@D@std@@V?$allocator@D@2@@1@I@Z PROC ; std::vector<std::basic_string<char,std::char_traits<char>,std::allocator<char> >,std::allocator<std::basic_string<char,std::char_traits<char>,std::allocator<char> > > >::operator[], COMDAT
; _this$ = ecx

; 928  : 		{	// subscript mutable sequence

  00000	55		 push	 ebp
  00001	8b ec		 mov	 ebp, esp

; 929  :  #if _ITERATOR_DEBUG_LEVEL == 2
; 930  : 		if (size() <= _Pos)
; 931  : 			{	// report error
; 932  : 			_DEBUG_ERROR("vector subscript out of range");
; 933  : 			_SCL_SECURE_OUT_OF_RANGE;
; 934  : 			}
; 935  : 
; 936  :  #elif _ITERATOR_DEBUG_LEVEL == 1
; 937  : 		_SCL_SECURE_VALIDATE_RANGE(_Pos < size());
; 938  :  #endif /* _ITERATOR_DEBUG_LEVEL */
; 939  : 
; 940  : 		return (*(this->_Myfirst + _Pos));

  00003	8b 45 08	 mov	 eax, DWORD PTR __Pos$[ebp]
  00006	6b c0 1c	 imul	 eax, 28			; 0000001cH
  00009	03 01		 add	 eax, DWORD PTR [ecx]

; 941  : 		}

  0000b	5d		 pop	 ebp
  0000c	c2 04 00	 ret	 4
??A?$vector@V?$basic_string@DU?$char_traits@D@std@@V?$allocator@D@2@@std@@V?$allocator@V?$basic_string@DU?$char_traits@D@std@@V?$allocator@D@2@@std@@@2@@std@@QAEAAV?$basic_string@DU?$char_traits@D@std@@V?$allocator@D@2@@1@I@Z ENDP ; std::vector<std::basic_string<char,std::char_traits<char>,std::allocator<char> >,std::allocator<std::basic_string<char,std::char_traits<char>,std::allocator<char> > > >::operator[]
_TEXT	ENDS
PUBLIC	?size@?$vector@UItemListInfoSort@@V?$allocator@UItemListInfoSort@@@std@@@std@@QBEIXZ ; std::vector<ItemListInfoSort,std::allocator<ItemListInfoSort> >::size
; Function compile flags: /Ogsp
;	COMDAT ?size@?$vector@UItemListInfoSort@@V?$allocator@UItemListInfoSort@@@std@@@std@@QBEIXZ
_TEXT	SEGMENT
?size@?$vector@UItemListInfoSort@@V?$allocator@UItemListInfoSort@@@std@@@std@@QBEIXZ PROC ; std::vector<ItemListInfoSort,std::allocator<ItemListInfoSort> >::size, COMDAT
; _this$ = ecx

; 879  : 		return (this->_Mylast - this->_Myfirst);

  00000	8b 41 04	 mov	 eax, DWORD PTR [ecx+4]
  00003	2b 01		 sub	 eax, DWORD PTR [ecx]
  00005	6a 14		 push	 20			; 00000014H
  00007	99		 cdq
  00008	59		 pop	 ecx
  00009	f7 f9		 idiv	 ecx

; 880  : 		}

  0000b	c3		 ret	 0
?size@?$vector@UItemListInfoSort@@V?$allocator@UItemListInfoSort@@@std@@@std@@QBEIXZ ENDP ; std::vector<ItemListInfoSort,std::allocator<ItemListInfoSort> >::size
_TEXT	ENDS
PUBLIC	?empty@?$vector@UItemListInfoSort@@V?$allocator@UItemListInfoSort@@@std@@@std@@QBE_NXZ ; std::vector<ItemListInfoSort,std::allocator<ItemListInfoSort> >::empty
; Function compile flags: /Ogsp
;	COMDAT ?empty@?$vector@UItemListInfoSort@@V?$allocator@UItemListInfoSort@@@std@@@std@@QBE_NXZ
_TEXT	SEGMENT
?empty@?$vector@UItemListInfoSort@@V?$allocator@UItemListInfoSort@@@std@@@std@@QBE_NXZ PROC ; std::vector<ItemListInfoSort,std::allocator<ItemListInfoSort> >::empty, COMDAT
; _this$ = ecx

; 889  : 		return (this->_Myfirst == this->_Mylast);

  00000	8b 01		 mov	 eax, DWORD PTR [ecx]
  00002	2b 41 04	 sub	 eax, DWORD PTR [ecx+4]
  00005	f7 d8		 neg	 eax
  00007	1b c0		 sbb	 eax, eax
  00009	40		 inc	 eax

; 890  : 		}

  0000a	c3		 ret	 0
?empty@?$vector@UItemListInfoSort@@V?$allocator@UItemListInfoSort@@@std@@@std@@QBE_NXZ ENDP ; std::vector<ItemListInfoSort,std::allocator<ItemListInfoSort> >::empty
_TEXT	ENDS
PUBLIC	??A?$vector@UItemListInfoSort@@V?$allocator@UItemListInfoSort@@@std@@@std@@QAEAAUItemListInfoSort@@I@Z ; std::vector<ItemListInfoSort,std::allocator<ItemListInfoSort> >::operator[]
; Function compile flags: /Ogsp
;	COMDAT ??A?$vector@UItemListInfoSort@@V?$allocator@UItemListInfoSort@@@std@@@std@@QAEAAUItemListInfoSort@@I@Z
_TEXT	SEGMENT
__Pos$ = 8						; size = 4
??A?$vector@UItemListInfoSort@@V?$allocator@UItemListInfoSort@@@std@@@std@@QAEAAUItemListInfoSort@@I@Z PROC ; std::vector<ItemListInfoSort,std::allocator<ItemListInfoSort> >::operator[], COMDAT
; _this$ = ecx

; 928  : 		{	// subscript mutable sequence

  00000	55		 push	 ebp
  00001	8b ec		 mov	 ebp, esp

; 929  :  #if _ITERATOR_DEBUG_LEVEL == 2
; 930  : 		if (size() <= _Pos)
; 931  : 			{	// report error
; 932  : 			_DEBUG_ERROR("vector subscript out of range");
; 933  : 			_SCL_SECURE_OUT_OF_RANGE;
; 934  : 			}
; 935  : 
; 936  :  #elif _ITERATOR_DEBUG_LEVEL == 1
; 937  : 		_SCL_SECURE_VALIDATE_RANGE(_Pos < size());
; 938  :  #endif /* _ITERATOR_DEBUG_LEVEL */
; 939  : 
; 940  : 		return (*(this->_Myfirst + _Pos));

  00003	8b 45 08	 mov	 eax, DWORD PTR __Pos$[ebp]
  00006	6b c0 14	 imul	 eax, 20			; 00000014H
  00009	03 01		 add	 eax, DWORD PTR [ecx]

; 941  : 		}

  0000b	5d		 pop	 ebp
  0000c	c2 04 00	 ret	 4
??A?$vector@UItemListInfoSort@@V?$allocator@UItemListInfoSort@@@std@@@std@@QAEAAUItemListInfoSort@@I@Z ENDP ; std::vector<ItemListInfoSort,std::allocator<ItemListInfoSort> >::operator[]
_TEXT	ENDS
PUBLIC	??2@YAPAXIPAX@Z					; operator new
; Function compile flags: /Ogsp
; File c:\program files (x86)\microsoft visual studio 10.0\vc\include\new
;	COMDAT ??2@YAPAXIPAX@Z
_TEXT	SEGMENT
___formal$ = 8						; size = 4
__Where$ = 12						; size = 4
??2@YAPAXIPAX@Z PROC					; operator new, COMDAT

; 56   : 	{	// construct array with placement at _Where

  00000	55		 push	 ebp
  00001	8b ec		 mov	 ebp, esp

; 57   : 	return (_Where);

  00003	8b 45 0c	 mov	 eax, DWORD PTR __Where$[ebp]

; 58   : 	}

  00006	5d		 pop	 ebp
  00007	c3		 ret	 0
??2@YAPAXIPAX@Z ENDP					; operator new
_TEXT	ENDS
PUBLIC	??3@YAXPAX0@Z					; operator delete
; Function compile flags: /Ogsp
;	COMDAT ??3@YAXPAX0@Z
_TEXT	SEGMENT
___formal$ = 8						; size = 4
___formal$ = 12						; size = 4
??3@YAXPAX0@Z PROC					; operator delete, COMDAT

; 62   : 	}

  00000	c3		 ret	 0
??3@YAXPAX0@Z ENDP					; operator delete
_TEXT	ENDS
PUBLIC	?capacity@?$vector@V?$basic_string@DU?$char_traits@D@std@@V?$allocator@D@2@@std@@V?$allocator@V?$basic_string@DU?$char_traits@D@std@@V?$allocator@D@2@@std@@@2@@std@@QBEIXZ ; std::vector<std::basic_string<char,std::char_traits<char>,std::allocator<char> >,std::allocator<std::basic_string<char,std::char_traits<char>,std::allocator<char> > > >::capacity
; Function compile flags: /Ogsp
; File c:\program files (x86)\microsoft visual studio 10.0\vc\include\vector
;	COMDAT ?capacity@?$vector@V?$basic_string@DU?$char_traits@D@std@@V?$allocator@D@2@@std@@V?$allocator@V?$basic_string@DU?$char_traits@D@std@@V?$allocator@D@2@@std@@@2@@std@@QBEIXZ
_TEXT	SEGMENT
?capacity@?$vector@V?$basic_string@DU?$char_traits@D@std@@V?$allocator@D@2@@std@@V?$allocator@V?$basic_string@DU?$char_traits@D@std@@V?$allocator@D@2@@std@@@2@@std@@QBEIXZ PROC ; std::vector<std::basic_string<char,std::char_traits<char>,std::allocator<char> >,std::allocator<std::basic_string<char,std::char_traits<char>,std::allocator<char> > > >::capacity, COMDAT
; _this$ = ecx

; 777  : 		return (this->_Myend - this->_Myfirst);

  00000	8b 41 08	 mov	 eax, DWORD PTR [ecx+8]
  00003	2b 01		 sub	 eax, DWORD PTR [ecx]
  00005	6a 1c		 push	 28			; 0000001cH
  00007	99		 cdq
  00008	59		 pop	 ecx
  00009	f7 f9		 idiv	 ecx

; 778  : 		}

  0000b	c3		 ret	 0
?capacity@?$vector@V?$basic_string@DU?$char_traits@D@std@@V?$allocator@D@2@@std@@V?$allocator@V?$basic_string@DU?$char_traits@D@std@@V?$allocator@D@2@@std@@@2@@std@@QBEIXZ ENDP ; std::vector<std::basic_string<char,std::char_traits<char>,std::allocator<char> >,std::allocator<std::basic_string<char,std::char_traits<char>,std::allocator<char> > > >::capacity
_TEXT	ENDS
PUBLIC	??0?$allocator@V?$basic_string@DU?$char_traits@D@std@@V?$allocator@D@2@@std@@@std@@QAE@XZ ; std::allocator<std::basic_string<char,std::char_traits<char>,std::allocator<char> > >::allocator<std::basic_string<char,std::char_traits<char>,std::allocator<char> > >
; Function compile flags: /Ogsp
; File c:\program files (x86)\microsoft visual studio 10.0\vc\include\xmemory
;	COMDAT ??0?$allocator@V?$basic_string@DU?$char_traits@D@std@@V?$allocator@D@2@@std@@@std@@QAE@XZ
_TEXT	SEGMENT
??0?$allocator@V?$basic_string@DU?$char_traits@D@std@@V?$allocator@D@2@@std@@@std@@QAE@XZ PROC ; std::allocator<std::basic_string<char,std::char_traits<char>,std::allocator<char> > >::allocator<std::basic_string<char,std::char_traits<char>,std::allocator<char> > >, COMDAT
; _this$ = ecx

; 161  : 	_ALLOCATOR() _THROW0()

  00000	8b c1		 mov	 eax, ecx

; 162  : 		{	// construct default allocator (do nothing)
; 163  : 		}

  00002	c3		 ret	 0
??0?$allocator@V?$basic_string@DU?$char_traits@D@std@@V?$allocator@D@2@@std@@@std@@QAE@XZ ENDP ; std::allocator<std::basic_string<char,std::char_traits<char>,std::allocator<char> > >::allocator<std::basic_string<char,std::char_traits<char>,std::allocator<char> > >
_TEXT	ENDS
PUBLIC	?length@?$char_traits@D@std@@SAIPBD@Z		; std::char_traits<char>::length
; Function compile flags: /Ogsp
; File c:\program files (x86)\microsoft visual studio 10.0\vc\include\iosfwd
;	COMDAT ?length@?$char_traits@D@std@@SAIPBD@Z
_TEXT	SEGMENT
__First$ = 8						; size = 4
?length@?$char_traits@D@std@@SAIPBD@Z PROC		; std::char_traits<char>::length, COMDAT

; 490  : 		{	// find length of null-terminated string

  00000	55		 push	 ebp
  00001	8b ec		 mov	 ebp, esp

; 491  : 		return (_CSTD strlen(_First));

  00003	8b 45 08	 mov	 eax, DWORD PTR __First$[ebp]
  00006	8d 50 01	 lea	 edx, DWORD PTR [eax+1]
$LL3@length:
  00009	8a 08		 mov	 cl, BYTE PTR [eax]
  0000b	40		 inc	 eax
  0000c	84 c9		 test	 cl, cl
  0000e	75 f9		 jne	 SHORT $LL3@length
  00010	2b c2		 sub	 eax, edx

; 492  : 		}

  00012	5d		 pop	 ebp
  00013	c3		 ret	 0
?length@?$char_traits@D@std@@SAIPBD@Z ENDP		; std::char_traits<char>::length
_TEXT	ENDS
PUBLIC	?copy@?$char_traits@D@std@@SAPADPADPBDI@Z	; std::char_traits<char>::copy
EXTRN	_memcpy:PROC
; Function compile flags: /Ogsp
;	COMDAT ?copy@?$char_traits@D@std@@SAPADPADPBDI@Z
_TEXT	SEGMENT
__First1$ = 8						; size = 4
__First2$ = 12						; size = 4
__Count$ = 16						; size = 4
?copy@?$char_traits@D@std@@SAPADPADPBDI@Z PROC		; std::char_traits<char>::copy, COMDAT

; 496  : 		{	// copy [_First1, _First1 + _Count) to [_First2, ...)

  00000	55		 push	 ebp
  00001	8b ec		 mov	 ebp, esp

; 498  : 		}

  00003	5d		 pop	 ebp

; 497  : 		return ((_Elem *)_CSTD memcpy(_First1, _First2, _Count));

  00004	e9 00 00 00 00	 jmp	 _memcpy
?copy@?$char_traits@D@std@@SAPADPADPBDI@Z ENDP		; std::char_traits<char>::copy
_TEXT	ENDS
PUBLIC	?_Inside@?$vector@UItemListInfoSort@@V?$allocator@UItemListInfoSort@@@std@@@std@@IBE_NPBUItemListInfoSort@@@Z ; std::vector<ItemListInfoSort,std::allocator<ItemListInfoSort> >::_Inside
; Function compile flags: /Ogsp
; File c:\program files (x86)\microsoft visual studio 10.0\vc\include\vector
;	COMDAT ?_Inside@?$vector@UItemListInfoSort@@V?$allocator@UItemListInfoSort@@@std@@@std@@IBE_NPBUItemListInfoSort@@@Z
_TEXT	SEGMENT
__Ptr$ = 8						; size = 4
?_Inside@?$vector@UItemListInfoSort@@V?$allocator@UItemListInfoSort@@@std@@@std@@IBE_NPBUItemListInfoSort@@@Z PROC ; std::vector<ItemListInfoSort,std::allocator<ItemListInfoSort> >::_Inside, COMDAT
; _this$ = ecx

; 1285 : 		{	// test if _Ptr points inside vector

  00000	55		 push	 ebp
  00001	8b ec		 mov	 ebp, esp

; 1286 : 		return (_Ptr < this->_Mylast && this->_Myfirst <= _Ptr);

  00003	8b 45 08	 mov	 eax, DWORD PTR __Ptr$[ebp]
  00006	3b 41 04	 cmp	 eax, DWORD PTR [ecx+4]
  00009	73 09		 jae	 SHORT $LN3@Inside
  0000b	39 01		 cmp	 DWORD PTR [ecx], eax
  0000d	77 05		 ja	 SHORT $LN3@Inside
  0000f	33 c0		 xor	 eax, eax
  00011	40		 inc	 eax
  00012	eb 02		 jmp	 SHORT $LN4@Inside
$LN3@Inside:
  00014	33 c0		 xor	 eax, eax
$LN4@Inside:

; 1287 : 		}

  00016	5d		 pop	 ebp
  00017	c2 04 00	 ret	 4
?_Inside@?$vector@UItemListInfoSort@@V?$allocator@UItemListInfoSort@@@std@@@std@@IBE_NPBUItemListInfoSort@@@Z ENDP ; std::vector<ItemListInfoSort,std::allocator<ItemListInfoSort> >::_Inside
_TEXT	ENDS
PUBLIC	?move@?$char_traits@D@std@@SAPADPADPBDI@Z	; std::char_traits<char>::move
EXTRN	__imp__memmove:PROC
; Function compile flags: /Ogsp
; File c:\program files (x86)\microsoft visual studio 10.0\vc\include\iosfwd
;	COMDAT ?move@?$char_traits@D@std@@SAPADPADPBDI@Z
_TEXT	SEGMENT
__First1$ = 8						; size = 4
__First2$ = 12						; size = 4
__Count$ = 16						; size = 4
?move@?$char_traits@D@std@@SAPADPADPBDI@Z PROC		; std::char_traits<char>::move, COMDAT

; 516  : 		{	// copy [_First1, _First1 + _Count) to [_First2, ...)

  00000	55		 push	 ebp
  00001	8b ec		 mov	 ebp, esp

; 518  : 		}

  00003	5d		 pop	 ebp

; 517  : 		return ((_Elem *)_CSTD memmove(_First1, _First2, _Count));

  00004	ff 25 00 00 00
	00		 jmp	 DWORD PTR __imp__memmove
?move@?$char_traits@D@std@@SAPADPADPBDI@Z ENDP		; std::char_traits<char>::move
_TEXT	ENDS
PUBLIC	?assign@?$char_traits@D@std@@SAXAADABD@Z	; std::char_traits<char>::assign
; Function compile flags: /Ogsp
;	COMDAT ?assign@?$char_traits@D@std@@SAXAADABD@Z
_TEXT	SEGMENT
__Left$ = 8						; size = 4
__Right$ = 12						; size = 4
?assign@?$char_traits@D@std@@SAXAADABD@Z PROC		; std::char_traits<char>::assign, COMDAT

; 526  : 		{	// assign an element

  00000	55		 push	 ebp
  00001	8b ec		 mov	 ebp, esp

; 527  : 		_Left = _Right;

  00003	8b 45 0c	 mov	 eax, DWORD PTR __Right$[ebp]
  00006	8a 00		 mov	 al, BYTE PTR [eax]
  00008	8b 4d 08	 mov	 ecx, DWORD PTR __Left$[ebp]
  0000b	88 01		 mov	 BYTE PTR [ecx], al

; 528  : 		}

  0000d	5d		 pop	 ebp
  0000e	c3		 ret	 0
?assign@?$char_traits@D@std@@SAXAADABD@Z ENDP		; std::char_traits<char>::assign
_TEXT	ENDS
PUBLIC	?_Orphan_range@?$vector@UItemListInfoSort@@V?$allocator@UItemListInfoSort@@@std@@@std@@IBEXPAUItemListInfoSort@@0@Z ; std::vector<ItemListInfoSort,std::allocator<ItemListInfoSort> >::_Orphan_range
; Function compile flags: /Ogsp
; File c:\program files (x86)\microsoft visual studio 10.0\vc\include\vector
;	COMDAT ?_Orphan_range@?$vector@UItemListInfoSort@@V?$allocator@UItemListInfoSort@@@std@@@std@@IBEXPAUItemListInfoSort@@0@Z
_TEXT	SEGMENT
___formal$ = 8						; size = 4
___formal$ = 12						; size = 4
?_Orphan_range@?$vector@UItemListInfoSort@@V?$allocator@UItemListInfoSort@@@std@@@std@@IBEXPAUItemListInfoSort@@0@Z PROC ; std::vector<ItemListInfoSort,std::allocator<ItemListInfoSort> >::_Orphan_range, COMDAT
; _this$ = ecx

; 1454 : 		}

  00000	c2 08 00	 ret	 8
?_Orphan_range@?$vector@UItemListInfoSort@@V?$allocator@UItemListInfoSort@@@std@@@std@@IBEXPAUItemListInfoSort@@0@Z ENDP ; std::vector<ItemListInfoSort,std::allocator<ItemListInfoSort> >::_Orphan_range
_TEXT	ENDS
PUBLIC	??1?$_Vector_val@UItemListInfoSort@@V?$allocator@UItemListInfoSort@@@std@@@std@@QAE@XZ ; std::_Vector_val<ItemListInfoSort,std::allocator<ItemListInfoSort> >::~_Vector_val<ItemListInfoSort,std::allocator<ItemListInfoSort> >
; Function compile flags: /Ogsp
;	COMDAT ??1?$_Vector_val@UItemListInfoSort@@V?$allocator@UItemListInfoSort@@@std@@@std@@QAE@XZ
_TEXT	SEGMENT
??1?$_Vector_val@UItemListInfoSort@@V?$allocator@UItemListInfoSort@@@std@@@std@@QAE@XZ PROC ; std::_Vector_val<ItemListInfoSort,std::allocator<ItemListInfoSort> >::~_Vector_val<ItemListInfoSort,std::allocator<ItemListInfoSort> >, COMDAT
; _this$ = ecx

; 434  : 		}

  00000	c3		 ret	 0
??1?$_Vector_val@UItemListInfoSort@@V?$allocator@UItemListInfoSort@@@std@@@std@@QAE@XZ ENDP ; std::_Vector_val<ItemListInfoSort,std::allocator<ItemListInfoSort> >::~_Vector_val<ItemListInfoSort,std::allocator<ItemListInfoSort> >
_TEXT	ENDS
PUBLIC	??0?$allocator@UItemListInfoSort@@@std@@QAE@XZ	; std::allocator<ItemListInfoSort>::allocator<ItemListInfoSort>
; Function compile flags: /Ogsp
; File c:\program files (x86)\microsoft visual studio 10.0\vc\include\xmemory
;	COMDAT ??0?$allocator@UItemListInfoSort@@@std@@QAE@XZ
_TEXT	SEGMENT
??0?$allocator@UItemListInfoSort@@@std@@QAE@XZ PROC	; std::allocator<ItemListInfoSort>::allocator<ItemListInfoSort>, COMDAT
; _this$ = ecx

; 161  : 	_ALLOCATOR() _THROW0()

  00000	8b c1		 mov	 eax, ecx

; 162  : 		{	// construct default allocator (do nothing)
; 163  : 		}

  00002	c3		 ret	 0
??0?$allocator@UItemListInfoSort@@@std@@QAE@XZ ENDP	; std::allocator<ItemListInfoSort>::allocator<ItemListInfoSort>
_TEXT	ENDS
PUBLIC	??D?$_Vector_const_iterator@V?$_Vector_val@UItemListInfoSort@@V?$allocator@UItemListInfoSort@@@std@@@std@@@std@@QBEABUItemListInfoSort@@XZ ; std::_Vector_const_iterator<std::_Vector_val<ItemListInfoSort,std::allocator<ItemListInfoSort> > >::operator*
; Function compile flags: /Ogsp
; File c:\program files (x86)\microsoft visual studio 10.0\vc\include\vector
;	COMDAT ??D?$_Vector_const_iterator@V?$_Vector_val@UItemListInfoSort@@V?$allocator@UItemListInfoSort@@@std@@@std@@@std@@QBEABUItemListInfoSort@@XZ
_TEXT	SEGMENT
??D?$_Vector_const_iterator@V?$_Vector_val@UItemListInfoSort@@V?$allocator@UItemListInfoSort@@@std@@@std@@@std@@QBEABUItemListInfoSort@@XZ PROC ; std::_Vector_const_iterator<std::_Vector_val<ItemListInfoSort,std::allocator<ItemListInfoSort> > >::operator*, COMDAT
; _this$ = ecx

; 64   :  #if _ITERATOR_DEBUG_LEVEL == 2
; 65   : 		if (this->_Getcont() == 0
; 66   : 			|| this->_Ptr == 0
; 67   : 			|| this->_Ptr < ((_Myvec *)this->_Getcont())->_Myfirst
; 68   : 			|| ((_Myvec *)this->_Getcont())->_Mylast <= this->_Ptr)
; 69   : 			{	// report error
; 70   : 			_DEBUG_ERROR("vector iterator not dereferencable");
; 71   : 			_SCL_SECURE_OUT_OF_RANGE;
; 72   : 			}
; 73   : 
; 74   :  #elif _ITERATOR_DEBUG_LEVEL == 1
; 75   : 		_SCL_SECURE_VALIDATE(this->_Getcont() != 0);
; 76   : 		_SCL_SECURE_VALIDATE_RANGE(
; 77   : 			this->_Ptr != 0
; 78   : 			&& ((_Myvec *)this->_Getcont())->_Myfirst <= this->_Ptr
; 79   : 			&& this->_Ptr < ((_Myvec *)this->_Getcont())->_Mylast);
; 80   :  #endif /* _ITERATOR_DEBUG_LEVEL */
; 81   : 
; 82   : 		__analysis_assume(this->_Ptr != 0);
; 83   : 
; 84   : 		return (*this->_Ptr);

  00000	8b 01		 mov	 eax, DWORD PTR [ecx]

; 85   : 		}

  00002	c3		 ret	 0
??D?$_Vector_const_iterator@V?$_Vector_val@UItemListInfoSort@@V?$allocator@UItemListInfoSort@@@std@@@std@@@std@@QBEABUItemListInfoSort@@XZ ENDP ; std::_Vector_const_iterator<std::_Vector_val<ItemListInfoSort,std::allocator<ItemListInfoSort> > >::operator*
_TEXT	ENDS
PUBLIC	??E?$_Vector_const_iterator@V?$_Vector_val@UItemListInfoSort@@V?$allocator@UItemListInfoSort@@@std@@@std@@@std@@QAEAAV01@XZ ; std::_Vector_const_iterator<std::_Vector_val<ItemListInfoSort,std::allocator<ItemListInfoSort> > >::operator++
; Function compile flags: /Ogsp
;	COMDAT ??E?$_Vector_const_iterator@V?$_Vector_val@UItemListInfoSort@@V?$allocator@UItemListInfoSort@@@std@@@std@@@std@@QAEAAV01@XZ
_TEXT	SEGMENT
??E?$_Vector_const_iterator@V?$_Vector_val@UItemListInfoSort@@V?$allocator@UItemListInfoSort@@@std@@@std@@@std@@QAEAAV01@XZ PROC ; std::_Vector_const_iterator<std::_Vector_val<ItemListInfoSort,std::allocator<ItemListInfoSort> > >::operator++, COMDAT
; _this$ = ecx

; 93   : 		{	// preincrement

  00000	8b c1		 mov	 eax, ecx

; 94   :  #if _ITERATOR_DEBUG_LEVEL == 2
; 95   : 		if (this->_Getcont() == 0
; 96   : 			|| this->_Ptr == 0
; 97   : 			|| ((_Myvec *)this->_Getcont())->_Mylast <= this->_Ptr)
; 98   : 			{	// report error
; 99   : 			_DEBUG_ERROR("vector iterator not incrementable");
; 100  : 			_SCL_SECURE_OUT_OF_RANGE;
; 101  : 			}
; 102  : 
; 103  :  #elif _ITERATOR_DEBUG_LEVEL == 1
; 104  : 		_SCL_SECURE_VALIDATE(this->_Getcont() != 0);
; 105  : 		_SCL_SECURE_VALIDATE_RANGE(
; 106  : 			this->_Ptr != 0
; 107  : 			&& this->_Ptr < ((_Myvec *)this->_Getcont())->_Mylast);
; 108  :  #endif /* _ITERATOR_DEBUG_LEVEL */
; 109  : 
; 110  : 		++this->_Ptr;

  00002	83 00 14	 add	 DWORD PTR [eax], 20	; 00000014H

; 111  : 		return (*this);
; 112  : 		}

  00005	c3		 ret	 0
??E?$_Vector_const_iterator@V?$_Vector_val@UItemListInfoSort@@V?$allocator@UItemListInfoSort@@@std@@@std@@@std@@QAEAAV01@XZ ENDP ; std::_Vector_const_iterator<std::_Vector_val<ItemListInfoSort,std::allocator<ItemListInfoSort> > >::operator++
_TEXT	ENDS
PUBLIC	??_C@_0BD@OLBABOEK@vector?$DMT?$DO?5too?5long?$AA@ ; `string'
PUBLIC	?_Xlen@?$vector@V?$basic_string@DU?$char_traits@D@std@@V?$allocator@D@2@@std@@V?$allocator@V?$basic_string@DU?$char_traits@D@std@@V?$allocator@D@2@@std@@@2@@std@@IBEXXZ ; std::vector<std::basic_string<char,std::char_traits<char>,std::allocator<char> >,std::allocator<std::basic_string<char,std::char_traits<char>,std::allocator<char> > > >::_Xlen
EXTRN	__imp_?_Xlength_error@std@@YAXPBD@Z:PROC
;	COMDAT ??_C@_0BD@OLBABOEK@vector?$DMT?$DO?5too?5long?$AA@
CONST	SEGMENT
??_C@_0BD@OLBABOEK@vector?$DMT?$DO?5too?5long?$AA@ DB 'vector<T> too long'
	DB	00H						; `string'
; Function compile flags: /Ogsp
CONST	ENDS
;	COMDAT ?_Xlen@?$vector@V?$basic_string@DU?$char_traits@D@std@@V?$allocator@D@2@@std@@V?$allocator@V?$basic_string@DU?$char_traits@D@std@@V?$allocator@D@2@@std@@@2@@std@@IBEXXZ
_TEXT	SEGMENT
?_Xlen@?$vector@V?$basic_string@DU?$char_traits@D@std@@V?$allocator@D@2@@std@@V?$allocator@V?$basic_string@DU?$char_traits@D@std@@V?$allocator@D@2@@std@@@2@@std@@IBEXXZ PROC ; std::vector<std::basic_string<char,std::char_traits<char>,std::allocator<char> >,std::allocator<std::basic_string<char,std::char_traits<char>,std::allocator<char> > > >::_Xlen, COMDAT
; _this$ = ecx

; 1427 : 		_Xlength_error("vector<T> too long");

  00000	68 00 00 00 00	 push	 OFFSET ??_C@_0BD@OLBABOEK@vector?$DMT?$DO?5too?5long?$AA@
  00005	ff 15 00 00 00
	00		 call	 DWORD PTR __imp_?_Xlength_error@std@@YAXPBD@Z
$LN4@Xlen:
$LN3@Xlen:
  0000b	cc		 int	 3
?_Xlen@?$vector@V?$basic_string@DU?$char_traits@D@std@@V?$allocator@D@2@@std@@V?$allocator@V?$basic_string@DU?$char_traits@D@std@@V?$allocator@D@2@@std@@@2@@std@@IBEXXZ ENDP ; std::vector<std::basic_string<char,std::char_traits<char>,std::allocator<char> >,std::allocator<std::basic_string<char,std::char_traits<char>,std::allocator<char> > > >::_Xlen
_TEXT	ENDS
PUBLIC	??0?$allocator@V?$basic_string@DU?$char_traits@D@std@@V?$allocator@D@2@@std@@@std@@QAE@ABV01@@Z ; std::allocator<std::basic_string<char,std::char_traits<char>,std::allocator<char> > >::allocator<std::basic_string<char,std::char_traits<char>,std::allocator<char> > >
; Function compile flags: /Ogsp
; File c:\program files (x86)\microsoft visual studio 10.0\vc\include\xmemory
;	COMDAT ??0?$allocator@V?$basic_string@DU?$char_traits@D@std@@V?$allocator@D@2@@std@@@std@@QAE@ABV01@@Z
_TEXT	SEGMENT
___formal$ = 8						; size = 4
??0?$allocator@V?$basic_string@DU?$char_traits@D@std@@V?$allocator@D@2@@std@@@std@@QAE@ABV01@@Z PROC ; std::allocator<std::basic_string<char,std::char_traits<char>,std::allocator<char> > >::allocator<std::basic_string<char,std::char_traits<char>,std::allocator<char> > >, COMDAT
; _this$ = ecx

; 165  : 	_ALLOCATOR(const _ALLOCATOR<_Ty>&) _THROW0()

  00000	8b c1		 mov	 eax, ecx

; 166  : 		{	// construct by copying (do nothing)
; 167  : 		}

  00002	c2 04 00	 ret	 4
??0?$allocator@V?$basic_string@DU?$char_traits@D@std@@V?$allocator@D@2@@std@@@std@@QAE@ABV01@@Z ENDP ; std::allocator<std::basic_string<char,std::char_traits<char>,std::allocator<char> > >::allocator<std::basic_string<char,std::char_traits<char>,std::allocator<char> > >
_TEXT	ENDS
PUBLIC	?capacity@?$vector@UItemListInfoSort@@V?$allocator@UItemListInfoSort@@@std@@@std@@QBEIXZ ; std::vector<ItemListInfoSort,std::allocator<ItemListInfoSort> >::capacity
; Function compile flags: /Ogsp
; File c:\program files (x86)\microsoft visual studio 10.0\vc\include\vector
;	COMDAT ?capacity@?$vector@UItemListInfoSort@@V?$allocator@UItemListInfoSort@@@std@@@std@@QBEIXZ
_TEXT	SEGMENT
?capacity@?$vector@UItemListInfoSort@@V?$allocator@UItemListInfoSort@@@std@@@std@@QBEIXZ PROC ; std::vector<ItemListInfoSort,std::allocator<ItemListInfoSort> >::capacity, COMDAT
; _this$ = ecx

; 777  : 		return (this->_Myend - this->_Myfirst);

  00000	8b 41 08	 mov	 eax, DWORD PTR [ecx+8]
  00003	2b 01		 sub	 eax, DWORD PTR [ecx]
  00005	6a 14		 push	 20			; 00000014H
  00007	99		 cdq
  00008	59		 pop	 ecx
  00009	f7 f9		 idiv	 ecx

; 778  : 		}

  0000b	c3		 ret	 0
?capacity@?$vector@UItemListInfoSort@@V?$allocator@UItemListInfoSort@@@std@@@std@@QBEIXZ ENDP ; std::vector<ItemListInfoSort,std::allocator<ItemListInfoSort> >::capacity
_TEXT	ENDS
PUBLIC	?_Xlen@?$vector@UItemListInfoSort@@V?$allocator@UItemListInfoSort@@@std@@@std@@IBEXXZ ; std::vector<ItemListInfoSort,std::allocator<ItemListInfoSort> >::_Xlen
; Function compile flags: /Ogsp
;	COMDAT ?_Xlen@?$vector@UItemListInfoSort@@V?$allocator@UItemListInfoSort@@@std@@@std@@IBEXXZ
_TEXT	SEGMENT
?_Xlen@?$vector@UItemListInfoSort@@V?$allocator@UItemListInfoSort@@@std@@@std@@IBEXXZ PROC ; std::vector<ItemListInfoSort,std::allocator<ItemListInfoSort> >::_Xlen, COMDAT
; _this$ = ecx

; 1427 : 		_Xlength_error("vector<T> too long");

  00000	68 00 00 00 00	 push	 OFFSET ??_C@_0BD@OLBABOEK@vector?$DMT?$DO?5too?5long?$AA@
  00005	ff 15 00 00 00
	00		 call	 DWORD PTR __imp_?_Xlength_error@std@@YAXPBD@Z
$LN4@Xlen@2:
$LN3@Xlen@2:
  0000b	cc		 int	 3
?_Xlen@?$vector@UItemListInfoSort@@V?$allocator@UItemListInfoSort@@@std@@@std@@IBEXXZ ENDP ; std::vector<ItemListInfoSort,std::allocator<ItemListInfoSort> >::_Xlen
_TEXT	ENDS
PUBLIC	??0?$allocator@UItemListInfoSort@@@std@@QAE@ABV01@@Z ; std::allocator<ItemListInfoSort>::allocator<ItemListInfoSort>
; Function compile flags: /Ogsp
; File c:\program files (x86)\microsoft visual studio 10.0\vc\include\xmemory
;	COMDAT ??0?$allocator@UItemListInfoSort@@@std@@QAE@ABV01@@Z
_TEXT	SEGMENT
___formal$ = 8						; size = 4
??0?$allocator@UItemListInfoSort@@@std@@QAE@ABV01@@Z PROC ; std::allocator<ItemListInfoSort>::allocator<ItemListInfoSort>, COMDAT
; _this$ = ecx

; 165  : 	_ALLOCATOR(const _ALLOCATOR<_Ty>&) _THROW0()

  00000	8b c1		 mov	 eax, ecx

; 166  : 		{	// construct by copying (do nothing)
; 167  : 		}

  00002	c2 04 00	 ret	 4
??0?$allocator@UItemListInfoSort@@@std@@QAE@ABV01@@Z ENDP ; std::allocator<ItemListInfoSort>::allocator<ItemListInfoSort>
_TEXT	ENDS
PUBLIC	?deallocate@?$allocator@UItemListInfoSort@@@std@@QAEXPAUItemListInfoSort@@I@Z ; std::allocator<ItemListInfoSort>::deallocate
; Function compile flags: /Ogsp
;	COMDAT ?deallocate@?$allocator@UItemListInfoSort@@@std@@QAEXPAUItemListInfoSort@@I@Z
_TEXT	SEGMENT
__Ptr$ = 8						; size = 4
___formal$ = 12						; size = 4
?deallocate@?$allocator@UItemListInfoSort@@@std@@QAEXPAUItemListInfoSort@@I@Z PROC ; std::allocator<ItemListInfoSort>::deallocate, COMDAT
; _this$ = ecx

; 181  : 		{	// deallocate object at _Ptr, ignore size

  00000	55		 push	 ebp
  00001	8b ec		 mov	 ebp, esp

; 182  : 		::operator delete(_Ptr);

  00003	ff 75 08	 push	 DWORD PTR __Ptr$[ebp]
  00006	e8 00 00 00 00	 call	 ??3@YAXPAX@Z		; operator delete
  0000b	59		 pop	 ecx

; 183  : 		}

  0000c	5d		 pop	 ebp
  0000d	c2 08 00	 ret	 8
?deallocate@?$allocator@UItemListInfoSort@@@std@@QAEXPAUItemListInfoSort@@I@Z ENDP ; std::allocator<ItemListInfoSort>::deallocate
_TEXT	ENDS
PUBLIC	?_Compat@?$_Vector_const_iterator@V?$_Vector_val@UItemListInfoSort@@V?$allocator@UItemListInfoSort@@@std@@@std@@@std@@QBEXABV12@@Z ; std::_Vector_const_iterator<std::_Vector_val<ItemListInfoSort,std::allocator<ItemListInfoSort> > >::_Compat
; Function compile flags: /Ogsp
; File c:\program files (x86)\microsoft visual studio 10.0\vc\include\vector
;	COMDAT ?_Compat@?$_Vector_const_iterator@V?$_Vector_val@UItemListInfoSort@@V?$allocator@UItemListInfoSort@@@std@@@std@@@std@@QBEXABV12@@Z
_TEXT	SEGMENT
___formal$ = 8						; size = 4
?_Compat@?$_Vector_const_iterator@V?$_Vector_val@UItemListInfoSort@@V?$allocator@UItemListInfoSort@@@std@@@std@@@std@@QBEXABV12@@Z PROC ; std::_Vector_const_iterator<std::_Vector_val<ItemListInfoSort,std::allocator<ItemListInfoSort> > >::_Compat, COMDAT
; _this$ = ecx

; 253  : 		}

  00000	c2 04 00	 ret	 4
?_Compat@?$_Vector_const_iterator@V?$_Vector_val@UItemListInfoSort@@V?$allocator@UItemListInfoSort@@@std@@@std@@@std@@QBEXABV12@@Z ENDP ; std::_Vector_const_iterator<std::_Vector_val<ItemListInfoSort,std::allocator<ItemListInfoSort> > >::_Compat
_TEXT	ENDS
PUBLIC	?max_size@?$allocator@V?$basic_string@DU?$char_traits@D@std@@V?$allocator@D@2@@std@@@std@@QBEIXZ ; std::allocator<std::basic_string<char,std::char_traits<char>,std::allocator<char> > >::max_size
; Function compile flags: /Ogsp
; File c:\program files (x86)\microsoft visual studio 10.0\vc\include\xmemory
;	COMDAT ?max_size@?$allocator@V?$basic_string@DU?$char_traits@D@std@@V?$allocator@D@2@@std@@@std@@QBEIXZ
_TEXT	SEGMENT
?max_size@?$allocator@V?$basic_string@DU?$char_traits@D@std@@V?$allocator@D@2@@std@@@std@@QBEIXZ PROC ; std::allocator<std::basic_string<char,std::char_traits<char>,std::allocator<char> > >::max_size, COMDAT
; _this$ = ecx

; 218  : 		_SIZT _Count = (_SIZT)(-1) / sizeof (_Ty);
; 219  : 		return (0 < _Count ? _Count : 1);

  00000	b8 49 92 24 09	 mov	 eax, 153391689		; 09249249H

; 220  : 		}

  00005	c3		 ret	 0
?max_size@?$allocator@V?$basic_string@DU?$char_traits@D@std@@V?$allocator@D@2@@std@@@std@@QBEIXZ ENDP ; std::allocator<std::basic_string<char,std::char_traits<char>,std::allocator<char> > >::max_size
_TEXT	ENDS
PUBLIC	?max_size@?$allocator@UItemListInfoSort@@@std@@QBEIXZ ; std::allocator<ItemListInfoSort>::max_size
; Function compile flags: /Ogsp
;	COMDAT ?max_size@?$allocator@UItemListInfoSort@@@std@@QBEIXZ
_TEXT	SEGMENT
?max_size@?$allocator@UItemListInfoSort@@@std@@QBEIXZ PROC ; std::allocator<ItemListInfoSort>::max_size, COMDAT
; _this$ = ecx

; 218  : 		_SIZT _Count = (_SIZT)(-1) / sizeof (_Ty);
; 219  : 		return (0 < _Count ? _Count : 1);

  00000	b8 cc cc cc 0c	 mov	 eax, 214748364		; 0cccccccH

; 220  : 		}

  00005	c3		 ret	 0
?max_size@?$allocator@UItemListInfoSort@@@std@@QBEIXZ ENDP ; std::allocator<ItemListInfoSort>::max_size
_TEXT	ENDS
PUBLIC	?_Compat@?$_Vector_const_iterator@V?$_Vector_val@V?$basic_string@DU?$char_traits@D@std@@V?$allocator@D@2@@std@@V?$allocator@V?$basic_string@DU?$char_traits@D@std@@V?$allocator@D@2@@std@@@2@@std@@@std@@QBEXABV12@@Z ; std::_Vector_const_iterator<std::_Vector_val<std::basic_string<char,std::char_traits<char>,std::allocator<char> >,std::allocator<std::basic_string<char,std::char_traits<char>,std::allocator<char> > > > >::_Compat
; Function compile flags: /Ogsp
; File c:\program files (x86)\microsoft visual studio 10.0\vc\include\vector
;	COMDAT ?_Compat@?$_Vector_const_iterator@V?$_Vector_val@V?$basic_string@DU?$char_traits@D@std@@V?$allocator@D@2@@std@@V?$allocator@V?$basic_string@DU?$char_traits@D@std@@V?$allocator@D@2@@std@@@2@@std@@@std@@QBEXABV12@@Z
_TEXT	SEGMENT
___formal$ = 8						; size = 4
?_Compat@?$_Vector_const_iterator@V?$_Vector_val@V?$basic_string@DU?$char_traits@D@std@@V?$allocator@D@2@@std@@V?$allocator@V?$basic_string@DU?$char_traits@D@std@@V?$allocator@D@2@@std@@@2@@std@@@std@@QBEXABV12@@Z PROC ; std::_Vector_const_iterator<std::_Vector_val<std::basic_string<char,std::char_traits<char>,std::allocator<char> >,std::allocator<std::basic_string<char,std::char_traits<char>,std::allocator<char> > > > >::_Compat, COMDAT
; _this$ = ecx

; 253  : 		}

  00000	c2 04 00	 ret	 4
?_Compat@?$_Vector_const_iterator@V?$_Vector_val@V?$basic_string@DU?$char_traits@D@std@@V?$allocator@D@2@@std@@V?$allocator@V?$basic_string@DU?$char_traits@D@std@@V?$allocator@D@2@@std@@@2@@std@@@std@@QBEXABV12@@Z ENDP ; std::_Vector_const_iterator<std::_Vector_val<std::basic_string<char,std::char_traits<char>,std::allocator<char> >,std::allocator<std::basic_string<char,std::char_traits<char>,std::allocator<char> > > > >::_Compat
_TEXT	ENDS
PUBLIC	??$addressof@$$CBUItemListInfoSort@@@std@@YAPBUItemListInfoSort@@ABU1@@Z ; std::addressof<ItemListInfoSort const >
; Function compile flags: /Ogsp
; File c:\program files (x86)\microsoft visual studio 10.0\vc\include\xmemory
;	COMDAT ??$addressof@$$CBUItemListInfoSort@@@std@@YAPBUItemListInfoSort@@ABU1@@Z
_TEXT	SEGMENT
__Val$ = 8						; size = 4
??$addressof@$$CBUItemListInfoSort@@@std@@YAPBUItemListInfoSort@@ABU1@@Z PROC ; std::addressof<ItemListInfoSort const >, COMDAT

; 110  : 	{	// return address of _Val

  00000	55		 push	 ebp
  00001	8b ec		 mov	 ebp, esp

; 111  : 	return ((_Ty *) &(char&)_Val);

  00003	8b 45 08	 mov	 eax, DWORD PTR __Val$[ebp]

; 112  : 	}

  00006	5d		 pop	 ebp
  00007	c3		 ret	 0
??$addressof@$$CBUItemListInfoSort@@@std@@YAPBUItemListInfoSort@@ABU1@@Z ENDP ; std::addressof<ItemListInfoSort const >
_TEXT	ENDS
PUBLIC	__TI2?AVbad_alloc@std@@
PUBLIC	??$_Allocate@V?$basic_string@DU?$char_traits@D@std@@V?$allocator@D@2@@std@@@std@@YAPAV?$basic_string@DU?$char_traits@D@std@@V?$allocator@D@2@@0@IPAV10@@Z ; std::_Allocate<std::basic_string<char,std::char_traits<char>,std::allocator<char> > >
PUBLIC	__CTA2?AVbad_alloc@std@@
PUBLIC	__CT??_R0?AVbad_alloc@std@@@8??0bad_alloc@std@@QAE@ABV01@@Z12
PUBLIC	??0bad_alloc@std@@QAE@ABV01@@Z			; std::bad_alloc::bad_alloc
PUBLIC	__CT??_R0?AVexception@std@@@8??0exception@std@@QAE@ABV01@@Z12
EXTRN	??2@YAPAXI@Z:PROC				; operator new
EXTRN	__CxxThrowException@8:PROC
EXTRN	??0exception@std@@QAE@ABV01@@Z:PROC		; std::exception::exception
;	COMDAT __CT??_R0?AVexception@std@@@8??0exception@std@@QAE@ABV01@@Z12
; File c:\program files (x86)\microsoft visual studio 10.0\vc\include\exception
xdata$x	SEGMENT
__CT??_R0?AVexception@std@@@8??0exception@std@@QAE@ABV01@@Z12 DD 00H
	DD	FLAT:??_R0?AVexception@std@@@8
	DD	00H
	DD	0ffffffffH
	ORG $+4
	DD	0cH
	DD	FLAT:??0exception@std@@QAE@ABV01@@Z
xdata$x	ENDS
;	COMDAT __CT??_R0?AVbad_alloc@std@@@8??0bad_alloc@std@@QAE@ABV01@@Z12
xdata$x	SEGMENT
__CT??_R0?AVbad_alloc@std@@@8??0bad_alloc@std@@QAE@ABV01@@Z12 DD 00H
	DD	FLAT:??_R0?AVbad_alloc@std@@@8
	DD	00H
	DD	0ffffffffH
	ORG $+4
	DD	0cH
	DD	FLAT:??0bad_alloc@std@@QAE@ABV01@@Z
xdata$x	ENDS
;	COMDAT __CTA2?AVbad_alloc@std@@
xdata$x	SEGMENT
__CTA2?AVbad_alloc@std@@ DD 02H
	DD	FLAT:__CT??_R0?AVbad_alloc@std@@@8??0bad_alloc@std@@QAE@ABV01@@Z12
	DD	FLAT:__CT??_R0?AVexception@std@@@8??0exception@std@@QAE@ABV01@@Z12
xdata$x	ENDS
;	COMDAT __TI2?AVbad_alloc@std@@
xdata$x	SEGMENT
__TI2?AVbad_alloc@std@@ DD 00H
	DD	FLAT:??1bad_alloc@std@@UAE@XZ
	DD	00H
	DD	FLAT:__CTA2?AVbad_alloc@std@@
; Function compile flags: /Ogsp
; File c:\program files (x86)\microsoft visual studio 10.0\vc\include\xmemory
xdata$x	ENDS
;	COMDAT ??$_Allocate@V?$basic_string@DU?$char_traits@D@std@@V?$allocator@D@2@@std@@@std@@YAPAV?$basic_string@DU?$char_traits@D@std@@V?$allocator@D@2@@0@IPAV10@@Z
_TEXT	SEGMENT
$T508289 = -12						; size = 12
$T508294 = 8						; size = 4
__Count$ = 8						; size = 4
___formal$ = 12						; size = 4
??$_Allocate@V?$basic_string@DU?$char_traits@D@std@@V?$allocator@D@2@@std@@@std@@YAPAV?$basic_string@DU?$char_traits@D@std@@V?$allocator@D@2@@0@IPAV10@@Z PROC ; std::_Allocate<std::basic_string<char,std::char_traits<char>,std::allocator<char> > >, COMDAT

; 30   : 	{	// allocate storage for _Count elements of type _Ty

  00000	55		 push	 ebp
  00001	8b ec		 mov	 ebp, esp

; 31   : 	void *_Ptr = 0;
; 32   : 
; 33   : 	if (_Count <= 0)

  00003	8b 4d 08	 mov	 ecx, DWORD PTR __Count$[ebp]
  00006	83 ec 0c	 sub	 esp, 12			; 0000000cH
  00009	33 c0		 xor	 eax, eax
  0000b	85 c9		 test	 ecx, ecx

; 34   : 		_Count = 0;
; 35   : 	else if (((_SIZT)(-1) / sizeof (_Ty) < _Count)

  0000d	74 3c		 je	 SHORT $LN5@Allocate

; 36   : 		|| (_Ptr = ::operator new(_Count * sizeof (_Ty))) == 0)

  0000f	81 f9 49 92 24
	09		 cmp	 ecx, 153391689		; 09249249H
  00015	77 0e		 ja	 SHORT $LN1@Allocate
  00017	6b c9 1c	 imul	 ecx, 28			; 0000001cH
  0001a	51		 push	 ecx
  0001b	e8 00 00 00 00	 call	 ??2@YAPAXI@Z		; operator new
  00020	59		 pop	 ecx
  00021	85 c0		 test	 eax, eax

; 38   : 
; 39   : 	return ((_Ty _FARQ *)_Ptr);

  00023	75 26		 jne	 SHORT $LN5@Allocate
$LN1@Allocate:

; 37   : 		_THROW_NCEE(bad_alloc, 0);

  00025	83 65 08 00	 and	 DWORD PTR $T508294[ebp], 0
  00029	8d 45 08	 lea	 eax, DWORD PTR $T508294[ebp]
  0002c	50		 push	 eax
  0002d	8d 4d f4	 lea	 ecx, DWORD PTR $T508289[ebp]
  00030	ff 15 00 00 00
	00		 call	 DWORD PTR __imp_??0exception@std@@QAE@ABQBD@Z
  00036	68 00 00 00 00	 push	 OFFSET __TI2?AVbad_alloc@std@@
  0003b	8d 45 f4	 lea	 eax, DWORD PTR $T508289[ebp]
  0003e	50		 push	 eax
  0003f	c7 45 f4 00 00
	00 00		 mov	 DWORD PTR $T508289[ebp], OFFSET ??_7bad_alloc@std@@6B@
  00046	e8 00 00 00 00	 call	 __CxxThrowException@8
$LN10@Allocate:
$LN5@Allocate:

; 40   : 	}

  0004b	c9		 leave
  0004c	c3		 ret	 0
$LN9@Allocate:
??$_Allocate@V?$basic_string@DU?$char_traits@D@std@@V?$allocator@D@2@@std@@@std@@YAPAV?$basic_string@DU?$char_traits@D@std@@V?$allocator@D@2@@0@IPAV10@@Z ENDP ; std::_Allocate<std::basic_string<char,std::char_traits<char>,std::allocator<char> > >
_TEXT	ENDS
PUBLIC	??$_Allocate@UItemListInfoSort@@@std@@YAPAUItemListInfoSort@@IPAU1@@Z ; std::_Allocate<ItemListInfoSort>
; Function compile flags: /Ogsp
;	COMDAT ??$_Allocate@UItemListInfoSort@@@std@@YAPAUItemListInfoSort@@IPAU1@@Z
_TEXT	SEGMENT
$T508299 = -12						; size = 12
$T508303 = 8						; size = 4
__Count$ = 8						; size = 4
___formal$ = 12						; size = 4
??$_Allocate@UItemListInfoSort@@@std@@YAPAUItemListInfoSort@@IPAU1@@Z PROC ; std::_Allocate<ItemListInfoSort>, COMDAT

; 30   : 	{	// allocate storage for _Count elements of type _Ty

  00000	55		 push	 ebp
  00001	8b ec		 mov	 ebp, esp

; 31   : 	void *_Ptr = 0;
; 32   : 
; 33   : 	if (_Count <= 0)

  00003	8b 4d 08	 mov	 ecx, DWORD PTR __Count$[ebp]
  00006	83 ec 0c	 sub	 esp, 12			; 0000000cH
  00009	33 c0		 xor	 eax, eax
  0000b	85 c9		 test	 ecx, ecx

; 34   : 		_Count = 0;
; 35   : 	else if (((_SIZT)(-1) / sizeof (_Ty) < _Count)

  0000d	74 3c		 je	 SHORT $LN5@Allocate@2

; 36   : 		|| (_Ptr = ::operator new(_Count * sizeof (_Ty))) == 0)

  0000f	81 f9 cc cc cc
	0c		 cmp	 ecx, 214748364		; 0cccccccH
  00015	77 0e		 ja	 SHORT $LN1@Allocate@2
  00017	6b c9 14	 imul	 ecx, 20			; 00000014H
  0001a	51		 push	 ecx
  0001b	e8 00 00 00 00	 call	 ??2@YAPAXI@Z		; operator new
  00020	59		 pop	 ecx
  00021	85 c0		 test	 eax, eax

; 38   : 
; 39   : 	return ((_Ty _FARQ *)_Ptr);

  00023	75 26		 jne	 SHORT $LN5@Allocate@2
$LN1@Allocate@2:

; 37   : 		_THROW_NCEE(bad_alloc, 0);

  00025	83 65 08 00	 and	 DWORD PTR $T508303[ebp], 0
  00029	8d 45 08	 lea	 eax, DWORD PTR $T508303[ebp]
  0002c	50		 push	 eax
  0002d	8d 4d f4	 lea	 ecx, DWORD PTR $T508299[ebp]
  00030	ff 15 00 00 00
	00		 call	 DWORD PTR __imp_??0exception@std@@QAE@ABQBD@Z
  00036	68 00 00 00 00	 push	 OFFSET __TI2?AVbad_alloc@std@@
  0003b	8d 45 f4	 lea	 eax, DWORD PTR $T508299[ebp]
  0003e	50		 push	 eax
  0003f	c7 45 f4 00 00
	00 00		 mov	 DWORD PTR $T508299[ebp], OFFSET ??_7bad_alloc@std@@6B@
  00046	e8 00 00 00 00	 call	 __CxxThrowException@8
$LN10@Allocate@2:
$LN5@Allocate@2:

; 40   : 	}

  0004b	c9		 leave
  0004c	c3		 ret	 0
$LN9@Allocate@2:
??$_Allocate@UItemListInfoSort@@@std@@YAPAUItemListInfoSort@@IPAU1@@Z ENDP ; std::_Allocate<ItemListInfoSort>
_TEXT	ENDS
PUBLIC	??G?$_Vector_const_iterator@V?$_Vector_val@UItemListInfoSort@@V?$allocator@UItemListInfoSort@@@std@@@std@@@std@@QBEHABV01@@Z ; std::_Vector_const_iterator<std::_Vector_val<ItemListInfoSort,std::allocator<ItemListInfoSort> > >::operator-
; Function compile flags: /Ogsp
; File c:\program files (x86)\microsoft visual studio 10.0\vc\include\vector
;	COMDAT ??G?$_Vector_const_iterator@V?$_Vector_val@UItemListInfoSort@@V?$allocator@UItemListInfoSort@@@std@@@std@@@std@@QBEHABV01@@Z
_TEXT	SEGMENT
__Right$ = 8						; size = 4
??G?$_Vector_const_iterator@V?$_Vector_val@UItemListInfoSort@@V?$allocator@UItemListInfoSort@@@std@@@std@@@std@@QBEHABV01@@Z PROC ; std::_Vector_const_iterator<std::_Vector_val<ItemListInfoSort,std::allocator<ItemListInfoSort> > >::operator-, COMDAT
; _this$ = ecx

; 190  : 		{	// return difference of iterators

  00000	55		 push	 ebp
  00001	8b ec		 mov	 ebp, esp

; 191  : 		_Compat(_Right);
; 192  : 		return (this->_Ptr - _Right._Ptr);

  00003	8b 01		 mov	 eax, DWORD PTR [ecx]
  00005	8b 4d 08	 mov	 ecx, DWORD PTR __Right$[ebp]
  00008	2b 01		 sub	 eax, DWORD PTR [ecx]
  0000a	6a 14		 push	 20			; 00000014H
  0000c	99		 cdq
  0000d	59		 pop	 ecx
  0000e	f7 f9		 idiv	 ecx

; 193  : 		}

  00010	5d		 pop	 ebp
  00011	c2 04 00	 ret	 4
??G?$_Vector_const_iterator@V?$_Vector_val@UItemListInfoSort@@V?$allocator@UItemListInfoSort@@@std@@@std@@@std@@QBEHABV01@@Z ENDP ; std::_Vector_const_iterator<std::_Vector_val<ItemListInfoSort,std::allocator<ItemListInfoSort> > >::operator-
_TEXT	ENDS
PUBLIC	??$forward@AAUItemListInfoSort@@@std@@YAAAUItemListInfoSort@@AAU1@@Z ; std::forward<ItemListInfoSort &>
; Function compile flags: /Ogsp
; File c:\program files (x86)\microsoft visual studio 10.0\vc\include\utility
;	COMDAT ??$forward@AAUItemListInfoSort@@@std@@YAAAUItemListInfoSort@@AAU1@@Z
_TEXT	SEGMENT
__Arg$ = 8						; size = 4
??$forward@AAUItemListInfoSort@@@std@@YAAAUItemListInfoSort@@AAU1@@Z PROC ; std::forward<ItemListInfoSort &>, COMDAT

; 78   : 	{	// forward _Arg, given explicitly specified type parameter

  00000	55		 push	 ebp
  00001	8b ec		 mov	 ebp, esp

; 79   : 	return ((_Ty&&)_Arg);

  00003	8b 45 08	 mov	 eax, DWORD PTR __Arg$[ebp]

; 80   : 	}

  00006	5d		 pop	 ebp
  00007	c3		 ret	 0
??$forward@AAUItemListInfoSort@@@std@@YAAAUItemListInfoSort@@AAU1@@Z ENDP ; std::forward<ItemListInfoSort &>
_TEXT	ENDS
PUBLIC	??$construct@AAUItemListInfoSort@@@?$allocator@UItemListInfoSort@@@std@@QAEXPAUItemListInfoSort@@AAU2@@Z ; std::allocator<ItemListInfoSort>::construct<ItemListInfoSort &>
; Function compile flags: /Ogsp
; File c:\program files (x86)\microsoft visual studio 10.0\vc\include\xmemory
;	COMDAT ??$construct@AAUItemListInfoSort@@@?$allocator@UItemListInfoSort@@@std@@QAEXPAUItemListInfoSort@@AAU2@@Z
_TEXT	SEGMENT
__Ptr$ = 8						; size = 4
__Val$ = 12						; size = 4
??$construct@AAUItemListInfoSort@@@?$allocator@UItemListInfoSort@@@std@@QAEXPAUItemListInfoSort@@AAU2@@Z PROC ; std::allocator<ItemListInfoSort>::construct<ItemListInfoSort &>, COMDAT
; _this$ = ecx

; 206  : 		void construct(pointer _Ptr, _Other&& _Val)

  00000	55		 push	 ebp
  00001	8b ec		 mov	 ebp, esp
  00003	57		 push	 edi

; 207  : 		{	// construct object at _Ptr with value _Val
; 208  : 		::new ((void _FARQ *)_Ptr) _Ty(_STD forward<_Other>(_Val));

  00004	8b 7d 08	 mov	 edi, DWORD PTR __Ptr$[ebp]
  00007	85 ff		 test	 edi, edi
  00009	74 0a		 je	 SHORT $LN3@construct
  0000b	56		 push	 esi
  0000c	8b 75 0c	 mov	 esi, DWORD PTR __Val$[ebp]
  0000f	6a 05		 push	 5
  00011	59		 pop	 ecx
  00012	f3 a5		 rep movsd
  00014	5e		 pop	 esi
$LN3@construct:
  00015	5f		 pop	 edi

; 209  : 		}

  00016	5d		 pop	 ebp
  00017	c2 08 00	 ret	 8
??$construct@AAUItemListInfoSort@@@?$allocator@UItemListInfoSort@@@std@@QAEXPAUItemListInfoSort@@AAU2@@Z ENDP ; std::allocator<ItemListInfoSort>::construct<ItemListInfoSort &>
_TEXT	ENDS
PUBLIC	??$forward@ABUItemListInfoSort@@@std@@YAABUItemListInfoSort@@ABU1@@Z ; std::forward<ItemListInfoSort const &>
; Function compile flags: /Ogsp
; File c:\program files (x86)\microsoft visual studio 10.0\vc\include\utility
;	COMDAT ??$forward@ABUItemListInfoSort@@@std@@YAABUItemListInfoSort@@ABU1@@Z
_TEXT	SEGMENT
__Arg$ = 8						; size = 4
??$forward@ABUItemListInfoSort@@@std@@YAABUItemListInfoSort@@ABU1@@Z PROC ; std::forward<ItemListInfoSort const &>, COMDAT

; 78   : 	{	// forward _Arg, given explicitly specified type parameter

  00000	55		 push	 ebp
  00001	8b ec		 mov	 ebp, esp

; 79   : 	return ((_Ty&&)_Arg);

  00003	8b 45 08	 mov	 eax, DWORD PTR __Arg$[ebp]

; 80   : 	}

  00006	5d		 pop	 ebp
  00007	c3		 ret	 0
??$forward@ABUItemListInfoSort@@@std@@YAABUItemListInfoSort@@ABU1@@Z ENDP ; std::forward<ItemListInfoSort const &>
_TEXT	ENDS
PUBLIC	??$_Ptr_cat@UItemListInfoSort@@U1@@std@@YA?AU_Nonscalar_ptr_iterator_tag@0@PAUItemListInfoSort@@0@Z ; std::_Ptr_cat<ItemListInfoSort,ItemListInfoSort>
; Function compile flags: /Ogsp
; File c:\program files (x86)\microsoft visual studio 10.0\vc\include\xutility
;	COMDAT ??$_Ptr_cat@UItemListInfoSort@@U1@@std@@YA?AU_Nonscalar_ptr_iterator_tag@0@PAUItemListInfoSort@@0@Z
_TEXT	SEGMENT
__Cat$ = -1						; size = 1
___formal$ = 8						; size = 4
___formal$ = 12						; size = 4
??$_Ptr_cat@UItemListInfoSort@@U1@@std@@YA?AU_Nonscalar_ptr_iterator_tag@0@PAUItemListInfoSort@@0@Z PROC ; std::_Ptr_cat<ItemListInfoSort,ItemListInfoSort>, COMDAT

; 516  : 	{	// return pointer category from pointers

  00000	55		 push	 ebp
  00001	8b ec		 mov	 ebp, esp
  00003	51		 push	 ecx

; 517  : 	typename _Ptr_cat_helper<_Elem1, _Elem2>::_Type _Cat;
; 518  : 	return (_Cat);

  00004	8a 45 ff	 mov	 al, BYTE PTR __Cat$[ebp]

; 519  : 	}

  00007	c9		 leave
  00008	c3		 ret	 0
??$_Ptr_cat@UItemListInfoSort@@U1@@std@@YA?AU_Nonscalar_ptr_iterator_tag@0@PAUItemListInfoSort@@0@Z ENDP ; std::_Ptr_cat<ItemListInfoSort,ItemListInfoSort>
_TEXT	ENDS
PUBLIC	??$_Construct@UItemListInfoSort@@ABU1@@std@@YAXPAUItemListInfoSort@@ABU1@@Z ; std::_Construct<ItemListInfoSort,ItemListInfoSort const &>
; Function compile flags: /Ogsp
; File c:\program files (x86)\microsoft visual studio 10.0\vc\include\xmemory
;	COMDAT ??$_Construct@UItemListInfoSort@@ABU1@@std@@YAXPAUItemListInfoSort@@ABU1@@Z
_TEXT	SEGMENT
__Ptr$ = 8						; size = 4
__Val$ = 12						; size = 4
??$_Construct@UItemListInfoSort@@ABU1@@std@@YAXPAUItemListInfoSort@@ABU1@@Z PROC ; std::_Construct<ItemListInfoSort,ItemListInfoSort const &>, COMDAT

; 46   : 	{	// construct object at _Ptr with value _Val

  00000	55		 push	 ebp
  00001	8b ec		 mov	 ebp, esp
  00003	57		 push	 edi

; 47   : 	void _FARQ *_Vptr = _Ptr;
; 48   : 	::new (_Vptr) _Ty1(_STD forward<_Ty2>(_Val));

  00004	8b 7d 08	 mov	 edi, DWORD PTR __Ptr$[ebp]
  00007	85 ff		 test	 edi, edi
  00009	74 0a		 je	 SHORT $LN3@Construct
  0000b	56		 push	 esi
  0000c	8b 75 0c	 mov	 esi, DWORD PTR __Val$[ebp]
  0000f	6a 05		 push	 5
  00011	59		 pop	 ecx
  00012	f3 a5		 rep movsd
  00014	5e		 pop	 esi
$LN3@Construct:
  00015	5f		 pop	 edi

; 49   : 	}

  00016	5d		 pop	 ebp
  00017	c3		 ret	 0
??$_Construct@UItemListInfoSort@@ABU1@@std@@YAXPAUItemListInfoSort@@ABU1@@Z ENDP ; std::_Construct<ItemListInfoSort,ItemListInfoSort const &>
_TEXT	ENDS
PUBLIC	?_Unchecked@?$_Vector_iterator@V?$_Vector_val@UItemListInfoSort@@V?$allocator@UItemListInfoSort@@@std@@@std@@@std@@QBEPAUItemListInfoSort@@XZ ; std::_Vector_iterator<std::_Vector_val<ItemListInfoSort,std::allocator<ItemListInfoSort> > >::_Unchecked
; Function compile flags: /Ogsp
; File c:\program files (x86)\microsoft visual studio 10.0\vc\include\vector
;	COMDAT ?_Unchecked@?$_Vector_iterator@V?$_Vector_val@UItemListInfoSort@@V?$allocator@UItemListInfoSort@@@std@@@std@@@std@@QBEPAUItemListInfoSort@@XZ
_TEXT	SEGMENT
?_Unchecked@?$_Vector_iterator@V?$_Vector_val@UItemListInfoSort@@V?$allocator@UItemListInfoSort@@@std@@@std@@@std@@QBEPAUItemListInfoSort@@XZ PROC ; std::_Vector_iterator<std::_Vector_val<ItemListInfoSort,std::allocator<ItemListInfoSort> > >::_Unchecked, COMDAT
; _this$ = ecx

; 317  : 		return (_Unchecked_type(this->_Ptr));

  00000	8b 01		 mov	 eax, DWORD PTR [ecx]

; 318  : 		}

  00002	c3		 ret	 0
?_Unchecked@?$_Vector_iterator@V?$_Vector_val@UItemListInfoSort@@V?$allocator@UItemListInfoSort@@@std@@@std@@@std@@QBEPAUItemListInfoSort@@XZ ENDP ; std::_Vector_iterator<std::_Vector_val<ItemListInfoSort,std::allocator<ItemListInfoSort> > >::_Unchecked
_TEXT	ENDS
PUBLIC	?_Adopt@_Iterator_base0@std@@QAEXPBX@Z		; std::_Iterator_base0::_Adopt
; Function compile flags: /Ogsp
; File c:\program files (x86)\microsoft visual studio 10.0\vc\include\xutility
;	COMDAT ?_Adopt@_Iterator_base0@std@@QAEXPBX@Z
_TEXT	SEGMENT
___formal$ = 8						; size = 4
?_Adopt@_Iterator_base0@std@@QAEXPBX@Z PROC		; std::_Iterator_base0::_Adopt, COMDAT
; _this$ = ecx

; 49   : 		}

  00000	c2 04 00	 ret	 4
?_Adopt@_Iterator_base0@std@@QAEXPBX@Z ENDP		; std::_Iterator_base0::_Adopt
_TEXT	ENDS
PUBLIC	??$move@AAUItemListInfoSort@@@std@@YA$$QAUItemListInfoSort@@AAU1@@Z ; std::move<ItemListInfoSort &>
; Function compile flags: /Ogsp
; File c:\program files (x86)\microsoft visual studio 10.0\vc\include\utility
;	COMDAT ??$move@AAUItemListInfoSort@@@std@@YA$$QAUItemListInfoSort@@AAU1@@Z
_TEXT	SEGMENT
__Arg$ = 8						; size = 4
??$move@AAUItemListInfoSort@@@std@@YA$$QAUItemListInfoSort@@AAU1@@Z PROC ; std::move<ItemListInfoSort &>, COMDAT

; 86   : 	{	// forward _Arg as movable

  00000	55		 push	 ebp
  00001	8b ec		 mov	 ebp, esp

; 87   : 	return ((typename tr1::_Remove_reference<_Ty>::_Type&&)_Arg);

  00003	8b 45 08	 mov	 eax, DWORD PTR __Arg$[ebp]

; 88   : 	}

  00006	5d		 pop	 ebp
  00007	c3		 ret	 0
??$move@AAUItemListInfoSort@@@std@@YA$$QAUItemListInfoSort@@AAU1@@Z ENDP ; std::move<ItemListInfoSort &>
_TEXT	ENDS
PUBLIC	??$_Val_type@PAUItemListInfoSort@@@std@@YAPAUItemListInfoSort@@PAU1@@Z ; std::_Val_type<ItemListInfoSort *>
; Function compile flags: /Ogsp
; File c:\program files (x86)\microsoft visual studio 10.0\vc\include\xutility
;	COMDAT ??$_Val_type@PAUItemListInfoSort@@@std@@YAPAUItemListInfoSort@@PAU1@@Z
_TEXT	SEGMENT
___formal$ = 8						; size = 4
??$_Val_type@PAUItemListInfoSort@@@std@@YAPAUItemListInfoSort@@PAU1@@Z PROC ; std::_Val_type<ItemListInfoSort *>, COMDAT

; 790  : 	return (0);

  00000	33 c0		 xor	 eax, eax

; 791  : 	}

  00002	c3		 ret	 0
??$_Val_type@PAUItemListInfoSort@@@std@@YAPAUItemListInfoSort@@PAU1@@Z ENDP ; std::_Val_type<ItemListInfoSort *>
_TEXT	ENDS
PUBLIC	??$_Unchecked@PAUItemListInfoSort@@@std@@YAPAUItemListInfoSort@@PAU1@@Z ; std::_Unchecked<ItemListInfoSort *>
; Function compile flags: /Ogsp
;	COMDAT ??$_Unchecked@PAUItemListInfoSort@@@std@@YAPAUItemListInfoSort@@PAU1@@Z
_TEXT	SEGMENT
__Src$ = 8						; size = 4
??$_Unchecked@PAUItemListInfoSort@@@std@@YAPAUItemListInfoSort@@PAU1@@Z PROC ; std::_Unchecked<ItemListInfoSort *>, COMDAT

; 266  : 	{	// construct unchecked from checked, generic

  00000	55		 push	 ebp
  00001	8b ec		 mov	 ebp, esp

; 267  : 	return (_Src);

  00003	8b 45 08	 mov	 eax, DWORD PTR __Src$[ebp]

; 268  : 	}

  00006	5d		 pop	 ebp
  00007	c3		 ret	 0
??$_Unchecked@PAUItemListInfoSort@@@std@@YAPAUItemListInfoSort@@PAU1@@Z ENDP ; std::_Unchecked<ItemListInfoSort *>
_TEXT	ENDS
PUBLIC	??$_Dist_type@PAUItemListInfoSort@@@std@@YAPAHPAUItemListInfoSort@@@Z ; std::_Dist_type<ItemListInfoSort *>
; Function compile flags: /Ogsp
;	COMDAT ??$_Dist_type@PAUItemListInfoSort@@@std@@YAPAHPAUItemListInfoSort@@@Z
_TEXT	SEGMENT
___formal$ = 8						; size = 4
??$_Dist_type@PAUItemListInfoSort@@@std@@YAPAHPAUItemListInfoSort@@@Z PROC ; std::_Dist_type<ItemListInfoSort *>, COMDAT

; 850  : 	return (0);

  00000	33 c0		 xor	 eax, eax

; 851  : 	}

  00002	c3		 ret	 0
??$_Dist_type@PAUItemListInfoSort@@@std@@YAPAHPAUItemListInfoSort@@@Z ENDP ; std::_Dist_type<ItemListInfoSort *>
_TEXT	ENDS
PUBLIC	??$_Destroy@UItemListInfoSort@@@std@@YAXPAUItemListInfoSort@@@Z ; std::_Destroy<ItemListInfoSort>
; Function compile flags: /Ogsp
; File c:\program files (x86)\microsoft visual studio 10.0\vc\include\xmemory
;	COMDAT ??$_Destroy@UItemListInfoSort@@@std@@YAXPAUItemListInfoSort@@@Z
_TEXT	SEGMENT
__Ptr$ = 8						; size = 4
??$_Destroy@UItemListInfoSort@@@std@@YAXPAUItemListInfoSort@@@Z PROC ; std::_Destroy<ItemListInfoSort>, COMDAT

; 63   : 	_Ptr->~_Ty();
; 64   : 	}

  00000	c3		 ret	 0
??$_Destroy@UItemListInfoSort@@@std@@YAXPAUItemListInfoSort@@@Z ENDP ; std::_Destroy<ItemListInfoSort>
_TEXT	ENDS
PUBLIC	??$forward@AAPAUItemListInfoSort@@@std@@YAAAPAUItemListInfoSort@@AAPAU1@@Z ; std::forward<ItemListInfoSort * &>
; Function compile flags: /Ogsp
; File c:\program files (x86)\microsoft visual studio 10.0\vc\include\utility
;	COMDAT ??$forward@AAPAUItemListInfoSort@@@std@@YAAAPAUItemListInfoSort@@AAPAU1@@Z
_TEXT	SEGMENT
__Arg$ = 8						; size = 4
??$forward@AAPAUItemListInfoSort@@@std@@YAAAPAUItemListInfoSort@@AAPAU1@@Z PROC ; std::forward<ItemListInfoSort * &>, COMDAT

; 78   : 	{	// forward _Arg, given explicitly specified type parameter

  00000	55		 push	 ebp
  00001	8b ec		 mov	 ebp, esp

; 79   : 	return ((_Ty&&)_Arg);

  00003	8b 45 08	 mov	 eax, DWORD PTR __Arg$[ebp]

; 80   : 	}

  00006	5d		 pop	 ebp
  00007	c3		 ret	 0
??$forward@AAPAUItemListInfoSort@@@std@@YAAAPAUItemListInfoSort@@AAPAU1@@Z ENDP ; std::forward<ItemListInfoSort * &>
_TEXT	ENDS
PUBLIC	??$?0AAPAUItemListInfoSort@@AAPAU0@@?$_Pair_base@PAUItemListInfoSort@@PAU1@@std@@QAE@AAPAUItemListInfoSort@@0@Z ; std::_Pair_base<ItemListInfoSort *,ItemListInfoSort *>::_Pair_base<ItemListInfoSort *,ItemListInfoSort *><ItemListInfoSort * &,ItemListInfoSort * &>
; Function compile flags: /Ogsp
;	COMDAT ??$?0AAPAUItemListInfoSort@@AAPAU0@@?$_Pair_base@PAUItemListInfoSort@@PAU1@@std@@QAE@AAPAUItemListInfoSort@@0@Z
_TEXT	SEGMENT
__Val1$ = 8						; size = 4
__Val2$ = 12						; size = 4
??$?0AAPAUItemListInfoSort@@AAPAU0@@?$_Pair_base@PAUItemListInfoSort@@PAU1@@std@@QAE@AAPAUItemListInfoSort@@0@Z PROC ; std::_Pair_base<ItemListInfoSort *,ItemListInfoSort *>::_Pair_base<ItemListInfoSort *,ItemListInfoSort *><ItemListInfoSort * &,ItemListInfoSort * &>, COMDAT
; _this$ = ecx

; 163  : 		{	// construct from moved values

  00000	55		 push	 ebp
  00001	8b ec		 mov	 ebp, esp
  00003	8b c1		 mov	 eax, ecx
  00005	8b 4d 08	 mov	 ecx, DWORD PTR __Val1$[ebp]
  00008	8b 09		 mov	 ecx, DWORD PTR [ecx]
  0000a	89 08		 mov	 DWORD PTR [eax], ecx
  0000c	8b 4d 0c	 mov	 ecx, DWORD PTR __Val2$[ebp]
  0000f	8b 09		 mov	 ecx, DWORD PTR [ecx]
  00011	89 48 04	 mov	 DWORD PTR [eax+4], ecx

; 164  : 		}

  00014	5d		 pop	 ebp
  00015	c2 08 00	 ret	 8
??$?0AAPAUItemListInfoSort@@AAPAU0@@?$_Pair_base@PAUItemListInfoSort@@PAU1@@std@@QAE@AAPAUItemListInfoSort@@0@Z ENDP ; std::_Pair_base<ItemListInfoSort *,ItemListInfoSort *>::_Pair_base<ItemListInfoSort *,ItemListInfoSort *><ItemListInfoSort * &,ItemListInfoSort * &>
_TEXT	ENDS
PUBLIC	??$_Move@AAUItemListInfoSort@@@std@@YA$$QAUItemListInfoSort@@AAU1@@Z ; std::_Move<ItemListInfoSort &>
; Function compile flags: /Ogsp
;	COMDAT ??$_Move@AAUItemListInfoSort@@@std@@YA$$QAUItemListInfoSort@@AAU1@@Z
_TEXT	SEGMENT
__Arg$ = 8						; size = 4
??$_Move@AAUItemListInfoSort@@@std@@YA$$QAUItemListInfoSort@@AAU1@@Z PROC ; std::_Move<ItemListInfoSort &>, COMDAT

; 94   : 	{	// forward _Arg as movable

  00000	55		 push	 ebp
  00001	8b ec		 mov	 ebp, esp

; 95   : 	return ((typename tr1::_Remove_reference<_Ty>::_Type&&)_Arg);

  00003	8b 45 08	 mov	 eax, DWORD PTR __Arg$[ebp]

; 96   : 	}

  00006	5d		 pop	 ebp
  00007	c3		 ret	 0
??$_Move@AAUItemListInfoSort@@@std@@YA$$QAUItemListInfoSort@@AAU1@@Z ENDP ; std::_Move<ItemListInfoSort &>
_TEXT	ENDS
PUBLIC	??$forward@AAV?$basic_string@DU?$char_traits@D@std@@V?$allocator@D@2@@std@@@std@@YAAAV?$basic_string@DU?$char_traits@D@std@@V?$allocator@D@2@@0@AAV10@@Z ; std::forward<std::basic_string<char,std::char_traits<char>,std::allocator<char> > &>
; Function compile flags: /Ogsp
;	COMDAT ??$forward@AAV?$basic_string@DU?$char_traits@D@std@@V?$allocator@D@2@@std@@@std@@YAAAV?$basic_string@DU?$char_traits@D@std@@V?$allocator@D@2@@0@AAV10@@Z
_TEXT	SEGMENT
__Arg$ = 8						; size = 4
??$forward@AAV?$basic_string@DU?$char_traits@D@std@@V?$allocator@D@2@@std@@@std@@YAAAV?$basic_string@DU?$char_traits@D@std@@V?$allocator@D@2@@0@AAV10@@Z PROC ; std::forward<std::basic_string<char,std::char_traits<char>,std::allocator<char> > &>, COMDAT

; 78   : 	{	// forward _Arg, given explicitly specified type parameter

  00000	55		 push	 ebp
  00001	8b ec		 mov	 ebp, esp

; 79   : 	return ((_Ty&&)_Arg);

  00003	8b 45 08	 mov	 eax, DWORD PTR __Arg$[ebp]

; 80   : 	}

  00006	5d		 pop	 ebp
  00007	c3		 ret	 0
??$forward@AAV?$basic_string@DU?$char_traits@D@std@@V?$allocator@D@2@@std@@@std@@YAAAV?$basic_string@DU?$char_traits@D@std@@V?$allocator@D@2@@0@AAV10@@Z ENDP ; std::forward<std::basic_string<char,std::char_traits<char>,std::allocator<char> > &>
_TEXT	ENDS
PUBLIC	??$forward@UItemListInfoSort@@@std@@YA$$QAUItemListInfoSort@@AAU1@@Z ; std::forward<ItemListInfoSort>
; Function compile flags: /Ogsp
;	COMDAT ??$forward@UItemListInfoSort@@@std@@YA$$QAUItemListInfoSort@@AAU1@@Z
_TEXT	SEGMENT
__Arg$ = 8						; size = 4
??$forward@UItemListInfoSort@@@std@@YA$$QAUItemListInfoSort@@AAU1@@Z PROC ; std::forward<ItemListInfoSort>, COMDAT

; 78   : 	{	// forward _Arg, given explicitly specified type parameter

  00000	55		 push	 ebp
  00001	8b ec		 mov	 ebp, esp

; 79   : 	return ((_Ty&&)_Arg);

  00003	8b 45 08	 mov	 eax, DWORD PTR __Arg$[ebp]

; 80   : 	}

  00006	5d		 pop	 ebp
  00007	c3		 ret	 0
??$forward@UItemListInfoSort@@@std@@YA$$QAUItemListInfoSort@@AAU1@@Z ENDP ; std::forward<ItemListInfoSort>
_TEXT	ENDS
PUBLIC	??$_Push_heap@PAUItemListInfoSort@@HU1@VShopExtraItemSort@@@std@@YAXPAUItemListInfoSort@@HH$$QAU1@VShopExtraItemSort@@@Z ; std::_Push_heap<ItemListInfoSort *,int,ItemListInfoSort,ShopExtraItemSort>
; Function compile flags: /Ogsp
; File c:\program files (x86)\microsoft visual studio 10.0\vc\include\algorithm
;	COMDAT ??$_Push_heap@PAUItemListInfoSort@@HU1@VShopExtraItemSort@@@std@@YAXPAUItemListInfoSort@@HH$$QAU1@VShopExtraItemSort@@@Z
_TEXT	SEGMENT
__First$ = 8						; size = 4
__Hole$ = 12						; size = 4
__Top$ = 16						; size = 4
__Val$ = 20						; size = 4
__Pred$ = 24						; size = 1
??$_Push_heap@PAUItemListInfoSort@@HU1@VShopExtraItemSort@@@std@@YAXPAUItemListInfoSort@@HH$$QAU1@VShopExtraItemSort@@@Z PROC ; std::_Push_heap<ItemListInfoSort *,int,ItemListInfoSort,ShopExtraItemSort>, COMDAT

; 2455 : 	{	// percolate _Hole to _Top or where _Val belongs, using operator<

  00000	55		 push	 ebp
  00001	8b ec		 mov	 ebp, esp
  00003	53		 push	 ebx

; 2456 : 	for (_Diff _Idx = (_Hole - 1) / 2;
; 2457 : 		_Top < _Hole && _DEBUG_LT_PRED(_Pred, *(_First + _Idx), _Val);
; 2458 : 		_Idx = (_Hole - 1) / 2)

  00004	8b 5d 08	 mov	 ebx, DWORD PTR __First$[ebp]
  00007	56		 push	 esi
  00008	57		 push	 edi
  00009	8b 7d 0c	 mov	 edi, DWORD PTR __Hole$[ebp]
  0000c	8d 47 ff	 lea	 eax, DWORD PTR [edi-1]
  0000f	eb 2c		 jmp	 SHORT $LN20@Push_heap
$LL3@Push_heap:
  00011	8b 55 14	 mov	 edx, DWORD PTR __Val$[ebp]
  00014	8b 52 08	 mov	 edx, DWORD PTR [edx+8]
  00017	8b f0		 mov	 esi, eax
  00019	6b f6 14	 imul	 esi, 20			; 00000014H
  0001c	03 f3		 add	 esi, ebx
  0001e	8b 4e 08	 mov	 ecx, DWORD PTR [esi+8]
  00021	3b ca		 cmp	 ecx, edx
  00023	7f 0b		 jg	 SHORT $LN17@Push_heap
  00025	75 20		 jne	 SHORT $LN18@Push_heap
  00027	8b 0e		 mov	 ecx, DWORD PTR [esi]
  00029	8b 55 14	 mov	 edx, DWORD PTR __Val$[ebp]
  0002c	3b 0a		 cmp	 ecx, DWORD PTR [edx]
  0002e	7e 17		 jle	 SHORT $LN18@Push_heap
$LN17@Push_heap:

; 2459 : 		{	// move _Hole up to parent
; 2460 : 		*(_First + _Hole) = _Move(*(_First + _Idx));

  00030	6b ff 14	 imul	 edi, 20			; 00000014H
  00033	03 fb		 add	 edi, ebx
  00035	6a 05		 push	 5
  00037	59		 pop	 ecx
  00038	f3 a5		 rep movsd

; 2461 : 		_Hole = _Idx;

  0003a	8b f8		 mov	 edi, eax
  0003c	48		 dec	 eax
$LN20@Push_heap:

; 2456 : 	for (_Diff _Idx = (_Hole - 1) / 2;
; 2457 : 		_Top < _Hole && _DEBUG_LT_PRED(_Pred, *(_First + _Idx), _Val);
; 2458 : 		_Idx = (_Hole - 1) / 2)

  0003d	99		 cdq
  0003e	2b c2		 sub	 eax, edx
  00040	d1 f8		 sar	 eax, 1
  00042	39 7d 10	 cmp	 DWORD PTR __Top$[ebp], edi
  00045	7c ca		 jl	 SHORT $LL3@Push_heap
$LN18@Push_heap:

; 2462 : 		}
; 2463 : 
; 2464 : 	*(_First + _Hole) = _Move(_Val);	// drop _Val into final hole

  00047	8b 75 14	 mov	 esi, DWORD PTR __Val$[ebp]
  0004a	6b ff 14	 imul	 edi, 20			; 00000014H
  0004d	6a 05		 push	 5
  0004f	59		 pop	 ecx
  00050	03 fb		 add	 edi, ebx
  00052	f3 a5		 rep movsd
  00054	5f		 pop	 edi
  00055	5e		 pop	 esi
  00056	5b		 pop	 ebx

; 2465 : 	}

  00057	5d		 pop	 ebp
  00058	c3		 ret	 0
??$_Push_heap@PAUItemListInfoSort@@HU1@VShopExtraItemSort@@@std@@YAXPAUItemListInfoSort@@HH$$QAU1@VShopExtraItemSort@@@Z ENDP ; std::_Push_heap<ItemListInfoSort *,int,ItemListInfoSort,ShopExtraItemSort>
_TEXT	ENDS
PUBLIC	??$_Move_backward@PAUItemListInfoSort@@PAU1@@std@@YAPAUItemListInfoSort@@PAU1@00U_Nonscalar_ptr_iterator_tag@0@@Z ; std::_Move_backward<ItemListInfoSort *,ItemListInfoSort *>
; Function compile flags: /Ogsp
; File c:\program files (x86)\microsoft visual studio 10.0\vc\include\xutility
;	COMDAT ??$_Move_backward@PAUItemListInfoSort@@PAU1@@std@@YAPAUItemListInfoSort@@PAU1@00U_Nonscalar_ptr_iterator_tag@0@@Z
_TEXT	SEGMENT
__First$ = 8						; size = 4
__Last$ = 12						; size = 4
__Dest$ = 16						; size = 4
___formal$ = 20						; size = 1
??$_Move_backward@PAUItemListInfoSort@@PAU1@@std@@YAPAUItemListInfoSort@@PAU1@00U_Nonscalar_ptr_iterator_tag@0@@Z PROC ; std::_Move_backward<ItemListInfoSort *,ItemListInfoSort *>, COMDAT

; 2617 : 	{	// move [_First, _Last) backwards to [..., _Dest), arbitrary iterators

  00000	55		 push	 ebp
  00001	8b ec		 mov	 ebp, esp

; 2618 : 	while (_First != _Last)

  00003	8b 45 0c	 mov	 eax, DWORD PTR __Last$[ebp]
  00006	39 45 08	 cmp	 DWORD PTR __First$[ebp], eax
  00009	74 1a		 je	 SHORT $LN9@Move_backw
  0000b	56		 push	 esi
  0000c	57		 push	 edi
$LL2@Move_backw:

; 2619 : 		*--_Dest = _STD move(*--_Last);

  0000d	83 6d 10 14	 sub	 DWORD PTR __Dest$[ebp], 20 ; 00000014H
  00011	8b 7d 10	 mov	 edi, DWORD PTR __Dest$[ebp]
  00014	83 e8 14	 sub	 eax, 20			; 00000014H
  00017	6a 05		 push	 5
  00019	59		 pop	 ecx
  0001a	8b f0		 mov	 esi, eax
  0001c	f3 a5		 rep movsd
  0001e	3b 45 08	 cmp	 eax, DWORD PTR __First$[ebp]
  00021	75 ea		 jne	 SHORT $LL2@Move_backw
  00023	5f		 pop	 edi
  00024	5e		 pop	 esi
$LN9@Move_backw:

; 2620 : 	return (_Dest);

  00025	8b 45 10	 mov	 eax, DWORD PTR __Dest$[ebp]

; 2621 : 	}

  00028	5d		 pop	 ebp
  00029	c3		 ret	 0
??$_Move_backward@PAUItemListInfoSort@@PAU1@@std@@YAPAUItemListInfoSort@@PAU1@00U_Nonscalar_ptr_iterator_tag@0@@Z ENDP ; std::_Move_backward<ItemListInfoSort *,ItemListInfoSort *>
_TEXT	ENDS
PUBLIC	??0CTimeSpan@ATL@@QAE@_J@Z			; ATL::CTimeSpan::CTimeSpan
; Function compile flags: /Ogsp
; File c:\program files (x86)\microsoft visual studio 10.0\vc\atlmfc\include\atltime.inl
;	COMDAT ??0CTimeSpan@ATL@@QAE@_J@Z
_TEXT	SEGMENT
_time$ = 8						; size = 8
??0CTimeSpan@ATL@@QAE@_J@Z PROC				; ATL::CTimeSpan::CTimeSpan, COMDAT
; _this$ = ecx

; 33   : {

  00000	55		 push	 ebp
  00001	8b ec		 mov	 ebp, esp
  00003	8b c1		 mov	 eax, ecx
  00005	8b 4d 08	 mov	 ecx, DWORD PTR _time$[ebp]
  00008	89 08		 mov	 DWORD PTR [eax], ecx
  0000a	8b 4d 0c	 mov	 ecx, DWORD PTR _time$[ebp+4]
  0000d	89 48 04	 mov	 DWORD PTR [eax+4], ecx

; 34   : }

  00010	5d		 pop	 ebp
  00011	c2 08 00	 ret	 8
??0CTimeSpan@ATL@@QAE@_J@Z ENDP				; ATL::CTimeSpan::CTimeSpan
_TEXT	ENDS
PUBLIC	?GetDays@CTimeSpan@ATL@@QBE_JXZ			; ATL::CTimeSpan::GetDays
EXTRN	__alldiv:PROC
; Function compile flags: /Ogsp
;	COMDAT ?GetDays@CTimeSpan@ATL@@QBE_JXZ
_TEXT	SEGMENT
?GetDays@CTimeSpan@ATL@@QBE_JXZ PROC			; ATL::CTimeSpan::GetDays, COMDAT
; _this$ = ecx

; 47   : 	return( m_timeSpan/(24*3600) );

  00000	6a 00		 push	 0
  00002	68 80 51 01 00	 push	 86400			; 00015180H
  00007	ff 71 04	 push	 DWORD PTR [ecx+4]
  0000a	ff 31		 push	 DWORD PTR [ecx]
  0000c	e8 00 00 00 00	 call	 __alldiv

; 48   : }

  00011	c3		 ret	 0
?GetDays@CTimeSpan@ATL@@QBE_JXZ ENDP			; ATL::CTimeSpan::GetDays
_TEXT	ENDS
PUBLIC	??0CTime@ATL@@QAE@XZ				; ATL::CTime::CTime
; Function compile flags: /Ogsp
;	COMDAT ??0CTime@ATL@@QAE@XZ
_TEXT	SEGMENT
??0CTime@ATL@@QAE@XZ PROC				; ATL::CTime::CTime, COMDAT
; _this$ = ecx

; 166  : {

  00000	8b c1		 mov	 eax, ecx
  00002	83 20 00	 and	 DWORD PTR [eax], 0
  00005	83 60 04 00	 and	 DWORD PTR [eax+4], 0

; 167  : }

  00009	c3		 ret	 0
??0CTime@ATL@@QAE@XZ ENDP				; ATL::CTime::CTime
_TEXT	ENDS
PUBLIC	??GCTime@ATL@@QBE?AVCTimeSpan@1@V01@@Z		; ATL::CTime::operator-
; Function compile flags: /Ogsp
;	COMDAT ??GCTime@ATL@@QBE?AVCTimeSpan@1@V01@@Z
_TEXT	SEGMENT
___$ReturnUdt$ = 8					; size = 4
_time$ = 12						; size = 8
??GCTime@ATL@@QBE?AVCTimeSpan@1@V01@@Z PROC		; ATL::CTime::operator-, COMDAT
; _this$ = ecx

; 304  : {

  00000	55		 push	 ebp
  00001	8b ec		 mov	 ebp, esp

; 305  : 	return( CTimeSpan( m_time-time.m_time ) );

  00003	8b 11		 mov	 edx, DWORD PTR [ecx]
  00005	2b 55 0c	 sub	 edx, DWORD PTR _time$[ebp]
  00008	8b 49 04	 mov	 ecx, DWORD PTR [ecx+4]
  0000b	1b 4d 10	 sbb	 ecx, DWORD PTR _time$[ebp+4]
  0000e	8b 45 08	 mov	 eax, DWORD PTR ___$ReturnUdt$[ebp]
  00011	89 10		 mov	 DWORD PTR [eax], edx
  00013	89 48 04	 mov	 DWORD PTR [eax+4], ecx

; 306  : }

  00016	5d		 pop	 ebp
  00017	c2 0c 00	 ret	 12			; 0000000cH
??GCTime@ATL@@QBE?AVCTimeSpan@1@V01@@Z ENDP		; ATL::CTime::operator-
_TEXT	ENDS
PUBLIC	?_DECSTR@@YAXPADH@Z				; _DECSTR
; Function compile flags: /Ogsp
; File d:\lost saga for developer\youtube\tutorial\source\src\lsclient\stringprotect.h
;	COMDAT ?_DECSTR@@YAXPADH@Z
_TEXT	SEGMENT
_s$ = 8							; size = 4
_l$ = 12						; size = 4
?_DECSTR@@YAXPADH@Z PROC				; _DECSTR, COMDAT

; 40   : __forceinline void _DECSTR(char* s, int l){int i=0,l4=(l-1)/4,*p=(int*)s;s[l-1]=0;for(;i<l4;++i)*(p++)^=0xEAEBECED;for(i=l4*4;i<l-1;++i)s[i]^=0xED-i%4;}

  00000	55		 push	 ebp
  00001	8b ec		 mov	 ebp, esp
  00003	8b 4d 0c	 mov	 ecx, DWORD PTR _l$[ebp]
  00006	56		 push	 esi
  00007	8b 75 08	 mov	 esi, DWORD PTR _s$[ebp]
  0000a	57		 push	 edi
  0000b	8d 79 ff	 lea	 edi, DWORD PTR [ecx-1]
  0000e	8b c7		 mov	 eax, edi
  00010	99		 cdq
  00011	83 e2 03	 and	 edx, 3
  00014	03 c2		 add	 eax, edx
  00016	c1 f8 02	 sar	 eax, 2
  00019	8b d6		 mov	 edx, esi
  0001b	c6 44 0e ff 00	 mov	 BYTE PTR [esi+ecx-1], 0
  00020	85 c0		 test	 eax, eax
  00022	7e 0e		 jle	 SHORT $LN4@DECSTR
  00024	8b c8		 mov	 ecx, eax
$LL6@DECSTR:
  00026	81 32 ed ec eb
	ea		 xor	 DWORD PTR [edx], -353637139 ; eaebecedH
  0002c	83 c2 04	 add	 edx, 4
  0002f	49		 dec	 ecx
  00030	75 f4		 jne	 SHORT $LL6@DECSTR
$LN4@DECSTR:
  00032	c1 e0 02	 shl	 eax, 2
  00035	eb 17		 jmp	 SHORT $LN14@DECSTR
$LL3@DECSTR:
  00037	8b c8		 mov	 ecx, eax
  00039	81 e1 03 00 00
	80		 and	 ecx, -2147483645	; 80000003H
  0003f	79 05		 jns	 SHORT $LN13@DECSTR
  00041	49		 dec	 ecx
  00042	83 c9 fc	 or	 ecx, -4			; fffffffcH
  00045	41		 inc	 ecx
$LN13@DECSTR:
  00046	b2 ed		 mov	 dl, -19			; ffffffedH
  00048	2a d1		 sub	 dl, cl
  0004a	30 14 30	 xor	 BYTE PTR [eax+esi], dl
  0004d	40		 inc	 eax
$LN14@DECSTR:
  0004e	3b c7		 cmp	 eax, edi
  00050	7c e5		 jl	 SHORT $LL3@DECSTR
  00052	5f		 pop	 edi
  00053	5e		 pop	 esi
  00054	5d		 pop	 ebp
  00055	c3		 ret	 0
?_DECSTR@@YAXPADH@Z ENDP				; _DECSTR
_TEXT	ENDS
PUBLIC	?GetName@ioItem@@QBEABVioHashString@@XZ		; ioItem::GetName
; Function compile flags: /Ogsp
; File d:\lost saga for developer\youtube\tutorial\source\src\lsclient\ioitem.h
;	COMDAT ?GetName@ioItem@@QBEABVioHashString@@XZ
_TEXT	SEGMENT
?GetName@ioItem@@QBEABVioHashString@@XZ PROC		; ioItem::GetName, COMDAT
; _this$ = ecx

; 269  : 	inline const ioHashString& GetName() const { return m_Name; }

  00000	8d 81 34 01 00
	00		 lea	 eax, DWORD PTR [ecx+308]
  00006	c3		 ret	 0
?GetName@ioItem@@QBEABVioHashString@@XZ ENDP		; ioItem::GetName
_TEXT	ENDS
PUBLIC	?GetItemLargeIconName@ioItem@@QBEABVioHashString@@XZ ; ioItem::GetItemLargeIconName
; Function compile flags: /Ogsp
;	COMDAT ?GetItemLargeIconName@ioItem@@QBEABVioHashString@@XZ
_TEXT	SEGMENT
?GetItemLargeIconName@ioItem@@QBEABVioHashString@@XZ PROC ; ioItem::GetItemLargeIconName, COMDAT
; _this$ = ecx

; 288  : 	inline const ioHashString& GetItemLargeIconName() const { return m_ItemLargeIconFile; }

  00000	8d 81 14 02 00
	00		 lea	 eax, DWORD PTR [ecx+532]
  00006	c3		 ret	 0
?GetItemLargeIconName@ioItem@@QBEABVioHashString@@XZ ENDP ; ioItem::GetItemLargeIconName
_TEXT	ENDS
PUBLIC	?GetGradeType@ioItem@@QBEHXZ			; ioItem::GetGradeType
; Function compile flags: /Ogsp
;	COMDAT ?GetGradeType@ioItem@@QBEHXZ
_TEXT	SEGMENT
?GetGradeType@ioItem@@QBEHXZ PROC			; ioItem::GetGradeType, COMDAT
; _this$ = ecx

; 445  : 	inline int GetGradeType() const { return m_nGradeType; }

  00000	8b 81 20 06 00
	00		 mov	 eax, DWORD PTR [ecx+1568]
  00006	c3		 ret	 0
?GetGradeType@ioItem@@QBEHXZ ENDP			; ioItem::GetGradeType
_TEXT	ENDS
PUBLIC	??0ItemListInfoSort@@QAE@XZ			; ItemListInfoSort::ItemListInfoSort
; Function compile flags: /Ogsp
; File d:\lost saga for developer\youtube\tutorial\source\src\lsclient\ioextraiteminfomanager.h
;	COMDAT ??0ItemListInfoSort@@QAE@XZ
_TEXT	SEGMENT
??0ItemListInfoSort@@QAE@XZ PROC			; ItemListInfoSort::ItemListInfoSort, COMDAT
; _this$ = ecx

; 29   : 	ItemListInfoSort()

  00000	8b c1		 mov	 eax, ecx

; 30   : 	{
; 31   : 		m_iItemCode     = 0;

  00002	33 c9		 xor	 ecx, ecx
  00004	89 08		 mov	 DWORD PTR [eax], ecx

; 32   : 		m_iShopMarkType = 0;

  00006	89 48 04	 mov	 DWORD PTR [eax+4], ecx

; 33   : 		m_iOrder		= 0;

  00009	89 48 08	 mov	 DWORD PTR [eax+8], ecx

; 34   : 		m_iLimitDate	= 0;

  0000c	89 48 0c	 mov	 DWORD PTR [eax+12], ecx

; 35   : 		m_iGradeType	= 0;

  0000f	89 48 10	 mov	 DWORD PTR [eax+16], ecx

; 36   : 	}

  00012	c3		 ret	 0
??0ItemListInfoSort@@QAE@XZ ENDP			; ItemListInfoSort::ItemListInfoSort
_TEXT	ENDS
PUBLIC	?size@?$basic_string@DU?$char_traits@D@std@@V?$allocator@D@2@@std@@QBEIXZ ; std::basic_string<char,std::char_traits<char>,std::allocator<char> >::size
; Function compile flags: /Ogsp
; File c:\program files (x86)\microsoft visual studio 10.0\vc\include\xstring
;	COMDAT ?size@?$basic_string@DU?$char_traits@D@std@@V?$allocator@D@2@@std@@QBEIXZ
_TEXT	SEGMENT
?size@?$basic_string@DU?$char_traits@D@std@@V?$allocator@D@2@@std@@QBEIXZ PROC ; std::basic_string<char,std::char_traits<char>,std::allocator<char> >::size, COMDAT
; _this$ = ecx

; 1512 : 		return (this->_Mysize);

  00000	8b 41 10	 mov	 eax, DWORD PTR [ecx+16]

; 1513 : 		}

  00003	c3		 ret	 0
?size@?$basic_string@DU?$char_traits@D@std@@V?$allocator@D@2@@std@@QBEIXZ ENDP ; std::basic_string<char,std::char_traits<char>,std::allocator<char> >::size
_TEXT	ENDS
PUBLIC	?_Myptr@?$basic_string@DU?$char_traits@D@std@@V?$allocator@D@2@@std@@QBEPBDXZ ; std::basic_string<char,std::char_traits<char>,std::allocator<char> >::_Myptr
; Function compile flags: /Ogsp
;	COMDAT ?_Myptr@?$basic_string@DU?$char_traits@D@std@@V?$allocator@D@2@@std@@QBEPBDXZ
_TEXT	SEGMENT
?_Myptr@?$basic_string@DU?$char_traits@D@std@@V?$allocator@D@2@@std@@QBEPBDXZ PROC ; std::basic_string<char,std::char_traits<char>,std::allocator<char> >::_Myptr, COMDAT
; _this$ = ecx

; 2010 : 		return (this->_BUF_SIZE <= this->_Myres ? this->_Bx._Ptr
; 2011 : 			: this->_Bx._Buf);

  00000	83 79 14 10	 cmp	 DWORD PTR [ecx+20], 16	; 00000010H
  00004	72 03		 jb	 SHORT $LN3@Myptr
  00006	8b 01		 mov	 eax, DWORD PTR [ecx]

; 2012 : 		}

  00008	c3		 ret	 0
$LN3@Myptr:

; 2010 : 		return (this->_BUF_SIZE <= this->_Myres ? this->_Bx._Ptr
; 2011 : 			: this->_Bx._Buf);

  00009	8b c1		 mov	 eax, ecx

; 2012 : 		}

  0000b	c3		 ret	 0
?_Myptr@?$basic_string@DU?$char_traits@D@std@@V?$allocator@D@2@@std@@QBEPBDXZ ENDP ; std::basic_string<char,std::char_traits<char>,std::allocator<char> >::_Myptr
_TEXT	ENDS
PUBLIC	??1?$_String_val@DV?$allocator@D@std@@@std@@QAE@XZ ; std::_String_val<char,std::allocator<char> >::~_String_val<char,std::allocator<char> >
; Function compile flags: /Ogsp
;	COMDAT ??1?$_String_val@DV?$allocator@D@std@@@std@@QAE@XZ
_TEXT	SEGMENT
??1?$_String_val@DV?$allocator@D@std@@@std@@QAE@XZ PROC	; std::_String_val<char,std::allocator<char> >::~_String_val<char,std::allocator<char> >, COMDAT
; _this$ = ecx

; 459  : 		}

  00000	c3		 ret	 0
??1?$_String_val@DV?$allocator@D@std@@@std@@QAE@XZ ENDP	; std::_String_val<char,std::allocator<char> >::~_String_val<char,std::allocator<char> >
_TEXT	ENDS
PUBLIC	??0?$allocator@D@std@@QAE@XZ			; std::allocator<char>::allocator<char>
; Function compile flags: /Ogsp
; File c:\program files (x86)\microsoft visual studio 10.0\vc\include\xmemory
;	COMDAT ??0?$allocator@D@std@@QAE@XZ
_TEXT	SEGMENT
??0?$allocator@D@std@@QAE@XZ PROC			; std::allocator<char>::allocator<char>, COMDAT
; _this$ = ecx

; 161  : 	_ALLOCATOR() _THROW0()

  00000	8b c1		 mov	 eax, ecx

; 162  : 		{	// construct default allocator (do nothing)
; 163  : 		}

  00002	c3		 ret	 0
??0?$allocator@D@std@@QAE@XZ ENDP			; std::allocator<char>::allocator<char>
_TEXT	ENDS
PUBLIC	??0?$allocator@D@std@@QAE@ABV01@@Z		; std::allocator<char>::allocator<char>
; Function compile flags: /Ogsp
;	COMDAT ??0?$allocator@D@std@@QAE@ABV01@@Z
_TEXT	SEGMENT
___formal$ = 8						; size = 4
??0?$allocator@D@std@@QAE@ABV01@@Z PROC			; std::allocator<char>::allocator<char>, COMDAT
; _this$ = ecx

; 165  : 	_ALLOCATOR(const _ALLOCATOR<_Ty>&) _THROW0()

  00000	8b c1		 mov	 eax, ecx

; 166  : 		{	// construct by copying (do nothing)
; 167  : 		}

  00002	c2 04 00	 ret	 4
??0?$allocator@D@std@@QAE@ABV01@@Z ENDP			; std::allocator<char>::allocator<char>
_TEXT	ENDS
PUBLIC	?get_allocator@?$basic_string@DU?$char_traits@D@std@@V?$allocator@D@2@@std@@QBE?AV?$allocator@D@2@XZ ; std::basic_string<char,std::char_traits<char>,std::allocator<char> >::get_allocator
; Function compile flags: /Ogsp
; File c:\program files (x86)\microsoft visual studio 10.0\vc\include\xstring
;	COMDAT ?get_allocator@?$basic_string@DU?$char_traits@D@std@@V?$allocator@D@2@@std@@QBE?AV?$allocator@D@2@XZ
_TEXT	SEGMENT
___$ReturnUdt$ = 8					; size = 4
?get_allocator@?$basic_string@DU?$char_traits@D@std@@V?$allocator@D@2@@std@@QBE?AV?$allocator@D@2@XZ PROC ; std::basic_string<char,std::char_traits<char>,std::allocator<char> >::get_allocator, COMDAT
; _this$ = ecx

; 1906 : 		{	// return allocator object for values

  00000	55		 push	 ebp
  00001	8b ec		 mov	 ebp, esp

; 1907 : 		return (this->_Alval);

  00003	8b 45 08	 mov	 eax, DWORD PTR ___$ReturnUdt$[ebp]

; 1908 : 		}

  00006	5d		 pop	 ebp
  00007	c2 04 00	 ret	 4
?get_allocator@?$basic_string@DU?$char_traits@D@std@@V?$allocator@D@2@@std@@QBE?AV?$allocator@D@2@XZ ENDP ; std::basic_string<char,std::char_traits<char>,std::allocator<char> >::get_allocator
_TEXT	ENDS
PUBLIC	?_Myptr@?$basic_string@DU?$char_traits@D@std@@V?$allocator@D@2@@std@@QAEPADXZ ; std::basic_string<char,std::char_traits<char>,std::allocator<char> >::_Myptr
; Function compile flags: /Ogsp
;	COMDAT ?_Myptr@?$basic_string@DU?$char_traits@D@std@@V?$allocator@D@2@@std@@QAEPADXZ
_TEXT	SEGMENT
?_Myptr@?$basic_string@DU?$char_traits@D@std@@V?$allocator@D@2@@std@@QAEPADXZ PROC ; std::basic_string<char,std::char_traits<char>,std::allocator<char> >::_Myptr, COMDAT
; _this$ = ecx

; 2004 : 		return (this->_BUF_SIZE <= this->_Myres ? this->_Bx._Ptr
; 2005 : 			: this->_Bx._Buf);

  00000	83 79 14 10	 cmp	 DWORD PTR [ecx+20], 16	; 00000010H
  00004	72 03		 jb	 SHORT $LN3@Myptr@2
  00006	8b 01		 mov	 eax, DWORD PTR [ecx]

; 2006 : 		}

  00008	c3		 ret	 0
$LN3@Myptr@2:

; 2004 : 		return (this->_BUF_SIZE <= this->_Myres ? this->_Bx._Ptr
; 2005 : 			: this->_Bx._Buf);

  00009	8b c1		 mov	 eax, ecx

; 2006 : 		}

  0000b	c3		 ret	 0
?_Myptr@?$basic_string@DU?$char_traits@D@std@@V?$allocator@D@2@@std@@QAEPADXZ ENDP ; std::basic_string<char,std::char_traits<char>,std::allocator<char> >::_Myptr
_TEXT	ENDS
PUBLIC	??_C@_0BA@JFNIOLAK@string?5too?5long?$AA@	; `string'
PUBLIC	?_Xlen@?$basic_string@DU?$char_traits@D@std@@V?$allocator@D@2@@std@@QBEXXZ ; std::basic_string<char,std::char_traits<char>,std::allocator<char> >::_Xlen
;	COMDAT ??_C@_0BA@JFNIOLAK@string?5too?5long?$AA@
CONST	SEGMENT
??_C@_0BA@JFNIOLAK@string?5too?5long?$AA@ DB 'string too long', 00H ; `string'
; Function compile flags: /Ogsp
CONST	ENDS
;	COMDAT ?_Xlen@?$basic_string@DU?$char_traits@D@std@@V?$allocator@D@2@@std@@QBEXXZ
_TEXT	SEGMENT
?_Xlen@?$basic_string@DU?$char_traits@D@std@@V?$allocator@D@2@@std@@QBEXXZ PROC ; std::basic_string<char,std::char_traits<char>,std::allocator<char> >::_Xlen, COMDAT
; _this$ = ecx

; 2016 : 		_Xlength_error("string too long");

  00000	68 00 00 00 00	 push	 OFFSET ??_C@_0BA@JFNIOLAK@string?5too?5long?$AA@
  00005	ff 15 00 00 00
	00		 call	 DWORD PTR __imp_?_Xlength_error@std@@YAXPBD@Z
$LN4@Xlen@3:
$LN3@Xlen@3:
  0000b	cc		 int	 3
?_Xlen@?$basic_string@DU?$char_traits@D@std@@V?$allocator@D@2@@std@@QBEXXZ ENDP ; std::basic_string<char,std::char_traits<char>,std::allocator<char> >::_Xlen
_TEXT	ENDS
PUBLIC	??_C@_0BI@CFPLBAOH@invalid?5string?5position?$AA@ ; `string'
PUBLIC	?_Xran@?$basic_string@DU?$char_traits@D@std@@V?$allocator@D@2@@std@@QBEXXZ ; std::basic_string<char,std::char_traits<char>,std::allocator<char> >::_Xran
EXTRN	__imp_?_Xout_of_range@std@@YAXPBD@Z:PROC
;	COMDAT ??_C@_0BI@CFPLBAOH@invalid?5string?5position?$AA@
CONST	SEGMENT
??_C@_0BI@CFPLBAOH@invalid?5string?5position?$AA@ DB 'invalid string posi'
	DB	'tion', 00H					; `string'
; Function compile flags: /Ogsp
CONST	ENDS
;	COMDAT ?_Xran@?$basic_string@DU?$char_traits@D@std@@V?$allocator@D@2@@std@@QBEXXZ
_TEXT	SEGMENT
?_Xran@?$basic_string@DU?$char_traits@D@std@@V?$allocator@D@2@@std@@QBEXXZ PROC ; std::basic_string<char,std::char_traits<char>,std::allocator<char> >::_Xran, COMDAT
; _this$ = ecx

; 2021 : 		_Xout_of_range("invalid string position");

  00000	68 00 00 00 00	 push	 OFFSET ??_C@_0BI@CFPLBAOH@invalid?5string?5position?$AA@
  00005	ff 15 00 00 00
	00		 call	 DWORD PTR __imp_?_Xout_of_range@std@@YAXPBD@Z
$LN4@Xran:
$LN3@Xran:
  0000b	cc		 int	 3
?_Xran@?$basic_string@DU?$char_traits@D@std@@V?$allocator@D@2@@std@@QBEXXZ ENDP ; std::basic_string<char,std::char_traits<char>,std::allocator<char> >::_Xran
_TEXT	ENDS
PUBLIC	?deallocate@?$allocator@D@std@@QAEXPADI@Z	; std::allocator<char>::deallocate
; Function compile flags: /Ogsp
; File c:\program files (x86)\microsoft visual studio 10.0\vc\include\xmemory
;	COMDAT ?deallocate@?$allocator@D@std@@QAEXPADI@Z
_TEXT	SEGMENT
__Ptr$ = 8						; size = 4
___formal$ = 12						; size = 4
?deallocate@?$allocator@D@std@@QAEXPADI@Z PROC		; std::allocator<char>::deallocate, COMDAT
; _this$ = ecx

; 181  : 		{	// deallocate object at _Ptr, ignore size

  00000	55		 push	 ebp
  00001	8b ec		 mov	 ebp, esp

; 182  : 		::operator delete(_Ptr);

  00003	ff 75 08	 push	 DWORD PTR __Ptr$[ebp]
  00006	e8 00 00 00 00	 call	 ??3@YAXPAX@Z		; operator delete
  0000b	59		 pop	 ecx

; 183  : 		}

  0000c	5d		 pop	 ebp
  0000d	c2 08 00	 ret	 8
?deallocate@?$allocator@D@std@@QAEXPADI@Z ENDP		; std::allocator<char>::deallocate
_TEXT	ENDS
PUBLIC	?_Inside@?$basic_string@DU?$char_traits@D@std@@V?$allocator@D@2@@std@@QAE_NPBD@Z ; std::basic_string<char,std::char_traits<char>,std::allocator<char> >::_Inside
; Function compile flags: /Ogsp
; File c:\program files (x86)\microsoft visual studio 10.0\vc\include\xstring
;	COMDAT ?_Inside@?$basic_string@DU?$char_traits@D@std@@V?$allocator@D@2@@std@@QAE_NPBD@Z
_TEXT	SEGMENT
__Ptr$ = 8						; size = 4
?_Inside@?$basic_string@DU?$char_traits@D@std@@V?$allocator@D@2@@std@@QAE_NPBD@Z PROC ; std::basic_string<char,std::char_traits<char>,std::allocator<char> >::_Inside, COMDAT
; _this$ = ecx

; 1973 : 		{	// test if _Ptr points inside string

  00000	55		 push	 ebp
  00001	8b ec		 mov	 ebp, esp

; 1974 : 		if (_Ptr == 0 || _Ptr < _Myptr() || _Myptr() + this->_Mysize <= _Ptr)

  00003	83 7d 08 00	 cmp	 DWORD PTR __Ptr$[ebp], 0
  00007	74 2c		 je	 SHORT $LN2@Inside@2
  00009	8b 51 14	 mov	 edx, DWORD PTR [ecx+20]
  0000c	83 fa 10	 cmp	 edx, 16			; 00000010H
  0000f	72 04		 jb	 SHORT $LN8@Inside@2
  00011	8b 01		 mov	 eax, DWORD PTR [ecx]
  00013	eb 02		 jmp	 SHORT $LN9@Inside@2
$LN8@Inside@2:
  00015	8b c1		 mov	 eax, ecx
$LN9@Inside@2:
  00017	39 45 08	 cmp	 DWORD PTR __Ptr$[ebp], eax
  0001a	72 19		 jb	 SHORT $LN2@Inside@2
  0001c	83 fa 10	 cmp	 edx, 16			; 00000010H
  0001f	72 04		 jb	 SHORT $LN12@Inside@2
  00021	8b 01		 mov	 eax, DWORD PTR [ecx]
  00023	eb 02		 jmp	 SHORT $LN13@Inside@2
$LN12@Inside@2:
  00025	8b c1		 mov	 eax, ecx
$LN13@Inside@2:
  00027	8b 49 10	 mov	 ecx, DWORD PTR [ecx+16]
  0002a	03 c8		 add	 ecx, eax
  0002c	3b 4d 08	 cmp	 ecx, DWORD PTR __Ptr$[ebp]
  0002f	76 04		 jbe	 SHORT $LN2@Inside@2

; 1976 : 		else
; 1977 : 			return (true);

  00031	b0 01		 mov	 al, 1
  00033	eb 02		 jmp	 SHORT $LN1@Inside@2
$LN2@Inside@2:

; 1975 : 			return (false);	// don't ask

  00035	32 c0		 xor	 al, al
$LN1@Inside@2:

; 1978 : 		}

  00037	5d		 pop	 ebp
  00038	c2 04 00	 ret	 4
?_Inside@?$basic_string@DU?$char_traits@D@std@@V?$allocator@D@2@@std@@QAE_NPBD@Z ENDP ; std::basic_string<char,std::char_traits<char>,std::allocator<char> >::_Inside
_TEXT	ENDS
PUBLIC	?max_size@?$allocator@D@std@@QBEIXZ		; std::allocator<char>::max_size
; Function compile flags: /Ogsp
; File c:\program files (x86)\microsoft visual studio 10.0\vc\include\xmemory
;	COMDAT ?max_size@?$allocator@D@std@@QBEIXZ
_TEXT	SEGMENT
?max_size@?$allocator@D@std@@QBEIXZ PROC		; std::allocator<char>::max_size, COMDAT
; _this$ = ecx

; 218  : 		_SIZT _Count = (_SIZT)(-1) / sizeof (_Ty);
; 219  : 		return (0 < _Count ? _Count : 1);

  00000	83 c8 ff	 or	 eax, -1

; 220  : 		}

  00003	c3		 ret	 0
?max_size@?$allocator@D@std@@QBEIXZ ENDP		; std::allocator<char>::max_size
_TEXT	ENDS
PUBLIC	??$forward@V?$basic_string@DU?$char_traits@D@std@@V?$allocator@D@2@@std@@@std@@YA$$QAV?$basic_string@DU?$char_traits@D@std@@V?$allocator@D@2@@0@AAV10@@Z ; std::forward<std::basic_string<char,std::char_traits<char>,std::allocator<char> > >
; Function compile flags: /Ogsp
; File c:\program files (x86)\microsoft visual studio 10.0\vc\include\utility
;	COMDAT ??$forward@V?$basic_string@DU?$char_traits@D@std@@V?$allocator@D@2@@std@@@std@@YA$$QAV?$basic_string@DU?$char_traits@D@std@@V?$allocator@D@2@@0@AAV10@@Z
_TEXT	SEGMENT
__Arg$ = 8						; size = 4
??$forward@V?$basic_string@DU?$char_traits@D@std@@V?$allocator@D@2@@std@@@std@@YA$$QAV?$basic_string@DU?$char_traits@D@std@@V?$allocator@D@2@@0@AAV10@@Z PROC ; std::forward<std::basic_string<char,std::char_traits<char>,std::allocator<char> > >, COMDAT

; 78   : 	{	// forward _Arg, given explicitly specified type parameter

  00000	55		 push	 ebp
  00001	8b ec		 mov	 ebp, esp

; 79   : 	return ((_Ty&&)_Arg);

  00003	8b 45 08	 mov	 eax, DWORD PTR __Arg$[ebp]

; 80   : 	}

  00006	5d		 pop	 ebp
  00007	c3		 ret	 0
??$forward@V?$basic_string@DU?$char_traits@D@std@@V?$allocator@D@2@@std@@@std@@YA$$QAV?$basic_string@DU?$char_traits@D@std@@V?$allocator@D@2@@0@AAV10@@Z ENDP ; std::forward<std::basic_string<char,std::char_traits<char>,std::allocator<char> > >
_TEXT	ENDS
PUBLIC	??$_Allocate@D@std@@YAPADIPAD@Z			; std::_Allocate<char>
; Function compile flags: /Ogsp
; File c:\program files (x86)\microsoft visual studio 10.0\vc\include\xmemory
;	COMDAT ??$_Allocate@D@std@@YAPADIPAD@Z
_TEXT	SEGMENT
$T508507 = -12						; size = 12
$T508511 = 8						; size = 4
__Count$ = 8						; size = 4
___formal$ = 12						; size = 4
??$_Allocate@D@std@@YAPADIPAD@Z PROC			; std::_Allocate<char>, COMDAT

; 30   : 	{	// allocate storage for _Count elements of type _Ty

  00000	55		 push	 ebp
  00001	8b ec		 mov	 ebp, esp

; 31   : 	void *_Ptr = 0;

  00003	33 c0		 xor	 eax, eax
  00005	83 ec 0c	 sub	 esp, 12			; 0000000cH

; 32   : 
; 33   : 	if (_Count <= 0)

  00008	39 45 08	 cmp	 DWORD PTR __Count$[ebp], eax

; 34   : 		_Count = 0;
; 35   : 	else if (((_SIZT)(-1) / sizeof (_Ty) < _Count)

  0000b	76 39		 jbe	 SHORT $LN5@Allocate@3

; 36   : 		|| (_Ptr = ::operator new(_Count * sizeof (_Ty))) == 0)

  0000d	83 7d 08 ff	 cmp	 DWORD PTR __Count$[ebp], -1
  00011	77 0d		 ja	 SHORT $LN1@Allocate@3
  00013	ff 75 08	 push	 DWORD PTR __Count$[ebp]
  00016	e8 00 00 00 00	 call	 ??2@YAPAXI@Z		; operator new
  0001b	59		 pop	 ecx
  0001c	85 c0		 test	 eax, eax

; 38   : 
; 39   : 	return ((_Ty _FARQ *)_Ptr);

  0001e	75 26		 jne	 SHORT $LN5@Allocate@3
$LN1@Allocate@3:

; 37   : 		_THROW_NCEE(bad_alloc, 0);

  00020	83 65 08 00	 and	 DWORD PTR $T508511[ebp], 0
  00024	8d 45 08	 lea	 eax, DWORD PTR $T508511[ebp]
  00027	50		 push	 eax
  00028	8d 4d f4	 lea	 ecx, DWORD PTR $T508507[ebp]
  0002b	ff 15 00 00 00
	00		 call	 DWORD PTR __imp_??0exception@std@@QAE@ABQBD@Z
  00031	68 00 00 00 00	 push	 OFFSET __TI2?AVbad_alloc@std@@
  00036	8d 45 f4	 lea	 eax, DWORD PTR $T508507[ebp]
  00039	50		 push	 eax
  0003a	c7 45 f4 00 00
	00 00		 mov	 DWORD PTR $T508507[ebp], OFFSET ??_7bad_alloc@std@@6B@
  00041	e8 00 00 00 00	 call	 __CxxThrowException@8
$LN10@Allocate@3:
$LN5@Allocate@3:

; 40   : 	}

  00046	c9		 leave
  00047	c3		 ret	 0
$LN9@Allocate@3:
??$_Allocate@D@std@@YAPADIPAD@Z ENDP			; std::_Allocate<char>
_TEXT	ENDS
EXTRN	__imp_??0exception@std@@QAE@ABV01@@Z:PROC
; Function compile flags: /Ogsp
;	COMDAT ??0bad_alloc@std@@QAE@ABV01@@Z
_TEXT	SEGMENT
___that$ = 8						; size = 4
??0bad_alloc@std@@QAE@ABV01@@Z PROC			; std::bad_alloc::bad_alloc, COMDAT
; _this$ = ecx
  00000	55		 push	 ebp
  00001	8b ec		 mov	 ebp, esp
  00003	56		 push	 esi
  00004	ff 75 08	 push	 DWORD PTR ___that$[ebp]
  00007	8b f1		 mov	 esi, ecx
  00009	ff 15 00 00 00
	00		 call	 DWORD PTR __imp_??0exception@std@@QAE@ABV01@@Z
  0000f	c7 06 00 00 00
	00		 mov	 DWORD PTR [esi], OFFSET ??_7bad_alloc@std@@6B@
  00015	8b c6		 mov	 eax, esi
  00017	5e		 pop	 esi
  00018	5d		 pop	 ebp
  00019	c2 04 00	 ret	 4
??0bad_alloc@std@@QAE@ABV01@@Z ENDP			; std::bad_alloc::bad_alloc
_TEXT	ENDS
PUBLIC	??$move@AAV?$basic_string@DU?$char_traits@D@std@@V?$allocator@D@2@@std@@@std@@YA$$QAV?$basic_string@DU?$char_traits@D@std@@V?$allocator@D@2@@0@AAV10@@Z ; std::move<std::basic_string<char,std::char_traits<char>,std::allocator<char> > &>
; Function compile flags: /Ogsp
; File c:\program files (x86)\microsoft visual studio 10.0\vc\include\utility
;	COMDAT ??$move@AAV?$basic_string@DU?$char_traits@D@std@@V?$allocator@D@2@@std@@@std@@YA$$QAV?$basic_string@DU?$char_traits@D@std@@V?$allocator@D@2@@0@AAV10@@Z
_TEXT	SEGMENT
__Arg$ = 8						; size = 4
??$move@AAV?$basic_string@DU?$char_traits@D@std@@V?$allocator@D@2@@std@@@std@@YA$$QAV?$basic_string@DU?$char_traits@D@std@@V?$allocator@D@2@@0@AAV10@@Z PROC ; std::move<std::basic_string<char,std::char_traits<char>,std::allocator<char> > &>, COMDAT

; 86   : 	{	// forward _Arg as movable

  00000	55		 push	 ebp
  00001	8b ec		 mov	 ebp, esp

; 87   : 	return ((typename tr1::_Remove_reference<_Ty>::_Type&&)_Arg);

  00003	8b 45 08	 mov	 eax, DWORD PTR __Arg$[ebp]

; 88   : 	}

  00006	5d		 pop	 ebp
  00007	c3		 ret	 0
??$move@AAV?$basic_string@DU?$char_traits@D@std@@V?$allocator@D@2@@std@@@std@@YA$$QAV?$basic_string@DU?$char_traits@D@std@@V?$allocator@D@2@@0@AAV10@@Z ENDP ; std::move<std::basic_string<char,std::char_traits<char>,std::allocator<char> > &>
_TEXT	ENDS
PUBLIC	??$?8DD@std@@YA_NABV?$allocator@D@0@0@Z		; std::operator==<char,char>
; Function compile flags: /Ogsp
; File c:\program files (x86)\microsoft visual studio 10.0\vc\include\xmemory
;	COMDAT ??$?8DD@std@@YA_NABV?$allocator@D@0@0@Z
_TEXT	SEGMENT
___formal$ = 8						; size = 4
___formal$ = 12						; size = 4
??$?8DD@std@@YA_NABV?$allocator@D@0@0@Z PROC		; std::operator==<char,char>, COMDAT

; 263  : 	return (true);

  00000	b0 01		 mov	 al, 1

; 264  : 	}

  00002	c3		 ret	 0
??$?8DD@std@@YA_NABV?$allocator@D@0@0@Z ENDP		; std::operator==<char,char>
_TEXT	ENDS
PUBLIC	??1?$_Vector_val@V?$basic_string@DU?$char_traits@D@std@@V?$allocator@D@2@@std@@V?$allocator@V?$basic_string@DU?$char_traits@D@std@@V?$allocator@D@2@@std@@@2@@std@@QAE@XZ ; std::_Vector_val<std::basic_string<char,std::char_traits<char>,std::allocator<char> >,std::allocator<std::basic_string<char,std::char_traits<char>,std::allocator<char> > > >::~_Vector_val<std::basic_string<char,std::char_traits<char>,std::allocator<char> >,std::allocator<std::basic_string<char,std::char_traits<char>,std::allocator<char> > > >
; Function compile flags: /Ogsp
; File c:\program files (x86)\microsoft visual studio 10.0\vc\include\vector
;	COMDAT ??1?$_Vector_val@V?$basic_string@DU?$char_traits@D@std@@V?$allocator@D@2@@std@@V?$allocator@V?$basic_string@DU?$char_traits@D@std@@V?$allocator@D@2@@std@@@2@@std@@QAE@XZ
_TEXT	SEGMENT
??1?$_Vector_val@V?$basic_string@DU?$char_traits@D@std@@V?$allocator@D@2@@std@@V?$allocator@V?$basic_string@DU?$char_traits@D@std@@V?$allocator@D@2@@std@@@2@@std@@QAE@XZ PROC ; std::_Vector_val<std::basic_string<char,std::char_traits<char>,std::allocator<char> >,std::allocator<std::basic_string<char,std::char_traits<char>,std::allocator<char> > > >::~_Vector_val<std::basic_string<char,std::char_traits<char>,std::allocator<char> >,std::allocator<std::basic_string<char,std::char_traits<char>,std::allocator<char> > > >, COMDAT
; _this$ = ecx

; 434  : 		}

  00000	c3		 ret	 0
??1?$_Vector_val@V?$basic_string@DU?$char_traits@D@std@@V?$allocator@D@2@@std@@V?$allocator@V?$basic_string@DU?$char_traits@D@std@@V?$allocator@D@2@@std@@@2@@std@@QAE@XZ ENDP ; std::_Vector_val<std::basic_string<char,std::char_traits<char>,std::allocator<char> >,std::allocator<std::basic_string<char,std::char_traits<char>,std::allocator<char> > > >::~_Vector_val<std::basic_string<char,std::char_traits<char>,std::allocator<char> >,std::allocator<std::basic_string<char,std::char_traits<char>,std::allocator<char> > > >
_TEXT	ENDS
PUBLIC	?deallocate@?$allocator@V?$basic_string@DU?$char_traits@D@std@@V?$allocator@D@2@@std@@@std@@QAEXPAV?$basic_string@DU?$char_traits@D@std@@V?$allocator@D@2@@2@I@Z ; std::allocator<std::basic_string<char,std::char_traits<char>,std::allocator<char> > >::deallocate
; Function compile flags: /Ogsp
; File c:\program files (x86)\microsoft visual studio 10.0\vc\include\xmemory
;	COMDAT ?deallocate@?$allocator@V?$basic_string@DU?$char_traits@D@std@@V?$allocator@D@2@@std@@@std@@QAEXPAV?$basic_string@DU?$char_traits@D@std@@V?$allocator@D@2@@2@I@Z
_TEXT	SEGMENT
__Ptr$ = 8						; size = 4
___formal$ = 12						; size = 4
?deallocate@?$allocator@V?$basic_string@DU?$char_traits@D@std@@V?$allocator@D@2@@std@@@std@@QAEXPAV?$basic_string@DU?$char_traits@D@std@@V?$allocator@D@2@@2@I@Z PROC ; std::allocator<std::basic_string<char,std::char_traits<char>,std::allocator<char> > >::deallocate, COMDAT
; _this$ = ecx

; 181  : 		{	// deallocate object at _Ptr, ignore size

  00000	55		 push	 ebp
  00001	8b ec		 mov	 ebp, esp

; 182  : 		::operator delete(_Ptr);

  00003	ff 75 08	 push	 DWORD PTR __Ptr$[ebp]
  00006	e8 00 00 00 00	 call	 ??3@YAXPAX@Z		; operator delete
  0000b	59		 pop	 ecx

; 183  : 		}

  0000c	5d		 pop	 ebp
  0000d	c2 08 00	 ret	 8
?deallocate@?$allocator@V?$basic_string@DU?$char_traits@D@std@@V?$allocator@D@2@@std@@@std@@QAEXPAV?$basic_string@DU?$char_traits@D@std@@V?$allocator@D@2@@2@I@Z ENDP ; std::allocator<std::basic_string<char,std::char_traits<char>,std::allocator<char> > >::deallocate
_TEXT	ENDS
PUBLIC	??$_Ptr_cat@V?$basic_string@DU?$char_traits@D@std@@V?$allocator@D@2@@std@@V12@@std@@YA?AU_Nonscalar_ptr_iterator_tag@0@PAV?$basic_string@DU?$char_traits@D@std@@V?$allocator@D@2@@0@0@Z ; std::_Ptr_cat<std::basic_string<char,std::char_traits<char>,std::allocator<char> >,std::basic_string<char,std::char_traits<char>,std::allocator<char> > >
; Function compile flags: /Ogsp
; File c:\program files (x86)\microsoft visual studio 10.0\vc\include\xutility
;	COMDAT ??$_Ptr_cat@V?$basic_string@DU?$char_traits@D@std@@V?$allocator@D@2@@std@@V12@@std@@YA?AU_Nonscalar_ptr_iterator_tag@0@PAV?$basic_string@DU?$char_traits@D@std@@V?$allocator@D@2@@0@0@Z
_TEXT	SEGMENT
__Cat$ = -1						; size = 1
___formal$ = 8						; size = 4
___formal$ = 12						; size = 4
??$_Ptr_cat@V?$basic_string@DU?$char_traits@D@std@@V?$allocator@D@2@@std@@V12@@std@@YA?AU_Nonscalar_ptr_iterator_tag@0@PAV?$basic_string@DU?$char_traits@D@std@@V?$allocator@D@2@@0@0@Z PROC ; std::_Ptr_cat<std::basic_string<char,std::char_traits<char>,std::allocator<char> >,std::basic_string<char,std::char_traits<char>,std::allocator<char> > >, COMDAT

; 516  : 	{	// return pointer category from pointers

  00000	55		 push	 ebp
  00001	8b ec		 mov	 ebp, esp
  00003	51		 push	 ecx

; 517  : 	typename _Ptr_cat_helper<_Elem1, _Elem2>::_Type _Cat;
; 518  : 	return (_Cat);

  00004	8a 45 ff	 mov	 al, BYTE PTR __Cat$[ebp]

; 519  : 	}

  00007	c9		 leave
  00008	c3		 ret	 0
??$_Ptr_cat@V?$basic_string@DU?$char_traits@D@std@@V?$allocator@D@2@@std@@V12@@std@@YA?AU_Nonscalar_ptr_iterator_tag@0@PAV?$basic_string@DU?$char_traits@D@std@@V?$allocator@D@2@@0@0@Z ENDP ; std::_Ptr_cat<std::basic_string<char,std::char_traits<char>,std::allocator<char> >,std::basic_string<char,std::char_traits<char>,std::allocator<char> > >
_TEXT	ENDS
PUBLIC	??D?$_Vector_iterator@V?$_Vector_val@UItemListInfoSort@@V?$allocator@UItemListInfoSort@@@std@@@std@@@std@@QBEAAUItemListInfoSort@@XZ ; std::_Vector_iterator<std::_Vector_val<ItemListInfoSort,std::allocator<ItemListInfoSort> > >::operator*
; Function compile flags: /Ogsp
; File c:\program files (x86)\microsoft visual studio 10.0\vc\include\vector
;	COMDAT ??D?$_Vector_iterator@V?$_Vector_val@UItemListInfoSort@@V?$allocator@UItemListInfoSort@@@std@@@std@@@std@@QBEAAUItemListInfoSort@@XZ
_TEXT	SEGMENT
??D?$_Vector_iterator@V?$_Vector_val@UItemListInfoSort@@V?$allocator@UItemListInfoSort@@@std@@@std@@@std@@QBEAAUItemListInfoSort@@XZ PROC ; std::_Vector_iterator<std::_Vector_val<ItemListInfoSort,std::allocator<ItemListInfoSort> > >::operator*, COMDAT
; _this$ = ecx

; 322  : 		return ((reference)**(_Mybase *)this);

  00000	8b 01		 mov	 eax, DWORD PTR [ecx]

; 323  : 		}

  00002	c3		 ret	 0
??D?$_Vector_iterator@V?$_Vector_val@UItemListInfoSort@@V?$allocator@UItemListInfoSort@@@std@@@std@@@std@@QBEAAUItemListInfoSort@@XZ ENDP ; std::_Vector_iterator<std::_Vector_val<ItemListInfoSort,std::allocator<ItemListInfoSort> > >::operator*
_TEXT	ENDS
PUBLIC	??E?$_Vector_iterator@V?$_Vector_val@UItemListInfoSort@@V?$allocator@UItemListInfoSort@@@std@@@std@@@std@@QAEAAV01@XZ ; std::_Vector_iterator<std::_Vector_val<ItemListInfoSort,std::allocator<ItemListInfoSort> > >::operator++
; Function compile flags: /Ogsp
;	COMDAT ??E?$_Vector_iterator@V?$_Vector_val@UItemListInfoSort@@V?$allocator@UItemListInfoSort@@@std@@@std@@@std@@QAEAAV01@XZ
_TEXT	SEGMENT
??E?$_Vector_iterator@V?$_Vector_val@UItemListInfoSort@@V?$allocator@UItemListInfoSort@@@std@@@std@@@std@@QAEAAV01@XZ PROC ; std::_Vector_iterator<std::_Vector_val<ItemListInfoSort,std::allocator<ItemListInfoSort> > >::operator++, COMDAT
; _this$ = ecx

; 331  : 		{	// preincrement

  00000	8b c1		 mov	 eax, ecx

; 332  : 		++*(_Mybase *)this;

  00002	83 00 14	 add	 DWORD PTR [eax], 20	; 00000014H

; 333  : 		return (*this);
; 334  : 		}

  00005	c3		 ret	 0
??E?$_Vector_iterator@V?$_Vector_val@UItemListInfoSort@@V?$allocator@UItemListInfoSort@@@std@@@std@@@std@@QAEAAV01@XZ ENDP ; std::_Vector_iterator<std::_Vector_val<ItemListInfoSort,std::allocator<ItemListInfoSort> > >::operator++
_TEXT	ENDS
PUBLIC	??0?$_Vector_val@V?$basic_string@DU?$char_traits@D@std@@V?$allocator@D@2@@std@@V?$allocator@V?$basic_string@DU?$char_traits@D@std@@V?$allocator@D@2@@std@@@2@@std@@QAE@V?$allocator@V?$basic_string@DU?$char_traits@D@std@@V?$allocator@D@2@@std@@@1@@Z ; std::_Vector_val<std::basic_string<char,std::char_traits<char>,std::allocator<char> >,std::allocator<std::basic_string<char,std::char_traits<char>,std::allocator<char> > > >::_Vector_val<std::basic_string<char,std::char_traits<char>,std::allocator<char> >,std::allocator<std::basic_string<char,std::char_traits<char>,std::allocator<char> > > >
; Function compile flags: /Ogsp
;	COMDAT ??0?$_Vector_val@V?$basic_string@DU?$char_traits@D@std@@V?$allocator@D@2@@std@@V?$allocator@V?$basic_string@DU?$char_traits@D@std@@V?$allocator@D@2@@std@@@2@@std@@QAE@V?$allocator@V?$basic_string@DU?$char_traits@D@std@@V?$allocator@D@2@@std@@@1@@Z
_TEXT	SEGMENT
__Al$ = 8						; size = 1
??0?$_Vector_val@V?$basic_string@DU?$char_traits@D@std@@V?$allocator@D@2@@std@@V?$allocator@V?$basic_string@DU?$char_traits@D@std@@V?$allocator@D@2@@std@@@2@@std@@QAE@V?$allocator@V?$basic_string@DU?$char_traits@D@std@@V?$allocator@D@2@@std@@@1@@Z PROC ; std::_Vector_val<std::basic_string<char,std::char_traits<char>,std::allocator<char> >,std::allocator<std::basic_string<char,std::char_traits<char>,std::allocator<char> > > >::_Vector_val<std::basic_string<char,std::char_traits<char>,std::allocator<char> >,std::allocator<std::basic_string<char,std::char_traits<char>,std::allocator<char> > > >, COMDAT
; _this$ = ecx

; 426  : 		{	// construct allocator from _Al

  00000	8b c1		 mov	 eax, ecx

; 427  : 		_Myfirst = 0;

  00002	33 c9		 xor	 ecx, ecx
  00004	89 08		 mov	 DWORD PTR [eax], ecx

; 428  : 		_Mylast = 0;

  00006	89 48 04	 mov	 DWORD PTR [eax+4], ecx

; 429  : 		_Myend = 0;

  00009	89 48 08	 mov	 DWORD PTR [eax+8], ecx

; 430  : 		}

  0000c	c2 04 00	 ret	 4
??0?$_Vector_val@V?$basic_string@DU?$char_traits@D@std@@V?$allocator@D@2@@std@@V?$allocator@V?$basic_string@DU?$char_traits@D@std@@V?$allocator@D@2@@std@@@2@@std@@QAE@V?$allocator@V?$basic_string@DU?$char_traits@D@std@@V?$allocator@D@2@@std@@@1@@Z ENDP ; std::_Vector_val<std::basic_string<char,std::char_traits<char>,std::allocator<char> >,std::allocator<std::basic_string<char,std::char_traits<char>,std::allocator<char> > > >::_Vector_val<std::basic_string<char,std::char_traits<char>,std::allocator<char> >,std::allocator<std::basic_string<char,std::char_traits<char>,std::allocator<char> > > >
_TEXT	ENDS
PUBLIC	??0?$_Vector_val@UItemListInfoSort@@V?$allocator@UItemListInfoSort@@@std@@@std@@QAE@V?$allocator@UItemListInfoSort@@@1@@Z ; std::_Vector_val<ItemListInfoSort,std::allocator<ItemListInfoSort> >::_Vector_val<ItemListInfoSort,std::allocator<ItemListInfoSort> >
; Function compile flags: /Ogsp
;	COMDAT ??0?$_Vector_val@UItemListInfoSort@@V?$allocator@UItemListInfoSort@@@std@@@std@@QAE@V?$allocator@UItemListInfoSort@@@1@@Z
_TEXT	SEGMENT
__Al$ = 8						; size = 1
??0?$_Vector_val@UItemListInfoSort@@V?$allocator@UItemListInfoSort@@@std@@@std@@QAE@V?$allocator@UItemListInfoSort@@@1@@Z PROC ; std::_Vector_val<ItemListInfoSort,std::allocator<ItemListInfoSort> >::_Vector_val<ItemListInfoSort,std::allocator<ItemListInfoSort> >, COMDAT
; _this$ = ecx

; 426  : 		{	// construct allocator from _Al

  00000	8b c1		 mov	 eax, ecx

; 427  : 		_Myfirst = 0;

  00002	33 c9		 xor	 ecx, ecx
  00004	89 08		 mov	 DWORD PTR [eax], ecx

; 428  : 		_Mylast = 0;

  00006	89 48 04	 mov	 DWORD PTR [eax+4], ecx

; 429  : 		_Myend = 0;

  00009	89 48 08	 mov	 DWORD PTR [eax+8], ecx

; 430  : 		}

  0000c	c2 04 00	 ret	 4
??0?$_Vector_val@UItemListInfoSort@@V?$allocator@UItemListInfoSort@@@std@@@std@@QAE@V?$allocator@UItemListInfoSort@@@1@@Z ENDP ; std::_Vector_val<ItemListInfoSort,std::allocator<ItemListInfoSort> >::_Vector_val<ItemListInfoSort,std::allocator<ItemListInfoSort> >
_TEXT	ENDS
PUBLIC	??8?$_Vector_const_iterator@V?$_Vector_val@UItemListInfoSort@@V?$allocator@UItemListInfoSort@@@std@@@std@@@std@@QBE_NABV01@@Z ; std::_Vector_const_iterator<std::_Vector_val<ItemListInfoSort,std::allocator<ItemListInfoSort> > >::operator==
; Function compile flags: /Ogsp
;	COMDAT ??8?$_Vector_const_iterator@V?$_Vector_val@UItemListInfoSort@@V?$allocator@UItemListInfoSort@@@std@@@std@@@std@@QBE_NABV01@@Z
_TEXT	SEGMENT
__Right$ = 8						; size = 4
??8?$_Vector_const_iterator@V?$_Vector_val@UItemListInfoSort@@V?$allocator@UItemListInfoSort@@@std@@@std@@@std@@QBE_NABV01@@Z PROC ; std::_Vector_const_iterator<std::_Vector_val<ItemListInfoSort,std::allocator<ItemListInfoSort> > >::operator==, COMDAT
; _this$ = ecx

; 201  : 		{	// test for iterator equality

  00000	55		 push	 ebp
  00001	8b ec		 mov	 ebp, esp

; 202  : 		_Compat(_Right);
; 203  : 		return (this->_Ptr == _Right._Ptr);

  00003	8b 01		 mov	 eax, DWORD PTR [ecx]
  00005	8b 4d 08	 mov	 ecx, DWORD PTR __Right$[ebp]
  00008	2b 01		 sub	 eax, DWORD PTR [ecx]
  0000a	f7 d8		 neg	 eax
  0000c	1b c0		 sbb	 eax, eax
  0000e	40		 inc	 eax

; 204  : 		}

  0000f	5d		 pop	 ebp
  00010	c2 04 00	 ret	 4
??8?$_Vector_const_iterator@V?$_Vector_val@UItemListInfoSort@@V?$allocator@UItemListInfoSort@@@std@@@std@@@std@@QBE_NABV01@@Z ENDP ; std::_Vector_const_iterator<std::_Vector_val<ItemListInfoSort,std::allocator<ItemListInfoSort> > >::operator==
_TEXT	ENDS
PUBLIC	?max_size@?$vector@V?$basic_string@DU?$char_traits@D@std@@V?$allocator@D@2@@std@@V?$allocator@V?$basic_string@DU?$char_traits@D@std@@V?$allocator@D@2@@std@@@2@@std@@QBEIXZ ; std::vector<std::basic_string<char,std::char_traits<char>,std::allocator<char> >,std::allocator<std::basic_string<char,std::char_traits<char>,std::allocator<char> > > >::max_size
; Function compile flags: /Ogsp
;	COMDAT ?max_size@?$vector@V?$basic_string@DU?$char_traits@D@std@@V?$allocator@D@2@@std@@V?$allocator@V?$basic_string@DU?$char_traits@D@std@@V?$allocator@D@2@@std@@@2@@std@@QBEIXZ
_TEXT	SEGMENT
?max_size@?$vector@V?$basic_string@DU?$char_traits@D@std@@V?$allocator@D@2@@std@@V?$allocator@V?$basic_string@DU?$char_traits@D@std@@V?$allocator@D@2@@std@@@2@@std@@QBEIXZ PROC ; std::vector<std::basic_string<char,std::char_traits<char>,std::allocator<char> >,std::allocator<std::basic_string<char,std::char_traits<char>,std::allocator<char> > > >::max_size, COMDAT
; _this$ = ecx

; 884  : 		return (this->_Alval.max_size());

  00000	b8 49 92 24 09	 mov	 eax, 153391689		; 09249249H

; 885  : 		}

  00005	c3		 ret	 0
?max_size@?$vector@V?$basic_string@DU?$char_traits@D@std@@V?$allocator@D@2@@std@@V?$allocator@V?$basic_string@DU?$char_traits@D@std@@V?$allocator@D@2@@std@@@2@@std@@QBEIXZ ENDP ; std::vector<std::basic_string<char,std::char_traits<char>,std::allocator<char> >,std::allocator<std::basic_string<char,std::char_traits<char>,std::allocator<char> > > >::max_size
_TEXT	ENDS
PUBLIC	?allocate@?$allocator@V?$basic_string@DU?$char_traits@D@std@@V?$allocator@D@2@@std@@@std@@QAEPAV?$basic_string@DU?$char_traits@D@std@@V?$allocator@D@2@@2@I@Z ; std::allocator<std::basic_string<char,std::char_traits<char>,std::allocator<char> > >::allocate
; Function compile flags: /Ogsp
; File c:\program files (x86)\microsoft visual studio 10.0\vc\include\xmemory
;	COMDAT ?allocate@?$allocator@V?$basic_string@DU?$char_traits@D@std@@V?$allocator@D@2@@std@@@std@@QAEPAV?$basic_string@DU?$char_traits@D@std@@V?$allocator@D@2@@2@I@Z
_TEXT	SEGMENT
__Count$ = 8						; size = 4
?allocate@?$allocator@V?$basic_string@DU?$char_traits@D@std@@V?$allocator@D@2@@std@@@std@@QAEPAV?$basic_string@DU?$char_traits@D@std@@V?$allocator@D@2@@2@I@Z PROC ; std::allocator<std::basic_string<char,std::char_traits<char>,std::allocator<char> > >::allocate, COMDAT
; _this$ = ecx

; 186  : 		{	// allocate array of _Count elements

  00000	55		 push	 ebp
  00001	8b ec		 mov	 ebp, esp

; 187  : 		return (_Allocate(_Count, (pointer)0));

  00003	6a 00		 push	 0
  00005	ff 75 08	 push	 DWORD PTR __Count$[ebp]
  00008	e8 00 00 00 00	 call	 ??$_Allocate@V?$basic_string@DU?$char_traits@D@std@@V?$allocator@D@2@@std@@@std@@YAPAV?$basic_string@DU?$char_traits@D@std@@V?$allocator@D@2@@0@IPAV10@@Z ; std::_Allocate<std::basic_string<char,std::char_traits<char>,std::allocator<char> > >
  0000d	59		 pop	 ecx
  0000e	59		 pop	 ecx

; 188  : 		}

  0000f	5d		 pop	 ebp
  00010	c2 04 00	 ret	 4
?allocate@?$allocator@V?$basic_string@DU?$char_traits@D@std@@V?$allocator@D@2@@std@@@std@@QAEPAV?$basic_string@DU?$char_traits@D@std@@V?$allocator@D@2@@2@I@Z ENDP ; std::allocator<std::basic_string<char,std::char_traits<char>,std::allocator<char> > >::allocate
_TEXT	ENDS
PUBLIC	?max_size@?$vector@UItemListInfoSort@@V?$allocator@UItemListInfoSort@@@std@@@std@@QBEIXZ ; std::vector<ItemListInfoSort,std::allocator<ItemListInfoSort> >::max_size
; Function compile flags: /Ogsp
; File c:\program files (x86)\microsoft visual studio 10.0\vc\include\vector
;	COMDAT ?max_size@?$vector@UItemListInfoSort@@V?$allocator@UItemListInfoSort@@@std@@@std@@QBEIXZ
_TEXT	SEGMENT
?max_size@?$vector@UItemListInfoSort@@V?$allocator@UItemListInfoSort@@@std@@@std@@QBEIXZ PROC ; std::vector<ItemListInfoSort,std::allocator<ItemListInfoSort> >::max_size, COMDAT
; _this$ = ecx

; 884  : 		return (this->_Alval.max_size());

  00000	b8 cc cc cc 0c	 mov	 eax, 214748364		; 0cccccccH

; 885  : 		}

  00005	c3		 ret	 0
?max_size@?$vector@UItemListInfoSort@@V?$allocator@UItemListInfoSort@@@std@@@std@@QBEIXZ ENDP ; std::vector<ItemListInfoSort,std::allocator<ItemListInfoSort> >::max_size
_TEXT	ENDS
PUBLIC	?_Grow_to@?$vector@UItemListInfoSort@@V?$allocator@UItemListInfoSort@@@std@@@std@@IBEII@Z ; std::vector<ItemListInfoSort,std::allocator<ItemListInfoSort> >::_Grow_to
; Function compile flags: /Ogsp
;	COMDAT ?_Grow_to@?$vector@UItemListInfoSort@@V?$allocator@UItemListInfoSort@@@std@@@std@@IBEII@Z
_TEXT	SEGMENT
__Count$ = 8						; size = 4
?_Grow_to@?$vector@UItemListInfoSort@@V?$allocator@UItemListInfoSort@@@std@@@std@@IBEII@Z PROC ; std::vector<ItemListInfoSort,std::allocator<ItemListInfoSort> >::_Grow_to, COMDAT
; _this$ = ecx

; 1274 : 		{	// grow by 50% or at least to _Count

  00000	55		 push	 ebp
  00001	8b ec		 mov	 ebp, esp

; 1275 : 		size_type _Capacity = capacity();

  00003	8b 41 08	 mov	 eax, DWORD PTR [ecx+8]
  00006	2b 01		 sub	 eax, DWORD PTR [ecx]
  00008	6a 14		 push	 20			; 00000014H
  0000a	99		 cdq
  0000b	59		 pop	 ecx
  0000c	f7 f9		 idiv	 ecx

; 1276 : 
; 1277 : 		_Capacity = max_size() - _Capacity / 2 < _Capacity
; 1278 : 			? 0 : _Capacity + _Capacity / 2;	// try to grow by 50%

  0000e	ba cc cc cc 0c	 mov	 edx, 214748364		; 0cccccccH
  00013	8b c8		 mov	 ecx, eax
  00015	d1 e9		 shr	 ecx, 1
  00017	2b d1		 sub	 edx, ecx
  00019	3b d0		 cmp	 edx, eax
  0001b	73 04		 jae	 SHORT $LN4@Grow_to
  0001d	33 c0		 xor	 eax, eax
  0001f	eb 02		 jmp	 SHORT $LN5@Grow_to
$LN4@Grow_to:
  00021	03 c1		 add	 eax, ecx
$LN5@Grow_to:

; 1279 : 		if (_Capacity < _Count)

  00023	3b 45 08	 cmp	 eax, DWORD PTR __Count$[ebp]

; 1280 : 			_Capacity = _Count;

  00026	0f 42 45 08	 cmovb	 eax, DWORD PTR __Count$[ebp]

; 1281 : 		return (_Capacity);
; 1282 : 		}

  0002a	5d		 pop	 ebp
  0002b	c2 04 00	 ret	 4
?_Grow_to@?$vector@UItemListInfoSort@@V?$allocator@UItemListInfoSort@@@std@@@std@@IBEII@Z ENDP ; std::vector<ItemListInfoSort,std::allocator<ItemListInfoSort> >::_Grow_to
_TEXT	ENDS
PUBLIC	??0?$_Vector_const_iterator@V?$_Vector_val@UItemListInfoSort@@V?$allocator@UItemListInfoSort@@@std@@@std@@@std@@QAE@PAUItemListInfoSort@@PBU_Container_base0@1@@Z ; std::_Vector_const_iterator<std::_Vector_val<ItemListInfoSort,std::allocator<ItemListInfoSort> > >::_Vector_const_iterator<std::_Vector_val<ItemListInfoSort,std::allocator<ItemListInfoSort> > >
; Function compile flags: /Ogsp
;	COMDAT ??0?$_Vector_const_iterator@V?$_Vector_val@UItemListInfoSort@@V?$allocator@UItemListInfoSort@@@std@@@std@@@std@@QAE@PAUItemListInfoSort@@PBU_Container_base0@1@@Z
_TEXT	SEGMENT
__Parg$ = 8						; size = 4
__Pvector$ = 12						; size = 4
??0?$_Vector_const_iterator@V?$_Vector_val@UItemListInfoSort@@V?$allocator@UItemListInfoSort@@@std@@@std@@@std@@QAE@PAUItemListInfoSort@@PBU_Container_base0@1@@Z PROC ; std::_Vector_const_iterator<std::_Vector_val<ItemListInfoSort,std::allocator<ItemListInfoSort> > >::_Vector_const_iterator<std::_Vector_val<ItemListInfoSort,std::allocator<ItemListInfoSort> > >, COMDAT
; _this$ = ecx

; 45   : 		{	// construct with pointer _Parg

  00000	55		 push	 ebp
  00001	8b ec		 mov	 ebp, esp
  00003	8b c1		 mov	 eax, ecx
  00005	8b 4d 08	 mov	 ecx, DWORD PTR __Parg$[ebp]
  00008	89 08		 mov	 DWORD PTR [eax], ecx

; 46   : 		this->_Adopt(_Pvector);
; 47   : 		}

  0000a	5d		 pop	 ebp
  0000b	c2 08 00	 ret	 8
??0?$_Vector_const_iterator@V?$_Vector_val@UItemListInfoSort@@V?$allocator@UItemListInfoSort@@@std@@@std@@@std@@QAE@PAUItemListInfoSort@@PBU_Container_base0@1@@Z ENDP ; std::_Vector_const_iterator<std::_Vector_val<ItemListInfoSort,std::allocator<ItemListInfoSort> > >::_Vector_const_iterator<std::_Vector_val<ItemListInfoSort,std::allocator<ItemListInfoSort> > >
_TEXT	ENDS
PUBLIC	?allocate@?$allocator@UItemListInfoSort@@@std@@QAEPAUItemListInfoSort@@I@Z ; std::allocator<ItemListInfoSort>::allocate
; Function compile flags: /Ogsp
; File c:\program files (x86)\microsoft visual studio 10.0\vc\include\xmemory
;	COMDAT ?allocate@?$allocator@UItemListInfoSort@@@std@@QAEPAUItemListInfoSort@@I@Z
_TEXT	SEGMENT
__Count$ = 8						; size = 4
?allocate@?$allocator@UItemListInfoSort@@@std@@QAEPAUItemListInfoSort@@I@Z PROC ; std::allocator<ItemListInfoSort>::allocate, COMDAT
; _this$ = ecx

; 186  : 		{	// allocate array of _Count elements

  00000	55		 push	 ebp
  00001	8b ec		 mov	 ebp, esp

; 187  : 		return (_Allocate(_Count, (pointer)0));

  00003	6a 00		 push	 0
  00005	ff 75 08	 push	 DWORD PTR __Count$[ebp]
  00008	e8 00 00 00 00	 call	 ??$_Allocate@UItemListInfoSort@@@std@@YAPAUItemListInfoSort@@IPAU1@@Z ; std::_Allocate<ItemListInfoSort>
  0000d	59		 pop	 ecx
  0000e	59		 pop	 ecx

; 188  : 		}

  0000f	5d		 pop	 ebp
  00010	c2 04 00	 ret	 4
?allocate@?$allocator@UItemListInfoSort@@@std@@QAEPAUItemListInfoSort@@I@Z ENDP ; std::allocator<ItemListInfoSort>::allocate
_TEXT	ENDS
PUBLIC	??0?$_Vector_const_iterator@V?$_Vector_val@V?$basic_string@DU?$char_traits@D@std@@V?$allocator@D@2@@std@@V?$allocator@V?$basic_string@DU?$char_traits@D@std@@V?$allocator@D@2@@std@@@2@@std@@@std@@QAE@PAV?$basic_string@DU?$char_traits@D@std@@V?$allocator@D@2@@1@PBU_Container_base0@1@@Z ; std::_Vector_const_iterator<std::_Vector_val<std::basic_string<char,std::char_traits<char>,std::allocator<char> >,std::allocator<std::basic_string<char,std::char_traits<char>,std::allocator<char> > > > >::_Vector_const_iterator<std::_Vector_val<std::basic_string<char,std::char_traits<char>,std::allocator<char> >,std::allocator<std::basic_string<char,std::char_traits<char>,std::allocator<char> > > > >
; Function compile flags: /Ogsp
; File c:\program files (x86)\microsoft visual studio 10.0\vc\include\vector
;	COMDAT ??0?$_Vector_const_iterator@V?$_Vector_val@V?$basic_string@DU?$char_traits@D@std@@V?$allocator@D@2@@std@@V?$allocator@V?$basic_string@DU?$char_traits@D@std@@V?$allocator@D@2@@std@@@2@@std@@@std@@QAE@PAV?$basic_string@DU?$char_traits@D@std@@V?$allocator@D@2@@1@PBU_Container_base0@1@@Z
_TEXT	SEGMENT
__Parg$ = 8						; size = 4
__Pvector$ = 12						; size = 4
??0?$_Vector_const_iterator@V?$_Vector_val@V?$basic_string@DU?$char_traits@D@std@@V?$allocator@D@2@@std@@V?$allocator@V?$basic_string@DU?$char_traits@D@std@@V?$allocator@D@2@@std@@@2@@std@@@std@@QAE@PAV?$basic_string@DU?$char_traits@D@std@@V?$allocator@D@2@@1@PBU_Container_base0@1@@Z PROC ; std::_Vector_const_iterator<std::_Vector_val<std::basic_string<char,std::char_traits<char>,std::allocator<char> >,std::allocator<std::basic_string<char,std::char_traits<char>,std::allocator<char> > > > >::_Vector_const_iterator<std::_Vector_val<std::basic_string<char,std::char_traits<char>,std::allocator<char> >,std::allocator<std::basic_string<char,std::char_traits<char>,std::allocator<char> > > > >, COMDAT
; _this$ = ecx

; 45   : 		{	// construct with pointer _Parg

  00000	55		 push	 ebp
  00001	8b ec		 mov	 ebp, esp
  00003	8b c1		 mov	 eax, ecx
  00005	8b 4d 08	 mov	 ecx, DWORD PTR __Parg$[ebp]
  00008	89 08		 mov	 DWORD PTR [eax], ecx

; 46   : 		this->_Adopt(_Pvector);
; 47   : 		}

  0000a	5d		 pop	 ebp
  0000b	c2 08 00	 ret	 8
??0?$_Vector_const_iterator@V?$_Vector_val@V?$basic_string@DU?$char_traits@D@std@@V?$allocator@D@2@@std@@V?$allocator@V?$basic_string@DU?$char_traits@D@std@@V?$allocator@D@2@@std@@@2@@std@@@std@@QAE@PAV?$basic_string@DU?$char_traits@D@std@@V?$allocator@D@2@@1@PBU_Container_base0@1@@Z ENDP ; std::_Vector_const_iterator<std::_Vector_val<std::basic_string<char,std::char_traits<char>,std::allocator<char> >,std::allocator<std::basic_string<char,std::char_traits<char>,std::allocator<char> > > > >::_Vector_const_iterator<std::_Vector_val<std::basic_string<char,std::char_traits<char>,std::allocator<char> >,std::allocator<std::basic_string<char,std::char_traits<char>,std::allocator<char> > > > >
_TEXT	ENDS
PUBLIC	??8?$_Vector_const_iterator@V?$_Vector_val@V?$basic_string@DU?$char_traits@D@std@@V?$allocator@D@2@@std@@V?$allocator@V?$basic_string@DU?$char_traits@D@std@@V?$allocator@D@2@@std@@@2@@std@@@std@@QBE_NABV01@@Z ; std::_Vector_const_iterator<std::_Vector_val<std::basic_string<char,std::char_traits<char>,std::allocator<char> >,std::allocator<std::basic_string<char,std::char_traits<char>,std::allocator<char> > > > >::operator==
; Function compile flags: /Ogsp
;	COMDAT ??8?$_Vector_const_iterator@V?$_Vector_val@V?$basic_string@DU?$char_traits@D@std@@V?$allocator@D@2@@std@@V?$allocator@V?$basic_string@DU?$char_traits@D@std@@V?$allocator@D@2@@std@@@2@@std@@@std@@QBE_NABV01@@Z
_TEXT	SEGMENT
__Right$ = 8						; size = 4
??8?$_Vector_const_iterator@V?$_Vector_val@V?$basic_string@DU?$char_traits@D@std@@V?$allocator@D@2@@std@@V?$allocator@V?$basic_string@DU?$char_traits@D@std@@V?$allocator@D@2@@std@@@2@@std@@@std@@QBE_NABV01@@Z PROC ; std::_Vector_const_iterator<std::_Vector_val<std::basic_string<char,std::char_traits<char>,std::allocator<char> >,std::allocator<std::basic_string<char,std::char_traits<char>,std::allocator<char> > > > >::operator==, COMDAT
; _this$ = ecx

; 201  : 		{	// test for iterator equality

  00000	55		 push	 ebp
  00001	8b ec		 mov	 ebp, esp

; 202  : 		_Compat(_Right);
; 203  : 		return (this->_Ptr == _Right._Ptr);

  00003	8b 01		 mov	 eax, DWORD PTR [ecx]
  00005	8b 4d 08	 mov	 ecx, DWORD PTR __Right$[ebp]
  00008	2b 01		 sub	 eax, DWORD PTR [ecx]
  0000a	f7 d8		 neg	 eax
  0000c	1b c0		 sbb	 eax, eax
  0000e	40		 inc	 eax

; 204  : 		}

  0000f	5d		 pop	 ebp
  00010	c2 04 00	 ret	 4
??8?$_Vector_const_iterator@V?$_Vector_val@V?$basic_string@DU?$char_traits@D@std@@V?$allocator@D@2@@std@@V?$allocator@V?$basic_string@DU?$char_traits@D@std@@V?$allocator@D@2@@std@@@2@@std@@@std@@QBE_NABV01@@Z ENDP ; std::_Vector_const_iterator<std::_Vector_val<std::basic_string<char,std::char_traits<char>,std::allocator<char> >,std::allocator<std::basic_string<char,std::char_traits<char>,std::allocator<char> > > > >::operator==
_TEXT	ENDS
PUBLIC	??$_Cons_val@V?$allocator@UItemListInfoSort@@@std@@UItemListInfoSort@@AAU3@@std@@YAXAAV?$allocator@UItemListInfoSort@@@0@PAUItemListInfoSort@@AAU2@@Z ; std::_Cons_val<std::allocator<ItemListInfoSort>,ItemListInfoSort,ItemListInfoSort &>
; Function compile flags: /Ogsp
; File c:\program files (x86)\microsoft visual studio 10.0\vc\include\xmemory
;	COMDAT ??$_Cons_val@V?$allocator@UItemListInfoSort@@@std@@UItemListInfoSort@@AAU3@@std@@YAXAAV?$allocator@UItemListInfoSort@@@0@PAUItemListInfoSort@@AAU2@@Z
_TEXT	SEGMENT
__Alval$ = 8						; size = 4
__Pdest$ = 12						; size = 4
__Src$ = 16						; size = 4
??$_Cons_val@V?$allocator@UItemListInfoSort@@@std@@UItemListInfoSort@@AAU3@@std@@YAXAAV?$allocator@UItemListInfoSort@@@0@PAUItemListInfoSort@@AAU2@@Z PROC ; std::_Cons_val<std::allocator<ItemListInfoSort>,ItemListInfoSort,ItemListInfoSort &>, COMDAT

; 279  : 	{	// construct using allocator

  00000	55		 push	 ebp
  00001	8b ec		 mov	 ebp, esp
  00003	57		 push	 edi

; 280  : 	_Alval.construct(_Pdest, _STD forward<_Ty2>(_Src));

  00004	8b 7d 0c	 mov	 edi, DWORD PTR __Pdest$[ebp]
  00007	85 ff		 test	 edi, edi
  00009	74 0a		 je	 SHORT $LN7@Cons_val
  0000b	56		 push	 esi
  0000c	8b 75 10	 mov	 esi, DWORD PTR __Src$[ebp]
  0000f	6a 05		 push	 5
  00011	59		 pop	 ecx
  00012	f3 a5		 rep movsd
  00014	5e		 pop	 esi
$LN7@Cons_val:
  00015	5f		 pop	 edi

; 281  : 	}

  00016	5d		 pop	 ebp
  00017	c3		 ret	 0
??$_Cons_val@V?$allocator@UItemListInfoSort@@@std@@UItemListInfoSort@@AAU3@@std@@YAXAAV?$allocator@UItemListInfoSort@@@0@PAUItemListInfoSort@@AAU2@@Z ENDP ; std::_Cons_val<std::allocator<ItemListInfoSort>,ItemListInfoSort,ItemListInfoSort &>
_TEXT	ENDS
PUBLIC	?construct@?$allocator@UItemListInfoSort@@@std@@QAEXPAUItemListInfoSort@@ABU3@@Z ; std::allocator<ItemListInfoSort>::construct
; Function compile flags: /Ogsp
;	COMDAT ?construct@?$allocator@UItemListInfoSort@@@std@@QAEXPAUItemListInfoSort@@ABU3@@Z
_TEXT	SEGMENT
__Ptr$ = 8						; size = 4
__Val$ = 12						; size = 4
?construct@?$allocator@UItemListInfoSort@@@std@@QAEXPAUItemListInfoSort@@ABU3@@Z PROC ; std::allocator<ItemListInfoSort>::construct, COMDAT
; _this$ = ecx

; 196  : 		{	// construct object at _Ptr with value _Val

  00000	55		 push	 ebp
  00001	8b ec		 mov	 ebp, esp
  00003	57		 push	 edi

; 197  : 		_Construct(_Ptr, _Val);

  00004	8b 7d 08	 mov	 edi, DWORD PTR __Ptr$[ebp]
  00007	85 ff		 test	 edi, edi
  00009	74 0a		 je	 SHORT $LN5@construct@2
  0000b	56		 push	 esi
  0000c	8b 75 0c	 mov	 esi, DWORD PTR __Val$[ebp]
  0000f	6a 05		 push	 5
  00011	59		 pop	 ecx
  00012	f3 a5		 rep movsd
  00014	5e		 pop	 esi
$LN5@construct@2:
  00015	5f		 pop	 edi

; 198  : 		}

  00016	5d		 pop	 ebp
  00017	c2 08 00	 ret	 8
?construct@?$allocator@UItemListInfoSort@@@std@@QAEXPAUItemListInfoSort@@ABU3@@Z ENDP ; std::allocator<ItemListInfoSort>::construct
_TEXT	ENDS
PUBLIC	??G?$_Vector_iterator@V?$_Vector_val@UItemListInfoSort@@V?$allocator@UItemListInfoSort@@@std@@@std@@@std@@QBEHABV?$_Vector_const_iterator@V?$_Vector_val@UItemListInfoSort@@V?$allocator@UItemListInfoSort@@@std@@@std@@@1@@Z ; std::_Vector_iterator<std::_Vector_val<ItemListInfoSort,std::allocator<ItemListInfoSort> > >::operator-
; Function compile flags: /Ogsp
; File c:\program files (x86)\microsoft visual studio 10.0\vc\include\vector
;	COMDAT ??G?$_Vector_iterator@V?$_Vector_val@UItemListInfoSort@@V?$allocator@UItemListInfoSort@@@std@@@std@@@std@@QBEHABV?$_Vector_const_iterator@V?$_Vector_val@UItemListInfoSort@@V?$allocator@UItemListInfoSort@@@std@@@std@@@1@@Z
_TEXT	SEGMENT
__Right$ = 8						; size = 4
??G?$_Vector_iterator@V?$_Vector_val@UItemListInfoSort@@V?$allocator@UItemListInfoSort@@@std@@@std@@@std@@QBEHABV?$_Vector_const_iterator@V?$_Vector_val@UItemListInfoSort@@V?$allocator@UItemListInfoSort@@@std@@@std@@@1@@Z PROC ; std::_Vector_iterator<std::_Vector_val<ItemListInfoSort,std::allocator<ItemListInfoSort> > >::operator-, COMDAT
; _this$ = ecx

; 380  : 		{	// return difference of iterators

  00000	55		 push	 ebp
  00001	8b ec		 mov	 ebp, esp

; 381  : 		return (*(_Mybase *)this - _Right);

  00003	8b 01		 mov	 eax, DWORD PTR [ecx]
  00005	8b 4d 08	 mov	 ecx, DWORD PTR __Right$[ebp]
  00008	2b 01		 sub	 eax, DWORD PTR [ecx]
  0000a	6a 14		 push	 20			; 00000014H
  0000c	99		 cdq
  0000d	59		 pop	 ecx
  0000e	f7 f9		 idiv	 ecx

; 382  : 		}

  00010	5d		 pop	 ebp
  00011	c2 04 00	 ret	 4
??G?$_Vector_iterator@V?$_Vector_val@UItemListInfoSort@@V?$allocator@UItemListInfoSort@@@std@@@std@@@std@@QBEHABV?$_Vector_const_iterator@V?$_Vector_val@UItemListInfoSort@@V?$allocator@UItemListInfoSort@@@std@@@std@@@1@@Z ENDP ; std::_Vector_iterator<std::_Vector_val<ItemListInfoSort,std::allocator<ItemListInfoSort> > >::operator-
_TEXT	ENDS
PUBLIC	??$_Unchecked@V?$_Vector_val@UItemListInfoSort@@V?$allocator@UItemListInfoSort@@@std@@@std@@@std@@YAPAUItemListInfoSort@@V?$_Vector_iterator@V?$_Vector_val@UItemListInfoSort@@V?$allocator@UItemListInfoSort@@@std@@@std@@@0@@Z ; std::_Unchecked<std::_Vector_val<ItemListInfoSort,std::allocator<ItemListInfoSort> > >
; Function compile flags: /Ogsp
;	COMDAT ??$_Unchecked@V?$_Vector_val@UItemListInfoSort@@V?$allocator@UItemListInfoSort@@@std@@@std@@@std@@YAPAUItemListInfoSort@@V?$_Vector_iterator@V?$_Vector_val@UItemListInfoSort@@V?$allocator@UItemListInfoSort@@@std@@@std@@@0@@Z
_TEXT	SEGMENT
__Iter$ = 8						; size = 4
??$_Unchecked@V?$_Vector_val@UItemListInfoSort@@V?$allocator@UItemListInfoSort@@@std@@@std@@@std@@YAPAUItemListInfoSort@@V?$_Vector_iterator@V?$_Vector_val@UItemListInfoSort@@V?$allocator@UItemListInfoSort@@@std@@@std@@@0@@Z PROC ; std::_Unchecked<std::_Vector_val<ItemListInfoSort,std::allocator<ItemListInfoSort> > >, COMDAT

; 393  : 	{	// convert to unchecked

  00000	55		 push	 ebp
  00001	8b ec		 mov	 ebp, esp

; 394  : 	return (_Iter._Unchecked());

  00003	8b 45 08	 mov	 eax, DWORD PTR __Iter$[ebp]

; 395  : 	}

  00006	5d		 pop	 ebp
  00007	c3		 ret	 0
??$_Unchecked@V?$_Vector_val@UItemListInfoSort@@V?$allocator@UItemListInfoSort@@@std@@@std@@@std@@YAPAUItemListInfoSort@@V?$_Vector_iterator@V?$_Vector_val@UItemListInfoSort@@V?$allocator@UItemListInfoSort@@@std@@@std@@@0@@Z ENDP ; std::_Unchecked<std::_Vector_val<ItemListInfoSort,std::allocator<ItemListInfoSort> > >
_TEXT	ENDS
PUBLIC	??$_Move@PAUItemListInfoSort@@PAU1@@std@@YAPAUItemListInfoSort@@PAU1@00U_Nonscalar_ptr_iterator_tag@0@@Z ; std::_Move<ItemListInfoSort *,ItemListInfoSort *>
; Function compile flags: /Ogsp
; File c:\program files (x86)\microsoft visual studio 10.0\vc\include\xutility
;	COMDAT ??$_Move@PAUItemListInfoSort@@PAU1@@std@@YAPAUItemListInfoSort@@PAU1@00U_Nonscalar_ptr_iterator_tag@0@@Z
_TEXT	SEGMENT
__First$ = 8						; size = 4
__Last$ = 12						; size = 4
__Dest$ = 16						; size = 4
___formal$ = 20						; size = 1
??$_Move@PAUItemListInfoSort@@PAU1@@std@@YAPAUItemListInfoSort@@PAU1@00U_Nonscalar_ptr_iterator_tag@0@@Z PROC ; std::_Move<ItemListInfoSort *,ItemListInfoSort *>, COMDAT

; 2512 : 	{	// move [_First, _Last) to [_Dest, ...), arbitrary iterators

  00000	55		 push	 ebp
  00001	8b ec		 mov	 ebp, esp

; 2513 : 	for (; _First != _Last; ++_Dest, ++_First)

  00003	8b 45 08	 mov	 eax, DWORD PTR __First$[ebp]
  00006	3b 45 0c	 cmp	 eax, DWORD PTR __Last$[ebp]
  00009	74 1a		 je	 SHORT $LN10@Move
  0000b	56		 push	 esi
  0000c	57		 push	 edi
$LL3@Move:

; 2514 : 		*_Dest = _STD move(*_First);

  0000d	8b 7d 10	 mov	 edi, DWORD PTR __Dest$[ebp]
  00010	83 45 10 14	 add	 DWORD PTR __Dest$[ebp], 20 ; 00000014H
  00014	8b f0		 mov	 esi, eax
  00016	6a 05		 push	 5
  00018	83 c0 14	 add	 eax, 20			; 00000014H
  0001b	59		 pop	 ecx
  0001c	f3 a5		 rep movsd
  0001e	3b 45 0c	 cmp	 eax, DWORD PTR __Last$[ebp]
  00021	75 ea		 jne	 SHORT $LL3@Move
  00023	5f		 pop	 edi
  00024	5e		 pop	 esi
$LN10@Move:

; 2515 : 	return (_Dest);

  00025	8b 45 10	 mov	 eax, DWORD PTR __Dest$[ebp]

; 2516 : 	}

  00028	5d		 pop	 ebp
  00029	c3		 ret	 0
??$_Move@PAUItemListInfoSort@@PAU1@@std@@YAPAUItemListInfoSort@@PAU1@00U_Nonscalar_ptr_iterator_tag@0@@Z ENDP ; std::_Move<ItemListInfoSort *,ItemListInfoSort *>
_TEXT	ENDS
PUBLIC	?destroy@?$allocator@UItemListInfoSort@@@std@@QAEXPAUItemListInfoSort@@@Z ; std::allocator<ItemListInfoSort>::destroy
; Function compile flags: /Ogsp
; File c:\program files (x86)\microsoft visual studio 10.0\vc\include\xmemory
;	COMDAT ?destroy@?$allocator@UItemListInfoSort@@@std@@QAEXPAUItemListInfoSort@@@Z
_TEXT	SEGMENT
__Ptr$ = 8						; size = 4
?destroy@?$allocator@UItemListInfoSort@@@std@@QAEXPAUItemListInfoSort@@@Z PROC ; std::allocator<ItemListInfoSort>::destroy, COMDAT
; _this$ = ecx

; 213  : 		_Destroy(_Ptr);
; 214  : 		}

  00000	c2 04 00	 ret	 4
?destroy@?$allocator@UItemListInfoSort@@@std@@QAEXPAUItemListInfoSort@@@Z ENDP ; std::allocator<ItemListInfoSort>::destroy
_TEXT	ENDS
PUBLIC	??$?0AAPAUItemListInfoSort@@AAPAU0@@?$pair@PAUItemListInfoSort@@PAU1@@std@@QAE@AAPAUItemListInfoSort@@0@Z ; std::pair<ItemListInfoSort *,ItemListInfoSort *>::pair<ItemListInfoSort *,ItemListInfoSort *><ItemListInfoSort * &,ItemListInfoSort * &>
; Function compile flags: /Ogsp
; File c:\program files (x86)\microsoft visual studio 10.0\vc\include\utility
;	COMDAT ??$?0AAPAUItemListInfoSort@@AAPAU0@@?$pair@PAUItemListInfoSort@@PAU1@@std@@QAE@AAPAUItemListInfoSort@@0@Z
_TEXT	SEGMENT
__Val1$ = 8						; size = 4
__Val2$ = 12						; size = 4
??$?0AAPAUItemListInfoSort@@AAPAU0@@?$pair@PAUItemListInfoSort@@PAU1@@std@@QAE@AAPAUItemListInfoSort@@0@Z PROC ; std::pair<ItemListInfoSort *,ItemListInfoSort *>::pair<ItemListInfoSort *,ItemListInfoSort *><ItemListInfoSort * &,ItemListInfoSort * &>, COMDAT
; _this$ = ecx

; 247  : 		{	// construct from moved values

  00000	55		 push	 ebp
  00001	8b ec		 mov	 ebp, esp
  00003	8b c1		 mov	 eax, ecx
  00005	8b 4d 08	 mov	 ecx, DWORD PTR __Val1$[ebp]
  00008	8b 09		 mov	 ecx, DWORD PTR [ecx]
  0000a	89 08		 mov	 DWORD PTR [eax], ecx
  0000c	8b 4d 0c	 mov	 ecx, DWORD PTR __Val2$[ebp]
  0000f	8b 09		 mov	 ecx, DWORD PTR [ecx]
  00011	89 48 04	 mov	 DWORD PTR [eax+4], ecx

; 248  : 		}

  00014	5d		 pop	 ebp
  00015	c2 08 00	 ret	 8
??$?0AAPAUItemListInfoSort@@AAPAU0@@?$pair@PAUItemListInfoSort@@PAU1@@std@@QAE@AAPAUItemListInfoSort@@0@Z ENDP ; std::pair<ItemListInfoSort *,ItemListInfoSort *>::pair<ItemListInfoSort *,ItemListInfoSort *><ItemListInfoSort * &,ItemListInfoSort * &>
_TEXT	ENDS
PUBLIC	?construct@?$allocator@UItemListInfoSort@@@std@@QAEXPAUItemListInfoSort@@$$QAU3@@Z ; std::allocator<ItemListInfoSort>::construct
; Function compile flags: /Ogsp
; File c:\program files (x86)\microsoft visual studio 10.0\vc\include\xmemory
;	COMDAT ?construct@?$allocator@UItemListInfoSort@@@std@@QAEXPAUItemListInfoSort@@$$QAU3@@Z
_TEXT	SEGMENT
__Ptr$ = 8						; size = 4
__Val$ = 12						; size = 4
?construct@?$allocator@UItemListInfoSort@@@std@@QAEXPAUItemListInfoSort@@$$QAU3@@Z PROC ; std::allocator<ItemListInfoSort>::construct, COMDAT
; _this$ = ecx

; 201  : 		{	// construct object at _Ptr with value _Val

  00000	55		 push	 ebp
  00001	8b ec		 mov	 ebp, esp
  00003	57		 push	 edi

; 202  : 		::new ((void _FARQ *)_Ptr) _Ty(_STD forward<_Ty>(_Val));

  00004	8b 7d 08	 mov	 edi, DWORD PTR __Ptr$[ebp]
  00007	85 ff		 test	 edi, edi
  00009	74 0a		 je	 SHORT $LN3@construct@3
  0000b	56		 push	 esi
  0000c	8b 75 0c	 mov	 esi, DWORD PTR __Val$[ebp]
  0000f	6a 05		 push	 5
  00011	59		 pop	 ecx
  00012	f3 a5		 rep movsd
  00014	5e		 pop	 esi
$LN3@construct@3:
  00015	5f		 pop	 edi

; 203  : 		}

  00016	5d		 pop	 ebp
  00017	c2 08 00	 ret	 8
?construct@?$allocator@UItemListInfoSort@@@std@@QAEXPAUItemListInfoSort@@$$QAU3@@Z ENDP ; std::allocator<ItemListInfoSort>::construct
_TEXT	ENDS
PUBLIC	??$swap@UItemListInfoSort@@@std@@YAXAAUItemListInfoSort@@0@Z ; std::swap<ItemListInfoSort>
; Function compile flags: /Ogsp
; File c:\program files (x86)\microsoft visual studio 10.0\vc\include\utility
;	COMDAT ??$swap@UItemListInfoSort@@@std@@YAXAAUItemListInfoSort@@0@Z
_TEXT	SEGMENT
__Tmp$ = -20						; size = 20
__Left$ = 8						; size = 4
__Right$ = 12						; size = 4
??$swap@UItemListInfoSort@@@std@@YAXAAUItemListInfoSort@@0@Z PROC ; std::swap<ItemListInfoSort>, COMDAT

; 101  : 	{	// exchange values stored at _Left and _Right

  00000	55		 push	 ebp
  00001	8b ec		 mov	 ebp, esp
  00003	83 ec 14	 sub	 esp, 20			; 00000014H
  00006	56		 push	 esi

; 102  : 	_Ty _Tmp = _Move(_Left);

  00007	8b 75 08	 mov	 esi, DWORD PTR __Left$[ebp]
  0000a	57		 push	 edi
  0000b	6a 05		 push	 5
  0000d	59		 pop	 ecx

; 103  : 	_Left = _Move(_Right);

  0000e	6a 05		 push	 5
  00010	8d 7d ec	 lea	 edi, DWORD PTR __Tmp$[ebp]
  00013	f3 a5		 rep movsd
  00015	8b 75 0c	 mov	 esi, DWORD PTR __Right$[ebp]
  00018	8b 7d 08	 mov	 edi, DWORD PTR __Left$[ebp]
  0001b	59		 pop	 ecx
  0001c	f3 a5		 rep movsd

; 104  : 	_Right = _Move(_Tmp);

  0001e	8b 7d 0c	 mov	 edi, DWORD PTR __Right$[ebp]
  00021	6a 05		 push	 5
  00023	59		 pop	 ecx
  00024	8d 75 ec	 lea	 esi, DWORD PTR __Tmp$[ebp]
  00027	f3 a5		 rep movsd
  00029	5f		 pop	 edi
  0002a	5e		 pop	 esi

; 105  : 	}

  0002b	c9		 leave
  0002c	c3		 ret	 0
??$swap@UItemListInfoSort@@@std@@YAXAAUItemListInfoSort@@0@Z ENDP ; std::swap<ItemListInfoSort>
_TEXT	ENDS
PUBLIC	??$_Adjust_heap@PAUItemListInfoSort@@HU1@VShopExtraItemSort@@@std@@YAXPAUItemListInfoSort@@HH$$QAU1@VShopExtraItemSort@@@Z ; std::_Adjust_heap<ItemListInfoSort *,int,ItemListInfoSort,ShopExtraItemSort>
; Function compile flags: /Ogsp
; File c:\program files (x86)\microsoft visual studio 10.0\vc\include\algorithm
;	COMDAT ??$_Adjust_heap@PAUItemListInfoSort@@HU1@VShopExtraItemSort@@@std@@YAXPAUItemListInfoSort@@HH$$QAU1@VShopExtraItemSort@@@Z
_TEXT	SEGMENT
__First$ = 8						; size = 4
__Top$ = 12						; size = 4
__Hole$ = 12						; size = 4
__Bottom$ = 16						; size = 4
__Val$ = 20						; size = 4
__Pred$ = 24						; size = 1
??$_Adjust_heap@PAUItemListInfoSort@@HU1@VShopExtraItemSort@@@std@@YAXPAUItemListInfoSort@@HH$$QAU1@VShopExtraItemSort@@@Z PROC ; std::_Adjust_heap<ItemListInfoSort *,int,ItemListInfoSort,ShopExtraItemSort>, COMDAT

; 2565 : 	{	// percolate _Hole to _Bottom, then push _Val, using _Pred

  00000	55		 push	 ebp
  00001	8b ec		 mov	 ebp, esp

; 2566 : 	_Diff _Top = _Hole;
; 2567 : 	_Diff _Idx = 2 * _Hole + 2;
; 2568 : 
; 2569 : 	for (; _Idx < _Bottom; _Idx = 2 * _Idx + 2)

  00003	8b 55 08	 mov	 edx, DWORD PTR __First$[ebp]
  00006	53		 push	 ebx
  00007	56		 push	 esi
  00008	57		 push	 edi
  00009	8b 7d 0c	 mov	 edi, DWORD PTR __Hole$[ebp]
  0000c	89 7d 0c	 mov	 DWORD PTR __Top$[ebp], edi
  0000f	8d 44 3f 02	 lea	 eax, DWORD PTR [edi+edi+2]
  00013	eb 32		 jmp	 SHORT $LN23@Adjust_hea
$LL5@Adjust_hea:

; 2570 : 		{	// move _Hole down to larger child
; 2571 : 		if (_DEBUG_LT_PRED(_Pred, *(_First + _Idx), *(_First + (_Idx - 1))))

  00015	8b c8		 mov	 ecx, eax
  00017	6b c9 14	 imul	 ecx, 20			; 00000014H
  0001a	03 ca		 add	 ecx, edx
  0001c	8b 71 08	 mov	 esi, DWORD PTR [ecx+8]
  0001f	8b 59 f4	 mov	 ebx, DWORD PTR [ecx-12]
  00022	3b f3		 cmp	 esi, ebx
  00024	7f 09		 jg	 SHORT $LN21@Adjust_hea
  00026	75 08		 jne	 SHORT $LN2@Adjust_hea
  00028	8b 31		 mov	 esi, DWORD PTR [ecx]
  0002a	3b 71 ec	 cmp	 esi, DWORD PTR [ecx-20]
  0002d	7e 01		 jle	 SHORT $LN2@Adjust_hea
$LN21@Adjust_hea:

; 2572 : 			--_Idx;

  0002f	48		 dec	 eax
$LN2@Adjust_hea:

; 2573 : 		*(_First + _Hole) = _Move(*(_First + _Idx));

  00030	8b f0		 mov	 esi, eax
  00032	6b ff 14	 imul	 edi, 20			; 00000014H
  00035	6b f6 14	 imul	 esi, 20			; 00000014H
  00038	03 f2		 add	 esi, edx
  0003a	6a 05		 push	 5
  0003c	03 fa		 add	 edi, edx
  0003e	59		 pop	 ecx
  0003f	f3 a5		 rep movsd

; 2574 : 		_Hole = _Idx;

  00041	8b f8		 mov	 edi, eax
  00043	8d 44 00 02	 lea	 eax, DWORD PTR [eax+eax+2]
$LN23@Adjust_hea:

; 2566 : 	_Diff _Top = _Hole;
; 2567 : 	_Diff _Idx = 2 * _Hole + 2;
; 2568 : 
; 2569 : 	for (; _Idx < _Bottom; _Idx = 2 * _Idx + 2)

  00047	8b 5d 10	 mov	 ebx, DWORD PTR __Bottom$[ebp]
  0004a	3b c3		 cmp	 eax, ebx
  0004c	7c c7		 jl	 SHORT $LL5@Adjust_hea

; 2575 : 		}
; 2576 : 
; 2577 : 	if (_Idx == _Bottom)

  0004e	75 16		 jne	 SHORT $LN1@Adjust_hea

; 2578 : 		{	// only child at bottom, move _Hole down to it
; 2579 : 		*(_First + _Hole) = _Move(*(_First + (_Bottom - 1)));

  00050	8b c3		 mov	 eax, ebx
  00052	6b ff 14	 imul	 edi, 20			; 00000014H
  00055	6b c0 14	 imul	 eax, 20			; 00000014H
  00058	6a 05		 push	 5
  0005a	03 fa		 add	 edi, edx
  0005c	8d 74 10 ec	 lea	 esi, DWORD PTR [eax+edx-20]
  00060	59		 pop	 ecx
  00061	f3 a5		 rep movsd

; 2580 : 		_Hole = _Bottom - 1;

  00063	8d 7b ff	 lea	 edi, DWORD PTR [ebx-1]
$LN1@Adjust_hea:

; 2581 : 		}
; 2582 : 	_Push_heap(_First, _Hole, _Top, _Move(_Val), _Pred);

  00066	ff 75 18	 push	 DWORD PTR __Pred$[ebp]
  00069	ff 75 14	 push	 DWORD PTR __Val$[ebp]
  0006c	ff 75 0c	 push	 DWORD PTR __Top$[ebp]
  0006f	57		 push	 edi
  00070	52		 push	 edx
  00071	e8 00 00 00 00	 call	 ??$_Push_heap@PAUItemListInfoSort@@HU1@VShopExtraItemSort@@@std@@YAXPAUItemListInfoSort@@HH$$QAU1@VShopExtraItemSort@@@Z ; std::_Push_heap<ItemListInfoSort *,int,ItemListInfoSort,ShopExtraItemSort>
  00076	83 c4 14	 add	 esp, 20			; 00000014H
  00079	5f		 pop	 edi
  0007a	5e		 pop	 esi
  0007b	5b		 pop	 ebx

; 2583 : 	}

  0007c	5d		 pop	 ebp
  0007d	c3		 ret	 0
??$_Adjust_heap@PAUItemListInfoSort@@HU1@VShopExtraItemSort@@@std@@YAXPAUItemListInfoSort@@HH$$QAU1@VShopExtraItemSort@@@Z ENDP ; std::_Adjust_heap<ItemListInfoSort *,int,ItemListInfoSort,ShopExtraItemSort>
_TEXT	ENDS
PUBLIC	??$_Move_backward@PAUItemListInfoSort@@PAU1@@std@@YAPAUItemListInfoSort@@PAU1@00@Z ; std::_Move_backward<ItemListInfoSort *,ItemListInfoSort *>
; Function compile flags: /Ogsp
; File c:\program files (x86)\microsoft visual studio 10.0\vc\include\xutility
;	COMDAT ??$_Move_backward@PAUItemListInfoSort@@PAU1@@std@@YAPAUItemListInfoSort@@PAU1@00@Z
_TEXT	SEGMENT
__Cat$508777 = -4					; size = 1
__First$ = 8						; size = 4
__Last$ = 12						; size = 4
__Dest$ = 16						; size = 4
??$_Move_backward@PAUItemListInfoSort@@PAU1@@std@@YAPAUItemListInfoSort@@PAU1@00@Z PROC ; std::_Move_backward<ItemListInfoSort *,ItemListInfoSort *>, COMDAT

; 2638 : 	{	// move [_First, _Last) backwards to [..., _Dest), unchecked

  00000	55		 push	 ebp
  00001	8b ec		 mov	 ebp, esp
  00003	51		 push	 ecx

; 2639 : 	return (_Move_backward(_First, _Last,
; 2640 : 		_Dest, _Ptr_cat(_First, _Dest)));

  00004	ff 75 fc	 push	 DWORD PTR __Cat$508777[ebp]
  00007	ff 75 10	 push	 DWORD PTR __Dest$[ebp]
  0000a	ff 75 0c	 push	 DWORD PTR __Last$[ebp]
  0000d	ff 75 08	 push	 DWORD PTR __First$[ebp]
  00010	e8 00 00 00 00	 call	 ??$_Move_backward@PAUItemListInfoSort@@PAU1@@std@@YAPAUItemListInfoSort@@PAU1@00U_Nonscalar_ptr_iterator_tag@0@@Z ; std::_Move_backward<ItemListInfoSort *,ItemListInfoSort *>
  00015	83 c4 10	 add	 esp, 16			; 00000010H

; 2641 : 	}

  00018	c9		 leave
  00019	c3		 ret	 0
??$_Move_backward@PAUItemListInfoSort@@PAU1@@std@@YAPAUItemListInfoSort@@PAU1@00@Z ENDP ; std::_Move_backward<ItemListInfoSort *,ItemListInfoSort *>
_TEXT	ENDS
PUBLIC	??$_Pop_heap@PAUItemListInfoSort@@HU1@VShopExtraItemSort@@@std@@YAXPAUItemListInfoSort@@00$$QAU1@VShopExtraItemSort@@PAH@Z ; std::_Pop_heap<ItemListInfoSort *,int,ItemListInfoSort,ShopExtraItemSort>
; Function compile flags: /Ogsp
; File c:\program files (x86)\microsoft visual studio 10.0\vc\include\algorithm
;	COMDAT ??$_Pop_heap@PAUItemListInfoSort@@HU1@VShopExtraItemSort@@@std@@YAXPAUItemListInfoSort@@00$$QAU1@VShopExtraItemSort@@PAH@Z
_TEXT	SEGMENT
__First$ = 8						; size = 4
__Last$ = 12						; size = 4
__Dest$ = 16						; size = 4
__Val$ = 20						; size = 4
__Pred$ = 24						; size = 1
___formal$ = 28						; size = 4
??$_Pop_heap@PAUItemListInfoSort@@HU1@VShopExtraItemSort@@@std@@YAXPAUItemListInfoSort@@00$$QAU1@VShopExtraItemSort@@PAH@Z PROC ; std::_Pop_heap<ItemListInfoSort *,int,ItemListInfoSort,ShopExtraItemSort>, COMDAT

; 2591 : 	{	// pop *_First to *_Dest and reheap, using _Pred

  00000	55		 push	 ebp
  00001	8b ec		 mov	 ebp, esp

; 2592 : 	*_Dest = _Move(*_First);
; 2593 : 	_Adjust_heap(_First, _Diff(0), _Diff(_Last - _First),
; 2594 : 		_Move(_Val), _Pred);

  00003	8b 45 0c	 mov	 eax, DWORD PTR __Last$[ebp]
  00006	2b 45 08	 sub	 eax, DWORD PTR __First$[ebp]
  00009	56		 push	 esi
  0000a	8b 75 08	 mov	 esi, DWORD PTR __First$[ebp]
  0000d	57		 push	 edi
  0000e	8b 7d 10	 mov	 edi, DWORD PTR __Dest$[ebp]
  00011	6a 05		 push	 5
  00013	59		 pop	 ecx
  00014	ff 75 18	 push	 DWORD PTR __Pred$[ebp]
  00017	f3 a5		 rep movsd
  00019	ff 75 14	 push	 DWORD PTR __Val$[ebp]
  0001c	99		 cdq
  0001d	6a 14		 push	 20			; 00000014H
  0001f	59		 pop	 ecx
  00020	f7 f9		 idiv	 ecx
  00022	50		 push	 eax
  00023	6a 00		 push	 0
  00025	ff 75 08	 push	 DWORD PTR __First$[ebp]
  00028	e8 00 00 00 00	 call	 ??$_Adjust_heap@PAUItemListInfoSort@@HU1@VShopExtraItemSort@@@std@@YAXPAUItemListInfoSort@@HH$$QAU1@VShopExtraItemSort@@@Z ; std::_Adjust_heap<ItemListInfoSort *,int,ItemListInfoSort,ShopExtraItemSort>
  0002d	83 c4 14	 add	 esp, 20			; 00000014H
  00030	5f		 pop	 edi
  00031	5e		 pop	 esi

; 2595 : 	}

  00032	5d		 pop	 ebp
  00033	c3		 ret	 0
??$_Pop_heap@PAUItemListInfoSort@@HU1@VShopExtraItemSort@@@std@@YAXPAUItemListInfoSort@@00$$QAU1@VShopExtraItemSort@@PAH@Z ENDP ; std::_Pop_heap<ItemListInfoSort *,int,ItemListInfoSort,ShopExtraItemSort>
_TEXT	ENDS
PUBLIC	?c_str@?$basic_string@DU?$char_traits@D@std@@V?$allocator@D@2@@std@@QBEPBDXZ ; std::basic_string<char,std::char_traits<char>,std::allocator<char> >::c_str
; Function compile flags: /Ogsp
; File c:\program files (x86)\microsoft visual studio 10.0\vc\include\xstring
;	COMDAT ?c_str@?$basic_string@DU?$char_traits@D@std@@V?$allocator@D@2@@std@@QBEPBDXZ
_TEXT	SEGMENT
?c_str@?$basic_string@DU?$char_traits@D@std@@V?$allocator@D@2@@std@@QBEPBDXZ PROC ; std::basic_string<char,std::char_traits<char>,std::allocator<char> >::c_str, COMDAT
; _this$ = ecx

; 1497 : 		return (_Myptr());

  00000	83 79 14 10	 cmp	 DWORD PTR [ecx+20], 16	; 00000010H
  00004	72 03		 jb	 SHORT $LN5@c_str
  00006	8b 01		 mov	 eax, DWORD PTR [ecx]

; 1498 : 		}

  00008	c3		 ret	 0

; 1497 : 		return (_Myptr());

$LN5@c_str:
  00009	8b c1		 mov	 eax, ecx

; 1498 : 		}

  0000b	c3		 ret	 0
?c_str@?$basic_string@DU?$char_traits@D@std@@V?$allocator@D@2@@std@@QBEPBDXZ ENDP ; std::basic_string<char,std::char_traits<char>,std::allocator<char> >::c_str
_TEXT	ENDS
PUBLIC	??0?$_String_val@DV?$allocator@D@std@@@std@@QAE@V?$allocator@D@1@@Z ; std::_String_val<char,std::allocator<char> >::_String_val<char,std::allocator<char> >
; Function compile flags: /Ogsp
;	COMDAT ??0?$_String_val@DV?$allocator@D@std@@@std@@QAE@V?$allocator@D@1@@Z
_TEXT	SEGMENT
__Al$ = 8						; size = 1
??0?$_String_val@DV?$allocator@D@std@@@std@@QAE@V?$allocator@D@1@@Z PROC ; std::_String_val<char,std::allocator<char> >::_String_val<char,std::allocator<char> >, COMDAT
; _this$ = ecx

; 454  : 		{	// construct allocator from _Al

  00000	8b c1		 mov	 eax, ecx

; 455  : 		}

  00002	c2 04 00	 ret	 4
??0?$_String_val@DV?$allocator@D@std@@@std@@QAE@V?$allocator@D@1@@Z ENDP ; std::_String_val<char,std::allocator<char> >::_String_val<char,std::allocator<char> >
_TEXT	ENDS
PUBLIC	?_Eos@?$basic_string@DU?$char_traits@D@std@@V?$allocator@D@2@@std@@QAEXI@Z ; std::basic_string<char,std::char_traits<char>,std::allocator<char> >::_Eos
; Function compile flags: /Ogsp
;	COMDAT ?_Eos@?$basic_string@DU?$char_traits@D@std@@V?$allocator@D@2@@std@@QAEXI@Z
_TEXT	SEGMENT
__Newsize$ = 8						; size = 4
?_Eos@?$basic_string@DU?$char_traits@D@std@@V?$allocator@D@2@@std@@QAEXI@Z PROC ; std::basic_string<char,std::char_traits<char>,std::allocator<char> >::_Eos, COMDAT
; _this$ = ecx

; 1953 : 		{	// set new length and null terminator

  00000	55		 push	 ebp
  00001	8b ec		 mov	 ebp, esp

; 1954 : 		_Traits::assign(_Myptr()[this->_Mysize = _Newsize], _Elem());

  00003	83 79 14 10	 cmp	 DWORD PTR [ecx+20], 16	; 00000010H
  00007	8b 45 08	 mov	 eax, DWORD PTR __Newsize$[ebp]
  0000a	89 41 10	 mov	 DWORD PTR [ecx+16], eax
  0000d	72 02		 jb	 SHORT $LN5@Eos
  0000f	8b 09		 mov	 ecx, DWORD PTR [ecx]
$LN5@Eos:
  00011	c6 04 01 00	 mov	 BYTE PTR [ecx+eax], 0

; 1955 : 		}

  00015	5d		 pop	 ebp
  00016	c2 04 00	 ret	 4
?_Eos@?$basic_string@DU?$char_traits@D@std@@V?$allocator@D@2@@std@@QAEXI@Z ENDP ; std::basic_string<char,std::char_traits<char>,std::allocator<char> >::_Eos
_TEXT	ENDS
PUBLIC	?max_size@?$basic_string@DU?$char_traits@D@std@@V?$allocator@D@2@@std@@QBEIXZ ; std::basic_string<char,std::char_traits<char>,std::allocator<char> >::max_size
; Function compile flags: /Ogsp
;	COMDAT ?max_size@?$basic_string@DU?$char_traits@D@std@@V?$allocator@D@2@@std@@QBEIXZ
_TEXT	SEGMENT
?max_size@?$basic_string@DU?$char_traits@D@std@@V?$allocator@D@2@@std@@QBEIXZ PROC ; std::basic_string<char,std::char_traits<char>,std::allocator<char> >::max_size, COMDAT
; _this$ = ecx

; 1517 : 		size_type _Num = this->_Alval.max_size();
; 1518 : 		return (_Num <= 1 ? 1 : _Num - 1);

  00000	6a fe		 push	 -2			; fffffffeH
  00002	58		 pop	 eax

; 1519 : 		}

  00003	c3		 ret	 0
?max_size@?$basic_string@DU?$char_traits@D@std@@V?$allocator@D@2@@std@@QBEIXZ ENDP ; std::basic_string<char,std::char_traits<char>,std::allocator<char> >::max_size
_TEXT	ENDS
PUBLIC	?allocate@?$allocator@D@std@@QAEPADI@Z		; std::allocator<char>::allocate
; Function compile flags: /Ogsp
; File c:\program files (x86)\microsoft visual studio 10.0\vc\include\xmemory
;	COMDAT ?allocate@?$allocator@D@std@@QAEPADI@Z
_TEXT	SEGMENT
__Count$ = 8						; size = 4
?allocate@?$allocator@D@std@@QAEPADI@Z PROC		; std::allocator<char>::allocate, COMDAT
; _this$ = ecx

; 186  : 		{	// allocate array of _Count elements

  00000	55		 push	 ebp
  00001	8b ec		 mov	 ebp, esp

; 187  : 		return (_Allocate(_Count, (pointer)0));

  00003	6a 00		 push	 0
  00005	ff 75 08	 push	 DWORD PTR __Count$[ebp]
  00008	e8 00 00 00 00	 call	 ??$_Allocate@D@std@@YAPADIPAD@Z ; std::_Allocate<char>
  0000d	59		 pop	 ecx
  0000e	59		 pop	 ecx

; 188  : 		}

  0000f	5d		 pop	 ebp
  00010	c2 04 00	 ret	 4
?allocate@?$allocator@D@std@@QAEPADI@Z ENDP		; std::allocator<char>::allocate
_TEXT	ENDS
PUBLIC	??$?9DD@std@@YA_NABV?$allocator@D@0@0@Z		; std::operator!=<char,char>
; Function compile flags: /Ogsp
;	COMDAT ??$?9DD@std@@YA_NABV?$allocator@D@0@0@Z
_TEXT	SEGMENT
__Left$ = 8						; size = 4
__Right$ = 12						; size = 4
??$?9DD@std@@YA_NABV?$allocator@D@0@0@Z PROC		; std::operator!=<char,char>, COMDAT

; 271  : 	return (!(_Left == _Right));

  00000	32 c0		 xor	 al, al

; 272  : 	}

  00002	c3		 ret	 0
??$?9DD@std@@YA_NABV?$allocator@D@0@0@Z ENDP		; std::operator!=<char,char>
_TEXT	ENDS
PUBLIC	__real@42d00000
PUBLIC	?OnRender@ItemListIconBtn@@MAEXXZ		; ItemListIconBtn::OnRender
EXTRN	__imp_?PrintTextWidthCut@ioFontManager@@QAAXMMMMPBDZZ:PROC
EXTRN	__imp_?OnRender@ioButton@@MAEXXZ:PROC
;	COMDAT __real@42d00000
; File c:\program files (x86)\microsoft visual studio 10.0\vc\include\xstring
CONST	SEGMENT
__real@42d00000 DD 042d00000r			; 104
; Function compile flags: /Ogsp
; File d:\lost saga for developer\youtube\tutorial\source\src\lsclient\gui\ioextraitemlistwnd.cpp
CONST	ENDS
;	COMDAT ?OnRender@ItemListIconBtn@@MAEXXZ
_TEXT	SEGMENT
tv244 = -20						; size = 4
tv251 = -16						; size = 4
_iYPos$ = -12						; size = 4
tv166 = -8						; size = 4
tv290 = -4						; size = 4
_iXPos$ = -4						; size = 4
?OnRender@ItemListIconBtn@@MAEXXZ PROC			; ItemListIconBtn::OnRender, COMDAT
; _this$ = ecx

; 44   : {

  00000	55		 push	 ebp
  00001	8b ec		 mov	 ebp, esp
  00003	83 ec 14	 sub	 esp, 20			; 00000014H
  00006	53		 push	 ebx
  00007	56		 push	 esi
  00008	57		 push	 edi
  00009	8b f9		 mov	 edi, ecx

; 45   : 	NewShopIconBtn::OnRender();

  0000b	ff 15 00 00 00
	00		 call	 DWORD PTR __imp_?OnRender@ioButton@@MAEXXZ

; 46   : 
; 47   : 	int iXPos = GetDerivedPosX();

  00011	8b cf		 mov	 ecx, edi
  00013	ff 15 00 00 00
	00		 call	 DWORD PTR __imp_?GetDerivedPosX@ioWnd@@QBEHXZ

; 48   : 	int iYPos = GetDerivedPosY();

  00019	8b cf		 mov	 ecx, edi
  0001b	89 45 fc	 mov	 DWORD PTR _iXPos$[ebp], eax
  0001e	ff 15 00 00 00
	00		 call	 DWORD PTR __imp_?GetDerivedPosY@ioWnd@@QBEHXZ

; 49   : 
; 50   : 	g_FontMgr.SetTextStyle( TS_NORMAL );

  00024	8b 35 00 00 00
	00		 mov	 esi, DWORD PTR __imp_?GetSingleton@ioFontManager@@SAAAV1@XZ
  0002a	33 db		 xor	 ebx, ebx
  0002c	53		 push	 ebx
  0002d	89 45 f4	 mov	 DWORD PTR _iYPos$[ebp], eax
  00030	ff d6		 call	 esi
  00032	8b c8		 mov	 ecx, eax
  00034	ff 15 00 00 00
	00		 call	 DWORD PTR __imp_?SetTextStyle@ioFontManager@@QAEXW4TextStyle@@@Z

; 51   : 	g_FontMgr.SetBkColor( 0, 0, 0 );

  0003a	53		 push	 ebx
  0003b	53		 push	 ebx
  0003c	53		 push	 ebx
  0003d	ff d6		 call	 esi
  0003f	8b c8		 mov	 ecx, eax
  00041	ff 15 00 00 00
	00		 call	 DWORD PTR __imp_?SetBkColor@ioFontManager@@QAEXHHH@Z

; 52   : 	g_FontMgr.SetAlignType( TAT_CENTER );

  00047	6a 01		 push	 1
  00049	ff d6		 call	 esi
  0004b	8b c8		 mov	 ecx, eax
  0004d	ff 15 00 00 00
	00		 call	 DWORD PTR __imp_?SetAlignType@ioFontManager@@QAEXW4TextAlignType@@@Z

; 53   : 	g_FontMgr.SetTextColor( TCT_DEFAULT_DARKGRAY );

  00053	68 3a 3a 3a ff	 push	 -12961222		; ff3a3a3aH
  00058	ff d6		 call	 esi
  0005a	8b c8		 mov	 ecx, eax
  0005c	ff 15 00 00 00
	00		 call	 DWORD PTR __imp_?SetTextColor@ioFontManager@@QAEXK@Z

; 54   : 	/*
; 55   : 	int iCheckNum = m_iItemCode % 10000;
; 56   : 	if( iCheckNum > 1000 )
; 57   : 		g_FontMgr.SetTextColor( TCT_DEFAULT_BLUE );
; 58   : 	*/
; 59   : 
; 60   : 	enum { X_TEXT_OFFSET = 32, Y_TEXT_OFFSET = 79, Y_OFFSET_LING_GAP = 18, Y_TEXT_OFFSET_ADD = -8, Y_OFFSET_LING_GAP_ADD = -4,  };
; 61   : 
; 62   : 	int iYAdd    = 0;
; 63   : 	int iYGapAdd = 0;
; 64   : 	int iSize = m_szNameList.size();

  00062	8b 87 70 02 00
	00		 mov	 eax, DWORD PTR [edi+624]
  00068	2b 87 6c 02 00
	00		 sub	 eax, DWORD PTR [edi+620]
  0006e	6a 1c		 push	 28			; 0000001cH
  00070	99		 cdq
  00071	5b		 pop	 ebx
  00072	f7 fb		 idiv	 ebx
  00074	33 c9		 xor	 ecx, ecx

; 65   : 	if( iSize >= 2 )

  00076	83 f8 02	 cmp	 eax, 2
  00079	7c 08		 jl	 SHORT $LN20@OnRender@2

; 66   : 	{
; 67   : 		iYAdd    = Y_TEXT_OFFSET_ADD;

  0007b	6a f8		 push	 -8			; fffffff8H
  0007d	59		 pop	 ecx

; 68   : 		iYGapAdd = Y_OFFSET_LING_GAP_ADD; 

  0007e	6a fc		 push	 -4			; fffffffcH
  00080	5a		 pop	 edx
  00081	eb 02		 jmp	 SHORT $LN4@OnRender@2
$LN20@OnRender@2:
  00083	8b d1		 mov	 edx, ecx
$LN4@OnRender@2:

; 69   : 	}
; 70   : 
; 71   : 	for(int i = 0;i < iSize;i++)

  00085	85 c0		 test	 eax, eax
  00087	0f 8e 86 00 00
	00		 jle	 $LN1@OnRender@2
  0008d	8b 5d fc	 mov	 ebx, DWORD PTR _iXPos$[ebp]
  00090	83 65 fc 00	 and	 DWORD PTR tv290[ebp], 0
  00094	83 c3 20	 add	 ebx, 32			; 00000020H
  00097	83 c2 12	 add	 edx, 18			; 00000012H
  0009a	89 55 ec	 mov	 DWORD PTR tv244[ebp], edx
  0009d	8b 55 f4	 mov	 edx, DWORD PTR _iYPos$[ebp]
  000a0	0f 57 c0	 xorps	 xmm0, xmm0
  000a3	f3 0f 2a c3	 cvtsi2ss xmm0, ebx
  000a7	f3 0f 11 45 f0	 movss	 DWORD PTR tv251[ebp], xmm0
  000ac	8d 5c 11 4f	 lea	 ebx, DWORD PTR [ecx+edx+79]
  000b0	89 45 f8	 mov	 DWORD PTR tv166[ebp], eax
$LL19@OnRender@2:

; 72   : 	{
; 73   : 		g_FontMgr.PrintTextWidthCut( iXPos+X_TEXT_OFFSET, iYPos+Y_TEXT_OFFSET+iYAdd+( i*(Y_OFFSET_LING_GAP+iYGapAdd) ), FONT_SIZE_13, 104.0f, m_szNameList[i].c_str() );

  000b3	8b 87 6c 02 00
	00		 mov	 eax, DWORD PTR [edi+620]
  000b9	03 45 fc	 add	 eax, DWORD PTR tv290[ebp]
  000bc	83 78 14 10	 cmp	 DWORD PTR [eax+20], 16	; 00000010H
  000c0	72 02		 jb	 SHORT $LN15@OnRender@2
  000c2	8b 00		 mov	 eax, DWORD PTR [eax]
$LN15@OnRender@2:
  000c4	f3 0f 10 05 00
	00 00 00	 movss	 xmm0, DWORD PTR __real@42d00000
  000cc	50		 push	 eax
  000cd	83 ec 10	 sub	 esp, 16			; 00000010H
  000d0	f3 0f 11 44 24
	0c		 movss	 DWORD PTR [esp+12], xmm0
  000d6	f3 0f 10 05 00
	00 00 00	 movss	 xmm0, DWORD PTR __real@3f266666
  000de	f3 0f 11 44 24
	08		 movss	 DWORD PTR [esp+8], xmm0
  000e4	0f 57 c0	 xorps	 xmm0, xmm0
  000e7	f3 0f 2a c3	 cvtsi2ss xmm0, ebx
  000eb	f3 0f 11 44 24
	04		 movss	 DWORD PTR [esp+4], xmm0
  000f1	f3 0f 10 45 f0	 movss	 xmm0, DWORD PTR tv251[ebp]
  000f6	f3 0f 11 04 24	 movss	 DWORD PTR [esp], xmm0
  000fb	ff d6		 call	 esi
  000fd	50		 push	 eax
  000fe	ff 15 00 00 00
	00		 call	 DWORD PTR __imp_?PrintTextWidthCut@ioFontManager@@QAAXMMMMPBDZZ
  00104	83 45 fc 1c	 add	 DWORD PTR tv290[ebp], 28 ; 0000001cH
  00108	03 5d ec	 add	 ebx, DWORD PTR tv244[ebp]
  0010b	83 c4 18	 add	 esp, 24			; 00000018H
  0010e	ff 4d f8	 dec	 DWORD PTR tv166[ebp]
  00111	75 a0		 jne	 SHORT $LL19@OnRender@2
$LN1@OnRender@2:
  00113	5f		 pop	 edi
  00114	5e		 pop	 esi
  00115	5b		 pop	 ebx

; 74   : 	}
; 75   : }

  00116	c9		 leave
  00117	c3		 ret	 0
?OnRender@ItemListIconBtn@@MAEXXZ ENDP			; ItemListIconBtn::OnRender
_TEXT	ENDS
PUBLIC	??0?$vector@V?$basic_string@DU?$char_traits@D@std@@V?$allocator@D@2@@std@@V?$allocator@V?$basic_string@DU?$char_traits@D@std@@V?$allocator@D@2@@std@@@2@@std@@QAE@XZ ; std::vector<std::basic_string<char,std::char_traits<char>,std::allocator<char> >,std::allocator<std::basic_string<char,std::char_traits<char>,std::allocator<char> > > >::vector<std::basic_string<char,std::char_traits<char>,std::allocator<char> >,std::allocator<std::basic_string<char,std::char_traits<char>,std::allocator<char> > > >
; Function compile flags: /Ogsp
; File c:\program files (x86)\microsoft visual studio 10.0\vc\include\vector
;	COMDAT ??0?$vector@V?$basic_string@DU?$char_traits@D@std@@V?$allocator@D@2@@std@@V?$allocator@V?$basic_string@DU?$char_traits@D@std@@V?$allocator@D@2@@std@@@2@@std@@QAE@XZ
_TEXT	SEGMENT
??0?$vector@V?$basic_string@DU?$char_traits@D@std@@V?$allocator@D@2@@std@@V?$allocator@V?$basic_string@DU?$char_traits@D@std@@V?$allocator@D@2@@std@@@2@@std@@QAE@XZ PROC ; std::vector<std::basic_string<char,std::char_traits<char>,std::allocator<char> >,std::allocator<std::basic_string<char,std::char_traits<char>,std::allocator<char> > > >::vector<std::basic_string<char,std::char_traits<char>,std::allocator<char> >,std::allocator<std::basic_string<char,std::char_traits<char>,std::allocator<char> > > >, COMDAT
; _this$ = ecx

; 507  : 		{	// construct empty vector

  00000	8b c1		 mov	 eax, ecx
  00002	33 c9		 xor	 ecx, ecx
  00004	89 08		 mov	 DWORD PTR [eax], ecx
  00006	89 48 04	 mov	 DWORD PTR [eax+4], ecx
  00009	89 48 08	 mov	 DWORD PTR [eax+8], ecx

; 508  : 		}

  0000c	c3		 ret	 0
??0?$vector@V?$basic_string@DU?$char_traits@D@std@@V?$allocator@D@2@@std@@V?$allocator@V?$basic_string@DU?$char_traits@D@std@@V?$allocator@D@2@@std@@@2@@std@@QAE@XZ ENDP ; std::vector<std::basic_string<char,std::char_traits<char>,std::allocator<char> >,std::allocator<std::basic_string<char,std::char_traits<char>,std::allocator<char> > > >::vector<std::basic_string<char,std::char_traits<char>,std::allocator<char> >,std::allocator<std::basic_string<char,std::char_traits<char>,std::allocator<char> > > >
_TEXT	ENDS
PUBLIC	??0?$vector@UItemListInfoSort@@V?$allocator@UItemListInfoSort@@@std@@@std@@QAE@XZ ; std::vector<ItemListInfoSort,std::allocator<ItemListInfoSort> >::vector<ItemListInfoSort,std::allocator<ItemListInfoSort> >
; Function compile flags: /Ogsp
;	COMDAT ??0?$vector@UItemListInfoSort@@V?$allocator@UItemListInfoSort@@@std@@@std@@QAE@XZ
_TEXT	SEGMENT
??0?$vector@UItemListInfoSort@@V?$allocator@UItemListInfoSort@@@std@@@std@@QAE@XZ PROC ; std::vector<ItemListInfoSort,std::allocator<ItemListInfoSort> >::vector<ItemListInfoSort,std::allocator<ItemListInfoSort> >, COMDAT
; _this$ = ecx

; 507  : 		{	// construct empty vector

  00000	8b c1		 mov	 eax, ecx
  00002	33 c9		 xor	 ecx, ecx
  00004	89 08		 mov	 DWORD PTR [eax], ecx
  00006	89 48 04	 mov	 DWORD PTR [eax+4], ecx
  00009	89 48 08	 mov	 DWORD PTR [eax+8], ecx

; 508  : 		}

  0000c	c3		 ret	 0
??0?$vector@UItemListInfoSort@@V?$allocator@UItemListInfoSort@@@std@@@std@@QAE@XZ ENDP ; std::vector<ItemListInfoSort,std::allocator<ItemListInfoSort> >::vector<ItemListInfoSort,std::allocator<ItemListInfoSort> >
_TEXT	ENDS
PUBLIC	??9?$_Vector_const_iterator@V?$_Vector_val@UItemListInfoSort@@V?$allocator@UItemListInfoSort@@@std@@@std@@@std@@QBE_NABV01@@Z ; std::_Vector_const_iterator<std::_Vector_val<ItemListInfoSort,std::allocator<ItemListInfoSort> > >::operator!=
; Function compile flags: /Ogsp
;	COMDAT ??9?$_Vector_const_iterator@V?$_Vector_val@UItemListInfoSort@@V?$allocator@UItemListInfoSort@@@std@@@std@@@std@@QBE_NABV01@@Z
_TEXT	SEGMENT
__Right$ = 8						; size = 4
??9?$_Vector_const_iterator@V?$_Vector_val@UItemListInfoSort@@V?$allocator@UItemListInfoSort@@@std@@@std@@@std@@QBE_NABV01@@Z PROC ; std::_Vector_const_iterator<std::_Vector_val<ItemListInfoSort,std::allocator<ItemListInfoSort> > >::operator!=, COMDAT
; _this$ = ecx

; 207  : 		{	// test for iterator inequality

  00000	55		 push	 ebp
  00001	8b ec		 mov	 ebp, esp

; 208  : 		return (!(*this == _Right));

  00003	8b 01		 mov	 eax, DWORD PTR [ecx]
  00005	8b 55 08	 mov	 edx, DWORD PTR __Right$[ebp]
  00008	33 c9		 xor	 ecx, ecx
  0000a	3b 02		 cmp	 eax, DWORD PTR [edx]
  0000c	0f 95 c0	 setne	 al

; 209  : 		}

  0000f	5d		 pop	 ebp
  00010	c2 04 00	 ret	 4
??9?$_Vector_const_iterator@V?$_Vector_val@UItemListInfoSort@@V?$allocator@UItemListInfoSort@@@std@@@std@@@std@@QBE_NABV01@@Z ENDP ; std::_Vector_const_iterator<std::_Vector_val<ItemListInfoSort,std::allocator<ItemListInfoSort> > >::operator!=
_TEXT	ENDS
PUBLIC	?_Buy@?$vector@V?$basic_string@DU?$char_traits@D@std@@V?$allocator@D@2@@std@@V?$allocator@V?$basic_string@DU?$char_traits@D@std@@V?$allocator@D@2@@std@@@2@@std@@IAE_NI@Z ; std::vector<std::basic_string<char,std::char_traits<char>,std::allocator<char> >,std::allocator<std::basic_string<char,std::char_traits<char>,std::allocator<char> > > >::_Buy
; Function compile flags: /Ogsp
;	COMDAT ?_Buy@?$vector@V?$basic_string@DU?$char_traits@D@std@@V?$allocator@D@2@@std@@V?$allocator@V?$basic_string@DU?$char_traits@D@std@@V?$allocator@D@2@@std@@@2@@std@@IAE_NI@Z
_TEXT	SEGMENT
__Capacity$ = 8						; size = 4
?_Buy@?$vector@V?$basic_string@DU?$char_traits@D@std@@V?$allocator@D@2@@std@@V?$allocator@V?$basic_string@DU?$char_traits@D@std@@V?$allocator@D@2@@std@@@2@@std@@IAE_NI@Z PROC ; std::vector<std::basic_string<char,std::char_traits<char>,std::allocator<char> >,std::allocator<std::basic_string<char,std::char_traits<char>,std::allocator<char> > > >::_Buy, COMDAT
; _this$ = ecx

; 1250 : 		{	// allocate array with _Capacity elements

  00000	55		 push	 ebp
  00001	8b ec		 mov	 ebp, esp
  00003	56		 push	 esi

; 1251 : 		this->_Myfirst = 0;

  00004	33 c0		 xor	 eax, eax
  00006	57		 push	 edi

; 1252 : 		this->_Mylast = 0;
; 1253 : 		this->_Myend = 0;
; 1254 : 
; 1255 : 		if (_Capacity == 0)

  00007	8b 7d 08	 mov	 edi, DWORD PTR __Capacity$[ebp]
  0000a	8b f1		 mov	 esi, ecx
  0000c	89 06		 mov	 DWORD PTR [esi], eax
  0000e	89 46 04	 mov	 DWORD PTR [esi+4], eax
  00011	89 46 08	 mov	 DWORD PTR [esi+8], eax
  00014	3b f8		 cmp	 edi, eax
  00016	75 04		 jne	 SHORT $LN4@Buy

; 1256 : 			return (false);

  00018	32 c0		 xor	 al, al
  0001a	eb 2b		 jmp	 SHORT $LN5@Buy
$LN4@Buy:

; 1257 : 		else if (max_size() < _Capacity)

  0001c	81 ff 49 92 24
	09		 cmp	 edi, 153391689		; 09249249H
  00022	76 0b		 jbe	 SHORT $LN2@Buy

; 1258 : 			_Xlen();	// result too long

  00024	68 00 00 00 00	 push	 OFFSET ??_C@_0BD@OLBABOEK@vector?$DMT?$DO?5too?5long?$AA@
  00029	ff 15 00 00 00
	00		 call	 DWORD PTR __imp_?_Xlength_error@std@@YAXPBD@Z
$LN19@Buy:
$LN2@Buy:

; 1259 : 		else
; 1260 : 			{	// nonempty array, allocate storage
; 1261 : 			this->_Myfirst = this->_Alval.allocate(_Capacity);

  0002f	50		 push	 eax
  00030	57		 push	 edi
  00031	e8 00 00 00 00	 call	 ??$_Allocate@V?$basic_string@DU?$char_traits@D@std@@V?$allocator@D@2@@std@@@std@@YAPAV?$basic_string@DU?$char_traits@D@std@@V?$allocator@D@2@@0@IPAV10@@Z ; std::_Allocate<std::basic_string<char,std::char_traits<char>,std::allocator<char> > >

; 1262 : 			this->_Mylast = this->_Myfirst;
; 1263 : 			this->_Myend = this->_Myfirst + _Capacity;

  00036	6b ff 1c	 imul	 edi, 28			; 0000001cH
  00039	03 f8		 add	 edi, eax
  0003b	59		 pop	 ecx
  0003c	89 06		 mov	 DWORD PTR [esi], eax
  0003e	89 46 04	 mov	 DWORD PTR [esi+4], eax
  00041	59		 pop	 ecx
  00042	89 7e 08	 mov	 DWORD PTR [esi+8], edi

; 1264 : 			}
; 1265 : 		return (true);

  00045	b0 01		 mov	 al, 1
$LN5@Buy:
  00047	5f		 pop	 edi
  00048	5e		 pop	 esi

; 1266 : 		}

  00049	5d		 pop	 ebp
  0004a	c2 04 00	 ret	 4
$LN18@Buy:
?_Buy@?$vector@V?$basic_string@DU?$char_traits@D@std@@V?$allocator@D@2@@std@@V?$allocator@V?$basic_string@DU?$char_traits@D@std@@V?$allocator@D@2@@std@@@2@@std@@IAE_NI@Z ENDP ; std::vector<std::basic_string<char,std::char_traits<char>,std::allocator<char> >,std::allocator<std::basic_string<char,std::char_traits<char>,std::allocator<char> > > >::_Buy
_TEXT	ENDS
PUBLIC	??0?$_Vector_iterator@V?$_Vector_val@UItemListInfoSort@@V?$allocator@UItemListInfoSort@@@std@@@std@@@std@@QAE@PAUItemListInfoSort@@PBU_Container_base0@1@@Z ; std::_Vector_iterator<std::_Vector_val<ItemListInfoSort,std::allocator<ItemListInfoSort> > >::_Vector_iterator<std::_Vector_val<ItemListInfoSort,std::allocator<ItemListInfoSort> > >
; Function compile flags: /Ogsp
;	COMDAT ??0?$_Vector_iterator@V?$_Vector_val@UItemListInfoSort@@V?$allocator@UItemListInfoSort@@@std@@@std@@@std@@QAE@PAUItemListInfoSort@@PBU_Container_base0@1@@Z
_TEXT	SEGMENT
__Parg$ = 8						; size = 4
__Pvector$ = 12						; size = 4
??0?$_Vector_iterator@V?$_Vector_val@UItemListInfoSort@@V?$allocator@UItemListInfoSort@@@std@@@std@@@std@@QAE@PAUItemListInfoSort@@PBU_Container_base0@1@@Z PROC ; std::_Vector_iterator<std::_Vector_val<ItemListInfoSort,std::allocator<ItemListInfoSort> > >::_Vector_iterator<std::_Vector_val<ItemListInfoSort,std::allocator<ItemListInfoSort> > >, COMDAT
; _this$ = ecx

; 304  : 		{	// construct with pointer _Parg

  00000	55		 push	 ebp
  00001	8b ec		 mov	 ebp, esp
  00003	8b c1		 mov	 eax, ecx
  00005	8b 4d 08	 mov	 ecx, DWORD PTR __Parg$[ebp]
  00008	89 08		 mov	 DWORD PTR [eax], ecx

; 305  : 		}

  0000a	5d		 pop	 ebp
  0000b	c2 08 00	 ret	 8
??0?$_Vector_iterator@V?$_Vector_val@UItemListInfoSort@@V?$allocator@UItemListInfoSort@@@std@@@std@@@std@@QAE@PAUItemListInfoSort@@PBU_Container_base0@1@@Z ENDP ; std::_Vector_iterator<std::_Vector_val<ItemListInfoSort,std::allocator<ItemListInfoSort> > >::_Vector_iterator<std::_Vector_val<ItemListInfoSort,std::allocator<ItemListInfoSort> > >
_TEXT	ENDS
PUBLIC	?_Make_iter@?$vector@UItemListInfoSort@@V?$allocator@UItemListInfoSort@@@std@@@std@@QBE?AV?$_Vector_iterator@V?$_Vector_val@UItemListInfoSort@@V?$allocator@UItemListInfoSort@@@std@@@std@@@2@V?$_Vector_const_iterator@V?$_Vector_val@UItemListInfoSort@@V?$allocator@UItemListInfoSort@@@std@@@std@@@2@@Z ; std::vector<ItemListInfoSort,std::allocator<ItemListInfoSort> >::_Make_iter
; Function compile flags: /Ogsp
;	COMDAT ?_Make_iter@?$vector@UItemListInfoSort@@V?$allocator@UItemListInfoSort@@@std@@@std@@QBE?AV?$_Vector_iterator@V?$_Vector_val@UItemListInfoSort@@V?$allocator@UItemListInfoSort@@@std@@@std@@@2@V?$_Vector_const_iterator@V?$_Vector_val@UItemListInfoSort@@V?$allocator@UItemListInfoSort@@@std@@@std@@@2@@Z
_TEXT	SEGMENT
___$ReturnUdt$ = 8					; size = 4
__Where$ = 12						; size = 4
?_Make_iter@?$vector@UItemListInfoSort@@V?$allocator@UItemListInfoSort@@@std@@@std@@QBE?AV?$_Vector_iterator@V?$_Vector_val@UItemListInfoSort@@V?$allocator@UItemListInfoSort@@@std@@@std@@@2@V?$_Vector_const_iterator@V?$_Vector_val@UItemListInfoSort@@V?$allocator@UItemListInfoSort@@@std@@@std@@@2@@Z PROC ; std::vector<ItemListInfoSort,std::allocator<ItemListInfoSort> >::_Make_iter, COMDAT
; _this$ = ecx

; 801  : 		{	// make iterator from const_iterator

  00000	55		 push	 ebp
  00001	8b ec		 mov	 ebp, esp

; 802  : 		return (iterator(_Where._Ptr, this));

  00003	8b 45 08	 mov	 eax, DWORD PTR ___$ReturnUdt$[ebp]
  00006	8b 4d 0c	 mov	 ecx, DWORD PTR __Where$[ebp]
  00009	89 08		 mov	 DWORD PTR [eax], ecx

; 803  : 		}

  0000b	5d		 pop	 ebp
  0000c	c2 08 00	 ret	 8
?_Make_iter@?$vector@UItemListInfoSort@@V?$allocator@UItemListInfoSort@@@std@@@std@@QBE?AV?$_Vector_iterator@V?$_Vector_val@UItemListInfoSort@@V?$allocator@UItemListInfoSort@@@std@@@std@@@2@V?$_Vector_const_iterator@V?$_Vector_val@UItemListInfoSort@@V?$allocator@UItemListInfoSort@@@std@@@std@@@2@@Z ENDP ; std::vector<ItemListInfoSort,std::allocator<ItemListInfoSort> >::_Make_iter
_TEXT	ENDS
PUBLIC	??0?$_Vector_iterator@V?$_Vector_val@V?$basic_string@DU?$char_traits@D@std@@V?$allocator@D@2@@std@@V?$allocator@V?$basic_string@DU?$char_traits@D@std@@V?$allocator@D@2@@std@@@2@@std@@@std@@QAE@PAV?$basic_string@DU?$char_traits@D@std@@V?$allocator@D@2@@1@PBU_Container_base0@1@@Z ; std::_Vector_iterator<std::_Vector_val<std::basic_string<char,std::char_traits<char>,std::allocator<char> >,std::allocator<std::basic_string<char,std::char_traits<char>,std::allocator<char> > > > >::_Vector_iterator<std::_Vector_val<std::basic_string<char,std::char_traits<char>,std::allocator<char> >,std::allocator<std::basic_string<char,std::char_traits<char>,std::allocator<char> > > > >
; Function compile flags: /Ogsp
;	COMDAT ??0?$_Vector_iterator@V?$_Vector_val@V?$basic_string@DU?$char_traits@D@std@@V?$allocator@D@2@@std@@V?$allocator@V?$basic_string@DU?$char_traits@D@std@@V?$allocator@D@2@@std@@@2@@std@@@std@@QAE@PAV?$basic_string@DU?$char_traits@D@std@@V?$allocator@D@2@@1@PBU_Container_base0@1@@Z
_TEXT	SEGMENT
__Parg$ = 8						; size = 4
__Pvector$ = 12						; size = 4
??0?$_Vector_iterator@V?$_Vector_val@V?$basic_string@DU?$char_traits@D@std@@V?$allocator@D@2@@std@@V?$allocator@V?$basic_string@DU?$char_traits@D@std@@V?$allocator@D@2@@std@@@2@@std@@@std@@QAE@PAV?$basic_string@DU?$char_traits@D@std@@V?$allocator@D@2@@1@PBU_Container_base0@1@@Z PROC ; std::_Vector_iterator<std::_Vector_val<std::basic_string<char,std::char_traits<char>,std::allocator<char> >,std::allocator<std::basic_string<char,std::char_traits<char>,std::allocator<char> > > > >::_Vector_iterator<std::_Vector_val<std::basic_string<char,std::char_traits<char>,std::allocator<char> >,std::allocator<std::basic_string<char,std::char_traits<char>,std::allocator<char> > > > >, COMDAT
; _this$ = ecx

; 304  : 		{	// construct with pointer _Parg

  00000	55		 push	 ebp
  00001	8b ec		 mov	 ebp, esp
  00003	8b c1		 mov	 eax, ecx
  00005	8b 4d 08	 mov	 ecx, DWORD PTR __Parg$[ebp]
  00008	89 08		 mov	 DWORD PTR [eax], ecx

; 305  : 		}

  0000a	5d		 pop	 ebp
  0000b	c2 08 00	 ret	 8
??0?$_Vector_iterator@V?$_Vector_val@V?$basic_string@DU?$char_traits@D@std@@V?$allocator@D@2@@std@@V?$allocator@V?$basic_string@DU?$char_traits@D@std@@V?$allocator@D@2@@std@@@2@@std@@@std@@QAE@PAV?$basic_string@DU?$char_traits@D@std@@V?$allocator@D@2@@1@PBU_Container_base0@1@@Z ENDP ; std::_Vector_iterator<std::_Vector_val<std::basic_string<char,std::char_traits<char>,std::allocator<char> >,std::allocator<std::basic_string<char,std::char_traits<char>,std::allocator<char> > > > >::_Vector_iterator<std::_Vector_val<std::basic_string<char,std::char_traits<char>,std::allocator<char> >,std::allocator<std::basic_string<char,std::char_traits<char>,std::allocator<char> > > > >
_TEXT	ENDS
PUBLIC	??9?$_Vector_const_iterator@V?$_Vector_val@V?$basic_string@DU?$char_traits@D@std@@V?$allocator@D@2@@std@@V?$allocator@V?$basic_string@DU?$char_traits@D@std@@V?$allocator@D@2@@std@@@2@@std@@@std@@QBE_NABV01@@Z ; std::_Vector_const_iterator<std::_Vector_val<std::basic_string<char,std::char_traits<char>,std::allocator<char> >,std::allocator<std::basic_string<char,std::char_traits<char>,std::allocator<char> > > > >::operator!=
; Function compile flags: /Ogsp
;	COMDAT ??9?$_Vector_const_iterator@V?$_Vector_val@V?$basic_string@DU?$char_traits@D@std@@V?$allocator@D@2@@std@@V?$allocator@V?$basic_string@DU?$char_traits@D@std@@V?$allocator@D@2@@std@@@2@@std@@@std@@QBE_NABV01@@Z
_TEXT	SEGMENT
__Right$ = 8						; size = 4
??9?$_Vector_const_iterator@V?$_Vector_val@V?$basic_string@DU?$char_traits@D@std@@V?$allocator@D@2@@std@@V?$allocator@V?$basic_string@DU?$char_traits@D@std@@V?$allocator@D@2@@std@@@2@@std@@@std@@QBE_NABV01@@Z PROC ; std::_Vector_const_iterator<std::_Vector_val<std::basic_string<char,std::char_traits<char>,std::allocator<char> >,std::allocator<std::basic_string<char,std::char_traits<char>,std::allocator<char> > > > >::operator!=, COMDAT
; _this$ = ecx

; 207  : 		{	// test for iterator inequality

  00000	55		 push	 ebp
  00001	8b ec		 mov	 ebp, esp

; 208  : 		return (!(*this == _Right));

  00003	8b 01		 mov	 eax, DWORD PTR [ecx]
  00005	8b 55 08	 mov	 edx, DWORD PTR __Right$[ebp]
  00008	33 c9		 xor	 ecx, ecx
  0000a	3b 02		 cmp	 eax, DWORD PTR [edx]
  0000c	0f 95 c0	 setne	 al

; 209  : 		}

  0000f	5d		 pop	 ebp
  00010	c2 04 00	 ret	 4
??9?$_Vector_const_iterator@V?$_Vector_val@V?$basic_string@DU?$char_traits@D@std@@V?$allocator@D@2@@std@@V?$allocator@V?$basic_string@DU?$char_traits@D@std@@V?$allocator@D@2@@std@@@2@@std@@@std@@QBE_NABV01@@Z ENDP ; std::_Vector_const_iterator<std::_Vector_val<std::basic_string<char,std::char_traits<char>,std::allocator<char> >,std::allocator<std::basic_string<char,std::char_traits<char>,std::allocator<char> > > > >::operator!=
_TEXT	ENDS
PUBLIC	??$_Cons_val@V?$allocator@UItemListInfoSort@@@std@@UItemListInfoSort@@ABU3@@std@@YAXAAV?$allocator@UItemListInfoSort@@@0@PAUItemListInfoSort@@ABU2@@Z ; std::_Cons_val<std::allocator<ItemListInfoSort>,ItemListInfoSort,ItemListInfoSort const &>
; Function compile flags: /Ogsp
; File c:\program files (x86)\microsoft visual studio 10.0\vc\include\xmemory
;	COMDAT ??$_Cons_val@V?$allocator@UItemListInfoSort@@@std@@UItemListInfoSort@@ABU3@@std@@YAXAAV?$allocator@UItemListInfoSort@@@0@PAUItemListInfoSort@@ABU2@@Z
_TEXT	SEGMENT
__Alval$ = 8						; size = 4
__Pdest$ = 12						; size = 4
__Src$ = 16						; size = 4
??$_Cons_val@V?$allocator@UItemListInfoSort@@@std@@UItemListInfoSort@@ABU3@@std@@YAXAAV?$allocator@UItemListInfoSort@@@0@PAUItemListInfoSort@@ABU2@@Z PROC ; std::_Cons_val<std::allocator<ItemListInfoSort>,ItemListInfoSort,ItemListInfoSort const &>, COMDAT

; 279  : 	{	// construct using allocator

  00000	55		 push	 ebp
  00001	8b ec		 mov	 ebp, esp
  00003	57		 push	 edi

; 280  : 	_Alval.construct(_Pdest, _STD forward<_Ty2>(_Src));

  00004	8b 7d 0c	 mov	 edi, DWORD PTR __Pdest$[ebp]
  00007	85 ff		 test	 edi, edi
  00009	74 0a		 je	 SHORT $LN9@Cons_val@2
  0000b	56		 push	 esi
  0000c	8b 75 10	 mov	 esi, DWORD PTR __Src$[ebp]
  0000f	6a 05		 push	 5
  00011	59		 pop	 ecx
  00012	f3 a5		 rep movsd
  00014	5e		 pop	 esi
$LN9@Cons_val@2:
  00015	5f		 pop	 edi

; 281  : 	}

  00016	5d		 pop	 ebp
  00017	c3		 ret	 0
??$_Cons_val@V?$allocator@UItemListInfoSort@@@std@@UItemListInfoSort@@ABU3@@std@@YAXAAV?$allocator@UItemListInfoSort@@@0@PAUItemListInfoSort@@ABU2@@Z ENDP ; std::_Cons_val<std::allocator<ItemListInfoSort>,ItemListInfoSort,ItemListInfoSort const &>
_TEXT	ENDS
PUBLIC	??$_Move@PAUItemListInfoSort@@PAU1@@std@@YAPAUItemListInfoSort@@PAU1@00@Z ; std::_Move<ItemListInfoSort *,ItemListInfoSort *>
; Function compile flags: /Ogsp
; File c:\program files (x86)\microsoft visual studio 10.0\vc\include\xutility
;	COMDAT ??$_Move@PAUItemListInfoSort@@PAU1@@std@@YAPAUItemListInfoSort@@PAU1@00@Z
_TEXT	SEGMENT
__Cat$509032 = -4					; size = 1
__First$ = 8						; size = 4
__Last$ = 12						; size = 4
__Dest$ = 16						; size = 4
??$_Move@PAUItemListInfoSort@@PAU1@@std@@YAPAUItemListInfoSort@@PAU1@00@Z PROC ; std::_Move<ItemListInfoSort *,ItemListInfoSort *>, COMDAT

; 2533 : 	{	// move [_First, _Last) to [_Dest, ...), unchecked

  00000	55		 push	 ebp
  00001	8b ec		 mov	 ebp, esp
  00003	51		 push	 ecx

; 2534 : 	return (_Move(_First, _Last,
; 2535 : 		_Dest, _Ptr_cat(_First, _Dest)));

  00004	ff 75 fc	 push	 DWORD PTR __Cat$509032[ebp]
  00007	ff 75 10	 push	 DWORD PTR __Dest$[ebp]
  0000a	ff 75 0c	 push	 DWORD PTR __Last$[ebp]
  0000d	ff 75 08	 push	 DWORD PTR __First$[ebp]
  00010	e8 00 00 00 00	 call	 ??$_Move@PAUItemListInfoSort@@PAU1@@std@@YAPAUItemListInfoSort@@PAU1@00U_Nonscalar_ptr_iterator_tag@0@@Z ; std::_Move<ItemListInfoSort *,ItemListInfoSort *>
  00015	83 c4 10	 add	 esp, 16			; 00000010H

; 2536 : 	}

  00018	c9		 leave
  00019	c3		 ret	 0
??$_Move@PAUItemListInfoSort@@PAU1@@std@@YAPAUItemListInfoSort@@PAU1@00@Z ENDP ; std::_Move<ItemListInfoSort *,ItemListInfoSort *>
_TEXT	ENDS
PUBLIC	??$_Dest_val@V?$allocator@UItemListInfoSort@@@std@@UItemListInfoSort@@@std@@YAXAAV?$allocator@UItemListInfoSort@@@0@PAUItemListInfoSort@@@Z ; std::_Dest_val<std::allocator<ItemListInfoSort>,ItemListInfoSort>
; Function compile flags: /Ogsp
; File c:\program files (x86)\microsoft visual studio 10.0\vc\include\xmemory
;	COMDAT ??$_Dest_val@V?$allocator@UItemListInfoSort@@@std@@UItemListInfoSort@@@std@@YAXAAV?$allocator@UItemListInfoSort@@@0@PAUItemListInfoSort@@@Z
_TEXT	SEGMENT
__Alval$ = 8						; size = 4
__Pdest$ = 12						; size = 4
??$_Dest_val@V?$allocator@UItemListInfoSort@@@std@@UItemListInfoSort@@@std@@YAXAAV?$allocator@UItemListInfoSort@@@0@PAUItemListInfoSort@@@Z PROC ; std::_Dest_val<std::allocator<ItemListInfoSort>,ItemListInfoSort>, COMDAT

; 287  : 	_Alval.destroy(_Pdest);
; 288  : 	}

  00000	c3		 ret	 0
??$_Dest_val@V?$allocator@UItemListInfoSort@@@std@@UItemListInfoSort@@@std@@YAXAAV?$allocator@UItemListInfoSort@@@0@PAUItemListInfoSort@@@Z ENDP ; std::_Dest_val<std::allocator<ItemListInfoSort>,ItemListInfoSort>
_TEXT	ENDS
PUBLIC	??$iter_swap@PAUItemListInfoSort@@PAU1@@std@@YAXPAUItemListInfoSort@@0@Z ; std::iter_swap<ItemListInfoSort *,ItemListInfoSort *>
; Function compile flags: /Ogsp
; File c:\program files (x86)\microsoft visual studio 10.0\vc\include\xutility
;	COMDAT ??$iter_swap@PAUItemListInfoSort@@PAU1@@std@@YAXPAUItemListInfoSort@@0@Z
_TEXT	SEGMENT
__Left$ = 8						; size = 4
__Right$ = 12						; size = 4
??$iter_swap@PAUItemListInfoSort@@PAU1@@std@@YAXPAUItemListInfoSort@@0@Z PROC ; std::iter_swap<ItemListInfoSort *,ItemListInfoSort *>, COMDAT

; 2133 : 	{	// swap *_Left and *_Right

  00000	55		 push	 ebp
  00001	8b ec		 mov	 ebp, esp

; 2135 : 	}

  00003	5d		 pop	 ebp

; 2134 : 	swap(*_Left, *_Right);

  00004	e9 00 00 00 00	 jmp	 ??$swap@UItemListInfoSort@@@std@@YAXAAUItemListInfoSort@@0@Z ; std::swap<ItemListInfoSort>
??$iter_swap@PAUItemListInfoSort@@PAU1@@std@@YAXPAUItemListInfoSort@@0@Z ENDP ; std::iter_swap<ItemListInfoSort *,ItemListInfoSort *>
_TEXT	ENDS
PUBLIC	??$_Make_heap@PAUItemListInfoSort@@HU1@VShopExtraItemSort@@@std@@YAXPAUItemListInfoSort@@0VShopExtraItemSort@@PAH0@Z ; std::_Make_heap<ItemListInfoSort *,int,ItemListInfoSort,ShopExtraItemSort>
; Function compile flags: /Ogsp
; File c:\program files (x86)\microsoft visual studio 10.0\vc\include\algorithm
;	COMDAT ??$_Make_heap@PAUItemListInfoSort@@HU1@VShopExtraItemSort@@@std@@YAXPAUItemListInfoSort@@0VShopExtraItemSort@@PAH0@Z
_TEXT	SEGMENT
__Val$507468 = -24					; size = 20
__Bottom$ = -4						; size = 4
__First$ = 8						; size = 4
tv149 = 12						; size = 4
__Last$ = 12						; size = 4
__Pred$ = 16						; size = 1
___formal$ = 20						; size = 4
___formal$ = 24						; size = 4
??$_Make_heap@PAUItemListInfoSort@@HU1@VShopExtraItemSort@@@std@@YAXPAUItemListInfoSort@@0VShopExtraItemSort@@PAH0@Z PROC ; std::_Make_heap<ItemListInfoSort *,int,ItemListInfoSort,ShopExtraItemSort>, COMDAT

; 2658 : 	{	// make nontrivial [_First, _Last) into a heap, using _Pred

  00000	55		 push	 ebp
  00001	8b ec		 mov	 ebp, esp
  00003	83 ec 18	 sub	 esp, 24			; 00000018H

; 2659 : 	_Diff _Bottom = _Last - _First;

  00006	8b 45 0c	 mov	 eax, DWORD PTR __Last$[ebp]
  00009	2b 45 08	 sub	 eax, DWORD PTR __First$[ebp]
  0000c	53		 push	 ebx
  0000d	99		 cdq
  0000e	6a 14		 push	 20			; 00000014H
  00010	59		 pop	 ecx
  00011	f7 f9		 idiv	 ecx
  00013	89 45 fc	 mov	 DWORD PTR __Bottom$[ebp], eax

; 2660 : 	for (_Diff _Hole = _Bottom / 2; 0 < _Hole; )

  00016	99		 cdq
  00017	2b c2		 sub	 eax, edx
  00019	8b d8		 mov	 ebx, eax
  0001b	d1 fb		 sar	 ebx, 1
  0001d	85 db		 test	 ebx, ebx
  0001f	7e 3a		 jle	 SHORT $LN1@Make_heap

; 2659 : 	_Diff _Bottom = _Last - _First;

  00021	56		 push	 esi
  00022	8b f3		 mov	 esi, ebx
  00024	6b f6 14	 imul	 esi, 20			; 00000014H
  00027	03 75 08	 add	 esi, DWORD PTR __First$[ebp]
  0002a	57		 push	 edi
  0002b	eb 03		 jmp	 SHORT $LN2@Make_heap
$LL11@Make_heap:
  0002d	8b 75 0c	 mov	 esi, DWORD PTR tv149[ebp]
$LN2@Make_heap:

; 2661 : 		{	// reheap top half, bottom to top
; 2662 : 		--_Hole;
; 2663 : 		_Ty _Val = _Move(*(_First + _Hole));

  00030	6a 05		 push	 5
  00032	59		 pop	 ecx

; 2664 : 		_Adjust_heap(_First, _Hole, _Bottom,
; 2665 : 			_Move(_Val), _Pred);

  00033	ff 75 10	 push	 DWORD PTR __Pred$[ebp]
  00036	8d 45 e8	 lea	 eax, DWORD PTR __Val$507468[ebp]
  00039	50		 push	 eax
  0003a	ff 75 fc	 push	 DWORD PTR __Bottom$[ebp]
  0003d	4b		 dec	 ebx
  0003e	83 ee 14	 sub	 esi, 20			; 00000014H
  00041	53		 push	 ebx
  00042	ff 75 08	 push	 DWORD PTR __First$[ebp]
  00045	8d 7d e8	 lea	 edi, DWORD PTR __Val$507468[ebp]
  00048	89 75 0c	 mov	 DWORD PTR tv149[ebp], esi
  0004b	f3 a5		 rep movsd
  0004d	e8 00 00 00 00	 call	 ??$_Adjust_heap@PAUItemListInfoSort@@HU1@VShopExtraItemSort@@@std@@YAXPAUItemListInfoSort@@HH$$QAU1@VShopExtraItemSort@@@Z ; std::_Adjust_heap<ItemListInfoSort *,int,ItemListInfoSort,ShopExtraItemSort>
  00052	83 c4 14	 add	 esp, 20			; 00000014H
  00055	85 db		 test	 ebx, ebx
  00057	7f d4		 jg	 SHORT $LL11@Make_heap
  00059	5f		 pop	 edi
  0005a	5e		 pop	 esi
$LN1@Make_heap:
  0005b	5b		 pop	 ebx

; 2666 : 		}
; 2667 : 	}

  0005c	c9		 leave
  0005d	c3		 ret	 0
??$_Make_heap@PAUItemListInfoSort@@HU1@VShopExtraItemSort@@@std@@YAXPAUItemListInfoSort@@0VShopExtraItemSort@@PAH0@Z ENDP ; std::_Make_heap<ItemListInfoSort *,int,ItemListInfoSort,ShopExtraItemSort>
_TEXT	ENDS
PUBLIC	??$_Insertion_sort1@PAUItemListInfoSort@@VShopExtraItemSort@@U1@@std@@YAXPAUItemListInfoSort@@0VShopExtraItemSort@@0@Z ; std::_Insertion_sort1<ItemListInfoSort *,ShopExtraItemSort,ItemListInfoSort>
; Function compile flags: /Ogsp
;	COMDAT ??$_Insertion_sort1@PAUItemListInfoSort@@VShopExtraItemSort@@U1@@std@@YAXPAUItemListInfoSort@@0VShopExtraItemSort@@0@Z
_TEXT	SEGMENT
__Val$507503 = -24					; size = 20
__Next1$507502 = -4					; size = 4
__Cat$509081 = 8					; size = 1
__First$ = 8						; size = 4
__Last$ = 12						; size = 4
__Pred$ = 16						; size = 1
___formal$ = 20						; size = 4
??$_Insertion_sort1@PAUItemListInfoSort@@VShopExtraItemSort@@U1@@std@@YAXPAUItemListInfoSort@@0VShopExtraItemSort@@0@Z PROC ; std::_Insertion_sort1<ItemListInfoSort *,ShopExtraItemSort,ItemListInfoSort>, COMDAT

; 3650 : 	{	// insertion sort [_First, _Last), using _Pred

  00000	55		 push	 ebp
  00001	8b ec		 mov	 ebp, esp

; 3651 : 	if (_First != _Last)

  00003	8b 55 08	 mov	 edx, DWORD PTR __First$[ebp]
  00006	83 ec 18	 sub	 esp, 24			; 00000018H
  00009	3b 55 0c	 cmp	 edx, DWORD PTR __Last$[ebp]
  0000c	74 7c		 je	 SHORT $LN6@Insertion_

; 3652 : 		for (_BidIt _Next = _First; ++_Next != _Last; )

  0000e	53		 push	 ebx
  0000f	8d 5a 14	 lea	 ebx, DWORD PTR [edx+20]
  00012	3b 5d 0c	 cmp	 ebx, DWORD PTR __Last$[ebp]
  00015	74 72		 je	 SHORT $LN38@Insertion_
  00017	56		 push	 esi
  00018	57		 push	 edi
$LL7@Insertion_:

; 3653 : 			{	// order next element
; 3654 : 			_BidIt _Next1 = _Next;
; 3655 : 			_Ty _Val = _Move(*_Next);
; 3656 : 
; 3657 : 			if (_DEBUG_LT_PRED(_Pred, _Val, *_First))

  00019	8b 42 08	 mov	 eax, DWORD PTR [edx+8]
  0001c	6a 05		 push	 5
  0001e	59		 pop	 ecx
  0001f	8b f3		 mov	 esi, ebx
  00021	8d 7d e8	 lea	 edi, DWORD PTR __Val$507503[ebp]
  00024	f3 a5		 rep movsd
  00026	89 5d fc	 mov	 DWORD PTR __Next1$507502[ebp], ebx
  00029	39 45 f0	 cmp	 DWORD PTR __Val$507503[ebp+8], eax
  0002c	7f 09		 jg	 SHORT $LN35@Insertion_
  0002e	75 1f		 jne	 SHORT $LN37@Insertion_
  00030	8b 45 e8	 mov	 eax, DWORD PTR __Val$507503[ebp]
  00033	3b 02		 cmp	 eax, DWORD PTR [edx]
  00035	7e 18		 jle	 SHORT $LN37@Insertion_
$LN35@Insertion_:

; 3658 : 				{	// found new earliest element, move to front
; 3659 : 				_Move_backward(_First, _Next, ++_Next1);

  00037	ff 75 08	 push	 DWORD PTR __Cat$509081[ebp]
  0003a	8d 43 14	 lea	 eax, DWORD PTR [ebx+20]
  0003d	50		 push	 eax
  0003e	53		 push	 ebx
  0003f	52		 push	 edx
  00040	e8 00 00 00 00	 call	 ??$_Move_backward@PAUItemListInfoSort@@PAU1@@std@@YAPAUItemListInfoSort@@PAU1@00U_Nonscalar_ptr_iterator_tag@0@@Z ; std::_Move_backward<ItemListInfoSort *,ItemListInfoSort *>

; 3660 : 				*_First = _Move(_Val);

  00045	8b 7d 08	 mov	 edi, DWORD PTR __First$[ebp]
  00048	83 c4 10	 add	 esp, 16			; 00000010H

; 3661 : 				}
; 3662 : 			else

  0004b	8b d7		 mov	 edx, edi
  0004d	eb 28		 jmp	 SHORT $LN40@Insertion_
$LN37@Insertion_:

; 3663 : 				{	// look for insertion point after first
; 3664 : 				for (_BidIt _First1 = _Next1;

  0004f	8b c3		 mov	 eax, ebx
$LL3@Insertion_:

; 3665 : 					_DEBUG_LT_PRED(_Pred, _Val, *--_First1);
; 3666 : 					_Next1 = _First1)

  00051	8b 48 f4	 mov	 ecx, DWORD PTR [eax-12]
  00054	83 e8 14	 sub	 eax, 20			; 00000014H
  00057	39 4d f0	 cmp	 DWORD PTR __Val$507503[ebp+8], ecx
  0005a	7f 09		 jg	 SHORT $LN36@Insertion_
  0005c	75 16		 jne	 SHORT $LN24@Insertion_
  0005e	8b 4d e8	 mov	 ecx, DWORD PTR __Val$507503[ebp]
  00061	3b 08		 cmp	 ecx, DWORD PTR [eax]
  00063	7e 0f		 jle	 SHORT $LN24@Insertion_
$LN36@Insertion_:

; 3667 : 					*_Next1 = _Move(*_First1);	// move hole down

  00065	8b 7d fc	 mov	 edi, DWORD PTR __Next1$507502[ebp]
  00068	6a 05		 push	 5
  0006a	59		 pop	 ecx
  0006b	8b f0		 mov	 esi, eax
  0006d	f3 a5		 rep movsd
  0006f	89 45 fc	 mov	 DWORD PTR __Next1$507502[ebp], eax
  00072	eb dd		 jmp	 SHORT $LL3@Insertion_

; 3665 : 					_DEBUG_LT_PRED(_Pred, _Val, *--_First1);
; 3666 : 					_Next1 = _First1)

$LN24@Insertion_:

; 3668 : 				*_Next1 = _Move(_Val);	// insert element in hole

  00074	8b 7d fc	 mov	 edi, DWORD PTR __Next1$507502[ebp]
$LN40@Insertion_:
  00077	6a 05		 push	 5
  00079	83 c3 14	 add	 ebx, 20			; 00000014H
  0007c	59		 pop	 ecx
  0007d	8d 75 e8	 lea	 esi, DWORD PTR __Val$507503[ebp]
  00080	f3 a5		 rep movsd
  00082	3b 5d 0c	 cmp	 ebx, DWORD PTR __Last$[ebp]
  00085	75 92		 jne	 SHORT $LL7@Insertion_
  00087	5f		 pop	 edi
  00088	5e		 pop	 esi
$LN38@Insertion_:
  00089	5b		 pop	 ebx
$LN6@Insertion_:

; 3669 : 				}
; 3670 : 			}
; 3671 : 	}

  0008a	c9		 leave
  0008b	c3		 ret	 0
??$_Insertion_sort1@PAUItemListInfoSort@@VShopExtraItemSort@@U1@@std@@YAXPAUItemListInfoSort@@0VShopExtraItemSort@@0@Z ENDP ; std::_Insertion_sort1<ItemListInfoSort *,ShopExtraItemSort,ItemListInfoSort>
_TEXT	ENDS
PUBLIC	??$_Cons_val@V?$allocator@UItemListInfoSort@@@std@@UItemListInfoSort@@U3@@std@@YAXAAV?$allocator@UItemListInfoSort@@@0@PAUItemListInfoSort@@$$QAU2@@Z ; std::_Cons_val<std::allocator<ItemListInfoSort>,ItemListInfoSort,ItemListInfoSort>
; Function compile flags: /Ogsp
; File c:\program files (x86)\microsoft visual studio 10.0\vc\include\xmemory
;	COMDAT ??$_Cons_val@V?$allocator@UItemListInfoSort@@@std@@UItemListInfoSort@@U3@@std@@YAXAAV?$allocator@UItemListInfoSort@@@0@PAUItemListInfoSort@@$$QAU2@@Z
_TEXT	SEGMENT
__Alval$ = 8						; size = 4
__Pdest$ = 12						; size = 4
__Src$ = 16						; size = 4
??$_Cons_val@V?$allocator@UItemListInfoSort@@@std@@UItemListInfoSort@@U3@@std@@YAXAAV?$allocator@UItemListInfoSort@@@0@PAUItemListInfoSort@@$$QAU2@@Z PROC ; std::_Cons_val<std::allocator<ItemListInfoSort>,ItemListInfoSort,ItemListInfoSort>, COMDAT

; 279  : 	{	// construct using allocator

  00000	55		 push	 ebp
  00001	8b ec		 mov	 ebp, esp
  00003	57		 push	 edi

; 280  : 	_Alval.construct(_Pdest, _STD forward<_Ty2>(_Src));

  00004	8b 7d 0c	 mov	 edi, DWORD PTR __Pdest$[ebp]
  00007	85 ff		 test	 edi, edi
  00009	74 0a		 je	 SHORT $LN7@Cons_val@3
  0000b	56		 push	 esi
  0000c	8b 75 10	 mov	 esi, DWORD PTR __Src$[ebp]
  0000f	6a 05		 push	 5
  00011	59		 pop	 ecx
  00012	f3 a5		 rep movsd
  00014	5e		 pop	 esi
$LN7@Cons_val@3:
  00015	5f		 pop	 edi

; 281  : 	}

  00016	5d		 pop	 ebp
  00017	c3		 ret	 0
??$_Cons_val@V?$allocator@UItemListInfoSort@@@std@@UItemListInfoSort@@U3@@std@@YAXAAV?$allocator@UItemListInfoSort@@@0@PAUItemListInfoSort@@$$QAU2@@Z ENDP ; std::_Cons_val<std::allocator<ItemListInfoSort>,ItemListInfoSort,ItemListInfoSort>
_TEXT	ENDS
PUBLIC	??$_Med3@PAUItemListInfoSort@@VShopExtraItemSort@@@std@@YAXPAUItemListInfoSort@@00VShopExtraItemSort@@@Z ; std::_Med3<ItemListInfoSort *,ShopExtraItemSort>
; Function compile flags: /Ogsp
; File c:\program files (x86)\microsoft visual studio 10.0\vc\include\algorithm
;	COMDAT ??$_Med3@PAUItemListInfoSort@@VShopExtraItemSort@@@std@@YAXPAUItemListInfoSort@@00VShopExtraItemSort@@@Z
_TEXT	SEGMENT
__First$ = 8						; size = 4
__Mid$ = 12						; size = 4
__Last$ = 16						; size = 4
__Pred$ = 20						; size = 1
??$_Med3@PAUItemListInfoSort@@VShopExtraItemSort@@@std@@YAXPAUItemListInfoSort@@00VShopExtraItemSort@@@Z PROC ; std::_Med3<ItemListInfoSort *,ShopExtraItemSort>, COMDAT

; 3683 : 	{	// sort median of three elements to middle

  00000	55		 push	 ebp
  00001	8b ec		 mov	 ebp, esp
  00003	56		 push	 esi

; 3684 : 	if (_DEBUG_LT_PRED(_Pred, *_Mid, *_First))

  00004	8b 75 0c	 mov	 esi, DWORD PTR __Mid$[ebp]
  00007	8b 46 08	 mov	 eax, DWORD PTR [esi+8]
  0000a	57		 push	 edi
  0000b	8b 7d 08	 mov	 edi, DWORD PTR __First$[ebp]
  0000e	8b 4f 08	 mov	 ecx, DWORD PTR [edi+8]
  00011	3b c1		 cmp	 eax, ecx
  00013	7f 08		 jg	 SHORT $LN27@Med3
  00015	75 0f		 jne	 SHORT $LN11@Med3
  00017	8b 06		 mov	 eax, DWORD PTR [esi]
  00019	3b 07		 cmp	 eax, DWORD PTR [edi]
  0001b	7e 09		 jle	 SHORT $LN11@Med3
$LN27@Med3:

; 3685 : 		_STD iter_swap(_Mid, _First);

  0001d	57		 push	 edi
  0001e	56		 push	 esi
  0001f	e8 00 00 00 00	 call	 ??$swap@UItemListInfoSort@@@std@@YAXAAUItemListInfoSort@@0@Z ; std::swap<ItemListInfoSort>
  00024	59		 pop	 ecx
  00025	59		 pop	 ecx
$LN11@Med3:

; 3686 : 	if (_DEBUG_LT_PRED(_Pred, *_Last, *_Mid))

  00026	8b 45 10	 mov	 eax, DWORD PTR __Last$[ebp]
  00029	8b 48 08	 mov	 ecx, DWORD PTR [eax+8]
  0002c	8b 56 08	 mov	 edx, DWORD PTR [esi+8]
  0002f	3b ca		 cmp	 ecx, edx
  00031	7f 08		 jg	 SHORT $LN28@Med3
  00033	75 0f		 jne	 SHORT $LN18@Med3
  00035	8b 08		 mov	 ecx, DWORD PTR [eax]
  00037	3b 0e		 cmp	 ecx, DWORD PTR [esi]
  00039	7e 09		 jle	 SHORT $LN18@Med3
$LN28@Med3:

; 3687 : 		_STD iter_swap(_Last, _Mid);

  0003b	56		 push	 esi
  0003c	50		 push	 eax
  0003d	e8 00 00 00 00	 call	 ??$swap@UItemListInfoSort@@@std@@YAXAAUItemListInfoSort@@0@Z ; std::swap<ItemListInfoSort>
  00042	59		 pop	 ecx
  00043	59		 pop	 ecx
$LN18@Med3:

; 3688 : 	if (_DEBUG_LT_PRED(_Pred, *_Mid, *_First))

  00044	8b 46 08	 mov	 eax, DWORD PTR [esi+8]
  00047	8b 4f 08	 mov	 ecx, DWORD PTR [edi+8]
  0004a	3b c1		 cmp	 eax, ecx
  0004c	7f 08		 jg	 SHORT $LN29@Med3
  0004e	75 0f		 jne	 SHORT $LN25@Med3
  00050	8b 06		 mov	 eax, DWORD PTR [esi]
  00052	3b 07		 cmp	 eax, DWORD PTR [edi]
  00054	7e 09		 jle	 SHORT $LN25@Med3
$LN29@Med3:

; 3689 : 		_STD iter_swap(_Mid, _First);

  00056	57		 push	 edi
  00057	56		 push	 esi
  00058	e8 00 00 00 00	 call	 ??$swap@UItemListInfoSort@@@std@@YAXAAUItemListInfoSort@@0@Z ; std::swap<ItemListInfoSort>
  0005d	59		 pop	 ecx
  0005e	59		 pop	 ecx
$LN25@Med3:
  0005f	5f		 pop	 edi
  00060	5e		 pop	 esi

; 3690 : 	}

  00061	5d		 pop	 ebp
  00062	c3		 ret	 0
??$_Med3@PAUItemListInfoSort@@VShopExtraItemSort@@@std@@YAXPAUItemListInfoSort@@00VShopExtraItemSort@@@Z ENDP ; std::_Med3<ItemListInfoSort *,ShopExtraItemSort>
_TEXT	ENDS
PUBLIC	??$_Pop_heap_0@PAUItemListInfoSort@@U1@VShopExtraItemSort@@@std@@YAXPAUItemListInfoSort@@0VShopExtraItemSort@@0@Z ; std::_Pop_heap_0<ItemListInfoSort *,ItemListInfoSort,ShopExtraItemSort>
; Function compile flags: /Ogsp
;	COMDAT ??$_Pop_heap_0@PAUItemListInfoSort@@U1@VShopExtraItemSort@@@std@@YAXPAUItemListInfoSort@@0VShopExtraItemSort@@0@Z
_TEXT	SEGMENT
__Val$ = -20						; size = 20
__First$ = 8						; size = 4
__Last$ = 12						; size = 4
__Pred$ = 16						; size = 1
___formal$ = 20						; size = 4
??$_Pop_heap_0@PAUItemListInfoSort@@U1@VShopExtraItemSort@@@std@@YAXPAUItemListInfoSort@@0VShopExtraItemSort@@0@Z PROC ; std::_Pop_heap_0<ItemListInfoSort *,ItemListInfoSort,ShopExtraItemSort>, COMDAT

; 2601 : 	{	// pop *_First to *(_Last - 1) and reheap, using _Pred

  00000	55		 push	 ebp
  00001	8b ec		 mov	 ebp, esp

; 2602 : 	_Ty _Val = _Move(*(_Last - 1));

  00003	8b 45 0c	 mov	 eax, DWORD PTR __Last$[ebp]
  00006	83 ec 14	 sub	 esp, 20			; 00000014H
  00009	56		 push	 esi
  0000a	57		 push	 edi
  0000b	6a 05		 push	 5
  0000d	59		 pop	 ecx
  0000e	83 c0 ec	 add	 eax, -20		; ffffffecH

; 2603 : 	_Pop_heap(_First, _Last - 1, _Last - 1,
; 2604 : 		_Move(_Val), _Pred, _Dist_type(_First));

  00011	6a 00		 push	 0
  00013	ff 75 10	 push	 DWORD PTR __Pred$[ebp]
  00016	8b f0		 mov	 esi, eax
  00018	8d 7d ec	 lea	 edi, DWORD PTR __Val$[ebp]
  0001b	f3 a5		 rep movsd
  0001d	8d 4d ec	 lea	 ecx, DWORD PTR __Val$[ebp]
  00020	51		 push	 ecx
  00021	50		 push	 eax
  00022	50		 push	 eax
  00023	ff 75 08	 push	 DWORD PTR __First$[ebp]
  00026	e8 00 00 00 00	 call	 ??$_Pop_heap@PAUItemListInfoSort@@HU1@VShopExtraItemSort@@@std@@YAXPAUItemListInfoSort@@00$$QAU1@VShopExtraItemSort@@PAH@Z ; std::_Pop_heap<ItemListInfoSort *,int,ItemListInfoSort,ShopExtraItemSort>
  0002b	83 c4 18	 add	 esp, 24			; 00000018H
  0002e	5f		 pop	 edi
  0002f	5e		 pop	 esi

; 2605 : 	}

  00030	c9		 leave
  00031	c3		 ret	 0
??$_Pop_heap_0@PAUItemListInfoSort@@U1@VShopExtraItemSort@@@std@@YAXPAUItemListInfoSort@@0VShopExtraItemSort@@0@Z ENDP ; std::_Pop_heap_0<ItemListInfoSort *,ItemListInfoSort,ShopExtraItemSort>
_TEXT	ENDS
PUBLIC	?_Tidy@?$basic_string@DU?$char_traits@D@std@@V?$allocator@D@2@@std@@QAEX_NI@Z ; std::basic_string<char,std::char_traits<char>,std::allocator<char> >::_Tidy
; Function compile flags: /Ogsp
; File c:\program files (x86)\microsoft visual studio 10.0\vc\include\xstring
;	COMDAT ?_Tidy@?$basic_string@DU?$char_traits@D@std@@V?$allocator@D@2@@std@@QAEX_NI@Z
_TEXT	SEGMENT
__Built$ = 8						; size = 1
__Newsize$ = 12						; size = 4
?_Tidy@?$basic_string@DU?$char_traits@D@std@@V?$allocator@D@2@@std@@QAEX_NI@Z PROC ; std::basic_string<char,std::char_traits<char>,std::allocator<char> >::_Tidy, COMDAT
; _this$ = ecx

; 1988 : 		{	// initialize buffer, deallocating any storage

  00000	55		 push	 ebp
  00001	8b ec		 mov	 ebp, esp

; 1989 : 		if (!_Built)

  00003	80 7d 08 00	 cmp	 BYTE PTR __Built$[ebp], 0
  00007	56		 push	 esi
  00008	57		 push	 edi
  00009	8b 7d 0c	 mov	 edi, DWORD PTR __Newsize$[ebp]
  0000c	8b f1		 mov	 esi, ecx
  0000e	74 20		 je	 SHORT $LN9@Tidy

; 1990 : 			;
; 1991 : 		else if (this->_BUF_SIZE <= this->_Myres)

  00010	83 7e 14 10	 cmp	 DWORD PTR [esi+20], 16	; 00000010H
  00014	72 1a		 jb	 SHORT $LN9@Tidy

; 1992 : 			{	// copy any leftovers to small buffer and deallocate
; 1993 : 			_Elem *_Ptr = this->_Bx._Ptr;

  00016	53		 push	 ebx
  00017	8b 1e		 mov	 ebx, DWORD PTR [esi]

; 1994 : 			if (0 < _Newsize)

  00019	85 ff		 test	 edi, edi
  0001b	74 0b		 je	 SHORT $LN7@Tidy

; 1995 : 				_Traits::copy(this->_Bx._Buf, _Ptr, _Newsize);

  0001d	57		 push	 edi
  0001e	53		 push	 ebx
  0001f	56		 push	 esi
  00020	e8 00 00 00 00	 call	 _memcpy
  00025	83 c4 0c	 add	 esp, 12			; 0000000cH
$LN7@Tidy:

; 1996 : 			this->_Alval.deallocate(_Ptr, this->_Myres + 1);

  00028	53		 push	 ebx
  00029	e8 00 00 00 00	 call	 ??3@YAXPAX@Z		; operator delete
  0002e	59		 pop	 ecx
  0002f	5b		 pop	 ebx
$LN9@Tidy:

; 1997 : 			}
; 1998 : 		this->_Myres = this->_BUF_SIZE - 1;
; 1999 : 		_Eos(_Newsize);

  00030	89 7e 10	 mov	 DWORD PTR [esi+16], edi
  00033	c7 46 14 0f 00
	00 00		 mov	 DWORD PTR [esi+20], 15	; 0000000fH
  0003a	c6 04 37 00	 mov	 BYTE PTR [edi+esi], 0
  0003e	5f		 pop	 edi
  0003f	5e		 pop	 esi

; 2000 : 		}

  00040	5d		 pop	 ebp
  00041	c2 08 00	 ret	 8
?_Tidy@?$basic_string@DU?$char_traits@D@std@@V?$allocator@D@2@@std@@QAEX_NI@Z ENDP ; std::basic_string<char,std::char_traits<char>,std::allocator<char> >::_Tidy
_TEXT	ENDS
PUBLIC	?erase@?$basic_string@DU?$char_traits@D@std@@V?$allocator@D@2@@std@@QAEAAV12@II@Z ; std::basic_string<char,std::char_traits<char>,std::allocator<char> >::erase
; Function compile flags: /Ogsp
;	COMDAT ?erase@?$basic_string@DU?$char_traits@D@std@@V?$allocator@D@2@@std@@QAEAAV12@II@Z
_TEXT	SEGMENT
__Off$ = 8						; size = 4
__Count$ = 12						; size = 4
?erase@?$basic_string@DU?$char_traits@D@std@@V?$allocator@D@2@@std@@QAEAAV12@II@Z PROC ; std::basic_string<char,std::char_traits<char>,std::allocator<char> >::erase, COMDAT
; _this$ = ecx

; 1109 : 		{	// erase elements [_Off, _Off + _Count)

  00000	55		 push	 ebp
  00001	8b ec		 mov	 ebp, esp
  00003	53		 push	 ebx
  00004	56		 push	 esi
  00005	8b f1		 mov	 esi, ecx

; 1110 : 		if (this->_Mysize < _Off)

  00007	8b 46 10	 mov	 eax, DWORD PTR [esi+16]
  0000a	8b 4d 08	 mov	 ecx, DWORD PTR __Off$[ebp]
  0000d	3b c1		 cmp	 eax, ecx
  0000f	73 0b		 jae	 SHORT $LN3@erase

; 1111 : 			_Xran();	// _Off off end

  00011	68 00 00 00 00	 push	 OFFSET ??_C@_0BI@CFPLBAOH@invalid?5string?5position?$AA@
  00016	ff 15 00 00 00
	00		 call	 DWORD PTR __imp_?_Xout_of_range@std@@YAXPBD@Z
$LN28@erase:
$LN3@erase:

; 1112 : 		if (this->_Mysize - _Off < _Count)

  0001c	8b 5d 0c	 mov	 ebx, DWORD PTR __Count$[ebp]
  0001f	2b c1		 sub	 eax, ecx
  00021	3b c3		 cmp	 eax, ebx

; 1113 : 			_Count = this->_Mysize - _Off;	// trim _Count

  00023	0f 42 d8	 cmovb	 ebx, eax

; 1114 : 		if (0 < _Count)

  00026	85 db		 test	 ebx, ebx
  00028	74 47		 je	 SHORT $LN25@erase

; 1115 : 			{	// move elements down
; 1116 : 			_Traits::move(_Myptr() + _Off, _Myptr() + _Off + _Count,
; 1117 : 				this->_Mysize - _Off - _Count);

  0002a	8b 56 14	 mov	 edx, DWORD PTR [esi+20]
  0002d	57		 push	 edi
  0002e	83 fa 10	 cmp	 edx, 16			; 00000010H
  00031	72 04		 jb	 SHORT $LN11@erase
  00033	8b 3e		 mov	 edi, DWORD PTR [esi]
  00035	eb 02		 jmp	 SHORT $LN12@erase
$LN11@erase:
  00037	8b fe		 mov	 edi, esi
$LN12@erase:
  00039	83 fa 10	 cmp	 edx, 16			; 00000010H
  0003c	72 04		 jb	 SHORT $LN15@erase
  0003e	8b 16		 mov	 edx, DWORD PTR [esi]
  00040	eb 02		 jmp	 SHORT $LN16@erase
$LN15@erase:
  00042	8b d6		 mov	 edx, esi
$LN16@erase:
  00044	2b c3		 sub	 eax, ebx
  00046	03 f9		 add	 edi, ecx
  00048	50		 push	 eax
  00049	03 fb		 add	 edi, ebx
  0004b	03 d1		 add	 edx, ecx
  0004d	57		 push	 edi
  0004e	52		 push	 edx
  0004f	ff 15 00 00 00
	00		 call	 DWORD PTR __imp__memmove

; 1118 : 			size_type _Newsize = this->_Mysize - _Count;

  00055	8b 46 10	 mov	 eax, DWORD PTR [esi+16]
  00058	83 c4 0c	 add	 esp, 12			; 0000000cH
  0005b	2b c3		 sub	 eax, ebx

; 1119 : 			_Eos(_Newsize);

  0005d	83 7e 14 10	 cmp	 DWORD PTR [esi+20], 16	; 00000010H
  00061	89 46 10	 mov	 DWORD PTR [esi+16], eax
  00064	5f		 pop	 edi
  00065	72 04		 jb	 SHORT $LN23@erase
  00067	8b 0e		 mov	 ecx, DWORD PTR [esi]
  00069	eb 02		 jmp	 SHORT $LN24@erase
$LN23@erase:
  0006b	8b ce		 mov	 ecx, esi
$LN24@erase:
  0006d	c6 04 01 00	 mov	 BYTE PTR [ecx+eax], 0
$LN25@erase:

; 1120 : 			}
; 1121 : 		return (*this);

  00071	8b c6		 mov	 eax, esi
  00073	5e		 pop	 esi
  00074	5b		 pop	 ebx

; 1122 : 		}

  00075	5d		 pop	 ebp
  00076	c2 08 00	 ret	 8
$LN27@erase:
?erase@?$basic_string@DU?$char_traits@D@std@@V?$allocator@D@2@@std@@QAEAAV12@II@Z ENDP ; std::basic_string<char,std::char_traits<char>,std::allocator<char> >::erase
_TEXT	ENDS
PUBLIC	?_Copy@?$basic_string@DU?$char_traits@D@std@@V?$allocator@D@2@@std@@QAEXII@Z ; std::basic_string<char,std::char_traits<char>,std::allocator<char> >::_Copy
EXTRN	__EH_prolog3_catch:PROC
;	COMDAT xdata$x
; File c:\program files (x86)\microsoft visual studio 10.0\vc\include\iosfwd
xdata$x	SEGMENT
__catchsym$?_Copy@?$basic_string@DU?$char_traits@D@std@@V?$allocator@D@2@@std@@QAEXII@Z$5 DD 040H
	DD	00H
	DD	00H
	DD	FLAT:__catch$?_Copy@?$basic_string@DU?$char_traits@D@std@@V?$allocator@D@2@@std@@QAEXII@Z$0
__catchsym$?_Copy@?$basic_string@DU?$char_traits@D@std@@V?$allocator@D@2@@std@@QAEXII@Z$4 DD 040H
	DD	00H
	DD	00H
	DD	FLAT:__catch$?_Copy@?$basic_string@DU?$char_traits@D@std@@V?$allocator@D@2@@std@@QAEXII@Z$1
__unwindtable$?_Copy@?$basic_string@DU?$char_traits@D@std@@V?$allocator@D@2@@std@@QAEXII@Z DD 0ffffffffH
	DD	00H
	DD	0ffffffffH
	DD	00H
	DD	01H
	DD	00H
	DD	01H
	DD	00H
__ehfuncinfo$?_Copy@?$basic_string@DU?$char_traits@D@std@@V?$allocator@D@2@@std@@QAEXII@Z DD 019930522H
	DD	04H
	DD	FLAT:__unwindtable$?_Copy@?$basic_string@DU?$char_traits@D@std@@V?$allocator@D@2@@std@@QAEXII@Z
	DD	02H
	DD	FLAT:__tryblocktable$?_Copy@?$basic_string@DU?$char_traits@D@std@@V?$allocator@D@2@@std@@QAEXII@Z
	DD	2 DUP(00H)
	DD	00H
	DD	01H
__tryblocktable$?_Copy@?$basic_string@DU?$char_traits@D@std@@V?$allocator@D@2@@std@@QAEXII@Z DD 02H
	DD	02H
	DD	03H
	DD	01H
	DD	FLAT:__catchsym$?_Copy@?$basic_string@DU?$char_traits@D@std@@V?$allocator@D@2@@std@@QAEXII@Z$4
	DD	00H
	DD	00H
	DD	03H
	DD	01H
	DD	FLAT:__catchsym$?_Copy@?$basic_string@DU?$char_traits@D@std@@V?$allocator@D@2@@std@@QAEXII@Z$5
; Function compile flags: /Ogsp
; File c:\program files (x86)\microsoft visual studio 10.0\vc\include\xstring
xdata$x	ENDS
;	COMDAT ?_Copy@?$basic_string@DU?$char_traits@D@std@@V?$allocator@D@2@@std@@QAEXII@Z
_TEXT	SEGMENT
_this$ = -24						; size = 4
tv296 = -20						; size = 4
__Newres$ = -20						; size = 4
__$EHRec$ = -16						; size = 16
__Ptr$ = 8						; size = 4
__Newsize$ = 8						; size = 4
__Oldlen$ = 12						; size = 4
?_Copy@?$basic_string@DU?$char_traits@D@std@@V?$allocator@D@2@@std@@QAEXII@Z PROC ; std::basic_string<char,std::char_traits<char>,std::allocator<char> >::_Copy, COMDAT
; _this$ = ecx

; 1919 : 		{	// copy _Oldlen elements to newly allocated buffer

  00000	6a 0c		 push	 12			; 0000000cH
  00002	b8 00 00 00 00	 mov	 eax, __ehhandler$?_Copy@?$basic_string@DU?$char_traits@D@std@@V?$allocator@D@2@@std@@QAEXII@Z
  00007	e8 00 00 00 00	 call	 __EH_prolog3_catch
  0000c	8b f1		 mov	 esi, ecx
  0000e	89 75 e8	 mov	 DWORD PTR _this$[ebp], esi

; 1920 : 		size_type _Newres = _Newsize | this->_ALLOC_MASK;

  00011	8b 7d 08	 mov	 edi, DWORD PTR __Newsize$[ebp]
  00014	83 cf 0f	 or	 edi, 15			; 0000000fH

; 1921 : 		if (max_size() < _Newres)

  00017	83 ff fe	 cmp	 edi, -2			; fffffffeH
  0001a	76 05		 jbe	 SHORT $LN9@Copy

; 1922 : 			_Newres = _Newsize;	// undo roundup if too big

  0001c	8b 7d 08	 mov	 edi, DWORD PTR __Newsize$[ebp]
  0001f	eb 27		 jmp	 SHORT $LN5@Copy
$LN9@Copy:

; 1923 : 		else if (this->_Myres / 2 <= _Newres / 3)

  00021	33 d2		 xor	 edx, edx
  00023	6a 03		 push	 3
  00025	8b c7		 mov	 eax, edi
  00027	5b		 pop	 ebx
  00028	f7 f3		 div	 ebx
  0002a	8b 4e 14	 mov	 ecx, DWORD PTR [esi+20]
  0002d	89 4d ec	 mov	 DWORD PTR tv296[ebp], ecx
  00030	d1 6d ec	 shr	 DWORD PTR tv296[ebp], 1
  00033	8b 55 ec	 mov	 edx, DWORD PTR tv296[ebp]
  00036	3b d0		 cmp	 edx, eax
  00038	76 0e		 jbe	 SHORT $LN5@Copy

; 1924 : 			;
; 1925 : 		else if (this->_Myres <= max_size() - this->_Myres / 2)

  0003a	6a fe		 push	 -2			; fffffffeH
  0003c	5f		 pop	 edi
  0003d	8b c7		 mov	 eax, edi
  0003f	2b c2		 sub	 eax, edx
  00041	3b c8		 cmp	 ecx, eax
  00043	77 03		 ja	 SHORT $LN5@Copy

; 1926 : 			_Newres = this->_Myres
; 1927 : 				+ this->_Myres / 2;	// grow exponentially if possible

  00045	8d 3c 0a	 lea	 edi, DWORD PTR [edx+ecx]
$LN5@Copy:

; 1928 : 		else
; 1929 : 			_Newres = max_size();	// settle for max_size()
; 1930 : 
; 1931 : 		_Elem *_Ptr;
; 1932 : 		_TRY_BEGIN

  00048	83 65 fc 00	 and	 DWORD PTR __$EHRec$[ebp+12], 0

; 1933 : 			_Ptr = this->_Alval.allocate(_Newres + 1);

  0004c	8d 47 01	 lea	 eax, DWORD PTR [edi+1]
  0004f	6a 00		 push	 0
  00051	50		 push	 eax
  00052	e8 00 00 00 00	 call	 ??$_Allocate@D@std@@YAPADIPAD@Z ; std::_Allocate<char>
  00057	59		 pop	 ecx
  00058	59		 pop	 ecx
  00059	89 45 08	 mov	 DWORD PTR __Ptr$[ebp], eax
  0005c	eb 27		 jmp	 SHORT $LN19@Copy
__catch$?_Copy@?$basic_string@DU?$char_traits@D@std@@V?$allocator@D@2@@std@@QAEXII@Z$0:

; 1934 : 		_CATCH_ALL
; 1935 : 			_Newres = _Newsize;	// allocation failed, undo roundup and retry

  0005e	8b 45 08	 mov	 eax, DWORD PTR __Newsize$[ebp]
  00061	89 65 f0	 mov	 DWORD PTR __$EHRec$[ebp], esp
  00064	89 45 ec	 mov	 DWORD PTR __Newres$[ebp], eax

; 1936 : 			_TRY_BEGIN
; 1937 : 				_Ptr = this->_Alval.allocate(_Newres + 1);

  00067	40		 inc	 eax
  00068	6a 00		 push	 0
  0006a	50		 push	 eax
  0006b	c6 45 fc 02	 mov	 BYTE PTR __$EHRec$[ebp+12], 2
  0006f	e8 00 00 00 00	 call	 ??$_Allocate@D@std@@YAPADIPAD@Z ; std::_Allocate<char>
  00074	59		 pop	 ecx
  00075	89 45 08	 mov	 DWORD PTR __Ptr$[ebp], eax
  00078	59		 pop	 ecx

; 1941 : 			_CATCH_END
; 1942 : 		_CATCH_END

  00079	b8 00 00 00 00	 mov	 eax, $LN63@Copy
  0007e	c3		 ret	 0
$LN63@Copy:
  0007f	8b 75 e8	 mov	 esi, DWORD PTR _this$[ebp]
  00082	8b 7d ec	 mov	 edi, DWORD PTR __Newres$[ebp]
$LN19@Copy:

; 1943 : 
; 1944 : 		if (0 < _Oldlen)

  00085	8b 5d 0c	 mov	 ebx, DWORD PTR __Oldlen$[ebp]
  00088	85 db		 test	 ebx, ebx
  0008a	74 19		 je	 SHORT $LN52@Copy

; 1945 : 			_Traits::copy(_Ptr, _Myptr(), _Oldlen);	// copy existing elements

  0008c	83 7e 14 10	 cmp	 DWORD PTR [esi+20], 16	; 00000010H
  00090	72 04		 jb	 SHORT $LN50@Copy
  00092	8b 06		 mov	 eax, DWORD PTR [esi]
  00094	eb 02		 jmp	 SHORT $LN51@Copy
$LN50@Copy:
  00096	8b c6		 mov	 eax, esi
$LN51@Copy:
  00098	53		 push	 ebx
  00099	50		 push	 eax
  0009a	ff 75 08	 push	 DWORD PTR __Ptr$[ebp]
  0009d	e8 00 00 00 00	 call	 _memcpy
  000a2	83 c4 0c	 add	 esp, 12			; 0000000cH
$LN52@Copy:

; 1946 : 		_Tidy(true);

  000a5	6a 00		 push	 0
  000a7	6a 01		 push	 1
  000a9	8b ce		 mov	 ecx, esi
  000ab	e8 00 00 00 00	 call	 ?_Tidy@?$basic_string@DU?$char_traits@D@std@@V?$allocator@D@2@@std@@QAEX_NI@Z ; std::basic_string<char,std::char_traits<char>,std::allocator<char> >::_Tidy

; 1947 : 		this->_Bx._Ptr = _Ptr;

  000b0	8b 45 08	 mov	 eax, DWORD PTR __Ptr$[ebp]
  000b3	89 06		 mov	 DWORD PTR [esi], eax

; 1948 : 		this->_Myres = _Newres;
; 1949 : 		_Eos(_Oldlen);

  000b5	83 ff 10	 cmp	 edi, 16			; 00000010H
  000b8	89 7e 14	 mov	 DWORD PTR [esi+20], edi
  000bb	89 5e 10	 mov	 DWORD PTR [esi+16], ebx
  000be	0f 42 c6	 cmovb	 eax, esi
  000c1	c6 04 18 00	 mov	 BYTE PTR [eax+ebx], 0

; 1950 : 		}

  000c5	e8 00 00 00 00	 call	 __EH_epilog3
  000ca	c2 08 00	 ret	 8
__catch$?_Copy@?$basic_string@DU?$char_traits@D@std@@V?$allocator@D@2@@std@@QAEXII@Z$1:

; 1938 : 			_CATCH_ALL
; 1939 : 			_Tidy(true);	// failed again, discard storage and reraise

  000cd	8b 4d e8	 mov	 ecx, DWORD PTR _this$[ebp]
  000d0	33 f6		 xor	 esi, esi
  000d2	56		 push	 esi
  000d3	6a 01		 push	 1
  000d5	e8 00 00 00 00	 call	 ?_Tidy@?$basic_string@DU?$char_traits@D@std@@V?$allocator@D@2@@std@@QAEX_NI@Z ; std::basic_string<char,std::char_traits<char>,std::allocator<char> >::_Tidy

; 1940 : 			_RERAISE;

  000da	56		 push	 esi
  000db	56		 push	 esi
  000dc	e8 00 00 00 00	 call	 __CxxThrowException@8
$LN67@Copy:
$LN66@Copy:
  000e1	cc		 int	 3
_TEXT	ENDS
;	COMDAT text$x
text$x	SEGMENT
__ehhandler$?_Copy@?$basic_string@DU?$char_traits@D@std@@V?$allocator@D@2@@std@@QAEXII@Z:
  00000	8b 54 24 08	 mov	 edx, DWORD PTR [esp+8]
  00004	8d 42 0c	 lea	 eax, DWORD PTR [edx+12]
  00007	8b 4a e4	 mov	 ecx, DWORD PTR [edx-28]
  0000a	33 c8		 xor	 ecx, eax
  0000c	e8 00 00 00 00	 call	 @__security_check_cookie@4
  00011	b8 00 00 00 00	 mov	 eax, OFFSET __ehfuncinfo$?_Copy@?$basic_string@DU?$char_traits@D@std@@V?$allocator@D@2@@std@@QAEXII@Z
  00016	e9 00 00 00 00	 jmp	 ___CxxFrameHandler3
text$x	ENDS
?_Copy@?$basic_string@DU?$char_traits@D@std@@V?$allocator@D@2@@std@@QAEXII@Z ENDP ; std::basic_string<char,std::char_traits<char>,std::allocator<char> >::_Copy
PUBLIC	?begin@?$vector@UItemListInfoSort@@V?$allocator@UItemListInfoSort@@@std@@@std@@QAE?AV?$_Vector_iterator@V?$_Vector_val@UItemListInfoSort@@V?$allocator@UItemListInfoSort@@@std@@@std@@@2@XZ ; std::vector<ItemListInfoSort,std::allocator<ItemListInfoSort> >::begin
; Function compile flags: /Ogsp
; File c:\program files (x86)\microsoft visual studio 10.0\vc\include\vector
;	COMDAT ?begin@?$vector@UItemListInfoSort@@V?$allocator@UItemListInfoSort@@@std@@@std@@QAE?AV?$_Vector_iterator@V?$_Vector_val@UItemListInfoSort@@V?$allocator@UItemListInfoSort@@@std@@@std@@@2@XZ
_TEXT	SEGMENT
___$ReturnUdt$ = 8					; size = 4
?begin@?$vector@UItemListInfoSort@@V?$allocator@UItemListInfoSort@@@std@@@std@@QAE?AV?$_Vector_iterator@V?$_Vector_val@UItemListInfoSort@@V?$allocator@UItemListInfoSort@@@std@@@std@@@2@XZ PROC ; std::vector<ItemListInfoSort,std::allocator<ItemListInfoSort> >::begin, COMDAT
; _this$ = ecx

; 781  : 		{	// return iterator for beginning of mutable sequence

  00000	55		 push	 ebp
  00001	8b ec		 mov	 ebp, esp

; 782  : 		return (iterator(this->_Myfirst, this));

  00003	8b 09		 mov	 ecx, DWORD PTR [ecx]
  00005	8b 45 08	 mov	 eax, DWORD PTR ___$ReturnUdt$[ebp]
  00008	89 08		 mov	 DWORD PTR [eax], ecx

; 783  : 		}

  0000a	5d		 pop	 ebp
  0000b	c2 04 00	 ret	 4
?begin@?$vector@UItemListInfoSort@@V?$allocator@UItemListInfoSort@@@std@@@std@@QAE?AV?$_Vector_iterator@V?$_Vector_val@UItemListInfoSort@@V?$allocator@UItemListInfoSort@@@std@@@std@@@2@XZ ENDP ; std::vector<ItemListInfoSort,std::allocator<ItemListInfoSort> >::begin
_TEXT	ENDS
PUBLIC	?end@?$vector@UItemListInfoSort@@V?$allocator@UItemListInfoSort@@@std@@@std@@QAE?AV?$_Vector_iterator@V?$_Vector_val@UItemListInfoSort@@V?$allocator@UItemListInfoSort@@@std@@@std@@@2@XZ ; std::vector<ItemListInfoSort,std::allocator<ItemListInfoSort> >::end
; Function compile flags: /Ogsp
;	COMDAT ?end@?$vector@UItemListInfoSort@@V?$allocator@UItemListInfoSort@@@std@@@std@@QAE?AV?$_Vector_iterator@V?$_Vector_val@UItemListInfoSort@@V?$allocator@UItemListInfoSort@@@std@@@std@@@2@XZ
_TEXT	SEGMENT
___$ReturnUdt$ = 8					; size = 4
?end@?$vector@UItemListInfoSort@@V?$allocator@UItemListInfoSort@@@std@@@std@@QAE?AV?$_Vector_iterator@V?$_Vector_val@UItemListInfoSort@@V?$allocator@UItemListInfoSort@@@std@@@std@@@2@XZ PROC ; std::vector<ItemListInfoSort,std::allocator<ItemListInfoSort> >::end, COMDAT
; _this$ = ecx

; 791  : 		{	// return iterator for end of mutable sequence

  00000	55		 push	 ebp
  00001	8b ec		 mov	 ebp, esp

; 792  : 		return (iterator(this->_Mylast, this));

  00003	8b 49 04	 mov	 ecx, DWORD PTR [ecx+4]
  00006	8b 45 08	 mov	 eax, DWORD PTR ___$ReturnUdt$[ebp]
  00009	89 08		 mov	 DWORD PTR [eax], ecx

; 793  : 		}

  0000b	5d		 pop	 ebp
  0000c	c2 04 00	 ret	 4
?end@?$vector@UItemListInfoSort@@V?$allocator@UItemListInfoSort@@@std@@@std@@QAE?AV?$_Vector_iterator@V?$_Vector_val@UItemListInfoSort@@V?$allocator@UItemListInfoSort@@@std@@@std@@@2@XZ ENDP ; std::vector<ItemListInfoSort,std::allocator<ItemListInfoSort> >::end
_TEXT	ENDS
PUBLIC	?begin@?$vector@V?$basic_string@DU?$char_traits@D@std@@V?$allocator@D@2@@std@@V?$allocator@V?$basic_string@DU?$char_traits@D@std@@V?$allocator@D@2@@std@@@2@@std@@QAE?AV?$_Vector_iterator@V?$_Vector_val@V?$basic_string@DU?$char_traits@D@std@@V?$allocator@D@2@@std@@V?$allocator@V?$basic_string@DU?$char_traits@D@std@@V?$allocator@D@2@@std@@@2@@std@@@2@XZ ; std::vector<std::basic_string<char,std::char_traits<char>,std::allocator<char> >,std::allocator<std::basic_string<char,std::char_traits<char>,std::allocator<char> > > >::begin
; Function compile flags: /Ogsp
;	COMDAT ?begin@?$vector@V?$basic_string@DU?$char_traits@D@std@@V?$allocator@D@2@@std@@V?$allocator@V?$basic_string@DU?$char_traits@D@std@@V?$allocator@D@2@@std@@@2@@std@@QAE?AV?$_Vector_iterator@V?$_Vector_val@V?$basic_string@DU?$char_traits@D@std@@V?$allocator@D@2@@std@@V?$allocator@V?$basic_string@DU?$char_traits@D@std@@V?$allocator@D@2@@std@@@2@@std@@@2@XZ
_TEXT	SEGMENT
___$ReturnUdt$ = 8					; size = 4
?begin@?$vector@V?$basic_string@DU?$char_traits@D@std@@V?$allocator@D@2@@std@@V?$allocator@V?$basic_string@DU?$char_traits@D@std@@V?$allocator@D@2@@std@@@2@@std@@QAE?AV?$_Vector_iterator@V?$_Vector_val@V?$basic_string@DU?$char_traits@D@std@@V?$allocator@D@2@@std@@V?$allocator@V?$basic_string@DU?$char_traits@D@std@@V?$allocator@D@2@@std@@@2@@std@@@2@XZ PROC ; std::vector<std::basic_string<char,std::char_traits<char>,std::allocator<char> >,std::allocator<std::basic_string<char,std::char_traits<char>,std::allocator<char> > > >::begin, COMDAT
; _this$ = ecx

; 781  : 		{	// return iterator for beginning of mutable sequence

  00000	55		 push	 ebp
  00001	8b ec		 mov	 ebp, esp

; 782  : 		return (iterator(this->_Myfirst, this));

  00003	8b 09		 mov	 ecx, DWORD PTR [ecx]
  00005	8b 45 08	 mov	 eax, DWORD PTR ___$ReturnUdt$[ebp]
  00008	89 08		 mov	 DWORD PTR [eax], ecx

; 783  : 		}

  0000a	5d		 pop	 ebp
  0000b	c2 04 00	 ret	 4
?begin@?$vector@V?$basic_string@DU?$char_traits@D@std@@V?$allocator@D@2@@std@@V?$allocator@V?$basic_string@DU?$char_traits@D@std@@V?$allocator@D@2@@std@@@2@@std@@QAE?AV?$_Vector_iterator@V?$_Vector_val@V?$basic_string@DU?$char_traits@D@std@@V?$allocator@D@2@@std@@V?$allocator@V?$basic_string@DU?$char_traits@D@std@@V?$allocator@D@2@@std@@@2@@std@@@2@XZ ENDP ; std::vector<std::basic_string<char,std::char_traits<char>,std::allocator<char> >,std::allocator<std::basic_string<char,std::char_traits<char>,std::allocator<char> > > >::begin
_TEXT	ENDS
PUBLIC	?end@?$vector@V?$basic_string@DU?$char_traits@D@std@@V?$allocator@D@2@@std@@V?$allocator@V?$basic_string@DU?$char_traits@D@std@@V?$allocator@D@2@@std@@@2@@std@@QAE?AV?$_Vector_iterator@V?$_Vector_val@V?$basic_string@DU?$char_traits@D@std@@V?$allocator@D@2@@std@@V?$allocator@V?$basic_string@DU?$char_traits@D@std@@V?$allocator@D@2@@std@@@2@@std@@@2@XZ ; std::vector<std::basic_string<char,std::char_traits<char>,std::allocator<char> >,std::allocator<std::basic_string<char,std::char_traits<char>,std::allocator<char> > > >::end
; Function compile flags: /Ogsp
;	COMDAT ?end@?$vector@V?$basic_string@DU?$char_traits@D@std@@V?$allocator@D@2@@std@@V?$allocator@V?$basic_string@DU?$char_traits@D@std@@V?$allocator@D@2@@std@@@2@@std@@QAE?AV?$_Vector_iterator@V?$_Vector_val@V?$basic_string@DU?$char_traits@D@std@@V?$allocator@D@2@@std@@V?$allocator@V?$basic_string@DU?$char_traits@D@std@@V?$allocator@D@2@@std@@@2@@std@@@2@XZ
_TEXT	SEGMENT
___$ReturnUdt$ = 8					; size = 4
?end@?$vector@V?$basic_string@DU?$char_traits@D@std@@V?$allocator@D@2@@std@@V?$allocator@V?$basic_string@DU?$char_traits@D@std@@V?$allocator@D@2@@std@@@2@@std@@QAE?AV?$_Vector_iterator@V?$_Vector_val@V?$basic_string@DU?$char_traits@D@std@@V?$allocator@D@2@@std@@V?$allocator@V?$basic_string@DU?$char_traits@D@std@@V?$allocator@D@2@@std@@@2@@std@@@2@XZ PROC ; std::vector<std::basic_string<char,std::char_traits<char>,std::allocator<char> >,std::allocator<std::basic_string<char,std::char_traits<char>,std::allocator<char> > > >::end, COMDAT
; _this$ = ecx

; 791  : 		{	// return iterator for end of mutable sequence

  00000	55		 push	 ebp
  00001	8b ec		 mov	 ebp, esp

; 792  : 		return (iterator(this->_Mylast, this));

  00003	8b 49 04	 mov	 ecx, DWORD PTR [ecx+4]
  00006	8b 45 08	 mov	 eax, DWORD PTR ___$ReturnUdt$[ebp]
  00009	89 08		 mov	 DWORD PTR [eax], ecx

; 793  : 		}

  0000b	5d		 pop	 ebp
  0000c	c2 04 00	 ret	 4
?end@?$vector@V?$basic_string@DU?$char_traits@D@std@@V?$allocator@D@2@@std@@V?$allocator@V?$basic_string@DU?$char_traits@D@std@@V?$allocator@D@2@@std@@@2@@std@@QAE?AV?$_Vector_iterator@V?$_Vector_val@V?$basic_string@DU?$char_traits@D@std@@V?$allocator@D@2@@std@@V?$allocator@V?$basic_string@DU?$char_traits@D@std@@V?$allocator@D@2@@std@@@2@@std@@@2@XZ ENDP ; std::vector<std::basic_string<char,std::char_traits<char>,std::allocator<char> >,std::allocator<std::basic_string<char,std::char_traits<char>,std::allocator<char> > > >::end
_TEXT	ENDS
PUBLIC	?_Make_iter@?$vector@V?$basic_string@DU?$char_traits@D@std@@V?$allocator@D@2@@std@@V?$allocator@V?$basic_string@DU?$char_traits@D@std@@V?$allocator@D@2@@std@@@2@@std@@QBE?AV?$_Vector_iterator@V?$_Vector_val@V?$basic_string@DU?$char_traits@D@std@@V?$allocator@D@2@@std@@V?$allocator@V?$basic_string@DU?$char_traits@D@std@@V?$allocator@D@2@@std@@@2@@std@@@2@V?$_Vector_const_iterator@V?$_Vector_val@V?$basic_string@DU?$char_traits@D@std@@V?$allocator@D@2@@std@@V?$allocator@V?$basic_string@DU?$char_traits@D@std@@V?$allocator@D@2@@std@@@2@@std@@@2@@Z ; std::vector<std::basic_string<char,std::char_traits<char>,std::allocator<char> >,std::allocator<std::basic_string<char,std::char_traits<char>,std::allocator<char> > > >::_Make_iter
; Function compile flags: /Ogsp
;	COMDAT ?_Make_iter@?$vector@V?$basic_string@DU?$char_traits@D@std@@V?$allocator@D@2@@std@@V?$allocator@V?$basic_string@DU?$char_traits@D@std@@V?$allocator@D@2@@std@@@2@@std@@QBE?AV?$_Vector_iterator@V?$_Vector_val@V?$basic_string@DU?$char_traits@D@std@@V?$allocator@D@2@@std@@V?$allocator@V?$basic_string@DU?$char_traits@D@std@@V?$allocator@D@2@@std@@@2@@std@@@2@V?$_Vector_const_iterator@V?$_Vector_val@V?$basic_string@DU?$char_traits@D@std@@V?$allocator@D@2@@std@@V?$allocator@V?$basic_string@DU?$char_traits@D@std@@V?$allocator@D@2@@std@@@2@@std@@@2@@Z
_TEXT	SEGMENT
___$ReturnUdt$ = 8					; size = 4
__Where$ = 12						; size = 4
?_Make_iter@?$vector@V?$basic_string@DU?$char_traits@D@std@@V?$allocator@D@2@@std@@V?$allocator@V?$basic_string@DU?$char_traits@D@std@@V?$allocator@D@2@@std@@@2@@std@@QBE?AV?$_Vector_iterator@V?$_Vector_val@V?$basic_string@DU?$char_traits@D@std@@V?$allocator@D@2@@std@@V?$allocator@V?$basic_string@DU?$char_traits@D@std@@V?$allocator@D@2@@std@@@2@@std@@@2@V?$_Vector_const_iterator@V?$_Vector_val@V?$basic_string@DU?$char_traits@D@std@@V?$allocator@D@2@@std@@V?$allocator@V?$basic_string@DU?$char_traits@D@std@@V?$allocator@D@2@@std@@@2@@std@@@2@@Z PROC ; std::vector<std::basic_string<char,std::char_traits<char>,std::allocator<char> >,std::allocator<std::basic_string<char,std::char_traits<char>,std::allocator<char> > > >::_Make_iter, COMDAT
; _this$ = ecx

; 801  : 		{	// make iterator from const_iterator

  00000	55		 push	 ebp
  00001	8b ec		 mov	 ebp, esp

; 802  : 		return (iterator(_Where._Ptr, this));

  00003	8b 45 08	 mov	 eax, DWORD PTR ___$ReturnUdt$[ebp]
  00006	8b 4d 0c	 mov	 ecx, DWORD PTR __Where$[ebp]
  00009	89 08		 mov	 DWORD PTR [eax], ecx

; 803  : 		}

  0000b	5d		 pop	 ebp
  0000c	c2 08 00	 ret	 8
?_Make_iter@?$vector@V?$basic_string@DU?$char_traits@D@std@@V?$allocator@D@2@@std@@V?$allocator@V?$basic_string@DU?$char_traits@D@std@@V?$allocator@D@2@@std@@@2@@std@@QBE?AV?$_Vector_iterator@V?$_Vector_val@V?$basic_string@DU?$char_traits@D@std@@V?$allocator@D@2@@std@@V?$allocator@V?$basic_string@DU?$char_traits@D@std@@V?$allocator@D@2@@std@@@2@@std@@@2@V?$_Vector_const_iterator@V?$_Vector_val@V?$basic_string@DU?$char_traits@D@std@@V?$allocator@D@2@@std@@V?$allocator@V?$basic_string@DU?$char_traits@D@std@@V?$allocator@D@2@@std@@@2@@std@@@2@@Z ENDP ; std::vector<std::basic_string<char,std::char_traits<char>,std::allocator<char> >,std::allocator<std::basic_string<char,std::char_traits<char>,std::allocator<char> > > >::_Make_iter
_TEXT	ENDS
PUBLIC	??$_Destroy_range@V?$allocator@UItemListInfoSort@@@std@@@std@@YAXPAUItemListInfoSort@@0AAV?$allocator@UItemListInfoSort@@@0@U_Nonscalar_ptr_iterator_tag@0@@Z ; std::_Destroy_range<std::allocator<ItemListInfoSort> >
; Function compile flags: /Ogsp
; File c:\program files (x86)\microsoft visual studio 10.0\vc\include\xmemory
;	COMDAT ??$_Destroy_range@V?$allocator@UItemListInfoSort@@@std@@@std@@YAXPAUItemListInfoSort@@0AAV?$allocator@UItemListInfoSort@@@0@U_Nonscalar_ptr_iterator_tag@0@@Z
_TEXT	SEGMENT
__First$ = 8						; size = 4
__Last$ = 12						; size = 4
__Al$ = 16						; size = 4
___formal$ = 20						; size = 1
??$_Destroy_range@V?$allocator@UItemListInfoSort@@@std@@@std@@YAXPAUItemListInfoSort@@0AAV?$allocator@UItemListInfoSort@@@0@U_Nonscalar_ptr_iterator_tag@0@@Z PROC ; std::_Destroy_range<std::allocator<ItemListInfoSort> >, COMDAT

; 96   : 	for (; _First != _Last; ++_First)
; 97   : 		_Dest_val(_Al, _First);
; 98   : 	}

  00000	c3		 ret	 0
??$_Destroy_range@V?$allocator@UItemListInfoSort@@@std@@@std@@YAXPAUItemListInfoSort@@0AAV?$allocator@UItemListInfoSort@@@0@U_Nonscalar_ptr_iterator_tag@0@@Z ENDP ; std::_Destroy_range<std::allocator<ItemListInfoSort> >
_TEXT	ENDS
PUBLIC	??$make_heap@PAUItemListInfoSort@@VShopExtraItemSort@@@std@@YAXPAUItemListInfoSort@@0VShopExtraItemSort@@@Z ; std::make_heap<ItemListInfoSort *,ShopExtraItemSort>
; Function compile flags: /Ogsp
; File c:\program files (x86)\microsoft visual studio 10.0\vc\include\algorithm
;	COMDAT ??$make_heap@PAUItemListInfoSort@@VShopExtraItemSort@@@std@@YAXPAUItemListInfoSort@@0VShopExtraItemSort@@@Z
_TEXT	SEGMENT
__First$ = 8						; size = 4
__Last$ = 12						; size = 4
__Pred$ = 16						; size = 1
??$make_heap@PAUItemListInfoSort@@VShopExtraItemSort@@@std@@YAXPAUItemListInfoSort@@0VShopExtraItemSort@@@Z PROC ; std::make_heap<ItemListInfoSort *,ShopExtraItemSort>, COMDAT

; 2672 : 	{	// make [_First, _Last) into a heap, using _Pred

  00000	55		 push	 ebp
  00001	8b ec		 mov	 ebp, esp

; 2673 : 	_DEBUG_RANGE(_First, _Last);
; 2674 : 	_DEBUG_POINTER(_Pred);
; 2675 : 	if (1 < _Last - _First)

  00003	8b 45 0c	 mov	 eax, DWORD PTR __Last$[ebp]
  00006	2b 45 08	 sub	 eax, DWORD PTR __First$[ebp]
  00009	6a 14		 push	 20			; 00000014H
  0000b	99		 cdq
  0000c	59		 pop	 ecx
  0000d	f7 f9		 idiv	 ecx
  0000f	83 f8 01	 cmp	 eax, 1
  00012	7e 15		 jle	 SHORT $LN1@make_heap

; 2676 : 		_Make_heap(_Unchecked(_First), _Unchecked(_Last), _Pred,
; 2677 : 			_Dist_type(_First), _Val_type(_First));

  00014	6a 00		 push	 0
  00016	6a 00		 push	 0
  00018	ff 75 10	 push	 DWORD PTR __Pred$[ebp]
  0001b	ff 75 0c	 push	 DWORD PTR __Last$[ebp]
  0001e	ff 75 08	 push	 DWORD PTR __First$[ebp]
  00021	e8 00 00 00 00	 call	 ??$_Make_heap@PAUItemListInfoSort@@HU1@VShopExtraItemSort@@@std@@YAXPAUItemListInfoSort@@0VShopExtraItemSort@@PAH0@Z ; std::_Make_heap<ItemListInfoSort *,int,ItemListInfoSort,ShopExtraItemSort>
  00026	83 c4 14	 add	 esp, 20			; 00000014H
$LN1@make_heap:

; 2678 : 	}

  00029	5d		 pop	 ebp
  0002a	c3		 ret	 0
??$make_heap@PAUItemListInfoSort@@VShopExtraItemSort@@@std@@YAXPAUItemListInfoSort@@0VShopExtraItemSort@@@Z ENDP ; std::make_heap<ItemListInfoSort *,ShopExtraItemSort>
_TEXT	ENDS
PUBLIC	??$_Insertion_sort@PAUItemListInfoSort@@VShopExtraItemSort@@@std@@YAXPAUItemListInfoSort@@0VShopExtraItemSort@@@Z ; std::_Insertion_sort<ItemListInfoSort *,ShopExtraItemSort>
; Function compile flags: /Ogsp
;	COMDAT ??$_Insertion_sort@PAUItemListInfoSort@@VShopExtraItemSort@@@std@@YAXPAUItemListInfoSort@@0VShopExtraItemSort@@@Z
_TEXT	SEGMENT
__First$ = 8						; size = 4
__Last$ = 12						; size = 4
__Pred$ = 16						; size = 1
??$_Insertion_sort@PAUItemListInfoSort@@VShopExtraItemSort@@@std@@YAXPAUItemListInfoSort@@0VShopExtraItemSort@@@Z PROC ; std::_Insertion_sort<ItemListInfoSort *,ShopExtraItemSort>, COMDAT

; 3676 : 	{	// insertion sort [_First, _Last), using _Pred

  00000	55		 push	 ebp
  00001	8b ec		 mov	 ebp, esp

; 3677 : 	_Insertion_sort1(_First, _Last, _Pred, _Val_type(_First));

  00003	6a 00		 push	 0
  00005	ff 75 10	 push	 DWORD PTR __Pred$[ebp]
  00008	ff 75 0c	 push	 DWORD PTR __Last$[ebp]
  0000b	ff 75 08	 push	 DWORD PTR __First$[ebp]
  0000e	e8 00 00 00 00	 call	 ??$_Insertion_sort1@PAUItemListInfoSort@@VShopExtraItemSort@@U1@@std@@YAXPAUItemListInfoSort@@0VShopExtraItemSort@@0@Z ; std::_Insertion_sort1<ItemListInfoSort *,ShopExtraItemSort,ItemListInfoSort>
  00013	83 c4 10	 add	 esp, 16			; 00000010H

; 3678 : 	}

  00016	5d		 pop	 ebp
  00017	c3		 ret	 0
??$_Insertion_sort@PAUItemListInfoSort@@VShopExtraItemSort@@@std@@YAXPAUItemListInfoSort@@0VShopExtraItemSort@@@Z ENDP ; std::_Insertion_sort<ItemListInfoSort *,ShopExtraItemSort>
_TEXT	ENDS
PUBLIC	??$_Uninit_move@PAUItemListInfoSort@@PAU1@V?$allocator@UItemListInfoSort@@@std@@U1@@std@@YAPAUItemListInfoSort@@PAU1@00AAV?$allocator@UItemListInfoSort@@@0@0U_Nonscalar_ptr_iterator_tag@0@@Z ; std::_Uninit_move<ItemListInfoSort *,ItemListInfoSort *,std::allocator<ItemListInfoSort>,ItemListInfoSort>
; Function compile flags: /Ogsp
; File c:\program files (x86)\microsoft visual studio 10.0\vc\include\memory
;	COMDAT ??$_Uninit_move@PAUItemListInfoSort@@PAU1@V?$allocator@UItemListInfoSort@@@std@@U1@@std@@YAPAUItemListInfoSort@@PAU1@00AAV?$allocator@UItemListInfoSort@@@0@0U_Nonscalar_ptr_iterator_tag@0@@Z
_TEXT	SEGMENT
__First$ = 8						; size = 4
__Last$ = 12						; size = 4
__Dest$ = 16						; size = 4
__Al$ = 20						; size = 4
___formal$ = 24						; size = 4
___formal$ = 28						; size = 1
??$_Uninit_move@PAUItemListInfoSort@@PAU1@V?$allocator@UItemListInfoSort@@@std@@U1@@std@@YAPAUItemListInfoSort@@PAU1@00AAV?$allocator@UItemListInfoSort@@@0@0U_Nonscalar_ptr_iterator_tag@0@@Z PROC ; std::_Uninit_move<ItemListInfoSort *,ItemListInfoSort *,std::allocator<ItemListInfoSort>,ItemListInfoSort>, COMDAT

; 424  : 	{	// move [_First, _Last) to raw _Dest, using _Al, arbitrary type

  00000	55		 push	 ebp
  00001	8b ec		 mov	 ebp, esp
  00003	56		 push	 esi

; 425  : 	_DEBUG_RANGE(_First, _Last);
; 426  : 	_DEBUG_POINTER(_Dest);
; 427  : 	_FwdIt _Next = _Dest;
; 428  : 
; 429  : 	_TRY_BEGIN
; 430  : 	for (; _First != _Last; ++_Dest, ++_First)

  00004	8b 75 08	 mov	 esi, DWORD PTR __First$[ebp]
  00007	eb 16		 jmp	 SHORT $LN24@Uninit_mov
$LL6@Uninit_mov:

; 431  : 		_Cons_val(_Al, _Dest, (_Valty &&)*_First);

  00009	56		 push	 esi
  0000a	ff 75 10	 push	 DWORD PTR __Dest$[ebp]
  0000d	ff 75 14	 push	 DWORD PTR __Al$[ebp]
  00010	e8 00 00 00 00	 call	 ??$_Cons_val@V?$allocator@UItemListInfoSort@@@std@@UItemListInfoSort@@U3@@std@@YAXAAV?$allocator@UItemListInfoSort@@@0@PAUItemListInfoSort@@$$QAU2@@Z ; std::_Cons_val<std::allocator<ItemListInfoSort>,ItemListInfoSort,ItemListInfoSort>
  00015	83 45 10 14	 add	 DWORD PTR __Dest$[ebp], 20 ; 00000014H
  00019	83 c4 0c	 add	 esp, 12			; 0000000cH
  0001c	83 c6 14	 add	 esi, 20			; 00000014H
$LN24@Uninit_mov:

; 425  : 	_DEBUG_RANGE(_First, _Last);
; 426  : 	_DEBUG_POINTER(_Dest);
; 427  : 	_FwdIt _Next = _Dest;
; 428  : 
; 429  : 	_TRY_BEGIN
; 430  : 	for (; _First != _Last; ++_Dest, ++_First)

  0001f	3b 75 0c	 cmp	 esi, DWORD PTR __Last$[ebp]
  00022	75 e5		 jne	 SHORT $LL6@Uninit_mov

; 432  : 	_CATCH_ALL
; 433  : 	for (; _Next != _Dest; ++_Next)
; 434  : 		_Dest_val(_Al, _Next);
; 435  : 	_RERAISE;
; 436  : 	_CATCH_END
; 437  : 	return (_Dest);

  00024	8b 45 10	 mov	 eax, DWORD PTR __Dest$[ebp]
  00027	5e		 pop	 esi

; 438  : 	}

  00028	5d		 pop	 ebp
  00029	c3		 ret	 0
??$_Uninit_move@PAUItemListInfoSort@@PAU1@V?$allocator@UItemListInfoSort@@@std@@U1@@std@@YAPAUItemListInfoSort@@PAU1@00AAV?$allocator@UItemListInfoSort@@@0@0U_Nonscalar_ptr_iterator_tag@0@@Z ENDP ; std::_Uninit_move<ItemListInfoSort *,ItemListInfoSort *,std::allocator<ItemListInfoSort>,ItemListInfoSort>
_TEXT	ENDS
PUBLIC	??$_Median@PAUItemListInfoSort@@VShopExtraItemSort@@@std@@YAXPAUItemListInfoSort@@00VShopExtraItemSort@@@Z ; std::_Median<ItemListInfoSort *,ShopExtraItemSort>
; Function compile flags: /Ogsp
; File c:\program files (x86)\microsoft visual studio 10.0\vc\include\algorithm
;	COMDAT ??$_Median@PAUItemListInfoSort@@VShopExtraItemSort@@@std@@YAXPAUItemListInfoSort@@00VShopExtraItemSort@@@Z
_TEXT	SEGMENT
tv200 = 8						; size = 4
__First$ = 8						; size = 4
__Mid$ = 12						; size = 4
tv203 = 16						; size = 4
__Last$ = 16						; size = 4
__Pred$ = 20						; size = 1
??$_Median@PAUItemListInfoSort@@VShopExtraItemSort@@@std@@YAXPAUItemListInfoSort@@00VShopExtraItemSort@@@Z PROC ; std::_Median<ItemListInfoSort *,ShopExtraItemSort>, COMDAT

; 3695 : 	{	// sort median element to middle

  00000	55		 push	 ebp
  00001	8b ec		 mov	 ebp, esp

; 3696 : 	if (40 < _Last - _First)

  00003	8b 4d 08	 mov	 ecx, DWORD PTR __First$[ebp]
  00006	53		 push	 ebx
  00007	8b 5d 10	 mov	 ebx, DWORD PTR __Last$[ebp]
  0000a	56		 push	 esi
  0000b	8b c3		 mov	 eax, ebx
  0000d	2b c1		 sub	 eax, ecx
  0000f	6a 14		 push	 20			; 00000014H
  00011	99		 cdq
  00012	5e		 pop	 esi
  00013	f7 fe		 idiv	 esi
  00015	83 f8 28	 cmp	 eax, 40			; 00000028H
  00018	7e 68		 jle	 SHORT $LN2@Median

; 3697 : 		{	// median of nine
; 3698 : 		size_t _Step = (_Last - _First + 1) / 8;

  0001a	40		 inc	 eax
  0001b	99		 cdq
  0001c	83 e2 07	 and	 edx, 7
  0001f	03 c2		 add	 eax, edx
  00021	57		 push	 edi

; 3699 : 		_Med3(_First, _First + _Step, _First + 2 * _Step, _Pred);

  00022	ff 75 14	 push	 DWORD PTR __Pred$[ebp]
  00025	c1 f8 03	 sar	 eax, 3
  00028	8b f8		 mov	 edi, eax
  0002a	8b f0		 mov	 esi, eax
  0002c	6b ff 28	 imul	 edi, 40			; 00000028H
  0002f	6b f6 14	 imul	 esi, 20			; 00000014H
  00032	8d 14 0f	 lea	 edx, DWORD PTR [edi+ecx]
  00035	8d 04 0e	 lea	 eax, DWORD PTR [esi+ecx]
  00038	52		 push	 edx
  00039	50		 push	 eax
  0003a	51		 push	 ecx
  0003b	89 45 08	 mov	 DWORD PTR tv200[ebp], eax
  0003e	e8 00 00 00 00	 call	 ??$_Med3@PAUItemListInfoSort@@VShopExtraItemSort@@@std@@YAXPAUItemListInfoSort@@00VShopExtraItemSort@@@Z ; std::_Med3<ItemListInfoSort *,ShopExtraItemSort>

; 3700 : 		_Med3(_Mid - _Step, _Mid, _Mid + _Step, _Pred);

  00043	8b 45 0c	 mov	 eax, DWORD PTR __Mid$[ebp]
  00046	ff 75 14	 push	 DWORD PTR __Pred$[ebp]
  00049	8d 0c 06	 lea	 ecx, DWORD PTR [esi+eax]
  0004c	51		 push	 ecx
  0004d	50		 push	 eax
  0004e	2b c6		 sub	 eax, esi
  00050	50		 push	 eax
  00051	e8 00 00 00 00	 call	 ??$_Med3@PAUItemListInfoSort@@VShopExtraItemSort@@@std@@YAXPAUItemListInfoSort@@00VShopExtraItemSort@@@Z ; std::_Med3<ItemListInfoSort *,ShopExtraItemSort>

; 3701 : 		_Med3(_Last - 2 * _Step, _Last - _Step, _Last, _Pred);

  00056	ff 75 14	 push	 DWORD PTR __Pred$[ebp]
  00059	89 5d 10	 mov	 DWORD PTR tv203[ebp], ebx
  0005c	29 75 10	 sub	 DWORD PTR tv203[ebp], esi
  0005f	53		 push	 ebx
  00060	ff 75 10	 push	 DWORD PTR tv203[ebp]
  00063	2b df		 sub	 ebx, edi
  00065	53		 push	 ebx
  00066	e8 00 00 00 00	 call	 ??$_Med3@PAUItemListInfoSort@@VShopExtraItemSort@@@std@@YAXPAUItemListInfoSort@@00VShopExtraItemSort@@@Z ; std::_Med3<ItemListInfoSort *,ShopExtraItemSort>

; 3702 : 		_Med3(_First + _Step, _Mid, _Last - _Step, _Pred);

  0006b	ff 75 14	 push	 DWORD PTR __Pred$[ebp]
  0006e	ff 75 10	 push	 DWORD PTR tv203[ebp]
  00071	ff 75 0c	 push	 DWORD PTR __Mid$[ebp]
  00074	ff 75 08	 push	 DWORD PTR tv200[ebp]
  00077	e8 00 00 00 00	 call	 ??$_Med3@PAUItemListInfoSort@@VShopExtraItemSort@@@std@@YAXPAUItemListInfoSort@@00VShopExtraItemSort@@@Z ; std::_Med3<ItemListInfoSort *,ShopExtraItemSort>
  0007c	83 c4 40	 add	 esp, 64			; 00000040H
  0007f	5f		 pop	 edi

; 3703 : 		}
; 3704 : 	else

  00080	eb 10		 jmp	 SHORT $LN1@Median
$LN2@Median:

; 3705 : 		_Med3(_First, _Mid, _Last, _Pred);

  00082	ff 75 14	 push	 DWORD PTR __Pred$[ebp]
  00085	53		 push	 ebx
  00086	ff 75 0c	 push	 DWORD PTR __Mid$[ebp]
  00089	51		 push	 ecx
  0008a	e8 00 00 00 00	 call	 ??$_Med3@PAUItemListInfoSort@@VShopExtraItemSort@@@std@@YAXPAUItemListInfoSort@@00VShopExtraItemSort@@@Z ; std::_Med3<ItemListInfoSort *,ShopExtraItemSort>
  0008f	83 c4 10	 add	 esp, 16			; 00000010H
$LN1@Median:
  00092	5e		 pop	 esi
  00093	5b		 pop	 ebx

; 3706 : 	}

  00094	5d		 pop	 ebp
  00095	c3		 ret	 0
??$_Median@PAUItemListInfoSort@@VShopExtraItemSort@@@std@@YAXPAUItemListInfoSort@@00VShopExtraItemSort@@@Z ENDP ; std::_Median<ItemListInfoSort *,ShopExtraItemSort>
_TEXT	ENDS
PUBLIC	??$_Pop_heap@PAUItemListInfoSort@@VShopExtraItemSort@@@std@@YAXPAUItemListInfoSort@@0VShopExtraItemSort@@@Z ; std::_Pop_heap<ItemListInfoSort *,ShopExtraItemSort>
; Function compile flags: /Ogsp
;	COMDAT ??$_Pop_heap@PAUItemListInfoSort@@VShopExtraItemSort@@@std@@YAXPAUItemListInfoSort@@0VShopExtraItemSort@@@Z
_TEXT	SEGMENT
__First$ = 8						; size = 4
__Last$ = 12						; size = 4
__Pred$ = 16						; size = 1
??$_Pop_heap@PAUItemListInfoSort@@VShopExtraItemSort@@@std@@YAXPAUItemListInfoSort@@0VShopExtraItemSort@@@Z PROC ; std::_Pop_heap<ItemListInfoSort *,ShopExtraItemSort>, COMDAT

; 2610 : 	{	// pop *_First to *(_Last - 1) and reheap, using _Pred

  00000	55		 push	 ebp
  00001	8b ec		 mov	 ebp, esp

; 2611 : 	_Pop_heap_0(_Unchecked(_First), _Unchecked(_Last), _Pred,
; 2612 : 		_Val_type(_First));

  00003	6a 00		 push	 0
  00005	ff 75 10	 push	 DWORD PTR __Pred$[ebp]
  00008	ff 75 0c	 push	 DWORD PTR __Last$[ebp]
  0000b	ff 75 08	 push	 DWORD PTR __First$[ebp]
  0000e	e8 00 00 00 00	 call	 ??$_Pop_heap_0@PAUItemListInfoSort@@U1@VShopExtraItemSort@@@std@@YAXPAUItemListInfoSort@@0VShopExtraItemSort@@0@Z ; std::_Pop_heap_0<ItemListInfoSort *,ItemListInfoSort,ShopExtraItemSort>
  00013	83 c4 10	 add	 esp, 16			; 00000010H

; 2613 : 	}

  00016	5d		 pop	 ebp
  00017	c3		 ret	 0
??$_Pop_heap@PAUItemListInfoSort@@VShopExtraItemSort@@@std@@YAXPAUItemListInfoSort@@0VShopExtraItemSort@@@Z ENDP ; std::_Pop_heap<ItemListInfoSort *,ShopExtraItemSort>
_TEXT	ENDS
PUBLIC	??1?$basic_string@DU?$char_traits@D@std@@V?$allocator@D@2@@std@@QAE@XZ ; std::basic_string<char,std::char_traits<char>,std::allocator<char> >::~basic_string<char,std::char_traits<char>,std::allocator<char> >
; Function compile flags: /Ogsp
; File c:\program files (x86)\microsoft visual studio 10.0\vc\include\xstring
;	COMDAT ??1?$basic_string@DU?$char_traits@D@std@@V?$allocator@D@2@@std@@QAE@XZ
_TEXT	SEGMENT
??1?$basic_string@DU?$char_traits@D@std@@V?$allocator@D@2@@std@@QAE@XZ PROC ; std::basic_string<char,std::char_traits<char>,std::allocator<char> >::~basic_string<char,std::char_traits<char>,std::allocator<char> >, COMDAT
; _this$ = ecx

; 754  : 		_Tidy(true);

  00000	6a 00		 push	 0
  00002	6a 01		 push	 1
  00004	e8 00 00 00 00	 call	 ?_Tidy@?$basic_string@DU?$char_traits@D@std@@V?$allocator@D@2@@std@@QAEX_NI@Z ; std::basic_string<char,std::char_traits<char>,std::allocator<char> >::_Tidy

; 755  : 		}

  00009	c3		 ret	 0
??1?$basic_string@DU?$char_traits@D@std@@V?$allocator@D@2@@std@@QAE@XZ ENDP ; std::basic_string<char,std::char_traits<char>,std::allocator<char> >::~basic_string<char,std::char_traits<char>,std::allocator<char> >
_TEXT	ENDS
PUBLIC	?_Grow@?$basic_string@DU?$char_traits@D@std@@V?$allocator@D@2@@std@@QAE_NI_N@Z ; std::basic_string<char,std::char_traits<char>,std::allocator<char> >::_Grow
; Function compile flags: /Ogsp
;	COMDAT ?_Grow@?$basic_string@DU?$char_traits@D@std@@V?$allocator@D@2@@std@@QAE_NI_N@Z
_TEXT	SEGMENT
__Newsize$ = 8						; size = 4
__Trim$ = 12						; size = 1
?_Grow@?$basic_string@DU?$char_traits@D@std@@V?$allocator@D@2@@std@@QAE_NI_N@Z PROC ; std::basic_string<char,std::char_traits<char>,std::allocator<char> >::_Grow, COMDAT
; _this$ = ecx

; 1959 : 		{	// ensure buffer is big enough, trim to size if _Trim is true

  00000	55		 push	 ebp
  00001	8b ec		 mov	 ebp, esp
  00003	56		 push	 esi

; 1960 : 		if (max_size() < _Newsize)

  00004	8b 75 08	 mov	 esi, DWORD PTR __Newsize$[ebp]
  00007	83 fe fe	 cmp	 esi, -2			; fffffffeH
  0000a	76 0b		 jbe	 SHORT $LN6@Grow

; 1961 : 			_Xlen();	// result too long

  0000c	68 00 00 00 00	 push	 OFFSET ??_C@_0BA@JFNIOLAK@string?5too?5long?$AA@
  00011	ff 15 00 00 00
	00		 call	 DWORD PTR __imp_?_Xlength_error@std@@YAXPBD@Z
$LN31@Grow:
$LN6@Grow:

; 1962 : 		if (this->_Myres < _Newsize)

  00017	8b 41 14	 mov	 eax, DWORD PTR [ecx+20]
  0001a	3b c6		 cmp	 eax, esi
  0001c	73 0b		 jae	 SHORT $LN5@Grow

; 1963 : 			_Copy(_Newsize, this->_Mysize);	// reallocate to grow

  0001e	ff 71 10	 push	 DWORD PTR [ecx+16]
  00021	56		 push	 esi
  00022	e8 00 00 00 00	 call	 ?_Copy@?$basic_string@DU?$char_traits@D@std@@V?$allocator@D@2@@std@@QAEXII@Z ; std::basic_string<char,std::char_traits<char>,std::allocator<char> >::_Copy
  00027	eb 2e		 jmp	 SHORT $LN28@Grow
$LN5@Grow:

; 1964 : 		else if (_Trim && _Newsize < this->_BUF_SIZE)

  00029	33 d2		 xor	 edx, edx
  0002b	38 55 0c	 cmp	 BYTE PTR __Trim$[ebp], dl
  0002e	74 17		 je	 SHORT $LN3@Grow
  00030	83 fe 10	 cmp	 esi, 16			; 00000010H
  00033	73 12		 jae	 SHORT $LN3@Grow

; 1965 : 			_Tidy(true,	// copy and deallocate if trimming to small string
; 1966 : 				_Newsize < this->_Mysize ? _Newsize : this->_Mysize);

  00035	8b 41 10	 mov	 eax, DWORD PTR [ecx+16]
  00038	3b f0		 cmp	 esi, eax
  0003a	0f 42 c6	 cmovb	 eax, esi
  0003d	50		 push	 eax
  0003e	6a 01		 push	 1
  00040	e8 00 00 00 00	 call	 ?_Tidy@?$basic_string@DU?$char_traits@D@std@@V?$allocator@D@2@@std@@QAEX_NI@Z ; std::basic_string<char,std::char_traits<char>,std::allocator<char> >::_Tidy
  00045	eb 10		 jmp	 SHORT $LN28@Grow
$LN3@Grow:

; 1967 : 		else if (_Newsize == 0)

  00047	3b f2		 cmp	 esi, edx
  00049	75 0c		 jne	 SHORT $LN28@Grow

; 1968 : 			_Eos(0);	// new size is zero, just null terminate

  0004b	89 51 10	 mov	 DWORD PTR [ecx+16], edx
  0004e	83 f8 10	 cmp	 eax, 16			; 00000010H
  00051	72 02		 jb	 SHORT $LN26@Grow
  00053	8b 09		 mov	 ecx, DWORD PTR [ecx]
$LN26@Grow:
  00055	88 11		 mov	 BYTE PTR [ecx], dl
$LN28@Grow:

; 1969 : 		return (0 < _Newsize);	// return true only if more work to do

  00057	33 c0		 xor	 eax, eax
  00059	3b c6		 cmp	 eax, esi
  0005b	1b c0		 sbb	 eax, eax
  0005d	f7 d8		 neg	 eax
  0005f	5e		 pop	 esi

; 1970 : 		}

  00060	5d		 pop	 ebp
  00061	c2 08 00	 ret	 8
$LN30@Grow:
?_Grow@?$basic_string@DU?$char_traits@D@std@@V?$allocator@D@2@@std@@QAE_NI_N@Z ENDP ; std::basic_string<char,std::char_traits<char>,std::allocator<char> >::_Grow
_TEXT	ENDS
PUBLIC	??_G?$basic_string@DU?$char_traits@D@std@@V?$allocator@D@2@@std@@QAEPAXI@Z ; std::basic_string<char,std::char_traits<char>,std::allocator<char> >::`scalar deleting destructor'
; Function compile flags: /Ogsp
;	COMDAT ??_G?$basic_string@DU?$char_traits@D@std@@V?$allocator@D@2@@std@@QAEPAXI@Z
_TEXT	SEGMENT
___flags$ = 8						; size = 4
??_G?$basic_string@DU?$char_traits@D@std@@V?$allocator@D@2@@std@@QAEPAXI@Z PROC ; std::basic_string<char,std::char_traits<char>,std::allocator<char> >::`scalar deleting destructor', COMDAT
; _this$ = ecx
  00000	55		 push	 ebp
  00001	8b ec		 mov	 ebp, esp
  00003	56		 push	 esi
  00004	6a 00		 push	 0
  00006	6a 01		 push	 1
  00008	8b f1		 mov	 esi, ecx
  0000a	e8 00 00 00 00	 call	 ?_Tidy@?$basic_string@DU?$char_traits@D@std@@V?$allocator@D@2@@std@@QAEX_NI@Z ; std::basic_string<char,std::char_traits<char>,std::allocator<char> >::_Tidy
  0000f	f6 45 08 01	 test	 BYTE PTR ___flags$[ebp], 1
  00013	74 07		 je	 SHORT $LN1@scalar@2
  00015	56		 push	 esi
  00016	e8 00 00 00 00	 call	 ??3@YAXPAX@Z		; operator delete
  0001b	59		 pop	 ecx
$LN1@scalar@2:
  0001c	8b c6		 mov	 eax, esi
  0001e	5e		 pop	 esi
  0001f	5d		 pop	 ebp
  00020	c2 04 00	 ret	 4
??_G?$basic_string@DU?$char_traits@D@std@@V?$allocator@D@2@@std@@QAEPAXI@Z ENDP ; std::basic_string<char,std::char_traits<char>,std::allocator<char> >::`scalar deleting destructor'
_TEXT	ENDS
PUBLIC	??$_Destroy_range@V?$allocator@UItemListInfoSort@@@std@@@std@@YAXPAUItemListInfoSort@@0AAV?$allocator@UItemListInfoSort@@@0@@Z ; std::_Destroy_range<std::allocator<ItemListInfoSort> >
; Function compile flags: /Ogsp
; File c:\program files (x86)\microsoft visual studio 10.0\vc\include\xmemory
;	COMDAT ??$_Destroy_range@V?$allocator@UItemListInfoSort@@@std@@@std@@YAXPAUItemListInfoSort@@0AAV?$allocator@UItemListInfoSort@@@0@@Z
_TEXT	SEGMENT
__First$ = 8						; size = 4
__Last$ = 12						; size = 4
__Al$ = 16						; size = 4
??$_Destroy_range@V?$allocator@UItemListInfoSort@@@std@@@std@@YAXPAUItemListInfoSort@@0AAV?$allocator@UItemListInfoSort@@@0@@Z PROC ; std::_Destroy_range<std::allocator<ItemListInfoSort> >, COMDAT

; 88   : 	_Destroy_range(_First, _Last, _Al, _Ptr_cat(_First, _Last));
; 89   : 	}

  00000	c3		 ret	 0
??$_Destroy_range@V?$allocator@UItemListInfoSort@@@std@@@std@@YAXPAUItemListInfoSort@@0AAV?$allocator@UItemListInfoSort@@@0@@Z ENDP ; std::_Destroy_range<std::allocator<ItemListInfoSort> >
_TEXT	ENDS
PUBLIC	??$_Uninitialized_move@PAUItemListInfoSort@@PAU1@V?$allocator@UItemListInfoSort@@@std@@@std@@YAPAUItemListInfoSort@@PAU1@00AAV?$allocator@UItemListInfoSort@@@0@@Z ; std::_Uninitialized_move<ItemListInfoSort *,ItemListInfoSort *,std::allocator<ItemListInfoSort> >
; Function compile flags: /Ogsp
; File c:\program files (x86)\microsoft visual studio 10.0\vc\include\memory
;	COMDAT ??$_Uninitialized_move@PAUItemListInfoSort@@PAU1@V?$allocator@UItemListInfoSort@@@std@@@std@@YAPAUItemListInfoSort@@PAU1@00AAV?$allocator@UItemListInfoSort@@@0@@Z
_TEXT	SEGMENT
__Cat$509662 = -4					; size = 1
__First$ = 8						; size = 4
__Last$ = 12						; size = 4
__Dest$ = 16						; size = 4
__Al$ = 20						; size = 4
??$_Uninitialized_move@PAUItemListInfoSort@@PAU1@V?$allocator@UItemListInfoSort@@@std@@@std@@YAPAUItemListInfoSort@@PAU1@00AAV?$allocator@UItemListInfoSort@@@0@@Z PROC ; std::_Uninitialized_move<ItemListInfoSort *,ItemListInfoSort *,std::allocator<ItemListInfoSort> >, COMDAT

; 469  : 	{	// move [_First, _Last) to raw _Dest, using _Al

  00000	55		 push	 ebp
  00001	8b ec		 mov	 ebp, esp
  00003	51		 push	 ecx

; 470  : 	return (_Uninit_move(_First, _Last, _Dest, _Al,
; 471  : 		_Val_type(_First), _Ptr_cat(_First, _Dest)));

  00004	ff 75 fc	 push	 DWORD PTR __Cat$509662[ebp]
  00007	6a 00		 push	 0
  00009	ff 75 14	 push	 DWORD PTR __Al$[ebp]
  0000c	ff 75 10	 push	 DWORD PTR __Dest$[ebp]
  0000f	ff 75 0c	 push	 DWORD PTR __Last$[ebp]
  00012	ff 75 08	 push	 DWORD PTR __First$[ebp]
  00015	e8 00 00 00 00	 call	 ??$_Uninit_move@PAUItemListInfoSort@@PAU1@V?$allocator@UItemListInfoSort@@@std@@U1@@std@@YAPAUItemListInfoSort@@PAU1@00AAV?$allocator@UItemListInfoSort@@@0@0U_Nonscalar_ptr_iterator_tag@0@@Z ; std::_Uninit_move<ItemListInfoSort *,ItemListInfoSort *,std::allocator<ItemListInfoSort>,ItemListInfoSort>
  0001a	83 c4 18	 add	 esp, 24			; 00000018H

; 472  : 	}

  0001d	c9		 leave
  0001e	c3		 ret	 0
??$_Uninitialized_move@PAUItemListInfoSort@@PAU1@V?$allocator@UItemListInfoSort@@@std@@@std@@YAPAUItemListInfoSort@@PAU1@00AAV?$allocator@UItemListInfoSort@@@0@@Z ENDP ; std::_Uninitialized_move<ItemListInfoSort *,ItemListInfoSort *,std::allocator<ItemListInfoSort> >
_TEXT	ENDS
PUBLIC	??$_Unguarded_partition@PAUItemListInfoSort@@VShopExtraItemSort@@@std@@YA?AU?$pair@PAUItemListInfoSort@@PAU1@@0@PAUItemListInfoSort@@0VShopExtraItemSort@@@Z ; std::_Unguarded_partition<ItemListInfoSort *,ShopExtraItemSort>
; Function compile flags: /Ogsp
; File c:\program files (x86)\microsoft visual studio 10.0\vc\include\algorithm
;	COMDAT ??$_Unguarded_partition@PAUItemListInfoSort@@VShopExtraItemSort@@@std@@YA?AU?$pair@PAUItemListInfoSort@@PAU1@@0@PAUItemListInfoSort@@0VShopExtraItemSort@@@Z
_TEXT	SEGMENT
__Glast$ = -8						; size = 4
__Plast$ = -4						; size = 4
___$ReturnUdt$ = 8					; size = 4
__First$ = 12						; size = 4
__Last$ = 16						; size = 4
__Pred$ = 20						; size = 1
??$_Unguarded_partition@PAUItemListInfoSort@@VShopExtraItemSort@@@std@@YA?AU?$pair@PAUItemListInfoSort@@PAU1@@0@PAUItemListInfoSort@@0VShopExtraItemSort@@@Z PROC ; std::_Unguarded_partition<ItemListInfoSort *,ShopExtraItemSort>, COMDAT

; 3712 : 	{	// partition [_First, _Last), using _Pred

  00000	55		 push	 ebp
  00001	8b ec		 mov	 ebp, esp
  00003	51		 push	 ecx
  00004	51		 push	 ecx

; 3713 : 	_RanIt _Mid = _First + (_Last - _First) / 2;

  00005	8b 4d 10	 mov	 ecx, DWORD PTR __Last$[ebp]
  00008	53		 push	 ebx
  00009	8b 5d 0c	 mov	 ebx, DWORD PTR __First$[ebp]
  0000c	56		 push	 esi
  0000d	57		 push	 edi
  0000e	6a 14		 push	 20			; 00000014H
  00010	8b c1		 mov	 eax, ecx
  00012	2b c3		 sub	 eax, ebx
  00014	5f		 pop	 edi
  00015	99		 cdq
  00016	8b f7		 mov	 esi, edi
  00018	f7 fe		 idiv	 esi

; 3714 : 	_Median(_First, _Mid, _Last - 1, _Pred);

  0001a	ff 75 14	 push	 DWORD PTR __Pred$[ebp]
  0001d	83 c1 ec	 add	 ecx, -20		; ffffffecH
  00020	51		 push	 ecx
  00021	99		 cdq
  00022	2b c2		 sub	 eax, edx
  00024	8b f0		 mov	 esi, eax
  00026	d1 fe		 sar	 esi, 1
  00028	6b f6 14	 imul	 esi, 20			; 00000014H
  0002b	03 f3		 add	 esi, ebx
  0002d	56		 push	 esi
  0002e	53		 push	 ebx
  0002f	e8 00 00 00 00	 call	 ??$_Median@PAUItemListInfoSort@@VShopExtraItemSort@@@std@@YAXPAUItemListInfoSort@@00VShopExtraItemSort@@@Z ; std::_Median<ItemListInfoSort *,ShopExtraItemSort>
  00034	83 c4 10	 add	 esp, 16			; 00000010H

; 3715 : 	_RanIt _Pfirst = _Mid;
; 3716 : 	_RanIt _Plast = _Pfirst + 1;

  00037	8d 46 14	 lea	 eax, DWORD PTR [esi+20]
  0003a	89 45 fc	 mov	 DWORD PTR __Plast$[ebp], eax

; 3717 : 
; 3718 : 	while (_First < _Pfirst
; 3719 : 		&& !_DEBUG_LT_PRED(_Pred, *(_Pfirst - 1), *_Pfirst)
; 3720 : 		&& !_Pred(*_Pfirst, *(_Pfirst - 1)))

  0003d	3b de		 cmp	 ebx, esi
  0003f	73 2b		 jae	 SHORT $LN123@Unguarded_

; 3713 : 	_RanIt _Mid = _First + (_Last - _First) / 2;

  00041	8d 46 f4	 lea	 eax, DWORD PTR [esi-12]
$LL27@Unguarded_:

; 3717 : 
; 3718 : 	while (_First < _Pfirst
; 3719 : 		&& !_DEBUG_LT_PRED(_Pred, *(_Pfirst - 1), *_Pfirst)
; 3720 : 		&& !_Pred(*_Pfirst, *(_Pfirst - 1)))

  00044	8b 08		 mov	 ecx, DWORD PTR [eax]
  00046	8b 50 14	 mov	 edx, DWORD PTR [eax+20]
  00049	3b ca		 cmp	 ecx, edx
  0004b	7f 1f		 jg	 SHORT $LN123@Unguarded_
  0004d	75 07		 jne	 SHORT $LN30@Unguarded_
  0004f	8b 58 f8	 mov	 ebx, DWORD PTR [eax-8]
  00052	3b 1e		 cmp	 ebx, DWORD PTR [esi]
  00054	7f 16		 jg	 SHORT $LN123@Unguarded_
$LN30@Unguarded_:
  00056	3b d1		 cmp	 edx, ecx
  00058	7f 12		 jg	 SHORT $LN123@Unguarded_
  0005a	75 07		 jne	 SHORT $LN35@Unguarded_
  0005c	8b 0e		 mov	 ecx, DWORD PTR [esi]
  0005e	3b 48 f8	 cmp	 ecx, DWORD PTR [eax-8]
  00061	7f 09		 jg	 SHORT $LN123@Unguarded_
$LN35@Unguarded_:

; 3721 : 		--_Pfirst;

  00063	2b f7		 sub	 esi, edi
  00065	2b c7		 sub	 eax, edi
  00067	39 75 0c	 cmp	 DWORD PTR __First$[ebp], esi
  0006a	72 d8		 jb	 SHORT $LL27@Unguarded_
$LN123@Unguarded_:

; 3722 : 	while (_Plast < _Last
; 3723 : 		&& !_DEBUG_LT_PRED(_Pred, *_Plast, *_Pfirst)
; 3724 : 		&& !_Pred(*_Pfirst, *_Plast))

  0006c	8b 5d fc	 mov	 ebx, DWORD PTR __Plast$[ebp]
  0006f	3b 5d 10	 cmp	 ebx, DWORD PTR __Last$[ebp]
  00072	73 28		 jae	 SHORT $LN116@Unguarded_
  00074	8b 4e 08	 mov	 ecx, DWORD PTR [esi+8]
$LL25@Unguarded_:
  00077	8b 43 08	 mov	 eax, DWORD PTR [ebx+8]
  0007a	3b c1		 cmp	 eax, ecx
  0007c	7f 1e		 jg	 SHORT $LN116@Unguarded_
  0007e	75 06		 jne	 SHORT $LN40@Unguarded_
  00080	8b 13		 mov	 edx, DWORD PTR [ebx]
  00082	3b 16		 cmp	 edx, DWORD PTR [esi]
  00084	7f 16		 jg	 SHORT $LN116@Unguarded_
$LN40@Unguarded_:
  00086	3b c8		 cmp	 ecx, eax
  00088	7f 12		 jg	 SHORT $LN116@Unguarded_
  0008a	75 06		 jne	 SHORT $LN45@Unguarded_
  0008c	8b 06		 mov	 eax, DWORD PTR [esi]
  0008e	3b 03		 cmp	 eax, DWORD PTR [ebx]
  00090	7f 0a		 jg	 SHORT $LN116@Unguarded_
$LN45@Unguarded_:

; 3725 : 		++_Plast;

  00092	03 df		 add	 ebx, edi
  00094	89 5d fc	 mov	 DWORD PTR __Plast$[ebp], ebx
  00097	3b 5d 10	 cmp	 ebx, DWORD PTR __Last$[ebp]
  0009a	72 db		 jb	 SHORT $LL25@Unguarded_
$LN116@Unguarded_:

; 3726 : 
; 3727 : 	_RanIt _Gfirst = _Plast;
; 3728 : 	_RanIt _Glast = _Pfirst;

  0009c	89 75 f8	 mov	 DWORD PTR __Glast$[ebp], esi

; 3729 : 
; 3730 : 	for (; ; )
; 3731 : 		{	// partition
; 3732 : 		for (; _Gfirst < _Last; ++_Gfirst)

  0009f	eb 2f		 jmp	 SHORT $LN129@Unguarded_
$LL21@Unguarded_:

; 3733 : 			if (_DEBUG_LT_PRED(_Pred, *_Pfirst, *_Gfirst))

  000a1	8b 46 08	 mov	 eax, DWORD PTR [esi+8]
  000a4	8b 4b 08	 mov	 ecx, DWORD PTR [ebx+8]
  000a7	3b c1		 cmp	 eax, ecx
  000a9	7f 23		 jg	 SHORT $LN20@Unguarded_
  000ab	75 06		 jne	 SHORT $LN50@Unguarded_
  000ad	8b 16		 mov	 edx, DWORD PTR [esi]
  000af	3b 13		 cmp	 edx, DWORD PTR [ebx]
  000b1	7f 1b		 jg	 SHORT $LN20@Unguarded_
$LN50@Unguarded_:

; 3734 : 				;
; 3735 : 			else if (_Pred(*_Gfirst, *_Pfirst))

  000b3	3b c8		 cmp	 ecx, eax
  000b5	7f 1e		 jg	 SHORT $LN118@Unguarded_
  000b7	75 06		 jne	 SHORT $LN55@Unguarded_
  000b9	8b 03		 mov	 eax, DWORD PTR [ebx]
  000bb	3b 06		 cmp	 eax, DWORD PTR [esi]
  000bd	7f 16		 jg	 SHORT $LN118@Unguarded_
$LN55@Unguarded_:

; 3736 : 				break;
; 3737 : 			else
; 3738 : 				_STD iter_swap(_Plast++, _Gfirst);

  000bf	8b 45 fc	 mov	 eax, DWORD PTR __Plast$[ebp]
  000c2	01 7d fc	 add	 DWORD PTR __Plast$[ebp], edi
  000c5	53		 push	 ebx
  000c6	50		 push	 eax
$LN131@Unguarded_:
  000c7	e8 00 00 00 00	 call	 ??$swap@UItemListInfoSort@@@std@@YAXAAUItemListInfoSort@@0@Z ; std::swap<ItemListInfoSort>
  000cc	59		 pop	 ecx
  000cd	59		 pop	 ecx
$LN20@Unguarded_:

; 3729 : 
; 3730 : 	for (; ; )
; 3731 : 		{	// partition
; 3732 : 		for (; _Gfirst < _Last; ++_Gfirst)

  000ce	03 df		 add	 ebx, edi
$LN129@Unguarded_:
  000d0	3b 5d 10	 cmp	 ebx, DWORD PTR __Last$[ebp]
  000d3	72 cc		 jb	 SHORT $LL21@Unguarded_
$LN118@Unguarded_:

; 3739 : 		for (; _First < _Glast; --_Glast)

  000d5	8b 45 f8	 mov	 eax, DWORD PTR __Glast$[ebp]
  000d8	3b 45 0c	 cmp	 eax, DWORD PTR __First$[ebp]
  000db	76 4d		 jbe	 SHORT $LN130@Unguarded_
  000dd	8d 78 f4	 lea	 edi, DWORD PTR [eax-12]
$LL14@Unguarded_:

; 3740 : 			if (_DEBUG_LT_PRED(_Pred, *(_Glast - 1), *_Pfirst))

  000e0	8b 07		 mov	 eax, DWORD PTR [edi]
  000e2	8b 4e 08	 mov	 ecx, DWORD PTR [esi+8]
  000e5	3b c1		 cmp	 eax, ecx
  000e7	7f 25		 jg	 SHORT $LN13@Unguarded_
  000e9	75 07		 jne	 SHORT $LN62@Unguarded_
  000eb	8b 57 f8	 mov	 edx, DWORD PTR [edi-8]
  000ee	3b 16		 cmp	 edx, DWORD PTR [esi]
  000f0	7f 1c		 jg	 SHORT $LN13@Unguarded_
$LN62@Unguarded_:

; 3741 : 				;
; 3742 : 			else if (_Pred(*_Pfirst, *(_Glast - 1)))

  000f2	3b c8		 cmp	 ecx, eax
  000f4	7f 2b		 jg	 SHORT $LN127@Unguarded_
  000f6	75 07		 jne	 SHORT $LN67@Unguarded_
  000f8	8b 06		 mov	 eax, DWORD PTR [esi]
  000fa	3b 47 f8	 cmp	 eax, DWORD PTR [edi-8]
  000fd	7f 22		 jg	 SHORT $LN127@Unguarded_
$LN67@Unguarded_:

; 3743 : 				break;
; 3744 : 			else
; 3745 : 				_STD iter_swap(--_Pfirst, _Glast - 1);

  000ff	8d 47 f8	 lea	 eax, DWORD PTR [edi-8]
  00102	83 ee 14	 sub	 esi, 20			; 00000014H
  00105	50		 push	 eax
  00106	56		 push	 esi
  00107	e8 00 00 00 00	 call	 ??$swap@UItemListInfoSort@@@std@@YAXAAUItemListInfoSort@@0@Z ; std::swap<ItemListInfoSort>
  0010c	59		 pop	 ecx
  0010d	59		 pop	 ecx
$LN13@Unguarded_:

; 3739 : 		for (; _First < _Glast; --_Glast)

  0010e	8b 45 f8	 mov	 eax, DWORD PTR __Glast$[ebp]
  00111	83 e8 14	 sub	 eax, 20			; 00000014H
  00114	83 ef 14	 sub	 edi, 20			; 00000014H
  00117	89 45 f8	 mov	 DWORD PTR __Glast$[ebp], eax
  0011a	39 45 0c	 cmp	 DWORD PTR __First$[ebp], eax
  0011d	72 c1		 jb	 SHORT $LL14@Unguarded_
  0011f	eb 03		 jmp	 SHORT $LN121@Unguarded_
$LN127@Unguarded_:
  00121	8b 45 f8	 mov	 eax, DWORD PTR __Glast$[ebp]
$LN121@Unguarded_:

; 3746 : 		if (_Glast == _First && _Gfirst == _Last)

  00124	3b 45 0c	 cmp	 eax, DWORD PTR __First$[ebp]
  00127	6a 14		 push	 20			; 00000014H
  00129	5f		 pop	 edi
$LN130@Unguarded_:
  0012a	75 20		 jne	 SHORT $LN6@Unguarded_
  0012c	3b 5d 10	 cmp	 ebx, DWORD PTR __Last$[ebp]
  0012f	74 4e		 je	 SHORT $LN104@Unguarded_

; 3748 : 
; 3749 : 		if (_Glast == _First)
; 3750 : 			{	// no room at bottom, rotate pivot upward
; 3751 : 			if (_Plast != _Gfirst)

  00131	39 5d fc	 cmp	 DWORD PTR __Plast$[ebp], ebx
  00134	74 0b		 je	 SHORT $LN86@Unguarded_

; 3752 : 				_STD iter_swap(_Pfirst, _Plast);

  00136	ff 75 fc	 push	 DWORD PTR __Plast$[ebp]
  00139	56		 push	 esi
  0013a	e8 00 00 00 00	 call	 ??$swap@UItemListInfoSort@@@std@@YAXAAUItemListInfoSort@@0@Z ; std::swap<ItemListInfoSort>
  0013f	59		 pop	 ecx
  00140	59		 pop	 ecx
$LN86@Unguarded_:

; 3753 : 			++_Plast;

  00141	01 7d fc	 add	 DWORD PTR __Plast$[ebp], edi

; 3754 : 			_STD iter_swap(_Pfirst++, _Gfirst++);

  00144	53		 push	 ebx
  00145	56		 push	 esi
  00146	03 f7		 add	 esi, edi
  00148	03 df		 add	 ebx, edi
  0014a	eb 20		 jmp	 SHORT $LN128@Unguarded_
$LN6@Unguarded_:

; 3755 : 			}
; 3756 : 		else if (_Gfirst == _Last)
; 3757 : 			{	// no room at top, rotate pivot downward
; 3758 : 			if (--_Glast != --_Pfirst)

  0014c	2b c7		 sub	 eax, edi
  0014e	89 45 f8	 mov	 DWORD PTR __Glast$[ebp], eax
  00151	3b 5d 10	 cmp	 ebx, DWORD PTR __Last$[ebp]
  00154	75 22		 jne	 SHORT $LN3@Unguarded_
  00156	2b f7		 sub	 esi, edi
  00158	3b c6		 cmp	 eax, esi
  0015a	74 09		 je	 SHORT $LN90@Unguarded_

; 3759 : 				_STD iter_swap(_Glast, _Pfirst);

  0015c	56		 push	 esi
  0015d	50		 push	 eax
  0015e	e8 00 00 00 00	 call	 ??$swap@UItemListInfoSort@@@std@@YAXAAUItemListInfoSort@@0@Z ; std::swap<ItemListInfoSort>
  00163	59		 pop	 ecx
  00164	59		 pop	 ecx
$LN90@Unguarded_:

; 3760 : 			_STD iter_swap(_Pfirst, --_Plast);

  00165	29 7d fc	 sub	 DWORD PTR __Plast$[ebp], edi
  00168	ff 75 fc	 push	 DWORD PTR __Plast$[ebp]
  0016b	56		 push	 esi
$LN128@Unguarded_:
  0016c	e8 00 00 00 00	 call	 ??$swap@UItemListInfoSort@@@std@@YAXAAUItemListInfoSort@@0@Z ; std::swap<ItemListInfoSort>
  00171	59		 pop	 ecx
  00172	59		 pop	 ecx

; 3761 : 			}
; 3762 : 		else

  00173	e9 58 ff ff ff	 jmp	 $LN129@Unguarded_
$LN3@Unguarded_:

; 3763 : 			_STD iter_swap(_Gfirst++, --_Glast);

  00178	50		 push	 eax
  00179	53		 push	 ebx

; 3764 : 		}

  0017a	e9 48 ff ff ff	 jmp	 $LN131@Unguarded_
$LN104@Unguarded_:

; 3747 : 			return (_STD pair<_RanIt, _RanIt>(_Pfirst, _Plast));

  0017f	8b 45 08	 mov	 eax, DWORD PTR ___$ReturnUdt$[ebp]
  00182	8b 4d fc	 mov	 ecx, DWORD PTR __Plast$[ebp]
  00185	5f		 pop	 edi
  00186	89 30		 mov	 DWORD PTR [eax], esi
  00188	5e		 pop	 esi
  00189	89 48 04	 mov	 DWORD PTR [eax+4], ecx
  0018c	5b		 pop	 ebx

; 3765 : 	}

  0018d	c9		 leave
  0018e	c3		 ret	 0
??$_Unguarded_partition@PAUItemListInfoSort@@VShopExtraItemSort@@@std@@YA?AU?$pair@PAUItemListInfoSort@@PAU1@@0@PAUItemListInfoSort@@0VShopExtraItemSort@@@Z ENDP ; std::_Unguarded_partition<ItemListInfoSort *,ShopExtraItemSort>
_TEXT	ENDS
PUBLIC	??$_Sort_heap@PAUItemListInfoSort@@VShopExtraItemSort@@@std@@YAXPAUItemListInfoSort@@0VShopExtraItemSort@@@Z ; std::_Sort_heap<ItemListInfoSort *,ShopExtraItemSort>
; Function compile flags: /Ogsp
;	COMDAT ??$_Sort_heap@PAUItemListInfoSort@@VShopExtraItemSort@@@std@@YAXPAUItemListInfoSort@@0VShopExtraItemSort@@@Z
_TEXT	SEGMENT
__First$ = 8						; size = 4
__Last$ = 12						; size = 4
__Pred$ = 16						; size = 1
??$_Sort_heap@PAUItemListInfoSort@@VShopExtraItemSort@@@std@@YAXPAUItemListInfoSort@@0VShopExtraItemSort@@@Z PROC ; std::_Sort_heap<ItemListInfoSort *,ShopExtraItemSort>, COMDAT

; 2700 : 	{	// order heap by repeatedly popping, using _Pred

  00000	55		 push	 ebp
  00001	8b ec		 mov	 ebp, esp

; 2701 : 	for (; 1 < _Last - _First; --_Last)

  00003	8b 4d 0c	 mov	 ecx, DWORD PTR __Last$[ebp]
  00006	2b 4d 08	 sub	 ecx, DWORD PTR __First$[ebp]
  00009	57		 push	 edi
  0000a	8b c1		 mov	 eax, ecx
  0000c	6a 14		 push	 20			; 00000014H
  0000e	99		 cdq
  0000f	5f		 pop	 edi
  00010	f7 ff		 idiv	 edi
  00012	83 f8 01	 cmp	 eax, 1
  00015	7e 29		 jle	 SHORT $LN1@Sort_heap
  00017	8b f9		 mov	 edi, ecx
$LL3@Sort_heap:

; 2702 : 		_Pop_heap(_First, _Last, _Pred);

  00019	6a 00		 push	 0
  0001b	ff 75 10	 push	 DWORD PTR __Pred$[ebp]
  0001e	ff 75 0c	 push	 DWORD PTR __Last$[ebp]
  00021	ff 75 08	 push	 DWORD PTR __First$[ebp]
  00024	e8 00 00 00 00	 call	 ??$_Pop_heap_0@PAUItemListInfoSort@@U1@VShopExtraItemSort@@@std@@YAXPAUItemListInfoSort@@0VShopExtraItemSort@@0@Z ; std::_Pop_heap_0<ItemListInfoSort *,ItemListInfoSort,ShopExtraItemSort>
  00029	83 c4 10	 add	 esp, 16			; 00000010H
  0002c	83 ef 14	 sub	 edi, 20			; 00000014H
  0002f	8b c7		 mov	 eax, edi
  00031	6a 14		 push	 20			; 00000014H
  00033	99		 cdq
  00034	59		 pop	 ecx
  00035	f7 f9		 idiv	 ecx
  00037	83 6d 0c 14	 sub	 DWORD PTR __Last$[ebp], 20 ; 00000014H
  0003b	83 f8 01	 cmp	 eax, 1
  0003e	7f d9		 jg	 SHORT $LL3@Sort_heap
$LN1@Sort_heap:
  00040	5f		 pop	 edi

; 2703 : 	}

  00041	5d		 pop	 ebp
  00042	c3		 ret	 0
??$_Sort_heap@PAUItemListInfoSort@@VShopExtraItemSort@@@std@@YAXPAUItemListInfoSort@@0VShopExtraItemSort@@@Z ENDP ; std::_Sort_heap<ItemListInfoSort *,ShopExtraItemSort>
_TEXT	ENDS
PUBLIC	?assign@?$basic_string@DU?$char_traits@D@std@@V?$allocator@D@2@@std@@QAEAAV12@ABV12@II@Z ; std::basic_string<char,std::char_traits<char>,std::allocator<char> >::assign
; Function compile flags: /Ogsp
; File c:\program files (x86)\microsoft visual studio 10.0\vc\include\xstring
;	COMDAT ?assign@?$basic_string@DU?$char_traits@D@std@@V?$allocator@D@2@@std@@QAEAAV12@ABV12@II@Z
_TEXT	SEGMENT
__Right$ = 8						; size = 4
__Roff$ = 12						; size = 4
__Count$ = 16						; size = 4
?assign@?$basic_string@DU?$char_traits@D@std@@V?$allocator@D@2@@std@@QAEAAV12@ABV12@II@Z PROC ; std::basic_string<char,std::char_traits<char>,std::allocator<char> >::assign, COMDAT
; _this$ = ecx

; 893  : 		{	// assign _Right [_Roff, _Roff + _Count)

  00000	55		 push	 ebp
  00001	8b ec		 mov	 ebp, esp
  00003	53		 push	 ebx

; 894  : 		if (_Right.size() < _Roff)

  00004	8b 5d 08	 mov	 ebx, DWORD PTR __Right$[ebp]
  00007	8b 43 10	 mov	 eax, DWORD PTR [ebx+16]
  0000a	56		 push	 esi
  0000b	8b f1		 mov	 esi, ecx
  0000d	8b 4d 0c	 mov	 ecx, DWORD PTR __Roff$[ebp]
  00010	57		 push	 edi
  00011	3b c1		 cmp	 eax, ecx
  00013	73 0b		 jae	 SHORT $LN5@assign

; 895  : 			_Xran();	// _Roff off end

  00015	68 00 00 00 00	 push	 OFFSET ??_C@_0BI@CFPLBAOH@invalid?5string?5position?$AA@
  0001a	ff 15 00 00 00
	00		 call	 DWORD PTR __imp_?_Xout_of_range@std@@YAXPBD@Z
$LN34@assign:
$LN5@assign:

; 896  : 		size_type _Num = _Right.size() - _Roff;

  00020	2b c1		 sub	 eax, ecx
  00022	8b f8		 mov	 edi, eax

; 897  : 		if (_Count < _Num)

  00024	39 7d 10	 cmp	 DWORD PTR __Count$[ebp], edi

; 898  : 			_Num = _Count;	// trim _Num to size

  00027	0f 42 7d 10	 cmovb	 edi, DWORD PTR __Count$[ebp]

; 899  : 
; 900  : 		if (this == &_Right)

  0002b	3b f3		 cmp	 esi, ebx
  0002d	75 1a		 jne	 SHORT $LN3@assign

; 901  : 			erase((size_type)(_Roff + _Num)), erase(0, _Roff);	// substring

  0002f	03 f9		 add	 edi, ecx
  00031	6a ff		 push	 -1
  00033	57		 push	 edi
  00034	8b ce		 mov	 ecx, esi
  00036	e8 00 00 00 00	 call	 ?erase@?$basic_string@DU?$char_traits@D@std@@V?$allocator@D@2@@std@@QAEAAV12@II@Z ; std::basic_string<char,std::char_traits<char>,std::allocator<char> >::erase
  0003b	ff 75 0c	 push	 DWORD PTR __Roff$[ebp]
  0003e	8b ce		 mov	 ecx, esi
  00040	6a 00		 push	 0
  00042	e8 00 00 00 00	 call	 ?erase@?$basic_string@DU?$char_traits@D@std@@V?$allocator@D@2@@std@@QAEAAV12@II@Z ; std::basic_string<char,std::char_traits<char>,std::allocator<char> >::erase
  00047	eb 47		 jmp	 SHORT $LN31@assign
$LN3@assign:

; 902  : 		else if (_Grow(_Num))

  00049	6a 00		 push	 0
  0004b	57		 push	 edi
  0004c	8b ce		 mov	 ecx, esi
  0004e	e8 00 00 00 00	 call	 ?_Grow@?$basic_string@DU?$char_traits@D@std@@V?$allocator@D@2@@std@@QAE_NI_N@Z ; std::basic_string<char,std::char_traits<char>,std::allocator<char> >::_Grow
  00053	84 c0		 test	 al, al
  00055	74 39		 je	 SHORT $LN31@assign

; 903  : 			{	// make room and assign new stuff
; 904  : 			_Traits::copy(_Myptr(), _Right._Myptr() + _Roff, _Num);

  00057	83 7b 14 10	 cmp	 DWORD PTR [ebx+20], 16	; 00000010H
  0005b	72 04		 jb	 SHORT $LN17@assign
  0005d	8b 03		 mov	 eax, DWORD PTR [ebx]
  0005f	eb 02		 jmp	 SHORT $LN18@assign
$LN17@assign:
  00061	8b c3		 mov	 eax, ebx
$LN18@assign:
  00063	83 7e 14 10	 cmp	 DWORD PTR [esi+20], 16	; 00000010H
  00067	72 04		 jb	 SHORT $LN21@assign
  00069	8b 0e		 mov	 ecx, DWORD PTR [esi]
  0006b	eb 02		 jmp	 SHORT $LN22@assign
$LN21@assign:
  0006d	8b ce		 mov	 ecx, esi
$LN22@assign:
  0006f	03 45 0c	 add	 eax, DWORD PTR __Roff$[ebp]
  00072	57		 push	 edi
  00073	50		 push	 eax
  00074	51		 push	 ecx
  00075	e8 00 00 00 00	 call	 _memcpy
  0007a	83 c4 0c	 add	 esp, 12			; 0000000cH

; 905  : 			_Eos(_Num);

  0007d	83 7e 14 10	 cmp	 DWORD PTR [esi+20], 16	; 00000010H
  00081	89 7e 10	 mov	 DWORD PTR [esi+16], edi
  00084	72 04		 jb	 SHORT $LN29@assign
  00086	8b 06		 mov	 eax, DWORD PTR [esi]
  00088	eb 02		 jmp	 SHORT $LN30@assign
$LN29@assign:
  0008a	8b c6		 mov	 eax, esi
$LN30@assign:
  0008c	c6 04 38 00	 mov	 BYTE PTR [eax+edi], 0
$LN31@assign:

; 906  : 			}
; 907  : 		return (*this);

  00090	5f		 pop	 edi
  00091	8b c6		 mov	 eax, esi
  00093	5e		 pop	 esi
  00094	5b		 pop	 ebx

; 908  : 		}

  00095	5d		 pop	 ebp
  00096	c2 0c 00	 ret	 12			; 0000000cH
$LN33@assign:
?assign@?$basic_string@DU?$char_traits@D@std@@V?$allocator@D@2@@std@@QAEAAV12@ABV12@II@Z ENDP ; std::basic_string<char,std::char_traits<char>,std::allocator<char> >::assign
_TEXT	ENDS
PUBLIC	?assign@?$basic_string@DU?$char_traits@D@std@@V?$allocator@D@2@@std@@QAEAAV12@PBDI@Z ; std::basic_string<char,std::char_traits<char>,std::allocator<char> >::assign
; Function compile flags: /Ogsp
;	COMDAT ?assign@?$basic_string@DU?$char_traits@D@std@@V?$allocator@D@2@@std@@QAEAAV12@PBDI@Z
_TEXT	SEGMENT
__Ptr$ = 8						; size = 4
__Count$ = 12						; size = 4
?assign@?$basic_string@DU?$char_traits@D@std@@V?$allocator@D@2@@std@@QAEAAV12@PBDI@Z PROC ; std::basic_string<char,std::char_traits<char>,std::allocator<char> >::assign, COMDAT
; _this$ = ecx

; 911  : 		{	// assign [_Ptr, _Ptr + _Count)

  00000	55		 push	 ebp
  00001	8b ec		 mov	 ebp, esp
  00003	53		 push	 ebx

; 912  :  #if _ITERATOR_DEBUG_LEVEL == 2
; 913  : 		if (_Count != 0)
; 914  : 			_DEBUG_POINTER(_Ptr);
; 915  :  #endif /* _ITERATOR_DEBUG_LEVEL == 2 */
; 916  : 
; 917  : 		if (_Inside(_Ptr))

  00004	8b 5d 08	 mov	 ebx, DWORD PTR __Ptr$[ebp]
  00007	56		 push	 esi
  00008	53		 push	 ebx
  00009	8b f1		 mov	 esi, ecx
  0000b	e8 00 00 00 00	 call	 ?_Inside@?$basic_string@DU?$char_traits@D@std@@V?$allocator@D@2@@std@@QAE_NPBD@Z ; std::basic_string<char,std::char_traits<char>,std::allocator<char> >::_Inside
  00010	84 c0		 test	 al, al
  00012	74 1c		 je	 SHORT $LN2@assign@2

; 918  : 			return (assign(*this, _Ptr - _Myptr(), _Count));	// substring

  00014	83 7e 14 10	 cmp	 DWORD PTR [esi+20], 16	; 00000010H
  00018	72 04		 jb	 SHORT $LN7@assign@2
  0001a	8b 06		 mov	 eax, DWORD PTR [esi]
  0001c	eb 02		 jmp	 SHORT $LN8@assign@2
$LN7@assign@2:
  0001e	8b c6		 mov	 eax, esi
$LN8@assign@2:
  00020	ff 75 0c	 push	 DWORD PTR __Count$[ebp]
  00023	2b d8		 sub	 ebx, eax
  00025	53		 push	 ebx
  00026	56		 push	 esi
  00027	8b ce		 mov	 ecx, esi
  00029	e8 00 00 00 00	 call	 ?assign@?$basic_string@DU?$char_traits@D@std@@V?$allocator@D@2@@std@@QAEAAV12@ABV12@II@Z ; std::basic_string<char,std::char_traits<char>,std::allocator<char> >::assign
  0002e	eb 3f		 jmp	 SHORT $LN3@assign@2
$LN2@assign@2:
  00030	57		 push	 edi

; 919  : 
; 920  : 		if (_Grow(_Count))

  00031	8b 7d 0c	 mov	 edi, DWORD PTR __Count$[ebp]
  00034	6a 00		 push	 0
  00036	57		 push	 edi
  00037	8b ce		 mov	 ecx, esi
  00039	e8 00 00 00 00	 call	 ?_Grow@?$basic_string@DU?$char_traits@D@std@@V?$allocator@D@2@@std@@QAE_NI_N@Z ; std::basic_string<char,std::char_traits<char>,std::allocator<char> >::_Grow
  0003e	84 c0		 test	 al, al
  00040	74 2a		 je	 SHORT $LN21@assign@2

; 921  : 			{	// make room and assign new stuff
; 922  : 			_Traits::copy(_Myptr(), _Ptr, _Count);

  00042	83 7e 14 10	 cmp	 DWORD PTR [esi+20], 16	; 00000010H
  00046	72 04		 jb	 SHORT $LN11@assign@2
  00048	8b 06		 mov	 eax, DWORD PTR [esi]
  0004a	eb 02		 jmp	 SHORT $LN12@assign@2
$LN11@assign@2:
  0004c	8b c6		 mov	 eax, esi
$LN12@assign@2:
  0004e	57		 push	 edi
  0004f	53		 push	 ebx
  00050	50		 push	 eax
  00051	e8 00 00 00 00	 call	 _memcpy
  00056	83 c4 0c	 add	 esp, 12			; 0000000cH

; 923  : 			_Eos(_Count);

  00059	83 7e 14 10	 cmp	 DWORD PTR [esi+20], 16	; 00000010H
  0005d	89 7e 10	 mov	 DWORD PTR [esi+16], edi
  00060	72 04		 jb	 SHORT $LN19@assign@2
  00062	8b 06		 mov	 eax, DWORD PTR [esi]
  00064	eb 02		 jmp	 SHORT $LN20@assign@2
$LN19@assign@2:
  00066	8b c6		 mov	 eax, esi
$LN20@assign@2:
  00068	c6 04 38 00	 mov	 BYTE PTR [eax+edi], 0
$LN21@assign@2:

; 924  : 			}
; 925  : 		return (*this);

  0006c	8b c6		 mov	 eax, esi
  0006e	5f		 pop	 edi
$LN3@assign@2:
  0006f	5e		 pop	 esi
  00070	5b		 pop	 ebx

; 926  : 		}

  00071	5d		 pop	 ebp
  00072	c2 08 00	 ret	 8
?assign@?$basic_string@DU?$char_traits@D@std@@V?$allocator@D@2@@std@@QAEAAV12@PBDI@Z ENDP ; std::basic_string<char,std::char_traits<char>,std::allocator<char> >::assign
_TEXT	ENDS
PUBLIC	??$_Destroy@V?$basic_string@DU?$char_traits@D@std@@V?$allocator@D@2@@std@@@std@@YAXPAV?$basic_string@DU?$char_traits@D@std@@V?$allocator@D@2@@0@@Z ; std::_Destroy<std::basic_string<char,std::char_traits<char>,std::allocator<char> > >
; Function compile flags: /Ogsp
; File c:\program files (x86)\microsoft visual studio 10.0\vc\include\xmemory
;	COMDAT ??$_Destroy@V?$basic_string@DU?$char_traits@D@std@@V?$allocator@D@2@@std@@@std@@YAXPAV?$basic_string@DU?$char_traits@D@std@@V?$allocator@D@2@@0@@Z
_TEXT	SEGMENT
__Ptr$ = 8						; size = 4
??$_Destroy@V?$basic_string@DU?$char_traits@D@std@@V?$allocator@D@2@@std@@@std@@YAXPAV?$basic_string@DU?$char_traits@D@std@@V?$allocator@D@2@@0@@Z PROC ; std::_Destroy<std::basic_string<char,std::char_traits<char>,std::allocator<char> > >, COMDAT

; 62   : 	{	// destroy object at _Ptr

  00000	55		 push	 ebp
  00001	8b ec		 mov	 ebp, esp

; 63   : 	_Ptr->~_Ty();

  00003	8b 4d 08	 mov	 ecx, DWORD PTR __Ptr$[ebp]
  00006	6a 00		 push	 0
  00008	6a 01		 push	 1
  0000a	e8 00 00 00 00	 call	 ?_Tidy@?$basic_string@DU?$char_traits@D@std@@V?$allocator@D@2@@std@@QAEX_NI@Z ; std::basic_string<char,std::char_traits<char>,std::allocator<char> >::_Tidy

; 64   : 	}

  0000f	5d		 pop	 ebp
  00010	c3		 ret	 0
??$_Destroy@V?$basic_string@DU?$char_traits@D@std@@V?$allocator@D@2@@std@@@std@@YAXPAV?$basic_string@DU?$char_traits@D@std@@V?$allocator@D@2@@0@@Z ENDP ; std::_Destroy<std::basic_string<char,std::char_traits<char>,std::allocator<char> > >
_TEXT	ENDS
PUBLIC	?_Destroy@?$vector@UItemListInfoSort@@V?$allocator@UItemListInfoSort@@@std@@@std@@IAEXPAUItemListInfoSort@@0@Z ; std::vector<ItemListInfoSort,std::allocator<ItemListInfoSort> >::_Destroy
; Function compile flags: /Ogsp
; File c:\program files (x86)\microsoft visual studio 10.0\vc\include\vector
;	COMDAT ?_Destroy@?$vector@UItemListInfoSort@@V?$allocator@UItemListInfoSort@@@std@@@std@@IAEXPAUItemListInfoSort@@0@Z
_TEXT	SEGMENT
__First$ = 8						; size = 4
__Last$ = 12						; size = 4
?_Destroy@?$vector@UItemListInfoSort@@V?$allocator@UItemListInfoSort@@@std@@@std@@IAEXPAUItemListInfoSort@@0@Z PROC ; std::vector<ItemListInfoSort,std::allocator<ItemListInfoSort> >::_Destroy, COMDAT
; _this$ = ecx

; 1270 : 		_Destroy_range(_First, _Last, this->_Alval);
; 1271 : 		}

  00000	c2 08 00	 ret	 8
?_Destroy@?$vector@UItemListInfoSort@@V?$allocator@UItemListInfoSort@@@std@@@std@@IAEXPAUItemListInfoSort@@0@Z ENDP ; std::vector<ItemListInfoSort,std::allocator<ItemListInfoSort> >::_Destroy
_TEXT	ENDS
PUBLIC	??$_Umove@PAUItemListInfoSort@@@?$vector@UItemListInfoSort@@V?$allocator@UItemListInfoSort@@@std@@@std@@IAEPAUItemListInfoSort@@PAU2@00@Z ; std::vector<ItemListInfoSort,std::allocator<ItemListInfoSort> >::_Umove<ItemListInfoSort *>
; Function compile flags: /Ogsp
;	COMDAT ??$_Umove@PAUItemListInfoSort@@@?$vector@UItemListInfoSort@@V?$allocator@UItemListInfoSort@@@std@@@std@@IAEPAUItemListInfoSort@@PAU2@00@Z
_TEXT	SEGMENT
__First$ = 8						; size = 4
__Last$ = 12						; size = 4
__Ptr$ = 16						; size = 4
??$_Umove@PAUItemListInfoSort@@@?$vector@UItemListInfoSort@@V?$allocator@UItemListInfoSort@@@std@@@std@@IAEPAUItemListInfoSort@@PAU2@00@Z PROC ; std::vector<ItemListInfoSort,std::allocator<ItemListInfoSort> >::_Umove<ItemListInfoSort *>, COMDAT
; _this$ = ecx

; 1322 : 		pointer _Umove(_Iter _First, _Iter _Last, pointer _Ptr)

  00000	55		 push	 ebp
  00001	8b ec		 mov	 ebp, esp

; 1323 : 		{	// move initializing [_First, _Last), using allocator
; 1324 : 		return (_Uninitialized_move(_First, _Last,
; 1325 : 			_Ptr, this->_Alval));

  00003	83 c1 0c	 add	 ecx, 12			; 0000000cH
  00006	51		 push	 ecx
  00007	ff 75 10	 push	 DWORD PTR __Ptr$[ebp]
  0000a	ff 75 0c	 push	 DWORD PTR __Last$[ebp]
  0000d	ff 75 08	 push	 DWORD PTR __First$[ebp]
  00010	e8 00 00 00 00	 call	 ??$_Uninitialized_move@PAUItemListInfoSort@@PAU1@V?$allocator@UItemListInfoSort@@@std@@@std@@YAPAUItemListInfoSort@@PAU1@00AAV?$allocator@UItemListInfoSort@@@0@@Z ; std::_Uninitialized_move<ItemListInfoSort *,ItemListInfoSort *,std::allocator<ItemListInfoSort> >
  00015	83 c4 10	 add	 esp, 16			; 00000010H

; 1326 : 		}

  00018	5d		 pop	 ebp
  00019	c2 0c 00	 ret	 12			; 0000000cH
??$_Umove@PAUItemListInfoSort@@@?$vector@UItemListInfoSort@@V?$allocator@UItemListInfoSort@@@std@@@std@@IAEPAUItemListInfoSort@@PAU2@00@Z ENDP ; std::vector<ItemListInfoSort,std::allocator<ItemListInfoSort> >::_Umove<ItemListInfoSort *>
_TEXT	ENDS
PUBLIC	??$sort_heap@PAUItemListInfoSort@@VShopExtraItemSort@@@std@@YAXPAUItemListInfoSort@@0VShopExtraItemSort@@@Z ; std::sort_heap<ItemListInfoSort *,ShopExtraItemSort>
; Function compile flags: /Ogsp
; File c:\program files (x86)\microsoft visual studio 10.0\vc\include\algorithm
;	COMDAT ??$sort_heap@PAUItemListInfoSort@@VShopExtraItemSort@@@std@@YAXPAUItemListInfoSort@@0VShopExtraItemSort@@@Z
_TEXT	SEGMENT
__First$ = 8						; size = 4
__Last$ = 12						; size = 4
__Pred$ = 16						; size = 1
??$sort_heap@PAUItemListInfoSort@@VShopExtraItemSort@@@std@@YAXPAUItemListInfoSort@@0VShopExtraItemSort@@@Z PROC ; std::sort_heap<ItemListInfoSort *,ShopExtraItemSort>, COMDAT

; 2708 : 	{	// order heap by repeatedly popping, using _Pred

  00000	55		 push	 ebp
  00001	8b ec		 mov	 ebp, esp

; 2709 : 	_DEBUG_RANGE(_First, _Last);
; 2710 : 	_DEBUG_POINTER(_Pred);
; 2711 : 	_DEBUG_HEAP_PRED(_First, _Last, _Pred);
; 2712 : 	_Sort_heap(_Unchecked(_First), _Unchecked(_Last), _Pred);

  00003	ff 75 10	 push	 DWORD PTR __Pred$[ebp]
  00006	ff 75 0c	 push	 DWORD PTR __Last$[ebp]
  00009	ff 75 08	 push	 DWORD PTR __First$[ebp]
  0000c	e8 00 00 00 00	 call	 ??$_Sort_heap@PAUItemListInfoSort@@VShopExtraItemSort@@@std@@YAXPAUItemListInfoSort@@0VShopExtraItemSort@@@Z ; std::_Sort_heap<ItemListInfoSort *,ShopExtraItemSort>
  00011	83 c4 0c	 add	 esp, 12			; 0000000cH

; 2713 : 	}

  00014	5d		 pop	 ebp
  00015	c3		 ret	 0
??$sort_heap@PAUItemListInfoSort@@VShopExtraItemSort@@@std@@YAXPAUItemListInfoSort@@0VShopExtraItemSort@@@Z ENDP ; std::sort_heap<ItemListInfoSort *,ShopExtraItemSort>
_TEXT	ENDS
PUBLIC	??0?$basic_string@DU?$char_traits@D@std@@V?$allocator@D@2@@std@@QAE@ABV01@@Z ; std::basic_string<char,std::char_traits<char>,std::allocator<char> >::basic_string<char,std::char_traits<char>,std::allocator<char> >
; Function compile flags: /Ogsp
; File c:\program files (x86)\microsoft visual studio 10.0\vc\include\xstring
;	COMDAT ??0?$basic_string@DU?$char_traits@D@std@@V?$allocator@D@2@@std@@QAE@ABV01@@Z
_TEXT	SEGMENT
__Right$ = 8						; size = 4
??0?$basic_string@DU?$char_traits@D@std@@V?$allocator@D@2@@std@@QAE@ABV01@@Z PROC ; std::basic_string<char,std::char_traits<char>,std::allocator<char> >::basic_string<char,std::char_traits<char>,std::allocator<char> >, COMDAT
; _this$ = ecx

; 543  : 		{	// construct by copying _Right

  00000	55		 push	 ebp
  00001	8b ec		 mov	 ebp, esp
  00003	56		 push	 esi

; 544  : 		_Tidy();

  00004	33 c0		 xor	 eax, eax

; 545  : 		assign(_Right, 0, npos);

  00006	6a ff		 push	 -1
  00008	8b f1		 mov	 esi, ecx
  0000a	50		 push	 eax
  0000b	ff 75 08	 push	 DWORD PTR __Right$[ebp]
  0000e	c7 46 14 0f 00
	00 00		 mov	 DWORD PTR [esi+20], 15	; 0000000fH
  00015	89 46 10	 mov	 DWORD PTR [esi+16], eax
  00018	88 06		 mov	 BYTE PTR [esi], al
  0001a	e8 00 00 00 00	 call	 ?assign@?$basic_string@DU?$char_traits@D@std@@V?$allocator@D@2@@std@@QAEAAV12@ABV12@II@Z ; std::basic_string<char,std::char_traits<char>,std::allocator<char> >::assign

; 546  : 		}

  0001f	8b c6		 mov	 eax, esi
  00021	5e		 pop	 esi
  00022	5d		 pop	 ebp
  00023	c2 04 00	 ret	 4
??0?$basic_string@DU?$char_traits@D@std@@V?$allocator@D@2@@std@@QAE@ABV01@@Z ENDP ; std::basic_string<char,std::char_traits<char>,std::allocator<char> >::basic_string<char,std::char_traits<char>,std::allocator<char> >
_TEXT	ENDS
PUBLIC	?assign@?$basic_string@DU?$char_traits@D@std@@V?$allocator@D@2@@std@@QAEAAV12@ABV12@@Z ; std::basic_string<char,std::char_traits<char>,std::allocator<char> >::assign
; Function compile flags: /Ogsp
;	COMDAT ?assign@?$basic_string@DU?$char_traits@D@std@@V?$allocator@D@2@@std@@QAEAAV12@ABV12@@Z
_TEXT	SEGMENT
__Right$ = 8						; size = 4
?assign@?$basic_string@DU?$char_traits@D@std@@V?$allocator@D@2@@std@@QAEAAV12@ABV12@@Z PROC ; std::basic_string<char,std::char_traits<char>,std::allocator<char> >::assign, COMDAT
; _this$ = ecx

; 887  : 		{	// assign _Right

  00000	55		 push	 ebp
  00001	8b ec		 mov	 ebp, esp

; 888  : 		return (assign(_Right, 0, npos));

  00003	6a ff		 push	 -1
  00005	6a 00		 push	 0
  00007	ff 75 08	 push	 DWORD PTR __Right$[ebp]
  0000a	e8 00 00 00 00	 call	 ?assign@?$basic_string@DU?$char_traits@D@std@@V?$allocator@D@2@@std@@QAEAAV12@ABV12@II@Z ; std::basic_string<char,std::char_traits<char>,std::allocator<char> >::assign

; 889  : 		}

  0000f	5d		 pop	 ebp
  00010	c2 04 00	 ret	 4
?assign@?$basic_string@DU?$char_traits@D@std@@V?$allocator@D@2@@std@@QAEAAV12@ABV12@@Z ENDP ; std::basic_string<char,std::char_traits<char>,std::allocator<char> >::assign
_TEXT	ENDS
PUBLIC	?assign@?$basic_string@DU?$char_traits@D@std@@V?$allocator@D@2@@std@@QAEAAV12@PBD@Z ; std::basic_string<char,std::char_traits<char>,std::allocator<char> >::assign
; Function compile flags: /Ogsp
;	COMDAT ?assign@?$basic_string@DU?$char_traits@D@std@@V?$allocator@D@2@@std@@QAEAAV12@PBD@Z
_TEXT	SEGMENT
__Ptr$ = 8						; size = 4
?assign@?$basic_string@DU?$char_traits@D@std@@V?$allocator@D@2@@std@@QAEAAV12@PBD@Z PROC ; std::basic_string<char,std::char_traits<char>,std::allocator<char> >::assign, COMDAT
; _this$ = ecx

; 929  : 		{	// assign [_Ptr, <null>)

  00000	55		 push	 ebp
  00001	8b ec		 mov	 ebp, esp

; 930  : 		_DEBUG_POINTER(_Ptr);
; 931  : 		return (assign(_Ptr, _Traits::length(_Ptr)));

  00003	8b 45 08	 mov	 eax, DWORD PTR __Ptr$[ebp]
  00006	8d 50 01	 lea	 edx, DWORD PTR [eax+1]
  00009	53		 push	 ebx
$LL5@assign@3:
  0000a	8a 18		 mov	 bl, BYTE PTR [eax]
  0000c	40		 inc	 eax
  0000d	84 db		 test	 bl, bl
  0000f	75 f9		 jne	 SHORT $LL5@assign@3
  00011	2b c2		 sub	 eax, edx
  00013	50		 push	 eax
  00014	ff 75 08	 push	 DWORD PTR __Ptr$[ebp]
  00017	e8 00 00 00 00	 call	 ?assign@?$basic_string@DU?$char_traits@D@std@@V?$allocator@D@2@@std@@QAEAAV12@PBDI@Z ; std::basic_string<char,std::char_traits<char>,std::allocator<char> >::assign
  0001c	5b		 pop	 ebx

; 932  : 		}

  0001d	5d		 pop	 ebp
  0001e	c2 04 00	 ret	 4
?assign@?$basic_string@DU?$char_traits@D@std@@V?$allocator@D@2@@std@@QAEAAV12@PBD@Z ENDP ; std::basic_string<char,std::char_traits<char>,std::allocator<char> >::assign
_TEXT	ENDS
PUBLIC	?destroy@?$allocator@V?$basic_string@DU?$char_traits@D@std@@V?$allocator@D@2@@std@@@std@@QAEXPAV?$basic_string@DU?$char_traits@D@std@@V?$allocator@D@2@@2@@Z ; std::allocator<std::basic_string<char,std::char_traits<char>,std::allocator<char> > >::destroy
; Function compile flags: /Ogsp
; File c:\program files (x86)\microsoft visual studio 10.0\vc\include\xmemory
;	COMDAT ?destroy@?$allocator@V?$basic_string@DU?$char_traits@D@std@@V?$allocator@D@2@@std@@@std@@QAEXPAV?$basic_string@DU?$char_traits@D@std@@V?$allocator@D@2@@2@@Z
_TEXT	SEGMENT
__Ptr$ = 8						; size = 4
?destroy@?$allocator@V?$basic_string@DU?$char_traits@D@std@@V?$allocator@D@2@@std@@@std@@QAEXPAV?$basic_string@DU?$char_traits@D@std@@V?$allocator@D@2@@2@@Z PROC ; std::allocator<std::basic_string<char,std::char_traits<char>,std::allocator<char> > >::destroy, COMDAT
; _this$ = ecx

; 212  : 		{	// destroy object at _Ptr

  00000	55		 push	 ebp
  00001	8b ec		 mov	 ebp, esp

; 213  : 		_Destroy(_Ptr);

  00003	8b 4d 08	 mov	 ecx, DWORD PTR __Ptr$[ebp]
  00006	6a 00		 push	 0
  00008	6a 01		 push	 1
  0000a	e8 00 00 00 00	 call	 ?_Tidy@?$basic_string@DU?$char_traits@D@std@@V?$allocator@D@2@@std@@QAEX_NI@Z ; std::basic_string<char,std::char_traits<char>,std::allocator<char> >::_Tidy

; 214  : 		}

  0000f	5d		 pop	 ebp
  00010	c2 04 00	 ret	 4
?destroy@?$allocator@V?$basic_string@DU?$char_traits@D@std@@V?$allocator@D@2@@std@@@std@@QAEXPAV?$basic_string@DU?$char_traits@D@std@@V?$allocator@D@2@@2@@Z ENDP ; std::allocator<std::basic_string<char,std::char_traits<char>,std::allocator<char> > >::destroy
_TEXT	ENDS
PUBLIC	?erase@?$vector@UItemListInfoSort@@V?$allocator@UItemListInfoSort@@@std@@@std@@QAE?AV?$_Vector_iterator@V?$_Vector_val@UItemListInfoSort@@V?$allocator@UItemListInfoSort@@@std@@@std@@@2@V?$_Vector_const_iterator@V?$_Vector_val@UItemListInfoSort@@V?$allocator@UItemListInfoSort@@@std@@@std@@@2@0@Z ; std::vector<ItemListInfoSort,std::allocator<ItemListInfoSort> >::erase
; Function compile flags: /Ogsp
; File c:\program files (x86)\microsoft visual studio 10.0\vc\include\vector
;	COMDAT ?erase@?$vector@UItemListInfoSort@@V?$allocator@UItemListInfoSort@@@std@@@std@@QAE?AV?$_Vector_iterator@V?$_Vector_val@UItemListInfoSort@@V?$allocator@UItemListInfoSort@@@std@@@std@@@2@V?$_Vector_const_iterator@V?$_Vector_val@UItemListInfoSort@@V?$allocator@UItemListInfoSort@@@std@@@std@@@2@0@Z
_TEXT	SEGMENT
___$ReturnUdt$ = 8					; size = 4
__First_arg$ = 12					; size = 4
__Cat$510206 = 16					; size = 1
__Last_arg$ = 16					; size = 4
?erase@?$vector@UItemListInfoSort@@V?$allocator@UItemListInfoSort@@@std@@@std@@QAE?AV?$_Vector_iterator@V?$_Vector_val@UItemListInfoSort@@V?$allocator@UItemListInfoSort@@@std@@@std@@@2@V?$_Vector_const_iterator@V?$_Vector_val@UItemListInfoSort@@V?$allocator@UItemListInfoSort@@@std@@@std@@@2@0@Z PROC ; std::vector<ItemListInfoSort,std::allocator<ItemListInfoSort> >::erase, COMDAT
; _this$ = ecx

; 1190 : 		{	// erase [_First, _Last)

  00000	55		 push	 ebp
  00001	8b ec		 mov	 ebp, esp

; 1191 : 		iterator _First = _Make_iter(_First_arg);

  00003	8b 45 0c	 mov	 eax, DWORD PTR __First_arg$[ebp]
  00006	56		 push	 esi
  00007	57		 push	 edi
  00008	8b 7d 08	 mov	 edi, DWORD PTR ___$ReturnUdt$[ebp]
  0000b	8b f1		 mov	 esi, ecx
  0000d	89 07		 mov	 DWORD PTR [edi], eax

; 1192 : 		iterator _Last = _Make_iter(_Last_arg);
; 1193 : 
; 1194 : 		if (_First != _Last)

  0000f	3b 45 10	 cmp	 eax, DWORD PTR __Last_arg$[ebp]
  00012	74 16		 je	 SHORT $LN1@erase@2

; 1195 : 			{	// worth doing, copy down over hole
; 1196 :  #if _ITERATOR_DEBUG_LEVEL == 2
; 1197 : 			if (_Last < _First || _VICONT(_First) != this
; 1198 : 				|| _VIPTR(_First) < this->_Myfirst
; 1199 : 				|| this->_Mylast < _VIPTR(_Last))
; 1200 : 				_DEBUG_ERROR("vector erase iterator outside range");
; 1201 : 			pointer _Ptr = _Move(_VIPTR(_Last), this->_Mylast,
; 1202 : 				_VIPTR(_First));
; 1203 : 			_Orphan_range(_VIPTR(_First), this->_Mylast);
; 1204 : 
; 1205 :  #else /* _ITERATOR_DEBUG_LEVEL == 2 */
; 1206 : 			pointer _Ptr = _Move(_VIPTR(_Last), this->_Mylast,
; 1207 : 				_VIPTR(_First));

  00014	ff 75 10	 push	 DWORD PTR __Cat$510206[ebp]
  00017	8b 4e 04	 mov	 ecx, DWORD PTR [esi+4]
  0001a	50		 push	 eax
  0001b	51		 push	 ecx
  0001c	ff 75 10	 push	 DWORD PTR __Last_arg$[ebp]
  0001f	e8 00 00 00 00	 call	 ??$_Move@PAUItemListInfoSort@@PAU1@@std@@YAPAUItemListInfoSort@@PAU1@00U_Nonscalar_ptr_iterator_tag@0@@Z ; std::_Move<ItemListInfoSort *,ItemListInfoSort *>
  00024	83 c4 10	 add	 esp, 16			; 00000010H

; 1208 :  #endif /* _ITERATOR_DEBUG_LEVEL == 2 */
; 1209 : 
; 1210 : 			_Destroy(_Ptr, this->_Mylast);
; 1211 : 			this->_Mylast = _Ptr;

  00027	89 46 04	 mov	 DWORD PTR [esi+4], eax
$LN1@erase@2:

; 1212 : 			}
; 1213 : 		return (_First);

  0002a	8b c7		 mov	 eax, edi
  0002c	5f		 pop	 edi
  0002d	5e		 pop	 esi

; 1214 : 		}

  0002e	5d		 pop	 ebp
  0002f	c2 0c 00	 ret	 12			; 0000000cH
?erase@?$vector@UItemListInfoSort@@V?$allocator@UItemListInfoSort@@@std@@@std@@QAE?AV?$_Vector_iterator@V?$_Vector_val@UItemListInfoSort@@V?$allocator@UItemListInfoSort@@@std@@@std@@@2@V?$_Vector_const_iterator@V?$_Vector_val@UItemListInfoSort@@V?$allocator@UItemListInfoSort@@@std@@@std@@@2@0@Z ENDP ; std::vector<ItemListInfoSort,std::allocator<ItemListInfoSort> >::erase
_TEXT	ENDS
PUBLIC	?_Tidy@?$vector@UItemListInfoSort@@V?$allocator@UItemListInfoSort@@@std@@@std@@IAEXXZ ; std::vector<ItemListInfoSort,std::allocator<ItemListInfoSort> >::_Tidy
EXTRN	__imp_?_Orphan_all@_Container_base0@std@@QAEXXZ:PROC
; Function compile flags: /Ogsp
;	COMDAT ?_Tidy@?$vector@UItemListInfoSort@@V?$allocator@UItemListInfoSort@@@std@@@std@@IAEXXZ
_TEXT	SEGMENT
?_Tidy@?$vector@UItemListInfoSort@@V?$allocator@UItemListInfoSort@@@std@@@std@@IAEXXZ PROC ; std::vector<ItemListInfoSort,std::allocator<ItemListInfoSort> >::_Tidy, COMDAT
; _this$ = ecx

; 1301 : 		{	// free all storage

  00000	56		 push	 esi
  00001	8b f1		 mov	 esi, ecx

; 1302 : 		if (this->_Myfirst != 0)

  00003	83 3e 00	 cmp	 DWORD PTR [esi], 0
  00006	74 0e		 je	 SHORT $LN21@Tidy@2

; 1303 : 			{	// something to free, destroy and deallocate it
; 1304 : 			this->_Orphan_all();

  00008	ff 15 00 00 00
	00		 call	 DWORD PTR __imp_?_Orphan_all@_Container_base0@std@@QAEXXZ

; 1305 : 			_Destroy(this->_Myfirst, this->_Mylast);
; 1306 : 			this->_Alval.deallocate(this->_Myfirst,
; 1307 : 				this->_Myend - this->_Myfirst);

  0000e	ff 36		 push	 DWORD PTR [esi]
  00010	e8 00 00 00 00	 call	 ??3@YAXPAX@Z		; operator delete
  00015	59		 pop	 ecx
$LN21@Tidy@2:

; 1308 : 			}
; 1309 : 		this->_Myfirst = 0;

  00016	83 26 00	 and	 DWORD PTR [esi], 0

; 1310 : 		this->_Mylast = 0;

  00019	83 66 04 00	 and	 DWORD PTR [esi+4], 0

; 1311 : 		this->_Myend = 0;

  0001d	83 66 08 00	 and	 DWORD PTR [esi+8], 0
  00021	5e		 pop	 esi

; 1312 : 		}

  00022	c3		 ret	 0
?_Tidy@?$vector@UItemListInfoSort@@V?$allocator@UItemListInfoSort@@@std@@@std@@IAEXXZ ENDP ; std::vector<ItemListInfoSort,std::allocator<ItemListInfoSort> >::_Tidy
_TEXT	ENDS
PUBLIC	?reserve@?$vector@UItemListInfoSort@@V?$allocator@UItemListInfoSort@@@std@@@std@@QAEXI@Z ; std::vector<ItemListInfoSort,std::allocator<ItemListInfoSort> >::reserve
;	COMDAT xdata$x
; File c:\program files (x86)\microsoft visual studio 10.0\vc\include\xmemory
xdata$x	SEGMENT
__catchsym$?reserve@?$vector@UItemListInfoSort@@V?$allocator@UItemListInfoSort@@@std@@@std@@QAEXI@Z$2 DD 040H
	DD	00H
	DD	00H
	DD	FLAT:__catch$?reserve@?$vector@UItemListInfoSort@@V?$allocator@UItemListInfoSort@@@std@@@std@@QAEXI@Z$0
__unwindtable$?reserve@?$vector@UItemListInfoSort@@V?$allocator@UItemListInfoSort@@@std@@@std@@QAEXI@Z DD 0ffffffffH
	DD	00H
	DD	0ffffffffH
	DD	00H
__tryblocktable$?reserve@?$vector@UItemListInfoSort@@V?$allocator@UItemListInfoSort@@@std@@@std@@QAEXI@Z DD 00H
	DD	00H
	DD	01H
	DD	01H
	DD	FLAT:__catchsym$?reserve@?$vector@UItemListInfoSort@@V?$allocator@UItemListInfoSort@@@std@@@std@@QAEXI@Z$2
__ehfuncinfo$?reserve@?$vector@UItemListInfoSort@@V?$allocator@UItemListInfoSort@@@std@@@std@@QAEXI@Z DD 019930522H
	DD	02H
	DD	FLAT:__unwindtable$?reserve@?$vector@UItemListInfoSort@@V?$allocator@UItemListInfoSort@@@std@@@std@@QAEXI@Z
	DD	01H
	DD	FLAT:__tryblocktable$?reserve@?$vector@UItemListInfoSort@@V?$allocator@UItemListInfoSort@@@std@@@std@@QAEXI@Z
	DD	2 DUP(00H)
	DD	00H
	DD	01H
; Function compile flags: /Ogsp
; File c:\program files (x86)\microsoft visual studio 10.0\vc\include\vector
xdata$x	ENDS
;	COMDAT ?reserve@?$vector@UItemListInfoSort@@V?$allocator@UItemListInfoSort@@@std@@@std@@QAEXI@Z
_TEXT	SEGMENT
__$EHRec$ = -16						; size = 16
__Ptr$506450 = 8					; size = 4
__Count$ = 8						; size = 4
?reserve@?$vector@UItemListInfoSort@@V?$allocator@UItemListInfoSort@@@std@@@std@@QAEXI@Z PROC ; std::vector<ItemListInfoSort,std::allocator<ItemListInfoSort> >::reserve, COMDAT
; _this$ = ecx

; 746  : 		{	// determine new minimum length of allocated storage

  00000	6a 04		 push	 4
  00002	b8 00 00 00 00	 mov	 eax, __ehhandler$?reserve@?$vector@UItemListInfoSort@@V?$allocator@UItemListInfoSort@@@std@@@std@@QAEXI@Z
  00007	e8 00 00 00 00	 call	 __EH_prolog3_catch
  0000c	8b f1		 mov	 esi, ecx

; 747  : 		if (max_size() < _Count)

  0000e	8b 5d 08	 mov	 ebx, DWORD PTR __Count$[ebp]
  00011	81 fb cc cc cc
	0c		 cmp	 ebx, 214748364		; 0cccccccH
  00017	76 0b		 jbe	 SHORT $LN5@reserve

; 748  : 			_Xlen();	// result too long

  00019	68 00 00 00 00	 push	 OFFSET ??_C@_0BD@OLBABOEK@vector?$DMT?$DO?5too?5long?$AA@
  0001e	ff 15 00 00 00
	00		 call	 DWORD PTR __imp_?_Xlength_error@std@@YAXPBD@Z
$LN56@reserve:
$LN5@reserve:

; 749  : 		else if (capacity() < _Count)

  00024	8b 46 08	 mov	 eax, DWORD PTR [esi+8]
  00027	2b 06		 sub	 eax, DWORD PTR [esi]
  00029	6a 14		 push	 20			; 00000014H
  0002b	99		 cdq
  0002c	59		 pop	 ecx
  0002d	f7 f9		 idiv	 ecx
  0002f	3b c3		 cmp	 eax, ebx
  00031	73 6b		 jae	 SHORT $LN3@reserve

; 750  : 			{	// not enough room, reallocate
; 751  : 			pointer _Ptr = this->_Alval.allocate(_Count);

  00033	6a 00		 push	 0
  00035	53		 push	 ebx
  00036	e8 00 00 00 00	 call	 ??$_Allocate@UItemListInfoSort@@@std@@YAPAUItemListInfoSort@@IPAU1@@Z ; std::_Allocate<ItemListInfoSort>

; 752  : 
; 753  : 			_TRY_BEGIN
; 754  : 			_Umove(this->_Myfirst, this->_Mylast, _Ptr);

  0003b	8b 0e		 mov	 ecx, DWORD PTR [esi]
  0003d	83 65 fc 00	 and	 DWORD PTR __$EHRec$[ebp+12], 0
  00041	8d 56 0c	 lea	 edx, DWORD PTR [esi+12]
  00044	52		 push	 edx
  00045	89 45 08	 mov	 DWORD PTR __Ptr$506450[ebp], eax
  00048	ff 75 08	 push	 DWORD PTR __Ptr$506450[ebp]
  0004b	8b 46 04	 mov	 eax, DWORD PTR [esi+4]
  0004e	50		 push	 eax
  0004f	51		 push	 ecx
  00050	e8 00 00 00 00	 call	 ??$_Uninitialized_move@PAUItemListInfoSort@@PAU1@V?$allocator@UItemListInfoSort@@@std@@@std@@YAPAUItemListInfoSort@@PAU1@00AAV?$allocator@UItemListInfoSort@@@0@@Z ; std::_Uninitialized_move<ItemListInfoSort *,ItemListInfoSort *,std::allocator<ItemListInfoSort> >

; 758  : 			_CATCH_END
; 759  : 
; 760  : 			size_type _Size = size();

  00055	8b 0e		 mov	 ecx, DWORD PTR [esi]
  00057	8b 46 04	 mov	 eax, DWORD PTR [esi+4]
  0005a	83 c4 18	 add	 esp, 24			; 00000018H
  0005d	2b c1		 sub	 eax, ecx
  0005f	6a 14		 push	 20			; 00000014H
  00061	99		 cdq
  00062	5f		 pop	 edi
  00063	f7 ff		 idiv	 edi
  00065	83 4d fc ff	 or	 DWORD PTR __$EHRec$[ebp+12], -1
  00069	8b f8		 mov	 edi, eax
  0006b	85 c9		 test	 ecx, ecx
  0006d	74 12		 je	 SHORT $LN48@reserve

; 761  : 			if (this->_Myfirst != 0)

  0006f	eb 03		 jmp	 SHORT $LN55@reserve

; 762  : 				{	// destroy and deallocate old array
; 763  : 				_Destroy(this->_Myfirst, this->_Mylast);

$LL39@reserve:
  00071	83 c1 14	 add	 ecx, 20			; 00000014H
$LN55@reserve:
  00074	3b 4e 04	 cmp	 ecx, DWORD PTR [esi+4]
  00077	75 f8		 jne	 SHORT $LL39@reserve

; 764  : 				this->_Alval.deallocate(this->_Myfirst,
; 765  : 					this->_Myend - this->_Myfirst);

  00079	ff 36		 push	 DWORD PTR [esi]
  0007b	e8 00 00 00 00	 call	 ??3@YAXPAX@Z		; operator delete
  00080	59		 pop	 ecx
$LN48@reserve:

; 766  : 				}
; 767  : 
; 768  : 			this->_Orphan_all();

  00081	8b ce		 mov	 ecx, esi
  00083	ff 15 00 00 00
	00		 call	 DWORD PTR __imp_?_Orphan_all@_Container_base0@std@@QAEXXZ

; 769  : 			this->_Myend = _Ptr + _Count;

  00089	6b db 14	 imul	 ebx, 20			; 00000014H

; 770  : 			this->_Mylast = _Ptr + _Size;

  0008c	6b ff 14	 imul	 edi, 20			; 00000014H
  0008f	8b 45 08	 mov	 eax, DWORD PTR __Ptr$506450[ebp]
  00092	03 d8		 add	 ebx, eax
  00094	03 f8		 add	 edi, eax
  00096	89 5e 08	 mov	 DWORD PTR [esi+8], ebx
  00099	89 7e 04	 mov	 DWORD PTR [esi+4], edi

; 771  : 			this->_Myfirst = _Ptr;

  0009c	89 06		 mov	 DWORD PTR [esi], eax
$LN3@reserve:

; 772  : 			}
; 773  : 		}

  0009e	e8 00 00 00 00	 call	 __EH_epilog3
  000a3	c2 04 00	 ret	 4
__catch$?reserve@?$vector@UItemListInfoSort@@V?$allocator@UItemListInfoSort@@@std@@@std@@QAEXI@Z$0:

; 755  : 			_CATCH_ALL
; 756  : 			this->_Alval.deallocate(_Ptr, _Count);

  000a6	ff 75 08	 push	 DWORD PTR __Ptr$506450[ebp]
  000a9	e8 00 00 00 00	 call	 ??3@YAXPAX@Z		; operator delete
  000ae	59		 pop	 ecx

; 757  : 			_RERAISE;

  000af	6a 00		 push	 0
  000b1	6a 00		 push	 0
  000b3	e8 00 00 00 00	 call	 __CxxThrowException@8
$LN57@reserve:
$LN54@reserve:
  000b8	cc		 int	 3
_TEXT	ENDS
;	COMDAT text$x
text$x	SEGMENT
__ehhandler$?reserve@?$vector@UItemListInfoSort@@V?$allocator@UItemListInfoSort@@@std@@@std@@QAEXI@Z:
  00000	8b 54 24 08	 mov	 edx, DWORD PTR [esp+8]
  00004	8d 42 0c	 lea	 eax, DWORD PTR [edx+12]
  00007	8b 4a ec	 mov	 ecx, DWORD PTR [edx-20]
  0000a	33 c8		 xor	 ecx, eax
  0000c	e8 00 00 00 00	 call	 @__security_check_cookie@4
  00011	b8 00 00 00 00	 mov	 eax, OFFSET __ehfuncinfo$?reserve@?$vector@UItemListInfoSort@@V?$allocator@UItemListInfoSort@@@std@@@std@@QAEXI@Z
  00016	e9 00 00 00 00	 jmp	 ___CxxFrameHandler3
text$x	ENDS
?reserve@?$vector@UItemListInfoSort@@V?$allocator@UItemListInfoSort@@@std@@@std@@QAEXI@Z ENDP ; std::vector<ItemListInfoSort,std::allocator<ItemListInfoSort> >::reserve
PUBLIC	??$_Sort@PAUItemListInfoSort@@HVShopExtraItemSort@@@std@@YAXPAUItemListInfoSort@@0HVShopExtraItemSort@@@Z ; std::_Sort<ItemListInfoSort *,int,ShopExtraItemSort>
; Function compile flags: /Ogsp
; File c:\program files (x86)\microsoft visual studio 10.0\vc\include\algorithm
;	COMDAT ??$_Sort@PAUItemListInfoSort@@HVShopExtraItemSort@@@std@@YAXPAUItemListInfoSort@@0HVShopExtraItemSort@@@Z
_TEXT	SEGMENT
__Mid$507059 = -8					; size = 8
__First$ = 8						; size = 4
__Last$ = 12						; size = 4
__Ideal$ = 16						; size = 4
__Pred$ = 20						; size = 1
??$_Sort@PAUItemListInfoSort@@HVShopExtraItemSort@@@std@@YAXPAUItemListInfoSort@@0HVShopExtraItemSort@@@Z PROC ; std::_Sort<ItemListInfoSort *,int,ShopExtraItemSort>, COMDAT

; 3771 : 	{	// order [_First, _Last), using _Pred

  00000	55		 push	 ebp
  00001	8b ec		 mov	 ebp, esp
  00003	51		 push	 ecx
  00004	51		 push	 ecx
  00005	53		 push	 ebx

; 3772 : 	_Diff _Count;
; 3773 : 	for (; _ISORT_MAX < (_Count = _Last - _First) && 0 < _Ideal; )

  00006	8b 5d 08	 mov	 ebx, DWORD PTR __First$[ebp]
  00009	57		 push	 edi
  0000a	8b 7d 0c	 mov	 edi, DWORD PTR __Last$[ebp]
  0000d	8b c7		 mov	 eax, edi
  0000f	2b c3		 sub	 eax, ebx
  00011	6a 14		 push	 20			; 00000014H
  00013	99		 cdq
  00014	59		 pop	 ecx
  00015	f7 f9		 idiv	 ecx
  00017	83 f8 20	 cmp	 eax, 32			; 00000020H
  0001a	0f 8e 9c 00 00
	00		 jle	 $LN22@Sort
  00020	56		 push	 esi
  00021	8b 75 10	 mov	 esi, DWORD PTR __Ideal$[ebp]
$LL7@Sort:
  00024	85 f6		 test	 esi, esi
  00026	7e 75		 jle	 SHORT $LN6@Sort

; 3774 : 		{	// divide and conquer by quicksort
; 3775 : 		_STD pair<_RanIt, _RanIt> _Mid =
; 3776 : 			_Unguarded_partition(_First, _Last, _Pred);

  00028	ff 75 14	 push	 DWORD PTR __Pred$[ebp]
  0002b	8d 45 f8	 lea	 eax, DWORD PTR __Mid$507059[ebp]
  0002e	57		 push	 edi
  0002f	53		 push	 ebx
  00030	50		 push	 eax
  00031	e8 00 00 00 00	 call	 ??$_Unguarded_partition@PAUItemListInfoSort@@VShopExtraItemSort@@@std@@YA?AU?$pair@PAUItemListInfoSort@@PAU1@@0@PAUItemListInfoSort@@0VShopExtraItemSort@@@Z ; std::_Unguarded_partition<ItemListInfoSort *,ShopExtraItemSort>

; 3777 : 		_Ideal /= 2, _Ideal += _Ideal / 2;	// allow 1.5 log2(N) divisions

  00036	8b c6		 mov	 eax, esi
  00038	99		 cdq
  00039	2b c2		 sub	 eax, edx
  0003b	d1 f8		 sar	 eax, 1
  0003d	8b f0		 mov	 esi, eax
  0003f	99		 cdq
  00040	2b c2		 sub	 eax, edx
  00042	d1 f8		 sar	 eax, 1
  00044	03 f0		 add	 esi, eax
  00046	83 c4 10	 add	 esp, 16			; 00000010H

; 3778 : 
; 3779 : 		if (_Mid.first - _First < _Last - _Mid.second)

  00049	8b c7		 mov	 eax, edi
  0004b	2b 45 fc	 sub	 eax, DWORD PTR __Mid$507059[ebp+4]
  0004e	6a 14		 push	 20			; 00000014H
  00050	99		 cdq
  00051	59		 pop	 ecx
  00052	f7 f9		 idiv	 ecx
  00054	6a 14		 push	 20			; 00000014H
  00056	8b c8		 mov	 ecx, eax
  00058	8b 45 f8	 mov	 eax, DWORD PTR __Mid$507059[ebp]
  0005b	2b c3		 sub	 eax, ebx
  0005d	5b		 pop	 ebx
  0005e	99		 cdq
  0005f	f7 fb		 idiv	 ebx

; 3780 : 			{	// loop on second half
; 3781 : 			_Sort(_First, _Mid.first, _Ideal, _Pred);

  00061	ff 75 14	 push	 DWORD PTR __Pred$[ebp]
  00064	56		 push	 esi
  00065	3b c1		 cmp	 eax, ecx
  00067	7d 13		 jge	 SHORT $LN5@Sort
  00069	ff 75 f8	 push	 DWORD PTR __Mid$507059[ebp]
  0006c	ff 75 08	 push	 DWORD PTR __First$[ebp]
  0006f	e8 00 00 00 00	 call	 ??$_Sort@PAUItemListInfoSort@@HVShopExtraItemSort@@@std@@YAXPAUItemListInfoSort@@0HVShopExtraItemSort@@@Z ; std::_Sort<ItemListInfoSort *,int,ShopExtraItemSort>

; 3782 : 			_First = _Mid.second;

  00074	8b 5d fc	 mov	 ebx, DWORD PTR __Mid$507059[ebp+4]
  00077	89 5d 08	 mov	 DWORD PTR __First$[ebp], ebx

; 3783 : 			}
; 3784 : 		else

  0007a	eb 0f		 jmp	 SHORT $LN23@Sort
$LN5@Sort:

; 3785 : 			{	// loop on first half
; 3786 : 			_Sort(_Mid.second, _Last, _Ideal, _Pred);

  0007c	57		 push	 edi
  0007d	ff 75 fc	 push	 DWORD PTR __Mid$507059[ebp+4]
  00080	e8 00 00 00 00	 call	 ??$_Sort@PAUItemListInfoSort@@HVShopExtraItemSort@@@std@@YAXPAUItemListInfoSort@@0HVShopExtraItemSort@@@Z ; std::_Sort<ItemListInfoSort *,int,ShopExtraItemSort>

; 3787 : 			_Last = _Mid.first;

  00085	8b 7d f8	 mov	 edi, DWORD PTR __Mid$507059[ebp]
  00088	8b 5d 08	 mov	 ebx, DWORD PTR __First$[ebp]
$LN23@Sort:

; 3772 : 	_Diff _Count;
; 3773 : 	for (; _ISORT_MAX < (_Count = _Last - _First) && 0 < _Ideal; )

  0008b	83 c4 10	 add	 esp, 16			; 00000010H
  0008e	8b c7		 mov	 eax, edi
  00090	2b c3		 sub	 eax, ebx
  00092	6a 14		 push	 20			; 00000014H
  00094	99		 cdq
  00095	59		 pop	 ecx
  00096	f7 f9		 idiv	 ecx
  00098	83 f8 20	 cmp	 eax, 32			; 00000020H
  0009b	7f 87		 jg	 SHORT $LL7@Sort
$LN6@Sort:
  0009d	5e		 pop	 esi

; 3788 : 			}
; 3789 : 		}
; 3790 : 
; 3791 : 	if (_ISORT_MAX < _Count)

  0009e	83 f8 20	 cmp	 eax, 32			; 00000020H
  000a1	7e 19		 jle	 SHORT $LN22@Sort

; 3792 : 		{	// heap sort if too many divisions
; 3793 : 		_STD make_heap(_First, _Last, _Pred);

  000a3	ff 75 14	 push	 DWORD PTR __Pred$[ebp]
  000a6	57		 push	 edi
  000a7	53		 push	 ebx
  000a8	e8 00 00 00 00	 call	 ??$make_heap@PAUItemListInfoSort@@VShopExtraItemSort@@@std@@YAXPAUItemListInfoSort@@0VShopExtraItemSort@@@Z ; std::make_heap<ItemListInfoSort *,ShopExtraItemSort>

; 3794 : 		_STD sort_heap(_First, _Last, _Pred);

  000ad	ff 75 14	 push	 DWORD PTR __Pred$[ebp]
  000b0	57		 push	 edi
  000b1	53		 push	 ebx
  000b2	e8 00 00 00 00	 call	 ??$_Sort_heap@PAUItemListInfoSort@@VShopExtraItemSort@@@std@@YAXPAUItemListInfoSort@@0VShopExtraItemSort@@@Z ; std::_Sort_heap<ItemListInfoSort *,ShopExtraItemSort>
  000b7	83 c4 18	 add	 esp, 24			; 00000018H
  000ba	eb 14		 jmp	 SHORT $LN16@Sort
$LN22@Sort:

; 3795 : 		}
; 3796 : 	else if (1 < _Count)

  000bc	83 f8 01	 cmp	 eax, 1
  000bf	7e 0f		 jle	 SHORT $LN16@Sort

; 3797 : 		_Insertion_sort(_First, _Last, _Pred);	// small

  000c1	6a 00		 push	 0
  000c3	ff 75 14	 push	 DWORD PTR __Pred$[ebp]
  000c6	57		 push	 edi
  000c7	53		 push	 ebx
  000c8	e8 00 00 00 00	 call	 ??$_Insertion_sort1@PAUItemListInfoSort@@VShopExtraItemSort@@U1@@std@@YAXPAUItemListInfoSort@@0VShopExtraItemSort@@0@Z ; std::_Insertion_sort1<ItemListInfoSort *,ShopExtraItemSort,ItemListInfoSort>
  000cd	83 c4 10	 add	 esp, 16			; 00000010H
$LN16@Sort:
  000d0	5f		 pop	 edi
  000d1	5b		 pop	 ebx

; 3798 : 	}

  000d2	c9		 leave
  000d3	c3		 ret	 0
??$_Sort@PAUItemListInfoSort@@HVShopExtraItemSort@@@std@@YAXPAUItemListInfoSort@@0HVShopExtraItemSort@@@Z ENDP ; std::_Sort<ItemListInfoSort *,int,ShopExtraItemSort>
_TEXT	ENDS
PUBLIC	??$construct@AAV?$basic_string@DU?$char_traits@D@std@@V?$allocator@D@2@@std@@@?$allocator@V?$basic_string@DU?$char_traits@D@std@@V?$allocator@D@2@@std@@@std@@QAEXPAV?$basic_string@DU?$char_traits@D@std@@V?$allocator@D@2@@1@AAV21@@Z ; std::allocator<std::basic_string<char,std::char_traits<char>,std::allocator<char> > >::construct<std::basic_string<char,std::char_traits<char>,std::allocator<char> > &>
;	COMDAT xdata$x
; File c:\program files (x86)\microsoft visual studio 10.0\vc\include\utility
xdata$x	SEGMENT
__unwindtable$??$construct@AAV?$basic_string@DU?$char_traits@D@std@@V?$allocator@D@2@@std@@@?$allocator@V?$basic_string@DU?$char_traits@D@std@@V?$allocator@D@2@@std@@@std@@QAEXPAV?$basic_string@DU?$char_traits@D@std@@V?$allocator@D@2@@1@AAV21@@Z DD 0ffffffffH
	DD	FLAT:__unwindfunclet$??$construct@AAV?$basic_string@DU?$char_traits@D@std@@V?$allocator@D@2@@std@@@?$allocator@V?$basic_string@DU?$char_traits@D@std@@V?$allocator@D@2@@std@@@std@@QAEXPAV?$basic_string@DU?$char_traits@D@std@@V?$allocator@D@2@@1@AAV21@@Z$0
__ehfuncinfo$??$construct@AAV?$basic_string@DU?$char_traits@D@std@@V?$allocator@D@2@@std@@@?$allocator@V?$basic_string@DU?$char_traits@D@std@@V?$allocator@D@2@@std@@@std@@QAEXPAV?$basic_string@DU?$char_traits@D@std@@V?$allocator@D@2@@1@AAV21@@Z DD 019930522H
	DD	01H
	DD	FLAT:__unwindtable$??$construct@AAV?$basic_string@DU?$char_traits@D@std@@V?$allocator@D@2@@std@@@?$allocator@V?$basic_string@DU?$char_traits@D@std@@V?$allocator@D@2@@std@@@std@@QAEXPAV?$basic_string@DU?$char_traits@D@std@@V?$allocator@D@2@@1@AAV21@@Z
	DD	2 DUP(00H)
	DD	2 DUP(00H)
	DD	00H
	DD	01H
; Function compile flags: /Ogsp
; File c:\program files (x86)\microsoft visual studio 10.0\vc\include\xmemory
xdata$x	ENDS
;	COMDAT ??$construct@AAV?$basic_string@DU?$char_traits@D@std@@V?$allocator@D@2@@std@@@?$allocator@V?$basic_string@DU?$char_traits@D@std@@V?$allocator@D@2@@std@@@std@@QAEXPAV?$basic_string@DU?$char_traits@D@std@@V?$allocator@D@2@@1@AAV21@@Z
_TEXT	SEGMENT
$T510529 = -16						; size = 4
__$EHRec$ = -12						; size = 12
__Ptr$ = 8						; size = 4
__Val$ = 12						; size = 4
??$construct@AAV?$basic_string@DU?$char_traits@D@std@@V?$allocator@D@2@@std@@@?$allocator@V?$basic_string@DU?$char_traits@D@std@@V?$allocator@D@2@@std@@@std@@QAEXPAV?$basic_string@DU?$char_traits@D@std@@V?$allocator@D@2@@1@AAV21@@Z PROC ; std::allocator<std::basic_string<char,std::char_traits<char>,std::allocator<char> > >::construct<std::basic_string<char,std::char_traits<char>,std::allocator<char> > &>, COMDAT
; _this$ = ecx

; 206  : 		void construct(pointer _Ptr, _Other&& _Val)

  00000	6a 04		 push	 4
  00002	b8 00 00 00 00	 mov	 eax, __ehhandler$??$construct@AAV?$basic_string@DU?$char_traits@D@std@@V?$allocator@D@2@@std@@@?$allocator@V?$basic_string@DU?$char_traits@D@std@@V?$allocator@D@2@@std@@@std@@QAEXPAV?$basic_string@DU?$char_traits@D@std@@V?$allocator@D@2@@1@AAV21@@Z
  00007	e8 00 00 00 00	 call	 __EH_prolog3

; 207  : 		{	// construct object at _Ptr with value _Val
; 208  : 		::new ((void _FARQ *)_Ptr) _Ty(_STD forward<_Other>(_Val));

  0000c	8b 4d 08	 mov	 ecx, DWORD PTR __Ptr$[ebp]
  0000f	89 4d f0	 mov	 DWORD PTR $T510529[ebp], ecx
  00012	83 65 fc 00	 and	 DWORD PTR __$EHRec$[ebp+8], 0
  00016	85 c9		 test	 ecx, ecx
  00018	74 08		 je	 SHORT $LN3@construct@4
  0001a	ff 75 0c	 push	 DWORD PTR __Val$[ebp]
  0001d	e8 00 00 00 00	 call	 ??0?$basic_string@DU?$char_traits@D@std@@V?$allocator@D@2@@std@@QAE@ABV01@@Z ; std::basic_string<char,std::char_traits<char>,std::allocator<char> >::basic_string<char,std::char_traits<char>,std::allocator<char> >
$LN3@construct@4:

; 209  : 		}

  00022	e8 00 00 00 00	 call	 __EH_epilog3
  00027	c2 08 00	 ret	 8
_TEXT	ENDS
;	COMDAT text$x
text$x	SEGMENT
__unwindfunclet$??$construct@AAV?$basic_string@DU?$char_traits@D@std@@V?$allocator@D@2@@std@@@?$allocator@V?$basic_string@DU?$char_traits@D@std@@V?$allocator@D@2@@std@@@std@@QAEXPAV?$basic_string@DU?$char_traits@D@std@@V?$allocator@D@2@@1@AAV21@@Z$0:
  00000	ff 75 08	 push	 DWORD PTR __Ptr$[ebp]
  00003	ff 75 f0	 push	 DWORD PTR $T510529[ebp]
  00006	e8 00 00 00 00	 call	 ??3@YAXPAX0@Z		; operator delete
  0000b	59		 pop	 ecx
  0000c	59		 pop	 ecx
  0000d	c3		 ret	 0
__ehhandler$??$construct@AAV?$basic_string@DU?$char_traits@D@std@@V?$allocator@D@2@@std@@@?$allocator@V?$basic_string@DU?$char_traits@D@std@@V?$allocator@D@2@@std@@@std@@QAEXPAV?$basic_string@DU?$char_traits@D@std@@V?$allocator@D@2@@1@AAV21@@Z:
  0000e	8b 54 24 08	 mov	 edx, DWORD PTR [esp+8]
  00012	8d 42 0c	 lea	 eax, DWORD PTR [edx+12]
  00015	8b 4a ec	 mov	 ecx, DWORD PTR [edx-20]
  00018	33 c8		 xor	 ecx, eax
  0001a	e8 00 00 00 00	 call	 @__security_check_cookie@4
  0001f	b8 00 00 00 00	 mov	 eax, OFFSET __ehfuncinfo$??$construct@AAV?$basic_string@DU?$char_traits@D@std@@V?$allocator@D@2@@std@@@?$allocator@V?$basic_string@DU?$char_traits@D@std@@V?$allocator@D@2@@std@@@std@@QAEXPAV?$basic_string@DU?$char_traits@D@std@@V?$allocator@D@2@@1@AAV21@@Z
  00024	e9 00 00 00 00	 jmp	 ___CxxFrameHandler3
text$x	ENDS
??$construct@AAV?$basic_string@DU?$char_traits@D@std@@V?$allocator@D@2@@std@@@?$allocator@V?$basic_string@DU?$char_traits@D@std@@V?$allocator@D@2@@std@@@std@@QAEXPAV?$basic_string@DU?$char_traits@D@std@@V?$allocator@D@2@@1@AAV21@@Z ENDP ; std::allocator<std::basic_string<char,std::char_traits<char>,std::allocator<char> > >::construct<std::basic_string<char,std::char_traits<char>,std::allocator<char> > &>
PUBLIC	??0?$basic_string@DU?$char_traits@D@std@@V?$allocator@D@2@@std@@QAE@PBD@Z ; std::basic_string<char,std::char_traits<char>,std::allocator<char> >::basic_string<char,std::char_traits<char>,std::allocator<char> >
; Function compile flags: /Ogsp
; File c:\program files (x86)\microsoft visual studio 10.0\vc\include\xstring
;	COMDAT ??0?$basic_string@DU?$char_traits@D@std@@V?$allocator@D@2@@std@@QAE@PBD@Z
_TEXT	SEGMENT
__Ptr$ = 8						; size = 4
??0?$basic_string@DU?$char_traits@D@std@@V?$allocator@D@2@@std@@QAE@PBD@Z PROC ; std::basic_string<char,std::char_traits<char>,std::allocator<char> >::basic_string<char,std::char_traits<char>,std::allocator<char> >, COMDAT
; _this$ = ecx

; 592  : 		{	// construct from [_Ptr, <null>)

  00000	55		 push	 ebp
  00001	8b ec		 mov	 ebp, esp
  00003	56		 push	 esi

; 593  : 		_Tidy();
; 594  : 		assign(_Ptr);

  00004	ff 75 08	 push	 DWORD PTR __Ptr$[ebp]
  00007	8b f1		 mov	 esi, ecx
  00009	83 66 10 00	 and	 DWORD PTR [esi+16], 0
  0000d	c7 46 14 0f 00
	00 00		 mov	 DWORD PTR [esi+20], 15	; 0000000fH
  00014	c6 06 00	 mov	 BYTE PTR [esi], 0
  00017	e8 00 00 00 00	 call	 ?assign@?$basic_string@DU?$char_traits@D@std@@V?$allocator@D@2@@std@@QAEAAV12@PBD@Z ; std::basic_string<char,std::char_traits<char>,std::allocator<char> >::assign

; 595  : 		}

  0001c	8b c6		 mov	 eax, esi
  0001e	5e		 pop	 esi
  0001f	5d		 pop	 ebp
  00020	c2 04 00	 ret	 4
??0?$basic_string@DU?$char_traits@D@std@@V?$allocator@D@2@@std@@QAE@PBD@Z ENDP ; std::basic_string<char,std::char_traits<char>,std::allocator<char> >::basic_string<char,std::char_traits<char>,std::allocator<char> >
_TEXT	ENDS
PUBLIC	??4?$basic_string@DU?$char_traits@D@std@@V?$allocator@D@2@@std@@QAEAAV01@ABV01@@Z ; std::basic_string<char,std::char_traits<char>,std::allocator<char> >::operator=
; Function compile flags: /Ogsp
;	COMDAT ??4?$basic_string@DU?$char_traits@D@std@@V?$allocator@D@2@@std@@QAEAAV01@ABV01@@Z
_TEXT	SEGMENT
__Right$ = 8						; size = 4
??4?$basic_string@DU?$char_traits@D@std@@V?$allocator@D@2@@std@@QAEAAV01@ABV01@@Z PROC ; std::basic_string<char,std::char_traits<char>,std::allocator<char> >::operator=, COMDAT
; _this$ = ecx

; 763  : 		{	// assign _Right

  00000	55		 push	 ebp
  00001	8b ec		 mov	 ebp, esp

; 764  : 		return (assign(_Right));

  00003	6a ff		 push	 -1
  00005	6a 00		 push	 0
  00007	ff 75 08	 push	 DWORD PTR __Right$[ebp]
  0000a	e8 00 00 00 00	 call	 ?assign@?$basic_string@DU?$char_traits@D@std@@V?$allocator@D@2@@std@@QAEAAV12@ABV12@II@Z ; std::basic_string<char,std::char_traits<char>,std::allocator<char> >::assign

; 765  : 		}

  0000f	5d		 pop	 ebp
  00010	c2 04 00	 ret	 4
??4?$basic_string@DU?$char_traits@D@std@@V?$allocator@D@2@@std@@QAEAAV01@ABV01@@Z ENDP ; std::basic_string<char,std::char_traits<char>,std::allocator<char> >::operator=
_TEXT	ENDS
PUBLIC	?assign@?$basic_string@DU?$char_traits@D@std@@V?$allocator@D@2@@std@@QAEAAV12@$$QAV12@@Z ; std::basic_string<char,std::char_traits<char>,std::allocator<char> >::assign
; Function compile flags: /Ogsp
;	COMDAT ?assign@?$basic_string@DU?$char_traits@D@std@@V?$allocator@D@2@@std@@QAEAAV12@$$QAV12@@Z
_TEXT	SEGMENT
__Right$ = 8						; size = 4
?assign@?$basic_string@DU?$char_traits@D@std@@V?$allocator@D@2@@std@@QAEAAV12@$$QAV12@@Z PROC ; std::basic_string<char,std::char_traits<char>,std::allocator<char> >::assign, COMDAT
; _this$ = ecx

; 713  : 		{	// assign by moving _Right

  00000	55		 push	 ebp
  00001	8b ec		 mov	 ebp, esp
  00003	56		 push	 esi

; 714  : 		if (this == &_Right)

  00004	8b 75 08	 mov	 esi, DWORD PTR __Right$[ebp]
  00007	57		 push	 edi
  00008	8b f9		 mov	 edi, ecx
  0000a	3b fe		 cmp	 edi, esi
  0000c	74 3c		 je	 SHORT $LN3@assign@4

; 715  : 			;
; 716  : 		else if (get_allocator() != _Right.get_allocator()
; 717  : 			&& this->_BUF_SIZE <= _Right._Myres)
; 718  : 			*this = _Right;
; 719  : 		else
; 720  : 			{	// not same, clear this and steal from _Right
; 721  : 			_Tidy(true);

  0000e	6a 00		 push	 0
  00010	6a 01		 push	 1
  00012	e8 00 00 00 00	 call	 ?_Tidy@?$basic_string@DU?$char_traits@D@std@@V?$allocator@D@2@@std@@QAEX_NI@Z ; std::basic_string<char,std::char_traits<char>,std::allocator<char> >::_Tidy

; 722  : 			if (_Right._Myres < this->_BUF_SIZE)

  00017	83 7e 14 10	 cmp	 DWORD PTR [esi+20], 16	; 00000010H
  0001b	73 12		 jae	 SHORT $LN2@assign@4

; 723  : 				_Traits::move(this->_Bx._Buf, _Right._Bx._Buf,
; 724  : 					_Right._Mysize + 1);

  0001d	8b 46 10	 mov	 eax, DWORD PTR [esi+16]
  00020	40		 inc	 eax
  00021	50		 push	 eax
  00022	56		 push	 esi
  00023	57		 push	 edi
  00024	ff 15 00 00 00
	00		 call	 DWORD PTR __imp__memmove
  0002a	83 c4 0c	 add	 esp, 12			; 0000000cH

; 725  : 			else

  0002d	eb 07		 jmp	 SHORT $LN1@assign@4
$LN2@assign@4:

; 726  : 				{	// copy pointer
; 727  : 				this->_Bx._Ptr = _Right._Bx._Ptr;

  0002f	8b 06		 mov	 eax, DWORD PTR [esi]
  00031	89 07		 mov	 DWORD PTR [edi], eax

; 728  : 				_Right._Bx._Ptr = 0;

  00033	83 26 00	 and	 DWORD PTR [esi], 0
$LN1@assign@4:

; 729  : 				}
; 730  : 			this->_Mysize = _Right._Mysize;

  00036	8b 46 10	 mov	 eax, DWORD PTR [esi+16]
  00039	89 47 10	 mov	 DWORD PTR [edi+16], eax

; 731  : 			this->_Myres = _Right._Myres;

  0003c	8b 46 14	 mov	 eax, DWORD PTR [esi+20]
  0003f	89 47 14	 mov	 DWORD PTR [edi+20], eax

; 732  : 
; 733  : 			_Right._Mysize = 0;

  00042	83 66 10 00	 and	 DWORD PTR [esi+16], 0

; 734  : 			_Right._Myres = 0;

  00046	83 66 14 00	 and	 DWORD PTR [esi+20], 0
$LN3@assign@4:

; 735  : 			}
; 736  : 		return (*this);

  0004a	8b c7		 mov	 eax, edi
  0004c	5f		 pop	 edi
  0004d	5e		 pop	 esi

; 737  : 		}

  0004e	5d		 pop	 ebp
  0004f	c2 04 00	 ret	 4
?assign@?$basic_string@DU?$char_traits@D@std@@V?$allocator@D@2@@std@@QAEAAV12@$$QAV12@@Z ENDP ; std::basic_string<char,std::char_traits<char>,std::allocator<char> >::assign
_TEXT	ENDS
PUBLIC	??$_Dest_val@V?$allocator@V?$basic_string@DU?$char_traits@D@std@@V?$allocator@D@2@@std@@@std@@V?$basic_string@DU?$char_traits@D@std@@V?$allocator@D@2@@2@@std@@YAXAAV?$allocator@V?$basic_string@DU?$char_traits@D@std@@V?$allocator@D@2@@std@@@0@PAV?$basic_string@DU?$char_traits@D@std@@V?$allocator@D@2@@0@@Z ; std::_Dest_val<std::allocator<std::basic_string<char,std::char_traits<char>,std::allocator<char> > >,std::basic_string<char,std::char_traits<char>,std::allocator<char> > >
; Function compile flags: /Ogsp
; File c:\program files (x86)\microsoft visual studio 10.0\vc\include\xmemory
;	COMDAT ??$_Dest_val@V?$allocator@V?$basic_string@DU?$char_traits@D@std@@V?$allocator@D@2@@std@@@std@@V?$basic_string@DU?$char_traits@D@std@@V?$allocator@D@2@@2@@std@@YAXAAV?$allocator@V?$basic_string@DU?$char_traits@D@std@@V?$allocator@D@2@@std@@@0@PAV?$basic_string@DU?$char_traits@D@std@@V?$allocator@D@2@@0@@Z
_TEXT	SEGMENT
__Alval$ = 8						; size = 4
__Pdest$ = 12						; size = 4
??$_Dest_val@V?$allocator@V?$basic_string@DU?$char_traits@D@std@@V?$allocator@D@2@@std@@@std@@V?$basic_string@DU?$char_traits@D@std@@V?$allocator@D@2@@2@@std@@YAXAAV?$allocator@V?$basic_string@DU?$char_traits@D@std@@V?$allocator@D@2@@std@@@0@PAV?$basic_string@DU?$char_traits@D@std@@V?$allocator@D@2@@0@@Z PROC ; std::_Dest_val<std::allocator<std::basic_string<char,std::char_traits<char>,std::allocator<char> > >,std::basic_string<char,std::char_traits<char>,std::allocator<char> > >, COMDAT

; 286  : 	{	// destroy using allocator

  00000	55		 push	 ebp
  00001	8b ec		 mov	 ebp, esp

; 287  : 	_Alval.destroy(_Pdest);

  00003	8b 4d 0c	 mov	 ecx, DWORD PTR __Pdest$[ebp]
  00006	6a 00		 push	 0
  00008	6a 01		 push	 1
  0000a	e8 00 00 00 00	 call	 ?_Tidy@?$basic_string@DU?$char_traits@D@std@@V?$allocator@D@2@@std@@QAEX_NI@Z ; std::basic_string<char,std::char_traits<char>,std::allocator<char> >::_Tidy

; 288  : 	}

  0000f	5d		 pop	 ebp
  00010	c3		 ret	 0
??$_Dest_val@V?$allocator@V?$basic_string@DU?$char_traits@D@std@@V?$allocator@D@2@@std@@@std@@V?$basic_string@DU?$char_traits@D@std@@V?$allocator@D@2@@2@@std@@YAXAAV?$allocator@V?$basic_string@DU?$char_traits@D@std@@V?$allocator@D@2@@std@@@0@PAV?$basic_string@DU?$char_traits@D@std@@V?$allocator@D@2@@0@@Z ENDP ; std::_Dest_val<std::allocator<std::basic_string<char,std::char_traits<char>,std::allocator<char> > >,std::basic_string<char,std::char_traits<char>,std::allocator<char> > >
_TEXT	ENDS
PUBLIC	??1?$vector@UItemListInfoSort@@V?$allocator@UItemListInfoSort@@@std@@@std@@QAE@XZ ; std::vector<ItemListInfoSort,std::allocator<ItemListInfoSort> >::~vector<ItemListInfoSort,std::allocator<ItemListInfoSort> >
; Function compile flags: /Ogsp
; File c:\program files (x86)\microsoft visual studio 10.0\vc\include\vector
;	COMDAT ??1?$vector@UItemListInfoSort@@V?$allocator@UItemListInfoSort@@@std@@@std@@QAE@XZ
_TEXT	SEGMENT
??1?$vector@UItemListInfoSort@@V?$allocator@UItemListInfoSort@@@std@@@std@@QAE@XZ PROC ; std::vector<ItemListInfoSort,std::allocator<ItemListInfoSort> >::~vector<ItemListInfoSort,std::allocator<ItemListInfoSort> >, COMDAT
; _this$ = ecx

; 705  : 		_Tidy();

  00000	e9 00 00 00 00	 jmp	 ?_Tidy@?$vector@UItemListInfoSort@@V?$allocator@UItemListInfoSort@@@std@@@std@@IAEXXZ ; std::vector<ItemListInfoSort,std::allocator<ItemListInfoSort> >::_Tidy
??1?$vector@UItemListInfoSort@@V?$allocator@UItemListInfoSort@@@std@@@std@@QAE@XZ ENDP ; std::vector<ItemListInfoSort,std::allocator<ItemListInfoSort> >::~vector<ItemListInfoSort,std::allocator<ItemListInfoSort> >
_TEXT	ENDS
PUBLIC	?clear@?$vector@UItemListInfoSort@@V?$allocator@UItemListInfoSort@@@std@@@std@@QAEXXZ ; std::vector<ItemListInfoSort,std::allocator<ItemListInfoSort> >::clear
; Function compile flags: /Ogsp
;	COMDAT ?clear@?$vector@UItemListInfoSort@@V?$allocator@UItemListInfoSort@@@std@@@std@@QAEXXZ
_TEXT	SEGMENT
$T510708 = -4						; size = 4
?clear@?$vector@UItemListInfoSort@@V?$allocator@UItemListInfoSort@@@std@@@std@@QAEXXZ PROC ; std::vector<ItemListInfoSort,std::allocator<ItemListInfoSort> >::clear, COMDAT
; _this$ = ecx

; 1217 : 		{	// erase all

  00000	55		 push	 ebp
  00001	8b ec		 mov	 ebp, esp
  00003	51		 push	 ecx

; 1218 : 		erase(begin(), end());

  00004	8b 41 04	 mov	 eax, DWORD PTR [ecx+4]
  00007	8b 11		 mov	 edx, DWORD PTR [ecx]
  00009	50		 push	 eax
  0000a	52		 push	 edx
  0000b	8d 45 fc	 lea	 eax, DWORD PTR $T510708[ebp]
  0000e	50		 push	 eax
  0000f	e8 00 00 00 00	 call	 ?erase@?$vector@UItemListInfoSort@@V?$allocator@UItemListInfoSort@@@std@@@std@@QAE?AV?$_Vector_iterator@V?$_Vector_val@UItemListInfoSort@@V?$allocator@UItemListInfoSort@@@std@@@std@@@2@V?$_Vector_const_iterator@V?$_Vector_val@UItemListInfoSort@@V?$allocator@UItemListInfoSort@@@std@@@std@@@2@0@Z ; std::vector<ItemListInfoSort,std::allocator<ItemListInfoSort> >::erase

; 1219 : 		}

  00014	c9		 leave
  00015	c3		 ret	 0
?clear@?$vector@UItemListInfoSort@@V?$allocator@UItemListInfoSort@@@std@@@std@@QAEXXZ ENDP ; std::vector<ItemListInfoSort,std::allocator<ItemListInfoSort> >::clear
_TEXT	ENDS
PUBLIC	?_Reserve@?$vector@UItemListInfoSort@@V?$allocator@UItemListInfoSort@@@std@@@std@@IAEXI@Z ; std::vector<ItemListInfoSort,std::allocator<ItemListInfoSort> >::_Reserve
; Function compile flags: /Ogsp
;	COMDAT ?_Reserve@?$vector@UItemListInfoSort@@V?$allocator@UItemListInfoSort@@@std@@@std@@IAEXI@Z
_TEXT	SEGMENT
__Count$ = 8						; size = 4
?_Reserve@?$vector@UItemListInfoSort@@V?$allocator@UItemListInfoSort@@@std@@@std@@IAEXI@Z PROC ; std::vector<ItemListInfoSort,std::allocator<ItemListInfoSort> >::_Reserve, COMDAT
; _this$ = ecx

; 1290 : 		{	// ensure room for _Count new elements, grow exponentially

  00000	55		 push	 ebp
  00001	8b ec		 mov	 ebp, esp
  00003	56		 push	 esi
  00004	8b f1		 mov	 esi, ecx

; 1291 : 		size_type _Size = size();

  00006	8b 0e		 mov	 ecx, DWORD PTR [esi]
  00008	8b 46 04	 mov	 eax, DWORD PTR [esi+4]
  0000b	2b c1		 sub	 eax, ecx
  0000d	57		 push	 edi
  0000e	99		 cdq
  0000f	6a 14		 push	 20			; 00000014H
  00011	5f		 pop	 edi
  00012	f7 ff		 idiv	 edi
  00014	8b f8		 mov	 edi, eax

; 1292 : 		if (max_size() - _Count < _Size)

  00016	b8 cc cc cc 0c	 mov	 eax, 214748364		; 0cccccccH
  0001b	2b 45 08	 sub	 eax, DWORD PTR __Count$[ebp]
  0001e	3b c7		 cmp	 eax, edi
  00020	73 0b		 jae	 SHORT $LN4@Reserve

; 1293 : 			_Xlen();

  00022	68 00 00 00 00	 push	 OFFSET ??_C@_0BD@OLBABOEK@vector?$DMT?$DO?5too?5long?$AA@
  00027	ff 15 00 00 00
	00		 call	 DWORD PTR __imp_?_Xlength_error@std@@YAXPBD@Z
$LN21@Reserve:
$LN4@Reserve:

; 1294 : 		else if ((_Size += _Count) <= capacity())

  0002d	8b 46 08	 mov	 eax, DWORD PTR [esi+8]
  00030	2b c1		 sub	 eax, ecx
  00032	6a 14		 push	 20			; 00000014H
  00034	99		 cdq
  00035	59		 pop	 ecx
  00036	f7 f9		 idiv	 ecx
  00038	03 7d 08	 add	 edi, DWORD PTR __Count$[ebp]
  0003b	3b f8		 cmp	 edi, eax
  0003d	76 10		 jbe	 SHORT $LN1@Reserve

; 1295 : 			;
; 1296 : 		else
; 1297 : 			reserve(_Grow_to(_Size));

  0003f	57		 push	 edi
  00040	8b ce		 mov	 ecx, esi
  00042	e8 00 00 00 00	 call	 ?_Grow_to@?$vector@UItemListInfoSort@@V?$allocator@UItemListInfoSort@@@std@@@std@@IBEII@Z ; std::vector<ItemListInfoSort,std::allocator<ItemListInfoSort> >::_Grow_to
  00047	50		 push	 eax
  00048	8b ce		 mov	 ecx, esi
  0004a	e8 00 00 00 00	 call	 ?reserve@?$vector@UItemListInfoSort@@V?$allocator@UItemListInfoSort@@@std@@@std@@QAEXI@Z ; std::vector<ItemListInfoSort,std::allocator<ItemListInfoSort> >::reserve
$LN1@Reserve:
  0004f	5f		 pop	 edi
  00050	5e		 pop	 esi

; 1298 : 		}

  00051	5d		 pop	 ebp
  00052	c2 04 00	 ret	 4
$LN20@Reserve:
?_Reserve@?$vector@UItemListInfoSort@@V?$allocator@UItemListInfoSort@@@std@@@std@@IAEXI@Z ENDP ; std::vector<ItemListInfoSort,std::allocator<ItemListInfoSort> >::_Reserve
_TEXT	ENDS
PUBLIC	??$sort@V?$_Vector_iterator@V?$_Vector_val@UItemListInfoSort@@V?$allocator@UItemListInfoSort@@@std@@@std@@@std@@VShopExtraItemSort@@@std@@YAXV?$_Vector_iterator@V?$_Vector_val@UItemListInfoSort@@V?$allocator@UItemListInfoSort@@@std@@@std@@@0@0VShopExtraItemSort@@@Z ; std::sort<std::_Vector_iterator<std::_Vector_val<ItemListInfoSort,std::allocator<ItemListInfoSort> > >,ShopExtraItemSort>
; Function compile flags: /Ogsp
; File c:\program files (x86)\microsoft visual studio 10.0\vc\include\algorithm
;	COMDAT ??$sort@V?$_Vector_iterator@V?$_Vector_val@UItemListInfoSort@@V?$allocator@UItemListInfoSort@@@std@@@std@@@std@@VShopExtraItemSort@@@std@@YAXV?$_Vector_iterator@V?$_Vector_val@UItemListInfoSort@@V?$allocator@UItemListInfoSort@@@std@@@std@@@0@0VShopExtraItemSort@@@Z
_TEXT	SEGMENT
__First$ = 8						; size = 4
__Last$ = 12						; size = 4
__Pred$ = 16						; size = 1
??$sort@V?$_Vector_iterator@V?$_Vector_val@UItemListInfoSort@@V?$allocator@UItemListInfoSort@@@std@@@std@@@std@@VShopExtraItemSort@@@std@@YAXV?$_Vector_iterator@V?$_Vector_val@UItemListInfoSort@@V?$allocator@UItemListInfoSort@@@std@@@std@@@0@0VShopExtraItemSort@@@Z PROC ; std::sort<std::_Vector_iterator<std::_Vector_val<ItemListInfoSort,std::allocator<ItemListInfoSort> > >,ShopExtraItemSort>, COMDAT

; 3803 : 	{	// order [_First, _Last), using _Pred

  00000	55		 push	 ebp
  00001	8b ec		 mov	 ebp, esp

; 3804 : 	_DEBUG_RANGE(_First, _Last);
; 3805 : 	_DEBUG_POINTER(_Pred);
; 3806 : 	_Sort(_Unchecked(_First), _Unchecked(_Last), _Last - _First, _Pred);

  00003	ff 75 10	 push	 DWORD PTR __Pred$[ebp]
  00006	8b 45 0c	 mov	 eax, DWORD PTR __Last$[ebp]
  00009	2b 45 08	 sub	 eax, DWORD PTR __First$[ebp]
  0000c	6a 14		 push	 20			; 00000014H
  0000e	59		 pop	 ecx
  0000f	99		 cdq
  00010	f7 f9		 idiv	 ecx
  00012	50		 push	 eax
  00013	ff 75 0c	 push	 DWORD PTR __Last$[ebp]
  00016	ff 75 08	 push	 DWORD PTR __First$[ebp]
  00019	e8 00 00 00 00	 call	 ??$_Sort@PAUItemListInfoSort@@HVShopExtraItemSort@@@std@@YAXPAUItemListInfoSort@@0HVShopExtraItemSort@@@Z ; std::_Sort<ItemListInfoSort *,int,ShopExtraItemSort>
  0001e	83 c4 10	 add	 esp, 16			; 00000010H

; 3807 : 	}

  00021	5d		 pop	 ebp
  00022	c3		 ret	 0
??$sort@V?$_Vector_iterator@V?$_Vector_val@UItemListInfoSort@@V?$allocator@UItemListInfoSort@@@std@@@std@@@std@@VShopExtraItemSort@@@std@@YAXV?$_Vector_iterator@V?$_Vector_val@UItemListInfoSort@@V?$allocator@UItemListInfoSort@@@std@@@std@@@0@0VShopExtraItemSort@@@Z ENDP ; std::sort<std::_Vector_iterator<std::_Vector_val<ItemListInfoSort,std::allocator<ItemListInfoSort> > >,ShopExtraItemSort>
_TEXT	ENDS
PUBLIC	??$_Copy_impl@PAV?$basic_string@DU?$char_traits@D@std@@V?$allocator@D@2@@std@@PAV12@@std@@YAPAV?$basic_string@DU?$char_traits@D@std@@V?$allocator@D@2@@0@PAV10@00U_Nonscalar_ptr_iterator_tag@0@@Z ; std::_Copy_impl<std::basic_string<char,std::char_traits<char>,std::allocator<char> > *,std::basic_string<char,std::char_traits<char>,std::allocator<char> > *>
; Function compile flags: /Ogsp
; File c:\program files (x86)\microsoft visual studio 10.0\vc\include\xutility
;	COMDAT ??$_Copy_impl@PAV?$basic_string@DU?$char_traits@D@std@@V?$allocator@D@2@@std@@PAV12@@std@@YAPAV?$basic_string@DU?$char_traits@D@std@@V?$allocator@D@2@@0@PAV10@00U_Nonscalar_ptr_iterator_tag@0@@Z
_TEXT	SEGMENT
__First$ = 8						; size = 4
__Last$ = 12						; size = 4
__Dest$ = 16						; size = 4
___formal$ = 20						; size = 1
??$_Copy_impl@PAV?$basic_string@DU?$char_traits@D@std@@V?$allocator@D@2@@std@@PAV12@@std@@YAPAV?$basic_string@DU?$char_traits@D@std@@V?$allocator@D@2@@0@PAV10@00U_Nonscalar_ptr_iterator_tag@0@@Z PROC ; std::_Copy_impl<std::basic_string<char,std::char_traits<char>,std::allocator<char> > *,std::basic_string<char,std::char_traits<char>,std::allocator<char> > *>, COMDAT

; 2142 : 	{	// copy [_First, _Last) to [_Dest, ...), arbitrary iterators

  00000	55		 push	 ebp
  00001	8b ec		 mov	 ebp, esp
  00003	56		 push	 esi

; 2143 : 	for (; _First != _Last; ++_Dest, ++_First)

  00004	8b 75 08	 mov	 esi, DWORD PTR __First$[ebp]
  00007	eb 14		 jmp	 SHORT $LN13@Copy_impl
$LL3@Copy_impl:

; 2144 : 		*_Dest = *_First;

  00009	8b 4d 10	 mov	 ecx, DWORD PTR __Dest$[ebp]
  0000c	6a ff		 push	 -1
  0000e	6a 00		 push	 0
  00010	56		 push	 esi
  00011	e8 00 00 00 00	 call	 ?assign@?$basic_string@DU?$char_traits@D@std@@V?$allocator@D@2@@std@@QAEAAV12@ABV12@II@Z ; std::basic_string<char,std::char_traits<char>,std::allocator<char> >::assign
  00016	83 45 10 1c	 add	 DWORD PTR __Dest$[ebp], 28 ; 0000001cH
  0001a	83 c6 1c	 add	 esi, 28			; 0000001cH
$LN13@Copy_impl:

; 2143 : 	for (; _First != _Last; ++_Dest, ++_First)

  0001d	3b 75 0c	 cmp	 esi, DWORD PTR __Last$[ebp]
  00020	75 e7		 jne	 SHORT $LL3@Copy_impl

; 2145 : 	return (_Dest);

  00022	8b 45 10	 mov	 eax, DWORD PTR __Dest$[ebp]
  00025	5e		 pop	 esi

; 2146 : 	}

  00026	5d		 pop	 ebp
  00027	c3		 ret	 0
??$_Copy_impl@PAV?$basic_string@DU?$char_traits@D@std@@V?$allocator@D@2@@std@@PAV12@@std@@YAPAV?$basic_string@DU?$char_traits@D@std@@V?$allocator@D@2@@0@PAV10@00U_Nonscalar_ptr_iterator_tag@0@@Z ENDP ; std::_Copy_impl<std::basic_string<char,std::char_traits<char>,std::allocator<char> > *,std::basic_string<char,std::char_traits<char>,std::allocator<char> > *>
_TEXT	ENDS
PUBLIC	??$_Cons_val@V?$allocator@V?$basic_string@DU?$char_traits@D@std@@V?$allocator@D@2@@std@@@std@@V?$basic_string@DU?$char_traits@D@std@@V?$allocator@D@2@@2@AAV32@@std@@YAXAAV?$allocator@V?$basic_string@DU?$char_traits@D@std@@V?$allocator@D@2@@std@@@0@PAV?$basic_string@DU?$char_traits@D@std@@V?$allocator@D@2@@0@AAV20@@Z ; std::_Cons_val<std::allocator<std::basic_string<char,std::char_traits<char>,std::allocator<char> > >,std::basic_string<char,std::char_traits<char>,std::allocator<char> >,std::basic_string<char,std::char_traits<char>,std::allocator<char> > &>
;	COMDAT xdata$x
; File c:\program files (x86)\microsoft visual studio 10.0\vc\include\utility
xdata$x	SEGMENT
__unwindtable$??$_Cons_val@V?$allocator@V?$basic_string@DU?$char_traits@D@std@@V?$allocator@D@2@@std@@@std@@V?$basic_string@DU?$char_traits@D@std@@V?$allocator@D@2@@2@AAV32@@std@@YAXAAV?$allocator@V?$basic_string@DU?$char_traits@D@std@@V?$allocator@D@2@@std@@@0@PAV?$basic_string@DU?$char_traits@D@std@@V?$allocator@D@2@@0@AAV20@@Z DD 0ffffffffH
	DD	FLAT:__unwindfunclet$??$_Cons_val@V?$allocator@V?$basic_string@DU?$char_traits@D@std@@V?$allocator@D@2@@std@@@std@@V?$basic_string@DU?$char_traits@D@std@@V?$allocator@D@2@@2@AAV32@@std@@YAXAAV?$allocator@V?$basic_string@DU?$char_traits@D@std@@V?$allocator@D@2@@std@@@0@PAV?$basic_string@DU?$char_traits@D@std@@V?$allocator@D@2@@0@AAV20@@Z$0
__ehfuncinfo$??$_Cons_val@V?$allocator@V?$basic_string@DU?$char_traits@D@std@@V?$allocator@D@2@@std@@@std@@V?$basic_string@DU?$char_traits@D@std@@V?$allocator@D@2@@2@AAV32@@std@@YAXAAV?$allocator@V?$basic_string@DU?$char_traits@D@std@@V?$allocator@D@2@@std@@@0@PAV?$basic_string@DU?$char_traits@D@std@@V?$allocator@D@2@@0@AAV20@@Z DD 019930522H
	DD	01H
	DD	FLAT:__unwindtable$??$_Cons_val@V?$allocator@V?$basic_string@DU?$char_traits@D@std@@V?$allocator@D@2@@std@@@std@@V?$basic_string@DU?$char_traits@D@std@@V?$allocator@D@2@@2@AAV32@@std@@YAXAAV?$allocator@V?$basic_string@DU?$char_traits@D@std@@V?$allocator@D@2@@std@@@0@PAV?$basic_string@DU?$char_traits@D@std@@V?$allocator@D@2@@0@AAV20@@Z
	DD	2 DUP(00H)
	DD	2 DUP(00H)
	DD	00H
	DD	01H
; Function compile flags: /Ogsp
; File c:\program files (x86)\microsoft visual studio 10.0\vc\include\xmemory
xdata$x	ENDS
;	COMDAT ??$_Cons_val@V?$allocator@V?$basic_string@DU?$char_traits@D@std@@V?$allocator@D@2@@std@@@std@@V?$basic_string@DU?$char_traits@D@std@@V?$allocator@D@2@@2@AAV32@@std@@YAXAAV?$allocator@V?$basic_string@DU?$char_traits@D@std@@V?$allocator@D@2@@std@@@0@PAV?$basic_string@DU?$char_traits@D@std@@V?$allocator@D@2@@0@AAV20@@Z
_TEXT	SEGMENT
$T510858 = -16						; size = 4
__$EHRec$ = -12						; size = 12
__Alval$ = 8						; size = 4
__Pdest$ = 12						; size = 4
__Src$ = 16						; size = 4
??$_Cons_val@V?$allocator@V?$basic_string@DU?$char_traits@D@std@@V?$allocator@D@2@@std@@@std@@V?$basic_string@DU?$char_traits@D@std@@V?$allocator@D@2@@2@AAV32@@std@@YAXAAV?$allocator@V?$basic_string@DU?$char_traits@D@std@@V?$allocator@D@2@@std@@@0@PAV?$basic_string@DU?$char_traits@D@std@@V?$allocator@D@2@@0@AAV20@@Z PROC ; std::_Cons_val<std::allocator<std::basic_string<char,std::char_traits<char>,std::allocator<char> > >,std::basic_string<char,std::char_traits<char>,std::allocator<char> >,std::basic_string<char,std::char_traits<char>,std::allocator<char> > &>, COMDAT

; 279  : 	{	// construct using allocator

  00000	6a 04		 push	 4
  00002	b8 00 00 00 00	 mov	 eax, __ehhandler$??$_Cons_val@V?$allocator@V?$basic_string@DU?$char_traits@D@std@@V?$allocator@D@2@@std@@@std@@V?$basic_string@DU?$char_traits@D@std@@V?$allocator@D@2@@2@AAV32@@std@@YAXAAV?$allocator@V?$basic_string@DU?$char_traits@D@std@@V?$allocator@D@2@@std@@@0@PAV?$basic_string@DU?$char_traits@D@std@@V?$allocator@D@2@@0@AAV20@@Z
  00007	e8 00 00 00 00	 call	 __EH_prolog3

; 280  : 	_Alval.construct(_Pdest, _STD forward<_Ty2>(_Src));

  0000c	8b 4d 0c	 mov	 ecx, DWORD PTR __Pdest$[ebp]
  0000f	89 4d f0	 mov	 DWORD PTR $T510858[ebp], ecx
  00012	83 65 fc 00	 and	 DWORD PTR __$EHRec$[ebp+8], 0
  00016	85 c9		 test	 ecx, ecx
  00018	74 08		 je	 SHORT $LN7@Cons_val@4
  0001a	ff 75 10	 push	 DWORD PTR __Src$[ebp]
  0001d	e8 00 00 00 00	 call	 ??0?$basic_string@DU?$char_traits@D@std@@V?$allocator@D@2@@std@@QAE@ABV01@@Z ; std::basic_string<char,std::char_traits<char>,std::allocator<char> >::basic_string<char,std::char_traits<char>,std::allocator<char> >
$LN7@Cons_val@4:

; 281  : 	}

  00022	e8 00 00 00 00	 call	 __EH_epilog3
  00027	c3		 ret	 0
_TEXT	ENDS
;	COMDAT text$x
text$x	SEGMENT
__unwindfunclet$??$_Cons_val@V?$allocator@V?$basic_string@DU?$char_traits@D@std@@V?$allocator@D@2@@std@@@std@@V?$basic_string@DU?$char_traits@D@std@@V?$allocator@D@2@@2@AAV32@@std@@YAXAAV?$allocator@V?$basic_string@DU?$char_traits@D@std@@V?$allocator@D@2@@std@@@0@PAV?$basic_string@DU?$char_traits@D@std@@V?$allocator@D@2@@0@AAV20@@Z$0:
  00000	ff 75 0c	 push	 DWORD PTR __Pdest$[ebp]
  00003	ff 75 f0	 push	 DWORD PTR $T510858[ebp]
  00006	e8 00 00 00 00	 call	 ??3@YAXPAX0@Z		; operator delete
  0000b	59		 pop	 ecx
  0000c	59		 pop	 ecx
  0000d	c3		 ret	 0
__ehhandler$??$_Cons_val@V?$allocator@V?$basic_string@DU?$char_traits@D@std@@V?$allocator@D@2@@std@@@std@@V?$basic_string@DU?$char_traits@D@std@@V?$allocator@D@2@@2@AAV32@@std@@YAXAAV?$allocator@V?$basic_string@DU?$char_traits@D@std@@V?$allocator@D@2@@std@@@0@PAV?$basic_string@DU?$char_traits@D@std@@V?$allocator@D@2@@0@AAV20@@Z:
  0000e	8b 54 24 08	 mov	 edx, DWORD PTR [esp+8]
  00012	8d 42 0c	 lea	 eax, DWORD PTR [edx+12]
  00015	8b 4a ec	 mov	 ecx, DWORD PTR [edx-20]
  00018	33 c8		 xor	 ecx, eax
  0001a	e8 00 00 00 00	 call	 @__security_check_cookie@4
  0001f	b8 00 00 00 00	 mov	 eax, OFFSET __ehfuncinfo$??$_Cons_val@V?$allocator@V?$basic_string@DU?$char_traits@D@std@@V?$allocator@D@2@@std@@@std@@V?$basic_string@DU?$char_traits@D@std@@V?$allocator@D@2@@2@AAV32@@std@@YAXAAV?$allocator@V?$basic_string@DU?$char_traits@D@std@@V?$allocator@D@2@@std@@@0@PAV?$basic_string@DU?$char_traits@D@std@@V?$allocator@D@2@@0@AAV20@@Z
  00024	e9 00 00 00 00	 jmp	 ___CxxFrameHandler3
text$x	ENDS
??$_Cons_val@V?$allocator@V?$basic_string@DU?$char_traits@D@std@@V?$allocator@D@2@@std@@@std@@V?$basic_string@DU?$char_traits@D@std@@V?$allocator@D@2@@2@AAV32@@std@@YAXAAV?$allocator@V?$basic_string@DU?$char_traits@D@std@@V?$allocator@D@2@@std@@@0@PAV?$basic_string@DU?$char_traits@D@std@@V?$allocator@D@2@@0@AAV20@@Z ENDP ; std::_Cons_val<std::allocator<std::basic_string<char,std::char_traits<char>,std::allocator<char> > >,std::basic_string<char,std::char_traits<char>,std::allocator<char> >,std::basic_string<char,std::char_traits<char>,std::allocator<char> > &>
PUBLIC	??4?$basic_string@DU?$char_traits@D@std@@V?$allocator@D@2@@std@@QAEAAV01@$$QAV01@@Z ; std::basic_string<char,std::char_traits<char>,std::allocator<char> >::operator=
; Function compile flags: /Ogsp
; File c:\program files (x86)\microsoft visual studio 10.0\vc\include\xstring
;	COMDAT ??4?$basic_string@DU?$char_traits@D@std@@V?$allocator@D@2@@std@@QAEAAV01@$$QAV01@@Z
_TEXT	SEGMENT
__Right$ = 8						; size = 4
??4?$basic_string@DU?$char_traits@D@std@@V?$allocator@D@2@@std@@QAEAAV01@$$QAV01@@Z PROC ; std::basic_string<char,std::char_traits<char>,std::allocator<char> >::operator=, COMDAT
; _this$ = ecx

; 708  : 		{	// assign by moving _Right

  00000	55		 push	 ebp
  00001	8b ec		 mov	 ebp, esp

; 710  : 		}

  00003	5d		 pop	 ebp

; 709  : 		return (assign(_STD forward<_Myt>(_Right)));

  00004	e9 00 00 00 00	 jmp	 ?assign@?$basic_string@DU?$char_traits@D@std@@V?$allocator@D@2@@std@@QAEAAV12@$$QAV12@@Z ; std::basic_string<char,std::char_traits<char>,std::allocator<char> >::assign
??4?$basic_string@DU?$char_traits@D@std@@V?$allocator@D@2@@std@@QAEAAV01@$$QAV01@@Z ENDP ; std::basic_string<char,std::char_traits<char>,std::allocator<char> >::operator=
_TEXT	ENDS
PUBLIC	??$_Destroy_range@V?$allocator@V?$basic_string@DU?$char_traits@D@std@@V?$allocator@D@2@@std@@@std@@@std@@YAXPAV?$basic_string@DU?$char_traits@D@std@@V?$allocator@D@2@@0@0AAV?$allocator@V?$basic_string@DU?$char_traits@D@std@@V?$allocator@D@2@@std@@@0@U_Nonscalar_ptr_iterator_tag@0@@Z ; std::_Destroy_range<std::allocator<std::basic_string<char,std::char_traits<char>,std::allocator<char> > > >
; Function compile flags: /Ogsp
; File c:\program files (x86)\microsoft visual studio 10.0\vc\include\xmemory
;	COMDAT ??$_Destroy_range@V?$allocator@V?$basic_string@DU?$char_traits@D@std@@V?$allocator@D@2@@std@@@std@@@std@@YAXPAV?$basic_string@DU?$char_traits@D@std@@V?$allocator@D@2@@0@0AAV?$allocator@V?$basic_string@DU?$char_traits@D@std@@V?$allocator@D@2@@std@@@0@U_Nonscalar_ptr_iterator_tag@0@@Z
_TEXT	SEGMENT
__First$ = 8						; size = 4
__Last$ = 12						; size = 4
__Al$ = 16						; size = 4
___formal$ = 20						; size = 1
??$_Destroy_range@V?$allocator@V?$basic_string@DU?$char_traits@D@std@@V?$allocator@D@2@@std@@@std@@@std@@YAXPAV?$basic_string@DU?$char_traits@D@std@@V?$allocator@D@2@@0@0AAV?$allocator@V?$basic_string@DU?$char_traits@D@std@@V?$allocator@D@2@@std@@@0@U_Nonscalar_ptr_iterator_tag@0@@Z PROC ; std::_Destroy_range<std::allocator<std::basic_string<char,std::char_traits<char>,std::allocator<char> > > >, COMDAT

; 95   : 	{	// destroy [_First, _Last), arbitrary type

  00000	55		 push	 ebp
  00001	8b ec		 mov	 ebp, esp
  00003	56		 push	 esi

; 96   : 	for (; _First != _Last; ++_First)

  00004	8b 75 08	 mov	 esi, DWORD PTR __First$[ebp]
  00007	eb 0e		 jmp	 SHORT $LN21@Destroy_ra
$LL3@Destroy_ra:

; 97   : 		_Dest_val(_Al, _First);

  00009	6a 00		 push	 0
  0000b	6a 01		 push	 1
  0000d	8b ce		 mov	 ecx, esi
  0000f	e8 00 00 00 00	 call	 ?_Tidy@?$basic_string@DU?$char_traits@D@std@@V?$allocator@D@2@@std@@QAEX_NI@Z ; std::basic_string<char,std::char_traits<char>,std::allocator<char> >::_Tidy
  00014	83 c6 1c	 add	 esi, 28			; 0000001cH
$LN21@Destroy_ra:

; 96   : 	for (; _First != _Last; ++_First)

  00017	3b 75 0c	 cmp	 esi, DWORD PTR __Last$[ebp]
  0001a	75 ed		 jne	 SHORT $LL3@Destroy_ra
  0001c	5e		 pop	 esi

; 98   : 	}

  0001d	5d		 pop	 ebp
  0001e	c3		 ret	 0
??$_Destroy_range@V?$allocator@V?$basic_string@DU?$char_traits@D@std@@V?$allocator@D@2@@std@@@std@@@std@@YAXPAV?$basic_string@DU?$char_traits@D@std@@V?$allocator@D@2@@0@0AAV?$allocator@V?$basic_string@DU?$char_traits@D@std@@V?$allocator@D@2@@std@@@0@U_Nonscalar_ptr_iterator_tag@0@@Z ENDP ; std::_Destroy_range<std::allocator<std::basic_string<char,std::char_traits<char>,std::allocator<char> > > >
_TEXT	ENDS
PUBLIC	??_7ioExtraItemListWnd@@6B@			; ioExtraItemListWnd::`vftable'
PUBLIC	??0ioExtraItemListWnd@@QAE@XZ			; ioExtraItemListWnd::ioExtraItemListWnd
PUBLIC	??_R4ioExtraItemListWnd@@6B@			; ioExtraItemListWnd::`RTTI Complete Object Locator'
PUBLIC	??_R0?AVioExtraItemListWnd@@@8			; ioExtraItemListWnd `RTTI Type Descriptor'
PUBLIC	??_R3ioExtraItemListWnd@@8			; ioExtraItemListWnd::`RTTI Class Hierarchy Descriptor'
PUBLIC	??_R2ioExtraItemListWnd@@8			; ioExtraItemListWnd::`RTTI Base Class Array'
PUBLIC	??_R1A@?0A@EA@ioExtraItemListWnd@@8		; ioExtraItemListWnd::`RTTI Base Class Descriptor at (0,-1,0,64)'
PUBLIC	??_R1A@?0A@EA@ioWnd@@8				; ioWnd::`RTTI Base Class Descriptor at (0,-1,0,64)'
PUBLIC	??_R0?AVioWnd@@@8				; ioWnd `RTTI Type Descriptor'
PUBLIC	??_R3ioWnd@@8					; ioWnd::`RTTI Class Hierarchy Descriptor'
PUBLIC	??_R2ioWnd@@8					; ioWnd::`RTTI Base Class Array'
PUBLIC	?iwm_command@ioExtraItemListWnd@@UAEXPAVioWnd@@HK@Z ; ioExtraItemListWnd::iwm_command
EXTRN	__imp_??1ioWnd@@UAE@XZ:PROC
EXTRN	__imp_??0ioHashString@@QAE@XZ:PROC
EXTRN	__imp_??0ioWnd@@QAE@XZ:PROC
EXTRN	?AddRenderFrame@ioWnd@@UAEXABVioHashString@@PAVioUIRenderFrame@@@Z:PROC ; ioWnd::AddRenderFrame
EXTRN	?AddRenderImage@ioWnd@@UAEXABVioHashString@@PAVioUIRenderImage@@@Z:PROC ; ioWnd::AddRenderImage
EXTRN	?AddTooltipHelp@ioWnd@@UAEXABVioHashString@@00@Z:PROC ; ioWnd::AddTooltipHelp
EXTRN	?ParseExtraInfo@ioWnd@@UAEXAAVioXMLElement@@@Z:PROC ; ioWnd::ParseExtraInfo
EXTRN	?AddNamedRenderImage@ioWnd@@UAEXABVioHashString@@PAVioUIRenderImage@@@Z:PROC ; ioWnd::AddNamedRenderImage
EXTRN	?RemoveNamedRenderImage@ioWnd@@UAEXABVioHashString@@@Z:PROC ; ioWnd::RemoveNamedRenderImage
EXTRN	?GetNamedRenderImage@ioWnd@@UBEPAVioUIRenderImage@@ABVioHashString@@@Z:PROC ; ioWnd::GetNamedRenderImage
EXTRN	?SetWindowAlpha@ioWnd@@UAEXH@Z:PROC		; ioWnd::SetWindowAlpha
EXTRN	?SetActive@ioWnd@@UAEXXZ:PROC			; ioWnd::SetActive
EXTRN	?SetInActive@ioWnd@@UAEXXZ:PROC			; ioWnd::SetInActive
EXTRN	?ClearElementImageList@ioWnd@@UAEXXZ:PROC	; ioWnd::ClearElementImageList
EXTRN	?SetSize@ioWnd@@UAEXHH@Z:PROC			; ioWnd::SetSize
EXTRN	?SetPositionToDefault@ioWnd@@UAEXHH_N0@Z:PROC	; ioWnd::SetPositionToDefault
EXTRN	?IsNeedProcess@ioWnd@@UBE_NXZ:PROC		; ioWnd::IsNeedProcess
EXTRN	?IsCanMouseReaction@ioWnd@@UBE_NXZ:PROC		; ioWnd::IsCanMouseReaction
EXTRN	?AddChild@ioWnd@@UAEXPAV1@@Z:PROC		; ioWnd::AddChild
EXTRN	?DeleteChild@ioWnd@@UAEXK@Z:PROC		; ioWnd::DeleteChild
EXTRN	?DeleteAllChild@ioWnd@@UAEXXZ:PROC		; ioWnd::DeleteAllChild
EXTRN	?OnRenderShowAndHide@ioWnd@@MAE_NXZ:PROC	; ioWnd::OnRenderShowAndHide
EXTRN	?OnRenderShowAndHideByDefault@ioWnd@@MAE_NK@Z:PROC ; ioWnd::OnRenderShowAndHideByDefault
EXTRN	?OnRenderShowAndHideByTop@ioWnd@@MAE_NK@Z:PROC	; ioWnd::OnRenderShowAndHideByTop
EXTRN	?OnRenderShowAndHideByDown@ioWnd@@MAE_NK@Z:PROC	; ioWnd::OnRenderShowAndHideByDown
EXTRN	?OnRenderAfterChild@ioWnd@@MAEXXZ:PROC		; ioWnd::OnRenderAfterChild
EXTRN	?OnProcess@ioWnd@@MAEXM@Z:PROC			; ioWnd::OnProcess
EXTRN	?OnMouseProcess@ioWnd@@MAEXABVioMouse@@@Z:PROC	; ioWnd::OnMouseProcess
EXTRN	?CheckFrameReSize@ioWnd@@MAEXHHHH@Z:PROC	; ioWnd::CheckFrameReSize
EXTRN	?RenderImageList@ioWnd@@MAEXHHW4UIRenderType@@@Z:PROC ; ioWnd::RenderImageList
EXTRN	?iwm_create@ioWnd@@UAEXXZ:PROC			; ioWnd::iwm_create
EXTRN	?iwm_destroy@ioWnd@@UAEXXZ:PROC			; ioWnd::iwm_destroy
EXTRN	?iwm_lbuttondown@ioWnd@@UAEXABVioMouse@@@Z:PROC	; ioWnd::iwm_lbuttondown
EXTRN	?iwm_lbuttonup@ioWnd@@UAEXABVioMouse@@@Z:PROC	; ioWnd::iwm_lbuttonup
EXTRN	?iwm_lbuttonDBLCLK@ioWnd@@UAEXABVioMouse@@@Z:PROC ; ioWnd::iwm_lbuttonDBLCLK
EXTRN	?iwm_rbuttondown@ioWnd@@UAEXABVioMouse@@@Z:PROC	; ioWnd::iwm_rbuttondown
EXTRN	?iwm_rbuttonup@ioWnd@@UAEXABVioMouse@@@Z:PROC	; ioWnd::iwm_rbuttonup
EXTRN	?iwm_mouseover@ioWnd@@UAEXABVioMouse@@@Z:PROC	; ioWnd::iwm_mouseover
EXTRN	?iwm_mousemove@ioWnd@@UAEXABVioMouse@@@Z:PROC	; ioWnd::iwm_mousemove
EXTRN	?iwm_mouseleave@ioWnd@@UAEXABVioMouse@@@Z:PROC	; ioWnd::iwm_mouseleave
EXTRN	?iwm_vscroll@ioWnd@@UAEXKH@Z:PROC		; ioWnd::iwm_vscroll
EXTRN	?iwm_wheel@ioWnd@@UAEXH@Z:PROC			; ioWnd::iwm_wheel
EXTRN	?iwm_show@ioWnd@@UAEXXZ:PROC			; ioWnd::iwm_show
EXTRN	?iwm_hide@ioWnd@@UAEXXZ:PROC			; ioWnd::iwm_hide
EXTRN	?iwm_esc@ioWnd@@UAE_NXZ:PROC			; ioWnd::iwm_esc
EXTRN	?iwm_spacebar@ioWnd@@UAE_NXZ:PROC		; ioWnd::iwm_spacebar
EXTRN	?iwm_gototop@ioWnd@@UAEXXZ:PROC			; ioWnd::iwm_gototop
EXTRN	?iwm_dragenter@ioWnd@@UAE?AW4IWDropEffect@@PAVioDragItem@@ABVioMouse@@@Z:PROC ; ioWnd::iwm_dragenter
EXTRN	?iwm_dragover@ioWnd@@UAE?AW4IWDropEffect@@PAVioDragItem@@ABVioMouse@@@Z:PROC ; ioWnd::iwm_dragover
EXTRN	?iwm_dragleave@ioWnd@@UAEXXZ:PROC		; ioWnd::iwm_dragleave
EXTRN	?iwm_dropitem@ioWnd@@UAE_NPAVioDragItem@@ABVioMouse@@PAV1@@Z:PROC ; ioWnd::iwm_dropitem
EXTRN	?iwm_dropdone@ioWnd@@UAEXPAVioDragItem@@PAV1@_N@Z:PROC ; ioWnd::iwm_dropdone
EXTRN	?IsEXType@ioWnd@@UBE_NXZ:PROC			; ioWnd::IsEXType
EXTRN	?GetWndType@ioWnd@@UBEKXZ:PROC			; ioWnd::GetWndType
EXTRN	?RenderWnd@ioWnd@@UAEXXZ:PROC			; ioWnd::RenderWnd
EXTRN	?SetIDEX@ioWnd@@UAEXAAK_N@Z:PROC		; ioWnd::SetIDEX
EXTRN	?ParseXML@ioWnd@@UAEXAAVioXMLElement@@@Z:PROC	; ioWnd::ParseXML
EXTRN	?GetHeaderFileName@ioWnd@@UAEPBDXZ:PROC		; ioWnd::GetHeaderFileName
EXTRN	?GetTemplateName@ioWnd@@UAEPBDXZ:PROC		; ioWnd::GetTemplateName
EXTRN	?GetDefClassName@ioWnd@@UBEPBDXZ:PROC		; ioWnd::GetDefClassName
EXTRN	?_Clone@ioWnd@@UAEPAV1@XZ:PROC			; ioWnd::_Clone
EXTRN	?Copy@ioWnd@@UAEXPAV1@@Z:PROC			; ioWnd::Copy
EXTRN	?Save@ioWnd@@UAE_NAAVioXMLElement@@@Z:PROC	; ioWnd::Save
EXTRN	?SetSaveData@ioWnd@@UAEXAAVioXMLElement@@@Z:PROC ; ioWnd::SetSaveData
EXTRN	?SetPosX@ioWnd@@UAEXH@Z:PROC			; ioWnd::SetPosX
EXTRN	?SetPosY@ioWnd@@UAEXH@Z:PROC			; ioWnd::SetPosY
EXTRN	?SetWidth@ioWnd@@UAEXH@Z:PROC			; ioWnd::SetWidth
EXTRN	?SetHeight@ioWnd@@UAEXH@Z:PROC			; ioWnd::SetHeight
EXTRN	?GetNumFixedRenderFrame@ioWnd@@UBEHXZ:PROC	; ioWnd::GetNumFixedRenderFrame
EXTRN	?GetFixedRenderFrameType@ioWnd@@UAEPBDH@Z:PROC	; ioWnd::GetFixedRenderFrameType
EXTRN	?GetRenderFrame@ioWnd@@UAEPAPAVioUIRenderElement@@PBD@Z:PROC ; ioWnd::GetRenderFrame
EXTRN	?GetNumFixedRenderImage@ioWnd@@UBEHXZ:PROC	; ioWnd::GetNumFixedRenderImage
EXTRN	?GetFixedRenderImageType@ioWnd@@UAEPBDH@Z:PROC	; ioWnd::GetFixedRenderImageType
EXTRN	?GetRenderImage@ioWnd@@UAEPAPAVioUIRenderElement@@PBD@Z:PROC ; ioWnd::GetRenderImage
EXTRN	?AddEffect@ioWnd@@UAEXABVioHashString@@PAVioUI3DEffectRender@@@Z:PROC ; ioWnd::AddEffect
EXTRN	?GetEffect@ioWnd@@UAEPAVioUI3DEffectRender@@VioHashString@@@Z:PROC ; ioWnd::GetEffect
EXTRN	??_EioExtraItemListWnd@@UAEPAXI@Z:PROC		; ioExtraItemListWnd::`vector deleting destructor'
;	COMDAT ??_R2ioWnd@@8
; File c:\program files (x86)\microsoft visual studio 10.0\vc\include\xutility
rdata$r	SEGMENT
??_R2ioWnd@@8 DD FLAT:??_R1A@?0A@EA@ioWnd@@8		; ioWnd::`RTTI Base Class Array'
rdata$r	ENDS
;	COMDAT ??_R3ioWnd@@8
rdata$r	SEGMENT
??_R3ioWnd@@8 DD 00H					; ioWnd::`RTTI Class Hierarchy Descriptor'
	DD	00H
	DD	01H
	DD	FLAT:??_R2ioWnd@@8
rdata$r	ENDS
;	COMDAT ??_R0?AVioWnd@@@8
_DATA	SEGMENT
??_R0?AVioWnd@@@8 DD FLAT:??_7type_info@@6B@		; ioWnd `RTTI Type Descriptor'
	DD	00H
	DB	'.?AVioWnd@@', 00H
_DATA	ENDS
;	COMDAT ??_R1A@?0A@EA@ioWnd@@8
rdata$r	SEGMENT
??_R1A@?0A@EA@ioWnd@@8 DD FLAT:??_R0?AVioWnd@@@8	; ioWnd::`RTTI Base Class Descriptor at (0,-1,0,64)'
	DD	00H
	DD	00H
	DD	0ffffffffH
	DD	00H
	DD	040H
	DD	FLAT:??_R3ioWnd@@8
rdata$r	ENDS
;	COMDAT ??_R1A@?0A@EA@ioExtraItemListWnd@@8
rdata$r	SEGMENT
??_R1A@?0A@EA@ioExtraItemListWnd@@8 DD FLAT:??_R0?AVioExtraItemListWnd@@@8 ; ioExtraItemListWnd::`RTTI Base Class Descriptor at (0,-1,0,64)'
	DD	01H
	DD	00H
	DD	0ffffffffH
	DD	00H
	DD	040H
	DD	FLAT:??_R3ioExtraItemListWnd@@8
rdata$r	ENDS
;	COMDAT ??_R2ioExtraItemListWnd@@8
rdata$r	SEGMENT
??_R2ioExtraItemListWnd@@8 DD FLAT:??_R1A@?0A@EA@ioExtraItemListWnd@@8 ; ioExtraItemListWnd::`RTTI Base Class Array'
	DD	FLAT:??_R1A@?0A@EA@ioWnd@@8
rdata$r	ENDS
;	COMDAT ??_R3ioExtraItemListWnd@@8
rdata$r	SEGMENT
??_R3ioExtraItemListWnd@@8 DD 00H			; ioExtraItemListWnd::`RTTI Class Hierarchy Descriptor'
	DD	00H
	DD	02H
	DD	FLAT:??_R2ioExtraItemListWnd@@8
rdata$r	ENDS
;	COMDAT ??_R0?AVioExtraItemListWnd@@@8
_DATA	SEGMENT
??_R0?AVioExtraItemListWnd@@@8 DD FLAT:??_7type_info@@6B@ ; ioExtraItemListWnd `RTTI Type Descriptor'
	DD	00H
	DB	'.?AVioExtraItemListWnd@@', 00H
_DATA	ENDS
;	COMDAT ??_R4ioExtraItemListWnd@@6B@
rdata$r	SEGMENT
??_R4ioExtraItemListWnd@@6B@ DD 00H			; ioExtraItemListWnd::`RTTI Complete Object Locator'
	DD	00H
	DD	00H
	DD	FLAT:??_R0?AVioExtraItemListWnd@@@8
	DD	FLAT:??_R3ioExtraItemListWnd@@8
rdata$r	ENDS
;	COMDAT ??_7ioExtraItemListWnd@@6B@
CONST	SEGMENT
??_7ioExtraItemListWnd@@6B@ DD FLAT:??_R4ioExtraItemListWnd@@6B@ ; ioExtraItemListWnd::`vftable'
	DD	FLAT:?AddRenderFrame@ioWnd@@UAEXABVioHashString@@PAVioUIRenderFrame@@@Z
	DD	FLAT:?AddRenderImage@ioWnd@@UAEXABVioHashString@@PAVioUIRenderImage@@@Z
	DD	FLAT:?AddTooltipHelp@ioWnd@@UAEXABVioHashString@@00@Z
	DD	FLAT:?ParseExtraInfo@ioWnd@@UAEXAAVioXMLElement@@@Z
	DD	FLAT:?AddNamedRenderImage@ioWnd@@UAEXABVioHashString@@PAVioUIRenderImage@@@Z
	DD	FLAT:?RemoveNamedRenderImage@ioWnd@@UAEXABVioHashString@@@Z
	DD	FLAT:?GetNamedRenderImage@ioWnd@@UBEPAVioUIRenderImage@@ABVioHashString@@@Z
	DD	FLAT:?SetWindowAlpha@ioWnd@@UAEXH@Z
	DD	FLAT:?SetActive@ioWnd@@UAEXXZ
	DD	FLAT:?SetInActive@ioWnd@@UAEXXZ
	DD	FLAT:?ClearElementImageList@ioWnd@@UAEXXZ
	DD	FLAT:?SetSize@ioWnd@@UAEXHH@Z
	DD	FLAT:?SetPositionToDefault@ioWnd@@UAEXHH_N0@Z
	DD	FLAT:?IsNeedProcess@ioWnd@@UBE_NXZ
	DD	FLAT:?IsCanMouseReaction@ioWnd@@UBE_NXZ
	DD	FLAT:?AddChild@ioWnd@@UAEXPAV1@@Z
	DD	FLAT:?DeleteChild@ioWnd@@UAEXK@Z
	DD	FLAT:?DeleteAllChild@ioWnd@@UAEXXZ
	DD	FLAT:?OnRenderShowAndHide@ioWnd@@MAE_NXZ
	DD	FLAT:?OnRenderShowAndHideByDefault@ioWnd@@MAE_NK@Z
	DD	FLAT:?OnRenderShowAndHideByTop@ioWnd@@MAE_NK@Z
	DD	FLAT:?OnRenderShowAndHideByDown@ioWnd@@MAE_NK@Z
	DD	FLAT:?OnRender@ioExtraItemListWnd@@MAEXXZ
	DD	FLAT:?OnRenderAfterChild@ioWnd@@MAEXXZ
	DD	FLAT:?OnProcess@ioWnd@@MAEXM@Z
	DD	FLAT:?OnMouseProcess@ioWnd@@MAEXABVioMouse@@@Z
	DD	FLAT:?CheckFrameReSize@ioWnd@@MAEXHHHH@Z
	DD	FLAT:?RenderImageList@ioWnd@@MAEXHHW4UIRenderType@@@Z
	DD	FLAT:?iwm_create@ioWnd@@UAEXXZ
	DD	FLAT:?iwm_destroy@ioWnd@@UAEXXZ
	DD	FLAT:?iwm_lbuttondown@ioWnd@@UAEXABVioMouse@@@Z
	DD	FLAT:?iwm_lbuttonup@ioWnd@@UAEXABVioMouse@@@Z
	DD	FLAT:?iwm_lbuttonDBLCLK@ioWnd@@UAEXABVioMouse@@@Z
	DD	FLAT:?iwm_rbuttondown@ioWnd@@UAEXABVioMouse@@@Z
	DD	FLAT:?iwm_rbuttonup@ioWnd@@UAEXABVioMouse@@@Z
	DD	FLAT:?iwm_command@ioExtraItemListWnd@@UAEXPAVioWnd@@HK@Z
	DD	FLAT:?iwm_mouseover@ioWnd@@UAEXABVioMouse@@@Z
	DD	FLAT:?iwm_mousemove@ioWnd@@UAEXABVioMouse@@@Z
	DD	FLAT:?iwm_mouseleave@ioWnd@@UAEXABVioMouse@@@Z
	DD	FLAT:?iwm_vscroll@ioWnd@@UAEXKH@Z
	DD	FLAT:?iwm_wheel@ioWnd@@UAEXH@Z
	DD	FLAT:?iwm_show@ioWnd@@UAEXXZ
	DD	FLAT:?iwm_hide@ioWnd@@UAEXXZ
	DD	FLAT:?iwm_esc@ioWnd@@UAE_NXZ
	DD	FLAT:?iwm_spacebar@ioWnd@@UAE_NXZ
	DD	FLAT:?iwm_gototop@ioWnd@@UAEXXZ
	DD	FLAT:?iwm_dragenter@ioWnd@@UAE?AW4IWDropEffect@@PAVioDragItem@@ABVioMouse@@@Z
	DD	FLAT:?iwm_dragover@ioWnd@@UAE?AW4IWDropEffect@@PAVioDragItem@@ABVioMouse@@@Z
	DD	FLAT:?iwm_dragleave@ioWnd@@UAEXXZ
	DD	FLAT:?iwm_dropitem@ioWnd@@UAE_NPAVioDragItem@@ABVioMouse@@PAV1@@Z
	DD	FLAT:?iwm_dropdone@ioWnd@@UAEXPAVioDragItem@@PAV1@_N@Z
	DD	FLAT:?IsEXType@ioWnd@@UBE_NXZ
	DD	FLAT:?GetWndType@ioWnd@@UBEKXZ
	DD	FLAT:?RenderWnd@ioWnd@@UAEXXZ
	DD	FLAT:?SetIDEX@ioWnd@@UAEXAAK_N@Z
	DD	FLAT:?ParseXML@ioWnd@@UAEXAAVioXMLElement@@@Z
	DD	FLAT:?GetHeaderFileName@ioWnd@@UAEPBDXZ
	DD	FLAT:?GetTemplateName@ioWnd@@UAEPBDXZ
	DD	FLAT:?GetDefClassName@ioWnd@@UBEPBDXZ
	DD	FLAT:?_Clone@ioWnd@@UAEPAV1@XZ
	DD	FLAT:?Copy@ioWnd@@UAEXPAV1@@Z
	DD	FLAT:?Save@ioWnd@@UAE_NAAVioXMLElement@@@Z
	DD	FLAT:?SetSaveData@ioWnd@@UAEXAAVioXMLElement@@@Z
	DD	FLAT:?SetPosX@ioWnd@@UAEXH@Z
	DD	FLAT:?SetPosY@ioWnd@@UAEXH@Z
	DD	FLAT:?SetWidth@ioWnd@@UAEXH@Z
	DD	FLAT:?SetHeight@ioWnd@@UAEXH@Z
	DD	FLAT:?GetNumFixedRenderFrame@ioWnd@@UBEHXZ
	DD	FLAT:?GetFixedRenderFrameType@ioWnd@@UAEPBDH@Z
	DD	FLAT:?GetRenderFrame@ioWnd@@UAEPAPAVioUIRenderElement@@PBD@Z
	DD	FLAT:?GetNumFixedRenderImage@ioWnd@@UBEHXZ
	DD	FLAT:?GetFixedRenderImageType@ioWnd@@UAEPBDH@Z
	DD	FLAT:?GetRenderImage@ioWnd@@UAEPAPAVioUIRenderElement@@PBD@Z
	DD	FLAT:?AddEffect@ioWnd@@UAEXABVioHashString@@PAVioUI3DEffectRender@@@Z
	DD	FLAT:?GetEffect@ioWnd@@UAEPAVioUI3DEffectRender@@VioHashString@@@Z
	DD	FLAT:??_EioExtraItemListWnd@@UAEPAXI@Z
CONST	ENDS
;	COMDAT xdata$x
xdata$x	SEGMENT
__unwindtable$??0ioExtraItemListWnd@@QAE@XZ DD 0ffffffffH
	DD	FLAT:__unwindfunclet$??0ioExtraItemListWnd@@QAE@XZ$0
__ehfuncinfo$??0ioExtraItemListWnd@@QAE@XZ DD 019930522H
	DD	01H
	DD	FLAT:__unwindtable$??0ioExtraItemListWnd@@QAE@XZ
	DD	2 DUP(00H)
	DD	2 DUP(00H)
	DD	00H
	DD	01H
; Function compile flags: /Ogsp
; File d:\lost saga for developer\youtube\tutorial\source\src\lsclient\gui\ioextraitemlistwnd.cpp
xdata$x	ENDS
;	COMDAT ??0ioExtraItemListWnd@@QAE@XZ
_TEXT	SEGMENT
$T511043 = -16						; size = 4
_this$ = -16						; size = 4
__$EHRec$ = -12						; size = 12
??0ioExtraItemListWnd@@QAE@XZ PROC			; ioExtraItemListWnd::ioExtraItemListWnd, COMDAT
; _this$ = ecx

; 89   : {

  00000	6a 04		 push	 4
  00002	b8 00 00 00 00	 mov	 eax, __ehhandler$??0ioExtraItemListWnd@@QAE@XZ
  00007	e8 00 00 00 00	 call	 __EH_prolog3
  0000c	8b f1		 mov	 esi, ecx
  0000e	89 75 f0	 mov	 DWORD PTR _this$[ebp], esi
  00011	ff 15 00 00 00
	00		 call	 DWORD PTR __imp_??0ioWnd@@QAE@XZ
  00017	33 ff		 xor	 edi, edi
  00019	8d 8e 70 01 00
	00		 lea	 ecx, DWORD PTR [esi+368]
  0001f	89 7d fc	 mov	 DWORD PTR __$EHRec$[ebp+8], edi
  00022	c7 06 00 00 00
	00		 mov	 DWORD PTR [esi], OFFSET ??_7ioExtraItemListWnd@@6B@
  00028	ff 15 00 00 00
	00		 call	 DWORD PTR __imp_??0ioHashString@@QAE@XZ
  0002e	8d 8e 80 01 00
	00		 lea	 ecx, DWORD PTR [esi+384]
  00034	89 39		 mov	 DWORD PTR [ecx], edi
  00036	89 79 04	 mov	 DWORD PTR [ecx+4], edi
  00039	89 79 08	 mov	 DWORD PTR [ecx+8], edi

; 90   : 	m_iMaxPage = 0;

  0003c	89 be 60 01 00
	00		 mov	 DWORD PTR [esi+352], edi

; 91   : 	m_iCurPage = 0;

  00042	89 be 64 01 00
	00		 mov	 DWORD PTR [esi+356], edi

; 92   : 	m_iMachineCode = 0;

  00048	89 be 68 01 00
	00		 mov	 DWORD PTR [esi+360], edi

; 93   : 
; 94   : 	m_dwCurSubBtn = ID_ALL_BTN;

  0004e	c7 86 6c 01 00
	00 0a 00 00 00	 mov	 DWORD PTR [esi+364], 10	; 0000000aH

; 95   : 
; 96   : 	m_vCurList.clear();

  00058	8b 41 04	 mov	 eax, DWORD PTR [ecx+4]
  0005b	8b 11		 mov	 edx, DWORD PTR [ecx]
  0005d	50		 push	 eax
  0005e	52		 push	 edx
  0005f	8d 45 f0	 lea	 eax, DWORD PTR $T511043[ebp]
  00062	50		 push	 eax
  00063	e8 00 00 00 00	 call	 ?erase@?$vector@UItemListInfoSort@@V?$allocator@UItemListInfoSort@@@std@@@std@@QAE?AV?$_Vector_iterator@V?$_Vector_val@UItemListInfoSort@@V?$allocator@UItemListInfoSort@@@std@@@std@@@2@V?$_Vector_const_iterator@V?$_Vector_val@UItemListInfoSort@@V?$allocator@UItemListInfoSort@@@std@@@std@@@2@0@Z ; std::vector<ItemListInfoSort,std::allocator<ItemListInfoSort> >::erase

; 97   : }

  00068	8b c6		 mov	 eax, esi
  0006a	e8 00 00 00 00	 call	 __EH_epilog3
  0006f	c3		 ret	 0
_TEXT	ENDS
;	COMDAT text$x
text$x	SEGMENT
__unwindfunclet$??0ioExtraItemListWnd@@QAE@XZ$0:
  00000	8b 4d f0	 mov	 ecx, DWORD PTR _this$[ebp]
  00003	ff 25 00 00 00
	00		 jmp	 DWORD PTR __imp_??1ioWnd@@UAE@XZ
__ehhandler$??0ioExtraItemListWnd@@QAE@XZ:
  00009	8b 54 24 08	 mov	 edx, DWORD PTR [esp+8]
  0000d	8d 42 0c	 lea	 eax, DWORD PTR [edx+12]
  00010	8b 4a ec	 mov	 ecx, DWORD PTR [edx-20]
  00013	33 c8		 xor	 ecx, eax
  00015	e8 00 00 00 00	 call	 @__security_check_cookie@4
  0001a	b8 00 00 00 00	 mov	 eax, OFFSET __ehfuncinfo$??0ioExtraItemListWnd@@QAE@XZ
  0001f	e9 00 00 00 00	 jmp	 ___CxxFrameHandler3
text$x	ENDS
??0ioExtraItemListWnd@@QAE@XZ ENDP			; ioExtraItemListWnd::ioExtraItemListWnd
PUBLIC	??1ioExtraItemListWnd@@UAE@XZ			; ioExtraItemListWnd::~ioExtraItemListWnd
EXTRN	__imp_??1ioHashString@@QAE@XZ:PROC
;	COMDAT xdata$x
; File c:\program files (x86)\microsoft visual studio 10.0\vc\include\vector
xdata$x	SEGMENT
__unwindtable$??1ioExtraItemListWnd@@UAE@XZ DD 0ffffffffH
	DD	FLAT:__unwindfunclet$??1ioExtraItemListWnd@@UAE@XZ$0
	DD	00H
	DD	FLAT:__unwindfunclet$??1ioExtraItemListWnd@@UAE@XZ$1
__ehfuncinfo$??1ioExtraItemListWnd@@UAE@XZ DD 019930522H
	DD	02H
	DD	FLAT:__unwindtable$??1ioExtraItemListWnd@@UAE@XZ
	DD	2 DUP(00H)
	DD	2 DUP(00H)
	DD	00H
	DD	01H
; Function compile flags: /Ogsp
; File d:\lost saga for developer\youtube\tutorial\source\src\lsclient\gui\ioextraitemlistwnd.cpp
xdata$x	ENDS
;	COMDAT ??1ioExtraItemListWnd@@UAE@XZ
_TEXT	SEGMENT
_this$ = -16						; size = 4
__$EHRec$ = -12						; size = 12
??1ioExtraItemListWnd@@UAE@XZ PROC			; ioExtraItemListWnd::~ioExtraItemListWnd, COMDAT
; _this$ = ecx

; 100  : {

  00000	6a 04		 push	 4
  00002	b8 00 00 00 00	 mov	 eax, __ehhandler$??1ioExtraItemListWnd@@UAE@XZ
  00007	e8 00 00 00 00	 call	 __EH_prolog3
  0000c	8b f1		 mov	 esi, ecx
  0000e	89 75 f0	 mov	 DWORD PTR _this$[ebp], esi
  00011	c7 06 00 00 00
	00		 mov	 DWORD PTR [esi], OFFSET ??_7ioExtraItemListWnd@@6B@

; 101  : }

  00017	8d 8e 80 01 00
	00		 lea	 ecx, DWORD PTR [esi+384]
  0001d	c7 45 fc 01 00
	00 00		 mov	 DWORD PTR __$EHRec$[ebp+8], 1
  00024	e8 00 00 00 00	 call	 ?_Tidy@?$vector@UItemListInfoSort@@V?$allocator@UItemListInfoSort@@@std@@@std@@IAEXXZ ; std::vector<ItemListInfoSort,std::allocator<ItemListInfoSort> >::_Tidy
  00029	8d 8e 70 01 00
	00		 lea	 ecx, DWORD PTR [esi+368]
  0002f	c6 45 fc 00	 mov	 BYTE PTR __$EHRec$[ebp+8], 0
  00033	ff 15 00 00 00
	00		 call	 DWORD PTR __imp_??1ioHashString@@QAE@XZ
  00039	83 4d fc ff	 or	 DWORD PTR __$EHRec$[ebp+8], -1
  0003d	8b ce		 mov	 ecx, esi
  0003f	ff 15 00 00 00
	00		 call	 DWORD PTR __imp_??1ioWnd@@UAE@XZ
  00045	e8 00 00 00 00	 call	 __EH_epilog3
  0004a	c3		 ret	 0
_TEXT	ENDS
;	COMDAT text$x
text$x	SEGMENT
__unwindfunclet$??1ioExtraItemListWnd@@UAE@XZ$0:
  00000	8b 4d f0	 mov	 ecx, DWORD PTR _this$[ebp]
  00003	ff 25 00 00 00
	00		 jmp	 DWORD PTR __imp_??1ioWnd@@UAE@XZ
__unwindfunclet$??1ioExtraItemListWnd@@UAE@XZ$1:
  00009	8b 4d f0	 mov	 ecx, DWORD PTR _this$[ebp]
  0000c	81 c1 70 01 00
	00		 add	 ecx, 368		; 00000170H
  00012	ff 25 00 00 00
	00		 jmp	 DWORD PTR __imp_??1ioHashString@@QAE@XZ
__ehhandler$??1ioExtraItemListWnd@@UAE@XZ:
  00018	8b 54 24 08	 mov	 edx, DWORD PTR [esp+8]
  0001c	8d 42 0c	 lea	 eax, DWORD PTR [edx+12]
  0001f	8b 4a ec	 mov	 ecx, DWORD PTR [edx-20]
  00022	33 c8		 xor	 ecx, eax
  00024	e8 00 00 00 00	 call	 @__security_check_cookie@4
  00029	b8 00 00 00 00	 mov	 eax, OFFSET __ehfuncinfo$??1ioExtraItemListWnd@@UAE@XZ
  0002e	e9 00 00 00 00	 jmp	 ___CxxFrameHandler3
text$x	ENDS
??1ioExtraItemListWnd@@UAE@XZ ENDP			; ioExtraItemListWnd::~ioExtraItemListWnd
PUBLIC	?push_back@?$vector@UItemListInfoSort@@V?$allocator@UItemListInfoSort@@@std@@@std@@QAEXABUItemListInfoSort@@@Z ; std::vector<ItemListInfoSort,std::allocator<ItemListInfoSort> >::push_back
; Function compile flags: /Ogsp
; File c:\program files (x86)\microsoft visual studio 10.0\vc\include\vector
;	COMDAT ?push_back@?$vector@UItemListInfoSort@@V?$allocator@UItemListInfoSort@@@std@@@std@@QAEXABUItemListInfoSort@@@Z
_TEXT	SEGMENT
__Val$ = 8						; size = 4
?push_back@?$vector@UItemListInfoSort@@V?$allocator@UItemListInfoSort@@@std@@@std@@QAEXABUItemListInfoSort@@@Z PROC ; std::vector<ItemListInfoSort,std::allocator<ItemListInfoSort> >::push_back, COMDAT
; _this$ = ecx

; 976  : 		{	// insert element at end

  00000	55		 push	 ebp
  00001	8b ec		 mov	 ebp, esp
  00003	56		 push	 esi
  00004	8b f1		 mov	 esi, ecx

; 977  : 		if (_Inside(_STD addressof(_Val)))

  00006	8b 4e 04	 mov	 ecx, DWORD PTR [esi+4]
  00009	57		 push	 edi
  0000a	8b 7d 08	 mov	 edi, DWORD PTR __Val$[ebp]
  0000d	3b f9		 cmp	 edi, ecx
  0000f	73 34		 jae	 SHORT $LN4@push_back
  00011	8b 16		 mov	 edx, DWORD PTR [esi]
  00013	3b d7		 cmp	 edx, edi
  00015	77 2e		 ja	 SHORT $LN4@push_back

; 978  : 			{	// push back an element
; 979  : 			size_type _Idx = _STD addressof(_Val) - this->_Myfirst;

  00017	8b c7		 mov	 eax, edi
  00019	2b c2		 sub	 eax, edx
  0001b	6a 14		 push	 20			; 00000014H
  0001d	99		 cdq
  0001e	5f		 pop	 edi
  0001f	f7 ff		 idiv	 edi
  00021	8b f8		 mov	 edi, eax

; 980  : 			if (this->_Mylast == this->_Myend)

  00023	3b 4e 08	 cmp	 ecx, DWORD PTR [esi+8]
  00026	75 09		 jne	 SHORT $LN3@push_back

; 981  : 				_Reserve(1);

  00028	6a 01		 push	 1
  0002a	8b ce		 mov	 ecx, esi
  0002c	e8 00 00 00 00	 call	 ?_Reserve@?$vector@UItemListInfoSort@@V?$allocator@UItemListInfoSort@@@std@@@std@@IAEXI@Z ; std::vector<ItemListInfoSort,std::allocator<ItemListInfoSort> >::_Reserve
$LN3@push_back:

; 982  : 			_Orphan_range(this->_Mylast, this->_Mylast);
; 983  : 			_Cons_val(this->_Alval,
; 984  : 				this->_Mylast,
; 985  : 				this->_Myfirst[_Idx]);

  00031	6b ff 14	 imul	 edi, 20			; 00000014H
  00034	03 3e		 add	 edi, DWORD PTR [esi]
  00036	8d 46 0c	 lea	 eax, DWORD PTR [esi+12]
  00039	57		 push	 edi
  0003a	ff 76 04	 push	 DWORD PTR [esi+4]
  0003d	50		 push	 eax
  0003e	e8 00 00 00 00	 call	 ??$_Cons_val@V?$allocator@UItemListInfoSort@@@std@@UItemListInfoSort@@AAU3@@std@@YAXAAV?$allocator@UItemListInfoSort@@@0@PAUItemListInfoSort@@AAU2@@Z ; std::_Cons_val<std::allocator<ItemListInfoSort>,ItemListInfoSort,ItemListInfoSort &>

; 986  : 			++this->_Mylast;
; 987  : 			}
; 988  : 		else

  00043	eb 1b		 jmp	 SHORT $LN20@push_back
$LN4@push_back:

; 989  : 			{	// push back a non-element
; 990  : 			if (this->_Mylast == this->_Myend)

  00045	3b 4e 08	 cmp	 ecx, DWORD PTR [esi+8]
  00048	75 09		 jne	 SHORT $LN1@push_back

; 991  : 				_Reserve(1);

  0004a	6a 01		 push	 1
  0004c	8b ce		 mov	 ecx, esi
  0004e	e8 00 00 00 00	 call	 ?_Reserve@?$vector@UItemListInfoSort@@V?$allocator@UItemListInfoSort@@@std@@@std@@IAEXI@Z ; std::vector<ItemListInfoSort,std::allocator<ItemListInfoSort> >::_Reserve
$LN1@push_back:

; 992  : 			_Orphan_range(this->_Mylast, this->_Mylast);
; 993  : 			_Cons_val(this->_Alval,
; 994  : 				this->_Mylast,
; 995  : 				_Val);

  00053	57		 push	 edi
  00054	ff 76 04	 push	 DWORD PTR [esi+4]
  00057	8d 46 0c	 lea	 eax, DWORD PTR [esi+12]
  0005a	50		 push	 eax
  0005b	e8 00 00 00 00	 call	 ??$_Cons_val@V?$allocator@UItemListInfoSort@@@std@@UItemListInfoSort@@ABU3@@std@@YAXAAV?$allocator@UItemListInfoSort@@@0@PAUItemListInfoSort@@ABU2@@Z ; std::_Cons_val<std::allocator<ItemListInfoSort>,ItemListInfoSort,ItemListInfoSort const &>
$LN20@push_back:
  00060	83 c4 0c	 add	 esp, 12			; 0000000cH

; 996  : 			++this->_Mylast;

  00063	83 46 04 14	 add	 DWORD PTR [esi+4], 20	; 00000014H
  00067	5f		 pop	 edi
  00068	5e		 pop	 esi

; 997  : 			}
; 998  : 		}

  00069	5d		 pop	 ebp
  0006a	c2 04 00	 ret	 4
?push_back@?$vector@UItemListInfoSort@@V?$allocator@UItemListInfoSort@@@std@@@std@@QAEXABUItemListInfoSort@@@Z ENDP ; std::vector<ItemListInfoSort,std::allocator<ItemListInfoSort> >::push_back
_TEXT	ENDS
PUBLIC	??$_Copy_impl@PAV?$basic_string@DU?$char_traits@D@std@@V?$allocator@D@2@@std@@PAV12@@std@@YAPAV?$basic_string@DU?$char_traits@D@std@@V?$allocator@D@2@@0@PAV10@00@Z ; std::_Copy_impl<std::basic_string<char,std::char_traits<char>,std::allocator<char> > *,std::basic_string<char,std::char_traits<char>,std::allocator<char> > *>
; Function compile flags: /Ogsp
; File c:\program files (x86)\microsoft visual studio 10.0\vc\include\xutility
;	COMDAT ??$_Copy_impl@PAV?$basic_string@DU?$char_traits@D@std@@V?$allocator@D@2@@std@@PAV12@@std@@YAPAV?$basic_string@DU?$char_traits@D@std@@V?$allocator@D@2@@0@PAV10@00@Z
_TEXT	SEGMENT
__Cat$511098 = -4					; size = 1
__First$ = 8						; size = 4
__Last$ = 12						; size = 4
__Dest$ = 16						; size = 4
??$_Copy_impl@PAV?$basic_string@DU?$char_traits@D@std@@V?$allocator@D@2@@std@@PAV12@@std@@YAPAV?$basic_string@DU?$char_traits@D@std@@V?$allocator@D@2@@0@PAV10@00@Z PROC ; std::_Copy_impl<std::basic_string<char,std::char_traits<char>,std::allocator<char> > *,std::basic_string<char,std::char_traits<char>,std::allocator<char> > *>, COMDAT

; 2163 : 	{	// copy [_First, _Last) to [_Dest, ...)

  00000	55		 push	 ebp
  00001	8b ec		 mov	 ebp, esp
  00003	51		 push	 ecx

; 2164 : 	return (_Copy_impl(_First, _Last,
; 2165 : 		_Dest, _Ptr_cat(_First, _Dest)));

  00004	ff 75 fc	 push	 DWORD PTR __Cat$511098[ebp]
  00007	ff 75 10	 push	 DWORD PTR __Dest$[ebp]
  0000a	ff 75 0c	 push	 DWORD PTR __Last$[ebp]
  0000d	ff 75 08	 push	 DWORD PTR __First$[ebp]
  00010	e8 00 00 00 00	 call	 ??$_Copy_impl@PAV?$basic_string@DU?$char_traits@D@std@@V?$allocator@D@2@@std@@PAV12@@std@@YAPAV?$basic_string@DU?$char_traits@D@std@@V?$allocator@D@2@@0@PAV10@00U_Nonscalar_ptr_iterator_tag@0@@Z ; std::_Copy_impl<std::basic_string<char,std::char_traits<char>,std::allocator<char> > *,std::basic_string<char,std::char_traits<char>,std::allocator<char> > *>
  00015	83 c4 10	 add	 esp, 16			; 00000010H

; 2166 : 	}

  00018	c9		 leave
  00019	c3		 ret	 0
??$_Copy_impl@PAV?$basic_string@DU?$char_traits@D@std@@V?$allocator@D@2@@std@@PAV12@@std@@YAPAV?$basic_string@DU?$char_traits@D@std@@V?$allocator@D@2@@0@PAV10@00@Z ENDP ; std::_Copy_impl<std::basic_string<char,std::char_traits<char>,std::allocator<char> > *,std::basic_string<char,std::char_traits<char>,std::allocator<char> > *>
_TEXT	ENDS
PUBLIC	??$_Move@PAV?$basic_string@DU?$char_traits@D@std@@V?$allocator@D@2@@std@@PAV12@@std@@YAPAV?$basic_string@DU?$char_traits@D@std@@V?$allocator@D@2@@0@PAV10@00U_Nonscalar_ptr_iterator_tag@0@@Z ; std::_Move<std::basic_string<char,std::char_traits<char>,std::allocator<char> > *,std::basic_string<char,std::char_traits<char>,std::allocator<char> > *>
; Function compile flags: /Ogsp
;	COMDAT ??$_Move@PAV?$basic_string@DU?$char_traits@D@std@@V?$allocator@D@2@@std@@PAV12@@std@@YAPAV?$basic_string@DU?$char_traits@D@std@@V?$allocator@D@2@@0@PAV10@00U_Nonscalar_ptr_iterator_tag@0@@Z
_TEXT	SEGMENT
__First$ = 8						; size = 4
__Last$ = 12						; size = 4
__Dest$ = 16						; size = 4
___formal$ = 20						; size = 1
??$_Move@PAV?$basic_string@DU?$char_traits@D@std@@V?$allocator@D@2@@std@@PAV12@@std@@YAPAV?$basic_string@DU?$char_traits@D@std@@V?$allocator@D@2@@0@PAV10@00U_Nonscalar_ptr_iterator_tag@0@@Z PROC ; std::_Move<std::basic_string<char,std::char_traits<char>,std::allocator<char> > *,std::basic_string<char,std::char_traits<char>,std::allocator<char> > *>, COMDAT

; 2512 : 	{	// move [_First, _Last) to [_Dest, ...), arbitrary iterators

  00000	55		 push	 ebp
  00001	8b ec		 mov	 ebp, esp
  00003	56		 push	 esi

; 2513 : 	for (; _First != _Last; ++_Dest, ++_First)

  00004	8b 75 08	 mov	 esi, DWORD PTR __First$[ebp]
  00007	eb 10		 jmp	 SHORT $LN15@Move@2
$LL3@Move@2:

; 2514 : 		*_Dest = _STD move(*_First);

  00009	8b 4d 10	 mov	 ecx, DWORD PTR __Dest$[ebp]
  0000c	56		 push	 esi
  0000d	e8 00 00 00 00	 call	 ?assign@?$basic_string@DU?$char_traits@D@std@@V?$allocator@D@2@@std@@QAEAAV12@$$QAV12@@Z ; std::basic_string<char,std::char_traits<char>,std::allocator<char> >::assign
  00012	83 45 10 1c	 add	 DWORD PTR __Dest$[ebp], 28 ; 0000001cH
  00016	83 c6 1c	 add	 esi, 28			; 0000001cH
$LN15@Move@2:

; 2513 : 	for (; _First != _Last; ++_Dest, ++_First)

  00019	3b 75 0c	 cmp	 esi, DWORD PTR __Last$[ebp]
  0001c	75 eb		 jne	 SHORT $LL3@Move@2

; 2515 : 	return (_Dest);

  0001e	8b 45 10	 mov	 eax, DWORD PTR __Dest$[ebp]
  00021	5e		 pop	 esi

; 2516 : 	}

  00022	5d		 pop	 ebp
  00023	c3		 ret	 0
??$_Move@PAV?$basic_string@DU?$char_traits@D@std@@V?$allocator@D@2@@std@@PAV12@@std@@YAPAV?$basic_string@DU?$char_traits@D@std@@V?$allocator@D@2@@0@PAV10@00U_Nonscalar_ptr_iterator_tag@0@@Z ENDP ; std::_Move<std::basic_string<char,std::char_traits<char>,std::allocator<char> > *,std::basic_string<char,std::char_traits<char>,std::allocator<char> > *>
_TEXT	ENDS
PUBLIC	??$_Uninit_copy@PAV?$basic_string@DU?$char_traits@D@std@@V?$allocator@D@2@@std@@PAV12@V?$allocator@V?$basic_string@DU?$char_traits@D@std@@V?$allocator@D@2@@std@@@2@@std@@YAPAV?$basic_string@DU?$char_traits@D@std@@V?$allocator@D@2@@0@PAV10@00AAV?$allocator@V?$basic_string@DU?$char_traits@D@std@@V?$allocator@D@2@@std@@@0@U_Nonscalar_ptr_iterator_tag@0@@Z ; std::_Uninit_copy<std::basic_string<char,std::char_traits<char>,std::allocator<char> > *,std::basic_string<char,std::char_traits<char>,std::allocator<char> > *,std::allocator<std::basic_string<char,std::char_traits<char>,std::allocator<char> > > >
;	COMDAT xdata$x
; File c:\program files (x86)\microsoft visual studio 10.0\vc\include\xstring
xdata$x	SEGMENT
__catchsym$??$_Uninit_copy@PAV?$basic_string@DU?$char_traits@D@std@@V?$allocator@D@2@@std@@PAV12@V?$allocator@V?$basic_string@DU?$char_traits@D@std@@V?$allocator@D@2@@std@@@2@@std@@YAPAV?$basic_string@DU?$char_traits@D@std@@V?$allocator@D@2@@0@PAV10@00AAV?$allocator@V?$basic_string@DU?$char_traits@D@std@@V?$allocator@D@2@@std@@@0@U_Nonscalar_ptr_iterator_tag@0@@Z$2 DD 040H
	DD	00H
	DD	00H
	DD	FLAT:__catch$??$_Uninit_copy@PAV?$basic_string@DU?$char_traits@D@std@@V?$allocator@D@2@@std@@PAV12@V?$allocator@V?$basic_string@DU?$char_traits@D@std@@V?$allocator@D@2@@std@@@2@@std@@YAPAV?$basic_string@DU?$char_traits@D@std@@V?$allocator@D@2@@0@PAV10@00AAV?$allocator@V?$basic_string@DU?$char_traits@D@std@@V?$allocator@D@2@@std@@@0@U_Nonscalar_ptr_iterator_tag@0@@Z$0
__unwindtable$??$_Uninit_copy@PAV?$basic_string@DU?$char_traits@D@std@@V?$allocator@D@2@@std@@PAV12@V?$allocator@V?$basic_string@DU?$char_traits@D@std@@V?$allocator@D@2@@std@@@2@@std@@YAPAV?$basic_string@DU?$char_traits@D@std@@V?$allocator@D@2@@0@PAV10@00AAV?$allocator@V?$basic_string@DU?$char_traits@D@std@@V?$allocator@D@2@@std@@@0@U_Nonscalar_ptr_iterator_tag@0@@Z DD 0ffffffffH
	DD	00H
	DD	0ffffffffH
	DD	00H
__tryblocktable$??$_Uninit_copy@PAV?$basic_string@DU?$char_traits@D@std@@V?$allocator@D@2@@std@@PAV12@V?$allocator@V?$basic_string@DU?$char_traits@D@std@@V?$allocator@D@2@@std@@@2@@std@@YAPAV?$basic_string@DU?$char_traits@D@std@@V?$allocator@D@2@@0@PAV10@00AAV?$allocator@V?$basic_string@DU?$char_traits@D@std@@V?$allocator@D@2@@std@@@0@U_Nonscalar_ptr_iterator_tag@0@@Z DD 00H
	DD	00H
	DD	01H
	DD	01H
	DD	FLAT:__catchsym$??$_Uninit_copy@PAV?$basic_string@DU?$char_traits@D@std@@V?$allocator@D@2@@std@@PAV12@V?$allocator@V?$basic_string@DU?$char_traits@D@std@@V?$allocator@D@2@@std@@@2@@std@@YAPAV?$basic_string@DU?$char_traits@D@std@@V?$allocator@D@2@@0@PAV10@00AAV?$allocator@V?$basic_string@DU?$char_traits@D@std@@V?$allocator@D@2@@std@@@0@U_Nonscalar_ptr_iterator_tag@0@@Z$2
__ehfuncinfo$??$_Uninit_copy@PAV?$basic_string@DU?$char_traits@D@std@@V?$allocator@D@2@@std@@PAV12@V?$allocator@V?$basic_string@DU?$char_traits@D@std@@V?$allocator@D@2@@std@@@2@@std@@YAPAV?$basic_string@DU?$char_traits@D@std@@V?$allocator@D@2@@0@PAV10@00AAV?$allocator@V?$basic_string@DU?$char_traits@D@std@@V?$allocator@D@2@@std@@@0@U_Nonscalar_ptr_iterator_tag@0@@Z DD 019930522H
	DD	02H
	DD	FLAT:__unwindtable$??$_Uninit_copy@PAV?$basic_string@DU?$char_traits@D@std@@V?$allocator@D@2@@std@@PAV12@V?$allocator@V?$basic_string@DU?$char_traits@D@std@@V?$allocator@D@2@@std@@@2@@std@@YAPAV?$basic_string@DU?$char_traits@D@std@@V?$allocator@D@2@@0@PAV10@00AAV?$allocator@V?$basic_string@DU?$char_traits@D@std@@V?$allocator@D@2@@std@@@0@U_Nonscalar_ptr_iterator_tag@0@@Z
	DD	01H
	DD	FLAT:__tryblocktable$??$_Uninit_copy@PAV?$basic_string@DU?$char_traits@D@std@@V?$allocator@D@2@@std@@PAV12@V?$allocator@V?$basic_string@DU?$char_traits@D@std@@V?$allocator@D@2@@std@@@2@@std@@YAPAV?$basic_string@DU?$char_traits@D@std@@V?$allocator@D@2@@0@PAV10@00AAV?$allocator@V?$basic_string@DU?$char_traits@D@std@@V?$allocator@D@2@@std@@@0@U_Nonscalar_ptr_iterator_tag@0@@Z
	DD	2 DUP(00H)
	DD	00H
	DD	01H
; Function compile flags: /Ogsp
; File c:\program files (x86)\microsoft visual studio 10.0\vc\include\memory
xdata$x	ENDS
;	COMDAT ??$_Uninit_copy@PAV?$basic_string@DU?$char_traits@D@std@@V?$allocator@D@2@@std@@PAV12@V?$allocator@V?$basic_string@DU?$char_traits@D@std@@V?$allocator@D@2@@std@@@2@@std@@YAPAV?$basic_string@DU?$char_traits@D@std@@V?$allocator@D@2@@0@PAV10@00AAV?$allocator@V?$basic_string@DU?$char_traits@D@std@@V?$allocator@D@2@@std@@@0@U_Nonscalar_ptr_iterator_tag@0@@Z
_TEXT	SEGMENT
__Next$ = -20						; size = 4
__$EHRec$ = -16						; size = 16
__First$ = 8						; size = 4
__Last$ = 12						; size = 4
__Dest$ = 16						; size = 4
__Al$ = 20						; size = 4
___formal$ = 24						; size = 1
??$_Uninit_copy@PAV?$basic_string@DU?$char_traits@D@std@@V?$allocator@D@2@@std@@PAV12@V?$allocator@V?$basic_string@DU?$char_traits@D@std@@V?$allocator@D@2@@std@@@2@@std@@YAPAV?$basic_string@DU?$char_traits@D@std@@V?$allocator@D@2@@0@PAV10@00AAV?$allocator@V?$basic_string@DU?$char_traits@D@std@@V?$allocator@D@2@@std@@@0@U_Nonscalar_ptr_iterator_tag@0@@Z PROC ; std::_Uninit_copy<std::basic_string<char,std::char_traits<char>,std::allocator<char> > *,std::basic_string<char,std::char_traits<char>,std::allocator<char> > *,std::allocator<std::basic_string<char,std::char_traits<char>,std::allocator<char> > > >, COMDAT

; 369  : 	{	// copy [_First, _Last) to raw _Dest, using _Al, arbitrary type

  00000	6a 08		 push	 8
  00002	b8 00 00 00 00	 mov	 eax, __ehhandler$??$_Uninit_copy@PAV?$basic_string@DU?$char_traits@D@std@@V?$allocator@D@2@@std@@PAV12@V?$allocator@V?$basic_string@DU?$char_traits@D@std@@V?$allocator@D@2@@std@@@2@@std@@YAPAV?$basic_string@DU?$char_traits@D@std@@V?$allocator@D@2@@0@PAV10@00AAV?$allocator@V?$basic_string@DU?$char_traits@D@std@@V?$allocator@D@2@@std@@@0@U_Nonscalar_ptr_iterator_tag@0@@Z
  00007	e8 00 00 00 00	 call	 __EH_prolog3_catch

; 370  : 	_DEBUG_RANGE(_First, _Last);
; 371  : 	_DEBUG_POINTER(_Dest);
; 372  : 	_FwdIt _Next = _Dest;

  0000c	8b 45 10	 mov	 eax, DWORD PTR __Dest$[ebp]

; 373  : 
; 374  : 	_TRY_BEGIN

  0000f	83 65 fc 00	 and	 DWORD PTR __$EHRec$[ebp+12], 0
  00013	8b 75 08	 mov	 esi, DWORD PTR __First$[ebp]
  00016	89 45 ec	 mov	 DWORD PTR __Next$[ebp], eax
$LL6@Uninit_cop:

; 375  : 	for (; _First != _Last; ++_Dest, ++_First)

  00019	3b 75 0c	 cmp	 esi, DWORD PTR __Last$[ebp]
  0001c	74 37		 je	 SHORT $LN4@Uninit_cop

; 376  : 		_Cons_val(_Al, _Dest, *_First);

  0001e	56		 push	 esi
  0001f	ff 75 10	 push	 DWORD PTR __Dest$[ebp]
  00022	ff 75 14	 push	 DWORD PTR __Al$[ebp]
  00025	e8 00 00 00 00	 call	 ??$_Cons_val@V?$allocator@V?$basic_string@DU?$char_traits@D@std@@V?$allocator@D@2@@std@@@std@@V?$basic_string@DU?$char_traits@D@std@@V?$allocator@D@2@@2@AAV32@@std@@YAXAAV?$allocator@V?$basic_string@DU?$char_traits@D@std@@V?$allocator@D@2@@std@@@0@PAV?$basic_string@DU?$char_traits@D@std@@V?$allocator@D@2@@0@AAV20@@Z ; std::_Cons_val<std::allocator<std::basic_string<char,std::char_traits<char>,std::allocator<char> > >,std::basic_string<char,std::char_traits<char>,std::allocator<char> >,std::basic_string<char,std::char_traits<char>,std::allocator<char> > &>
  0002a	83 45 10 1c	 add	 DWORD PTR __Dest$[ebp], 28 ; 0000001cH
  0002e	83 c4 0c	 add	 esp, 12			; 0000000cH
  00031	83 c6 1c	 add	 esi, 28			; 0000001cH
  00034	eb e3		 jmp	 SHORT $LL6@Uninit_cop
__catch$??$_Uninit_copy@PAV?$basic_string@DU?$char_traits@D@std@@V?$allocator@D@2@@std@@PAV12@V?$allocator@V?$basic_string@DU?$char_traits@D@std@@V?$allocator@D@2@@std@@@2@@std@@YAPAV?$basic_string@DU?$char_traits@D@std@@V?$allocator@D@2@@0@PAV10@00AAV?$allocator@V?$basic_string@DU?$char_traits@D@std@@V?$allocator@D@2@@std@@@0@U_Nonscalar_ptr_iterator_tag@0@@Z$0:

; 377  : 	_CATCH_ALL
; 378  : 	for (; _Next != _Dest; ++_Next)

  00036	8b 75 ec	 mov	 esi, DWORD PTR __Next$[ebp]
  00039	eb 0c		 jmp	 SHORT $LN34@Uninit_cop
$LL3@Uninit_cop:

; 379  : 		_Dest_val(_Al, _Next);

  0003b	6a 01		 push	 1
  0003d	8b ce		 mov	 ecx, esi
  0003f	e8 00 00 00 00	 call	 ?_Tidy@?$basic_string@DU?$char_traits@D@std@@V?$allocator@D@2@@std@@QAEX_NI@Z ; std::basic_string<char,std::char_traits<char>,std::allocator<char> >::_Tidy
  00044	83 c6 1c	 add	 esi, 28			; 0000001cH
$LN34@Uninit_cop:

; 380  : 	_RERAISE;

  00047	6a 00		 push	 0
  00049	3b 75 10	 cmp	 esi, DWORD PTR __Dest$[ebp]
  0004c	75 ed		 jne	 SHORT $LL3@Uninit_cop
  0004e	6a 00		 push	 0
  00050	e8 00 00 00 00	 call	 __CxxThrowException@8
$LN35@Uninit_cop:
$LN4@Uninit_cop:

; 381  : 	_CATCH_END
; 382  : 	return (_Dest);

  00055	8b 45 10	 mov	 eax, DWORD PTR __Dest$[ebp]

; 383  : 	}

  00058	e8 00 00 00 00	 call	 __EH_epilog3
  0005d	c3		 ret	 0
$LN33@Uninit_cop:
_TEXT	ENDS
;	COMDAT text$x
text$x	SEGMENT
__ehhandler$??$_Uninit_copy@PAV?$basic_string@DU?$char_traits@D@std@@V?$allocator@D@2@@std@@PAV12@V?$allocator@V?$basic_string@DU?$char_traits@D@std@@V?$allocator@D@2@@std@@@2@@std@@YAPAV?$basic_string@DU?$char_traits@D@std@@V?$allocator@D@2@@0@PAV10@00AAV?$allocator@V?$basic_string@DU?$char_traits@D@std@@V?$allocator@D@2@@std@@@0@U_Nonscalar_ptr_iterator_tag@0@@Z:
  00000	8b 54 24 08	 mov	 edx, DWORD PTR [esp+8]
  00004	8d 42 0c	 lea	 eax, DWORD PTR [edx+12]
  00007	8b 4a e8	 mov	 ecx, DWORD PTR [edx-24]
  0000a	33 c8		 xor	 ecx, eax
  0000c	e8 00 00 00 00	 call	 @__security_check_cookie@4
  00011	b8 00 00 00 00	 mov	 eax, OFFSET __ehfuncinfo$??$_Uninit_copy@PAV?$basic_string@DU?$char_traits@D@std@@V?$allocator@D@2@@std@@PAV12@V?$allocator@V?$basic_string@DU?$char_traits@D@std@@V?$allocator@D@2@@std@@@2@@std@@YAPAV?$basic_string@DU?$char_traits@D@std@@V?$allocator@D@2@@0@PAV10@00AAV?$allocator@V?$basic_string@DU?$char_traits@D@std@@V?$allocator@D@2@@std@@@0@U_Nonscalar_ptr_iterator_tag@0@@Z
  00016	e9 00 00 00 00	 jmp	 ___CxxFrameHandler3
text$x	ENDS
??$_Uninit_copy@PAV?$basic_string@DU?$char_traits@D@std@@V?$allocator@D@2@@std@@PAV12@V?$allocator@V?$basic_string@DU?$char_traits@D@std@@V?$allocator@D@2@@std@@@2@@std@@YAPAV?$basic_string@DU?$char_traits@D@std@@V?$allocator@D@2@@0@PAV10@00AAV?$allocator@V?$basic_string@DU?$char_traits@D@std@@V?$allocator@D@2@@std@@@0@U_Nonscalar_ptr_iterator_tag@0@@Z ENDP ; std::_Uninit_copy<std::basic_string<char,std::char_traits<char>,std::allocator<char> > *,std::basic_string<char,std::char_traits<char>,std::allocator<char> > *,std::allocator<std::basic_string<char,std::char_traits<char>,std::allocator<char> > > >
PUBLIC	??$_Destroy_range@V?$allocator@V?$basic_string@DU?$char_traits@D@std@@V?$allocator@D@2@@std@@@std@@@std@@YAXPAV?$basic_string@DU?$char_traits@D@std@@V?$allocator@D@2@@0@0AAV?$allocator@V?$basic_string@DU?$char_traits@D@std@@V?$allocator@D@2@@std@@@0@@Z ; std::_Destroy_range<std::allocator<std::basic_string<char,std::char_traits<char>,std::allocator<char> > > >
; Function compile flags: /Ogsp
; File c:\program files (x86)\microsoft visual studio 10.0\vc\include\xmemory
;	COMDAT ??$_Destroy_range@V?$allocator@V?$basic_string@DU?$char_traits@D@std@@V?$allocator@D@2@@std@@@std@@@std@@YAXPAV?$basic_string@DU?$char_traits@D@std@@V?$allocator@D@2@@0@0AAV?$allocator@V?$basic_string@DU?$char_traits@D@std@@V?$allocator@D@2@@std@@@0@@Z
_TEXT	SEGMENT
__Cat$511196 = -4					; size = 1
__First$ = 8						; size = 4
__Last$ = 12						; size = 4
__Al$ = 16						; size = 4
??$_Destroy_range@V?$allocator@V?$basic_string@DU?$char_traits@D@std@@V?$allocator@D@2@@std@@@std@@@std@@YAXPAV?$basic_string@DU?$char_traits@D@std@@V?$allocator@D@2@@0@0AAV?$allocator@V?$basic_string@DU?$char_traits@D@std@@V?$allocator@D@2@@std@@@0@@Z PROC ; std::_Destroy_range<std::allocator<std::basic_string<char,std::char_traits<char>,std::allocator<char> > > >, COMDAT

; 87   : 	{	// destroy [_First, _Last)

  00000	55		 push	 ebp
  00001	8b ec		 mov	 ebp, esp
  00003	51		 push	 ecx

; 88   : 	_Destroy_range(_First, _Last, _Al, _Ptr_cat(_First, _Last));

  00004	ff 75 fc	 push	 DWORD PTR __Cat$511196[ebp]
  00007	ff 75 10	 push	 DWORD PTR __Al$[ebp]
  0000a	ff 75 0c	 push	 DWORD PTR __Last$[ebp]
  0000d	ff 75 08	 push	 DWORD PTR __First$[ebp]
  00010	e8 00 00 00 00	 call	 ??$_Destroy_range@V?$allocator@V?$basic_string@DU?$char_traits@D@std@@V?$allocator@D@2@@std@@@std@@@std@@YAXPAV?$basic_string@DU?$char_traits@D@std@@V?$allocator@D@2@@0@0AAV?$allocator@V?$basic_string@DU?$char_traits@D@std@@V?$allocator@D@2@@std@@@0@U_Nonscalar_ptr_iterator_tag@0@@Z ; std::_Destroy_range<std::allocator<std::basic_string<char,std::char_traits<char>,std::allocator<char> > > >
  00015	83 c4 10	 add	 esp, 16			; 00000010H

; 89   : 	}

  00018	c9		 leave
  00019	c3		 ret	 0
??$_Destroy_range@V?$allocator@V?$basic_string@DU?$char_traits@D@std@@V?$allocator@D@2@@std@@@std@@@std@@YAXPAV?$basic_string@DU?$char_traits@D@std@@V?$allocator@D@2@@0@0AAV?$allocator@V?$basic_string@DU?$char_traits@D@std@@V?$allocator@D@2@@std@@@0@@Z ENDP ; std::_Destroy_range<std::allocator<std::basic_string<char,std::char_traits<char>,std::allocator<char> > > >
; Function compile flags: /Ogsp
_TEXT	ENDS
;	COMDAT ??_GioExtraItemListWnd@@UAEPAXI@Z
_TEXT	SEGMENT
___flags$ = 8						; size = 4
??_GioExtraItemListWnd@@UAEPAXI@Z PROC			; ioExtraItemListWnd::`scalar deleting destructor', COMDAT
; _this$ = ecx
  00000	55		 push	 ebp
  00001	8b ec		 mov	 ebp, esp
  00003	56		 push	 esi
  00004	8b f1		 mov	 esi, ecx
  00006	e8 00 00 00 00	 call	 ??1ioExtraItemListWnd@@UAE@XZ ; ioExtraItemListWnd::~ioExtraItemListWnd
  0000b	f6 45 08 01	 test	 BYTE PTR ___flags$[ebp], 1
  0000f	74 07		 je	 SHORT $LN1@scalar@3
  00011	56		 push	 esi
  00012	e8 00 00 00 00	 call	 ??3@YAXPAX@Z		; operator delete
  00017	59		 pop	 ecx
$LN1@scalar@3:
  00018	8b c6		 mov	 eax, esi
  0001a	5e		 pop	 esi
  0001b	5d		 pop	 ebp
  0001c	c2 04 00	 ret	 4
??_GioExtraItemListWnd@@UAEPAXI@Z ENDP			; ioExtraItemListWnd::`scalar deleting destructor'
_TEXT	ENDS
PUBLIC	??$_Move@PAV?$basic_string@DU?$char_traits@D@std@@V?$allocator@D@2@@std@@PAV12@@std@@YAPAV?$basic_string@DU?$char_traits@D@std@@V?$allocator@D@2@@0@PAV10@00@Z ; std::_Move<std::basic_string<char,std::char_traits<char>,std::allocator<char> > *,std::basic_string<char,std::char_traits<char>,std::allocator<char> > *>
; Function compile flags: /Ogsp
; File c:\program files (x86)\microsoft visual studio 10.0\vc\include\xutility
;	COMDAT ??$_Move@PAV?$basic_string@DU?$char_traits@D@std@@V?$allocator@D@2@@std@@PAV12@@std@@YAPAV?$basic_string@DU?$char_traits@D@std@@V?$allocator@D@2@@0@PAV10@00@Z
_TEXT	SEGMENT
__Cat$511205 = -4					; size = 1
__First$ = 8						; size = 4
__Last$ = 12						; size = 4
__Dest$ = 16						; size = 4
??$_Move@PAV?$basic_string@DU?$char_traits@D@std@@V?$allocator@D@2@@std@@PAV12@@std@@YAPAV?$basic_string@DU?$char_traits@D@std@@V?$allocator@D@2@@0@PAV10@00@Z PROC ; std::_Move<std::basic_string<char,std::char_traits<char>,std::allocator<char> > *,std::basic_string<char,std::char_traits<char>,std::allocator<char> > *>, COMDAT

; 2533 : 	{	// move [_First, _Last) to [_Dest, ...), unchecked

  00000	55		 push	 ebp
  00001	8b ec		 mov	 ebp, esp
  00003	51		 push	 ecx

; 2534 : 	return (_Move(_First, _Last,
; 2535 : 		_Dest, _Ptr_cat(_First, _Dest)));

  00004	ff 75 fc	 push	 DWORD PTR __Cat$511205[ebp]
  00007	ff 75 10	 push	 DWORD PTR __Dest$[ebp]
  0000a	ff 75 0c	 push	 DWORD PTR __Last$[ebp]
  0000d	ff 75 08	 push	 DWORD PTR __First$[ebp]
  00010	e8 00 00 00 00	 call	 ??$_Move@PAV?$basic_string@DU?$char_traits@D@std@@V?$allocator@D@2@@std@@PAV12@@std@@YAPAV?$basic_string@DU?$char_traits@D@std@@V?$allocator@D@2@@0@PAV10@00U_Nonscalar_ptr_iterator_tag@0@@Z ; std::_Move<std::basic_string<char,std::char_traits<char>,std::allocator<char> > *,std::basic_string<char,std::char_traits<char>,std::allocator<char> > *>
  00015	83 c4 10	 add	 esp, 16			; 00000010H

; 2536 : 	}

  00018	c9		 leave
  00019	c3		 ret	 0
??$_Move@PAV?$basic_string@DU?$char_traits@D@std@@V?$allocator@D@2@@std@@PAV12@@std@@YAPAV?$basic_string@DU?$char_traits@D@std@@V?$allocator@D@2@@0@PAV10@00@Z ENDP ; std::_Move<std::basic_string<char,std::char_traits<char>,std::allocator<char> > *,std::basic_string<char,std::char_traits<char>,std::allocator<char> > *>
_TEXT	ENDS
PUBLIC	??$_Uninitialized_copy@PAV?$basic_string@DU?$char_traits@D@std@@V?$allocator@D@2@@std@@PAV12@V?$allocator@V?$basic_string@DU?$char_traits@D@std@@V?$allocator@D@2@@std@@@2@@std@@YAPAV?$basic_string@DU?$char_traits@D@std@@V?$allocator@D@2@@0@PAV10@00AAV?$allocator@V?$basic_string@DU?$char_traits@D@std@@V?$allocator@D@2@@std@@@0@@Z ; std::_Uninitialized_copy<std::basic_string<char,std::char_traits<char>,std::allocator<char> > *,std::basic_string<char,std::char_traits<char>,std::allocator<char> > *,std::allocator<std::basic_string<char,std::char_traits<char>,std::allocator<char> > > >
; Function compile flags: /Ogsp
; File c:\program files (x86)\microsoft visual studio 10.0\vc\include\memory
;	COMDAT ??$_Uninitialized_copy@PAV?$basic_string@DU?$char_traits@D@std@@V?$allocator@D@2@@std@@PAV12@V?$allocator@V?$basic_string@DU?$char_traits@D@std@@V?$allocator@D@2@@std@@@2@@std@@YAPAV?$basic_string@DU?$char_traits@D@std@@V?$allocator@D@2@@0@PAV10@00AAV?$allocator@V?$basic_string@DU?$char_traits@D@std@@V?$allocator@D@2@@std@@@0@@Z
_TEXT	SEGMENT
__Cat$511212 = -4					; size = 1
__First$ = 8						; size = 4
__Last$ = 12						; size = 4
__Dest$ = 16						; size = 4
__Al$ = 20						; size = 4
??$_Uninitialized_copy@PAV?$basic_string@DU?$char_traits@D@std@@V?$allocator@D@2@@std@@PAV12@V?$allocator@V?$basic_string@DU?$char_traits@D@std@@V?$allocator@D@2@@std@@@2@@std@@YAPAV?$basic_string@DU?$char_traits@D@std@@V?$allocator@D@2@@0@PAV10@00AAV?$allocator@V?$basic_string@DU?$char_traits@D@std@@V?$allocator@D@2@@std@@@0@@Z PROC ; std::_Uninitialized_copy<std::basic_string<char,std::char_traits<char>,std::allocator<char> > *,std::basic_string<char,std::char_traits<char>,std::allocator<char> > *,std::allocator<std::basic_string<char,std::char_traits<char>,std::allocator<char> > > >, COMDAT

; 412  : 	{	// copy [_First, _Last) to raw _Dest, using _Al

  00000	55		 push	 ebp
  00001	8b ec		 mov	 ebp, esp
  00003	51		 push	 ecx

; 413  : 	return (_Uninit_copy(_First, _Last, _Dest, _Al,
; 414  : 		_Ptr_cat(_First, _Dest)));

  00004	ff 75 fc	 push	 DWORD PTR __Cat$511212[ebp]
  00007	ff 75 14	 push	 DWORD PTR __Al$[ebp]
  0000a	ff 75 10	 push	 DWORD PTR __Dest$[ebp]
  0000d	ff 75 0c	 push	 DWORD PTR __Last$[ebp]
  00010	ff 75 08	 push	 DWORD PTR __First$[ebp]
  00013	e8 00 00 00 00	 call	 ??$_Uninit_copy@PAV?$basic_string@DU?$char_traits@D@std@@V?$allocator@D@2@@std@@PAV12@V?$allocator@V?$basic_string@DU?$char_traits@D@std@@V?$allocator@D@2@@std@@@2@@std@@YAPAV?$basic_string@DU?$char_traits@D@std@@V?$allocator@D@2@@0@PAV10@00AAV?$allocator@V?$basic_string@DU?$char_traits@D@std@@V?$allocator@D@2@@std@@@0@U_Nonscalar_ptr_iterator_tag@0@@Z ; std::_Uninit_copy<std::basic_string<char,std::char_traits<char>,std::allocator<char> > *,std::basic_string<char,std::char_traits<char>,std::allocator<char> > *,std::allocator<std::basic_string<char,std::char_traits<char>,std::allocator<char> > > >
  00018	83 c4 14	 add	 esp, 20			; 00000014H

; 415  : 	}

  0001b	c9		 leave
  0001c	c3		 ret	 0
??$_Uninitialized_copy@PAV?$basic_string@DU?$char_traits@D@std@@V?$allocator@D@2@@std@@PAV12@V?$allocator@V?$basic_string@DU?$char_traits@D@std@@V?$allocator@D@2@@std@@@2@@std@@YAPAV?$basic_string@DU?$char_traits@D@std@@V?$allocator@D@2@@0@PAV10@00AAV?$allocator@V?$basic_string@DU?$char_traits@D@std@@V?$allocator@D@2@@std@@@0@@Z ENDP ; std::_Uninitialized_copy<std::basic_string<char,std::char_traits<char>,std::allocator<char> > *,std::basic_string<char,std::char_traits<char>,std::allocator<char> > *,std::allocator<std::basic_string<char,std::char_traits<char>,std::allocator<char> > > >
_TEXT	ENDS
PUBLIC	?_Destroy@?$vector@V?$basic_string@DU?$char_traits@D@std@@V?$allocator@D@2@@std@@V?$allocator@V?$basic_string@DU?$char_traits@D@std@@V?$allocator@D@2@@std@@@2@@std@@IAEXPAV?$basic_string@DU?$char_traits@D@std@@V?$allocator@D@2@@2@0@Z ; std::vector<std::basic_string<char,std::char_traits<char>,std::allocator<char> >,std::allocator<std::basic_string<char,std::char_traits<char>,std::allocator<char> > > >::_Destroy
; Function compile flags: /Ogsp
; File c:\program files (x86)\microsoft visual studio 10.0\vc\include\vector
;	COMDAT ?_Destroy@?$vector@V?$basic_string@DU?$char_traits@D@std@@V?$allocator@D@2@@std@@V?$allocator@V?$basic_string@DU?$char_traits@D@std@@V?$allocator@D@2@@std@@@2@@std@@IAEXPAV?$basic_string@DU?$char_traits@D@std@@V?$allocator@D@2@@2@0@Z
_TEXT	SEGMENT
__First$ = 8						; size = 4
__Cat$511225 = 12					; size = 1
__Last$ = 12						; size = 4
?_Destroy@?$vector@V?$basic_string@DU?$char_traits@D@std@@V?$allocator@D@2@@std@@V?$allocator@V?$basic_string@DU?$char_traits@D@std@@V?$allocator@D@2@@std@@@2@@std@@IAEXPAV?$basic_string@DU?$char_traits@D@std@@V?$allocator@D@2@@2@0@Z PROC ; std::vector<std::basic_string<char,std::char_traits<char>,std::allocator<char> >,std::allocator<std::basic_string<char,std::char_traits<char>,std::allocator<char> > > >::_Destroy, COMDAT
; _this$ = ecx

; 1269 : 		{	// destroy [_First, _Last) using allocator

  00000	55		 push	 ebp
  00001	8b ec		 mov	 ebp, esp

; 1270 : 		_Destroy_range(_First, _Last, this->_Alval);

  00003	ff 75 0c	 push	 DWORD PTR __Cat$511225[ebp]
  00006	83 c1 0c	 add	 ecx, 12			; 0000000cH
  00009	51		 push	 ecx
  0000a	ff 75 0c	 push	 DWORD PTR __Last$[ebp]
  0000d	ff 75 08	 push	 DWORD PTR __First$[ebp]
  00010	e8 00 00 00 00	 call	 ??$_Destroy_range@V?$allocator@V?$basic_string@DU?$char_traits@D@std@@V?$allocator@D@2@@std@@@std@@@std@@YAXPAV?$basic_string@DU?$char_traits@D@std@@V?$allocator@D@2@@0@0AAV?$allocator@V?$basic_string@DU?$char_traits@D@std@@V?$allocator@D@2@@std@@@0@U_Nonscalar_ptr_iterator_tag@0@@Z ; std::_Destroy_range<std::allocator<std::basic_string<char,std::char_traits<char>,std::allocator<char> > > >
  00015	83 c4 10	 add	 esp, 16			; 00000010H

; 1271 : 		}

  00018	5d		 pop	 ebp
  00019	c2 08 00	 ret	 8
?_Destroy@?$vector@V?$basic_string@DU?$char_traits@D@std@@V?$allocator@D@2@@std@@V?$allocator@V?$basic_string@DU?$char_traits@D@std@@V?$allocator@D@2@@std@@@2@@std@@IAEXPAV?$basic_string@DU?$char_traits@D@std@@V?$allocator@D@2@@2@0@Z ENDP ; std::vector<std::basic_string<char,std::char_traits<char>,std::allocator<char> >,std::allocator<std::basic_string<char,std::char_traits<char>,std::allocator<char> > > >::_Destroy
_TEXT	ENDS
PUBLIC	?erase@?$vector@V?$basic_string@DU?$char_traits@D@std@@V?$allocator@D@2@@std@@V?$allocator@V?$basic_string@DU?$char_traits@D@std@@V?$allocator@D@2@@std@@@2@@std@@QAE?AV?$_Vector_iterator@V?$_Vector_val@V?$basic_string@DU?$char_traits@D@std@@V?$allocator@D@2@@std@@V?$allocator@V?$basic_string@DU?$char_traits@D@std@@V?$allocator@D@2@@std@@@2@@std@@@2@V?$_Vector_const_iterator@V?$_Vector_val@V?$basic_string@DU?$char_traits@D@std@@V?$allocator@D@2@@std@@V?$allocator@V?$basic_string@DU?$char_traits@D@std@@V?$allocator@D@2@@std@@@2@@std@@@2@0@Z ; std::vector<std::basic_string<char,std::char_traits<char>,std::allocator<char> >,std::allocator<std::basic_string<char,std::char_traits<char>,std::allocator<char> > > >::erase
; Function compile flags: /Ogsp
;	COMDAT ?erase@?$vector@V?$basic_string@DU?$char_traits@D@std@@V?$allocator@D@2@@std@@V?$allocator@V?$basic_string@DU?$char_traits@D@std@@V?$allocator@D@2@@std@@@2@@std@@QAE?AV?$_Vector_iterator@V?$_Vector_val@V?$basic_string@DU?$char_traits@D@std@@V?$allocator@D@2@@std@@V?$allocator@V?$basic_string@DU?$char_traits@D@std@@V?$allocator@D@2@@std@@@2@@std@@@2@V?$_Vector_const_iterator@V?$_Vector_val@V?$basic_string@DU?$char_traits@D@std@@V?$allocator@D@2@@std@@V?$allocator@V?$basic_string@DU?$char_traits@D@std@@V?$allocator@D@2@@std@@@2@@std@@@2@0@Z
_TEXT	SEGMENT
___$ReturnUdt$ = 8					; size = 4
__First_arg$ = 12					; size = 4
__Cat$511326 = 16					; size = 1
__Cat$511302 = 16					; size = 1
__Last_arg$ = 16					; size = 4
?erase@?$vector@V?$basic_string@DU?$char_traits@D@std@@V?$allocator@D@2@@std@@V?$allocator@V?$basic_string@DU?$char_traits@D@std@@V?$allocator@D@2@@std@@@2@@std@@QAE?AV?$_Vector_iterator@V?$_Vector_val@V?$basic_string@DU?$char_traits@D@std@@V?$allocator@D@2@@std@@V?$allocator@V?$basic_string@DU?$char_traits@D@std@@V?$allocator@D@2@@std@@@2@@std@@@2@V?$_Vector_const_iterator@V?$_Vector_val@V?$basic_string@DU?$char_traits@D@std@@V?$allocator@D@2@@std@@V?$allocator@V?$basic_string@DU?$char_traits@D@std@@V?$allocator@D@2@@std@@@2@@std@@@2@0@Z PROC ; std::vector<std::basic_string<char,std::char_traits<char>,std::allocator<char> >,std::allocator<std::basic_string<char,std::char_traits<char>,std::allocator<char> > > >::erase, COMDAT
; _this$ = ecx

; 1190 : 		{	// erase [_First, _Last)

  00000	55		 push	 ebp
  00001	8b ec		 mov	 ebp, esp

; 1191 : 		iterator _First = _Make_iter(_First_arg);

  00003	8b 45 0c	 mov	 eax, DWORD PTR __First_arg$[ebp]
  00006	53		 push	 ebx
  00007	8b 5d 08	 mov	 ebx, DWORD PTR ___$ReturnUdt$[ebp]
  0000a	56		 push	 esi
  0000b	8b f1		 mov	 esi, ecx
  0000d	89 03		 mov	 DWORD PTR [ebx], eax

; 1192 : 		iterator _Last = _Make_iter(_Last_arg);
; 1193 : 
; 1194 : 		if (_First != _Last)

  0000f	3b 45 10	 cmp	 eax, DWORD PTR __Last_arg$[ebp]
  00012	74 2a		 je	 SHORT $LN1@erase@3

; 1195 : 			{	// worth doing, copy down over hole
; 1196 :  #if _ITERATOR_DEBUG_LEVEL == 2
; 1197 : 			if (_Last < _First || _VICONT(_First) != this
; 1198 : 				|| _VIPTR(_First) < this->_Myfirst
; 1199 : 				|| this->_Mylast < _VIPTR(_Last))
; 1200 : 				_DEBUG_ERROR("vector erase iterator outside range");
; 1201 : 			pointer _Ptr = _Move(_VIPTR(_Last), this->_Mylast,
; 1202 : 				_VIPTR(_First));
; 1203 : 			_Orphan_range(_VIPTR(_First), this->_Mylast);
; 1204 : 
; 1205 :  #else /* _ITERATOR_DEBUG_LEVEL == 2 */
; 1206 : 			pointer _Ptr = _Move(_VIPTR(_Last), this->_Mylast,
; 1207 : 				_VIPTR(_First));

  00014	8b 4e 04	 mov	 ecx, DWORD PTR [esi+4]
  00017	57		 push	 edi
  00018	ff 75 10	 push	 DWORD PTR __Cat$511302[ebp]
  0001b	50		 push	 eax
  0001c	51		 push	 ecx
  0001d	ff 75 10	 push	 DWORD PTR __Last_arg$[ebp]
  00020	e8 00 00 00 00	 call	 ??$_Move@PAV?$basic_string@DU?$char_traits@D@std@@V?$allocator@D@2@@std@@PAV12@@std@@YAPAV?$basic_string@DU?$char_traits@D@std@@V?$allocator@D@2@@0@PAV10@00U_Nonscalar_ptr_iterator_tag@0@@Z ; std::_Move<std::basic_string<char,std::char_traits<char>,std::allocator<char> > *,std::basic_string<char,std::char_traits<char>,std::allocator<char> > *>

; 1208 :  #endif /* _ITERATOR_DEBUG_LEVEL == 2 */
; 1209 : 
; 1210 : 			_Destroy(_Ptr, this->_Mylast);

  00025	ff 75 10	 push	 DWORD PTR __Cat$511326[ebp]
  00028	8b f8		 mov	 edi, eax
  0002a	8d 46 0c	 lea	 eax, DWORD PTR [esi+12]
  0002d	50		 push	 eax
  0002e	ff 76 04	 push	 DWORD PTR [esi+4]
  00031	57		 push	 edi
  00032	e8 00 00 00 00	 call	 ??$_Destroy_range@V?$allocator@V?$basic_string@DU?$char_traits@D@std@@V?$allocator@D@2@@std@@@std@@@std@@YAXPAV?$basic_string@DU?$char_traits@D@std@@V?$allocator@D@2@@0@0AAV?$allocator@V?$basic_string@DU?$char_traits@D@std@@V?$allocator@D@2@@std@@@0@U_Nonscalar_ptr_iterator_tag@0@@Z ; std::_Destroy_range<std::allocator<std::basic_string<char,std::char_traits<char>,std::allocator<char> > > >
  00037	83 c4 20	 add	 esp, 32			; 00000020H

; 1211 : 			this->_Mylast = _Ptr;

  0003a	89 7e 04	 mov	 DWORD PTR [esi+4], edi
  0003d	5f		 pop	 edi
$LN1@erase@3:

; 1212 : 			}
; 1213 : 		return (_First);

  0003e	5e		 pop	 esi
  0003f	8b c3		 mov	 eax, ebx
  00041	5b		 pop	 ebx

; 1214 : 		}

  00042	5d		 pop	 ebp
  00043	c2 0c 00	 ret	 12			; 0000000cH
?erase@?$vector@V?$basic_string@DU?$char_traits@D@std@@V?$allocator@D@2@@std@@V?$allocator@V?$basic_string@DU?$char_traits@D@std@@V?$allocator@D@2@@std@@@2@@std@@QAE?AV?$_Vector_iterator@V?$_Vector_val@V?$basic_string@DU?$char_traits@D@std@@V?$allocator@D@2@@std@@V?$allocator@V?$basic_string@DU?$char_traits@D@std@@V?$allocator@D@2@@std@@@2@@std@@@2@V?$_Vector_const_iterator@V?$_Vector_val@V?$basic_string@DU?$char_traits@D@std@@V?$allocator@D@2@@std@@V?$allocator@V?$basic_string@DU?$char_traits@D@std@@V?$allocator@D@2@@std@@@2@@std@@@2@0@Z ENDP ; std::vector<std::basic_string<char,std::char_traits<char>,std::allocator<char> >,std::allocator<std::basic_string<char,std::char_traits<char>,std::allocator<char> > > >::erase
_TEXT	ENDS
PUBLIC	??$_Ucopy@PAV?$basic_string@DU?$char_traits@D@std@@V?$allocator@D@2@@std@@@?$vector@V?$basic_string@DU?$char_traits@D@std@@V?$allocator@D@2@@std@@V?$allocator@V?$basic_string@DU?$char_traits@D@std@@V?$allocator@D@2@@std@@@2@@std@@IAEPAV?$basic_string@DU?$char_traits@D@std@@V?$allocator@D@2@@1@PAV21@00@Z ; std::vector<std::basic_string<char,std::char_traits<char>,std::allocator<char> >,std::allocator<std::basic_string<char,std::char_traits<char>,std::allocator<char> > > >::_Ucopy<std::basic_string<char,std::char_traits<char>,std::allocator<char> > *>
; Function compile flags: /Ogsp
;	COMDAT ??$_Ucopy@PAV?$basic_string@DU?$char_traits@D@std@@V?$allocator@D@2@@std@@@?$vector@V?$basic_string@DU?$char_traits@D@std@@V?$allocator@D@2@@std@@V?$allocator@V?$basic_string@DU?$char_traits@D@std@@V?$allocator@D@2@@std@@@2@@std@@IAEPAV?$basic_string@DU?$char_traits@D@std@@V?$allocator@D@2@@1@PAV21@00@Z
_TEXT	SEGMENT
__First$ = 8						; size = 4
__Last$ = 12						; size = 4
__Cat$511342 = 16					; size = 1
__Ptr$ = 16						; size = 4
??$_Ucopy@PAV?$basic_string@DU?$char_traits@D@std@@V?$allocator@D@2@@std@@@?$vector@V?$basic_string@DU?$char_traits@D@std@@V?$allocator@D@2@@std@@V?$allocator@V?$basic_string@DU?$char_traits@D@std@@V?$allocator@D@2@@std@@@2@@std@@IAEPAV?$basic_string@DU?$char_traits@D@std@@V?$allocator@D@2@@1@PAV21@00@Z PROC ; std::vector<std::basic_string<char,std::char_traits<char>,std::allocator<char> >,std::allocator<std::basic_string<char,std::char_traits<char>,std::allocator<char> > > >::_Ucopy<std::basic_string<char,std::char_traits<char>,std::allocator<char> > *>, COMDAT
; _this$ = ecx

; 1315 : 		pointer _Ucopy(_Iter _First, _Iter _Last, pointer _Ptr)

  00000	55		 push	 ebp
  00001	8b ec		 mov	 ebp, esp

; 1316 : 		{	// copy initializing [_First, _Last), using allocator
; 1317 : 		return (_Uninitialized_copy(_First, _Last,
; 1318 : 			_Ptr, this->_Alval));

  00003	ff 75 10	 push	 DWORD PTR __Cat$511342[ebp]
  00006	83 c1 0c	 add	 ecx, 12			; 0000000cH
  00009	51		 push	 ecx
  0000a	ff 75 10	 push	 DWORD PTR __Ptr$[ebp]
  0000d	ff 75 0c	 push	 DWORD PTR __Last$[ebp]
  00010	ff 75 08	 push	 DWORD PTR __First$[ebp]
  00013	e8 00 00 00 00	 call	 ??$_Uninit_copy@PAV?$basic_string@DU?$char_traits@D@std@@V?$allocator@D@2@@std@@PAV12@V?$allocator@V?$basic_string@DU?$char_traits@D@std@@V?$allocator@D@2@@std@@@2@@std@@YAPAV?$basic_string@DU?$char_traits@D@std@@V?$allocator@D@2@@0@PAV10@00AAV?$allocator@V?$basic_string@DU?$char_traits@D@std@@V?$allocator@D@2@@std@@@0@U_Nonscalar_ptr_iterator_tag@0@@Z ; std::_Uninit_copy<std::basic_string<char,std::char_traits<char>,std::allocator<char> > *,std::basic_string<char,std::char_traits<char>,std::allocator<char> > *,std::allocator<std::basic_string<char,std::char_traits<char>,std::allocator<char> > > >
  00018	83 c4 14	 add	 esp, 20			; 00000014H

; 1319 : 		}

  0001b	5d		 pop	 ebp
  0001c	c2 0c 00	 ret	 12			; 0000000cH
??$_Ucopy@PAV?$basic_string@DU?$char_traits@D@std@@V?$allocator@D@2@@std@@@?$vector@V?$basic_string@DU?$char_traits@D@std@@V?$allocator@D@2@@std@@V?$allocator@V?$basic_string@DU?$char_traits@D@std@@V?$allocator@D@2@@std@@@2@@std@@IAEPAV?$basic_string@DU?$char_traits@D@std@@V?$allocator@D@2@@1@PAV21@00@Z ENDP ; std::vector<std::basic_string<char,std::char_traits<char>,std::allocator<char> >,std::allocator<std::basic_string<char,std::char_traits<char>,std::allocator<char> > > >::_Ucopy<std::basic_string<char,std::char_traits<char>,std::allocator<char> > *>
_TEXT	ENDS
PUBLIC	?_Tidy@?$vector@V?$basic_string@DU?$char_traits@D@std@@V?$allocator@D@2@@std@@V?$allocator@V?$basic_string@DU?$char_traits@D@std@@V?$allocator@D@2@@std@@@2@@std@@IAEXXZ ; std::vector<std::basic_string<char,std::char_traits<char>,std::allocator<char> >,std::allocator<std::basic_string<char,std::char_traits<char>,std::allocator<char> > > >::_Tidy
; Function compile flags: /Ogsp
;	COMDAT ?_Tidy@?$vector@V?$basic_string@DU?$char_traits@D@std@@V?$allocator@D@2@@std@@V?$allocator@V?$basic_string@DU?$char_traits@D@std@@V?$allocator@D@2@@std@@@2@@std@@IAEXXZ
_TEXT	SEGMENT
__Cat$511364 = -4					; size = 1
?_Tidy@?$vector@V?$basic_string@DU?$char_traits@D@std@@V?$allocator@D@2@@std@@V?$allocator@V?$basic_string@DU?$char_traits@D@std@@V?$allocator@D@2@@std@@@2@@std@@IAEXXZ PROC ; std::vector<std::basic_string<char,std::char_traits<char>,std::allocator<char> >,std::allocator<std::basic_string<char,std::char_traits<char>,std::allocator<char> > > >::_Tidy, COMDAT
; _this$ = ecx

; 1301 : 		{	// free all storage

  00000	55		 push	 ebp
  00001	8b ec		 mov	 ebp, esp
  00003	51		 push	 ecx
  00004	56		 push	 esi
  00005	8b f1		 mov	 esi, ecx

; 1302 : 		if (this->_Myfirst != 0)

  00007	83 3e 00	 cmp	 DWORD PTR [esi], 0
  0000a	74 21		 je	 SHORT $LN10@Tidy@3

; 1303 : 			{	// something to free, destroy and deallocate it
; 1304 : 			this->_Orphan_all();

  0000c	ff 15 00 00 00
	00		 call	 DWORD PTR __imp_?_Orphan_all@_Container_base0@std@@QAEXXZ

; 1305 : 			_Destroy(this->_Myfirst, this->_Mylast);

  00012	ff 75 fc	 push	 DWORD PTR __Cat$511364[ebp]
  00015	8d 46 0c	 lea	 eax, DWORD PTR [esi+12]
  00018	50		 push	 eax
  00019	ff 76 04	 push	 DWORD PTR [esi+4]
  0001c	ff 36		 push	 DWORD PTR [esi]
  0001e	e8 00 00 00 00	 call	 ??$_Destroy_range@V?$allocator@V?$basic_string@DU?$char_traits@D@std@@V?$allocator@D@2@@std@@@std@@@std@@YAXPAV?$basic_string@DU?$char_traits@D@std@@V?$allocator@D@2@@0@0AAV?$allocator@V?$basic_string@DU?$char_traits@D@std@@V?$allocator@D@2@@std@@@0@U_Nonscalar_ptr_iterator_tag@0@@Z ; std::_Destroy_range<std::allocator<std::basic_string<char,std::char_traits<char>,std::allocator<char> > > >

; 1306 : 			this->_Alval.deallocate(this->_Myfirst,
; 1307 : 				this->_Myend - this->_Myfirst);

  00023	ff 36		 push	 DWORD PTR [esi]
  00025	e8 00 00 00 00	 call	 ??3@YAXPAX@Z		; operator delete
  0002a	83 c4 14	 add	 esp, 20			; 00000014H
$LN10@Tidy@3:

; 1308 : 			}
; 1309 : 		this->_Myfirst = 0;

  0002d	83 26 00	 and	 DWORD PTR [esi], 0

; 1310 : 		this->_Mylast = 0;

  00030	83 66 04 00	 and	 DWORD PTR [esi+4], 0

; 1311 : 		this->_Myend = 0;

  00034	83 66 08 00	 and	 DWORD PTR [esi+8], 0
  00038	5e		 pop	 esi

; 1312 : 		}

  00039	c9		 leave
  0003a	c3		 ret	 0
?_Tidy@?$vector@V?$basic_string@DU?$char_traits@D@std@@V?$allocator@D@2@@std@@V?$allocator@V?$basic_string@DU?$char_traits@D@std@@V?$allocator@D@2@@std@@@2@@std@@IAEXXZ ENDP ; std::vector<std::basic_string<char,std::char_traits<char>,std::allocator<char> >,std::allocator<std::basic_string<char,std::char_traits<char>,std::allocator<char> > > >::_Tidy
_TEXT	ENDS
PUBLIC	?clear@?$vector@V?$basic_string@DU?$char_traits@D@std@@V?$allocator@D@2@@std@@V?$allocator@V?$basic_string@DU?$char_traits@D@std@@V?$allocator@D@2@@std@@@2@@std@@QAEXXZ ; std::vector<std::basic_string<char,std::char_traits<char>,std::allocator<char> >,std::allocator<std::basic_string<char,std::char_traits<char>,std::allocator<char> > > >::clear
; Function compile flags: /Ogsp
;	COMDAT ?clear@?$vector@V?$basic_string@DU?$char_traits@D@std@@V?$allocator@D@2@@std@@V?$allocator@V?$basic_string@DU?$char_traits@D@std@@V?$allocator@D@2@@std@@@2@@std@@QAEXXZ
_TEXT	SEGMENT
$T511380 = -4						; size = 4
?clear@?$vector@V?$basic_string@DU?$char_traits@D@std@@V?$allocator@D@2@@std@@V?$allocator@V?$basic_string@DU?$char_traits@D@std@@V?$allocator@D@2@@std@@@2@@std@@QAEXXZ PROC ; std::vector<std::basic_string<char,std::char_traits<char>,std::allocator<char> >,std::allocator<std::basic_string<char,std::char_traits<char>,std::allocator<char> > > >::clear, COMDAT
; _this$ = ecx

; 1217 : 		{	// erase all

  00000	55		 push	 ebp
  00001	8b ec		 mov	 ebp, esp
  00003	51		 push	 ecx

; 1218 : 		erase(begin(), end());

  00004	8b 41 04	 mov	 eax, DWORD PTR [ecx+4]
  00007	8b 11		 mov	 edx, DWORD PTR [ecx]
  00009	50		 push	 eax
  0000a	52		 push	 edx
  0000b	8d 45 fc	 lea	 eax, DWORD PTR $T511380[ebp]
  0000e	50		 push	 eax
  0000f	e8 00 00 00 00	 call	 ?erase@?$vector@V?$basic_string@DU?$char_traits@D@std@@V?$allocator@D@2@@std@@V?$allocator@V?$basic_string@DU?$char_traits@D@std@@V?$allocator@D@2@@std@@@2@@std@@QAE?AV?$_Vector_iterator@V?$_Vector_val@V?$basic_string@DU?$char_traits@D@std@@V?$allocator@D@2@@std@@V?$allocator@V?$basic_string@DU?$char_traits@D@std@@V?$allocator@D@2@@std@@@2@@std@@@2@V?$_Vector_const_iterator@V?$_Vector_val@V?$basic_string@DU?$char_traits@D@std@@V?$allocator@D@2@@std@@V?$allocator@V?$basic_string@DU?$char_traits@D@std@@V?$allocator@D@2@@std@@@2@@std@@@2@0@Z ; std::vector<std::basic_string<char,std::char_traits<char>,std::allocator<char> >,std::allocator<std::basic_string<char,std::char_traits<char>,std::allocator<char> > > >::erase

; 1219 : 		}

  00014	c9		 leave
  00015	c3		 ret	 0
?clear@?$vector@V?$basic_string@DU?$char_traits@D@std@@V?$allocator@D@2@@std@@V?$allocator@V?$basic_string@DU?$char_traits@D@std@@V?$allocator@D@2@@std@@@2@@std@@QAEXXZ ENDP ; std::vector<std::basic_string<char,std::char_traits<char>,std::allocator<char> >,std::allocator<std::basic_string<char,std::char_traits<char>,std::allocator<char> > > >::clear
_TEXT	ENDS
PUBLIC	??1?$vector@V?$basic_string@DU?$char_traits@D@std@@V?$allocator@D@2@@std@@V?$allocator@V?$basic_string@DU?$char_traits@D@std@@V?$allocator@D@2@@std@@@2@@std@@QAE@XZ ; std::vector<std::basic_string<char,std::char_traits<char>,std::allocator<char> >,std::allocator<std::basic_string<char,std::char_traits<char>,std::allocator<char> > > >::~vector<std::basic_string<char,std::char_traits<char>,std::allocator<char> >,std::allocator<std::basic_string<char,std::char_traits<char>,std::allocator<char> > > >
; Function compile flags: /Ogsp
;	COMDAT ??1?$vector@V?$basic_string@DU?$char_traits@D@std@@V?$allocator@D@2@@std@@V?$allocator@V?$basic_string@DU?$char_traits@D@std@@V?$allocator@D@2@@std@@@2@@std@@QAE@XZ
_TEXT	SEGMENT
??1?$vector@V?$basic_string@DU?$char_traits@D@std@@V?$allocator@D@2@@std@@V?$allocator@V?$basic_string@DU?$char_traits@D@std@@V?$allocator@D@2@@std@@@2@@std@@QAE@XZ PROC ; std::vector<std::basic_string<char,std::char_traits<char>,std::allocator<char> >,std::allocator<std::basic_string<char,std::char_traits<char>,std::allocator<char> > > >::~vector<std::basic_string<char,std::char_traits<char>,std::allocator<char> >,std::allocator<std::basic_string<char,std::char_traits<char>,std::allocator<char> > > >, COMDAT
; _this$ = ecx

; 705  : 		_Tidy();

  00000	e9 00 00 00 00	 jmp	 ?_Tidy@?$vector@V?$basic_string@DU?$char_traits@D@std@@V?$allocator@D@2@@std@@V?$allocator@V?$basic_string@DU?$char_traits@D@std@@V?$allocator@D@2@@std@@@2@@std@@IAEXXZ ; std::vector<std::basic_string<char,std::char_traits<char>,std::allocator<char> >,std::allocator<std::basic_string<char,std::char_traits<char>,std::allocator<char> > > >::_Tidy
??1?$vector@V?$basic_string@DU?$char_traits@D@std@@V?$allocator@D@2@@std@@V?$allocator@V?$basic_string@DU?$char_traits@D@std@@V?$allocator@D@2@@std@@@2@@std@@QAE@XZ ENDP ; std::vector<std::basic_string<char,std::char_traits<char>,std::allocator<char> >,std::allocator<std::basic_string<char,std::char_traits<char>,std::allocator<char> > > >::~vector<std::basic_string<char,std::char_traits<char>,std::allocator<char> >,std::allocator<std::basic_string<char,std::char_traits<char>,std::allocator<char> > > >
_TEXT	ENDS
PUBLIC	??_7ItemListIconBtn@@6B@			; ItemListIconBtn::`vftable'
PUBLIC	??0ItemListIconBtn@@QAE@XZ			; ItemListIconBtn::ItemListIconBtn
PUBLIC	??_R4ItemListIconBtn@@6B@			; ItemListIconBtn::`RTTI Complete Object Locator'
PUBLIC	??_R0?AVItemListIconBtn@@@8			; ItemListIconBtn `RTTI Type Descriptor'
PUBLIC	??_R3ItemListIconBtn@@8				; ItemListIconBtn::`RTTI Class Hierarchy Descriptor'
PUBLIC	??_R2ItemListIconBtn@@8				; ItemListIconBtn::`RTTI Base Class Array'
PUBLIC	??_R1A@?0A@EA@ItemListIconBtn@@8		; ItemListIconBtn::`RTTI Base Class Descriptor at (0,-1,0,64)'
PUBLIC	??_R1A@?0A@EA@NewShopIconBtn@@8			; NewShopIconBtn::`RTTI Base Class Descriptor at (0,-1,0,64)'
PUBLIC	??_R0?AVNewShopIconBtn@@@8			; NewShopIconBtn `RTTI Type Descriptor'
PUBLIC	??_R3NewShopIconBtn@@8				; NewShopIconBtn::`RTTI Class Hierarchy Descriptor'
PUBLIC	??_R2NewShopIconBtn@@8				; NewShopIconBtn::`RTTI Base Class Array'
PUBLIC	??_R1A@?0A@EA@ioButton@@8			; ioButton::`RTTI Base Class Descriptor at (0,-1,0,64)'
PUBLIC	??_R0?AVioButton@@@8				; ioButton `RTTI Type Descriptor'
PUBLIC	??_R3ioButton@@8				; ioButton::`RTTI Class Hierarchy Descriptor'
PUBLIC	??_R2ioButton@@8				; ioButton::`RTTI Base Class Array'
EXTRN	??0NewShopIconBtn@@QAE@XZ:PROC			; NewShopIconBtn::NewShopIconBtn
EXTRN	?AddRenderFrame@NewShopIconBtn@@UAEXABVioHashString@@PAVioUIRenderFrame@@@Z:PROC ; NewShopIconBtn::AddRenderFrame
EXTRN	?AddRenderImage@NewShopIconBtn@@UAEXABVioHashString@@PAVioUIRenderImage@@@Z:PROC ; NewShopIconBtn::AddRenderImage
EXTRN	?ParseExtraInfo@NewShopIconBtn@@UAEXAAVioXMLElement@@@Z:PROC ; NewShopIconBtn::ParseExtraInfo
EXTRN	?SetWindowAlpha@ioButton@@UAEXH@Z:PROC		; ioButton::SetWindowAlpha
EXTRN	?OnProcess@NewShopIconBtn@@MAEXM@Z:PROC		; NewShopIconBtn::OnProcess
EXTRN	?CheckFrameReSize@ioButton@@MAEXHHHH@Z:PROC	; ioButton::CheckFrameReSize
EXTRN	?iwm_lbuttondown@ioButton@@UAEXABVioMouse@@@Z:PROC ; ioButton::iwm_lbuttondown
EXTRN	?iwm_lbuttonup@ioButton@@UAEXABVioMouse@@@Z:PROC ; ioButton::iwm_lbuttonup
EXTRN	?iwm_lbuttonDBLCLK@ioButton@@UAEXABVioMouse@@@Z:PROC ; ioButton::iwm_lbuttonDBLCLK
EXTRN	?iwm_rbuttondown@ioButton@@UAEXABVioMouse@@@Z:PROC ; ioButton::iwm_rbuttondown
EXTRN	?iwm_rbuttonup@ioButton@@UAEXABVioMouse@@@Z:PROC ; ioButton::iwm_rbuttonup
EXTRN	?iwm_command@ioWnd@@UAEXPAV1@HK@Z:PROC		; ioWnd::iwm_command
EXTRN	?iwm_mouseover@ioButton@@UAEXABVioMouse@@@Z:PROC ; ioButton::iwm_mouseover
EXTRN	?GetWndType@ioButton@@UBEKXZ:PROC		; ioButton::GetWndType
EXTRN	?GetHeaderFileName@ioButton@@UAEPBDXZ:PROC	; ioButton::GetHeaderFileName
EXTRN	?GetTemplateName@ioButton@@UAEPBDXZ:PROC	; ioButton::GetTemplateName
EXTRN	?GetDefClassName@ioButton@@UBEPBDXZ:PROC	; ioButton::GetDefClassName
EXTRN	?_Clone@ioButton@@UAEPAVioWnd@@XZ:PROC		; ioButton::_Clone
EXTRN	?Copy@ioButton@@UAEXPAVioWnd@@@Z:PROC		; ioButton::Copy
EXTRN	?SetSaveData@ioButton@@UAEXAAVioXMLElement@@@Z:PROC ; ioButton::SetSaveData
EXTRN	?GetNumFixedRenderFrame@ioButton@@UBEHXZ:PROC	; ioButton::GetNumFixedRenderFrame
EXTRN	?GetFixedRenderFrameType@ioButton@@UAEPBDH@Z:PROC ; ioButton::GetFixedRenderFrameType
EXTRN	?GetRenderFrame@ioButton@@UAEPAPAVioUIRenderElement@@PBD@Z:PROC ; ioButton::GetRenderFrame
EXTRN	?GetNumFixedRenderImage@ioButton@@UBEHXZ:PROC	; ioButton::GetNumFixedRenderImage
EXTRN	?GetFixedRenderImageType@ioButton@@UAEPBDH@Z:PROC ; ioButton::GetFixedRenderImageType
EXTRN	?GetRenderImage@ioButton@@UAEPAPAVioUIRenderElement@@PBD@Z:PROC ; ioButton::GetRenderImage
EXTRN	??_EItemListIconBtn@@UAEPAXI@Z:PROC		; ItemListIconBtn::`vector deleting destructor'
EXTRN	?OnDrawNormal@NewShopIconBtn@@MAEXHH@Z:PROC	; NewShopIconBtn::OnDrawNormal
EXTRN	?OnDrawOvered@NewShopIconBtn@@MAEXHH@Z:PROC	; NewShopIconBtn::OnDrawOvered
EXTRN	?OnDrawOveredAdd@ioButton@@MAEXHH@Z:PROC	; ioButton::OnDrawOveredAdd
EXTRN	?OnDrawPushed@NewShopIconBtn@@MAEXHH@Z:PROC	; NewShopIconBtn::OnDrawPushed
EXTRN	?OnDrawDisabled@NewShopIconBtn@@MAEXHH@Z:PROC	; NewShopIconBtn::OnDrawDisabled
EXTRN	?OnDrawExDisabledNormal@ioButton@@MAEXHH@Z:PROC	; ioButton::OnDrawExDisabledNormal
EXTRN	?OnDrawExDisabledOvered@ioButton@@MAEXHH@Z:PROC	; ioButton::OnDrawExDisabledOvered
EXTRN	?OnDrawExDisabledPushed@ioButton@@MAEXHH@Z:PROC	; ioButton::OnDrawExDisabledPushed
EXTRN	?OnDrawBack@ioButton@@MAEXHH@Z:PROC		; ioButton::OnDrawBack
EXTRN	?OnDrawNormalList@ioButton@@MAEXHH@Z:PROC	; ioButton::OnDrawNormalList
EXTRN	?OnDrawDisableList@ioButton@@MAEXHH@Z:PROC	; ioButton::OnDrawDisableList
;	COMDAT ??_R2ioButton@@8
; File c:\program files (x86)\microsoft visual studio 10.0\vc\include\xmemory
rdata$r	SEGMENT
??_R2ioButton@@8 DD FLAT:??_R1A@?0A@EA@ioButton@@8	; ioButton::`RTTI Base Class Array'
	DD	FLAT:??_R1A@?0A@EA@ioWnd@@8
rdata$r	ENDS
;	COMDAT ??_R3ioButton@@8
rdata$r	SEGMENT
??_R3ioButton@@8 DD 00H					; ioButton::`RTTI Class Hierarchy Descriptor'
	DD	00H
	DD	02H
	DD	FLAT:??_R2ioButton@@8
rdata$r	ENDS
;	COMDAT ??_R0?AVioButton@@@8
_DATA	SEGMENT
??_R0?AVioButton@@@8 DD FLAT:??_7type_info@@6B@		; ioButton `RTTI Type Descriptor'
	DD	00H
	DB	'.?AVioButton@@', 00H
_DATA	ENDS
;	COMDAT ??_R1A@?0A@EA@ioButton@@8
rdata$r	SEGMENT
??_R1A@?0A@EA@ioButton@@8 DD FLAT:??_R0?AVioButton@@@8	; ioButton::`RTTI Base Class Descriptor at (0,-1,0,64)'
	DD	01H
	DD	00H
	DD	0ffffffffH
	DD	00H
	DD	040H
	DD	FLAT:??_R3ioButton@@8
rdata$r	ENDS
;	COMDAT ??_R2NewShopIconBtn@@8
rdata$r	SEGMENT
??_R2NewShopIconBtn@@8 DD FLAT:??_R1A@?0A@EA@NewShopIconBtn@@8 ; NewShopIconBtn::`RTTI Base Class Array'
	DD	FLAT:??_R1A@?0A@EA@ioButton@@8
	DD	FLAT:??_R1A@?0A@EA@ioWnd@@8
rdata$r	ENDS
;	COMDAT ??_R3NewShopIconBtn@@8
rdata$r	SEGMENT
??_R3NewShopIconBtn@@8 DD 00H				; NewShopIconBtn::`RTTI Class Hierarchy Descriptor'
	DD	00H
	DD	03H
	DD	FLAT:??_R2NewShopIconBtn@@8
rdata$r	ENDS
;	COMDAT ??_R0?AVNewShopIconBtn@@@8
_DATA	SEGMENT
??_R0?AVNewShopIconBtn@@@8 DD FLAT:??_7type_info@@6B@	; NewShopIconBtn `RTTI Type Descriptor'
	DD	00H
	DB	'.?AVNewShopIconBtn@@', 00H
_DATA	ENDS
;	COMDAT ??_R1A@?0A@EA@NewShopIconBtn@@8
rdata$r	SEGMENT
??_R1A@?0A@EA@NewShopIconBtn@@8 DD FLAT:??_R0?AVNewShopIconBtn@@@8 ; NewShopIconBtn::`RTTI Base Class Descriptor at (0,-1,0,64)'
	DD	02H
	DD	00H
	DD	0ffffffffH
	DD	00H
	DD	040H
	DD	FLAT:??_R3NewShopIconBtn@@8
rdata$r	ENDS
;	COMDAT ??_R1A@?0A@EA@ItemListIconBtn@@8
rdata$r	SEGMENT
??_R1A@?0A@EA@ItemListIconBtn@@8 DD FLAT:??_R0?AVItemListIconBtn@@@8 ; ItemListIconBtn::`RTTI Base Class Descriptor at (0,-1,0,64)'
	DD	03H
	DD	00H
	DD	0ffffffffH
	DD	00H
	DD	040H
	DD	FLAT:??_R3ItemListIconBtn@@8
rdata$r	ENDS
;	COMDAT ??_R2ItemListIconBtn@@8
rdata$r	SEGMENT
??_R2ItemListIconBtn@@8 DD FLAT:??_R1A@?0A@EA@ItemListIconBtn@@8 ; ItemListIconBtn::`RTTI Base Class Array'
	DD	FLAT:??_R1A@?0A@EA@NewShopIconBtn@@8
	DD	FLAT:??_R1A@?0A@EA@ioButton@@8
	DD	FLAT:??_R1A@?0A@EA@ioWnd@@8
rdata$r	ENDS
;	COMDAT ??_R3ItemListIconBtn@@8
rdata$r	SEGMENT
??_R3ItemListIconBtn@@8 DD 00H				; ItemListIconBtn::`RTTI Class Hierarchy Descriptor'
	DD	00H
	DD	04H
	DD	FLAT:??_R2ItemListIconBtn@@8
rdata$r	ENDS
;	COMDAT ??_R0?AVItemListIconBtn@@@8
_DATA	SEGMENT
??_R0?AVItemListIconBtn@@@8 DD FLAT:??_7type_info@@6B@	; ItemListIconBtn `RTTI Type Descriptor'
	DD	00H
	DB	'.?AVItemListIconBtn@@', 00H
_DATA	ENDS
;	COMDAT ??_R4ItemListIconBtn@@6B@
rdata$r	SEGMENT
??_R4ItemListIconBtn@@6B@ DD 00H			; ItemListIconBtn::`RTTI Complete Object Locator'
	DD	00H
	DD	00H
	DD	FLAT:??_R0?AVItemListIconBtn@@@8
	DD	FLAT:??_R3ItemListIconBtn@@8
rdata$r	ENDS
;	COMDAT ??_7ItemListIconBtn@@6B@
CONST	SEGMENT
??_7ItemListIconBtn@@6B@ DD FLAT:??_R4ItemListIconBtn@@6B@ ; ItemListIconBtn::`vftable'
	DD	FLAT:?AddRenderFrame@NewShopIconBtn@@UAEXABVioHashString@@PAVioUIRenderFrame@@@Z
	DD	FLAT:?AddRenderImage@NewShopIconBtn@@UAEXABVioHashString@@PAVioUIRenderImage@@@Z
	DD	FLAT:?AddTooltipHelp@ioWnd@@UAEXABVioHashString@@00@Z
	DD	FLAT:?ParseExtraInfo@NewShopIconBtn@@UAEXAAVioXMLElement@@@Z
	DD	FLAT:?AddNamedRenderImage@ioWnd@@UAEXABVioHashString@@PAVioUIRenderImage@@@Z
	DD	FLAT:?RemoveNamedRenderImage@ioWnd@@UAEXABVioHashString@@@Z
	DD	FLAT:?GetNamedRenderImage@ioWnd@@UBEPAVioUIRenderImage@@ABVioHashString@@@Z
	DD	FLAT:?SetWindowAlpha@ioButton@@UAEXH@Z
	DD	FLAT:?SetActive@ioWnd@@UAEXXZ
	DD	FLAT:?SetInActive@ioWnd@@UAEXXZ
	DD	FLAT:?ClearElementImageList@ioWnd@@UAEXXZ
	DD	FLAT:?SetSize@ioWnd@@UAEXHH@Z
	DD	FLAT:?SetPositionToDefault@ioWnd@@UAEXHH_N0@Z
	DD	FLAT:?IsNeedProcess@ioWnd@@UBE_NXZ
	DD	FLAT:?IsCanMouseReaction@ioWnd@@UBE_NXZ
	DD	FLAT:?AddChild@ioWnd@@UAEXPAV1@@Z
	DD	FLAT:?DeleteChild@ioWnd@@UAEXK@Z
	DD	FLAT:?DeleteAllChild@ioWnd@@UAEXXZ
	DD	FLAT:?OnRenderShowAndHide@ioWnd@@MAE_NXZ
	DD	FLAT:?OnRenderShowAndHideByDefault@ioWnd@@MAE_NK@Z
	DD	FLAT:?OnRenderShowAndHideByTop@ioWnd@@MAE_NK@Z
	DD	FLAT:?OnRenderShowAndHideByDown@ioWnd@@MAE_NK@Z
	DD	FLAT:?OnRender@ItemListIconBtn@@MAEXXZ
	DD	FLAT:?OnRenderAfterChild@ioWnd@@MAEXXZ
	DD	FLAT:?OnProcess@NewShopIconBtn@@MAEXM@Z
	DD	FLAT:?OnMouseProcess@ioWnd@@MAEXABVioMouse@@@Z
	DD	FLAT:?CheckFrameReSize@ioButton@@MAEXHHHH@Z
	DD	FLAT:?RenderImageList@ioWnd@@MAEXHHW4UIRenderType@@@Z
	DD	FLAT:?iwm_create@ioWnd@@UAEXXZ
	DD	FLAT:?iwm_destroy@ioWnd@@UAEXXZ
	DD	FLAT:?iwm_lbuttondown@ioButton@@UAEXABVioMouse@@@Z
	DD	FLAT:?iwm_lbuttonup@ioButton@@UAEXABVioMouse@@@Z
	DD	FLAT:?iwm_lbuttonDBLCLK@ioButton@@UAEXABVioMouse@@@Z
	DD	FLAT:?iwm_rbuttondown@ioButton@@UAEXABVioMouse@@@Z
	DD	FLAT:?iwm_rbuttonup@ioButton@@UAEXABVioMouse@@@Z
	DD	FLAT:?iwm_command@ioWnd@@UAEXPAV1@HK@Z
	DD	FLAT:?iwm_mouseover@ioButton@@UAEXABVioMouse@@@Z
	DD	FLAT:?iwm_mousemove@ioWnd@@UAEXABVioMouse@@@Z
	DD	FLAT:?iwm_mouseleave@ioWnd@@UAEXABVioMouse@@@Z
	DD	FLAT:?iwm_vscroll@ioWnd@@UAEXKH@Z
	DD	FLAT:?iwm_wheel@ioWnd@@UAEXH@Z
	DD	FLAT:?iwm_show@ioWnd@@UAEXXZ
	DD	FLAT:?iwm_hide@ioWnd@@UAEXXZ
	DD	FLAT:?iwm_esc@ioWnd@@UAE_NXZ
	DD	FLAT:?iwm_spacebar@ioWnd@@UAE_NXZ
	DD	FLAT:?iwm_gototop@ioWnd@@UAEXXZ
	DD	FLAT:?iwm_dragenter@ioWnd@@UAE?AW4IWDropEffect@@PAVioDragItem@@ABVioMouse@@@Z
	DD	FLAT:?iwm_dragover@ioWnd@@UAE?AW4IWDropEffect@@PAVioDragItem@@ABVioMouse@@@Z
	DD	FLAT:?iwm_dragleave@ioWnd@@UAEXXZ
	DD	FLAT:?iwm_dropitem@ioWnd@@UAE_NPAVioDragItem@@ABVioMouse@@PAV1@@Z
	DD	FLAT:?iwm_dropdone@ioWnd@@UAEXPAVioDragItem@@PAV1@_N@Z
	DD	FLAT:?IsEXType@ioWnd@@UBE_NXZ
	DD	FLAT:?GetWndType@ioButton@@UBEKXZ
	DD	FLAT:?RenderWnd@ioWnd@@UAEXXZ
	DD	FLAT:?SetIDEX@ioWnd@@UAEXAAK_N@Z
	DD	FLAT:?ParseXML@ioWnd@@UAEXAAVioXMLElement@@@Z
	DD	FLAT:?GetHeaderFileName@ioButton@@UAEPBDXZ
	DD	FLAT:?GetTemplateName@ioButton@@UAEPBDXZ
	DD	FLAT:?GetDefClassName@ioButton@@UBEPBDXZ
	DD	FLAT:?_Clone@ioButton@@UAEPAVioWnd@@XZ
	DD	FLAT:?Copy@ioButton@@UAEXPAVioWnd@@@Z
	DD	FLAT:?Save@ioWnd@@UAE_NAAVioXMLElement@@@Z
	DD	FLAT:?SetSaveData@ioButton@@UAEXAAVioXMLElement@@@Z
	DD	FLAT:?SetPosX@ioWnd@@UAEXH@Z
	DD	FLAT:?SetPosY@ioWnd@@UAEXH@Z
	DD	FLAT:?SetWidth@ioWnd@@UAEXH@Z
	DD	FLAT:?SetHeight@ioWnd@@UAEXH@Z
	DD	FLAT:?GetNumFixedRenderFrame@ioButton@@UBEHXZ
	DD	FLAT:?GetFixedRenderFrameType@ioButton@@UAEPBDH@Z
	DD	FLAT:?GetRenderFrame@ioButton@@UAEPAPAVioUIRenderElement@@PBD@Z
	DD	FLAT:?GetNumFixedRenderImage@ioButton@@UBEHXZ
	DD	FLAT:?GetFixedRenderImageType@ioButton@@UAEPBDH@Z
	DD	FLAT:?GetRenderImage@ioButton@@UAEPAPAVioUIRenderElement@@PBD@Z
	DD	FLAT:?AddEffect@ioWnd@@UAEXABVioHashString@@PAVioUI3DEffectRender@@@Z
	DD	FLAT:?GetEffect@ioWnd@@UAEPAVioUI3DEffectRender@@VioHashString@@@Z
	DD	FLAT:??_EItemListIconBtn@@UAEPAXI@Z
	DD	FLAT:?OnDrawNormal@NewShopIconBtn@@MAEXHH@Z
	DD	FLAT:?OnDrawOvered@NewShopIconBtn@@MAEXHH@Z
	DD	FLAT:?OnDrawOveredAdd@ioButton@@MAEXHH@Z
	DD	FLAT:?OnDrawPushed@NewShopIconBtn@@MAEXHH@Z
	DD	FLAT:?OnDrawDisabled@NewShopIconBtn@@MAEXHH@Z
	DD	FLAT:?OnDrawExDisabledNormal@ioButton@@MAEXHH@Z
	DD	FLAT:?OnDrawExDisabledOvered@ioButton@@MAEXHH@Z
	DD	FLAT:?OnDrawExDisabledPushed@ioButton@@MAEXHH@Z
	DD	FLAT:?OnDrawBack@ioButton@@MAEXHH@Z
	DD	FLAT:?OnDrawNormalList@ioButton@@MAEXHH@Z
	DD	FLAT:?OnDrawDisableList@ioButton@@MAEXHH@Z
; Function compile flags: /Ogsp
; File d:\lost saga for developer\youtube\tutorial\source\src\lsclient\gui\ioextraitemlistwnd.cpp
CONST	ENDS
;	COMDAT ??0ItemListIconBtn@@QAE@XZ
_TEXT	SEGMENT
??0ItemListIconBtn@@QAE@XZ PROC				; ItemListIconBtn::ItemListIconBtn, COMDAT
; _this$ = ecx

; 34   : {

  00000	56		 push	 esi
  00001	8b f1		 mov	 esi, ecx
  00003	e8 00 00 00 00	 call	 ??0NewShopIconBtn@@QAE@XZ ; NewShopIconBtn::NewShopIconBtn
  00008	33 c9		 xor	 ecx, ecx
  0000a	c7 06 00 00 00
	00		 mov	 DWORD PTR [esi], OFFSET ??_7ItemListIconBtn@@6B@
  00010	89 8e 6c 02 00
	00		 mov	 DWORD PTR [esi+620], ecx
  00016	89 8e 70 02 00
	00		 mov	 DWORD PTR [esi+624], ecx
  0001c	89 8e 74 02 00
	00		 mov	 DWORD PTR [esi+628], ecx

; 35   : 	m_iItemCode = 0;

  00022	89 8e 7c 02 00
	00		 mov	 DWORD PTR [esi+636], ecx

; 36   : }

  00028	8b c6		 mov	 eax, esi
  0002a	5e		 pop	 esi
  0002b	c3		 ret	 0
??0ItemListIconBtn@@QAE@XZ ENDP				; ItemListIconBtn::ItemListIconBtn
_TEXT	ENDS
PUBLIC	??1ItemListIconBtn@@UAE@XZ			; ItemListIconBtn::~ItemListIconBtn
EXTRN	??1NewShopIconBtn@@UAE@XZ:PROC			; NewShopIconBtn::~NewShopIconBtn
;	COMDAT xdata$x
; File c:\program files (x86)\microsoft visual studio 10.0\vc\include\vector
xdata$x	SEGMENT
__unwindtable$??1ItemListIconBtn@@UAE@XZ DD 0ffffffffH
	DD	FLAT:__unwindfunclet$??1ItemListIconBtn@@UAE@XZ$0
	DD	00H
	DD	FLAT:__unwindfunclet$??1ItemListIconBtn@@UAE@XZ$1
__ehfuncinfo$??1ItemListIconBtn@@UAE@XZ DD 019930522H
	DD	02H
	DD	FLAT:__unwindtable$??1ItemListIconBtn@@UAE@XZ
	DD	2 DUP(00H)
	DD	2 DUP(00H)
	DD	00H
	DD	01H
; Function compile flags: /Ogsp
; File d:\lost saga for developer\youtube\tutorial\source\src\lsclient\gui\ioextraitemlistwnd.cpp
xdata$x	ENDS
;	COMDAT ??1ItemListIconBtn@@UAE@XZ
_TEXT	SEGMENT
$T511534 = -20						; size = 4
_this$ = -16						; size = 4
__$EHRec$ = -12						; size = 12
??1ItemListIconBtn@@UAE@XZ PROC				; ItemListIconBtn::~ItemListIconBtn, COMDAT
; _this$ = ecx

; 39   : {

  00000	6a 08		 push	 8
  00002	b8 00 00 00 00	 mov	 eax, __ehhandler$??1ItemListIconBtn@@UAE@XZ
  00007	e8 00 00 00 00	 call	 __EH_prolog3
  0000c	8b f9		 mov	 edi, ecx
  0000e	89 7d f0	 mov	 DWORD PTR _this$[ebp], edi
  00011	c7 07 00 00 00
	00		 mov	 DWORD PTR [edi], OFFSET ??_7ItemListIconBtn@@6B@

; 40   : 	m_szNameList.clear();

  00017	8b 87 70 02 00
	00		 mov	 eax, DWORD PTR [edi+624]
  0001d	8b 8f 6c 02 00
	00		 mov	 ecx, DWORD PTR [edi+620]
  00023	50		 push	 eax
  00024	51		 push	 ecx
  00025	8d 45 ec	 lea	 eax, DWORD PTR $T511534[ebp]
  00028	50		 push	 eax
  00029	8d 8f 6c 02 00
	00		 lea	 ecx, DWORD PTR [edi+620]
  0002f	c7 45 fc 01 00
	00 00		 mov	 DWORD PTR __$EHRec$[ebp+8], 1
  00036	e8 00 00 00 00	 call	 ?erase@?$vector@V?$basic_string@DU?$char_traits@D@std@@V?$allocator@D@2@@std@@V?$allocator@V?$basic_string@DU?$char_traits@D@std@@V?$allocator@D@2@@std@@@2@@std@@QAE?AV?$_Vector_iterator@V?$_Vector_val@V?$basic_string@DU?$char_traits@D@std@@V?$allocator@D@2@@std@@V?$allocator@V?$basic_string@DU?$char_traits@D@std@@V?$allocator@D@2@@std@@@2@@std@@@2@V?$_Vector_const_iterator@V?$_Vector_val@V?$basic_string@DU?$char_traits@D@std@@V?$allocator@D@2@@std@@V?$allocator@V?$basic_string@DU?$char_traits@D@std@@V?$allocator@D@2@@std@@@2@@std@@@2@0@Z ; std::vector<std::basic_string<char,std::char_traits<char>,std::allocator<char> >,std::allocator<std::basic_string<char,std::char_traits<char>,std::allocator<char> > > >::erase

; 41   : }

  0003b	8d 8f 6c 02 00
	00		 lea	 ecx, DWORD PTR [edi+620]
  00041	c6 45 fc 00	 mov	 BYTE PTR __$EHRec$[ebp+8], 0
  00045	e8 00 00 00 00	 call	 ?_Tidy@?$vector@V?$basic_string@DU?$char_traits@D@std@@V?$allocator@D@2@@std@@V?$allocator@V?$basic_string@DU?$char_traits@D@std@@V?$allocator@D@2@@std@@@2@@std@@IAEXXZ ; std::vector<std::basic_string<char,std::char_traits<char>,std::allocator<char> >,std::allocator<std::basic_string<char,std::char_traits<char>,std::allocator<char> > > >::_Tidy
  0004a	83 4d fc ff	 or	 DWORD PTR __$EHRec$[ebp+8], -1
  0004e	8b cf		 mov	 ecx, edi
  00050	e8 00 00 00 00	 call	 ??1NewShopIconBtn@@UAE@XZ ; NewShopIconBtn::~NewShopIconBtn
  00055	e8 00 00 00 00	 call	 __EH_epilog3
  0005a	c3		 ret	 0
_TEXT	ENDS
;	COMDAT text$x
text$x	SEGMENT
__unwindfunclet$??1ItemListIconBtn@@UAE@XZ$0:
  00000	8b 4d f0	 mov	 ecx, DWORD PTR _this$[ebp]
  00003	e9 00 00 00 00	 jmp	 ??1NewShopIconBtn@@UAE@XZ ; NewShopIconBtn::~NewShopIconBtn
__unwindfunclet$??1ItemListIconBtn@@UAE@XZ$1:
  00008	8b 4d f0	 mov	 ecx, DWORD PTR _this$[ebp]
  0000b	81 c1 6c 02 00
	00		 add	 ecx, 620		; 0000026cH
  00011	e9 00 00 00 00	 jmp	 ??1?$vector@V?$basic_string@DU?$char_traits@D@std@@V?$allocator@D@2@@std@@V?$allocator@V?$basic_string@DU?$char_traits@D@std@@V?$allocator@D@2@@std@@@2@@std@@QAE@XZ ; std::vector<std::basic_string<char,std::char_traits<char>,std::allocator<char> >,std::allocator<std::basic_string<char,std::char_traits<char>,std::allocator<char> > > >::~vector<std::basic_string<char,std::char_traits<char>,std::allocator<char> >,std::allocator<std::basic_string<char,std::char_traits<char>,std::allocator<char> > > >
__ehhandler$??1ItemListIconBtn@@UAE@XZ:
  00016	8b 54 24 08	 mov	 edx, DWORD PTR [esp+8]
  0001a	8d 42 0c	 lea	 eax, DWORD PTR [edx+12]
  0001d	8b 4a e8	 mov	 ecx, DWORD PTR [edx-24]
  00020	33 c8		 xor	 ecx, eax
  00022	e8 00 00 00 00	 call	 @__security_check_cookie@4
  00027	b8 00 00 00 00	 mov	 eax, OFFSET __ehfuncinfo$??1ItemListIconBtn@@UAE@XZ
  0002c	e9 00 00 00 00	 jmp	 ___CxxFrameHandler3
text$x	ENDS
??1ItemListIconBtn@@UAE@XZ ENDP				; ItemListIconBtn::~ItemListIconBtn
PUBLIC	??4?$vector@V?$basic_string@DU?$char_traits@D@std@@V?$allocator@D@2@@std@@V?$allocator@V?$basic_string@DU?$char_traits@D@std@@V?$allocator@D@2@@std@@@2@@std@@QAEAAV01@ABV01@@Z ; std::vector<std::basic_string<char,std::char_traits<char>,std::allocator<char> >,std::allocator<std::basic_string<char,std::char_traits<char>,std::allocator<char> > > >::operator=
; Function compile flags: /Ogsp
; File c:\program files (x86)\microsoft visual studio 10.0\vc\include\vector
;	COMDAT ??4?$vector@V?$basic_string@DU?$char_traits@D@std@@V?$allocator@D@2@@std@@V?$allocator@V?$basic_string@DU?$char_traits@D@std@@V?$allocator@D@2@@std@@@2@@std@@QAEAAV01@ABV01@@Z
_TEXT	SEGMENT
tv551 = 8						; size = 4
__Cat$511793 = 8					; size = 1
__Cat$511761 = 8					; size = 1
__Cat$511738 = 8					; size = 1
__Cat$511715 = 8					; size = 1
__Cat$511690 = 8					; size = 1
__Cat$511665 = 8					; size = 1
$T511633 = 8						; size = 4
__Right$ = 8						; size = 4
??4?$vector@V?$basic_string@DU?$char_traits@D@std@@V?$allocator@D@2@@std@@V?$allocator@V?$basic_string@DU?$char_traits@D@std@@V?$allocator@D@2@@std@@@2@@std@@QAEAAV01@ABV01@@Z PROC ; std::vector<std::basic_string<char,std::char_traits<char>,std::allocator<char> >,std::allocator<std::basic_string<char,std::char_traits<char>,std::allocator<char> > > >::operator=, COMDAT
; _this$ = ecx

; 709  : 		{	// assign _Right

  00000	55		 push	 ebp
  00001	8b ec		 mov	 ebp, esp
  00003	56		 push	 esi
  00004	57		 push	 edi

; 710  : 		if (this != &_Right)

  00005	8b 7d 08	 mov	 edi, DWORD PTR __Right$[ebp]
  00008	8b f1		 mov	 esi, ecx
  0000a	3b f7		 cmp	 esi, edi
  0000c	0f 84 09 01 00
	00		 je	 $LN1@operator@2

; 711  : 			{	// worth doing
; 712  : 			this->_Orphan_all();

  00012	ff 15 00 00 00
	00		 call	 DWORD PTR __imp_?_Orphan_all@_Container_base0@std@@QAEXXZ

; 713  : 
; 714  : 			if (_Right.size() == 0)

  00018	8b 47 04	 mov	 eax, DWORD PTR [edi+4]
  0001b	2b 07		 sub	 eax, DWORD PTR [edi]
  0001d	6a 1c		 push	 28			; 0000001cH
  0001f	99		 cdq
  00020	59		 pop	 ecx
  00021	f7 f9		 idiv	 ecx
  00023	89 45 08	 mov	 DWORD PTR tv551[ebp], eax
  00026	85 c0		 test	 eax, eax

; 715  : 				clear();	// new sequence empty, erase existing sequence

  00028	8b 46 04	 mov	 eax, DWORD PTR [esi+4]
  0002b	75 14		 jne	 SHORT $LN8@operator@2
  0002d	8b 0e		 mov	 ecx, DWORD PTR [esi]
  0002f	50		 push	 eax
  00030	51		 push	 ecx
  00031	8d 45 08	 lea	 eax, DWORD PTR $T511633[ebp]
  00034	50		 push	 eax
  00035	8b ce		 mov	 ecx, esi
  00037	e8 00 00 00 00	 call	 ?erase@?$vector@V?$basic_string@DU?$char_traits@D@std@@V?$allocator@D@2@@std@@V?$allocator@V?$basic_string@DU?$char_traits@D@std@@V?$allocator@D@2@@std@@@2@@std@@QAE?AV?$_Vector_iterator@V?$_Vector_val@V?$basic_string@DU?$char_traits@D@std@@V?$allocator@D@2@@std@@V?$allocator@V?$basic_string@DU?$char_traits@D@std@@V?$allocator@D@2@@std@@@2@@std@@@2@V?$_Vector_const_iterator@V?$_Vector_val@V?$basic_string@DU?$char_traits@D@std@@V?$allocator@D@2@@std@@V?$allocator@V?$basic_string@DU?$char_traits@D@std@@V?$allocator@D@2@@std@@@2@@std@@@2@0@Z ; std::vector<std::basic_string<char,std::char_traits<char>,std::allocator<char> >,std::allocator<std::basic_string<char,std::char_traits<char>,std::allocator<char> > > >::erase

; 716  : 			else if (_Right.size() <= size())

  0003c	e9 da 00 00 00	 jmp	 $LN1@operator@2
$LN8@operator@2:
  00041	53		 push	 ebx
  00042	8b 1e		 mov	 ebx, DWORD PTR [esi]
  00044	2b c3		 sub	 eax, ebx
  00046	6a 1c		 push	 28			; 0000001cH
  00048	99		 cdq
  00049	59		 pop	 ecx
  0004a	f7 f9		 idiv	 ecx
  0004c	8b c8		 mov	 ecx, eax
  0004e	39 4d 08	 cmp	 DWORD PTR tv551[ebp], ecx
  00051	77 36		 ja	 SHORT $LN6@operator@2

; 717  : 				{	// enough elements, copy new and destroy old
; 718  : 				pointer _Ptr = _STD _Copy_impl(_Right._Myfirst, _Right._Mylast,
; 719  : 					this->_Myfirst);	// copy new

  00053	ff 75 08	 push	 DWORD PTR __Cat$511665[ebp]
  00056	53		 push	 ebx
  00057	ff 77 04	 push	 DWORD PTR [edi+4]
  0005a	ff 37		 push	 DWORD PTR [edi]
  0005c	e8 00 00 00 00	 call	 ??$_Copy_impl@PAV?$basic_string@DU?$char_traits@D@std@@V?$allocator@D@2@@std@@PAV12@@std@@YAPAV?$basic_string@DU?$char_traits@D@std@@V?$allocator@D@2@@0@PAV10@00U_Nonscalar_ptr_iterator_tag@0@@Z ; std::_Copy_impl<std::basic_string<char,std::char_traits<char>,std::allocator<char> > *,std::basic_string<char,std::char_traits<char>,std::allocator<char> > *>

; 720  : 				_Destroy(_Ptr, this->_Mylast);	// destroy old

  00061	ff 75 08	 push	 DWORD PTR __Cat$511690[ebp]
  00064	8d 4e 0c	 lea	 ecx, DWORD PTR [esi+12]
  00067	51		 push	 ecx
  00068	ff 76 04	 push	 DWORD PTR [esi+4]
  0006b	50		 push	 eax
  0006c	e8 00 00 00 00	 call	 ??$_Destroy_range@V?$allocator@V?$basic_string@DU?$char_traits@D@std@@V?$allocator@D@2@@std@@@std@@@std@@YAXPAV?$basic_string@DU?$char_traits@D@std@@V?$allocator@D@2@@0@0AAV?$allocator@V?$basic_string@DU?$char_traits@D@std@@V?$allocator@D@2@@std@@@0@U_Nonscalar_ptr_iterator_tag@0@@Z ; std::_Destroy_range<std::allocator<std::basic_string<char,std::char_traits<char>,std::allocator<char> > > >

; 721  : 				this->_Mylast = this->_Myfirst + _Right.size();

  00071	8b 47 04	 mov	 eax, DWORD PTR [edi+4]
  00074	2b 07		 sub	 eax, DWORD PTR [edi]
  00076	83 c4 20	 add	 esp, 32			; 00000020H
  00079	99		 cdq
  0007a	6a 1c		 push	 28			; 0000001cH
  0007c	59		 pop	 ecx
  0007d	f7 f9		 idiv	 ecx
  0007f	6b c0 1c	 imul	 eax, 28			; 0000001cH
  00082	03 06		 add	 eax, DWORD PTR [esi]

; 722  : 				}
; 723  : 			else if (_Right.size() <= capacity())

  00084	e9 8e 00 00 00	 jmp	 $LN81@operator@2
$LN6@operator@2:
  00089	8b 46 08	 mov	 eax, DWORD PTR [esi+8]
  0008c	2b c3		 sub	 eax, ebx
  0008e	6a 1c		 push	 28			; 0000001cH
  00090	99		 cdq
  00091	5b		 pop	 ebx
  00092	f7 fb		 idiv	 ebx
  00094	39 45 08	 cmp	 DWORD PTR tv551[ebp], eax
  00097	77 2e		 ja	 SHORT $LN4@operator@2

; 724  : 				{	// enough room, copy and construct new
; 725  : 				pointer _Ptr = _Right._Myfirst + size();
; 726  : 				_STD _Copy_impl(_Right._Myfirst, _Ptr, this->_Myfirst);

  00099	ff 75 08	 push	 DWORD PTR __Cat$511715[ebp]
  0009c	6b c9 1c	 imul	 ecx, 28			; 0000001cH
  0009f	8b 07		 mov	 eax, DWORD PTR [edi]
  000a1	ff 36		 push	 DWORD PTR [esi]
  000a3	8d 1c 08	 lea	 ebx, DWORD PTR [eax+ecx]
  000a6	53		 push	 ebx
  000a7	50		 push	 eax
  000a8	e8 00 00 00 00	 call	 ??$_Copy_impl@PAV?$basic_string@DU?$char_traits@D@std@@V?$allocator@D@2@@std@@PAV12@@std@@YAPAV?$basic_string@DU?$char_traits@D@std@@V?$allocator@D@2@@0@PAV10@00U_Nonscalar_ptr_iterator_tag@0@@Z ; std::_Copy_impl<std::basic_string<char,std::char_traits<char>,std::allocator<char> > *,std::basic_string<char,std::char_traits<char>,std::allocator<char> > *>

; 727  : 				this->_Mylast = _Ucopy(_Ptr, _Right._Mylast, this->_Mylast);

  000ad	ff 75 08	 push	 DWORD PTR __Cat$511738[ebp]
  000b0	8b 46 04	 mov	 eax, DWORD PTR [esi+4]
  000b3	8b 7f 04	 mov	 edi, DWORD PTR [edi+4]
  000b6	8d 4e 0c	 lea	 ecx, DWORD PTR [esi+12]
  000b9	51		 push	 ecx
  000ba	50		 push	 eax
  000bb	57		 push	 edi
  000bc	53		 push	 ebx
  000bd	e8 00 00 00 00	 call	 ??$_Uninit_copy@PAV?$basic_string@DU?$char_traits@D@std@@V?$allocator@D@2@@std@@PAV12@V?$allocator@V?$basic_string@DU?$char_traits@D@std@@V?$allocator@D@2@@std@@@2@@std@@YAPAV?$basic_string@DU?$char_traits@D@std@@V?$allocator@D@2@@0@PAV10@00AAV?$allocator@V?$basic_string@DU?$char_traits@D@std@@V?$allocator@D@2@@std@@@0@U_Nonscalar_ptr_iterator_tag@0@@Z ; std::_Uninit_copy<std::basic_string<char,std::char_traits<char>,std::allocator<char> > *,std::basic_string<char,std::char_traits<char>,std::allocator<char> > *,std::allocator<std::basic_string<char,std::char_traits<char>,std::allocator<char> > > >
  000c2	83 c4 24	 add	 esp, 36			; 00000024H

; 728  : 				}
; 729  : 			else

  000c5	eb 50		 jmp	 SHORT $LN81@operator@2
$LN4@operator@2:

; 730  : 				{	// not enough room, allocate new array and construct new
; 731  : 				if (this->_Myfirst != 0)

  000c7	8b 06		 mov	 eax, DWORD PTR [esi]
  000c9	85 c0		 test	 eax, eax
  000cb	74 1a		 je	 SHORT $LN70@operator@2

; 732  : 					{	// discard old array
; 733  : 					_Destroy(this->_Myfirst, this->_Mylast);

  000cd	ff 75 08	 push	 DWORD PTR __Cat$511761[ebp]
  000d0	8d 4e 0c	 lea	 ecx, DWORD PTR [esi+12]
  000d3	51		 push	 ecx
  000d4	ff 76 04	 push	 DWORD PTR [esi+4]
  000d7	50		 push	 eax
  000d8	e8 00 00 00 00	 call	 ??$_Destroy_range@V?$allocator@V?$basic_string@DU?$char_traits@D@std@@V?$allocator@D@2@@std@@@std@@@std@@YAXPAV?$basic_string@DU?$char_traits@D@std@@V?$allocator@D@2@@0@0AAV?$allocator@V?$basic_string@DU?$char_traits@D@std@@V?$allocator@D@2@@std@@@0@U_Nonscalar_ptr_iterator_tag@0@@Z ; std::_Destroy_range<std::allocator<std::basic_string<char,std::char_traits<char>,std::allocator<char> > > >

; 734  : 					this->_Alval.deallocate(this->_Myfirst,
; 735  : 						this->_Myend - this->_Myfirst);

  000dd	ff 36		 push	 DWORD PTR [esi]
  000df	e8 00 00 00 00	 call	 ??3@YAXPAX@Z		; operator delete
  000e4	83 c4 14	 add	 esp, 20			; 00000014H
$LN70@operator@2:

; 736  : 					}
; 737  : 				if (_Buy(_Right.size()))

  000e7	8b 47 04	 mov	 eax, DWORD PTR [edi+4]
  000ea	2b 07		 sub	 eax, DWORD PTR [edi]
  000ec	6a 1c		 push	 28			; 0000001cH
  000ee	59		 pop	 ecx
  000ef	99		 cdq
  000f0	f7 f9		 idiv	 ecx
  000f2	8b ce		 mov	 ecx, esi
  000f4	50		 push	 eax
  000f5	e8 00 00 00 00	 call	 ?_Buy@?$vector@V?$basic_string@DU?$char_traits@D@std@@V?$allocator@D@2@@std@@V?$allocator@V?$basic_string@DU?$char_traits@D@std@@V?$allocator@D@2@@std@@@2@@std@@IAE_NI@Z ; std::vector<std::basic_string<char,std::char_traits<char>,std::allocator<char> >,std::allocator<std::basic_string<char,std::char_traits<char>,std::allocator<char> > > >::_Buy
  000fa	84 c0		 test	 al, al
  000fc	74 1c		 je	 SHORT $LN80@operator@2

; 738  : 					this->_Mylast = _Ucopy(_Right._Myfirst, _Right._Mylast,
; 739  : 						this->_Myfirst);

  000fe	ff 75 08	 push	 DWORD PTR __Cat$511793[ebp]
  00101	8b 06		 mov	 eax, DWORD PTR [esi]
  00103	8b 4f 04	 mov	 ecx, DWORD PTR [edi+4]
  00106	8b 3f		 mov	 edi, DWORD PTR [edi]
  00108	8d 56 0c	 lea	 edx, DWORD PTR [esi+12]
  0010b	52		 push	 edx
  0010c	50		 push	 eax
  0010d	51		 push	 ecx
  0010e	57		 push	 edi
  0010f	e8 00 00 00 00	 call	 ??$_Uninit_copy@PAV?$basic_string@DU?$char_traits@D@std@@V?$allocator@D@2@@std@@PAV12@V?$allocator@V?$basic_string@DU?$char_traits@D@std@@V?$allocator@D@2@@std@@@2@@std@@YAPAV?$basic_string@DU?$char_traits@D@std@@V?$allocator@D@2@@0@PAV10@00AAV?$allocator@V?$basic_string@DU?$char_traits@D@std@@V?$allocator@D@2@@std@@@0@U_Nonscalar_ptr_iterator_tag@0@@Z ; std::_Uninit_copy<std::basic_string<char,std::char_traits<char>,std::allocator<char> > *,std::basic_string<char,std::char_traits<char>,std::allocator<char> > *,std::allocator<std::basic_string<char,std::char_traits<char>,std::allocator<char> > > >
  00114	83 c4 14	 add	 esp, 20			; 00000014H
$LN81@operator@2:
  00117	89 46 04	 mov	 DWORD PTR [esi+4], eax
$LN80@operator@2:
  0011a	5b		 pop	 ebx
$LN1@operator@2:
  0011b	5f		 pop	 edi

; 740  : 				}
; 741  : 			}
; 742  : 		return (*this);

  0011c	8b c6		 mov	 eax, esi
  0011e	5e		 pop	 esi

; 743  : 		}

  0011f	5d		 pop	 ebp
  00120	c2 04 00	 ret	 4
??4?$vector@V?$basic_string@DU?$char_traits@D@std@@V?$allocator@D@2@@std@@V?$allocator@V?$basic_string@DU?$char_traits@D@std@@V?$allocator@D@2@@std@@@2@@std@@QAEAAV01@ABV01@@Z ENDP ; std::vector<std::basic_string<char,std::char_traits<char>,std::allocator<char> >,std::allocator<std::basic_string<char,std::char_traits<char>,std::allocator<char> > > >::operator=
; Function compile flags: /Ogsp
_TEXT	ENDS
;	COMDAT ??_GItemListIconBtn@@UAEPAXI@Z
_TEXT	SEGMENT
___flags$ = 8						; size = 4
??_GItemListIconBtn@@UAEPAXI@Z PROC			; ItemListIconBtn::`scalar deleting destructor', COMDAT
; _this$ = ecx
  00000	55		 push	 ebp
  00001	8b ec		 mov	 ebp, esp
  00003	56		 push	 esi
  00004	8b f1		 mov	 esi, ecx
  00006	e8 00 00 00 00	 call	 ??1ItemListIconBtn@@UAE@XZ ; ItemListIconBtn::~ItemListIconBtn
  0000b	f6 45 08 01	 test	 BYTE PTR ___flags$[ebp], 1
  0000f	74 07		 je	 SHORT $LN1@scalar@4
  00011	56		 push	 esi
  00012	e8 00 00 00 00	 call	 ??3@YAXPAX@Z		; operator delete
  00017	59		 pop	 ecx
$LN1@scalar@4:
  00018	8b c6		 mov	 eax, esi
  0001a	5e		 pop	 esi
  0001b	5d		 pop	 ebp
  0001c	c2 04 00	 ret	 4
??_GItemListIconBtn@@UAEPAXI@Z ENDP			; ItemListIconBtn::`scalar deleting destructor'
_TEXT	ENDS
PUBLIC	??_C@_01IPJKGB@?$CD?$AA@			; `string'
PUBLIC	_szName$GSCopy$
PUBLIC	?SplitDescription@ItemListIconBtn@@IAEXABVioHashString@@@Z ; ItemListIconBtn::SplitDescription
EXTRN	__imp_?Split@ioStringConverter@@SAABV?$vector@V?$basic_string@DU?$char_traits@D@std@@V?$allocator@D@2@@std@@V?$allocator@V?$basic_string@DU?$char_traits@D@std@@V?$allocator@D@2@@std@@@2@@std@@ABV?$basic_string@DU?$char_traits@D@std@@V?$allocator@D@2@@3@0H@Z:PROC
EXTRN	__EH_epilog3_GS:PROC
EXTRN	__EH_prolog3_GS:PROC
;	COMDAT ??_C@_01IPJKGB@?$CD?$AA@
; File c:\program files (x86)\microsoft visual studio 10.0\vc\include\xstring
CONST	SEGMENT
??_C@_01IPJKGB@?$CD?$AA@ DB '#', 00H			; `string'
CONST	ENDS
;	COMDAT xdata$x
xdata$x	SEGMENT
__unwindtable$?SplitDescription@ItemListIconBtn@@IAEXABVioHashString@@@Z DD 0ffffffffH
	DD	FLAT:__unwindfunclet$?SplitDescription@ItemListIconBtn@@IAEXABVioHashString@@@Z$0
	DD	00H
	DD	FLAT:__unwindfunclet$?SplitDescription@ItemListIconBtn@@IAEXABVioHashString@@@Z$1
__ehfuncinfo$?SplitDescription@ItemListIconBtn@@IAEXABVioHashString@@@Z DD 019930522H
	DD	02H
	DD	FLAT:__unwindtable$?SplitDescription@ItemListIconBtn@@IAEXABVioHashString@@@Z
	DD	2 DUP(00H)
	DD	2 DUP(00H)
	DD	00H
	DD	01H
; Function compile flags: /Ogsp
; File d:\lost saga for developer\youtube\tutorial\source\src\lsclient\gui\ioextraitemlistwnd.cpp
xdata$x	ENDS
;	COMDAT ?SplitDescription@ItemListIconBtn@@IAEXABVioHashString@@@Z
_TEXT	SEGMENT
$T511869 = -80						; size = 4
_szName$GSCopy$ = -76					; size = 4
$T505648 = -72						; size = 28
$T505649 = -44						; size = 28
__$EHRec$ = -12						; size = 12
_szName$ = 8						; size = 4
?SplitDescription@ItemListIconBtn@@IAEXABVioHashString@@@Z PROC ; ItemListIconBtn::SplitDescription, COMDAT
; _this$ = ecx

; 83   : {

  00000	6a 44		 push	 68			; 00000044H
  00002	b8 00 00 00 00	 mov	 eax, __ehhandler$?SplitDescription@ItemListIconBtn@@IAEXABVioHashString@@@Z
  00007	e8 00 00 00 00	 call	 __EH_prolog3_GS
  0000c	8b 45 08	 mov	 eax, DWORD PTR _szName$[ebp]
  0000f	8b f1		 mov	 esi, ecx

; 84   : 	m_szNameList.clear();

  00011	8b 8e 6c 02 00
	00		 mov	 ecx, DWORD PTR [esi+620]
  00017	89 45 b4	 mov	 DWORD PTR _szName$GSCopy$[ebp], eax
  0001a	8b 86 70 02 00
	00		 mov	 eax, DWORD PTR [esi+624]
  00020	50		 push	 eax
  00021	51		 push	 ecx
  00022	8d 45 b0	 lea	 eax, DWORD PTR $T511869[ebp]
  00025	50		 push	 eax
  00026	8d 8e 6c 02 00
	00		 lea	 ecx, DWORD PTR [esi+620]
  0002c	e8 00 00 00 00	 call	 ?erase@?$vector@V?$basic_string@DU?$char_traits@D@std@@V?$allocator@D@2@@std@@V?$allocator@V?$basic_string@DU?$char_traits@D@std@@V?$allocator@D@2@@std@@@2@@std@@QAE?AV?$_Vector_iterator@V?$_Vector_val@V?$basic_string@DU?$char_traits@D@std@@V?$allocator@D@2@@std@@V?$allocator@V?$basic_string@DU?$char_traits@D@std@@V?$allocator@D@2@@std@@@2@@std@@@2@V?$_Vector_const_iterator@V?$_Vector_val@V?$basic_string@DU?$char_traits@D@std@@V?$allocator@D@2@@std@@V?$allocator@V?$basic_string@DU?$char_traits@D@std@@V?$allocator@D@2@@std@@@2@@std@@@2@0@Z ; std::vector<std::basic_string<char,std::char_traits<char>,std::allocator<char> >,std::allocator<std::basic_string<char,std::char_traits<char>,std::allocator<char> > > >::erase

; 85   : 	m_szNameList = ioStringConverter::Split( szName.c_str(), "#" );

  00031	6a 0f		 push	 15			; 0000000fH
  00033	5f		 pop	 edi
  00034	6a 01		 push	 1
  00036	33 db		 xor	 ebx, ebx
  00038	68 00 00 00 00	 push	 OFFSET ??_C@_01IPJKGB@?$CD?$AA@
  0003d	8d 4d b8	 lea	 ecx, DWORD PTR $T505648[ebp]
  00040	89 7d cc	 mov	 DWORD PTR $T505648[ebp+20], edi
  00043	89 5d c8	 mov	 DWORD PTR $T505648[ebp+16], ebx
  00046	88 5d b8	 mov	 BYTE PTR $T505648[ebp], bl
  00049	e8 00 00 00 00	 call	 ?assign@?$basic_string@DU?$char_traits@D@std@@V?$allocator@D@2@@std@@QAEAAV12@PBDI@Z ; std::basic_string<char,std::char_traits<char>,std::allocator<char> >::assign
  0004e	8b 4d b4	 mov	 ecx, DWORD PTR _szName$GSCopy$[ebp]
  00051	89 5d fc	 mov	 DWORD PTR __$EHRec$[ebp+8], ebx
  00054	ff 15 00 00 00
	00		 call	 DWORD PTR __imp_?c_str@ioHashString@@QBEPBDXZ
  0005a	50		 push	 eax
  0005b	8d 4d d4	 lea	 ecx, DWORD PTR $T505649[ebp]
  0005e	89 7d e8	 mov	 DWORD PTR $T505649[ebp+20], edi
  00061	89 5d e4	 mov	 DWORD PTR $T505649[ebp+16], ebx
  00064	88 5d d4	 mov	 BYTE PTR $T505649[ebp], bl
  00067	e8 00 00 00 00	 call	 ?assign@?$basic_string@DU?$char_traits@D@std@@V?$allocator@D@2@@std@@QAEAAV12@PBD@Z ; std::basic_string<char,std::char_traits<char>,std::allocator<char> >::assign
  0006c	53		 push	 ebx
  0006d	8d 45 b8	 lea	 eax, DWORD PTR $T505648[ebp]
  00070	50		 push	 eax
  00071	8d 45 d4	 lea	 eax, DWORD PTR $T505649[ebp]
  00074	50		 push	 eax
  00075	c6 45 fc 01	 mov	 BYTE PTR __$EHRec$[ebp+8], 1
  00079	ff 15 00 00 00
	00		 call	 DWORD PTR __imp_?Split@ioStringConverter@@SAABV?$vector@V?$basic_string@DU?$char_traits@D@std@@V?$allocator@D@2@@std@@V?$allocator@V?$basic_string@DU?$char_traits@D@std@@V?$allocator@D@2@@std@@@2@@std@@ABV?$basic_string@DU?$char_traits@D@std@@V?$allocator@D@2@@3@0H@Z
  0007f	83 c4 0c	 add	 esp, 12			; 0000000cH
  00082	50		 push	 eax
  00083	8d 8e 6c 02 00
	00		 lea	 ecx, DWORD PTR [esi+620]
  00089	e8 00 00 00 00	 call	 ??4?$vector@V?$basic_string@DU?$char_traits@D@std@@V?$allocator@D@2@@std@@V?$allocator@V?$basic_string@DU?$char_traits@D@std@@V?$allocator@D@2@@std@@@2@@std@@QAEAAV01@ABV01@@Z ; std::vector<std::basic_string<char,std::char_traits<char>,std::allocator<char> >,std::allocator<std::basic_string<char,std::char_traits<char>,std::allocator<char> > > >::operator=
  0008e	53		 push	 ebx
  0008f	6a 01		 push	 1
  00091	8d 4d d4	 lea	 ecx, DWORD PTR $T505649[ebp]
  00094	e8 00 00 00 00	 call	 ?_Tidy@?$basic_string@DU?$char_traits@D@std@@V?$allocator@D@2@@std@@QAEX_NI@Z ; std::basic_string<char,std::char_traits<char>,std::allocator<char> >::_Tidy
  00099	53		 push	 ebx
  0009a	6a 01		 push	 1
  0009c	8d 4d b8	 lea	 ecx, DWORD PTR $T505648[ebp]
  0009f	e8 00 00 00 00	 call	 ?_Tidy@?$basic_string@DU?$char_traits@D@std@@V?$allocator@D@2@@std@@QAEX_NI@Z ; std::basic_string<char,std::char_traits<char>,std::allocator<char> >::_Tidy

; 86   : }

  000a4	e8 00 00 00 00	 call	 __EH_epilog3_GS
  000a9	c2 04 00	 ret	 4
_TEXT	ENDS
;	COMDAT text$x
text$x	SEGMENT
__unwindfunclet$?SplitDescription@ItemListIconBtn@@IAEXABVioHashString@@@Z$0:
  00000	8d 4d b8	 lea	 ecx, DWORD PTR $T505648[ebp]
  00003	e9 00 00 00 00	 jmp	 ??1?$basic_string@DU?$char_traits@D@std@@V?$allocator@D@2@@std@@QAE@XZ ; std::basic_string<char,std::char_traits<char>,std::allocator<char> >::~basic_string<char,std::char_traits<char>,std::allocator<char> >
__unwindfunclet$?SplitDescription@ItemListIconBtn@@IAEXABVioHashString@@@Z$1:
  00008	8d 4d d4	 lea	 ecx, DWORD PTR $T505649[ebp]
  0000b	e9 00 00 00 00	 jmp	 ??1?$basic_string@DU?$char_traits@D@std@@V?$allocator@D@2@@std@@QAE@XZ ; std::basic_string<char,std::char_traits<char>,std::allocator<char> >::~basic_string<char,std::char_traits<char>,std::allocator<char> >
__ehhandler$?SplitDescription@ItemListIconBtn@@IAEXABVioHashString@@@Z:
  00010	8b 54 24 08	 mov	 edx, DWORD PTR [esp+8]
  00014	8d 42 0c	 lea	 eax, DWORD PTR [edx+12]
  00017	8b 4a ac	 mov	 ecx, DWORD PTR [edx-84]
  0001a	33 c8		 xor	 ecx, eax
  0001c	e8 00 00 00 00	 call	 @__security_check_cookie@4
  00021	8b 4a fc	 mov	 ecx, DWORD PTR [edx-4]
  00024	33 c8		 xor	 ecx, eax
  00026	e8 00 00 00 00	 call	 @__security_check_cookie@4
  0002b	b8 00 00 00 00	 mov	 eax, OFFSET __ehfuncinfo$?SplitDescription@ItemListIconBtn@@IAEXABVioHashString@@@Z
  00030	e9 00 00 00 00	 jmp	 ___CxxFrameHandler3
text$x	ENDS
?SplitDescription@ItemListIconBtn@@IAEXABVioHashString@@@Z ENDP ; ItemListIconBtn::SplitDescription
PUBLIC	?SetName@ItemListIconBtn@@QAEXABVioHashString@@@Z ; ItemListIconBtn::SetName
; Function compile flags: /Ogsp
;	COMDAT ?SetName@ItemListIconBtn@@QAEXABVioHashString@@@Z
_TEXT	SEGMENT
_rName$ = 8						; size = 4
?SetName@ItemListIconBtn@@QAEXABVioHashString@@@Z PROC	; ItemListIconBtn::SetName, COMDAT
; _this$ = ecx

; 78   : {

  00000	55		 push	 ebp
  00001	8b ec		 mov	 ebp, esp

; 80   : }

  00003	5d		 pop	 ebp

; 79   : 	SplitDescription( rName );

  00004	e9 00 00 00 00	 jmp	 ?SplitDescription@ItemListIconBtn@@IAEXABVioHashString@@@Z ; ItemListIconBtn::SplitDescription
?SetName@ItemListIconBtn@@QAEXABVioHashString@@@Z ENDP	; ItemListIconBtn::SetName
_TEXT	ENDS
PUBLIC	??_C@_01JOAMLHOP@?9?$AA@			; `string'
PUBLIC	??_C@_0CC@MGGMPHFL@ioExtraItemListWnd?3?3UpdateIconBt@ ; `string'
PUBLIC	?UpdateIconBtn@ioExtraItemListWnd@@IAEXXZ	; ioExtraItemListWnd::UpdateIconBtn
EXTRN	?ConvertCTime@DateHelp@@YAXKAAVCTime@ATL@@@Z:PROC ; DateHelp::ConvertCTime
EXTRN	?GetCurrTime@DateHelp@@YAABVCTime@ATL@@XZ:PROC	; DateHelp::GetCurrTime
EXTRN	?SetIcon@NewShopIconBtn@@QAE_NPAVioUIRenderImage@@@Z:PROC ; NewShopIconBtn::SetIcon
EXTRN	__imp_?CreateImageByFullName@ioUIImageSetManager@@QAEPAVioUIRenderImage@@ABVioHashString@@_N@Z:PROC
EXTRN	__imp_?GetSingleton@ioUIImageSetManager@@SAAAV1@XZ:PROC
EXTRN	__imp_?IsEmpty@ioHashString@@QBE_NXZ:PROC
EXTRN	?GetItemConst@ioItemMaker@@QBEPBVioItem@@KABVioHashString@@@Z:PROC ; ioItemMaker::GetItemConst
EXTRN	?GetSingleton@ioItemMaker@@SAAAV1@XZ:PROC	; ioItemMaker::GetSingleton
EXTRN	__imp_??0ioHashString@@QAE@PBD@Z:PROC
EXTRN	__imp_?FindChildWnd@ioWnd@@QAEPAV1@K@Z:PROC
EXTRN	___RTDynamicCast:PROC
;	COMDAT ??_C@_01JOAMLHOP@?9?$AA@
CONST	SEGMENT
??_C@_01JOAMLHOP@?9?$AA@ DB '-', 00H			; `string'
CONST	ENDS
;	COMDAT ??_C@_0CC@MGGMPHFL@ioExtraItemListWnd?3?3UpdateIconBt@
CONST	SEGMENT
??_C@_0CC@MGGMPHFL@ioExtraItemListWnd?3?3UpdateIconBt@ DB 'ioExtraItemLis'
	DB	'tWnd::UpdateIconBtn', 00H			; `string'
CONST	ENDS
;	COMDAT xdata$x
xdata$x	SEGMENT
__unwindtable$?UpdateIconBtn@ioExtraItemListWnd@@IAEXXZ DD 0ffffffffH
	DD	FLAT:__unwindfunclet$?UpdateIconBtn@ioExtraItemListWnd@@IAEXXZ$0
	DD	0ffffffffH
	DD	FLAT:__unwindfunclet$?UpdateIconBtn@ioExtraItemListWnd@@IAEXXZ$1
__ehfuncinfo$?UpdateIconBtn@ioExtraItemListWnd@@IAEXXZ DD 019930522H
	DD	02H
	DD	FLAT:__unwindtable$?UpdateIconBtn@ioExtraItemListWnd@@IAEXXZ
	DD	2 DUP(00H)
	DD	2 DUP(00H)
	DD	00H
	DD	01H
; Function compile flags: /Ogsp
xdata$x	ENDS
;	COMDAT ?UpdateIconBtn@ioExtraItemListWnd@@IAEXXZ
_TEXT	SEGMENT
_kInfo$506008 = -100					; size = 20
_sName$506024 = -80					; size = 16
$T512119 = -64						; size = 16
_kCurrTime$506020 = -48					; size = 8
_kLimitTime$506019 = -40				; size = 8
_this$ = -32						; size = 4
tv220 = -28						; size = 4
tv349 = -24						; size = 4
tv362 = -20						; size = 4
tv369 = -16						; size = 4
__$EHRec$ = -12						; size = 12
?UpdateIconBtn@ioExtraItemListWnd@@IAEXXZ PROC		; ioExtraItemListWnd::UpdateIconBtn, COMDAT
; _this$ = ecx

; 184  : {

  00000	6a 58		 push	 88			; 00000058H
  00002	b8 00 00 00 00	 mov	 eax, __ehhandler$?UpdateIconBtn@ioExtraItemListWnd@@IAEXXZ
  00007	e8 00 00 00 00	 call	 __EH_prolog3
  0000c	8b f9		 mov	 edi, ecx
  0000e	89 7d e0	 mov	 DWORD PTR _this$[ebp], edi

; 185  : 	int iStartArray = m_iCurPage * ICON_BTN_MAX;

  00011	8b b7 64 01 00
	00		 mov	 esi, DWORD PTR [edi+356]
  00017	6b f6 0c	 imul	 esi, 12			; 0000000cH
  0001a	8b c6		 mov	 eax, esi
  0001c	6b c0 14	 imul	 eax, 20			; 00000014H

; 186  : 
; 187  : 	for( int i=0; i < ICON_BTN_MAX; ++i )

  0001f	c7 45 f0 64 00
	00 00		 mov	 DWORD PTR tv369[ebp], 100 ; 00000064H
  00026	29 75 f0	 sub	 DWORD PTR tv369[ebp], esi
  00029	89 75 e8	 mov	 DWORD PTR tv349[ebp], esi
  0002c	89 45 ec	 mov	 DWORD PTR tv362[ebp], eax
  0002f	c7 45 e4 0c 00
	00 00		 mov	 DWORD PTR tv220[ebp], 12 ; 0000000cH
  00036	eb 03		 jmp	 SHORT $LN10@UpdateIcon
$LL55@UpdateIcon:

; 185  : 	int iStartArray = m_iCurPage * ICON_BTN_MAX;

  00038	8b 7d e0	 mov	 edi, DWORD PTR _this$[ebp]
$LN10@UpdateIcon:

; 188  : 	{
; 189  : 		ItemListIconBtn *pBtn = dynamic_cast< ItemListIconBtn* >(FindChildWnd(ID_ICON_BTN1+i));

  0003b	8b 45 f0	 mov	 eax, DWORD PTR tv369[ebp]
  0003e	6a 00		 push	 0
  00040	68 00 00 00 00	 push	 OFFSET ??_R0?AVItemListIconBtn@@@8
  00045	68 00 00 00 00	 push	 OFFSET ??_R0?AVioWnd@@@8
  0004a	6a 00		 push	 0
  0004c	03 c6		 add	 eax, esi
  0004e	50		 push	 eax
  0004f	8b cf		 mov	 ecx, edi
  00051	ff 15 00 00 00
	00		 call	 DWORD PTR __imp_?FindChildWnd@ioWnd@@QAEPAV1@K@Z
  00057	50		 push	 eax
  00058	e8 00 00 00 00	 call	 ___RTDynamicCast
  0005d	8b d8		 mov	 ebx, eax

; 190  : 		if( !pBtn ) continue;

  0005f	33 c0		 xor	 eax, eax
  00061	83 c4 14	 add	 esp, 20			; 00000014H
  00064	3b d8		 cmp	 ebx, eax
  00066	0f 84 54 01 00
	00		 je	 $LN9@UpdateIcon

; 191  : 
; 192  : 		ItemListInfoSort kInfo;

  0006c	89 45 9c	 mov	 DWORD PTR _kInfo$506008[ebp], eax
  0006f	89 45 a0	 mov	 DWORD PTR _kInfo$506008[ebp+4], eax
  00072	89 45 a8	 mov	 DWORD PTR _kInfo$506008[ebp+12], eax

; 193  : 
; 194  : 		int iCurArray = iStartArray + i;
; 195  : 		if( COMPARE( iCurArray, 0, (int)m_vCurList.size() ) )

  00075	3b f0		 cmp	 esi, eax
  00077	7c 31		 jl	 SHORT $LN6@UpdateIcon
  00079	8b 8f 80 01 00
	00		 mov	 ecx, DWORD PTR [edi+384]
  0007f	8b 87 84 01 00
	00		 mov	 eax, DWORD PTR [edi+388]
  00085	2b c1		 sub	 eax, ecx
  00087	6a 14		 push	 20			; 00000014H
  00089	99		 cdq
  0008a	5f		 pop	 edi
  0008b	f7 ff		 idiv	 edi
  0008d	3b f0		 cmp	 esi, eax
  0008f	7d 19		 jge	 SHORT $LN6@UpdateIcon

; 196  : 		{
; 197  : 			kInfo = m_vCurList[iCurArray];

  00091	8b 75 ec	 mov	 esi, DWORD PTR tv362[ebp]

; 198  : 			pBtn->SetActive();

  00094	8b 03		 mov	 eax, DWORD PTR [ebx]
  00096	03 f1		 add	 esi, ecx
  00098	6a 05		 push	 5
  0009a	59		 pop	 ecx
  0009b	8d 7d 9c	 lea	 edi, DWORD PTR _kInfo$506008[ebp]
  0009e	f3 a5		 rep movsd
  000a0	8b cb		 mov	 ecx, ebx
  000a2	ff 50 20	 call	 DWORD PTR [eax+32]

; 199  : 		}
; 200  : 		else

  000a5	8b 75 e8	 mov	 esi, DWORD PTR tv349[ebp]
  000a8	eb 07		 jmp	 SHORT $LN5@UpdateIcon
$LN6@UpdateIcon:

; 201  : 		{
; 202  : 			pBtn->SetInActive();

  000aa	8b 03		 mov	 eax, DWORD PTR [ebx]
  000ac	8b cb		 mov	 ecx, ebx
  000ae	ff 50 24	 call	 DWORD PTR [eax+36]
$LN5@UpdateIcon:

; 203  : 		}
; 204  : 
; 205  : 		const ioItem *pItem = g_ItemMaker.GetItemConst( kInfo.m_iItemCode, __FUNCTION__ );

  000b1	68 00 00 00 00	 push	 OFFSET ??_C@_0CC@MGGMPHFL@ioExtraItemListWnd?3?3UpdateIconBt@
  000b6	8d 4d c0	 lea	 ecx, DWORD PTR $T512119[ebp]
  000b9	ff 15 00 00 00
	00		 call	 DWORD PTR __imp_??0ioHashString@@QAE@PBD@Z
  000bf	83 65 fc 00	 and	 DWORD PTR __$EHRec$[ebp+8], 0
  000c3	8d 45 c0	 lea	 eax, DWORD PTR $T512119[ebp]
  000c6	50		 push	 eax
  000c7	ff 75 9c	 push	 DWORD PTR _kInfo$506008[ebp]
  000ca	e8 00 00 00 00	 call	 ?GetSingleton@ioItemMaker@@SAAAV1@XZ ; ioItemMaker::GetSingleton
  000cf	8b c8		 mov	 ecx, eax
  000d1	e8 00 00 00 00	 call	 ?GetItemConst@ioItemMaker@@QBEPBVioItem@@KABVioHashString@@@Z ; ioItemMaker::GetItemConst
  000d6	83 4d fc ff	 or	 DWORD PTR __$EHRec$[ebp+8], -1
  000da	8d 4d c0	 lea	 ecx, DWORD PTR $T512119[ebp]
  000dd	8b f8		 mov	 edi, eax
  000df	ff 15 00 00 00
	00		 call	 DWORD PTR __imp_??1ioHashString@@QAE@XZ

; 206  : 		if( pItem )

  000e5	85 ff		 test	 edi, edi
  000e7	0f 84 a6 00 00
	00		 je	 $LN4@UpdateIcon

; 207  : 		{
; 208  : 			pBtn->SetName( pItem->GetName() );

  000ed	8d 87 34 01 00
	00		 lea	 eax, DWORD PTR [edi+308]
  000f3	50		 push	 eax
  000f4	8b cb		 mov	 ecx, ebx
  000f6	e8 00 00 00 00	 call	 ?SplitDescription@ItemListIconBtn@@IAEXABVioHashString@@@Z ; ItemListIconBtn::SplitDescription

; 209  : 			pBtn->SetItemCode( kInfo.m_iItemCode );

  000fb	8b 45 9c	 mov	 eax, DWORD PTR _kInfo$506008[ebp]
  000fe	89 83 7c 02 00
	00		 mov	 DWORD PTR [ebx+636], eax

; 210  : 			pBtn->SetMarkType( kInfo.m_iShopMarkType );

  00104	8b 45 a0	 mov	 eax, DWORD PTR _kInfo$506008[ebp+4]

; 211  : 			if( !pItem->GetItemLargeIconName().IsEmpty() )

  00107	8d 8f 14 02 00
	00		 lea	 ecx, DWORD PTR [edi+532]
  0010d	89 83 4c 02 00
	00		 mov	 DWORD PTR [ebx+588], eax
  00113	ff 15 00 00 00
	00		 call	 DWORD PTR __imp_?IsEmpty@ioHashString@@QBE_NXZ
  00119	84 c0		 test	 al, al
  0011b	75 1f		 jne	 SHORT $LN3@UpdateIcon

; 212  : 				pBtn->SetIcon(  g_UIImageSetMgr.CreateImageByFullName( pItem->GetItemLargeIconName(), 0 ) );

  0011d	8d 87 14 02 00
	00		 lea	 eax, DWORD PTR [edi+532]
  00123	6a 00		 push	 0
  00125	50		 push	 eax
  00126	ff 15 00 00 00
	00		 call	 DWORD PTR __imp_?GetSingleton@ioUIImageSetManager@@SAAAV1@XZ
  0012c	8b c8		 mov	 ecx, eax
  0012e	ff 15 00 00 00
	00		 call	 DWORD PTR __imp_?CreateImageByFullName@ioUIImageSetManager@@QAEPAVioUIRenderImage@@ABVioHashString@@_N@Z
  00134	50		 push	 eax
  00135	8b cb		 mov	 ecx, ebx
  00137	e8 00 00 00 00	 call	 ?SetIcon@NewShopIconBtn@@QAE_NPAVioUIRenderImage@@@Z ; NewShopIconBtn::SetIcon
$LN3@UpdateIcon:

; 213  : 			pBtn->SetGradeType( pItem->GetGradeType() );
; 214  : 
; 215  : 			if( 0 < kInfo.m_iLimitDate )

  0013c	83 7d a8 00	 cmp	 DWORD PTR _kInfo$506008[ebp+12], 0
  00140	8b 87 20 06 00
	00		 mov	 eax, DWORD PTR [edi+1568]
  00146	89 83 68 02 00
	00		 mov	 DWORD PTR [ebx+616], eax
  0014c	7e 72		 jle	 SHORT $LN9@UpdateIcon

; 216  : 			{
; 217  : 				CTime kLimitTime;

  0014e	66 0f 57 c0	 xorpd	 xmm0, xmm0
  00152	66 0f 13 45 d8	 movlpd	 QWORD PTR _kLimitTime$506019[ebp], xmm0

; 218  : 				CTime kCurrTime = DateHelp::GetCurrTime();

  00157	e8 00 00 00 00	 call	 ?GetCurrTime@DateHelp@@YAABVCTime@ATL@@XZ ; DateHelp::GetCurrTime
  0015c	8b 38		 mov	 edi, DWORD PTR [eax]
  0015e	8b 40 04	 mov	 eax, DWORD PTR [eax+4]
  00161	89 45 d4	 mov	 DWORD PTR _kCurrTime$506020[ebp+4], eax

; 219  : 				DateHelp::ConvertCTime( kInfo.m_iLimitDate, kLimitTime );

  00164	8d 45 d8	 lea	 eax, DWORD PTR _kLimitTime$506019[ebp]
  00167	50		 push	 eax
  00168	ff 75 a8	 push	 DWORD PTR _kInfo$506008[ebp+12]
  0016b	e8 00 00 00 00	 call	 ?ConvertCTime@DateHelp@@YAXKAAVCTime@ATL@@@Z ; DateHelp::ConvertCTime

; 220  : 				CTimeSpan TimeGap = kLimitTime - kCurrTime;

  00170	8b 45 d8	 mov	 eax, DWORD PTR _kLimitTime$506019[ebp]
  00173	59		 pop	 ecx
  00174	59		 pop	 ecx
  00175	8b 4d dc	 mov	 ecx, DWORD PTR _kLimitTime$506019[ebp+4]
  00178	2b c7		 sub	 eax, edi
  0017a	1b 4d d4	 sbb	 ecx, DWORD PTR _kCurrTime$506020[ebp+4]

; 221  : 				pBtn->SetLimitDay( TimeGap.GetDays() );

  0017d	6a 00		 push	 0
  0017f	68 80 51 01 00	 push	 86400			; 00015180H
  00184	51		 push	 ecx
  00185	50		 push	 eax
  00186	e8 00 00 00 00	 call	 __alldiv
  0018b	89 83 50 02 00
	00		 mov	 DWORD PTR [ebx+592], eax

; 222  : 			}
; 223  : 		}
; 224  : 		else

  00191	eb 2d		 jmp	 SHORT $LN9@UpdateIcon
$LN4@UpdateIcon:

; 225  : 		{
; 226  : 			ioHashString sName = "-";

  00193	68 00 00 00 00	 push	 OFFSET ??_C@_01JOAMLHOP@?9?$AA@
  00198	8d 4d b0	 lea	 ecx, DWORD PTR _sName$506024[ebp]
  0019b	ff 15 00 00 00
	00		 call	 DWORD PTR __imp_??0ioHashString@@QAE@PBD@Z

; 227  : 			pBtn->SetName( sName );

  001a1	8d 45 b0	 lea	 eax, DWORD PTR _sName$506024[ebp]
  001a4	50		 push	 eax
  001a5	8b cb		 mov	 ecx, ebx
  001a7	c7 45 fc 01 00
	00 00		 mov	 DWORD PTR __$EHRec$[ebp+8], 1
  001ae	e8 00 00 00 00	 call	 ?SplitDescription@ItemListIconBtn@@IAEXABVioHashString@@@Z ; ItemListIconBtn::SplitDescription

; 228  : 		}

  001b3	83 4d fc ff	 or	 DWORD PTR __$EHRec$[ebp+8], -1
  001b7	8d 4d b0	 lea	 ecx, DWORD PTR _sName$506024[ebp]
  001ba	ff 15 00 00 00
	00		 call	 DWORD PTR __imp_??1ioHashString@@QAE@XZ
$LN9@UpdateIcon:

; 186  : 
; 187  : 	for( int i=0; i < ICON_BTN_MAX; ++i )

  001c0	83 45 ec 14	 add	 DWORD PTR tv362[ebp], 20 ; 00000014H
  001c4	46		 inc	 esi
  001c5	ff 4d e4	 dec	 DWORD PTR tv220[ebp]
  001c8	89 75 e8	 mov	 DWORD PTR tv349[ebp], esi
  001cb	0f 85 67 fe ff
	ff		 jne	 $LL55@UpdateIcon

; 229  : 	}
; 230  : }

  001d1	e8 00 00 00 00	 call	 __EH_epilog3
  001d6	c3		 ret	 0
_TEXT	ENDS
;	COMDAT text$x
text$x	SEGMENT
__unwindfunclet$?UpdateIconBtn@ioExtraItemListWnd@@IAEXXZ$0:
  00000	8d 4d c0	 lea	 ecx, DWORD PTR $T512119[ebp]
  00003	ff 25 00 00 00
	00		 jmp	 DWORD PTR __imp_??1ioHashString@@QAE@XZ
__unwindfunclet$?UpdateIconBtn@ioExtraItemListWnd@@IAEXXZ$1:
  00009	8d 4d b0	 lea	 ecx, DWORD PTR _sName$506024[ebp]
  0000c	ff 25 00 00 00
	00		 jmp	 DWORD PTR __imp_??1ioHashString@@QAE@XZ
__ehhandler$?UpdateIconBtn@ioExtraItemListWnd@@IAEXXZ:
  00012	8b 54 24 08	 mov	 edx, DWORD PTR [esp+8]
  00016	8d 42 0c	 lea	 eax, DWORD PTR [edx+12]
  00019	8b 4a 98	 mov	 ecx, DWORD PTR [edx-104]
  0001c	33 c8		 xor	 ecx, eax
  0001e	e8 00 00 00 00	 call	 @__security_check_cookie@4
  00023	b8 00 00 00 00	 mov	 eax, OFFSET __ehfuncinfo$?UpdateIconBtn@ioExtraItemListWnd@@IAEXXZ
  00028	e9 00 00 00 00	 jmp	 ___CxxFrameHandler3
text$x	ENDS
?UpdateIconBtn@ioExtraItemListWnd@@IAEXXZ ENDP		; ioExtraItemListWnd::UpdateIconBtn
PUBLIC	__$ArrayPad$
PUBLIC	?UpdatePage@ioExtraItemListWnd@@IAEXH@Z		; ioExtraItemListWnd::UpdatePage
EXTRN	__imp_?SetChildInActive@ioWnd@@QAEXK@Z:PROC
EXTRN	__imp_?SetChildActive@ioWnd@@QAEXK@Z:PROC
EXTRN	__imp_??4ioHashString@@QAEAAV0@PBD@Z:PROC
EXTRN	__imp__wsprintfA:PROC
EXTRN	___security_cookie:DWORD
EXTRN	_memset:PROC
; Function compile flags: /Ogsp
;	COMDAT ?UpdatePage@ioExtraItemListWnd@@IAEXH@Z
_TEXT	SEGMENT
_szBuf$ = -276						; size = 260
___encStr$505844 = -16					; size = 6
__$ArrayPad$ = -4					; size = 4
_iPage$ = 8						; size = 4
?UpdatePage@ioExtraItemListWnd@@IAEXH@Z PROC		; ioExtraItemListWnd::UpdatePage, COMDAT
; _this$ = ecx

; 164  : {

  00000	55		 push	 ebp
  00001	8b ec		 mov	 ebp, esp
  00003	81 ec 14 01 00
	00		 sub	 esp, 276		; 00000114H
  00009	a1 00 00 00 00	 mov	 eax, DWORD PTR ___security_cookie
  0000e	33 c5		 xor	 eax, ebp
  00010	89 45 fc	 mov	 DWORD PTR __$ArrayPad$[ebp], eax
  00013	56		 push	 esi
  00014	57		 push	 edi

; 165  : 	m_iCurPage = iPage;

  00015	8b 7d 08	 mov	 edi, DWORD PTR _iPage$[ebp]

; 166  : 
; 167  : 	char szBuf[MAX_PATH] = "";

  00018	68 03 01 00 00	 push	 259			; 00000103H
  0001d	8d 85 ed fe ff
	ff		 lea	 eax, DWORD PTR _szBuf$[ebp+1]
  00023	8b f1		 mov	 esi, ecx
  00025	6a 00		 push	 0
  00027	50		 push	 eax
  00028	89 be 64 01 00
	00		 mov	 DWORD PTR [esi+356], edi
  0002e	c6 85 ec fe ff
	ff 00		 mov	 BYTE PTR _szBuf$[ebp], 0
  00035	e8 00 00 00 00	 call	 _memset

; 168  : 	wsprintf_e( szBuf, "%d/%d", m_iCurPage+1, m_iMaxPage );

  0003a	ff b6 60 01 00
	00		 push	 DWORD PTR [esi+352]
  00040	c7 45 f0 c8 88
	c4 cf		 mov	 DWORD PTR ___encStr$505844[ebp], -809203512 ; cfc488c8H
  00047	81 75 f0 ed ec
	eb ea		 xor	 DWORD PTR ___encStr$505844[ebp], -353637139 ; eaebecedH
  0004e	47		 inc	 edi
  0004f	57		 push	 edi
  00050	8d 45 f0	 lea	 eax, DWORD PTR ___encStr$505844[ebp]
  00053	50		 push	 eax
  00054	8d 85 ec fe ff
	ff		 lea	 eax, DWORD PTR _szBuf$[ebp]
  0005a	50		 push	 eax
  0005b	66 c7 45 f4 64
	00		 mov	 WORD PTR ___encStr$505844[ebp+4], 100 ; 00000064H
  00061	ff 15 00 00 00
	00		 call	 DWORD PTR __imp__wsprintfA
  00067	83 c4 1c	 add	 esp, 28			; 0000001cH

; 169  : 	m_szPageText = szBuf;

  0006a	8d 85 ec fe ff
	ff		 lea	 eax, DWORD PTR _szBuf$[ebp]
  00070	50		 push	 eax
  00071	8d 8e 70 01 00
	00		 lea	 ecx, DWORD PTR [esi+368]
  00077	ff 15 00 00 00
	00		 call	 DWORD PTR __imp_??4ioHashString@@QAEAAV0@PBD@Z

; 170  : 
; 171  : 	SetChildActive( ID_PRE_BTN );

  0007d	8b 3d 00 00 00
	00		 mov	 edi, DWORD PTR __imp_?SetChildActive@ioWnd@@QAEXK@Z
  00083	6a 01		 push	 1
  00085	8b ce		 mov	 ecx, esi
  00087	ff d7		 call	 edi

; 172  : 	SetChildActive( ID_NEXT_BTN );

  00089	6a 02		 push	 2
  0008b	8b ce		 mov	 ecx, esi
  0008d	ff d7		 call	 edi

; 173  : 
; 174  : 	if( m_iCurPage == 0 )

  0008f	83 be 64 01 00
	00 00		 cmp	 DWORD PTR [esi+356], 0
  00096	8b 3d 00 00 00
	00		 mov	 edi, DWORD PTR __imp_?SetChildInActive@ioWnd@@QAEXK@Z
  0009c	75 06		 jne	 SHORT $LN2@UpdatePage

; 175  : 		SetChildInActive( ID_PRE_BTN );

  0009e	6a 01		 push	 1
  000a0	8b ce		 mov	 ecx, esi
  000a2	ff d7		 call	 edi
$LN2@UpdatePage:

; 176  : 	
; 177  : 	if( m_iCurPage == m_iMaxPage-1 )

  000a4	8b 86 60 01 00
	00		 mov	 eax, DWORD PTR [esi+352]
  000aa	48		 dec	 eax
  000ab	39 86 64 01 00
	00		 cmp	 DWORD PTR [esi+356], eax
  000b1	75 06		 jne	 SHORT $LN1@UpdatePage

; 178  : 		SetChildInActive( ID_NEXT_BTN );

  000b3	6a 02		 push	 2
  000b5	8b ce		 mov	 ecx, esi
  000b7	ff d7		 call	 edi
$LN1@UpdatePage:

; 179  : 
; 180  : 	UpdateIconBtn();

  000b9	8b ce		 mov	 ecx, esi
  000bb	e8 00 00 00 00	 call	 ?UpdateIconBtn@ioExtraItemListWnd@@IAEXXZ ; ioExtraItemListWnd::UpdateIconBtn

; 181  : }

  000c0	8b 4d fc	 mov	 ecx, DWORD PTR __$ArrayPad$[ebp]
  000c3	5f		 pop	 edi
  000c4	33 cd		 xor	 ecx, ebp
  000c6	5e		 pop	 esi
  000c7	e8 00 00 00 00	 call	 @__security_check_cookie@4
  000cc	c9		 leave
  000cd	c2 04 00	 ret	 4
?UpdatePage@ioExtraItemListWnd@@IAEXH@Z ENDP		; ioExtraItemListWnd::UpdatePage
_TEXT	ENDS
PUBLIC	?ChangeSubBtn@ioExtraItemListWnd@@IAEXK@Z	; ioExtraItemListWnd::ChangeSubBtn
EXTRN	?GetRandomItemList@ioExtraItemInfoManager@@QAE_NHAAV?$vector@UItemListInfoSort@@V?$allocator@UItemListInfoSort@@@std@@@std@@_N@Z:PROC ; ioExtraItemInfoManager::GetRandomItemList
EXTRN	?GetSingleton@ioExtraItemInfoManager@@SAAAV1@XZ:PROC ; ioExtraItemInfoManager::GetSingleton
EXTRN	__imp_?CheckRadioButton@ioWnd@@QAEXKKK@Z:PROC
;	COMDAT xdata$x
; File c:\program files (x86)\microsoft visual studio 10.0\vc\include\vector
xdata$x	SEGMENT
__unwindtable$?ChangeSubBtn@ioExtraItemListWnd@@IAEXK@Z DD 0ffffffffH
	DD	FLAT:__unwindfunclet$?ChangeSubBtn@ioExtraItemListWnd@@IAEXK@Z$0
__ehfuncinfo$?ChangeSubBtn@ioExtraItemListWnd@@IAEXK@Z DD 019930522H
	DD	01H
	DD	FLAT:__unwindtable$?ChangeSubBtn@ioExtraItemListWnd@@IAEXK@Z
	DD	2 DUP(00H)
	DD	2 DUP(00H)
	DD	00H
	DD	01H
; Function compile flags: /Ogsp
; File d:\lost saga for developer\youtube\tutorial\source\src\lsclient\gui\ioextraitemlistwnd.cpp
xdata$x	ENDS
;	COMDAT ?ChangeSubBtn@ioExtraItemListWnd@@IAEXK@Z
_TEXT	SEGMENT
_kInfo$505819 = -56					; size = 20
_vTotalList$ = -36					; size = 16
_this$ = -20						; size = 4
_iSlot$ = -16						; size = 4
__$EHRec$ = -12						; size = 12
$T512218 = 8						; size = 1
$T512307 = 8						; size = 4
_iter$ = 8						; size = 4
_dwSubBtn$ = 8						; size = 4
?ChangeSubBtn@ioExtraItemListWnd@@IAEXK@Z PROC		; ioExtraItemListWnd::ChangeSubBtn, COMDAT
; _this$ = ecx

; 113  : {

  00000	6a 2c		 push	 44			; 0000002cH
  00002	b8 00 00 00 00	 mov	 eax, __ehhandler$?ChangeSubBtn@ioExtraItemListWnd@@IAEXK@Z
  00007	e8 00 00 00 00	 call	 __EH_prolog3
  0000c	8b f1		 mov	 esi, ecx
  0000e	89 75 ec	 mov	 DWORD PTR _this$[ebp], esi

; 114  : 	m_dwCurSubBtn = dwSubBtn;

  00011	8b 45 08	 mov	 eax, DWORD PTR _dwSubBtn$[ebp]

; 115  : 	CheckRadioButton( ID_ALL_BTN, ID_CLOAK_BTN, m_dwCurSubBtn );

  00014	50		 push	 eax
  00015	6a 0e		 push	 14			; 0000000eH
  00017	6a 0a		 push	 10			; 0000000aH
  00019	89 86 6c 01 00
	00		 mov	 DWORD PTR [esi+364], eax
  0001f	ff 15 00 00 00
	00		 call	 DWORD PTR __imp_?CheckRadioButton@ioWnd@@QAEXKKK@Z

; 116  : 
; 117  : 	ItemListInfoSortVector vTotalList; //10. ,11., 12,13,14

  00025	33 c0		 xor	 eax, eax
  00027	89 45 dc	 mov	 DWORD PTR _vTotalList$[ebp], eax
  0002a	89 45 e0	 mov	 DWORD PTR _vTotalList$[ebp+4], eax
  0002d	89 45 e4	 mov	 DWORD PTR _vTotalList$[ebp+8], eax

; 118  : #ifdef SRC_TH
; 119  : 	g_ExtraItemInfoMgr.GetRandomItemList( m_iMachineCode, vTotalList, true );
; 120  : #else
; 121  : 	g_ExtraItemInfoMgr.GetRandomItemList( m_iMachineCode, vTotalList );

  00030	50		 push	 eax
  00031	89 45 fc	 mov	 DWORD PTR __$EHRec$[ebp+8], eax
  00034	8d 45 dc	 lea	 eax, DWORD PTR _vTotalList$[ebp]
  00037	50		 push	 eax
  00038	ff b6 68 01 00
	00		 push	 DWORD PTR [esi+360]
  0003e	e8 00 00 00 00	 call	 ?GetSingleton@ioExtraItemInfoManager@@SAAAV1@XZ ; ioExtraItemInfoManager::GetSingleton
  00043	8b c8		 mov	 ecx, eax
  00045	e8 00 00 00 00	 call	 ?GetRandomItemList@ioExtraItemInfoManager@@QAE_NHAAV?$vector@UItemListInfoSort@@V?$allocator@UItemListInfoSort@@@std@@@std@@_N@Z ; ioExtraItemInfoManager::GetRandomItemList

; 122  : #endif
; 123  : 
; 124  : 	m_vCurList.clear();

  0004a	8d 9e 80 01 00
	00		 lea	 ebx, DWORD PTR [esi+384]
  00050	8b 43 04	 mov	 eax, DWORD PTR [ebx+4]
  00053	8b 0b		 mov	 ecx, DWORD PTR [ebx]
  00055	50		 push	 eax
  00056	51		 push	 ecx
  00057	8d 45 08	 lea	 eax, DWORD PTR $T512307[ebp]
  0005a	50		 push	 eax
  0005b	8b cb		 mov	 ecx, ebx
  0005d	e8 00 00 00 00	 call	 ?erase@?$vector@UItemListInfoSort@@V?$allocator@UItemListInfoSort@@@std@@@std@@QAE?AV?$_Vector_iterator@V?$_Vector_val@UItemListInfoSort@@V?$allocator@UItemListInfoSort@@@std@@@std@@@2@V?$_Vector_const_iterator@V?$_Vector_val@UItemListInfoSort@@V?$allocator@UItemListInfoSort@@@std@@@std@@@2@0@Z ; std::vector<ItemListInfoSort,std::allocator<ItemListInfoSort> >::erase

; 125  : 	if( vTotalList.empty() )

  00062	8b 45 dc	 mov	 eax, DWORD PTR _vTotalList$[ebp]
  00065	3b 45 e0	 cmp	 eax, DWORD PTR _vTotalList$[ebp+4]

; 126  : 		return;

  00068	0f 84 91 00 00
	00		 je	 $LN107@ChangeSubB

; 127  : 
; 128  : 	int iSlot = m_dwCurSubBtn - ID_ALL_BTN - 1;

  0006e	8b b6 6c 01 00
	00		 mov	 esi, DWORD PTR [esi+364]
  00074	83 ee 0b	 sub	 esi, 11			; 0000000bH
  00077	89 75 f0	 mov	 DWORD PTR _iSlot$[ebp], esi

; 129  : 
; 130  : 	ItemListInfoSortVector::iterator iter = vTotalList.begin();

  0007a	89 45 08	 mov	 DWORD PTR _iter$[ebp], eax
$LN6@ChangeSubB:

; 131  : 	while( iter != vTotalList.end() )
; 132  : 	{
; 133  : 		ItemListInfoSort kInfo;
; 134  : 
; 135  : 		kInfo = (*iter);

  0007d	8b 75 08	 mov	 esi, DWORD PTR _iter$[ebp]
  00080	6a 05		 push	 5
  00082	59		 pop	 ecx
  00083	8d 7d c8	 lea	 edi, DWORD PTR _kInfo$505819[ebp]
  00086	f3 a5		 rep movsd

; 136  : 
; 137  : 		int iItemSlot = kInfo.m_iItemCode / DEFAULT_BASIC_ITEM_CODE;

  00088	8b 45 c8	 mov	 eax, DWORD PTR _kInfo$505819[ebp]
  0008b	99		 cdq
  0008c	b9 a0 86 01 00	 mov	 ecx, 100000		; 000186a0H
  00091	f7 f9		 idiv	 ecx

; 138  : 
; 139  : 		if( iSlot == -1 || iSlot == iItemSlot )

  00093	83 7d f0 ff	 cmp	 DWORD PTR _iSlot$[ebp], -1
  00097	74 05		 je	 SHORT $LN3@ChangeSubB
  00099	39 45 f0	 cmp	 DWORD PTR _iSlot$[ebp], eax
  0009c	75 0b		 jne	 SHORT $LN4@ChangeSubB
$LN3@ChangeSubB:

; 140  : 			m_vCurList.push_back( kInfo );

  0009e	8d 45 c8	 lea	 eax, DWORD PTR _kInfo$505819[ebp]
  000a1	50		 push	 eax
  000a2	8b cb		 mov	 ecx, ebx
  000a4	e8 00 00 00 00	 call	 ?push_back@?$vector@UItemListInfoSort@@V?$allocator@UItemListInfoSort@@@std@@@std@@QAEXABUItemListInfoSort@@@Z ; std::vector<ItemListInfoSort,std::allocator<ItemListInfoSort> >::push_back
$LN4@ChangeSubB:

; 141  : 
; 142  : 		++iter;

  000a9	83 45 08 14	 add	 DWORD PTR _iter$[ebp], 20 ; 00000014H
  000ad	8b 45 08	 mov	 eax, DWORD PTR _iter$[ebp]
  000b0	3b 45 e0	 cmp	 eax, DWORD PTR _vTotalList$[ebp+4]
  000b3	75 c8		 jne	 SHORT $LN6@ChangeSubB

; 143  : 	}
; 144  : 
; 145  : 	if( m_vCurList.empty() )

  000b5	8b 03		 mov	 eax, DWORD PTR [ebx]
  000b7	3b 43 04	 cmp	 eax, DWORD PTR [ebx+4]

; 146  : 		return;

  000ba	74 43		 je	 SHORT $LN107@ChangeSubB

; 147  : 
; 148  : #ifdef SRC_TH
; 149  : 	std::sort( m_vCurList.begin(), m_vCurList.end(), ShopExtraItemGradeSort() );
; 150  : #else
; 151  : 	std::sort( m_vCurList.begin(), m_vCurList.end(), ShopExtraItemSort());

  000bc	8b 75 ec	 mov	 esi, DWORD PTR _this$[ebp]
  000bf	ff 75 08	 push	 DWORD PTR $T512218[ebp]
  000c2	8b 86 84 01 00
	00		 mov	 eax, DWORD PTR [esi+388]
  000c8	8b 0b		 mov	 ecx, DWORD PTR [ebx]
  000ca	50		 push	 eax
  000cb	51		 push	 ecx
  000cc	e8 00 00 00 00	 call	 ??$sort@V?$_Vector_iterator@V?$_Vector_val@UItemListInfoSort@@V?$allocator@UItemListInfoSort@@@std@@@std@@@std@@VShopExtraItemSort@@@std@@YAXV?$_Vector_iterator@V?$_Vector_val@UItemListInfoSort@@V?$allocator@UItemListInfoSort@@@std@@@std@@@0@0VShopExtraItemSort@@@Z ; std::sort<std::_Vector_iterator<std::_Vector_val<ItemListInfoSort,std::allocator<ItemListInfoSort> > >,ShopExtraItemSort>

; 152  : #endif
; 153  : 
; 154  : 	int iTotalCnt = m_vCurList.size();

  000d1	8b 43 04	 mov	 eax, DWORD PTR [ebx+4]
  000d4	2b 03		 sub	 eax, DWORD PTR [ebx]
  000d6	83 c4 0c	 add	 esp, 12			; 0000000cH
  000d9	6a 14		 push	 20			; 00000014H
  000db	99		 cdq
  000dc	59		 pop	 ecx
  000dd	f7 f9		 idiv	 ecx

; 155  : 	m_iMaxPage = iTotalCnt / ICON_BTN_MAX;

  000df	6a 0c		 push	 12			; 0000000cH
  000e1	59		 pop	 ecx
  000e2	99		 cdq
  000e3	f7 f9		 idiv	 ecx
  000e5	89 86 60 01 00
	00		 mov	 DWORD PTR [esi+352], eax

; 156  : 
; 157  : 	if( iTotalCnt%ICON_BTN_MAX > 0 )

  000eb	85 d2		 test	 edx, edx
  000ed	7e 07		 jle	 SHORT $LN1@ChangeSubB

; 158  : 		m_iMaxPage += 1;

  000ef	40		 inc	 eax
  000f0	89 86 60 01 00
	00		 mov	 DWORD PTR [esi+352], eax
$LN1@ChangeSubB:

; 159  : 
; 160  : 	UpdatePage( 0 );

  000f6	6a 00		 push	 0
  000f8	8b ce		 mov	 ecx, esi
  000fa	e8 00 00 00 00	 call	 ?UpdatePage@ioExtraItemListWnd@@IAEXH@Z ; ioExtraItemListWnd::UpdatePage
$LN107@ChangeSubB:

; 161  : }

  000ff	83 4d fc ff	 or	 DWORD PTR __$EHRec$[ebp+8], -1
  00103	8d 4d dc	 lea	 ecx, DWORD PTR _vTotalList$[ebp]
  00106	e8 00 00 00 00	 call	 ?_Tidy@?$vector@UItemListInfoSort@@V?$allocator@UItemListInfoSort@@@std@@@std@@IAEXXZ ; std::vector<ItemListInfoSort,std::allocator<ItemListInfoSort> >::_Tidy
  0010b	e8 00 00 00 00	 call	 __EH_epilog3
  00110	c2 04 00	 ret	 4
_TEXT	ENDS
;	COMDAT text$x
text$x	SEGMENT
__unwindfunclet$?ChangeSubBtn@ioExtraItemListWnd@@IAEXK@Z$0:
  00000	8d 4d dc	 lea	 ecx, DWORD PTR _vTotalList$[ebp]
  00003	e9 00 00 00 00	 jmp	 ??1?$vector@UItemListInfoSort@@V?$allocator@UItemListInfoSort@@@std@@@std@@QAE@XZ ; std::vector<ItemListInfoSort,std::allocator<ItemListInfoSort> >::~vector<ItemListInfoSort,std::allocator<ItemListInfoSort> >
__ehhandler$?ChangeSubBtn@ioExtraItemListWnd@@IAEXK@Z:
  00008	8b 54 24 08	 mov	 edx, DWORD PTR [esp+8]
  0000c	8d 42 0c	 lea	 eax, DWORD PTR [edx+12]
  0000f	8b 4a c4	 mov	 ecx, DWORD PTR [edx-60]
  00012	33 c8		 xor	 ecx, eax
  00014	e8 00 00 00 00	 call	 @__security_check_cookie@4
  00019	b8 00 00 00 00	 mov	 eax, OFFSET __ehfuncinfo$?ChangeSubBtn@ioExtraItemListWnd@@IAEXK@Z
  0001e	e9 00 00 00 00	 jmp	 ___CxxFrameHandler3
text$x	ENDS
?ChangeSubBtn@ioExtraItemListWnd@@IAEXK@Z ENDP		; ioExtraItemListWnd::ChangeSubBtn
EXTRN	__imp_?HasWndStyle@ioWnd@@QBE_NK@Z:PROC
EXTRN	__imp_?HideWnd@ioWnd@@QAEXXZ:PROC
EXTRN	__imp_?GetID@ioWnd@@QBEKXZ:PROC
; Function compile flags: /Ogsp
;	COMDAT ?iwm_command@ioExtraItemListWnd@@UAEXPAVioWnd@@HK@Z
_TEXT	SEGMENT
_pWnd$ = 8						; size = 4
_cmd$ = 12						; size = 4
_param$ = 16						; size = 4
?iwm_command@ioExtraItemListWnd@@UAEXPAVioWnd@@HK@Z PROC ; ioExtraItemListWnd::iwm_command, COMDAT
; _this$ = ecx

; 296  : {

  00000	55		 push	 ebp
  00001	8b ec		 mov	 ebp, esp
  00003	56		 push	 esi
  00004	8b f1		 mov	 esi, ecx

; 297  : 	DWORD dwID = pWnd->GetID();

  00006	8b 4d 08	 mov	 ecx, DWORD PTR _pWnd$[ebp]
  00009	ff 15 00 00 00
	00		 call	 DWORD PTR __imp_?GetID@ioWnd@@QBEKXZ

; 298  : 
; 299  : 	switch( dwID )

  0000f	83 f8 01	 cmp	 eax, 1
  00012	74 52		 je	 SHORT $LN8@iwm_comman
  00014	83 f8 02	 cmp	 eax, 2
  00017	74 2f		 je	 SHORT $LN6@iwm_comman
  00019	83 f8 03	 cmp	 eax, 3
  0001c	74 1a		 je	 SHORT $LN2@iwm_comman
  0001e	83 f8 09	 cmp	 eax, 9
  00021	76 67		 jbe	 SHORT $LN7@iwm_comman
  00023	83 f8 0e	 cmp	 eax, 14			; 0000000eH
  00026	77 62		 ja	 SHORT $LN7@iwm_comman

; 315  : 	case ID_ALL_BTN:
; 316  : 	case ID_WEAPON_BTN:
; 317  : 	case ID_ARMOR_BTN:
; 318  : 	case ID_HELMET_BTN:
; 319  : 	case ID_CLOAK_BTN:
; 320  : 		if( cmd == IOBN_BTNDOWN )

  00028	83 7d 0c 10	 cmp	 DWORD PTR _cmd$[ebp], 16 ; 00000010H
  0002c	75 5c		 jne	 SHORT $LN7@iwm_comman

; 321  : 		{
; 322  : 			ChangeSubBtn( dwID );

  0002e	50		 push	 eax
  0002f	8b ce		 mov	 ecx, esi
  00031	e8 00 00 00 00	 call	 ?ChangeSubBtn@ioExtraItemListWnd@@IAEXK@Z ; ioExtraItemListWnd::ChangeSubBtn

; 323  : 		}
; 324  : 		break;

  00036	eb 52		 jmp	 SHORT $LN7@iwm_comman
$LN2@iwm_comman:

; 325  : 	case ID_X:
; 326  : 		if( cmd == IOBN_BTNUP )

  00038	83 7d 0c 11	 cmp	 DWORD PTR _cmd$[ebp], 17 ; 00000011H
  0003c	75 4c		 jne	 SHORT $LN7@iwm_comman

; 327  : 		{
; 328  : 			HideWnd();

  0003e	8b ce		 mov	 ecx, esi
  00040	ff 15 00 00 00
	00		 call	 DWORD PTR __imp_?HideWnd@ioWnd@@QAEXXZ

; 329  : 		}
; 330  : 		break;

  00046	eb 42		 jmp	 SHORT $LN7@iwm_comman
$LN6@iwm_comman:

; 306  : 		}
; 307  : 		break;
; 308  : 	case ID_NEXT_BTN:
; 309  : 		if( cmd == IOBN_BTNUP && !pWnd->HasWndStyle( IWS_INACTIVE ) )

  00048	83 7d 0c 11	 cmp	 DWORD PTR _cmd$[ebp], 17 ; 00000011H
  0004c	75 3c		 jne	 SHORT $LN7@iwm_comman
  0004e	8b 4d 08	 mov	 ecx, DWORD PTR _pWnd$[ebp]
  00051	6a 02		 push	 2
  00053	ff 15 00 00 00
	00		 call	 DWORD PTR __imp_?HasWndStyle@ioWnd@@QBE_NK@Z
  00059	84 c0		 test	 al, al
  0005b	75 2d		 jne	 SHORT $LN7@iwm_comman

; 310  : 		{
; 311  : 			int iNewPage = m_iCurPage + 1;

  0005d	8b 86 64 01 00
	00		 mov	 eax, DWORD PTR [esi+356]
  00063	40		 inc	 eax

; 312  : 			UpdatePage( iNewPage );
; 313  : 		}
; 314  : 		break;

  00064	eb 1c		 jmp	 SHORT $LN13@iwm_comman
$LN8@iwm_comman:

; 300  : 	{
; 301  : 	case ID_PRE_BTN:
; 302  : 		if( cmd == IOBN_BTNUP && !pWnd->HasWndStyle( IWS_INACTIVE ) )

  00066	83 7d 0c 11	 cmp	 DWORD PTR _cmd$[ebp], 17 ; 00000011H
  0006a	75 1e		 jne	 SHORT $LN7@iwm_comman
  0006c	8b 4d 08	 mov	 ecx, DWORD PTR _pWnd$[ebp]
  0006f	6a 02		 push	 2
  00071	ff 15 00 00 00
	00		 call	 DWORD PTR __imp_?HasWndStyle@ioWnd@@QBE_NK@Z
  00077	84 c0		 test	 al, al
  00079	75 0f		 jne	 SHORT $LN7@iwm_comman

; 303  : 		{
; 304  : 			int iNewPage = m_iCurPage - 1;

  0007b	8b 86 64 01 00
	00		 mov	 eax, DWORD PTR [esi+356]
  00081	48		 dec	 eax
$LN13@iwm_comman:

; 305  : 			UpdatePage( iNewPage );

  00082	50		 push	 eax
  00083	8b ce		 mov	 ecx, esi
  00085	e8 00 00 00 00	 call	 ?UpdatePage@ioExtraItemListWnd@@IAEXH@Z ; ioExtraItemListWnd::UpdatePage
$LN7@iwm_comman:
  0008a	5e		 pop	 esi

; 331  : 	}
; 332  : }

  0008b	5d		 pop	 ebp
  0008c	c2 0c 00	 ret	 12			; 0000000cH
?iwm_command@ioExtraItemListWnd@@UAEXPAVioWnd@@HK@Z ENDP ; ioExtraItemListWnd::iwm_command
_TEXT	ENDS
PUBLIC	?ShowItemList@ioExtraItemListWnd@@QAEXH@Z	; ioExtraItemListWnd::ShowItemList
EXTRN	__imp_?ShowWnd@ioWnd@@QAEXXZ:PROC
; Function compile flags: /Ogsp
;	COMDAT ?ShowItemList@ioExtraItemListWnd@@QAEXH@Z
_TEXT	SEGMENT
_iMachineCode$ = 8					; size = 4
?ShowItemList@ioExtraItemListWnd@@QAEXH@Z PROC		; ioExtraItemListWnd::ShowItemList, COMDAT
; _this$ = ecx

; 104  : {

  00000	55		 push	 ebp
  00001	8b ec		 mov	 ebp, esp
  00003	56		 push	 esi
  00004	8b f1		 mov	 esi, ecx

; 105  : 	ShowWnd();

  00006	ff 15 00 00 00
	00		 call	 DWORD PTR __imp_?ShowWnd@ioWnd@@QAEXXZ

; 106  : 
; 107  : 	m_iMachineCode = iMachineCode;

  0000c	8b 45 08	 mov	 eax, DWORD PTR _iMachineCode$[ebp]

; 108  : 
; 109  : 	ChangeSubBtn( ID_ALL_BTN );

  0000f	6a 0a		 push	 10			; 0000000aH
  00011	8b ce		 mov	 ecx, esi
  00013	89 86 68 01 00
	00		 mov	 DWORD PTR [esi+360], eax
  00019	e8 00 00 00 00	 call	 ?ChangeSubBtn@ioExtraItemListWnd@@IAEXK@Z ; ioExtraItemListWnd::ChangeSubBtn
  0001e	5e		 pop	 esi

; 110  : }

  0001f	5d		 pop	 ebp
  00020	c2 04 00	 ret	 4
?ShowItemList@ioExtraItemListWnd@@QAEXH@Z ENDP		; ioExtraItemListWnd::ShowItemList
_TEXT	ENDS
END
