; Listing generated by Microsoft (R) Optimizing Compiler Version 16.00.30319.01 

	TITLE	D:\Lost Saga For Developer\Youtube\Tutorial\Source\src\LSClient\GUI\ioExtraItemListWnd.cpp
	.686P
	.XMM
	include listing.inc
	.model	flat

INCLUDELIB MSVCRT
INCLUDELIB OLDNAMES

PUBLIC	?SetMarkType@NewShopIconBtn@@QAEXH@Z		; NewShopIconBtn::SetMarkType
; Function compile flags: /Ogsp
; File d:\lost saga for developer\youtube\tutorial\source\src\lsclient\gui\newshopiconbtn.h
;	COMDAT ?SetMarkType@NewShopIconBtn@@QAEXH@Z
_TEXT	SEGMENT
_iMarkType$ = 8						; size = 4
?SetMarkType@NewShopIconBtn@@QAEXH@Z PROC		; NewShopIconBtn::SetMarkType, COMDAT
; _this$ = ecx

; 64   : 	void SetMarkType( int iMarkType )	{ m_iMarkType = iMarkType; } 

  00000	55		 push	 ebp
  00001	8b ec		 mov	 ebp, esp
  00003	8b 45 08	 mov	 eax, DWORD PTR _iMarkType$[ebp]
  00006	89 81 4c 02 00
	00		 mov	 DWORD PTR [ecx+588], eax
  0000c	5d		 pop	 ebp
  0000d	c2 04 00	 ret	 4
?SetMarkType@NewShopIconBtn@@QAEXH@Z ENDP		; NewShopIconBtn::SetMarkType
_TEXT	ENDS
PUBLIC	?SetLimitDay@NewShopIconBtn@@QAEXH@Z		; NewShopIconBtn::SetLimitDay
; Function compile flags: /Ogsp
;	COMDAT ?SetLimitDay@NewShopIconBtn@@QAEXH@Z
_TEXT	SEGMENT
_iDay$ = 8						; size = 4
?SetLimitDay@NewShopIconBtn@@QAEXH@Z PROC		; NewShopIconBtn::SetLimitDay, COMDAT
; _this$ = ecx

; 66   : 	void SetLimitDay( int iDay )		{ m_iLimitDay = iDay; }

  00000	55		 push	 ebp
  00001	8b ec		 mov	 ebp, esp
  00003	8b 45 08	 mov	 eax, DWORD PTR _iDay$[ebp]
  00006	89 81 50 02 00
	00		 mov	 DWORD PTR [ecx+592], eax
  0000c	5d		 pop	 ebp
  0000d	c2 04 00	 ret	 4
?SetLimitDay@NewShopIconBtn@@QAEXH@Z ENDP		; NewShopIconBtn::SetLimitDay
_TEXT	ENDS
PUBLIC	?SetGradeType@NewShopIconBtn@@QAEXH@Z		; NewShopIconBtn::SetGradeType
; Function compile flags: /Ogsp
;	COMDAT ?SetGradeType@NewShopIconBtn@@QAEXH@Z
_TEXT	SEGMENT
_nGradeType$ = 8					; size = 4
?SetGradeType@NewShopIconBtn@@QAEXH@Z PROC		; NewShopIconBtn::SetGradeType, COMDAT
; _this$ = ecx

; 67   : 	void SetGradeType( int nGradeType ) { m_nGradeType = nGradeType; }

  00000	55		 push	 ebp
  00001	8b ec		 mov	 ebp, esp
  00003	8b 45 08	 mov	 eax, DWORD PTR _nGradeType$[ebp]
  00006	89 81 68 02 00
	00		 mov	 DWORD PTR [ecx+616], eax
  0000c	5d		 pop	 ebp
  0000d	c2 04 00	 ret	 4
?SetGradeType@NewShopIconBtn@@QAEXH@Z ENDP		; NewShopIconBtn::SetGradeType
_TEXT	ENDS
PUBLIC	?SetItemCode@ItemListIconBtn@@QAEXH@Z		; ItemListIconBtn::SetItemCode
; Function compile flags: /Ogsp
; File d:\lost saga for developer\youtube\tutorial\source\src\lsclient\gui\ioextraitemlistwnd.h
;	COMDAT ?SetItemCode@ItemListIconBtn@@QAEXH@Z
_TEXT	SEGMENT
_iItemCode$ = 8						; size = 4
?SetItemCode@ItemListIconBtn@@QAEXH@Z PROC		; ItemListIconBtn::SetItemCode, COMDAT
; _this$ = ecx

; 23   : 	void SetItemCode(int iItemCode) { m_iItemCode = iItemCode; }

  00000	55		 push	 ebp
  00001	8b ec		 mov	 ebp, esp
  00003	8b 45 08	 mov	 eax, DWORD PTR _iItemCode$[ebp]
  00006	89 81 7c 02 00
	00		 mov	 DWORD PTR [ecx+636], eax
  0000c	5d		 pop	 ebp
  0000d	c2 04 00	 ret	 4
?SetItemCode@ItemListIconBtn@@QAEXH@Z ENDP		; ItemListIconBtn::SetItemCode
_TEXT	ENDS
PUBLIC	??RShopExtraItemSort@@QBE_NABUItemListInfoSort@@0@Z ; ShopExtraItemSort::operator()
; Function compile flags: /Ogsp
;	COMDAT ??RShopExtraItemSort@@QBE_NABUItemListInfoSort@@0@Z
_TEXT	SEGMENT
_lhs$ = 8						; size = 4
_rhs$ = 12						; size = 4
??RShopExtraItemSort@@QBE_NABUItemListInfoSort@@0@Z PROC ; ShopExtraItemSort::operator(), COMDAT
; _this$ = ecx

; 34   : 	{

  00000	55		 push	 ebp
  00001	8b ec		 mov	 ebp, esp

; 35   : 		if( lhs.m_iOrder > rhs.m_iOrder )

  00003	8b 55 08	 mov	 edx, DWORD PTR _lhs$[ebp]
  00006	8b 42 08	 mov	 eax, DWORD PTR [edx+8]
  00009	56		 push	 esi
  0000a	8b 75 0c	 mov	 esi, DWORD PTR _rhs$[ebp]
  0000d	8b 4e 08	 mov	 ecx, DWORD PTR [esi+8]
  00010	3b c1		 cmp	 eax, ecx
  00012	7e 04		 jle	 SHORT $LN6@operator
$LN7@operator:

; 36   : 			return true;

  00014	b0 01		 mov	 al, 1
  00016	eb 0a		 jmp	 SHORT $LN4@operator
$LN6@operator:

; 37   : 		if( lhs.m_iOrder == rhs.m_iOrder )

  00018	75 06		 jne	 SHORT $LN1@operator

; 38   : 		{
; 39   : 			if( lhs.m_iItemCode > rhs.m_iItemCode )

  0001a	8b 02		 mov	 eax, DWORD PTR [edx]
  0001c	3b 06		 cmp	 eax, DWORD PTR [esi]

; 40   : 				return true;

  0001e	7f f4		 jg	 SHORT $LN7@operator
$LN1@operator:

; 41   : 		}
; 42   : 
; 43   : 		return false;

  00020	32 c0		 xor	 al, al
$LN4@operator:
  00022	5e		 pop	 esi

; 44   : 	}

  00023	5d		 pop	 ebp
  00024	c2 08 00	 ret	 8
??RShopExtraItemSort@@QBE_NABUItemListInfoSort@@0@Z ENDP ; ShopExtraItemSort::operator()
_TEXT	ENDS
PUBLIC	__real@3f266666
PUBLIC	??_C@_0BN@JBJKGEEJ@ioExtraItemListWnd?3?3OnRender?$AA@ ; `string'
PUBLIC	??_C@_00CNPNBAHC@?$AA@				; `string'
PUBLIC	?OnRender@ioExtraItemListWnd@@MAEXXZ		; ioExtraItemListWnd::OnRender
EXTRN	??_M@YGXPAXIHP6EX0@Z@Z:PROC			; `eh vector destructor iterator'
EXTRN	__imp_?PrintText@ioFontManager@@QAAXMMMPBDZZ:PROC
EXTRN	__imp_?c_str@ioHashString@@QBEPBDXZ:PROC
EXTRN	__imp_?SetTextColor@ioFontManager@@QAEXK@Z:PROC
EXTRN	__imp_?SetAlignType@ioFontManager@@QAEXW4TextAlignType@@@Z:PROC
EXTRN	__imp_?SetBkColor@ioFontManager@@QAEXHHH@Z:PROC
EXTRN	__imp_?SetTextStyle@ioFontManager@@QAEXW4TextStyle@@@Z:PROC
EXTRN	__imp_?GetSingleton@ioFontManager@@SAAAV1@XZ:PROC
EXTRN	?PrintFullText@ioComplexStringPrinter@@QAEXMMW4TextAlignType@@E@Z:PROC ; ioComplexStringPrinter::PrintFullText
EXTRN	?AddTextPiece@ioComplexStringPrinter@@QAAXMPBDZZ:PROC ; ioComplexStringPrinter::AddTextPiece
EXTRN	__imp_?GetString@ioStringManager@@QAEPADPBD0HW4FileNamePrefix@1@@Z:PROC
EXTRN	__imp_?GetSingleton@ioStringManager@@SAAAV1@XZ:PROC
EXTRN	?SetTextColor@ioComplexStringPrinter@@QAEXK@Z:PROC ; ioComplexStringPrinter::SetTextColor
EXTRN	?SetBkColor@ioComplexStringPrinter@@QAEXHHH@Z:PROC ; ioComplexStringPrinter::SetBkColor
EXTRN	?SetTextStyle@ioComplexStringPrinter@@QAEXW4TextStyle@@@Z:PROC ; ioComplexStringPrinter::SetTextStyle
EXTRN	??_L@YGXPAXIHP6EX0@Z1@Z:PROC			; `eh vector constructor iterator'
EXTRN	??0ioComplexStringPrinter@@QAE@XZ:PROC		; ioComplexStringPrinter::ioComplexStringPrinter
EXTRN	??1ioComplexStringPrinter@@QAE@XZ:PROC		; ioComplexStringPrinter::~ioComplexStringPrinter
EXTRN	__imp_?GetDerivedPosY@ioWnd@@QBEHXZ:PROC
EXTRN	__imp_?GetDerivedPosX@ioWnd@@QBEHXZ:PROC
EXTRN	__imp_?OnRender@ioWnd@@MAEXXZ:PROC
EXTRN	___CxxFrameHandler3:PROC
EXTRN	@__security_check_cookie@4:PROC
EXTRN	__fltused:DWORD
EXTRN	__EH_epilog3:PROC
EXTRN	__EH_prolog3:PROC
;	COMDAT __real@3f266666
; File d:\lost saga for developer\youtube\tutorial\source\src\lsclient\gui\ioextraitemlistwnd.cpp
CONST	SEGMENT
__real@3f266666 DD 03f266666r			; 0.65
CONST	ENDS
;	COMDAT ??_C@_0BN@JBJKGEEJ@ioExtraItemListWnd?3?3OnRender?$AA@
CONST	SEGMENT
??_C@_0BN@JBJKGEEJ@ioExtraItemListWnd?3?3OnRender?$AA@ DB 'ioExtraItemLis'
	DB	'tWnd::OnRender', 00H			; `string'
CONST	ENDS
;	COMDAT ??_C@_00CNPNBAHC@?$AA@
CONST	SEGMENT
??_C@_00CNPNBAHC@?$AA@ DB 00H				; `string'
CONST	ENDS
;	COMDAT xdata$x
xdata$x	SEGMENT
__unwindtable$?OnRender@ioExtraItemListWnd@@MAEXXZ DD 0ffffffffH
	DD	FLAT:__unwindfunclet$?OnRender@ioExtraItemListWnd@@MAEXXZ$0
__ehfuncinfo$?OnRender@ioExtraItemListWnd@@MAEXXZ DD 019930522H
	DD	01H
	DD	FLAT:__unwindtable$?OnRender@ioExtraItemListWnd@@MAEXXZ
	DD	2 DUP(00H)
	DD	2 DUP(00H)
	DD	00H
	DD	01H
; Function compile flags: /Ogsp
xdata$x	ENDS
;	COMDAT ?OnRender@ioExtraItemListWnd@@MAEXXZ
_TEXT	SEGMENT
_kPrinter$ = -92					; size = 64
_this$ = -28						; size = 4
tv326 = -24						; size = 4
_iXPos$ = -24						; size = 4
_iYPos$ = -20						; size = 4
tv206 = -16						; size = 4
__$EHRec$ = -12						; size = 12
?OnRender@ioExtraItemListWnd@@MAEXXZ PROC		; ioExtraItemListWnd::OnRender, COMDAT
; _this$ = ecx

; 233  : {

  00000	6a 50		 push	 80			; 00000050H
  00002	b8 00 00 00 00	 mov	 eax, __ehhandler$?OnRender@ioExtraItemListWnd@@MAEXXZ
  00007	e8 00 00 00 00	 call	 __EH_prolog3
  0000c	8b f1		 mov	 esi, ecx
  0000e	89 75 e4	 mov	 DWORD PTR _this$[ebp], esi

; 234  : 	ioWnd::OnRender();

  00011	ff 15 00 00 00
	00		 call	 DWORD PTR __imp_?OnRender@ioWnd@@MAEXXZ

; 235  : 
; 236  : 	int iXPos = GetDerivedPosX();

  00017	8b ce		 mov	 ecx, esi
  00019	ff 15 00 00 00
	00		 call	 DWORD PTR __imp_?GetDerivedPosX@ioWnd@@QBEHXZ

; 237  : 	int iYPos = GetDerivedPosY();

  0001f	8b ce		 mov	 ecx, esi
  00021	89 45 e8	 mov	 DWORD PTR _iXPos$[ebp], eax
  00024	ff 15 00 00 00
	00		 call	 DWORD PTR __imp_?GetDerivedPosY@ioWnd@@QBEHXZ

; 238  : 
; 239  : 	enum
; 240  : 	{
; 241  : 		DESC_X		= 238,
; 242  : 		DESC_Y		= 470,
; 243  : 
; 244  : 		LINE_GAP	= 20,
; 245  : 
; 246  : 		PAGE_X		= 238,
; 247  : 		PAGE_Y		= 425,
; 248  : 
; 249  : 		MAX_TEXT    = 2,
; 250  : 	};
; 251  : 
; 252  : 	ioComplexStringPrinter kPrinter[MAX_TEXT];

  0002a	68 00 00 00 00	 push	 OFFSET ??1ioComplexStringPrinter@@QAE@XZ ; ioComplexStringPrinter::~ioComplexStringPrinter
  0002f	68 00 00 00 00	 push	 OFFSET ??0ioComplexStringPrinter@@QAE@XZ ; ioComplexStringPrinter::ioComplexStringPrinter
  00034	6a 02		 push	 2
  00036	89 45 ec	 mov	 DWORD PTR _iYPos$[ebp], eax
  00039	6a 20		 push	 32			; 00000020H
  0003b	8d 45 a4	 lea	 eax, DWORD PTR _kPrinter$[ebp]
  0003e	50		 push	 eax
  0003f	e8 00 00 00 00	 call	 ??_L@YGXPAXIHP6EX0@Z1@Z
  00044	33 f6		 xor	 esi, esi

; 253  : 	kPrinter[0].SetTextStyle( TS_NORMAL);

  00046	56		 push	 esi
  00047	8d 4d a4	 lea	 ecx, DWORD PTR _kPrinter$[ebp]
  0004a	89 75 fc	 mov	 DWORD PTR __$EHRec$[ebp+8], esi
  0004d	e8 00 00 00 00	 call	 ?SetTextStyle@ioComplexStringPrinter@@QAEXW4TextStyle@@@Z ; ioComplexStringPrinter::SetTextStyle

; 254  : 	kPrinter[0].SetBkColor( 0, 0, 0 );	

  00052	56		 push	 esi
  00053	56		 push	 esi
  00054	56		 push	 esi
  00055	8d 4d a4	 lea	 ecx, DWORD PTR _kPrinter$[ebp]
  00058	e8 00 00 00 00	 call	 ?SetBkColor@ioComplexStringPrinter@@QAEXHHH@Z ; ioComplexStringPrinter::SetBkColor

; 255  : 	kPrinter[0].SetTextColor( TCT_DEFAULT_DARKGRAY ); 

  0005d	68 3a 3a 3a ff	 push	 -12961222		; ff3a3a3aH
  00062	8d 4d a4	 lea	 ecx, DWORD PTR _kPrinter$[ebp]
  00065	e8 00 00 00 00	 call	 ?SetTextColor@ioComplexStringPrinter@@QAEXK@Z ; ioComplexStringPrinter::SetTextColor

; 256  : 	kPrinter[0].AddTextPiece( FONT_SIZE_13, STR(1) );

  0006a	8b 3d 00 00 00
	00		 mov	 edi, DWORD PTR __imp_?GetSingleton@ioStringManager@@SAAAV1@XZ
  00070	56		 push	 esi
  00071	6a 01		 push	 1
  00073	68 00 00 00 00	 push	 OFFSET ??_C@_00CNPNBAHC@?$AA@
  00078	68 00 00 00 00	 push	 OFFSET ??_C@_0BN@JBJKGEEJ@ioExtraItemListWnd?3?3OnRender?$AA@
  0007d	ff d7		 call	 edi
  0007f	8b 1d 00 00 00
	00		 mov	 ebx, DWORD PTR __imp_?GetString@ioStringManager@@QAEPADPBD0HW4FileNamePrefix@1@@Z
  00085	8b c8		 mov	 ecx, eax
  00087	ff d3		 call	 ebx
  00089	f3 0f 10 05 00
	00 00 00	 movss	 xmm0, DWORD PTR __real@3f266666
  00091	50		 push	 eax
  00092	51		 push	 ecx
  00093	8d 45 a4	 lea	 eax, DWORD PTR _kPrinter$[ebp]
  00096	f3 0f 11 04 24	 movss	 DWORD PTR [esp], xmm0
  0009b	50		 push	 eax
  0009c	e8 00 00 00 00	 call	 ?AddTextPiece@ioComplexStringPrinter@@QAAXMPBDZZ ; ioComplexStringPrinter::AddTextPiece
  000a1	83 c4 0c	 add	 esp, 12			; 0000000cH

; 257  : 
; 258  : 	kPrinter[0].SetTextStyle( TS_NORMAL);

  000a4	56		 push	 esi
  000a5	8d 4d a4	 lea	 ecx, DWORD PTR _kPrinter$[ebp]
  000a8	e8 00 00 00 00	 call	 ?SetTextStyle@ioComplexStringPrinter@@QAEXW4TextStyle@@@Z ; ioComplexStringPrinter::SetTextStyle

; 259  : 	kPrinter[0].SetBkColor( 0, 0, 0 );	

  000ad	56		 push	 esi
  000ae	56		 push	 esi
  000af	56		 push	 esi
  000b0	8d 4d a4	 lea	 ecx, DWORD PTR _kPrinter$[ebp]
  000b3	e8 00 00 00 00	 call	 ?SetBkColor@ioComplexStringPrinter@@QAEXHHH@Z ; ioComplexStringPrinter::SetBkColor

; 260  : 	kPrinter[0].SetTextColor( TCT_DEFAULT_RED ); 

  000b8	68 00 16 b9 ff	 push	 -4647424		; ffb91600H
  000bd	8d 4d a4	 lea	 ecx, DWORD PTR _kPrinter$[ebp]
  000c0	e8 00 00 00 00	 call	 ?SetTextColor@ioComplexStringPrinter@@QAEXK@Z ; ioComplexStringPrinter::SetTextColor

; 261  : 	kPrinter[0].AddTextPiece( FONT_SIZE_13, STR(2) );

  000c5	56		 push	 esi
  000c6	6a 02		 push	 2
  000c8	68 00 00 00 00	 push	 OFFSET ??_C@_00CNPNBAHC@?$AA@
  000cd	68 00 00 00 00	 push	 OFFSET ??_C@_0BN@JBJKGEEJ@ioExtraItemListWnd?3?3OnRender?$AA@
  000d2	ff d7		 call	 edi
  000d4	8b c8		 mov	 ecx, eax
  000d6	ff d3		 call	 ebx
  000d8	f3 0f 10 05 00
	00 00 00	 movss	 xmm0, DWORD PTR __real@3f266666
  000e0	50		 push	 eax
  000e1	51		 push	 ecx
  000e2	8d 45 a4	 lea	 eax, DWORD PTR _kPrinter$[ebp]
  000e5	f3 0f 11 04 24	 movss	 DWORD PTR [esp], xmm0
  000ea	50		 push	 eax
  000eb	e8 00 00 00 00	 call	 ?AddTextPiece@ioComplexStringPrinter@@QAAXMPBDZZ ; ioComplexStringPrinter::AddTextPiece
  000f0	83 c4 0c	 add	 esp, 12			; 0000000cH

; 262  : 
; 263  : 	kPrinter[0].SetTextStyle( TS_NORMAL);

  000f3	56		 push	 esi
  000f4	8d 4d a4	 lea	 ecx, DWORD PTR _kPrinter$[ebp]
  000f7	e8 00 00 00 00	 call	 ?SetTextStyle@ioComplexStringPrinter@@QAEXW4TextStyle@@@Z ; ioComplexStringPrinter::SetTextStyle

; 264  : 	kPrinter[0].SetBkColor( 0, 0, 0 );	

  000fc	56		 push	 esi
  000fd	56		 push	 esi
  000fe	56		 push	 esi
  000ff	8d 4d a4	 lea	 ecx, DWORD PTR _kPrinter$[ebp]
  00102	e8 00 00 00 00	 call	 ?SetBkColor@ioComplexStringPrinter@@QAEXHHH@Z ; ioComplexStringPrinter::SetBkColor

; 265  : 	kPrinter[0].SetTextColor( TCT_DEFAULT_DARKGRAY ); 

  00107	68 3a 3a 3a ff	 push	 -12961222		; ff3a3a3aH
  0010c	8d 4d a4	 lea	 ecx, DWORD PTR _kPrinter$[ebp]
  0010f	e8 00 00 00 00	 call	 ?SetTextColor@ioComplexStringPrinter@@QAEXK@Z ; ioComplexStringPrinter::SetTextColor

; 266  : 	kPrinter[0].AddTextPiece( FONT_SIZE_13, STR(3) );

  00114	56		 push	 esi
  00115	6a 03		 push	 3
  00117	68 00 00 00 00	 push	 OFFSET ??_C@_00CNPNBAHC@?$AA@
  0011c	68 00 00 00 00	 push	 OFFSET ??_C@_0BN@JBJKGEEJ@ioExtraItemListWnd?3?3OnRender?$AA@
  00121	ff d7		 call	 edi
  00123	8b c8		 mov	 ecx, eax
  00125	ff d3		 call	 ebx
  00127	f3 0f 10 05 00
	00 00 00	 movss	 xmm0, DWORD PTR __real@3f266666
  0012f	50		 push	 eax
  00130	51		 push	 ecx
  00131	8d 45 a4	 lea	 eax, DWORD PTR _kPrinter$[ebp]
  00134	f3 0f 11 04 24	 movss	 DWORD PTR [esp], xmm0
  00139	50		 push	 eax
  0013a	e8 00 00 00 00	 call	 ?AddTextPiece@ioComplexStringPrinter@@QAAXMPBDZZ ; ioComplexStringPrinter::AddTextPiece
  0013f	83 c4 0c	 add	 esp, 12			; 0000000cH

; 267  : 
; 268  : 	kPrinter[1].SetTextStyle( TS_NORMAL);

  00142	56		 push	 esi
  00143	8d 4d c4	 lea	 ecx, DWORD PTR _kPrinter$[ebp+32]
  00146	e8 00 00 00 00	 call	 ?SetTextStyle@ioComplexStringPrinter@@QAEXW4TextStyle@@@Z ; ioComplexStringPrinter::SetTextStyle

; 269  : 	kPrinter[1].SetBkColor( 0, 0, 0 );	

  0014b	56		 push	 esi
  0014c	56		 push	 esi
  0014d	56		 push	 esi
  0014e	8d 4d c4	 lea	 ecx, DWORD PTR _kPrinter$[ebp+32]
  00151	e8 00 00 00 00	 call	 ?SetBkColor@ioComplexStringPrinter@@QAEXHHH@Z ; ioComplexStringPrinter::SetBkColor

; 270  : 	kPrinter[1].SetTextColor( TCT_DEFAULT_DARKGRAY ); 

  00156	68 3a 3a 3a ff	 push	 -12961222		; ff3a3a3aH
  0015b	8d 4d c4	 lea	 ecx, DWORD PTR _kPrinter$[ebp+32]
  0015e	e8 00 00 00 00	 call	 ?SetTextColor@ioComplexStringPrinter@@QAEXK@Z ; ioComplexStringPrinter::SetTextColor

; 271  : 	kPrinter[1].AddTextPiece( FONT_SIZE_13, STR(4) );

  00163	56		 push	 esi
  00164	6a 04		 push	 4
  00166	68 00 00 00 00	 push	 OFFSET ??_C@_00CNPNBAHC@?$AA@
  0016b	68 00 00 00 00	 push	 OFFSET ??_C@_0BN@JBJKGEEJ@ioExtraItemListWnd?3?3OnRender?$AA@
  00170	ff d7		 call	 edi
  00172	8b c8		 mov	 ecx, eax
  00174	ff d3		 call	 ebx
  00176	f3 0f 10 05 00
	00 00 00	 movss	 xmm0, DWORD PTR __real@3f266666
  0017e	50		 push	 eax
  0017f	51		 push	 ecx
  00180	8d 45 c4	 lea	 eax, DWORD PTR _kPrinter$[ebp+32]
  00183	f3 0f 11 04 24	 movss	 DWORD PTR [esp], xmm0
  00188	50		 push	 eax
  00189	e8 00 00 00 00	 call	 ?AddTextPiece@ioComplexStringPrinter@@QAAXMPBDZZ ; ioComplexStringPrinter::AddTextPiece
  0018e	83 c4 0c	 add	 esp, 12			; 0000000cH

; 272  : 
; 273  : 	kPrinter[1].SetTextStyle( TS_NORMAL);

  00191	56		 push	 esi
  00192	8d 4d c4	 lea	 ecx, DWORD PTR _kPrinter$[ebp+32]
  00195	e8 00 00 00 00	 call	 ?SetTextStyle@ioComplexStringPrinter@@QAEXW4TextStyle@@@Z ; ioComplexStringPrinter::SetTextStyle

; 274  : 	kPrinter[1].SetBkColor( 0, 0, 0 );	

  0019a	56		 push	 esi
  0019b	56		 push	 esi
  0019c	56		 push	 esi
  0019d	8d 4d c4	 lea	 ecx, DWORD PTR _kPrinter$[ebp+32]
  001a0	e8 00 00 00 00	 call	 ?SetBkColor@ioComplexStringPrinter@@QAEXHHH@Z ; ioComplexStringPrinter::SetBkColor

; 275  : 	kPrinter[1].SetTextColor( TCT_DEFAULT_RED ); 

  001a5	68 00 16 b9 ff	 push	 -4647424		; ffb91600H
  001aa	8d 4d c4	 lea	 ecx, DWORD PTR _kPrinter$[ebp+32]
  001ad	e8 00 00 00 00	 call	 ?SetTextColor@ioComplexStringPrinter@@QAEXK@Z ; ioComplexStringPrinter::SetTextColor

; 276  : 	kPrinter[1].AddTextPiece( FONT_SIZE_13, STR(5) );

  001b2	56		 push	 esi
  001b3	6a 05		 push	 5
  001b5	68 00 00 00 00	 push	 OFFSET ??_C@_00CNPNBAHC@?$AA@
  001ba	68 00 00 00 00	 push	 OFFSET ??_C@_0BN@JBJKGEEJ@ioExtraItemListWnd?3?3OnRender?$AA@
  001bf	ff d7		 call	 edi
  001c1	8b c8		 mov	 ecx, eax
  001c3	ff d3		 call	 ebx
  001c5	f3 0f 10 05 00
	00 00 00	 movss	 xmm0, DWORD PTR __real@3f266666
  001cd	50		 push	 eax
  001ce	51		 push	 ecx
  001cf	8d 45 c4	 lea	 eax, DWORD PTR _kPrinter$[ebp+32]
  001d2	f3 0f 11 04 24	 movss	 DWORD PTR [esp], xmm0
  001d7	50		 push	 eax
  001d8	e8 00 00 00 00	 call	 ?AddTextPiece@ioComplexStringPrinter@@QAAXMPBDZZ ; ioComplexStringPrinter::AddTextPiece
  001dd	83 c4 0c	 add	 esp, 12			; 0000000cH

; 277  : 
; 278  : 	kPrinter[1].SetTextStyle( TS_NORMAL);

  001e0	56		 push	 esi
  001e1	8d 4d c4	 lea	 ecx, DWORD PTR _kPrinter$[ebp+32]
  001e4	e8 00 00 00 00	 call	 ?SetTextStyle@ioComplexStringPrinter@@QAEXW4TextStyle@@@Z ; ioComplexStringPrinter::SetTextStyle

; 279  : 	kPrinter[1].SetBkColor( 0, 0, 0 );	

  001e9	56		 push	 esi
  001ea	56		 push	 esi
  001eb	56		 push	 esi
  001ec	8d 4d c4	 lea	 ecx, DWORD PTR _kPrinter$[ebp+32]
  001ef	e8 00 00 00 00	 call	 ?SetBkColor@ioComplexStringPrinter@@QAEXHHH@Z ; ioComplexStringPrinter::SetBkColor

; 280  : 	kPrinter[1].SetTextColor( TCT_DEFAULT_DARKGRAY ); 

  001f4	68 3a 3a 3a ff	 push	 -12961222		; ff3a3a3aH
  001f9	8d 4d c4	 lea	 ecx, DWORD PTR _kPrinter$[ebp+32]
  001fc	e8 00 00 00 00	 call	 ?SetTextColor@ioComplexStringPrinter@@QAEXK@Z ; ioComplexStringPrinter::SetTextColor

; 281  : 	kPrinter[1].AddTextPiece( FONT_SIZE_13, STR(6) );

  00201	56		 push	 esi
  00202	6a 06		 push	 6
  00204	68 00 00 00 00	 push	 OFFSET ??_C@_00CNPNBAHC@?$AA@
  00209	68 00 00 00 00	 push	 OFFSET ??_C@_0BN@JBJKGEEJ@ioExtraItemListWnd?3?3OnRender?$AA@
  0020e	ff d7		 call	 edi
  00210	8b c8		 mov	 ecx, eax
  00212	ff d3		 call	 ebx
  00214	f3 0f 10 05 00
	00 00 00	 movss	 xmm0, DWORD PTR __real@3f266666
  0021c	50		 push	 eax
  0021d	51		 push	 ecx
  0021e	8d 45 c4	 lea	 eax, DWORD PTR _kPrinter$[ebp+32]
  00221	f3 0f 11 04 24	 movss	 DWORD PTR [esp], xmm0
  00226	50		 push	 eax
  00227	e8 00 00 00 00	 call	 ?AddTextPiece@ioComplexStringPrinter@@QAAXMPBDZZ ; ioComplexStringPrinter::AddTextPiece
  0022c	8b 45 e8	 mov	 eax, DWORD PTR _iXPos$[ebp]
  0022f	8b 7d ec	 mov	 edi, DWORD PTR _iYPos$[ebp]
  00232	05 ee 00 00 00	 add	 eax, 238		; 000000eeH

; 293  : }

  00237	0f 57 c0	 xorps	 xmm0, xmm0
  0023a	83 c4 0c	 add	 esp, 12			; 0000000cH
  0023d	f3 0f 2a c0	 cvtsi2ss xmm0, eax
  00241	f3 0f 11 45 e8	 movss	 DWORD PTR tv326[ebp], xmm0
  00246	8d 5d a4	 lea	 ebx, DWORD PTR _kPrinter$[ebp]
  00249	81 c7 d6 01 00
	00		 add	 edi, 470		; 000001d6H
  0024f	c7 45 f0 02 00
	00 00		 mov	 DWORD PTR tv206[ebp], 2
$LN3@OnRender:

; 282  : 
; 283  : 
; 284  : 	for (int i = 0; i < MAX_TEXT ; i++)
; 285  : 	{	
; 286  : 		kPrinter[i].PrintFullText( iXPos + DESC_X, iYPos + DESC_Y + ( i*LINE_GAP), TAT_CENTER );

  00256	68 ff 00 00 00	 push	 255			; 000000ffH
  0025b	6a 01		 push	 1
  0025d	51		 push	 ecx
  0025e	51		 push	 ecx
  0025f	0f 57 c0	 xorps	 xmm0, xmm0
  00262	f3 0f 2a c7	 cvtsi2ss xmm0, edi
  00266	f3 0f 11 44 24
	04		 movss	 DWORD PTR [esp+4], xmm0
  0026c	f3 0f 10 45 e8	 movss	 xmm0, DWORD PTR tv326[ebp]
  00271	8b cb		 mov	 ecx, ebx
  00273	f3 0f 11 04 24	 movss	 DWORD PTR [esp], xmm0
  00278	e8 00 00 00 00	 call	 ?PrintFullText@ioComplexStringPrinter@@QAEXMMW4TextAlignType@@E@Z ; ioComplexStringPrinter::PrintFullText
  0027d	83 c7 14	 add	 edi, 20			; 00000014H
  00280	83 c3 20	 add	 ebx, 32			; 00000020H
  00283	ff 4d f0	 dec	 DWORD PTR tv206[ebp]
  00286	75 ce		 jne	 SHORT $LN3@OnRender

; 287  : 	}
; 288  : 	g_FontMgr.SetTextStyle( TS_NORMAL );

  00288	8b 3d 00 00 00
	00		 mov	 edi, DWORD PTR __imp_?GetSingleton@ioFontManager@@SAAAV1@XZ
  0028e	56		 push	 esi
  0028f	ff d7		 call	 edi
  00291	8b c8		 mov	 ecx, eax
  00293	ff 15 00 00 00
	00		 call	 DWORD PTR __imp_?SetTextStyle@ioFontManager@@QAEXW4TextStyle@@@Z

; 289  : 	g_FontMgr.SetBkColor( 0, 0, 0 );

  00299	56		 push	 esi
  0029a	56		 push	 esi
  0029b	56		 push	 esi
  0029c	ff d7		 call	 edi
  0029e	8b c8		 mov	 ecx, eax
  002a0	ff 15 00 00 00
	00		 call	 DWORD PTR __imp_?SetBkColor@ioFontManager@@QAEXHHH@Z

; 290  : 	g_FontMgr.SetAlignType( TAT_CENTER );

  002a6	6a 01		 push	 1
  002a8	ff d7		 call	 edi
  002aa	8b c8		 mov	 ecx, eax
  002ac	ff 15 00 00 00
	00		 call	 DWORD PTR __imp_?SetAlignType@ioFontManager@@QAEXW4TextAlignType@@@Z

; 291  : 	g_FontMgr.SetTextColor( TCT_DEFAULT_DARKGRAY );

  002b2	68 3a 3a 3a ff	 push	 -12961222		; ff3a3a3aH
  002b7	ff d7		 call	 edi
  002b9	8b c8		 mov	 ecx, eax
  002bb	ff 15 00 00 00
	00		 call	 DWORD PTR __imp_?SetTextColor@ioFontManager@@QAEXK@Z

; 292  : 	g_FontMgr.PrintText( iXPos+PAGE_X, iYPos+PAGE_Y, FONT_SIZE_13, m_szPageText.c_str() );

  002c1	8b 4d e4	 mov	 ecx, DWORD PTR _this$[ebp]
  002c4	81 c1 70 01 00
	00		 add	 ecx, 368		; 00000170H
  002ca	ff 15 00 00 00
	00		 call	 DWORD PTR __imp_?c_str@ioHashString@@QBEPBDXZ
  002d0	f3 0f 10 05 00
	00 00 00	 movss	 xmm0, DWORD PTR __real@3f266666
  002d8	50		 push	 eax
  002d9	8b 45 ec	 mov	 eax, DWORD PTR _iYPos$[ebp]
  002dc	83 ec 0c	 sub	 esp, 12			; 0000000cH
  002df	f3 0f 11 44 24
	08		 movss	 DWORD PTR [esp+8], xmm0
  002e5	05 a9 01 00 00	 add	 eax, 425		; 000001a9H
  002ea	0f 57 c0	 xorps	 xmm0, xmm0
  002ed	f3 0f 2a c0	 cvtsi2ss xmm0, eax
  002f1	f3 0f 11 44 24
	04		 movss	 DWORD PTR [esp+4], xmm0
  002f7	f3 0f 10 45 e8	 movss	 xmm0, DWORD PTR tv326[ebp]
  002fc	f3 0f 11 04 24	 movss	 DWORD PTR [esp], xmm0
  00301	ff d7		 call	 edi
  00303	50		 push	 eax
  00304	ff 15 00 00 00
	00		 call	 DWORD PTR __imp_?PrintText@ioFontManager@@QAAXMMMPBDZZ

; 293  : }

  0030a	83 4d fc ff	 or	 DWORD PTR __$EHRec$[ebp+8], -1
  0030e	83 c4 14	 add	 esp, 20			; 00000014H
  00311	68 00 00 00 00	 push	 OFFSET ??1ioComplexStringPrinter@@QAE@XZ ; ioComplexStringPrinter::~ioComplexStringPrinter
  00316	6a 02		 push	 2
  00318	6a 20		 push	 32			; 00000020H
  0031a	8d 45 a4	 lea	 eax, DWORD PTR _kPrinter$[ebp]
  0031d	50		 push	 eax
  0031e	e8 00 00 00 00	 call	 ??_M@YGXPAXIHP6EX0@Z@Z
  00323	e8 00 00 00 00	 call	 __EH_epilog3
  00328	c3		 ret	 0
_TEXT	ENDS
;	COMDAT text$x
text$x	SEGMENT
__unwindfunclet$?OnRender@ioExtraItemListWnd@@MAEXXZ$0:
  00000	68 00 00 00 00	 push	 OFFSET ??1ioComplexStringPrinter@@QAE@XZ ; ioComplexStringPrinter::~ioComplexStringPrinter
  00005	6a 02		 push	 2
  00007	6a 20		 push	 32			; 00000020H
  00009	8d 45 a4	 lea	 eax, DWORD PTR _kPrinter$[ebp]
  0000c	50		 push	 eax
  0000d	e8 00 00 00 00	 call	 ??_M@YGXPAXIHP6EX0@Z@Z
  00012	c3		 ret	 0
__ehhandler$?OnRender@ioExtraItemListWnd@@MAEXXZ:
  00013	8b 54 24 08	 mov	 edx, DWORD PTR [esp+8]
  00017	8d 42 0c	 lea	 eax, DWORD PTR [edx+12]
  0001a	8b 4a a0	 mov	 ecx, DWORD PTR [edx-96]
  0001d	33 c8		 xor	 ecx, eax
  0001f	e8 00 00 00 00	 call	 @__security_check_cookie@4
  00024	b8 00 00 00 00	 mov	 eax, OFFSET __ehfuncinfo$?OnRender@ioExtraItemListWnd@@MAEXXZ
  00029	e9 00 00 00 00	 jmp	 ___CxxFrameHandler3
text$x	ENDS
?OnRender@ioExtraItemListWnd@@MAEXXZ ENDP		; ioExtraItemListWnd::OnRender
PUBLIC	??_7bad_alloc@std@@6B@				; std::bad_alloc::`vftable'
PUBLIC	??0bad_alloc@std@@QAE@PBD@Z			; std::bad_alloc::bad_alloc
PUBLIC	??_R4bad_alloc@std@@6B@				; std::bad_alloc::`RTTI Complete Object Locator'
PUBLIC	??_R0?AVbad_alloc@std@@@8			; std::bad_alloc `RTTI Type Descriptor'
PUBLIC	??_R3bad_alloc@std@@8				; std::bad_alloc::`RTTI Class Hierarchy Descriptor'
PUBLIC	??_R2bad_alloc@std@@8				; std::bad_alloc::`RTTI Base Class Array'
PUBLIC	??_R1A@?0A@EA@bad_alloc@std@@8			; std::bad_alloc::`RTTI Base Class Descriptor at (0,-1,0,64)'
PUBLIC	??_R1A@?0A@EA@exception@std@@8			; std::exception::`RTTI Base Class Descriptor at (0,-1,0,64)'
PUBLIC	??_R0?AVexception@std@@@8			; std::exception `RTTI Type Descriptor'
PUBLIC	??_R3exception@std@@8				; std::exception::`RTTI Class Hierarchy Descriptor'
PUBLIC	??_R2exception@std@@8				; std::exception::`RTTI Base Class Array'
EXTRN	__imp_??0exception@std@@QAE@ABQBD@Z:PROC
EXTRN	??_7type_info@@6B@:QWORD			; type_info::`vftable'
EXTRN	??_Ebad_alloc@std@@UAEPAXI@Z:PROC		; std::bad_alloc::`vector deleting destructor'
EXTRN	?what@exception@std@@UBEPBDXZ:PROC		; std::exception::what
;	COMDAT ??_R2exception@std@@8
; File c:\program files (x86)\microsoft visual studio 10.0\vc\include\exception
rdata$r	SEGMENT
??_R2exception@std@@8 DD FLAT:??_R1A@?0A@EA@exception@std@@8 ; std::exception::`RTTI Base Class Array'
rdata$r	ENDS
;	COMDAT ??_R3exception@std@@8
rdata$r	SEGMENT
??_R3exception@std@@8 DD 00H				; std::exception::`RTTI Class Hierarchy Descriptor'
	DD	00H
	DD	01H
	DD	FLAT:??_R2exception@std@@8
rdata$r	ENDS
;	COMDAT ??_R0?AVexception@std@@@8
_DATA	SEGMENT
??_R0?AVexception@std@@@8 DD FLAT:??_7type_info@@6B@	; std::exception `RTTI Type Descriptor'
	DD	00H
	DB	'.?AVexception@std@@', 00H
_DATA	ENDS
;	COMDAT ??_R1A@?0A@EA@exception@std@@8
rdata$r	SEGMENT
??_R1A@?0A@EA@exception@std@@8 DD FLAT:??_R0?AVexception@std@@@8 ; std::exception::`RTTI Base Class Descriptor at (0,-1,0,64)'
	DD	00H
	DD	00H
	DD	0ffffffffH
	DD	00H
	DD	040H
	DD	FLAT:??_R3exception@std@@8
rdata$r	ENDS
;	COMDAT ??_R1A@?0A@EA@bad_alloc@std@@8
rdata$r	SEGMENT
??_R1A@?0A@EA@bad_alloc@std@@8 DD FLAT:??_R0?AVbad_alloc@std@@@8 ; std::bad_alloc::`RTTI Base Class Descriptor at (0,-1,0,64)'
	DD	01H
	DD	00H
	DD	0ffffffffH
	DD	00H
	DD	040H
	DD	FLAT:??_R3bad_alloc@std@@8
rdata$r	ENDS
;	COMDAT ??_R2bad_alloc@std@@8
rdata$r	SEGMENT
??_R2bad_alloc@std@@8 DD FLAT:??_R1A@?0A@EA@bad_alloc@std@@8 ; std::bad_alloc::`RTTI Base Class Array'
	DD	FLAT:??_R1A@?0A@EA@exception@std@@8
rdata$r	ENDS
;	COMDAT ??_R3bad_alloc@std@@8
rdata$r	SEGMENT
??_R3bad_alloc@std@@8 DD 00H				; std::bad_alloc::`RTTI Class Hierarchy Descriptor'
	DD	00H
	DD	02H
	DD	FLAT:??_R2bad_alloc@std@@8
rdata$r	ENDS
;	COMDAT ??_R0?AVbad_alloc@std@@@8
_DATA	SEGMENT
??_R0?AVbad_alloc@std@@@8 DD FLAT:??_7type_info@@6B@	; std::bad_alloc `RTTI Type Descriptor'
	DD	00H
	DB	'.?AVbad_alloc@std@@', 00H
_DATA	ENDS
;	COMDAT ??_R4bad_alloc@std@@6B@
rdata$r	SEGMENT
??_R4bad_alloc@std@@6B@ DD 00H				; std::bad_alloc::`RTTI Complete Object Locator'
	DD	00H
	DD	00H
	DD	FLAT:??_R0?AVbad_alloc@std@@@8
	DD	FLAT:??_R3bad_alloc@std@@8
rdata$r	ENDS
;	COMDAT ??_7bad_alloc@std@@6B@
CONST	SEGMENT
??_7bad_alloc@std@@6B@ DD FLAT:??_R4bad_alloc@std@@6B@	; std::bad_alloc::`vftable'
	DD	FLAT:??_Ebad_alloc@std@@UAEPAXI@Z
	DD	FLAT:?what@exception@std@@UBEPBDXZ
; Function compile flags: /Ogsp
CONST	ENDS
;	COMDAT ??0bad_alloc@std@@QAE@PBD@Z
_TEXT	SEGMENT
__Message$ = 8						; size = 4
??0bad_alloc@std@@QAE@PBD@Z PROC			; std::bad_alloc::bad_alloc, COMDAT
; _this$ = ecx

; 345  : 		{	// construct from message string

  00000	55		 push	 ebp
  00001	8b ec		 mov	 ebp, esp
  00003	56		 push	 esi
  00004	8d 45 08	 lea	 eax, DWORD PTR __Message$[ebp]
  00007	50		 push	 eax
  00008	8b f1		 mov	 esi, ecx
  0000a	ff 15 00 00 00
	00		 call	 DWORD PTR __imp_??0exception@std@@QAE@ABQBD@Z
  00010	c7 06 00 00 00
	00		 mov	 DWORD PTR [esi], OFFSET ??_7bad_alloc@std@@6B@

; 346  : 		}

  00016	8b c6		 mov	 eax, esi
  00018	5e		 pop	 esi
  00019	5d		 pop	 ebp
  0001a	c2 04 00	 ret	 4
??0bad_alloc@std@@QAE@PBD@Z ENDP			; std::bad_alloc::bad_alloc
_TEXT	ENDS
PUBLIC	??1bad_alloc@std@@UAE@XZ			; std::bad_alloc::~bad_alloc
EXTRN	__imp_??1exception@std@@UAE@XZ:PROC
; Function compile flags: /Ogsp
;	COMDAT ??1bad_alloc@std@@UAE@XZ
_TEXT	SEGMENT
??1bad_alloc@std@@UAE@XZ PROC				; std::bad_alloc::~bad_alloc, COMDAT
; _this$ = ecx

; 354  : 		{	// destroy the object

  00000	c7 01 00 00 00
	00		 mov	 DWORD PTR [ecx], OFFSET ??_7bad_alloc@std@@6B@

; 355  : 		}

  00006	ff 25 00 00 00
	00		 jmp	 DWORD PTR __imp_??1exception@std@@UAE@XZ
??1bad_alloc@std@@UAE@XZ ENDP				; std::bad_alloc::~bad_alloc
_TEXT	ENDS
EXTRN	??3@YAXPAX@Z:PROC				; operator delete
; Function compile flags: /Ogsp
;	COMDAT ??_Gbad_alloc@std@@UAEPAXI@Z
_TEXT	SEGMENT
___flags$ = 8						; size = 4
??_Gbad_alloc@std@@UAEPAXI@Z PROC			; std::bad_alloc::`scalar deleting destructor', COMDAT
; _this$ = ecx
  00000	55		 push	 ebp
  00001	8b ec		 mov	 ebp, esp
  00003	56		 push	 esi
  00004	8b f1		 mov	 esi, ecx
  00006	c7 06 00 00 00
	00		 mov	 DWORD PTR [esi], OFFSET ??_7bad_alloc@std@@6B@
  0000c	ff 15 00 00 00
	00		 call	 DWORD PTR __imp_??1exception@std@@UAE@XZ
  00012	f6 45 08 01	 test	 BYTE PTR ___flags$[ebp], 1
  00016	74 07		 je	 SHORT $LN1@scalar
  00018	56		 push	 esi
  00019	e8 00 00 00 00	 call	 ??3@YAXPAX@Z		; operator delete
  0001e	59		 pop	 ecx
$LN1@scalar:
  0001f	8b c6		 mov	 eax, esi
  00021	5e		 pop	 esi
  00022	5d		 pop	 ebp
  00023	c2 04 00	 ret	 4
??_Gbad_alloc@std@@UAEPAXI@Z ENDP			; std::bad_alloc::`scalar deleting destructor'
_TEXT	ENDS
PUBLIC	?size@?$vector@V?$basic_string@DU?$char_traits@D@std@@V?$allocator@D@2@@std@@V?$allocator@V?$basic_string@DU?$char_traits@D@std@@V?$allocator@D@2@@std@@@2@@std@@QBEIXZ ; std::vector<std::basic_string<char,std::char_traits<char>,std::allocator<char> >,std::allocator<std::basic_string<char,std::char_traits<char>,std::allocator<char> > > >::size
; Function compile flags: /Ogsp
; File c:\program files (x86)\microsoft visual studio 10.0\vc\include\vector
;	COMDAT ?size@?$vector@V?$basic_string@DU?$char_traits@D@std@@V?$allocator@D@2@@std@@V?$allocator@V?$basic_string@DU?$char_traits@D@std@@V?$allocator@D@2@@std@@@2@@std@@QBEIXZ
_TEXT	SEGMENT
?size@?$vector@V?$basic_string@DU?$char_traits@D@std@@V?$allocator@D@2@@std@@V?$allocator@V?$basic_string@DU?$char_traits@D@std@@V?$allocator@D@2@@std@@@2@@std@@QBEIXZ PROC ; std::vector<std::basic_string<char,std::char_traits<char>,std::allocator<char> >,std::allocator<std::basic_string<char,std::char_traits<char>,std::allocator<char> > > >::size, COMDAT
; _this$ = ecx

; 879  : 		return (this->_Mylast - this->_Myfirst);

  00000	8b 41 04	 mov	 eax, DWORD PTR [ecx+4]
  00003	2b 01		 sub	 eax, DWORD PTR [ecx]
  00005	6a 1c		 push	 28			; 0000001cH
  00007	99		 cdq
  00008	59		 pop	 ecx
  00009	f7 f9		 idiv	 ecx

; 880  : 		}

  0000b	c3		 ret	 0
?size@?$vector@V?$basic_string@DU?$char_traits@D@std@@V?$allocator@D@2@@std@@V?$allocator@V?$basic_string@DU?$char_traits@D@std@@V?$allocator@D@2@@std@@@2@@std@@QBEIXZ ENDP ; std::vector<std::basic_string<char,std::char_traits<char>,std::allocator<char> >,std::allocator<std::basic_string<char,std::char_traits<char>,std::allocator<char> > > >::size
_TEXT	ENDS
PUBLIC	??A?$vector@V?$basic_string@DU?$char_traits@D@std@@V?$allocator@D@2@@std@@V?$allocator@V?$basic_string@DU?$char_traits@D@std@@V?$allocator@D@2@@std@@@2@@std@@QAEAAV?$basic_string@DU?$char_traits@D@std@@V?$allocator@D@2@@1@I@Z ; std::vector<std::basic_string<char,std::char_traits<char>,std::allocator<char> >,std::allocator<std::basic_string<char,std::char_traits<char>,std::allocator<char> > > >::operator[]
; Function compile flags: /Ogsp
;	COMDAT ??A?$vector@V?$basic_string@DU?$char_traits@D@std@@V?$allocator@D@2@@std@@V?$allocator@V?$basic_string@DU?$char_traits@D@std@@V?$allocator@D@2@@std@@@2@@std@@QAEAAV?$basic_string@DU?$char_traits@D@std@@V?$allocator@D@2@@1@I@Z
_TEXT	SEGMENT
__Pos$ = 8						; size = 4
??A?$vector@V?$basic_string@DU?$char_traits@D@std@@V?$allocator@D@2@@std@@V?$allocator@V?$basic_string@DU?$char_traits@D@std@@V?$allocator@D@2@@std@@@2@@std@@QAEAAV?$basic_string@DU?$char_traits@D@std@@V?$allocator@D@2@@1@I@Z PROC ; std::vector<std::basic_string<char,std::char_traits<char>,std::allocator<char> >,std::allocator<std::basic_string<char,std::char_traits<char>,std::allocator<char> > > >::operator[], COMDAT
; _this$ = ecx

; 928  : 		{	// subscript mutable sequence

  00000	55		 push	 ebp
  00001	8b ec		 mov	 ebp, esp

; 929  :  #if _ITERATOR_DEBUG_LEVEL == 2
; 930  : 		if (size() <= _Pos)
; 931  : 			{	// report error
; 932  : 			_DEBUG_ERROR("vector subscript out of range");
; 933  : 			_SCL_SECURE_OUT_OF_RANGE;
; 934  : 			}
; 935  : 
; 936  :  #elif _ITERATOR_DEBUG_LEVEL == 1
; 937  : 		_SCL_SECURE_VALIDATE_RANGE(_Pos < size());
; 938  :  #endif /* _ITERATOR_DEBUG_LEVEL */
; 939  : 
; 940  : 		return (*(this->_Myfirst + _Pos));

  00003	8b 45 08	 mov	 eax, DWORD PTR __Pos$[ebp]
  00006	6b c0 1c	 imul	 eax, 28			; 0000001cH
  00009	03 01		 add	 eax, DWORD PTR [ecx]

; 941  : 		}

  0000b	5d		 pop	 ebp
  0000c	c2 04 00	 ret	 4
??A?$vector@V?$basic_string@DU?$char_traits@D@std@@V?$allocator@D@2@@std@@V?$allocator@V?$basic_string@DU?$char_traits@D@std@@V?$allocator@D@2@@std@@@2@@std@@QAEAAV?$basic_string@DU?$char_traits@D@std@@V?$allocator@D@2@@1@I@Z ENDP ; std::vector<std::basic_string<char,std::char_traits<char>,std::allocator<char> >,std::allocator<std::basic_string<char,std::char_traits<char>,std::allocator<char> > > >::operator[]
_TEXT	ENDS
PUBLIC	?size@?$vector@UItemListInfoSort@@V?$allocator@UItemListInfoSort@@@std@@@std@@QBEIXZ ; std::vector<ItemListInfoSort,std::allocator<ItemListInfoSort> >::size
; Function compile flags: /Ogsp
;	COMDAT ?size@?$vector@UItemListInfoSort@@V?$allocator@UItemListInfoSort@@@std@@@std@@QBEIXZ
_TEXT	SEGMENT
?size@?$vector@UItemListInfoSort@@V?$allocator@UItemListInfoSort@@@std@@@std@@QBEIXZ PROC ; std::vector<ItemListInfoSort,std::allocator<ItemListInfoSort> >::size, COMDAT
; _this$ = ecx

; 879  : 		return (this->_Mylast - this->_Myfirst);

  00000	8b 41 04	 mov	 eax, DWORD PTR [ecx+4]
  00003	2b 01		 sub	 eax, DWORD PTR [ecx]
  00005	6a 14		 push	 20			; 00000014H
  00007	99		 cdq
  00008	59		 pop	 ecx
  00009	f7 f9		 idiv	 ecx

; 880  : 		}

  0000b	c3		 ret	 0
?size@?$vector@UItemListInfoSort@@V?$allocator@UItemListInfoSort@@@std@@@std@@QBEIXZ ENDP ; std::vector<ItemListInfoSort,std::allocator<ItemListInfoSort> >::size
_TEXT	ENDS
PUBLIC	?empty@?$vector@UItemListInfoSort@@V?$allocator@UItemListInfoSort@@@std@@@std@@QBE_NXZ ; std::vector<ItemListInfoSort,std::allocator<ItemListInfoSort> >::empty
; Function compile flags: /Ogsp
;	COMDAT ?empty@?$vector@UItemListInfoSort@@V?$allocator@UItemListInfoSort@@@std@@@std@@QBE_NXZ
_TEXT	SEGMENT
?empty@?$vector@UItemListInfoSort@@V?$allocator@UItemListInfoSort@@@std@@@std@@QBE_NXZ PROC ; std::vector<ItemListInfoSort,std::allocator<ItemListInfoSort> >::empty, COMDAT
; _this$ = ecx

; 889  : 		return (this->_Myfirst == this->_Mylast);

  00000	8b 01		 mov	 eax, DWORD PTR [ecx]
  00002	2b 41 04	 sub	 eax, DWORD PTR [ecx+4]
  00005	f7 d8		 neg	 eax
  00007	1b c0		 sbb	 eax, eax
  00009	40		 inc	 eax

; 890  : 		}

  0000a	c3		 ret	 0
?empty@?$vector@UItemListInfoSort@@V?$allocator@UItemListInfoSort@@@std@@@std@@QBE_NXZ ENDP ; std::vector<ItemListInfoSort,std::allocator<ItemListInfoSort> >::empty
_TEXT	ENDS
PUBLIC	??A?$vector@UItemListInfoSort@@V?$allocator@UItemListInfoSort@@@std@@@std@@QAEAAUItemListInfoSort@@I@Z ; std::vector<ItemListInfoSort,std::allocator<ItemListInfoSort> >::operator[]
; Function compile flags: /Ogsp
;	COMDAT ??A?$vector@UItemListInfoSort@@V?$allocator@UItemListInfoSort@@@std@@@std@@QAEAAUItemListInfoSort@@I@Z
_TEXT	SEGMENT
__Pos$ = 8						; size = 4
??A?$vector@UItemListInfoSort@@V?$allocator@UItemListInfoSort@@@std@@@std@@QAEAAUItemListInfoSort@@I@Z PROC ; std::vector<ItemListInfoSort,std::allocator<ItemListInfoSort> >::operator[], COMDAT
; _this$ = ecx

; 928  : 		{	// subscript mutable sequence

  00000	55		 push	 ebp
  00001	8b ec		 mov	 ebp, esp

; 929  :  #if _ITERATOR_DEBUG_LEVEL == 2
; 930  : 		if (size() <= _Pos)
; 931  : 			{	// report error
; 932  : 			_DEBUG_ERROR("vector subscript out of range");
; 933  : 			_SCL_SECURE_OUT_OF_RANGE;
; 934  : 			}
; 935  : 
; 936  :  #elif _ITERATOR_DEBUG_LEVEL == 1
; 937  : 		_SCL_SECURE_VALIDATE_RANGE(_Pos < size());
; 938  :  #endif /* _ITERATOR_DEBUG_LEVEL */
; 939  : 
; 940  : 		return (*(this->_Myfirst + _Pos));

  00003	8b 45 08	 mov	 eax, DWORD PTR __Pos$[ebp]
  00006	6b c0 14	 imul	 eax, 20			; 00000014H
  00009	03 01		 add	 eax, DWORD PTR [ecx]

; 941  : 		}

  0000b	5d		 pop	 ebp
  0000c	c2 04 00	 ret	 4
??A?$vector@UItemListInfoSort@@V?$allocator@UItemListInfoSort@@@std@@@std@@QAEAAUItemListInfoSort@@I@Z ENDP ; std::vector<ItemListInfoSort,std::allocator<ItemListInfoSort> >::operator[]
_TEXT	ENDS
PUBLIC	??2@YAPAXIPAX@Z					; operator new
; Function compile flags: /Ogsp
; File c:\program files (x86)\microsoft visual studio 10.0\vc\include\new
;	COMDAT ??2@YAPAXIPAX@Z
_TEXT	SEGMENT
___formal$ = 8						; size = 4
__Where$ = 12						; size = 4
??2@YAPAXIPAX@Z PROC					; operator new, COMDAT

; 56   : 	{	// construct array with placement at _Where

  00000	55		 push	 ebp
  00001	8b ec		 mov	 ebp, esp

; 57   : 	return (_Where);

  00003	8b 45 0c	 mov	 eax, DWORD PTR __Where$[ebp]

; 58   : 	}

  00006	5d		 pop	 ebp
  00007	c3		 ret	 0
??2@YAPAXIPAX@Z ENDP					; operator new
_TEXT	ENDS
PUBLIC	??3@YAXPAX0@Z					; operator delete
; Function compile flags: /Ogsp
;	COMDAT ??3@YAXPAX0@Z
_TEXT	SEGMENT
___formal$ = 8						; size = 4
___formal$ = 12						; size = 4
??3@YAXPAX0@Z PROC					; operator delete, COMDAT

; 62   : 	}

  00000	c3		 ret	 0
??3@YAXPAX0@Z ENDP					; operator delete
_TEXT	ENDS
PUBLIC	?capacity@?$vector@V?$basic_string@DU?$char_traits@D@std@@V?$allocator@D@2@@std@@V?$allocator@V?$basic_string@DU?$char_traits@D@std@@V?$allocator@D@2@@std@@@2@@std@@QBEIXZ ; std::vector<std::basic_string<char,std::char_traits<char>,std::allocator<char> >,std::allocator<std::basic_string<char,std::char_traits<char>,std::allocator<char> > > >::capacity
; Function compile flags: /Ogsp
; File c:\program files (x86)\microsoft visual studio 10.0\vc\include\vector
;	COMDAT ?capacity@?$vector@V?$basic_string@DU?$char_traits@D@std@@V?$allocator@D@2@@std@@V?$allocator@V?$basic_string@DU?$char_traits@D@std@@V?$allocator@D@2@@std@@@2@@std@@QBEIXZ
_TEXT	SEGMENT
?capacity@?$vector@V?$basic_string@DU?$char_traits@D@std@@V?$allocator@D@2@@std@@V?$allocator@V?$basic_string@DU?$char_traits@D@std@@V?$allocator@D@2@@std@@@2@@std@@QBEIXZ PROC ; std::vector<std::basic_string<char,std::char_traits<char>,std::allocator<char> >,std::allocator<std::basic_string<char,std::char_traits<char>,std::allocator<char> > > >::capacity, COMDAT
; _this$ = ecx

; 777  : 		return (this->_Myend - this->_Myfirst);

  00000	8b 41 08	 mov	 eax, DWORD PTR [ecx+8]
  00003	2b 01		 sub	 eax, DWORD PTR [ecx]
  00005	6a 1c		 push	 28			; 0000001cH
  00007	99		 cdq
  00008	59		 pop	 ecx
  00009	f7 f9		 idiv	 ecx

; 778  : 		}

  0000b	c3		 ret	 0
?capacity@?$vector@V?$basic_string@DU?$char_traits@D@std@@V?$allocator@D@2@@std@@V?$allocator@V?$basic_string@DU?$char_traits@D@std@@V?$allocator@D@2@@std@@@2@@std@@QBEIXZ ENDP ; std::vector<std::basic_string<char,std::char_traits<char>,std::allocator<char> >,std::allocator<std::basic_string<char,std::char_traits<char>,std::allocator<char> > > >::capacity
_TEXT	ENDS
PUBLIC	??0?$allocator@V?$basic_string@DU?$char_traits@D@std@@V?$allocator@D@2@@std@@@std@@QAE@XZ ; std::allocator<std::basic_string<char,std::char_traits<char>,std::allocator<char> > >::allocator<std::basic_string<char,std::char_traits<char>,std::allocator<char> > >
; Function compile flags: /Ogsp
; File c:\program files (x86)\microsoft visual studio 10.0\vc\include\xmemory
;	COMDAT ??0?$allocator@V?$basic_string@DU?$char_traits@D@std@@V?$allocator@D@2@@std@@@std@@QAE@XZ
_TEXT	SEGMENT
??0?$allocator@V?$basic_string@DU?$char_traits@D@std@@V?$allocator@D@2@@std@@@std@@QAE@XZ PROC ; std::allocator<std::basic_string<char,std::char_traits<char>,std::allocator<char> > >::allocator<std::basic_string<char,std::char_traits<char>,std::allocator<char> > >, COMDAT
; _this$ = ecx

; 161  : 	_ALLOCATOR() _THROW0()

  00000	8b c1		 mov	 eax, ecx

; 162  : 		{	// construct default allocator (do nothing)
; 163  : 		}

  00002	c3		 ret	 0
??0?$allocator@V?$basic_string@DU?$char_traits@D@std@@V?$allocator@D@2@@std@@@std@@QAE@XZ ENDP ; std::allocator<std::basic_string<char,std::char_traits<char>,std::allocator<char> > >::allocator<std::basic_string<char,std::char_traits<char>,std::allocator<char> > >
_TEXT	ENDS
PUBLIC	?length@?$char_traits@D@std@@SAIPBD@Z		; std::char_traits<char>::length
; Function compile flags: /Ogsp
; File c:\program files (x86)\microsoft visual studio 10.0\vc\include\iosfwd
;	COMDAT ?length@?$char_traits@D@std@@SAIPBD@Z
_TEXT	SEGMENT
__First$ = 8						; size = 4
?length@?$char_traits@D@std@@SAIPBD@Z PROC		; std::char_traits<char>::length, COMDAT

; 490  : 		{	// find length of null-terminated string

  00000	55		 push	 ebp
  00001	8b ec		 mov	 ebp, esp

; 491  : 		return (_CSTD strlen(_First));

  00003	8b 45 08	 mov	 eax, DWORD PTR __First$[ebp]
  00006	8d 50 01	 lea	 edx, DWORD PTR [eax+1]
$LL3@length:
  00009	8a 08		 mov	 cl, BYTE PTR [eax]
  0000b	40		 inc	 eax
  0000c	84 c9		 test	 cl, cl
  0000e	75 f9		 jne	 SHORT $LL3@length
  00010	2b c2		 sub	 eax, edx

; 492  : 		}

  00012	5d		 pop	 ebp
  00013	c3		 ret	 0
?length@?$char_traits@D@std@@SAIPBD@Z ENDP		; std::char_traits<char>::length
_TEXT	ENDS
PUBLIC	?copy@?$char_traits@D@std@@SAPADPADPBDI@Z	; std::char_traits<char>::copy
EXTRN	_memcpy:PROC
; Function compile flags: /Ogsp
;	COMDAT ?copy@?$char_traits@D@std@@SAPADPADPBDI@Z
_TEXT	SEGMENT
__First1$ = 8						; size = 4
__First2$ = 12						; size = 4
__Count$ = 16						; size = 4
?copy@?$char_traits@D@std@@SAPADPADPBDI@Z PROC		; std::char_traits<char>::copy, COMDAT

; 496  : 		{	// copy [_First1, _First1 + _Count) to [_First2, ...)

  00000	55		 push	 ebp
  00001	8b ec		 mov	 ebp, esp

; 498  : 		}

  00003	5d		 pop	 ebp

; 497  : 		return ((_Elem *)_CSTD memcpy(_First1, _First2, _Count));

  00004	e9 00 00 00 00	 jmp	 _memcpy
?copy@?$char_traits@D@std@@SAPADPADPBDI@Z ENDP		; std::char_traits<char>::copy
_TEXT	ENDS
PUBLIC	?_Inside@?$vector@UItemListInfoSort@@V?$allocator@UItemListInfoSort@@@std@@@std@@IBE_NPBUItemListInfoSort@@@Z ; std::vector<ItemListInfoSort,std::allocator<ItemListInfoSort> >::_Inside
; Function compile flags: /Ogsp
; File c:\program files (x86)\microsoft visual studio 10.0\vc\include\vector
;	COMDAT ?_Inside@?$vector@UItemListInfoSort@@V?$allocator@UItemListInfoSort@@@std@@@std@@IBE_NPBUItemListInfoSort@@@Z
_TEXT	SEGMENT
__Ptr$ = 8						; size = 4
?_Inside@?$vector@UItemListInfoSort@@V?$allocator@UItemListInfoSort@@@std@@@std@@IBE_NPBUItemListInfoSort@@@Z PROC ; std::vector<ItemListInfoSort,std::allocator<ItemListInfoSort> >::_Inside, COMDAT
; _this$ = ecx

; 1285 : 		{	// test if _Ptr points inside vector

  00000	55		 push	 ebp
  00001	8b ec		 mov	 ebp, esp

; 1286 : 		return (_Ptr < this->_Mylast && this->_Myfirst <= _Ptr);

  00003	8b 45 08	 mov	 eax, DWORD PTR __Ptr$[ebp]
  00006	3b 41 04	 cmp	 eax, DWORD PTR [ecx+4]
  00009	73 09		 jae	 SHORT $LN3@Inside
  0000b	39 01		 cmp	 DWORD PTR [ecx], eax
  0000d	77 05		 ja	 SHORT $LN3@Inside
  0000f	33 c0		 xor	 eax, eax
  00011	40		 inc	 eax
  00012	eb 02		 jmp	 SHORT $LN4@Inside
$LN3@Inside:
  00014	33 c0		 xor	 eax, eax
$LN4@Inside:

; 1287 : 		}

  00016	5d		 pop	 ebp
  00017	c2 04 00	 ret	 4
?_Inside@?$vector@UItemListInfoSort@@V?$allocator@UItemListInfoSort@@@std@@@std@@IBE_NPBUItemListInfoSort@@@Z ENDP ; std::vector<ItemListInfoSort,std::allocator<ItemListInfoSort> >::_Inside
_TEXT	ENDS
PUBLIC	?move@?$char_traits@D@std@@SAPADPADPBDI@Z	; std::char_traits<char>::move
EXTRN	__imp__memmove:PROC
; Function compile flags: /Ogsp
; File c:\program files (x86)\microsoft visual studio 10.0\vc\include\iosfwd
;	COMDAT ?move@?$char_traits@D@std@@SAPADPADPBDI@Z
_TEXT	SEGMENT
__First1$ = 8						; size = 4
__First2$ = 12						; size = 4
__Count$ = 16						; size = 4
?move@?$char_traits@D@std@@SAPADPADPBDI@Z PROC		; std::char_traits<char>::move, COMDAT

; 516  : 		{	// copy [_First1, _First1 + _Count) to [_First2, ...)

  00000	55		 push	 ebp
  00001	8b ec		 mov	 ebp, esp

; 518  : 		}

  00003	5d		 pop	 ebp

; 517  : 		return ((_Elem *)_CSTD memmove(_First1, _First2, _Count));

  00004	ff 25 00 00 00
	00		 jmp	 DWORD PTR __imp__memmove
?move@?$char_traits@D@std@@SAPADPADPBDI@Z ENDP		; std::char_traits<char>::move
_TEXT	ENDS
PUBLIC	?assign@?$char_traits@D@std@@SAXAADABD@Z	; std::char_traits<char>::assign
; Function compile flags: /Ogsp
;	COMDAT ?assign@?$char_traits@D@std@@SAXAADABD@Z
_TEXT	SEGMENT
__Left$ = 8						; size = 4
__Right$ = 12						; size = 4
?assign@?$char_traits@D@std@@SAXAADABD@Z PROC		; std::char_traits<char>::assign, COMDAT

; 526  : 		{	// assign an element

  00000	55		 push	 ebp
  00001	8b ec		 mov	 ebp, esp

; 527  : 		_Left = _Right;

  00003	8b 45 0c	 mov	 eax, DWORD PTR __Right$[ebp]
  00006	8a 00		 mov	 al, BYTE PTR [eax]
  00008	8b 4d 08	 mov	 ecx, DWORD PTR __Left$[ebp]
  0000b	88 01		 mov	 BYTE PTR [ecx], al

; 528  : 		}

  0000d	5d		 pop	 ebp
  0000e	c3		 ret	 0
?assign@?$char_traits@D@std@@SAXAADABD@Z ENDP		; std::char_traits<char>::assign
_TEXT	ENDS
PUBLIC	?_Orphan_range@?$vector@UItemListInfoSort@@V?$allocator@UItemListInfoSort@@@std@@@std@@IBEXPAUItemListInfoSort@@0@Z ; std::vector<ItemListInfoSort,std::allocator<ItemListInfoSort> >::_Orphan_range
; Function compile flags: /Ogsp
; File c:\program files (x86)\microsoft visual studio 10.0\vc\include\vector
;	COMDAT ?_Orphan_range@?$vector@UItemListInfoSort@@V?$allocator@UItemListInfoSort@@@std@@@std@@IBEXPAUItemListInfoSort@@0@Z
_TEXT	SEGMENT
___formal$ = 8						; size = 4
___formal$ = 12						; size = 4
?_Orphan_range@?$vector@UItemListInfoSort@@V?$allocator@UItemListInfoSort@@@std@@@std@@IBEXPAUItemListInfoSort@@0@Z PROC ; std::vector<ItemListInfoSort,std::allocator<ItemListInfoSort> >::_Orphan_range, COMDAT
; _this$ = ecx

; 1454 : 		}

  00000	c2 08 00	 ret	 8
?_Orphan_range@?$vector@UItemListInfoSort@@V?$allocator@UItemListInfoSort@@@std@@@std@@IBEXPAUItemListInfoSort@@0@Z ENDP ; std::vector<ItemListInfoSort,std::allocator<ItemListInfoSort> >::_Orphan_range
_TEXT	ENDS
PUBLIC	??1?$_Vector_val@UItemListInfoSort@@V?$allocator@UItemListInfoSort@@@std@@@std@@QAE@XZ ; std::_Vector_val<ItemListInfoSort,std::allocator<ItemListInfoSort> >::~_Vector_val<ItemListInfoSort,std::allocator<ItemListInfoSort> >
; Function compile flags: /Ogsp
;	COMDAT ??1?$_Vector_val@UItemListInfoSort@@V?$allocator@UItemListInfoSort@@@std@@@std@@QAE@XZ
_TEXT	SEGMENT
??1?$_Vector_val@UItemListInfoSort@@V?$allocator@UItemListInfoSort@@@std@@@std@@QAE@XZ PROC ; std::_Vector_val<ItemListInfoSort,std::allocator<ItemListInfoSort> >::~_Vector_val<ItemListInfoSort,std::allocator<ItemListInfoSort> >, COMDAT
; _this$ = ecx

; 434  : 		}

  00000	c3		 ret	 0
??1?$_Vector_val@UItemListInfoSort@@V?$allocator@UItemListInfoSort@@@std@@@std@@QAE@XZ ENDP ; std::_Vector_val<ItemListInfoSort,std::allocator<ItemListInfoSort> >::~_Vector_val<ItemListInfoSort,std::allocator<ItemListInfoSort> >
_TEXT	ENDS
PUBLIC	??0?$allocator@UItemListInfoSort@@@std@@QAE@XZ	; std::allocator<ItemListInfoSort>::allocator<ItemListInfoSort>
; Function compile flags: /Ogsp
; File c:\program files (x86)\microsoft visual studio 10.0\vc\include\xmemory
;	COMDAT ??0?$allocator@UItemListInfoSort@@@std@@QAE@XZ
_TEXT	SEGMENT
??0?$allocator@UItemListInfoSort@@@std@@QAE@XZ PROC	; std::allocator<ItemListInfoSort>::allocator<ItemListInfoSort>, COMDAT
; _this$ = ecx

; 161  : 	_ALLOCATOR() _THROW0()

  00000	8b c1		 mov	 eax, ecx

; 162  : 		{	// construct default allocator (do nothing)
; 163  : 		}

  00002	c3		 ret	 0
??0?$allocator@UItemListInfoSort@@@std@@QAE@XZ ENDP	; std::allocator<ItemListInfoSort>::allocator<ItemListInfoSort>
_TEXT	ENDS
PUBLIC	??D?$_Vector_const_iterator@V?$_Vector_val@UItemListInfoSort@@V?$allocator@UItemListInfoSort@@@std@@@std@@@std@@QBEABUItemListInfoSort@@XZ ; std::_Vector_const_iterator<std::_Vector_val<ItemListInfoSort,std::allocator<ItemListInfoSort> > >::operator*
; Function compile flags: /Ogsp
; File c:\program files (x86)\microsoft visual studio 10.0\vc\include\vector
;	COMDAT ??D?$_Vector_const_iterator@V?$_Vector_val@UItemListInfoSort@@V?$allocator@UItemListInfoSort@@@std@@@std@@@std@@QBEABUItemListInfoSort@@XZ
_TEXT	SEGMENT
??D?$_Vector_const_iterator@V?$_Vector_val@UItemListInfoSort@@V?$allocator@UItemListInfoSort@@@std@@@std@@@std@@QBEABUItemListInfoSort@@XZ PROC ; std::_Vector_const_iterator<std::_Vector_val<ItemListInfoSort,std::allocator<ItemListInfoSort> > >::operator*, COMDAT
; _this$ = ecx

; 64   :  #if _ITERATOR_DEBUG_LEVEL == 2
; 65   : 		if (this->_Getcont() == 0
; 66   : 			|| this->_Ptr == 0
; 67   : 			|| this->_Ptr < ((_Myvec *)this->_Getcont())->_Myfirst
; 68   : 			|| ((_Myvec *)this->_Getcont())->_Mylast <= this->_Ptr)
; 69   : 			{	// report error
; 70   : 			_DEBUG_ERROR("vector iterator not dereferencable");
; 71   : 			_SCL_SECURE_OUT_OF_RANGE;
; 72   : 			}
; 73   : 
; 74   :  #elif _ITERATOR_DEBUG_LEVEL == 1
; 75   : 		_SCL_SECURE_VALIDATE(this->_Getcont() != 0);
; 76   : 		_SCL_SECURE_VALIDATE_RANGE(
; 77   : 			this->_Ptr != 0
; 78   : 			&& ((_Myvec *)this->_Getcont())->_Myfirst <= this->_Ptr
; 79   : 			&& this->_Ptr < ((_Myvec *)this->_Getcont())->_Mylast);
; 80   :  #endif /* _ITERATOR_DEBUG_LEVEL */
; 81   : 
; 82   : 		__analysis_assume(this->_Ptr != 0);
; 83   : 
; 84   : 		return (*this->_Ptr);

  00000	8b 01		 mov	 eax, DWORD PTR [ecx]

; 85   : 		}

  00002	c3		 ret	 0
??D?$_Vector_const_iterator@V?$_Vector_val@UItemListInfoSort@@V?$allocator@UItemListInfoSort@@@std@@@std@@@std@@QBEABUItemListInfoSort@@XZ ENDP ; std::_Vector_const_iterator<std::_Vector_val<ItemListInfoSort,std::allocator<ItemListInfoSort> > >::operator*
_TEXT	ENDS
PUBLIC	??E?$_Vector_const_iterator@V?$_Vector_val@UItemListInfoSort@@V?$allocator@UItemListInfoSort@@@std@@@std@@@std@@QAEAAV01@XZ ; std::_Vector_const_iterator<std::_Vector_val<ItemListInfoSort,std::allocator<ItemListInfoSort> > >::operator++
; Function compile flags: /Ogsp
;	COMDAT ??E?$_Vector_const_iterator@V?$_Vector_val@UItemListInfoSort@@V?$allocator@UItemListInfoSort@@@std@@@std@@@std@@QAEAAV01@XZ
_TEXT	SEGMENT
??E?$_Vector_const_iterator@V?$_Vector_val@UItemListInfoSort@@V?$allocator@UItemListInfoSort@@@std@@@std@@@std@@QAEAAV01@XZ PROC ; std::_Vector_const_iterator<std::_Vector_val<ItemListInfoSort,std::allocator<ItemListInfoSort> > >::operator++, COMDAT
; _this$ = ecx

; 93   : 		{	// preincrement

  00000	8b c1		 mov	 eax, ecx

; 94   :  #if _ITERATOR_DEBUG_LEVEL == 2
; 95   : 		if (this->_Getcont() == 0
; 96   : 			|| this->_Ptr == 0
; 97   : 			|| ((_Myvec *)this->_Getcont())->_Mylast <= this->_Ptr)
; 98   : 			{	// report error
; 99   : 			_DEBUG_ERROR("vector iterator not incrementable");
; 100  : 			_SCL_SECURE_OUT_OF_RANGE;
; 101  : 			}
; 102  : 
; 103  :  #elif _ITERATOR_DEBUG_LEVEL == 1
; 104  : 		_SCL_SECURE_VALIDATE(this->_Getcont() != 0);
; 105  : 		_SCL_SECURE_VALIDATE_RANGE(
; 106  : 			this->_Ptr != 0
; 107  : 			&& this->_Ptr < ((_Myvec *)this->_Getcont())->_Mylast);
; 108  :  #endif /* _ITERATOR_DEBUG_LEVEL */
; 109  : 
; 110  : 		++this->_Ptr;

  00002	83 00 14	 add	 DWORD PTR [eax], 20	; 00000014H

; 111  : 		return (*this);
; 112  : 		}

  00005	c3		 ret	 0
??E?$_Vector_const_iterator@V?$_Vector_val@UItemListInfoSort@@V?$allocator@UItemListInfoSort@@@std@@@std@@@std@@QAEAAV01@XZ ENDP ; std::_Vector_const_iterator<std::_Vector_val<ItemListInfoSort,std::allocator<ItemListInfoSort> > >::operator++
_TEXT	ENDS
PUBLIC	??_C@_0BD@OLBABOEK@vector?$DMT?$DO?5too?5long?$AA@ ; `string'
PUBLIC	?_Xlen@?$vector@V?$basic_string@DU?$char_traits@D@std@@V?$allocator@D@2@@std@@V?$allocator@V?$basic_string@DU?$char_traits@D@std@@V?$allocator@D@2@@std@@@2@@std@@IBEXXZ ; std::vector<std::basic_string<char,std::char_traits<char>,std::allocator<char> >,std::allocator<std::basic_string<char,std::char_traits<char>,std::allocator<char> > > >::_Xlen
EXTRN	__imp_?_Xlength_error@std@@YAXPBD@Z:PROC
;	COMDAT ??_C@_0BD@OLBABOEK@vector?$DMT?$DO?5too?5long?$AA@
CONST	SEGMENT
??_C@_0BD@OLBABOEK@vector?$DMT?$DO?5too?5long?$AA@ DB 'vector<T> too long'
	DB	00H						; `string'
; Function compile flags: /Ogsp
CONST	ENDS
;	COMDAT ?_Xlen@?$vector@V?$basic_string@DU?$char_traits@D@std@@V?$allocator@D@2@@std@@V?$allocator@V?$basic_string@DU?$char_traits@D@std@@V?$allocator@D@2@@std@@@2@@std@@IBEXXZ
_TEXT	SEGMENT
?_Xlen@?$vector@V?$basic_string@DU?$char_traits@D@std@@V?$allocator@D@2@@std@@V?$allocator@V?$basic_string@DU?$char_traits@D@std@@V?$allocator@D@2@@std@@@2@@std@@IBEXXZ PROC ; std::vector<std::basic_string<char,std::char_traits<char>,std::allocator<char> >,std::allocator<std::basic_string<char,std::char_traits<char>,std::allocator<char> > > >::_Xlen, COMDAT
; _this$ = ecx

; 1427 : 		_Xlength_error("vector<T> too long");

  00000	68 00 00 00 00	 push	 OFFSET ??_C@_0BD@OLBABOEK@vector?$DMT?$DO?5too?5long?$AA@
  00005	ff 15 00 00 00
	00		 call	 DWORD PTR __imp_?_Xlength_error@std@@YAXPBD@Z
$LN4@Xlen:
$LN3@Xlen:
  0000b	cc		 int	 3
?_Xlen@?$vector@V?$basic_string@DU?$char_traits@D@std@@V?$allocator@D@2@@std@@V?$allocator@V?$basic_string@DU?$char_traits@D@std@@V?$allocator@D@2@@std@@@2@@std@@IBEXXZ ENDP ; std::vector<std::basic_string<char,std::char_traits<char>,std::allocator<char> >,std::allocator<std::basic_string<char,std::char_traits<char>,std::allocator<char> > > >::_Xlen
_TEXT	ENDS
PUBLIC	??0?$allocator@V?$basic_string@DU?$char_traits@D@std@@V?$allocator@D@2@@std@@@std@@QAE@ABV01@@Z ; std::allocator<std::basic_string<char,std::char_traits<char>,std::allocator<char> > >::allocator<std::basic_string<char,std::char_traits<char>,std::allocator<char> > >
; Function compile flags: /Ogsp
; File c:\program files (x86)\microsoft visual studio 10.0\vc\include\xmemory
;	COMDAT ??0?$allocator@V?$basic_string@DU?$char_traits@D@std@@V?$allocator@D@2@@std@@@std@@QAE@ABV01@@Z
_TEXT	SEGMENT
___formal$ = 8						; size = 4
??0?$allocator@V?$basic_string@DU?$char_traits@D@std@@V?$allocator@D@2@@std@@@std@@QAE@ABV01@@Z PROC ; std::allocator<std::basic_string<char,std::char_traits<char>,std::allocator<char> > >::allocator<std::basic_string<char,std::char_traits<char>,std::allocator<char> > >, COMDAT
; _this$ = ecx

; 165  : 	_ALLOCATOR(const _ALLOCATOR<_Ty>&) _THROW0()

  00000	8b c1		 mov	 eax, ecx

; 166  : 		{	// construct by copying (do nothing)
; 167  : 		}

  00002	c2 04 00	 ret	 4
??0?$allocator@V?$basic_string@DU?$char_traits@D@std@@V?$allocator@D@2@@std@@@std@@QAE@ABV01@@Z ENDP ; std::allocator<std::basic_string<char,std::char_traits<char>,std::allocator<char> > >::allocator<std::basic_string<char,std::char_traits<char>,std::allocator<char> > >
_TEXT	ENDS
PUBLIC	?capacity@?$vector@UItemListInfoSort@@V?$allocator@UItemListInfoSort@@@std@@@std@@QBEIXZ ; std::vector<ItemListInfoSort,std::allocator<ItemListInfoSort> >::capacity
; Function compile flags: /Ogsp
; File c:\program files (x86)\microsoft visual studio 10.0\vc\include\vector
;	COMDAT ?capacity@?$vector@UItemListInfoSort@@V?$allocator@UItemListInfoSort@@@std@@@std@@QBEIXZ
_TEXT	SEGMENT
?capacity@?$vector@UItemListInfoSort@@V?$allocator@UItemListInfoSort@@@std@@@std@@QBEIXZ PROC ; std::vector<ItemListInfoSort,std::allocator<ItemListInfoSort> >::capacity, COMDAT
; _this$ = ecx

; 777  : 		return (this->_Myend - this->_Myfirst);

  00000	8b 41 08	 mov	 eax, DWORD PTR [ecx+8]
  00003	2b 01		 sub	 eax, DWORD PTR [ecx]
  00005	6a 14		 push	 20			; 00000014H
  00007	99		 cdq
  00008	59		 pop	 ecx
  00009	f7 f9		 idiv	 ecx

; 778  : 		}

  0000b	c3		 ret	 0
?capacity@?$vector@UItemListInfoSort@@V?$allocator@UItemListInfoSort@@@std@@@std@@QBEIXZ ENDP ; std::vector<ItemListInfoSort,std::allocator<ItemListInfoSort> >::capacity
_TEXT	ENDS
PUBLIC	?_Xlen@?$vector@UItemListInfoSort@@V?$allocator@UItemListInfoSort@@@std@@@std@@IBEXXZ ; std::vector<ItemListInfoSort,std::allocator<ItemListInfoSort> >::_Xlen
; Function compile flags: /Ogsp
;	COMDAT ?_Xlen@?$vector@UItemListInfoSort@@V?$allocator@UItemListInfoSort@@@std@@@std@@IBEXXZ
_TEXT	SEGMENT
?_Xlen@?$vector@UItemListInfoSort@@V?$allocator@UItemListInfoSort@@@std@@@std@@IBEXXZ PROC ; std::vector<ItemListInfoSort,std::allocator<ItemListInfoSort> >::_Xlen, COMDAT
; _this$ = ecx

; 1427 : 		_Xlength_error("vector<T> too long");

  00000	68 00 00 00 00	 push	 OFFSET ??_C@_0BD@OLBABOEK@vector?$DMT?$DO?5too?5long?$AA@
  00005	ff 15 00 00 00
	00		 call	 DWORD PTR __imp_?_Xlength_error@std@@YAXPBD@Z
$LN4@Xlen@2:
$LN3@Xlen@2:
  0000b	cc		 int	 3
?_Xlen@?$vector@UItemListInfoSort@@V?$allocator@UItemListInfoSort@@@std@@@std@@IBEXXZ ENDP ; std::vector<ItemListInfoSort,std::allocator<ItemListInfoSort> >::_Xlen
_TEXT	ENDS
PUBLIC	??0?$allocator@UItemListInfoSort@@@std@@QAE@ABV01@@Z ; std::allocator<ItemListInfoSort>::allocator<ItemListInfoSort>
; Function compile flags: /Ogsp
; File c:\program files (x86)\microsoft visual studio 10.0\vc\include\xmemory
;	COMDAT ??0?$allocator@UItemListInfoSort@@@std@@QAE@ABV01@@Z
_TEXT	SEGMENT
___formal$ = 8						; size = 4
??0?$allocator@UItemListInfoSort@@@std@@QAE@ABV01@@Z PROC ; std::allocator<ItemListInfoSort>::allocator<ItemListInfoSort>, COMDAT
; _this$ = ecx

; 165  : 	_ALLOCATOR(const _ALLOCATOR<_Ty>&) _THROW0()

  00000	8b c1		 mov	 eax, ecx

; 166  : 		{	// construct by copying (do nothing)
; 167  : 		}

  00002	c2 04 00	 ret	 4
??0?$allocator@UItemListInfoSort@@@std@@QAE@ABV01@@Z ENDP ; std::allocator<ItemListInfoSort>::allocator<ItemListInfoSort>
_TEXT	ENDS
PUBLIC	?deallocate@?$allocator@UItemListInfoSort@@@std@@QAEXPAUItemListInfoSort@@I@Z ; std::allocator<ItemListInfoSort>::deallocate
; Function compile flags: /Ogsp
;	COMDAT ?deallocate@?$allocator@UItemListInfoSort@@@std@@QAEXPAUItemListInfoSort@@I@Z
_TEXT	SEGMENT
__Ptr$ = 8						; size = 4
___formal$ = 12						; size = 4
?deallocate@?$allocator@UItemListInfoSort@@@std@@QAEXPAUItemListInfoSort@@I@Z PROC ; std::allocator<ItemListInfoSort>::deallocate, COMDAT
; _this$ = ecx

; 181  : 		{	// deallocate object at _Ptr, ignore size

  00000	55		 push	 ebp
  00001	8b ec		 mov	 ebp, esp

; 182  : 		::operator delete(_Ptr);

  00003	ff 75 08	 push	 DWORD PTR __Ptr$[ebp]
  00006	e8 00 00 00 00	 call	 ??3@YAXPAX@Z		; operator delete
  0000b	59		 pop	 ecx

; 183  : 		}

  0000c	5d		 pop	 ebp
  0000d	c2 08 00	 ret	 8
?deallocate@?$allocator@UItemListInfoSort@@@std@@QAEXPAUItemListInfoSort@@I@Z ENDP ; std::allocator<ItemListInfoSort>::deallocate
_TEXT	ENDS
PUBLIC	?_Compat@?$_Vector_const_iterator@V?$_Vector_val@UItemListInfoSort@@V?$allocator@UItemListInfoSort@@@std@@@std@@@std@@QBEXABV12@@Z ; std::_Vector_const_iterator<std::_Vector_val<ItemListInfoSort,std::allocator<ItemListInfoSort> > >::_Compat
; Function compile flags: /Ogsp
; File c:\program files (x86)\microsoft visual studio 10.0\vc\include\vector
;	COMDAT ?_Compat@?$_Vector_const_iterator@V?$_Vector_val@UItemListInfoSort@@V?$allocator@UItemListInfoSort@@@std@@@std@@@std@@QBEXABV12@@Z
_TEXT	SEGMENT
___formal$ = 8						; size = 4
?_Compat@?$_Vector_const_iterator@V?$_Vector_val@UItemListInfoSort@@V?$allocator@UItemListInfoSort@@@std@@@std@@@std@@QBEXABV12@@Z PROC ; std::_Vector_const_iterator<std::_Vector_val<ItemListInfoSort,std::allocator<ItemListInfoSort> > >::_Compat, COMDAT
; _this$ = ecx

; 253  : 		}

  00000	c2 04 00	 ret	 4
?_Compat@?$_Vector_const_iterator@V?$_Vector_val@UItemListInfoSort@@V?$allocator@UItemListInfoSort@@@std@@@std@@@std@@QBEXABV12@@Z ENDP ; std::_Vector_const_iterator<std::_Vector_val<ItemListInfoSort,std::allocator<ItemListInfoSort> > >::_Compat
_TEXT	ENDS
PUBLIC	?max_size@?$allocator@V?$basic_string@DU?$char_traits@D@std@@V?$allocator@D@2@@std@@@std@@QBEIXZ ; std::allocator<std::basic_string<char,std::char_traits<char>,std::allocator<char> > >::max_size
; Function compile flags: /Ogsp
; File c:\program files (x86)\microsoft visual studio 10.0\vc\include\xmemory
;	COMDAT ?max_size@?$allocator@V?$basic_string@DU?$char_traits@D@std@@V?$allocator@D@2@@std@@@std@@QBEIXZ
_TEXT	SEGMENT
?max_size@?$allocator@V?$basic_string@DU?$char_traits@D@std@@V?$allocator@D@2@@std@@@std@@QBEIXZ PROC ; std::allocator<std::basic_string<char,std::char_traits<char>,std::allocator<char> > >::max_size, COMDAT
; _this$ = ecx

; 218  : 		_SIZT _Count = (_SIZT)(-1) / sizeof (_Ty);
; 219  : 		return (0 < _Count ? _Count : 1);

  00000	b8 49 92 24 09	 mov	 eax, 153391689		; 09249249H

; 220  : 		}

  00005	c3		 ret	 0
?max_size@?$allocator@V?$basic_string@DU?$char_traits@D@std@@V?$allocator@D@2@@std@@@std@@QBEIXZ ENDP ; std::allocator<std::basic_string<char,std::char_traits<char>,std::allocator<char> > >::max_size
_TEXT	ENDS
PUBLIC	?max_size@?$allocator@UItemListInfoSort@@@std@@QBEIXZ ; std::allocator<ItemListInfoSort>::max_size
; Function compile flags: /Ogsp
;	COMDAT ?max_size@?$allocator@UItemListInfoSort@@@std@@QBEIXZ
_TEXT	SEGMENT
?max_size@?$allocator@UItemListInfoSort@@@std@@QBEIXZ PROC ; std::allocator<ItemListInfoSort>::max_size, COMDAT
; _this$ = ecx

; 218  : 		_SIZT _Count = (_SIZT)(-1) / sizeof (_Ty);
; 219  : 		return (0 < _Count ? _Count : 1);

  00000	b8 cc cc cc 0c	 mov	 eax, 214748364		; 0cccccccH

; 220  : 		}

  00005	c3		 ret	 0
?max_size@?$allocator@UItemListInfoSort@@@std@@QBEIXZ ENDP ; std::allocator<ItemListInfoSort>::max_size
_TEXT	ENDS
PUBLIC	?_Compat@?$_Vector_const_iterator@V?$_Vector_val@V?$basic_string@DU?$char_traits@D@std@@V?$allocator@D@2@@std@@V?$allocator@V?$basic_string@DU?$char_traits@D@std@@V?$allocator@D@2@@std@@@2@@std@@@std@@QBEXABV12@@Z ; std::_Vector_const_iterator<std::_Vector_val<std::basic_string<char,std::char_traits<char>,std::allocator<char> >,std::allocator<std::basic_string<char,std::char_traits<char>,std::allocator<char> > > > >::_Compat
; Function compile flags: /Ogsp
; File c:\program files (x86)\microsoft visual studio 10.0\vc\include\vector
;	COMDAT ?_Compat@?$_Vector_const_iterator@V?$_Vector_val@V?$basic_string@DU?$char_traits@D@std@@V?$allocator@D@2@@std@@V?$allocator@V?$basic_string@DU?$char_traits@D@std@@V?$allocator@D@2@@std@@@2@@std@@@std@@QBEXABV12@@Z
_TEXT	SEGMENT
___formal$ = 8						; size = 4
?_Compat@?$_Vector_const_iterator@V?$_Vector_val@V?$basic_string@DU?$char_traits@D@std@@V?$allocator@D@2@@std@@V?$allocator@V?$basic_string@DU?$char_traits@D@std@@V?$allocator@D@2@@std@@@2@@std@@@std@@QBEXABV12@@Z PROC ; std::_Vector_const_iterator<std::_Vector_val<std::basic_string<char,std::char_traits<char>,std::allocator<char> >,std::allocator<std::basic_string<char,std::char_traits<char>,std::allocator<char> > > > >::_Compat, COMDAT
; _this$ = ecx

; 253  : 		}

  00000	c2 04 00	 ret	 4
?_Compat@?$_Vector_const_iterator@V?$_Vector_val@V?$basic_string@DU?$char_traits@D@std@@V?$allocator@D@2@@std@@V?$allocator@V?$basic_string@DU?$char_traits@D@std@@V?$allocator@D@2@@std@@@2@@std@@@std@@QBEXABV12@@Z ENDP ; std::_Vector_const_iterator<std::_Vector_val<std::basic_string<char,std::char_traits<char>,std::allocator<char> >,std::allocator<std::basic_string<char,std::char_traits<char>,std::allocator<char> > > > >::_Compat
_TEXT	ENDS
PUBLIC	??$addressof@$$CBUItemListInfoSort@@@std@@YAPBUItemListInfoSort@@ABU1@@Z ; std::addressof<ItemListInfoSort const >
; Function compile flags: /Ogsp
; File c:\program files (x86)\microsoft visual studio 10.0\vc\include\xmemory
;	COMDAT ??$addressof@$$CBUItemListInfoSort@@@std@@YAPBUItemListInfoSort@@ABU1@@Z
_TEXT	SEGMENT
__Val$ = 8						; size = 4
??$addressof@$$CBUItemListInfoSort@@@std@@YAPBUItemListInfoSort@@ABU1@@Z PROC ; std::addressof<ItemListInfoSort const >, COMDAT

; 110  : 	{	// return address of _Val

  00000	55		 push	 ebp
  00001	8b ec		 mov	 ebp, esp

; 111  : 	return ((_Ty *) &(char&)_Val);

  00003	8b 45 08	 mov	 eax, DWORD PTR __Val$[ebp]

; 112  : 	}

  00006	5d		 pop	 ebp
  00007	c3		 ret	 0
??$addressof@$$CBUItemListInfoSort@@@std@@YAPBUItemListInfoSort@@ABU1@@Z ENDP ; std::addressof<ItemListInfoSort const >
_TEXT	ENDS
PUBLIC	__TI2?AVbad_alloc@std@@
PUBLIC	??$_Allocate@V?$basic_string@DU?$char_traits@D@std@@V?$allocator@D@2@@std@@@std@@YAPAV?$basic_string@DU?$char_traits@D@std@@V?$allocator@D@2@@0@IPAV10@@Z ; std::_Allocate<std::basic_string<char,std::char_traits<char>,std::allocator<char> > >
PUBLIC	__CTA2?AVbad_alloc@std@@
PUBLIC	__CT??_R0?AVbad_alloc@std@@@8??0bad_alloc@std@@QAE@ABV01@@Z12
PUBLIC	??0bad_alloc@std@@QAE@ABV01@@Z			; std::bad_alloc::bad_alloc
PUBLIC	__CT??_R0?AVexception@std@@@8??0exception@std@@QAE@ABV01@@Z12
EXTRN	??2@YAPAXI@Z:PROC				; operator new
EXTRN	__CxxThrowException@8:PROC
EXTRN	??0exception@std@@QAE@ABV01@@Z:PROC		; std::exception::exception
;	COMDAT __CT??_R0?AVexception@std@@@8??0exception@std@@QAE@ABV01@@Z12
; File c:\program files (x86)\microsoft visual studio 10.0\vc\include\exception
xdata$x	SEGMENT
__CT??_R0?AVexception@std@@@8??0exception@std@@QAE@ABV01@@Z12 DD 00H
	DD	FLAT:??_R0?AVexception@std@@@8
	DD	00H
	DD	0ffffffffH
	ORG $+4
	DD	0cH
	DD	FLAT:??0exception@std@@QAE@ABV01@@Z
xdata$x	ENDS
;	COMDAT __CT??_R0?AVbad_alloc@std@@@8??0bad_alloc@std@@QAE@ABV01@@Z12
xdata$x	SEGMENT
__CT??_R0?AVbad_alloc@std@@@8??0bad_alloc@std@@QAE@ABV01@@Z12 DD 00H
	DD	FLAT:??_R0?AVbad_alloc@std@@@8
	DD	00H
	DD	0ffffffffH
	ORG $+4
	DD	0cH
	DD	FLAT:??0bad_alloc@std@@QAE@ABV01@@Z
xdata$x	ENDS
;	COMDAT __CTA2?AVbad_alloc@std@@
xdata$x	SEGMENT
__CTA2?AVbad_alloc@std@@ DD 02H
	DD	FLAT:__CT??_R0?AVbad_alloc@std@@@8??0bad_alloc@std@@QAE@ABV01@@Z12
	DD	FLAT:__CT??_R0?AVexception@std@@@8??0exception@std@@QAE@ABV01@@Z12
xdata$x	ENDS
;	COMDAT __TI2?AVbad_alloc@std@@
xdata$x	SEGMENT
__TI2?AVbad_alloc@std@@ DD 00H
	DD	FLAT:??1bad_alloc@std@@UAE@XZ
	DD	00H
	DD	FLAT:__CTA2?AVbad_alloc@std@@
; Function compile flags: /Ogsp
; File c:\program files (x86)\microsoft visual studio 10.0\vc\include\xmemory
xdata$x	ENDS
;	COMDAT ??$_Allocate@V?$basic_string@DU?$char_traits@D@std@@V?$allocator@D@2@@std@@@std@@YAPAV?$basic_string@DU?$char_traits@D@std@@V?$allocator@D@2@@0@IPAV10@@Z
_TEXT	SEGMENT
$T508289 = -12						; size = 12
$T508294 = 8						; size = 4
__Count$ = 8						; size = 4
___formal$ = 12						; size = 4
??$_Allocate@V?$basic_string@DU?$char_traits@D@std@@V?$allocator@D@2@@std@@@std@@YAPAV?$basic_string@DU?$char_traits@D@std@@V?$allocator@D@2@@0@IPAV10@@Z PROC ; std::_Allocate<std::basic_string<char,std::char_traits<char>,std::allocator<char> > >, COMDAT

; 30   : 	{	// allocate storage for _Count elements of type _Ty

  00000	55		 push	 ebp
  00001	8b ec		 mov	 ebp, esp

; 31   : 	void *_Ptr = 0;
; 32   : 
; 33   : 	if (_Count <= 0)

  00003	8b 4d 08	 mov	 ecx, DWORD PTR __Count$[ebp]
  00006	83 ec 0c	 sub	 esp, 12			; 0000000cH
  00009	33 c0		 xor	 eax, eax
  0000b	85 c9		 test	 ecx, ecx

; 34   : 		_Count = 0;
; 35   : 	else if (((_SIZT)(-1) / sizeof (_Ty) < _Count)

  0000d	74 3c		 je	 SHORT $LN5@Allocate

; 36   : 		|| (_Ptr = ::operator new(_Count * sizeof (_Ty))) == 0)

  0000f	81 f9 49 92 24
	09		 cmp	 ecx, 153391689		; 09249249H
  00015	77 0e		 ja	 SHORT $LN1@Allocate
  00017	6b c9 1c	 imul	 ecx, 28			; 0000001cH
  0001a	51		 push	 ecx
  0001b	e8 00 00 00 00	 call	 ??2@YAPAXI@Z		; operator new
  00020	59		 pop	 ecx
  00021	85 c0		 test	 eax, eax

; 38   : 
; 39   : 	return ((_Ty _FARQ *)_Ptr);

  00023	75 26		 jne	 SHORT $LN5@Allocate
$LN1@Allocate:

; 37   : 		_THROW_NCEE(bad_alloc, 0);

  00025	83 65 08 00	 and	 DWORD PTR $T508294[ebp], 0
  00029	8d 45 08	 lea	 eax, DWORD PTR $T508294[ebp]
  0002c	50		 push	 eax
  0002d	8d 4d f4	 lea	 ecx, DWORD PTR $T508289[ebp]
  00030	ff 15 00 00 00
	00		 call	 DWORD PTR __imp_??0exception@std@@QAE@ABQBD@Z
  00036	68 00 00 00 00	 push	 OFFSET __TI2?AVbad_alloc@std@@
  0003b	8d 45 f4	 lea	 eax, DWORD PTR $T508289[ebp]
  0003e	50		 push	 eax
  0003f	c7 45 f4 00 00
	00 00		 mov	 DWORD PTR $T508289[ebp], OFFSET ??_7bad_alloc@std@@6B@
  00046	e8 00 00 00 00	 call	 __CxxThrowException@8
$LN10@Allocate:
$LN5@Allocate:

; 40   : 	}

  0004b	c9		 leave
  0004c	c3		 ret	 0
$LN9@Allocate:
??$_Allocate@V?$basic_string@DU?$char_traits@D@std@@V?$allocator@D@2@@std@@@std@@YAPAV?$basic_string@DU?$char_traits@D@std@@V?$allocator@D@2@@0@IPAV10@@Z ENDP ; std::_Allocate<std::basic_string<char,std::char_traits<char>,std::allocator<char> > >
_TEXT	ENDS
PUBLIC	??$_Allocate@UItemListInfoSort@@@std@@YAPAUItemListInfoSort@@IPAU1@@Z ; std::_Allocate<ItemListInfoSort>
; Function compile flags: /Ogsp
;	COMDAT ??$_Allocate@UItemListInfoSort@@@std@@YAPAUItemListInfoSort@@IPAU1@@Z
_TEXT	SEGMENT
$T508299 = -12						; size = 12
$T508303 = 8						; size = 4
__Count$ = 8						; size = 4
___formal$ = 12						; size = 4
??$_Allocate@UItemListInfoSort@@@std@@YAPAUItemListInfoSort@@IPAU1@@Z PROC ; std::_Allocate<ItemListInfoSort>, COMDAT

; 30   : 	{	// allocate storage for _Count elements of type _Ty

  00000	55		 push	 ebp
  00001	8b ec		 mov	 ebp, esp

; 31   : 	void *_Ptr = 0;
; 32   : 
; 33   : 	if (_Count <= 0)

  00003	8b 4d 08	 mov	 ecx, DWORD PTR __Count$[ebp]
  00006	83 ec 0c	 sub	 esp, 12			; 0000000cH
  00009	33 c0		 xor	 eax, eax
  0000b	85 c9		 test	 ecx, ecx

; 34   : 		_Count = 0;
; 35   : 	else if (((_SIZT)(-1) / sizeof (_Ty) < _Count)

  0000d	74 3c		 je	 SHORT $LN5@Allocate@2

; 36   : 		|| (_Ptr = ::operator new(_Count * sizeof (_Ty))) == 0)

  0000f	81 f9 cc cc cc
	0c		 cmp	 ecx, 214748364		; 0cccccccH
  00015	77 0e		 ja	 SHORT $LN1@Allocate@2
  00017	6b c9 14	 imul	 ecx, 20			; 00000014H
  0001a	51		 push	 ecx
  0001b	e8 00 00 00 00	 call	 ??2@YAPAXI@Z		; operator new
  00020	59		 pop	 ecx
  00021	85 c0		 test	 eax, eax

; 38   : 
; 39   : 	return ((_Ty _FARQ *)_Ptr);

  00023	75 26		 jne	 SHORT $LN5@Allocate@2
$LN1@Allocate@2:

; 37   : 		_THROW_NCEE(bad_alloc, 0);

  00025	83 65 08 00	 and	 DWORD PTR $T508303[ebp], 0
  00029	8d 45 08	 lea	 eax, DWORD PTR $T508303[ebp]
  0002c	50		 push	 eax
  0002d	8d 4d f4	 lea	 ecx, DWORD PTR $T508299[ebp]
  00030	ff 15 00 00 00
	00		 call	 DWORD PTR __imp_??0exception@std@@QAE@ABQBD@Z
  00036	68 00 00 00 00	 push	 OFFSET __TI2?AVbad_alloc@std@@
  0003b	8d 45 f4	 lea	 eax, DWORD PTR $T508299[ebp]
  0003e	50		 push	 eax
  0003f	c7 45 f4 00 00
	00 00		 mov	 DWORD PTR $T508299[ebp], OFFSET ??_7bad_alloc@std@@6B@
  00046	e8 00 00 00 00	 call	 __CxxThrowException@8
$LN10@Allocate@2:
$LN5@Allocate@2:

; 40   : 	}

  0004b	c9		 leave
  0004c	c3		 ret	 0
$LN9@Allocate@2:
??$_Allocate@UItemListInfoSort@@@std@@YAPAUItemListInfoSort@@IPAU1@@Z ENDP ; std::_Allocate<ItemListInfoSort>
_TEXT	ENDS
PUBLIC	??G?$_Vector_const_iterator@V?$_Vector_val@UItemListInfoSort@@V?$allocator@UItemListInfoSort@@@std@@@std@@@std@@QBEHABV01@@Z ; std::_Vector_const_iterator<std::_Vector_val<ItemListInfoSort,std::allocator<ItemListInfoSort> > >::operator-
; Function compile flags: /Ogsp
; File c:\program files (x86)\microsoft visual studio 10.0\vc\include\vector
;	COMDAT ??G?$_Vector_const_iterator@V?$_Vector_val@UItemListInfoSort@@V?$allocator@UItemListInfoSort@@@std@@@std@@@std@@QBEHABV01@@Z
_TEXT	SEGMENT
__Right$ = 8						; size = 4
??G?$_Vector_const_iterator@V?$_Vector_val@UItemListInfoSort@@V?$allocator@UItemListInfoSort@@@std@@@std@@@std@@QBEHABV01@@Z PROC ; std::_Vector_const_iterator<std::_Vector_val<ItemListInfoSort,std::allocator<ItemListInfoSort> > >::operator-, COMDAT
; _this$ = ecx

; 190  : 		{	// return difference of iterators

  00000	55		 push	 ebp
  00001	8b ec		 mov	 ebp, esp

; 191  : 		_Compat(_Right);
; 192  : 		return (this->_Ptr - _Right._Ptr);

  00003	8b 01		 mov	 eax, DWORD PTR [ecx]
  00005	8b 4d 08	 mov	 ecx, DWORD PTR __Right$[ebp]
  00008	2b 01		 sub	 eax, DWORD PTR [ecx]
  0000a	6a 14		 push	 20			; 00000014H
  0000c	99		 cdq
  0000d	59		 pop	 ecx
  0000e	f7 f9		 idiv	 ecx

; 193  : 		}

  00010	5d		 pop	 ebp
  00011	c2 04 00	 ret	 4
??G?$_Vector_const_iterator@V?$_Vector_val@UItemListInfoSort@@V?$allocator@UItemListInfoSort@@@std@@@std@@@std@@QBEHABV01@@Z ENDP ; std::_Vector_const_iterator<std::_Vector_val<ItemListInfoSort,std::allocator<ItemListInfoSort> > >::operator-
_TEXT	ENDS
PUBLIC	??$forward@AAUItemListInfoSort@@@std@@YAAAUItemListInfoSort@@AAU1@@Z ; std::forward<ItemListInfoSort &>
; Function compile flags: /Ogsp
; File c:\program files (x86)\microsoft visual studio 10.0\vc\include\utility
;	COMDAT ??$forward@AAUItemListInfoSort@@@std@@YAAAUItemListInfoSort@@AAU1@@Z
_TEXT	SEGMENT
__Arg$ = 8						; size = 4
??$forward@AAUItemListInfoSort@@@std@@YAAAUItemListInfoSort@@AAU1@@Z PROC ; std::forward<ItemListInfoSort &>, COMDAT

; 78   : 	{	// forward _Arg, given explicitly specified type parameter

  00000	55		 push	 ebp
  00001	8b ec		 mov	 ebp, esp

; 79   : 	return ((_Ty&&)_Arg);

  00003	8b 45 08	 mov	 eax, DWORD PTR __Arg$[ebp]

; 80   : 	}

  00006	5d		 pop	 ebp
  00007	c3		 ret	 0
??$forward@AAUItemListInfoSort@@@std@@YAAAUItemListInfoSort@@AAU1@@Z ENDP ; std::forward<ItemListInfoSort &>
_TEXT	ENDS
PUBLIC	??$construct@AAUItemListInfoSort@@@?$allocator@UItemListInfoSort@@@std@@QAEXPAUItemListInfoSort@@AAU2@@Z ; std::allocator<ItemListInfoSort>::construct<ItemListInfoSort &>
; Function compile flags: /Ogsp
; File c:\program files (x86)\microsoft visual studio 10.0\vc\include\xmemory
;	COMDAT ??$construct@AAUItemListInfoSort@@@?$allocator@UItemListInfoSort@@@std@@QAEXPAUItemListInfoSort@@AAU2@@Z
_TEXT	SEGMENT
__Ptr$ = 8						; size = 4
__Val$ = 12						; size = 4
??$construct@AAUItemListInfoSort@@@?$allocator@UItemListInfoSort@@@std@@QAEXPAUItemListInfoSort@@AAU2@@Z PROC ; std::allocator<ItemListInfoSort>::construct<ItemListInfoSort &>, COMDAT
; _this$ = ecx

; 206  : 		void construct(pointer _Ptr, _Other&& _Val)

  00000	55		 push	 ebp
  00001	8b ec		 mov	 ebp, esp
  00003	57		 push	 edi

; 207  : 		{	// construct object at _Ptr with value _Val
; 208  : 		::new ((void _FARQ *)_Ptr) _Ty(_STD forward<_Other>(_Val));

  00004	8b 7d 08	 mov	 edi, DWORD PTR __Ptr$[ebp]
  00007	85 ff		 test	 edi, edi
  00009	74 0a		 je	 SHORT $LN3@construct
  0000b	56		 push	 esi
  0000c	8b 75 0c	 mov	 esi, DWORD PTR __Val$[ebp]
  0000f	6a 05		 push	 5
  00011	59		 pop	 ecx
  00012	f3 a5		 rep movsd
  00014	5e		 pop	 esi
$LN3@construct:
  00015	5f		 pop	 edi

; 209  : 		}

  00016	5d		 pop	 ebp
  00017	c2 08 00	 ret	 8
??$construct@AAUItemListInfoSort@@@?$allocator@UItemListInfoSort@@@std@@QAEXPAUItemListInfoSort@@AAU2@@Z ENDP ; std::allocator<ItemListInfoSort>::construct<ItemListInfoSort &>
_TEXT	ENDS
PUBLIC	??$forward@ABUItemListInfoSort@@@std@@YAABUItemListInfoSort@@ABU1@@Z ; std::forward<ItemListInfoSort const &>
; Function compile flags: /Ogsp
; File c:\program files (x86)\microsoft visual studio 10.0\vc\include\utility
;	COMDAT ??$forward@ABUItemListInfoSort@@@std@@YAABUItemListInfoSort@@ABU1@@Z
_TEXT	SEGMENT
__Arg$ = 8						; size = 4
??$forward@ABUItemListInfoSort@@@std@@YAABUItemListInfoSort@@ABU1@@Z PROC ; std::forward<ItemListInfoSort const &>, COMDAT

; 78   : 	{	// forward _Arg, given explicitly specified type parameter

  00000	55		 push	 ebp
  00001	8b ec		 mov	 ebp, esp

; 79   : 	return ((_Ty&&)_Arg);

  00003	8b 45 08	 mov	 eax, DWORD PTR __Arg$[ebp]

; 80   : 	}

  00006	5d		 pop	 ebp
  00007	c3		 ret	 0
??$forward@ABUItemListInfoSort@@@std@@YAABUItemListInfoSort@@ABU1@@Z ENDP ; std::forward<ItemListInfoSort const &>
_TEXT	ENDS
PUBLIC	??$_Ptr_cat@UItemListInfoSort@@U1@@std@@YA?AU_Nonscalar_ptr_iterator_tag@0@PAUItemListInfoSort@@0@Z ; std::_Ptr_cat<ItemListInfoSort,ItemListInfoSort>
; Function compile flags: /Ogsp
; File c:\program files (x86)\microsoft visual studio 10.0\vc\include\xutility
;	COMDAT ??$_Ptr_cat@UItemListInfoSort@@U1@@std@@YA?AU_Nonscalar_ptr_iterator_tag@0@PAUItemListInfoSort@@0@Z
_TEXT	SEGMENT
__Cat$ = -1						; size = 1
___formal$ = 8						; size = 4
___formal$ = 12						; size = 4
??$_Ptr_cat@UItemListInfoSort@@U1@@std@@YA?AU_Nonscalar_ptr_iterator_tag@0@PAUItemListInfoSort@@0@Z PROC ; std::_Ptr_cat<ItemListInfoSort,ItemListInfoSort>, COMDAT

; 516  : 	{	// return pointer category from pointers

  00000	55		 push	 ebp
  00001	8b ec		 mov	 ebp, esp
  00003	51		 push	 ecx

; 517  : 	typename _Ptr_cat_helper<_Elem1, _Elem2>::_Type _Cat;
; 518  : 	return (_Cat);

  00004	8a 45 ff	 mov	 al, BYTE PTR __Cat$[ebp]

; 519  : 	}

  00007	c9		 leave
  00008	c3		 ret	 0
??$_Ptr_cat@UItemListInfoSort@@U1@@std@@YA?AU_Nonscalar_ptr_iterator_tag@0@PAUItemListInfoSort@@0@Z ENDP ; std::_Ptr_cat<ItemListInfoSort,ItemListInfoSort>
_TEXT	ENDS
PUBLIC	??$_Construct@UItemListInfoSort@@ABU1@@std@@YAXPAUItemListInfoSort@@ABU1@@Z ; std::_Construct<ItemListInfoSort,ItemListInfoSort const &>
; Function compile flags: /Ogsp
; File c:\program files (x86)\microsoft visual studio 10.0\vc\include\xmemory
;	COMDAT ??$_Construct@UItemListInfoSort@@ABU1@@std@@YAXPAUItemListInfoSort@@ABU1@@Z
_TEXT	SEGMENT
__Ptr$ = 8						; size = 4
__Val$ = 12						; size = 4
??$_Construct@UItemListInfoSort@@ABU1@@std@@YAXPAUItemListInfoSort@@ABU1@@Z PROC ; std::_Construct<ItemListInfoSort,ItemListInfoSort const &>, COMDAT

; 46   : 	{	// construct object at _Ptr with value _Val

  00000	55		 push	 ebp
  00001	8b ec		 mov	 ebp, esp
  00003	57		 push	 edi

; 47   : 	void _FARQ *_Vptr = _Ptr;
; 48   : 	::new (_Vptr) _Ty1(_STD forward<_Ty2>(_Val));

  00004	8b 7d 08	 mov	 edi, DWORD PTR __Ptr$[ebp]
  00007	85 ff		 test	 edi, edi
  00009	74 0a		 je	 SHORT $LN3@Construct
  0000b	56		 push	 esi
  0000c	8b 75 0c	 mov	 esi, DWORD PTR __Val$[ebp]
  0000f	6a 05		 push	 5
  00011	59		 pop	 ecx
  00012	f3 a5		 rep movsd
  00014	5e		 pop	 esi
$LN3@Construct:
  00015	5f		 pop	 edi

; 49   : 	}

  00016	5d		 pop	 ebp
  00017	c3		 ret	 0
??$_Construct@UItemListInfoSort@@ABU1@@std@@YAXPAUItemListInfoSort@@ABU1@@Z ENDP ; std::_Construct<ItemListInfoSort,ItemListInfoSort const &>
_TEXT	ENDS
PUBLIC	?_Unchecked@?$_Vector_iterator@V?$_Vector_val@UItemListInfoSort@@V?$allocator@UItemListInfoSort@@@std@@@std@@@std@@QBEPAUItemListInfoSort@@XZ ; std::_Vector_iterator<std::_Vector_val<ItemListInfoSort,std::allocator<ItemListInfoSort> > >::_Unchecked
; Function compile flags: /Ogsp
; File c:\program files (x86)\microsoft visual studio 10.0\vc\include\vector
;	COMDAT ?_Unchecked@?$_Vector_iterator@V?$_Vector_val@UItemListInfoSort@@V?$allocator@UItemListInfoSort@@@std@@@std@@@std@@QBEPAUItemListInfoSort@@XZ
_TEXT	SEGMENT
?_Unchecked@?$_Vector_iterator@V?$_Vector_val@UItemListInfoSort@@V?$allocator@UItemListInfoSort@@@std@@@std@@@std@@QBEPAUItemListInfoSort@@XZ PROC ; std::_Vector_iterator<std::_Vector_val<ItemListInfoSort,std::allocator<ItemListInfoSort> > >::_Unchecked, COMDAT
; _this$ = ecx

; 317  : 		return (_Unchecked_type(this->_Ptr));

  00000	8b 01		 mov	 eax, DWORD PTR [ecx]

; 318  : 		}

  00002	c3		 ret	 0
?_Unchecked@?$_Vector_iterator@V?$_Vector_val@UItemListInfoSort@@V?$allocator@UItemListInfoSort@@@std@@@std@@@std@@QBEPAUItemListInfoSort@@XZ ENDP ; std::_Vector_iterator<std::_Vector_val<ItemListInfoSort,std::allocator<ItemListInfoSort> > >::_Unchecked
_TEXT	ENDS
PUBLIC	?_Adopt@_Iterator_base0@std@@QAEXPBX@Z		; std::_Iterator_base0::_Adopt
; Function compile flags: /Ogsp
; File c:\program files (x86)\microsoft visual studio 10.0\vc\include\xutility
;	COMDAT ?_Adopt@_Iterator_base0@std@@QAEXPBX@Z
_TEXT	SEGMENT
___formal$ = 8						; size = 4
?_Adopt@_Iterator_base0@std@@QAEXPBX@Z PROC		; std::_Iterator_base0::_Adopt, COMDAT
; _this$ = ecx

; 49   : 		}

  00000	c2 04 00	 ret	 4
?_Adopt@_Iterator_base0@std@@QAEXPBX@Z ENDP		; std::_Iterator_base0::_Adopt
_TEXT	ENDS
PUBLIC	??$move@AAUItemListInfoSort@@@std@@YA$$QAUItemListInfoSort@@AAU1@@Z ; std::move<ItemListInfoSort &>
; Function compile flags: /Ogsp
; File c:\program files (x86)\microsoft visual studio 10.0\vc\include\utility
;	COMDAT ??$move@AAUItemListInfoSort@@@std@@YA$$QAUItemListInfoSort@@AAU1@@Z
_TEXT	SEGMENT
__Arg$ = 8						; size = 4
??$move@AAUItemListInfoSort@@@std@@YA$$QAUItemListInfoSort@@AAU1@@Z PROC ; std::move<ItemListInfoSort &>, COMDAT

; 86   : 	{	// forward _Arg as movable

  00000	55		 push	 ebp
  00001	8b ec		 mov	 ebp, esp

; 87   : 	return ((typename tr1::_Remove_reference<_Ty>::_Type&&)_Arg);

  00003	8b 45 08	 mov	 eax, DWORD PTR __Arg$[ebp]

; 88   : 	}

  00006	5d		 pop	 ebp
  00007	c3		 ret	 0
??$move@AAUItemListInfoSort@@@std@@YA$$QAUItemListInfoSort@@AAU1@@Z ENDP ; std::move<ItemListInfoSort &>
_TEXT	ENDS
PUBLIC	??$_Val_type@PAUItemListInfoSort@@@std@@YAPAUItemListInfoSort@@PAU1@@Z ; std::_Val_type<ItemListInfoSort *>
; Function compile flags: /Ogsp
; File c:\program files (x86)\microsoft visual studio 10.0\vc\include\xutility
;	COMDAT ??$_Val_type@PAUItemListInfoSort@@@std@@YAPAUItemListInfoSort@@PAU1@@Z
_TEXT	SEGMENT
___formal$ = 8						; size = 4
??$_Val_type@PAUItemListInfoSort@@@std@@YAPAUItemListInfoSort@@PAU1@@Z PROC ; std::_Val_type<ItemListInfoSort *>, COMDAT

; 790  : 	return (0);

  00000	33 c0		 xor	 eax, eax

; 791  : 	}

  00002	c3		 ret	 0
??$_Val_type@PAUItemListInfoSort@@@std@@YAPAUItemListInfoSort@@PAU1@@Z ENDP ; std::_Val_type<ItemListInfoSort *>
_TEXT	ENDS
PUBLIC	??$_Unchecked@PAUItemListInfoSort@@@std@@YAPAUItemListInfoSort@@PAU1@@Z ; std::_Unchecked<ItemListInfoSort *>
; Function compile flags: /Ogsp
;	COMDAT ??$_Unchecked@PAUItemListInfoSort@@@std@@YAPAUItemListInfoSort@@PAU1@@Z
_TEXT	SEGMENT
__Src$ = 8						; size = 4
??$_Unchecked@PAUItemListInfoSort@@@std@@YAPAUItemListInfoSort@@PAU1@@Z PROC ; std::_Unchecked<ItemListInfoSort *>, COMDAT

; 266  : 	{	// construct unchecked from checked, generic

  00000	55		 push	 ebp
  00001	8b ec		 mov	 ebp, esp

; 267  : 	return (_Src);

  00003	8b 45 08	 mov	 eax, DWORD PTR __Src$[ebp]

; 268  : 	}

  00006	5d		 pop	 ebp
  00007	c3		 ret	 0
??$_Unchecked@PAUItemListInfoSort@@@std@@YAPAUItemListInfoSort@@PAU1@@Z ENDP ; std::_Unchecked<ItemListInfoSort *>
_TEXT	ENDS
PUBLIC	??$_Dist_type@PAUItemListInfoSort@@@std@@YAPAHPAUItemListInfoSort@@@Z ; std::_Dist_type<ItemListInfoSort *>
; Function compile flags: /Ogsp
;	COMDAT ??$_Dist_type@PAUItemListInfoSort@@@std@@YAPAHPAUItemListInfoSort@@@Z
_TEXT	SEGMENT
___formal$ = 8						; size = 4
??$_Dist_type@PAUItemListInfoSort@@@std@@YAPAHPAUItemListInfoSort@@@Z PROC ; std::_Dist_type<ItemListInfoSort *>, COMDAT

; 850  : 	return (0);

  00000	33 c0		 xor	 eax, eax

; 851  : 	}

  00002	c3		 ret	 0
??$_Dist_type@PAUItemListInfoSort@@@std@@YAPAHPAUItemListInfoSort@@@Z ENDP ; std::_Dist_type<ItemListInfoSort *>
_TEXT	ENDS
PUBLIC	??$_Destroy@UItemListInfoSort@@@std@@YAXPAUItemListInfoSort@@@Z ; std::_Destroy<ItemListInfoSort>
; Function compile flags: /Ogsp
; File c:\program files (x86)\microsoft visual studio 10.0\vc\include\xmemory
;	COMDAT ??$_Destroy@UItemListInfoSort@@@std@@YAXPAUItemListInfoSort@@@Z
_TEXT	SEGMENT
__Ptr$ = 8						; size = 4
??$_Destroy@UItemListInfoSort@@@std@@YAXPAUItemListInfoSort@@@Z PROC ; std::_Destroy<ItemListInfoSort>, COMDAT

; 63   : 	_Ptr->~_Ty();
; 64   : 	}

  00000	c3		 ret	 0
??$_Destroy@UItemListInfoSort@@@std@@YAXPAUItemListInfoSort@@@Z ENDP ; std::_Destroy<ItemListInfoSort>
_TEXT	ENDS
PUBLIC	??$forward@AAPAUItemListInfoSort@@@std@@YAAAPAUItemListInfoSort@@AAPAU1@@Z ; std::forward<ItemListInfoSort * &>
; Function compile flags: /Ogsp
; File c:\program files (x86)\microsoft visual studio 10.0\vc\include\utility
;	COMDAT ??$forward@AAPAUItemListInfoSort@@@std@@YAAAPAUItemListInfoSort@@AAPAU1@@Z
_TEXT	SEGMENT
__Arg$ = 8						; size = 4
??$forward@AAPAUItemListInfoSort@@@std@@YAAAPAUItemListInfoSort@@AAPAU1@@Z PROC ; std::forward<ItemListInfoSort * &>, COMDAT

; 78   : 	{	// forward _Arg, given explicitly specified type parameter

  00000	55		 push	 ebp
  00001	8b ec		 mov	 ebp, esp

; 79   : 	return ((_Ty&&)_Arg);

  00003	8b 45 08	 mov	 eax, DWORD PTR __Arg$[ebp]

; 80   : 	}

  00006	5d		 pop	 ebp
  00007	c3		 ret	 0
??$forward@AAPAUItemListInfoSort@@@std@@YAAAPAUItemListInfoSort@@AAPAU1@@Z ENDP ; std::forward<ItemListInfoSort * &>
_TEXT	ENDS
PUBLIC	??$?0AAPAUItemListInfoSort@@AAPAU0@@?$_Pair_base@PAUItemListInfoSort@@PAU1@@std@@QAE@AAPAUItemListInfoSort@@0@Z ; std::_Pair_base<ItemListInfoSort *,ItemListInfoSort *>::_Pair_base<ItemListInfoSort *,ItemListInfoSort *><ItemListInfoSort * &,ItemListInfoSort * &>
; Function compile flags: /Ogsp
;	COMDAT ??$?0AAPAUItemListInfoSort@@AAPAU0@@?$_Pair_base@PAUItemListInfoSort@@PAU1@@std@@QAE@AAPAUItemListInfoSort@@0@Z
_TEXT	SEGMENT
__Val1$ = 8						; size = 4
__Val2$ = 12						; size = 4
??$?0AAPAUItemListInfoSort@@AAPAU0@@?$_Pair_base@PAUItemListInfoSort@@PAU1@@std@@QAE@AAPAUItemListInfoSort@@0@Z PROC ; std::_Pair_base<ItemListInfoSort *,ItemListInfoSort *>::_Pair_base<ItemListInfoSort *,ItemListInfoSort *><ItemListInfoSort * &,ItemListInfoSort * &>, COMDAT
; _this$ = ecx

; 163  : 		{	// construct from moved values

  00000	55		 push	 ebp
  00001	8b ec		 mov	 ebp, esp
  00003	8b c1		 mov	 eax, ecx
  00005	8b 4d 08	 mov	 ecx, DWORD PTR __Val1$[ebp]
  00008	8b 09		 mov	 ecx, DWORD PTR [ecx]
  0000a	89 08		 mov	 DWORD PTR [eax], ecx
  0000c	8b 4d 0c	 mov	 ecx, DWORD PTR __Val2$[ebp]
  0000f	8b 09		 mov	 ecx, DWORD PTR [ecx]
  00011	89 48 04	 mov	 DWORD PTR [eax+4], ecx

; 164  : 		}

  00014	5d		 pop	 ebp
  00015	c2 08 00	 ret	 8
??$?0AAPAUItemListInfoSort@@AAPAU0@@?$_Pair_base@PAUItemListInfoSort@@PAU1@@std@@QAE@AAPAUItemListInfoSort@@0@Z ENDP ; std::_Pair_base<ItemListInfoSort *,ItemListInfoSort *>::_Pair_base<ItemListInfoSort *,ItemListInfoSort *><ItemListInfoSort * &,ItemListInfoSort * &>
_TEXT	ENDS
PUBLIC	??$_Move@AAUItemListInfoSort@@@std@@YA$$QAUItemListInfoSort@@AAU1@@Z ; std::_Move<ItemListInfoSort &>
; Function compile flags: /Ogsp
;	COMDAT ??$_Move@AAUItemListInfoSort@@@std@@YA$$QAUItemListInfoSort@@AAU1@@Z
_TEXT	SEGMENT
__Arg$ = 8						; size = 4
??$_Move@AAUItemListInfoSort@@@std@@YA$$QAUItemListInfoSort@@AAU1@@Z PROC ; std::_Move<ItemListInfoSort &>, COMDAT

; 94   : 	{	// forward _Arg as movable

  00000	55		 push	 ebp
  00001	8b ec		 mov	 ebp, esp

; 95   : 	return ((typename tr1::_Remove_reference<_Ty>::_Type&&)_Arg);

  00003	8b 45 08	 mov	 eax, DWORD PTR __Arg$[ebp]

; 96   : 	}

  00006	5d		 pop	 ebp
  00007	c3		 ret	 0
??$_Move@AAUItemListInfoSort@@@std@@YA$$QAUItemListInfoSort@@AAU1@@Z ENDP ; std::_Move<ItemListInfoSort &>
_TEXT	ENDS
PUBLIC	??$forward@AAV?$basic_string@DU?$char_traits@D@std@@V?$allocator@D@2@@std@@@std@@YAAAV?$basic_string@DU?$char_traits@D@std@@V?$allocator@D@2@@0@AAV10@@Z ; std::forward<std::basic_string<char,std::char_traits<char>,std::allocator<char> > &>
; Function compile flags: /Ogsp
;	COMDAT ??$forward@AAV?$basic_string@DU?$char_traits@D@std@@V?$allocator@D@2@@std@@@std@@YAAAV?$basic_string@DU?$char_traits@D@std@@V?$allocator@D@2@@0@AAV10@@Z
_TEXT	SEGMENT
__Arg$ = 8						; size = 4
??$forward@AAV?$basic_string@DU?$char_traits@D@std@@V?$allocator@D@2@@std@@@std@@YAAAV?$basic_string@DU?$char_traits@D@std@@V?$allocator@D@2@@0@AAV10@@Z PROC ; std::forward<std::basic_string<char,std::char_traits<char>,std::allocator<char> > &>, COMDAT

; 78   : 	{	// forward _Arg, given explicitly specified type parameter

  00000	55		 push	 ebp
  00001	8b ec		 mov	 ebp, esp

; 79   : 	return ((_Ty&&)_Arg);

  00003	8b 45 08	 mov	 eax, DWORD PTR __Arg$[ebp]

; 80   : 	}

  00006	5d		 pop	 ebp
  00007	c3		 ret	 0
??$forward@AAV?$basic_string@DU?$char_traits@D@std@@V?$allocator@D@2@@std@@@std@@YAAAV?$basic_string@DU?$char_traits@D@std@@V?$allocator@D@2@@0@AAV10@@Z ENDP ; std::forward<std::basic_string<char,std::char_traits<char>,std::allocator<char> > &>
_TEXT	ENDS
PUBLIC	??$forward@UItemListInfoSort@@@std@@YA$$QAUItemListInfoSort@@AAU1@@Z ; std::forward<ItemListInfoSort>
; Function compile flags: /Ogsp
;	COMDAT ??$forward@UItemListInfoSort@@@std@@YA$$QAUItemListInfoSort@@AAU1@@Z
_TEXT	SEGMENT
__Arg$ = 8						; size = 4
??$forward@UItemListInfoSort@@@std@@YA$$QAUItemListInfoSort@@AAU1@@Z PROC ; std::forward<ItemListInfoSort>, COMDAT

; 78   : 	{	// forward _Arg, given explicitly specified type parameter

  00000	55		 push	 ebp
  00001	8b ec		 mov	 ebp, esp

; 79   : 	return ((_Ty&&)_Arg);

  00003	8b 45 08	 mov	 eax, DWORD PTR __Arg$[ebp]

; 80   : 	}

  00006	5d		 pop	 ebp
  00007	c3		 ret	 0
??$forward@UItemListInfoSort@@@std@@YA$$QAUItemListInfoSort@@AAU1@@Z ENDP ; std::forward<ItemListInfoSort>
_TEXT	ENDS
PUBLIC	??$_Push_heap@PAUItemListInfoSort@@HU1@VShopExtraItemSort@@@std@@YAXPAUItemListInfoSort@@HH$$QAU1@VShopExtraItemSort@@@Z ; std::_Push_heap<ItemListInfoSort *,int,ItemListInfoSort,ShopExtraItemSort>
; Function compile flags: /Ogsp
; File c:\program files (x86)\microsoft visual studio 10.0\vc\include\algorithm
;	COMDAT ??$_Push_heap@PAUItemListInfoSort@@HU1@VShopExtraItemSort@@@std@@YAXPAUItemListInfoSort@@HH$$QAU1@VShopExtraItemSort@@@Z
_TEXT	SEGMENT
__First$ = 8						; size = 4
__Hole$ = 12						; size = 4
__Top$ = 16						; size = 4
__Val$ = 20						; size = 4
__Pred$ = 24						; size = 1
??$_Push_heap@PAUItemListInfoSort@@HU1@VShopExtraItemSort@@@std@@YAXPAUItemListInfoSort@@HH$$QAU1@VShopExtraItemSort@@@Z PROC ; std::_Push_heap<ItemListInfoSort *,int,ItemListInfoSort,ShopExtraItemSort>, COMDAT

; 2455 : 	{	// percolate _Hole to _Top or where _Val belongs, using operator<

  00000	55		 push	 ebp
  00001	8b ec		 mov	 ebp, esp
  00003	53		 push	 ebx

; 2456 : 	for (_Diff _Idx = (_Hole - 1) / 2;
; 2457 : 		_Top < _Hole && _DEBUG_LT_PRED(_Pred, *(_First + _Idx), _Val);
; 2458 : 		_Idx = (_Hole - 1) / 2)

  00004	8b 5d 08	 mov	 ebx, DWORD PTR __First$[ebp]
  00007	56		 push	 esi
  00008	57		 push	 edi
  00009	8b 7d 0c	 mov	 edi, DWORD PTR __Hole$[ebp]
  0000c	8d 47 ff	 lea	 eax, DWORD PTR [edi-1]
  0000f	eb 2c		 jmp	 SHORT $LN20@Push_heap
$LL3@Push_heap:
  00011	8b 55 14	 mov	 edx, DWORD PTR __Val$[ebp]
  00014	8b 52 08	 mov	 edx, DWORD PTR [edx+8]
  00017	8b f0		 mov	 esi, eax
  00019	6b f6 14	 imul	 esi, 20			; 00000014H
  0001c	03 f3		 add	 esi, ebx
  0001e	8b 4e 08	 mov	 ecx, DWORD PTR [esi+8]
  00021	3b ca		 cmp	 ecx, edx
  00023	7f 0b		 jg	 SHORT $LN17@Push_heap
  00025	75 20		 jne	 SHORT $LN18@Push_heap
  00027	8b 0e		 mov	 ecx, DWORD PTR [esi]
  00029	8b 55 14	 mov	 edx, DWORD PTR __Val$[ebp]
  0002c	3b 0a		 cmp	 ecx, DWORD PTR [edx]
  0002e	7e 17		 jle	 SHORT $LN18@Push_heap
$LN17@Push_heap:

; 2459 : 		{	// move _Hole up to parent
; 2460 : 		*(_First + _Hole) = _Move(*(_First + _Idx));

  00030	6b ff 14	 imul	 edi, 20			; 00000014H
  00033	03 fb		 add	 edi, ebx
  00035	6a 05		 push	 5
  00037	59		 pop	 ecx
  00038	f3 a5		 rep movsd

; 2461 : 		_Hole = _Idx;

  0003a	8b f8		 mov	 edi, eax
  0003c	48		 dec	 eax
$LN20@Push_heap:

; 2456 : 	for (_Diff _Idx = (_Hole - 1) / 2;
; 2457 : 		_Top < _Hole && _DEBUG_LT_PRED(_Pred, *(_First + _Idx), _Val);
; 2458 : 		_Idx = (_Hole - 1) / 2)

  0003d	99		 cdq
  0003e	2b c2		 sub	 eax, edx
  00040	d1 f8		 sar	 eax, 1
  00042	39 7d 10	 cmp	 DWORD PTR __Top$[ebp], edi
  00045	7c ca		 jl	 SHORT $LL3@Push_heap
$LN18@Push_heap:

; 2462 : 		}
; 2463 : 
; 2464 : 	*(_First + _Hole) = _Move(_Val);	// drop _Val into final hole

  00047	8b 75 14	 mov	 esi, DWORD PTR __Val$[ebp]
  0004a	6b ff 14	 imul	 edi, 20			; 00000014H
  0004d	6a 05		 push	 5
  0004f	59		 pop	 ecx
  00050	03 fb		 add	 edi, ebx
  00052	f3 a5		 rep movsd
  00054	5f		 pop	 edi
  00055	5e		 pop	 esi
  00056	5b		 pop	 ebx

; 2465 : 	}

  00057	5d		 pop	 ebp
  00058	c3		 ret	 0
??$_Push_heap@PAUItemListInfoSort@@HU1@VShopExtraItemSort@@@std@@YAXPAUItemListInfoSort@@HH$$QAU1@VShopExtraItemSort@@@Z ENDP ; std::_Push_heap<ItemListInfoSort *,int,ItemListInfoSort,ShopExtraItemSort>
_TEXT	ENDS
PUBLIC	??$_Move_backward@PAUItemListInfoSort@@PAU1@@std@@YAPAUItemListInfoSort@@PAU1@00U_Nonscalar_ptr_iterator_tag@0@@Z ; std::_Move_backward<ItemListInfoSort *,ItemListInfoSort *>
; Function compile flags: /Ogsp
; File c:\program files (x86)\microsoft visual studio 10.0\vc\include\xutility
;	COMDAT ??$_Move_backward@PAUItemListInfoSort@@PAU1@@std@@YAPAUItemListInfoSort@@PAU1@00U_Nonscalar_ptr_iterator_tag@0@@Z
_TEXT	SEGMENT
__First$ = 8						; size = 4
__Last$ = 12						; size = 4
__Dest$ = 16						; size = 4
___formal$ = 20						; size = 1
??$_Move_backward@PAUItemListInfoSort@@PAU1@@std@@YAPAUItemListInfoSort@@PAU1@00U_Nonscalar_ptr_iterator_tag@0@@Z PROC ; std::_Move_backward<ItemListInfoSort *,ItemListInfoSort *>, COMDAT

; 2617 : 	{	// move [_First, _Last) backwards to [..., _Dest), arbitrary iterators

  00000	55		 push	 ebp
  00001	8b ec		 mov	 ebp, esp

; 2618 : 	while (_First != _Last)

  00003	8b 45 0c	 mov	 eax, DWORD PTR __Last$[ebp]
  00006	39 45 08	 cmp	 DWORD PTR __First$[ebp], eax
  00009	74 1a		 je	 SHORT $LN9@Move_backw
  0000b	56		 push	 esi
  0000c	57		 push	 edi
$LL2@Move_backw:

; 2619 : 		*--_Dest = _STD move(*--_Last);

  0000d	83 6d 10 14	 sub	 DWORD PTR __Dest$[ebp], 20 ; 00000014H
  00011	8b 7d 10	 mov	 edi, DWORD PTR __Dest$[ebp]
  00014	83 e8 14	 sub	 eax, 20			; 00000014H
  00017	6a 05		 push	 5
  00019	59		 pop	 ecx
  0001a	8b f0		 mov	 esi, eax
  0001c	f3 a5		 rep movsd
  0001e	3b 45 08	 cmp	 eax, DWORD PTR __First$[ebp]
  00021	75 ea		 jne	 SHORT $LL2@Move_backw
  00023	5f		 pop	 edi
  00024	5e		 pop	 esi
$LN9@Move_backw:

; 2620 : 	return (_Dest);

  00025	8b 45 10	 mov	 eax, DWORD PTR __Dest$[ebp]

; 2621 : 	}

  00028	5d		 pop	 ebp
  00029	c3		 ret	 0
??$_Move_backward@PAUItemListInfoSort@@PAU1@@std@@YAPAUItemListInfoSort@@PAU1@00U_Nonscalar_ptr_iterator_tag@0@@Z ENDP ; std::_Move_backward<ItemListInfoSort *,ItemListInfoSort *>
_TEXT	ENDS
PUBLIC	??0CTimeSpan@ATL@@QAE@_J@Z			; ATL::CTimeSpan::CTimeSpan
; Function compile flags: /Ogsp
; File c:\program files (x86)\microsoft visual studio 10.0\vc\atlmfc\include\atltime.inl
;	COMDAT ??0CTimeSpan@ATL@@QAE@_J@Z
_TEXT	SEGMENT
_time$ = 8						; size = 8
??0CTimeSpan@ATL@@QAE@_J@Z PROC				; ATL::CTimeSpan::CTimeSpan, COMDAT
; _this$ = ecx

; 33   : {

  00000	55		 push	 ebp
  00001	8b ec		 mov	 ebp, esp
  00003	8b c1		 mov	 eax, ecx
  00005	8b 4d 08	 mov	 ecx, DWORD PTR _time$[ebp]
  00008	89 08		 mov	 DWORD PTR [eax], ecx
  0000a	8b 4d 0c	 mov	 ecx, DWORD PTR _time$[ebp+4]
  0000d	89 48 04	 mov	 DWORD PTR [eax+4], ecx

; 34   : }

  00010	5d		 pop	 ebp
  00011	c2 08 00	 ret	 8
??0CTimeSpan@ATL@@QAE@_J@Z ENDP				; ATL::CTimeSpan::CTimeSpan
_TEXT	ENDS
PUBLIC	?GetDays@CTimeSpan@ATL@@QBE_JXZ			; ATL::CTimeSpan::GetDays
EXTRN	__alldiv:PROC
; Function compile flags: /Ogsp
;	COMDAT ?GetDays@CTimeSpan@ATL@@QBE_JXZ
_TEXT	SEGMENT
?GetDays@CTimeSpan@ATL@@QBE_JXZ PROC			; ATL::CTimeSpan::GetDays, COMDAT
; _this$ = ecx

; 47   : 	return( m_timeSpan/(24*3600) );

  00000	6a 00		 push	 0
  00002	68 80 51 01 00	 push	 86400			; 00015180H
  00007	ff 71 04	 push	 DWORD PTR [ecx+4]
  0000a	ff 31		 push	 DWORD PTR [ecx]
  0000c	e8 00 00 00 00	 call	 __alldiv

; 48   : }

  00011	c3		 ret	 0
?GetDays@CTimeSpan@ATL@@QBE_JXZ ENDP			; ATL::CTimeSpan::GetDays
_TEXT	ENDS
PUBLIC	??0CTime@ATL@@QAE@XZ				; ATL::CTime::CTime
; Function compile flags: /Ogsp
;	COMDAT ??0CTime@ATL@@QAE@XZ
_TEXT	SEGMENT
??0CTime@ATL@@QAE@XZ PROC				; ATL::CTime::CTime, COMDAT
; _this$ = ecx

; 166  : {

  00000	8b c1		 mov	 eax, ecx
  00002	83 20 00	 and	 DWORD PTR [eax], 0
  00005	83 60 04 00	 and	 DWORD PTR [eax+4], 0

; 167  : }

  00009	c3		 ret	 0
??0CTime@ATL@@QAE@XZ ENDP				; ATL::CTime::CTime
_TEXT	ENDS
PUBLIC	??GCTime@ATL@@QBE?AVCTimeSpan@1@V01@@Z		; ATL::CTime::operator-
; Function compile flags: /Ogsp
;	COMDAT ??GCTime@ATL@@QBE?AVCTimeSpan@1@V01@@Z
_TEXT	SEGMENT
___$ReturnUdt$ = 8					; size = 4
_time$ = 12						; size = 8
??GCTime@ATL@@QBE?AVCTimeSpan@1@V01@@Z PROC		; ATL::CTime::operator-, COMDAT
; _this$ = ecx

; 304  : {

  00000	55		 push	 ebp
  00001	8b ec		 mov	 ebp, esp

; 305  : 	return( CTimeSpan( m_time-time.m_time ) );

  00003	8b 11		 mov	 edx, DWORD PTR [ecx]
  00005	2b 55 0c	 sub	 edx, DWORD PTR _time$[ebp]
  00008	8b 49 04	 mov	 ecx, DWORD PTR [ecx+4]
  0000b	1b 4d 10	 sbb	 ecx, DWORD PTR _time$[ebp+4]
  0000e	8b 45 08	 mov	 eax, DWORD PTR ___$ReturnUdt$[ebp]
  00011	89 10		 mov	 DWORD PTR [eax], edx
  00013	89 48 04	 mov	 DWORD PTR [eax+4], ecx

; 306  : }

  00016	5d		 pop	 ebp
  00017	c2 0c 00	 ret	 12			; 0000000cH
??GCTime@ATL@@QBE?AVCTimeSpan@1@V01@@Z ENDP		; ATL::CTime::operator-
_TEXT	ENDS
PUBLIC	?_DECSTR@@YAXPADH@Z				; _DECSTR
; Function compile flags: /Ogsp
; File d:\lost saga for developer\youtube\tutorial\source\src\lsclient\stringprotect.h
;	COMDAT ?_DECSTR@@YAXPADH@Z
_TEXT	SEGMENT
_s$ = 8							; size = 4
_l$ = 12						; size = 4
?_DECSTR@@YAXPADH@Z PROC				; _DECSTR, COMDAT

; 40   : __forceinline void _DECSTR(char* s, int l){int i=0,l4=(l-1)/4,*p=(int*)s;s[l-1]=0;for(;i<l4;++i)*(p++)^=0xEAEBECED;for(i=l4*4;i<l-1;++i)s[i]^=0xED-i%4;}

  00000	55		 push	 ebp
  00001	8b ec		 mov	 ebp, esp
  00003	8b 4d 0c	 mov	 ecx, DWORD PTR _l$[ebp]
  00006	56		 push	 esi
  00007	8b 75 08	 mov	 esi, DWORD PTR _s$[ebp]
  0000a	57		 push	 edi
  0000b	8d 79 ff	 lea	 edi, DWORD PTR [ecx-1]
  0000e	8b c7		 mov	 eax, edi
  00010	99		 cdq
  00011	83 e2 03	 and	 edx, 3
  00014	03 c2		 add	 eax, edx
  00016	c1 f8 02	 sar	 eax, 2
  00019	8b d6		 mov	 edx, esi
  0001b	c6 44 0e ff 00	 mov	 BYTE PTR [esi+ecx-1], 0
  00020	85 c0		 test	 eax, eax
  00022	7e 0e		 jle	 SHORT $LN4@DECSTR
  00024	8b c8		 mov	 ecx, eax
$LL6@DECSTR:
  00026	81 32 ed ec eb
	ea		 xor	 DWORD PTR [edx], -353637139 ; eaebecedH
  0002c	83 c2 04	 add	 edx, 4
  0002f	49		 dec	 ecx
  00030	75 f4		 jne	 SHORT $LL6@DECSTR
$LN4@DECSTR:
  00032	c1 e0 02	 shl	 eax, 2
  00035	eb 17		 jmp	 SHORT $LN14@DECSTR
$LL3@DECSTR:
  00037	8b c8		 mov	 ecx, eax
  00039	81 e1 03 00 00
	80		 and	 ecx, -2147483645	; 80000003H
  0003f	79 05		 jns	 SHORT $LN13@DECSTR
  00041	49		 dec	 ecx
  00042	83 c9 fc	 or	 ecx, -4			; fffffffcH
  00045	41		 inc	 ecx
$LN13@DECSTR:
  00046	b2 ed		 mov	 dl, -19			; ffffffedH
  00048	2a d1		 sub	 dl, cl
  0004a	30 14 30	 xor	 BYTE PTR [eax+esi], dl
  0004d	40		 inc	 eax
$LN14@DECSTR:
  0004e	3b c7		 cmp	 eax, edi
  00050	7c e5		 jl	 SHORT $LL3@DECSTR
  00052	5f		 pop	 edi
  00053	5e		 pop	 esi
  00054	5d		 pop	 ebp
  00055	c3		 ret	 0
?_DECSTR@@YAXPADH@Z ENDP				; _DECSTR
_TEXT	ENDS
PUBLIC	?GetName@ioItem@@QBEABVioHashString@@XZ		; ioItem::GetName
; Function compile flags: /Ogsp
; File d:\lost saga for developer\youtube\tutorial\source\src\lsclient\ioitem.h
;	COMDAT ?GetName@ioItem@@QBEABVioHashString@@XZ
_TEXT	SEGMENT
?GetName@ioItem@@QBEABVioHashString@@XZ PROC		; ioItem::GetName, COMDAT
; _this$ = ecx

; 269  : 	inline const ioHashString& GetName() const { return m_Name; }

  00000	8d 81 34 01 00
	00		 lea	 eax, DWORD PTR [ecx+308]
  00006	c3		 ret	 0
?GetName@ioItem@@QBEABVioHashString@@XZ ENDP		; ioItem::GetName
_TEXT	ENDS
PUBLIC	?GetItemLargeIconName@ioItem@@QBEABVioHashString@@XZ ; ioItem::GetItemLargeIconName
; Function compile flags: /Ogsp
;	COMDAT ?GetItemLargeIconName@ioItem@@QBEABVioHashString@@XZ
_TEXT	SEGMENT
?GetItemLargeIconName@ioItem@@QBEABVioHashString@@XZ PROC ; ioItem::GetItemLargeIconName, COMDAT
; _this$ = ecx

; 288  : 	inline const ioHashString& GetItemLargeIconName() const { return m_ItemLargeIconFile; }

  00000	8d 81 14 02 00
	00		 lea	 eax, DWORD PTR [ecx+532]
  00006	c3		 ret	 0
?GetItemLargeIconName@ioItem@@QBEABVioHashString@@XZ ENDP ; ioItem::GetItemLargeIconName
_TEXT	ENDS
PUBLIC	?GetGradeType@ioItem@@QBEHXZ			; ioItem::GetGradeType
; Function compile flags: /Ogsp
;	COMDAT ?GetGradeType@ioItem@@QBEHXZ
_TEXT	SEGMENT
?GetGradeType@ioItem@@QBEHXZ PROC			; ioItem::GetGradeType, COMDAT
; _this$ = ecx

; 445  : 	inline int GetGradeType() const { return m_nGradeType; }

  00000	8b 81 20 06 00
	00		 mov	 eax, DWORD PTR [ecx+1568]
  00006	c3		 ret	 0
?GetGradeType@ioItem@@QBEHXZ ENDP			; ioItem::GetGradeType
_TEXT	ENDS
PUBLIC	??0ItemListInfoSort@@QAE@XZ			; ItemListInfoSort::ItemListInfoSort
; Function compile flags: /Ogsp
; File d:\lost saga for developer\youtube\tutorial\source\src\lsclient\ioextraiteminfomanager.h
;	COMDAT ??0ItemListInfoSort@@QAE@XZ
_TEXT	SEGMENT
??0ItemListInfoSort@@QAE@XZ PROC			; ItemListInfoSort::ItemListInfoSort, COMDAT
; _this$ = ecx

; 29   : 	ItemListInfoSort()

  00000	8b c1		 mov	 eax, ecx

; 30   : 	{
; 31   : 		m_iItemCode     = 0;

  00002	33 c9		 xor	 ecx, ecx
  00004	89 08		 mov	 DWORD PTR [eax], ecx

; 32   : 		m_iShopMarkType = 0;

  00006	89 48 04	 mov	 DWORD PTR [eax+4], ecx

; 33   : 		m_iOrder		= 0;

  00009	89 48 08	 mov	 DWORD PTR [eax+8], ecx

; 34   : 		m_iLimitDate	= 0;

  0000c	89 48 0c	 mov	 DWORD PTR [eax+12], ecx

; 35   : 		m_iGradeType	= 0;

  0000f	89 48 10	 mov	 DWORD PTR [eax+16], ecx

; 36   : 	}

  00012	c3		 ret	 0
??0ItemListInfoSort@@QAE@XZ ENDP			; ItemListInfoSort::ItemListInfoSort
_TEXT	ENDS
PUBLIC	?size@?$basic_string@DU?$char_traits@D@std@@V?$allocator@D@2@@std@@QBEIXZ ; std::basic_string<char,std::char_traits<char>,std::allocator<char> >::size
; Function compile flags: /Ogsp
; File c:\program files (x86)\microsoft visual studio 10.0\vc\include\xstring
;	COMDAT ?size@?$basic_string@DU?$char_traits@D@std@@V?$allocator@D@2@@std@@QBEIXZ
_TEXT	SEGMENT
?size@?$basic_string@DU?$char_traits@D@std@@V?$allocator@D@2@@std@@QBEIXZ PROC ; std::basic_string<char,std::char_traits<char>,std::allocator<char> >::size, COMDAT
; _this$ = ecx

; 1512 : 		return (this->_Mysize);

  00000	8b 41 10	 mov	 eax, DWORD PTR [ecx+16]

; 1513 : 		}

  00003	c3		 ret	 0
?size@?$basic_string@DU?$char_traits@D@std@@V?$allocator@D@2@@std@@QBEIXZ ENDP ; std::basic_string<char,std::char_traits<char>,std::allocator<char> >::size
_TEXT	ENDS
PUBLIC	?_Myptr@?$basic_string@DU?$char_traits@D@std@@V?$allocator@D@2@@std@@QBEPBDXZ ; std::basic_string<char,std::char_traits<char>,std::allocator<char> >::_Myptr
; Function compile flags: /Ogsp
;	COMDAT ?_Myptr@?$basic_string@DU?$char_traits@D@std@@V?$allocator@D@2@@std@@QBEPBDXZ
_TEXT	SEGMENT
?_Myptr@?$basic_string@DU?$char_traits@D@std@@V?$allocator@D@2@@std@@QBEPBDXZ PROC ; std::basic_string<char,std::char_traits<char>,std::allocator<char> >::_Myptr, COMDAT
; _this$ = ecx

; 2010 : 		return (this->_BUF_SIZE <= this->_Myres ? this->_Bx._Ptr
; 2011 : 			: this->_Bx._Buf);

  00000	83 79 14 10	 cmp	 DWORD PTR [ecx+20], 16	; 00000010H
  00004	72 03		 jb	 SHORT $LN3@Myptr
  00006	8b 01		 mov	 eax, DWORD PTR [ecx]

; 2012 : 		}

  00008	c3		 ret	 0
$LN3@Myptr:

; 2010 : 		return (this->_BUF_SIZE <= this->_Myres ? this->_Bx._Ptr
; 2011 : 			: this->_Bx._Buf);

  00009	8b c1		 mov	 eax, ecx

; 2012 : 		}

  0000b	c3		 ret	 0
?_Myptr@?$basic_string@DU?$char_traits@D@std@@V?$allocator@D@2@@std@@QBEPBDXZ ENDP ; std::basic_string<char,std::char_traits<char>,std::allocator<char> >::_Myptr
_TEXT	ENDS
PUBLIC	??1?$_String_val@DV?$allocator@D@std@@@std@@QAE@XZ ; std::_String_val<char,std::allocator<char> >::~_String_val<char,std::allocator<char> >
; Function compile flags: /Ogsp
;	COMDAT ??1?$_String_val@DV?$allocator@D@std@@@std@@QAE@XZ
_TEXT	SEGMENT
??1?$_String_val@DV?$allocator@D@std@@@std@@QAE@XZ PROC	; std::_String_val<char,std::allocator<char> >::~_String_val<char,std::allocator<char> >, COMDAT
; _this$ = ecx

; 459  : 		}

  00000	c3		 ret	 0
??1?$_String_val@DV?$allocator@D@std@@@std@@QAE@XZ ENDP	; std::_String_val<char,std::allocator<char> >::~_String_val<char,std::allocator<char> >
_TEXT	ENDS
PUBLIC	??0?$allocator@D@std@@QAE@XZ			; std::allocator<char>::allocator<char>
; Function compile flags: /Ogsp
; File c:\program files (x86)\microsoft visual studio 10.0\vc\include\xmemory
;	COMDAT ??0?$allocator@D@std@@QAE@XZ
_TEXT	SEGMENT
??0?$allocator@D@std@@QAE@XZ PROC			; std::allocator<char>::allocator<char>, COMDAT
; _this$ = ecx

; 161  : 	_ALLOCATOR() _THROW0()

  00000	8b c1		 mov	 eax, ecx

; 162  : 		{	// construct default allocator (do nothing)
; 163  : 		}

  00002	c3		 ret	 0
??0?$allocator@D@std@@QAE@XZ ENDP			; std::allocator<char>::allocator<char>
_TEXT	ENDS
PUBLIC	??0?$allocator@D@std@@QAE@ABV01@@Z		; std::allocator<char>::allocator<char>
; Function compile flags: /Ogsp
;	COMDAT ??0?$allocator@D@std@@QAE@ABV01@@Z
_TEXT	SEGMENT
___formal$ = 8						; size = 4
??0?$allocator@D@std@@QAE@ABV01@@Z PROC			; std::allocator<char>::allocator<char>, COMDAT
; _this$ = ecx

; 165  : 	_ALLOCATOR(const _ALLOCATOR<_Ty>&) _THROW0()

  00000	8b c1		 mov	 eax, ecx

; 166  : 		{	// construct by copying (do nothing)
; 167  : 		}

  00002	c2 04 00	 ret	 4
??0?$allocator@D@std@@QAE@ABV01@@Z ENDP			; std::allocator<char>::allocator<char>
_TEXT	ENDS
PUBLIC	?get_allocator@?$basic_string@DU?$char_traits@D@std@@V?$allocator@D@2@@std@@QBE?AV?$allocator@D@2@XZ ; std::basic_string<char,std::char_traits<char>,std::allocator<char> >::get_allocator
; Function compile flags: /Ogsp
; File c:\program files (x86)\microsoft visual studio 10.0\vc\include\xstring
;	COMDAT ?get_allocator@?$basic_string@DU?$char_traits@D@std@@V?$allocator@D@2@@std@@QBE?AV?$allocator@D@2@XZ
_TEXT	SEGMENT
___$ReturnUdt$ = 8					; size = 4
?get_allocator@?$basic_string@DU?$char_traits@D@std@@V?$allocator@D@2@@std@@QBE?AV?$allocator@D@2@XZ PROC ; std::basic_string<char,std::char_traits<char>,std::allocator<char> >::get_allocator, COMDAT
; _this$ = ecx

; 1906 : 		{	// return allocator object for values

  00000	55		 push	 ebp
  00001	8b ec		 mov	 ebp, esp

; 1907 : 		return (this->_Alval);

  00003	8b 45 08	 mov	 eax, DWORD PTR ___$ReturnUdt$[ebp]

; 1908 : 		}

  00006	5d		 pop	 ebp
  00007	c2 04 00	 ret	 4
?get_allocator@?$basic_string@DU?$char_traits@D@std@@V?$allocator@D@2@@std@@QBE?AV?$allocator@D@2@XZ ENDP ; std::basic_string<char,std::char_traits<char>,std::allocator<char> >::get_allocator
_TEXT	ENDS
PUBLIC	?_Myptr@?$basic_string@DU?$char_traits@D@std@@V?$allocator@D@2@@std@@QAEPADXZ ; std::basic_string<char,std::char_traits<char>,std::allocator<char> >::_Myptr
; Function compile flags: /Ogsp
;	COMDAT ?_Myptr@?$basic_string@DU?$char_traits@D@std@@V?$allocator@D@2@@std@@QAEPADXZ
_TEXT	SEGMENT
?_Myptr@?$basic_string@DU?$char_traits@D@std@@V?$allocator@D@2@@std@@QAEPADXZ PROC ; std::basic_string<char,std::char_traits<char>,std::allocator<char> >::_Myptr, COMDAT
; _this$ = ecx

; 2004 : 		return (this->_BUF_SIZE <= this->_Myres ? this->_Bx._Ptr
; 2005 : 			: this->_Bx._Buf);

  00000	83 79 14 10	 cmp	 DWORD PTR [ecx+20], 16	; 00000010H
  00004	72 03		 jb	 SHORT $LN3@Myptr@2
  00006	8b 01		 mov	 eax, DWORD PTR [ecx]

; 2006 : 		}

  00008	c3		 ret	 0
$LN3@Myptr@2:

; 2004 : 		return (this->_BUF_SIZE <= this->_Myres ? this->_Bx._Ptr
; 2005 : 			: this->_Bx._Buf);

  00009	8b c1		 mov	 eax, ecx

; 2006 : 		}

  0000b	c3		 ret	 0
?_Myptr@?$basic_string@DU?$char_traits@D@std@@V?$allocator@D@2@@std@@QAEPADXZ ENDP ; std::basic_string<char,std::char_traits<char>,std::allocator<char> >::_Myptr
_TEXT	ENDS
PUBLIC	??_C@_0BA@JFNIOLAK@string?5too?5long?$AA@	; `string'
PUBLIC	?_Xlen@?$basic_string@DU?$char_traits@D@std@@V?$allocator@D@2@@std@@QBEXXZ ; std::basic_string<char,std::char_traits<char>,std::allocator<char> >::_Xlen
;	COMDAT ??_C@_0BA@JFNIOLAK@string?5too?5long?$AA@
CONST	SEGMENT
??_C@_0BA@JFNIOLAK@string?5too?5long?$AA@ DB 'string too long', 00H ; `string'
; Function compile flags: /Ogsp
CONST	ENDS
;	COMDAT ?_Xlen@?$basic_string@DU?$char_traits@D@std@@V?$allocator@D@2@@std@@QBEXXZ
_TEXT	SEGMENT
?_Xlen@?$basic_string@DU?$char_traits@D@std@@V?$allocator@D@2@@std@@QBEXXZ PROC ; std::basic_string<char,std::char_traits<char>,std::allocator<char> >::_Xlen, COMDAT
; _this$ = ecx

; 2016 : 		_Xlength_error("string too long");

  00000	68 00 00 00 00	 push	 OFFSET ??_C@_0BA@JFNIOLAK@string?5too?5long?$AA@
  00005	ff 15 00 00 00
	00		 call	 DWORD PTR __imp_?_Xlength_error@std@@YAXPBD@Z
$LN4@Xlen@3:
$LN3@Xlen@3:
  0000b	cc		 int	 3
?_Xlen@?$basic_string@DU?$char_traits@D@std@@V?$allocator@D@2@@std@@QBEXXZ ENDP ; std::basic_string<char,std::char_traits<char>,std::allocator<char> >::_Xlen
_TEXT	ENDS
PUBLIC	??_C@_0BI@CFPLBAOH@invalid?5string?5position?$AA@ ; `string'
PUBLIC	?_Xran@?$basic_string@DU?$char_traits@D@std@@V?$allocator@D@2@@std@@QBEXXZ ; std::basic_string<char,std::char_traits<char>,std::allocator<char> >::_Xran
EXTRN	__imp_?_Xout_of_range@std@@YAXPBD@Z:PROC
;	COMDAT ??_C@_0BI@CFPLBAOH@invalid?5string?5position?$AA@
CONST	SEGMENT
??_C@_0BI@CFPLBAOH@invalid?5string?5position?$AA@ DB 'invalid string posi'
	DB	'tion', 00H					; `string'
; Function compile flags: /Ogsp
CONST	ENDS
;	COMDAT ?_Xran@?$basic_string@DU?$char_traits@D@std@@V?$allocator@D@2@@std@@QBEXXZ
_TEXT	SEGMENT
?_Xran@?$basic_string@DU?$char_traits@D@std@@V?$allocator@D@2@@std@@QBEXXZ PROC ; std::basic_string<char,std::char_traits<char>,std::allocator<char> >::_Xran, COMDAT
; _this$ = ecx

; 2021 : 		_Xout_of_range("invalid string position");

  00000	68 00 00 00 00	 push	 OFFSET ??_C@_0BI@CFPLBAOH@invalid?5string?5position?$AA@
  00005	ff 15 00 00 00
	00		 call	 DWORD PTR __imp_?_Xout_of_range@std@@YAXPBD@Z
$LN4@Xran:
$LN3@Xran:
  0000b	cc		 int	 3
?_Xran@?$basic_string@DU?$char_traits@D@std@@V?$allocator@D@2@@std@@QBEXXZ ENDP ; std::basic_string<char,std::char_traits<char>,std::allocator<char> >::_Xran
_TEXT	ENDS
PUBLIC	?deallocate@?$allocator@D@std@@QAEXPADI@Z	; std::allocator<char>::deallocate
; Function compile flags: /Ogsp
; File c:\program files (x86)\microsoft visual studio 10.0\vc\include\xmemory
;	COMDAT ?deallocate@?$allocator@D@std@@QAEXPADI@Z
_TEXT	SEGMENT
__Ptr$ = 8						; size = 4
___formal$ = 12						; size = 4
?deallocate@?$allocator@D@std@@QAEXPADI@Z PROC		; std::allocator<char>::deallocate, COMDAT
; _this$ = ecx

; 181  : 		{	// deallocate object at _Ptr, ignore size

  00000	55		 push	 ebp
  00001	8b ec		 mov	 ebp, esp

; 182  : 		::operator delete(_Ptr);

  00003	ff 75 08	 push	 DWORD PTR __Ptr$[ebp]
  00006	e8 00 00 00 00	 call	 ??3@YAXPAX@Z		; operator delete
  0000b	59		 pop	 ecx

; 183  : 		}

  0000c	5d		 pop	 ebp
  0000d	c2 08 00	 ret	 8
?deallocate@?$allocator@D@std@@QAEXPADI@Z ENDP		; std::allocator<char>::deallocate
_TEXT	ENDS
PUBLIC	?_Inside@?$basic_string@DU?$char_traits@D@std@@V?$allocator@D@2@@std@@QAE_NPBD@Z ; std::basic_string<char,std::char_traits<char>,std::allocator<char> >::_Inside
; Function compile flags: /Ogsp
; File c:\program files (x86)\microsoft visual studio 10.0\vc\include\xstring
;	COMDAT ?_Inside@?$basic_string@DU?$char_traits@D@std@@V?$allocator@D@2@@std@@QAE_NPBD@Z
_TEXT	SEGMENT
__Ptr$ = 8						; size = 4
?_Inside@?$basic_string@DU?$char_traits@D@std@@V?$allocator@D@2@@std@@QAE_NPBD@Z PROC ; std::basic_string<char,std::char_traits<char>,std::allocator<char> >::_Inside, COMDAT
; _this$ = ecx

; 1973 : 		{	// test if _Ptr points inside string

  00000	55		 push	 ebp
  00001	8b ec		 mov	 ebp, esp

; 1974 : 		if (_Ptr == 0 || _Ptr < _Myptr() || _Myptr() + this->_Mysize <= _Ptr)

  00003	83 7d 08 00	 cmp	 DWORD PTR __Ptr$[ebp], 0
  00007	74 2c		 je	 SHORT $LN2@Inside@2
  00009	8b 51 14	 mov	 edx, DWORD PTR [ecx+20]
  0000c	83 fa 10	 cmp	 edx, 16			; 00000010H
  0000f	72 04		 jb	 SHORT $LN8@Inside@2
  00011	8b 01		 mov	 eax, DWORD PTR [ecx]
  00013	eb 02		 jmp	 SHORT $LN9@Inside@2
$LN8@Inside@2:
  00015	8b c1		 mov	 eax, ecx
$LN9@Inside@2:
  00017	39 45 08	 cmp	 DWORD PTR __Ptr$[ebp], eax
  0001a	72 19		 jb	 SHORT $LN2@Inside@2
  0001c	83 fa 10	 cmp	 edx, 16			; 00000010H
  0001f	72 04		 jb	 SHORT $LN12@Inside@2
  00021	8b 01		 mov	 eax, DWORD PTR [ecx]
  00023	eb 02		 jmp	 SHORT $LN13@Inside@2
$LN12@Inside@2:
  00025	8b c1		 mov	 eax, ecx
$LN13@Inside@2:
  00027	8b 49 10	 mov	 ecx, DWORD PTR [ecx+16]
  0002a	03 c8		 add	 ecx, eax
  0002c	3b 4d 08	 cmp	 ecx, DWORD PTR __Ptr$[ebp]
  0002f	76 04		 jbe	 SHORT $LN2@Inside@2

; 1976 : 		else
; 1977 : 			return (true);

  00031	b0 01		 mov	 al, 1
  00033	eb 02		 jmp	 SHORT $LN1@Inside@2
$LN2@Inside@2:

; 1975 : 			return (false);	// don't ask

  00035	32 c0		 xor	 al, al
$LN1@Inside@2:

; 1978 : 		}

  00037	5d		 pop	 ebp
  00038	c2 04 00	 ret	 4
?_Inside@?$basic_string@DU?$char_traits@D@std@@V?$allocator@D@2@@std@@QAE_NPBD@Z ENDP ; std::basic_string<char,std::char_traits<char>,std::allocator<char> >::_Inside
_TEXT	ENDS
PUBLIC	?max_size@?$allocator@D@std@@QBEIXZ		; std::allocator<char>::max_size
; Function compile flags: /Ogsp
; File c:\program files (x86)\microsoft visual studio 10.0\vc\include\xmemory
;	COMDAT ?max_size@?$allocator@D@std@@QBEIXZ
_TEXT	SEGMENT
?max_size@?$allocator@D@std@@QBEIXZ PROC		; std::allocator<char>::max_size, COMDAT
; _this$ = ecx

; 218  : 		_SIZT _Count = (_SIZT)(-1) / sizeof (_Ty);
; 219  : 		return (0 < _Count ? _Count : 1);

  00000	83 c8 ff	 or	 eax, -1

; 220  : 		}

  00003	c3		 ret	 0
?max_size@?$allocator@D@std@@QBEIXZ ENDP		; std::allocator<char>::max_size
_TEXT	ENDS
PUBLIC	??$forward@V?$basic_string@DU?$char_traits@D@std@@V?$allocator@D@2@@std@@@std@@YA$$QAV?$basic_string@DU?$char_traits@D@std@@V?$allocator@D@2@@0@AAV10@@Z ; std::forward<std::basic_string<char,std::char_traits<char>,std::allocator<char> > >
; Function compile flags: /Ogsp
; File c:\program files (x86)\microsoft visual studio 10.0\vc\include\utility
;	COMDAT ??$forward@V?$basic_string@DU?$char_traits@D@std@@V?$allocator@D@2@@std@@@std@@YA$$QAV?$basic_string@DU?$char_traits@D@std@@V?$allocator@D@2@@0@AAV10@@Z
_TEXT	SEGMENT
__Arg$ = 8						; size = 4
??$forward@V?$basic_string@DU?$char_traits@D@std@@V?$allocator@D@2@@std@@@std@@YA$$QAV?$basic_string@DU?$char_traits@D@std@@V?$allocator@D@2@@0@AAV10@@Z PROC ; std::forward<std::basic_string<char,std::char_traits<char>,std::allocator<char> > >, COMDAT

; 78   : 	{	// forward _Arg, given explicitly specified type parameter

  00000	55		 push	 ebp
  00001	8b ec		 mov	 ebp, esp

; 79   : 	return ((_Ty&&)_Arg);

  00003	8b 45 08	 mov	 eax, DWORD PTR __Arg$[ebp]

; 80   : 	}

  00006	5d		 pop	 ebp
  00007	c3		 ret	 0
??$forward@V?$basic_string@DU?$char_traits@D@std@@V?$allocator@D@2@@std@@@std@@YA$$QAV?$basic_string@DU?$char_traits@D@std@@V?$allocator@D@2@@0@AAV10@@Z ENDP ; std::forward<std::basic_string<char,std::char_traits<char>,std::allocator<char> > >
_TEXT	ENDS
PUBLIC	??$_Allocate@D@std@@YAPADIPAD@Z			; std::_Allocate<char>
; Function compile flags: /Ogsp
; File c:\program files (x86)\microsoft visual studio 10.0\vc\include\xmemory
;	COMDAT ??$_Allocate@D@std@@YAPADIPAD@Z
_TEXT	SEGMENT
$T508507 = -12						; size = 12
$T508511 = 8						; size = 4
__Count$ = 8						; size = 4
___formal$ = 12						; size = 4
??$_Allocate@D@std@@YAPADIPAD@Z PROC			; std::_Allocate<char>, COMDAT

; 30   : 	{	// allocate storage for _Count elements of type _Ty

  00000	55		 push	 ebp
  00001	8b ec		 mov	 ebp, esp

; 31   : 	void *_Ptr = 0;

  00003	33 c0		 xor	 eax, eax
  00005	83 ec 0c	 sub	 esp, 12			; 0000000cH

; 32   : 
; 33   : 	if (_Count <= 0)

  00008	39 45 08	 cmp	 DWORD PTR __Count$[ebp], eax

; 34   : 		_Count = 0;
; 35   : 	else if (((_SIZT)(-1) / sizeof (_Ty) < _Count)

  0000b	76 39		 jbe	 SHORT $LN5@Allocate@3

; 36   : 		|| (_Ptr = ::operator new(_Count * sizeof (_Ty))) == 0)

  0000d	83 7d 08 ff	 cmp	 DWORD PTR __Count$[ebp], -1
  00011	77 0d		 ja	 SHORT $LN1@Allocate@3
  00013	ff 75 08	 push	 DWORD PTR __Count$[ebp]
  00016	e8 00 00 00 00	 call	 ??2@YAPAXI@Z		; operator new
  0001b	59		 pop	 ecx
  0001c	85 c0		 test	 eax, eax

; 38   : 
; 39   : 	return ((_Ty _FARQ *)_Ptr);

  0001e	75 26		 jne	 SHORT $LN5@Allocate@3
$LN1@Allocate@3:

; 37   : 		_THROW_NCEE(bad_alloc, 0);

  00020	83 65 08 00	 and	 DWORD PTR $T508511[ebp], 0
  00024	8d 45 08	 lea	 eax, DWORD PTR $T508511[ebp]
  00027	50		 push	 eax
  00028	8d 4d f4	 lea	 ecx, DWORD PTR $T508507[ebp]
  0002b	ff 15 00 00 00
	00		 call	 DWORD PTR __imp_??0exception@std@@QAE@ABQBD@Z
  00031	68 00 00 00 00	 push	 OFFSET __TI2?AVbad_alloc@std@@
  00036	8d 45 f4	 lea	 eax, DWORD PTR $T508507[ebp]
  00039	50		 push	 eax
  0003a	c7 45 f4 00 00
	00 00		 mov	 DWORD PTR $T508507[ebp], OFFSET ??_7bad_alloc@std@@6B@
  00041	e8 00 00 00 00	 call	 __CxxThrowException@8
$LN10@Allocate@3:
$LN5@Allocate@3:

; 40   : 	}

  00046	c9		 leave
  00047	c3		 ret	 0
$LN9@Allocate@3:
??$_Allocate@D@std@@YAPADIPAD@Z ENDP			; std::_Allocate<char>
_TEXT	ENDS
EXTRN	__imp_??0exception@std@@QAE@ABV01@@Z:PROC
; Function compile flags: /Ogsp
;	COMDAT ??0bad_alloc@std@@QAE@ABV01@@Z
_TEXT	SEGMENT
___that$ = 8						; size = 4
??0bad_alloc@std@@QAE@ABV01@@Z PROC			; std::bad_alloc::bad_alloc, COMDAT
; _this$ = ecx
  00000	55		 push	 ebp
  00001	8b ec		 mov	 ebp, esp
  00003	56		 push	 esi
  00004	ff 75 08	 push	 DWORD PTR ___that$[ebp]
  00007	8b f1		 mov	 esi, ecx
  00009	ff 15 00 00 00
	00		 call	 DWORD PTR __imp_??0exception@std@@QAE@ABV01@@Z
  0000f	c7 06 00 00 00
	00		 mov	 DWORD PTR [esi], OFFSET ??_7bad_alloc@std@@6B@
  00015	8b c6		 mov	 eax, esi
  00017	5e		 pop	 esi
  00018	5d		 pop	 ebp
  00019	c2 04 00	 ret	 4
??0bad_alloc@std@@QAE@ABV01@@Z ENDP			; std::bad_alloc::bad_alloc
_TEXT	ENDS
PUBLIC	??$move@AAV?$basic_string@DU?$char_traits@D@std@@V?$allocator@D@2@@std@@@std@@YA$$QAV?$basic_string@DU?$char_traits@D@std@@V?$allocator@D@2@@0@AAV10@@Z ; std::move<std::basic_string<char,std::char_traits<char>,std::allocator<char> > &>
; Function compile flags: /Ogsp
; File c:\program files (x86)\microsoft visual studio 10.0\vc\include\utility
;	COMDAT ??$move@AAV?$basic_string@DU?$char_traits@D@std@@V?$allocator@D@2@@std@@@std@@YA$$QAV?$basic_string@DU?$char_traits@D@std@@V?$allocator@D@2@@0@AAV10@@Z
_TEXT	SEGMENT
__Arg$ = 8						; size = 4
??$move@AAV?$basic_string@DU?$char_traits@D@std@@V?$allocator@D@2@@std@@@std@@YA$$QAV?$basic_string@DU?$char_traits@D@std@@V?$allocator@D@2@@0@AAV10@@Z PROC ; std::move<std::basic_string<char,std::char_traits<char>,std::allocator<char> > &>, COMDAT

; 86   : 	{	// forward _Arg as movable

  00000	55		 push	 ebp
  00001	8b ec		 mov	 ebp, esp

; 87   : 	return ((typename tr1::_Remove_reference<_Ty>::_Type&&)_Arg);

  00003	8b 45 08	 mov	 eax, DWORD PTR __Arg$[ebp]

; 88   : 	}

  00006	5d		 pop	 ebp
  00007	c3		 ret	 0
??$move@AAV?$basic_string@DU?$char_traits@D@std@@V?$allocator@D@2@@std@@@std@@YA$$QAV?$basic_string@DU?$char_traits@D@std@@V?$allocator@D@2@@0@AAV10@@Z ENDP ; std::move<std::basic_string<char,std::char_traits<char>,std::allocator<char> > &>
_TEXT	ENDS
PUBLIC	??$?8DD@std@@YA_NABV?$allocator@D@0@0@Z		; std::operator==<char,char>
; Function compile flags: /Ogsp
; File c:\program files (x86)\microsoft visual studio 10.0\vc\include\xmemory
;	COMDAT ??$?8DD@std@@YA_NABV?$allocator@D@0@0@Z
_TEXT	SEGMENT
___formal$ = 8						; size = 4
___formal$ = 12						; size = 4
??$?8DD@std@@YA_NABV?$allocator@D@0@0@Z PROC		; std::operator==<char,char>, COMDAT

; 263  : 	return (true);

  00000	b0 01		 mov	 al, 1

; 264  : 	}

  00002	c3		 ret	 0
??$?8DD@std@@YA_NABV?$allocator@D@0@0@Z ENDP		; std::operator==<char,char>
_TEXT	ENDS
PUBLIC	??1?$_Vector_val@V?$basic_string@DU?$char_traits@D@std@@V?$allocator@D@2@@std@@V?$allocator@V?$basic_string@DU?$char_traits@D@std@@V?$allocator@D@2@@std@@@2@@std@@QAE@XZ ; std::_Vector_val<std::basic_string<char,std::char_traits<char>,std::allocator<char> >,std::allocator<std::basic_string<char,std::char_traits<char>,std::allocator<char> > > >::~_Vector_val<std::basic_string<char,std::char_traits<char>,std::allocator<char> >,std::allocator<std::basic_string<char,std::char_traits<char>,std::allocator<char> > > >
; Function compile flags: /Ogsp
; File c:\program files (x86)\microsoft visual studio 10.0\vc\include\vector
;	COMDAT ??1?$_Vector_val@V?$basic_string@DU?$char_traits@D@std@@V?$allocator@D@2@@std@@V?$allocator@V?$basic_string@DU?$char_traits@D@std@@V?$allocator@D@2@@std@@@2@@std@@QAE@XZ
_TEXT	SEGMENT
??1?$_Vector_val@V?$basic_string@DU?$char_traits@D@std@@V?$allocator@D@2@@std@@V?$allocator@V?$basic_string@DU?$char_traits@D@std@@V?$allocator@D@2@@std@@@2@@std@@QAE@XZ PROC ; std::_Vector_val<std::basic_string<char,std::char_traits<char>,std::allocator<char> >,std::allocator<std::basic_string<char,std::char_traits<char>,std::allocator<char> > > >::~_Vector_val<std::basic_string<char,std::char_traits<char>,std::allocator<char> >,std::allocator<std::basic_string<char,std::char_traits<char>,std::allocator<char> > > >, COMDAT
; _this$ = ecx

; 434  : 		}

  00000	c3		 ret	 0
??1?$_Vector_val@V?$basic_string@DU?$char_traits@D@std@@V?$allocator@D@2@@std@@V?$allocator@V?$basic_string@DU?$char_traits@D@std@@V?$allocator@D@2@@std@@@2@@std@@QAE@XZ ENDP ; std::_Vector_val<std::basic_string<char,std::char_traits<char>,std::allocator<char> >,std::allocator<std::basic_string<char,std::char_traits<char>,std::allocator<char> > > >::~_Vector_val<std::basic_string<char,std::char_traits<char>,std::allocator<char> >,std::allocator<std::basic_string<char,std::char_traits<char>,std::allocator<char> > > >
_TEXT	ENDS
PUBLIC	?deallocate@?$allocator@V?$basic_string@DU?$char_traits@D@std@@V?$allocator@D@2@@std@@@std@@QAEXPAV?$basic_string@DU?$char_traits@D@std@@V?$allocator@D@2@@2@I@Z ; std::allocator<std::basic_string<char,std::char_traits<char>,std::allocator<char> > >::deallocate
; Function compile flags: /Ogsp
; File c:\program files (x86)\microsoft visual studio 10.0\vc\include\xmemory
;	COMDAT ?deallocate@?$allocator@V?$basic_string@DU?$char_traits@D@std@@V?$allocator@D@2@@std@@@std@@QAEXPAV?$basic_string@DU?$char_traits@D@std@@V?$allocator@D@2@@2@I@Z
_TEXT	SEGMENT
__Ptr$ = 8						; size = 4
___formal$ = 12						; size = 4
?deallocate@?$allocator@V?$basic_string@DU?$char_traits@D@std@@V?$allocator@D@2@@std@@@std@@QAEXPAV?$basic_string@DU?$char_traits@D@std@@V?$allocator@D@2@@2@I@Z PROC ; std::allocator<std::basic_string<char,std::char_traits<char>,std::allocator<char> > >::deallocate, COMDAT
; _this$ = ecx

; 181  : 		{	// deallocate object at _Ptr, ignore size

  00000	55		 push	 ebp
  00001	8b ec		 mov	 ebp, esp

; 182  : 		::operator delete(_Ptr);

  00003	ff 75 08	 push	 DWORD PTR __Ptr$[ebp]
  00006	e8 00 00 00 00	 call	 ??3@YAXPAX@Z		; operator delete
  0000b	59		 pop	 ecx

; 183  : 		}

  0000c	5d		 pop	 ebp
  0000d	c2 08 00	 ret	 8
?deallocate@?$allocator@V?$basic_string@DU?$char_traits@D@std@@V?$allocator@D@2@@std@@@std@@QAEXPAV?$basic_string@DU?$char_traits@D@std@@V?$allocator@D@2@@2@I@Z ENDP ; std::allocator<std::basic_string<char,std::char_traits<char>,std::allocator<char> > >::deallocate
_TEXT	ENDS
PUBLIC	??$_Ptr_cat@V?$basic_string@DU?$char_traits@D@std@@V?$allocator@D@2@@std@@V12@@std@@YA?AU_Nonscalar_ptr_iterator_tag@0@PAV?$basic_string@DU?$char_traits@D@std@@V?$allocator@D@2@@0@0@Z ; std::_Ptr_cat<std::basic_string<char,std::char_traits<char>,std::allocator<char> >,std::basic_string<char,std::char_traits<char>,std::allocator<char> > >
; Function compile flags: /Ogsp
; File c:\program files (x86)\microsoft visual studio 10.0\vc\include\xutility
;	COMDAT ??$_Ptr_cat@V?$basic_string@DU?$char_traits@D@std@@V?$allocator@D@2@@std@@V12@@std@@YA?AU_Nonscalar_ptr_iterator_tag@0@PAV?$basic_string@DU?$char_traits@D@std@@V?$allocator@D@2@@0@0@Z
_TEXT	SEGMENT
__Cat$ = -1						; size = 1
___formal$ = 8						; size = 4
___formal$ = 12						; size = 4
??$_Ptr_cat@V?$basic_string@DU?$char_traits@D@std@@V?$allocator@D@2@@std@@V12@@std@@YA?AU_Nonscalar_ptr_iterator_tag@0@PAV?$basic_string@DU?$char_traits@D@std@@V?$allocator@D@2@@0@0@Z PROC ; std::_Ptr_cat<std::basic_string<char,std::char_traits<char>,std::allocator<char> >,std::basic_string<char,std::char_traits<char>,std::allocator<char> > >, COMDAT

; 516  : 	{	// return pointer category from pointers

  00000	55		 push	 ebp
  00001	8b ec		 mov	 ebp, esp
  00003	51		 push	 ecx

; 517  : 	typename _Ptr_cat_helper<_Elem1, _Elem2>::_Type _Cat;
; 518  : 	return (_Cat);

  00004	8a 45 ff	 mov	 al, BYTE PTR __Cat$[ebp]

; 519  : 	}

  00007	c9		 leave
  00008	c3		 ret	 0
??$_Ptr_cat@V?$basic_string@DU?$char_traits@D@std@@V?$allocator@D@2@@std@@V12@@std@@YA?AU_Nonscalar_ptr_iterator_tag@0@PAV?$basic_string@DU?$char_traits@D@std@@V?$allocator@D@2@@0@0@Z ENDP ; std::_Ptr_cat<std::basic_string<char,std::char_traits<char>,std::allocator<char> >,std::basic_string<char,std::char_traits<char>,std::allocator<char> > >
_TEXT	ENDS
PUBLIC	??D?$_Vector_iterator@V?$_Vector_val@UItemListInfoSort@@V?$allocator@UItemListInfoSort@@@std@@@std@@@std@@QBEAAUItemListInfoSort@@XZ ; std::_Vector_iterator<std::_Vector_val<ItemListInfoSort,std::allocator<ItemListInfoSort> > >::operator*
; Function compile flags: /Ogsp
; File c:\program files (x86)\microsoft visual studio 10.0\vc\include\vector
;	COMDAT ??D?$_Vector_iterator@V?$_Vector_val@UItemListInfoSort@@V?$allocator@UItemListInfoSort@@@std@@@std@@@std@@QBEAAUItemListInfoSort@@XZ
_TEXT	SEGMENT
??D?$_Vector_iterator@V?$_Vector_val@UItemListInfoSort@@V?$allocator@UItemListInfoSort@@@std@@@std@@@std@@QBEAAUItemListInfoSort@@XZ PROC ; std::_Vector_iterator<std::_Vector_val<ItemListInfoSort,std::allocator<ItemListInfoSort> > >::operator*, COMDAT
; _this$ = ecx

; 322  : 		return ((reference)**(_Mybase *)this);

  00000	8b 01		 mov	 eax, DWORD PTR [ecx]

; 323  : 		}

  00002	c3		 ret	 0
??D?$_Vector_iterator@V?$_Vector_val@UItemListInfoSort@@V?$allocator@UItemListInfoSort@@@std@@@std@@@std@@QBEAAUItemListInfoSort@@XZ ENDP ; std::_Vector_iterator<std::_Vector_val<ItemListInfoSort,std::allocator<ItemListInfoSort> > >::operator*
_TEXT	ENDS
PUBLIC	??E?$_Vector_iterator@V?$_Vector_val@UItemListInfoSort@@V?$allocator@UItemListInfoSort@@@std@@@std@@@std@@QAEAAV01@XZ ; std::_Vector_iterator<std::_Vector_val<ItemListInfoSort,std::allocator<ItemListInfoSort> > >::operator++
; Function compile flags: /Ogsp
;	COMDAT ??E?$_Vector_iterator@V?$_Vector_val@UItemListInfoSort@@V?$allocator@UItemListInfoSort@@@std@@@std@@@std@@QAEAAV01@XZ
_TEXT	SEGMENT
??E?$_Vector_iterator@V?$_Vector_val@UItemListInfoSort@@V?$allocator@UItemListInfoSort@@@std@@@std@@@std@@QAEAAV01@XZ PROC ; std::_Vector_iterator<std::_Vector_val<ItemListInfoSort,std::allocator<ItemListInfoSort> > >::operator++, COMDAT
; _this$ = ecx

; 331  : 		{	// preincrement

  00000	8b c1		 mov	 eax, ecx

; 332  : 		++*(_Mybase *)this;

  00002	83 00 14	 add	 DWORD PTR [eax], 20	; 00000014H

; 333  : 		return (*this);
; 334  : 		}

  00005	c3		 ret	 0
??E?$_Vector_iterator@V?$_Vector_val@UItemListInfoSort@@V?$allocator@UItemListInfoSort@@@std@@@std@@@std@@QAEAAV01@XZ ENDP ; std::_Vector_iterator<std::_Vector_val<ItemListInfoSort,std::allocator<ItemListInfoSort> > >::operator++
_TEXT	ENDS
PUBLIC	??0?$_Vector_val@V?$basic_string@DU?$char_traits@D@std@@V?$allocator@D@2@@std@@V?$allocator@V?$basic_string@DU?$char_traits@D@std@@V?$allocator@D@2@@std@@@2@@std@@QAE@V?$allocator@V?$basic_string@DU?$char_traits@D@std@@V?$allocator@D@2@@std@@@1@@Z ; std::_Vector_val<std::basic_string<char,std::char_traits<char>,std::allocator<char> >,std::allocator<std::basic_string<char,std::char_traits<char>,std::allocator<char> > > >::_Vector_val<std::basic_string<char,std::char_traits<char>,std::allocator<char> >,std::allocator<std::basic_string<char,std::char_traits<char>,std::allocator<char> > > >
; Function compile flags: /Ogsp
;	COMDAT ??0?$_Vector_val@V?$basic_string@DU?$char_traits@D@std@@V?$allocator@D@2@@std@@V?$allocator@V?$basic_string@DU?$char_traits@D@std@@V?$allocator@D@2@@std@@@2@@std@@QAE@V?$allocator@V?$basic_string@DU?$char_traits@D@std@@V?$allocator@D@2@@std@@@1@@Z
_TEXT	SEGMENT
__Al$ = 8						; size = 1
??0?$_Vector_val@V?$basic_string@DU?$char_traits@D@std@@V?$allocator@D@2@@std@@V?$allocator@V?$basic_string@DU?$char_traits@D@std@@V?$allocator@D@2@@std@@@2@@std@@QAE@V?$allocator@V?$basic_string@DU?$char_traits@D@std@@V?$allocator@D@2@@std@@@1@@Z PROC ; std::_Vector_val<std::basic_string<char,std::char_traits<char>,std::allocator<char> >,std::allocator<std::basic_string<char,std::char_traits<char>,std::allocator<char> > > >::_Vector_val<std::basic_string<char,std::char_traits<char>,std::allocator<char> >,std::allocator<std::basic_string<char,std::char_traits<char>,std::allocator<char> > > >, COMDAT
; _this$ = ecx

; 426  : 		{	// construct allocator from _Al

  00000	8b c1		 mov	 eax, ecx

; 427  : 		_Myfirst = 0;

  00002	33 c9		 xor	 ecx, ecx
  00004	89 08		 mov	 DWORD PTR [eax], ecx

; 428  : 		_Mylast = 0;

  00006	89 48 04	 mov	 DWORD PTR [eax+4], ecx

; 429  : 		_Myend = 0;

  00009	89 48 08	 mov	 DWORD PTR [eax+8], ecx

; 430  : 		}

  0000c	c2 04 00	 ret	 4
??0?$_Vector_val@V?$basic_string@DU?$char_traits@D@std@@V?$allocator@D@2@@std@@V?$allocator@V?$basic_string@DU?$char_traits@D@std@@V?$allocator@D@2@@std@@@2@@std@@QAE@V?$allocator@V?$basic_string@DU?$char_traits@D@std@@V?$allocator@D@2@@std@@@1@@Z ENDP ; std::_Vector_val<std::basic_string<char,std::char_traits<char>,std::allocator<char> >,std::allocator<std::basic_string<char,std::char_traits<char>,std::allocator<char> > > >::_Vector_val<std::basic_string<char,std::char_traits<char>,std::allocator<char> >,std::allocator<std::basic_string<char,std::char_traits<char>,std::allocator<char> > > >
_TEXT	ENDS
PUBLIC	??0?$_Vector_val@UItemListInfoSort@@V?$allocator@UItemListInfoSort@@@std@@@std@@QAE@V?$allocator@UItemListInfoSort@@@1@@Z ; std::_Vector_val<ItemListInfoSort,std::allocator<ItemListInfoSort> >::_Vector_val<ItemListInfoSort,std::allocator<ItemListInfoSort> >
; Function compile flags: /Ogsp
;	COMDAT ??0?$_Vector_val@UItemListInfoSort@@V?$allocator@UItemListInfoSort@@@std@@@std@@QAE@V?$allocator@UItemListInfoSort@@@1@@Z
_TEXT	SEGMENT
__Al$ = 8						; size = 1
??0?$_Vector_val@UItemListInfoSort@@V?$allocator@UItemListInfoSort@@@std@@@std@@QAE@V?$allocator@UItemListInfoSort@@@1@@Z PROC ; std::_Vector_val<ItemListInfoSort,std::allocator<ItemListInfoSort> >::_Vector_val<ItemListInfoSort,std::allocator<ItemListInfoSort> >, COMDAT
; _this$ = ecx

; 426  : 		{	// construct allocator from _Al

  00000	8b c1		 mov	 eax, ecx

; 427  : 		_Myfirst = 0;

  00002	33 c9		 xor	 ecx, ecx
  00004	89 08		 mov	 DWORD PTR [eax], ecx

; 428  : 		_Mylast = 0;

  00006	89 48 04	 mov	 DWORD PTR [eax+4], ecx

; 429  : 		_Myend = 0;

  00009	89 48 08	 mov	 DWORD PTR [eax+8], ecx

; 430  : 		}

  0000c	c2 04 00	 ret	 4
??0?$_Vector_val@UItemListInfoSort@@V?$allocator@UItemListInfoSort@@@std@@@std@@QAE@V?$allocator@UItemListInfoSort@@@1@@Z ENDP ; std::_Vector_val<ItemListInfoSort,std::allocator<ItemListInfoSort> >::_Vector_val<ItemListInfoSort,std::allocator<ItemListInfoSort> >
_TEXT	ENDS
PUBLIC	??8?$_Vector_const_iterator@V?$_Vector_val@UItemListInfoSort@@V?$allocator@UItemListInfoSort@@@std@@@std@@@std@@QBE_NABV01@@Z ; std::_Vector_const_iterator<std::_Vector_val<ItemListInfoSort,std::allocator<ItemListInfoSort> > >::operator==
; Function compile flags: /Ogsp
;	COMDAT ??8?$_Vector_const_iterator@V?$_Vector_val@UItemListInfoSort@@V?$allocator@UItemListInfoSort@@@std@@@std@@@std@@QBE_NABV01@@Z
_TEXT	SEGMENT
__Right$ = 8						; size = 4
??8?$_Vector_const_iterator@V?$_Vector_val@UItemListInfoSort@@V?$allocator@UItemListInfoSort@@@std@@@std@@@std@@QBE_NABV01@@Z PROC ; std::_Vector_const_iterator<std::_Vector_val<ItemListInfoSort,std::allocator<ItemListInfoSort> > >::operator==, COMDAT
; _this$ = ecx

; 201  : 		{	// test for iterator equality

  00000	55		 push	 ebp
  00001	8b ec		 mov	 ebp, esp

; 202  : 		_Compat(_Right);
; 203  : 		return (this->_Ptr == _Right._Ptr);

  00003	8b 01		 mov	 eax, DWORD PTR [ecx]
  00005	8b 4d 08	 mov	 ecx, DWORD PTR __Right$[ebp]
  00008	2b 01		 sub	 eax, DWORD PTR [ecx]
  0000a	f7 d8		 neg	 eax
  0000c	1b c0		 sbb	 eax, eax
  0000e	40		 inc	 eax

; 204  : 		}

  0000f	5d		 pop	 ebp
  00010	c2 04 00	 ret	 4
??8?$_Vector_const_iterator@V?$_Vector_val@UItemListInfoSort@@V?$allocator@UItemListInfoSort@@@std@@@std@@@std@@QBE_NABV01@@Z ENDP ; std::_Vector_const_iterator<std::_Vector_val<ItemListInfoSort,std::allocator<ItemListInfoSort> > >::operator==
_TEXT	ENDS
PUBLIC	?max_size@?$vector@V?$basic_string@DU?$char_traits@D@std@@V?$allocator@D@2@@std@@V?$allocator@V?$basic_string@DU?$char_traits@D@std@@V?$allocator@D@2@@std@@@2@@std@@QBEIXZ ; std::vector<std::basic_string<char,std::char_traits<char>,std::allocator<char> >,std::allocator<std::basic_string<char,std::char_traits<char>,std::allocator<char> > > >::max_size
; Function compile flags: /Ogsp
;	COMDAT ?max_size@?$vector@V?$basic_string@DU?$char_traits@D@std@@V?$allocator@D@2@@std@@V?$allocator@V?$basic_string@DU?$char_traits@D@std@@V?$allocator@D@2@@std@@@2@@std@@QBEIXZ
_TEXT	SEGMENT
?max_size@?$vector@V?$basic_string@DU?$char_traits@D@std@@V?$allocator@D@2@@std@@V?$allocator@V?$basic_string@DU?$char_traits@D@std@@V?$allocator@D@2@@std@@@2@@std@@QBEIXZ PROC ; std::vector<std::basic_string<char,std::char_traits<char>,std::allocator<char> >,std::allocator<std::basic_string<char,std::char_traits<char>,std::allocator<char> > > >::max_size, COMDAT
; _this$ = ecx

; 884  : 		return (this->_Alval.max_size());

  00000	b8 49 92 24 09	 mov	 eax, 153391689		; 09249249H

; 885  : 		}

  00005	c3		 ret	 0
?max_size@?$vector@V?$basic_string@DU?$char_traits@D@std@@V?$allocator@D@2@@std@@V?$allocator@V?$basic_string@DU?$char_traits@D@std@@V?$allocator@D@2@@std@@@2@@std@@QBEIXZ ENDP ; std::vector<std::basic_string<char,std::char_traits<char>,std::allocator<char> >,std::allocator<std::basic_string<char,std::char_traits<char>,std::allocator<char> > > >::max_size
_TEXT	ENDS
PUBLIC	?allocate@?$allocator@V?$basic_string@DU?$char_traits@D@std@@V?$allocator@D@2@@std@@@std@@QAEPAV?$basic_string@DU?$char_traits@D@std@@V?$allocator@D@2@@2@I@Z ; std::allocator<std::basic_string<char,std::char_traits<char>,std::allocator<char> > >::allocate
; Function compile flags: /Ogsp
; File c:\program files (x86)\microsoft visual studio 10.0\vc\include\xmemory
;	COMDAT ?allocate@?$allocator@V?$basic_string@DU?$char_traits@D@std@@V?$allocator@D@2@@std@@@std@@QAEPAV?$basic_string@DU?$char_traits@D@std@@V?$allocator@D@2@@2@I@Z
_TEXT	SEGMENT
__Count$ = 8						; size = 4
?allocate@?$allocator@V?$basic_string@DU?$char_traits@D@std@@V?$allocator@D@2@@std@@@std@@QAEPAV?$basic_string@DU?$char_traits@D@std@@V?$allocator@D@2@@2@I@Z PROC ; std::allocator<std::basic_string<char,std::char_traits<char>,std::allocator<char> > >::allocate, COMDAT
; _this$ = ecx

; 186  : 		{	// allocate array of _Count elements

  00000	55		 push	 ebp
  00001	8b ec		 mov	 ebp, esp

; 187  : 		return (_Allocate(_Count, (pointer)0));

  00003	6a 00		 push	 0
  00005	ff 75 08	 push	 DWORD PTR __Count$[ebp]
  00008	e8 00 00 00 00	 call	 ??$_Allocate@V?$basic_string@DU?$char_traits@D@std@@V?$allocator@D@2@@std@@@std@@YAPAV?$basic_string@DU?$char_traits@D@std@@V?$allocator@D@2@@0@IPAV10@@Z ; std::_Allocate<std::basic_string<char,std::char_traits<char>,std::allocator<char> > >
  0000d	59		 pop	 ecx
  0000e	59		 pop	 ecx

; 188  : 		}

  0000f	5d		 pop	 ebp
  00010	c2 04 00	 ret	 4
?allocate@?$allocator@V?$basic_string@DU?$char_traits@D@std@@V?$allocator@D@2@@std@@@std@@QAEPAV?$basic_string@DU?$char_traits@D@std@@V?$allocator@D@2@@2@I@Z ENDP ; std::allocator<std::basic_string<char,std::char_traits<char>,std::allocator<char> > >::allocate
_TEXT	ENDS
PUBLIC	?max_size@?$vector@UItemListInfoSort@@V?$allocator@UItemListInfoSort@@@std@@@std@@QBEIXZ ; std::vector<ItemListInfoSort,std::allocator<ItemListInfoSort> >::max_size
; Function compile flags: /Ogsp
; File c:\program files (x86)\microsoft visual studio 10.0\vc\include\vector
;	COMDAT ?max_size@?$vector@UItemListInfoSort@@V?$allocator@UItemListInfoSort@@@std@@@std@@QBEIXZ
_TEXT	SEGMENT
?max_size@?$vector@UItemListInfoSort@@V?$allocator@UItemListInfoSort@@@std@@@std@@QBEIXZ PROC ; std::vector<ItemListInfoSort,std::allocator<ItemListInfoSort> >::max_size, COMDAT
; _this$ = ecx

; 884  : 		return (this->_Alval.max_size());

  00000	b8 cc cc cc 0c	 mov	 eax, 214748364		; 0cccccccH

; 885  : 		}

  00005	c3		 ret	 0
?max_size@?$vector@UItemListInfoSort@@V?$allocator@UItemListInfoSort@@@std@@@std@@QBEIXZ ENDP ; std::vector<ItemListInfoSort,std::allocator<ItemListInfoSort> >::max_size
_TEXT	ENDS
PUBLIC	?_Grow_to@?$vector@UItemListInfoSort@@V?$allocator@UItemListInfoSort@@@std@@@std@@IBEII@Z ; std::vector<ItemListInfoSort,std::allocator<ItemListInfoSort> >::_Grow_to
; Function compile flags: /Ogsp
;	COMDAT ?_Grow_to@?$vector@UItemListInfoSort@@V?$allocator@UItemListInfoSort@@@std@@@std@@IBEII@Z
_TEXT	SEGMENT
__Count$ = 8						; size = 4
?_Grow_to@?$vector@UItemListInfoSort@@V?$allocator@UItemListInfoSort@@@std@@@std@@IBEII@Z PROC ; std::vector<ItemListInfoSort,std::allocator<ItemListInfoSort> >::_Grow_to, COMDAT
; _this$ = ecx

; 1274 : 		{	// grow by 50% or at least to _Count

  00000	55		 push	 ebp
  00001	8b ec		 mov	 ebp, esp

; 1275 : 		size_type _Capacity = capacity();

  00003	8b 41 08	 mov	 eax, DWORD PTR [ecx+8]
  00006	2b 01		 sub	 eax, DWORD PTR [ecx]
  00008	6a 14		 push	 20			; 00000014H
  0000a	99		 cdq
  0000b	59		 pop	 ecx
  0000c	f7 f9		 idiv	 ecx

; 1276 : 
; 1277 : 		_Capacity = max_size() - _Capacity / 2 < _Capacity
; 1278 : 			? 0 : _Capacity + _Capacity / 2;	// try to grow by 50%

  0000e	ba cc cc cc 0c	 mov	 edx, 214748364		; 0cccccccH
  00013	8b c8		 mov	 ecx, eax
  00015	d1 e9		 shr	 ecx, 1
  00017	2b d1		 sub	 edx, ecx
  00019	3b d0		 cmp	 edx, eax
  0001b	73 04		 jae	 SHORT $LN4@Grow_to
  0001d	33 c0		 xor	 eax, eax
  0001f	eb 02		 jmp	 SHORT $LN5@Grow_to
$LN4@Grow_to:
  00021	03 c1		 add	 eax, ecx
$LN5@Grow_to:

; 1279 : 		if (_Capacity < _Count)

  00023	3b 45 08	 cmp	 eax, DWORD PTR __Count$[ebp]

; 1280 : 			_Capacity = _Count;

  00026	0f 42 45 08	 cmovb	 eax, DWORD PTR __Count$[ebp]

; 1281 : 		return (_Capacity);
; 1282 : 		}

  0002a	5d		 pop	 ebp
  0002b	c2 04 00	 ret	 4
?_Grow_to@?$vector@UItemListInfoSort@@V?$allocator@UItemListInfoSort@@@std@@@std@@IBEII@Z ENDP ; std::vector<ItemListInfoSort,std::allocator<ItemListInfoSort> >::_Grow_to
_TEXT	ENDS
PUBLIC	??0?$_Vector_const_iterator@V?$_Vector_val@UItemListInfoSort@@V?$allocator@UItemListInfoSort@@@std@@@std@@@std@@QAE@PAUItemListInfoSort@@PBU_Container_base0@1@@Z ; std::_Vector_const_iterator<std::_Vector_val<ItemListInfoSort,std::allocator<ItemListInfoSort> > >::_Vector_const_iterator<std::_Vector_val<ItemListInfoSort,std::allocator<ItemListInfoSort> > >
; Function compile flags: /Ogsp
;	COMDAT ??0?$_Vector_const_iterator@V?$_Vector_val@UItemListInfoSort@@V?$allocator@UItemListInfoSort@@@std@@@std@@@std@@QAE@PAUItemListInfoSort@@PBU_Container_base0@1@@Z
_TEXT	SEGMENT
__Parg$ = 8						; size = 4
__Pvector$ = 12						; size = 4
??0?$_Vector_const_iterator@V?$_Vector_val@UItemListInfoSort@@V?$allocator@UItemListInfoSort@@@std@@@std@@@std@@QAE@PAUItemListInfoSort@@PBU_Container_base0@1@@Z PROC ; std::_Vector_const_iterator<std::_Vector_val<ItemListInfoSort,std::allocator<ItemListInfoSort> > >::_Vector_const_iterator<std::_Vector_val<ItemListInfoSort,std::allocator<ItemListInfoSort> > >, COMDAT
; _this$ = ecx

; 45   : 		{	// construct with pointer _Parg

  00000	55		 push	 ebp
  00001	8b ec		 mov	 ebp, esp
  00003	8b c1		 mov	 eax, ecx
  00005	8b 4d 08	 mov	 ecx, DWORD PTR __Parg$[ebp]
  00008	89 08		 mov	 DWORD PTR [eax], ecx

; 46   : 		this->_Adopt(_Pvector);
; 47   : 		}

  0000a	5d		 pop	 ebp
  0000b	c2 08 00	 ret	 8
??0?$_Vector_const_iterator@V?$_Vector_val@UItemListInfoSort@@V?$allocator@UItemListInfoSort@@@std@@@std@@@std@@QAE@PAUItemListInfoSort@@PBU_Container_base0@1@@Z ENDP ; std::_Vector_const_iterator<std::_Vector_val<ItemListInfoSort,std::allocator<ItemListInfoSort> > >::_Vector_const_iterator<std::_Vector_val<ItemListInfoSort,std::allocator<ItemListInfoSort> > >
_TEXT	ENDS
PUBLIC	?allocate@?$allocator@UItemListInfoSort@@@std@@QAEPAUItemListInfoSort@@I@Z ; std::allocator<ItemListInfoSort>::allocate
; Function compile flags: /Ogsp
; File c:\program files (x86)\microsoft visual studio 10.0\vc\include\xmemory
;	COMDAT ?allocate@?$allocator@UItemListInfoSort@@@std@@QAEPAUItemListInfoSort@@I@Z
_TEXT	SEGMENT
__Count$ = 8						; size = 4
?allocate@?$allocator@UItemListInfoSort@@@std@@QAEPAUItemListInfoSort@@I@Z PROC ; std::allocator<ItemListInfoSort>::allocate, COMDAT
; _this$ = ecx

; 186  : 		{	// allocate array of _Count elements

  00000	55		 push	 ebp
  00001	8b ec		 mov	 ebp, esp

; 187  : 		return (_Allocate(_Count, (pointer)0));

  00003	6a 00		 push	 0
  00005	ff 75 08	 push	 DWORD PTR __Count$[ebp]
  00008	e8 00 00 00 00	 call	 ??$_Allocate@UItemListInfoSort@@@std@@YAPAUItemListInfoSort@@IPAU1@@Z ; std::_Allocate<ItemListInfoSort>
  0000d	59		 pop	 ecx
  0000e	59		 pop	 ecx

; 188  : 		}

  0000f	5d		 pop	 ebp
  00010	c2 04 00	 ret	 4
?allocate@?$allocator@UItemListInfoSort@@@std@@QAEPAUItemListInfoSort@@I@Z ENDP ; std::allocator<ItemListInfoSort>::allocate
_TEXT	ENDS
PUBLIC	??0?$_Vector_const_iterator@V?$_Vector_val@V?$basic_string@DU?$char_traits@D@std@@V?$allocator@D@2@@std@@V?$allocator@V?$basic_string@DU?$char_traits@D@std@@V?$allocator@D@2@@std@@@2@@std@@@std@@QAE@PAV?$basic_string@DU?$char_traits@D@std@@V?$allocator@D@2@@1@PBU_Container_base0@1@@Z ; std::_Vector_const_iterator<std::_Vector_val<std::basic_string<char,std::char_traits<char>,std::allocator<char> >,std::allocator<std::basic_string<char,std::char_traits<char>,std::allocator<char> > > > >::_Vector_const_iterator<std::_Vector_val<std::basic_string<char,std::char_traits<char>,std::allocator<char> >,std::allocator<std::basic_string<char,std::char_traits<char>,std::allocator<char> > > > >
; Function compile flags: /Ogsp
; File c:\program files (x86)\microsoft visual studio 10.0\vc\include\vector
;	COMDAT ??0?$_Vector_const_iterator@V?$_Vector_val@V?$basic_string@DU?$char_traits@D@std@@V?$allocator@D@2@@std@@V?$allocator@V?$basic_string@DU?$char_traits@D@std@@V?$allocator@D@2@@std@@@2@@std@@@std@@QAE@PAV?$basic_string@DU?$char_traits@D@std@@V?$allocator@D@2@@1@PBU_Container_base0@1@@Z
_TEXT	SEGMENT
__Parg$ = 8						; size = 4
__Pvector$ = 12						; size = 4
??0?$_Vector_const_iterator@V?$_Vector_val@V?$basic_string@DU?$char_traits@D@std@@V?$allocator@D@2@@std@@V?$allocator@V?$basic_string@DU?$char_traits@D@std@@V?$allocator@D@2@@std@@@2@@std@@@std@@QAE@PAV?$basic_string@DU?$char_traits@D@std@@V?$allocator@D@2@@1@PBU_Container_base0@1@@Z PROC ; std::_Vector_const_iterator<std::_Vector_val<std::basic_string<char,std::char_traits<char>,std::allocator<char> >,std::allocator<std::basic_string<char,std::char_traits<char>,std::allocator<char> > > > >::_Vector_const_iterator<std::_Vector_val<std::basic_string<char,std::char_traits<char>,std::allocator<char> >,std::allocator<std::basic_string<char,std::char_traits<char>,std::allocator<char> > > > >, COMDAT
; _this$ = ecx

; 45   : 		{	// construct with pointer _Parg

  00000	55		 push	 ebp
  00001	8b ec		 mov	 ebp, esp
  00003	8b c1		 mov	 eax, ecx
  00005	8b 4d 08	 mov	 ecx, DWORD PTR __Parg$[ebp]
  00008	89 08		 mov	 DWORD PTR [eax], ecx

; 46   : 		this->_Adopt(_Pvector);
; 47   : 		}

  0000a	5d		 pop	 ebp
  0000b	c2 08 00	 ret	 8
??0?$_Vector_const_iterator@V?$_Vector_val@V?$basic_string@DU?$char_traits@D@std@@V?$allocator@D@2@@std@@V?$allocator@V?$basic_string@DU?$char_traits@D@std@@V?$allocator@D@2@@std@@@2@@std@@@std@@QAE@PAV?$basic_string@DU?$char_traits@D@std@@V?$allocator@D@2@@1@PBU_Container_base0@1@@Z ENDP ; std::_Vector_const_iterator<std::_Vector_val<std::basic_string<char,std::char_traits<char>,std::allocator<char> >,std::allocator<std::basic_string<char,std::char_traits<char>,std::allocator<char> > > > >::_Vector_const_iterator<std::_Vector_val<std::basic_string<char,std::char_traits<char>,std::allocator<char> >,std::allocator<std::basic_string<char,std::char_traits<char>,std::allocator<char> > > > >
_TEXT	ENDS
PUBLIC	??8?$_Vector_const_iterator@V?$_Vector_val@V?$basic_string@DU?$char_traits@D@std@@V?$allocator@D@2@@std@@V?$allocator@V?$basic_string@DU?$char_traits@D@std@@V?$allocator@D@2@@std@@@2@@std@@@std@@QBE_NABV01@@Z ; std::_Vector_const_iterator<std::_Vector_val<std::basic_string<char,std::char_traits<char>,std::allocator<char> >,std::allocator<std::basic_string<char,std::char_traits<char>,std::allocator<char> > > > >::operator==
; Function compile flags: /Ogsp
;	COMDAT ??8?$_Vector_const_iterator@V?$_Vector_val@V?$basic_string@DU?$char_traits@D@std@@V?$allocator@D@2@@std@@V?$allocator@V?$basic_string@DU?$char_traits@D@std@@V?$allocator@D@2@@std@@@2@@std@@@std@@QBE_NABV01@@Z
_TEXT	SEGMENT
__Right$ = 8						; size = 4
??8?$_Vector_const_iterator@V?$_Vector_val@V?$basic_string@DU?$char_traits@D@std@@V?$allocator@D@2@@std@@V?$allocator@V?$basic_string@DU?$char_traits@D@std@@V?$allocator@D@2@@std@@@2@@std@@@std@@QBE_NABV01@@Z PROC ; std::_Vector_const_iterator<std::_Vector_val<std::basic_string<char,std::char_traits<char>,std::allocator<char> >,std::allocator<std::basic_string<char,std::char_traits<char>,std::allocator<char> > > > >::operator==, COMDAT
; _this$ = ecx

; 201  : 		{	// test for iterator equality

  00000	55		 push	 ebp
  00001	8b ec		 mov	 ebp, esp

; 202  : 		_Compat(_Right);
; 203  : 		return (this->_Ptr == _Right._Ptr);

  00003	8b 01		 mov	 eax, DWORD PTR [ecx]
  00005	8b 4d 08	 mov	 ecx, DWORD PTR __Right$[ebp]
  00008	2b 01		 sub	 eax, DWORD PTR [ecx]
  0000a	f7 d8		 neg	 eax
  0000c	1b c0		 sbb	 eax, eax
  0000e	40		 inc	 eax

; 204  : 		}

  0000f	5d		 pop	 ebp
  00010	c2 04 00	 ret	 4
??8?$_Vector_const_iterator@V?$_Vector_val@V?$basic_string@DU?$char_traits@D@std@@V?$allocator@D@2@@std@@V?$allocator@V?$basic_string@DU?$char_traits@D@std@@V?$allocator@D@2@@std@@@2@@std@@@std@@QBE_NABV01@@Z ENDP ; std::_Vector_const_iterator<std::_Vector_val<std::basic_string<char,std::char_traits<char>,std::allocator<char> >,std::allocator<std::basic_string<char,std::char_traits<char>,std::allocator<char> > > > >::operator==
_TEXT	ENDS
PUBLIC	??$_Cons_val@V?$allocator@UItemListInfoSort@@@std@@UItemListInfoSort@@AAU3@@std@@YAXAAV?$allocator@UItemListInfoSort@@@0@PAUItemListInfoSort@@AAU2@@Z ; std::_Cons_val<std::allocator<ItemListInfoSort>,ItemListInfoSort,ItemListInfoSort &>
; Function compile flags: /Ogsp
; File c:\program files (x86)\microsoft visual studio 10.0\vc\include\xmemory
;	COMDAT ??$_Cons_val@V?$allocator@UItemListInfoSort@@@std@@UItemListInfoSort@@AAU3@@std@@YAXAAV?$allocator@UItemListInfoSort@@@0@PAUItemListInfoSort@@AAU2@@Z
_TEXT	SEGMENT
__Alval$ = 8						; size = 4
__Pdest$ = 12						; size = 4
__Src$ = 16						; size = 4
??$_Cons_val@V?$allocator@UItemListInfoSort@@@std@@UItemListInfoSort@@AAU3@@std@@YAXAAV?$allocator@UItemListInfoSort@@@0@PAUItemListInfoSort@@AAU2@@Z PROC ; std::_Cons_val<std::allocator<ItemListInfoSort>,ItemListInfoSort,ItemListInfoSort &>, COMDAT

; 279  : 	{	// construct using allocator

  00000	55		 push	 ebp
  00001	8b ec		 mov	 ebp, esp
  00003	57		 push	 edi

; 280  : 	_Alval.construct(_Pdest, _STD forward<_Ty2>(_Src));

  00004	8b 7d 0c	 mov	 edi, DWORD PTR __Pdest$[ebp]
  00007	85 ff		 test	 edi, edi
  00009	74 0a		 je	 SHORT $LN7@Cons_val
  0000b	56		 push	 esi
  0000c	8b 75 10	 mov	 esi, DWORD PTR __Src$[ebp]
  0000f	6a 05		 push	 5
  00011	59		 pop	 ecx
  00012	f3 a5		 rep movsd
  00014	5e		 pop	 esi
$LN7@Cons_val:
  00015	5f		 pop	 edi

; 281  : 	}

  00016	5d		 pop	 ebp
  00017	c3		 ret	 0
??$_Cons_val@V?$allocator@UItemListInfoSort@@@std@@UItemListInfoSort@@AAU3@@std@@YAXAAV?$allocator@UItemListInfoSort@@@0@PAUItemListInfoSort@@AAU2@@Z ENDP ; std::_Cons_val<std::allocator<ItemListInfoSort>,ItemListInfoSort,ItemListInfoSort &>
_TEXT	ENDS
PUBLIC	?construct@?$allocator@UItemListInfoSort@@@std@@QAEXPAUItemListInfoSort@@ABU3@@Z ; std::allocator<ItemListInfoSort>::construct
; Function compile flags: /Ogsp
;	COMDAT ?construct@?$allocator@UItemListInfoSort@@@std@@QAEXPAUItemListInfoSort@@ABU3@@Z
_TEXT	SEGMENT
__Ptr$ = 8						; size = 4
__Val$ = 12						; size = 4
?construct@?$allocator@UItemListInfoSort@@@std@@QAEXPAUItemListInfoSort@@ABU3@@Z PROC ; std::allocator<ItemListInfoSort>::construct, COMDAT
; _this$ = ecx

; 196  : 		{	// construct object at _Ptr with value _Val

  00000	55		 push	 ebp
  00001	8b ec		 mov	 ebp, esp
  00003	57		 push	 edi

; 197  : 		_Construct(_Ptr, _Val);

  00004	8b 7d 08	 mov	 edi, DWORD PTR __Ptr$[ebp]
  00007	85 ff		 test	 edi, edi
  00009	74 0a		 je	 SHORT $LN5@construct@2
  0000b	56		 push	 esi
  0000c	8b 75 0c	 mov	 esi, DWORD PTR __Val$[ebp]
  0000f	6a 05		 push	 5
  00011	59		 pop	 ecx
  00012	f3 a5		 rep movsd
  00014	5e		 pop	 esi
$LN5@construct@2:
  00015	5f		 pop	 edi

; 198  : 		}

  00016	5d		 pop	 ebp
  00017	c2 08 00	 ret	 8
?construct@?$allocator@UItemListInfoSort@@@std@@QAEXPAUItemListInfoSort@@ABU3@@Z ENDP ; std::allocator<ItemListInfoSort>::construct
_TEXT	ENDS
PUBLIC	??G?$_Vector_iterator@V?$_Vector_val@UItemListInfoSort@@V?$allocator@UItemListInfoSort@@@std@@@std@@@std@@QBEHABV?$_Vector_const_iterator@V?$_Vector_val@UItemListInfoSort@@V?$allocator@UItemListInfoSort@@@std@@@std@@@1@@Z ; std::_Vector_iterator<std::_Vector_val<ItemListInfoSort,std::allocator<ItemListInfoSort> > >::operator-
; Function compile flags: /Ogsp
; File c:\program files (x86)\microsoft visual studio 10.0\vc\include\vector
;	COMDAT ??G?$_Vector_iterator@V?$_Vector_val@UItemListInfoSort@@V?$allocator@UItemListInfoSort@@@std@@@std@@@std@@QBEHABV?$_Vector_const_iterator@V?$_Vector_val@UItemListInfoSort@@V?$allocator@UItemListInfoSort@@@std@@@std@@@1@@Z
_TEXT	SEGMENT
__Right$ = 8						; size = 4
??G?$_Vector_iterator@V?$_Vector_val@UItemListInfoSort@@V?$allocator@UItemListInfoSort@@@std@@@std@@@std@@QBEHABV?$_Vector_const_iterator@V?$_Vector_val@UItemListInfoSort@@V?$allocator@UItemListInfoSort@@@std@@@std@@@1@@Z PROC ; std::_Vector_iterator<std::_Vector_val<ItemListInfoSort,std::allocator<ItemListInfoSort> > >::operator-, COMDAT
; _this$ = ecx

; 380  : 		{	// return difference of iterators

  00000	55		 push	 ebp
  00001	8b ec		 mov	 ebp, esp

; 381  : 		return (*(_Mybase *)this - _Right);

  00003	8b 01		 mov	 eax, DWORD PTR [ecx]
  00005	8b 4d 08	 mov	 ecx, DWORD PTR __Right$[ebp]
  00008	2b 01		 sub	 eax, DWORD PTR [ecx]
  0000a	6a 14		 push	 20			; 00000014H
  0000c	99		 cdq
  0000d	59		 pop	 ecx
  0000e	f7 f9		 idiv	 ecx

; 382  : 		}

  00010	5d		 pop	 ebp
  00011	c2 04 00	 ret	 4
??G?$_Vector_iterator@V?$_Vector_val@UItemListInfoSort@@V?$allocator@UItemListInfoSort@@@std@@@std@@@std@@QBEHABV?$_Vector_const_iterator@V?$_Vector_val@UItemListInfoSort@@V?$allocator@UItemListInfoSort@@@std@@@std@@@1@@Z ENDP ; std::_Vector_iterator<std::_Vector_val<ItemListInfoSort,std::allocator<ItemListInfoSort> > >::operator-
_TEXT	ENDS
PUBLIC	??$_Unchecked@V?$_Vector_val@UItemListInfoSort@@V?$allocator@UItemListInfoSort@@@std@@@std@@@std@@YAPAUItemListInfoSort@@V?$_Vector_iterator@V?$_Vector_val@UItemListInfoSort@@V?$allocator@UItemListInfoSort@@@std@@@std@@@0@@Z ; std::_Unchecked<std::_Vector_val<ItemListInfoSort,std::allocator<ItemListInfoSort> > >
; Function compile flags: /Ogsp
;	COMDAT ??$_Unchecked@V?$_Vector_val@UItemListInfoSort@@V?$allocator@UItemListInfoSort@@@std@@@std@@@std@@YAPAUItemListInfoSort@@V?$_Vector_iterator@V?$_Vector_val@UItemListInfoSort@@V?$allocator@UItemListInfoSort@@@std@@@std@@@0@@Z
_TEXT	SEGMENT
__Iter$ = 8						; size = 4
??$_Unchecked@V?$_Vector_val@UItemListInfoSort@@V?$allocator@UItemListInfoSort@@@std@@@std@@@std@@YAPAUItemListInfoSort@@V?$_Vector_iterator@V?$_Vector_val@UItemListInfoSort@@V?$allocator@UItemListInfoSort@@@std@@@std@@@0@@Z PROC ; std::_Unchecked<std::_Vector_val<ItemListInfoSort,std::allocator<ItemListInfoSort> > >, COMDAT

; 393  : 	{	// convert to unchecked

  00000	55		 push	 ebp
  00001	8b ec		 mov	 ebp, esp

; 394  : 	return (_Iter._Unchecked());

  00003	8b 45 08	 mov	 eax, DWORD PTR __Iter$[ebp]

; 395  : 	}

  00006	5d		 pop	 ebp
  00007	c3		 ret	 0
??$_Unchecked@V?$_Vector_val@UItemListInfoSort@@V?$allocator@UItemListInfoSort@@@std@@@std@@@std@@YAPAUItemListInfoSort@@V?$_Vector_iterator@V?$_Vector_val@UItemListInfoSort@@V?$allocator@UItemListInfoSort@@@std@@@std@@@0@@Z ENDP ; std::_Unchecked<std::_Vector_val<ItemListInfoSort,std::allocator<ItemListInfoSort> > >
_TEXT	ENDS
PUBLIC	??$_Move@PAUItemListInfoSort@@PAU1@@std@@YAPAUItemListInfoSort@@PAU1@00U_Nonscalar_ptr_iterator_tag@0@@Z ; std::_Move<ItemListInfoSort *,ItemListInfoSort *>
; Function compile flags: /Ogsp
; File c:\program files (x86)\microsoft visual studio 10.0\vc\include\xutility
;	COMDAT ??$_Move@PAUItemListInfoSort@@PAU1@@std@@YAPAUItemListInfoSort@@PAU1@00U_Nonscalar_ptr_iterator_tag@0@@Z
_TEXT	SEGMENT
__First$ = 8						; size = 4
__Last$ = 12						; size = 4
__Dest$ = 16						; size = 4
___formal$ = 20						; size = 1
??$_Move@PAUItemListInfoSort@@PAU1@@std@@YAPAUItemListInfoSort@@PAU1@00U_Nonscalar_ptr_iterator_tag@0@@Z PROC ; std::_Move<ItemListInfoSort *,ItemListInfoSort *>, COMDAT

; 2512 : 	{	// move [_First, _Last) to [_Dest, ...), arbitrary iterators

  00000	55		 push	 ebp
  00001	8b ec		 mov	 ebp, esp

; 2513 : 	for (; _First != _Last; ++_Dest, ++_First)

  00003	8b 45 08	 mov	 eax, DWORD PTR __First$[ebp]
  00006	3b 45 0c	 cmp	 eax, DWORD PTR __Last$[ebp]
  00009	74 1a		 je	 SHORT $LN10@Move
  0000b	56		 push	 esi
  0000c	57		 push	 edi
$LL3@Move:

; 2514 : 		*_Dest = _STD move(*_First);

  0000d	8b 7d 10	 mov	 edi, DWORD PTR __Dest$[ebp]
  00010	83 45 10 14	 add	 DWORD PTR __Dest$[ebp], 20 ; 00000014H
  00014	8b f0		 mov	 esi, eax
  00016	6a 05		 push	 5
  00018	83 c0 14	 add	 eax, 20			; 00000014H
  0001b	59		 pop	 ecx
  0001c	f3 a5		 rep movsd
  0001e	3b 45 0c	 cmp	 eax, DWORD PTR __Last$[ebp]
  00021	75 ea		 jne	 SHORT $LL3@Move
  00023	5f		 pop	 edi
  00024	5e		 pop	 esi
$LN10@Move:

; 2515 : 	return (_Dest);

  00025	8b 45 10	 mov	 eax, DWORD PTR __Dest$[ebp]

; 2516 : 	}

  00028	5d		 pop	 ebp
  00029	c3		 ret	 0
??$_Move@PAUItemListInfoSort@@PAU1@@std@@YAPAUItemListInfoSort@@PAU1@00U_Nonscalar_ptr_iterator_tag@0@@Z ENDP ; std::_Move<ItemListInfoSort *,ItemListInfoSort *>
_TEXT	ENDS
PUBLIC	?destroy@?$allocator@UItemListInfoSort@@@std@@QAEXPAUItemListInfoSort@@@Z ; std::allocator<ItemListInfoSort>::destroy
; Function compile flags: /Ogsp
; File c:\program files (x86)\microsoft visual studio 10.0\vc\include\xmemory
;	COMDAT ?destroy@?$allocator@UItemListInfoSort@@@std@@QAEXPAUItemListInfoSort@@@Z
_TEXT	SEGMENT
__Ptr$ = 8						; size = 4
?destroy@?$allocator@UItemListInfoSort@@@std@@QAEXPAUItemListInfoSort@@@Z PROC ; std::allocator<ItemListInfoSort>::destroy, COMDAT
; _this$ = ecx

; 213  : 		_Destroy(_Ptr);
; 214  : 		}

  00000	c2 04 00	 ret	 4
?destroy@?$allocator@UItemListInfoSort@@@std@@QAEXPAUItemListInfoSort@@@Z ENDP ; std::allocator<ItemListInfoSort>::destroy
_TEXT	ENDS
PUBLIC	??$?0AAPAUItemListInfoSort@@AAPAU0@@?$pair@PAUItemListInfoSort@@PAU1@@std@@QAE@AAPAUItemListInfoSort@@0@Z ; std::pair<ItemListInfoSort *,ItemListInfoSort *>::pair<ItemListInfoSort *,ItemListInfoSort *><ItemListInfoSort * &,ItemListInfoSort * &>
; Function compile flags: /Ogsp
; File c:\program files (x86)\microsoft visual studio 10.0\vc\include\utility
;	COMDAT ??$?0AAPAUItemListInfoSort@@AAPAU0@@?$pair@PAUItemListInfoSort@@PAU1@@std@@QAE@AAPAUItemListInfoSort@@0@Z
_TEXT	SEGMENT
__Val1$ = 8						; size = 4
__Val2$ = 12						; size = 4
??$?0AAPAUItemListInfoSort@@AAPAU0@@?$pair@PAUItemListInfoSort@@PAU1@@std@@QAE@AAPAUItemListInfoSort@@0@Z PROC ; std::pair<ItemListInfoSort *,ItemListInfoSort *>::pair<ItemListInfoSort *,ItemListInfoSort *><ItemListInfoSort * &,ItemListInfoSort * &>, COMDAT
; _this$ = ecx

; 247  : 		{	// construct from moved values

  00000	55		 push	 ebp
  00001	8b ec		 mov	 ebp, esp
  00003	8b c1		 mov	 eax, ecx
  00005	8b 4d 08	 mov	 ecx, DWORD PTR __Val1$[ebp]
  00008	8b 09		 mov	 ecx, DWORD PTR [ecx]
  0000a	89 08		 mov	 DWORD PTR [eax], ecx
  0000c	8b 4d 0c	 mov	 ecx, DWORD PTR __Val2$[ebp]
  0000f	8b 09		 mov	 ecx, DWORD PTR [ecx]
  00011	89 48 04	 mov	 DWORD PTR [eax+4], ecx

; 248  : 		}

  00014	5d		 pop	 ebp
  00015	c2 08 00	 ret	 8
??$?0AAPAUItemListInfoSort@@AAPAU0@@?$pair@PAUItemListInfoSort@@PAU1@@std@@QAE@AAPAUItemListInfoSort@@0@Z ENDP ; std::pair<ItemListInfoSort *,ItemListInfoSort *>::pair<ItemListInfoSort *,ItemListInfoSort *><ItemListInfoSort * &,ItemListInfoSort * &>
_TEXT	ENDS
PUBLIC	?construct@?$allocator@UItemListInfoSort@@@std@@QAEXPAUItemListInfoSort@@$$QAU3@@Z ; std::allocator<ItemListInfoSort>::construct
; Function compile flags: /Ogsp
; File c:\program files (x86)\microsoft visual studio 10.0\vc\include\xmemory
;	COMDAT ?construct@?$allocator@UItemListInfoSort@@@std@@QAEXPAUItemListInfoSort@@$$QAU3@@Z
_TEXT	SEGMENT
__Ptr$ = 8						; size = 4
__Val$ = 12						; size = 4
?construct@?$allocator@UItemListInfoSort@@@std@@QAEXPAUItemListInfoSort@@$$QAU3@@Z PROC ; std::allocator<ItemListInfoSort>::construct, COMDAT
; _this$ = ecx

; 201  : 		{	// construct object at _Ptr with value _Val

  00000	55		 push	 ebp
  00001	8b ec		 mov	 ebp, esp
  00003	57		 push	 edi

; 202  : 		::new ((void _FARQ *)_Ptr) _Ty(_STD forward<_Ty>(_Val));

  00004	8b 7d 08	 mov	 edi, DWORD PTR __Ptr$[ebp]
  00007	85 ff		 test	 edi, edi
  00009	74 0a		 je	 SHORT $LN3@construct@3
  0000b	56		 push	 esi
  0000c	8b 75 0c	 mov	 esi, DWORD PTR __Val$[ebp]
  0000f	6a 05		 push	 5
  00011	59		 pop	 ecx
  00012	f3 a5		 rep movsd
  00014	5e		 pop	 esi
$LN3@construct@3:
  00015	5f		 pop	 edi

; 203  : 		}

  00016	5d		 pop	 ebp
  00017	c2 08 00	 ret	 8
?construct@?$allocator@UItemListInfoSort@@@std@@QAEXPAUItemListInfoSort@@$$QAU3@@Z ENDP ; std::allocator<ItemListInfoSort>::construct
_TEXT	ENDS
PUBLIC	??$swap@UItemListInfoSort@@@std@@YAXAAUItemListInfoSort@@0@Z ; std::swap<ItemListInfoSort>
; Function compile flags: /Ogsp
; File c:\program files (x86)\microsoft visual studio 10.0\vc\include\utility
;	COMDAT ??$swap@UItemListInfoSort@@@std@@YAXAAUItemListInfoSort@@0@Z
_TEXT	SEGMENT
__Tmp$ = -20						; size = 20
__Left$ = 8						; size = 4
__Right$ = 12						; size = 4
??$swap@UItemListInfoSort@@@std@@YAXAAUItemListInfoSort@@0@Z PROC ; std::swap<ItemListInfoSort>, COMDAT

; 101  : 	{	// exchange values stored at _Left and _Right

  00000	55		 push	 ebp
  00001	8b ec		 mov	 ebp, esp
  00003	83 ec 14	 sub	 esp, 20			; 00000014H
  00006	56		 push	 esi

; 102  : 	_Ty _Tmp = _Move(_Left);

  00007	8b 75 08	 mov	 esi, DWORD PTR __Left$[ebp]
  0000a	57		 push	 edi
  0000b	6a 05		 push	 5
  0000d	59		 pop	 ecx

; 103  : 	_Left = _Move(_Right);

  0000e	6a 05		 push	 5
  00010	8d 7d ec	 lea	 edi, DWORD PTR __Tmp$[ebp]
  00013	f3 a5		 rep movsd
  00015	8b 75 0c	 mov	 esi, DWORD PTR __Right$[ebp]
  00018	8b 7d 08	 mov	 edi, DWORD PTR __Left$[ebp]
  0001b	59		 pop	 ecx
  0001c	f3 a5		 rep movsd

; 104  : 	_Right = _Move(_Tmp);

  0001e	8b 7d 0c	 mov	 edi, DWORD PTR __Right$[ebp]
  00021	6a 05		 push	 5
  00023	59		 pop	 ecx
  00024	8d 75 ec	 lea	 esi, DWORD PTR __Tmp$[ebp]
  00027	f3 a5		 rep movsd
  00029	5f		 pop	 edi
  0002a	5e		 pop	 esi

; 105  : 	}

  0002b	c9		 leave
  0002c	c3		 ret	 0
??$swap@UItemListInfoSort@@@std@@YAXAAUItemListInfoSort@@0@Z ENDP ; std::swap<ItemListInfoSort>
_TEXT	ENDS
PUBLIC	??$_Adjust_heap@PAUItemListInfoSort@@HU1@VShopExtraItemSort@@@std@@YAXPAUItemListInfoSort@@HH$$QAU1@VShopExtraItemSort@@@Z ; std::_Adjust_heap<ItemListInfoSort *,int,ItemListInfoSort,ShopExtraItemSort>
; Function compile flags: /Ogsp
; File c:\program files (x86)\microsoft visual studio 10.0\vc\include\algorithm
;	COMDAT ??$_Adjust_heap@PAUItemListInfoSort@@HU1@VShopExtraItemSort@@@std@@YAXPAUItemListInfoSort@@HH$$QAU1@VShopExtraItemSort@@@Z
_TEXT	SEGMENT
__First$ = 8						; size = 4
__Top$ = 12						; size = 4
__Hole$ = 12						; size = 4
__Bottom$ = 16						; size = 4
__Val$ = 20						; size = 4
__Pred$ = 24						; size = 1
??$_Adjust_heap@PAUItemListInfoSort@@HU1@VShopExtraItemSort@@@std@@YAXPAUItemListInfoSort@@HH$$QAU1@VShopExtraItemSort@@@Z PROC ; std::_Adjust_heap<ItemListInfoSort *,int,ItemListInfoSort,ShopExtraItemSort>, COMDAT

; 2565 : 	{	// percolate _Hole to _Bottom, then push _Val, using _Pred

  00000	55		 push	 ebp
  00001	8b ec		 mov	 ebp, esp

; 2566 : 	_Diff _Top = _Hole;
; 2567 : 	_Diff _Idx = 2 * _Hole + 2;
; 2568 : 
; 2569 : 	for (; _Idx < _Bottom; _Idx = 2 * _Idx + 2)

  00003	8b 55 08	 mov	 edx, DWORD PTR __First$[ebp]
  00006	53		 push	 ebx
  00007	56		 push	 esi
  00008	57		 push	 edi
  00009	8b 7d 0c	 mov	 edi, DWORD PTR __Hole$[ebp]
  0000c	89 7d 0c	 mov	 DWORD PTR __Top$[ebp], edi
  0000f	8d 44 3f 02	 lea	 eax, DWORD PTR [edi+edi+2]
  00013	eb 32		 jmp	 SHORT $LN23@Adjust_hea
$LL5@Adjust_hea:

; 2570 : 		{	// move _Hole down to larger child
; 2571 : 		if (_DEBUG_LT_PRED(_Pred, *(_First + _Idx), *(_First + (_Idx - 1))))

  00015	8b c8		 mov	 ecx, eax
  00017	6b c9 14	 imul	 ecx, 20			; 00000014H
  0001a	03 ca		 add	 ecx, edx
  0001c	8b 71 08	 mov	 esi, DWORD PTR [ecx+8]
  0001f	8b 59 f4	 mov	 ebx, DWORD PTR [ecx-12]
  00022	3b f3		 cmp	 esi, ebx
  00024	7f 09		 jg	 SHORT $LN21@Adjust_hea
  00026	75 08		 jne	 SHORT $LN2@Adjust_hea
  00028	8b 31		 mov	 esi, DWORD PTR [ecx]
  0002a	3b 71 ec	 cmp	 esi, DWORD PTR [ecx-20]
  0002d	7e 01		 jle	 SHORT $LN2@Adjust_hea
$LN21@Adjust_hea:

; 2572 : 			--_Idx;

  0002f	48		 dec	 eax
$LN2@Adjust_hea:

; 2573 : 		*(_First + _Hole) = _Move(*(_First + _Idx));

  00030	8b f0		 mov	 esi, eax
  00032	6b ff 14	 imul	 edi, 20			; 00000014H
  00035	6b f6 14	 imul	 esi, 20			; 00000014H
  00038	03 f2		 add	 esi, edx
  0003a	6a 05		 push	 5
  0003c	03 fa		 add	 edi, edx
  0003e	59		 pop	 ecx
  0003f	f3 a5		 rep movsd

; 2574 : 		_Hole = _Idx;

  00041	8b f8		 mov	 edi, eax
  00043	8d 44 00 02	 lea	 eax, DWORD PTR [eax+eax+2]
$LN23@Adjust_hea:

; 2566 : 	_Diff _Top = _Hole;
; 2567 : 	_Diff _Idx = 2 * _Hole + 2;
; 2568 : 
; 2569 : 	for (; _Idx < _Bottom; _Idx = 2 * _Idx + 2)

  00047	8b 5d 10	 mov	 ebx, DWORD PTR __Bottom$[ebp]
  0004a	3b c3		 cmp	 eax, ebx
  0004c	7c c7		 jl	 SHORT $LL5@Adjust_hea

; 2575 : 		}
; 2576 : 
; 2577 : 	if (_Idx == _Bottom)

  0004e	75 16		 jne	 SHORT $LN1@Adjust_hea

; 2578 : 		{	// only child at bottom, move _Hole down to it
; 2579 : 		*(_First + _Hole) = _Move(*(_First + (_Bottom - 1)));

  00050	8b c3		 mov	 eax, ebx
  00052	6b ff 14	 imul	 edi, 20			; 00000014H
  00055	6b c0 14	 imul	 eax, 20			; 00000014H
  00058	6a 05		 push	 5
  0005a	03 fa		 add	 edi, edx
  0005c	8d 74 10 ec	 lea	 esi, DWORD PTR [eax+edx-20]
  00060	59		 pop	 ecx
  00061	f3 a5		 rep movsd

; 2580 : 		_Hole = _Bottom - 1;

  00063	8d 7b ff	 lea	 edi, DWORD PTR [ebx-1]
$LN1@Adjust_hea:

; 2581 : 		}
; 2582 : 	_Push_heap(_First, _Hole, _Top, _Move(_Val), _Pred);

  00066	ff 75 18	 push	 DWORD PTR __Pred$[ebp]
  00069	ff 75 14	 push	 DWORD PTR __Val$[ebp]
  0006c	ff 75 0c	 push	 DWORD PTR __Top$[ebp]
  0006f	57		 push	 edi
  00070	52		 push	 edx
  00071	e8 00 00 00 00	 call	 ??$_Push_heap@PAUItemListInfoSort@@HU1@VShopExtraItemSort@@@std@@YAXPAUItemListInfoSort@@HH$$QAU1@VShopExtraItemSort@@@Z ; std::_Push_heap<ItemListInfoSort *,int,ItemListInfoSort,ShopExtraItemSort>
  00076	83 c4 14	 add	 esp, 20			; 00000014H
  00079	5f		 pop	 edi
  0007a	5e		 pop	 esi
  0007b	5b		 pop	 ebx

; 2583 : 	}

  0007c	5d		 pop	 ebp
  0007d	c3		 ret	 0
??$_Adjust_heap@PAUItemListInfoSort@@HU1@VShopExtraItemSort@@@std@@YAXPAUItemListInfoSort@@HH$$QAU1@VShopExtraItemSort@@@Z ENDP ; std::_Adjust_heap<ItemListInfoSort *,int,ItemListInfoSort,ShopExtraItemSort>
_TEXT	ENDS
PUBLIC	??$_Move_backward@PAUItemListInfoSort@@PAU1@@std@@YAPAUItemListInfoSort@@PAU1@00@Z ; std::_Move_backward<ItemListInfoSort *,ItemListInfoSort *>
; Function compile flags: /Ogsp
; File c:\program files (x86)\microsoft visual studio 10.0\vc\include\xutility
;	COMDAT ??$_Move_backward@PAUItemListInfoSort@@PAU1@@std@@YAPAUItemListInfoSort@@PAU1@00@Z
_TEXT	SEGMENT
__Cat$508777 = -4					; size = 1
__First$ = 8						; size = 4
__Last$ = 12						; size = 4
__Dest$ = 16						; size = 4
??$_Move_backward@PAUItemListInfoSort@@PAU1@@std@@YAPAUItemListInfoSort@@PAU1@00@Z PROC ; std::_Move_backward<ItemListInfoSort *,ItemListInfoSort *>, COMDAT

; 2638 : 	{	// move [_First, _Last) backwards to [..., _Dest), unchecked

  00000	55		 push	 ebp
  00001	8b ec		 mov	 ebp, esp
  00003	51		 push	 ecx

; 2639 : 	return (_Move_backward(_First, _Last,
; 2640 : 		_Dest, _Ptr_cat(_First, _Dest)));

  00004	ff 75 fc	 push	 DWORD PTR __Cat$508777[ebp]
  00007	ff 75 10	 push	 DWORD PTR __Dest$[ebp]
  0000a	ff 75 0c	 push	 DWORD PTR __Last$[ebp]
  0000d	ff 75 08	 push	 DWORD PTR __First$[ebp]
  00010	e8 00 00 00 00	 call	 ??$_Move_backward@PAUItemListInfoSort@@PAU1@@std@@YAPAUItemListInfoSort@@PAU1@00U_Nonscalar_ptr_iterator_tag@0@@Z ; std::_Move_backward<ItemListInfoSort *,ItemListInfoSort *>
  00015	83 c4 10	 add	 esp, 16			; 00000010H

; 2641 : 	}

  00018	c9		 leave
  00019	c3		 ret	 0
??$_Move_backward@PAUItemListInfoSort@@PAU1@@std@@YAPAUItemListInfoSort@@PAU1@00@Z ENDP ; std::_Move_backward<ItemListInfoSort *,ItemListInfoSort *>
_TEXT	ENDS
PUBLIC	??$_Pop_heap@PAUItemListInfoSort@@HU1@VShopExtraItemSort@@@std@@YAXPAUItemListInfoSort@@00$$QAU1@VShopExtraItemSort@@PAH@Z ; std::_Pop_heap<ItemListInfoSort *,int,ItemListInfoSort,ShopExtraItemSort>
; Function compile flags: /Ogsp
; File c:\program files (x86)\microsoft visual studio 10.0\vc\include\algorithm
;	COMDAT ??$_Pop_heap@PAUItemListInfoSort@@HU1@VShopExtraItemSort@@@std@@YAXPAUItemListInfoSort@@00$$QAU1@VShopExtraItemSort@@PAH@Z
_TEXT	SEGMENT
__First$ = 8						; size = 4
__Last$ = 12						; size = 4
__Dest$ = 16						; size = 4
__Val$ = 20						; size = 4
__Pred$ = 24						; size = 1
___formal$ = 28						; size = 4
??$_Pop_heap@PAUItemListInfoSort@@HU1@VShopExtraItemSort@@@std@@YAXPAUItemListInfoSort@@00$$QAU1@VShopExtraItemSort@@PAH@Z PROC ; std::_Pop_heap<ItemListInfoSort *,int,ItemListInfoSort,ShopExtraItemSort>, COMDAT

; 2591 : 	{	// pop *_First to *_Dest and reheap, using _Pred

  00000	55		 push	 ebp
  00001	8b ec		 mov	 ebp, esp

; 2592 : 	*_Dest = _Move(*_First);
; 2593 : 	_Adjust_heap(_First, _Diff(0), _Diff(_Last - _First),
; 2594 : 		_Move(_Val), _Pred);

  00003	8b 45 0c	 mov	 eax, DWORD PTR __Last$[ebp]
  00006	2b 45 08	 sub	 eax, DWORD PTR __First$[ebp]
  00009	56		 push	 esi
  0000a	8b 75 08	 mov	 esi, DWORD PTR __First$[ebp]
  0000d	57		 push	 edi
  0000e	8b 7d 10	 mov	 edi, DWORD PTR __Dest$[ebp]
  00011	6a 05		 push	 5
  00013	59		 pop	 ecx
  00014	ff 75 18	 push	 DWORD PTR __Pred$[ebp]
  00017	f3 a5		 rep movsd
  00019	ff 75 14	 push	 DWORD PTR __Val$[ebp]
  0001c	99		 cdq
  0001d	6a 14		 push	 20			; 00000014H
  0001f	59		 pop	 ecx
  00020	f7 f9		 idiv	 ecx
  00022	50		 push	 eax
  00023	6a 00		 push	 0
  00025	ff 75 08	 push	 DWORD PTR __First$[ebp]
  00028	e8 00 00 00 00	 call	 ??$_Adjust_heap@PAUItemListInfoSort@@HU1@VShopExtraItemSort@@@std@@YAXPAUItemListInfoSort@@HH$$QAU1@VShopExtraItemSort@@@Z ; std::_Adjust_heap<ItemListInfoSort *,int,ItemListInfoSort,ShopExtraItemSort>
  0002d	83 c4 14	 add	 esp, 20			; 00000014H
  00030	5f		 pop	 edi
  00031	5e		 pop	 esi

; 2595 : 	}

  00032	5d		 pop	 ebp
  00033	c3		 ret	 0
??$_Pop_heap@PAUItemListInfoSort@@HU1@VShopExtraItemSort@@@std@@YAXPAUItemListInfoSort@@00$$QAU1@VShopExtraItemSort@@PAH@Z ENDP ; std::_Pop_heap<ItemListInfoSort *,int,ItemListInfoSort,ShopExtraItemSort>
_TEXT	ENDS
PUBLIC	?c_str@?$basic_string@DU?$char_traits@D@std@@V?$allocator@D@2@@std@@QBEPBDXZ ; std::basic_string<char,std::char_traits<char>,std::allocator<char> >::c_str
; Function compile flags: /Ogsp
; File c:\program files (x86)\microsoft visual studio 10.0\vc\include\xstring
;	COMDAT ?c_str@?$basic_string@DU?$char_traits@D@std@@V?$allocator@D@2@@std@@QBEPBDXZ
_TEXT	SEGMENT
?c_str@?$basic_string@DU?$char_traits@D@std@@V?$allocator@D@2@@std@@QBEPBDXZ PROC ; std::basic_string<char,std::char_traits<char>,std::allocator<char> >::c_str, COMDAT
; _this$ = ecx

; 1497 : 		return (_Myptr());

  00000	83 79 14 10	 cmp	 DWORD PTR [ecx+20], 16	; 00000010H
  00004	72 03		 jb	 SHORT $LN5@c_str
  00006	8b 01		 mov	 eax, DWORD PTR [ecx]

; 1498 : 		}

  00008	c3		 ret	 0

; 1497 : 		return (_Myptr());

$LN5@c_str:
  00009	8b c1		 mov	 eax, ecx

; 1498 : 		}

  0000b	c3		 ret	 0
?c_str@?$basic_string@DU?$char_traits@D@std@@V?$allocator@D@2@@std@@QBEPBDXZ ENDP ; std::basic_string<char,std::char_traits<char>,std::allocator<char> >::c_str
_TEXT	ENDS
PUBLIC	??0?$_String_val@DV?$allocator@D@std@@@std@@QAE@V?$allocator@D@1@@Z ; std::_String_val<char,std::allocator<char> >::_String_val<char,std::allocator<char> >
; Function compile flags: /Ogsp
;	COMDAT ??0?$_String_val@DV?$allocator@D@std@@@std@@QAE@V?$allocator@D@1@@Z
_TEXT	SEGMENT
__Al$ = 8						; size = 1
??0?$_String_val@DV?$allocator@D@std@@@std@@QAE@V?$allocator@D@1@@Z PROC ; std::_String_val<char,std::allocator<char> >::_String_val<char,std::allocator<char> >, COMDAT
; _this$ = ecx

; 454  : 		{	// construct allocator from _Al

  00000	8b c1		 mov	 eax, ecx

; 455  : 		}

  00002	c2 04 00	 ret	 4
??0?$_String_val@DV?$allocator@D@std@@@std@@QAE@V?$allocator@D@1@@Z ENDP ; std::_String_val<char,std::allocator<char> >::_String_val<char,std::allocator<char> >
_TEXT	ENDS
PUBLIC	?_Eos@?$basic_string@DU?$char_traits@D@std@@V?$allocator@D@2@@std@@QAEXI@Z ; std::basic_string<char,std::char_traits<char>,std::allocator<char> >::_Eos
; Function compile flags: /Ogsp
;	COMDAT ?_Eos@?$basic_string@DU?$char_traits@D@std@@V?$allocator@D@2@@std@@QAEXI@Z
_TEXT	SEGMENT
__Newsize$ = 8						; size = 4
?_Eos@?$basic_string@DU?$char_traits@D@std@@V?$allocator@D@2@@std@@QAEXI@Z PROC ; std::basic_string<char,std::char_traits<char>,std::allocator<char> >::_Eos, COMDAT
; _this$ = ecx

; 1953 : 		{	// set new length and null terminator

  00000	55		 push	 ebp
  00001	8b ec		 mov	 ebp, esp

; 1954 : 		_Traits::assign(_Myptr()[this->_Mysize = _Newsize], _Elem());

  00003	83 79 14 10	 cmp	 DWORD PTR [ecx+20], 16	; 00000010H
  00007	8b 45 08	 mov	 eax, DWORD PTR __Newsize$[ebp]
  0000a	89 41 10	 mov	 DWORD PTR [ecx+16], eax
  0000d	72 02		 jb	 SHORT $LN5@Eos
  0000f	8b 09		 mov	 ecx, DWORD PTR [ecx]
$LN5@Eos:
  00011	c6 04 01 00	 mov	 BYTE PTR [ecx+eax], 0

; 1955 : 		}

  00015	5d		 pop	 ebp
  00016	c2 04 00	 ret	 4
?_Eos@?$basic_string@DU?$char_traits@D@std@@V?$allocator@D@2@@std@@QAEXI@Z ENDP ; std::basic_string<char,std::char_traits<char>,std::allocator<char> >::_Eos
_TEXT	ENDS
PUBLIC	?max_size@?$basic_string@DU?$char_traits@D@std@@V?$allocator@D@2@@std@@QBEIXZ ; std::basic_string<char,std::char_traits<char>,std::allocator<char> >::max_size
; Function compile flags: /Ogsp
;	COMDAT ?max_size@?$basic_string@DU?$char_traits@D@std@@V?$allocator@D@2@@std@@QBEIXZ
_TEXT	SEGMENT
?max_size@?$basic_string@DU?$char_traits@D@std@@V?$allocator@D@2@@std@@QBEIXZ PROC ; std::basic_string<char,std::char_traits<char>,std::allocator<char> >::max_size, COMDAT
; _this$ = ecx

; 1517 : 		size_type _Num = this->_Alval.max_size();
; 1518 : 		return (_Num <= 1 ? 1 : _Num - 1);

  00000	6a fe		 push	 -2			; fffffffeH
  00002	58		 pop	 eax

; 1519 : 		}

  00003	c3		 ret	 0
?max_size@?$basic_string@DU?$char_traits@D@std@@V?$allocator@D@2@@std@@QBEIXZ ENDP ; std::basic_string<char,std::char_traits<char>,std::allocator<char> >::max_size
_TEXT	ENDS
PUBLIC	?allocate@?$allocator@D@std@@QAEPADI@Z		; std::allocator<char>::allocate
; Function compile flags: /Ogsp
; File c:\program files (x86)\microsoft visual studio 10.0\vc\include\xmemory
;	COMDAT ?allocate@?$allocator@D@std@@QAEPADI@Z
_TEXT	SEGMENT
__Count$ = 8						; size = 4
?allocate@?$allocator@D@std@@QAEPADI@Z PROC		; std::allocator<char>::allocate, COMDAT
; _this$ = ecx

; 186  : 		{	// allocate array of _Count elements

  00000	55		 push	 ebp
  00001	8b ec		 mov	 ebp, esp

; 187  : 		return (_Allocate(_Count, (pointer)0));

  00003	6a 00		 push	 0
  00005	ff 75 08	 push	 DWORD PTR __Count$[ebp]
  00008	e8 00 00 00 00	 call	 ??$_Allocate@D@std@@YAPADIPAD@Z ; std::_Allocate<char>
  0000d	59		 pop	 ecx
  0000e	59		 pop	 ecx

; 188  : 		}

  0000f	5d		 pop	 ebp
  00010	c2 04 00	 ret	 4
?allocate@?$allocator@D@std@@QAEPADI@Z ENDP		; std::allocator<char>::allocate
_TEXT	ENDS
PUBLIC	??$?9DD@std@@YA_NABV?$allocator@D@0@0@Z		; std::operator!=<char,char>
; Function compile flags: /Ogsp
;	COMDAT ??$?9DD@std@@YA_NABV?$allocator@D@0@0@Z
_TEXT	SEGMENT
__Left$ = 8						; size = 4
__Right$ = 12						; size = 4
??$?9DD@std@@YA_NABV?$allocator@D@0@0@Z PROC		; std::operator!=<char,char>, COMDAT

; 271  : 	return (!(_Left == _Right));

  00000	32 c0		 xor	 al, al

; 272  : 	}

  00002	c3		 ret	 0
??$?9DD@std@@YA_NABV?$allocator@D@0@0@Z ENDP		; std::operator!=<char,char>
_TEXT	ENDS
PUBLIC	__real@42d00000
PUBLIC	?OnRender@ItemListIconBtn@@MAEXXZ		; ItemListIconBtn::OnRender
EXTRN	__imp_?PrintTextWidthCut@ioFontManager@@QAAXMMMMPBDZZ:PROC
EXTRN	__imp_?OnRender@ioButton@@MAEXXZ:PROC
;	COMDAT __real@42d00000
; File c:\program files (x86)\microsoft visual studio 10.0\vc\include\xstring
CONST	SEGMENT
__real@42d00000 DD 042d00000r			; 104
; Function compile flags: /Ogsp
; File d:\lost saga for developer\youtube\tutorial\source\src\lsclient\gui\ioextraitemlistwnd.cpp
CONST	ENDS
;	COMDAT ?OnRender@ItemListIconBtn@@MAEXXZ
_TEXT	SEGMENT
tv244 = -20						; size = 4
tv251 = -16						; size = 4
_iYPos$ = -12						; size = 4
tv166 = -8						; size = 4
tv290 = -4						; size = 4
_iXPos$ = -4						; size = 4
?OnRender@ItemListIconBtn@@MAEXXZ PROC			; ItemListIconBtn::OnRender, COMDAT
; _this$ = ecx

; 44   : {

  00000	55		 push	 ebp
  00001	8b ec		 mov	 ebp, esp
  00003	83 ec 14	 sub	 esp, 20			; 00000014H
  00006	53		 push	 ebx
  00007	56		 push	 esi
  00008	57		 push	 edi
  00009	8b f9		 mov	 edi, ecx

; 45   : 	NewShopIconBtn::OnRender();

  0000b	ff 15 00 00 00
	00		 call	 DWORD PTR __imp_?OnRender@ioButton@@MAEXXZ

; 46   : 
; 47   : 	int iXPos = GetDerivedPosX();

  00011	8b cf		 mov	 ecx, edi
  00013	ff 15 00 00 00
	00		 call	 DWORD PTR __imp_?GetDerivedPosX@ioWnd@@QBEHXZ

; 48   : 	int iYPos = GetDerivedPosY();

  00019	8b cf		 mov	 ecx, edi
  0001b	89 45 fc	 mov	 DWORD PTR _iXPos$[ebp], eax
  0001e	ff 15 00 00 00
	00		 call	 DWORD PTR __imp_?GetDerivedPosY@ioWnd@@QBEHXZ

; 49   : 
; 50   : 	g_FontMgr.SetTextStyle( TS_NORMAL );

  00024	8b 35 00 00 00
	00		 mov	 esi, DWORD PTR __imp_?GetSingleton@ioFontManager@@SAAAV1@XZ
  0002a	33 db		 xor	 ebx, ebx
  0002c	53		 push	 ebx
  0002d	89 45 f4	 mov	 DWORD PTR _iYPos$[ebp], eax
  00030	ff d6		 call	 esi
  00032	8b c8		 mov	 ecx, eax
  00034	ff 15 00 00 00
	00		 call	 DWORD PTR __imp_?SetTextStyle@ioFontManager@@QAEXW4TextStyle@@@Z

; 51   : 	g_FontMgr.SetBkColor( 0, 0, 0 );

  0003a	53		 push	 ebx
  0003b	53		 push	 ebx
  0003c	53		 push	 ebx
  0003d	ff d6		 call	 esi
  0003f	8b c8		 mov	 ecx, eax
  00041	ff 15 00 00 00
	00		 call	 DWORD PTR __imp_?SetBkColor@ioFontManager@@QAEXHHH@Z

; 52   : 	g_FontMgr.SetAlignType( TAT_CENTER );

  00047	6a 01		 push	 1
  00049	ff d6		 call	 esi
  0004b	8b c8		 mov	 ecx, eax
  0004d	ff 15 00 00 00
	00		 call	 DWORD PTR __imp_?SetAlignType@ioFontManager@@QAEXW4TextAlignType@@@Z

; 53   : 	g_FontMgr.SetTextColor( TCT_DEFAULT_DARKGRAY );

  00053	68 3a 3a 3a ff	 push	 -12961222		; ff3a3a3aH
  00058	ff d6		 call	 esi
  0005a	8b c8		 mov	 ecx, eax
  0005c	ff 15 00 00 00
	00		 call	 DWORD PTR __imp_?SetTextColor@ioFontManager@@QAEXK@Z

; 54   : 	/*
; 55   : 	int iCheckNum = m_iItemCode % 10000;
; 56   : 	if( iCheckNum > 1000 )
; 57   : 		g_FontMgr.SetTextColor( TCT_DEFAULT_BLUE );
; 58   : 	*/
; 59   : 
; 60   : 	enum { X_TEXT_OFFSET = 32, Y_TEXT_OFFSET = 79, Y_OFFSET_LING_GAP = 18, Y_TEXT_OFFSET_ADD = -8, Y_OFFSET_LING_GAP_ADD = -4,  };
; 61   : 
; 62   : 	int iYAdd    = 0;
; 63   : 	int iYGapAdd = 0;
; 64   : 	int iSize = m_szNameList.size();

  00062	8b 87 70 02 00
	00		 mov	 eax, DWORD PTR [edi+624]
  00068	2b 87 6c 02 00
	00		 sub	 eax, DWORD PTR [edi+620]
  0006e	6a 1c		 push	 28			; 0000001cH
  00070	99		 cdq
  00071	5b		 pop	 ebx
  00072	f7 fb		 idiv	 ebx
  00074	33 c9		 xor	 ecx, ecx

; 65   : 	if( iSize >= 2 )

  00076	83 f8 02	 cmp	 eax, 2
  00079	7c 08		 jl	 SHORT $LN20@OnRender@2

; 66   : 	{
; 67   : 		iYAdd    = Y_TEXT_OFFSET_ADD;

  0007b	6a f8		 push	 -8			; fffffff8H
  0007d	59		 pop	 ecx

; 68   : 		iYGapAdd = Y_OFFSET_LING_GAP_ADD; 

  0007e	6a fc		 push	 -4			; fffffffcH
  00080	5a		 pop	 edx
  00081	eb 02		 jmp	 SHORT $LN4@OnRender@2
$LN20@OnRender@2:
  00083	8b d1		 mov	 edx, ecx
$LN4@OnRender@2:

; 69   : 	}
; 70   : 
; 71   : 	for(int i = 0;i < iSize;i++)

  00085	85 c0		 test	 eax, eax
  00087	0f 8e 86 00 00
	00		 jle	 $LN1@OnRender@2
  0008d	8b 5d fc	 mov	 ebx, DWORD PTR _iXPos$[ebp]
  00090	83 65 fc 00	 and	 DWORD PTR tv290[ebp], 0
  00094	83 c3 20	 add	 ebx, 32			; 00000020H
  00097	83 c2 12	 add	 edx, 18			; 00000012H
  0009a	89 55 ec	 mov	 DWORD PTR tv244[ebp], edx
  0009d	8b 55 f4	 mov	 edx, DWORD PTR _iYPos$[ebp]
  000a0	0f 57 c0	 xorps	 xmm0, xmm0
  000a3	f3 0f 2a c3	 cvtsi2ss xmm0, ebx
  000a7	f3 0f 11 45 f0	 movss	 DWORD PTR tv251[ebp], xmm0
  000ac	8d 5c 11 4f	 lea	 ebx, DWORD PTR [ecx+edx+79]
  000b0	89 45 f8	 mov	 DWORD PTR tv166[ebp], eax
$LL19@OnRender@2:

; 72   : 	{
; 73   : 		g_FontMgr.PrintTextWidthCut( iXPos+X_TEXT_OFFSET, iYPos+Y_TEXT_OFFSET+iYAdd+( i*(Y_OFFSET_LING_GAP+iYGapAdd) ), FONT_SIZE_13, 104.0f, m_szNameList[i].c_str() );

  000b3	8b 87 6c 02 00
	00		 mov	 eax, DWORD PTR [edi+620]
  000b9	03 45 fc	 add	 eax, DWORD PTR tv290[ebp]
  000bc	83 78 14 10	 cmp	 DWORD PTR [eax+20], 16	; 00000010H
  000c0	72 02		 jb	 SHORT $LN15@OnRender@2
  000c2	8b 00		 mov	 eax, DWORD PTR [eax]
$LN15@OnRender@2:
  000c4	f3 0f 10 05 00
	00 00 00	 movss	 xmm0, DWORD PTR __real@42d00000
  000cc	50		 push	 eax
  000cd	83 ec 10	 sub	 esp, 16			; 00000010H
  000d0	f3 0f 11 44 24
	0c		 movss	 DWORD PTR [esp+12], xmm0
  000d6	f3 0f 10 05 00
	00 00 00	 movss	 xmm0, DWORD PTR __real@3f266666
  000de	f3 0f 11 44 24
	08		 movss	 DWORD PTR [esp+8], xmm0
  000e4	0f 57 c0	 xorps	 xmm0, xmm0
  000e7	f3 0f 2a c3	 cvtsi2ss xmm0, ebx
  000eb	f3 0f 11 44 24
	04		 movss	 DWORD PTR [esp+4], xmm0
  000f1	f3 0f 10 45 f0	 movss	 xmm0, DWORD PTR tv251[ebp]
  000f6	f3 0f 11 04 24	 movss	 DWORD PTR [esp], xmm0
  000fb	ff d6		 call	 esi
  000fd	50		 push	 eax
  000fe	ff 15 00 00 00
	00		 call	 DWORD PTR __imp_?PrintTextWidthCut@ioFontManager@@QAAXMMMMPBDZZ
  00104	83 45 fc 1c	 add	 DWORD PTR tv290[ebp], 28 ; 0000001cH
  00108	03 5d ec	 add	 ebx, DWORD PTR tv244[ebp]
  0010b	83 c4 18	 add	 esp, 24			; 00000018H
  0010e	ff 4d f8	 dec	 DWORD PTR tv166[ebp]
  00111	75 a0		 jne	 SHORT $LL19@OnRender@2
$LN1@OnRender@2:
  00113	5f		 pop	 edi
  00114	5e		 pop	 esi
  00115	5b		 pop	 ebx

; 74   : 	}
; 75   : }

  00116	c9		 leave
  00117	c3		 ret	 0
?OnRender@ItemListIconBtn@@MAEXXZ ENDP			; ItemListIconBtn::OnRender
_TEXT	ENDS
PUBLIC	??0?$vector@V?$basic_string@DU?$char_traits@D@std@@V?$allocator@D@2@@std@@V?$allocator@V?$basic_string@DU?$char_traits@D@std@@V?$allocator@D@2@@std@@@2@@std@@QAE@XZ ; std::vector<std::basic_string<char,std::char_traits<char>,std::allocator<char> >,std::allocator<std::basic_string<char,std::char_traits<char>,std::allocator<char> > > >::vector<std::basic_string<char,std::char_traits<char>,std::allocator<char> >,std::allocator<std::basic_string<char,std::char_traits<char>,std::allocator<char> > > >
; Function compile flags: /Ogsp
; File c:\program files (x86)\microsoft visual studio 10.0\vc\include\vector
;	COMDAT ??0?$vector@V?$basic_string@DU?$char_traits@D@std@@V?$allocator@D@2@@std@@V?$allocator@V?$basic_string@DU?$char_traits@D@std@@V?$allocator@D@2@@std@@@2@@std@@QAE@XZ
_TEXT	SEGMENT
??0?$vector@V?$basic_string@DU?$char_traits@D@std@@V?$allocator@D@2@@std@@V?$allocator@V?$basic_string@DU?$char_traits@D@std@@V?$allocator@D@2@@std@@@2@@std@@QAE@XZ PROC ; std::vector<std::basic_string<char,std::char_traits<char>,std::allocator<char> >,std::allocator<std::basic_string<char,std::char_traits<char>,std::allocator<char> > > >::vector<std::basic_string<char,std::char_traits<char>,std::allocator<char> >,std::allocator<std::basic_string<char,std::char_traits<char>,std::allocator<char> > > >, COMDAT
; _this$ = ecx

; 507  : 		{	// construct empty vector

  00000	8b c1		 mov	 eax, ecx
  00002	33 c9		 xor	 ecx, ecx
  00004	89 08		 mov	 DWORD PTR [eax], ecx
  00006	89 48 04	 mov	 DWORD PTR [eax+4], ecx
  00009	89 48 08	 mov	 DWORD PTR [eax+8], ecx

; 508  : 		}

  0000c	c3		 ret	 0
??0?$vector@V?$basic_string@DU?$char_traits@D@std@@V?$allocator@D@2@@std@@V?$allocator@V?$basic_string@DU?$char_traits@D@std@@V?$allocator@D@2@@std@@@2@@std@@QAE@XZ ENDP ; std::vector<std::basic_string<char,std::char_traits<char>,std::allocator<char> >,std::allocator<std::basic_string<char,std::char_traits<char>,std::allocator<char> > > >::vector<std::basic_string<char,std::char_traits<char>,std::allocator<char> >,std::allocator<std::basic_string<char,std::char_traits<char>,std::allocator<char> > > >
_TEXT	ENDS
PUBLIC	??0?$vector@UItemListInfoSort@@V?$allocator@UItemListInfoSort@@@std@@@std@@QAE@XZ ; std::vector<ItemListInfoSort,std::allocator<ItemListInfoSort> >::vector<ItemListInfoSort,std::allocator<ItemListInfoSort> >
; Function compile flags: /Ogsp
;	COMDAT ??0?$vector@UItemListInfoSort@@V?$allocator@UItemListInfoSort@@@std@@@std@@QAE@XZ
_TEXT	SEGMENT
??0?$vector@UItemListInfoSort@@V?$allocator@UItemListInfoSort@@@std@@@std@@QAE@XZ PROC ; std::vector<ItemListInfoSort,std::allocator<ItemListInfoSort> >::vector<ItemListInfoSort,std::allocator<ItemListInfoSort> >, COMDAT
; _this$ = ecx

; 507  : 		{	// construct empty vector

  00000	8b c1		 mov	 eax, ecx
  00002	33 c9		 xor	 ecx, ecx
  00004	89 08		 mov	 DWORD PTR [eax], ecx
  00006	89 48 04	 mov	 DWORD PTR [eax+4], ecx
  00009	89 48 08	 mov	 DWORD PTR [eax+8], ecx

; 508  : 		}

  0000c	c3		 ret	 0
??0?$vector@UItemListInfoSort@@V?$allocator@UItemListInfoSort@@@std@@@std@@QAE@XZ ENDP ; std::vector<ItemListInfoSort,std::allocator<ItemListInfoSort> >::vector<ItemListInfoSort,std::allocator<ItemListInfoSort> >
_TEXT	ENDS
PUBLIC	??9?$_Vector_const_iterator@V?$_Vector_val@UItemListInfoSort@@V?$allocator@UItemListInfoSort@@@std@@@std@@@std@@QBE_NABV01@@Z ; std::_Vector_const_iterator<std::_Vector_val<ItemListInfoSort,std::allocator<ItemListInfoSort> > >::operator!=
; Function compile flags: /Ogsp
;	COMDAT ??9?$_Vector_const_iterator@V?$_Vector_val@UItemListInfoSort@@V?$allocator@UItemListInfoSort@@@std@@@std@@@std@@QBE_NABV01@@Z
_TEXT	SEGMENT
__Right$ = 8						; size = 4
??9?$_Vector_const_iterator@V?$_Vector_val@UItemListInfoSort@@V?$allocator@UItemListInfoSort@@@std@@@std@@@std@@QBE_NABV01@@Z PROC ; std::_Vector_const_iterator<std::_Vector_val<ItemListInfoSort,std::allocator<ItemListInfoSort> > >::operator!=, COMDAT
; _this$ = ecx

; 207  : 		{	// test for iterator inequality

  00000	55		 push	 ebp
  00001	8b ec		 mov	 ebp, esp

; 208  : 		return (!(*this == _Right));

  00003	8b 01		 mov	 eax, DWORD PTR [ecx]
  00005	8b 55 08	 mov	 edx, DWORD PTR __Right$[ebp]
  00008	33 c9		 xor	 ecx, ecx
  0000a	3b 02		 cmp	 eax, DWORD PTR [edx]
  0000c	0f 95 c0	 setne	 al

; 209  : 		}

  0000f	5d		 pop	 ebp
  00010	c2 04 00	 ret	 4
??9?$_Vector_const_iterator@V?$_Vector_val@UItemListInfoSort@@V?$allocator@UItemListInfoSort@@@std@@@std@@@std@@QBE_NABV01@@Z ENDP ; std::_Vector_const_iterator<std::_Vector_val<ItemListInfoSort,std::allocator<ItemListInfoSort> > >::operator!=
_TEXT	ENDS
PUBLIC	?_Buy@?$vector@V?$basic_string@DU?$char_traits@D@std@@V?$allocator@D@2@@std@@V?$allocator@V?$basic_string@DU?$char_traits@D@std@@V?$allocator@D@2@@std@@@2@@std@@IAE_NI@Z ; std::vector<std::basic_string<char,std::char_traits<char>,std::allocator<char> >,std::allocator<std::basic_string<char,std::char_traits<char>,std::allocator<char> > > >::_Buy
; Function compile flags: /Ogsp
;	COMDAT ?_Buy@?$vector@V?$basic_string@DU?$char_traits@D@std@@V?$allocator@D@2@@std@@V?$allocator@V?$basic_string@DU?$char_traits@D@std@@V?$allocator@D@2@@std@@@2@@std@@IAE_NI@Z
_TEXT	SEGMENT
__Capacity$ = 8						; size = 4
?_Buy@?$vector@V?$basic_string@DU?$char_traits@D@std@@V?$allocator@D@2@@std@@V?$allocator@V?$basic_string@DU?$char_traits@D@std@@V?$allocator@D@2@@std@@@2@@std@@IAE_NI@Z PROC ; std::vector<std::basic_string<char,std::char_traits<char>,std::allocator<char> >,std::allocator<std::basic_string<char,std::char_traits<char>,std::allocator<char> > > >::_Buy, COMDAT
; _this$ = ecx

; 1250 : 		{	// allocate array with _Capacity elements

  00000	55		 push	 ebp
  00001	8b ec		 mov	 ebp, esp
  00003	56		 push	 esi

; 1251 : 		this->_Myfirst = 0;

  00004	33 c0		 xor	 eax, eax
  00006	57		 push	 edi

; 1252 : 		this->_Mylast = 0;
; 1253 : 		this->_Myend = 0;
; 1254 : 
; 1255 : 		if (_Capacity == 0)

  00007	8b 7d 08	 mov	 edi, DWORD PTR __Capacity$[ebp]
  0000a	8b f1		 mov	 esi, ecx
  0000c	89 06		 mov	 DWORD PTR [esi], eax
  0000e	89 46 04	 mov	 DWORD PTR [esi+4], eax
  00011	89 46 08	 mov	 DWORD PTR [esi+8], eax
  00014	3b f8		 cmp	 edi, eax
  00016	75 04		 jne	 SHORT $LN4@Buy

; 1256 : 			return (false);

  00018	32 c0		 xor	 al, al
  0001a	eb 2b		 jmp	 SHORT $LN5@Buy
$LN4@Buy:

; 1257 : 		else if (max_size() < _Capacity)

  0001c	81 ff 49 92 24
	09		 cmp	 edi, 153391689		; 09249249H
  00022	76 0b		 jbe	 SHORT $LN2@Buy

; 1258 : 			_Xlen();	// result too long

  00024	68 00 00 00 00	 push	 OFFSET ??_C@_0BD@OLBABOEK@vector?$DMT?$DO?5too?5long?$AA@
  00029	ff 15 00 00 00
	00		 call	 DWORD PTR __imp_?_Xlength_error@std@@YAXPBD@Z
$LN19@Buy:
$LN2@Buy:

; 1259 : 		else
; 1260 : 			{	// nonempty array, allocate storage
; 1261 : 			this->_Myfirst = this->_Alval.allocate(_Capacity);

  0002f	50		 push	 eax
  00030	57		 push	 edi
  00031	e8 00 00 00 00	 call	 ??$_Allocate@V?$basic_string@DU?$char_traits@D@std@@V?$allocator@D@2@@std@@@std@@YAPAV?$basic_string@DU?$char_traits@D@std@@V?$allocator@D@2@@0@IPAV10@@Z ; std::_Allocate<std::basic_string<char,std::char_traits<char>,std::allocator<char> > >

; 1262 : 			this->_Mylast = this->_Myfirst;
; 1263 : 			this->_Myend = this->_Myfirst + _Capacity;

  00036	6b ff 1c	 imul	 edi, 28			; 0000001cH
  00039	03 f8		 add	 edi, eax
  0003b	59		 pop	 ecx
  0003c	89 06		 mov	 DWORD PTR [esi], eax
  0003e	89 46 04	 mov	 DWORD PTR [esi+4], eax
  00041	59		 pop	 ecx
  00042	89 7e 08	 mov	 DWORD PTR [esi+8], edi

; 1264 : 			}
; 1265 : 		return (true);

  00045	b0 01		 mov	 al, 1
$LN5@Buy:
  00047	5f		 pop	 edi
  00048	5e		 pop	 esi

; 1266 : 		}

  00049	5d		 pop	 ebp
  0004a	c2 04 00	 ret	 4
$LN18@Buy:
?_Buy@?$vector@V?$basic_string@DU?$char_traits@D@std@@V?$allocator@D@2@@std@@V?$allocator@V?$basic_string@DU?$char_traits@D@std@@V?$allocator@D@2@@std@@@2@@std@@IAE_NI@Z ENDP ; std::vector<std::basic_string<char,std::char_traits<char>,std::allocator<char> >,std::allocator<std::basic_string<char,std::char_traits<char>,std::allocator<char> > > >::_Buy
_TEXT	ENDS
PUBLIC	??0?$_Vector_iterator@V?$_Vector_val@UItemListInfoSort@@V?$allocator@UItemListInfoSort@@@std@@@std@@@std@@QAE@PAUItemListInfoSort@@PBU_Container_base0@1@@Z ; std::_Vector_iterator<std::_Vector_val<ItemListInfoSort,std::allocator<ItemListInfoSort> > >::_Vector_iterator<std::_Vector_val<ItemListInfoSort,std::allocator<ItemListInfoSort> > >
; Function compile flags: /Ogsp
;	COMDAT ??0?$_Vector_iterator@V?$_Vector_val@UItemListInfoSort@@V?$allocator@UItemListInfoSort@@@std@@@std@@@std@@QAE@PAUItemListInfoSort@@PBU_Container_base0@1@@Z
_TEXT	SEGMENT
__Parg$ = 8						; size = 4
__Pvector$ = 12						; size = 4
??0?$_Vector_iterator@V?$_Vector_val@UItemListInfoSort@@V?$allocator@UItemListInfoSort@@@std@@@std@@@std@@QAE@PAUItemListInfoSort@@PBU_Container_base0@1@@Z PROC ; std::_Vector_iterator<std::_Vector_val<ItemListInfoSort,std::allocator<ItemListInfoSort> > >::_Vector_iterator<std::_Vector_val<ItemListInfoSort,std::allocator<ItemListInfoSort> > >, COMDAT
; _this$ = ecx

; 304  : 		{	// construct with pointer _Parg

  00000	55		 push	 ebp
  00001	8b ec		 mov	 ebp, esp
  00003	8b c1		 mov	 eax, ecx
  00005	8b 4d 08	 mov	 ecx, DWORD PTR __Parg$[ebp]
  00008	89 08		 mov	 DWORD PTR [eax], ecx

; 305  : 		}

  0000a	5d		 pop	 ebp
  0000b	c2 08 00	 ret	 8
??0?$_Vector_iterator@V?$_Vector_val@UItemListInfoSort@@V?$allocator@UItemListInfoSort@@@std@@@std@@@std@@QAE@PAUItemListInfoSort@@PBU_Container_base0@1@@Z ENDP ; std::_Vector_iterator<std::_Vector_val<ItemListInfoSort,std::allocator<ItemListInfoSort> > >::_Vector_iterator<std::_Vector_val<ItemListInfoSort,std::allocator<ItemListInfoSort> > >
_TEXT	ENDS
PUBLIC	?_Make_iter@?$vector@UItemListInfoSort@@V?$allocator@UItemListInfoSort@@@std@@@std@@QBE?AV?$_Vector_iterator@V?$_Vector_val@UItemListInfoSort@@V?$allocator@UItemListInfoSort@@@std@@@std@@@2@V?$_Vector_const_iterator@V?$_Vector_val@UItemListInfoSort@@V?$allocator@UItemListInfoSort@@@std@@@std@@@2@@Z ; std::vector<ItemListInfoSort,std::allocator<ItemListInfoSort> >::_Make_iter
; Function compile flags: /Ogsp
;	COMDAT ?_Make_iter@?$vector@UItemListInfoSort@@V?$allocator@UItemListInfoSort@@@std@@@std@@QBE?AV?$_Vector_iterator@V?$_Vector_val@UItemListInfoSort@@V?$allocator@UItemListInfoSort@@@std@@@std@@@2@V?$_Vector_const_iterator@V?$_Vector_val@UItemListInfoSort@@V?$allocator@UItemListInfoSort@@@std@@@std@@@2@@Z
_TEXT	SEGMENT
___$ReturnUdt$ = 8					; size = 4
__Where$ = 12						; size = 4
?_Make_iter@?$vector@UItemListInfoSort@@V?$allocator@UItemListInfoSort@@@std@@@std@@QBE?AV?$_Vector_iterator@V?$_Vector_val@UItemListInfoSort@@V?$allocator@UItemListInfoSort@@@std@@@std@@@2@V?$_Vector_const_iterator@V?$_Vector_val@UItemListInfoSort@@V?$allocator@UItemListInfoSort@@@std@@@std@@@2@@Z PROC ; std::vector<ItemListInfoSort,std::allocator<ItemListInfoSort> >::_Make_iter, COMDAT
; _this$ = ecx

; 801  : 		{	// make iterator from const_iterator

  00000	55		 push	 ebp
  00001	8b ec		 mov	 ebp, esp

; 802  : 		return (iterator(_Where._Ptr, this));

  00003	8b 45 08	 mov	 eax, DWORD PTR ___$ReturnUdt$[ebp]
  00006	8b 4d 0c	 mov	 ecx, DWORD PTR __Where$[ebp]
  00009	89 08		 mov	 DWORD PTR [eax], ecx

; 803  : 		}

  0000b	5d		 pop	 ebp
  0000c	c2 08 00	 ret	 8
?_Make_iter@?$vector@UItemListInfoSort@@V?$allocator@UItemListInfoSort@@@std@@@std@@QBE?AV?$_Vector_iterator@V?$_Vector_val@UItemListInfoSort@@V?$allocator@UItemListInfoSort@@@std@@@std@@@2@V?$_Vector_const_iterator@V?$_Vector_val@UItemListInfoSort@@V?$allocator@UItemListInfoSort@@@std@@@std@@@2@@Z ENDP ; std::vector<ItemListInfoSort,std::allocator<ItemListInfoSort> >::_Make_iter
_TEXT	ENDS
PUBLIC	??0?$_Vector_iterator@V?$_Vector_val@V?$basic_string@DU?$char_traits@D@std@@V?$allocator@D@2@@std@@V?$allocator@V?$basic_string@DU?$char_traits@D@std@@V?$allocator@D@2@@std@@@2@@std@@@std@@QAE@PAV?$basic_string@DU?$char_traits@D@std@@V?$allocator@D@2@@1@PBU_Container_base0@1@@Z ; std::_Vector_iterator<std::_Vector_val<std::basic_string<char,std::char_traits<char>,std::allocator<char> >,std::allocator<std::basic_string<char,std::char_traits<char>,std::allocator<char> > > > >::_Vector_iterator<std::_Vector_val<std::basic_string<char,std::char_traits<char>,std::allocator<char> >,std::allocator<std::basic_string<char,std::char_traits<char>,std::allocator<char> > > > >
; Function compile flags: /Ogsp
;	COMDAT ??0?$_Vector_iterator@V?$_Vector_val@V?$basic_string@DU?$char_traits@D@std@@V?$allocator@D@2@@std@@V?$allocator@V?$basic_string@DU?$char_traits@D@std@@V?$allocator@D@2@@std@@@2@@std@@@std@@QAE@PAV?$basic_string@DU?$char_traits@D@std@@V?$allocator@D@2@@1@PBU_Container_base0@1@@Z
_TEXT	SEGMENT
__Parg$ = 8						; size = 4
__Pvector$ = 12						; size = 4
??0?$_Vector_iterator@V?$_Vector_val@V?$basic_string@DU?$char_traits@D@std@@V?$allocator@D@2@@std@@V?$allocator@V?$basic_string@DU?$char_traits@D@std@@V?$allocator@D@2@@std@@@2@@std@@@std@@QAE@PAV?$basic_string@DU?$char_traits@D@std@@V?$allocator@D@2@@1@PBU_Container_base0@1@@Z PROC ; std::_Vector_iterator<std::_Vector_val<std::basic_string<char,std::char_traits<char>,std::allocator<char> >,std::allocator<std::basic_string<char,std::char_traits<char>,std::allocator<char> > > > >::_Vector_iterator<std::_Vector_val<std::basic_string<char,std::char_traits<char>,std::allocator<char> >,std::allocator<std::basic_string<char,std::char_traits<char>,std::allocator<char> > > > >, COMDAT
; _this$ = ecx

; 304  : 		{	// construct with pointer _Parg

  00000	55		 push	 ebp
  00001	8b ec		 mov	 ebp, esp
  00003	8b c1		 mov	 eax, ecx
  00005	8b 4d 08	 mov	 ecx, DWORD PTR __Parg$[ebp]
  00008	89 08		 mov	 DWORD PTR [eax], ecx

; 305  : 		}

  0000a	5d		 pop	 ebp
  0000b	c2 08 00	 ret	 8
??0?$_Vector_iterator@V?$_Vector_val@V?$basic_string@DU?$char_traits@D@std@@V?$allocator@D@2@@std@@V?$allocator@V?$basic_string@DU?$char_traits@D@std@@V?$allocator@D@2@@std@@@2@@std@@@std@@QAE@PAV?$basic_string@DU?$char_traits@D@std@@V?$allocator@D@2@@1@PBU_Container_base0@1@@Z ENDP ; std::_Vector_iterator<std::_Vector_val<std::basic_string<char,std::char_traits<char>,std::allocator<char> >,std::allocator<std::basic_string<char,std::char_traits<char>,std::allocator<char> > > > >::_Vector_iterator<std::_Vector_val<std::basic_string<char,std::char_traits<char>,std::allocator<char> >,std::allocator<std::basic_string<char,std::char_traits<char>,std::allocator<char> > > > >
_TEXT	ENDS
PUBLIC	??9?$_Vector_const_iterator@V?$_Vector_val@V?$basic_string@DU?$char_traits@D@std@@V?$allocator@D@2@@std@@V?$allocator@V?$basic_string@DU?$char_traits@D@std@@V?$allocator@D@2@@std@@@2@@std@@@std@@QBE_NABV01@@Z ; std::_Vector_const_iterator<std::_Vector_val<std::basic_string<char,std::char_traits<char>,std::allocator<char> >,std::allocator<std::basic_string<char,std::char_traits<char>,std::allocator<char> > > > >::operator!=
; Function compile flags: /Ogsp
;	COMDAT ??9?$_Vector_const_iterator@V?$_Vector_val@V?$basic_string@DU?$char_traits@D@std@@V?$allocator@D@2@@std@@V?$allocator@V?$basic_string@DU?$char_traits@D@std@@V?$allocator@D@2@@std@@@2@@std@@@std@@QBE_NABV01@@Z
_TEXT	SEGMENT
__Right$ = 8						; size = 4
??9?$_Vector_const_iterator@V?$_Vector_val@V?$basic_string@DU?$char_traits@D@std@@V?$allocator@D@2@@std@@V?$allocator@V?$basic_string@DU?$char_traits@D@std@@V?$allocator@D@2@@std@@@2@@std@@@std@@QBE_NABV01@@Z PROC ; std::_Vector_const_iterator<std::_Vector_val<std::basic_string<char,std::char_traits<char>,std::allocator<char> >,std::allocator<std::basic_string<char,std::char_traits<char>,std::allocator<char> > > > >::operator!=, COMDAT
; _this$ = ecx

; 207  : 		{	// test for iterator inequality

  00000	55		 push	 ebp
  00001	8b ec		 mov	 ebp, esp

; 208  : 		return (!(*this == _Right));

  00003	8b 01		 mov	 eax, DWORD PTR [ecx]
  00005	8b 55 08	 mov	 edx, DWORD PTR __Right$[ebp]
  00008	33 c9		 xor	 ecx, ecx
  0000a	3b 02		 cmp	 eax, DWORD PTR [edx]
  0000c	0f 95 c0	 setne	 al

; 209  : 		}

  0000f	5d		 pop	 ebp
  00010	c2 04 00	 ret	 4
??9?$_Vector_const_iterator@V?$_Vector_val@V?$basic_string@DU?$char_traits@D@std@@V?$allocator@D@2@@std@@V?$allocator@V?$basic_string@DU?$char_traits@D@std@@V?$allocator@D@2@@std@@@2@@std@@@std@@QBE_NABV01@@Z ENDP ; std::_Vector_const_iterator<std::_Vector_val<std::basic_string<char,std::char_traits<char>,std::allocator<char> >,std::allocator<std::basic_string<char,std::char_traits<char>,std::allocator<char> > > > >::operator!=
_TEXT	ENDS
PUBLIC	??$_Cons_val@V?$allocator@UItemListInfoSort@@@std@@UItemListInfoSort@@ABU3@@std@@YAXAAV?$allocator@UItemListInfoSort@@@0@PAUItemListInfoSort@@ABU2@@Z ; std::_Cons_val<std::allocator<ItemListInfoSort>,ItemListInfoSort,ItemListInfoSort const &>
; Function compile flags: /Ogsp
; File c:\program files (x86)\microsoft visual studio 10.0\vc\include\xmemory
;	COMDAT ??$_Cons_val@V?$allocator@UItemListInfoSort@@@std@@UItemListInfoSort@@ABU3@@std@@YAXAAV?$allocator@UItemListInfoSort@@@0@PAUItemListInfoSort@@ABU2@@Z
_TEXT	SEGMENT
__Alval$ = 8						; size = 4
__Pdest$ = 12						; size = 4
__Src$ = 16						; size = 4
??$_Cons_val@V?$allocator@UItemListInfoSort@@@std@@UItemListInfoSort@@ABU3@@std@@YAXAAV?$allocator@UItemListInfoSort@@@0@PAUItemListInfoSort@@ABU2@@Z PROC ; std::_Cons_val<std::allocator<ItemListInfoSort>,ItemListInfoSort,ItemListInfoSort const &>, COMDAT

; 279  : 	{	// construct using allocator

  00000	55		 push	 ebp
  00001	8b ec		 mov	 ebp, esp
  00003	57		 push	 edi

; 280  : 	_Alval.construct(_Pdest, _STD forward<_Ty2>(_Src));

  00004	8b 7d 0c	 mov	 edi, DWORD PTR __Pdest$[ebp]
  00007	85 ff		 test	 edi, edi
  00009	74 0a		 je	 SHORT $LN9@Cons_val@2
  0000b	56		 push	 esi
  0000c	8b 75 10	 mov	 esi, DWORD PTR __Src$[ebp]
  0000f	6a 05		 push	 5
  00011	59		 pop	 ecx
  00012	f3 a5		 rep movsd
  00014	5e		 pop	 esi
$LN9@Cons_val@2:
  00015	5f		 pop	 edi

; 281  : 	}

  00016	5d		 pop	 ebp
  00017	c3		 ret	 0
??$_Cons_val@V?$allocator@UItemListInfoSort@@@std@@UItemListInfoSort@@ABU3@@std@@YAXAAV?$allocator@UItemListInfoSort@@@0@PAUItemListInfoSort@@ABU2@@Z ENDP ; std::_Cons_val<std::allocator<ItemListInfoSort>,ItemListInfoSort,ItemListInfoSort const &>
_TEXT	ENDS
PUBLIC	??$_Move@PAUItemListInfoSort@@PAU1@@std@@YAPAUItemListInfoSort@@PAU1@00@Z ; std::_Move<ItemListInfoSort *,ItemListInfoSort *>
; Function compile flags: /Ogsp
; File c:\program files (x86)\microsoft visual studio 10.0\vc\include\xutility
;	COMDAT ??$_Move@PAUItemListInfoSort@@PAU1@@std@@YAPAUItemListInfoSort@@PAU1@00@Z
_TEXT	SEGMENT
__Cat$509032 = -4					; size = 1
__First$ = 8						; size = 4
__Last$ = 12						; size = 4
__Dest$ = 16						; size = 4
??$_Move@PAUItemListInfoSort@@PAU1@@std@@YAPAUItemListInfoSort@@PAU1@00@Z PROC ; std::_Move<ItemListInfoSort *,ItemListInfoSort *>, COMDAT

; 2533 : 	{	// move [_First, _Last) to [_Dest, ...), unchecked

  00000	55		 push	 ebp
  00001	8b ec		 mov	 ebp, esp
  00003	51		 push	 ecx

; 2534 : 	return (_Move(_First, _Last,
; 2535 : 		_Dest, _Ptr_cat(_First, _Dest)));

  00004	ff 75 fc	 push	 DWORD PTR __Cat$509032[ebp]
  00007	ff 75 10	 push	 DWORD PTR __Dest$[ebp]
  0000a	ff 75 0c	 push	 DWORD PTR __Last$[ebp]
  0000d	ff 75 08	 push	 DWORD PTR __First$[ebp]
  00010	e8 00 00 00 00	 call	 ??$_Move@PAUItemListInfoSort@@PAU1@@std@@YAPAUItemListInfoSort@@PAU1@00U_Nonscalar_ptr_iterator_tag@0@@Z ; std::_Move<ItemListInfoSort *,ItemListInfoSort *>
  00015	83 c4 10	 add	 esp, 16			; 00000010H

; 2536 : 	}

  00018	c9		 leave
  00019	c3		 ret	 0
??$_Move@PAUItemListInfoSort@@PAU1@@std@@YAPAUItemListInfoSort@@PAU1@00@Z ENDP ; std::_Move<ItemListInfoSort *,ItemListInfoSort *>
_TEXT	ENDS
PUBLIC	??$_Dest_val@V?$allocator@UItemListInfoSort@@@std@@UItemListInfoSort@@@std@@YAXAAV?$allocator@UItemListInfoSort@@@0@PAUItemListInfoSort@@@Z ; std::_Dest_val<std::allocator<ItemListInfoSort>,ItemListInfoSort>
; Function compile flags: /Ogsp
; File c:\program files (x86)\microsoft visual studio 10.0\vc\include\xmemory
;	COMDAT ??$_Dest_val@V?$allocator@UItemListInfoSort@@@std@@UItemListInfoSort@@@std@@YAXAAV?$allocator@UItemListInfoSort@@@0@PAUItemListInfoSort@@@Z
_TEXT	SEGMENT
__Alval$ = 8						; size = 4
__Pdest$ = 12						; size = 4
??$_Dest_val@V?$allocator@UItemListInfoSort@@@std@@UItemListInfoSort@@@std@@YAXAAV?$allocator@UItemListInfoSort@@@0@PAUItemListInfoSort@@@Z PROC ; std::_Dest_val<std::allocator<ItemListInfoSort>,ItemListInfoSort>, COMDAT

; 287  : 	_Alval.destroy(_Pdest);
; 288  : 	}

  00000	c3		 ret	 0
??$_Dest_val@V?$allocator@UItemListInfoSort@@@std@@UItemListInfoSort@@@std@@YAXAAV?$allocator@UItemListInfoSort@@@0@PAUItemListInfoSort@@@Z ENDP ; std::_Dest_val<std::allocator<ItemListInfoSort>,ItemListInfoSort>
_TEXT	ENDS
PUBLIC	??$iter_swap@PAUItemListInfoSort@@PAU1@@std@@YAXPAUItemListInfoSort@@0@Z ; std::iter_swap<ItemListInfoSort *,ItemListInfoSort *>
; Function compile flags: /Ogsp
; File c:\program files (x86)\microsoft visual studio 10.0\vc\include\xutility
;	COMDAT ??$iter_swap@PAUItemListInfoSort@@PAU1@@std@@YAXPAUItemListInfoSort@@0@Z
_TEXT	SEGMENT
__Left$ = 8						; size = 4
__Right$ = 12						; size = 4
??$iter_swap@PAUItemListInfoSort@@PAU1@@std@@YAXPAUItemListInfoSort@@0@Z PROC ; std::iter_swap<ItemListInfoSort *,ItemListInfoSort *>, COMDAT

; 2133 : 	{	// swap *_Left and *_Right

  00000	55		 push	 ebp
  00001	8b ec		 mov	 ebp, esp

; 2135 : 	}

  00003	5d		 pop	 ebp

; 2134 : 	swap(*_Left, *_Right);

  00004	e9 00 00 00 00	 jmp	 ??$swap@UItemListInfoSort@@@std@@YAXAAUItemListInfoSort@@0@Z ; std::swap<ItemListInfoSort>
??$iter_swap@PAUItemListInfoSort@@PAU1@@std@@YAXPAUItemListInfoSort@@0@Z ENDP ; std::iter_swap<ItemListInfoSort *,ItemListInfoSort *>
_TEXT	ENDS
PUBLIC	??$_Make_heap@PAUItemListInfoSort@@HU1@VShopExtraItemSort@@@std@@YAXPAUItemListInfoSort@@0VShopExtraItemSort@@PAH0@Z ; std::_Make_heap<ItemListInfoSort *,int,ItemListInfoSort,ShopExtraItemSort>
; Function compile flags: /Ogsp
; File c:\program files (x86)\microsoft visual studio 10.0\vc\include\algorithm
;	COMDAT ??$_Make_heap@PAUItemListInfoSort@@HU1@VShopExtraItemSort@@@std@@YAXPAUItemListInfoSort@@0VShopExtraItemSort@@PAH0@Z
_TEXT	SEGMENT
__Val$507468 = -24					; size = 20
__Bottom$ = -4						; size = 4
__First$ = 8						; size = 4
tv149 = 12						; size = 4
__Last$ = 12						; size = 4
__Pred$ = 16						; size = 1
___formal$ = 20						; size = 4
___formal$ = 24						; size = 4
??$_Make_heap@PAUItemListInfoSort@@HU1@VShopExtraItemSort@@@std@@YAXPAUItemListInfoSort@@0VShopExtraItemSort@@PAH0@Z PROC ; std::_Make_heap<ItemListInfoSort *,int,ItemListInfoSort,ShopExtraItemSort>, COMDAT

; 2658 : 	{	// make nontrivial [_First, _Last) into a heap, using _Pred

  00000	55		 push	 ebp
  00001	8b ec		 mov	 ebp, esp
  00003	83 ec 18	 sub	 esp, 24			; 00000018H

; 2659 : 	_Diff _Bottom = _Last - _First;

  00006	8b 45 0c	 mov	 eax, DWORD PTR __Last$[ebp]
  00009	2b 45 08	 sub	 eax, DWORD PTR __First$[ebp]
  0000c	53		 push	 ebx
  0000d	99		 cdq
  0000e	6a 14		 push	 20			; 00000014H
  00010	59		 pop	 ecx
  00011	f7 f9		 idiv	 ecx
  00013	89 45 fc	 mov	 DWORD PTR __Bottom$[ebp], eax

; 2660 : 	for (_Diff _Hole = _Bottom / 2; 0 < _Hole; )

  00016	99		 cdq
  00017	2b c2		 sub	 eax, edx
  00019	8b d8		 mov	 ebx, eax
  0001b	d1 fb		 sar	 ebx, 1
  0001d	85 db		 test	 ebx, ebx
  0001f	7e 3a		 jle	 SHORT $LN1@Make_heap

; 2659 : 	_Diff _Bottom = _Last - _First;

  00021	56		 push	 esi
  00022	8b f3		 mov	 esi, ebx
  00024	6b f6 14	 imul	 esi, 20			; 00000014H
  00027	03 75 08	 add	 esi, DWORD PTR __First$[ebp]
  0002a	57		 push	 edi
  0002b	eb 03		 jmp	 SHORT $LN2@Make_heap
$LL11@Make_heap:
  0002d	8b 75 0c	 mov	 esi, DWORD PTR tv149[ebp]
$LN2@Make_heap:

; 2661 : 		{	// reheap top half, bottom to top
; 2662 : 		--_Hole;
; 2663 : 		_Ty _Val = _Move(*(_First + _Hole));

  00030	6a 05		 push	 5
  00032	59		 pop	 ecx

; 2664 : 		_Adjust_heap(_First, _Hole, _Bottom,
; 2665 : 			_Move(_Val), _Pred);

  00033	ff 75 10	 push	 DWORD PTR __Pred$[ebp]
  00036	8d 45 e8	 lea	 eax, DWORD PTR __Val$507468[ebp]
  00039	50		 push	 eax
  0003a	ff 75 fc	 push	 DWORD PTR __Bottom$[ebp]
  0003d	4b		 dec	 ebx
  0003e	83 ee 14	 sub	 esi, 20			; 00000014H
  00041	53		 push	 ebx
  00042	ff 75 08	 push	 DWORD PTR __First$[ebp]
  00045	8d 7d e8	 lea	 edi, DWORD PTR __Val$507468[ebp]
  00048	89 75 0c	 mov	 DWORD PTR tv149[ebp], esi
  0004b	f3 a5		 rep movsd
  0004d	e8 00 00 00 00	 call	 ??$_Adjust_heap@PAUItemListInfoSort@@HU1@VShopExtraItemSort@@@std@@YAXPAUItemListInfoSort@@HH$$QAU1@VShopExtraItemSort@@@Z ; std::_Adjust_heap<ItemListInfoSort *,int,ItemListInfoSort,ShopExtraItemSort>
  00052	83 c4 14	 add	 esp, 20			; 00000014H
  00055	85 db		 test	 ebx, ebx
  00057	7f d4		 jg	 SHORT $LL11@Make_heap
  00059	5f		 pop	 edi
  0005a	5e		 pop	 esi
$LN1@Make_heap:
  0005b	5b		 pop	 ebx

; 2666 : 		}
; 2667 : 	}

  0005c	c9		 leave
  0005d	c3		 ret	 0
??$_Make_heap@PAUItemListInfoSort@@HU1@VShopExtraItemSort@@@std@@YAXPAUItemListInfoSort@@0VShopExtraItemSort@@PAH0@Z ENDP ; std::_Make_heap<ItemListInfoSort *,int,ItemListInfoSort,ShopExtraItemSort>
_TEXT	ENDS
PUBLIC	??$_Insertion_sort1@PAUItemListInfoSort@@VShopExtraItemSort@@U1@@std@@YAXPAUItemListInfoSort@@0VShopExtraItemSort@@0@Z ; std::_Insertion_sort1<ItemListInfoSort *,ShopExtraItemSort,ItemListInfoSort>
; Function compile flags: /Ogsp
;	COMDAT ??$_Insertion_sort1@PAUItemListInfoSort@@VShopExtraItemSort@@U1@@std@@YAXPAUItemListInfoSort@@0VShopExtraItemSort@@0@Z
_TEXT	SEGMENT
__Val$507503 = -24					; size = 20
__Next1$507502 = -4					; size = 4
__Cat$509081 = 8					; size = 1
__First$ = 8						; size = 4
__Last$ = 12						; size = 4
__Pred$ = 16						; size = 1
___formal$ = 20						; size = 4
??$_Insertion_sort1@PAUItemListInfoSort@@VShopExtraItemSort@@U1@@std@@YAXPAUItemListInfoSort@@0VShopExtraItemSort@@0@Z PROC ; std::_Insertion_sort1<ItemListInfoSort *,ShopExtraItemSort,ItemListInfoSort>, COMDAT

; 3650 : 	{	// insertion sort [_First, _Last), using _Pred

  00000	55		 push	 ebp
  00001	8b ec		 mov	 ebp, esp

; 3651 : 	if (_First != _Last)

  00003	8b 55 08	 mov	 edx, DWORD PTR __First$[ebp]
  00006	83 ec 18	 sub	 esp, 24			; 00000018H
  00009	3b 55 0c	 cmp	 edx, DWORD PTR __Last$[ebp]
  0000c	74 7c		 je	 SHORT $LN6@Insertion_

; 3652 : 		for (_BidIt _Next = _First; ++_Next != _Last; )

  0000e	53		 push	 ebx
  0000f	8d 5a 14	 lea	 ebx, DWORD PTR [edx+20]
  00012	3b 5d 0c	 cmp	 ebx, DWORD PTR __Last$[ebp]
  00015	74 72		 je	 SHORT $LN38@Insertion_
  00017	56		 push	 esi
  00018	57		 push	 edi
$LL7@Insertion_:

; 3653 : 			{	// order next element
; 3654 : 			_BidIt _Next1 = _Next;
; 3655 : 			_Ty _Val = _Move(*_Next);
; 3656 : 
; 3657 : 			if (_DEBUG_LT_PRED(_Pred, _Val, *_First))

  00019	8b 42 08	 mov	 eax, DWORD PTR [edx+8]
  0001c	6a 05		 push	 5
  0001e	59		 pop	 ecx
  0001f	8b f3		 mov	 esi, ebx
  00021	8d 7d e8	 lea	 edi, DWORD PTR __Val$507503[ebp]
  00024	f3 a5		 rep movsd
  00026	89 5d fc	 mov	 DWORD PTR __Next1$507502[ebp], ebx
  00029	39 45 f0	 cmp	 DWORD PTR __Val$507503[ebp+8], eax
  0002c	7f 09		 jg	 SHORT $LN35@Insertion_
  0002e	75 1f		 jne	 SHORT $LN37@Insertion_
  00030	8b 45 e8	 mov	 eax, DWORD PTR __Val$507503[ebp]
  00033	3b 02		 cmp	 eax, DWORD PTR [edx]
  00035	7e 18		 jle	 SHORT $LN37@Insertion_
$LN35@Insertion_:

; 3658 : 				{	// found new earliest element, move to front
; 3659 : 				_Move_backward(_First, _Next, ++_Next1);

  00037	ff 75 08	 push	 DWORD PTR __Cat$509081[ebp]
  0003a	8d 43 14	 lea	 eax, DWORD PTR [ebx+20]
  0003d	50		 push	 eax
  0003e	53		 push	 ebx
  0003f	52		 push	 edx
  00040	e8 00 00 00 00	 call	 ??$_Move_backward@PAUItemListInfoSort@@PAU1@@std@@YAPAUItemListInfoSort@@PAU1@00U_Nonscalar_ptr_iterator_tag@0@@Z ; std::_Move_backward<ItemListInfoSort *,ItemListInfoSort *>

; 3660 : 				*_First = _Move(_Val);

  00045	8b 7d 08	 mov	 edi, DWORD PTR __First$[ebp]
  00048	83 c4 10	 add	 esp, 16			; 00000010H

; 3661 : 				}
; 3662 : 			else

  0004b	8b d7		 mov	 edx, edi
  0004d	eb 28		 jmp	 SHORT $LN40@Insertion_
$LN37@Insertion_:

; 3663 : 				{	// look for insertion point after first
; 3664 : 				for (_BidIt _First1 = _Next1;

  0004f	8b c3		 mov	 eax, ebx
$LL3@Insertion_:

; 3665 : 					_DEBUG_LT_PRED(_Pred, _Val, *--_First1);
; 3666 : 					_Next1 = _First1)

  00051	8b 48 f4	 mov	 ecx, DWORD PTR [eax-12]
  00054	83 e8 14	 sub	 eax, 20			; 00000014H
  00057	39 4d f0	 cmp	 DWORD PTR __Val$507503[ebp+8], ecx
  0005a	7f 09		 jg	 SHORT $LN36@Insertion_
  0005c	75 16		 jne	 SHORT $LN24@Insertion_
  0005e	8b 4d e8	 mov	 ecx, DWORD PTR __Val$507503[ebp]
  00061	3b 08		 cmp	 ecx, DWORD PTR [eax]
  00063	7e 0f		 jle	 SHORT $LN24@Insertion_
$LN36@Insertion_:

; 3667 : 					*_Next1 = _Move(*_First1);	// move hole down

  00065	8b 7d fc	 mov	 edi, DWORD PTR __Next1$507502[ebp]
  00068	6a 05		 push	 5
  0006a	59		 pop	 ecx
  0006b	8b f0		 mov	 esi, eax
  0006d	f3 a5		 rep movsd
  0006f	89 45 fc	 mov	 DWORD PTR __Next1$507502[ebp], eax
  00072	eb dd		 jmp	 SHORT $LL3@Insertion_

; 3665 : 					_DEBUG_LT_PRED(_Pred, _Val, *--_First1);
; 3666 : 					_Next1 = _First1)

$LN24@Insertion_:

; 3668 : 				*_Next1 = _Move(_Val);	// insert element in hole

  00074	8b 7d fc	 mov	 edi, DWORD PTR __Next1$507502[ebp]
$LN40@Insertion_:
  00077	6a 05		 push	 5
  00079	83 c3 14	 add	 ebx, 20			; 00000014H
  0007c	59		 pop	 ecx
  0007d	8d 75 e8	 lea	 esi, DWORD PTR __Val$507503[ebp]
  00080	f3 a5		 rep movsd
  00082	3b 5d 0c	 cmp	 ebx, DWORD PTR __Last$[ebp]
  00085	75 92		 jne	 SHORT $LL7@Insertion_
  00087	5f		 pop	 edi
  00088	5e		 pop	 esi
$LN38@Insertion_:
  00089	5b		 pop	 ebx
$LN6@Insertion_:

; 3669 : 				}
; 3670 : 			}
; 3671 : 	}

  0008a	c9		 leave
  0008b	c3		 ret	 0
??$_Insertion_sort1@PAUItemListInfoSort@@VShopExtraItemSort@@U1@@std@@YAXPAUItemListInfoSort@@0VShopExtraItemSort@@0@Z ENDP ; std::_Insertion_sort1<ItemListInfoSort *,ShopExtraItemSort,ItemListInfoSort>
_TEXT	ENDS
PUBLIC	??$_Cons_val@V?$allocator@UItemListInfoSort@@@std@@UItemListInfoSort@@U3@@std@@YAXAAV?$allocator@UItemListInfoSort@@@0@PAUItemListInfoSort@@$$QAU2@@Z ; std::_Cons_val<std::allocator<ItemListInfoSort>,ItemListInfoSort,ItemListInfoSort>
; Function compile flags: /Ogsp
; File c:\program files (x86)\microsoft visual studio 10.0\vc\include\xmemory
;	COMDAT ??$_Cons_val@V?$allocator@UItemListInfoSort@@@std@@UItemListInfoSort@@U3@@std@@YAXAAV?$allocator@UItemListInfoSort@@@0@PAUItemListInfoSort@@$$QAU2@@Z
_TEXT	SEGMENT
__Alval$ = 8						; size = 4
__Pdest$ = 12						; size = 4
__Src$ = 16						; size = 4
??$_Cons_val@V?$allocator@UItemListInfoSort@@@std@@UItemListInfoSort@@U3@@std@@YAXAAV?$allocator@UItemListInfoSort@@@0@PAUItemListInfoSort@@$$QAU2@@Z PROC ; std::_Cons_val<std::allocator<ItemListInfoSort>,ItemListInfoSort,ItemListInfoSort>, COMDAT

; 279  : 	{	// construct using allocator

  00000	55		 push	 ebp
  00001	8b ec		 mov	 ebp, esp
  00003	57		 push	 edi

; 280  : 	_Alval.construct(_Pdest, _STD forward<_Ty2>(_Src));

  00004	8b 7d 0c	 mov	 edi, DWORD PTR __Pdest$[ebp]
  00007	85 ff		 test	 edi, edi
  00009	74 0a		 je	 SHORT $LN7@Cons_val@3
  0000b	56		 push	 esi
  0000c	8b 75 10	 mov	 esi, DWORD PTR __Src$[ebp]
  0000f	6a 05		 push	 5
  00011	59		 pop	 ecx
  00012	f3 a5		 rep movsd
  00014	5e		 pop	 esi
$LN7@Cons_val@3:
  00015	5f		 pop	 edi

; 281  : 	}

  00016	5d		 pop	 ebp
  00017	c3		 ret	 0
??$_Cons_val@V?$allocator@UItemListInfoSort@@@std@@UItemListInfoSort@@U3@@std@@YAXAAV?$allocator@UItemListInfoSort@@@0@PAUItemListInfoSort@@$$QAU2@@Z ENDP ; std::_Cons_val<std::allocator<ItemListInfoSort>,ItemListInfoSort,ItemListInfoSort>
_TEXT	ENDS
PUBLIC	??$_Med3@PAUItemListInfoSort@@VShopExtraItemSort@@@std@@YAXPAUItemListInfoSort@@00VShopExtraItemSort@@@Z ; std::_Med3<ItemListInfoSort *,ShopExtraItemSort>
; Function compile flags: /Ogsp
; File c:\program files (x86)\microsoft visual studio 10.0\vc\include\algorithm
;	COMDAT ??$_Med3@PAUItemListInfoSort@@VShopExtraItemSort@@@std@@YAXPAUItemListInfoSort@@00VShopExtraItemSort@@@Z
_TEXT	SEGMENT
__First$ = 8						; size = 4
__Mid$ = 12						; size = 4
__Last$ = 16						; size = 4
__Pred$ = 20						; size = 1
??$_Med3@PAUItemListInfoSort@@VShopExtraItemSort@@@std@@YAXPAUItemListInfoSort@@00VShopExtraItemSort@@@Z PROC ; std::_Med3<ItemListInfoSort *,ShopExtraItemSort>, COMDAT

; 3683 : 	{	// sort median of three elements to middle

  00000	55		 push	 ebp
  00001	8b ec		 mov	 ebp, esp
  00003	56		 push	 esi

; 3684 : 	if (_DEBUG_LT_PRED(_Pred, *_Mid, *_First))

  00004	8b 75 0c	 mov	 esi, DWORD PTR __Mid$[ebp]
  00007	8b 46 08	 mov	 eax, DWORD PTR [esi+8]
  0000a	57		 push	 edi
  0000b	8b 7d 08	 mov	 edi, DWORD PTR __First$[ebp]
  0000e	8b 4f 08	 mov	 ecx, DWORD PTR [edi+8]
  00011	3b c1		 cmp	 eax, ecx
  00013	7f 08		 jg	 SHORT $LN27@Med3
  00015	75 0f		 jne	 SHORT $LN11@Med3
  00017	8b 06		 mov	 eax, DWORD PTR [esi]
  00019	3b 07		 cmp	 eax, DWORD PTR [edi]
  0001b	7e 09		 jle	 SHORT $LN11@Med3
$LN27@Med3:

; 3685 : 		_STD iter_swap(_Mid, _First);

  0001d	57		 push	 edi
  0001e	56		 push	 esi
  0001f	e8 00 00 00 00	 call	 ??$swap@UItemListInfoSort@@@std@@YAXAAUItemListInfoSort@@0@Z ; std::swap<ItemListInfoSort>
  00024	59		 pop	 ecx
  00025	59		 pop	 ecx
$LN11@Med3:

; 3686 : 	if (_DEBUG_LT_PRED(_Pred, *_Last, *_Mid))

  00026	8b 45 10	 mov	 eax, DWORD PTR __Last$[ebp]
  00029	8b 48 08	 mov	 ecx, DWORD PTR [eax+8]
  0002c	8b 56 08	 mov	 edx, DWORD PTR [esi+8]
  0002f	3b ca		 cmp	 ecx, edx
  00031	7f 08		 jg	 SHORT $LN28@Med3
  00033	75 0f		 jne	 SHORT $LN18@Med3
  00035	8b 08		 mov	 ecx, DWORD PTR [eax]
  00037	3b 0e		 cmp	 ecx, DWORD PTR [esi]
  00039	7e 09		 jle	 SHORT $LN18@Med3
$LN28@Med3:

; 3687 : 		_STD iter_swap(_Last, _Mid);

  0003b	56		 push	 esi
  0003c	50		 push	 eax
  0003d	e8 00 00 00 00	 call	 ??$swap@UItemListInfoSort@@@std@@YAXAAUItemListInfoSort@@0@Z ; std::swap<ItemListInfoSort>
  00042	59		 pop	 ecx
  00043	59		 pop	 ecx
$LN18@Med3:

; 3688 : 	if (_DEBUG_LT_PRED(_Pred, *_Mid, *_First))

  00044	8b 46 08	 mov	 eax, DWORD PTR [esi+8]
  00047	8b 4f 08	 mov	 ecx, DWORD PTR [edi+8]
  0004a	3b c1		 cmp	 eax, ecx
  0004c	7f 08		 jg	 SHORT $LN29@Med3
  0004e	75 0f		 jne	 SHORT $LN25@Med3
  00050	8b 06		 mov	 eax, DWORD PTR [esi]
  00052	3b 07		 cmp	 eax, DWORD PTR [edi]
  00054	7e 09		 jle	 SHORT $LN25@Med3
$LN29@Med3:

; 3689 : 		_STD iter_swap(_Mid, _First);

  00056	57		 push	 edi
  00057	56		 push	 esi
  00058	e8 00 00 00 00	 call	 ??$swap@UItemListInfoSort@@@std@@YAXAAUItemListInfoSort@@0@Z ; std::swap<ItemListInfoSort>
  0005d	59		 pop	 ecx
  0005e	59		 pop	 ecx
$LN25@Med3:
  0005f	5f		 pop	 edi
  00060	5e		 pop	 esi

; 3690 : 	}

  00061	5d		 pop	 ebp
  00062	c3		 ret	 0
??$_Med3@PAUItemListInfoSort@@VShopExtraItemSort@@@std@@YAXPAUItemListInfoSort@@00VShopExtraItemSort@@@Z ENDP ; std::_Med3<ItemListInfoSort *,ShopExtraItemSort>
_TEXT	ENDS
PUBLIC	??$_Pop_heap_0@PAUItemListInfoSort@@U1@VShopExtraItemSort@@@std@@YAXPAUItemListInfoSort@@0VShopExtraItemSort@@0@Z ; std::_Pop_heap_0<ItemListInfoSort *,ItemListInfoSort,ShopExtraItemSort>
; Function compile flags: /Ogsp
;	COMDAT ??$_Pop_heap_0@PAUItemListInfoSort@@U1@VShopExtraItemSort@@@std@@YAXPAUItemListInfoSort@@0VShopExtraItemSort@@0@Z
_TEXT	SEGMENT
__Val$ = -20						; size = 20
__First$ = 8						; size = 4
__Last$ = 12						; size = 4
__Pred$ = 16						; size = 1
___formal$ = 20						; size = 4
??$_Pop_heap_0@PAUItemListInfoSort@@U1@VShopExtraItemSort@@@std@@YAXPAUItemListInfoSort@@0VShopExtraItemSort@@0@Z PROC ; std::_Pop_heap_0<ItemListInfoSort *,ItemListInfoSort,ShopExtraItemSort>, COMDAT

; 2601 : 	{	// pop *_First to *(_Last - 1) and reheap, using _Pred

  00000	55		 push	 ebp
  00001	8b ec		 mov	 ebp, esp

; 2602 : 	_Ty _Val = _Move(*(_Last - 1));

  00003	8b 45 0c	 mov	 eax, DWORD PTR __Last$[ebp]
  00006	83 ec 14	 sub	 esp, 20			; 00000014H
  00009	56		 push	 esi
  0000a	57		 push	 edi
  0000b	6a 05		 push	 5
  0000d	59		 pop	 ecx
  0000e	83 c0 ec	 add	 eax, -20		; ffffffecH

; 2603 : 	_Pop_heap(_First, _Last - 1, _Last - 1,
; 2604 : 		_Move(_Val), _Pred, _Dist_type(_First));

  00011	6a 00		 push	 0
  00013	ff 75 10	 push	 DWORD PTR __Pred$[ebp]
  00016	8b f0		 mov	 esi, eax
  00018	8d 7d ec	 lea	 edi, DWORD PTR __Val$[ebp]
  0001b	f3 a5		 rep movsd
  0001d	8d 4d ec	 lea	 ecx, DWORD PTR __Val$[ebp]
  00020	51		 push	 ecx
  00021	50		 push	 eax
  00022	50		 push	 eax
  00023	ff 75 08	 push	 DWORD PTR __First$[ebp]
  00026	e8 00 00 00 00	 call	 ??$_Pop_heap@PAUItemListInfoSort@@HU1@VShopExtraItemSort@@@std@@YAXPAUItemListInfoSort@@00$$QAU1@VShopExtraItemSort@@PAH@Z ; std::_Pop_heap<ItemListInfoSort *,int,ItemListInfoSort,ShopExtraItemSort>
  0002b	83 c4 18	 add	 esp, 24			; 00000018H
  0002e	5f		 pop	 edi
  0002f	5e		 pop	 esi

; 2605 : 	}

  00030	c9		 leave
  00031	c3		 ret	 0
??$_Pop_heap_0@PAUItemListInfoSort@@U1@VShopExtraItemSort@@@std@@YAXPAUItemListInfoSort@@0VShopExtraItemSort@@0@Z ENDP ; std::_Pop_heap_0<ItemListInfoSort *,ItemListInfoSort,ShopExtraItemSort>
_TEXT	ENDS
PUBLIC	?_Tidy@?$basic_string@DU?$char_traits@D@std@@V?$allocator@D@2@@std@@QAEX_NI@Z ; std::basic_string<char,std::char_traits<char>,std::allocator<char> >::_Tidy
; Function compile flags: /Ogsp
; File c:\program files (x86)\microsoft visual studio 10.0\vc\include\xstring
;	COMDAT ?_Tidy@?$basic_string@DU?$char_traits@D@std@@V?$allocator@D@2@@std@@QAEX_NI@Z
_TEXT	SEGMENT
__Built$ = 8						; size = 1
__Newsize$ = 12						; size = 4
?_Tidy@?$basic_string@DU?$char_traits@D@std@@V?$allocator@D@2@@std@@QAEX_NI@Z PROC ; std::basic_string<char,std::char_traits<char>,std::allocator<char> >::_Tidy, COMDAT
; _this$ = ecx

; 1988 : 		{	// initialize buffer, deallocating any storage

  00000	55		 push	 ebp
  00001	8b ec		 mov	 ebp, esp

; 1989 : 		if (!_Built)

  00003	80 7d 08 00	 cmp	 BYTE PTR __Built$[ebp], 0
  00007	56		 push	 esi
  00008	57		 push	 edi
  00009	8b 7d 0c	 mov	 edi, DWORD PTR __Newsize$[ebp]
  0000c	8b f1		 mov	 esi, ecx
  0000e	74 20		 je	 SHORT $LN9@Tidy

; 1990 : 			;
; 1991 : 		else if (this->_BUF_SIZE <= this->_Myres)

  00010	83 7e 14 10	 cmp	 DWORD PTR [esi+20], 16	; 00000010H
  00014	72 1a		 jb	 SHORT $LN9@Tidy

; 1992 : 			{	// copy any leftovers to small buffer and deallocate
; 1993 : 			_Elem *_Ptr = this->_Bx._Ptr;

  00016	53		 push	 ebx
  00017	8b 1e		 mov	 ebx, DWORD PTR [esi]

; 1994 : 			if (0 < _Newsize)

  00019	85 ff		 test	 edi, edi
  0001b	74 0b		 je	 SHORT $LN7@Tidy

; 1995 : 				_Traits::copy(this->_Bx._Buf, _Ptr, _Newsize);

  0001d	57		 push	 edi
  0001e	53		 push	 ebx
  0001f	56		 push	 esi
  00020	e8 00 00 00 00	 call	 _memcpy
  00025	83 c4 0c	 add	 esp, 12			; 0000000cH
$LN7@Tidy:

; 1996 : 			this->_Alval.deallocate(_Ptr, this->_Myres + 1);

  00028	53		 push	 ebx
  00029	e8 00 00 00 00	 call	 ??3@YAXPAX@Z		; operator delete
  0002e	59		 pop	 ecx
  0002f	5b		 pop	 ebx
$LN9@Tidy:

; 1997 : 			}
; 1998 : 		this->_Myres = this->_BUF_SIZE - 1;
; 1999 : 		_Eos(_Newsize);

  00030	89 7e 10	 mov	 DWORD PTR [esi+16], edi
  00033	c7 46 14 0f 00
	00 00		 mov	 DWORD PTR [esi+20], 15	; 0000000fH
  0003a	c6 04 37 00	 mov	 BYTE PTR [edi+esi], 0
  0003e	5f		 pop	 edi
  0003f	5e		 pop	 esi

; 2000 : 		}

  00040	5d		 pop	 ebp
  00041	c2 08 00	 ret	 8
?_Tidy@?$basic_string@DU?$char_traits@D@std@@V?$allocator@D@2@@std@@QAEX_NI@Z ENDP ; std::basic_string<char,std::char_traits<char>,std::allocator<char> >::_Tidy
_TEXT	ENDS
PUBLIC	?erase@?$basic_string@DU?$char_traits@D@std@@V?$allocator@D@2@@std@@QAEAAV12@II@Z ; std::basic_string<char,std::char_traits<char>,std::allocator<char> >::erase
; Function compile flags: /Ogsp
;	COMDAT ?erase@?$basic_string@DU?$char_traits@D@std@@V?$allocator@D@2@@std@@QAEAAV12@II@Z
_TEXT	SEGMENT
__Off$ = 8						; size = 4
__Count$ = 12						; size = 4
?erase@?$basic_string@DU?$char_traits@D@std@@V?$allocator@D@2@@std@@QAEAAV12@II@Z PROC ; std::basic_string<char,std::char_traits<char>,std::allocator<char> >::erase, COMDAT
; _this$ = ecx

; 1109 : 		{	// erase elements [_Off, _Off + _Count)

  00000	55		 push	 ebp
  00001	8b ec		 mov	 ebp, esp
  00003	53		 push	 ebx
  00004	56		 push	 esi
  00005	8b f1		 mov	 esi, ecx

; 1110 : 		if (this->_Mysize < _Off)

  00007	8b 46 10	 mov	 eax, DWORD PTR [esi+16]
  0000a	8b 4d 08	 mov	 ecx, DWORD PTR __Off$[ebp]
  0000d	3b c1		 cmp	 eax, ecx
  0000f	73 0b		 jae	 SHORT $LN3@erase

; 1111 : 			_Xran();	// _Off off end

  00011	68 00 00 00 00	 push	 OFFSET ??_C@_0BI@CFPLBAOH@invalid?5string?5position?$AA@
  00016	ff 15 00 00 00
	00		 call	 DWORD PTR __imp_?_Xout_of_range@std@@YAXPBD@Z
$LN28@erase:
$LN3@erase:

; 1112 : 		if (this->_Mysize - _Off < _Count)

  0001c	8b 5d 0c	 mov	 ebx, DWORD PTR __Count$[ebp]
  0001f	2b c1		 sub	 eax, ecx
  00021	3b c3		 cmp	 eax, ebx

; 1113 : 			_Count = this->_Mysize - _Off;	// trim _Count

  00023	0f 42 d8	 cmovb	 ebx, eax

; 1114 : 		if (0 < _Count)

  00026	85 db		 test	 ebx, ebx
  00028	74 47		 je	 SHORT $LN25@erase

; 1115 : 			{	// move elements down
; 1116 : 			_Traits::move(_Myptr() + _Off, _Myptr() + _Off + _Count,
; 1117 : 				this->_Mysize - _Off - _Count);

  0002a	8b 56 14	 mov	 edx, DWORD PTR [esi+20]
  0002d	57		 push	 edi
  0002e	83 fa 10	 cmp	 edx, 16			; 00000010H
  00031	72 04		 jb	 SHORT $LN11@erase
  00033	8b 3e		 mov	 edi, DWORD PTR [esi]
  00035	eb 02		 jmp	 SHORT $LN12@erase
$LN11@erase:
  00037	8b fe		 mov	 edi, esi
$LN12@erase:
  00039	83 fa 10	 cmp	 edx, 16			; 00000010H
  0003c	72 04		 jb	 SHORT $LN15@erase
  0003e	8b 16		 mov	 edx, DWORD PTR [esi]
  00040	eb 02		 jmp	 SHORT $LN16@erase
$LN15@erase:
  00042	8b d6		 mov	 edx, esi
$LN16@erase:
  00044	2b c3		 sub	 eax, ebx
  00046	03 f9		 add	 edi, ecx
  00048	50		 push	 eax
  00049	03 fb		 add	 edi, ebx
  0004b	03 d1		 add	 edx, ecx
  0004d	57		 push	 edi
  0004e	52		 push	 edx
  0004f	ff 15 00 00 00
	00		 call	 DWORD PTR __imp__memmove

; 1118 : 			size_type _Newsize = this->_Mysize - _Count;

  00055	8b 46 10	 mov	 eax, DWORD PTR [esi+16]
  00058	83 c4 0c	 add	 esp, 12			; 0000000cH
  0005b	2b c3		 sub	 eax, ebx

; 1119 : 			_Eos(_Newsize);

  0005d	83 7e 14 10	 cmp	 DWORD PTR [esi+20], 16	; 00000010H
  00061	89 46 10	 mov	 DWORD PTR [esi+16], eax
  00064	5f		 pop	 edi
  00065	72 04		 jb	 SHORT $LN23@erase
  00067	8b 0e		 mov	 ecx, DWORD PTR [esi]
  00069	eb 02		 jmp	 SHORT $LN24@erase
$LN23@erase:
  0006b	8b ce		 mov	 ecx, esi
$LN24@erase:
  0006d	c6 04 01 00	 mov	 BYTE PTR [ecx+eax], 0
$LN25@erase:

; 1120 : 			}
; 1121 : 		return (*this);

  00071	8b c6		 mov	 eax, esi
  00073	5e		 pop	 esi
  00074	5b		 pop	 ebx

; 1122 : 		}

  00075	5d		 pop	 ebp
  00076	c2 08 00	 ret	 8
$LN27@erase:
?erase@?$basic_string@DU?$char_traits@D@std@@V?$allocator@D@2@@std@@QAEAAV12@II@Z ENDP ; std::basic_string<char,std::char_traits<char>,std::allocator<char> >::erase
_TEXT	ENDS
PUBLIC	?_Copy@?$basic_string@DU?$char_traits@D@std@@V?$allocator@D@2@@std@@QAEXII@Z ; std::basic_string<char,std::char_traits<char>,std::allocator<char> >::_Copy
EXTRN	__EH_prolog3_catch:PROC
;	COMDAT xdata$x
; File c:\program files (x86)\microsoft visual studio 10.0\vc\include\iosfwd
xdata$x	SEGMENT
__catchsym$?_Copy@?$basic_string@DU?$char_traits@D@std@@V?$allocator@D@2@@std@@QAEXII@Z$5 DD 040H
	DD	00H
	DD	00H
	DD	FLAT:__catch$?_Copy@?$basic_string@DU?$char_traits@D@std@@V?$allocator@D@2@@std@@QAEXII@Z$0
__catchsym$?_Copy@?$basic_string@DU?$char_traits@D@std@@V?$allocator@D@2@@std@@QAEXII@Z$4 DD 040H
	DD	00H
	DD	00H
	DD	FLAT:__catch$?_Copy@?$basic_string@DU?$char_traits@D@std@@V?$allocator@D@2@@std@@QAEXII@Z$1
__unwindtable$?_Copy@?$basic_string@DU?$char_traits@D@std@@V?$allocator@D@2@@std@@QAEXII@Z DD 0ffffffffH
	DD	00H
	DD	0ffffffffH
	DD	00H
	DD	01H
	DD	00H
	DD	01H
	DD	00H
__ehfuncinfo$?_Copy@?$basic_string@DU?$char_traits@D@std@@V?$allocator@D@2@@std@@QAEXII@Z DD 019930522H
	DD	04H
	DD	FLAT:__unwindtable$?_Copy@?$basic_string@DU?$char_traits@D@std@@V?$allocator@D@2@@std@@QAEXII@Z
	DD	02H
	DD	FLAT:__tryblocktable$?_Copy@?$basic_string@DU?$char_traits@D@std@@V?$allocator@D@2@@std@@QAEXII@Z
	DD	2 DUP(00H)
	DD	00H
	DD	01H
__tryblocktable$?_Copy@?$basic_string@DU?$char_traits@D@std@@V?$allocator@D@2@@std@@QAEXII@Z DD 02H
	DD	02H
	DD	03H
	DD	01H
	DD	FLAT:__catchsym$?_Copy@?$basic_string@DU?$char_traits@D@std@@V?$allocator@D@2@@std@@QAEXII@Z$4
	DD	00H
	DD	00H
	DD	03H
	DD	01H
	DD	FLAT:__catchsym$?_Copy@?$basic_string@DU?$char_traits@D@std@@V?$allocator@D@2@@std@@QAEXII@Z$5
; Function compile flags: /Ogsp
; File c:\program files (x86)\microsoft visual studio 10.0\vc\include\xstring
xdata$x	ENDS
;	COMDAT ?_Copy@?$basic_string@DU?$char_traits@D@std@@V?$allocator@D@2@@std@@QAEXII@Z
_TEXT	SEGMENT
_this$ = -24						; size = 4
tv296 = -20						; size = 4
__Newres$ = -20						; size = 4
__$EHRec$ = -16						; size = 16
__Ptr$ = 8						; size = 4
__Newsize$ = 8						; size = 4
__Oldlen$ = 12						; size = 4
?_Copy@?$basic_string@DU?$char_traits@D@std@@V?$allocator@D@2@@std@@QAEXII@Z PROC ; std::basic_string<char,std::char_traits<char>,std::allocator<char> >::_Copy, COMDAT
; _this$ = ecx

; 1919 : 		{	// copy _Oldlen elements to newly allocated buffer

  00000	6a 0c		 push	 12			; 0000000cH
  00002	b8 00 00 00 00	 mov	 eax, __ehhandler$?_Copy@?$basic_string@DU?$char_traits@D@std@@V?$allocator@D@2@@std@@QAEXII@Z
  00007	e8 00 00 00 00	 call	 __EH_prolog3_catch
  0000c	8b f1		 mov	 esi, ecx
  0000e	89 75 e8	 mov	 DWORD PTR _this$[ebp], esi

; 1920 : 		size_type _Newres = _Newsize | this->_ALLOC_MASK;

  00011	8b 7d 08	 mov	 edi, DWORD PTR __Newsize$[ebp]
  00014	83 cf 0f	 or	 edi, 15			; 0000000fH

; 1921 : 		if (max_size() < _Newres)

  00017	83 ff fe	 cmp	 edi, -2			; fffffffeH
  0001a	76 05		 jbe	 SHORT $LN9@Copy

; 1922 : 			_Newres = _Newsize;	// undo roundup if too big

  0001c	8b 7d 08	 mov	 edi, DWORD PTR __Newsize$[ebp]
  0001f	eb 27		 jmp	 SHORT $LN5@Copy
$LN9@Copy:

; 1923 : 		else if (this->_Myres / 2 <= _Newres / 3)

  00021	33 d2		 xor	 edx, edx
  00023	6a 03		 push	 3
  00025	8b c7		 mov	 eax, edi
  00027	5b		 pop	 ebx
  00028	f7 f3		 div	 ebx
  0002a	8b 4e 14	 mov	 ecx, DWORD PTR [esi+20]
  0002d	89 4d ec	 mov	 DWORD PTR tv296[ebp], ecx
  00030	d1 6d ec	 shr	 DWORD PTR tv296[ebp], 1
  00033	8b 55 ec	 mov	 edx, DWORD PTR tv296[ebp]
  00036	3b d0		 cmp	 edx, eax
  00038	76 0e		 jbe	 SHORT $LN5@Copy

; 1924 : 			;
; 1925 : 		else if (this->_Myres <= max_size() - this->_Myres / 2)

  0003a	6a fe		 push	 -2			; fffffffeH
  0003c	5f		 pop	 edi
  0003d	8b c7		 mov	 eax, edi
  0003f	2b c2		 sub	 eax, edx
  00041	3b c8		 cmp	 ecx, eax
  00043	77 03		 ja	 SHORT $LN5@Copy

; 1926 : 			_Newres = this->_Myres
; 1927 : 				+ this->_Myres / 2;	// grow exponentially if possible

  00045	8d 3c 0a	 lea	 edi, DWORD PTR [edx+ecx]
$LN5@Copy:

; 1928 : 		else
; 1929 : 			_Newres = max_size();	// settle for max_size()
; 1930 : 
; 1931 : 		_Elem *_Ptr;
; 1932 : 		_TRY_BEGIN

  00048	83 65 fc 00	 and	 DWORD PTR __$EHRec$[ebp+12], 0

; 1933 : 			_Ptr = this->_Alval.allocate(_Newres + 1);

  0004c	8d 47 01	 lea	 eax, DWORD PTR [edi+1]
  0004f	6a 00		 push	 0
  00051	50		 push	 eax
  00052	e8 00 00 00 00	 call	 ??$_Allocate@D@std@@YAPADIPAD@Z ; std::_Allocate<char>
  00057	59		 pop	 ecx
  00058	59		 pop	 ecx
  00059	89 45 08	 mov	 DWORD PTR __Ptr$[ebp], eax
  0005c	eb 27		 jmp	 SHORT $LN19@Copy
__catch$?_Copy@?$basic_string@DU?$char_traits@D@std@@V?$allocator@D@2@@std@@QAEXII@Z$0:

; 1934 : 		_CATCH_ALL
; 1935 : 			_Newres = _Newsize;	// allocation failed, undo roundup and retry

  0005e	8b 45 08	 mov	 eax, DWORD PTR __Newsize$[ebp]
  00061	89 65 f0	 mov	 DWORD PTR __$EHRec$[ebp], esp
  00064	89 45 ec	 mov	 DWORD PTR __Newres$[ebp], eax

; 1936 : 			_TRY_BEGIN
; 1937 : 				_Ptr = this->_Alval.allocate(_Newres + 1);

  00067	40		 inc	 eax
  00068	6a 00		 push	 0
  0006a	50		 push	 eax
  0006b	c6 45 fc 02	 mov	 BYTE PTR __$EHRec$[ebp+12], 2
  0006f	e8 00 00 00 00	 call	 ??$_Allocate@D@std@@YAPADIPAD@Z ; std::_Allocate<char>
  00074	59		 pop	 ecx
  00075	89 45 08	 mov	 DWORD PTR __Ptr$[ebp], eax
  00078	59		 pop	 ecx

; 1941 : 			_CATCH_END
; 1942 : 		_CATCH_END

  00079	b8 00 00 00 00	 mov	 eax, $LN63@Copy
  0007e	c3		 ret	 0
$LN63@Copy:
  0007f	8b 75 e8	 mov	 esi, DWORD PTR _this$[ebp]
  00082	8b 7d ec	 mov	 edi, DWORD PTR __Newres$[ebp]
$LN19@Copy:

; 1943 : 
; 1944 : 		if (0 < _Oldlen)

  00085	8b 5d 0c	 mov	 ebx, DWORD PTR __Oldlen$[ebp]
  00088	85 db		 test	 ebx, ebx
  0008a	74 19		 je	 SHORT $LN52@Copy

; 1945 : 			_Traits::copy(_Ptr, _Myptr(), _Oldlen);	// copy existing elements

  0008c	83 7e 14 10	 cmp	 DWORD PTR [esi+20], 16	; 00000010H
  00090	72 04		 jb	 SHORT $LN50@Copy
  00092	8b 06		 mov	 eax, DWORD PTR [esi]
  00094	eb 02		 jmp	 SHORT $LN51@Copy
$LN50@Copy:
  00096	8b c6		 mov	 eax, esi
$LN51@Copy:
  00098	53		 push	 ebx
  00099	50		 push	 eax
  0009a	ff 75 08	 push	 DWORD PTR __Ptr$[ebp]
  0009d	e8 00 00 00 00	 call	 _memcpy
  000a2	83 c4 0c	 add	 esp, 12			; 0000000cH
$LN52@Copy:

; 1946 : 		_Tidy(true);

  000a5	6a 00		 push	 0
  000a7	6a 01		 push	 1
  000a9	8b ce		 mov	 ecx, esi
  000ab	e8 00 00 00 00	 call	 ?_Tidy@?$basic_string@DU?$char_traits@D@std@@V?$allocator@D@2@@std@@QAEX_NI@Z ; std::basic_string<char,std::char_traits<char>,std::allocator<char> >::_Tidy

; 1947 : 		this->_Bx._Ptr = _Ptr;

  000b0	8b 45 08	 mov	 eax, DWORD PTR __Ptr$[ebp]
  000b3	89 06		 mov	 DWORD PTR [esi], eax

; 1948 : 		this->_Myres = _Newres;
; 1949 : 		_Eos(_Oldlen);

  000b5	83 ff 10	 cmp	 edi, 16			; 00000010H
  000b8	89 7e 14	 mov	 DWORD PTR [esi+20], edi
  000bb	89 5e 10	 mov	 DWORD PTR [esi+16], ebx
  000be	0f 42 c6	 cmovb	 eax, esi
  000c1	c6 04 18 00	 mov	 BYTE PTR [eax+ebx], 0

; 1950 : 		}

  000c5	e8 00 00 00 00	 call	 __EH_epilog3
  000ca	c2 08 00	 ret	 8
__catch$?_Copy@?$basic_string@DU?$char_traits@D@std@@V?$allocator@D@2@@std@@QAEXII@Z$1:

; 1938 : 			_CATCH_ALL
; 1939 : 			_Tidy(true);	// failed again, discard storage and reraise

  000cd	8b 4d e8	 mov	 ecx, DWORD PTR _this$[ebp]
  000d0	33 f6		 xor	 esi, esi
  000d2	56		 push	 esi
  000d3	6a 01		 push	 1
  000d5	e8 00 00 00 00	 call	 ?_Tidy@?$basic_string@DU?$char_traits@D@std@@V?$allocator@D@2@@std@@QAEX_NI@Z ; std::basic_string<char,std::char_traits<char>,std::allocator<char> >::_Tidy

; 1940 : 			_RERAISE;

  000da	56		 push	 esi
  000db	56		 push	 esi
  000dc	e8 00 00 00 00	 call	 __CxxThrowException@8
$LN67@Copy:
$LN66@Copy:
  000e1	cc		 int	 3
_TEXT	ENDS
;	COMDAT text$x
text$x	SEGMENT
__ehhandler$?_Copy@?$basic_string@DU?$char_traits@D@std@@V?$allocator@D@2@@std@@QAEXII@Z:
  00000	8b 54 24 08	 mov	 edx, DWORD PTR [esp+8]
  00004	8d 42 0c	 lea	 eax, DWORD PTR [edx+12]
  00007	8b 4a e4	 mov	 ecx, DWORD PTR [edx-28]
  0000a	33 c8		 xor	 ecx, eax
  0000c	e8 00 00 00 00	 call	 @__security_check_cookie@4
  00011	b8 00 00 00 00	 mov	 eax, OFFSET __ehfuncinfo$?_Copy@?$basic_string@DU?$char_traits@D@std@@V?$allocator@D@2@@std@@QAEXII@Z
  00016	e9 00 00 00 00	 jmp	 ___CxxFrameHandler3
text$x	ENDS
?_Copy@?$basic_string@DU?$char_traits@D@std@@V?$allocator@D@2@@std@@QAEXII@Z ENDP ; std::basic_string<char,std::char_traits<char>,std::allocator<char> >::_Copy
PUBLIC	?begin@?$vector@UItemListInfoSort@@V?$allocator@UItemListInfoSort@@@std@@@std@@QAE?AV?$_Vector_iterator@V?$_Vector_val@UItemListInfoSort@@V?$allocator@UItemListInfoSort@@@std@@@std@@@2@XZ ; std::vector<ItemListInfoSort,std::allocator<ItemListInfoSort> >::begin
; Function compile flags: /Ogsp
; File c:\program files (x86)\microsoft visual studio 10.0\vc\include\vector
;	COMDAT ?begin@?$vector@UItemListInfoSort@@V?$allocator@UItemListInfoSort@@@std@@@std@@QAE?AV?$_Vector_iterator@V?$_Vector_val@UItemListInfoSort@@V?$allocator@UItemListInfoSort@@@std@@@std@@@2@XZ
_TEXT	SEGMENT
___$ReturnUdt$ = 8					; size = 4
?begin@?$vector@UItemListInfoSort@@V?$allocator@UItemListInfoSort@@@std@@@std@@QAE?AV?$_Vector_iterator@V?$_Vector_val@UItemListInfoSort@@V?$allocator@UItemListInfoSort@@@std@@@std@@@2@XZ PROC ; std::vector<ItemListInfoSort,std::allocator<ItemListInfoSort> >::begin, COMDAT
; _this$ = ecx

; 781  : 		{	// return iterator for beginning of mutable sequence

  00000	55		 push	 ebp
  00001	8b ec		 mov	 ebp, esp

; 782  : 		return (iterator(this->_Myfirst, this));

  00003	8b 09		 mov	 ecx, DWORD PTR [ecx]
  00005	8b 45 08	 mov	 eax, DWORD PTR ___$ReturnUdt$[ebp]
  00008	89 08		 mov	 DWORD PTR [eax], ecx

; 783  : 		}

  0000a	5d		 pop	 ebp
  0000b	c2 04 00	 ret	 4
?begin@?$vector@UItemListInfoSort@@V?$allocator@UItemListInfoSort@@@std@@@std@@QAE?AV?$_Vector_iterator@V?$_Vector_val@UItemListInfoSort@@V?$allocator@UItemListInfoSort@@@std@@@std@@@2@XZ ENDP ; std::vector<ItemListInfoSort,std::allocator<ItemListInfoSort> >::begin
_TEXT	ENDS
PUBLIC	?end@?$vector@UItemListInfoSort@@V?$allocator@UItemListInfoSort@@@std@@@std@@QAE?AV?$_Vector_iterator@V?$_Vector_val@UItemListInfoSort@@V?$allocator@UItemListInfoSort@@@std@@@std@@@2@XZ ; std::vector<ItemListInfoSort,std::allocator<ItemListInfoSort> >::end
; Function compile flags: /Ogsp
;	COMDAT ?end@?$vector@UItemListInfoSort@@V?$allocator@UItemListInfoSort@@@std@@@std@@QAE?AV?$_Vector_iterator@V?$_Vector_val@UItemListInfoSort@@V?$allocator@UItemListInfoSort@@@std@@@std@@@2@XZ
_TEXT	SEGMENT
___$ReturnUdt$ = 8					; size = 4
?end@?$vector@UItemListInfoSort@@V?$allocator@UItemListInfoSort@@@std@@@std@@QAE?AV?$_Vector_iterator@V?$_Vector_val@UItemListInfoSort@@V?$allocator@UItemListInfoSort@@@std@@@std@@@2@XZ PROC ; std::vector<ItemListInfoSort,std::allocator<ItemListInfoSort> >::end, COMDAT
; _this$ = ecx

; 791  : 		{	// return iterator for end of mutable sequence

  00000	55		 push	 ebp
  00001	8b ec		 mov	 ebp, esp

; 792  : 		return (iterator(this->_Mylast, this));

  00003	8b 49 04	 mov	 ecx, DWORD PTR [ecx+4]
  00006	8b 45 08	 mov	 eax, DWORD PTR ___$ReturnUdt$[ebp]
  00009	89 08		 mov	 DWORD PTR [eax], ecx

; 793  : 		}

  0000b	5d		 pop	 ebp
  0000c	c2 04 00	 ret	 4
?end@?$vector@UItemListInfoSort@@V?$allocator@UItemListInfoSort@@@std@@@std@@QAE?AV?$_Vector_iterator@V?$_Vector_val@UItemListInfoSort@@V?$allocator@UItemListInfoSort@@@std@@@std@@@2@XZ ENDP ; std::vector<ItemListInfoSort,std::allocator<ItemListInfoSort> >::end
_TEXT	ENDS
PUBLIC	?begin@?$vector@V?$basic_string@DU?$char_traits@D@std@@V?$allocator@D@2@@std@@V?$allocator@V?$basic_string@DU?$char_traits@D@std@@V?$allocator@D@2@@std@@@2@@std@@QAE?AV?$_Vector_iterator@V?$_Vector_val@V?$basic_string@DU?$char_traits@D@std@@V?$allocator@D@2@@std@@V?$allocator@V?$basic_string@DU?$char_traits@D@std@@V?$allocator@D@2@@std@@@2@@std@@@2@XZ ; std::vector<std::basic_string<char,std::char_traits<char>,std::allocator<char> >,std::allocator<std::basic_string<char,std::char_traits<char>,std::allocator<char> > > >::begin
; Function compile flags: /Ogsp
;	COMDAT ?begin@?$vector@V?$basic_string@DU?$char_traits@D@std@@V?$allocator@D@2@@std@@V?$allocator@V?$basic_string@DU?$char_traits@D@std@@V?$allocator@D@2@@std@@@2@@std@@QAE?AV?$_Vector_iterator@V?$_Vector_val@V?$basic_string@DU?$char_traits@D@std@@V?$allocator@D@2@@std@@V?$allocator@V?$basic_string@DU?$char_traits@D@std@@V?$allocator@D@2@@std@@@2@@std@@@2@XZ
_TEXT	SEGMENT
___$ReturnUdt$ = 8					; size = 4
?begin@?$vector@V?$basic_string@DU?$char_traits@D@std@@V?$allocator@D@2@@std@@V?$allocator@V?$basic_string@DU?$char_traits@D@std@@V?$allocator@D@2@@std@@@2@@std@@QAE?AV?$_Vector_iterator@V?$_Vector_val@V?$basic_string@DU?$char_traits@D@std@@V?$allocator@D@2@@std@@V?$allocator@V?$basic_string@DU?$char_traits@D@std@@V?$allocator@D@2@@std@@@2@@std@@@2@XZ PROC ; std::vector<std::basic_string<char,std::char_traits<char>,std::allocator<char> >,std::allocator<std::basic_string<char,std::char_traits<char>,std::allocator<char> > > >::begin, COMDAT
; _this$ = ecx

; 781  : 		{	// return iterator for beginning of mutable sequence

  00000	55		 push	 ebp
  00001	8b ec		 mov	 ebp, esp

; 782  : 		return (iterator(this->_Myfirst, this));

  00003	8b 09		 mov	 ecx, DWORD PTR [ecx]
  00005	8b 45 08	 mov	 eax, DWORD PTR ___$ReturnUdt$[ebp]
  00008	89 08		 mov	 DWORD PTR [eax], ecx

; 783  : 		}

  0000a	5d		 pop	 ebp
  0000b	c2 04 00	 ret	 4
?begin@?$vector@V?$basic_string@DU?$char_traits@D@std@@V?$allocator@D@2@@std@@V?$allocator@V?$basic_string@DU?$char_traits@D@std@@V?$allocator@D@2@@std@@@2@@std@@QAE?AV?$_Vector_iterator@V?$_Vector_val@V?$basic_string@DU?$char_traits@D@std@@V?$allocator@D@2@@std@@V?$allocator@V?$basic_string@DU?$char_traits@D@std@@V?$allocator@D@2@@std@@@2@@std@@@2@XZ ENDP ; std::vector<std::basic_string<char,std::char_traits<char>,std::allocator<char> >,std::allocator<std::basic_string<char,std::char_traits<char>,std::allocator<char> > > >::begin
_TEXT	ENDS
PUBLIC	?end@?$vector@V?$basic_string@DU?$char_traits@D@std@@V?$allocator@D@2@@std@@V?$allocator@V?$basic_string@DU?$char_traits@D@std@@V?$allocator@D@2@@std@@@2@@std@@QAE?AV?$_Vector_iterator@V?$_Vector_val@V?$basic_string@DU?$char_traits@D@std@@V?$allocator@D@2@@std@@V?$allocator@V?$basic_string@DU?$char_traits@D@std@@V?$allocator@D@2@@std@@@2@@std@@@2@XZ ; std::vector<std::basic_string<char,std::char_traits<char>,std::allocator<char> >,std::allocator<std::basic_string<char,std::char_traits<char>,std::allocator<char> > > >::end
; Function compile flags: /Ogsp
;	COMDAT ?end@?$vector@V?$basic_string@DU?$char_traits@D@std@@V?$allocator@D@2@@std@@V?$allocator@V?$basic_string@DU?$char_traits@D@std@@V?$allocator@D@2@@std@@@2@@std@@QAE?AV?$_Vector_iterator@V?$_Vector_val@V?$basic_string@DU?$char_traits@D@std@@V?$allocator@D@2@@std@@V?$allocator@V?$basic_string@DU?$char_traits@D@std@@V?$allocator@D@2@@std@@@2@@std@@@2@XZ
_TEXT	SEGMENT
___$ReturnUdt$ = 8					; size = 4
?end@?$vector@V?$basic_string@DU?$char_traits@D@std@@V?$allocator@D@2@@std@@V?$allocator@V?$basic_string@DU?$char_traits@D@std@@V?$allocator@D@2@@std@@@2@@std@@QAE?AV?$_Vector_iterator@V?$_Vector_val@V?$basic_string@DU?$char_traits@D@std@@V?$allocator@D@2@@std@@V?$allocator@V?$basic_string@DU?$char_traits@D@std@@V?$allocator@D@2@@std@@@2@@std@@@2@XZ PROC ; std::vector<std::basic_string<char,std::char_traits<char>,std::allocator<char> >,std::allocator<std::basic_string<char,std::char_traits<char>,std::allocator<char> > > >::end, COMDAT
; _this$ = ecx

; 791  : 		{	// return iterator for end of mutable sequence

  00000	55		 push	 ebp
  00001	8b ec		 mov	 ebp, esp

; 792  : 		return (iterator(this->_Mylast, this));

  00003	8b 49 04	 mov	 ecx, DWORD PTR [ecx+4]
  00006	8b 45 08	 mov	 eax, DWORD PTR ___$ReturnUdt$[ebp]
  00009	89 08		 mov	 DWORD PTR [eax], ecx

; 793  : 		}

  0000b	5d		 pop	 ebp
  0000c	c2 04 00	 ret	 4
?end@?$vector@V?$basic_string@DU?$char_traits@D@std@@V?$allocator@D@2@@std@@V?$allocator@V?$basic_string@DU?$char_traits@D@std@@V?$allocator@D@2@@std@@@2@@std@@QAE?AV?$_Vector_iterator@V?$_Vector_val@V?$basic_string@DU?$char_traits@D@std@@V?$allocator@D@2@@std@@V?$allocator@V?$basic_string@DU?$char_traits@D@std@@V?$allocator@D@2@@std@@@2@@std@@@2@XZ ENDP ; std::vector<std::basic_string<char,std::char_traits<char>,std::allocator<char> >,std::allocator<std::basic_string<char,std::char_traits<char>,std::allocator<char> > > >::end
_TEXT	ENDS
PUBLIC	?_Make_iter@?$vector@V?$basic_string@DU?$char_traits@D@std@@V?$allocator@D@2@@std@@V?$allocator@V?$basic_string@DU?$char_traits@D@std@@V?$allocator@D@2@@std@@@2@@std@@QBE?AV?$_Vector_iterator@V?$_Vector_val@V?$basic_string@DU?$char_traits@D@std@@V?$allocator@D@2@@std@@V?$allocator@V?$basic_string@DU?$char_traits@D@std@@V?$allocator@D@2@@std@@@2@@std@@@2@V?$_Vector_const_iterator@V?$_Vector_val@V?$basic_string@DU?$char_traits@D@std@@V?$allocator@D@2@@std@@V?$allocator@V?$basic_string@DU?$char_traits@D@std@@V?$allocator@D@2@@std@@@2@@std@@@2@@Z ; std::vector<std::basic_string<char,std::char_traits<char>,std::allocator<char> >,std::allocator<std::basic_string<char,std::char_traits<char>,std::allocator<char> > > >::_Make_iter
; Function compile flags: /Ogsp
;	COMDAT ?_Make_iter@?$vector@V?$basic_string@DU?$char_traits@D@std@@V?$allocator@D@2@@std@@V?$allocator@V?$basic_string@DU?$char_traits@D@std@@V?$allocator@D@2@@std@@@2@@std@@QBE?AV?$_Vector_iterator@V?$_Vector_val@V?$basic_string@DU?$char_traits@D@std@@V?$allocator@D@2@@std@@V?$allocator@V?$basic_string@DU?$char_traits@D@std@@V?$allocator@D@2@@std@@@2@@std@@@2@V?$_Vector_const_iterator@V?$_Vector_val@V?$basic_string@DU?$char_traits@D@std@@V?$allocator@D@2@@std@@V?$allocator@V?$basic_string@DU?$char_traits@D@std@@V?$allocator@D@2@@std@@@2@@std@@@2@@Z
_TEXT	SEGMENT
___$ReturnUdt$ = 8					; size = 4
__Where$ = 12						; size = 4
?_Make_iter@?$vector@V?$basic_string@DU?$char_traits@D@std@@V?$allocator@D@2@@std@@V?$allocator@V?$basic_string@DU?$char_traits@D@std@@V?$allocator@D@2@@std@@@2@@std@@QBE?AV?$_Vector_iterator@V?$_Vector_val@V?$basic_string@DU?$char_traits@D@std@@V?$allocator@D@2@@std@@V?$allocator@V?$basic_string@DU?$char_traits@D@std@@V?$allocator@D@2@@std@@@2@@std@@@2@V?$_Vector_const_iterator@V?$_Vector_val@V?$basic_string@DU?$char_traits@D@std@@V?$allocator@D@2@@std@@V?$allocator@V?$basic_string@DU?$char_traits@D@std@@V?$allocator@D@2@@std@@@2@@std@@@2@@Z PROC ; std::vector<std::basic_string<char,std::char_traits<char>,std::allocator<char> >,std::allocator<std::basic_string<char,std::char_traits<char>,std::allocator<char> > > >::_Make_iter, COMDAT
; _this$ = ecx

; 801  : 		{	// make iterator from const_iterator

  00000	55		 push	 ebp
  00001	8b ec		 mov	 ebp, esp

; 802  : 		return (iterator(_Where._Ptr, this));

  00003	8b 45 08	 mov	 eax, DWORD PTR ___$ReturnUdt$[ebp]
  00006	8b 4d 0c	 mov	 ecx, DWORD PTR __Where$[ebp]
  00009	89 08		 mov	 DWORD PTR [eax], ecx

; 803  : 		}

  0000b	5d		 pop	 ebp
  0000c	c2 08 00	 ret	 8
?_Make_iter@?$vector@V?$basic_string@DU?$char_traits@D@std@@V?$allocator@D@2@@std@@V?$allocator@V?$basic_string@DU?$char_traits@D@std@@V?$allocator@D@2@@std@@@2@@std@@QBE?AV?$_Vector_iterator@V?$_Vector_val@V?$basic_string@DU?$char_traits@D@std@@V?$allocator@D@2@@std@@V?$allocator@V?$basic_string@DU?$char_traits@D@std@@V?$allocator@D@2@@std@@@2@@std@@@2@V?$_Vector_const_iterator@V?$_Vector_val@V?$basic_string@DU?$char_traits@D@std@@V?$allocator@D@2@@std@@V?$allocator@V?$basic_string@DU?$char_traits@D@std@@V?$allocator@D@2@@std@@@2@@std@@@2@@Z ENDP ; std::vector<std::basic_string<char,std::char_traits<char>,std::allocator<char> >,std::allocator<std::basic_string<char,std::char_traits<char>,std::allocator<char> > > >::_Make_iter
_TEXT	ENDS
PUBLIC	??$_Destroy_range@V?$allocator@UItemListInfoSort@@@std@@@std@@YAXPAUItemListInfoSort@@0AAV?$allocator@UItemListInfoSort@@@0@U_Nonscalar_ptr_iterator_tag@0@@Z ; std::_Destroy_range<std::allocator<ItemListInfoSort> >
; Function compile flags: /Ogsp
; File c:\program files (x86)\microsoft visual studio 10.0\vc\include\xmemory
;	COMDAT ??$_Destroy_range@V?$allocator@UItemListInfoSort@@@std@@@std@@YAXPAUItemListInfoSort@@0AAV?$allocator@UItemListInfoSort@@@0@U_Nonscalar_ptr_iterator_tag@0@@Z
_TEXT	SEGMENT
__First$ = 8						; size = 4
__Last$ = 12						; size = 4
__Al$ = 16						; size = 4
___formal$ = 20						; size = 1
??$_Destroy_range@V?$allocator@UItemListInfoSort@@@std@@@std@@YAXPAUItemListInfoSort@@0AAV?$allocator@UItemListInfoSort@@@0@U_Nonscalar_ptr_iterator_tag@0@@Z PROC ; std::_Destroy_range<std::allocator<ItemListInfoSort> >, COMDAT

; 96   : 	for (; _First != _Last; ++_First)
; 97   : 		_Dest_val(_Al, _First);
; 98   : 	}

  00000	c3		 ret	 0
??$_Destroy_range@V?$allocator@UItemListInfoSort@@@std@@@std@@YAXPAUItemListInfoSort@@0AAV?$allocator@UItemListInfoSort@@@0@U_Nonscalar_ptr_iterator_tag@0@@Z ENDP ; std::_Destroy_range<std::allocator<ItemListInfoSort> >
_TEXT	ENDS
PUBLIC	??$make_heap@PAUItemListInfoSort@@VShopExtraItemSort@@@std@@YAXPAUItemListInfoSort@@0VShopExtraItemSort@@@Z ; std::make_heap<ItemListInfoSort *,ShopExtraItemSort>
; Function compile flags: /Ogsp
; File c:\program files (x86)\microsoft visual studio 10.0\vc\include\algorithm
;	COMDAT ??$make_heap@PAUItemListInfoSort@@VShopExtraItemSort@@@std@@YAXPAUItemListInfoSort@@0VShopExtraItemSort@@@Z
_TEXT	SEGMENT
__First$ = 8						; size = 4
__Last$ = 12						; size = 4
__Pred$ = 16						; size = 1
??$make_heap@PAUItemListInfoSort@@VShopExtraItemSort@@@std@@YAXPAUItemListInfoSort@@0VShopExtraItemSort@@@Z PROC ; std::make_heap<ItemListInfoSort *,ShopExtraItemSort>, COMDAT

; 2672 : 	{	// make [_First, _Last) into a heap, using _Pred

  00000	55		 push	 ebp
  00001	8b ec		 mov	 ebp, esp

; 2673 : 	_DEBUG_RANGE(_First, _Last);
; 2674 : 	_DEBUG_POINTER(_Pred);
; 2675 : 	if (1 < _Last - _First)

  00003	8b 45 0c	 mov	 eax, DWORD PTR __Last$[ebp]
  00006	2b 45 08	 sub	 eax, DWORD PTR __First$[ebp]
  00009	6a 14		 push	 20			; 00000014H
  0000b	99		 cdq
  0000c	59		 pop	 ecx
  0000d	f7 f9		 idiv	 ecx
  0000f	83 f8 01	 cmp	 eax, 1
  00012	7e 15		 jle	 SHORT $LN1@make_heap

; 2676 : 		_Make_heap(_Unchecked(_First), _Unchecked(_Last), _Pred,
; 2677 : 			_Dist_type(_First), _Val_type(_First));

  00014	6a 00		 push	 0
  00016	6a 00		 push	 0
  00018	ff 75 10	 push	 DWORD PTR __Pred$[ebp]
  0001b	ff 75 0c	 push	 DWORD PTR __Last$[ebp]
  0001e	ff 75 08	 push	 DWORD PTR __First$[ebp]
  00021	e8 00 00 00 00	 call	 ??$_Make_heap@PAUItemListInfoSort@@HU1@VShopExtraItemSort@@@std@@YAXPAUItemListInfoSort@@0VShopExtraItemSort@@PAH0@Z ; std::_Make_heap<ItemListInfoSort *,int,ItemListInfoSort,ShopExtraItemSort>
  00026	83 c4 14	 add	 esp, 20			; 00000014H
$LN1@make_heap:

; 2678 : 	}

  00029	5d		 pop	 ebp
  0002a	c3		 ret	 0
??$make_heap@PAUItemListInfoSort@@VShopExtraItemSort@@@std@@YAXPAUItemListInfoSort@@0VShopExtraItemSort@@@Z ENDP ; std::make_heap<ItemListInfoSort *,ShopExtraItemSort>
_TEXT	ENDS
PUBLIC	??$_Insertion_sort@PAUItemListInfoSort@@VShopExtraItemSort@@@std@@YAXPAUItemListInfoSort@@0VShopExtraItemSort@@@Z ; std::_Insertion_sort<ItemListInfoSort *,ShopExtraItemSort>
; Function compile flags: /Ogsp
;	COMDAT ??$_Insertion_sort@PAUItemListInfoSort@@VShopExtraItemSort@@@std@@YAXPAUItemListInfoSort@@0VShopExtraItemSort@@@Z
_TEXT	SEGMENT
__First$ = 8						; size = 4
__Last$ = 12						; size = 4
__Pred$ = 16						; size = 1
??$_Insertion_sort@PAUItemListInfoSort@@VShopExtraItemSort@@@std@@YAXPAUItemListInfoSort@@0VShopExtraItemSort@@@Z PROC ; std::_Insertion_sort<ItemListInfoSort *,ShopExtraItemSort>, COMDAT

; 3676 : 	{	// insertion sort [_First, _Last), using _Pred

  00000	55		 push	 ebp
  00001	8b ec		 mov	 ebp, esp

; 3677 : 	_Insertion_sort1(_First, _Last, _Pred, _Val_type(_First));

  00003	6a 00		 push	 0
  00005	ff 75 10	 push	 DWORD PTR __Pred$[ebp]
  00008	ff 75 0c	 push	 DWORD PTR __Last$[ebp]
  0000b	ff 75 08	 push	 DWORD PTR __First$[ebp]
  0000e	e8 00 00 00 00	 call	 ??$_Insertion_sort1@PAUItemListInfoSort@@VShopExtraItemSort@@U1@@std@@YAXPAUItemListInfoSort@@0VShopExtraItemSort@@0@Z ; std::_Insertion_sort1<ItemListInfoSort *,ShopExtraItemSort,ItemListInfoSort>
  00013	83 c4 10	 add	 esp, 16			; 00000010H

; 3678 : 	}

  00016	5d		 pop	 ebp
  00017	c3		 ret	 0
??$_Insertion_sort@PAUItemListInfoSort@@VShopExtraItemSort@@@std@@YAXPAUItemListInfoSort@@0VShopExtraItemSort@@@Z ENDP ; std::_Insertion_sort<ItemListInfoSort *,ShopExtraItemSort>
_TEXT	ENDS
PUBLIC	??$_Uninit_move@PAUItemListInfoSort@@PAU1@V?$allocator@UItemListInfoSort@@@std@@U1@@std@@YAPAUItemListInfoSort@@PAU1@00AAV?$allocator@UItemListInfoSort@@@0@0U_Nonscalar_ptr_iterator_tag@0@@Z ; std::_Uninit_move<ItemListInfoSort *,ItemListInfoSort *,std::allocator<ItemListInfoSort>,ItemListInfoSort>
; Function compile flags: /Ogsp
; File c:\program files (x86)\microsoft visual studio 10.0\vc\include\memory
;	COMDAT ??$_Uninit_move@PAUItemListInfoSort@@PAU1@V?$allocator@UItemListInfoSort@@@std@@U1@@std@@YAPAUItemListInfoSort@@PAU1@00AAV?$allocator@UItemListInfoSort@@@0@0U_Nonscalar_ptr_iterator_tag@0@@Z
_TEXT	SEGMENT
__First$ = 8						; size = 4
__Last$ = 12						; size = 4
__Dest$ = 16						; size = 4
__Al$ = 20						; size = 4
___formal$ = 24						; size = 4
___formal$ = 28						; size = 1
??$_Uninit_move@PAUItemListInfoSort@@PAU1@V?$allocator@UItemListInfoSort@@@std@@U1@@std@@YAPAUItemListInfoSort@@PAU1@00AAV?$allocator@UItemListInfoSort@@@0@0U_Nonscalar_ptr_iterator_tag@0@@Z PROC ; std::_Uninit_move<ItemListInfoSort *,ItemListInfoSort *,std::allocator<ItemListInfoSort>,ItemListInfoSort>, COMDAT

; 424  : 	{	// move [_First, _Last) to raw _Dest, using _Al, arbitrary type

  00000	55		 push	 ebp
  00001	8b ec		 mov	 ebp, esp
  00003	56		 push	 esi

; 425  : 	_DEBUG_RANGE(_First, _Last);
; 426  : 	_DEBUG_POINTER(_Dest);
; 427  : 	_FwdIt _Next = _Dest;
; 428  : 
; 429  : 	_TRY_BEGIN
; 430  : 	for (; _First != _Last; ++_Dest, ++_First)

  00004	8b 75 08	 mov	 esi, DWORD PTR __First$[ebp]
  00007	eb 16		 jmp	 SHORT $LN24@Uninit_mov
$LL6@Uninit_mov:

; 431  : 		_Cons_val(_Al, _Dest, (_Valty &&)*_First);

  00009	56		 push	 esi
  0000a	ff 75 10	 push	 DWORD PTR __Dest$[ebp]
  0000d	ff 75 14	 push	 DWORD PTR __Al$[ebp]
  00010	e8 00 00 00 00	 call	 ??$_Cons_val@V?$allocator@UItemListInfoSort@@@std@@UItemListInfoSort@@U3@@std@@YAXAAV?$allocator@UItemListInfoSort@@@0@PAUItemListInfoSort@@$$QAU2@@Z ; std::_Cons_val<std::allocator<ItemListInfoSort>,ItemListInfoSort,ItemListInfoSort>
  00015	83 45 10 14	 add	 DWORD PTR __Dest$[ebp], 20 ; 00000014H
  00019	83 c4 0c	 add	 esp, 12			; 0000000cH
  0001c	83 c6 14	 add	 esi, 20			; 00000014H
$LN24@Uninit_mov:

; 425  : 	_DEBUG_RANGE(_First, _Last);
; 426  : 	_DEBUG_POINTER(_Dest);
; 427  : 	_FwdIt _Next = _Dest;
; 428  : 
; 429  : 	_TRY_BEGIN
; 430  : 	for (; _First != _Last; ++_Dest, ++_First)

  0001f	3b 75 0c	 cmp	 esi, DWORD PTR __Last$[ebp]
  00022	75 e5		 jne	 SHORT $LL6@Uninit_mov

; 432  : 	_CATCH_ALL
; 433  : 	for (; _Next != _Dest; ++_Next)
; 434  : 		_Dest_val(_Al, _Next);
; 435  : 	_RERAISE;
; 436  : 	_CATCH_END
; 437  : 	return (_Dest);

  00024	8b 45 10	 mov	 eax, DWORD PTR __Dest$[ebp]
  00027	5e		 pop	 esi

; 438  : 	}

  00028	5d		 pop	 ebp
  00029	c3		 ret	 0
??$_Uninit_move@PAUItemListInfoSort@@PAU1@V?$allocator@UItemListInfoSort@@@std@@U1@@std@@YAPAUItemListInfoSort@@PAU1@00AAV?$allocator@UItemListInfoSort@@@0@0U_Nonscalar_ptr_iterator_tag@0@@Z ENDP ; std::_Uninit_move<ItemListInfoSort *,ItemListInfoSort *,std::allocator<ItemListInfoSort>,ItemListInfoSort>
_TEXT	ENDS
PUBLIC	??$_Median@PAUItemListInfoSort@@VShopExtraItemSort@@@std@@YAXPAUItemListInfoSort@@00VShopExtraItemSort@@@Z ; std::_Median<ItemListInfoSort *,ShopExtraItemSort>
; Function compile flags: /Ogsp
; File c:\program files (x86)\microsoft visual studio 10.0\vc\include\algorithm
;	COMDAT ??$_Median@PAUItemListInfoSort@@VShopExtraItemSort@@@std@@YAXPAUItemListInfoSort@@00VShopExtraItemSort@@@Z
_TEXT	SEGMENT
tv200 = 8						; size = 4
__First$ = 8						; size = 4
__Mid$ = 12						; size = 4
tv203 = 16						; size = 4
__Last$ = 16						; size = 4
__Pred$ = 20						; size = 1
??$_Median@PAUItemListInfoSort@@VShopExtraItemSort@@@std@@YAXPAUItemListInfoSort@@00VShopExtraItemSort@@@Z PROC ; std::_Median<ItemListInfoSort *,ShopExtraItemSort>, COMDAT

; 3695 : 	{	// sort median element to middle

  00000	55		 push	 ebp
  00001	8b ec		 mov	 ebp, esp

; 3696 : 	if (40 < _Last - _First)

  00003	8b 4d 08	 mov	 ecx, DWORD PTR __First$[ebp]
  00006	53		 push	 ebx
  00007	8b 5d 10	 mov	 ebx, DWORD PTR __Last$[ebp]
  0000a	56		 push	 esi
  0000b	8b c3		 mov	 eax, ebx
  0000d	2b c1		 sub	 eax, ecx
  0000f	6a 14		 push	 20			; 00000014H
  00011	99		 cdq
  00012	5e		 pop	 esi
  00013	f7 fe		 idiv	 esi
  00015	83 f8 28	 cmp	 eax, 40			; 00000028H
  00018	7e 68		 jle	 SHORT $LN2@Median

; 3697 : 		{	// median of nine
; 3698 : 		size_t _Step = (_Last - _First + 1) / 8;

  0001a	40		 inc	 eax
  0001b	99		 cdq
  0001c	83 e2 07	 and	 edx, 7
  0001f	03 c2		 add	 eax, edx
  00021	57		 push	 edi

; 3699 : 		_Med3(_First, _First + _Step, _First + 2 * _Step, _Pred);

  00022	ff 75 14	 push	 DWORD PTR __Pred$[ebp]
  00025	c1 f8 03	 sar	 eax, 3
  00028	8b f8		 mov	 edi, eax
  0002a	8b f0		 mov	 esi, eax
  0002c	6b ff 28	 imul	 edi, 40			; 00000028H
  0002f	6b f6 14	 imul	 esi, 20			; 00000014H
  00032	8d 14 0f	 lea	 edx, DWORD PTR [edi+ecx]
  00035	8d 04 0e	 lea	 eax, DWORD PTR [esi+ecx]
  00038	52		 push	 edx
  00039	50		 push	 eax
  0003a	51		 push	 ecx
  0003b	89 45 08	 mov	 DWORD PTR tv200[ebp], eax
  0003e	e8 00 00 00 00	 call	 ??$_Med3@PAUItemListInfoSort@@VShopExtraItemSort@@@std@@YAXPAUItemListInfoSort@@00VShopExtraItemSort@@@Z ; std::_Med3<ItemListInfoSort *,ShopExtraItemSort>

; 3700 : 		_Med3(_Mid - _Step, _Mid, _Mid + _Step, _Pred);

  00043	8b 45 0c	 mov	 eax, DWORD PTR __Mid$[ebp]
  00046	ff 75 14	 push	 DWORD PTR __Pred$[ebp]
